; ModuleID = 'projects/Alfven/Alfven.cpp'
target datalayout = "e-p:64:64-i64:64-f80:128-n8:16:32:64-S128"
target triple = "x86_64-pc-linux-gnu"
define internal void @pgCplus_compiled.() noinline {
L.entry:
	ret void
}


define linkonce_odr i8* @_ZnwmPv(i64 %_T43273824_51841.arg, i8* %__p.arg) #0 inlinehint !dbg !4172 {
L.entry:
	%_T43273824_51841.addr = alloca i64, align 8
	%__p.addr = alloca i8*, align 8

	call void @llvm.dbg.declare (metadata i64* %_T43273824_51841.addr, metadata !4176, metadata !4177), !dbg !4173
	store i64 %_T43273824_51841.arg, i64* %_T43273824_51841.addr, align 8, !tbaa !4184
	call void @llvm.dbg.declare (metadata i64* %_T43273824_51841.addr, metadata !4178, metadata !4177), !dbg !4173
	call void @llvm.dbg.declare (metadata i8** %__p.addr, metadata !4179, metadata !4177), !dbg !4173
	store i8* %__p.arg, i8** %__p.addr, align 8, !tbaa !4185
	call void @llvm.dbg.declare (metadata i8** %__p.addr, metadata !4180, metadata !4177), !dbg !4173
	%0 = load i8*, i8** %__p.addr, align 8, !tbaa !4185, !dbg !4181
	ret i8*  %0, !dbg !4181
}
define linkonce_odr void @_ZdlPvS_(i8* %_T43273824_51842.arg, i8* %_T43274120_51842.arg) #0 inlinehint !dbg !4189 {
L.entry:
	%_T43273824_51842.addr = alloca i8*, align 8
	%_T43274120_51842.addr = alloca i8*, align 8

	call void @llvm.dbg.declare (metadata i8** %_T43273824_51842.addr, metadata !4193, metadata !4177), !dbg !4190
	store i8* %_T43273824_51842.arg, i8** %_T43273824_51842.addr, align 8, !tbaa !4185
	call void @llvm.dbg.declare (metadata i8** %_T43273824_51842.addr, metadata !4194, metadata !4177), !dbg !4190
	call void @llvm.dbg.declare (metadata i8** %_T43274120_51842.addr, metadata !4195, metadata !4177), !dbg !4190
	store i8* %_T43274120_51842.arg, i8** %_T43274120_51842.addr, align 8, !tbaa !4185
	call void @llvm.dbg.declare (metadata i8** %_T43274120_51842.addr, metadata !4196, metadata !4177), !dbg !4190
	ret void, !dbg !4197
}

%struct.ompi_datatype_t = type opaque
%struct._ZSt12_Vector_baseIiSaIiEE = type <{ %struct._ZNSt12_Vector_baseIiSaIiEE12_Vector_implE}> 
%struct._ZSt12_Vector_baseISt5arrayIdLm3EESaIS1_EE = type <{ %struct._ZNSt12_Vector_baseISt5arrayIdLm3EESaIS1_EE12_Vector_implE}> 
%struct._ZSt6vectorIcSaIcEE = type <{ %struct._ZSt12_Vector_baseIcSaIcEE}> 
%struct._ZNSt12_Vector_baseIcSaIcEE17_Vector_impl_dataE = type <{ i8*, i8*, i8*}> 
%struct._ZNSt12_Vector_baseISt5arrayIdLm3EESaIS1_EE17_Vector_impl_dataE = type <{ %struct._ZSt5arrayIdLm3EE*, %struct._ZSt5arrayIdLm3EE*, %struct._ZSt5arrayIdLm3EE*}> 
%struct._ZSt5arrayIbLm3EE = type <{ [3 x i8]}> 
%struct.ompi_request_t = type opaque
%struct._ZNSt12_Vector_baseIiSaIiEE12_Vector_implE = type <{ %struct._ZNSt12_Vector_baseIiSaIiEE17_Vector_impl_dataE}> 
%struct._ZSt6vectorIP14ompi_request_tSaIS1_EE = type <{ %struct._ZSt12_Vector_baseIP14ompi_request_tSaIS1_EE}> 
%struct._ZSt6vectorISt5arrayIdLm3EESaIS1_EE = type <{ %struct._ZSt12_Vector_baseISt5arrayIdLm3EESaIS1_EE}> 
%struct._ZSt12_Vector_baseIcSaIcEE = type <{ %struct._ZNSt12_Vector_baseIcSaIcEE12_Vector_implE}> 
%struct._ZSt6vectorIiSaIiEE = type <{ %struct._ZSt12_Vector_baseIiSaIiEE}> 
%struct._ZSt5arrayIP15ompi_datatype_tLm27EE = type <{ [27 x %struct.ompi_datatype_t*]}> 
%struct.FsGridCouplingInformation = type <{ %struct._ZSt6vectorIiSaIiEE}> 
%struct._ZSt5arrayIiLm27EE = type <{ [27 x i32]}> 
%struct._ZSt5arrayIdLm3EE = type <{ [3 x double]}> 
%struct._ZNSt12_Vector_baseIiSaIiEE17_Vector_impl_dataE = type <{ i32*, i32*, i32*}> 
%struct._ZSt12_Vector_baseIP14ompi_request_tSaIS1_EE = type <{ %struct._ZNSt12_Vector_baseIP14ompi_request_tSaIS1_EE12_Vector_implE}> 
%struct._Z6FsGridISt5arrayIdLm3EELi2EE = type <{ double, double, double, %struct._ZSt5arrayIdLm3EE, %struct.ompi_communicator_t*, i32, [4 x i8], %struct._ZSt6vectorIP14ompi_request_tSaIS1_EE, i32, %struct._ZSt5arrayIiLm27EE, %struct._ZSt6vectorIcSaIcEE, %struct._ZSt5arrayIiLm3EE, %struct._ZSt5arrayIiLm3EE, %struct._ZSt5arrayIbLm3EE, i8, %struct._ZSt5arrayIiLm3EE, %struct._ZSt5arrayIiLm3EE, %struct._ZSt5arrayIiLm3EE, %struct._ZSt5arrayIiLm3EE, [4 x i8], %struct.FsGridCouplingInformation*, %struct._ZSt5arrayIP15ompi_datatype_tLm27EE, %struct._ZSt5arrayIP15ompi_datatype_tLm27EE, %struct._ZSt6vectorISt5arrayIdLm3EESaIS1_EE}> 
%struct._ZNSt12_Vector_baseISt5arrayIdLm3EESaIS1_EE12_Vector_implE = type <{ %struct._ZNSt12_Vector_baseISt5arrayIdLm3EESaIS1_EE17_Vector_impl_dataE}> 
%struct.ompi_communicator_t = type opaque
%struct._ZNSt12_Vector_baseIP14ompi_request_tSaIS1_EE17_Vector_impl_dataE = type <{ %struct.ompi_request_t**, %struct.ompi_request_t**, %struct.ompi_request_t**}> 
%struct._ZNSt12_Vector_baseIP14ompi_request_tSaIS1_EE12_Vector_implE = type <{ %struct._ZNSt12_Vector_baseIP14ompi_request_tSaIS1_EE17_Vector_impl_dataE}> 
%struct._ZSt5arrayIiLm3EE = type <{ [3 x i32]}> 
%struct._ZNSt12_Vector_baseIcSaIcEE12_Vector_implE = type <{ %struct._ZNSt12_Vector_baseIcSaIcEE17_Vector_impl_dataE}> 

define linkonce_odr i64 @_ZN6FsGridISt5arrayIdLm3EELi2EE16LocalIDForCoordsEiii(%struct._Z6FsGridISt5arrayIdLm3EELi2EE* %_T43275112_52232.arg, i32 signext %x.arg, i32 signext %y.arg, i32 signext %z.arg) #0 inlinehint !dbg !4204 {
L.entry:
	%_T43275112_52232.addr = alloca %struct._Z6FsGridISt5arrayIdLm3EELi2EE*, align 8
	%x.addr = alloca i32, align 4
	%y.addr = alloca i32, align 4
	%z.addr = alloca i32, align 4
	%index.addr = alloca i64, align 8

	call void @llvm.dbg.declare (metadata %struct._Z6FsGridISt5arrayIdLm3EELi2EE** %_T43275112_52232.addr, metadata !4256, metadata !4177), !dbg !4205
	store %struct._Z6FsGridISt5arrayIdLm3EELi2EE* %_T43275112_52232.arg, %struct._Z6FsGridISt5arrayIdLm3EELi2EE** %_T43275112_52232.addr, align 8, !tbaa !4185
	call void @llvm.dbg.declare (metadata %struct._Z6FsGridISt5arrayIdLm3EELi2EE** %_T43275112_52232.addr, metadata !4257, metadata !4177), !dbg !4205
	call void @llvm.dbg.declare (metadata i32* %x.addr, metadata !4258, metadata !4177), !dbg !4205
	store i32 %x.arg, i32* %x.addr, align 4, !tbaa !4184
	call void @llvm.dbg.declare (metadata i32* %x.addr, metadata !4259, metadata !4177), !dbg !4205
	call void @llvm.dbg.declare (metadata i32* %y.addr, metadata !4260, metadata !4177), !dbg !4205
	store i32 %y.arg, i32* %y.addr, align 4, !tbaa !4184
	call void @llvm.dbg.declare (metadata i32* %y.addr, metadata !4261, metadata !4177), !dbg !4205
	call void @llvm.dbg.declare (metadata i32* %z.addr, metadata !4262, metadata !4177), !dbg !4205
	store i32 %z.arg, i32* %z.addr, align 4, !tbaa !4184
	call void @llvm.dbg.declare (metadata i32* %z.addr, metadata !4263, metadata !4177), !dbg !4205
	call void @llvm.dbg.declare (metadata i64* %index.addr, metadata !4265, metadata !4177), !dbg !4205
	store i64 0, i64* %index.addr, align 8, !tbaa !4270, !dbg !4264
	%0 = load %struct._Z6FsGridISt5arrayIdLm3EELi2EE*, %struct._Z6FsGridISt5arrayIdLm3EELi2EE** %_T43275112_52232.addr, align 8, !tbaa !4185, !dbg !4266
	%1 = bitcast %struct._Z6FsGridISt5arrayIdLm3EELi2EE*  %0 to i8*, !dbg !4266
	%2 = getelementptr i8, i8*  %1, i64 260, !dbg !4266
	%3 = bitcast i8*  %2 to i32*, !dbg !4266
	%4 = load i32, i32*  %3, align 4, !tbaa !4184, !dbg !4266
	%5 = icmp sle i32  %4, 1, !dbg !4266
	br i1  %5, label %L.B0000, label %L.B1340, !dbg !4266
L.B1340:
	%6 = load i32, i32* %z.addr, align 4, !tbaa !4272, !dbg !4266
	%7 = add i32  %6, 2, !dbg !4266
	%8 = bitcast %struct._Z6FsGridISt5arrayIdLm3EELi2EE*  %0 to i8*, !dbg !4266
	%9 = getelementptr i8, i8*  %8, i64 280, !dbg !4266
	%10 = bitcast i8*  %9 to i32*, !dbg !4266
	%11 = load i32, i32*  %10, align 4, !tbaa !4184, !dbg !4266
	%12 = getelementptr i8, i8*  %8, i64 276, !dbg !4266
	%13 = bitcast i8*  %12 to i32*, !dbg !4266
	%14 = load i32, i32*  %13, align 4, !tbaa !4184, !dbg !4266
	%15 = mul i32  %11,  %14, !dbg !4266
	%16 = mul i32  %7,  %15, !dbg !4266
	%17 = sext i32  %16 to i64, !dbg !4266
	store i64  %17, i64* %index.addr, align 8, !tbaa !4270, !dbg !4266
	br label %L.B0000
L.B0000:
	%18 = load %struct._Z6FsGridISt5arrayIdLm3EELi2EE*, %struct._Z6FsGridISt5arrayIdLm3EELi2EE** %_T43275112_52232.addr, align 8, !tbaa !4185, !dbg !4266
	%19 = bitcast %struct._Z6FsGridISt5arrayIdLm3EELi2EE*  %18 to i8*, !dbg !4266
	%20 = getelementptr i8, i8*  %19, i64 256, !dbg !4266
	%21 = bitcast i8*  %20 to i32*, !dbg !4266
	%22 = load i32, i32*  %21, align 4, !tbaa !4184, !dbg !4266
	%23 = icmp sle i32  %22, 1, !dbg !4266
	br i1  %23, label %L.B0001, label %L.B1341, !dbg !4266
L.B1341:
	%24 = load i64, i64* %index.addr, align 8, !tbaa !4270, !dbg !4266
	%25 = load i32, i32* %y.addr, align 4, !tbaa !4272, !dbg !4266
	%26 = add i32  %25, 2, !dbg !4266
	%27 = bitcast %struct._Z6FsGridISt5arrayIdLm3EELi2EE*  %18 to i8*, !dbg !4266
	%28 = getelementptr i8, i8*  %27, i64 276, !dbg !4266
	%29 = bitcast i8*  %28 to i32*, !dbg !4266
	%30 = load i32, i32*  %29, align 4, !tbaa !4184, !dbg !4266
	%31 = mul i32  %26,  %30, !dbg !4266
	%32 = sext i32  %31 to i64, !dbg !4266
	%33 = add i64  %24,  %32, !dbg !4266
	store i64  %33, i64* %index.addr, align 8, !tbaa !4270, !dbg !4266
	br label %L.B0001
L.B0001:
	%34 = load %struct._Z6FsGridISt5arrayIdLm3EELi2EE*, %struct._Z6FsGridISt5arrayIdLm3EELi2EE** %_T43275112_52232.addr, align 8, !tbaa !4185, !dbg !4266
	%35 = bitcast %struct._Z6FsGridISt5arrayIdLm3EELi2EE*  %34 to i8*, !dbg !4266
	%36 = getelementptr i8, i8*  %35, i64 252, !dbg !4266
	%37 = bitcast i8*  %36 to i32*, !dbg !4266
	%38 = load i32, i32*  %37, align 4, !tbaa !4184, !dbg !4266
	%39 = icmp sle i32  %38, 1, !dbg !4266
	%40 = zext i1  %39 to i32, !dbg !4266
	%41 = trunc i32  %40 to i1, !dbg !4266
	%42 = load i64, i64* %index.addr, align 8, !tbaa !4270, !dbg !4266
	%43 = load i32, i32* %x.addr, align 4, !tbaa !4272, !dbg !4266
	%44 = sext i32  %43 to i64, !dbg !4266
	%45 = add i64  %44, 2, !dbg !4266
	%46 = add i64  %42,  %45, !dbg !4266
	%47 = select i1  %41, i64  %42, i64  %46, !dbg !4266
	ret i64  %47, !dbg !4267
}
define linkonce_odr %struct._ZSt5arrayIiLm3EE* @_ZN6FsGridISt5arrayIdLm3EELi2EE12getLocalSizeEv(%struct._Z6FsGridISt5arrayIdLm3EELi2EE* %_T43273824_52233.arg) #0 inlinehint !dbg !4277 {
L.entry:
	%_T43273824_52233.addr = alloca %struct._Z6FsGridISt5arrayIdLm3EELi2EE*, align 8

	call void @llvm.dbg.declare (metadata %struct._Z6FsGridISt5arrayIdLm3EELi2EE** %_T43273824_52233.addr, metadata !4281, metadata !4177), !dbg !4278
	store %struct._Z6FsGridISt5arrayIdLm3EELi2EE* %_T43273824_52233.arg, %struct._Z6FsGridISt5arrayIdLm3EELi2EE** %_T43273824_52233.addr, align 8, !tbaa !4185
	call void @llvm.dbg.declare (metadata %struct._Z6FsGridISt5arrayIdLm3EELi2EE** %_T43273824_52233.addr, metadata !4282, metadata !4177), !dbg !4278
	%0 = load %struct._Z6FsGridISt5arrayIdLm3EELi2EE*, %struct._Z6FsGridISt5arrayIdLm3EELi2EE** %_T43273824_52233.addr, align 8, !tbaa !4185, !dbg !4283
	%1 = bitcast %struct._Z6FsGridISt5arrayIdLm3EELi2EE*  %0 to i8*, !dbg !4283
	%2 = getelementptr i8, i8*  %1, i64 264, !dbg !4283
	%3 = bitcast i8*  %2 to %struct._ZSt5arrayIiLm3EE*, !dbg !4283
	ret %struct._ZSt5arrayIiLm3EE*  %3, !dbg !4283
}
define linkonce_odr %struct._ZSt5arrayIdLm3EE* @_ZN6FsGridISt5arrayIdLm3EELi2EE3getEiii(%struct._Z6FsGridISt5arrayIdLm3EELi2EE* %_T42936064_52234.arg, i32 signext %x.arg, i32 signext %y.arg, i32 signext %z.arg) #0 inlinehint !dbg !4288 {
L.entry:
	%_T42936064_52234.addr = alloca %struct._Z6FsGridISt5arrayIdLm3EELi2EE*, align 8
	%x.addr = alloca i32, align 4
	%y.addr = alloca i32, align 4
	%z.addr = alloca i32, align 4
	%isInNeighbourDomain.addr = alloca i32, align 4
	%coord_shift.addr = alloca [3 x i32], align 4
	%..inline.addr = alloca %struct._Z6FsGridISt5arrayIdLm3EELi2EE*, align 8
	%..inline.addr.1 = alloca i64, align 8

	call void @llvm.dbg.declare (metadata %struct._Z6FsGridISt5arrayIdLm3EELi2EE** %_T42936064_52234.addr, metadata !4412, metadata !4177), !dbg !4289
	store %struct._Z6FsGridISt5arrayIdLm3EELi2EE* %_T42936064_52234.arg, %struct._Z6FsGridISt5arrayIdLm3EELi2EE** %_T42936064_52234.addr, align 8, !tbaa !4185
	call void @llvm.dbg.declare (metadata %struct._Z6FsGridISt5arrayIdLm3EELi2EE** %_T42936064_52234.addr, metadata !4413, metadata !4177), !dbg !4289
	call void @llvm.dbg.declare (metadata i32* %x.addr, metadata !4414, metadata !4177), !dbg !4289
	store i32 %x.arg, i32* %x.addr, align 4, !tbaa !4184
	call void @llvm.dbg.declare (metadata i32* %x.addr, metadata !4415, metadata !4177), !dbg !4289
	call void @llvm.dbg.declare (metadata i32* %y.addr, metadata !4416, metadata !4177), !dbg !4289
	store i32 %y.arg, i32* %y.addr, align 4, !tbaa !4184
	call void @llvm.dbg.declare (metadata i32* %y.addr, metadata !4417, metadata !4177), !dbg !4289
	call void @llvm.dbg.declare (metadata i32* %z.addr, metadata !4418, metadata !4177), !dbg !4289
	store i32 %z.arg, i32* %z.addr, align 4, !tbaa !4184
	call void @llvm.dbg.declare (metadata i32* %z.addr, metadata !4419, metadata !4177), !dbg !4289
	call void @llvm.dbg.declare (metadata i32* %isInNeighbourDomain.addr, metadata !4421, metadata !4177), !dbg !4289
	store i32 13, i32* %isInNeighbourDomain.addr, align 4, !tbaa !4272, !dbg !4420
	call void @llvm.dbg.declare (metadata [3 x i32]* %coord_shift.addr, metadata !4423, metadata !4177), !dbg !4289
	%0 = bitcast [3 x i32]* %coord_shift.addr to i32*, !dbg !4422
	store i32 0, i32*  %0, align 4, !tbaa !4184, !dbg !4422
	%1 = bitcast [3 x i32]* %coord_shift.addr to i8*, !dbg !4422
	%2 = getelementptr i8, i8*  %1, i64 4, !dbg !4422
	%3 = bitcast i8*  %2 to i32*, !dbg !4422
	store i32 0, i32*  %3, align 4, !tbaa !4184, !dbg !4422
	%4 = getelementptr i8, i8*  %1, i64 8, !dbg !4422
	%5 = bitcast i8*  %4 to i32*, !dbg !4422
	store i32 0, i32*  %5, align 4, !tbaa !4184, !dbg !4422
	%6 = load i32, i32* %x.addr, align 4, !tbaa !4272, !dbg !4424
	%7 = icmp sge i32  %6, 0, !dbg !4424
	br i1  %7, label %L.B0003, label %L.B1362, !dbg !4424
L.B1362:
	store i32 4, i32* %isInNeighbourDomain.addr, align 4, !tbaa !4272, !dbg !4425
	%8 = bitcast [3 x i32]* %coord_shift.addr to i32*, !dbg !4426
	store i32 1, i32*  %8, align 4, !tbaa !4184, !dbg !4426
	br label %L.B0003
L.B0003:
	%9 = load i32, i32* %x.addr, align 4, !tbaa !4272, !dbg !4427
	%10 = load %struct._Z6FsGridISt5arrayIdLm3EELi2EE*, %struct._Z6FsGridISt5arrayIdLm3EELi2EE** %_T42936064_52234.addr, align 8, !tbaa !4185, !dbg !4427
	%11 = bitcast %struct._Z6FsGridISt5arrayIdLm3EELi2EE*  %10 to i8*, !dbg !4427
	%12 = getelementptr i8, i8*  %11, i64 264, !dbg !4427
	%13 = bitcast i8*  %12 to i32*, !dbg !4427
	%14 = load i32, i32*  %13, align 4, !tbaa !4184, !dbg !4427
	%15 = icmp slt i32  %9,  %14, !dbg !4427
	br i1  %15, label %L.B0004, label %L.B1363, !dbg !4427
L.B1363:
	%16 = load i32, i32* %isInNeighbourDomain.addr, align 4, !tbaa !4272, !dbg !4428
	%17 = add i32  %16, 9, !dbg !4428
	store i32  %17, i32* %isInNeighbourDomain.addr, align 4, !tbaa !4272, !dbg !4428
	%18 = bitcast [3 x i32]* %coord_shift.addr to i32*, !dbg !4429
	store i32 -1, i32*  %18, align 4, !tbaa !4184, !dbg !4429
	br label %L.B0004
L.B0004:
	%19 = load i32, i32* %y.addr, align 4, !tbaa !4272, !dbg !4430
	%20 = icmp sge i32  %19, 0, !dbg !4430
	br i1  %20, label %L.B0005, label %L.B1364, !dbg !4430
L.B1364:
	%21 = load i32, i32* %isInNeighbourDomain.addr, align 4, !tbaa !4272, !dbg !4431
	%22 = sub i32  %21, 3, !dbg !4431
	store i32  %22, i32* %isInNeighbourDomain.addr, align 4, !tbaa !4272, !dbg !4431
	%23 = bitcast [3 x i32]* %coord_shift.addr to i8*, !dbg !4432
	%24 = getelementptr i8, i8*  %23, i64 4, !dbg !4432
	%25 = bitcast i8*  %24 to i32*, !dbg !4432
	store i32 1, i32*  %25, align 4, !tbaa !4184, !dbg !4432
	br label %L.B0005
L.B0005:
	%26 = load i32, i32* %y.addr, align 4, !tbaa !4272, !dbg !4427
	%27 = load %struct._Z6FsGridISt5arrayIdLm3EELi2EE*, %struct._Z6FsGridISt5arrayIdLm3EELi2EE** %_T42936064_52234.addr, align 8, !tbaa !4185, !dbg !4427
	%28 = bitcast %struct._Z6FsGridISt5arrayIdLm3EELi2EE*  %27 to i8*, !dbg !4427
	%29 = getelementptr i8, i8*  %28, i64 268, !dbg !4427
	%30 = bitcast i8*  %29 to i32*, !dbg !4427
	%31 = load i32, i32*  %30, align 4, !tbaa !4184, !dbg !4427
	%32 = icmp slt i32  %26,  %31, !dbg !4427
	br i1  %32, label %L.B0006, label %L.B1365, !dbg !4427
L.B1365:
	%33 = load i32, i32* %isInNeighbourDomain.addr, align 4, !tbaa !4272, !dbg !4433
	%34 = add i32  %33, 3, !dbg !4433
	store i32  %34, i32* %isInNeighbourDomain.addr, align 4, !tbaa !4272, !dbg !4433
	%35 = bitcast [3 x i32]* %coord_shift.addr to i8*, !dbg !4434
	%36 = getelementptr i8, i8*  %35, i64 4, !dbg !4434
	%37 = bitcast i8*  %36 to i32*, !dbg !4434
	store i32 -1, i32*  %37, align 4, !tbaa !4184, !dbg !4434
	br label %L.B0006
L.B0006:
	%38 = load i32, i32* %z.addr, align 4, !tbaa !4272, !dbg !4435
	%39 = icmp sge i32  %38, 0, !dbg !4435
	br i1  %39, label %L.B0007, label %L.B1366, !dbg !4435
L.B1366:
	%40 = load i32, i32* %isInNeighbourDomain.addr, align 4, !tbaa !4272, !dbg !4436
	%41 = sub i32  %40, 1, !dbg !4436
	store i32  %41, i32* %isInNeighbourDomain.addr, align 4, !tbaa !4272, !dbg !4436
	%42 = bitcast [3 x i32]* %coord_shift.addr to i8*, !dbg !4437
	%43 = getelementptr i8, i8*  %42, i64 8, !dbg !4437
	%44 = bitcast i8*  %43 to i32*, !dbg !4437
	store i32 1, i32*  %44, align 4, !tbaa !4184, !dbg !4437
	br label %L.B0007
L.B0007:
	%45 = load i32, i32* %z.addr, align 4, !tbaa !4272, !dbg !4427
	%46 = load %struct._Z6FsGridISt5arrayIdLm3EELi2EE*, %struct._Z6FsGridISt5arrayIdLm3EELi2EE** %_T42936064_52234.addr, align 8, !tbaa !4185, !dbg !4427
	%47 = bitcast %struct._Z6FsGridISt5arrayIdLm3EELi2EE*  %46 to i8*, !dbg !4427
	%48 = getelementptr i8, i8*  %47, i64 272, !dbg !4427
	%49 = bitcast i8*  %48 to i32*, !dbg !4427
	%50 = load i32, i32*  %49, align 4, !tbaa !4184, !dbg !4427
	%51 = icmp slt i32  %45,  %50, !dbg !4427
	br i1  %51, label %L.B0008, label %L.B1367, !dbg !4427
L.B1367:
	%52 = load i32, i32* %isInNeighbourDomain.addr, align 4, !tbaa !4272, !dbg !4438
	%53 = add i32  %52, 1, !dbg !4438
	store i32  %53, i32* %isInNeighbourDomain.addr, align 4, !tbaa !4272, !dbg !4438
	%54 = bitcast [3 x i32]* %coord_shift.addr to i8*, !dbg !4439
	%55 = getelementptr i8, i8*  %54, i64 8, !dbg !4439
	%56 = bitcast i8*  %55 to i32*, !dbg !4439
	store i32 -1, i32*  %56, align 4, !tbaa !4184, !dbg !4439
	br label %L.B0008
L.B0008:
	%57 = load i32, i32* %isInNeighbourDomain.addr, align 4, !tbaa !4272, !dbg !4440
	%58 = icmp eq i32  %57, 13, !dbg !4440
	br i1  %58, label %L.B0009, label %L.B1368, !dbg !4440
L.B1368:
	%59 = sext i32  %57 to i64, !dbg !4427
	%60 = load %struct._Z6FsGridISt5arrayIdLm3EELi2EE*, %struct._Z6FsGridISt5arrayIdLm3EELi2EE** %_T42936064_52234.addr, align 8, !tbaa !4185, !dbg !4427
	%61 = bitcast %struct._Z6FsGridISt5arrayIdLm3EELi2EE*  %60 to i8*, !dbg !4427
	%62 = getelementptr i8, i8*  %61, i64 92, !dbg !4427
	%63 = bitcast i8*  %62 to i32*, !dbg !4427
	%64 = getelementptr i32, i32*  %63, i64  %59, !dbg !4427
	%65 = load i32, i32*  %64, align 4, !tbaa !4184, !dbg !4427
	%66 = icmp ne i32  %65, -2, !dbg !4427
	br i1  %66, label %L.B0010, label %L.B1369, !dbg !4427
L.B1369:
	ret %struct._ZSt5arrayIdLm3EE*  null, !dbg !4441
L.B1370:
	br label %L.R0004, !dbg !4441
L.B0010:
	%67 = load i32, i32* %isInNeighbourDomain.addr, align 4, !tbaa !4272, !dbg !4427
	%68 = sext i32  %67 to i64, !dbg !4427
	%69 = load %struct._Z6FsGridISt5arrayIdLm3EELi2EE*, %struct._Z6FsGridISt5arrayIdLm3EELi2EE** %_T42936064_52234.addr, align 8, !tbaa !4185, !dbg !4427
	%70 = bitcast %struct._Z6FsGridISt5arrayIdLm3EELi2EE*  %69 to i8*, !dbg !4427
	%71 = getelementptr i8, i8*  %70, i64 92, !dbg !4427
	%72 = bitcast i8*  %71 to i32*, !dbg !4427
	%73 = getelementptr i32, i32*  %72, i64  %68, !dbg !4427
	%74 = load i32, i32*  %73, align 4, !tbaa !4184, !dbg !4427
	%75 = getelementptr i8, i8*  %70, i64 56, !dbg !4427
	%76 = bitcast i8*  %75 to i32*, !dbg !4427
	%77 = load i32, i32*  %76, align 4, !tbaa !4184, !dbg !4427
	%78 = icmp ne i32  %74,  %77, !dbg !4427
	br i1  %78, label %L.B0012, label %L.B1371, !dbg !4427
L.B1371:
	%79 = load i32, i32* %x.addr, align 4, !tbaa !4272, !dbg !4427
	%80 = bitcast [3 x i32]* %coord_shift.addr to i32*, !dbg !4427
	%81 = load i32, i32*  %80, align 4, !tbaa !4184, !dbg !4427
	%82 = bitcast %struct._Z6FsGridISt5arrayIdLm3EELi2EE*  %69 to i8*, !dbg !4427
	%83 = getelementptr i8, i8*  %82, i64 264, !dbg !4427
	%84 = bitcast i8*  %83 to i32*, !dbg !4427
	%85 = load i32, i32*  %84, align 4, !tbaa !4184, !dbg !4427
	%86 = mul i32  %81,  %85, !dbg !4427
	%87 = add i32  %79,  %86, !dbg !4427
	store i32  %87, i32* %x.addr, align 4, !tbaa !4272, !dbg !4427
	%88 = load i32, i32* %y.addr, align 4, !tbaa !4272, !dbg !4427
	%89 = bitcast [3 x i32]* %coord_shift.addr to i8*, !dbg !4427
	%90 = getelementptr i8, i8*  %89, i64 4, !dbg !4427
	%91 = bitcast i8*  %90 to i32*, !dbg !4427
	%92 = load i32, i32*  %91, align 4, !tbaa !4184, !dbg !4427
	%93 = getelementptr i8, i8*  %82, i64 268, !dbg !4427
	%94 = bitcast i8*  %93 to i32*, !dbg !4427
	%95 = load i32, i32*  %94, align 4, !tbaa !4184, !dbg !4427
	%96 = mul i32  %92,  %95, !dbg !4427
	%97 = add i32  %88,  %96, !dbg !4427
	store i32  %97, i32* %y.addr, align 4, !tbaa !4272, !dbg !4427
	%98 = load i32, i32* %z.addr, align 4, !tbaa !4272, !dbg !4427
	%99 = getelementptr i8, i8*  %89, i64 8, !dbg !4427
	%100 = bitcast i8*  %99 to i32*, !dbg !4427
	%101 = load i32, i32*  %100, align 4, !tbaa !4184, !dbg !4427
	%102 = getelementptr i8, i8*  %82, i64 272, !dbg !4427
	%103 = bitcast i8*  %102 to i32*, !dbg !4427
	%104 = load i32, i32*  %103, align 4, !tbaa !4184, !dbg !4427
	%105 = mul i32  %101,  %104, !dbg !4427
	%106 = add i32  %98,  %105, !dbg !4427
	store i32  %106, i32* %z.addr, align 4, !tbaa !4272, !dbg !4427
	br label %L.B0012
L.B0012:
	br label %L.B0009
L.B0009:
	%107 = load %struct._Z6FsGridISt5arrayIdLm3EELi2EE*, %struct._Z6FsGridISt5arrayIdLm3EELi2EE** %_T42936064_52234.addr, align 8, !tbaa !4185, !dbg !4442
	%108 = bitcast %struct._Z6FsGridISt5arrayIdLm3EELi2EE*  %107 to i8*, !dbg !4442
	%109 = bitcast %struct._Z6FsGridISt5arrayIdLm3EELi2EE** %..inline.addr to i8**, !dbg !4442
	store i8*  %108, i8**  %109, align 8, !tbaa !4185, !dbg !4442
	store i64 0, i64* %..inline.addr.1, align 8, !tbaa !4270, !dbg !4442
	%110 = load %struct._Z6FsGridISt5arrayIdLm3EELi2EE*, %struct._Z6FsGridISt5arrayIdLm3EELi2EE** %..inline.addr, align 8, !tbaa !4185, !dbg !4443
	%111 = bitcast %struct._Z6FsGridISt5arrayIdLm3EELi2EE*  %110 to i8*, !dbg !4443
	%112 = getelementptr i8, i8*  %111, i64 260, !dbg !4443
	%113 = bitcast i8*  %112 to i32*, !dbg !4443
	%114 = load i32, i32*  %113, align 4, !tbaa !4184, !dbg !4443
	%115 = icmp sle i32  %114, 1, !dbg !4443
	br i1  %115, label %L..inline.70807, label %L.B1372, !dbg !4443
L.B1372:
	%116 = bitcast %struct._Z6FsGridISt5arrayIdLm3EELi2EE*  %107 to i8*, !dbg !4444
	%117 = getelementptr i8, i8*  %116, i64 280, !dbg !4444
	%118 = bitcast i8*  %117 to i32*, !dbg !4444
	%119 = load i32, i32*  %118, align 4, !tbaa !4184, !dbg !4444
	%120 = getelementptr i8, i8*  %116, i64 276, !dbg !4444
	%121 = bitcast i8*  %120 to i32*, !dbg !4444
	%122 = load i32, i32*  %121, align 4, !tbaa !4184, !dbg !4444
	%123 = mul i32  %119,  %122, !dbg !4444
	%124 = load i32, i32* %z.addr, align 4, !tbaa !4272, !dbg !4444
	%125 = add i32  %124, 2, !dbg !4444
	%126 = mul i32  %123,  %125, !dbg !4444
	%127 = sext i32  %126 to i64, !dbg !4444
	store i64  %127, i64* %..inline.addr.1, align 8, !tbaa !4270, !dbg !4444
	br label %L..inline.70807
L..inline.70807:
	%128 = load %struct._Z6FsGridISt5arrayIdLm3EELi2EE*, %struct._Z6FsGridISt5arrayIdLm3EELi2EE** %..inline.addr, align 8, !tbaa !4185, !dbg !4445
	%129 = bitcast %struct._Z6FsGridISt5arrayIdLm3EELi2EE*  %128 to i8*, !dbg !4445
	%130 = getelementptr i8, i8*  %129, i64 256, !dbg !4445
	%131 = bitcast i8*  %130 to i32*, !dbg !4445
	%132 = load i32, i32*  %131, align 4, !tbaa !4184, !dbg !4445
	%133 = icmp sle i32  %132, 1, !dbg !4445
	br i1  %133, label %L..inline.70857, label %L.B1373, !dbg !4445
L.B1373:
	%134 = load %struct._Z6FsGridISt5arrayIdLm3EELi2EE*, %struct._Z6FsGridISt5arrayIdLm3EELi2EE** %_T42936064_52234.addr, align 8, !tbaa !4185, !dbg !4446
	%135 = bitcast %struct._Z6FsGridISt5arrayIdLm3EELi2EE*  %134 to i8*, !dbg !4446
	%136 = getelementptr i8, i8*  %135, i64 276, !dbg !4446
	%137 = bitcast i8*  %136 to i32*, !dbg !4446
	%138 = load i32, i32*  %137, align 4, !tbaa !4184, !dbg !4446
	%139 = load i32, i32* %y.addr, align 4, !tbaa !4272, !dbg !4446
	%140 = add i32  %139, 2, !dbg !4446
	%141 = mul i32  %138,  %140, !dbg !4446
	%142 = sext i32  %141 to i64, !dbg !4446
	%143 = load i64, i64* %..inline.addr.1, align 8, !tbaa !4270, !dbg !4446
	%144 = add i64  %142,  %143, !dbg !4446
	store i64  %144, i64* %..inline.addr.1, align 8, !tbaa !4270, !dbg !4446
	br label %L..inline.70857
L..inline.70857:
	%145 = load %struct._Z6FsGridISt5arrayIdLm3EELi2EE*, %struct._Z6FsGridISt5arrayIdLm3EELi2EE** %..inline.addr, align 8, !tbaa !4185, !dbg !4447
	%146 = bitcast %struct._Z6FsGridISt5arrayIdLm3EELi2EE*  %145 to i8*, !dbg !4447
	%147 = getelementptr i8, i8*  %146, i64 252, !dbg !4447
	%148 = bitcast i8*  %147 to i32*, !dbg !4447
	%149 = load i32, i32*  %148, align 4, !tbaa !4184, !dbg !4447
	%150 = icmp sle i32  %149, 1, !dbg !4447
	%151 = zext i1  %150 to i32, !dbg !4447
	%152 = trunc i32  %151 to i1, !dbg !4447
	%153 = load i64, i64* %..inline.addr.1, align 8, !tbaa !4270, !dbg !4447
	%154 = load i32, i32* %x.addr, align 4, !tbaa !4272, !dbg !4447
	%155 = sext i32  %154 to i64, !dbg !4447
	%156 = add i64  %155, 2, !dbg !4447
	%157 = add i64  %153,  %156, !dbg !4447
	%158 = select i1  %152, i64  %153, i64  %157, !dbg !4447
	%159 = load %struct._Z6FsGridISt5arrayIdLm3EELi2EE*, %struct._Z6FsGridISt5arrayIdLm3EELi2EE** %_T42936064_52234.addr, align 8, !tbaa !4185, !dbg !4448
	%160 = bitcast %struct._Z6FsGridISt5arrayIdLm3EELi2EE*  %159 to i8*, !dbg !4448
	%161 = getelementptr i8, i8*  %160, i64 744, !dbg !4448
	%162 = bitcast i8*  %161 to i8**, !dbg !4448
	%163 = load i8*, i8**  %162, align 8, !tbaa !4185, !dbg !4448
	%164 = mul i64  %158, 24, !dbg !4448
	%165 = getelementptr i8, i8*  %163, i64  %164, !dbg !4448
	%166 = bitcast i8*  %165 to %struct._ZSt5arrayIdLm3EE*, !dbg !4448
	ret %struct._ZSt5arrayIdLm3EE*  %166, !dbg !4448
L.R0004:
	ret %struct._ZSt5arrayIdLm3EE* null
}
define linkonce_odr void @_ZN6FsGridISt5arrayIdLm3EELi2EE17getPhysicalCoordsEiii(%struct._ZSt5arrayIdLm3EE* sret %sretaddr, %struct._Z6FsGridISt5arrayIdLm3EELi2EE* %_T42931096_52235.arg, i32 signext %x.arg, i32 signext %y.arg, i32 signext %z.arg) #0 inlinehint !dbg !4453 {
L.entry:
	%_T42931096_52235.addr = alloca %struct._Z6FsGridISt5arrayIdLm3EELi2EE*, align 8
	%x.addr = alloca i32, align 4
	%y.addr = alloca i32, align 4
	%z.addr = alloca i32, align 4
	%coords.addr = alloca %struct._ZSt5arrayIdLm3EE, align 8
	%_T42932872_52235.addr = alloca %struct._ZSt5arrayIdLm3EE, align 8

	call void @llvm.dbg.declare (metadata %struct._Z6FsGridISt5arrayIdLm3EELi2EE** %_T42931096_52235.addr, metadata !4529, metadata !4177), !dbg !4454
	store %struct._Z6FsGridISt5arrayIdLm3EELi2EE* %_T42931096_52235.arg, %struct._Z6FsGridISt5arrayIdLm3EELi2EE** %_T42931096_52235.addr, align 8, !tbaa !4185
	call void @llvm.dbg.declare (metadata %struct._Z6FsGridISt5arrayIdLm3EELi2EE** %_T42931096_52235.addr, metadata !4530, metadata !4177), !dbg !4454
	call void @llvm.dbg.declare (metadata i32* %x.addr, metadata !4531, metadata !4177), !dbg !4454
	store i32 %x.arg, i32* %x.addr, align 4, !tbaa !4184
	call void @llvm.dbg.declare (metadata i32* %x.addr, metadata !4532, metadata !4177), !dbg !4454
	call void @llvm.dbg.declare (metadata i32* %y.addr, metadata !4533, metadata !4177), !dbg !4454
	store i32 %y.arg, i32* %y.addr, align 4, !tbaa !4184
	call void @llvm.dbg.declare (metadata i32* %y.addr, metadata !4534, metadata !4177), !dbg !4454
	call void @llvm.dbg.declare (metadata i32* %z.addr, metadata !4535, metadata !4177), !dbg !4454
	store i32 %z.arg, i32* %z.addr, align 4, !tbaa !4184
	call void @llvm.dbg.declare (metadata i32* %z.addr, metadata !4536, metadata !4177), !dbg !4454
	%0 = load %struct._Z6FsGridISt5arrayIdLm3EELi2EE*, %struct._Z6FsGridISt5arrayIdLm3EELi2EE** %_T42931096_52235.addr, align 8, !tbaa !4185, !dbg !4537
	%1 = bitcast %struct._Z6FsGridISt5arrayIdLm3EELi2EE*  %0 to double*, !dbg !4537
	%2 = load double, double*  %1, align 8, !tbaa !4184, !dbg !4537
	%3 = load i32, i32* %x.addr, align 4, !tbaa !4272, !dbg !4537
	%4 = bitcast %struct._Z6FsGridISt5arrayIdLm3EELi2EE*  %0 to i8*, !dbg !4537
	%5 = getelementptr i8, i8*  %4, i64 288, !dbg !4537
	%6 = bitcast i8*  %5 to i32*, !dbg !4537
	%7 = load i32, i32*  %6, align 4, !tbaa !4184, !dbg !4537
	%8 = add i32  %3,  %7, !dbg !4537
	%9 = sitofp i32  %8 to double, !dbg !4537
	%10 = getelementptr i8, i8*  %4, i64 24, !dbg !4537
	%11 = bitcast i8*  %10 to double*, !dbg !4537
	%12 = load double, double*  %11, align 8, !tbaa !4184, !dbg !4537
	%13 = call double @llvm.fma.f64 (double  %2, double  %9, double  %12), !dbg !4537
	call void @llvm.dbg.declare (metadata %struct._ZSt5arrayIdLm3EE* %coords.addr, metadata !4538, metadata !4177), !dbg !4454
	%14 = bitcast %struct._ZSt5arrayIdLm3EE* %coords.addr to double*, !dbg !4537
	store double  %13, double*  %14, align 8, !tbaa !4184, !dbg !4537
	%15 = load %struct._Z6FsGridISt5arrayIdLm3EELi2EE*, %struct._Z6FsGridISt5arrayIdLm3EELi2EE** %_T42931096_52235.addr, align 8, !tbaa !4185, !dbg !4537
	%16 = bitcast %struct._Z6FsGridISt5arrayIdLm3EELi2EE*  %15 to i8*, !dbg !4537
	%17 = getelementptr i8, i8*  %16, i64 8, !dbg !4537
	%18 = bitcast i8*  %17 to double*, !dbg !4537
	%19 = load double, double*  %18, align 8, !tbaa !4184, !dbg !4537
	%20 = load i32, i32* %y.addr, align 4, !tbaa !4272, !dbg !4537
	%21 = getelementptr i8, i8*  %16, i64 292, !dbg !4537
	%22 = bitcast i8*  %21 to i32*, !dbg !4537
	%23 = load i32, i32*  %22, align 4, !tbaa !4184, !dbg !4537
	%24 = add i32  %20,  %23, !dbg !4537
	%25 = sitofp i32  %24 to double, !dbg !4537
	%26 = getelementptr i8, i8*  %16, i64 32, !dbg !4537
	%27 = bitcast i8*  %26 to double*, !dbg !4537
	%28 = load double, double*  %27, align 8, !tbaa !4184, !dbg !4537
	%29 = call double @llvm.fma.f64 (double  %19, double  %25, double  %28), !dbg !4537
	%30 = bitcast %struct._ZSt5arrayIdLm3EE* %coords.addr to i8*, !dbg !4537
	%31 = getelementptr i8, i8*  %30, i64 8, !dbg !4537
	%32 = bitcast i8*  %31 to double*, !dbg !4537
	store double  %29, double*  %32, align 8, !tbaa !4184, !dbg !4537
	%33 = getelementptr i8, i8*  %16, i64 16, !dbg !4537
	%34 = bitcast i8*  %33 to double*, !dbg !4537
	%35 = load double, double*  %34, align 8, !tbaa !4184, !dbg !4537
	%36 = load i32, i32* %z.addr, align 4, !tbaa !4272, !dbg !4537
	%37 = getelementptr i8, i8*  %16, i64 296, !dbg !4537
	%38 = bitcast i8*  %37 to i32*, !dbg !4537
	%39 = load i32, i32*  %38, align 4, !tbaa !4184, !dbg !4537
	%40 = add i32  %36,  %39, !dbg !4537
	%41 = sitofp i32  %40 to double, !dbg !4537
	%42 = getelementptr i8, i8*  %16, i64 40, !dbg !4537
	%43 = bitcast i8*  %42 to double*, !dbg !4537
	%44 = load double, double*  %43, align 8, !tbaa !4184, !dbg !4537
	%45 = call double @llvm.fma.f64 (double  %35, double  %41, double  %44), !dbg !4537
	%46 = getelementptr i8, i8*  %30, i64 16, !dbg !4537
	%47 = bitcast i8*  %46 to double*, !dbg !4537
	store double  %45, double*  %47, align 8, !tbaa !4184, !dbg !4537
	%48 = bitcast %struct._ZSt5arrayIdLm3EE* %coords.addr to i64*, !dbg !4539
	%49 = load i64, i64*  %48, align 8, !tbaa !4184, !dbg !4539
	%50 = bitcast %struct._ZSt5arrayIdLm3EE* %_T42932872_52235.addr to i64*, !dbg !4539
	store i64  %49, i64*  %50, align 8, !tbaa !4184, !dbg !4539
	%51 = bitcast i8*  %31 to i64*, !dbg !4539
	%52 = load i64, i64*  %51, align 8, !tbaa !4184, !dbg !4539
	%53 = bitcast %struct._ZSt5arrayIdLm3EE* %_T42932872_52235.addr to i8*, !dbg !4539
	%54 = getelementptr i8, i8*  %53, i64 8, !dbg !4539
	%55 = bitcast i8*  %54 to i64*, !dbg !4539
	store i64  %52, i64*  %55, align 8, !tbaa !4184, !dbg !4539
	%56 = bitcast i8*  %46 to i64*, !dbg !4539
	%57 = load i64, i64*  %56, align 8, !tbaa !4184, !dbg !4539
	%58 = getelementptr i8, i8*  %53, i64 16, !dbg !4539
	%59 = bitcast i8*  %58 to i64*, !dbg !4539
	store i64  %57, i64*  %59, align 8, !tbaa !4184, !dbg !4539
	%60 = load i64, i64*  %50, align 8, !tbaa !4184, !dbg !4539
	%61 = bitcast %struct._ZSt5arrayIdLm3EE* %sretaddr to i64*, !dbg !4539
	store i64  %60, i64*  %61, align 8, !tbaa !4184, !dbg !4539
	%62 = load i64, i64*  %55, align 8, !tbaa !4184, !dbg !4539
	%63 = bitcast %struct._ZSt5arrayIdLm3EE* %sretaddr to i8*, !dbg !4539
	%64 = getelementptr i8, i8*  %63, i64 8, !dbg !4539
	%65 = bitcast i8*  %64 to i64*, !dbg !4539
	store i64  %62, i64*  %65, align 8, !tbaa !4184, !dbg !4539
	%66 = getelementptr i8, i8*  %63, i64 16, !dbg !4539
	%67 = bitcast i8*  %66 to i64*, !dbg !4539
	store i64  %57, i64*  %67, align 8, !tbaa !4184, !dbg !4539
	ret void, !dbg !4539
}
define linkonce_odr void @_ZNSt11char_traitsIcE6assignERcRKc(i8* %__c1.arg, i8* %__c2.arg) #0 inlinehint !dbg !4547 {
L.entry:
	%__c1.addr = alloca i8*, align 8
	%__c2.addr = alloca i8*, align 8

	call void @llvm.dbg.declare (metadata i8** %__c1.addr, metadata !4551, metadata !4177), !dbg !4548
	store i8* %__c1.arg, i8** %__c1.addr, align 8, !tbaa !4185
	call void @llvm.dbg.declare (metadata i8** %__c1.addr, metadata !4552, metadata !4177), !dbg !4548
	call void @llvm.dbg.declare (metadata i8** %__c2.addr, metadata !4553, metadata !4177), !dbg !4548
	store i8* %__c2.arg, i8** %__c2.addr, align 8, !tbaa !4185
	call void @llvm.dbg.declare (metadata i8** %__c2.addr, metadata !4554, metadata !4177), !dbg !4548
	%0 = load i8*, i8** %__c2.addr, align 8, !tbaa !4185, !dbg !4555
	%1 = load i8, i8*  %0, align 1, !tbaa !4184, !dbg !4555
	%2 = load i8*, i8** %__c1.addr, align 8, !tbaa !4185, !dbg !4555
	store i8  %1, i8*  %2, align 1, !tbaa !4184, !dbg !4555
	ret void, !dbg !4555
}
define linkonce_odr i64 @_ZNSt11char_traitsIcE6lengthEPKc(i8* %__s.arg) #0 inlinehint !dbg !4559 {
L.entry:
	%__s.addr = alloca i8*, align 8

	call void @llvm.dbg.declare (metadata i8** %__s.addr, metadata !4563, metadata !4177), !dbg !4560
	store i8* %__s.arg, i8** %__s.addr, align 8, !tbaa !4185
	call void @llvm.dbg.declare (metadata i8** %__s.addr, metadata !4564, metadata !4177), !dbg !4560
	%0 = load i8*, i8** %__s.addr, align 8, !tbaa !4185, !dbg !4565
	%1 = call i64  @strlen (i8*  %0) nounwind, !dbg !4565
	ret i64  %1, !dbg !4565
}
define linkonce_odr i8* @_ZNSt11char_traitsIcE4copyEPcPKcm(i8* %__s1.arg, i8* %__s2.arg, i64 %__n.arg) #0 inlinehint !dbg !4570 {
L.entry:
	%__s1.addr = alloca i8*, align 8
	%__s2.addr = alloca i8*, align 8
	%__n.addr = alloca i64, align 8

	call void @llvm.dbg.declare (metadata i8** %__s1.addr, metadata !4574, metadata !4177), !dbg !4571
	store i8* %__s1.arg, i8** %__s1.addr, align 8, !tbaa !4185
	call void @llvm.dbg.declare (metadata i8** %__s1.addr, metadata !4575, metadata !4177), !dbg !4571
	call void @llvm.dbg.declare (metadata i8** %__s2.addr, metadata !4576, metadata !4177), !dbg !4571
	store i8* %__s2.arg, i8** %__s2.addr, align 8, !tbaa !4185
	call void @llvm.dbg.declare (metadata i8** %__s2.addr, metadata !4577, metadata !4177), !dbg !4571
	call void @llvm.dbg.declare (metadata i64* %__n.addr, metadata !4578, metadata !4177), !dbg !4571
	store i64 %__n.arg, i64* %__n.addr, align 8, !tbaa !4184
	call void @llvm.dbg.declare (metadata i64* %__n.addr, metadata !4579, metadata !4177), !dbg !4571
	%0 = load i64, i64* %__n.addr, align 8, !tbaa !4270, !dbg !4580
	%1 = icmp ne i64  %0, 0, !dbg !4580
	br i1  %1, label %L.B0013, label %L.B1392, !dbg !4580
L.B1392:
	%2 = load i8*, i8** %__s1.addr, align 8, !tbaa !4185, !dbg !4581
	ret i8*  %2, !dbg !4581
L.B1393:
	br label %L.R0008, !dbg !4581
L.B0013:
	%3 = load i8*, i8** %__s1.addr, align 8, !tbaa !4185, !dbg !4582
	%4 = load i8*, i8** %__s2.addr, align 8, !tbaa !4185, !dbg !4582
	%5 = load i64, i64* %__n.addr, align 8, !tbaa !4270, !dbg !4582
	%6 = call i8*  @memcpy (i8*  %3, i8*  %4, i64  %5) nounwind, !dbg !4582
	ret i8*  %6, !dbg !4582
L.R0008:
	ret i8* null
}

%struct._ZSaIcE = type <{ [1 x i8]}> 

define linkonce_odr void @_ZNSaIcEC1Ev(%struct._ZSaIcE* %_T42931096_52243.arg) #0 inlinehint !dbg !4590 {
L.entry:
	%_T42931096_52243.addr = alloca %struct._ZSaIcE*, align 8

	call void @llvm.dbg.declare (metadata %struct._ZSaIcE** %_T42931096_52243.addr, metadata !4594, metadata !4177), !dbg !4591
	store %struct._ZSaIcE* %_T42931096_52243.arg, %struct._ZSaIcE** %_T42931096_52243.addr, align 8, !tbaa !4185
	call void @llvm.dbg.declare (metadata %struct._ZSaIcE** %_T42931096_52243.addr, metadata !4595, metadata !4177), !dbg !4591
	ret void, !dbg !4596
}
define linkonce_odr void @_ZNSaIcEC2Ev(%struct._ZSaIcE* %_T42931096_52244.arg) #0 inlinehint !dbg !4598 {
L.entry:
	%_T42931096_52244.addr = alloca %struct._ZSaIcE*, align 8

	store %struct._ZSaIcE* %_T42931096_52244.arg, %struct._ZSaIcE** %_T42931096_52244.addr, align 8, !tbaa !4185
	ret void, !dbg !4606
}
define linkonce_odr void @_ZNSaIcEC1ERKS_(%struct._ZSaIcE* %_T42931096_52245.arg, %struct._ZSaIcE* %__a.arg) #0 inlinehint !dbg !4614 {
L.entry:
	%_T42931096_52245.addr = alloca %struct._ZSaIcE*, align 8
	%__a.addr = alloca %struct._ZSaIcE*, align 8

	call void @llvm.dbg.declare (metadata %struct._ZSaIcE** %_T42931096_52245.addr, metadata !4618, metadata !4177), !dbg !4615
	store %struct._ZSaIcE* %_T42931096_52245.arg, %struct._ZSaIcE** %_T42931096_52245.addr, align 8, !tbaa !4185
	call void @llvm.dbg.declare (metadata %struct._ZSaIcE** %_T42931096_52245.addr, metadata !4619, metadata !4177), !dbg !4615
	call void @llvm.dbg.declare (metadata %struct._ZSaIcE** %__a.addr, metadata !4620, metadata !4177), !dbg !4615
	store %struct._ZSaIcE* %__a.arg, %struct._ZSaIcE** %__a.addr, align 8, !tbaa !4185
	call void @llvm.dbg.declare (metadata %struct._ZSaIcE** %__a.addr, metadata !4621, metadata !4177), !dbg !4615
	ret void, !dbg !4622
}
define linkonce_odr void @_ZNSaIcEC2ERKS_(%struct._ZSaIcE* %_T42931096_52246.arg, %struct._ZSaIcE* %_T42931392_52246.arg) #0 inlinehint !dbg !4624 {
L.entry:
	%_T42931096_52246.addr = alloca %struct._ZSaIcE*, align 8
	%_T42931392_52246.addr = alloca %struct._ZSaIcE*, align 8

	store %struct._ZSaIcE* %_T42931096_52246.arg, %struct._ZSaIcE** %_T42931096_52246.addr, align 8, !tbaa !4185
	store %struct._ZSaIcE* %_T42931392_52246.arg, %struct._ZSaIcE** %_T42931392_52246.addr, align 8, !tbaa !4185
	ret void, !dbg !4632
}
define linkonce_odr void @_ZNSaIcED1Ev(%struct._ZSaIcE* %_T42931096_52247.arg) #0 inlinehint !dbg !4634 {
L.entry:
	%_T42931096_52247.addr = alloca %struct._ZSaIcE*, align 8

	call void @llvm.dbg.declare (metadata %struct._ZSaIcE** %_T42931096_52247.addr, metadata !4638, metadata !4177), !dbg !4635
	store %struct._ZSaIcE* %_T42931096_52247.arg, %struct._ZSaIcE** %_T42931096_52247.addr, align 8, !tbaa !4185
	call void @llvm.dbg.declare (metadata %struct._ZSaIcE** %_T42931096_52247.addr, metadata !4639, metadata !4177), !dbg !4635
	ret void, !dbg !4640
}
define linkonce_odr void @_ZNSaIcED2Ev(%struct._ZSaIcE* %_T42931096_52248.arg) #0 inlinehint !dbg !4642 {
L.entry:
	%_T42931096_52248.addr = alloca %struct._ZSaIcE*, align 8

	store %struct._ZSaIcE* %_T42931096_52248.arg, %struct._ZSaIcE** %_T42931096_52248.addr, align 8, !tbaa !4185
	ret void, !dbg !4650
}
define linkonce_odr void @_ZNSt16allocator_traitsISaIcEE10deallocateERS0_Pcm(%struct._ZSaIcE* %__a.arg, i8* %__p.arg, i64 %__n.arg) #0 inlinehint !dbg !4660 {
L.entry:
	%__a.addr = alloca %struct._ZSaIcE*, align 8
	%__p.addr = alloca i8*, align 8
	%__n.addr = alloca i64, align 8
	%..inline.addr = alloca i8*, align 8

	call void @llvm.dbg.declare (metadata %struct._ZSaIcE** %__a.addr, metadata !4668, metadata !4177), !dbg !4661
	store %struct._ZSaIcE* %__a.arg, %struct._ZSaIcE** %__a.addr, align 8, !tbaa !4185
	call void @llvm.dbg.declare (metadata %struct._ZSaIcE** %__a.addr, metadata !4669, metadata !4177), !dbg !4661
	call void @llvm.dbg.declare (metadata i8** %__p.addr, metadata !4670, metadata !4177), !dbg !4661
	store i8* %__p.arg, i8** %__p.addr, align 8, !tbaa !4185
	call void @llvm.dbg.declare (metadata i8** %__p.addr, metadata !4671, metadata !4177), !dbg !4661
	call void @llvm.dbg.declare (metadata i64* %__n.addr, metadata !4672, metadata !4177), !dbg !4661
	store i64 %__n.arg, i64* %__n.addr, align 8, !tbaa !4184
	call void @llvm.dbg.declare (metadata i64* %__n.addr, metadata !4673, metadata !4177), !dbg !4661
	%0 = load i8*, i8** %__p.addr, align 8, !tbaa !4185, !dbg !4674
	call void  @_ZdlPv (i8*  %0) nounwind, !dbg !4675
	ret void, !dbg !4674
}
define linkonce_odr i64 @_ZNSt16allocator_traitsISaIcEE8max_sizeERKS0_(%struct._ZSaIcE* %__a.arg) #0 inlinehint !dbg !4683 {
L.entry:
	%__a.addr = alloca %struct._ZSaIcE*, align 8

	call void @llvm.dbg.declare (metadata %struct._ZSaIcE** %__a.addr, metadata !4691, metadata !4177), !dbg !4684
	store %struct._ZSaIcE* %__a.arg, %struct._ZSaIcE** %__a.addr, align 8, !tbaa !4185
	call void @llvm.dbg.declare (metadata %struct._ZSaIcE** %__a.addr, metadata !4692, metadata !4177), !dbg !4684
	ret i64 -1, !dbg !4693
}
define linkonce_odr void @_ZNSt16allocator_traitsISaIcEE37select_on_container_copy_constructionERKS0_(%struct._ZSaIcE* sret %_T42931096_52256.arg, %struct._ZSaIcE* %__rhs.arg) #0 inlinehint !dbg !4698 {
L.entry:
	%_T42931096_52256.addr = alloca %struct._ZSaIcE*, align 8
	%__rhs.addr = alloca %struct._ZSaIcE*, align 8

	store %struct._ZSaIcE* %_T42931096_52256.arg, %struct._ZSaIcE** %_T42931096_52256.addr, align 8, !tbaa !4185
	call void @llvm.dbg.declare (metadata %struct._ZSaIcE** %__rhs.addr, metadata !4702, metadata !4177), !dbg !4699
	store %struct._ZSaIcE* %__rhs.arg, %struct._ZSaIcE** %__rhs.addr, align 8, !tbaa !4185
	call void @llvm.dbg.declare (metadata %struct._ZSaIcE** %__rhs.addr, metadata !4703, metadata !4177), !dbg !4699
	ret void, !dbg !4704
}
define linkonce_odr void @_ZNSt12_Destroy_auxILb1EE9__destroyIPjEEvT_S3_(i32* %_T42931096_52261.arg, i32* %_T42931392_52261.arg) #0 inlinehint !dbg !4710 {
L.entry:
	%_T42931096_52261.addr = alloca i32*, align 8
	%_T42931392_52261.addr = alloca i32*, align 8

	call void @llvm.dbg.declare (metadata i32** %_T42931096_52261.addr, metadata !4714, metadata !4177), !dbg !4711
	store i32* %_T42931096_52261.arg, i32** %_T42931096_52261.addr, align 8, !tbaa !4185
	call void @llvm.dbg.declare (metadata i32** %_T42931096_52261.addr, metadata !4715, metadata !4177), !dbg !4711
	call void @llvm.dbg.declare (metadata i32** %_T42931392_52261.addr, metadata !4716, metadata !4177), !dbg !4711
	store i32* %_T42931392_52261.arg, i32** %_T42931392_52261.addr, align 8, !tbaa !4185
	call void @llvm.dbg.declare (metadata i32** %_T42931392_52261.addr, metadata !4717, metadata !4177), !dbg !4711
	ret void, !dbg !4718
}
define linkonce_odr void @_ZNSt12_Destroy_auxILb1EE9__destroyIPdEEvT_S3_(double* %_T42931096_52264.arg, double* %_T42931392_52264.arg) #0 inlinehint !dbg !4722 {
L.entry:
	%_T42931096_52264.addr = alloca double*, align 8
	%_T42931392_52264.addr = alloca double*, align 8

	call void @llvm.dbg.declare (metadata double** %_T42931096_52264.addr, metadata !4726, metadata !4177), !dbg !4723
	store double* %_T42931096_52264.arg, double** %_T42931096_52264.addr, align 8, !tbaa !4185
	call void @llvm.dbg.declare (metadata double** %_T42931096_52264.addr, metadata !4727, metadata !4177), !dbg !4723
	call void @llvm.dbg.declare (metadata double** %_T42931392_52264.addr, metadata !4728, metadata !4177), !dbg !4723
	store double* %_T42931392_52264.arg, double** %_T42931392_52264.addr, align 8, !tbaa !4185
	call void @llvm.dbg.declare (metadata double** %_T42931392_52264.addr, metadata !4729, metadata !4177), !dbg !4723
	ret void, !dbg !4730
}

%struct._ZN8projects23AlfvenSpeciesParametersE = type <{ double, double, double, i32, [4 x i8]}> 

define linkonce_odr void @_ZNSt12_Destroy_auxILb1EE9__destroyIPN8projects23AlfvenSpeciesParametersEEEvT_S5_(%struct._ZN8projects23AlfvenSpeciesParametersE* %_T42931096_52267.arg, %struct._ZN8projects23AlfvenSpeciesParametersE* %_T42931392_52267.arg) #0 inlinehint !dbg !4734 {
L.entry:
	%_T42931096_52267.addr = alloca %struct._ZN8projects23AlfvenSpeciesParametersE*, align 8
	%_T42931392_52267.addr = alloca %struct._ZN8projects23AlfvenSpeciesParametersE*, align 8

	call void @llvm.dbg.declare (metadata %struct._ZN8projects23AlfvenSpeciesParametersE** %_T42931096_52267.addr, metadata !4738, metadata !4177), !dbg !4735
	store %struct._ZN8projects23AlfvenSpeciesParametersE* %_T42931096_52267.arg, %struct._ZN8projects23AlfvenSpeciesParametersE** %_T42931096_52267.addr, align 8, !tbaa !4185
	call void @llvm.dbg.declare (metadata %struct._ZN8projects23AlfvenSpeciesParametersE** %_T42931096_52267.addr, metadata !4739, metadata !4177), !dbg !4735
	call void @llvm.dbg.declare (metadata %struct._ZN8projects23AlfvenSpeciesParametersE** %_T42931392_52267.addr, metadata !4740, metadata !4177), !dbg !4735
	store %struct._ZN8projects23AlfvenSpeciesParametersE* %_T42931392_52267.arg, %struct._ZN8projects23AlfvenSpeciesParametersE** %_T42931392_52267.addr, align 8, !tbaa !4185
	call void @llvm.dbg.declare (metadata %struct._ZN8projects23AlfvenSpeciesParametersE** %_T42931392_52267.addr, metadata !4741, metadata !4177), !dbg !4735
	ret void, !dbg !4742
}

%struct._ZSt13move_iteratorIPN8projects23AlfvenSpeciesParametersEE = type <{ %struct._ZN8projects23AlfvenSpeciesParametersE*}> 

define linkonce_odr %struct._ZN8projects23AlfvenSpeciesParametersE* @_ZNSt20__uninitialized_copyILb1EE13__uninit_copyISt13move_iteratorIPN8projects23AlfvenSpeciesParametersEES5_EET0_T_S8_S7_(i64 %__first.coerce, i64 %__last.coerce, %struct._ZN8projects23AlfvenSpeciesParametersE* %__result.arg) #0 inlinehint !dbg !4748 {
L.entry:
	%__first.addr = alloca %struct._ZSt13move_iteratorIPN8projects23AlfvenSpeciesParametersEE, align 8
	%__last.addr = alloca %struct._ZSt13move_iteratorIPN8projects23AlfvenSpeciesParametersEE, align 8
	%__result.addr = alloca %struct._ZN8projects23AlfvenSpeciesParametersE*, align 8
	%..inline.addr = alloca %struct._ZN8projects23AlfvenSpeciesParametersE*, align 8
	%..inline.addr.1 = alloca %struct._ZN8projects23AlfvenSpeciesParametersE*, align 8
	%..inline.addr.2 = alloca i64, align 8

	call void @llvm.dbg.declare (metadata %struct._ZSt13move_iteratorIPN8projects23AlfvenSpeciesParametersEE* %__first.addr, metadata !4808, metadata !4177), !dbg !4749
	%0 = bitcast %struct._ZSt13move_iteratorIPN8projects23AlfvenSpeciesParametersEE* %__first.addr to i64*
	store i64 %__first.coerce, i64*  %0, align 8, !tbaa !4184
	call void @llvm.dbg.declare (metadata %struct._ZSt13move_iteratorIPN8projects23AlfvenSpeciesParametersEE* %__first.addr, metadata !4809, metadata !4177), !dbg !4749
	call void @llvm.dbg.declare (metadata %struct._ZSt13move_iteratorIPN8projects23AlfvenSpeciesParametersEE* %__last.addr, metadata !4810, metadata !4177), !dbg !4749
	%1 = bitcast %struct._ZSt13move_iteratorIPN8projects23AlfvenSpeciesParametersEE* %__last.addr to i64*
	store i64 %__last.coerce, i64*  %1, align 8, !tbaa !4184
	call void @llvm.dbg.declare (metadata %struct._ZSt13move_iteratorIPN8projects23AlfvenSpeciesParametersEE* %__last.addr, metadata !4811, metadata !4177), !dbg !4749
	call void @llvm.dbg.declare (metadata %struct._ZN8projects23AlfvenSpeciesParametersE** %__result.addr, metadata !4812, metadata !4177), !dbg !4749
	store %struct._ZN8projects23AlfvenSpeciesParametersE* %__result.arg, %struct._ZN8projects23AlfvenSpeciesParametersE** %__result.addr, align 8, !tbaa !4185
	call void @llvm.dbg.declare (metadata %struct._ZN8projects23AlfvenSpeciesParametersE** %__result.addr, metadata !4813, metadata !4177), !dbg !4749
	%2 = bitcast %struct._ZSt13move_iteratorIPN8projects23AlfvenSpeciesParametersEE* %__first.addr to i8**, !dbg !4814
	%3 = load i8*, i8**  %2, align 8, !tbaa !4185, !dbg !4814
	%4 = bitcast %struct._ZN8projects23AlfvenSpeciesParametersE** %..inline.addr to i8**, !dbg !4814
	store i8*  %3, i8**  %4, align 8, !tbaa !4185, !dbg !4814
	%5 = load %struct._ZN8projects23AlfvenSpeciesParametersE*, %struct._ZN8projects23AlfvenSpeciesParametersE** %__result.addr, align 8, !tbaa !4185, !dbg !4814
	%6 = bitcast %struct._ZN8projects23AlfvenSpeciesParametersE*  %5 to i8*, !dbg !4814
	%7 = bitcast %struct._ZN8projects23AlfvenSpeciesParametersE** %..inline.addr.1 to i8**, !dbg !4814
	store i8*  %6, i8**  %7, align 8, !tbaa !4185, !dbg !4814
	%8 = bitcast %struct._ZSt13move_iteratorIPN8projects23AlfvenSpeciesParametersEE* %__last.addr to i8**, !dbg !4814
	%9 = load i8*, i8**  %8, align 8, !tbaa !4185, !dbg !4814
	%10 = ptrtoint i8*  %3 to i64, !dbg !4814
	%11 = sub i64 0,  %10, !dbg !4814
	%12 = getelementptr i8, i8*  %9, i64  %11, !dbg !4814
	%13 = ptrtoint i8*  %12 to i64, !dbg !4814
	%14 = sext i32 5 to i64, !dbg !4814
	%15 = ashr i64  %13,  %14, !dbg !4814
	store i64  %15, i64* %..inline.addr.2, align 8, !tbaa !4270, !dbg !4814
	%16 = icmp eq i64  %15, 0, !dbg !4814
	br i1  %16, label %L..inline.71416, label %L.B1406, !dbg !4814
L.B1406:
	%17 = load %struct._ZN8projects23AlfvenSpeciesParametersE*, %struct._ZN8projects23AlfvenSpeciesParametersE** %..inline.addr.1, align 8, !tbaa !4185, !dbg !4814
	%18 = bitcast %struct._ZN8projects23AlfvenSpeciesParametersE*  %17 to i8*, !dbg !4814
	%19 = load %struct._ZN8projects23AlfvenSpeciesParametersE*, %struct._ZN8projects23AlfvenSpeciesParametersE** %..inline.addr, align 8, !tbaa !4185, !dbg !4814
	%20 = bitcast %struct._ZN8projects23AlfvenSpeciesParametersE*  %19 to i8*, !dbg !4814
	%21 = mul i64  %15, 32, !dbg !4814
	%22 = call i8*  @memmove (i8*  %18, i8*  %20, i64  %21) nounwind, !dbg !4814
	br label %L..inline.71416
L..inline.71416:
	%23 = load %struct._ZN8projects23AlfvenSpeciesParametersE*, %struct._ZN8projects23AlfvenSpeciesParametersE** %..inline.addr.1, align 8, !tbaa !4185, !dbg !4815
	%24 = bitcast %struct._ZN8projects23AlfvenSpeciesParametersE*  %23 to i8*, !dbg !4815
	%25 = load i64, i64* %..inline.addr.2, align 8, !tbaa !4270, !dbg !4815
	%26 = mul i64  %25, 32, !dbg !4815
	%27 = getelementptr i8, i8*  %24, i64  %26, !dbg !4815
	%28 = bitcast i8*  %27 to %struct._ZN8projects23AlfvenSpeciesParametersE*, !dbg !4815
	ret %struct._ZN8projects23AlfvenSpeciesParametersE*  %28, !dbg !4815
}
define linkonce_odr double* @_ZNSt14__array_traitsIdLm3EE6_S_refERA3_Kdm([3 x double]* %__t.arg, i64 %__n.arg) #0 inlinehint !dbg !4823 {
L.entry:
	%__t.addr = alloca [3 x double]*, align 8
	%__n.addr = alloca i64, align 8

	call void @llvm.dbg.declare (metadata [3 x double]** %__t.addr, metadata !4827, metadata !4177), !dbg !4824
	store [3 x double]* %__t.arg, [3 x double]** %__t.addr, align 8, !tbaa !4185
	call void @llvm.dbg.declare (metadata [3 x double]** %__t.addr, metadata !4828, metadata !4177), !dbg !4824
	call void @llvm.dbg.declare (metadata i64* %__n.addr, metadata !4829, metadata !4177), !dbg !4824
	store i64 %__n.arg, i64* %__n.addr, align 8, !tbaa !4184
	call void @llvm.dbg.declare (metadata i64* %__n.addr, metadata !4830, metadata !4177), !dbg !4824
	%0 = load [3 x double]*, [3 x double]** %__t.addr, align 8, !tbaa !4185, !dbg !4831
	%1 = bitcast [3 x double]*  %0 to i8*, !dbg !4831
	%2 = load i64, i64* %__n.addr, align 8, !tbaa !4270, !dbg !4831
	%3 = mul i64  %2, 8, !dbg !4831
	%4 = getelementptr i8, i8*  %1, i64  %3, !dbg !4831
	%5 = bitcast i8*  %4 to double*, !dbg !4831
	ret double*  %5, !dbg !4831
}
define linkonce_odr double* @_ZNSt5arrayIdLm3EEixEm(%struct._ZSt5arrayIdLm3EE* %_T42931096_52275.arg, i64 %__n.arg) #0 inlinehint !dbg !4835 {
L.entry:
	%_T42931096_52275.addr = alloca %struct._ZSt5arrayIdLm3EE*, align 8
	%__n.addr = alloca i64, align 8

	call void @llvm.dbg.declare (metadata %struct._ZSt5arrayIdLm3EE** %_T42931096_52275.addr, metadata !4843, metadata !4177), !dbg !4836
	store %struct._ZSt5arrayIdLm3EE* %_T42931096_52275.arg, %struct._ZSt5arrayIdLm3EE** %_T42931096_52275.addr, align 8, !tbaa !4185
	call void @llvm.dbg.declare (metadata %struct._ZSt5arrayIdLm3EE** %_T42931096_52275.addr, metadata !4844, metadata !4177), !dbg !4836
	call void @llvm.dbg.declare (metadata i64* %__n.addr, metadata !4845, metadata !4177), !dbg !4836
	store i64 %__n.arg, i64* %__n.addr, align 8, !tbaa !4184
	call void @llvm.dbg.declare (metadata i64* %__n.addr, metadata !4846, metadata !4177), !dbg !4836
	%0 = load %struct._ZSt5arrayIdLm3EE*, %struct._ZSt5arrayIdLm3EE** %_T42931096_52275.addr, align 8, !tbaa !4185, !dbg !4847
	%1 = bitcast %struct._ZSt5arrayIdLm3EE*  %0 to i8*, !dbg !4847
	%2 = load i64, i64* %__n.addr, align 8, !tbaa !4270, !dbg !4847
	%3 = mul i64  %2, 8, !dbg !4847
	%4 = getelementptr i8, i8*  %1, i64  %3, !dbg !4847
	%5 = bitcast i8*  %4 to double*, !dbg !4847
	ret double*  %5, !dbg !4847
}
define linkonce_odr double* @_ZNKSt5arrayIdLm3EEixEm(%struct._ZSt5arrayIdLm3EE* %_T42931096_52278.arg, i64 %__n.arg) #0 inlinehint !dbg !4849 {
L.entry:
	%_T42931096_52278.addr = alloca %struct._ZSt5arrayIdLm3EE*, align 8
	%__n.addr = alloca i64, align 8

	call void @llvm.dbg.declare (metadata %struct._ZSt5arrayIdLm3EE** %_T42931096_52278.addr, metadata !4857, metadata !4177), !dbg !4850
	store %struct._ZSt5arrayIdLm3EE* %_T42931096_52278.arg, %struct._ZSt5arrayIdLm3EE** %_T42931096_52278.addr, align 8, !tbaa !4185
	call void @llvm.dbg.declare (metadata %struct._ZSt5arrayIdLm3EE** %_T42931096_52278.addr, metadata !4858, metadata !4177), !dbg !4850
	call void @llvm.dbg.declare (metadata i64* %__n.addr, metadata !4859, metadata !4177), !dbg !4850
	store i64 %__n.arg, i64* %__n.addr, align 8, !tbaa !4184
	call void @llvm.dbg.declare (metadata i64* %__n.addr, metadata !4860, metadata !4177), !dbg !4850
	%0 = load %struct._ZSt5arrayIdLm3EE*, %struct._ZSt5arrayIdLm3EE** %_T42931096_52278.addr, align 8, !tbaa !4185, !dbg !4861
	%1 = bitcast %struct._ZSt5arrayIdLm3EE*  %0 to i8*, !dbg !4861
	%2 = load i64, i64* %__n.addr, align 8, !tbaa !4270, !dbg !4861
	%3 = mul i64  %2, 8, !dbg !4861
	%4 = getelementptr i8, i8*  %1, i64  %3, !dbg !4861
	%5 = bitcast i8*  %4 to double*, !dbg !4861
	ret double*  %5, !dbg !4861
}
define linkonce_odr double* @_ZNSt5arrayIdLm3EE2atEm(%struct._ZSt5arrayIdLm3EE* %_T42931096_52281.arg, i64 %__n.arg) #0 inlinehint !dbg !4863 {
L.entry:
	%_T42931096_52281.addr = alloca %struct._ZSt5arrayIdLm3EE*, align 8
	%__n.addr = alloca i64, align 8

	call void @llvm.dbg.declare (metadata %struct._ZSt5arrayIdLm3EE** %_T42931096_52281.addr, metadata !4871, metadata !4177), !dbg !4864
	store %struct._ZSt5arrayIdLm3EE* %_T42931096_52281.arg, %struct._ZSt5arrayIdLm3EE** %_T42931096_52281.addr, align 8, !tbaa !4185
	call void @llvm.dbg.declare (metadata %struct._ZSt5arrayIdLm3EE** %_T42931096_52281.addr, metadata !4872, metadata !4177), !dbg !4864
	call void @llvm.dbg.declare (metadata i64* %__n.addr, metadata !4873, metadata !4177), !dbg !4864
	store i64 %__n.arg, i64* %__n.addr, align 8, !tbaa !4184
	call void @llvm.dbg.declare (metadata i64* %__n.addr, metadata !4874, metadata !4177), !dbg !4864
	%0 = load i64, i64* %__n.addr, align 8, !tbaa !4270, !dbg !4875
	%1 = icmp ult i64  %0, 3, !dbg !4875
	br i1  %1, label %L.B0014, label %L.B1413, !dbg !4875
L.B1413:
	%2 = bitcast [52 x i8]* @.S53897 to i8*, !dbg !4876
	call void (i8*, ...)  @_ZSt24__throw_out_of_range_fmtPKcz (i8*  %2, i64  %0, i64 3) noreturn, !dbg !4876
	br label %L.B0014
L.B0014:
	%3 = load %struct._ZSt5arrayIdLm3EE*, %struct._ZSt5arrayIdLm3EE** %_T42931096_52281.addr, align 8, !tbaa !4185, !dbg !4877
	%4 = bitcast %struct._ZSt5arrayIdLm3EE*  %3 to i8*, !dbg !4877
	%5 = load i64, i64* %__n.addr, align 8, !tbaa !4270, !dbg !4877
	%6 = mul i64  %5, 8, !dbg !4877
	%7 = getelementptr i8, i8*  %4, i64  %6, !dbg !4877
	%8 = bitcast i8*  %7 to double*, !dbg !4877
	ret double*  %8, !dbg !4877
}
define linkonce_odr i32* @_ZNSt14__array_traitsIiLm27EE6_S_refERA27_Kim([27 x i32]* %__t.arg, i64 %__n.arg) #0 inlinehint !dbg !4883 {
L.entry:
	%__t.addr = alloca [27 x i32]*, align 8
	%__n.addr = alloca i64, align 8

	call void @llvm.dbg.declare (metadata [27 x i32]** %__t.addr, metadata !4887, metadata !4177), !dbg !4884
	store [27 x i32]* %__t.arg, [27 x i32]** %__t.addr, align 8, !tbaa !4185
	call void @llvm.dbg.declare (metadata [27 x i32]** %__t.addr, metadata !4888, metadata !4177), !dbg !4884
	call void @llvm.dbg.declare (metadata i64* %__n.addr, metadata !4889, metadata !4177), !dbg !4884
	store i64 %__n.arg, i64* %__n.addr, align 8, !tbaa !4184
	call void @llvm.dbg.declare (metadata i64* %__n.addr, metadata !4890, metadata !4177), !dbg !4884
	%0 = load [27 x i32]*, [27 x i32]** %__t.addr, align 8, !tbaa !4185, !dbg !4891
	%1 = bitcast [27 x i32]*  %0 to i8*, !dbg !4891
	%2 = load i64, i64* %__n.addr, align 8, !tbaa !4270, !dbg !4891
	%3 = mul i64  %2, 4, !dbg !4891
	%4 = getelementptr i8, i8*  %1, i64  %3, !dbg !4891
	%5 = bitcast i8*  %4 to i32*, !dbg !4891
	ret i32*  %5, !dbg !4891
}
define linkonce_odr i32* @_ZNSt5arrayIiLm27EEixEm(%struct._ZSt5arrayIiLm27EE* %_T42931096_52286.arg, i64 %__n.arg) #0 inlinehint !dbg !4896 {
L.entry:
	%_T42931096_52286.addr = alloca %struct._ZSt5arrayIiLm27EE*, align 8
	%__n.addr = alloca i64, align 8

	call void @llvm.dbg.declare (metadata %struct._ZSt5arrayIiLm27EE** %_T42931096_52286.addr, metadata !4904, metadata !4177), !dbg !4897
	store %struct._ZSt5arrayIiLm27EE* %_T42931096_52286.arg, %struct._ZSt5arrayIiLm27EE** %_T42931096_52286.addr, align 8, !tbaa !4185
	call void @llvm.dbg.declare (metadata %struct._ZSt5arrayIiLm27EE** %_T42931096_52286.addr, metadata !4905, metadata !4177), !dbg !4897
	call void @llvm.dbg.declare (metadata i64* %__n.addr, metadata !4906, metadata !4177), !dbg !4897
	store i64 %__n.arg, i64* %__n.addr, align 8, !tbaa !4184
	call void @llvm.dbg.declare (metadata i64* %__n.addr, metadata !4907, metadata !4177), !dbg !4897
	%0 = load %struct._ZSt5arrayIiLm27EE*, %struct._ZSt5arrayIiLm27EE** %_T42931096_52286.addr, align 8, !tbaa !4185, !dbg !4908
	%1 = bitcast %struct._ZSt5arrayIiLm27EE*  %0 to i8*, !dbg !4908
	%2 = load i64, i64* %__n.addr, align 8, !tbaa !4270, !dbg !4908
	%3 = mul i64  %2, 4, !dbg !4908
	%4 = getelementptr i8, i8*  %1, i64  %3, !dbg !4908
	%5 = bitcast i8*  %4 to i32*, !dbg !4908
	ret i32*  %5, !dbg !4908
}
define linkonce_odr i32* @_ZNSt14__array_traitsIiLm3EE6_S_refERA3_Kim([3 x i32]* %__t.arg, i64 %__n.arg) #0 inlinehint !dbg !4913 {
L.entry:
	%__t.addr = alloca [3 x i32]*, align 8
	%__n.addr = alloca i64, align 8

	call void @llvm.dbg.declare (metadata [3 x i32]** %__t.addr, metadata !4917, metadata !4177), !dbg !4914
	store [3 x i32]* %__t.arg, [3 x i32]** %__t.addr, align 8, !tbaa !4185
	call void @llvm.dbg.declare (metadata [3 x i32]** %__t.addr, metadata !4918, metadata !4177), !dbg !4914
	call void @llvm.dbg.declare (metadata i64* %__n.addr, metadata !4919, metadata !4177), !dbg !4914
	store i64 %__n.arg, i64* %__n.addr, align 8, !tbaa !4184
	call void @llvm.dbg.declare (metadata i64* %__n.addr, metadata !4920, metadata !4177), !dbg !4914
	%0 = load [3 x i32]*, [3 x i32]** %__t.addr, align 8, !tbaa !4185, !dbg !4921
	%1 = bitcast [3 x i32]*  %0 to i8*, !dbg !4921
	%2 = load i64, i64* %__n.addr, align 8, !tbaa !4270, !dbg !4921
	%3 = mul i64  %2, 4, !dbg !4921
	%4 = getelementptr i8, i8*  %1, i64  %3, !dbg !4921
	%5 = bitcast i8*  %4 to i32*, !dbg !4921
	ret i32*  %5, !dbg !4921
}
define linkonce_odr i32* @_ZNSt14__array_traitsIiLm3EE6_S_ptrERA3_Ki([3 x i32]* %__t.arg) #0 inlinehint !dbg !4925 {
L.entry:
	%__t.addr = alloca [3 x i32]*, align 8

	call void @llvm.dbg.declare (metadata [3 x i32]** %__t.addr, metadata !4929, metadata !4177), !dbg !4926
	store [3 x i32]* %__t.arg, [3 x i32]** %__t.addr, align 8, !tbaa !4185
	call void @llvm.dbg.declare (metadata [3 x i32]** %__t.addr, metadata !4930, metadata !4177), !dbg !4926
	%0 = load [3 x i32]*, [3 x i32]** %__t.addr, align 8, !tbaa !4185, !dbg !4931
	%1 = bitcast [3 x i32]*  %0 to i32*, !dbg !4931
	ret i32*  %1, !dbg !4931
}
define linkonce_odr i32* @_ZNSt5arrayIiLm3EEixEm(%struct._ZSt5arrayIiLm3EE* %_T42931096_52293.arg, i64 %__n.arg) #0 inlinehint !dbg !4935 {
L.entry:
	%_T42931096_52293.addr = alloca %struct._ZSt5arrayIiLm3EE*, align 8
	%__n.addr = alloca i64, align 8

	call void @llvm.dbg.declare (metadata %struct._ZSt5arrayIiLm3EE** %_T42931096_52293.addr, metadata !4943, metadata !4177), !dbg !4936
	store %struct._ZSt5arrayIiLm3EE* %_T42931096_52293.arg, %struct._ZSt5arrayIiLm3EE** %_T42931096_52293.addr, align 8, !tbaa !4185
	call void @llvm.dbg.declare (metadata %struct._ZSt5arrayIiLm3EE** %_T42931096_52293.addr, metadata !4944, metadata !4177), !dbg !4936
	call void @llvm.dbg.declare (metadata i64* %__n.addr, metadata !4945, metadata !4177), !dbg !4936
	store i64 %__n.arg, i64* %__n.addr, align 8, !tbaa !4184
	call void @llvm.dbg.declare (metadata i64* %__n.addr, metadata !4946, metadata !4177), !dbg !4936
	%0 = load %struct._ZSt5arrayIiLm3EE*, %struct._ZSt5arrayIiLm3EE** %_T42931096_52293.addr, align 8, !tbaa !4185, !dbg !4947
	%1 = bitcast %struct._ZSt5arrayIiLm3EE*  %0 to i8*, !dbg !4947
	%2 = load i64, i64* %__n.addr, align 8, !tbaa !4270, !dbg !4947
	%3 = mul i64  %2, 4, !dbg !4947
	%4 = getelementptr i8, i8*  %1, i64  %3, !dbg !4947
	%5 = bitcast i8*  %4 to i32*, !dbg !4947
	ret i32*  %5, !dbg !4947
}
define linkonce_odr i32* @_ZNSt5arrayIiLm3EE4dataEv(%struct._ZSt5arrayIiLm3EE* %_T42931096_52295.arg) #0 inlinehint !dbg !4951 {
L.entry:
	%_T42931096_52295.addr = alloca %struct._ZSt5arrayIiLm3EE*, align 8

	call void @llvm.dbg.declare (metadata %struct._ZSt5arrayIiLm3EE** %_T42931096_52295.addr, metadata !4959, metadata !4177), !dbg !4952
	store %struct._ZSt5arrayIiLm3EE* %_T42931096_52295.arg, %struct._ZSt5arrayIiLm3EE** %_T42931096_52295.addr, align 8, !tbaa !4185
	call void @llvm.dbg.declare (metadata %struct._ZSt5arrayIiLm3EE** %_T42931096_52295.addr, metadata !4960, metadata !4177), !dbg !4952
	%0 = load %struct._ZSt5arrayIiLm3EE*, %struct._ZSt5arrayIiLm3EE** %_T42931096_52295.addr, align 8, !tbaa !4185, !dbg !4961
	%1 = bitcast %struct._ZSt5arrayIiLm3EE*  %0 to i32*, !dbg !4961
	ret i32*  %1, !dbg !4961
}

%struct._ZSaIjE = type <{ [1 x i8]}> 

define linkonce_odr void @_ZNSaIjED1Ev(%struct._ZSaIjE* %_T42931096_52296.arg) #0 inlinehint !dbg !4969 {
L.entry:
	%_T42931096_52296.addr = alloca %struct._ZSaIjE*, align 8

	call void @llvm.dbg.declare (metadata %struct._ZSaIjE** %_T42931096_52296.addr, metadata !4973, metadata !4177), !dbg !4970
	store %struct._ZSaIjE* %_T42931096_52296.arg, %struct._ZSaIjE** %_T42931096_52296.addr, align 8, !tbaa !4185
	call void @llvm.dbg.declare (metadata %struct._ZSaIjE** %_T42931096_52296.addr, metadata !4974, metadata !4177), !dbg !4970
	ret void, !dbg !4975
}
define linkonce_odr void @_ZNSaIjED2Ev(%struct._ZSaIjE* %_T42931096_52297.arg) #0 inlinehint !dbg !4977 {
L.entry:
	%_T42931096_52297.addr = alloca %struct._ZSaIjE*, align 8

	store %struct._ZSaIjE* %_T42931096_52297.arg, %struct._ZSaIjE** %_T42931096_52297.addr, align 8, !tbaa !4185
	ret void, !dbg !4985
}
define linkonce_odr void @_ZNSt16allocator_traitsISaIjEE10deallocateERS0_Pjm(%struct._ZSaIjE* %__a.arg, i32* %__p.arg, i64 %__n.arg) #0 inlinehint !dbg !4993 {
L.entry:
	%__a.addr = alloca %struct._ZSaIjE*, align 8
	%__p.addr = alloca i32*, align 8
	%__n.addr = alloca i64, align 8
	%..inline.addr = alloca i32*, align 8

	call void @llvm.dbg.declare (metadata %struct._ZSaIjE** %__a.addr, metadata !5001, metadata !4177), !dbg !4994
	store %struct._ZSaIjE* %__a.arg, %struct._ZSaIjE** %__a.addr, align 8, !tbaa !4185
	call void @llvm.dbg.declare (metadata %struct._ZSaIjE** %__a.addr, metadata !5002, metadata !4177), !dbg !4994
	call void @llvm.dbg.declare (metadata i32** %__p.addr, metadata !5003, metadata !4177), !dbg !4994
	store i32* %__p.arg, i32** %__p.addr, align 8, !tbaa !4185
	call void @llvm.dbg.declare (metadata i32** %__p.addr, metadata !5004, metadata !4177), !dbg !4994
	call void @llvm.dbg.declare (metadata i64* %__n.addr, metadata !5005, metadata !4177), !dbg !4994
	store i64 %__n.arg, i64* %__n.addr, align 8, !tbaa !4184
	call void @llvm.dbg.declare (metadata i64* %__n.addr, metadata !5006, metadata !4177), !dbg !4994
	%0 = load i32*, i32** %__p.addr, align 8, !tbaa !4185, !dbg !5007
	%1 = bitcast i32*  %0 to i8*, !dbg !5007
	%2 = bitcast i32** %..inline.addr to i8**, !dbg !5007
	store i8*  %1, i8**  %2, align 8, !tbaa !4185, !dbg !5007
	%3 = load i32*, i32** %..inline.addr, align 8, !tbaa !4185, !dbg !5008
	%4 = bitcast i32*  %3 to i8*, !dbg !5008
	call void  @_ZdlPv (i8*  %4) nounwind, !dbg !5008
	ret void, !dbg !5007
}

%struct._ZSt12_Vector_baseIjSaIjEE = type <{ %struct._ZNSt12_Vector_baseIjSaIjEE12_Vector_implE}> 
%struct._ZNSt12_Vector_baseIjSaIjEE12_Vector_implE = type <{ %struct._ZNSt12_Vector_baseIjSaIjEE17_Vector_impl_dataE}> 
%struct._ZNSt12_Vector_baseIjSaIjEE17_Vector_impl_dataE = type <{ i32*, i32*, i32*}> 

define linkonce_odr %struct._ZSaIjE* @_ZNSt12_Vector_baseIjSaIjEE19_M_get_Tp_allocatorEv(%struct._ZSt12_Vector_baseIjSaIjEE* %_T42931096_52303.arg) #0 inlinehint !dbg !5016 {
L.entry:
	%_T42931096_52303.addr = alloca %struct._ZSt12_Vector_baseIjSaIjEE*, align 8

	call void @llvm.dbg.declare (metadata %struct._ZSt12_Vector_baseIjSaIjEE** %_T42931096_52303.addr, metadata !5020, metadata !4177), !dbg !5017
	store %struct._ZSt12_Vector_baseIjSaIjEE* %_T42931096_52303.arg, %struct._ZSt12_Vector_baseIjSaIjEE** %_T42931096_52303.addr, align 8, !tbaa !4185
	call void @llvm.dbg.declare (metadata %struct._ZSt12_Vector_baseIjSaIjEE** %_T42931096_52303.addr, metadata !5021, metadata !4177), !dbg !5017
	%0 = load %struct._ZSt12_Vector_baseIjSaIjEE*, %struct._ZSt12_Vector_baseIjSaIjEE** %_T42931096_52303.addr, align 8, !tbaa !4185, !dbg !5022
	%1 = bitcast %struct._ZSt12_Vector_baseIjSaIjEE*  %0 to %struct._ZSaIjE*, !dbg !5022
	ret %struct._ZSaIjE*  %1, !dbg !5022
}
define linkonce_odr void @_ZNSt12_Vector_baseIjSaIjEED1Ev(%struct._ZSt12_Vector_baseIjSaIjEE* %_T42931096_52304.arg) #0 inlinehint !dbg !5026 {
L.entry:
	%_T42931096_52304.addr = alloca %struct._ZSt12_Vector_baseIjSaIjEE*, align 8
	%..inline.addr = alloca i32*, align 8

	call void @llvm.dbg.declare (metadata %struct._ZSt12_Vector_baseIjSaIjEE** %_T42931096_52304.addr, metadata !5054, metadata !4177), !dbg !5027
	store %struct._ZSt12_Vector_baseIjSaIjEE* %_T42931096_52304.arg, %struct._ZSt12_Vector_baseIjSaIjEE** %_T42931096_52304.addr, align 8, !tbaa !4185
	call void @llvm.dbg.declare (metadata %struct._ZSt12_Vector_baseIjSaIjEE** %_T42931096_52304.addr, metadata !5055, metadata !4177), !dbg !5027
	%0 = load %struct._ZSt12_Vector_baseIjSaIjEE*, %struct._ZSt12_Vector_baseIjSaIjEE** %_T42931096_52304.addr, align 8, !tbaa !4185, !dbg !5056
	%1 = bitcast %struct._ZSt12_Vector_baseIjSaIjEE*  %0 to i8**, !dbg !5056
	%2 = load i8*, i8**  %1, align 8, !tbaa !4185, !dbg !5056
	%3 = icmp eq i8*  %2,  null, !dbg !5056
	br i1  %3, label %L..inline.71615, label %L.B1428, !dbg !5056
L.B1428:
	%4 = bitcast %struct._ZSt12_Vector_baseIjSaIjEE*  %0 to i8**, !dbg !5057
	%5 = load i8*, i8**  %4, align 8, !tbaa !4185, !dbg !5057
	%6 = bitcast i32** %..inline.addr to i8**, !dbg !5057
	store i8*  %5, i8**  %6, align 8, !tbaa !4185, !dbg !5057
	%7 = load i32*, i32** %..inline.addr, align 8, !tbaa !4185, !dbg !5057
	%8 = bitcast i32*  %7 to i8*, !dbg !5057
	call void  @_ZdlPv (i8*  %8) nounwind, !dbg !5057
	br label %L..inline.71615
L..inline.71615:
	ret void, !dbg !5058
}
define linkonce_odr void @_ZNSt12_Vector_baseIjSaIjEED2Ev(%struct._ZSt12_Vector_baseIjSaIjEE* %_T42931096_52305.arg) #0 inlinehint !dbg !5060 {
L.entry:
	%_T42931096_52305.addr = alloca %struct._ZSt12_Vector_baseIjSaIjEE*, align 8
	%..inline.addr = alloca %struct._ZSt12_Vector_baseIjSaIjEE*, align 8
	%..inline.addr.1 = alloca i32*, align 8

	store %struct._ZSt12_Vector_baseIjSaIjEE* %_T42931096_52305.arg, %struct._ZSt12_Vector_baseIjSaIjEE** %_T42931096_52305.addr, align 8, !tbaa !4185
	%0 = load %struct._ZSt12_Vector_baseIjSaIjEE*, %struct._ZSt12_Vector_baseIjSaIjEE** %_T42931096_52305.addr, align 8, !tbaa !4185, !dbg !5092
	%1 = bitcast %struct._ZSt12_Vector_baseIjSaIjEE*  %0 to i8*, !dbg !5092
	%2 = bitcast %struct._ZSt12_Vector_baseIjSaIjEE** %..inline.addr to i8**, !dbg !5092
	store i8*  %1, i8**  %2, align 8, !tbaa !4185, !dbg !5092
	%3 = load %struct._ZSt12_Vector_baseIjSaIjEE*, %struct._ZSt12_Vector_baseIjSaIjEE** %..inline.addr, align 8, !tbaa !4185, !dbg !5092
	%4 = bitcast %struct._ZSt12_Vector_baseIjSaIjEE*  %3 to i8**, !dbg !5092
	%5 = load i8*, i8**  %4, align 8, !tbaa !4185, !dbg !5092
	%6 = icmp eq i8*  %5,  null, !dbg !5092
	br i1  %6, label %L..inline.71674, label %L.B1431, !dbg !5092
L.B1431:
	%7 = bitcast %struct._ZSt12_Vector_baseIjSaIjEE*  %3 to i8**, !dbg !5092
	%8 = load i8*, i8**  %7, align 8, !tbaa !4185, !dbg !5092
	%9 = bitcast i32** %..inline.addr.1 to i8**, !dbg !5092
	store i8*  %8, i8**  %9, align 8, !tbaa !4185, !dbg !5092
	%10 = load i32*, i32** %..inline.addr.1, align 8, !tbaa !4185, !dbg !5092
	%11 = bitcast i32*  %10 to i8*, !dbg !5092
	call void  @_ZdlPv (i8*  %11) nounwind, !dbg !5092
	br label %L..inline.71674
L..inline.71674:
	ret void, !dbg !5093
}
define linkonce_odr void @_ZNSt12_Vector_baseIjSaIjEE13_M_deallocateEPjm(%struct._ZSt12_Vector_baseIjSaIjEE* %_T42931096_52308.arg, i32* %__p.arg, i64 %__n.arg) #0 inlinehint !dbg !5097 {
L.entry:
	%_T42931096_52308.addr = alloca %struct._ZSt12_Vector_baseIjSaIjEE*, align 8
	%__p.addr = alloca i32*, align 8
	%__n.addr = alloca i64, align 8
	%..inline.addr = alloca i32*, align 8

	call void @llvm.dbg.declare (metadata %struct._ZSt12_Vector_baseIjSaIjEE** %_T42931096_52308.addr, metadata !5109, metadata !4177), !dbg !5098
	store %struct._ZSt12_Vector_baseIjSaIjEE* %_T42931096_52308.arg, %struct._ZSt12_Vector_baseIjSaIjEE** %_T42931096_52308.addr, align 8, !tbaa !4185
	call void @llvm.dbg.declare (metadata %struct._ZSt12_Vector_baseIjSaIjEE** %_T42931096_52308.addr, metadata !5110, metadata !4177), !dbg !5098
	call void @llvm.dbg.declare (metadata i32** %__p.addr, metadata !5111, metadata !4177), !dbg !5098
	store i32* %__p.arg, i32** %__p.addr, align 8, !tbaa !4185
	call void @llvm.dbg.declare (metadata i32** %__p.addr, metadata !5112, metadata !4177), !dbg !5098
	call void @llvm.dbg.declare (metadata i64* %__n.addr, metadata !5113, metadata !4177), !dbg !5098
	store i64 %__n.arg, i64* %__n.addr, align 8, !tbaa !4184
	call void @llvm.dbg.declare (metadata i64* %__n.addr, metadata !5114, metadata !4177), !dbg !5098
	%0 = load i32*, i32** %__p.addr, align 8, !tbaa !4185, !dbg !5115
	%1 = bitcast i32*  %0 to i8*, !dbg !5115
	%2 = icmp eq i8*  %1,  null, !dbg !5115
	br i1  %2, label %L.B0015, label %L.B1434, !dbg !5115
L.B1434:
	%3 = bitcast i32*  %0 to i8*, !dbg !5116
	%4 = bitcast i32** %..inline.addr to i8**, !dbg !5116
	store i8*  %3, i8**  %4, align 8, !tbaa !4185, !dbg !5116
	%5 = load i32*, i32** %..inline.addr, align 8, !tbaa !4185, !dbg !5116
	%6 = bitcast i32*  %5 to i8*, !dbg !5116
	call void  @_ZdlPv (i8*  %6) nounwind, !dbg !5116
	br label %L.B0015
L.B0015:
	ret void, !dbg !5117
}
define linkonce_odr void @_ZNSt12_Vector_baseIjSaIjEE12_Vector_implD1Ev(%struct._ZNSt12_Vector_baseIjSaIjEE12_Vector_implE* %_T42931096_52309.arg) #0 inlinehint !dbg !5122 {
L.entry:
	%_T42931096_52309.addr = alloca %struct._ZNSt12_Vector_baseIjSaIjEE12_Vector_implE*, align 8

	call void @llvm.dbg.declare (metadata %struct._ZNSt12_Vector_baseIjSaIjEE12_Vector_implE** %_T42931096_52309.addr, metadata !5134, metadata !4177), !dbg !5123
	store %struct._ZNSt12_Vector_baseIjSaIjEE12_Vector_implE* %_T42931096_52309.arg, %struct._ZNSt12_Vector_baseIjSaIjEE12_Vector_implE** %_T42931096_52309.addr, align 8, !tbaa !4185
	call void @llvm.dbg.declare (metadata %struct._ZNSt12_Vector_baseIjSaIjEE12_Vector_implE** %_T42931096_52309.addr, metadata !5135, metadata !4177), !dbg !5123
	ret void, !dbg !5136
}
define linkonce_odr void @_ZNSt12_Vector_baseIjSaIjEE12_Vector_implD2Ev(%struct._ZNSt12_Vector_baseIjSaIjEE12_Vector_implE* %_T42931096_52310.arg) #0 inlinehint !dbg !5138 {
L.entry:
	%_T42931096_52310.addr = alloca %struct._ZNSt12_Vector_baseIjSaIjEE12_Vector_implE*, align 8

	store %struct._ZNSt12_Vector_baseIjSaIjEE12_Vector_implE* %_T42931096_52310.arg, %struct._ZNSt12_Vector_baseIjSaIjEE12_Vector_implE** %_T42931096_52310.addr, align 8, !tbaa !4185
	ret void, !dbg !5154
}

%struct._ZSt6vectorIjSaIjEE = type <{ %struct._ZSt12_Vector_baseIjSaIjEE}> 

define linkonce_odr void @_ZNSt6vectorIjSaIjEED1Ev(%struct._ZSt6vectorIjSaIjEE* %_T42931096_52311.arg) #0 inlinehint !dbg !5158 {
L.entry:
	%_T42931096_52311.addr = alloca %struct._ZSt6vectorIjSaIjEE*, align 8
	%..inline.addr = alloca %struct._ZSt12_Vector_baseIjSaIjEE*, align 8
	%..inline.addr.1 = alloca i32*, align 8

	call void @llvm.dbg.declare (metadata %struct._ZSt6vectorIjSaIjEE** %_T42931096_52311.addr, metadata !5210, metadata !4177), !dbg !5159
	store %struct._ZSt6vectorIjSaIjEE* %_T42931096_52311.arg, %struct._ZSt6vectorIjSaIjEE** %_T42931096_52311.addr, align 8, !tbaa !4185
	call void @llvm.dbg.declare (metadata %struct._ZSt6vectorIjSaIjEE** %_T42931096_52311.addr, metadata !5211, metadata !4177), !dbg !5159
	%0 = load %struct._ZSt6vectorIjSaIjEE*, %struct._ZSt6vectorIjSaIjEE** %_T42931096_52311.addr, align 8, !tbaa !4185, !dbg !5212
	%1 = bitcast %struct._ZSt6vectorIjSaIjEE*  %0 to i8*, !dbg !5212
	%2 = bitcast %struct._ZSt12_Vector_baseIjSaIjEE** %..inline.addr to i8**, !dbg !5212
	store i8*  %1, i8**  %2, align 8, !tbaa !4185, !dbg !5212
	%3 = load %struct._ZSt12_Vector_baseIjSaIjEE*, %struct._ZSt12_Vector_baseIjSaIjEE** %..inline.addr, align 8, !tbaa !4185, !dbg !5213
	%4 = bitcast %struct._ZSt12_Vector_baseIjSaIjEE*  %3 to i8**, !dbg !5213
	%5 = load i8*, i8**  %4, align 8, !tbaa !4185, !dbg !5213
	%6 = icmp eq i8*  %5,  null, !dbg !5213
	br i1  %6, label %L..inline.71825, label %L.B1445, !dbg !5213
L.B1445:
	%7 = bitcast %struct._ZSt12_Vector_baseIjSaIjEE*  %3 to i8**, !dbg !5213
	%8 = load i8*, i8**  %7, align 8, !tbaa !4185, !dbg !5213
	%9 = bitcast i32** %..inline.addr.1 to i8**, !dbg !5213
	store i8*  %8, i8**  %9, align 8, !tbaa !4185, !dbg !5213
	%10 = load i32*, i32** %..inline.addr.1, align 8, !tbaa !4185, !dbg !5213
	%11 = bitcast i32*  %10 to i8*, !dbg !5213
	call void  @_ZdlPv (i8*  %11) nounwind, !dbg !5213
	br label %L..inline.71825
L..inline.71825:
	ret void, !dbg !5212
}
define linkonce_odr void @_ZNSt6vectorIjSaIjEED2Ev(%struct._ZSt6vectorIjSaIjEE* %_T42931096_52312.arg) #0 inlinehint !dbg !5215 {
L.entry:
	%_T42931096_52312.addr = alloca %struct._ZSt6vectorIjSaIjEE*, align 8
	%..inline.addr = alloca %struct._ZSt12_Vector_baseIjSaIjEE*, align 8
	%..inline.addr.1 = alloca i32*, align 8

	store %struct._ZSt6vectorIjSaIjEE* %_T42931096_52312.arg, %struct._ZSt6vectorIjSaIjEE** %_T42931096_52312.addr, align 8, !tbaa !4185
	%0 = load %struct._ZSt6vectorIjSaIjEE*, %struct._ZSt6vectorIjSaIjEE** %_T42931096_52312.addr, align 8, !tbaa !4185, !dbg !5271
	%1 = bitcast %struct._ZSt6vectorIjSaIjEE*  %0 to i8*, !dbg !5271
	%2 = bitcast %struct._ZSt12_Vector_baseIjSaIjEE** %..inline.addr to i8**, !dbg !5271
	store i8*  %1, i8**  %2, align 8, !tbaa !4185, !dbg !5271
	%3 = load %struct._ZSt12_Vector_baseIjSaIjEE*, %struct._ZSt12_Vector_baseIjSaIjEE** %..inline.addr, align 8, !tbaa !4185, !dbg !5271
	%4 = bitcast %struct._ZSt12_Vector_baseIjSaIjEE*  %3 to i8**, !dbg !5271
	%5 = load i8*, i8**  %4, align 8, !tbaa !4185, !dbg !5271
	%6 = icmp eq i8*  %5,  null, !dbg !5271
	br i1  %6, label %L..inline.71929, label %L.B1448, !dbg !5271
L.B1448:
	%7 = bitcast %struct._ZSt12_Vector_baseIjSaIjEE*  %3 to i8**, !dbg !5271
	%8 = load i8*, i8**  %7, align 8, !tbaa !4185, !dbg !5271
	%9 = bitcast i32** %..inline.addr.1 to i8**, !dbg !5271
	store i8*  %8, i8**  %9, align 8, !tbaa !4185, !dbg !5271
	%10 = load i32*, i32** %..inline.addr.1, align 8, !tbaa !4185, !dbg !5271
	%11 = bitcast i32*  %10 to i8*, !dbg !5271
	call void  @_ZdlPv (i8*  %11) nounwind, !dbg !5271
	br label %L..inline.71929
L..inline.71929:
	ret void, !dbg !5271
}

%struct._ZSaIdE = type <{ [1 x i8]}> 

define linkonce_odr void @_ZNSaIdED1Ev(%struct._ZSaIdE* %_T42931096_52313.arg) #0 inlinehint !dbg !5279 {
L.entry:
	%_T42931096_52313.addr = alloca %struct._ZSaIdE*, align 8

	call void @llvm.dbg.declare (metadata %struct._ZSaIdE** %_T42931096_52313.addr, metadata !5283, metadata !4177), !dbg !5280
	store %struct._ZSaIdE* %_T42931096_52313.arg, %struct._ZSaIdE** %_T42931096_52313.addr, align 8, !tbaa !4185
	call void @llvm.dbg.declare (metadata %struct._ZSaIdE** %_T42931096_52313.addr, metadata !5284, metadata !4177), !dbg !5280
	ret void, !dbg !5285
}
define linkonce_odr void @_ZNSaIdED2Ev(%struct._ZSaIdE* %_T42931096_52314.arg) #0 inlinehint !dbg !5287 {
L.entry:
	%_T42931096_52314.addr = alloca %struct._ZSaIdE*, align 8

	store %struct._ZSaIdE* %_T42931096_52314.arg, %struct._ZSaIdE** %_T42931096_52314.addr, align 8, !tbaa !4185
	ret void, !dbg !5295
}
define linkonce_odr void @_ZNSt16allocator_traitsISaIdEE10deallocateERS0_Pdm(%struct._ZSaIdE* %__a.arg, double* %__p.arg, i64 %__n.arg) #0 inlinehint !dbg !5303 {
L.entry:
	%__a.addr = alloca %struct._ZSaIdE*, align 8
	%__p.addr = alloca double*, align 8
	%__n.addr = alloca i64, align 8
	%..inline.addr = alloca double*, align 8

	call void @llvm.dbg.declare (metadata %struct._ZSaIdE** %__a.addr, metadata !5311, metadata !4177), !dbg !5304
	store %struct._ZSaIdE* %__a.arg, %struct._ZSaIdE** %__a.addr, align 8, !tbaa !4185
	call void @llvm.dbg.declare (metadata %struct._ZSaIdE** %__a.addr, metadata !5312, metadata !4177), !dbg !5304
	call void @llvm.dbg.declare (metadata double** %__p.addr, metadata !5313, metadata !4177), !dbg !5304
	store double* %__p.arg, double** %__p.addr, align 8, !tbaa !4185
	call void @llvm.dbg.declare (metadata double** %__p.addr, metadata !5314, metadata !4177), !dbg !5304
	call void @llvm.dbg.declare (metadata i64* %__n.addr, metadata !5315, metadata !4177), !dbg !5304
	store i64 %__n.arg, i64* %__n.addr, align 8, !tbaa !4184
	call void @llvm.dbg.declare (metadata i64* %__n.addr, metadata !5316, metadata !4177), !dbg !5304
	%0 = load double*, double** %__p.addr, align 8, !tbaa !4185, !dbg !5317
	%1 = bitcast double*  %0 to i8*, !dbg !5317
	%2 = bitcast double** %..inline.addr to i8**, !dbg !5317
	store i8*  %1, i8**  %2, align 8, !tbaa !4185, !dbg !5317
	%3 = load double*, double** %..inline.addr, align 8, !tbaa !4185, !dbg !5318
	%4 = bitcast double*  %3 to i8*, !dbg !5318
	call void  @_ZdlPv (i8*  %4) nounwind, !dbg !5318
	ret void, !dbg !5317
}

%struct._ZNSt12_Vector_baseIdSaIdEE12_Vector_implE = type <{ %struct._ZNSt12_Vector_baseIdSaIdEE17_Vector_impl_dataE}> 
%struct._ZSt12_Vector_baseIdSaIdEE = type <{ %struct._ZNSt12_Vector_baseIdSaIdEE12_Vector_implE}> 
%struct._ZNSt12_Vector_baseIdSaIdEE17_Vector_impl_dataE = type <{ double*, double*, double*}> 

define linkonce_odr %struct._ZSaIdE* @_ZNSt12_Vector_baseIdSaIdEE19_M_get_Tp_allocatorEv(%struct._ZSt12_Vector_baseIdSaIdEE* %_T42931096_52320.arg) #0 inlinehint !dbg !5324 {
L.entry:
	%_T42931096_52320.addr = alloca %struct._ZSt12_Vector_baseIdSaIdEE*, align 8

	call void @llvm.dbg.declare (metadata %struct._ZSt12_Vector_baseIdSaIdEE** %_T42931096_52320.addr, metadata !5328, metadata !4177), !dbg !5325
	store %struct._ZSt12_Vector_baseIdSaIdEE* %_T42931096_52320.arg, %struct._ZSt12_Vector_baseIdSaIdEE** %_T42931096_52320.addr, align 8, !tbaa !4185
	call void @llvm.dbg.declare (metadata %struct._ZSt12_Vector_baseIdSaIdEE** %_T42931096_52320.addr, metadata !5329, metadata !4177), !dbg !5325
	%0 = load %struct._ZSt12_Vector_baseIdSaIdEE*, %struct._ZSt12_Vector_baseIdSaIdEE** %_T42931096_52320.addr, align 8, !tbaa !4185, !dbg !5330
	%1 = bitcast %struct._ZSt12_Vector_baseIdSaIdEE*  %0 to %struct._ZSaIdE*, !dbg !5330
	ret %struct._ZSaIdE*  %1, !dbg !5330
}
define linkonce_odr void @_ZNSt12_Vector_baseIdSaIdEED1Ev(%struct._ZSt12_Vector_baseIdSaIdEE* %_T42931096_52321.arg) #0 inlinehint !dbg !5334 {
L.entry:
	%_T42931096_52321.addr = alloca %struct._ZSt12_Vector_baseIdSaIdEE*, align 8
	%..inline.addr = alloca double*, align 8

	call void @llvm.dbg.declare (metadata %struct._ZSt12_Vector_baseIdSaIdEE** %_T42931096_52321.addr, metadata !5362, metadata !4177), !dbg !5335
	store %struct._ZSt12_Vector_baseIdSaIdEE* %_T42931096_52321.arg, %struct._ZSt12_Vector_baseIdSaIdEE** %_T42931096_52321.addr, align 8, !tbaa !4185
	call void @llvm.dbg.declare (metadata %struct._ZSt12_Vector_baseIdSaIdEE** %_T42931096_52321.addr, metadata !5363, metadata !4177), !dbg !5335
	%0 = load %struct._ZSt12_Vector_baseIdSaIdEE*, %struct._ZSt12_Vector_baseIdSaIdEE** %_T42931096_52321.addr, align 8, !tbaa !4185, !dbg !5364
	%1 = bitcast %struct._ZSt12_Vector_baseIdSaIdEE*  %0 to i8**, !dbg !5364
	%2 = load i8*, i8**  %1, align 8, !tbaa !4185, !dbg !5364
	%3 = icmp eq i8*  %2,  null, !dbg !5364
	br i1  %3, label %L..inline.72025, label %L.B1457, !dbg !5364
L.B1457:
	%4 = bitcast %struct._ZSt12_Vector_baseIdSaIdEE*  %0 to i8**, !dbg !5365
	%5 = load i8*, i8**  %4, align 8, !tbaa !4185, !dbg !5365
	%6 = bitcast double** %..inline.addr to i8**, !dbg !5365
	store i8*  %5, i8**  %6, align 8, !tbaa !4185, !dbg !5365
	%7 = load double*, double** %..inline.addr, align 8, !tbaa !4185, !dbg !5365
	%8 = bitcast double*  %7 to i8*, !dbg !5365
	call void  @_ZdlPv (i8*  %8) nounwind, !dbg !5365
	br label %L..inline.72025
L..inline.72025:
	ret void, !dbg !5366
}
define linkonce_odr void @_ZNSt12_Vector_baseIdSaIdEED2Ev(%struct._ZSt12_Vector_baseIdSaIdEE* %_T42931096_52322.arg) #0 inlinehint !dbg !5368 {
L.entry:
	%_T42931096_52322.addr = alloca %struct._ZSt12_Vector_baseIdSaIdEE*, align 8
	%..inline.addr = alloca %struct._ZSt12_Vector_baseIdSaIdEE*, align 8
	%..inline.addr.1 = alloca double*, align 8

	store %struct._ZSt12_Vector_baseIdSaIdEE* %_T42931096_52322.arg, %struct._ZSt12_Vector_baseIdSaIdEE** %_T42931096_52322.addr, align 8, !tbaa !4185
	%0 = load %struct._ZSt12_Vector_baseIdSaIdEE*, %struct._ZSt12_Vector_baseIdSaIdEE** %_T42931096_52322.addr, align 8, !tbaa !4185, !dbg !5400
	%1 = bitcast %struct._ZSt12_Vector_baseIdSaIdEE*  %0 to i8*, !dbg !5400
	%2 = bitcast %struct._ZSt12_Vector_baseIdSaIdEE** %..inline.addr to i8**, !dbg !5400
	store i8*  %1, i8**  %2, align 8, !tbaa !4185, !dbg !5400
	%3 = load %struct._ZSt12_Vector_baseIdSaIdEE*, %struct._ZSt12_Vector_baseIdSaIdEE** %..inline.addr, align 8, !tbaa !4185, !dbg !5400
	%4 = bitcast %struct._ZSt12_Vector_baseIdSaIdEE*  %3 to i8**, !dbg !5400
	%5 = load i8*, i8**  %4, align 8, !tbaa !4185, !dbg !5400
	%6 = icmp eq i8*  %5,  null, !dbg !5400
	br i1  %6, label %L..inline.72085, label %L.B1460, !dbg !5400
L.B1460:
	%7 = bitcast %struct._ZSt12_Vector_baseIdSaIdEE*  %3 to i8**, !dbg !5400
	%8 = load i8*, i8**  %7, align 8, !tbaa !4185, !dbg !5400
	%9 = bitcast double** %..inline.addr.1 to i8**, !dbg !5400
	store i8*  %8, i8**  %9, align 8, !tbaa !4185, !dbg !5400
	%10 = load double*, double** %..inline.addr.1, align 8, !tbaa !4185, !dbg !5400
	%11 = bitcast double*  %10 to i8*, !dbg !5400
	call void  @_ZdlPv (i8*  %11) nounwind, !dbg !5400
	br label %L..inline.72085
L..inline.72085:
	ret void, !dbg !5401
}
define linkonce_odr void @_ZNSt12_Vector_baseIdSaIdEE13_M_deallocateEPdm(%struct._ZSt12_Vector_baseIdSaIdEE* %_T42931096_52325.arg, double* %__p.arg, i64 %__n.arg) #0 inlinehint !dbg !5405 {
L.entry:
	%_T42931096_52325.addr = alloca %struct._ZSt12_Vector_baseIdSaIdEE*, align 8
	%__p.addr = alloca double*, align 8
	%__n.addr = alloca i64, align 8
	%..inline.addr = alloca double*, align 8

	call void @llvm.dbg.declare (metadata %struct._ZSt12_Vector_baseIdSaIdEE** %_T42931096_52325.addr, metadata !5417, metadata !4177), !dbg !5406
	store %struct._ZSt12_Vector_baseIdSaIdEE* %_T42931096_52325.arg, %struct._ZSt12_Vector_baseIdSaIdEE** %_T42931096_52325.addr, align 8, !tbaa !4185
	call void @llvm.dbg.declare (metadata %struct._ZSt12_Vector_baseIdSaIdEE** %_T42931096_52325.addr, metadata !5418, metadata !4177), !dbg !5406
	call void @llvm.dbg.declare (metadata double** %__p.addr, metadata !5419, metadata !4177), !dbg !5406
	store double* %__p.arg, double** %__p.addr, align 8, !tbaa !4185
	call void @llvm.dbg.declare (metadata double** %__p.addr, metadata !5420, metadata !4177), !dbg !5406
	call void @llvm.dbg.declare (metadata i64* %__n.addr, metadata !5421, metadata !4177), !dbg !5406
	store i64 %__n.arg, i64* %__n.addr, align 8, !tbaa !4184
	call void @llvm.dbg.declare (metadata i64* %__n.addr, metadata !5422, metadata !4177), !dbg !5406
	%0 = load double*, double** %__p.addr, align 8, !tbaa !4185, !dbg !5423
	%1 = bitcast double*  %0 to i8*, !dbg !5423
	%2 = icmp eq i8*  %1,  null, !dbg !5423
	br i1  %2, label %L.B0016, label %L.B1463, !dbg !5423
L.B1463:
	%3 = bitcast double*  %0 to i8*, !dbg !5424
	%4 = bitcast double** %..inline.addr to i8**, !dbg !5424
	store i8*  %3, i8**  %4, align 8, !tbaa !4185, !dbg !5424
	%5 = load double*, double** %..inline.addr, align 8, !tbaa !4185, !dbg !5424
	%6 = bitcast double*  %5 to i8*, !dbg !5424
	call void  @_ZdlPv (i8*  %6) nounwind, !dbg !5424
	br label %L.B0016
L.B0016:
	ret void, !dbg !5425
}
define linkonce_odr void @_ZNSt12_Vector_baseIdSaIdEE12_Vector_implD1Ev(%struct._ZNSt12_Vector_baseIdSaIdEE12_Vector_implE* %_T42931096_52326.arg) #0 inlinehint !dbg !5430 {
L.entry:
	%_T42931096_52326.addr = alloca %struct._ZNSt12_Vector_baseIdSaIdEE12_Vector_implE*, align 8

	call void @llvm.dbg.declare (metadata %struct._ZNSt12_Vector_baseIdSaIdEE12_Vector_implE** %_T42931096_52326.addr, metadata !5442, metadata !4177), !dbg !5431
	store %struct._ZNSt12_Vector_baseIdSaIdEE12_Vector_implE* %_T42931096_52326.arg, %struct._ZNSt12_Vector_baseIdSaIdEE12_Vector_implE** %_T42931096_52326.addr, align 8, !tbaa !4185
	call void @llvm.dbg.declare (metadata %struct._ZNSt12_Vector_baseIdSaIdEE12_Vector_implE** %_T42931096_52326.addr, metadata !5443, metadata !4177), !dbg !5431
	ret void, !dbg !5444
}
define linkonce_odr void @_ZNSt12_Vector_baseIdSaIdEE12_Vector_implD2Ev(%struct._ZNSt12_Vector_baseIdSaIdEE12_Vector_implE* %_T42931096_52327.arg) #0 inlinehint !dbg !5446 {
L.entry:
	%_T42931096_52327.addr = alloca %struct._ZNSt12_Vector_baseIdSaIdEE12_Vector_implE*, align 8

	store %struct._ZNSt12_Vector_baseIdSaIdEE12_Vector_implE* %_T42931096_52327.arg, %struct._ZNSt12_Vector_baseIdSaIdEE12_Vector_implE** %_T42931096_52327.addr, align 8, !tbaa !4185
	ret void, !dbg !5462
}

%struct._ZSt6vectorIdSaIdEE = type <{ %struct._ZSt12_Vector_baseIdSaIdEE}> 

define linkonce_odr void @_ZNSt6vectorIdSaIdEED1Ev(%struct._ZSt6vectorIdSaIdEE* %_T42931096_52328.arg) #0 inlinehint !dbg !5467 {
L.entry:
	%_T42931096_52328.addr = alloca %struct._ZSt6vectorIdSaIdEE*, align 8
	%..inline.addr = alloca %struct._ZSt12_Vector_baseIdSaIdEE*, align 8
	%..inline.addr.1 = alloca double*, align 8

	call void @llvm.dbg.declare (metadata %struct._ZSt6vectorIdSaIdEE** %_T42931096_52328.addr, metadata !5519, metadata !4177), !dbg !5468
	store %struct._ZSt6vectorIdSaIdEE* %_T42931096_52328.arg, %struct._ZSt6vectorIdSaIdEE** %_T42931096_52328.addr, align 8, !tbaa !4185
	call void @llvm.dbg.declare (metadata %struct._ZSt6vectorIdSaIdEE** %_T42931096_52328.addr, metadata !5520, metadata !4177), !dbg !5468
	%0 = load %struct._ZSt6vectorIdSaIdEE*, %struct._ZSt6vectorIdSaIdEE** %_T42931096_52328.addr, align 8, !tbaa !4185, !dbg !5521
	%1 = bitcast %struct._ZSt6vectorIdSaIdEE*  %0 to i8*, !dbg !5521
	%2 = bitcast %struct._ZSt12_Vector_baseIdSaIdEE** %..inline.addr to i8**, !dbg !5521
	store i8*  %1, i8**  %2, align 8, !tbaa !4185, !dbg !5521
	%3 = load %struct._ZSt12_Vector_baseIdSaIdEE*, %struct._ZSt12_Vector_baseIdSaIdEE** %..inline.addr, align 8, !tbaa !4185, !dbg !5522
	%4 = bitcast %struct._ZSt12_Vector_baseIdSaIdEE*  %3 to i8**, !dbg !5522
	%5 = load i8*, i8**  %4, align 8, !tbaa !4185, !dbg !5522
	%6 = icmp eq i8*  %5,  null, !dbg !5522
	br i1  %6, label %L..inline.72236, label %L.B1474, !dbg !5522
L.B1474:
	%7 = bitcast %struct._ZSt12_Vector_baseIdSaIdEE*  %3 to i8**, !dbg !5522
	%8 = load i8*, i8**  %7, align 8, !tbaa !4185, !dbg !5522
	%9 = bitcast double** %..inline.addr.1 to i8**, !dbg !5522
	store i8*  %8, i8**  %9, align 8, !tbaa !4185, !dbg !5522
	%10 = load double*, double** %..inline.addr.1, align 8, !tbaa !4185, !dbg !5522
	%11 = bitcast double*  %10 to i8*, !dbg !5522
	call void  @_ZdlPv (i8*  %11) nounwind, !dbg !5522
	br label %L..inline.72236
L..inline.72236:
	ret void, !dbg !5521
}
define linkonce_odr void @_ZNSt6vectorIdSaIdEED2Ev(%struct._ZSt6vectorIdSaIdEE* %_T42931096_52329.arg) #0 inlinehint !dbg !5524 {
L.entry:
	%_T42931096_52329.addr = alloca %struct._ZSt6vectorIdSaIdEE*, align 8
	%..inline.addr = alloca %struct._ZSt12_Vector_baseIdSaIdEE*, align 8
	%..inline.addr.1 = alloca double*, align 8

	store %struct._ZSt6vectorIdSaIdEE* %_T42931096_52329.arg, %struct._ZSt6vectorIdSaIdEE** %_T42931096_52329.addr, align 8, !tbaa !4185
	%0 = load %struct._ZSt6vectorIdSaIdEE*, %struct._ZSt6vectorIdSaIdEE** %_T42931096_52329.addr, align 8, !tbaa !4185, !dbg !5580
	%1 = bitcast %struct._ZSt6vectorIdSaIdEE*  %0 to i8*, !dbg !5580
	%2 = bitcast %struct._ZSt12_Vector_baseIdSaIdEE** %..inline.addr to i8**, !dbg !5580
	store i8*  %1, i8**  %2, align 8, !tbaa !4185, !dbg !5580
	%3 = load %struct._ZSt12_Vector_baseIdSaIdEE*, %struct._ZSt12_Vector_baseIdSaIdEE** %..inline.addr, align 8, !tbaa !4185, !dbg !5580
	%4 = bitcast %struct._ZSt12_Vector_baseIdSaIdEE*  %3 to i8**, !dbg !5580
	%5 = load i8*, i8**  %4, align 8, !tbaa !4185, !dbg !5580
	%6 = icmp eq i8*  %5,  null, !dbg !5580
	br i1  %6, label %L..inline.72340, label %L.B1477, !dbg !5580
L.B1477:
	%7 = bitcast %struct._ZSt12_Vector_baseIdSaIdEE*  %3 to i8**, !dbg !5580
	%8 = load i8*, i8**  %7, align 8, !tbaa !4185, !dbg !5580
	%9 = bitcast double** %..inline.addr.1 to i8**, !dbg !5580
	store i8*  %8, i8**  %9, align 8, !tbaa !4185, !dbg !5580
	%10 = load double*, double** %..inline.addr.1, align 8, !tbaa !4185, !dbg !5580
	%11 = bitcast double*  %10 to i8*, !dbg !5580
	call void  @_ZdlPv (i8*  %11) nounwind, !dbg !5580
	br label %L..inline.72340
L..inline.72340:
	ret void, !dbg !5580
}

%struct._ZSaIN5vmesh14MeshParametersEE = type <{ [1 x i8]}> 

define linkonce_odr void @_ZNSaIN5vmesh14MeshParametersEED1Ev(%struct._ZSaIN5vmesh14MeshParametersEE* %_T42931096_52330.arg) #0 inlinehint !dbg !5588 {
L.entry:
	%_T42931096_52330.addr = alloca %struct._ZSaIN5vmesh14MeshParametersEE*, align 8

	call void @llvm.dbg.declare (metadata %struct._ZSaIN5vmesh14MeshParametersEE** %_T42931096_52330.addr, metadata !5592, metadata !4177), !dbg !5589
	store %struct._ZSaIN5vmesh14MeshParametersEE* %_T42931096_52330.arg, %struct._ZSaIN5vmesh14MeshParametersEE** %_T42931096_52330.addr, align 8, !tbaa !4185
	call void @llvm.dbg.declare (metadata %struct._ZSaIN5vmesh14MeshParametersEE** %_T42931096_52330.addr, metadata !5593, metadata !4177), !dbg !5589
	ret void, !dbg !5594
}
define linkonce_odr void @_ZNSaIN5vmesh14MeshParametersEED2Ev(%struct._ZSaIN5vmesh14MeshParametersEE* %_T42931096_52331.arg) #0 inlinehint !dbg !5596 {
L.entry:
	%_T42931096_52331.addr = alloca %struct._ZSaIN5vmesh14MeshParametersEE*, align 8

	store %struct._ZSaIN5vmesh14MeshParametersEE* %_T42931096_52331.arg, %struct._ZSaIN5vmesh14MeshParametersEE** %_T42931096_52331.addr, align 8, !tbaa !4185
	ret void, !dbg !5604
}

%struct._ZNSt7__cxx1112basic_stringIcSt11char_traitsIcESaIcEE12_Alloc_hiderE = type <{ i8*}> 
%struct._ZNSt7__cxx1112basic_stringIcSt11char_traitsIcESaIcEEE = type <{ %struct._ZNSt7__cxx1112basic_stringIcSt11char_traitsIcESaIcEE12_Alloc_hiderE, i64, %union.__C6}> 
%struct._ZN5vmesh14MeshParametersE = type <{ %struct._ZNSt7__cxx1112basic_stringIcSt11char_traitsIcESaIcEEE, i32, [4 x i8], [6 x double], [3 x i32], [3 x i32], i8, i8, [6 x i8], [3 x double], [3 x double], [3 x double], [3 x double], [3 x double], %struct._ZSt6vectorIjSaIjEE, %struct._ZSt6vectorIdSaIdEE, %struct._ZSt6vectorIdSaIdEE, %struct._ZSt6vectorIjSaIjEE}> 
%union.__C6 = type <{ [16 x i8]}> 

define linkonce_odr void @_ZNSt16allocator_traitsISaIN5vmesh14MeshParametersEEE10deallocateERS2_PS1_m(%struct._ZSaIN5vmesh14MeshParametersEE* %__a.arg, %struct._ZN5vmesh14MeshParametersE* %__p.arg, i64 %__n.arg) #0 inlinehint !dbg !5612 {
L.entry:
	%__a.addr = alloca %struct._ZSaIN5vmesh14MeshParametersEE*, align 8
	%__p.addr = alloca %struct._ZN5vmesh14MeshParametersE*, align 8
	%__n.addr = alloca i64, align 8
	%..inline.addr = alloca %struct._ZN5vmesh14MeshParametersE*, align 8

	call void @llvm.dbg.declare (metadata %struct._ZSaIN5vmesh14MeshParametersEE** %__a.addr, metadata !5620, metadata !4177), !dbg !5613
	store %struct._ZSaIN5vmesh14MeshParametersEE* %__a.arg, %struct._ZSaIN5vmesh14MeshParametersEE** %__a.addr, align 8, !tbaa !4185
	call void @llvm.dbg.declare (metadata %struct._ZSaIN5vmesh14MeshParametersEE** %__a.addr, metadata !5621, metadata !4177), !dbg !5613
	call void @llvm.dbg.declare (metadata %struct._ZN5vmesh14MeshParametersE** %__p.addr, metadata !5622, metadata !4177), !dbg !5613
	store %struct._ZN5vmesh14MeshParametersE* %__p.arg, %struct._ZN5vmesh14MeshParametersE** %__p.addr, align 8, !tbaa !4185
	call void @llvm.dbg.declare (metadata %struct._ZN5vmesh14MeshParametersE** %__p.addr, metadata !5623, metadata !4177), !dbg !5613
	call void @llvm.dbg.declare (metadata i64* %__n.addr, metadata !5624, metadata !4177), !dbg !5613
	store i64 %__n.arg, i64* %__n.addr, align 8, !tbaa !4184
	call void @llvm.dbg.declare (metadata i64* %__n.addr, metadata !5625, metadata !4177), !dbg !5613
	%0 = load %struct._ZN5vmesh14MeshParametersE*, %struct._ZN5vmesh14MeshParametersE** %__p.addr, align 8, !tbaa !4185, !dbg !5626
	%1 = bitcast %struct._ZN5vmesh14MeshParametersE*  %0 to i8*, !dbg !5626
	%2 = bitcast %struct._ZN5vmesh14MeshParametersE** %..inline.addr to i8**, !dbg !5626
	store i8*  %1, i8**  %2, align 8, !tbaa !4185, !dbg !5626
	%3 = load %struct._ZN5vmesh14MeshParametersE*, %struct._ZN5vmesh14MeshParametersE** %..inline.addr, align 8, !tbaa !4185, !dbg !5627
	%4 = bitcast %struct._ZN5vmesh14MeshParametersE*  %3 to i8*, !dbg !5627
	call void  @_ZdlPv (i8*  %4) nounwind, !dbg !5627
	ret void, !dbg !5626
}

%struct._ZSt12_Vector_baseIN5vmesh14MeshParametersESaIS1_EE = type <{ %struct._ZNSt12_Vector_baseIN5vmesh14MeshParametersESaIS1_EE12_Vector_implE}> 
%struct._ZNSt12_Vector_baseIN5vmesh14MeshParametersESaIS1_EE12_Vector_implE = type <{ %struct._ZNSt12_Vector_baseIN5vmesh14MeshParametersESaIS1_EE17_Vector_impl_dataE}> 
%struct._ZNSt12_Vector_baseIN5vmesh14MeshParametersESaIS1_EE17_Vector_impl_dataE = type <{ %struct._ZN5vmesh14MeshParametersE*, %struct._ZN5vmesh14MeshParametersE*, %struct._ZN5vmesh14MeshParametersE*}> 

define linkonce_odr %struct._ZSaIN5vmesh14MeshParametersEE* @_ZNSt12_Vector_baseIN5vmesh14MeshParametersESaIS1_EE19_M_get_Tp_allocatorEv(%struct._ZSt12_Vector_baseIN5vmesh14MeshParametersESaIS1_EE* %_T42931096_52337.arg) #0 inlinehint !dbg !5633 {
L.entry:
	%_T42931096_52337.addr = alloca %struct._ZSt12_Vector_baseIN5vmesh14MeshParametersESaIS1_EE*, align 8

	call void @llvm.dbg.declare (metadata %struct._ZSt12_Vector_baseIN5vmesh14MeshParametersESaIS1_EE** %_T42931096_52337.addr, metadata !5637, metadata !4177), !dbg !5634
	store %struct._ZSt12_Vector_baseIN5vmesh14MeshParametersESaIS1_EE* %_T42931096_52337.arg, %struct._ZSt12_Vector_baseIN5vmesh14MeshParametersESaIS1_EE** %_T42931096_52337.addr, align 8, !tbaa !4185
	call void @llvm.dbg.declare (metadata %struct._ZSt12_Vector_baseIN5vmesh14MeshParametersESaIS1_EE** %_T42931096_52337.addr, metadata !5638, metadata !4177), !dbg !5634
	%0 = load %struct._ZSt12_Vector_baseIN5vmesh14MeshParametersESaIS1_EE*, %struct._ZSt12_Vector_baseIN5vmesh14MeshParametersESaIS1_EE** %_T42931096_52337.addr, align 8, !tbaa !4185, !dbg !5639
	%1 = bitcast %struct._ZSt12_Vector_baseIN5vmesh14MeshParametersESaIS1_EE*  %0 to %struct._ZSaIN5vmesh14MeshParametersEE*, !dbg !5639
	ret %struct._ZSaIN5vmesh14MeshParametersEE*  %1, !dbg !5639
}
define linkonce_odr void @_ZNSt12_Vector_baseIN5vmesh14MeshParametersESaIS1_EEC1Ev(%struct._ZSt12_Vector_baseIN5vmesh14MeshParametersESaIS1_EE* %_T42931096_52338.arg) #0 inlinehint !dbg !5643 {
L.entry:
	%_T42931096_52338.addr = alloca %struct._ZSt12_Vector_baseIN5vmesh14MeshParametersESaIS1_EE*, align 8
	%..inline.addr = alloca %struct._ZNSt12_Vector_baseIN5vmesh14MeshParametersESaIS1_EE17_Vector_impl_dataE*, align 8

	call void @llvm.dbg.declare (metadata %struct._ZSt12_Vector_baseIN5vmesh14MeshParametersESaIS1_EE** %_T42931096_52338.addr, metadata !5659, metadata !4177), !dbg !5644
	store %struct._ZSt12_Vector_baseIN5vmesh14MeshParametersESaIS1_EE* %_T42931096_52338.arg, %struct._ZSt12_Vector_baseIN5vmesh14MeshParametersESaIS1_EE** %_T42931096_52338.addr, align 8, !tbaa !4185
	call void @llvm.dbg.declare (metadata %struct._ZSt12_Vector_baseIN5vmesh14MeshParametersESaIS1_EE** %_T42931096_52338.addr, metadata !5660, metadata !4177), !dbg !5644
	%0 = load %struct._ZSt12_Vector_baseIN5vmesh14MeshParametersESaIS1_EE*, %struct._ZSt12_Vector_baseIN5vmesh14MeshParametersESaIS1_EE** %_T42931096_52338.addr, align 8, !tbaa !4185, !dbg !5661
	%1 = bitcast %struct._ZSt12_Vector_baseIN5vmesh14MeshParametersESaIS1_EE*  %0 to i8*, !dbg !5661
	%2 = bitcast %struct._ZNSt12_Vector_baseIN5vmesh14MeshParametersESaIS1_EE17_Vector_impl_dataE** %..inline.addr to i8**, !dbg !5661
	store i8*  %1, i8**  %2, align 8, !tbaa !4185, !dbg !5661
	%3 = load %struct._ZNSt12_Vector_baseIN5vmesh14MeshParametersESaIS1_EE17_Vector_impl_dataE*, %struct._ZNSt12_Vector_baseIN5vmesh14MeshParametersESaIS1_EE17_Vector_impl_dataE** %..inline.addr, align 8, !tbaa !4185, !dbg !5661
	%4 = bitcast %struct._ZNSt12_Vector_baseIN5vmesh14MeshParametersESaIS1_EE17_Vector_impl_dataE*  %3 to i8**, !dbg !5661
	store i8* null, i8**  %4, align 8, !tbaa !4185, !dbg !5661
	%5 = bitcast %struct._ZNSt12_Vector_baseIN5vmesh14MeshParametersESaIS1_EE17_Vector_impl_dataE*  %3 to i8*, !dbg !5661
	%6 = getelementptr i8, i8*  %5, i64 8, !dbg !5661
	%7 = bitcast i8*  %6 to i8**, !dbg !5661
	store i8* null, i8**  %7, align 8, !tbaa !4185, !dbg !5661
	%8 = getelementptr i8, i8*  %5, i64 16, !dbg !5661
	%9 = bitcast i8*  %8 to i8**, !dbg !5661
	store i8* null, i8**  %9, align 8, !tbaa !4185, !dbg !5661
	ret void, !dbg !5661
}
define linkonce_odr void @_ZNSt12_Vector_baseIN5vmesh14MeshParametersESaIS1_EEC2Ev(%struct._ZSt12_Vector_baseIN5vmesh14MeshParametersESaIS1_EE* %_T42931096_52339.arg) #0 inlinehint !dbg !5663 {
L.entry:
	%_T42931096_52339.addr = alloca %struct._ZSt12_Vector_baseIN5vmesh14MeshParametersESaIS1_EE*, align 8
	%..inline.addr = alloca %struct._ZNSt12_Vector_baseIN5vmesh14MeshParametersESaIS1_EE17_Vector_impl_dataE*, align 8

	store %struct._ZSt12_Vector_baseIN5vmesh14MeshParametersESaIS1_EE* %_T42931096_52339.arg, %struct._ZSt12_Vector_baseIN5vmesh14MeshParametersESaIS1_EE** %_T42931096_52339.addr, align 8, !tbaa !4185
	%0 = load %struct._ZSt12_Vector_baseIN5vmesh14MeshParametersESaIS1_EE*, %struct._ZSt12_Vector_baseIN5vmesh14MeshParametersESaIS1_EE** %_T42931096_52339.addr, align 8, !tbaa !4185, !dbg !5683
	%1 = bitcast %struct._ZSt12_Vector_baseIN5vmesh14MeshParametersESaIS1_EE*  %0 to i8*, !dbg !5683
	%2 = bitcast %struct._ZNSt12_Vector_baseIN5vmesh14MeshParametersESaIS1_EE17_Vector_impl_dataE** %..inline.addr to i8**, !dbg !5683
	store i8*  %1, i8**  %2, align 8, !tbaa !4185, !dbg !5683
	%3 = load %struct._ZNSt12_Vector_baseIN5vmesh14MeshParametersESaIS1_EE17_Vector_impl_dataE*, %struct._ZNSt12_Vector_baseIN5vmesh14MeshParametersESaIS1_EE17_Vector_impl_dataE** %..inline.addr, align 8, !tbaa !4185, !dbg !5683
	%4 = bitcast %struct._ZNSt12_Vector_baseIN5vmesh14MeshParametersESaIS1_EE17_Vector_impl_dataE*  %3 to i8**, !dbg !5683
	store i8* null, i8**  %4, align 8, !tbaa !4185, !dbg !5683
	%5 = bitcast %struct._ZNSt12_Vector_baseIN5vmesh14MeshParametersESaIS1_EE17_Vector_impl_dataE*  %3 to i8*, !dbg !5683
	%6 = getelementptr i8, i8*  %5, i64 8, !dbg !5683
	%7 = bitcast i8*  %6 to i8**, !dbg !5683
	store i8* null, i8**  %7, align 8, !tbaa !4185, !dbg !5683
	%8 = getelementptr i8, i8*  %5, i64 16, !dbg !5683
	%9 = bitcast i8*  %8 to i8**, !dbg !5683
	store i8* null, i8**  %9, align 8, !tbaa !4185, !dbg !5683
	ret void, !dbg !5683
}
define linkonce_odr void @_ZNSt12_Vector_baseIN5vmesh14MeshParametersESaIS1_EED1Ev(%struct._ZSt12_Vector_baseIN5vmesh14MeshParametersESaIS1_EE* %_T42931096_52340.arg) #0 inlinehint !dbg !5685 {
L.entry:
	%_T42931096_52340.addr = alloca %struct._ZSt12_Vector_baseIN5vmesh14MeshParametersESaIS1_EE*, align 8
	%..inline.addr = alloca %struct._ZN5vmesh14MeshParametersE*, align 8

	call void @llvm.dbg.declare (metadata %struct._ZSt12_Vector_baseIN5vmesh14MeshParametersESaIS1_EE** %_T42931096_52340.addr, metadata !5713, metadata !4177), !dbg !5686
	store %struct._ZSt12_Vector_baseIN5vmesh14MeshParametersESaIS1_EE* %_T42931096_52340.arg, %struct._ZSt12_Vector_baseIN5vmesh14MeshParametersESaIS1_EE** %_T42931096_52340.addr, align 8, !tbaa !4185
	call void @llvm.dbg.declare (metadata %struct._ZSt12_Vector_baseIN5vmesh14MeshParametersESaIS1_EE** %_T42931096_52340.addr, metadata !5714, metadata !4177), !dbg !5686
	%0 = load %struct._ZSt12_Vector_baseIN5vmesh14MeshParametersESaIS1_EE*, %struct._ZSt12_Vector_baseIN5vmesh14MeshParametersESaIS1_EE** %_T42931096_52340.addr, align 8, !tbaa !4185, !dbg !5715
	%1 = bitcast %struct._ZSt12_Vector_baseIN5vmesh14MeshParametersESaIS1_EE*  %0 to i8**, !dbg !5715
	%2 = load i8*, i8**  %1, align 8, !tbaa !4185, !dbg !5715
	%3 = icmp eq i8*  %2,  null, !dbg !5715
	br i1  %3, label %L..inline.72484, label %L.B1490, !dbg !5715
L.B1490:
	%4 = bitcast %struct._ZSt12_Vector_baseIN5vmesh14MeshParametersESaIS1_EE*  %0 to i8**, !dbg !5716
	%5 = load i8*, i8**  %4, align 8, !tbaa !4185, !dbg !5716
	%6 = bitcast %struct._ZN5vmesh14MeshParametersE** %..inline.addr to i8**, !dbg !5716
	store i8*  %5, i8**  %6, align 8, !tbaa !4185, !dbg !5716
	%7 = load %struct._ZN5vmesh14MeshParametersE*, %struct._ZN5vmesh14MeshParametersE** %..inline.addr, align 8, !tbaa !4185, !dbg !5716
	%8 = bitcast %struct._ZN5vmesh14MeshParametersE*  %7 to i8*, !dbg !5716
	call void  @_ZdlPv (i8*  %8) nounwind, !dbg !5716
	br label %L..inline.72484
L..inline.72484:
	ret void, !dbg !5717
}
define linkonce_odr void @_ZNSt12_Vector_baseIN5vmesh14MeshParametersESaIS1_EED2Ev(%struct._ZSt12_Vector_baseIN5vmesh14MeshParametersESaIS1_EE* %_T42931096_52341.arg) #0 inlinehint !dbg !5719 {
L.entry:
	%_T42931096_52341.addr = alloca %struct._ZSt12_Vector_baseIN5vmesh14MeshParametersESaIS1_EE*, align 8
	%..inline.addr = alloca %struct._ZSt12_Vector_baseIN5vmesh14MeshParametersESaIS1_EE*, align 8
	%..inline.addr.1 = alloca %struct._ZN5vmesh14MeshParametersE*, align 8

	store %struct._ZSt12_Vector_baseIN5vmesh14MeshParametersESaIS1_EE* %_T42931096_52341.arg, %struct._ZSt12_Vector_baseIN5vmesh14MeshParametersESaIS1_EE** %_T42931096_52341.addr, align 8, !tbaa !4185
	%0 = load %struct._ZSt12_Vector_baseIN5vmesh14MeshParametersESaIS1_EE*, %struct._ZSt12_Vector_baseIN5vmesh14MeshParametersESaIS1_EE** %_T42931096_52341.addr, align 8, !tbaa !4185, !dbg !5751
	%1 = bitcast %struct._ZSt12_Vector_baseIN5vmesh14MeshParametersESaIS1_EE*  %0 to i8*, !dbg !5751
	%2 = bitcast %struct._ZSt12_Vector_baseIN5vmesh14MeshParametersESaIS1_EE** %..inline.addr to i8**, !dbg !5751
	store i8*  %1, i8**  %2, align 8, !tbaa !4185, !dbg !5751
	%3 = load %struct._ZSt12_Vector_baseIN5vmesh14MeshParametersESaIS1_EE*, %struct._ZSt12_Vector_baseIN5vmesh14MeshParametersESaIS1_EE** %..inline.addr, align 8, !tbaa !4185, !dbg !5751
	%4 = bitcast %struct._ZSt12_Vector_baseIN5vmesh14MeshParametersESaIS1_EE*  %3 to i8**, !dbg !5751
	%5 = load i8*, i8**  %4, align 8, !tbaa !4185, !dbg !5751
	%6 = icmp eq i8*  %5,  null, !dbg !5751
	br i1  %6, label %L..inline.72547, label %L.B1493, !dbg !5751
L.B1493:
	%7 = bitcast %struct._ZSt12_Vector_baseIN5vmesh14MeshParametersESaIS1_EE*  %3 to i8**, !dbg !5751
	%8 = load i8*, i8**  %7, align 8, !tbaa !4185, !dbg !5751
	%9 = bitcast %struct._ZN5vmesh14MeshParametersE** %..inline.addr.1 to i8**, !dbg !5751
	store i8*  %8, i8**  %9, align 8, !tbaa !4185, !dbg !5751
	%10 = load %struct._ZN5vmesh14MeshParametersE*, %struct._ZN5vmesh14MeshParametersE** %..inline.addr.1, align 8, !tbaa !4185, !dbg !5751
	%11 = bitcast %struct._ZN5vmesh14MeshParametersE*  %10 to i8*, !dbg !5751
	call void  @_ZdlPv (i8*  %11) nounwind, !dbg !5751
	br label %L..inline.72547
L..inline.72547:
	ret void, !dbg !5752
}
define linkonce_odr void @_ZNSt12_Vector_baseIN5vmesh14MeshParametersESaIS1_EE13_M_deallocateEPS1_m(%struct._ZSt12_Vector_baseIN5vmesh14MeshParametersESaIS1_EE* %_T42931096_52344.arg, %struct._ZN5vmesh14MeshParametersE* %__p.arg, i64 %__n.arg) #0 inlinehint !dbg !5756 {
L.entry:
	%_T42931096_52344.addr = alloca %struct._ZSt12_Vector_baseIN5vmesh14MeshParametersESaIS1_EE*, align 8
	%__p.addr = alloca %struct._ZN5vmesh14MeshParametersE*, align 8
	%__n.addr = alloca i64, align 8
	%..inline.addr = alloca %struct._ZN5vmesh14MeshParametersE*, align 8

	call void @llvm.dbg.declare (metadata %struct._ZSt12_Vector_baseIN5vmesh14MeshParametersESaIS1_EE** %_T42931096_52344.addr, metadata !5768, metadata !4177), !dbg !5757
	store %struct._ZSt12_Vector_baseIN5vmesh14MeshParametersESaIS1_EE* %_T42931096_52344.arg, %struct._ZSt12_Vector_baseIN5vmesh14MeshParametersESaIS1_EE** %_T42931096_52344.addr, align 8, !tbaa !4185
	call void @llvm.dbg.declare (metadata %struct._ZSt12_Vector_baseIN5vmesh14MeshParametersESaIS1_EE** %_T42931096_52344.addr, metadata !5769, metadata !4177), !dbg !5757
	call void @llvm.dbg.declare (metadata %struct._ZN5vmesh14MeshParametersE** %__p.addr, metadata !5770, metadata !4177), !dbg !5757
	store %struct._ZN5vmesh14MeshParametersE* %__p.arg, %struct._ZN5vmesh14MeshParametersE** %__p.addr, align 8, !tbaa !4185
	call void @llvm.dbg.declare (metadata %struct._ZN5vmesh14MeshParametersE** %__p.addr, metadata !5771, metadata !4177), !dbg !5757
	call void @llvm.dbg.declare (metadata i64* %__n.addr, metadata !5772, metadata !4177), !dbg !5757
	store i64 %__n.arg, i64* %__n.addr, align 8, !tbaa !4184
	call void @llvm.dbg.declare (metadata i64* %__n.addr, metadata !5773, metadata !4177), !dbg !5757
	%0 = load %struct._ZN5vmesh14MeshParametersE*, %struct._ZN5vmesh14MeshParametersE** %__p.addr, align 8, !tbaa !4185, !dbg !5774
	%1 = bitcast %struct._ZN5vmesh14MeshParametersE*  %0 to i8*, !dbg !5774
	%2 = icmp eq i8*  %1,  null, !dbg !5774
	br i1  %2, label %L.B0017, label %L.B1496, !dbg !5774
L.B1496:
	%3 = bitcast %struct._ZN5vmesh14MeshParametersE*  %0 to i8*, !dbg !5775
	%4 = bitcast %struct._ZN5vmesh14MeshParametersE** %..inline.addr to i8**, !dbg !5775
	store i8*  %3, i8**  %4, align 8, !tbaa !4185, !dbg !5775
	%5 = load %struct._ZN5vmesh14MeshParametersE*, %struct._ZN5vmesh14MeshParametersE** %..inline.addr, align 8, !tbaa !4185, !dbg !5775
	%6 = bitcast %struct._ZN5vmesh14MeshParametersE*  %5 to i8*, !dbg !5775
	call void  @_ZdlPv (i8*  %6) nounwind, !dbg !5775
	br label %L.B0017
L.B0017:
	ret void, !dbg !5776
}
define linkonce_odr void @_ZNSt12_Vector_baseIN5vmesh14MeshParametersESaIS1_EE17_Vector_impl_dataC1Ev(%struct._ZNSt12_Vector_baseIN5vmesh14MeshParametersESaIS1_EE17_Vector_impl_dataE* %_T42931096_52345.arg) #0 inlinehint !dbg !5781 {
L.entry:
	%_T42931096_52345.addr = alloca %struct._ZNSt12_Vector_baseIN5vmesh14MeshParametersESaIS1_EE17_Vector_impl_dataE*, align 8

	call void @llvm.dbg.declare (metadata %struct._ZNSt12_Vector_baseIN5vmesh14MeshParametersESaIS1_EE17_Vector_impl_dataE** %_T42931096_52345.addr, metadata !5785, metadata !4177), !dbg !5782
	store %struct._ZNSt12_Vector_baseIN5vmesh14MeshParametersESaIS1_EE17_Vector_impl_dataE* %_T42931096_52345.arg, %struct._ZNSt12_Vector_baseIN5vmesh14MeshParametersESaIS1_EE17_Vector_impl_dataE** %_T42931096_52345.addr, align 8, !tbaa !4185
	call void @llvm.dbg.declare (metadata %struct._ZNSt12_Vector_baseIN5vmesh14MeshParametersESaIS1_EE17_Vector_impl_dataE** %_T42931096_52345.addr, metadata !5786, metadata !4177), !dbg !5782
	%0 = load %struct._ZNSt12_Vector_baseIN5vmesh14MeshParametersESaIS1_EE17_Vector_impl_dataE*, %struct._ZNSt12_Vector_baseIN5vmesh14MeshParametersESaIS1_EE17_Vector_impl_dataE** %_T42931096_52345.addr, align 8, !tbaa !4185, !dbg !5787
	%1 = bitcast %struct._ZNSt12_Vector_baseIN5vmesh14MeshParametersESaIS1_EE17_Vector_impl_dataE*  %0 to i8**, !dbg !5787
	store i8* null, i8**  %1, align 8, !tbaa !4185, !dbg !5787
	%2 = bitcast %struct._ZNSt12_Vector_baseIN5vmesh14MeshParametersESaIS1_EE17_Vector_impl_dataE*  %0 to i8*, !dbg !5787
	%3 = getelementptr i8, i8*  %2, i64 8, !dbg !5787
	%4 = bitcast i8*  %3 to i8**, !dbg !5787
	store i8* null, i8**  %4, align 8, !tbaa !4185, !dbg !5787
	%5 = getelementptr i8, i8*  %2, i64 16, !dbg !5787
	%6 = bitcast i8*  %5 to i8**, !dbg !5787
	store i8* null, i8**  %6, align 8, !tbaa !4185, !dbg !5787
	ret void, !dbg !5787
}
define linkonce_odr void @_ZNSt12_Vector_baseIN5vmesh14MeshParametersESaIS1_EE17_Vector_impl_dataC2Ev(%struct._ZNSt12_Vector_baseIN5vmesh14MeshParametersESaIS1_EE17_Vector_impl_dataE* %_T42931096_52346.arg) #0 inlinehint !dbg !5789 {
L.entry:
	%_T42931096_52346.addr = alloca %struct._ZNSt12_Vector_baseIN5vmesh14MeshParametersESaIS1_EE17_Vector_impl_dataE*, align 8
	%..inline.addr = alloca %struct._ZNSt12_Vector_baseIN5vmesh14MeshParametersESaIS1_EE17_Vector_impl_dataE*, align 8

	store %struct._ZNSt12_Vector_baseIN5vmesh14MeshParametersESaIS1_EE17_Vector_impl_dataE* %_T42931096_52346.arg, %struct._ZNSt12_Vector_baseIN5vmesh14MeshParametersESaIS1_EE17_Vector_impl_dataE** %_T42931096_52346.addr, align 8, !tbaa !4185
	%0 = load %struct._ZNSt12_Vector_baseIN5vmesh14MeshParametersESaIS1_EE17_Vector_impl_dataE*, %struct._ZNSt12_Vector_baseIN5vmesh14MeshParametersESaIS1_EE17_Vector_impl_dataE** %_T42931096_52346.addr, align 8, !tbaa !4185, !dbg !5797
	%1 = bitcast %struct._ZNSt12_Vector_baseIN5vmesh14MeshParametersESaIS1_EE17_Vector_impl_dataE*  %0 to i8*, !dbg !5797
	%2 = bitcast %struct._ZNSt12_Vector_baseIN5vmesh14MeshParametersESaIS1_EE17_Vector_impl_dataE** %..inline.addr to i8**, !dbg !5797
	store i8*  %1, i8**  %2, align 8, !tbaa !4185, !dbg !5797
	%3 = load %struct._ZNSt12_Vector_baseIN5vmesh14MeshParametersESaIS1_EE17_Vector_impl_dataE*, %struct._ZNSt12_Vector_baseIN5vmesh14MeshParametersESaIS1_EE17_Vector_impl_dataE** %..inline.addr, align 8, !tbaa !4185, !dbg !5797
	%4 = bitcast %struct._ZNSt12_Vector_baseIN5vmesh14MeshParametersESaIS1_EE17_Vector_impl_dataE*  %3 to i8**, !dbg !5797
	store i8* null, i8**  %4, align 8, !tbaa !4185, !dbg !5797
	%5 = bitcast %struct._ZNSt12_Vector_baseIN5vmesh14MeshParametersESaIS1_EE17_Vector_impl_dataE*  %3 to i8*, !dbg !5797
	%6 = getelementptr i8, i8*  %5, i64 8, !dbg !5797
	%7 = bitcast i8*  %6 to i8**, !dbg !5797
	store i8* null, i8**  %7, align 8, !tbaa !4185, !dbg !5797
	%8 = getelementptr i8, i8*  %5, i64 16, !dbg !5797
	%9 = bitcast i8*  %8 to i8**, !dbg !5797
	store i8* null, i8**  %9, align 8, !tbaa !4185, !dbg !5797
	ret void, !dbg !5797
}
define linkonce_odr void @_ZNSt12_Vector_baseIN5vmesh14MeshParametersESaIS1_EE12_Vector_implC1Ev(%struct._ZNSt12_Vector_baseIN5vmesh14MeshParametersESaIS1_EE12_Vector_implE* %_T42931096_52347.arg) #0 inlinehint !dbg !5802 {
L.entry:
	%_T42931096_52347.addr = alloca %struct._ZNSt12_Vector_baseIN5vmesh14MeshParametersESaIS1_EE12_Vector_implE*, align 8
	%..inline.addr = alloca %struct._ZNSt12_Vector_baseIN5vmesh14MeshParametersESaIS1_EE17_Vector_impl_dataE*, align 8

	call void @llvm.dbg.declare (metadata %struct._ZNSt12_Vector_baseIN5vmesh14MeshParametersESaIS1_EE12_Vector_implE** %_T42931096_52347.addr, metadata !5814, metadata !4177), !dbg !5803
	store %struct._ZNSt12_Vector_baseIN5vmesh14MeshParametersESaIS1_EE12_Vector_implE* %_T42931096_52347.arg, %struct._ZNSt12_Vector_baseIN5vmesh14MeshParametersESaIS1_EE12_Vector_implE** %_T42931096_52347.addr, align 8, !tbaa !4185
	call void @llvm.dbg.declare (metadata %struct._ZNSt12_Vector_baseIN5vmesh14MeshParametersESaIS1_EE12_Vector_implE** %_T42931096_52347.addr, metadata !5815, metadata !4177), !dbg !5803
	%0 = load %struct._ZNSt12_Vector_baseIN5vmesh14MeshParametersESaIS1_EE12_Vector_implE*, %struct._ZNSt12_Vector_baseIN5vmesh14MeshParametersESaIS1_EE12_Vector_implE** %_T42931096_52347.addr, align 8, !tbaa !4185, !dbg !5816
	%1 = bitcast %struct._ZNSt12_Vector_baseIN5vmesh14MeshParametersESaIS1_EE12_Vector_implE*  %0 to i8*, !dbg !5816
	%2 = bitcast %struct._ZNSt12_Vector_baseIN5vmesh14MeshParametersESaIS1_EE17_Vector_impl_dataE** %..inline.addr to i8**, !dbg !5816
	store i8*  %1, i8**  %2, align 8, !tbaa !4185, !dbg !5816
	%3 = load %struct._ZNSt12_Vector_baseIN5vmesh14MeshParametersESaIS1_EE17_Vector_impl_dataE*, %struct._ZNSt12_Vector_baseIN5vmesh14MeshParametersESaIS1_EE17_Vector_impl_dataE** %..inline.addr, align 8, !tbaa !4185, !dbg !5816
	%4 = bitcast %struct._ZNSt12_Vector_baseIN5vmesh14MeshParametersESaIS1_EE17_Vector_impl_dataE*  %3 to i8**, !dbg !5816
	store i8* null, i8**  %4, align 8, !tbaa !4185, !dbg !5816
	%5 = bitcast %struct._ZNSt12_Vector_baseIN5vmesh14MeshParametersESaIS1_EE17_Vector_impl_dataE*  %3 to i8*, !dbg !5817
	%6 = getelementptr i8, i8*  %5, i64 8, !dbg !5817
	%7 = bitcast i8*  %6 to i8**, !dbg !5817
	store i8* null, i8**  %7, align 8, !tbaa !4185, !dbg !5817
	%8 = getelementptr i8, i8*  %5, i64 16, !dbg !5817
	%9 = bitcast i8*  %8 to i8**, !dbg !5817
	store i8* null, i8**  %9, align 8, !tbaa !4185, !dbg !5817
	ret void, !dbg !5816
}
define linkonce_odr void @_ZNSt12_Vector_baseIN5vmesh14MeshParametersESaIS1_EE12_Vector_implC2Ev(%struct._ZNSt12_Vector_baseIN5vmesh14MeshParametersESaIS1_EE12_Vector_implE* %_T42931096_52348.arg) #0 inlinehint !dbg !5819 {
L.entry:
	%_T42931096_52348.addr = alloca %struct._ZNSt12_Vector_baseIN5vmesh14MeshParametersESaIS1_EE12_Vector_implE*, align 8
	%..inline.addr = alloca %struct._ZNSt12_Vector_baseIN5vmesh14MeshParametersESaIS1_EE17_Vector_impl_dataE*, align 8

	store %struct._ZNSt12_Vector_baseIN5vmesh14MeshParametersESaIS1_EE12_Vector_implE* %_T42931096_52348.arg, %struct._ZNSt12_Vector_baseIN5vmesh14MeshParametersESaIS1_EE12_Vector_implE** %_T42931096_52348.addr, align 8, !tbaa !4185
	%0 = load %struct._ZNSt12_Vector_baseIN5vmesh14MeshParametersESaIS1_EE12_Vector_implE*, %struct._ZNSt12_Vector_baseIN5vmesh14MeshParametersESaIS1_EE12_Vector_implE** %_T42931096_52348.addr, align 8, !tbaa !4185, !dbg !5835
	%1 = bitcast %struct._ZNSt12_Vector_baseIN5vmesh14MeshParametersESaIS1_EE12_Vector_implE*  %0 to i8*, !dbg !5835
	%2 = bitcast %struct._ZNSt12_Vector_baseIN5vmesh14MeshParametersESaIS1_EE17_Vector_impl_dataE** %..inline.addr to i8**, !dbg !5835
	store i8*  %1, i8**  %2, align 8, !tbaa !4185, !dbg !5835
	%3 = load %struct._ZNSt12_Vector_baseIN5vmesh14MeshParametersESaIS1_EE17_Vector_impl_dataE*, %struct._ZNSt12_Vector_baseIN5vmesh14MeshParametersESaIS1_EE17_Vector_impl_dataE** %..inline.addr, align 8, !tbaa !4185, !dbg !5835
	%4 = bitcast %struct._ZNSt12_Vector_baseIN5vmesh14MeshParametersESaIS1_EE17_Vector_impl_dataE*  %3 to i8**, !dbg !5835
	store i8* null, i8**  %4, align 8, !tbaa !4185, !dbg !5835
	%5 = bitcast %struct._ZNSt12_Vector_baseIN5vmesh14MeshParametersESaIS1_EE17_Vector_impl_dataE*  %3 to i8*, !dbg !5835
	%6 = getelementptr i8, i8*  %5, i64 8, !dbg !5835
	%7 = bitcast i8*  %6 to i8**, !dbg !5835
	store i8* null, i8**  %7, align 8, !tbaa !4185, !dbg !5835
	%8 = getelementptr i8, i8*  %5, i64 16, !dbg !5835
	%9 = bitcast i8*  %8 to i8**, !dbg !5835
	store i8* null, i8**  %9, align 8, !tbaa !4185, !dbg !5835
	ret void, !dbg !5835
}
define linkonce_odr void @_ZNSt12_Vector_baseIN5vmesh14MeshParametersESaIS1_EE12_Vector_implD1Ev(%struct._ZNSt12_Vector_baseIN5vmesh14MeshParametersESaIS1_EE12_Vector_implE* %_T42931096_52349.arg) #0 inlinehint !dbg !5837 {
L.entry:
	%_T42931096_52349.addr = alloca %struct._ZNSt12_Vector_baseIN5vmesh14MeshParametersESaIS1_EE12_Vector_implE*, align 8

	call void @llvm.dbg.declare (metadata %struct._ZNSt12_Vector_baseIN5vmesh14MeshParametersESaIS1_EE12_Vector_implE** %_T42931096_52349.addr, metadata !5849, metadata !4177), !dbg !5838
	store %struct._ZNSt12_Vector_baseIN5vmesh14MeshParametersESaIS1_EE12_Vector_implE* %_T42931096_52349.arg, %struct._ZNSt12_Vector_baseIN5vmesh14MeshParametersESaIS1_EE12_Vector_implE** %_T42931096_52349.addr, align 8, !tbaa !4185
	call void @llvm.dbg.declare (metadata %struct._ZNSt12_Vector_baseIN5vmesh14MeshParametersESaIS1_EE12_Vector_implE** %_T42931096_52349.addr, metadata !5850, metadata !4177), !dbg !5838
	ret void, !dbg !5851
}
define linkonce_odr void @_ZNSt12_Vector_baseIN5vmesh14MeshParametersESaIS1_EE12_Vector_implD2Ev(%struct._ZNSt12_Vector_baseIN5vmesh14MeshParametersESaIS1_EE12_Vector_implE* %_T42931096_52350.arg) #0 inlinehint !dbg !5853 {
L.entry:
	%_T42931096_52350.addr = alloca %struct._ZNSt12_Vector_baseIN5vmesh14MeshParametersESaIS1_EE12_Vector_implE*, align 8

	store %struct._ZNSt12_Vector_baseIN5vmesh14MeshParametersESaIS1_EE12_Vector_implE* %_T42931096_52350.arg, %struct._ZNSt12_Vector_baseIN5vmesh14MeshParametersESaIS1_EE12_Vector_implE** %_T42931096_52350.addr, align 8, !tbaa !4185
	ret void, !dbg !5869
}

%struct._ZSt6vectorIN5vmesh14MeshParametersESaIS1_EE = type <{ %struct._ZSt12_Vector_baseIN5vmesh14MeshParametersESaIS1_EE}> 

define linkonce_odr void @_ZNSt6vectorIN5vmesh14MeshParametersESaIS1_EEC1Ev(%struct._ZSt6vectorIN5vmesh14MeshParametersESaIS1_EE* %_T42931096_52351.arg) #0 inlinehint !dbg !5874 {
L.entry:
	%_T42931096_52351.addr = alloca %struct._ZSt6vectorIN5vmesh14MeshParametersESaIS1_EE*, align 8
	%..inline.addr = alloca %struct._ZNSt12_Vector_baseIN5vmesh14MeshParametersESaIS1_EE17_Vector_impl_dataE*, align 8

	call void @llvm.dbg.declare (metadata %struct._ZSt6vectorIN5vmesh14MeshParametersESaIS1_EE** %_T42931096_52351.addr, metadata !5898, metadata !4177), !dbg !5875
	store %struct._ZSt6vectorIN5vmesh14MeshParametersESaIS1_EE* %_T42931096_52351.arg, %struct._ZSt6vectorIN5vmesh14MeshParametersESaIS1_EE** %_T42931096_52351.addr, align 8, !tbaa !4185
	call void @llvm.dbg.declare (metadata %struct._ZSt6vectorIN5vmesh14MeshParametersESaIS1_EE** %_T42931096_52351.addr, metadata !5899, metadata !4177), !dbg !5875
	%0 = load %struct._ZSt6vectorIN5vmesh14MeshParametersESaIS1_EE*, %struct._ZSt6vectorIN5vmesh14MeshParametersESaIS1_EE** %_T42931096_52351.addr, align 8, !tbaa !4185, !dbg !5900
	%1 = bitcast %struct._ZSt6vectorIN5vmesh14MeshParametersESaIS1_EE*  %0 to i8*, !dbg !5900
	%2 = bitcast %struct._ZNSt12_Vector_baseIN5vmesh14MeshParametersESaIS1_EE17_Vector_impl_dataE** %..inline.addr to i8**, !dbg !5900
	store i8*  %1, i8**  %2, align 8, !tbaa !4185, !dbg !5900
	%3 = load %struct._ZNSt12_Vector_baseIN5vmesh14MeshParametersESaIS1_EE17_Vector_impl_dataE*, %struct._ZNSt12_Vector_baseIN5vmesh14MeshParametersESaIS1_EE17_Vector_impl_dataE** %..inline.addr, align 8, !tbaa !4185, !dbg !5900
	%4 = bitcast %struct._ZNSt12_Vector_baseIN5vmesh14MeshParametersESaIS1_EE17_Vector_impl_dataE*  %3 to i8**, !dbg !5900
	store i8* null, i8**  %4, align 8, !tbaa !4185, !dbg !5900
	%5 = bitcast %struct._ZNSt12_Vector_baseIN5vmesh14MeshParametersESaIS1_EE17_Vector_impl_dataE*  %3 to i8*, !dbg !5900
	%6 = getelementptr i8, i8*  %5, i64 8, !dbg !5900
	%7 = bitcast i8*  %6 to i8**, !dbg !5900
	store i8* null, i8**  %7, align 8, !tbaa !4185, !dbg !5900
	%8 = getelementptr i8, i8*  %5, i64 16, !dbg !5900
	%9 = bitcast i8*  %8 to i8**, !dbg !5900
	store i8* null, i8**  %9, align 8, !tbaa !4185, !dbg !5900
	ret void, !dbg !5900
}
define linkonce_odr void @_ZNSt6vectorIN5vmesh14MeshParametersESaIS1_EEC2Ev(%struct._ZSt6vectorIN5vmesh14MeshParametersESaIS1_EE* %_T42931096_52352.arg) #0 inlinehint !dbg !5902 {
L.entry:
	%_T42931096_52352.addr = alloca %struct._ZSt6vectorIN5vmesh14MeshParametersESaIS1_EE*, align 8
	%..inline.addr = alloca %struct._ZNSt12_Vector_baseIN5vmesh14MeshParametersESaIS1_EE17_Vector_impl_dataE*, align 8

	store %struct._ZSt6vectorIN5vmesh14MeshParametersESaIS1_EE* %_T42931096_52352.arg, %struct._ZSt6vectorIN5vmesh14MeshParametersESaIS1_EE** %_T42931096_52352.addr, align 8, !tbaa !4185
	%0 = load %struct._ZSt6vectorIN5vmesh14MeshParametersESaIS1_EE*, %struct._ZSt6vectorIN5vmesh14MeshParametersESaIS1_EE** %_T42931096_52352.addr, align 8, !tbaa !4185, !dbg !5930
	%1 = bitcast %struct._ZSt6vectorIN5vmesh14MeshParametersESaIS1_EE*  %0 to i8*, !dbg !5930
	%2 = bitcast %struct._ZNSt12_Vector_baseIN5vmesh14MeshParametersESaIS1_EE17_Vector_impl_dataE** %..inline.addr to i8**, !dbg !5930
	store i8*  %1, i8**  %2, align 8, !tbaa !4185, !dbg !5930
	%3 = load %struct._ZNSt12_Vector_baseIN5vmesh14MeshParametersESaIS1_EE17_Vector_impl_dataE*, %struct._ZNSt12_Vector_baseIN5vmesh14MeshParametersESaIS1_EE17_Vector_impl_dataE** %..inline.addr, align 8, !tbaa !4185, !dbg !5930
	%4 = bitcast %struct._ZNSt12_Vector_baseIN5vmesh14MeshParametersESaIS1_EE17_Vector_impl_dataE*  %3 to i8**, !dbg !5930
	store i8* null, i8**  %4, align 8, !tbaa !4185, !dbg !5930
	%5 = bitcast %struct._ZNSt12_Vector_baseIN5vmesh14MeshParametersESaIS1_EE17_Vector_impl_dataE*  %3 to i8*, !dbg !5930
	%6 = getelementptr i8, i8*  %5, i64 8, !dbg !5930
	%7 = bitcast i8*  %6 to i8**, !dbg !5930
	store i8* null, i8**  %7, align 8, !tbaa !4185, !dbg !5930
	%8 = getelementptr i8, i8*  %5, i64 16, !dbg !5930
	%9 = bitcast i8*  %8 to i8**, !dbg !5930
	store i8* null, i8**  %9, align 8, !tbaa !4185, !dbg !5930
	ret void, !dbg !5930
}
define linkonce_odr void @_ZNSt6vectorIN5vmesh14MeshParametersESaIS1_EED1Ev(%struct._ZSt6vectorIN5vmesh14MeshParametersESaIS1_EE* %_T42931096_52353.arg) #0 inlinehint !dbg !5932 {
L.entry:
	%_T42931096_52353.addr = alloca %struct._ZSt6vectorIN5vmesh14MeshParametersESaIS1_EE*, align 8
	%..inline.addr = alloca %struct._ZN5vmesh14MeshParametersE*, align 8
	%..inline.addr.1 = alloca %struct._ZN5vmesh14MeshParametersE*, align 8
	%.lcr4472705.addr = alloca i8*, align 8
	%..inline.addr.2 = alloca %struct._ZN5vmesh14MeshParametersE*, align 8
	%..inline.addr.3 = alloca %struct._ZSt12_Vector_baseIN5vmesh14MeshParametersESaIS1_EE*, align 8
	%..inline.addr.4 = alloca %struct._ZN5vmesh14MeshParametersE*, align 8

	call void @llvm.dbg.declare (metadata %struct._ZSt6vectorIN5vmesh14MeshParametersESaIS1_EE** %_T42931096_52353.addr, metadata !5992, metadata !4177), !dbg !5933
	store %struct._ZSt6vectorIN5vmesh14MeshParametersESaIS1_EE* %_T42931096_52353.arg, %struct._ZSt6vectorIN5vmesh14MeshParametersESaIS1_EE** %_T42931096_52353.addr, align 8, !tbaa !4185
	call void @llvm.dbg.declare (metadata %struct._ZSt6vectorIN5vmesh14MeshParametersESaIS1_EE** %_T42931096_52353.addr, metadata !5993, metadata !4177), !dbg !5933
	%0 = load %struct._ZSt6vectorIN5vmesh14MeshParametersESaIS1_EE*, %struct._ZSt6vectorIN5vmesh14MeshParametersESaIS1_EE** %_T42931096_52353.addr, align 8, !tbaa !4185, !dbg !5994
	%1 = bitcast %struct._ZSt6vectorIN5vmesh14MeshParametersESaIS1_EE*  %0 to i8**, !dbg !5994
	%2 = load i8*, i8**  %1, align 8, !tbaa !4185, !dbg !5994
	%3 = bitcast %struct._ZN5vmesh14MeshParametersE** %..inline.addr to i8**, !dbg !5994
	store i8*  %2, i8**  %3, align 8, !tbaa !4185, !dbg !5994
	%4 = bitcast %struct._ZSt6vectorIN5vmesh14MeshParametersESaIS1_EE*  %0 to i8*, !dbg !5994
	%5 = getelementptr i8, i8*  %4, i64 8, !dbg !5994
	%6 = bitcast i8*  %5 to i8**, !dbg !5994
	%7 = load i8*, i8**  %6, align 8, !tbaa !4185, !dbg !5994
	%8 = bitcast %struct._ZN5vmesh14MeshParametersE** %..inline.addr.1 to i8**, !dbg !5994
	store i8*  %7, i8**  %8, align 8, !tbaa !4185, !dbg !5994
	%9 = load %struct._ZN5vmesh14MeshParametersE*, %struct._ZN5vmesh14MeshParametersE** %..inline.addr, align 8, !tbaa !4185, !dbg !5994
	%10 = bitcast %struct._ZN5vmesh14MeshParametersE*  %9 to i8*, !dbg !5994
	%11 = load %struct._ZN5vmesh14MeshParametersE*, %struct._ZN5vmesh14MeshParametersE** %..inline.addr.1, align 8, !tbaa !4185, !dbg !5994
	%12 = bitcast %struct._ZN5vmesh14MeshParametersE*  %11 to i8*, !dbg !5994
	%13 = icmp eq i8*  %10,  %12, !dbg !5994
	br i1  %13, label %L..inline.72800, label %L.B1517, !dbg !5994
L.B1517:
	%14 = bitcast %struct._ZN5vmesh14MeshParametersE*  %9 to i8*, !dbg !5994
	%15 = bitcast %struct._ZN5vmesh14MeshParametersE*  %11 to i8*, !dbg !5994
	%16 = ptrtoint i8*  %14 to i64, !dbg !5994
	%17 = sub i64 0,  %16, !dbg !5994
	%18 = getelementptr i8, i8*  %15, i64  %17, !dbg !5994
	%19 = ptrtoint i8*  %18 to i64, !dbg !5994
	%20 = add i64  %19, 335, !dbg !5994
	%21 = sub i64 0,  %16, !dbg !5994
	%22 = getelementptr i8, i8*  %15, i64  %21, !dbg !5994
	%23 = ptrtoint i8*  %22 to i64, !dbg !5994
	%24 = add i64  %23, 335, !dbg !5994
	%25 = sext i64 -4392081922311798003 to i128, !dbg !5994
	%26 = sext i64  %24 to i128, !dbg !5994
	%27 = mul i128  %25,  %26, !dbg !5994
	%28 = ashr i128  %27, 64, !dbg !5994
	%29 = trunc i128  %28 to i64, !dbg !5994
	%30 = add i64  %20,  %29, !dbg !5994
	%31 = sext i32 8 to i64, !dbg !5994
	%32 = ashr i64  %30,  %31, !dbg !5994
	%33 = sub i64 0,  %16, !dbg !5994
	%34 = getelementptr i8, i8*  %15, i64  %33, !dbg !5994
	%35 = ptrtoint i8*  %34 to i64, !dbg !5994
	%36 = add i64  %35, 335, !dbg !5994
	%37 = sext i32 63 to i64, !dbg !5994
	%38 = ashr i64  %36,  %37, !dbg !5994
	%39 = sub i64  %32,  %38, !dbg !5994
	%40 = mul i64  %39, 336, !dbg !5994
	%41 = getelementptr i8, i8*  %14, i64  %40, !dbg !5994
	store i8*  %41, i8** %.lcr4472705.addr, align 8, !tbaa !4185, !dbg !5994
	br label %L..inline.72799
L..inline.72799:
	%42 = load %struct._ZN5vmesh14MeshParametersE*, %struct._ZN5vmesh14MeshParametersE** %..inline.addr, align 8, !tbaa !4185, !dbg !5994
	%43 = bitcast %struct._ZN5vmesh14MeshParametersE*  %42 to i8*, !dbg !5994
	%44 = bitcast %struct._ZN5vmesh14MeshParametersE** %..inline.addr.2 to i8**, !dbg !5994
	store i8*  %43, i8**  %44, align 8, !tbaa !4185, !dbg !5994
	%45 = load %struct._ZN5vmesh14MeshParametersE*, %struct._ZN5vmesh14MeshParametersE** %..inline.addr.2, align 8, !tbaa !4185, !dbg !5994
	call void  @_ZN5vmesh14MeshParametersD1Ev (%struct._ZN5vmesh14MeshParametersE*  %45) nounwind, !dbg !5994
	%46 = load %struct._ZN5vmesh14MeshParametersE*, %struct._ZN5vmesh14MeshParametersE** %..inline.addr, align 8, !tbaa !4185, !dbg !5994
	%47 = bitcast %struct._ZN5vmesh14MeshParametersE*  %46 to i8*, !dbg !5994
	%48 = getelementptr i8, i8*  %47, i64 336, !dbg !5994
	%49 = bitcast %struct._ZN5vmesh14MeshParametersE** %..inline.addr to i8**, !dbg !5994
	store i8*  %48, i8**  %49, align 8, !tbaa !4185, !dbg !5994
	%50 = load %struct._ZN5vmesh14MeshParametersE*, %struct._ZN5vmesh14MeshParametersE** %..inline.addr, align 8, !tbaa !4185, !dbg !5994
	%51 = bitcast %struct._ZN5vmesh14MeshParametersE*  %50 to i8*, !dbg !5994
	%52 = load i8*, i8** %.lcr4472705.addr, align 8, !tbaa !4185, !dbg !5994
	%53 = icmp ult i8*  %51,  %52, !dbg !5994
	br i1  %53, label %L..inline.72799, label %L..inline.72800, !dbg !5994
L..inline.72800:
	%54 = load %struct._ZSt6vectorIN5vmesh14MeshParametersESaIS1_EE*, %struct._ZSt6vectorIN5vmesh14MeshParametersESaIS1_EE** %_T42931096_52353.addr, align 8, !tbaa !4185, !dbg !5995
	%55 = bitcast %struct._ZSt6vectorIN5vmesh14MeshParametersESaIS1_EE*  %54 to i8*, !dbg !5995
	%56 = bitcast %struct._ZSt12_Vector_baseIN5vmesh14MeshParametersESaIS1_EE** %..inline.addr.3 to i8**, !dbg !5995
	store i8*  %55, i8**  %56, align 8, !tbaa !4185, !dbg !5995
	%57 = load %struct._ZSt12_Vector_baseIN5vmesh14MeshParametersESaIS1_EE*, %struct._ZSt12_Vector_baseIN5vmesh14MeshParametersESaIS1_EE** %..inline.addr.3, align 8, !tbaa !4185, !dbg !5996
	%58 = bitcast %struct._ZSt12_Vector_baseIN5vmesh14MeshParametersESaIS1_EE*  %57 to i8**, !dbg !5996
	%59 = load i8*, i8**  %58, align 8, !tbaa !4185, !dbg !5996
	%60 = icmp eq i8*  %59,  null, !dbg !5996
	br i1  %60, label %L..inline.72832, label %L.B1518, !dbg !5996
L.B1518:
	%61 = bitcast %struct._ZSt12_Vector_baseIN5vmesh14MeshParametersESaIS1_EE*  %57 to i8**, !dbg !5996
	%62 = load i8*, i8**  %61, align 8, !tbaa !4185, !dbg !5996
	%63 = bitcast %struct._ZN5vmesh14MeshParametersE** %..inline.addr.4 to i8**, !dbg !5996
	store i8*  %62, i8**  %63, align 8, !tbaa !4185, !dbg !5996
	%64 = load %struct._ZN5vmesh14MeshParametersE*, %struct._ZN5vmesh14MeshParametersE** %..inline.addr.4, align 8, !tbaa !4185, !dbg !5996
	%65 = bitcast %struct._ZN5vmesh14MeshParametersE*  %64 to i8*, !dbg !5996
	call void  @_ZdlPv (i8*  %65) nounwind, !dbg !5996
	br label %L..inline.72832
L..inline.72832:
	ret void, !dbg !5995
}
define linkonce_odr void @_ZNSt6vectorIN5vmesh14MeshParametersESaIS1_EED2Ev(%struct._ZSt6vectorIN5vmesh14MeshParametersESaIS1_EE* %_T42931096_52354.arg) #0 inlinehint !dbg !5998 {
L.entry:
	%_T42931096_52354.addr = alloca %struct._ZSt6vectorIN5vmesh14MeshParametersESaIS1_EE*, align 8
	%..inline.addr = alloca %struct._ZSt6vectorIN5vmesh14MeshParametersESaIS1_EE*, align 8
	%..inline.addr.1 = alloca %struct._ZN5vmesh14MeshParametersE*, align 8
	%..inline.addr.2 = alloca %struct._ZN5vmesh14MeshParametersE*, align 8
	%.lcr4473729.addr = alloca i8*, align 8
	%..inline.addr.3 = alloca %struct._ZN5vmesh14MeshParametersE*, align 8
	%..inline.addr.4 = alloca %struct._ZN5vmesh14MeshParametersE*, align 8

	store %struct._ZSt6vectorIN5vmesh14MeshParametersESaIS1_EE* %_T42931096_52354.arg, %struct._ZSt6vectorIN5vmesh14MeshParametersESaIS1_EE** %_T42931096_52354.addr, align 8, !tbaa !4185
	%0 = load %struct._ZSt6vectorIN5vmesh14MeshParametersESaIS1_EE*, %struct._ZSt6vectorIN5vmesh14MeshParametersESaIS1_EE** %_T42931096_52354.addr, align 8, !tbaa !4185, !dbg !6062
	%1 = bitcast %struct._ZSt6vectorIN5vmesh14MeshParametersESaIS1_EE*  %0 to i8*, !dbg !6062
	%2 = bitcast %struct._ZSt6vectorIN5vmesh14MeshParametersESaIS1_EE** %..inline.addr to i8**, !dbg !6062
	store i8*  %1, i8**  %2, align 8, !tbaa !4185, !dbg !6062
	%3 = load %struct._ZSt6vectorIN5vmesh14MeshParametersESaIS1_EE*, %struct._ZSt6vectorIN5vmesh14MeshParametersESaIS1_EE** %..inline.addr, align 8, !tbaa !4185, !dbg !6063
	%4 = bitcast %struct._ZSt6vectorIN5vmesh14MeshParametersESaIS1_EE*  %3 to i8**, !dbg !6063
	%5 = load i8*, i8**  %4, align 8, !tbaa !4185, !dbg !6063
	%6 = bitcast %struct._ZN5vmesh14MeshParametersE** %..inline.addr.1 to i8**, !dbg !6063
	store i8*  %5, i8**  %6, align 8, !tbaa !4185, !dbg !6063
	%7 = bitcast %struct._ZSt6vectorIN5vmesh14MeshParametersESaIS1_EE*  %3 to i8*, !dbg !6063
	%8 = getelementptr i8, i8*  %7, i64 8, !dbg !6063
	%9 = bitcast i8*  %8 to i8**, !dbg !6063
	%10 = load i8*, i8**  %9, align 8, !tbaa !4185, !dbg !6063
	%11 = bitcast %struct._ZN5vmesh14MeshParametersE** %..inline.addr.2 to i8**, !dbg !6063
	store i8*  %10, i8**  %11, align 8, !tbaa !4185, !dbg !6063
	%12 = load %struct._ZN5vmesh14MeshParametersE*, %struct._ZN5vmesh14MeshParametersE** %..inline.addr.1, align 8, !tbaa !4185, !dbg !6063
	%13 = bitcast %struct._ZN5vmesh14MeshParametersE*  %12 to i8*, !dbg !6063
	%14 = load %struct._ZN5vmesh14MeshParametersE*, %struct._ZN5vmesh14MeshParametersE** %..inline.addr.2, align 8, !tbaa !4185, !dbg !6063
	%15 = bitcast %struct._ZN5vmesh14MeshParametersE*  %14 to i8*, !dbg !6063
	%16 = icmp eq i8*  %13,  %15, !dbg !6063
	br i1  %16, label %L..inline.72931, label %L.B1521, !dbg !6063
L.B1521:
	%17 = bitcast %struct._ZN5vmesh14MeshParametersE*  %12 to i8*, !dbg !6063
	%18 = bitcast %struct._ZN5vmesh14MeshParametersE*  %14 to i8*, !dbg !6063
	%19 = ptrtoint i8*  %17 to i64, !dbg !6063
	%20 = sub i64 0,  %19, !dbg !6063
	%21 = getelementptr i8, i8*  %18, i64  %20, !dbg !6063
	%22 = ptrtoint i8*  %21 to i64, !dbg !6063
	%23 = add i64  %22, 335, !dbg !6063
	%24 = sub i64 0,  %19, !dbg !6063
	%25 = getelementptr i8, i8*  %18, i64  %24, !dbg !6063
	%26 = ptrtoint i8*  %25 to i64, !dbg !6063
	%27 = add i64  %26, 335, !dbg !6063
	%28 = sext i64 -4392081922311798003 to i128, !dbg !6063
	%29 = sext i64  %27 to i128, !dbg !6063
	%30 = mul i128  %28,  %29, !dbg !6063
	%31 = ashr i128  %30, 64, !dbg !6063
	%32 = trunc i128  %31 to i64, !dbg !6063
	%33 = add i64  %23,  %32, !dbg !6063
	%34 = sext i32 8 to i64, !dbg !6063
	%35 = ashr i64  %33,  %34, !dbg !6063
	%36 = sub i64 0,  %19, !dbg !6063
	%37 = getelementptr i8, i8*  %18, i64  %36, !dbg !6063
	%38 = ptrtoint i8*  %37 to i64, !dbg !6063
	%39 = add i64  %38, 335, !dbg !6063
	%40 = sext i32 63 to i64, !dbg !6063
	%41 = ashr i64  %39,  %40, !dbg !6063
	%42 = sub i64  %35,  %41, !dbg !6063
	%43 = mul i64  %42, 336, !dbg !6063
	%44 = getelementptr i8, i8*  %17, i64  %43, !dbg !6063
	store i8*  %44, i8** %.lcr4473729.addr, align 8, !tbaa !4185, !dbg !6063
	br label %L..inline.72930
L..inline.72930:
	%45 = load %struct._ZN5vmesh14MeshParametersE*, %struct._ZN5vmesh14MeshParametersE** %..inline.addr.1, align 8, !tbaa !4185, !dbg !6063
	%46 = bitcast %struct._ZN5vmesh14MeshParametersE*  %45 to i8*, !dbg !6063
	%47 = bitcast %struct._ZN5vmesh14MeshParametersE** %..inline.addr.3 to i8**, !dbg !6063
	store i8*  %46, i8**  %47, align 8, !tbaa !4185, !dbg !6063
	%48 = load %struct._ZN5vmesh14MeshParametersE*, %struct._ZN5vmesh14MeshParametersE** %..inline.addr.3, align 8, !tbaa !4185, !dbg !6063
	call void  @_ZN5vmesh14MeshParametersD1Ev (%struct._ZN5vmesh14MeshParametersE*  %48) nounwind, !dbg !6063
	%49 = load %struct._ZN5vmesh14MeshParametersE*, %struct._ZN5vmesh14MeshParametersE** %..inline.addr.1, align 8, !tbaa !4185, !dbg !6063
	%50 = bitcast %struct._ZN5vmesh14MeshParametersE*  %49 to i8*, !dbg !6063
	%51 = getelementptr i8, i8*  %50, i64 336, !dbg !6063
	%52 = bitcast %struct._ZN5vmesh14MeshParametersE** %..inline.addr.1 to i8**, !dbg !6063
	store i8*  %51, i8**  %52, align 8, !tbaa !4185, !dbg !6063
	%53 = load %struct._ZN5vmesh14MeshParametersE*, %struct._ZN5vmesh14MeshParametersE** %..inline.addr.1, align 8, !tbaa !4185, !dbg !6063
	%54 = bitcast %struct._ZN5vmesh14MeshParametersE*  %53 to i8*, !dbg !6063
	%55 = load i8*, i8** %.lcr4473729.addr, align 8, !tbaa !4185, !dbg !6063
	%56 = icmp ult i8*  %54,  %55, !dbg !6063
	br i1  %56, label %L..inline.72930, label %L..inline.72931, !dbg !6063
L..inline.72931:
	%57 = load %struct._ZSt6vectorIN5vmesh14MeshParametersESaIS1_EE*, %struct._ZSt6vectorIN5vmesh14MeshParametersESaIS1_EE** %..inline.addr, align 8, !tbaa !4185, !dbg !6064
	%58 = bitcast %struct._ZSt6vectorIN5vmesh14MeshParametersESaIS1_EE*  %57 to i8**, !dbg !6064
	%59 = load i8*, i8**  %58, align 8, !tbaa !4185, !dbg !6064
	%60 = icmp eq i8*  %59,  null, !dbg !6064
	br i1  %60, label %L..inline.72961, label %L.B1522, !dbg !6064
L.B1522:
	%61 = bitcast %struct._ZSt6vectorIN5vmesh14MeshParametersESaIS1_EE*  %57 to i8**, !dbg !6064
	%62 = load i8*, i8**  %61, align 8, !tbaa !4185, !dbg !6064
	%63 = bitcast %struct._ZN5vmesh14MeshParametersE** %..inline.addr.4 to i8**, !dbg !6064
	store i8*  %62, i8**  %63, align 8, !tbaa !4185, !dbg !6064
	%64 = load %struct._ZN5vmesh14MeshParametersE*, %struct._ZN5vmesh14MeshParametersE** %..inline.addr.4, align 8, !tbaa !4185, !dbg !6064
	%65 = bitcast %struct._ZN5vmesh14MeshParametersE*  %64 to i8*, !dbg !6064
	call void  @_ZdlPv (i8*  %65) nounwind, !dbg !6064
	br label %L..inline.72961
L..inline.72961:
	ret void, !dbg !6064
}
define linkonce_odr double* @_ZNSt14__array_traitsIdLm59EE6_S_ptrERA59_Kd([59 x double]* %__t.arg) #0 inlinehint !dbg !6069 {
L.entry:
	%__t.addr = alloca [59 x double]*, align 8

	call void @llvm.dbg.declare (metadata [59 x double]** %__t.addr, metadata !6073, metadata !4177), !dbg !6070
	store [59 x double]* %__t.arg, [59 x double]** %__t.addr, align 8, !tbaa !4185
	call void @llvm.dbg.declare (metadata [59 x double]** %__t.addr, metadata !6074, metadata !4177), !dbg !6070
	%0 = load [59 x double]*, [59 x double]** %__t.addr, align 8, !tbaa !4185, !dbg !6075
	%1 = bitcast [59 x double]*  %0 to double*, !dbg !6075
	ret double*  %1, !dbg !6075
}

%struct._ZSt5arrayIdLm59EE = type <{ [59 x double]}> 

define linkonce_odr double* @_ZNSt5arrayIdLm59EE4dataEv(%struct._ZSt5arrayIdLm59EE* %_T42931096_52357.arg) #0 inlinehint !dbg !6080 {
L.entry:
	%_T42931096_52357.addr = alloca %struct._ZSt5arrayIdLm59EE*, align 8

	call void @llvm.dbg.declare (metadata %struct._ZSt5arrayIdLm59EE** %_T42931096_52357.addr, metadata !6088, metadata !4177), !dbg !6081
	store %struct._ZSt5arrayIdLm59EE* %_T42931096_52357.arg, %struct._ZSt5arrayIdLm59EE** %_T42931096_52357.addr, align 8, !tbaa !4185
	call void @llvm.dbg.declare (metadata %struct._ZSt5arrayIdLm59EE** %_T42931096_52357.addr, metadata !6089, metadata !4177), !dbg !6081
	%0 = load %struct._ZSt5arrayIdLm59EE*, %struct._ZSt5arrayIdLm59EE** %_T42931096_52357.addr, align 8, !tbaa !4185, !dbg !6090
	%1 = bitcast %struct._ZSt5arrayIdLm59EE*  %0 to double*, !dbg !6090
	ret double*  %1, !dbg !6090
}

%struct._ZNSt12_Vector_baseIN7species7SpeciesESaIS1_EE12_Vector_implE = type <{ %struct._ZNSt12_Vector_baseIN7species7SpeciesESaIS1_EE17_Vector_impl_dataE}> 
%struct._ZNSt12_Vector_baseIN7species7SpeciesESaIS1_EE17_Vector_impl_dataE = type <{ %struct._ZN7species7SpeciesE*, %struct._ZN7species7SpeciesE*, %struct._ZN7species7SpeciesE*}> 
%struct._ZSt6vectorIN7species7SpeciesESaIS1_EE = type <{ %struct._ZSt12_Vector_baseIN7species7SpeciesESaIS1_EE}> 
%struct._ZN7species7SpeciesE = type <{ %struct._ZNSt7__cxx1112basic_stringIcSt11char_traitsIcESaIcEEE, double, double, double, i64, i32, i8, [3 x i8], i32, [4 x i8], double, double, double, double, double, %struct._ZSt5arrayIdLm3EE, double, double, double, double, i32, [4 x i8], double, double, double}> 
%struct._ZSt12_Vector_baseIN7species7SpeciesESaIS1_EE = type <{ %struct._ZNSt12_Vector_baseIN7species7SpeciesESaIS1_EE12_Vector_implE}> 

define linkonce_odr i64 @_ZNKSt6vectorIN7species7SpeciesESaIS1_EE4sizeEv(%struct._ZSt6vectorIN7species7SpeciesESaIS1_EE* %_T42931096_52359.arg) #0 inlinehint !dbg !6095 {
L.entry:
	%_T42931096_52359.addr = alloca %struct._ZSt6vectorIN7species7SpeciesESaIS1_EE*, align 8
	%_T42931984_52359.addr = alloca i64, align 8

	call void @llvm.dbg.declare (metadata %struct._ZSt6vectorIN7species7SpeciesESaIS1_EE** %_T42931096_52359.addr, metadata !6099, metadata !4177), !dbg !6096
	store %struct._ZSt6vectorIN7species7SpeciesESaIS1_EE* %_T42931096_52359.arg, %struct._ZSt6vectorIN7species7SpeciesESaIS1_EE** %_T42931096_52359.addr, align 8, !tbaa !4185
	call void @llvm.dbg.declare (metadata %struct._ZSt6vectorIN7species7SpeciesESaIS1_EE** %_T42931096_52359.addr, metadata !6100, metadata !4177), !dbg !6096
	%0 = load %struct._ZSt6vectorIN7species7SpeciesESaIS1_EE*, %struct._ZSt6vectorIN7species7SpeciesESaIS1_EE** %_T42931096_52359.addr, align 8, !tbaa !4185, !dbg !6101
	%1 = bitcast %struct._ZSt6vectorIN7species7SpeciesESaIS1_EE*  %0 to i8*, !dbg !6101
	%2 = getelementptr i8, i8*  %1, i64 8, !dbg !6101
	%3 = bitcast i8*  %2 to i8**, !dbg !6101
	%4 = load i8*, i8**  %3, align 8, !tbaa !4185, !dbg !6101
	%5 = bitcast %struct._ZSt6vectorIN7species7SpeciesESaIS1_EE*  %0 to i8**, !dbg !6101
	%6 = load i8*, i8**  %5, align 8, !tbaa !4185, !dbg !6101
	%7 = ptrtoint i8*  %6 to i64, !dbg !6101
	%8 = sub i64 0,  %7, !dbg !6101
	%9 = getelementptr i8, i8*  %4, i64  %8, !dbg !6101
	%10 = ptrtoint i8*  %9 to i64, !dbg !6101
	%11 = sext i64 5675921253449092805 to i128, !dbg !6101
	%12 = sext i64  %10 to i128, !dbg !6101
	%13 = mul i128  %11,  %12, !dbg !6101
	%14 = ashr i128  %13, 64, !dbg !6101
	%15 = trunc i128  %14 to i64, !dbg !6101
	%16 = sext i32 6 to i64, !dbg !6101
	%17 = ashr i64  %15,  %16, !dbg !6101
	%18 = sub i64 0,  %7, !dbg !6101
	%19 = getelementptr i8, i8*  %4, i64  %18, !dbg !6101
	%20 = ptrtoint i8*  %19 to i64, !dbg !6101
	%21 = sext i32 63 to i64, !dbg !6101
	%22 = ashr i64  %20,  %21, !dbg !6101
	%23 = sub i64  %17,  %22, !dbg !6101
	ret i64  %23, !dbg !6101
}
define linkonce_odr %struct._ZN7species7SpeciesE* @_ZNSt6vectorIN7species7SpeciesESaIS1_EEixEm(%struct._ZSt6vectorIN7species7SpeciesESaIS1_EE* %_T42931096_52362.arg, i64 %__n.arg) #0 inlinehint !dbg !6105 {
L.entry:
	%_T42931096_52362.addr = alloca %struct._ZSt6vectorIN7species7SpeciesESaIS1_EE*, align 8
	%__n.addr = alloca i64, align 8

	call void @llvm.dbg.declare (metadata %struct._ZSt6vectorIN7species7SpeciesESaIS1_EE** %_T42931096_52362.addr, metadata !6109, metadata !4177), !dbg !6106
	store %struct._ZSt6vectorIN7species7SpeciesESaIS1_EE* %_T42931096_52362.arg, %struct._ZSt6vectorIN7species7SpeciesESaIS1_EE** %_T42931096_52362.addr, align 8, !tbaa !4185
	call void @llvm.dbg.declare (metadata %struct._ZSt6vectorIN7species7SpeciesESaIS1_EE** %_T42931096_52362.addr, metadata !6110, metadata !4177), !dbg !6106
	call void @llvm.dbg.declare (metadata i64* %__n.addr, metadata !6111, metadata !4177), !dbg !6106
	store i64 %__n.arg, i64* %__n.addr, align 8, !tbaa !4184
	call void @llvm.dbg.declare (metadata i64* %__n.addr, metadata !6112, metadata !4177), !dbg !6106
	%0 = load %struct._ZSt6vectorIN7species7SpeciesESaIS1_EE*, %struct._ZSt6vectorIN7species7SpeciesESaIS1_EE** %_T42931096_52362.addr, align 8, !tbaa !4185, !dbg !6113
	%1 = bitcast %struct._ZSt6vectorIN7species7SpeciesESaIS1_EE*  %0 to i8**, !dbg !6113
	%2 = load i8*, i8**  %1, align 8, !tbaa !4185, !dbg !6113
	%3 = load i64, i64* %__n.addr, align 8, !tbaa !4270, !dbg !6113
	%4 = mul i64  %3, 208, !dbg !6113
	%5 = getelementptr i8, i8*  %2, i64  %4, !dbg !6113
	%6 = bitcast i8*  %5 to %struct._ZN7species7SpeciesE*, !dbg !6113
	ret %struct._ZN7species7SpeciesE*  %6, !dbg !6113
}

%struct._ZSaIN8projects23AlfvenSpeciesParametersEE = type <{ [1 x i8]}> 

define linkonce_odr void @_ZNSaIN8projects23AlfvenSpeciesParametersEED1Ev(%struct._ZSaIN8projects23AlfvenSpeciesParametersEE* %_T42931096_52363.arg) #0 inlinehint !dbg !6119 {
L.entry:
	%_T42931096_52363.addr = alloca %struct._ZSaIN8projects23AlfvenSpeciesParametersEE*, align 8

	call void @llvm.dbg.declare (metadata %struct._ZSaIN8projects23AlfvenSpeciesParametersEE** %_T42931096_52363.addr, metadata !6123, metadata !4177), !dbg !6120
	store %struct._ZSaIN8projects23AlfvenSpeciesParametersEE* %_T42931096_52363.arg, %struct._ZSaIN8projects23AlfvenSpeciesParametersEE** %_T42931096_52363.addr, align 8, !tbaa !4185
	call void @llvm.dbg.declare (metadata %struct._ZSaIN8projects23AlfvenSpeciesParametersEE** %_T42931096_52363.addr, metadata !6124, metadata !4177), !dbg !6120
	ret void, !dbg !6125
}
define linkonce_odr void @_ZNSaIN8projects23AlfvenSpeciesParametersEED2Ev(%struct._ZSaIN8projects23AlfvenSpeciesParametersEE* %_T42931096_52364.arg) #0 inlinehint !dbg !6127 {
L.entry:
	%_T42931096_52364.addr = alloca %struct._ZSaIN8projects23AlfvenSpeciesParametersEE*, align 8

	store %struct._ZSaIN8projects23AlfvenSpeciesParametersEE* %_T42931096_52364.arg, %struct._ZSaIN8projects23AlfvenSpeciesParametersEE** %_T42931096_52364.addr, align 8, !tbaa !4185
	ret void, !dbg !6135
}
define linkonce_odr %struct._ZN8projects23AlfvenSpeciesParametersE* @_ZNSt16allocator_traitsISaIN8projects23AlfvenSpeciesParametersEEE8allocateERS2_m(%struct._ZSaIN8projects23AlfvenSpeciesParametersEE* %__a.arg, i64 %__n.arg) #0 inlinehint !dbg !6143 {
L.entry:
	%__a.addr = alloca %struct._ZSaIN8projects23AlfvenSpeciesParametersEE*, align 8
	%__n.addr = alloca i64, align 8
	%..inline.addr = alloca i64, align 8
	%.Q0000.addr = alloca i8*, align 8

	call void @llvm.dbg.declare (metadata %struct._ZSaIN8projects23AlfvenSpeciesParametersEE** %__a.addr, metadata !6155, metadata !4177), !dbg !6144
	store %struct._ZSaIN8projects23AlfvenSpeciesParametersEE* %__a.arg, %struct._ZSaIN8projects23AlfvenSpeciesParametersEE** %__a.addr, align 8, !tbaa !4185
	call void @llvm.dbg.declare (metadata %struct._ZSaIN8projects23AlfvenSpeciesParametersEE** %__a.addr, metadata !6156, metadata !4177), !dbg !6144
	call void @llvm.dbg.declare (metadata i64* %__n.addr, metadata !6157, metadata !4177), !dbg !6144
	store i64 %__n.arg, i64* %__n.addr, align 8, !tbaa !4184
	call void @llvm.dbg.declare (metadata i64* %__n.addr, metadata !6158, metadata !4177), !dbg !6144
	%0 = load i64, i64* %__n.addr, align 8, !tbaa !4270, !dbg !6159
	store i64  %0, i64* %..inline.addr, align 8, !tbaa !4270, !dbg !6159
	%1 = icmp ule i64  %0, 576460752303423487, !dbg !6160
	br i1  %1, label %L..inline.73083, label %L.B1529, !dbg !6160
L.B1529:
	call void  @_ZSt17__throw_bad_allocv () noreturn, !dbg !6161
	br label %L..inline.73083
L..inline.73083:
	%2 = load i64, i64* %..inline.addr, align 8, !tbaa !4270, !dbg !6162
	%3 = mul i64  %2, 32, !dbg !6162
	%4 = call i8*  @_Znwm (i64  %3), !dbg !6162
	store i8*  %4, i8** %.Q0000.addr, align 8, !tbaa !4185, !dbg !6162
	%5 = bitcast i8*  %4 to %struct._ZN8projects23AlfvenSpeciesParametersE*, !dbg !6162
	ret %struct._ZN8projects23AlfvenSpeciesParametersE*  %5, !dbg !6162
}
define linkonce_odr void @_ZNSt16allocator_traitsISaIN8projects23AlfvenSpeciesParametersEEE10deallocateERS2_PS1_m(%struct._ZSaIN8projects23AlfvenSpeciesParametersEE* %__a.arg, %struct._ZN8projects23AlfvenSpeciesParametersE* %__p.arg, i64 %__n.arg) #0 inlinehint !dbg !6166 {
L.entry:
	%__a.addr = alloca %struct._ZSaIN8projects23AlfvenSpeciesParametersEE*, align 8
	%__p.addr = alloca %struct._ZN8projects23AlfvenSpeciesParametersE*, align 8
	%__n.addr = alloca i64, align 8
	%..inline.addr = alloca %struct._ZN8projects23AlfvenSpeciesParametersE*, align 8

	call void @llvm.dbg.declare (metadata %struct._ZSaIN8projects23AlfvenSpeciesParametersEE** %__a.addr, metadata !6174, metadata !4177), !dbg !6167
	store %struct._ZSaIN8projects23AlfvenSpeciesParametersEE* %__a.arg, %struct._ZSaIN8projects23AlfvenSpeciesParametersEE** %__a.addr, align 8, !tbaa !4185
	call void @llvm.dbg.declare (metadata %struct._ZSaIN8projects23AlfvenSpeciesParametersEE** %__a.addr, metadata !6175, metadata !4177), !dbg !6167
	call void @llvm.dbg.declare (metadata %struct._ZN8projects23AlfvenSpeciesParametersE** %__p.addr, metadata !6176, metadata !4177), !dbg !6167
	store %struct._ZN8projects23AlfvenSpeciesParametersE* %__p.arg, %struct._ZN8projects23AlfvenSpeciesParametersE** %__p.addr, align 8, !tbaa !4185
	call void @llvm.dbg.declare (metadata %struct._ZN8projects23AlfvenSpeciesParametersE** %__p.addr, metadata !6177, metadata !4177), !dbg !6167
	call void @llvm.dbg.declare (metadata i64* %__n.addr, metadata !6178, metadata !4177), !dbg !6167
	store i64 %__n.arg, i64* %__n.addr, align 8, !tbaa !4184
	call void @llvm.dbg.declare (metadata i64* %__n.addr, metadata !6179, metadata !4177), !dbg !6167
	%0 = load %struct._ZN8projects23AlfvenSpeciesParametersE*, %struct._ZN8projects23AlfvenSpeciesParametersE** %__p.addr, align 8, !tbaa !4185, !dbg !6180
	%1 = bitcast %struct._ZN8projects23AlfvenSpeciesParametersE*  %0 to i8*, !dbg !6180
	%2 = bitcast %struct._ZN8projects23AlfvenSpeciesParametersE** %..inline.addr to i8**, !dbg !6180
	store i8*  %1, i8**  %2, align 8, !tbaa !4185, !dbg !6180
	%3 = load %struct._ZN8projects23AlfvenSpeciesParametersE*, %struct._ZN8projects23AlfvenSpeciesParametersE** %..inline.addr, align 8, !tbaa !4185, !dbg !6181
	%4 = bitcast %struct._ZN8projects23AlfvenSpeciesParametersE*  %3 to i8*, !dbg !6181
	call void  @_ZdlPv (i8*  %4) nounwind, !dbg !6181
	ret void, !dbg !6180
}
define linkonce_odr i64 @_ZNSt16allocator_traitsISaIN8projects23AlfvenSpeciesParametersEEE8max_sizeERKS2_(%struct._ZSaIN8projects23AlfvenSpeciesParametersEE* %__a.arg) #0 inlinehint !dbg !6189 {
L.entry:
	%__a.addr = alloca %struct._ZSaIN8projects23AlfvenSpeciesParametersEE*, align 8

	call void @llvm.dbg.declare (metadata %struct._ZSaIN8projects23AlfvenSpeciesParametersEE** %__a.addr, metadata !6197, metadata !4177), !dbg !6190
	store %struct._ZSaIN8projects23AlfvenSpeciesParametersEE* %__a.arg, %struct._ZSaIN8projects23AlfvenSpeciesParametersEE** %__a.addr, align 8, !tbaa !4185
	call void @llvm.dbg.declare (metadata %struct._ZSaIN8projects23AlfvenSpeciesParametersEE** %__a.addr, metadata !6198, metadata !4177), !dbg !6190
	ret i64 576460752303423487, !dbg !6199
}
define linkonce_odr void @_ZNSt16allocator_traitsISaIN8projects23AlfvenSpeciesParametersEEE9constructIS1_JRKS1_EEEvRS2_PT_DpOT0_(%struct._ZSaIN8projects23AlfvenSpeciesParametersEE* %__a.arg, %struct._ZN8projects23AlfvenSpeciesParametersE* %__p.arg, %struct._ZN8projects23AlfvenSpeciesParametersE* %__args.arg) #0 inlinehint !dbg !6210 {
L.entry:
	%__a.addr = alloca %struct._ZSaIN8projects23AlfvenSpeciesParametersEE*, align 8
	%__p.addr = alloca %struct._ZN8projects23AlfvenSpeciesParametersE*, align 8
	%__args.addr = alloca %struct._ZN8projects23AlfvenSpeciesParametersE*, align 8
	%..inline.addr = alloca %struct._ZN8projects23AlfvenSpeciesParametersE*, align 8
	%..inline.addr.1 = alloca %struct._ZN8projects23AlfvenSpeciesParametersE*, align 8

	call void @llvm.dbg.declare (metadata %struct._ZSaIN8projects23AlfvenSpeciesParametersEE** %__a.addr, metadata !6230, metadata !4177), !dbg !6211
	store %struct._ZSaIN8projects23AlfvenSpeciesParametersEE* %__a.arg, %struct._ZSaIN8projects23AlfvenSpeciesParametersEE** %__a.addr, align 8, !tbaa !4185
	call void @llvm.dbg.declare (metadata %struct._ZSaIN8projects23AlfvenSpeciesParametersEE** %__a.addr, metadata !6231, metadata !4177), !dbg !6211
	call void @llvm.dbg.declare (metadata %struct._ZN8projects23AlfvenSpeciesParametersE** %__p.addr, metadata !6232, metadata !4177), !dbg !6211
	store %struct._ZN8projects23AlfvenSpeciesParametersE* %__p.arg, %struct._ZN8projects23AlfvenSpeciesParametersE** %__p.addr, align 8, !tbaa !4185
	call void @llvm.dbg.declare (metadata %struct._ZN8projects23AlfvenSpeciesParametersE** %__p.addr, metadata !6233, metadata !4177), !dbg !6211
	call void @llvm.dbg.declare (metadata %struct._ZN8projects23AlfvenSpeciesParametersE** %__args.addr, metadata !6234, metadata !4177), !dbg !6211
	store %struct._ZN8projects23AlfvenSpeciesParametersE* %__args.arg, %struct._ZN8projects23AlfvenSpeciesParametersE** %__args.addr, align 8, !tbaa !4185
	call void @llvm.dbg.declare (metadata %struct._ZN8projects23AlfvenSpeciesParametersE** %__args.addr, metadata !6235, metadata !4177), !dbg !6211
	%0 = load %struct._ZN8projects23AlfvenSpeciesParametersE*, %struct._ZN8projects23AlfvenSpeciesParametersE** %__p.addr, align 8, !tbaa !4185, !dbg !6236
	%1 = bitcast %struct._ZN8projects23AlfvenSpeciesParametersE*  %0 to i8*, !dbg !6236
	%2 = bitcast %struct._ZN8projects23AlfvenSpeciesParametersE** %..inline.addr to i8**, !dbg !6236
	store i8*  %1, i8**  %2, align 8, !tbaa !4185, !dbg !6236
	%3 = load %struct._ZN8projects23AlfvenSpeciesParametersE*, %struct._ZN8projects23AlfvenSpeciesParametersE** %..inline.addr, align 8, !tbaa !4185, !dbg !6236
	%4 = bitcast %struct._ZN8projects23AlfvenSpeciesParametersE*  %3 to i8*, !dbg !6236
	%5 = icmp eq i8*  %4,  null, !dbg !6236
	br i1  %5, label %L..inline.73149, label %L.B1538, !dbg !6236
L.B1538:
	%6 = load %struct._ZN8projects23AlfvenSpeciesParametersE*, %struct._ZN8projects23AlfvenSpeciesParametersE** %__args.addr, align 8, !tbaa !4185, !dbg !6236
	%7 = bitcast %struct._ZN8projects23AlfvenSpeciesParametersE*  %6 to i8*, !dbg !6236
	%8 = bitcast %struct._ZN8projects23AlfvenSpeciesParametersE** %..inline.addr.1 to i8**, !dbg !6236
	store i8*  %7, i8**  %8, align 8, !tbaa !4185, !dbg !6236
	%9 = load %struct._ZN8projects23AlfvenSpeciesParametersE*, %struct._ZN8projects23AlfvenSpeciesParametersE** %..inline.addr.1, align 8, !tbaa !4185, !dbg !6236
	%10 = bitcast %struct._ZN8projects23AlfvenSpeciesParametersE*  %9 to double*, !dbg !6236
	%11 = load double, double*  %10, align 8, !tbaa !4184, !dbg !6236
	%12 = bitcast %struct._ZN8projects23AlfvenSpeciesParametersE*  %3 to double*, !dbg !6236
	store double  %11, double*  %12, align 8, !tbaa !4184, !dbg !6236
	%13 = bitcast double*  %10 to i8*, !dbg !6236
	%14 = getelementptr i8, i8*  %13, i64 8, !dbg !6236
	%15 = bitcast i8*  %14 to double*, !dbg !6236
	%16 = load double, double*  %15, align 8, !tbaa !4184, !dbg !6236
	%17 = bitcast double*  %12 to i8*, !dbg !6236
	%18 = getelementptr i8, i8*  %17, i64 8, !dbg !6236
	%19 = bitcast i8*  %18 to double*, !dbg !6236
	store double  %16, double*  %19, align 8, !tbaa !4184, !dbg !6236
	%20 = getelementptr i8, i8*  %13, i64 16, !dbg !6236
	%21 = bitcast i8*  %20 to double*, !dbg !6236
	%22 = load double, double*  %21, align 8, !tbaa !4184, !dbg !6236
	%23 = getelementptr i8, i8*  %17, i64 16, !dbg !6236
	%24 = bitcast i8*  %23 to double*, !dbg !6236
	store double  %22, double*  %24, align 8, !tbaa !4184, !dbg !6236
	%25 = getelementptr i8, i8*  %13, i64 24, !dbg !6236
	%26 = bitcast i8*  %25 to i32*, !dbg !6236
	%27 = load i32, i32*  %26, align 4, !tbaa !4184, !dbg !6236
	%28 = getelementptr i8, i8*  %17, i64 24, !dbg !6236
	%29 = bitcast i8*  %28 to i32*, !dbg !6236
	store i32  %27, i32*  %29, align 4, !tbaa !4184, !dbg !6236
	br label %L..inline.73159, !dbg !6236
L..inline.73149:
	br label %L..inline.73159
L..inline.73159:
	ret void, !dbg !6237
}
define linkonce_odr void @_ZNSt16allocator_traitsISaIN8projects23AlfvenSpeciesParametersEEE7destroyIS1_EEvRS2_PT_(%struct._ZSaIN8projects23AlfvenSpeciesParametersEE* %__a.arg, %struct._ZN8projects23AlfvenSpeciesParametersE* %__p.arg) #0 inlinehint !dbg !6241 {
L.entry:
	%__a.addr = alloca %struct._ZSaIN8projects23AlfvenSpeciesParametersEE*, align 8
	%__p.addr = alloca %struct._ZN8projects23AlfvenSpeciesParametersE*, align 8

	call void @llvm.dbg.declare (metadata %struct._ZSaIN8projects23AlfvenSpeciesParametersEE** %__a.addr, metadata !6249, metadata !4177), !dbg !6242
	store %struct._ZSaIN8projects23AlfvenSpeciesParametersEE* %__a.arg, %struct._ZSaIN8projects23AlfvenSpeciesParametersEE** %__a.addr, align 8, !tbaa !4185
	call void @llvm.dbg.declare (metadata %struct._ZSaIN8projects23AlfvenSpeciesParametersEE** %__a.addr, metadata !6250, metadata !4177), !dbg !6242
	call void @llvm.dbg.declare (metadata %struct._ZN8projects23AlfvenSpeciesParametersE** %__p.addr, metadata !6251, metadata !4177), !dbg !6242
	store %struct._ZN8projects23AlfvenSpeciesParametersE* %__p.arg, %struct._ZN8projects23AlfvenSpeciesParametersE** %__p.addr, align 8, !tbaa !4185
	call void @llvm.dbg.declare (metadata %struct._ZN8projects23AlfvenSpeciesParametersE** %__p.addr, metadata !6252, metadata !4177), !dbg !6242
	ret void, !dbg !6253
}

%struct._ZNSt12_Vector_baseIN8projects23AlfvenSpeciesParametersESaIS1_EE12_Vector_implE = type <{ %struct._ZNSt12_Vector_baseIN8projects23AlfvenSpeciesParametersESaIS1_EE17_Vector_impl_dataE}> 
%struct._ZSt12_Vector_baseIN8projects23AlfvenSpeciesParametersESaIS1_EE = type <{ %struct._ZNSt12_Vector_baseIN8projects23AlfvenSpeciesParametersESaIS1_EE12_Vector_implE}> 
%struct._ZNSt12_Vector_baseIN8projects23AlfvenSpeciesParametersESaIS1_EE17_Vector_impl_dataE = type <{ %struct._ZN8projects23AlfvenSpeciesParametersE*, %struct._ZN8projects23AlfvenSpeciesParametersE*, %struct._ZN8projects23AlfvenSpeciesParametersE*}> 

define linkonce_odr %struct._ZSaIN8projects23AlfvenSpeciesParametersEE* @_ZNSt12_Vector_baseIN8projects23AlfvenSpeciesParametersESaIS1_EE19_M_get_Tp_allocatorEv(%struct._ZSt12_Vector_baseIN8projects23AlfvenSpeciesParametersESaIS1_EE* %_T42931096_52377.arg) #0 inlinehint !dbg !6259 {
L.entry:
	%_T42931096_52377.addr = alloca %struct._ZSt12_Vector_baseIN8projects23AlfvenSpeciesParametersESaIS1_EE*, align 8

	call void @llvm.dbg.declare (metadata %struct._ZSt12_Vector_baseIN8projects23AlfvenSpeciesParametersESaIS1_EE** %_T42931096_52377.addr, metadata !6263, metadata !4177), !dbg !6260
	store %struct._ZSt12_Vector_baseIN8projects23AlfvenSpeciesParametersESaIS1_EE* %_T42931096_52377.arg, %struct._ZSt12_Vector_baseIN8projects23AlfvenSpeciesParametersESaIS1_EE** %_T42931096_52377.addr, align 8, !tbaa !4185
	call void @llvm.dbg.declare (metadata %struct._ZSt12_Vector_baseIN8projects23AlfvenSpeciesParametersESaIS1_EE** %_T42931096_52377.addr, metadata !6264, metadata !4177), !dbg !6260
	%0 = load %struct._ZSt12_Vector_baseIN8projects23AlfvenSpeciesParametersESaIS1_EE*, %struct._ZSt12_Vector_baseIN8projects23AlfvenSpeciesParametersESaIS1_EE** %_T42931096_52377.addr, align 8, !tbaa !4185, !dbg !6265
	%1 = bitcast %struct._ZSt12_Vector_baseIN8projects23AlfvenSpeciesParametersESaIS1_EE*  %0 to %struct._ZSaIN8projects23AlfvenSpeciesParametersEE*, !dbg !6265
	ret %struct._ZSaIN8projects23AlfvenSpeciesParametersEE*  %1, !dbg !6265
}
define linkonce_odr %struct._ZSaIN8projects23AlfvenSpeciesParametersEE* @_ZNKSt12_Vector_baseIN8projects23AlfvenSpeciesParametersESaIS1_EE19_M_get_Tp_allocatorEv(%struct._ZSt12_Vector_baseIN8projects23AlfvenSpeciesParametersESaIS1_EE* %_T42931096_52378.arg) #0 inlinehint !dbg !6267 {
L.entry:
	%_T42931096_52378.addr = alloca %struct._ZSt12_Vector_baseIN8projects23AlfvenSpeciesParametersESaIS1_EE*, align 8

	call void @llvm.dbg.declare (metadata %struct._ZSt12_Vector_baseIN8projects23AlfvenSpeciesParametersESaIS1_EE** %_T42931096_52378.addr, metadata !6271, metadata !4177), !dbg !6268
	store %struct._ZSt12_Vector_baseIN8projects23AlfvenSpeciesParametersESaIS1_EE* %_T42931096_52378.arg, %struct._ZSt12_Vector_baseIN8projects23AlfvenSpeciesParametersESaIS1_EE** %_T42931096_52378.addr, align 8, !tbaa !4185
	call void @llvm.dbg.declare (metadata %struct._ZSt12_Vector_baseIN8projects23AlfvenSpeciesParametersESaIS1_EE** %_T42931096_52378.addr, metadata !6272, metadata !4177), !dbg !6268
	%0 = load %struct._ZSt12_Vector_baseIN8projects23AlfvenSpeciesParametersESaIS1_EE*, %struct._ZSt12_Vector_baseIN8projects23AlfvenSpeciesParametersESaIS1_EE** %_T42931096_52378.addr, align 8, !tbaa !4185, !dbg !6273
	%1 = bitcast %struct._ZSt12_Vector_baseIN8projects23AlfvenSpeciesParametersESaIS1_EE*  %0 to %struct._ZSaIN8projects23AlfvenSpeciesParametersEE*, !dbg !6273
	ret %struct._ZSaIN8projects23AlfvenSpeciesParametersEE*  %1, !dbg !6273
}
define linkonce_odr void @_ZNSt12_Vector_baseIN8projects23AlfvenSpeciesParametersESaIS1_EEC1Ev(%struct._ZSt12_Vector_baseIN8projects23AlfvenSpeciesParametersESaIS1_EE* %_T42931096_52379.arg) #0 inlinehint !dbg !6277 {
L.entry:
	%_T42931096_52379.addr = alloca %struct._ZSt12_Vector_baseIN8projects23AlfvenSpeciesParametersESaIS1_EE*, align 8
	%..inline.addr = alloca %struct._ZNSt12_Vector_baseIN8projects23AlfvenSpeciesParametersESaIS1_EE17_Vector_impl_dataE*, align 8

	call void @llvm.dbg.declare (metadata %struct._ZSt12_Vector_baseIN8projects23AlfvenSpeciesParametersESaIS1_EE** %_T42931096_52379.addr, metadata !6293, metadata !4177), !dbg !6278
	store %struct._ZSt12_Vector_baseIN8projects23AlfvenSpeciesParametersESaIS1_EE* %_T42931096_52379.arg, %struct._ZSt12_Vector_baseIN8projects23AlfvenSpeciesParametersESaIS1_EE** %_T42931096_52379.addr, align 8, !tbaa !4185
	call void @llvm.dbg.declare (metadata %struct._ZSt12_Vector_baseIN8projects23AlfvenSpeciesParametersESaIS1_EE** %_T42931096_52379.addr, metadata !6294, metadata !4177), !dbg !6278
	%0 = load %struct._ZSt12_Vector_baseIN8projects23AlfvenSpeciesParametersESaIS1_EE*, %struct._ZSt12_Vector_baseIN8projects23AlfvenSpeciesParametersESaIS1_EE** %_T42931096_52379.addr, align 8, !tbaa !4185, !dbg !6295
	%1 = bitcast %struct._ZSt12_Vector_baseIN8projects23AlfvenSpeciesParametersESaIS1_EE*  %0 to i8*, !dbg !6295
	%2 = bitcast %struct._ZNSt12_Vector_baseIN8projects23AlfvenSpeciesParametersESaIS1_EE17_Vector_impl_dataE** %..inline.addr to i8**, !dbg !6295
	store i8*  %1, i8**  %2, align 8, !tbaa !4185, !dbg !6295
	%3 = load %struct._ZNSt12_Vector_baseIN8projects23AlfvenSpeciesParametersESaIS1_EE17_Vector_impl_dataE*, %struct._ZNSt12_Vector_baseIN8projects23AlfvenSpeciesParametersESaIS1_EE17_Vector_impl_dataE** %..inline.addr, align 8, !tbaa !4185, !dbg !6295
	%4 = bitcast %struct._ZNSt12_Vector_baseIN8projects23AlfvenSpeciesParametersESaIS1_EE17_Vector_impl_dataE*  %3 to i8**, !dbg !6295
	store i8* null, i8**  %4, align 8, !tbaa !4185, !dbg !6295
	%5 = bitcast %struct._ZNSt12_Vector_baseIN8projects23AlfvenSpeciesParametersESaIS1_EE17_Vector_impl_dataE*  %3 to i8*, !dbg !6295
	%6 = getelementptr i8, i8*  %5, i64 8, !dbg !6295
	%7 = bitcast i8*  %6 to i8**, !dbg !6295
	store i8* null, i8**  %7, align 8, !tbaa !4185, !dbg !6295
	%8 = getelementptr i8, i8*  %5, i64 16, !dbg !6295
	%9 = bitcast i8*  %8 to i8**, !dbg !6295
	store i8* null, i8**  %9, align 8, !tbaa !4185, !dbg !6295
	ret void, !dbg !6295
}
define linkonce_odr void @_ZNSt12_Vector_baseIN8projects23AlfvenSpeciesParametersESaIS1_EEC2Ev(%struct._ZSt12_Vector_baseIN8projects23AlfvenSpeciesParametersESaIS1_EE* %_T42931096_52380.arg) #0 inlinehint !dbg !6297 {
L.entry:
	%_T42931096_52380.addr = alloca %struct._ZSt12_Vector_baseIN8projects23AlfvenSpeciesParametersESaIS1_EE*, align 8
	%..inline.addr = alloca %struct._ZNSt12_Vector_baseIN8projects23AlfvenSpeciesParametersESaIS1_EE17_Vector_impl_dataE*, align 8

	store %struct._ZSt12_Vector_baseIN8projects23AlfvenSpeciesParametersESaIS1_EE* %_T42931096_52380.arg, %struct._ZSt12_Vector_baseIN8projects23AlfvenSpeciesParametersESaIS1_EE** %_T42931096_52380.addr, align 8, !tbaa !4185
	%0 = load %struct._ZSt12_Vector_baseIN8projects23AlfvenSpeciesParametersESaIS1_EE*, %struct._ZSt12_Vector_baseIN8projects23AlfvenSpeciesParametersESaIS1_EE** %_T42931096_52380.addr, align 8, !tbaa !4185, !dbg !6317
	%1 = bitcast %struct._ZSt12_Vector_baseIN8projects23AlfvenSpeciesParametersESaIS1_EE*  %0 to i8*, !dbg !6317
	%2 = bitcast %struct._ZNSt12_Vector_baseIN8projects23AlfvenSpeciesParametersESaIS1_EE17_Vector_impl_dataE** %..inline.addr to i8**, !dbg !6317
	store i8*  %1, i8**  %2, align 8, !tbaa !4185, !dbg !6317
	%3 = load %struct._ZNSt12_Vector_baseIN8projects23AlfvenSpeciesParametersESaIS1_EE17_Vector_impl_dataE*, %struct._ZNSt12_Vector_baseIN8projects23AlfvenSpeciesParametersESaIS1_EE17_Vector_impl_dataE** %..inline.addr, align 8, !tbaa !4185, !dbg !6317
	%4 = bitcast %struct._ZNSt12_Vector_baseIN8projects23AlfvenSpeciesParametersESaIS1_EE17_Vector_impl_dataE*  %3 to i8**, !dbg !6317
	store i8* null, i8**  %4, align 8, !tbaa !4185, !dbg !6317
	%5 = bitcast %struct._ZNSt12_Vector_baseIN8projects23AlfvenSpeciesParametersESaIS1_EE17_Vector_impl_dataE*  %3 to i8*, !dbg !6317
	%6 = getelementptr i8, i8*  %5, i64 8, !dbg !6317
	%7 = bitcast i8*  %6 to i8**, !dbg !6317
	store i8* null, i8**  %7, align 8, !tbaa !4185, !dbg !6317
	%8 = getelementptr i8, i8*  %5, i64 16, !dbg !6317
	%9 = bitcast i8*  %8 to i8**, !dbg !6317
	store i8* null, i8**  %9, align 8, !tbaa !4185, !dbg !6317
	ret void, !dbg !6317
}
define linkonce_odr void @_ZNSt12_Vector_baseIN8projects23AlfvenSpeciesParametersESaIS1_EED1Ev(%struct._ZSt12_Vector_baseIN8projects23AlfvenSpeciesParametersESaIS1_EE* %_T42931096_52381.arg) #0 inlinehint !dbg !6319 {
L.entry:
	%_T42931096_52381.addr = alloca %struct._ZSt12_Vector_baseIN8projects23AlfvenSpeciesParametersESaIS1_EE*, align 8
	%..inline.addr = alloca %struct._ZN8projects23AlfvenSpeciesParametersE*, align 8

	call void @llvm.dbg.declare (metadata %struct._ZSt12_Vector_baseIN8projects23AlfvenSpeciesParametersESaIS1_EE** %_T42931096_52381.addr, metadata !6347, metadata !4177), !dbg !6320
	store %struct._ZSt12_Vector_baseIN8projects23AlfvenSpeciesParametersESaIS1_EE* %_T42931096_52381.arg, %struct._ZSt12_Vector_baseIN8projects23AlfvenSpeciesParametersESaIS1_EE** %_T42931096_52381.addr, align 8, !tbaa !4185
	call void @llvm.dbg.declare (metadata %struct._ZSt12_Vector_baseIN8projects23AlfvenSpeciesParametersESaIS1_EE** %_T42931096_52381.addr, metadata !6348, metadata !4177), !dbg !6320
	%0 = load %struct._ZSt12_Vector_baseIN8projects23AlfvenSpeciesParametersESaIS1_EE*, %struct._ZSt12_Vector_baseIN8projects23AlfvenSpeciesParametersESaIS1_EE** %_T42931096_52381.addr, align 8, !tbaa !4185, !dbg !6349
	%1 = bitcast %struct._ZSt12_Vector_baseIN8projects23AlfvenSpeciesParametersESaIS1_EE*  %0 to i8**, !dbg !6349
	%2 = load i8*, i8**  %1, align 8, !tbaa !4185, !dbg !6349
	%3 = icmp eq i8*  %2,  null, !dbg !6349
	br i1  %3, label %L..inline.73255, label %L.B1549, !dbg !6349
L.B1549:
	%4 = bitcast %struct._ZSt12_Vector_baseIN8projects23AlfvenSpeciesParametersESaIS1_EE*  %0 to i8**, !dbg !6350
	%5 = load i8*, i8**  %4, align 8, !tbaa !4185, !dbg !6350
	%6 = bitcast %struct._ZN8projects23AlfvenSpeciesParametersE** %..inline.addr to i8**, !dbg !6350
	store i8*  %5, i8**  %6, align 8, !tbaa !4185, !dbg !6350
	%7 = load %struct._ZN8projects23AlfvenSpeciesParametersE*, %struct._ZN8projects23AlfvenSpeciesParametersE** %..inline.addr, align 8, !tbaa !4185, !dbg !6350
	%8 = bitcast %struct._ZN8projects23AlfvenSpeciesParametersE*  %7 to i8*, !dbg !6350
	call void  @_ZdlPv (i8*  %8) nounwind, !dbg !6350
	br label %L..inline.73255
L..inline.73255:
	ret void, !dbg !6351
}
define linkonce_odr void @_ZNSt12_Vector_baseIN8projects23AlfvenSpeciesParametersESaIS1_EED2Ev(%struct._ZSt12_Vector_baseIN8projects23AlfvenSpeciesParametersESaIS1_EE* %_T42931096_52382.arg) #0 inlinehint !dbg !6353 {
L.entry:
	%_T42931096_52382.addr = alloca %struct._ZSt12_Vector_baseIN8projects23AlfvenSpeciesParametersESaIS1_EE*, align 8
	%..inline.addr = alloca %struct._ZSt12_Vector_baseIN8projects23AlfvenSpeciesParametersESaIS1_EE*, align 8
	%..inline.addr.1 = alloca %struct._ZN8projects23AlfvenSpeciesParametersE*, align 8

	store %struct._ZSt12_Vector_baseIN8projects23AlfvenSpeciesParametersESaIS1_EE* %_T42931096_52382.arg, %struct._ZSt12_Vector_baseIN8projects23AlfvenSpeciesParametersESaIS1_EE** %_T42931096_52382.addr, align 8, !tbaa !4185
	%0 = load %struct._ZSt12_Vector_baseIN8projects23AlfvenSpeciesParametersESaIS1_EE*, %struct._ZSt12_Vector_baseIN8projects23AlfvenSpeciesParametersESaIS1_EE** %_T42931096_52382.addr, align 8, !tbaa !4185, !dbg !6385
	%1 = bitcast %struct._ZSt12_Vector_baseIN8projects23AlfvenSpeciesParametersESaIS1_EE*  %0 to i8*, !dbg !6385
	%2 = bitcast %struct._ZSt12_Vector_baseIN8projects23AlfvenSpeciesParametersESaIS1_EE** %..inline.addr to i8**, !dbg !6385
	store i8*  %1, i8**  %2, align 8, !tbaa !4185, !dbg !6385
	%3 = load %struct._ZSt12_Vector_baseIN8projects23AlfvenSpeciesParametersESaIS1_EE*, %struct._ZSt12_Vector_baseIN8projects23AlfvenSpeciesParametersESaIS1_EE** %..inline.addr, align 8, !tbaa !4185, !dbg !6385
	%4 = bitcast %struct._ZSt12_Vector_baseIN8projects23AlfvenSpeciesParametersESaIS1_EE*  %3 to i8**, !dbg !6385
	%5 = load i8*, i8**  %4, align 8, !tbaa !4185, !dbg !6385
	%6 = icmp eq i8*  %5,  null, !dbg !6385
	br i1  %6, label %L..inline.73314, label %L.B1552, !dbg !6385
L.B1552:
	%7 = bitcast %struct._ZSt12_Vector_baseIN8projects23AlfvenSpeciesParametersESaIS1_EE*  %3 to i8**, !dbg !6385
	%8 = load i8*, i8**  %7, align 8, !tbaa !4185, !dbg !6385
	%9 = bitcast %struct._ZN8projects23AlfvenSpeciesParametersE** %..inline.addr.1 to i8**, !dbg !6385
	store i8*  %8, i8**  %9, align 8, !tbaa !4185, !dbg !6385
	%10 = load %struct._ZN8projects23AlfvenSpeciesParametersE*, %struct._ZN8projects23AlfvenSpeciesParametersE** %..inline.addr.1, align 8, !tbaa !4185, !dbg !6385
	%11 = bitcast %struct._ZN8projects23AlfvenSpeciesParametersE*  %10 to i8*, !dbg !6385
	call void  @_ZdlPv (i8*  %11) nounwind, !dbg !6385
	br label %L..inline.73314
L..inline.73314:
	ret void, !dbg !6386
}
define linkonce_odr %struct._ZN8projects23AlfvenSpeciesParametersE* @_ZNSt12_Vector_baseIN8projects23AlfvenSpeciesParametersESaIS1_EE11_M_allocateEm(%struct._ZSt12_Vector_baseIN8projects23AlfvenSpeciesParametersESaIS1_EE* %_T42931096_52385.arg, i64 %__n.arg) #0 inlinehint !dbg !6390 {
L.entry:
	%_T42931096_52385.addr = alloca %struct._ZSt12_Vector_baseIN8projects23AlfvenSpeciesParametersESaIS1_EE*, align 8
	%__n.addr = alloca i64, align 8
	%..inline.addr = alloca i64, align 8
	%.Q0001.addr = alloca i8*, align 8
	%.I0002.addr = alloca %struct._ZN8projects23AlfvenSpeciesParametersE*, align 8

	call void @llvm.dbg.declare (metadata %struct._ZSt12_Vector_baseIN8projects23AlfvenSpeciesParametersESaIS1_EE** %_T42931096_52385.addr, metadata !6406, metadata !4177), !dbg !6391
	store %struct._ZSt12_Vector_baseIN8projects23AlfvenSpeciesParametersESaIS1_EE* %_T42931096_52385.arg, %struct._ZSt12_Vector_baseIN8projects23AlfvenSpeciesParametersESaIS1_EE** %_T42931096_52385.addr, align 8, !tbaa !4185
	call void @llvm.dbg.declare (metadata %struct._ZSt12_Vector_baseIN8projects23AlfvenSpeciesParametersESaIS1_EE** %_T42931096_52385.addr, metadata !6407, metadata !4177), !dbg !6391
	call void @llvm.dbg.declare (metadata i64* %__n.addr, metadata !6408, metadata !4177), !dbg !6391
	store i64 %__n.arg, i64* %__n.addr, align 8, !tbaa !4184
	call void @llvm.dbg.declare (metadata i64* %__n.addr, metadata !6409, metadata !4177), !dbg !6391
	%0 = load i64, i64* %__n.addr, align 8, !tbaa !4270, !dbg !6410
	%1 = icmp eq i64  %0, 0, !dbg !6410
	br i1  %1, label %L.B0018, label %L.B1555, !dbg !6410
L.B1555:
	store i64  %0, i64* %..inline.addr, align 8, !tbaa !4270, !dbg !6411
	%2 = icmp ule i64  %0, 576460752303423487, !dbg !6411
	br i1  %2, label %L..inline.73380, label %L.B1556, !dbg !6411
L.B1556:
	call void  @_ZSt17__throw_bad_allocv () noreturn, !dbg !6411
	br label %L..inline.73380
L..inline.73380:
	%3 = load i64, i64* %..inline.addr, align 8, !tbaa !4270, !dbg !6411
	%4 = mul i64  %3, 32, !dbg !6411
	%5 = call i8*  @_Znwm (i64  %4), !dbg !6411
	store i8*  %5, i8** %.Q0001.addr, align 8, !tbaa !4185, !dbg !6411
	%6 = bitcast %struct._ZN8projects23AlfvenSpeciesParametersE** %.I0002.addr to i8**, !dbg !6411
	store i8*  %5, i8**  %6, align 8, !tbaa !4185, !dbg !6411
	br label %L.B0019, !dbg !6410
L.B0018:
	%7 = bitcast %struct._ZN8projects23AlfvenSpeciesParametersE** %.I0002.addr to i8**, !dbg !6410
	store i8* null, i8**  %7, align 8, !tbaa !4185, !dbg !6410
	br label %L.B0019
L.B0019:
	%8 = load %struct._ZN8projects23AlfvenSpeciesParametersE*, %struct._ZN8projects23AlfvenSpeciesParametersE** %.I0002.addr, align 8, !tbaa !4185, !dbg !6410
	ret %struct._ZN8projects23AlfvenSpeciesParametersE*  %8, !dbg !6410
}
define linkonce_odr void @_ZNSt12_Vector_baseIN8projects23AlfvenSpeciesParametersESaIS1_EE13_M_deallocateEPS1_m(%struct._ZSt12_Vector_baseIN8projects23AlfvenSpeciesParametersESaIS1_EE* %_T42931096_52388.arg, %struct._ZN8projects23AlfvenSpeciesParametersE* %__p.arg, i64 %__n.arg) #0 inlinehint !dbg !6416 {
L.entry:
	%_T42931096_52388.addr = alloca %struct._ZSt12_Vector_baseIN8projects23AlfvenSpeciesParametersESaIS1_EE*, align 8
	%__p.addr = alloca %struct._ZN8projects23AlfvenSpeciesParametersE*, align 8
	%__n.addr = alloca i64, align 8
	%..inline.addr = alloca %struct._ZN8projects23AlfvenSpeciesParametersE*, align 8

	call void @llvm.dbg.declare (metadata %struct._ZSt12_Vector_baseIN8projects23AlfvenSpeciesParametersESaIS1_EE** %_T42931096_52388.addr, metadata !6428, metadata !4177), !dbg !6417
	store %struct._ZSt12_Vector_baseIN8projects23AlfvenSpeciesParametersESaIS1_EE* %_T42931096_52388.arg, %struct._ZSt12_Vector_baseIN8projects23AlfvenSpeciesParametersESaIS1_EE** %_T42931096_52388.addr, align 8, !tbaa !4185
	call void @llvm.dbg.declare (metadata %struct._ZSt12_Vector_baseIN8projects23AlfvenSpeciesParametersESaIS1_EE** %_T42931096_52388.addr, metadata !6429, metadata !4177), !dbg !6417
	call void @llvm.dbg.declare (metadata %struct._ZN8projects23AlfvenSpeciesParametersE** %__p.addr, metadata !6430, metadata !4177), !dbg !6417
	store %struct._ZN8projects23AlfvenSpeciesParametersE* %__p.arg, %struct._ZN8projects23AlfvenSpeciesParametersE** %__p.addr, align 8, !tbaa !4185
	call void @llvm.dbg.declare (metadata %struct._ZN8projects23AlfvenSpeciesParametersE** %__p.addr, metadata !6431, metadata !4177), !dbg !6417
	call void @llvm.dbg.declare (metadata i64* %__n.addr, metadata !6432, metadata !4177), !dbg !6417
	store i64 %__n.arg, i64* %__n.addr, align 8, !tbaa !4184
	call void @llvm.dbg.declare (metadata i64* %__n.addr, metadata !6433, metadata !4177), !dbg !6417
	%0 = load %struct._ZN8projects23AlfvenSpeciesParametersE*, %struct._ZN8projects23AlfvenSpeciesParametersE** %__p.addr, align 8, !tbaa !4185, !dbg !6434
	%1 = bitcast %struct._ZN8projects23AlfvenSpeciesParametersE*  %0 to i8*, !dbg !6434
	%2 = icmp eq i8*  %1,  null, !dbg !6434
	br i1  %2, label %L.B0020, label %L.B1559, !dbg !6434
L.B1559:
	%3 = bitcast %struct._ZN8projects23AlfvenSpeciesParametersE*  %0 to i8*, !dbg !6435
	%4 = bitcast %struct._ZN8projects23AlfvenSpeciesParametersE** %..inline.addr to i8**, !dbg !6435
	store i8*  %3, i8**  %4, align 8, !tbaa !4185, !dbg !6435
	%5 = load %struct._ZN8projects23AlfvenSpeciesParametersE*, %struct._ZN8projects23AlfvenSpeciesParametersE** %..inline.addr, align 8, !tbaa !4185, !dbg !6435
	%6 = bitcast %struct._ZN8projects23AlfvenSpeciesParametersE*  %5 to i8*, !dbg !6435
	call void  @_ZdlPv (i8*  %6) nounwind, !dbg !6435
	br label %L.B0020
L.B0020:
	ret void, !dbg !6436
}
define linkonce_odr void @_ZNSt12_Vector_baseIN8projects23AlfvenSpeciesParametersESaIS1_EE17_Vector_impl_dataC1Ev(%struct._ZNSt12_Vector_baseIN8projects23AlfvenSpeciesParametersESaIS1_EE17_Vector_impl_dataE* %_T42931096_52389.arg) #0 inlinehint !dbg !6441 {
L.entry:
	%_T42931096_52389.addr = alloca %struct._ZNSt12_Vector_baseIN8projects23AlfvenSpeciesParametersESaIS1_EE17_Vector_impl_dataE*, align 8

	call void @llvm.dbg.declare (metadata %struct._ZNSt12_Vector_baseIN8projects23AlfvenSpeciesParametersESaIS1_EE17_Vector_impl_dataE** %_T42931096_52389.addr, metadata !6445, metadata !4177), !dbg !6442
	store %struct._ZNSt12_Vector_baseIN8projects23AlfvenSpeciesParametersESaIS1_EE17_Vector_impl_dataE* %_T42931096_52389.arg, %struct._ZNSt12_Vector_baseIN8projects23AlfvenSpeciesParametersESaIS1_EE17_Vector_impl_dataE** %_T42931096_52389.addr, align 8, !tbaa !4185
	call void @llvm.dbg.declare (metadata %struct._ZNSt12_Vector_baseIN8projects23AlfvenSpeciesParametersESaIS1_EE17_Vector_impl_dataE** %_T42931096_52389.addr, metadata !6446, metadata !4177), !dbg !6442
	%0 = load %struct._ZNSt12_Vector_baseIN8projects23AlfvenSpeciesParametersESaIS1_EE17_Vector_impl_dataE*, %struct._ZNSt12_Vector_baseIN8projects23AlfvenSpeciesParametersESaIS1_EE17_Vector_impl_dataE** %_T42931096_52389.addr, align 8, !tbaa !4185, !dbg !6447
	%1 = bitcast %struct._ZNSt12_Vector_baseIN8projects23AlfvenSpeciesParametersESaIS1_EE17_Vector_impl_dataE*  %0 to i8**, !dbg !6447
	store i8* null, i8**  %1, align 8, !tbaa !4185, !dbg !6447
	%2 = bitcast %struct._ZNSt12_Vector_baseIN8projects23AlfvenSpeciesParametersESaIS1_EE17_Vector_impl_dataE*  %0 to i8*, !dbg !6447
	%3 = getelementptr i8, i8*  %2, i64 8, !dbg !6447
	%4 = bitcast i8*  %3 to i8**, !dbg !6447
	store i8* null, i8**  %4, align 8, !tbaa !4185, !dbg !6447
	%5 = getelementptr i8, i8*  %2, i64 16, !dbg !6447
	%6 = bitcast i8*  %5 to i8**, !dbg !6447
	store i8* null, i8**  %6, align 8, !tbaa !4185, !dbg !6447
	ret void, !dbg !6447
}
define linkonce_odr void @_ZNSt12_Vector_baseIN8projects23AlfvenSpeciesParametersESaIS1_EE17_Vector_impl_dataC2Ev(%struct._ZNSt12_Vector_baseIN8projects23AlfvenSpeciesParametersESaIS1_EE17_Vector_impl_dataE* %_T42931096_52390.arg) #0 inlinehint !dbg !6449 {
L.entry:
	%_T42931096_52390.addr = alloca %struct._ZNSt12_Vector_baseIN8projects23AlfvenSpeciesParametersESaIS1_EE17_Vector_impl_dataE*, align 8
	%..inline.addr = alloca %struct._ZNSt12_Vector_baseIN8projects23AlfvenSpeciesParametersESaIS1_EE17_Vector_impl_dataE*, align 8

	store %struct._ZNSt12_Vector_baseIN8projects23AlfvenSpeciesParametersESaIS1_EE17_Vector_impl_dataE* %_T42931096_52390.arg, %struct._ZNSt12_Vector_baseIN8projects23AlfvenSpeciesParametersESaIS1_EE17_Vector_impl_dataE** %_T42931096_52390.addr, align 8, !tbaa !4185
	%0 = load %struct._ZNSt12_Vector_baseIN8projects23AlfvenSpeciesParametersESaIS1_EE17_Vector_impl_dataE*, %struct._ZNSt12_Vector_baseIN8projects23AlfvenSpeciesParametersESaIS1_EE17_Vector_impl_dataE** %_T42931096_52390.addr, align 8, !tbaa !4185, !dbg !6457
	%1 = bitcast %struct._ZNSt12_Vector_baseIN8projects23AlfvenSpeciesParametersESaIS1_EE17_Vector_impl_dataE*  %0 to i8*, !dbg !6457
	%2 = bitcast %struct._ZNSt12_Vector_baseIN8projects23AlfvenSpeciesParametersESaIS1_EE17_Vector_impl_dataE** %..inline.addr to i8**, !dbg !6457
	store i8*  %1, i8**  %2, align 8, !tbaa !4185, !dbg !6457
	%3 = load %struct._ZNSt12_Vector_baseIN8projects23AlfvenSpeciesParametersESaIS1_EE17_Vector_impl_dataE*, %struct._ZNSt12_Vector_baseIN8projects23AlfvenSpeciesParametersESaIS1_EE17_Vector_impl_dataE** %..inline.addr, align 8, !tbaa !4185, !dbg !6457
	%4 = bitcast %struct._ZNSt12_Vector_baseIN8projects23AlfvenSpeciesParametersESaIS1_EE17_Vector_impl_dataE*  %3 to i8**, !dbg !6457
	store i8* null, i8**  %4, align 8, !tbaa !4185, !dbg !6457
	%5 = bitcast %struct._ZNSt12_Vector_baseIN8projects23AlfvenSpeciesParametersESaIS1_EE17_Vector_impl_dataE*  %3 to i8*, !dbg !6457
	%6 = getelementptr i8, i8*  %5, i64 8, !dbg !6457
	%7 = bitcast i8*  %6 to i8**, !dbg !6457
	store i8* null, i8**  %7, align 8, !tbaa !4185, !dbg !6457
	%8 = getelementptr i8, i8*  %5, i64 16, !dbg !6457
	%9 = bitcast i8*  %8 to i8**, !dbg !6457
	store i8* null, i8**  %9, align 8, !tbaa !4185, !dbg !6457
	ret void, !dbg !6457
}
define linkonce_odr void @_ZNSt12_Vector_baseIN8projects23AlfvenSpeciesParametersESaIS1_EE12_Vector_implC1Ev(%struct._ZNSt12_Vector_baseIN8projects23AlfvenSpeciesParametersESaIS1_EE12_Vector_implE* %_T42931096_52391.arg) #0 inlinehint !dbg !6462 {
L.entry:
	%_T42931096_52391.addr = alloca %struct._ZNSt12_Vector_baseIN8projects23AlfvenSpeciesParametersESaIS1_EE12_Vector_implE*, align 8
	%..inline.addr = alloca %struct._ZNSt12_Vector_baseIN8projects23AlfvenSpeciesParametersESaIS1_EE17_Vector_impl_dataE*, align 8

	call void @llvm.dbg.declare (metadata %struct._ZNSt12_Vector_baseIN8projects23AlfvenSpeciesParametersESaIS1_EE12_Vector_implE** %_T42931096_52391.addr, metadata !6474, metadata !4177), !dbg !6463
	store %struct._ZNSt12_Vector_baseIN8projects23AlfvenSpeciesParametersESaIS1_EE12_Vector_implE* %_T42931096_52391.arg, %struct._ZNSt12_Vector_baseIN8projects23AlfvenSpeciesParametersESaIS1_EE12_Vector_implE** %_T42931096_52391.addr, align 8, !tbaa !4185
	call void @llvm.dbg.declare (metadata %struct._ZNSt12_Vector_baseIN8projects23AlfvenSpeciesParametersESaIS1_EE12_Vector_implE** %_T42931096_52391.addr, metadata !6475, metadata !4177), !dbg !6463
	%0 = load %struct._ZNSt12_Vector_baseIN8projects23AlfvenSpeciesParametersESaIS1_EE12_Vector_implE*, %struct._ZNSt12_Vector_baseIN8projects23AlfvenSpeciesParametersESaIS1_EE12_Vector_implE** %_T42931096_52391.addr, align 8, !tbaa !4185, !dbg !6476
	%1 = bitcast %struct._ZNSt12_Vector_baseIN8projects23AlfvenSpeciesParametersESaIS1_EE12_Vector_implE*  %0 to i8*, !dbg !6476
	%2 = bitcast %struct._ZNSt12_Vector_baseIN8projects23AlfvenSpeciesParametersESaIS1_EE17_Vector_impl_dataE** %..inline.addr to i8**, !dbg !6476
	store i8*  %1, i8**  %2, align 8, !tbaa !4185, !dbg !6476
	%3 = load %struct._ZNSt12_Vector_baseIN8projects23AlfvenSpeciesParametersESaIS1_EE17_Vector_impl_dataE*, %struct._ZNSt12_Vector_baseIN8projects23AlfvenSpeciesParametersESaIS1_EE17_Vector_impl_dataE** %..inline.addr, align 8, !tbaa !4185, !dbg !6476
	%4 = bitcast %struct._ZNSt12_Vector_baseIN8projects23AlfvenSpeciesParametersESaIS1_EE17_Vector_impl_dataE*  %3 to i8**, !dbg !6476
	store i8* null, i8**  %4, align 8, !tbaa !4185, !dbg !6476
	%5 = bitcast %struct._ZNSt12_Vector_baseIN8projects23AlfvenSpeciesParametersESaIS1_EE17_Vector_impl_dataE*  %3 to i8*, !dbg !6477
	%6 = getelementptr i8, i8*  %5, i64 8, !dbg !6477
	%7 = bitcast i8*  %6 to i8**, !dbg !6477
	store i8* null, i8**  %7, align 8, !tbaa !4185, !dbg !6477
	%8 = getelementptr i8, i8*  %5, i64 16, !dbg !6477
	%9 = bitcast i8*  %8 to i8**, !dbg !6477
	store i8* null, i8**  %9, align 8, !tbaa !4185, !dbg !6477
	ret void, !dbg !6476
}
define linkonce_odr void @_ZNSt12_Vector_baseIN8projects23AlfvenSpeciesParametersESaIS1_EE12_Vector_implC2Ev(%struct._ZNSt12_Vector_baseIN8projects23AlfvenSpeciesParametersESaIS1_EE12_Vector_implE* %_T42931096_52392.arg) #0 inlinehint !dbg !6479 {
L.entry:
	%_T42931096_52392.addr = alloca %struct._ZNSt12_Vector_baseIN8projects23AlfvenSpeciesParametersESaIS1_EE12_Vector_implE*, align 8
	%..inline.addr = alloca %struct._ZNSt12_Vector_baseIN8projects23AlfvenSpeciesParametersESaIS1_EE17_Vector_impl_dataE*, align 8

	store %struct._ZNSt12_Vector_baseIN8projects23AlfvenSpeciesParametersESaIS1_EE12_Vector_implE* %_T42931096_52392.arg, %struct._ZNSt12_Vector_baseIN8projects23AlfvenSpeciesParametersESaIS1_EE12_Vector_implE** %_T42931096_52392.addr, align 8, !tbaa !4185
	%0 = load %struct._ZNSt12_Vector_baseIN8projects23AlfvenSpeciesParametersESaIS1_EE12_Vector_implE*, %struct._ZNSt12_Vector_baseIN8projects23AlfvenSpeciesParametersESaIS1_EE12_Vector_implE** %_T42931096_52392.addr, align 8, !tbaa !4185, !dbg !6495
	%1 = bitcast %struct._ZNSt12_Vector_baseIN8projects23AlfvenSpeciesParametersESaIS1_EE12_Vector_implE*  %0 to i8*, !dbg !6495
	%2 = bitcast %struct._ZNSt12_Vector_baseIN8projects23AlfvenSpeciesParametersESaIS1_EE17_Vector_impl_dataE** %..inline.addr to i8**, !dbg !6495
	store i8*  %1, i8**  %2, align 8, !tbaa !4185, !dbg !6495
	%3 = load %struct._ZNSt12_Vector_baseIN8projects23AlfvenSpeciesParametersESaIS1_EE17_Vector_impl_dataE*, %struct._ZNSt12_Vector_baseIN8projects23AlfvenSpeciesParametersESaIS1_EE17_Vector_impl_dataE** %..inline.addr, align 8, !tbaa !4185, !dbg !6495
	%4 = bitcast %struct._ZNSt12_Vector_baseIN8projects23AlfvenSpeciesParametersESaIS1_EE17_Vector_impl_dataE*  %3 to i8**, !dbg !6495
	store i8* null, i8**  %4, align 8, !tbaa !4185, !dbg !6495
	%5 = bitcast %struct._ZNSt12_Vector_baseIN8projects23AlfvenSpeciesParametersESaIS1_EE17_Vector_impl_dataE*  %3 to i8*, !dbg !6495
	%6 = getelementptr i8, i8*  %5, i64 8, !dbg !6495
	%7 = bitcast i8*  %6 to i8**, !dbg !6495
	store i8* null, i8**  %7, align 8, !tbaa !4185, !dbg !6495
	%8 = getelementptr i8, i8*  %5, i64 16, !dbg !6495
	%9 = bitcast i8*  %8 to i8**, !dbg !6495
	store i8* null, i8**  %9, align 8, !tbaa !4185, !dbg !6495
	ret void, !dbg !6495
}
define linkonce_odr void @_ZNSt12_Vector_baseIN8projects23AlfvenSpeciesParametersESaIS1_EE12_Vector_implD1Ev(%struct._ZNSt12_Vector_baseIN8projects23AlfvenSpeciesParametersESaIS1_EE12_Vector_implE* %_T42931096_52393.arg) #0 inlinehint !dbg !6497 {
L.entry:
	%_T42931096_52393.addr = alloca %struct._ZNSt12_Vector_baseIN8projects23AlfvenSpeciesParametersESaIS1_EE12_Vector_implE*, align 8

	call void @llvm.dbg.declare (metadata %struct._ZNSt12_Vector_baseIN8projects23AlfvenSpeciesParametersESaIS1_EE12_Vector_implE** %_T42931096_52393.addr, metadata !6509, metadata !4177), !dbg !6498
	store %struct._ZNSt12_Vector_baseIN8projects23AlfvenSpeciesParametersESaIS1_EE12_Vector_implE* %_T42931096_52393.arg, %struct._ZNSt12_Vector_baseIN8projects23AlfvenSpeciesParametersESaIS1_EE12_Vector_implE** %_T42931096_52393.addr, align 8, !tbaa !4185
	call void @llvm.dbg.declare (metadata %struct._ZNSt12_Vector_baseIN8projects23AlfvenSpeciesParametersESaIS1_EE12_Vector_implE** %_T42931096_52393.addr, metadata !6510, metadata !4177), !dbg !6498
	ret void, !dbg !6511
}
define linkonce_odr void @_ZNSt12_Vector_baseIN8projects23AlfvenSpeciesParametersESaIS1_EE12_Vector_implD2Ev(%struct._ZNSt12_Vector_baseIN8projects23AlfvenSpeciesParametersESaIS1_EE12_Vector_implE* %_T42931096_52394.arg) #0 inlinehint !dbg !6513 {
L.entry:
	%_T42931096_52394.addr = alloca %struct._ZNSt12_Vector_baseIN8projects23AlfvenSpeciesParametersESaIS1_EE12_Vector_implE*, align 8

	store %struct._ZNSt12_Vector_baseIN8projects23AlfvenSpeciesParametersESaIS1_EE12_Vector_implE* %_T42931096_52394.arg, %struct._ZNSt12_Vector_baseIN8projects23AlfvenSpeciesParametersESaIS1_EE12_Vector_implE** %_T42931096_52394.addr, align 8, !tbaa !4185
	ret void, !dbg !6529
}

%struct._ZSt17integral_constantIbLb1EE = type <{ [1 x i8]}> 

define linkonce_odr %struct._ZN8projects23AlfvenSpeciesParametersE* @_ZNSt6vectorIN8projects23AlfvenSpeciesParametersESaIS1_EE14_S_do_relocateEPS1_S4_S4_RS2_St17integral_constantIbLb1EE(%struct._ZN8projects23AlfvenSpeciesParametersE* %__first.arg, %struct._ZN8projects23AlfvenSpeciesParametersE* %__last.arg, %struct._ZN8projects23AlfvenSpeciesParametersE* %__result.arg, %struct._ZSaIN8projects23AlfvenSpeciesParametersEE* %__alloc.arg, i8 %_T42932280_52401.coerce) #0 inlinehint !dbg !6537 {
L.entry:
	%__first.addr = alloca %struct._ZN8projects23AlfvenSpeciesParametersE*, align 8
	%__last.addr = alloca %struct._ZN8projects23AlfvenSpeciesParametersE*, align 8
	%__result.addr = alloca %struct._ZN8projects23AlfvenSpeciesParametersE*, align 8
	%__alloc.addr = alloca %struct._ZSaIN8projects23AlfvenSpeciesParametersEE*, align 8
	%_T42932280_52401.addr = alloca %struct._ZSt17integral_constantIbLb1EE, align 1
	%..inline.addr = alloca %struct._ZN8projects23AlfvenSpeciesParametersE*, align 8
	%..inline.addr.1 = alloca %struct._ZN8projects23AlfvenSpeciesParametersE*, align 8
	%..inline.addr.2 = alloca i64, align 8

	call void @llvm.dbg.declare (metadata %struct._ZN8projects23AlfvenSpeciesParametersE** %__first.addr, metadata !6561, metadata !4177), !dbg !6538
	store %struct._ZN8projects23AlfvenSpeciesParametersE* %__first.arg, %struct._ZN8projects23AlfvenSpeciesParametersE** %__first.addr, align 8, !tbaa !4185
	call void @llvm.dbg.declare (metadata %struct._ZN8projects23AlfvenSpeciesParametersE** %__first.addr, metadata !6562, metadata !4177), !dbg !6538
	call void @llvm.dbg.declare (metadata %struct._ZN8projects23AlfvenSpeciesParametersE** %__last.addr, metadata !6563, metadata !4177), !dbg !6538
	store %struct._ZN8projects23AlfvenSpeciesParametersE* %__last.arg, %struct._ZN8projects23AlfvenSpeciesParametersE** %__last.addr, align 8, !tbaa !4185
	call void @llvm.dbg.declare (metadata %struct._ZN8projects23AlfvenSpeciesParametersE** %__last.addr, metadata !6564, metadata !4177), !dbg !6538
	call void @llvm.dbg.declare (metadata %struct._ZN8projects23AlfvenSpeciesParametersE** %__result.addr, metadata !6565, metadata !4177), !dbg !6538
	store %struct._ZN8projects23AlfvenSpeciesParametersE* %__result.arg, %struct._ZN8projects23AlfvenSpeciesParametersE** %__result.addr, align 8, !tbaa !4185
	call void @llvm.dbg.declare (metadata %struct._ZN8projects23AlfvenSpeciesParametersE** %__result.addr, metadata !6566, metadata !4177), !dbg !6538
	call void @llvm.dbg.declare (metadata %struct._ZSaIN8projects23AlfvenSpeciesParametersEE** %__alloc.addr, metadata !6567, metadata !4177), !dbg !6538
	store %struct._ZSaIN8projects23AlfvenSpeciesParametersEE* %__alloc.arg, %struct._ZSaIN8projects23AlfvenSpeciesParametersEE** %__alloc.addr, align 8, !tbaa !4185
	call void @llvm.dbg.declare (metadata %struct._ZSaIN8projects23AlfvenSpeciesParametersEE** %__alloc.addr, metadata !6568, metadata !4177), !dbg !6538
	call void @llvm.dbg.declare (metadata %struct._ZSt17integral_constantIbLb1EE* %_T42932280_52401.addr, metadata !6569, metadata !4177), !dbg !6538
	%0 = bitcast %struct._ZSt17integral_constantIbLb1EE* %_T42932280_52401.addr to i8*
	store i8 %_T42932280_52401.coerce, i8*  %0, align 1, !tbaa !4184
	call void @llvm.dbg.declare (metadata %struct._ZSt17integral_constantIbLb1EE* %_T42932280_52401.addr, metadata !6570, metadata !4177), !dbg !6538
	%1 = load %struct._ZN8projects23AlfvenSpeciesParametersE*, %struct._ZN8projects23AlfvenSpeciesParametersE** %__first.addr, align 8, !tbaa !4185, !dbg !6571
	%2 = bitcast %struct._ZN8projects23AlfvenSpeciesParametersE*  %1 to i8*, !dbg !6571
	%3 = bitcast %struct._ZN8projects23AlfvenSpeciesParametersE** %..inline.addr to i8**, !dbg !6571
	store i8*  %2, i8**  %3, align 8, !tbaa !4185, !dbg !6571
	%4 = load %struct._ZN8projects23AlfvenSpeciesParametersE*, %struct._ZN8projects23AlfvenSpeciesParametersE** %__result.addr, align 8, !tbaa !4185, !dbg !6571
	%5 = bitcast %struct._ZN8projects23AlfvenSpeciesParametersE*  %4 to i8*, !dbg !6571
	%6 = bitcast %struct._ZN8projects23AlfvenSpeciesParametersE** %..inline.addr.1 to i8**, !dbg !6571
	store i8*  %5, i8**  %6, align 8, !tbaa !4185, !dbg !6571
	%7 = load %struct._ZN8projects23AlfvenSpeciesParametersE*, %struct._ZN8projects23AlfvenSpeciesParametersE** %__last.addr, align 8, !tbaa !4185, !dbg !6571
	%8 = bitcast %struct._ZN8projects23AlfvenSpeciesParametersE*  %7 to i8*, !dbg !6571
	%9 = ptrtoint i8*  %2 to i64, !dbg !6571
	%10 = sub i64 0,  %9, !dbg !6571
	%11 = getelementptr i8, i8*  %8, i64  %10, !dbg !6571
	%12 = ptrtoint i8*  %11 to i64, !dbg !6571
	%13 = sext i32 5 to i64, !dbg !6571
	%14 = ashr i64  %12,  %13, !dbg !6571
	store i64  %14, i64* %..inline.addr.2, align 8, !tbaa !4270, !dbg !6571
	%15 = icmp sle i64  %14, 0, !dbg !6571
	br i1  %15, label %L..inline.73548, label %L.B1572, !dbg !6571
L.B1572:
	%16 = load %struct._ZN8projects23AlfvenSpeciesParametersE*, %struct._ZN8projects23AlfvenSpeciesParametersE** %..inline.addr.1, align 8, !tbaa !4185, !dbg !6571
	%17 = bitcast %struct._ZN8projects23AlfvenSpeciesParametersE*  %16 to i8*, !dbg !6571
	%18 = load %struct._ZN8projects23AlfvenSpeciesParametersE*, %struct._ZN8projects23AlfvenSpeciesParametersE** %..inline.addr, align 8, !tbaa !4185, !dbg !6571
	%19 = bitcast %struct._ZN8projects23AlfvenSpeciesParametersE*  %18 to i8*, !dbg !6571
	%20 = mul i64  %14, 32, !dbg !6571
	%21 = call i8*  @memmove (i8*  %17, i8*  %19, i64  %20) nounwind, !dbg !6571
	br label %L..inline.73548
L..inline.73548:
	%22 = load %struct._ZN8projects23AlfvenSpeciesParametersE*, %struct._ZN8projects23AlfvenSpeciesParametersE** %..inline.addr.1, align 8, !tbaa !4185, !dbg !6572
	%23 = bitcast %struct._ZN8projects23AlfvenSpeciesParametersE*  %22 to i8*, !dbg !6572
	%24 = load i64, i64* %..inline.addr.2, align 8, !tbaa !4270, !dbg !6572
	%25 = mul i64  %24, 32, !dbg !6572
	%26 = getelementptr i8, i8*  %23, i64  %25, !dbg !6572
	%27 = bitcast i8*  %26 to %struct._ZN8projects23AlfvenSpeciesParametersE*, !dbg !6572
	ret %struct._ZN8projects23AlfvenSpeciesParametersE*  %27, !dbg !6572
}
define linkonce_odr %struct._ZN8projects23AlfvenSpeciesParametersE* @_ZNSt6vectorIN8projects23AlfvenSpeciesParametersESaIS1_EE11_S_relocateEPS1_S4_S4_RS2_(%struct._ZN8projects23AlfvenSpeciesParametersE* %__first.arg, %struct._ZN8projects23AlfvenSpeciesParametersE* %__last.arg, %struct._ZN8projects23AlfvenSpeciesParametersE* %__result.arg, %struct._ZSaIN8projects23AlfvenSpeciesParametersEE* %__alloc.arg) #0 inlinehint !dbg !6577 {
L.entry:
	%__first.addr = alloca %struct._ZN8projects23AlfvenSpeciesParametersE*, align 8
	%__last.addr = alloca %struct._ZN8projects23AlfvenSpeciesParametersE*, align 8
	%__result.addr = alloca %struct._ZN8projects23AlfvenSpeciesParametersE*, align 8
	%__alloc.addr = alloca %struct._ZSaIN8projects23AlfvenSpeciesParametersEE*, align 8
	%.._T42933056_52406.__FILL_CHARARRAY.addr = alloca [1 x i8], align 1
	%..inline.addr = alloca %struct._ZN8projects23AlfvenSpeciesParametersE*, align 8
	%..inline.addr.1 = alloca %struct._ZN8projects23AlfvenSpeciesParametersE*, align 8
	%..inline.addr.2 = alloca %struct._ZN8projects23AlfvenSpeciesParametersE*, align 8
	%....inline.__FILL_CHARARRAY.addr = alloca [1 x i8], align 1
	%..inline.addr.3 = alloca %struct._ZN8projects23AlfvenSpeciesParametersE*, align 8
	%..inline.addr.4 = alloca %struct._ZN8projects23AlfvenSpeciesParametersE*, align 8
	%..inline.addr.5 = alloca i64, align 8

	call void @llvm.dbg.declare (metadata %struct._ZN8projects23AlfvenSpeciesParametersE** %__first.addr, metadata !6605, metadata !4177), !dbg !6578
	store %struct._ZN8projects23AlfvenSpeciesParametersE* %__first.arg, %struct._ZN8projects23AlfvenSpeciesParametersE** %__first.addr, align 8, !tbaa !4185
	call void @llvm.dbg.declare (metadata %struct._ZN8projects23AlfvenSpeciesParametersE** %__first.addr, metadata !6606, metadata !4177), !dbg !6578
	call void @llvm.dbg.declare (metadata %struct._ZN8projects23AlfvenSpeciesParametersE** %__last.addr, metadata !6607, metadata !4177), !dbg !6578
	store %struct._ZN8projects23AlfvenSpeciesParametersE* %__last.arg, %struct._ZN8projects23AlfvenSpeciesParametersE** %__last.addr, align 8, !tbaa !4185
	call void @llvm.dbg.declare (metadata %struct._ZN8projects23AlfvenSpeciesParametersE** %__last.addr, metadata !6608, metadata !4177), !dbg !6578
	call void @llvm.dbg.declare (metadata %struct._ZN8projects23AlfvenSpeciesParametersE** %__result.addr, metadata !6609, metadata !4177), !dbg !6578
	store %struct._ZN8projects23AlfvenSpeciesParametersE* %__result.arg, %struct._ZN8projects23AlfvenSpeciesParametersE** %__result.addr, align 8, !tbaa !4185
	call void @llvm.dbg.declare (metadata %struct._ZN8projects23AlfvenSpeciesParametersE** %__result.addr, metadata !6610, metadata !4177), !dbg !6578
	call void @llvm.dbg.declare (metadata %struct._ZSaIN8projects23AlfvenSpeciesParametersEE** %__alloc.addr, metadata !6611, metadata !4177), !dbg !6578
	store %struct._ZSaIN8projects23AlfvenSpeciesParametersEE* %__alloc.arg, %struct._ZSaIN8projects23AlfvenSpeciesParametersEE** %__alloc.addr, align 8, !tbaa !4185
	call void @llvm.dbg.declare (metadata %struct._ZSaIN8projects23AlfvenSpeciesParametersEE** %__alloc.addr, metadata !6612, metadata !4177), !dbg !6578
	call void @llvm.dbg.declare (metadata [1 x i8]* %.._T42933056_52406.__FILL_CHARARRAY.addr, metadata !6614, metadata !4177), !dbg !6580
	%0 = bitcast [1 x i8]* %.._T42933056_52406.__FILL_CHARARRAY.addr to i8*, !dbg !6613
	store i8 0, i8*  %0, align 1, !tbaa !4184, !dbg !6613
	%1 = load %struct._ZN8projects23AlfvenSpeciesParametersE*, %struct._ZN8projects23AlfvenSpeciesParametersE** %__first.addr, align 8, !tbaa !4185, !dbg !6613
	%2 = bitcast %struct._ZN8projects23AlfvenSpeciesParametersE*  %1 to i8*, !dbg !6613
	%3 = bitcast %struct._ZN8projects23AlfvenSpeciesParametersE** %..inline.addr to i8**, !dbg !6613
	store i8*  %2, i8**  %3, align 8, !tbaa !4185, !dbg !6613
	%4 = load %struct._ZN8projects23AlfvenSpeciesParametersE*, %struct._ZN8projects23AlfvenSpeciesParametersE** %__last.addr, align 8, !tbaa !4185, !dbg !6613
	%5 = bitcast %struct._ZN8projects23AlfvenSpeciesParametersE*  %4 to i8*, !dbg !6613
	%6 = bitcast %struct._ZN8projects23AlfvenSpeciesParametersE** %..inline.addr.1 to i8**, !dbg !6613
	store i8*  %5, i8**  %6, align 8, !tbaa !4185, !dbg !6613
	%7 = load %struct._ZN8projects23AlfvenSpeciesParametersE*, %struct._ZN8projects23AlfvenSpeciesParametersE** %__result.addr, align 8, !tbaa !4185, !dbg !6613
	%8 = bitcast %struct._ZN8projects23AlfvenSpeciesParametersE*  %7 to i8*, !dbg !6613
	%9 = bitcast %struct._ZN8projects23AlfvenSpeciesParametersE** %..inline.addr.2 to i8**, !dbg !6613
	store i8*  %8, i8**  %9, align 8, !tbaa !4185, !dbg !6613
	%10 = zext i8 0 to i32, !dbg !6615
	%11 = trunc i32  %10 to i8, !dbg !6615
	call void @llvm.dbg.declare (metadata [1 x i8]* %....inline.__FILL_CHARARRAY.addr, metadata !6616, metadata !4177), !dbg !6580
	%12 = bitcast [1 x i8]* %....inline.__FILL_CHARARRAY.addr to i8*, !dbg !6615
	store i8  %11, i8*  %12, align 1, !tbaa !4184, !dbg !6615
	%13 = load %struct._ZN8projects23AlfvenSpeciesParametersE*, %struct._ZN8projects23AlfvenSpeciesParametersE** %..inline.addr, align 8, !tbaa !4185, !dbg !6617
	%14 = bitcast %struct._ZN8projects23AlfvenSpeciesParametersE*  %13 to i8*, !dbg !6617
	%15 = bitcast %struct._ZN8projects23AlfvenSpeciesParametersE** %..inline.addr.3 to i8**, !dbg !6617
	store i8*  %14, i8**  %15, align 8, !tbaa !4185, !dbg !6617
	%16 = load %struct._ZN8projects23AlfvenSpeciesParametersE*, %struct._ZN8projects23AlfvenSpeciesParametersE** %..inline.addr.2, align 8, !tbaa !4185, !dbg !6617
	%17 = bitcast %struct._ZN8projects23AlfvenSpeciesParametersE*  %16 to i8*, !dbg !6617
	%18 = bitcast %struct._ZN8projects23AlfvenSpeciesParametersE** %..inline.addr.4 to i8**, !dbg !6617
	store i8*  %17, i8**  %18, align 8, !tbaa !4185, !dbg !6617
	%19 = load %struct._ZN8projects23AlfvenSpeciesParametersE*, %struct._ZN8projects23AlfvenSpeciesParametersE** %..inline.addr.1, align 8, !tbaa !4185, !dbg !6617
	%20 = bitcast %struct._ZN8projects23AlfvenSpeciesParametersE*  %19 to i8*, !dbg !6617
	%21 = ptrtoint i8*  %14 to i64, !dbg !6617
	%22 = sub i64 0,  %21, !dbg !6617
	%23 = getelementptr i8, i8*  %20, i64  %22, !dbg !6617
	%24 = ptrtoint i8*  %23 to i64, !dbg !6617
	%25 = sext i32 5 to i64, !dbg !6617
	%26 = ashr i64  %24,  %25, !dbg !6617
	store i64  %26, i64* %..inline.addr.5, align 8, !tbaa !4270, !dbg !6617
	%27 = icmp sle i64  %26, 0, !dbg !6617
	br i1  %27, label %L..inline.73624, label %L.B1575, !dbg !6617
L.B1575:
	%28 = load %struct._ZN8projects23AlfvenSpeciesParametersE*, %struct._ZN8projects23AlfvenSpeciesParametersE** %..inline.addr.4, align 8, !tbaa !4185, !dbg !6617
	%29 = bitcast %struct._ZN8projects23AlfvenSpeciesParametersE*  %28 to i8*, !dbg !6617
	%30 = load %struct._ZN8projects23AlfvenSpeciesParametersE*, %struct._ZN8projects23AlfvenSpeciesParametersE** %..inline.addr.3, align 8, !tbaa !4185, !dbg !6617
	%31 = bitcast %struct._ZN8projects23AlfvenSpeciesParametersE*  %30 to i8*, !dbg !6617
	%32 = mul i64  %26, 32, !dbg !6617
	%33 = call i8*  @memmove (i8*  %29, i8*  %31, i64  %32) nounwind, !dbg !6617
	br label %L..inline.73624
L..inline.73624:
	%34 = load %struct._ZN8projects23AlfvenSpeciesParametersE*, %struct._ZN8projects23AlfvenSpeciesParametersE** %..inline.addr.4, align 8, !tbaa !4185, !dbg !6613
	%35 = bitcast %struct._ZN8projects23AlfvenSpeciesParametersE*  %34 to i8*, !dbg !6613
	%36 = load i64, i64* %..inline.addr.5, align 8, !tbaa !4270, !dbg !6613
	%37 = mul i64  %36, 32, !dbg !6613
	%38 = getelementptr i8, i8*  %35, i64  %37, !dbg !6613
	%39 = bitcast i8*  %38 to %struct._ZN8projects23AlfvenSpeciesParametersE*, !dbg !6613
	ret %struct._ZN8projects23AlfvenSpeciesParametersE*  %39, !dbg !6613
}

%struct._ZSt6vectorIN8projects23AlfvenSpeciesParametersESaIS1_EE = type <{ %struct._ZSt12_Vector_baseIN8projects23AlfvenSpeciesParametersESaIS1_EE}> 

define linkonce_odr void @_ZNSt6vectorIN8projects23AlfvenSpeciesParametersESaIS1_EEC1Ev(%struct._ZSt6vectorIN8projects23AlfvenSpeciesParametersESaIS1_EE* %_T42931096_52407.arg) #0 inlinehint !dbg !6622 {
L.entry:
	%_T42931096_52407.addr = alloca %struct._ZSt6vectorIN8projects23AlfvenSpeciesParametersESaIS1_EE*, align 8
	%..inline.addr = alloca %struct._ZNSt12_Vector_baseIN8projects23AlfvenSpeciesParametersESaIS1_EE17_Vector_impl_dataE*, align 8

	call void @llvm.dbg.declare (metadata %struct._ZSt6vectorIN8projects23AlfvenSpeciesParametersESaIS1_EE** %_T42931096_52407.addr, metadata !6646, metadata !4177), !dbg !6623
	store %struct._ZSt6vectorIN8projects23AlfvenSpeciesParametersESaIS1_EE* %_T42931096_52407.arg, %struct._ZSt6vectorIN8projects23AlfvenSpeciesParametersESaIS1_EE** %_T42931096_52407.addr, align 8, !tbaa !4185
	call void @llvm.dbg.declare (metadata %struct._ZSt6vectorIN8projects23AlfvenSpeciesParametersESaIS1_EE** %_T42931096_52407.addr, metadata !6647, metadata !4177), !dbg !6623
	%0 = load %struct._ZSt6vectorIN8projects23AlfvenSpeciesParametersESaIS1_EE*, %struct._ZSt6vectorIN8projects23AlfvenSpeciesParametersESaIS1_EE** %_T42931096_52407.addr, align 8, !tbaa !4185, !dbg !6648
	%1 = bitcast %struct._ZSt6vectorIN8projects23AlfvenSpeciesParametersESaIS1_EE*  %0 to i8*, !dbg !6648
	%2 = bitcast %struct._ZNSt12_Vector_baseIN8projects23AlfvenSpeciesParametersESaIS1_EE17_Vector_impl_dataE** %..inline.addr to i8**, !dbg !6648
	store i8*  %1, i8**  %2, align 8, !tbaa !4185, !dbg !6648
	%3 = load %struct._ZNSt12_Vector_baseIN8projects23AlfvenSpeciesParametersESaIS1_EE17_Vector_impl_dataE*, %struct._ZNSt12_Vector_baseIN8projects23AlfvenSpeciesParametersESaIS1_EE17_Vector_impl_dataE** %..inline.addr, align 8, !tbaa !4185, !dbg !6648
	%4 = bitcast %struct._ZNSt12_Vector_baseIN8projects23AlfvenSpeciesParametersESaIS1_EE17_Vector_impl_dataE*  %3 to i8**, !dbg !6648
	store i8* null, i8**  %4, align 8, !tbaa !4185, !dbg !6648
	%5 = bitcast %struct._ZNSt12_Vector_baseIN8projects23AlfvenSpeciesParametersESaIS1_EE17_Vector_impl_dataE*  %3 to i8*, !dbg !6648
	%6 = getelementptr i8, i8*  %5, i64 8, !dbg !6648
	%7 = bitcast i8*  %6 to i8**, !dbg !6648
	store i8* null, i8**  %7, align 8, !tbaa !4185, !dbg !6648
	%8 = getelementptr i8, i8*  %5, i64 16, !dbg !6648
	%9 = bitcast i8*  %8 to i8**, !dbg !6648
	store i8* null, i8**  %9, align 8, !tbaa !4185, !dbg !6648
	ret void, !dbg !6648
}
define linkonce_odr void @_ZNSt6vectorIN8projects23AlfvenSpeciesParametersESaIS1_EEC2Ev(%struct._ZSt6vectorIN8projects23AlfvenSpeciesParametersESaIS1_EE* %_T42931096_52408.arg) #0 inlinehint !dbg !6650 {
L.entry:
	%_T42931096_52408.addr = alloca %struct._ZSt6vectorIN8projects23AlfvenSpeciesParametersESaIS1_EE*, align 8
	%..inline.addr = alloca %struct._ZNSt12_Vector_baseIN8projects23AlfvenSpeciesParametersESaIS1_EE17_Vector_impl_dataE*, align 8

	store %struct._ZSt6vectorIN8projects23AlfvenSpeciesParametersESaIS1_EE* %_T42931096_52408.arg, %struct._ZSt6vectorIN8projects23AlfvenSpeciesParametersESaIS1_EE** %_T42931096_52408.addr, align 8, !tbaa !4185
	%0 = load %struct._ZSt6vectorIN8projects23AlfvenSpeciesParametersESaIS1_EE*, %struct._ZSt6vectorIN8projects23AlfvenSpeciesParametersESaIS1_EE** %_T42931096_52408.addr, align 8, !tbaa !4185, !dbg !6678
	%1 = bitcast %struct._ZSt6vectorIN8projects23AlfvenSpeciesParametersESaIS1_EE*  %0 to i8*, !dbg !6678
	%2 = bitcast %struct._ZNSt12_Vector_baseIN8projects23AlfvenSpeciesParametersESaIS1_EE17_Vector_impl_dataE** %..inline.addr to i8**, !dbg !6678
	store i8*  %1, i8**  %2, align 8, !tbaa !4185, !dbg !6678
	%3 = load %struct._ZNSt12_Vector_baseIN8projects23AlfvenSpeciesParametersESaIS1_EE17_Vector_impl_dataE*, %struct._ZNSt12_Vector_baseIN8projects23AlfvenSpeciesParametersESaIS1_EE17_Vector_impl_dataE** %..inline.addr, align 8, !tbaa !4185, !dbg !6678
	%4 = bitcast %struct._ZNSt12_Vector_baseIN8projects23AlfvenSpeciesParametersESaIS1_EE17_Vector_impl_dataE*  %3 to i8**, !dbg !6678
	store i8* null, i8**  %4, align 8, !tbaa !4185, !dbg !6678
	%5 = bitcast %struct._ZNSt12_Vector_baseIN8projects23AlfvenSpeciesParametersESaIS1_EE17_Vector_impl_dataE*  %3 to i8*, !dbg !6678
	%6 = getelementptr i8, i8*  %5, i64 8, !dbg !6678
	%7 = bitcast i8*  %6 to i8**, !dbg !6678
	store i8* null, i8**  %7, align 8, !tbaa !4185, !dbg !6678
	%8 = getelementptr i8, i8*  %5, i64 16, !dbg !6678
	%9 = bitcast i8*  %8 to i8**, !dbg !6678
	store i8* null, i8**  %9, align 8, !tbaa !4185, !dbg !6678
	ret void, !dbg !6678
}
define linkonce_odr void @_ZNSt6vectorIN8projects23AlfvenSpeciesParametersESaIS1_EED1Ev(%struct._ZSt6vectorIN8projects23AlfvenSpeciesParametersESaIS1_EE* %_T42931096_52409.arg) #0 inlinehint !dbg !6680 {
L.entry:
	%_T42931096_52409.addr = alloca %struct._ZSt6vectorIN8projects23AlfvenSpeciesParametersESaIS1_EE*, align 8
	%..inline.addr = alloca %struct._ZSt12_Vector_baseIN8projects23AlfvenSpeciesParametersESaIS1_EE*, align 8
	%..inline.addr.1 = alloca %struct._ZN8projects23AlfvenSpeciesParametersE*, align 8

	call void @llvm.dbg.declare (metadata %struct._ZSt6vectorIN8projects23AlfvenSpeciesParametersESaIS1_EE** %_T42931096_52409.addr, metadata !6732, metadata !4177), !dbg !6681
	store %struct._ZSt6vectorIN8projects23AlfvenSpeciesParametersESaIS1_EE* %_T42931096_52409.arg, %struct._ZSt6vectorIN8projects23AlfvenSpeciesParametersESaIS1_EE** %_T42931096_52409.addr, align 8, !tbaa !4185
	call void @llvm.dbg.declare (metadata %struct._ZSt6vectorIN8projects23AlfvenSpeciesParametersESaIS1_EE** %_T42931096_52409.addr, metadata !6733, metadata !4177), !dbg !6681
	%0 = load %struct._ZSt6vectorIN8projects23AlfvenSpeciesParametersESaIS1_EE*, %struct._ZSt6vectorIN8projects23AlfvenSpeciesParametersESaIS1_EE** %_T42931096_52409.addr, align 8, !tbaa !4185, !dbg !6734
	%1 = bitcast %struct._ZSt6vectorIN8projects23AlfvenSpeciesParametersESaIS1_EE*  %0 to i8*, !dbg !6734
	%2 = bitcast %struct._ZSt12_Vector_baseIN8projects23AlfvenSpeciesParametersESaIS1_EE** %..inline.addr to i8**, !dbg !6734
	store i8*  %1, i8**  %2, align 8, !tbaa !4185, !dbg !6734
	%3 = load %struct._ZSt12_Vector_baseIN8projects23AlfvenSpeciesParametersESaIS1_EE*, %struct._ZSt12_Vector_baseIN8projects23AlfvenSpeciesParametersESaIS1_EE** %..inline.addr, align 8, !tbaa !4185, !dbg !6735
	%4 = bitcast %struct._ZSt12_Vector_baseIN8projects23AlfvenSpeciesParametersESaIS1_EE*  %3 to i8**, !dbg !6735
	%5 = load i8*, i8**  %4, align 8, !tbaa !4185, !dbg !6735
	%6 = icmp eq i8*  %5,  null, !dbg !6735
	br i1  %6, label %L..inline.73783, label %L.B1586, !dbg !6735
L.B1586:
	%7 = bitcast %struct._ZSt12_Vector_baseIN8projects23AlfvenSpeciesParametersESaIS1_EE*  %3 to i8**, !dbg !6735
	%8 = load i8*, i8**  %7, align 8, !tbaa !4185, !dbg !6735
	%9 = bitcast %struct._ZN8projects23AlfvenSpeciesParametersE** %..inline.addr.1 to i8**, !dbg !6735
	store i8*  %8, i8**  %9, align 8, !tbaa !4185, !dbg !6735
	%10 = load %struct._ZN8projects23AlfvenSpeciesParametersE*, %struct._ZN8projects23AlfvenSpeciesParametersE** %..inline.addr.1, align 8, !tbaa !4185, !dbg !6735
	%11 = bitcast %struct._ZN8projects23AlfvenSpeciesParametersE*  %10 to i8*, !dbg !6735
	call void  @_ZdlPv (i8*  %11) nounwind, !dbg !6735
	br label %L..inline.73783
L..inline.73783:
	ret void, !dbg !6734
}
define linkonce_odr void @_ZNSt6vectorIN8projects23AlfvenSpeciesParametersESaIS1_EED2Ev(%struct._ZSt6vectorIN8projects23AlfvenSpeciesParametersESaIS1_EE* %_T42931096_52410.arg) #0 inlinehint !dbg !6737 {
L.entry:
	%_T42931096_52410.addr = alloca %struct._ZSt6vectorIN8projects23AlfvenSpeciesParametersESaIS1_EE*, align 8
	%..inline.addr = alloca %struct._ZSt12_Vector_baseIN8projects23AlfvenSpeciesParametersESaIS1_EE*, align 8
	%..inline.addr.1 = alloca %struct._ZN8projects23AlfvenSpeciesParametersE*, align 8

	store %struct._ZSt6vectorIN8projects23AlfvenSpeciesParametersESaIS1_EE* %_T42931096_52410.arg, %struct._ZSt6vectorIN8projects23AlfvenSpeciesParametersESaIS1_EE** %_T42931096_52410.addr, align 8, !tbaa !4185
	%0 = load %struct._ZSt6vectorIN8projects23AlfvenSpeciesParametersESaIS1_EE*, %struct._ZSt6vectorIN8projects23AlfvenSpeciesParametersESaIS1_EE** %_T42931096_52410.addr, align 8, !tbaa !4185, !dbg !6793
	%1 = bitcast %struct._ZSt6vectorIN8projects23AlfvenSpeciesParametersESaIS1_EE*  %0 to i8*, !dbg !6793
	%2 = bitcast %struct._ZSt12_Vector_baseIN8projects23AlfvenSpeciesParametersESaIS1_EE** %..inline.addr to i8**, !dbg !6793
	store i8*  %1, i8**  %2, align 8, !tbaa !4185, !dbg !6793
	%3 = load %struct._ZSt12_Vector_baseIN8projects23AlfvenSpeciesParametersESaIS1_EE*, %struct._ZSt12_Vector_baseIN8projects23AlfvenSpeciesParametersESaIS1_EE** %..inline.addr, align 8, !tbaa !4185, !dbg !6793
	%4 = bitcast %struct._ZSt12_Vector_baseIN8projects23AlfvenSpeciesParametersESaIS1_EE*  %3 to i8**, !dbg !6793
	%5 = load i8*, i8**  %4, align 8, !tbaa !4185, !dbg !6793
	%6 = icmp eq i8*  %5,  null, !dbg !6793
	br i1  %6, label %L..inline.73887, label %L.B1589, !dbg !6793
L.B1589:
	%7 = bitcast %struct._ZSt12_Vector_baseIN8projects23AlfvenSpeciesParametersESaIS1_EE*  %3 to i8**, !dbg !6793
	%8 = load i8*, i8**  %7, align 8, !tbaa !4185, !dbg !6793
	%9 = bitcast %struct._ZN8projects23AlfvenSpeciesParametersE** %..inline.addr.1 to i8**, !dbg !6793
	store i8*  %8, i8**  %9, align 8, !tbaa !4185, !dbg !6793
	%10 = load %struct._ZN8projects23AlfvenSpeciesParametersE*, %struct._ZN8projects23AlfvenSpeciesParametersE** %..inline.addr.1, align 8, !tbaa !4185, !dbg !6793
	%11 = bitcast %struct._ZN8projects23AlfvenSpeciesParametersE*  %10 to i8*, !dbg !6793
	call void  @_ZdlPv (i8*  %11) nounwind, !dbg !6793
	br label %L..inline.73887
L..inline.73887:
	ret void, !dbg !6793
}

%struct._ZN9__gnu_cxx17__normal_iteratorIPN8projects23AlfvenSpeciesParametersESt6vectorIS2_SaIS2_EEEE = type <{ %struct._ZN8projects23AlfvenSpeciesParametersE*}> 

define linkonce_odr i64 @_ZNSt6vectorIN8projects23AlfvenSpeciesParametersESaIS1_EE5beginEv(%struct._ZSt6vectorIN8projects23AlfvenSpeciesParametersESaIS1_EE* %_T42931096_52412.arg) #0 inlinehint !dbg !6797 {
L.entry:
	%.X52412.addr = alloca %struct._ZN9__gnu_cxx17__normal_iteratorIPN8projects23AlfvenSpeciesParametersESt6vectorIS2_SaIS2_EEEE, align 8
	%_T42931096_52412.addr = alloca %struct._ZSt6vectorIN8projects23AlfvenSpeciesParametersESaIS1_EE*, align 8

	call void @llvm.dbg.declare (metadata %struct._ZSt6vectorIN8projects23AlfvenSpeciesParametersESaIS1_EE** %_T42931096_52412.addr, metadata !6805, metadata !4177), !dbg !6798
	store %struct._ZSt6vectorIN8projects23AlfvenSpeciesParametersESaIS1_EE* %_T42931096_52412.arg, %struct._ZSt6vectorIN8projects23AlfvenSpeciesParametersESaIS1_EE** %_T42931096_52412.addr, align 8, !tbaa !4185
	call void @llvm.dbg.declare (metadata %struct._ZSt6vectorIN8projects23AlfvenSpeciesParametersESaIS1_EE** %_T42931096_52412.addr, metadata !6806, metadata !4177), !dbg !6798
	%0 = load %struct._ZSt6vectorIN8projects23AlfvenSpeciesParametersESaIS1_EE*, %struct._ZSt6vectorIN8projects23AlfvenSpeciesParametersESaIS1_EE** %_T42931096_52412.addr, align 8, !tbaa !4185, !dbg !6807
	%1 = bitcast %struct._ZSt6vectorIN8projects23AlfvenSpeciesParametersESaIS1_EE*  %0 to i8**, !dbg !6807
	%2 = load i8*, i8**  %1, align 8, !tbaa !4185, !dbg !6807
	%3 = bitcast %struct._ZN9__gnu_cxx17__normal_iteratorIPN8projects23AlfvenSpeciesParametersESt6vectorIS2_SaIS2_EEEE* %.X52412.addr to i8**, !dbg !6807
	store i8*  %2, i8**  %3, align 8, !tbaa !4185, !dbg !6807
	%4 = bitcast %struct._ZN9__gnu_cxx17__normal_iteratorIPN8projects23AlfvenSpeciesParametersESt6vectorIS2_SaIS2_EEEE* %.X52412.addr to i64*, !dbg !6807
	%5 = load i64, i64*  %4, align 8, !tbaa !4184, !dbg !6807
	ret i64  %5, !dbg !6807
}
define linkonce_odr i64 @_ZNSt6vectorIN8projects23AlfvenSpeciesParametersESaIS1_EE3endEv(%struct._ZSt6vectorIN8projects23AlfvenSpeciesParametersESaIS1_EE* %_T42931096_52414.arg) #0 inlinehint !dbg !6809 {
L.entry:
	%.X52414.addr = alloca %struct._ZN9__gnu_cxx17__normal_iteratorIPN8projects23AlfvenSpeciesParametersESt6vectorIS2_SaIS2_EEEE, align 8
	%_T42931096_52414.addr = alloca %struct._ZSt6vectorIN8projects23AlfvenSpeciesParametersESaIS1_EE*, align 8

	call void @llvm.dbg.declare (metadata %struct._ZSt6vectorIN8projects23AlfvenSpeciesParametersESaIS1_EE** %_T42931096_52414.addr, metadata !6817, metadata !4177), !dbg !6810
	store %struct._ZSt6vectorIN8projects23AlfvenSpeciesParametersESaIS1_EE* %_T42931096_52414.arg, %struct._ZSt6vectorIN8projects23AlfvenSpeciesParametersESaIS1_EE** %_T42931096_52414.addr, align 8, !tbaa !4185
	call void @llvm.dbg.declare (metadata %struct._ZSt6vectorIN8projects23AlfvenSpeciesParametersESaIS1_EE** %_T42931096_52414.addr, metadata !6818, metadata !4177), !dbg !6810
	%0 = load %struct._ZSt6vectorIN8projects23AlfvenSpeciesParametersESaIS1_EE*, %struct._ZSt6vectorIN8projects23AlfvenSpeciesParametersESaIS1_EE** %_T42931096_52414.addr, align 8, !tbaa !4185, !dbg !6819
	%1 = bitcast %struct._ZSt6vectorIN8projects23AlfvenSpeciesParametersESaIS1_EE*  %0 to i8*, !dbg !6819
	%2 = getelementptr i8, i8*  %1, i64 8, !dbg !6819
	%3 = bitcast i8*  %2 to i8**, !dbg !6819
	%4 = load i8*, i8**  %3, align 8, !tbaa !4185, !dbg !6819
	%5 = bitcast %struct._ZN9__gnu_cxx17__normal_iteratorIPN8projects23AlfvenSpeciesParametersESt6vectorIS2_SaIS2_EEEE* %.X52414.addr to i8**, !dbg !6819
	store i8*  %4, i8**  %5, align 8, !tbaa !4185, !dbg !6819
	%6 = bitcast %struct._ZN9__gnu_cxx17__normal_iteratorIPN8projects23AlfvenSpeciesParametersESt6vectorIS2_SaIS2_EEEE* %.X52414.addr to i64*, !dbg !6819
	%7 = load i64, i64*  %6, align 8, !tbaa !4184, !dbg !6819
	ret i64  %7, !dbg !6819
}
define linkonce_odr i64 @_ZNKSt6vectorIN8projects23AlfvenSpeciesParametersESaIS1_EE4sizeEv(%struct._ZSt6vectorIN8projects23AlfvenSpeciesParametersESaIS1_EE* %_T42931096_52416.arg) #0 inlinehint !dbg !6823 {
L.entry:
	%_T42931096_52416.addr = alloca %struct._ZSt6vectorIN8projects23AlfvenSpeciesParametersESaIS1_EE*, align 8

	call void @llvm.dbg.declare (metadata %struct._ZSt6vectorIN8projects23AlfvenSpeciesParametersESaIS1_EE** %_T42931096_52416.addr, metadata !6827, metadata !4177), !dbg !6824
	store %struct._ZSt6vectorIN8projects23AlfvenSpeciesParametersESaIS1_EE* %_T42931096_52416.arg, %struct._ZSt6vectorIN8projects23AlfvenSpeciesParametersESaIS1_EE** %_T42931096_52416.addr, align 8, !tbaa !4185
	call void @llvm.dbg.declare (metadata %struct._ZSt6vectorIN8projects23AlfvenSpeciesParametersESaIS1_EE** %_T42931096_52416.addr, metadata !6828, metadata !4177), !dbg !6824
	%0 = load %struct._ZSt6vectorIN8projects23AlfvenSpeciesParametersESaIS1_EE*, %struct._ZSt6vectorIN8projects23AlfvenSpeciesParametersESaIS1_EE** %_T42931096_52416.addr, align 8, !tbaa !4185, !dbg !6829
	%1 = bitcast %struct._ZSt6vectorIN8projects23AlfvenSpeciesParametersESaIS1_EE*  %0 to i8*, !dbg !6829
	%2 = getelementptr i8, i8*  %1, i64 8, !dbg !6829
	%3 = bitcast i8*  %2 to i8**, !dbg !6829
	%4 = load i8*, i8**  %3, align 8, !tbaa !4185, !dbg !6829
	%5 = bitcast %struct._ZSt6vectorIN8projects23AlfvenSpeciesParametersESaIS1_EE*  %0 to i8**, !dbg !6829
	%6 = load i8*, i8**  %5, align 8, !tbaa !4185, !dbg !6829
	%7 = ptrtoint i8*  %6 to i64, !dbg !6829
	%8 = sub i64 0,  %7, !dbg !6829
	%9 = getelementptr i8, i8*  %4, i64  %8, !dbg !6829
	%10 = ptrtoint i8*  %9 to i64, !dbg !6829
	%11 = sext i32 5 to i64, !dbg !6829
	%12 = ashr i64  %10,  %11, !dbg !6829
	ret i64  %12, !dbg !6829
}
define linkonce_odr i64 @_ZNKSt6vectorIN8projects23AlfvenSpeciesParametersESaIS1_EE8max_sizeEv(%struct._ZSt6vectorIN8projects23AlfvenSpeciesParametersESaIS1_EE* %_T42931096_52418.arg) #0 inlinehint !dbg !6831 {
L.entry:
	%_T42931096_52418.addr = alloca %struct._ZSt6vectorIN8projects23AlfvenSpeciesParametersESaIS1_EE*, align 8
	%..inline.addr = alloca %struct._ZSaIN8projects23AlfvenSpeciesParametersEE*, align 8
	%_T42931984_52418.addr = alloca i64, align 8

	call void @llvm.dbg.declare (metadata %struct._ZSt6vectorIN8projects23AlfvenSpeciesParametersESaIS1_EE** %_T42931096_52418.addr, metadata !6839, metadata !4177), !dbg !6832
	store %struct._ZSt6vectorIN8projects23AlfvenSpeciesParametersESaIS1_EE* %_T42931096_52418.arg, %struct._ZSt6vectorIN8projects23AlfvenSpeciesParametersESaIS1_EE** %_T42931096_52418.addr, align 8, !tbaa !4185
	call void @llvm.dbg.declare (metadata %struct._ZSt6vectorIN8projects23AlfvenSpeciesParametersESaIS1_EE** %_T42931096_52418.addr, metadata !6840, metadata !4177), !dbg !6832
	%0 = load %struct._ZSt6vectorIN8projects23AlfvenSpeciesParametersESaIS1_EE*, %struct._ZSt6vectorIN8projects23AlfvenSpeciesParametersESaIS1_EE** %_T42931096_52418.addr, align 8, !tbaa !4185, !dbg !6841
	%1 = bitcast %struct._ZSt6vectorIN8projects23AlfvenSpeciesParametersESaIS1_EE*  %0 to i8*, !dbg !6841
	%2 = bitcast %struct._ZSaIN8projects23AlfvenSpeciesParametersEE** %..inline.addr to i8**, !dbg !6841
	store i8*  %1, i8**  %2, align 8, !tbaa !4185, !dbg !6841
	%3 = load %struct._ZSaIN8projects23AlfvenSpeciesParametersEE*, %struct._ZSaIN8projects23AlfvenSpeciesParametersEE** %..inline.addr, align 8, !tbaa !4185, !dbg !6842
	%4 = call i64  @_ZNSt6vectorIN8projects23AlfvenSpeciesParametersESaIS1_EE11_S_max_sizeERKS2_ (%struct._ZSaIN8projects23AlfvenSpeciesParametersEE*  %3) nounwind, !dbg !6842
	ret i64  %4, !dbg !6841
}
define linkonce_odr %struct._ZN8projects23AlfvenSpeciesParametersE* @_ZNKSt6vectorIN8projects23AlfvenSpeciesParametersESaIS1_EEixEm(%struct._ZSt6vectorIN8projects23AlfvenSpeciesParametersESaIS1_EE* %_T42931096_52421.arg, i64 %__n.arg) #0 inlinehint !dbg !6846 {
L.entry:
	%_T42931096_52421.addr = alloca %struct._ZSt6vectorIN8projects23AlfvenSpeciesParametersESaIS1_EE*, align 8
	%__n.addr = alloca i64, align 8

	call void @llvm.dbg.declare (metadata %struct._ZSt6vectorIN8projects23AlfvenSpeciesParametersESaIS1_EE** %_T42931096_52421.addr, metadata !6850, metadata !4177), !dbg !6847
	store %struct._ZSt6vectorIN8projects23AlfvenSpeciesParametersESaIS1_EE* %_T42931096_52421.arg, %struct._ZSt6vectorIN8projects23AlfvenSpeciesParametersESaIS1_EE** %_T42931096_52421.addr, align 8, !tbaa !4185
	call void @llvm.dbg.declare (metadata %struct._ZSt6vectorIN8projects23AlfvenSpeciesParametersESaIS1_EE** %_T42931096_52421.addr, metadata !6851, metadata !4177), !dbg !6847
	call void @llvm.dbg.declare (metadata i64* %__n.addr, metadata !6852, metadata !4177), !dbg !6847
	store i64 %__n.arg, i64* %__n.addr, align 8, !tbaa !4184
	call void @llvm.dbg.declare (metadata i64* %__n.addr, metadata !6853, metadata !4177), !dbg !6847
	%0 = load %struct._ZSt6vectorIN8projects23AlfvenSpeciesParametersESaIS1_EE*, %struct._ZSt6vectorIN8projects23AlfvenSpeciesParametersESaIS1_EE** %_T42931096_52421.addr, align 8, !tbaa !4185, !dbg !6854
	%1 = bitcast %struct._ZSt6vectorIN8projects23AlfvenSpeciesParametersESaIS1_EE*  %0 to i8**, !dbg !6854
	%2 = load i8*, i8**  %1, align 8, !tbaa !4185, !dbg !6854
	%3 = load i64, i64* %__n.addr, align 8, !tbaa !4270, !dbg !6854
	%4 = mul i64  %3, 32, !dbg !6854
	%5 = getelementptr i8, i8*  %2, i64  %4, !dbg !6854
	%6 = bitcast i8*  %5 to %struct._ZN8projects23AlfvenSpeciesParametersE*, !dbg !6854
	ret %struct._ZN8projects23AlfvenSpeciesParametersE*  %6, !dbg !6854
}
define linkonce_odr void @_ZNSt6vectorIN8projects23AlfvenSpeciesParametersESaIS1_EE9push_backERKS1_(%struct._ZSt6vectorIN8projects23AlfvenSpeciesParametersESaIS1_EE* %_T42931096_52422.arg, %struct._ZN8projects23AlfvenSpeciesParametersE* %__x.arg) #0 inlinehint !dbg !6859 {
L.entry:
	%_T42931096_52422.addr = alloca %struct._ZSt6vectorIN8projects23AlfvenSpeciesParametersESaIS1_EE*, align 8
	%__x.addr = alloca %struct._ZN8projects23AlfvenSpeciesParametersE*, align 8
	%..inline.addr = alloca %struct._ZN8projects23AlfvenSpeciesParametersE*, align 8
	%..inline.addr.1 = alloca %struct._ZN8projects23AlfvenSpeciesParametersE*, align 8
	%..inline.addr.2 = alloca %struct._ZN9__gnu_cxx17__normal_iteratorIPN8projects23AlfvenSpeciesParametersESt6vectorIS2_SaIS2_EEEE, align 8

	call void @llvm.dbg.declare (metadata %struct._ZSt6vectorIN8projects23AlfvenSpeciesParametersESaIS1_EE** %_T42931096_52422.addr, metadata !6891, metadata !4177), !dbg !6860
	store %struct._ZSt6vectorIN8projects23AlfvenSpeciesParametersESaIS1_EE* %_T42931096_52422.arg, %struct._ZSt6vectorIN8projects23AlfvenSpeciesParametersESaIS1_EE** %_T42931096_52422.addr, align 8, !tbaa !4185
	call void @llvm.dbg.declare (metadata %struct._ZSt6vectorIN8projects23AlfvenSpeciesParametersESaIS1_EE** %_T42931096_52422.addr, metadata !6892, metadata !4177), !dbg !6860
	call void @llvm.dbg.declare (metadata %struct._ZN8projects23AlfvenSpeciesParametersE** %__x.addr, metadata !6893, metadata !4177), !dbg !6860
	store %struct._ZN8projects23AlfvenSpeciesParametersE* %__x.arg, %struct._ZN8projects23AlfvenSpeciesParametersE** %__x.addr, align 8, !tbaa !4185
	call void @llvm.dbg.declare (metadata %struct._ZN8projects23AlfvenSpeciesParametersE** %__x.addr, metadata !6894, metadata !4177), !dbg !6860
	%0 = load %struct._ZSt6vectorIN8projects23AlfvenSpeciesParametersESaIS1_EE*, %struct._ZSt6vectorIN8projects23AlfvenSpeciesParametersESaIS1_EE** %_T42931096_52422.addr, align 8, !tbaa !4185, !dbg !6895
	%1 = bitcast %struct._ZSt6vectorIN8projects23AlfvenSpeciesParametersESaIS1_EE*  %0 to i8*, !dbg !6895
	%2 = getelementptr i8, i8*  %1, i64 8, !dbg !6895
	%3 = bitcast i8*  %2 to i8**, !dbg !6895
	%4 = load i8*, i8**  %3, align 8, !tbaa !4185, !dbg !6895
	%5 = getelementptr i8, i8*  %1, i64 16, !dbg !6895
	%6 = bitcast i8*  %5 to i8**, !dbg !6895
	%7 = load i8*, i8**  %6, align 8, !tbaa !4185, !dbg !6895
	%8 = icmp eq i8*  %4,  %7, !dbg !6895
	br i1  %8, label %L.B0021, label %L.B1600, !dbg !6895
L.B1600:
	%9 = bitcast %struct._ZSt6vectorIN8projects23AlfvenSpeciesParametersESaIS1_EE*  %0 to i8*, !dbg !6896
	%10 = getelementptr i8, i8*  %9, i64 8, !dbg !6896
	%11 = bitcast i8*  %10 to i8**, !dbg !6896
	%12 = load i8*, i8**  %11, align 8, !tbaa !4185, !dbg !6896
	%13 = bitcast %struct._ZN8projects23AlfvenSpeciesParametersE** %..inline.addr to i8**, !dbg !6896
	store i8*  %12, i8**  %13, align 8, !tbaa !4185, !dbg !6896
	%14 = load %struct._ZN8projects23AlfvenSpeciesParametersE*, %struct._ZN8projects23AlfvenSpeciesParametersE** %..inline.addr, align 8, !tbaa !4185, !dbg !6896
	%15 = bitcast %struct._ZN8projects23AlfvenSpeciesParametersE*  %14 to i8*, !dbg !6896
	%16 = icmp eq i8*  %15,  null, !dbg !6896
	br i1  %16, label %L..inline.74030, label %L.B1601, !dbg !6896
L.B1601:
	%17 = load %struct._ZN8projects23AlfvenSpeciesParametersE*, %struct._ZN8projects23AlfvenSpeciesParametersE** %__x.addr, align 8, !tbaa !4185, !dbg !6896
	%18 = bitcast %struct._ZN8projects23AlfvenSpeciesParametersE*  %17 to i8*, !dbg !6896
	%19 = bitcast %struct._ZN8projects23AlfvenSpeciesParametersE** %..inline.addr.1 to i8**, !dbg !6896
	store i8*  %18, i8**  %19, align 8, !tbaa !4185, !dbg !6896
	%20 = load %struct._ZN8projects23AlfvenSpeciesParametersE*, %struct._ZN8projects23AlfvenSpeciesParametersE** %..inline.addr.1, align 8, !tbaa !4185, !dbg !6896
	%21 = bitcast %struct._ZN8projects23AlfvenSpeciesParametersE*  %20 to double*, !dbg !6896
	%22 = load double, double*  %21, align 8, !tbaa !4184, !dbg !6896
	%23 = bitcast %struct._ZN8projects23AlfvenSpeciesParametersE*  %14 to double*, !dbg !6896
	store double  %22, double*  %23, align 8, !tbaa !4184, !dbg !6896
	%24 = bitcast double*  %21 to i8*, !dbg !6896
	%25 = getelementptr i8, i8*  %24, i64 8, !dbg !6896
	%26 = bitcast i8*  %25 to double*, !dbg !6896
	%27 = load double, double*  %26, align 8, !tbaa !4184, !dbg !6896
	%28 = bitcast double*  %23 to i8*, !dbg !6896
	%29 = getelementptr i8, i8*  %28, i64 8, !dbg !6896
	%30 = bitcast i8*  %29 to double*, !dbg !6896
	store double  %27, double*  %30, align 8, !tbaa !4184, !dbg !6896
	%31 = getelementptr i8, i8*  %24, i64 16, !dbg !6896
	%32 = bitcast i8*  %31 to double*, !dbg !6896
	%33 = load double, double*  %32, align 8, !tbaa !4184, !dbg !6896
	%34 = getelementptr i8, i8*  %28, i64 16, !dbg !6896
	%35 = bitcast i8*  %34 to double*, !dbg !6896
	store double  %33, double*  %35, align 8, !tbaa !4184, !dbg !6896
	%36 = getelementptr i8, i8*  %24, i64 24, !dbg !6896
	%37 = bitcast i8*  %36 to i32*, !dbg !6896
	%38 = load i32, i32*  %37, align 4, !tbaa !4184, !dbg !6896
	%39 = getelementptr i8, i8*  %28, i64 24, !dbg !6896
	%40 = bitcast i8*  %39 to i32*, !dbg !6896
	store i32  %38, i32*  %40, align 4, !tbaa !4184, !dbg !6896
	br label %L..inline.74039, !dbg !6896
L..inline.74030:
	br label %L..inline.74039
L..inline.74039:
	%41 = load %struct._ZSt6vectorIN8projects23AlfvenSpeciesParametersESaIS1_EE*, %struct._ZSt6vectorIN8projects23AlfvenSpeciesParametersESaIS1_EE** %_T42931096_52422.addr, align 8, !tbaa !4185, !dbg !6897
	%42 = bitcast %struct._ZSt6vectorIN8projects23AlfvenSpeciesParametersESaIS1_EE*  %41 to i8*, !dbg !6897
	%43 = getelementptr i8, i8*  %42, i64 8, !dbg !6897
	%44 = bitcast i8*  %43 to i8**, !dbg !6897
	%45 = load i8*, i8**  %44, align 8, !tbaa !4185, !dbg !6897
	%46 = getelementptr i8, i8*  %45, i64 32, !dbg !6897
	store i8*  %46, i8**  %44, align 8, !tbaa !4185, !dbg !6897
	br label %L.B0022, !dbg !6898
L.B0021:
	%47 = load %struct._ZSt6vectorIN8projects23AlfvenSpeciesParametersESaIS1_EE*, %struct._ZSt6vectorIN8projects23AlfvenSpeciesParametersESaIS1_EE** %_T42931096_52422.addr, align 8, !tbaa !4185, !dbg !6899
	%48 = bitcast %struct._ZSt6vectorIN8projects23AlfvenSpeciesParametersESaIS1_EE*  %47 to i8*, !dbg !6899
	%49 = getelementptr i8, i8*  %48, i64 8, !dbg !6899
	%50 = bitcast i8*  %49 to i8**, !dbg !6899
	%51 = load i8*, i8**  %50, align 8, !tbaa !4185, !dbg !6899
	%52 = bitcast %struct._ZN9__gnu_cxx17__normal_iteratorIPN8projects23AlfvenSpeciesParametersESt6vectorIS2_SaIS2_EEEE* %..inline.addr.2 to i8**, !dbg !6899
	store i8*  %51, i8**  %52, align 8, !tbaa !4185, !dbg !6899
	%53 = bitcast %struct._ZN9__gnu_cxx17__normal_iteratorIPN8projects23AlfvenSpeciesParametersESt6vectorIS2_SaIS2_EEEE* %..inline.addr.2 to i64*, !dbg !6899
	%54 = load i64, i64*  %53, align 8, !tbaa !4184, !dbg !6899
	%55 = load %struct._ZN8projects23AlfvenSpeciesParametersE*, %struct._ZN8projects23AlfvenSpeciesParametersE** %__x.addr, align 8, !tbaa !4185, !dbg !6899
	call void  @_ZNSt6vectorIN8projects23AlfvenSpeciesParametersESaIS1_EE17_M_realloc_insertIJRKS1_EEEvN9__gnu_cxx17__normal_iteratorIPS1_S3_EEDpOT_ (%struct._ZSt6vectorIN8projects23AlfvenSpeciesParametersESaIS1_EE*  %47, i64  %54, %struct._ZN8projects23AlfvenSpeciesParametersE*  %55), !dbg !6899
	br label %L.B0022
L.B0022:
	ret void, !dbg !6900
}
define linkonce_odr i64 @_ZNKSt6vectorIN8projects23AlfvenSpeciesParametersESaIS1_EE12_M_check_lenEmPKc(%struct._ZSt6vectorIN8projects23AlfvenSpeciesParametersESaIS1_EE* %_T42931096_52425.arg, i64 %__n.arg, i8* %__s.arg) #0 inlinehint !dbg !6904 {
L.entry:
	%_T42931096_52425.addr = alloca %struct._ZSt6vectorIN8projects23AlfvenSpeciesParametersESaIS1_EE*, align 8
	%__n.addr = alloca i64, align 8
	%__s.addr = alloca i8*, align 8
	%..inline.addr = alloca %struct._ZSaIN8projects23AlfvenSpeciesParametersEE*, align 8
	%..inline.addr.1 = alloca i64, align 8
	%_T42932576_52425.addr = alloca i64, align 8
	%..inline.addr.2 = alloca i64*, align 8
	%__len.addr = alloca i64, align 8
	%..inline.addr.3 = alloca %struct._ZSaIN8projects23AlfvenSpeciesParametersEE*, align 8
	%..inline.addr.4 = alloca i64, align 8
	%..inline.addr.5 = alloca %struct._ZSaIN8projects23AlfvenSpeciesParametersEE*, align 8
	%..inline.addr.6 = alloca i64, align 8
	%.I0006.addr = alloca i64, align 8

	call void @llvm.dbg.declare (metadata %struct._ZSt6vectorIN8projects23AlfvenSpeciesParametersESaIS1_EE** %_T42931096_52425.addr, metadata !6952, metadata !4177), !dbg !6905
	store %struct._ZSt6vectorIN8projects23AlfvenSpeciesParametersESaIS1_EE* %_T42931096_52425.arg, %struct._ZSt6vectorIN8projects23AlfvenSpeciesParametersESaIS1_EE** %_T42931096_52425.addr, align 8, !tbaa !4185
	call void @llvm.dbg.declare (metadata %struct._ZSt6vectorIN8projects23AlfvenSpeciesParametersESaIS1_EE** %_T42931096_52425.addr, metadata !6953, metadata !4177), !dbg !6905
	call void @llvm.dbg.declare (metadata i64* %__n.addr, metadata !6954, metadata !4177), !dbg !6905
	store i64 %__n.arg, i64* %__n.addr, align 8, !tbaa !4184
	call void @llvm.dbg.declare (metadata i64* %__n.addr, metadata !6955, metadata !4177), !dbg !6905
	call void @llvm.dbg.declare (metadata i8** %__s.addr, metadata !6956, metadata !4177), !dbg !6905
	store i8* %__s.arg, i8** %__s.addr, align 8, !tbaa !4185
	call void @llvm.dbg.declare (metadata i8** %__s.addr, metadata !6957, metadata !4177), !dbg !6905
	%0 = load %struct._ZSt6vectorIN8projects23AlfvenSpeciesParametersESaIS1_EE*, %struct._ZSt6vectorIN8projects23AlfvenSpeciesParametersESaIS1_EE** %_T42931096_52425.addr, align 8, !tbaa !4185, !dbg !6958
	%1 = bitcast %struct._ZSt6vectorIN8projects23AlfvenSpeciesParametersESaIS1_EE*  %0 to i8*, !dbg !6958
	%2 = bitcast %struct._ZSaIN8projects23AlfvenSpeciesParametersEE** %..inline.addr to i8**, !dbg !6958
	store i8*  %1, i8**  %2, align 8, !tbaa !4185, !dbg !6958
	%3 = load %struct._ZSaIN8projects23AlfvenSpeciesParametersEE*, %struct._ZSaIN8projects23AlfvenSpeciesParametersEE** %..inline.addr, align 8, !tbaa !4185, !dbg !6958
	%4 = call i64  @_ZNSt6vectorIN8projects23AlfvenSpeciesParametersESaIS1_EE11_S_max_sizeERKS2_ (%struct._ZSaIN8projects23AlfvenSpeciesParametersEE*  %3) nounwind, !dbg !6958
	%5 = load %struct._ZSt6vectorIN8projects23AlfvenSpeciesParametersESaIS1_EE*, %struct._ZSt6vectorIN8projects23AlfvenSpeciesParametersESaIS1_EE** %_T42931096_52425.addr, align 8, !tbaa !4185, !dbg !6959
	%6 = bitcast %struct._ZSt6vectorIN8projects23AlfvenSpeciesParametersESaIS1_EE*  %5 to i8*, !dbg !6959
	%7 = getelementptr i8, i8*  %6, i64 8, !dbg !6959
	%8 = bitcast i8*  %7 to i8**, !dbg !6959
	%9 = load i8*, i8**  %8, align 8, !tbaa !4185, !dbg !6959
	%10 = bitcast %struct._ZSt6vectorIN8projects23AlfvenSpeciesParametersESaIS1_EE*  %5 to i8**, !dbg !6959
	%11 = load i8*, i8**  %10, align 8, !tbaa !4185, !dbg !6959
	%12 = ptrtoint i8*  %11 to i64, !dbg !6959
	%13 = sub i64 0,  %12, !dbg !6959
	%14 = getelementptr i8, i8*  %9, i64  %13, !dbg !6959
	%15 = ptrtoint i8*  %14 to i64, !dbg !6959
	%16 = sext i32 5 to i64, !dbg !6959
	%17 = ashr i64  %15,  %16, !dbg !6959
	%18 = sub i64  %4,  %17, !dbg !6959
	%19 = load i64, i64* %__n.addr, align 8, !tbaa !4270, !dbg !6959
	%20 = icmp uge i64  %18,  %19, !dbg !6959
	br i1  %20, label %L.B0023, label %L.B1618, !dbg !6959
L.B1618:
	%21 = load i8*, i8** %__s.addr, align 8, !tbaa !4185, !dbg !6960
	call void  @_ZSt20__throw_length_errorPKc (i8*  %21) noreturn, !dbg !6960
	br label %L.B0023
L.B0023:
	%22 = load %struct._ZSt6vectorIN8projects23AlfvenSpeciesParametersESaIS1_EE*, %struct._ZSt6vectorIN8projects23AlfvenSpeciesParametersESaIS1_EE** %_T42931096_52425.addr, align 8, !tbaa !4185, !dbg !6959
	%23 = bitcast %struct._ZSt6vectorIN8projects23AlfvenSpeciesParametersESaIS1_EE*  %22 to i8*, !dbg !6959
	%24 = getelementptr i8, i8*  %23, i64 8, !dbg !6959
	%25 = bitcast i8*  %24 to i8**, !dbg !6959
	%26 = load i8*, i8**  %25, align 8, !tbaa !4185, !dbg !6959
	%27 = bitcast %struct._ZSt6vectorIN8projects23AlfvenSpeciesParametersESaIS1_EE*  %22 to i8**, !dbg !6959
	%28 = load i8*, i8**  %27, align 8, !tbaa !4185, !dbg !6959
	%29 = ptrtoint i8*  %28 to i64, !dbg !6959
	%30 = sub i64 0,  %29, !dbg !6959
	%31 = getelementptr i8, i8*  %26, i64  %30, !dbg !6959
	%32 = ptrtoint i8*  %31 to i64, !dbg !6959
	%33 = sext i32 5 to i64, !dbg !6959
	%34 = ashr i64  %32,  %33, !dbg !6959
	store i64  %34, i64* %_T42932576_52425.addr, align 8, !tbaa !4270, !dbg !6959
	%35 = load i64, i64* %__n.addr, align 8, !tbaa !4270, !dbg !6959
	%36 = icmp uge i64  %34,  %35, !dbg !6959
	%37 = zext i1  %36 to i32, !dbg !6959
	%38 = trunc i32  %37 to i1, !dbg !6959
	%39 = bitcast i64* %_T42932576_52425.addr to i8*, !dbg !6959
	%40 = bitcast i64* %__n.addr to i8*, !dbg !6959
	%41 = select i1  %38, i8*  %39, i8*  %40, !dbg !6959
	%42 = bitcast i64** %..inline.addr.2 to i8**, !dbg !6959
	store i8*  %41, i8**  %42, align 8, !tbaa !4185, !dbg !6959
	%43 = load i64*, i64** %..inline.addr.2, align 8, !tbaa !4185, !dbg !6961
	%44 = load i64, i64*  %43, align 8, !tbaa !4184, !dbg !6961
	%45 = sub i64 0,  %29, !dbg !6961
	%46 = getelementptr i8, i8*  %26, i64  %45, !dbg !6961
	%47 = ptrtoint i8*  %46 to i64, !dbg !6961
	%48 = sext i32 5 to i64, !dbg !6961
	%49 = ashr i64  %47,  %48, !dbg !6961
	%50 = add i64  %44,  %49, !dbg !6961
	call void @llvm.dbg.declare (metadata i64* %__len.addr, metadata !6962, metadata !4177), !dbg !6905
	store i64  %50, i64* %__len.addr, align 8, !tbaa !4270, !dbg !6961
	%51 = load i64*, i64** %..inline.addr.2, align 8, !tbaa !4185, !dbg !6959
	%52 = load i64, i64*  %51, align 8, !tbaa !4184, !dbg !6959
	%53 = load %struct._ZSt6vectorIN8projects23AlfvenSpeciesParametersESaIS1_EE*, %struct._ZSt6vectorIN8projects23AlfvenSpeciesParametersESaIS1_EE** %_T42931096_52425.addr, align 8, !tbaa !4185, !dbg !6959
	%54 = bitcast %struct._ZSt6vectorIN8projects23AlfvenSpeciesParametersESaIS1_EE*  %53 to i8*, !dbg !6959
	%55 = getelementptr i8, i8*  %54, i64 8, !dbg !6959
	%56 = bitcast i8*  %55 to i8**, !dbg !6959
	%57 = load i8*, i8**  %56, align 8, !tbaa !4185, !dbg !6959
	%58 = bitcast %struct._ZSt6vectorIN8projects23AlfvenSpeciesParametersESaIS1_EE*  %53 to i8**, !dbg !6959
	%59 = load i8*, i8**  %58, align 8, !tbaa !4185, !dbg !6959
	%60 = ptrtoint i8*  %59 to i64, !dbg !6959
	%61 = sub i64 0,  %60, !dbg !6959
	%62 = getelementptr i8, i8*  %57, i64  %61, !dbg !6959
	%63 = ptrtoint i8*  %62 to i64, !dbg !6959
	%64 = sext i32 5 to i64, !dbg !6959
	%65 = ashr i64  %63,  %64, !dbg !6959
	%66 = add i64  %52,  %65, !dbg !6959
	%67 = sub i64 0,  %60, !dbg !6959
	%68 = getelementptr i8, i8*  %57, i64  %67, !dbg !6959
	%69 = ptrtoint i8*  %68 to i64, !dbg !6959
	%70 = sext i32 5 to i64, !dbg !6959
	%71 = ashr i64  %69,  %70, !dbg !6959
	%72 = icmp ult i64  %66,  %71, !dbg !6959
	br i1  %72, label %L.B0026, label %L.B1619, !dbg !6959
L.B1619:
	%73 = bitcast %struct._ZSt6vectorIN8projects23AlfvenSpeciesParametersESaIS1_EE*  %53 to i8*, !dbg !6958
	%74 = bitcast %struct._ZSaIN8projects23AlfvenSpeciesParametersEE** %..inline.addr.3 to i8**, !dbg !6958
	store i8*  %73, i8**  %74, align 8, !tbaa !4185, !dbg !6958
	%75 = load %struct._ZSaIN8projects23AlfvenSpeciesParametersEE*, %struct._ZSaIN8projects23AlfvenSpeciesParametersEE** %..inline.addr.3, align 8, !tbaa !4185, !dbg !6958
	%76 = call i64  @_ZNSt6vectorIN8projects23AlfvenSpeciesParametersESaIS1_EE11_S_max_sizeERKS2_ (%struct._ZSaIN8projects23AlfvenSpeciesParametersEE*  %75) nounwind, !dbg !6958
	%77 = load i64, i64* %__len.addr, align 8, !tbaa !4270, !dbg !6958
	%78 = icmp ule i64  %77,  %76, !dbg !6958
	br i1  %78, label %L.B0024, label %L.B0026, !dbg !6958
L.B0026:
	%79 = load %struct._ZSt6vectorIN8projects23AlfvenSpeciesParametersESaIS1_EE*, %struct._ZSt6vectorIN8projects23AlfvenSpeciesParametersESaIS1_EE** %_T42931096_52425.addr, align 8, !tbaa !4185, !dbg !6958
	%80 = bitcast %struct._ZSt6vectorIN8projects23AlfvenSpeciesParametersESaIS1_EE*  %79 to i8*, !dbg !6958
	%81 = bitcast %struct._ZSaIN8projects23AlfvenSpeciesParametersEE** %..inline.addr.5 to i8**, !dbg !6958
	store i8*  %80, i8**  %81, align 8, !tbaa !4185, !dbg !6958
	%82 = load %struct._ZSaIN8projects23AlfvenSpeciesParametersEE*, %struct._ZSaIN8projects23AlfvenSpeciesParametersEE** %..inline.addr.5, align 8, !tbaa !4185, !dbg !6958
	%83 = call i64  @_ZNSt6vectorIN8projects23AlfvenSpeciesParametersESaIS1_EE11_S_max_sizeERKS2_ (%struct._ZSaIN8projects23AlfvenSpeciesParametersEE*  %82) nounwind, !dbg !6958
	store i64  %83, i64* %.I0006.addr, align 8, !tbaa !4270, !dbg !6958
	br label %L.B0025, !dbg !6963
L.B0024:
	%84 = load i64, i64* %__len.addr, align 8, !tbaa !4270, !dbg !6963
	store i64  %84, i64* %.I0006.addr, align 8, !tbaa !4270, !dbg !6963
	br label %L.B0025
L.B0025:
	%85 = load i64, i64* %.I0006.addr, align 8, !tbaa !4270, !dbg !6963
	ret i64  %85, !dbg !6963
}

%astruct.dt64 = type <{ i8*, i32}> 

define linkonce_odr i64 @_ZNSt6vectorIN8projects23AlfvenSpeciesParametersESaIS1_EE11_S_max_sizeERKS2_(%struct._ZSaIN8projects23AlfvenSpeciesParametersEE* %__a.arg) #0 inlinehint personality i8* bitcast (i32 (...)* @__gxx_personality_v0 to i8*) !dbg !6972 {
L.entry:
	%__a.addr = alloca %struct._ZSaIN8projects23AlfvenSpeciesParametersEE*, align 8

	call void @llvm.dbg.declare (metadata %struct._ZSaIN8projects23AlfvenSpeciesParametersEE** %__a.addr, metadata !6988, metadata !4177), !dbg !6973
	store %struct._ZSaIN8projects23AlfvenSpeciesParametersEE* %__a.arg, %struct._ZSaIN8projects23AlfvenSpeciesParametersEE** %__a.addr, align 8, !tbaa !4185
	call void @llvm.dbg.declare (metadata %struct._ZSaIN8projects23AlfvenSpeciesParametersEE** %__a.addr, metadata !6989, metadata !4177), !dbg !6973
	ret i64 288230376151711743, !dbg !6990
L.B1624:
	br label %L.R0111, !dbg !6990
L_T42933056_52427:
	%0 = landingpad %astruct.dt64
	cleanup
	br label %L.R0111
L.R0111:
	ret i64 0
}

%struct._ZN9__gnu_cxx13new_allocatorIN8projects23AlfvenSpeciesParametersEEE = type <{ [1 x i8]}> 

define linkonce_odr void @_ZNSt6vectorIN8projects23AlfvenSpeciesParametersESaIS1_EE17_M_realloc_insertIJRKS1_EEEvN9__gnu_cxx17__normal_iteratorIPS1_S3_EEDpOT_(%struct._ZSt6vectorIN8projects23AlfvenSpeciesParametersESaIS1_EE* %_T42931096_52429.arg, i64 %__position.coerce, %struct._ZN8projects23AlfvenSpeciesParametersE* %__args.arg) #0 inlinehint personality i8* bitcast (i32 (...)* @__gxx_personality_v0 to i8*) !dbg !6997 {
L.entry:
	%_T42931096_52429.addr = alloca %struct._ZSt6vectorIN8projects23AlfvenSpeciesParametersESaIS1_EE*, align 8
	%__position.addr = alloca %struct._ZN9__gnu_cxx17__normal_iteratorIPN8projects23AlfvenSpeciesParametersESt6vectorIS2_SaIS2_EEEE, align 8
	%__args.addr = alloca %struct._ZN8projects23AlfvenSpeciesParametersE*, align 8
	%..inline.addr = alloca %struct._ZSt6vectorIN8projects23AlfvenSpeciesParametersESaIS1_EE*, align 8
	%..inline.addr.1 = alloca i64, align 8
	%..inline.addr.2 = alloca i8*, align 8
	%..inline.addr.3 = alloca %struct._ZSt6vectorIN8projects23AlfvenSpeciesParametersESaIS1_EE*, align 8
	%..inline.addr.4 = alloca %struct._ZSt12_Vector_baseIN8projects23AlfvenSpeciesParametersESaIS1_EE*, align 8
	%..inline.addr.5 = alloca %struct._ZSaIN8projects23AlfvenSpeciesParametersEE*, align 8
	%..inline.addr.6 = alloca i64, align 8
	%..inline.addr.7 = alloca i64, align 8
	%..inline.addr.8 = alloca %struct._ZSt6vectorIN8projects23AlfvenSpeciesParametersESaIS1_EE*, align 8
	%..inline.addr.9 = alloca i64, align 8
	%..inline.addr.160 = alloca i64, align 8
	%..inline.addr.170 = alloca %struct._ZSt6vectorIN8projects23AlfvenSpeciesParametersESaIS1_EE*, align 8
	%..inline.addr.180 = alloca i64, align 8
	%..inline.addr.190 = alloca i64, align 8
	%..inline.addr.200 = alloca i64, align 8
	%..inline.addr.210 = alloca %struct._ZSt6vectorIN8projects23AlfvenSpeciesParametersESaIS1_EE*, align 8
	%..inline.addr.220 = alloca i64, align 8
	%..inline.addr.230 = alloca i64, align 8
	%..inline.addr.240 = alloca i64*, align 8
	%..inline.addr.250 = alloca i64, align 8
	%..inline.addr.260 = alloca %struct._ZSt6vectorIN8projects23AlfvenSpeciesParametersESaIS1_EE*, align 8
	%..inline.addr.270 = alloca i64, align 8
	%..inline.addr.280 = alloca i64, align 8
	%..inline.addr.290 = alloca %struct._ZSt6vectorIN8projects23AlfvenSpeciesParametersESaIS1_EE*, align 8
	%..inline.addr.300 = alloca %struct._ZSt12_Vector_baseIN8projects23AlfvenSpeciesParametersESaIS1_EE*, align 8
	%..inline.addr.310 = alloca %struct._ZSaIN8projects23AlfvenSpeciesParametersEE*, align 8
	%..inline.addr.320 = alloca i64, align 8
	%..inline.addr.330 = alloca i64, align 8
	%..inline.addr.340 = alloca %struct._ZSt6vectorIN8projects23AlfvenSpeciesParametersESaIS1_EE*, align 8
	%..inline.addr.350 = alloca %struct._ZSt12_Vector_baseIN8projects23AlfvenSpeciesParametersESaIS1_EE*, align 8
	%..inline.addr.360 = alloca %struct._ZSaIN8projects23AlfvenSpeciesParametersEE*, align 8
	%..inline.addr.370 = alloca i64, align 8
	%..inline.addr.380 = alloca i64, align 8
	%..inline.addr.390 = alloca i64, align 8
	%..inline.addr.400 = alloca i64, align 8
	%__len.addr = alloca i64, align 8
	%__old_start.addr = alloca %struct._ZN8projects23AlfvenSpeciesParametersE*, align 8
	%__old_finish.addr = alloca %struct._ZN8projects23AlfvenSpeciesParametersE*, align 8
	%..inline.addr.440 = alloca %struct._ZSt6vectorIN8projects23AlfvenSpeciesParametersESaIS1_EE*, align 8
	%..inline.addr.450 = alloca %struct._ZN8projects23AlfvenSpeciesParametersE**, align 8
	%..inline.addr.460 = alloca %struct._ZN9__gnu_cxx17__normal_iteratorIPN8projects23AlfvenSpeciesParametersESt6vectorIS2_SaIS2_EEEE, align 8
	%..inline.addr.470 = alloca %struct._ZN9__gnu_cxx17__normal_iteratorIPN8projects23AlfvenSpeciesParametersESt6vectorIS2_SaIS2_EEEE, align 8
	%_T42933760_52429.addr = alloca %struct._ZN9__gnu_cxx17__normal_iteratorIPN8projects23AlfvenSpeciesParametersESt6vectorIS2_SaIS2_EEEE, align 8
	%..inline.addr.490 = alloca %struct._ZN9__gnu_cxx17__normal_iteratorIPN8projects23AlfvenSpeciesParametersESt6vectorIS2_SaIS2_EEEE*, align 8
	%..inline.addr.500 = alloca %struct._ZN9__gnu_cxx17__normal_iteratorIPN8projects23AlfvenSpeciesParametersESt6vectorIS2_SaIS2_EEEE*, align 8
	%..inline.addr.510 = alloca i64, align 8
	%..inline.addr.520 = alloca i64, align 8
	%__elems_before.addr = alloca i64, align 8
	%..inline.addr.540 = alloca %struct._ZSt12_Vector_baseIN8projects23AlfvenSpeciesParametersESaIS1_EE*, align 8
	%..inline.addr.550 = alloca i64, align 8
	%..inline.addr.560 = alloca %struct._ZSaIN8projects23AlfvenSpeciesParametersEE*, align 8
	%..inline.addr.570 = alloca i64, align 8
	%..inline.addr.580 = alloca %struct._ZN9__gnu_cxx13new_allocatorIN8projects23AlfvenSpeciesParametersEEE*, align 8
	%..inline.addr.590 = alloca i64, align 8
	%..inline.addr.600 = alloca i64, align 8
	%.Q0002.addr = alloca i8*, align 8
	%..inline.addr.620 = alloca %struct._ZN8projects23AlfvenSpeciesParametersE*, align 8
	%__new_start.addr = alloca %struct._ZN8projects23AlfvenSpeciesParametersE*, align 8
	%__new_finish.addr = alloca %struct._ZN8projects23AlfvenSpeciesParametersE*, align 8
	%..inline.addr.650 = alloca %struct._ZN8projects23AlfvenSpeciesParametersE*, align 8
	%..inline.addr.660 = alloca %struct._ZN8projects23AlfvenSpeciesParametersE*, align 8
	%..inline.addr.670 = alloca %struct._ZSaIN8projects23AlfvenSpeciesParametersEE*, align 8
	%..inline.addr.680 = alloca %struct._ZN8projects23AlfvenSpeciesParametersE*, align 8
	%..inline.addr.690 = alloca %struct._ZN8projects23AlfvenSpeciesParametersE*, align 8
	%..inline.addr.700 = alloca %struct._ZN8projects23AlfvenSpeciesParametersE*, align 8
	%..inline.addr.710 = alloca %struct._ZN8projects23AlfvenSpeciesParametersE*, align 8
	%..inline.addr.720 = alloca %struct._ZN8projects23AlfvenSpeciesParametersE*, align 8
	%..inline.addr.730 = alloca %struct._ZN8projects23AlfvenSpeciesParametersE*, align 8
	%..inline.addr.740 = alloca i64, align 8
	%..inline.addr.750 = alloca i8*, align 8
	%..inline.addr.760 = alloca i8*, align 8
	%..inline.addr.770 = alloca i8*, align 8
	%..inline.addr.780 = alloca %struct._ZN8projects23AlfvenSpeciesParametersE*, align 8
	%..inline.addr.790 = alloca %struct._ZN8projects23AlfvenSpeciesParametersE*, align 8
	%..inline.addr.800 = alloca %struct._ZN8projects23AlfvenSpeciesParametersE*, align 8
	%..inline.addr.810 = alloca %struct._ZN8projects23AlfvenSpeciesParametersE*, align 8
	%..inline.addr.820 = alloca %struct._ZSt12_Vector_baseIN8projects23AlfvenSpeciesParametersESaIS1_EE*, align 8
	%..inline.addr.830 = alloca %struct._ZSaIN8projects23AlfvenSpeciesParametersEE*, align 8
	%..inline.addr.840 = alloca %struct._ZN8projects23AlfvenSpeciesParametersE*, align 8
	%..inline.addr.850 = alloca %struct._ZN8projects23AlfvenSpeciesParametersE*, align 8
	%..inline.addr.860 = alloca %struct._ZN8projects23AlfvenSpeciesParametersE*, align 8
	%..inline.addr.870 = alloca %struct._ZSaIN8projects23AlfvenSpeciesParametersEE*, align 8
	%..inline.addr.880 = alloca %struct._ZSt17integral_constantIbLb1EE, align 1
	%..inline.addr.890 = alloca %struct._ZN8projects23AlfvenSpeciesParametersE*, align 8
	%..inline.addr.900 = alloca %struct._ZN8projects23AlfvenSpeciesParametersE*, align 8
	%..inline.addr.910 = alloca %struct._ZN8projects23AlfvenSpeciesParametersE*, align 8
	%..inline.addr.920 = alloca %struct._ZSaIN8projects23AlfvenSpeciesParametersEE*, align 8
	%..inline.addr.930 = alloca %struct._ZSt17integral_constantIbLb1EE, align 1
	%..inline.addr.940 = alloca %struct._ZN8projects23AlfvenSpeciesParametersE*, align 8
	%..inline.addr.950 = alloca %struct._ZN8projects23AlfvenSpeciesParametersE*, align 8
	%..inline.addr.960 = alloca %struct._ZN8projects23AlfvenSpeciesParametersE*, align 8
	%..inline.addr.970 = alloca %struct._ZSaIN8projects23AlfvenSpeciesParametersEE*, align 8
	%..inline.addr.980 = alloca %struct._ZN8projects23AlfvenSpeciesParametersE*, align 8
	%..inline.addr.990 = alloca %struct._ZN8projects23AlfvenSpeciesParametersE*, align 8
	%..inline.addr.1000 = alloca %struct._ZN8projects23AlfvenSpeciesParametersE*, align 8
	%..inline.addr.1010 = alloca %struct._ZN8projects23AlfvenSpeciesParametersE*, align 8
	%..inline.addr.1020 = alloca %struct._ZN8projects23AlfvenSpeciesParametersE*, align 8
	%..inline.addr.1030 = alloca %struct._ZN8projects23AlfvenSpeciesParametersE*, align 8
	%..inline.addr.1040 = alloca %struct._ZN8projects23AlfvenSpeciesParametersE*, align 8
	%..inline.addr.1050 = alloca %struct._ZN8projects23AlfvenSpeciesParametersE*, align 8
	%..inline.addr.1060 = alloca %struct._ZN8projects23AlfvenSpeciesParametersE*, align 8
	%..inline.addr.1070 = alloca i64, align 8
	%..inline.addr.1080 = alloca %struct._ZN8projects23AlfvenSpeciesParametersE*, align 8
	%..inline.addr.1090 = alloca %struct._ZN8projects23AlfvenSpeciesParametersE*, align 8
	%..inline.addr.1100 = alloca %struct._ZN8projects23AlfvenSpeciesParametersE*, align 8
	%..inline.addr.1110 = alloca %struct._ZN8projects23AlfvenSpeciesParametersE*, align 8
	%..inline.addr.1120 = alloca %struct._ZSt12_Vector_baseIN8projects23AlfvenSpeciesParametersESaIS1_EE*, align 8
	%..inline.addr.1130 = alloca %struct._ZSaIN8projects23AlfvenSpeciesParametersEE*, align 8
	%..inline.addr.1140 = alloca %struct._ZN8projects23AlfvenSpeciesParametersE*, align 8
	%..inline.addr.1150 = alloca %struct._ZN8projects23AlfvenSpeciesParametersE*, align 8
	%..inline.addr.1160 = alloca %struct._ZN8projects23AlfvenSpeciesParametersE*, align 8
	%..inline.addr.1170 = alloca %struct._ZSaIN8projects23AlfvenSpeciesParametersEE*, align 8
	%..inline.addr.1180 = alloca %struct._ZSt17integral_constantIbLb1EE, align 1
	%..inline.addr.1190 = alloca %struct._ZN8projects23AlfvenSpeciesParametersE*, align 8
	%..inline.addr.1200 = alloca %struct._ZN8projects23AlfvenSpeciesParametersE*, align 8
	%..inline.addr.1210 = alloca %struct._ZN8projects23AlfvenSpeciesParametersE*, align 8
	%..inline.addr.1220 = alloca %struct._ZSaIN8projects23AlfvenSpeciesParametersEE*, align 8
	%..inline.addr.1230 = alloca %struct._ZSt17integral_constantIbLb1EE, align 1
	%..inline.addr.1240 = alloca %struct._ZN8projects23AlfvenSpeciesParametersE*, align 8
	%..inline.addr.1250 = alloca %struct._ZN8projects23AlfvenSpeciesParametersE*, align 8
	%..inline.addr.1260 = alloca %struct._ZN8projects23AlfvenSpeciesParametersE*, align 8
	%..inline.addr.1270 = alloca %struct._ZSaIN8projects23AlfvenSpeciesParametersEE*, align 8
	%..inline.addr.1280 = alloca %struct._ZN8projects23AlfvenSpeciesParametersE*, align 8
	%..inline.addr.1290 = alloca %struct._ZN8projects23AlfvenSpeciesParametersE*, align 8
	%..inline.addr.1300 = alloca %struct._ZN8projects23AlfvenSpeciesParametersE*, align 8
	%..inline.addr.1310 = alloca %struct._ZN8projects23AlfvenSpeciesParametersE*, align 8
	%..inline.addr.1320 = alloca %struct._ZN8projects23AlfvenSpeciesParametersE*, align 8
	%..inline.addr.1330 = alloca %struct._ZN8projects23AlfvenSpeciesParametersE*, align 8
	%..inline.addr.1340 = alloca %struct._ZN8projects23AlfvenSpeciesParametersE*, align 8
	%..inline.addr.1350 = alloca %struct._ZN8projects23AlfvenSpeciesParametersE*, align 8
	%..inline.addr.1360 = alloca %struct._ZN8projects23AlfvenSpeciesParametersE*, align 8
	%..inline.addr.1370 = alloca i64, align 8
	%..inline.addr.1380 = alloca %struct._ZN8projects23AlfvenSpeciesParametersE*, align 8
	%..inline.addr.1390 = alloca %struct._ZN8projects23AlfvenSpeciesParametersE*, align 8
	%..inline.addr.1400 = alloca %struct._ZN8projects23AlfvenSpeciesParametersE*, align 8
	%..inline.addr.1410 = alloca %struct._ZN8projects23AlfvenSpeciesParametersE*, align 8
	%..inline.addr.1420 = alloca %struct._ZSt12_Vector_baseIN8projects23AlfvenSpeciesParametersESaIS1_EE*, align 8
	%..inline.addr.1430 = alloca %struct._ZSaIN8projects23AlfvenSpeciesParametersEE*, align 8
	%..inline.addr.1440 = alloca %struct._ZSt12_Vector_baseIN8projects23AlfvenSpeciesParametersESaIS1_EE*, align 8
	%..inline.addr.1450 = alloca %struct._ZSaIN8projects23AlfvenSpeciesParametersEE*, align 8
	%..inline.addr.1460 = alloca %struct._ZSt12_Vector_baseIN8projects23AlfvenSpeciesParametersESaIS1_EE*, align 8
	%..inline.addr.1470 = alloca %struct._ZSaIN8projects23AlfvenSpeciesParametersEE*, align 8
	%..inline.addr.1480 = alloca %struct._ZN8projects23AlfvenSpeciesParametersE*, align 8
	%..inline.addr.1490 = alloca %struct._ZN8projects23AlfvenSpeciesParametersE*, align 8
	%..inline.addr.1500 = alloca %struct._ZN8projects23AlfvenSpeciesParametersE*, align 8
	%..inline.addr.1510 = alloca %struct._ZN8projects23AlfvenSpeciesParametersE*, align 8
	%..inline.addr.1520 = alloca %struct._ZSt12_Vector_baseIN8projects23AlfvenSpeciesParametersESaIS1_EE*, align 8
	%..inline.addr.1530 = alloca %struct._ZN8projects23AlfvenSpeciesParametersE*, align 8
	%..inline.addr.1540 = alloca i64, align 8
	%..inline.addr.1550 = alloca %struct._ZSaIN8projects23AlfvenSpeciesParametersEE*, align 8
	%..inline.addr.1560 = alloca %struct._ZN8projects23AlfvenSpeciesParametersE*, align 8
	%..inline.addr.1570 = alloca i64, align 8
	%..inline.addr.1580 = alloca %struct._ZN8projects23AlfvenSpeciesParametersE*, align 8
	%__caught_object_address.addr = alloca i8*, align 8
	%__catch_clause_number.addr = alloca i32, align 4
	%..inline.addr.1610 = alloca %struct._ZSaIN8projects23AlfvenSpeciesParametersEE*, align 8
	%..inline.addr.1620 = alloca %struct._ZN8projects23AlfvenSpeciesParametersE*, align 8
	%..inline.addr.1630 = alloca %struct._ZSt12_Vector_baseIN8projects23AlfvenSpeciesParametersESaIS1_EE*, align 8
	%..inline.addr.1640 = alloca %struct._ZSaIN8projects23AlfvenSpeciesParametersEE*, align 8
	%..inline.addr.1650 = alloca %struct._ZN8projects23AlfvenSpeciesParametersE*, align 8
	%..inline.addr.1660 = alloca %struct._ZN8projects23AlfvenSpeciesParametersE*, align 8
	%..inline.addr.1670 = alloca %struct._ZN8projects23AlfvenSpeciesParametersE*, align 8
	%..inline.addr.1680 = alloca %struct._ZN8projects23AlfvenSpeciesParametersE*, align 8
	%..inline.addr.1690 = alloca %struct._ZSt12_Vector_baseIN8projects23AlfvenSpeciesParametersESaIS1_EE*, align 8
	%..inline.addr.1700 = alloca %struct._ZN8projects23AlfvenSpeciesParametersE*, align 8
	%..inline.addr.1710 = alloca i64, align 8
	%..inline.addr.1720 = alloca %struct._ZSaIN8projects23AlfvenSpeciesParametersEE*, align 8
	%..inline.addr.1730 = alloca %struct._ZN8projects23AlfvenSpeciesParametersE*, align 8
	%..inline.addr.1740 = alloca i64, align 8
	%..inline.addr.1750 = alloca %struct._ZN8projects23AlfvenSpeciesParametersE*, align 8

	call void @llvm.dbg.declare (metadata %struct._ZSt6vectorIN8projects23AlfvenSpeciesParametersESaIS1_EE** %_T42931096_52429.addr, metadata !7263, metadata !4177), !dbg !6998
	store %struct._ZSt6vectorIN8projects23AlfvenSpeciesParametersESaIS1_EE* %_T42931096_52429.arg, %struct._ZSt6vectorIN8projects23AlfvenSpeciesParametersESaIS1_EE** %_T42931096_52429.addr, align 8
	call void @llvm.dbg.declare (metadata %struct._ZSt6vectorIN8projects23AlfvenSpeciesParametersESaIS1_EE** %_T42931096_52429.addr, metadata !7264, metadata !4177), !dbg !6998
	call void @llvm.dbg.declare (metadata %struct._ZN9__gnu_cxx17__normal_iteratorIPN8projects23AlfvenSpeciesParametersESt6vectorIS2_SaIS2_EEEE* %__position.addr, metadata !7265, metadata !4177), !dbg !6998
	%0 = bitcast %struct._ZN9__gnu_cxx17__normal_iteratorIPN8projects23AlfvenSpeciesParametersESt6vectorIS2_SaIS2_EEEE* %__position.addr to i64*
	store i64 %__position.coerce, i64*  %0, align 8
	call void @llvm.dbg.declare (metadata %struct._ZN9__gnu_cxx17__normal_iteratorIPN8projects23AlfvenSpeciesParametersESt6vectorIS2_SaIS2_EEEE* %__position.addr, metadata !7266, metadata !4177), !dbg !6998
	call void @llvm.dbg.declare (metadata %struct._ZN8projects23AlfvenSpeciesParametersE** %__args.addr, metadata !7267, metadata !4177), !dbg !6998
	store %struct._ZN8projects23AlfvenSpeciesParametersE* %__args.arg, %struct._ZN8projects23AlfvenSpeciesParametersE** %__args.addr, align 8
	call void @llvm.dbg.declare (metadata %struct._ZN8projects23AlfvenSpeciesParametersE** %__args.addr, metadata !7268, metadata !4177), !dbg !6998
	%1 = load %struct._ZSt6vectorIN8projects23AlfvenSpeciesParametersESaIS1_EE*, %struct._ZSt6vectorIN8projects23AlfvenSpeciesParametersESaIS1_EE** %_T42931096_52429.addr, align 8, !dbg !7269
