; ModuleID = 'amr_refinement_criteria.cpp'
target datalayout = "e-p:64:64-i64:64-f80:128-n8:16:32:64-S128"
target triple = "x86_64-pc-linux-gnu"
define internal void @pgCplus_compiled.() noinline {
L.entry:
	ret void
}


define linkonce_odr i8* @_ZnwmPv(i64 %_T21923152_52594.arg, i8* %__p.arg) #0 inlinehint !dbg !3912 {
L.entry:
	%_T21923152_52594.addr = alloca i64, align 8
	%__p.addr = alloca i8*, align 8

	call void @llvm.dbg.declare (metadata i64* %_T21923152_52594.addr, metadata !3916, metadata !3917), !dbg !3913
	store i64 %_T21923152_52594.arg, i64* %_T21923152_52594.addr, align 8, !tbaa !3924
	call void @llvm.dbg.declare (metadata i64* %_T21923152_52594.addr, metadata !3918, metadata !3917), !dbg !3913
	call void @llvm.dbg.declare (metadata i8** %__p.addr, metadata !3919, metadata !3917), !dbg !3913
	store i8* %__p.arg, i8** %__p.addr, align 8, !tbaa !3925
	call void @llvm.dbg.declare (metadata i8** %__p.addr, metadata !3920, metadata !3917), !dbg !3913
	%0 = load i8*, i8** %__p.addr, align 8, !tbaa !3925, !dbg !3921
	ret i8*  %0, !dbg !3921
}
define linkonce_odr void @_ZdlPvS_(i8* %_T21923152_52595.arg, i8* %_T21923448_52595.arg) #0 inlinehint !dbg !3929 {
L.entry:
	%_T21923152_52595.addr = alloca i8*, align 8
	%_T21923448_52595.addr = alloca i8*, align 8

	call void @llvm.dbg.declare (metadata i8** %_T21923152_52595.addr, metadata !3933, metadata !3917), !dbg !3930
	store i8* %_T21923152_52595.arg, i8** %_T21923152_52595.addr, align 8, !tbaa !3925
	call void @llvm.dbg.declare (metadata i8** %_T21923152_52595.addr, metadata !3934, metadata !3917), !dbg !3930
	call void @llvm.dbg.declare (metadata i8** %_T21923448_52595.addr, metadata !3935, metadata !3917), !dbg !3930
	store i8* %_T21923448_52595.arg, i8** %_T21923448_52595.addr, align 8, !tbaa !3925
	call void @llvm.dbg.declare (metadata i8** %_T21923448_52595.addr, metadata !3936, metadata !3917), !dbg !3930
	ret void, !dbg !3937
}

%struct._ZSt4pairISt17_Rb_tree_iteratorIS_IKNSt7__cxx1112basic_stringIcSt11char_traitsIcESaIcEEEPFPN16amr_ref_criteria4BaseEvEEEbE = type <{ %struct._ZSt17_Rb_tree_iteratorISt4pairIKNSt7__cxx1112basic_stringIcSt11char_traitsIcESaIcEEEPFPN16amr_ref_criteria4BaseEvEEE, i8, [7 x i8]}> 
%struct._ZSt4pairINSt7__cxx1112basic_stringIcSt11char_traitsIcESaIcEEEPFPN16amr_ref_criteria4BaseEvEE = type <{ %struct._ZNSt7__cxx1112basic_stringIcSt11char_traitsIcESaIcEEE, %struct._ZN16amr_ref_criteria4BaseE* ()*}> 
%struct._ZSt8_Rb_treeINSt7__cxx1112basic_stringIcSt11char_traitsIcESaIcEEESt4pairIKS5_PFPN16amr_ref_criteria4BaseEvEESt10_Select1stISD_ESt4lessIS5_ESaISD_EE = type <{ %struct._ZNSt8_Rb_treeINSt7__cxx1112basic_stringIcSt11char_traitsIcESaIcEEESt4pairIKS5_PFPN16amr_ref_criteria4BaseEvEESt10_Select1stISD_ESt4lessIS5_ESaISD_EE13_Rb_tree_implISH_Lb1EEE}> 
%struct._ZSt3mapINSt7__cxx1112basic_stringIcSt11char_traitsIcESaIcEEEPFPN16amr_ref_criteria4BaseEvESt4lessIS5_ESaISt4pairIKS5_SA_EEE = type <{ %struct._ZSt8_Rb_treeINSt7__cxx1112basic_stringIcSt11char_traitsIcESaIcEEESt4pairIKS5_PFPN16amr_ref_criteria4BaseEvEESt10_Select1stISD_ESt4lessIS5_ESaISD_EE}> 
%struct._ZSt26random_access_iterator_tag = type <{ [1 x i8]}> 
%union.__C6 = type <{ [16 x i8]}> 
%struct._Z13ObjectFactoryIN16amr_ref_criteria4BaseEE = type <{ %struct._ZSt3mapINSt7__cxx1112basic_stringIcSt11char_traitsIcESaIcEEEPFPN16amr_ref_criteria4BaseEvESt4lessIS5_ESaISt4pairIKS5_SA_EEE}> 
%struct._ZNSt7__cxx1112basic_stringIcSt11char_traitsIcESaIcEE12_Alloc_hiderE = type <{ i8*}> 
%struct._ZN16amr_ref_criteria4BaseE = type <{ i32 (...)* (...)*}> 
%struct._ZSt4lessINSt7__cxx1112basic_stringIcSt11char_traitsIcESaIcEEEE = type <{ [1 x i8]}> 
%struct._ZSt17_Rb_tree_iteratorISt4pairIKNSt7__cxx1112basic_stringIcSt11char_traitsIcESaIcEEEPFPN16amr_ref_criteria4BaseEvEEE = type <{ %struct._ZSt18_Rb_tree_node_base*}> 
%struct._ZNSt8_Rb_treeINSt7__cxx1112basic_stringIcSt11char_traitsIcESaIcEEESt4pairIKS5_PFPN16amr_ref_criteria4BaseEvEESt10_Select1stISD_ESt4lessIS5_ESaISD_EE13_Rb_tree_implISH_Lb1EEE = type <{ %struct._ZSt20_Rb_tree_key_compareISt4lessINSt7__cxx1112basic_stringIcSt11char_traitsIcESaIcEEEEE, [7 x i8], %struct._ZSt15_Rb_tree_header}> 
%struct._ZNSt7__cxx1112basic_stringIcSt11char_traitsIcESaIcEEE = type <{ %struct._ZNSt7__cxx1112basic_stringIcSt11char_traitsIcESaIcEE12_Alloc_hiderE, i64, %union.__C6}> 
%struct._ZSt20_Rb_tree_key_compareISt4lessINSt7__cxx1112basic_stringIcSt11char_traitsIcESaIcEEEEE = type <{ %struct._ZSt4lessINSt7__cxx1112basic_stringIcSt11char_traitsIcESaIcEEEE}> 
%struct._ZSt15_Rb_tree_header = type <{ %struct._ZSt18_Rb_tree_node_base, i64}> 
%astruct.dt64 = type <{ i8*, i32}> 
%struct._ZSt18_Rb_tree_node_base = type <{ i32, [4 x i8], %struct._ZSt18_Rb_tree_node_base*, %struct._ZSt18_Rb_tree_node_base*, %struct._ZSt18_Rb_tree_node_base*}> 

define linkonce_odr signext i8 @_ZN13ObjectFactoryIN16amr_ref_criteria4BaseEE3addERKNSt7__cxx1112basic_stringIcSt11char_traitsIcESaIcEEEPFPS1_vE(%struct._Z13ObjectFactoryIN16amr_ref_criteria4BaseEE* %_T21338800_52602.arg, %struct._ZNSt7__cxx1112basic_stringIcSt11char_traitsIcESaIcEEE* %name.arg, %struct._ZN16amr_ref_criteria4BaseE* ()* %maker.arg) #0 inlinehint personality i8* bitcast (i32 (...)* @__gxx_personality_v0 to i8*) !dbg !3950 {
L.entry:
	%_T21338800_52602.addr = alloca %struct._Z13ObjectFactoryIN16amr_ref_criteria4BaseEE*, align 8
	%name.addr = alloca %struct._ZNSt7__cxx1112basic_stringIcSt11char_traitsIcESaIcEEE*, align 8
	%maker.addr = alloca %struct._ZN16amr_ref_criteria4BaseE* ()*, align 8
	%..inline.addr = alloca %struct._ZNSt7__cxx1112basic_stringIcSt11char_traitsIcESaIcEEE*, align 8
	%_T21340280_52602.addr = alloca %struct._ZSt4pairINSt7__cxx1112basic_stringIcSt11char_traitsIcESaIcEEEPFPN16amr_ref_criteria4BaseEvEE, align 8
	%..inline.addr.1 = alloca i8*, align 8
	%..inline.addr.2 = alloca i8*, align 8
	%....inline.__FILL_CHARARRAY.addr = alloca [1 x i8], align 1
	%....inline.__FILL_CHARARRAY.addr.1 = alloca [1 x i8], align 1
	%..inline.addr.3 = alloca %struct._ZSt26random_access_iterator_tag, align 1
	%..inline.addr.4 = alloca %struct._ZSt3mapINSt7__cxx1112basic_stringIcSt11char_traitsIcESaIcEEEPFPN16amr_ref_criteria4BaseEvESt4lessIS5_ESaISt4pairIKS5_SA_EEE*, align 8
	%..inline.addr.5 = alloca %struct._ZSt4pairISt17_Rb_tree_iteratorIS_IKNSt7__cxx1112basic_stringIcSt11char_traitsIcESaIcEEEPFPN16amr_ref_criteria4BaseEvEEEbE, align 8
	%..inline.addr.6 = alloca %struct._ZSt4pairISt17_Rb_tree_iteratorIS_IKNSt7__cxx1112basic_stringIcSt11char_traitsIcESaIcEEEPFPN16amr_ref_criteria4BaseEvEEEbE, align 8
	%_T21340576_52602.addr = alloca i8, align 1
	%..inline.addr.7 = alloca i8*, align 8
	%__caught_object_address.addr = alloca i8*, align 8
	%__catch_clause_number.addr = alloca i32, align 4
	%..inline.addr.8 = alloca i8*, align 8

	call void @llvm.dbg.declare (metadata %struct._Z13ObjectFactoryIN16amr_ref_criteria4BaseEE** %_T21338800_52602.addr, metadata !4162, metadata !3917), !dbg !3951
	store %struct._Z13ObjectFactoryIN16amr_ref_criteria4BaseEE* %_T21338800_52602.arg, %struct._Z13ObjectFactoryIN16amr_ref_criteria4BaseEE** %_T21338800_52602.addr, align 8, !tbaa !3925
	call void @llvm.dbg.declare (metadata %struct._Z13ObjectFactoryIN16amr_ref_criteria4BaseEE** %_T21338800_52602.addr, metadata !4163, metadata !3917), !dbg !3951
	call void @llvm.dbg.declare (metadata %struct._ZNSt7__cxx1112basic_stringIcSt11char_traitsIcESaIcEEE** %name.addr, metadata !4164, metadata !3917), !dbg !3951
	store %struct._ZNSt7__cxx1112basic_stringIcSt11char_traitsIcESaIcEEE* %name.arg, %struct._ZNSt7__cxx1112basic_stringIcSt11char_traitsIcESaIcEEE** %name.addr, align 8, !tbaa !3925
	call void @llvm.dbg.declare (metadata %struct._ZNSt7__cxx1112basic_stringIcSt11char_traitsIcESaIcEEE** %name.addr, metadata !4165, metadata !3917), !dbg !3951
	call void @llvm.dbg.declare (metadata %struct._ZN16amr_ref_criteria4BaseE* ()** %maker.addr, metadata !4166, metadata !3917), !dbg !3951
	store %struct._ZN16amr_ref_criteria4BaseE* ()* %maker.arg, %struct._ZN16amr_ref_criteria4BaseE* ()** %maker.addr, align 8, !tbaa !3925
	call void @llvm.dbg.declare (metadata %struct._ZN16amr_ref_criteria4BaseE* ()** %maker.addr, metadata !4167, metadata !3917), !dbg !3951
	%0 = load %struct._ZNSt7__cxx1112basic_stringIcSt11char_traitsIcESaIcEEE*, %struct._ZNSt7__cxx1112basic_stringIcSt11char_traitsIcESaIcEEE** %name.addr, align 8, !tbaa !3925, !dbg !4168
	%1 = bitcast %struct._ZNSt7__cxx1112basic_stringIcSt11char_traitsIcESaIcEEE*  %0 to i8*, !dbg !4168
	%2 = bitcast %struct._ZNSt7__cxx1112basic_stringIcSt11char_traitsIcESaIcEEE** %..inline.addr to i8**, !dbg !4168
	store i8*  %1, i8**  %2, align 8, !tbaa !3925, !dbg !4168
	%3 = bitcast %struct._ZSt4pairINSt7__cxx1112basic_stringIcSt11char_traitsIcESaIcEEEPFPN16amr_ref_criteria4BaseEvEE* %_T21340280_52602.addr to i8*, !dbg !4168
	%4 = getelementptr i8, i8*  %3, i64 16, !dbg !4168
	%5 = bitcast %struct._ZSt4pairINSt7__cxx1112basic_stringIcSt11char_traitsIcESaIcEEEPFPN16amr_ref_criteria4BaseEvEE* %_T21340280_52602.addr to i8**, !dbg !4168
	store i8*  %4, i8**  %5, align 8, !tbaa !3925, !dbg !4168
	%6 = load %struct._ZNSt7__cxx1112basic_stringIcSt11char_traitsIcESaIcEEE*, %struct._ZNSt7__cxx1112basic_stringIcSt11char_traitsIcESaIcEEE** %..inline.addr, align 8, !tbaa !3925, !dbg !4168
	%7 = bitcast %struct._ZNSt7__cxx1112basic_stringIcSt11char_traitsIcESaIcEEE*  %6 to i8**, !dbg !4168
	%8 = load i8*, i8**  %7, align 8, !tbaa !3925, !dbg !4168
	store i8*  %8, i8** %..inline.addr.1, align 8, !tbaa !3925, !dbg !4168
	%9 = bitcast %struct._ZNSt7__cxx1112basic_stringIcSt11char_traitsIcESaIcEEE*  %6 to i8*, !dbg !4168
	%10 = getelementptr i8, i8*  %9, i64 8, !dbg !4168
	%11 = bitcast i8*  %10 to i64*, !dbg !4168
	%12 = load i64, i64*  %11, align 8, !tbaa !3924, !dbg !4168
	%13 = getelementptr i8, i8*  %8, i64  %12, !dbg !4168
	store i8*  %13, i8** %..inline.addr.2, align 8, !tbaa !3925, !dbg !4168
	call void @llvm.dbg.declare (metadata [1 x i8]* %....inline.__FILL_CHARARRAY.addr, metadata !4170, metadata !3917), !dbg !3953
	%14 = bitcast [1 x i8]* %....inline.__FILL_CHARARRAY.addr to i8*, !dbg !4169
	%15 = load i8, i8*  %14, align 1, !tbaa !3924, !dbg !4169
	%16 = zext i8  %15 to i32, !dbg !4169
	%17 = trunc i32  %16 to i8, !dbg !4169
	call void @llvm.dbg.declare (metadata [1 x i8]* %....inline.__FILL_CHARARRAY.addr.1, metadata !4170, metadata !3917), !dbg !3953
	%18 = bitcast [1 x i8]* %....inline.__FILL_CHARARRAY.addr.1 to i8*, !dbg !4169
	store i8  %17, i8*  %18, align 1, !tbaa !3924, !dbg !4169
	%19 = bitcast %struct._ZSt4pairINSt7__cxx1112basic_stringIcSt11char_traitsIcESaIcEEEPFPN16amr_ref_criteria4BaseEvEE* %_T21340280_52602.addr to %struct._ZNSt7__cxx1112basic_stringIcSt11char_traitsIcESaIcEEE*, !dbg !4168
	%20 = load i8*, i8** %..inline.addr.1, align 8, !tbaa !3925, !dbg !4168
	%21 = load i8*, i8** %..inline.addr.2, align 8, !tbaa !3925, !dbg !4168
	%22 = bitcast %struct._ZSt26random_access_iterator_tag* %..inline.addr.3 to i8*, !dbg !4168
	%23 = load i8, i8*  %22, align 1, !tbaa !3924, !dbg !4168
	call void  @_ZNSt7__cxx1112basic_stringIcSt11char_traitsIcESaIcEE12_M_constructIPcEEvT_S7_St20forward_iterator_tag (%struct._ZNSt7__cxx1112basic_stringIcSt11char_traitsIcESaIcEEE*  %19, i8*  %20, i8*  %21, i8  %23), !dbg !4168
	%24 = load %struct._ZN16amr_ref_criteria4BaseE* ()*, %struct._ZN16amr_ref_criteria4BaseE* ()** %maker.addr, align 8, !tbaa !3925, !dbg !4168
	%25 = bitcast %struct._ZN16amr_ref_criteria4BaseE* ()*  %24 to i8*, !dbg !4168
	%26 = getelementptr i8, i8*  %3, i64 32, !dbg !4168
	%27 = bitcast i8*  %26 to i8**, !dbg !4168
	store i8*  %25, i8**  %27, align 8, !tbaa !3925, !dbg !4168
	%28 = load %struct._Z13ObjectFactoryIN16amr_ref_criteria4BaseEE*, %struct._Z13ObjectFactoryIN16amr_ref_criteria4BaseEE** %_T21338800_52602.addr, align 8, !tbaa !3925, !dbg !4171
	%29 = bitcast %struct._Z13ObjectFactoryIN16amr_ref_criteria4BaseEE*  %28 to i8*, !dbg !4171
	%30 = bitcast %struct._ZSt3mapINSt7__cxx1112basic_stringIcSt11char_traitsIcESaIcEEEPFPN16amr_ref_criteria4BaseEvESt4lessIS5_ESaISt4pairIKS5_SA_EEE** %..inline.addr.4 to i8**, !dbg !4171
	store i8*  %29, i8**  %30, align 8, !tbaa !3925, !dbg !4171
	%31 = load %struct._ZSt3mapINSt7__cxx1112basic_stringIcSt11char_traitsIcESaIcEEEPFPN16amr_ref_criteria4BaseEvESt4lessIS5_ESaISt4pairIKS5_SA_EEE*, %struct._ZSt3mapINSt7__cxx1112basic_stringIcSt11char_traitsIcESaIcEEEPFPN16amr_ref_criteria4BaseEvESt4lessIS5_ESaISt4pairIKS5_SA_EEE** %..inline.addr.4, align 8, !tbaa !3925, !dbg !4172
	%32 = bitcast %struct._ZSt3mapINSt7__cxx1112basic_stringIcSt11char_traitsIcESaIcEEEPFPN16amr_ref_criteria4BaseEvESt4lessIS5_ESaISt4pairIKS5_SA_EEE*  %31 to %struct._ZSt8_Rb_treeINSt7__cxx1112basic_stringIcSt11char_traitsIcESaIcEEESt4pairIKS5_PFPN16amr_ref_criteria4BaseEvEESt10_Select1stISD_ESt4lessIS5_ESaISD_EE*, !dbg !4172
	%33 = invoke {i64, i64}  @_ZNSt8_Rb_treeINSt7__cxx1112basic_stringIcSt11char_traitsIcESaIcEEESt4pairIKS5_PFPN16amr_ref_criteria4BaseEvEESt10_Select1stISD_ESt4lessIS5_ESaISD_EE17_M_emplace_uniqueIJS6_IS5_SC_EEEES6_ISt17_Rb_tree_iteratorISD_EbEDpOT_ (%struct._ZSt8_Rb_treeINSt7__cxx1112basic_stringIcSt11char_traitsIcESaIcEEESt4pairIKS5_PFPN16amr_ref_criteria4BaseEvEESt10_Select1stISD_ESt4lessIS5_ESaISD_EE*  %32, %struct._ZSt4pairINSt7__cxx1112basic_stringIcSt11char_traitsIcESaIcEEEPFPN16amr_ref_criteria4BaseEvEE* %_T21340280_52602.addr)
		to label %L.B1102
		unwind label %L_T21341168_52602, !dbg !4172
L.B1102:
	%34 = bitcast %struct._ZSt4pairISt17_Rb_tree_iteratorIS_IKNSt7__cxx1112basic_stringIcSt11char_traitsIcESaIcEEEPFPN16amr_ref_criteria4BaseEvEEEbE* %..inline.addr.5 to {i64, i64}*, !dbg !4172
	store {i64, i64}  %33, {i64, i64}*  %34, align 8, !tbaa !3924, !dbg !4172
	%35 = bitcast %struct._ZSt4pairISt17_Rb_tree_iteratorIS_IKNSt7__cxx1112basic_stringIcSt11char_traitsIcESaIcEEEPFPN16amr_ref_criteria4BaseEvEEEbE* %..inline.addr.5 to i64*, !dbg !4169
	%36 = load i64, i64*  %35, align 8, !tbaa !3924, !dbg !4169
	%37 = bitcast %struct._ZSt4pairISt17_Rb_tree_iteratorIS_IKNSt7__cxx1112basic_stringIcSt11char_traitsIcESaIcEEEPFPN16amr_ref_criteria4BaseEvEEEbE* %..inline.addr.6 to i64*, !dbg !4169
	store i64  %36, i64*  %37, align 8, !tbaa !3924, !dbg !4169
	%38 = bitcast %struct._ZSt4pairISt17_Rb_tree_iteratorIS_IKNSt7__cxx1112basic_stringIcSt11char_traitsIcESaIcEEEPFPN16amr_ref_criteria4BaseEvEEEbE* %..inline.addr.5 to i8*, !dbg !4169
	%39 = getelementptr i8, i8*  %38, i64 8, !dbg !4169
	%40 = bitcast i8*  %39 to i64*, !dbg !4169
	%41 = load i64, i64*  %40, align 8, !tbaa !3924, !dbg !4169
	%42 = bitcast %struct._ZSt4pairISt17_Rb_tree_iteratorIS_IKNSt7__cxx1112basic_stringIcSt11char_traitsIcESaIcEEEPFPN16amr_ref_criteria4BaseEvEEEbE* %..inline.addr.6 to i8*, !dbg !4169
	%43 = getelementptr i8, i8*  %42, i64 8, !dbg !4169
	%44 = bitcast i8*  %43 to i64*, !dbg !4169
	store i64  %41, i64*  %44, align 8, !tbaa !3924, !dbg !4169
	%45 = load i8, i8*  %43, align 1, !tbaa !3924, !dbg !4172
	store i8  %45, i8* %_T21340576_52602.addr, align 1, !tbaa !3924, !dbg !4172
	%46 = load i8*, i8**  %5, align 8, !tbaa !3925, !dbg !4173
	%47 = getelementptr i8, i8*  %3, i64 16, !dbg !4173
	%48 = icmp eq i8*  %46,  %47, !dbg !4173
	br i1  %48, label %L..inline.67713, label %L.B1103, !dbg !4173
L.B1103:
	%49 = bitcast %struct._ZSt4pairINSt7__cxx1112basic_stringIcSt11char_traitsIcESaIcEEEPFPN16amr_ref_criteria4BaseEvEE* %_T21340280_52602.addr to i8**, !dbg !4173
	%50 = load i8*, i8**  %49, align 8, !tbaa !3925, !dbg !4173
	call void  @_ZdlPv (i8*  %50) nounwind, !dbg !4173
	br label %L..inline.67713
L..inline.67713:
	%51 = load i8, i8* %_T21340576_52602.addr, align 1, !tbaa !3924, !dbg !4171
	ret i8  %51, !dbg !4171
L.B1104:
	br label %L.R0002, !dbg !4171
L_T21341168_52602:
	%52 = landingpad %astruct.dt64
	cleanup
	%53 = extractvalue %astruct.dt64  %52, 0, !dbg !4171
	store i8*  %53, i8** %__caught_object_address.addr, align 1, !tbaa !3925, !dbg !4171
	%54 = extractvalue %astruct.dt64  %52, 1, !dbg !4171
	store i32  %54, i32* %__catch_clause_number.addr, align 1, !tbaa !3924, !dbg !4171
	%55 = bitcast %struct._ZSt4pairINSt7__cxx1112basic_stringIcSt11char_traitsIcESaIcEEEPFPN16amr_ref_criteria4BaseEvEE* %_T21340280_52602.addr to i8**, !dbg !4173
	%56 = load i8*, i8**  %55, align 8, !tbaa !3925, !dbg !4173
	%57 = bitcast %struct._ZSt4pairINSt7__cxx1112basic_stringIcSt11char_traitsIcESaIcEEEPFPN16amr_ref_criteria4BaseEvEE* %_T21340280_52602.addr to i8*, !dbg !4173
	%58 = getelementptr i8, i8*  %57, i64 16, !dbg !4173
	%59 = icmp eq i8*  %56,  %58, !dbg !4173
	br i1  %59, label %L..inline.67800, label %L.B1105, !dbg !4173
L.B1105:
	%60 = bitcast %struct._ZSt4pairINSt7__cxx1112basic_stringIcSt11char_traitsIcESaIcEEEPFPN16amr_ref_criteria4BaseEvEE* %_T21340280_52602.addr to i8**, !dbg !4173
	%61 = load i8*, i8**  %60, align 8, !tbaa !3925, !dbg !4173
	call void  @_ZdlPv (i8*  %61) nounwind, !dbg !4173
	br label %L..inline.67800
L..inline.67800:
	%62 = load i32, i32* %__catch_clause_number.addr, align 4, !tbaa !3924, !dbg !4171
	%63 = load i8*, i8** %__caught_object_address.addr, align 8, !tbaa !3925, !dbg !4171
	%64 = insertvalue %astruct.dt64 undef, i8*  %63, 0, !dbg !4171
	%65 = insertvalue %astruct.dt64  %64, i32  %62, 1, !dbg !4171
	resume %astruct.dt64  %65 , !dbg !4171
L.R0002:
	ret i8 0
}

%struct._ZSaIcE = type <{ [1 x i8]}> 

define linkonce_odr void @_ZNSaIcEC1Ev(%struct._ZSaIcE* %_T21338800_52603.arg) #0 inlinehint !dbg !4180 {
L.entry:
	%_T21338800_52603.addr = alloca %struct._ZSaIcE*, align 8

	call void @llvm.dbg.declare (metadata %struct._ZSaIcE** %_T21338800_52603.addr, metadata !4184, metadata !3917), !dbg !4181
	store %struct._ZSaIcE* %_T21338800_52603.arg, %struct._ZSaIcE** %_T21338800_52603.addr, align 8, !tbaa !3925
	call void @llvm.dbg.declare (metadata %struct._ZSaIcE** %_T21338800_52603.addr, metadata !4185, metadata !3917), !dbg !4181
	ret void, !dbg !4186
}
define linkonce_odr void @_ZNSaIcEC2Ev(%struct._ZSaIcE* %_T21338800_52604.arg) #0 inlinehint !dbg !4188 {
L.entry:
	%_T21338800_52604.addr = alloca %struct._ZSaIcE*, align 8

	store %struct._ZSaIcE* %_T21338800_52604.arg, %struct._ZSaIcE** %_T21338800_52604.addr, align 8, !tbaa !3925
	ret void, !dbg !4196
}
define linkonce_odr void @_ZNSaIcEC1ERKS_(%struct._ZSaIcE* %_T21338800_52605.arg, %struct._ZSaIcE* %__a.arg) #0 inlinehint !dbg !4204 {
L.entry:
	%_T21338800_52605.addr = alloca %struct._ZSaIcE*, align 8
	%__a.addr = alloca %struct._ZSaIcE*, align 8

	call void @llvm.dbg.declare (metadata %struct._ZSaIcE** %_T21338800_52605.addr, metadata !4208, metadata !3917), !dbg !4205
	store %struct._ZSaIcE* %_T21338800_52605.arg, %struct._ZSaIcE** %_T21338800_52605.addr, align 8, !tbaa !3925
	call void @llvm.dbg.declare (metadata %struct._ZSaIcE** %_T21338800_52605.addr, metadata !4209, metadata !3917), !dbg !4205
	call void @llvm.dbg.declare (metadata %struct._ZSaIcE** %__a.addr, metadata !4210, metadata !3917), !dbg !4205
	store %struct._ZSaIcE* %__a.arg, %struct._ZSaIcE** %__a.addr, align 8, !tbaa !3925
	call void @llvm.dbg.declare (metadata %struct._ZSaIcE** %__a.addr, metadata !4211, metadata !3917), !dbg !4205
	ret void, !dbg !4212
}
define linkonce_odr void @_ZNSaIcEC2ERKS_(%struct._ZSaIcE* %_T21338800_52606.arg, %struct._ZSaIcE* %_T21339096_52606.arg) #0 inlinehint !dbg !4214 {
L.entry:
	%_T21338800_52606.addr = alloca %struct._ZSaIcE*, align 8
	%_T21339096_52606.addr = alloca %struct._ZSaIcE*, align 8

	store %struct._ZSaIcE* %_T21338800_52606.arg, %struct._ZSaIcE** %_T21338800_52606.addr, align 8, !tbaa !3925
	store %struct._ZSaIcE* %_T21339096_52606.arg, %struct._ZSaIcE** %_T21339096_52606.addr, align 8, !tbaa !3925
	ret void, !dbg !4222
}
define linkonce_odr void @_ZNSaIcED1Ev(%struct._ZSaIcE* %_T21338800_52607.arg) #0 inlinehint !dbg !4224 {
L.entry:
	%_T21338800_52607.addr = alloca %struct._ZSaIcE*, align 8

	call void @llvm.dbg.declare (metadata %struct._ZSaIcE** %_T21338800_52607.addr, metadata !4228, metadata !3917), !dbg !4225
	store %struct._ZSaIcE* %_T21338800_52607.arg, %struct._ZSaIcE** %_T21338800_52607.addr, align 8, !tbaa !3925
	call void @llvm.dbg.declare (metadata %struct._ZSaIcE** %_T21338800_52607.addr, metadata !4229, metadata !3917), !dbg !4225
	ret void, !dbg !4230
}
define linkonce_odr void @_ZNSaIcED2Ev(%struct._ZSaIcE* %_T21338800_52608.arg) #0 inlinehint !dbg !4232 {
L.entry:
	%_T21338800_52608.addr = alloca %struct._ZSaIcE*, align 8

	store %struct._ZSaIcE* %_T21338800_52608.arg, %struct._ZSaIcE** %_T21338800_52608.addr, align 8, !tbaa !3925
	ret void, !dbg !4240
}
define linkonce_odr void @_ZNSt11char_traitsIcE6assignERcRKc(i8* %__c1.arg, i8* %__c2.arg) #0 inlinehint !dbg !4247 {
L.entry:
	%__c1.addr = alloca i8*, align 8
	%__c2.addr = alloca i8*, align 8

	call void @llvm.dbg.declare (metadata i8** %__c1.addr, metadata !4251, metadata !3917), !dbg !4248
	store i8* %__c1.arg, i8** %__c1.addr, align 8, !tbaa !3925
	call void @llvm.dbg.declare (metadata i8** %__c1.addr, metadata !4252, metadata !3917), !dbg !4248
	call void @llvm.dbg.declare (metadata i8** %__c2.addr, metadata !4253, metadata !3917), !dbg !4248
	store i8* %__c2.arg, i8** %__c2.addr, align 8, !tbaa !3925
	call void @llvm.dbg.declare (metadata i8** %__c2.addr, metadata !4254, metadata !3917), !dbg !4248
	%0 = load i8*, i8** %__c2.addr, align 8, !tbaa !3925, !dbg !4255
	%1 = load i8, i8*  %0, align 1, !tbaa !3924, !dbg !4255
	%2 = load i8*, i8** %__c1.addr, align 8, !tbaa !3925, !dbg !4255
	store i8  %1, i8*  %2, align 1, !tbaa !3924, !dbg !4255
	ret void, !dbg !4255
}
define linkonce_odr signext i32 @_ZNSt11char_traitsIcE7compareEPKcS2_m(i8* %__s1.arg, i8* %__s2.arg, i64 %__n.arg) #0 inlinehint !dbg !4259 {
L.entry:
	%__s1.addr = alloca i8*, align 8
	%__s2.addr = alloca i8*, align 8
	%__n.addr = alloca i64, align 8

	call void @llvm.dbg.declare (metadata i8** %__s1.addr, metadata !4263, metadata !3917), !dbg !4260
	store i8* %__s1.arg, i8** %__s1.addr, align 8, !tbaa !3925
	call void @llvm.dbg.declare (metadata i8** %__s1.addr, metadata !4264, metadata !3917), !dbg !4260
	call void @llvm.dbg.declare (metadata i8** %__s2.addr, metadata !4265, metadata !3917), !dbg !4260
	store i8* %__s2.arg, i8** %__s2.addr, align 8, !tbaa !3925
	call void @llvm.dbg.declare (metadata i8** %__s2.addr, metadata !4266, metadata !3917), !dbg !4260
	call void @llvm.dbg.declare (metadata i64* %__n.addr, metadata !4267, metadata !3917), !dbg !4260
	store i64 %__n.arg, i64* %__n.addr, align 8, !tbaa !3924
	call void @llvm.dbg.declare (metadata i64* %__n.addr, metadata !4268, metadata !3917), !dbg !4260
	%0 = load i64, i64* %__n.addr, align 8, !tbaa !4274, !dbg !4269
	%1 = icmp ne i64  %0, 0, !dbg !4269
	br i1  %1, label %L.B0000, label %L.B1112, !dbg !4269
L.B1112:
	ret i32 0, !dbg !4270
L.B1113:
	br label %L.R0010, !dbg !4270
L.B0000:
	%2 = load i8*, i8** %__s1.addr, align 8, !tbaa !3925, !dbg !4271
	%3 = load i8*, i8** %__s2.addr, align 8, !tbaa !3925, !dbg !4271
	%4 = load i64, i64* %__n.addr, align 8, !tbaa !4274, !dbg !4271
	%5 = call i32  @memcmp (i8*  %2, i8*  %3, i64  %4) nounwind, !dbg !4271
	ret i32  %5, !dbg !4271
L.R0010:
	ret i32 0
}
define linkonce_odr i64 @_ZNSt11char_traitsIcE6lengthEPKc(i8* %__s.arg) #0 inlinehint !dbg !4278 {
L.entry:
	%__s.addr = alloca i8*, align 8

	call void @llvm.dbg.declare (metadata i8** %__s.addr, metadata !4282, metadata !3917), !dbg !4279
	store i8* %__s.arg, i8** %__s.addr, align 8, !tbaa !3925
	call void @llvm.dbg.declare (metadata i8** %__s.addr, metadata !4283, metadata !3917), !dbg !4279
	%0 = load i8*, i8** %__s.addr, align 8, !tbaa !3925, !dbg !4284
	%1 = call i64  @strlen (i8*  %0) nounwind, !dbg !4284
	ret i64  %1, !dbg !4284
}
define linkonce_odr i8* @_ZNSt11char_traitsIcE4copyEPcPKcm(i8* %__s1.arg, i8* %__s2.arg, i64 %__n.arg) #0 inlinehint !dbg !4289 {
L.entry:
	%__s1.addr = alloca i8*, align 8
	%__s2.addr = alloca i8*, align 8
	%__n.addr = alloca i64, align 8

	call void @llvm.dbg.declare (metadata i8** %__s1.addr, metadata !4293, metadata !3917), !dbg !4290
	store i8* %__s1.arg, i8** %__s1.addr, align 8, !tbaa !3925
	call void @llvm.dbg.declare (metadata i8** %__s1.addr, metadata !4294, metadata !3917), !dbg !4290
	call void @llvm.dbg.declare (metadata i8** %__s2.addr, metadata !4295, metadata !3917), !dbg !4290
	store i8* %__s2.arg, i8** %__s2.addr, align 8, !tbaa !3925
	call void @llvm.dbg.declare (metadata i8** %__s2.addr, metadata !4296, metadata !3917), !dbg !4290
	call void @llvm.dbg.declare (metadata i64* %__n.addr, metadata !4297, metadata !3917), !dbg !4290
	store i64 %__n.arg, i64* %__n.addr, align 8, !tbaa !3924
	call void @llvm.dbg.declare (metadata i64* %__n.addr, metadata !4298, metadata !3917), !dbg !4290
	%0 = load i64, i64* %__n.addr, align 8, !tbaa !4274, !dbg !4299
	%1 = icmp ne i64  %0, 0, !dbg !4299
	br i1  %1, label %L.B0001, label %L.B1114, !dbg !4299
L.B1114:
	%2 = load i8*, i8** %__s1.addr, align 8, !tbaa !3925, !dbg !4300
	ret i8*  %2, !dbg !4300
L.B1115:
	br label %L.R0012, !dbg !4300
L.B0001:
	%3 = load i8*, i8** %__s1.addr, align 8, !tbaa !3925, !dbg !4301
	%4 = load i8*, i8** %__s2.addr, align 8, !tbaa !3925, !dbg !4301
	%5 = load i64, i64* %__n.addr, align 8, !tbaa !4274, !dbg !4301
	%6 = call i8*  @memcpy (i8*  %3, i8*  %4, i64  %5) nounwind, !dbg !4301
	ret i8*  %6, !dbg !4301
L.R0012:
	ret i8* null
}
define linkonce_odr void @_ZNSt16allocator_traitsISaIcEE10deallocateERS0_Pcm(%struct._ZSaIcE* %__a.arg, i8* %__p.arg, i64 %__n.arg) #0 inlinehint !dbg !4312 {
L.entry:
	%__a.addr = alloca %struct._ZSaIcE*, align 8
	%__p.addr = alloca i8*, align 8
	%__n.addr = alloca i64, align 8
	%..inline.addr = alloca i8*, align 8

	call void @llvm.dbg.declare (metadata %struct._ZSaIcE** %__a.addr, metadata !4320, metadata !3917), !dbg !4313
	store %struct._ZSaIcE* %__a.arg, %struct._ZSaIcE** %__a.addr, align 8, !tbaa !3925
	call void @llvm.dbg.declare (metadata %struct._ZSaIcE** %__a.addr, metadata !4321, metadata !3917), !dbg !4313
	call void @llvm.dbg.declare (metadata i8** %__p.addr, metadata !4322, metadata !3917), !dbg !4313
	store i8* %__p.arg, i8** %__p.addr, align 8, !tbaa !3925
	call void @llvm.dbg.declare (metadata i8** %__p.addr, metadata !4323, metadata !3917), !dbg !4313
	call void @llvm.dbg.declare (metadata i64* %__n.addr, metadata !4324, metadata !3917), !dbg !4313
	store i64 %__n.arg, i64* %__n.addr, align 8, !tbaa !3924
	call void @llvm.dbg.declare (metadata i64* %__n.addr, metadata !4325, metadata !3917), !dbg !4313
	%0 = load i8*, i8** %__p.addr, align 8, !tbaa !3925, !dbg !4326
	call void  @_ZdlPv (i8*  %0) nounwind, !dbg !4327
	ret void, !dbg !4326
}
define linkonce_odr void @_ZNSt16allocator_traitsISaIcEE37select_on_container_copy_constructionERKS0_(%struct._ZSaIcE* sret %_T21338800_52623.arg, %struct._ZSaIcE* %__rhs.arg) #0 inlinehint !dbg !4336 {
L.entry:
	%_T21338800_52623.addr = alloca %struct._ZSaIcE*, align 8
	%__rhs.addr = alloca %struct._ZSaIcE*, align 8

	store %struct._ZSaIcE* %_T21338800_52623.arg, %struct._ZSaIcE** %_T21338800_52623.addr, align 8, !tbaa !3925
	call void @llvm.dbg.declare (metadata %struct._ZSaIcE** %__rhs.addr, metadata !4340, metadata !3917), !dbg !4337
	store %struct._ZSaIcE* %__rhs.arg, %struct._ZSaIcE** %__rhs.addr, align 8, !tbaa !3925
	call void @llvm.dbg.declare (metadata %struct._ZSaIcE** %__rhs.addr, metadata !4341, metadata !3917), !dbg !4337
	ret void, !dbg !4342
}
define linkonce_odr void @_ZNSt12_Destroy_auxILb1EE9__destroyIPjEEvT_S3_(i32* %_T21338800_52628.arg, i32* %_T21339096_52628.arg) #0 inlinehint !dbg !4348 {
L.entry:
	%_T21338800_52628.addr = alloca i32*, align 8
	%_T21339096_52628.addr = alloca i32*, align 8

	call void @llvm.dbg.declare (metadata i32** %_T21338800_52628.addr, metadata !4352, metadata !3917), !dbg !4349
	store i32* %_T21338800_52628.arg, i32** %_T21338800_52628.addr, align 8, !tbaa !3925
	call void @llvm.dbg.declare (metadata i32** %_T21338800_52628.addr, metadata !4353, metadata !3917), !dbg !4349
	call void @llvm.dbg.declare (metadata i32** %_T21339096_52628.addr, metadata !4354, metadata !3917), !dbg !4349
	store i32* %_T21339096_52628.arg, i32** %_T21339096_52628.addr, align 8, !tbaa !3925
	call void @llvm.dbg.declare (metadata i32** %_T21339096_52628.addr, metadata !4355, metadata !3917), !dbg !4349
	ret void, !dbg !4356
}
define linkonce_odr void @_ZNSt12_Destroy_auxILb1EE9__destroyIPdEEvT_S3_(double* %_T21338800_52631.arg, double* %_T21339096_52631.arg) #0 inlinehint !dbg !4360 {
L.entry:
	%_T21338800_52631.addr = alloca double*, align 8
	%_T21339096_52631.addr = alloca double*, align 8

	call void @llvm.dbg.declare (metadata double** %_T21338800_52631.addr, metadata !4364, metadata !3917), !dbg !4361
	store double* %_T21338800_52631.arg, double** %_T21338800_52631.addr, align 8, !tbaa !3925
	call void @llvm.dbg.declare (metadata double** %_T21338800_52631.addr, metadata !4365, metadata !3917), !dbg !4361
	call void @llvm.dbg.declare (metadata double** %_T21339096_52631.addr, metadata !4366, metadata !3917), !dbg !4361
	store double* %_T21339096_52631.arg, double** %_T21339096_52631.addr, align 8, !tbaa !3925
	call void @llvm.dbg.declare (metadata double** %_T21339096_52631.addr, metadata !4367, metadata !3917), !dbg !4361
	ret void, !dbg !4368
}

%struct._ZSaIjE = type <{ [1 x i8]}> 

define linkonce_odr void @_ZNSaIjED1Ev(%struct._ZSaIjE* %_T21338800_52632.arg) #0 inlinehint !dbg !4376 {
L.entry:
	%_T21338800_52632.addr = alloca %struct._ZSaIjE*, align 8

	call void @llvm.dbg.declare (metadata %struct._ZSaIjE** %_T21338800_52632.addr, metadata !4380, metadata !3917), !dbg !4377
	store %struct._ZSaIjE* %_T21338800_52632.arg, %struct._ZSaIjE** %_T21338800_52632.addr, align 8, !tbaa !3925
	call void @llvm.dbg.declare (metadata %struct._ZSaIjE** %_T21338800_52632.addr, metadata !4381, metadata !3917), !dbg !4377
	ret void, !dbg !4382
}
define linkonce_odr void @_ZNSaIjED2Ev(%struct._ZSaIjE* %_T21338800_52633.arg) #0 inlinehint !dbg !4384 {
L.entry:
	%_T21338800_52633.addr = alloca %struct._ZSaIjE*, align 8

	store %struct._ZSaIjE* %_T21338800_52633.arg, %struct._ZSaIjE** %_T21338800_52633.addr, align 8, !tbaa !3925
	ret void, !dbg !4392
}
define linkonce_odr void @_ZNSt16allocator_traitsISaIjEE10deallocateERS0_Pjm(%struct._ZSaIjE* %__a.arg, i32* %__p.arg, i64 %__n.arg) #0 inlinehint !dbg !4400 {
L.entry:
	%__a.addr = alloca %struct._ZSaIjE*, align 8
	%__p.addr = alloca i32*, align 8
	%__n.addr = alloca i64, align 8
	%..inline.addr = alloca i32*, align 8

	call void @llvm.dbg.declare (metadata %struct._ZSaIjE** %__a.addr, metadata !4408, metadata !3917), !dbg !4401
	store %struct._ZSaIjE* %__a.arg, %struct._ZSaIjE** %__a.addr, align 8, !tbaa !3925
	call void @llvm.dbg.declare (metadata %struct._ZSaIjE** %__a.addr, metadata !4409, metadata !3917), !dbg !4401
	call void @llvm.dbg.declare (metadata i32** %__p.addr, metadata !4410, metadata !3917), !dbg !4401
	store i32* %__p.arg, i32** %__p.addr, align 8, !tbaa !3925
	call void @llvm.dbg.declare (metadata i32** %__p.addr, metadata !4411, metadata !3917), !dbg !4401
	call void @llvm.dbg.declare (metadata i64* %__n.addr, metadata !4412, metadata !3917), !dbg !4401
	store i64 %__n.arg, i64* %__n.addr, align 8, !tbaa !3924
	call void @llvm.dbg.declare (metadata i64* %__n.addr, metadata !4413, metadata !3917), !dbg !4401
	%0 = load i32*, i32** %__p.addr, align 8, !tbaa !3925, !dbg !4414
	%1 = bitcast i32*  %0 to i8*, !dbg !4414
	%2 = bitcast i32** %..inline.addr to i8**, !dbg !4414
	store i8*  %1, i8**  %2, align 8, !tbaa !3925, !dbg !4414
	%3 = load i32*, i32** %..inline.addr, align 8, !tbaa !3925, !dbg !4415
	%4 = bitcast i32*  %3 to i8*, !dbg !4415
	call void  @_ZdlPv (i8*  %4) nounwind, !dbg !4415
	ret void, !dbg !4414
}

%struct._ZNSt12_Vector_baseIjSaIjEE17_Vector_impl_dataE = type <{ i32*, i32*, i32*}> 
%struct._ZSt12_Vector_baseIjSaIjEE = type <{ %struct._ZNSt12_Vector_baseIjSaIjEE12_Vector_implE}> 
%struct._ZNSt12_Vector_baseIjSaIjEE12_Vector_implE = type <{ %struct._ZNSt12_Vector_baseIjSaIjEE17_Vector_impl_dataE}> 

define linkonce_odr %struct._ZSaIjE* @_ZNSt12_Vector_baseIjSaIjEE19_M_get_Tp_allocatorEv(%struct._ZSt12_Vector_baseIjSaIjEE* %_T21338800_52639.arg) #0 inlinehint !dbg !4423 {
L.entry:
	%_T21338800_52639.addr = alloca %struct._ZSt12_Vector_baseIjSaIjEE*, align 8

	call void @llvm.dbg.declare (metadata %struct._ZSt12_Vector_baseIjSaIjEE** %_T21338800_52639.addr, metadata !4427, metadata !3917), !dbg !4424
	store %struct._ZSt12_Vector_baseIjSaIjEE* %_T21338800_52639.arg, %struct._ZSt12_Vector_baseIjSaIjEE** %_T21338800_52639.addr, align 8, !tbaa !3925
	call void @llvm.dbg.declare (metadata %struct._ZSt12_Vector_baseIjSaIjEE** %_T21338800_52639.addr, metadata !4428, metadata !3917), !dbg !4424
	%0 = load %struct._ZSt12_Vector_baseIjSaIjEE*, %struct._ZSt12_Vector_baseIjSaIjEE** %_T21338800_52639.addr, align 8, !tbaa !3925, !dbg !4429
	%1 = bitcast %struct._ZSt12_Vector_baseIjSaIjEE*  %0 to %struct._ZSaIjE*, !dbg !4429
	ret %struct._ZSaIjE*  %1, !dbg !4429
}
define linkonce_odr void @_ZNSt12_Vector_baseIjSaIjEED1Ev(%struct._ZSt12_Vector_baseIjSaIjEE* %_T21338800_52640.arg) #0 inlinehint !dbg !4433 {
L.entry:
	%_T21338800_52640.addr = alloca %struct._ZSt12_Vector_baseIjSaIjEE*, align 8
	%..inline.addr = alloca i32*, align 8

	call void @llvm.dbg.declare (metadata %struct._ZSt12_Vector_baseIjSaIjEE** %_T21338800_52640.addr, metadata !4461, metadata !3917), !dbg !4434
	store %struct._ZSt12_Vector_baseIjSaIjEE* %_T21338800_52640.arg, %struct._ZSt12_Vector_baseIjSaIjEE** %_T21338800_52640.addr, align 8, !tbaa !3925
	call void @llvm.dbg.declare (metadata %struct._ZSt12_Vector_baseIjSaIjEE** %_T21338800_52640.addr, metadata !4462, metadata !3917), !dbg !4434
	%0 = load %struct._ZSt12_Vector_baseIjSaIjEE*, %struct._ZSt12_Vector_baseIjSaIjEE** %_T21338800_52640.addr, align 8, !tbaa !3925, !dbg !4463
	%1 = bitcast %struct._ZSt12_Vector_baseIjSaIjEE*  %0 to i8**, !dbg !4463
	%2 = load i8*, i8**  %1, align 8, !tbaa !3925, !dbg !4463
	%3 = icmp eq i8*  %2,  null, !dbg !4463
	br i1  %3, label %L..inline.68075, label %L.B1126, !dbg !4463
L.B1126:
	%4 = bitcast %struct._ZSt12_Vector_baseIjSaIjEE*  %0 to i8**, !dbg !4464
	%5 = load i8*, i8**  %4, align 8, !tbaa !3925, !dbg !4464
	%6 = bitcast i32** %..inline.addr to i8**, !dbg !4464
	store i8*  %5, i8**  %6, align 8, !tbaa !3925, !dbg !4464
	%7 = load i32*, i32** %..inline.addr, align 8, !tbaa !3925, !dbg !4464
	%8 = bitcast i32*  %7 to i8*, !dbg !4464
	call void  @_ZdlPv (i8*  %8) nounwind, !dbg !4464
	br label %L..inline.68075
L..inline.68075:
	ret void, !dbg !4465
}
define linkonce_odr void @_ZNSt12_Vector_baseIjSaIjEED2Ev(%struct._ZSt12_Vector_baseIjSaIjEE* %_T21338800_52641.arg) #0 inlinehint !dbg !4467 {
L.entry:
	%_T21338800_52641.addr = alloca %struct._ZSt12_Vector_baseIjSaIjEE*, align 8
	%..inline.addr = alloca %struct._ZSt12_Vector_baseIjSaIjEE*, align 8
	%..inline.addr.1 = alloca i32*, align 8

	store %struct._ZSt12_Vector_baseIjSaIjEE* %_T21338800_52641.arg, %struct._ZSt12_Vector_baseIjSaIjEE** %_T21338800_52641.addr, align 8, !tbaa !3925
	%0 = load %struct._ZSt12_Vector_baseIjSaIjEE*, %struct._ZSt12_Vector_baseIjSaIjEE** %_T21338800_52641.addr, align 8, !tbaa !3925, !dbg !4499
	%1 = bitcast %struct._ZSt12_Vector_baseIjSaIjEE*  %0 to i8*, !dbg !4499
	%2 = bitcast %struct._ZSt12_Vector_baseIjSaIjEE** %..inline.addr to i8**, !dbg !4499
	store i8*  %1, i8**  %2, align 8, !tbaa !3925, !dbg !4499
	%3 = load %struct._ZSt12_Vector_baseIjSaIjEE*, %struct._ZSt12_Vector_baseIjSaIjEE** %..inline.addr, align 8, !tbaa !3925, !dbg !4499
	%4 = bitcast %struct._ZSt12_Vector_baseIjSaIjEE*  %3 to i8**, !dbg !4499
	%5 = load i8*, i8**  %4, align 8, !tbaa !3925, !dbg !4499
	%6 = icmp eq i8*  %5,  null, !dbg !4499
	br i1  %6, label %L..inline.68134, label %L.B1129, !dbg !4499
L.B1129:
	%7 = bitcast %struct._ZSt12_Vector_baseIjSaIjEE*  %3 to i8**, !dbg !4499
	%8 = load i8*, i8**  %7, align 8, !tbaa !3925, !dbg !4499
	%9 = bitcast i32** %..inline.addr.1 to i8**, !dbg !4499
	store i8*  %8, i8**  %9, align 8, !tbaa !3925, !dbg !4499
	%10 = load i32*, i32** %..inline.addr.1, align 8, !tbaa !3925, !dbg !4499
	%11 = bitcast i32*  %10 to i8*, !dbg !4499
	call void  @_ZdlPv (i8*  %11) nounwind, !dbg !4499
	br label %L..inline.68134
L..inline.68134:
	ret void, !dbg !4500
}
define linkonce_odr void @_ZNSt12_Vector_baseIjSaIjEE13_M_deallocateEPjm(%struct._ZSt12_Vector_baseIjSaIjEE* %_T21338800_52644.arg, i32* %__p.arg, i64 %__n.arg) #0 inlinehint !dbg !4504 {
L.entry:
	%_T21338800_52644.addr = alloca %struct._ZSt12_Vector_baseIjSaIjEE*, align 8
	%__p.addr = alloca i32*, align 8
	%__n.addr = alloca i64, align 8
	%..inline.addr = alloca i32*, align 8

	call void @llvm.dbg.declare (metadata %struct._ZSt12_Vector_baseIjSaIjEE** %_T21338800_52644.addr, metadata !4516, metadata !3917), !dbg !4505
	store %struct._ZSt12_Vector_baseIjSaIjEE* %_T21338800_52644.arg, %struct._ZSt12_Vector_baseIjSaIjEE** %_T21338800_52644.addr, align 8, !tbaa !3925
	call void @llvm.dbg.declare (metadata %struct._ZSt12_Vector_baseIjSaIjEE** %_T21338800_52644.addr, metadata !4517, metadata !3917), !dbg !4505
	call void @llvm.dbg.declare (metadata i32** %__p.addr, metadata !4518, metadata !3917), !dbg !4505
	store i32* %__p.arg, i32** %__p.addr, align 8, !tbaa !3925
	call void @llvm.dbg.declare (metadata i32** %__p.addr, metadata !4519, metadata !3917), !dbg !4505
	call void @llvm.dbg.declare (metadata i64* %__n.addr, metadata !4520, metadata !3917), !dbg !4505
	store i64 %__n.arg, i64* %__n.addr, align 8, !tbaa !3924
	call void @llvm.dbg.declare (metadata i64* %__n.addr, metadata !4521, metadata !3917), !dbg !4505
	%0 = load i32*, i32** %__p.addr, align 8, !tbaa !3925, !dbg !4522
	%1 = bitcast i32*  %0 to i8*, !dbg !4522
	%2 = icmp eq i8*  %1,  null, !dbg !4522
	br i1  %2, label %L.B0002, label %L.B1132, !dbg !4522
L.B1132:
	%3 = bitcast i32*  %0 to i8*, !dbg !4523
	%4 = bitcast i32** %..inline.addr to i8**, !dbg !4523
	store i8*  %3, i8**  %4, align 8, !tbaa !3925, !dbg !4523
	%5 = load i32*, i32** %..inline.addr, align 8, !tbaa !3925, !dbg !4523
	%6 = bitcast i32*  %5 to i8*, !dbg !4523
	call void  @_ZdlPv (i8*  %6) nounwind, !dbg !4523
	br label %L.B0002
L.B0002:
	ret void, !dbg !4524
}
define linkonce_odr void @_ZNSt12_Vector_baseIjSaIjEE12_Vector_implD1Ev(%struct._ZNSt12_Vector_baseIjSaIjEE12_Vector_implE* %_T21338800_52645.arg) #0 inlinehint !dbg !4529 {
L.entry:
	%_T21338800_52645.addr = alloca %struct._ZNSt12_Vector_baseIjSaIjEE12_Vector_implE*, align 8

	call void @llvm.dbg.declare (metadata %struct._ZNSt12_Vector_baseIjSaIjEE12_Vector_implE** %_T21338800_52645.addr, metadata !4541, metadata !3917), !dbg !4530
	store %struct._ZNSt12_Vector_baseIjSaIjEE12_Vector_implE* %_T21338800_52645.arg, %struct._ZNSt12_Vector_baseIjSaIjEE12_Vector_implE** %_T21338800_52645.addr, align 8, !tbaa !3925
	call void @llvm.dbg.declare (metadata %struct._ZNSt12_Vector_baseIjSaIjEE12_Vector_implE** %_T21338800_52645.addr, metadata !4542, metadata !3917), !dbg !4530
	ret void, !dbg !4543
}
define linkonce_odr void @_ZNSt12_Vector_baseIjSaIjEE12_Vector_implD2Ev(%struct._ZNSt12_Vector_baseIjSaIjEE12_Vector_implE* %_T21338800_52646.arg) #0 inlinehint !dbg !4545 {
L.entry:
	%_T21338800_52646.addr = alloca %struct._ZNSt12_Vector_baseIjSaIjEE12_Vector_implE*, align 8

	store %struct._ZNSt12_Vector_baseIjSaIjEE12_Vector_implE* %_T21338800_52646.arg, %struct._ZNSt12_Vector_baseIjSaIjEE12_Vector_implE** %_T21338800_52646.addr, align 8, !tbaa !3925
	ret void, !dbg !4561
}

%struct._ZSt6vectorIjSaIjEE = type <{ %struct._ZSt12_Vector_baseIjSaIjEE}> 

define linkonce_odr void @_ZNSt6vectorIjSaIjEED1Ev(%struct._ZSt6vectorIjSaIjEE* %_T21338800_52647.arg) #0 inlinehint !dbg !4566 {
L.entry:
	%_T21338800_52647.addr = alloca %struct._ZSt6vectorIjSaIjEE*, align 8
	%..inline.addr = alloca %struct._ZSt12_Vector_baseIjSaIjEE*, align 8
	%..inline.addr.1 = alloca i32*, align 8

	call void @llvm.dbg.declare (metadata %struct._ZSt6vectorIjSaIjEE** %_T21338800_52647.addr, metadata !4618, metadata !3917), !dbg !4567
	store %struct._ZSt6vectorIjSaIjEE* %_T21338800_52647.arg, %struct._ZSt6vectorIjSaIjEE** %_T21338800_52647.addr, align 8, !tbaa !3925
	call void @llvm.dbg.declare (metadata %struct._ZSt6vectorIjSaIjEE** %_T21338800_52647.addr, metadata !4619, metadata !3917), !dbg !4567
	%0 = load %struct._ZSt6vectorIjSaIjEE*, %struct._ZSt6vectorIjSaIjEE** %_T21338800_52647.addr, align 8, !tbaa !3925, !dbg !4620
	%1 = bitcast %struct._ZSt6vectorIjSaIjEE*  %0 to i8*, !dbg !4620
	%2 = bitcast %struct._ZSt12_Vector_baseIjSaIjEE** %..inline.addr to i8**, !dbg !4620
	store i8*  %1, i8**  %2, align 8, !tbaa !3925, !dbg !4620
	%3 = load %struct._ZSt12_Vector_baseIjSaIjEE*, %struct._ZSt12_Vector_baseIjSaIjEE** %..inline.addr, align 8, !tbaa !3925, !dbg !4621
	%4 = bitcast %struct._ZSt12_Vector_baseIjSaIjEE*  %3 to i8**, !dbg !4621
	%5 = load i8*, i8**  %4, align 8, !tbaa !3925, !dbg !4621
	%6 = icmp eq i8*  %5,  null, !dbg !4621
	br i1  %6, label %L..inline.68285, label %L.B1143, !dbg !4621
L.B1143:
	%7 = bitcast %struct._ZSt12_Vector_baseIjSaIjEE*  %3 to i8**, !dbg !4621
	%8 = load i8*, i8**  %7, align 8, !tbaa !3925, !dbg !4621
	%9 = bitcast i32** %..inline.addr.1 to i8**, !dbg !4621
	store i8*  %8, i8**  %9, align 8, !tbaa !3925, !dbg !4621
	%10 = load i32*, i32** %..inline.addr.1, align 8, !tbaa !3925, !dbg !4621
	%11 = bitcast i32*  %10 to i8*, !dbg !4621
	call void  @_ZdlPv (i8*  %11) nounwind, !dbg !4621
	br label %L..inline.68285
L..inline.68285:
	ret void, !dbg !4620
}
define linkonce_odr void @_ZNSt6vectorIjSaIjEED2Ev(%struct._ZSt6vectorIjSaIjEE* %_T21338800_52648.arg) #0 inlinehint !dbg !4623 {
L.entry:
	%_T21338800_52648.addr = alloca %struct._ZSt6vectorIjSaIjEE*, align 8
	%..inline.addr = alloca %struct._ZSt12_Vector_baseIjSaIjEE*, align 8
	%..inline.addr.1 = alloca i32*, align 8

	store %struct._ZSt6vectorIjSaIjEE* %_T21338800_52648.arg, %struct._ZSt6vectorIjSaIjEE** %_T21338800_52648.addr, align 8, !tbaa !3925
	%0 = load %struct._ZSt6vectorIjSaIjEE*, %struct._ZSt6vectorIjSaIjEE** %_T21338800_52648.addr, align 8, !tbaa !3925, !dbg !4679
	%1 = bitcast %struct._ZSt6vectorIjSaIjEE*  %0 to i8*, !dbg !4679
	%2 = bitcast %struct._ZSt12_Vector_baseIjSaIjEE** %..inline.addr to i8**, !dbg !4679
	store i8*  %1, i8**  %2, align 8, !tbaa !3925, !dbg !4679
	%3 = load %struct._ZSt12_Vector_baseIjSaIjEE*, %struct._ZSt12_Vector_baseIjSaIjEE** %..inline.addr, align 8, !tbaa !3925, !dbg !4679
	%4 = bitcast %struct._ZSt12_Vector_baseIjSaIjEE*  %3 to i8**, !dbg !4679
	%5 = load i8*, i8**  %4, align 8, !tbaa !3925, !dbg !4679
	%6 = icmp eq i8*  %5,  null, !dbg !4679
	br i1  %6, label %L..inline.68389, label %L.B1146, !dbg !4679
L.B1146:
	%7 = bitcast %struct._ZSt12_Vector_baseIjSaIjEE*  %3 to i8**, !dbg !4679
	%8 = load i8*, i8**  %7, align 8, !tbaa !3925, !dbg !4679
	%9 = bitcast i32** %..inline.addr.1 to i8**, !dbg !4679
	store i8*  %8, i8**  %9, align 8, !tbaa !3925, !dbg !4679
	%10 = load i32*, i32** %..inline.addr.1, align 8, !tbaa !3925, !dbg !4679
	%11 = bitcast i32*  %10 to i8*, !dbg !4679
	call void  @_ZdlPv (i8*  %11) nounwind, !dbg !4679
	br label %L..inline.68389
L..inline.68389:
	ret void, !dbg !4679
}

%struct._ZSaIdE = type <{ [1 x i8]}> 

define linkonce_odr void @_ZNSaIdED1Ev(%struct._ZSaIdE* %_T21338800_52649.arg) #0 inlinehint !dbg !4687 {
L.entry:
	%_T21338800_52649.addr = alloca %struct._ZSaIdE*, align 8

	call void @llvm.dbg.declare (metadata %struct._ZSaIdE** %_T21338800_52649.addr, metadata !4691, metadata !3917), !dbg !4688
	store %struct._ZSaIdE* %_T21338800_52649.arg, %struct._ZSaIdE** %_T21338800_52649.addr, align 8, !tbaa !3925
	call void @llvm.dbg.declare (metadata %struct._ZSaIdE** %_T21338800_52649.addr, metadata !4692, metadata !3917), !dbg !4688
	ret void, !dbg !4693
}
define linkonce_odr void @_ZNSaIdED2Ev(%struct._ZSaIdE* %_T21338800_52650.arg) #0 inlinehint !dbg !4695 {
L.entry:
	%_T21338800_52650.addr = alloca %struct._ZSaIdE*, align 8

	store %struct._ZSaIdE* %_T21338800_52650.arg, %struct._ZSaIdE** %_T21338800_52650.addr, align 8, !tbaa !3925
	ret void, !dbg !4703
}
define linkonce_odr void @_ZNSt16allocator_traitsISaIdEE10deallocateERS0_Pdm(%struct._ZSaIdE* %__a.arg, double* %__p.arg, i64 %__n.arg) #0 inlinehint !dbg !4711 {
L.entry:
	%__a.addr = alloca %struct._ZSaIdE*, align 8
	%__p.addr = alloca double*, align 8
	%__n.addr = alloca i64, align 8
	%..inline.addr = alloca double*, align 8

	call void @llvm.dbg.declare (metadata %struct._ZSaIdE** %__a.addr, metadata !4719, metadata !3917), !dbg !4712
	store %struct._ZSaIdE* %__a.arg, %struct._ZSaIdE** %__a.addr, align 8, !tbaa !3925
	call void @llvm.dbg.declare (metadata %struct._ZSaIdE** %__a.addr, metadata !4720, metadata !3917), !dbg !4712
	call void @llvm.dbg.declare (metadata double** %__p.addr, metadata !4721, metadata !3917), !dbg !4712
	store double* %__p.arg, double** %__p.addr, align 8, !tbaa !3925
	call void @llvm.dbg.declare (metadata double** %__p.addr, metadata !4722, metadata !3917), !dbg !4712
	call void @llvm.dbg.declare (metadata i64* %__n.addr, metadata !4723, metadata !3917), !dbg !4712
	store i64 %__n.arg, i64* %__n.addr, align 8, !tbaa !3924
	call void @llvm.dbg.declare (metadata i64* %__n.addr, metadata !4724, metadata !3917), !dbg !4712
	%0 = load double*, double** %__p.addr, align 8, !tbaa !3925, !dbg !4725
	%1 = bitcast double*  %0 to i8*, !dbg !4725
	%2 = bitcast double** %..inline.addr to i8**, !dbg !4725
	store i8*  %1, i8**  %2, align 8, !tbaa !3925, !dbg !4725
	%3 = load double*, double** %..inline.addr, align 8, !tbaa !3925, !dbg !4726
	%4 = bitcast double*  %3 to i8*, !dbg !4726
	call void  @_ZdlPv (i8*  %4) nounwind, !dbg !4726
	ret void, !dbg !4725
}

%struct._ZNSt12_Vector_baseIdSaIdEE17_Vector_impl_dataE = type <{ double*, double*, double*}> 
%struct._ZNSt12_Vector_baseIdSaIdEE12_Vector_implE = type <{ %struct._ZNSt12_Vector_baseIdSaIdEE17_Vector_impl_dataE}> 
%struct._ZSt12_Vector_baseIdSaIdEE = type <{ %struct._ZNSt12_Vector_baseIdSaIdEE12_Vector_implE}> 

define linkonce_odr %struct._ZSaIdE* @_ZNSt12_Vector_baseIdSaIdEE19_M_get_Tp_allocatorEv(%struct._ZSt12_Vector_baseIdSaIdEE* %_T21338800_52656.arg) #0 inlinehint !dbg !4732 {
L.entry:
	%_T21338800_52656.addr = alloca %struct._ZSt12_Vector_baseIdSaIdEE*, align 8

	call void @llvm.dbg.declare (metadata %struct._ZSt12_Vector_baseIdSaIdEE** %_T21338800_52656.addr, metadata !4736, metadata !3917), !dbg !4733
	store %struct._ZSt12_Vector_baseIdSaIdEE* %_T21338800_52656.arg, %struct._ZSt12_Vector_baseIdSaIdEE** %_T21338800_52656.addr, align 8, !tbaa !3925
	call void @llvm.dbg.declare (metadata %struct._ZSt12_Vector_baseIdSaIdEE** %_T21338800_52656.addr, metadata !4737, metadata !3917), !dbg !4733
	%0 = load %struct._ZSt12_Vector_baseIdSaIdEE*, %struct._ZSt12_Vector_baseIdSaIdEE** %_T21338800_52656.addr, align 8, !tbaa !3925, !dbg !4738
	%1 = bitcast %struct._ZSt12_Vector_baseIdSaIdEE*  %0 to %struct._ZSaIdE*, !dbg !4738
	ret %struct._ZSaIdE*  %1, !dbg !4738
}
define linkonce_odr void @_ZNSt12_Vector_baseIdSaIdEED1Ev(%struct._ZSt12_Vector_baseIdSaIdEE* %_T21338800_52657.arg) #0 inlinehint !dbg !4742 {
L.entry:
	%_T21338800_52657.addr = alloca %struct._ZSt12_Vector_baseIdSaIdEE*, align 8
	%..inline.addr = alloca double*, align 8

	call void @llvm.dbg.declare (metadata %struct._ZSt12_Vector_baseIdSaIdEE** %_T21338800_52657.addr, metadata !4770, metadata !3917), !dbg !4743
	store %struct._ZSt12_Vector_baseIdSaIdEE* %_T21338800_52657.arg, %struct._ZSt12_Vector_baseIdSaIdEE** %_T21338800_52657.addr, align 8, !tbaa !3925
	call void @llvm.dbg.declare (metadata %struct._ZSt12_Vector_baseIdSaIdEE** %_T21338800_52657.addr, metadata !4771, metadata !3917), !dbg !4743
	%0 = load %struct._ZSt12_Vector_baseIdSaIdEE*, %struct._ZSt12_Vector_baseIdSaIdEE** %_T21338800_52657.addr, align 8, !tbaa !3925, !dbg !4772
	%1 = bitcast %struct._ZSt12_Vector_baseIdSaIdEE*  %0 to i8**, !dbg !4772
	%2 = load i8*, i8**  %1, align 8, !tbaa !3925, !dbg !4772
	%3 = icmp eq i8*  %2,  null, !dbg !4772
	br i1  %3, label %L..inline.68485, label %L.B1155, !dbg !4772
L.B1155:
	%4 = bitcast %struct._ZSt12_Vector_baseIdSaIdEE*  %0 to i8**, !dbg !4773
	%5 = load i8*, i8**  %4, align 8, !tbaa !3925, !dbg !4773
	%6 = bitcast double** %..inline.addr to i8**, !dbg !4773
	store i8*  %5, i8**  %6, align 8, !tbaa !3925, !dbg !4773
	%7 = load double*, double** %..inline.addr, align 8, !tbaa !3925, !dbg !4773
	%8 = bitcast double*  %7 to i8*, !dbg !4773
	call void  @_ZdlPv (i8*  %8) nounwind, !dbg !4773
	br label %L..inline.68485
L..inline.68485:
	ret void, !dbg !4774
}
define linkonce_odr void @_ZNSt12_Vector_baseIdSaIdEED2Ev(%struct._ZSt12_Vector_baseIdSaIdEE* %_T21338800_52658.arg) #0 inlinehint !dbg !4776 {
L.entry:
	%_T21338800_52658.addr = alloca %struct._ZSt12_Vector_baseIdSaIdEE*, align 8
	%..inline.addr = alloca %struct._ZSt12_Vector_baseIdSaIdEE*, align 8
	%..inline.addr.1 = alloca double*, align 8

	store %struct._ZSt12_Vector_baseIdSaIdEE* %_T21338800_52658.arg, %struct._ZSt12_Vector_baseIdSaIdEE** %_T21338800_52658.addr, align 8, !tbaa !3925
	%0 = load %struct._ZSt12_Vector_baseIdSaIdEE*, %struct._ZSt12_Vector_baseIdSaIdEE** %_T21338800_52658.addr, align 8, !tbaa !3925, !dbg !4808
	%1 = bitcast %struct._ZSt12_Vector_baseIdSaIdEE*  %0 to i8*, !dbg !4808
	%2 = bitcast %struct._ZSt12_Vector_baseIdSaIdEE** %..inline.addr to i8**, !dbg !4808
	store i8*  %1, i8**  %2, align 8, !tbaa !3925, !dbg !4808
	%3 = load %struct._ZSt12_Vector_baseIdSaIdEE*, %struct._ZSt12_Vector_baseIdSaIdEE** %..inline.addr, align 8, !tbaa !3925, !dbg !4808
	%4 = bitcast %struct._ZSt12_Vector_baseIdSaIdEE*  %3 to i8**, !dbg !4808
	%5 = load i8*, i8**  %4, align 8, !tbaa !3925, !dbg !4808
	%6 = icmp eq i8*  %5,  null, !dbg !4808
	br i1  %6, label %L..inline.68546, label %L.B1158, !dbg !4808
L.B1158:
	%7 = bitcast %struct._ZSt12_Vector_baseIdSaIdEE*  %3 to i8**, !dbg !4808
	%8 = load i8*, i8**  %7, align 8, !tbaa !3925, !dbg !4808
	%9 = bitcast double** %..inline.addr.1 to i8**, !dbg !4808
	store i8*  %8, i8**  %9, align 8, !tbaa !3925, !dbg !4808
	%10 = load double*, double** %..inline.addr.1, align 8, !tbaa !3925, !dbg !4808
	%11 = bitcast double*  %10 to i8*, !dbg !4808
	call void  @_ZdlPv (i8*  %11) nounwind, !dbg !4808
	br label %L..inline.68546
L..inline.68546:
	ret void, !dbg !4809
}
define linkonce_odr void @_ZNSt12_Vector_baseIdSaIdEE13_M_deallocateEPdm(%struct._ZSt12_Vector_baseIdSaIdEE* %_T21338800_52661.arg, double* %__p.arg, i64 %__n.arg) #0 inlinehint !dbg !4813 {
L.entry:
	%_T21338800_52661.addr = alloca %struct._ZSt12_Vector_baseIdSaIdEE*, align 8
	%__p.addr = alloca double*, align 8
	%__n.addr = alloca i64, align 8
	%..inline.addr = alloca double*, align 8

	call void @llvm.dbg.declare (metadata %struct._ZSt12_Vector_baseIdSaIdEE** %_T21338800_52661.addr, metadata !4825, metadata !3917), !dbg !4814
	store %struct._ZSt12_Vector_baseIdSaIdEE* %_T21338800_52661.arg, %struct._ZSt12_Vector_baseIdSaIdEE** %_T21338800_52661.addr, align 8, !tbaa !3925
	call void @llvm.dbg.declare (metadata %struct._ZSt12_Vector_baseIdSaIdEE** %_T21338800_52661.addr, metadata !4826, metadata !3917), !dbg !4814
	call void @llvm.dbg.declare (metadata double** %__p.addr, metadata !4827, metadata !3917), !dbg !4814
	store double* %__p.arg, double** %__p.addr, align 8, !tbaa !3925
	call void @llvm.dbg.declare (metadata double** %__p.addr, metadata !4828, metadata !3917), !dbg !4814
	call void @llvm.dbg.declare (metadata i64* %__n.addr, metadata !4829, metadata !3917), !dbg !4814
	store i64 %__n.arg, i64* %__n.addr, align 8, !tbaa !3924
	call void @llvm.dbg.declare (metadata i64* %__n.addr, metadata !4830, metadata !3917), !dbg !4814
	%0 = load double*, double** %__p.addr, align 8, !tbaa !3925, !dbg !4831
	%1 = bitcast double*  %0 to i8*, !dbg !4831
	%2 = icmp eq i8*  %1,  null, !dbg !4831
	br i1  %2, label %L.B0003, label %L.B1161, !dbg !4831
L.B1161:
	%3 = bitcast double*  %0 to i8*, !dbg !4832
	%4 = bitcast double** %..inline.addr to i8**, !dbg !4832
	store i8*  %3, i8**  %4, align 8, !tbaa !3925, !dbg !4832
	%5 = load double*, double** %..inline.addr, align 8, !tbaa !3925, !dbg !4832
	%6 = bitcast double*  %5 to i8*, !dbg !4832
	call void  @_ZdlPv (i8*  %6) nounwind, !dbg !4832
	br label %L.B0003
L.B0003:
	ret void, !dbg !4833
}
define linkonce_odr void @_ZNSt12_Vector_baseIdSaIdEE12_Vector_implD1Ev(%struct._ZNSt12_Vector_baseIdSaIdEE12_Vector_implE* %_T21338800_52662.arg) #0 inlinehint !dbg !4838 {
L.entry:
	%_T21338800_52662.addr = alloca %struct._ZNSt12_Vector_baseIdSaIdEE12_Vector_implE*, align 8

	call void @llvm.dbg.declare (metadata %struct._ZNSt12_Vector_baseIdSaIdEE12_Vector_implE** %_T21338800_52662.addr, metadata !4850, metadata !3917), !dbg !4839
	store %struct._ZNSt12_Vector_baseIdSaIdEE12_Vector_implE* %_T21338800_52662.arg, %struct._ZNSt12_Vector_baseIdSaIdEE12_Vector_implE** %_T21338800_52662.addr, align 8, !tbaa !3925
	call void @llvm.dbg.declare (metadata %struct._ZNSt12_Vector_baseIdSaIdEE12_Vector_implE** %_T21338800_52662.addr, metadata !4851, metadata !3917), !dbg !4839
	ret void, !dbg !4852
}
define linkonce_odr void @_ZNSt12_Vector_baseIdSaIdEE12_Vector_implD2Ev(%struct._ZNSt12_Vector_baseIdSaIdEE12_Vector_implE* %_T21338800_52663.arg) #0 inlinehint !dbg !4854 {
L.entry:
	%_T21338800_52663.addr = alloca %struct._ZNSt12_Vector_baseIdSaIdEE12_Vector_implE*, align 8

	store %struct._ZNSt12_Vector_baseIdSaIdEE12_Vector_implE* %_T21338800_52663.arg, %struct._ZNSt12_Vector_baseIdSaIdEE12_Vector_implE** %_T21338800_52663.addr, align 8, !tbaa !3925
	ret void, !dbg !4870
}

%struct._ZSt6vectorIdSaIdEE = type <{ %struct._ZSt12_Vector_baseIdSaIdEE}> 

define linkonce_odr void @_ZNSt6vectorIdSaIdEED1Ev(%struct._ZSt6vectorIdSaIdEE* %_T21338800_52664.arg) #0 inlinehint !dbg !4875 {
L.entry:
	%_T21338800_52664.addr = alloca %struct._ZSt6vectorIdSaIdEE*, align 8
	%..inline.addr = alloca %struct._ZSt12_Vector_baseIdSaIdEE*, align 8
	%..inline.addr.1 = alloca double*, align 8

	call void @llvm.dbg.declare (metadata %struct._ZSt6vectorIdSaIdEE** %_T21338800_52664.addr, metadata !4927, metadata !3917), !dbg !4876
	store %struct._ZSt6vectorIdSaIdEE* %_T21338800_52664.arg, %struct._ZSt6vectorIdSaIdEE** %_T21338800_52664.addr, align 8, !tbaa !3925
	call void @llvm.dbg.declare (metadata %struct._ZSt6vectorIdSaIdEE** %_T21338800_52664.addr, metadata !4928, metadata !3917), !dbg !4876
	%0 = load %struct._ZSt6vectorIdSaIdEE*, %struct._ZSt6vectorIdSaIdEE** %_T21338800_52664.addr, align 8, !tbaa !3925, !dbg !4929
	%1 = bitcast %struct._ZSt6vectorIdSaIdEE*  %0 to i8*, !dbg !4929
	%2 = bitcast %struct._ZSt12_Vector_baseIdSaIdEE** %..inline.addr to i8**, !dbg !4929
	store i8*  %1, i8**  %2, align 8, !tbaa !3925, !dbg !4929
	%3 = load %struct._ZSt12_Vector_baseIdSaIdEE*, %struct._ZSt12_Vector_baseIdSaIdEE** %..inline.addr, align 8, !tbaa !3925, !dbg !4930
	%4 = bitcast %struct._ZSt12_Vector_baseIdSaIdEE*  %3 to i8**, !dbg !4930
	%5 = load i8*, i8**  %4, align 8, !tbaa !3925, !dbg !4930
	%6 = icmp eq i8*  %5,  null, !dbg !4930
	br i1  %6, label %L..inline.68697, label %L.B1172, !dbg !4930
L.B1172:
	%7 = bitcast %struct._ZSt12_Vector_baseIdSaIdEE*  %3 to i8**, !dbg !4930
	%8 = load i8*, i8**  %7, align 8, !tbaa !3925, !dbg !4930
	%9 = bitcast double** %..inline.addr.1 to i8**, !dbg !4930
	store i8*  %8, i8**  %9, align 8, !tbaa !3925, !dbg !4930
	%10 = load double*, double** %..inline.addr.1, align 8, !tbaa !3925, !dbg !4930
	%11 = bitcast double*  %10 to i8*, !dbg !4930
	call void  @_ZdlPv (i8*  %11) nounwind, !dbg !4930
	br label %L..inline.68697
L..inline.68697:
	ret void, !dbg !4929
}
define linkonce_odr void @_ZNSt6vectorIdSaIdEED2Ev(%struct._ZSt6vectorIdSaIdEE* %_T21338800_52665.arg) #0 inlinehint !dbg !4932 {
L.entry:
	%_T21338800_52665.addr = alloca %struct._ZSt6vectorIdSaIdEE*, align 8
	%..inline.addr = alloca %struct._ZSt12_Vector_baseIdSaIdEE*, align 8
	%..inline.addr.1 = alloca double*, align 8

	store %struct._ZSt6vectorIdSaIdEE* %_T21338800_52665.arg, %struct._ZSt6vectorIdSaIdEE** %_T21338800_52665.addr, align 8, !tbaa !3925
	%0 = load %struct._ZSt6vectorIdSaIdEE*, %struct._ZSt6vectorIdSaIdEE** %_T21338800_52665.addr, align 8, !tbaa !3925, !dbg !4988
	%1 = bitcast %struct._ZSt6vectorIdSaIdEE*  %0 to i8*, !dbg !4988
	%2 = bitcast %struct._ZSt12_Vector_baseIdSaIdEE** %..inline.addr to i8**, !dbg !4988
	store i8*  %1, i8**  %2, align 8, !tbaa !3925, !dbg !4988
	%3 = load %struct._ZSt12_Vector_baseIdSaIdEE*, %struct._ZSt12_Vector_baseIdSaIdEE** %..inline.addr, align 8, !tbaa !3925, !dbg !4988
	%4 = bitcast %struct._ZSt12_Vector_baseIdSaIdEE*  %3 to i8**, !dbg !4988
	%5 = load i8*, i8**  %4, align 8, !tbaa !3925, !dbg !4988
	%6 = icmp eq i8*  %5,  null, !dbg !4988
	br i1  %6, label %L..inline.68801, label %L.B1175, !dbg !4988
L.B1175:
	%7 = bitcast %struct._ZSt12_Vector_baseIdSaIdEE*  %3 to i8**, !dbg !4988
	%8 = load i8*, i8**  %7, align 8, !tbaa !3925, !dbg !4988
	%9 = bitcast double** %..inline.addr.1 to i8**, !dbg !4988
	store i8*  %8, i8**  %9, align 8, !tbaa !3925, !dbg !4988
	%10 = load double*, double** %..inline.addr.1, align 8, !tbaa !3925, !dbg !4988
	%11 = bitcast double*  %10 to i8*, !dbg !4988
	call void  @_ZdlPv (i8*  %11) nounwind, !dbg !4988
	br label %L..inline.68801
L..inline.68801:
	ret void, !dbg !4988
}

%struct._ZSaIN5vmesh14MeshParametersEE = type <{ [1 x i8]}> 

define linkonce_odr void @_ZNSaIN5vmesh14MeshParametersEED1Ev(%struct._ZSaIN5vmesh14MeshParametersEE* %_T21338800_52666.arg) #0 inlinehint !dbg !4996 {
L.entry:
	%_T21338800_52666.addr = alloca %struct._ZSaIN5vmesh14MeshParametersEE*, align 8

	call void @llvm.dbg.declare (metadata %struct._ZSaIN5vmesh14MeshParametersEE** %_T21338800_52666.addr, metadata !5000, metadata !3917), !dbg !4997
	store %struct._ZSaIN5vmesh14MeshParametersEE* %_T21338800_52666.arg, %struct._ZSaIN5vmesh14MeshParametersEE** %_T21338800_52666.addr, align 8, !tbaa !3925
	call void @llvm.dbg.declare (metadata %struct._ZSaIN5vmesh14MeshParametersEE** %_T21338800_52666.addr, metadata !5001, metadata !3917), !dbg !4997
	ret void, !dbg !5002
}
define linkonce_odr void @_ZNSaIN5vmesh14MeshParametersEED2Ev(%struct._ZSaIN5vmesh14MeshParametersEE* %_T21338800_52667.arg) #0 inlinehint !dbg !5004 {
L.entry:
	%_T21338800_52667.addr = alloca %struct._ZSaIN5vmesh14MeshParametersEE*, align 8

	store %struct._ZSaIN5vmesh14MeshParametersEE* %_T21338800_52667.arg, %struct._ZSaIN5vmesh14MeshParametersEE** %_T21338800_52667.addr, align 8, !tbaa !3925
	ret void, !dbg !5012
}

%struct._ZN5vmesh14MeshParametersE = type <{ %struct._ZNSt7__cxx1112basic_stringIcSt11char_traitsIcESaIcEEE, i32, [4 x i8], [6 x double], [3 x i32], [3 x i32], i8, i8, [6 x i8], [3 x double], [3 x double], [3 x double], [3 x double], [3 x double], %struct._ZSt6vectorIjSaIjEE, %struct._ZSt6vectorIdSaIdEE, %struct._ZSt6vectorIdSaIdEE, %struct._ZSt6vectorIjSaIjEE}> 

define linkonce_odr void @_ZNSt16allocator_traitsISaIN5vmesh14MeshParametersEEE10deallocateERS2_PS1_m(%struct._ZSaIN5vmesh14MeshParametersEE* %__a.arg, %struct._ZN5vmesh14MeshParametersE* %__p.arg, i64 %__n.arg) #0 inlinehint !dbg !5020 {
L.entry:
	%__a.addr = alloca %struct._ZSaIN5vmesh14MeshParametersEE*, align 8
	%__p.addr = alloca %struct._ZN5vmesh14MeshParametersE*, align 8
	%__n.addr = alloca i64, align 8
	%..inline.addr = alloca %struct._ZN5vmesh14MeshParametersE*, align 8

	call void @llvm.dbg.declare (metadata %struct._ZSaIN5vmesh14MeshParametersEE** %__a.addr, metadata !5028, metadata !3917), !dbg !5021
	store %struct._ZSaIN5vmesh14MeshParametersEE* %__a.arg, %struct._ZSaIN5vmesh14MeshParametersEE** %__a.addr, align 8, !tbaa !3925
	call void @llvm.dbg.declare (metadata %struct._ZSaIN5vmesh14MeshParametersEE** %__a.addr, metadata !5029, metadata !3917), !dbg !5021
	call void @llvm.dbg.declare (metadata %struct._ZN5vmesh14MeshParametersE** %__p.addr, metadata !5030, metadata !3917), !dbg !5021
	store %struct._ZN5vmesh14MeshParametersE* %__p.arg, %struct._ZN5vmesh14MeshParametersE** %__p.addr, align 8, !tbaa !3925
	call void @llvm.dbg.declare (metadata %struct._ZN5vmesh14MeshParametersE** %__p.addr, metadata !5031, metadata !3917), !dbg !5021
	call void @llvm.dbg.declare (metadata i64* %__n.addr, metadata !5032, metadata !3917), !dbg !5021
	store i64 %__n.arg, i64* %__n.addr, align 8, !tbaa !3924
	call void @llvm.dbg.declare (metadata i64* %__n.addr, metadata !5033, metadata !3917), !dbg !5021
	%0 = load %struct._ZN5vmesh14MeshParametersE*, %struct._ZN5vmesh14MeshParametersE** %__p.addr, align 8, !tbaa !3925, !dbg !5034
	%1 = bitcast %struct._ZN5vmesh14MeshParametersE*  %0 to i8*, !dbg !5034
	%2 = bitcast %struct._ZN5vmesh14MeshParametersE** %..inline.addr to i8**, !dbg !5034
	store i8*  %1, i8**  %2, align 8, !tbaa !3925, !dbg !5034
	%3 = load %struct._ZN5vmesh14MeshParametersE*, %struct._ZN5vmesh14MeshParametersE** %..inline.addr, align 8, !tbaa !3925, !dbg !5035
	%4 = bitcast %struct._ZN5vmesh14MeshParametersE*  %3 to i8*, !dbg !5035
	call void  @_ZdlPv (i8*  %4) nounwind, !dbg !5035
	ret void, !dbg !5034
}

%struct._ZNSt12_Vector_baseIN5vmesh14MeshParametersESaIS1_EE17_Vector_impl_dataE = type <{ %struct._ZN5vmesh14MeshParametersE*, %struct._ZN5vmesh14MeshParametersE*, %struct._ZN5vmesh14MeshParametersE*}> 
%struct._ZNSt12_Vector_baseIN5vmesh14MeshParametersESaIS1_EE12_Vector_implE = type <{ %struct._ZNSt12_Vector_baseIN5vmesh14MeshParametersESaIS1_EE17_Vector_impl_dataE}> 
%struct._ZSt12_Vector_baseIN5vmesh14MeshParametersESaIS1_EE = type <{ %struct._ZNSt12_Vector_baseIN5vmesh14MeshParametersESaIS1_EE12_Vector_implE}> 

define linkonce_odr %struct._ZSaIN5vmesh14MeshParametersEE* @_ZNSt12_Vector_baseIN5vmesh14MeshParametersESaIS1_EE19_M_get_Tp_allocatorEv(%struct._ZSt12_Vector_baseIN5vmesh14MeshParametersESaIS1_EE* %_T21338800_52673.arg) #0 inlinehint !dbg !5041 {
L.entry:
	%_T21338800_52673.addr = alloca %struct._ZSt12_Vector_baseIN5vmesh14MeshParametersESaIS1_EE*, align 8

	call void @llvm.dbg.declare (metadata %struct._ZSt12_Vector_baseIN5vmesh14MeshParametersESaIS1_EE** %_T21338800_52673.addr, metadata !5045, metadata !3917), !dbg !5042
	store %struct._ZSt12_Vector_baseIN5vmesh14MeshParametersESaIS1_EE* %_T21338800_52673.arg, %struct._ZSt12_Vector_baseIN5vmesh14MeshParametersESaIS1_EE** %_T21338800_52673.addr, align 8, !tbaa !3925
	call void @llvm.dbg.declare (metadata %struct._ZSt12_Vector_baseIN5vmesh14MeshParametersESaIS1_EE** %_T21338800_52673.addr, metadata !5046, metadata !3917), !dbg !5042
	%0 = load %struct._ZSt12_Vector_baseIN5vmesh14MeshParametersESaIS1_EE*, %struct._ZSt12_Vector_baseIN5vmesh14MeshParametersESaIS1_EE** %_T21338800_52673.addr, align 8, !tbaa !3925, !dbg !5047
	%1 = bitcast %struct._ZSt12_Vector_baseIN5vmesh14MeshParametersESaIS1_EE*  %0 to %struct._ZSaIN5vmesh14MeshParametersEE*, !dbg !5047
	ret %struct._ZSaIN5vmesh14MeshParametersEE*  %1, !dbg !5047
}
define linkonce_odr void @_ZNSt12_Vector_baseIN5vmesh14MeshParametersESaIS1_EEC1Ev(%struct._ZSt12_Vector_baseIN5vmesh14MeshParametersESaIS1_EE* %_T21338800_52674.arg) #0 inlinehint !dbg !5051 {
L.entry:
	%_T21338800_52674.addr = alloca %struct._ZSt12_Vector_baseIN5vmesh14MeshParametersESaIS1_EE*, align 8
	%..inline.addr = alloca %struct._ZNSt12_Vector_baseIN5vmesh14MeshParametersESaIS1_EE17_Vector_impl_dataE*, align 8

	call void @llvm.dbg.declare (metadata %struct._ZSt12_Vector_baseIN5vmesh14MeshParametersESaIS1_EE** %_T21338800_52674.addr, metadata !5067, metadata !3917), !dbg !5052
	store %struct._ZSt12_Vector_baseIN5vmesh14MeshParametersESaIS1_EE* %_T21338800_52674.arg, %struct._ZSt12_Vector_baseIN5vmesh14MeshParametersESaIS1_EE** %_T21338800_52674.addr, align 8, !tbaa !3925
	call void @llvm.dbg.declare (metadata %struct._ZSt12_Vector_baseIN5vmesh14MeshParametersESaIS1_EE** %_T21338800_52674.addr, metadata !5068, metadata !3917), !dbg !5052
	%0 = load %struct._ZSt12_Vector_baseIN5vmesh14MeshParametersESaIS1_EE*, %struct._ZSt12_Vector_baseIN5vmesh14MeshParametersESaIS1_EE** %_T21338800_52674.addr, align 8, !tbaa !3925, !dbg !5069
	%1 = bitcast %struct._ZSt12_Vector_baseIN5vmesh14MeshParametersESaIS1_EE*  %0 to i8*, !dbg !5069
	%2 = bitcast %struct._ZNSt12_Vector_baseIN5vmesh14MeshParametersESaIS1_EE17_Vector_impl_dataE** %..inline.addr to i8**, !dbg !5069
	store i8*  %1, i8**  %2, align 8, !tbaa !3925, !dbg !5069
	%3 = load %struct._ZNSt12_Vector_baseIN5vmesh14MeshParametersESaIS1_EE17_Vector_impl_dataE*, %struct._ZNSt12_Vector_baseIN5vmesh14MeshParametersESaIS1_EE17_Vector_impl_dataE** %..inline.addr, align 8, !tbaa !3925, !dbg !5069
	%4 = bitcast %struct._ZNSt12_Vector_baseIN5vmesh14MeshParametersESaIS1_EE17_Vector_impl_dataE*  %3 to i8**, !dbg !5069
	store i8* null, i8**  %4, align 8, !tbaa !3925, !dbg !5069
	%5 = bitcast %struct._ZNSt12_Vector_baseIN5vmesh14MeshParametersESaIS1_EE17_Vector_impl_dataE*  %3 to i8*, !dbg !5069
	%6 = getelementptr i8, i8*  %5, i64 8, !dbg !5069
	%7 = bitcast i8*  %6 to i8**, !dbg !5069
	store i8* null, i8**  %7, align 8, !tbaa !3925, !dbg !5069
	%8 = getelementptr i8, i8*  %5, i64 16, !dbg !5069
	%9 = bitcast i8*  %8 to i8**, !dbg !5069
	store i8* null, i8**  %9, align 8, !tbaa !3925, !dbg !5069
	ret void, !dbg !5069
}
define linkonce_odr void @_ZNSt12_Vector_baseIN5vmesh14MeshParametersESaIS1_EEC2Ev(%struct._ZSt12_Vector_baseIN5vmesh14MeshParametersESaIS1_EE* %_T21338800_52675.arg) #0 inlinehint !dbg !5071 {
L.entry:
	%_T21338800_52675.addr = alloca %struct._ZSt12_Vector_baseIN5vmesh14MeshParametersESaIS1_EE*, align 8
	%..inline.addr = alloca %struct._ZNSt12_Vector_baseIN5vmesh14MeshParametersESaIS1_EE17_Vector_impl_dataE*, align 8

	store %struct._ZSt12_Vector_baseIN5vmesh14MeshParametersESaIS1_EE* %_T21338800_52675.arg, %struct._ZSt12_Vector_baseIN5vmesh14MeshParametersESaIS1_EE** %_T21338800_52675.addr, align 8, !tbaa !3925
	%0 = load %struct._ZSt12_Vector_baseIN5vmesh14MeshParametersESaIS1_EE*, %struct._ZSt12_Vector_baseIN5vmesh14MeshParametersESaIS1_EE** %_T21338800_52675.addr, align 8, !tbaa !3925, !dbg !5091
	%1 = bitcast %struct._ZSt12_Vector_baseIN5vmesh14MeshParametersESaIS1_EE*  %0 to i8*, !dbg !5091
	%2 = bitcast %struct._ZNSt12_Vector_baseIN5vmesh14MeshParametersESaIS1_EE17_Vector_impl_dataE** %..inline.addr to i8**, !dbg !5091
	store i8*  %1, i8**  %2, align 8, !tbaa !3925, !dbg !5091
	%3 = load %struct._ZNSt12_Vector_baseIN5vmesh14MeshParametersESaIS1_EE17_Vector_impl_dataE*, %struct._ZNSt12_Vector_baseIN5vmesh14MeshParametersESaIS1_EE17_Vector_impl_dataE** %..inline.addr, align 8, !tbaa !3925, !dbg !5091
	%4 = bitcast %struct._ZNSt12_Vector_baseIN5vmesh14MeshParametersESaIS1_EE17_Vector_impl_dataE*  %3 to i8**, !dbg !5091
	store i8* null, i8**  %4, align 8, !tbaa !3925, !dbg !5091
	%5 = bitcast %struct._ZNSt12_Vector_baseIN5vmesh14MeshParametersESaIS1_EE17_Vector_impl_dataE*  %3 to i8*, !dbg !5091
	%6 = getelementptr i8, i8*  %5, i64 8, !dbg !5091
	%7 = bitcast i8*  %6 to i8**, !dbg !5091
	store i8* null, i8**  %7, align 8, !tbaa !3925, !dbg !5091
	%8 = getelementptr i8, i8*  %5, i64 16, !dbg !5091
	%9 = bitcast i8*  %8 to i8**, !dbg !5091
	store i8* null, i8**  %9, align 8, !tbaa !3925, !dbg !5091
	ret void, !dbg !5091
}
define linkonce_odr void @_ZNSt12_Vector_baseIN5vmesh14MeshParametersESaIS1_EED1Ev(%struct._ZSt12_Vector_baseIN5vmesh14MeshParametersESaIS1_EE* %_T21338800_52676.arg) #0 inlinehint !dbg !5093 {
L.entry:
	%_T21338800_52676.addr = alloca %struct._ZSt12_Vector_baseIN5vmesh14MeshParametersESaIS1_EE*, align 8
	%..inline.addr = alloca %struct._ZN5vmesh14MeshParametersE*, align 8

	call void @llvm.dbg.declare (metadata %struct._ZSt12_Vector_baseIN5vmesh14MeshParametersESaIS1_EE** %_T21338800_52676.addr, metadata !5121, metadata !3917), !dbg !5094
	store %struct._ZSt12_Vector_baseIN5vmesh14MeshParametersESaIS1_EE* %_T21338800_52676.arg, %struct._ZSt12_Vector_baseIN5vmesh14MeshParametersESaIS1_EE** %_T21338800_52676.addr, align 8, !tbaa !3925
	call void @llvm.dbg.declare (metadata %struct._ZSt12_Vector_baseIN5vmesh14MeshParametersESaIS1_EE** %_T21338800_52676.addr, metadata !5122, metadata !3917), !dbg !5094
	%0 = load %struct._ZSt12_Vector_baseIN5vmesh14MeshParametersESaIS1_EE*, %struct._ZSt12_Vector_baseIN5vmesh14MeshParametersESaIS1_EE** %_T21338800_52676.addr, align 8, !tbaa !3925, !dbg !5123
	%1 = bitcast %struct._ZSt12_Vector_baseIN5vmesh14MeshParametersESaIS1_EE*  %0 to i8**, !dbg !5123
	%2 = load i8*, i8**  %1, align 8, !tbaa !3925, !dbg !5123
	%3 = icmp eq i8*  %2,  null, !dbg !5123
	br i1  %3, label %L..inline.68945, label %L.B1188, !dbg !5123
L.B1188:
	%4 = bitcast %struct._ZSt12_Vector_baseIN5vmesh14MeshParametersESaIS1_EE*  %0 to i8**, !dbg !5124
	%5 = load i8*, i8**  %4, align 8, !tbaa !3925, !dbg !5124
	%6 = bitcast %struct._ZN5vmesh14MeshParametersE** %..inline.addr to i8**, !dbg !5124
	store i8*  %5, i8**  %6, align 8, !tbaa !3925, !dbg !5124
	%7 = load %struct._ZN5vmesh14MeshParametersE*, %struct._ZN5vmesh14MeshParametersE** %..inline.addr, align 8, !tbaa !3925, !dbg !5124
	%8 = bitcast %struct._ZN5vmesh14MeshParametersE*  %7 to i8*, !dbg !5124
	call void  @_ZdlPv (i8*  %8) nounwind, !dbg !5124
	br label %L..inline.68945
L..inline.68945:
	ret void, !dbg !5125
}
define linkonce_odr void @_ZNSt12_Vector_baseIN5vmesh14MeshParametersESaIS1_EED2Ev(%struct._ZSt12_Vector_baseIN5vmesh14MeshParametersESaIS1_EE* %_T21338800_52677.arg) #0 inlinehint !dbg !5127 {
L.entry:
	%_T21338800_52677.addr = alloca %struct._ZSt12_Vector_baseIN5vmesh14MeshParametersESaIS1_EE*, align 8
	%..inline.addr = alloca %struct._ZSt12_Vector_baseIN5vmesh14MeshParametersESaIS1_EE*, align 8
	%..inline.addr.1 = alloca %struct._ZN5vmesh14MeshParametersE*, align 8

	store %struct._ZSt12_Vector_baseIN5vmesh14MeshParametersESaIS1_EE* %_T21338800_52677.arg, %struct._ZSt12_Vector_baseIN5vmesh14MeshParametersESaIS1_EE** %_T21338800_52677.addr, align 8, !tbaa !3925
	%0 = load %struct._ZSt12_Vector_baseIN5vmesh14MeshParametersESaIS1_EE*, %struct._ZSt12_Vector_baseIN5vmesh14MeshParametersESaIS1_EE** %_T21338800_52677.addr, align 8, !tbaa !3925, !dbg !5159
	%1 = bitcast %struct._ZSt12_Vector_baseIN5vmesh14MeshParametersESaIS1_EE*  %0 to i8*, !dbg !5159
	%2 = bitcast %struct._ZSt12_Vector_baseIN5vmesh14MeshParametersESaIS1_EE** %..inline.addr to i8**, !dbg !5159
	store i8*  %1, i8**  %2, align 8, !tbaa !3925, !dbg !5159
	%3 = load %struct._ZSt12_Vector_baseIN5vmesh14MeshParametersESaIS1_EE*, %struct._ZSt12_Vector_baseIN5vmesh14MeshParametersESaIS1_EE** %..inline.addr, align 8, !tbaa !3925, !dbg !5159
	%4 = bitcast %struct._ZSt12_Vector_baseIN5vmesh14MeshParametersESaIS1_EE*  %3 to i8**, !dbg !5159
	%5 = load i8*, i8**  %4, align 8, !tbaa !3925, !dbg !5159
	%6 = icmp eq i8*  %5,  null, !dbg !5159
	br i1  %6, label %L..inline.69008, label %L.B1191, !dbg !5159
L.B1191:
	%7 = bitcast %struct._ZSt12_Vector_baseIN5vmesh14MeshParametersESaIS1_EE*  %3 to i8**, !dbg !5159
	%8 = load i8*, i8**  %7, align 8, !tbaa !3925, !dbg !5159
	%9 = bitcast %struct._ZN5vmesh14MeshParametersE** %..inline.addr.1 to i8**, !dbg !5159
	store i8*  %8, i8**  %9, align 8, !tbaa !3925, !dbg !5159
	%10 = load %struct._ZN5vmesh14MeshParametersE*, %struct._ZN5vmesh14MeshParametersE** %..inline.addr.1, align 8, !tbaa !3925, !dbg !5159
	%11 = bitcast %struct._ZN5vmesh14MeshParametersE*  %10 to i8*, !dbg !5159
	call void  @_ZdlPv (i8*  %11) nounwind, !dbg !5159
	br label %L..inline.69008
L..inline.69008:
	ret void, !dbg !5160
}
define linkonce_odr void @_ZNSt12_Vector_baseIN5vmesh14MeshParametersESaIS1_EE13_M_deallocateEPS1_m(%struct._ZSt12_Vector_baseIN5vmesh14MeshParametersESaIS1_EE* %_T21338800_52680.arg, %struct._ZN5vmesh14MeshParametersE* %__p.arg, i64 %__n.arg) #0 inlinehint !dbg !5164 {
L.entry:
	%_T21338800_52680.addr = alloca %struct._ZSt12_Vector_baseIN5vmesh14MeshParametersESaIS1_EE*, align 8
	%__p.addr = alloca %struct._ZN5vmesh14MeshParametersE*, align 8
	%__n.addr = alloca i64, align 8
	%..inline.addr = alloca %struct._ZN5vmesh14MeshParametersE*, align 8

	call void @llvm.dbg.declare (metadata %struct._ZSt12_Vector_baseIN5vmesh14MeshParametersESaIS1_EE** %_T21338800_52680.addr, metadata !5176, metadata !3917), !dbg !5165
	store %struct._ZSt12_Vector_baseIN5vmesh14MeshParametersESaIS1_EE* %_T21338800_52680.arg, %struct._ZSt12_Vector_baseIN5vmesh14MeshParametersESaIS1_EE** %_T21338800_52680.addr, align 8, !tbaa !3925
	call void @llvm.dbg.declare (metadata %struct._ZSt12_Vector_baseIN5vmesh14MeshParametersESaIS1_EE** %_T21338800_52680.addr, metadata !5177, metadata !3917), !dbg !5165
	call void @llvm.dbg.declare (metadata %struct._ZN5vmesh14MeshParametersE** %__p.addr, metadata !5178, metadata !3917), !dbg !5165
	store %struct._ZN5vmesh14MeshParametersE* %__p.arg, %struct._ZN5vmesh14MeshParametersE** %__p.addr, align 8, !tbaa !3925
	call void @llvm.dbg.declare (metadata %struct._ZN5vmesh14MeshParametersE** %__p.addr, metadata !5179, metadata !3917), !dbg !5165
	call void @llvm.dbg.declare (metadata i64* %__n.addr, metadata !5180, metadata !3917), !dbg !5165
	store i64 %__n.arg, i64* %__n.addr, align 8, !tbaa !3924
	call void @llvm.dbg.declare (metadata i64* %__n.addr, metadata !5181, metadata !3917), !dbg !5165
	%0 = load %struct._ZN5vmesh14MeshParametersE*, %struct._ZN5vmesh14MeshParametersE** %__p.addr, align 8, !tbaa !3925, !dbg !5182
	%1 = bitcast %struct._ZN5vmesh14MeshParametersE*  %0 to i8*, !dbg !5182
	%2 = icmp eq i8*  %1,  null, !dbg !5182
	br i1  %2, label %L.B0004, label %L.B1194, !dbg !5182
L.B1194:
	%3 = bitcast %struct._ZN5vmesh14MeshParametersE*  %0 to i8*, !dbg !5183
	%4 = bitcast %struct._ZN5vmesh14MeshParametersE** %..inline.addr to i8**, !dbg !5183
	store i8*  %3, i8**  %4, align 8, !tbaa !3925, !dbg !5183
	%5 = load %struct._ZN5vmesh14MeshParametersE*, %struct._ZN5vmesh14MeshParametersE** %..inline.addr, align 8, !tbaa !3925, !dbg !5183
	%6 = bitcast %struct._ZN5vmesh14MeshParametersE*  %5 to i8*, !dbg !5183
	call void  @_ZdlPv (i8*  %6) nounwind, !dbg !5183
	br label %L.B0004
L.B0004:
	ret void, !dbg !5184
}
define linkonce_odr void @_ZNSt12_Vector_baseIN5vmesh14MeshParametersESaIS1_EE17_Vector_impl_dataC1Ev(%struct._ZNSt12_Vector_baseIN5vmesh14MeshParametersESaIS1_EE17_Vector_impl_dataE* %_T21338800_52681.arg) #0 inlinehint !dbg !5189 {
L.entry:
	%_T21338800_52681.addr = alloca %struct._ZNSt12_Vector_baseIN5vmesh14MeshParametersESaIS1_EE17_Vector_impl_dataE*, align 8

	call void @llvm.dbg.declare (metadata %struct._ZNSt12_Vector_baseIN5vmesh14MeshParametersESaIS1_EE17_Vector_impl_dataE** %_T21338800_52681.addr, metadata !5193, metadata !3917), !dbg !5190
	store %struct._ZNSt12_Vector_baseIN5vmesh14MeshParametersESaIS1_EE17_Vector_impl_dataE* %_T21338800_52681.arg, %struct._ZNSt12_Vector_baseIN5vmesh14MeshParametersESaIS1_EE17_Vector_impl_dataE** %_T21338800_52681.addr, align 8, !tbaa !3925
	call void @llvm.dbg.declare (metadata %struct._ZNSt12_Vector_baseIN5vmesh14MeshParametersESaIS1_EE17_Vector_impl_dataE** %_T21338800_52681.addr, metadata !5194, metadata !3917), !dbg !5190
	%0 = load %struct._ZNSt12_Vector_baseIN5vmesh14MeshParametersESaIS1_EE17_Vector_impl_dataE*, %struct._ZNSt12_Vector_baseIN5vmesh14MeshParametersESaIS1_EE17_Vector_impl_dataE** %_T21338800_52681.addr, align 8, !tbaa !3925, !dbg !5195
	%1 = bitcast %struct._ZNSt12_Vector_baseIN5vmesh14MeshParametersESaIS1_EE17_Vector_impl_dataE*  %0 to i8**, !dbg !5195
	store i8* null, i8**  %1, align 8, !tbaa !3925, !dbg !5195
	%2 = bitcast %struct._ZNSt12_Vector_baseIN5vmesh14MeshParametersESaIS1_EE17_Vector_impl_dataE*  %0 to i8*, !dbg !5195
	%3 = getelementptr i8, i8*  %2, i64 8, !dbg !5195
	%4 = bitcast i8*  %3 to i8**, !dbg !5195
	store i8* null, i8**  %4, align 8, !tbaa !3925, !dbg !5195
	%5 = getelementptr i8, i8*  %2, i64 16, !dbg !5195
	%6 = bitcast i8*  %5 to i8**, !dbg !5195
	store i8* null, i8**  %6, align 8, !tbaa !3925, !dbg !5195
	ret void, !dbg !5195
}
define linkonce_odr void @_ZNSt12_Vector_baseIN5vmesh14MeshParametersESaIS1_EE17_Vector_impl_dataC2Ev(%struct._ZNSt12_Vector_baseIN5vmesh14MeshParametersESaIS1_EE17_Vector_impl_dataE* %_T21338800_52682.arg) #0 inlinehint !dbg !5197 {
L.entry:
	%_T21338800_52682.addr = alloca %struct._ZNSt12_Vector_baseIN5vmesh14MeshParametersESaIS1_EE17_Vector_impl_dataE*, align 8
	%..inline.addr = alloca %struct._ZNSt12_Vector_baseIN5vmesh14MeshParametersESaIS1_EE17_Vector_impl_dataE*, align 8

	store %struct._ZNSt12_Vector_baseIN5vmesh14MeshParametersESaIS1_EE17_Vector_impl_dataE* %_T21338800_52682.arg, %struct._ZNSt12_Vector_baseIN5vmesh14MeshParametersESaIS1_EE17_Vector_impl_dataE** %_T21338800_52682.addr, align 8, !tbaa !3925
	%0 = load %struct._ZNSt12_Vector_baseIN5vmesh14MeshParametersESaIS1_EE17_Vector_impl_dataE*, %struct._ZNSt12_Vector_baseIN5vmesh14MeshParametersESaIS1_EE17_Vector_impl_dataE** %_T21338800_52682.addr, align 8, !tbaa !3925, !dbg !5205
	%1 = bitcast %struct._ZNSt12_Vector_baseIN5vmesh14MeshParametersESaIS1_EE17_Vector_impl_dataE*  %0 to i8*, !dbg !5205
	%2 = bitcast %struct._ZNSt12_Vector_baseIN5vmesh14MeshParametersESaIS1_EE17_Vector_impl_dataE** %..inline.addr to i8**, !dbg !5205
	store i8*  %1, i8**  %2, align 8, !tbaa !3925, !dbg !5205
	%3 = load %struct._ZNSt12_Vector_baseIN5vmesh14MeshParametersESaIS1_EE17_Vector_impl_dataE*, %struct._ZNSt12_Vector_baseIN5vmesh14MeshParametersESaIS1_EE17_Vector_impl_dataE** %..inline.addr, align 8, !tbaa !3925, !dbg !5205
	%4 = bitcast %struct._ZNSt12_Vector_baseIN5vmesh14MeshParametersESaIS1_EE17_Vector_impl_dataE*  %3 to i8**, !dbg !5205
	store i8* null, i8**  %4, align 8, !tbaa !3925, !dbg !5205
	%5 = bitcast %struct._ZNSt12_Vector_baseIN5vmesh14MeshParametersESaIS1_EE17_Vector_impl_dataE*  %3 to i8*, !dbg !5205
	%6 = getelementptr i8, i8*  %5, i64 8, !dbg !5205
	%7 = bitcast i8*  %6 to i8**, !dbg !5205
	store i8* null, i8**  %7, align 8, !tbaa !3925, !dbg !5205
	%8 = getelementptr i8, i8*  %5, i64 16, !dbg !5205
	%9 = bitcast i8*  %8 to i8**, !dbg !5205
	store i8* null, i8**  %9, align 8, !tbaa !3925, !dbg !5205
	ret void, !dbg !5205
}
define linkonce_odr void @_ZNSt12_Vector_baseIN5vmesh14MeshParametersESaIS1_EE12_Vector_implC1Ev(%struct._ZNSt12_Vector_baseIN5vmesh14MeshParametersESaIS1_EE12_Vector_implE* %_T21338800_52683.arg) #0 inlinehint !dbg !5210 {
L.entry:
	%_T21338800_52683.addr = alloca %struct._ZNSt12_Vector_baseIN5vmesh14MeshParametersESaIS1_EE12_Vector_implE*, align 8
	%..inline.addr = alloca %struct._ZNSt12_Vector_baseIN5vmesh14MeshParametersESaIS1_EE17_Vector_impl_dataE*, align 8

	call void @llvm.dbg.declare (metadata %struct._ZNSt12_Vector_baseIN5vmesh14MeshParametersESaIS1_EE12_Vector_implE** %_T21338800_52683.addr, metadata !5222, metadata !3917), !dbg !5211
	store %struct._ZNSt12_Vector_baseIN5vmesh14MeshParametersESaIS1_EE12_Vector_implE* %_T21338800_52683.arg, %struct._ZNSt12_Vector_baseIN5vmesh14MeshParametersESaIS1_EE12_Vector_implE** %_T21338800_52683.addr, align 8, !tbaa !3925
	call void @llvm.dbg.declare (metadata %struct._ZNSt12_Vector_baseIN5vmesh14MeshParametersESaIS1_EE12_Vector_implE** %_T21338800_52683.addr, metadata !5223, metadata !3917), !dbg !5211
	%0 = load %struct._ZNSt12_Vector_baseIN5vmesh14MeshParametersESaIS1_EE12_Vector_implE*, %struct._ZNSt12_Vector_baseIN5vmesh14MeshParametersESaIS1_EE12_Vector_implE** %_T21338800_52683.addr, align 8, !tbaa !3925, !dbg !5224
	%1 = bitcast %struct._ZNSt12_Vector_baseIN5vmesh14MeshParametersESaIS1_EE12_Vector_implE*  %0 to i8*, !dbg !5224
	%2 = bitcast %struct._ZNSt12_Vector_baseIN5vmesh14MeshParametersESaIS1_EE17_Vector_impl_dataE** %..inline.addr to i8**, !dbg !5224
	store i8*  %1, i8**  %2, align 8, !tbaa !3925, !dbg !5224
	%3 = load %struct._ZNSt12_Vector_baseIN5vmesh14MeshParametersESaIS1_EE17_Vector_impl_dataE*, %struct._ZNSt12_Vector_baseIN5vmesh14MeshParametersESaIS1_EE17_Vector_impl_dataE** %..inline.addr, align 8, !tbaa !3925, !dbg !5224
	%4 = bitcast %struct._ZNSt12_Vector_baseIN5vmesh14MeshParametersESaIS1_EE17_Vector_impl_dataE*  %3 to i8**, !dbg !5224
	store i8* null, i8**  %4, align 8, !tbaa !3925, !dbg !5224
	%5 = bitcast %struct._ZNSt12_Vector_baseIN5vmesh14MeshParametersESaIS1_EE17_Vector_impl_dataE*  %3 to i8*, !dbg !5225
	%6 = getelementptr i8, i8*  %5, i64 8, !dbg !5225
	%7 = bitcast i8*  %6 to i8**, !dbg !5225
	store i8* null, i8**  %7, align 8, !tbaa !3925, !dbg !5225
	%8 = getelementptr i8, i8*  %5, i64 16, !dbg !5225
	%9 = bitcast i8*  %8 to i8**, !dbg !5225
	store i8* null, i8**  %9, align 8, !tbaa !3925, !dbg !5225
	ret void, !dbg !5224
}
define linkonce_odr void @_ZNSt12_Vector_baseIN5vmesh14MeshParametersESaIS1_EE12_Vector_implC2Ev(%struct._ZNSt12_Vector_baseIN5vmesh14MeshParametersESaIS1_EE12_Vector_implE* %_T21338800_52684.arg) #0 inlinehint !dbg !5227 {
L.entry:
	%_T21338800_52684.addr = alloca %struct._ZNSt12_Vector_baseIN5vmesh14MeshParametersESaIS1_EE12_Vector_implE*, align 8
	%..inline.addr = alloca %struct._ZNSt12_Vector_baseIN5vmesh14MeshParametersESaIS1_EE17_Vector_impl_dataE*, align 8

	store %struct._ZNSt12_Vector_baseIN5vmesh14MeshParametersESaIS1_EE12_Vector_implE* %_T21338800_52684.arg, %struct._ZNSt12_Vector_baseIN5vmesh14MeshParametersESaIS1_EE12_Vector_implE** %_T21338800_52684.addr, align 8, !tbaa !3925
	%0 = load %struct._ZNSt12_Vector_baseIN5vmesh14MeshParametersESaIS1_EE12_Vector_implE*, %struct._ZNSt12_Vector_baseIN5vmesh14MeshParametersESaIS1_EE12_Vector_implE** %_T21338800_52684.addr, align 8, !tbaa !3925, !dbg !5243
	%1 = bitcast %struct._ZNSt12_Vector_baseIN5vmesh14MeshParametersESaIS1_EE12_Vector_implE*  %0 to i8*, !dbg !5243
	%2 = bitcast %struct._ZNSt12_Vector_baseIN5vmesh14MeshParametersESaIS1_EE17_Vector_impl_dataE** %..inline.addr to i8**, !dbg !5243
	store i8*  %1, i8**  %2, align 8, !tbaa !3925, !dbg !5243
	%3 = load %struct._ZNSt12_Vector_baseIN5vmesh14MeshParametersESaIS1_EE17_Vector_impl_dataE*, %struct._ZNSt12_Vector_baseIN5vmesh14MeshParametersESaIS1_EE17_Vector_impl_dataE** %..inline.addr, align 8, !tbaa !3925, !dbg !5243
	%4 = bitcast %struct._ZNSt12_Vector_baseIN5vmesh14MeshParametersESaIS1_EE17_Vector_impl_dataE*  %3 to i8**, !dbg !5243
	store i8* null, i8**  %4, align 8, !tbaa !3925, !dbg !5243
	%5 = bitcast %struct._ZNSt12_Vector_baseIN5vmesh14MeshParametersESaIS1_EE17_Vector_impl_dataE*  %3 to i8*, !dbg !5243
	%6 = getelementptr i8, i8*  %5, i64 8, !dbg !5243
	%7 = bitcast i8*  %6 to i8**, !dbg !5243
	store i8* null, i8**  %7, align 8, !tbaa !3925, !dbg !5243
	%8 = getelementptr i8, i8*  %5, i64 16, !dbg !5243
	%9 = bitcast i8*  %8 to i8**, !dbg !5243
	store i8* null, i8**  %9, align 8, !tbaa !3925, !dbg !5243
	ret void, !dbg !5243
}
define linkonce_odr void @_ZNSt12_Vector_baseIN5vmesh14MeshParametersESaIS1_EE12_Vector_implD1Ev(%struct._ZNSt12_Vector_baseIN5vmesh14MeshParametersESaIS1_EE12_Vector_implE* %_T21338800_52685.arg) #0 inlinehint !dbg !5245 {
L.entry:
	%_T21338800_52685.addr = alloca %struct._ZNSt12_Vector_baseIN5vmesh14MeshParametersESaIS1_EE12_Vector_implE*, align 8

	call void @llvm.dbg.declare (metadata %struct._ZNSt12_Vector_baseIN5vmesh14MeshParametersESaIS1_EE12_Vector_implE** %_T21338800_52685.addr, metadata !5257, metadata !3917), !dbg !5246
	store %struct._ZNSt12_Vector_baseIN5vmesh14MeshParametersESaIS1_EE12_Vector_implE* %_T21338800_52685.arg, %struct._ZNSt12_Vector_baseIN5vmesh14MeshParametersESaIS1_EE12_Vector_implE** %_T21338800_52685.addr, align 8, !tbaa !3925
	call void @llvm.dbg.declare (metadata %struct._ZNSt12_Vector_baseIN5vmesh14MeshParametersESaIS1_EE12_Vector_implE** %_T21338800_52685.addr, metadata !5258, metadata !3917), !dbg !5246
	ret void, !dbg !5259
}
define linkonce_odr void @_ZNSt12_Vector_baseIN5vmesh14MeshParametersESaIS1_EE12_Vector_implD2Ev(%struct._ZNSt12_Vector_baseIN5vmesh14MeshParametersESaIS1_EE12_Vector_implE* %_T21338800_52686.arg) #0 inlinehint !dbg !5261 {
L.entry:
	%_T21338800_52686.addr = alloca %struct._ZNSt12_Vector_baseIN5vmesh14MeshParametersESaIS1_EE12_Vector_implE*, align 8

	store %struct._ZNSt12_Vector_baseIN5vmesh14MeshParametersESaIS1_EE12_Vector_implE* %_T21338800_52686.arg, %struct._ZNSt12_Vector_baseIN5vmesh14MeshParametersESaIS1_EE12_Vector_implE** %_T21338800_52686.addr, align 8, !tbaa !3925
	ret void, !dbg !5277
}

%struct._ZSt6vectorIN5vmesh14MeshParametersESaIS1_EE = type <{ %struct._ZSt12_Vector_baseIN5vmesh14MeshParametersESaIS1_EE}> 

define linkonce_odr void @_ZNSt6vectorIN5vmesh14MeshParametersESaIS1_EEC1Ev(%struct._ZSt6vectorIN5vmesh14MeshParametersESaIS1_EE* %_T21338800_52687.arg) #0 inlinehint !dbg !5282 {
L.entry:
	%_T21338800_52687.addr = alloca %struct._ZSt6vectorIN5vmesh14MeshParametersESaIS1_EE*, align 8
	%..inline.addr = alloca %struct._ZNSt12_Vector_baseIN5vmesh14MeshParametersESaIS1_EE17_Vector_impl_dataE*, align 8

	call void @llvm.dbg.declare (metadata %struct._ZSt6vectorIN5vmesh14MeshParametersESaIS1_EE** %_T21338800_52687.addr, metadata !5306, metadata !3917), !dbg !5283
	store %struct._ZSt6vectorIN5vmesh14MeshParametersESaIS1_EE* %_T21338800_52687.arg, %struct._ZSt6vectorIN5vmesh14MeshParametersESaIS1_EE** %_T21338800_52687.addr, align 8, !tbaa !3925
	call void @llvm.dbg.declare (metadata %struct._ZSt6vectorIN5vmesh14MeshParametersESaIS1_EE** %_T21338800_52687.addr, metadata !5307, metadata !3917), !dbg !5283
	%0 = load %struct._ZSt6vectorIN5vmesh14MeshParametersESaIS1_EE*, %struct._ZSt6vectorIN5vmesh14MeshParametersESaIS1_EE** %_T21338800_52687.addr, align 8, !tbaa !3925, !dbg !5308
	%1 = bitcast %struct._ZSt6vectorIN5vmesh14MeshParametersESaIS1_EE*  %0 to i8*, !dbg !5308
	%2 = bitcast %struct._ZNSt12_Vector_baseIN5vmesh14MeshParametersESaIS1_EE17_Vector_impl_dataE** %..inline.addr to i8**, !dbg !5308
	store i8*  %1, i8**  %2, align 8, !tbaa !3925, !dbg !5308
	%3 = load %struct._ZNSt12_Vector_baseIN5vmesh14MeshParametersESaIS1_EE17_Vector_impl_dataE*, %struct._ZNSt12_Vector_baseIN5vmesh14MeshParametersESaIS1_EE17_Vector_impl_dataE** %..inline.addr, align 8, !tbaa !3925, !dbg !5308
	%4 = bitcast %struct._ZNSt12_Vector_baseIN5vmesh14MeshParametersESaIS1_EE17_Vector_impl_dataE*  %3 to i8**, !dbg !5308
	store i8* null, i8**  %4, align 8, !tbaa !3925, !dbg !5308
	%5 = bitcast %struct._ZNSt12_Vector_baseIN5vmesh14MeshParametersESaIS1_EE17_Vector_impl_dataE*  %3 to i8*, !dbg !5308
	%6 = getelementptr i8, i8*  %5, i64 8, !dbg !5308
	%7 = bitcast i8*  %6 to i8**, !dbg !5308
	store i8* null, i8**  %7, align 8, !tbaa !3925, !dbg !5308
	%8 = getelementptr i8, i8*  %5, i64 16, !dbg !5308
	%9 = bitcast i8*  %8 to i8**, !dbg !5308
	store i8* null, i8**  %9, align 8, !tbaa !3925, !dbg !5308
	ret void, !dbg !5308
}
define linkonce_odr void @_ZNSt6vectorIN5vmesh14MeshParametersESaIS1_EEC2Ev(%struct._ZSt6vectorIN5vmesh14MeshParametersESaIS1_EE* %_T21338800_52688.arg) #0 inlinehint !dbg !5310 {
L.entry:
	%_T21338800_52688.addr = alloca %struct._ZSt6vectorIN5vmesh14MeshParametersESaIS1_EE*, align 8
	%..inline.addr = alloca %struct._ZNSt12_Vector_baseIN5vmesh14MeshParametersESaIS1_EE17_Vector_impl_dataE*, align 8

	store %struct._ZSt6vectorIN5vmesh14MeshParametersESaIS1_EE* %_T21338800_52688.arg, %struct._ZSt6vectorIN5vmesh14MeshParametersESaIS1_EE** %_T21338800_52688.addr, align 8, !tbaa !3925
	%0 = load %struct._ZSt6vectorIN5vmesh14MeshParametersESaIS1_EE*, %struct._ZSt6vectorIN5vmesh14MeshParametersESaIS1_EE** %_T21338800_52688.addr, align 8, !tbaa !3925, !dbg !5338
	%1 = bitcast %struct._ZSt6vectorIN5vmesh14MeshParametersESaIS1_EE*  %0 to i8*, !dbg !5338
	%2 = bitcast %struct._ZNSt12_Vector_baseIN5vmesh14MeshParametersESaIS1_EE17_Vector_impl_dataE** %..inline.addr to i8**, !dbg !5338
	store i8*  %1, i8**  %2, align 8, !tbaa !3925, !dbg !5338
	%3 = load %struct._ZNSt12_Vector_baseIN5vmesh14MeshParametersESaIS1_EE17_Vector_impl_dataE*, %struct._ZNSt12_Vector_baseIN5vmesh14MeshParametersESaIS1_EE17_Vector_impl_dataE** %..inline.addr, align 8, !tbaa !3925, !dbg !5338
	%4 = bitcast %struct._ZNSt12_Vector_baseIN5vmesh14MeshParametersESaIS1_EE17_Vector_impl_dataE*  %3 to i8**, !dbg !5338
	store i8* null, i8**  %4, align 8, !tbaa !3925, !dbg !5338
	%5 = bitcast %struct._ZNSt12_Vector_baseIN5vmesh14MeshParametersESaIS1_EE17_Vector_impl_dataE*  %3 to i8*, !dbg !5338
	%6 = getelementptr i8, i8*  %5, i64 8, !dbg !5338
	%7 = bitcast i8*  %6 to i8**, !dbg !5338
	store i8* null, i8**  %7, align 8, !tbaa !3925, !dbg !5338
	%8 = getelementptr i8, i8*  %5, i64 16, !dbg !5338
	%9 = bitcast i8*  %8 to i8**, !dbg !5338
	store i8* null, i8**  %9, align 8, !tbaa !3925, !dbg !5338
	ret void, !dbg !5338
}
define linkonce_odr void @_ZNSt6vectorIN5vmesh14MeshParametersESaIS1_EED1Ev(%struct._ZSt6vectorIN5vmesh14MeshParametersESaIS1_EE* %_T21338800_52689.arg) #0 inlinehint !dbg !5340 {
L.entry:
	%_T21338800_52689.addr = alloca %struct._ZSt6vectorIN5vmesh14MeshParametersESaIS1_EE*, align 8
	%..inline.addr = alloca %struct._ZN5vmesh14MeshParametersE*, align 8
	%..inline.addr.1 = alloca %struct._ZN5vmesh14MeshParametersE*, align 8
	%.lcr4457345.addr = alloca i8*, align 8
	%..inline.addr.2 = alloca %struct._ZN5vmesh14MeshParametersE*, align 8
	%..inline.addr.3 = alloca %struct._ZSt12_Vector_baseIN5vmesh14MeshParametersESaIS1_EE*, align 8
	%..inline.addr.4 = alloca %struct._ZN5vmesh14MeshParametersE*, align 8

	call void @llvm.dbg.declare (metadata %struct._ZSt6vectorIN5vmesh14MeshParametersESaIS1_EE** %_T21338800_52689.addr, metadata !5400, metadata !3917), !dbg !5341
	store %struct._ZSt6vectorIN5vmesh14MeshParametersESaIS1_EE* %_T21338800_52689.arg, %struct._ZSt6vectorIN5vmesh14MeshParametersESaIS1_EE** %_T21338800_52689.addr, align 8, !tbaa !3925
	call void @llvm.dbg.declare (metadata %struct._ZSt6vectorIN5vmesh14MeshParametersESaIS1_EE** %_T21338800_52689.addr, metadata !5401, metadata !3917), !dbg !5341
	%0 = load %struct._ZSt6vectorIN5vmesh14MeshParametersESaIS1_EE*, %struct._ZSt6vectorIN5vmesh14MeshParametersESaIS1_EE** %_T21338800_52689.addr, align 8, !tbaa !3925, !dbg !5402
	%1 = bitcast %struct._ZSt6vectorIN5vmesh14MeshParametersESaIS1_EE*  %0 to i8**, !dbg !5402
	%2 = load i8*, i8**  %1, align 8, !tbaa !3925, !dbg !5402
	%3 = bitcast %struct._ZN5vmesh14MeshParametersE** %..inline.addr to i8**, !dbg !5402
	store i8*  %2, i8**  %3, align 8, !tbaa !3925, !dbg !5402
	%4 = bitcast %struct._ZSt6vectorIN5vmesh14MeshParametersESaIS1_EE*  %0 to i8*, !dbg !5402
	%5 = getelementptr i8, i8*  %4, i64 8, !dbg !5402
	%6 = bitcast i8*  %5 to i8**, !dbg !5402
	%7 = load i8*, i8**  %6, align 8, !tbaa !3925, !dbg !5402
	%8 = bitcast %struct._ZN5vmesh14MeshParametersE** %..inline.addr.1 to i8**, !dbg !5402
	store i8*  %7, i8**  %8, align 8, !tbaa !3925, !dbg !5402
	%9 = load %struct._ZN5vmesh14MeshParametersE*, %struct._ZN5vmesh14MeshParametersE** %..inline.addr, align 8, !tbaa !3925, !dbg !5402
	%10 = bitcast %struct._ZN5vmesh14MeshParametersE*  %9 to i8*, !dbg !5402
	%11 = load %struct._ZN5vmesh14MeshParametersE*, %struct._ZN5vmesh14MeshParametersE** %..inline.addr.1, align 8, !tbaa !3925, !dbg !5402
	%12 = bitcast %struct._ZN5vmesh14MeshParametersE*  %11 to i8*, !dbg !5402
	%13 = icmp eq i8*  %10,  %12, !dbg !5402
	br i1  %13, label %L..inline.69261, label %L.B1215, !dbg !5402
L.B1215:
	%14 = bitcast %struct._ZN5vmesh14MeshParametersE*  %9 to i8*, !dbg !5402
	%15 = bitcast %struct._ZN5vmesh14MeshParametersE*  %11 to i8*, !dbg !5402
	%16 = ptrtoint i8*  %14 to i64, !dbg !5402
	%17 = sub i64 0,  %16, !dbg !5402
	%18 = getelementptr i8, i8*  %15, i64  %17, !dbg !5402
	%19 = ptrtoint i8*  %18 to i64, !dbg !5402
	%20 = add i64  %19, 335, !dbg !5402
	%21 = sub i64 0,  %16, !dbg !5402
	%22 = getelementptr i8, i8*  %15, i64  %21, !dbg !5402
	%23 = ptrtoint i8*  %22 to i64, !dbg !5402
	%24 = add i64  %23, 335, !dbg !5402
	%25 = sext i64 -4392081922311798003 to i128, !dbg !5402
	%26 = sext i64  %24 to i128, !dbg !5402
	%27 = mul i128  %25,  %26, !dbg !5402
	%28 = ashr i128  %27, 64, !dbg !5402
	%29 = trunc i128  %28 to i64, !dbg !5402
	%30 = add i64  %20,  %29, !dbg !5402
	%31 = sext i32 8 to i64, !dbg !5402
	%32 = ashr i64  %30,  %31, !dbg !5402
	%33 = sub i64 0,  %16, !dbg !5402
	%34 = getelementptr i8, i8*  %15, i64  %33, !dbg !5402
	%35 = ptrtoint i8*  %34 to i64, !dbg !5402
	%36 = add i64  %35, 335, !dbg !5402
	%37 = sext i32 63 to i64, !dbg !5402
	%38 = ashr i64  %36,  %37, !dbg !5402
	%39 = sub i64  %32,  %38, !dbg !5402
	%40 = mul i64  %39, 336, !dbg !5402
	%41 = getelementptr i8, i8*  %14, i64  %40, !dbg !5402
	store i8*  %41, i8** %.lcr4457345.addr, align 8, !tbaa !3925, !dbg !5402
	br label %L..inline.69260
L..inline.69260:
	%42 = load %struct._ZN5vmesh14MeshParametersE*, %struct._ZN5vmesh14MeshParametersE** %..inline.addr, align 8, !tbaa !3925, !dbg !5402
	%43 = bitcast %struct._ZN5vmesh14MeshParametersE*  %42 to i8*, !dbg !5402
	%44 = bitcast %struct._ZN5vmesh14MeshParametersE** %..inline.addr.2 to i8**, !dbg !5402
	store i8*  %43, i8**  %44, align 8, !tbaa !3925, !dbg !5402
	%45 = load %struct._ZN5vmesh14MeshParametersE*, %struct._ZN5vmesh14MeshParametersE** %..inline.addr.2, align 8, !tbaa !3925, !dbg !5402
	call void  @_ZN5vmesh14MeshParametersD1Ev (%struct._ZN5vmesh14MeshParametersE*  %45) nounwind, !dbg !5402
	%46 = load %struct._ZN5vmesh14MeshParametersE*, %struct._ZN5vmesh14MeshParametersE** %..inline.addr, align 8, !tbaa !3925, !dbg !5402
	%47 = bitcast %struct._ZN5vmesh14MeshParametersE*  %46 to i8*, !dbg !5402
	%48 = getelementptr i8, i8*  %47, i64 336, !dbg !5402
	%49 = bitcast %struct._ZN5vmesh14MeshParametersE** %..inline.addr to i8**, !dbg !5402
	store i8*  %48, i8**  %49, align 8, !tbaa !3925, !dbg !5402
	%50 = load %struct._ZN5vmesh14MeshParametersE*, %struct._ZN5vmesh14MeshParametersE** %..inline.addr, align 8, !tbaa !3925, !dbg !5402
	%51 = bitcast %struct._ZN5vmesh14MeshParametersE*  %50 to i8*, !dbg !5402
	%52 = load i8*, i8** %.lcr4457345.addr, align 8, !tbaa !3925, !dbg !5402
	%53 = icmp ult i8*  %51,  %52, !dbg !5402
	br i1  %53, label %L..inline.69260, label %L..inline.69261, !dbg !5402
L..inline.69261:
	%54 = load %struct._ZSt6vectorIN5vmesh14MeshParametersESaIS1_EE*, %struct._ZSt6vectorIN5vmesh14MeshParametersESaIS1_EE** %_T21338800_52689.addr, align 8, !tbaa !3925, !dbg !5403
	%55 = bitcast %struct._ZSt6vectorIN5vmesh14MeshParametersESaIS1_EE*  %54 to i8*, !dbg !5403
	%56 = bitcast %struct._ZSt12_Vector_baseIN5vmesh14MeshParametersESaIS1_EE** %..inline.addr.3 to i8**, !dbg !5403
	store i8*  %55, i8**  %56, align 8, !tbaa !3925, !dbg !5403
	%57 = load %struct._ZSt12_Vector_baseIN5vmesh14MeshParametersESaIS1_EE*, %struct._ZSt12_Vector_baseIN5vmesh14MeshParametersESaIS1_EE** %..inline.addr.3, align 8, !tbaa !3925, !dbg !5404
	%58 = bitcast %struct._ZSt12_Vector_baseIN5vmesh14MeshParametersESaIS1_EE*  %57 to i8**, !dbg !5404
	%59 = load i8*, i8**  %58, align 8, !tbaa !3925, !dbg !5404
	%60 = icmp eq i8*  %59,  null, !dbg !5404
	br i1  %60, label %L..inline.69293, label %L.B1216, !dbg !5404
L.B1216:
	%61 = bitcast %struct._ZSt12_Vector_baseIN5vmesh14MeshParametersESaIS1_EE*  %57 to i8**, !dbg !5404
	%62 = load i8*, i8**  %61, align 8, !tbaa !3925, !dbg !5404
	%63 = bitcast %struct._ZN5vmesh14MeshParametersE** %..inline.addr.4 to i8**, !dbg !5404
	store i8*  %62, i8**  %63, align 8, !tbaa !3925, !dbg !5404
	%64 = load %struct._ZN5vmesh14MeshParametersE*, %struct._ZN5vmesh14MeshParametersE** %..inline.addr.4, align 8, !tbaa !3925, !dbg !5404
	%65 = bitcast %struct._ZN5vmesh14MeshParametersE*  %64 to i8*, !dbg !5404
	call void  @_ZdlPv (i8*  %65) nounwind, !dbg !5404
	br label %L..inline.69293
L..inline.69293:
	ret void, !dbg !5403
}
define linkonce_odr void @_ZNSt6vectorIN5vmesh14MeshParametersESaIS1_EED2Ev(%struct._ZSt6vectorIN5vmesh14MeshParametersESaIS1_EE* %_T21338800_52690.arg) #0 inlinehint !dbg !5406 {
L.entry:
	%_T21338800_52690.addr = alloca %struct._ZSt6vectorIN5vmesh14MeshParametersESaIS1_EE*, align 8
	%..inline.addr = alloca %struct._ZSt6vectorIN5vmesh14MeshParametersESaIS1_EE*, align 8
	%..inline.addr.1 = alloca %struct._ZN5vmesh14MeshParametersE*, align 8
	%..inline.addr.2 = alloca %struct._ZN5vmesh14MeshParametersE*, align 8
	%.lcr4458369.addr = alloca i8*, align 8
	%..inline.addr.3 = alloca %struct._ZN5vmesh14MeshParametersE*, align 8
	%..inline.addr.4 = alloca %struct._ZN5vmesh14MeshParametersE*, align 8

	store %struct._ZSt6vectorIN5vmesh14MeshParametersESaIS1_EE* %_T21338800_52690.arg, %struct._ZSt6vectorIN5vmesh14MeshParametersESaIS1_EE** %_T21338800_52690.addr, align 8, !tbaa !3925
	%0 = load %struct._ZSt6vectorIN5vmesh14MeshParametersESaIS1_EE*, %struct._ZSt6vectorIN5vmesh14MeshParametersESaIS1_EE** %_T21338800_52690.addr, align 8, !tbaa !3925, !dbg !5470
	%1 = bitcast %struct._ZSt6vectorIN5vmesh14MeshParametersESaIS1_EE*  %0 to i8*, !dbg !5470
	%2 = bitcast %struct._ZSt6vectorIN5vmesh14MeshParametersESaIS1_EE** %..inline.addr to i8**, !dbg !5470
	store i8*  %1, i8**  %2, align 8, !tbaa !3925, !dbg !5470
	%3 = load %struct._ZSt6vectorIN5vmesh14MeshParametersESaIS1_EE*, %struct._ZSt6vectorIN5vmesh14MeshParametersESaIS1_EE** %..inline.addr, align 8, !tbaa !3925, !dbg !5471
	%4 = bitcast %struct._ZSt6vectorIN5vmesh14MeshParametersESaIS1_EE*  %3 to i8**, !dbg !5471
	%5 = load i8*, i8**  %4, align 8, !tbaa !3925, !dbg !5471
	%6 = bitcast %struct._ZN5vmesh14MeshParametersE** %..inline.addr.1 to i8**, !dbg !5471
	store i8*  %5, i8**  %6, align 8, !tbaa !3925, !dbg !5471
	%7 = bitcast %struct._ZSt6vectorIN5vmesh14MeshParametersESaIS1_EE*  %3 to i8*, !dbg !5471
	%8 = getelementptr i8, i8*  %7, i64 8, !dbg !5471
	%9 = bitcast i8*  %8 to i8**, !dbg !5471
	%10 = load i8*, i8**  %9, align 8, !tbaa !3925, !dbg !5471
	%11 = bitcast %struct._ZN5vmesh14MeshParametersE** %..inline.addr.2 to i8**, !dbg !5471
	store i8*  %10, i8**  %11, align 8, !tbaa !3925, !dbg !5471
	%12 = load %struct._ZN5vmesh14MeshParametersE*, %struct._ZN5vmesh14MeshParametersE** %..inline.addr.1, align 8, !tbaa !3925, !dbg !5471
	%13 = bitcast %struct._ZN5vmesh14MeshParametersE*  %12 to i8*, !dbg !5471
	%14 = load %struct._ZN5vmesh14MeshParametersE*, %struct._ZN5vmesh14MeshParametersE** %..inline.addr.2, align 8, !tbaa !3925, !dbg !5471
	%15 = bitcast %struct._ZN5vmesh14MeshParametersE*  %14 to i8*, !dbg !5471
	%16 = icmp eq i8*  %13,  %15, !dbg !5471
	br i1  %16, label %L..inline.69392, label %L.B1219, !dbg !5471
L.B1219:
	%17 = bitcast %struct._ZN5vmesh14MeshParametersE*  %12 to i8*, !dbg !5471
	%18 = bitcast %struct._ZN5vmesh14MeshParametersE*  %14 to i8*, !dbg !5471
	%19 = ptrtoint i8*  %17 to i64, !dbg !5471
	%20 = sub i64 0,  %19, !dbg !5471
	%21 = getelementptr i8, i8*  %18, i64  %20, !dbg !5471
	%22 = ptrtoint i8*  %21 to i64, !dbg !5471
	%23 = add i64  %22, 335, !dbg !5471
	%24 = sub i64 0,  %19, !dbg !5471
	%25 = getelementptr i8, i8*  %18, i64  %24, !dbg !5471
	%26 = ptrtoint i8*  %25 to i64, !dbg !5471
	%27 = add i64  %26, 335, !dbg !5471
	%28 = sext i64 -4392081922311798003 to i128, !dbg !5471
	%29 = sext i64  %27 to i128, !dbg !5471
	%30 = mul i128  %28,  %29, !dbg !5471
	%31 = ashr i128  %30, 64, !dbg !5471
	%32 = trunc i128  %31 to i64, !dbg !5471
	%33 = add i64  %23,  %32, !dbg !5471
	%34 = sext i32 8 to i64, !dbg !5471
	%35 = ashr i64  %33,  %34, !dbg !5471
	%36 = sub i64 0,  %19, !dbg !5471
	%37 = getelementptr i8, i8*  %18, i64  %36, !dbg !5471
	%38 = ptrtoint i8*  %37 to i64, !dbg !5471
	%39 = add i64  %38, 335, !dbg !5471
	%40 = sext i32 63 to i64, !dbg !5471
	%41 = ashr i64  %39,  %40, !dbg !5471
	%42 = sub i64  %35,  %41, !dbg !5471
	%43 = mul i64  %42, 336, !dbg !5471
	%44 = getelementptr i8, i8*  %17, i64  %43, !dbg !5471
	store i8*  %44, i8** %.lcr4458369.addr, align 8, !tbaa !3925, !dbg !5471
	br label %L..inline.69391
L..inline.69391:
	%45 = load %struct._ZN5vmesh14MeshParametersE*, %struct._ZN5vmesh14MeshParametersE** %..inline.addr.1, align 8, !tbaa !3925, !dbg !5471
	%46 = bitcast %struct._ZN5vmesh14MeshParametersE*  %45 to i8*, !dbg !5471
	%47 = bitcast %struct._ZN5vmesh14MeshParametersE** %..inline.addr.3 to i8**, !dbg !5471
	store i8*  %46, i8**  %47, align 8, !tbaa !3925, !dbg !5471
	%48 = load %struct._ZN5vmesh14MeshParametersE*, %struct._ZN5vmesh14MeshParametersE** %..inline.addr.3, align 8, !tbaa !3925, !dbg !5471
	call void  @_ZN5vmesh14MeshParametersD1Ev (%struct._ZN5vmesh14MeshParametersE*  %48) nounwind, !dbg !5471
	%49 = load %struct._ZN5vmesh14MeshParametersE*, %struct._ZN5vmesh14MeshParametersE** %..inline.addr.1, align 8, !tbaa !3925, !dbg !5471
	%50 = bitcast %struct._ZN5vmesh14MeshParametersE*  %49 to i8*, !dbg !5471
	%51 = getelementptr i8, i8*  %50, i64 336, !dbg !5471
	%52 = bitcast %struct._ZN5vmesh14MeshParametersE** %..inline.addr.1 to i8**, !dbg !5471
	store i8*  %51, i8**  %52, align 8, !tbaa !3925, !dbg !5471
	%53 = load %struct._ZN5vmesh14MeshParametersE*, %struct._ZN5vmesh14MeshParametersE** %..inline.addr.1, align 8, !tbaa !3925, !dbg !5471
	%54 = bitcast %struct._ZN5vmesh14MeshParametersE*  %53 to i8*, !dbg !5471
	%55 = load i8*, i8** %.lcr4458369.addr, align 8, !tbaa !3925, !dbg !5471
	%56 = icmp ult i8*  %54,  %55, !dbg !5471
	br i1  %56, label %L..inline.69391, label %L..inline.69392, !dbg !5471
L..inline.69392:
	%57 = load %struct._ZSt6vectorIN5vmesh14MeshParametersESaIS1_EE*, %struct._ZSt6vectorIN5vmesh14MeshParametersESaIS1_EE** %..inline.addr, align 8, !tbaa !3925, !dbg !5472
	%58 = bitcast %struct._ZSt6vectorIN5vmesh14MeshParametersESaIS1_EE*  %57 to i8**, !dbg !5472
	%59 = load i8*, i8**  %58, align 8, !tbaa !3925, !dbg !5472
	%60 = icmp eq i8*  %59,  null, !dbg !5472
	br i1  %60, label %L..inline.69422, label %L.B1220, !dbg !5472
L.B1220:
	%61 = bitcast %struct._ZSt6vectorIN5vmesh14MeshParametersESaIS1_EE*  %57 to i8**, !dbg !5472
	%62 = load i8*, i8**  %61, align 8, !tbaa !3925, !dbg !5472
	%63 = bitcast %struct._ZN5vmesh14MeshParametersE** %..inline.addr.4 to i8**, !dbg !5472
	store i8*  %62, i8**  %63, align 8, !tbaa !3925, !dbg !5472
	%64 = load %struct._ZN5vmesh14MeshParametersE*, %struct._ZN5vmesh14MeshParametersE** %..inline.addr.4, align 8, !tbaa !3925, !dbg !5472
	%65 = bitcast %struct._ZN5vmesh14MeshParametersE*  %64 to i8*, !dbg !5472
	call void  @_ZdlPv (i8*  %65) nounwind, !dbg !5472
	br label %L..inline.69422
L..inline.69422:
	ret void, !dbg !5472
}
define linkonce_odr signext i8 @_ZNKSt4lessINSt7__cxx1112basic_stringIcSt11char_traitsIcESaIcEEEEclERKS5_S8_(%struct._ZSt4lessINSt7__cxx1112basic_stringIcSt11char_traitsIcESaIcEEEE* %_T21338800_52691.arg, %struct._ZNSt7__cxx1112basic_stringIcSt11char_traitsIcESaIcEEE* %__x.arg, %struct._ZNSt7__cxx1112basic_stringIcSt11char_traitsIcESaIcEEE* %__y.arg) #0 inlinehint !dbg !5479 {
L.entry:
	%_T21338800_52691.addr = alloca %struct._ZSt4lessINSt7__cxx1112basic_stringIcSt11char_traitsIcESaIcEEEE*, align 8
	%__x.addr = alloca %struct._ZNSt7__cxx1112basic_stringIcSt11char_traitsIcESaIcEEE*, align 8
	%__y.addr = alloca %struct._ZNSt7__cxx1112basic_stringIcSt11char_traitsIcESaIcEEE*, align 8

	call void @llvm.dbg.declare (metadata %struct._ZSt4lessINSt7__cxx1112basic_stringIcSt11char_traitsIcESaIcEEEE** %_T21338800_52691.addr, metadata !5483, metadata !3917), !dbg !5480
	store %struct._ZSt4lessINSt7__cxx1112basic_stringIcSt11char_traitsIcESaIcEEEE* %_T21338800_52691.arg, %struct._ZSt4lessINSt7__cxx1112basic_stringIcSt11char_traitsIcESaIcEEEE** %_T21338800_52691.addr, align 8, !tbaa !3925
	call void @llvm.dbg.declare (metadata %struct._ZSt4lessINSt7__cxx1112basic_stringIcSt11char_traitsIcESaIcEEEE** %_T21338800_52691.addr, metadata !5484, metadata !3917), !dbg !5480
	call void @llvm.dbg.declare (metadata %struct._ZNSt7__cxx1112basic_stringIcSt11char_traitsIcESaIcEEE** %__x.addr, metadata !5485, metadata !3917), !dbg !5480
	store %struct._ZNSt7__cxx1112basic_stringIcSt11char_traitsIcESaIcEEE* %__x.arg, %struct._ZNSt7__cxx1112basic_stringIcSt11char_traitsIcESaIcEEE** %__x.addr, align 8, !tbaa !3925
	call void @llvm.dbg.declare (metadata %struct._ZNSt7__cxx1112basic_stringIcSt11char_traitsIcESaIcEEE** %__x.addr, metadata !5486, metadata !3917), !dbg !5480
	call void @llvm.dbg.declare (metadata %struct._ZNSt7__cxx1112basic_stringIcSt11char_traitsIcESaIcEEE** %__y.addr, metadata !5487, metadata !3917), !dbg !5480
	store %struct._ZNSt7__cxx1112basic_stringIcSt11char_traitsIcESaIcEEE* %__y.arg, %struct._ZNSt7__cxx1112basic_stringIcSt11char_traitsIcESaIcEEE** %__y.addr, align 8, !tbaa !3925
	call void @llvm.dbg.declare (metadata %struct._ZNSt7__cxx1112basic_stringIcSt11char_traitsIcESaIcEEE** %__y.addr, metadata !5488, metadata !3917), !dbg !5480
	%0 = load %struct._ZNSt7__cxx1112basic_stringIcSt11char_traitsIcESaIcEEE*, %struct._ZNSt7__cxx1112basic_stringIcSt11char_traitsIcESaIcEEE** %__x.addr, align 8, !tbaa !3925, !dbg !5489
	%1 = load %struct._ZNSt7__cxx1112basic_stringIcSt11char_traitsIcESaIcEEE*, %struct._ZNSt7__cxx1112basic_stringIcSt11char_traitsIcESaIcEEE** %__y.addr, align 8, !tbaa !3925, !dbg !5489
	%2 = call i8  @_ZStltIcSt11char_traitsIcESaIcEEbRKNSt7__cxx1112basic_stringIT_T0_T1_EESA_ (%struct._ZNSt7__cxx1112basic_stringIcSt11char_traitsIcESaIcEEE*  %0, %struct._ZNSt7__cxx1112basic_stringIcSt11char_traitsIcESaIcEEE*  %1) nounwind, !dbg !5489
	ret i8  %2, !dbg !5489
}

%struct._ZSaISt13_Rb_tree_nodeISt4pairIKNSt7__cxx1112basic_stringIcSt11char_traitsIcESaIcEEEPFPN16amr_ref_criteria4BaseEvEEEE = type <{ [1 x i8]}> 

define linkonce_odr %struct._ZSaISt13_Rb_tree_nodeISt4pairIKNSt7__cxx1112basic_stringIcSt11char_traitsIcESaIcEEEPFPN16amr_ref_criteria4BaseEvEEEE* @_ZNSt8_Rb_treeINSt7__cxx1112basic_stringIcSt11char_traitsIcESaIcEEESt4pairIKS5_PFPN16amr_ref_criteria4BaseEvEESt10_Select1stISD_ESt4lessIS5_ESaISD_EE21_M_get_Node_allocatorEv(%struct._ZSt8_Rb_treeINSt7__cxx1112basic_stringIcSt11char_traitsIcESaIcEEESt4pairIKS5_PFPN16amr_ref_criteria4BaseEvEESt10_Select1stISD_ESt4lessIS5_ESaISD_EE* %_T21338800_52693.arg) #0 inlinehint !dbg !5497 {
L.entry:
	%_T21338800_52693.addr = alloca %struct._ZSt8_Rb_treeINSt7__cxx1112basic_stringIcSt11char_traitsIcESaIcEEESt4pairIKS5_PFPN16amr_ref_criteria4BaseEvEESt10_Select1stISD_ESt4lessIS5_ESaISD_EE*, align 8

	call void @llvm.dbg.declare (metadata %struct._ZSt8_Rb_treeINSt7__cxx1112basic_stringIcSt11char_traitsIcESaIcEEESt4pairIKS5_PFPN16amr_ref_criteria4BaseEvEESt10_Select1stISD_ESt4lessIS5_ESaISD_EE** %_T21338800_52693.addr, metadata !5501, metadata !3917), !dbg !5498
	store %struct._ZSt8_Rb_treeINSt7__cxx1112basic_stringIcSt11char_traitsIcESaIcEEESt4pairIKS5_PFPN16amr_ref_criteria4BaseEvEESt10_Select1stISD_ESt4lessIS5_ESaISD_EE* %_T21338800_52693.arg, %struct._ZSt8_Rb_treeINSt7__cxx1112basic_stringIcSt11char_traitsIcESaIcEEESt4pairIKS5_PFPN16amr_ref_criteria4BaseEvEESt10_Select1stISD_ESt4lessIS5_ESaISD_EE** %_T21338800_52693.addr, align 8, !tbaa !3925
	call void @llvm.dbg.declare (metadata %struct._ZSt8_Rb_treeINSt7__cxx1112basic_stringIcSt11char_traitsIcESaIcEEESt4pairIKS5_PFPN16amr_ref_criteria4BaseEvEESt10_Select1stISD_ESt4lessIS5_ESaISD_EE** %_T21338800_52693.addr, metadata !5502, metadata !3917), !dbg !5498
	%0 = load %struct._ZSt8_Rb_treeINSt7__cxx1112basic_stringIcSt11char_traitsIcESaIcEEESt4pairIKS5_PFPN16amr_ref_criteria4BaseEvEESt10_Select1stISD_ESt4lessIS5_ESaISD_EE*, %struct._ZSt8_Rb_treeINSt7__cxx1112basic_stringIcSt11char_traitsIcESaIcEEESt4pairIKS5_PFPN16amr_ref_criteria4BaseEvEESt10_Select1stISD_ESt4lessIS5_ESaISD_EE** %_T21338800_52693.addr, align 8, !tbaa !3925, !dbg !5503
	%1 = bitcast %struct._ZSt8_Rb_treeINSt7__cxx1112basic_stringIcSt11char_traitsIcESaIcEEESt4pairIKS5_PFPN16amr_ref_criteria4BaseEvEESt10_Select1stISD_ESt4lessIS5_ESaISD_EE*  %0 to %struct._ZSaISt13_Rb_tree_nodeISt4pairIKNSt7__cxx1112basic_stringIcSt11char_traitsIcESaIcEEEPFPN16amr_ref_criteria4BaseEvEEEE*, !dbg !5503
	ret %struct._ZSaISt13_Rb_tree_nodeISt4pairIKNSt7__cxx1112basic_stringIcSt11char_traitsIcESaIcEEEPFPN16amr_ref_criteria4BaseEvEEEE*  %1, !dbg !5503
}

%struct._ZN9__gnu_cxx16__aligned_membufISt4pairIKNSt7__cxx1112basic_stringIcSt11char_traitsIcESaIcEEEPFPN16amr_ref_criteria4BaseEvEEEE = type <{ [40 x i8]}> 
%struct._ZSt13_Rb_tree_nodeISt4pairIKNSt7__cxx1112basic_stringIcSt11char_traitsIcESaIcEEEPFPN16amr_ref_criteria4BaseEvEEE = type <{ %struct._ZSt18_Rb_tree_node_base, %struct._ZN9__gnu_cxx16__aligned_membufISt4pairIKNSt7__cxx1112basic_stringIcSt11char_traitsIcESaIcEEEPFPN16amr_ref_criteria4BaseEvEEEE}> 

define linkonce_odr %struct._ZSt13_Rb_tree_nodeISt4pairIKNSt7__cxx1112basic_stringIcSt11char_traitsIcESaIcEEEPFPN16amr_ref_criteria4BaseEvEEE* @_ZNSt8_Rb_treeINSt7__cxx1112basic_stringIcSt11char_traitsIcESaIcEEESt4pairIKS5_PFPN16amr_ref_criteria4BaseEvEESt10_Select1stISD_ESt4lessIS5_ESaISD_EE11_M_get_nodeEv(%struct._ZSt8_Rb_treeINSt7__cxx1112basic_stringIcSt11char_traitsIcESaIcEEESt4pairIKS5_PFPN16amr_ref_criteria4BaseEvEESt10_Select1stISD_ESt4lessIS5_ESaISD_EE* %_T21338800_52695.arg) #0 inlinehint !dbg !5507 {
L.entry:
	%_T21338800_52695.addr = alloca %struct._ZSt8_Rb_treeINSt7__cxx1112basic_stringIcSt11char_traitsIcESaIcEEESt4pairIKS5_PFPN16amr_ref_criteria4BaseEvEESt10_Select1stISD_ESt4lessIS5_ESaISD_EE*, align 8
	%.Q0000.addr = alloca i8*, align 8

	call void @llvm.dbg.declare (metadata %struct._ZSt8_Rb_treeINSt7__cxx1112basic_stringIcSt11char_traitsIcESaIcEEESt4pairIKS5_PFPN16amr_ref_criteria4BaseEvEESt10_Select1stISD_ESt4lessIS5_ESaISD_EE** %_T21338800_52695.addr, metadata !5527, metadata !3917), !dbg !5508
	store %struct._ZSt8_Rb_treeINSt7__cxx1112basic_stringIcSt11char_traitsIcESaIcEEESt4pairIKS5_PFPN16amr_ref_criteria4BaseEvEESt10_Select1stISD_ESt4lessIS5_ESaISD_EE* %_T21338800_52695.arg, %struct._ZSt8_Rb_treeINSt7__cxx1112basic_stringIcSt11char_traitsIcESaIcEEESt4pairIKS5_PFPN16amr_ref_criteria4BaseEvEESt10_Select1stISD_ESt4lessIS5_ESaISD_EE** %_T21338800_52695.addr, align 8, !tbaa !3925
	call void @llvm.dbg.declare (metadata %struct._ZSt8_Rb_treeINSt7__cxx1112basic_stringIcSt11char_traitsIcESaIcEEESt4pairIKS5_PFPN16amr_ref_criteria4BaseEvEESt10_Select1stISD_ESt4lessIS5_ESaISD_EE** %_T21338800_52695.addr, metadata !5528, metadata !3917), !dbg !5508
	%0 = call i8*  @_Znwm (i64 72), !dbg !5529
	%1 = bitcast i8*  %0 to %struct._ZSt13_Rb_tree_nodeISt4pairIKNSt7__cxx1112basic_stringIcSt11char_traitsIcESaIcEEEPFPN16amr_ref_criteria4BaseEvEEE*, !dbg !5529
	ret %struct._ZSt13_Rb_tree_nodeISt4pairIKNSt7__cxx1112basic_stringIcSt11char_traitsIcESaIcEEEPFPN16amr_ref_criteria4BaseEvEEE*  %1, !dbg !5529
}
define linkonce_odr void @_ZNSt8_Rb_treeINSt7__cxx1112basic_stringIcSt11char_traitsIcESaIcEEESt4pairIKS5_PFPN16amr_ref_criteria4BaseEvEESt10_Select1stISD_ESt4lessIS5_ESaISD_EE11_M_put_nodeEPSt13_Rb_tree_nodeISD_E(%struct._ZSt8_Rb_treeINSt7__cxx1112basic_stringIcSt11char_traitsIcESaIcEEESt4pairIKS5_PFPN16amr_ref_criteria4BaseEvEESt10_Select1stISD_ESt4lessIS5_ESaISD_EE* %_T21338800_52697.arg, %struct._ZSt13_Rb_tree_nodeISt4pairIKNSt7__cxx1112basic_stringIcSt11char_traitsIcESaIcEEEPFPN16amr_ref_criteria4BaseEvEEE* %__p.arg) #0 inlinehint !dbg !5534 {
L.entry:
	%_T21338800_52697.addr = alloca %struct._ZSt8_Rb_treeINSt7__cxx1112basic_stringIcSt11char_traitsIcESaIcEEESt4pairIKS5_PFPN16amr_ref_criteria4BaseEvEESt10_Select1stISD_ESt4lessIS5_ESaISD_EE*, align 8
	%__p.addr = alloca %struct._ZSt13_Rb_tree_nodeISt4pairIKNSt7__cxx1112basic_stringIcSt11char_traitsIcESaIcEEEPFPN16amr_ref_criteria4BaseEvEEE*, align 8
	%..inline.addr = alloca %struct._ZSt13_Rb_tree_nodeISt4pairIKNSt7__cxx1112basic_stringIcSt11char_traitsIcESaIcEEEPFPN16amr_ref_criteria4BaseEvEEE*, align 8

	call void @llvm.dbg.declare (metadata %struct._ZSt8_Rb_treeINSt7__cxx1112basic_stringIcSt11char_traitsIcESaIcEEESt4pairIKS5_PFPN16amr_ref_criteria4BaseEvEESt10_Select1stISD_ESt4lessIS5_ESaISD_EE** %_T21338800_52697.addr, metadata !5550, metadata !3917), !dbg !5535
	store %struct._ZSt8_Rb_treeINSt7__cxx1112basic_stringIcSt11char_traitsIcESaIcEEESt4pairIKS5_PFPN16amr_ref_criteria4BaseEvEESt10_Select1stISD_ESt4lessIS5_ESaISD_EE* %_T21338800_52697.arg, %struct._ZSt8_Rb_treeINSt7__cxx1112basic_stringIcSt11char_traitsIcESaIcEEESt4pairIKS5_PFPN16amr_ref_criteria4BaseEvEESt10_Select1stISD_ESt4lessIS5_ESaISD_EE** %_T21338800_52697.addr, align 8, !tbaa !3925
	call void @llvm.dbg.declare (metadata %struct._ZSt8_Rb_treeINSt7__cxx1112basic_stringIcSt11char_traitsIcESaIcEEESt4pairIKS5_PFPN16amr_ref_criteria4BaseEvEESt10_Select1stISD_ESt4lessIS5_ESaISD_EE** %_T21338800_52697.addr, metadata !5551, metadata !3917), !dbg !5535
	call void @llvm.dbg.declare (metadata %struct._ZSt13_Rb_tree_nodeISt4pairIKNSt7__cxx1112basic_stringIcSt11char_traitsIcESaIcEEEPFPN16amr_ref_criteria4BaseEvEEE** %__p.addr, metadata !5552, metadata !3917), !dbg !5535
	store %struct._ZSt13_Rb_tree_nodeISt4pairIKNSt7__cxx1112basic_stringIcSt11char_traitsIcESaIcEEEPFPN16amr_ref_criteria4BaseEvEEE* %__p.arg, %struct._ZSt13_Rb_tree_nodeISt4pairIKNSt7__cxx1112basic_stringIcSt11char_traitsIcESaIcEEEPFPN16amr_ref_criteria4BaseEvEEE** %__p.addr, align 8, !tbaa !3925
	call void @llvm.dbg.declare (metadata %struct._ZSt13_Rb_tree_nodeISt4pairIKNSt7__cxx1112basic_stringIcSt11char_traitsIcESaIcEEEPFPN16amr_ref_criteria4BaseEvEEE** %__p.addr, metadata !5553, metadata !3917), !dbg !5535
	%0 = load %struct._ZSt13_Rb_tree_nodeISt4pairIKNSt7__cxx1112basic_stringIcSt11char_traitsIcESaIcEEEPFPN16amr_ref_criteria4BaseEvEEE*, %struct._ZSt13_Rb_tree_nodeISt4pairIKNSt7__cxx1112basic_stringIcSt11char_traitsIcESaIcEEEPFPN16amr_ref_criteria4BaseEvEEE** %__p.addr, align 8, !tbaa !3925, !dbg !5554
	%1 = bitcast %struct._ZSt13_Rb_tree_nodeISt4pairIKNSt7__cxx1112basic_stringIcSt11char_traitsIcESaIcEEEPFPN16amr_ref_criteria4BaseEvEEE*  %0 to i8*, !dbg !5554
	%2 = bitcast %struct._ZSt13_Rb_tree_nodeISt4pairIKNSt7__cxx1112basic_stringIcSt11char_traitsIcESaIcEEEPFPN16amr_ref_criteria4BaseEvEEE** %..inline.addr to i8**, !dbg !5554
	store i8*  %1, i8**  %2, align 8, !tbaa !3925, !dbg !5554
	%3 = load %struct._ZSt13_Rb_tree_nodeISt4pairIKNSt7__cxx1112basic_stringIcSt11char_traitsIcESaIcEEEPFPN16amr_ref_criteria4BaseEvEEE*, %struct._ZSt13_Rb_tree_nodeISt4pairIKNSt7__cxx1112basic_stringIcSt11char_traitsIcESaIcEEEPFPN16amr_ref_criteria4BaseEvEEE** %..inline.addr, align 8, !tbaa !3925, !dbg !5554
	%4 = bitcast %struct._ZSt13_Rb_tree_nodeISt4pairIKNSt7__cxx1112basic_stringIcSt11char_traitsIcESaIcEEEPFPN16amr_ref_criteria4BaseEvEEE*  %3 to i8*, !dbg !5554
	call void  @_ZdlPv (i8*  %4) nounwind, !dbg !5554
	ret void, !dbg !5555
}

%struct._ZN9__gnu_cxx13new_allocatorISt13_Rb_tree_nodeISt4pairIKNSt7__cxx1112basic_stringIcSt11char_traitsIcESaIcEEEPFPN16amr_ref_criteria4BaseEvEEEEE = type <{ [1 x i8]}> 
%struct._ZSt4pairIKNSt7__cxx1112basic_stringIcSt11char_traitsIcESaIcEEEPFPN16amr_ref_criteria4BaseEvEE = type <{ %struct._ZNSt7__cxx1112basic_stringIcSt11char_traitsIcESaIcEEE, %struct._ZN16amr_ref_criteria4BaseE* ()*}> 

define linkonce_odr void @_ZNSt8_Rb_treeINSt7__cxx1112basic_stringIcSt11char_traitsIcESaIcEEESt4pairIKS5_PFPN16amr_ref_criteria4BaseEvEESt10_Select1stISD_ESt4lessIS5_ESaISD_EE15_M_destroy_nodeEPSt13_Rb_tree_nodeISD_E(%struct._ZSt8_Rb_treeINSt7__cxx1112basic_stringIcSt11char_traitsIcESaIcEEESt4pairIKS5_PFPN16amr_ref_criteria4BaseEvEESt10_Select1stISD_ESt4lessIS5_ESaISD_EE* %_T21338800_52699.arg, %struct._ZSt13_Rb_tree_nodeISt4pairIKNSt7__cxx1112basic_stringIcSt11char_traitsIcESaIcEEEPFPN16amr_ref_criteria4BaseEvEEE* %__p.arg) #0 inlinehint !dbg !5557 {
L.entry:
	%_T21338800_52699.addr = alloca %struct._ZSt8_Rb_treeINSt7__cxx1112basic_stringIcSt11char_traitsIcESaIcEEESt4pairIKS5_PFPN16amr_ref_criteria4BaseEvEESt10_Select1stISD_ESt4lessIS5_ESaISD_EE*, align 8
	%__p.addr = alloca %struct._ZSt13_Rb_tree_nodeISt4pairIKNSt7__cxx1112basic_stringIcSt11char_traitsIcESaIcEEEPFPN16amr_ref_criteria4BaseEvEEE*, align 8
	%..inline.addr = alloca %struct._ZSaISt13_Rb_tree_nodeISt4pairIKNSt7__cxx1112basic_stringIcSt11char_traitsIcESaIcEEEPFPN16amr_ref_criteria4BaseEvEEEE*, align 8
	%..inline.addr.1 = alloca %struct._ZSt4pairIKNSt7__cxx1112basic_stringIcSt11char_traitsIcESaIcEEEPFPN16amr_ref_criteria4BaseEvEE*, align 8

	call void @llvm.dbg.declare (metadata %struct._ZSt8_Rb_treeINSt7__cxx1112basic_stringIcSt11char_traitsIcESaIcEEESt4pairIKS5_PFPN16amr_ref_criteria4BaseEvEESt10_Select1stISD_ESt4lessIS5_ESaISD_EE** %_T21338800_52699.addr, metadata !5581, metadata !3917), !dbg !5558
	store %struct._ZSt8_Rb_treeINSt7__cxx1112basic_stringIcSt11char_traitsIcESaIcEEESt4pairIKS5_PFPN16amr_ref_criteria4BaseEvEESt10_Select1stISD_ESt4lessIS5_ESaISD_EE* %_T21338800_52699.arg, %struct._ZSt8_Rb_treeINSt7__cxx1112basic_stringIcSt11char_traitsIcESaIcEEESt4pairIKS5_PFPN16amr_ref_criteria4BaseEvEESt10_Select1stISD_ESt4lessIS5_ESaISD_EE** %_T21338800_52699.addr, align 8, !tbaa !3925
	call void @llvm.dbg.declare (metadata %struct._ZSt8_Rb_treeINSt7__cxx1112basic_stringIcSt11char_traitsIcESaIcEEESt4pairIKS5_PFPN16amr_ref_criteria4BaseEvEESt10_Select1stISD_ESt4lessIS5_ESaISD_EE** %_T21338800_52699.addr, metadata !5582, metadata !3917), !dbg !5558
	call void @llvm.dbg.declare (metadata %struct._ZSt13_Rb_tree_nodeISt4pairIKNSt7__cxx1112basic_stringIcSt11char_traitsIcESaIcEEEPFPN16amr_ref_criteria4BaseEvEEE** %__p.addr, metadata !5583, metadata !3917), !dbg !5558
	store %struct._ZSt13_Rb_tree_nodeISt4pairIKNSt7__cxx1112basic_stringIcSt11char_traitsIcESaIcEEEPFPN16amr_ref_criteria4BaseEvEEE* %__p.arg, %struct._ZSt13_Rb_tree_nodeISt4pairIKNSt7__cxx1112basic_stringIcSt11char_traitsIcESaIcEEEPFPN16amr_ref_criteria4BaseEvEEE** %__p.addr, align 8, !tbaa !3925
	call void @llvm.dbg.declare (metadata %struct._ZSt13_Rb_tree_nodeISt4pairIKNSt7__cxx1112basic_stringIcSt11char_traitsIcESaIcEEEPFPN16amr_ref_criteria4BaseEvEEE** %__p.addr, metadata !5584, metadata !3917), !dbg !5558
	%0 = load %struct._ZSt8_Rb_treeINSt7__cxx1112basic_stringIcSt11char_traitsIcESaIcEEESt4pairIKS5_PFPN16amr_ref_criteria4BaseEvEESt10_Select1stISD_ESt4lessIS5_ESaISD_EE*, %struct._ZSt8_Rb_treeINSt7__cxx1112basic_stringIcSt11char_traitsIcESaIcEEESt4pairIKS5_PFPN16amr_ref_criteria4BaseEvEESt10_Select1stISD_ESt4lessIS5_ESaISD_EE** %_T21338800_52699.addr, align 8, !tbaa !3925, !dbg !5585
	%1 = bitcast %struct._ZSt8_Rb_treeINSt7__cxx1112basic_stringIcSt11char_traitsIcESaIcEEESt4pairIKS5_PFPN16amr_ref_criteria4BaseEvEESt10_Select1stISD_ESt4lessIS5_ESaISD_EE*  %0 to i8*, !dbg !5585
	%2 = bitcast %struct._ZSaISt13_Rb_tree_nodeISt4pairIKNSt7__cxx1112basic_stringIcSt11char_traitsIcESaIcEEEPFPN16amr_ref_criteria4BaseEvEEEE** %..inline.addr to i8**, !dbg !5585
	store i8*  %1, i8**  %2, align 8, !tbaa !3925, !dbg !5585
	%3 = load %struct._ZSt13_Rb_tree_nodeISt4pairIKNSt7__cxx1112basic_stringIcSt11char_traitsIcESaIcEEEPFPN16amr_ref_criteria4BaseEvEEE*, %struct._ZSt13_Rb_tree_nodeISt4pairIKNSt7__cxx1112basic_stringIcSt11char_traitsIcESaIcEEEPFPN16amr_ref_criteria4BaseEvEEE** %__p.addr, align 8, !tbaa !3925, !dbg !5586
	%4 = bitcast %struct._ZSt13_Rb_tree_nodeISt4pairIKNSt7__cxx1112basic_stringIcSt11char_traitsIcESaIcEEEPFPN16amr_ref_criteria4BaseEvEEE*  %3 to i8*, !dbg !5586
	%5 = getelementptr i8, i8*  %4, i64 32, !dbg !5586
	%6 = bitcast %struct._ZSt4pairIKNSt7__cxx1112basic_stringIcSt11char_traitsIcESaIcEEEPFPN16amr_ref_criteria4BaseEvEE** %..inline.addr.1 to i8**, !dbg !5586
	store i8*  %5, i8**  %6, align 8, !tbaa !3925, !dbg !5586
	%7 = load %struct._ZSaISt13_Rb_tree_nodeISt4pairIKNSt7__cxx1112basic_stringIcSt11char_traitsIcESaIcEEEPFPN16amr_ref_criteria4BaseEvEEEE*, %struct._ZSaISt13_Rb_tree_nodeISt4pairIKNSt7__cxx1112basic_stringIcSt11char_traitsIcESaIcEEEPFPN16amr_ref_criteria4BaseEvEEEE** %..inline.addr, align 8, !tbaa !3925, !dbg !5587
	%8 = bitcast %struct._ZSaISt13_Rb_tree_nodeISt4pairIKNSt7__cxx1112basic_stringIcSt11char_traitsIcESaIcEEEPFPN16amr_ref_criteria4BaseEvEEEE*  %7 to %struct._ZN9__gnu_cxx13new_allocatorISt13_Rb_tree_nodeISt4pairIKNSt7__cxx1112basic_stringIcSt11char_traitsIcESaIcEEEPFPN16amr_ref_criteria4BaseEvEEEEE*, !dbg !5587
	%9 = load %struct._ZSt4pairIKNSt7__cxx1112basic_stringIcSt11char_traitsIcESaIcEEEPFPN16amr_ref_criteria4BaseEvEE*, %struct._ZSt4pairIKNSt7__cxx1112basic_stringIcSt11char_traitsIcESaIcEEEPFPN16amr_ref_criteria4BaseEvEE** %..inline.addr.1, align 8, !tbaa !3925, !dbg !5587
	call void  @_ZN9__gnu_cxx13new_allocatorISt13_Rb_tree_nodeISt4pairIKNSt7__cxx1112basic_stringIcSt11char_traitsIcESaIcEEEPFPN16amr_ref_criteria4BaseEvEEEE7destroyISF_EEvPT_ (%struct._ZN9__gnu_cxx13new_allocatorISt13_Rb_tree_nodeISt4pairIKNSt7__cxx1112basic_stringIcSt11char_traitsIcESaIcEEEPFPN16amr_ref_criteria4BaseEvEEEEE*  %8, %struct._ZSt4pairIKNSt7__cxx1112basic_stringIcSt11char_traitsIcESaIcEEEPFPN16amr_ref_criteria4BaseEvEE*  %9) nounwind, !dbg !5587
	ret void, !dbg !5588
}
define linkonce_odr void @_ZNSt8_Rb_treeINSt7__cxx1112basic_stringIcSt11char_traitsIcESaIcEEESt4pairIKS5_PFPN16amr_ref_criteria4BaseEvEESt10_Select1stISD_ESt4lessIS5_ESaISD_EE12_M_drop_nodeEPSt13_Rb_tree_nodeISD_E(%struct._ZSt8_Rb_treeINSt7__cxx1112basic_stringIcSt11char_traitsIcESaIcEEESt4pairIKS5_PFPN16amr_ref_criteria4BaseEvEESt10_Select1stISD_ESt4lessIS5_ESaISD_EE* %_T21338800_52701.arg, %struct._ZSt13_Rb_tree_nodeISt4pairIKNSt7__cxx1112basic_stringIcSt11char_traitsIcESaIcEEEPFPN16amr_ref_criteria4BaseEvEEE* %__p.arg) #0 inlinehint !dbg !5590 {
L.entry:
	%_T21338800_52701.addr = alloca %struct._ZSt8_Rb_treeINSt7__cxx1112basic_stringIcSt11char_traitsIcESaIcEEESt4pairIKS5_PFPN16amr_ref_criteria4BaseEvEESt10_Select1stISD_ESt4lessIS5_ESaISD_EE*, align 8
	%__p.addr = alloca %struct._ZSt13_Rb_tree_nodeISt4pairIKNSt7__cxx1112basic_stringIcSt11char_traitsIcESaIcEEEPFPN16amr_ref_criteria4BaseEvEEE*, align 8
	%..inline.addr = alloca %struct._ZSaISt13_Rb_tree_nodeISt4pairIKNSt7__cxx1112basic_stringIcSt11char_traitsIcESaIcEEEPFPN16amr_ref_criteria4BaseEvEEEE*, align 8
	%..inline.addr.1 = alloca %struct._ZSt4pairIKNSt7__cxx1112basic_stringIcSt11char_traitsIcESaIcEEEPFPN16amr_ref_criteria4BaseEvEE*, align 8
	%..inline.addr.2 = alloca %struct._ZSt13_Rb_tree_nodeISt4pairIKNSt7__cxx1112basic_stringIcSt11char_traitsIcESaIcEEEPFPN16amr_ref_criteria4BaseEvEEE*, align 8

	call void @llvm.dbg.declare (metadata %struct._ZSt8_Rb_treeINSt7__cxx1112basic_stringIcSt11char_traitsIcESaIcEEESt4pairIKS5_PFPN16amr_ref_criteria4BaseEvEESt10_Select1stISD_ESt4lessIS5_ESaISD_EE** %_T21338800_52701.addr, metadata !5634, metadata !3917), !dbg !5591
	store %struct._ZSt8_Rb_treeINSt7__cxx1112basic_stringIcSt11char_traitsIcESaIcEEESt4pairIKS5_PFPN16amr_ref_criteria4BaseEvEESt10_Select1stISD_ESt4lessIS5_ESaISD_EE* %_T21338800_52701.arg, %struct._ZSt8_Rb_treeINSt7__cxx1112basic_stringIcSt11char_traitsIcESaIcEEESt4pairIKS5_PFPN16amr_ref_criteria4BaseEvEESt10_Select1stISD_ESt4lessIS5_ESaISD_EE** %_T21338800_52701.addr, align 8, !tbaa !3925
	call void @llvm.dbg.declare (metadata %struct._ZSt8_Rb_treeINSt7__cxx1112basic_stringIcSt11char_traitsIcESaIcEEESt4pairIKS5_PFPN16amr_ref_criteria4BaseEvEESt10_Select1stISD_ESt4lessIS5_ESaISD_EE** %_T21338800_52701.addr, metadata !5635, metadata !3917), !dbg !5591
	call void @llvm.dbg.declare (metadata %struct._ZSt13_Rb_tree_nodeISt4pairIKNSt7__cxx1112basic_stringIcSt11char_traitsIcESaIcEEEPFPN16amr_ref_criteria4BaseEvEEE** %__p.addr, metadata !5636, metadata !3917), !dbg !5591
	store %struct._ZSt13_Rb_tree_nodeISt4pairIKNSt7__cxx1112basic_stringIcSt11char_traitsIcESaIcEEEPFPN16amr_ref_criteria4BaseEvEEE* %__p.arg, %struct._ZSt13_Rb_tree_nodeISt4pairIKNSt7__cxx1112basic_stringIcSt11char_traitsIcESaIcEEEPFPN16amr_ref_criteria4BaseEvEEE** %__p.addr, align 8, !tbaa !3925
	call void @llvm.dbg.declare (metadata %struct._ZSt13_Rb_tree_nodeISt4pairIKNSt7__cxx1112basic_stringIcSt11char_traitsIcESaIcEEEPFPN16amr_ref_criteria4BaseEvEEE** %__p.addr, metadata !5637, metadata !3917), !dbg !5591
	%0 = load %struct._ZSt8_Rb_treeINSt7__cxx1112basic_stringIcSt11char_traitsIcESaIcEEESt4pairIKS5_PFPN16amr_ref_criteria4BaseEvEESt10_Select1stISD_ESt4lessIS5_ESaISD_EE*, %struct._ZSt8_Rb_treeINSt7__cxx1112basic_stringIcSt11char_traitsIcESaIcEEESt4pairIKS5_PFPN16amr_ref_criteria4BaseEvEESt10_Select1stISD_ESt4lessIS5_ESaISD_EE** %_T21338800_52701.addr, align 8, !tbaa !3925, !dbg !5638
	%1 = bitcast %struct._ZSt8_Rb_treeINSt7__cxx1112basic_stringIcSt11char_traitsIcESaIcEEESt4pairIKS5_PFPN16amr_ref_criteria4BaseEvEESt10_Select1stISD_ESt4lessIS5_ESaISD_EE*  %0 to i8*, !dbg !5638
	%2 = bitcast %struct._ZSaISt13_Rb_tree_nodeISt4pairIKNSt7__cxx1112basic_stringIcSt11char_traitsIcESaIcEEEPFPN16amr_ref_criteria4BaseEvEEEE** %..inline.addr to i8**, !dbg !5638
	store i8*  %1, i8**  %2, align 8, !tbaa !3925, !dbg !5638
	%3 = load %struct._ZSt13_Rb_tree_nodeISt4pairIKNSt7__cxx1112basic_stringIcSt11char_traitsIcESaIcEEEPFPN16amr_ref_criteria4BaseEvEEE*, %struct._ZSt13_Rb_tree_nodeISt4pairIKNSt7__cxx1112basic_stringIcSt11char_traitsIcESaIcEEEPFPN16amr_ref_criteria4BaseEvEEE** %__p.addr, align 8, !tbaa !3925, !dbg !5638
	%4 = bitcast %struct._ZSt13_Rb_tree_nodeISt4pairIKNSt7__cxx1112basic_stringIcSt11char_traitsIcESaIcEEEPFPN16amr_ref_criteria4BaseEvEEE*  %3 to i8*, !dbg !5638
	%5 = getelementptr i8, i8*  %4, i64 32, !dbg !5638
	%6 = bitcast %struct._ZSt4pairIKNSt7__cxx1112basic_stringIcSt11char_traitsIcESaIcEEEPFPN16amr_ref_criteria4BaseEvEE** %..inline.addr.1 to i8**, !dbg !5638
	store i8*  %5, i8**  %6, align 8, !tbaa !3925, !dbg !5638
	%7 = load %struct._ZSaISt13_Rb_tree_nodeISt4pairIKNSt7__cxx1112basic_stringIcSt11char_traitsIcESaIcEEEPFPN16amr_ref_criteria4BaseEvEEEE*, %struct._ZSaISt13_Rb_tree_nodeISt4pairIKNSt7__cxx1112basic_stringIcSt11char_traitsIcESaIcEEEPFPN16amr_ref_criteria4BaseEvEEEE** %..inline.addr, align 8, !tbaa !3925, !dbg !5638
	%8 = bitcast %struct._ZSaISt13_Rb_tree_nodeISt4pairIKNSt7__cxx1112basic_stringIcSt11char_traitsIcESaIcEEEPFPN16amr_ref_criteria4BaseEvEEEE*  %7 to %struct._ZN9__gnu_cxx13new_allocatorISt13_Rb_tree_nodeISt4pairIKNSt7__cxx1112basic_stringIcSt11char_traitsIcESaIcEEEPFPN16amr_ref_criteria4BaseEvEEEEE*, !dbg !5638
	%9 = load %struct._ZSt4pairIKNSt7__cxx1112basic_stringIcSt11char_traitsIcESaIcEEEPFPN16amr_ref_criteria4BaseEvEE*, %struct._ZSt4pairIKNSt7__cxx1112basic_stringIcSt11char_traitsIcESaIcEEEPFPN16amr_ref_criteria4BaseEvEE** %..inline.addr.1, align 8, !tbaa !3925, !dbg !5638
	call void  @_ZN9__gnu_cxx13new_allocatorISt13_Rb_tree_nodeISt4pairIKNSt7__cxx1112basic_stringIcSt11char_traitsIcESaIcEEEPFPN16amr_ref_criteria4BaseEvEEEE7destroyISF_EEvPT_ (%struct._ZN9__gnu_cxx13new_allocatorISt13_Rb_tree_nodeISt4pairIKNSt7__cxx1112basic_stringIcSt11char_traitsIcESaIcEEEPFPN16amr_ref_criteria4BaseEvEEEEE*  %8, %struct._ZSt4pairIKNSt7__cxx1112basic_stringIcSt11char_traitsIcESaIcEEEPFPN16amr_ref_criteria4BaseEvEE*  %9) nounwind, !dbg !5638
	%10 = load %struct._ZSt13_Rb_tree_nodeISt4pairIKNSt7__cxx1112basic_stringIcSt11char_traitsIcESaIcEEEPFPN16amr_ref_criteria4BaseEvEEE*, %struct._ZSt13_Rb_tree_nodeISt4pairIKNSt7__cxx1112basic_stringIcSt11char_traitsIcESaIcEEEPFPN16amr_ref_criteria4BaseEvEEE** %__p.addr, align 8, !tbaa !3925, !dbg !5639
	%11 = bitcast %struct._ZSt13_Rb_tree_nodeISt4pairIKNSt7__cxx1112basic_stringIcSt11char_traitsIcESaIcEEEPFPN16amr_ref_criteria4BaseEvEEE*  %10 to i8*, !dbg !5639
	%12 = bitcast %struct._ZSt13_Rb_tree_nodeISt4pairIKNSt7__cxx1112basic_stringIcSt11char_traitsIcESaIcEEEPFPN16amr_ref_criteria4BaseEvEEE** %..inline.addr.2 to i8**, !dbg !5639
	store i8*  %11, i8**  %12, align 8, !tbaa !3925, !dbg !5639
	%13 = load %struct._ZSt13_Rb_tree_nodeISt4pairIKNSt7__cxx1112basic_stringIcSt11char_traitsIcESaIcEEEPFPN16amr_ref_criteria4BaseEvEEE*, %struct._ZSt13_Rb_tree_nodeISt4pairIKNSt7__cxx1112basic_stringIcSt11char_traitsIcESaIcEEEPFPN16amr_ref_criteria4BaseEvEEE** %..inline.addr.2, align 8, !tbaa !3925, !dbg !5639
	%14 = bitcast %struct._ZSt13_Rb_tree_nodeISt4pairIKNSt7__cxx1112basic_stringIcSt11char_traitsIcESaIcEEEPFPN16amr_ref_criteria4BaseEvEEE*  %13 to i8*, !dbg !5639
	call void  @_ZdlPv (i8*  %14) nounwind, !dbg !5639
	ret void, !dbg !5640
}
define linkonce_odr %struct._ZSt13_Rb_tree_nodeISt4pairIKNSt7__cxx1112basic_stringIcSt11char_traitsIcESaIcEEEPFPN16amr_ref_criteria4BaseEvEEE* @_ZNSt8_Rb_treeINSt7__cxx1112basic_stringIcSt11char_traitsIcESaIcEEESt4pairIKS5_PFPN16amr_ref_criteria4BaseEvEESt10_Select1stISD_ESt4lessIS5_ESaISD_EE8_M_beginEv(%struct._ZSt8_Rb_treeINSt7__cxx1112basic_stringIcSt11char_traitsIcESaIcEEESt4pairIKS5_PFPN16amr_ref_criteria4BaseEvEESt10_Select1stISD_ESt4lessIS5_ESaISD_EE* %_T21338800_52703.arg) #0 inlinehint !dbg !5642 {
L.entry:
	%_T21338800_52703.addr = alloca %struct._ZSt8_Rb_treeINSt7__cxx1112basic_stringIcSt11char_traitsIcESaIcEEESt4pairIKS5_PFPN16amr_ref_criteria4BaseEvEESt10_Select1stISD_ESt4lessIS5_ESaISD_EE*, align 8

	call void @llvm.dbg.declare (metadata %struct._ZSt8_Rb_treeINSt7__cxx1112basic_stringIcSt11char_traitsIcESaIcEEESt4pairIKS5_PFPN16amr_ref_criteria4BaseEvEESt10_Select1stISD_ESt4lessIS5_ESaISD_EE** %_T21338800_52703.addr, metadata !5646, metadata !3917), !dbg !5643
	store %struct._ZSt8_Rb_treeINSt7__cxx1112basic_stringIcSt11char_traitsIcESaIcEEESt4pairIKS5_PFPN16amr_ref_criteria4BaseEvEESt10_Select1stISD_ESt4lessIS5_ESaISD_EE* %_T21338800_52703.arg, %struct._ZSt8_Rb_treeINSt7__cxx1112basic_stringIcSt11char_traitsIcESaIcEEESt4pairIKS5_PFPN16amr_ref_criteria4BaseEvEESt10_Select1stISD_ESt4lessIS5_ESaISD_EE** %_T21338800_52703.addr, align 8, !tbaa !3925
	call void @llvm.dbg.declare (metadata %struct._ZSt8_Rb_treeINSt7__cxx1112basic_stringIcSt11char_traitsIcESaIcEEESt4pairIKS5_PFPN16amr_ref_criteria4BaseEvEESt10_Select1stISD_ESt4lessIS5_ESaISD_EE** %_T21338800_52703.addr, metadata !5647, metadata !3917), !dbg !5643
	%0 = load %struct._ZSt8_Rb_treeINSt7__cxx1112basic_stringIcSt11char_traitsIcESaIcEEESt4pairIKS5_PFPN16amr_ref_criteria4BaseEvEESt10_Select1stISD_ESt4lessIS5_ESaISD_EE*, %struct._ZSt8_Rb_treeINSt7__cxx1112basic_stringIcSt11char_traitsIcESaIcEEESt4pairIKS5_PFPN16amr_ref_criteria4BaseEvEESt10_Select1stISD_ESt4lessIS5_ESaISD_EE** %_T21338800_52703.addr, align 8, !tbaa !3925, !dbg !5648
	%1 = bitcast %struct._ZSt8_Rb_treeINSt7__cxx1112basic_stringIcSt11char_traitsIcESaIcEEESt4pairIKS5_PFPN16amr_ref_criteria4BaseEvEESt10_Select1stISD_ESt4lessIS5_ESaISD_EE*  %0 to i8*, !dbg !5648
	%2 = getelementptr i8, i8*  %1, i64 16, !dbg !5648
	%3 = bitcast i8*  %2 to %struct._ZSt13_Rb_tree_nodeISt4pairIKNSt7__cxx1112basic_stringIcSt11char_traitsIcESaIcEEEPFPN16amr_ref_criteria4BaseEvEEE**, !dbg !5648
	%4 = load %struct._ZSt13_Rb_tree_nodeISt4pairIKNSt7__cxx1112basic_stringIcSt11char_traitsIcESaIcEEEPFPN16amr_ref_criteria4BaseEvEEE*, %struct._ZSt13_Rb_tree_nodeISt4pairIKNSt7__cxx1112basic_stringIcSt11char_traitsIcESaIcEEEPFPN16amr_ref_criteria4BaseEvEEE**  %3, align 8, !tbaa !3925, !dbg !5648
	ret %struct._ZSt13_Rb_tree_nodeISt4pairIKNSt7__cxx1112basic_stringIcSt11char_traitsIcESaIcEEEPFPN16amr_ref_criteria4BaseEvEEE*  %4, !dbg !5648
}
define linkonce_odr %struct._ZSt18_Rb_tree_node_base* @_ZNSt8_Rb_treeINSt7__cxx1112basic_stringIcSt11char_traitsIcESaIcEEESt4pairIKS5_PFPN16amr_ref_criteria4BaseEvEESt10_Select1stISD_ESt4lessIS5_ESaISD_EE6_M_endEv(%struct._ZSt8_Rb_treeINSt7__cxx1112basic_stringIcSt11char_traitsIcESaIcEEESt4pairIKS5_PFPN16amr_ref_criteria4BaseEvEESt10_Select1stISD_ESt4lessIS5_ESaISD_EE* %_T21338800_52705.arg) #0 inlinehint !dbg !5652 {
L.entry:
	%_T21338800_52705.addr = alloca %struct._ZSt8_Rb_treeINSt7__cxx1112basic_stringIcSt11char_traitsIcESaIcEEESt4pairIKS5_PFPN16amr_ref_criteria4BaseEvEESt10_Select1stISD_ESt4lessIS5_ESaISD_EE*, align 8

	call void @llvm.dbg.declare (metadata %struct._ZSt8_Rb_treeINSt7__cxx1112basic_stringIcSt11char_traitsIcESaIcEEESt4pairIKS5_PFPN16amr_ref_criteria4BaseEvEESt10_Select1stISD_ESt4lessIS5_ESaISD_EE** %_T21338800_52705.addr, metadata !5656, metadata !3917), !dbg !5653
	store %struct._ZSt8_Rb_treeINSt7__cxx1112basic_stringIcSt11char_traitsIcESaIcEEESt4pairIKS5_PFPN16amr_ref_criteria4BaseEvEESt10_Select1stISD_ESt4lessIS5_ESaISD_EE* %_T21338800_52705.arg, %struct._ZSt8_Rb_treeINSt7__cxx1112basic_stringIcSt11char_traitsIcESaIcEEESt4pairIKS5_PFPN16amr_ref_criteria4BaseEvEESt10_Select1stISD_ESt4lessIS5_ESaISD_EE** %_T21338800_52705.addr, align 8, !tbaa !3925
	call void @llvm.dbg.declare (metadata %struct._ZSt8_Rb_treeINSt7__cxx1112basic_stringIcSt11char_traitsIcESaIcEEESt4pairIKS5_PFPN16amr_ref_criteria4BaseEvEESt10_Select1stISD_ESt4lessIS5_ESaISD_EE** %_T21338800_52705.addr, metadata !5657, metadata !3917), !dbg !5653
	%0 = load %struct._ZSt8_Rb_treeINSt7__cxx1112basic_stringIcSt11char_traitsIcESaIcEEESt4pairIKS5_PFPN16amr_ref_criteria4BaseEvEESt10_Select1stISD_ESt4lessIS5_ESaISD_EE*, %struct._ZSt8_Rb_treeINSt7__cxx1112basic_stringIcSt11char_traitsIcESaIcEEESt4pairIKS5_PFPN16amr_ref_criteria4BaseEvEESt10_Select1stISD_ESt4lessIS5_ESaISD_EE** %_T21338800_52705.addr, align 8, !tbaa !3925, !dbg !5658
	%1 = bitcast %struct._ZSt8_Rb_treeINSt7__cxx1112basic_stringIcSt11char_traitsIcESaIcEEESt4pairIKS5_PFPN16amr_ref_criteria4BaseEvEESt10_Select1stISD_ESt4lessIS5_ESaISD_EE*  %0 to i8*, !dbg !5658
	%2 = getelementptr i8, i8*  %1, i64 8, !dbg !5658
	%3 = bitcast i8*  %2 to %struct._ZSt18_Rb_tree_node_base*, !dbg !5658
	ret %struct._ZSt18_Rb_tree_node_base*  %3, !dbg !5658
}
define linkonce_odr %struct._ZNSt7__cxx1112basic_stringIcSt11char_traitsIcESaIcEEE* @_ZNSt8_Rb_treeINSt7__cxx1112basic_stringIcSt11char_traitsIcESaIcEEESt4pairIKS5_PFPN16amr_ref_criteria4BaseEvEESt10_Select1stISD_ESt4lessIS5_ESaISD_EE6_S_keyEPKSt13_Rb_tree_nodeISD_E(%struct._ZSt13_Rb_tree_nodeISt4pairIKNSt7__cxx1112basic_stringIcSt11char_traitsIcESaIcEEEPFPN16amr_ref_criteria4BaseEvEEE* %__x.arg) #0 inlinehint !dbg !5663 {
L.entry:
	%__x.addr = alloca %struct._ZSt13_Rb_tree_nodeISt4pairIKNSt7__cxx1112basic_stringIcSt11char_traitsIcESaIcEEEPFPN16amr_ref_criteria4BaseEvEEE*, align 8

	call void @llvm.dbg.declare (metadata %struct._ZSt13_Rb_tree_nodeISt4pairIKNSt7__cxx1112basic_stringIcSt11char_traitsIcESaIcEEEPFPN16amr_ref_criteria4BaseEvEEE** %__x.addr, metadata !5683, metadata !3917), !dbg !5664
	store %struct._ZSt13_Rb_tree_nodeISt4pairIKNSt7__cxx1112basic_stringIcSt11char_traitsIcESaIcEEEPFPN16amr_ref_criteria4BaseEvEEE* %__x.arg, %struct._ZSt13_Rb_tree_nodeISt4pairIKNSt7__cxx1112basic_stringIcSt11char_traitsIcESaIcEEEPFPN16amr_ref_criteria4BaseEvEEE** %__x.addr, align 8, !tbaa !3925
	call void @llvm.dbg.declare (metadata %struct._ZSt13_Rb_tree_nodeISt4pairIKNSt7__cxx1112basic_stringIcSt11char_traitsIcESaIcEEEPFPN16amr_ref_criteria4BaseEvEEE** %__x.addr, metadata !5684, metadata !3917), !dbg !5664
	%0 = load %struct._ZSt13_Rb_tree_nodeISt4pairIKNSt7__cxx1112basic_stringIcSt11char_traitsIcESaIcEEEPFPN16amr_ref_criteria4BaseEvEEE*, %struct._ZSt13_Rb_tree_nodeISt4pairIKNSt7__cxx1112basic_stringIcSt11char_traitsIcESaIcEEEPFPN16amr_ref_criteria4BaseEvEEE** %__x.addr, align 8, !tbaa !3925, !dbg !5685
	%1 = bitcast %struct._ZSt13_Rb_tree_nodeISt4pairIKNSt7__cxx1112basic_stringIcSt11char_traitsIcESaIcEEEPFPN16amr_ref_criteria4BaseEvEEE*  %0 to i8*, !dbg !5685
	%2 = getelementptr i8, i8*  %1, i64 32, !dbg !5685
	%3 = bitcast i8*  %2 to %struct._ZNSt7__cxx1112basic_stringIcSt11char_traitsIcESaIcEEE*, !dbg !5685
	ret %struct._ZNSt7__cxx1112basic_stringIcSt11char_traitsIcESaIcEEE*  %3, !dbg !5685
}
define linkonce_odr %struct._ZSt13_Rb_tree_nodeISt4pairIKNSt7__cxx1112basic_stringIcSt11char_traitsIcESaIcEEEPFPN16amr_ref_criteria4BaseEvEEE* @_ZNSt8_Rb_treeINSt7__cxx1112basic_stringIcSt11char_traitsIcESaIcEEESt4pairIKS5_PFPN16amr_ref_criteria4BaseEvEESt10_Select1stISD_ESt4lessIS5_ESaISD_EE7_S_leftEPSt18_Rb_tree_node_base(%struct._ZSt18_Rb_tree_node_base* %__x.arg) #0 inlinehint !dbg !5690 {
L.entry:
	%__x.addr = alloca %struct._ZSt18_Rb_tree_node_base*, align 8

	call void @llvm.dbg.declare (metadata %struct._ZSt18_Rb_tree_node_base** %__x.addr, metadata !5694, metadata !3917), !dbg !5691
	store %struct._ZSt18_Rb_tree_node_base* %__x.arg, %struct._ZSt18_Rb_tree_node_base** %__x.addr, align 8, !tbaa !3925
	call void @llvm.dbg.declare (metadata %struct._ZSt18_Rb_tree_node_base** %__x.addr, metadata !5695, metadata !3917), !dbg !5691
	%0 = load %struct._ZSt18_Rb_tree_node_base*, %struct._ZSt18_Rb_tree_node_base** %__x.addr, align 8, !tbaa !3925, !dbg !5696
	%1 = bitcast %struct._ZSt18_Rb_tree_node_base*  %0 to i8*, !dbg !5696
	%2 = getelementptr i8, i8*  %1, i64 16, !dbg !5696
	%3 = bitcast i8*  %2 to %struct._ZSt13_Rb_tree_nodeISt4pairIKNSt7__cxx1112basic_stringIcSt11char_traitsIcESaIcEEEPFPN16amr_ref_criteria4BaseEvEEE**, !dbg !5696
	%4 = load %struct._ZSt13_Rb_tree_nodeISt4pairIKNSt7__cxx1112basic_stringIcSt11char_traitsIcESaIcEEEPFPN16amr_ref_criteria4BaseEvEEE*, %struct._ZSt13_Rb_tree_nodeISt4pairIKNSt7__cxx1112basic_stringIcSt11char_traitsIcESaIcEEEPFPN16amr_ref_criteria4BaseEvEEE**  %3, align 8, !tbaa !3925, !dbg !5696
	ret %struct._ZSt13_Rb_tree_nodeISt4pairIKNSt7__cxx1112basic_stringIcSt11char_traitsIcESaIcEEEPFPN16amr_ref_criteria4BaseEvEEE*  %4, !dbg !5696
}
define linkonce_odr %struct._ZSt13_Rb_tree_nodeISt4pairIKNSt7__cxx1112basic_stringIcSt11char_traitsIcESaIcEEEPFPN16amr_ref_criteria4BaseEvEEE* @_ZNSt8_Rb_treeINSt7__cxx1112basic_stringIcSt11char_traitsIcESaIcEEESt4pairIKS5_PFPN16amr_ref_criteria4BaseEvEESt10_Select1stISD_ESt4lessIS5_ESaISD_EE8_S_rightEPSt18_Rb_tree_node_base(%struct._ZSt18_Rb_tree_node_base* %__x.arg) #0 inlinehint !dbg !5698 {
L.entry:
	%__x.addr = alloca %struct._ZSt18_Rb_tree_node_base*, align 8

	call void @llvm.dbg.declare (metadata %struct._ZSt18_Rb_tree_node_base** %__x.addr, metadata !5702, metadata !3917), !dbg !5699
	store %struct._ZSt18_Rb_tree_node_base* %__x.arg, %struct._ZSt18_Rb_tree_node_base** %__x.addr, align 8, !tbaa !3925
	call void @llvm.dbg.declare (metadata %struct._ZSt18_Rb_tree_node_base** %__x.addr, metadata !5703, metadata !3917), !dbg !5699
	%0 = load %struct._ZSt18_Rb_tree_node_base*, %struct._ZSt18_Rb_tree_node_base** %__x.addr, align 8, !tbaa !3925, !dbg !5704
	%1 = bitcast %struct._ZSt18_Rb_tree_node_base*  %0 to i8*, !dbg !5704
	%2 = getelementptr i8, i8*  %1, i64 24, !dbg !5704
	%3 = bitcast i8*  %2 to %struct._ZSt13_Rb_tree_nodeISt4pairIKNSt7__cxx1112basic_stringIcSt11char_traitsIcESaIcEEEPFPN16amr_ref_criteria4BaseEvEEE**, !dbg !5704
	%4 = load %struct._ZSt13_Rb_tree_nodeISt4pairIKNSt7__cxx1112basic_stringIcSt11char_traitsIcESaIcEEEPFPN16amr_ref_criteria4BaseEvEEE*, %struct._ZSt13_Rb_tree_nodeISt4pairIKNSt7__cxx1112basic_stringIcSt11char_traitsIcESaIcEEEPFPN16amr_ref_criteria4BaseEvEEE**  %3, align 8, !tbaa !3925, !dbg !5704
	ret %struct._ZSt13_Rb_tree_nodeISt4pairIKNSt7__cxx1112basic_stringIcSt11char_traitsIcESaIcEEEPFPN16amr_ref_criteria4BaseEvEEE*  %4, !dbg !5704
}
define linkonce_odr %struct._ZNSt7__cxx1112basic_stringIcSt11char_traitsIcESaIcEEE* @_ZNSt8_Rb_treeINSt7__cxx1112basic_stringIcSt11char_traitsIcESaIcEEESt4pairIKS5_PFPN16amr_ref_criteria4BaseEvEESt10_Select1stISD_ESt4lessIS5_ESaISD_EE6_S_keyEPKSt18_Rb_tree_node_base(%struct._ZSt18_Rb_tree_node_base* %__x.arg) #0 inlinehint !dbg !5708 {
L.entry:
	%__x.addr = alloca %struct._ZSt18_Rb_tree_node_base*, align 8

	call void @llvm.dbg.declare (metadata %struct._ZSt18_Rb_tree_node_base** %__x.addr, metadata !5732, metadata !3917), !dbg !5709
	store %struct._ZSt18_Rb_tree_node_base* %__x.arg, %struct._ZSt18_Rb_tree_node_base** %__x.addr, align 8, !tbaa !3925
	call void @llvm.dbg.declare (metadata %struct._ZSt18_Rb_tree_node_base** %__x.addr, metadata !5733, metadata !3917), !dbg !5709
	%0 = load %struct._ZSt18_Rb_tree_node_base*, %struct._ZSt18_Rb_tree_node_base** %__x.addr, align 8, !tbaa !3925, !dbg !5734
	%1 = bitcast %struct._ZSt18_Rb_tree_node_base*  %0 to i8*, !dbg !5734
	%2 = getelementptr i8, i8*  %1, i64 32, !dbg !5734
	%3 = bitcast i8*  %2 to %struct._ZNSt7__cxx1112basic_stringIcSt11char_traitsIcESaIcEEE*, !dbg !5734
	ret %struct._ZNSt7__cxx1112basic_stringIcSt11char_traitsIcESaIcEEE*  %3, !dbg !5734
}

%struct._ZSt4pairIPSt18_Rb_tree_node_baseS1_E = type <{ %struct._ZSt18_Rb_tree_node_base*, %struct._ZSt18_Rb_tree_node_base*}> 

define linkonce_odr {i64, i64} @_ZNSt8_Rb_treeINSt7__cxx1112basic_stringIcSt11char_traitsIcESaIcEEESt4pairIKS5_PFPN16amr_ref_criteria4BaseEvEESt10_Select1stISD_ESt4lessIS5_ESaISD_EE24_M_get_insert_unique_posERS7_(%struct._ZSt8_Rb_treeINSt7__cxx1112basic_stringIcSt11char_traitsIcESaIcEEESt4pairIKS5_PFPN16amr_ref_criteria4BaseEvEESt10_Select1stISD_ESt4lessIS5_ESaISD_EE* %_T22232024_52716.arg, %struct._ZNSt7__cxx1112basic_stringIcSt11char_traitsIcESaIcEEE* %__k.arg) #0 inlinehint !dbg !5745 {
L.entry:
	%.X52716.addr = alloca %struct._ZSt4pairIPSt18_Rb_tree_node_baseS1_E, align 8
	%_T22232024_52716.addr = alloca %struct._ZSt8_Rb_treeINSt7__cxx1112basic_stringIcSt11char_traitsIcESaIcEEESt4pairIKS5_PFPN16amr_ref_criteria4BaseEvEESt10_Select1stISD_ESt4lessIS5_ESaISD_EE*, align 8
	%__k.addr = alloca %struct._ZNSt7__cxx1112basic_stringIcSt11char_traitsIcESaIcEEE*, align 8
	%__x.addr = alloca %struct._ZSt13_Rb_tree_nodeISt4pairIKNSt7__cxx1112basic_stringIcSt11char_traitsIcESaIcEEEPFPN16amr_ref_criteria4BaseEvEEE*, align 8
	%__y.addr = alloca %struct._ZSt18_Rb_tree_node_base*, align 8
	%__comp.addr = alloca i8, align 1
	%..inline.addr = alloca %struct._ZNSt7__cxx1112basic_stringIcSt11char_traitsIcESaIcEEE*, align 8
	%..inline.addr.1 = alloca %struct._ZNSt7__cxx1112basic_stringIcSt11char_traitsIcESaIcEEE*, align 8
	%..inline.addr.2 = alloca i8, align 1
	%.I0001.addr = alloca %struct._ZSt13_Rb_tree_nodeISt4pairIKNSt7__cxx1112basic_stringIcSt11char_traitsIcESaIcEEEPFPN16amr_ref_criteria4BaseEvEEE*, align 8
	%__j.addr = alloca %struct._ZSt17_Rb_tree_iteratorISt4pairIKNSt7__cxx1112basic_stringIcSt11char_traitsIcESaIcEEEPFPN16amr_ref_criteria4BaseEvEEE, align 8
	%.._T22235280_52716.second.addr = alloca %struct._ZSt18_Rb_tree_node_base*, align 8
	%..inline.addr.3 = alloca %struct._ZNSt7__cxx1112basic_stringIcSt11char_traitsIcESaIcEEE*, align 8
	%..inline.addr.4 = alloca %struct._ZNSt7__cxx1112basic_stringIcSt11char_traitsIcESaIcEEE*, align 8
	%..inline.addr.5 = alloca i8, align 1
	%.._T22235576_52716.second.addr = alloca %struct._ZSt18_Rb_tree_node_base*, align 8
	%_T22233504_52716.addr = alloca %struct._ZSt18_Rb_tree_node_base*, align 8

	call void @llvm.dbg.declare (metadata %struct._ZSt8_Rb_treeINSt7__cxx1112basic_stringIcSt11char_traitsIcESaIcEEESt4pairIKS5_PFPN16amr_ref_criteria4BaseEvEESt10_Select1stISD_ESt4lessIS5_ESaISD_EE** %_T22232024_52716.addr, metadata !5875, metadata !3917), !dbg !5746
	store %struct._ZSt8_Rb_treeINSt7__cxx1112basic_stringIcSt11char_traitsIcESaIcEEESt4pairIKS5_PFPN16amr_ref_criteria4BaseEvEESt10_Select1stISD_ESt4lessIS5_ESaISD_EE* %_T22232024_52716.arg, %struct._ZSt8_Rb_treeINSt7__cxx1112basic_stringIcSt11char_traitsIcESaIcEEESt4pairIKS5_PFPN16amr_ref_criteria4BaseEvEESt10_Select1stISD_ESt4lessIS5_ESaISD_EE** %_T22232024_52716.addr, align 8, !tbaa !3925
	call void @llvm.dbg.declare (metadata %struct._ZSt8_Rb_treeINSt7__cxx1112basic_stringIcSt11char_traitsIcESaIcEEESt4pairIKS5_PFPN16amr_ref_criteria4BaseEvEESt10_Select1stISD_ESt4lessIS5_ESaISD_EE** %_T22232024_52716.addr, metadata !5876, metadata !3917), !dbg !5746
	call void @llvm.dbg.declare (metadata %struct._ZNSt7__cxx1112basic_stringIcSt11char_traitsIcESaIcEEE** %__k.addr, metadata !5877, metadata !3917), !dbg !5746
	store %struct._ZNSt7__cxx1112basic_stringIcSt11char_traitsIcESaIcEEE* %__k.arg, %struct._ZNSt7__cxx1112basic_stringIcSt11char_traitsIcESaIcEEE** %__k.addr, align 8, !tbaa !3925
	call void @llvm.dbg.declare (metadata %struct._ZNSt7__cxx1112basic_stringIcSt11char_traitsIcESaIcEEE** %__k.addr, metadata !5878, metadata !3917), !dbg !5746
	%0 = load %struct._ZSt8_Rb_treeINSt7__cxx1112basic_stringIcSt11char_traitsIcESaIcEEESt4pairIKS5_PFPN16amr_ref_criteria4BaseEvEESt10_Select1stISD_ESt4lessIS5_ESaISD_EE*, %struct._ZSt8_Rb_treeINSt7__cxx1112basic_stringIcSt11char_traitsIcESaIcEEESt4pairIKS5_PFPN16amr_ref_criteria4BaseEvEESt10_Select1stISD_ESt4lessIS5_ESaISD_EE** %_T22232024_52716.addr, align 8, !tbaa !3925, !dbg !5879
	%1 = bitcast %struct._ZSt8_Rb_treeINSt7__cxx1112basic_stringIcSt11char_traitsIcESaIcEEESt4pairIKS5_PFPN16amr_ref_criteria4BaseEvEESt10_Select1stISD_ESt4lessIS5_ESaISD_EE*  %0 to i8*, !dbg !5879
	%2 = getelementptr i8, i8*  %1, i64 16, !dbg !5879
	%3 = bitcast i8*  %2 to i8**, !dbg !5879
	%4 = load i8*, i8**  %3, align 8, !tbaa !3925, !dbg !5879
	call void @llvm.dbg.declare (metadata %struct._ZSt13_Rb_tree_nodeISt4pairIKNSt7__cxx1112basic_stringIcSt11char_traitsIcESaIcEEEPFPN16amr_ref_criteria4BaseEvEEE** %__x.addr, metadata !5880, metadata !3917), !dbg !5746
	%5 = bitcast %struct._ZSt13_Rb_tree_nodeISt4pairIKNSt7__cxx1112basic_stringIcSt11char_traitsIcESaIcEEEPFPN16amr_ref_criteria4BaseEvEEE** %__x.addr to i8**, !dbg !5879
	store i8*  %4, i8**  %5, align 8, !tbaa !3925, !dbg !5879
	%6 = load %struct._ZSt8_Rb_treeINSt7__cxx1112basic_stringIcSt11char_traitsIcESaIcEEESt4pairIKS5_PFPN16amr_ref_criteria4BaseEvEESt10_Select1stISD_ESt4lessIS5_ESaISD_EE*, %struct._ZSt8_Rb_treeINSt7__cxx1112basic_stringIcSt11char_traitsIcESaIcEEESt4pairIKS5_PFPN16amr_ref_criteria4BaseEvEESt10_Select1stISD_ESt4lessIS5_ESaISD_EE** %_T22232024_52716.addr, align 8, !tbaa !3925, !dbg !5881
	%7 = bitcast %struct._ZSt8_Rb_treeINSt7__cxx1112basic_stringIcSt11char_traitsIcESaIcEEESt4pairIKS5_PFPN16amr_ref_criteria4BaseEvEESt10_Select1stISD_ESt4lessIS5_ESaISD_EE*  %6 to i8*, !dbg !5881
	%8 = getelementptr i8, i8*  %7, i64 8, !dbg !5881
	call void @llvm.dbg.declare (metadata %struct._ZSt18_Rb_tree_node_base** %__y.addr, metadata !5882, metadata !3917), !dbg !5746
	%9 = bitcast %struct._ZSt18_Rb_tree_node_base** %__y.addr to i8**, !dbg !5881
	store i8*  %8, i8**  %9, align 8, !tbaa !3925, !dbg !5881
	call void @llvm.dbg.declare (metadata i8* %__comp.addr, metadata !5884, metadata !3917), !dbg !5746
	store i8 1, i8* %__comp.addr, align 1, !tbaa !3924, !dbg !5883
	%10 = load %struct._ZSt13_Rb_tree_nodeISt4pairIKNSt7__cxx1112basic_stringIcSt11char_traitsIcESaIcEEEPFPN16amr_ref_criteria4BaseEvEEE*, %struct._ZSt13_Rb_tree_nodeISt4pairIKNSt7__cxx1112basic_stringIcSt11char_traitsIcESaIcEEEPFPN16amr_ref_criteria4BaseEvEEE** %__x.addr, align 8, !tbaa !3925, !dbg !5885
	%11 = bitcast %struct._ZSt13_Rb_tree_nodeISt4pairIKNSt7__cxx1112basic_stringIcSt11char_traitsIcESaIcEEEPFPN16amr_ref_criteria4BaseEvEEE*  %10 to i8*, !dbg !5885
	%12 = icmp eq i8*  %11,  null, !dbg !5885
	br i1  %12, label %L.B0006, label %L.B0005, !dbg !5885
L.B0005:
	%13 = load %struct._ZSt13_Rb_tree_nodeISt4pairIKNSt7__cxx1112basic_stringIcSt11char_traitsIcESaIcEEEPFPN16amr_ref_criteria4BaseEvEEE*, %struct._ZSt13_Rb_tree_nodeISt4pairIKNSt7__cxx1112basic_stringIcSt11char_traitsIcESaIcEEEPFPN16amr_ref_criteria4BaseEvEEE** %__x.addr, align 8, !tbaa !3925, !dbg !5886
	%14 = bitcast %struct._ZSt13_Rb_tree_nodeISt4pairIKNSt7__cxx1112basic_stringIcSt11char_traitsIcESaIcEEEPFPN16amr_ref_criteria4BaseEvEEE*  %13 to i8*, !dbg !5886
	%15 = bitcast %struct._ZSt18_Rb_tree_node_base** %__y.addr to i8**, !dbg !5886
	store i8*  %14, i8**  %15, align 8, !tbaa !3925, !dbg !5886
	%16 = load %struct._ZNSt7__cxx1112basic_stringIcSt11char_traitsIcESaIcEEE*, %struct._ZNSt7__cxx1112basic_stringIcSt11char_traitsIcESaIcEEE** %__k.addr, align 8, !tbaa !3925, !dbg !5887
	%17 = bitcast %struct._ZNSt7__cxx1112basic_stringIcSt11char_traitsIcESaIcEEE*  %16 to i8*, !dbg !5887
	%18 = bitcast %struct._ZNSt7__cxx1112basic_stringIcSt11char_traitsIcESaIcEEE** %..inline.addr to i8**, !dbg !5887
	store i8*  %17, i8**  %18, align 8, !tbaa !3925, !dbg !5887
	%19 = getelementptr i8, i8*  %14, i64 32, !dbg !5887
	%20 = bitcast %struct._ZNSt7__cxx1112basic_stringIcSt11char_traitsIcESaIcEEE** %..inline.addr.1 to i8**, !dbg !5887
	store i8*  %19, i8**  %20, align 8, !tbaa !3925, !dbg !5887
	%21 = load %struct._ZNSt7__cxx1112basic_stringIcSt11char_traitsIcESaIcEEE*, %struct._ZNSt7__cxx1112basic_stringIcSt11char_traitsIcESaIcEEE** %..inline.addr, align 8, !tbaa !3925, !dbg !5888
	%22 = load %struct._ZNSt7__cxx1112basic_stringIcSt11char_traitsIcESaIcEEE*, %struct._ZNSt7__cxx1112basic_stringIcSt11char_traitsIcESaIcEEE** %..inline.addr.1, align 8, !tbaa !3925, !dbg !5888
	%23 = call i8  @_ZStltIcSt11char_traitsIcESaIcEEbRKNSt7__cxx1112basic_stringIT_T0_T1_EESA_ (%struct._ZNSt7__cxx1112basic_stringIcSt11char_traitsIcESaIcEEE*  %21, %struct._ZNSt7__cxx1112basic_stringIcSt11char_traitsIcESaIcEEE*  %22) nounwind, !dbg !5888
	store i8  %23, i8* %__comp.addr, align 1, !tbaa !3924, !dbg !5888
	%24 = sext i8  %23 to i32, !dbg !5889
	%25 = icmp eq i32  %24, 0, !dbg !5889
	br i1  %25, label %L.B0007, label %L.B1275, !dbg !5889
L.B1275:
	%26 = load %struct._ZSt13_Rb_tree_nodeISt4pairIKNSt7__cxx1112basic_stringIcSt11char_traitsIcESaIcEEEPFPN16amr_ref_criteria4BaseEvEEE*, %struct._ZSt13_Rb_tree_nodeISt4pairIKNSt7__cxx1112basic_stringIcSt11char_traitsIcESaIcEEEPFPN16amr_ref_criteria4BaseEvEEE** %__x.addr, align 8, !tbaa !3925, !dbg !5890
	%27 = bitcast %struct._ZSt13_Rb_tree_nodeISt4pairIKNSt7__cxx1112basic_stringIcSt11char_traitsIcESaIcEEEPFPN16amr_ref_criteria4BaseEvEEE*  %26 to i8*, !dbg !5890
	%28 = getelementptr i8, i8*  %27, i64 16, !dbg !5890
	%29 = bitcast i8*  %28 to i8**, !dbg !5890
	%30 = load i8*, i8**  %29, align 8, !tbaa !3925, !dbg !5890
	%31 = bitcast %struct._ZSt13_Rb_tree_nodeISt4pairIKNSt7__cxx1112basic_stringIcSt11char_traitsIcESaIcEEEPFPN16amr_ref_criteria4BaseEvEEE** %.I0001.addr to i8**, !dbg !5890
	store i8*  %30, i8**  %31, align 8, !tbaa !3925, !dbg !5890
	br label %L.B0008, !dbg !5889
L.B0007:
	%32 = load %struct._ZSt13_Rb_tree_nodeISt4pairIKNSt7__cxx1112basic_stringIcSt11char_traitsIcESaIcEEEPFPN16amr_ref_criteria4BaseEvEEE*, %struct._ZSt13_Rb_tree_nodeISt4pairIKNSt7__cxx1112basic_stringIcSt11char_traitsIcESaIcEEEPFPN16amr_ref_criteria4BaseEvEEE** %__x.addr, align 8, !tbaa !3925, !dbg !5891
	%33 = bitcast %struct._ZSt13_Rb_tree_nodeISt4pairIKNSt7__cxx1112basic_stringIcSt11char_traitsIcESaIcEEEPFPN16amr_ref_criteria4BaseEvEEE*  %32 to i8*, !dbg !5891
	%34 = getelementptr i8, i8*  %33, i64 24, !dbg !5891
	%35 = bitcast i8*  %34 to i8**, !dbg !5891
	%36 = load i8*, i8**  %35, align 8, !tbaa !3925, !dbg !5891
	%37 = bitcast %struct._ZSt13_Rb_tree_nodeISt4pairIKNSt7__cxx1112basic_stringIcSt11char_traitsIcESaIcEEEPFPN16amr_ref_criteria4BaseEvEEE** %.I0001.addr to i8**, !dbg !5891
	store i8*  %36, i8**  %37, align 8, !tbaa !3925, !dbg !5891
	br label %L.B0008
L.B0008:
	%38 = load %struct._ZSt13_Rb_tree_nodeISt4pairIKNSt7__cxx1112basic_stringIcSt11char_traitsIcESaIcEEEPFPN16amr_ref_criteria4BaseEvEEE*, %struct._ZSt13_Rb_tree_nodeISt4pairIKNSt7__cxx1112basic_stringIcSt11char_traitsIcESaIcEEEPFPN16amr_ref_criteria4BaseEvEEE** %.I0001.addr, align 8, !tbaa !3925, !dbg !5889
	%39 = bitcast %struct._ZSt13_Rb_tree_nodeISt4pairIKNSt7__cxx1112basic_stringIcSt11char_traitsIcESaIcEEEPFPN16amr_ref_criteria4BaseEvEEE*  %38 to i8*, !dbg !5889
	%40 = bitcast %struct._ZSt13_Rb_tree_nodeISt4pairIKNSt7__cxx1112basic_stringIcSt11char_traitsIcESaIcEEEPFPN16amr_ref_criteria4BaseEvEEE** %__x.addr to i8**, !dbg !5889
	store i8*  %39, i8**  %40, align 8, !tbaa !3925, !dbg !5889
	%41 = load %struct._ZSt13_Rb_tree_nodeISt4pairIKNSt7__cxx1112basic_stringIcSt11char_traitsIcESaIcEEEPFPN16amr_ref_criteria4BaseEvEEE*, %struct._ZSt13_Rb_tree_nodeISt4pairIKNSt7__cxx1112basic_stringIcSt11char_traitsIcESaIcEEEPFPN16amr_ref_criteria4BaseEvEEE** %__x.addr, align 8, !tbaa !3925, !dbg !5892
	%42 = bitcast %struct._ZSt13_Rb_tree_nodeISt4pairIKNSt7__cxx1112basic_stringIcSt11char_traitsIcESaIcEEEPFPN16amr_ref_criteria4BaseEvEEE*  %41 to i8*, !dbg !5892
	%43 = icmp ne i8*  %42,  null, !dbg !5892
	br i1  %43, label %L.B0005, label %L.B0006, !dbg !5892
L.B0006:
	%44 = load %struct._ZSt18_Rb_tree_node_base*, %struct._ZSt18_Rb_tree_node_base** %__y.addr, align 8, !tbaa !3925, !dbg !5893
	%45 = bitcast %struct._ZSt18_Rb_tree_node_base*  %44 to i8*, !dbg !5893
	call void @llvm.dbg.declare (metadata %struct._ZSt17_Rb_tree_iteratorISt4pairIKNSt7__cxx1112basic_stringIcSt11char_traitsIcESaIcEEEPFPN16amr_ref_criteria4BaseEvEEE* %__j.addr, metadata !5894, metadata !3917), !dbg !5746
	%46 = bitcast %struct._ZSt17_Rb_tree_iteratorISt4pairIKNSt7__cxx1112basic_stringIcSt11char_traitsIcESaIcEEEPFPN16amr_ref_criteria4BaseEvEEE* %__j.addr to i8**, !dbg !5893
	store i8*  %45, i8**  %46, align 8, !tbaa !3925, !dbg !5893
	%47 = load i8, i8* %__comp.addr, align 1, !tbaa !3924, !dbg !5895
	%48 = sext i8  %47 to i32, !dbg !5895
	%49 = icmp eq i32  %48, 0, !dbg !5895
	br i1  %49, label %L.B0009, label %L.B1276, !dbg !5895
L.B1276:
	%50 = bitcast %struct._ZSt17_Rb_tree_iteratorISt4pairIKNSt7__cxx1112basic_stringIcSt11char_traitsIcESaIcEEEPFPN16amr_ref_criteria4BaseEvEEE* %__j.addr to i8**, !dbg !5896
	%51 = load i8*, i8**  %50, align 8, !tbaa !3925, !dbg !5896
	%52 = load %struct._ZSt8_Rb_treeINSt7__cxx1112basic_stringIcSt11char_traitsIcESaIcEEESt4pairIKS5_PFPN16amr_ref_criteria4BaseEvEESt10_Select1stISD_ESt4lessIS5_ESaISD_EE*, %struct._ZSt8_Rb_treeINSt7__cxx1112basic_stringIcSt11char_traitsIcESaIcEEESt4pairIKS5_PFPN16amr_ref_criteria4BaseEvEESt10_Select1stISD_ESt4lessIS5_ESaISD_EE** %_T22232024_52716.addr, align 8, !tbaa !3925, !dbg !5896
	%53 = bitcast %struct._ZSt8_Rb_treeINSt7__cxx1112basic_stringIcSt11char_traitsIcESaIcEEESt4pairIKS5_PFPN16amr_ref_criteria4BaseEvEESt10_Select1stISD_ESt4lessIS5_ESaISD_EE*  %52 to i8*, !dbg !5896
	%54 = getelementptr i8, i8*  %53, i64 24, !dbg !5896
	%55 = bitcast i8*  %54 to i8**, !dbg !5896
	%56 = load i8*, i8**  %55, align 8, !tbaa !3925, !dbg !5896
	%57 = icmp ne i8*  %51,  %56, !dbg !5896
	br i1  %57, label %L.B0011, label %L.B1277, !dbg !5896
L.B1277:
	%58 = load %struct._ZSt18_Rb_tree_node_base*, %struct._ZSt18_Rb_tree_node_base** %__y.addr, align 8, !tbaa !3925, !dbg !5897
	%59 = bitcast %struct._ZSt18_Rb_tree_node_base*  %58 to i8*, !dbg !5897
	call void @llvm.dbg.declare (metadata %struct._ZSt18_Rb_tree_node_base** %.._T22235280_52716.second.addr, metadata !5898, metadata !3917), !dbg !5748
	%60 = bitcast %struct._ZSt18_Rb_tree_node_base** %.._T22235280_52716.second.addr to i8**, !dbg !5897
	store i8*  %59, i8**  %60, align 8, !tbaa !3925, !dbg !5897
	%61 = load %struct._ZSt13_Rb_tree_nodeISt4pairIKNSt7__cxx1112basic_stringIcSt11char_traitsIcESaIcEEEPFPN16amr_ref_criteria4BaseEvEEE*, %struct._ZSt13_Rb_tree_nodeISt4pairIKNSt7__cxx1112basic_stringIcSt11char_traitsIcESaIcEEEPFPN16amr_ref_criteria4BaseEvEEE** %__x.addr, align 8, !tbaa !3925, !dbg !5899
	%62 = bitcast %struct._ZSt13_Rb_tree_nodeISt4pairIKNSt7__cxx1112basic_stringIcSt11char_traitsIcESaIcEEEPFPN16amr_ref_criteria4BaseEvEEE*  %61 to i8*, !dbg !5899
	%63 = bitcast %struct._ZSt4pairIPSt18_Rb_tree_node_baseS1_E* %.X52716.addr to i8**, !dbg !5899
	store i8*  %62, i8**  %63, align 8, !tbaa !3925, !dbg !5899
	%64 = load %struct._ZSt18_Rb_tree_node_base*, %struct._ZSt18_Rb_tree_node_base** %.._T22235280_52716.second.addr, align 8, !tbaa !3925, !dbg !5899
	%65 = bitcast %struct._ZSt18_Rb_tree_node_base*  %64 to i8*, !dbg !5899
	%66 = bitcast %struct._ZSt4pairIPSt18_Rb_tree_node_baseS1_E* %.X52716.addr to i8*, !dbg !5899
	%67 = getelementptr i8, i8*  %66, i64 8, !dbg !5899
	%68 = bitcast i8*  %67 to i8**, !dbg !5899
	store i8*  %65, i8**  %68, align 8, !tbaa !3925, !dbg !5899
	br label %L.R0070, !dbg !5899
L.B0011:
	%69 = bitcast %struct._ZSt17_Rb_tree_iteratorISt4pairIKNSt7__cxx1112basic_stringIcSt11char_traitsIcESaIcEEEPFPN16amr_ref_criteria4BaseEvEEE* %__j.addr to i8**, !dbg !5900
	%70 = load i8*, i8**  %69, align 8, !tbaa !3925, !dbg !5900
	%71 = bitcast i8*  %70 to %struct._ZSt18_Rb_tree_node_base*, !dbg !5900
	%72 = call %struct._ZSt18_Rb_tree_node_base*  @_ZSt18_Rb_tree_decrementPSt18_Rb_tree_node_base (%struct._ZSt18_Rb_tree_node_base*  %71) nounwind, !dbg !5900
	%73 = bitcast %struct._ZSt18_Rb_tree_node_base*  %72 to i8*, !dbg !5900
	store i8*  %73, i8**  %69, align 8, !tbaa !3925, !dbg !5900
	br label %L.B0009
L.B0009:
	%74 = bitcast %struct._ZSt17_Rb_tree_iteratorISt4pairIKNSt7__cxx1112basic_stringIcSt11char_traitsIcESaIcEEEPFPN16amr_ref_criteria4BaseEvEEE* %__j.addr to i8**, !dbg !5901
	%75 = load i8*, i8**  %74, align 8, !tbaa !3925, !dbg !5901
	%76 = getelementptr i8, i8*  %75, i64 32, !dbg !5901
	%77 = bitcast %struct._ZNSt7__cxx1112basic_stringIcSt11char_traitsIcESaIcEEE** %..inline.addr.3 to i8**, !dbg !5901
	store i8*  %76, i8**  %77, align 8, !tbaa !3925, !dbg !5901
	%78 = load %struct._ZNSt7__cxx1112basic_stringIcSt11char_traitsIcESaIcEEE*, %struct._ZNSt7__cxx1112basic_stringIcSt11char_traitsIcESaIcEEE** %__k.addr, align 8, !tbaa !3925, !dbg !5901
	%79 = bitcast %struct._ZNSt7__cxx1112basic_stringIcSt11char_traitsIcESaIcEEE*  %78 to i8*, !dbg !5901
	%80 = bitcast %struct._ZNSt7__cxx1112basic_stringIcSt11char_traitsIcESaIcEEE** %..inline.addr.4 to i8**, !dbg !5901
	store i8*  %79, i8**  %80, align 8, !tbaa !3925, !dbg !5901
	%81 = load %struct._ZNSt7__cxx1112basic_stringIcSt11char_traitsIcESaIcEEE*, %struct._ZNSt7__cxx1112basic_stringIcSt11char_traitsIcESaIcEEE** %..inline.addr.3, align 8, !tbaa !3925, !dbg !5888
	%82 = load %struct._ZNSt7__cxx1112basic_stringIcSt11char_traitsIcESaIcEEE*, %struct._ZNSt7__cxx1112basic_stringIcSt11char_traitsIcESaIcEEE** %..inline.addr.4, align 8, !tbaa !3925, !dbg !5888
	%83 = call i8  @_ZStltIcSt11char_traitsIcESaIcEEbRKNSt7__cxx1112basic_stringIT_T0_T1_EESA_ (%struct._ZNSt7__cxx1112basic_stringIcSt11char_traitsIcESaIcEEE*  %81, %struct._ZNSt7__cxx1112basic_stringIcSt11char_traitsIcESaIcEEE*  %82) nounwind, !dbg !5888
	%84 = sext i8  %83 to i32, !dbg !5888
	%85 = icmp eq i32  %84, 0, !dbg !5888
	br i1  %85, label %L.B0016, label %L.B1278, !dbg !5888
L.B1278:
	%86 = load %struct._ZSt18_Rb_tree_node_base*, %struct._ZSt18_Rb_tree_node_base** %__y.addr, align 8, !tbaa !3925, !dbg !5897
	%87 = bitcast %struct._ZSt18_Rb_tree_node_base*  %86 to i8*, !dbg !5897
	call void @llvm.dbg.declare (metadata %struct._ZSt18_Rb_tree_node_base** %.._T22235576_52716.second.addr, metadata !5902, metadata !3917), !dbg !5748
	%88 = bitcast %struct._ZSt18_Rb_tree_node_base** %.._T22235576_52716.second.addr to i8**, !dbg !5897
	store i8*  %87, i8**  %88, align 8, !tbaa !3925, !dbg !5897
	%89 = load %struct._ZSt13_Rb_tree_nodeISt4pairIKNSt7__cxx1112basic_stringIcSt11char_traitsIcESaIcEEEPFPN16amr_ref_criteria4BaseEvEEE*, %struct._ZSt13_Rb_tree_nodeISt4pairIKNSt7__cxx1112basic_stringIcSt11char_traitsIcESaIcEEEPFPN16amr_ref_criteria4BaseEvEEE** %__x.addr, align 8, !tbaa !3925, !dbg !5903
	%90 = bitcast %struct._ZSt13_Rb_tree_nodeISt4pairIKNSt7__cxx1112basic_stringIcSt11char_traitsIcESaIcEEEPFPN16amr_ref_criteria4BaseEvEEE*  %89 to i8*, !dbg !5903
	%91 = bitcast %struct._ZSt4pairIPSt18_Rb_tree_node_baseS1_E* %.X52716.addr to i8**, !dbg !5903
	store i8*  %90, i8**  %91, align 8, !tbaa !3925, !dbg !5903
	%92 = load %struct._ZSt18_Rb_tree_node_base*, %struct._ZSt18_Rb_tree_node_base** %.._T22235576_52716.second.addr, align 8, !tbaa !3925, !dbg !5903
	%93 = bitcast %struct._ZSt18_Rb_tree_node_base*  %92 to i8*, !dbg !5903
	%94 = bitcast %struct._ZSt4pairIPSt18_Rb_tree_node_baseS1_E* %.X52716.addr to i8*, !dbg !5903
	%95 = getelementptr i8, i8*  %94, i64 8, !dbg !5903
	%96 = bitcast i8*  %95 to i8**, !dbg !5903
	store i8*  %93, i8**  %96, align 8, !tbaa !3925, !dbg !5903
	br label %L.R0070, !dbg !5903
L.B0016:
	%97 = bitcast %struct._ZSt18_Rb_tree_node_base** %_T22233504_52716.addr to i8**, !dbg !5904
	store i8* null, i8**  %97, align 8, !tbaa !3925, !dbg !5904
	%98 = bitcast %struct._ZSt17_Rb_tree_iteratorISt4pairIKNSt7__cxx1112basic_stringIcSt11char_traitsIcESaIcEEEPFPN16amr_ref_criteria4BaseEvEEE* %__j.addr to i8**, !dbg !5904
	%99 = load i8*, i8**  %98, align 8, !tbaa !3925, !dbg !5904
	%100 = bitcast %struct._ZSt4pairIPSt18_Rb_tree_node_baseS1_E* %.X52716.addr to i8**, !dbg !5904
	store i8*  %99, i8**  %100, align 8, !tbaa !3925, !dbg !5904
	%101 = bitcast %struct._ZSt4pairIPSt18_Rb_tree_node_baseS1_E* %.X52716.addr to i8*, !dbg !5904
	%102 = getelementptr i8, i8*  %101, i64 8, !dbg !5904
	%103 = bitcast i8*  %102 to i8**, !dbg !5904
	store i8* null, i8**  %103, align 8, !tbaa !3925, !dbg !5904
	br label %L.R0070
L.R0070:
	%104 = bitcast %struct._ZSt4pairIPSt18_Rb_tree_node_baseS1_E* %.X52716.addr to {i64, i64}*, !dbg !5905
	%105 = load {i64, i64}, {i64, i64}*  %104, align 8, !tbaa !3924, !dbg !5905
	ret {i64, i64}  %105, !dbg !5905
}
define linkonce_odr i64 @_ZNSt8_Rb_treeINSt7__cxx1112basic_stringIcSt11char_traitsIcESaIcEEESt4pairIKS5_PFPN16amr_ref_criteria4BaseEvEESt10_Select1stISD_ESt4lessIS5_ESaISD_EE14_M_insert_nodeEPSt18_Rb_tree_node_baseSL_PSt13_Rb_tree_nodeISD_E(%struct._ZSt8_Rb_treeINSt7__cxx1112basic_stringIcSt11char_traitsIcESaIcEEESt4pairIKS5_PFPN16amr_ref_criteria4BaseEvEESt10_Select1stISD_ESt4lessIS5_ESaISD_EE* %_T22232024_52721.arg, %struct._ZSt18_Rb_tree_node_base* %__x.arg, %struct._ZSt18_Rb_tree_node_base* %__p.arg, %struct._ZSt13_Rb_tree_nodeISt4pairIKNSt7__cxx1112basic_stringIcSt11char_traitsIcESaIcEEEPFPN16amr_ref_criteria4BaseEvEEE* %__z.arg) #0 inlinehint !dbg !5909 {
L.entry:
	%.X52721.addr = alloca %struct._ZSt17_Rb_tree_iteratorISt4pairIKNSt7__cxx1112basic_stringIcSt11char_traitsIcESaIcEEEPFPN16amr_ref_criteria4BaseEvEEE, align 8
	%_T22232024_52721.addr = alloca %struct._ZSt8_Rb_treeINSt7__cxx1112basic_stringIcSt11char_traitsIcESaIcEEESt4pairIKS5_PFPN16amr_ref_criteria4BaseEvEESt10_Select1stISD_ESt4lessIS5_ESaISD_EE*, align 8
	%__x.addr = alloca %struct._ZSt18_Rb_tree_node_base*, align 8
	%__p.addr = alloca %struct._ZSt18_Rb_tree_node_base*, align 8
	%__z.addr = alloca %struct._ZSt13_Rb_tree_nodeISt4pairIKNSt7__cxx1112basic_stringIcSt11char_traitsIcESaIcEEEPFPN16amr_ref_criteria4BaseEvEEE*, align 8
	%..inline.addr = alloca %struct._ZNSt7__cxx1112basic_stringIcSt11char_traitsIcESaIcEEE*, align 8
	%..inline.addr.1 = alloca %struct._ZNSt7__cxx1112basic_stringIcSt11char_traitsIcESaIcEEE*, align 8
	%..inline.addr.2 = alloca i8, align 1
	%.I0003.addr = alloca i32, align 4
	%__insert_left.addr = alloca i8, align 1

	call void @llvm.dbg.declare (metadata %struct._ZSt8_Rb_treeINSt7__cxx1112basic_stringIcSt11char_traitsIcESaIcEEESt4pairIKS5_PFPN16amr_ref_criteria4BaseEvEESt10_Select1stISD_ESt4lessIS5_ESaISD_EE** %_T22232024_52721.addr, metadata !5969, metadata !3917), !dbg !5910
	store %struct._ZSt8_Rb_treeINSt7__cxx1112basic_stringIcSt11char_traitsIcESaIcEEESt4pairIKS5_PFPN16amr_ref_criteria4BaseEvEESt10_Select1stISD_ESt4lessIS5_ESaISD_EE* %_T22232024_52721.arg, %struct._ZSt8_Rb_treeINSt7__cxx1112basic_stringIcSt11char_traitsIcESaIcEEESt4pairIKS5_PFPN16amr_ref_criteria4BaseEvEESt10_Select1stISD_ESt4lessIS5_ESaISD_EE** %_T22232024_52721.addr, align 8, !tbaa !3925
	call void @llvm.dbg.declare (metadata %struct._ZSt8_Rb_treeINSt7__cxx1112basic_stringIcSt11char_traitsIcESaIcEEESt4pairIKS5_PFPN16amr_ref_criteria4BaseEvEESt10_Select1stISD_ESt4lessIS5_ESaISD_EE** %_T22232024_52721.addr, metadata !5970, metadata !3917), !dbg !5910
	call void @llvm.dbg.declare (metadata %struct._ZSt18_Rb_tree_node_base** %__x.addr, metadata !5971, metadata !3917), !dbg !5910
	store %struct._ZSt18_Rb_tree_node_base* %__x.arg, %struct._ZSt18_Rb_tree_node_base** %__x.addr, align 8, !tbaa !3925
	call void @llvm.dbg.declare (metadata %struct._ZSt18_Rb_tree_node_base** %__x.addr, metadata !5972, metadata !3917), !dbg !5910
	call void @llvm.dbg.declare (metadata %struct._ZSt18_Rb_tree_node_base** %__p.addr, metadata !5973, metadata !3917), !dbg !5910
	store %struct._ZSt18_Rb_tree_node_base* %__p.arg, %struct._ZSt18_Rb_tree_node_base** %__p.addr, align 8, !tbaa !3925
	call void @llvm.dbg.declare (metadata %struct._ZSt18_Rb_tree_node_base** %__p.addr, metadata !5974, metadata !3917), !dbg !5910
	call void @llvm.dbg.declare (metadata %struct._ZSt13_Rb_tree_nodeISt4pairIKNSt7__cxx1112basic_stringIcSt11char_traitsIcESaIcEEEPFPN16amr_ref_criteria4BaseEvEEE** %__z.addr, metadata !5975, metadata !3917), !dbg !5910
	store %struct._ZSt13_Rb_tree_nodeISt4pairIKNSt7__cxx1112basic_stringIcSt11char_traitsIcESaIcEEEPFPN16amr_ref_criteria4BaseEvEEE* %__z.arg, %struct._ZSt13_Rb_tree_nodeISt4pairIKNSt7__cxx1112basic_stringIcSt11char_traitsIcESaIcEEEPFPN16amr_ref_criteria4BaseEvEEE** %__z.addr, align 8, !tbaa !3925
	call void @llvm.dbg.declare (metadata %struct._ZSt13_Rb_tree_nodeISt4pairIKNSt7__cxx1112basic_stringIcSt11char_traitsIcESaIcEEEPFPN16amr_ref_criteria4BaseEvEEE** %__z.addr, metadata !5976, metadata !3917), !dbg !5910
	%0 = load %struct._ZSt18_Rb_tree_node_base*, %struct._ZSt18_Rb_tree_node_base** %__x.addr, align 8, !tbaa !3925, !dbg !5977
	%1 = bitcast %struct._ZSt18_Rb_tree_node_base*  %0 to i8*, !dbg !5977
	%2 = icmp ne i8*  %1,  null, !dbg !5977
	br i1  %2, label %L.B0019, label %L.B1289, !dbg !5977
L.B1289:
	%3 = load %struct._ZSt18_Rb_tree_node_base*, %struct._ZSt18_Rb_tree_node_base** %__p.addr, align 8, !tbaa !3925, !dbg !5978
	%4 = bitcast %struct._ZSt18_Rb_tree_node_base*  %3 to i8*, !dbg !5978
	%5 = load %struct._ZSt8_Rb_treeINSt7__cxx1112basic_stringIcSt11char_traitsIcESaIcEEESt4pairIKS5_PFPN16amr_ref_criteria4BaseEvEESt10_Select1stISD_ESt4lessIS5_ESaISD_EE*, %struct._ZSt8_Rb_treeINSt7__cxx1112basic_stringIcSt11char_traitsIcESaIcEEESt4pairIKS5_PFPN16amr_ref_criteria4BaseEvEESt10_Select1stISD_ESt4lessIS5_ESaISD_EE** %_T22232024_52721.addr, align 8, !tbaa !3925, !dbg !5978
	%6 = bitcast %struct._ZSt8_Rb_treeINSt7__cxx1112basic_stringIcSt11char_traitsIcESaIcEEESt4pairIKS5_PFPN16amr_ref_criteria4BaseEvEESt10_Select1stISD_ESt4lessIS5_ESaISD_EE*  %5 to i8*, !dbg !5978
	%7 = getelementptr i8, i8*  %6, i64 8, !dbg !5978
	%8 = icmp eq i8*  %4,  %7, !dbg !5978
	br i1  %8, label %L.B0019, label %L.B1290, !dbg !5978
L.B1290:
	%9 = load %struct._ZSt13_Rb_tree_nodeISt4pairIKNSt7__cxx1112basic_stringIcSt11char_traitsIcESaIcEEEPFPN16amr_ref_criteria4BaseEvEEE*, %struct._ZSt13_Rb_tree_nodeISt4pairIKNSt7__cxx1112basic_stringIcSt11char_traitsIcESaIcEEEPFPN16amr_ref_criteria4BaseEvEEE** %__z.addr, align 8, !tbaa !3925, !dbg !5977
	%10 = bitcast %struct._ZSt13_Rb_tree_nodeISt4pairIKNSt7__cxx1112basic_stringIcSt11char_traitsIcESaIcEEEPFPN16amr_ref_criteria4BaseEvEEE*  %9 to i8*, !dbg !5977
	%11 = getelementptr i8, i8*  %10, i64 32, !dbg !5977
	%12 = bitcast %struct._ZNSt7__cxx1112basic_stringIcSt11char_traitsIcESaIcEEE** %..inline.addr to i8**, !dbg !5977
	store i8*  %11, i8**  %12, align 8, !tbaa !3925, !dbg !5977
	%13 = bitcast %struct._ZSt18_Rb_tree_node_base*  %3 to i8*, !dbg !5977
	%14 = getelementptr i8, i8*  %13, i64 32, !dbg !5977
	%15 = bitcast %struct._ZNSt7__cxx1112basic_stringIcSt11char_traitsIcESaIcEEE** %..inline.addr.1 to i8**, !dbg !5977
	store i8*  %14, i8**  %15, align 8, !tbaa !3925, !dbg !5977
	%16 = load %struct._ZNSt7__cxx1112basic_stringIcSt11char_traitsIcESaIcEEE*, %struct._ZNSt7__cxx1112basic_stringIcSt11char_traitsIcESaIcEEE** %..inline.addr, align 8, !tbaa !3925, !dbg !5979
	%17 = load %struct._ZNSt7__cxx1112basic_stringIcSt11char_traitsIcESaIcEEE*, %struct._ZNSt7__cxx1112basic_stringIcSt11char_traitsIcESaIcEEE** %..inline.addr.1, align 8, !tbaa !3925, !dbg !5979
	%18 = call i8  @_ZStltIcSt11char_traitsIcESaIcEEbRKNSt7__cxx1112basic_stringIT_T0_T1_EESA_ (%struct._ZNSt7__cxx1112basic_stringIcSt11char_traitsIcESaIcEEE*  %16, %struct._ZNSt7__cxx1112basic_stringIcSt11char_traitsIcESaIcEEE*  %17) nounwind, !dbg !5979
	%19 = sext i8  %18 to i32, !dbg !5979
	%20 = icmp ne i32  %19, 0, !dbg !5979
	br i1  %20, label %L.B0019, label %L.B1291, !dbg !5979
L.B1291:
	store i32 0, i32* %.I0003.addr, align 4, !tbaa !5986, !dbg !5977
	br label %L.B0020, !dbg !5977
L.B0019:
	store i32 1, i32* %.I0003.addr, align 4, !tbaa !5986, !dbg !5977
	br label %L.B0020
L.B0020:
	%21 = load i32, i32* %.I0003.addr, align 4, !tbaa !5986, !dbg !5977
	%22 = shl i32  %21, 24, !dbg !5977
	%23 = ashr i32  %22, 24, !dbg !5977
	%24 = trunc i32  %23 to i8, !dbg !5977
	call void @llvm.dbg.declare (metadata i8* %__insert_left.addr, metadata !5980, metadata !3917), !dbg !5910
	%25 = load %struct._ZSt13_Rb_tree_nodeISt4pairIKNSt7__cxx1112basic_stringIcSt11char_traitsIcESaIcEEEPFPN16amr_ref_criteria4BaseEvEEE*, %struct._ZSt13_Rb_tree_nodeISt4pairIKNSt7__cxx1112basic_stringIcSt11char_traitsIcESaIcEEEPFPN16amr_ref_criteria4BaseEvEEE** %__z.addr, align 8, !tbaa !3925, !dbg !5981
	%26 = bitcast %struct._ZSt13_Rb_tree_nodeISt4pairIKNSt7__cxx1112basic_stringIcSt11char_traitsIcESaIcEEEPFPN16amr_ref_criteria4BaseEvEEE*  %25 to %struct._ZSt18_Rb_tree_node_base*, !dbg !5981
	%27 = load %struct._ZSt18_Rb_tree_node_base*, %struct._ZSt18_Rb_tree_node_base** %__p.addr, align 8, !tbaa !3925, !dbg !5981
	%28 = load %struct._ZSt8_Rb_treeINSt7__cxx1112basic_stringIcSt11char_traitsIcESaIcEEESt4pairIKS5_PFPN16amr_ref_criteria4BaseEvEESt10_Select1stISD_ESt4lessIS5_ESaISD_EE*, %struct._ZSt8_Rb_treeINSt7__cxx1112basic_stringIcSt11char_traitsIcESaIcEEESt4pairIKS5_PFPN16amr_ref_criteria4BaseEvEESt10_Select1stISD_ESt4lessIS5_ESaISD_EE** %_T22232024_52721.addr, align 8, !tbaa !3925, !dbg !5981
	%29 = bitcast %struct._ZSt8_Rb_treeINSt7__cxx1112basic_stringIcSt11char_traitsIcESaIcEEESt4pairIKS5_PFPN16amr_ref_criteria4BaseEvEESt10_Select1stISD_ESt4lessIS5_ESaISD_EE*  %28 to i8*, !dbg !5981
	%30 = getelementptr i8, i8*  %29, i64 8, !dbg !5981
	%31 = bitcast i8*  %30 to %struct._ZSt18_Rb_tree_node_base*, !dbg !5981
	call void  @_ZSt29_Rb_tree_insert_and_rebalancebPSt18_Rb_tree_node_baseS0_RS_ (i8  %24, %struct._ZSt18_Rb_tree_node_base*  %26, %struct._ZSt18_Rb_tree_node_base*  %27, %struct._ZSt18_Rb_tree_node_base*  %31) nounwind, !dbg !5981
	%32 = load %struct._ZSt8_Rb_treeINSt7__cxx1112basic_stringIcSt11char_traitsIcESaIcEEESt4pairIKS5_PFPN16amr_ref_criteria4BaseEvEESt10_Select1stISD_ESt4lessIS5_ESaISD_EE*, %struct._ZSt8_Rb_treeINSt7__cxx1112basic_stringIcSt11char_traitsIcESaIcEEESt4pairIKS5_PFPN16amr_ref_criteria4BaseEvEESt10_Select1stISD_ESt4lessIS5_ESaISD_EE** %_T22232024_52721.addr, align 8, !tbaa !3925, !dbg !5982
	%33 = bitcast %struct._ZSt8_Rb_treeINSt7__cxx1112basic_stringIcSt11char_traitsIcESaIcEEESt4pairIKS5_PFPN16amr_ref_criteria4BaseEvEESt10_Select1stISD_ESt4lessIS5_ESaISD_EE*  %32 to i8*, !dbg !5982
	%34 = getelementptr i8, i8*  %33, i64 40, !dbg !5982
	%35 = bitcast i8*  %34 to i64*, !dbg !5982
	%36 = load i64, i64*  %35, align 8, !tbaa !3924, !dbg !5982
	%37 = add i64  %36, 1, !dbg !5982
	store i64  %37, i64*  %35, align 8, !tbaa !3924, !dbg !5982
	%38 = load %struct._ZSt13_Rb_tree_nodeISt4pairIKNSt7__cxx1112basic_stringIcSt11char_traitsIcESaIcEEEPFPN16amr_ref_criteria4BaseEvEEE*, %struct._ZSt13_Rb_tree_nodeISt4pairIKNSt7__cxx1112basic_stringIcSt11char_traitsIcESaIcEEEPFPN16amr_ref_criteria4BaseEvEEE** %__z.addr, align 8, !tbaa !3925, !dbg !5983
	%39 = bitcast %struct._ZSt13_Rb_tree_nodeISt4pairIKNSt7__cxx1112basic_stringIcSt11char_traitsIcESaIcEEEPFPN16amr_ref_criteria4BaseEvEEE*  %38 to i8*, !dbg !5983
	%40 = bitcast %struct._ZSt17_Rb_tree_iteratorISt4pairIKNSt7__cxx1112basic_stringIcSt11char_traitsIcESaIcEEEPFPN16amr_ref_criteria4BaseEvEEE* %.X52721.addr to i8**, !dbg !5983
	store i8*  %39, i8**  %40, align 8, !tbaa !3925, !dbg !5983
	%41 = bitcast %struct._ZSt17_Rb_tree_iteratorISt4pairIKNSt7__cxx1112basic_stringIcSt11char_traitsIcESaIcEEEPFPN16amr_ref_criteria4BaseEvEEE* %.X52721.addr to i64*, !dbg !5984
	%42 = load i64, i64*  %41, align 8, !tbaa !3924, !dbg !5984
	ret i64  %42, !dbg !5984
}
define linkonce_odr i64 @_ZNSt8_Rb_treeINSt7__cxx1112basic_stringIcSt11char_traitsIcESaIcEEESt4pairIKS5_PFPN16amr_ref_criteria4BaseEvEESt10_Select1stISD_ESt4lessIS5_ESaISD_EE5beginEv(%struct._ZSt8_Rb_treeINSt7__cxx1112basic_stringIcSt11char_traitsIcESaIcEEESt4pairIKS5_PFPN16amr_ref_criteria4BaseEvEESt10_Select1stISD_ESt4lessIS5_ESaISD_EE* %_T22232024_52723.arg) #0 inlinehint !dbg !5990 {
L.entry:
	%.X52723.addr = alloca %struct._ZSt17_Rb_tree_iteratorISt4pairIKNSt7__cxx1112basic_stringIcSt11char_traitsIcESaIcEEEPFPN16amr_ref_criteria4BaseEvEEE, align 8
	%_T22232024_52723.addr = alloca %struct._ZSt8_Rb_treeINSt7__cxx1112basic_stringIcSt11char_traitsIcESaIcEEESt4pairIKS5_PFPN16amr_ref_criteria4BaseEvEESt10_Select1stISD_ESt4lessIS5_ESaISD_EE*, align 8

	call void @llvm.dbg.declare (metadata %struct._ZSt8_Rb_treeINSt7__cxx1112basic_stringIcSt11char_traitsIcESaIcEEESt4pairIKS5_PFPN16amr_ref_criteria4BaseEvEESt10_Select1stISD_ESt4lessIS5_ESaISD_EE** %_T22232024_52723.addr, metadata !5998, metadata !3917), !dbg !5991
	store %struct._ZSt8_Rb_treeINSt7__cxx1112basic_stringIcSt11char_traitsIcESaIcEEESt4pairIKS5_PFPN16amr_ref_criteria4BaseEvEESt10_Select1stISD_ESt4lessIS5_ESaISD_EE* %_T22232024_52723.arg, %struct._ZSt8_Rb_treeINSt7__cxx1112basic_stringIcSt11char_traitsIcESaIcEEESt4pairIKS5_PFPN16amr_ref_criteria4BaseEvEESt10_Select1stISD_ESt4lessIS5_ESaISD_EE** %_T22232024_52723.addr, align 8, !tbaa !3925
	call void @llvm.dbg.declare (metadata %struct._ZSt8_Rb_treeINSt7__cxx1112basic_stringIcSt11char_traitsIcESaIcEEESt4pairIKS5_PFPN16amr_ref_criteria4BaseEvEESt10_Select1stISD_ESt4lessIS5_ESaISD_EE** %_T22232024_52723.addr, metadata !5999, metadata !3917), !dbg !5991
	%0 = load %struct._ZSt8_Rb_treeINSt7__cxx1112basic_stringIcSt11char_traitsIcESaIcEEESt4pairIKS5_PFPN16amr_ref_criteria4BaseEvEESt10_Select1stISD_ESt4lessIS5_ESaISD_EE*, %struct._ZSt8_Rb_treeINSt7__cxx1112basic_stringIcSt11char_traitsIcESaIcEEESt4pairIKS5_PFPN16amr_ref_criteria4BaseEvEESt10_Select1stISD_ESt4lessIS5_ESaISD_EE** %_T22232024_52723.addr, align 8, !tbaa !3925, !dbg !6000
	%1 = bitcast %struct._ZSt8_Rb_treeINSt7__cxx1112basic_stringIcSt11char_traitsIcESaIcEEESt4pairIKS5_PFPN16amr_ref_criteria4BaseEvEESt10_Select1stISD_ESt4lessIS5_ESaISD_EE*  %0 to i8*, !dbg !6000
	%2 = getelementptr i8, i8*  %1, i64 24, !dbg !6000
	%3 = bitcast i8*  %2 to i8**, !dbg !6000
	%4 = load i8*, i8**  %3, align 8, !tbaa !3925, !dbg !6000
	%5 = bitcast %struct._ZSt17_Rb_tree_iteratorISt4pairIKNSt7__cxx1112basic_stringIcSt11char_traitsIcESaIcEEEPFPN16amr_ref_criteria4BaseEvEEE* %.X52723.addr to i8**, !dbg !6000
	store i8*  %4, i8**  %5, align 8, !tbaa !3925, !dbg !6000
	%6 = bitcast %struct._ZSt17_Rb_tree_iteratorISt4pairIKNSt7__cxx1112basic_stringIcSt11char_traitsIcESaIcEEEPFPN16amr_ref_criteria4BaseEvEEE* %.X52723.addr to i64*, !dbg !6000
	%7 = load i64, i64*  %6, align 8, !tbaa !3924, !dbg !6000
	ret i64  %7, !dbg !6000
}
define linkonce_odr {i64, i64} @_ZNSt8_Rb_treeINSt7__cxx1112basic_stringIcSt11char_traitsIcESaIcEEESt4pairIKS5_PFPN16amr_ref_criteria4BaseEvEESt10_Select1stISD_ESt4lessIS5_ESaISD_EE17_M_emplace_uniqueIJS6_IS5_SC_EEEES6_ISt17_Rb_tree_iteratorISD_EbEDpOT_(%struct._ZSt8_Rb_treeINSt7__cxx1112basic_stringIcSt11char_traitsIcESaIcEEESt4pairIKS5_PFPN16amr_ref_criteria4BaseEvEESt10_Select1stISD_ESt4lessIS5_ESaISD_EE* %_T22232024_52724.arg, %struct._ZSt4pairINSt7__cxx1112basic_stringIcSt11char_traitsIcESaIcEEEPFPN16amr_ref_criteria4BaseEvEE* %__args.arg) #0 inlinehint personality i8* bitcast (i32 (...)* @__gxx_personality_v0 to i8*) !dbg !6009 {
L.entry:
	%.X52724.addr = alloca %struct._ZSt4pairISt17_Rb_tree_iteratorIS_IKNSt7__cxx1112basic_stringIcSt11char_traitsIcESaIcEEEPFPN16amr_ref_criteria4BaseEvEEEbE, align 8
	%_T22232024_52724.addr = alloca %struct._ZSt8_Rb_treeINSt7__cxx1112basic_stringIcSt11char_traitsIcESaIcEEESt4pairIKS5_PFPN16amr_ref_criteria4BaseEvEESt10_Select1stISD_ESt4lessIS5_ESaISD_EE*, align 8
	%__args.addr = alloca %struct._ZSt4pairINSt7__cxx1112basic_stringIcSt11char_traitsIcESaIcEEEPFPN16amr_ref_criteria4BaseEvEE*, align 8
	%..inline.addr = alloca %struct._ZSt4pairINSt7__cxx1112basic_stringIcSt11char_traitsIcESaIcEEEPFPN16amr_ref_criteria4BaseEvEE*, align 8
	%..inline.addr.1 = alloca %struct._ZSt4pairINSt7__cxx1112basic_stringIcSt11char_traitsIcESaIcEEEPFPN16amr_ref_criteria4BaseEvEE*, align 8
	%..inline.addr.2 = alloca %struct._ZSt8_Rb_treeINSt7__cxx1112basic_stringIcSt11char_traitsIcESaIcEEESt4pairIKS5_PFPN16amr_ref_criteria4BaseEvEESt10_Select1stISD_ESt4lessIS5_ESaISD_EE*, align 8
	%..inline.addr.3 = alloca %struct._ZSt4pairINSt7__cxx1112basic_stringIcSt11char_traitsIcESaIcEEEPFPN16amr_ref_criteria4BaseEvEE*, align 8
	%..inline.addr.4 = alloca %struct._ZSt8_Rb_treeINSt7__cxx1112basic_stringIcSt11char_traitsIcESaIcEEESt4pairIKS5_PFPN16amr_ref_criteria4BaseEvEESt10_Select1stISD_ESt4lessIS5_ESaISD_EE*, align 8
	%..inline.addr.5 = alloca %struct._ZSt8_Rb_treeINSt7__cxx1112basic_stringIcSt11char_traitsIcESaIcEEESt4pairIKS5_PFPN16amr_ref_criteria4BaseEvEESt10_Select1stISD_ESt4lessIS5_ESaISD_EE*, align 8
	%..inline.addr.6 = alloca %struct._ZSaISt13_Rb_tree_nodeISt4pairIKNSt7__cxx1112basic_stringIcSt11char_traitsIcESaIcEEEPFPN16amr_ref_criteria4BaseEvEEEE*, align 8
	%..inline.addr.7 = alloca %struct._ZSaISt13_Rb_tree_nodeISt4pairIKNSt7__cxx1112basic_stringIcSt11char_traitsIcESaIcEEEPFPN16amr_ref_criteria4BaseEvEEEE*, align 8
	%..inline.addr.8 = alloca i64, align 8
	%..inline.addr.9 = alloca %struct._ZN9__gnu_cxx13new_allocatorISt13_Rb_tree_nodeISt4pairIKNSt7__cxx1112basic_stringIcSt11char_traitsIcESaIcEEEPFPN16amr_ref_criteria4BaseEvEEEEE*, align 8
	%..inline.addr.150 = alloca i64, align 8
	%..inline.addr.160 = alloca i64, align 8
	%.Q0001.addr = alloca i8*, align 8
	%..inline.addr.180 = alloca %struct._ZSt13_Rb_tree_nodeISt4pairIKNSt7__cxx1112basic_stringIcSt11char_traitsIcESaIcEEEPFPN16amr_ref_criteria4BaseEvEEE*, align 8
	%..inline.addr.190 = alloca %struct._ZSt4pairINSt7__cxx1112basic_stringIcSt11char_traitsIcESaIcEEEPFPN16amr_ref_criteria4BaseEvEE*, align 8
	%..inline.addr.200 = alloca %struct._ZSt4pairINSt7__cxx1112basic_stringIcSt11char_traitsIcESaIcEEEPFPN16amr_ref_criteria4BaseEvEE*, align 8
	%__z.addr = alloca %struct._ZSt13_Rb_tree_nodeISt4pairIKNSt7__cxx1112basic_stringIcSt11char_traitsIcESaIcEEEPFPN16amr_ref_criteria4BaseEvEEE*, align 8
	%..inline.addr.220 = alloca %struct._ZSt13_Rb_tree_nodeISt4pairIKNSt7__cxx1112basic_stringIcSt11char_traitsIcESaIcEEEPFPN16amr_ref_criteria4BaseEvEEE*, align 8
	%..inline.addr.230 = alloca %struct._ZSt13_Rb_tree_nodeISt4pairIKNSt7__cxx1112basic_stringIcSt11char_traitsIcESaIcEEEPFPN16amr_ref_criteria4BaseEvEEE*, align 8
	%..inline.addr.240 = alloca %struct._ZN9__gnu_cxx16__aligned_membufISt4pairIKNSt7__cxx1112basic_stringIcSt11char_traitsIcESaIcEEEPFPN16amr_ref_criteria4BaseEvEEEE*, align 8
	%..inline.addr.250 = alloca %struct._ZN9__gnu_cxx16__aligned_membufISt4pairIKNSt7__cxx1112basic_stringIcSt11char_traitsIcESaIcEEEPFPN16amr_ref_criteria4BaseEvEEEE*, align 8
	%..inline.addr.260 = alloca i8*, align 8
	%..inline.addr.270 = alloca %struct._ZSt4pairIKNSt7__cxx1112basic_stringIcSt11char_traitsIcESaIcEEEPFPN16amr_ref_criteria4BaseEvEE*, align 8
	%..inline.addr.280 = alloca %struct._ZSt4pairIKNSt7__cxx1112basic_stringIcSt11char_traitsIcESaIcEEEPFPN16amr_ref_criteria4BaseEvEE*, align 8
	%..inline.addr.290 = alloca %struct._ZSt8_Rb_treeINSt7__cxx1112basic_stringIcSt11char_traitsIcESaIcEEESt4pairIKS5_PFPN16amr_ref_criteria4BaseEvEESt10_Select1stISD_ESt4lessIS5_ESaISD_EE*, align 8
	%..inline.addr.300 = alloca %struct._ZNSt7__cxx1112basic_stringIcSt11char_traitsIcESaIcEEE*, align 8
	%..inline.addr.310 = alloca %struct._ZSt8_Rb_treeINSt7__cxx1112basic_stringIcSt11char_traitsIcESaIcEEESt4pairIKS5_PFPN16amr_ref_criteria4BaseEvEESt10_Select1stISD_ESt4lessIS5_ESaISD_EE*, align 8
	%..inline.addr.320 = alloca %struct._ZSt13_Rb_tree_nodeISt4pairIKNSt7__cxx1112basic_stringIcSt11char_traitsIcESaIcEEEPFPN16amr_ref_criteria4BaseEvEEE*, align 8
	%..inline.addr.330 = alloca %struct._ZSt13_Rb_tree_nodeISt4pairIKNSt7__cxx1112basic_stringIcSt11char_traitsIcESaIcEEEPFPN16amr_ref_criteria4BaseEvEEE*, align 8
	%..inline.addr.340 = alloca %struct._ZSt8_Rb_treeINSt7__cxx1112basic_stringIcSt11char_traitsIcESaIcEEESt4pairIKS5_PFPN16amr_ref_criteria4BaseEvEESt10_Select1stISD_ESt4lessIS5_ESaISD_EE*, align 8
	%..inline.addr.350 = alloca %struct._ZSt18_Rb_tree_node_base*, align 8
	%..inline.addr.360 = alloca i8, align 1
	%..inline.addr.370 = alloca %struct._ZSt13_Rb_tree_nodeISt4pairIKNSt7__cxx1112basic_stringIcSt11char_traitsIcESaIcEEEPFPN16amr_ref_criteria4BaseEvEEE*, align 8
	%..inline.addr.380 = alloca %struct._ZSt13_Rb_tree_nodeISt4pairIKNSt7__cxx1112basic_stringIcSt11char_traitsIcESaIcEEEPFPN16amr_ref_criteria4BaseEvEEE*, align 8
	%..inline.addr.390 = alloca %struct._ZN9__gnu_cxx16__aligned_membufISt4pairIKNSt7__cxx1112basic_stringIcSt11char_traitsIcESaIcEEEPFPN16amr_ref_criteria4BaseEvEEEE*, align 8
	%..inline.addr.400 = alloca %struct._ZN9__gnu_cxx16__aligned_membufISt4pairIKNSt7__cxx1112basic_stringIcSt11char_traitsIcESaIcEEEPFPN16amr_ref_criteria4BaseEvEEEE*, align 8
	%..inline.addr.410 = alloca i8*, align 8
	%..inline.addr.420 = alloca %struct._ZSt4pairIKNSt7__cxx1112basic_stringIcSt11char_traitsIcESaIcEEEPFPN16amr_ref_criteria4BaseEvEE*, align 8
	%..inline.addr.430 = alloca %struct._ZSt4pairIKNSt7__cxx1112basic_stringIcSt11char_traitsIcESaIcEEEPFPN16amr_ref_criteria4BaseEvEE*, align 8
	%..inline.addr.440 = alloca %struct._ZNSt7__cxx1112basic_stringIcSt11char_traitsIcESaIcEEE*, align 8
	%..inline.addr.450 = alloca %struct._ZNSt7__cxx1112basic_stringIcSt11char_traitsIcESaIcEEE*, align 8
	%..inline.addr.460 = alloca i8, align 1
	%..inline.addr.470 = alloca %struct._ZSt18_Rb_tree_node_base*, align 8
	%..inline.addr.480 = alloca %struct._ZSt13_Rb_tree_nodeISt4pairIKNSt7__cxx1112basic_stringIcSt11char_traitsIcESaIcEEEPFPN16amr_ref_criteria4BaseEvEEE*, align 8
	%..inline.addr.490 = alloca %struct._ZSt13_Rb_tree_nodeISt4pairIKNSt7__cxx1112basic_stringIcSt11char_traitsIcESaIcEEEPFPN16amr_ref_criteria4BaseEvEEE*, align 8
	%..inline.addr.500 = alloca %struct._ZSt18_Rb_tree_node_base*, align 8
	%..inline.addr.510 = alloca %struct._ZSt13_Rb_tree_nodeISt4pairIKNSt7__cxx1112basic_stringIcSt11char_traitsIcESaIcEEEPFPN16amr_ref_criteria4BaseEvEEE*, align 8
	%..inline.addr.520 = alloca %struct._ZSt18_Rb_tree_node_base*, align 8
	%..inline.addr.530 = alloca %struct._ZSt17_Rb_tree_iteratorISt4pairIKNSt7__cxx1112basic_stringIcSt11char_traitsIcESaIcEEEPFPN16amr_ref_criteria4BaseEvEEE, align 8
	%..inline.addr.540 = alloca %struct._ZSt8_Rb_treeINSt7__cxx1112basic_stringIcSt11char_traitsIcESaIcEEESt4pairIKS5_PFPN16amr_ref_criteria4BaseEvEESt10_Select1stISD_ESt4lessIS5_ESaISD_EE*, align 8
	%..inline.addr.550 = alloca %struct._ZSt18_Rb_tree_node_base*, align 8
	%..inline.addr.560 = alloca %struct._ZSt17_Rb_tree_iteratorISt4pairIKNSt7__cxx1112basic_stringIcSt11char_traitsIcESaIcEEEPFPN16amr_ref_criteria4BaseEvEEE, align 8
	%..inline.addr.570 = alloca %struct._ZSt17_Rb_tree_iteratorISt4pairIKNSt7__cxx1112basic_stringIcSt11char_traitsIcESaIcEEEPFPN16amr_ref_criteria4BaseEvEEE, align 8
	%..inline.addr.580 = alloca %struct._ZSt17_Rb_tree_iteratorISt4pairIKNSt7__cxx1112basic_stringIcSt11char_traitsIcESaIcEEEPFPN16amr_ref_criteria4BaseEvEEE, align 8
	%..inline.addr.590 = alloca i8, align 1
	%..inline.addr.600 = alloca i8, align 1
	%..inline.addr.610 = alloca %struct._ZSt13_Rb_tree_nodeISt4pairIKNSt7__cxx1112basic_stringIcSt11char_traitsIcESaIcEEEPFPN16amr_ref_criteria4BaseEvEEE**, align 8
	%..inline.addr.620 = alloca %struct._ZSt13_Rb_tree_nodeISt4pairIKNSt7__cxx1112basic_stringIcSt11char_traitsIcESaIcEEEPFPN16amr_ref_criteria4BaseEvEEE**, align 8
	%..inline.addr.630 = alloca %struct._ZSt4pairIPSt18_Rb_tree_node_baseS1_E, align 8
	%..inline.addr.640 = alloca %struct._ZSt18_Rb_tree_node_base**, align 8
	%..inline.addr.650 = alloca %struct._ZSt18_Rb_tree_node_base**, align 8
	%..inline.addr.660 = alloca %struct._ZSt4pairIPSt18_Rb_tree_node_baseS1_E, align 8
	%..inline.addr.670 = alloca %struct._ZSt18_Rb_tree_node_base*, align 8
	%..inline.addr.680 = alloca %struct._ZSt13_Rb_tree_nodeISt4pairIKNSt7__cxx1112basic_stringIcSt11char_traitsIcESaIcEEEPFPN16amr_ref_criteria4BaseEvEEE*, align 8
	%..inline.addr.690 = alloca %struct._ZSt13_Rb_tree_nodeISt4pairIKNSt7__cxx1112basic_stringIcSt11char_traitsIcESaIcEEEPFPN16amr_ref_criteria4BaseEvEEE*, align 8
	%..inline.addr.700 = alloca %struct._ZN9__gnu_cxx16__aligned_membufISt4pairIKNSt7__cxx1112basic_stringIcSt11char_traitsIcESaIcEEEPFPN16amr_ref_criteria4BaseEvEEEE*, align 8
	%..inline.addr.710 = alloca %struct._ZN9__gnu_cxx16__aligned_membufISt4pairIKNSt7__cxx1112basic_stringIcSt11char_traitsIcESaIcEEEPFPN16amr_ref_criteria4BaseEvEEEE*, align 8
	%..inline.addr.720 = alloca i8*, align 8
	%..inline.addr.730 = alloca %struct._ZSt4pairIKNSt7__cxx1112basic_stringIcSt11char_traitsIcESaIcEEEPFPN16amr_ref_criteria4BaseEvEE*, align 8
	%..inline.addr.740 = alloca %struct._ZSt4pairIKNSt7__cxx1112basic_stringIcSt11char_traitsIcESaIcEEEPFPN16amr_ref_criteria4BaseEvEE*, align 8
	%..inline.addr.750 = alloca %struct._ZNSt7__cxx1112basic_stringIcSt11char_traitsIcESaIcEEE*, align 8
	%..inline.addr.760 = alloca %struct._ZNSt7__cxx1112basic_stringIcSt11char_traitsIcESaIcEEE*, align 8
	%..inline.addr.770 = alloca i8, align 1
	%..inline.addr.780 = alloca %struct._ZSt13_Rb_tree_nodeISt4pairIKNSt7__cxx1112basic_stringIcSt11char_traitsIcESaIcEEEPFPN16amr_ref_criteria4BaseEvEEE**, align 8
	%..inline.addr.790 = alloca %struct._ZSt13_Rb_tree_nodeISt4pairIKNSt7__cxx1112basic_stringIcSt11char_traitsIcESaIcEEEPFPN16amr_ref_criteria4BaseEvEEE**, align 8
	%..inline.addr.800 = alloca %struct._ZSt4pairIPSt18_Rb_tree_node_baseS1_E, align 8
	%..inline.addr.810 = alloca %struct._ZSt18_Rb_tree_node_base**, align 8
	%..inline.addr.820 = alloca %struct._ZSt18_Rb_tree_node_base**, align 8
	%..inline.addr.830 = alloca %struct._ZSt18_Rb_tree_node_base*, align 8
	%..inline.addr.840 = alloca %struct._ZSt18_Rb_tree_node_base**, align 8
	%..inline.addr.850 = alloca %struct._ZSt18_Rb_tree_node_base**, align 8
	%..inline.addr.860 = alloca %struct._ZSt18_Rb_tree_node_base**, align 8
	%..inline.addr.870 = alloca %struct._ZSt4pairIPSt18_Rb_tree_node_baseS1_E, align 8
	%__res.addr = alloca %struct._ZSt4pairIPSt18_Rb_tree_node_baseS1_E, align 8
	%..inline.addr.890 = alloca %struct._ZSt8_Rb_treeINSt7__cxx1112basic_stringIcSt11char_traitsIcESaIcEEESt4pairIKS5_PFPN16amr_ref_criteria4BaseEvEESt10_Select1stISD_ESt4lessIS5_ESaISD_EE*, align 8
	%..inline.addr.900 = alloca %struct._ZSt18_Rb_tree_node_base*, align 8
	%..inline.addr.910 = alloca %struct._ZSt18_Rb_tree_node_base*, align 8
	%..inline.addr.920 = alloca %struct._ZSt13_Rb_tree_nodeISt4pairIKNSt7__cxx1112basic_stringIcSt11char_traitsIcESaIcEEEPFPN16amr_ref_criteria4BaseEvEEE*, align 8
	%..inline.addr.930 = alloca %struct._ZSt8_Rb_treeINSt7__cxx1112basic_stringIcSt11char_traitsIcESaIcEEESt4pairIKS5_PFPN16amr_ref_criteria4BaseEvEESt10_Select1stISD_ESt4lessIS5_ESaISD_EE*, align 8
	%..inline.addr.940 = alloca %struct._ZSt13_Rb_tree_nodeISt4pairIKNSt7__cxx1112basic_stringIcSt11char_traitsIcESaIcEEEPFPN16amr_ref_criteria4BaseEvEEE*, align 8
	%..inline.addr.950 = alloca %struct._ZSt13_Rb_tree_nodeISt4pairIKNSt7__cxx1112basic_stringIcSt11char_traitsIcESaIcEEEPFPN16amr_ref_criteria4BaseEvEEE*, align 8
	%..inline.addr.960 = alloca %struct._ZN9__gnu_cxx16__aligned_membufISt4pairIKNSt7__cxx1112basic_stringIcSt11char_traitsIcESaIcEEEPFPN16amr_ref_criteria4BaseEvEEEE*, align 8
	%..inline.addr.970 = alloca %struct._ZN9__gnu_cxx16__aligned_membufISt4pairIKNSt7__cxx1112basic_stringIcSt11char_traitsIcESaIcEEEPFPN16amr_ref_criteria4BaseEvEEEE*, align 8
	%..inline.addr.980 = alloca i8*, align 8
	%..inline.addr.990 = alloca %struct._ZSt4pairIKNSt7__cxx1112basic_stringIcSt11char_traitsIcESaIcEEEPFPN16amr_ref_criteria4BaseEvEE*, align 8
	%..inline.addr.1000 = alloca %struct._ZSt4pairIKNSt7__cxx1112basic_stringIcSt11char_traitsIcESaIcEEEPFPN16amr_ref_criteria4BaseEvEE*, align 8
	%..inline.addr.1010 = alloca %struct._ZSt18_Rb_tree_node_base*, align 8
	%..inline.addr.1020 = alloca %struct._ZSt13_Rb_tree_nodeISt4pairIKNSt7__cxx1112basic_stringIcSt11char_traitsIcESaIcEEEPFPN16amr_ref_criteria4BaseEvEEE*, align 8
	%..inline.addr.1030 = alloca %struct._ZSt13_Rb_tree_nodeISt4pairIKNSt7__cxx1112basic_stringIcSt11char_traitsIcESaIcEEEPFPN16amr_ref_criteria4BaseEvEEE*, align 8
	%..inline.addr.1040 = alloca %struct._ZN9__gnu_cxx16__aligned_membufISt4pairIKNSt7__cxx1112basic_stringIcSt11char_traitsIcESaIcEEEPFPN16amr_ref_criteria4BaseEvEEEE*, align 8
	%..inline.addr.1050 = alloca %struct._ZN9__gnu_cxx16__aligned_membufISt4pairIKNSt7__cxx1112basic_stringIcSt11char_traitsIcESaIcEEEPFPN16amr_ref_criteria4BaseEvEEEE*, align 8
	%..inline.addr.1060 = alloca i8*, align 8
	%..inline.addr.1070 = alloca %struct._ZSt4pairIKNSt7__cxx1112basic_stringIcSt11char_traitsIcESaIcEEEPFPN16amr_ref_criteria4BaseEvEE*, align 8
	%..inline.addr.1080 = alloca %struct._ZSt4pairIKNSt7__cxx1112basic_stringIcSt11char_traitsIcESaIcEEEPFPN16amr_ref_criteria4BaseEvEE*, align 8
	%..inline.addr.1090 = alloca %struct._ZNSt7__cxx1112basic_stringIcSt11char_traitsIcESaIcEEE*, align 8
	%..inline.addr.1100 = alloca %struct._ZNSt7__cxx1112basic_stringIcSt11char_traitsIcESaIcEEE*, align 8
	%..inline.addr.1110 = alloca i8, align 1
	%..inline.addr.1120 = alloca i32, align 4
	%..inline.addr.1130 = alloca i8, align 1
	%..inline.addr.1140 = alloca %struct._ZSt18_Rb_tree_node_base*, align 8
	%..inline.addr.1150 = alloca %struct._ZSt17_Rb_tree_iteratorISt4pairIKNSt7__cxx1112basic_stringIcSt11char_traitsIcESaIcEEEPFPN16amr_ref_criteria4BaseEvEEE, align 8
	%..inline.addr.1160 = alloca %struct._ZSt17_Rb_tree_iteratorISt4pairIKNSt7__cxx1112basic_stringIcSt11char_traitsIcESaIcEEEPFPN16amr_ref_criteria4BaseEvEEE, align 8
	%_T22234984_52724.addr = alloca %struct._ZSt17_Rb_tree_iteratorISt4pairIKNSt7__cxx1112basic_stringIcSt11char_traitsIcESaIcEEEPFPN16amr_ref_criteria4BaseEvEEE, align 8
	%_T22235280_52724.addr = alloca i8, align 1
	%..inline.addr.1190 = alloca %struct._ZSt17_Rb_tree_iteratorISt4pairIKNSt7__cxx1112basic_stringIcSt11char_traitsIcESaIcEEEPFPN16amr_ref_criteria4BaseEvEEE*, align 8
	%..inline.addr.1200 = alloca %struct._ZSt17_Rb_tree_iteratorISt4pairIKNSt7__cxx1112basic_stringIcSt11char_traitsIcESaIcEEEPFPN16amr_ref_criteria4BaseEvEEE*, align 8
	%_T22234688_52724.addr = alloca %struct._ZSt4pairISt17_Rb_tree_iteratorIS_IKNSt7__cxx1112basic_stringIcSt11char_traitsIcESaIcEEEPFPN16amr_ref_criteria4BaseEvEEEbE, align 8
	%..inline.addr.1220 = alloca i8*, align 8
	%..inline.addr.1230 = alloca i8*, align 8
	%..inline.addr.1240 = alloca %struct._ZSt8_Rb_treeINSt7__cxx1112basic_stringIcSt11char_traitsIcESaIcEEESt4pairIKS5_PFPN16amr_ref_criteria4BaseEvEESt10_Select1stISD_ESt4lessIS5_ESaISD_EE*, align 8
	%..inline.addr.1250 = alloca %struct._ZSt13_Rb_tree_nodeISt4pairIKNSt7__cxx1112basic_stringIcSt11char_traitsIcESaIcEEEPFPN16amr_ref_criteria4BaseEvEEE*, align 8
	%..inline.addr.1260 = alloca %struct._ZSt8_Rb_treeINSt7__cxx1112basic_stringIcSt11char_traitsIcESaIcEEESt4pairIKS5_PFPN16amr_ref_criteria4BaseEvEESt10_Select1stISD_ESt4lessIS5_ESaISD_EE*, align 8
	%..inline.addr.1270 = alloca %struct._ZSt13_Rb_tree_nodeISt4pairIKNSt7__cxx1112basic_stringIcSt11char_traitsIcESaIcEEEPFPN16amr_ref_criteria4BaseEvEEE*, align 8
	%..inline.addr.1280 = alloca %struct._ZSt8_Rb_treeINSt7__cxx1112basic_stringIcSt11char_traitsIcESaIcEEESt4pairIKS5_PFPN16amr_ref_criteria4BaseEvEESt10_Select1stISD_ESt4lessIS5_ESaISD_EE*, align 8
	%..inline.addr.1290 = alloca %struct._ZSaISt13_Rb_tree_nodeISt4pairIKNSt7__cxx1112basic_stringIcSt11char_traitsIcESaIcEEEPFPN16amr_ref_criteria4BaseEvEEEE*, align 8
	%..inline.addr.1300 = alloca %struct._ZSt13_Rb_tree_nodeISt4pairIKNSt7__cxx1112basic_stringIcSt11char_traitsIcESaIcEEEPFPN16amr_ref_criteria4BaseEvEEE*, align 8
	%..inline.addr.1310 = alloca %struct._ZN9__gnu_cxx16__aligned_membufISt4pairIKNSt7__cxx1112basic_stringIcSt11char_traitsIcESaIcEEEPFPN16amr_ref_criteria4BaseEvEEEE*, align 8
	%..inline.addr.1320 = alloca %struct._ZN9__gnu_cxx16__aligned_membufISt4pairIKNSt7__cxx1112basic_stringIcSt11char_traitsIcESaIcEEEPFPN16amr_ref_criteria4BaseEvEEEE*, align 8
	%..inline.addr.1330 = alloca i8*, align 8
	%..inline.addr.1340 = alloca %struct._ZSt4pairIKNSt7__cxx1112basic_stringIcSt11char_traitsIcESaIcEEEPFPN16amr_ref_criteria4BaseEvEE*, align 8
	%..inline.addr.1350 = alloca %struct._ZSaISt13_Rb_tree_nodeISt4pairIKNSt7__cxx1112basic_stringIcSt11char_traitsIcESaIcEEEPFPN16amr_ref_criteria4BaseEvEEEE*, align 8
	%..inline.addr.1360 = alloca %struct._ZSt4pairIKNSt7__cxx1112basic_stringIcSt11char_traitsIcESaIcEEEPFPN16amr_ref_criteria4BaseEvEE*, align 8
	%..inline.addr.1370 = alloca %struct._ZSt8_Rb_treeINSt7__cxx1112basic_stringIcSt11char_traitsIcESaIcEEESt4pairIKS5_PFPN16amr_ref_criteria4BaseEvEESt10_Select1stISD_ESt4lessIS5_ESaISD_EE*, align 8
	%..inline.addr.1380 = alloca %struct._ZSt13_Rb_tree_nodeISt4pairIKNSt7__cxx1112basic_stringIcSt11char_traitsIcESaIcEEEPFPN16amr_ref_criteria4BaseEvEEE*, align 8
	%..inline.addr.1390 = alloca %struct._ZSt8_Rb_treeINSt7__cxx1112basic_stringIcSt11char_traitsIcESaIcEEESt4pairIKS5_PFPN16amr_ref_criteria4BaseEvEESt10_Select1stISD_ESt4lessIS5_ESaISD_EE*, align 8
	%..inline.addr.1400 = alloca %struct._ZSaISt13_Rb_tree_nodeISt4pairIKNSt7__cxx1112basic_stringIcSt11char_traitsIcESaIcEEEPFPN16amr_ref_criteria4BaseEvEEEE*, align 8
	%..inline.addr.1410 = alloca %struct._ZSaISt13_Rb_tree_nodeISt4pairIKNSt7__cxx1112basic_stringIcSt11char_traitsIcESaIcEEEPFPN16amr_ref_criteria4BaseEvEEEE*, align 8
	%..inline.addr.1420 = alloca %struct._ZSt13_Rb_tree_nodeISt4pairIKNSt7__cxx1112basic_stringIcSt11char_traitsIcESaIcEEEPFPN16amr_ref_criteria4BaseEvEEE*, align 8
	%..inline.addr.1430 = alloca i64, align 8
	%..inline.addr.1440 = alloca %struct._ZSt13_Rb_tree_nodeISt4pairIKNSt7__cxx1112basic_stringIcSt11char_traitsIcESaIcEEEPFPN16amr_ref_criteria4BaseEvEEE*, align 8
	%..inline.addr.1450 = alloca %struct._ZSt18_Rb_tree_node_base*, align 8
	%_T22233800_52724.addr = alloca %struct._ZSt17_Rb_tree_iteratorISt4pairIKNSt7__cxx1112basic_stringIcSt11char_traitsIcESaIcEEEPFPN16amr_ref_criteria4BaseEvEEE, align 8
	%_T22234096_52724.addr = alloca i8, align 1
	%..inline.addr.1480 = alloca %struct._ZSt17_Rb_tree_iteratorISt4pairIKNSt7__cxx1112basic_stringIcSt11char_traitsIcESaIcEEEPFPN16amr_ref_criteria4BaseEvEEE*, align 8
	%..inline.addr.1490 = alloca %struct._ZSt17_Rb_tree_iteratorISt4pairIKNSt7__cxx1112basic_stringIcSt11char_traitsIcESaIcEEEPFPN16amr_ref_criteria4BaseEvEEE*, align 8
	%_T22233504_52724.addr = alloca %struct._ZSt4pairISt17_Rb_tree_iteratorIS_IKNSt7__cxx1112basic_stringIcSt11char_traitsIcESaIcEEEPFPN16amr_ref_criteria4BaseEvEEEbE, align 8
	%..inline.addr.1510 = alloca i8*, align 8
	%..inline.addr.1520 = alloca i8*, align 8
	%__caught_object_address.addr = alloca i8*, align 8
	%__catch_clause_number.addr = alloca i32, align 4
	%..inline.addr.1550 = alloca %struct._ZSt8_Rb_treeINSt7__cxx1112basic_stringIcSt11char_traitsIcESaIcEEESt4pairIKS5_PFPN16amr_ref_criteria4BaseEvEESt10_Select1stISD_ESt4lessIS5_ESaISD_EE*, align 8
	%..inline.addr.1560 = alloca %struct._ZSt13_Rb_tree_nodeISt4pairIKNSt7__cxx1112basic_stringIcSt11char_traitsIcESaIcEEEPFPN16amr_ref_criteria4BaseEvEEE*, align 8
	%..inline.addr.1570 = alloca %struct._ZSt8_Rb_treeINSt7__cxx1112basic_stringIcSt11char_traitsIcESaIcEEESt4pairIKS5_PFPN16amr_ref_criteria4BaseEvEESt10_Select1stISD_ESt4lessIS5_ESaISD_EE*, align 8
	%..inline.addr.1580 = alloca %struct._ZSt13_Rb_tree_nodeISt4pairIKNSt7__cxx1112basic_stringIcSt11char_traitsIcESaIcEEEPFPN16amr_ref_criteria4BaseEvEEE*, align 8
	%..inline.addr.1590 = alloca %struct._ZSt8_Rb_treeINSt7__cxx1112basic_stringIcSt11char_traitsIcESaIcEEESt4pairIKS5_PFPN16amr_ref_criteria4BaseEvEESt10_Select1stISD_ESt4lessIS5_ESaISD_EE*, align 8
	%..inline.addr.1600 = alloca %struct._ZSaISt13_Rb_tree_nodeISt4pairIKNSt7__cxx1112basic_stringIcSt11char_traitsIcESaIcEEEPFPN16amr_ref_criteria4BaseEvEEEE*, align 8
	%..inline.addr.1610 = alloca %struct._ZSt13_Rb_tree_nodeISt4pairIKNSt7__cxx1112basic_stringIcSt11char_traitsIcESaIcEEEPFPN16amr_ref_criteria4BaseEvEEE*, align 8
	%..inline.addr.1620 = alloca %struct._ZN9__gnu_cxx16__aligned_membufISt4pairIKNSt7__cxx1112basic_stringIcSt11char_traitsIcESaIcEEEPFPN16amr_ref_criteria4BaseEvEEEE*, align 8
	%..inline.addr.1630 = alloca %struct._ZN9__gnu_cxx16__aligned_membufISt4pairIKNSt7__cxx1112basic_stringIcSt11char_traitsIcESaIcEEEPFPN16amr_ref_criteria4BaseEvEEEE*, align 8
	%..inline.addr.1640 = alloca i8*, align 8
	%..inline.addr.1650 = alloca %struct._ZSt4pairIKNSt7__cxx1112basic_stringIcSt11char_traitsIcESaIcEEEPFPN16amr_ref_criteria4BaseEvEE*, align 8
	%..inline.addr.1660 = alloca %struct._ZSaISt13_Rb_tree_nodeISt4pairIKNSt7__cxx1112basic_stringIcSt11char_traitsIcESaIcEEEPFPN16amr_ref_criteria4BaseEvEEEE*, align 8
	%..inline.addr.1670 = alloca %struct._ZSt4pairIKNSt7__cxx1112basic_stringIcSt11char_traitsIcESaIcEEEPFPN16amr_ref_criteria4BaseEvEE*, align 8
	%..inline.addr.1680 = alloca %struct._ZSt8_Rb_treeINSt7__cxx1112basic_stringIcSt11char_traitsIcESaIcEEESt4pairIKS5_PFPN16amr_ref_criteria4BaseEvEESt10_Select1stISD_ESt4lessIS5_ESaISD_EE*, align 8
	%..inline.addr.1690 = alloca %struct._ZSt13_Rb_tree_nodeISt4pairIKNSt7__cxx1112basic_stringIcSt11char_traitsIcESaIcEEEPFPN16amr_ref_criteria4BaseEvEEE*, align 8
	%..inline.addr.1700 = alloca %struct._ZSt8_Rb_treeINSt7__cxx1112basic_stringIcSt11char_traitsIcESaIcEEESt4pairIKS5_PFPN16amr_ref_criteria4BaseEvEESt10_Select1stISD_ESt4lessIS5_ESaISD_EE*, align 8
	%..inline.addr.1710 = alloca %struct._ZSaISt13_Rb_tree_nodeISt4pairIKNSt7__cxx1112basic_stringIcSt11char_traitsIcESaIcEEEPFPN16amr_ref_criteria4BaseEvEEEE*, align 8
	%..inline.addr.1720 = alloca %struct._ZSaISt13_Rb_tree_nodeISt4pairIKNSt7__cxx1112basic_stringIcSt11char_traitsIcESaIcEEEPFPN16amr_ref_criteria4BaseEvEEEE*, align 8
	%..inline.addr.1730 = alloca %struct._ZSt13_Rb_tree_nodeISt4pairIKNSt7__cxx1112basic_stringIcSt11char_traitsIcESaIcEEEPFPN16amr_ref_criteria4BaseEvEEE*, align 8
	%..inline.addr.1740 = alloca i64, align 8
	%..inline.addr.1750 = alloca %struct._ZSt13_Rb_tree_nodeISt4pairIKNSt7__cxx1112basic_stringIcSt11char_traitsIcESaIcEEEPFPN16amr_ref_criteria4BaseEvEEE*, align 8

	call void @llvm.dbg.declare (metadata %struct._ZSt8_Rb_treeINSt7__cxx1112basic_stringIcSt11char_traitsIcESaIcEEESt4pairIKS5_PFPN16amr_ref_criteria4BaseEvEESt10_Select1stISD_ESt4lessIS5_ESaISD_EE** %_T22232024_52724.addr, metadata !6383, metadata !3917), !dbg !6010
	store %struct._ZSt8_Rb_treeINSt7__cxx1112basic_stringIcSt11char_traitsIcESaIcEEESt4pairIKS5_PFPN16amr_ref_criteria4BaseEvEESt10_Select1stISD_ESt4lessIS5_ESaISD_EE* %_T22232024_52724.arg, %struct._ZSt8_Rb_treeINSt7__cxx1112basic_stringIcSt11char_traitsIcESaIcEEESt4pairIKS5_PFPN16amr_ref_criteria4BaseEvEESt10_Select1stISD_ESt4lessIS5_ESaISD_EE** %_T22232024_52724.addr, align 8
	call void @llvm.dbg.declare (metadata %struct._ZSt8_Rb_treeINSt7__cxx1112basic_stringIcSt11char_traitsIcESaIcEEESt4pairIKS5_PFPN16amr_ref_criteria4BaseEvEESt10_Select1stISD_ESt4lessIS5_ESaISD_EE** %_T22232024_52724.addr, metadata !6384, metadata !3917), !dbg !6010
	call void @llvm.dbg.declare (metadata %struct._ZSt4pairINSt7__cxx1112basic_stringIcSt11char_traitsIcESaIcEEEPFPN16amr_ref_criteria4BaseEvEE** %__args.addr, metadata !6385, metadata !3917), !dbg !6010
	store %struct._ZSt4pairINSt7__cxx1112basic_stringIcSt11char_traitsIcESaIcEEEPFPN16amr_ref_criteria4BaseEvEE* %__args.arg, %struct._ZSt4pairINSt7__cxx1112basic_stringIcSt11char_traitsIcESaIcEEEPFPN16amr_ref_criteria4BaseEvEE** %__args.addr, align 8
	call void @llvm.dbg.declare (metadata %struct._ZSt4pairINSt7__cxx1112basic_stringIcSt11char_traitsIcESaIcEEEPFPN16amr_ref_criteria4BaseEvEE** %__args.addr, metadata !6386, metadata !3917), !dbg !6010
	%0 = load %struct._ZSt4pairINSt7__cxx1112basic_stringIcSt11char_traitsIcESaIcEEEPFPN16amr_ref_criteria4BaseEvEE*, %struct._ZSt4pairINSt7__cxx1112basic_stringIcSt11char_traitsIcESaIcEEEPFPN16amr_ref_criteria4BaseEvEE** %__args.addr, align 8, !dbg !6387
	%1 = bitcast %struct._ZSt4pairINSt7__cxx1112basic_stringIcSt11char_traitsIcESaIcEEEPFPN16amr_ref_criteria4BaseEvEE*  %0 to i8*, !dbg !6387
	%2 = bitcast %struct._ZSt4pairINSt7__cxx1112basic_stringIcSt11char_traitsIcESaIcEEEPFPN16amr_ref_criteria4BaseEvEE** %..inline.addr to i8**, !dbg !6387
	store i8*  %1, i8**  %2, align 8, !dbg !6387
	%3 = load %struct._ZSt4pairINSt7__cxx1112basic_stringIcSt11char_traitsIcESaIcEEEPFPN16amr_ref_criteria4BaseEvEE*, %struct._ZSt4pairINSt7__cxx1112basic_stringIcSt11char_traitsIcESaIcEEEPFPN16amr_ref_criteria4BaseEvEE** %..inline.addr, align 8, !dbg !6387
	%4 = bitcast %struct._ZSt4pairINSt7__cxx1112basic_stringIcSt11char_traitsIcESaIcEEEPFPN16amr_ref_criteria4BaseEvEE*  %3 to i8*, !dbg !6387
	%5 = bitcast %struct._ZSt4pairINSt7__cxx1112basic_stringIcSt11char_traitsIcESaIcEEEPFPN16amr_ref_criteria4BaseEvEE** %..inline.addr.1 to i8**, !dbg !6387
	store i8*  %4, i8**  %5, align 8, !dbg !6387
	%6 = load %struct._ZSt8_Rb_treeINSt7__cxx1112basic_stringIcSt11char_traitsIcESaIcEEESt4pairIKS5_PFPN16amr_ref_criteria4BaseEvEESt10_Select1stISD_ESt4lessIS5_ESaISD_EE*, %struct._ZSt8_Rb_treeINSt7__cxx1112basic_stringIcSt11char_traitsIcESaIcEEESt4pairIKS5_PFPN16amr_ref_criteria4BaseEvEESt10_Select1stISD_ESt4lessIS5_ESaISD_EE** %_T22232024_52724.addr, align 8, !dbg !6388
	%7 = bitcast %struct._ZSt8_Rb_treeINSt7__cxx1112basic_stringIcSt11char_traitsIcESaIcEEESt4pairIKS5_PFPN16amr_ref_criteria4BaseEvEESt10_Select1stISD_ESt4lessIS5_ESaISD_EE*  %6 to i8*, !dbg !6388
	%8 = bitcast %struct._ZSt8_Rb_treeINSt7__cxx1112basic_stringIcSt11char_traitsIcESaIcEEESt4pairIKS5_PFPN16amr_ref_criteria4BaseEvEESt10_Select1stISD_ESt4lessIS5_ESaISD_EE** %..inline.addr.2 to i8**, !dbg !6388
	store i8*  %7, i8**  %8, align 8, !dbg !6388
	%9 = load %struct._ZSt4pairINSt7__cxx1112basic_stringIcSt11char_traitsIcESaIcEEEPFPN16amr_ref_criteria4BaseEvEE*, %struct._ZSt4pairINSt7__cxx1112basic_stringIcSt11char_traitsIcESaIcEEEPFPN16amr_ref_criteria4BaseEvEE** %..inline.addr.1, align 8, !dbg !6387
	%10 = bitcast %struct._ZSt4pairINSt7__cxx1112basic_stringIcSt11char_traitsIcESaIcEEEPFPN16amr_ref_criteria4BaseEvEE*  %9 to i8*, !dbg !6387
	%11 = bitcast %struct._ZSt4pairINSt7__cxx1112basic_stringIcSt11char_traitsIcESaIcEEEPFPN16amr_ref_criteria4BaseEvEE** %..inline.addr.3 to i8**, !dbg !6387
	store i8*  %10, i8**  %11, align 8, !dbg !6387
	%12 = load %struct._ZSt8_Rb_treeINSt7__cxx1112basic_stringIcSt11char_traitsIcESaIcEEESt4pairIKS5_PFPN16amr_ref_criteria4BaseEvEESt10_Select1stISD_ESt4lessIS5_ESaISD_EE*, %struct._ZSt8_Rb_treeINSt7__cxx1112basic_stringIcSt11char_traitsIcESaIcEEESt4pairIKS5_PFPN16amr_ref_criteria4BaseEvEESt10_Select1stISD_ESt4lessIS5_ESaISD_EE** %..inline.addr.2, align 8, !dbg !6389
	%13 = bitcast %struct._ZSt8_Rb_treeINSt7__cxx1112basic_stringIcSt11char_traitsIcESaIcEEESt4pairIKS5_PFPN16amr_ref_criteria4BaseEvEESt10_Select1stISD_ESt4lessIS5_ESaISD_EE*  %12 to i8*, !dbg !6389
	%14 = bitcast %struct._ZSt8_Rb_treeINSt7__cxx1112basic_stringIcSt11char_traitsIcESaIcEEESt4pairIKS5_PFPN16amr_ref_criteria4BaseEvEESt10_Select1stISD_ESt4lessIS5_ESaISD_EE** %..inline.addr.4 to i8**, !dbg !6389
	store i8*  %13, i8**  %14, align 8, !dbg !6389
	%15 = load %struct._ZSt8_Rb_treeINSt7__cxx1112basic_stringIcSt11char_traitsIcESaIcEEESt4pairIKS5_PFPN16amr_ref_criteria4BaseEvEESt10_Select1stISD_ESt4lessIS5_ESaISD_EE*, %struct._ZSt8_Rb_treeINSt7__cxx1112basic_stringIcSt11char_traitsIcESaIcEEESt4pairIKS5_PFPN16amr_ref_criteria4BaseEvEESt10_Select1stISD_ESt4lessIS5_ESaISD_EE** %..inline.addr.4, align 8, !dbg !6389
	%16 = bitcast %struct._ZSt8_Rb_treeINSt7__cxx1112basic_stringIcSt11char_traitsIcESaIcEEESt4pairIKS5_PFPN16amr_ref_criteria4BaseEvEESt10_Select1stISD_ESt4lessIS5_ESaISD_EE*  %15 to i8*, !dbg !6389
	%17 = bitcast %struct._ZSt8_Rb_treeINSt7__cxx1112basic_stringIcSt11char_traitsIcESaIcEEESt4pairIKS5_PFPN16amr_ref_criteria4BaseEvEESt10_Select1stISD_ESt4lessIS5_ESaISD_EE** %..inline.addr.5 to i8**, !dbg !6389
	store i8*  %16, i8**  %17, align 8, !dbg !6389
	%18 = load %struct._ZSt8_Rb_treeINSt7__cxx1112basic_stringIcSt11char_traitsIcESaIcEEESt4pairIKS5_PFPN16amr_ref_criteria4BaseEvEESt10_Select1stISD_ESt4lessIS5_ESaISD_EE*, %struct._ZSt8_Rb_treeINSt7__cxx1112basic_stringIcSt11char_traitsIcESaIcEEESt4pairIKS5_PFPN16amr_ref_criteria4BaseEvEESt10_Select1stISD_ESt4lessIS5_ESaISD_EE** %..inline.addr.5, align 8, !dbg !6389
	%19 = bitcast %struct._ZSt8_Rb_treeINSt7__cxx1112basic_stringIcSt11char_traitsIcESaIcEEESt4pairIKS5_PFPN16amr_ref_criteria4BaseEvEESt10_Select1stISD_ESt4lessIS5_ESaISD_EE*  %18 to i8*, !dbg !6389
	%20 = bitcast %struct._ZSaISt13_Rb_tree_nodeISt4pairIKNSt7__cxx1112basic_stringIcSt11char_traitsIcESaIcEEEPFPN16amr_ref_criteria4BaseEvEEEE** %..inline.addr.6 to i8**, !dbg !6389
	store i8*  %19, i8**  %20, align 8, !dbg !6389
	%21 = load %struct._ZSaISt13_Rb_tree_nodeISt4pairIKNSt7__cxx1112basic_stringIcSt11char_traitsIcESaIcEEEPFPN16amr_ref_criteria4BaseEvEEEE*, %struct._ZSaISt13_Rb_tree_nodeISt4pairIKNSt7__cxx1112basic_stringIcSt11char_traitsIcESaIcEEEPFPN16amr_ref_criteria4BaseEvEEEE** %..inline.addr.6, align 8, !dbg !6389
	%22 = bitcast %struct._ZSaISt13_Rb_tree_nodeISt4pairIKNSt7__cxx1112basic_stringIcSt11char_traitsIcESaIcEEEPFPN16amr_ref_criteria4BaseEvEEEE*  %21 to i8*, !dbg !6389
	%23 = bitcast %struct._ZSaISt13_Rb_tree_nodeISt4pairIKNSt7__cxx1112basic_stringIcSt11char_traitsIcESaIcEEEPFPN16amr_ref_criteria4BaseEvEEEE** %..inline.addr.7 to i8**, !dbg !6389
	store i8*  %22, i8**  %23, align 8, !dbg !6389
	store i64 1, i64* %..inline.addr.8, align 8, !dbg !6389
	%24 = load %struct._ZSaISt13_Rb_tree_nodeISt4pairIKNSt7__cxx1112basic_stringIcSt11char_traitsIcESaIcEEEPFPN16amr_ref_criteria4BaseEvEEEE*, %struct._ZSaISt13_Rb_tree_nodeISt4pairIKNSt7__cxx1112basic_stringIcSt11char_traitsIcESaIcEEEPFPN16amr_ref_criteria4BaseEvEEEE** %..inline.addr.7, align 8, !dbg !6389
	%25 = bitcast %struct._ZSaISt13_Rb_tree_nodeISt4pairIKNSt7__cxx1112basic_stringIcSt11char_traitsIcESaIcEEEPFPN16amr_ref_criteria4BaseEvEEEE*  %24 to i8*, !dbg !6389
	%26 = bitcast %struct._ZN9__gnu_cxx13new_allocatorISt13_Rb_tree_nodeISt4pairIKNSt7__cxx1112basic_stringIcSt11char_traitsIcESaIcEEEPFPN16amr_ref_criteria4BaseEvEEEEE** %..inline.addr.9 to i8**, !dbg !6389
	store i8*  %25, i8**  %26, align 8, !dbg !6389
	store i64 1, i64* %..inline.addr.150, align 8, !dbg !6389
	store i64 256204778801521550, i64* %..inline.addr.160, align 8, !dbg !6389
	%27 = icmp ule i64 1, 256204778801521550, !dbg !6389
	br i1  %27, label %L..inline.70307, label %L.B1314, !dbg !6389
L.B1314:
	call void  @_ZSt17__throw_bad_allocv () noreturn, !dbg !6389
	br label %L..inline.70307
L..inline.70307:
	br label %L..inline.70311, !dbg !6389
L..inline.70311:
	br label %L..inline.70313, !dbg !6389
L..inline.70313:
	%28 = load i64, i64* %..inline.addr.150, align 8, !dbg !6389
	%29 = mul i64  %28, 72, !dbg !6389
	%30 = call i8*  @_Znwm (i64  %29), !dbg !6389
	store i8*  %30, i8** %.Q0001.addr, align 8, !dbg !6389
	%31 = load i8*, i8** %.Q0001.addr, align 8, !dbg !6389
	%32 = bitcast %struct._ZSt13_Rb_tree_nodeISt4pairIKNSt7__cxx1112basic_stringIcSt11char_traitsIcESaIcEEEPFPN16amr_ref_criteria4BaseEvEEE** %..inline.addr.180 to i8**, !dbg !6389
	store i8*  %31, i8**  %32, align 8, !dbg !6389
	%33 = load %struct._ZSt4pairINSt7__cxx1112basic_stringIcSt11char_traitsIcESaIcEEEPFPN16amr_ref_criteria4BaseEvEE*, %struct._ZSt4pairINSt7__cxx1112basic_stringIcSt11char_traitsIcESaIcEEEPFPN16amr_ref_criteria4BaseEvEE** %..inline.addr.3, align 8, !dbg !6390
	%34 = bitcast %struct._ZSt4pairINSt7__cxx1112basic_stringIcSt11char_traitsIcESaIcEEEPFPN16amr_ref_criteria4BaseEvEE*  %33 to i8*, !dbg !6390
	%35 = bitcast %struct._ZSt4pairINSt7__cxx1112basic_stringIcSt11char_traitsIcESaIcEEEPFPN16amr_ref_criteria4BaseEvEE** %..inline.addr.190 to i8**, !dbg !6390
	store i8*  %34, i8**  %35, align 8, !dbg !6390
	%36 = load %struct._ZSt4pairINSt7__cxx1112basic_stringIcSt11char_traitsIcESaIcEEEPFPN16amr_ref_criteria4BaseEvEE*, %struct._ZSt4pairINSt7__cxx1112basic_stringIcSt11char_traitsIcESaIcEEEPFPN16amr_ref_criteria4BaseEvEE** %..inline.addr.190, align 8, !dbg !6390
	%37 = bitcast %struct._ZSt4pairINSt7__cxx1112basic_stringIcSt11char_traitsIcESaIcEEEPFPN16amr_ref_criteria4BaseEvEE*  %36 to i8*, !dbg !6390
	%38 = bitcast %struct._ZSt4pairINSt7__cxx1112basic_stringIcSt11char_traitsIcESaIcEEEPFPN16amr_ref_criteria4BaseEvEE** %..inline.addr.200 to i8**, !dbg !6390
	store i8*  %37, i8**  %38, align 8, !dbg !6390
	%39 = load %struct._ZSt8_Rb_treeINSt7__cxx1112basic_stringIcSt11char_traitsIcESaIcEEESt4pairIKS5_PFPN16amr_ref_criteria4BaseEvEESt10_Select1stISD_ESt4lessIS5_ESaISD_EE*, %struct._ZSt8_Rb_treeINSt7__cxx1112basic_stringIcSt11char_traitsIcESaIcEEESt4pairIKS5_PFPN16amr_ref_criteria4BaseEvEESt10_Select1stISD_ESt4lessIS5_ESaISD_EE** %..inline.addr.2, align 8, !dbg !6390
	%40 = load %struct._ZSt13_Rb_tree_nodeISt4pairIKNSt7__cxx1112basic_stringIcSt11char_traitsIcESaIcEEEPFPN16amr_ref_criteria4BaseEvEEE*, %struct._ZSt13_Rb_tree_nodeISt4pairIKNSt7__cxx1112basic_stringIcSt11char_traitsIcESaIcEEEPFPN16amr_ref_criteria4BaseEvEEE** %..inline.addr.180, align 8, !dbg !6390
	%41 = load %struct._ZSt4pairINSt7__cxx1112basic_stringIcSt11char_traitsIcESaIcEEEPFPN16amr_ref_criteria4BaseEvEE*, %struct._ZSt4pairINSt7__cxx1112basic_stringIcSt11char_traitsIcESaIcEEEPFPN16amr_ref_criteria4BaseEvEE** %..inline.addr.200, align 8, !dbg !6390
	call void  @_ZNSt8_Rb_treeINSt7__cxx1112basic_stringIcSt11char_traitsIcESaIcEEESt4pairIKS5_PFPN16amr_ref_criteria4BaseEvEESt10_Select1stISD_ESt4lessIS5_ESaISD_EE17_M_construct_nodeIJS6_IS5_SC_EEEEvPSt13_Rb_tree_nodeISD_EDpOT_ (%struct._ZSt8_Rb_treeINSt7__cxx1112basic_stringIcSt11char_traitsIcESaIcEEESt4pairIKS5_PFPN16amr_ref_criteria4BaseEvEESt10_Select1stISD_ESt4lessIS5_ESaISD_EE*  %39, %struct._ZSt13_Rb_tree_nodeISt4pairIKNSt7__cxx1112basic_stringIcSt11char_traitsIcESaIcEEEPFPN16amr_ref_criteria4BaseEvEEE*  %40, %struct._ZSt4pairINSt7__cxx1112basic_stringIcSt11char_traitsIcESaIcEEEPFPN16amr_ref_criteria4BaseEvEE*  %41), !dbg !6390
	%42 = load %struct._ZSt13_Rb_tree_nodeISt4pairIKNSt7__cxx1112basic_stringIcSt11char_traitsIcESaIcEEEPFPN16amr_ref_criteria4BaseEvEEE*, %struct._ZSt13_Rb_tree_nodeISt4pairIKNSt7__cxx1112basic_stringIcSt11char_traitsIcESaIcEEEPFPN16amr_ref_criteria4BaseEvEEE** %..inline.addr.180, align 8, !dbg !6391
	%43 = bitcast %struct._ZSt13_Rb_tree_nodeISt4pairIKNSt7__cxx1112basic_stringIcSt11char_traitsIcESaIcEEEPFPN16amr_ref_criteria4BaseEvEEE*  %42 to i8*, !dbg !6391
	call void @llvm.dbg.declare (metadata %struct._ZSt13_Rb_tree_nodeISt4pairIKNSt7__cxx1112basic_stringIcSt11char_traitsIcESaIcEEEPFPN16amr_ref_criteria4BaseEvEEE** %__z.addr, metadata !6392, metadata !3917), !dbg !6010
	%44 = bitcast %struct._ZSt13_Rb_tree_nodeISt4pairIKNSt7__cxx1112basic_stringIcSt11char_traitsIcESaIcEEEPFPN16amr_ref_criteria4BaseEvEEE** %__z.addr to i8**, !dbg !6391
	store i8*  %43, i8**  %44, align 8, !dbg !6391
	%45 = load %struct._ZSt13_Rb_tree_nodeISt4pairIKNSt7__cxx1112basic_stringIcSt11char_traitsIcESaIcEEEPFPN16amr_ref_criteria4BaseEvEEE*, %struct._ZSt13_Rb_tree_nodeISt4pairIKNSt7__cxx1112basic_stringIcSt11char_traitsIcESaIcEEEPFPN16amr_ref_criteria4BaseEvEEE** %__z.addr, align 8, !dbg !6393
	%46 = bitcast %struct._ZSt13_Rb_tree_nodeISt4pairIKNSt7__cxx1112basic_stringIcSt11char_traitsIcESaIcEEEPFPN16amr_ref_criteria4BaseEvEEE*  %45 to i8*, !dbg !6393
	%47 = bitcast %struct._ZSt13_Rb_tree_nodeISt4pairIKNSt7__cxx1112basic_stringIcSt11char_traitsIcESaIcEEEPFPN16amr_ref_criteria4BaseEvEEE** %..inline.addr.220 to i8**, !dbg !6393
	store i8*  %46, i8**  %47, align 8, !dbg !6393
	%48 = load %struct._ZSt13_Rb_tree_nodeISt4pairIKNSt7__cxx1112basic_stringIcSt11char_traitsIcESaIcEEEPFPN16amr_ref_criteria4BaseEvEEE*, %struct._ZSt13_Rb_tree_nodeISt4pairIKNSt7__cxx1112basic_stringIcSt11char_traitsIcESaIcEEEPFPN16amr_ref_criteria4BaseEvEEE** %..inline.addr.220, align 8, !dbg !6394
	%49 = bitcast %struct._ZSt13_Rb_tree_nodeISt4pairIKNSt7__cxx1112basic_stringIcSt11char_traitsIcESaIcEEEPFPN16amr_ref_criteria4BaseEvEEE*  %48 to i8*, !dbg !6394
	%50 = bitcast %struct._ZSt13_Rb_tree_nodeISt4pairIKNSt7__cxx1112basic_stringIcSt11char_traitsIcESaIcEEEPFPN16amr_ref_criteria4BaseEvEEE** %..inline.addr.230 to i8**, !dbg !6394
	store i8*  %49, i8**  %50, align 8, !dbg !6394
	%51 = load %struct._ZSt13_Rb_tree_nodeISt4pairIKNSt7__cxx1112basic_stringIcSt11char_traitsIcESaIcEEEPFPN16amr_ref_criteria4BaseEvEEE*, %struct._ZSt13_Rb_tree_nodeISt4pairIKNSt7__cxx1112basic_stringIcSt11char_traitsIcESaIcEEEPFPN16amr_ref_criteria4BaseEvEEE** %..inline.addr.230, align 8, !dbg !6394
	%52 = bitcast %struct._ZSt13_Rb_tree_nodeISt4pairIKNSt7__cxx1112basic_stringIcSt11char_traitsIcESaIcEEEPFPN16amr_ref_criteria4BaseEvEEE*  %51 to i8*, !dbg !6394
	%53 = getelementptr i8, i8*  %52, i64 32, !dbg !6394
	%54 = bitcast %struct._ZN9__gnu_cxx16__aligned_membufISt4pairIKNSt7__cxx1112basic_stringIcSt11char_traitsIcESaIcEEEPFPN16amr_ref_criteria4BaseEvEEEE** %..inline.addr.240 to i8**, !dbg !6394
	store i8*  %53, i8**  %54, align 8, !dbg !6394
	%55 = load %struct._ZN9__gnu_cxx16__aligned_membufISt4pairIKNSt7__cxx1112basic_stringIcSt11char_traitsIcESaIcEEEPFPN16amr_ref_criteria4BaseEvEEEE*, %struct._ZN9__gnu_cxx16__aligned_membufISt4pairIKNSt7__cxx1112basic_stringIcSt11char_traitsIcESaIcEEEPFPN16amr_ref_criteria4BaseEvEEEE** %..inline.addr.240, align 8, !dbg !6394
	%56 = bitcast %struct._ZN9__gnu_cxx16__aligned_membufISt4pairIKNSt7__cxx1112basic_stringIcSt11char_traitsIcESaIcEEEPFPN16amr_ref_criteria4BaseEvEEEE*  %55 to i8*, !dbg !6394
	%57 = bitcast %struct._ZN9__gnu_cxx16__aligned_membufISt4pairIKNSt7__cxx1112basic_stringIcSt11char_traitsIcESaIcEEEPFPN16amr_ref_criteria4BaseEvEEEE** %..inline.addr.250 to i8**, !dbg !6394
	store i8*  %56, i8**  %57, align 8, !dbg !6394
	%58 = load %struct._ZN9__gnu_cxx16__aligned_membufISt4pairIKNSt7__cxx1112basic_stringIcSt11char_traitsIcESaIcEEEPFPN16amr_ref_criteria4BaseEvEEEE*, %struct._ZN9__gnu_cxx16__aligned_membufISt4pairIKNSt7__cxx1112basic_stringIcSt11char_traitsIcESaIcEEEPFPN16amr_ref_criteria4BaseEvEEEE** %..inline.addr.250, align 8, !dbg !6394
	%59 = bitcast %struct._ZN9__gnu_cxx16__aligned_membufISt4pairIKNSt7__cxx1112basic_stringIcSt11char_traitsIcESaIcEEEPFPN16amr_ref_criteria4BaseEvEEEE*  %58 to i8*, !dbg !6394
	store i8*  %59, i8** %..inline.addr.260, align 8, !dbg !6394
	%60 = bitcast %struct._ZSt4pairIKNSt7__cxx1112basic_stringIcSt11char_traitsIcESaIcEEEPFPN16amr_ref_criteria4BaseEvEE** %..inline.addr.270 to i8**, !dbg !6394
	store i8*  %59, i8**  %60, align 8, !dbg !6394
	br label %L..inline.70349, !dbg !6394
L..inline.70349:
	%61 = load %struct._ZSt4pairIKNSt7__cxx1112basic_stringIcSt11char_traitsIcESaIcEEEPFPN16amr_ref_criteria4BaseEvEE*, %struct._ZSt4pairIKNSt7__cxx1112basic_stringIcSt11char_traitsIcESaIcEEEPFPN16amr_ref_criteria4BaseEvEE** %..inline.addr.270, align 8, !dbg !6394
	%62 = bitcast %struct._ZSt4pairIKNSt7__cxx1112basic_stringIcSt11char_traitsIcESaIcEEEPFPN16amr_ref_criteria4BaseEvEE*  %61 to i8*, !dbg !6394
	%63 = bitcast %struct._ZSt4pairIKNSt7__cxx1112basic_stringIcSt11char_traitsIcESaIcEEEPFPN16amr_ref_criteria4BaseEvEE** %..inline.addr.280 to i8**, !dbg !6394
	store i8*  %62, i8**  %63, align 8, !dbg !6394
	br label %L..inline.70359, !dbg !6394
L..inline.70359:
	%64 = load %struct._ZSt8_Rb_treeINSt7__cxx1112basic_stringIcSt11char_traitsIcESaIcEEESt4pairIKS5_PFPN16amr_ref_criteria4BaseEvEESt10_Select1stISD_ESt4lessIS5_ESaISD_EE*, %struct._ZSt8_Rb_treeINSt7__cxx1112basic_stringIcSt11char_traitsIcESaIcEEESt4pairIKS5_PFPN16amr_ref_criteria4BaseEvEESt10_Select1stISD_ESt4lessIS5_ESaISD_EE** %_T22232024_52724.addr, align 8, !dbg !6395
	%65 = bitcast %struct._ZSt8_Rb_treeINSt7__cxx1112basic_stringIcSt11char_traitsIcESaIcEEESt4pairIKS5_PFPN16amr_ref_criteria4BaseEvEESt10_Select1stISD_ESt4lessIS5_ESaISD_EE*  %64 to i8*, !dbg !6395
	%66 = bitcast %struct._ZSt8_Rb_treeINSt7__cxx1112basic_stringIcSt11char_traitsIcESaIcEEESt4pairIKS5_PFPN16amr_ref_criteria4BaseEvEESt10_Select1stISD_ESt4lessIS5_ESaISD_EE** %..inline.addr.290 to i8**, !dbg !6395
	store i8*  %65, i8**  %66, align 8, !dbg !6395
	%67 = load %struct._ZSt4pairIKNSt7__cxx1112basic_stringIcSt11char_traitsIcESaIcEEEPFPN16amr_ref_criteria4BaseEvEE*, %struct._ZSt4pairIKNSt7__cxx1112basic_stringIcSt11char_traitsIcESaIcEEEPFPN16amr_ref_criteria4BaseEvEE** %..inline.addr.280, align 8, !dbg !6393
	%68 = bitcast %struct._ZSt4pairIKNSt7__cxx1112basic_stringIcSt11char_traitsIcESaIcEEEPFPN16amr_ref_criteria4BaseEvEE*  %67 to i8*, !dbg !6393
	%69 = bitcast %struct._ZNSt7__cxx1112basic_stringIcSt11char_traitsIcESaIcEEE** %..inline.addr.300 to i8**, !dbg !6393
	store i8*  %68, i8**  %69, align 8, !dbg !6393
	%70 = load %struct._ZSt8_Rb_treeINSt7__cxx1112basic_stringIcSt11char_traitsIcESaIcEEESt4pairIKS5_PFPN16amr_ref_criteria4BaseEvEESt10_Select1stISD_ESt4lessIS5_ESaISD_EE*, %struct._ZSt8_Rb_treeINSt7__cxx1112basic_stringIcSt11char_traitsIcESaIcEEESt4pairIKS5_PFPN16amr_ref_criteria4BaseEvEESt10_Select1stISD_ESt4lessIS5_ESaISD_EE** %..inline.addr.290, align 8, !dbg !6396
	%71 = bitcast %struct._ZSt8_Rb_treeINSt7__cxx1112basic_stringIcSt11char_traitsIcESaIcEEESt4pairIKS5_PFPN16amr_ref_criteria4BaseEvEESt10_Select1stISD_ESt4lessIS5_ESaISD_EE*  %70 to i8*, !dbg !6396
	%72 = bitcast %struct._ZSt8_Rb_treeINSt7__cxx1112basic_stringIcSt11char_traitsIcESaIcEEESt4pairIKS5_PFPN16amr_ref_criteria4BaseEvEESt10_Select1stISD_ESt4lessIS5_ESaISD_EE** %..inline.addr.310 to i8**, !dbg !6396
	store i8*  %71, i8**  %72, align 8, !dbg !6396
	%73 = load %struct._ZSt8_Rb_treeINSt7__cxx1112basic_stringIcSt11char_traitsIcESaIcEEESt4pairIKS5_PFPN16amr_ref_criteria4BaseEvEESt10_Select1stISD_ESt4lessIS5_ESaISD_EE*, %struct._ZSt8_Rb_treeINSt7__cxx1112basic_stringIcSt11char_traitsIcESaIcEEESt4pairIKS5_PFPN16amr_ref_criteria4BaseEvEESt10_Select1stISD_ESt4lessIS5_ESaISD_EE** %..inline.addr.310, align 8, !dbg !6396
	%74 = bitcast %struct._ZSt8_Rb_treeINSt7__cxx1112basic_stringIcSt11char_traitsIcESaIcEEESt4pairIKS5_PFPN16amr_ref_criteria4BaseEvEESt10_Select1stISD_ESt4lessIS5_ESaISD_EE*  %73 to i8*, !dbg !6396
	%75 = getelementptr i8, i8*  %74, i64 16, !dbg !6396
	%76 = bitcast i8*  %75 to i8**, !dbg !6396
	%77 = load i8*, i8**  %76, align 8, !dbg !6396
	%78 = bitcast %struct._ZSt13_Rb_tree_nodeISt4pairIKNSt7__cxx1112basic_stringIcSt11char_traitsIcESaIcEEEPFPN16amr_ref_criteria4BaseEvEEE** %..inline.addr.320 to i8**, !dbg !6396
	store i8*  %77, i8**  %78, align 8, !dbg !6396
	%79 = load %struct._ZSt13_Rb_tree_nodeISt4pairIKNSt7__cxx1112basic_stringIcSt11char_traitsIcESaIcEEEPFPN16amr_ref_criteria4BaseEvEEE*, %struct._ZSt13_Rb_tree_nodeISt4pairIKNSt7__cxx1112basic_stringIcSt11char_traitsIcESaIcEEEPFPN16amr_ref_criteria4BaseEvEEE** %..inline.addr.320, align 8, !dbg !6396
	%80 = bitcast %struct._ZSt13_Rb_tree_nodeISt4pairIKNSt7__cxx1112basic_stringIcSt11char_traitsIcESaIcEEEPFPN16amr_ref_criteria4BaseEvEEE*  %79 to i8*, !dbg !6396
	%81 = bitcast %struct._ZSt13_Rb_tree_nodeISt4pairIKNSt7__cxx1112basic_stringIcSt11char_traitsIcESaIcEEEPFPN16amr_ref_criteria4BaseEvEEE** %..inline.addr.330 to i8**, !dbg !6396
	store i8*  %80, i8**  %81, align 8, !dbg !6396
	%82 = bitcast %struct._ZSt8_Rb_treeINSt7__cxx1112basic_stringIcSt11char_traitsIcESaIcEEESt4pairIKS5_PFPN16amr_ref_criteria4BaseEvEESt10_Select1stISD_ESt4lessIS5_ESaISD_EE** %..inline.addr.340 to i8**, !dbg !6397
	store i8*  %71, i8**  %82, align 8, !dbg !6397
	%83 = load %struct._ZSt8_Rb_treeINSt7__cxx1112basic_stringIcSt11char_traitsIcESaIcEEESt4pairIKS5_PFPN16amr_ref_criteria4BaseEvEESt10_Select1stISD_ESt4lessIS5_ESaISD_EE*, %struct._ZSt8_Rb_treeINSt7__cxx1112basic_stringIcSt11char_traitsIcESaIcEEESt4pairIKS5_PFPN16amr_ref_criteria4BaseEvEESt10_Select1stISD_ESt4lessIS5_ESaISD_EE** %..inline.addr.340, align 8, !dbg !6397
	%84 = bitcast %struct._ZSt8_Rb_treeINSt7__cxx1112basic_stringIcSt11char_traitsIcESaIcEEESt4pairIKS5_PFPN16amr_ref_criteria4BaseEvEESt10_Select1stISD_ESt4lessIS5_ESaISD_EE*  %83 to i8*, !dbg !6397
	%85 = getelementptr i8, i8*  %84, i64 8, !dbg !6397
	%86 = bitcast %struct._ZSt18_Rb_tree_node_base** %..inline.addr.350 to i8**, !dbg !6397
	store i8*  %85, i8**  %86, align 8, !dbg !6397
	store i8 1, i8* %..inline.addr.360, align 1, !dbg !6397
	br label %L..inline.70378
L..inline.70378:
	%87 = load %struct._ZSt13_Rb_tree_nodeISt4pairIKNSt7__cxx1112basic_stringIcSt11char_traitsIcESaIcEEEPFPN16amr_ref_criteria4BaseEvEEE*, %struct._ZSt13_Rb_tree_nodeISt4pairIKNSt7__cxx1112basic_stringIcSt11char_traitsIcESaIcEEEPFPN16amr_ref_criteria4BaseEvEEE** %..inline.addr.330, align 8, !dbg !6398
	%88 = bitcast %struct._ZSt13_Rb_tree_nodeISt4pairIKNSt7__cxx1112basic_stringIcSt11char_traitsIcESaIcEEEPFPN16amr_ref_criteria4BaseEvEEE*  %87 to i8*, !dbg !6398
	%89 = icmp eq i8*  %88,  null, !dbg !6398
	br i1  %89, label %L..inline.70379, label %L.B1315, !dbg !6398
L.B1315:
	%90 = load %struct._ZSt13_Rb_tree_nodeISt4pairIKNSt7__cxx1112basic_stringIcSt11char_traitsIcESaIcEEEPFPN16amr_ref_criteria4BaseEvEEE*, %struct._ZSt13_Rb_tree_nodeISt4pairIKNSt7__cxx1112basic_stringIcSt11char_traitsIcESaIcEEEPFPN16amr_ref_criteria4BaseEvEEE** %..inline.addr.330, align 8, !dbg !6398
	%91 = bitcast %struct._ZSt13_Rb_tree_nodeISt4pairIKNSt7__cxx1112basic_stringIcSt11char_traitsIcESaIcEEEPFPN16amr_ref_criteria4BaseEvEEE*  %90 to i8*, !dbg !6398
	%92 = bitcast %struct._ZSt18_Rb_tree_node_base** %..inline.addr.350 to i8**, !dbg !6398
	store i8*  %91, i8**  %92, align 8, !dbg !6398
	%93 = bitcast %struct._ZSt13_Rb_tree_nodeISt4pairIKNSt7__cxx1112basic_stringIcSt11char_traitsIcESaIcEEEPFPN16amr_ref_criteria4BaseEvEEE** %..inline.addr.370 to i8**, !dbg !6399
	store i8*  %91, i8**  %93, align 8, !dbg !6399
	%94 = load %struct._ZSt13_Rb_tree_nodeISt4pairIKNSt7__cxx1112basic_stringIcSt11char_traitsIcESaIcEEEPFPN16amr_ref_criteria4BaseEvEEE*, %struct._ZSt13_Rb_tree_nodeISt4pairIKNSt7__cxx1112basic_stringIcSt11char_traitsIcESaIcEEEPFPN16amr_ref_criteria4BaseEvEEE** %..inline.addr.370, align 8, !dbg !6399
	%95 = bitcast %struct._ZSt13_Rb_tree_nodeISt4pairIKNSt7__cxx1112basic_stringIcSt11char_traitsIcESaIcEEEPFPN16amr_ref_criteria4BaseEvEEE*  %94 to i8*, !dbg !6399
	%96 = bitcast %struct._ZSt13_Rb_tree_nodeISt4pairIKNSt7__cxx1112basic_stringIcSt11char_traitsIcESaIcEEEPFPN16amr_ref_criteria4BaseEvEEE** %..inline.addr.380 to i8**, !dbg !6399
	store i8*  %95, i8**  %96, align 8, !dbg !6399
	%97 = load %struct._ZSt13_Rb_tree_nodeISt4pairIKNSt7__cxx1112basic_stringIcSt11char_traitsIcESaIcEEEPFPN16amr_ref_criteria4BaseEvEEE*, %struct._ZSt13_Rb_tree_nodeISt4pairIKNSt7__cxx1112basic_stringIcSt11char_traitsIcESaIcEEEPFPN16amr_ref_criteria4BaseEvEEE** %..inline.addr.380, align 8, !dbg !6399
	%98 = bitcast %struct._ZSt13_Rb_tree_nodeISt4pairIKNSt7__cxx1112basic_stringIcSt11char_traitsIcESaIcEEEPFPN16amr_ref_criteria4BaseEvEEE*  %97 to i8*, !dbg !6399
	%99 = getelementptr i8, i8*  %98, i64 32, !dbg !6399
	%100 = bitcast %struct._ZN9__gnu_cxx16__aligned_membufISt4pairIKNSt7__cxx1112basic_stringIcSt11char_traitsIcESaIcEEEPFPN16amr_ref_criteria4BaseEvEEEE** %..inline.addr.390 to i8**, !dbg !6399
	store i8*  %99, i8**  %100, align 8, !dbg !6399
	%101 = load %struct._ZN9__gnu_cxx16__aligned_membufISt4pairIKNSt7__cxx1112basic_stringIcSt11char_traitsIcESaIcEEEPFPN16amr_ref_criteria4BaseEvEEEE*, %struct._ZN9__gnu_cxx16__aligned_membufISt4pairIKNSt7__cxx1112basic_stringIcSt11char_traitsIcESaIcEEEPFPN16amr_ref_criteria4BaseEvEEEE** %..inline.addr.390, align 8, !dbg !6399
	%102 = bitcast %struct._ZN9__gnu_cxx16__aligned_membufISt4pairIKNSt7__cxx1112basic_stringIcSt11char_traitsIcESaIcEEEPFPN16amr_ref_criteria4BaseEvEEEE*  %101 to i8*, !dbg !6399
	%103 = bitcast %struct._ZN9__gnu_cxx16__aligned_membufISt4pairIKNSt7__cxx1112basic_stringIcSt11char_traitsIcESaIcEEEPFPN16amr_ref_criteria4BaseEvEEEE** %..inline.addr.400 to i8**, !dbg !6399
	store i8*  %102, i8**  %103, align 8, !dbg !6399
	%104 = load %struct._ZN9__gnu_cxx16__aligned_membufISt4pairIKNSt7__cxx1112basic_stringIcSt11char_traitsIcESaIcEEEPFPN16amr_ref_criteria4BaseEvEEEE*, %struct._ZN9__gnu_cxx16__aligned_membufISt4pairIKNSt7__cxx1112basic_stringIcSt11char_traitsIcESaIcEEEPFPN16amr_ref_criteria4BaseEvEEEE** %..inline.addr.400, align 8, !dbg !6399
	%105 = bitcast %struct._ZN9__gnu_cxx16__aligned_membufISt4pairIKNSt7__cxx1112basic_stringIcSt11char_traitsIcESaIcEEEPFPN16amr_ref_criteria4BaseEvEEEE*  %104 to i8*, !dbg !6399
	store i8*  %105, i8** %..inline.addr.410, align 8, !dbg !6399
	%106 = bitcast %struct._ZSt4pairIKNSt7__cxx1112basic_stringIcSt11char_traitsIcESaIcEEEPFPN16amr_ref_criteria4BaseEvEE** %..inline.addr.420 to i8**, !dbg !6399
	store i8*  %105, i8**  %106, align 8, !dbg !6399
	br label %L..inline.70405, !dbg !6399
L..inline.70405:
	%107 = load %struct._ZSt4pairIKNSt7__cxx1112basic_stringIcSt11char_traitsIcESaIcEEEPFPN16amr_ref_criteria4BaseEvEE*, %struct._ZSt4pairIKNSt7__cxx1112basic_stringIcSt11char_traitsIcESaIcEEEPFPN16amr_ref_criteria4BaseEvEE** %..inline.addr.420, align 8, !dbg !6399
	%108 = bitcast %struct._ZSt4pairIKNSt7__cxx1112basic_stringIcSt11char_traitsIcESaIcEEEPFPN16amr_ref_criteria4BaseEvEE*  %107 to i8*, !dbg !6399
	%109 = bitcast %struct._ZSt4pairIKNSt7__cxx1112basic_stringIcSt11char_traitsIcESaIcEEEPFPN16amr_ref_criteria4BaseEvEE** %..inline.addr.430 to i8**, !dbg !6399
	store i8*  %108, i8**  %109, align 8, !dbg !6399
	br label %L..inline.70414, !dbg !6399
L..inline.70414:
	%110 = load %struct._ZNSt7__cxx1112basic_stringIcSt11char_traitsIcESaIcEEE*, %struct._ZNSt7__cxx1112basic_stringIcSt11char_traitsIcESaIcEEE** %..inline.addr.300, align 8, !dbg !6399
	%111 = bitcast %struct._ZNSt7__cxx1112basic_stringIcSt11char_traitsIcESaIcEEE*  %110 to i8*, !dbg !6399
	%112 = bitcast %struct._ZNSt7__cxx1112basic_stringIcSt11char_traitsIcESaIcEEE** %..inline.addr.440 to i8**, !dbg !6399
	store i8*  %111, i8**  %112, align 8, !dbg !6399
	%113 = load %struct._ZSt4pairIKNSt7__cxx1112basic_stringIcSt11char_traitsIcESaIcEEEPFPN16amr_ref_criteria4BaseEvEE*, %struct._ZSt4pairIKNSt7__cxx1112basic_stringIcSt11char_traitsIcESaIcEEEPFPN16amr_ref_criteria4BaseEvEE** %..inline.addr.430, align 8, !dbg !6399
	%114 = bitcast %struct._ZSt4pairIKNSt7__cxx1112basic_stringIcSt11char_traitsIcESaIcEEEPFPN16amr_ref_criteria4BaseEvEE*  %113 to i8*, !dbg !6399
	%115 = bitcast %struct._ZNSt7__cxx1112basic_stringIcSt11char_traitsIcESaIcEEE** %..inline.addr.450 to i8**, !dbg !6399
	store i8*  %114, i8**  %115, align 8, !dbg !6399
	%116 = load %struct._ZNSt7__cxx1112basic_stringIcSt11char_traitsIcESaIcEEE*, %struct._ZNSt7__cxx1112basic_stringIcSt11char_traitsIcESaIcEEE** %..inline.addr.440, align 8, !dbg !6399
	%117 = load %struct._ZNSt7__cxx1112basic_stringIcSt11char_traitsIcESaIcEEE*, %struct._ZNSt7__cxx1112basic_stringIcSt11char_traitsIcESaIcEEE** %..inline.addr.450, align 8, !dbg !6399
	%118 = call i8  @_ZStltIcSt11char_traitsIcESaIcEEbRKNSt7__cxx1112basic_stringIT_T0_T1_EESA_ (%struct._ZNSt7__cxx1112basic_stringIcSt11char_traitsIcESaIcEEE*  %116, %struct._ZNSt7__cxx1112basic_stringIcSt11char_traitsIcESaIcEEE*  %117) nounwind, !dbg !6399
	store i8  %118, i8* %..inline.addr.460, align 1, !dbg !6399
	store i8  %118, i8* %..inline.addr.360, align 1, !dbg !6399
	%119 = sext i8  %118 to i32, !dbg !6399
	%120 = icmp eq i32  %119, 0, !dbg !6399
	br i1  %120, label %L..inline.70423, label %L.B1316, !dbg !6399
L.B1316:
	%121 = load %struct._ZSt13_Rb_tree_nodeISt4pairIKNSt7__cxx1112basic_stringIcSt11char_traitsIcESaIcEEEPFPN16amr_ref_criteria4BaseEvEEE*, %struct._ZSt13_Rb_tree_nodeISt4pairIKNSt7__cxx1112basic_stringIcSt11char_traitsIcESaIcEEEPFPN16amr_ref_criteria4BaseEvEEE** %..inline.addr.330, align 8, !dbg !6400
	%122 = bitcast %struct._ZSt13_Rb_tree_nodeISt4pairIKNSt7__cxx1112basic_stringIcSt11char_traitsIcESaIcEEEPFPN16amr_ref_criteria4BaseEvEEE*  %121 to i8*, !dbg !6400
	%123 = bitcast %struct._ZSt18_Rb_tree_node_base** %..inline.addr.470 to i8**, !dbg !6400
	store i8*  %122, i8**  %123, align 8, !dbg !6400
	%124 = load %struct._ZSt18_Rb_tree_node_base*, %struct._ZSt18_Rb_tree_node_base** %..inline.addr.470, align 8, !dbg !6400
	%125 = bitcast %struct._ZSt18_Rb_tree_node_base*  %124 to i8*, !dbg !6400
	%126 = getelementptr i8, i8*  %125, i64 16, !dbg !6400
	%127 = bitcast i8*  %126 to i8**, !dbg !6400
	%128 = load i8*, i8**  %127, align 8, !dbg !6400
	%129 = bitcast %struct._ZSt13_Rb_tree_nodeISt4pairIKNSt7__cxx1112basic_stringIcSt11char_traitsIcESaIcEEEPFPN16amr_ref_criteria4BaseEvEEE** %..inline.addr.480 to i8**, !dbg !6400
	store i8*  %128, i8**  %129, align 8, !dbg !6400
	%130 = load %struct._ZSt13_Rb_tree_nodeISt4pairIKNSt7__cxx1112basic_stringIcSt11char_traitsIcESaIcEEEPFPN16amr_ref_criteria4BaseEvEEE*, %struct._ZSt13_Rb_tree_nodeISt4pairIKNSt7__cxx1112basic_stringIcSt11char_traitsIcESaIcEEEPFPN16amr_ref_criteria4BaseEvEEE** %..inline.addr.480, align 8, !dbg !6400
	%131 = bitcast %struct._ZSt13_Rb_tree_nodeISt4pairIKNSt7__cxx1112basic_stringIcSt11char_traitsIcESaIcEEEPFPN16amr_ref_criteria4BaseEvEEE*  %130 to i8*, !dbg !6400
	%132 = bitcast %struct._ZSt13_Rb_tree_nodeISt4pairIKNSt7__cxx1112basic_stringIcSt11char_traitsIcESaIcEEEPFPN16amr_ref_criteria4BaseEvEEE** %..inline.addr.490 to i8**, !dbg !6400
	store i8*  %131, i8**  %132, align 8, !dbg !6400
	br label %L..inline.70432, !dbg !6400
L..inline.70423:
	%133 = load %struct._ZSt13_Rb_tree_nodeISt4pairIKNSt7__cxx1112basic_stringIcSt11char_traitsIcESaIcEEEPFPN16amr_ref_criteria4BaseEvEEE*, %struct._ZSt13_Rb_tree_nodeISt4pairIKNSt7__cxx1112basic_stringIcSt11char_traitsIcESaIcEEEPFPN16amr_ref_criteria4BaseEvEEE** %..inline.addr.330, align 8, !dbg !6400
	%134 = bitcast %struct._ZSt13_Rb_tree_nodeISt4pairIKNSt7__cxx1112basic_stringIcSt11char_traitsIcESaIcEEEPFPN16amr_ref_criteria4BaseEvEEE*  %133 to i8*, !dbg !6400
	%135 = bitcast %struct._ZSt18_Rb_tree_node_base** %..inline.addr.500 to i8**, !dbg !6400
	store i8*  %134, i8**  %135, align 8, !dbg !6400
	%136 = load %struct._ZSt18_Rb_tree_node_base*, %struct._ZSt18_Rb_tree_node_base** %..inline.addr.500, align 8, !dbg !6400
	%137 = bitcast %struct._ZSt18_Rb_tree_node_base*  %136 to i8*, !dbg !6400
	%138 = getelementptr i8, i8*  %137, i64 24, !dbg !6400
	%139 = bitcast i8*  %138 to i8**, !dbg !6400
	%140 = load i8*, i8**  %139, align 8, !dbg !6400
	%141 = bitcast %struct._ZSt13_Rb_tree_nodeISt4pairIKNSt7__cxx1112basic_stringIcSt11char_traitsIcESaIcEEEPFPN16amr_ref_criteria4BaseEvEEE** %..inline.addr.510 to i8**, !dbg !6400
	store i8*  %140, i8**  %141, align 8, !dbg !6400
	%142 = load %struct._ZSt13_Rb_tree_nodeISt4pairIKNSt7__cxx1112basic_stringIcSt11char_traitsIcESaIcEEEPFPN16amr_ref_criteria4BaseEvEEE*, %struct._ZSt13_Rb_tree_nodeISt4pairIKNSt7__cxx1112basic_stringIcSt11char_traitsIcESaIcEEEPFPN16amr_ref_criteria4BaseEvEEE** %..inline.addr.510, align 8, !dbg !6400
	%143 = bitcast %struct._ZSt13_Rb_tree_nodeISt4pairIKNSt7__cxx1112basic_stringIcSt11char_traitsIcESaIcEEEPFPN16amr_ref_criteria4BaseEvEEE*  %142 to i8*, !dbg !6400
	%144 = bitcast %struct._ZSt13_Rb_tree_nodeISt4pairIKNSt7__cxx1112basic_stringIcSt11char_traitsIcESaIcEEEPFPN16amr_ref_criteria4BaseEvEEE** %..inline.addr.490 to i8**, !dbg !6400
	store i8*  %143, i8**  %144, align 8, !dbg !6400
	br label %L..inline.70432
L..inline.70432:
	%145 = load %struct._ZSt13_Rb_tree_nodeISt4pairIKNSt7__cxx1112basic_stringIcSt11char_traitsIcESaIcEEEPFPN16amr_ref_criteria4BaseEvEEE*, %struct._ZSt13_Rb_tree_nodeISt4pairIKNSt7__cxx1112basic_stringIcSt11char_traitsIcESaIcEEEPFPN16amr_ref_criteria4BaseEvEEE** %..inline.addr.490, align 8, !dbg !6400
	%146 = bitcast %struct._ZSt13_Rb_tree_nodeISt4pairIKNSt7__cxx1112basic_stringIcSt11char_traitsIcESaIcEEEPFPN16amr_ref_criteria4BaseEvEEE*  %145 to i8*, !dbg !6400
	%147 = bitcast %struct._ZSt13_Rb_tree_nodeISt4pairIKNSt7__cxx1112basic_stringIcSt11char_traitsIcESaIcEEEPFPN16amr_ref_criteria4BaseEvEEE** %..inline.addr.330 to i8**, !dbg !6400
	store i8*  %146, i8**  %147, align 8, !dbg !6400
	br label %L..inline.70378, !dbg !6400
L..inline.70379:
	%148 = load %struct._ZSt18_Rb_tree_node_base*, %struct._ZSt18_Rb_tree_node_base** %..inline.addr.350, align 8, !dbg !6401
	%149 = bitcast %struct._ZSt18_Rb_tree_node_base*  %148 to i8*, !dbg !6401
	%150 = bitcast %struct._ZSt18_Rb_tree_node_base** %..inline.addr.520 to i8**, !dbg !6401
	store i8*  %149, i8**  %150, align 8, !dbg !6401
	%151 = load %struct._ZSt18_Rb_tree_node_base*, %struct._ZSt18_Rb_tree_node_base** %..inline.addr.520, align 8, !dbg !6401
	%152 = bitcast %struct._ZSt18_Rb_tree_node_base*  %151 to i8*, !dbg !6401
	%153 = bitcast %struct._ZSt17_Rb_tree_iteratorISt4pairIKNSt7__cxx1112basic_stringIcSt11char_traitsIcESaIcEEEPFPN16amr_ref_criteria4BaseEvEEE* %..inline.addr.530 to i8**, !dbg !6401
	store i8*  %152, i8**  %153, align 8, !dbg !6401
	%154 = load i8, i8* %..inline.addr.360, align 1, !dbg !6401
	%155 = sext i8  %154 to i32, !dbg !6401
	%156 = icmp eq i32  %155, 0, !dbg !6401
	br i1  %156, label %L..inline.70447, label %L.B1317, !dbg !6401
L.B1317:
	%157 = load %struct._ZSt8_Rb_treeINSt7__cxx1112basic_stringIcSt11char_traitsIcESaIcEEESt4pairIKS5_PFPN16amr_ref_criteria4BaseEvEESt10_Select1stISD_ESt4lessIS5_ESaISD_EE*, %struct._ZSt8_Rb_treeINSt7__cxx1112basic_stringIcSt11char_traitsIcESaIcEEESt4pairIKS5_PFPN16amr_ref_criteria4BaseEvEESt10_Select1stISD_ESt4lessIS5_ESaISD_EE** %..inline.addr.290, align 8, !dbg !6402
	%158 = bitcast %struct._ZSt8_Rb_treeINSt7__cxx1112basic_stringIcSt11char_traitsIcESaIcEEESt4pairIKS5_PFPN16amr_ref_criteria4BaseEvEESt10_Select1stISD_ESt4lessIS5_ESaISD_EE*  %157 to i8*, !dbg !6402
	%159 = bitcast %struct._ZSt8_Rb_treeINSt7__cxx1112basic_stringIcSt11char_traitsIcESaIcEEESt4pairIKS5_PFPN16amr_ref_criteria4BaseEvEESt10_Select1stISD_ESt4lessIS5_ESaISD_EE** %..inline.addr.540 to i8**, !dbg !6402
	store i8*  %158, i8**  %159, align 8, !dbg !6402
	%160 = load %struct._ZSt8_Rb_treeINSt7__cxx1112basic_stringIcSt11char_traitsIcESaIcEEESt4pairIKS5_PFPN16amr_ref_criteria4BaseEvEESt10_Select1stISD_ESt4lessIS5_ESaISD_EE*, %struct._ZSt8_Rb_treeINSt7__cxx1112basic_stringIcSt11char_traitsIcESaIcEEESt4pairIKS5_PFPN16amr_ref_criteria4BaseEvEESt10_Select1stISD_ESt4lessIS5_ESaISD_EE** %..inline.addr.540, align 8, !dbg !6402
	%161 = bitcast %struct._ZSt8_Rb_treeINSt7__cxx1112basic_stringIcSt11char_traitsIcESaIcEEESt4pairIKS5_PFPN16amr_ref_criteria4BaseEvEESt10_Select1stISD_ESt4lessIS5_ESaISD_EE*  %160 to i8*, !dbg !6402
	%162 = getelementptr i8, i8*  %161, i64 24, !dbg !6402
	%163 = bitcast i8*  %162 to i8**, !dbg !6402
	%164 = load i8*, i8**  %163, align 8, !dbg !6402
	%165 = bitcast %struct._ZSt18_Rb_tree_node_base** %..inline.addr.550 to i8**, !dbg !6402
	store i8*  %164, i8**  %165, align 8, !dbg !6402
	%166 = load %struct._ZSt18_Rb_tree_node_base*, %struct._ZSt18_Rb_tree_node_base** %..inline.addr.550, align 8, !dbg !6402
	%167 = bitcast %struct._ZSt18_Rb_tree_node_base*  %166 to i8*, !dbg !6402
	%168 = bitcast %struct._ZSt17_Rb_tree_iteratorISt4pairIKNSt7__cxx1112basic_stringIcSt11char_traitsIcESaIcEEEPFPN16amr_ref_criteria4BaseEvEEE* %..inline.addr.560 to i8**, !dbg !6402
	store i8*  %167, i8**  %168, align 8, !dbg !6402
	%169 = bitcast %struct._ZSt17_Rb_tree_iteratorISt4pairIKNSt7__cxx1112basic_stringIcSt11char_traitsIcESaIcEEEPFPN16amr_ref_criteria4BaseEvEEE* %..inline.addr.570 to i8**, !dbg !6402
	store i8*  %167, i8**  %169, align 8, !dbg !6402
	%170 = bitcast %struct._ZSt17_Rb_tree_iteratorISt4pairIKNSt7__cxx1112basic_stringIcSt11char_traitsIcESaIcEEEPFPN16amr_ref_criteria4BaseEvEEE* %..inline.addr.580 to i8**, !dbg !6402
	store i8*  %167, i8**  %170, align 8, !dbg !6402
	%171 = bitcast %struct._ZSt17_Rb_tree_iteratorISt4pairIKNSt7__cxx1112basic_stringIcSt11char_traitsIcESaIcEEEPFPN16amr_ref_criteria4BaseEvEEE* %..inline.addr.530 to i8**, !dbg !6402
	%172 = load i8*, i8**  %171, align 8, !dbg !6402
	%173 = icmp eq i8*  %172,  %167, !dbg !6402
	%174 = zext i1  %173 to i32, !dbg !6402
	%175 = trunc i32  %174 to i8, !dbg !6402
	store i8  %175, i8* %..inline.addr.590, align 1, !dbg !6402
	store i8  %175, i8* %..inline.addr.600, align 1, !dbg !6402
	%176 = sext i8  %175 to i32, !dbg !6402
	%177 = icmp eq i32  %176, 0, !dbg !6402
	br i1  %177, label %L..inline.70473, label %L.B1318, !dbg !6402
L.B1318:
	%178 = bitcast %struct._ZSt13_Rb_tree_nodeISt4pairIKNSt7__cxx1112basic_stringIcSt11char_traitsIcESaIcEEEPFPN16amr_ref_criteria4BaseEvEEE** %..inline.addr.330 to i8*, !dbg !6403
	%179 = bitcast %struct._ZSt13_Rb_tree_nodeISt4pairIKNSt7__cxx1112basic_stringIcSt11char_traitsIcESaIcEEEPFPN16amr_ref_criteria4BaseEvEEE*** %..inline.addr.610 to i8**, !dbg !6403
	store i8*  %178, i8**  %179, align 8, !dbg !6403
	%180 = load %struct._ZSt13_Rb_tree_nodeISt4pairIKNSt7__cxx1112basic_stringIcSt11char_traitsIcESaIcEEEPFPN16amr_ref_criteria4BaseEvEEE**, %struct._ZSt13_Rb_tree_nodeISt4pairIKNSt7__cxx1112basic_stringIcSt11char_traitsIcESaIcEEEPFPN16amr_ref_criteria4BaseEvEEE*** %..inline.addr.610, align 8, !dbg !6403
	%181 = bitcast %struct._ZSt13_Rb_tree_nodeISt4pairIKNSt7__cxx1112basic_stringIcSt11char_traitsIcESaIcEEEPFPN16amr_ref_criteria4BaseEvEEE**  %180 to i8*, !dbg !6403
	%182 = bitcast %struct._ZSt13_Rb_tree_nodeISt4pairIKNSt7__cxx1112basic_stringIcSt11char_traitsIcESaIcEEEPFPN16amr_ref_criteria4BaseEvEEE*** %..inline.addr.620 to i8**, !dbg !6403
	store i8*  %181, i8**  %182, align 8, !dbg !6403
	%183 = load %struct._ZSt13_Rb_tree_nodeISt4pairIKNSt7__cxx1112basic_stringIcSt11char_traitsIcESaIcEEEPFPN16amr_ref_criteria4BaseEvEEE**, %struct._ZSt13_Rb_tree_nodeISt4pairIKNSt7__cxx1112basic_stringIcSt11char_traitsIcESaIcEEEPFPN16amr_ref_criteria4BaseEvEEE*** %..inline.addr.620, align 8, !dbg !6403
	%184 = bitcast %struct._ZSt13_Rb_tree_nodeISt4pairIKNSt7__cxx1112basic_stringIcSt11char_traitsIcESaIcEEEPFPN16amr_ref_criteria4BaseEvEEE**  %183 to i8**, !dbg !6403
	%185 = load i8*, i8**  %184, align 8, !dbg !6403
	%186 = bitcast %struct._ZSt4pairIPSt18_Rb_tree_node_baseS1_E* %..inline.addr.630 to i8**, !dbg !6403
	store i8*  %185, i8**  %186, align 8, !dbg !6403
	%187 = bitcast %struct._ZSt18_Rb_tree_node_base** %..inline.addr.350 to i8*, !dbg !6403
	%188 = bitcast %struct._ZSt18_Rb_tree_node_base*** %..inline.addr.640 to i8**, !dbg !6403
	store i8*  %187, i8**  %188, align 8, !dbg !6403
	%189 = load %struct._ZSt18_Rb_tree_node_base**, %struct._ZSt18_Rb_tree_node_base*** %..inline.addr.640, align 8, !dbg !6403
	%190 = bitcast %struct._ZSt18_Rb_tree_node_base**  %189 to i8*, !dbg !6403
	%191 = bitcast %struct._ZSt18_Rb_tree_node_base*** %..inline.addr.650 to i8**, !dbg !6403
	store i8*  %190, i8**  %191, align 8, !dbg !6403
	%192 = load %struct._ZSt18_Rb_tree_node_base**, %struct._ZSt18_Rb_tree_node_base*** %..inline.addr.650, align 8, !dbg !6403
	%193 = bitcast %struct._ZSt18_Rb_tree_node_base**  %192 to i8**, !dbg !6403
	%194 = load i8*, i8**  %193, align 8, !dbg !6403
	%195 = bitcast %struct._ZSt4pairIPSt18_Rb_tree_node_baseS1_E* %..inline.addr.630 to i8*, !dbg !6403
	%196 = getelementptr i8, i8*  %195, i64 8, !dbg !6403
	%197 = bitcast i8*  %196 to i8**, !dbg !6403
	store i8*  %194, i8**  %197, align 8, !dbg !6403
	%198 = bitcast %struct._ZSt4pairIPSt18_Rb_tree_node_baseS1_E* %..inline.addr.660 to i8**, !dbg !6403
	store i8*  %185, i8**  %198, align 8, !dbg !6403
	%199 = bitcast %struct._ZSt4pairIPSt18_Rb_tree_node_baseS1_E* %..inline.addr.660 to i8*, !dbg !6403
	%200 = getelementptr i8, i8*  %199, i64 8, !dbg !6403
	%201 = bitcast i8*  %200 to i8**, !dbg !6403
	store i8*  %194, i8**  %201, align 8, !dbg !6403
	br label %L..inline.70598, !dbg !6403
L.B1319:
	br label %L..inline.70500, !dbg !6403
L..inline.70473:
	%202 = bitcast %struct._ZSt17_Rb_tree_iteratorISt4pairIKNSt7__cxx1112basic_stringIcSt11char_traitsIcESaIcEEEPFPN16amr_ref_criteria4BaseEvEEE* %..inline.addr.530 to i8**, !dbg !6404
	%203 = load i8*, i8**  %202, align 8, !dbg !6404
	%204 = bitcast i8*  %203 to %struct._ZSt18_Rb_tree_node_base*, !dbg !6404
	%205 = call %struct._ZSt18_Rb_tree_node_base*  @_ZSt18_Rb_tree_decrementPSt18_Rb_tree_node_base (%struct._ZSt18_Rb_tree_node_base*  %204) nounwind, !dbg !6404
	%206 = bitcast %struct._ZSt18_Rb_tree_node_base*  %205 to i8*, !dbg !6404
	store i8*  %206, i8**  %202, align 8, !dbg !6404
	br label %L..inline.70500
L..inline.70500:
	br label %L..inline.70447
L..inline.70447:
	%207 = bitcast %struct._ZSt17_Rb_tree_iteratorISt4pairIKNSt7__cxx1112basic_stringIcSt11char_traitsIcESaIcEEEPFPN16amr_ref_criteria4BaseEvEEE* %..inline.addr.530 to i8**, !dbg !6405
	%208 = load i8*, i8**  %207, align 8, !dbg !6405
	%209 = bitcast %struct._ZSt18_Rb_tree_node_base** %..inline.addr.670 to i8**, !dbg !6405
	store i8*  %208, i8**  %209, align 8, !dbg !6405
	%210 = load %struct._ZSt18_Rb_tree_node_base*, %struct._ZSt18_Rb_tree_node_base** %..inline.addr.670, align 8, !dbg !6405
	%211 = bitcast %struct._ZSt18_Rb_tree_node_base*  %210 to i8*, !dbg !6405
	%212 = bitcast %struct._ZSt13_Rb_tree_nodeISt4pairIKNSt7__cxx1112basic_stringIcSt11char_traitsIcESaIcEEEPFPN16amr_ref_criteria4BaseEvEEE** %..inline.addr.680 to i8**, !dbg !6405
	store i8*  %211, i8**  %212, align 8, !dbg !6405
	%213 = load %struct._ZSt13_Rb_tree_nodeISt4pairIKNSt7__cxx1112basic_stringIcSt11char_traitsIcESaIcEEEPFPN16amr_ref_criteria4BaseEvEEE*, %struct._ZSt13_Rb_tree_nodeISt4pairIKNSt7__cxx1112basic_stringIcSt11char_traitsIcESaIcEEEPFPN16amr_ref_criteria4BaseEvEEE** %..inline.addr.680, align 8, !dbg !6405
	%214 = bitcast %struct._ZSt13_Rb_tree_nodeISt4pairIKNSt7__cxx1112basic_stringIcSt11char_traitsIcESaIcEEEPFPN16amr_ref_criteria4BaseEvEEE*  %213 to i8*, !dbg !6405
	%215 = bitcast %struct._ZSt13_Rb_tree_nodeISt4pairIKNSt7__cxx1112basic_stringIcSt11char_traitsIcESaIcEEEPFPN16amr_ref_criteria4BaseEvEEE** %..inline.addr.690 to i8**, !dbg !6405
	store i8*  %214, i8**  %215, align 8, !dbg !6405
	%216 = load %struct._ZSt13_Rb_tree_nodeISt4pairIKNSt7__cxx1112basic_stringIcSt11char_traitsIcESaIcEEEPFPN16amr_ref_criteria4BaseEvEEE*, %struct._ZSt13_Rb_tree_nodeISt4pairIKNSt7__cxx1112basic_stringIcSt11char_traitsIcESaIcEEEPFPN16amr_ref_criteria4BaseEvEEE** %..inline.addr.690, align 8, !dbg !6405
	%217 = bitcast %struct._ZSt13_Rb_tree_nodeISt4pairIKNSt7__cxx1112basic_stringIcSt11char_traitsIcESaIcEEEPFPN16amr_ref_criteria4BaseEvEEE*  %216 to i8*, !dbg !6405
	%218 = getelementptr i8, i8*  %217, i64 32, !dbg !6405
	%219 = bitcast %struct._ZN9__gnu_cxx16__aligned_membufISt4pairIKNSt7__cxx1112basic_stringIcSt11char_traitsIcESaIcEEEPFPN16amr_ref_criteria4BaseEvEEEE** %..inline.addr.700 to i8**, !dbg !6405
	store i8*  %218, i8**  %219, align 8, !dbg !6405
	%220 = load %struct._ZN9__gnu_cxx16__aligned_membufISt4pairIKNSt7__cxx1112basic_stringIcSt11char_traitsIcESaIcEEEPFPN16amr_ref_criteria4BaseEvEEEE*, %struct._ZN9__gnu_cxx16__aligned_membufISt4pairIKNSt7__cxx1112basic_stringIcSt11char_traitsIcESaIcEEEPFPN16amr_ref_criteria4BaseEvEEEE** %..inline.addr.700, align 8, !dbg !6405
	%221 = bitcast %struct._ZN9__gnu_cxx16__aligned_membufISt4pairIKNSt7__cxx1112basic_stringIcSt11char_traitsIcESaIcEEEPFPN16amr_ref_criteria4BaseEvEEEE*  %220 to i8*, !dbg !6405
	%222 = bitcast %struct._ZN9__gnu_cxx16__aligned_membufISt4pairIKNSt7__cxx1112basic_stringIcSt11char_traitsIcESaIcEEEPFPN16amr_ref_criteria4BaseEvEEEE** %..inline.addr.710 to i8**, !dbg !6405
	store i8*  %221, i8**  %222, align 8, !dbg !6405
	%223 = load %struct._ZN9__gnu_cxx16__aligned_membufISt4pairIKNSt7__cxx1112basic_stringIcSt11char_traitsIcESaIcEEEPFPN16amr_ref_criteria4BaseEvEEEE*, %struct._ZN9__gnu_cxx16__aligned_membufISt4pairIKNSt7__cxx1112basic_stringIcSt11char_traitsIcESaIcEEEPFPN16amr_ref_criteria4BaseEvEEEE** %..inline.addr.710, align 8, !dbg !6405
	%224 = bitcast %struct._ZN9__gnu_cxx16__aligned_membufISt4pairIKNSt7__cxx1112basic_stringIcSt11char_traitsIcESaIcEEEPFPN16amr_ref_criteria4BaseEvEEEE*  %223 to i8*, !dbg !6405
	store i8*  %224, i8** %..inline.addr.720, align 8, !dbg !6405
	%225 = bitcast %struct._ZSt4pairIKNSt7__cxx1112basic_stringIcSt11char_traitsIcESaIcEEEPFPN16amr_ref_criteria4BaseEvEE** %..inline.addr.730 to i8**, !dbg !6405
	store i8*  %224, i8**  %225, align 8, !dbg !6405
	br label %L..inline.70535, !dbg !6405
L..inline.70535:
	%226 = load %struct._ZSt4pairIKNSt7__cxx1112basic_stringIcSt11char_traitsIcESaIcEEEPFPN16amr_ref_criteria4BaseEvEE*, %struct._ZSt4pairIKNSt7__cxx1112basic_stringIcSt11char_traitsIcESaIcEEEPFPN16amr_ref_criteria4BaseEvEE** %..inline.addr.730, align 8, !dbg !6405
	%227 = bitcast %struct._ZSt4pairIKNSt7__cxx1112basic_stringIcSt11char_traitsIcESaIcEEEPFPN16amr_ref_criteria4BaseEvEE*  %226 to i8*, !dbg !6405
	%228 = bitcast %struct._ZSt4pairIKNSt7__cxx1112basic_stringIcSt11char_traitsIcESaIcEEEPFPN16amr_ref_criteria4BaseEvEE** %..inline.addr.740 to i8**, !dbg !6405
	store i8*  %227, i8**  %228, align 8, !dbg !6405
	br label %L..inline.70544, !dbg !6405
L..inline.70544:
	br label %L..inline.70546, !dbg !6405
L..inline.70546:
	%229 = load %struct._ZSt4pairIKNSt7__cxx1112basic_stringIcSt11char_traitsIcESaIcEEEPFPN16amr_ref_criteria4BaseEvEE*, %struct._ZSt4pairIKNSt7__cxx1112basic_stringIcSt11char_traitsIcESaIcEEEPFPN16amr_ref_criteria4BaseEvEE** %..inline.addr.740, align 8, !dbg !6405
	%230 = bitcast %struct._ZSt4pairIKNSt7__cxx1112basic_stringIcSt11char_traitsIcESaIcEEEPFPN16amr_ref_criteria4BaseEvEE*  %229 to i8*, !dbg !6405
	%231 = bitcast %struct._ZNSt7__cxx1112basic_stringIcSt11char_traitsIcESaIcEEE** %..inline.addr.750 to i8**, !dbg !6405
	store i8*  %230, i8**  %231, align 8, !dbg !6405
	%232 = load %struct._ZNSt7__cxx1112basic_stringIcSt11char_traitsIcESaIcEEE*, %struct._ZNSt7__cxx1112basic_stringIcSt11char_traitsIcESaIcEEE** %..inline.addr.300, align 8, !dbg !6405
	%233 = bitcast %struct._ZNSt7__cxx1112basic_stringIcSt11char_traitsIcESaIcEEE*  %232 to i8*, !dbg !6405
	%234 = bitcast %struct._ZNSt7__cxx1112basic_stringIcSt11char_traitsIcESaIcEEE** %..inline.addr.760 to i8**, !dbg !6405
	store i8*  %233, i8**  %234, align 8, !dbg !6405
	%235 = load %struct._ZNSt7__cxx1112basic_stringIcSt11char_traitsIcESaIcEEE*, %struct._ZNSt7__cxx1112basic_stringIcSt11char_traitsIcESaIcEEE** %..inline.addr.750, align 8, !dbg !6405
	%236 = load %struct._ZNSt7__cxx1112basic_stringIcSt11char_traitsIcESaIcEEE*, %struct._ZNSt7__cxx1112basic_stringIcSt11char_traitsIcESaIcEEE** %..inline.addr.760, align 8, !dbg !6405
	%237 = call i8  @_ZStltIcSt11char_traitsIcESaIcEEbRKNSt7__cxx1112basic_stringIT_T0_T1_EESA_ (%struct._ZNSt7__cxx1112basic_stringIcSt11char_traitsIcESaIcEEE*  %235, %struct._ZNSt7__cxx1112basic_stringIcSt11char_traitsIcESaIcEEE*  %236) nounwind, !dbg !6405
	store i8  %237, i8* %..inline.addr.770, align 1, !dbg !6405
	%238 = sext i8  %237 to i32, !dbg !6405
	%239 = icmp eq i32  %238, 0, !dbg !6405
	br i1  %239, label %L..inline.70555, label %L.B1320, !dbg !6405
L.B1320:
	%240 = bitcast %struct._ZSt13_Rb_tree_nodeISt4pairIKNSt7__cxx1112basic_stringIcSt11char_traitsIcESaIcEEEPFPN16amr_ref_criteria4BaseEvEEE** %..inline.addr.330 to i8*, !dbg !6406
	%241 = bitcast %struct._ZSt13_Rb_tree_nodeISt4pairIKNSt7__cxx1112basic_stringIcSt11char_traitsIcESaIcEEEPFPN16amr_ref_criteria4BaseEvEEE*** %..inline.addr.780 to i8**, !dbg !6406
	store i8*  %240, i8**  %241, align 8, !dbg !6406
	%242 = load %struct._ZSt13_Rb_tree_nodeISt4pairIKNSt7__cxx1112basic_stringIcSt11char_traitsIcESaIcEEEPFPN16amr_ref_criteria4BaseEvEEE**, %struct._ZSt13_Rb_tree_nodeISt4pairIKNSt7__cxx1112basic_stringIcSt11char_traitsIcESaIcEEEPFPN16amr_ref_criteria4BaseEvEEE*** %..inline.addr.780, align 8, !dbg !6406
	%243 = bitcast %struct._ZSt13_Rb_tree_nodeISt4pairIKNSt7__cxx1112basic_stringIcSt11char_traitsIcESaIcEEEPFPN16amr_ref_criteria4BaseEvEEE**  %242 to i8*, !dbg !6406
	%244 = bitcast %struct._ZSt13_Rb_tree_nodeISt4pairIKNSt7__cxx1112basic_stringIcSt11char_traitsIcESaIcEEEPFPN16amr_ref_criteria4BaseEvEEE*** %..inline.addr.790 to i8**, !dbg !6406
	store i8*  %243, i8**  %244, align 8, !dbg !6406
	%245 = load %struct._ZSt13_Rb_tree_nodeISt4pairIKNSt7__cxx1112basic_stringIcSt11char_traitsIcESaIcEEEPFPN16amr_ref_criteria4BaseEvEEE**, %struct._ZSt13_Rb_tree_nodeISt4pairIKNSt7__cxx1112basic_stringIcSt11char_traitsIcESaIcEEEPFPN16amr_ref_criteria4BaseEvEEE*** %..inline.addr.790, align 8, !dbg !6406
	%246 = bitcast %struct._ZSt13_Rb_tree_nodeISt4pairIKNSt7__cxx1112basic_stringIcSt11char_traitsIcESaIcEEEPFPN16amr_ref_criteria4BaseEvEEE**  %245 to i8**, !dbg !6406
	%247 = load i8*, i8**  %246, align 8, !dbg !6406
	%248 = bitcast %struct._ZSt4pairIPSt18_Rb_tree_node_baseS1_E* %..inline.addr.800 to i8**, !dbg !6406
	store i8*  %247, i8**  %248, align 8, !dbg !6406
	%249 = bitcast %struct._ZSt18_Rb_tree_node_base** %..inline.addr.350 to i8*, !dbg !6406
	%250 = bitcast %struct._ZSt18_Rb_tree_node_base*** %..inline.addr.810 to i8**, !dbg !6406
	store i8*  %249, i8**  %250, align 8, !dbg !6406
	%251 = load %struct._ZSt18_Rb_tree_node_base**, %struct._ZSt18_Rb_tree_node_base*** %..inline.addr.810, align 8, !dbg !6406
	%252 = bitcast %struct._ZSt18_Rb_tree_node_base**  %251 to i8*, !dbg !6406
	%253 = bitcast %struct._ZSt18_Rb_tree_node_base*** %..inline.addr.820 to i8**, !dbg !6406
	store i8*  %252, i8**  %253, align 8, !dbg !6406
	%254 = load %struct._ZSt18_Rb_tree_node_base**, %struct._ZSt18_Rb_tree_node_base*** %..inline.addr.820, align 8, !dbg !6406
	%255 = bitcast %struct._ZSt18_Rb_tree_node_base**  %254 to i8**, !dbg !6406
	%256 = load i8*, i8**  %255, align 8, !dbg !6406
	%257 = bitcast %struct._ZSt4pairIPSt18_Rb_tree_node_baseS1_E* %..inline.addr.800 to i8*, !dbg !6406
	%258 = getelementptr i8, i8*  %257, i64 8, !dbg !6406
	%259 = bitcast i8*  %258 to i8**, !dbg !6406
	store i8*  %256, i8**  %259, align 8, !dbg !6406
	%260 = bitcast %struct._ZSt4pairIPSt18_Rb_tree_node_baseS1_E* %..inline.addr.660 to i8**, !dbg !6406
	store i8*  %247, i8**  %260, align 8, !dbg !6406
	%261 = bitcast %struct._ZSt4pairIPSt18_Rb_tree_node_baseS1_E* %..inline.addr.660 to i8*, !dbg !6406
	%262 = getelementptr i8, i8*  %261, i64 8, !dbg !6406
	%263 = bitcast i8*  %262 to i8**, !dbg !6406
	store i8*  %256, i8**  %263, align 8, !dbg !6406
	br label %L..inline.70598, !dbg !6406
L..inline.70555:
	%264 = bitcast %struct._ZSt18_Rb_tree_node_base** %..inline.addr.830 to i8**, !dbg !6407
	store i8* null, i8**  %264, align 8, !dbg !6407
	%265 = bitcast %struct._ZSt17_Rb_tree_iteratorISt4pairIKNSt7__cxx1112basic_stringIcSt11char_traitsIcESaIcEEEPFPN16amr_ref_criteria4BaseEvEEE* %..inline.addr.530 to i8*, !dbg !6407
	%266 = bitcast %struct._ZSt18_Rb_tree_node_base*** %..inline.addr.840 to i8**, !dbg !6407
	store i8*  %265, i8**  %266, align 8, !dbg !6407
	%267 = load %struct._ZSt18_Rb_tree_node_base**, %struct._ZSt18_Rb_tree_node_base*** %..inline.addr.840, align 8, !dbg !6407
	%268 = bitcast %struct._ZSt18_Rb_tree_node_base**  %267 to i8*, !dbg !6407
	%269 = bitcast %struct._ZSt18_Rb_tree_node_base*** %..inline.addr.850 to i8**, !dbg !6407
	store i8*  %268, i8**  %269, align 8, !dbg !6407
	%270 = load %struct._ZSt18_Rb_tree_node_base**, %struct._ZSt18_Rb_tree_node_base*** %..inline.addr.850, align 8, !dbg !6407
	%271 = bitcast %struct._ZSt18_Rb_tree_node_base**  %270 to i8*, !dbg !6407
	%272 = bitcast %struct._ZSt18_Rb_tree_node_base*** %..inline.addr.860 to i8**, !dbg !6407
	store i8*  %271, i8**  %272, align 8, !dbg !6407
	%273 = load %struct._ZSt18_Rb_tree_node_base**, %struct._ZSt18_Rb_tree_node_base*** %..inline.addr.860, align 8, !dbg !6407
	%274 = bitcast %struct._ZSt18_Rb_tree_node_base**  %273 to i8**, !dbg !6407
	%275 = load i8*, i8**  %274, align 8, !dbg !6407
	%276 = bitcast %struct._ZSt4pairIPSt18_Rb_tree_node_baseS1_E* %..inline.addr.870 to i8**, !dbg !6407
	store i8*  %275, i8**  %276, align 8, !dbg !6407
	%277 = load %struct._ZSt18_Rb_tree_node_base*, %struct._ZSt18_Rb_tree_node_base** %..inline.addr.830, align 8, !dbg !6407
