; ModuleID = 'backgroundfield/backgroundfield.cpp'
target datalayout = "e-p:64:64-i64:64-f80:128-n8:16:32:64-S128"
target triple = "x86_64-pc-linux-gnu"
define internal void @pgCplus_compiled.() noinline {
L.entry:
	ret void
}

%struct._ZSt6vectorIiSaIiEE = type <{ %struct._ZSt12_Vector_baseIiSaIiEE}> 
%struct._ZNSt12_Vector_baseIiSaIiEE12_Vector_implE = type <{ %struct._ZNSt12_Vector_baseIiSaIiEE17_Vector_impl_dataE}> 
%struct.ompi_datatype_t = type opaque
%struct._ZSt12_Vector_baseIP14ompi_request_tSaIS1_EE = type <{ %struct._ZNSt12_Vector_baseIP14ompi_request_tSaIS1_EE12_Vector_implE}> 
%struct.T3DFunction = type <{ i32 (...)* (...)*}> 
%struct.FsGridCouplingInformation = type <{ %struct._ZSt6vectorIiSaIiEE}> 
%struct._ZNSt12_Vector_baseISt5arrayIdLm18EESaIS1_EE17_Vector_impl_dataE = type <{ %struct._ZSt5arrayIdLm18EE*, %struct._ZSt5arrayIdLm18EE*, %struct._ZSt5arrayIdLm18EE*}> 
%struct._ZSt5arrayIP15ompi_datatype_tLm27EE = type <{ [27 x %struct.ompi_datatype_t*]}> 
%struct.ompi_communicator_t = type opaque
%struct._ZSt5arrayIdLm3EE = type <{ [3 x double]}> 
%struct._Z6FsGridISt5arrayIdLm18EELi2EE = type <{ double, double, double, %struct._ZSt5arrayIdLm3EE, %struct.ompi_communicator_t*, i32, [4 x i8], %struct._ZSt6vectorIP14ompi_request_tSaIS1_EE, i32, %struct._ZSt5arrayIiLm27EE, %struct._ZSt6vectorIcSaIcEE, %struct._ZSt5arrayIiLm3EE, %struct._ZSt5arrayIiLm3EE, %struct._ZSt5arrayIbLm3EE, i8, %struct._ZSt5arrayIiLm3EE, %struct._ZSt5arrayIiLm3EE, %struct._ZSt5arrayIiLm3EE, %struct._ZSt5arrayIiLm3EE, [4 x i8], %struct.FsGridCouplingInformation*, %struct._ZSt5arrayIP15ompi_datatype_tLm27EE, %struct._ZSt5arrayIP15ompi_datatype_tLm27EE, %struct._ZSt6vectorISt5arrayIdLm18EESaIS1_EE}> 
%struct.ompi_request_t = type opaque
%struct._ZNSt12_Vector_baseIcSaIcEE17_Vector_impl_dataE = type <{ i8*, i8*, i8*}> 
%struct.FieldFunction = type <{ %struct.T3DFunction, i32, i32, i32, [4 x i8]}> 
%struct._ZNSt12_Vector_baseIcSaIcEE12_Vector_implE = type <{ %struct._ZNSt12_Vector_baseIcSaIcEE17_Vector_impl_dataE}> 
%struct._ZSt5arrayIiLm3EE = type <{ [3 x i32]}> 
%struct._ZNSt12_Vector_baseIiSaIiEE17_Vector_impl_dataE = type <{ i32*, i32*, i32*}> 
%struct._ZSt5arrayIdLm18EE = type <{ [18 x double]}> 
%struct._ZNSt12_Vector_baseIP14ompi_request_tSaIS1_EE17_Vector_impl_dataE = type <{ %struct.ompi_request_t**, %struct.ompi_request_t**, %struct.ompi_request_t**}> 
%struct._ZSt12_Vector_baseIcSaIcEE = type <{ %struct._ZNSt12_Vector_baseIcSaIcEE12_Vector_implE}> 
%struct._ZSt6vectorIcSaIcEE = type <{ %struct._ZSt12_Vector_baseIcSaIcEE}> 
%struct._ZSt5arrayIiLm27EE = type <{ [27 x i32]}> 
%struct._ZSt6vectorIP14ompi_request_tSaIS1_EE = type <{ %struct._ZSt12_Vector_baseIP14ompi_request_tSaIS1_EE}> 
%struct._ZSt12_Vector_baseISt5arrayIdLm18EESaIS1_EE = type <{ %struct._ZNSt12_Vector_baseISt5arrayIdLm18EESaIS1_EE12_Vector_implE}> 
%struct._ZNSt12_Vector_baseISt5arrayIdLm18EESaIS1_EE12_Vector_implE = type <{ %struct._ZNSt12_Vector_baseISt5arrayIdLm18EESaIS1_EE17_Vector_impl_dataE}> 
%struct._ZNSt12_Vector_baseIP14ompi_request_tSaIS1_EE12_Vector_implE = type <{ %struct._ZNSt12_Vector_baseIP14ompi_request_tSaIS1_EE17_Vector_impl_dataE}> 
%struct._ZSt5arrayIbLm3EE = type <{ [3 x i8]}> 
%struct._ZSt6vectorISt5arrayIdLm18EESaIS1_EE = type <{ %struct._ZSt12_Vector_baseISt5arrayIdLm18EESaIS1_EE}> 
%struct._ZSt12_Vector_baseIiSaIiEE = type <{ %struct._ZNSt12_Vector_baseIiSaIiEE12_Vector_implE}> 



define void @_Z18setBackgroundFieldR13FieldFunctionR6FsGridISt5arrayIdLm18EELi2EEb(%struct.FieldFunction* %bgFunction.arg, %struct._Z6FsGridISt5arrayIdLm18EELi2EE* %BgBGrid.arg, i8 signext %append.arg) #0 !dbg !2363 {
L.entry:
	%bgFunction.addr = alloca %struct.FieldFunction*, align 8
	%BgBGrid.addr = alloca %struct._Z6FsGridISt5arrayIdLm18EELi2EE*, align 8
	%append.addr = alloca i8, align 1
	%faceCoord1.addr = alloca [3 x i32], align 4
	%faceCoord2.addr = alloca [3 x i32], align 4
	%..inline.addr = alloca %struct._Z6FsGridISt5arrayIdLm18EELi2EE*, align 8
	%localSize.addr = alloca %struct._ZSt5arrayIiLm3EE, align 4
	%x.addr = alloca i32, align 4
	%y.addr = alloca i32, align 4
	%z.addr = alloca i32, align 4
	%..inline.addr.1 = alloca %struct._Z6FsGridISt5arrayIdLm18EELi2EE*, align 8
	%..inline.addr.2 = alloca i32, align 4
	%..inline.addr.3 = alloca i32, align 4
	%..inline.addr.4 = alloca %struct._ZSt5arrayIdLm3EE, align 8
	%..inline.addr.5 = alloca %struct._ZSt5arrayIdLm3EE, align 8
	%..inline.addr.6 = alloca %struct._ZSt5arrayIdLm3EE, align 8
	%start3.addr = alloca %struct._ZSt5arrayIdLm3EE, align 8
	%start.addr = alloca [3 x double], align 8
	%dx.addr = alloca [3 x double], align 8
	%end.addr = alloca [3 x double], align 8
	%fComponent.addr = alloca i32, align 4
	%.x0004.addr = alloca i32, align 4
	%..inline.addr.7 = alloca %struct._Z6FsGridISt5arrayIdLm18EELi2EE*, align 8
	%..inline.addr.8 = alloca i32, align 4
	%..inline.addr.9 = alloca i32, align 4
	%..inline.addr.280 = alloca i32, align 4
	%..inline.addr.290 = alloca i32, align 4
	%..inline.addr.300 = alloca [3 x i32], align 4
	%..inline.addr.310 = alloca %struct._ZSt5arrayIdLm18EE*, align 8
	%..inline.addr.320 = alloca i64, align 8
	%..inline.addr.330 = alloca %struct._ZSt5arrayIdLm18EE*, align 8
	%..inline.addr.340 = alloca i64, align 8
	%..inline.addr.350 = alloca double*, align 8
	%.Q0003.addr = alloca double, align 8
	%..inline.addr.370 = alloca %struct._Z6FsGridISt5arrayIdLm18EELi2EE*, align 8
	%..inline.addr.380 = alloca i32, align 4
	%..inline.addr.390 = alloca i32, align 4
	%..inline.addr.400 = alloca i32, align 4
	%..inline.addr.410 = alloca i32, align 4
	%..inline.addr.420 = alloca [3 x i32], align 4
	%..inline.addr.430 = alloca %struct._ZSt5arrayIdLm18EE*, align 8
	%..inline.addr.440 = alloca i64, align 8
	%..inline.addr.450 = alloca %struct._ZSt5arrayIdLm18EE*, align 8
	%..inline.addr.460 = alloca i64, align 8
	%..inline.addr.470 = alloca double*, align 8
	%.Q0007.addr = alloca double, align 8
	%..inline.addr.490 = alloca %struct._Z6FsGridISt5arrayIdLm18EELi2EE*, align 8
	%..inline.addr.500 = alloca i32, align 4
	%..inline.addr.510 = alloca i32, align 4
	%..inline.addr.520 = alloca i32, align 4
	%..inline.addr.530 = alloca i32, align 4
	%..inline.addr.540 = alloca [3 x i32], align 4
	%..inline.addr.550 = alloca %struct._ZSt5arrayIdLm18EE*, align 8
	%..inline.addr.560 = alloca i64, align 8
	%..inline.addr.570 = alloca %struct._ZSt5arrayIdLm18EE*, align 8
	%..inline.addr.580 = alloca i64, align 8
	%..inline.addr.590 = alloca double*, align 8
	%.Q0008.addr = alloca double, align 8
	%fComponent.addr.1 = alloca i32, align 4
	%..inline.addr.620 = alloca %struct._Z6FsGridISt5arrayIdLm18EELi2EE*, align 8
	%..inline.addr.630 = alloca i32, align 4
	%..inline.addr.640 = alloca i32, align 4
	%..inline.addr.650 = alloca i32, align 4
	%..inline.addr.660 = alloca i32, align 4
	%..inline.addr.670 = alloca [3 x i32], align 4
	%..inline.addr.680 = alloca %struct._ZSt5arrayIdLm18EE*, align 8
	%..inline.addr.690 = alloca i64, align 8
	%..inline.addr.700 = alloca %struct._ZSt5arrayIdLm18EE*, align 8
	%..inline.addr.710 = alloca i64, align 8
	%..inline.addr.720 = alloca double*, align 8
	%.Q0012.addr = alloca double, align 8
	%..inline.addr.740 = alloca %struct._Z6FsGridISt5arrayIdLm18EELi2EE*, align 8
	%..inline.addr.750 = alloca i32, align 4
	%..inline.addr.760 = alloca i32, align 4
	%..inline.addr.770 = alloca i32, align 4
	%..inline.addr.780 = alloca i32, align 4
	%..inline.addr.790 = alloca [3 x i32], align 4
	%..inline.addr.800 = alloca %struct._ZSt5arrayIdLm18EE*, align 8
	%..inline.addr.810 = alloca i64, align 8
	%..inline.addr.820 = alloca %struct._ZSt5arrayIdLm18EE*, align 8
	%..inline.addr.830 = alloca i64, align 8
	%..inline.addr.840 = alloca double*, align 8
	%.Q0016.addr = alloca double, align 8
	%..inline.addr.860 = alloca %struct._Z6FsGridISt5arrayIdLm18EELi2EE*, align 8
	%..inline.addr.870 = alloca i32, align 4
	%..inline.addr.880 = alloca i32, align 4
	%..inline.addr.890 = alloca i32, align 4
	%..inline.addr.900 = alloca i32, align 4
	%..inline.addr.910 = alloca [3 x i32], align 4
	%..inline.addr.920 = alloca %struct._ZSt5arrayIdLm18EE*, align 8
	%..inline.addr.930 = alloca i64, align 8
	%..inline.addr.940 = alloca %struct._ZSt5arrayIdLm18EE*, align 8
	%..inline.addr.950 = alloca i64, align 8
	%..inline.addr.960 = alloca double*, align 8
	%.Q0017.addr = alloca double, align 8

	call void @llvm.dbg.declare (metadata %struct.FieldFunction** %bgFunction.addr, metadata !3455, metadata !3456), !dbg !2364
	store %struct.FieldFunction* %bgFunction.arg, %struct.FieldFunction** %bgFunction.addr, align 8, !tbaa !3551
	call void @llvm.dbg.declare (metadata %struct.FieldFunction** %bgFunction.addr, metadata !3457, metadata !3456), !dbg !2364
	call void @llvm.dbg.declare (metadata %struct._Z6FsGridISt5arrayIdLm18EELi2EE** %BgBGrid.addr, metadata !3458, metadata !3456), !dbg !2364
	store %struct._Z6FsGridISt5arrayIdLm18EELi2EE* %BgBGrid.arg, %struct._Z6FsGridISt5arrayIdLm18EELi2EE** %BgBGrid.addr, align 8, !tbaa !3551
	call void @llvm.dbg.declare (metadata %struct._Z6FsGridISt5arrayIdLm18EELi2EE** %BgBGrid.addr, metadata !3459, metadata !3456), !dbg !2364
	call void @llvm.dbg.declare (metadata i8* %append.addr, metadata !3460, metadata !3456), !dbg !2364
	store i8 %append.arg, i8* %append.addr, align 1, !tbaa !3552
	call void @llvm.dbg.declare (metadata i8* %append.addr, metadata !3461, metadata !3456), !dbg !2364
	%0 = load i8, i8* %append.addr, align 1, !tbaa !3552, !dbg !3462
	%1 = sext i8  %0 to i32, !dbg !3462
	%2 = icmp ne i32  %1, 0, !dbg !3462
	br i1  %2, label %L.B0000, label %L.B0858, !dbg !3462
L.B0858:
	%3 = load %struct._Z6FsGridISt5arrayIdLm18EELi2EE*, %struct._Z6FsGridISt5arrayIdLm18EELi2EE** %BgBGrid.addr, align 8, !tbaa !3551, !dbg !3463
	call void  @_Z24setBackgroundFieldToZeroR6FsGridISt5arrayIdLm18EELi2EE (%struct._Z6FsGridISt5arrayIdLm18EELi2EE*  %3), !dbg !3463
	br label %L.B0000
L.B0000:
	call void @llvm.dbg.declare (metadata [3 x i32]* %faceCoord1.addr, metadata !3466, metadata !3456), !dbg !2364
	%4 = bitcast [3 x i32]* %faceCoord1.addr to i32*, !dbg !3464
	store i32 1, i32*  %4, align 4, !tbaa !3552, !dbg !3464
	call void @llvm.dbg.declare (metadata [3 x i32]* %faceCoord2.addr, metadata !3468, metadata !3456), !dbg !2364
	%5 = bitcast [3 x i32]* %faceCoord2.addr to i32*, !dbg !3467
	store i32 2, i32*  %5, align 4, !tbaa !3552, !dbg !3467
	%6 = bitcast [3 x i32]* %faceCoord1.addr to i8*, !dbg !3469
	%7 = getelementptr i8, i8*  %6, i64 4, !dbg !3469
	%8 = bitcast i8*  %7 to i32*, !dbg !3469
	store i32 0, i32*  %8, align 4, !tbaa !3552, !dbg !3469
	%9 = bitcast [3 x i32]* %faceCoord2.addr to i8*, !dbg !3470
	%10 = getelementptr i8, i8*  %9, i64 4, !dbg !3470
	%11 = bitcast i8*  %10 to i32*, !dbg !3470
	store i32 2, i32*  %11, align 4, !tbaa !3552, !dbg !3470
	%12 = getelementptr i8, i8*  %6, i64 8, !dbg !3471
	%13 = bitcast i8*  %12 to i32*, !dbg !3471
	store i32 0, i32*  %13, align 4, !tbaa !3552, !dbg !3471
	%14 = getelementptr i8, i8*  %9, i64 8, !dbg !3472
	%15 = bitcast i8*  %14 to i32*, !dbg !3472
	store i32 1, i32*  %15, align 4, !tbaa !3552, !dbg !3472
	%16 = load %struct._Z6FsGridISt5arrayIdLm18EELi2EE*, %struct._Z6FsGridISt5arrayIdLm18EELi2EE** %BgBGrid.addr, align 8, !tbaa !3551, !dbg !3473
	%17 = bitcast %struct._Z6FsGridISt5arrayIdLm18EELi2EE*  %16 to i8*, !dbg !3473
	%18 = bitcast %struct._Z6FsGridISt5arrayIdLm18EELi2EE** %..inline.addr to i8**, !dbg !3473
	store i8*  %17, i8**  %18, align 8, !tbaa !3551, !dbg !3473
	%19 = load %struct._Z6FsGridISt5arrayIdLm18EELi2EE*, %struct._Z6FsGridISt5arrayIdLm18EELi2EE** %..inline.addr, align 8, !tbaa !3551, !dbg !3474
	%20 = bitcast %struct._Z6FsGridISt5arrayIdLm18EELi2EE*  %19 to i8*, !dbg !3474
	%21 = getelementptr i8, i8*  %20, i64 264, !dbg !3474
	%22 = bitcast i8*  %21 to i64*, !dbg !3474
	%23 = load i64, i64*  %22, align 8, !tbaa !3552, !dbg !3474
	call void @llvm.dbg.declare (metadata %struct._ZSt5arrayIiLm3EE* %localSize.addr, metadata !3475, metadata !3456), !dbg !2364
	%24 = bitcast %struct._ZSt5arrayIiLm3EE* %localSize.addr to i64*, !dbg !3474
	store i64  %23, i64*  %24, align 8, !tbaa !3552, !dbg !3474
	%25 = getelementptr i8, i8*  %21, i64 8, !dbg !3474
	%26 = bitcast i8*  %25 to i32*, !dbg !3474
	%27 = load i32, i32*  %26, align 4, !tbaa !3552, !dbg !3474
	%28 = bitcast %struct._ZSt5arrayIiLm3EE* %localSize.addr to i8*, !dbg !3474
	%29 = getelementptr i8, i8*  %28, i64 8, !dbg !3474
	%30 = bitcast i8*  %29 to i32*, !dbg !3474
	store i32  %27, i32*  %30, align 4, !tbaa !3552, !dbg !3474
	call void @llvm.dbg.declare (metadata i32* %x.addr, metadata !3477, metadata !3456), !dbg !2368
	store i32 0, i32* %x.addr, align 4, !tbaa !3554, !dbg !3476
	%31 = bitcast %struct._ZSt5arrayIiLm3EE* %localSize.addr to i32*, !dbg !3478
	%32 = load i32, i32*  %31, align 4, !tbaa !3552, !dbg !3478
	%33 = icmp sle i32  %32, 0, !dbg !3478
	br i1  %33, label %L.B0003, label %L.B0002, !dbg !3478
L.B0002:
	call void @llvm.dbg.declare (metadata i32* %y.addr, metadata !3480, metadata !3456), !dbg !2372
	store i32 0, i32* %y.addr, align 4, !tbaa !3554, !dbg !3479
	%34 = bitcast %struct._ZSt5arrayIiLm3EE* %localSize.addr to i8*, !dbg !3478
	%35 = getelementptr i8, i8*  %34, i64 4, !dbg !3478
	%36 = bitcast i8*  %35 to i32*, !dbg !3478
	%37 = load i32, i32*  %36, align 4, !tbaa !3552, !dbg !3478
	%38 = icmp sle i32  %37, 0, !dbg !3478
	br i1  %38, label %L.B0007, label %L.B0006, !dbg !3478
L.B0006:
	call void @llvm.dbg.declare (metadata i32* %z.addr, metadata !3482, metadata !3456), !dbg !2376
	store i32 0, i32* %z.addr, align 4, !tbaa !3554, !dbg !3481
	%39 = bitcast %struct._ZSt5arrayIiLm3EE* %localSize.addr to i8*, !dbg !3478
	%40 = getelementptr i8, i8*  %39, i64 8, !dbg !3478
	%41 = bitcast i8*  %40 to i32*, !dbg !3478
	%42 = load i32, i32*  %41, align 4, !tbaa !3552, !dbg !3478
	%43 = icmp sle i32  %42, 0, !dbg !3478
	br i1  %43, label %L.B0011, label %L.B0010, !dbg !3478
L.B0010:
	%44 = load %struct._Z6FsGridISt5arrayIdLm18EELi2EE*, %struct._Z6FsGridISt5arrayIdLm18EELi2EE** %BgBGrid.addr, align 8, !tbaa !3551, !dbg !3483
	%45 = bitcast %struct._Z6FsGridISt5arrayIdLm18EELi2EE*  %44 to i8*, !dbg !3483
	%46 = bitcast %struct._Z6FsGridISt5arrayIdLm18EELi2EE** %..inline.addr.1 to i8**, !dbg !3483
	store i8*  %45, i8**  %46, align 8, !tbaa !3551, !dbg !3483
	%47 = load i32, i32* %y.addr, align 4, !tbaa !3554, !dbg !3483
	%48 = load i32, i32* %z.addr, align 4, !tbaa !3554, !dbg !3483
	%49 = getelementptr i8, i8*  %45, i64 288, !dbg !3484
	%50 = bitcast i8*  %49 to i32*, !dbg !3484
	%51 = load i32, i32*  %50, align 4, !tbaa !3552, !dbg !3484
	%52 = load i32, i32* %x.addr, align 4, !tbaa !3554, !dbg !3484
	%53 = add i32  %51,  %52, !dbg !3484
	%54 = sitofp i32  %53 to double, !dbg !3484
	%55 = bitcast %struct._Z6FsGridISt5arrayIdLm18EELi2EE*  %44 to double*, !dbg !3484
	%56 = load double, double*  %55, align 8, !tbaa !3552, !dbg !3484
	%57 = getelementptr i8, i8*  %45, i64 24, !dbg !3484
	%58 = bitcast i8*  %57 to double*, !dbg !3484
	%59 = load double, double*  %58, align 8, !tbaa !3552, !dbg !3484
	%60 = call double @llvm.fma.f64 (double  %54, double  %56, double  %59), !dbg !3484
	%61 = bitcast %struct._ZSt5arrayIdLm3EE* %..inline.addr.4 to double*, !dbg !3484
	store double  %60, double*  %61, align 8, !tbaa !3552, !dbg !3484
	%62 = load %struct._Z6FsGridISt5arrayIdLm18EELi2EE*, %struct._Z6FsGridISt5arrayIdLm18EELi2EE** %..inline.addr.1, align 8, !tbaa !3551, !dbg !3485
	%63 = bitcast %struct._Z6FsGridISt5arrayIdLm18EELi2EE*  %62 to i8*, !dbg !3485
	%64 = getelementptr i8, i8*  %63, i64 8, !dbg !3485
	%65 = bitcast i8*  %64 to double*, !dbg !3485
	%66 = load double, double*  %65, align 8, !tbaa !3552, !dbg !3485
	%67 = getelementptr i8, i8*  %63, i64 292, !dbg !3485
	%68 = bitcast i8*  %67 to i32*, !dbg !3485
	%69 = load i32, i32*  %68, align 4, !tbaa !3552, !dbg !3485
	%70 = add i32  %47,  %69, !dbg !3485
	%71 = sitofp i32  %70 to double, !dbg !3485
	%72 = getelementptr i8, i8*  %63, i64 32, !dbg !3485
	%73 = bitcast i8*  %72 to double*, !dbg !3485
	%74 = load double, double*  %73, align 8, !tbaa !3552, !dbg !3485
	%75 = call double @llvm.fma.f64 (double  %66, double  %71, double  %74), !dbg !3485
	%76 = bitcast %struct._ZSt5arrayIdLm3EE* %..inline.addr.4 to i8*, !dbg !3485
	%77 = getelementptr i8, i8*  %76, i64 8, !dbg !3485
	%78 = bitcast i8*  %77 to double*, !dbg !3485
	store double  %75, double*  %78, align 8, !tbaa !3552, !dbg !3485
	%79 = getelementptr i8, i8*  %63, i64 16, !dbg !3486
	%80 = bitcast i8*  %79 to double*, !dbg !3486
	%81 = load double, double*  %80, align 8, !tbaa !3552, !dbg !3486
	%82 = getelementptr i8, i8*  %63, i64 296, !dbg !3486
	%83 = bitcast i8*  %82 to i32*, !dbg !3486
	%84 = load i32, i32*  %83, align 4, !tbaa !3552, !dbg !3486
	%85 = add i32  %48,  %84, !dbg !3486
	%86 = sitofp i32  %85 to double, !dbg !3486
	%87 = getelementptr i8, i8*  %63, i64 40, !dbg !3486
	%88 = bitcast i8*  %87 to double*, !dbg !3486
	%89 = load double, double*  %88, align 8, !tbaa !3552, !dbg !3486
	%90 = call double @llvm.fma.f64 (double  %81, double  %86, double  %89), !dbg !3486
	%91 = getelementptr i8, i8*  %76, i64 16, !dbg !3486
	%92 = bitcast i8*  %91 to double*, !dbg !3486
	store double  %90, double*  %92, align 8, !tbaa !3552, !dbg !3486
	%93 = bitcast %struct._ZSt5arrayIdLm3EE* %..inline.addr.4 to i64*, !dbg !3474
	%94 = load i64, i64*  %93, align 8, !tbaa !3552, !dbg !3474
	%95 = bitcast %struct._ZSt5arrayIdLm3EE* %..inline.addr.5 to i64*, !dbg !3474
	store i64  %94, i64*  %95, align 8, !tbaa !3552, !dbg !3474
	%96 = bitcast i8*  %77 to i64*, !dbg !3474
	%97 = load i64, i64*  %96, align 8, !tbaa !3552, !dbg !3474
	%98 = bitcast %struct._ZSt5arrayIdLm3EE* %..inline.addr.5 to i8*, !dbg !3474
	%99 = getelementptr i8, i8*  %98, i64 8, !dbg !3474
	%100 = bitcast i8*  %99 to i64*, !dbg !3474
	store i64  %97, i64*  %100, align 8, !tbaa !3552, !dbg !3474
	%101 = bitcast i8*  %91 to i64*, !dbg !3474
	%102 = load i64, i64*  %101, align 8, !tbaa !3552, !dbg !3474
	%103 = getelementptr i8, i8*  %98, i64 16, !dbg !3474
	%104 = bitcast i8*  %103 to i64*, !dbg !3474
	store i64  %102, i64*  %104, align 8, !tbaa !3552, !dbg !3474
	%105 = load i64, i64*  %95, align 8, !tbaa !3552, !dbg !3474
	%106 = bitcast %struct._ZSt5arrayIdLm3EE* %..inline.addr.6 to i64*, !dbg !3474
	store i64  %105, i64*  %106, align 8, !tbaa !3552, !dbg !3474
	%107 = load i64, i64*  %100, align 8, !tbaa !3552, !dbg !3474
	%108 = bitcast %struct._ZSt5arrayIdLm3EE* %..inline.addr.6 to i8*, !dbg !3474
	%109 = getelementptr i8, i8*  %108, i64 8, !dbg !3474
	%110 = bitcast i8*  %109 to i64*, !dbg !3474
	store i64  %107, i64*  %110, align 8, !tbaa !3552, !dbg !3474
	%111 = getelementptr i8, i8*  %108, i64 16, !dbg !3474
	%112 = bitcast i8*  %111 to i64*, !dbg !3474
	store i64  %102, i64*  %112, align 8, !tbaa !3552, !dbg !3474
	%113 = load i64, i64*  %106, align 8, !tbaa !3552, !dbg !3474
	call void @llvm.dbg.declare (metadata %struct._ZSt5arrayIdLm3EE* %start3.addr, metadata !3487, metadata !3456), !dbg !2378
	%114 = bitcast %struct._ZSt5arrayIdLm3EE* %start3.addr to i64*, !dbg !3474
	store i64  %113, i64*  %114, align 8, !tbaa !3552, !dbg !3474
	%115 = getelementptr i8, i8*  %108, i64 8, !dbg !3474
	%116 = bitcast i8*  %115 to i64*, !dbg !3474
	%117 = load i64, i64*  %116, align 8, !tbaa !3552, !dbg !3474
	%118 = bitcast %struct._ZSt5arrayIdLm3EE* %start3.addr to i8*, !dbg !3474
	%119 = getelementptr i8, i8*  %118, i64 8, !dbg !3474
	%120 = bitcast i8*  %119 to i64*, !dbg !3474
	store i64  %117, i64*  %120, align 8, !tbaa !3552, !dbg !3474
	%121 = getelementptr i8, i8*  %108, i64 16, !dbg !3474
	%122 = bitcast i8*  %121 to i64*, !dbg !3474
	%123 = load i64, i64*  %122, align 8, !tbaa !3552, !dbg !3474
	%124 = getelementptr i8, i8*  %118, i64 16, !dbg !3474
	%125 = bitcast i8*  %124 to i64*, !dbg !3474
	store i64  %123, i64*  %125, align 8, !tbaa !3552, !dbg !3474
	%126 = bitcast %struct._ZSt5arrayIdLm3EE* %start3.addr to double*, !dbg !3478
	%127 = load double, double*  %126, align 8, !tbaa !3552, !dbg !3478
	call void @llvm.dbg.declare (metadata [3 x double]* %start.addr, metadata !3488, metadata !3456), !dbg !2364
	%128 = bitcast [3 x double]* %start.addr to double*, !dbg !3478
	store double  %127, double*  %128, align 8, !tbaa !3552, !dbg !3478
	%129 = getelementptr i8, i8*  %118, i64 8, !dbg !3478
	%130 = bitcast i8*  %129 to double*, !dbg !3478
	%131 = load double, double*  %130, align 8, !tbaa !3552, !dbg !3478
	%132 = bitcast [3 x double]* %start.addr to i8*, !dbg !3478
	%133 = getelementptr i8, i8*  %132, i64 8, !dbg !3478
	%134 = bitcast i8*  %133 to double*, !dbg !3478
	store double  %131, double*  %134, align 8, !tbaa !3552, !dbg !3478
	%135 = getelementptr i8, i8*  %118, i64 16, !dbg !3478
	%136 = bitcast i8*  %135 to double*, !dbg !3478
	%137 = load double, double*  %136, align 8, !tbaa !3552, !dbg !3478
	%138 = getelementptr i8, i8*  %132, i64 16, !dbg !3478
	%139 = bitcast i8*  %138 to double*, !dbg !3478
	store double  %137, double*  %139, align 8, !tbaa !3552, !dbg !3478
	%140 = load %struct._Z6FsGridISt5arrayIdLm18EELi2EE*, %struct._Z6FsGridISt5arrayIdLm18EELi2EE** %BgBGrid.addr, align 8, !tbaa !3551, !dbg !3489
	%141 = bitcast %struct._Z6FsGridISt5arrayIdLm18EELi2EE*  %140 to double*, !dbg !3489
	%142 = load double, double*  %141, align 8, !tbaa !3552, !dbg !3489
	call void @llvm.dbg.declare (metadata [3 x double]* %dx.addr, metadata !3490, metadata !3456), !dbg !2364
	%143 = bitcast [3 x double]* %dx.addr to double*, !dbg !3489
	store double  %142, double*  %143, align 8, !tbaa !3552, !dbg !3489
	%144 = load %struct._Z6FsGridISt5arrayIdLm18EELi2EE*, %struct._Z6FsGridISt5arrayIdLm18EELi2EE** %BgBGrid.addr, align 8, !tbaa !3551, !dbg !3491
	%145 = bitcast %struct._Z6FsGridISt5arrayIdLm18EELi2EE*  %144 to i8*, !dbg !3491
	%146 = getelementptr i8, i8*  %145, i64 8, !dbg !3491
	%147 = bitcast i8*  %146 to double*, !dbg !3491
	%148 = load double, double*  %147, align 8, !tbaa !3552, !dbg !3491
	%149 = bitcast [3 x double]* %dx.addr to i8*, !dbg !3491
	%150 = getelementptr i8, i8*  %149, i64 8, !dbg !3491
	%151 = bitcast i8*  %150 to double*, !dbg !3491
	store double  %148, double*  %151, align 8, !tbaa !3552, !dbg !3491
	%152 = getelementptr i8, i8*  %145, i64 16, !dbg !3492
	%153 = bitcast i8*  %152 to double*, !dbg !3492
	%154 = load double, double*  %153, align 8, !tbaa !3552, !dbg !3492
	%155 = getelementptr i8, i8*  %149, i64 16, !dbg !3492
	%156 = bitcast i8*  %155 to double*, !dbg !3492
	store double  %154, double*  %156, align 8, !tbaa !3552, !dbg !3492
	%157 = load double, double*  %128, align 8, !tbaa !3552, !dbg !3493
	%158 = fadd double  %142,  %157, !dbg !3493
	call void @llvm.dbg.declare (metadata [3 x double]* %end.addr, metadata !3494, metadata !3456), !dbg !2364
	%159 = bitcast [3 x double]* %end.addr to double*, !dbg !3493
	store double  %158, double*  %159, align 8, !tbaa !3552, !dbg !3493
	%160 = getelementptr i8, i8*  %149, i64 8, !dbg !3495
	%161 = bitcast i8*  %160 to double*, !dbg !3495
	%162 = load double, double*  %161, align 8, !tbaa !3552, !dbg !3495
	%163 = getelementptr i8, i8*  %132, i64 8, !dbg !3495
	%164 = bitcast i8*  %163 to double*, !dbg !3495
	%165 = load double, double*  %164, align 8, !tbaa !3552, !dbg !3495
	%166 = fadd double  %162,  %165, !dbg !3495
	%167 = bitcast [3 x double]* %end.addr to i8*, !dbg !3495
	%168 = getelementptr i8, i8*  %167, i64 8, !dbg !3495
	%169 = bitcast i8*  %168 to double*, !dbg !3495
	store double  %166, double*  %169, align 8, !tbaa !3552, !dbg !3495
	%170 = getelementptr i8, i8*  %149, i64 16, !dbg !3496
	%171 = bitcast i8*  %170 to double*, !dbg !3496
	%172 = load double, double*  %171, align 8, !tbaa !3552, !dbg !3496
	%173 = getelementptr i8, i8*  %132, i64 16, !dbg !3496
	%174 = bitcast i8*  %173 to double*, !dbg !3496
	%175 = load double, double*  %174, align 8, !tbaa !3552, !dbg !3496
	%176 = fadd double  %172,  %175, !dbg !3496
	%177 = getelementptr i8, i8*  %167, i64 16, !dbg !3496
	%178 = bitcast i8*  %177 to double*, !dbg !3496
	store double  %176, double*  %178, align 8, !tbaa !3552, !dbg !3496
	call void @llvm.dbg.declare (metadata i32* %fComponent.addr, metadata !3498, metadata !3456), !dbg !2380
	store i32 0, i32* %fComponent.addr, align 4, !tbaa !3554, !dbg !3497
	store i32 3, i32* %.x0004.addr, align 4, !tbaa !3554, !dbg !3497
	br label %L.B0014
L.B0014:
	%179 = load %struct.FieldFunction*, %struct.FieldFunction** %bgFunction.addr, align 8, !tbaa !3551, !dbg !3499
	%180 = bitcast %struct.FieldFunction*  %179 to i8*, !dbg !3499
	%181 = getelementptr i8, i8*  %180, i64 16, !dbg !3499
	%182 = bitcast i8*  %181 to i32*, !dbg !3499
	store i32 0, i32*  %182, align 4, !tbaa !3552, !dbg !3499
	%183 = load i32, i32* %fComponent.addr, align 4, !tbaa !3554, !dbg !3500
	%184 = getelementptr i8, i8*  %180, i64 8, !dbg !3500
	%185 = bitcast i8*  %184 to i32*, !dbg !3500
	store i32  %183, i32*  %185, align 4, !tbaa !3552, !dbg !3500
	%186 = load %struct._Z6FsGridISt5arrayIdLm18EELi2EE*, %struct._Z6FsGridISt5arrayIdLm18EELi2EE** %BgBGrid.addr, align 8, !tbaa !3551, !dbg !3501
	%187 = bitcast %struct._Z6FsGridISt5arrayIdLm18EELi2EE*  %186 to i8*, !dbg !3501
	%188 = bitcast %struct._Z6FsGridISt5arrayIdLm18EELi2EE** %..inline.addr.7 to i8**, !dbg !3501
	store i8*  %187, i8**  %188, align 8, !tbaa !3551, !dbg !3501
	%189 = load i32, i32* %x.addr, align 4, !tbaa !3554, !dbg !3501
	store i32  %189, i32* %..inline.addr.8, align 4, !tbaa !3554, !dbg !3501
	%190 = load i32, i32* %y.addr, align 4, !tbaa !3554, !dbg !3501
	store i32  %190, i32* %..inline.addr.9, align 4, !tbaa !3554, !dbg !3501
	%191 = load i32, i32* %z.addr, align 4, !tbaa !3554, !dbg !3501
	store i32  %191, i32* %..inline.addr.280, align 4, !tbaa !3554, !dbg !3501
	store i32 13, i32* %..inline.addr.290, align 4, !tbaa !3554, !dbg !3501
	%192 = bitcast [3 x i32]* %..inline.addr.300 to i32*, !dbg !3502
	store i32 0, i32*  %192, align 4, !tbaa !3552, !dbg !3502
	%193 = bitcast [3 x i32]* %..inline.addr.300 to i8*, !dbg !3503
	%194 = getelementptr i8, i8*  %193, i64 4, !dbg !3503
	%195 = bitcast i8*  %194 to i32*, !dbg !3503
	store i32 0, i32*  %195, align 4, !tbaa !3552, !dbg !3503
	%196 = getelementptr i8, i8*  %193, i64 8, !dbg !3503
	%197 = bitcast i8*  %196 to i32*, !dbg !3503
	store i32 0, i32*  %197, align 4, !tbaa !3552, !dbg !3503
	%198 = icmp sge i32  %189, 0, !dbg !3503
	br i1  %198, label %L..inline.22047, label %L.B0859, !dbg !3503
L.B0859:
	store i32 4, i32* %..inline.addr.290, align 4, !tbaa !3554, !dbg !3504
	%199 = bitcast [3 x i32]* %..inline.addr.300 to i32*, !dbg !3505
	store i32 1, i32*  %199, align 4, !tbaa !3552, !dbg !3505
	br label %L..inline.22047
L..inline.22047:
	%200 = load i32, i32* %..inline.addr.8, align 4, !tbaa !3554, !dbg !3506
	%201 = load %struct._Z6FsGridISt5arrayIdLm18EELi2EE*, %struct._Z6FsGridISt5arrayIdLm18EELi2EE** %..inline.addr.7, align 8, !tbaa !3551, !dbg !3506
	%202 = bitcast %struct._Z6FsGridISt5arrayIdLm18EELi2EE*  %201 to i8*, !dbg !3506
	%203 = getelementptr i8, i8*  %202, i64 264, !dbg !3506
	%204 = bitcast i8*  %203 to i32*, !dbg !3506
	%205 = load i32, i32*  %204, align 4, !tbaa !3552, !dbg !3506
	%206 = icmp slt i32  %200,  %205, !dbg !3506
	br i1  %206, label %L..inline.22065, label %L.B0860, !dbg !3506
L.B0860:
	%207 = load i32, i32* %..inline.addr.290, align 4, !tbaa !3554, !dbg !3506
	%208 = add i32  %207, 9, !dbg !3506
	store i32  %208, i32* %..inline.addr.290, align 4, !tbaa !3554, !dbg !3506
	%209 = bitcast [3 x i32]* %..inline.addr.300 to i32*, !dbg !3507
	store i32 -1, i32*  %209, align 4, !tbaa !3552, !dbg !3507
	br label %L..inline.22065
L..inline.22065:
	%210 = load i32, i32* %..inline.addr.9, align 4, !tbaa !3554, !dbg !3508
	%211 = icmp sge i32  %210, 0, !dbg !3508
	br i1  %211, label %L..inline.22067, label %L.B0861, !dbg !3508
L.B0861:
	%212 = load i32, i32* %..inline.addr.290, align 4, !tbaa !3554, !dbg !3508
	%213 = sub i32  %212, 3, !dbg !3508
	store i32  %213, i32* %..inline.addr.290, align 4, !tbaa !3554, !dbg !3508
	%214 = bitcast [3 x i32]* %..inline.addr.300 to i8*, !dbg !3509
	%215 = getelementptr i8, i8*  %214, i64 4, !dbg !3509
	%216 = bitcast i8*  %215 to i32*, !dbg !3509
	store i32 1, i32*  %216, align 4, !tbaa !3552, !dbg !3509
	br label %L..inline.22067
L..inline.22067:
	%217 = load i32, i32* %..inline.addr.9, align 4, !tbaa !3554, !dbg !3510
	%218 = load %struct._Z6FsGridISt5arrayIdLm18EELi2EE*, %struct._Z6FsGridISt5arrayIdLm18EELi2EE** %..inline.addr.7, align 8, !tbaa !3551, !dbg !3510
	%219 = bitcast %struct._Z6FsGridISt5arrayIdLm18EELi2EE*  %218 to i8*, !dbg !3510
	%220 = getelementptr i8, i8*  %219, i64 268, !dbg !3510
	%221 = bitcast i8*  %220 to i32*, !dbg !3510
	%222 = load i32, i32*  %221, align 4, !tbaa !3552, !dbg !3510
	%223 = icmp slt i32  %217,  %222, !dbg !3510
	br i1  %223, label %L..inline.22084, label %L.B0862, !dbg !3510
L.B0862:
	%224 = load i32, i32* %..inline.addr.290, align 4, !tbaa !3554, !dbg !3510
	%225 = add i32  %224, 3, !dbg !3510
	store i32  %225, i32* %..inline.addr.290, align 4, !tbaa !3554, !dbg !3510
	%226 = bitcast [3 x i32]* %..inline.addr.300 to i8*, !dbg !3511
	%227 = getelementptr i8, i8*  %226, i64 4, !dbg !3511
	%228 = bitcast i8*  %227 to i32*, !dbg !3511
	store i32 -1, i32*  %228, align 4, !tbaa !3552, !dbg !3511
	br label %L..inline.22084
L..inline.22084:
	%229 = load i32, i32* %..inline.addr.280, align 4, !tbaa !3554, !dbg !3512
	%230 = icmp sge i32  %229, 0, !dbg !3512
	br i1  %230, label %L..inline.22086, label %L.B0863, !dbg !3512
L.B0863:
	%231 = load i32, i32* %..inline.addr.290, align 4, !tbaa !3554, !dbg !3512
	%232 = sub i32  %231, 1, !dbg !3512
	store i32  %232, i32* %..inline.addr.290, align 4, !tbaa !3554, !dbg !3512
	%233 = bitcast [3 x i32]* %..inline.addr.300 to i8*, !dbg !3513
	%234 = getelementptr i8, i8*  %233, i64 8, !dbg !3513
	%235 = bitcast i8*  %234 to i32*, !dbg !3513
	store i32 1, i32*  %235, align 4, !tbaa !3552, !dbg !3513
	br label %L..inline.22086
L..inline.22086:
	%236 = load i32, i32* %..inline.addr.280, align 4, !tbaa !3554, !dbg !3514
	%237 = load %struct._Z6FsGridISt5arrayIdLm18EELi2EE*, %struct._Z6FsGridISt5arrayIdLm18EELi2EE** %..inline.addr.7, align 8, !tbaa !3551, !dbg !3514
	%238 = bitcast %struct._Z6FsGridISt5arrayIdLm18EELi2EE*  %237 to i8*, !dbg !3514
	%239 = getelementptr i8, i8*  %238, i64 272, !dbg !3514
	%240 = bitcast i8*  %239 to i32*, !dbg !3514
	%241 = load i32, i32*  %240, align 4, !tbaa !3552, !dbg !3514
	%242 = icmp slt i32  %236,  %241, !dbg !3514
	br i1  %242, label %L..inline.22103, label %L.B0864, !dbg !3514
L.B0864:
	%243 = load i32, i32* %..inline.addr.290, align 4, !tbaa !3554, !dbg !3514
	%244 = add i32  %243, 1, !dbg !3514
	store i32  %244, i32* %..inline.addr.290, align 4, !tbaa !3554, !dbg !3514
	%245 = bitcast [3 x i32]* %..inline.addr.300 to i8*, !dbg !3515
	%246 = getelementptr i8, i8*  %245, i64 8, !dbg !3515
	%247 = bitcast i8*  %246 to i32*, !dbg !3515
	store i32 -1, i32*  %247, align 4, !tbaa !3552, !dbg !3515
	br label %L..inline.22103
L..inline.22103:
	%248 = load i32, i32* %..inline.addr.290, align 4, !tbaa !3554, !dbg !3516
	%249 = icmp eq i32  %248, 13, !dbg !3516
	br i1  %249, label %L..inline.22104, label %L.B0865, !dbg !3516
L.B0865:
	%250 = sext i32  %248 to i64, !dbg !3517
	%251 = load %struct._Z6FsGridISt5arrayIdLm18EELi2EE*, %struct._Z6FsGridISt5arrayIdLm18EELi2EE** %..inline.addr.7, align 8, !tbaa !3551, !dbg !3517
	%252 = bitcast %struct._Z6FsGridISt5arrayIdLm18EELi2EE*  %251 to i8*, !dbg !3517
	%253 = getelementptr i8, i8*  %252, i64 92, !dbg !3517
	%254 = bitcast i8*  %253 to i32*, !dbg !3517
	%255 = getelementptr i32, i32*  %254, i64  %250, !dbg !3517
	%256 = load i32, i32*  %255, align 4, !tbaa !3552, !dbg !3517
	%257 = icmp ne i32  %256, -2, !dbg !3517
	br i1  %257, label %L..inline.22121, label %L.B0866, !dbg !3517
L.B0866:
	%258 = bitcast %struct._ZSt5arrayIdLm18EE** %..inline.addr.310 to i8**, !dbg !3517
	store i8* null, i8**  %258, align 8, !tbaa !3551, !dbg !3517
	br label %L..inline.22308, !dbg !3518
L..inline.22121:
	%259 = load i32, i32* %..inline.addr.290, align 4, !tbaa !3554, !dbg !3519
	%260 = sext i32  %259 to i64, !dbg !3519
	%261 = load %struct._Z6FsGridISt5arrayIdLm18EELi2EE*, %struct._Z6FsGridISt5arrayIdLm18EELi2EE** %..inline.addr.7, align 8, !tbaa !3551, !dbg !3519
	%262 = bitcast %struct._Z6FsGridISt5arrayIdLm18EELi2EE*  %261 to i8*, !dbg !3519
	%263 = getelementptr i8, i8*  %262, i64 92, !dbg !3519
	%264 = bitcast i8*  %263 to i32*, !dbg !3519
	%265 = getelementptr i32, i32*  %264, i64  %260, !dbg !3519
	%266 = load i32, i32*  %265, align 4, !tbaa !3552, !dbg !3519
	%267 = getelementptr i8, i8*  %262, i64 56, !dbg !3519
	%268 = bitcast i8*  %267 to i32*, !dbg !3519
	%269 = load i32, i32*  %268, align 4, !tbaa !3552, !dbg !3519
	%270 = icmp ne i32  %266,  %269, !dbg !3519
	br i1  %270, label %L..inline.22139, label %L.B0867, !dbg !3519
L.B0867:
	%271 = load i32, i32* %..inline.addr.8, align 4, !tbaa !3554, !dbg !3520
	%272 = bitcast [3 x i32]* %..inline.addr.300 to i32*, !dbg !3520
	%273 = load i32, i32*  %272, align 4, !tbaa !3552, !dbg !3520
	%274 = bitcast %struct._Z6FsGridISt5arrayIdLm18EELi2EE*  %261 to i8*, !dbg !3520
	%275 = getelementptr i8, i8*  %274, i64 264, !dbg !3520
	%276 = bitcast i8*  %275 to i32*, !dbg !3520
	%277 = load i32, i32*  %276, align 4, !tbaa !3552, !dbg !3520
	%278 = mul i32  %273,  %277, !dbg !3520
	%279 = add i32  %271,  %278, !dbg !3520
	store i32  %279, i32* %..inline.addr.8, align 4, !tbaa !3554, !dbg !3520
	%280 = load i32, i32* %..inline.addr.9, align 4, !tbaa !3554, !dbg !3521
	%281 = bitcast [3 x i32]* %..inline.addr.300 to i8*, !dbg !3521
	%282 = getelementptr i8, i8*  %281, i64 4, !dbg !3521
	%283 = bitcast i8*  %282 to i32*, !dbg !3521
	%284 = load i32, i32*  %283, align 4, !tbaa !3552, !dbg !3521
	%285 = getelementptr i8, i8*  %274, i64 268, !dbg !3521
	%286 = bitcast i8*  %285 to i32*, !dbg !3521
	%287 = load i32, i32*  %286, align 4, !tbaa !3552, !dbg !3521
	%288 = mul i32  %284,  %287, !dbg !3521
	%289 = add i32  %280,  %288, !dbg !3521
	store i32  %289, i32* %..inline.addr.9, align 4, !tbaa !3554, !dbg !3521
	%290 = load i32, i32* %..inline.addr.280, align 4, !tbaa !3554, !dbg !3522
	%291 = getelementptr i8, i8*  %281, i64 8, !dbg !3522
	%292 = bitcast i8*  %291 to i32*, !dbg !3522
	%293 = load i32, i32*  %292, align 4, !tbaa !3552, !dbg !3522
	%294 = getelementptr i8, i8*  %274, i64 272, !dbg !3522
	%295 = bitcast i8*  %294 to i32*, !dbg !3522
	%296 = load i32, i32*  %295, align 4, !tbaa !3552, !dbg !3522
	%297 = mul i32  %293,  %296, !dbg !3522
	%298 = add i32  %290,  %297, !dbg !3522
	store i32  %298, i32* %..inline.addr.280, align 4, !tbaa !3554, !dbg !3522
	br label %L..inline.22139
L..inline.22139:
	br label %L..inline.22104
L..inline.22104:
	store i64 0, i64* %..inline.addr.320, align 8, !tbaa !3556, !dbg !3523
	%299 = load %struct._Z6FsGridISt5arrayIdLm18EELi2EE*, %struct._Z6FsGridISt5arrayIdLm18EELi2EE** %..inline.addr.7, align 8, !tbaa !3551, !dbg !3523
	%300 = bitcast %struct._Z6FsGridISt5arrayIdLm18EELi2EE*  %299 to i8*, !dbg !3523
	%301 = getelementptr i8, i8*  %300, i64 260, !dbg !3523
	%302 = bitcast i8*  %301 to i32*, !dbg !3523
	%303 = load i32, i32*  %302, align 4, !tbaa !3552, !dbg !3523
	%304 = icmp sle i32  %303, 1, !dbg !3523
	br i1  %304, label %L..inline.22213, label %L.B0868, !dbg !3523
L.B0868:
	%305 = load i32, i32* %..inline.addr.280, align 4, !tbaa !3554, !dbg !3523
	%306 = add i32  %305, 2, !dbg !3523
	%307 = bitcast %struct._Z6FsGridISt5arrayIdLm18EELi2EE*  %299 to i8*, !dbg !3523
	%308 = getelementptr i8, i8*  %307, i64 280, !dbg !3523
	%309 = bitcast i8*  %308 to i32*, !dbg !3523
	%310 = load i32, i32*  %309, align 4, !tbaa !3552, !dbg !3523
	%311 = getelementptr i8, i8*  %307, i64 276, !dbg !3523
	%312 = bitcast i8*  %311 to i32*, !dbg !3523
	%313 = load i32, i32*  %312, align 4, !tbaa !3552, !dbg !3523
	%314 = mul i32  %310,  %313, !dbg !3523
	%315 = mul i32  %306,  %314, !dbg !3523
	%316 = sext i32  %315 to i64, !dbg !3523
	store i64  %316, i64* %..inline.addr.320, align 8, !tbaa !3556, !dbg !3523
	br label %L..inline.22213
L..inline.22213:
	%317 = load %struct._Z6FsGridISt5arrayIdLm18EELi2EE*, %struct._Z6FsGridISt5arrayIdLm18EELi2EE** %..inline.addr.7, align 8, !tbaa !3551, !dbg !3523
	%318 = bitcast %struct._Z6FsGridISt5arrayIdLm18EELi2EE*  %317 to i8*, !dbg !3523
	%319 = getelementptr i8, i8*  %318, i64 256, !dbg !3523
	%320 = bitcast i8*  %319 to i32*, !dbg !3523
	%321 = load i32, i32*  %320, align 4, !tbaa !3552, !dbg !3523
	%322 = icmp sle i32  %321, 1, !dbg !3523
	br i1  %322, label %L..inline.22262, label %L.B0869, !dbg !3523
L.B0869:
	%323 = load i64, i64* %..inline.addr.320, align 8, !tbaa !3556, !dbg !3523
	%324 = bitcast %struct._Z6FsGridISt5arrayIdLm18EELi2EE*  %317 to i8*, !dbg !3523
	%325 = getelementptr i8, i8*  %324, i64 276, !dbg !3523
	%326 = bitcast i8*  %325 to i32*, !dbg !3523
	%327 = load i32, i32*  %326, align 4, !tbaa !3552, !dbg !3523
	%328 = load i32, i32* %..inline.addr.9, align 4, !tbaa !3554, !dbg !3523
	%329 = add i32  %328, 2, !dbg !3523
	%330 = mul i32  %327,  %329, !dbg !3523
	%331 = sext i32  %330 to i64, !dbg !3523
	%332 = add i64  %323,  %331, !dbg !3523
	store i64  %332, i64* %..inline.addr.320, align 8, !tbaa !3556, !dbg !3523
	br label %L..inline.22262
L..inline.22262:
	%333 = load %struct._Z6FsGridISt5arrayIdLm18EELi2EE*, %struct._Z6FsGridISt5arrayIdLm18EELi2EE** %..inline.addr.7, align 8, !tbaa !3551, !dbg !3523
	%334 = bitcast %struct._Z6FsGridISt5arrayIdLm18EELi2EE*  %333 to i8*, !dbg !3523
	%335 = getelementptr i8, i8*  %334, i64 252, !dbg !3523
	%336 = bitcast i8*  %335 to i32*, !dbg !3523
	%337 = load i32, i32*  %336, align 4, !tbaa !3552, !dbg !3523
	%338 = icmp sle i32  %337, 1, !dbg !3523
	%339 = zext i1  %338 to i32, !dbg !3523
	%340 = trunc i32  %339 to i1, !dbg !3523
	%341 = load i64, i64* %..inline.addr.320, align 8, !tbaa !3556, !dbg !3523
	%342 = load i32, i32* %..inline.addr.8, align 4, !tbaa !3554, !dbg !3523
	%343 = sext i32  %342 to i64, !dbg !3523
	%344 = add i64  %343, 2, !dbg !3523
	%345 = add i64  %341,  %344, !dbg !3523
	%346 = select i1  %340, i64  %341, i64  %345, !dbg !3523
	%347 = getelementptr i8, i8*  %334, i64 744, !dbg !3524
	%348 = bitcast i8*  %347 to i8**, !dbg !3524
	%349 = load i8*, i8**  %348, align 8, !tbaa !3551, !dbg !3524
	%350 = mul i64  %346, 144, !dbg !3524
	%351 = getelementptr i8, i8*  %349, i64  %350, !dbg !3524
	%352 = bitcast %struct._ZSt5arrayIdLm18EE** %..inline.addr.310 to i8**, !dbg !3524
	store i8*  %351, i8**  %352, align 8, !tbaa !3551, !dbg !3524
	br label %L..inline.22308
L..inline.22308:
	%353 = load %struct._ZSt5arrayIdLm18EE*, %struct._ZSt5arrayIdLm18EE** %..inline.addr.310, align 8, !tbaa !3551, !dbg !3525
	%354 = bitcast %struct._ZSt5arrayIdLm18EE*  %353 to i8*, !dbg !3525
	%355 = bitcast %struct._ZSt5arrayIdLm18EE** %..inline.addr.330 to i8**, !dbg !3525
	store i8*  %354, i8**  %355, align 8, !tbaa !3551, !dbg !3525
	%356 = load i32, i32* %fComponent.addr, align 4, !tbaa !3554, !dbg !3501
	%357 = zext i32  %356 to i64, !dbg !3501
	store i64  %357, i64* %..inline.addr.340, align 8, !tbaa !3556, !dbg !3501
	%358 = icmp ult i64  %357, 18, !dbg !3501
	br i1  %358, label %L..inline.22311, label %L.B0870, !dbg !3501
L.B0870:
	%359 = bitcast [52 x i8]* @.S12573 to i8*, !dbg !3526
	call void (i8*, ...)  @_ZSt24__throw_out_of_range_fmtPKcz (i8*  %359, i64  %357, i64 18) noreturn, !dbg !3526
	br label %L..inline.22311
L..inline.22311:
	%360 = load %struct._ZSt5arrayIdLm18EE*, %struct._ZSt5arrayIdLm18EE** %..inline.addr.330, align 8, !tbaa !3551, !dbg !3527
	%361 = bitcast %struct._ZSt5arrayIdLm18EE*  %360 to i8*, !dbg !3527
	%362 = load i64, i64* %..inline.addr.340, align 8, !tbaa !3556, !dbg !3527
	%363 = mul i64  %362, 8, !dbg !3527
	%364 = getelementptr i8, i8*  %361, i64  %363, !dbg !3527
	%365 = bitcast double** %..inline.addr.350 to i8**, !dbg !3527
	store i8*  %364, i8**  %365, align 8, !tbaa !3551, !dbg !3527
	%366 = load %struct.FieldFunction*, %struct.FieldFunction** %bgFunction.addr, align 8, !tbaa !3551, !dbg !3528
	%367 = bitcast %struct.FieldFunction*  %366 to %struct.T3DFunction*, !dbg !3528
	%368 = load i32, i32* %fComponent.addr, align 4, !tbaa !3554, !dbg !3528
	%369 = bitcast [3 x double]* %start.addr to double*, !dbg !3528
	%370 = zext i32  %368 to i64, !dbg !3528
	%371 = bitcast [3 x i32]* %faceCoord1.addr to i32*, !dbg !3528
	%372 = getelementptr i32, i32*  %371, i64  %370, !dbg !3528
	%373 = load i32, i32*  %372, align 4, !tbaa !3552, !dbg !3528
	%374 = zext i32  %373 to i64, !dbg !3528
	%375 = bitcast [3 x double]* %dx.addr to double*, !dbg !3528
	%376 = getelementptr double, double*  %375, i64  %374, !dbg !3528
	%377 = load double, double*  %376, align 8, !tbaa !3552, !dbg !3528
	%378 = bitcast [3 x i32]* %faceCoord2.addr to i32*, !dbg !3528
	%379 = getelementptr i32, i32*  %378, i64  %370, !dbg !3528
	%380 = load i32, i32*  %379, align 4, !tbaa !3552, !dbg !3528
	%381 = zext i32  %380 to i64, !dbg !3528
	%382 = getelementptr double, double*  %375, i64  %381, !dbg !3528
	%383 = load double, double*  %382, align 8, !tbaa !3552, !dbg !3528
	%384 = call double  @_Z14surfaceAverageRK11T3DFunction10coordinatedPKddd (%struct.T3DFunction*  %367, i32  %368, double  1.00000000000000007E-17, double*  %369, double  %377, double  %383), !dbg !3528
	store double  %384, double* %.Q0003.addr, align 8, !tbaa !3558, !dbg !3528
	%385 = load double*, double** %..inline.addr.350, align 8, !tbaa !3551, !dbg !3528
	%386 = load double, double*  %385, align 8, !tbaa !3552, !dbg !3528
	%387 = fadd double  %384,  %386, !dbg !3528
	store double  %387, double*  %385, align 8, !tbaa !3552, !dbg !3528
	%388 = load %struct.FieldFunction*, %struct.FieldFunction** %bgFunction.addr, align 8, !tbaa !3551, !dbg !3529
	%389 = bitcast %struct.FieldFunction*  %388 to i8*, !dbg !3529
	%390 = getelementptr i8, i8*  %389, i64 16, !dbg !3529
	%391 = bitcast i8*  %390 to i32*, !dbg !3529
	store i32 1, i32*  %391, align 4, !tbaa !3552, !dbg !3529
	%392 = load i32, i32* %fComponent.addr, align 4, !tbaa !3554, !dbg !3530
	%393 = zext i32  %392 to i64, !dbg !3530
	%394 = getelementptr i32, i32*  %371, i64  %393, !dbg !3530
	%395 = load i32, i32*  %394, align 4, !tbaa !3552, !dbg !3530
	%396 = getelementptr i8, i8*  %389, i64 12, !dbg !3530
	%397 = bitcast i8*  %396 to i32*, !dbg !3530
	store i32  %395, i32*  %397, align 4, !tbaa !3552, !dbg !3530
	%398 = load %struct._Z6FsGridISt5arrayIdLm18EELi2EE*, %struct._Z6FsGridISt5arrayIdLm18EELi2EE** %BgBGrid.addr, align 8, !tbaa !3551, !dbg !3531
	%399 = bitcast %struct._Z6FsGridISt5arrayIdLm18EELi2EE*  %398 to i8*, !dbg !3531
	%400 = bitcast %struct._Z6FsGridISt5arrayIdLm18EELi2EE** %..inline.addr.370 to i8**, !dbg !3531
	store i8*  %399, i8**  %400, align 8, !tbaa !3551, !dbg !3531
	%401 = load i32, i32* %x.addr, align 4, !tbaa !3554, !dbg !3531
	store i32  %401, i32* %..inline.addr.380, align 4, !tbaa !3554, !dbg !3531
	%402 = load i32, i32* %y.addr, align 4, !tbaa !3554, !dbg !3531
	store i32  %402, i32* %..inline.addr.390, align 4, !tbaa !3554, !dbg !3531
	%403 = load i32, i32* %z.addr, align 4, !tbaa !3554, !dbg !3531
	store i32  %403, i32* %..inline.addr.400, align 4, !tbaa !3554, !dbg !3531
	store i32 13, i32* %..inline.addr.410, align 4, !tbaa !3554, !dbg !3531
	%404 = bitcast [3 x i32]* %..inline.addr.420 to i32*, !dbg !3502
	store i32 0, i32*  %404, align 4, !tbaa !3552, !dbg !3502
	%405 = bitcast [3 x i32]* %..inline.addr.420 to i8*, !dbg !3503
	%406 = getelementptr i8, i8*  %405, i64 4, !dbg !3503
	%407 = bitcast i8*  %406 to i32*, !dbg !3503
	store i32 0, i32*  %407, align 4, !tbaa !3552, !dbg !3503
	%408 = getelementptr i8, i8*  %405, i64 8, !dbg !3503
	%409 = bitcast i8*  %408 to i32*, !dbg !3503
	store i32 0, i32*  %409, align 4, !tbaa !3552, !dbg !3503
	%410 = icmp sge i32  %401, 0, !dbg !3503
	br i1  %410, label %L..inline.22395, label %L.B0871, !dbg !3503
L.B0871:
	store i32 4, i32* %..inline.addr.410, align 4, !tbaa !3554, !dbg !3504
	%411 = bitcast [3 x i32]* %..inline.addr.420 to i32*, !dbg !3505
	store i32 1, i32*  %411, align 4, !tbaa !3552, !dbg !3505
	br label %L..inline.22395
L..inline.22395:
	%412 = load i32, i32* %..inline.addr.380, align 4, !tbaa !3554, !dbg !3506
	%413 = load %struct._Z6FsGridISt5arrayIdLm18EELi2EE*, %struct._Z6FsGridISt5arrayIdLm18EELi2EE** %..inline.addr.370, align 8, !tbaa !3551, !dbg !3506
	%414 = bitcast %struct._Z6FsGridISt5arrayIdLm18EELi2EE*  %413 to i8*, !dbg !3506
	%415 = getelementptr i8, i8*  %414, i64 264, !dbg !3506
	%416 = bitcast i8*  %415 to i32*, !dbg !3506
	%417 = load i32, i32*  %416, align 4, !tbaa !3552, !dbg !3506
	%418 = icmp slt i32  %412,  %417, !dbg !3506
	br i1  %418, label %L..inline.22413, label %L.B0872, !dbg !3506
L.B0872:
	%419 = load i32, i32* %..inline.addr.410, align 4, !tbaa !3554, !dbg !3506
	%420 = add i32  %419, 9, !dbg !3506
	store i32  %420, i32* %..inline.addr.410, align 4, !tbaa !3554, !dbg !3506
	%421 = bitcast [3 x i32]* %..inline.addr.420 to i32*, !dbg !3507
	store i32 -1, i32*  %421, align 4, !tbaa !3552, !dbg !3507
	br label %L..inline.22413
L..inline.22413:
	%422 = load i32, i32* %..inline.addr.390, align 4, !tbaa !3554, !dbg !3508
	%423 = icmp sge i32  %422, 0, !dbg !3508
	br i1  %423, label %L..inline.22415, label %L.B0873, !dbg !3508
L.B0873:
	%424 = load i32, i32* %..inline.addr.410, align 4, !tbaa !3554, !dbg !3508
	%425 = sub i32  %424, 3, !dbg !3508
	store i32  %425, i32* %..inline.addr.410, align 4, !tbaa !3554, !dbg !3508
	%426 = bitcast [3 x i32]* %..inline.addr.420 to i8*, !dbg !3509
	%427 = getelementptr i8, i8*  %426, i64 4, !dbg !3509
	%428 = bitcast i8*  %427 to i32*, !dbg !3509
	store i32 1, i32*  %428, align 4, !tbaa !3552, !dbg !3509
	br label %L..inline.22415
L..inline.22415:
	%429 = load i32, i32* %..inline.addr.390, align 4, !tbaa !3554, !dbg !3510
	%430 = load %struct._Z6FsGridISt5arrayIdLm18EELi2EE*, %struct._Z6FsGridISt5arrayIdLm18EELi2EE** %..inline.addr.370, align 8, !tbaa !3551, !dbg !3510
	%431 = bitcast %struct._Z6FsGridISt5arrayIdLm18EELi2EE*  %430 to i8*, !dbg !3510
	%432 = getelementptr i8, i8*  %431, i64 268, !dbg !3510
	%433 = bitcast i8*  %432 to i32*, !dbg !3510
	%434 = load i32, i32*  %433, align 4, !tbaa !3552, !dbg !3510
	%435 = icmp slt i32  %429,  %434, !dbg !3510
	br i1  %435, label %L..inline.22432, label %L.B0874, !dbg !3510
L.B0874:
	%436 = load i32, i32* %..inline.addr.410, align 4, !tbaa !3554, !dbg !3510
	%437 = add i32  %436, 3, !dbg !3510
	store i32  %437, i32* %..inline.addr.410, align 4, !tbaa !3554, !dbg !3510
	%438 = bitcast [3 x i32]* %..inline.addr.420 to i8*, !dbg !3511
	%439 = getelementptr i8, i8*  %438, i64 4, !dbg !3511
	%440 = bitcast i8*  %439 to i32*, !dbg !3511
	store i32 -1, i32*  %440, align 4, !tbaa !3552, !dbg !3511
	br label %L..inline.22432
L..inline.22432:
	%441 = load i32, i32* %..inline.addr.400, align 4, !tbaa !3554, !dbg !3512
	%442 = icmp sge i32  %441, 0, !dbg !3512
	br i1  %442, label %L..inline.22434, label %L.B0875, !dbg !3512
L.B0875:
	%443 = load i32, i32* %..inline.addr.410, align 4, !tbaa !3554, !dbg !3512
	%444 = sub i32  %443, 1, !dbg !3512
	store i32  %444, i32* %..inline.addr.410, align 4, !tbaa !3554, !dbg !3512
	%445 = bitcast [3 x i32]* %..inline.addr.420 to i8*, !dbg !3513
	%446 = getelementptr i8, i8*  %445, i64 8, !dbg !3513
	%447 = bitcast i8*  %446 to i32*, !dbg !3513
	store i32 1, i32*  %447, align 4, !tbaa !3552, !dbg !3513
	br label %L..inline.22434
L..inline.22434:
	%448 = load i32, i32* %..inline.addr.400, align 4, !tbaa !3554, !dbg !3514
	%449 = load %struct._Z6FsGridISt5arrayIdLm18EELi2EE*, %struct._Z6FsGridISt5arrayIdLm18EELi2EE** %..inline.addr.370, align 8, !tbaa !3551, !dbg !3514
	%450 = bitcast %struct._Z6FsGridISt5arrayIdLm18EELi2EE*  %449 to i8*, !dbg !3514
	%451 = getelementptr i8, i8*  %450, i64 272, !dbg !3514
	%452 = bitcast i8*  %451 to i32*, !dbg !3514
	%453 = load i32, i32*  %452, align 4, !tbaa !3552, !dbg !3514
	%454 = icmp slt i32  %448,  %453, !dbg !3514
	br i1  %454, label %L..inline.22451, label %L.B0876, !dbg !3514
L.B0876:
	%455 = load i32, i32* %..inline.addr.410, align 4, !tbaa !3554, !dbg !3514
	%456 = add i32  %455, 1, !dbg !3514
	store i32  %456, i32* %..inline.addr.410, align 4, !tbaa !3554, !dbg !3514
	%457 = bitcast [3 x i32]* %..inline.addr.420 to i8*, !dbg !3515
	%458 = getelementptr i8, i8*  %457, i64 8, !dbg !3515
	%459 = bitcast i8*  %458 to i32*, !dbg !3515
	store i32 -1, i32*  %459, align 4, !tbaa !3552, !dbg !3515
	br label %L..inline.22451
L..inline.22451:
	%460 = load i32, i32* %..inline.addr.410, align 4, !tbaa !3554, !dbg !3516
	%461 = icmp eq i32  %460, 13, !dbg !3516
	br i1  %461, label %L..inline.22452, label %L.B0877, !dbg !3516
L.B0877:
	%462 = sext i32  %460 to i64, !dbg !3517
	%463 = load %struct._Z6FsGridISt5arrayIdLm18EELi2EE*, %struct._Z6FsGridISt5arrayIdLm18EELi2EE** %..inline.addr.370, align 8, !tbaa !3551, !dbg !3517
	%464 = bitcast %struct._Z6FsGridISt5arrayIdLm18EELi2EE*  %463 to i8*, !dbg !3517
	%465 = getelementptr i8, i8*  %464, i64 92, !dbg !3517
	%466 = bitcast i8*  %465 to i32*, !dbg !3517
	%467 = getelementptr i32, i32*  %466, i64  %462, !dbg !3517
	%468 = load i32, i32*  %467, align 4, !tbaa !3552, !dbg !3517
	%469 = icmp ne i32  %468, -2, !dbg !3517
	br i1  %469, label %L..inline.22469, label %L.B0878, !dbg !3517
L.B0878:
	%470 = bitcast %struct._ZSt5arrayIdLm18EE** %..inline.addr.430 to i8**, !dbg !3517
	store i8* null, i8**  %470, align 8, !tbaa !3551, !dbg !3517
	br label %L..inline.22656, !dbg !3518
L..inline.22469:
	%471 = load i32, i32* %..inline.addr.410, align 4, !tbaa !3554, !dbg !3519
	%472 = sext i32  %471 to i64, !dbg !3519
	%473 = load %struct._Z6FsGridISt5arrayIdLm18EELi2EE*, %struct._Z6FsGridISt5arrayIdLm18EELi2EE** %..inline.addr.370, align 8, !tbaa !3551, !dbg !3519
	%474 = bitcast %struct._Z6FsGridISt5arrayIdLm18EELi2EE*  %473 to i8*, !dbg !3519
	%475 = getelementptr i8, i8*  %474, i64 92, !dbg !3519
	%476 = bitcast i8*  %475 to i32*, !dbg !3519
	%477 = getelementptr i32, i32*  %476, i64  %472, !dbg !3519
	%478 = load i32, i32*  %477, align 4, !tbaa !3552, !dbg !3519
	%479 = getelementptr i8, i8*  %474, i64 56, !dbg !3519
	%480 = bitcast i8*  %479 to i32*, !dbg !3519
	%481 = load i32, i32*  %480, align 4, !tbaa !3552, !dbg !3519
	%482 = icmp ne i32  %478,  %481, !dbg !3519
	br i1  %482, label %L..inline.22487, label %L.B0879, !dbg !3519
L.B0879:
	%483 = load i32, i32* %..inline.addr.380, align 4, !tbaa !3554, !dbg !3520
	%484 = bitcast [3 x i32]* %..inline.addr.420 to i32*, !dbg !3520
	%485 = load i32, i32*  %484, align 4, !tbaa !3552, !dbg !3520
	%486 = bitcast %struct._Z6FsGridISt5arrayIdLm18EELi2EE*  %473 to i8*, !dbg !3520
	%487 = getelementptr i8, i8*  %486, i64 264, !dbg !3520
	%488 = bitcast i8*  %487 to i32*, !dbg !3520
	%489 = load i32, i32*  %488, align 4, !tbaa !3552, !dbg !3520
	%490 = mul i32  %485,  %489, !dbg !3520
	%491 = add i32  %483,  %490, !dbg !3520
	store i32  %491, i32* %..inline.addr.380, align 4, !tbaa !3554, !dbg !3520
	%492 = load i32, i32* %..inline.addr.390, align 4, !tbaa !3554, !dbg !3521
	%493 = bitcast [3 x i32]* %..inline.addr.420 to i8*, !dbg !3521
	%494 = getelementptr i8, i8*  %493, i64 4, !dbg !3521
	%495 = bitcast i8*  %494 to i32*, !dbg !3521
	%496 = load i32, i32*  %495, align 4, !tbaa !3552, !dbg !3521
	%497 = getelementptr i8, i8*  %486, i64 268, !dbg !3521
	%498 = bitcast i8*  %497 to i32*, !dbg !3521
	%499 = load i32, i32*  %498, align 4, !tbaa !3552, !dbg !3521
	%500 = mul i32  %496,  %499, !dbg !3521
	%501 = add i32  %492,  %500, !dbg !3521
	store i32  %501, i32* %..inline.addr.390, align 4, !tbaa !3554, !dbg !3521
	%502 = load i32, i32* %..inline.addr.400, align 4, !tbaa !3554, !dbg !3522
	%503 = getelementptr i8, i8*  %493, i64 8, !dbg !3522
	%504 = bitcast i8*  %503 to i32*, !dbg !3522
	%505 = load i32, i32*  %504, align 4, !tbaa !3552, !dbg !3522
	%506 = getelementptr i8, i8*  %486, i64 272, !dbg !3522
	%507 = bitcast i8*  %506 to i32*, !dbg !3522
	%508 = load i32, i32*  %507, align 4, !tbaa !3552, !dbg !3522
	%509 = mul i32  %505,  %508, !dbg !3522
	%510 = add i32  %502,  %509, !dbg !3522
	store i32  %510, i32* %..inline.addr.400, align 4, !tbaa !3554, !dbg !3522
	br label %L..inline.22487
L..inline.22487:
	br label %L..inline.22452
L..inline.22452:
	store i64 0, i64* %..inline.addr.440, align 8, !tbaa !3556, !dbg !3523
	%511 = load %struct._Z6FsGridISt5arrayIdLm18EELi2EE*, %struct._Z6FsGridISt5arrayIdLm18EELi2EE** %..inline.addr.370, align 8, !tbaa !3551, !dbg !3523
	%512 = bitcast %struct._Z6FsGridISt5arrayIdLm18EELi2EE*  %511 to i8*, !dbg !3523
	%513 = getelementptr i8, i8*  %512, i64 260, !dbg !3523
	%514 = bitcast i8*  %513 to i32*, !dbg !3523
	%515 = load i32, i32*  %514, align 4, !tbaa !3552, !dbg !3523
	%516 = icmp sle i32  %515, 1, !dbg !3523
	br i1  %516, label %L..inline.22561, label %L.B0880, !dbg !3523
L.B0880:
	%517 = load i32, i32* %..inline.addr.400, align 4, !tbaa !3554, !dbg !3523
	%518 = add i32  %517, 2, !dbg !3523
	%519 = bitcast %struct._Z6FsGridISt5arrayIdLm18EELi2EE*  %511 to i8*, !dbg !3523
	%520 = getelementptr i8, i8*  %519, i64 280, !dbg !3523
	%521 = bitcast i8*  %520 to i32*, !dbg !3523
	%522 = load i32, i32*  %521, align 4, !tbaa !3552, !dbg !3523
	%523 = getelementptr i8, i8*  %519, i64 276, !dbg !3523
	%524 = bitcast i8*  %523 to i32*, !dbg !3523
	%525 = load i32, i32*  %524, align 4, !tbaa !3552, !dbg !3523
	%526 = mul i32  %522,  %525, !dbg !3523
	%527 = mul i32  %518,  %526, !dbg !3523
	%528 = sext i32  %527 to i64, !dbg !3523
	store i64  %528, i64* %..inline.addr.440, align 8, !tbaa !3556, !dbg !3523
	br label %L..inline.22561
L..inline.22561:
	%529 = load %struct._Z6FsGridISt5arrayIdLm18EELi2EE*, %struct._Z6FsGridISt5arrayIdLm18EELi2EE** %..inline.addr.370, align 8, !tbaa !3551, !dbg !3523
	%530 = bitcast %struct._Z6FsGridISt5arrayIdLm18EELi2EE*  %529 to i8*, !dbg !3523
	%531 = getelementptr i8, i8*  %530, i64 256, !dbg !3523
	%532 = bitcast i8*  %531 to i32*, !dbg !3523
	%533 = load i32, i32*  %532, align 4, !tbaa !3552, !dbg !3523
	%534 = icmp sle i32  %533, 1, !dbg !3523
	br i1  %534, label %L..inline.22610, label %L.B0881, !dbg !3523
L.B0881:
	%535 = load i64, i64* %..inline.addr.440, align 8, !tbaa !3556, !dbg !3523
	%536 = bitcast %struct._Z6FsGridISt5arrayIdLm18EELi2EE*  %529 to i8*, !dbg !3523
	%537 = getelementptr i8, i8*  %536, i64 276, !dbg !3523
	%538 = bitcast i8*  %537 to i32*, !dbg !3523
	%539 = load i32, i32*  %538, align 4, !tbaa !3552, !dbg !3523
	%540 = load i32, i32* %..inline.addr.390, align 4, !tbaa !3554, !dbg !3523
	%541 = add i32  %540, 2, !dbg !3523
	%542 = mul i32  %539,  %541, !dbg !3523
	%543 = sext i32  %542 to i64, !dbg !3523
	%544 = add i64  %535,  %543, !dbg !3523
	store i64  %544, i64* %..inline.addr.440, align 8, !tbaa !3556, !dbg !3523
	br label %L..inline.22610
L..inline.22610:
	%545 = load %struct._Z6FsGridISt5arrayIdLm18EELi2EE*, %struct._Z6FsGridISt5arrayIdLm18EELi2EE** %..inline.addr.370, align 8, !tbaa !3551, !dbg !3523
	%546 = bitcast %struct._Z6FsGridISt5arrayIdLm18EELi2EE*  %545 to i8*, !dbg !3523
	%547 = getelementptr i8, i8*  %546, i64 252, !dbg !3523
	%548 = bitcast i8*  %547 to i32*, !dbg !3523
	%549 = load i32, i32*  %548, align 4, !tbaa !3552, !dbg !3523
	%550 = icmp sle i32  %549, 1, !dbg !3523
	%551 = zext i1  %550 to i32, !dbg !3523
	%552 = trunc i32  %551 to i1, !dbg !3523
	%553 = load i64, i64* %..inline.addr.440, align 8, !tbaa !3556, !dbg !3523
	%554 = load i32, i32* %..inline.addr.380, align 4, !tbaa !3554, !dbg !3523
	%555 = sext i32  %554 to i64, !dbg !3523
	%556 = add i64  %555, 2, !dbg !3523
	%557 = add i64  %553,  %556, !dbg !3523
	%558 = select i1  %552, i64  %553, i64  %557, !dbg !3523
	%559 = getelementptr i8, i8*  %546, i64 744, !dbg !3524
	%560 = bitcast i8*  %559 to i8**, !dbg !3524
	%561 = load i8*, i8**  %560, align 8, !tbaa !3551, !dbg !3524
	%562 = mul i64  %558, 144, !dbg !3524
	%563 = getelementptr i8, i8*  %561, i64  %562, !dbg !3524
	%564 = bitcast %struct._ZSt5arrayIdLm18EE** %..inline.addr.430 to i8**, !dbg !3524
	store i8*  %563, i8**  %564, align 8, !tbaa !3551, !dbg !3524
	br label %L..inline.22656
L..inline.22656:
	%565 = load %struct._ZSt5arrayIdLm18EE*, %struct._ZSt5arrayIdLm18EE** %..inline.addr.430, align 8, !tbaa !3551, !dbg !3525
	%566 = bitcast %struct._ZSt5arrayIdLm18EE*  %565 to i8*, !dbg !3525
	%567 = bitcast %struct._ZSt5arrayIdLm18EE** %..inline.addr.450 to i8**, !dbg !3525
	store i8*  %566, i8**  %567, align 8, !tbaa !3551, !dbg !3525
	%568 = load i32, i32* %fComponent.addr, align 4, !tbaa !3554, !dbg !3531
	%569 = mul i32  %568, 2, !dbg !3531
	%570 = add i32  %569, 6, !dbg !3531
	%571 = zext i32  %570 to i64, !dbg !3531
	store i64  %571, i64* %..inline.addr.460, align 8, !tbaa !3556, !dbg !3531
	%572 = icmp ult i64  %571, 18, !dbg !3531
	br i1  %572, label %L..inline.22659, label %L.B0882, !dbg !3531
L.B0882:
	%573 = bitcast [52 x i8]* @.S12573 to i8*, !dbg !3526
	call void (i8*, ...)  @_ZSt24__throw_out_of_range_fmtPKcz (i8*  %573, i64  %571, i64 18) noreturn, !dbg !3526
	br label %L..inline.22659
L..inline.22659:
	%574 = load %struct._ZSt5arrayIdLm18EE*, %struct._ZSt5arrayIdLm18EE** %..inline.addr.450, align 8, !tbaa !3551, !dbg !3527
	%575 = bitcast %struct._ZSt5arrayIdLm18EE*  %574 to i8*, !dbg !3527
	%576 = load i64, i64* %..inline.addr.460, align 8, !tbaa !3556, !dbg !3527
	%577 = mul i64  %576, 8, !dbg !3527
	%578 = getelementptr i8, i8*  %575, i64  %577, !dbg !3527
	%579 = bitcast double** %..inline.addr.470 to i8**, !dbg !3527
	store i8*  %578, i8**  %579, align 8, !tbaa !3551, !dbg !3527
	%580 = load %struct.FieldFunction*, %struct.FieldFunction** %bgFunction.addr, align 8, !tbaa !3551, !dbg !3528
	%581 = bitcast %struct.FieldFunction*  %580 to %struct.T3DFunction*, !dbg !3528
	%582 = load i32, i32* %fComponent.addr, align 4, !tbaa !3554, !dbg !3528
	%583 = bitcast [3 x double]* %start.addr to double*, !dbg !3528
	%584 = zext i32  %582 to i64, !dbg !3528
	%585 = bitcast [3 x i32]* %faceCoord1.addr to i32*, !dbg !3528
	%586 = getelementptr i32, i32*  %585, i64  %584, !dbg !3528
	%587 = load i32, i32*  %586, align 4, !tbaa !3552, !dbg !3528
	%588 = zext i32  %587 to i64, !dbg !3528
	%589 = bitcast [3 x double]* %dx.addr to double*, !dbg !3528
	%590 = getelementptr double, double*  %589, i64  %588, !dbg !3528
	%591 = load double, double*  %590, align 8, !tbaa !3552, !dbg !3528
	%592 = bitcast [3 x i32]* %faceCoord2.addr to i32*, !dbg !3528
	%593 = getelementptr i32, i32*  %592, i64  %584, !dbg !3528
	%594 = load i32, i32*  %593, align 4, !tbaa !3552, !dbg !3528
	%595 = zext i32  %594 to i64, !dbg !3528
	%596 = getelementptr double, double*  %589, i64  %595, !dbg !3528
	%597 = load double, double*  %596, align 8, !tbaa !3552, !dbg !3528
	%598 = call double  @_Z14surfaceAverageRK11T3DFunction10coordinatedPKddd (%struct.T3DFunction*  %581, i32  %582, double  1.00000000000000007E-17, double*  %583, double  %591, double  %597), !dbg !3528
	store double  %598, double* %.Q0007.addr, align 8, !tbaa !3558, !dbg !3528
	%599 = load i32, i32* %fComponent.addr, align 4, !tbaa !3554, !dbg !3528
	%600 = zext i32  %599 to i64, !dbg !3528
	%601 = getelementptr i32, i32*  %585, i64  %600, !dbg !3528
	%602 = load i32, i32*  %601, align 4, !tbaa !3552, !dbg !3528
	%603 = zext i32  %602 to i64, !dbg !3528
	%604 = getelementptr double, double*  %589, i64  %603, !dbg !3528
	%605 = load double, double*  %604, align 8, !tbaa !3552, !dbg !3528
	%606 = load double*, double** %..inline.addr.470, align 8, !tbaa !3551, !dbg !3528
	%607 = load double, double*  %606, align 8, !tbaa !3552, !dbg !3528
	%608 = call double @llvm.fma.f64 (double  %605, double  %598, double  %607), !dbg !3528
	store double  %608, double*  %606, align 8, !tbaa !3552, !dbg !3528
	%609 = getelementptr i32, i32*  %592, i64  %600, !dbg !3532
	%610 = load i32, i32*  %609, align 4, !tbaa !3552, !dbg !3532
	%611 = load %struct.FieldFunction*, %struct.FieldFunction** %bgFunction.addr, align 8, !tbaa !3551, !dbg !3532
	%612 = bitcast %struct.FieldFunction*  %611 to i8*, !dbg !3532
	%613 = getelementptr i8, i8*  %612, i64 12, !dbg !3532
	%614 = bitcast i8*  %613 to i32*, !dbg !3532
	store i32  %610, i32*  %614, align 4, !tbaa !3552, !dbg !3532
	%615 = load %struct._Z6FsGridISt5arrayIdLm18EELi2EE*, %struct._Z6FsGridISt5arrayIdLm18EELi2EE** %BgBGrid.addr, align 8, !tbaa !3551, !dbg !3533
	%616 = bitcast %struct._Z6FsGridISt5arrayIdLm18EELi2EE*  %615 to i8*, !dbg !3533
	%617 = bitcast %struct._Z6FsGridISt5arrayIdLm18EELi2EE** %..inline.addr.490 to i8**, !dbg !3533
	store i8*  %616, i8**  %617, align 8, !tbaa !3551, !dbg !3533
	%618 = load i32, i32* %x.addr, align 4, !tbaa !3554, !dbg !3533
	store i32  %618, i32* %..inline.addr.500, align 4, !tbaa !3554, !dbg !3533
	%619 = load i32, i32* %y.addr, align 4, !tbaa !3554, !dbg !3533
	store i32  %619, i32* %..inline.addr.510, align 4, !tbaa !3554, !dbg !3533
	%620 = load i32, i32* %z.addr, align 4, !tbaa !3554, !dbg !3533
	store i32  %620, i32* %..inline.addr.520, align 4, !tbaa !3554, !dbg !3533
	store i32 13, i32* %..inline.addr.530, align 4, !tbaa !3554, !dbg !3533
	%621 = bitcast [3 x i32]* %..inline.addr.540 to i32*, !dbg !3502
	store i32 0, i32*  %621, align 4, !tbaa !3552, !dbg !3502
	%622 = bitcast [3 x i32]* %..inline.addr.540 to i8*, !dbg !3503
	%623 = getelementptr i8, i8*  %622, i64 4, !dbg !3503
	%624 = bitcast i8*  %623 to i32*, !dbg !3503
	store i32 0, i32*  %624, align 4, !tbaa !3552, !dbg !3503
	%625 = getelementptr i8, i8*  %622, i64 8, !dbg !3503
	%626 = bitcast i8*  %625 to i32*, !dbg !3503
	store i32 0, i32*  %626, align 4, !tbaa !3552, !dbg !3503
	%627 = icmp sge i32  %618, 0, !dbg !3503
	br i1  %627, label %L..inline.22684, label %L.B0883, !dbg !3503
L.B0883:
	store i32 4, i32* %..inline.addr.530, align 4, !tbaa !3554, !dbg !3504
	%628 = bitcast [3 x i32]* %..inline.addr.540 to i32*, !dbg !3505
	store i32 1, i32*  %628, align 4, !tbaa !3552, !dbg !3505
	br label %L..inline.22684
L..inline.22684:
	%629 = load i32, i32* %..inline.addr.500, align 4, !tbaa !3554, !dbg !3506
	%630 = load %struct._Z6FsGridISt5arrayIdLm18EELi2EE*, %struct._Z6FsGridISt5arrayIdLm18EELi2EE** %..inline.addr.490, align 8, !tbaa !3551, !dbg !3506
	%631 = bitcast %struct._Z6FsGridISt5arrayIdLm18EELi2EE*  %630 to i8*, !dbg !3506
	%632 = getelementptr i8, i8*  %631, i64 264, !dbg !3506
	%633 = bitcast i8*  %632 to i32*, !dbg !3506
	%634 = load i32, i32*  %633, align 4, !tbaa !3552, !dbg !3506
	%635 = icmp slt i32  %629,  %634, !dbg !3506
	br i1  %635, label %L..inline.22702, label %L.B0884, !dbg !3506
L.B0884:
	%636 = load i32, i32* %..inline.addr.530, align 4, !tbaa !3554, !dbg !3506
	%637 = add i32  %636, 9, !dbg !3506
	store i32  %637, i32* %..inline.addr.530, align 4, !tbaa !3554, !dbg !3506
	%638 = bitcast [3 x i32]* %..inline.addr.540 to i32*, !dbg !3507
	store i32 -1, i32*  %638, align 4, !tbaa !3552, !dbg !3507
	br label %L..inline.22702
L..inline.22702:
	%639 = load i32, i32* %..inline.addr.510, align 4, !tbaa !3554, !dbg !3508
	%640 = icmp sge i32  %639, 0, !dbg !3508
	br i1  %640, label %L..inline.22704, label %L.B0885, !dbg !3508
L.B0885:
	%641 = load i32, i32* %..inline.addr.530, align 4, !tbaa !3554, !dbg !3508
	%642 = sub i32  %641, 3, !dbg !3508
	store i32  %642, i32* %..inline.addr.530, align 4, !tbaa !3554, !dbg !3508
	%643 = bitcast [3 x i32]* %..inline.addr.540 to i8*, !dbg !3509
	%644 = getelementptr i8, i8*  %643, i64 4, !dbg !3509
	%645 = bitcast i8*  %644 to i32*, !dbg !3509
	store i32 1, i32*  %645, align 4, !tbaa !3552, !dbg !3509
	br label %L..inline.22704
L..inline.22704:
	%646 = load i32, i32* %..inline.addr.510, align 4, !tbaa !3554, !dbg !3510
	%647 = load %struct._Z6FsGridISt5arrayIdLm18EELi2EE*, %struct._Z6FsGridISt5arrayIdLm18EELi2EE** %..inline.addr.490, align 8, !tbaa !3551, !dbg !3510
	%648 = bitcast %struct._Z6FsGridISt5arrayIdLm18EELi2EE*  %647 to i8*, !dbg !3510
	%649 = getelementptr i8, i8*  %648, i64 268, !dbg !3510
	%650 = bitcast i8*  %649 to i32*, !dbg !3510
	%651 = load i32, i32*  %650, align 4, !tbaa !3552, !dbg !3510
	%652 = icmp slt i32  %646,  %651, !dbg !3510
	br i1  %652, label %L..inline.22721, label %L.B0886, !dbg !3510
L.B0886:
	%653 = load i32, i32* %..inline.addr.530, align 4, !tbaa !3554, !dbg !3510
	%654 = add i32  %653, 3, !dbg !3510
	store i32  %654, i32* %..inline.addr.530, align 4, !tbaa !3554, !dbg !3510
	%655 = bitcast [3 x i32]* %..inline.addr.540 to i8*, !dbg !3511
	%656 = getelementptr i8, i8*  %655, i64 4, !dbg !3511
	%657 = bitcast i8*  %656 to i32*, !dbg !3511
	store i32 -1, i32*  %657, align 4, !tbaa !3552, !dbg !3511
	br label %L..inline.22721
L..inline.22721:
	%658 = load i32, i32* %..inline.addr.520, align 4, !tbaa !3554, !dbg !3512
	%659 = icmp sge i32  %658, 0, !dbg !3512
	br i1  %659, label %L..inline.22723, label %L.B0887, !dbg !3512
L.B0887:
	%660 = load i32, i32* %..inline.addr.530, align 4, !tbaa !3554, !dbg !3512
	%661 = sub i32  %660, 1, !dbg !3512
	store i32  %661, i32* %..inline.addr.530, align 4, !tbaa !3554, !dbg !3512
	%662 = bitcast [3 x i32]* %..inline.addr.540 to i8*, !dbg !3513
	%663 = getelementptr i8, i8*  %662, i64 8, !dbg !3513
	%664 = bitcast i8*  %663 to i32*, !dbg !3513
	store i32 1, i32*  %664, align 4, !tbaa !3552, !dbg !3513
	br label %L..inline.22723
L..inline.22723:
	%665 = load i32, i32* %..inline.addr.520, align 4, !tbaa !3554, !dbg !3514
	%666 = load %struct._Z6FsGridISt5arrayIdLm18EELi2EE*, %struct._Z6FsGridISt5arrayIdLm18EELi2EE** %..inline.addr.490, align 8, !tbaa !3551, !dbg !3514
	%667 = bitcast %struct._Z6FsGridISt5arrayIdLm18EELi2EE*  %666 to i8*, !dbg !3514
	%668 = getelementptr i8, i8*  %667, i64 272, !dbg !3514
	%669 = bitcast i8*  %668 to i32*, !dbg !3514
	%670 = load i32, i32*  %669, align 4, !tbaa !3552, !dbg !3514
	%671 = icmp slt i32  %665,  %670, !dbg !3514
	br i1  %671, label %L..inline.22740, label %L.B0888, !dbg !3514
L.B0888:
	%672 = load i32, i32* %..inline.addr.530, align 4, !tbaa !3554, !dbg !3514
	%673 = add i32  %672, 1, !dbg !3514
	store i32  %673, i32* %..inline.addr.530, align 4, !tbaa !3554, !dbg !3514
	%674 = bitcast [3 x i32]* %..inline.addr.540 to i8*, !dbg !3515
	%675 = getelementptr i8, i8*  %674, i64 8, !dbg !3515
	%676 = bitcast i8*  %675 to i32*, !dbg !3515
	store i32 -1, i32*  %676, align 4, !tbaa !3552, !dbg !3515
	br label %L..inline.22740
L..inline.22740:
	%677 = load i32, i32* %..inline.addr.530, align 4, !tbaa !3554, !dbg !3516
	%678 = icmp eq i32  %677, 13, !dbg !3516
	br i1  %678, label %L..inline.22741, label %L.B0889, !dbg !3516
L.B0889:
	%679 = sext i32  %677 to i64, !dbg !3517
	%680 = load %struct._Z6FsGridISt5arrayIdLm18EELi2EE*, %struct._Z6FsGridISt5arrayIdLm18EELi2EE** %..inline.addr.490, align 8, !tbaa !3551, !dbg !3517
	%681 = bitcast %struct._Z6FsGridISt5arrayIdLm18EELi2EE*  %680 to i8*, !dbg !3517
	%682 = getelementptr i8, i8*  %681, i64 92, !dbg !3517
	%683 = bitcast i8*  %682 to i32*, !dbg !3517
	%684 = getelementptr i32, i32*  %683, i64  %679, !dbg !3517
	%685 = load i32, i32*  %684, align 4, !tbaa !3552, !dbg !3517
	%686 = icmp ne i32  %685, -2, !dbg !3517
	br i1  %686, label %L..inline.22758, label %L.B0890, !dbg !3517
L.B0890:
	%687 = bitcast %struct._ZSt5arrayIdLm18EE** %..inline.addr.550 to i8**, !dbg !3517
	store i8* null, i8**  %687, align 8, !tbaa !3551, !dbg !3517
	br label %L..inline.22945, !dbg !3518
L..inline.22758:
	%688 = load i32, i32* %..inline.addr.530, align 4, !tbaa !3554, !dbg !3519
	%689 = sext i32  %688 to i64, !dbg !3519
	%690 = load %struct._Z6FsGridISt5arrayIdLm18EELi2EE*, %struct._Z6FsGridISt5arrayIdLm18EELi2EE** %..inline.addr.490, align 8, !tbaa !3551, !dbg !3519
	%691 = bitcast %struct._Z6FsGridISt5arrayIdLm18EELi2EE*  %690 to i8*, !dbg !3519
	%692 = getelementptr i8, i8*  %691, i64 92, !dbg !3519
	%693 = bitcast i8*  %692 to i32*, !dbg !3519
	%694 = getelementptr i32, i32*  %693, i64  %689, !dbg !3519
	%695 = load i32, i32*  %694, align 4, !tbaa !3552, !dbg !3519
	%696 = getelementptr i8, i8*  %691, i64 56, !dbg !3519
	%697 = bitcast i8*  %696 to i32*, !dbg !3519
	%698 = load i32, i32*  %697, align 4, !tbaa !3552, !dbg !3519
	%699 = icmp ne i32  %695,  %698, !dbg !3519
	br i1  %699, label %L..inline.22776, label %L.B0891, !dbg !3519
L.B0891:
	%700 = load i32, i32* %..inline.addr.500, align 4, !tbaa !3554, !dbg !3520
	%701 = bitcast [3 x i32]* %..inline.addr.540 to i32*, !dbg !3520
	%702 = load i32, i32*  %701, align 4, !tbaa !3552, !dbg !3520
	%703 = bitcast %struct._Z6FsGridISt5arrayIdLm18EELi2EE*  %690 to i8*, !dbg !3520
	%704 = getelementptr i8, i8*  %703, i64 264, !dbg !3520
	%705 = bitcast i8*  %704 to i32*, !dbg !3520
	%706 = load i32, i32*  %705, align 4, !tbaa !3552, !dbg !3520
	%707 = mul i32  %702,  %706, !dbg !3520
	%708 = add i32  %700,  %707, !dbg !3520
	store i32  %708, i32* %..inline.addr.500, align 4, !tbaa !3554, !dbg !3520
	%709 = load i32, i32* %..inline.addr.510, align 4, !tbaa !3554, !dbg !3521
	%710 = bitcast [3 x i32]* %..inline.addr.540 to i8*, !dbg !3521
	%711 = getelementptr i8, i8*  %710, i64 4, !dbg !3521
	%712 = bitcast i8*  %711 to i32*, !dbg !3521
	%713 = load i32, i32*  %712, align 4, !tbaa !3552, !dbg !3521
	%714 = getelementptr i8, i8*  %703, i64 268, !dbg !3521
	%715 = bitcast i8*  %714 to i32*, !dbg !3521
	%716 = load i32, i32*  %715, align 4, !tbaa !3552, !dbg !3521
	%717 = mul i32  %713,  %716, !dbg !3521
	%718 = add i32  %709,  %717, !dbg !3521
	store i32  %718, i32* %..inline.addr.510, align 4, !tbaa !3554, !dbg !3521
	%719 = load i32, i32* %..inline.addr.520, align 4, !tbaa !3554, !dbg !3522
	%720 = getelementptr i8, i8*  %710, i64 8, !dbg !3522
	%721 = bitcast i8*  %720 to i32*, !dbg !3522
	%722 = load i32, i32*  %721, align 4, !tbaa !3552, !dbg !3522
	%723 = getelementptr i8, i8*  %703, i64 272, !dbg !3522
	%724 = bitcast i8*  %723 to i32*, !dbg !3522
	%725 = load i32, i32*  %724, align 4, !tbaa !3552, !dbg !3522
	%726 = mul i32  %722,  %725, !dbg !3522
	%727 = add i32  %719,  %726, !dbg !3522
	store i32  %727, i32* %..inline.addr.520, align 4, !tbaa !3554, !dbg !3522
	br label %L..inline.22776
L..inline.22776:
	br label %L..inline.22741
L..inline.22741:
	store i64 0, i64* %..inline.addr.560, align 8, !tbaa !3556, !dbg !3523
	%728 = load %struct._Z6FsGridISt5arrayIdLm18EELi2EE*, %struct._Z6FsGridISt5arrayIdLm18EELi2EE** %..inline.addr.490, align 8, !tbaa !3551, !dbg !3523
	%729 = bitcast %struct._Z6FsGridISt5arrayIdLm18EELi2EE*  %728 to i8*, !dbg !3523
	%730 = getelementptr i8, i8*  %729, i64 260, !dbg !3523
	%731 = bitcast i8*  %730 to i32*, !dbg !3523
	%732 = load i32, i32*  %731, align 4, !tbaa !3552, !dbg !3523
	%733 = icmp sle i32  %732, 1, !dbg !3523
	br i1  %733, label %L..inline.22850, label %L.B0892, !dbg !3523
L.B0892:
	%734 = load i32, i32* %..inline.addr.520, align 4, !tbaa !3554, !dbg !3523
	%735 = add i32  %734, 2, !dbg !3523
	%736 = bitcast %struct._Z6FsGridISt5arrayIdLm18EELi2EE*  %728 to i8*, !dbg !3523
	%737 = getelementptr i8, i8*  %736, i64 280, !dbg !3523
	%738 = bitcast i8*  %737 to i32*, !dbg !3523
	%739 = load i32, i32*  %738, align 4, !tbaa !3552, !dbg !3523
	%740 = getelementptr i8, i8*  %736, i64 276, !dbg !3523
	%741 = bitcast i8*  %740 to i32*, !dbg !3523
	%742 = load i32, i32*  %741, align 4, !tbaa !3552, !dbg !3523
	%743 = mul i32  %739,  %742, !dbg !3523
	%744 = mul i32  %735,  %743, !dbg !3523
	%745 = sext i32  %744 to i64, !dbg !3523
	store i64  %745, i64* %..inline.addr.560, align 8, !tbaa !3556, !dbg !3523
	br label %L..inline.22850
L..inline.22850:
	%746 = load %struct._Z6FsGridISt5arrayIdLm18EELi2EE*, %struct._Z6FsGridISt5arrayIdLm18EELi2EE** %..inline.addr.490, align 8, !tbaa !3551, !dbg !3523
	%747 = bitcast %struct._Z6FsGridISt5arrayIdLm18EELi2EE*  %746 to i8*, !dbg !3523
	%748 = getelementptr i8, i8*  %747, i64 256, !dbg !3523
	%749 = bitcast i8*  %748 to i32*, !dbg !3523
	%750 = load i32, i32*  %749, align 4, !tbaa !3552, !dbg !3523
	%751 = icmp sle i32  %750, 1, !dbg !3523
	br i1  %751, label %L..inline.22899, label %L.B0893, !dbg !3523
L.B0893:
	%752 = load i64, i64* %..inline.addr.560, align 8, !tbaa !3556, !dbg !3523
	%753 = bitcast %struct._Z6FsGridISt5arrayIdLm18EELi2EE*  %746 to i8*, !dbg !3523
	%754 = getelementptr i8, i8*  %753, i64 276, !dbg !3523
	%755 = bitcast i8*  %754 to i32*, !dbg !3523
	%756 = load i32, i32*  %755, align 4, !tbaa !3552, !dbg !3523
	%757 = load i32, i32* %..inline.addr.510, align 4, !tbaa !3554, !dbg !3523
	%758 = add i32  %757, 2, !dbg !3523
	%759 = mul i32  %756,  %758, !dbg !3523
	%760 = sext i32  %759 to i64, !dbg !3523
	%761 = add i64  %752,  %760, !dbg !3523
	store i64  %761, i64* %..inline.addr.560, align 8, !tbaa !3556, !dbg !3523
	br label %L..inline.22899
L..inline.22899:
	%762 = load %struct._Z6FsGridISt5arrayIdLm18EELi2EE*, %struct._Z6FsGridISt5arrayIdLm18EELi2EE** %..inline.addr.490, align 8, !tbaa !3551, !dbg !3523
	%763 = bitcast %struct._Z6FsGridISt5arrayIdLm18EELi2EE*  %762 to i8*, !dbg !3523
	%764 = getelementptr i8, i8*  %763, i64 252, !dbg !3523
	%765 = bitcast i8*  %764 to i32*, !dbg !3523
	%766 = load i32, i32*  %765, align 4, !tbaa !3552, !dbg !3523
	%767 = icmp sle i32  %766, 1, !dbg !3523
	%768 = zext i1  %767 to i32, !dbg !3523
	%769 = trunc i32  %768 to i1, !dbg !3523
	%770 = load i64, i64* %..inline.addr.560, align 8, !tbaa !3556, !dbg !3523
	%771 = load i32, i32* %..inline.addr.500, align 4, !tbaa !3554, !dbg !3523
	%772 = sext i32  %771 to i64, !dbg !3523
	%773 = add i64  %772, 2, !dbg !3523
	%774 = add i64  %770,  %773, !dbg !3523
	%775 = select i1  %769, i64  %770, i64  %774, !dbg !3523
	%776 = getelementptr i8, i8*  %763, i64 744, !dbg !3524
	%777 = bitcast i8*  %776 to i8**, !dbg !3524
	%778 = load i8*, i8**  %777, align 8, !tbaa !3551, !dbg !3524
	%779 = mul i64  %775, 144, !dbg !3524
	%780 = getelementptr i8, i8*  %778, i64  %779, !dbg !3524
	%781 = bitcast %struct._ZSt5arrayIdLm18EE** %..inline.addr.550 to i8**, !dbg !3524
	store i8*  %780, i8**  %781, align 8, !tbaa !3551, !dbg !3524
	br label %L..inline.22945
L..inline.22945:
	%782 = load %struct._ZSt5arrayIdLm18EE*, %struct._ZSt5arrayIdLm18EE** %..inline.addr.550, align 8, !tbaa !3551, !dbg !3525
	%783 = bitcast %struct._ZSt5arrayIdLm18EE*  %782 to i8*, !dbg !3525
	%784 = bitcast %struct._ZSt5arrayIdLm18EE** %..inline.addr.570 to i8**, !dbg !3525
	store i8*  %783, i8**  %784, align 8, !tbaa !3551, !dbg !3525
	%785 = load i32, i32* %fComponent.addr, align 4, !tbaa !3554, !dbg !3533
	%786 = mul i32  %785, 2, !dbg !3533
	%787 = add i32  %786, 7, !dbg !3533
	%788 = zext i32  %787 to i64, !dbg !3533
	store i64  %788, i64* %..inline.addr.580, align 8, !tbaa !3556, !dbg !3533
	%789 = icmp ult i64  %788, 18, !dbg !3533
	br i1  %789, label %L..inline.22948, label %L.B0894, !dbg !3533
L.B0894:
	%790 = bitcast [52 x i8]* @.S12573 to i8*, !dbg !3526
	call void (i8*, ...)  @_ZSt24__throw_out_of_range_fmtPKcz (i8*  %790, i64  %788, i64 18) noreturn, !dbg !3526
	br label %L..inline.22948
L..inline.22948:
	%791 = load %struct._ZSt5arrayIdLm18EE*, %struct._ZSt5arrayIdLm18EE** %..inline.addr.570, align 8, !tbaa !3551, !dbg !3527
	%792 = bitcast %struct._ZSt5arrayIdLm18EE*  %791 to i8*, !dbg !3527
	%793 = load i64, i64* %..inline.addr.580, align 8, !tbaa !3556, !dbg !3527
	%794 = mul i64  %793, 8, !dbg !3527
	%795 = getelementptr i8, i8*  %792, i64  %794, !dbg !3527
	%796 = bitcast double** %..inline.addr.590 to i8**, !dbg !3527
	store i8*  %795, i8**  %796, align 8, !tbaa !3551, !dbg !3527
	%797 = load %struct.FieldFunction*, %struct.FieldFunction** %bgFunction.addr, align 8, !tbaa !3551, !dbg !3528
	%798 = bitcast %struct.FieldFunction*  %797 to %struct.T3DFunction*, !dbg !3528
	%799 = load i32, i32* %fComponent.addr, align 4, !tbaa !3554, !dbg !3528
	%800 = bitcast [3 x double]* %start.addr to double*, !dbg !3528
	%801 = zext i32  %799 to i64, !dbg !3528
	%802 = bitcast [3 x i32]* %faceCoord1.addr to i32*, !dbg !3528
	%803 = getelementptr i32, i32*  %802, i64  %801, !dbg !3528
	%804 = load i32, i32*  %803, align 4, !tbaa !3552, !dbg !3528
	%805 = zext i32  %804 to i64, !dbg !3528
	%806 = bitcast [3 x double]* %dx.addr to double*, !dbg !3528
	%807 = getelementptr double, double*  %806, i64  %805, !dbg !3528
	%808 = load double, double*  %807, align 8, !tbaa !3552, !dbg !3528
	%809 = bitcast [3 x i32]* %faceCoord2.addr to i32*, !dbg !3528
	%810 = getelementptr i32, i32*  %809, i64  %801, !dbg !3528
	%811 = load i32, i32*  %810, align 4, !tbaa !3552, !dbg !3528
	%812 = zext i32  %811 to i64, !dbg !3528
	%813 = getelementptr double, double*  %806, i64  %812, !dbg !3528
	%814 = load double, double*  %813, align 8, !tbaa !3552, !dbg !3528
	%815 = call double  @_Z14surfaceAverageRK11T3DFunction10coordinatedPKddd (%struct.T3DFunction*  %798, i32  %799, double  1.00000000000000007E-17, double*  %800, double  %808, double  %814), !dbg !3528
	store double  %815, double* %.Q0008.addr, align 8, !tbaa !3558, !dbg !3528
	%816 = load i32, i32* %fComponent.addr, align 4, !tbaa !3554, !dbg !3528
	%817 = zext i32  %816 to i64, !dbg !3528
	%818 = getelementptr i32, i32*  %809, i64  %817, !dbg !3528
	%819 = load i32, i32*  %818, align 4, !tbaa !3552, !dbg !3528
	%820 = zext i32  %819 to i64, !dbg !3528
	%821 = getelementptr double, double*  %806, i64  %820, !dbg !3528
	%822 = load double, double*  %821, align 8, !tbaa !3552, !dbg !3528
	%823 = load double*, double** %..inline.addr.590, align 8, !tbaa !3551, !dbg !3528
	%824 = load double, double*  %823, align 8, !tbaa !3552, !dbg !3528
	%825 = call double @llvm.fma.f64 (double  %822, double  %815, double  %824), !dbg !3528
	store double  %825, double*  %823, align 8, !tbaa !3552, !dbg !3528

	%826 = add i32  %816, 1, !dbg !3534
	store i32  %826, i32* %fComponent.addr, align 4, !tbaa !3554, !dbg !3534
	%827 = load i32, i32* %.x0004.addr, align 4, !tbaa !3554, !dbg !3497
	%828 = sub i32  %827, 1, !dbg !3497
	store i32  %828, i32* %.x0004.addr, align 4, !tbaa !3554, !dbg !3497
	%829 = icmp ne i32  %828, 0, !dbg !3534
	br i1  %829, label %L.B0014, label %L.N0004, !dbg !3534
L.N0004:
	call void @llvm.dbg.declare (metadata i32* %fComponent.addr.1, metadata !3536, metadata !3456), !dbg !2382
	store i32 0, i32* %fComponent.addr.1, align 4, !tbaa !3554, !dbg !3535
	store i32 3, i32* %.x0004.addr, align 4, !tbaa !3554, !dbg !3535
	br label %L.B0018
L.B0018:
	%830 = load %struct.FieldFunction*, %struct.FieldFunction** %bgFunction.addr, align 8, !tbaa !3551, !dbg !3537
	%831 = bitcast %struct.FieldFunction*  %830 to i8*, !dbg !3537
	%832 = getelementptr i8, i8*  %831, i64 16, !dbg !3537
	%833 = bitcast i8*  %832 to i32*, !dbg !3537
	store i32 0, i32*  %833, align 4, !tbaa !3552, !dbg !3537
	%834 = load i32, i32* %fComponent.addr.1, align 4, !tbaa !3554, !dbg !3538
	%835 = getelementptr i8, i8*  %831, i64 8, !dbg !3538
	%836 = bitcast i8*  %835 to i32*, !dbg !3538
	store i32  %834, i32*  %836, align 4, !tbaa !3552, !dbg !3538
	%837 = load %struct._Z6FsGridISt5arrayIdLm18EELi2EE*, %struct._Z6FsGridISt5arrayIdLm18EELi2EE** %BgBGrid.addr, align 8, !tbaa !3551, !dbg !3539
	%838 = bitcast %struct._Z6FsGridISt5arrayIdLm18EELi2EE*  %837 to i8*, !dbg !3539
	%839 = bitcast %struct._Z6FsGridISt5arrayIdLm18EELi2EE** %..inline.addr.620 to i8**, !dbg !3539
	store i8*  %838, i8**  %839, align 8, !tbaa !3551, !dbg !3539
	%840 = load i32, i32* %x.addr, align 4, !tbaa !3554, !dbg !3539
	store i32  %840, i32* %..inline.addr.630, align 4, !tbaa !3554, !dbg !3539
	%841 = load i32, i32* %y.addr, align 4, !tbaa !3554, !dbg !3539
	store i32  %841, i32* %..inline.addr.640, align 4, !tbaa !3554, !dbg !3539
	%842 = load i32, i32* %z.addr, align 4, !tbaa !3554, !dbg !3539
	store i32  %842, i32* %..inline.addr.650, align 4, !tbaa !3554, !dbg !3539
	store i32 13, i32* %..inline.addr.660, align 4, !tbaa !3554, !dbg !3539
	%843 = bitcast [3 x i32]* %..inline.addr.670 to i32*, !dbg !3502
	store i32 0, i32*  %843, align 4, !tbaa !3552, !dbg !3502
	%844 = bitcast [3 x i32]* %..inline.addr.670 to i8*, !dbg !3503
	%845 = getelementptr i8, i8*  %844, i64 4, !dbg !3503
	%846 = bitcast i8*  %845 to i32*, !dbg !3503
	store i32 0, i32*  %846, align 4, !tbaa !3552, !dbg !3503
	%847 = getelementptr i8, i8*  %844, i64 8, !dbg !3503
	%848 = bitcast i8*  %847 to i32*, !dbg !3503
	store i32 0, i32*  %848, align 4, !tbaa !3552, !dbg !3503
	%849 = icmp sge i32  %840, 0, !dbg !3503
	br i1  %849, label %L..inline.23032, label %L.B0895, !dbg !3503
L.B0895:
	store i32 4, i32* %..inline.addr.660, align 4, !tbaa !3554, !dbg !3504
	%850 = bitcast [3 x i32]* %..inline.addr.670 to i32*, !dbg !3505
	store i32 1, i32*  %850, align 4, !tbaa !3552, !dbg !3505
	br label %L..inline.23032
L..inline.23032:
	%851 = load i32, i32* %..inline.addr.630, align 4, !tbaa !3554, !dbg !3506
	%852 = load %struct._Z6FsGridISt5arrayIdLm18EELi2EE*, %struct._Z6FsGridISt5arrayIdLm18EELi2EE** %..inline.addr.620, align 8, !tbaa !3551, !dbg !3506
	%853 = bitcast %struct._Z6FsGridISt5arrayIdLm18EELi2EE*  %852 to i8*, !dbg !3506
	%854 = getelementptr i8, i8*  %853, i64 264, !dbg !3506
	%855 = bitcast i8*  %854 to i32*, !dbg !3506
	%856 = load i32, i32*  %855, align 4, !tbaa !3552, !dbg !3506
	%857 = icmp slt i32  %851,  %856, !dbg !3506
	br i1  %857, label %L..inline.23050, label %L.B0896, !dbg !3506
L.B0896:
	%858 = load i32, i32* %..inline.addr.660, align 4, !tbaa !3554, !dbg !3506
	%859 = add i32  %858, 9, !dbg !3506
	store i32  %859, i32* %..inline.addr.660, align 4, !tbaa !3554, !dbg !3506
	%860 = bitcast [3 x i32]* %..inline.addr.670 to i32*, !dbg !3507
	store i32 -1, i32*  %860, align 4, !tbaa !3552, !dbg !3507
	br label %L..inline.23050
L..inline.23050:
	%861 = load i32, i32* %..inline.addr.640, align 4, !tbaa !3554, !dbg !3508
	%862 = icmp sge i32  %861, 0, !dbg !3508
	br i1  %862, label %L..inline.23052, label %L.B0897, !dbg !3508
L.B0897:
	%863 = load i32, i32* %..inline.addr.660, align 4, !tbaa !3554, !dbg !3508
	%864 = sub i32  %863, 3, !dbg !3508
	store i32  %864, i32* %..inline.addr.660, align 4, !tbaa !3554, !dbg !3508
	%865 = bitcast [3 x i32]* %..inline.addr.670 to i8*, !dbg !3509
	%866 = getelementptr i8, i8*  %865, i64 4, !dbg !3509
	%867 = bitcast i8*  %866 to i32*, !dbg !3509
	store i32 1, i32*  %867, align 4, !tbaa !3552, !dbg !3509
	br label %L..inline.23052
L..inline.23052:
	%868 = load i32, i32* %..inline.addr.640, align 4, !tbaa !3554, !dbg !3510
	%869 = load %struct._Z6FsGridISt5arrayIdLm18EELi2EE*, %struct._Z6FsGridISt5arrayIdLm18EELi2EE** %..inline.addr.620, align 8, !tbaa !3551, !dbg !3510
	%870 = bitcast %struct._Z6FsGridISt5arrayIdLm18EELi2EE*  %869 to i8*, !dbg !3510
	%871 = getelementptr i8, i8*  %870, i64 268, !dbg !3510
	%872 = bitcast i8*  %871 to i32*, !dbg !3510
	%873 = load i32, i32*  %872, align 4, !tbaa !3552, !dbg !3510
	%874 = icmp slt i32  %868,  %873, !dbg !3510
	br i1  %874, label %L..inline.23069, label %L.B0898, !dbg !3510
L.B0898:
	%875 = load i32, i32* %..inline.addr.660, align 4, !tbaa !3554, !dbg !3510
	%876 = add i32  %875, 3, !dbg !3510
	store i32  %876, i32* %..inline.addr.660, align 4, !tbaa !3554, !dbg !3510
	%877 = bitcast [3 x i32]* %..inline.addr.670 to i8*, !dbg !3511
	%878 = getelementptr i8, i8*  %877, i64 4, !dbg !3511
	%879 = bitcast i8*  %878 to i32*, !dbg !3511
	store i32 -1, i32*  %879, align 4, !tbaa !3552, !dbg !3511
	br label %L..inline.23069
L..inline.23069:
	%880 = load i32, i32* %..inline.addr.650, align 4, !tbaa !3554, !dbg !3512
	%881 = icmp sge i32  %880, 0, !dbg !3512
	br i1  %881, label %L..inline.23071, label %L.B0899, !dbg !3512
L.B0899:
	%882 = load i32, i32* %..inline.addr.660, align 4, !tbaa !3554, !dbg !3512
	%883 = sub i32  %882, 1, !dbg !3512
	store i32  %883, i32* %..inline.addr.660, align 4, !tbaa !3554, !dbg !3512
	%884 = bitcast [3 x i32]* %..inline.addr.670 to i8*, !dbg !3513
	%885 = getelementptr i8, i8*  %884, i64 8, !dbg !3513
	%886 = bitcast i8*  %885 to i32*, !dbg !3513
	store i32 1, i32*  %886, align 4, !tbaa !3552, !dbg !3513
	br label %L..inline.23071
L..inline.23071:
	%887 = load i32, i32* %..inline.addr.650, align 4, !tbaa !3554, !dbg !3514
	%888 = load %struct._Z6FsGridISt5arrayIdLm18EELi2EE*, %struct._Z6FsGridISt5arrayIdLm18EELi2EE** %..inline.addr.620, align 8, !tbaa !3551, !dbg !3514
	%889 = bitcast %struct._Z6FsGridISt5arrayIdLm18EELi2EE*  %888 to i8*, !dbg !3514
	%890 = getelementptr i8, i8*  %889, i64 272, !dbg !3514
	%891 = bitcast i8*  %890 to i32*, !dbg !3514
	%892 = load i32, i32*  %891, align 4, !tbaa !3552, !dbg !3514
	%893 = icmp slt i32  %887,  %892, !dbg !3514
	br i1  %893, label %L..inline.23088, label %L.B0900, !dbg !3514
L.B0900:
	%894 = load i32, i32* %..inline.addr.660, align 4, !tbaa !3554, !dbg !3514
	%895 = add i32  %894, 1, !dbg !3514
	store i32  %895, i32* %..inline.addr.660, align 4, !tbaa !3554, !dbg !3514
	%896 = bitcast [3 x i32]* %..inline.addr.670 to i8*, !dbg !3515
	%897 = getelementptr i8, i8*  %896, i64 8, !dbg !3515
	%898 = bitcast i8*  %897 to i32*, !dbg !3515
	store i32 -1, i32*  %898, align 4, !tbaa !3552, !dbg !3515
	br label %L..inline.23088
L..inline.23088:
	%899 = load i32, i32* %..inline.addr.660, align 4, !tbaa !3554, !dbg !3516
	%900 = icmp eq i32  %899, 13, !dbg !3516
	br i1  %900, label %L..inline.23089, label %L.B0901, !dbg !3516
L.B0901:
	%901 = sext i32  %899 to i64, !dbg !3517
	%902 = load %struct._Z6FsGridISt5arrayIdLm18EELi2EE*, %struct._Z6FsGridISt5arrayIdLm18EELi2EE** %..inline.addr.620, align 8, !tbaa !3551, !dbg !3517
	%903 = bitcast %struct._Z6FsGridISt5arrayIdLm18EELi2EE*  %902 to i8*, !dbg !3517
	%904 = getelementptr i8, i8*  %903, i64 92, !dbg !3517
	%905 = bitcast i8*  %904 to i32*, !dbg !3517
	%906 = getelementptr i32, i32*  %905, i64  %901, !dbg !3517
	%907 = load i32, i32*  %906, align 4, !tbaa !3552, !dbg !3517
	%908 = icmp ne i32  %907, -2, !dbg !3517
	br i1  %908, label %L..inline.23106, label %L.B0902, !dbg !3517
L.B0902:
	%909 = bitcast %struct._ZSt5arrayIdLm18EE** %..inline.addr.680 to i8**, !dbg !3517
	store i8* null, i8**  %909, align 8, !tbaa !3551, !dbg !3517
	br label %L..inline.23293, !dbg !3518
L..inline.23106:
	%910 = load i32, i32* %..inline.addr.660, align 4, !tbaa !3554, !dbg !3519
	%911 = sext i32  %910 to i64, !dbg !3519
	%912 = load %struct._Z6FsGridISt5arrayIdLm18EELi2EE*, %struct._Z6FsGridISt5arrayIdLm18EELi2EE** %..inline.addr.620, align 8, !tbaa !3551, !dbg !3519
	%913 = bitcast %struct._Z6FsGridISt5arrayIdLm18EELi2EE*  %912 to i8*, !dbg !3519
	%914 = getelementptr i8, i8*  %913, i64 92, !dbg !3519
	%915 = bitcast i8*  %914 to i32*, !dbg !3519
	%916 = getelementptr i32, i32*  %915, i64  %911, !dbg !3519
	%917 = load i32, i32*  %916, align 4, !tbaa !3552, !dbg !3519
	%918 = getelementptr i8, i8*  %913, i64 56, !dbg !3519
	%919 = bitcast i8*  %918 to i32*, !dbg !3519
	%920 = load i32, i32*  %919, align 4, !tbaa !3552, !dbg !3519
	%921 = icmp ne i32  %917,  %920, !dbg !3519
	br i1  %921, label %L..inline.23124, label %L.B0903, !dbg !3519
L.B0903:
	%922 = load i32, i32* %..inline.addr.630, align 4, !tbaa !3554, !dbg !3520
	%923 = bitcast [3 x i32]* %..inline.addr.670 to i32*, !dbg !3520
	%924 = load i32, i32*  %923, align 4, !tbaa !3552, !dbg !3520
	%925 = bitcast %struct._Z6FsGridISt5arrayIdLm18EELi2EE*  %912 to i8*, !dbg !3520
	%926 = getelementptr i8, i8*  %925, i64 264, !dbg !3520
	%927 = bitcast i8*  %926 to i32*, !dbg !3520
	%928 = load i32, i32*  %927, align 4, !tbaa !3552, !dbg !3520
	%929 = mul i32  %924,  %928, !dbg !3520
	%930 = add i32  %922,  %929, !dbg !3520
	store i32  %930, i32* %..inline.addr.630, align 4, !tbaa !3554, !dbg !3520
	%931 = load i32, i32* %..inline.addr.640, align 4, !tbaa !3554, !dbg !3521
	%932 = bitcast [3 x i32]* %..inline.addr.670 to i8*, !dbg !3521
	%933 = getelementptr i8, i8*  %932, i64 4, !dbg !3521
	%934 = bitcast i8*  %933 to i32*, !dbg !3521
	%935 = load i32, i32*  %934, align 4, !tbaa !3552, !dbg !3521
	%936 = getelementptr i8, i8*  %925, i64 268, !dbg !3521
	%937 = bitcast i8*  %936 to i32*, !dbg !3521
	%938 = load i32, i32*  %937, align 4, !tbaa !3552, !dbg !3521
	%939 = mul i32  %935,  %938, !dbg !3521
	%940 = add i32  %931,  %939, !dbg !3521
	store i32  %940, i32* %..inline.addr.640, align 4, !tbaa !3554, !dbg !3521
	%941 = load i32, i32* %..inline.addr.650, align 4, !tbaa !3554, !dbg !3522
	%942 = getelementptr i8, i8*  %932, i64 8, !dbg !3522
	%943 = bitcast i8*  %942 to i32*, !dbg !3522
	%944 = load i32, i32*  %943, align 4, !tbaa !3552, !dbg !3522
	%945 = getelementptr i8, i8*  %925, i64 272, !dbg !3522
	%946 = bitcast i8*  %945 to i32*, !dbg !3522
	%947 = load i32, i32*  %946, align 4, !tbaa !3552, !dbg !3522
	%948 = mul i32  %944,  %947, !dbg !3522
	%949 = add i32  %941,  %948, !dbg !3522
	store i32  %949, i32* %..inline.addr.650, align 4, !tbaa !3554, !dbg !3522
	br label %L..inline.23124
L..inline.23124:
	br label %L..inline.23089
L..inline.23089:
	store i64 0, i64* %..inline.addr.690, align 8, !tbaa !3556, !dbg !3523
	%950 = load %struct._Z6FsGridISt5arrayIdLm18EELi2EE*, %struct._Z6FsGridISt5arrayIdLm18EELi2EE** %..inline.addr.620, align 8, !tbaa !3551, !dbg !3523
	%951 = bitcast %struct._Z6FsGridISt5arrayIdLm18EELi2EE*  %950 to i8*, !dbg !3523
	%952 = getelementptr i8, i8*  %951, i64 260, !dbg !3523
	%953 = bitcast i8*  %952 to i32*, !dbg !3523
	%954 = load i32, i32*  %953, align 4, !tbaa !3552, !dbg !3523
	%955 = icmp sle i32  %954, 1, !dbg !3523
	br i1  %955, label %L..inline.23198, label %L.B0904, !dbg !3523
L.B0904:
	%956 = load i32, i32* %..inline.addr.650, align 4, !tbaa !3554, !dbg !3523
	%957 = add i32  %956, 2, !dbg !3523
	%958 = bitcast %struct._Z6FsGridISt5arrayIdLm18EELi2EE*  %950 to i8*, !dbg !3523
	%959 = getelementptr i8, i8*  %958, i64 280, !dbg !3523
	%960 = bitcast i8*  %959 to i32*, !dbg !3523
	%961 = load i32, i32*  %960, align 4, !tbaa !3552, !dbg !3523
	%962 = getelementptr i8, i8*  %958, i64 276, !dbg !3523
	%963 = bitcast i8*  %962 to i32*, !dbg !3523
	%964 = load i32, i32*  %963, align 4, !tbaa !3552, !dbg !3523
	%965 = mul i32  %961,  %964, !dbg !3523
	%966 = mul i32  %957,  %965, !dbg !3523
	%967 = sext i32  %966 to i64, !dbg !3523
	store i64  %967, i64* %..inline.addr.690, align 8, !tbaa !3556, !dbg !3523
	br label %L..inline.23198
L..inline.23198:
	%968 = load %struct._Z6FsGridISt5arrayIdLm18EELi2EE*, %struct._Z6FsGridISt5arrayIdLm18EELi2EE** %..inline.addr.620, align 8, !tbaa !3551, !dbg !3523
	%969 = bitcast %struct._Z6FsGridISt5arrayIdLm18EELi2EE*  %968 to i8*, !dbg !3523
	%970 = getelementptr i8, i8*  %969, i64 256, !dbg !3523
	%971 = bitcast i8*  %970 to i32*, !dbg !3523
	%972 = load i32, i32*  %971, align 4, !tbaa !3552, !dbg !3523
	%973 = icmp sle i32  %972, 1, !dbg !3523
	br i1  %973, label %L..inline.23247, label %L.B0905, !dbg !3523
L.B0905:
	%974 = load i64, i64* %..inline.addr.690, align 8, !tbaa !3556, !dbg !3523
	%975 = bitcast %struct._Z6FsGridISt5arrayIdLm18EELi2EE*  %968 to i8*, !dbg !3523
	%976 = getelementptr i8, i8*  %975, i64 276, !dbg !3523
	%977 = bitcast i8*  %976 to i32*, !dbg !3523
	%978 = load i32, i32*  %977, align 4, !tbaa !3552, !dbg !3523
	%979 = load i32, i32* %..inline.addr.640, align 4, !tbaa !3554, !dbg !3523
	%980 = add i32  %979, 2, !dbg !3523
	%981 = mul i32  %978,  %980, !dbg !3523
	%982 = sext i32  %981 to i64, !dbg !3523
	%983 = add i64  %974,  %982, !dbg !3523
	store i64  %983, i64* %..inline.addr.690, align 8, !tbaa !3556, !dbg !3523
	br label %L..inline.23247
L..inline.23247:
	%984 = load %struct._Z6FsGridISt5arrayIdLm18EELi2EE*, %struct._Z6FsGridISt5arrayIdLm18EELi2EE** %..inline.addr.620, align 8, !tbaa !3551, !dbg !3523
	%985 = bitcast %struct._Z6FsGridISt5arrayIdLm18EELi2EE*  %984 to i8*, !dbg !3523
	%986 = getelementptr i8, i8*  %985, i64 252, !dbg !3523
	%987 = bitcast i8*  %986 to i32*, !dbg !3523
	%988 = load i32, i32*  %987, align 4, !tbaa !3552, !dbg !3523
	%989 = icmp sle i32  %988, 1, !dbg !3523
	%990 = zext i1  %989 to i32, !dbg !3523
	%991 = trunc i32  %990 to i1, !dbg !3523
	%992 = load i64, i64* %..inline.addr.690, align 8, !tbaa !3556, !dbg !3523
	%993 = load i32, i32* %..inline.addr.630, align 4, !tbaa !3554, !dbg !3523
	%994 = sext i32  %993 to i64, !dbg !3523
	%995 = add i64  %994, 2, !dbg !3523
	%996 = add i64  %992,  %995, !dbg !3523
	%997 = select i1  %991, i64  %992, i64  %996, !dbg !3523
	%998 = getelementptr i8, i8*  %985, i64 744, !dbg !3524
	%999 = bitcast i8*  %998 to i8**, !dbg !3524
	%1000 = load i8*, i8**  %999, align 8, !tbaa !3551, !dbg !3524
	%1001 = mul i64  %997, 144, !dbg !3524
	%1002 = getelementptr i8, i8*  %1000, i64  %1001, !dbg !3524
	%1003 = bitcast %struct._ZSt5arrayIdLm18EE** %..inline.addr.680 to i8**, !dbg !3524
	store i8*  %1002, i8**  %1003, align 8, !tbaa !3551, !dbg !3524
	br label %L..inline.23293
L..inline.23293:
	%1004 = load %struct._ZSt5arrayIdLm18EE*, %struct._ZSt5arrayIdLm18EE** %..inline.addr.680, align 8, !tbaa !3551, !dbg !3525
	%1005 = bitcast %struct._ZSt5arrayIdLm18EE*  %1004 to i8*, !dbg !3525
	%1006 = bitcast %struct._ZSt5arrayIdLm18EE** %..inline.addr.700 to i8**, !dbg !3525
	store i8*  %1005, i8**  %1006, align 8, !tbaa !3551, !dbg !3525
	%1007 = load i32, i32* %fComponent.addr.1, align 4, !tbaa !3554, !dbg !3539
	%1008 = add i32  %1007, 3, !dbg !3539
	%1009 = zext i32  %1008 to i64, !dbg !3539
	store i64  %1009, i64* %..inline.addr.710, align 8, !tbaa !3556, !dbg !3539
	%1010 = icmp ult i64  %1009, 18, !dbg !3539
	br i1  %1010, label %L..inline.23296, label %L.B0906, !dbg !3539
L.B0906:
	%1011 = bitcast [52 x i8]* @.S12573 to i8*, !dbg !3526
	call void (i8*, ...)  @_ZSt24__throw_out_of_range_fmtPKcz (i8*  %1011, i64  %1009, i64 18) noreturn, !dbg !3526
	br label %L..inline.23296
L..inline.23296:
	%1012 = load %struct._ZSt5arrayIdLm18EE*, %struct._ZSt5arrayIdLm18EE** %..inline.addr.700, align 8, !tbaa !3551, !dbg !3527
	%1013 = bitcast %struct._ZSt5arrayIdLm18EE*  %1012 to i8*, !dbg !3527
	%1014 = load i64, i64* %..inline.addr.710, align 8, !tbaa !3556, !dbg !3527
	%1015 = mul i64  %1014, 8, !dbg !3527
	%1016 = getelementptr i8, i8*  %1013, i64  %1015, !dbg !3527
	%1017 = bitcast double** %..inline.addr.720 to i8**, !dbg !3527
	store i8*  %1016, i8**  %1017, align 8, !tbaa !3551, !dbg !3527
	%1018 = load %struct.FieldFunction*, %struct.FieldFunction** %bgFunction.addr, align 8, !tbaa !3551, !dbg !3528
	%1019 = bitcast %struct.FieldFunction*  %1018 to %struct.T3DFunction*, !dbg !3528
	%1020 = bitcast [3 x double]* %start.addr to double*, !dbg !3528
	%1021 = bitcast [3 x double]* %end.addr to double*, !dbg !3528
	%1022 = call double  @_Z13volumeAverageRK11T3DFunctiondPKdS3_ (%struct.T3DFunction*  %1019, double  1.00000000000000007E-17, double*  %1020, double*  %1021), !dbg !3528
	store double  %1022, double* %.Q0012.addr, align 8, !tbaa !3558, !dbg !3528
	%1023 = load double*, double** %..inline.addr.720, align 8, !tbaa !3551, !dbg !3528
	%1024 = load double, double*  %1023, align 8, !tbaa !3552, !dbg !3528
	%1025 = fadd double  %1022,  %1024, !dbg !3528
	store double  %1025, double*  %1023, align 8, !tbaa !3552, !dbg !3528
	%1026 = load %struct.FieldFunction*, %struct.FieldFunction** %bgFunction.addr, align 8, !tbaa !3551, !dbg !3540
	%1027 = bitcast %struct.FieldFunction*  %1026 to i8*, !dbg !3540
	%1028 = getelementptr i8, i8*  %1027, i64 16, !dbg !3540
	%1029 = bitcast i8*  %1028 to i32*, !dbg !3540
	store i32 1, i32*  %1029, align 4, !tbaa !3552, !dbg !3540
	%1030 = load i32, i32* %fComponent.addr.1, align 4, !tbaa !3554, !dbg !3541
	%1031 = zext i32  %1030 to i64, !dbg !3541
	%1032 = bitcast [3 x i32]* %faceCoord1.addr to i32*, !dbg !3541
	%1033 = getelementptr i32, i32*  %1032, i64  %1031, !dbg !3541
	%1034 = load i32, i32*  %1033, align 4, !tbaa !3552, !dbg !3541
	%1035 = getelementptr i8, i8*  %1027, i64 12, !dbg !3541
	%1036 = bitcast i8*  %1035 to i32*, !dbg !3541
	store i32  %1034, i32*  %1036, align 4, !tbaa !3552, !dbg !3541
	%1037 = load %struct._Z6FsGridISt5arrayIdLm18EELi2EE*, %struct._Z6FsGridISt5arrayIdLm18EELi2EE** %BgBGrid.addr, align 8, !tbaa !3551, !dbg !3542
	%1038 = bitcast %struct._Z6FsGridISt5arrayIdLm18EELi2EE*  %1037 to i8*, !dbg !3542
	%1039 = bitcast %struct._Z6FsGridISt5arrayIdLm18EELi2EE** %..inline.addr.740 to i8**, !dbg !3542
	store i8*  %1038, i8**  %1039, align 8, !tbaa !3551, !dbg !3542
	%1040 = load i32, i32* %x.addr, align 4, !tbaa !3554, !dbg !3542
	store i32  %1040, i32* %..inline.addr.750, align 4, !tbaa !3554, !dbg !3542
	%1041 = load i32, i32* %y.addr, align 4, !tbaa !3554, !dbg !3542
	store i32  %1041, i32* %..inline.addr.760, align 4, !tbaa !3554, !dbg !3542
	%1042 = load i32, i32* %z.addr, align 4, !tbaa !3554, !dbg !3542
	store i32  %1042, i32* %..inline.addr.770, align 4, !tbaa !3554, !dbg !3542
	store i32 13, i32* %..inline.addr.780, align 4, !tbaa !3554, !dbg !3542
	%1043 = bitcast [3 x i32]* %..inline.addr.790 to i32*, !dbg !3502
	store i32 0, i32*  %1043, align 4, !tbaa !3552, !dbg !3502
	%1044 = bitcast [3 x i32]* %..inline.addr.790 to i8*, !dbg !3503
	%1045 = getelementptr i8, i8*  %1044, i64 4, !dbg !3503
	%1046 = bitcast i8*  %1045 to i32*, !dbg !3503
	store i32 0, i32*  %1046, align 4, !tbaa !3552, !dbg !3503
	%1047 = getelementptr i8, i8*  %1044, i64 8, !dbg !3503
	%1048 = bitcast i8*  %1047 to i32*, !dbg !3503
	store i32 0, i32*  %1048, align 4, !tbaa !3552, !dbg !3503
	%1049 = icmp sge i32  %1040, 0, !dbg !3503
	br i1  %1049, label %L..inline.23380, label %L.B0907, !dbg !3503
L.B0907:
	store i32 4, i32* %..inline.addr.780, align 4, !tbaa !3554, !dbg !3504
	%1050 = bitcast [3 x i32]* %..inline.addr.790 to i32*, !dbg !3505
	store i32 1, i32*  %1050, align 4, !tbaa !3552, !dbg !3505
	br label %L..inline.23380
L..inline.23380:
	%1051 = load i32, i32* %..inline.addr.750, align 4, !tbaa !3554, !dbg !3506
	%1052 = load %struct._Z6FsGridISt5arrayIdLm18EELi2EE*, %struct._Z6FsGridISt5arrayIdLm18EELi2EE** %..inline.addr.740, align 8, !tbaa !3551, !dbg !3506
	%1053 = bitcast %struct._Z6FsGridISt5arrayIdLm18EELi2EE*  %1052 to i8*, !dbg !3506
	%1054 = getelementptr i8, i8*  %1053, i64 264, !dbg !3506
	%1055 = bitcast i8*  %1054 to i32*, !dbg !3506
	%1056 = load i32, i32*  %1055, align 4, !tbaa !3552, !dbg !3506
	%1057 = icmp slt i32  %1051,  %1056, !dbg !3506
	br i1  %1057, label %L..inline.23398, label %L.B0908, !dbg !3506
L.B0908:
	%1058 = load i32, i32* %..inline.addr.780, align 4, !tbaa !3554, !dbg !3506
	%1059 = add i32  %1058, 9, !dbg !3506
	store i32  %1059, i32* %..inline.addr.780, align 4, !tbaa !3554, !dbg !3506
	%1060 = bitcast [3 x i32]* %..inline.addr.790 to i32*, !dbg !3507
	store i32 -1, i32*  %1060, align 4, !tbaa !3552, !dbg !3507
	br label %L..inline.23398
L..inline.23398:
	%1061 = load i32, i32* %..inline.addr.760, align 4, !tbaa !3554, !dbg !3508
	%1062 = icmp sge i32  %1061, 0, !dbg !3508
	br i1  %1062, label %L..inline.23400, label %L.B0909, !dbg !3508
L.B0909:
	%1063 = load i32, i32* %..inline.addr.780, align 4, !tbaa !3554, !dbg !3508
	%1064 = sub i32  %1063, 3, !dbg !3508
	store i32  %1064, i32* %..inline.addr.780, align 4, !tbaa !3554, !dbg !3508
	%1065 = bitcast [3 x i32]* %..inline.addr.790 to i8*, !dbg !3509
	%1066 = getelementptr i8, i8*  %1065, i64 4, !dbg !3509
	%1067 = bitcast i8*  %1066 to i32*, !dbg !3509
	store i32 1, i32*  %1067, align 4, !tbaa !3552, !dbg !3509
	br label %L..inline.23400
L..inline.23400:
	%1068 = load i32, i32* %..inline.addr.760, align 4, !tbaa !3554, !dbg !3510
	%1069 = load %struct._Z6FsGridISt5arrayIdLm18EELi2EE*, %struct._Z6FsGridISt5arrayIdLm18EELi2EE** %..inline.addr.740, align 8, !tbaa !3551, !dbg !3510
	%1070 = bitcast %struct._Z6FsGridISt5arrayIdLm18EELi2EE*  %1069 to i8*, !dbg !3510
	%1071 = getelementptr i8, i8*  %1070, i64 268, !dbg !3510
	%1072 = bitcast i8*  %1071 to i32*, !dbg !3510
	%1073 = load i32, i32*  %1072, align 4, !tbaa !3552, !dbg !3510
	%1074 = icmp slt i32  %1068,  %1073, !dbg !3510
	br i1  %1074, label %L..inline.23417, label %L.B0910, !dbg !3510
L.B0910:
	%1075 = load i32, i32* %..inline.addr.780, align 4, !tbaa !3554, !dbg !3510
	%1076 = add i32  %1075, 3, !dbg !3510
	store i32  %1076, i32* %..inline.addr.780, align 4, !tbaa !3554, !dbg !3510
	%1077 = bitcast [3 x i32]* %..inline.addr.790 to i8*, !dbg !3511
	%1078 = getelementptr i8, i8*  %1077, i64 4, !dbg !3511
	%1079 = bitcast i8*  %1078 to i32*, !dbg !3511
	store i32 -1, i32*  %1079, align 4, !tbaa !3552, !dbg !3511
	br label %L..inline.23417
L..inline.23417:
	%1080 = load i32, i32* %..inline.addr.770, align 4, !tbaa !3554, !dbg !3512
	%1081 = icmp sge i32  %1080, 0, !dbg !3512
	br i1  %1081, label %L..inline.23419, label %L.B0911, !dbg !3512
L.B0911:
	%1082 = load i32, i32* %..inline.addr.780, align 4, !tbaa !3554, !dbg !3512
	%1083 = sub i32  %1082, 1, !dbg !3512
	store i32  %1083, i32* %..inline.addr.780, align 4, !tbaa !3554, !dbg !3512
	%1084 = bitcast [3 x i32]* %..inline.addr.790 to i8*, !dbg !3513
	%1085 = getelementptr i8, i8*  %1084, i64 8, !dbg !3513
	%1086 = bitcast i8*  %1085 to i32*, !dbg !3513
	store i32 1, i32*  %1086, align 4, !tbaa !3552, !dbg !3513
	br label %L..inline.23419
L..inline.23419:
	%1087 = load i32, i32* %..inline.addr.770, align 4, !tbaa !3554, !dbg !3514
	%1088 = load %struct._Z6FsGridISt5arrayIdLm18EELi2EE*, %struct._Z6FsGridISt5arrayIdLm18EELi2EE** %..inline.addr.740, align 8, !tbaa !3551, !dbg !3514
	%1089 = bitcast %struct._Z6FsGridISt5arrayIdLm18EELi2EE*  %1088 to i8*, !dbg !3514
	%1090 = getelementptr i8, i8*  %1089, i64 272, !dbg !3514
	%1091 = bitcast i8*  %1090 to i32*, !dbg !3514
	%1092 = load i32, i32*  %1091, align 4, !tbaa !3552, !dbg !3514
	%1093 = icmp slt i32  %1087,  %1092, !dbg !3514
	br i1  %1093, label %L..inline.23436, label %L.B0912, !dbg !3514
L.B0912:
	%1094 = load i32, i32* %..inline.addr.780, align 4, !tbaa !3554, !dbg !3514
	%1095 = add i32  %1094, 1, !dbg !3514
	store i32  %1095, i32* %..inline.addr.780, align 4, !tbaa !3554, !dbg !3514
	%1096 = bitcast [3 x i32]* %..inline.addr.790 to i8*, !dbg !3515
	%1097 = getelementptr i8, i8*  %1096, i64 8, !dbg !3515
	%1098 = bitcast i8*  %1097 to i32*, !dbg !3515
	store i32 -1, i32*  %1098, align 4, !tbaa !3552, !dbg !3515
	br label %L..inline.23436
L..inline.23436:
	%1099 = load i32, i32* %..inline.addr.780, align 4, !tbaa !3554, !dbg !3516
	%1100 = icmp eq i32  %1099, 13, !dbg !3516
	br i1  %1100, label %L..inline.23437, label %L.B0913, !dbg !3516
L.B0913:
	%1101 = sext i32  %1099 to i64, !dbg !3517
	%1102 = load %struct._Z6FsGridISt5arrayIdLm18EELi2EE*, %struct._Z6FsGridISt5arrayIdLm18EELi2EE** %..inline.addr.740, align 8, !tbaa !3551, !dbg !3517
	%1103 = bitcast %struct._Z6FsGridISt5arrayIdLm18EELi2EE*  %1102 to i8*, !dbg !3517
	%1104 = getelementptr i8, i8*  %1103, i64 92, !dbg !3517
	%1105 = bitcast i8*  %1104 to i32*, !dbg !3517
	%1106 = getelementptr i32, i32*  %1105, i64  %1101, !dbg !3517
	%1107 = load i32, i32*  %1106, align 4, !tbaa !3552, !dbg !3517
	%1108 = icmp ne i32  %1107, -2, !dbg !3517
	br i1  %1108, label %L..inline.23454, label %L.B0914, !dbg !3517
L.B0914:
	%1109 = bitcast %struct._ZSt5arrayIdLm18EE** %..inline.addr.800 to i8**, !dbg !3517
	store i8* null, i8**  %1109, align 8, !tbaa !3551, !dbg !3517
	br label %L..inline.23641, !dbg !3518
L..inline.23454:
	%1110 = load i32, i32* %..inline.addr.780, align 4, !tbaa !3554, !dbg !3519
	%1111 = sext i32  %1110 to i64, !dbg !3519
	%1112 = load %struct._Z6FsGridISt5arrayIdLm18EELi2EE*, %struct._Z6FsGridISt5arrayIdLm18EELi2EE** %..inline.addr.740, align 8, !tbaa !3551, !dbg !3519
	%1113 = bitcast %struct._Z6FsGridISt5arrayIdLm18EELi2EE*  %1112 to i8*, !dbg !3519
	%1114 = getelementptr i8, i8*  %1113, i64 92, !dbg !3519
	%1115 = bitcast i8*  %1114 to i32*, !dbg !3519
	%1116 = getelementptr i32, i32*  %1115, i64  %1111, !dbg !3519
	%1117 = load i32, i32*  %1116, align 4, !tbaa !3552, !dbg !3519
	%1118 = getelementptr i8, i8*  %1113, i64 56, !dbg !3519
	%1119 = bitcast i8*  %1118 to i32*, !dbg !3519
	%1120 = load i32, i32*  %1119, align 4, !tbaa !3552, !dbg !3519
	%1121 = icmp ne i32  %1117,  %1120, !dbg !3519
	br i1  %1121, label %L..inline.23472, label %L.B0915, !dbg !3519
L.B0915:
	%1122 = load i32, i32* %..inline.addr.750, align 4, !tbaa !3554, !dbg !3520
	%1123 = bitcast [3 x i32]* %..inline.addr.790 to i32*, !dbg !3520
	%1124 = load i32, i32*  %1123, align 4, !tbaa !3552, !dbg !3520
	%1125 = bitcast %struct._Z6FsGridISt5arrayIdLm18EELi2EE*  %1112 to i8*, !dbg !3520
	%1126 = getelementptr i8, i8*  %1125, i64 264, !dbg !3520
	%1127 = bitcast i8*  %1126 to i32*, !dbg !3520
	%1128 = load i32, i32*  %1127, align 4, !tbaa !3552, !dbg !3520
	%1129 = mul i32  %1124,  %1128, !dbg !3520
	%1130 = add i32  %1122,  %1129, !dbg !3520
	store i32  %1130, i32* %..inline.addr.750, align 4, !tbaa !3554, !dbg !3520
	%1131 = load i32, i32* %..inline.addr.760, align 4, !tbaa !3554, !dbg !3521
	%1132 = bitcast [3 x i32]* %..inline.addr.790 to i8*, !dbg !3521
	%1133 = getelementptr i8, i8*  %1132, i64 4, !dbg !3521
	%1134 = bitcast i8*  %1133 to i32*, !dbg !3521
	%1135 = load i32, i32*  %1134, align 4, !tbaa !3552, !dbg !3521
	%1136 = getelementptr i8, i8*  %1125, i64 268, !dbg !3521
	%1137 = bitcast i8*  %1136 to i32*, !dbg !3521
	%1138 = load i32, i32*  %1137, align 4, !tbaa !3552, !dbg !3521
	%1139 = mul i32  %1135,  %1138, !dbg !3521
	%1140 = add i32  %1131,  %1139, !dbg !3521
	store i32  %1140, i32* %..inline.addr.760, align 4, !tbaa !3554, !dbg !3521
	%1141 = load i32, i32* %..inline.addr.770, align 4, !tbaa !3554, !dbg !3522
	%1142 = getelementptr i8, i8*  %1132, i64 8, !dbg !3522
	%1143 = bitcast i8*  %1142 to i32*, !dbg !3522
	%1144 = load i32, i32*  %1143, align 4, !tbaa !3552, !dbg !3522
	%1145 = getelementptr i8, i8*  %1125, i64 272, !dbg !3522
	%1146 = bitcast i8*  %1145 to i32*, !dbg !3522
	%1147 = load i32, i32*  %1146, align 4, !tbaa !3552, !dbg !3522
	%1148 = mul i32  %1144,  %1147, !dbg !3522
	%1149 = add i32  %1141,  %1148, !dbg !3522
	store i32  %1149, i32* %..inline.addr.770, align 4, !tbaa !3554, !dbg !3522
	br label %L..inline.23472
L..inline.23472:
	br label %L..inline.23437
L..inline.23437:
	store i64 0, i64* %..inline.addr.810, align 8, !tbaa !3556, !dbg !3523
	%1150 = load %struct._Z6FsGridISt5arrayIdLm18EELi2EE*, %struct._Z6FsGridISt5arrayIdLm18EELi2EE** %..inline.addr.740, align 8, !tbaa !3551, !dbg !3523
	%1151 = bitcast %struct._Z6FsGridISt5arrayIdLm18EELi2EE*  %1150 to i8*, !dbg !3523
	%1152 = getelementptr i8, i8*  %1151, i64 260, !dbg !3523
	%1153 = bitcast i8*  %1152 to i32*, !dbg !3523
	%1154 = load i32, i32*  %1153, align 4, !tbaa !3552, !dbg !3523
	%1155 = icmp sle i32  %1154, 1, !dbg !3523
	br i1  %1155, label %L..inline.23546, label %L.B0916, !dbg !3523
L.B0916:
	%1156 = load i32, i32* %..inline.addr.770, align 4, !tbaa !3554, !dbg !3523
	%1157 = add i32  %1156, 2, !dbg !3523
	%1158 = bitcast %struct._Z6FsGridISt5arrayIdLm18EELi2EE*  %1150 to i8*, !dbg !3523
	%1159 = getelementptr i8, i8*  %1158, i64 280, !dbg !3523
	%1160 = bitcast i8*  %1159 to i32*, !dbg !3523
	%1161 = load i32, i32*  %1160, align 4, !tbaa !3552, !dbg !3523
	%1162 = getelementptr i8, i8*  %1158, i64 276, !dbg !3523
	%1163 = bitcast i8*  %1162 to i32*, !dbg !3523
	%1164 = load i32, i32*  %1163, align 4, !tbaa !3552, !dbg !3523
	%1165 = mul i32  %1161,  %1164, !dbg !3523
	%1166 = mul i32  %1157,  %1165, !dbg !3523
	%1167 = sext i32  %1166 to i64, !dbg !3523
	store i64  %1167, i64* %..inline.addr.810, align 8, !tbaa !3556, !dbg !3523
	br label %L..inline.23546
L..inline.23546:
	%1168 = load %struct._Z6FsGridISt5arrayIdLm18EELi2EE*, %struct._Z6FsGridISt5arrayIdLm18EELi2EE** %..inline.addr.740, align 8, !tbaa !3551, !dbg !3523
	%1169 = bitcast %struct._Z6FsGridISt5arrayIdLm18EELi2EE*  %1168 to i8*, !dbg !3523
	%1170 = getelementptr i8, i8*  %1169, i64 256, !dbg !3523
	%1171 = bitcast i8*  %1170 to i32*, !dbg !3523
	%1172 = load i32, i32*  %1171, align 4, !tbaa !3552, !dbg !3523
	%1173 = icmp sle i32  %1172, 1, !dbg !3523
	br i1  %1173, label %L..inline.23595, label %L.B0917, !dbg !3523
L.B0917:
	%1174 = load i64, i64* %..inline.addr.810, align 8, !tbaa !3556, !dbg !3523
	%1175 = bitcast %struct._Z6FsGridISt5arrayIdLm18EELi2EE*  %1168 to i8*, !dbg !3523
	%1176 = getelementptr i8, i8*  %1175, i64 276, !dbg !3523
	%1177 = bitcast i8*  %1176 to i32*, !dbg !3523
	%1178 = load i32, i32*  %1177, align 4, !tbaa !3552, !dbg !3523
	%1179 = load i32, i32* %..inline.addr.760, align 4, !tbaa !3554, !dbg !3523
	%1180 = add i32  %1179, 2, !dbg !3523
	%1181 = mul i32  %1178,  %1180, !dbg !3523
	%1182 = sext i32  %1181 to i64, !dbg !3523
	%1183 = add i64  %1174,  %1182, !dbg !3523
	store i64  %1183, i64* %..inline.addr.810, align 8, !tbaa !3556, !dbg !3523
	br label %L..inline.23595
L..inline.23595:
	%1184 = load %struct._Z6FsGridISt5arrayIdLm18EELi2EE*, %struct._Z6FsGridISt5arrayIdLm18EELi2EE** %..inline.addr.740, align 8, !tbaa !3551, !dbg !3523
	%1185 = bitcast %struct._Z6FsGridISt5arrayIdLm18EELi2EE*  %1184 to i8*, !dbg !3523
	%1186 = getelementptr i8, i8*  %1185, i64 252, !dbg !3523
	%1187 = bitcast i8*  %1186 to i32*, !dbg !3523
	%1188 = load i32, i32*  %1187, align 4, !tbaa !3552, !dbg !3523
	%1189 = icmp sle i32  %1188, 1, !dbg !3523
	%1190 = zext i1  %1189 to i32, !dbg !3523
	%1191 = trunc i32  %1190 to i1, !dbg !3523
	%1192 = load i64, i64* %..inline.addr.810, align 8, !tbaa !3556, !dbg !3523
	%1193 = load i32, i32* %..inline.addr.750, align 4, !tbaa !3554, !dbg !3523
	%1194 = sext i32  %1193 to i64, !dbg !3523
	%1195 = add i64  %1194, 2, !dbg !3523
	%1196 = add i64  %1192,  %1195, !dbg !3523
	%1197 = select i1  %1191, i64  %1192, i64  %1196, !dbg !3523
	%1198 = getelementptr i8, i8*  %1185, i64 744, !dbg !3524
	%1199 = bitcast i8*  %1198 to i8**, !dbg !3524
	%1200 = load i8*, i8**  %1199, align 8, !tbaa !3551, !dbg !3524
	%1201 = mul i64  %1197, 144, !dbg !3524
	%1202 = getelementptr i8, i8*  %1200, i64  %1201, !dbg !3524
	%1203 = bitcast %struct._ZSt5arrayIdLm18EE** %..inline.addr.800 to i8**, !dbg !3524
	store i8*  %1202, i8**  %1203, align 8, !tbaa !3551, !dbg !3524
	br label %L..inline.23641
L..inline.23641:
	%1204 = load %struct._ZSt5arrayIdLm18EE*, %struct._ZSt5arrayIdLm18EE** %..inline.addr.800, align 8, !tbaa !3551, !dbg !3525
	%1205 = bitcast %struct._ZSt5arrayIdLm18EE*  %1204 to i8*, !dbg !3525
	%1206 = bitcast %struct._ZSt5arrayIdLm18EE** %..inline.addr.820 to i8**, !dbg !3525
	store i8*  %1205, i8**  %1206, align 8, !tbaa !3551, !dbg !3525
	%1207 = load i32, i32* %fComponent.addr.1, align 4, !tbaa !3554, !dbg !3542
	%1208 = mul i32  %1207, 2, !dbg !3542
	%1209 = add i32  %1208, 12, !dbg !3542
	%1210 = zext i32  %1209 to i64, !dbg !3542
	store i64  %1210, i64* %..inline.addr.830, align 8, !tbaa !3556, !dbg !3542
	%1211 = icmp ult i64  %1210, 18, !dbg !3542
	br i1  %1211, label %L..inline.23644, label %L.B0918, !dbg !3542
L.B0918:
	%1212 = bitcast [52 x i8]* @.S12573 to i8*, !dbg !3526
	call void (i8*, ...)  @_ZSt24__throw_out_of_range_fmtPKcz (i8*  %1212, i64  %1210, i64 18) noreturn, !dbg !3526
	br label %L..inline.23644
L..inline.23644:
	%1213 = load %struct._ZSt5arrayIdLm18EE*, %struct._ZSt5arrayIdLm18EE** %..inline.addr.820, align 8, !tbaa !3551, !dbg !3527
	%1214 = bitcast %struct._ZSt5arrayIdLm18EE*  %1213 to i8*, !dbg !3527
	%1215 = load i64, i64* %..inline.addr.830, align 8, !tbaa !3556, !dbg !3527
	%1216 = mul i64  %1215, 8, !dbg !3527
	%1217 = getelementptr i8, i8*  %1214, i64  %1216, !dbg !3527
	%1218 = bitcast double** %..inline.addr.840 to i8**, !dbg !3527
	store i8*  %1217, i8**  %1218, align 8, !tbaa !3551, !dbg !3527
	%1219 = load %struct.FieldFunction*, %struct.FieldFunction** %bgFunction.addr, align 8, !tbaa !3551, !dbg !3528
	%1220 = bitcast %struct.FieldFunction*  %1219 to %struct.T3DFunction*, !dbg !3528
	%1221 = bitcast [3 x double]* %start.addr to double*, !dbg !3528
	%1222 = bitcast [3 x double]* %end.addr to double*, !dbg !3528
	%1223 = call double  @_Z13volumeAverageRK11T3DFunctiondPKdS3_ (%struct.T3DFunction*  %1220, double  1.00000000000000007E-17, double*  %1221, double*  %1222), !dbg !3528
	store double  %1223, double* %.Q0016.addr, align 8, !tbaa !3558, !dbg !3528
	%1224 = load i32, i32* %fComponent.addr.1, align 4, !tbaa !3554, !dbg !3528
	%1225 = zext i32  %1224 to i64, !dbg !3528
	%1226 = bitcast [3 x i32]* %faceCoord1.addr to i32*, !dbg !3528
	%1227 = getelementptr i32, i32*  %1226, i64  %1225, !dbg !3528
	%1228 = load i32, i32*  %1227, align 4, !tbaa !3552, !dbg !3528
	%1229 = zext i32  %1228 to i64, !dbg !3528
	%1230 = bitcast [3 x double]* %dx.addr to double*, !dbg !3528
	%1231 = getelementptr double, double*  %1230, i64  %1229, !dbg !3528
	%1232 = load double, double*  %1231, align 8, !tbaa !3552, !dbg !3528
	%1233 = load double*, double** %..inline.addr.840, align 8, !tbaa !3551, !dbg !3528
	%1234 = load double, double*  %1233, align 8, !tbaa !3552, !dbg !3528
	%1235 = call double @llvm.fma.f64 (double  %1223, double  %1232, double  %1234), !dbg !3528
	store double  %1235, double*  %1233, align 8, !tbaa !3552, !dbg !3528
	%1236 = bitcast [3 x i32]* %faceCoord2.addr to i32*, !dbg !3543
	%1237 = getelementptr i32, i32*  %1236, i64  %1225, !dbg !3543
	%1238 = load i32, i32*  %1237, align 4, !tbaa !3552, !dbg !3543
	%1239 = load %struct.FieldFunction*, %struct.FieldFunction** %bgFunction.addr, align 8, !tbaa !3551, !dbg !3543
	%1240 = bitcast %struct.FieldFunction*  %1239 to i8*, !dbg !3543
	%1241 = getelementptr i8, i8*  %1240, i64 12, !dbg !3543
	%1242 = bitcast i8*  %1241 to i32*, !dbg !3543
	store i32  %1238, i32*  %1242, align 4, !tbaa !3552, !dbg !3543
	%1243 = load %struct._Z6FsGridISt5arrayIdLm18EELi2EE*, %struct._Z6FsGridISt5arrayIdLm18EELi2EE** %BgBGrid.addr, align 8, !tbaa !3551, !dbg !3544
	%1244 = bitcast %struct._Z6FsGridISt5arrayIdLm18EELi2EE*  %1243 to i8*, !dbg !3544
	%1245 = bitcast %struct._Z6FsGridISt5arrayIdLm18EELi2EE** %..inline.addr.860 to i8**, !dbg !3544
	store i8*  %1244, i8**  %1245, align 8, !tbaa !3551, !dbg !3544
	%1246 = load i32, i32* %x.addr, align 4, !tbaa !3554, !dbg !3544
	store i32  %1246, i32* %..inline.addr.870, align 4, !tbaa !3554, !dbg !3544
	%1247 = load i32, i32* %y.addr, align 4, !tbaa !3554, !dbg !3544
	store i32  %1247, i32* %..inline.addr.880, align 4, !tbaa !3554, !dbg !3544
	%1248 = load i32, i32* %z.addr, align 4, !tbaa !3554, !dbg !3544
	store i32  %1248, i32* %..inline.addr.890, align 4, !tbaa !3554, !dbg !3544
	store i32 13, i32* %..inline.addr.900, align 4, !tbaa !3554, !dbg !3544
	%1249 = bitcast [3 x i32]* %..inline.addr.910 to i32*, !dbg !3502
	store i32 0, i32*  %1249, align 4, !tbaa !3552, !dbg !3502
	%1250 = bitcast [3 x i32]* %..inline.addr.910 to i8*, !dbg !3503
	%1251 = getelementptr i8, i8*  %1250, i64 4, !dbg !3503
	%1252 = bitcast i8*  %1251 to i32*, !dbg !3503
	store i32 0, i32*  %1252, align 4, !tbaa !3552, !dbg !3503
	%1253 = getelementptr i8, i8*  %1250, i64 8, !dbg !3503
	%1254 = bitcast i8*  %1253 to i32*, !dbg !3503
	store i32 0, i32*  %1254, align 4, !tbaa !3552, !dbg !3503
	%1255 = icmp sge i32  %1246, 0, !dbg !3503
	br i1  %1255, label %L..inline.23669, label %L.B0919, !dbg !3503
L.B0919:
	store i32 4, i32* %..inline.addr.900, align 4, !tbaa !3554, !dbg !3504
	%1256 = bitcast [3 x i32]* %..inline.addr.910 to i32*, !dbg !3505
	store i32 1, i32*  %1256, align 4, !tbaa !3552, !dbg !3505
	br label %L..inline.23669
L..inline.23669:
	%1257 = load i32, i32* %..inline.addr.870, align 4, !tbaa !3554, !dbg !3506
	%1258 = load %struct._Z6FsGridISt5arrayIdLm18EELi2EE*, %struct._Z6FsGridISt5arrayIdLm18EELi2EE** %..inline.addr.860, align 8, !tbaa !3551, !dbg !3506
	%1259 = bitcast %struct._Z6FsGridISt5arrayIdLm18EELi2EE*  %1258 to i8*, !dbg !3506
	%1260 = getelementptr i8, i8*  %1259, i64 264, !dbg !3506
	%1261 = bitcast i8*  %1260 to i32*, !dbg !3506
	%1262 = load i32, i32*  %1261, align 4, !tbaa !3552, !dbg !3506
	%1263 = icmp slt i32  %1257,  %1262, !dbg !3506
	br i1  %1263, label %L..inline.23687, label %L.B0920, !dbg !3506
L.B0920:
	%1264 = load i32, i32* %..inline.addr.900, align 4, !tbaa !3554, !dbg !3506
	%1265 = add i32  %1264, 9, !dbg !3506
	store i32  %1265, i32* %..inline.addr.900, align 4, !tbaa !3554, !dbg !3506
	%1266 = bitcast [3 x i32]* %..inline.addr.910 to i32*, !dbg !3507
	store i32 -1, i32*  %1266, align 4, !tbaa !3552, !dbg !3507
	br label %L..inline.23687
L..inline.23687:
	%1267 = load i32, i32* %..inline.addr.880, align 4, !tbaa !3554, !dbg !3508
	%1268 = icmp sge i32  %1267, 0, !dbg !3508
	br i1  %1268, label %L..inline.23689, label %L.B0921, !dbg !3508
L.B0921:
	%1269 = load i32, i32* %..inline.addr.900, align 4, !tbaa !3554, !dbg !3508
	%1270 = sub i32  %1269, 3, !dbg !3508
	store i32  %1270, i32* %..inline.addr.900, align 4, !tbaa !3554, !dbg !3508
	%1271 = bitcast [3 x i32]* %..inline.addr.910 to i8*, !dbg !3509
	%1272 = getelementptr i8, i8*  %1271, i64 4, !dbg !3509
	%1273 = bitcast i8*  %1272 to i32*, !dbg !3509
	store i32 1, i32*  %1273, align 4, !tbaa !3552, !dbg !3509
	br label %L..inline.23689
L..inline.23689:
	%1274 = load i32, i32* %..inline.addr.880, align 4, !tbaa !3554, !dbg !3510
	%1275 = load %struct._Z6FsGridISt5arrayIdLm18EELi2EE*, %struct._Z6FsGridISt5arrayIdLm18EELi2EE** %..inline.addr.860, align 8, !tbaa !3551, !dbg !3510
	%1276 = bitcast %struct._Z6FsGridISt5arrayIdLm18EELi2EE*  %1275 to i8*, !dbg !3510
	%1277 = getelementptr i8, i8*  %1276, i64 268, !dbg !3510
	%1278 = bitcast i8*  %1277 to i32*, !dbg !3510
	%1279 = load i32, i32*  %1278, align 4, !tbaa !3552, !dbg !3510
	%1280 = icmp slt i32  %1274,  %1279, !dbg !3510
	br i1  %1280, label %L..inline.23706, label %L.B0922, !dbg !3510
L.B0922:
	%1281 = load i32, i32* %..inline.addr.900, align 4, !tbaa !3554, !dbg !3510
	%1282 = add i32  %1281, 3, !dbg !3510
	store i32  %1282, i32* %..inline.addr.900, align 4, !tbaa !3554, !dbg !3510
	%1283 = bitcast [3 x i32]* %..inline.addr.910 to i8*, !dbg !3511
	%1284 = getelementptr i8, i8*  %1283, i64 4, !dbg !3511
	%1285 = bitcast i8*  %1284 to i32*, !dbg !3511
	store i32 -1, i32*  %1285, align 4, !tbaa !3552, !dbg !3511
	br label %L..inline.23706
L..inline.23706:
	%1286 = load i32, i32* %..inline.addr.890, align 4, !tbaa !3554, !dbg !3512
	%1287 = icmp sge i32  %1286, 0, !dbg !3512
	br i1  %1287, label %L..inline.23708, label %L.B0923, !dbg !3512
L.B0923:
	%1288 = load i32, i32* %..inline.addr.900, align 4, !tbaa !3554, !dbg !3512
	%1289 = sub i32  %1288, 1, !dbg !3512
	store i32  %1289, i32* %..inline.addr.900, align 4, !tbaa !3554, !dbg !3512
	%1290 = bitcast [3 x i32]* %..inline.addr.910 to i8*, !dbg !3513
	%1291 = getelementptr i8, i8*  %1290, i64 8, !dbg !3513
	%1292 = bitcast i8*  %1291 to i32*, !dbg !3513
	store i32 1, i32*  %1292, align 4, !tbaa !3552, !dbg !3513
	br label %L..inline.23708
L..inline.23708:
	%1293 = load i32, i32* %..inline.addr.890, align 4, !tbaa !3554, !dbg !3514
	%1294 = load %struct._Z6FsGridISt5arrayIdLm18EELi2EE*, %struct._Z6FsGridISt5arrayIdLm18EELi2EE** %..inline.addr.860, align 8, !tbaa !3551, !dbg !3514
	%1295 = bitcast %struct._Z6FsGridISt5arrayIdLm18EELi2EE*  %1294 to i8*, !dbg !3514
	%1296 = getelementptr i8, i8*  %1295, i64 272, !dbg !3514
	%1297 = bitcast i8*  %1296 to i32*, !dbg !3514
	%1298 = load i32, i32*  %1297, align 4, !tbaa !3552, !dbg !3514
	%1299 = icmp slt i32  %1293,  %1298, !dbg !3514
	br i1  %1299, label %L..inline.23725, label %L.B0924, !dbg !3514
L.B0924:
	%1300 = load i32, i32* %..inline.addr.900, align 4, !tbaa !3554, !dbg !3514
	%1301 = add i32  %1300, 1, !dbg !3514
	store i32  %1301, i32* %..inline.addr.900, align 4, !tbaa !3554, !dbg !3514
	%1302 = bitcast [3 x i32]* %..inline.addr.910 to i8*, !dbg !3515
	%1303 = getelementptr i8, i8*  %1302, i64 8, !dbg !3515
	%1304 = bitcast i8*  %1303 to i32*, !dbg !3515
	store i32 -1, i32*  %1304, align 4, !tbaa !3552, !dbg !3515
	br label %L..inline.23725
L..inline.23725:
	%1305 = load i32, i32* %..inline.addr.900, align 4, !tbaa !3554, !dbg !3516
	%1306 = icmp eq i32  %1305, 13, !dbg !3516
	br i1  %1306, label %L..inline.23726, label %L.B0925, !dbg !3516
L.B0925:
	%1307 = sext i32  %1305 to i64, !dbg !3517
	%1308 = load %struct._Z6FsGridISt5arrayIdLm18EELi2EE*, %struct._Z6FsGridISt5arrayIdLm18EELi2EE** %..inline.addr.860, align 8, !tbaa !3551, !dbg !3517
	%1309 = bitcast %struct._Z6FsGridISt5arrayIdLm18EELi2EE*  %1308 to i8*, !dbg !3517
	%1310 = getelementptr i8, i8*  %1309, i64 92, !dbg !3517
	%1311 = bitcast i8*  %1310 to i32*, !dbg !3517
	%1312 = getelementptr i32, i32*  %1311, i64  %1307, !dbg !3517
	%1313 = load i32, i32*  %1312, align 4, !tbaa !3552, !dbg !3517
	%1314 = icmp ne i32  %1313, -2, !dbg !3517
	br i1  %1314, label %L..inline.23743, label %L.B0926, !dbg !3517
L.B0926:
	%1315 = bitcast %struct._ZSt5arrayIdLm18EE** %..inline.addr.920 to i8**, !dbg !3517
	store i8* null, i8**  %1315, align 8, !tbaa !3551, !dbg !3517
	br label %L..inline.23930, !dbg !3518
L..inline.23743:
	%1316 = load i32, i32* %..inline.addr.900, align 4, !tbaa !3554, !dbg !3519
	%1317 = sext i32  %1316 to i64, !dbg !3519
	%1318 = load %struct._Z6FsGridISt5arrayIdLm18EELi2EE*, %struct._Z6FsGridISt5arrayIdLm18EELi2EE** %..inline.addr.860, align 8, !tbaa !3551, !dbg !3519
	%1319 = bitcast %struct._Z6FsGridISt5arrayIdLm18EELi2EE*  %1318 to i8*, !dbg !3519
	%1320 = getelementptr i8, i8*  %1319, i64 92, !dbg !3519
	%1321 = bitcast i8*  %1320 to i32*, !dbg !3519
	%1322 = getelementptr i32, i32*  %1321, i64  %1317, !dbg !3519
	%1323 = load i32, i32*  %1322, align 4, !tbaa !3552, !dbg !3519
	%1324 = getelementptr i8, i8*  %1319, i64 56, !dbg !3519
	%1325 = bitcast i8*  %1324 to i32*, !dbg !3519
	%1326 = load i32, i32*  %1325, align 4, !tbaa !3552, !dbg !3519
	%1327 = icmp ne i32  %1323,  %1326, !dbg !3519
	br i1  %1327, label %L..inline.23761, label %L.B0927, !dbg !3519
L.B0927:
	%1328 = load i32, i32* %..inline.addr.870, align 4, !tbaa !3554, !dbg !3520
	%1329 = bitcast [3 x i32]* %..inline.addr.910 to i32*, !dbg !3520
	%1330 = load i32, i32*  %1329, align 4, !tbaa !3552, !dbg !3520
	%1331 = bitcast %struct._Z6FsGridISt5arrayIdLm18EELi2EE*  %1318 to i8*, !dbg !3520
	%1332 = getelementptr i8, i8*  %1331, i64 264, !dbg !3520
	%1333 = bitcast i8*  %1332 to i32*, !dbg !3520
	%1334 = load i32, i32*  %1333, align 4, !tbaa !3552, !dbg !3520
	%1335 = mul i32  %1330,  %1334, !dbg !3520
	%1336 = add i32  %1328,  %1335, !dbg !3520
	store i32  %1336, i32* %..inline.addr.870, align 4, !tbaa !3554, !dbg !3520
	%1337 = load i32, i32* %..inline.addr.880, align 4, !tbaa !3554, !dbg !3521
	%1338 = bitcast [3 x i32]* %..inline.addr.910 to i8*, !dbg !3521
	%1339 = getelementptr i8, i8*  %1338, i64 4, !dbg !3521
	%1340 = bitcast i8*  %1339 to i32*, !dbg !3521
	%1341 = load i32, i32*  %1340, align 4, !tbaa !3552, !dbg !3521
	%1342 = getelementptr i8, i8*  %1331, i64 268, !dbg !3521
	%1343 = bitcast i8*  %1342 to i32*, !dbg !3521
	%1344 = load i32, i32*  %1343, align 4, !tbaa !3552, !dbg !3521
	%1345 = mul i32  %1341,  %1344, !dbg !3521
	%1346 = add i32  %1337,  %1345, !dbg !3521
	store i32  %1346, i32* %..inline.addr.880, align 4, !tbaa !3554, !dbg !3521
	%1347 = load i32, i32* %..inline.addr.890, align 4, !tbaa !3554, !dbg !3522
	%1348 = getelementptr i8, i8*  %1338, i64 8, !dbg !3522
	%1349 = bitcast i8*  %1348 to i32*, !dbg !3522
	%1350 = load i32, i32*  %1349, align 4, !tbaa !3552, !dbg !3522
	%1351 = getelementptr i8, i8*  %1331, i64 272, !dbg !3522
	%1352 = bitcast i8*  %1351 to i32*, !dbg !3522
	%1353 = load i32, i32*  %1352, align 4, !tbaa !3552, !dbg !3522
	%1354 = mul i32  %1350,  %1353, !dbg !3522
	%1355 = add i32  %1347,  %1354, !dbg !3522
	store i32  %1355, i32* %..inline.addr.890, align 4, !tbaa !3554, !dbg !3522
	br label %L..inline.23761
L..inline.23761:
	br label %L..inline.23726
L..inline.23726:
	store i64 0, i64* %..inline.addr.930, align 8, !tbaa !3556, !dbg !3523
	%1356 = load %struct._Z6FsGridISt5arrayIdLm18EELi2EE*, %struct._Z6FsGridISt5arrayIdLm18EELi2EE** %..inline.addr.860, align 8, !tbaa !3551, !dbg !3523
	%1357 = bitcast %struct._Z6FsGridISt5arrayIdLm18EELi2EE*  %1356 to i8*, !dbg !3523
	%1358 = getelementptr i8, i8*  %1357, i64 260, !dbg !3523
	%1359 = bitcast i8*  %1358 to i32*, !dbg !3523
	%1360 = load i32, i32*  %1359, align 4, !tbaa !3552, !dbg !3523
	%1361 = icmp sle i32  %1360, 1, !dbg !3523
	br i1  %1361, label %L..inline.23835, label %L.B0928, !dbg !3523
L.B0928:
	%1362 = load i32, i32* %..inline.addr.890, align 4, !tbaa !3554, !dbg !3523
	%1363 = add i32  %1362, 2, !dbg !3523
	%1364 = bitcast %struct._Z6FsGridISt5arrayIdLm18EELi2EE*  %1356 to i8*, !dbg !3523
	%1365 = getelementptr i8, i8*  %1364, i64 280, !dbg !3523
	%1366 = bitcast i8*  %1365 to i32*, !dbg !3523
	%1367 = load i32, i32*  %1366, align 4, !tbaa !3552, !dbg !3523
	%1368 = getelementptr i8, i8*  %1364, i64 276, !dbg !3523
	%1369 = bitcast i8*  %1368 to i32*, !dbg !3523
	%1370 = load i32, i32*  %1369, align 4, !tbaa !3552, !dbg !3523
	%1371 = mul i32  %1367,  %1370, !dbg !3523
	%1372 = mul i32  %1363,  %1371, !dbg !3523
	%1373 = sext i32  %1372 to i64, !dbg !3523
	store i64  %1373, i64* %..inline.addr.930, align 8, !tbaa !3556, !dbg !3523
	br label %L..inline.23835
L..inline.23835:
	%1374 = load %struct._Z6FsGridISt5arrayIdLm18EELi2EE*, %struct._Z6FsGridISt5arrayIdLm18EELi2EE** %..inline.addr.860, align 8, !tbaa !3551, !dbg !3523
	%1375 = bitcast %struct._Z6FsGridISt5arrayIdLm18EELi2EE*  %1374 to i8*, !dbg !3523
	%1376 = getelementptr i8, i8*  %1375, i64 256, !dbg !3523
	%1377 = bitcast i8*  %1376 to i32*, !dbg !3523
	%1378 = load i32, i32*  %1377, align 4, !tbaa !3552, !dbg !3523
	%1379 = icmp sle i32  %1378, 1, !dbg !3523
	br i1  %1379, label %L..inline.23884, label %L.B0929, !dbg !3523
L.B0929:
	%1380 = load i64, i64* %..inline.addr.930, align 8, !tbaa !3556, !dbg !3523
	%1381 = bitcast %struct._Z6FsGridISt5arrayIdLm18EELi2EE*  %1374 to i8*, !dbg !3523
	%1382 = getelementptr i8, i8*  %1381, i64 276, !dbg !3523
	%1383 = bitcast i8*  %1382 to i32*, !dbg !3523
	%1384 = load i32, i32*  %1383, align 4, !tbaa !3552, !dbg !3523
	%1385 = load i32, i32* %..inline.addr.880, align 4, !tbaa !3554, !dbg !3523
	%1386 = add i32  %1385, 2, !dbg !3523
	%1387 = mul i32  %1384,  %1386, !dbg !3523
	%1388 = sext i32  %1387 to i64, !dbg !3523
	%1389 = add i64  %1380,  %1388, !dbg !3523
	store i64  %1389, i64* %..inline.addr.930, align 8, !tbaa !3556, !dbg !3523
	br label %L..inline.23884
L..inline.23884:
	%1390 = load %struct._Z6FsGridISt5arrayIdLm18EELi2EE*, %struct._Z6FsGridISt5arrayIdLm18EELi2EE** %..inline.addr.860, align 8, !tbaa !3551, !dbg !3523
	%1391 = bitcast %struct._Z6FsGridISt5arrayIdLm18EELi2EE*  %1390 to i8*, !dbg !3523
	%1392 = getelementptr i8, i8*  %1391, i64 252, !dbg !3523
	%1393 = bitcast i8*  %1392 to i32*, !dbg !3523
	%1394 = load i32, i32*  %1393, align 4, !tbaa !3552, !dbg !3523
	%1395 = icmp sle i32  %1394, 1, !dbg !3523
	%1396 = zext i1  %1395 to i32, !dbg !3523
	%1397 = trunc i32  %1396 to i1, !dbg !3523
	%1398 = load i64, i64* %..inline.addr.930, align 8, !tbaa !3556, !dbg !3523
	%1399 = load i32, i32* %..inline.addr.870, align 4, !tbaa !3554, !dbg !3523
	%1400 = sext i32  %1399 to i64, !dbg !3523
	%1401 = add i64  %1400, 2, !dbg !3523
	%1402 = add i64  %1398,  %1401, !dbg !3523
	%1403 = select i1  %1397, i64  %1398, i64  %1402, !dbg !3523
	%1404 = getelementptr i8, i8*  %1391, i64 744, !dbg !3524
	%1405 = bitcast i8*  %1404 to i8**, !dbg !3524
	%1406 = load i8*, i8**  %1405, align 8, !tbaa !3551, !dbg !3524
	%1407 = mul i64  %1403, 144, !dbg !3524
	%1408 = getelementptr i8, i8*  %1406, i64  %1407, !dbg !3524
	%1409 = bitcast %struct._ZSt5arrayIdLm18EE** %..inline.addr.920 to i8**, !dbg !3524
	store i8*  %1408, i8**  %1409, align 8, !tbaa !3551, !dbg !3524
	br label %L..inline.23930
L..inline.23930:
	%1410 = load %struct._ZSt5arrayIdLm18EE*, %struct._ZSt5arrayIdLm18EE** %..inline.addr.920, align 8, !tbaa !3551, !dbg !3525
	%1411 = bitcast %struct._ZSt5arrayIdLm18EE*  %1410 to i8*, !dbg !3525
	%1412 = bitcast %struct._ZSt5arrayIdLm18EE** %..inline.addr.940 to i8**, !dbg !3525
	store i8*  %1411, i8**  %1412, align 8, !tbaa !3551, !dbg !3525
	%1413 = load i32, i32* %fComponent.addr.1, align 4, !tbaa !3554, !dbg !3544
	%1414 = mul i32  %1413, 2, !dbg !3544
	%1415 = add i32  %1414, 13, !dbg !3544
	%1416 = zext i32  %1415 to i64, !dbg !3544
	store i64  %1416, i64* %..inline.addr.950, align 8, !tbaa !3556, !dbg !3544
	%1417 = icmp ult i64  %1416, 18, !dbg !3544
	br i1  %1417, label %L..inline.23933, label %L.B0930, !dbg !3544
L.B0930:
	%1418 = bitcast [52 x i8]* @.S12573 to i8*, !dbg !3526
	call void (i8*, ...)  @_ZSt24__throw_out_of_range_fmtPKcz (i8*  %1418, i64  %1416, i64 18) noreturn, !dbg !3526
	br label %L..inline.23933
L..inline.23933:
	%1419 = load %struct._ZSt5arrayIdLm18EE*, %struct._ZSt5arrayIdLm18EE** %..inline.addr.940, align 8, !tbaa !3551, !dbg !3527
	%1420 = bitcast %struct._ZSt5arrayIdLm18EE*  %1419 to i8*, !dbg !3527
	%1421 = load i64, i64* %..inline.addr.950, align 8, !tbaa !3556, !dbg !3527
	%1422 = mul i64  %1421, 8, !dbg !3527
	%1423 = getelementptr i8, i8*  %1420, i64  %1422, !dbg !3527
	%1424 = bitcast double** %..inline.addr.960 to i8**, !dbg !3527
	store i8*  %1423, i8**  %1424, align 8, !tbaa !3551, !dbg !3527
	%1425 = load %struct.FieldFunction*, %struct.FieldFunction** %bgFunction.addr, align 8, !tbaa !3551, !dbg !3528
	%1426 = bitcast %struct.FieldFunction*  %1425 to %struct.T3DFunction*, !dbg !3528
	%1427 = bitcast [3 x double]* %start.addr to double*, !dbg !3528
	%1428 = bitcast [3 x double]* %end.addr to double*, !dbg !3528
	%1429 = call double  @_Z13volumeAverageRK11T3DFunctiondPKdS3_ (%struct.T3DFunction*  %1426, double  1.00000000000000007E-17, double*  %1427, double*  %1428), !dbg !3528
	store double  %1429, double* %.Q0017.addr, align 8, !tbaa !3558, !dbg !3528
	%1430 = load i32, i32* %fComponent.addr.1, align 4, !tbaa !3554, !dbg !3528
	%1431 = zext i32  %1430 to i64, !dbg !3528
	%1432 = bitcast [3 x i32]* %faceCoord2.addr to i32*, !dbg !3528
	%1433 = getelementptr i32, i32*  %1432, i64  %1431, !dbg !3528
	%1434 = load i32, i32*  %1433, align 4, !tbaa !3552, !dbg !3528
	%1435 = zext i32  %1434 to i64, !dbg !3528
	%1436 = bitcast [3 x double]* %dx.addr to double*, !dbg !3528
	%1437 = getelementptr double, double*  %1436, i64  %1435, !dbg !3528
	%1438 = load double, double*  %1437, align 8, !tbaa !3552, !dbg !3528
	%1439 = load double*, double** %..inline.addr.960, align 8, !tbaa !3551, !dbg !3528
	%1440 = load double, double*  %1439, align 8, !tbaa !3552, !dbg !3528
	%1441 = call double @llvm.fma.f64 (double  %1429, double  %1438, double  %1440), !dbg !3528
	store double  %1441, double*  %1439, align 8, !tbaa !3552, !dbg !3528

	%1442 = add i32  %1430, 1, !dbg !3545
	store i32  %1442, i32* %fComponent.addr.1, align 4, !tbaa !3554, !dbg !3545
	%1443 = load i32, i32* %.x0004.addr, align 4, !tbaa !3554, !dbg !3535
	%1444 = sub i32  %1443, 1, !dbg !3535
	store i32  %1444, i32* %.x0004.addr, align 4, !tbaa !3554, !dbg !3535
	%1445 = icmp ne i32  %1444, 0, !dbg !3545
	br i1  %1445, label %L.B0018, label %L.N0002, !dbg !3545
L.N0002:
	%1446 = load i32, i32* %z.addr, align 4, !tbaa !3554, !dbg !3546
	%1447 = add i32  %1446, 1, !dbg !3546
	store i32  %1447, i32* %z.addr, align 4, !tbaa !3554, !dbg !3546
	%1448 = bitcast %struct._ZSt5arrayIiLm3EE* %localSize.addr to i8*, !dbg !3546
	%1449 = getelementptr i8, i8*  %1448, i64 8, !dbg !3546
	%1450 = bitcast i8*  %1449 to i32*, !dbg !3546
	%1451 = load i32, i32*  %1450, align 4, !tbaa !3552, !dbg !3546
	%1452 = icmp slt i32  %1447,  %1451, !dbg !3546
	br i1  %1452, label %L.B0010, label %L.B0011, !dbg !3546
L.B0011:
	%1453 = load i32, i32* %y.addr, align 4, !tbaa !3554, !dbg !3547
	%1454 = add i32  %1453, 1, !dbg !3547
	store i32  %1454, i32* %y.addr, align 4, !tbaa !3554, !dbg !3547
	%1455 = bitcast %struct._ZSt5arrayIiLm3EE* %localSize.addr to i8*, !dbg !3547
	%1456 = getelementptr i8, i8*  %1455, i64 4, !dbg !3547
	%1457 = bitcast i8*  %1456 to i32*, !dbg !3547
	%1458 = load i32, i32*  %1457, align 4, !tbaa !3552, !dbg !3547
	%1459 = icmp slt i32  %1454,  %1458, !dbg !3547
	br i1  %1459, label %L.B0006, label %L.B0007, !dbg !3547
L.B0007:
	%1460 = load i32, i32* %x.addr, align 4, !tbaa !3554, !dbg !3548
	%1461 = add i32  %1460, 1, !dbg !3548
	store i32  %1461, i32* %x.addr, align 4, !tbaa !3554, !dbg !3548
	%1462 = bitcast %struct._ZSt5arrayIiLm3EE* %localSize.addr to i32*, !dbg !3548
	%1463 = load i32, i32*  %1462, align 4, !tbaa !3552, !dbg !3548
	%1464 = icmp slt i32  %1461,  %1463, !dbg !3548
	br i1  %1464, label %L.B0002, label %L.B0003, !dbg !3548
L.B0003:
	br label %L.N0005
L.N0005:
	br label %L.N0006
L.N0006:
	br label %L.N0007
L.N0007:
	ret void, !dbg !3474
}
define void @_Z24setBackgroundFieldToZeroR6FsGridISt5arrayIdLm18EELi2EE(%struct._Z6FsGridISt5arrayIdLm18EELi2EE* %BgBGrid.arg) #0 !dbg !3562 {
L.entry:
	%BgBGrid.addr = alloca %struct._Z6FsGridISt5arrayIdLm18EELi2EE*, align 8
	%localSize.addr = alloca i32*, align 8
	%x.addr = alloca i32, align 4
	%y.addr = alloca i32, align 4
	%z.addr = alloca i32, align 4
	%i.addr = alloca i32, align 4
	%..inline.addr = alloca %struct._Z6FsGridISt5arrayIdLm18EELi2EE*, align 8
	%..inline.addr.1 = alloca i32, align 4
	%..inline.addr.2 = alloca i32, align 4
	%..inline.addr.3 = alloca i32, align 4
	%..inline.addr.4 = alloca i32, align 4
	%..inline.addr.5 = alloca [3 x i32], align 4
	%..inline.addr.6 = alloca %struct._ZSt5arrayIdLm18EE*, align 8
	%..inline.addr.7 = alloca i64, align 8
	%..inline.addr.8 = alloca %struct._ZSt5arrayIdLm18EE*, align 8
	%..inline.addr.9 = alloca i64, align 8

	call void @llvm.dbg.declare (metadata %struct._Z6FsGridISt5arrayIdLm18EELi2EE** %BgBGrid.addr, metadata !3724, metadata !3456), !dbg !3563
	store %struct._Z6FsGridISt5arrayIdLm18EELi2EE* %BgBGrid.arg, %struct._Z6FsGridISt5arrayIdLm18EELi2EE** %BgBGrid.addr, align 8, !tbaa !3551
	call void @llvm.dbg.declare (metadata %struct._Z6FsGridISt5arrayIdLm18EELi2EE** %BgBGrid.addr, metadata !3725, metadata !3456), !dbg !3563
	%0 = load %struct._Z6FsGridISt5arrayIdLm18EELi2EE*, %struct._Z6FsGridISt5arrayIdLm18EELi2EE** %BgBGrid.addr, align 8, !tbaa !3551, !dbg !3726
	%1 = bitcast %struct._Z6FsGridISt5arrayIdLm18EELi2EE*  %0 to i8*, !dbg !3726
	%2 = getelementptr i8, i8*  %1, i64 264, !dbg !3726
	call void @llvm.dbg.declare (metadata i32** %localSize.addr, metadata !3727, metadata !3456), !dbg !3563
	%3 = bitcast i32** %localSize.addr to i8**, !dbg !3726
	store i8*  %2, i8**  %3, align 8, !tbaa !3551, !dbg !3726
	call void @llvm.dbg.declare (metadata i32* %x.addr, metadata !3729, metadata !3456), !dbg !3567
	store i32 0, i32* %x.addr, align 4, !tbaa !3554, !dbg !3728
	%4 = load i32*, i32** %localSize.addr, align 8, !tbaa !3551, !dbg !3728
	%5 = load i32, i32*  %4, align 4, !tbaa !3552, !dbg !3728
	%6 = icmp sle i32  %5, 0, !dbg !3728
	br i1  %6, label %L.B0029, label %L.B0028, !dbg !3728
L.B0028:
	call void @llvm.dbg.declare (metadata i32* %y.addr, metadata !3731, metadata !3456), !dbg !3571
	store i32 0, i32* %y.addr, align 4, !tbaa !3554, !dbg !3730
	%7 = load i32*, i32** %localSize.addr, align 8, !tbaa !3551, !dbg !3730
	%8 = bitcast i32*  %7 to i8*, !dbg !3730
	%9 = getelementptr i8, i8*  %8, i64 4, !dbg !3730
	%10 = bitcast i8*  %9 to i32*, !dbg !3730
	%11 = load i32, i32*  %10, align 4, !tbaa !3552, !dbg !3730
	%12 = icmp sle i32  %11, 0, !dbg !3730
	br i1  %12, label %L.B0033, label %L.B0032, !dbg !3730
L.B0032:
	call void @llvm.dbg.declare (metadata i32* %z.addr, metadata !3733, metadata !3456), !dbg !3575
	store i32 0, i32* %z.addr, align 4, !tbaa !3554, !dbg !3732
	%13 = load i32*, i32** %localSize.addr, align 8, !tbaa !3551, !dbg !3732
	%14 = bitcast i32*  %13 to i8*, !dbg !3732
	%15 = getelementptr i8, i8*  %14, i64 8, !dbg !3732
	%16 = bitcast i8*  %15 to i32*, !dbg !3732
	%17 = load i32, i32*  %16, align 4, !tbaa !3552, !dbg !3732
	%18 = icmp sle i32  %17, 0, !dbg !3732
	br i1  %18, label %L.B0037, label %L.B0036, !dbg !3732
L.B0036:
	call void @llvm.dbg.declare (metadata i32* %i.addr, metadata !3735, metadata !3456), !dbg !3579
	store i32 0, i32* %i.addr, align 4, !tbaa !3554, !dbg !3734
	br label %L.B0040
L.B0040:
	%19 = load i32, i32* %i.addr, align 4, !tbaa !3554, !dbg !3734
	%20 = icmp sge i32  %19, 18, !dbg !3734
	br i1  %20, label %L.N0008, label %L.B0939, !dbg !3734
L.B0939:
	%21 = load %struct._Z6FsGridISt5arrayIdLm18EELi2EE*, %struct._Z6FsGridISt5arrayIdLm18EELi2EE** %BgBGrid.addr, align 8, !tbaa !3551, !dbg !3736
	%22 = bitcast %struct._Z6FsGridISt5arrayIdLm18EELi2EE*  %21 to i8*, !dbg !3736
	%23 = bitcast %struct._Z6FsGridISt5arrayIdLm18EELi2EE** %..inline.addr to i8**, !dbg !3736
	store i8*  %22, i8**  %23, align 8, !tbaa !3551, !dbg !3736
	%24 = load i32, i32* %x.addr, align 4, !tbaa !3554, !dbg !3736
	store i32  %24, i32* %..inline.addr.1, align 4, !tbaa !3554, !dbg !3736
	%25 = load i32, i32* %y.addr, align 4, !tbaa !3554, !dbg !3736
	store i32  %25, i32* %..inline.addr.2, align 4, !tbaa !3554, !dbg !3736
	%26 = load i32, i32* %z.addr, align 4, !tbaa !3554, !dbg !3736
	store i32  %26, i32* %..inline.addr.3, align 4, !tbaa !3554, !dbg !3736
	store i32 13, i32* %..inline.addr.4, align 4, !tbaa !3554, !dbg !3736
	%27 = bitcast [3 x i32]* %..inline.addr.5 to i32*, !dbg !3737
	store i32 0, i32*  %27, align 4, !tbaa !3552, !dbg !3737
	%28 = bitcast [3 x i32]* %..inline.addr.5 to i8*, !dbg !3738
	%29 = getelementptr i8, i8*  %28, i64 4, !dbg !3738
	%30 = bitcast i8*  %29 to i32*, !dbg !3738
	store i32 0, i32*  %30, align 4, !tbaa !3552, !dbg !3738
	%31 = getelementptr i8, i8*  %28, i64 8, !dbg !3738
	%32 = bitcast i8*  %31 to i32*, !dbg !3738
	store i32 0, i32*  %32, align 4, !tbaa !3552, !dbg !3738
	%33 = icmp sge i32  %24, 0, !dbg !3738
	br i1  %33, label %L..inline.25123, label %L.B0940, !dbg !3738
L.B0940:
	store i32 4, i32* %..inline.addr.4, align 4, !tbaa !3554, !dbg !3739
	%34 = bitcast [3 x i32]* %..inline.addr.5 to i32*, !dbg !3740
	store i32 1, i32*  %34, align 4, !tbaa !3552, !dbg !3740
	br label %L..inline.25123
L..inline.25123:
	%35 = load i32, i32* %..inline.addr.1, align 4, !tbaa !3554, !dbg !3741
	%36 = load %struct._Z6FsGridISt5arrayIdLm18EELi2EE*, %struct._Z6FsGridISt5arrayIdLm18EELi2EE** %..inline.addr, align 8, !tbaa !3551, !dbg !3741
	%37 = bitcast %struct._Z6FsGridISt5arrayIdLm18EELi2EE*  %36 to i8*, !dbg !3741
	%38 = getelementptr i8, i8*  %37, i64 264, !dbg !3741
	%39 = bitcast i8*  %38 to i32*, !dbg !3741
	%40 = load i32, i32*  %39, align 4, !tbaa !3552, !dbg !3741
	%41 = icmp slt i32  %35,  %40, !dbg !3741
	br i1  %41, label %L..inline.25141, label %L.B0941, !dbg !3741
L.B0941:
	%42 = load i32, i32* %..inline.addr.4, align 4, !tbaa !3554, !dbg !3741
	%43 = add i32  %42, 9, !dbg !3741
	store i32  %43, i32* %..inline.addr.4, align 4, !tbaa !3554, !dbg !3741
	%44 = bitcast [3 x i32]* %..inline.addr.5 to i32*, !dbg !3742
	store i32 -1, i32*  %44, align 4, !tbaa !3552, !dbg !3742
	br label %L..inline.25141
L..inline.25141:
	%45 = load i32, i32* %..inline.addr.2, align 4, !tbaa !3554, !dbg !3743
	%46 = icmp sge i32  %45, 0, !dbg !3743
	br i1  %46, label %L..inline.25143, label %L.B0942, !dbg !3743
L.B0942:
	%47 = load i32, i32* %..inline.addr.4, align 4, !tbaa !3554, !dbg !3743
	%48 = sub i32  %47, 3, !dbg !3743
	store i32  %48, i32* %..inline.addr.4, align 4, !tbaa !3554, !dbg !3743
	%49 = bitcast [3 x i32]* %..inline.addr.5 to i8*, !dbg !3744
	%50 = getelementptr i8, i8*  %49, i64 4, !dbg !3744
	%51 = bitcast i8*  %50 to i32*, !dbg !3744
	store i32 1, i32*  %51, align 4, !tbaa !3552, !dbg !3744
	br label %L..inline.25143
L..inline.25143:
	%52 = load i32, i32* %..inline.addr.2, align 4, !tbaa !3554, !dbg !3745
	%53 = load %struct._Z6FsGridISt5arrayIdLm18EELi2EE*, %struct._Z6FsGridISt5arrayIdLm18EELi2EE** %..inline.addr, align 8, !tbaa !3551, !dbg !3745
	%54 = bitcast %struct._Z6FsGridISt5arrayIdLm18EELi2EE*  %53 to i8*, !dbg !3745
	%55 = getelementptr i8, i8*  %54, i64 268, !dbg !3745
	%56 = bitcast i8*  %55 to i32*, !dbg !3745
	%57 = load i32, i32*  %56, align 4, !tbaa !3552, !dbg !3745
	%58 = icmp slt i32  %52,  %57, !dbg !3745
	br i1  %58, label %L..inline.25160, label %L.B0943, !dbg !3745
L.B0943:
	%59 = load i32, i32* %..inline.addr.4, align 4, !tbaa !3554, !dbg !3745
	%60 = add i32  %59, 3, !dbg !3745
	store i32  %60, i32* %..inline.addr.4, align 4, !tbaa !3554, !dbg !3745
	%61 = bitcast [3 x i32]* %..inline.addr.5 to i8*, !dbg !3746
	%62 = getelementptr i8, i8*  %61, i64 4, !dbg !3746
	%63 = bitcast i8*  %62 to i32*, !dbg !3746
	store i32 -1, i32*  %63, align 4, !tbaa !3552, !dbg !3746
	br label %L..inline.25160
L..inline.25160:
	%64 = load i32, i32* %..inline.addr.3, align 4, !tbaa !3554, !dbg !3747
	%65 = icmp sge i32  %64, 0, !dbg !3747
	br i1  %65, label %L..inline.25162, label %L.B0944, !dbg !3747
L.B0944:
	%66 = load i32, i32* %..inline.addr.4, align 4, !tbaa !3554, !dbg !3747
	%67 = sub i32  %66, 1, !dbg !3747
	store i32  %67, i32* %..inline.addr.4, align 4, !tbaa !3554, !dbg !3747
	%68 = bitcast [3 x i32]* %..inline.addr.5 to i8*, !dbg !3748
	%69 = getelementptr i8, i8*  %68, i64 8, !dbg !3748
	%70 = bitcast i8*  %69 to i32*, !dbg !3748
	store i32 1, i32*  %70, align 4, !tbaa !3552, !dbg !3748
	br label %L..inline.25162
L..inline.25162:
	%71 = load i32, i32* %..inline.addr.3, align 4, !tbaa !3554, !dbg !3749
	%72 = load %struct._Z6FsGridISt5arrayIdLm18EELi2EE*, %struct._Z6FsGridISt5arrayIdLm18EELi2EE** %..inline.addr, align 8, !tbaa !3551, !dbg !3749
	%73 = bitcast %struct._Z6FsGridISt5arrayIdLm18EELi2EE*  %72 to i8*, !dbg !3749
	%74 = getelementptr i8, i8*  %73, i64 272, !dbg !3749
	%75 = bitcast i8*  %74 to i32*, !dbg !3749
	%76 = load i32, i32*  %75, align 4, !tbaa !3552, !dbg !3749
	%77 = icmp slt i32  %71,  %76, !dbg !3749
	br i1  %77, label %L..inline.25179, label %L.B0945, !dbg !3749
L.B0945:
	%78 = load i32, i32* %..inline.addr.4, align 4, !tbaa !3554, !dbg !3749
	%79 = add i32  %78, 1, !dbg !3749
	store i32  %79, i32* %..inline.addr.4, align 4, !tbaa !3554, !dbg !3749
	%80 = bitcast [3 x i32]* %..inline.addr.5 to i8*, !dbg !3750
	%81 = getelementptr i8, i8*  %80, i64 8, !dbg !3750
	%82 = bitcast i8*  %81 to i32*, !dbg !3750
	store i32 -1, i32*  %82, align 4, !tbaa !3552, !dbg !3750
	br label %L..inline.25179
L..inline.25179:
	%83 = load i32, i32* %..inline.addr.4, align 4, !tbaa !3554, !dbg !3751
	%84 = icmp eq i32  %83, 13, !dbg !3751
	br i1  %84, label %L..inline.25180, label %L.B0946, !dbg !3751
L.B0946:
	%85 = sext i32  %83 to i64, !dbg !3752
	%86 = load %struct._Z6FsGridISt5arrayIdLm18EELi2EE*, %struct._Z6FsGridISt5arrayIdLm18EELi2EE** %..inline.addr, align 8, !tbaa !3551, !dbg !3752
	%87 = bitcast %struct._Z6FsGridISt5arrayIdLm18EELi2EE*  %86 to i8*, !dbg !3752
	%88 = getelementptr i8, i8*  %87, i64 92, !dbg !3752
	%89 = bitcast i8*  %88 to i32*, !dbg !3752
	%90 = getelementptr i32, i32*  %89, i64  %85, !dbg !3752
	%91 = load i32, i32*  %90, align 4, !tbaa !3552, !dbg !3752
	%92 = icmp ne i32  %91, -2, !dbg !3752
	br i1  %92, label %L..inline.25197, label %L.B0947, !dbg !3752
L.B0947:
	%93 = bitcast %struct._ZSt5arrayIdLm18EE** %..inline.addr.6 to i8**, !dbg !3752
	store i8* null, i8**  %93, align 8, !tbaa !3551, !dbg !3752
	br label %L..inline.25384, !dbg !3753
L..inline.25197:
	%94 = load i32, i32* %..inline.addr.4, align 4, !tbaa !3554, !dbg !3754
	%95 = sext i32  %94 to i64, !dbg !3754
	%96 = load %struct._Z6FsGridISt5arrayIdLm18EELi2EE*, %struct._Z6FsGridISt5arrayIdLm18EELi2EE** %..inline.addr, align 8, !tbaa !3551, !dbg !3754
	%97 = bitcast %struct._Z6FsGridISt5arrayIdLm18EELi2EE*  %96 to i8*, !dbg !3754
	%98 = getelementptr i8, i8*  %97, i64 92, !dbg !3754
	%99 = bitcast i8*  %98 to i32*, !dbg !3754
	%100 = getelementptr i32, i32*  %99, i64  %95, !dbg !3754
	%101 = load i32, i32*  %100, align 4, !tbaa !3552, !dbg !3754
	%102 = getelementptr i8, i8*  %97, i64 56, !dbg !3754
	%103 = bitcast i8*  %102 to i32*, !dbg !3754
	%104 = load i32, i32*  %103, align 4, !tbaa !3552, !dbg !3754
	%105 = icmp ne i32  %101,  %104, !dbg !3754
	br i1  %105, label %L..inline.25215, label %L.B0948, !dbg !3754
L.B0948:
	%106 = load i32, i32* %..inline.addr.1, align 4, !tbaa !3554, !dbg !3755
	%107 = bitcast [3 x i32]* %..inline.addr.5 to i32*, !dbg !3755
	%108 = load i32, i32*  %107, align 4, !tbaa !3552, !dbg !3755
	%109 = bitcast %struct._Z6FsGridISt5arrayIdLm18EELi2EE*  %96 to i8*, !dbg !3755
	%110 = getelementptr i8, i8*  %109, i64 264, !dbg !3755
	%111 = bitcast i8*  %110 to i32*, !dbg !3755
	%112 = load i32, i32*  %111, align 4, !tbaa !3552, !dbg !3755
	%113 = mul i32  %108,  %112, !dbg !3755
	%114 = add i32  %106,  %113, !dbg !3755
	store i32  %114, i32* %..inline.addr.1, align 4, !tbaa !3554, !dbg !3755
	%115 = load i32, i32* %..inline.addr.2, align 4, !tbaa !3554, !dbg !3756
	%116 = bitcast [3 x i32]* %..inline.addr.5 to i8*, !dbg !3756
	%117 = getelementptr i8, i8*  %116, i64 4, !dbg !3756
	%118 = bitcast i8*  %117 to i32*, !dbg !3756
	%119 = load i32, i32*  %118, align 4, !tbaa !3552, !dbg !3756
	%120 = getelementptr i8, i8*  %109, i64 268, !dbg !3756
	%121 = bitcast i8*  %120 to i32*, !dbg !3756
	%122 = load i32, i32*  %121, align 4, !tbaa !3552, !dbg !3756
	%123 = mul i32  %119,  %122, !dbg !3756
	%124 = add i32  %115,  %123, !dbg !3756
	store i32  %124, i32* %..inline.addr.2, align 4, !tbaa !3554, !dbg !3756
	%125 = load i32, i32* %..inline.addr.3, align 4, !tbaa !3554, !dbg !3757
	%126 = getelementptr i8, i8*  %116, i64 8, !dbg !3757
	%127 = bitcast i8*  %126 to i32*, !dbg !3757
	%128 = load i32, i32*  %127, align 4, !tbaa !3552, !dbg !3757
	%129 = getelementptr i8, i8*  %109, i64 272, !dbg !3757
	%130 = bitcast i8*  %129 to i32*, !dbg !3757
	%131 = load i32, i32*  %130, align 4, !tbaa !3552, !dbg !3757
	%132 = mul i32  %128,  %131, !dbg !3757
	%133 = add i32  %125,  %132, !dbg !3757
	store i32  %133, i32* %..inline.addr.3, align 4, !tbaa !3554, !dbg !3757
	br label %L..inline.25215
L..inline.25215:
	br label %L..inline.25180
L..inline.25180:
	store i64 0, i64* %..inline.addr.7, align 8, !tbaa !3556, !dbg !3758
	%134 = load %struct._Z6FsGridISt5arrayIdLm18EELi2EE*, %struct._Z6FsGridISt5arrayIdLm18EELi2EE** %..inline.addr, align 8, !tbaa !3551, !dbg !3758
	%135 = bitcast %struct._Z6FsGridISt5arrayIdLm18EELi2EE*  %134 to i8*, !dbg !3758
	%136 = getelementptr i8, i8*  %135, i64 260, !dbg !3758
	%137 = bitcast i8*  %136 to i32*, !dbg !3758
	%138 = load i32, i32*  %137, align 4, !tbaa !3552, !dbg !3758
	%139 = icmp sle i32  %138, 1, !dbg !3758
	br i1  %139, label %L..inline.25289, label %L.B0949, !dbg !3758
L.B0949:
	%140 = load i32, i32* %..inline.addr.3, align 4, !tbaa !3554, !dbg !3758
	%141 = add i32  %140, 2, !dbg !3758
	%142 = bitcast %struct._Z6FsGridISt5arrayIdLm18EELi2EE*  %134 to i8*, !dbg !3758
	%143 = getelementptr i8, i8*  %142, i64 280, !dbg !3758
	%144 = bitcast i8*  %143 to i32*, !dbg !3758
	%145 = load i32, i32*  %144, align 4, !tbaa !3552, !dbg !3758
	%146 = getelementptr i8, i8*  %142, i64 276, !dbg !3758
	%147 = bitcast i8*  %146 to i32*, !dbg !3758
	%148 = load i32, i32*  %147, align 4, !tbaa !3552, !dbg !3758
	%149 = mul i32  %145,  %148, !dbg !3758
	%150 = mul i32  %141,  %149, !dbg !3758
	%151 = sext i32  %150 to i64, !dbg !3758
	store i64  %151, i64* %..inline.addr.7, align 8, !tbaa !3556, !dbg !3758
	br label %L..inline.25289
L..inline.25289:
	%152 = load %struct._Z6FsGridISt5arrayIdLm18EELi2EE*, %struct._Z6FsGridISt5arrayIdLm18EELi2EE** %..inline.addr, align 8, !tbaa !3551, !dbg !3758
	%153 = bitcast %struct._Z6FsGridISt5arrayIdLm18EELi2EE*  %152 to i8*, !dbg !3758
	%154 = getelementptr i8, i8*  %153, i64 256, !dbg !3758
	%155 = bitcast i8*  %154 to i32*, !dbg !3758
	%156 = load i32, i32*  %155, align 4, !tbaa !3552, !dbg !3758
	%157 = icmp sle i32  %156, 1, !dbg !3758
	br i1  %157, label %L..inline.25338, label %L.B0950, !dbg !3758
L.B0950:
	%158 = load i64, i64* %..inline.addr.7, align 8, !tbaa !3556, !dbg !3758
	%159 = bitcast %struct._Z6FsGridISt5arrayIdLm18EELi2EE*  %152 to i8*, !dbg !3758
	%160 = getelementptr i8, i8*  %159, i64 276, !dbg !3758
	%161 = bitcast i8*  %160 to i32*, !dbg !3758
	%162 = load i32, i32*  %161, align 4, !tbaa !3552, !dbg !3758
	%163 = load i32, i32* %..inline.addr.2, align 4, !tbaa !3554, !dbg !3758
	%164 = add i32  %163, 2, !dbg !3758
	%165 = mul i32  %162,  %164, !dbg !3758
	%166 = sext i32  %165 to i64, !dbg !3758
	%167 = add i64  %158,  %166, !dbg !3758
	store i64  %167, i64* %..inline.addr.7, align 8, !tbaa !3556, !dbg !3758
	br label %L..inline.25338
L..inline.25338:
	%168 = load %struct._Z6FsGridISt5arrayIdLm18EELi2EE*, %struct._Z6FsGridISt5arrayIdLm18EELi2EE** %..inline.addr, align 8, !tbaa !3551, !dbg !3758
	%169 = bitcast %struct._Z6FsGridISt5arrayIdLm18EELi2EE*  %168 to i8*, !dbg !3758
	%170 = getelementptr i8, i8*  %169, i64 252, !dbg !3758
	%171 = bitcast i8*  %170 to i32*, !dbg !3758
	%172 = load i32, i32*  %171, align 4, !tbaa !3552, !dbg !3758
	%173 = icmp sle i32  %172, 1, !dbg !3758
	%174 = zext i1  %173 to i32, !dbg !3758
	%175 = trunc i32  %174 to i1, !dbg !3758
	%176 = load i64, i64* %..inline.addr.7, align 8, !tbaa !3556, !dbg !3758
	%177 = load i32, i32* %..inline.addr.1, align 4, !tbaa !3554, !dbg !3758
	%178 = sext i32  %177 to i64, !dbg !3758
	%179 = add i64  %178, 2, !dbg !3758
	%180 = add i64  %176,  %179, !dbg !3758
	%181 = select i1  %175, i64  %176, i64  %180, !dbg !3758
	%182 = getelementptr i8, i8*  %169, i64 744, !dbg !3759
	%183 = bitcast i8*  %182 to i8**, !dbg !3759
	%184 = load i8*, i8**  %183, align 8, !tbaa !3551, !dbg !3759
	%185 = mul i64  %181, 144, !dbg !3759
	%186 = getelementptr i8, i8*  %184, i64  %185, !dbg !3759
	%187 = bitcast %struct._ZSt5arrayIdLm18EE** %..inline.addr.6 to i8**, !dbg !3759
	store i8*  %186, i8**  %187, align 8, !tbaa !3551, !dbg !3759
	br label %L..inline.25384
L..inline.25384:
	%188 = load %struct._ZSt5arrayIdLm18EE*, %struct._ZSt5arrayIdLm18EE** %..inline.addr.6, align 8, !tbaa !3551, !dbg !3760
	%189 = bitcast %struct._ZSt5arrayIdLm18EE*  %188 to i8*, !dbg !3760
	%190 = bitcast %struct._ZSt5arrayIdLm18EE** %..inline.addr.8 to i8**, !dbg !3760
	store i8*  %189, i8**  %190, align 8, !tbaa !3551, !dbg !3760
	%191 = load i32, i32* %i.addr, align 4, !tbaa !3554, !dbg !3736
	%192 = sext i32  %191 to i64, !dbg !3736
	store i64  %192, i64* %..inline.addr.9, align 8, !tbaa !3556, !dbg !3736
	%193 = icmp ult i64  %192, 18, !dbg !3736
	br i1  %193, label %L..inline.25387, label %L.B0951, !dbg !3736
L.B0951:
	%194 = bitcast [52 x i8]* @.S12573 to i8*, !dbg !3761
	call void (i8*, ...)  @_ZSt24__throw_out_of_range_fmtPKcz (i8*  %194, i64  %192, i64 18) noreturn, !dbg !3761
	br label %L..inline.25387
L..inline.25387:
	%195 = load i64, i64* %..inline.addr.9, align 8, !tbaa !3556, !dbg !3762
	%196 = load %struct._ZSt5arrayIdLm18EE*, %struct._ZSt5arrayIdLm18EE** %..inline.addr.8, align 8, !tbaa !3551, !dbg !3762
	%197 = bitcast %struct._ZSt5arrayIdLm18EE*  %196 to double*, !dbg !3762
	%198 = getelementptr double, double*  %197, i64  %195, !dbg !3762
	store double  0.00000000000000000E+0, double*  %198, align 8, !tbaa !3552, !dbg !3762
	%199 = load i32, i32* %i.addr, align 4, !tbaa !3554, !dbg !3763
	%200 = add i32  %199, 1, !dbg !3763
	store i32  %200, i32* %i.addr, align 4, !tbaa !3554, !dbg !3763
	br label %L.B0040, !dbg !3763
L.B0952:
	br label %L.B0041, !dbg !3734
L.N0008:
	br label %L.B0041
L.B0041:
	%201 = load i32, i32* %z.addr, align 4, !tbaa !3554, !dbg !3764
	%202 = add i32  %201, 1, !dbg !3764
	store i32  %202, i32* %z.addr, align 4, !tbaa !3554, !dbg !3764
	%203 = load i32*, i32** %localSize.addr, align 8, !tbaa !3551, !dbg !3764
	%204 = bitcast i32*  %203 to i8*, !dbg !3764
	%205 = getelementptr i8, i8*  %204, i64 8, !dbg !3764
	%206 = bitcast i8*  %205 to i32*, !dbg !3764
	%207 = load i32, i32*  %206, align 4, !tbaa !3552, !dbg !3764
	%208 = icmp slt i32  %202,  %207, !dbg !3764
	br i1  %208, label %L.B0036, label %L.B0037, !dbg !3764
L.B0037:
	%209 = load i32, i32* %y.addr, align 4, !tbaa !3554, !dbg !3765
	%210 = add i32  %209, 1, !dbg !3765
	store i32  %210, i32* %y.addr, align 4, !tbaa !3554, !dbg !3765
	%211 = load i32*, i32** %localSize.addr, align 8, !tbaa !3551, !dbg !3765
	%212 = bitcast i32*  %211 to i8*, !dbg !3765
	%213 = getelementptr i8, i8*  %212, i64 4, !dbg !3765
	%214 = bitcast i8*  %213 to i32*, !dbg !3765
	%215 = load i32, i32*  %214, align 4, !tbaa !3552, !dbg !3765
	%216 = icmp slt i32  %210,  %215, !dbg !3765
	br i1  %216, label %L.B0032, label %L.B0033, !dbg !3765
L.B0033:
	%217 = load i32, i32* %x.addr, align 4, !tbaa !3554, !dbg !3766
	%218 = add i32  %217, 1, !dbg !3766
	store i32  %218, i32* %x.addr, align 4, !tbaa !3554, !dbg !3766
	%219 = load i32*, i32** %localSize.addr, align 8, !tbaa !3551, !dbg !3766
	%220 = load i32, i32*  %219, align 4, !tbaa !3552, !dbg !3766
	%221 = icmp slt i32  %218,  %220, !dbg !3766
	br i1  %221, label %L.B0028, label %L.B0029, !dbg !3766
L.B0029:
	br label %L.N0011
L.N0011:
	br label %L.N0012
L.N0012:
	br label %L.N0013
L.N0013:
	ret void, !dbg !3767
}

%struct._ZNSt12_Vector_baseISt5arrayIdLm3EESaIS1_EE17_Vector_impl_dataE = type <{ %struct._ZSt5arrayIdLm3EE*, %struct._ZSt5arrayIdLm3EE*, %struct._ZSt5arrayIdLm3EE*}> 
%struct._ZSt12_Vector_baseISt5arrayIdLm3EESaIS1_EE = type <{ %struct._ZNSt12_Vector_baseISt5arrayIdLm3EESaIS1_EE12_Vector_implE}> 
%struct._Z6FsGridISt5arrayIdLm3EELi2EE = type <{ double, double, double, %struct._ZSt5arrayIdLm3EE, %struct.ompi_communicator_t*, i32, [4 x i8], %struct._ZSt6vectorIP14ompi_request_tSaIS1_EE, i32, %struct._ZSt5arrayIiLm27EE, %struct._ZSt6vectorIcSaIcEE, %struct._ZSt5arrayIiLm3EE, %struct._ZSt5arrayIiLm3EE, %struct._ZSt5arrayIbLm3EE, i8, %struct._ZSt5arrayIiLm3EE, %struct._ZSt5arrayIiLm3EE, %struct._ZSt5arrayIiLm3EE, %struct._ZSt5arrayIiLm3EE, [4 x i8], %struct.FsGridCouplingInformation*, %struct._ZSt5arrayIP15ompi_datatype_tLm27EE, %struct._ZSt5arrayIP15ompi_datatype_tLm27EE, %struct._ZSt6vectorISt5arrayIdLm3EESaIS1_EE}> 
%struct._ZSt6vectorISt5arrayIdLm3EESaIS1_EE = type <{ %struct._ZSt12_Vector_baseISt5arrayIdLm3EESaIS1_EE}> 
%struct._ZNSt12_Vector_baseISt5arrayIdLm3EESaIS1_EE12_Vector_implE = type <{ %struct._ZNSt12_Vector_baseISt5arrayIdLm3EESaIS1_EE17_Vector_impl_dataE}> 

define void @_Z17setPerturbedFieldR13FieldFunctionR6FsGridISt5arrayIdLm3EELi2EEb(%struct.FieldFunction* %bfFunction.arg, %struct._Z6FsGridISt5arrayIdLm3EELi2EE* %perBGrid.arg, i8 signext %append.arg) #0 !dbg !3795 {
L.entry:
	%bfFunction.addr = alloca %struct.FieldFunction*, align 8
	%perBGrid.addr = alloca %struct._Z6FsGridISt5arrayIdLm3EELi2EE*, align 8
	%append.addr = alloca i8, align 1
	%faceCoord1.addr = alloca [3 x i32], align 4
	%faceCoord2.addr = alloca [3 x i32], align 4
	%..inline.addr = alloca %struct._Z6FsGridISt5arrayIdLm3EELi2EE*, align 8
	%localSize.addr = alloca %struct._ZSt5arrayIiLm3EE, align 4
	%x.addr = alloca i32, align 4
	%y.addr = alloca i32, align 4
	%z.addr = alloca i32, align 4
	%..inline.addr.1 = alloca %struct._Z6FsGridISt5arrayIdLm3EELi2EE*, align 8
	%..inline.addr.2 = alloca i32, align 4
	%..inline.addr.3 = alloca i32, align 4
	%..inline.addr.4 = alloca %struct._ZSt5arrayIdLm3EE, align 8
	%..inline.addr.5 = alloca %struct._ZSt5arrayIdLm3EE, align 8
	%..inline.addr.6 = alloca %struct._ZSt5arrayIdLm3EE, align 8
	%start3.addr = alloca %struct._ZSt5arrayIdLm3EE, align 8
	%start.addr = alloca [3 x double], align 8
	%dx.addr = alloca [3 x double], align 8
	%end.addr = alloca [3 x double], align 8
	%fComponent.addr = alloca i32, align 4
	%.x2052.addr = alloca i32, align 4
	%..inline.addr.7 = alloca %struct._Z6FsGridISt5arrayIdLm3EELi2EE*, align 8
	%..inline.addr.8 = alloca i32, align 4
	%..inline.addr.9 = alloca i32, align 4
	%..inline.addr.280 = alloca i32, align 4
	%..inline.addr.290 = alloca i32, align 4
	%..inline.addr.300 = alloca [3 x i32], align 4
	%..inline.addr.310 = alloca %struct._ZSt5arrayIdLm3EE*, align 8
	%..inline.addr.320 = alloca i64, align 8
	%..inline.addr.330 = alloca %struct._ZSt5arrayIdLm3EE*, align 8
	%..inline.addr.340 = alloca i64, align 8
	%..inline.addr.350 = alloca double*, align 8
	%.Q0021.addr = alloca double, align 8

	call void @llvm.dbg.declare (metadata %struct.FieldFunction** %bfFunction.addr, metadata !4109, metadata !3456), !dbg !3796
	store %struct.FieldFunction* %bfFunction.arg, %struct.FieldFunction** %bfFunction.addr, align 8, !tbaa !3551
	call void @llvm.dbg.declare (metadata %struct.FieldFunction** %bfFunction.addr, metadata !4110, metadata !3456), !dbg !3796
	call void @llvm.dbg.declare (metadata %struct._Z6FsGridISt5arrayIdLm3EELi2EE** %perBGrid.addr, metadata !4111, metadata !3456), !dbg !3796
	store %struct._Z6FsGridISt5arrayIdLm3EELi2EE* %perBGrid.arg, %struct._Z6FsGridISt5arrayIdLm3EELi2EE** %perBGrid.addr, align 8, !tbaa !3551
	call void @llvm.dbg.declare (metadata %struct._Z6FsGridISt5arrayIdLm3EELi2EE** %perBGrid.addr, metadata !4112, metadata !3456), !dbg !3796
	call void @llvm.dbg.declare (metadata i8* %append.addr, metadata !4113, metadata !3456), !dbg !3796
	store i8 %append.arg, i8* %append.addr, align 1, !tbaa !3552
	call void @llvm.dbg.declare (metadata i8* %append.addr, metadata !4114, metadata !3456), !dbg !3796
	%0 = load i8, i8* %append.addr, align 1, !tbaa !3552, !dbg !4115
	%1 = sext i8  %0 to i32, !dbg !4115
	%2 = icmp ne i32  %1, 0, !dbg !4115
	br i1  %2, label %L.B0049, label %L.B0977, !dbg !4115
L.B0977:
	%3 = load %struct._Z6FsGridISt5arrayIdLm3EELi2EE*, %struct._Z6FsGridISt5arrayIdLm3EELi2EE** %perBGrid.addr, align 8, !tbaa !3551, !dbg !4116
	call void  @_Z23setPerturbedFieldToZeroR6FsGridISt5arrayIdLm3EELi2EE (%struct._Z6FsGridISt5arrayIdLm3EELi2EE*  %3), !dbg !4116
	br label %L.B0049
L.B0049:
	call void @llvm.dbg.declare (metadata [3 x i32]* %faceCoord1.addr, metadata !4118, metadata !3456), !dbg !3796
	%4 = bitcast [3 x i32]* %faceCoord1.addr to i32*, !dbg !4117
	store i32 1, i32*  %4, align 4, !tbaa !3552, !dbg !4117
	call void @llvm.dbg.declare (metadata [3 x i32]* %faceCoord2.addr, metadata !4120, metadata !3456), !dbg !3796
	%5 = bitcast [3 x i32]* %faceCoord2.addr to i32*, !dbg !4119
	store i32 2, i32*  %5, align 4, !tbaa !3552, !dbg !4119
	%6 = bitcast [3 x i32]* %faceCoord1.addr to i8*, !dbg !4121
	%7 = getelementptr i8, i8*  %6, i64 4, !dbg !4121
	%8 = bitcast i8*  %7 to i32*, !dbg !4121
	store i32 0, i32*  %8, align 4, !tbaa !3552, !dbg !4121
	%9 = bitcast [3 x i32]* %faceCoord2.addr to i8*, !dbg !4122
	%10 = getelementptr i8, i8*  %9, i64 4, !dbg !4122
	%11 = bitcast i8*  %10 to i32*, !dbg !4122
	store i32 2, i32*  %11, align 4, !tbaa !3552, !dbg !4122
	%12 = getelementptr i8, i8*  %6, i64 8, !dbg !4123
	%13 = bitcast i8*  %12 to i32*, !dbg !4123
	store i32 0, i32*  %13, align 4, !tbaa !3552, !dbg !4123
	%14 = getelementptr i8, i8*  %9, i64 8, !dbg !4124
	%15 = bitcast i8*  %14 to i32*, !dbg !4124
	store i32 1, i32*  %15, align 4, !tbaa !3552, !dbg !4124
	%16 = load %struct._Z6FsGridISt5arrayIdLm3EELi2EE*, %struct._Z6FsGridISt5arrayIdLm3EELi2EE** %perBGrid.addr, align 8, !tbaa !3551, !dbg !4125
	%17 = bitcast %struct._Z6FsGridISt5arrayIdLm3EELi2EE*  %16 to i8*, !dbg !4125
	%18 = bitcast %struct._Z6FsGridISt5arrayIdLm3EELi2EE** %..inline.addr to i8**, !dbg !4125
	store i8*  %17, i8**  %18, align 8, !tbaa !3551, !dbg !4125
	%19 = load %struct._Z6FsGridISt5arrayIdLm3EELi2EE*, %struct._Z6FsGridISt5arrayIdLm3EELi2EE** %..inline.addr, align 8, !tbaa !3551, !dbg !4126
	%20 = bitcast %struct._Z6FsGridISt5arrayIdLm3EELi2EE*  %19 to i8*, !dbg !4126
	%21 = getelementptr i8, i8*  %20, i64 264, !dbg !4126
	%22 = bitcast i8*  %21 to i64*, !dbg !4126
	%23 = load i64, i64*  %22, align 8, !tbaa !3552, !dbg !4126
	call void @llvm.dbg.declare (metadata %struct._ZSt5arrayIiLm3EE* %localSize.addr, metadata !4127, metadata !3456), !dbg !3796
	%24 = bitcast %struct._ZSt5arrayIiLm3EE* %localSize.addr to i64*, !dbg !4126
	store i64  %23, i64*  %24, align 8, !tbaa !3552, !dbg !4126
	%25 = getelementptr i8, i8*  %21, i64 8, !dbg !4126
	%26 = bitcast i8*  %25 to i32*, !dbg !4126
	%27 = load i32, i32*  %26, align 4, !tbaa !3552, !dbg !4126
	%28 = bitcast %struct._ZSt5arrayIiLm3EE* %localSize.addr to i8*, !dbg !4126
	%29 = getelementptr i8, i8*  %28, i64 8, !dbg !4126
	%30 = bitcast i8*  %29 to i32*, !dbg !4126
	store i32  %27, i32*  %30, align 4, !tbaa !3552, !dbg !4126
	call void @llvm.dbg.declare (metadata i32* %x.addr, metadata !4129, metadata !3456), !dbg !3800
	store i32 0, i32* %x.addr, align 4, !tbaa !3554, !dbg !4128
	%31 = bitcast %struct._ZSt5arrayIiLm3EE* %localSize.addr to i32*, !dbg !4130
	%32 = load i32, i32*  %31, align 4, !tbaa !3552, !dbg !4130
	%33 = icmp sle i32  %32, 0, !dbg !4130
	br i1  %33, label %L.B0052, label %L.B0051, !dbg !4130
L.B0051:
	call void @llvm.dbg.declare (metadata i32* %y.addr, metadata !4131, metadata !3456), !dbg !3804
	store i32 0, i32* %y.addr, align 4, !tbaa !3554, !dbg !4130
	%34 = bitcast %struct._ZSt5arrayIiLm3EE* %localSize.addr to i8*, !dbg !4130
	%35 = getelementptr i8, i8*  %34, i64 4, !dbg !4130
	%36 = bitcast i8*  %35 to i32*, !dbg !4130
	%37 = load i32, i32*  %36, align 4, !tbaa !3552, !dbg !4130
	%38 = icmp sle i32  %37, 0, !dbg !4130
	br i1  %38, label %L.B0056, label %L.B0055, !dbg !4130
L.B0055:
	call void @llvm.dbg.declare (metadata i32* %z.addr, metadata !4133, metadata !3456), !dbg !3808
	store i32 0, i32* %z.addr, align 4, !tbaa !3554, !dbg !4132
	%39 = bitcast %struct._ZSt5arrayIiLm3EE* %localSize.addr to i8*, !dbg !4130
	%40 = getelementptr i8, i8*  %39, i64 8, !dbg !4130
	%41 = bitcast i8*  %40 to i32*, !dbg !4130
	%42 = load i32, i32*  %41, align 4, !tbaa !3552, !dbg !4130
	%43 = icmp sle i32  %42, 0, !dbg !4130
	br i1  %43, label %L.B0060, label %L.B0059, !dbg !4130
L.B0059:
	%44 = load %struct._Z6FsGridISt5arrayIdLm3EELi2EE*, %struct._Z6FsGridISt5arrayIdLm3EELi2EE** %perBGrid.addr, align 8, !tbaa !3551, !dbg !4134
	%45 = bitcast %struct._Z6FsGridISt5arrayIdLm3EELi2EE*  %44 to i8*, !dbg !4134
	%46 = bitcast %struct._Z6FsGridISt5arrayIdLm3EELi2EE** %..inline.addr.1 to i8**, !dbg !4134
	store i8*  %45, i8**  %46, align 8, !tbaa !3551, !dbg !4134
	%47 = load i32, i32* %y.addr, align 4, !tbaa !3554, !dbg !4134
	%48 = load i32, i32* %z.addr, align 4, !tbaa !3554, !dbg !4134
	%49 = getelementptr i8, i8*  %45, i64 288, !dbg !4135
	%50 = bitcast i8*  %49 to i32*, !dbg !4135
	%51 = load i32, i32*  %50, align 4, !tbaa !3552, !dbg !4135
	%52 = load i32, i32* %x.addr, align 4, !tbaa !3554, !dbg !4135
	%53 = add i32  %51,  %52, !dbg !4135
	%54 = sitofp i32  %53 to double, !dbg !4135
	%55 = bitcast %struct._Z6FsGridISt5arrayIdLm3EELi2EE*  %44 to double*, !dbg !4135
	%56 = load double, double*  %55, align 8, !tbaa !3552, !dbg !4135
	%57 = getelementptr i8, i8*  %45, i64 24, !dbg !4135
	%58 = bitcast i8*  %57 to double*, !dbg !4135
	%59 = load double, double*  %58, align 8, !tbaa !3552, !dbg !4135
	%60 = call double @llvm.fma.f64 (double  %54, double  %56, double  %59), !dbg !4135
	%61 = bitcast %struct._ZSt5arrayIdLm3EE* %..inline.addr.4 to double*, !dbg !4135
	store double  %60, double*  %61, align 8, !tbaa !3552, !dbg !4135
	%62 = load %struct._Z6FsGridISt5arrayIdLm3EELi2EE*, %struct._Z6FsGridISt5arrayIdLm3EELi2EE** %..inline.addr.1, align 8, !tbaa !3551, !dbg !4136
	%63 = bitcast %struct._Z6FsGridISt5arrayIdLm3EELi2EE*  %62 to i8*, !dbg !4136
	%64 = getelementptr i8, i8*  %63, i64 8, !dbg !4136
	%65 = bitcast i8*  %64 to double*, !dbg !4136
	%66 = load double, double*  %65, align 8, !tbaa !3552, !dbg !4136
	%67 = getelementptr i8, i8*  %63, i64 292, !dbg !4136
	%68 = bitcast i8*  %67 to i32*, !dbg !4136
	%69 = load i32, i32*  %68, align 4, !tbaa !3552, !dbg !4136
	%70 = add i32  %47,  %69, !dbg !4136
	%71 = sitofp i32  %70 to double, !dbg !4136
	%72 = getelementptr i8, i8*  %63, i64 32, !dbg !4136
	%73 = bitcast i8*  %72 to double*, !dbg !4136
	%74 = load double, double*  %73, align 8, !tbaa !3552, !dbg !4136
	%75 = call double @llvm.fma.f64 (double  %66, double  %71, double  %74), !dbg !4136
	%76 = bitcast %struct._ZSt5arrayIdLm3EE* %..inline.addr.4 to i8*, !dbg !4136
	%77 = getelementptr i8, i8*  %76, i64 8, !dbg !4136
	%78 = bitcast i8*  %77 to double*, !dbg !4136
	store double  %75, double*  %78, align 8, !tbaa !3552, !dbg !4136
	%79 = getelementptr i8, i8*  %63, i64 16, !dbg !4137
	%80 = bitcast i8*  %79 to double*, !dbg !4137
	%81 = load double, double*  %80, align 8, !tbaa !3552, !dbg !4137
	%82 = getelementptr i8, i8*  %63, i64 296, !dbg !4137
	%83 = bitcast i8*  %82 to i32*, !dbg !4137
	%84 = load i32, i32*  %83, align 4, !tbaa !3552, !dbg !4137
	%85 = add i32  %48,  %84, !dbg !4137
	%86 = sitofp i32  %85 to double, !dbg !4137
	%87 = getelementptr i8, i8*  %63, i64 40, !dbg !4137
	%88 = bitcast i8*  %87 to double*, !dbg !4137
	%89 = load double, double*  %88, align 8, !tbaa !3552, !dbg !4137
	%90 = call double @llvm.fma.f64 (double  %81, double  %86, double  %89), !dbg !4137
	%91 = getelementptr i8, i8*  %76, i64 16, !dbg !4137
	%92 = bitcast i8*  %91 to double*, !dbg !4137
	store double  %90, double*  %92, align 8, !tbaa !3552, !dbg !4137
	%93 = bitcast %struct._ZSt5arrayIdLm3EE* %..inline.addr.4 to i64*, !dbg !4126
	%94 = load i64, i64*  %93, align 8, !tbaa !3552, !dbg !4126
	%95 = bitcast %struct._ZSt5arrayIdLm3EE* %..inline.addr.5 to i64*, !dbg !4126
	store i64  %94, i64*  %95, align 8, !tbaa !3552, !dbg !4126
	%96 = bitcast i8*  %77 to i64*, !dbg !4126
	%97 = load i64, i64*  %96, align 8, !tbaa !3552, !dbg !4126
	%98 = bitcast %struct._ZSt5arrayIdLm3EE* %..inline.addr.5 to i8*, !dbg !4126
	%99 = getelementptr i8, i8*  %98, i64 8, !dbg !4126
	%100 = bitcast i8*  %99 to i64*, !dbg !4126
	store i64  %97, i64*  %100, align 8, !tbaa !3552, !dbg !4126
	%101 = bitcast i8*  %91 to i64*, !dbg !4126
	%102 = load i64, i64*  %101, align 8, !tbaa !3552, !dbg !4126
	%103 = getelementptr i8, i8*  %98, i64 16, !dbg !4126
	%104 = bitcast i8*  %103 to i64*, !dbg !4126
	store i64  %102, i64*  %104, align 8, !tbaa !3552, !dbg !4126
	%105 = load i64, i64*  %95, align 8, !tbaa !3552, !dbg !4126
	%106 = bitcast %struct._ZSt5arrayIdLm3EE* %..inline.addr.6 to i64*, !dbg !4126
	store i64  %105, i64*  %106, align 8, !tbaa !3552, !dbg !4126
	%107 = load i64, i64*  %100, align 8, !tbaa !3552, !dbg !4126
	%108 = bitcast %struct._ZSt5arrayIdLm3EE* %..inline.addr.6 to i8*, !dbg !4126
	%109 = getelementptr i8, i8*  %108, i64 8, !dbg !4126
	%110 = bitcast i8*  %109 to i64*, !dbg !4126
	store i64  %107, i64*  %110, align 8, !tbaa !3552, !dbg !4126
	%111 = getelementptr i8, i8*  %108, i64 16, !dbg !4126
	%112 = bitcast i8*  %111 to i64*, !dbg !4126
	store i64  %102, i64*  %112, align 8, !tbaa !3552, !dbg !4126
	%113 = load i64, i64*  %106, align 8, !tbaa !3552, !dbg !4126
	call void @llvm.dbg.declare (metadata %struct._ZSt5arrayIdLm3EE* %start3.addr, metadata !4138, metadata !3456), !dbg !3810
	%114 = bitcast %struct._ZSt5arrayIdLm3EE* %start3.addr to i64*, !dbg !4126
	store i64  %113, i64*  %114, align 8, !tbaa !3552, !dbg !4126
	%115 = getelementptr i8, i8*  %108, i64 8, !dbg !4126
	%116 = bitcast i8*  %115 to i64*, !dbg !4126
	%117 = load i64, i64*  %116, align 8, !tbaa !3552, !dbg !4126
	%118 = bitcast %struct._ZSt5arrayIdLm3EE* %start3.addr to i8*, !dbg !4126
	%119 = getelementptr i8, i8*  %118, i64 8, !dbg !4126
	%120 = bitcast i8*  %119 to i64*, !dbg !4126
	store i64  %117, i64*  %120, align 8, !tbaa !3552, !dbg !4126
	%121 = getelementptr i8, i8*  %108, i64 16, !dbg !4126
	%122 = bitcast i8*  %121 to i64*, !dbg !4126
	%123 = load i64, i64*  %122, align 8, !tbaa !3552, !dbg !4126
	%124 = getelementptr i8, i8*  %118, i64 16, !dbg !4126
	%125 = bitcast i8*  %124 to i64*, !dbg !4126
	store i64  %123, i64*  %125, align 8, !tbaa !3552, !dbg !4126
	%126 = bitcast %struct._ZSt5arrayIdLm3EE* %start3.addr to double*, !dbg !4130
	%127 = load double, double*  %126, align 8, !tbaa !3552, !dbg !4130
	call void @llvm.dbg.declare (metadata [3 x double]* %start.addr, metadata !4139, metadata !3456), !dbg !3796
	%128 = bitcast [3 x double]* %start.addr to double*, !dbg !4130
	store double  %127, double*  %128, align 8, !tbaa !3552, !dbg !4130
	%129 = getelementptr i8, i8*  %118, i64 8, !dbg !4130
	%130 = bitcast i8*  %129 to double*, !dbg !4130
	%131 = load double, double*  %130, align 8, !tbaa !3552, !dbg !4130
	%132 = bitcast [3 x double]* %start.addr to i8*, !dbg !4130
	%133 = getelementptr i8, i8*  %132, i64 8, !dbg !4130
	%134 = bitcast i8*  %133 to double*, !dbg !4130
	store double  %131, double*  %134, align 8, !tbaa !3552, !dbg !4130
	%135 = getelementptr i8, i8*  %118, i64 16, !dbg !4130
	%136 = bitcast i8*  %135 to double*, !dbg !4130
	%137 = load double, double*  %136, align 8, !tbaa !3552, !dbg !4130
	%138 = getelementptr i8, i8*  %132, i64 16, !dbg !4130
	%139 = bitcast i8*  %138 to double*, !dbg !4130
	store double  %137, double*  %139, align 8, !tbaa !3552, !dbg !4130
	%140 = load %struct._Z6FsGridISt5arrayIdLm3EELi2EE*, %struct._Z6FsGridISt5arrayIdLm3EELi2EE** %perBGrid.addr, align 8, !tbaa !3551, !dbg !4140
	%141 = bitcast %struct._Z6FsGridISt5arrayIdLm3EELi2EE*  %140 to double*, !dbg !4140
	%142 = load double, double*  %141, align 8, !tbaa !3552, !dbg !4140
	call void @llvm.dbg.declare (metadata [3 x double]* %dx.addr, metadata !4141, metadata !3456), !dbg !3796
	%143 = bitcast [3 x double]* %dx.addr to double*, !dbg !4140
	store double  %142, double*  %143, align 8, !tbaa !3552, !dbg !4140
	%144 = load %struct._Z6FsGridISt5arrayIdLm3EELi2EE*, %struct._Z6FsGridISt5arrayIdLm3EELi2EE** %perBGrid.addr, align 8, !tbaa !3551, !dbg !4142
	%145 = bitcast %struct._Z6FsGridISt5arrayIdLm3EELi2EE*  %144 to i8*, !dbg !4142
	%146 = getelementptr i8, i8*  %145, i64 8, !dbg !4142
	%147 = bitcast i8*  %146 to double*, !dbg !4142
	%148 = load double, double*  %147, align 8, !tbaa !3552, !dbg !4142
	%149 = bitcast [3 x double]* %dx.addr to i8*, !dbg !4142
	%150 = getelementptr i8, i8*  %149, i64 8, !dbg !4142
	%151 = bitcast i8*  %150 to double*, !dbg !4142
	store double  %148, double*  %151, align 8, !tbaa !3552, !dbg !4142
	%152 = getelementptr i8, i8*  %145, i64 16, !dbg !4143
	%153 = bitcast i8*  %152 to double*, !dbg !4143
	%154 = load double, double*  %153, align 8, !tbaa !3552, !dbg !4143
	%155 = getelementptr i8, i8*  %149, i64 16, !dbg !4143
	%156 = bitcast i8*  %155 to double*, !dbg !4143
	store double  %154, double*  %156, align 8, !tbaa !3552, !dbg !4143
	%157 = load double, double*  %128, align 8, !tbaa !3552, !dbg !4144
	%158 = fadd double  %142,  %157, !dbg !4144
	call void @llvm.dbg.declare (metadata [3 x double]* %end.addr, metadata !4145, metadata !3456), !dbg !3796
	%159 = bitcast [3 x double]* %end.addr to double*, !dbg !4144
	store double  %158, double*  %159, align 8, !tbaa !3552, !dbg !4144
	%160 = getelementptr i8, i8*  %149, i64 8, !dbg !4146
	%161 = bitcast i8*  %160 to double*, !dbg !4146
	%162 = load double, double*  %161, align 8, !tbaa !3552, !dbg !4146
	%163 = getelementptr i8, i8*  %132, i64 8, !dbg !4146
	%164 = bitcast i8*  %163 to double*, !dbg !4146
	%165 = load double, double*  %164, align 8, !tbaa !3552, !dbg !4146
	%166 = fadd double  %162,  %165, !dbg !4146
	%167 = bitcast [3 x double]* %end.addr to i8*, !dbg !4146
	%168 = getelementptr i8, i8*  %167, i64 8, !dbg !4146
	%169 = bitcast i8*  %168 to double*, !dbg !4146
	store double  %166, double*  %169, align 8, !tbaa !3552, !dbg !4146
	%170 = getelementptr i8, i8*  %149, i64 16, !dbg !4147
	%171 = bitcast i8*  %170 to double*, !dbg !4147
	%172 = load double, double*  %171, align 8, !tbaa !3552, !dbg !4147
	%173 = getelementptr i8, i8*  %132, i64 16, !dbg !4147
	%174 = bitcast i8*  %173 to double*, !dbg !4147
	%175 = load double, double*  %174, align 8, !tbaa !3552, !dbg !4147
	%176 = fadd double  %172,  %175, !dbg !4147
	%177 = getelementptr i8, i8*  %167, i64 16, !dbg !4147
	%178 = bitcast i8*  %177 to double*, !dbg !4147
	store double  %176, double*  %178, align 8, !tbaa !3552, !dbg !4147
	call void @llvm.dbg.declare (metadata i32* %fComponent.addr, metadata !4149, metadata !3456), !dbg !3812
	store i32 0, i32* %fComponent.addr, align 4, !tbaa !3554, !dbg !4148
	store i32 3, i32* %.x2052.addr, align 4, !tbaa !3554, !dbg !4148
	br label %L.B0063
L.B0063:
	%179 = load %struct.FieldFunction*, %struct.FieldFunction** %bfFunction.addr, align 8, !tbaa !3551, !dbg !4150
	%180 = bitcast %struct.FieldFunction*  %179 to i8*, !dbg !4150
	%181 = getelementptr i8, i8*  %180, i64 16, !dbg !4150
	%182 = bitcast i8*  %181 to i32*, !dbg !4150
	store i32 0, i32*  %182, align 4, !tbaa !3552, !dbg !4150
	%183 = load i32, i32* %fComponent.addr, align 4, !tbaa !3554, !dbg !4151
	%184 = getelementptr i8, i8*  %180, i64 8, !dbg !4151
	%185 = bitcast i8*  %184 to i32*, !dbg !4151
	store i32  %183, i32*  %185, align 4, !tbaa !3552, !dbg !4151
	%186 = load %struct._Z6FsGridISt5arrayIdLm3EELi2EE*, %struct._Z6FsGridISt5arrayIdLm3EELi2EE** %perBGrid.addr, align 8, !tbaa !3551, !dbg !4152
	%187 = bitcast %struct._Z6FsGridISt5arrayIdLm3EELi2EE*  %186 to i8*, !dbg !4152
	%188 = bitcast %struct._Z6FsGridISt5arrayIdLm3EELi2EE** %..inline.addr.7 to i8**, !dbg !4152
	store i8*  %187, i8**  %188, align 8, !tbaa !3551, !dbg !4152
	%189 = load i32, i32* %x.addr, align 4, !tbaa !3554, !dbg !4152
	store i32  %189, i32* %..inline.addr.8, align 4, !tbaa !3554, !dbg !4152
	%190 = load i32, i32* %y.addr, align 4, !tbaa !3554, !dbg !4152
	store i32  %190, i32* %..inline.addr.9, align 4, !tbaa !3554, !dbg !4152
	%191 = load i32, i32* %z.addr, align 4, !tbaa !3554, !dbg !4152
	store i32  %191, i32* %..inline.addr.280, align 4, !tbaa !3554, !dbg !4152
	store i32 13, i32* %..inline.addr.290, align 4, !tbaa !3554, !dbg !4152
	%192 = bitcast [3 x i32]* %..inline.addr.300 to i32*, !dbg !4153
	store i32 0, i32*  %192, align 4, !tbaa !3552, !dbg !4153
	%193 = bitcast [3 x i32]* %..inline.addr.300 to i8*, !dbg !4154
	%194 = getelementptr i8, i8*  %193, i64 4, !dbg !4154
	%195 = bitcast i8*  %194 to i32*, !dbg !4154
	store i32 0, i32*  %195, align 4, !tbaa !3552, !dbg !4154
	%196 = getelementptr i8, i8*  %193, i64 8, !dbg !4154
	%197 = bitcast i8*  %196 to i32*, !dbg !4154
	store i32 0, i32*  %197, align 4, !tbaa !3552, !dbg !4154
	%198 = icmp sge i32  %189, 0, !dbg !4154
	br i1  %198, label %L..inline.25885, label %L.B0978, !dbg !4154
L.B0978:
	store i32 4, i32* %..inline.addr.290, align 4, !tbaa !3554, !dbg !4155
	%199 = bitcast [3 x i32]* %..inline.addr.300 to i32*, !dbg !4156
	store i32 1, i32*  %199, align 4, !tbaa !3552, !dbg !4156
	br label %L..inline.25885
L..inline.25885:
	%200 = load i32, i32* %..inline.addr.8, align 4, !tbaa !3554, !dbg !4157
	%201 = load %struct._Z6FsGridISt5arrayIdLm3EELi2EE*, %struct._Z6FsGridISt5arrayIdLm3EELi2EE** %..inline.addr.7, align 8, !tbaa !3551, !dbg !4157
	%202 = bitcast %struct._Z6FsGridISt5arrayIdLm3EELi2EE*  %201 to i8*, !dbg !4157
	%203 = getelementptr i8, i8*  %202, i64 264, !dbg !4157
	%204 = bitcast i8*  %203 to i32*, !dbg !4157
	%205 = load i32, i32*  %204, align 4, !tbaa !3552, !dbg !4157
	%206 = icmp slt i32  %200,  %205, !dbg !4157
	br i1  %206, label %L..inline.25903, label %L.B0979, !dbg !4157
L.B0979:
	%207 = load i32, i32* %..inline.addr.290, align 4, !tbaa !3554, !dbg !4157
	%208 = add i32  %207, 9, !dbg !4157
	store i32  %208, i32* %..inline.addr.290, align 4, !tbaa !3554, !dbg !4157
	%209 = bitcast [3 x i32]* %..inline.addr.300 to i32*, !dbg !4158
	store i32 -1, i32*  %209, align 4, !tbaa !3552, !dbg !4158
	br label %L..inline.25903
L..inline.25903:
	%210 = load i32, i32* %..inline.addr.9, align 4, !tbaa !3554, !dbg !4159
	%211 = icmp sge i32  %210, 0, !dbg !4159
	br i1  %211, label %L..inline.25905, label %L.B0980, !dbg !4159
L.B0980:
	%212 = load i32, i32* %..inline.addr.290, align 4, !tbaa !3554, !dbg !4159
	%213 = sub i32  %212, 3, !dbg !4159
	store i32  %213, i32* %..inline.addr.290, align 4, !tbaa !3554, !dbg !4159
	%214 = bitcast [3 x i32]* %..inline.addr.300 to i8*, !dbg !4160
	%215 = getelementptr i8, i8*  %214, i64 4, !dbg !4160
	%216 = bitcast i8*  %215 to i32*, !dbg !4160
	store i32 1, i32*  %216, align 4, !tbaa !3552, !dbg !4160
	br label %L..inline.25905
L..inline.25905:
	%217 = load i32, i32* %..inline.addr.9, align 4, !tbaa !3554, !dbg !4161
	%218 = load %struct._Z6FsGridISt5arrayIdLm3EELi2EE*, %struct._Z6FsGridISt5arrayIdLm3EELi2EE** %..inline.addr.7, align 8, !tbaa !3551, !dbg !4161
	%219 = bitcast %struct._Z6FsGridISt5arrayIdLm3EELi2EE*  %218 to i8*, !dbg !4161
	%220 = getelementptr i8, i8*  %219, i64 268, !dbg !4161
	%221 = bitcast i8*  %220 to i32*, !dbg !4161
	%222 = load i32, i32*  %221, align 4, !tbaa !3552, !dbg !4161
	%223 = icmp slt i32  %217,  %222, !dbg !4161
	br i1  %223, label %L..inline.25922, label %L.B0981, !dbg !4161
L.B0981:
	%224 = load i32, i32* %..inline.addr.290, align 4, !tbaa !3554, !dbg !4161
	%225 = add i32  %224, 3, !dbg !4161
	store i32  %225, i32* %..inline.addr.290, align 4, !tbaa !3554, !dbg !4161
	%226 = bitcast [3 x i32]* %..inline.addr.300 to i8*, !dbg !4162
	%227 = getelementptr i8, i8*  %226, i64 4, !dbg !4162
	%228 = bitcast i8*  %227 to i32*, !dbg !4162
	store i32 -1, i32*  %228, align 4, !tbaa !3552, !dbg !4162
	br label %L..inline.25922
L..inline.25922:
	%229 = load i32, i32* %..inline.addr.280, align 4, !tbaa !3554, !dbg !4163
	%230 = icmp sge i32  %229, 0, !dbg !4163
	br i1  %230, label %L..inline.25924, label %L.B0982, !dbg !4163
L.B0982:
	%231 = load i32, i32* %..inline.addr.290, align 4, !tbaa !3554, !dbg !4163
	%232 = sub i32  %231, 1, !dbg !4163
	store i32  %232, i32* %..inline.addr.290, align 4, !tbaa !3554, !dbg !4163
	%233 = bitcast [3 x i32]* %..inline.addr.300 to i8*, !dbg !4164
	%234 = getelementptr i8, i8*  %233, i64 8, !dbg !4164
	%235 = bitcast i8*  %234 to i32*, !dbg !4164
	store i32 1, i32*  %235, align 4, !tbaa !3552, !dbg !4164
	br label %L..inline.25924
L..inline.25924:
	%236 = load i32, i32* %..inline.addr.280, align 4, !tbaa !3554, !dbg !4165
	%237 = load %struct._Z6FsGridISt5arrayIdLm3EELi2EE*, %struct._Z6FsGridISt5arrayIdLm3EELi2EE** %..inline.addr.7, align 8, !tbaa !3551, !dbg !4165
	%238 = bitcast %struct._Z6FsGridISt5arrayIdLm3EELi2EE*  %237 to i8*, !dbg !4165
	%239 = getelementptr i8, i8*  %238, i64 272, !dbg !4165
	%240 = bitcast i8*  %239 to i32*, !dbg !4165
	%241 = load i32, i32*  %240, align 4, !tbaa !3552, !dbg !4165
	%242 = icmp slt i32  %236,  %241, !dbg !4165
	br i1  %242, label %L..inline.25941, label %L.B0983, !dbg !4165
L.B0983:
	%243 = load i32, i32* %..inline.addr.290, align 4, !tbaa !3554, !dbg !4165
	%244 = add i32  %243, 1, !dbg !4165
	store i32  %244, i32* %..inline.addr.290, align 4, !tbaa !3554, !dbg !4165
	%245 = bitcast [3 x i32]* %..inline.addr.300 to i8*, !dbg !4166
	%246 = getelementptr i8, i8*  %245, i64 8, !dbg !4166
	%247 = bitcast i8*  %246 to i32*, !dbg !4166
	store i32 -1, i32*  %247, align 4, !tbaa !3552, !dbg !4166
	br label %L..inline.25941
L..inline.25941:
	%248 = load i32, i32* %..inline.addr.290, align 4, !tbaa !3554, !dbg !4167
	%249 = icmp eq i32  %248, 13, !dbg !4167
	br i1  %249, label %L..inline.25942, label %L.B0984, !dbg !4167
L.B0984:
	%250 = sext i32  %248 to i64, !dbg !4168
	%251 = load %struct._Z6FsGridISt5arrayIdLm3EELi2EE*, %struct._Z6FsGridISt5arrayIdLm3EELi2EE** %..inline.addr.7, align 8, !tbaa !3551, !dbg !4168
	%252 = bitcast %struct._Z6FsGridISt5arrayIdLm3EELi2EE*  %251 to i8*, !dbg !4168
	%253 = getelementptr i8, i8*  %252, i64 92, !dbg !4168
	%254 = bitcast i8*  %253 to i32*, !dbg !4168
	%255 = getelementptr i32, i32*  %254, i64  %250, !dbg !4168
	%256 = load i32, i32*  %255, align 4, !tbaa !3552, !dbg !4168
	%257 = icmp ne i32  %256, -2, !dbg !4168
	br i1  %257, label %L..inline.25959, label %L.B0985, !dbg !4168
L.B0985:
	%258 = bitcast %struct._ZSt5arrayIdLm3EE** %..inline.addr.310 to i8**, !dbg !4168
	store i8* null, i8**  %258, align 8, !tbaa !3551, !dbg !4168
	br label %L..inline.26146, !dbg !4169
L..inline.25959:
	%259 = load i32, i32* %..inline.addr.290, align 4, !tbaa !3554, !dbg !4170
	%260 = sext i32  %259 to i64, !dbg !4170
	%261 = load %struct._Z6FsGridISt5arrayIdLm3EELi2EE*, %struct._Z6FsGridISt5arrayIdLm3EELi2EE** %..inline.addr.7, align 8, !tbaa !3551, !dbg !4170
	%262 = bitcast %struct._Z6FsGridISt5arrayIdLm3EELi2EE*  %261 to i8*, !dbg !4170
	%263 = getelementptr i8, i8*  %262, i64 92, !dbg !4170
	%264 = bitcast i8*  %263 to i32*, !dbg !4170
	%265 = getelementptr i32, i32*  %264, i64  %260, !dbg !4170
	%266 = load i32, i32*  %265, align 4, !tbaa !3552, !dbg !4170
	%267 = getelementptr i8, i8*  %262, i64 56, !dbg !4170
	%268 = bitcast i8*  %267 to i32*, !dbg !4170
	%269 = load i32, i32*  %268, align 4, !tbaa !3552, !dbg !4170
	%270 = icmp ne i32  %266,  %269, !dbg !4170
	br i1  %270, label %L..inline.25977, label %L.B0986, !dbg !4170
L.B0986:
	%271 = load i32, i32* %..inline.addr.8, align 4, !tbaa !3554, !dbg !4171
	%272 = bitcast [3 x i32]* %..inline.addr.300 to i32*, !dbg !4171
	%273 = load i32, i32*  %272, align 4, !tbaa !3552, !dbg !4171
	%274 = bitcast %struct._Z6FsGridISt5arrayIdLm3EELi2EE*  %261 to i8*, !dbg !4171
	%275 = getelementptr i8, i8*  %274, i64 264, !dbg !4171
	%276 = bitcast i8*  %275 to i32*, !dbg !4171
	%277 = load i32, i32*  %276, align 4, !tbaa !3552, !dbg !4171
	%278 = mul i32  %273,  %277, !dbg !4171
	%279 = add i32  %271,  %278, !dbg !4171
	store i32  %279, i32* %..inline.addr.8, align 4, !tbaa !3554, !dbg !4171
	%280 = load i32, i32* %..inline.addr.9, align 4, !tbaa !3554, !dbg !4172
	%281 = bitcast [3 x i32]* %..inline.addr.300 to i8*, !dbg !4172
	%282 = getelementptr i8, i8*  %281, i64 4, !dbg !4172
	%283 = bitcast i8*  %282 to i32*, !dbg !4172
	%284 = load i32, i32*  %283, align 4, !tbaa !3552, !dbg !4172
	%285 = getelementptr i8, i8*  %274, i64 268, !dbg !4172
	%286 = bitcast i8*  %285 to i32*, !dbg !4172
	%287 = load i32, i32*  %286, align 4, !tbaa !3552, !dbg !4172
	%288 = mul i32  %284,  %287, !dbg !4172
	%289 = add i32  %280,  %288, !dbg !4172
	store i32  %289, i32* %..inline.addr.9, align 4, !tbaa !3554, !dbg !4172
	%290 = load i32, i32* %..inline.addr.280, align 4, !tbaa !3554, !dbg !4173
	%291 = getelementptr i8, i8*  %281, i64 8, !dbg !4173
	%292 = bitcast i8*  %291 to i32*, !dbg !4173
	%293 = load i32, i32*  %292, align 4, !tbaa !3552, !dbg !4173
	%294 = getelementptr i8, i8*  %274, i64 272, !dbg !4173
	%295 = bitcast i8*  %294 to i32*, !dbg !4173
	%296 = load i32, i32*  %295, align 4, !tbaa !3552, !dbg !4173
	%297 = mul i32  %293,  %296, !dbg !4173
	%298 = add i32  %290,  %297, !dbg !4173
	store i32  %298, i32* %..inline.addr.280, align 4, !tbaa !3554, !dbg !4173
	br label %L..inline.25977
L..inline.25977:
	br label %L..inline.25942
L..inline.25942:
	store i64 0, i64* %..inline.addr.320, align 8, !tbaa !3556, !dbg !4174
	%299 = load %struct._Z6FsGridISt5arrayIdLm3EELi2EE*, %struct._Z6FsGridISt5arrayIdLm3EELi2EE** %..inline.addr.7, align 8, !tbaa !3551, !dbg !4174
	%300 = bitcast %struct._Z6FsGridISt5arrayIdLm3EELi2EE*  %299 to i8*, !dbg !4174
	%301 = getelementptr i8, i8*  %300, i64 260, !dbg !4174
	%302 = bitcast i8*  %301 to i32*, !dbg !4174
	%303 = load i32, i32*  %302, align 4, !tbaa !3552, !dbg !4174
	%304 = icmp sle i32  %303, 1, !dbg !4174
	br i1  %304, label %L..inline.26051, label %L.B0987, !dbg !4174
L.B0987:
	%305 = load i32, i32* %..inline.addr.280, align 4, !tbaa !3554, !dbg !4174
	%306 = add i32  %305, 2, !dbg !4174
	%307 = bitcast %struct._Z6FsGridISt5arrayIdLm3EELi2EE*  %299 to i8*, !dbg !4174
	%308 = getelementptr i8, i8*  %307, i64 280, !dbg !4174
	%309 = bitcast i8*  %308 to i32*, !dbg !4174
	%310 = load i32, i32*  %309, align 4, !tbaa !3552, !dbg !4174
	%311 = getelementptr i8, i8*  %307, i64 276, !dbg !4174
	%312 = bitcast i8*  %311 to i32*, !dbg !4174
	%313 = load i32, i32*  %312, align 4, !tbaa !3552, !dbg !4174
	%314 = mul i32  %310,  %313, !dbg !4174
	%315 = mul i32  %306,  %314, !dbg !4174
	%316 = sext i32  %315 to i64, !dbg !4174
	store i64  %316, i64* %..inline.addr.320, align 8, !tbaa !3556, !dbg !4174
	br label %L..inline.26051
L..inline.26051:
	%317 = load %struct._Z6FsGridISt5arrayIdLm3EELi2EE*, %struct._Z6FsGridISt5arrayIdLm3EELi2EE** %..inline.addr.7, align 8, !tbaa !3551, !dbg !4174
	%318 = bitcast %struct._Z6FsGridISt5arrayIdLm3EELi2EE*  %317 to i8*, !dbg !4174
	%319 = getelementptr i8, i8*  %318, i64 256, !dbg !4174
	%320 = bitcast i8*  %319 to i32*, !dbg !4174
	%321 = load i32, i32*  %320, align 4, !tbaa !3552, !dbg !4174
	%322 = icmp sle i32  %321, 1, !dbg !4174
	br i1  %322, label %L..inline.26100, label %L.B0988, !dbg !4174
L.B0988:
	%323 = load i64, i64* %..inline.addr.320, align 8, !tbaa !3556, !dbg !4174
	%324 = bitcast %struct._Z6FsGridISt5arrayIdLm3EELi2EE*  %317 to i8*, !dbg !4174
	%325 = getelementptr i8, i8*  %324, i64 276, !dbg !4174
	%326 = bitcast i8*  %325 to i32*, !dbg !4174
	%327 = load i32, i32*  %326, align 4, !tbaa !3552, !dbg !4174
	%328 = load i32, i32* %..inline.addr.9, align 4, !tbaa !3554, !dbg !4174
	%329 = add i32  %328, 2, !dbg !4174
	%330 = mul i32  %327,  %329, !dbg !4174
	%331 = sext i32  %330 to i64, !dbg !4174
	%332 = add i64  %323,  %331, !dbg !4174
	store i64  %332, i64* %..inline.addr.320, align 8, !tbaa !3556, !dbg !4174
	br label %L..inline.26100
L..inline.26100:
	%333 = load %struct._Z6FsGridISt5arrayIdLm3EELi2EE*, %struct._Z6FsGridISt5arrayIdLm3EELi2EE** %..inline.addr.7, align 8, !tbaa !3551, !dbg !4174
	%334 = bitcast %struct._Z6FsGridISt5arrayIdLm3EELi2EE*  %333 to i8*, !dbg !4174
	%335 = getelementptr i8, i8*  %334, i64 252, !dbg !4174
	%336 = bitcast i8*  %335 to i32*, !dbg !4174
	%337 = load i32, i32*  %336, align 4, !tbaa !3552, !dbg !4174
	%338 = icmp sle i32  %337, 1, !dbg !4174
	%339 = zext i1  %338 to i32, !dbg !4174
	%340 = trunc i32  %339 to i1, !dbg !4174
	%341 = load i64, i64* %..inline.addr.320, align 8, !tbaa !3556, !dbg !4174
	%342 = load i32, i32* %..inline.addr.8, align 4, !tbaa !3554, !dbg !4174
	%343 = sext i32  %342 to i64, !dbg !4174
	%344 = add i64  %343, 2, !dbg !4174
	%345 = add i64  %341,  %344, !dbg !4174
	%346 = select i1  %340, i64  %341, i64  %345, !dbg !4174
	%347 = getelementptr i8, i8*  %334, i64 744, !dbg !4175
	%348 = bitcast i8*  %347 to i8**, !dbg !4175
	%349 = load i8*, i8**  %348, align 8, !tbaa !3551, !dbg !4175
	%350 = mul i64  %346, 24, !dbg !4175
	%351 = getelementptr i8, i8*  %349, i64  %350, !dbg !4175
	%352 = bitcast %struct._ZSt5arrayIdLm3EE** %..inline.addr.310 to i8**, !dbg !4175
	store i8*  %351, i8**  %352, align 8, !tbaa !3551, !dbg !4175
	br label %L..inline.26146
L..inline.26146:
	%353 = load %struct._ZSt5arrayIdLm3EE*, %struct._ZSt5arrayIdLm3EE** %..inline.addr.310, align 8, !tbaa !3551, !dbg !4176
	%354 = bitcast %struct._ZSt5arrayIdLm3EE*  %353 to i8*, !dbg !4176
	%355 = bitcast %struct._ZSt5arrayIdLm3EE** %..inline.addr.330 to i8**, !dbg !4176
	store i8*  %354, i8**  %355, align 8, !tbaa !3551, !dbg !4176
	%356 = load i32, i32* %fComponent.addr, align 4, !tbaa !3554, !dbg !4152
	%357 = zext i32  %356 to i64, !dbg !4152
	store i64  %357, i64* %..inline.addr.340, align 8, !tbaa !3556, !dbg !4152
	%358 = icmp ult i64  %357, 3, !dbg !4152
	br i1  %358, label %L..inline.26149, label %L.B0989, !dbg !4152
L.B0989:
	%359 = bitcast [52 x i8]* @.S12573 to i8*, !dbg !4177
	call void (i8*, ...)  @_ZSt24__throw_out_of_range_fmtPKcz (i8*  %359, i64  %357, i64 3) noreturn, !dbg !4177
	br label %L..inline.26149
L..inline.26149:
	%360 = load %struct._ZSt5arrayIdLm3EE*, %struct._ZSt5arrayIdLm3EE** %..inline.addr.330, align 8, !tbaa !3551, !dbg !4147
	%361 = bitcast %struct._ZSt5arrayIdLm3EE*  %360 to i8*, !dbg !4147
	%362 = load i64, i64* %..inline.addr.340, align 8, !tbaa !3556, !dbg !4147
	%363 = mul i64  %362, 8, !dbg !4147
	%364 = getelementptr i8, i8*  %361, i64  %363, !dbg !4147
	%365 = bitcast double** %..inline.addr.350 to i8**, !dbg !4147
	store i8*  %364, i8**  %365, align 8, !tbaa !3551, !dbg !4147
	%366 = load %struct.FieldFunction*, %struct.FieldFunction** %bfFunction.addr, align 8, !tbaa !3551, !dbg !4178
	%367 = bitcast %struct.FieldFunction*  %366 to %struct.T3DFunction*, !dbg !4178
	%368 = load i32, i32* %fComponent.addr, align 4, !tbaa !3554, !dbg !4178
	%369 = bitcast [3 x double]* %start.addr to double*, !dbg !4178
	%370 = zext i32  %368 to i64, !dbg !4178
	%371 = bitcast [3 x i32]* %faceCoord1.addr to i32*, !dbg !4178
	%372 = getelementptr i32, i32*  %371, i64  %370, !dbg !4178
	%373 = load i32, i32*  %372, align 4, !tbaa !3552, !dbg !4178
	%374 = zext i32  %373 to i64, !dbg !4178
	%375 = bitcast [3 x double]* %dx.addr to double*, !dbg !4178
	%376 = getelementptr double, double*  %375, i64  %374, !dbg !4178
	%377 = load double, double*  %376, align 8, !tbaa !3552, !dbg !4178
	%378 = bitcast [3 x i32]* %faceCoord2.addr to i32*, !dbg !4178
	%379 = getelementptr i32, i32*  %378, i64  %370, !dbg !4178
	%380 = load i32, i32*  %379, align 4, !tbaa !3552, !dbg !4178
	%381 = zext i32  %380 to i64, !dbg !4178
	%382 = getelementptr double, double*  %375, i64  %381, !dbg !4178
	%383 = load double, double*  %382, align 8, !tbaa !3552, !dbg !4178
	%384 = call double  @_Z14surfaceAverageRK11T3DFunction10coordinatedPKddd (%struct.T3DFunction*  %367, i32  %368, double  1.00000000000000007E-17, double*  %369, double  %377, double  %383), !dbg !4178
	store double  %384, double* %.Q0021.addr, align 8, !tbaa !3558, !dbg !4178
	%385 = load double*, double** %..inline.addr.350, align 8, !tbaa !3551, !dbg !4178
	%386 = load double, double*  %385, align 8, !tbaa !3552, !dbg !4178
	%387 = fadd double  %384,  %386, !dbg !4178
	store double  %387, double*  %385, align 8, !tbaa !3552, !dbg !4178
	%388 = load i32, i32* %fComponent.addr, align 4, !tbaa !3554, !dbg !4179

	%389 = add i32  %388, 1, !dbg !4179
	store i32  %389, i32* %fComponent.addr, align 4, !tbaa !3554, !dbg !4179
	%390 = load i32, i32* %.x2052.addr, align 4, !tbaa !3554, !dbg !4148
	%391 = sub i32  %390, 1, !dbg !4148
	store i32  %391, i32* %.x2052.addr, align 4, !tbaa !3554, !dbg !4148
	%392 = icmp ne i32  %391, 0, !dbg !4179
	br i1  %392, label %L.B0063, label %L.N0016, !dbg !4179
L.N0016:
	%393 = load i32, i32* %z.addr, align 4, !tbaa !3554, !dbg !4180
	%394 = add i32  %393, 1, !dbg !4180
	store i32  %394, i32* %z.addr, align 4, !tbaa !3554, !dbg !4180
	%395 = bitcast %struct._ZSt5arrayIiLm3EE* %localSize.addr to i8*, !dbg !4180
	%396 = getelementptr i8, i8*  %395, i64 8, !dbg !4180
	%397 = bitcast i8*  %396 to i32*, !dbg !4180
	%398 = load i32, i32*  %397, align 4, !tbaa !3552, !dbg !4180
	%399 = icmp slt i32  %394,  %398, !dbg !4180
	br i1  %399, label %L.B0059, label %L.B0060, !dbg !4180
L.B0060:
	%400 = load i32, i32* %y.addr, align 4, !tbaa !3554, !dbg !4181
	%401 = add i32  %400, 1, !dbg !4181
	store i32  %401, i32* %y.addr, align 4, !tbaa !3554, !dbg !4181
	%402 = bitcast %struct._ZSt5arrayIiLm3EE* %localSize.addr to i8*, !dbg !4181
	%403 = getelementptr i8, i8*  %402, i64 4, !dbg !4181
	%404 = bitcast i8*  %403 to i32*, !dbg !4181
	%405 = load i32, i32*  %404, align 4, !tbaa !3552, !dbg !4181
	%406 = icmp slt i32  %401,  %405, !dbg !4181
	br i1  %406, label %L.B0055, label %L.B0056, !dbg !4181
L.B0056:
	%407 = load i32, i32* %x.addr, align 4, !tbaa !3554, !dbg !4182
	%408 = add i32  %407, 1, !dbg !4182
	store i32  %408, i32* %x.addr, align 4, !tbaa !3554, !dbg !4182
	%409 = bitcast %struct._ZSt5arrayIiLm3EE* %localSize.addr to i32*, !dbg !4182
	%410 = load i32, i32*  %409, align 4, !tbaa !3552, !dbg !4182
	%411 = icmp slt i32  %408,  %410, !dbg !4182
	br i1  %411, label %L.B0051, label %L.B0052, !dbg !4182
L.B0052:
	br label %L.N0017
L.N0017:
	br label %L.N0018
L.N0018:
	br label %L.N0019
L.N0019:
	ret void, !dbg !4126
}
define void @_Z23setPerturbedFieldToZeroR6FsGridISt5arrayIdLm3EELi2EE(%struct._Z6FsGridISt5arrayIdLm3EELi2EE* %perBGrid.arg) #0 !dbg !4186 {
L.entry:
	%perBGrid.addr = alloca %struct._Z6FsGridISt5arrayIdLm3EELi2EE*, align 8
	%localSize.addr = alloca i32*, align 8
	%x.addr = alloca i32, align 4
	%y.addr = alloca i32, align 4
	%z.addr = alloca i32, align 4
	%i.addr = alloca i32, align 4
	%..inline.addr = alloca %struct._Z6FsGridISt5arrayIdLm3EELi2EE*, align 8
	%..inline.addr.1 = alloca i32, align 4
	%..inline.addr.2 = alloca i32, align 4
	%..inline.addr.3 = alloca i32, align 4
	%..inline.addr.4 = alloca i32, align 4
	%..inline.addr.5 = alloca [3 x i32], align 4
	%..inline.addr.6 = alloca %struct._ZSt5arrayIdLm3EE*, align 8
	%..inline.addr.7 = alloca i64, align 8
	%..inline.addr.8 = alloca %struct._ZSt5arrayIdLm3EE*, align 8
	%..inline.addr.9 = alloca i64, align 8

	call void @llvm.dbg.declare (metadata %struct._Z6FsGridISt5arrayIdLm3EELi2EE** %perBGrid.addr, metadata !4348, metadata !3456), !dbg !4187
	store %struct._Z6FsGridISt5arrayIdLm3EELi2EE* %perBGrid.arg, %struct._Z6FsGridISt5arrayIdLm3EELi2EE** %perBGrid.addr, align 8, !tbaa !3551
	call void @llvm.dbg.declare (metadata %struct._Z6FsGridISt5arrayIdLm3EELi2EE** %perBGrid.addr, metadata !4349, metadata !3456), !dbg !4187
	%0 = load %struct._Z6FsGridISt5arrayIdLm3EELi2EE*, %struct._Z6FsGridISt5arrayIdLm3EELi2EE** %perBGrid.addr, align 8, !tbaa !3551, !dbg !4350
	%1 = bitcast %struct._Z6FsGridISt5arrayIdLm3EELi2EE*  %0 to i8*, !dbg !4350
	%2 = getelementptr i8, i8*  %1, i64 264, !dbg !4350
	call void @llvm.dbg.declare (metadata i32** %localSize.addr, metadata !4351, metadata !3456), !dbg !4187
	%3 = bitcast i32** %localSize.addr to i8**, !dbg !4350
	store i8*  %2, i8**  %3, align 8, !tbaa !3551, !dbg !4350
	call void @llvm.dbg.declare (metadata i32* %x.addr, metadata !4353, metadata !3456), !dbg !4191
	store i32 0, i32* %x.addr, align 4, !tbaa !3554, !dbg !4352
	%4 = load i32*, i32** %localSize.addr, align 8, !tbaa !3551, !dbg !4352
	%5 = load i32, i32*  %4, align 4, !tbaa !3552, !dbg !4352
	%6 = icmp sle i32  %5, 0, !dbg !4352
	br i1  %6, label %L.B0074, label %L.B0073, !dbg !4352
L.B0073:
	call void @llvm.dbg.declare (metadata i32* %y.addr, metadata !4355, metadata !3456), !dbg !4195
	store i32 0, i32* %y.addr, align 4, !tbaa !3554, !dbg !4354
	%7 = load i32*, i32** %localSize.addr, align 8, !tbaa !3551, !dbg !4354
	%8 = bitcast i32*  %7 to i8*, !dbg !4354
	%9 = getelementptr i8, i8*  %8, i64 4, !dbg !4354
	%10 = bitcast i8*  %9 to i32*, !dbg !4354
	%11 = load i32, i32*  %10, align 4, !tbaa !3552, !dbg !4354
	%12 = icmp sle i32  %11, 0, !dbg !4354
	br i1  %12, label %L.B0078, label %L.B0077, !dbg !4354
L.B0077:
	call void @llvm.dbg.declare (metadata i32* %z.addr, metadata !4357, metadata !3456), !dbg !4199
	store i32 0, i32* %z.addr, align 4, !tbaa !3554, !dbg !4356
	%13 = load i32*, i32** %localSize.addr, align 8, !tbaa !3551, !dbg !4356
	%14 = bitcast i32*  %13 to i8*, !dbg !4356
	%15 = getelementptr i8, i8*  %14, i64 8, !dbg !4356
	%16 = bitcast i8*  %15 to i32*, !dbg !4356
	%17 = load i32, i32*  %16, align 4, !tbaa !3552, !dbg !4356
	%18 = icmp sle i32  %17, 0, !dbg !4356
	br i1  %18, label %L.B0082, label %L.B0081, !dbg !4356
L.B0081:
	call void @llvm.dbg.declare (metadata i32* %i.addr, metadata !4359, metadata !3456), !dbg !4203
	store i32 0, i32* %i.addr, align 4, !tbaa !3554, !dbg !4358
	br label %L.B0085
L.B0085:
	%19 = load i32, i32* %i.addr, align 4, !tbaa !3554, !dbg !4358
	%20 = icmp sge i32  %19, 3, !dbg !4358
	br i1  %20, label %L.N0020, label %L.B0998, !dbg !4358
L.B0998:
	%21 = load %struct._Z6FsGridISt5arrayIdLm3EELi2EE*, %struct._Z6FsGridISt5arrayIdLm3EELi2EE** %perBGrid.addr, align 8, !tbaa !3551, !dbg !4360
	%22 = bitcast %struct._Z6FsGridISt5arrayIdLm3EELi2EE*  %21 to i8*, !dbg !4360
	%23 = bitcast %struct._Z6FsGridISt5arrayIdLm3EELi2EE** %..inline.addr to i8**, !dbg !4360
	store i8*  %22, i8**  %23, align 8, !tbaa !3551, !dbg !4360
	%24 = load i32, i32* %x.addr, align 4, !tbaa !3554, !dbg !4360
	store i32  %24, i32* %..inline.addr.1, align 4, !tbaa !3554, !dbg !4360
	%25 = load i32, i32* %y.addr, align 4, !tbaa !3554, !dbg !4360
	store i32  %25, i32* %..inline.addr.2, align 4, !tbaa !3554, !dbg !4360
	%26 = load i32, i32* %z.addr, align 4, !tbaa !3554, !dbg !4360
	store i32  %26, i32* %..inline.addr.3, align 4, !tbaa !3554, !dbg !4360
	store i32 13, i32* %..inline.addr.4, align 4, !tbaa !3554, !dbg !4360
	%27 = bitcast [3 x i32]* %..inline.addr.5 to i32*, !dbg !4361
	store i32 0, i32*  %27, align 4, !tbaa !3552, !dbg !4361
	%28 = bitcast [3 x i32]* %..inline.addr.5 to i8*, !dbg !4362
	%29 = getelementptr i8, i8*  %28, i64 4, !dbg !4362
	%30 = bitcast i8*  %29 to i32*, !dbg !4362
	store i32 0, i32*  %30, align 4, !tbaa !3552, !dbg !4362
	%31 = getelementptr i8, i8*  %28, i64 8, !dbg !4362
	%32 = bitcast i8*  %31 to i32*, !dbg !4362
	store i32 0, i32*  %32, align 4, !tbaa !3552, !dbg !4362
	%33 = icmp sge i32  %24, 0, !dbg !4362
	br i1  %33, label %L..inline.26526, label %L.B0999, !dbg !4362
L.B0999:
	store i32 4, i32* %..inline.addr.4, align 4, !tbaa !3554, !dbg !4363
	%34 = bitcast [3 x i32]* %..inline.addr.5 to i32*, !dbg !4364
	store i32 1, i32*  %34, align 4, !tbaa !3552, !dbg !4364
	br label %L..inline.26526
L..inline.26526:
	%35 = load i32, i32* %..inline.addr.1, align 4, !tbaa !3554, !dbg !4365
	%36 = load %struct._Z6FsGridISt5arrayIdLm3EELi2EE*, %struct._Z6FsGridISt5arrayIdLm3EELi2EE** %..inline.addr, align 8, !tbaa !3551, !dbg !4365
	%37 = bitcast %struct._Z6FsGridISt5arrayIdLm3EELi2EE*  %36 to i8*, !dbg !4365
	%38 = getelementptr i8, i8*  %37, i64 264, !dbg !4365
	%39 = bitcast i8*  %38 to i32*, !dbg !4365
	%40 = load i32, i32*  %39, align 4, !tbaa !3552, !dbg !4365
	%41 = icmp slt i32  %35,  %40, !dbg !4365
	br i1  %41, label %L..inline.26544, label %L.B1000, !dbg !4365
L.B1000:
	%42 = load i32, i32* %..inline.addr.4, align 4, !tbaa !3554, !dbg !4365
	%43 = add i32  %42, 9, !dbg !4365
	store i32  %43, i32* %..inline.addr.4, align 4, !tbaa !3554, !dbg !4365
	%44 = bitcast [3 x i32]* %..inline.addr.5 to i32*, !dbg !4366
	store i32 -1, i32*  %44, align 4, !tbaa !3552, !dbg !4366
	br label %L..inline.26544
L..inline.26544:
	%45 = load i32, i32* %..inline.addr.2, align 4, !tbaa !3554, !dbg !4367
	%46 = icmp sge i32  %45, 0, !dbg !4367
	br i1  %46, label %L..inline.26546, label %L.B1001, !dbg !4367
L.B1001:
	%47 = load i32, i32* %..inline.addr.4, align 4, !tbaa !3554, !dbg !4367
	%48 = sub i32  %47, 3, !dbg !4367
	store i32  %48, i32* %..inline.addr.4, align 4, !tbaa !3554, !dbg !4367
	%49 = bitcast [3 x i32]* %..inline.addr.5 to i8*, !dbg !4368
	%50 = getelementptr i8, i8*  %49, i64 4, !dbg !4368
	%51 = bitcast i8*  %50 to i32*, !dbg !4368
	store i32 1, i32*  %51, align 4, !tbaa !3552, !dbg !4368
	br label %L..inline.26546
L..inline.26546:
	%52 = load i32, i32* %..inline.addr.2, align 4, !tbaa !3554, !dbg !4369
	%53 = load %struct._Z6FsGridISt5arrayIdLm3EELi2EE*, %struct._Z6FsGridISt5arrayIdLm3EELi2EE** %..inline.addr, align 8, !tbaa !3551, !dbg !4369
	%54 = bitcast %struct._Z6FsGridISt5arrayIdLm3EELi2EE*  %53 to i8*, !dbg !4369
	%55 = getelementptr i8, i8*  %54, i64 268, !dbg !4369
	%56 = bitcast i8*  %55 to i32*, !dbg !4369
	%57 = load i32, i32*  %56, align 4, !tbaa !3552, !dbg !4369
	%58 = icmp slt i32  %52,  %57, !dbg !4369
	br i1  %58, label %L..inline.26563, label %L.B1002, !dbg !4369
L.B1002:
	%59 = load i32, i32* %..inline.addr.4, align 4, !tbaa !3554, !dbg !4369
	%60 = add i32  %59, 3, !dbg !4369
	store i32  %60, i32* %..inline.addr.4, align 4, !tbaa !3554, !dbg !4369
	%61 = bitcast [3 x i32]* %..inline.addr.5 to i8*, !dbg !4370
	%62 = getelementptr i8, i8*  %61, i64 4, !dbg !4370
	%63 = bitcast i8*  %62 to i32*, !dbg !4370
	store i32 -1, i32*  %63, align 4, !tbaa !3552, !dbg !4370
	br label %L..inline.26563
L..inline.26563:
	%64 = load i32, i32* %..inline.addr.3, align 4, !tbaa !3554, !dbg !4371
	%65 = icmp sge i32  %64, 0, !dbg !4371
	br i1  %65, label %L..inline.26565, label %L.B1003, !dbg !4371
L.B1003:
	%66 = load i32, i32* %..inline.addr.4, align 4, !tbaa !3554, !dbg !4371
	%67 = sub i32  %66, 1, !dbg !4371
	store i32  %67, i32* %..inline.addr.4, align 4, !tbaa !3554, !dbg !4371
	%68 = bitcast [3 x i32]* %..inline.addr.5 to i8*, !dbg !4372
	%69 = getelementptr i8, i8*  %68, i64 8, !dbg !4372
	%70 = bitcast i8*  %69 to i32*, !dbg !4372
	store i32 1, i32*  %70, align 4, !tbaa !3552, !dbg !4372
	br label %L..inline.26565
L..inline.26565:
	%71 = load i32, i32* %..inline.addr.3, align 4, !tbaa !3554, !dbg !4373
	%72 = load %struct._Z6FsGridISt5arrayIdLm3EELi2EE*, %struct._Z6FsGridISt5arrayIdLm3EELi2EE** %..inline.addr, align 8, !tbaa !3551, !dbg !4373
	%73 = bitcast %struct._Z6FsGridISt5arrayIdLm3EELi2EE*  %72 to i8*, !dbg !4373
	%74 = getelementptr i8, i8*  %73, i64 272, !dbg !4373
	%75 = bitcast i8*  %74 to i32*, !dbg !4373
	%76 = load i32, i32*  %75, align 4, !tbaa !3552, !dbg !4373
	%77 = icmp slt i32  %71,  %76, !dbg !4373
	br i1  %77, label %L..inline.26582, label %L.B1004, !dbg !4373
L.B1004:
	%78 = load i32, i32* %..inline.addr.4, align 4, !tbaa !3554, !dbg !4373
	%79 = add i32  %78, 1, !dbg !4373
	store i32  %79, i32* %..inline.addr.4, align 4, !tbaa !3554, !dbg !4373
	%80 = bitcast [3 x i32]* %..inline.addr.5 to i8*, !dbg !4374
	%81 = getelementptr i8, i8*  %80, i64 8, !dbg !4374
	%82 = bitcast i8*  %81 to i32*, !dbg !4374
	store i32 -1, i32*  %82, align 4, !tbaa !3552, !dbg !4374
	br label %L..inline.26582
L..inline.26582:
	%83 = load i32, i32* %..inline.addr.4, align 4, !tbaa !3554, !dbg !4375
	%84 = icmp eq i32  %83, 13, !dbg !4375
	br i1  %84, label %L..inline.26583, label %L.B1005, !dbg !4375
L.B1005:
	%85 = sext i32  %83 to i64, !dbg !4376
	%86 = load %struct._Z6FsGridISt5arrayIdLm3EELi2EE*, %struct._Z6FsGridISt5arrayIdLm3EELi2EE** %..inline.addr, align 8, !tbaa !3551, !dbg !4376
	%87 = bitcast %struct._Z6FsGridISt5arrayIdLm3EELi2EE*  %86 to i8*, !dbg !4376
	%88 = getelementptr i8, i8*  %87, i64 92, !dbg !4376
	%89 = bitcast i8*  %88 to i32*, !dbg !4376
	%90 = getelementptr i32, i32*  %89, i64  %85, !dbg !4376
	%91 = load i32, i32*  %90, align 4, !tbaa !3552, !dbg !4376
	%92 = icmp ne i32  %91, -2, !dbg !4376
	br i1  %92, label %L..inline.26600, label %L.B1006, !dbg !4376
L.B1006:
	%93 = bitcast %struct._ZSt5arrayIdLm3EE** %..inline.addr.6 to i8**, !dbg !4376
	store i8* null, i8**  %93, align 8, !tbaa !3551, !dbg !4376
	br label %L..inline.26787, !dbg !4377
L..inline.26600:
	%94 = load i32, i32* %..inline.addr.4, align 4, !tbaa !3554, !dbg !4378
	%95 = sext i32  %94 to i64, !dbg !4378
	%96 = load %struct._Z6FsGridISt5arrayIdLm3EELi2EE*, %struct._Z6FsGridISt5arrayIdLm3EELi2EE** %..inline.addr, align 8, !tbaa !3551, !dbg !4378
	%97 = bitcast %struct._Z6FsGridISt5arrayIdLm3EELi2EE*  %96 to i8*, !dbg !4378
	%98 = getelementptr i8, i8*  %97, i64 92, !dbg !4378
	%99 = bitcast i8*  %98 to i32*, !dbg !4378
	%100 = getelementptr i32, i32*  %99, i64  %95, !dbg !4378
	%101 = load i32, i32*  %100, align 4, !tbaa !3552, !dbg !4378
	%102 = getelementptr i8, i8*  %97, i64 56, !dbg !4378
	%103 = bitcast i8*  %102 to i32*, !dbg !4378
	%104 = load i32, i32*  %103, align 4, !tbaa !3552, !dbg !4378
	%105 = icmp ne i32  %101,  %104, !dbg !4378
	br i1  %105, label %L..inline.26618, label %L.B1007, !dbg !4378
L.B1007:
	%106 = load i32, i32* %..inline.addr.1, align 4, !tbaa !3554, !dbg !4379
	%107 = bitcast [3 x i32]* %..inline.addr.5 to i32*, !dbg !4379
	%108 = load i32, i32*  %107, align 4, !tbaa !3552, !dbg !4379
	%109 = bitcast %struct._Z6FsGridISt5arrayIdLm3EELi2EE*  %96 to i8*, !dbg !4379
	%110 = getelementptr i8, i8*  %109, i64 264, !dbg !4379
	%111 = bitcast i8*  %110 to i32*, !dbg !4379
	%112 = load i32, i32*  %111, align 4, !tbaa !3552, !dbg !4379
	%113 = mul i32  %108,  %112, !dbg !4379
	%114 = add i32  %106,  %113, !dbg !4379
	store i32  %114, i32* %..inline.addr.1, align 4, !tbaa !3554, !dbg !4379
	%115 = load i32, i32* %..inline.addr.2, align 4, !tbaa !3554, !dbg !4380
	%116 = bitcast [3 x i32]* %..inline.addr.5 to i8*, !dbg !4380
	%117 = getelementptr i8, i8*  %116, i64 4, !dbg !4380
	%118 = bitcast i8*  %117 to i32*, !dbg !4380
	%119 = load i32, i32*  %118, align 4, !tbaa !3552, !dbg !4380
	%120 = getelementptr i8, i8*  %109, i64 268, !dbg !4380
	%121 = bitcast i8*  %120 to i32*, !dbg !4380
	%122 = load i32, i32*  %121, align 4, !tbaa !3552, !dbg !4380
	%123 = mul i32  %119,  %122, !dbg !4380
	%124 = add i32  %115,  %123, !dbg !4380
	store i32  %124, i32* %..inline.addr.2, align 4, !tbaa !3554, !dbg !4380
	%125 = load i32, i32* %..inline.addr.3, align 4, !tbaa !3554, !dbg !4381
	%126 = getelementptr i8, i8*  %116, i64 8, !dbg !4381
	%127 = bitcast i8*  %126 to i32*, !dbg !4381
	%128 = load i32, i32*  %127, align 4, !tbaa !3552, !dbg !4381
	%129 = getelementptr i8, i8*  %109, i64 272, !dbg !4381
	%130 = bitcast i8*  %129 to i32*, !dbg !4381
	%131 = load i32, i32*  %130, align 4, !tbaa !3552, !dbg !4381
	%132 = mul i32  %128,  %131, !dbg !4381
	%133 = add i32  %125,  %132, !dbg !4381
	store i32  %133, i32* %..inline.addr.3, align 4, !tbaa !3554, !dbg !4381
	br label %L..inline.26618
L..inline.26618:
	br label %L..inline.26583
L..inline.26583:
	store i64 0, i64* %..inline.addr.7, align 8, !tbaa !3556, !dbg !4382
	%134 = load %struct._Z6FsGridISt5arrayIdLm3EELi2EE*, %struct._Z6FsGridISt5arrayIdLm3EELi2EE** %..inline.addr, align 8, !tbaa !3551, !dbg !4382
	%135 = bitcast %struct._Z6FsGridISt5arrayIdLm3EELi2EE*  %134 to i8*, !dbg !4382
	%136 = getelementptr i8, i8*  %135, i64 260, !dbg !4382
	%137 = bitcast i8*  %136 to i32*, !dbg !4382
	%138 = load i32, i32*  %137, align 4, !tbaa !3552, !dbg !4382
	%139 = icmp sle i32  %138, 1, !dbg !4382
	br i1  %139, label %L..inline.26692, label %L.B1008, !dbg !4382
L.B1008:
	%140 = load i32, i32* %..inline.addr.3, align 4, !tbaa !3554, !dbg !4382
	%141 = add i32  %140, 2, !dbg !4382
	%142 = bitcast %struct._Z6FsGridISt5arrayIdLm3EELi2EE*  %134 to i8*, !dbg !4382
	%143 = getelementptr i8, i8*  %142, i64 280, !dbg !4382
	%144 = bitcast i8*  %143 to i32*, !dbg !4382
	%145 = load i32, i32*  %144, align 4, !tbaa !3552, !dbg !4382
	%146 = getelementptr i8, i8*  %142, i64 276, !dbg !4382
	%147 = bitcast i8*  %146 to i32*, !dbg !4382
	%148 = load i32, i32*  %147, align 4, !tbaa !3552, !dbg !4382
	%149 = mul i32  %145,  %148, !dbg !4382
	%150 = mul i32  %141,  %149, !dbg !4382
	%151 = sext i32  %150 to i64, !dbg !4382
	store i64  %151, i64* %..inline.addr.7, align 8, !tbaa !3556, !dbg !4382
	br label %L..inline.26692
L..inline.26692:
	%152 = load %struct._Z6FsGridISt5arrayIdLm3EELi2EE*, %struct._Z6FsGridISt5arrayIdLm3EELi2EE** %..inline.addr, align 8, !tbaa !3551, !dbg !4382
	%153 = bitcast %struct._Z6FsGridISt5arrayIdLm3EELi2EE*  %152 to i8*, !dbg !4382
	%154 = getelementptr i8, i8*  %153, i64 256, !dbg !4382
	%155 = bitcast i8*  %154 to i32*, !dbg !4382
	%156 = load i32, i32*  %155, align 4, !tbaa !3552, !dbg !4382
	%157 = icmp sle i32  %156, 1, !dbg !4382
	br i1  %157, label %L..inline.26741, label %L.B1009, !dbg !4382
L.B1009:
	%158 = load i64, i64* %..inline.addr.7, align 8, !tbaa !3556, !dbg !4382
	%159 = bitcast %struct._Z6FsGridISt5arrayIdLm3EELi2EE*  %152 to i8*, !dbg !4382
	%160 = getelementptr i8, i8*  %159, i64 276, !dbg !4382
	%161 = bitcast i8*  %160 to i32*, !dbg !4382
	%162 = load i32, i32*  %161, align 4, !tbaa !3552, !dbg !4382
	%163 = load i32, i32* %..inline.addr.2, align 4, !tbaa !3554, !dbg !4382
	%164 = add i32  %163, 2, !dbg !4382
	%165 = mul i32  %162,  %164, !dbg !4382
	%166 = sext i32  %165 to i64, !dbg !4382
	%167 = add i64  %158,  %166, !dbg !4382
	store i64  %167, i64* %..inline.addr.7, align 8, !tbaa !3556, !dbg !4382
	br label %L..inline.26741
L..inline.26741:
	%168 = load %struct._Z6FsGridISt5arrayIdLm3EELi2EE*, %struct._Z6FsGridISt5arrayIdLm3EELi2EE** %..inline.addr, align 8, !tbaa !3551, !dbg !4382
	%169 = bitcast %struct._Z6FsGridISt5arrayIdLm3EELi2EE*  %168 to i8*, !dbg !4382
	%170 = getelementptr i8, i8*  %169, i64 252, !dbg !4382
	%171 = bitcast i8*  %170 to i32*, !dbg !4382
	%172 = load i32, i32*  %171, align 4, !tbaa !3552, !dbg !4382
	%173 = icmp sle i32  %172, 1, !dbg !4382
	%174 = zext i1  %173 to i32, !dbg !4382
	%175 = trunc i32  %174 to i1, !dbg !4382
	%176 = load i64, i64* %..inline.addr.7, align 8, !tbaa !3556, !dbg !4382
	%177 = load i32, i32* %..inline.addr.1, align 4, !tbaa !3554, !dbg !4382
	%178 = sext i32  %177 to i64, !dbg !4382
	%179 = add i64  %178, 2, !dbg !4382
	%180 = add i64  %176,  %179, !dbg !4382
	%181 = select i1  %175, i64  %176, i64  %180, !dbg !4382
	%182 = getelementptr i8, i8*  %169, i64 744, !dbg !4383
	%183 = bitcast i8*  %182 to i8**, !dbg !4383
	%184 = load i8*, i8**  %183, align 8, !tbaa !3551, !dbg !4383
	%185 = mul i64  %181, 24, !dbg !4383
	%186 = getelementptr i8, i8*  %184, i64  %185, !dbg !4383
	%187 = bitcast %struct._ZSt5arrayIdLm3EE** %..inline.addr.6 to i8**, !dbg !4383
	store i8*  %186, i8**  %187, align 8, !tbaa !3551, !dbg !4383
	br label %L..inline.26787
L..inline.26787:
	%188 = load %struct._ZSt5arrayIdLm3EE*, %struct._ZSt5arrayIdLm3EE** %..inline.addr.6, align 8, !tbaa !3551, !dbg !4384
	%189 = bitcast %struct._ZSt5arrayIdLm3EE*  %188 to i8*, !dbg !4384
	%190 = bitcast %struct._ZSt5arrayIdLm3EE** %..inline.addr.8 to i8**, !dbg !4384
	store i8*  %189, i8**  %190, align 8, !tbaa !3551, !dbg !4384
	%191 = load i32, i32* %i.addr, align 4, !tbaa !3554, !dbg !4360
	%192 = sext i32  %191 to i64, !dbg !4360
	store i64  %192, i64* %..inline.addr.9, align 8, !tbaa !3556, !dbg !4360
	%193 = icmp ult i64  %192, 3, !dbg !4360
	br i1  %193, label %L..inline.26790, label %L.B1010, !dbg !4360
L.B1010:
	%194 = bitcast [52 x i8]* @.S12573 to i8*, !dbg !4385
	call void (i8*, ...)  @_ZSt24__throw_out_of_range_fmtPKcz (i8*  %194, i64  %192, i64 3) noreturn, !dbg !4385
	br label %L..inline.26790
L..inline.26790:
	%195 = load i64, i64* %..inline.addr.9, align 8, !tbaa !3556, !dbg !4386
	%196 = load %struct._ZSt5arrayIdLm3EE*, %struct._ZSt5arrayIdLm3EE** %..inline.addr.8, align 8, !tbaa !3551, !dbg !4386
	%197 = bitcast %struct._ZSt5arrayIdLm3EE*  %196 to double*, !dbg !4386
	%198 = getelementptr double, double*  %197, i64  %195, !dbg !4386
	store double  0.00000000000000000E+0, double*  %198, align 8, !tbaa !3552, !dbg !4386
	%199 = load i32, i32* %i.addr, align 4, !tbaa !3554, !dbg !4387
	%200 = add i32  %199, 1, !dbg !4387
	store i32  %200, i32* %i.addr, align 4, !tbaa !3554, !dbg !4387
	br label %L.B0085, !dbg !4387
L.B1011:
	br label %L.B0086, !dbg !4358
L.N0020:
	br label %L.B0086
L.B0086:
	%201 = load i32, i32* %z.addr, align 4, !tbaa !3554, !dbg !4388
	%202 = add i32  %201, 1, !dbg !4388
	store i32  %202, i32* %z.addr, align 4, !tbaa !3554, !dbg !4388
	%203 = load i32*, i32** %localSize.addr, align 8, !tbaa !3551, !dbg !4388
	%204 = bitcast i32*  %203 to i8*, !dbg !4388
	%205 = getelementptr i8, i8*  %204, i64 8, !dbg !4388
	%206 = bitcast i8*  %205 to i32*, !dbg !4388
	%207 = load i32, i32*  %206, align 4, !tbaa !3552, !dbg !4388
	%208 = icmp slt i32  %202,  %207, !dbg !4388
	br i1  %208, label %L.B0081, label %L.B0082, !dbg !4388
L.B0082:
	%209 = load i32, i32* %y.addr, align 4, !tbaa !3554, !dbg !4389
	%210 = add i32  %209, 1, !dbg !4389
	store i32  %210, i32* %y.addr, align 4, !tbaa !3554, !dbg !4389
	%211 = load i32*, i32** %localSize.addr, align 8, !tbaa !3551, !dbg !4389
	%212 = bitcast i32*  %211 to i8*, !dbg !4389
	%213 = getelementptr i8, i8*  %212, i64 4, !dbg !4389
	%214 = bitcast i8*  %213 to i32*, !dbg !4389
	%215 = load i32, i32*  %214, align 4, !tbaa !3552, !dbg !4389
	%216 = icmp slt i32  %210,  %215, !dbg !4389
	br i1  %216, label %L.B0077, label %L.B0078, !dbg !4389
L.B0078:
	%217 = load i32, i32* %x.addr, align 4, !tbaa !3554, !dbg !4390
	%218 = add i32  %217, 1, !dbg !4390
	store i32  %218, i32* %x.addr, align 4, !tbaa !3554, !dbg !4390
	%219 = load i32*, i32** %localSize.addr, align 8, !tbaa !3551, !dbg !4390
	%220 = load i32, i32*  %219, align 4, !tbaa !3552, !dbg !4390
	%221 = icmp slt i32  %218,  %220, !dbg !4390
	br i1  %221, label %L.B0073, label %L.B0074, !dbg !4390
L.B0074:
	br label %L.N0023
L.N0023:
	br label %L.N0024
L.N0024:
	br label %L.N0025
L.N0025:
	ret void, !dbg !4350
}
define linkonce_odr void @_ZN13FieldFunction12setComponentE10coordinate(%struct.FieldFunction* %_T45080648_11193.arg, i32 zeroext %fComponent.arg) #0 inlinehint !dbg !4397 {
L.entry:
	%_T45080648_11193.addr = alloca %struct.FieldFunction*, align 8
	%fComponent.addr = alloca i32, align 4

	call void @llvm.dbg.declare (metadata %struct.FieldFunction** %_T45080648_11193.addr, metadata !4401, metadata !3456), !dbg !4398
	store %struct.FieldFunction* %_T45080648_11193.arg, %struct.FieldFunction** %_T45080648_11193.addr, align 8, !tbaa !3551
	call void @llvm.dbg.declare (metadata %struct.FieldFunction** %_T45080648_11193.addr, metadata !4402, metadata !3456), !dbg !4398
	call void @llvm.dbg.declare (metadata i32* %fComponent.addr, metadata !4403, metadata !3456), !dbg !4398
	store i32 %fComponent.arg, i32* %fComponent.addr, align 4, !tbaa !3552
	call void @llvm.dbg.declare (metadata i32* %fComponent.addr, metadata !4404, metadata !3456), !dbg !4398
	%0 = load i32, i32* %fComponent.addr, align 4, !tbaa !3552, !dbg !4405
	%1 = load %struct.FieldFunction*, %struct.FieldFunction** %_T45080648_11193.addr, align 8, !tbaa !3551, !dbg !4405
	%2 = bitcast %struct.FieldFunction*  %1 to i8*, !dbg !4405
	%3 = getelementptr i8, i8*  %2, i64 8, !dbg !4405
	%4 = bitcast i8*  %3 to i32*, !dbg !4405
	store i32  %0, i32*  %4, align 4, !tbaa !3552, !dbg !4405
	ret void, !dbg !4405
}
define linkonce_odr void @_ZN13FieldFunction17setDerivComponentE10coordinate(%struct.FieldFunction* %_T45080648_11194.arg, i32 zeroext %dComponent.arg) #0 inlinehint !dbg !4407 {
L.entry:
	%_T45080648_11194.addr = alloca %struct.FieldFunction*, align 8
	%dComponent.addr = alloca i32, align 4

	call void @llvm.dbg.declare (metadata %struct.FieldFunction** %_T45080648_11194.addr, metadata !4411, metadata !3456), !dbg !4408
	store %struct.FieldFunction* %_T45080648_11194.arg, %struct.FieldFunction** %_T45080648_11194.addr, align 8, !tbaa !3551
	call void @llvm.dbg.declare (metadata %struct.FieldFunction** %_T45080648_11194.addr, metadata !4412, metadata !3456), !dbg !4408
	call void @llvm.dbg.declare (metadata i32* %dComponent.addr, metadata !4413, metadata !3456), !dbg !4408
	store i32 %dComponent.arg, i32* %dComponent.addr, align 4, !tbaa !3552
	call void @llvm.dbg.declare (metadata i32* %dComponent.addr, metadata !4414, metadata !3456), !dbg !4408
	%0 = load i32, i32* %dComponent.addr, align 4, !tbaa !3552, !dbg !4415
	%1 = load %struct.FieldFunction*, %struct.FieldFunction** %_T45080648_11194.addr, align 8, !tbaa !3551, !dbg !4415
	%2 = bitcast %struct.FieldFunction*  %1 to i8*, !dbg !4415
	%3 = getelementptr i8, i8*  %2, i64 12, !dbg !4415
	%4 = bitcast i8*  %3 to i32*, !dbg !4415
	store i32  %0, i32*  %4, align 4, !tbaa !3552, !dbg !4415
	ret void, !dbg !4415
}

%struct._ZSt6locale = type <{ %struct._ZNSt6locale5_ImplE*}> 
%struct._ZSt8ios_base = type <{ i32 (...)* (...)*, i64, i64, i32, i32, i32, [4 x i8], %struct._ZNSt8ios_base14_Callback_listE*, %struct._ZNSt8ios_base6_WordsE, [8 x %struct._ZNSt8ios_base6_WordsE], i32, [4 x i8], %struct._ZNSt8ios_base6_WordsE*, %struct._ZSt6locale}> 
%struct.__locale_data = type opaque
%struct._ZSo = type <{ i32 (...)* (...)*, %struct._ZSt9basic_iosIcSt11char_traitsIcEE}> 
%struct._ZNSt8ios_base6_WordsE = type <{ i8*, i64}> 
%struct._ZSt9basic_iosIcSt11char_traitsIcEE = type <{ %struct._ZSt8ios_base, %struct._ZSo*, i8, i8, [6 x i8], %struct._ZSt15basic_streambufIcSt11char_traitsIcEE*, %struct._ZSt5ctypeIcE*, %struct._ZSt7num_putIcSt19ostreambuf_iteratorIcSt11char_traitsIcEEE*, %struct._ZSt7num_getIcSt19istreambuf_iteratorIcSt11char_traitsIcEEE*}> 
%struct._ZSt7num_putIcSt19ostreambuf_iteratorIcSt11char_traitsIcEEE = type <{ %struct.__SO__NSt6locale5facetE, [4 x i8]}> 
%struct._ZNSt8ios_base14_Callback_listE = type <{ %struct._ZNSt8ios_base14_Callback_listE*, void (i32, %struct._ZSt8ios_base*, i32)*, i32, i32}> 
%struct.__locale_struct = type <{ [13 x %struct.__locale_data*], i16*, i32*, i32*, [13 x i8*]}> 
%struct._ZSt15basic_streambufIcSt11char_traitsIcEE = type <{ i32 (...)* (...)*, i8*, i8*, i8*, i8*, i8*, i8*, %struct._ZSt6locale}> 
%struct.__SO__NSt6locale5facetE = type <{ i32 (...)* (...)*, i32}> 
%struct._ZSt5ctypeIcE = type <{ %struct.__SO__NSt6locale5facetE, [4 x i8], %struct.__locale_struct*, i8, [7 x i8], i32*, i32*, i16*, i8, [256 x i8], [256 x i8], i8, [6 x i8]}> 
%struct._ZNSt6locale5facetE = type <{ i32 (...)* (...)*, i32, [4 x i8]}> 
%struct._ZNSt6locale5_ImplE = type <{ i32, [4 x i8], %struct._ZNSt6locale5facetE**, i64, %struct._ZNSt6locale5facetE**, i8**}> 
%struct._ZSt7num_getIcSt19istreambuf_iteratorIcSt11char_traitsIcEEE = type <{ %struct.__SO__NSt6locale5facetE, [4 x i8]}> 

define linkonce_odr void @_ZN13FieldFunction13setDerivativeEj(%struct.FieldFunction* %_T45080832_11195.arg, i32 zeroext %derivative.arg) #0 inlinehint !dbg !4419 {
L.entry:
	%_T45080832_11195.addr = alloca %struct.FieldFunction*, align 8
	%derivative.addr = alloca i32, align 4
	%..inline.addr = alloca %struct._ZSt9basic_iosIcSt11char_traitsIcEE*, align 8
	%..inline.addr.1 = alloca %struct._ZSt9basic_iosIcSt11char_traitsIcEE*, align 8
	%..inline.addr.2 = alloca i32, align 4
	%..inline.addr.3 = alloca i64, align 8
	%.Q0022.addr = alloca %struct._ZSo*, align 8
	%..inline.addr.4 = alloca i32, align 4
	%.Q0023.addr = alloca %struct._ZSo*, align 8
	%..inline.addr.5 = alloca %struct._ZSo*, align 8
	%.Q0024.addr = alloca %struct._ZSo*, align 8

	call void @llvm.dbg.declare (metadata %struct.FieldFunction** %_T45080832_11195.addr, metadata !4451, metadata !3456), !dbg !4420
	store %struct.FieldFunction* %_T45080832_11195.arg, %struct.FieldFunction** %_T45080832_11195.addr, align 8, !tbaa !3551
	call void @llvm.dbg.declare (metadata %struct.FieldFunction** %_T45080832_11195.addr, metadata !4452, metadata !3456), !dbg !4420
	call void @llvm.dbg.declare (metadata i32* %derivative.addr, metadata !4453, metadata !3456), !dbg !4420
	store i32 %derivative.arg, i32* %derivative.addr, align 4, !tbaa !3552
	call void @llvm.dbg.declare (metadata i32* %derivative.addr, metadata !4454, metadata !3456), !dbg !4420
	%0 = load i32, i32* %derivative.addr, align 4, !tbaa !3554, !dbg !4455
	%1 = load %struct.FieldFunction*, %struct.FieldFunction** %_T45080832_11195.addr, align 8, !tbaa !3551, !dbg !4455
	%2 = bitcast %struct.FieldFunction*  %1 to i8*, !dbg !4455
	%3 = getelementptr i8, i8*  %2, i64 16, !dbg !4455
	%4 = bitcast i8*  %3 to i32*, !dbg !4455
	store i32  %0, i32*  %4, align 4, !tbaa !3552, !dbg !4455
	%5 = icmp ule i32  %0, 1, !dbg !4456
	br i1  %5, label %L.B0094, label %L.B0095, !dbg !4456
L.B0095:
	%6 = bitcast [36 x i8]* @.S12345 to i8*, !dbg !4457
	%7 = icmp ne i8*  %6,  null, !dbg !4457
	br i1  %7, label %L..inline.26972, label %L.B1019, !dbg !4457
L.B1019:
	%8 = bitcast %struct._ZSo* @_ZSt4cerr to i8*, !dbg !4458
	%9 = bitcast %struct._ZSo* @_ZSt4cerr to i8**, !dbg !4458
	%10 = load i8*, i8**  %9, align 8, !tbaa !3551, !dbg !4458
	%11 = getelementptr i8, i8*  %10, i64 18446744073709551592, !dbg !4458
	%12 = bitcast i8*  %11 to i64*, !dbg !4458
	%13 = load i64, i64*  %12, align 8, !tbaa !3552, !dbg !4458
	%14 = getelementptr i8, i8*  %8, i64  %13, !dbg !4458
	%15 = bitcast %struct._ZSt9basic_iosIcSt11char_traitsIcEE** %..inline.addr to i8**, !dbg !4458
	store i8*  %14, i8**  %15, align 8, !tbaa !3551, !dbg !4458
	%16 = load %struct._ZSt9basic_iosIcSt11char_traitsIcEE*, %struct._ZSt9basic_iosIcSt11char_traitsIcEE** %..inline.addr, align 8, !tbaa !3551, !dbg !4458
	%17 = bitcast %struct._ZSt9basic_iosIcSt11char_traitsIcEE*  %16 to i8*, !dbg !4458
	%18 = bitcast %struct._ZSt9basic_iosIcSt11char_traitsIcEE** %..inline.addr.1 to i8**, !dbg !4458
	store i8*  %17, i8**  %18, align 8, !tbaa !3551, !dbg !4458
	%19 = load %struct._ZSt9basic_iosIcSt11char_traitsIcEE*, %struct._ZSt9basic_iosIcSt11char_traitsIcEE** %..inline.addr.1, align 8, !tbaa !3551, !dbg !4458
	%20 = bitcast %struct._ZSt9basic_iosIcSt11char_traitsIcEE*  %19 to i8*, !dbg !4458
	%21 = getelementptr i8, i8*  %20, i64 32, !dbg !4458
	%22 = bitcast i8*  %21 to i32*, !dbg !4458
	%23 = load i32, i32*  %22, align 4, !tbaa !3552, !dbg !4458
	%24 = or i32  %23, 1, !dbg !4458
	call void  @_ZNSt9basic_iosIcSt11char_traitsIcEE5clearESt12_Ios_Iostate (%struct._ZSt9basic_iosIcSt11char_traitsIcEE*  %16, i32  %24), !dbg !4458
	br label %L..inline.26993, !dbg !4458
L..inline.26972:
	%25 = bitcast [36 x i8]* @.S12345 to i8*, !dbg !4461
	%26 = call i64  @strlen (i8*  %25) nounwind, !dbg !4461
	%27 = call %struct._ZSo*  @_ZSt16__ostream_insertIcSt11char_traitsIcEERSt13basic_ostreamIT_T0_ES6_PKS3_l (%struct._ZSo* @_ZSt4cerr, i8*  %25, i64  %26), !dbg !4461
	%28 = bitcast %struct._ZSo*  %27 to i8*, !dbg !4461
	%29 = bitcast %struct._ZSo** %.Q0022.addr to i8**, !dbg !4461
	store i8*  %28, i8**  %29, align 8, !tbaa !3551, !dbg !4461
	br label %L..inline.26993
L..inline.26993:
	%30 = load i32, i32* %derivative.addr, align 4, !tbaa !3554, !dbg !4462
	%31 = zext i32  %30 to i64, !dbg !4463
	%32 = call %struct._ZSo*  @_ZNSo9_M_insertImEERSoT_ (%struct._ZSo* @_ZSt4cerr, i64  %31), !dbg !4463
	%33 = bitcast %struct._ZSo*  %32 to i8*, !dbg !4463
	%34 = bitcast %struct._ZSo** %.Q0023.addr to i8**, !dbg !4463
	store i8*  %33, i8**  %34, align 8, !tbaa !3551, !dbg !4463
	%35 = load %struct._ZSo*, %struct._ZSo** %.Q0023.addr, align 8, !tbaa !3551, !dbg !4463
	%36 = bitcast %struct._ZSo*  %35 to i8*, !dbg !4463
	%37 = bitcast %struct._ZSo** %..inline.addr.5 to i8**, !dbg !4463
	store i8*  %36, i8**  %37, align 8, !tbaa !3551, !dbg !4463
	%38 = load %struct._ZSo*, %struct._ZSo** %..inline.addr.5, align 8, !tbaa !3551, !dbg !4464
	%39 = call %struct._ZSo*  @_ZSt4endlIcSt11char_traitsIcEERSt13basic_ostreamIT_T0_ES6_ (%struct._ZSo*  %38), !dbg !4464
	%40 = bitcast %struct._ZSo*  %39 to i8*, !dbg !4464
	%41 = bitcast %struct._ZSo** %.Q0024.addr to i8**, !dbg !4464
	store i8*  %40, i8**  %41, align 8, !tbaa !3551, !dbg !4464
	call void  @exit (i32 1) nounwind noreturn, !dbg !4465
	br label %L.B0096
L.B0096:
	br label %L.B0094
L.B0094:
	ret void, !dbg !4466
}
define linkonce_odr i64 @_ZN6FsGridISt5arrayIdLm18EELi2EE16LocalIDForCoordsEiii(%struct._Z6FsGridISt5arrayIdLm18EELi2EE* %_T45081936_11197.arg, i32 signext %x.arg, i32 signext %y.arg, i32 signext %z.arg) #0 inlinehint !dbg !4473 {
L.entry:
	%_T45081936_11197.addr = alloca %struct._Z6FsGridISt5arrayIdLm18EELi2EE*, align 8
	%x.addr = alloca i32, align 4
	%y.addr = alloca i32, align 4
	%z.addr = alloca i32, align 4
	%index.addr = alloca i64, align 8

	call void @llvm.dbg.declare (metadata %struct._Z6FsGridISt5arrayIdLm18EELi2EE** %_T45081936_11197.addr, metadata !4525, metadata !3456), !dbg !4474
	store %struct._Z6FsGridISt5arrayIdLm18EELi2EE* %_T45081936_11197.arg, %struct._Z6FsGridISt5arrayIdLm18EELi2EE** %_T45081936_11197.addr, align 8, !tbaa !3551
	call void @llvm.dbg.declare (metadata %struct._Z6FsGridISt5arrayIdLm18EELi2EE** %_T45081936_11197.addr, metadata !4526, metadata !3456), !dbg !4474
	call void @llvm.dbg.declare (metadata i32* %x.addr, metadata !4527, metadata !3456), !dbg !4474
	store i32 %x.arg, i32* %x.addr, align 4, !tbaa !3552
	call void @llvm.dbg.declare (metadata i32* %x.addr, metadata !4528, metadata !3456), !dbg !4474
	call void @llvm.dbg.declare (metadata i32* %y.addr, metadata !4529, metadata !3456), !dbg !4474
	store i32 %y.arg, i32* %y.addr, align 4, !tbaa !3552
	call void @llvm.dbg.declare (metadata i32* %y.addr, metadata !4530, metadata !3456), !dbg !4474
	call void @llvm.dbg.declare (metadata i32* %z.addr, metadata !4531, metadata !3456), !dbg !4474
	store i32 %z.arg, i32* %z.addr, align 4, !tbaa !3552
	call void @llvm.dbg.declare (metadata i32* %z.addr, metadata !4532, metadata !3456), !dbg !4474
	call void @llvm.dbg.declare (metadata i64* %index.addr, metadata !4534, metadata !3456), !dbg !4474
	store i64 0, i64* %index.addr, align 8, !tbaa !3556, !dbg !4533
	%0 = load %struct._Z6FsGridISt5arrayIdLm18EELi2EE*, %struct._Z6FsGridISt5arrayIdLm18EELi2EE** %_T45081936_11197.addr, align 8, !tbaa !3551, !dbg !4535
	%1 = bitcast %struct._Z6FsGridISt5arrayIdLm18EELi2EE*  %0 to i8*, !dbg !4535
	%2 = getelementptr i8, i8*  %1, i64 260, !dbg !4535
	%3 = bitcast i8*  %2 to i32*, !dbg !4535
	%4 = load i32, i32*  %3, align 4, !tbaa !3552, !dbg !4535
	%5 = icmp sle i32  %4, 1, !dbg !4535
	br i1  %5, label %L.B0098, label %L.B1032, !dbg !4535
L.B1032:
	%6 = load i32, i32* %z.addr, align 4, !tbaa !3554, !dbg !4535
	%7 = add i32  %6, 2, !dbg !4535
	%8 = bitcast %struct._Z6FsGridISt5arrayIdLm18EELi2EE*  %0 to i8*, !dbg !4535
	%9 = getelementptr i8, i8*  %8, i64 280, !dbg !4535
	%10 = bitcast i8*  %9 to i32*, !dbg !4535
	%11 = load i32, i32*  %10, align 4, !tbaa !3552, !dbg !4535
	%12 = getelementptr i8, i8*  %8, i64 276, !dbg !4535
	%13 = bitcast i8*  %12 to i32*, !dbg !4535
	%14 = load i32, i32*  %13, align 4, !tbaa !3552, !dbg !4535
	%15 = mul i32  %11,  %14, !dbg !4535
	%16 = mul i32  %7,  %15, !dbg !4535
	%17 = sext i32  %16 to i64, !dbg !4535
	store i64  %17, i64* %index.addr, align 8, !tbaa !3556, !dbg !4535
	br label %L.B0098
L.B0098:
	%18 = load %struct._Z6FsGridISt5arrayIdLm18EELi2EE*, %struct._Z6FsGridISt5arrayIdLm18EELi2EE** %_T45081936_11197.addr, align 8, !tbaa !3551, !dbg !4535
	%19 = bitcast %struct._Z6FsGridISt5arrayIdLm18EELi2EE*  %18 to i8*, !dbg !4535
	%20 = getelementptr i8, i8*  %19, i64 256, !dbg !4535
	%21 = bitcast i8*  %20 to i32*, !dbg !4535
	%22 = load i32, i32*  %21, align 4, !tbaa !3552, !dbg !4535
	%23 = icmp sle i32  %22, 1, !dbg !4535
	br i1  %23, label %L.B0099, label %L.B1033, !dbg !4535
L.B1033:
	%24 = load i64, i64* %index.addr, align 8, !tbaa !3556, !dbg !4535
	%25 = load i32, i32* %y.addr, align 4, !tbaa !3554, !dbg !4535
	%26 = add i32  %25, 2, !dbg !4535
	%27 = bitcast %struct._Z6FsGridISt5arrayIdLm18EELi2EE*  %18 to i8*, !dbg !4535
	%28 = getelementptr i8, i8*  %27, i64 276, !dbg !4535
	%29 = bitcast i8*  %28 to i32*, !dbg !4535
	%30 = load i32, i32*  %29, align 4, !tbaa !3552, !dbg !4535
	%31 = mul i32  %26,  %30, !dbg !4535
	%32 = sext i32  %31 to i64, !dbg !4535
	%33 = add i64  %24,  %32, !dbg !4535
	store i64  %33, i64* %index.addr, align 8, !tbaa !3556, !dbg !4535
	br label %L.B0099
L.B0099:
	%34 = load %struct._Z6FsGridISt5arrayIdLm18EELi2EE*, %struct._Z6FsGridISt5arrayIdLm18EELi2EE** %_T45081936_11197.addr, align 8, !tbaa !3551, !dbg !4535
	%35 = bitcast %struct._Z6FsGridISt5arrayIdLm18EELi2EE*  %34 to i8*, !dbg !4535
	%36 = getelementptr i8, i8*  %35, i64 252, !dbg !4535
	%37 = bitcast i8*  %36 to i32*, !dbg !4535
	%38 = load i32, i32*  %37, align 4, !tbaa !3552, !dbg !4535
	%39 = icmp sle i32  %38, 1, !dbg !4535
	%40 = zext i1  %39 to i32, !dbg !4535
	%41 = trunc i32  %40 to i1, !dbg !4535
	%42 = load i64, i64* %index.addr, align 8, !tbaa !3556, !dbg !4535
	%43 = load i32, i32* %x.addr, align 4, !tbaa !3554, !dbg !4535
	%44 = sext i32  %43 to i64, !dbg !4535
	%45 = add i64  %44, 2, !dbg !4535
	%46 = add i64  %42,  %45, !dbg !4535
	%47 = select i1  %41, i64  %42, i64  %46, !dbg !4535
	ret i64  %47, !dbg !4536
}
define linkonce_odr %struct._ZSt5arrayIiLm3EE* @_ZN6FsGridISt5arrayIdLm18EELi2EE12getLocalSizeEv(%struct._Z6FsGridISt5arrayIdLm18EELi2EE* %_T45080648_11198.arg) #0 inlinehint !dbg !4542 {
L.entry:
	%_T45080648_11198.addr = alloca %struct._Z6FsGridISt5arrayIdLm18EELi2EE*, align 8

	call void @llvm.dbg.declare (metadata %struct._Z6FsGridISt5arrayIdLm18EELi2EE** %_T45080648_11198.addr, metadata !4546, metadata !3456), !dbg !4543
	store %struct._Z6FsGridISt5arrayIdLm18EELi2EE* %_T45080648_11198.arg, %struct._Z6FsGridISt5arrayIdLm18EELi2EE** %_T45080648_11198.addr, align 8, !tbaa !3551
	call void @llvm.dbg.declare (metadata %struct._Z6FsGridISt5arrayIdLm18EELi2EE** %_T45080648_11198.addr, metadata !4547, metadata !3456), !dbg !4543
	%0 = load %struct._Z6FsGridISt5arrayIdLm18EELi2EE*, %struct._Z6FsGridISt5arrayIdLm18EELi2EE** %_T45080648_11198.addr, align 8, !tbaa !3551, !dbg !4548
	%1 = bitcast %struct._Z6FsGridISt5arrayIdLm18EELi2EE*  %0 to i8*, !dbg !4548
	%2 = getelementptr i8, i8*  %1, i64 264, !dbg !4548
	%3 = bitcast i8*  %2 to %struct._ZSt5arrayIiLm3EE*, !dbg !4548
	ret %struct._ZSt5arrayIiLm3EE*  %3, !dbg !4548
}
define linkonce_odr %struct._ZSt5arrayIdLm18EE* @_ZN6FsGridISt5arrayIdLm18EELi2EE3getEiii(%struct._Z6FsGridISt5arrayIdLm18EELi2EE* %_T45542592_11199.arg, i32 signext %x.arg, i32 signext %y.arg, i32 signext %z.arg) #0 inlinehint !dbg !4553 {
L.entry:
	%_T45542592_11199.addr = alloca %struct._Z6FsGridISt5arrayIdLm18EELi2EE*, align 8
	%x.addr = alloca i32, align 4
	%y.addr = alloca i32, align 4
	%z.addr = alloca i32, align 4
	%isInNeighbourDomain.addr = alloca i32, align 4
	%coord_shift.addr = alloca [3 x i32], align 4
	%..inline.addr = alloca %struct._Z6FsGridISt5arrayIdLm18EELi2EE*, align 8
	%..inline.addr.1 = alloca i64, align 8

	call void @llvm.dbg.declare (metadata %struct._Z6FsGridISt5arrayIdLm18EELi2EE** %_T45542592_11199.addr, metadata !4677, metadata !3456), !dbg !4554
	store %struct._Z6FsGridISt5arrayIdLm18EELi2EE* %_T45542592_11199.arg, %struct._Z6FsGridISt5arrayIdLm18EELi2EE** %_T45542592_11199.addr, align 8, !tbaa !3551
	call void @llvm.dbg.declare (metadata %struct._Z6FsGridISt5arrayIdLm18EELi2EE** %_T45542592_11199.addr, metadata !4678, metadata !3456), !dbg !4554
	call void @llvm.dbg.declare (metadata i32* %x.addr, metadata !4679, metadata !3456), !dbg !4554
	store i32 %x.arg, i32* %x.addr, align 4, !tbaa !3552
	call void @llvm.dbg.declare (metadata i32* %x.addr, metadata !4680, metadata !3456), !dbg !4554
	call void @llvm.dbg.declare (metadata i32* %y.addr, metadata !4681, metadata !3456), !dbg !4554
	store i32 %y.arg, i32* %y.addr, align 4, !tbaa !3552
	call void @llvm.dbg.declare (metadata i32* %y.addr, metadata !4682, metadata !3456), !dbg !4554
	call void @llvm.dbg.declare (metadata i32* %z.addr, metadata !4683, metadata !3456), !dbg !4554
	store i32 %z.arg, i32* %z.addr, align 4, !tbaa !3552
	call void @llvm.dbg.declare (metadata i32* %z.addr, metadata !4684, metadata !3456), !dbg !4554
	call void @llvm.dbg.declare (metadata i32* %isInNeighbourDomain.addr, metadata !4686, metadata !3456), !dbg !4554
	store i32 13, i32* %isInNeighbourDomain.addr, align 4, !tbaa !3554, !dbg !4685
	call void @llvm.dbg.declare (metadata [3 x i32]* %coord_shift.addr, metadata !4688, metadata !3456), !dbg !4554
	%0 = bitcast [3 x i32]* %coord_shift.addr to i32*, !dbg !4687
	store i32 0, i32*  %0, align 4, !tbaa !3552, !dbg !4687
	%1 = bitcast [3 x i32]* %coord_shift.addr to i8*, !dbg !4687
	%2 = getelementptr i8, i8*  %1, i64 4, !dbg !4687
	%3 = bitcast i8*  %2 to i32*, !dbg !4687
	store i32 0, i32*  %3, align 4, !tbaa !3552, !dbg !4687
	%4 = getelementptr i8, i8*  %1, i64 8, !dbg !4687
	%5 = bitcast i8*  %4 to i32*, !dbg !4687
	store i32 0, i32*  %5, align 4, !tbaa !3552, !dbg !4687
	%6 = load i32, i32* %x.addr, align 4, !tbaa !3554, !dbg !4689
	%7 = icmp sge i32  %6, 0, !dbg !4689
	br i1  %7, label %L.B0101, label %L.B1054, !dbg !4689
L.B1054:
	store i32 4, i32* %isInNeighbourDomain.addr, align 4, !tbaa !3554, !dbg !4690
	%8 = bitcast [3 x i32]* %coord_shift.addr to i32*, !dbg !4691
	store i32 1, i32*  %8, align 4, !tbaa !3552, !dbg !4691
	br label %L.B0101
L.B0101:
	%9 = load i32, i32* %x.addr, align 4, !tbaa !3554, !dbg !4692
	%10 = load %struct._Z6FsGridISt5arrayIdLm18EELi2EE*, %struct._Z6FsGridISt5arrayIdLm18EELi2EE** %_T45542592_11199.addr, align 8, !tbaa !3551, !dbg !4692
	%11 = bitcast %struct._Z6FsGridISt5arrayIdLm18EELi2EE*  %10 to i8*, !dbg !4692
	%12 = getelementptr i8, i8*  %11, i64 264, !dbg !4692
	%13 = bitcast i8*  %12 to i32*, !dbg !4692
	%14 = load i32, i32*  %13, align 4, !tbaa !3552, !dbg !4692
	%15 = icmp slt i32  %9,  %14, !dbg !4692
	br i1  %15, label %L.B0102, label %L.B1055, !dbg !4692
L.B1055:
	%16 = load i32, i32* %isInNeighbourDomain.addr, align 4, !tbaa !3554, !dbg !4693
	%17 = add i32  %16, 9, !dbg !4693
	store i32  %17, i32* %isInNeighbourDomain.addr, align 4, !tbaa !3554, !dbg !4693
	%18 = bitcast [3 x i32]* %coord_shift.addr to i32*, !dbg !4694
	store i32 -1, i32*  %18, align 4, !tbaa !3552, !dbg !4694
	br label %L.B0102
L.B0102:
	%19 = load i32, i32* %y.addr, align 4, !tbaa !3554, !dbg !4695
	%20 = icmp sge i32  %19, 0, !dbg !4695
	br i1  %20, label %L.B0103, label %L.B1056, !dbg !4695
L.B1056:
	%21 = load i32, i32* %isInNeighbourDomain.addr, align 4, !tbaa !3554, !dbg !4696
	%22 = sub i32  %21, 3, !dbg !4696
	store i32  %22, i32* %isInNeighbourDomain.addr, align 4, !tbaa !3554, !dbg !4696
	%23 = bitcast [3 x i32]* %coord_shift.addr to i8*, !dbg !4697
	%24 = getelementptr i8, i8*  %23, i64 4, !dbg !4697
	%25 = bitcast i8*  %24 to i32*, !dbg !4697
	store i32 1, i32*  %25, align 4, !tbaa !3552, !dbg !4697
	br label %L.B0103
L.B0103:
	%26 = load i32, i32* %y.addr, align 4, !tbaa !3554, !dbg !4692
	%27 = load %struct._Z6FsGridISt5arrayIdLm18EELi2EE*, %struct._Z6FsGridISt5arrayIdLm18EELi2EE** %_T45542592_11199.addr, align 8, !tbaa !3551, !dbg !4692
	%28 = bitcast %struct._Z6FsGridISt5arrayIdLm18EELi2EE*  %27 to i8*, !dbg !4692
	%29 = getelementptr i8, i8*  %28, i64 268, !dbg !4692
	%30 = bitcast i8*  %29 to i32*, !dbg !4692
	%31 = load i32, i32*  %30, align 4, !tbaa !3552, !dbg !4692
	%32 = icmp slt i32  %26,  %31, !dbg !4692
	br i1  %32, label %L.B0104, label %L.B1057, !dbg !4692
L.B1057:
	%33 = load i32, i32* %isInNeighbourDomain.addr, align 4, !tbaa !3554, !dbg !4698
	%34 = add i32  %33, 3, !dbg !4698
	store i32  %34, i32* %isInNeighbourDomain.addr, align 4, !tbaa !3554, !dbg !4698
	%35 = bitcast [3 x i32]* %coord_shift.addr to i8*, !dbg !4699
	%36 = getelementptr i8, i8*  %35, i64 4, !dbg !4699
	%37 = bitcast i8*  %36 to i32*, !dbg !4699
	store i32 -1, i32*  %37, align 4, !tbaa !3552, !dbg !4699
	br label %L.B0104
L.B0104:
	%38 = load i32, i32* %z.addr, align 4, !tbaa !3554, !dbg !4700
	%39 = icmp sge i32  %38, 0, !dbg !4700
	br i1  %39, label %L.B0105, label %L.B1058, !dbg !4700
L.B1058:
	%40 = load i32, i32* %isInNeighbourDomain.addr, align 4, !tbaa !3554, !dbg !4701
	%41 = sub i32  %40, 1, !dbg !4701
	store i32  %41, i32* %isInNeighbourDomain.addr, align 4, !tbaa !3554, !dbg !4701
	%42 = bitcast [3 x i32]* %coord_shift.addr to i8*, !dbg !4702
	%43 = getelementptr i8, i8*  %42, i64 8, !dbg !4702
	%44 = bitcast i8*  %43 to i32*, !dbg !4702
	store i32 1, i32*  %44, align 4, !tbaa !3552, !dbg !4702
	br label %L.B0105
L.B0105:
	%45 = load i32, i32* %z.addr, align 4, !tbaa !3554, !dbg !4692
	%46 = load %struct._Z6FsGridISt5arrayIdLm18EELi2EE*, %struct._Z6FsGridISt5arrayIdLm18EELi2EE** %_T45542592_11199.addr, align 8, !tbaa !3551, !dbg !4692
	%47 = bitcast %struct._Z6FsGridISt5arrayIdLm18EELi2EE*  %46 to i8*, !dbg !4692
	%48 = getelementptr i8, i8*  %47, i64 272, !dbg !4692
	%49 = bitcast i8*  %48 to i32*, !dbg !4692
	%50 = load i32, i32*  %49, align 4, !tbaa !3552, !dbg !4692
	%51 = icmp slt i32  %45,  %50, !dbg !4692
	br i1  %51, label %L.B0106, label %L.B1059, !dbg !4692
L.B1059:
	%52 = load i32, i32* %isInNeighbourDomain.addr, align 4, !tbaa !3554, !dbg !4703
	%53 = add i32  %52, 1, !dbg !4703
	store i32  %53, i32* %isInNeighbourDomain.addr, align 4, !tbaa !3554, !dbg !4703
	%54 = bitcast [3 x i32]* %coord_shift.addr to i8*, !dbg !4704
	%55 = getelementptr i8, i8*  %54, i64 8, !dbg !4704
	%56 = bitcast i8*  %55 to i32*, !dbg !4704
	store i32 -1, i32*  %56, align 4, !tbaa !3552, !dbg !4704
	br label %L.B0106
L.B0106:
	%57 = load i32, i32* %isInNeighbourDomain.addr, align 4, !tbaa !3554, !dbg !4705
	%58 = icmp eq i32  %57, 13, !dbg !4705
	br i1  %58, label %L.B0107, label %L.B1060, !dbg !4705
L.B1060:
	%59 = sext i32  %57 to i64, !dbg !4692
	%60 = load %struct._Z6FsGridISt5arrayIdLm18EELi2EE*, %struct._Z6FsGridISt5arrayIdLm18EELi2EE** %_T45542592_11199.addr, align 8, !tbaa !3551, !dbg !4692
	%61 = bitcast %struct._Z6FsGridISt5arrayIdLm18EELi2EE*  %60 to i8*, !dbg !4692
	%62 = getelementptr i8, i8*  %61, i64 92, !dbg !4692
	%63 = bitcast i8*  %62 to i32*, !dbg !4692
	%64 = getelementptr i32, i32*  %63, i64  %59, !dbg !4692
	%65 = load i32, i32*  %64, align 4, !tbaa !3552, !dbg !4692
	%66 = icmp ne i32  %65, -2, !dbg !4692
	br i1  %66, label %L.B0108, label %L.B1061, !dbg !4692
L.B1061:
	ret %struct._ZSt5arrayIdLm18EE*  null, !dbg !4706
L.B1062:
	br label %L.R0009, !dbg !4706
L.B0108:
	%67 = load i32, i32* %isInNeighbourDomain.addr, align 4, !tbaa !3554, !dbg !4692
	%68 = sext i32  %67 to i64, !dbg !4692
	%69 = load %struct._Z6FsGridISt5arrayIdLm18EELi2EE*, %struct._Z6FsGridISt5arrayIdLm18EELi2EE** %_T45542592_11199.addr, align 8, !tbaa !3551, !dbg !4692
	%70 = bitcast %struct._Z6FsGridISt5arrayIdLm18EELi2EE*  %69 to i8*, !dbg !4692
	%71 = getelementptr i8, i8*  %70, i64 92, !dbg !4692
	%72 = bitcast i8*  %71 to i32*, !dbg !4692
	%73 = getelementptr i32, i32*  %72, i64  %68, !dbg !4692
	%74 = load i32, i32*  %73, align 4, !tbaa !3552, !dbg !4692
	%75 = getelementptr i8, i8*  %70, i64 56, !dbg !4692
	%76 = bitcast i8*  %75 to i32*, !dbg !4692
	%77 = load i32, i32*  %76, align 4, !tbaa !3552, !dbg !4692
	%78 = icmp ne i32  %74,  %77, !dbg !4692
	br i1  %78, label %L.B0110, label %L.B1063, !dbg !4692
L.B1063:
	%79 = load i32, i32* %x.addr, align 4, !tbaa !3554, !dbg !4692
	%80 = bitcast [3 x i32]* %coord_shift.addr to i32*, !dbg !4692
	%81 = load i32, i32*  %80, align 4, !tbaa !3552, !dbg !4692
	%82 = bitcast %struct._Z6FsGridISt5arrayIdLm18EELi2EE*  %69 to i8*, !dbg !4692
	%83 = getelementptr i8, i8*  %82, i64 264, !dbg !4692
	%84 = bitcast i8*  %83 to i32*, !dbg !4692
	%85 = load i32, i32*  %84, align 4, !tbaa !3552, !dbg !4692
	%86 = mul i32  %81,  %85, !dbg !4692
	%87 = add i32  %79,  %86, !dbg !4692
	store i32  %87, i32* %x.addr, align 4, !tbaa !3554, !dbg !4692
	%88 = load i32, i32* %y.addr, align 4, !tbaa !3554, !dbg !4692
	%89 = bitcast [3 x i32]* %coord_shift.addr to i8*, !dbg !4692
	%90 = getelementptr i8, i8*  %89, i64 4, !dbg !4692
	%91 = bitcast i8*  %90 to i32*, !dbg !4692
	%92 = load i32, i32*  %91, align 4, !tbaa !3552, !dbg !4692
	%93 = getelementptr i8, i8*  %82, i64 268, !dbg !4692
	%94 = bitcast i8*  %93 to i32*, !dbg !4692
	%95 = load i32, i32*  %94, align 4, !tbaa !3552, !dbg !4692
	%96 = mul i32  %92,  %95, !dbg !4692
	%97 = add i32  %88,  %96, !dbg !4692
	store i32  %97, i32* %y.addr, align 4, !tbaa !3554, !dbg !4692
	%98 = load i32, i32* %z.addr, align 4, !tbaa !3554, !dbg !4692
	%99 = getelementptr i8, i8*  %89, i64 8, !dbg !4692
	%100 = bitcast i8*  %99 to i32*, !dbg !4692
	%101 = load i32, i32*  %100, align 4, !tbaa !3552, !dbg !4692
	%102 = getelementptr i8, i8*  %82, i64 272, !dbg !4692
	%103 = bitcast i8*  %102 to i32*, !dbg !4692
	%104 = load i32, i32*  %103, align 4, !tbaa !3552, !dbg !4692
	%105 = mul i32  %101,  %104, !dbg !4692
	%106 = add i32  %98,  %105, !dbg !4692
	store i32  %106, i32* %z.addr, align 4, !tbaa !3554, !dbg !4692
	br label %L.B0110
L.B0110:
	br label %L.B0107
L.B0107:
	%107 = load %struct._Z6FsGridISt5arrayIdLm18EELi2EE*, %struct._Z6FsGridISt5arrayIdLm18EELi2EE** %_T45542592_11199.addr, align 8, !tbaa !3551, !dbg !4707
	%108 = bitcast %struct._Z6FsGridISt5arrayIdLm18EELi2EE*  %107 to i8*, !dbg !4707
	%109 = bitcast %struct._Z6FsGridISt5arrayIdLm18EELi2EE** %..inline.addr to i8**, !dbg !4707
	store i8*  %108, i8**  %109, align 8, !tbaa !3551, !dbg !4707
	store i64 0, i64* %..inline.addr.1, align 8, !tbaa !3556, !dbg !4707
	%110 = load %struct._Z6FsGridISt5arrayIdLm18EELi2EE*, %struct._Z6FsGridISt5arrayIdLm18EELi2EE** %..inline.addr, align 8, !tbaa !3551, !dbg !4708
	%111 = bitcast %struct._Z6FsGridISt5arrayIdLm18EELi2EE*  %110 to i8*, !dbg !4708
	%112 = getelementptr i8, i8*  %111, i64 260, !dbg !4708
	%113 = bitcast i8*  %112 to i32*, !dbg !4708
	%114 = load i32, i32*  %113, align 4, !tbaa !3552, !dbg !4708
	%115 = icmp sle i32  %114, 1, !dbg !4708
	br i1  %115, label %L..inline.27335, label %L.B1064, !dbg !4708
L.B1064:
	%116 = bitcast %struct._Z6FsGridISt5arrayIdLm18EELi2EE*  %107 to i8*, !dbg !4709
	%117 = getelementptr i8, i8*  %116, i64 280, !dbg !4709
	%118 = bitcast i8*  %117 to i32*, !dbg !4709
	%119 = load i32, i32*  %118, align 4, !tbaa !3552, !dbg !4709
	%120 = getelementptr i8, i8*  %116, i64 276, !dbg !4709
	%121 = bitcast i8*  %120 to i32*, !dbg !4709
	%122 = load i32, i32*  %121, align 4, !tbaa !3552, !dbg !4709
	%123 = mul i32  %119,  %122, !dbg !4709
	%124 = load i32, i32* %z.addr, align 4, !tbaa !3554, !dbg !4709
	%125 = add i32  %124, 2, !dbg !4709
	%126 = mul i32  %123,  %125, !dbg !4709
	%127 = sext i32  %126 to i64, !dbg !4709
	store i64  %127, i64* %..inline.addr.1, align 8, !tbaa !3556, !dbg !4709
	br label %L..inline.27335
L..inline.27335:
	%128 = load %struct._Z6FsGridISt5arrayIdLm18EELi2EE*, %struct._Z6FsGridISt5arrayIdLm18EELi2EE** %..inline.addr, align 8, !tbaa !3551, !dbg !4710
	%129 = bitcast %struct._Z6FsGridISt5arrayIdLm18EELi2EE*  %128 to i8*, !dbg !4710
	%130 = getelementptr i8, i8*  %129, i64 256, !dbg !4710
	%131 = bitcast i8*  %130 to i32*, !dbg !4710
	%132 = load i32, i32*  %131, align 4, !tbaa !3552, !dbg !4710
	%133 = icmp sle i32  %132, 1, !dbg !4710
	br i1  %133, label %L..inline.27385, label %L.B1065, !dbg !4710
L.B1065:
	%134 = load %struct._Z6FsGridISt5arrayIdLm18EELi2EE*, %struct._Z6FsGridISt5arrayIdLm18EELi2EE** %_T45542592_11199.addr, align 8, !tbaa !3551, !dbg !4711
	%135 = bitcast %struct._Z6FsGridISt5arrayIdLm18EELi2EE*  %134 to i8*, !dbg !4711
	%136 = getelementptr i8, i8*  %135, i64 276, !dbg !4711
	%137 = bitcast i8*  %136 to i32*, !dbg !4711
	%138 = load i32, i32*  %137, align 4, !tbaa !3552, !dbg !4711
	%139 = load i32, i32* %y.addr, align 4, !tbaa !3554, !dbg !4711
	%140 = add i32  %139, 2, !dbg !4711
	%141 = mul i32  %138,  %140, !dbg !4711
	%142 = sext i32  %141 to i64, !dbg !4711
	%143 = load i64, i64* %..inline.addr.1, align 8, !tbaa !3556, !dbg !4711
	%144 = add i64  %142,  %143, !dbg !4711
	store i64  %144, i64* %..inline.addr.1, align 8, !tbaa !3556, !dbg !4711
	br label %L..inline.27385
L..inline.27385:
	%145 = load %struct._Z6FsGridISt5arrayIdLm18EELi2EE*, %struct._Z6FsGridISt5arrayIdLm18EELi2EE** %..inline.addr, align 8, !tbaa !3551, !dbg !4712
	%146 = bitcast %struct._Z6FsGridISt5arrayIdLm18EELi2EE*  %145 to i8*, !dbg !4712
	%147 = getelementptr i8, i8*  %146, i64 252, !dbg !4712
	%148 = bitcast i8*  %147 to i32*, !dbg !4712
	%149 = load i32, i32*  %148, align 4, !tbaa !3552, !dbg !4712
	%150 = icmp sle i32  %149, 1, !dbg !4712
	%151 = zext i1  %150 to i32, !dbg !4712
	%152 = trunc i32  %151 to i1, !dbg !4712
	%153 = load i64, i64* %..inline.addr.1, align 8, !tbaa !3556, !dbg !4712
	%154 = load i32, i32* %x.addr, align 4, !tbaa !3554, !dbg !4712
	%155 = sext i32  %154 to i64, !dbg !4712
	%156 = add i64  %155, 2, !dbg !4712
	%157 = add i64  %153,  %156, !dbg !4712
	%158 = select i1  %152, i64  %153, i64  %157, !dbg !4712
	%159 = load %struct._Z6FsGridISt5arrayIdLm18EELi2EE*, %struct._Z6FsGridISt5arrayIdLm18EELi2EE** %_T45542592_11199.addr, align 8, !tbaa !3551, !dbg !4713
	%160 = bitcast %struct._Z6FsGridISt5arrayIdLm18EELi2EE*  %159 to i8*, !dbg !4713
	%161 = getelementptr i8, i8*  %160, i64 744, !dbg !4713
	%162 = bitcast i8*  %161 to i8**, !dbg !4713
	%163 = load i8*, i8**  %162, align 8, !tbaa !3551, !dbg !4713
	%164 = mul i64  %158, 144, !dbg !4713
	%165 = getelementptr i8, i8*  %163, i64  %164, !dbg !4713
	%166 = bitcast i8*  %165 to %struct._ZSt5arrayIdLm18EE*, !dbg !4713
	ret %struct._ZSt5arrayIdLm18EE*  %166, !dbg !4713
L.R0009:
	ret %struct._ZSt5arrayIdLm18EE* null
}
define linkonce_odr void @_ZN6FsGridISt5arrayIdLm18EELi2EE17getPhysicalCoordsEiii(%struct._ZSt5arrayIdLm3EE* sret %sretaddr, %struct._Z6FsGridISt5arrayIdLm18EELi2EE* %_T45537624_11200.arg, i32 signext %x.arg, i32 signext %y.arg, i32 signext %z.arg) #0 inlinehint !dbg !4718 {
L.entry:
	%_T45537624_11200.addr = alloca %struct._Z6FsGridISt5arrayIdLm18EELi2EE*, align 8
	%x.addr = alloca i32, align 4
	%y.addr = alloca i32, align 4
	%z.addr = alloca i32, align 4
	%coords.addr = alloca %struct._ZSt5arrayIdLm3EE, align 8
	%_T45539400_11200.addr = alloca %struct._ZSt5arrayIdLm3EE, align 8

	call void @llvm.dbg.declare (metadata %struct._Z6FsGridISt5arrayIdLm18EELi2EE** %_T45537624_11200.addr, metadata !4794, metadata !3456), !dbg !4719
	store %struct._Z6FsGridISt5arrayIdLm18EELi2EE* %_T45537624_11200.arg, %struct._Z6FsGridISt5arrayIdLm18EELi2EE** %_T45537624_11200.addr, align 8, !tbaa !3551
	call void @llvm.dbg.declare (metadata %struct._Z6FsGridISt5arrayIdLm18EELi2EE** %_T45537624_11200.addr, metadata !4795, metadata !3456), !dbg !4719
	call void @llvm.dbg.declare (metadata i32* %x.addr, metadata !4796, metadata !3456), !dbg !4719
	store i32 %x.arg, i32* %x.addr, align 4, !tbaa !3552
	call void @llvm.dbg.declare (metadata i32* %x.addr, metadata !4797, metadata !3456), !dbg !4719
	call void @llvm.dbg.declare (metadata i32* %y.addr, metadata !4798, metadata !3456), !dbg !4719
	store i32 %y.arg, i32* %y.addr, align 4, !tbaa !3552
	call void @llvm.dbg.declare (metadata i32* %y.addr, metadata !4799, metadata !3456), !dbg !4719
	call void @llvm.dbg.declare (metadata i32* %z.addr, metadata !4800, metadata !3456), !dbg !4719
	store i32 %z.arg, i32* %z.addr, align 4, !tbaa !3552
	call void @llvm.dbg.declare (metadata i32* %z.addr, metadata !4801, metadata !3456), !dbg !4719
	%0 = load %struct._Z6FsGridISt5arrayIdLm18EELi2EE*, %struct._Z6FsGridISt5arrayIdLm18EELi2EE** %_T45537624_11200.addr, align 8, !tbaa !3551, !dbg !4802
	%1 = bitcast %struct._Z6FsGridISt5arrayIdLm18EELi2EE*  %0 to double*, !dbg !4802
	%2 = load double, double*  %1, align 8, !tbaa !3552, !dbg !4802
	%3 = load i32, i32* %x.addr, align 4, !tbaa !3554, !dbg !4802
	%4 = bitcast %struct._Z6FsGridISt5arrayIdLm18EELi2EE*  %0 to i8*, !dbg !4802
	%5 = getelementptr i8, i8*  %4, i64 288, !dbg !4802
	%6 = bitcast i8*  %5 to i32*, !dbg !4802
	%7 = load i32, i32*  %6, align 4, !tbaa !3552, !dbg !4802
	%8 = add i32  %3,  %7, !dbg !4802
	%9 = sitofp i32  %8 to double, !dbg !4802
	%10 = getelementptr i8, i8*  %4, i64 24, !dbg !4802
	%11 = bitcast i8*  %10 to double*, !dbg !4802
	%12 = load double, double*  %11, align 8, !tbaa !3552, !dbg !4802
	%13 = call double @llvm.fma.f64 (double  %2, double  %9, double  %12), !dbg !4802
	call void @llvm.dbg.declare (metadata %struct._ZSt5arrayIdLm3EE* %coords.addr, metadata !4803, metadata !3456), !dbg !4719
	%14 = bitcast %struct._ZSt5arrayIdLm3EE* %coords.addr to double*, !dbg !4802
	store double  %13, double*  %14, align 8, !tbaa !3552, !dbg !4802
	%15 = load %struct._Z6FsGridISt5arrayIdLm18EELi2EE*, %struct._Z6FsGridISt5arrayIdLm18EELi2EE** %_T45537624_11200.addr, align 8, !tbaa !3551, !dbg !4802
	%16 = bitcast %struct._Z6FsGridISt5arrayIdLm18EELi2EE*  %15 to i8*, !dbg !4802
	%17 = getelementptr i8, i8*  %16, i64 8, !dbg !4802
	%18 = bitcast i8*  %17 to double*, !dbg !4802
	%19 = load double, double*  %18, align 8, !tbaa !3552, !dbg !4802
	%20 = load i32, i32* %y.addr, align 4, !tbaa !3554, !dbg !4802
	%21 = getelementptr i8, i8*  %16, i64 292, !dbg !4802
	%22 = bitcast i8*  %21 to i32*, !dbg !4802
	%23 = load i32, i32*  %22, align 4, !tbaa !3552, !dbg !4802
	%24 = add i32  %20,  %23, !dbg !4802
	%25 = sitofp i32  %24 to double, !dbg !4802
	%26 = getelementptr i8, i8*  %16, i64 32, !dbg !4802
	%27 = bitcast i8*  %26 to double*, !dbg !4802
	%28 = load double, double*  %27, align 8, !tbaa !3552, !dbg !4802
	%29 = call double @llvm.fma.f64 (double  %19, double  %25, double  %28), !dbg !4802
	%30 = bitcast %struct._ZSt5arrayIdLm3EE* %coords.addr to i8*, !dbg !4802
	%31 = getelementptr i8, i8*  %30, i64 8, !dbg !4802
	%32 = bitcast i8*  %31 to double*, !dbg !4802
	store double  %29, double*  %32, align 8, !tbaa !3552, !dbg !4802
	%33 = getelementptr i8, i8*  %16, i64 16, !dbg !4802
	%34 = bitcast i8*  %33 to double*, !dbg !4802
	%35 = load double, double*  %34, align 8, !tbaa !3552, !dbg !4802
	%36 = load i32, i32* %z.addr, align 4, !tbaa !3554, !dbg !4802
	%37 = getelementptr i8, i8*  %16, i64 296, !dbg !4802
	%38 = bitcast i8*  %37 to i32*, !dbg !4802
	%39 = load i32, i32*  %38, align 4, !tbaa !3552, !dbg !4802
	%40 = add i32  %36,  %39, !dbg !4802
	%41 = sitofp i32  %40 to double, !dbg !4802
	%42 = getelementptr i8, i8*  %16, i64 40, !dbg !4802
	%43 = bitcast i8*  %42 to double*, !dbg !4802
	%44 = load double, double*  %43, align 8, !tbaa !3552, !dbg !4802
	%45 = call double @llvm.fma.f64 (double  %35, double  %41, double  %44), !dbg !4802
	%46 = getelementptr i8, i8*  %30, i64 16, !dbg !4802
	%47 = bitcast i8*  %46 to double*, !dbg !4802
	store double  %45, double*  %47, align 8, !tbaa !3552, !dbg !4802
	%48 = bitcast %struct._ZSt5arrayIdLm3EE* %coords.addr to i64*, !dbg !4804
	%49 = load i64, i64*  %48, align 8, !tbaa !3552, !dbg !4804
	%50 = bitcast %struct._ZSt5arrayIdLm3EE* %_T45539400_11200.addr to i64*, !dbg !4804
	store i64  %49, i64*  %50, align 8, !tbaa !3552, !dbg !4804
	%51 = bitcast i8*  %31 to i64*, !dbg !4804
	%52 = load i64, i64*  %51, align 8, !tbaa !3552, !dbg !4804
	%53 = bitcast %struct._ZSt5arrayIdLm3EE* %_T45539400_11200.addr to i8*, !dbg !4804
	%54 = getelementptr i8, i8*  %53, i64 8, !dbg !4804
	%55 = bitcast i8*  %54 to i64*, !dbg !4804
	store i64  %52, i64*  %55, align 8, !tbaa !3552, !dbg !4804
	%56 = bitcast i8*  %46 to i64*, !dbg !4804
	%57 = load i64, i64*  %56, align 8, !tbaa !3552, !dbg !4804
	%58 = getelementptr i8, i8*  %53, i64 16, !dbg !4804
	%59 = bitcast i8*  %58 to i64*, !dbg !4804
	store i64  %57, i64*  %59, align 8, !tbaa !3552, !dbg !4804
	%60 = load i64, i64*  %50, align 8, !tbaa !3552, !dbg !4804
	%61 = bitcast %struct._ZSt5arrayIdLm3EE* %sretaddr to i64*, !dbg !4804
	store i64  %60, i64*  %61, align 8, !tbaa !3552, !dbg !4804
	%62 = load i64, i64*  %55, align 8, !tbaa !3552, !dbg !4804
	%63 = bitcast %struct._ZSt5arrayIdLm3EE* %sretaddr to i8*, !dbg !4804
	%64 = getelementptr i8, i8*  %63, i64 8, !dbg !4804
	%65 = bitcast i8*  %64 to i64*, !dbg !4804
	store i64  %62, i64*  %65, align 8, !tbaa !3552, !dbg !4804
	%66 = getelementptr i8, i8*  %63, i64 16, !dbg !4804
	%67 = bitcast i8*  %66 to i64*, !dbg !4804
	store i64  %57, i64*  %67, align 8, !tbaa !3552, !dbg !4804
	ret void, !dbg !4804
}
define linkonce_odr i64 @_ZN6FsGridISt5arrayIdLm3EELi2EE16LocalIDForCoordsEiii(%struct._Z6FsGridISt5arrayIdLm3EELi2EE* %_T45538912_11202.arg, i32 signext %x.arg, i32 signext %y.arg, i32 signext %z.arg) #0 inlinehint !dbg !4810 {
L.entry:
	%_T45538912_11202.addr = alloca %struct._Z6FsGridISt5arrayIdLm3EELi2EE*, align 8
	%x.addr = alloca i32, align 4
	%y.addr = alloca i32, align 4
	%z.addr = alloca i32, align 4
	%index.addr = alloca i64, align 8

	call void @llvm.dbg.declare (metadata %struct._Z6FsGridISt5arrayIdLm3EELi2EE** %_T45538912_11202.addr, metadata !4862, metadata !3456), !dbg !4811
	store %struct._Z6FsGridISt5arrayIdLm3EELi2EE* %_T45538912_11202.arg, %struct._Z6FsGridISt5arrayIdLm3EELi2EE** %_T45538912_11202.addr, align 8, !tbaa !3551
	call void @llvm.dbg.declare (metadata %struct._Z6FsGridISt5arrayIdLm3EELi2EE** %_T45538912_11202.addr, metadata !4863, metadata !3456), !dbg !4811
