; ModuleID = 'backgroundfield/constantfield.cpp'
target datalayout = "e-p:64:64-i64:64-f80:128-n8:16:32:64-S128"
target triple = "x86_64-pc-linux-gnu"
define internal void @pgCplus_compiled.() noinline {
L.entry:
	ret void
}

%struct.T3DFunction = type <{ i32 (...)* (...)*}> 



define linkonce_odr void @_ZN11T3DFunctionD1Ev(%struct.T3DFunction* %_T40172472_8096.arg) #0 inlinehint !dbg !1380 {
L.entry:
	%_T40172472_8096.addr = alloca %struct.T3DFunction*, align 8

	call void @llvm.dbg.declare (metadata %struct.T3DFunction** %_T40172472_8096.addr, metadata !1384, metadata !1385), !dbg !1381
	store %struct.T3DFunction* %_T40172472_8096.arg, %struct.T3DFunction** %_T40172472_8096.addr, align 8, !tbaa !1395
	call void @llvm.dbg.declare (metadata %struct.T3DFunction** %_T40172472_8096.addr, metadata !1386, metadata !1385), !dbg !1381
	%0 = bitcast [5 x i32 (...)* (...)*]* @_ZTV11T3DFunction to i8*, !dbg !1387
	%1 = getelementptr i8, i8*  %0, i64 16, !dbg !1387
	%2 = load %struct.T3DFunction*, %struct.T3DFunction** %_T40172472_8096.addr, align 8, !tbaa !1395, !dbg !1387
	%3 = bitcast %struct.T3DFunction*  %2 to i8**, !dbg !1387
	store i8*  %1, i8**  %3, align 8, !tbaa !1395, !dbg !1387
	ret void, !dbg !1387
}
define linkonce_odr void @_ZN11T3DFunctionD0Ev(%struct.T3DFunction* %_T40172472_8097.arg) #0 inlinehint !dbg !1397 {
L.entry:
	%_T40172472_8097.addr = alloca %struct.T3DFunction*, align 8

	store %struct.T3DFunction* %_T40172472_8097.arg, %struct.T3DFunction** %_T40172472_8097.addr, align 8, !tbaa !1395
	%0 = bitcast [5 x i32 (...)* (...)*]* @_ZTV11T3DFunction to i8*, !dbg !1405
	%1 = getelementptr i8, i8*  %0, i64 16, !dbg !1405
	%2 = load %struct.T3DFunction*, %struct.T3DFunction** %_T40172472_8097.addr, align 8, !tbaa !1395, !dbg !1405
	%3 = bitcast %struct.T3DFunction*  %2 to i8**, !dbg !1405
	store i8*  %1, i8**  %3, align 8, !tbaa !1395, !dbg !1405
	%4 = bitcast %struct.T3DFunction*  %2 to i8*, !dbg !1405
	call void  @_ZdlPvm (i8*  %4, i64 8) nounwind, !dbg !1405
	ret void, !dbg !1405
}
define linkonce_odr void @_ZN11T3DFunctionD2Ev(%struct.T3DFunction* %_T40172472_8098.arg) #0 inlinehint !dbg !1407 {
L.entry:
	%_T40172472_8098.addr = alloca %struct.T3DFunction*, align 8

	store %struct.T3DFunction* %_T40172472_8098.arg, %struct.T3DFunction** %_T40172472_8098.addr, align 8, !tbaa !1395
	%0 = bitcast [5 x i32 (...)* (...)*]* @_ZTV11T3DFunction to i8*, !dbg !1415
	%1 = getelementptr i8, i8*  %0, i64 16, !dbg !1415
	%2 = load %struct.T3DFunction*, %struct.T3DFunction** %_T40172472_8098.addr, align 8, !tbaa !1395, !dbg !1415
	%3 = bitcast %struct.T3DFunction*  %2 to i8**, !dbg !1415
	store i8*  %1, i8**  %3, align 8, !tbaa !1395, !dbg !1415
	ret void, !dbg !1415
}

%struct.FieldFunction = type <{ %struct.T3DFunction, i32, i32, i32, [4 x i8]}> 

define linkonce_odr void @_ZN13FieldFunctionD1Ev(%struct.FieldFunction* %_T40172472_8099.arg) #0 inlinehint !dbg !1422 {
L.entry:
	%_T40172472_8099.addr = alloca %struct.FieldFunction*, align 8

	call void @llvm.dbg.declare (metadata %struct.FieldFunction** %_T40172472_8099.addr, metadata !1434, metadata !1385), !dbg !1423
	store %struct.FieldFunction* %_T40172472_8099.arg, %struct.FieldFunction** %_T40172472_8099.addr, align 8, !tbaa !1395
	call void @llvm.dbg.declare (metadata %struct.FieldFunction** %_T40172472_8099.addr, metadata !1435, metadata !1385), !dbg !1423
	%0 = bitcast [5 x i32 (...)* (...)*]* @_ZTV13FieldFunction to i8*, !dbg !1436
	%1 = getelementptr i8, i8*  %0, i64 16, !dbg !1436
	%2 = load %struct.FieldFunction*, %struct.FieldFunction** %_T40172472_8099.addr, align 8, !tbaa !1395, !dbg !1436
	%3 = bitcast %struct.FieldFunction*  %2 to i8**, !dbg !1436
	store i8*  %1, i8**  %3, align 8, !tbaa !1395, !dbg !1436
	%4 = bitcast [5 x i32 (...)* (...)*]* @_ZTV11T3DFunction to i8*, !dbg !1436
	%5 = getelementptr i8, i8*  %4, i64 16, !dbg !1436
	store i8*  %5, i8**  %3, align 8, !tbaa !1395, !dbg !1436
	ret void, !dbg !1436
}
define linkonce_odr void @_ZN13FieldFunctionD0Ev(%struct.FieldFunction* %_T40172472_8100.arg) #0 inlinehint !dbg !1440 {
L.entry:
	%_T40172472_8100.addr = alloca %struct.FieldFunction*, align 8
	%..inline.addr = alloca %struct.FieldFunction*, align 8

	store %struct.FieldFunction* %_T40172472_8100.arg, %struct.FieldFunction** %_T40172472_8100.addr, align 8, !tbaa !1395
	%0 = load %struct.FieldFunction*, %struct.FieldFunction** %_T40172472_8100.addr, align 8, !tbaa !1395, !dbg !1456
	%1 = bitcast %struct.FieldFunction*  %0 to i8*, !dbg !1456
	%2 = bitcast %struct.FieldFunction** %..inline.addr to i8**, !dbg !1456
	store i8*  %1, i8**  %2, align 8, !tbaa !1395, !dbg !1456
	%3 = bitcast [5 x i32 (...)* (...)*]* @_ZTV13FieldFunction to i8*, !dbg !1456
	%4 = getelementptr i8, i8*  %3, i64 16, !dbg !1456
	%5 = load %struct.FieldFunction*, %struct.FieldFunction** %..inline.addr, align 8, !tbaa !1395, !dbg !1456
	%6 = bitcast %struct.FieldFunction*  %5 to i8**, !dbg !1456
	store i8*  %4, i8**  %6, align 8, !tbaa !1395, !dbg !1456
	%7 = bitcast [5 x i32 (...)* (...)*]* @_ZTV11T3DFunction to i8*, !dbg !1456
	%8 = getelementptr i8, i8*  %7, i64 16, !dbg !1456
	store i8*  %8, i8**  %6, align 8, !tbaa !1395, !dbg !1456
	call void  @_ZdlPvm (i8*  %1, i64 24) nounwind, !dbg !1456
	ret void, !dbg !1456
}
define linkonce_odr void @_ZN13FieldFunctionD2Ev(%struct.FieldFunction* %_T40172472_8101.arg) #0 inlinehint !dbg !1458 {
L.entry:
	%_T40172472_8101.addr = alloca %struct.FieldFunction*, align 8
	%..inline.addr = alloca %struct.FieldFunction*, align 8

	store %struct.FieldFunction* %_T40172472_8101.arg, %struct.FieldFunction** %_T40172472_8101.addr, align 8, !tbaa !1395
	%0 = load %struct.FieldFunction*, %struct.FieldFunction** %_T40172472_8101.addr, align 8, !tbaa !1395, !dbg !1474
	%1 = bitcast %struct.FieldFunction*  %0 to i8*, !dbg !1474
	%2 = bitcast %struct.FieldFunction** %..inline.addr to i8**, !dbg !1474
	store i8*  %1, i8**  %2, align 8, !tbaa !1395, !dbg !1474
	%3 = bitcast [5 x i32 (...)* (...)*]* @_ZTV13FieldFunction to i8*, !dbg !1474
	%4 = getelementptr i8, i8*  %3, i64 16, !dbg !1474
	%5 = load %struct.FieldFunction*, %struct.FieldFunction** %..inline.addr, align 8, !tbaa !1395, !dbg !1474
	%6 = bitcast %struct.FieldFunction*  %5 to i8**, !dbg !1474
	store i8*  %4, i8**  %6, align 8, !tbaa !1395, !dbg !1474
	%7 = bitcast [5 x i32 (...)* (...)*]* @_ZTV11T3DFunction to i8*, !dbg !1474
	%8 = getelementptr i8, i8*  %7, i64 16, !dbg !1474
	store i8*  %8, i8**  %6, align 8, !tbaa !1395, !dbg !1474
	ret void, !dbg !1474
}

%struct.ConstantField = type <{ %struct.__SO__13FieldFunction, i8, [3 x i8], [3 x double]}> 
%struct.__SO__13FieldFunction = type <{ %struct.T3DFunction, i32, i32, i32}> 

define linkonce_odr void @_ZN13ConstantFieldD1Ev(%struct.ConstantField* %_T40172472_8102.arg) #0 inlinehint !dbg !1481 {
L.entry:
	%_T40172472_8102.addr = alloca %struct.ConstantField*, align 8
	%..inline.addr = alloca %struct.FieldFunction*, align 8

	call void @llvm.dbg.declare (metadata %struct.ConstantField** %_T40172472_8102.addr, metadata !1501, metadata !1385), !dbg !1482
	store %struct.ConstantField* %_T40172472_8102.arg, %struct.ConstantField** %_T40172472_8102.addr, align 8, !tbaa !1395
	call void @llvm.dbg.declare (metadata %struct.ConstantField** %_T40172472_8102.addr, metadata !1502, metadata !1385), !dbg !1482
	%0 = bitcast [5 x i32 (...)* (...)*]* @_ZTV13ConstantField to i8*, !dbg !1503
	%1 = getelementptr i8, i8*  %0, i64 16, !dbg !1503
	%2 = load %struct.ConstantField*, %struct.ConstantField** %_T40172472_8102.addr, align 8, !tbaa !1395, !dbg !1503
	%3 = bitcast %struct.ConstantField*  %2 to i8**, !dbg !1503
	store i8*  %1, i8**  %3, align 8, !tbaa !1395, !dbg !1503
	%4 = bitcast %struct.ConstantField*  %2 to i8*, !dbg !1503
	%5 = bitcast %struct.FieldFunction** %..inline.addr to i8**, !dbg !1503
	store i8*  %4, i8**  %5, align 8, !tbaa !1395, !dbg !1503
	%6 = bitcast [5 x i32 (...)* (...)*]* @_ZTV13FieldFunction to i8*, !dbg !1503
	%7 = getelementptr i8, i8*  %6, i64 16, !dbg !1503
	%8 = load %struct.FieldFunction*, %struct.FieldFunction** %..inline.addr, align 8, !tbaa !1395, !dbg !1503
	%9 = bitcast %struct.FieldFunction*  %8 to i8**, !dbg !1503
	store i8*  %7, i8**  %9, align 8, !tbaa !1395, !dbg !1503
	%10 = bitcast [5 x i32 (...)* (...)*]* @_ZTV11T3DFunction to i8*, !dbg !1503
	%11 = getelementptr i8, i8*  %10, i64 16, !dbg !1503
	store i8*  %11, i8**  %9, align 8, !tbaa !1395, !dbg !1503
	ret void, !dbg !1503
}
define linkonce_odr void @_ZN13ConstantFieldD0Ev(%struct.ConstantField* %_T40172472_8103.arg) #0 inlinehint !dbg !1507 {
L.entry:
	%_T40172472_8103.addr = alloca %struct.ConstantField*, align 8
	%..inline.addr = alloca %struct.ConstantField*, align 8
	%..inline.addr.1 = alloca %struct.FieldFunction*, align 8

	store %struct.ConstantField* %_T40172472_8103.arg, %struct.ConstantField** %_T40172472_8103.addr, align 8, !tbaa !1395
	%0 = load %struct.ConstantField*, %struct.ConstantField** %_T40172472_8103.addr, align 8, !tbaa !1395, !dbg !1531
	%1 = bitcast %struct.ConstantField*  %0 to i8*, !dbg !1531
	%2 = bitcast %struct.ConstantField** %..inline.addr to i8**, !dbg !1531
	store i8*  %1, i8**  %2, align 8, !tbaa !1395, !dbg !1531
	%3 = bitcast [5 x i32 (...)* (...)*]* @_ZTV13ConstantField to i8*, !dbg !1531
	%4 = getelementptr i8, i8*  %3, i64 16, !dbg !1531
	%5 = load %struct.ConstantField*, %struct.ConstantField** %..inline.addr, align 8, !tbaa !1395, !dbg !1531
	%6 = bitcast %struct.ConstantField*  %5 to i8**, !dbg !1531
	store i8*  %4, i8**  %6, align 8, !tbaa !1395, !dbg !1531
	%7 = bitcast %struct.ConstantField*  %5 to i8*, !dbg !1531
	%8 = bitcast %struct.FieldFunction** %..inline.addr.1 to i8**, !dbg !1531
	store i8*  %7, i8**  %8, align 8, !tbaa !1395, !dbg !1531
	%9 = bitcast [5 x i32 (...)* (...)*]* @_ZTV13FieldFunction to i8*, !dbg !1531
	%10 = getelementptr i8, i8*  %9, i64 16, !dbg !1531
	store i8*  %10, i8**  %6, align 8, !tbaa !1395, !dbg !1531
	%11 = bitcast [5 x i32 (...)* (...)*]* @_ZTV11T3DFunction to i8*, !dbg !1531
	%12 = getelementptr i8, i8*  %11, i64 16, !dbg !1531
	%13 = load %struct.FieldFunction*, %struct.FieldFunction** %..inline.addr.1, align 8, !tbaa !1395, !dbg !1531
	%14 = bitcast %struct.FieldFunction*  %13 to i8**, !dbg !1531
	store i8*  %12, i8**  %14, align 8, !tbaa !1395, !dbg !1531
	call void  @_ZdlPvm (i8*  %1, i64 48) nounwind, !dbg !1531
	ret void, !dbg !1531
}
define linkonce_odr void @_ZN13ConstantFieldD2Ev(%struct.ConstantField* %_T40172472_8104.arg) #0 inlinehint !dbg !1533 {
L.entry:
	%_T40172472_8104.addr = alloca %struct.ConstantField*, align 8
	%..inline.addr = alloca %struct.ConstantField*, align 8
	%..inline.addr.1 = alloca %struct.FieldFunction*, align 8

	store %struct.ConstantField* %_T40172472_8104.arg, %struct.ConstantField** %_T40172472_8104.addr, align 8, !tbaa !1395
	%0 = load %struct.ConstantField*, %struct.ConstantField** %_T40172472_8104.addr, align 8, !tbaa !1395, !dbg !1557
	%1 = bitcast %struct.ConstantField*  %0 to i8*, !dbg !1557
	%2 = bitcast %struct.ConstantField** %..inline.addr to i8**, !dbg !1557
	store i8*  %1, i8**  %2, align 8, !tbaa !1395, !dbg !1557
	%3 = bitcast [5 x i32 (...)* (...)*]* @_ZTV13ConstantField to i8*, !dbg !1557
	%4 = getelementptr i8, i8*  %3, i64 16, !dbg !1557
	%5 = load %struct.ConstantField*, %struct.ConstantField** %..inline.addr, align 8, !tbaa !1395, !dbg !1557
	%6 = bitcast %struct.ConstantField*  %5 to i8**, !dbg !1557
	store i8*  %4, i8**  %6, align 8, !tbaa !1395, !dbg !1557
	%7 = bitcast %struct.ConstantField*  %5 to i8*, !dbg !1557
	%8 = bitcast %struct.FieldFunction** %..inline.addr.1 to i8**, !dbg !1557
	store i8*  %7, i8**  %8, align 8, !tbaa !1395, !dbg !1557
	%9 = bitcast [5 x i32 (...)* (...)*]* @_ZTV13FieldFunction to i8*, !dbg !1557
	%10 = getelementptr i8, i8*  %9, i64 16, !dbg !1557
	store i8*  %10, i8**  %6, align 8, !tbaa !1395, !dbg !1557
	%11 = bitcast [5 x i32 (...)* (...)*]* @_ZTV11T3DFunction to i8*, !dbg !1557
	%12 = getelementptr i8, i8*  %11, i64 16, !dbg !1557
	%13 = load %struct.FieldFunction*, %struct.FieldFunction** %..inline.addr.1, align 8, !tbaa !1395, !dbg !1557
	%14 = bitcast %struct.FieldFunction*  %13 to i8**, !dbg !1557
	store i8*  %12, i8**  %14, align 8, !tbaa !1395, !dbg !1557
	ret void, !dbg !1557
}
define void @_ZN13ConstantField10initializeEddd(%struct.ConstantField* %_T40173208_8105.arg, double %Bx.arg, double %By.arg, double %Bz.arg) #0 inlinehint !dbg !1561 {
L.entry:
	%_T40173208_8105.addr = alloca %struct.ConstantField*, align 8
	%Bx.addr = alloca double, align 8
	%By.addr = alloca double, align 8
	%Bz.addr = alloca double, align 8

	call void @llvm.dbg.declare (metadata %struct.ConstantField** %_T40173208_8105.addr, metadata !1565, metadata !1385), !dbg !1562
	store %struct.ConstantField* %_T40173208_8105.arg, %struct.ConstantField** %_T40173208_8105.addr, align 8, !tbaa !1395
	call void @llvm.dbg.declare (metadata %struct.ConstantField** %_T40173208_8105.addr, metadata !1566, metadata !1385), !dbg !1562
	call void @llvm.dbg.declare (metadata double* %Bx.addr, metadata !1567, metadata !1385), !dbg !1562
	store double %Bx.arg, double* %Bx.addr, align 8, !tbaa !1578
	call void @llvm.dbg.declare (metadata double* %Bx.addr, metadata !1568, metadata !1385), !dbg !1562
	call void @llvm.dbg.declare (metadata double* %By.addr, metadata !1569, metadata !1385), !dbg !1562
	store double %By.arg, double* %By.addr, align 8, !tbaa !1578
	call void @llvm.dbg.declare (metadata double* %By.addr, metadata !1570, metadata !1385), !dbg !1562
	call void @llvm.dbg.declare (metadata double* %Bz.addr, metadata !1571, metadata !1385), !dbg !1562
	store double %Bz.arg, double* %Bz.addr, align 8, !tbaa !1578
	call void @llvm.dbg.declare (metadata double* %Bz.addr, metadata !1572, metadata !1385), !dbg !1562
	%0 = load double, double* %Bx.addr, align 8, !tbaa !1580, !dbg !1573
	%1 = load %struct.ConstantField*, %struct.ConstantField** %_T40173208_8105.addr, align 8, !tbaa !1395, !dbg !1573
	%2 = bitcast %struct.ConstantField*  %1 to i8*, !dbg !1573
	%3 = getelementptr i8, i8*  %2, i64 24, !dbg !1573
	%4 = bitcast i8*  %3 to double*, !dbg !1573
	store double  %0, double*  %4, align 8, !tbaa !1578, !dbg !1573
	%5 = load double, double* %By.addr, align 8, !tbaa !1580, !dbg !1574
	%6 = getelementptr i8, i8*  %2, i64 32, !dbg !1574
	%7 = bitcast i8*  %6 to double*, !dbg !1574
	store double  %5, double*  %7, align 8, !tbaa !1578, !dbg !1574
	%8 = load double, double* %Bz.addr, align 8, !tbaa !1580, !dbg !1575
	%9 = getelementptr i8, i8*  %2, i64 40, !dbg !1575
	%10 = bitcast i8*  %9 to double*, !dbg !1575
	store double  %8, double*  %10, align 8, !tbaa !1578, !dbg !1575
	%11 = getelementptr i8, i8*  %2, i64 20, !dbg !1576
	store i8 1, i8*  %11, align 1, !tbaa !1578, !dbg !1576
	ret void, !dbg !1577
}
define double @_ZNK13ConstantField4callEddd(%struct.ConstantField* %_T40172656_8106.arg, double %_T40172952_8106.arg, double %_T40173248_8106.arg, double %_T40173544_8106.arg) #0 inlinehint !dbg !1584 {
L.entry:
	%_T40172656_8106.addr = alloca %struct.ConstantField*, align 8
	%_T40172952_8106.addr = alloca double, align 8
	%_T40173248_8106.addr = alloca double, align 8
	%_T40173544_8106.addr = alloca double, align 8

	call void @llvm.dbg.declare (metadata %struct.ConstantField** %_T40172656_8106.addr, metadata !1588, metadata !1385), !dbg !1585
	store %struct.ConstantField* %_T40172656_8106.arg, %struct.ConstantField** %_T40172656_8106.addr, align 8, !tbaa !1395
	call void @llvm.dbg.declare (metadata %struct.ConstantField** %_T40172656_8106.addr, metadata !1589, metadata !1385), !dbg !1585
	call void @llvm.dbg.declare (metadata double* %_T40172952_8106.addr, metadata !1590, metadata !1385), !dbg !1585
	store double %_T40172952_8106.arg, double* %_T40172952_8106.addr, align 8, !tbaa !1578
	call void @llvm.dbg.declare (metadata double* %_T40172952_8106.addr, metadata !1591, metadata !1385), !dbg !1585
	call void @llvm.dbg.declare (metadata double* %_T40173248_8106.addr, metadata !1592, metadata !1385), !dbg !1585
	store double %_T40173248_8106.arg, double* %_T40173248_8106.addr, align 8, !tbaa !1578
	call void @llvm.dbg.declare (metadata double* %_T40173248_8106.addr, metadata !1593, metadata !1385), !dbg !1585
	call void @llvm.dbg.declare (metadata double* %_T40173544_8106.addr, metadata !1594, metadata !1385), !dbg !1585
	store double %_T40173544_8106.arg, double* %_T40173544_8106.addr, align 8, !tbaa !1578
	call void @llvm.dbg.declare (metadata double* %_T40173544_8106.addr, metadata !1595, metadata !1385), !dbg !1585
	%0 = load %struct.ConstantField*, %struct.ConstantField** %_T40172656_8106.addr, align 8, !tbaa !1395, !dbg !1596
	%1 = bitcast %struct.ConstantField*  %0 to i8*, !dbg !1596
	%2 = getelementptr i8, i8*  %1, i64 16, !dbg !1596
	%3 = bitcast i8*  %2 to i32*, !dbg !1596
	%4 = load i32, i32*  %3, align 4, !tbaa !1578, !dbg !1596
	%5 = icmp ne i32  %4, 0, !dbg !1596
	br i1  %5, label %L.B0000, label %L.B0036, !dbg !1596
L.B0036:
	%6 = bitcast %struct.ConstantField*  %0 to i8*, !dbg !1597
	%7 = getelementptr i8, i8*  %6, i64 8, !dbg !1597
	%8 = bitcast i8*  %7 to i32*, !dbg !1597
	%9 = load i32, i32*  %8, align 4, !tbaa !1578, !dbg !1597
	%10 = zext i32  %9 to i64, !dbg !1597
	%11 = getelementptr i8, i8*  %6, i64 24, !dbg !1597
	%12 = bitcast i8*  %11 to double*, !dbg !1597
	%13 = getelementptr double, double*  %12, i64  %10, !dbg !1597
	%14 = load double, double*  %13, align 8, !tbaa !1578, !dbg !1597
	ret double  %14, !dbg !1597
L.B0037:
	br label %L.R0010, !dbg !1597
L.B0000:
	ret double  0.00000000000000000E+0, !dbg !1598
L.R0010:
	ret double 0.0
}

%struct._ZNSt8ios_base4InitE = type <{ [1 x i8]}> 

define void @__sti___33_backgroundfield_constantfield_cpp_21141532() #0 inlinehint !dbg !1601 {
L.entry:

	%0 = load i32, i32* @__I___33_backgroundfield_constantfield_cpp_21141532, align 4, !tbaa !1616, !dbg !1605
	%1 = icmp eq i32  %0, 1, !dbg !1605
	br i1  %1, label %L.B0003, label %L.B0038, !dbg !1605
L.B0038:
	store i32 1, i32* @__I___33_backgroundfield_constantfield_cpp_21141532, align 4, !tbaa !1616, !dbg !1605
	call void  @_ZNSt8ios_base4InitC1Ev (%struct._ZNSt8ios_base4InitE* @_ZN55_INTERNAL_33_backgroundfield_constantfield_cpp_21141532St8__ioinitE) nounwind, !dbg !1605
	%2 = bitcast void (%struct._ZNSt8ios_base4InitE*)* @_ZNSt8ios_base4InitD1Ev to void (i8*)*, !dbg !1605
	%3 = bitcast %struct._ZNSt8ios_base4InitE* @_ZN55_INTERNAL_33_backgroundfield_constantfield_cpp_21141532St8__ioinitE to i8*, !dbg !1605
	%4 = bitcast i8** @__dso_handle to i8*, !dbg !1605
	%5 = call i32  @__cxa_atexit (void (i8*)*  %2, i8*  %3, i8*  %4) nounwind, !dbg !1605
	br label %L.B0003
L.B0003:
	ret void, !dbg !1605
}
@_ZTV11T3DFunction = weak unnamed_addr global [5 x i32 (...)* (...)*]  [ i32 (...)* (...)*  null, i32 (...)* (...)*  bitcast (%struct.__class_type_info* @_ZTI11T3DFunction to i32 (...)* (...)*), i32 (...)* (...)*  bitcast (void ()* @__cxa_pure_virtual to i32 (...)* (...)*), i32 (...)* (...)*  bitcast (void (%struct.T3DFunction*)* @_ZN11T3DFunctionD1Ev to i32 (...)* (...)*), i32 (...)* (...)*  bitcast (void (%struct.T3DFunction*)* @_ZN11T3DFunctionD0Ev to i32 (...)* (...)*) ], align 16, !dbg !1392

%struct.__class_type_info = type <{ %struct.__EDG_type_info}> 
%struct.__EDG_type_info = type <{ i32 (...)* (...)*, i8*}> 

@_ZTV13FieldFunction = weak unnamed_addr global [5 x i32 (...)* (...)*]  [ i32 (...)* (...)*  null, i32 (...)* (...)*  bitcast (%struct.__si_class_type_info* @_ZTI13FieldFunction to i32 (...)* (...)*), i32 (...)* (...)*  bitcast (void ()* @__cxa_pure_virtual to i32 (...)* (...)*), i32 (...)* (...)*  bitcast (void (%struct.FieldFunction*)* @_ZN13FieldFunctionD1Ev to i32 (...)* (...)*), i32 (...)* (...)*  bitcast (void (%struct.FieldFunction*)* @_ZN13FieldFunctionD0Ev to i32 (...)* (...)*) ], align 16, !dbg !1438

%struct.__si_class_type_info = type <{ %struct.__class_type_info, %struct.__class_type_info*}> 

@_ZTV13ConstantField = weak unnamed_addr global [5 x i32 (...)* (...)*]  [ i32 (...)* (...)*  null, i32 (...)* (...)*  bitcast (%struct.__si_class_type_info* @_ZTI13ConstantField to i32 (...)* (...)*), i32 (...)* (...)*  bitcast (double (%struct.ConstantField*, double, double, double)* @_ZNK13ConstantField4callEddd to i32 (...)* (...)*), i32 (...)* (...)*  bitcast (void (%struct.ConstantField*)* @_ZN13ConstantFieldD1Ev to i32 (...)* (...)*), i32 (...)* (...)*  bitcast (void (%struct.ConstantField*)* @_ZN13ConstantFieldD0Ev to i32 (...)* (...)*) ], align 16, !dbg !1505
@WID = internal global i32 4, align 4, !dbg !1622
@WID2 = internal global i32 16, align 4, !dbg !1626
@WID3 = internal global i32 64, align 4, !dbg !1628
@_ZTI11T3DFunction = weak unnamed_addr global %struct.__class_type_info  <{ %struct.__EDG_type_info  <{ i32 (...)* (...)*  bitcast (i8* getelementptr(i8, i8* bitcast([0 x i32 (...)* (...)*]* @_ZTVN10__cxxabiv117__class_type_infoE to i8*), i32 16) to i32 (...)* (...)*), i8*  getelementptr(i8, i8* bitcast([14 x i8]* @_ZTS11T3DFunction to i8*), i32 0) }> }>, align 16, !dbg !1618
@_ZTI13FieldFunction = weak unnamed_addr global %struct.__si_class_type_info  <{ %struct.__class_type_info  <{ %struct.__EDG_type_info  <{ i32 (...)* (...)*  bitcast (i8* getelementptr(i8, i8* bitcast([0 x i32 (...)* (...)*]* @_ZTVN10__cxxabiv120__si_class_type_infoE to i8*), i32 16) to i32 (...)* (...)*), i8*  getelementptr(i8, i8* bitcast([16 x i8]* @_ZTS13FieldFunction to i8*), i32 0) }> }>, %struct.__class_type_info*  @_ZTI11T3DFunction }>, align 16, !dbg !1620
@_ZTI13ConstantField = weak unnamed_addr global %struct.__si_class_type_info  <{ %struct.__class_type_info  <{ %struct.__EDG_type_info  <{ i32 (...)* (...)*  bitcast (i8* getelementptr(i8, i8* bitcast([0 x i32 (...)* (...)*]* @_ZTVN10__cxxabiv120__si_class_type_infoE to i8*), i32 16) to i32 (...)* (...)*), i8*  getelementptr(i8, i8* bitcast([16 x i8]* @_ZTS13ConstantField to i8*), i32 0) }> }>, %struct.__class_type_info*  bitcast(i8* getelementptr(i8, i8* bitcast(%struct.__si_class_type_info* @_ZTI13FieldFunction to i8*), i32 0) to %struct.__class_type_info*) }>, align 16, !dbg !1624
@_ZTS11T3DFunction = weak unnamed_addr global [14 x i8]  c"11T3DFunction\00", align 8, !dbg !1636
@_ZTS13FieldFunction = weak unnamed_addr global [16 x i8]  c"13FieldFunction\00", align 16, !dbg !1640
@_ZTS13ConstantField = weak unnamed_addr global [16 x i8]  c"13ConstantField\00", align 16, !dbg !1642
@_ZN55_INTERNAL_33_backgroundfield_constantfield_cpp_211415325vmesh15INVALID_LOCALIDE = internal global i32 -1, align 4, !dbg !1644
@__I___33_backgroundfield_constantfield_cpp_21141532 = global i32 0, align 4, !dbg !1607
@_ZN55_INTERNAL_33_backgroundfield_constantfield_cpp_21141532St8__ioinitE = internal global %struct._ZNSt8ios_base4InitE zeroinitializer , align 1, !dbg !1612
@__dso_handle = external global i8*, align 8
@_ZTVN10__cxxabiv120__si_class_type_infoE = external global [0 x i32 (...)* (...)*], align 8
@_ZTVN10__cxxabiv117__class_type_infoE = external global [0 x i32 (...)* (...)*], align 8
@llvm.global_ctors = appending global [1 x { i32, void ()*, i8* }][{ i32, void ()*, i8* } { i32 65535, void ()* @__sti___33_backgroundfield_constantfield_cpp_21141532, i8* null }]
attributes #0 = { "frame-pointer"="all" }

declare void @__cxa_pure_virtual() #0
declare signext i32 @__cxa_atexit(void (i8*)*, i8*, i8*) #0
declare void @_ZNSt8ios_base4InitD1Ev(%struct._ZNSt8ios_base4InitE*) #0
declare void @_ZNSt8ios_base4InitC1Ev(%struct._ZNSt8ios_base4InitE*) #0
declare void @_ZdlPvm(i8*, i64) #0
declare void @llvm.dbg.declare(metadata, metadata, metadata)
declare i32 @__gxx_personality_v0(...)

; Named metadata
!llvm.module.flags = !{ !1, !2 }
!llvm.dbg.cu = !{ !10 }

; Metadata
!1 = !{ i32 2, !"Dwarf Version", i32 2 }
!2 = !{ i32 2, !"Debug Info Version", i32 3 }
!3 = !DIFile(filename: "backgroundfield/constantfield.cpp", directory: "/home/talgat/vlasiator")
; !4 = !DIFile(tag: DW_TAG_file_type, pair: !3)
!4 = !{ i32 41, !3 }
!5 = !{  }
!6 = !{  }
!7 = !{ !1380, !1397, !1407, !1422, !1440, !1458, !1481, !1507, !1533, !1561, !1584, !1601 }
!8 = !{ !1392, !1438, !1505, !1607, !1612, !1614, !1618, !1620, !1622, !1624, !1626, !1628, !1631, !1636, !1638, !1640, !1642, !1644 }
!9 = !{  }
!10 = distinct !DICompileUnit(file: !3, language: DW_LANG_C_plus_plus, producer: " NVC++ 21.2-0", enums: !5, retainedTypes: !6, globals: !8, emissionKind: FullDebug, imports: !9)
!11 = !DINamespace(scope: !10, name: "std")
!12 = !DINamespace(scope: !11, name: "__cxx11")
!13 = !DINamespace(scope: !11, name: "__exception_ptr")
!14 = !{ !18 }
!15 = !DICompositeType(tag: DW_TAG_class_type, file: !3, scope: !13, name: "exception_ptr", line: 1, size: 64, align: 64, elements: !14, runtimeLang: DW_LANG_C_plus_plus)
!16 = !DIBasicType(tag: DW_TAG_unspecified_type, name: "void")
!17 = !DIDerivedType(tag: DW_TAG_pointer_type, size: 64, align: 64, baseType: !16)
!18 = !DIDerivedType(tag: DW_TAG_member, file: !3, scope: !15, name: "_M_exception_object", line: 1, size: 64, align: 64, baseType: !17)
!19 = !DINamespace(scope: !11, name: "__swappable_details")
!20 = !{  }
!21 = !DICompositeType(tag: DW_TAG_structure_type, file: !3, scope: !19, name: "__do_is_swappable_impl", line: 1, size: 8, align: 8, elements: !20, runtimeLang: DW_LANG_C_plus_plus)
!22 = !{  }
!23 = !DICompositeType(tag: DW_TAG_structure_type, file: !3, scope: !19, name: "__do_is_nothrow_swappable_impl", line: 1, size: 8, align: 8, elements: !22, runtimeLang: DW_LANG_C_plus_plus)
!24 = !DINamespace(scope: !11, name: "__swappable_with_details")
!25 = !{  }
!26 = !DICompositeType(tag: DW_TAG_structure_type, file: !3, scope: !24, name: "__do_is_swappable_with_impl", line: 1, size: 8, align: 8, elements: !25, runtimeLang: DW_LANG_C_plus_plus)
!27 = !{  }
!28 = !DICompositeType(tag: DW_TAG_structure_type, file: !3, scope: !24, name: "__do_is_nothrow_swappable_with_impl", line: 1, size: 8, align: 8, elements: !27, runtimeLang: DW_LANG_C_plus_plus)
!29 = !DINamespace(scope: !11, name: "__debug")
!30 = !DIBasicType(tag: DW_TAG_base_type, name: "unsigned long", size: 64, align: 64, encoding: DW_ATE_unsigned)
!31 = !DIDerivedType(tag: DW_TAG_typedef, file: !3, scope: !11, name: "size_t", line: 1, size: 64, align: 64, baseType: !30)
!32 = !DIBasicType(tag: DW_TAG_base_type, name: "long", size: 64, align: 64, encoding: DW_ATE_signed)
!33 = !DIDerivedType(tag: DW_TAG_typedef, file: !3, scope: !11, name: "ptrdiff_t", line: 1, size: 64, align: 64, baseType: !32)
!34 = !DIDerivedType(tag: DW_TAG_typedef, file: !3, scope: !11, name: "nullptr_t", line: 1, size: 64, align: 64, baseType: !17)
!35 = !{  }
!36 = !DICompositeType(tag: DW_TAG_structure_type, file: !3, scope: !11, name: "__true_type", line: 1, size: 8, align: 8, elements: !35, runtimeLang: DW_LANG_C_plus_plus)
!37 = !{  }
!38 = !DICompositeType(tag: DW_TAG_structure_type, file: !3, scope: !11, name: "__false_type", line: 1, size: 8, align: 8, elements: !37, runtimeLang: DW_LANG_C_plus_plus)
!39 = !{ !46, !47, !55 }
!40 = !DICompositeType(tag: DW_TAG_structure_type, file: !3, name: "_ZNSt7__cxx1112basic_stringIcSt11char_traitsIcESaIcEEE", size: 256, align: 64, elements: !39)
!41 = !{ !45 }
!42 = !DICompositeType(tag: DW_TAG_structure_type, file: !3, name: "_ZNSt7__cxx1112basic_stringIcSt11char_traitsIcESaIcEE12_Alloc_hiderE", size: 64, align: 64, elements: !41)
!43 = !DIBasicType(tag: DW_TAG_base_type, name: "signed char", size: 8, align: 8, encoding: DW_ATE_signed_char)
!44 = !DIDerivedType(tag: DW_TAG_pointer_type, size: 64, align: 64, baseType: !43)
!45 = !DIDerivedType(tag: DW_TAG_member, file: !3, scope: !42, name: "_M_p", size: 64, align: 64, baseType: !44)
!46 = !DIDerivedType(tag: DW_TAG_member, file: !3, scope: !40, name: "_M_dataplus", size: 64, align: 64, baseType: !42)
!47 = !DIDerivedType(tag: DW_TAG_member, file: !3, scope: !40, name: "_M_string_length", size: 64, align: 64, offset: 64, baseType: !30)
!48 = !{ !53, !54 }
!49 = !DICompositeType(tag: DW_TAG_union_type, file: !3, name: "__C5", size: 128, align: 64, elements: !48)
!50 = !DISubrange(count: 16)
!51 = !{ !50 }
!52 = !DICompositeType(tag: DW_TAG_array_type, size: 128, align: 8, baseType: !43, elements: !51)
!53 = !DIDerivedType(tag: DW_TAG_member, file: !3, scope: !49, name: "_M_local_buf", size: 128, align: 8, baseType: !52)
!54 = !DIDerivedType(tag: DW_TAG_member, file: !3, scope: !49, name: "_M_allocated_capacity", size: 64, align: 64, baseType: !30)
!55 = !DIDerivedType(tag: DW_TAG_member, file: !3, scope: !40, size: 128, align: 64, offset: 128, baseType: !49)
!56 = !DIDerivedType(tag: DW_TAG_typedef, file: !3, scope: !11, name: "string", line: 1, size: 256, align: 64, baseType: !40)
!57 = !{ !64, !65, !73 }
!58 = !DICompositeType(tag: DW_TAG_structure_type, file: !3, name: "_ZNSt7__cxx1112basic_stringIwSt11char_traitsIwESaIwEEE", size: 256, align: 64, elements: !57)
!59 = !{ !63 }
!60 = !DICompositeType(tag: DW_TAG_structure_type, file: !3, name: "_ZNSt7__cxx1112basic_stringIwSt11char_traitsIwESaIwEE12_Alloc_hiderE", size: 64, align: 64, elements: !59)
!61 = !DIBasicType(tag: DW_TAG_base_type, name: "int", size: 32, align: 32, encoding: DW_ATE_signed)
!62 = !DIDerivedType(tag: DW_TAG_pointer_type, size: 64, align: 64, baseType: !61)
!63 = !DIDerivedType(tag: DW_TAG_member, file: !3, scope: !60, name: "_M_p", size: 64, align: 64, baseType: !62)
!64 = !DIDerivedType(tag: DW_TAG_member, file: !3, scope: !58, name: "_M_dataplus", size: 64, align: 64, baseType: !60)
!65 = !DIDerivedType(tag: DW_TAG_member, file: !3, scope: !58, name: "_M_string_length", size: 64, align: 64, offset: 64, baseType: !30)
!66 = !{ !71, !72 }
!67 = !DICompositeType(tag: DW_TAG_union_type, file: !3, name: "__C6", size: 128, align: 64, elements: !66)
!68 = !DISubrange(count: 4)
!69 = !{ !68 }
!70 = !DICompositeType(tag: DW_TAG_array_type, size: 128, align: 32, baseType: !61, elements: !69)
!71 = !DIDerivedType(tag: DW_TAG_member, file: !3, scope: !67, name: "_M_local_buf", size: 128, align: 32, baseType: !70)
!72 = !DIDerivedType(tag: DW_TAG_member, file: !3, scope: !67, name: "_M_allocated_capacity", size: 64, align: 64, baseType: !30)
!73 = !DIDerivedType(tag: DW_TAG_member, file: !3, scope: !58, size: 128, align: 64, offset: 128, baseType: !67)
!74 = !DIDerivedType(tag: DW_TAG_typedef, file: !3, scope: !11, name: "wstring", line: 1, size: 256, align: 64, baseType: !58)
!75 = !{ !82, !83, !91 }
!76 = !DICompositeType(tag: DW_TAG_structure_type, file: !3, name: "_ZNSt7__cxx1112basic_stringIDsSt11char_traitsIDsESaIDsEEE", size: 256, align: 64, elements: !75)
!77 = !{ !81 }
!78 = !DICompositeType(tag: DW_TAG_structure_type, file: !3, name: "_ZNSt7__cxx1112basic_stringIDsSt11char_traitsIDsESaIDsEE12_Alloc_hiderE", size: 64, align: 64, elements: !77)
!79 = !DIBasicType(tag: DW_TAG_base_type, name: "unsigned short", size: 16, align: 16, encoding: DW_ATE_unsigned)
!80 = !DIDerivedType(tag: DW_TAG_pointer_type, size: 64, align: 64, baseType: !79)
!81 = !DIDerivedType(tag: DW_TAG_member, file: !3, scope: !78, name: "_M_p", size: 64, align: 64, baseType: !80)
!82 = !DIDerivedType(tag: DW_TAG_member, file: !3, scope: !76, name: "_M_dataplus", size: 64, align: 64, baseType: !78)
!83 = !DIDerivedType(tag: DW_TAG_member, file: !3, scope: !76, name: "_M_string_length", size: 64, align: 64, offset: 64, baseType: !30)
!84 = !{ !89, !90 }
!85 = !DICompositeType(tag: DW_TAG_union_type, file: !3, name: "__C7", size: 128, align: 64, elements: !84)
!86 = !DISubrange(count: 8)
!87 = !{ !86 }
!88 = !DICompositeType(tag: DW_TAG_array_type, size: 128, align: 16, baseType: !79, elements: !87)
!89 = !DIDerivedType(tag: DW_TAG_member, file: !3, scope: !85, name: "_M_local_buf", size: 128, align: 16, baseType: !88)
!90 = !DIDerivedType(tag: DW_TAG_member, file: !3, scope: !85, name: "_M_allocated_capacity", size: 64, align: 64, baseType: !30)
!91 = !DIDerivedType(tag: DW_TAG_member, file: !3, scope: !76, size: 128, align: 64, offset: 128, baseType: !85)
!92 = !DIDerivedType(tag: DW_TAG_typedef, file: !3, scope: !11, name: "u16string", line: 1, size: 256, align: 64, baseType: !76)
!93 = !{ !100, !101, !107 }
!94 = !DICompositeType(tag: DW_TAG_structure_type, file: !3, name: "_ZNSt7__cxx1112basic_stringIDiSt11char_traitsIDiESaIDiEEE", size: 256, align: 64, elements: !93)
!95 = !{ !99 }
!96 = !DICompositeType(tag: DW_TAG_structure_type, file: !3, name: "_ZNSt7__cxx1112basic_stringIDiSt11char_traitsIDiESaIDiEE12_Alloc_hiderE", size: 64, align: 64, elements: !95)
!97 = !DIBasicType(tag: DW_TAG_base_type, name: "unsigned", size: 32, align: 32, encoding: DW_ATE_unsigned)
!98 = !DIDerivedType(tag: DW_TAG_pointer_type, size: 64, align: 64, baseType: !97)
!99 = !DIDerivedType(tag: DW_TAG_member, file: !3, scope: !96, name: "_M_p", size: 64, align: 64, baseType: !98)
!100 = !DIDerivedType(tag: DW_TAG_member, file: !3, scope: !94, name: "_M_dataplus", size: 64, align: 64, baseType: !96)
!101 = !DIDerivedType(tag: DW_TAG_member, file: !3, scope: !94, name: "_M_string_length", size: 64, align: 64, offset: 64, baseType: !30)
!102 = !{ !105, !106 }
!103 = !DICompositeType(tag: DW_TAG_union_type, file: !3, name: "__C8", size: 128, align: 64, elements: !102)
!104 = !DICompositeType(tag: DW_TAG_array_type, size: 128, align: 32, baseType: !97, elements: !69)
!105 = !DIDerivedType(tag: DW_TAG_member, file: !3, scope: !103, name: "_M_local_buf", size: 128, align: 32, baseType: !104)
!106 = !DIDerivedType(tag: DW_TAG_member, file: !3, scope: !103, name: "_M_allocated_capacity", size: 64, align: 64, baseType: !30)
!107 = !DIDerivedType(tag: DW_TAG_member, file: !3, scope: !94, size: 128, align: 64, offset: 128, baseType: !103)
!108 = !DIDerivedType(tag: DW_TAG_typedef, file: !3, scope: !11, name: "u32string", line: 1, size: 256, align: 64, baseType: !94)
!109 = !DIDerivedType(tag: DW_TAG_typedef, file: !3, scope: !11, name: "streamoff", line: 1, size: 64, align: 64, baseType: !32)
!110 = !DIDerivedType(tag: DW_TAG_typedef, file: !3, scope: !11, name: "streamsize", line: 1, size: 64, align: 64, baseType: !32)
!111 = !{  }
!112 = !DICompositeType(tag: DW_TAG_structure_type, file: !3, name: "_ZSt4fposI11__mbstate_tE", align: 8, elements: !111)
!113 = !DIDerivedType(tag: DW_TAG_typedef, file: !3, scope: !11, name: "streampos", line: 1, align: 8, baseType: !112)
!114 = !DIDerivedType(tag: DW_TAG_typedef, file: !3, scope: !11, name: "wstreampos", line: 1, align: 8, baseType: !112)
!115 = !DIDerivedType(tag: DW_TAG_typedef, file: !3, scope: !11, name: "u16streampos", line: 1, align: 8, baseType: !112)
!116 = !DIDerivedType(tag: DW_TAG_typedef, file: !3, scope: !11, name: "u32streampos", line: 1, align: 8, baseType: !112)
!117 = !{ !125, !126, !282 }
!118 = !DICompositeType(tag: DW_TAG_structure_type, file: !3, name: "_ZSi", size: 2240, align: 64, elements: !117)
!119 = !{ !61 }
!120 = !DISubroutineType(types: !119)
!121 = !DIDerivedType(tag: DW_TAG_pointer_type, size: 64, align: 64, baseType: !120)
!122 = !{ !121 }
!123 = !DISubroutineType(types: !122)
!124 = !DIDerivedType(tag: DW_TAG_pointer_type, size: 64, align: 64, baseType: !123)
!125 = !DIDerivedType(tag: DW_TAG_member, file: !3, scope: !118, name: "__vptr", size: 64, align: 64, baseType: !124)
!126 = !DIDerivedType(tag: DW_TAG_member, file: !3, scope: !118, name: "_M_gcount", size: 64, align: 64, offset: 64, baseType: !32)
!127 = !{ !215, !221, !222, !223, !235, !271, !276, !281 }
!128 = !DICompositeType(tag: DW_TAG_structure_type, file: !3, name: "_ZSt9basic_iosIcSt11char_traitsIcEE", size: 2112, align: 64, elements: !127)
!129 = !{ !131, !132, !133, !157, !167, !168, !185, !190, !192, !193, !195, !214 }
!130 = !DICompositeType(tag: DW_TAG_structure_type, file: !3, name: "_ZSt8ios_base", size: 1728, align: 64, elements: !129)
!131 = !DIDerivedType(tag: DW_TAG_member, file: !3, scope: !130, name: "__vptr", size: 64, align: 64, baseType: !124)
!132 = !DIDerivedType(tag: DW_TAG_member, file: !3, scope: !130, name: "_M_precision", size: 64, align: 64, offset: 64, baseType: !32)
!133 = !DIDerivedType(tag: DW_TAG_member, file: !3, scope: !130, name: "_M_width", size: 64, align: 64, offset: 128, baseType: !32)
!134 = !DIEnumerator(name: "_ZSt19_S_ios_fmtflags_min", value: -2147483648)
!135 = !DIEnumerator(name: "_ZSt19_S_ios_fmtflags_max", value: 2147483647)
!136 = !DIEnumerator(name: "_ZSt19_S_ios_fmtflags_end", value: 65536)
!137 = !DIEnumerator(name: "_ZSt13_S_floatfield", value: 260)
!138 = !DIEnumerator(name: "_ZSt12_S_basefield", value: 74)
!139 = !DIEnumerator(name: "_ZSt14_S_adjustfield", value: 176)
!140 = !DIEnumerator(name: "_ZSt12_S_uppercase", value: 16384)
!141 = !DIEnumerator(name: "_ZSt10_S_unitbuf", value: 8192)
!142 = !DIEnumerator(name: "_ZSt9_S_skipws", value: 4096)
!143 = !DIEnumerator(name: "_ZSt10_S_showpos", value: 2048)
!144 = !DIEnumerator(name: "_ZSt12_S_showpoint", value: 1024)
!145 = !DIEnumerator(name: "_ZSt11_S_showbase", value: 512)
!146 = !DIEnumerator(name: "_ZSt13_S_scientific", value: 256)
!147 = !DIEnumerator(name: "_ZSt8_S_right", value: 128)
!148 = !DIEnumerator(name: "_ZSt6_S_oct", value: 64)
!149 = !DIEnumerator(name: "_ZSt7_S_left", value: 32)
!150 = !DIEnumerator(name: "_ZSt11_S_internal", value: 16)
!151 = !DIEnumerator(name: "_ZSt6_S_hex", value: 8)
!152 = !DIEnumerator(name: "_ZSt8_S_fixed", value: 4)
!153 = !DIEnumerator(name: "_ZSt6_S_dec", value: 2)
!154 = !DIEnumerator(name: "_ZSt12_S_boolalpha", value: 1)
!155 = !{ !154, !153, !152, !151, !150, !149, !148, !147, !146, !145, !144, !143, !142, !141, !140, !139, !138, !137, !136, !135, !134 }
!156 = !DICompositeType(tag: DW_TAG_enumeration_type, file: !3, name: "_ZSt13_Ios_Fmtflags", size: 32, align: 32, elements: !155)
!157 = !DIDerivedType(tag: DW_TAG_member, file: !3, scope: !130, name: "_M_flags", size: 32, align: 32, offset: 192, baseType: !156)
!158 = !DIEnumerator(name: "_ZSt18_S_ios_iostate_min", value: -2147483648)
!159 = !DIEnumerator(name: "_ZSt18_S_ios_iostate_max", value: 2147483647)
!160 = !DIEnumerator(name: "_ZSt18_S_ios_iostate_end", value: 65536)
!161 = !DIEnumerator(name: "_ZSt10_S_failbit", value: 4)
!162 = !DIEnumerator(name: "_ZSt9_S_eofbit", value: 2)
!163 = !DIEnumerator(name: "_ZSt9_S_badbit", value: 1)
!164 = !DIEnumerator(name: "_ZSt10_S_goodbit", value: 0)
!165 = !{ !164, !163, !162, !161, !160, !159, !158 }
!166 = !DICompositeType(tag: DW_TAG_enumeration_type, file: !3, name: "_ZSt12_Ios_Iostate", size: 32, align: 32, elements: !165)
!167 = !DIDerivedType(tag: DW_TAG_member, file: !3, scope: !130, name: "_M_exception", size: 32, align: 32, offset: 224, baseType: !166)
!168 = !DIDerivedType(tag: DW_TAG_member, file: !3, scope: !130, name: "_M_streambuf_state", size: 32, align: 32, offset: 256, baseType: !166)
!169 = !{ !172, !182, !183, !184 }
!170 = !DICompositeType(tag: DW_TAG_structure_type, file: !3, name: "_ZNSt8ios_base14_Callback_listE", size: 192, align: 64, elements: !169)
!171 = !DIDerivedType(tag: DW_TAG_pointer_type, size: 64, align: 64, baseType: !170)
!172 = !DIDerivedType(tag: DW_TAG_member, file: !3, scope: !170, name: "_M_next", size: 64, align: 64, baseType: !171)
!173 = !DIEnumerator(name: "_ZNSt8ios_base13copyfmt_eventE", value: 2)
!174 = !DIEnumerator(name: "_ZNSt8ios_base11imbue_eventE", value: 1)
!175 = !DIEnumerator(name: "_ZNSt8ios_base11erase_eventE", value: 0)
!176 = !{ !175, !174, !173 }
!177 = !DICompositeType(tag: DW_TAG_enumeration_type, file: !3, name: "_ZNSt8ios_base5eventE", size: 32, align: 32, elements: !176)
!178 = !DIDerivedType(tag: DW_TAG_pointer_type, size: 64, align: 64, baseType: !130)
!179 = !{ null, !177, !178, !61 }
!180 = !DISubroutineType(types: !179)
!181 = !DIDerivedType(tag: DW_TAG_pointer_type, size: 64, align: 64, baseType: !180)
!182 = !DIDerivedType(tag: DW_TAG_member, file: !3, scope: !170, name: "_M_fn", size: 64, align: 64, offset: 64, baseType: !181)
!183 = !DIDerivedType(tag: DW_TAG_member, file: !3, scope: !170, name: "_M_index", size: 32, align: 32, offset: 128, baseType: !61)
!184 = !DIDerivedType(tag: DW_TAG_member, file: !3, scope: !170, name: "_M_refcount", size: 32, align: 32, offset: 160, baseType: !61)
!185 = !DIDerivedType(tag: DW_TAG_member, file: !3, scope: !130, name: "_M_callbacks", size: 64, align: 64, offset: 320, baseType: !171)
!186 = !{ !188, !189 }
!187 = !DICompositeType(tag: DW_TAG_structure_type, file: !3, name: "_ZNSt8ios_base6_WordsE", size: 128, align: 64, elements: !186)
!188 = !DIDerivedType(tag: DW_TAG_member, file: !3, scope: !187, name: "_M_pword", size: 64, align: 64, baseType: !17)
!189 = !DIDerivedType(tag: DW_TAG_member, file: !3, scope: !187, name: "_M_iword", size: 64, align: 64, offset: 64, baseType: !32)
!190 = !DIDerivedType(tag: DW_TAG_member, file: !3, scope: !130, name: "_M_word_zero", size: 128, align: 64, offset: 384, baseType: !187)
!191 = !DICompositeType(tag: DW_TAG_array_type, size: 1024, align: 64, baseType: !187, elements: !87)
!192 = !DIDerivedType(tag: DW_TAG_member, file: !3, scope: !130, name: "_M_local_word", size: 1024, align: 64, offset: 512, baseType: !191)
!193 = !DIDerivedType(tag: DW_TAG_member, file: !3, scope: !130, name: "_M_word_size", size: 32, align: 32, offset: 1536, baseType: !61)
!194 = !DIDerivedType(tag: DW_TAG_pointer_type, size: 64, align: 64, baseType: !187)
!195 = !DIDerivedType(tag: DW_TAG_member, file: !3, scope: !130, name: "_M_word", size: 64, align: 64, offset: 1600, baseType: !194)
!196 = !{ !213 }
!197 = !DICompositeType(tag: DW_TAG_structure_type, file: !3, name: "_ZSt6locale", size: 64, align: 64, elements: !196)
!198 = !{ !200, !207, !208, !209, !211 }
!199 = !DICompositeType(tag: DW_TAG_structure_type, file: !3, name: "_ZNSt6locale5_ImplE", size: 320, align: 64, elements: !198)
!200 = !DIDerivedType(tag: DW_TAG_member, file: !3, scope: !199, name: "_M_refcount", size: 32, align: 32, baseType: !61)
!201 = !{ !203, !204 }
!202 = !DICompositeType(tag: DW_TAG_structure_type, file: !3, name: "_ZNSt6locale5facetE", size: 128, align: 64, elements: !201)
!203 = !DIDerivedType(tag: DW_TAG_member, file: !3, scope: !202, name: "__vptr", size: 64, align: 64, baseType: !124)
!204 = !DIDerivedType(tag: DW_TAG_member, file: !3, scope: !202, name: "_M_refcount", size: 32, align: 32, offset: 64, baseType: !61)
!205 = !DIDerivedType(tag: DW_TAG_pointer_type, size: 64, align: 64, baseType: !202)
!206 = !DIDerivedType(tag: DW_TAG_pointer_type, size: 64, align: 64, baseType: !205)
!207 = !DIDerivedType(tag: DW_TAG_member, file: !3, scope: !199, name: "_M_facets", size: 64, align: 64, offset: 64, baseType: !206)
!208 = !DIDerivedType(tag: DW_TAG_member, file: !3, scope: !199, name: "_M_facets_size", size: 64, align: 64, offset: 128, baseType: !30)
!209 = !DIDerivedType(tag: DW_TAG_member, file: !3, scope: !199, name: "_M_caches", size: 64, align: 64, offset: 192, baseType: !206)
!210 = !DIDerivedType(tag: DW_TAG_pointer_type, size: 64, align: 64, baseType: !44)
!211 = !DIDerivedType(tag: DW_TAG_member, file: !3, scope: !199, name: "_M_names", size: 64, align: 64, offset: 256, baseType: !210)
!212 = !DIDerivedType(tag: DW_TAG_pointer_type, size: 64, align: 64, baseType: !199)
!213 = !DIDerivedType(tag: DW_TAG_member, file: !3, scope: !197, name: "_M_impl", size: 64, align: 64, baseType: !212)
!214 = !DIDerivedType(tag: DW_TAG_member, file: !3, scope: !130, name: "_M_ios_locale", size: 64, align: 64, offset: 1664, baseType: !197)
!215 = !DIDerivedType(tag: DW_TAG_member, file: !3, scope: !128, name: "__b_St8ios_base", size: 1728, align: 64, baseType: !130)
!216 = !{ !218, !219 }
!217 = !DICompositeType(tag: DW_TAG_structure_type, file: !3, name: "_ZSo", size: 2176, align: 64, elements: !216)
!218 = !DIDerivedType(tag: DW_TAG_member, file: !3, scope: !217, name: "__vptr", size: 64, align: 64, baseType: !124)
!219 = !DIDerivedType(tag: DW_TAG_member, file: !3, scope: !217, name: "__v_St9basic_iosIcSt11char_traitsIcEE", size: 2112, align: 64, offset: 64, baseType: !128)
!220 = !DIDerivedType(tag: DW_TAG_pointer_type, size: 64, align: 64, baseType: !217)
!221 = !DIDerivedType(tag: DW_TAG_member, file: !3, scope: !128, name: "_M_tie", size: 64, align: 64, offset: 1728, baseType: !220)
!222 = !DIDerivedType(tag: DW_TAG_member, file: !3, scope: !128, name: "_M_fill", size: 8, align: 8, offset: 1792, baseType: !43)
!223 = !DIDerivedType(tag: DW_TAG_member, file: !3, scope: !128, name: "_M_fill_init", size: 8, align: 8, offset: 1800, baseType: !43)
!224 = !{ !226, !227, !228, !229, !230, !231, !232, !233 }
!225 = !DICompositeType(tag: DW_TAG_structure_type, file: !3, name: "_ZSt15basic_streambufIcSt11char_traitsIcEE", size: 512, align: 64, elements: !224)
!226 = !DIDerivedType(tag: DW_TAG_member, file: !3, scope: !225, name: "__vptr", size: 64, align: 64, baseType: !124)
!227 = !DIDerivedType(tag: DW_TAG_member, file: !3, scope: !225, name: "_M_in_beg", size: 64, align: 64, offset: 64, baseType: !44)
!228 = !DIDerivedType(tag: DW_TAG_member, file: !3, scope: !225, name: "_M_in_cur", size: 64, align: 64, offset: 128, baseType: !44)
!229 = !DIDerivedType(tag: DW_TAG_member, file: !3, scope: !225, name: "_M_in_end", size: 64, align: 64, offset: 192, baseType: !44)
!230 = !DIDerivedType(tag: DW_TAG_member, file: !3, scope: !225, name: "_M_out_beg", size: 64, align: 64, offset: 256, baseType: !44)
!231 = !DIDerivedType(tag: DW_TAG_member, file: !3, scope: !225, name: "_M_out_cur", size: 64, align: 64, offset: 320, baseType: !44)
!232 = !DIDerivedType(tag: DW_TAG_member, file: !3, scope: !225, name: "_M_out_end", size: 64, align: 64, offset: 384, baseType: !44)
!233 = !DIDerivedType(tag: DW_TAG_member, file: !3, scope: !225, name: "_M_buf_locale", size: 64, align: 64, offset: 448, baseType: !197)
!234 = !DIDerivedType(tag: DW_TAG_pointer_type, size: 64, align: 64, baseType: !225)
!235 = !DIDerivedType(tag: DW_TAG_member, file: !3, scope: !128, name: "_M_streambuf", size: 64, align: 64, offset: 1856, baseType: !234)
!236 = !{ !242, !258, !259, !260, !261, !262, !263, !267, !268, !269 }
!237 = !DICompositeType(tag: DW_TAG_structure_type, file: !3, name: "_ZSt5ctypeIcE", size: 4608, align: 64, elements: !236)
!238 = !{ !240, !241 }
!239 = !DICompositeType(tag: DW_TAG_structure_type, file: !3, name: "__SO__NSt6locale5facetE", size: 96, align: 64, elements: !238)
!240 = !DIDerivedType(tag: DW_TAG_member, file: !3, scope: !239, name: "__vptr", size: 64, align: 64, baseType: !124)
!241 = !DIDerivedType(tag: DW_TAG_member, file: !3, scope: !239, name: "_M_refcount", size: 32, align: 32, offset: 64, baseType: !61)
!242 = !DIDerivedType(tag: DW_TAG_member, file: !3, scope: !237, name: "__b_NSt6locale5facetE", size: 96, align: 64, baseType: !239)
!243 = !{ !251, !252, !253, !254, !256 }
!244 = !DICompositeType(tag: DW_TAG_structure_type, file: !3, name: "__locale_struct", size: 1856, align: 64, elements: !243)
!245 = !DISubrange(count: 13)
!246 = !{  }
!247 = !DICompositeType(tag: DW_TAG_structure_type, file: !3, name: "__locale_data", align: 8, elements: !246)
!248 = !DIDerivedType(tag: DW_TAG_pointer_type, size: 64, align: 64, baseType: !247)
!249 = !{ !245 }
!250 = !DICompositeType(tag: DW_TAG_array_type, size: 832, align: 64, baseType: !248, elements: !249)
!251 = !DIDerivedType(tag: DW_TAG_member, file: !3, scope: !244, name: "__locales", size: 832, align: 64, baseType: !250)
!252 = !DIDerivedType(tag: DW_TAG_member, file: !3, scope: !244, name: "__ctype_b", size: 64, align: 64, offset: 832, baseType: !80)
!253 = !DIDerivedType(tag: DW_TAG_member, file: !3, scope: !244, name: "__ctype_tolower", size: 64, align: 64, offset: 896, baseType: !62)
!254 = !DIDerivedType(tag: DW_TAG_member, file: !3, scope: !244, name: "__ctype_toupper", size: 64, align: 64, offset: 960, baseType: !62)
!255 = !DICompositeType(tag: DW_TAG_array_type, size: 832, align: 64, baseType: !44, elements: !249)
!256 = !DIDerivedType(tag: DW_TAG_member, file: !3, scope: !244, name: "__names", size: 832, align: 64, offset: 1024, baseType: !255)
!257 = !DIDerivedType(tag: DW_TAG_pointer_type, size: 64, align: 64, baseType: !244)
!258 = !DIDerivedType(tag: DW_TAG_member, file: !3, scope: !237, name: "_M_c_locale_ctype", size: 64, align: 64, offset: 128, baseType: !257)
!259 = !DIDerivedType(tag: DW_TAG_member, file: !3, scope: !237, name: "_M_del", size: 8, align: 8, offset: 192, baseType: !43)
!260 = !DIDerivedType(tag: DW_TAG_member, file: !3, scope: !237, name: "_M_toupper", size: 64, align: 64, offset: 256, baseType: !62)
!261 = !DIDerivedType(tag: DW_TAG_member, file: !3, scope: !237, name: "_M_tolower", size: 64, align: 64, offset: 320, baseType: !62)
!262 = !DIDerivedType(tag: DW_TAG_member, file: !3, scope: !237, name: "_M_table", size: 64, align: 64, offset: 384, baseType: !80)
!263 = !DIDerivedType(tag: DW_TAG_member, file: !3, scope: !237, name: "_M_widen_ok", size: 8, align: 8, offset: 448, baseType: !43)
!264 = !DISubrange(count: 256)
!265 = !{ !264 }
!266 = !DICompositeType(tag: DW_TAG_array_type, size: 2048, align: 8, baseType: !43, elements: !265)
!267 = !DIDerivedType(tag: DW_TAG_member, file: !3, scope: !237, name: "_M_widen", size: 2048, align: 8, offset: 456, baseType: !266)
!268 = !DIDerivedType(tag: DW_TAG_member, file: !3, scope: !237, name: "_M_narrow", size: 2048, align: 8, offset: 2504, baseType: !266)
!269 = !DIDerivedType(tag: DW_TAG_member, file: !3, scope: !237, name: "_M_narrow_ok", size: 8, align: 8, offset: 4552, baseType: !43)
!270 = !DIDerivedType(tag: DW_TAG_pointer_type, size: 64, align: 64, baseType: !237)
!271 = !DIDerivedType(tag: DW_TAG_member, file: !3, scope: !128, name: "_M_ctype", size: 64, align: 64, offset: 1920, baseType: !270)
!272 = !{ !274 }
!273 = !DICompositeType(tag: DW_TAG_structure_type, file: !3, name: "_ZSt7num_putIcSt19ostreambuf_iteratorIcSt11char_traitsIcEEE", size: 128, align: 64, elements: !272)
!274 = !DIDerivedType(tag: DW_TAG_member, file: !3, scope: !273, name: "__b_NSt6locale5facetE", size: 96, align: 64, baseType: !239)
!275 = !DIDerivedType(tag: DW_TAG_pointer_type, size: 64, align: 64, baseType: !273)
!276 = !DIDerivedType(tag: DW_TAG_member, file: !3, scope: !128, name: "_M_num_put", size: 64, align: 64, offset: 1984, baseType: !275)
!277 = !{ !279 }
!278 = !DICompositeType(tag: DW_TAG_structure_type, file: !3, name: "_ZSt7num_getIcSt19istreambuf_iteratorIcSt11char_traitsIcEEE", size: 128, align: 64, elements: !277)
!279 = !DIDerivedType(tag: DW_TAG_member, file: !3, scope: !278, name: "__b_NSt6locale5facetE", size: 96, align: 64, baseType: !239)
!280 = !DIDerivedType(tag: DW_TAG_pointer_type, size: 64, align: 64, baseType: !278)
!281 = !DIDerivedType(tag: DW_TAG_member, file: !3, scope: !128, name: "_M_num_get", size: 64, align: 64, offset: 2048, baseType: !280)
!282 = !DIDerivedType(tag: DW_TAG_member, file: !3, scope: !118, name: "__v_St9basic_iosIcSt11char_traitsIcEE", size: 2112, align: 64, offset: 128, baseType: !128)
!283 = !DIDerivedType(tag: DW_TAG_typedef, file: !3, scope: !11, name: "istream", line: 1, size: 2240, align: 64, baseType: !118)
!284 = !DIDerivedType(tag: DW_TAG_typedef, file: !3, scope: !11, name: "ostream", line: 1, size: 2176, align: 64, baseType: !217)
!285 = !{ !287, !288, !342 }
!286 = !DICompositeType(tag: DW_TAG_structure_type, file: !3, name: "_ZSt13basic_istreamIwSt11char_traitsIwEE", size: 2240, align: 64, elements: !285)
!287 = !DIDerivedType(tag: DW_TAG_member, file: !3, scope: !286, name: "__vptr", size: 64, align: 64, baseType: !124)
!288 = !DIDerivedType(tag: DW_TAG_member, file: !3, scope: !286, name: "_M_gcount", size: 64, align: 64, offset: 64, baseType: !32)
!289 = !{ !291, !297, !298, !299, !311, !331, !336, !341 }
!290 = !DICompositeType(tag: DW_TAG_structure_type, file: !3, name: "_ZSt9basic_iosIwSt11char_traitsIwEE", size: 2112, align: 64, elements: !289)
!291 = !DIDerivedType(tag: DW_TAG_member, file: !3, scope: !290, name: "__b_St8ios_base", size: 1728, align: 64, baseType: !130)
!292 = !{ !294, !295 }
!293 = !DICompositeType(tag: DW_TAG_structure_type, file: !3, name: "_ZSt13basic_ostreamIwSt11char_traitsIwEE", size: 2176, align: 64, elements: !292)
!294 = !DIDerivedType(tag: DW_TAG_member, file: !3, scope: !293, name: "__vptr", size: 64, align: 64, baseType: !124)
!295 = !DIDerivedType(tag: DW_TAG_member, file: !3, scope: !293, name: "__v_St9basic_iosIwSt11char_traitsIwEE", size: 2112, align: 64, offset: 64, baseType: !290)
!296 = !DIDerivedType(tag: DW_TAG_pointer_type, size: 64, align: 64, baseType: !293)
!297 = !DIDerivedType(tag: DW_TAG_member, file: !3, scope: !290, name: "_M_tie", size: 64, align: 64, offset: 1728, baseType: !296)
!298 = !DIDerivedType(tag: DW_TAG_member, file: !3, scope: !290, name: "_M_fill", size: 32, align: 32, offset: 1792, baseType: !61)
!299 = !DIDerivedType(tag: DW_TAG_member, file: !3, scope: !290, name: "_M_fill_init", size: 8, align: 8, offset: 1824, baseType: !43)
!300 = !{ !302, !303, !304, !305, !306, !307, !308, !309 }
!301 = !DICompositeType(tag: DW_TAG_structure_type, file: !3, name: "_ZSt15basic_streambufIwSt11char_traitsIwEE", size: 512, align: 64, elements: !300)
!302 = !DIDerivedType(tag: DW_TAG_member, file: !3, scope: !301, name: "__vptr", size: 64, align: 64, baseType: !124)
!303 = !DIDerivedType(tag: DW_TAG_member, file: !3, scope: !301, name: "_M_in_beg", size: 64, align: 64, offset: 64, baseType: !62)
!304 = !DIDerivedType(tag: DW_TAG_member, file: !3, scope: !301, name: "_M_in_cur", size: 64, align: 64, offset: 128, baseType: !62)
!305 = !DIDerivedType(tag: DW_TAG_member, file: !3, scope: !301, name: "_M_in_end", size: 64, align: 64, offset: 192, baseType: !62)
!306 = !DIDerivedType(tag: DW_TAG_member, file: !3, scope: !301, name: "_M_out_beg", size: 64, align: 64, offset: 256, baseType: !62)
!307 = !DIDerivedType(tag: DW_TAG_member, file: !3, scope: !301, name: "_M_out_cur", size: 64, align: 64, offset: 320, baseType: !62)
!308 = !DIDerivedType(tag: DW_TAG_member, file: !3, scope: !301, name: "_M_out_end", size: 64, align: 64, offset: 384, baseType: !62)
!309 = !DIDerivedType(tag: DW_TAG_member, file: !3, scope: !301, name: "_M_buf_locale", size: 64, align: 64, offset: 448, baseType: !197)
!310 = !DIDerivedType(tag: DW_TAG_pointer_type, size: 64, align: 64, baseType: !301)
!311 = !DIDerivedType(tag: DW_TAG_member, file: !3, scope: !290, name: "_M_streambuf", size: 64, align: 64, offset: 1856, baseType: !310)
!312 = !{ !317, !318, !319, !323, !325, !327, !329 }
!313 = !DICompositeType(tag: DW_TAG_structure_type, file: !3, name: "_ZSt5ctypeIwE", size: 10752, align: 64, elements: !312)
!314 = !{ !316 }
!315 = !DICompositeType(tag: DW_TAG_structure_type, file: !3, name: "__SO__St21__ctype_abstract_baseIwE", size: 96, align: 64, elements: !314)
!316 = !DIDerivedType(tag: DW_TAG_member, file: !3, scope: !315, name: "__b_NSt6locale5facetE", size: 96, align: 64, baseType: !239)
!317 = !DIDerivedType(tag: DW_TAG_member, file: !3, scope: !313, name: "__b_St21__ctype_abstract_baseIwE", size: 96, align: 64, baseType: !315)
!318 = !DIDerivedType(tag: DW_TAG_member, file: !3, scope: !313, name: "_M_c_locale_ctype", size: 64, align: 64, offset: 128, baseType: !257)
!319 = !DIDerivedType(tag: DW_TAG_member, file: !3, scope: !313, name: "_M_narrow_ok", size: 8, align: 8, offset: 192, baseType: !43)
!320 = !DISubrange(count: 128)
!321 = !{ !320 }
!322 = !DICompositeType(tag: DW_TAG_array_type, size: 1024, align: 8, baseType: !43, elements: !321)
!323 = !DIDerivedType(tag: DW_TAG_member, file: !3, scope: !313, name: "_M_narrow", size: 1024, align: 8, offset: 200, baseType: !322)
!324 = !DICompositeType(tag: DW_TAG_array_type, size: 8192, align: 32, baseType: !97, elements: !265)
!325 = !DIDerivedType(tag: DW_TAG_member, file: !3, scope: !313, name: "_M_widen", size: 8192, align: 32, offset: 1248, baseType: !324)
!326 = !DICompositeType(tag: DW_TAG_array_type, size: 256, align: 16, baseType: !79, elements: !51)
!327 = !DIDerivedType(tag: DW_TAG_member, file: !3, scope: !313, name: "_M_bit", size: 256, align: 16, offset: 9440, baseType: !326)
!328 = !DICompositeType(tag: DW_TAG_array_type, size: 1024, align: 64, baseType: !30, elements: !51)
!329 = !DIDerivedType(tag: DW_TAG_member, file: !3, scope: !313, name: "_M_wmask", size: 1024, align: 64, offset: 9728, baseType: !328)
!330 = !DIDerivedType(tag: DW_TAG_pointer_type, size: 64, align: 64, baseType: !313)
!331 = !DIDerivedType(tag: DW_TAG_member, file: !3, scope: !290, name: "_M_ctype", size: 64, align: 64, offset: 1920, baseType: !330)
!332 = !{ !334 }
!333 = !DICompositeType(tag: DW_TAG_structure_type, file: !3, name: "_ZSt7num_putIwSt19ostreambuf_iteratorIwSt11char_traitsIwEEE", size: 128, align: 64, elements: !332)
!334 = !DIDerivedType(tag: DW_TAG_member, file: !3, scope: !333, name: "__b_NSt6locale5facetE", size: 96, align: 64, baseType: !239)
!335 = !DIDerivedType(tag: DW_TAG_pointer_type, size: 64, align: 64, baseType: !333)
!336 = !DIDerivedType(tag: DW_TAG_member, file: !3, scope: !290, name: "_M_num_put", size: 64, align: 64, offset: 1984, baseType: !335)
!337 = !{ !339 }
!338 = !DICompositeType(tag: DW_TAG_structure_type, file: !3, name: "_ZSt7num_getIwSt19istreambuf_iteratorIwSt11char_traitsIwEEE", size: 128, align: 64, elements: !337)
!339 = !DIDerivedType(tag: DW_TAG_member, file: !3, scope: !338, name: "__b_NSt6locale5facetE", size: 96, align: 64, baseType: !239)
!340 = !DIDerivedType(tag: DW_TAG_pointer_type, size: 64, align: 64, baseType: !338)
!341 = !DIDerivedType(tag: DW_TAG_member, file: !3, scope: !290, name: "_M_num_get", size: 64, align: 64, offset: 2048, baseType: !340)
!342 = !DIDerivedType(tag: DW_TAG_member, file: !3, scope: !286, name: "__v_St9basic_iosIwSt11char_traitsIwEE", size: 2112, align: 64, offset: 128, baseType: !290)
!343 = !DIDerivedType(tag: DW_TAG_typedef, file: !3, scope: !11, name: "wistream", line: 1, size: 2240, align: 64, baseType: !286)
!344 = !DIDerivedType(tag: DW_TAG_typedef, file: !3, scope: !11, name: "wostream", line: 1, size: 2176, align: 64, baseType: !293)
!345 = !{  }
!346 = !DICompositeType(tag: DW_TAG_class_type, file: !3, scope: !11, name: "exception", line: 1, size: 64, align: 64, elements: !345, runtimeLang: DW_LANG_C_plus_plus)
!347 = !{ !349 }
!348 = !DICompositeType(tag: DW_TAG_class_type, file: !3, scope: !11, name: "bad_exception", line: 1, size: 64, align: 64, elements: !347, runtimeLang: DW_LANG_C_plus_plus)
!349 = !DIDerivedType(tag: DW_TAG_inheritance, file: !3, scope: !348, name: "exception", line: 1, size: 64, align: 64, baseType: !346)
!350 = !{ null }
!351 = !DISubroutineType(types: !350)
!352 = !DIDerivedType(tag: DW_TAG_pointer_type, size: 64, align: 64, baseType: !351)
!353 = !DIDerivedType(tag: DW_TAG_typedef, file: !3, scope: !11, name: "terminate_handler", line: 1, size: 64, align: 64, baseType: !352)
!354 = !DIDerivedType(tag: DW_TAG_typedef, file: !3, scope: !11, name: "unexpected_handler", line: 1, size: 64, align: 64, baseType: !352)
!355 = !{ !357 }
!356 = !DICompositeType(tag: DW_TAG_class_type, file: !3, scope: !11, name: "type_info", line: 1, size: 128, align: 64, elements: !355, runtimeLang: DW_LANG_C_plus_plus)
!357 = !DIDerivedType(tag: DW_TAG_member, file: !3, scope: !356, name: "__name", line: 1, size: 64, align: 64, offset: 64, baseType: !44)
!358 = !{ !360 }
!359 = !DICompositeType(tag: DW_TAG_class_type, file: !3, scope: !11, name: "bad_cast", line: 1, size: 64, align: 64, elements: !358, runtimeLang: DW_LANG_C_plus_plus)
!360 = !DIDerivedType(tag: DW_TAG_inheritance, file: !3, scope: !359, name: "exception", line: 1, size: 64, align: 64, baseType: !346)
!361 = !{ !363 }
!362 = !DICompositeType(tag: DW_TAG_class_type, file: !3, scope: !11, name: "bad_typeid", line: 1, size: 64, align: 64, elements: !361, runtimeLang: DW_LANG_C_plus_plus)
!363 = !DIDerivedType(tag: DW_TAG_inheritance, file: !3, scope: !362, name: "exception", line: 1, size: 64, align: 64, baseType: !346)
!364 = !{ !366 }
!365 = !DICompositeType(tag: DW_TAG_class_type, file: !3, scope: !11, name: "bad_alloc", line: 1, size: 64, align: 64, elements: !364, runtimeLang: DW_LANG_C_plus_plus)
!366 = !DIDerivedType(tag: DW_TAG_inheritance, file: !3, scope: !365, name: "exception", line: 1, size: 64, align: 64, baseType: !346)
!367 = !{ !369 }
!368 = !DICompositeType(tag: DW_TAG_class_type, file: !3, scope: !11, name: "bad_array_new_length", line: 1, size: 64, align: 64, elements: !367, runtimeLang: DW_LANG_C_plus_plus)
!369 = !DIDerivedType(tag: DW_TAG_inheritance, file: !3, scope: !368, name: "bad_alloc", line: 1, size: 64, align: 64, baseType: !365)
!370 = !{  }
!371 = !DICompositeType(tag: DW_TAG_structure_type, file: !3, scope: !11, name: "nothrow_t", line: 1, size: 8, align: 8, elements: !370, runtimeLang: DW_LANG_C_plus_plus)
!372 = !DIDerivedType(tag: DW_TAG_typedef, file: !3, scope: !11, name: "new_handler", line: 1, size: 64, align: 64, baseType: !352)
!373 = !{ !378 }
!374 = !DICompositeType(tag: DW_TAG_structure_type, file: !3, name: "_ZSt17integral_constantIbLb1EE", size: 8, align: 8, elements: !373)
!375 = !DISubrange(count: 0)
!376 = !{ !375 }
!377 = !DICompositeType(tag: DW_TAG_array_type, size: 8, align: 8, baseType: !43, elements: !376)
!378 = !DIDerivedType(tag: DW_TAG_member, file: !3, scope: !374, size: 8, align: 8, baseType: !377)
!379 = !DIDerivedType(tag: DW_TAG_typedef, file: !3, scope: !11, name: "true_type", line: 1, size: 8, align: 8, baseType: !374)
!380 = !{ !382 }
!381 = !DICompositeType(tag: DW_TAG_structure_type, file: !3, name: "_ZSt17integral_constantIbLb0EE", size: 8, align: 8, elements: !380)
!382 = !DIDerivedType(tag: DW_TAG_member, file: !3, scope: !381, size: 8, align: 8, baseType: !377)
!383 = !DIDerivedType(tag: DW_TAG_typedef, file: !3, scope: !11, name: "false_type", line: 1, size: 8, align: 8, baseType: !381)
!384 = !{  }
!385 = !DICompositeType(tag: DW_TAG_structure_type, file: !3, scope: !11, name: "__failure_type", line: 1, size: 8, align: 8, elements: !384, runtimeLang: DW_LANG_C_plus_plus)
!386 = !{  }
!387 = !DICompositeType(tag: DW_TAG_structure_type, file: !3, scope: !11, name: "__do_is_destructible_impl", line: 1, size: 8, align: 8, elements: !386, runtimeLang: DW_LANG_C_plus_plus)
!388 = !{  }
!389 = !DICompositeType(tag: DW_TAG_structure_type, file: !3, scope: !11, name: "__do_is_nt_destructible_impl", line: 1, size: 8, align: 8, elements: !388, runtimeLang: DW_LANG_C_plus_plus)
!390 = !{  }
!391 = !DICompositeType(tag: DW_TAG_structure_type, file: !3, scope: !11, name: "__do_is_implicitly_default_constructible_impl", line: 1, size: 8, align: 8, elements: !390, runtimeLang: DW_LANG_C_plus_plus)
!392 = !{  }
!393 = !DICompositeType(tag: DW_TAG_class_type, file: !3, scope: !11, name: "__make_unsigned_selector_base", line: 1, size: 8, align: 8, elements: !392, runtimeLang: DW_LANG_C_plus_plus)
!394 = !{  }
!395 = !DICompositeType(tag: DW_TAG_structure_type, file: !3, scope: !11, name: "__do_common_type_impl", line: 1, size: 8, align: 8, elements: !394, runtimeLang: DW_LANG_C_plus_plus)
!396 = !{  }
!397 = !DICompositeType(tag: DW_TAG_structure_type, file: !3, scope: !11, name: "__do_member_type_wrapper", line: 1, size: 8, align: 8, elements: !396, runtimeLang: DW_LANG_C_plus_plus)
!398 = !{  }
!399 = !DICompositeType(tag: DW_TAG_structure_type, file: !3, scope: !11, name: "__invoke_memfun_ref", line: 1, size: 8, align: 8, elements: !398, runtimeLang: DW_LANG_C_plus_plus)
!400 = !{  }
!401 = !DICompositeType(tag: DW_TAG_structure_type, file: !3, scope: !11, name: "__invoke_memfun_deref", line: 1, size: 8, align: 8, elements: !400, runtimeLang: DW_LANG_C_plus_plus)
!402 = !{  }
!403 = !DICompositeType(tag: DW_TAG_structure_type, file: !3, scope: !11, name: "__invoke_memobj_ref", line: 1, size: 8, align: 8, elements: !402, runtimeLang: DW_LANG_C_plus_plus)
!404 = !{  }
!405 = !DICompositeType(tag: DW_TAG_structure_type, file: !3, scope: !11, name: "__invoke_memobj_deref", line: 1, size: 8, align: 8, elements: !404, runtimeLang: DW_LANG_C_plus_plus)
!406 = !{  }
!407 = !DICompositeType(tag: DW_TAG_structure_type, file: !3, scope: !11, name: "__invoke_other", line: 1, size: 8, align: 8, elements: !406, runtimeLang: DW_LANG_C_plus_plus)
!408 = !{  }
!409 = !DICompositeType(tag: DW_TAG_structure_type, file: !3, scope: !11, name: "__result_of_memfun_ref_impl", line: 1, size: 8, align: 8, elements: !408, runtimeLang: DW_LANG_C_plus_plus)
!410 = !{  }
!411 = !DICompositeType(tag: DW_TAG_structure_type, file: !3, scope: !11, name: "__result_of_memfun_deref_impl", line: 1, size: 8, align: 8, elements: !410, runtimeLang: DW_LANG_C_plus_plus)
!412 = !{  }
!413 = !DICompositeType(tag: DW_TAG_structure_type, file: !3, scope: !11, name: "__result_of_memobj_ref_impl", line: 1, size: 8, align: 8, elements: !412, runtimeLang: DW_LANG_C_plus_plus)
!414 = !{  }
!415 = !DICompositeType(tag: DW_TAG_structure_type, file: !3, scope: !11, name: "__result_of_memobj_deref_impl", line: 1, size: 8, align: 8, elements: !414, runtimeLang: DW_LANG_C_plus_plus)
!416 = !{  }
!417 = !DICompositeType(tag: DW_TAG_structure_type, file: !3, scope: !11, name: "__result_of_other_impl", line: 1, size: 8, align: 8, elements: !416, runtimeLang: DW_LANG_C_plus_plus)
!418 = !{  }
!419 = !DICompositeType(tag: DW_TAG_structure_type, file: !3, scope: !11, name: "__nonesuch", line: 1, size: 8, align: 8, elements: !418, runtimeLang: DW_LANG_C_plus_plus)
!420 = !{ !422 }
!421 = !DICompositeType(tag: DW_TAG_class_type, file: !3, scope: !11, name: "nested_exception", line: 1, size: 128, align: 64, elements: !420, runtimeLang: DW_LANG_C_plus_plus)
!422 = !DIDerivedType(tag: DW_TAG_member, file: !3, scope: !421, name: "_M_ptr", line: 1, size: 64, align: 64, offset: 64, baseType: !15)
!423 = !{  }
!424 = !DICompositeType(tag: DW_TAG_structure_type, file: !3, scope: !11, name: "piecewise_construct_t", line: 1, size: 8, align: 8, elements: !423, runtimeLang: DW_LANG_C_plus_plus)
!425 = !{ !427 }
!426 = !DICompositeType(tag: DW_TAG_structure_type, file: !3, scope: !11, name: "__nonesuch_no_braces", line: 1, size: 8, align: 8, elements: !425, runtimeLang: DW_LANG_C_plus_plus)
!427 = !DIDerivedType(tag: DW_TAG_inheritance, file: !3, scope: !426, name: "__nonesuch", line: 1, size: 8, align: 8, baseType: !419)
!428 = !{  }
!429 = !DICompositeType(tag: DW_TAG_structure_type, file: !3, scope: !11, name: "input_iterator_tag", line: 1, size: 8, align: 8, elements: !428, runtimeLang: DW_LANG_C_plus_plus)
!430 = !{  }
!431 = !DICompositeType(tag: DW_TAG_structure_type, file: !3, scope: !11, name: "output_iterator_tag", line: 1, size: 8, align: 8, elements: !430, runtimeLang: DW_LANG_C_plus_plus)
!432 = !{ !434 }
!433 = !DICompositeType(tag: DW_TAG_structure_type, file: !3, scope: !11, name: "forward_iterator_tag", line: 1, size: 8, align: 8, elements: !432, runtimeLang: DW_LANG_C_plus_plus)
!434 = !DIDerivedType(tag: DW_TAG_inheritance, file: !3, scope: !433, name: "input_iterator_tag", line: 1, size: 8, align: 8, baseType: !429)
!435 = !{ !437 }
!436 = !DICompositeType(tag: DW_TAG_structure_type, file: !3, scope: !11, name: "bidirectional_iterator_tag", line: 1, size: 8, align: 8, elements: !435, runtimeLang: DW_LANG_C_plus_plus)
!437 = !DIDerivedType(tag: DW_TAG_inheritance, file: !3, scope: !436, name: "forward_iterator_tag", line: 1, size: 8, align: 8, baseType: !433)
!438 = !{ !440 }
!439 = !DICompositeType(tag: DW_TAG_structure_type, file: !3, scope: !11, name: "random_access_iterator_tag", line: 1, size: 8, align: 8, elements: !438, runtimeLang: DW_LANG_C_plus_plus)
!440 = !DIDerivedType(tag: DW_TAG_inheritance, file: !3, scope: !439, name: "bidirectional_iterator_tag", line: 1, size: 8, align: 8, baseType: !436)
!441 = !{  }
!442 = !DICompositeType(tag: DW_TAG_class_type, file: !3, scope: !11, name: "__undefined", line: 1, align: 8, elements: !441, runtimeLang: DW_LANG_C_plus_plus)
!443 = !DIDerivedType(tag: DW_TAG_typedef, file: !3, scope: !11, name: "__c_locale", line: 1, size: 64, align: 64, baseType: !257)
!444 = !{  }
!445 = !DICompositeType(tag: DW_TAG_structure_type, file: !3, scope: !11, name: "__is_transparent", line: 1, align: 8, elements: !444, runtimeLang: DW_LANG_C_plus_plus)
!446 = !{  }
!447 = !DICompositeType(tag: DW_TAG_structure_type, file: !3, scope: !11, name: "__allocator_traits_base", line: 1, size: 8, align: 8, elements: !446, runtimeLang: DW_LANG_C_plus_plus)
!448 = !{  }
!449 = !DICompositeType(tag: DW_TAG_structure_type, file: !3, scope: !11, name: "_Hash_impl", line: 1, size: 8, align: 8, elements: !448, runtimeLang: DW_LANG_C_plus_plus)
!450 = !{  }
!451 = !DICompositeType(tag: DW_TAG_structure_type, file: !3, scope: !11, name: "_Fnv_hash_impl", line: 1, size: 8, align: 8, elements: !450, runtimeLang: DW_LANG_C_plus_plus)
!452 = !{ !454, !455, !456, !457, !458, !459, !460, !461, !462, !463, !464, !465, !466, !467, !468, !469, !470, !471, !472, !473, !474, !475, !476, !477, !478, !479, !480, !481, !482, !483, !484, !485, !486, !487, !488, !489, !490, !491, !492, !493, !494, !495, !496, !497, !498, !499, !500, !501, !502, !503, !504, !505, !506, !507, !508, !509, !510, !511, !512, !513, !514, !515, !516, !517, !518, !519, !520, !521, !522, !523, !524, !525, !526, !527, !528, !529, !530, !531 }
!453 = !DICompositeType(tag: DW_TAG_enumeration_type, file: !3, scope: !11, name: "errc", line: 1, size: 32, align: 32, elements: !452, runtimeLang: DW_LANG_C_plus_plus)
!454 = !DIEnumerator(name: "_ZNSt4errc19wrong_protocol_typeE", value: 91)
!455 = !DIEnumerator(name: "_ZNSt4errc15value_too_largeE", value: 75)
!456 = !DIEnumerator(name: "_ZNSt4errc29too_many_symbolic_link_levelsE", value: 40)
!457 = !DIEnumerator(name: "_ZNSt4errc14too_many_linksE", value: 31)
!458 = !DIEnumerator(name: "_ZNSt4errc19too_many_files_openE", value: 24)
!459 = !DIEnumerator(name: "_ZNSt4errc29too_many_files_open_in_systemE", value: 23)
!460 = !DIEnumerator(name: "_ZNSt4errc9timed_outE", value: 110)
!461 = !DIEnumerator(name: "_ZNSt4errc14text_file_busyE", value: 26)
!462 = !DIEnumerator(name: "_ZNSt4errc14stream_timeoutE", value: 62)
!463 = !DIEnumerator(name: "_ZNSt4errc21state_not_recoverableE", value: 131)
!464 = !DIEnumerator(name: "_ZNSt4errc19result_out_of_rangeE", value: 34)
!465 = !DIEnumerator(name: "_ZNSt4errc30resource_unavailable_try_againE", value: 11)
!466 = !DIEnumerator(name: "_ZNSt4errc29resource_deadlock_would_occurE", value: 35)
!467 = !DIEnumerator(name: "_ZNSt4errc21read_only_file_systemE", value: 30)
!468 = !DIEnumerator(name: "_ZNSt4errc22protocol_not_supportedE", value: 93)
!469 = !DIEnumerator(name: "_ZNSt4errc14protocol_errorE", value: 71)
!470 = !DIEnumerator(name: "_ZNSt4errc17permission_deniedE", value: 13)
!471 = !DIEnumerator(name: "_ZNSt4errc10owner_deadE", value: 130)
!472 = !DIEnumerator(name: "_ZNSt4errc21operation_would_blockE", value: 11)
!473 = !DIEnumerator(name: "_ZNSt4errc23operation_not_supportedE", value: 95)
!474 = !DIEnumerator(name: "_ZNSt4errc23operation_not_permittedE", value: 1)
!475 = !DIEnumerator(name: "_ZNSt4errc21operation_in_progressE", value: 115)
!476 = !DIEnumerator(name: "_ZNSt4errc18operation_canceledE", value: 125)
!477 = !DIEnumerator(name: "_ZNSt4errc13not_supportedE", value: 95)
!478 = !DIEnumerator(name: "_ZNSt4errc17not_enough_memoryE", value: 12)
!479 = !DIEnumerator(name: "_ZNSt4errc13not_connectedE", value: 107)
!480 = !DIEnumerator(name: "_ZNSt4errc12not_a_streamE", value: 60)
!481 = !DIEnumerator(name: "_ZNSt4errc12not_a_socketE", value: 88)
!482 = !DIEnumerator(name: "_ZNSt4errc15not_a_directoryE", value: 20)
!483 = !DIEnumerator(name: "_ZNSt4errc15no_such_processE", value: 3)
!484 = !DIEnumerator(name: "_ZNSt4errc25no_such_file_or_directoryE", value: 2)
!485 = !DIEnumerator(name: "_ZNSt4errc14no_such_deviceE", value: 19)
!486 = !DIEnumerator(name: "_ZNSt4errc25no_such_device_or_addressE", value: 6)
!487 = !DIEnumerator(name: "_ZNSt4errc19no_stream_resourcesE", value: 63)
!488 = !DIEnumerator(name: "_ZNSt4errc18no_space_on_deviceE", value: 28)
!489 = !DIEnumerator(name: "_ZNSt4errc18no_protocol_optionE", value: 92)
!490 = !DIEnumerator(name: "_ZNSt4errc10no_messageE", value: 42)
!491 = !DIEnumerator(name: "_ZNSt4errc20no_message_availableE", value: 61)
!492 = !DIEnumerator(name: "_ZNSt4errc17no_lock_availableE", value: 37)
!493 = !DIEnumerator(name: "_ZNSt4errc7no_linkE", value: 67)
!494 = !DIEnumerator(name: "_ZNSt4errc16no_child_processE", value: 10)
!495 = !DIEnumerator(name: "_ZNSt4errc15no_buffer_spaceE", value: 105)
!496 = !DIEnumerator(name: "_ZNSt4errc19network_unreachableE", value: 101)
!497 = !DIEnumerator(name: "_ZNSt4errc13network_resetE", value: 102)
!498 = !DIEnumerator(name: "_ZNSt4errc12network_downE", value: 100)
!499 = !DIEnumerator(name: "_ZNSt4errc12message_sizeE", value: 90)
!500 = !DIEnumerator(name: "_ZNSt4errc14is_a_directoryE", value: 21)
!501 = !DIEnumerator(name: "_ZNSt4errc8io_errorE", value: 5)
!502 = !DIEnumerator(name: "_ZNSt4errc12invalid_seekE", value: 29)
!503 = !DIEnumerator(name: "_ZNSt4errc16invalid_argumentE", value: 22)
!504 = !DIEnumerator(name: "_ZNSt4errc11interruptedE", value: 4)
!505 = !DIEnumerator(name: "_ZNSt4errc34inappropriate_io_control_operationE", value: 25)
!506 = !DIEnumerator(name: "_ZNSt4errc21illegal_byte_sequenceE", value: 84)
!507 = !DIEnumerator(name: "_ZNSt4errc18identifier_removedE", value: 43)
!508 = !DIEnumerator(name: "_ZNSt4errc16host_unreachableE", value: 113)
!509 = !DIEnumerator(name: "_ZNSt4errc22function_not_supportedE", value: 38)
!510 = !DIEnumerator(name: "_ZNSt4errc17filename_too_longE", value: 36)
!511 = !DIEnumerator(name: "_ZNSt4errc14file_too_largeE", value: 27)
!512 = !DIEnumerator(name: "_ZNSt4errc11file_existsE", value: 17)
!513 = !DIEnumerator(name: "_ZNSt4errc23executable_format_errorE", value: 8)
!514 = !DIEnumerator(name: "_ZNSt4errc19directory_not_emptyE", value: 39)
!515 = !DIEnumerator(name: "_ZNSt4errc23device_or_resource_busyE", value: 16)
!516 = !DIEnumerator(name: "_ZNSt4errc28destination_address_requiredE", value: 89)
!517 = !DIEnumerator(name: "_ZNSt4errc17cross_device_linkE", value: 18)
!518 = !DIEnumerator(name: "_ZNSt4errc16connection_resetE", value: 104)
!519 = !DIEnumerator(name: "_ZNSt4errc18connection_refusedE", value: 111)
!520 = !DIEnumerator(name: "_ZNSt4errc30connection_already_in_progressE", value: 114)
!521 = !DIEnumerator(name: "_ZNSt4errc18connection_abortedE", value: 103)
!522 = !DIEnumerator(name: "_ZNSt4errc11broken_pipeE", value: 32)
!523 = !DIEnumerator(name: "_ZNSt4errc11bad_messageE", value: 74)
!524 = !DIEnumerator(name: "_ZNSt4errc19bad_file_descriptorE", value: 9)
!525 = !DIEnumerator(name: "_ZNSt4errc11bad_addressE", value: 14)
!526 = !DIEnumerator(name: "_ZNSt4errc22argument_out_of_domainE", value: 33)
!527 = !DIEnumerator(name: "_ZNSt4errc22argument_list_too_longE", value: 7)
!528 = !DIEnumerator(name: "_ZNSt4errc17already_connectedE", value: 106)
!529 = !DIEnumerator(name: "_ZNSt4errc21address_not_availableE", value: 99)
!530 = !DIEnumerator(name: "_ZNSt4errc14address_in_useE", value: 98)
!531 = !DIEnumerator(name: "_ZNSt4errc28address_family_not_supportedE", value: 97)
!532 = !{ !539 }
!533 = !DICompositeType(tag: DW_TAG_structure_type, file: !3, scope: !11, name: "__cow_string", line: 1, size: 64, align: 64, elements: !532, runtimeLang: DW_LANG_C_plus_plus)
!534 = !{ !536, !538 }
!535 = !DICompositeType(tag: DW_TAG_union_type, file: !3, scope: !533, line: 1, size: 64, align: 64, elements: !534, runtimeLang: DW_LANG_C_plus_plus)
!536 = !DIDerivedType(tag: DW_TAG_member, file: !3, scope: !535, name: "_M_p", line: 1, size: 64, align: 64, baseType: !44)
!537 = !DICompositeType(tag: DW_TAG_array_type, size: 64, align: 8, baseType: !43, elements: !87)
!538 = !DIDerivedType(tag: DW_TAG_member, file: !3, scope: !535, name: "_M_bytes", line: 1, size: 64, align: 8, baseType: !537)
!539 = !DIDerivedType(tag: DW_TAG_member, file: !3, scope: !533, line: 1, size: 64, align: 64, baseType: !535)
!540 = !{ !542, !543 }
!541 = !DICompositeType(tag: DW_TAG_class_type, file: !3, scope: !11, name: "logic_error", line: 1, size: 128, align: 64, elements: !540, runtimeLang: DW_LANG_C_plus_plus)
!542 = !DIDerivedType(tag: DW_TAG_inheritance, file: !3, scope: !541, name: "exception", line: 1, size: 64, align: 64, baseType: !346)
!543 = !DIDerivedType(tag: DW_TAG_member, file: !3, scope: !541, name: "_M_msg", line: 1, size: 64, align: 64, offset: 64, baseType: !533)
!544 = !{ !546 }
!545 = !DICompositeType(tag: DW_TAG_class_type, file: !3, scope: !11, name: "domain_error", line: 1, size: 128, align: 64, elements: !544, runtimeLang: DW_LANG_C_plus_plus)
!546 = !DIDerivedType(tag: DW_TAG_inheritance, file: !3, scope: !545, name: "logic_error", line: 1, size: 128, align: 64, baseType: !541)
!547 = !{ !549 }
!548 = !DICompositeType(tag: DW_TAG_class_type, file: !3, scope: !11, name: "invalid_argument", line: 1, size: 128, align: 64, elements: !547, runtimeLang: DW_LANG_C_plus_plus)
!549 = !DIDerivedType(tag: DW_TAG_inheritance, file: !3, scope: !548, name: "logic_error", line: 1, size: 128, align: 64, baseType: !541)
!550 = !{ !552 }
!551 = !DICompositeType(tag: DW_TAG_class_type, file: !3, scope: !11, name: "length_error", line: 1, size: 128, align: 64, elements: !550, runtimeLang: DW_LANG_C_plus_plus)
!552 = !DIDerivedType(tag: DW_TAG_inheritance, file: !3, scope: !551, name: "logic_error", line: 1, size: 128, align: 64, baseType: !541)
!553 = !{ !555 }
!554 = !DICompositeType(tag: DW_TAG_class_type, file: !3, scope: !11, name: "out_of_range", line: 1, size: 128, align: 64, elements: !553, runtimeLang: DW_LANG_C_plus_plus)
!555 = !DIDerivedType(tag: DW_TAG_inheritance, file: !3, scope: !554, name: "logic_error", line: 1, size: 128, align: 64, baseType: !541)
!556 = !{ !558, !559 }
!557 = !DICompositeType(tag: DW_TAG_class_type, file: !3, scope: !11, name: "runtime_error", line: 1, size: 128, align: 64, elements: !556, runtimeLang: DW_LANG_C_plus_plus)
!558 = !DIDerivedType(tag: DW_TAG_inheritance, file: !3, scope: !557, name: "exception", line: 1, size: 64, align: 64, baseType: !346)
!559 = !DIDerivedType(tag: DW_TAG_member, file: !3, scope: !557, name: "_M_msg", line: 1, size: 64, align: 64, offset: 64, baseType: !533)
!560 = !{ !562 }
!561 = !DICompositeType(tag: DW_TAG_class_type, file: !3, scope: !11, name: "range_error", line: 1, size: 128, align: 64, elements: !560, runtimeLang: DW_LANG_C_plus_plus)
!562 = !DIDerivedType(tag: DW_TAG_inheritance, file: !3, scope: !561, name: "runtime_error", line: 1, size: 128, align: 64, baseType: !557)
!563 = !{ !565 }
!564 = !DICompositeType(tag: DW_TAG_class_type, file: !3, scope: !11, name: "overflow_error", line: 1, size: 128, align: 64, elements: !563, runtimeLang: DW_LANG_C_plus_plus)
!565 = !DIDerivedType(tag: DW_TAG_inheritance, file: !3, scope: !564, name: "runtime_error", line: 1, size: 128, align: 64, baseType: !557)
!566 = !{ !568 }
!567 = !DICompositeType(tag: DW_TAG_class_type, file: !3, scope: !11, name: "underflow_error", line: 1, size: 128, align: 64, elements: !566, runtimeLang: DW_LANG_C_plus_plus)
!568 = !DIDerivedType(tag: DW_TAG_inheritance, file: !3, scope: !567, name: "runtime_error", line: 1, size: 128, align: 64, baseType: !557)
!569 = !{ !571, !576 }
!570 = !DICompositeType(tag: DW_TAG_structure_type, file: !3, scope: !11, name: "error_code", line: 1, size: 128, align: 64, elements: !569, runtimeLang: DW_LANG_C_plus_plus)
!571 = !DIDerivedType(tag: DW_TAG_member, file: !3, scope: !570, name: "_M_value", line: 1, size: 32, align: 32, baseType: !61)
!572 = !{ !574 }
!573 = !DICompositeType(tag: DW_TAG_structure_type, file: !3, name: "_ZNSt3_V214error_categoryE", size: 64, align: 64, elements: !572)
!574 = !DIDerivedType(tag: DW_TAG_member, file: !3, scope: !573, name: "__vptr", size: 64, align: 64, baseType: !124)
!575 = !DIDerivedType(tag: DW_TAG_pointer_type, size: 64, align: 64, baseType: !573)
!576 = !DIDerivedType(tag: DW_TAG_member, file: !3, scope: !570, name: "_M_cat", line: 1, size: 64, align: 64, offset: 64, baseType: !575)
!577 = !{ !579, !580 }
!578 = !DICompositeType(tag: DW_TAG_structure_type, file: !3, scope: !11, name: "error_condition", line: 1, size: 128, align: 64, elements: !577, runtimeLang: DW_LANG_C_plus_plus)
!579 = !DIDerivedType(tag: DW_TAG_member, file: !3, scope: !578, name: "_M_value", line: 1, size: 32, align: 32, baseType: !61)
!580 = !DIDerivedType(tag: DW_TAG_member, file: !3, scope: !578, name: "_M_cat", line: 1, size: 64, align: 64, offset: 64, baseType: !575)
!581 = !{ !583, !584 }
!582 = !DICompositeType(tag: DW_TAG_class_type, file: !3, scope: !11, name: "system_error", line: 1, size: 256, align: 64, elements: !581, runtimeLang: DW_LANG_C_plus_plus)
!583 = !DIDerivedType(tag: DW_TAG_inheritance, file: !3, scope: !582, name: "runtime_error", line: 1, size: 128, align: 64, baseType: !557)
!584 = !DIDerivedType(tag: DW_TAG_member, file: !3, scope: !582, name: "_M_code", line: 1, size: 128, align: 64, offset: 128, baseType: !570)
!585 = !{ !587, !588, !589, !590, !591, !592, !593, !594, !595 }
!586 = !DICompositeType(tag: DW_TAG_enumeration_type, file: !3, scope: !11, name: "_Ios_Openmode", line: 1, size: 32, align: 32, elements: !585, runtimeLang: DW_LANG_C_plus_plus)
!587 = !DIEnumerator(name: "_S_app", value: 1)
!588 = !DIEnumerator(name: "_S_ate", value: 2)
!589 = !DIEnumerator(name: "_S_bin", value: 4)
!590 = !DIEnumerator(name: "_S_in", value: 8)
!591 = !DIEnumerator(name: "_S_out", value: 16)
!592 = !DIEnumerator(name: "_S_trunc", value: 32)
!593 = !DIEnumerator(name: "_S_ios_openmode_end", value: 65536)
!594 = !DIEnumerator(name: "_S_ios_openmode_max", value: 2147483647)
!595 = !DIEnumerator(name: "_S_ios_openmode_min", value: -2147483648)
!596 = !{ !598, !599, !600, !601 }
!597 = !DICompositeType(tag: DW_TAG_enumeration_type, file: !3, scope: !11, name: "_Ios_Seekdir", line: 1, size: 32, align: 32, elements: !596, runtimeLang: DW_LANG_C_plus_plus)
!598 = !DIEnumerator(name: "_S_beg", value: 0)
!599 = !DIEnumerator(name: "_S_cur", value: 1)
!600 = !DIEnumerator(name: "_S_end", value: 2)
!601 = !DIEnumerator(name: "_S_ios_seekdir_end", value: 65536)
!602 = !{ !604 }
!603 = !DICompositeType(tag: DW_TAG_enumeration_type, file: !3, scope: !11, name: "io_errc", line: 1, size: 32, align: 32, elements: !602, runtimeLang: DW_LANG_C_plus_plus)
!604 = !DIEnumerator(name: "_ZNSt7io_errc6streamE", value: 1)
!605 = !{  }
!606 = !DICompositeType(tag: DW_TAG_structure_type, file: !3, scope: !11, name: "ctype_base", line: 1, size: 8, align: 8, elements: !605, runtimeLang: DW_LANG_C_plus_plus)
!607 = !DIDerivedType(tag: DW_TAG_typedef, file: !3, scope: !606, name: "__to_type", line: 1, size: 64, align: 64, baseType: !62)
!608 = !DIDerivedType(tag: DW_TAG_typedef, file: !3, scope: !606, name: "mask", line: 1, size: 16, align: 16, baseType: !79)
!609 = !{  }
!610 = !DICompositeType(tag: DW_TAG_class_type, file: !3, scope: !11, name: "__num_base", line: 1, size: 8, align: 8, elements: !609, runtimeLang: DW_LANG_C_plus_plus)
!611 = !{ !613, !614, !615, !616, !617 }
!612 = !DICompositeType(tag: DW_TAG_enumeration_type, file: !3, scope: !11, name: "float_round_style", line: 1, size: 32, align: 32, elements: !611, runtimeLang: DW_LANG_C_plus_plus)
!613 = !DIEnumerator(name: "round_indeterminate", value: -1)
!614 = !DIEnumerator(name: "round_toward_zero", value: 0)
!615 = !DIEnumerator(name: "round_to_nearest", value: 1)
!616 = !DIEnumerator(name: "round_toward_infinity", value: 2)
!617 = !DIEnumerator(name: "round_toward_neg_infinity", value: 3)
!618 = !{ !620, !621, !622 }
!619 = !DICompositeType(tag: DW_TAG_enumeration_type, file: !3, scope: !11, name: "float_denorm_style", line: 1, size: 32, align: 32, elements: !618, runtimeLang: DW_LANG_C_plus_plus)
!620 = !DIEnumerator(name: "denorm_indeterminate", value: -1)
!621 = !DIEnumerator(name: "denorm_absent", value: 0)
!622 = !DIEnumerator(name: "denorm_present", value: 1)
!623 = !{  }
!624 = !DICompositeType(tag: DW_TAG_structure_type, file: !3, scope: !11, name: "__numeric_limits_base", line: 1, size: 8, align: 8, elements: !623, runtimeLang: DW_LANG_C_plus_plus)
!625 = !DIDerivedType(tag: DW_TAG_typedef, file: !3, scope: !11, name: "_Bit_type", line: 1, size: 64, align: 64, baseType: !30)
!626 = !{ !629, !630 }
!627 = !DICompositeType(tag: DW_TAG_structure_type, file: !3, scope: !11, name: "_Bit_reference", line: 1, size: 128, align: 64, elements: !626, runtimeLang: DW_LANG_C_plus_plus)
!628 = !DIDerivedType(tag: DW_TAG_pointer_type, size: 64, align: 64, baseType: !30)
!629 = !DIDerivedType(tag: DW_TAG_member, file: !3, scope: !627, name: "_M_p", line: 1, size: 64, align: 64, baseType: !628)
!630 = !DIDerivedType(tag: DW_TAG_member, file: !3, scope: !627, name: "_M_mask", line: 1, size: 64, align: 64, offset: 64, baseType: !30)
!631 = !{ !633, !634 }
!632 = !DICompositeType(tag: DW_TAG_structure_type, file: !3, scope: !11, name: "_Bit_iterator_base", line: 1, size: 128, align: 64, elements: !631, runtimeLang: DW_LANG_C_plus_plus)
!633 = !DIDerivedType(tag: DW_TAG_member, file: !3, scope: !632, name: "_M_p", line: 1, size: 64, align: 64, baseType: !628)
!634 = !DIDerivedType(tag: DW_TAG_member, file: !3, scope: !632, name: "_M_offset", line: 1, size: 32, align: 32, offset: 64, baseType: !97)
!635 = !{ !639 }
!636 = !DICompositeType(tag: DW_TAG_structure_type, file: !3, scope: !11, name: "_Bit_iterator", line: 1, size: 128, align: 64, elements: !635, runtimeLang: DW_LANG_C_plus_plus)
!637 = !DIDerivedType(tag: DW_TAG_typedef, file: !3, scope: !636, name: "reference", line: 1, size: 128, align: 64, baseType: !627)
!638 = !DIDerivedType(tag: DW_TAG_typedef, file: !3, scope: !636, name: "iterator", line: 1, size: 128, align: 64, baseType: !636)
!639 = !DIDerivedType(tag: DW_TAG_inheritance, file: !3, scope: !636, name: "_Bit_iterator_base", line: 1, size: 128, align: 64, baseType: !632)
!640 = !{ !645 }
!641 = !DICompositeType(tag: DW_TAG_structure_type, file: !3, scope: !11, name: "_Bit_const_iterator", line: 1, size: 128, align: 64, elements: !640, runtimeLang: DW_LANG_C_plus_plus)
!642 = !DIDerivedType(tag: DW_TAG_typedef, file: !3, scope: !641, name: "reference", line: 1, size: 8, align: 8, baseType: !43)
!643 = !DIDerivedType(tag: DW_TAG_typedef, file: !3, scope: !641, name: "const_reference", line: 1, size: 8, align: 8, baseType: !43)
!644 = !DIDerivedType(tag: DW_TAG_typedef, file: !3, scope: !641, name: "const_iterator", line: 1, size: 128, align: 64, baseType: !641)
!645 = !DIDerivedType(tag: DW_TAG_inheritance, file: !3, scope: !641, name: "_Bit_iterator_base", line: 1, size: 128, align: 64, baseType: !632)
!646 = !DINamespace(scope: !10, name: "__cxxabiv1")
!647 = !{  }
!648 = !DICompositeType(tag: DW_TAG_structure_type, file: !3, scope: !646, name: "__cxa_refcounted_exception", line: 1, align: 8, elements: !647, runtimeLang: DW_LANG_C_plus_plus)
!649 = !{  }
!650 = !DICompositeType(tag: DW_TAG_class_type, file: !3, scope: !646, name: "__class_type_info", line: 1, align: 8, elements: !649, runtimeLang: DW_LANG_C_plus_plus)
!651 = !{  }
!652 = !DICompositeType(tag: DW_TAG_class_type, file: !3, scope: !646, name: "__forced_unwind", line: 1, size: 64, align: 64, elements: !651, runtimeLang: DW_LANG_C_plus_plus)
!653 = !DINamespace(scope: !10, name: "__gnu_cxx")
!654 = !{  }
!655 = !DICompositeType(tag: DW_TAG_structure_type, file: !3, scope: !10, line: 1, size: 128, align: 64, elements: !654, runtimeLang: DW_LANG_C_plus_plus)
!656 = !{  }
!657 = !DICompositeType(tag: DW_TAG_structure_type, file: !3, scope: !10, name: "__class_type_info", line: 1, size: 128, align: 64, elements: !656, runtimeLang: DW_LANG_C_plus_plus)
!658 = !{  }
!659 = !DICompositeType(tag: DW_TAG_structure_type, file: !3, scope: !10, name: "__EDG_type_info", line: 1, size: 128, align: 64, elements: !658, runtimeLang: DW_LANG_C_plus_plus)
!660 = !{  }
!661 = !DICompositeType(tag: DW_TAG_structure_type, file: !3, scope: !10, name: "__pbase_type_info", line: 1, size: 256, align: 64, elements: !660, runtimeLang: DW_LANG_C_plus_plus)
!662 = !{  }
!663 = !DICompositeType(tag: DW_TAG_structure_type, file: !3, scope: !10, name: "__pointer_to_member_type_info", line: 1, size: 320, align: 64, elements: !662, runtimeLang: DW_LANG_C_plus_plus)
!664 = !{  }
!665 = !DICompositeType(tag: DW_TAG_structure_type, file: !3, scope: !10, name: "__pointer_type_info", line: 1, size: 256, align: 64, elements: !664, runtimeLang: DW_LANG_C_plus_plus)
!666 = !{  }
!667 = !DICompositeType(tag: DW_TAG_structure_type, file: !3, scope: !10, name: "__vmi_class_type_info", line: 1, size: 448, align: 64, elements: !666, runtimeLang: DW_LANG_C_plus_plus)
!668 = !{  }
!669 = !DICompositeType(tag: DW_TAG_structure_type, file: !3, scope: !10, name: "__si_class_type_info", line: 1, size: 192, align: 64, elements: !668, runtimeLang: DW_LANG_C_plus_plus)
!670 = !{  }
!671 = !DICompositeType(tag: DW_TAG_structure_type, file: !3, scope: !10, name: "__function_type_info", line: 1, size: 128, align: 64, elements: !670, runtimeLang: DW_LANG_C_plus_plus)
!672 = !{  }
!673 = !DICompositeType(tag: DW_TAG_structure_type, file: !3, scope: !10, name: "__array_type_info", line: 1, size: 128, align: 64, elements: !672, runtimeLang: DW_LANG_C_plus_plus)
!674 = !{  }
!675 = !DICompositeType(tag: DW_TAG_structure_type, file: !3, scope: !10, name: "__enum_type_info", line: 1, size: 128, align: 64, elements: !674, runtimeLang: DW_LANG_C_plus_plus)
!676 = !{  }
!677 = !DICompositeType(tag: DW_TAG_structure_type, file: !3, scope: !10, name: "__fundamental_type_info", line: 1, size: 128, align: 64, elements: !676, runtimeLang: DW_LANG_C_plus_plus)
!678 = !DIBasicType(tag: DW_TAG_base_type, name: "__float128", size: 128, align: 128, encoding: DW_ATE_float)
!679 = !DIDerivedType(tag: DW_TAG_typedef, file: !3, scope: !10, name: "__float128", line: 1, size: 128, align: 128, baseType: !678)
!680 = !{ !682, !683, !684, !685 }
!681 = !DICompositeType(tag: DW_TAG_structure_type, file: !3, scope: !10, name: "__va_list_tag", line: 1, size: 192, align: 64, elements: !680, runtimeLang: DW_LANG_C_plus_plus)
!682 = !DIDerivedType(tag: DW_TAG_member, file: !3, scope: !681, name: "gp_offset", line: 1, size: 32, align: 32, baseType: !97)
!683 = !DIDerivedType(tag: DW_TAG_member, file: !3, scope: !681, name: "fp_offset", line: 1, size: 32, align: 32, offset: 32, baseType: !97)
!684 = !DIDerivedType(tag: DW_TAG_member, file: !3, scope: !681, name: "overflow_arg_area", line: 1, size: 64, align: 64, offset: 64, baseType: !44)
!685 = !DIDerivedType(tag: DW_TAG_member, file: !3, scope: !681, name: "reg_save_area", line: 1, size: 64, align: 64, offset: 128, baseType: !44)
!686 = !DICompositeType(tag: DW_TAG_array_type, size: 192, align: 64, baseType: !681, elements: !376)
!687 = !DIDerivedType(tag: DW_TAG_typedef, file: !3, scope: !10, name: "__pgi_va_list", line: 1, size: 192, align: 64, baseType: !686)
!688 = !{ !690, !691, !692 }
!689 = !DICompositeType(tag: DW_TAG_enumeration_type, file: !3, scope: !10, name: "idtype_t", line: 1, size: 32, align: 32, elements: !688, runtimeLang: DW_LANG_C_plus_plus)
!690 = !DIEnumerator(name: "P_ALL", value: 0)
!691 = !DIEnumerator(name: "P_PID", value: 1)
!692 = !DIEnumerator(name: "P_PGID", value: 2)
!693 = !DIDerivedType(tag: DW_TAG_typedef, file: !3, scope: !10, name: "_Float128", line: 1, size: 128, align: 128, baseType: !678)
!694 = !DIBasicType(tag: DW_TAG_base_type, name: "float", size: 32, align: 32, encoding: DW_ATE_float)
!695 = !DIDerivedType(tag: DW_TAG_typedef, file: !3, scope: !10, name: "_Float32", line: 1, size: 32, align: 32, baseType: !694)
!696 = !DIBasicType(tag: DW_TAG_base_type, name: "double", size: 64, align: 64, encoding: DW_ATE_float)
!697 = !DIDerivedType(tag: DW_TAG_typedef, file: !3, scope: !10, name: "_Float64", line: 1, size: 64, align: 64, baseType: !696)
!698 = !DIDerivedType(tag: DW_TAG_typedef, file: !3, scope: !10, name: "_Float32x", line: 1, size: 64, align: 64, baseType: !696)
!699 = !DIBasicType(tag: DW_TAG_base_type, name: "80-bit extended precision", size: 128, align: 128, encoding: DW_ATE_signed)
!700 = !DIDerivedType(tag: DW_TAG_typedef, file: !3, scope: !10, name: "_Float64x", line: 1, size: 128, align: 128, baseType: !699)
!701 = !{ !703, !704 }
!702 = !DICompositeType(tag: DW_TAG_structure_type, file: !3, scope: !10, name: "div_t", line: 1, size: 64, align: 32, elements: !701, runtimeLang: DW_LANG_C_plus_plus)
!703 = !DIDerivedType(tag: DW_TAG_member, file: !3, scope: !702, name: "quot", line: 1, size: 32, align: 32, baseType: !61)
!704 = !DIDerivedType(tag: DW_TAG_member, file: !3, scope: !702, name: "rem", line: 1, size: 32, align: 32, offset: 32, baseType: !61)
!705 = !DIDerivedType(tag: DW_TAG_typedef, file: !3, scope: !10, name: "div_t", line: 1, size: 64, align: 32, baseType: !702)
!706 = !{ !708, !709 }
!707 = !DICompositeType(tag: DW_TAG_structure_type, file: !3, scope: !10, name: "ldiv_t", line: 1, size: 128, align: 64, elements: !706, runtimeLang: DW_LANG_C_plus_plus)
!708 = !DIDerivedType(tag: DW_TAG_member, file: !3, scope: !707, name: "quot", line: 1, size: 64, align: 64, baseType: !32)
!709 = !DIDerivedType(tag: DW_TAG_member, file: !3, scope: !707, name: "rem", line: 1, size: 64, align: 64, offset: 64, baseType: !32)
!710 = !DIDerivedType(tag: DW_TAG_typedef, file: !3, scope: !10, name: "ldiv_t", line: 1, size: 128, align: 64, baseType: !707)
!711 = !{ !714, !715 }
!712 = !DICompositeType(tag: DW_TAG_structure_type, file: !3, scope: !10, name: "lldiv_t", line: 1, size: 128, align: 64, elements: !711, runtimeLang: DW_LANG_C_plus_plus)
!713 = !DIBasicType(tag: DW_TAG_base_type, name: "long long", size: 64, align: 64, encoding: DW_ATE_signed)
!714 = !DIDerivedType(tag: DW_TAG_member, file: !3, scope: !712, name: "quot", line: 1, size: 64, align: 64, baseType: !713)
!715 = !DIDerivedType(tag: DW_TAG_member, file: !3, scope: !712, name: "rem", line: 1, size: 64, align: 64, offset: 64, baseType: !713)
!716 = !DIDerivedType(tag: DW_TAG_typedef, file: !3, scope: !10, name: "lldiv_t", line: 1, size: 128, align: 64, baseType: !712)
!717 = !DIDerivedType(tag: DW_TAG_typedef, file: !3, scope: !10, name: "__locale_t", line: 1, size: 64, align: 64, baseType: !257)
!718 = !DIDerivedType(tag: DW_TAG_typedef, file: !3, scope: !10, name: "locale_t", line: 1, size: 64, align: 64, baseType: !257)
!719 = !DIBasicType(tag: DW_TAG_base_type, name: "unsigned char", size: 8, align: 8, encoding: DW_ATE_unsigned_char)
!720 = !DIDerivedType(tag: DW_TAG_typedef, file: !3, scope: !10, name: "__u_char", line: 1, size: 8, align: 8, baseType: !719)
!721 = !DIDerivedType(tag: DW_TAG_typedef, file: !3, scope: !10, name: "__u_short", line: 1, size: 16, align: 16, baseType: !79)
!722 = !DIDerivedType(tag: DW_TAG_typedef, file: !3, scope: !10, name: "__u_int", line: 1, size: 32, align: 32, baseType: !97)
!723 = !DIDerivedType(tag: DW_TAG_typedef, file: !3, scope: !10, name: "__u_long", line: 1, size: 64, align: 64, baseType: !30)
!724 = !DIDerivedType(tag: DW_TAG_typedef, file: !3, scope: !10, name: "__int8_t", line: 1, size: 8, align: 8, baseType: !43)
!725 = !DIDerivedType(tag: DW_TAG_typedef, file: !3, scope: !10, name: "__uint8_t", line: 1, size: 8, align: 8, baseType: !719)
!726 = !DIBasicType(tag: DW_TAG_base_type, name: "short", size: 16, align: 16, encoding: DW_ATE_signed)
!727 = !DIDerivedType(tag: DW_TAG_typedef, file: !3, scope: !10, name: "__int16_t", line: 1, size: 16, align: 16, baseType: !726)
!728 = !DIDerivedType(tag: DW_TAG_typedef, file: !3, scope: !10, name: "__uint16_t", line: 1, size: 16, align: 16, baseType: !79)
!729 = !DIDerivedType(tag: DW_TAG_typedef, file: !3, scope: !10, name: "__int32_t", line: 1, size: 32, align: 32, baseType: !61)
!730 = !DIDerivedType(tag: DW_TAG_typedef, file: !3, scope: !10, name: "__uint32_t", line: 1, size: 32, align: 32, baseType: !97)
!731 = !DIDerivedType(tag: DW_TAG_typedef, file: !3, scope: !10, name: "__int64_t", line: 1, size: 64, align: 64, baseType: !32)
!732 = !DIDerivedType(tag: DW_TAG_typedef, file: !3, scope: !10, name: "__uint64_t", line: 1, size: 64, align: 64, baseType: !30)
!733 = !DIDerivedType(tag: DW_TAG_typedef, file: !3, scope: !10, name: "__int_least8_t", line: 1, size: 8, align: 8, baseType: !43)
!734 = !DIDerivedType(tag: DW_TAG_typedef, file: !3, scope: !10, name: "__uint_least8_t", line: 1, size: 8, align: 8, baseType: !719)
!735 = !DIDerivedType(tag: DW_TAG_typedef, file: !3, scope: !10, name: "__int_least16_t", line: 1, size: 16, align: 16, baseType: !726)
!736 = !DIDerivedType(tag: DW_TAG_typedef, file: !3, scope: !10, name: "__uint_least16_t", line: 1, size: 16, align: 16, baseType: !79)
!737 = !DIDerivedType(tag: DW_TAG_typedef, file: !3, scope: !10, name: "__int_least32_t", line: 1, size: 32, align: 32, baseType: !61)
!738 = !DIDerivedType(tag: DW_TAG_typedef, file: !3, scope: !10, name: "__uint_least32_t", line: 1, size: 32, align: 32, baseType: !97)
!739 = !DIDerivedType(tag: DW_TAG_typedef, file: !3, scope: !10, name: "__int_least64_t", line: 1, size: 64, align: 64, baseType: !32)
!740 = !DIDerivedType(tag: DW_TAG_typedef, file: !3, scope: !10, name: "__uint_least64_t", line: 1, size: 64, align: 64, baseType: !30)
!741 = !DIDerivedType(tag: DW_TAG_typedef, file: !3, scope: !10, name: "__quad_t", line: 1, size: 64, align: 64, baseType: !32)
!742 = !DIDerivedType(tag: DW_TAG_typedef, file: !3, scope: !10, name: "__u_quad_t", line: 1, size: 64, align: 64, baseType: !30)
!743 = !DIDerivedType(tag: DW_TAG_typedef, file: !3, scope: !10, name: "__intmax_t", line: 1, size: 64, align: 64, baseType: !32)
!744 = !DIDerivedType(tag: DW_TAG_typedef, file: !3, scope: !10, name: "__uintmax_t", line: 1, size: 64, align: 64, baseType: !30)
!745 = !DIDerivedType(tag: DW_TAG_typedef, file: !3, scope: !10, name: "__dev_t", line: 1, size: 64, align: 64, baseType: !30)
!746 = !DIDerivedType(tag: DW_TAG_typedef, file: !3, scope: !10, name: "__uid_t", line: 1, size: 32, align: 32, baseType: !97)
!747 = !DIDerivedType(tag: DW_TAG_typedef, file: !3, scope: !10, name: "__gid_t", line: 1, size: 32, align: 32, baseType: !97)
!748 = !DIDerivedType(tag: DW_TAG_typedef, file: !3, scope: !10, name: "__ino_t", line: 1, size: 64, align: 64, baseType: !30)
!749 = !DIDerivedType(tag: DW_TAG_typedef, file: !3, scope: !10, name: "__ino64_t", line: 1, size: 64, align: 64, baseType: !30)
!750 = !DIDerivedType(tag: DW_TAG_typedef, file: !3, scope: !10, name: "__mode_t", line: 1, size: 32, align: 32, baseType: !97)
!751 = !DIDerivedType(tag: DW_TAG_typedef, file: !3, scope: !10, name: "__nlink_t", line: 1, size: 64, align: 64, baseType: !30)
!752 = !DIDerivedType(tag: DW_TAG_typedef, file: !3, scope: !10, name: "__off_t", line: 1, size: 64, align: 64, baseType: !32)
!753 = !DIDerivedType(tag: DW_TAG_typedef, file: !3, scope: !10, name: "__pid_t", line: 1, size: 32, align: 32, baseType: !61)
!754 = !{ !759 }
!755 = !DICompositeType(tag: DW_TAG_structure_type, file: !3, scope: !10, name: "__fsid_t", line: 1, size: 64, align: 32, elements: !754, runtimeLang: DW_LANG_C_plus_plus)
!756 = !DISubrange(count: 2)
!757 = !{ !756 }
!758 = !DICompositeType(tag: DW_TAG_array_type, size: 64, align: 32, baseType: !61, elements: !757)
!759 = !DIDerivedType(tag: DW_TAG_member, file: !3, scope: !755, name: "__val", line: 1, size: 64, align: 32, baseType: !758)
!760 = !DIDerivedType(tag: DW_TAG_typedef, file: !3, scope: !10, name: "__fsid_t", line: 1, size: 64, align: 32, baseType: !755)
!761 = !DIDerivedType(tag: DW_TAG_typedef, file: !3, scope: !10, name: "__clock_t", line: 1, size: 64, align: 64, baseType: !32)
!762 = !DIDerivedType(tag: DW_TAG_typedef, file: !3, scope: !10, name: "__rlim_t", line: 1, size: 64, align: 64, baseType: !30)
!763 = !DIDerivedType(tag: DW_TAG_typedef, file: !3, scope: !10, name: "__rlim64_t", line: 1, size: 64, align: 64, baseType: !30)
!764 = !DIDerivedType(tag: DW_TAG_typedef, file: !3, scope: !10, name: "__id_t", line: 1, size: 32, align: 32, baseType: !97)
!765 = !DIDerivedType(tag: DW_TAG_typedef, file: !3, scope: !10, name: "__time_t", line: 1, size: 64, align: 64, baseType: !32)
!766 = !DIDerivedType(tag: DW_TAG_typedef, file: !3, scope: !10, name: "__useconds_t", line: 1, size: 32, align: 32, baseType: !97)
!767 = !DIDerivedType(tag: DW_TAG_typedef, file: !3, scope: !10, name: "__suseconds_t", line: 1, size: 64, align: 64, baseType: !32)
!768 = !DIDerivedType(tag: DW_TAG_typedef, file: !3, scope: !10, name: "__daddr_t", line: 1, size: 32, align: 32, baseType: !61)
!769 = !DIDerivedType(tag: DW_TAG_typedef, file: !3, scope: !10, name: "__key_t", line: 1, size: 32, align: 32, baseType: !61)
!770 = !DIDerivedType(tag: DW_TAG_typedef, file: !3, scope: !10, name: "__clockid_t", line: 1, size: 32, align: 32, baseType: !61)
!771 = !DIDerivedType(tag: DW_TAG_typedef, file: !3, scope: !10, name: "__timer_t", line: 1, size: 64, align: 64, baseType: !17)
!772 = !DIDerivedType(tag: DW_TAG_typedef, file: !3, scope: !10, name: "__blksize_t", line: 1, size: 64, align: 64, baseType: !32)
!773 = !DIDerivedType(tag: DW_TAG_typedef, file: !3, scope: !10, name: "__blkcnt_t", line: 1, size: 64, align: 64, baseType: !32)
!774 = !DIDerivedType(tag: DW_TAG_typedef, file: !3, scope: !10, name: "__blkcnt64_t", line: 1, size: 64, align: 64, baseType: !32)
!775 = !DIDerivedType(tag: DW_TAG_typedef, file: !3, scope: !10, name: "__fsblkcnt_t", line: 1, size: 64, align: 64, baseType: !30)
!776 = !DIDerivedType(tag: DW_TAG_typedef, file: !3, scope: !10, name: "__fsblkcnt64_t", line: 1, size: 64, align: 64, baseType: !30)
!777 = !DIDerivedType(tag: DW_TAG_typedef, file: !3, scope: !10, name: "__fsfilcnt_t", line: 1, size: 64, align: 64, baseType: !30)
!778 = !DIDerivedType(tag: DW_TAG_typedef, file: !3, scope: !10, name: "__fsfilcnt64_t", line: 1, size: 64, align: 64, baseType: !30)
!779 = !DIDerivedType(tag: DW_TAG_typedef, file: !3, scope: !10, name: "__syscall_slong_t", line: 1, size: 64, align: 64, baseType: !32)
!780 = !DIDerivedType(tag: DW_TAG_typedef, file: !3, scope: !10, name: "__syscall_ulong_t", line: 1, size: 64, align: 64, baseType: !30)
!781 = !DIDerivedType(tag: DW_TAG_typedef, file: !3, scope: !10, name: "__loff_t", line: 1, size: 64, align: 64, baseType: !32)
!782 = !DIDerivedType(tag: DW_TAG_typedef, file: !3, scope: !10, name: "__caddr_t", line: 1, size: 64, align: 64, baseType: !44)
!783 = !DIDerivedType(tag: DW_TAG_typedef, file: !3, scope: !10, name: "__socklen_t", line: 1, size: 32, align: 32, baseType: !97)
!784 = !DIDerivedType(tag: DW_TAG_typedef, file: !3, scope: !10, name: "__sig_atomic_t", line: 1, size: 32, align: 32, baseType: !61)
!785 = !DIDerivedType(tag: DW_TAG_typedef, file: !3, scope: !10, name: "pid_t", line: 1, size: 32, align: 32, baseType: !61)
!786 = !DIDerivedType(tag: DW_TAG_typedef, file: !3, scope: !10, name: "clock_t", line: 1, size: 64, align: 64, baseType: !32)
!787 = !DIDerivedType(tag: DW_TAG_typedef, file: !3, scope: !10, name: "clockid_t", line: 1, size: 32, align: 32, baseType: !61)
!788 = !DIDerivedType(tag: DW_TAG_typedef, file: !3, scope: !10, name: "time_t", line: 1, size: 64, align: 64, baseType: !32)
!789 = !DIDerivedType(tag: DW_TAG_typedef, file: !3, scope: !10, name: "timer_t", line: 1, size: 64, align: 64, baseType: !17)
!790 = !DIDerivedType(tag: DW_TAG_typedef, file: !3, scope: !10, name: "ulong", line: 1, size: 64, align: 64, baseType: !30)
!791 = !DIDerivedType(tag: DW_TAG_typedef, file: !3, scope: !10, name: "uint", line: 1, size: 32, align: 32, baseType: !97)
!792 = !DIDerivedType(tag: DW_TAG_typedef, file: !3, scope: !10, name: "int32_t", line: 1, size: 32, align: 32, baseType: !61)
!793 = !{ !795 }
!794 = !DICompositeType(tag: DW_TAG_structure_type, file: !3, scope: !10, name: "__sigset_t", line: 1, size: 1024, align: 64, elements: !793, runtimeLang: DW_LANG_C_plus_plus)
!795 = !DIDerivedType(tag: DW_TAG_member, file: !3, scope: !794, name: "__val", line: 1, size: 1024, align: 64, baseType: !328)
!796 = !DIDerivedType(tag: DW_TAG_typedef, file: !3, scope: !10, name: "__sigset_t", line: 1, size: 1024, align: 64, baseType: !794)
!797 = !{ !799, !800 }
!798 = !DICompositeType(tag: DW_TAG_structure_type, file: !3, scope: !10, name: "timeval", line: 1, size: 128, align: 64, elements: !797, runtimeLang: DW_LANG_C_plus_plus)
!799 = !DIDerivedType(tag: DW_TAG_member, file: !3, scope: !798, name: "tv_sec", line: 1, size: 64, align: 64, baseType: !32)
!800 = !DIDerivedType(tag: DW_TAG_member, file: !3, scope: !798, name: "tv_usec", line: 1, size: 64, align: 64, offset: 64, baseType: !32)
!801 = !{ !803, !804 }
!802 = !DICompositeType(tag: DW_TAG_structure_type, file: !3, scope: !10, name: "timespec", line: 1, size: 128, align: 64, elements: !801, runtimeLang: DW_LANG_C_plus_plus)
!803 = !DIDerivedType(tag: DW_TAG_member, file: !3, scope: !802, name: "tv_sec", line: 1, size: 64, align: 64, baseType: !32)
!804 = !DIDerivedType(tag: DW_TAG_member, file: !3, scope: !802, name: "tv_nsec", line: 1, size: 64, align: 64, offset: 64, baseType: !32)
!805 = !DIDerivedType(tag: DW_TAG_typedef, file: !3, scope: !10, name: "__fd_mask", line: 1, size: 64, align: 64, baseType: !32)
!806 = !{ !809 }
!807 = !DICompositeType(tag: DW_TAG_structure_type, file: !3, scope: !10, name: "fd_set", line: 1, size: 1024, align: 64, elements: !806, runtimeLang: DW_LANG_C_plus_plus)
!808 = !DICompositeType(tag: DW_TAG_array_type, size: 1024, align: 64, baseType: !32, elements: !51)
!809 = !DIDerivedType(tag: DW_TAG_member, file: !3, scope: !807, name: "fds_bits", line: 1, size: 1024, align: 64, baseType: !808)
!810 = !DIDerivedType(tag: DW_TAG_typedef, file: !3, scope: !10, name: "fd_set", line: 1, size: 1024, align: 64, baseType: !807)
!811 = !{ !814, !815 }
!812 = !DICompositeType(tag: DW_TAG_structure_type, file: !3, scope: !10, name: "__pthread_internal_list", line: 1, size: 128, align: 64, elements: !811, runtimeLang: DW_LANG_C_plus_plus)
!813 = !DIDerivedType(tag: DW_TAG_pointer_type, size: 64, align: 64, baseType: !812)
!814 = !DIDerivedType(tag: DW_TAG_member, file: !3, scope: !812, name: "__prev", line: 1, size: 64, align: 64, baseType: !813)
!815 = !DIDerivedType(tag: DW_TAG_member, file: !3, scope: !812, name: "__next", line: 1, size: 64, align: 64, offset: 64, baseType: !813)
!816 = !DIDerivedType(tag: DW_TAG_typedef, file: !3, scope: !10, name: "__pthread_list_t", line: 1, size: 128, align: 64, baseType: !812)
!817 = !{ !820 }
!818 = !DICompositeType(tag: DW_TAG_structure_type, file: !3, scope: !10, name: "__pthread_internal_slist", line: 1, size: 64, align: 64, elements: !817, runtimeLang: DW_LANG_C_plus_plus)
!819 = !DIDerivedType(tag: DW_TAG_pointer_type, size: 64, align: 64, baseType: !818)
!820 = !DIDerivedType(tag: DW_TAG_member, file: !3, scope: !818, name: "__next", line: 1, size: 64, align: 64, baseType: !819)
!821 = !{ !823, !824, !825, !826, !827, !828, !829, !830 }
!822 = !DICompositeType(tag: DW_TAG_structure_type, file: !3, scope: !10, name: "__pthread_mutex_s", line: 1, size: 320, align: 64, elements: !821, runtimeLang: DW_LANG_C_plus_plus)
!823 = !DIDerivedType(tag: DW_TAG_member, file: !3, scope: !822, name: "__lock", line: 1, size: 32, align: 32, baseType: !61)
!824 = !DIDerivedType(tag: DW_TAG_member, file: !3, scope: !822, name: "__count", line: 1, size: 32, align: 32, offset: 32, baseType: !97)
!825 = !DIDerivedType(tag: DW_TAG_member, file: !3, scope: !822, name: "__owner", line: 1, size: 32, align: 32, offset: 64, baseType: !61)
!826 = !DIDerivedType(tag: DW_TAG_member, file: !3, scope: !822, name: "__nusers", line: 1, size: 32, align: 32, offset: 96, baseType: !97)
!827 = !DIDerivedType(tag: DW_TAG_member, file: !3, scope: !822, name: "__kind", line: 1, size: 32, align: 32, offset: 128, baseType: !61)
!828 = !DIDerivedType(tag: DW_TAG_member, file: !3, scope: !822, name: "__spins", line: 1, size: 16, align: 16, offset: 160, baseType: !726)
!829 = !DIDerivedType(tag: DW_TAG_member, file: !3, scope: !822, name: "__elision", line: 1, size: 16, align: 16, offset: 176, baseType: !726)
!830 = !DIDerivedType(tag: DW_TAG_member, file: !3, scope: !822, name: "__list", line: 1, size: 128, align: 64, offset: 192, baseType: !812)
!831 = !{ !833, !834, !835, !836, !837, !838, !839, !840, !841, !845, !846, !847 }
!832 = !DICompositeType(tag: DW_TAG_structure_type, file: !3, scope: !10, name: "__pthread_rwlock_arch_t", line: 1, size: 448, align: 64, elements: !831, runtimeLang: DW_LANG_C_plus_plus)
!833 = !DIDerivedType(tag: DW_TAG_member, file: !3, scope: !832, name: "__readers", line: 1, size: 32, align: 32, baseType: !97)
!834 = !DIDerivedType(tag: DW_TAG_member, file: !3, scope: !832, name: "__writers", line: 1, size: 32, align: 32, offset: 32, baseType: !97)
!835 = !DIDerivedType(tag: DW_TAG_member, file: !3, scope: !832, name: "__wrphase_futex", line: 1, size: 32, align: 32, offset: 64, baseType: !97)
!836 = !DIDerivedType(tag: DW_TAG_member, file: !3, scope: !832, name: "__writers_futex", line: 1, size: 32, align: 32, offset: 96, baseType: !97)
!837 = !DIDerivedType(tag: DW_TAG_member, file: !3, scope: !832, name: "__pad3", line: 1, size: 32, align: 32, offset: 128, baseType: !97)
!838 = !DIDerivedType(tag: DW_TAG_member, file: !3, scope: !832, name: "__pad4", line: 1, size: 32, align: 32, offset: 160, baseType: !97)
!839 = !DIDerivedType(tag: DW_TAG_member, file: !3, scope: !832, name: "__cur_writer", line: 1, size: 32, align: 32, offset: 192, baseType: !61)
!840 = !DIDerivedType(tag: DW_TAG_member, file: !3, scope: !832, name: "__shared", line: 1, size: 32, align: 32, offset: 224, baseType: !61)
!841 = !DIDerivedType(tag: DW_TAG_member, file: !3, scope: !832, name: "__rwelision", line: 1, size: 8, align: 8, offset: 256, baseType: !43)
!842 = !DISubrange(count: 7)
!843 = !{ !842 }
!844 = !DICompositeType(tag: DW_TAG_array_type, size: 56, align: 8, baseType: !719, elements: !843)
!845 = !DIDerivedType(tag: DW_TAG_member, file: !3, scope: !832, name: "__pad1", line: 1, size: 56, align: 8, offset: 264, baseType: !844)
!846 = !DIDerivedType(tag: DW_TAG_member, file: !3, scope: !832, name: "__pad2", line: 1, size: 64, align: 64, offset: 320, baseType: !30)
!847 = !DIDerivedType(tag: DW_TAG_member, file: !3, scope: !832, name: "__flags", line: 1, size: 32, align: 32, offset: 384, baseType: !97)
!848 = !{ !867, !867, !869, !870, !871, !872, !873 }
!849 = !DICompositeType(tag: DW_TAG_structure_type, file: !3, scope: !10, name: "__pthread_cond_s", line: 1, size: 384, align: 64, elements: !848, runtimeLang: DW_LANG_C_plus_plus)
!850 = !{ !857, !858 }
!851 = !DICompositeType(tag: DW_TAG_union_type, file: !3, scope: !849, line: 1, size: 64, align: 64, elements: !850, runtimeLang: DW_LANG_C_plus_plus)
!852 = !{ !854, !855 }
!853 = !DICompositeType(tag: DW_TAG_structure_type, file: !3, scope: !851, name: "_ZN16__pthread_cond_s4__C2Ut_E", line: 1, size: 64, align: 32, elements: !852, runtimeLang: DW_LANG_C_plus_plus)
!854 = !DIDerivedType(tag: DW_TAG_member, file: !3, scope: !853, name: "__low", line: 1, size: 32, align: 32, baseType: !97)
!855 = !DIDerivedType(tag: DW_TAG_member, file: !3, scope: !853, name: "__high", line: 1, size: 32, align: 32, offset: 32, baseType: !97)
!856 = !DIBasicType(tag: DW_TAG_base_type, name: "unsigned long long", size: 64, align: 64, encoding: DW_ATE_unsigned)
!857 = !DIDerivedType(tag: DW_TAG_member, file: !3, scope: !851, name: "__wseq", line: 1, size: 64, align: 64, baseType: !856)
!858 = !DIDerivedType(tag: DW_TAG_member, file: !3, scope: !851, name: "__wseq32", line: 1, size: 64, align: 32, baseType: !853)
!859 = !{ !865, !866 }
!860 = !DICompositeType(tag: DW_TAG_union_type, file: !3, scope: !849, line: 1, size: 64, align: 64, elements: !859, runtimeLang: DW_LANG_C_plus_plus)
!861 = !{ !863, !864 }
!862 = !DICompositeType(tag: DW_TAG_structure_type, file: !3, scope: !860, name: "_ZN16__pthread_cond_s4__C3Ut_E", line: 1, size: 64, align: 32, elements: !861, runtimeLang: DW_LANG_C_plus_plus)
!863 = !DIDerivedType(tag: DW_TAG_member, file: !3, scope: !862, name: "__low", line: 1, size: 32, align: 32, baseType: !97)
!864 = !DIDerivedType(tag: DW_TAG_member, file: !3, scope: !862, name: "__high", line: 1, size: 32, align: 32, offset: 32, baseType: !97)
!865 = !DIDerivedType(tag: DW_TAG_member, file: !3, scope: !860, name: "__g1_start", line: 1, size: 64, align: 64, baseType: !856)
!866 = !DIDerivedType(tag: DW_TAG_member, file: !3, scope: !860, name: "__g1_start32", line: 1, size: 64, align: 32, baseType: !862)
!867 = !DIDerivedType(tag: DW_TAG_member, file: !3, scope: !849, line: 1, size: 64, align: 64, baseType: !851)
!868 = !DICompositeType(tag: DW_TAG_array_type, size: 64, align: 32, baseType: !97, elements: !757)
!869 = !DIDerivedType(tag: DW_TAG_member, file: !3, scope: !849, name: "__g_refs", line: 1, size: 64, align: 32, offset: 128, baseType: !868)
!870 = !DIDerivedType(tag: DW_TAG_member, file: !3, scope: !849, name: "__g_size", line: 1, size: 64, align: 32, offset: 192, baseType: !868)
!871 = !DIDerivedType(tag: DW_TAG_member, file: !3, scope: !849, name: "__g1_orig_size", line: 1, size: 32, align: 32, offset: 256, baseType: !97)
!872 = !DIDerivedType(tag: DW_TAG_member, file: !3, scope: !849, name: "__wrefs", line: 1, size: 32, align: 32, offset: 288, baseType: !97)
!873 = !DIDerivedType(tag: DW_TAG_member, file: !3, scope: !849, name: "__g_signals", line: 1, size: 64, align: 32, offset: 320, baseType: !868)
!874 = !DIDerivedType(tag: DW_TAG_typedef, file: !3, scope: !10, name: "pthread_t", line: 1, size: 64, align: 64, baseType: !30)
!875 = !{ !878, !879 }
!876 = !DICompositeType(tag: DW_TAG_union_type, file: !3, scope: !10, name: "pthread_mutexattr_t", line: 1, size: 32, align: 32, elements: !875, runtimeLang: DW_LANG_C_plus_plus)
!877 = !DICompositeType(tag: DW_TAG_array_type, size: 32, align: 8, baseType: !43, elements: !69)
!878 = !DIDerivedType(tag: DW_TAG_member, file: !3, scope: !876, name: "__size", line: 1, size: 32, align: 8, baseType: !877)
!879 = !DIDerivedType(tag: DW_TAG_member, file: !3, scope: !876, name: "__align", line: 1, size: 32, align: 32, baseType: !61)
!880 = !DIDerivedType(tag: DW_TAG_typedef, file: !3, scope: !10, name: "pthread_mutexattr_t", line: 1, size: 32, align: 32, baseType: !876)
!881 = !{ !883, !884 }
!882 = !DICompositeType(tag: DW_TAG_union_type, file: !3, scope: !10, name: "pthread_condattr_t", line: 1, size: 32, align: 32, elements: !881, runtimeLang: DW_LANG_C_plus_plus)
!883 = !DIDerivedType(tag: DW_TAG_member, file: !3, scope: !882, name: "__size", line: 1, size: 32, align: 8, baseType: !877)
!884 = !DIDerivedType(tag: DW_TAG_member, file: !3, scope: !882, name: "__align", line: 1, size: 32, align: 32, baseType: !61)
!885 = !DIDerivedType(tag: DW_TAG_typedef, file: !3, scope: !10, name: "pthread_condattr_t", line: 1, size: 32, align: 32, baseType: !882)
!886 = !DIDerivedType(tag: DW_TAG_typedef, file: !3, scope: !10, name: "pthread_key_t", line: 1, size: 32, align: 32, baseType: !97)
!887 = !DIDerivedType(tag: DW_TAG_typedef, file: !3, scope: !10, name: "pthread_once_t", line: 1, size: 32, align: 32, baseType: !61)
!888 = !{ !893, !894 }
!889 = !DICompositeType(tag: DW_TAG_union_type, file: !3, scope: !10, name: "pthread_attr_t", line: 1, size: 448, align: 64, elements: !888, runtimeLang: DW_LANG_C_plus_plus)
!890 = !DISubrange(count: 56)
!891 = !{ !890 }
!892 = !DICompositeType(tag: DW_TAG_array_type, size: 448, align: 8, baseType: !43, elements: !891)
!893 = !DIDerivedType(tag: DW_TAG_member, file: !3, scope: !889, name: "__size", line: 1, size: 448, align: 8, baseType: !892)
!894 = !DIDerivedType(tag: DW_TAG_member, file: !3, scope: !889, name: "__align", line: 1, size: 64, align: 64, baseType: !32)
!895 = !DIDerivedType(tag: DW_TAG_typedef, file: !3, scope: !10, name: "pthread_attr_t", line: 1, size: 448, align: 64, baseType: !889)
!896 = !{ !898, !902, !903 }
!897 = !DICompositeType(tag: DW_TAG_union_type, file: !3, scope: !10, name: "pthread_mutex_t", line: 1, size: 320, align: 64, elements: !896, runtimeLang: DW_LANG_C_plus_plus)
!898 = !DIDerivedType(tag: DW_TAG_member, file: !3, scope: !897, name: "__data", line: 1, size: 320, align: 64, baseType: !822)
!899 = !DISubrange(count: 40)
!900 = !{ !899 }
!901 = !DICompositeType(tag: DW_TAG_array_type, size: 320, align: 8, baseType: !43, elements: !900)
!902 = !DIDerivedType(tag: DW_TAG_member, file: !3, scope: !897, name: "__size", line: 1, size: 320, align: 8, baseType: !901)
!903 = !DIDerivedType(tag: DW_TAG_member, file: !3, scope: !897, name: "__align", line: 1, size: 64, align: 64, baseType: !32)
!904 = !DIDerivedType(tag: DW_TAG_typedef, file: !3, scope: !10, name: "pthread_mutex_t", line: 1, size: 320, align: 64, baseType: !897)
!905 = !{ !907, !911, !912 }
!906 = !DICompositeType(tag: DW_TAG_union_type, file: !3, scope: !10, name: "pthread_cond_t", line: 1, size: 384, align: 64, elements: !905, runtimeLang: DW_LANG_C_plus_plus)
!907 = !DIDerivedType(tag: DW_TAG_member, file: !3, scope: !906, name: "__data", line: 1, size: 384, align: 64, baseType: !849)
!908 = !DISubrange(count: 48)
!909 = !{ !908 }
!910 = !DICompositeType(tag: DW_TAG_array_type, size: 384, align: 8, baseType: !43, elements: !909)
!911 = !DIDerivedType(tag: DW_TAG_member, file: !3, scope: !906, name: "__size", line: 1, size: 384, align: 8, baseType: !910)
!912 = !DIDerivedType(tag: DW_TAG_member, file: !3, scope: !906, name: "__align", line: 1, size: 64, align: 64, baseType: !713)
!913 = !DIDerivedType(tag: DW_TAG_typedef, file: !3, scope: !10, name: "pthread_cond_t", line: 1, size: 384, align: 64, baseType: !906)
!914 = !{ !916, !917, !918 }
!915 = !DICompositeType(tag: DW_TAG_union_type, file: !3, scope: !10, name: "pthread_rwlock_t", line: 1, size: 448, align: 64, elements: !914, runtimeLang: DW_LANG_C_plus_plus)
!916 = !DIDerivedType(tag: DW_TAG_member, file: !3, scope: !915, name: "__data", line: 1, size: 448, align: 64, baseType: !832)
!917 = !DIDerivedType(tag: DW_TAG_member, file: !3, scope: !915, name: "__size", line: 1, size: 448, align: 8, baseType: !892)
!918 = !DIDerivedType(tag: DW_TAG_member, file: !3, scope: !915, name: "__align", line: 1, size: 64, align: 64, baseType: !32)
!919 = !DIDerivedType(tag: DW_TAG_typedef, file: !3, scope: !10, name: "pthread_rwlock_t", line: 1, size: 448, align: 64, baseType: !915)
!920 = !{ !922, !923 }
!921 = !DICompositeType(tag: DW_TAG_union_type, file: !3, scope: !10, name: "pthread_rwlockattr_t", line: 1, size: 64, align: 64, elements: !920, runtimeLang: DW_LANG_C_plus_plus)
!922 = !DIDerivedType(tag: DW_TAG_member, file: !3, scope: !921, name: "__size", line: 1, size: 64, align: 8, baseType: !537)
!923 = !DIDerivedType(tag: DW_TAG_member, file: !3, scope: !921, name: "__align", line: 1, size: 64, align: 64, baseType: !32)
!924 = !DIDerivedType(tag: DW_TAG_typedef, file: !3, scope: !10, name: "pthread_rwlockattr_t", line: 1, size: 64, align: 64, baseType: !921)
!925 = !DIDerivedType(tag: DW_TAG_typedef, file: !3, scope: !10, name: "pthread_spinlock_t", line: 1, size: 32, align: 32, baseType: !61)
!926 = !{ !931, !932 }
!927 = !DICompositeType(tag: DW_TAG_union_type, file: !3, scope: !10, name: "pthread_barrier_t", line: 1, size: 256, align: 64, elements: !926, runtimeLang: DW_LANG_C_plus_plus)
!928 = !DISubrange(count: 32)
!929 = !{ !928 }
!930 = !DICompositeType(tag: DW_TAG_array_type, size: 256, align: 8, baseType: !43, elements: !929)
!931 = !DIDerivedType(tag: DW_TAG_member, file: !3, scope: !927, name: "__size", line: 1, size: 256, align: 8, baseType: !930)
!932 = !DIDerivedType(tag: DW_TAG_member, file: !3, scope: !927, name: "__align", line: 1, size: 64, align: 64, baseType: !32)
!933 = !DIDerivedType(tag: DW_TAG_typedef, file: !3, scope: !10, name: "pthread_barrier_t", line: 1, size: 256, align: 64, baseType: !927)
!934 = !{ !936, !937 }
!935 = !DICompositeType(tag: DW_TAG_union_type, file: !3, scope: !10, name: "pthread_barrierattr_t", line: 1, size: 32, align: 32, elements: !934, runtimeLang: DW_LANG_C_plus_plus)
!936 = !DIDerivedType(tag: DW_TAG_member, file: !3, scope: !935, name: "__size", line: 1, size: 32, align: 8, baseType: !877)
!937 = !DIDerivedType(tag: DW_TAG_member, file: !3, scope: !935, name: "__align", line: 1, size: 32, align: 32, baseType: !61)
!938 = !DIDerivedType(tag: DW_TAG_typedef, file: !3, scope: !10, name: "pthread_barrierattr_t", line: 1, size: 32, align: 32, baseType: !935)
!939 = !{ !941, !942, !943, !944, !945, !946, !947 }
!940 = !DICompositeType(tag: DW_TAG_structure_type, file: !3, scope: !10, name: "random_data", line: 1, size: 384, align: 64, elements: !939, runtimeLang: DW_LANG_C_plus_plus)
!941 = !DIDerivedType(tag: DW_TAG_member, file: !3, scope: !940, name: "fptr", line: 1, size: 64, align: 64, baseType: !62)
!942 = !DIDerivedType(tag: DW_TAG_member, file: !3, scope: !940, name: "rptr", line: 1, size: 64, align: 64, offset: 64, baseType: !62)
!943 = !DIDerivedType(tag: DW_TAG_member, file: !3, scope: !940, name: "state", line: 1, size: 64, align: 64, offset: 128, baseType: !62)
!944 = !DIDerivedType(tag: DW_TAG_member, file: !3, scope: !940, name: "rand_type", line: 1, size: 32, align: 32, offset: 192, baseType: !61)
!945 = !DIDerivedType(tag: DW_TAG_member, file: !3, scope: !940, name: "rand_deg", line: 1, size: 32, align: 32, offset: 224, baseType: !61)
!946 = !DIDerivedType(tag: DW_TAG_member, file: !3, scope: !940, name: "rand_sep", line: 1, size: 32, align: 32, offset: 256, baseType: !61)
!947 = !DIDerivedType(tag: DW_TAG_member, file: !3, scope: !940, name: "end_ptr", line: 1, size: 64, align: 64, offset: 320, baseType: !62)
!948 = !{ !953, !954, !955, !956, !957 }
!949 = !DICompositeType(tag: DW_TAG_structure_type, file: !3, scope: !10, name: "drand48_data", line: 1, size: 192, align: 64, elements: !948, runtimeLang: DW_LANG_C_plus_plus)
!950 = !DISubrange(count: 3)
!951 = !{ !950 }
!952 = !DICompositeType(tag: DW_TAG_array_type, size: 48, align: 16, baseType: !79, elements: !951)
!953 = !DIDerivedType(tag: DW_TAG_member, file: !3, scope: !949, name: "__x", line: 1, size: 48, align: 16, baseType: !952)
!954 = !DIDerivedType(tag: DW_TAG_member, file: !3, scope: !949, name: "__old_x", line: 1, size: 48, align: 16, offset: 48, baseType: !952)
!955 = !DIDerivedType(tag: DW_TAG_member, file: !3, scope: !949, name: "__c", line: 1, size: 16, align: 16, offset: 96, baseType: !79)
!956 = !DIDerivedType(tag: DW_TAG_member, file: !3, scope: !949, name: "__init", line: 1, size: 16, align: 16, offset: 112, baseType: !79)
!957 = !DIDerivedType(tag: DW_TAG_member, file: !3, scope: !949, name: "__a", line: 1, size: 64, align: 64, offset: 128, baseType: !856)
!958 = !{ !61, !17, !17 }
!959 = !DISubroutineType(types: !958)
!960 = !DIDerivedType(tag: DW_TAG_pointer_type, size: 64, align: 64, baseType: !959)
!961 = !DIDerivedType(tag: DW_TAG_typedef, file: !3, scope: !10, name: "__compar_fn_t", line: 1, size: 64, align: 64, baseType: !960)
!962 = !{ !61, !17, !17, !17 }
!963 = !DISubroutineType(types: !962)
!964 = !DIDerivedType(tag: DW_TAG_pointer_type, size: 64, align: 64, baseType: !963)
!965 = !DIDerivedType(tag: DW_TAG_typedef, file: !3, scope: !10, name: "__compar_d_fn_t", line: 1, size: 64, align: 64, baseType: !964)
!966 = !DIDerivedType(tag: DW_TAG_typedef, file: !3, scope: !10, name: "double_t", line: 1, size: 64, align: 64, baseType: !696)
!967 = !{ !969, !970, !971 }
!968 = !DICompositeType(tag: DW_TAG_enumeration_type, file: !3, scope: !10, name: "coordinate", line: 1, size: 32, align: 32, elements: !967, runtimeLang: DW_LANG_C_plus_plus)
!969 = !DIEnumerator(name: "X", value: 0)
!970 = !DIEnumerator(name: "Y", value: 1)
!971 = !DIEnumerator(name: "Z", value: 2)
!972 = !{  }
!973 = !DICompositeType(tag: DW_TAG_class_type, file: !3, scope: !10, name: "T1DFunction", line: 1, size: 64, align: 64, elements: !972, runtimeLang: DW_LANG_C_plus_plus)
!974 = !{  }
!975 = !DICompositeType(tag: DW_TAG_class_type, file: !3, scope: !10, name: "T2DFunction", line: 1, size: 64, align: 64, elements: !974, runtimeLang: DW_LANG_C_plus_plus)
!976 = !{  }
!977 = !DICompositeType(tag: DW_TAG_class_type, file: !3, scope: !10, name: "T3DFunction", line: 1, size: 64, align: 64, elements: !976, runtimeLang: DW_LANG_C_plus_plus)
!978 = !{ !980, !982, !983 }
!979 = !DICompositeType(tag: DW_TAG_class_type, file: !3, scope: !10, name: "T2D_fix1", line: 1, size: 192, align: 64, elements: !978, runtimeLang: DW_LANG_C_plus_plus)
!980 = !DIDerivedType(tag: DW_TAG_inheritance, file: !3, scope: !979, name: "T1DFunction", line: 1, size: 64, align: 64, baseType: !973)
!981 = !DIDerivedType(tag: DW_TAG_pointer_type, size: 64, align: 64, baseType: !975)
!982 = !DIDerivedType(tag: DW_TAG_member, file: !3, scope: !979, name: "f", line: 1, size: 64, align: 64, offset: 64, baseType: !981)
!983 = !DIDerivedType(tag: DW_TAG_member, file: !3, scope: !979, name: "x", line: 1, size: 64, align: 64, offset: 128, baseType: !696)
!984 = !{ !986, !987, !988 }
!985 = !DICompositeType(tag: DW_TAG_class_type, file: !3, scope: !10, name: "T2D_fix2", line: 1, size: 192, align: 64, elements: !984, runtimeLang: DW_LANG_C_plus_plus)
!986 = !DIDerivedType(tag: DW_TAG_inheritance, file: !3, scope: !985, name: "T1DFunction", line: 1, size: 64, align: 64, baseType: !973)
!987 = !DIDerivedType(tag: DW_TAG_member, file: !3, scope: !985, name: "f", line: 1, size: 64, align: 64, offset: 64, baseType: !981)
!988 = !DIDerivedType(tag: DW_TAG_member, file: !3, scope: !985, name: "y", line: 1, size: 64, align: 64, offset: 128, baseType: !696)
!989 = !{ !991, !993, !994 }
!990 = !DICompositeType(tag: DW_TAG_class_type, file: !3, scope: !10, name: "T3D_fix1", line: 1, size: 192, align: 64, elements: !989, runtimeLang: DW_LANG_C_plus_plus)
!991 = !DIDerivedType(tag: DW_TAG_inheritance, file: !3, scope: !990, name: "T2DFunction", line: 1, size: 64, align: 64, baseType: !975)
!992 = !DIDerivedType(tag: DW_TAG_pointer_type, size: 64, align: 64, baseType: !977)
!993 = !DIDerivedType(tag: DW_TAG_member, file: !3, scope: !990, name: "f", line: 1, size: 64, align: 64, offset: 64, baseType: !992)
!994 = !DIDerivedType(tag: DW_TAG_member, file: !3, scope: !990, name: "x", line: 1, size: 64, align: 64, offset: 128, baseType: !696)
!995 = !{ !997, !998, !999 }
!996 = !DICompositeType(tag: DW_TAG_class_type, file: !3, scope: !10, name: "T3D_fix2", line: 1, size: 192, align: 64, elements: !995, runtimeLang: DW_LANG_C_plus_plus)
!997 = !DIDerivedType(tag: DW_TAG_inheritance, file: !3, scope: !996, name: "T2DFunction", line: 1, size: 64, align: 64, baseType: !975)
!998 = !DIDerivedType(tag: DW_TAG_member, file: !3, scope: !996, name: "f", line: 1, size: 64, align: 64, offset: 64, baseType: !992)
!999 = !DIDerivedType(tag: DW_TAG_member, file: !3, scope: !996, name: "y", line: 1, size: 64, align: 64, offset: 128, baseType: !696)
!1000 = !{ !1002, !1003, !1004 }
!1001 = !DICompositeType(tag: DW_TAG_class_type, file: !3, scope: !10, name: "T3D_fix3", line: 1, size: 192, align: 64, elements: !1000, runtimeLang: DW_LANG_C_plus_plus)
!1002 = !DIDerivedType(tag: DW_TAG_inheritance, file: !3, scope: !1001, name: "T2DFunction", line: 1, size: 64, align: 64, baseType: !975)
!1003 = !DIDerivedType(tag: DW_TAG_member, file: !3, scope: !1001, name: "f", line: 1, size: 64, align: 64, offset: 64, baseType: !992)
!1004 = !DIDerivedType(tag: DW_TAG_member, file: !3, scope: !1001, name: "z", line: 1, size: 64, align: 64, offset: 128, baseType: !696)
!1005 = !{ !1007, !1008, !1009, !1010 }
!1006 = !DICompositeType(tag: DW_TAG_class_type, file: !3, scope: !10, name: "T3D_fix12", line: 1, size: 256, align: 64, elements: !1005, runtimeLang: DW_LANG_C_plus_plus)
!1007 = !DIDerivedType(tag: DW_TAG_inheritance, file: !3, scope: !1006, name: "T1DFunction", line: 1, size: 64, align: 64, baseType: !973)
!1008 = !DIDerivedType(tag: DW_TAG_member, file: !3, scope: !1006, name: "f", line: 1, size: 64, align: 64, offset: 64, baseType: !992)
!1009 = !DIDerivedType(tag: DW_TAG_member, file: !3, scope: !1006, name: "x", line: 1, size: 64, align: 64, offset: 128, baseType: !696)
!1010 = !DIDerivedType(tag: DW_TAG_member, file: !3, scope: !1006, name: "y", line: 1, size: 64, align: 64, offset: 192, baseType: !696)
!1011 = !{ !1013, !1014, !1015, !1016 }
!1012 = !DICompositeType(tag: DW_TAG_class_type, file: !3, scope: !10, name: "T3D_fix13", line: 1, size: 256, align: 64, elements: !1011, runtimeLang: DW_LANG_C_plus_plus)
!1013 = !DIDerivedType(tag: DW_TAG_inheritance, file: !3, scope: !1012, name: "T1DFunction", line: 1, size: 64, align: 64, baseType: !973)
!1014 = !DIDerivedType(tag: DW_TAG_member, file: !3, scope: !1012, name: "f", line: 1, size: 64, align: 64, offset: 64, baseType: !992)
!1015 = !DIDerivedType(tag: DW_TAG_member, file: !3, scope: !1012, name: "x", line: 1, size: 64, align: 64, offset: 128, baseType: !696)
!1016 = !DIDerivedType(tag: DW_TAG_member, file: !3, scope: !1012, name: "z", line: 1, size: 64, align: 64, offset: 192, baseType: !696)
!1017 = !{ !1019, !1020, !1021, !1022 }
!1018 = !DICompositeType(tag: DW_TAG_class_type, file: !3, scope: !10, name: "T3D_fix23", line: 1, size: 256, align: 64, elements: !1017, runtimeLang: DW_LANG_C_plus_plus)
!1019 = !DIDerivedType(tag: DW_TAG_inheritance, file: !3, scope: !1018, name: "T1DFunction", line: 1, size: 64, align: 64, baseType: !973)
!1020 = !DIDerivedType(tag: DW_TAG_member, file: !3, scope: !1018, name: "f", line: 1, size: 64, align: 64, offset: 64, baseType: !992)
!1021 = !DIDerivedType(tag: DW_TAG_member, file: !3, scope: !1018, name: "y", line: 1, size: 64, align: 64, offset: 128, baseType: !696)
!1022 = !DIDerivedType(tag: DW_TAG_member, file: !3, scope: !1018, name: "z", line: 1, size: 64, align: 64, offset: 192, baseType: !696)
!1023 = !DIDerivedType(tag: DW_TAG_typedef, file: !3, scope: !10, name: "__gnuc_va_list", line: 1, size: 192, align: 64, baseType: !686)
!1024 = !DIDerivedType(tag: DW_TAG_typedef, file: !3, scope: !10, name: "wint_t", line: 1, size: 32, align: 32, baseType: !97)
!1025 = !{ !1031, !1032 }
!1026 = !DICompositeType(tag: DW_TAG_structure_type, file: !3, scope: !10, name: "__mbstate_t", line: 1, size: 64, align: 32, elements: !1025, runtimeLang: DW_LANG_C_plus_plus)
!1027 = !{ !1029, !1030 }
!1028 = !DICompositeType(tag: DW_TAG_union_type, file: !3, scope: !1026, name: "_ZN11__mbstate_tUt_E", line: 1, size: 32, align: 32, elements: !1027, runtimeLang: DW_LANG_C_plus_plus)
!1029 = !DIDerivedType(tag: DW_TAG_member, file: !3, scope: !1028, name: "__wch", line: 1, size: 32, align: 32, baseType: !97)
!1030 = !DIDerivedType(tag: DW_TAG_member, file: !3, scope: !1028, name: "__wchb", line: 1, size: 32, align: 8, baseType: !877)
!1031 = !DIDerivedType(tag: DW_TAG_member, file: !3, scope: !1026, name: "__count", line: 1, size: 32, align: 32, baseType: !61)
!1032 = !DIDerivedType(tag: DW_TAG_member, file: !3, scope: !1026, name: "__value", line: 1, size: 32, align: 32, offset: 32, baseType: !1028)
!1033 = !DIDerivedType(tag: DW_TAG_typedef, file: !3, scope: !10, name: "__mbstate_t", line: 1, size: 64, align: 32, baseType: !1026)
!1034 = !DIDerivedType(tag: DW_TAG_typedef, file: !3, scope: !10, name: "mbstate_t", line: 1, size: 64, align: 32, baseType: !1026)
!1035 = !{ !1037, !1038, !1039, !1040, !1041, !1042, !1043, !1044, !1045, !1046, !1047, !1048, !1052, !1054, !1055, !1056, !1057, !1058, !1059, !1060, !1061, !1062, !1066, !1070, !1071, !1072, !1073, !1074, !1078 }
!1036 = !DICompositeType(tag: DW_TAG_structure_type, file: !3, scope: !10, name: "_IO_FILE", line: 1, size: 1728, align: 64, elements: !1035, runtimeLang: DW_LANG_C_plus_plus)
!1037 = !DIDerivedType(tag: DW_TAG_member, file: !3, scope: !1036, name: "_flags", line: 1, size: 32, align: 32, baseType: !61)
!1038 = !DIDerivedType(tag: DW_TAG_member, file: !3, scope: !1036, name: "_IO_read_ptr", line: 1, size: 64, align: 64, offset: 64, baseType: !44)
!1039 = !DIDerivedType(tag: DW_TAG_member, file: !3, scope: !1036, name: "_IO_read_end", line: 1, size: 64, align: 64, offset: 128, baseType: !44)
!1040 = !DIDerivedType(tag: DW_TAG_member, file: !3, scope: !1036, name: "_IO_read_base", line: 1, size: 64, align: 64, offset: 192, baseType: !44)
!1041 = !DIDerivedType(tag: DW_TAG_member, file: !3, scope: !1036, name: "_IO_write_base", line: 1, size: 64, align: 64, offset: 256, baseType: !44)
!1042 = !DIDerivedType(tag: DW_TAG_member, file: !3, scope: !1036, name: "_IO_write_ptr", line: 1, size: 64, align: 64, offset: 320, baseType: !44)
!1043 = !DIDerivedType(tag: DW_TAG_member, file: !3, scope: !1036, name: "_IO_write_end", line: 1, size: 64, align: 64, offset: 384, baseType: !44)
!1044 = !DIDerivedType(tag: DW_TAG_member, file: !3, scope: !1036, name: "_IO_buf_base", line: 1, size: 64, align: 64, offset: 448, baseType: !44)
!1045 = !DIDerivedType(tag: DW_TAG_member, file: !3, scope: !1036, name: "_IO_buf_end", line: 1, size: 64, align: 64, offset: 512, baseType: !44)
!1046 = !DIDerivedType(tag: DW_TAG_member, file: !3, scope: !1036, name: "_IO_save_base", line: 1, size: 64, align: 64, offset: 576, baseType: !44)
!1047 = !DIDerivedType(tag: DW_TAG_member, file: !3, scope: !1036, name: "_IO_backup_base", line: 1, size: 64, align: 64, offset: 640, baseType: !44)
!1048 = !DIDerivedType(tag: DW_TAG_member, file: !3, scope: !1036, name: "_IO_save_end", line: 1, size: 64, align: 64, offset: 704, baseType: !44)
!1049 = !{  }
!1050 = !DICompositeType(tag: DW_TAG_structure_type, file: !3, name: "_IO_marker", align: 8, elements: !1049)
!1051 = !DIDerivedType(tag: DW_TAG_pointer_type, size: 64, align: 64, baseType: !1050)
!1052 = !DIDerivedType(tag: DW_TAG_member, file: !3, scope: !1036, name: "_markers", line: 1, size: 64, align: 64, offset: 768, baseType: !1051)
!1053 = !DIDerivedType(tag: DW_TAG_pointer_type, size: 64, align: 64, baseType: !1036)
!1054 = !DIDerivedType(tag: DW_TAG_member, file: !3, scope: !1036, name: "_chain", line: 1, size: 64, align: 64, offset: 832, baseType: !1053)
!1055 = !DIDerivedType(tag: DW_TAG_member, file: !3, scope: !1036, name: "_fileno", line: 1, size: 32, align: 32, offset: 896, baseType: !61)
!1056 = !DIDerivedType(tag: DW_TAG_member, file: !3, scope: !1036, name: "_flags2", line: 1, size: 32, align: 32, offset: 928, baseType: !61)
!1057 = !DIDerivedType(tag: DW_TAG_member, file: !3, scope: !1036, name: "_old_offset", line: 1, size: 64, align: 64, offset: 960, baseType: !32)
!1058 = !DIDerivedType(tag: DW_TAG_member, file: !3, scope: !1036, name: "_cur_column", line: 1, size: 16, align: 16, offset: 1024, baseType: !79)
!1059 = !DIDerivedType(tag: DW_TAG_member, file: !3, scope: !1036, name: "_vtable_offset", line: 1, size: 8, align: 8, offset: 1040, baseType: !43)
!1060 = !DIDerivedType(tag: DW_TAG_member, file: !3, scope: !1036, name: "_shortbuf", line: 1, size: 8, align: 8, offset: 1048, baseType: !377)
!1061 = !DIDerivedType(tag: DW_TAG_member, file: !3, scope: !1036, name: "_lock", line: 1, size: 64, align: 64, offset: 1088, baseType: !17)
!1062 = !DIDerivedType(tag: DW_TAG_member, file: !3, scope: !1036, name: "_offset", line: 1, size: 64, align: 64, offset: 1152, baseType: !32)
!1063 = !{  }
!1064 = !DICompositeType(tag: DW_TAG_structure_type, file: !3, name: "_IO_codecvt", align: 8, elements: !1063)
!1065 = !DIDerivedType(tag: DW_TAG_pointer_type, size: 64, align: 64, baseType: !1064)
!1066 = !DIDerivedType(tag: DW_TAG_member, file: !3, scope: !1036, name: "_codecvt", line: 1, size: 64, align: 64, offset: 1216, baseType: !1065)
!1067 = !{  }
!1068 = !DICompositeType(tag: DW_TAG_structure_type, file: !3, name: "_IO_wide_data", align: 8, elements: !1067)
!1069 = !DIDerivedType(tag: DW_TAG_pointer_type, size: 64, align: 64, baseType: !1068)
!1070 = !DIDerivedType(tag: DW_TAG_member, file: !3, scope: !1036, name: "_wide_data", line: 1, size: 64, align: 64, offset: 1280, baseType: !1069)
!1071 = !DIDerivedType(tag: DW_TAG_member, file: !3, scope: !1036, name: "_freeres_list", line: 1, size: 64, align: 64, offset: 1344, baseType: !1053)
!1072 = !DIDerivedType(tag: DW_TAG_member, file: !3, scope: !1036, name: "_freeres_buf", line: 1, size: 64, align: 64, offset: 1408, baseType: !17)
!1073 = !DIDerivedType(tag: DW_TAG_member, file: !3, scope: !1036, name: "__pad5", line: 1, size: 64, align: 64, offset: 1472, baseType: !30)
!1074 = !DIDerivedType(tag: DW_TAG_member, file: !3, scope: !1036, name: "_mode", line: 1, size: 32, align: 32, offset: 1536, baseType: !61)
!1075 = !DISubrange(count: 20)
!1076 = !{ !1075 }
!1077 = !DICompositeType(tag: DW_TAG_array_type, size: 160, align: 8, baseType: !43, elements: !1076)
!1078 = !DIDerivedType(tag: DW_TAG_member, file: !3, scope: !1036, name: "_unused2", line: 1, size: 160, align: 8, offset: 1568, baseType: !1077)
!1079 = !DIDerivedType(tag: DW_TAG_typedef, file: !3, scope: !10, name: "__FILE", line: 1, size: 1728, align: 64, baseType: !1036)
!1080 = !DIDerivedType(tag: DW_TAG_typedef, file: !3, scope: !10, name: "FILE", line: 1, size: 1728, align: 64, baseType: !1036)
!1081 = !{ !1083, !1084 }
!1082 = !DICompositeType(tag: DW_TAG_structure_type, file: !3, scope: !10, name: "max_align_t", line: 1, size: 256, align: 128, elements: !1081, runtimeLang: DW_LANG_C_plus_plus)
!1083 = !DIDerivedType(tag: DW_TAG_member, file: !3, scope: !1082, name: "__max_align_ll", line: 1, size: 64, align: 64, baseType: !713)
!1084 = !DIDerivedType(tag: DW_TAG_member, file: !3, scope: !1082, name: "__max_align_ld", line: 1, size: 128, align: 128, offset: 128, baseType: !699)
!1085 = !DIDerivedType(tag: DW_TAG_typedef, file: !3, scope: !10, name: "uint32_t", line: 1, size: 32, align: 32, baseType: !97)
!1086 = !DIDerivedType(tag: DW_TAG_typedef, file: !3, scope: !10, name: "uint64_t", line: 1, size: 64, align: 64, baseType: !30)
!1087 = !DIDerivedType(tag: DW_TAG_typedef, file: !3, scope: !10, name: "uint_least16_t", line: 1, size: 16, align: 16, baseType: !79)
!1088 = !DIDerivedType(tag: DW_TAG_typedef, file: !3, scope: !10, name: "uint_least32_t", line: 1, size: 32, align: 32, baseType: !97)
!1089 = !DIDerivedType(tag: DW_TAG_typedef, file: !3, scope: !10, name: "uint_fast16_t", line: 1, size: 64, align: 64, baseType: !30)
!1090 = !DIDerivedType(tag: DW_TAG_typedef, file: !3, scope: !10, name: "uint_fast32_t", line: 1, size: 64, align: 64, baseType: !30)
!1091 = !DIDerivedType(tag: DW_TAG_typedef, file: !3, scope: !10, name: "uint_fast64_t", line: 1, size: 64, align: 64, baseType: !30)
!1092 = !DIDerivedType(tag: DW_TAG_typedef, file: !3, scope: !10, name: "uintptr_t", line: 1, size: 64, align: 64, baseType: !30)
!1093 = !{ !1095, !1096, !1097, !1098, !1099, !1100, !1101, !1102, !1103, !1104, !1105, !1106, !1107, !1108, !1109, !1110, !1111, !1112, !1113, !1114, !1115, !1116, !1117, !1118 }
!1094 = !DICompositeType(tag: DW_TAG_structure_type, file: !3, scope: !10, name: "lconv", line: 1, size: 768, align: 64, elements: !1093, runtimeLang: DW_LANG_C_plus_plus)
!1095 = !DIDerivedType(tag: DW_TAG_member, file: !3, scope: !1094, name: "decimal_point", line: 1, size: 64, align: 64, baseType: !44)
!1096 = !DIDerivedType(tag: DW_TAG_member, file: !3, scope: !1094, name: "thousands_sep", line: 1, size: 64, align: 64, offset: 64, baseType: !44)
!1097 = !DIDerivedType(tag: DW_TAG_member, file: !3, scope: !1094, name: "grouping", line: 1, size: 64, align: 64, offset: 128, baseType: !44)
!1098 = !DIDerivedType(tag: DW_TAG_member, file: !3, scope: !1094, name: "int_curr_symbol", line: 1, size: 64, align: 64, offset: 192, baseType: !44)
!1099 = !DIDerivedType(tag: DW_TAG_member, file: !3, scope: !1094, name: "currency_symbol", line: 1, size: 64, align: 64, offset: 256, baseType: !44)
!1100 = !DIDerivedType(tag: DW_TAG_member, file: !3, scope: !1094, name: "mon_decimal_point", line: 1, size: 64, align: 64, offset: 320, baseType: !44)
!1101 = !DIDerivedType(tag: DW_TAG_member, file: !3, scope: !1094, name: "mon_thousands_sep", line: 1, size: 64, align: 64, offset: 384, baseType: !44)
!1102 = !DIDerivedType(tag: DW_TAG_member, file: !3, scope: !1094, name: "mon_grouping", line: 1, size: 64, align: 64, offset: 448, baseType: !44)
!1103 = !DIDerivedType(tag: DW_TAG_member, file: !3, scope: !1094, name: "positive_sign", line: 1, size: 64, align: 64, offset: 512, baseType: !44)
!1104 = !DIDerivedType(tag: DW_TAG_member, file: !3, scope: !1094, name: "negative_sign", line: 1, size: 64, align: 64, offset: 576, baseType: !44)
!1105 = !DIDerivedType(tag: DW_TAG_member, file: !3, scope: !1094, name: "int_frac_digits", line: 1, size: 8, align: 8, offset: 640, baseType: !43)
!1106 = !DIDerivedType(tag: DW_TAG_member, file: !3, scope: !1094, name: "frac_digits", line: 1, size: 8, align: 8, offset: 648, baseType: !43)
!1107 = !DIDerivedType(tag: DW_TAG_member, file: !3, scope: !1094, name: "p_cs_precedes", line: 1, size: 8, align: 8, offset: 656, baseType: !43)
!1108 = !DIDerivedType(tag: DW_TAG_member, file: !3, scope: !1094, name: "p_sep_by_space", line: 1, size: 8, align: 8, offset: 664, baseType: !43)
!1109 = !DIDerivedType(tag: DW_TAG_member, file: !3, scope: !1094, name: "n_cs_precedes", line: 1, size: 8, align: 8, offset: 672, baseType: !43)
!1110 = !DIDerivedType(tag: DW_TAG_member, file: !3, scope: !1094, name: "n_sep_by_space", line: 1, size: 8, align: 8, offset: 680, baseType: !43)
!1111 = !DIDerivedType(tag: DW_TAG_member, file: !3, scope: !1094, name: "p_sign_posn", line: 1, size: 8, align: 8, offset: 688, baseType: !43)
!1112 = !DIDerivedType(tag: DW_TAG_member, file: !3, scope: !1094, name: "n_sign_posn", line: 1, size: 8, align: 8, offset: 696, baseType: !43)
!1113 = !DIDerivedType(tag: DW_TAG_member, file: !3, scope: !1094, name: "int_p_cs_precedes", line: 1, size: 8, align: 8, offset: 704, baseType: !43)
!1114 = !DIDerivedType(tag: DW_TAG_member, file: !3, scope: !1094, name: "int_p_sep_by_space", line: 1, size: 8, align: 8, offset: 712, baseType: !43)
!1115 = !DIDerivedType(tag: DW_TAG_member, file: !3, scope: !1094, name: "int_n_cs_precedes", line: 1, size: 8, align: 8, offset: 720, baseType: !43)
!1116 = !DIDerivedType(tag: DW_TAG_member, file: !3, scope: !1094, name: "int_n_sep_by_space", line: 1, size: 8, align: 8, offset: 728, baseType: !43)
!1117 = !DIDerivedType(tag: DW_TAG_member, file: !3, scope: !1094, name: "int_p_sign_posn", line: 1, size: 8, align: 8, offset: 736, baseType: !43)
!1118 = !DIDerivedType(tag: DW_TAG_member, file: !3, scope: !1094, name: "int_n_sign_posn", line: 1, size: 8, align: 8, offset: 744, baseType: !43)
!1119 = !{ !1121 }
!1120 = !DICompositeType(tag: DW_TAG_structure_type, file: !3, scope: !10, name: "sched_param", line: 1, size: 32, align: 32, elements: !1119, runtimeLang: DW_LANG_C_plus_plus)
!1121 = !DIDerivedType(tag: DW_TAG_member, file: !3, scope: !1120, name: "sched_priority", line: 1, size: 32, align: 32, baseType: !61)
!1122 = !DIDerivedType(tag: DW_TAG_typedef, file: !3, scope: !10, name: "__cpu_mask", line: 1, size: 64, align: 64, baseType: !30)
!1123 = !{ !1125 }
!1124 = !DICompositeType(tag: DW_TAG_structure_type, file: !3, scope: !10, name: "cpu_set_t", line: 1, size: 1024, align: 64, elements: !1123, runtimeLang: DW_LANG_C_plus_plus)
!1125 = !DIDerivedType(tag: DW_TAG_member, file: !3, scope: !1124, name: "__bits", line: 1, size: 1024, align: 64, baseType: !328)
!1126 = !DIDerivedType(tag: DW_TAG_typedef, file: !3, scope: !10, name: "cpu_set_t", line: 1, size: 1024, align: 64, baseType: !1124)
!1127 = !{ !1129, !1130, !1131, !1132, !1133, !1134, !1135, !1136, !1137, !1138, !1139, !1140, !1141, !1142, !1143, !1144, !1145, !1146, !1147, !1148 }
!1128 = !DICompositeType(tag: DW_TAG_structure_type, file: !3, scope: !10, name: "timex", line: 1, size: 1664, align: 64, elements: !1127, runtimeLang: DW_LANG_C_plus_plus)
!1129 = !DIDerivedType(tag: DW_TAG_member, file: !3, scope: !1128, name: "modes", line: 1, size: 32, align: 32, baseType: !97)
!1130 = !DIDerivedType(tag: DW_TAG_member, file: !3, scope: !1128, name: "offset", line: 1, size: 64, align: 64, offset: 64, baseType: !32)
!1131 = !DIDerivedType(tag: DW_TAG_member, file: !3, scope: !1128, name: "freq", line: 1, size: 64, align: 64, offset: 128, baseType: !32)
!1132 = !DIDerivedType(tag: DW_TAG_member, file: !3, scope: !1128, name: "maxerror", line: 1, size: 64, align: 64, offset: 192, baseType: !32)
!1133 = !DIDerivedType(tag: DW_TAG_member, file: !3, scope: !1128, name: "esterror", line: 1, size: 64, align: 64, offset: 256, baseType: !32)
!1134 = !DIDerivedType(tag: DW_TAG_member, file: !3, scope: !1128, name: "status", line: 1, size: 32, align: 32, offset: 320, baseType: !61)
!1135 = !DIDerivedType(tag: DW_TAG_member, file: !3, scope: !1128, name: "constant", line: 1, size: 64, align: 64, offset: 384, baseType: !32)
!1136 = !DIDerivedType(tag: DW_TAG_member, file: !3, scope: !1128, name: "precision", line: 1, size: 64, align: 64, offset: 448, baseType: !32)
!1137 = !DIDerivedType(tag: DW_TAG_member, file: !3, scope: !1128, name: "tolerance", line: 1, size: 64, align: 64, offset: 512, baseType: !32)
!1138 = !DIDerivedType(tag: DW_TAG_member, file: !3, scope: !1128, name: "time", line: 1, size: 128, align: 64, offset: 576, baseType: !798)
!1139 = !DIDerivedType(tag: DW_TAG_member, file: !3, scope: !1128, name: "tick", line: 1, size: 64, align: 64, offset: 704, baseType: !32)
!1140 = !DIDerivedType(tag: DW_TAG_member, file: !3, scope: !1128, name: "ppsfreq", line: 1, size: 64, align: 64, offset: 768, baseType: !32)
!1141 = !DIDerivedType(tag: DW_TAG_member, file: !3, scope: !1128, name: "jitter", line: 1, size: 64, align: 64, offset: 832, baseType: !32)
!1142 = !DIDerivedType(tag: DW_TAG_member, file: !3, scope: !1128, name: "shift", line: 1, size: 32, align: 32, offset: 896, baseType: !61)
!1143 = !DIDerivedType(tag: DW_TAG_member, file: !3, scope: !1128, name: "stabil", line: 1, size: 64, align: 64, offset: 960, baseType: !32)
!1144 = !DIDerivedType(tag: DW_TAG_member, file: !3, scope: !1128, name: "jitcnt", line: 1, size: 64, align: 64, offset: 1024, baseType: !32)
!1145 = !DIDerivedType(tag: DW_TAG_member, file: !3, scope: !1128, name: "calcnt", line: 1, size: 64, align: 64, offset: 1088, baseType: !32)
!1146 = !DIDerivedType(tag: DW_TAG_member, file: !3, scope: !1128, name: "errcnt", line: 1, size: 64, align: 64, offset: 1152, baseType: !32)
!1147 = !DIDerivedType(tag: DW_TAG_member, file: !3, scope: !1128, name: "stbcnt", line: 1, size: 64, align: 64, offset: 1216, baseType: !32)
!1148 = !DIDerivedType(tag: DW_TAG_member, file: !3, scope: !1128, name: "tai", line: 1, size: 32, align: 32, offset: 1280, baseType: !61)
!1149 = !{ !1151, !1152, !1153, !1154, !1155, !1156, !1157, !1158, !1159, !1160, !1161 }
!1150 = !DICompositeType(tag: DW_TAG_structure_type, file: !3, scope: !10, name: "tm", line: 1, size: 448, align: 64, elements: !1149, runtimeLang: DW_LANG_C_plus_plus)
!1151 = !DIDerivedType(tag: DW_TAG_member, file: !3, scope: !1150, name: "tm_sec", line: 1, size: 32, align: 32, baseType: !61)
!1152 = !DIDerivedType(tag: DW_TAG_member, file: !3, scope: !1150, name: "tm_min", line: 1, size: 32, align: 32, offset: 32, baseType: !61)
!1153 = !DIDerivedType(tag: DW_TAG_member, file: !3, scope: !1150, name: "tm_hour", line: 1, size: 32, align: 32, offset: 64, baseType: !61)
!1154 = !DIDerivedType(tag: DW_TAG_member, file: !3, scope: !1150, name: "tm_mday", line: 1, size: 32, align: 32, offset: 96, baseType: !61)
!1155 = !DIDerivedType(tag: DW_TAG_member, file: !3, scope: !1150, name: "tm_mon", line: 1, size: 32, align: 32, offset: 128, baseType: !61)
!1156 = !DIDerivedType(tag: DW_TAG_member, file: !3, scope: !1150, name: "tm_year", line: 1, size: 32, align: 32, offset: 160, baseType: !61)
!1157 = !DIDerivedType(tag: DW_TAG_member, file: !3, scope: !1150, name: "tm_wday", line: 1, size: 32, align: 32, offset: 192, baseType: !61)
!1158 = !DIDerivedType(tag: DW_TAG_member, file: !3, scope: !1150, name: "tm_yday", line: 1, size: 32, align: 32, offset: 224, baseType: !61)
!1159 = !DIDerivedType(tag: DW_TAG_member, file: !3, scope: !1150, name: "tm_isdst", line: 1, size: 32, align: 32, offset: 256, baseType: !61)
!1160 = !DIDerivedType(tag: DW_TAG_member, file: !3, scope: !1150, name: "tm_gmtoff", line: 1, size: 64, align: 64, offset: 320, baseType: !32)
!1161 = !DIDerivedType(tag: DW_TAG_member, file: !3, scope: !1150, name: "tm_zone", line: 1, size: 64, align: 64, offset: 384, baseType: !44)
!1162 = !{ !1164, !1165 }
!1163 = !DICompositeType(tag: DW_TAG_structure_type, file: !3, scope: !10, name: "itimerspec", line: 1, size: 256, align: 64, elements: !1162, runtimeLang: DW_LANG_C_plus_plus)
!1164 = !DIDerivedType(tag: DW_TAG_member, file: !3, scope: !1163, name: "it_interval", line: 1, size: 128, align: 64, baseType: !802)
!1165 = !DIDerivedType(tag: DW_TAG_member, file: !3, scope: !1163, name: "it_value", line: 1, size: 128, align: 64, offset: 128, baseType: !802)
!1166 = !{  }
!1167 = !DICompositeType(tag: DW_TAG_structure_type, file: !3, scope: !10, name: "sigevent", line: 1, align: 8, elements: !1166, runtimeLang: DW_LANG_C_plus_plus)
!1168 = !DICompositeType(tag: DW_TAG_array_type, size: 512, align: 64, baseType: !32, elements: !87)
!1169 = !DIDerivedType(tag: DW_TAG_typedef, file: !3, scope: !10, name: "__jmp_buf", line: 1, size: 512, align: 64, baseType: !1168)
!1170 = !{ !1175, !1176, !1177, !1179 }
!1171 = !DICompositeType(tag: DW_TAG_structure_type, file: !3, scope: !10, name: "_pthread_cleanup_buffer", line: 1, size: 256, align: 64, elements: !1170, runtimeLang: DW_LANG_C_plus_plus)
!1172 = !{ null, !17 }
!1173 = !DISubroutineType(types: !1172)
!1174 = !DIDerivedType(tag: DW_TAG_pointer_type, size: 64, align: 64, baseType: !1173)
!1175 = !DIDerivedType(tag: DW_TAG_member, file: !3, scope: !1171, name: "__routine", line: 1, size: 64, align: 64, baseType: !1174)
!1176 = !DIDerivedType(tag: DW_TAG_member, file: !3, scope: !1171, name: "__arg", line: 1, size: 64, align: 64, offset: 64, baseType: !17)
!1177 = !DIDerivedType(tag: DW_TAG_member, file: !3, scope: !1171, name: "__canceltype", line: 1, size: 32, align: 32, offset: 128, baseType: !61)
!1178 = !DIDerivedType(tag: DW_TAG_pointer_type, size: 64, align: 64, baseType: !1171)
!1179 = !DIDerivedType(tag: DW_TAG_member, file: !3, scope: !1171, name: "__prev", line: 1, size: 64, align: 64, offset: 192, baseType: !1178)
!1180 = !{ !1187, !1189 }
!1181 = !DICompositeType(tag: DW_TAG_structure_type, file: !3, scope: !10, name: "__pthread_unwind_buf_t", line: 1, size: 832, align: 64, elements: !1180, runtimeLang: DW_LANG_C_plus_plus)
!1182 = !{ !1184, !1185 }
!1183 = !DICompositeType(tag: DW_TAG_structure_type, file: !3, scope: !1181, name: "_ZN22__pthread_unwind_buf_tUt_E", line: 1, size: 576, align: 64, elements: !1182, runtimeLang: DW_LANG_C_plus_plus)
!1184 = !DIDerivedType(tag: DW_TAG_member, file: !3, scope: !1183, name: "__cancel_jmp_buf", line: 1, size: 512, align: 64, baseType: !1168)
!1185 = !DIDerivedType(tag: DW_TAG_member, file: !3, scope: !1183, name: "__mask_was_saved", line: 1, size: 32, align: 32, offset: 512, baseType: !61)
!1186 = !DICompositeType(tag: DW_TAG_array_type, size: 576, align: 64, baseType: !1183, elements: !376)
!1187 = !DIDerivedType(tag: DW_TAG_member, file: !3, scope: !1181, name: "__cancel_jmp_buf", line: 1, size: 576, align: 64, baseType: !1186)
!1188 = !DICompositeType(tag: DW_TAG_array_type, size: 256, align: 64, baseType: !17, elements: !69)
!1189 = !DIDerivedType(tag: DW_TAG_member, file: !3, scope: !1181, name: "__pad", line: 1, size: 256, align: 64, offset: 576, baseType: !1188)
!1190 = !{ !1192, !1193, !1194, !1195 }
!1191 = !DICompositeType(tag: DW_TAG_structure_type, file: !3, scope: !10, name: "__pthread_cleanup_frame", line: 1, size: 192, align: 64, elements: !1190, runtimeLang: DW_LANG_C_plus_plus)
!1192 = !DIDerivedType(tag: DW_TAG_member, file: !3, scope: !1191, name: "__cancel_routine", line: 1, size: 64, align: 64, baseType: !1174)
!1193 = !DIDerivedType(tag: DW_TAG_member, file: !3, scope: !1191, name: "__cancel_arg", line: 1, size: 64, align: 64, offset: 64, baseType: !17)
!1194 = !DIDerivedType(tag: DW_TAG_member, file: !3, scope: !1191, name: "__do_it", line: 1, size: 32, align: 32, offset: 128, baseType: !61)
!1195 = !DIDerivedType(tag: DW_TAG_member, file: !3, scope: !1191, name: "__cancel_type", line: 1, size: 32, align: 32, offset: 160, baseType: !61)
!1196 = !{ !1198, !1199, !1200, !1201 }
!1197 = !DICompositeType(tag: DW_TAG_class_type, file: !3, scope: !10, name: "__pthread_cleanup_class", line: 1, size: 192, align: 64, elements: !1196, runtimeLang: DW_LANG_C_plus_plus)
!1198 = !DIDerivedType(tag: DW_TAG_member, file: !3, scope: !1197, name: "__cancel_routine", line: 1, size: 64, align: 64, baseType: !1174)
!1199 = !DIDerivedType(tag: DW_TAG_member, file: !3, scope: !1197, name: "__cancel_arg", line: 1, size: 64, align: 64, offset: 64, baseType: !17)
!1200 = !DIDerivedType(tag: DW_TAG_member, file: !3, scope: !1197, name: "__do_it", line: 1, size: 32, align: 32, offset: 128, baseType: !61)
!1201 = !DIDerivedType(tag: DW_TAG_member, file: !3, scope: !1197, name: "__cancel_type", line: 1, size: 32, align: 32, offset: 160, baseType: !61)
!1202 = !{  }
!1203 = !DICompositeType(tag: DW_TAG_structure_type, file: !3, scope: !10, name: "__jmp_buf_tag", line: 1, align: 8, elements: !1202, runtimeLang: DW_LANG_C_plus_plus)
!1204 = !DIDerivedType(tag: DW_TAG_typedef, file: !3, scope: !10, name: "__gthread_t", line: 1, size: 64, align: 64, baseType: !30)
!1205 = !DIDerivedType(tag: DW_TAG_typedef, file: !3, scope: !10, name: "__gthread_key_t", line: 1, size: 32, align: 32, baseType: !97)
!1206 = !DIDerivedType(tag: DW_TAG_typedef, file: !3, scope: !10, name: "__gthread_once_t", line: 1, size: 32, align: 32, baseType: !61)
!1207 = !DIDerivedType(tag: DW_TAG_typedef, file: !3, scope: !10, name: "__gthread_mutex_t", line: 1, size: 320, align: 64, baseType: !897)
!1208 = !DIDerivedType(tag: DW_TAG_typedef, file: !3, scope: !10, name: "__gthread_recursive_mutex_t", line: 1, size: 320, align: 64, baseType: !897)
!1209 = !DIDerivedType(tag: DW_TAG_typedef, file: !3, scope: !10, name: "__gthread_cond_t", line: 1, size: 384, align: 64, baseType: !906)
!1210 = !DIDerivedType(tag: DW_TAG_typedef, file: !3, scope: !10, name: "__gthread_time_t", line: 1, size: 128, align: 64, baseType: !802)
!1211 = !DIDerivedType(tag: DW_TAG_typedef, file: !3, scope: !10, name: "_Atomic_word", line: 1, size: 32, align: 32, baseType: !61)
!1212 = !{ !1214, !1215 }
!1213 = !DICompositeType(tag: DW_TAG_structure_type, file: !3, scope: !10, name: "_G_fpos_t", line: 1, size: 128, align: 64, elements: !1212, runtimeLang: DW_LANG_C_plus_plus)
!1214 = !DIDerivedType(tag: DW_TAG_member, file: !3, scope: !1213, name: "__pos", line: 1, size: 64, align: 64, baseType: !32)
!1215 = !DIDerivedType(tag: DW_TAG_member, file: !3, scope: !1213, name: "__state", line: 1, size: 64, align: 32, offset: 64, baseType: !1026)
!1216 = !DIDerivedType(tag: DW_TAG_typedef, file: !3, scope: !10, name: "__fpos_t", line: 1, size: 128, align: 64, baseType: !1213)
!1217 = !{ !1219, !1220 }
!1218 = !DICompositeType(tag: DW_TAG_structure_type, file: !3, scope: !10, name: "_G_fpos64_t", line: 1, size: 128, align: 64, elements: !1217, runtimeLang: DW_LANG_C_plus_plus)
!1219 = !DIDerivedType(tag: DW_TAG_member, file: !3, scope: !1218, name: "__pos", line: 1, size: 64, align: 64, baseType: !32)
!1220 = !DIDerivedType(tag: DW_TAG_member, file: !3, scope: !1218, name: "__state", line: 1, size: 64, align: 32, offset: 64, baseType: !1026)
!1221 = !DIDerivedType(tag: DW_TAG_typedef, file: !3, scope: !10, name: "__fpos64_t", line: 1, size: 128, align: 64, baseType: !1218)
!1222 = !DIDerivedType(tag: DW_TAG_typedef, file: !3, scope: !10, name: "_IO_lock_t", line: 1, align: 1, baseType: !16)
!1223 = !{ !32, !17, !44, !30 }
!1224 = !DISubroutineType(types: !1223)
!1225 = !DIDerivedType(tag: DW_TAG_typedef, file: !3, scope: !10, name: "cookie_read_function_t", line: 1, size: 8, align: 1, baseType: !1224)
!1226 = !DIDerivedType(tag: DW_TAG_typedef, file: !3, scope: !10, name: "__ssize_t", line: 1, size: 64, align: 64, baseType: !32)
!1227 = !DIDerivedType(tag: DW_TAG_typedef, file: !3, scope: !10, name: "size_t", line: 1, size: 64, align: 64, baseType: !30)
!1228 = !DIDerivedType(tag: DW_TAG_typedef, file: !3, scope: !10, name: "cookie_write_function_t", line: 1, size: 8, align: 1, baseType: !1224)
!1229 = !DIDerivedType(tag: DW_TAG_typedef, file: !3, scope: !10, name: "__off64_t", line: 1, size: 64, align: 64, baseType: !32)
!1230 = !DIDerivedType(tag: DW_TAG_pointer_type, size: 64, align: 64, baseType: !32)
!1231 = !{ !61, !17, !1230, !61 }
!1232 = !DISubroutineType(types: !1231)
!1233 = !DIDerivedType(tag: DW_TAG_typedef, file: !3, scope: !10, name: "cookie_seek_function_t", line: 1, size: 8, align: 1, baseType: !1232)
!1234 = !{ !61, !17 }
!1235 = !DISubroutineType(types: !1234)
!1236 = !DIDerivedType(tag: DW_TAG_typedef, file: !3, scope: !10, name: "cookie_close_function_t", line: 1, size: 8, align: 1, baseType: !1235)
!1237 = !{ !1240, !1241, !1243, !1245 }
!1238 = !DICompositeType(tag: DW_TAG_structure_type, file: !3, scope: !10, name: "_IO_cookie_io_functions_t", line: 1, size: 256, align: 64, elements: !1237, runtimeLang: DW_LANG_C_plus_plus)
!1239 = !DIDerivedType(tag: DW_TAG_pointer_type, size: 64, align: 64, baseType: !1224)
!1240 = !DIDerivedType(tag: DW_TAG_member, file: !3, scope: !1238, name: "read", line: 1, size: 64, align: 64, baseType: !1239)
!1241 = !DIDerivedType(tag: DW_TAG_member, file: !3, scope: !1238, name: "write", line: 1, size: 64, align: 64, offset: 64, baseType: !1239)
!1242 = !DIDerivedType(tag: DW_TAG_pointer_type, size: 64, align: 64, baseType: !1232)
!1243 = !DIDerivedType(tag: DW_TAG_member, file: !3, scope: !1238, name: "seek", line: 1, size: 64, align: 64, offset: 128, baseType: !1242)
!1244 = !DIDerivedType(tag: DW_TAG_pointer_type, size: 64, align: 64, baseType: !1235)
!1245 = !DIDerivedType(tag: DW_TAG_member, file: !3, scope: !1238, name: "close", line: 1, size: 64, align: 64, offset: 192, baseType: !1244)
!1246 = !DIDerivedType(tag: DW_TAG_typedef, file: !3, scope: !10, name: "cookie_io_functions_t", line: 1, size: 256, align: 64, baseType: !1238)
!1247 = !DIDerivedType(tag: DW_TAG_typedef, file: !3, scope: !10, name: "fpos_t", line: 1, size: 128, align: 64, baseType: !1213)
!1248 = !DIDerivedType(tag: DW_TAG_typedef, file: !3, scope: !10, name: "fpos64_t", line: 1, size: 128, align: 64, baseType: !1218)
!1249 = !{  }
!1250 = !DICompositeType(tag: DW_TAG_structure_type, file: !3, scope: !10, name: "obstack", line: 1, align: 8, elements: !1249, runtimeLang: DW_LANG_C_plus_plus)
!1251 = !DIDerivedType(tag: DW_TAG_typedef, file: !3, scope: !10, name: "error_t", line: 1, size: 32, align: 32, baseType: !61)
!1252 = !DIDerivedType(tag: DW_TAG_typedef, file: !3, scope: !10, name: "wctype_t", line: 1, size: 64, align: 64, baseType: !30)
!1253 = !DIDerivedType(tag: DW_TAG_typedef, file: !3, scope: !10, name: "wctrans_t", line: 1, size: 64, align: 64, baseType: !62)
!1254 = !{ !1256, !1257, !1258, !1259 }
!1255 = !DICompositeType(tag: DW_TAG_class_type, file: !3, scope: !10, name: "FieldFunction", line: 1, size: 192, align: 64, elements: !1254, runtimeLang: DW_LANG_C_plus_plus)
!1256 = !DIDerivedType(tag: DW_TAG_inheritance, file: !3, scope: !1255, name: "T3DFunction", line: 1, size: 64, align: 64, baseType: !977)
!1257 = !DIDerivedType(tag: DW_TAG_member, file: !3, scope: !1255, name: "_fComponent", line: 1, size: 32, align: 32, offset: 64, baseType: !968)
!1258 = !DIDerivedType(tag: DW_TAG_member, file: !3, scope: !1255, name: "_dComponent", line: 1, size: 32, align: 32, offset: 96, baseType: !968)
!1259 = !DIDerivedType(tag: DW_TAG_member, file: !3, scope: !1255, name: "_derivative", line: 1, size: 32, align: 32, offset: 128, baseType: !97)
!1260 = !{ !1262, !1263, !1265 }
!1261 = !DICompositeType(tag: DW_TAG_class_type, file: !3, scope: !10, name: "ConstantField", line: 1, size: 384, align: 64, elements: !1260, runtimeLang: DW_LANG_C_plus_plus)
!1262 = !DIDerivedType(tag: DW_TAG_inheritance, file: !3, scope: !1261, name: "FieldFunction", line: 1, size: 192, align: 64, baseType: !1255)
!1263 = !DIDerivedType(tag: DW_TAG_member, file: !3, scope: !1261, name: "_initialized", line: 1, size: 8, align: 8, offset: 160, baseType: !43)
!1264 = !DICompositeType(tag: DW_TAG_array_type, size: 192, align: 64, baseType: !696, elements: !951)
!1265 = !DIDerivedType(tag: DW_TAG_member, file: !3, scope: !1261, name: "_B", line: 1, size: 192, align: 64, offset: 192, baseType: !1264)
!1266 = !DIDerivedType(tag: DW_TAG_typedef, file: !3, scope: !10, name: "Real", line: 1, size: 64, align: 64, baseType: !696)
!1267 = !DIDerivedType(tag: DW_TAG_typedef, file: !3, scope: !10, name: "creal", line: 1, size: 64, align: 64, baseType: !696)
!1268 = !DIDerivedType(tag: DW_TAG_typedef, file: !3, scope: !10, name: "cuint", line: 1, size: 32, align: 32, baseType: !97)
!1269 = !DIDerivedType(tag: DW_TAG_typedef, file: !3, scope: !10, name: "CellID", line: 1, size: 64, align: 64, baseType: !30)
!1270 = !DIDerivedType(tag: DW_TAG_typedef, file: !3, scope: !10, name: "Realf", line: 1, size: 32, align: 32, baseType: !694)
!1271 = !{  }
!1272 = !DICompositeType(tag: DW_TAG_structure_type, file: !3, scope: !10, name: "globalflags", line: 1, size: 8, align: 8, elements: !1271, runtimeLang: DW_LANG_C_plus_plus)
!1273 = !{ !1275 }
!1274 = !DICompositeType(tag: DW_TAG_structure_type, file: !3, scope: !10, name: "_Save_errno", line: 1, size: 32, align: 32, elements: !1273, runtimeLang: DW_LANG_C_plus_plus)
!1275 = !DIDerivedType(tag: DW_TAG_member, file: !3, scope: !1274, name: "_M_errno", line: 1, size: 32, align: 32, baseType: !61)
!1276 = !{  }
!1277 = !DICompositeType(tag: DW_TAG_structure_type, file: !3, scope: !10, name: "_Range_chk", line: 1, size: 8, align: 8, elements: !1276, runtimeLang: DW_LANG_C_plus_plus)
!1278 = !{ !1280 }
!1279 = !DICompositeType(tag: DW_TAG_structure_type, file: !3, scope: !10, name: "_Save_errno", line: 1, size: 32, align: 32, elements: !1278, runtimeLang: DW_LANG_C_plus_plus)
!1280 = !DIDerivedType(tag: DW_TAG_member, file: !3, scope: !1279, name: "_M_errno", line: 1, size: 32, align: 32, baseType: !61)
!1281 = !{  }
!1282 = !DICompositeType(tag: DW_TAG_structure_type, file: !3, scope: !10, name: "_Range_chk", line: 1, size: 8, align: 8, elements: !1281, runtimeLang: DW_LANG_C_plus_plus)
!1283 = !{ !1285 }
!1284 = !DICompositeType(tag: DW_TAG_structure_type, file: !3, scope: !10, name: "_Save_errno", line: 1, size: 32, align: 32, elements: !1283, runtimeLang: DW_LANG_C_plus_plus)
!1285 = !DIDerivedType(tag: DW_TAG_member, file: !3, scope: !1284, name: "_M_errno", line: 1, size: 32, align: 32, baseType: !61)
!1286 = !{  }
!1287 = !DICompositeType(tag: DW_TAG_structure_type, file: !3, scope: !10, name: "_Range_chk", line: 1, size: 8, align: 8, elements: !1286, runtimeLang: DW_LANG_C_plus_plus)
!1288 = !{ !1290 }
!1289 = !DICompositeType(tag: DW_TAG_structure_type, file: !3, scope: !10, name: "_Save_errno", line: 1, size: 32, align: 32, elements: !1288, runtimeLang: DW_LANG_C_plus_plus)
!1290 = !DIDerivedType(tag: DW_TAG_member, file: !3, scope: !1289, name: "_M_errno", line: 1, size: 32, align: 32, baseType: !61)
!1291 = !{  }
!1292 = !DICompositeType(tag: DW_TAG_structure_type, file: !3, scope: !10, name: "_Range_chk", line: 1, size: 8, align: 8, elements: !1291, runtimeLang: DW_LANG_C_plus_plus)
!1293 = !{ !1295 }
!1294 = !DICompositeType(tag: DW_TAG_structure_type, file: !3, scope: !10, name: "_Save_errno", line: 1, size: 32, align: 32, elements: !1293, runtimeLang: DW_LANG_C_plus_plus)
!1295 = !DIDerivedType(tag: DW_TAG_member, file: !3, scope: !1294, name: "_M_errno", line: 1, size: 32, align: 32, baseType: !61)
!1296 = !{  }
!1297 = !DICompositeType(tag: DW_TAG_structure_type, file: !3, scope: !10, name: "_Range_chk", line: 1, size: 8, align: 8, elements: !1296, runtimeLang: DW_LANG_C_plus_plus)
!1298 = !{ !1300 }
!1299 = !DICompositeType(tag: DW_TAG_structure_type, file: !3, scope: !10, name: "_Save_errno", line: 1, size: 32, align: 32, elements: !1298, runtimeLang: DW_LANG_C_plus_plus)
!1300 = !DIDerivedType(tag: DW_TAG_member, file: !3, scope: !1299, name: "_M_errno", line: 1, size: 32, align: 32, baseType: !61)
!1301 = !{  }
!1302 = !DICompositeType(tag: DW_TAG_structure_type, file: !3, scope: !10, name: "_Range_chk", line: 1, size: 8, align: 8, elements: !1301, runtimeLang: DW_LANG_C_plus_plus)
!1303 = !{ !1305 }
!1304 = !DICompositeType(tag: DW_TAG_structure_type, file: !3, scope: !10, name: "_Save_errno", line: 1, size: 32, align: 32, elements: !1303, runtimeLang: DW_LANG_C_plus_plus)
!1305 = !DIDerivedType(tag: DW_TAG_member, file: !3, scope: !1304, name: "_M_errno", line: 1, size: 32, align: 32, baseType: !61)
!1306 = !{  }
!1307 = !DICompositeType(tag: DW_TAG_structure_type, file: !3, scope: !10, name: "_Range_chk", line: 1, size: 8, align: 8, elements: !1306, runtimeLang: DW_LANG_C_plus_plus)
!1308 = !{ !1310 }
!1309 = !DICompositeType(tag: DW_TAG_structure_type, file: !3, scope: !10, name: "_Save_errno", line: 1, size: 32, align: 32, elements: !1308, runtimeLang: DW_LANG_C_plus_plus)
!1310 = !DIDerivedType(tag: DW_TAG_member, file: !3, scope: !1309, name: "_M_errno", line: 1, size: 32, align: 32, baseType: !61)
!1311 = !{  }
!1312 = !DICompositeType(tag: DW_TAG_structure_type, file: !3, scope: !10, name: "_Range_chk", line: 1, size: 8, align: 8, elements: !1311, runtimeLang: DW_LANG_C_plus_plus)
!1313 = !{ !1315 }
!1314 = !DICompositeType(tag: DW_TAG_structure_type, file: !3, scope: !10, name: "_Save_errno", line: 1, size: 32, align: 32, elements: !1313, runtimeLang: DW_LANG_C_plus_plus)
!1315 = !DIDerivedType(tag: DW_TAG_member, file: !3, scope: !1314, name: "_M_errno", line: 1, size: 32, align: 32, baseType: !61)
!1316 = !{  }
!1317 = !DICompositeType(tag: DW_TAG_structure_type, file: !3, scope: !10, name: "_Range_chk", line: 1, size: 8, align: 8, elements: !1316, runtimeLang: DW_LANG_C_plus_plus)
!1318 = !{ !1320 }
!1319 = !DICompositeType(tag: DW_TAG_structure_type, file: !3, scope: !10, name: "_Save_errno", line: 1, size: 32, align: 32, elements: !1318, runtimeLang: DW_LANG_C_plus_plus)
!1320 = !DIDerivedType(tag: DW_TAG_member, file: !3, scope: !1319, name: "_M_errno", line: 1, size: 32, align: 32, baseType: !61)
!1321 = !{  }
!1322 = !DICompositeType(tag: DW_TAG_structure_type, file: !3, scope: !10, name: "_Range_chk", line: 1, size: 8, align: 8, elements: !1321, runtimeLang: DW_LANG_C_plus_plus)
!1323 = !{ !1325 }
!1324 = !DICompositeType(tag: DW_TAG_structure_type, file: !3, scope: !10, name: "_Save_errno", line: 1, size: 32, align: 32, elements: !1323, runtimeLang: DW_LANG_C_plus_plus)
!1325 = !DIDerivedType(tag: DW_TAG_member, file: !3, scope: !1324, name: "_M_errno", line: 1, size: 32, align: 32, baseType: !61)
!1326 = !{  }
!1327 = !DICompositeType(tag: DW_TAG_structure_type, file: !3, scope: !10, name: "_Range_chk", line: 1, size: 8, align: 8, elements: !1326, runtimeLang: DW_LANG_C_plus_plus)
!1328 = !{ !1330 }
!1329 = !DICompositeType(tag: DW_TAG_structure_type, file: !3, scope: !10, name: "_Save_errno", line: 1, size: 32, align: 32, elements: !1328, runtimeLang: DW_LANG_C_plus_plus)
!1330 = !DIDerivedType(tag: DW_TAG_member, file: !3, scope: !1329, name: "_M_errno", line: 1, size: 32, align: 32, baseType: !61)
!1331 = !{  }
!1332 = !DICompositeType(tag: DW_TAG_structure_type, file: !3, scope: !10, name: "_Range_chk", line: 1, size: 8, align: 8, elements: !1331, runtimeLang: DW_LANG_C_plus_plus)
!1333 = !{ !1335 }
!1334 = !DICompositeType(tag: DW_TAG_structure_type, file: !3, scope: !10, name: "_Save_errno", line: 1, size: 32, align: 32, elements: !1333, runtimeLang: DW_LANG_C_plus_plus)
!1335 = !DIDerivedType(tag: DW_TAG_member, file: !3, scope: !1334, name: "_M_errno", line: 1, size: 32, align: 32, baseType: !61)
!1336 = !{  }
!1337 = !DICompositeType(tag: DW_TAG_structure_type, file: !3, scope: !10, name: "_Range_chk", line: 1, size: 8, align: 8, elements: !1336, runtimeLang: DW_LANG_C_plus_plus)
!1338 = !{ !1340 }
!1339 = !DICompositeType(tag: DW_TAG_structure_type, file: !3, scope: !10, name: "_Save_errno", line: 1, size: 32, align: 32, elements: !1338, runtimeLang: DW_LANG_C_plus_plus)
!1340 = !DIDerivedType(tag: DW_TAG_member, file: !3, scope: !1339, name: "_M_errno", line: 1, size: 32, align: 32, baseType: !61)
!1341 = !{  }
!1342 = !DICompositeType(tag: DW_TAG_structure_type, file: !3, scope: !10, name: "_Range_chk", line: 1, size: 8, align: 8, elements: !1341, runtimeLang: DW_LANG_C_plus_plus)
!1343 = !{ !1345 }
!1344 = !DICompositeType(tag: DW_TAG_structure_type, file: !3, scope: !10, name: "_Save_errno", line: 1, size: 32, align: 32, elements: !1343, runtimeLang: DW_LANG_C_plus_plus)
!1345 = !DIDerivedType(tag: DW_TAG_member, file: !3, scope: !1344, name: "_M_errno", line: 1, size: 32, align: 32, baseType: !61)
!1346 = !{  }
!1347 = !DICompositeType(tag: DW_TAG_structure_type, file: !3, scope: !10, name: "_Range_chk", line: 1, size: 8, align: 8, elements: !1346, runtimeLang: DW_LANG_C_plus_plus)
!1348 = !{ !1350 }
!1349 = !DICompositeType(tag: DW_TAG_structure_type, file: !3, scope: !10, name: "_Save_errno", line: 1, size: 32, align: 32, elements: !1348, runtimeLang: DW_LANG_C_plus_plus)
!1350 = !DIDerivedType(tag: DW_TAG_member, file: !3, scope: !1349, name: "_M_errno", line: 1, size: 32, align: 32, baseType: !61)
!1351 = !{  }
!1352 = !DICompositeType(tag: DW_TAG_structure_type, file: !3, scope: !10, name: "_Range_chk", line: 1, size: 8, align: 8, elements: !1351, runtimeLang: DW_LANG_C_plus_plus)
!1353 = !DIDerivedType(tag: DW_TAG_typedef, file: !3, scope: !10, name: "_Tag", line: 1, size: 8, align: 8, baseType: !439)
!1354 = !DIDerivedType(tag: DW_TAG_typedef, file: !3, scope: !10, name: "_Integral", line: 1, size: 8, align: 8, baseType: !38)
!1355 = !{  }
!1356 = !DICompositeType(tag: DW_TAG_structure_type, file: !3, scope: !10, name: "_Iter_less_iter", line: 1, size: 8, align: 8, elements: !1355, runtimeLang: DW_LANG_C_plus_plus)
!1357 = !{  }
!1358 = !DICompositeType(tag: DW_TAG_structure_type, file: !3, scope: !10, name: "_Iter_less_val", line: 1, size: 8, align: 8, elements: !1357, runtimeLang: DW_LANG_C_plus_plus)
!1359 = !{  }
!1360 = !DICompositeType(tag: DW_TAG_structure_type, file: !3, scope: !10, name: "_Val_less_iter", line: 1, size: 8, align: 8, elements: !1359, runtimeLang: DW_LANG_C_plus_plus)
!1361 = !{  }
!1362 = !DICompositeType(tag: DW_TAG_structure_type, file: !3, scope: !10, name: "_Iter_equal_to_iter", line: 1, size: 8, align: 8, elements: !1361, runtimeLang: DW_LANG_C_plus_plus)
!1363 = !{  }
!1364 = !DICompositeType(tag: DW_TAG_structure_type, file: !3, scope: !10, name: "_Iter_equal_to_val", line: 1, size: 8, align: 8, elements: !1363, runtimeLang: DW_LANG_C_plus_plus)
!1365 = !DIDerivedType(tag: DW_TAG_typedef, file: !3, scope: !10, name: "GlobalID", line: 1, size: 32, align: 32, baseType: !97)
!1366 = !{ !1368, !1369, !1370, !1371, !1372, !1373 }
!1367 = !DICompositeType(tag: DW_TAG_structure_type, file: !3, scope: !10, name: "technical", line: 1, size: 256, align: 64, elements: !1366, runtimeLang: DW_LANG_C_plus_plus)
!1368 = !DIDerivedType(tag: DW_TAG_member, file: !3, scope: !1367, name: "sysBoundaryFlag", line: 1, size: 32, align: 32, baseType: !61)
!1369 = !DIDerivedType(tag: DW_TAG_member, file: !3, scope: !1367, name: "sysBoundaryLayer", line: 1, size: 32, align: 32, offset: 32, baseType: !61)
!1370 = !DIDerivedType(tag: DW_TAG_member, file: !3, scope: !1367, name: "maxFsDt", line: 1, size: 64, align: 64, offset: 64, baseType: !696)
!1371 = !DIDerivedType(tag: DW_TAG_member, file: !3, scope: !1367, name: "fsGridRank", line: 1, size: 32, align: 32, offset: 128, baseType: !61)
!1372 = !DIDerivedType(tag: DW_TAG_member, file: !3, scope: !1367, name: "SOLVE", line: 1, size: 32, align: 32, offset: 160, baseType: !97)
!1373 = !DIDerivedType(tag: DW_TAG_member, file: !3, scope: !1367, name: "refLevel", line: 1, size: 32, align: 32, offset: 192, baseType: !61)
!1374 = !DIDerivedType(tag: DW_TAG_typedef, file: !3, scope: !10, name: "LocalID", line: 1, size: 32, align: 32, baseType: !97)
!1375 = !DIFile(filename: "backgroundfield/functions.hpp", directory: "/home/talgat/vlasiator")
; !1376 = !DIFile(tag: DW_TAG_file_type, pair: !1375)
!1376 = !{ i32 41, !1375 }
!1377 = !{ null, !992 }
!1378 = !DISubroutineType(types: !1377)
!1379 = !{ !1386 }
!1380 = distinct !DISubprogram(file: !1375, scope: !977, name: "~T3DFunction", line: 31, type: !1378, spFlags: 8, unit: !10, scopeLine: 31)
!1381 = !DILocation(scope: !1380)
!1382 = !DILexicalBlock(file: !1375, scope: !1380, line: 31, column: 1)
!1383 = !DILocation(scope: !1382)
!1384 = !DILocalVariable(scope: !1382, file: !1375, type: !992, flags: 64)
!1385 = !DIExpression()
!1386 = !DILocalVariable(scope: !1380, arg: 1, file: !1375, type: !992, flags: 64)
!1387 = !DILocation(line: 31, column: 1, scope: !1382)
!1388 = !DISubrange(count: 5)
!1389 = !{ !1388 }
!1390 = !DICompositeType(tag: DW_TAG_array_type, size: 320, align: 64, baseType: !124, elements: !1389)
!1391 = distinct !DIGlobalVariable(scope: !10, name: "_ZTV11T3DFunction", file: !3, type: !1390, isDefinition: true)
!1392 = !DIGlobalVariableExpression(var: !1391, expr: !1385)
!1393 = !{ !"PGI C[++] TBAA" }
!1394 = !{ !"omnipotent char", !1393, i64 0 }
!1395 = !{ !"<T>*", !1394, i64 0 }
!1396 = !{  }
!1397 = distinct !DISubprogram(file: !3, scope: !10, name: "_ZN11T3DFunctionD0Ev", type: !1378, spFlags: 8, unit: !10)
!1398 = !DILocation(scope: !1397)
!1399 = !DILexicalBlock(file: !3, scope: !1397, line: 1, column: 1)
!1400 = !DILocation(scope: !1399)
!1401 = !DILexicalBlock(file: !3, scope: !1399, line: 1, column: 1)
!1402 = !DILocation(scope: !1401)
!1403 = !DILexicalBlock(file: !3, scope: !1399, line: 1, column: 1)
!1404 = !DILocation(scope: !1403)
!1405 = !DILocation(line: 31, column: 1, scope: !1399)
!1406 = !{  }
!1407 = distinct !DISubprogram(file: !3, scope: !10, name: "_ZN11T3DFunctionD2Ev", type: !1378, spFlags: 8, unit: !10)
!1408 = !DILocation(scope: !1407)
!1409 = !DILexicalBlock(file: !3, scope: !1407, line: 1, column: 1)
!1410 = !DILocation(scope: !1409)
!1411 = !DILexicalBlock(file: !3, scope: !1409, line: 1, column: 1)
!1412 = !DILocation(scope: !1411)
!1413 = !DILexicalBlock(file: !3, scope: !1409, line: 1, column: 1)
!1414 = !DILocation(scope: !1413)
!1415 = !DILocation(line: 31, column: 1, scope: !1409)
!1416 = !DIFile(filename: "backgroundfield/fieldfunction.hpp", directory: "/home/talgat/vlasiator")
; !1417 = !DIFile(tag: DW_TAG_file_type, pair: !1416)
!1417 = !{ i32 41, !1416 }
!1418 = !DIDerivedType(tag: DW_TAG_pointer_type, size: 64, align: 64, baseType: !1255)
!1419 = !{ null, !1418 }
!1420 = !DISubroutineType(types: !1419)
!1421 = !{ !1435 }
!1422 = distinct !DISubprogram(file: !1416, scope: !10, name: "~FieldFunction", type: !1420, spFlags: 8, unit: !10)
!1423 = !DILocation(scope: !1422)
!1424 = !DILexicalBlock(file: !1416, scope: !1422, line: 1, column: 1)
!1425 = !DILocation(scope: !1424)
!1426 = !DILexicalBlock(file: !1416, scope: !1424, line: 1, column: 1)
!1427 = !DILocation(scope: !1426)
!1428 = !DILexicalBlock(file: !1416, scope: !1426, line: 1, column: 1)
!1429 = !DILocation(scope: !1428)
!1430 = !DILexicalBlock(file: !1416, scope: !1424, line: 1, column: 1)
!1431 = !DILocation(scope: !1430)
!1432 = !DILexicalBlock(file: !1416, scope: !1430, line: 1, column: 1)
!1433 = !DILocation(scope: !1432)
!1434 = !DILocalVariable(scope: !1424, file: !1416, type: !1418, flags: 64)
!1435 = !DILocalVariable(scope: !1422, arg: 1, file: !1416, type: !1418, flags: 64)
!1436 = !DILocation(line: 31, column: 1, scope: !1424)
!1437 = distinct !DIGlobalVariable(scope: !10, name: "_ZTV13FieldFunction", file: !3, type: !1390, isDefinition: true)
!1438 = !DIGlobalVariableExpression(var: !1437, expr: !1385)
!1439 = !{  }
!1440 = distinct !DISubprogram(file: !3, scope: !10, name: "_ZN13FieldFunctionD0Ev", type: !1420, spFlags: 8, unit: !10)
!1441 = !DILocation(scope: !1440)
!1442 = !DILexicalBlock(file: !3, scope: !1440, line: 1, column: 1)
!1443 = !DILocation(scope: !1442)
!1444 = !DILexicalBlock(file: !3, scope: !1442, line: 1, column: 1)
!1445 = !DILocation(scope: !1444)
!1446 = !DILexicalBlock(file: !3, scope: !1444, line: 1, column: 1)
!1447 = !DILocation(scope: !1446)
!1448 = !DILexicalBlock(file: !3, scope: !1446, line: 1, column: 1)
!1449 = !DILocation(scope: !1448)
!1450 = !DILexicalBlock(file: !3, scope: !1442, line: 1, column: 1)
!1451 = !DILocation(scope: !1450)
!1452 = !DILexicalBlock(file: !3, scope: !1450, line: 1, column: 1)
!1453 = !DILocation(scope: !1452)
!1454 = !DILexicalBlock(file: !3, scope: !1452, line: 1, column: 1)
!1455 = !DILocation(scope: !1454)
!1456 = !DILocation(line: 31, column: 1, scope: !1442)
!1457 = !{  }
!1458 = distinct !DISubprogram(file: !3, scope: !10, name: "_ZN13FieldFunctionD2Ev", type: !1420, spFlags: 8, unit: !10)
!1459 = !DILocation(scope: !1458)
!1460 = !DILexicalBlock(file: !3, scope: !1458, line: 1, column: 1)
!1461 = !DILocation(scope: !1460)
!1462 = !DILexicalBlock(file: !3, scope: !1460, line: 1, column: 1)
!1463 = !DILocation(scope: !1462)
!1464 = !DILexicalBlock(file: !3, scope: !1462, line: 1, column: 1)
!1465 = !DILocation(scope: !1464)
!1466 = !DILexicalBlock(file: !3, scope: !1464, line: 1, column: 1)
!1467 = !DILocation(scope: !1466)
!1468 = !DILexicalBlock(file: !3, scope: !1460, line: 1, column: 1)
!1469 = !DILocation(scope: !1468)
!1470 = !DILexicalBlock(file: !3, scope: !1468, line: 1, column: 1)
!1471 = !DILocation(scope: !1470)
!1472 = !DILexicalBlock(file: !3, scope: !1470, line: 1, column: 1)
!1473 = !DILocation(scope: !1472)
!1474 = !DILocation(line: 31, column: 1, scope: !1460)
!1475 = !DIFile(filename: "backgroundfield/constantfield.hpp", directory: "/home/talgat/vlasiator")
; !1476 = !DIFile(tag: DW_TAG_file_type, pair: !1475)
!1476 = !{ i32 41, !1475 }
!1477 = !DIDerivedType(tag: DW_TAG_pointer_type, size: 64, align: 64, baseType: !1261)
!1478 = !{ null, !1477 }
!1479 = !DISubroutineType(types: !1478)
!1480 = !{ !1502 }
!1481 = distinct !DISubprogram(file: !1475, scope: !1261, name: "~ConstantField", line: 41, type: !1479, spFlags: 8, unit: !10, scopeLine: 41)
!1482 = !DILocation(scope: !1481)
!1483 = !DILexicalBlock(file: !1475, scope: !1481, line: 41, column: 1)
!1484 = !DILocation(scope: !1483)
!1485 = !DILexicalBlock(file: !1475, scope: !1483, line: 1, column: 1)
!1486 = !DILocation(scope: !1485)
!1487 = !DILexicalBlock(file: !1475, scope: !1485, line: 1, column: 1)
!1488 = !DILocation(scope: !1487)
!1489 = !DILexicalBlock(file: !1475, scope: !1487, line: 1, column: 1)
!1490 = !DILocation(scope: !1489)
!1491 = !DILexicalBlock(file: !1475, scope: !1489, line: 1, column: 1)
!1492 = !DILocation(scope: !1491)
!1493 = !DILexicalBlock(file: !1475, scope: !1483, line: 1, column: 1)
!1494 = !DILocation(scope: !1493)
!1495 = !DILexicalBlock(file: !1475, scope: !1493, line: 1, column: 1)
!1496 = !DILocation(scope: !1495)
!1497 = !DILexicalBlock(file: !1475, scope: !1495, line: 1, column: 1)
!1498 = !DILocation(scope: !1497)
!1499 = !DILexicalBlock(file: !1475, scope: !1497, line: 1, column: 1)
!1500 = !DILocation(scope: !1499)
!1501 = !DILocalVariable(scope: !1483, file: !1475, type: !1477, flags: 64)
!1502 = !DILocalVariable(scope: !1481, arg: 1, file: !1475, type: !1477, flags: 64)
!1503 = !DILocation(line: 41, column: 1, scope: !1483)
!1504 = distinct !DIGlobalVariable(scope: !10, name: "_ZTV13ConstantField", file: !3, type: !1390, isDefinition: true)
!1505 = !DIGlobalVariableExpression(var: !1504, expr: !1385)
!1506 = !{  }
!1507 = distinct !DISubprogram(file: !3, scope: !10, name: "_ZN13ConstantFieldD0Ev", type: !1479, spFlags: 8, unit: !10)
!1508 = !DILocation(scope: !1507)
!1509 = !DILexicalBlock(file: !3, scope: !1507, line: 1, column: 1)
!1510 = !DILocation(scope: !1509)
!1511 = !DILexicalBlock(file: !3, scope: !1509, line: 1, column: 1)
!1512 = !DILocation(scope: !1511)
!1513 = !DILexicalBlock(file: !3, scope: !1511, line: 1, column: 1)
!1514 = !DILocation(scope: !1513)
!1515 = !DILexicalBlock(file: !3, scope: !1513, line: 1, column: 1)
!1516 = !DILocation(scope: !1515)
!1517 = !DILexicalBlock(file: !3, scope: !1515, line: 1, column: 1)
!1518 = !DILocation(scope: !1517)
!1519 = !DILexicalBlock(file: !3, scope: !1517, line: 1, column: 1)
!1520 = !DILocation(scope: !1519)
!1521 = !DILexicalBlock(file: !3, scope: !1509, line: 1, column: 1)
!1522 = !DILocation(scope: !1521)
!1523 = !DILexicalBlock(file: !3, scope: !1521, line: 1, column: 1)
!1524 = !DILocation(scope: !1523)
!1525 = !DILexicalBlock(file: !3, scope: !1523, line: 1, column: 1)
!1526 = !DILocation(scope: !1525)
!1527 = !DILexicalBlock(file: !3, scope: !1525, line: 1, column: 1)
!1528 = !DILocation(scope: !1527)
!1529 = !DILexicalBlock(file: !3, scope: !1527, line: 1, column: 1)
!1530 = !DILocation(scope: !1529)
!1531 = !DILocation(line: 41, column: 1, scope: !1509)
!1532 = !{  }
!1533 = distinct !DISubprogram(file: !3, scope: !10, name: "_ZN13ConstantFieldD2Ev", type: !1479, spFlags: 8, unit: !10)
!1534 = !DILocation(scope: !1533)
!1535 = !DILexicalBlock(file: !3, scope: !1533, line: 1, column: 1)
!1536 = !DILocation(scope: !1535)
!1537 = !DILexicalBlock(file: !3, scope: !1535, line: 1, column: 1)
!1538 = !DILocation(scope: !1537)
!1539 = !DILexicalBlock(file: !3, scope: !1537, line: 1, column: 1)
!1540 = !DILocation(scope: !1539)
!1541 = !DILexicalBlock(file: !3, scope: !1539, line: 1, column: 1)
!1542 = !DILocation(scope: !1541)
!1543 = !DILexicalBlock(file: !3, scope: !1541, line: 1, column: 1)
!1544 = !DILocation(scope: !1543)
!1545 = !DILexicalBlock(file: !3, scope: !1543, line: 1, column: 1)
!1546 = !DILocation(scope: !1545)
!1547 = !DILexicalBlock(file: !3, scope: !1535, line: 1, column: 1)
!1548 = !DILocation(scope: !1547)
!1549 = !DILexicalBlock(file: !3, scope: !1547, line: 1, column: 1)
!1550 = !DILocation(scope: !1549)
!1551 = !DILexicalBlock(file: !3, scope: !1549, line: 1, column: 1)
!1552 = !DILocation(scope: !1551)
!1553 = !DILexicalBlock(file: !3, scope: !1551, line: 1, column: 1)
!1554 = !DILocation(scope: !1553)
!1555 = !DILexicalBlock(file: !3, scope: !1553, line: 1, column: 1)
!1556 = !DILocation(scope: !1555)
!1557 = !DILocation(line: 41, column: 1, scope: !1535)
!1558 = !{ null, !1477, !696, !696, !696 }
!1559 = !DISubroutineType(types: !1558)
!1560 = !{ !1566, !1568, !1570, !1572 }
!1561 = distinct !DISubprogram(file: !3, scope: !1261, name: "initialize", line: 32, type: !1559, spFlags: 8, unit: !10, scopeLine: 32)
!1562 = !DILocation(scope: !1561)
!1563 = !DILexicalBlock(file: !3, scope: !1561, line: 32, column: 1)
!1564 = !DILocation(scope: !1563)
!1565 = !DILocalVariable(scope: !1563, file: !3, type: !1477, flags: 64)
!1566 = !DILocalVariable(scope: !1561, arg: 1, file: !3, type: !1477, flags: 64)
!1567 = !DILocalVariable(scope: !1563, name: "Bx", file: !3, type: !696)
!1568 = !DILocalVariable(scope: !1561, name: "Bx", arg: 2, file: !3, type: !696)
!1569 = !DILocalVariable(scope: !1563, name: "By", file: !3, type: !696)
!1570 = !DILocalVariable(scope: !1561, name: "By", arg: 3, file: !3, type: !696)
!1571 = !DILocalVariable(scope: !1563, name: "Bz", file: !3, type: !696)
!1572 = !DILocalVariable(scope: !1561, name: "Bz", arg: 4, file: !3, type: !696)
!1573 = !DILocation(line: 33, column: 1, scope: !1563)
!1574 = !DILocation(line: 34, column: 1, scope: !1563)
!1575 = !DILocation(line: 35, column: 1, scope: !1563)
!1576 = !DILocation(line: 36, column: 1, scope: !1563)
!1577 = !DILocation(line: 37, column: 1, scope: !1563)
!1578 = !{ !1394, !1394, i64 0 }
!1579 = !{ !"double", !1394, i64 0 }
!1580 = !{ !1579, !1579, i64 0 }
!1581 = !{ !696, !1477, !696, !696, !696 }
!1582 = !DISubroutineType(types: !1581)
!1583 = !{ !1589, !1591, !1593, !1595 }
!1584 = distinct !DISubprogram(file: !3, scope: !1261, name: "call", line: 42, type: !1582, spFlags: 8, unit: !10, scopeLine: 42)
!1585 = !DILocation(scope: !1584)
!1586 = !DILexicalBlock(file: !3, scope: !1584, line: 42, column: 1)
!1587 = !DILocation(scope: !1586)
!1588 = !DILocalVariable(scope: !1586, file: !3, type: !1477, flags: 64)
!1589 = !DILocalVariable(scope: !1584, arg: 1, file: !3, type: !1477, flags: 64)
!1590 = !DILocalVariable(scope: !1586, name: "_T40172952_8106", file: !3, type: !696)
!1591 = !DILocalVariable(scope: !1584, name: "_T40172952_8106", arg: 2, file: !3, type: !696)
!1592 = !DILocalVariable(scope: !1586, name: "_T40173248_8106", file: !3, type: !696)
!1593 = !DILocalVariable(scope: !1584, name: "_T40173248_8106", arg: 3, file: !3, type: !696)
!1594 = !DILocalVariable(scope: !1586, name: "_T40173544_8106", file: !3, type: !696)
!1595 = !DILocalVariable(scope: !1584, name: "_T40173544_8106", arg: 4, file: !3, type: !696)
!1596 = !DILocation(line: 43, column: 1, scope: !1586)
!1597 = !DILocation(line: 45, column: 1, scope: !1586)
!1598 = !DILocation(line: 47, column: 1, scope: !1586)
!1599 = !DILocation(line: 52, column: 1, scope: !1586)
!1600 = !{  }
!1601 = distinct !DISubprogram(file: !3, scope: !10, name: "__sti___33_backgroundfield_constantfield_cpp_21141532", type: !351, spFlags: 8, unit: !10)
!1602 = !DILocation(scope: !1601)
!1603 = !DILexicalBlock(file: !3, scope: !1601, line: 1, column: 1)
!1604 = !DILocation(scope: !1603)
!1605 = !DILocation(line: 74, column: 1, scope: !1603)
!1606 = distinct !DIGlobalVariable(scope: !10, name: "__I___33_backgroundfield_constantfield_cpp_21141532", file: !3, line: 8109, type: !61, isDefinition: true)
!1607 = !DIGlobalVariableExpression(var: !1606, expr: !1385)
!1608 = !{ !1610 }
!1609 = !DICompositeType(tag: DW_TAG_structure_type, file: !3, name: "_ZNSt8ios_base4InitE", size: 8, align: 8, elements: !1608)
!1610 = !DIDerivedType(tag: DW_TAG_member, file: !3, scope: !1609, size: 8, align: 8, baseType: !377)
!1611 = distinct !DIGlobalVariable(scope: !10, name: "_ZN55_INTERNAL_33_backgroundfield_constantfield_cpp_21141532St8__ioinitE", file: !3, type: !1609, isLocal: true, isDefinition: true)
!1612 = !DIGlobalVariableExpression(var: !1611, expr: !1385)
!1613 = distinct !DIGlobalVariable(scope: !10, name: "__dso_handle", file: !3, type: !17)
!1614 = !DIGlobalVariableExpression(var: !1613, expr: !1385)
!1615 = !{ !"int", !1394, i64 0 }
!1616 = !{ !1615, !1615, i64 0 }
!1617 = distinct !DIGlobalVariable(scope: !10, name: "_ZTI11T3DFunction", file: !3, type: !657, isDefinition: true)
!1618 = !DIGlobalVariableExpression(var: !1617, expr: !1385)
!1619 = distinct !DIGlobalVariable(scope: !10, name: "_ZTI13FieldFunction", file: !3, type: !669, isDefinition: true)
!1620 = !DIGlobalVariableExpression(var: !1619, expr: !1385)
!1621 = distinct !DIGlobalVariable(scope: !10, name: "WID", file: !3, type: !61, isLocal: true, isDefinition: true)
!1622 = !DIGlobalVariableExpression(var: !1621, expr: !1385)
!1623 = distinct !DIGlobalVariable(scope: !10, name: "_ZTI13ConstantField", file: !3, type: !669, isDefinition: true)
!1624 = !DIGlobalVariableExpression(var: !1623, expr: !1385)
!1625 = distinct !DIGlobalVariable(scope: !10, name: "WID2", file: !3, type: !61, isLocal: true, isDefinition: true)
!1626 = !DIGlobalVariableExpression(var: !1625, expr: !1385)
!1627 = distinct !DIGlobalVariable(scope: !10, name: "WID3", file: !3, type: !61, isLocal: true, isDefinition: true)
!1628 = !DIGlobalVariableExpression(var: !1627, expr: !1385)
!1629 = !DICompositeType(tag: DW_TAG_array_type, align: 64, baseType: !124, elements: !376)
!1630 = distinct !DIGlobalVariable(scope: !10, name: "_ZTVN10__cxxabiv117__class_type_infoE", file: !3, type: !1629)
!1631 = !DIGlobalVariableExpression(var: !1630, expr: !1385)
!1632 = !DISubrange(count: 14)
!1633 = !{ !1632 }
!1634 = !DICompositeType(tag: DW_TAG_array_type, size: 112, align: 8, baseType: !43, elements: !1633)
!1635 = distinct !DIGlobalVariable(scope: !10, name: "_ZTS11T3DFunction", file: !3, type: !1634, isDefinition: true)
!1636 = !DIGlobalVariableExpression(var: !1635, expr: !1385)
!1637 = distinct !DIGlobalVariable(scope: !10, name: "_ZTVN10__cxxabiv120__si_class_type_infoE", file: !3, type: !1629)
!1638 = !DIGlobalVariableExpression(var: !1637, expr: !1385)
!1639 = distinct !DIGlobalVariable(scope: !10, name: "_ZTS13FieldFunction", file: !3, type: !52, isDefinition: true)
!1640 = !DIGlobalVariableExpression(var: !1639, expr: !1385)
!1641 = distinct !DIGlobalVariable(scope: !10, name: "_ZTS13ConstantField", file: !3, type: !52, isDefinition: true)
!1642 = !DIGlobalVariableExpression(var: !1641, expr: !1385)
!1643 = distinct !DIGlobalVariable(scope: !10, name: "_ZN55_INTERNAL_33_backgroundfield_constantfield_cpp_211415325vmesh15INVALID_LOCALIDE", file: !3, type: !97, isLocal: true, isDefinition: true)
!1644 = !DIGlobalVariableExpression(var: !1643, expr: !1385)
