	.text
	.file	"cpu_acc_sort_blocks.ll"
	.file	1 "/home/talgat/vlasiator/vlasovsolver/cpu_acc_sort_blocks.cpp"
	.weak	_Z14paircomparatorRKSt4pairIjjES2_ # -- Begin function _Z14paircomparatorRKSt4pairIjjES2_
	.p2align	4, 0x90
	.type	_Z14paircomparatorRKSt4pairIjjES2_,@function
_Z14paircomparatorRKSt4pairIjjES2_:     # @_Z14paircomparatorRKSt4pairIjjES2_
.Lfunc_begin0:
	.loc	1 35 0                  # vlasovsolver/cpu_acc_sort_blocks.cpp:35:0
	.cfi_startproc
# %bb.0:                                # %L.entry
	#DEBUG_VALUE: paircomparator:l <- $rdi
	#DEBUG_VALUE: paircomparator:l <- $rdi
	#DEBUG_VALUE: paircomparator:r <- $rsi
	#DEBUG_VALUE: paircomparator:r <- $rsi
	pushq	%rbp
	.cfi_def_cfa_offset 16
	.cfi_offset %rbp, -16
	movq	%rsp, %rbp
	.cfi_def_cfa_register %rbp
.Ltmp0:
	#DEBUG_VALUE: l <- $rdi
	#DEBUG_VALUE: l <- $rdi
	#DEBUG_VALUE: r <- $rsi
	#DEBUG_VALUE: r <- $rsi
	.loc	1 36 1 prologue_end     # vlasovsolver/cpu_acc_sort_blocks.cpp:36:1
	movl	(%rdi), %eax
	cmpl	(%rsi), %eax
	setb	%al
	popq	%rbp
	.cfi_def_cfa %rsp, 8
	retq
.Ltmp1:
.Lfunc_end0:
	.size	_Z14paircomparatorRKSt4pairIjjES2_, .Lfunc_end0-_Z14paircomparatorRKSt4pairIjjES2_
	.cfi_endproc
                                        # -- End function
	.globl	_Z24sortBlocklistByDimensionRKN5vmesh12VelocityMeshIjjEEjPjRSt6vectorIjSaIjEES8_S8_S8_ # -- Begin function _Z24sortBlocklistByDimensionRKN5vmesh12VelocityMeshIjjEEjPjRSt6vectorIjSaIjEES8_S8_S8_
	.p2align	4, 0x90
	.type	_Z24sortBlocklistByDimensionRKN5vmesh12VelocityMeshIjjEEjPjRSt6vectorIjSaIjEES8_S8_S8_,@function
_Z24sortBlocklistByDimensionRKN5vmesh12VelocityMeshIjjEEjPjRSt6vectorIjSaIjEES8_S8_S8_: # @_Z24sortBlocklistByDimensionRKN5vmesh12VelocityMeshIjjEEjPjRSt6vectorIjSaIjEES8_S8_S8_
.Lfunc_begin1:
	.loc	1 53 0                  # vlasovsolver/cpu_acc_sort_blocks.cpp:53:0
	.cfi_startproc
	.cfi_personality 3, __gxx_personality_v0
	.cfi_lsda 3, .Lexception0
# %bb.0:                                # %L.entry
	#DEBUG_VALUE: sortBlocklistByDimension:vmesh <- $rdi
	#DEBUG_VALUE: sortBlocklistByDimension:dimension <- $esi
	#DEBUG_VALUE: sortBlocklistByDimension:blocks <- $rdx
	#DEBUG_VALUE: sortBlocklistByDimension:columnBlockOffsets <- $rcx
	#DEBUG_VALUE: sortBlocklistByDimension:columnNumBlocks <- $r8
	#DEBUG_VALUE: sortBlocklistByDimension:setColumnOffsets <- $r9
	pushq	%rbp
	.cfi_def_cfa_offset 16
	.cfi_offset %rbp, -16
	movq	%rsp, %rbp
	.cfi_def_cfa_register %rbp
	pushq	%r15
	pushq	%r14
	pushq	%r13
	pushq	%r12
	pushq	%rbx
	subq	$168, %rsp
	.cfi_offset %rbx, -56
	.cfi_offset %r12, -48
	.cfi_offset %r13, -40
	.cfi_offset %r14, -32
	.cfi_offset %r15, -24
	movq	%r9, -96(%rbp)          # 8-byte Spill
	movq	%r8, -128(%rbp)         # 8-byte Spill
	movq	%rcx, -72(%rbp)         # 8-byte Spill
	movq	%rdx, -208(%rbp)        # 8-byte Spill
	movl	%esi, -136(%rbp)        # 4-byte Spill
	movq	%rdi, %r14
.Ltmp41:
	#DEBUG_VALUE: setNumColumns <- undef
	#DEBUG_VALUE: setColumnOffsets <- undef
	#DEBUG_VALUE: columnNumBlocks <- undef
	#DEBUG_VALUE: columnBlockOffsets <- undef
	#DEBUG_VALUE: blocks <- undef
	#DEBUG_VALUE: dimension <- undef
	#DEBUG_VALUE: vmesh <- $r14
	#DEBUG_VALUE: sortBlocklistByDimension:setNumColumns <- [DW_OP_plus_uconst 16] [$rbp+0]
	#DEBUG_VALUE: sortBlocklistByDimension:setColumnOffsets <- [DW_OP_constu 96, DW_OP_minus] [$rbp+0]
	#DEBUG_VALUE: sortBlocklistByDimension:columnNumBlocks <- [DW_OP_constu 128, DW_OP_minus] [$rbp+0]
	#DEBUG_VALUE: sortBlocklistByDimension:columnBlockOffsets <- [DW_OP_constu 72, DW_OP_minus] [$rbp+0]
	#DEBUG_VALUE: sortBlocklistByDimension:blocks <- [DW_OP_constu 208, DW_OP_minus] [$rbp+0]
	#DEBUG_VALUE: sortBlocklistByDimension:dimension <- [DW_OP_constu 136, DW_OP_minus] [$rbp+0]
	#DEBUG_VALUE: sortBlocklistByDimension:vmesh <- $r14
	.loc	1 660 1 prologue_end    # vlasovsolver/cpu_acc_sort_blocks.cpp:660:1
	movq	16(%rdi), %rcx
	subq	8(%rdi), %rcx
	shrq	$2, %rcx
.Ltmp42:
	#DEBUG_VALUE: nBlocks <- undef
	.loc	1 0 1 is_stmt 0         # vlasovsolver/cpu_acc_sort_blocks.cpp:0:1
	movl	$4294967295, %esi       # imm = 0xFFFFFFFF
.Ltmp43:
	.loc	1 131 1 is_stmt 1       # vlasovsolver/cpu_acc_sort_blocks.cpp:131:1
	vxorps	%xmm0, %xmm0, %xmm0
	vmovaps	%xmm0, -176(%rbp)
	movq	$0, -160(%rbp)
	movq	%rcx, %rax
	movq	%rcx, -88(%rbp)         # 8-byte Spill
.Ltmp44:
	.loc	1 936 1                 # vlasovsolver/cpu_acc_sort_blocks.cpp:936:1
	andq	%rcx, %rsi
	je	.LBB1_2
.Ltmp45:
# %bb.1:                                # %L.B1777
	#DEBUG_VALUE: sortBlocklistByDimension:vmesh <- $r14
	#DEBUG_VALUE: sortBlocklistByDimension:dimension <- [DW_OP_constu 136, DW_OP_minus] [$rbp+0]
	#DEBUG_VALUE: sortBlocklistByDimension:blocks <- [DW_OP_constu 208, DW_OP_minus] [$rbp+0]
	#DEBUG_VALUE: sortBlocklistByDimension:columnBlockOffsets <- [DW_OP_constu 72, DW_OP_minus] [$rbp+0]
	#DEBUG_VALUE: sortBlocklistByDimension:columnNumBlocks <- [DW_OP_constu 128, DW_OP_minus] [$rbp+0]
	#DEBUG_VALUE: sortBlocklistByDimension:setColumnOffsets <- [DW_OP_constu 96, DW_OP_minus] [$rbp+0]
	#DEBUG_VALUE: sortBlocklistByDimension:setNumColumns <- [DW_OP_plus_uconst 16] [$rbp+0]
	#DEBUG_VALUE: vmesh <- $r14
.Ltmp2:
	.loc	1 0 1 is_stmt 0         # vlasovsolver/cpu_acc_sort_blocks.cpp:0:1
	leaq	-176(%rbp), %rdi
	.loc	1 937 1 is_stmt 1       # vlasovsolver/cpu_acc_sort_blocks.cpp:937:1
	callq	_ZNSt6vectorISt4pairIjjESaIS1_EE17_M_default_appendEm
.Ltmp3:
.Ltmp46:
.LBB1_2:                                # %L..inline.40733
	#DEBUG_VALUE: sortBlocklistByDimension:vmesh <- $r14
	#DEBUG_VALUE: sortBlocklistByDimension:dimension <- [DW_OP_constu 136, DW_OP_minus] [$rbp+0]
	#DEBUG_VALUE: sortBlocklistByDimension:blocks <- [DW_OP_constu 208, DW_OP_minus] [$rbp+0]
	#DEBUG_VALUE: sortBlocklistByDimension:columnBlockOffsets <- [DW_OP_constu 72, DW_OP_minus] [$rbp+0]
	#DEBUG_VALUE: sortBlocklistByDimension:columnNumBlocks <- [DW_OP_constu 128, DW_OP_minus] [$rbp+0]
	#DEBUG_VALUE: sortBlocklistByDimension:setColumnOffsets <- [DW_OP_constu 96, DW_OP_minus] [$rbp+0]
	#DEBUG_VALUE: sortBlocklistByDimension:setNumColumns <- [DW_OP_plus_uconst 16] [$rbp+0]
	#DEBUG_VALUE: vmesh <- $r14
	#DEBUG_VALUE: setNumColumns <- undef
	#DEBUG_VALUE: nBlocks <- [DW_OP_constu 88, DW_OP_minus] [$rbp+0]
	.loc	1 64 1                  # vlasovsolver/cpu_acc_sort_blocks.cpp:64:1
	cmpl	$0, -88(%rbp)           # 4-byte Folded Reload
	movq	%r14, -56(%rbp)         # 8-byte Spill
	movl	-136(%rbp), %r12d       # 4-byte Reload
	je	.LBB1_12
.Ltmp47:
# %bb.3:                                # %L.B1776.preheader
	#DEBUG_VALUE: nBlocks <- [DW_OP_constu 88, DW_OP_minus] [$rbp+0]
	#DEBUG_VALUE: sortBlocklistByDimension:vmesh <- $r14
	#DEBUG_VALUE: sortBlocklistByDimension:dimension <- [DW_OP_constu 136, DW_OP_minus] [$rbp+0]
	#DEBUG_VALUE: sortBlocklistByDimension:blocks <- [DW_OP_constu 208, DW_OP_minus] [$rbp+0]
	#DEBUG_VALUE: sortBlocklistByDimension:columnBlockOffsets <- [DW_OP_constu 72, DW_OP_minus] [$rbp+0]
	#DEBUG_VALUE: sortBlocklistByDimension:columnNumBlocks <- [DW_OP_constu 128, DW_OP_minus] [$rbp+0]
	#DEBUG_VALUE: sortBlocklistByDimension:setColumnOffsets <- [DW_OP_constu 96, DW_OP_minus] [$rbp+0]
	#DEBUG_VALUE: sortBlocklistByDimension:setNumColumns <- [DW_OP_plus_uconst 16] [$rbp+0]
	#DEBUG_VALUE: vmesh <- $r14
	movslq	-88(%rbp), %r8          # 4-byte Folded Reload
	xorl	%ebx, %ebx
	xorl	%edi, %edi
	jmp	.LBB1_7
.Ltmp48:
	.p2align	4, 0x90
.LBB1_4:                                # %L.B0008
                                        #   in Loop: Header=BB1_7 Depth=1
	#DEBUG_VALUE: block <- $r10d
	#DEBUG_VALUE: nBlocks <- [DW_OP_constu 88, DW_OP_minus] [$rbp+0]
	#DEBUG_VALUE: sortBlocklistByDimension:dimension <- [DW_OP_constu 136, DW_OP_minus] [$rbp+0]
	#DEBUG_VALUE: sortBlocklistByDimension:blocks <- [DW_OP_constu 208, DW_OP_minus] [$rbp+0]
	#DEBUG_VALUE: sortBlocklistByDimension:columnBlockOffsets <- [DW_OP_constu 72, DW_OP_minus] [$rbp+0]
	#DEBUG_VALUE: sortBlocklistByDimension:columnNumBlocks <- [DW_OP_constu 128, DW_OP_minus] [$rbp+0]
	#DEBUG_VALUE: sortBlocklistByDimension:setColumnOffsets <- [DW_OP_constu 96, DW_OP_minus] [$rbp+0]
	#DEBUG_VALUE: sortBlocklistByDimension:setNumColumns <- [DW_OP_plus_uconst 16] [$rbp+0]
	imulq	$336, (%r14), %rax      # imm = 0x150
	movq	_ZN5vmesh12VelocityMeshIjjE14meshParametersE(%rip), %rcx
	movl	88(%rcx,%rax), %r11d
	movl	92(%rcx,%rax), %r14d
	movl	%r10d, %eax
	xorl	%edx, %edx
	divl	%r11d
	movl	%edx, %r9d
	xorl	%edx, %edx
	divl	%r14d
	leaq	(,%rdi,8), %rcx
	addq	-176(%rbp), %rcx
	imull	%edx, %r11d
	imull	%r9d, %r14d
	movl	%r10d, %esi
	subl	%r9d, %esi
	addl	%edx, %esi
	addl	%r14d, %esi
	movq	-56(%rbp), %r14         # 8-byte Reload
	subl	%r11d, %esi
.Ltmp49:
.LBB1_5:                                # %L_T17460352_19756.sink.split
                                        #   in Loop: Header=BB1_7 Depth=1
	#DEBUG_VALUE: block <- $r10d
	#DEBUG_VALUE: nBlocks <- [DW_OP_constu 88, DW_OP_minus] [$rbp+0]
	#DEBUG_VALUE: sortBlocklistByDimension:dimension <- [DW_OP_constu 136, DW_OP_minus] [$rbp+0]
	#DEBUG_VALUE: sortBlocklistByDimension:blocks <- [DW_OP_constu 208, DW_OP_minus] [$rbp+0]
	#DEBUG_VALUE: sortBlocklistByDimension:columnBlockOffsets <- [DW_OP_constu 72, DW_OP_minus] [$rbp+0]
	#DEBUG_VALUE: sortBlocklistByDimension:columnNumBlocks <- [DW_OP_constu 128, DW_OP_minus] [$rbp+0]
	#DEBUG_VALUE: sortBlocklistByDimension:setColumnOffsets <- [DW_OP_constu 96, DW_OP_minus] [$rbp+0]
	#DEBUG_VALUE: sortBlocklistByDimension:setNumColumns <- [DW_OP_plus_uconst 16] [$rbp+0]
	movl	%esi, (%rcx)
	movl	%r10d, 4(%rcx)
.Ltmp50:
.LBB1_6:                                # %L_T17460352_19756
                                        #   in Loop: Header=BB1_7 Depth=1
	#DEBUG_VALUE: block <- $r10d
	#DEBUG_VALUE: nBlocks <- [DW_OP_constu 88, DW_OP_minus] [$rbp+0]
	#DEBUG_VALUE: sortBlocklistByDimension:dimension <- [DW_OP_constu 136, DW_OP_minus] [$rbp+0]
	#DEBUG_VALUE: sortBlocklistByDimension:blocks <- [DW_OP_constu 208, DW_OP_minus] [$rbp+0]
	#DEBUG_VALUE: sortBlocklistByDimension:columnBlockOffsets <- [DW_OP_constu 72, DW_OP_minus] [$rbp+0]
	#DEBUG_VALUE: sortBlocklistByDimension:columnNumBlocks <- [DW_OP_constu 128, DW_OP_minus] [$rbp+0]
	#DEBUG_VALUE: sortBlocklistByDimension:setColumnOffsets <- [DW_OP_constu 96, DW_OP_minus] [$rbp+0]
	#DEBUG_VALUE: sortBlocklistByDimension:setNumColumns <- [DW_OP_plus_uconst 16] [$rbp+0]
	incq	%rdi
	addq	$8, %rbx
	cmpq	%r8, %rdi
	jge	.LBB1_12
.Ltmp51:
.LBB1_7:                                # %L.B1776
                                        # =>This Inner Loop Header: Depth=1
	#DEBUG_VALUE: nBlocks <- [DW_OP_constu 88, DW_OP_minus] [$rbp+0]
	#DEBUG_VALUE: sortBlocklistByDimension:dimension <- [DW_OP_constu 136, DW_OP_minus] [$rbp+0]
	#DEBUG_VALUE: sortBlocklistByDimension:blocks <- [DW_OP_constu 208, DW_OP_minus] [$rbp+0]
	#DEBUG_VALUE: sortBlocklistByDimension:columnBlockOffsets <- [DW_OP_constu 72, DW_OP_minus] [$rbp+0]
	#DEBUG_VALUE: sortBlocklistByDimension:columnNumBlocks <- [DW_OP_constu 128, DW_OP_minus] [$rbp+0]
	#DEBUG_VALUE: sortBlocklistByDimension:setColumnOffsets <- [DW_OP_constu 96, DW_OP_minus] [$rbp+0]
	#DEBUG_VALUE: sortBlocklistByDimension:setNumColumns <- [DW_OP_plus_uconst 16] [$rbp+0]
	movq	8(%r14), %rax
	movl	(%rax,%rdi,4), %r10d
.Ltmp52:
	#DEBUG_VALUE: block <- $r10d
	cmpl	$2, %r12d
	je	.LBB1_11
.Ltmp53:
# %bb.8:                                # %L.B1776
                                        #   in Loop: Header=BB1_7 Depth=1
	#DEBUG_VALUE: block <- $r10d
	#DEBUG_VALUE: nBlocks <- [DW_OP_constu 88, DW_OP_minus] [$rbp+0]
	#DEBUG_VALUE: sortBlocklistByDimension:dimension <- [DW_OP_constu 136, DW_OP_minus] [$rbp+0]
	#DEBUG_VALUE: sortBlocklistByDimension:blocks <- [DW_OP_constu 208, DW_OP_minus] [$rbp+0]
	#DEBUG_VALUE: sortBlocklistByDimension:columnBlockOffsets <- [DW_OP_constu 72, DW_OP_minus] [$rbp+0]
	#DEBUG_VALUE: sortBlocklistByDimension:columnNumBlocks <- [DW_OP_constu 128, DW_OP_minus] [$rbp+0]
	#DEBUG_VALUE: sortBlocklistByDimension:setColumnOffsets <- [DW_OP_constu 96, DW_OP_minus] [$rbp+0]
	#DEBUG_VALUE: sortBlocklistByDimension:setNumColumns <- [DW_OP_plus_uconst 16] [$rbp+0]
	cmpl	$1, %r12d
	je	.LBB1_4
.Ltmp54:
# %bb.9:                                # %L.B1776
                                        #   in Loop: Header=BB1_7 Depth=1
	#DEBUG_VALUE: block <- $r10d
	#DEBUG_VALUE: nBlocks <- [DW_OP_constu 88, DW_OP_minus] [$rbp+0]
	#DEBUG_VALUE: sortBlocklistByDimension:dimension <- [DW_OP_constu 136, DW_OP_minus] [$rbp+0]
	#DEBUG_VALUE: sortBlocklistByDimension:blocks <- [DW_OP_constu 208, DW_OP_minus] [$rbp+0]
	#DEBUG_VALUE: sortBlocklistByDimension:columnBlockOffsets <- [DW_OP_constu 72, DW_OP_minus] [$rbp+0]
	#DEBUG_VALUE: sortBlocklistByDimension:columnNumBlocks <- [DW_OP_constu 128, DW_OP_minus] [$rbp+0]
	#DEBUG_VALUE: sortBlocklistByDimension:setColumnOffsets <- [DW_OP_constu 96, DW_OP_minus] [$rbp+0]
	#DEBUG_VALUE: sortBlocklistByDimension:setNumColumns <- [DW_OP_plus_uconst 16] [$rbp+0]
	testl	%r12d, %r12d
	jne	.LBB1_6
.Ltmp55:
# %bb.10:                               # %L.B0005
                                        #   in Loop: Header=BB1_7 Depth=1
	#DEBUG_VALUE: block <- $r10d
	#DEBUG_VALUE: nBlocks <- [DW_OP_constu 88, DW_OP_minus] [$rbp+0]
	#DEBUG_VALUE: sortBlocklistByDimension:dimension <- [DW_OP_constu 136, DW_OP_minus] [$rbp+0]
	#DEBUG_VALUE: sortBlocklistByDimension:blocks <- [DW_OP_constu 208, DW_OP_minus] [$rbp+0]
	#DEBUG_VALUE: sortBlocklistByDimension:columnBlockOffsets <- [DW_OP_constu 72, DW_OP_minus] [$rbp+0]
	#DEBUG_VALUE: sortBlocklistByDimension:columnNumBlocks <- [DW_OP_constu 128, DW_OP_minus] [$rbp+0]
	#DEBUG_VALUE: sortBlocklistByDimension:setColumnOffsets <- [DW_OP_constu 96, DW_OP_minus] [$rbp+0]
	#DEBUG_VALUE: sortBlocklistByDimension:setNumColumns <- [DW_OP_plus_uconst 16] [$rbp+0]
	leaq	(,%rdi,8), %rcx
	addq	-176(%rbp), %rcx
	movl	%r10d, %esi
	jmp	.LBB1_5
.Ltmp56:
	.p2align	4, 0x90
.LBB1_11:                               # %L.B0011
                                        #   in Loop: Header=BB1_7 Depth=1
	#DEBUG_VALUE: block <- $r10d
	#DEBUG_VALUE: nBlocks <- [DW_OP_constu 88, DW_OP_minus] [$rbp+0]
	#DEBUG_VALUE: sortBlocklistByDimension:dimension <- [DW_OP_constu 136, DW_OP_minus] [$rbp+0]
	#DEBUG_VALUE: sortBlocklistByDimension:blocks <- [DW_OP_constu 208, DW_OP_minus] [$rbp+0]
	#DEBUG_VALUE: sortBlocklistByDimension:columnBlockOffsets <- [DW_OP_constu 72, DW_OP_minus] [$rbp+0]
	#DEBUG_VALUE: sortBlocklistByDimension:columnNumBlocks <- [DW_OP_constu 128, DW_OP_minus] [$rbp+0]
	#DEBUG_VALUE: sortBlocklistByDimension:setColumnOffsets <- [DW_OP_constu 96, DW_OP_minus] [$rbp+0]
	#DEBUG_VALUE: sortBlocklistByDimension:setNumColumns <- [DW_OP_plus_uconst 16] [$rbp+0]
	imulq	$336, (%r14), %r11      # imm = 0x150
	movq	_ZN5vmesh12VelocityMeshIjjE14meshParametersE(%rip), %r14
	movl	88(%r14,%r11), %ecx
	movl	92(%r14,%r11), %r15d
	movl	%r10d, %eax
	xorl	%edx, %edx
	divl	%ecx
	movl	%edx, %esi
	xorl	%edx, %edx
	divl	%r15d
	movl	%edx, %r9d
	imull	%r15d, %ecx
	movl	%r10d, %eax
	xorl	%edx, %edx
	divl	%ecx
	movq	-176(%rbp), %rcx
	addq	%rbx, %rcx
	imull	%r15d, %esi
	addl	%r9d, %esi
	imull	96(%r14,%r11), %esi
	movq	-56(%rbp), %r14         # 8-byte Reload
	addl	%eax, %esi
	jmp	.LBB1_5
.Ltmp57:
.LBB1_12:                               # %L.B0002
	#DEBUG_VALUE: nBlocks <- [DW_OP_constu 88, DW_OP_minus] [$rbp+0]
	#DEBUG_VALUE: sortBlocklistByDimension:dimension <- [DW_OP_constu 136, DW_OP_minus] [$rbp+0]
	#DEBUG_VALUE: sortBlocklistByDimension:blocks <- [DW_OP_constu 208, DW_OP_minus] [$rbp+0]
	#DEBUG_VALUE: sortBlocklistByDimension:columnBlockOffsets <- [DW_OP_constu 72, DW_OP_minus] [$rbp+0]
	#DEBUG_VALUE: sortBlocklistByDimension:columnNumBlocks <- [DW_OP_constu 128, DW_OP_minus] [$rbp+0]
	#DEBUG_VALUE: sortBlocklistByDimension:setColumnOffsets <- [DW_OP_constu 96, DW_OP_minus] [$rbp+0]
	#DEBUG_VALUE: sortBlocklistByDimension:setNumColumns <- [DW_OP_plus_uconst 16] [$rbp+0]
	#DEBUG_VALUE: setNumColumns <- undef
	.loc	1 809 1                 # vlasovsolver/cpu_acc_sort_blocks.cpp:809:1
	movq	-176(%rbp), %r13
	.loc	1 827 1                 # vlasovsolver/cpu_acc_sort_blocks.cpp:827:1
	movq	-168(%rbp), %r15
.Ltmp58:
	#DEBUG_VALUE: __sort:__first <- $r13
	#DEBUG_VALUE: __sort:__last <- $r15
	.file	2 "/usr/include/c++/9/bits/stl_algo.h"
	.loc	2 910 1                 # /usr/include/c++/9/bits/stl_algo.h:910:1
	cmpq	%r15, %r13
.Ltmp59:
	#DEBUG_VALUE: __sort:__comp <- undef
	.loc	2 0 1 is_stmt 0         # /usr/include/c++/9/bits/stl_algo.h:0:1
	movq	-72(%rbp), %r12         # 8-byte Reload
	.loc	2 910 1                 # /usr/include/c++/9/bits/stl_algo.h:910:1
	je	.LBB1_113
.Ltmp60:
# %bb.13:                               # %L.B3162.i
	#DEBUG_VALUE: __sort:__last <- $r15
	#DEBUG_VALUE: __sort:__first <- $r13
	#DEBUG_VALUE: nBlocks <- [DW_OP_constu 88, DW_OP_minus] [$rbp+0]
	#DEBUG_VALUE: sortBlocklistByDimension:dimension <- [DW_OP_constu 136, DW_OP_minus] [$rbp+0]
	#DEBUG_VALUE: sortBlocklistByDimension:blocks <- [DW_OP_constu 208, DW_OP_minus] [$rbp+0]
	#DEBUG_VALUE: sortBlocklistByDimension:columnBlockOffsets <- [DW_OP_constu 72, DW_OP_minus] [$rbp+0]
	#DEBUG_VALUE: sortBlocklistByDimension:columnNumBlocks <- [DW_OP_constu 128, DW_OP_minus] [$rbp+0]
	#DEBUG_VALUE: sortBlocklistByDimension:setColumnOffsets <- [DW_OP_constu 96, DW_OP_minus] [$rbp+0]
	#DEBUG_VALUE: sortBlocklistByDimension:setNumColumns <- [DW_OP_plus_uconst 16] [$rbp+0]
	.loc	2 992 1 is_stmt 1       # /usr/include/c++/9/bits/stl_algo.h:992:1
	movq	%r13, %rax
	negq	%rax
	movq	%rax, -104(%rbp)        # 8-byte Spill
	movq	%r15, %rbx
	subq	%r13, %rbx
	movq	%rbx, %rdi
	sarq	$3, %rdi
	.loc	2 1029 1                # /usr/include/c++/9/bits/stl_algo.h:1029:1
	callq	__blt_pgi_clzl
	.loc	2 1943 1                # /usr/include/c++/9/bits/stl_algo.h:1943:1
	cmpq	$136, %rbx
	movq	%r15, -48(%rbp)         # 8-byte Spill
	jge	.LBB1_34
.Ltmp61:
# %bb.14:                               # %L.B0223.i
	#DEBUG_VALUE: __sort:__last <- $r15
	#DEBUG_VALUE: __sort:__first <- $r13
	#DEBUG_VALUE: nBlocks <- [DW_OP_constu 88, DW_OP_minus] [$rbp+0]
	#DEBUG_VALUE: sortBlocklistByDimension:dimension <- [DW_OP_constu 136, DW_OP_minus] [$rbp+0]
	#DEBUG_VALUE: sortBlocklistByDimension:blocks <- [DW_OP_constu 208, DW_OP_minus] [$rbp+0]
	#DEBUG_VALUE: sortBlocklistByDimension:columnBlockOffsets <- [DW_OP_constu 72, DW_OP_minus] [$rbp+0]
	#DEBUG_VALUE: sortBlocklistByDimension:columnNumBlocks <- [DW_OP_constu 128, DW_OP_minus] [$rbp+0]
	#DEBUG_VALUE: sortBlocklistByDimension:setColumnOffsets <- [DW_OP_constu 96, DW_OP_minus] [$rbp+0]
	#DEBUG_VALUE: sortBlocklistByDimension:setNumColumns <- [DW_OP_plus_uconst 16] [$rbp+0]
	#DEBUG_VALUE: __insertion_sort:__first <- $r13
	#DEBUG_VALUE: __insertion_sort:__last <- [DW_OP_constu 48, DW_OP_minus] [$rbp+0]
	.loc	2 1844 1                # /usr/include/c++/9/bits/stl_algo.h:1844:1
	leaq	8(%r13), %rax
.Ltmp62:
	#DEBUG_VALUE: __i <- $rax
	.loc	2 910 1                 # /usr/include/c++/9/bits/stl_algo.h:910:1
	cmpq	%r15, %rax
.Ltmp63:
	#DEBUG_VALUE: __insertion_sort:__comp <- undef
	je	.LBB1_113
.Ltmp64:
# %bb.15:                               # %L.B0225.preheader.i
	#DEBUG_VALUE: __insertion_sort:__last <- [DW_OP_constu 48, DW_OP_minus] [$rbp+0]
	#DEBUG_VALUE: __insertion_sort:__first <- $r13
	#DEBUG_VALUE: __sort:__last <- $r15
	#DEBUG_VALUE: __sort:__first <- $r13
	#DEBUG_VALUE: nBlocks <- [DW_OP_constu 88, DW_OP_minus] [$rbp+0]
	#DEBUG_VALUE: sortBlocklistByDimension:dimension <- [DW_OP_constu 136, DW_OP_minus] [$rbp+0]
	#DEBUG_VALUE: sortBlocklistByDimension:blocks <- [DW_OP_constu 208, DW_OP_minus] [$rbp+0]
	#DEBUG_VALUE: sortBlocklistByDimension:columnBlockOffsets <- [DW_OP_constu 72, DW_OP_minus] [$rbp+0]
	#DEBUG_VALUE: sortBlocklistByDimension:columnNumBlocks <- [DW_OP_constu 128, DW_OP_minus] [$rbp+0]
	#DEBUG_VALUE: sortBlocklistByDimension:setColumnOffsets <- [DW_OP_constu 96, DW_OP_minus] [$rbp+0]
	#DEBUG_VALUE: sortBlocklistByDimension:setNumColumns <- [DW_OP_plus_uconst 16] [$rbp+0]
	.loc	2 0 0 is_stmt 0         # /usr/include/c++/9/bits/stl_algo.h:0:0
	leaq	4(%r13), %r8
	.loc	2 143 1 is_stmt 1       # /usr/include/c++/9/bits/stl_algo.h:143:1
	leaq	-16(%r13), %r11
	jmp	.LBB1_18
.Ltmp65:
	.p2align	4, 0x90
.LBB1_16:                               # %L.N0039.i
                                        #   in Loop: Header=BB1_18 Depth=1
	#DEBUG_VALUE: ....inline._M_current <- [DW_OP_constu 8, DW_OP_minus, DW_OP_stack_value] $rax
	#DEBUG_VALUE: __insertion_sort:__last <- [DW_OP_constu 48, DW_OP_minus] [$rbp+0]
	#DEBUG_VALUE: __insertion_sort:__first <- $r13
	#DEBUG_VALUE: __sort:__first <- $r13
	#DEBUG_VALUE: nBlocks <- [DW_OP_constu 88, DW_OP_minus] [$rbp+0]
	#DEBUG_VALUE: sortBlocklistByDimension:dimension <- [DW_OP_constu 136, DW_OP_minus] [$rbp+0]
	#DEBUG_VALUE: sortBlocklistByDimension:blocks <- [DW_OP_constu 208, DW_OP_minus] [$rbp+0]
	#DEBUG_VALUE: sortBlocklistByDimension:columnBlockOffsets <- [DW_OP_constu 72, DW_OP_minus] [$rbp+0]
	#DEBUG_VALUE: sortBlocklistByDimension:columnNumBlocks <- [DW_OP_constu 128, DW_OP_minus] [$rbp+0]
	#DEBUG_VALUE: sortBlocklistByDimension:setColumnOffsets <- [DW_OP_constu 96, DW_OP_minus] [$rbp+0]
	#DEBUG_VALUE: sortBlocklistByDimension:setNumColumns <- [DW_OP_plus_uconst 16] [$rbp+0]
	#DEBUG_VALUE: ....inline._M_current <- $rcx
	.loc	2 1833 1                # /usr/include/c++/9/bits/stl_algo.h:1833:1
	movl	%edi, (%rcx)
	addq	$4, %rcx
.Ltmp66:
.LBB1_17:                               # %L.B0231.i
                                        #   in Loop: Header=BB1_18 Depth=1
	#DEBUG_VALUE: __insertion_sort:__last <- [DW_OP_constu 48, DW_OP_minus] [$rbp+0]
	#DEBUG_VALUE: __insertion_sort:__first <- $r13
	#DEBUG_VALUE: __sort:__first <- $r13
	#DEBUG_VALUE: nBlocks <- [DW_OP_constu 88, DW_OP_minus] [$rbp+0]
	#DEBUG_VALUE: sortBlocklistByDimension:dimension <- [DW_OP_constu 136, DW_OP_minus] [$rbp+0]
	#DEBUG_VALUE: sortBlocklistByDimension:blocks <- [DW_OP_constu 208, DW_OP_minus] [$rbp+0]
	#DEBUG_VALUE: sortBlocklistByDimension:columnBlockOffsets <- [DW_OP_constu 72, DW_OP_minus] [$rbp+0]
	#DEBUG_VALUE: sortBlocklistByDimension:columnNumBlocks <- [DW_OP_constu 128, DW_OP_minus] [$rbp+0]
	#DEBUG_VALUE: sortBlocklistByDimension:setColumnOffsets <- [DW_OP_constu 96, DW_OP_minus] [$rbp+0]
	#DEBUG_VALUE: sortBlocklistByDimension:setNumColumns <- [DW_OP_plus_uconst 16] [$rbp+0]
	.loc	2 0 0 is_stmt 0         # /usr/include/c++/9/bits/stl_algo.h:0:0
	movl	%r9d, (%rcx)
.Ltmp67:
	.loc	2 1856 1 is_stmt 1      # /usr/include/c++/9/bits/stl_algo.h:1856:1
	addq	$8, %rax
.Ltmp68:
	#DEBUG_VALUE: __i <- $rax
	addq	$8, %r11
	cmpq	%r15, %rax
	je	.LBB1_113
.Ltmp69:
.LBB1_18:                               # %.noexc104
                                        # =>This Loop Header: Depth=1
                                        #     Child Loop BB1_24 Depth 2
                                        #     Child Loop BB1_26 Depth 2
	#DEBUG_VALUE: __insertion_sort:__last <- [DW_OP_constu 48, DW_OP_minus] [$rbp+0]
	#DEBUG_VALUE: __insertion_sort:__first <- $r13
	#DEBUG_VALUE: __sort:__first <- $r13
	#DEBUG_VALUE: nBlocks <- [DW_OP_constu 88, DW_OP_minus] [$rbp+0]
	#DEBUG_VALUE: sortBlocklistByDimension:dimension <- [DW_OP_constu 136, DW_OP_minus] [$rbp+0]
	#DEBUG_VALUE: sortBlocklistByDimension:blocks <- [DW_OP_constu 208, DW_OP_minus] [$rbp+0]
	#DEBUG_VALUE: sortBlocklistByDimension:columnBlockOffsets <- [DW_OP_constu 72, DW_OP_minus] [$rbp+0]
	#DEBUG_VALUE: sortBlocklistByDimension:columnNumBlocks <- [DW_OP_constu 128, DW_OP_minus] [$rbp+0]
	#DEBUG_VALUE: sortBlocklistByDimension:setColumnOffsets <- [DW_OP_constu 96, DW_OP_minus] [$rbp+0]
	#DEBUG_VALUE: sortBlocklistByDimension:setNumColumns <- [DW_OP_plus_uconst 16] [$rbp+0]
	#DEBUG_VALUE: __i <- $rax
	#DEBUG_VALUE: paircomparator:l <- $rax
	#DEBUG_VALUE: l <- $rax
	#DEBUG_VALUE: paircomparator:r <- $r13
	#DEBUG_VALUE: r <- $r13
	.loc	1 36 1                  # vlasovsolver/cpu_acc_sort_blocks.cpp:36:1
	movl	(%rax), %edi
.Ltmp70:
	.loc	2 0 0 is_stmt 0         # /usr/include/c++/9/bits/stl_algo.h:0:0
	movl	4(%rax), %r9d
.Ltmp71:
	.loc	1 36 1                  # vlasovsolver/cpu_acc_sort_blocks.cpp:36:1
	cmpl	(%r13), %edi
.Ltmp72:
	#DEBUG_VALUE: r <- $r13
	#DEBUG_VALUE: paircomparator:r <- $r13
	#DEBUG_VALUE: l <- $rax
	#DEBUG_VALUE: paircomparator:l <- $rax
	.loc	2 143 1 is_stmt 1       # /usr/include/c++/9/bits/stl_algo.h:143:1
	jae	.LBB1_22
.Ltmp73:
# %bb.19:                               # %L.B3420.i
                                        #   in Loop: Header=BB1_18 Depth=1
	#DEBUG_VALUE: __insertion_sort:__last <- [DW_OP_constu 48, DW_OP_minus] [$rbp+0]
	#DEBUG_VALUE: __insertion_sort:__first <- $r13
	#DEBUG_VALUE: __sort:__first <- $r13
	#DEBUG_VALUE: nBlocks <- [DW_OP_constu 88, DW_OP_minus] [$rbp+0]
	#DEBUG_VALUE: sortBlocklistByDimension:dimension <- [DW_OP_constu 136, DW_OP_minus] [$rbp+0]
	#DEBUG_VALUE: sortBlocklistByDimension:blocks <- [DW_OP_constu 208, DW_OP_minus] [$rbp+0]
	#DEBUG_VALUE: sortBlocklistByDimension:columnBlockOffsets <- [DW_OP_constu 72, DW_OP_minus] [$rbp+0]
	#DEBUG_VALUE: sortBlocklistByDimension:columnNumBlocks <- [DW_OP_constu 128, DW_OP_minus] [$rbp+0]
	#DEBUG_VALUE: sortBlocklistByDimension:setColumnOffsets <- [DW_OP_constu 96, DW_OP_minus] [$rbp+0]
	#DEBUG_VALUE: sortBlocklistByDimension:setNumColumns <- [DW_OP_plus_uconst 16] [$rbp+0]
	#DEBUG_VALUE: ....inline._M_current <- [DW_OP_plus_uconst 8, DW_OP_stack_value] $rax
	.loc	2 0 1 is_stmt 0         # /usr/include/c++/9/bits/stl_algo.h:0:1
	movq	-104(%rbp), %rcx        # 8-byte Reload
	.loc	2 686 1 is_stmt 1       # /usr/include/c++/9/bits/stl_algo.h:686:1
	leaq	(%rax,%rcx), %rsi
	cmpq	$8, %rsi
	.loc	2 1827 1                # /usr/include/c++/9/bits/stl_algo.h:1827:1
	jl	.LBB1_33
.Ltmp74:
# %bb.20:                               # %L.B3421.i
                                        #   in Loop: Header=BB1_18 Depth=1
	#DEBUG_VALUE: ....inline._M_current <- [DW_OP_plus_uconst 8, DW_OP_stack_value] $rax
	#DEBUG_VALUE: __insertion_sort:__last <- [DW_OP_constu 48, DW_OP_minus] [$rbp+0]
	#DEBUG_VALUE: __insertion_sort:__first <- $r13
	#DEBUG_VALUE: __sort:__first <- $r13
	#DEBUG_VALUE: nBlocks <- [DW_OP_constu 88, DW_OP_minus] [$rbp+0]
	#DEBUG_VALUE: sortBlocklistByDimension:dimension <- [DW_OP_constu 136, DW_OP_minus] [$rbp+0]
	#DEBUG_VALUE: sortBlocklistByDimension:blocks <- [DW_OP_constu 208, DW_OP_minus] [$rbp+0]
	#DEBUG_VALUE: sortBlocklistByDimension:columnBlockOffsets <- [DW_OP_constu 72, DW_OP_minus] [$rbp+0]
	#DEBUG_VALUE: sortBlocklistByDimension:columnNumBlocks <- [DW_OP_constu 128, DW_OP_minus] [$rbp+0]
	#DEBUG_VALUE: sortBlocklistByDimension:setColumnOffsets <- [DW_OP_constu 96, DW_OP_minus] [$rbp+0]
	#DEBUG_VALUE: sortBlocklistByDimension:setNumColumns <- [DW_OP_plus_uconst 16] [$rbp+0]
	.loc	2 0 1 is_stmt 0         # /usr/include/c++/9/bits/stl_algo.h:0:1
	movq	%rsi, %r10
	sarq	$3, %r10
	.loc	2 686 1 is_stmt 1       # /usr/include/c++/9/bits/stl_algo.h:686:1
	cmpq	$32, %rsi
	jge	.LBB1_25
.Ltmp75:
# %bb.21:                               #   in Loop: Header=BB1_18 Depth=1
	#DEBUG_VALUE: ....inline._M_current <- [DW_OP_plus_uconst 8, DW_OP_stack_value] $rax
	#DEBUG_VALUE: __insertion_sort:__last <- [DW_OP_constu 48, DW_OP_minus] [$rbp+0]
	#DEBUG_VALUE: __insertion_sort:__first <- $r13
	#DEBUG_VALUE: __sort:__first <- $r13
	#DEBUG_VALUE: nBlocks <- [DW_OP_constu 88, DW_OP_minus] [$rbp+0]
	#DEBUG_VALUE: sortBlocklistByDimension:dimension <- [DW_OP_constu 136, DW_OP_minus] [$rbp+0]
	#DEBUG_VALUE: sortBlocklistByDimension:blocks <- [DW_OP_constu 208, DW_OP_minus] [$rbp+0]
	#DEBUG_VALUE: sortBlocklistByDimension:columnBlockOffsets <- [DW_OP_constu 72, DW_OP_minus] [$rbp+0]
	#DEBUG_VALUE: sortBlocklistByDimension:columnNumBlocks <- [DW_OP_constu 128, DW_OP_minus] [$rbp+0]
	#DEBUG_VALUE: sortBlocklistByDimension:setColumnOffsets <- [DW_OP_constu 96, DW_OP_minus] [$rbp+0]
	#DEBUG_VALUE: sortBlocklistByDimension:setNumColumns <- [DW_OP_plus_uconst 16] [$rbp+0]
	.loc	2 1827 1                # /usr/include/c++/9/bits/stl_algo.h:1827:1
	xorl	%ebx, %ebx
	.loc	2 686 1                 # /usr/include/c++/9/bits/stl_algo.h:686:1
	testq	%r10, %r10
	jne	.LBB1_28
	jmp	.LBB1_33
.Ltmp76:
	.p2align	4, 0x90
.LBB1_22:                               # %.noexc105
                                        #   in Loop: Header=BB1_18 Depth=1
	#DEBUG_VALUE: r <- $r13
	#DEBUG_VALUE: paircomparator:r <- $r13
	#DEBUG_VALUE: l <- $rax
	#DEBUG_VALUE: paircomparator:l <- $rax
	#DEBUG_VALUE: __insertion_sort:__last <- [DW_OP_constu 48, DW_OP_minus] [$rbp+0]
	#DEBUG_VALUE: __insertion_sort:__first <- $r13
	#DEBUG_VALUE: __sort:__first <- $r13
	#DEBUG_VALUE: nBlocks <- [DW_OP_constu 88, DW_OP_minus] [$rbp+0]
	#DEBUG_VALUE: sortBlocklistByDimension:dimension <- [DW_OP_constu 136, DW_OP_minus] [$rbp+0]
	#DEBUG_VALUE: sortBlocklistByDimension:blocks <- [DW_OP_constu 208, DW_OP_minus] [$rbp+0]
	#DEBUG_VALUE: sortBlocklistByDimension:columnBlockOffsets <- [DW_OP_constu 72, DW_OP_minus] [$rbp+0]
	#DEBUG_VALUE: sortBlocklistByDimension:columnNumBlocks <- [DW_OP_constu 128, DW_OP_minus] [$rbp+0]
	#DEBUG_VALUE: sortBlocklistByDimension:setColumnOffsets <- [DW_OP_constu 96, DW_OP_minus] [$rbp+0]
	#DEBUG_VALUE: sortBlocklistByDimension:setNumColumns <- [DW_OP_plus_uconst 16] [$rbp+0]
	#DEBUG_VALUE: paircomparator:l <- $rax
	#DEBUG_VALUE: l <- $rax
	#DEBUG_VALUE: ....inline._M_current <- $rax
	#DEBUG_VALUE: ....inline._M_current <- [DW_OP_constu 8, DW_OP_minus, DW_OP_stack_value] $rax
	#DEBUG_VALUE: paircomparator:l <- undef
	#DEBUG_VALUE: l <- undef
	#DEBUG_VALUE: paircomparator:r <- [DW_OP_constu 8, DW_OP_minus, DW_OP_stack_value] $rax
	#DEBUG_VALUE: r <- [DW_OP_constu 8, DW_OP_minus, DW_OP_stack_value] $rax
	.loc	1 36 1                  # vlasovsolver/cpu_acc_sort_blocks.cpp:36:1
	movl	-8(%rax), %esi
.Ltmp77:
	.loc	2 0 0 is_stmt 0         # /usr/include/c++/9/bits/stl_algo.h:0:0
	movq	%rax, %rcx
.Ltmp78:
	.loc	1 36 1                  # vlasovsolver/cpu_acc_sort_blocks.cpp:36:1
	cmpl	%esi, %edi
.Ltmp79:
	#DEBUG_VALUE: ....inline._M_comp <- undef
	#DEBUG_VALUE: r <- [DW_OP_constu 8, DW_OP_minus, DW_OP_stack_value] $rax
	#DEBUG_VALUE: paircomparator:r <- [DW_OP_constu 8, DW_OP_minus, DW_OP_stack_value] $rax
	.loc	2 1827 1 is_stmt 1      # /usr/include/c++/9/bits/stl_algo.h:1827:1
	jae	.LBB1_16
.Ltmp80:
# %bb.23:                               # %.noexc106.preheader
                                        #   in Loop: Header=BB1_18 Depth=1
	#DEBUG_VALUE: ....inline._M_current <- [DW_OP_constu 8, DW_OP_minus, DW_OP_stack_value] $rax
	#DEBUG_VALUE: __insertion_sort:__last <- [DW_OP_constu 48, DW_OP_minus] [$rbp+0]
	#DEBUG_VALUE: __insertion_sort:__first <- $r13
	#DEBUG_VALUE: __sort:__first <- $r13
	#DEBUG_VALUE: nBlocks <- [DW_OP_constu 88, DW_OP_minus] [$rbp+0]
	#DEBUG_VALUE: sortBlocklistByDimension:dimension <- [DW_OP_constu 136, DW_OP_minus] [$rbp+0]
	#DEBUG_VALUE: sortBlocklistByDimension:blocks <- [DW_OP_constu 208, DW_OP_minus] [$rbp+0]
	#DEBUG_VALUE: sortBlocklistByDimension:columnBlockOffsets <- [DW_OP_constu 72, DW_OP_minus] [$rbp+0]
	#DEBUG_VALUE: sortBlocklistByDimension:columnNumBlocks <- [DW_OP_constu 128, DW_OP_minus] [$rbp+0]
	#DEBUG_VALUE: sortBlocklistByDimension:setColumnOffsets <- [DW_OP_constu 96, DW_OP_minus] [$rbp+0]
	#DEBUG_VALUE: sortBlocklistByDimension:setNumColumns <- [DW_OP_plus_uconst 16] [$rbp+0]
	#DEBUG_VALUE: ....inline._M_current <- [DW_OP_constu 8, DW_OP_minus, DW_OP_stack_value] $rax
	.loc	2 1829 1                # /usr/include/c++/9/bits/stl_algo.h:1829:1
	movq	%rax, %rcx
.Ltmp81:
	.p2align	4, 0x90
.LBB1_24:                               # %.noexc106
                                        #   Parent Loop BB1_18 Depth=1
                                        # =>  This Inner Loop Header: Depth=2
	#DEBUG_VALUE: ....inline._M_current <- [DW_OP_constu 8, DW_OP_minus, DW_OP_stack_value] $rax
	#DEBUG_VALUE: __insertion_sort:__last <- [DW_OP_constu 48, DW_OP_minus] [$rbp+0]
	#DEBUG_VALUE: __insertion_sort:__first <- $r13
	#DEBUG_VALUE: __sort:__first <- $r13
	#DEBUG_VALUE: nBlocks <- [DW_OP_constu 88, DW_OP_minus] [$rbp+0]
	#DEBUG_VALUE: sortBlocklistByDimension:dimension <- [DW_OP_constu 136, DW_OP_minus] [$rbp+0]
	#DEBUG_VALUE: sortBlocklistByDimension:blocks <- [DW_OP_constu 208, DW_OP_minus] [$rbp+0]
	#DEBUG_VALUE: sortBlocklistByDimension:columnBlockOffsets <- [DW_OP_constu 72, DW_OP_minus] [$rbp+0]
	#DEBUG_VALUE: sortBlocklistByDimension:columnNumBlocks <- [DW_OP_constu 128, DW_OP_minus] [$rbp+0]
	#DEBUG_VALUE: sortBlocklistByDimension:setColumnOffsets <- [DW_OP_constu 96, DW_OP_minus] [$rbp+0]
	#DEBUG_VALUE: sortBlocklistByDimension:setNumColumns <- [DW_OP_plus_uconst 16] [$rbp+0]
	movl	%esi, (%rcx)
.Ltmp82:
	#DEBUG_VALUE: r <- [DW_OP_constu 8, DW_OP_minus, DW_OP_stack_value] undef
	#DEBUG_VALUE: paircomparator:r <- [DW_OP_constu 8, DW_OP_minus, DW_OP_stack_value] undef
	#DEBUG_VALUE: l <- undef
	#DEBUG_VALUE: paircomparator:l <- undef
	#DEBUG_VALUE: ....inline._M_current <- undef
	.loc	1 36 1                  # vlasovsolver/cpu_acc_sort_blocks.cpp:36:1
	movl	-16(%rcx), %esi
.Ltmp83:
	.loc	2 1829 1                # /usr/include/c++/9/bits/stl_algo.h:1829:1
	movl	-4(%rcx), %edx
	movl	%edx, 4(%rcx)
	.loc	2 1827 1                # /usr/include/c++/9/bits/stl_algo.h:1827:1
	addq	$-8, %rcx
.Ltmp84:
	.loc	1 36 1                  # vlasovsolver/cpu_acc_sort_blocks.cpp:36:1
	cmpl	%esi, %edi
.Ltmp85:
	.loc	2 1827 1                # /usr/include/c++/9/bits/stl_algo.h:1827:1
	jb	.LBB1_24
	jmp	.LBB1_16
.Ltmp86:
.LBB1_25:                               # %L.B3422.i
                                        #   in Loop: Header=BB1_18 Depth=1
	#DEBUG_VALUE: ....inline._M_current <- [DW_OP_plus_uconst 8, DW_OP_stack_value] $rax
	#DEBUG_VALUE: __insertion_sort:__last <- [DW_OP_constu 48, DW_OP_minus] [$rbp+0]
	#DEBUG_VALUE: __insertion_sort:__first <- $r13
	#DEBUG_VALUE: __sort:__first <- $r13
	#DEBUG_VALUE: nBlocks <- [DW_OP_constu 88, DW_OP_minus] [$rbp+0]
	#DEBUG_VALUE: sortBlocklistByDimension:dimension <- [DW_OP_constu 136, DW_OP_minus] [$rbp+0]
	#DEBUG_VALUE: sortBlocklistByDimension:blocks <- [DW_OP_constu 208, DW_OP_minus] [$rbp+0]
	#DEBUG_VALUE: sortBlocklistByDimension:columnBlockOffsets <- [DW_OP_constu 72, DW_OP_minus] [$rbp+0]
	#DEBUG_VALUE: sortBlocklistByDimension:columnNumBlocks <- [DW_OP_constu 128, DW_OP_minus] [$rbp+0]
	#DEBUG_VALUE: sortBlocklistByDimension:setColumnOffsets <- [DW_OP_constu 96, DW_OP_minus] [$rbp+0]
	#DEBUG_VALUE: sortBlocklistByDimension:setNumColumns <- [DW_OP_plus_uconst 16] [$rbp+0]
	.loc	2 686 1                 # /usr/include/c++/9/bits/stl_algo.h:686:1
	sarq	$4, %rsi
	shrq	$62, %rsi
	addq	%r10, %rsi
	movq	%rsi, %rcx
	sarq	$2, %rcx
	movq	%r11, %rdx
	.loc	2 1827 1                # /usr/include/c++/9/bits/stl_algo.h:1827:1
	xorl	%ebx, %ebx
.Ltmp87:
	.p2align	4, 0x90
.LBB1_26:                               # %L.B3413.i
                                        #   Parent Loop BB1_18 Depth=1
                                        # =>  This Inner Loop Header: Depth=2
	#DEBUG_VALUE: ....inline._M_current <- [DW_OP_plus_uconst 8, DW_OP_stack_value] $rax
	#DEBUG_VALUE: __insertion_sort:__last <- [DW_OP_constu 48, DW_OP_minus] [$rbp+0]
	#DEBUG_VALUE: __insertion_sort:__first <- $r13
	#DEBUG_VALUE: __sort:__first <- $r13
	#DEBUG_VALUE: nBlocks <- [DW_OP_constu 88, DW_OP_minus] [$rbp+0]
	#DEBUG_VALUE: sortBlocklistByDimension:dimension <- [DW_OP_constu 136, DW_OP_minus] [$rbp+0]
	#DEBUG_VALUE: sortBlocklistByDimension:blocks <- [DW_OP_constu 208, DW_OP_minus] [$rbp+0]
	#DEBUG_VALUE: sortBlocklistByDimension:columnBlockOffsets <- [DW_OP_constu 72, DW_OP_minus] [$rbp+0]
	#DEBUG_VALUE: sortBlocklistByDimension:columnNumBlocks <- [DW_OP_constu 128, DW_OP_minus] [$rbp+0]
	#DEBUG_VALUE: sortBlocklistByDimension:setColumnOffsets <- [DW_OP_constu 96, DW_OP_minus] [$rbp+0]
	#DEBUG_VALUE: sortBlocklistByDimension:setNumColumns <- [DW_OP_plus_uconst 16] [$rbp+0]
	.loc	2 686 1                 # /usr/include/c++/9/bits/stl_algo.h:686:1
	vmovups	-8(%rdx), %ymm0
	vmovups	%ymm0, (%rdx)
	.loc	2 1827 1                # /usr/include/c++/9/bits/stl_algo.h:1827:1
	addq	$4, %rbx
	addq	$-32, %rdx
	decq	%rcx
	jg	.LBB1_26
.Ltmp88:
# %bb.27:                               # %L.B3415.loopexit.i
                                        #   in Loop: Header=BB1_18 Depth=1
	#DEBUG_VALUE: ....inline._M_current <- [DW_OP_plus_uconst 8, DW_OP_stack_value] $rax
	#DEBUG_VALUE: __insertion_sort:__last <- [DW_OP_constu 48, DW_OP_minus] [$rbp+0]
	#DEBUG_VALUE: __insertion_sort:__first <- $r13
	#DEBUG_VALUE: __sort:__first <- $r13
	#DEBUG_VALUE: nBlocks <- [DW_OP_constu 88, DW_OP_minus] [$rbp+0]
	#DEBUG_VALUE: sortBlocklistByDimension:dimension <- [DW_OP_constu 136, DW_OP_minus] [$rbp+0]
	#DEBUG_VALUE: sortBlocklistByDimension:blocks <- [DW_OP_constu 208, DW_OP_minus] [$rbp+0]
	#DEBUG_VALUE: sortBlocklistByDimension:columnBlockOffsets <- [DW_OP_constu 72, DW_OP_minus] [$rbp+0]
	#DEBUG_VALUE: sortBlocklistByDimension:columnNumBlocks <- [DW_OP_constu 128, DW_OP_minus] [$rbp+0]
	#DEBUG_VALUE: sortBlocklistByDimension:setColumnOffsets <- [DW_OP_constu 96, DW_OP_minus] [$rbp+0]
	#DEBUG_VALUE: sortBlocklistByDimension:setNumColumns <- [DW_OP_plus_uconst 16] [$rbp+0]
	.loc	2 686 1                 # /usr/include/c++/9/bits/stl_algo.h:686:1
	andq	$-4, %rsi
	subq	%rsi, %r10
	testq	%r10, %r10
	je	.LBB1_33
.Ltmp89:
.LBB1_28:                               # %L.B3415.i
                                        #   in Loop: Header=BB1_18 Depth=1
	#DEBUG_VALUE: ....inline._M_current <- [DW_OP_plus_uconst 8, DW_OP_stack_value] $rax
	#DEBUG_VALUE: __insertion_sort:__last <- [DW_OP_constu 48, DW_OP_minus] [$rbp+0]
	#DEBUG_VALUE: __insertion_sort:__first <- $r13
	#DEBUG_VALUE: __sort:__first <- $r13
	#DEBUG_VALUE: nBlocks <- [DW_OP_constu 88, DW_OP_minus] [$rbp+0]
	#DEBUG_VALUE: sortBlocklistByDimension:dimension <- [DW_OP_constu 136, DW_OP_minus] [$rbp+0]
	#DEBUG_VALUE: sortBlocklistByDimension:blocks <- [DW_OP_constu 208, DW_OP_minus] [$rbp+0]
	#DEBUG_VALUE: sortBlocklistByDimension:columnBlockOffsets <- [DW_OP_constu 72, DW_OP_minus] [$rbp+0]
	#DEBUG_VALUE: sortBlocklistByDimension:columnNumBlocks <- [DW_OP_constu 128, DW_OP_minus] [$rbp+0]
	#DEBUG_VALUE: sortBlocklistByDimension:setColumnOffsets <- [DW_OP_constu 96, DW_OP_minus] [$rbp+0]
	#DEBUG_VALUE: sortBlocklistByDimension:setNumColumns <- [DW_OP_plus_uconst 16] [$rbp+0]
	cmpq	$1, %r10
	je	.LBB1_32
.Ltmp90:
# %bb.29:                               # %L.B3415.i
                                        #   in Loop: Header=BB1_18 Depth=1
	#DEBUG_VALUE: ....inline._M_current <- [DW_OP_plus_uconst 8, DW_OP_stack_value] $rax
	#DEBUG_VALUE: __insertion_sort:__last <- [DW_OP_constu 48, DW_OP_minus] [$rbp+0]
	#DEBUG_VALUE: __insertion_sort:__first <- $r13
	#DEBUG_VALUE: __sort:__first <- $r13
	#DEBUG_VALUE: nBlocks <- [DW_OP_constu 88, DW_OP_minus] [$rbp+0]
	#DEBUG_VALUE: sortBlocklistByDimension:dimension <- [DW_OP_constu 136, DW_OP_minus] [$rbp+0]
	#DEBUG_VALUE: sortBlocklistByDimension:blocks <- [DW_OP_constu 208, DW_OP_minus] [$rbp+0]
	#DEBUG_VALUE: sortBlocklistByDimension:columnBlockOffsets <- [DW_OP_constu 72, DW_OP_minus] [$rbp+0]
	#DEBUG_VALUE: sortBlocklistByDimension:columnNumBlocks <- [DW_OP_constu 128, DW_OP_minus] [$rbp+0]
	#DEBUG_VALUE: sortBlocklistByDimension:setColumnOffsets <- [DW_OP_constu 96, DW_OP_minus] [$rbp+0]
	#DEBUG_VALUE: sortBlocklistByDimension:setNumColumns <- [DW_OP_plus_uconst 16] [$rbp+0]
	cmpq	$2, %r10
	je	.LBB1_31
.Ltmp91:
# %bb.30:                               # %L.B3426.i
                                        #   in Loop: Header=BB1_18 Depth=1
	#DEBUG_VALUE: ....inline._M_current <- [DW_OP_plus_uconst 8, DW_OP_stack_value] $rax
	#DEBUG_VALUE: __insertion_sort:__last <- [DW_OP_constu 48, DW_OP_minus] [$rbp+0]
	#DEBUG_VALUE: __insertion_sort:__first <- $r13
	#DEBUG_VALUE: __sort:__first <- $r13
	#DEBUG_VALUE: nBlocks <- [DW_OP_constu 88, DW_OP_minus] [$rbp+0]
	#DEBUG_VALUE: sortBlocklistByDimension:dimension <- [DW_OP_constu 136, DW_OP_minus] [$rbp+0]
	#DEBUG_VALUE: sortBlocklistByDimension:blocks <- [DW_OP_constu 208, DW_OP_minus] [$rbp+0]
	#DEBUG_VALUE: sortBlocklistByDimension:columnBlockOffsets <- [DW_OP_constu 72, DW_OP_minus] [$rbp+0]
	#DEBUG_VALUE: sortBlocklistByDimension:columnNumBlocks <- [DW_OP_constu 128, DW_OP_minus] [$rbp+0]
	#DEBUG_VALUE: sortBlocklistByDimension:setColumnOffsets <- [DW_OP_constu 96, DW_OP_minus] [$rbp+0]
	#DEBUG_VALUE: sortBlocklistByDimension:setNumColumns <- [DW_OP_plus_uconst 16] [$rbp+0]
	leaq	(,%rbx,8), %rcx
	movq	%rax, %rdx
	subq	%rcx, %rdx
	movq	-8(%rdx), %rcx
	movq	%rcx, (%rdx)
	incq	%rbx
.Ltmp92:
.LBB1_31:                               # %L.B3418.i
                                        #   in Loop: Header=BB1_18 Depth=1
	#DEBUG_VALUE: ....inline._M_current <- [DW_OP_plus_uconst 8, DW_OP_stack_value] $rax
	#DEBUG_VALUE: __insertion_sort:__last <- [DW_OP_constu 48, DW_OP_minus] [$rbp+0]
	#DEBUG_VALUE: __insertion_sort:__first <- $r13
	#DEBUG_VALUE: __sort:__first <- $r13
	#DEBUG_VALUE: nBlocks <- [DW_OP_constu 88, DW_OP_minus] [$rbp+0]
	#DEBUG_VALUE: sortBlocklistByDimension:dimension <- [DW_OP_constu 136, DW_OP_minus] [$rbp+0]
	#DEBUG_VALUE: sortBlocklistByDimension:blocks <- [DW_OP_constu 208, DW_OP_minus] [$rbp+0]
	#DEBUG_VALUE: sortBlocklistByDimension:columnBlockOffsets <- [DW_OP_constu 72, DW_OP_minus] [$rbp+0]
	#DEBUG_VALUE: sortBlocklistByDimension:columnNumBlocks <- [DW_OP_constu 128, DW_OP_minus] [$rbp+0]
	#DEBUG_VALUE: sortBlocklistByDimension:setColumnOffsets <- [DW_OP_constu 96, DW_OP_minus] [$rbp+0]
	#DEBUG_VALUE: sortBlocklistByDimension:setNumColumns <- [DW_OP_plus_uconst 16] [$rbp+0]
	leaq	(,%rbx,8), %rcx
	movq	%rax, %rdx
	subq	%rcx, %rdx
	movq	-8(%rdx), %rcx
	movq	%rcx, (%rdx)
	incq	%rbx
.Ltmp93:
.LBB1_32:                               # %L.B3417.i
                                        #   in Loop: Header=BB1_18 Depth=1
	#DEBUG_VALUE: ....inline._M_current <- [DW_OP_plus_uconst 8, DW_OP_stack_value] $rax
	#DEBUG_VALUE: __insertion_sort:__last <- [DW_OP_constu 48, DW_OP_minus] [$rbp+0]
	#DEBUG_VALUE: __insertion_sort:__first <- $r13
	#DEBUG_VALUE: __sort:__first <- $r13
	#DEBUG_VALUE: nBlocks <- [DW_OP_constu 88, DW_OP_minus] [$rbp+0]
	#DEBUG_VALUE: sortBlocklistByDimension:dimension <- [DW_OP_constu 136, DW_OP_minus] [$rbp+0]
	#DEBUG_VALUE: sortBlocklistByDimension:blocks <- [DW_OP_constu 208, DW_OP_minus] [$rbp+0]
	#DEBUG_VALUE: sortBlocklistByDimension:columnBlockOffsets <- [DW_OP_constu 72, DW_OP_minus] [$rbp+0]
	#DEBUG_VALUE: sortBlocklistByDimension:columnNumBlocks <- [DW_OP_constu 128, DW_OP_minus] [$rbp+0]
	#DEBUG_VALUE: sortBlocklistByDimension:setColumnOffsets <- [DW_OP_constu 96, DW_OP_minus] [$rbp+0]
	#DEBUG_VALUE: sortBlocklistByDimension:setNumColumns <- [DW_OP_plus_uconst 16] [$rbp+0]
	shlq	$3, %rbx
	movq	%rax, %rcx
	subq	%rbx, %rcx
	movq	-8(%rcx), %rdx
	movq	%rdx, (%rcx)
.Ltmp94:
.LBB1_33:                               # %L.B3414.i
                                        #   in Loop: Header=BB1_18 Depth=1
	#DEBUG_VALUE: ....inline._M_current <- [DW_OP_plus_uconst 8, DW_OP_stack_value] $rax
	#DEBUG_VALUE: __insertion_sort:__last <- [DW_OP_constu 48, DW_OP_minus] [$rbp+0]
	#DEBUG_VALUE: __insertion_sort:__first <- $r13
	#DEBUG_VALUE: __sort:__first <- $r13
	#DEBUG_VALUE: nBlocks <- [DW_OP_constu 88, DW_OP_minus] [$rbp+0]
	#DEBUG_VALUE: sortBlocklistByDimension:dimension <- [DW_OP_constu 136, DW_OP_minus] [$rbp+0]
	#DEBUG_VALUE: sortBlocklistByDimension:blocks <- [DW_OP_constu 208, DW_OP_minus] [$rbp+0]
	#DEBUG_VALUE: sortBlocklistByDimension:columnBlockOffsets <- [DW_OP_constu 72, DW_OP_minus] [$rbp+0]
	#DEBUG_VALUE: sortBlocklistByDimension:columnNumBlocks <- [DW_OP_constu 128, DW_OP_minus] [$rbp+0]
	#DEBUG_VALUE: sortBlocklistByDimension:setColumnOffsets <- [DW_OP_constu 96, DW_OP_minus] [$rbp+0]
	#DEBUG_VALUE: sortBlocklistByDimension:setNumColumns <- [DW_OP_plus_uconst 16] [$rbp+0]
	.loc	2 396 1                 # /usr/include/c++/9/bits/stl_algo.h:396:1
	movl	%edi, (%r13)
	movq	%r8, %rcx
	movq	-48(%rbp), %r15         # 8-byte Reload
	jmp	.LBB1_17
.Ltmp95:
.LBB1_34:                               # %L..inline.59528.preheader.i
	#DEBUG_VALUE: __sort:__last <- $r15
	#DEBUG_VALUE: __sort:__first <- $r13
	#DEBUG_VALUE: nBlocks <- [DW_OP_constu 88, DW_OP_minus] [$rbp+0]
	#DEBUG_VALUE: sortBlocklistByDimension:dimension <- [DW_OP_constu 136, DW_OP_minus] [$rbp+0]
	#DEBUG_VALUE: sortBlocklistByDimension:blocks <- [DW_OP_constu 208, DW_OP_minus] [$rbp+0]
	#DEBUG_VALUE: sortBlocklistByDimension:columnBlockOffsets <- [DW_OP_constu 72, DW_OP_minus] [$rbp+0]
	#DEBUG_VALUE: sortBlocklistByDimension:columnNumBlocks <- [DW_OP_constu 128, DW_OP_minus] [$rbp+0]
	#DEBUG_VALUE: sortBlocklistByDimension:setColumnOffsets <- [DW_OP_constu 96, DW_OP_minus] [$rbp+0]
	#DEBUG_VALUE: sortBlocklistByDimension:setNumColumns <- [DW_OP_plus_uconst 16] [$rbp+0]
	.loc	2 1029 1                # /usr/include/c++/9/bits/stl_algo.h:1029:1
	cltq
	.loc	2 1967 1                # /usr/include/c++/9/bits/stl_algo.h:1967:1
	addq	%rax, %rax
	movl	$126, %r12d
	subq	%rax, %r12
.Ltmp96:
	.loc	2 0 0 is_stmt 0         # /usr/include/c++/9/bits/stl_algo.h:0:0
	leaq	8(%r13), %r14
.Ltmp97:
	leaq	4(%r13), %rax
	movq	%rax, -144(%rbp)        # 8-byte Spill
	leaq	12(%r13), %rax
	movq	%rax, -112(%rbp)        # 8-byte Spill
	movq	$-8, %rax
.Ltmp98:
	.loc	2 1944 1 is_stmt 1      # /usr/include/c++/9/bits/stl_algo.h:1944:1
	subq	%r13, %rax
	movq	%rax, -64(%rbp)         # 8-byte Spill
.Ltmp99:
	.loc	2 0 0 is_stmt 0         # /usr/include/c++/9/bits/stl_algo.h:0:0
	movq	%r15, %rsi
.Ltmp100:
	.p2align	4, 0x90
.LBB1_35:                               # %L..inline.59528.i
                                        # =>This Loop Header: Depth=1
                                        #     Child Loop BB1_49 Depth 2
                                        #       Child Loop BB1_50 Depth 3
                                        #       Child Loop BB1_52 Depth 3
	#DEBUG_VALUE: __sort:__first <- $r13
	#DEBUG_VALUE: nBlocks <- [DW_OP_constu 88, DW_OP_minus] [$rbp+0]
	#DEBUG_VALUE: sortBlocklistByDimension:dimension <- [DW_OP_constu 136, DW_OP_minus] [$rbp+0]
	#DEBUG_VALUE: sortBlocklistByDimension:blocks <- [DW_OP_constu 208, DW_OP_minus] [$rbp+0]
	#DEBUG_VALUE: sortBlocklistByDimension:columnBlockOffsets <- [DW_OP_constu 72, DW_OP_minus] [$rbp+0]
	#DEBUG_VALUE: sortBlocklistByDimension:columnNumBlocks <- [DW_OP_constu 128, DW_OP_minus] [$rbp+0]
	#DEBUG_VALUE: sortBlocklistByDimension:setColumnOffsets <- [DW_OP_constu 96, DW_OP_minus] [$rbp+0]
	#DEBUG_VALUE: sortBlocklistByDimension:setNumColumns <- [DW_OP_plus_uconst 16] [$rbp+0]
	.loc	2 1944 1                # /usr/include/c++/9/bits/stl_algo.h:1944:1
	testq	%r12, %r12
	je	.LBB1_57
.Ltmp101:
# %bb.36:                               # %.noexc99
                                        #   in Loop: Header=BB1_35 Depth=1
	#DEBUG_VALUE: __sort:__first <- $r13
	#DEBUG_VALUE: nBlocks <- [DW_OP_constu 88, DW_OP_minus] [$rbp+0]
	#DEBUG_VALUE: sortBlocklistByDimension:dimension <- [DW_OP_constu 136, DW_OP_minus] [$rbp+0]
	#DEBUG_VALUE: sortBlocklistByDimension:blocks <- [DW_OP_constu 208, DW_OP_minus] [$rbp+0]
	#DEBUG_VALUE: sortBlocklistByDimension:columnBlockOffsets <- [DW_OP_constu 72, DW_OP_minus] [$rbp+0]
	#DEBUG_VALUE: sortBlocklistByDimension:columnNumBlocks <- [DW_OP_constu 128, DW_OP_minus] [$rbp+0]
	#DEBUG_VALUE: sortBlocklistByDimension:setColumnOffsets <- [DW_OP_constu 96, DW_OP_minus] [$rbp+0]
	#DEBUG_VALUE: sortBlocklistByDimension:setNumColumns <- [DW_OP_plus_uconst 16] [$rbp+0]
	#DEBUG_VALUE: __unguarded_partition_pivot:__first <- $r13
	#DEBUG_VALUE: __unguarded_partition_pivot:__last <- $rsi
	.loc	2 0 1                   # /usr/include/c++/9/bits/stl_algo.h:0:1
	movq	-104(%rbp), %rax        # 8-byte Reload
.Ltmp102:
	.loc	2 992 1 is_stmt 1       # /usr/include/c++/9/bits/stl_algo.h:992:1
	leaq	(%rsi,%rax), %rdx
	movq	%rdx, %rax
	sarq	$3, %rax
	shrq	$63, %rdx
	addq	%rax, %rdx
	andq	$-2, %rdx
	.loc	2 1919 1                # /usr/include/c++/9/bits/stl_algo.h:1919:1
	leaq	(,%rdx,4), %rax
	addq	%r13, %rax
.Ltmp103:
	#DEBUG_VALUE: __move_median_to_first:__c <- [DW_OP_constu 8, DW_OP_minus, DW_OP_stack_value] $rsi
	#DEBUG_VALUE: r <- $rax
	#DEBUG_VALUE: paircomparator:r <- $rax
	#DEBUG_VALUE: l <- $r14
	#DEBUG_VALUE: paircomparator:l <- $r14
	#DEBUG_VALUE: __move_median_to_first:__b <- $rax
	#DEBUG_VALUE: __move_median_to_first:__a <- $r14
	#DEBUG_VALUE: __move_median_to_first:__result <- $r13
	#DEBUG_VALUE: __mid <- $rax
	.loc	1 36 1                  # vlasovsolver/cpu_acc_sort_blocks.cpp:36:1
	movl	8(%r13), %ecx
	movl	(%r13,%rdx,4), %edi
.Ltmp104:
	.loc	2 0 0 is_stmt 0         # /usr/include/c++/9/bits/stl_algo.h:0:0
	movl	-8(%rsi), %edx
.Ltmp105:
	#DEBUG_VALUE: __move_median_to_first:__comp <- undef
	#DEBUG_VALUE: __unguarded_partition_pivot:__comp <- undef
	.loc	1 36 1                  # vlasovsolver/cpu_acc_sort_blocks.cpp:36:1
	cmpl	%edi, %ecx
.Ltmp106:
	#DEBUG_VALUE: r <- $rax
	#DEBUG_VALUE: paircomparator:r <- $rax
	#DEBUG_VALUE: l <- $r14
	#DEBUG_VALUE: paircomparator:l <- $r14
	.loc	2 143 1 is_stmt 1       # /usr/include/c++/9/bits/stl_algo.h:143:1
	jae	.LBB1_39
.Ltmp107:
# %bb.37:                               # %.noexc100
                                        #   in Loop: Header=BB1_35 Depth=1
	#DEBUG_VALUE: __mid <- $rax
	#DEBUG_VALUE: __move_median_to_first:__result <- $r13
	#DEBUG_VALUE: __move_median_to_first:__a <- $r14
	#DEBUG_VALUE: __move_median_to_first:__b <- $rax
	#DEBUG_VALUE: __move_median_to_first:__c <- [DW_OP_constu 8, DW_OP_minus, DW_OP_stack_value] $rsi
	#DEBUG_VALUE: __unguarded_partition_pivot:__last <- $rsi
	#DEBUG_VALUE: __unguarded_partition_pivot:__first <- $r13
	#DEBUG_VALUE: __sort:__first <- $r13
	#DEBUG_VALUE: nBlocks <- [DW_OP_constu 88, DW_OP_minus] [$rbp+0]
	#DEBUG_VALUE: sortBlocklistByDimension:dimension <- [DW_OP_constu 136, DW_OP_minus] [$rbp+0]
	#DEBUG_VALUE: sortBlocklistByDimension:blocks <- [DW_OP_constu 208, DW_OP_minus] [$rbp+0]
	#DEBUG_VALUE: sortBlocklistByDimension:columnBlockOffsets <- [DW_OP_constu 72, DW_OP_minus] [$rbp+0]
	#DEBUG_VALUE: sortBlocklistByDimension:columnNumBlocks <- [DW_OP_constu 128, DW_OP_minus] [$rbp+0]
	#DEBUG_VALUE: sortBlocklistByDimension:setColumnOffsets <- [DW_OP_constu 96, DW_OP_minus] [$rbp+0]
	#DEBUG_VALUE: sortBlocklistByDimension:setNumColumns <- [DW_OP_plus_uconst 16] [$rbp+0]
	#DEBUG_VALUE: paircomparator:l <- $rax
	#DEBUG_VALUE: l <- $rax
	.loc	1 36 1                  # vlasovsolver/cpu_acc_sort_blocks.cpp:36:1
	cmpl	%edx, %edi
.Ltmp108:
	#DEBUG_VALUE: r <- [DW_OP_constu 8, DW_OP_minus, DW_OP_stack_value] $rsi
	#DEBUG_VALUE: paircomparator:r <- [DW_OP_constu 8, DW_OP_minus, DW_OP_stack_value] $rsi
	.loc	2 143 1                 # /usr/include/c++/9/bits/stl_algo.h:143:1
	jae	.LBB1_41
.Ltmp109:
# %bb.38:                               # %L.B3333.i
                                        #   in Loop: Header=BB1_35 Depth=1
	#DEBUG_VALUE: __mid <- $rax
	#DEBUG_VALUE: __move_median_to_first:__result <- $r13
	#DEBUG_VALUE: __move_median_to_first:__a <- $r14
	#DEBUG_VALUE: __move_median_to_first:__b <- $rax
	#DEBUG_VALUE: __move_median_to_first:__c <- [DW_OP_constu 8, DW_OP_minus, DW_OP_stack_value] $rsi
	#DEBUG_VALUE: __unguarded_partition_pivot:__last <- $rsi
	#DEBUG_VALUE: __unguarded_partition_pivot:__first <- $r13
	#DEBUG_VALUE: __sort:__first <- $r13
	#DEBUG_VALUE: nBlocks <- [DW_OP_constu 88, DW_OP_minus] [$rbp+0]
	#DEBUG_VALUE: sortBlocklistByDimension:dimension <- [DW_OP_constu 136, DW_OP_minus] [$rbp+0]
	#DEBUG_VALUE: sortBlocklistByDimension:blocks <- [DW_OP_constu 208, DW_OP_minus] [$rbp+0]
	#DEBUG_VALUE: sortBlocklistByDimension:columnBlockOffsets <- [DW_OP_constu 72, DW_OP_minus] [$rbp+0]
	#DEBUG_VALUE: sortBlocklistByDimension:columnNumBlocks <- [DW_OP_constu 128, DW_OP_minus] [$rbp+0]
	#DEBUG_VALUE: sortBlocklistByDimension:setColumnOffsets <- [DW_OP_constu 96, DW_OP_minus] [$rbp+0]
	#DEBUG_VALUE: sortBlocklistByDimension:setNumColumns <- [DW_OP_plus_uconst 16] [$rbp+0]
	.loc	2 151 1                 # /usr/include/c++/9/bits/stl_algo.h:151:1
	movl	(%r13), %ecx
	jmp	.LBB1_47
.Ltmp110:
	.p2align	4, 0x90
.LBB1_39:                               # %.noexc102
                                        #   in Loop: Header=BB1_35 Depth=1
	#DEBUG_VALUE: __mid <- $rax
	#DEBUG_VALUE: __move_median_to_first:__result <- $r13
	#DEBUG_VALUE: __move_median_to_first:__a <- $r14
	#DEBUG_VALUE: __move_median_to_first:__b <- $rax
	#DEBUG_VALUE: __move_median_to_first:__c <- [DW_OP_constu 8, DW_OP_minus, DW_OP_stack_value] $rsi
	#DEBUG_VALUE: __unguarded_partition_pivot:__last <- $rsi
	#DEBUG_VALUE: __unguarded_partition_pivot:__first <- $r13
	#DEBUG_VALUE: __sort:__first <- $r13
	#DEBUG_VALUE: nBlocks <- [DW_OP_constu 88, DW_OP_minus] [$rbp+0]
	#DEBUG_VALUE: sortBlocklistByDimension:dimension <- [DW_OP_constu 136, DW_OP_minus] [$rbp+0]
	#DEBUG_VALUE: sortBlocklistByDimension:blocks <- [DW_OP_constu 208, DW_OP_minus] [$rbp+0]
	#DEBUG_VALUE: sortBlocklistByDimension:columnBlockOffsets <- [DW_OP_constu 72, DW_OP_minus] [$rbp+0]
	#DEBUG_VALUE: sortBlocklistByDimension:columnNumBlocks <- [DW_OP_constu 128, DW_OP_minus] [$rbp+0]
	#DEBUG_VALUE: sortBlocklistByDimension:setColumnOffsets <- [DW_OP_constu 96, DW_OP_minus] [$rbp+0]
	#DEBUG_VALUE: sortBlocklistByDimension:setNumColumns <- [DW_OP_plus_uconst 16] [$rbp+0]
	#DEBUG_VALUE: paircomparator:l <- $r14
	#DEBUG_VALUE: l <- $r14
	.loc	1 36 1                  # vlasovsolver/cpu_acc_sort_blocks.cpp:36:1
	cmpl	%edx, %ecx
.Ltmp111:
	#DEBUG_VALUE: r <- [DW_OP_constu 8, DW_OP_minus, DW_OP_stack_value] $rsi
	#DEBUG_VALUE: paircomparator:r <- [DW_OP_constu 8, DW_OP_minus, DW_OP_stack_value] $rsi
	.loc	2 143 1                 # /usr/include/c++/9/bits/stl_algo.h:143:1
	jae	.LBB1_44
.Ltmp112:
# %bb.40:                               # %L.B3335.i
                                        #   in Loop: Header=BB1_35 Depth=1
	#DEBUG_VALUE: __mid <- $rax
	#DEBUG_VALUE: __move_median_to_first:__result <- $r13
	#DEBUG_VALUE: __move_median_to_first:__a <- $r14
	#DEBUG_VALUE: __move_median_to_first:__b <- $rax
	#DEBUG_VALUE: __move_median_to_first:__c <- [DW_OP_constu 8, DW_OP_minus, DW_OP_stack_value] $rsi
	#DEBUG_VALUE: __unguarded_partition_pivot:__last <- $rsi
	#DEBUG_VALUE: __unguarded_partition_pivot:__first <- $r13
	#DEBUG_VALUE: __sort:__first <- $r13
	#DEBUG_VALUE: nBlocks <- [DW_OP_constu 88, DW_OP_minus] [$rbp+0]
	#DEBUG_VALUE: sortBlocklistByDimension:dimension <- [DW_OP_constu 136, DW_OP_minus] [$rbp+0]
	#DEBUG_VALUE: sortBlocklistByDimension:blocks <- [DW_OP_constu 208, DW_OP_minus] [$rbp+0]
	#DEBUG_VALUE: sortBlocklistByDimension:columnBlockOffsets <- [DW_OP_constu 72, DW_OP_minus] [$rbp+0]
	#DEBUG_VALUE: sortBlocklistByDimension:columnNumBlocks <- [DW_OP_constu 128, DW_OP_minus] [$rbp+0]
	#DEBUG_VALUE: sortBlocklistByDimension:setColumnOffsets <- [DW_OP_constu 96, DW_OP_minus] [$rbp+0]
	#DEBUG_VALUE: sortBlocklistByDimension:setNumColumns <- [DW_OP_plus_uconst 16] [$rbp+0]
	.loc	2 151 1                 # /usr/include/c++/9/bits/stl_algo.h:151:1
	movl	(%r13), %eax
.Ltmp113:
	.loc	2 0 1 is_stmt 0         # /usr/include/c++/9/bits/stl_algo.h:0:1
	jmp	.LBB1_43
.Ltmp114:
	.p2align	4, 0x90
.LBB1_41:                               # %.noexc101
                                        #   in Loop: Header=BB1_35 Depth=1
	#DEBUG_VALUE: __mid <- $rax
	#DEBUG_VALUE: __move_median_to_first:__result <- $r13
	#DEBUG_VALUE: __move_median_to_first:__a <- $r14
	#DEBUG_VALUE: __move_median_to_first:__b <- $rax
	#DEBUG_VALUE: __move_median_to_first:__c <- [DW_OP_constu 8, DW_OP_minus, DW_OP_stack_value] $rsi
	#DEBUG_VALUE: __unguarded_partition_pivot:__last <- $rsi
	#DEBUG_VALUE: __unguarded_partition_pivot:__first <- $r13
	#DEBUG_VALUE: __sort:__first <- $r13
	#DEBUG_VALUE: nBlocks <- [DW_OP_constu 88, DW_OP_minus] [$rbp+0]
	#DEBUG_VALUE: sortBlocklistByDimension:dimension <- [DW_OP_constu 136, DW_OP_minus] [$rbp+0]
	#DEBUG_VALUE: sortBlocklistByDimension:blocks <- [DW_OP_constu 208, DW_OP_minus] [$rbp+0]
	#DEBUG_VALUE: sortBlocklistByDimension:columnBlockOffsets <- [DW_OP_constu 72, DW_OP_minus] [$rbp+0]
	#DEBUG_VALUE: sortBlocklistByDimension:columnNumBlocks <- [DW_OP_constu 128, DW_OP_minus] [$rbp+0]
	#DEBUG_VALUE: sortBlocklistByDimension:setColumnOffsets <- [DW_OP_constu 96, DW_OP_minus] [$rbp+0]
	#DEBUG_VALUE: sortBlocklistByDimension:setNumColumns <- [DW_OP_plus_uconst 16] [$rbp+0]
	.loc	2 151 1                 # /usr/include/c++/9/bits/stl_algo.h:151:1
	movl	(%r13), %eax
.Ltmp115:
	#DEBUG_VALUE: r <- [DW_OP_constu 8, DW_OP_minus, DW_OP_stack_value] $rsi
	#DEBUG_VALUE: paircomparator:r <- [DW_OP_constu 8, DW_OP_minus, DW_OP_stack_value] $rsi
	#DEBUG_VALUE: l <- $r14
	#DEBUG_VALUE: paircomparator:l <- $r14
	.loc	1 36 1 is_stmt 1        # vlasovsolver/cpu_acc_sort_blocks.cpp:36:1
	cmpl	%edx, %ecx
.Ltmp116:
	.loc	2 143 1                 # /usr/include/c++/9/bits/stl_algo.h:143:1
	jae	.LBB1_43
.Ltmp117:
# %bb.42:                               # %L.B3334.i
                                        #   in Loop: Header=BB1_35 Depth=1
	#DEBUG_VALUE: __move_median_to_first:__result <- $r13
	#DEBUG_VALUE: __move_median_to_first:__a <- $r14
	#DEBUG_VALUE: __move_median_to_first:__c <- [DW_OP_constu 8, DW_OP_minus, DW_OP_stack_value] $rsi
	#DEBUG_VALUE: __unguarded_partition_pivot:__last <- $rsi
	#DEBUG_VALUE: __unguarded_partition_pivot:__first <- $r13
	#DEBUG_VALUE: __sort:__first <- $r13
	#DEBUG_VALUE: nBlocks <- [DW_OP_constu 88, DW_OP_minus] [$rbp+0]
	#DEBUG_VALUE: sortBlocklistByDimension:dimension <- [DW_OP_constu 136, DW_OP_minus] [$rbp+0]
	#DEBUG_VALUE: sortBlocklistByDimension:blocks <- [DW_OP_constu 208, DW_OP_minus] [$rbp+0]
	#DEBUG_VALUE: sortBlocklistByDimension:columnBlockOffsets <- [DW_OP_constu 72, DW_OP_minus] [$rbp+0]
	#DEBUG_VALUE: sortBlocklistByDimension:columnNumBlocks <- [DW_OP_constu 128, DW_OP_minus] [$rbp+0]
	#DEBUG_VALUE: sortBlocklistByDimension:setColumnOffsets <- [DW_OP_constu 96, DW_OP_minus] [$rbp+0]
	#DEBUG_VALUE: sortBlocklistByDimension:setNumColumns <- [DW_OP_plus_uconst 16] [$rbp+0]
	.loc	2 151 1                 # /usr/include/c++/9/bits/stl_algo.h:151:1
	movl	%edx, (%r13)
	movl	%eax, -8(%rsi)
	jmp	.LBB1_46
.Ltmp118:
	.p2align	4, 0x90
.LBB1_43:                               # %L.B0205.i
                                        #   in Loop: Header=BB1_35 Depth=1
	#DEBUG_VALUE: __move_median_to_first:__result <- $r13
	#DEBUG_VALUE: __move_median_to_first:__a <- $r14
	#DEBUG_VALUE: __move_median_to_first:__c <- [DW_OP_constu 8, DW_OP_minus, DW_OP_stack_value] $rsi
	#DEBUG_VALUE: __unguarded_partition_pivot:__last <- $rsi
	#DEBUG_VALUE: __unguarded_partition_pivot:__first <- $r13
	#DEBUG_VALUE: __sort:__first <- $r13
	#DEBUG_VALUE: nBlocks <- [DW_OP_constu 88, DW_OP_minus] [$rbp+0]
	#DEBUG_VALUE: sortBlocklistByDimension:dimension <- [DW_OP_constu 136, DW_OP_minus] [$rbp+0]
	#DEBUG_VALUE: sortBlocklistByDimension:blocks <- [DW_OP_constu 208, DW_OP_minus] [$rbp+0]
	#DEBUG_VALUE: sortBlocklistByDimension:columnBlockOffsets <- [DW_OP_constu 72, DW_OP_minus] [$rbp+0]
	#DEBUG_VALUE: sortBlocklistByDimension:columnNumBlocks <- [DW_OP_constu 128, DW_OP_minus] [$rbp+0]
	#DEBUG_VALUE: sortBlocklistByDimension:setColumnOffsets <- [DW_OP_constu 96, DW_OP_minus] [$rbp+0]
	#DEBUG_VALUE: sortBlocklistByDimension:setNumColumns <- [DW_OP_plus_uconst 16] [$rbp+0]
	movl	%ecx, (%r13)
	movl	%eax, 8(%r13)
	movq	-112(%rbp), %rax        # 8-byte Reload
	jmp	.LBB1_48
.Ltmp119:
	.p2align	4, 0x90
.LBB1_44:                               # %.noexc103
                                        #   in Loop: Header=BB1_35 Depth=1
	#DEBUG_VALUE: __mid <- $rax
	#DEBUG_VALUE: __move_median_to_first:__result <- $r13
	#DEBUG_VALUE: __move_median_to_first:__a <- $r14
	#DEBUG_VALUE: __move_median_to_first:__b <- $rax
	#DEBUG_VALUE: __move_median_to_first:__c <- [DW_OP_constu 8, DW_OP_minus, DW_OP_stack_value] $rsi
	#DEBUG_VALUE: __unguarded_partition_pivot:__last <- $rsi
	#DEBUG_VALUE: __unguarded_partition_pivot:__first <- $r13
	#DEBUG_VALUE: __sort:__first <- $r13
	#DEBUG_VALUE: nBlocks <- [DW_OP_constu 88, DW_OP_minus] [$rbp+0]
	#DEBUG_VALUE: sortBlocklistByDimension:dimension <- [DW_OP_constu 136, DW_OP_minus] [$rbp+0]
	#DEBUG_VALUE: sortBlocklistByDimension:blocks <- [DW_OP_constu 208, DW_OP_minus] [$rbp+0]
	#DEBUG_VALUE: sortBlocklistByDimension:columnBlockOffsets <- [DW_OP_constu 72, DW_OP_minus] [$rbp+0]
	#DEBUG_VALUE: sortBlocklistByDimension:columnNumBlocks <- [DW_OP_constu 128, DW_OP_minus] [$rbp+0]
	#DEBUG_VALUE: sortBlocklistByDimension:setColumnOffsets <- [DW_OP_constu 96, DW_OP_minus] [$rbp+0]
	#DEBUG_VALUE: sortBlocklistByDimension:setNumColumns <- [DW_OP_plus_uconst 16] [$rbp+0]
	movl	(%r13), %ecx
.Ltmp120:
	#DEBUG_VALUE: r <- [DW_OP_constu 8, DW_OP_minus, DW_OP_stack_value] $rsi
	#DEBUG_VALUE: paircomparator:r <- [DW_OP_constu 8, DW_OP_minus, DW_OP_stack_value] $rsi
	#DEBUG_VALUE: l <- $rax
	#DEBUG_VALUE: paircomparator:l <- $rax
	.loc	1 36 1                  # vlasovsolver/cpu_acc_sort_blocks.cpp:36:1
	cmpl	%edx, %edi
.Ltmp121:
	.loc	2 143 1                 # /usr/include/c++/9/bits/stl_algo.h:143:1
	jae	.LBB1_47
.Ltmp122:
# %bb.45:                               # %L.B3336.i
                                        #   in Loop: Header=BB1_35 Depth=1
	#DEBUG_VALUE: __mid <- $rax
	#DEBUG_VALUE: __move_median_to_first:__result <- $r13
	#DEBUG_VALUE: __move_median_to_first:__a <- $r14
	#DEBUG_VALUE: __move_median_to_first:__b <- $rax
	#DEBUG_VALUE: __move_median_to_first:__c <- [DW_OP_constu 8, DW_OP_minus, DW_OP_stack_value] $rsi
	#DEBUG_VALUE: __unguarded_partition_pivot:__last <- $rsi
	#DEBUG_VALUE: __unguarded_partition_pivot:__first <- $r13
	#DEBUG_VALUE: __sort:__first <- $r13
	#DEBUG_VALUE: nBlocks <- [DW_OP_constu 88, DW_OP_minus] [$rbp+0]
	#DEBUG_VALUE: sortBlocklistByDimension:dimension <- [DW_OP_constu 136, DW_OP_minus] [$rbp+0]
	#DEBUG_VALUE: sortBlocklistByDimension:blocks <- [DW_OP_constu 208, DW_OP_minus] [$rbp+0]
	#DEBUG_VALUE: sortBlocklistByDimension:columnBlockOffsets <- [DW_OP_constu 72, DW_OP_minus] [$rbp+0]
	#DEBUG_VALUE: sortBlocklistByDimension:columnNumBlocks <- [DW_OP_constu 128, DW_OP_minus] [$rbp+0]
	#DEBUG_VALUE: sortBlocklistByDimension:setColumnOffsets <- [DW_OP_constu 96, DW_OP_minus] [$rbp+0]
	#DEBUG_VALUE: sortBlocklistByDimension:setNumColumns <- [DW_OP_plus_uconst 16] [$rbp+0]
	.loc	2 151 1                 # /usr/include/c++/9/bits/stl_algo.h:151:1
	movl	%edx, (%r13)
	movl	%ecx, -8(%rsi)
.Ltmp123:
.LBB1_46:                               # %.noexc
                                        #   in Loop: Header=BB1_35 Depth=1
	#DEBUG_VALUE: __move_median_to_first:__result <- $r13
	#DEBUG_VALUE: __move_median_to_first:__a <- $r14
	#DEBUG_VALUE: __move_median_to_first:__c <- [DW_OP_constu 8, DW_OP_minus, DW_OP_stack_value] $rsi
	#DEBUG_VALUE: __unguarded_partition_pivot:__last <- $rsi
	#DEBUG_VALUE: __unguarded_partition_pivot:__first <- $r13
	#DEBUG_VALUE: __sort:__first <- $r13
	#DEBUG_VALUE: nBlocks <- [DW_OP_constu 88, DW_OP_minus] [$rbp+0]
	#DEBUG_VALUE: sortBlocklistByDimension:dimension <- [DW_OP_constu 136, DW_OP_minus] [$rbp+0]
	#DEBUG_VALUE: sortBlocklistByDimension:blocks <- [DW_OP_constu 208, DW_OP_minus] [$rbp+0]
	#DEBUG_VALUE: sortBlocklistByDimension:columnBlockOffsets <- [DW_OP_constu 72, DW_OP_minus] [$rbp+0]
	#DEBUG_VALUE: sortBlocklistByDimension:columnNumBlocks <- [DW_OP_constu 128, DW_OP_minus] [$rbp+0]
	#DEBUG_VALUE: sortBlocklistByDimension:setColumnOffsets <- [DW_OP_constu 96, DW_OP_minus] [$rbp+0]
	#DEBUG_VALUE: sortBlocklistByDimension:setNumColumns <- [DW_OP_plus_uconst 16] [$rbp+0]
	leaq	-4(%rsi), %rax
	jmp	.LBB1_48
.Ltmp124:
	.p2align	4, 0x90
.LBB1_47:                               # %L.B0210.i
                                        #   in Loop: Header=BB1_35 Depth=1
	#DEBUG_VALUE: __mid <- $rax
	#DEBUG_VALUE: __move_median_to_first:__result <- $r13
	#DEBUG_VALUE: __move_median_to_first:__a <- $r14
	#DEBUG_VALUE: __move_median_to_first:__b <- $rax
	#DEBUG_VALUE: __move_median_to_first:__c <- [DW_OP_constu 8, DW_OP_minus, DW_OP_stack_value] $rsi
	#DEBUG_VALUE: __unguarded_partition_pivot:__last <- $rsi
	#DEBUG_VALUE: __unguarded_partition_pivot:__first <- $r13
	#DEBUG_VALUE: __sort:__first <- $r13
	#DEBUG_VALUE: nBlocks <- [DW_OP_constu 88, DW_OP_minus] [$rbp+0]
	#DEBUG_VALUE: sortBlocklistByDimension:dimension <- [DW_OP_constu 136, DW_OP_minus] [$rbp+0]
	#DEBUG_VALUE: sortBlocklistByDimension:blocks <- [DW_OP_constu 208, DW_OP_minus] [$rbp+0]
	#DEBUG_VALUE: sortBlocklistByDimension:columnBlockOffsets <- [DW_OP_constu 72, DW_OP_minus] [$rbp+0]
	#DEBUG_VALUE: sortBlocklistByDimension:columnNumBlocks <- [DW_OP_constu 128, DW_OP_minus] [$rbp+0]
	#DEBUG_VALUE: sortBlocklistByDimension:setColumnOffsets <- [DW_OP_constu 96, DW_OP_minus] [$rbp+0]
	#DEBUG_VALUE: sortBlocklistByDimension:setNumColumns <- [DW_OP_plus_uconst 16] [$rbp+0]
	movl	%edi, (%r13)
	movl	%ecx, (%rax)
	addq	$4, %rax
.Ltmp125:
.LBB1_48:                               # %.noexc
                                        #   in Loop: Header=BB1_35 Depth=1
	#DEBUG_VALUE: __move_median_to_first:__result <- $r13
	#DEBUG_VALUE: __move_median_to_first:__a <- $r14
	#DEBUG_VALUE: __move_median_to_first:__c <- [DW_OP_constu 8, DW_OP_minus, DW_OP_stack_value] $rsi
	#DEBUG_VALUE: __unguarded_partition_pivot:__last <- $rsi
	#DEBUG_VALUE: __unguarded_partition_pivot:__first <- $r13
	#DEBUG_VALUE: __sort:__first <- $r13
	#DEBUG_VALUE: nBlocks <- [DW_OP_constu 88, DW_OP_minus] [$rbp+0]
	#DEBUG_VALUE: sortBlocklistByDimension:dimension <- [DW_OP_constu 136, DW_OP_minus] [$rbp+0]
	#DEBUG_VALUE: sortBlocklistByDimension:blocks <- [DW_OP_constu 208, DW_OP_minus] [$rbp+0]
	#DEBUG_VALUE: sortBlocklistByDimension:columnBlockOffsets <- [DW_OP_constu 72, DW_OP_minus] [$rbp+0]
	#DEBUG_VALUE: sortBlocklistByDimension:columnNumBlocks <- [DW_OP_constu 128, DW_OP_minus] [$rbp+0]
	#DEBUG_VALUE: sortBlocklistByDimension:setColumnOffsets <- [DW_OP_constu 96, DW_OP_minus] [$rbp+0]
	#DEBUG_VALUE: sortBlocklistByDimension:setNumColumns <- [DW_OP_plus_uconst 16] [$rbp+0]
	.loc	2 0 1 is_stmt 0         # /usr/include/c++/9/bits/stl_algo.h:0:1
	movq	-144(%rbp), %rdi        # 8-byte Reload
	.loc	2 151 1                 # /usr/include/c++/9/bits/stl_algo.h:151:1
	movl	(%rdi), %ecx
	movl	(%rax), %edx
	movl	%edx, (%rdi)
	movl	%ecx, (%rax)
.Ltmp126:
	#DEBUG_VALUE: ....inline._M_comp <- undef
	#DEBUG_VALUE: ....inline._M_current <- $rsi
	.loc	2 0 0                   # /usr/include/c++/9/bits/stl_algo.h:0:0
	movq	%rsi, %rax
	movq	%r14, %r15
.Ltmp127:
	.p2align	4, 0x90
.LBB1_49:                               # %L..inline.62225.i.i
                                        #   Parent Loop BB1_35 Depth=1
                                        # =>  This Loop Header: Depth=2
                                        #       Child Loop BB1_50 Depth 3
                                        #       Child Loop BB1_52 Depth 3
	#DEBUG_VALUE: __unguarded_partition_pivot:__last <- $rsi
	#DEBUG_VALUE: __unguarded_partition_pivot:__first <- $r13
	#DEBUG_VALUE: __sort:__first <- $r13
	#DEBUG_VALUE: nBlocks <- [DW_OP_constu 88, DW_OP_minus] [$rbp+0]
	#DEBUG_VALUE: sortBlocklistByDimension:dimension <- [DW_OP_constu 136, DW_OP_minus] [$rbp+0]
	#DEBUG_VALUE: sortBlocklistByDimension:blocks <- [DW_OP_constu 208, DW_OP_minus] [$rbp+0]
	#DEBUG_VALUE: sortBlocklistByDimension:columnBlockOffsets <- [DW_OP_constu 72, DW_OP_minus] [$rbp+0]
	#DEBUG_VALUE: sortBlocklistByDimension:columnNumBlocks <- [DW_OP_constu 128, DW_OP_minus] [$rbp+0]
	#DEBUG_VALUE: sortBlocklistByDimension:setColumnOffsets <- [DW_OP_constu 96, DW_OP_minus] [$rbp+0]
	#DEBUG_VALUE: sortBlocklistByDimension:setNumColumns <- [DW_OP_plus_uconst 16] [$rbp+0]
	#DEBUG_VALUE: ....inline._M_current <- $rax
	movl	(%r13), %edx
.Ltmp128:
	.p2align	4, 0x90
.LBB1_50:                               # %.noexc91
                                        #   Parent Loop BB1_35 Depth=1
                                        #     Parent Loop BB1_49 Depth=2
                                        # =>    This Inner Loop Header: Depth=3
	#DEBUG_VALUE: __unguarded_partition_pivot:__last <- $rsi
	#DEBUG_VALUE: __unguarded_partition_pivot:__first <- $r13
	#DEBUG_VALUE: __sort:__first <- $r13
	#DEBUG_VALUE: nBlocks <- [DW_OP_constu 88, DW_OP_minus] [$rbp+0]
	#DEBUG_VALUE: sortBlocklistByDimension:dimension <- [DW_OP_constu 136, DW_OP_minus] [$rbp+0]
	#DEBUG_VALUE: sortBlocklistByDimension:blocks <- [DW_OP_constu 208, DW_OP_minus] [$rbp+0]
	#DEBUG_VALUE: sortBlocklistByDimension:columnBlockOffsets <- [DW_OP_constu 72, DW_OP_minus] [$rbp+0]
	#DEBUG_VALUE: sortBlocklistByDimension:columnNumBlocks <- [DW_OP_constu 128, DW_OP_minus] [$rbp+0]
	#DEBUG_VALUE: sortBlocklistByDimension:setColumnOffsets <- [DW_OP_constu 96, DW_OP_minus] [$rbp+0]
	#DEBUG_VALUE: sortBlocklistByDimension:setNumColumns <- [DW_OP_plus_uconst 16] [$rbp+0]
	#DEBUG_VALUE: ....inline._M_current <- $r15
	#DEBUG_VALUE: paircomparator:l <- $r15
	#DEBUG_VALUE: l <- $r15
	#DEBUG_VALUE: paircomparator:r <- $r13
	#DEBUG_VALUE: r <- $r13
	.loc	1 36 1 is_stmt 1        # vlasovsolver/cpu_acc_sort_blocks.cpp:36:1
	movl	(%r15), %ecx
.Ltmp129:
	.loc	2 1902 1                # /usr/include/c++/9/bits/stl_algo.h:1902:1
	addq	$8, %r15
.Ltmp130:
	#DEBUG_VALUE: ....inline._M_current <- $r15
	.loc	1 36 1                  # vlasovsolver/cpu_acc_sort_blocks.cpp:36:1
	cmpl	%edx, %ecx
.Ltmp131:
	#DEBUG_VALUE: r <- $r13
	#DEBUG_VALUE: paircomparator:r <- $r13
	.loc	2 1901 1                # /usr/include/c++/9/bits/stl_algo.h:1901:1
	jb	.LBB1_50
.Ltmp132:
# %bb.51:                               # %.noexc92.preheader
                                        #   in Loop: Header=BB1_49 Depth=2
	#DEBUG_VALUE: ....inline._M_current <- $r15
	#DEBUG_VALUE: __unguarded_partition_pivot:__last <- $rsi
	#DEBUG_VALUE: __unguarded_partition_pivot:__first <- $r13
	#DEBUG_VALUE: __sort:__first <- $r13
	#DEBUG_VALUE: nBlocks <- [DW_OP_constu 88, DW_OP_minus] [$rbp+0]
	#DEBUG_VALUE: sortBlocklistByDimension:dimension <- [DW_OP_constu 136, DW_OP_minus] [$rbp+0]
	#DEBUG_VALUE: sortBlocklistByDimension:blocks <- [DW_OP_constu 208, DW_OP_minus] [$rbp+0]
	#DEBUG_VALUE: sortBlocklistByDimension:columnBlockOffsets <- [DW_OP_constu 72, DW_OP_minus] [$rbp+0]
	#DEBUG_VALUE: sortBlocklistByDimension:columnNumBlocks <- [DW_OP_constu 128, DW_OP_minus] [$rbp+0]
	#DEBUG_VALUE: sortBlocklistByDimension:setColumnOffsets <- [DW_OP_constu 96, DW_OP_minus] [$rbp+0]
	#DEBUG_VALUE: sortBlocklistByDimension:setNumColumns <- [DW_OP_plus_uconst 16] [$rbp+0]
	#DEBUG_VALUE: ....inline._M_current <- undef
	.loc	2 1904 1                # /usr/include/c++/9/bits/stl_algo.h:1904:1
	leaq	-8(%r15), %rbx
.Ltmp133:
	.p2align	4, 0x90
.LBB1_52:                               # %.noexc92
                                        #   Parent Loop BB1_35 Depth=1
                                        #     Parent Loop BB1_49 Depth=2
                                        # =>    This Inner Loop Header: Depth=3
	#DEBUG_VALUE: __unguarded_partition_pivot:__last <- $rsi
	#DEBUG_VALUE: __unguarded_partition_pivot:__first <- $r13
	#DEBUG_VALUE: __sort:__first <- $r13
	#DEBUG_VALUE: nBlocks <- [DW_OP_constu 88, DW_OP_minus] [$rbp+0]
	#DEBUG_VALUE: sortBlocklistByDimension:dimension <- [DW_OP_constu 136, DW_OP_minus] [$rbp+0]
	#DEBUG_VALUE: sortBlocklistByDimension:blocks <- [DW_OP_constu 208, DW_OP_minus] [$rbp+0]
	#DEBUG_VALUE: sortBlocklistByDimension:columnBlockOffsets <- [DW_OP_constu 72, DW_OP_minus] [$rbp+0]
	#DEBUG_VALUE: sortBlocklistByDimension:columnNumBlocks <- [DW_OP_constu 128, DW_OP_minus] [$rbp+0]
	#DEBUG_VALUE: sortBlocklistByDimension:setColumnOffsets <- [DW_OP_constu 96, DW_OP_minus] [$rbp+0]
	#DEBUG_VALUE: sortBlocklistByDimension:setNumColumns <- [DW_OP_plus_uconst 16] [$rbp+0]
	.loc	1 36 1                  # vlasovsolver/cpu_acc_sort_blocks.cpp:36:1
	movl	-8(%rax), %edi
.Ltmp134:
	.loc	2 0 0 is_stmt 0         # /usr/include/c++/9/bits/stl_algo.h:0:0
	addq	$-8, %rax
.Ltmp135:
	#DEBUG_VALUE: l <- $r13
	#DEBUG_VALUE: paircomparator:l <- $r13
	#DEBUG_VALUE: r <- $rax
	#DEBUG_VALUE: paircomparator:r <- $rax
	#DEBUG_VALUE: ....inline._M_current <- $rax
	.loc	1 36 1                  # vlasovsolver/cpu_acc_sort_blocks.cpp:36:1
	cmpl	%edi, %edx
.Ltmp136:
	.loc	2 1904 1 is_stmt 1      # /usr/include/c++/9/bits/stl_algo.h:1904:1
	jb	.LBB1_52
.Ltmp137:
# %bb.53:                               # %L.N0028.i.i
                                        #   in Loop: Header=BB1_49 Depth=2
	#DEBUG_VALUE: ....inline._M_current <- $rax
	#DEBUG_VALUE: __unguarded_partition_pivot:__last <- $rsi
	#DEBUG_VALUE: __unguarded_partition_pivot:__first <- $r13
	#DEBUG_VALUE: __sort:__first <- $r13
	#DEBUG_VALUE: nBlocks <- [DW_OP_constu 88, DW_OP_minus] [$rbp+0]
	#DEBUG_VALUE: sortBlocklistByDimension:dimension <- [DW_OP_constu 136, DW_OP_minus] [$rbp+0]
	#DEBUG_VALUE: sortBlocklistByDimension:blocks <- [DW_OP_constu 208, DW_OP_minus] [$rbp+0]
	#DEBUG_VALUE: sortBlocklistByDimension:columnBlockOffsets <- [DW_OP_constu 72, DW_OP_minus] [$rbp+0]
	#DEBUG_VALUE: sortBlocklistByDimension:columnNumBlocks <- [DW_OP_constu 128, DW_OP_minus] [$rbp+0]
	#DEBUG_VALUE: sortBlocklistByDimension:setColumnOffsets <- [DW_OP_constu 96, DW_OP_minus] [$rbp+0]
	#DEBUG_VALUE: sortBlocklistByDimension:setNumColumns <- [DW_OP_plus_uconst 16] [$rbp+0]
	.loc	2 1906 1                # /usr/include/c++/9/bits/stl_algo.h:1906:1
	cmpq	%rax, %rbx
	jae	.LBB1_55
.Ltmp138:
# %bb.54:                               # %L..inline.62317.i.i
                                        #   in Loop: Header=BB1_49 Depth=2
	#DEBUG_VALUE: ....inline._M_current <- $rax
	#DEBUG_VALUE: __unguarded_partition_pivot:__last <- $rsi
	#DEBUG_VALUE: __unguarded_partition_pivot:__first <- $r13
	#DEBUG_VALUE: __sort:__first <- $r13
	#DEBUG_VALUE: nBlocks <- [DW_OP_constu 88, DW_OP_minus] [$rbp+0]
	#DEBUG_VALUE: sortBlocklistByDimension:dimension <- [DW_OP_constu 136, DW_OP_minus] [$rbp+0]
	#DEBUG_VALUE: sortBlocklistByDimension:blocks <- [DW_OP_constu 208, DW_OP_minus] [$rbp+0]
	#DEBUG_VALUE: sortBlocklistByDimension:columnBlockOffsets <- [DW_OP_constu 72, DW_OP_minus] [$rbp+0]
	#DEBUG_VALUE: sortBlocklistByDimension:columnNumBlocks <- [DW_OP_constu 128, DW_OP_minus] [$rbp+0]
	#DEBUG_VALUE: sortBlocklistByDimension:setColumnOffsets <- [DW_OP_constu 96, DW_OP_minus] [$rbp+0]
	#DEBUG_VALUE: sortBlocklistByDimension:setNumColumns <- [DW_OP_plus_uconst 16] [$rbp+0]
	.loc	2 1908 1                # /usr/include/c++/9/bits/stl_algo.h:1908:1
	movl	%edi, -8(%r15)
	movl	%ecx, (%rax)
	movl	-4(%r15), %ecx
	movl	4(%rax), %edx
	movl	%edx, -4(%r15)
	movl	%ecx, 4(%rax)
.Ltmp139:
	#DEBUG_VALUE: ....inline._M_current <- $r15
	.loc	2 0 1 is_stmt 0         # /usr/include/c++/9/bits/stl_algo.h:0:1
	jmp	.LBB1_49
.Ltmp140:
	.p2align	4, 0x90
.LBB1_55:                               # %_ZSt27__unguarded_partition_pivotIN9__gnu_cxx17__normal_iteratorIPSt4pairIjjESt6vectorIS3_SaIS3_EEEENS0_5__ops15_Iter_comp_iterIPFbRKS3_SC_EEEET_SG_SG_T0_.exit.i
                                        #   in Loop: Header=BB1_35 Depth=1
	#DEBUG_VALUE: ....inline._M_current <- $rax
	#DEBUG_VALUE: __unguarded_partition_pivot:__last <- $rsi
	#DEBUG_VALUE: __unguarded_partition_pivot:__first <- $r13
	#DEBUG_VALUE: __sort:__first <- $r13
	#DEBUG_VALUE: nBlocks <- [DW_OP_constu 88, DW_OP_minus] [$rbp+0]
	#DEBUG_VALUE: sortBlocklistByDimension:dimension <- [DW_OP_constu 136, DW_OP_minus] [$rbp+0]
	#DEBUG_VALUE: sortBlocklistByDimension:blocks <- [DW_OP_constu 208, DW_OP_minus] [$rbp+0]
	#DEBUG_VALUE: sortBlocklistByDimension:columnBlockOffsets <- [DW_OP_constu 72, DW_OP_minus] [$rbp+0]
	#DEBUG_VALUE: sortBlocklistByDimension:columnNumBlocks <- [DW_OP_constu 128, DW_OP_minus] [$rbp+0]
	#DEBUG_VALUE: sortBlocklistByDimension:setColumnOffsets <- [DW_OP_constu 96, DW_OP_minus] [$rbp+0]
	#DEBUG_VALUE: sortBlocklistByDimension:setNumColumns <- [DW_OP_plus_uconst 16] [$rbp+0]
	#DEBUG_VALUE: ....inline._M_current <- undef
	.loc	2 1950 1 is_stmt 1      # /usr/include/c++/9/bits/stl_algo.h:1950:1
	decq	%r12
.Ltmp4:
	.loc	2 1953 1                # /usr/include/c++/9/bits/stl_algo.h:1953:1
	movl	$_Z14paircomparatorRKSt4pairIjjES2_, %ecx
	movq	%rbx, %rdi
	movq	%r12, %rdx
	callq	_ZSt16__introsort_loopIN9__gnu_cxx17__normal_iteratorIPSt4pairIjjESt6vectorIS3_SaIS3_EEEElNS0_5__ops15_Iter_comp_iterIPFbRKS3_SC_EEEEvT_SG_T0_T1_
.Ltmp141:
.Ltmp5:
# %bb.56:                               # %.noexc93
                                        #   in Loop: Header=BB1_35 Depth=1
	#DEBUG_VALUE: __sort:__first <- $r13
	#DEBUG_VALUE: nBlocks <- [DW_OP_constu 88, DW_OP_minus] [$rbp+0]
	#DEBUG_VALUE: sortBlocklistByDimension:dimension <- [DW_OP_constu 136, DW_OP_minus] [$rbp+0]
	#DEBUG_VALUE: sortBlocklistByDimension:blocks <- [DW_OP_constu 208, DW_OP_minus] [$rbp+0]
	#DEBUG_VALUE: sortBlocklistByDimension:columnBlockOffsets <- [DW_OP_constu 72, DW_OP_minus] [$rbp+0]
	#DEBUG_VALUE: sortBlocklistByDimension:columnNumBlocks <- [DW_OP_constu 128, DW_OP_minus] [$rbp+0]
	#DEBUG_VALUE: sortBlocklistByDimension:setColumnOffsets <- [DW_OP_constu 96, DW_OP_minus] [$rbp+0]
	#DEBUG_VALUE: sortBlocklistByDimension:setNumColumns <- [DW_OP_plus_uconst 16] [$rbp+0]
	.loc	2 1954 1                # /usr/include/c++/9/bits/stl_algo.h:1954:1
	addq	-64(%rbp), %r15         # 8-byte Folded Reload
.Ltmp142:
	.loc	2 0 0 is_stmt 0         # /usr/include/c++/9/bits/stl_algo.h:0:0
	movq	%rbx, %rsi
.Ltmp143:
	.loc	2 1954 1                # /usr/include/c++/9/bits/stl_algo.h:1954:1
	cmpq	$135, %r15
	jg	.LBB1_35
	jmp	.LBB1_73
.Ltmp144:
.LBB1_57:                               # %L.B3161.i
	#DEBUG_VALUE: __sort:__first <- $r13
	#DEBUG_VALUE: nBlocks <- [DW_OP_constu 88, DW_OP_minus] [$rbp+0]
	#DEBUG_VALUE: sortBlocklistByDimension:dimension <- [DW_OP_constu 136, DW_OP_minus] [$rbp+0]
	#DEBUG_VALUE: sortBlocklistByDimension:blocks <- [DW_OP_constu 208, DW_OP_minus] [$rbp+0]
	#DEBUG_VALUE: sortBlocklistByDimension:columnBlockOffsets <- [DW_OP_constu 72, DW_OP_minus] [$rbp+0]
	#DEBUG_VALUE: sortBlocklistByDimension:columnNumBlocks <- [DW_OP_constu 128, DW_OP_minus] [$rbp+0]
	#DEBUG_VALUE: sortBlocklistByDimension:setColumnOffsets <- [DW_OP_constu 96, DW_OP_minus] [$rbp+0]
	#DEBUG_VALUE: sortBlocklistByDimension:setNumColumns <- [DW_OP_plus_uconst 16] [$rbp+0]
	#DEBUG_VALUE: ....inline._M_current <- $rsi
	#DEBUG_VALUE: __partial_sort:__first <- $r13
	#DEBUG_VALUE: __partial_sort:__middle <- $rsi
	#DEBUG_VALUE: __partial_sort:__last <- $rsi
	.loc	2 0 1                   # /usr/include/c++/9/bits/stl_algo.h:0:1
	movq	-104(%rbp), %rax        # 8-byte Reload
.Ltmp145:
	.loc	2 1671 1 is_stmt 1      # /usr/include/c++/9/bits/stl_algo.h:1671:1
	leaq	(%rsi,%rax), %rcx
	movq	%rcx, %rax
	movq	%rcx, -64(%rbp)         # 8-byte Spill
	cmpq	$16, %rcx
.Ltmp146:
	#DEBUG_VALUE: __partial_sort:__comp <- undef
	jl	.LBB1_72
.Ltmp147:
# %bb.58:                               # %L..inline.60049.i
	#DEBUG_VALUE: __partial_sort:__last <- $rsi
	#DEBUG_VALUE: __partial_sort:__middle <- $rsi
	#DEBUG_VALUE: __partial_sort:__first <- $r13
	#DEBUG_VALUE: ....inline._M_current <- $rsi
	#DEBUG_VALUE: __sort:__first <- $r13
	#DEBUG_VALUE: nBlocks <- [DW_OP_constu 88, DW_OP_minus] [$rbp+0]
	#DEBUG_VALUE: sortBlocklistByDimension:dimension <- [DW_OP_constu 136, DW_OP_minus] [$rbp+0]
	#DEBUG_VALUE: sortBlocklistByDimension:blocks <- [DW_OP_constu 208, DW_OP_minus] [$rbp+0]
	#DEBUG_VALUE: sortBlocklistByDimension:columnBlockOffsets <- [DW_OP_constu 72, DW_OP_minus] [$rbp+0]
	#DEBUG_VALUE: sortBlocklistByDimension:columnNumBlocks <- [DW_OP_constu 128, DW_OP_minus] [$rbp+0]
	#DEBUG_VALUE: sortBlocklistByDimension:setColumnOffsets <- [DW_OP_constu 96, DW_OP_minus] [$rbp+0]
	#DEBUG_VALUE: sortBlocklistByDimension:setNumColumns <- [DW_OP_plus_uconst 16] [$rbp+0]
	.loc	2 0 1 is_stmt 0         # /usr/include/c++/9/bits/stl_algo.h:0:1
	movq	-64(%rbp), %rax         # 8-byte Reload
	.loc	2 1671 1                # /usr/include/c++/9/bits/stl_algo.h:1671:1
	sarq	$3, %rax
	leaq	-2(%rax), %rcx
	shrq	$63, %rcx
	leaq	(%rcx,%rax), %r9
	addq	$-2, %r9
	movq	%r9, %r10
	sarq	%r10
.Ltmp148:
	.file	3 "/usr/include/c++/9/bits/stl_heap.h"
	.loc	3 0 0                   # /usr/include/c++/9/bits/stl_heap.h:0:0
	leaq	-1(%rax), %rcx
	shrq	$63, %rcx
	leaq	(%rcx,%rax), %r12
	decq	%r12
	sarq	%r12
	orq	$1, %r9
.Ltmp149:
	.loc	2 1671 1                # /usr/include/c++/9/bits/stl_algo.h:1671:1
	movq	%r10, %rcx
	jmp	.LBB1_61
.Ltmp150:
	.p2align	4, 0x90
.LBB1_59:                               #   in Loop: Header=BB1_61 Depth=1
	#DEBUG_VALUE: ....inline._M_current <- $r13
	#DEBUG_VALUE: __adjust_heap:__value <- [DW_OP_LLVM_fragment 32 32] $r11d
	#DEBUG_VALUE: __adjust_heap:__first <- $r13
	#DEBUG_VALUE: __adjust_heap:__value <- [DW_OP_LLVM_fragment 0 32] $r15d
	#DEBUG_VALUE: __topIndex <- $rcx
	#DEBUG_VALUE: __partial_sort:__last <- $rsi
	#DEBUG_VALUE: __partial_sort:__middle <- $rsi
	#DEBUG_VALUE: __partial_sort:__first <- $r13
	#DEBUG_VALUE: ....inline._M_current <- $rsi
	#DEBUG_VALUE: __sort:__first <- $r13
	#DEBUG_VALUE: nBlocks <- [DW_OP_constu 88, DW_OP_minus] [$rbp+0]
	#DEBUG_VALUE: sortBlocklistByDimension:dimension <- [DW_OP_constu 136, DW_OP_minus] [$rbp+0]
	#DEBUG_VALUE: sortBlocklistByDimension:blocks <- [DW_OP_constu 208, DW_OP_minus] [$rbp+0]
	#DEBUG_VALUE: sortBlocklistByDimension:columnBlockOffsets <- [DW_OP_constu 72, DW_OP_minus] [$rbp+0]
	#DEBUG_VALUE: sortBlocklistByDimension:columnNumBlocks <- [DW_OP_constu 128, DW_OP_minus] [$rbp+0]
	#DEBUG_VALUE: sortBlocklistByDimension:setColumnOffsets <- [DW_OP_constu 96, DW_OP_minus] [$rbp+0]
	#DEBUG_VALUE: sortBlocklistByDimension:setNumColumns <- [DW_OP_plus_uconst 16] [$rbp+0]
	.loc	3 0 0                   # /usr/include/c++/9/bits/stl_heap.h:0:0
	movq	%rdx, %rbx
.Ltmp151:
	#DEBUG_VALUE: __holeIndex <- $rbx
.LBB1_60:                               # %.noexc107
                                        #   in Loop: Header=BB1_61 Depth=1
	#DEBUG_VALUE: ....inline._M_current <- $r13
	#DEBUG_VALUE: __adjust_heap:__value <- [DW_OP_LLVM_fragment 32 32] $r11d
	#DEBUG_VALUE: __adjust_heap:__first <- $r13
	#DEBUG_VALUE: __adjust_heap:__value <- [DW_OP_LLVM_fragment 0 32] $r15d
	#DEBUG_VALUE: __topIndex <- $rcx
	#DEBUG_VALUE: __partial_sort:__last <- $rsi
	#DEBUG_VALUE: __partial_sort:__middle <- $rsi
	#DEBUG_VALUE: __partial_sort:__first <- $r13
	#DEBUG_VALUE: ....inline._M_current <- $rsi
	#DEBUG_VALUE: __sort:__first <- $r13
	#DEBUG_VALUE: nBlocks <- [DW_OP_constu 88, DW_OP_minus] [$rbp+0]
	#DEBUG_VALUE: sortBlocklistByDimension:dimension <- [DW_OP_constu 136, DW_OP_minus] [$rbp+0]
	#DEBUG_VALUE: sortBlocklistByDimension:blocks <- [DW_OP_constu 208, DW_OP_minus] [$rbp+0]
	#DEBUG_VALUE: sortBlocklistByDimension:columnBlockOffsets <- [DW_OP_constu 72, DW_OP_minus] [$rbp+0]
	#DEBUG_VALUE: sortBlocklistByDimension:columnNumBlocks <- [DW_OP_constu 128, DW_OP_minus] [$rbp+0]
	#DEBUG_VALUE: sortBlocklistByDimension:setColumnOffsets <- [DW_OP_constu 96, DW_OP_minus] [$rbp+0]
	#DEBUG_VALUE: sortBlocklistByDimension:setNumColumns <- [DW_OP_plus_uconst 16] [$rbp+0]
	.loc	3 139 1 is_stmt 1       # /usr/include/c++/9/bits/stl_heap.h:139:1
	movl	%r15d, (%r13,%rbx,8)
	movl	%r11d, 4(%r13,%rbx,8)
.Ltmp152:
	.loc	2 1671 1                # /usr/include/c++/9/bits/stl_algo.h:1671:1
	subq	$1, %rcx
.Ltmp153:
	jb	.LBB1_72
.Ltmp154:
.LBB1_61:                               # %L..inline.60073.i
                                        # =>This Loop Header: Depth=1
                                        #     Child Loop BB1_63 Depth 2
                                        #     Child Loop BB1_69 Depth 2
	#DEBUG_VALUE: __partial_sort:__last <- $rsi
	#DEBUG_VALUE: __partial_sort:__middle <- $rsi
	#DEBUG_VALUE: __partial_sort:__first <- $r13
	#DEBUG_VALUE: ....inline._M_current <- $rsi
	#DEBUG_VALUE: __sort:__first <- $r13
	#DEBUG_VALUE: nBlocks <- [DW_OP_constu 88, DW_OP_minus] [$rbp+0]
	#DEBUG_VALUE: sortBlocklistByDimension:dimension <- [DW_OP_constu 136, DW_OP_minus] [$rbp+0]
	#DEBUG_VALUE: sortBlocklistByDimension:blocks <- [DW_OP_constu 208, DW_OP_minus] [$rbp+0]
	#DEBUG_VALUE: sortBlocklistByDimension:columnBlockOffsets <- [DW_OP_constu 72, DW_OP_minus] [$rbp+0]
	#DEBUG_VALUE: sortBlocklistByDimension:columnNumBlocks <- [DW_OP_constu 128, DW_OP_minus] [$rbp+0]
	#DEBUG_VALUE: sortBlocklistByDimension:setColumnOffsets <- [DW_OP_constu 96, DW_OP_minus] [$rbp+0]
	#DEBUG_VALUE: sortBlocklistByDimension:setNumColumns <- [DW_OP_plus_uconst 16] [$rbp+0]
	movl	(%r13,%rcx,8), %r15d
	movl	4(%r13,%rcx,8), %r11d
.Ltmp155:
	#DEBUG_VALUE: __secondChild <- $rcx
	#DEBUG_VALUE: __topIndex <- $rcx
	#DEBUG_VALUE: __adjust_heap:__value <- [DW_OP_LLVM_fragment 0 32] $r15d
	#DEBUG_VALUE: __len <- undef
	#DEBUG_VALUE: __adjust_heap:__len <- undef
	#DEBUG_VALUE: __holeIndex <- $rcx
	#DEBUG_VALUE: __adjust_heap:__holeIndex <- $rcx
	#DEBUG_VALUE: __adjust_heap:__first <- $r13
	#DEBUG_VALUE: __adjust_heap:__value <- [DW_OP_LLVM_fragment 32 32] $r11d
	.loc	3 0 0 is_stmt 0         # /usr/include/c++/9/bits/stl_heap.h:0:0
	movq	%rcx, %rdx
	.loc	3 219 1 is_stmt 1       # /usr/include/c++/9/bits/stl_heap.h:219:1
	cmpq	%rcx, %r12
.Ltmp156:
	#DEBUG_VALUE: __adjust_heap:__comp <- undef
	jle	.LBB1_64
.Ltmp157:
# %bb.62:                               # %.noexc160.preheader
                                        #   in Loop: Header=BB1_61 Depth=1
	#DEBUG_VALUE: __adjust_heap:__value <- [DW_OP_LLVM_fragment 32 32] $r11d
	#DEBUG_VALUE: __adjust_heap:__first <- $r13
	#DEBUG_VALUE: __adjust_heap:__holeIndex <- $rcx
	#DEBUG_VALUE: __holeIndex <- $rcx
	#DEBUG_VALUE: __adjust_heap:__value <- [DW_OP_LLVM_fragment 0 32] $r15d
	#DEBUG_VALUE: __topIndex <- $rcx
	#DEBUG_VALUE: __secondChild <- $rcx
	#DEBUG_VALUE: __partial_sort:__last <- $rsi
	#DEBUG_VALUE: __partial_sort:__middle <- $rsi
	#DEBUG_VALUE: __partial_sort:__first <- $r13
	#DEBUG_VALUE: ....inline._M_current <- $rsi
	#DEBUG_VALUE: __sort:__first <- $r13
	#DEBUG_VALUE: nBlocks <- [DW_OP_constu 88, DW_OP_minus] [$rbp+0]
	#DEBUG_VALUE: sortBlocklistByDimension:dimension <- [DW_OP_constu 136, DW_OP_minus] [$rbp+0]
	#DEBUG_VALUE: sortBlocklistByDimension:blocks <- [DW_OP_constu 208, DW_OP_minus] [$rbp+0]
	#DEBUG_VALUE: sortBlocklistByDimension:columnBlockOffsets <- [DW_OP_constu 72, DW_OP_minus] [$rbp+0]
	#DEBUG_VALUE: sortBlocklistByDimension:columnNumBlocks <- [DW_OP_constu 128, DW_OP_minus] [$rbp+0]
	#DEBUG_VALUE: sortBlocklistByDimension:setColumnOffsets <- [DW_OP_constu 96, DW_OP_minus] [$rbp+0]
	#DEBUG_VALUE: sortBlocklistByDimension:setNumColumns <- [DW_OP_plus_uconst 16] [$rbp+0]
	.loc	3 0 0 is_stmt 0         # /usr/include/c++/9/bits/stl_heap.h:0:0
	movq	%rcx, %rbx
.Ltmp158:
	.p2align	4, 0x90
.LBB1_63:                               # %.noexc160
                                        #   Parent Loop BB1_61 Depth=1
                                        # =>  This Inner Loop Header: Depth=2
	#DEBUG_VALUE: __adjust_heap:__value <- [DW_OP_LLVM_fragment 32 32] $r11d
	#DEBUG_VALUE: __adjust_heap:__first <- $r13
	#DEBUG_VALUE: __adjust_heap:__value <- [DW_OP_LLVM_fragment 0 32] $r15d
	#DEBUG_VALUE: __topIndex <- $rcx
	#DEBUG_VALUE: __partial_sort:__last <- $rsi
	#DEBUG_VALUE: __partial_sort:__middle <- $rsi
	#DEBUG_VALUE: __partial_sort:__first <- $r13
	#DEBUG_VALUE: ....inline._M_current <- $rsi
	#DEBUG_VALUE: __sort:__first <- $r13
	#DEBUG_VALUE: nBlocks <- [DW_OP_constu 88, DW_OP_minus] [$rbp+0]
	#DEBUG_VALUE: sortBlocklistByDimension:dimension <- [DW_OP_constu 136, DW_OP_minus] [$rbp+0]
	#DEBUG_VALUE: sortBlocklistByDimension:blocks <- [DW_OP_constu 208, DW_OP_minus] [$rbp+0]
	#DEBUG_VALUE: sortBlocklistByDimension:columnBlockOffsets <- [DW_OP_constu 72, DW_OP_minus] [$rbp+0]
	#DEBUG_VALUE: sortBlocklistByDimension:columnNumBlocks <- [DW_OP_constu 128, DW_OP_minus] [$rbp+0]
	#DEBUG_VALUE: sortBlocklistByDimension:setColumnOffsets <- [DW_OP_constu 96, DW_OP_minus] [$rbp+0]
	#DEBUG_VALUE: sortBlocklistByDimension:setNumColumns <- [DW_OP_plus_uconst 16] [$rbp+0]
	#DEBUG_VALUE: __adjust_heap:__holeIndex <- $rbx
	#DEBUG_VALUE: __holeIndex <- $rbx
	#DEBUG_VALUE: __secondChild <- $rbx
	.loc	3 221 1 is_stmt 1       # /usr/include/c++/9/bits/stl_heap.h:221:1
	leaq	(%rbx,%rbx), %rax
	leaq	(%rbx,%rbx), %rdi
	addq	$2, %rdi
.Ltmp159:
	#DEBUG_VALUE: ....inline._M_current <- undef
	#DEBUG_VALUE: __secondChild <- $rdi
	.loc	3 222 1                 # /usr/include/c++/9/bits/stl_heap.h:222:1
	leaq	(%rbx,%rbx), %rdx
	incq	%rdx
.Ltmp160:
	#DEBUG_VALUE: r <- undef
	#DEBUG_VALUE: paircomparator:r <- undef
	#DEBUG_VALUE: l <- undef
	#DEBUG_VALUE: paircomparator:l <- undef
	.loc	1 36 1                  # vlasovsolver/cpu_acc_sort_blocks.cpp:36:1
	movl	16(%r13,%rax,8), %r8d
	cmpl	8(%r13,%rax,8), %r8d
.Ltmp161:
	.loc	3 143 1                 # /usr/include/c++/9/bits/stl_heap.h:143:1
	cmovaeq	%rdi, %rdx
.Ltmp162:
	#DEBUG_VALUE: .._T17716296_20518._M_current <- undef
	#DEBUG_VALUE: __secondChild <- $rdx
	.loc	3 396 1                 # /usr/include/c++/9/bits/stl_heap.h:396:1
	movl	(%r13,%rdx,8), %eax
	movl	%eax, (%r13,%rbx,8)
	.loc	3 397 1                 # /usr/include/c++/9/bits/stl_heap.h:397:1
	movl	4(%r13,%rdx,8), %eax
	movl	%eax, 4(%r13,%rbx,8)
.Ltmp163:
	#DEBUG_VALUE: __holeIndex <- $rdx
	#DEBUG_VALUE: __adjust_heap:__holeIndex <- $rdx
	.loc	3 0 0 is_stmt 0         # /usr/include/c++/9/bits/stl_heap.h:0:0
	movq	%rdx, %rbx
	.loc	3 227 1 is_stmt 1       # /usr/include/c++/9/bits/stl_heap.h:227:1
	cmpq	%r12, %rdx
	jl	.LBB1_63
.Ltmp164:
.LBB1_64:                               # %L.B0191.i145
                                        #   in Loop: Header=BB1_61 Depth=1
	#DEBUG_VALUE: __adjust_heap:__value <- [DW_OP_LLVM_fragment 32 32] $r11d
	#DEBUG_VALUE: __adjust_heap:__first <- $r13
	#DEBUG_VALUE: __adjust_heap:__value <- [DW_OP_LLVM_fragment 0 32] $r15d
	#DEBUG_VALUE: __topIndex <- $rcx
	#DEBUG_VALUE: __partial_sort:__last <- $rsi
	#DEBUG_VALUE: __partial_sort:__middle <- $rsi
	#DEBUG_VALUE: __partial_sort:__first <- $r13
	#DEBUG_VALUE: ....inline._M_current <- $rsi
	#DEBUG_VALUE: __sort:__first <- $r13
	#DEBUG_VALUE: nBlocks <- [DW_OP_constu 88, DW_OP_minus] [$rbp+0]
	#DEBUG_VALUE: sortBlocklistByDimension:dimension <- [DW_OP_constu 136, DW_OP_minus] [$rbp+0]
	#DEBUG_VALUE: sortBlocklistByDimension:blocks <- [DW_OP_constu 208, DW_OP_minus] [$rbp+0]
	#DEBUG_VALUE: sortBlocklistByDimension:columnBlockOffsets <- [DW_OP_constu 72, DW_OP_minus] [$rbp+0]
	#DEBUG_VALUE: sortBlocklistByDimension:columnNumBlocks <- [DW_OP_constu 128, DW_OP_minus] [$rbp+0]
	#DEBUG_VALUE: sortBlocklistByDimension:setColumnOffsets <- [DW_OP_constu 96, DW_OP_minus] [$rbp+0]
	#DEBUG_VALUE: sortBlocklistByDimension:setNumColumns <- [DW_OP_plus_uconst 16] [$rbp+0]
	.loc	3 0 0 is_stmt 0         # /usr/include/c++/9/bits/stl_heap.h:0:0
	testb	$8, -64(%rbp)           # 1-byte Folded Reload
.Ltmp165:
	#DEBUG_VALUE: __secondChild <- $rdx
	#DEBUG_VALUE: __holeIndex <- $rdx
	#DEBUG_VALUE: __adjust_heap:__holeIndex <- $rdx
	.loc	3 228 1 is_stmt 1       # /usr/include/c++/9/bits/stl_heap.h:228:1
	jne	.LBB1_67
.Ltmp166:
# %bb.65:                               # %L.B0191.i145
                                        #   in Loop: Header=BB1_61 Depth=1
	#DEBUG_VALUE: __adjust_heap:__holeIndex <- $rdx
	#DEBUG_VALUE: __holeIndex <- $rdx
	#DEBUG_VALUE: __secondChild <- $rdx
	#DEBUG_VALUE: __adjust_heap:__value <- [DW_OP_LLVM_fragment 32 32] $r11d
	#DEBUG_VALUE: __adjust_heap:__first <- $r13
	#DEBUG_VALUE: __adjust_heap:__value <- [DW_OP_LLVM_fragment 0 32] $r15d
	#DEBUG_VALUE: __topIndex <- $rcx
	#DEBUG_VALUE: __partial_sort:__last <- $rsi
	#DEBUG_VALUE: __partial_sort:__middle <- $rsi
	#DEBUG_VALUE: __partial_sort:__first <- $r13
	#DEBUG_VALUE: ....inline._M_current <- $rsi
	#DEBUG_VALUE: __sort:__first <- $r13
	#DEBUG_VALUE: nBlocks <- [DW_OP_constu 88, DW_OP_minus] [$rbp+0]
	#DEBUG_VALUE: sortBlocklistByDimension:dimension <- [DW_OP_constu 136, DW_OP_minus] [$rbp+0]
	#DEBUG_VALUE: sortBlocklistByDimension:blocks <- [DW_OP_constu 208, DW_OP_minus] [$rbp+0]
	#DEBUG_VALUE: sortBlocklistByDimension:columnBlockOffsets <- [DW_OP_constu 72, DW_OP_minus] [$rbp+0]
	#DEBUG_VALUE: sortBlocklistByDimension:columnNumBlocks <- [DW_OP_constu 128, DW_OP_minus] [$rbp+0]
	#DEBUG_VALUE: sortBlocklistByDimension:setColumnOffsets <- [DW_OP_constu 96, DW_OP_minus] [$rbp+0]
	#DEBUG_VALUE: sortBlocklistByDimension:setNumColumns <- [DW_OP_plus_uconst 16] [$rbp+0]
	cmpq	%r10, %rdx
	jne	.LBB1_67
.Ltmp167:
# %bb.66:                               # %L.B3245.i147
                                        #   in Loop: Header=BB1_61 Depth=1
	#DEBUG_VALUE: __adjust_heap:__holeIndex <- $rdx
	#DEBUG_VALUE: __holeIndex <- $rdx
	#DEBUG_VALUE: __secondChild <- $rdx
	#DEBUG_VALUE: __adjust_heap:__value <- [DW_OP_LLVM_fragment 32 32] $r11d
	#DEBUG_VALUE: __adjust_heap:__first <- $r13
	#DEBUG_VALUE: __adjust_heap:__value <- [DW_OP_LLVM_fragment 0 32] $r15d
	#DEBUG_VALUE: __topIndex <- $rcx
	#DEBUG_VALUE: __partial_sort:__last <- $rsi
	#DEBUG_VALUE: __partial_sort:__middle <- $rsi
	#DEBUG_VALUE: __partial_sort:__first <- $r13
	#DEBUG_VALUE: ....inline._M_current <- $rsi
	#DEBUG_VALUE: __sort:__first <- $r13
	#DEBUG_VALUE: nBlocks <- [DW_OP_constu 88, DW_OP_minus] [$rbp+0]
	#DEBUG_VALUE: sortBlocklistByDimension:dimension <- [DW_OP_constu 136, DW_OP_minus] [$rbp+0]
	#DEBUG_VALUE: sortBlocklistByDimension:blocks <- [DW_OP_constu 208, DW_OP_minus] [$rbp+0]
	#DEBUG_VALUE: sortBlocklistByDimension:columnBlockOffsets <- [DW_OP_constu 72, DW_OP_minus] [$rbp+0]
	#DEBUG_VALUE: sortBlocklistByDimension:columnNumBlocks <- [DW_OP_constu 128, DW_OP_minus] [$rbp+0]
	#DEBUG_VALUE: sortBlocklistByDimension:setColumnOffsets <- [DW_OP_constu 96, DW_OP_minus] [$rbp+0]
	#DEBUG_VALUE: sortBlocklistByDimension:setNumColumns <- [DW_OP_plus_uconst 16] [$rbp+0]
	.loc	3 396 1                 # /usr/include/c++/9/bits/stl_heap.h:396:1
	movl	(%r13,%r9,8), %eax
	movl	%eax, (%r13,%r10,8)
	.loc	3 397 1                 # /usr/include/c++/9/bits/stl_heap.h:397:1
	movl	4(%r13,%r9,8), %eax
	movl	%eax, 4(%r13,%r10,8)
.Ltmp168:
	#DEBUG_VALUE: __secondChild <- [DW_OP_constu 18446744073709551614, DW_OP_and, DW_OP_plus_uconst 2, DW_OP_stack_value] undef
	#DEBUG_VALUE: __holeIndex <- $r9
	#DEBUG_VALUE: __adjust_heap:__holeIndex <- $r9
	.loc	3 0 1 is_stmt 0         # /usr/include/c++/9/bits/stl_heap.h:0:1
	movq	%r9, %rdx
.Ltmp169:
.LBB1_67:                               # %L.B0195.i149
                                        #   in Loop: Header=BB1_61 Depth=1
	#DEBUG_VALUE: __adjust_heap:__value <- [DW_OP_LLVM_fragment 32 32] $r11d
	#DEBUG_VALUE: __adjust_heap:__first <- $r13
	#DEBUG_VALUE: __adjust_heap:__value <- [DW_OP_LLVM_fragment 0 32] $r15d
	#DEBUG_VALUE: __topIndex <- $rcx
	#DEBUG_VALUE: __partial_sort:__last <- $rsi
	#DEBUG_VALUE: __partial_sort:__middle <- $rsi
	#DEBUG_VALUE: __partial_sort:__first <- $r13
	#DEBUG_VALUE: ....inline._M_current <- $rsi
	#DEBUG_VALUE: __sort:__first <- $r13
	#DEBUG_VALUE: nBlocks <- [DW_OP_constu 88, DW_OP_minus] [$rbp+0]
	#DEBUG_VALUE: sortBlocklistByDimension:dimension <- [DW_OP_constu 136, DW_OP_minus] [$rbp+0]
	#DEBUG_VALUE: sortBlocklistByDimension:blocks <- [DW_OP_constu 208, DW_OP_minus] [$rbp+0]
	#DEBUG_VALUE: sortBlocklistByDimension:columnBlockOffsets <- [DW_OP_constu 72, DW_OP_minus] [$rbp+0]
	#DEBUG_VALUE: sortBlocklistByDimension:columnNumBlocks <- [DW_OP_constu 128, DW_OP_minus] [$rbp+0]
	#DEBUG_VALUE: sortBlocklistByDimension:setColumnOffsets <- [DW_OP_constu 96, DW_OP_minus] [$rbp+0]
	#DEBUG_VALUE: sortBlocklistByDimension:setNumColumns <- [DW_OP_plus_uconst 16] [$rbp+0]
	#DEBUG_VALUE: __adjust_heap:__holeIndex <- $rdx
	#DEBUG_VALUE: __holeIndex <- $rdx
	.loc	3 133 1 is_stmt 1       # /usr/include/c++/9/bits/stl_heap.h:133:1
	cmpq	%rcx, %rdx
.Ltmp170:
	#DEBUG_VALUE: __cmp <- undef
	#DEBUG_VALUE: ....inline._M_current <- $r13
	jle	.LBB1_59
.Ltmp171:
# %bb.68:                               # %L..inline.61271.preheader.i150
                                        #   in Loop: Header=BB1_61 Depth=1
	#DEBUG_VALUE: ....inline._M_current <- $r13
	#DEBUG_VALUE: __adjust_heap:__holeIndex <- $rdx
	#DEBUG_VALUE: __holeIndex <- $rdx
	#DEBUG_VALUE: __adjust_heap:__value <- [DW_OP_LLVM_fragment 32 32] $r11d
	#DEBUG_VALUE: __adjust_heap:__first <- $r13
	#DEBUG_VALUE: __adjust_heap:__value <- [DW_OP_LLVM_fragment 0 32] $r15d
	#DEBUG_VALUE: __topIndex <- $rcx
	#DEBUG_VALUE: __partial_sort:__last <- $rsi
	#DEBUG_VALUE: __partial_sort:__middle <- $rsi
	#DEBUG_VALUE: __partial_sort:__first <- $r13
	#DEBUG_VALUE: ....inline._M_current <- $rsi
	#DEBUG_VALUE: __sort:__first <- $r13
	#DEBUG_VALUE: nBlocks <- [DW_OP_constu 88, DW_OP_minus] [$rbp+0]
	#DEBUG_VALUE: sortBlocklistByDimension:dimension <- [DW_OP_constu 136, DW_OP_minus] [$rbp+0]
	#DEBUG_VALUE: sortBlocklistByDimension:blocks <- [DW_OP_constu 208, DW_OP_minus] [$rbp+0]
	#DEBUG_VALUE: sortBlocklistByDimension:columnBlockOffsets <- [DW_OP_constu 72, DW_OP_minus] [$rbp+0]
	#DEBUG_VALUE: sortBlocklistByDimension:columnNumBlocks <- [DW_OP_constu 128, DW_OP_minus] [$rbp+0]
	#DEBUG_VALUE: sortBlocklistByDimension:setColumnOffsets <- [DW_OP_constu 96, DW_OP_minus] [$rbp+0]
	#DEBUG_VALUE: sortBlocklistByDimension:setNumColumns <- [DW_OP_plus_uconst 16] [$rbp+0]
	.loc	3 237 1                 # /usr/include/c++/9/bits/stl_heap.h:237:1
	leaq	-1(%rdx), %rdi
	movq	%rdi, %rax
	shrq	$63, %rax
	addq	%rdi, %rax
.Ltmp172:
	.p2align	4, 0x90
.LBB1_69:                               # %.noexc161
                                        #   Parent Loop BB1_61 Depth=1
                                        # =>  This Inner Loop Header: Depth=2
	#DEBUG_VALUE: ....inline._M_current <- $r13
	#DEBUG_VALUE: __adjust_heap:__value <- [DW_OP_LLVM_fragment 32 32] $r11d
	#DEBUG_VALUE: __adjust_heap:__first <- $r13
	#DEBUG_VALUE: __adjust_heap:__value <- [DW_OP_LLVM_fragment 0 32] $r15d
	#DEBUG_VALUE: __topIndex <- $rcx
	#DEBUG_VALUE: __partial_sort:__last <- $rsi
	#DEBUG_VALUE: __partial_sort:__middle <- $rsi
	#DEBUG_VALUE: __partial_sort:__first <- $r13
	#DEBUG_VALUE: ....inline._M_current <- $rsi
	#DEBUG_VALUE: __sort:__first <- $r13
	#DEBUG_VALUE: nBlocks <- [DW_OP_constu 88, DW_OP_minus] [$rbp+0]
	#DEBUG_VALUE: sortBlocklistByDimension:dimension <- [DW_OP_constu 136, DW_OP_minus] [$rbp+0]
	#DEBUG_VALUE: sortBlocklistByDimension:blocks <- [DW_OP_constu 208, DW_OP_minus] [$rbp+0]
	#DEBUG_VALUE: sortBlocklistByDimension:columnBlockOffsets <- [DW_OP_constu 72, DW_OP_minus] [$rbp+0]
	#DEBUG_VALUE: sortBlocklistByDimension:columnNumBlocks <- [DW_OP_constu 128, DW_OP_minus] [$rbp+0]
	#DEBUG_VALUE: sortBlocklistByDimension:setColumnOffsets <- [DW_OP_constu 96, DW_OP_minus] [$rbp+0]
	#DEBUG_VALUE: sortBlocklistByDimension:setNumColumns <- [DW_OP_plus_uconst 16] [$rbp+0]
	.loc	3 0 0 is_stmt 0         # /usr/include/c++/9/bits/stl_heap.h:0:0
	movq	%rax, %rbx
	sarq	%rbx
.Ltmp173:
	#DEBUG_VALUE: r <- undef
	#DEBUG_VALUE: paircomparator:r <- undef
	#DEBUG_VALUE: l <- undef
	#DEBUG_VALUE: paircomparator:l <- undef
	.loc	1 36 1 is_stmt 1        # vlasovsolver/cpu_acc_sort_blocks.cpp:36:1
	movl	(%r13,%rbx,8), %eax
	cmpl	%r15d, %eax
.Ltmp174:
	.loc	3 133 1                 # /usr/include/c++/9/bits/stl_heap.h:133:1
	jae	.LBB1_59
.Ltmp175:
# %bb.70:                               # %L.B3246.i155
                                        #   in Loop: Header=BB1_69 Depth=2
	#DEBUG_VALUE: ....inline._M_current <- $r13
	#DEBUG_VALUE: __adjust_heap:__value <- [DW_OP_LLVM_fragment 32 32] $r11d
	#DEBUG_VALUE: __adjust_heap:__first <- $r13
	#DEBUG_VALUE: __adjust_heap:__value <- [DW_OP_LLVM_fragment 0 32] $r15d
	#DEBUG_VALUE: __topIndex <- $rcx
	#DEBUG_VALUE: __partial_sort:__last <- $rsi
	#DEBUG_VALUE: __partial_sort:__middle <- $rsi
	#DEBUG_VALUE: __partial_sort:__first <- $r13
	#DEBUG_VALUE: ....inline._M_current <- $rsi
	#DEBUG_VALUE: __sort:__first <- $r13
	#DEBUG_VALUE: nBlocks <- [DW_OP_constu 88, DW_OP_minus] [$rbp+0]
	#DEBUG_VALUE: sortBlocklistByDimension:dimension <- [DW_OP_constu 136, DW_OP_minus] [$rbp+0]
	#DEBUG_VALUE: sortBlocklistByDimension:blocks <- [DW_OP_constu 208, DW_OP_minus] [$rbp+0]
	#DEBUG_VALUE: sortBlocklistByDimension:columnBlockOffsets <- [DW_OP_constu 72, DW_OP_minus] [$rbp+0]
	#DEBUG_VALUE: sortBlocklistByDimension:columnNumBlocks <- [DW_OP_constu 128, DW_OP_minus] [$rbp+0]
	#DEBUG_VALUE: sortBlocklistByDimension:setColumnOffsets <- [DW_OP_constu 96, DW_OP_minus] [$rbp+0]
	#DEBUG_VALUE: sortBlocklistByDimension:setNumColumns <- [DW_OP_plus_uconst 16] [$rbp+0]
	#DEBUG_VALUE: ....inline._M_current <- undef
	.loc	3 135 1                 # /usr/include/c++/9/bits/stl_heap.h:135:1
	movl	%eax, (%r13,%rdx,8)
	movl	4(%r13,%rbx,8), %eax
	movl	%eax, 4(%r13,%rdx,8)
	.loc	3 136 1                 # /usr/include/c++/9/bits/stl_heap.h:136:1
	leaq	-1(%rbx), %rax
	shrq	$63, %rax
	addq	%rbx, %rax
	decq	%rax
.Ltmp176:
	.loc	3 0 0 is_stmt 0         # /usr/include/c++/9/bits/stl_heap.h:0:0
	movq	%rbx, %rdx
.Ltmp177:
	.loc	3 137 1 is_stmt 1       # /usr/include/c++/9/bits/stl_heap.h:137:1
	cmpq	%rcx, %rbx
	jg	.LBB1_69
	jmp	.LBB1_60
.Ltmp178:
.LBB1_72:                               # %L..inline.60147.i
	#DEBUG_VALUE: __partial_sort:__last <- $rsi
	#DEBUG_VALUE: __partial_sort:__middle <- $rsi
	#DEBUG_VALUE: __partial_sort:__first <- $r13
	#DEBUG_VALUE: ....inline._M_current <- $rsi
	#DEBUG_VALUE: __sort:__first <- $r13
	#DEBUG_VALUE: nBlocks <- [DW_OP_constu 88, DW_OP_minus] [$rbp+0]
	#DEBUG_VALUE: sortBlocklistByDimension:dimension <- [DW_OP_constu 136, DW_OP_minus] [$rbp+0]
	#DEBUG_VALUE: sortBlocklistByDimension:blocks <- [DW_OP_constu 208, DW_OP_minus] [$rbp+0]
	#DEBUG_VALUE: sortBlocklistByDimension:columnBlockOffsets <- [DW_OP_constu 72, DW_OP_minus] [$rbp+0]
	#DEBUG_VALUE: sortBlocklistByDimension:columnNumBlocks <- [DW_OP_constu 128, DW_OP_minus] [$rbp+0]
	#DEBUG_VALUE: sortBlocklistByDimension:setColumnOffsets <- [DW_OP_constu 96, DW_OP_minus] [$rbp+0]
	#DEBUG_VALUE: sortBlocklistByDimension:setNumColumns <- [DW_OP_plus_uconst 16] [$rbp+0]
	#DEBUG_VALUE: ....inline._M_current <- $rsi
	.loc	2 405 1                 # /usr/include/c++/9/bits/stl_algo.h:405:1
	cmpq	$16, -64(%rbp)          # 8-byte Folded Reload
	jge	.LBB1_94
.Ltmp179:
.LBB1_73:                               # %L.B0225.preheader.i165
	#DEBUG_VALUE: __sort:__first <- $r13
	#DEBUG_VALUE: nBlocks <- [DW_OP_constu 88, DW_OP_minus] [$rbp+0]
	#DEBUG_VALUE: sortBlocklistByDimension:dimension <- [DW_OP_constu 136, DW_OP_minus] [$rbp+0]
	#DEBUG_VALUE: sortBlocklistByDimension:blocks <- [DW_OP_constu 208, DW_OP_minus] [$rbp+0]
	#DEBUG_VALUE: sortBlocklistByDimension:columnBlockOffsets <- [DW_OP_constu 72, DW_OP_minus] [$rbp+0]
	#DEBUG_VALUE: sortBlocklistByDimension:columnNumBlocks <- [DW_OP_constu 128, DW_OP_minus] [$rbp+0]
	#DEBUG_VALUE: sortBlocklistByDimension:setColumnOffsets <- [DW_OP_constu 96, DW_OP_minus] [$rbp+0]
	#DEBUG_VALUE: sortBlocklistByDimension:setNumColumns <- [DW_OP_plus_uconst 16] [$rbp+0]
	.loc	2 1884 1                # /usr/include/c++/9/bits/stl_algo.h:1884:1
	leaq	128(%r13), %r10
.Ltmp180:
	#DEBUG_VALUE: __i <- $r14
	#DEBUG_VALUE: __insertion_sort:__first <- $r13
	#DEBUG_VALUE: __insertion_sort:__last <- $r10
	.loc	2 143 1                 # /usr/include/c++/9/bits/stl_algo.h:143:1
	leaq	-16(%r13), %rax
.Ltmp181:
	#DEBUG_VALUE: __insertion_sort:__comp <- undef
	.loc	2 0 1 is_stmt 0         # /usr/include/c++/9/bits/stl_algo.h:0:1
	movq	-72(%rbp), %r12         # 8-byte Reload
	movq	-48(%rbp), %rbx         # 8-byte Reload
	jmp	.LBB1_76
.Ltmp182:
	.p2align	4, 0x90
.LBB1_74:                               # %L.N0039.i193
                                        #   in Loop: Header=BB1_76 Depth=1
	#DEBUG_VALUE: ....inline._M_current <- [DW_OP_constu 8, DW_OP_minus, DW_OP_stack_value] $r14
	#DEBUG_VALUE: __insertion_sort:__last <- $r10
	#DEBUG_VALUE: __insertion_sort:__first <- $r13
	#DEBUG_VALUE: __sort:__first <- $r13
	#DEBUG_VALUE: nBlocks <- [DW_OP_constu 88, DW_OP_minus] [$rbp+0]
	#DEBUG_VALUE: sortBlocklistByDimension:dimension <- [DW_OP_constu 136, DW_OP_minus] [$rbp+0]
	#DEBUG_VALUE: sortBlocklistByDimension:blocks <- [DW_OP_constu 208, DW_OP_minus] [$rbp+0]
	#DEBUG_VALUE: sortBlocklistByDimension:columnBlockOffsets <- [DW_OP_constu 72, DW_OP_minus] [$rbp+0]
	#DEBUG_VALUE: sortBlocklistByDimension:columnNumBlocks <- [DW_OP_constu 128, DW_OP_minus] [$rbp+0]
	#DEBUG_VALUE: sortBlocklistByDimension:setColumnOffsets <- [DW_OP_constu 96, DW_OP_minus] [$rbp+0]
	#DEBUG_VALUE: sortBlocklistByDimension:setNumColumns <- [DW_OP_plus_uconst 16] [$rbp+0]
	#DEBUG_VALUE: ....inline._M_current <- $rdx
	.loc	2 1833 1 is_stmt 1      # /usr/include/c++/9/bits/stl_algo.h:1833:1
	movl	%esi, (%rdx)
	addq	$4, %rdx
.Ltmp183:
.LBB1_75:                               # %L.B0231.i194
                                        #   in Loop: Header=BB1_76 Depth=1
	#DEBUG_VALUE: __insertion_sort:__last <- $r10
	#DEBUG_VALUE: __insertion_sort:__first <- $r13
	#DEBUG_VALUE: __sort:__first <- $r13
	#DEBUG_VALUE: nBlocks <- [DW_OP_constu 88, DW_OP_minus] [$rbp+0]
	#DEBUG_VALUE: sortBlocklistByDimension:dimension <- [DW_OP_constu 136, DW_OP_minus] [$rbp+0]
	#DEBUG_VALUE: sortBlocklistByDimension:blocks <- [DW_OP_constu 208, DW_OP_minus] [$rbp+0]
	#DEBUG_VALUE: sortBlocklistByDimension:columnBlockOffsets <- [DW_OP_constu 72, DW_OP_minus] [$rbp+0]
	#DEBUG_VALUE: sortBlocklistByDimension:columnNumBlocks <- [DW_OP_constu 128, DW_OP_minus] [$rbp+0]
	#DEBUG_VALUE: sortBlocklistByDimension:setColumnOffsets <- [DW_OP_constu 96, DW_OP_minus] [$rbp+0]
	#DEBUG_VALUE: sortBlocklistByDimension:setNumColumns <- [DW_OP_plus_uconst 16] [$rbp+0]
	.loc	2 0 0 is_stmt 0         # /usr/include/c++/9/bits/stl_algo.h:0:0
	movl	%r8d, (%rdx)
.Ltmp184:
	.loc	2 1856 1 is_stmt 1      # /usr/include/c++/9/bits/stl_algo.h:1856:1
	addq	$8, %r14
.Ltmp185:
	#DEBUG_VALUE: __i <- $r14
	addq	$8, %rax
	cmpq	%r10, %r14
	je	.LBB1_106
.Ltmp186:
.LBB1_76:                               # %.noexc195
                                        # =>This Loop Header: Depth=1
                                        #     Child Loop BB1_82 Depth 2
                                        #     Child Loop BB1_84 Depth 2
	#DEBUG_VALUE: __insertion_sort:__last <- $r10
	#DEBUG_VALUE: __insertion_sort:__first <- $r13
	#DEBUG_VALUE: __i <- $r14
	#DEBUG_VALUE: __sort:__first <- $r13
	#DEBUG_VALUE: nBlocks <- [DW_OP_constu 88, DW_OP_minus] [$rbp+0]
	#DEBUG_VALUE: sortBlocklistByDimension:dimension <- [DW_OP_constu 136, DW_OP_minus] [$rbp+0]
	#DEBUG_VALUE: sortBlocklistByDimension:blocks <- [DW_OP_constu 208, DW_OP_minus] [$rbp+0]
	#DEBUG_VALUE: sortBlocklistByDimension:columnBlockOffsets <- [DW_OP_constu 72, DW_OP_minus] [$rbp+0]
	#DEBUG_VALUE: sortBlocklistByDimension:columnNumBlocks <- [DW_OP_constu 128, DW_OP_minus] [$rbp+0]
	#DEBUG_VALUE: sortBlocklistByDimension:setColumnOffsets <- [DW_OP_constu 96, DW_OP_minus] [$rbp+0]
	#DEBUG_VALUE: sortBlocklistByDimension:setNumColumns <- [DW_OP_plus_uconst 16] [$rbp+0]
	#DEBUG_VALUE: __i <- $r14
	#DEBUG_VALUE: paircomparator:l <- $r14
	#DEBUG_VALUE: l <- $r14
	#DEBUG_VALUE: paircomparator:r <- $r13
	#DEBUG_VALUE: r <- $r13
	.loc	1 36 1                  # vlasovsolver/cpu_acc_sort_blocks.cpp:36:1
	movl	(%r14), %esi
.Ltmp187:
	.loc	2 0 0 is_stmt 0         # /usr/include/c++/9/bits/stl_algo.h:0:0
	movl	4(%r14), %r8d
.Ltmp188:
	.loc	1 36 1                  # vlasovsolver/cpu_acc_sort_blocks.cpp:36:1
	cmpl	(%r13), %esi
.Ltmp189:
	#DEBUG_VALUE: r <- $r13
	#DEBUG_VALUE: paircomparator:r <- $r13
	#DEBUG_VALUE: l <- $r14
	#DEBUG_VALUE: paircomparator:l <- $r14
	.loc	2 143 1 is_stmt 1       # /usr/include/c++/9/bits/stl_algo.h:143:1
	jae	.LBB1_80
.Ltmp190:
# %bb.77:                               # %L.B3420.i168
                                        #   in Loop: Header=BB1_76 Depth=1
	#DEBUG_VALUE: __insertion_sort:__last <- $r10
	#DEBUG_VALUE: __insertion_sort:__first <- $r13
	#DEBUG_VALUE: __sort:__first <- $r13
	#DEBUG_VALUE: nBlocks <- [DW_OP_constu 88, DW_OP_minus] [$rbp+0]
	#DEBUG_VALUE: sortBlocklistByDimension:dimension <- [DW_OP_constu 136, DW_OP_minus] [$rbp+0]
	#DEBUG_VALUE: sortBlocklistByDimension:blocks <- [DW_OP_constu 208, DW_OP_minus] [$rbp+0]
	#DEBUG_VALUE: sortBlocklistByDimension:columnBlockOffsets <- [DW_OP_constu 72, DW_OP_minus] [$rbp+0]
	#DEBUG_VALUE: sortBlocklistByDimension:columnNumBlocks <- [DW_OP_constu 128, DW_OP_minus] [$rbp+0]
	#DEBUG_VALUE: sortBlocklistByDimension:setColumnOffsets <- [DW_OP_constu 96, DW_OP_minus] [$rbp+0]
	#DEBUG_VALUE: sortBlocklistByDimension:setNumColumns <- [DW_OP_plus_uconst 16] [$rbp+0]
	#DEBUG_VALUE: ....inline._M_current <- [DW_OP_plus_uconst 8, DW_OP_stack_value] $r14
	.loc	2 0 1 is_stmt 0         # /usr/include/c++/9/bits/stl_algo.h:0:1
	movq	-104(%rbp), %rcx        # 8-byte Reload
	.loc	2 686 1 is_stmt 1       # /usr/include/c++/9/bits/stl_algo.h:686:1
	leaq	(%r14,%rcx), %rdx
	cmpq	$8, %rdx
	.loc	2 1827 1                # /usr/include/c++/9/bits/stl_algo.h:1827:1
	jl	.LBB1_91
.Ltmp191:
# %bb.78:                               # %L.B3421.i169
                                        #   in Loop: Header=BB1_76 Depth=1
	#DEBUG_VALUE: ....inline._M_current <- [DW_OP_plus_uconst 8, DW_OP_stack_value] $r14
	#DEBUG_VALUE: __insertion_sort:__last <- $r10
	#DEBUG_VALUE: __insertion_sort:__first <- $r13
	#DEBUG_VALUE: __sort:__first <- $r13
	#DEBUG_VALUE: nBlocks <- [DW_OP_constu 88, DW_OP_minus] [$rbp+0]
	#DEBUG_VALUE: sortBlocklistByDimension:dimension <- [DW_OP_constu 136, DW_OP_minus] [$rbp+0]
	#DEBUG_VALUE: sortBlocklistByDimension:blocks <- [DW_OP_constu 208, DW_OP_minus] [$rbp+0]
	#DEBUG_VALUE: sortBlocklistByDimension:columnBlockOffsets <- [DW_OP_constu 72, DW_OP_minus] [$rbp+0]
	#DEBUG_VALUE: sortBlocklistByDimension:columnNumBlocks <- [DW_OP_constu 128, DW_OP_minus] [$rbp+0]
	#DEBUG_VALUE: sortBlocklistByDimension:setColumnOffsets <- [DW_OP_constu 96, DW_OP_minus] [$rbp+0]
	#DEBUG_VALUE: sortBlocklistByDimension:setNumColumns <- [DW_OP_plus_uconst 16] [$rbp+0]
	.loc	2 0 1 is_stmt 0         # /usr/include/c++/9/bits/stl_algo.h:0:1
	movq	%rdx, %r9
	sarq	$3, %r9
	.loc	2 686 1 is_stmt 1       # /usr/include/c++/9/bits/stl_algo.h:686:1
	cmpq	$32, %rdx
	jge	.LBB1_83
.Ltmp192:
# %bb.79:                               #   in Loop: Header=BB1_76 Depth=1
	#DEBUG_VALUE: ....inline._M_current <- [DW_OP_plus_uconst 8, DW_OP_stack_value] $r14
	#DEBUG_VALUE: __insertion_sort:__last <- $r10
	#DEBUG_VALUE: __insertion_sort:__first <- $r13
	#DEBUG_VALUE: __sort:__first <- $r13
	#DEBUG_VALUE: nBlocks <- [DW_OP_constu 88, DW_OP_minus] [$rbp+0]
	#DEBUG_VALUE: sortBlocklistByDimension:dimension <- [DW_OP_constu 136, DW_OP_minus] [$rbp+0]
	#DEBUG_VALUE: sortBlocklistByDimension:blocks <- [DW_OP_constu 208, DW_OP_minus] [$rbp+0]
	#DEBUG_VALUE: sortBlocklistByDimension:columnBlockOffsets <- [DW_OP_constu 72, DW_OP_minus] [$rbp+0]
	#DEBUG_VALUE: sortBlocklistByDimension:columnNumBlocks <- [DW_OP_constu 128, DW_OP_minus] [$rbp+0]
	#DEBUG_VALUE: sortBlocklistByDimension:setColumnOffsets <- [DW_OP_constu 96, DW_OP_minus] [$rbp+0]
	#DEBUG_VALUE: sortBlocklistByDimension:setNumColumns <- [DW_OP_plus_uconst 16] [$rbp+0]
	.loc	2 1827 1                # /usr/include/c++/9/bits/stl_algo.h:1827:1
	xorl	%edi, %edi
	.loc	2 686 1                 # /usr/include/c++/9/bits/stl_algo.h:686:1
	testq	%r9, %r9
	jne	.LBB1_86
	jmp	.LBB1_91
.Ltmp193:
	.p2align	4, 0x90
.LBB1_80:                               # %.noexc196
                                        #   in Loop: Header=BB1_76 Depth=1
	#DEBUG_VALUE: r <- $r13
	#DEBUG_VALUE: paircomparator:r <- $r13
	#DEBUG_VALUE: l <- $r14
	#DEBUG_VALUE: paircomparator:l <- $r14
	#DEBUG_VALUE: __insertion_sort:__last <- $r10
	#DEBUG_VALUE: __insertion_sort:__first <- $r13
	#DEBUG_VALUE: __sort:__first <- $r13
	#DEBUG_VALUE: nBlocks <- [DW_OP_constu 88, DW_OP_minus] [$rbp+0]
	#DEBUG_VALUE: sortBlocklistByDimension:dimension <- [DW_OP_constu 136, DW_OP_minus] [$rbp+0]
	#DEBUG_VALUE: sortBlocklistByDimension:blocks <- [DW_OP_constu 208, DW_OP_minus] [$rbp+0]
	#DEBUG_VALUE: sortBlocklistByDimension:columnBlockOffsets <- [DW_OP_constu 72, DW_OP_minus] [$rbp+0]
	#DEBUG_VALUE: sortBlocklistByDimension:columnNumBlocks <- [DW_OP_constu 128, DW_OP_minus] [$rbp+0]
	#DEBUG_VALUE: sortBlocklistByDimension:setColumnOffsets <- [DW_OP_constu 96, DW_OP_minus] [$rbp+0]
	#DEBUG_VALUE: sortBlocklistByDimension:setNumColumns <- [DW_OP_plus_uconst 16] [$rbp+0]
	#DEBUG_VALUE: paircomparator:l <- $r14
	#DEBUG_VALUE: l <- $r14
	#DEBUG_VALUE: ....inline._M_current <- $r14
	#DEBUG_VALUE: ....inline._M_current <- [DW_OP_constu 8, DW_OP_minus, DW_OP_stack_value] $r14
	#DEBUG_VALUE: paircomparator:l <- undef
	#DEBUG_VALUE: l <- undef
	#DEBUG_VALUE: paircomparator:r <- [DW_OP_constu 8, DW_OP_minus, DW_OP_stack_value] $r14
	#DEBUG_VALUE: r <- [DW_OP_constu 8, DW_OP_minus, DW_OP_stack_value] $r14
	.loc	1 36 1                  # vlasovsolver/cpu_acc_sort_blocks.cpp:36:1
	movl	-8(%r14), %edi
.Ltmp194:
	.loc	2 0 0 is_stmt 0         # /usr/include/c++/9/bits/stl_algo.h:0:0
	movq	%r14, %rdx
.Ltmp195:
	.loc	1 36 1                  # vlasovsolver/cpu_acc_sort_blocks.cpp:36:1
	cmpl	%edi, %esi
.Ltmp196:
	#DEBUG_VALUE: ....inline._M_comp <- undef
	#DEBUG_VALUE: r <- [DW_OP_constu 8, DW_OP_minus, DW_OP_stack_value] $r14
	#DEBUG_VALUE: paircomparator:r <- [DW_OP_constu 8, DW_OP_minus, DW_OP_stack_value] $r14
	.loc	2 1827 1 is_stmt 1      # /usr/include/c++/9/bits/stl_algo.h:1827:1
	jae	.LBB1_74
.Ltmp197:
# %bb.81:                               # %.noexc197.preheader
                                        #   in Loop: Header=BB1_76 Depth=1
	#DEBUG_VALUE: ....inline._M_current <- [DW_OP_constu 8, DW_OP_minus, DW_OP_stack_value] $r14
	#DEBUG_VALUE: __insertion_sort:__last <- $r10
	#DEBUG_VALUE: __insertion_sort:__first <- $r13
	#DEBUG_VALUE: __sort:__first <- $r13
	#DEBUG_VALUE: nBlocks <- [DW_OP_constu 88, DW_OP_minus] [$rbp+0]
	#DEBUG_VALUE: sortBlocklistByDimension:dimension <- [DW_OP_constu 136, DW_OP_minus] [$rbp+0]
	#DEBUG_VALUE: sortBlocklistByDimension:blocks <- [DW_OP_constu 208, DW_OP_minus] [$rbp+0]
	#DEBUG_VALUE: sortBlocklistByDimension:columnBlockOffsets <- [DW_OP_constu 72, DW_OP_minus] [$rbp+0]
	#DEBUG_VALUE: sortBlocklistByDimension:columnNumBlocks <- [DW_OP_constu 128, DW_OP_minus] [$rbp+0]
	#DEBUG_VALUE: sortBlocklistByDimension:setColumnOffsets <- [DW_OP_constu 96, DW_OP_minus] [$rbp+0]
	#DEBUG_VALUE: sortBlocklistByDimension:setNumColumns <- [DW_OP_plus_uconst 16] [$rbp+0]
	#DEBUG_VALUE: ....inline._M_current <- [DW_OP_constu 8, DW_OP_minus, DW_OP_stack_value] $r14
	.loc	2 1829 1                # /usr/include/c++/9/bits/stl_algo.h:1829:1
	movq	%r14, %rdx
.Ltmp198:
	.p2align	4, 0x90
.LBB1_82:                               # %.noexc197
                                        #   Parent Loop BB1_76 Depth=1
                                        # =>  This Inner Loop Header: Depth=2
	#DEBUG_VALUE: ....inline._M_current <- [DW_OP_constu 8, DW_OP_minus, DW_OP_stack_value] $r14
	#DEBUG_VALUE: __insertion_sort:__last <- $r10
	#DEBUG_VALUE: __insertion_sort:__first <- $r13
	#DEBUG_VALUE: __sort:__first <- $r13
	#DEBUG_VALUE: nBlocks <- [DW_OP_constu 88, DW_OP_minus] [$rbp+0]
	#DEBUG_VALUE: sortBlocklistByDimension:dimension <- [DW_OP_constu 136, DW_OP_minus] [$rbp+0]
	#DEBUG_VALUE: sortBlocklistByDimension:blocks <- [DW_OP_constu 208, DW_OP_minus] [$rbp+0]
	#DEBUG_VALUE: sortBlocklistByDimension:columnBlockOffsets <- [DW_OP_constu 72, DW_OP_minus] [$rbp+0]
	#DEBUG_VALUE: sortBlocklistByDimension:columnNumBlocks <- [DW_OP_constu 128, DW_OP_minus] [$rbp+0]
	#DEBUG_VALUE: sortBlocklistByDimension:setColumnOffsets <- [DW_OP_constu 96, DW_OP_minus] [$rbp+0]
	#DEBUG_VALUE: sortBlocklistByDimension:setNumColumns <- [DW_OP_plus_uconst 16] [$rbp+0]
	movl	%edi, (%rdx)
.Ltmp199:
	#DEBUG_VALUE: r <- [DW_OP_constu 8, DW_OP_minus, DW_OP_stack_value] undef
	#DEBUG_VALUE: paircomparator:r <- [DW_OP_constu 8, DW_OP_minus, DW_OP_stack_value] undef
	#DEBUG_VALUE: l <- undef
	#DEBUG_VALUE: paircomparator:l <- undef
	#DEBUG_VALUE: ....inline._M_current <- undef
	.loc	1 36 1                  # vlasovsolver/cpu_acc_sort_blocks.cpp:36:1
	movl	-16(%rdx), %edi
.Ltmp200:
	.loc	2 1829 1                # /usr/include/c++/9/bits/stl_algo.h:1829:1
	movl	-4(%rdx), %ecx
	movl	%ecx, 4(%rdx)
	.loc	2 1827 1                # /usr/include/c++/9/bits/stl_algo.h:1827:1
	addq	$-8, %rdx
.Ltmp201:
	.loc	1 36 1                  # vlasovsolver/cpu_acc_sort_blocks.cpp:36:1
	cmpl	%edi, %esi
.Ltmp202:
	.loc	2 1827 1                # /usr/include/c++/9/bits/stl_algo.h:1827:1
	jb	.LBB1_82
	jmp	.LBB1_74
.Ltmp203:
.LBB1_83:                               # %L.B3422.i170
                                        #   in Loop: Header=BB1_76 Depth=1
	#DEBUG_VALUE: ....inline._M_current <- [DW_OP_plus_uconst 8, DW_OP_stack_value] $r14
	#DEBUG_VALUE: __insertion_sort:__last <- $r10
	#DEBUG_VALUE: __insertion_sort:__first <- $r13
	#DEBUG_VALUE: __sort:__first <- $r13
	#DEBUG_VALUE: nBlocks <- [DW_OP_constu 88, DW_OP_minus] [$rbp+0]
	#DEBUG_VALUE: sortBlocklistByDimension:dimension <- [DW_OP_constu 136, DW_OP_minus] [$rbp+0]
	#DEBUG_VALUE: sortBlocklistByDimension:blocks <- [DW_OP_constu 208, DW_OP_minus] [$rbp+0]
	#DEBUG_VALUE: sortBlocklistByDimension:columnBlockOffsets <- [DW_OP_constu 72, DW_OP_minus] [$rbp+0]
	#DEBUG_VALUE: sortBlocklistByDimension:columnNumBlocks <- [DW_OP_constu 128, DW_OP_minus] [$rbp+0]
	#DEBUG_VALUE: sortBlocklistByDimension:setColumnOffsets <- [DW_OP_constu 96, DW_OP_minus] [$rbp+0]
	#DEBUG_VALUE: sortBlocklistByDimension:setNumColumns <- [DW_OP_plus_uconst 16] [$rbp+0]
	.loc	2 686 1                 # /usr/include/c++/9/bits/stl_algo.h:686:1
	sarq	$4, %rdx
	shrq	$62, %rdx
	addq	%r9, %rdx
	movq	%rdx, %rbx
	sarq	$2, %rbx
	movq	%rax, %rcx
	.loc	2 1827 1                # /usr/include/c++/9/bits/stl_algo.h:1827:1
	xorl	%edi, %edi
.Ltmp204:
	.p2align	4, 0x90
.LBB1_84:                               # %L.B3413.i173
                                        #   Parent Loop BB1_76 Depth=1
                                        # =>  This Inner Loop Header: Depth=2
	#DEBUG_VALUE: ....inline._M_current <- [DW_OP_plus_uconst 8, DW_OP_stack_value] $r14
	#DEBUG_VALUE: __insertion_sort:__last <- $r10
	#DEBUG_VALUE: __insertion_sort:__first <- $r13
	#DEBUG_VALUE: __sort:__first <- $r13
	#DEBUG_VALUE: nBlocks <- [DW_OP_constu 88, DW_OP_minus] [$rbp+0]
	#DEBUG_VALUE: sortBlocklistByDimension:dimension <- [DW_OP_constu 136, DW_OP_minus] [$rbp+0]
	#DEBUG_VALUE: sortBlocklistByDimension:blocks <- [DW_OP_constu 208, DW_OP_minus] [$rbp+0]
	#DEBUG_VALUE: sortBlocklistByDimension:columnBlockOffsets <- [DW_OP_constu 72, DW_OP_minus] [$rbp+0]
	#DEBUG_VALUE: sortBlocklistByDimension:columnNumBlocks <- [DW_OP_constu 128, DW_OP_minus] [$rbp+0]
	#DEBUG_VALUE: sortBlocklistByDimension:setColumnOffsets <- [DW_OP_constu 96, DW_OP_minus] [$rbp+0]
	#DEBUG_VALUE: sortBlocklistByDimension:setNumColumns <- [DW_OP_plus_uconst 16] [$rbp+0]
	.loc	2 686 1                 # /usr/include/c++/9/bits/stl_algo.h:686:1
	vmovups	-8(%rcx), %ymm0
	vmovups	%ymm0, (%rcx)
	.loc	2 1827 1                # /usr/include/c++/9/bits/stl_algo.h:1827:1
	addq	$4, %rdi
	addq	$-32, %rcx
	decq	%rbx
	jg	.LBB1_84
.Ltmp205:
# %bb.85:                               # %L.B3415.loopexit.i174
                                        #   in Loop: Header=BB1_76 Depth=1
	#DEBUG_VALUE: ....inline._M_current <- [DW_OP_plus_uconst 8, DW_OP_stack_value] $r14
	#DEBUG_VALUE: __insertion_sort:__last <- $r10
	#DEBUG_VALUE: __insertion_sort:__first <- $r13
	#DEBUG_VALUE: __sort:__first <- $r13
	#DEBUG_VALUE: nBlocks <- [DW_OP_constu 88, DW_OP_minus] [$rbp+0]
	#DEBUG_VALUE: sortBlocklistByDimension:dimension <- [DW_OP_constu 136, DW_OP_minus] [$rbp+0]
	#DEBUG_VALUE: sortBlocklistByDimension:blocks <- [DW_OP_constu 208, DW_OP_minus] [$rbp+0]
	#DEBUG_VALUE: sortBlocklistByDimension:columnBlockOffsets <- [DW_OP_constu 72, DW_OP_minus] [$rbp+0]
	#DEBUG_VALUE: sortBlocklistByDimension:columnNumBlocks <- [DW_OP_constu 128, DW_OP_minus] [$rbp+0]
	#DEBUG_VALUE: sortBlocklistByDimension:setColumnOffsets <- [DW_OP_constu 96, DW_OP_minus] [$rbp+0]
	#DEBUG_VALUE: sortBlocklistByDimension:setNumColumns <- [DW_OP_plus_uconst 16] [$rbp+0]
	.loc	2 686 1                 # /usr/include/c++/9/bits/stl_algo.h:686:1
	andq	$-4, %rdx
	subq	%rdx, %r9
	movq	-48(%rbp), %rbx         # 8-byte Reload
	testq	%r9, %r9
	je	.LBB1_91
.Ltmp206:
.LBB1_86:                               # %L.B3415.i177
                                        #   in Loop: Header=BB1_76 Depth=1
	#DEBUG_VALUE: ....inline._M_current <- [DW_OP_plus_uconst 8, DW_OP_stack_value] $r14
	#DEBUG_VALUE: __insertion_sort:__last <- $r10
	#DEBUG_VALUE: __insertion_sort:__first <- $r13
	#DEBUG_VALUE: __sort:__first <- $r13
	#DEBUG_VALUE: nBlocks <- [DW_OP_constu 88, DW_OP_minus] [$rbp+0]
	#DEBUG_VALUE: sortBlocklistByDimension:dimension <- [DW_OP_constu 136, DW_OP_minus] [$rbp+0]
	#DEBUG_VALUE: sortBlocklistByDimension:blocks <- [DW_OP_constu 208, DW_OP_minus] [$rbp+0]
	#DEBUG_VALUE: sortBlocklistByDimension:columnBlockOffsets <- [DW_OP_constu 72, DW_OP_minus] [$rbp+0]
	#DEBUG_VALUE: sortBlocklistByDimension:columnNumBlocks <- [DW_OP_constu 128, DW_OP_minus] [$rbp+0]
	#DEBUG_VALUE: sortBlocklistByDimension:setColumnOffsets <- [DW_OP_constu 96, DW_OP_minus] [$rbp+0]
	#DEBUG_VALUE: sortBlocklistByDimension:setNumColumns <- [DW_OP_plus_uconst 16] [$rbp+0]
	cmpq	$1, %r9
	je	.LBB1_90
.Ltmp207:
# %bb.87:                               # %L.B3415.i177
                                        #   in Loop: Header=BB1_76 Depth=1
	#DEBUG_VALUE: ....inline._M_current <- [DW_OP_plus_uconst 8, DW_OP_stack_value] $r14
	#DEBUG_VALUE: __insertion_sort:__last <- $r10
	#DEBUG_VALUE: __insertion_sort:__first <- $r13
	#DEBUG_VALUE: __sort:__first <- $r13
	#DEBUG_VALUE: nBlocks <- [DW_OP_constu 88, DW_OP_minus] [$rbp+0]
	#DEBUG_VALUE: sortBlocklistByDimension:dimension <- [DW_OP_constu 136, DW_OP_minus] [$rbp+0]
	#DEBUG_VALUE: sortBlocklistByDimension:blocks <- [DW_OP_constu 208, DW_OP_minus] [$rbp+0]
	#DEBUG_VALUE: sortBlocklistByDimension:columnBlockOffsets <- [DW_OP_constu 72, DW_OP_minus] [$rbp+0]
	#DEBUG_VALUE: sortBlocklistByDimension:columnNumBlocks <- [DW_OP_constu 128, DW_OP_minus] [$rbp+0]
	#DEBUG_VALUE: sortBlocklistByDimension:setColumnOffsets <- [DW_OP_constu 96, DW_OP_minus] [$rbp+0]
	#DEBUG_VALUE: sortBlocklistByDimension:setNumColumns <- [DW_OP_plus_uconst 16] [$rbp+0]
	cmpq	$2, %r9
	je	.LBB1_89
.Ltmp208:
# %bb.88:                               # %L.B3426.i178
                                        #   in Loop: Header=BB1_76 Depth=1
	#DEBUG_VALUE: ....inline._M_current <- [DW_OP_plus_uconst 8, DW_OP_stack_value] $r14
	#DEBUG_VALUE: __insertion_sort:__last <- $r10
	#DEBUG_VALUE: __insertion_sort:__first <- $r13
	#DEBUG_VALUE: __sort:__first <- $r13
	#DEBUG_VALUE: nBlocks <- [DW_OP_constu 88, DW_OP_minus] [$rbp+0]
	#DEBUG_VALUE: sortBlocklistByDimension:dimension <- [DW_OP_constu 136, DW_OP_minus] [$rbp+0]
	#DEBUG_VALUE: sortBlocklistByDimension:blocks <- [DW_OP_constu 208, DW_OP_minus] [$rbp+0]
	#DEBUG_VALUE: sortBlocklistByDimension:columnBlockOffsets <- [DW_OP_constu 72, DW_OP_minus] [$rbp+0]
	#DEBUG_VALUE: sortBlocklistByDimension:columnNumBlocks <- [DW_OP_constu 128, DW_OP_minus] [$rbp+0]
	#DEBUG_VALUE: sortBlocklistByDimension:setColumnOffsets <- [DW_OP_constu 96, DW_OP_minus] [$rbp+0]
	#DEBUG_VALUE: sortBlocklistByDimension:setNumColumns <- [DW_OP_plus_uconst 16] [$rbp+0]
	leaq	(,%rdi,8), %rcx
	movq	%r14, %rdx
	subq	%rcx, %rdx
	movq	-8(%rdx), %rcx
	movq	%rcx, (%rdx)
	incq	%rdi
.Ltmp209:
.LBB1_89:                               # %L.B3418.i180
                                        #   in Loop: Header=BB1_76 Depth=1
	#DEBUG_VALUE: ....inline._M_current <- [DW_OP_plus_uconst 8, DW_OP_stack_value] $r14
	#DEBUG_VALUE: __insertion_sort:__last <- $r10
	#DEBUG_VALUE: __insertion_sort:__first <- $r13
	#DEBUG_VALUE: __sort:__first <- $r13
	#DEBUG_VALUE: nBlocks <- [DW_OP_constu 88, DW_OP_minus] [$rbp+0]
	#DEBUG_VALUE: sortBlocklistByDimension:dimension <- [DW_OP_constu 136, DW_OP_minus] [$rbp+0]
	#DEBUG_VALUE: sortBlocklistByDimension:blocks <- [DW_OP_constu 208, DW_OP_minus] [$rbp+0]
	#DEBUG_VALUE: sortBlocklistByDimension:columnBlockOffsets <- [DW_OP_constu 72, DW_OP_minus] [$rbp+0]
	#DEBUG_VALUE: sortBlocklistByDimension:columnNumBlocks <- [DW_OP_constu 128, DW_OP_minus] [$rbp+0]
	#DEBUG_VALUE: sortBlocklistByDimension:setColumnOffsets <- [DW_OP_constu 96, DW_OP_minus] [$rbp+0]
	#DEBUG_VALUE: sortBlocklistByDimension:setNumColumns <- [DW_OP_plus_uconst 16] [$rbp+0]
	leaq	(,%rdi,8), %rcx
	movq	%r14, %rdx
	subq	%rcx, %rdx
	movq	-8(%rdx), %rcx
	movq	%rcx, (%rdx)
	incq	%rdi
.Ltmp210:
.LBB1_90:                               # %L.B3417.i182
                                        #   in Loop: Header=BB1_76 Depth=1
	#DEBUG_VALUE: ....inline._M_current <- [DW_OP_plus_uconst 8, DW_OP_stack_value] $r14
	#DEBUG_VALUE: __insertion_sort:__last <- $r10
	#DEBUG_VALUE: __insertion_sort:__first <- $r13
	#DEBUG_VALUE: __sort:__first <- $r13
	#DEBUG_VALUE: nBlocks <- [DW_OP_constu 88, DW_OP_minus] [$rbp+0]
	#DEBUG_VALUE: sortBlocklistByDimension:dimension <- [DW_OP_constu 136, DW_OP_minus] [$rbp+0]
	#DEBUG_VALUE: sortBlocklistByDimension:blocks <- [DW_OP_constu 208, DW_OP_minus] [$rbp+0]
	#DEBUG_VALUE: sortBlocklistByDimension:columnBlockOffsets <- [DW_OP_constu 72, DW_OP_minus] [$rbp+0]
	#DEBUG_VALUE: sortBlocklistByDimension:columnNumBlocks <- [DW_OP_constu 128, DW_OP_minus] [$rbp+0]
	#DEBUG_VALUE: sortBlocklistByDimension:setColumnOffsets <- [DW_OP_constu 96, DW_OP_minus] [$rbp+0]
	#DEBUG_VALUE: sortBlocklistByDimension:setNumColumns <- [DW_OP_plus_uconst 16] [$rbp+0]
	shlq	$3, %rdi
	movq	%r14, %rcx
	subq	%rdi, %rcx
	movq	-8(%rcx), %rdx
	movq	%rdx, (%rcx)
.Ltmp211:
.LBB1_91:                               # %L.B3414.i183
                                        #   in Loop: Header=BB1_76 Depth=1
	#DEBUG_VALUE: ....inline._M_current <- [DW_OP_plus_uconst 8, DW_OP_stack_value] $r14
	#DEBUG_VALUE: __insertion_sort:__last <- $r10
	#DEBUG_VALUE: __insertion_sort:__first <- $r13
	#DEBUG_VALUE: __sort:__first <- $r13
	#DEBUG_VALUE: nBlocks <- [DW_OP_constu 88, DW_OP_minus] [$rbp+0]
	#DEBUG_VALUE: sortBlocklistByDimension:dimension <- [DW_OP_constu 136, DW_OP_minus] [$rbp+0]
	#DEBUG_VALUE: sortBlocklistByDimension:blocks <- [DW_OP_constu 208, DW_OP_minus] [$rbp+0]
	#DEBUG_VALUE: sortBlocklistByDimension:columnBlockOffsets <- [DW_OP_constu 72, DW_OP_minus] [$rbp+0]
	#DEBUG_VALUE: sortBlocklistByDimension:columnNumBlocks <- [DW_OP_constu 128, DW_OP_minus] [$rbp+0]
	#DEBUG_VALUE: sortBlocklistByDimension:setColumnOffsets <- [DW_OP_constu 96, DW_OP_minus] [$rbp+0]
	#DEBUG_VALUE: sortBlocklistByDimension:setNumColumns <- [DW_OP_plus_uconst 16] [$rbp+0]
	.loc	2 396 1                 # /usr/include/c++/9/bits/stl_algo.h:396:1
	movl	%esi, (%r13)
	movq	-144(%rbp), %rdx        # 8-byte Reload
	jmp	.LBB1_75
.Ltmp212:
	.p2align	4, 0x90
.LBB1_92:                               #   in Loop: Header=BB1_94 Depth=1
	#DEBUG_VALUE: ....inline._M_current <- $r13
	#DEBUG_VALUE: __adjust_heap:__len <- $r11
	#DEBUG_VALUE: __len <- $r11
	#DEBUG_VALUE: __adjust_heap:__first <- $r13
	#DEBUG_VALUE: __adjust_heap:__value <- [DW_OP_LLVM_fragment 0 32] $r10d
	#DEBUG_VALUE: __adjust_heap:__value <- [DW_OP_LLVM_fragment 32 32] $r8d
	#DEBUG_VALUE: __topIndex <- 0
	#DEBUG_VALUE: __partial_sort:__first <- $r13
	#DEBUG_VALUE: ....inline._M_current <- $rsi
	#DEBUG_VALUE: __sort:__first <- $r13
	#DEBUG_VALUE: nBlocks <- [DW_OP_constu 88, DW_OP_minus] [$rbp+0]
	#DEBUG_VALUE: sortBlocklistByDimension:dimension <- [DW_OP_constu 136, DW_OP_minus] [$rbp+0]
	#DEBUG_VALUE: sortBlocklistByDimension:blocks <- [DW_OP_constu 208, DW_OP_minus] [$rbp+0]
	#DEBUG_VALUE: sortBlocklistByDimension:columnBlockOffsets <- [DW_OP_constu 72, DW_OP_minus] [$rbp+0]
	#DEBUG_VALUE: sortBlocklistByDimension:columnNumBlocks <- [DW_OP_constu 128, DW_OP_minus] [$rbp+0]
	#DEBUG_VALUE: sortBlocklistByDimension:setColumnOffsets <- [DW_OP_constu 96, DW_OP_minus] [$rbp+0]
	#DEBUG_VALUE: sortBlocklistByDimension:setNumColumns <- [DW_OP_plus_uconst 16] [$rbp+0]
	.loc	3 0 0 is_stmt 0         # /usr/include/c++/9/bits/stl_heap.h:0:0
	movq	%rbx, %rdx
.Ltmp213:
.LBB1_93:                               # %.noexc110
                                        #   in Loop: Header=BB1_94 Depth=1
	#DEBUG_VALUE: ....inline._M_current <- $r13
	#DEBUG_VALUE: __adjust_heap:__len <- $r11
	#DEBUG_VALUE: __len <- $r11
	#DEBUG_VALUE: __adjust_heap:__first <- $r13
	#DEBUG_VALUE: __adjust_heap:__value <- [DW_OP_LLVM_fragment 0 32] $r10d
	#DEBUG_VALUE: __adjust_heap:__value <- [DW_OP_LLVM_fragment 32 32] $r8d
	#DEBUG_VALUE: __topIndex <- 0
	#DEBUG_VALUE: __partial_sort:__first <- $r13
	#DEBUG_VALUE: ....inline._M_current <- $rsi
	#DEBUG_VALUE: __sort:__first <- $r13
	#DEBUG_VALUE: nBlocks <- [DW_OP_constu 88, DW_OP_minus] [$rbp+0]
	#DEBUG_VALUE: sortBlocklistByDimension:dimension <- [DW_OP_constu 136, DW_OP_minus] [$rbp+0]
	#DEBUG_VALUE: sortBlocklistByDimension:blocks <- [DW_OP_constu 208, DW_OP_minus] [$rbp+0]
	#DEBUG_VALUE: sortBlocklistByDimension:columnBlockOffsets <- [DW_OP_constu 72, DW_OP_minus] [$rbp+0]
	#DEBUG_VALUE: sortBlocklistByDimension:columnNumBlocks <- [DW_OP_constu 128, DW_OP_minus] [$rbp+0]
	#DEBUG_VALUE: sortBlocklistByDimension:setColumnOffsets <- [DW_OP_constu 96, DW_OP_minus] [$rbp+0]
	#DEBUG_VALUE: sortBlocklistByDimension:setNumColumns <- [DW_OP_plus_uconst 16] [$rbp+0]
	addq	$-8, %rsi
.Ltmp214:
	#DEBUG_VALUE: ....inline._M_current <- $rsi
	.loc	3 139 1 is_stmt 1       # /usr/include/c++/9/bits/stl_heap.h:139:1
	movl	%r10d, (%r13,%rdx,8)
	movl	%r8d, 4(%r13,%rdx,8)
.Ltmp215:
	.loc	2 408 1                 # /usr/include/c++/9/bits/stl_algo.h:408:1
	cmpq	$15, %r9
	jle	.LBB1_73
.Ltmp216:
.LBB1_94:                               # %L..inline.60276.i
                                        # =>This Loop Header: Depth=1
                                        #     Child Loop BB1_96 Depth 2
                                        #     Child Loop BB1_103 Depth 2
	#DEBUG_VALUE: __partial_sort:__first <- $r13
	#DEBUG_VALUE: ....inline._M_current <- $rsi
	#DEBUG_VALUE: __sort:__first <- $r13
	#DEBUG_VALUE: nBlocks <- [DW_OP_constu 88, DW_OP_minus] [$rbp+0]
	#DEBUG_VALUE: sortBlocklistByDimension:dimension <- [DW_OP_constu 136, DW_OP_minus] [$rbp+0]
	#DEBUG_VALUE: sortBlocklistByDimension:blocks <- [DW_OP_constu 208, DW_OP_minus] [$rbp+0]
	#DEBUG_VALUE: sortBlocklistByDimension:columnBlockOffsets <- [DW_OP_constu 72, DW_OP_minus] [$rbp+0]
	#DEBUG_VALUE: sortBlocklistByDimension:columnNumBlocks <- [DW_OP_constu 128, DW_OP_minus] [$rbp+0]
	#DEBUG_VALUE: sortBlocklistByDimension:setColumnOffsets <- [DW_OP_constu 96, DW_OP_minus] [$rbp+0]
	#DEBUG_VALUE: sortBlocklistByDimension:setNumColumns <- [DW_OP_plus_uconst 16] [$rbp+0]
	#DEBUG_VALUE: ....inline._M_current <- undef
	movl	-8(%rsi), %r10d
	movl	-4(%rsi), %r8d
	movl	(%r13), %ecx
	movl	%ecx, -8(%rsi)
	movl	4(%r13), %ecx
	movl	%ecx, -4(%rsi)
	movq	-104(%rbp), %rax        # 8-byte Reload
	leaq	(%rsi,%rax), %r9
	addq	$-8, %r9
	movq	%r9, %r11
	sarq	$3, %r11
.Ltmp217:
	#DEBUG_VALUE: __secondChild <- 0
	#DEBUG_VALUE: __topIndex <- 0
	#DEBUG_VALUE: __adjust_heap:__value <- [DW_OP_LLVM_fragment 32 32] $r8d
	#DEBUG_VALUE: __adjust_heap:__value <- [DW_OP_LLVM_fragment 0 32] $r10d
	#DEBUG_VALUE: __holeIndex <- 0
	#DEBUG_VALUE: __adjust_heap:__holeIndex <- 0
	#DEBUG_VALUE: __adjust_heap:__first <- $r13
	#DEBUG_VALUE: __len <- $r11
	#DEBUG_VALUE: __adjust_heap:__len <- $r11
	.loc	3 219 1                 # /usr/include/c++/9/bits/stl_heap.h:219:1
	leaq	-1(%r11), %rcx
	shrq	$63, %rcx
	leaq	(%rcx,%r11), %r15
	decq	%r15
	cmpq	$2, %r15
.Ltmp218:
	#DEBUG_VALUE: __adjust_heap:__comp <- undef
	jl	.LBB1_98
.Ltmp219:
# %bb.95:                               # %.noexc111.preheader
                                        #   in Loop: Header=BB1_94 Depth=1
	#DEBUG_VALUE: __adjust_heap:__len <- $r11
	#DEBUG_VALUE: __len <- $r11
	#DEBUG_VALUE: __adjust_heap:__first <- $r13
	#DEBUG_VALUE: __adjust_heap:__holeIndex <- 0
	#DEBUG_VALUE: __holeIndex <- 0
	#DEBUG_VALUE: __adjust_heap:__value <- [DW_OP_LLVM_fragment 0 32] $r10d
	#DEBUG_VALUE: __adjust_heap:__value <- [DW_OP_LLVM_fragment 32 32] $r8d
	#DEBUG_VALUE: __topIndex <- 0
	#DEBUG_VALUE: __secondChild <- 0
	#DEBUG_VALUE: __partial_sort:__first <- $r13
	#DEBUG_VALUE: ....inline._M_current <- $rsi
	#DEBUG_VALUE: __sort:__first <- $r13
	#DEBUG_VALUE: nBlocks <- [DW_OP_constu 88, DW_OP_minus] [$rbp+0]
	#DEBUG_VALUE: sortBlocklistByDimension:dimension <- [DW_OP_constu 136, DW_OP_minus] [$rbp+0]
	#DEBUG_VALUE: sortBlocklistByDimension:blocks <- [DW_OP_constu 208, DW_OP_minus] [$rbp+0]
	#DEBUG_VALUE: sortBlocklistByDimension:columnBlockOffsets <- [DW_OP_constu 72, DW_OP_minus] [$rbp+0]
	#DEBUG_VALUE: sortBlocklistByDimension:columnNumBlocks <- [DW_OP_constu 128, DW_OP_minus] [$rbp+0]
	#DEBUG_VALUE: sortBlocklistByDimension:setColumnOffsets <- [DW_OP_constu 96, DW_OP_minus] [$rbp+0]
	#DEBUG_VALUE: sortBlocklistByDimension:setNumColumns <- [DW_OP_plus_uconst 16] [$rbp+0]
	.loc	3 0 1 is_stmt 0         # /usr/include/c++/9/bits/stl_heap.h:0:1
	sarq	%r15
	xorl	%edi, %edi
.Ltmp220:
	.p2align	4, 0x90
.LBB1_96:                               # %.noexc111
                                        #   Parent Loop BB1_94 Depth=1
                                        # =>  This Inner Loop Header: Depth=2
	#DEBUG_VALUE: __adjust_heap:__len <- $r11
	#DEBUG_VALUE: __len <- $r11
	#DEBUG_VALUE: __adjust_heap:__first <- $r13
	#DEBUG_VALUE: __adjust_heap:__value <- [DW_OP_LLVM_fragment 0 32] $r10d
	#DEBUG_VALUE: __adjust_heap:__value <- [DW_OP_LLVM_fragment 32 32] $r8d
	#DEBUG_VALUE: __topIndex <- 0
	#DEBUG_VALUE: __partial_sort:__first <- $r13
	#DEBUG_VALUE: ....inline._M_current <- $rsi
	#DEBUG_VALUE: __sort:__first <- $r13
	#DEBUG_VALUE: nBlocks <- [DW_OP_constu 88, DW_OP_minus] [$rbp+0]
	#DEBUG_VALUE: sortBlocklistByDimension:dimension <- [DW_OP_constu 136, DW_OP_minus] [$rbp+0]
	#DEBUG_VALUE: sortBlocklistByDimension:blocks <- [DW_OP_constu 208, DW_OP_minus] [$rbp+0]
	#DEBUG_VALUE: sortBlocklistByDimension:columnBlockOffsets <- [DW_OP_constu 72, DW_OP_minus] [$rbp+0]
	#DEBUG_VALUE: sortBlocklistByDimension:columnNumBlocks <- [DW_OP_constu 128, DW_OP_minus] [$rbp+0]
	#DEBUG_VALUE: sortBlocklistByDimension:setColumnOffsets <- [DW_OP_constu 96, DW_OP_minus] [$rbp+0]
	#DEBUG_VALUE: sortBlocklistByDimension:setNumColumns <- [DW_OP_plus_uconst 16] [$rbp+0]
	#DEBUG_VALUE: __adjust_heap:__holeIndex <- $rdi
	#DEBUG_VALUE: __holeIndex <- $rdi
	#DEBUG_VALUE: __secondChild <- $rdi
	.loc	3 221 1 is_stmt 1       # /usr/include/c++/9/bits/stl_heap.h:221:1
	leaq	(%rdi,%rdi), %rax
	leaq	(%rdi,%rdi), %rdx
	addq	$2, %rdx
.Ltmp221:
	#DEBUG_VALUE: ....inline._M_current <- undef
	#DEBUG_VALUE: __secondChild <- $rdx
	.loc	3 222 1                 # /usr/include/c++/9/bits/stl_heap.h:222:1
	leaq	(%rdi,%rdi), %rbx
	incq	%rbx
.Ltmp222:
	#DEBUG_VALUE: r <- undef
	#DEBUG_VALUE: paircomparator:r <- undef
	#DEBUG_VALUE: l <- undef
	#DEBUG_VALUE: paircomparator:l <- undef
	.loc	1 36 1                  # vlasovsolver/cpu_acc_sort_blocks.cpp:36:1
	movl	16(%r13,%rax,8), %ecx
	cmpl	8(%r13,%rax,8), %ecx
.Ltmp223:
	.loc	3 143 1                 # /usr/include/c++/9/bits/stl_heap.h:143:1
	cmovaeq	%rdx, %rbx
.Ltmp224:
	#DEBUG_VALUE: .._T17716296_20518._M_current <- undef
	#DEBUG_VALUE: __secondChild <- $rbx
	.loc	3 396 1                 # /usr/include/c++/9/bits/stl_heap.h:396:1
	movl	(%r13,%rbx,8), %eax
	movl	%eax, (%r13,%rdi,8)
	.loc	3 397 1                 # /usr/include/c++/9/bits/stl_heap.h:397:1
	movl	4(%r13,%rbx,8), %eax
	movl	%eax, 4(%r13,%rdi,8)
.Ltmp225:
	#DEBUG_VALUE: __holeIndex <- $rbx
	#DEBUG_VALUE: __adjust_heap:__holeIndex <- $rbx
	.loc	3 0 0 is_stmt 0         # /usr/include/c++/9/bits/stl_heap.h:0:0
	movq	%rbx, %rdi
	.loc	3 227 1 is_stmt 1       # /usr/include/c++/9/bits/stl_heap.h:227:1
	cmpq	%r15, %rbx
	jl	.LBB1_96
.Ltmp226:
# %bb.97:                               # %L.B0191.i
                                        #   in Loop: Header=BB1_94 Depth=1
	#DEBUG_VALUE: __secondChild <- $rbx
	#DEBUG_VALUE: __holeIndex <- $rbx
	#DEBUG_VALUE: __adjust_heap:__holeIndex <- $rbx
	#DEBUG_VALUE: __adjust_heap:__len <- $r11
	#DEBUG_VALUE: __len <- $r11
	#DEBUG_VALUE: __adjust_heap:__first <- $r13
	#DEBUG_VALUE: __adjust_heap:__value <- [DW_OP_LLVM_fragment 0 32] $r10d
	#DEBUG_VALUE: __adjust_heap:__value <- [DW_OP_LLVM_fragment 32 32] $r8d
	#DEBUG_VALUE: __topIndex <- 0
	#DEBUG_VALUE: __partial_sort:__first <- $r13
	#DEBUG_VALUE: ....inline._M_current <- $rsi
	#DEBUG_VALUE: __sort:__first <- $r13
	#DEBUG_VALUE: nBlocks <- [DW_OP_constu 88, DW_OP_minus] [$rbp+0]
	#DEBUG_VALUE: sortBlocklistByDimension:dimension <- [DW_OP_constu 136, DW_OP_minus] [$rbp+0]
	#DEBUG_VALUE: sortBlocklistByDimension:blocks <- [DW_OP_constu 208, DW_OP_minus] [$rbp+0]
	#DEBUG_VALUE: sortBlocklistByDimension:columnBlockOffsets <- [DW_OP_constu 72, DW_OP_minus] [$rbp+0]
	#DEBUG_VALUE: sortBlocklistByDimension:columnNumBlocks <- [DW_OP_constu 128, DW_OP_minus] [$rbp+0]
	#DEBUG_VALUE: sortBlocklistByDimension:setColumnOffsets <- [DW_OP_constu 96, DW_OP_minus] [$rbp+0]
	#DEBUG_VALUE: sortBlocklistByDimension:setNumColumns <- [DW_OP_plus_uconst 16] [$rbp+0]
	#DEBUG_VALUE: ....inline._M_current <- undef
	#DEBUG_VALUE: __adjust_heap:__holeIndex <- $rbx
	#DEBUG_VALUE: __holeIndex <- $rbx
	#DEBUG_VALUE: __secondChild <- $rbx
	.loc	3 228 1                 # /usr/include/c++/9/bits/stl_heap.h:228:1
	testb	$8, %r9b
	je	.LBB1_99
	jmp	.LBB1_101
.Ltmp227:
	.p2align	4, 0x90
.LBB1_98:                               #   in Loop: Header=BB1_94 Depth=1
	#DEBUG_VALUE: __adjust_heap:__len <- $r11
	#DEBUG_VALUE: __len <- $r11
	#DEBUG_VALUE: __adjust_heap:__first <- $r13
	#DEBUG_VALUE: __adjust_heap:__holeIndex <- 0
	#DEBUG_VALUE: __holeIndex <- 0
	#DEBUG_VALUE: __adjust_heap:__value <- [DW_OP_LLVM_fragment 0 32] $r10d
	#DEBUG_VALUE: __adjust_heap:__value <- [DW_OP_LLVM_fragment 32 32] $r8d
	#DEBUG_VALUE: __topIndex <- 0
	#DEBUG_VALUE: __secondChild <- 0
	#DEBUG_VALUE: __partial_sort:__first <- $r13
	#DEBUG_VALUE: ....inline._M_current <- $rsi
	#DEBUG_VALUE: __sort:__first <- $r13
	#DEBUG_VALUE: nBlocks <- [DW_OP_constu 88, DW_OP_minus] [$rbp+0]
	#DEBUG_VALUE: sortBlocklistByDimension:dimension <- [DW_OP_constu 136, DW_OP_minus] [$rbp+0]
	#DEBUG_VALUE: sortBlocklistByDimension:blocks <- [DW_OP_constu 208, DW_OP_minus] [$rbp+0]
	#DEBUG_VALUE: sortBlocklistByDimension:columnBlockOffsets <- [DW_OP_constu 72, DW_OP_minus] [$rbp+0]
	#DEBUG_VALUE: sortBlocklistByDimension:columnNumBlocks <- [DW_OP_constu 128, DW_OP_minus] [$rbp+0]
	#DEBUG_VALUE: sortBlocklistByDimension:setColumnOffsets <- [DW_OP_constu 96, DW_OP_minus] [$rbp+0]
	#DEBUG_VALUE: sortBlocklistByDimension:setNumColumns <- [DW_OP_plus_uconst 16] [$rbp+0]
	.loc	3 0 0 is_stmt 0         # /usr/include/c++/9/bits/stl_heap.h:0:0
	xorl	%ebx, %ebx
.Ltmp228:
	#DEBUG_VALUE: ....inline._M_current <- undef
	#DEBUG_VALUE: __adjust_heap:__holeIndex <- $rbx
	#DEBUG_VALUE: __holeIndex <- $rbx
	#DEBUG_VALUE: __secondChild <- $rbx
	.loc	3 228 1                 # /usr/include/c++/9/bits/stl_heap.h:228:1
	testb	$8, %r9b
	jne	.LBB1_101
.Ltmp229:
.LBB1_99:                               # %L.B3244.i
                                        #   in Loop: Header=BB1_94 Depth=1
	#DEBUG_VALUE: __secondChild <- $rbx
	#DEBUG_VALUE: __holeIndex <- $rbx
	#DEBUG_VALUE: __adjust_heap:__holeIndex <- $rbx
	#DEBUG_VALUE: __adjust_heap:__len <- $r11
	#DEBUG_VALUE: __len <- $r11
	#DEBUG_VALUE: __adjust_heap:__first <- $r13
	#DEBUG_VALUE: __adjust_heap:__value <- [DW_OP_LLVM_fragment 0 32] $r10d
	#DEBUG_VALUE: __adjust_heap:__value <- [DW_OP_LLVM_fragment 32 32] $r8d
	#DEBUG_VALUE: __topIndex <- 0
	#DEBUG_VALUE: __partial_sort:__first <- $r13
	#DEBUG_VALUE: ....inline._M_current <- $rsi
	#DEBUG_VALUE: __sort:__first <- $r13
	#DEBUG_VALUE: nBlocks <- [DW_OP_constu 88, DW_OP_minus] [$rbp+0]
	#DEBUG_VALUE: sortBlocklistByDimension:dimension <- [DW_OP_constu 136, DW_OP_minus] [$rbp+0]
	#DEBUG_VALUE: sortBlocklistByDimension:blocks <- [DW_OP_constu 208, DW_OP_minus] [$rbp+0]
	#DEBUG_VALUE: sortBlocklistByDimension:columnBlockOffsets <- [DW_OP_constu 72, DW_OP_minus] [$rbp+0]
	#DEBUG_VALUE: sortBlocklistByDimension:columnNumBlocks <- [DW_OP_constu 128, DW_OP_minus] [$rbp+0]
	#DEBUG_VALUE: sortBlocklistByDimension:setColumnOffsets <- [DW_OP_constu 96, DW_OP_minus] [$rbp+0]
	#DEBUG_VALUE: sortBlocklistByDimension:setNumColumns <- [DW_OP_plus_uconst 16] [$rbp+0]
	leaq	-2(%r11), %rax
	shrq	$63, %rax
	addq	%r11, %rax
	addq	$-2, %rax
	sarq	%rax
	cmpq	%rax, %rbx
	jne	.LBB1_101
.Ltmp230:
# %bb.100:                              # %L.B3245.i
                                        #   in Loop: Header=BB1_94 Depth=1
	#DEBUG_VALUE: __secondChild <- $rbx
	#DEBUG_VALUE: __holeIndex <- $rbx
	#DEBUG_VALUE: __adjust_heap:__holeIndex <- $rbx
	#DEBUG_VALUE: __adjust_heap:__len <- $r11
	#DEBUG_VALUE: __len <- $r11
	#DEBUG_VALUE: __adjust_heap:__first <- $r13
	#DEBUG_VALUE: __adjust_heap:__value <- [DW_OP_LLVM_fragment 0 32] $r10d
	#DEBUG_VALUE: __adjust_heap:__value <- [DW_OP_LLVM_fragment 32 32] $r8d
	#DEBUG_VALUE: __topIndex <- 0
	#DEBUG_VALUE: __partial_sort:__first <- $r13
	#DEBUG_VALUE: ....inline._M_current <- $rsi
	#DEBUG_VALUE: __sort:__first <- $r13
	#DEBUG_VALUE: nBlocks <- [DW_OP_constu 88, DW_OP_minus] [$rbp+0]
	#DEBUG_VALUE: sortBlocklistByDimension:dimension <- [DW_OP_constu 136, DW_OP_minus] [$rbp+0]
	#DEBUG_VALUE: sortBlocklistByDimension:blocks <- [DW_OP_constu 208, DW_OP_minus] [$rbp+0]
	#DEBUG_VALUE: sortBlocklistByDimension:columnBlockOffsets <- [DW_OP_constu 72, DW_OP_minus] [$rbp+0]
	#DEBUG_VALUE: sortBlocklistByDimension:columnNumBlocks <- [DW_OP_constu 128, DW_OP_minus] [$rbp+0]
	#DEBUG_VALUE: sortBlocklistByDimension:setColumnOffsets <- [DW_OP_constu 96, DW_OP_minus] [$rbp+0]
	#DEBUG_VALUE: sortBlocklistByDimension:setNumColumns <- [DW_OP_plus_uconst 16] [$rbp+0]
	.loc	3 230 1 is_stmt 1       # /usr/include/c++/9/bits/stl_heap.h:230:1
	leaq	(%rbx,%rbx), %rax
.Ltmp231:
	#DEBUG_VALUE: .._T17714816_20518._M_current <- undef
	#DEBUG_VALUE: __secondChild <- [DW_OP_plus_uconst 2, DW_OP_stack_value] $rax
	.loc	3 396 1                 # /usr/include/c++/9/bits/stl_heap.h:396:1
	movl	8(%r13,%rax,8), %ecx
	movl	%ecx, (%r13,%rbx,8)
	.loc	3 397 1                 # /usr/include/c++/9/bits/stl_heap.h:397:1
	movl	12(%r13,%rax,8), %eax
.Ltmp232:
	movl	%eax, 4(%r13,%rbx,8)
.Ltmp233:
	#DEBUG_VALUE: __holeIndex <- undef
	#DEBUG_VALUE: __adjust_heap:__holeIndex <- undef
	.loc	3 231 1                 # /usr/include/c++/9/bits/stl_heap.h:231:1
	addq	%rbx, %rbx
	incq	%rbx
.Ltmp234:
.LBB1_101:                              # %L.B0195.i
                                        #   in Loop: Header=BB1_94 Depth=1
	#DEBUG_VALUE: __adjust_heap:__len <- $r11
	#DEBUG_VALUE: __len <- $r11
	#DEBUG_VALUE: __adjust_heap:__first <- $r13
	#DEBUG_VALUE: __adjust_heap:__value <- [DW_OP_LLVM_fragment 0 32] $r10d
	#DEBUG_VALUE: __adjust_heap:__value <- [DW_OP_LLVM_fragment 32 32] $r8d
	#DEBUG_VALUE: __topIndex <- 0
	#DEBUG_VALUE: __partial_sort:__first <- $r13
	#DEBUG_VALUE: ....inline._M_current <- $rsi
	#DEBUG_VALUE: __sort:__first <- $r13
	#DEBUG_VALUE: nBlocks <- [DW_OP_constu 88, DW_OP_minus] [$rbp+0]
	#DEBUG_VALUE: sortBlocklistByDimension:dimension <- [DW_OP_constu 136, DW_OP_minus] [$rbp+0]
	#DEBUG_VALUE: sortBlocklistByDimension:blocks <- [DW_OP_constu 208, DW_OP_minus] [$rbp+0]
	#DEBUG_VALUE: sortBlocklistByDimension:columnBlockOffsets <- [DW_OP_constu 72, DW_OP_minus] [$rbp+0]
	#DEBUG_VALUE: sortBlocklistByDimension:columnNumBlocks <- [DW_OP_constu 128, DW_OP_minus] [$rbp+0]
	#DEBUG_VALUE: sortBlocklistByDimension:setColumnOffsets <- [DW_OP_constu 96, DW_OP_minus] [$rbp+0]
	#DEBUG_VALUE: sortBlocklistByDimension:setNumColumns <- [DW_OP_plus_uconst 16] [$rbp+0]
	#DEBUG_VALUE: ....inline._M_current <- undef
	#DEBUG_VALUE: __adjust_heap:__holeIndex <- $rbx
	#DEBUG_VALUE: __holeIndex <- $rbx
	.loc	3 133 1                 # /usr/include/c++/9/bits/stl_heap.h:133:1
	testq	%rbx, %rbx
.Ltmp235:
	#DEBUG_VALUE: __cmp <- undef
	#DEBUG_VALUE: ....inline._M_current <- $r13
	jle	.LBB1_92
.Ltmp236:
# %bb.102:                              # %L..inline.61271.preheader.i
                                        #   in Loop: Header=BB1_94 Depth=1
	#DEBUG_VALUE: ....inline._M_current <- $r13
	#DEBUG_VALUE: __holeIndex <- $rbx
	#DEBUG_VALUE: __adjust_heap:__holeIndex <- $rbx
	#DEBUG_VALUE: __adjust_heap:__len <- $r11
	#DEBUG_VALUE: __len <- $r11
	#DEBUG_VALUE: __adjust_heap:__first <- $r13
	#DEBUG_VALUE: __adjust_heap:__value <- [DW_OP_LLVM_fragment 0 32] $r10d
	#DEBUG_VALUE: __adjust_heap:__value <- [DW_OP_LLVM_fragment 32 32] $r8d
	#DEBUG_VALUE: __topIndex <- 0
	#DEBUG_VALUE: __partial_sort:__first <- $r13
	#DEBUG_VALUE: ....inline._M_current <- $rsi
	#DEBUG_VALUE: __sort:__first <- $r13
	#DEBUG_VALUE: nBlocks <- [DW_OP_constu 88, DW_OP_minus] [$rbp+0]
	#DEBUG_VALUE: sortBlocklistByDimension:dimension <- [DW_OP_constu 136, DW_OP_minus] [$rbp+0]
	#DEBUG_VALUE: sortBlocklistByDimension:blocks <- [DW_OP_constu 208, DW_OP_minus] [$rbp+0]
	#DEBUG_VALUE: sortBlocklistByDimension:columnBlockOffsets <- [DW_OP_constu 72, DW_OP_minus] [$rbp+0]
	#DEBUG_VALUE: sortBlocklistByDimension:columnNumBlocks <- [DW_OP_constu 128, DW_OP_minus] [$rbp+0]
	#DEBUG_VALUE: sortBlocklistByDimension:setColumnOffsets <- [DW_OP_constu 96, DW_OP_minus] [$rbp+0]
	#DEBUG_VALUE: sortBlocklistByDimension:setNumColumns <- [DW_OP_plus_uconst 16] [$rbp+0]
	.loc	3 237 1                 # /usr/include/c++/9/bits/stl_heap.h:237:1
	leaq	-1(%rbx), %rax
	movq	%rax, %rcx
	shrq	$63, %rcx
	addq	%rax, %rcx
.Ltmp237:
	.p2align	4, 0x90
.LBB1_103:                              # %.noexc112
                                        #   Parent Loop BB1_94 Depth=1
                                        # =>  This Inner Loop Header: Depth=2
	#DEBUG_VALUE: ....inline._M_current <- $r13
	#DEBUG_VALUE: __adjust_heap:__len <- $r11
	#DEBUG_VALUE: __len <- $r11
	#DEBUG_VALUE: __adjust_heap:__first <- $r13
	#DEBUG_VALUE: __adjust_heap:__value <- [DW_OP_LLVM_fragment 0 32] $r10d
	#DEBUG_VALUE: __adjust_heap:__value <- [DW_OP_LLVM_fragment 32 32] $r8d
	#DEBUG_VALUE: __topIndex <- 0
	#DEBUG_VALUE: __partial_sort:__first <- $r13
	#DEBUG_VALUE: ....inline._M_current <- $rsi
	#DEBUG_VALUE: __sort:__first <- $r13
	#DEBUG_VALUE: nBlocks <- [DW_OP_constu 88, DW_OP_minus] [$rbp+0]
	#DEBUG_VALUE: sortBlocklistByDimension:dimension <- [DW_OP_constu 136, DW_OP_minus] [$rbp+0]
	#DEBUG_VALUE: sortBlocklistByDimension:blocks <- [DW_OP_constu 208, DW_OP_minus] [$rbp+0]
	#DEBUG_VALUE: sortBlocklistByDimension:columnBlockOffsets <- [DW_OP_constu 72, DW_OP_minus] [$rbp+0]
	#DEBUG_VALUE: sortBlocklistByDimension:columnNumBlocks <- [DW_OP_constu 128, DW_OP_minus] [$rbp+0]
	#DEBUG_VALUE: sortBlocklistByDimension:setColumnOffsets <- [DW_OP_constu 96, DW_OP_minus] [$rbp+0]
	#DEBUG_VALUE: sortBlocklistByDimension:setNumColumns <- [DW_OP_plus_uconst 16] [$rbp+0]
	.loc	3 0 0 is_stmt 0         # /usr/include/c++/9/bits/stl_heap.h:0:0
	movq	%rcx, %rdx
	sarq	%rdx
.Ltmp238:
	#DEBUG_VALUE: r <- undef
	#DEBUG_VALUE: paircomparator:r <- undef
	#DEBUG_VALUE: l <- undef
	#DEBUG_VALUE: paircomparator:l <- undef
	.loc	1 36 1 is_stmt 1        # vlasovsolver/cpu_acc_sort_blocks.cpp:36:1
	movl	(%r13,%rdx,8), %edi
	cmpl	%r10d, %edi
.Ltmp239:
	.loc	3 133 1                 # /usr/include/c++/9/bits/stl_heap.h:133:1
	jae	.LBB1_92
.Ltmp240:
# %bb.104:                              # %L.B3246.i
                                        #   in Loop: Header=BB1_103 Depth=2
	#DEBUG_VALUE: ....inline._M_current <- $r13
	#DEBUG_VALUE: __adjust_heap:__len <- $r11
	#DEBUG_VALUE: __len <- $r11
	#DEBUG_VALUE: __adjust_heap:__first <- $r13
	#DEBUG_VALUE: __adjust_heap:__value <- [DW_OP_LLVM_fragment 0 32] $r10d
	#DEBUG_VALUE: __adjust_heap:__value <- [DW_OP_LLVM_fragment 32 32] $r8d
	#DEBUG_VALUE: __topIndex <- 0
	#DEBUG_VALUE: __partial_sort:__first <- $r13
	#DEBUG_VALUE: ....inline._M_current <- $rsi
	#DEBUG_VALUE: __sort:__first <- $r13
	#DEBUG_VALUE: nBlocks <- [DW_OP_constu 88, DW_OP_minus] [$rbp+0]
	#DEBUG_VALUE: sortBlocklistByDimension:dimension <- [DW_OP_constu 136, DW_OP_minus] [$rbp+0]
	#DEBUG_VALUE: sortBlocklistByDimension:blocks <- [DW_OP_constu 208, DW_OP_minus] [$rbp+0]
	#DEBUG_VALUE: sortBlocklistByDimension:columnBlockOffsets <- [DW_OP_constu 72, DW_OP_minus] [$rbp+0]
	#DEBUG_VALUE: sortBlocklistByDimension:columnNumBlocks <- [DW_OP_constu 128, DW_OP_minus] [$rbp+0]
	#DEBUG_VALUE: sortBlocklistByDimension:setColumnOffsets <- [DW_OP_constu 96, DW_OP_minus] [$rbp+0]
	#DEBUG_VALUE: sortBlocklistByDimension:setNumColumns <- [DW_OP_plus_uconst 16] [$rbp+0]
	#DEBUG_VALUE: ....inline._M_current <- undef
	.loc	3 135 1                 # /usr/include/c++/9/bits/stl_heap.h:135:1
	movl	%edi, (%r13,%rbx,8)
	movl	4(%r13,%rdx,8), %eax
	movl	%eax, 4(%r13,%rbx,8)
	.loc	3 136 1                 # /usr/include/c++/9/bits/stl_heap.h:136:1
	leaq	-1(%rdx), %rax
	shrq	$63, %rax
	addq	%rdx, %rax
	decq	%rax
.Ltmp241:
	.loc	3 0 0 is_stmt 0         # /usr/include/c++/9/bits/stl_heap.h:0:0
	movq	%rdx, %rbx
.Ltmp242:
	.loc	3 137 1 is_stmt 1       # /usr/include/c++/9/bits/stl_heap.h:137:1
	cmpq	$1, %rcx
	movq	%rax, %rcx
	jg	.LBB1_103
	jmp	.LBB1_93
.Ltmp243:
.LBB1_106:                              # %.noexc94
	#DEBUG_VALUE: __sort:__first <- $r13
	#DEBUG_VALUE: nBlocks <- [DW_OP_constu 88, DW_OP_minus] [$rbp+0]
	#DEBUG_VALUE: sortBlocklistByDimension:dimension <- [DW_OP_constu 136, DW_OP_minus] [$rbp+0]
	#DEBUG_VALUE: sortBlocklistByDimension:blocks <- [DW_OP_constu 208, DW_OP_minus] [$rbp+0]
	#DEBUG_VALUE: sortBlocklistByDimension:columnBlockOffsets <- [DW_OP_constu 72, DW_OP_minus] [$rbp+0]
	#DEBUG_VALUE: sortBlocklistByDimension:columnNumBlocks <- [DW_OP_constu 128, DW_OP_minus] [$rbp+0]
	#DEBUG_VALUE: sortBlocklistByDimension:setColumnOffsets <- [DW_OP_constu 96, DW_OP_minus] [$rbp+0]
	#DEBUG_VALUE: sortBlocklistByDimension:setNumColumns <- [DW_OP_plus_uconst 16] [$rbp+0]
	#DEBUG_VALUE: ....inline._M_current <- $r10
	.loc	2 1885 1                # /usr/include/c++/9/bits/stl_algo.h:1885:1
	cmpq	%rbx, %r10
	movq	-56(%rbp), %r14         # 8-byte Reload
	je	.LBB1_113
.Ltmp244:
# %bb.107:                              # %.noexc95.preheader
	#DEBUG_VALUE: ....inline._M_current <- $r10
	#DEBUG_VALUE: __sort:__first <- $r13
	#DEBUG_VALUE: nBlocks <- [DW_OP_constu 88, DW_OP_minus] [$rbp+0]
	#DEBUG_VALUE: sortBlocklistByDimension:dimension <- [DW_OP_constu 136, DW_OP_minus] [$rbp+0]
	#DEBUG_VALUE: sortBlocklistByDimension:blocks <- [DW_OP_constu 208, DW_OP_minus] [$rbp+0]
	#DEBUG_VALUE: sortBlocklistByDimension:columnBlockOffsets <- [DW_OP_constu 72, DW_OP_minus] [$rbp+0]
	#DEBUG_VALUE: sortBlocklistByDimension:columnNumBlocks <- [DW_OP_constu 128, DW_OP_minus] [$rbp+0]
	#DEBUG_VALUE: sortBlocklistByDimension:setColumnOffsets <- [DW_OP_constu 96, DW_OP_minus] [$rbp+0]
	#DEBUG_VALUE: sortBlocklistByDimension:setNumColumns <- [DW_OP_plus_uconst 16] [$rbp+0]
	addq	$132, %r13
.Ltmp245:
	.loc	2 0 1 is_stmt 0         # /usr/include/c++/9/bits/stl_algo.h:0:1
	jmp	.LBB1_109
.Ltmp246:
	.p2align	4, 0x90
.LBB1_108:                              # %L.N0002.i
                                        #   in Loop: Header=BB1_109 Depth=1
	#DEBUG_VALUE: ....inline._M_current <- [DW_OP_constu 8, DW_OP_minus, DW_OP_stack_value] $r10
	#DEBUG_VALUE: nBlocks <- [DW_OP_constu 88, DW_OP_minus] [$rbp+0]
	#DEBUG_VALUE: sortBlocklistByDimension:dimension <- [DW_OP_constu 136, DW_OP_minus] [$rbp+0]
	#DEBUG_VALUE: sortBlocklistByDimension:blocks <- [DW_OP_constu 208, DW_OP_minus] [$rbp+0]
	#DEBUG_VALUE: sortBlocklistByDimension:columnBlockOffsets <- [DW_OP_constu 72, DW_OP_minus] [$rbp+0]
	#DEBUG_VALUE: sortBlocklistByDimension:columnNumBlocks <- [DW_OP_constu 128, DW_OP_minus] [$rbp+0]
	#DEBUG_VALUE: sortBlocklistByDimension:setColumnOffsets <- [DW_OP_constu 96, DW_OP_minus] [$rbp+0]
	#DEBUG_VALUE: sortBlocklistByDimension:setNumColumns <- [DW_OP_plus_uconst 16] [$rbp+0]
	#DEBUG_VALUE: ....inline._M_current <- $rsi
	.loc	2 1885 1                # /usr/include/c++/9/bits/stl_algo.h:1885:1
	movl	%ecx, (%rsi)
	movl	%edx, 4(%rsi)
	addq	$8, %r10
.Ltmp247:
	#DEBUG_VALUE: ....inline._M_current <- $r10
	addq	$8, %r13
	cmpq	%rbx, %r10
	je	.LBB1_113
.Ltmp248:
.LBB1_109:                              # %.noexc95
                                        # =>This Loop Header: Depth=1
                                        #     Child Loop BB1_111 Depth 2
	#DEBUG_VALUE: ....inline._M_current <- $r10
	#DEBUG_VALUE: nBlocks <- [DW_OP_constu 88, DW_OP_minus] [$rbp+0]
	#DEBUG_VALUE: sortBlocklistByDimension:dimension <- [DW_OP_constu 136, DW_OP_minus] [$rbp+0]
	#DEBUG_VALUE: sortBlocklistByDimension:blocks <- [DW_OP_constu 208, DW_OP_minus] [$rbp+0]
	#DEBUG_VALUE: sortBlocklistByDimension:columnBlockOffsets <- [DW_OP_constu 72, DW_OP_minus] [$rbp+0]
	#DEBUG_VALUE: sortBlocklistByDimension:columnNumBlocks <- [DW_OP_constu 128, DW_OP_minus] [$rbp+0]
	#DEBUG_VALUE: sortBlocklistByDimension:setColumnOffsets <- [DW_OP_constu 96, DW_OP_minus] [$rbp+0]
	#DEBUG_VALUE: sortBlocklistByDimension:setNumColumns <- [DW_OP_plus_uconst 16] [$rbp+0]
	#DEBUG_VALUE: ....inline._M_current <- $r10
	#DEBUG_VALUE: ....inline._M_current <- [DW_OP_constu 8, DW_OP_minus, DW_OP_stack_value] $r10
	#DEBUG_VALUE: paircomparator:l <- undef
	#DEBUG_VALUE: l <- undef
	#DEBUG_VALUE: paircomparator:r <- [DW_OP_constu 8, DW_OP_minus, DW_OP_stack_value] $r10
	#DEBUG_VALUE: r <- [DW_OP_constu 8, DW_OP_minus, DW_OP_stack_value] $r10
	.loc	1 36 1 is_stmt 1        # vlasovsolver/cpu_acc_sort_blocks.cpp:36:1
	movl	-8(%r10), %edi
.Ltmp249:
	.loc	2 1885 1                # /usr/include/c++/9/bits/stl_algo.h:1885:1
	movl	(%r10), %ecx
	movl	4(%r10), %edx
	movq	%r10, %rsi
.Ltmp250:
	.loc	1 36 1                  # vlasovsolver/cpu_acc_sort_blocks.cpp:36:1
	cmpl	%edi, %ecx
.Ltmp251:
	#DEBUG_VALUE: ....inline._M_comp <- undef
	#DEBUG_VALUE: r <- [DW_OP_constu 8, DW_OP_minus, DW_OP_stack_value] $r10
	#DEBUG_VALUE: paircomparator:r <- [DW_OP_constu 8, DW_OP_minus, DW_OP_stack_value] $r10
	.loc	2 1885 1                # /usr/include/c++/9/bits/stl_algo.h:1885:1
	jae	.LBB1_108
.Ltmp252:
# %bb.110:                              # %.noexc96.preheader
                                        #   in Loop: Header=BB1_109 Depth=1
	#DEBUG_VALUE: ....inline._M_current <- [DW_OP_constu 8, DW_OP_minus, DW_OP_stack_value] $r10
	#DEBUG_VALUE: nBlocks <- [DW_OP_constu 88, DW_OP_minus] [$rbp+0]
	#DEBUG_VALUE: sortBlocklistByDimension:dimension <- [DW_OP_constu 136, DW_OP_minus] [$rbp+0]
	#DEBUG_VALUE: sortBlocklistByDimension:blocks <- [DW_OP_constu 208, DW_OP_minus] [$rbp+0]
	#DEBUG_VALUE: sortBlocklistByDimension:columnBlockOffsets <- [DW_OP_constu 72, DW_OP_minus] [$rbp+0]
	#DEBUG_VALUE: sortBlocklistByDimension:columnNumBlocks <- [DW_OP_constu 128, DW_OP_minus] [$rbp+0]
	#DEBUG_VALUE: sortBlocklistByDimension:setColumnOffsets <- [DW_OP_constu 96, DW_OP_minus] [$rbp+0]
	#DEBUG_VALUE: sortBlocklistByDimension:setNumColumns <- [DW_OP_plus_uconst 16] [$rbp+0]
	#DEBUG_VALUE: ....inline._M_current <- [DW_OP_constu 8, DW_OP_minus, DW_OP_stack_value] $r10
	movq	%r13, %rsi
.Ltmp253:
	.p2align	4, 0x90
.LBB1_111:                              # %.noexc96
                                        #   Parent Loop BB1_109 Depth=1
                                        # =>  This Inner Loop Header: Depth=2
	#DEBUG_VALUE: ....inline._M_current <- [DW_OP_constu 8, DW_OP_minus, DW_OP_stack_value] $r10
	#DEBUG_VALUE: nBlocks <- [DW_OP_constu 88, DW_OP_minus] [$rbp+0]
	#DEBUG_VALUE: sortBlocklistByDimension:dimension <- [DW_OP_constu 136, DW_OP_minus] [$rbp+0]
	#DEBUG_VALUE: sortBlocklistByDimension:blocks <- [DW_OP_constu 208, DW_OP_minus] [$rbp+0]
	#DEBUG_VALUE: sortBlocklistByDimension:columnBlockOffsets <- [DW_OP_constu 72, DW_OP_minus] [$rbp+0]
	#DEBUG_VALUE: sortBlocklistByDimension:columnNumBlocks <- [DW_OP_constu 128, DW_OP_minus] [$rbp+0]
	#DEBUG_VALUE: sortBlocklistByDimension:setColumnOffsets <- [DW_OP_constu 96, DW_OP_minus] [$rbp+0]
	#DEBUG_VALUE: sortBlocklistByDimension:setNumColumns <- [DW_OP_plus_uconst 16] [$rbp+0]
	movl	%edi, -4(%rsi)
.Ltmp254:
	#DEBUG_VALUE: r <- [DW_OP_constu 8, DW_OP_minus, DW_OP_stack_value] undef
	#DEBUG_VALUE: paircomparator:r <- [DW_OP_constu 8, DW_OP_minus, DW_OP_stack_value] undef
	#DEBUG_VALUE: l <- undef
	#DEBUG_VALUE: paircomparator:l <- undef
	#DEBUG_VALUE: ....inline._M_current <- [DW_OP_constu 8, DW_OP_minus, DW_OP_stack_value] undef
	.loc	1 36 1                  # vlasovsolver/cpu_acc_sort_blocks.cpp:36:1
	movl	-20(%rsi), %edi
.Ltmp255:
	.loc	2 1885 1                # /usr/include/c++/9/bits/stl_algo.h:1885:1
	movl	-8(%rsi), %eax
	movl	%eax, (%rsi)
	addq	$-8, %rsi
.Ltmp256:
	.loc	1 36 1                  # vlasovsolver/cpu_acc_sort_blocks.cpp:36:1
	cmpl	%edi, %ecx
.Ltmp257:
	.loc	2 1885 1                # /usr/include/c++/9/bits/stl_algo.h:1885:1
	jb	.LBB1_111
.Ltmp258:
# %bb.112:                              # %L.N0002.i.loopexit
                                        #   in Loop: Header=BB1_109 Depth=1
	#DEBUG_VALUE: ....inline._M_current <- [DW_OP_constu 8, DW_OP_minus, DW_OP_stack_value] $r10
	#DEBUG_VALUE: nBlocks <- [DW_OP_constu 88, DW_OP_minus] [$rbp+0]
	#DEBUG_VALUE: sortBlocklistByDimension:dimension <- [DW_OP_constu 136, DW_OP_minus] [$rbp+0]
	#DEBUG_VALUE: sortBlocklistByDimension:blocks <- [DW_OP_constu 208, DW_OP_minus] [$rbp+0]
	#DEBUG_VALUE: sortBlocklistByDimension:columnBlockOffsets <- [DW_OP_constu 72, DW_OP_minus] [$rbp+0]
	#DEBUG_VALUE: sortBlocklistByDimension:columnNumBlocks <- [DW_OP_constu 128, DW_OP_minus] [$rbp+0]
	#DEBUG_VALUE: sortBlocklistByDimension:setColumnOffsets <- [DW_OP_constu 96, DW_OP_minus] [$rbp+0]
	#DEBUG_VALUE: sortBlocklistByDimension:setNumColumns <- [DW_OP_plus_uconst 16] [$rbp+0]
	addq	$-4, %rsi
	jmp	.LBB1_108
.Ltmp259:
.LBB1_113:                              # %L.B1784
	#DEBUG_VALUE: nBlocks <- [DW_OP_constu 88, DW_OP_minus] [$rbp+0]
	#DEBUG_VALUE: sortBlocklistByDimension:dimension <- [DW_OP_constu 136, DW_OP_minus] [$rbp+0]
	#DEBUG_VALUE: sortBlocklistByDimension:blocks <- [DW_OP_constu 208, DW_OP_minus] [$rbp+0]
	#DEBUG_VALUE: sortBlocklistByDimension:columnBlockOffsets <- [DW_OP_constu 72, DW_OP_minus] [$rbp+0]
	#DEBUG_VALUE: sortBlocklistByDimension:columnNumBlocks <- [DW_OP_constu 128, DW_OP_minus] [$rbp+0]
	#DEBUG_VALUE: sortBlocklistByDimension:setColumnOffsets <- [DW_OP_constu 96, DW_OP_minus] [$rbp+0]
	#DEBUG_VALUE: sortBlocklistByDimension:setNumColumns <- [DW_OP_plus_uconst 16] [$rbp+0]
	#DEBUG_VALUE: setNumColumns <- undef
	.loc	2 0 1 is_stmt 0         # /usr/include/c++/9/bits/stl_algo.h:0:1
	movabsq	$2305843009213693951, %rdx # imm = 0x1FFFFFFFFFFFFFFF
	.loc	1 1201 1 is_stmt 1      # vlasovsolver/cpu_acc_sort_blocks.cpp:1201:1
	leaq	8(%r12), %rax
	movq	%rax, -112(%rbp)        # 8-byte Spill
	movq	8(%r12), %rbx
	leaq	16(%r12), %rax
	movq	%rax, -192(%rbp)        # 8-byte Spill
	cmpq	16(%r12), %rbx
	je	.LBB1_116
.Ltmp260:
# %bb.114:                              # %L.B1785
	#DEBUG_VALUE: nBlocks <- [DW_OP_constu 88, DW_OP_minus] [$rbp+0]
	#DEBUG_VALUE: sortBlocklistByDimension:dimension <- [DW_OP_constu 136, DW_OP_minus] [$rbp+0]
	#DEBUG_VALUE: sortBlocklistByDimension:blocks <- [DW_OP_constu 208, DW_OP_minus] [$rbp+0]
	#DEBUG_VALUE: sortBlocklistByDimension:columnBlockOffsets <- [DW_OP_constu 72, DW_OP_minus] [$rbp+0]
	#DEBUG_VALUE: sortBlocklistByDimension:columnNumBlocks <- [DW_OP_constu 128, DW_OP_minus] [$rbp+0]
	#DEBUG_VALUE: sortBlocklistByDimension:setColumnOffsets <- [DW_OP_constu 96, DW_OP_minus] [$rbp+0]
	#DEBUG_VALUE: sortBlocklistByDimension:setNumColumns <- [DW_OP_plus_uconst 16] [$rbp+0]
	testq	%rbx, %rbx
	movq	-96(%rbp), %rdx         # 8-byte Reload
	je	.LBB1_129
.Ltmp261:
# %bb.115:                              # %L.B1786
	#DEBUG_VALUE: nBlocks <- [DW_OP_constu 88, DW_OP_minus] [$rbp+0]
	#DEBUG_VALUE: sortBlocklistByDimension:dimension <- [DW_OP_constu 136, DW_OP_minus] [$rbp+0]
	#DEBUG_VALUE: sortBlocklistByDimension:blocks <- [DW_OP_constu 208, DW_OP_minus] [$rbp+0]
	#DEBUG_VALUE: sortBlocklistByDimension:columnBlockOffsets <- [DW_OP_constu 72, DW_OP_minus] [$rbp+0]
	#DEBUG_VALUE: sortBlocklistByDimension:columnNumBlocks <- [DW_OP_constu 128, DW_OP_minus] [$rbp+0]
	#DEBUG_VALUE: sortBlocklistByDimension:setColumnOffsets <- [DW_OP_constu 96, DW_OP_minus] [$rbp+0]
	#DEBUG_VALUE: sortBlocklistByDimension:setNumColumns <- [DW_OP_plus_uconst 16] [$rbp+0]
	movl	$0, (%rbx)
	movq	-112(%rbp), %rcx        # 8-byte Reload
	movq	(%rcx), %rax
	jmp	.LBB1_130
.Ltmp262:
.LBB1_116:                              # %L..inline.41245
	#DEBUG_VALUE: nBlocks <- [DW_OP_constu 88, DW_OP_minus] [$rbp+0]
	#DEBUG_VALUE: sortBlocklistByDimension:dimension <- [DW_OP_constu 136, DW_OP_minus] [$rbp+0]
	#DEBUG_VALUE: sortBlocklistByDimension:blocks <- [DW_OP_constu 208, DW_OP_minus] [$rbp+0]
	#DEBUG_VALUE: sortBlocklistByDimension:columnBlockOffsets <- [DW_OP_constu 72, DW_OP_minus] [$rbp+0]
	#DEBUG_VALUE: sortBlocklistByDimension:columnNumBlocks <- [DW_OP_constu 128, DW_OP_minus] [$rbp+0]
	#DEBUG_VALUE: sortBlocklistByDimension:setColumnOffsets <- [DW_OP_constu 96, DW_OP_minus] [$rbp+0]
	#DEBUG_VALUE: sortBlocklistByDimension:setNumColumns <- [DW_OP_plus_uconst 16] [$rbp+0]
	#DEBUG_VALUE: _M_realloc_insert: <- [DW_OP_constu 72, DW_OP_minus] [$rbp+0]
	#DEBUG_VALUE:  <- [DW_OP_constu 72, DW_OP_minus] [$rbp+0]
	#DEBUG_VALUE: _M_realloc_insert:__position <- $rbx
	.file	4 "/usr/include/c++/9/bits/vector.tcc"
	.loc	4 1755 1                # /usr/include/c++/9/bits/vector.tcc:1755:1
	movq	(%r12), %r12
	subq	%r12, %rbx
.Ltmp263:
	movq	%rbx, %rcx
	sarq	$2, %rcx
	cmpq	%rdx, %rcx
	je	.LBB1_283
.Ltmp264:
# %bb.117:                              # %L..inline.45457.i
	#DEBUG_VALUE:  <- [DW_OP_constu 72, DW_OP_minus] [$rbp+0]
	#DEBUG_VALUE: _M_realloc_insert: <- [DW_OP_constu 72, DW_OP_minus] [$rbp+0]
	#DEBUG_VALUE: nBlocks <- [DW_OP_constu 88, DW_OP_minus] [$rbp+0]
	#DEBUG_VALUE: sortBlocklistByDimension:dimension <- [DW_OP_constu 136, DW_OP_minus] [$rbp+0]
	#DEBUG_VALUE: sortBlocklistByDimension:blocks <- [DW_OP_constu 208, DW_OP_minus] [$rbp+0]
	#DEBUG_VALUE: sortBlocklistByDimension:columnBlockOffsets <- [DW_OP_constu 72, DW_OP_minus] [$rbp+0]
	#DEBUG_VALUE: sortBlocklistByDimension:columnNumBlocks <- [DW_OP_constu 128, DW_OP_minus] [$rbp+0]
	#DEBUG_VALUE: sortBlocklistByDimension:setColumnOffsets <- [DW_OP_constu 96, DW_OP_minus] [$rbp+0]
	#DEBUG_VALUE: sortBlocklistByDimension:setNumColumns <- [DW_OP_plus_uconst 16] [$rbp+0]
	#DEBUG_VALUE: _M_realloc_insert:__position <- undef
	.loc	4 1758 1                # /usr/include/c++/9/bits/vector.tcc:1758:1
	testq	%rcx, %rcx
	movl	$1, %eax
	cmovneq	%rcx, %rax
.Ltmp265:
	#DEBUG_VALUE: __old_finish <- undef
	#DEBUG_VALUE: __old_start <- $r12
	.loc	4 0 1 is_stmt 0         # /usr/include/c++/9/bits/vector.tcc:0:1
	movq	%rdx, %r13
	.loc	4 1758 1                # /usr/include/c++/9/bits/vector.tcc:1758:1
	addq	%rcx, %rax
.Ltmp266:
	#DEBUG_VALUE: __elems_before <- [DW_OP_constu 2, DW_OP_shra, DW_OP_stack_value] $rbx
	.loc	4 1759 1 is_stmt 1      # /usr/include/c++/9/bits/vector.tcc:1759:1
	jb	.LBB1_120
.Ltmp267:
# %bb.118:                              # %L..inline.45457.i
	#DEBUG_VALUE: __elems_before <- [DW_OP_constu 2, DW_OP_shra, DW_OP_stack_value] $rbx
	#DEBUG_VALUE: __old_start <- $r12
	#DEBUG_VALUE:  <- [DW_OP_constu 72, DW_OP_minus] [$rbp+0]
	#DEBUG_VALUE: _M_realloc_insert: <- [DW_OP_constu 72, DW_OP_minus] [$rbp+0]
	#DEBUG_VALUE: nBlocks <- [DW_OP_constu 88, DW_OP_minus] [$rbp+0]
	#DEBUG_VALUE: sortBlocklistByDimension:dimension <- [DW_OP_constu 136, DW_OP_minus] [$rbp+0]
	#DEBUG_VALUE: sortBlocklistByDimension:blocks <- [DW_OP_constu 208, DW_OP_minus] [$rbp+0]
	#DEBUG_VALUE: sortBlocklistByDimension:columnBlockOffsets <- [DW_OP_constu 72, DW_OP_minus] [$rbp+0]
	#DEBUG_VALUE: sortBlocklistByDimension:columnNumBlocks <- [DW_OP_constu 128, DW_OP_minus] [$rbp+0]
	#DEBUG_VALUE: sortBlocklistByDimension:setColumnOffsets <- [DW_OP_constu 96, DW_OP_minus] [$rbp+0]
	#DEBUG_VALUE: sortBlocklistByDimension:setNumColumns <- [DW_OP_plus_uconst 16] [$rbp+0]
	.loc	4 0 1 is_stmt 0         # /usr/include/c++/9/bits/vector.tcc:0:1
	movq	%rdx, %r13
	.loc	4 1759 1                # /usr/include/c++/9/bits/vector.tcc:1759:1
	cmpq	%rdx, %rax
	ja	.LBB1_120
.Ltmp268:
# %bb.119:                              # %L..inline.45521.i
	#DEBUG_VALUE: __elems_before <- [DW_OP_constu 2, DW_OP_shra, DW_OP_stack_value] $rbx
	#DEBUG_VALUE: __old_start <- $r12
	#DEBUG_VALUE:  <- [DW_OP_constu 72, DW_OP_minus] [$rbp+0]
	#DEBUG_VALUE: _M_realloc_insert: <- [DW_OP_constu 72, DW_OP_minus] [$rbp+0]
	#DEBUG_VALUE: nBlocks <- [DW_OP_constu 88, DW_OP_minus] [$rbp+0]
	#DEBUG_VALUE: sortBlocklistByDimension:dimension <- [DW_OP_constu 136, DW_OP_minus] [$rbp+0]
	#DEBUG_VALUE: sortBlocklistByDimension:blocks <- [DW_OP_constu 208, DW_OP_minus] [$rbp+0]
	#DEBUG_VALUE: sortBlocklistByDimension:columnBlockOffsets <- [DW_OP_constu 72, DW_OP_minus] [$rbp+0]
	#DEBUG_VALUE: sortBlocklistByDimension:columnNumBlocks <- [DW_OP_constu 128, DW_OP_minus] [$rbp+0]
	#DEBUG_VALUE: sortBlocklistByDimension:setColumnOffsets <- [DW_OP_constu 96, DW_OP_minus] [$rbp+0]
	#DEBUG_VALUE: sortBlocklistByDimension:setNumColumns <- [DW_OP_plus_uconst 16] [$rbp+0]
	#DEBUG_VALUE: __len <- $rax
	.loc	4 0 1                   # /usr/include/c++/9/bits/vector.tcc:0:1
	movq	%rax, %r13
	.loc	4 440 1 is_stmt 1       # /usr/include/c++/9/bits/vector.tcc:440:1
	testq	%rax, %rax
.Ltmp269:
	#DEBUG_VALUE: __len <- $r13
	je	.LBB1_271
.Ltmp270:
.LBB1_120:                              # %L..inline.45585.i
	#DEBUG_VALUE: __elems_before <- [DW_OP_constu 2, DW_OP_shra, DW_OP_stack_value] $rbx
	#DEBUG_VALUE: __old_start <- $r12
	#DEBUG_VALUE:  <- [DW_OP_constu 72, DW_OP_minus] [$rbp+0]
	#DEBUG_VALUE: _M_realloc_insert: <- [DW_OP_constu 72, DW_OP_minus] [$rbp+0]
	#DEBUG_VALUE: nBlocks <- [DW_OP_constu 88, DW_OP_minus] [$rbp+0]
	#DEBUG_VALUE: sortBlocklistByDimension:dimension <- [DW_OP_constu 136, DW_OP_minus] [$rbp+0]
	#DEBUG_VALUE: sortBlocklistByDimension:blocks <- [DW_OP_constu 208, DW_OP_minus] [$rbp+0]
	#DEBUG_VALUE: sortBlocklistByDimension:columnBlockOffsets <- [DW_OP_constu 72, DW_OP_minus] [$rbp+0]
	#DEBUG_VALUE: sortBlocklistByDimension:columnNumBlocks <- [DW_OP_constu 128, DW_OP_minus] [$rbp+0]
	#DEBUG_VALUE: sortBlocklistByDimension:setColumnOffsets <- [DW_OP_constu 96, DW_OP_minus] [$rbp+0]
	#DEBUG_VALUE: sortBlocklistByDimension:setNumColumns <- [DW_OP_plus_uconst 16] [$rbp+0]
	.loc	4 343 1                 # /usr/include/c++/9/bits/vector.tcc:343:1
	leaq	(,%r13,4), %rdi
.Ltmp7:
	vzeroupper
	callq	_Znwm
.Ltmp8:
.Ltmp271:
# %bb.121:
	#DEBUG_VALUE: __elems_before <- [DW_OP_constu 2, DW_OP_shra, DW_OP_stack_value] $rbx
	#DEBUG_VALUE: __old_start <- $r12
	#DEBUG_VALUE:  <- [DW_OP_constu 72, DW_OP_minus] [$rbp+0]
	#DEBUG_VALUE: _M_realloc_insert: <- [DW_OP_constu 72, DW_OP_minus] [$rbp+0]
	#DEBUG_VALUE: nBlocks <- [DW_OP_constu 88, DW_OP_minus] [$rbp+0]
	#DEBUG_VALUE: sortBlocklistByDimension:dimension <- [DW_OP_constu 136, DW_OP_minus] [$rbp+0]
	#DEBUG_VALUE: sortBlocklistByDimension:blocks <- [DW_OP_constu 208, DW_OP_minus] [$rbp+0]
	#DEBUG_VALUE: sortBlocklistByDimension:columnBlockOffsets <- [DW_OP_constu 72, DW_OP_minus] [$rbp+0]
	#DEBUG_VALUE: sortBlocklistByDimension:columnNumBlocks <- [DW_OP_constu 128, DW_OP_minus] [$rbp+0]
	#DEBUG_VALUE: sortBlocklistByDimension:setColumnOffsets <- [DW_OP_constu 96, DW_OP_minus] [$rbp+0]
	#DEBUG_VALUE: sortBlocklistByDimension:setNumColumns <- [DW_OP_plus_uconst 16] [$rbp+0]
	.loc	4 0 1 is_stmt 0         # /usr/include/c++/9/bits/vector.tcc:0:1
	movq	%rax, %r15
.Ltmp272:
.LBB1_122:                              # %L..inline.45586.i
	#DEBUG_VALUE: __elems_before <- [DW_OP_constu 2, DW_OP_shra, DW_OP_stack_value] $rbx
	#DEBUG_VALUE: __old_start <- $r12
	#DEBUG_VALUE:  <- [DW_OP_constu 72, DW_OP_minus] [$rbp+0]
	#DEBUG_VALUE: _M_realloc_insert: <- [DW_OP_constu 72, DW_OP_minus] [$rbp+0]
	#DEBUG_VALUE: nBlocks <- [DW_OP_constu 88, DW_OP_minus] [$rbp+0]
	#DEBUG_VALUE: sortBlocklistByDimension:dimension <- [DW_OP_constu 136, DW_OP_minus] [$rbp+0]
	#DEBUG_VALUE: sortBlocklistByDimension:blocks <- [DW_OP_constu 208, DW_OP_minus] [$rbp+0]
	#DEBUG_VALUE: sortBlocklistByDimension:columnBlockOffsets <- [DW_OP_constu 72, DW_OP_minus] [$rbp+0]
	#DEBUG_VALUE: sortBlocklistByDimension:columnNumBlocks <- [DW_OP_constu 128, DW_OP_minus] [$rbp+0]
	#DEBUG_VALUE: sortBlocklistByDimension:setColumnOffsets <- [DW_OP_constu 96, DW_OP_minus] [$rbp+0]
	#DEBUG_VALUE: sortBlocklistByDimension:setNumColumns <- [DW_OP_plus_uconst 16] [$rbp+0]
	movq	%rbx, %rdx
	andq	$-4, %rdx
.Ltmp273:
	#DEBUG_VALUE: __new_finish <- $r15
	#DEBUG_VALUE: __new_start <- undef
	.loc	4 484 1 is_stmt 1       # /usr/include/c++/9/bits/vector.tcc:484:1
	movq	%r15, %r14
	addq	%rdx, %r14
	je	.LBB1_124
.Ltmp274:
# %bb.123:                              # %L.B2060.i
	#DEBUG_VALUE: __new_finish <- $r15
	#DEBUG_VALUE: __elems_before <- [DW_OP_constu 2, DW_OP_shra, DW_OP_stack_value] $rbx
	#DEBUG_VALUE: __old_start <- $r12
	#DEBUG_VALUE:  <- [DW_OP_constu 72, DW_OP_minus] [$rbp+0]
	#DEBUG_VALUE: _M_realloc_insert: <- [DW_OP_constu 72, DW_OP_minus] [$rbp+0]
	#DEBUG_VALUE: nBlocks <- [DW_OP_constu 88, DW_OP_minus] [$rbp+0]
	#DEBUG_VALUE: sortBlocklistByDimension:dimension <- [DW_OP_constu 136, DW_OP_minus] [$rbp+0]
	#DEBUG_VALUE: sortBlocklistByDimension:blocks <- [DW_OP_constu 208, DW_OP_minus] [$rbp+0]
	#DEBUG_VALUE: sortBlocklistByDimension:columnBlockOffsets <- [DW_OP_constu 72, DW_OP_minus] [$rbp+0]
	#DEBUG_VALUE: sortBlocklistByDimension:columnNumBlocks <- [DW_OP_constu 128, DW_OP_minus] [$rbp+0]
	#DEBUG_VALUE: sortBlocklistByDimension:setColumnOffsets <- [DW_OP_constu 96, DW_OP_minus] [$rbp+0]
	#DEBUG_VALUE: sortBlocklistByDimension:setNumColumns <- [DW_OP_plus_uconst 16] [$rbp+0]
	movl	$0, (%r14)
.Ltmp275:
.LBB1_124:                              # %L..inline.45634.i
	#DEBUG_VALUE: __new_finish <- $r15
	#DEBUG_VALUE: __elems_before <- [DW_OP_constu 2, DW_OP_shra, DW_OP_stack_value] $rbx
	#DEBUG_VALUE: __old_start <- $r12
	#DEBUG_VALUE:  <- [DW_OP_constu 72, DW_OP_minus] [$rbp+0]
	#DEBUG_VALUE: _M_realloc_insert: <- [DW_OP_constu 72, DW_OP_minus] [$rbp+0]
	#DEBUG_VALUE: nBlocks <- [DW_OP_constu 88, DW_OP_minus] [$rbp+0]
	#DEBUG_VALUE: sortBlocklistByDimension:dimension <- [DW_OP_constu 136, DW_OP_minus] [$rbp+0]
	#DEBUG_VALUE: sortBlocklistByDimension:blocks <- [DW_OP_constu 208, DW_OP_minus] [$rbp+0]
	#DEBUG_VALUE: sortBlocklistByDimension:columnBlockOffsets <- [DW_OP_constu 72, DW_OP_minus] [$rbp+0]
	#DEBUG_VALUE: sortBlocklistByDimension:columnNumBlocks <- [DW_OP_constu 128, DW_OP_minus] [$rbp+0]
	#DEBUG_VALUE: sortBlocklistByDimension:setColumnOffsets <- [DW_OP_constu 96, DW_OP_minus] [$rbp+0]
	#DEBUG_VALUE: sortBlocklistByDimension:setNumColumns <- [DW_OP_plus_uconst 16] [$rbp+0]
	#DEBUG_VALUE: __new_finish <- 0
	.loc	4 466 1                 # /usr/include/c++/9/bits/vector.tcc:466:1
	cmpq	$4, %rbx
	jl	.LBB1_126
.Ltmp276:
# %bb.125:                              # %L.B2061.i
	#DEBUG_VALUE: __new_finish <- 0
	#DEBUG_VALUE: __elems_before <- [DW_OP_constu 2, DW_OP_shra, DW_OP_stack_value] $rbx
	#DEBUG_VALUE: __old_start <- $r12
	#DEBUG_VALUE:  <- [DW_OP_constu 72, DW_OP_minus] [$rbp+0]
	#DEBUG_VALUE: _M_realloc_insert: <- [DW_OP_constu 72, DW_OP_minus] [$rbp+0]
	#DEBUG_VALUE: nBlocks <- [DW_OP_constu 88, DW_OP_minus] [$rbp+0]
	#DEBUG_VALUE: sortBlocklistByDimension:dimension <- [DW_OP_constu 136, DW_OP_minus] [$rbp+0]
	#DEBUG_VALUE: sortBlocklistByDimension:blocks <- [DW_OP_constu 208, DW_OP_minus] [$rbp+0]
	#DEBUG_VALUE: sortBlocklistByDimension:columnBlockOffsets <- [DW_OP_constu 72, DW_OP_minus] [$rbp+0]
	#DEBUG_VALUE: sortBlocklistByDimension:columnNumBlocks <- [DW_OP_constu 128, DW_OP_minus] [$rbp+0]
	#DEBUG_VALUE: sortBlocklistByDimension:setColumnOffsets <- [DW_OP_constu 96, DW_OP_minus] [$rbp+0]
	#DEBUG_VALUE: sortBlocklistByDimension:setNumColumns <- [DW_OP_plus_uconst 16] [$rbp+0]
	movq	%r15, %rdi
	movq	%r12, %rsi
	vzeroupper
	callq	memmove
.Ltmp277:
.LBB1_126:                              # %L..inline.45782.i
	#DEBUG_VALUE: __new_finish <- 0
	#DEBUG_VALUE: __elems_before <- [DW_OP_constu 2, DW_OP_shra, DW_OP_stack_value] $rbx
	#DEBUG_VALUE: __old_start <- $r12
	#DEBUG_VALUE:  <- [DW_OP_constu 72, DW_OP_minus] [$rbp+0]
	#DEBUG_VALUE: _M_realloc_insert: <- [DW_OP_constu 72, DW_OP_minus] [$rbp+0]
	#DEBUG_VALUE: nBlocks <- [DW_OP_constu 88, DW_OP_minus] [$rbp+0]
	#DEBUG_VALUE: sortBlocklistByDimension:dimension <- [DW_OP_constu 136, DW_OP_minus] [$rbp+0]
	#DEBUG_VALUE: sortBlocklistByDimension:blocks <- [DW_OP_constu 208, DW_OP_minus] [$rbp+0]
	#DEBUG_VALUE: sortBlocklistByDimension:columnBlockOffsets <- [DW_OP_constu 72, DW_OP_minus] [$rbp+0]
	#DEBUG_VALUE: sortBlocklistByDimension:columnNumBlocks <- [DW_OP_constu 128, DW_OP_minus] [$rbp+0]
	#DEBUG_VALUE: sortBlocklistByDimension:setColumnOffsets <- [DW_OP_constu 96, DW_OP_minus] [$rbp+0]
	#DEBUG_VALUE: sortBlocklistByDimension:setNumColumns <- [DW_OP_plus_uconst 16] [$rbp+0]
	#DEBUG_VALUE: __new_finish <- $r14
	.loc	4 464 1                 # /usr/include/c++/9/bits/vector.tcc:464:1
	addq	$4, %r14
.Ltmp278:
	#DEBUG_VALUE: __new_finish <- $r14
	.loc	4 500 1                 # /usr/include/c++/9/bits/vector.tcc:500:1
	testq	%r12, %r12
	je	.LBB1_128
.Ltmp279:
# %bb.127:                              # %L.B2065.i
	#DEBUG_VALUE: __new_finish <- $r14
	#DEBUG_VALUE: __elems_before <- [DW_OP_constu 2, DW_OP_shra, DW_OP_stack_value] $rbx
	#DEBUG_VALUE: __old_start <- $r12
	#DEBUG_VALUE:  <- [DW_OP_constu 72, DW_OP_minus] [$rbp+0]
	#DEBUG_VALUE: _M_realloc_insert: <- [DW_OP_constu 72, DW_OP_minus] [$rbp+0]
	#DEBUG_VALUE: nBlocks <- [DW_OP_constu 88, DW_OP_minus] [$rbp+0]
	#DEBUG_VALUE: sortBlocklistByDimension:dimension <- [DW_OP_constu 136, DW_OP_minus] [$rbp+0]
	#DEBUG_VALUE: sortBlocklistByDimension:blocks <- [DW_OP_constu 208, DW_OP_minus] [$rbp+0]
	#DEBUG_VALUE: sortBlocklistByDimension:columnBlockOffsets <- [DW_OP_constu 72, DW_OP_minus] [$rbp+0]
	#DEBUG_VALUE: sortBlocklistByDimension:columnNumBlocks <- [DW_OP_constu 128, DW_OP_minus] [$rbp+0]
	#DEBUG_VALUE: sortBlocklistByDimension:setColumnOffsets <- [DW_OP_constu 96, DW_OP_minus] [$rbp+0]
	#DEBUG_VALUE: sortBlocklistByDimension:setNumColumns <- [DW_OP_plus_uconst 16] [$rbp+0]
	.loc	4 351 1                 # /usr/include/c++/9/bits/vector.tcc:351:1
	movq	%r12, %rdi
	vzeroupper
	callq	_ZdlPv
.Ltmp280:
.LBB1_128:                              # %_ZNSt6vectorIjSaIjEE17_M_realloc_insertIJjEEEvN9__gnu_cxx17__normal_iteratorIPjS1_EEDpOT_.exit
	#DEBUG_VALUE: __new_finish <- $r14
	#DEBUG_VALUE: __elems_before <- [DW_OP_constu 2, DW_OP_shra, DW_OP_stack_value] $rbx
	#DEBUG_VALUE: __old_start <- $r12
	#DEBUG_VALUE:  <- [DW_OP_constu 72, DW_OP_minus] [$rbp+0]
	#DEBUG_VALUE: _M_realloc_insert: <- [DW_OP_constu 72, DW_OP_minus] [$rbp+0]
	#DEBUG_VALUE: nBlocks <- [DW_OP_constu 88, DW_OP_minus] [$rbp+0]
	#DEBUG_VALUE: sortBlocklistByDimension:dimension <- [DW_OP_constu 136, DW_OP_minus] [$rbp+0]
	#DEBUG_VALUE: sortBlocklistByDimension:blocks <- [DW_OP_constu 208, DW_OP_minus] [$rbp+0]
	#DEBUG_VALUE: sortBlocklistByDimension:columnBlockOffsets <- [DW_OP_constu 72, DW_OP_minus] [$rbp+0]
	#DEBUG_VALUE: sortBlocklistByDimension:columnNumBlocks <- [DW_OP_constu 128, DW_OP_minus] [$rbp+0]
	#DEBUG_VALUE: sortBlocklistByDimension:setColumnOffsets <- [DW_OP_constu 96, DW_OP_minus] [$rbp+0]
	#DEBUG_VALUE: sortBlocklistByDimension:setNumColumns <- [DW_OP_plus_uconst 16] [$rbp+0]
	.loc	4 0 1 is_stmt 0         # /usr/include/c++/9/bits/vector.tcc:0:1
	movq	-72(%rbp), %r12         # 8-byte Reload
.Ltmp281:
	.loc	4 502 1 is_stmt 1       # /usr/include/c++/9/bits/vector.tcc:502:1
	movq	%r15, (%r12)
	.loc	4 503 1                 # /usr/include/c++/9/bits/vector.tcc:503:1
	movq	%r14, 8(%r12)
	.loc	4 504 1                 # /usr/include/c++/9/bits/vector.tcc:504:1
	leaq	(%r15,%r13,4), %rax
	movq	-192(%rbp), %rcx        # 8-byte Reload
	movq	-96(%rbp), %rdx         # 8-byte Reload
	movq	-56(%rbp), %r14         # 8-byte Reload
.Ltmp282:
	.loc	4 0 1 is_stmt 0         # /usr/include/c++/9/bits/vector.tcc:0:1
	jmp	.LBB1_131
.Ltmp283:
.LBB1_129:
	#DEBUG_VALUE: nBlocks <- [DW_OP_constu 88, DW_OP_minus] [$rbp+0]
	#DEBUG_VALUE: sortBlocklistByDimension:dimension <- [DW_OP_constu 136, DW_OP_minus] [$rbp+0]
	#DEBUG_VALUE: sortBlocklistByDimension:blocks <- [DW_OP_constu 208, DW_OP_minus] [$rbp+0]
	#DEBUG_VALUE: sortBlocklistByDimension:columnBlockOffsets <- [DW_OP_constu 72, DW_OP_minus] [$rbp+0]
	#DEBUG_VALUE: sortBlocklistByDimension:columnNumBlocks <- [DW_OP_constu 128, DW_OP_minus] [$rbp+0]
	#DEBUG_VALUE: sortBlocklistByDimension:setColumnOffsets <- [DW_OP_constu 96, DW_OP_minus] [$rbp+0]
	#DEBUG_VALUE: sortBlocklistByDimension:setNumColumns <- [DW_OP_plus_uconst 16] [$rbp+0]
	xorl	%eax, %eax
	movq	-112(%rbp), %rcx        # 8-byte Reload
.Ltmp284:
.LBB1_130:                              # %L..inline.41295
	#DEBUG_VALUE: nBlocks <- [DW_OP_constu 88, DW_OP_minus] [$rbp+0]
	#DEBUG_VALUE: sortBlocklistByDimension:dimension <- [DW_OP_constu 136, DW_OP_minus] [$rbp+0]
	#DEBUG_VALUE: sortBlocklistByDimension:blocks <- [DW_OP_constu 208, DW_OP_minus] [$rbp+0]
	#DEBUG_VALUE: sortBlocklistByDimension:columnBlockOffsets <- [DW_OP_constu 72, DW_OP_minus] [$rbp+0]
	#DEBUG_VALUE: sortBlocklistByDimension:columnNumBlocks <- [DW_OP_constu 128, DW_OP_minus] [$rbp+0]
	#DEBUG_VALUE: sortBlocklistByDimension:setColumnOffsets <- [DW_OP_constu 96, DW_OP_minus] [$rbp+0]
	#DEBUG_VALUE: sortBlocklistByDimension:setNumColumns <- [DW_OP_plus_uconst 16] [$rbp+0]
	.loc	1 1201 1 is_stmt 1      # vlasovsolver/cpu_acc_sort_blocks.cpp:1201:1
	addq	$4, %rax
.Ltmp285:
.LBB1_131:                              # %L..inline.41295
	#DEBUG_VALUE: nBlocks <- [DW_OP_constu 88, DW_OP_minus] [$rbp+0]
	#DEBUG_VALUE: sortBlocklistByDimension:dimension <- [DW_OP_constu 136, DW_OP_minus] [$rbp+0]
	#DEBUG_VALUE: sortBlocklistByDimension:blocks <- [DW_OP_constu 208, DW_OP_minus] [$rbp+0]
	#DEBUG_VALUE: sortBlocklistByDimension:columnBlockOffsets <- [DW_OP_constu 72, DW_OP_minus] [$rbp+0]
	#DEBUG_VALUE: sortBlocklistByDimension:columnNumBlocks <- [DW_OP_constu 128, DW_OP_minus] [$rbp+0]
	#DEBUG_VALUE: sortBlocklistByDimension:setColumnOffsets <- [DW_OP_constu 96, DW_OP_minus] [$rbp+0]
	#DEBUG_VALUE: sortBlocklistByDimension:setNumColumns <- [DW_OP_plus_uconst 16] [$rbp+0]
	#DEBUG_VALUE: setNumColumns <- undef
	.loc	1 0 0 is_stmt 0         # vlasovsolver/cpu_acc_sort_blocks.cpp:0:0
	movq	%rax, (%rcx)
	.loc	1 1201 1                # vlasovsolver/cpu_acc_sort_blocks.cpp:1201:1
	leaq	8(%rdx), %rcx
	movq	8(%rdx), %rbx
	leaq	16(%rdx), %rax
	movq	%rax, -184(%rbp)        # 8-byte Spill
	cmpq	16(%rdx), %rbx
	movq	%rcx, -200(%rbp)        # 8-byte Spill
	je	.LBB1_134
.Ltmp286:
# %bb.132:                              # %L.B1788
	#DEBUG_VALUE: nBlocks <- [DW_OP_constu 88, DW_OP_minus] [$rbp+0]
	#DEBUG_VALUE: sortBlocklistByDimension:dimension <- [DW_OP_constu 136, DW_OP_minus] [$rbp+0]
	#DEBUG_VALUE: sortBlocklistByDimension:blocks <- [DW_OP_constu 208, DW_OP_minus] [$rbp+0]
	#DEBUG_VALUE: sortBlocklistByDimension:columnBlockOffsets <- [DW_OP_constu 72, DW_OP_minus] [$rbp+0]
	#DEBUG_VALUE: sortBlocklistByDimension:columnNumBlocks <- [DW_OP_constu 128, DW_OP_minus] [$rbp+0]
	#DEBUG_VALUE: sortBlocklistByDimension:setColumnOffsets <- [DW_OP_constu 96, DW_OP_minus] [$rbp+0]
	#DEBUG_VALUE: sortBlocklistByDimension:setNumColumns <- [DW_OP_plus_uconst 16] [$rbp+0]
	testq	%rbx, %rbx
	je	.LBB1_147
.Ltmp287:
# %bb.133:                              # %L.B1789
	#DEBUG_VALUE: nBlocks <- [DW_OP_constu 88, DW_OP_minus] [$rbp+0]
	#DEBUG_VALUE: sortBlocklistByDimension:dimension <- [DW_OP_constu 136, DW_OP_minus] [$rbp+0]
	#DEBUG_VALUE: sortBlocklistByDimension:blocks <- [DW_OP_constu 208, DW_OP_minus] [$rbp+0]
	#DEBUG_VALUE: sortBlocklistByDimension:columnBlockOffsets <- [DW_OP_constu 72, DW_OP_minus] [$rbp+0]
	#DEBUG_VALUE: sortBlocklistByDimension:columnNumBlocks <- [DW_OP_constu 128, DW_OP_minus] [$rbp+0]
	#DEBUG_VALUE: sortBlocklistByDimension:setColumnOffsets <- [DW_OP_constu 96, DW_OP_minus] [$rbp+0]
	#DEBUG_VALUE: sortBlocklistByDimension:setNumColumns <- [DW_OP_plus_uconst 16] [$rbp+0]
	movl	$0, (%rbx)
	movq	(%rcx), %rax
	jmp	.LBB1_148
.Ltmp288:
.LBB1_134:                              # %L..inline.41337
	#DEBUG_VALUE: nBlocks <- [DW_OP_constu 88, DW_OP_minus] [$rbp+0]
	#DEBUG_VALUE: sortBlocklistByDimension:dimension <- [DW_OP_constu 136, DW_OP_minus] [$rbp+0]
	#DEBUG_VALUE: sortBlocklistByDimension:blocks <- [DW_OP_constu 208, DW_OP_minus] [$rbp+0]
	#DEBUG_VALUE: sortBlocklistByDimension:columnBlockOffsets <- [DW_OP_constu 72, DW_OP_minus] [$rbp+0]
	#DEBUG_VALUE: sortBlocklistByDimension:columnNumBlocks <- [DW_OP_constu 128, DW_OP_minus] [$rbp+0]
	#DEBUG_VALUE: sortBlocklistByDimension:setColumnOffsets <- [DW_OP_constu 96, DW_OP_minus] [$rbp+0]
	#DEBUG_VALUE: sortBlocklistByDimension:setNumColumns <- [DW_OP_plus_uconst 16] [$rbp+0]
	#DEBUG_VALUE: _M_realloc_insert: <- [DW_OP_constu 96, DW_OP_minus] [$rbp+0]
	#DEBUG_VALUE:  <- [DW_OP_constu 96, DW_OP_minus] [$rbp+0]
	#DEBUG_VALUE: _M_realloc_insert:__position <- $rbx
	.loc	4 1755 1 is_stmt 1      # /usr/include/c++/9/bits/vector.tcc:1755:1
	movq	(%rdx), %r12
	subq	%r12, %rbx
.Ltmp289:
	movq	%rbx, %rcx
	sarq	$2, %rcx
	movabsq	$2305843009213693951, %rdx # imm = 0x1FFFFFFFFFFFFFFF
	cmpq	%rdx, %rcx
	je	.LBB1_285
.Ltmp290:
# %bb.135:                              # %L..inline.45457.i204
	#DEBUG_VALUE:  <- [DW_OP_constu 96, DW_OP_minus] [$rbp+0]
	#DEBUG_VALUE: _M_realloc_insert: <- [DW_OP_constu 96, DW_OP_minus] [$rbp+0]
	#DEBUG_VALUE: nBlocks <- [DW_OP_constu 88, DW_OP_minus] [$rbp+0]
	#DEBUG_VALUE: sortBlocklistByDimension:dimension <- [DW_OP_constu 136, DW_OP_minus] [$rbp+0]
	#DEBUG_VALUE: sortBlocklistByDimension:blocks <- [DW_OP_constu 208, DW_OP_minus] [$rbp+0]
	#DEBUG_VALUE: sortBlocklistByDimension:columnBlockOffsets <- [DW_OP_constu 72, DW_OP_minus] [$rbp+0]
	#DEBUG_VALUE: sortBlocklistByDimension:columnNumBlocks <- [DW_OP_constu 128, DW_OP_minus] [$rbp+0]
	#DEBUG_VALUE: sortBlocklistByDimension:setColumnOffsets <- [DW_OP_constu 96, DW_OP_minus] [$rbp+0]
	#DEBUG_VALUE: sortBlocklistByDimension:setNumColumns <- [DW_OP_plus_uconst 16] [$rbp+0]
	#DEBUG_VALUE: _M_realloc_insert:__position <- undef
	.loc	4 1758 1                # /usr/include/c++/9/bits/vector.tcc:1758:1
	testq	%rcx, %rcx
	movl	$1, %eax
	cmovneq	%rcx, %rax
.Ltmp291:
	#DEBUG_VALUE: __old_finish <- undef
	#DEBUG_VALUE: __old_start <- $r12
	.loc	4 0 1 is_stmt 0         # /usr/include/c++/9/bits/vector.tcc:0:1
	movq	%rdx, %r13
	.loc	4 1758 1                # /usr/include/c++/9/bits/vector.tcc:1758:1
	addq	%rcx, %rax
.Ltmp292:
	#DEBUG_VALUE: __elems_before <- [DW_OP_constu 2, DW_OP_shra, DW_OP_stack_value] $rbx
	.loc	4 1759 1 is_stmt 1      # /usr/include/c++/9/bits/vector.tcc:1759:1
	jb	.LBB1_138
.Ltmp293:
# %bb.136:                              # %L..inline.45457.i204
	#DEBUG_VALUE: __elems_before <- [DW_OP_constu 2, DW_OP_shra, DW_OP_stack_value] $rbx
	#DEBUG_VALUE: __old_start <- $r12
	#DEBUG_VALUE:  <- [DW_OP_constu 96, DW_OP_minus] [$rbp+0]
	#DEBUG_VALUE: _M_realloc_insert: <- [DW_OP_constu 96, DW_OP_minus] [$rbp+0]
	#DEBUG_VALUE: nBlocks <- [DW_OP_constu 88, DW_OP_minus] [$rbp+0]
	#DEBUG_VALUE: sortBlocklistByDimension:dimension <- [DW_OP_constu 136, DW_OP_minus] [$rbp+0]
	#DEBUG_VALUE: sortBlocklistByDimension:blocks <- [DW_OP_constu 208, DW_OP_minus] [$rbp+0]
	#DEBUG_VALUE: sortBlocklistByDimension:columnBlockOffsets <- [DW_OP_constu 72, DW_OP_minus] [$rbp+0]
	#DEBUG_VALUE: sortBlocklistByDimension:columnNumBlocks <- [DW_OP_constu 128, DW_OP_minus] [$rbp+0]
	#DEBUG_VALUE: sortBlocklistByDimension:setColumnOffsets <- [DW_OP_constu 96, DW_OP_minus] [$rbp+0]
	#DEBUG_VALUE: sortBlocklistByDimension:setNumColumns <- [DW_OP_plus_uconst 16] [$rbp+0]
	.loc	4 0 1 is_stmt 0         # /usr/include/c++/9/bits/vector.tcc:0:1
	movq	%rdx, %r13
	.loc	4 1759 1                # /usr/include/c++/9/bits/vector.tcc:1759:1
	cmpq	%rdx, %rax
	ja	.LBB1_138
.Ltmp294:
# %bb.137:                              # %L..inline.45521.i205
	#DEBUG_VALUE: __elems_before <- [DW_OP_constu 2, DW_OP_shra, DW_OP_stack_value] $rbx
	#DEBUG_VALUE: __old_start <- $r12
	#DEBUG_VALUE:  <- [DW_OP_constu 96, DW_OP_minus] [$rbp+0]
	#DEBUG_VALUE: _M_realloc_insert: <- [DW_OP_constu 96, DW_OP_minus] [$rbp+0]
	#DEBUG_VALUE: nBlocks <- [DW_OP_constu 88, DW_OP_minus] [$rbp+0]
	#DEBUG_VALUE: sortBlocklistByDimension:dimension <- [DW_OP_constu 136, DW_OP_minus] [$rbp+0]
	#DEBUG_VALUE: sortBlocklistByDimension:blocks <- [DW_OP_constu 208, DW_OP_minus] [$rbp+0]
	#DEBUG_VALUE: sortBlocklistByDimension:columnBlockOffsets <- [DW_OP_constu 72, DW_OP_minus] [$rbp+0]
	#DEBUG_VALUE: sortBlocklistByDimension:columnNumBlocks <- [DW_OP_constu 128, DW_OP_minus] [$rbp+0]
	#DEBUG_VALUE: sortBlocklistByDimension:setColumnOffsets <- [DW_OP_constu 96, DW_OP_minus] [$rbp+0]
	#DEBUG_VALUE: sortBlocklistByDimension:setNumColumns <- [DW_OP_plus_uconst 16] [$rbp+0]
	#DEBUG_VALUE: __len <- $rax
	.loc	4 0 1                   # /usr/include/c++/9/bits/vector.tcc:0:1
	movq	%rax, %r13
	.loc	4 440 1 is_stmt 1       # /usr/include/c++/9/bits/vector.tcc:440:1
	testq	%rax, %rax
.Ltmp295:
	#DEBUG_VALUE: __len <- $r13
	je	.LBB1_272
.Ltmp296:
.LBB1_138:                              # %L..inline.45585.i207
	#DEBUG_VALUE: __elems_before <- [DW_OP_constu 2, DW_OP_shra, DW_OP_stack_value] $rbx
	#DEBUG_VALUE: __old_start <- $r12
	#DEBUG_VALUE:  <- [DW_OP_constu 96, DW_OP_minus] [$rbp+0]
	#DEBUG_VALUE: _M_realloc_insert: <- [DW_OP_constu 96, DW_OP_minus] [$rbp+0]
	#DEBUG_VALUE: nBlocks <- [DW_OP_constu 88, DW_OP_minus] [$rbp+0]
	#DEBUG_VALUE: sortBlocklistByDimension:dimension <- [DW_OP_constu 136, DW_OP_minus] [$rbp+0]
	#DEBUG_VALUE: sortBlocklistByDimension:blocks <- [DW_OP_constu 208, DW_OP_minus] [$rbp+0]
	#DEBUG_VALUE: sortBlocklistByDimension:columnBlockOffsets <- [DW_OP_constu 72, DW_OP_minus] [$rbp+0]
	#DEBUG_VALUE: sortBlocklistByDimension:columnNumBlocks <- [DW_OP_constu 128, DW_OP_minus] [$rbp+0]
	#DEBUG_VALUE: sortBlocklistByDimension:setColumnOffsets <- [DW_OP_constu 96, DW_OP_minus] [$rbp+0]
	#DEBUG_VALUE: sortBlocklistByDimension:setNumColumns <- [DW_OP_plus_uconst 16] [$rbp+0]
	.loc	4 343 1                 # /usr/include/c++/9/bits/vector.tcc:343:1
	leaq	(,%r13,4), %rdi
.Ltmp9:
	vzeroupper
	callq	_Znwm
.Ltmp10:
.Ltmp297:
# %bb.139:
	#DEBUG_VALUE: __elems_before <- [DW_OP_constu 2, DW_OP_shra, DW_OP_stack_value] $rbx
	#DEBUG_VALUE: __old_start <- $r12
	#DEBUG_VALUE:  <- [DW_OP_constu 96, DW_OP_minus] [$rbp+0]
	#DEBUG_VALUE: _M_realloc_insert: <- [DW_OP_constu 96, DW_OP_minus] [$rbp+0]
	#DEBUG_VALUE: nBlocks <- [DW_OP_constu 88, DW_OP_minus] [$rbp+0]
	#DEBUG_VALUE: sortBlocklistByDimension:dimension <- [DW_OP_constu 136, DW_OP_minus] [$rbp+0]
	#DEBUG_VALUE: sortBlocklistByDimension:blocks <- [DW_OP_constu 208, DW_OP_minus] [$rbp+0]
	#DEBUG_VALUE: sortBlocklistByDimension:columnBlockOffsets <- [DW_OP_constu 72, DW_OP_minus] [$rbp+0]
	#DEBUG_VALUE: sortBlocklistByDimension:columnNumBlocks <- [DW_OP_constu 128, DW_OP_minus] [$rbp+0]
	#DEBUG_VALUE: sortBlocklistByDimension:setColumnOffsets <- [DW_OP_constu 96, DW_OP_minus] [$rbp+0]
	#DEBUG_VALUE: sortBlocklistByDimension:setNumColumns <- [DW_OP_plus_uconst 16] [$rbp+0]
	.loc	4 0 1 is_stmt 0         # /usr/include/c++/9/bits/vector.tcc:0:1
	movq	%rax, %r15
.Ltmp298:
.LBB1_140:                              # %L..inline.45586.i209
	#DEBUG_VALUE: __elems_before <- [DW_OP_constu 2, DW_OP_shra, DW_OP_stack_value] $rbx
	#DEBUG_VALUE: __old_start <- $r12
	#DEBUG_VALUE:  <- [DW_OP_constu 96, DW_OP_minus] [$rbp+0]
	#DEBUG_VALUE: _M_realloc_insert: <- [DW_OP_constu 96, DW_OP_minus] [$rbp+0]
	#DEBUG_VALUE: nBlocks <- [DW_OP_constu 88, DW_OP_minus] [$rbp+0]
	#DEBUG_VALUE: sortBlocklistByDimension:dimension <- [DW_OP_constu 136, DW_OP_minus] [$rbp+0]
	#DEBUG_VALUE: sortBlocklistByDimension:blocks <- [DW_OP_constu 208, DW_OP_minus] [$rbp+0]
	#DEBUG_VALUE: sortBlocklistByDimension:columnBlockOffsets <- [DW_OP_constu 72, DW_OP_minus] [$rbp+0]
	#DEBUG_VALUE: sortBlocklistByDimension:columnNumBlocks <- [DW_OP_constu 128, DW_OP_minus] [$rbp+0]
	#DEBUG_VALUE: sortBlocklistByDimension:setColumnOffsets <- [DW_OP_constu 96, DW_OP_minus] [$rbp+0]
	#DEBUG_VALUE: sortBlocklistByDimension:setNumColumns <- [DW_OP_plus_uconst 16] [$rbp+0]
	movq	%rbx, %rdx
	andq	$-4, %rdx
.Ltmp299:
	#DEBUG_VALUE: __new_finish <- $r15
	#DEBUG_VALUE: __new_start <- undef
	.loc	4 484 1 is_stmt 1       # /usr/include/c++/9/bits/vector.tcc:484:1
	movq	%r15, %r14
	addq	%rdx, %r14
	je	.LBB1_142
.Ltmp300:
# %bb.141:                              # %L.B2060.i210
	#DEBUG_VALUE: __new_finish <- $r15
	#DEBUG_VALUE: __elems_before <- [DW_OP_constu 2, DW_OP_shra, DW_OP_stack_value] $rbx
	#DEBUG_VALUE: __old_start <- $r12
	#DEBUG_VALUE:  <- [DW_OP_constu 96, DW_OP_minus] [$rbp+0]
	#DEBUG_VALUE: _M_realloc_insert: <- [DW_OP_constu 96, DW_OP_minus] [$rbp+0]
	#DEBUG_VALUE: nBlocks <- [DW_OP_constu 88, DW_OP_minus] [$rbp+0]
	#DEBUG_VALUE: sortBlocklistByDimension:dimension <- [DW_OP_constu 136, DW_OP_minus] [$rbp+0]
	#DEBUG_VALUE: sortBlocklistByDimension:blocks <- [DW_OP_constu 208, DW_OP_minus] [$rbp+0]
	#DEBUG_VALUE: sortBlocklistByDimension:columnBlockOffsets <- [DW_OP_constu 72, DW_OP_minus] [$rbp+0]
	#DEBUG_VALUE: sortBlocklistByDimension:columnNumBlocks <- [DW_OP_constu 128, DW_OP_minus] [$rbp+0]
	#DEBUG_VALUE: sortBlocklistByDimension:setColumnOffsets <- [DW_OP_constu 96, DW_OP_minus] [$rbp+0]
	#DEBUG_VALUE: sortBlocklistByDimension:setNumColumns <- [DW_OP_plus_uconst 16] [$rbp+0]
	movl	$0, (%r14)
.Ltmp301:
.LBB1_142:                              # %L..inline.45634.i211
	#DEBUG_VALUE: __new_finish <- $r15
	#DEBUG_VALUE: __elems_before <- [DW_OP_constu 2, DW_OP_shra, DW_OP_stack_value] $rbx
	#DEBUG_VALUE: __old_start <- $r12
	#DEBUG_VALUE:  <- [DW_OP_constu 96, DW_OP_minus] [$rbp+0]
	#DEBUG_VALUE: _M_realloc_insert: <- [DW_OP_constu 96, DW_OP_minus] [$rbp+0]
	#DEBUG_VALUE: nBlocks <- [DW_OP_constu 88, DW_OP_minus] [$rbp+0]
	#DEBUG_VALUE: sortBlocklistByDimension:dimension <- [DW_OP_constu 136, DW_OP_minus] [$rbp+0]
	#DEBUG_VALUE: sortBlocklistByDimension:blocks <- [DW_OP_constu 208, DW_OP_minus] [$rbp+0]
	#DEBUG_VALUE: sortBlocklistByDimension:columnBlockOffsets <- [DW_OP_constu 72, DW_OP_minus] [$rbp+0]
	#DEBUG_VALUE: sortBlocklistByDimension:columnNumBlocks <- [DW_OP_constu 128, DW_OP_minus] [$rbp+0]
	#DEBUG_VALUE: sortBlocklistByDimension:setColumnOffsets <- [DW_OP_constu 96, DW_OP_minus] [$rbp+0]
	#DEBUG_VALUE: sortBlocklistByDimension:setNumColumns <- [DW_OP_plus_uconst 16] [$rbp+0]
	#DEBUG_VALUE: __new_finish <- 0
	.loc	4 466 1                 # /usr/include/c++/9/bits/vector.tcc:466:1
	cmpq	$4, %rbx
	jl	.LBB1_144
.Ltmp302:
# %bb.143:                              # %L.B2061.i212
	#DEBUG_VALUE: __new_finish <- 0
	#DEBUG_VALUE: __elems_before <- [DW_OP_constu 2, DW_OP_shra, DW_OP_stack_value] $rbx
	#DEBUG_VALUE: __old_start <- $r12
	#DEBUG_VALUE:  <- [DW_OP_constu 96, DW_OP_minus] [$rbp+0]
	#DEBUG_VALUE: _M_realloc_insert: <- [DW_OP_constu 96, DW_OP_minus] [$rbp+0]
	#DEBUG_VALUE: nBlocks <- [DW_OP_constu 88, DW_OP_minus] [$rbp+0]
	#DEBUG_VALUE: sortBlocklistByDimension:dimension <- [DW_OP_constu 136, DW_OP_minus] [$rbp+0]
	#DEBUG_VALUE: sortBlocklistByDimension:blocks <- [DW_OP_constu 208, DW_OP_minus] [$rbp+0]
	#DEBUG_VALUE: sortBlocklistByDimension:columnBlockOffsets <- [DW_OP_constu 72, DW_OP_minus] [$rbp+0]
	#DEBUG_VALUE: sortBlocklistByDimension:columnNumBlocks <- [DW_OP_constu 128, DW_OP_minus] [$rbp+0]
	#DEBUG_VALUE: sortBlocklistByDimension:setColumnOffsets <- [DW_OP_constu 96, DW_OP_minus] [$rbp+0]
	#DEBUG_VALUE: sortBlocklistByDimension:setNumColumns <- [DW_OP_plus_uconst 16] [$rbp+0]
	movq	%r15, %rdi
	movq	%r12, %rsi
	vzeroupper
	callq	memmove
.Ltmp303:
.LBB1_144:                              # %L..inline.45782.i215
	#DEBUG_VALUE: __new_finish <- 0
	#DEBUG_VALUE: __elems_before <- [DW_OP_constu 2, DW_OP_shra, DW_OP_stack_value] $rbx
	#DEBUG_VALUE: __old_start <- $r12
	#DEBUG_VALUE:  <- [DW_OP_constu 96, DW_OP_minus] [$rbp+0]
	#DEBUG_VALUE: _M_realloc_insert: <- [DW_OP_constu 96, DW_OP_minus] [$rbp+0]
	#DEBUG_VALUE: nBlocks <- [DW_OP_constu 88, DW_OP_minus] [$rbp+0]
	#DEBUG_VALUE: sortBlocklistByDimension:dimension <- [DW_OP_constu 136, DW_OP_minus] [$rbp+0]
	#DEBUG_VALUE: sortBlocklistByDimension:blocks <- [DW_OP_constu 208, DW_OP_minus] [$rbp+0]
	#DEBUG_VALUE: sortBlocklistByDimension:columnBlockOffsets <- [DW_OP_constu 72, DW_OP_minus] [$rbp+0]
	#DEBUG_VALUE: sortBlocklistByDimension:columnNumBlocks <- [DW_OP_constu 128, DW_OP_minus] [$rbp+0]
	#DEBUG_VALUE: sortBlocklistByDimension:setColumnOffsets <- [DW_OP_constu 96, DW_OP_minus] [$rbp+0]
	#DEBUG_VALUE: sortBlocklistByDimension:setNumColumns <- [DW_OP_plus_uconst 16] [$rbp+0]
	#DEBUG_VALUE: __new_finish <- $r14
	.loc	4 464 1                 # /usr/include/c++/9/bits/vector.tcc:464:1
	addq	$4, %r14
.Ltmp304:
	#DEBUG_VALUE: __new_finish <- $r14
	.loc	4 500 1                 # /usr/include/c++/9/bits/vector.tcc:500:1
	testq	%r12, %r12
	je	.LBB1_146
.Ltmp305:
# %bb.145:                              # %L.B2065.i216
	#DEBUG_VALUE: __new_finish <- $r14
	#DEBUG_VALUE: __elems_before <- [DW_OP_constu 2, DW_OP_shra, DW_OP_stack_value] $rbx
	#DEBUG_VALUE: __old_start <- $r12
	#DEBUG_VALUE:  <- [DW_OP_constu 96, DW_OP_minus] [$rbp+0]
	#DEBUG_VALUE: _M_realloc_insert: <- [DW_OP_constu 96, DW_OP_minus] [$rbp+0]
	#DEBUG_VALUE: nBlocks <- [DW_OP_constu 88, DW_OP_minus] [$rbp+0]
	#DEBUG_VALUE: sortBlocklistByDimension:dimension <- [DW_OP_constu 136, DW_OP_minus] [$rbp+0]
	#DEBUG_VALUE: sortBlocklistByDimension:blocks <- [DW_OP_constu 208, DW_OP_minus] [$rbp+0]
	#DEBUG_VALUE: sortBlocklistByDimension:columnBlockOffsets <- [DW_OP_constu 72, DW_OP_minus] [$rbp+0]
	#DEBUG_VALUE: sortBlocklistByDimension:columnNumBlocks <- [DW_OP_constu 128, DW_OP_minus] [$rbp+0]
	#DEBUG_VALUE: sortBlocklistByDimension:setColumnOffsets <- [DW_OP_constu 96, DW_OP_minus] [$rbp+0]
	#DEBUG_VALUE: sortBlocklistByDimension:setNumColumns <- [DW_OP_plus_uconst 16] [$rbp+0]
	.loc	4 351 1                 # /usr/include/c++/9/bits/vector.tcc:351:1
	movq	%r12, %rdi
	vzeroupper
	callq	_ZdlPv
.Ltmp306:
.LBB1_146:                              # %_ZNSt6vectorIjSaIjEE17_M_realloc_insertIJjEEEvN9__gnu_cxx17__normal_iteratorIPjS1_EEDpOT_.exit219
	#DEBUG_VALUE: __new_finish <- $r14
	#DEBUG_VALUE: __elems_before <- [DW_OP_constu 2, DW_OP_shra, DW_OP_stack_value] $rbx
	#DEBUG_VALUE: __old_start <- $r12
	#DEBUG_VALUE:  <- [DW_OP_constu 96, DW_OP_minus] [$rbp+0]
	#DEBUG_VALUE: _M_realloc_insert: <- [DW_OP_constu 96, DW_OP_minus] [$rbp+0]
	#DEBUG_VALUE: nBlocks <- [DW_OP_constu 88, DW_OP_minus] [$rbp+0]
	#DEBUG_VALUE: sortBlocklistByDimension:dimension <- [DW_OP_constu 136, DW_OP_minus] [$rbp+0]
	#DEBUG_VALUE: sortBlocklistByDimension:blocks <- [DW_OP_constu 208, DW_OP_minus] [$rbp+0]
	#DEBUG_VALUE: sortBlocklistByDimension:columnBlockOffsets <- [DW_OP_constu 72, DW_OP_minus] [$rbp+0]
	#DEBUG_VALUE: sortBlocklistByDimension:columnNumBlocks <- [DW_OP_constu 128, DW_OP_minus] [$rbp+0]
	#DEBUG_VALUE: sortBlocklistByDimension:setColumnOffsets <- [DW_OP_constu 96, DW_OP_minus] [$rbp+0]
	#DEBUG_VALUE: sortBlocklistByDimension:setNumColumns <- [DW_OP_plus_uconst 16] [$rbp+0]
	.loc	4 0 1 is_stmt 0         # /usr/include/c++/9/bits/vector.tcc:0:1
	movq	-96(%rbp), %rax         # 8-byte Reload
	.loc	4 502 1 is_stmt 1       # /usr/include/c++/9/bits/vector.tcc:502:1
	movq	%r15, (%rax)
	.loc	4 503 1                 # /usr/include/c++/9/bits/vector.tcc:503:1
	movq	%r14, 8(%rax)
	.loc	4 504 1                 # /usr/include/c++/9/bits/vector.tcc:504:1
	leaq	(%r15,%r13,4), %rax
	movq	-184(%rbp), %rcx        # 8-byte Reload
	movq	-72(%rbp), %r12         # 8-byte Reload
.Ltmp307:
	.loc	4 0 1 is_stmt 0         # /usr/include/c++/9/bits/vector.tcc:0:1
	movq	-56(%rbp), %r14         # 8-byte Reload
.Ltmp308:
	jmp	.LBB1_149
.Ltmp309:
.LBB1_147:
	#DEBUG_VALUE: nBlocks <- [DW_OP_constu 88, DW_OP_minus] [$rbp+0]
	#DEBUG_VALUE: sortBlocklistByDimension:dimension <- [DW_OP_constu 136, DW_OP_minus] [$rbp+0]
	#DEBUG_VALUE: sortBlocklistByDimension:blocks <- [DW_OP_constu 208, DW_OP_minus] [$rbp+0]
	#DEBUG_VALUE: sortBlocklistByDimension:columnBlockOffsets <- [DW_OP_constu 72, DW_OP_minus] [$rbp+0]
	#DEBUG_VALUE: sortBlocklistByDimension:columnNumBlocks <- [DW_OP_constu 128, DW_OP_minus] [$rbp+0]
	#DEBUG_VALUE: sortBlocklistByDimension:setColumnOffsets <- [DW_OP_constu 96, DW_OP_minus] [$rbp+0]
	#DEBUG_VALUE: sortBlocklistByDimension:setNumColumns <- [DW_OP_plus_uconst 16] [$rbp+0]
	xorl	%eax, %eax
.Ltmp310:
.LBB1_148:                              # %L..inline.41387
	#DEBUG_VALUE: nBlocks <- [DW_OP_constu 88, DW_OP_minus] [$rbp+0]
	#DEBUG_VALUE: sortBlocklistByDimension:dimension <- [DW_OP_constu 136, DW_OP_minus] [$rbp+0]
	#DEBUG_VALUE: sortBlocklistByDimension:blocks <- [DW_OP_constu 208, DW_OP_minus] [$rbp+0]
	#DEBUG_VALUE: sortBlocklistByDimension:columnBlockOffsets <- [DW_OP_constu 72, DW_OP_minus] [$rbp+0]
	#DEBUG_VALUE: sortBlocklistByDimension:columnNumBlocks <- [DW_OP_constu 128, DW_OP_minus] [$rbp+0]
	#DEBUG_VALUE: sortBlocklistByDimension:setColumnOffsets <- [DW_OP_constu 96, DW_OP_minus] [$rbp+0]
	#DEBUG_VALUE: sortBlocklistByDimension:setNumColumns <- [DW_OP_plus_uconst 16] [$rbp+0]
	.loc	1 1201 1 is_stmt 1      # vlasovsolver/cpu_acc_sort_blocks.cpp:1201:1
	addq	$4, %rax
.Ltmp311:
.LBB1_149:                              # %L..inline.41387
	#DEBUG_VALUE: nBlocks <- [DW_OP_constu 88, DW_OP_minus] [$rbp+0]
	#DEBUG_VALUE: sortBlocklistByDimension:dimension <- [DW_OP_constu 136, DW_OP_minus] [$rbp+0]
	#DEBUG_VALUE: sortBlocklistByDimension:blocks <- [DW_OP_constu 208, DW_OP_minus] [$rbp+0]
	#DEBUG_VALUE: sortBlocklistByDimension:columnBlockOffsets <- [DW_OP_constu 72, DW_OP_minus] [$rbp+0]
	#DEBUG_VALUE: sortBlocklistByDimension:columnNumBlocks <- [DW_OP_constu 128, DW_OP_minus] [$rbp+0]
	#DEBUG_VALUE: sortBlocklistByDimension:setColumnOffsets <- [DW_OP_constu 96, DW_OP_minus] [$rbp+0]
	#DEBUG_VALUE: sortBlocklistByDimension:setNumColumns <- [DW_OP_plus_uconst 16] [$rbp+0]
	#DEBUG_VALUE: setNumColumns <- undef
	.loc	1 0 0 is_stmt 0         # vlasovsolver/cpu_acc_sort_blocks.cpp:0:0
	movq	%rax, (%rcx)
.Ltmp312:
	.loc	1 64 1 is_stmt 1        # vlasovsolver/cpu_acc_sort_blocks.cpp:64:1
	cmpl	$0, -88(%rbp)           # 4-byte Folded Reload
.Ltmp313:
	#DEBUG_VALUE: i <- 0
	.loc	1 128 1                 # vlasovsolver/cpu_acc_sort_blocks.cpp:128:1
	je	.LBB1_232
.Ltmp314:
# %bb.150:                              # %L.B1791
	#DEBUG_VALUE: i <- 0
	#DEBUG_VALUE: nBlocks <- [DW_OP_constu 88, DW_OP_minus] [$rbp+0]
	#DEBUG_VALUE: sortBlocklistByDimension:dimension <- [DW_OP_constu 136, DW_OP_minus] [$rbp+0]
	#DEBUG_VALUE: sortBlocklistByDimension:blocks <- [DW_OP_constu 208, DW_OP_minus] [$rbp+0]
	#DEBUG_VALUE: sortBlocklistByDimension:columnBlockOffsets <- [DW_OP_constu 72, DW_OP_minus] [$rbp+0]
	#DEBUG_VALUE: sortBlocklistByDimension:columnNumBlocks <- [DW_OP_constu 128, DW_OP_minus] [$rbp+0]
	#DEBUG_VALUE: sortBlocklistByDimension:setColumnOffsets <- [DW_OP_constu 96, DW_OP_minus] [$rbp+0]
	#DEBUG_VALUE: sortBlocklistByDimension:setNumColumns <- [DW_OP_plus_uconst 16] [$rbp+0]
	movl	-136(%rbp), %eax        # 4-byte Reload
	shlq	$2, %rax
	movq	%rax, -104(%rbp)        # 8-byte Spill
	movq	-128(%rbp), %rax        # 8-byte Reload
.Ltmp315:
	.loc	1 0 0 is_stmt 0         # vlasovsolver/cpu_acc_sort_blocks.cpp:0:0
	leaq	8(%rax), %rcx
	movq	%rcx, -152(%rbp)        # 8-byte Spill
	leaq	16(%rax), %rax
	movq	%rax, -136(%rbp)        # 8-byte Spill
.Ltmp316:
	.loc	1 155 1 is_stmt 1       # vlasovsolver/cpu_acc_sort_blocks.cpp:155:1
	movl	-88(%rbp), %eax         # 4-byte Reload
	movq	%rax, -144(%rbp)        # 8-byte Spill
	xorl	%r15d, %r15d
                                        # implicit-def: $ecx
                                        # implicit-def: $r13d
	jmp	.LBB1_154
.Ltmp317:
.LBB1_151:                              # %L.B1805
                                        #   in Loop: Header=BB1_154 Depth=1
	#DEBUG_VALUE: nBlocks <- [DW_OP_constu 88, DW_OP_minus] [$rbp+0]
	#DEBUG_VALUE: sortBlocklistByDimension:dimension <- [DW_OP_constu 136, DW_OP_minus] [$rbp+0]
	#DEBUG_VALUE: sortBlocklistByDimension:blocks <- [DW_OP_constu 208, DW_OP_minus] [$rbp+0]
	#DEBUG_VALUE: sortBlocklistByDimension:columnBlockOffsets <- [DW_OP_constu 72, DW_OP_minus] [$rbp+0]
	#DEBUG_VALUE: sortBlocklistByDimension:columnNumBlocks <- [DW_OP_constu 128, DW_OP_minus] [$rbp+0]
	#DEBUG_VALUE: sortBlocklistByDimension:setColumnOffsets <- [DW_OP_constu 96, DW_OP_minus] [$rbp+0]
	#DEBUG_VALUE: sortBlocklistByDimension:setNumColumns <- [DW_OP_plus_uconst 16] [$rbp+0]
	.loc	1 1201 1                # vlasovsolver/cpu_acc_sort_blocks.cpp:1201:1
	movl	%r14d, (%rbx)
	movq	8(%rcx), %rax
.Ltmp318:
.LBB1_152:                              # %L..inline.41846
                                        #   in Loop: Header=BB1_154 Depth=1
	#DEBUG_VALUE: nBlocks <- [DW_OP_constu 88, DW_OP_minus] [$rbp+0]
	#DEBUG_VALUE: sortBlocklistByDimension:dimension <- [DW_OP_constu 136, DW_OP_minus] [$rbp+0]
	#DEBUG_VALUE: sortBlocklistByDimension:blocks <- [DW_OP_constu 208, DW_OP_minus] [$rbp+0]
	#DEBUG_VALUE: sortBlocklistByDimension:columnBlockOffsets <- [DW_OP_constu 72, DW_OP_minus] [$rbp+0]
	#DEBUG_VALUE: sortBlocklistByDimension:columnNumBlocks <- [DW_OP_constu 128, DW_OP_minus] [$rbp+0]
	#DEBUG_VALUE: sortBlocklistByDimension:setColumnOffsets <- [DW_OP_constu 96, DW_OP_minus] [$rbp+0]
	#DEBUG_VALUE: sortBlocklistByDimension:setNumColumns <- [DW_OP_plus_uconst 16] [$rbp+0]
	.loc	1 0 1 is_stmt 0         # vlasovsolver/cpu_acc_sort_blocks.cpp:0:1
	movq	-56(%rbp), %r14         # 8-byte Reload
	movl	-64(%rbp), %edx         # 4-byte Reload
	.loc	1 1201 1                # vlasovsolver/cpu_acc_sort_blocks.cpp:1201:1
	addq	$4, %rax
	movq	%rax, 8(%rcx)
.Ltmp319:
	.p2align	4, 0x90
.LBB1_153:                              # %L.B0022
                                        #   in Loop: Header=BB1_154 Depth=1
	#DEBUG_VALUE: nBlocks <- [DW_OP_constu 88, DW_OP_minus] [$rbp+0]
	#DEBUG_VALUE: sortBlocklistByDimension:dimension <- [DW_OP_constu 136, DW_OP_minus] [$rbp+0]
	#DEBUG_VALUE: sortBlocklistByDimension:blocks <- [DW_OP_constu 208, DW_OP_minus] [$rbp+0]
	#DEBUG_VALUE: sortBlocklistByDimension:columnBlockOffsets <- [DW_OP_constu 72, DW_OP_minus] [$rbp+0]
	#DEBUG_VALUE: sortBlocklistByDimension:columnNumBlocks <- [DW_OP_constu 128, DW_OP_minus] [$rbp+0]
	#DEBUG_VALUE: sortBlocklistByDimension:setColumnOffsets <- [DW_OP_constu 96, DW_OP_minus] [$rbp+0]
	#DEBUG_VALUE: sortBlocklistByDimension:setNumColumns <- [DW_OP_plus_uconst 16] [$rbp+0]
	#DEBUG_VALUE: i <- $r15
	#DEBUG_VALUE: prev_column_id <- $esi
	#DEBUG_VALUE: prev_dimension_id <- $edx
	.loc	1 155 1 is_stmt 1       # vlasovsolver/cpu_acc_sort_blocks.cpp:155:1
	incq	%r15
.Ltmp320:
	#DEBUG_VALUE: i <- $r15
	.loc	1 0 1 is_stmt 0         # vlasovsolver/cpu_acc_sort_blocks.cpp:0:1
	movl	%edx, %ecx
.Ltmp321:
	#DEBUG_VALUE: prev_dimension_id <- $ecx
	movl	%esi, %r13d
.Ltmp322:
	#DEBUG_VALUE: prev_column_id <- $r13d
	#DEBUG_VALUE: prev_column_id <- $r13d
	.loc	1 155 1                 # vlasovsolver/cpu_acc_sort_blocks.cpp:155:1
	cmpq	%r15, -144(%rbp)        # 8-byte Folded Reload
	je	.LBB1_232
.Ltmp323:
.LBB1_154:                              # %L.B0019
                                        # =>This Inner Loop Header: Depth=1
	#DEBUG_VALUE: nBlocks <- [DW_OP_constu 88, DW_OP_minus] [$rbp+0]
	#DEBUG_VALUE: sortBlocklistByDimension:dimension <- [DW_OP_constu 136, DW_OP_minus] [$rbp+0]
	#DEBUG_VALUE: sortBlocklistByDimension:blocks <- [DW_OP_constu 208, DW_OP_minus] [$rbp+0]
	#DEBUG_VALUE: sortBlocklistByDimension:columnBlockOffsets <- [DW_OP_constu 72, DW_OP_minus] [$rbp+0]
	#DEBUG_VALUE: sortBlocklistByDimension:columnNumBlocks <- [DW_OP_constu 128, DW_OP_minus] [$rbp+0]
	#DEBUG_VALUE: sortBlocklistByDimension:setColumnOffsets <- [DW_OP_constu 96, DW_OP_minus] [$rbp+0]
	#DEBUG_VALUE: sortBlocklistByDimension:setNumColumns <- [DW_OP_plus_uconst 16] [$rbp+0]
	#DEBUG_VALUE: prev_column_id <- $r13d
	#DEBUG_VALUE: prev_dimension_id <- $ecx
	.loc	1 362 1 is_stmt 1       # vlasovsolver/cpu_acc_sort_blocks.cpp:362:1
	imulq	$336, (%r14), %rsi      # imm = 0x150
	movq	_ZN5vmesh12VelocityMeshIjjE14meshParametersE(%rip), %rdi
	addq	-104(%rbp), %rdi        # 8-byte Folded Reload
	.loc	1 363 1                 # vlasovsolver/cpu_acc_sort_blocks.cpp:363:1
	movq	-176(%rbp), %rdx
	movl	(%rdx,%r15,8), %eax
	.loc	1 1044 1                # vlasovsolver/cpu_acc_sort_blocks.cpp:1044:1
	movl	4(%rdx,%r15,8), %ebx
	.loc	1 363 1                 # vlasovsolver/cpu_acc_sort_blocks.cpp:363:1
	xorl	%edx, %edx
	divl	88(%rsi,%rdi)
	movl	%eax, %esi
	movq	-208(%rbp), %rax        # 8-byte Reload
	.loc	1 1044 1                # vlasovsolver/cpu_acc_sort_blocks.cpp:1044:1
	movl	%ebx, (%rax,%r15,4)
.Ltmp324:
	#DEBUG_VALUE: dimension_id <- $edx
	#DEBUG_VALUE: column_id <- $esi
	#DEBUG_VALUE: i <- $r15
	.loc	1 138 1                 # vlasovsolver/cpu_acc_sort_blocks.cpp:138:1
	testq	%r15, %r15
	je	.LBB1_153
.Ltmp325:
# %bb.155:                              # %L.B1792
                                        #   in Loop: Header=BB1_154 Depth=1
	#DEBUG_VALUE: i <- $r15
	#DEBUG_VALUE: column_id <- $esi
	#DEBUG_VALUE: dimension_id <- $edx
	#DEBUG_VALUE: prev_dimension_id <- $ecx
	#DEBUG_VALUE: prev_column_id <- $r13d
	#DEBUG_VALUE: nBlocks <- [DW_OP_constu 88, DW_OP_minus] [$rbp+0]
	#DEBUG_VALUE: sortBlocklistByDimension:dimension <- [DW_OP_constu 136, DW_OP_minus] [$rbp+0]
	#DEBUG_VALUE: sortBlocklistByDimension:blocks <- [DW_OP_constu 208, DW_OP_minus] [$rbp+0]
	#DEBUG_VALUE: sortBlocklistByDimension:columnBlockOffsets <- [DW_OP_constu 72, DW_OP_minus] [$rbp+0]
	#DEBUG_VALUE: sortBlocklistByDimension:columnNumBlocks <- [DW_OP_constu 128, DW_OP_minus] [$rbp+0]
	#DEBUG_VALUE: sortBlocklistByDimension:setColumnOffsets <- [DW_OP_constu 96, DW_OP_minus] [$rbp+0]
	#DEBUG_VALUE: sortBlocklistByDimension:setNumColumns <- [DW_OP_plus_uconst 16] [$rbp+0]
	cmpl	%r13d, %esi
	jne	.LBB1_157
.Ltmp326:
# %bb.156:                              # %L.B1792
                                        #   in Loop: Header=BB1_154 Depth=1
	#DEBUG_VALUE: i <- $r15
	#DEBUG_VALUE: column_id <- $esi
	#DEBUG_VALUE: dimension_id <- $edx
	#DEBUG_VALUE: prev_dimension_id <- $ecx
	#DEBUG_VALUE: prev_column_id <- $r13d
	#DEBUG_VALUE: nBlocks <- [DW_OP_constu 88, DW_OP_minus] [$rbp+0]
	#DEBUG_VALUE: sortBlocklistByDimension:dimension <- [DW_OP_constu 136, DW_OP_minus] [$rbp+0]
	#DEBUG_VALUE: sortBlocklistByDimension:blocks <- [DW_OP_constu 208, DW_OP_minus] [$rbp+0]
	#DEBUG_VALUE: sortBlocklistByDimension:columnBlockOffsets <- [DW_OP_constu 72, DW_OP_minus] [$rbp+0]
	#DEBUG_VALUE: sortBlocklistByDimension:columnNumBlocks <- [DW_OP_constu 128, DW_OP_minus] [$rbp+0]
	#DEBUG_VALUE: sortBlocklistByDimension:setColumnOffsets <- [DW_OP_constu 96, DW_OP_minus] [$rbp+0]
	#DEBUG_VALUE: sortBlocklistByDimension:setNumColumns <- [DW_OP_plus_uconst 16] [$rbp+0]
	incl	%ecx
.Ltmp327:
	cmpl	%ecx, %edx
	je	.LBB1_153
.Ltmp328:
.LBB1_157:                              # %L.B0023
                                        #   in Loop: Header=BB1_154 Depth=1
	#DEBUG_VALUE: i <- $r15
	#DEBUG_VALUE: column_id <- $esi
	#DEBUG_VALUE: dimension_id <- $edx
	#DEBUG_VALUE: prev_column_id <- $r13d
	#DEBUG_VALUE: nBlocks <- [DW_OP_constu 88, DW_OP_minus] [$rbp+0]
	#DEBUG_VALUE: sortBlocklistByDimension:dimension <- [DW_OP_constu 136, DW_OP_minus] [$rbp+0]
	#DEBUG_VALUE: sortBlocklistByDimension:blocks <- [DW_OP_constu 208, DW_OP_minus] [$rbp+0]
	#DEBUG_VALUE: sortBlocklistByDimension:columnBlockOffsets <- [DW_OP_constu 72, DW_OP_minus] [$rbp+0]
	#DEBUG_VALUE: sortBlocklistByDimension:columnNumBlocks <- [DW_OP_constu 128, DW_OP_minus] [$rbp+0]
	#DEBUG_VALUE: sortBlocklistByDimension:setColumnOffsets <- [DW_OP_constu 96, DW_OP_minus] [$rbp+0]
	#DEBUG_VALUE: sortBlocklistByDimension:setNumColumns <- [DW_OP_plus_uconst 16] [$rbp+0]
	.loc	1 0 1 is_stmt 0         # vlasovsolver/cpu_acc_sort_blocks.cpp:0:1
	movl	%edx, -64(%rbp)         # 4-byte Spill
.Ltmp329:
	#DEBUG_VALUE: dimension_id <- [DW_OP_constu 64, DW_OP_minus] [$rbp+0]
	movq	-112(%rbp), %rax        # 8-byte Reload
	.loc	1 142 1 is_stmt 1       # vlasovsolver/cpu_acc_sort_blocks.cpp:142:1
	movq	(%rax), %r14
	movq	-192(%rbp), %rcx        # 8-byte Reload
	cmpq	(%rcx), %r14
	movl	%esi, -48(%rbp)         # 4-byte Spill
	je	.LBB1_160
.Ltmp330:
# %bb.158:                              # %L.B1794
                                        #   in Loop: Header=BB1_154 Depth=1
	#DEBUG_VALUE: prev_column_id <- $r13d
	#DEBUG_VALUE: nBlocks <- [DW_OP_constu 88, DW_OP_minus] [$rbp+0]
	#DEBUG_VALUE: sortBlocklistByDimension:dimension <- [DW_OP_constu 136, DW_OP_minus] [$rbp+0]
	#DEBUG_VALUE: sortBlocklistByDimension:blocks <- [DW_OP_constu 208, DW_OP_minus] [$rbp+0]
	#DEBUG_VALUE: sortBlocklistByDimension:columnBlockOffsets <- [DW_OP_constu 72, DW_OP_minus] [$rbp+0]
	#DEBUG_VALUE: sortBlocklistByDimension:columnNumBlocks <- [DW_OP_constu 128, DW_OP_minus] [$rbp+0]
	#DEBUG_VALUE: sortBlocklistByDimension:setColumnOffsets <- [DW_OP_constu 96, DW_OP_minus] [$rbp+0]
	#DEBUG_VALUE: sortBlocklistByDimension:setNumColumns <- [DW_OP_plus_uconst 16] [$rbp+0]
	.loc	1 1189 1                # vlasovsolver/cpu_acc_sort_blocks.cpp:1189:1
	testq	%r14, %r14
	movabsq	$2305843009213693951, %rdx # imm = 0x1FFFFFFFFFFFFFFF
	je	.LBB1_173
.Ltmp331:
# %bb.159:                              # %L.B1795
                                        #   in Loop: Header=BB1_154 Depth=1
	#DEBUG_VALUE: prev_column_id <- $r13d
	#DEBUG_VALUE: nBlocks <- [DW_OP_constu 88, DW_OP_minus] [$rbp+0]
	#DEBUG_VALUE: sortBlocklistByDimension:dimension <- [DW_OP_constu 136, DW_OP_minus] [$rbp+0]
	#DEBUG_VALUE: sortBlocklistByDimension:blocks <- [DW_OP_constu 208, DW_OP_minus] [$rbp+0]
	#DEBUG_VALUE: sortBlocklistByDimension:columnBlockOffsets <- [DW_OP_constu 72, DW_OP_minus] [$rbp+0]
	#DEBUG_VALUE: sortBlocklistByDimension:columnNumBlocks <- [DW_OP_constu 128, DW_OP_minus] [$rbp+0]
	#DEBUG_VALUE: sortBlocklistByDimension:setColumnOffsets <- [DW_OP_constu 96, DW_OP_minus] [$rbp+0]
	#DEBUG_VALUE: sortBlocklistByDimension:setNumColumns <- [DW_OP_plus_uconst 16] [$rbp+0]
	#DEBUG_VALUE: i <- $r15
	movl	%r15d, (%r14)
	movq	(%rax), %rbx
	jmp	.LBB1_174
.Ltmp332:
.LBB1_160:                              # %L..inline.41470
                                        #   in Loop: Header=BB1_154 Depth=1
	#DEBUG_VALUE: prev_column_id <- $r13d
	#DEBUG_VALUE: nBlocks <- [DW_OP_constu 88, DW_OP_minus] [$rbp+0]
	#DEBUG_VALUE: sortBlocklistByDimension:dimension <- [DW_OP_constu 136, DW_OP_minus] [$rbp+0]
	#DEBUG_VALUE: sortBlocklistByDimension:blocks <- [DW_OP_constu 208, DW_OP_minus] [$rbp+0]
	#DEBUG_VALUE: sortBlocklistByDimension:columnBlockOffsets <- [DW_OP_constu 72, DW_OP_minus] [$rbp+0]
	#DEBUG_VALUE: sortBlocklistByDimension:columnNumBlocks <- [DW_OP_constu 128, DW_OP_minus] [$rbp+0]
	#DEBUG_VALUE: sortBlocklistByDimension:setColumnOffsets <- [DW_OP_constu 96, DW_OP_minus] [$rbp+0]
	#DEBUG_VALUE: sortBlocklistByDimension:setNumColumns <- [DW_OP_plus_uconst 16] [$rbp+0]
	#DEBUG_VALUE: _M_realloc_insert: <- [DW_OP_constu 72, DW_OP_minus] [$rbp+0]
	#DEBUG_VALUE:  <- [DW_OP_constu 72, DW_OP_minus] [$rbp+0]
	#DEBUG_VALUE: _M_realloc_insert:__position <- $r14
	.loc	4 1755 1                # /usr/include/c++/9/bits/vector.tcc:1755:1
	movq	(%r12), %r8
	subq	%r8, %r14
.Ltmp333:
	movq	%r14, %rcx
	sarq	$2, %rcx
	movabsq	$2305843009213693951, %rdx # imm = 0x1FFFFFFFFFFFFFFF
	cmpq	%rdx, %rcx
	je	.LBB1_275
.Ltmp334:
# %bb.161:                              # %L..inline.44646.i
                                        #   in Loop: Header=BB1_154 Depth=1
	#DEBUG_VALUE:  <- [DW_OP_constu 72, DW_OP_minus] [$rbp+0]
	#DEBUG_VALUE: _M_realloc_insert: <- [DW_OP_constu 72, DW_OP_minus] [$rbp+0]
	#DEBUG_VALUE: prev_column_id <- $r13d
	#DEBUG_VALUE: nBlocks <- [DW_OP_constu 88, DW_OP_minus] [$rbp+0]
	#DEBUG_VALUE: sortBlocklistByDimension:dimension <- [DW_OP_constu 136, DW_OP_minus] [$rbp+0]
	#DEBUG_VALUE: sortBlocklistByDimension:blocks <- [DW_OP_constu 208, DW_OP_minus] [$rbp+0]
	#DEBUG_VALUE: sortBlocklistByDimension:columnBlockOffsets <- [DW_OP_constu 72, DW_OP_minus] [$rbp+0]
	#DEBUG_VALUE: sortBlocklistByDimension:columnNumBlocks <- [DW_OP_constu 128, DW_OP_minus] [$rbp+0]
	#DEBUG_VALUE: sortBlocklistByDimension:setColumnOffsets <- [DW_OP_constu 96, DW_OP_minus] [$rbp+0]
	#DEBUG_VALUE: sortBlocklistByDimension:setNumColumns <- [DW_OP_plus_uconst 16] [$rbp+0]
	#DEBUG_VALUE: _M_realloc_insert:__position <- undef
	.loc	4 1758 1                # /usr/include/c++/9/bits/vector.tcc:1758:1
	testq	%rcx, %rcx
	movq	%rcx, %rax
	movl	$1, %esi
	cmoveq	%rsi, %rax
.Ltmp335:
	#DEBUG_VALUE: __old_finish <- undef
	#DEBUG_VALUE: __old_start <- $r8
	.loc	4 0 1 is_stmt 0         # /usr/include/c++/9/bits/vector.tcc:0:1
	movq	%rdx, %rsi
	.loc	4 1758 1                # /usr/include/c++/9/bits/vector.tcc:1758:1
	addq	%rcx, %rax
.Ltmp336:
	#DEBUG_VALUE: __elems_before <- [DW_OP_constu 2, DW_OP_shra, DW_OP_stack_value] $r14
	.loc	4 1759 1 is_stmt 1      # /usr/include/c++/9/bits/vector.tcc:1759:1
	jb	.LBB1_164
.Ltmp337:
# %bb.162:                              # %L..inline.44646.i
                                        #   in Loop: Header=BB1_154 Depth=1
	#DEBUG_VALUE: __elems_before <- [DW_OP_constu 2, DW_OP_shra, DW_OP_stack_value] $r14
	#DEBUG_VALUE: __old_start <- $r8
	#DEBUG_VALUE:  <- [DW_OP_constu 72, DW_OP_minus] [$rbp+0]
	#DEBUG_VALUE: _M_realloc_insert: <- [DW_OP_constu 72, DW_OP_minus] [$rbp+0]
	#DEBUG_VALUE: prev_column_id <- $r13d
	#DEBUG_VALUE: nBlocks <- [DW_OP_constu 88, DW_OP_minus] [$rbp+0]
	#DEBUG_VALUE: sortBlocklistByDimension:dimension <- [DW_OP_constu 136, DW_OP_minus] [$rbp+0]
	#DEBUG_VALUE: sortBlocklistByDimension:blocks <- [DW_OP_constu 208, DW_OP_minus] [$rbp+0]
	#DEBUG_VALUE: sortBlocklistByDimension:columnBlockOffsets <- [DW_OP_constu 72, DW_OP_minus] [$rbp+0]
	#DEBUG_VALUE: sortBlocklistByDimension:columnNumBlocks <- [DW_OP_constu 128, DW_OP_minus] [$rbp+0]
	#DEBUG_VALUE: sortBlocklistByDimension:setColumnOffsets <- [DW_OP_constu 96, DW_OP_minus] [$rbp+0]
	#DEBUG_VALUE: sortBlocklistByDimension:setNumColumns <- [DW_OP_plus_uconst 16] [$rbp+0]
	.loc	4 0 1 is_stmt 0         # /usr/include/c++/9/bits/vector.tcc:0:1
	movq	%rdx, %rsi
	.loc	4 1759 1                # /usr/include/c++/9/bits/vector.tcc:1759:1
	cmpq	%rdx, %rax
	ja	.LBB1_164
.Ltmp338:
# %bb.163:                              # %L..inline.44710.i
                                        #   in Loop: Header=BB1_154 Depth=1
	#DEBUG_VALUE: __elems_before <- [DW_OP_constu 2, DW_OP_shra, DW_OP_stack_value] $r14
	#DEBUG_VALUE: __old_start <- $r8
	#DEBUG_VALUE:  <- [DW_OP_constu 72, DW_OP_minus] [$rbp+0]
	#DEBUG_VALUE: _M_realloc_insert: <- [DW_OP_constu 72, DW_OP_minus] [$rbp+0]
	#DEBUG_VALUE: prev_column_id <- $r13d
	#DEBUG_VALUE: nBlocks <- [DW_OP_constu 88, DW_OP_minus] [$rbp+0]
	#DEBUG_VALUE: sortBlocklistByDimension:dimension <- [DW_OP_constu 136, DW_OP_minus] [$rbp+0]
	#DEBUG_VALUE: sortBlocklistByDimension:blocks <- [DW_OP_constu 208, DW_OP_minus] [$rbp+0]
	#DEBUG_VALUE: sortBlocklistByDimension:columnBlockOffsets <- [DW_OP_constu 72, DW_OP_minus] [$rbp+0]
	#DEBUG_VALUE: sortBlocklistByDimension:columnNumBlocks <- [DW_OP_constu 128, DW_OP_minus] [$rbp+0]
	#DEBUG_VALUE: sortBlocklistByDimension:setColumnOffsets <- [DW_OP_constu 96, DW_OP_minus] [$rbp+0]
	#DEBUG_VALUE: sortBlocklistByDimension:setNumColumns <- [DW_OP_plus_uconst 16] [$rbp+0]
	#DEBUG_VALUE: __len <- $rax
	.loc	4 0 1                   # /usr/include/c++/9/bits/vector.tcc:0:1
	movq	%rax, %rsi
	.loc	4 440 1 is_stmt 1       # /usr/include/c++/9/bits/vector.tcc:440:1
	testq	%rax, %rax
.Ltmp339:
	#DEBUG_VALUE: __len <- $rsi
	je	.LBB1_228
.Ltmp340:
.LBB1_164:                              # %L..inline.44774.i
                                        #   in Loop: Header=BB1_154 Depth=1
	#DEBUG_VALUE: __elems_before <- [DW_OP_constu 2, DW_OP_shra, DW_OP_stack_value] $r14
	#DEBUG_VALUE: __old_start <- $r8
	#DEBUG_VALUE:  <- [DW_OP_constu 72, DW_OP_minus] [$rbp+0]
	#DEBUG_VALUE: _M_realloc_insert: <- [DW_OP_constu 72, DW_OP_minus] [$rbp+0]
	#DEBUG_VALUE: prev_column_id <- $r13d
	#DEBUG_VALUE: nBlocks <- [DW_OP_constu 88, DW_OP_minus] [$rbp+0]
	#DEBUG_VALUE: sortBlocklistByDimension:dimension <- [DW_OP_constu 136, DW_OP_minus] [$rbp+0]
	#DEBUG_VALUE: sortBlocklistByDimension:blocks <- [DW_OP_constu 208, DW_OP_minus] [$rbp+0]
	#DEBUG_VALUE: sortBlocklistByDimension:columnBlockOffsets <- [DW_OP_constu 72, DW_OP_minus] [$rbp+0]
	#DEBUG_VALUE: sortBlocklistByDimension:columnNumBlocks <- [DW_OP_constu 128, DW_OP_minus] [$rbp+0]
	#DEBUG_VALUE: sortBlocklistByDimension:setColumnOffsets <- [DW_OP_constu 96, DW_OP_minus] [$rbp+0]
	#DEBUG_VALUE: sortBlocklistByDimension:setNumColumns <- [DW_OP_plus_uconst 16] [$rbp+0]
	.loc	4 0 1 is_stmt 0         # /usr/include/c++/9/bits/vector.tcc:0:1
	movq	%r8, %rbx
.Ltmp341:
	#DEBUG_VALUE: __old_start <- $rbx
	movq	%rsi, -80(%rbp)         # 8-byte Spill
	.loc	4 343 1 is_stmt 1       # /usr/include/c++/9/bits/vector.tcc:343:1
	leaq	(,%rsi,4), %rdi
.Ltmp11:
	vzeroupper
	callq	_Znwm
.Ltmp12:
.Ltmp342:
# %bb.165:                              #   in Loop: Header=BB1_154 Depth=1
	#DEBUG_VALUE: __old_start <- $rbx
	#DEBUG_VALUE: __elems_before <- [DW_OP_constu 2, DW_OP_shra, DW_OP_stack_value] $r14
	#DEBUG_VALUE:  <- [DW_OP_constu 72, DW_OP_minus] [$rbp+0]
	#DEBUG_VALUE: _M_realloc_insert: <- [DW_OP_constu 72, DW_OP_minus] [$rbp+0]
	#DEBUG_VALUE: prev_column_id <- $r13d
	#DEBUG_VALUE: nBlocks <- [DW_OP_constu 88, DW_OP_minus] [$rbp+0]
	#DEBUG_VALUE: sortBlocklistByDimension:dimension <- [DW_OP_constu 136, DW_OP_minus] [$rbp+0]
	#DEBUG_VALUE: sortBlocklistByDimension:blocks <- [DW_OP_constu 208, DW_OP_minus] [$rbp+0]
	#DEBUG_VALUE: sortBlocklistByDimension:columnBlockOffsets <- [DW_OP_constu 72, DW_OP_minus] [$rbp+0]
	#DEBUG_VALUE: sortBlocklistByDimension:columnNumBlocks <- [DW_OP_constu 128, DW_OP_minus] [$rbp+0]
	#DEBUG_VALUE: sortBlocklistByDimension:setColumnOffsets <- [DW_OP_constu 96, DW_OP_minus] [$rbp+0]
	#DEBUG_VALUE: sortBlocklistByDimension:setNumColumns <- [DW_OP_plus_uconst 16] [$rbp+0]
	.loc	4 0 1 is_stmt 0         # /usr/include/c++/9/bits/vector.tcc:0:1
	movq	%rax, %r12
	movl	-48(%rbp), %esi         # 4-byte Reload
	movq	%rbx, %r8
.Ltmp343:
.LBB1_166:                              # %L..inline.44775.i
                                        #   in Loop: Header=BB1_154 Depth=1
	#DEBUG_VALUE: __elems_before <- [DW_OP_constu 2, DW_OP_shra, DW_OP_stack_value] $r14
	#DEBUG_VALUE:  <- [DW_OP_constu 72, DW_OP_minus] [$rbp+0]
	#DEBUG_VALUE: _M_realloc_insert: <- [DW_OP_constu 72, DW_OP_minus] [$rbp+0]
	#DEBUG_VALUE: prev_column_id <- $r13d
	#DEBUG_VALUE: nBlocks <- [DW_OP_constu 88, DW_OP_minus] [$rbp+0]
	#DEBUG_VALUE: sortBlocklistByDimension:dimension <- [DW_OP_constu 136, DW_OP_minus] [$rbp+0]
	#DEBUG_VALUE: sortBlocklistByDimension:blocks <- [DW_OP_constu 208, DW_OP_minus] [$rbp+0]
	#DEBUG_VALUE: sortBlocklistByDimension:columnBlockOffsets <- [DW_OP_constu 72, DW_OP_minus] [$rbp+0]
	#DEBUG_VALUE: sortBlocklistByDimension:columnNumBlocks <- [DW_OP_constu 128, DW_OP_minus] [$rbp+0]
	#DEBUG_VALUE: sortBlocklistByDimension:setColumnOffsets <- [DW_OP_constu 96, DW_OP_minus] [$rbp+0]
	#DEBUG_VALUE: sortBlocklistByDimension:setNumColumns <- [DW_OP_plus_uconst 16] [$rbp+0]
	movq	%r14, %rdx
	andq	$-4, %rdx
.Ltmp344:
	#DEBUG_VALUE: __new_finish <- $r12
	#DEBUG_VALUE: __new_start <- undef
	.loc	4 484 1 is_stmt 1       # /usr/include/c++/9/bits/vector.tcc:484:1
	movq	%r12, %rbx
	addq	%rdx, %rbx
	je	.LBB1_168
.Ltmp345:
# %bb.167:                              # %L.B1989.i
                                        #   in Loop: Header=BB1_154 Depth=1
	#DEBUG_VALUE: __new_finish <- $r12
	#DEBUG_VALUE: __elems_before <- [DW_OP_constu 2, DW_OP_shra, DW_OP_stack_value] $r14
	#DEBUG_VALUE:  <- [DW_OP_constu 72, DW_OP_minus] [$rbp+0]
	#DEBUG_VALUE: _M_realloc_insert: <- [DW_OP_constu 72, DW_OP_minus] [$rbp+0]
	#DEBUG_VALUE: prev_column_id <- $r13d
	#DEBUG_VALUE: nBlocks <- [DW_OP_constu 88, DW_OP_minus] [$rbp+0]
	#DEBUG_VALUE: sortBlocklistByDimension:dimension <- [DW_OP_constu 136, DW_OP_minus] [$rbp+0]
	#DEBUG_VALUE: sortBlocklistByDimension:blocks <- [DW_OP_constu 208, DW_OP_minus] [$rbp+0]
	#DEBUG_VALUE: sortBlocklistByDimension:columnBlockOffsets <- [DW_OP_constu 72, DW_OP_minus] [$rbp+0]
	#DEBUG_VALUE: sortBlocklistByDimension:columnNumBlocks <- [DW_OP_constu 128, DW_OP_minus] [$rbp+0]
	#DEBUG_VALUE: sortBlocklistByDimension:setColumnOffsets <- [DW_OP_constu 96, DW_OP_minus] [$rbp+0]
	#DEBUG_VALUE: sortBlocklistByDimension:setNumColumns <- [DW_OP_plus_uconst 16] [$rbp+0]
	movl	%r15d, (%rbx)
.Ltmp346:
.LBB1_168:                              # %L..inline.44823.i
                                        #   in Loop: Header=BB1_154 Depth=1
	#DEBUG_VALUE: __new_finish <- $r12
	#DEBUG_VALUE: __elems_before <- [DW_OP_constu 2, DW_OP_shra, DW_OP_stack_value] $r14
	#DEBUG_VALUE:  <- [DW_OP_constu 72, DW_OP_minus] [$rbp+0]
	#DEBUG_VALUE: _M_realloc_insert: <- [DW_OP_constu 72, DW_OP_minus] [$rbp+0]
	#DEBUG_VALUE: prev_column_id <- $r13d
	#DEBUG_VALUE: nBlocks <- [DW_OP_constu 88, DW_OP_minus] [$rbp+0]
	#DEBUG_VALUE: sortBlocklistByDimension:dimension <- [DW_OP_constu 136, DW_OP_minus] [$rbp+0]
	#DEBUG_VALUE: sortBlocklistByDimension:blocks <- [DW_OP_constu 208, DW_OP_minus] [$rbp+0]
	#DEBUG_VALUE: sortBlocklistByDimension:columnBlockOffsets <- [DW_OP_constu 72, DW_OP_minus] [$rbp+0]
	#DEBUG_VALUE: sortBlocklistByDimension:columnNumBlocks <- [DW_OP_constu 128, DW_OP_minus] [$rbp+0]
	#DEBUG_VALUE: sortBlocklistByDimension:setColumnOffsets <- [DW_OP_constu 96, DW_OP_minus] [$rbp+0]
	#DEBUG_VALUE: sortBlocklistByDimension:setNumColumns <- [DW_OP_plus_uconst 16] [$rbp+0]
	#DEBUG_VALUE: __new_finish <- 0
	.loc	4 466 1                 # /usr/include/c++/9/bits/vector.tcc:466:1
	cmpq	$4, %r14
	jl	.LBB1_170
.Ltmp347:
# %bb.169:                              # %L.B1990.i
                                        #   in Loop: Header=BB1_154 Depth=1
	#DEBUG_VALUE: __new_finish <- 0
	#DEBUG_VALUE: __elems_before <- [DW_OP_constu 2, DW_OP_shra, DW_OP_stack_value] $r14
	#DEBUG_VALUE:  <- [DW_OP_constu 72, DW_OP_minus] [$rbp+0]
	#DEBUG_VALUE: _M_realloc_insert: <- [DW_OP_constu 72, DW_OP_minus] [$rbp+0]
	#DEBUG_VALUE: prev_column_id <- $r13d
	#DEBUG_VALUE: nBlocks <- [DW_OP_constu 88, DW_OP_minus] [$rbp+0]
	#DEBUG_VALUE: sortBlocklistByDimension:dimension <- [DW_OP_constu 136, DW_OP_minus] [$rbp+0]
	#DEBUG_VALUE: sortBlocklistByDimension:blocks <- [DW_OP_constu 208, DW_OP_minus] [$rbp+0]
	#DEBUG_VALUE: sortBlocklistByDimension:columnBlockOffsets <- [DW_OP_constu 72, DW_OP_minus] [$rbp+0]
	#DEBUG_VALUE: sortBlocklistByDimension:columnNumBlocks <- [DW_OP_constu 128, DW_OP_minus] [$rbp+0]
	#DEBUG_VALUE: sortBlocklistByDimension:setColumnOffsets <- [DW_OP_constu 96, DW_OP_minus] [$rbp+0]
	#DEBUG_VALUE: sortBlocklistByDimension:setNumColumns <- [DW_OP_plus_uconst 16] [$rbp+0]
	movq	%r12, %rdi
	movq	%r8, %rsi
	movq	%r8, %r14
.Ltmp348:
	vzeroupper
	callq	memmove
	movq	%r14, %r8
	movl	-48(%rbp), %esi         # 4-byte Reload
.Ltmp349:
.LBB1_170:                              # %L..inline.44971.i
                                        #   in Loop: Header=BB1_154 Depth=1
	#DEBUG_VALUE: __new_finish <- 0
	#DEBUG_VALUE:  <- [DW_OP_constu 72, DW_OP_minus] [$rbp+0]
	#DEBUG_VALUE: _M_realloc_insert: <- [DW_OP_constu 72, DW_OP_minus] [$rbp+0]
	#DEBUG_VALUE: prev_column_id <- $r13d
	#DEBUG_VALUE: nBlocks <- [DW_OP_constu 88, DW_OP_minus] [$rbp+0]
	#DEBUG_VALUE: sortBlocklistByDimension:dimension <- [DW_OP_constu 136, DW_OP_minus] [$rbp+0]
	#DEBUG_VALUE: sortBlocklistByDimension:blocks <- [DW_OP_constu 208, DW_OP_minus] [$rbp+0]
	#DEBUG_VALUE: sortBlocklistByDimension:columnBlockOffsets <- [DW_OP_constu 72, DW_OP_minus] [$rbp+0]
	#DEBUG_VALUE: sortBlocklistByDimension:columnNumBlocks <- [DW_OP_constu 128, DW_OP_minus] [$rbp+0]
	#DEBUG_VALUE: sortBlocklistByDimension:setColumnOffsets <- [DW_OP_constu 96, DW_OP_minus] [$rbp+0]
	#DEBUG_VALUE: sortBlocklistByDimension:setNumColumns <- [DW_OP_plus_uconst 16] [$rbp+0]
	#DEBUG_VALUE: __new_finish <- $rbx
	.loc	4 464 1                 # /usr/include/c++/9/bits/vector.tcc:464:1
	leaq	4(%rbx), %r14
.Ltmp350:
	#DEBUG_VALUE: __new_finish <- $r14
	.loc	4 500 1                 # /usr/include/c++/9/bits/vector.tcc:500:1
	testq	%r8, %r8
	je	.LBB1_172
.Ltmp351:
# %bb.171:                              # %L.B1994.i
                                        #   in Loop: Header=BB1_154 Depth=1
	#DEBUG_VALUE: __new_finish <- $r14
	#DEBUG_VALUE:  <- [DW_OP_constu 72, DW_OP_minus] [$rbp+0]
	#DEBUG_VALUE: _M_realloc_insert: <- [DW_OP_constu 72, DW_OP_minus] [$rbp+0]
	#DEBUG_VALUE: prev_column_id <- $r13d
	#DEBUG_VALUE: nBlocks <- [DW_OP_constu 88, DW_OP_minus] [$rbp+0]
	#DEBUG_VALUE: sortBlocklistByDimension:dimension <- [DW_OP_constu 136, DW_OP_minus] [$rbp+0]
	#DEBUG_VALUE: sortBlocklistByDimension:blocks <- [DW_OP_constu 208, DW_OP_minus] [$rbp+0]
	#DEBUG_VALUE: sortBlocklistByDimension:columnBlockOffsets <- [DW_OP_constu 72, DW_OP_minus] [$rbp+0]
	#DEBUG_VALUE: sortBlocklistByDimension:columnNumBlocks <- [DW_OP_constu 128, DW_OP_minus] [$rbp+0]
	#DEBUG_VALUE: sortBlocklistByDimension:setColumnOffsets <- [DW_OP_constu 96, DW_OP_minus] [$rbp+0]
	#DEBUG_VALUE: sortBlocklistByDimension:setNumColumns <- [DW_OP_plus_uconst 16] [$rbp+0]
	.loc	4 351 1                 # /usr/include/c++/9/bits/vector.tcc:351:1
	movq	%r8, %rdi
	vzeroupper
	callq	_ZdlPv
	movl	-48(%rbp), %esi         # 4-byte Reload
.Ltmp352:
.LBB1_172:                              # %_ZNSt6vectorIjSaIjEE17_M_realloc_insertIJRKjEEEvN9__gnu_cxx17__normal_iteratorIPjS1_EEDpOT_.exit
                                        #   in Loop: Header=BB1_154 Depth=1
	#DEBUG_VALUE: __new_finish <- $r14
	#DEBUG_VALUE:  <- [DW_OP_constu 72, DW_OP_minus] [$rbp+0]
	#DEBUG_VALUE: _M_realloc_insert: <- [DW_OP_constu 72, DW_OP_minus] [$rbp+0]
	#DEBUG_VALUE: prev_column_id <- $r13d
	#DEBUG_VALUE: nBlocks <- [DW_OP_constu 88, DW_OP_minus] [$rbp+0]
	#DEBUG_VALUE: sortBlocklistByDimension:dimension <- [DW_OP_constu 136, DW_OP_minus] [$rbp+0]
	#DEBUG_VALUE: sortBlocklistByDimension:blocks <- [DW_OP_constu 208, DW_OP_minus] [$rbp+0]
	#DEBUG_VALUE: sortBlocklistByDimension:columnBlockOffsets <- [DW_OP_constu 72, DW_OP_minus] [$rbp+0]
	#DEBUG_VALUE: sortBlocklistByDimension:columnNumBlocks <- [DW_OP_constu 128, DW_OP_minus] [$rbp+0]
	#DEBUG_VALUE: sortBlocklistByDimension:setColumnOffsets <- [DW_OP_constu 96, DW_OP_minus] [$rbp+0]
	#DEBUG_VALUE: sortBlocklistByDimension:setNumColumns <- [DW_OP_plus_uconst 16] [$rbp+0]
	.loc	4 0 1 is_stmt 0         # /usr/include/c++/9/bits/vector.tcc:0:1
	movq	-72(%rbp), %rcx         # 8-byte Reload
	.loc	4 502 1 is_stmt 1       # /usr/include/c++/9/bits/vector.tcc:502:1
	movq	%r12, (%rcx)
	.loc	4 503 1                 # /usr/include/c++/9/bits/vector.tcc:503:1
	movq	%r14, 8(%rcx)
	movq	-80(%rbp), %rax         # 8-byte Reload
	.loc	4 504 1                 # /usr/include/c++/9/bits/vector.tcc:504:1
	leaq	(%r12,%rax,4), %rax
	movq	%rax, 16(%rcx)
	movabsq	$2305843009213693951, %rdx # imm = 0x1FFFFFFFFFFFFFFF
	movq	-152(%rbp), %rcx        # 8-byte Reload
	jmp	.LBB1_175
.Ltmp353:
.LBB1_173:                              #   in Loop: Header=BB1_154 Depth=1
	#DEBUG_VALUE: prev_column_id <- $r13d
	#DEBUG_VALUE: nBlocks <- [DW_OP_constu 88, DW_OP_minus] [$rbp+0]
	#DEBUG_VALUE: sortBlocklistByDimension:dimension <- [DW_OP_constu 136, DW_OP_minus] [$rbp+0]
	#DEBUG_VALUE: sortBlocklistByDimension:blocks <- [DW_OP_constu 208, DW_OP_minus] [$rbp+0]
	#DEBUG_VALUE: sortBlocklistByDimension:columnBlockOffsets <- [DW_OP_constu 72, DW_OP_minus] [$rbp+0]
	#DEBUG_VALUE: sortBlocklistByDimension:columnNumBlocks <- [DW_OP_constu 128, DW_OP_minus] [$rbp+0]
	#DEBUG_VALUE: sortBlocklistByDimension:setColumnOffsets <- [DW_OP_constu 96, DW_OP_minus] [$rbp+0]
	#DEBUG_VALUE: sortBlocklistByDimension:setNumColumns <- [DW_OP_plus_uconst 16] [$rbp+0]
	.loc	1 1189 1                # vlasovsolver/cpu_acc_sort_blocks.cpp:1189:1
	xorl	%ebx, %ebx
.Ltmp354:
.LBB1_174:                              # %L..inline.41511
                                        #   in Loop: Header=BB1_154 Depth=1
	#DEBUG_VALUE: prev_column_id <- $r13d
	#DEBUG_VALUE: nBlocks <- [DW_OP_constu 88, DW_OP_minus] [$rbp+0]
	#DEBUG_VALUE: sortBlocklistByDimension:dimension <- [DW_OP_constu 136, DW_OP_minus] [$rbp+0]
	#DEBUG_VALUE: sortBlocklistByDimension:blocks <- [DW_OP_constu 208, DW_OP_minus] [$rbp+0]
	#DEBUG_VALUE: sortBlocklistByDimension:columnBlockOffsets <- [DW_OP_constu 72, DW_OP_minus] [$rbp+0]
	#DEBUG_VALUE: sortBlocklistByDimension:columnNumBlocks <- [DW_OP_constu 128, DW_OP_minus] [$rbp+0]
	#DEBUG_VALUE: sortBlocklistByDimension:setColumnOffsets <- [DW_OP_constu 96, DW_OP_minus] [$rbp+0]
	#DEBUG_VALUE: sortBlocklistByDimension:setNumColumns <- [DW_OP_plus_uconst 16] [$rbp+0]
	.loc	1 0 1 is_stmt 0         # vlasovsolver/cpu_acc_sort_blocks.cpp:0:1
	movq	-152(%rbp), %rcx        # 8-byte Reload
	.loc	1 1189 1                # vlasovsolver/cpu_acc_sort_blocks.cpp:1189:1
	leaq	4(%rbx), %rax
	movq	%rax, 8(%r12)
	.loc	1 1044 1 is_stmt 1      # vlasovsolver/cpu_acc_sort_blocks.cpp:1044:1
	movq	(%r12), %r12
.Ltmp355:
.LBB1_175:                              # %L..inline.41514
                                        #   in Loop: Header=BB1_154 Depth=1
	#DEBUG_VALUE: prev_column_id <- $r13d
	#DEBUG_VALUE: nBlocks <- [DW_OP_constu 88, DW_OP_minus] [$rbp+0]
	#DEBUG_VALUE: sortBlocklistByDimension:dimension <- [DW_OP_constu 136, DW_OP_minus] [$rbp+0]
	#DEBUG_VALUE: sortBlocklistByDimension:blocks <- [DW_OP_constu 208, DW_OP_minus] [$rbp+0]
	#DEBUG_VALUE: sortBlocklistByDimension:columnBlockOffsets <- [DW_OP_constu 72, DW_OP_minus] [$rbp+0]
	#DEBUG_VALUE: sortBlocklistByDimension:columnNumBlocks <- [DW_OP_constu 128, DW_OP_minus] [$rbp+0]
	#DEBUG_VALUE: sortBlocklistByDimension:setColumnOffsets <- [DW_OP_constu 96, DW_OP_minus] [$rbp+0]
	#DEBUG_VALUE: sortBlocklistByDimension:setNumColumns <- [DW_OP_plus_uconst 16] [$rbp+0]
	.loc	4 464 1                 # /usr/include/c++/9/bits/vector.tcc:464:1
	subq	%r12, %rbx
.Ltmp356:
	.loc	1 1044 1                # vlasovsolver/cpu_acc_sort_blocks.cpp:1044:1
	addq	$4, %rbx
	andq	$-4, %rbx
	movl	-4(%rbx,%r12), %r14d
	subl	-8(%rbx,%r12), %r14d
	.loc	1 1201 1                # vlasovsolver/cpu_acc_sort_blocks.cpp:1201:1
	movq	(%rcx), %r12
	movq	-136(%rbp), %rax        # 8-byte Reload
	cmpq	(%rax), %r12
	je	.LBB1_178
.Ltmp357:
# %bb.176:                              # %L.B1797
                                        #   in Loop: Header=BB1_154 Depth=1
	#DEBUG_VALUE: prev_column_id <- $r13d
	#DEBUG_VALUE: nBlocks <- [DW_OP_constu 88, DW_OP_minus] [$rbp+0]
	#DEBUG_VALUE: sortBlocklistByDimension:dimension <- [DW_OP_constu 136, DW_OP_minus] [$rbp+0]
	#DEBUG_VALUE: sortBlocklistByDimension:blocks <- [DW_OP_constu 208, DW_OP_minus] [$rbp+0]
	#DEBUG_VALUE: sortBlocklistByDimension:columnBlockOffsets <- [DW_OP_constu 72, DW_OP_minus] [$rbp+0]
	#DEBUG_VALUE: sortBlocklistByDimension:columnNumBlocks <- [DW_OP_constu 128, DW_OP_minus] [$rbp+0]
	#DEBUG_VALUE: sortBlocklistByDimension:setColumnOffsets <- [DW_OP_constu 96, DW_OP_minus] [$rbp+0]
	#DEBUG_VALUE: sortBlocklistByDimension:setNumColumns <- [DW_OP_plus_uconst 16] [$rbp+0]
	testq	%r12, %r12
	je	.LBB1_191
.Ltmp358:
# %bb.177:                              # %L.B1798
                                        #   in Loop: Header=BB1_154 Depth=1
	#DEBUG_VALUE: prev_column_id <- $r13d
	#DEBUG_VALUE: nBlocks <- [DW_OP_constu 88, DW_OP_minus] [$rbp+0]
	#DEBUG_VALUE: sortBlocklistByDimension:dimension <- [DW_OP_constu 136, DW_OP_minus] [$rbp+0]
	#DEBUG_VALUE: sortBlocklistByDimension:blocks <- [DW_OP_constu 208, DW_OP_minus] [$rbp+0]
	#DEBUG_VALUE: sortBlocklistByDimension:columnBlockOffsets <- [DW_OP_constu 72, DW_OP_minus] [$rbp+0]
	#DEBUG_VALUE: sortBlocklistByDimension:columnNumBlocks <- [DW_OP_constu 128, DW_OP_minus] [$rbp+0]
	#DEBUG_VALUE: sortBlocklistByDimension:setColumnOffsets <- [DW_OP_constu 96, DW_OP_minus] [$rbp+0]
	#DEBUG_VALUE: sortBlocklistByDimension:setNumColumns <- [DW_OP_plus_uconst 16] [$rbp+0]
	movl	%r14d, (%r12)
	movq	(%rcx), %rax
	jmp	.LBB1_192
.Ltmp359:
.LBB1_178:                              # %L..inline.41578
                                        #   in Loop: Header=BB1_154 Depth=1
	#DEBUG_VALUE: prev_column_id <- $r13d
	#DEBUG_VALUE: nBlocks <- [DW_OP_constu 88, DW_OP_minus] [$rbp+0]
	#DEBUG_VALUE: sortBlocklistByDimension:dimension <- [DW_OP_constu 136, DW_OP_minus] [$rbp+0]
	#DEBUG_VALUE: sortBlocklistByDimension:blocks <- [DW_OP_constu 208, DW_OP_minus] [$rbp+0]
	#DEBUG_VALUE: sortBlocklistByDimension:columnBlockOffsets <- [DW_OP_constu 72, DW_OP_minus] [$rbp+0]
	#DEBUG_VALUE: sortBlocklistByDimension:columnNumBlocks <- [DW_OP_constu 128, DW_OP_minus] [$rbp+0]
	#DEBUG_VALUE: sortBlocklistByDimension:setColumnOffsets <- [DW_OP_constu 96, DW_OP_minus] [$rbp+0]
	#DEBUG_VALUE: sortBlocklistByDimension:setNumColumns <- [DW_OP_plus_uconst 16] [$rbp+0]
	#DEBUG_VALUE: _M_realloc_insert: <- [DW_OP_constu 128, DW_OP_minus] [$rbp+0]
	#DEBUG_VALUE:  <- [DW_OP_constu 128, DW_OP_minus] [$rbp+0]
	#DEBUG_VALUE: _M_realloc_insert:__position <- $r12
	.loc	1 0 1 is_stmt 0         # vlasovsolver/cpu_acc_sort_blocks.cpp:0:1
	movq	-128(%rbp), %rax        # 8-byte Reload
.Ltmp360:
	#DEBUG_VALUE:  <- $rax
	#DEBUG_VALUE: _M_realloc_insert: <- $rax
	.loc	4 1755 1 is_stmt 1      # /usr/include/c++/9/bits/vector.tcc:1755:1
	movq	(%rax), %r8
.Ltmp361:
	#DEBUG_VALUE:  <- [DW_OP_constu 128, DW_OP_minus] [$rbp+0]
	#DEBUG_VALUE: _M_realloc_insert: <- [DW_OP_constu 128, DW_OP_minus] [$rbp+0]
	subq	%r8, %r12
.Ltmp362:
	movq	%r12, %rcx
	sarq	$2, %rcx
	cmpq	%rdx, %rcx
	je	.LBB1_277
.Ltmp363:
# %bb.179:                              # %L..inline.45457.i229
                                        #   in Loop: Header=BB1_154 Depth=1
	#DEBUG_VALUE:  <- [DW_OP_constu 128, DW_OP_minus] [$rbp+0]
	#DEBUG_VALUE: _M_realloc_insert: <- [DW_OP_constu 128, DW_OP_minus] [$rbp+0]
	#DEBUG_VALUE: prev_column_id <- $r13d
	#DEBUG_VALUE: nBlocks <- [DW_OP_constu 88, DW_OP_minus] [$rbp+0]
	#DEBUG_VALUE: sortBlocklistByDimension:dimension <- [DW_OP_constu 136, DW_OP_minus] [$rbp+0]
	#DEBUG_VALUE: sortBlocklistByDimension:blocks <- [DW_OP_constu 208, DW_OP_minus] [$rbp+0]
	#DEBUG_VALUE: sortBlocklistByDimension:columnBlockOffsets <- [DW_OP_constu 72, DW_OP_minus] [$rbp+0]
	#DEBUG_VALUE: sortBlocklistByDimension:columnNumBlocks <- [DW_OP_constu 128, DW_OP_minus] [$rbp+0]
	#DEBUG_VALUE: sortBlocklistByDimension:setColumnOffsets <- [DW_OP_constu 96, DW_OP_minus] [$rbp+0]
	#DEBUG_VALUE: sortBlocklistByDimension:setNumColumns <- [DW_OP_plus_uconst 16] [$rbp+0]
	#DEBUG_VALUE: _M_realloc_insert:__position <- undef
	.loc	4 1758 1                # /usr/include/c++/9/bits/vector.tcc:1758:1
	testq	%rcx, %rcx
	movq	%rcx, %rax
	movl	$1, %esi
	cmoveq	%rsi, %rax
.Ltmp364:
	#DEBUG_VALUE: __old_finish <- undef
	#DEBUG_VALUE: __old_start <- $r8
	.loc	4 0 1 is_stmt 0         # /usr/include/c++/9/bits/vector.tcc:0:1
	movq	%rdx, %rsi
	.loc	4 1758 1                # /usr/include/c++/9/bits/vector.tcc:1758:1
	addq	%rcx, %rax
.Ltmp365:
	#DEBUG_VALUE: __elems_before <- [DW_OP_constu 2, DW_OP_shra, DW_OP_stack_value] $r12
	.loc	4 1759 1 is_stmt 1      # /usr/include/c++/9/bits/vector.tcc:1759:1
	jb	.LBB1_182
.Ltmp366:
# %bb.180:                              # %L..inline.45457.i229
                                        #   in Loop: Header=BB1_154 Depth=1
	#DEBUG_VALUE: __elems_before <- [DW_OP_constu 2, DW_OP_shra, DW_OP_stack_value] $r12
	#DEBUG_VALUE: __old_start <- $r8
	#DEBUG_VALUE:  <- [DW_OP_constu 128, DW_OP_minus] [$rbp+0]
	#DEBUG_VALUE: _M_realloc_insert: <- [DW_OP_constu 128, DW_OP_minus] [$rbp+0]
	#DEBUG_VALUE: prev_column_id <- $r13d
	#DEBUG_VALUE: nBlocks <- [DW_OP_constu 88, DW_OP_minus] [$rbp+0]
	#DEBUG_VALUE: sortBlocklistByDimension:dimension <- [DW_OP_constu 136, DW_OP_minus] [$rbp+0]
	#DEBUG_VALUE: sortBlocklistByDimension:blocks <- [DW_OP_constu 208, DW_OP_minus] [$rbp+0]
	#DEBUG_VALUE: sortBlocklistByDimension:columnBlockOffsets <- [DW_OP_constu 72, DW_OP_minus] [$rbp+0]
	#DEBUG_VALUE: sortBlocklistByDimension:columnNumBlocks <- [DW_OP_constu 128, DW_OP_minus] [$rbp+0]
	#DEBUG_VALUE: sortBlocklistByDimension:setColumnOffsets <- [DW_OP_constu 96, DW_OP_minus] [$rbp+0]
	#DEBUG_VALUE: sortBlocklistByDimension:setNumColumns <- [DW_OP_plus_uconst 16] [$rbp+0]
	.loc	4 0 1 is_stmt 0         # /usr/include/c++/9/bits/vector.tcc:0:1
	movq	%rdx, %rsi
	.loc	4 1759 1                # /usr/include/c++/9/bits/vector.tcc:1759:1
	cmpq	%rdx, %rax
	ja	.LBB1_182
.Ltmp367:
# %bb.181:                              # %L..inline.45521.i230
                                        #   in Loop: Header=BB1_154 Depth=1
	#DEBUG_VALUE: __elems_before <- [DW_OP_constu 2, DW_OP_shra, DW_OP_stack_value] $r12
	#DEBUG_VALUE: __old_start <- $r8
	#DEBUG_VALUE:  <- [DW_OP_constu 128, DW_OP_minus] [$rbp+0]
	#DEBUG_VALUE: _M_realloc_insert: <- [DW_OP_constu 128, DW_OP_minus] [$rbp+0]
	#DEBUG_VALUE: prev_column_id <- $r13d
	#DEBUG_VALUE: nBlocks <- [DW_OP_constu 88, DW_OP_minus] [$rbp+0]
	#DEBUG_VALUE: sortBlocklistByDimension:dimension <- [DW_OP_constu 136, DW_OP_minus] [$rbp+0]
	#DEBUG_VALUE: sortBlocklistByDimension:blocks <- [DW_OP_constu 208, DW_OP_minus] [$rbp+0]
	#DEBUG_VALUE: sortBlocklistByDimension:columnBlockOffsets <- [DW_OP_constu 72, DW_OP_minus] [$rbp+0]
	#DEBUG_VALUE: sortBlocklistByDimension:columnNumBlocks <- [DW_OP_constu 128, DW_OP_minus] [$rbp+0]
	#DEBUG_VALUE: sortBlocklistByDimension:setColumnOffsets <- [DW_OP_constu 96, DW_OP_minus] [$rbp+0]
	#DEBUG_VALUE: sortBlocklistByDimension:setNumColumns <- [DW_OP_plus_uconst 16] [$rbp+0]
	#DEBUG_VALUE: __len <- $rax
	.loc	4 0 1                   # /usr/include/c++/9/bits/vector.tcc:0:1
	movq	%rax, %rsi
	.loc	4 440 1 is_stmt 1       # /usr/include/c++/9/bits/vector.tcc:440:1
	testq	%rax, %rax
.Ltmp368:
	#DEBUG_VALUE: __len <- $rsi
	je	.LBB1_229
.Ltmp369:
.LBB1_182:                              # %L..inline.45585.i232
                                        #   in Loop: Header=BB1_154 Depth=1
	#DEBUG_VALUE: __elems_before <- [DW_OP_constu 2, DW_OP_shra, DW_OP_stack_value] $r12
	#DEBUG_VALUE: __old_start <- $r8
	#DEBUG_VALUE:  <- [DW_OP_constu 128, DW_OP_minus] [$rbp+0]
	#DEBUG_VALUE: _M_realloc_insert: <- [DW_OP_constu 128, DW_OP_minus] [$rbp+0]
	#DEBUG_VALUE: prev_column_id <- $r13d
	#DEBUG_VALUE: nBlocks <- [DW_OP_constu 88, DW_OP_minus] [$rbp+0]
	#DEBUG_VALUE: sortBlocklistByDimension:dimension <- [DW_OP_constu 136, DW_OP_minus] [$rbp+0]
	#DEBUG_VALUE: sortBlocklistByDimension:blocks <- [DW_OP_constu 208, DW_OP_minus] [$rbp+0]
	#DEBUG_VALUE: sortBlocklistByDimension:columnBlockOffsets <- [DW_OP_constu 72, DW_OP_minus] [$rbp+0]
	#DEBUG_VALUE: sortBlocklistByDimension:columnNumBlocks <- [DW_OP_constu 128, DW_OP_minus] [$rbp+0]
	#DEBUG_VALUE: sortBlocklistByDimension:setColumnOffsets <- [DW_OP_constu 96, DW_OP_minus] [$rbp+0]
	#DEBUG_VALUE: sortBlocklistByDimension:setNumColumns <- [DW_OP_plus_uconst 16] [$rbp+0]
	.loc	4 0 1 is_stmt 0         # /usr/include/c++/9/bits/vector.tcc:0:1
	movq	%r8, %rbx
.Ltmp370:
	#DEBUG_VALUE: __old_start <- $rbx
	movq	%rsi, -80(%rbp)         # 8-byte Spill
	.loc	4 343 1 is_stmt 1       # /usr/include/c++/9/bits/vector.tcc:343:1
	leaq	(,%rsi,4), %rdi
.Ltmp13:
	vzeroupper
	callq	_Znwm
.Ltmp14:
.Ltmp371:
# %bb.183:                              #   in Loop: Header=BB1_154 Depth=1
	#DEBUG_VALUE: __old_start <- $rbx
	#DEBUG_VALUE: __elems_before <- [DW_OP_constu 2, DW_OP_shra, DW_OP_stack_value] $r12
	#DEBUG_VALUE:  <- [DW_OP_constu 128, DW_OP_minus] [$rbp+0]
	#DEBUG_VALUE: _M_realloc_insert: <- [DW_OP_constu 128, DW_OP_minus] [$rbp+0]
	#DEBUG_VALUE: prev_column_id <- $r13d
	#DEBUG_VALUE: nBlocks <- [DW_OP_constu 88, DW_OP_minus] [$rbp+0]
	#DEBUG_VALUE: sortBlocklistByDimension:dimension <- [DW_OP_constu 136, DW_OP_minus] [$rbp+0]
	#DEBUG_VALUE: sortBlocklistByDimension:blocks <- [DW_OP_constu 208, DW_OP_minus] [$rbp+0]
	#DEBUG_VALUE: sortBlocklistByDimension:columnBlockOffsets <- [DW_OP_constu 72, DW_OP_minus] [$rbp+0]
	#DEBUG_VALUE: sortBlocklistByDimension:columnNumBlocks <- [DW_OP_constu 128, DW_OP_minus] [$rbp+0]
	#DEBUG_VALUE: sortBlocklistByDimension:setColumnOffsets <- [DW_OP_constu 96, DW_OP_minus] [$rbp+0]
	#DEBUG_VALUE: sortBlocklistByDimension:setNumColumns <- [DW_OP_plus_uconst 16] [$rbp+0]
	.loc	4 0 1 is_stmt 0         # /usr/include/c++/9/bits/vector.tcc:0:1
	movq	%rbx, %r8
.Ltmp372:
.LBB1_184:                              # %L..inline.45586.i234
                                        #   in Loop: Header=BB1_154 Depth=1
	#DEBUG_VALUE: __elems_before <- [DW_OP_constu 2, DW_OP_shra, DW_OP_stack_value] $r12
	#DEBUG_VALUE:  <- [DW_OP_constu 128, DW_OP_minus] [$rbp+0]
	#DEBUG_VALUE: _M_realloc_insert: <- [DW_OP_constu 128, DW_OP_minus] [$rbp+0]
	#DEBUG_VALUE: prev_column_id <- $r13d
	#DEBUG_VALUE: nBlocks <- [DW_OP_constu 88, DW_OP_minus] [$rbp+0]
	#DEBUG_VALUE: sortBlocklistByDimension:dimension <- [DW_OP_constu 136, DW_OP_minus] [$rbp+0]
	#DEBUG_VALUE: sortBlocklistByDimension:blocks <- [DW_OP_constu 208, DW_OP_minus] [$rbp+0]
	#DEBUG_VALUE: sortBlocklistByDimension:columnBlockOffsets <- [DW_OP_constu 72, DW_OP_minus] [$rbp+0]
	#DEBUG_VALUE: sortBlocklistByDimension:columnNumBlocks <- [DW_OP_constu 128, DW_OP_minus] [$rbp+0]
	#DEBUG_VALUE: sortBlocklistByDimension:setColumnOffsets <- [DW_OP_constu 96, DW_OP_minus] [$rbp+0]
	#DEBUG_VALUE: sortBlocklistByDimension:setNumColumns <- [DW_OP_plus_uconst 16] [$rbp+0]
	movq	%r12, %rdx
	andq	$-4, %rdx
.Ltmp373:
	#DEBUG_VALUE: __new_finish <- $rax
	#DEBUG_VALUE: __new_start <- undef
	.loc	4 484 1 is_stmt 1       # /usr/include/c++/9/bits/vector.tcc:484:1
	movq	%rax, %rbx
	addq	%rdx, %rbx
	je	.LBB1_186
.Ltmp374:
# %bb.185:                              # %L.B2060.i235
                                        #   in Loop: Header=BB1_154 Depth=1
	#DEBUG_VALUE: __new_finish <- $rax
	#DEBUG_VALUE: __elems_before <- [DW_OP_constu 2, DW_OP_shra, DW_OP_stack_value] $r12
	#DEBUG_VALUE:  <- [DW_OP_constu 128, DW_OP_minus] [$rbp+0]
	#DEBUG_VALUE: _M_realloc_insert: <- [DW_OP_constu 128, DW_OP_minus] [$rbp+0]
	#DEBUG_VALUE: prev_column_id <- $r13d
	#DEBUG_VALUE: nBlocks <- [DW_OP_constu 88, DW_OP_minus] [$rbp+0]
	#DEBUG_VALUE: sortBlocklistByDimension:dimension <- [DW_OP_constu 136, DW_OP_minus] [$rbp+0]
	#DEBUG_VALUE: sortBlocklistByDimension:blocks <- [DW_OP_constu 208, DW_OP_minus] [$rbp+0]
	#DEBUG_VALUE: sortBlocklistByDimension:columnBlockOffsets <- [DW_OP_constu 72, DW_OP_minus] [$rbp+0]
	#DEBUG_VALUE: sortBlocklistByDimension:columnNumBlocks <- [DW_OP_constu 128, DW_OP_minus] [$rbp+0]
	#DEBUG_VALUE: sortBlocklistByDimension:setColumnOffsets <- [DW_OP_constu 96, DW_OP_minus] [$rbp+0]
	#DEBUG_VALUE: sortBlocklistByDimension:setNumColumns <- [DW_OP_plus_uconst 16] [$rbp+0]
	movl	%r14d, (%rbx)
.Ltmp375:
.LBB1_186:                              # %L..inline.45634.i236
                                        #   in Loop: Header=BB1_154 Depth=1
	#DEBUG_VALUE: __new_finish <- $rax
	#DEBUG_VALUE: __elems_before <- [DW_OP_constu 2, DW_OP_shra, DW_OP_stack_value] $r12
	#DEBUG_VALUE:  <- [DW_OP_constu 128, DW_OP_minus] [$rbp+0]
	#DEBUG_VALUE: _M_realloc_insert: <- [DW_OP_constu 128, DW_OP_minus] [$rbp+0]
	#DEBUG_VALUE: prev_column_id <- $r13d
	#DEBUG_VALUE: nBlocks <- [DW_OP_constu 88, DW_OP_minus] [$rbp+0]
	#DEBUG_VALUE: sortBlocklistByDimension:dimension <- [DW_OP_constu 136, DW_OP_minus] [$rbp+0]
	#DEBUG_VALUE: sortBlocklistByDimension:blocks <- [DW_OP_constu 208, DW_OP_minus] [$rbp+0]
	#DEBUG_VALUE: sortBlocklistByDimension:columnBlockOffsets <- [DW_OP_constu 72, DW_OP_minus] [$rbp+0]
	#DEBUG_VALUE: sortBlocklistByDimension:columnNumBlocks <- [DW_OP_constu 128, DW_OP_minus] [$rbp+0]
	#DEBUG_VALUE: sortBlocklistByDimension:setColumnOffsets <- [DW_OP_constu 96, DW_OP_minus] [$rbp+0]
	#DEBUG_VALUE: sortBlocklistByDimension:setNumColumns <- [DW_OP_plus_uconst 16] [$rbp+0]
	#DEBUG_VALUE: __new_finish <- 0
	.loc	4 466 1                 # /usr/include/c++/9/bits/vector.tcc:466:1
	cmpq	$4, %r12
	movq	%rax, %r12
.Ltmp376:
	jl	.LBB1_188
.Ltmp377:
# %bb.187:                              # %L.B2061.i237
                                        #   in Loop: Header=BB1_154 Depth=1
	#DEBUG_VALUE: __new_finish <- 0
	#DEBUG_VALUE:  <- [DW_OP_constu 128, DW_OP_minus] [$rbp+0]
	#DEBUG_VALUE: _M_realloc_insert: <- [DW_OP_constu 128, DW_OP_minus] [$rbp+0]
	#DEBUG_VALUE: prev_column_id <- $r13d
	#DEBUG_VALUE: nBlocks <- [DW_OP_constu 88, DW_OP_minus] [$rbp+0]
	#DEBUG_VALUE: sortBlocklistByDimension:dimension <- [DW_OP_constu 136, DW_OP_minus] [$rbp+0]
	#DEBUG_VALUE: sortBlocklistByDimension:blocks <- [DW_OP_constu 208, DW_OP_minus] [$rbp+0]
	#DEBUG_VALUE: sortBlocklistByDimension:columnBlockOffsets <- [DW_OP_constu 72, DW_OP_minus] [$rbp+0]
	#DEBUG_VALUE: sortBlocklistByDimension:columnNumBlocks <- [DW_OP_constu 128, DW_OP_minus] [$rbp+0]
	#DEBUG_VALUE: sortBlocklistByDimension:setColumnOffsets <- [DW_OP_constu 96, DW_OP_minus] [$rbp+0]
	#DEBUG_VALUE: sortBlocklistByDimension:setNumColumns <- [DW_OP_plus_uconst 16] [$rbp+0]
	movq	%rax, %rdi
	movq	%r8, %rsi
	movq	%r8, %r14
	vzeroupper
	callq	memmove
	movq	%r14, %r8
.Ltmp378:
.LBB1_188:                              # %L..inline.45782.i240
                                        #   in Loop: Header=BB1_154 Depth=1
	#DEBUG_VALUE: __new_finish <- 0
	#DEBUG_VALUE:  <- [DW_OP_constu 128, DW_OP_minus] [$rbp+0]
	#DEBUG_VALUE: _M_realloc_insert: <- [DW_OP_constu 128, DW_OP_minus] [$rbp+0]
	#DEBUG_VALUE: prev_column_id <- $r13d
	#DEBUG_VALUE: nBlocks <- [DW_OP_constu 88, DW_OP_minus] [$rbp+0]
	#DEBUG_VALUE: sortBlocklistByDimension:dimension <- [DW_OP_constu 136, DW_OP_minus] [$rbp+0]
	#DEBUG_VALUE: sortBlocklistByDimension:blocks <- [DW_OP_constu 208, DW_OP_minus] [$rbp+0]
	#DEBUG_VALUE: sortBlocklistByDimension:columnBlockOffsets <- [DW_OP_constu 72, DW_OP_minus] [$rbp+0]
	#DEBUG_VALUE: sortBlocklistByDimension:columnNumBlocks <- [DW_OP_constu 128, DW_OP_minus] [$rbp+0]
	#DEBUG_VALUE: sortBlocklistByDimension:setColumnOffsets <- [DW_OP_constu 96, DW_OP_minus] [$rbp+0]
	#DEBUG_VALUE: sortBlocklistByDimension:setNumColumns <- [DW_OP_plus_uconst 16] [$rbp+0]
	#DEBUG_VALUE: __new_finish <- $rbx
	.loc	4 464 1                 # /usr/include/c++/9/bits/vector.tcc:464:1
	addq	$4, %rbx
.Ltmp379:
	#DEBUG_VALUE: __new_finish <- $rbx
	.loc	4 500 1                 # /usr/include/c++/9/bits/vector.tcc:500:1
	testq	%r8, %r8
	movq	-56(%rbp), %r14         # 8-byte Reload
	je	.LBB1_190
.Ltmp380:
# %bb.189:                              # %L.B2065.i241
                                        #   in Loop: Header=BB1_154 Depth=1
	#DEBUG_VALUE: __new_finish <- $rbx
	#DEBUG_VALUE:  <- [DW_OP_constu 128, DW_OP_minus] [$rbp+0]
	#DEBUG_VALUE: _M_realloc_insert: <- [DW_OP_constu 128, DW_OP_minus] [$rbp+0]
	#DEBUG_VALUE: prev_column_id <- $r13d
	#DEBUG_VALUE: nBlocks <- [DW_OP_constu 88, DW_OP_minus] [$rbp+0]
	#DEBUG_VALUE: sortBlocklistByDimension:dimension <- [DW_OP_constu 136, DW_OP_minus] [$rbp+0]
	#DEBUG_VALUE: sortBlocklistByDimension:blocks <- [DW_OP_constu 208, DW_OP_minus] [$rbp+0]
	#DEBUG_VALUE: sortBlocklistByDimension:columnBlockOffsets <- [DW_OP_constu 72, DW_OP_minus] [$rbp+0]
	#DEBUG_VALUE: sortBlocklistByDimension:columnNumBlocks <- [DW_OP_constu 128, DW_OP_minus] [$rbp+0]
	#DEBUG_VALUE: sortBlocklistByDimension:setColumnOffsets <- [DW_OP_constu 96, DW_OP_minus] [$rbp+0]
	#DEBUG_VALUE: sortBlocklistByDimension:setNumColumns <- [DW_OP_plus_uconst 16] [$rbp+0]
	.loc	4 351 1                 # /usr/include/c++/9/bits/vector.tcc:351:1
	movq	%r8, %rdi
	vzeroupper
	callq	_ZdlPv
.Ltmp381:
.LBB1_190:                              # %_ZNSt6vectorIjSaIjEE17_M_realloc_insertIJjEEEvN9__gnu_cxx17__normal_iteratorIPjS1_EEDpOT_.exit244
                                        #   in Loop: Header=BB1_154 Depth=1
	#DEBUG_VALUE: __new_finish <- $rbx
	#DEBUG_VALUE:  <- [DW_OP_constu 128, DW_OP_minus] [$rbp+0]
	#DEBUG_VALUE: _M_realloc_insert: <- [DW_OP_constu 128, DW_OP_minus] [$rbp+0]
	#DEBUG_VALUE: prev_column_id <- $r13d
	#DEBUG_VALUE: nBlocks <- [DW_OP_constu 88, DW_OP_minus] [$rbp+0]
	#DEBUG_VALUE: sortBlocklistByDimension:dimension <- [DW_OP_constu 136, DW_OP_minus] [$rbp+0]
	#DEBUG_VALUE: sortBlocklistByDimension:blocks <- [DW_OP_constu 208, DW_OP_minus] [$rbp+0]
	#DEBUG_VALUE: sortBlocklistByDimension:columnBlockOffsets <- [DW_OP_constu 72, DW_OP_minus] [$rbp+0]
	#DEBUG_VALUE: sortBlocklistByDimension:columnNumBlocks <- [DW_OP_constu 128, DW_OP_minus] [$rbp+0]
	#DEBUG_VALUE: sortBlocklistByDimension:setColumnOffsets <- [DW_OP_constu 96, DW_OP_minus] [$rbp+0]
	#DEBUG_VALUE: sortBlocklistByDimension:setNumColumns <- [DW_OP_plus_uconst 16] [$rbp+0]
	.loc	4 0 1 is_stmt 0         # /usr/include/c++/9/bits/vector.tcc:0:1
	movq	-128(%rbp), %rax        # 8-byte Reload
	.loc	4 502 1 is_stmt 1       # /usr/include/c++/9/bits/vector.tcc:502:1
	movq	%r12, (%rax)
	.loc	4 503 1                 # /usr/include/c++/9/bits/vector.tcc:503:1
	movq	%rbx, 8(%rax)
	movq	-80(%rbp), %rax         # 8-byte Reload
	.loc	4 504 1                 # /usr/include/c++/9/bits/vector.tcc:504:1
	leaq	(%r12,%rax,4), %rax
	movq	-136(%rbp), %rcx        # 8-byte Reload
	movl	-48(%rbp), %esi         # 4-byte Reload
	movl	-64(%rbp), %edx         # 4-byte Reload
	movq	-72(%rbp), %r12         # 8-byte Reload
	jmp	.LBB1_193
.Ltmp382:
.LBB1_191:                              #   in Loop: Header=BB1_154 Depth=1
	#DEBUG_VALUE: prev_column_id <- $r13d
	#DEBUG_VALUE: nBlocks <- [DW_OP_constu 88, DW_OP_minus] [$rbp+0]
	#DEBUG_VALUE: sortBlocklistByDimension:dimension <- [DW_OP_constu 136, DW_OP_minus] [$rbp+0]
	#DEBUG_VALUE: sortBlocklistByDimension:blocks <- [DW_OP_constu 208, DW_OP_minus] [$rbp+0]
	#DEBUG_VALUE: sortBlocklistByDimension:columnBlockOffsets <- [DW_OP_constu 72, DW_OP_minus] [$rbp+0]
	#DEBUG_VALUE: sortBlocklistByDimension:columnNumBlocks <- [DW_OP_constu 128, DW_OP_minus] [$rbp+0]
