	.text
	.file	"cpu_acc_intersections.ll"
	.file	1 "/home/talgat/vlasiator/vlasovsolver/cpu_acc_intersections.cpp"
	.globl	_Z23line_plane_intersectionRKN5Eigen6MatrixIdLi3ELi1ELi0ELi3ELi1EEES3_S3_S3_ # -- Begin function _Z23line_plane_intersectionRKN5Eigen6MatrixIdLi3ELi1ELi0ELi3ELi1EEES3_S3_S3_
	.p2align	4, 0x90
	.type	_Z23line_plane_intersectionRKN5Eigen6MatrixIdLi3ELi1ELi0ELi3ELi1EEES3_S3_S3_,@function
_Z23line_plane_intersectionRKN5Eigen6MatrixIdLi3ELi1ELi0ELi3ELi1EEES3_S3_S3_: # @_Z23line_plane_intersectionRKN5Eigen6MatrixIdLi3ELi1ELi0ELi3ELi1EEES3_S3_S3_
.Lfunc_begin0:
	.loc	1 50 0                  # vlasovsolver/cpu_acc_intersections.cpp:50:0
	.cfi_startproc
# %bb.0:                                # %L.entry
	#DEBUG_VALUE: line_plane_intersection:l_point <- $rsi
	#DEBUG_VALUE: line_plane_intersection:l_direction <- $rdx
	#DEBUG_VALUE: line_plane_intersection:p_point <- $rcx
	#DEBUG_VALUE: line_plane_intersection:p_normal <- $r8
	pushq	%rbp
	.cfi_def_cfa_offset 16
	.cfi_offset %rbp, -16
	movq	%rsp, %rbp
	.cfi_def_cfa_register %rbp
.Ltmp0:
	#DEBUG_VALUE: l_point <- $rsi
	#DEBUG_VALUE: l_direction <- $rdx
	#DEBUG_VALUE: p_point <- $rcx
	#DEBUG_VALUE: p_normal <- $r8
	#DEBUG_VALUE: .._T27768184_34322.m_lhs <- $rcx
	#DEBUG_VALUE: .._T27768184_34322.m_rhs <- $rsi
	movq	%rdi, %rax
	#DEBUG_VALUE: .._T27768184_34322.m_rhs <- $rsi
	#DEBUG_VALUE: .._T27768184_34322.m_lhs <- $rcx
	#DEBUG_VALUE: p_normal <- $r8
	#DEBUG_VALUE: line_plane_intersection:p_normal <- $r8
	#DEBUG_VALUE: p_point <- $rcx
	#DEBUG_VALUE: line_plane_intersection:p_point <- $rcx
	#DEBUG_VALUE: l_direction <- $rdx
	#DEBUG_VALUE: line_plane_intersection:l_direction <- $rdx
	#DEBUG_VALUE: l_point <- $rsi
	#DEBUG_VALUE: line_plane_intersection:l_point <- $rsi
.Ltmp1:
	.file	2 "/home/talgat/libs/eigen/Eigen/src/Core/DenseCoeffsBase.h"
	.loc	2 98 1 prologue_end     # /home/talgat/libs/eigen/Eigen/src/Core/DenseCoeffsBase.h:98:1
	vmovsd	(%rsi), %xmm0           # xmm0 = mem[0],zero
.Ltmp2:
	#DEBUG_VALUE: inner <- 0
	#DEBUG_VALUE: coeffByOuterInner:inner <- 0
	#DEBUG_VALUE: outer <- 0
	#DEBUG_VALUE: coeffByOuterInner:outer <- 0
	#DEBUG_VALUE:  <- undef
	#DEBUG_VALUE: coeffByOuterInner: <- undef
	vmovsd	(%rcx), %xmm1           # xmm1 = mem[0],zero
.Ltmp3:
	#DEBUG_VALUE: inner <- 1
	#DEBUG_VALUE: coeffByOuterInner:inner <- 1
	#DEBUG_VALUE: outer <- 0
	#DEBUG_VALUE: coeffByOuterInner:outer <- 0
	#DEBUG_VALUE:  <- undef
	#DEBUG_VALUE: coeffByOuterInner: <- undef
	.loc	2 98 1 is_stmt 0        # /home/talgat/libs/eigen/Eigen/src/Core/DenseCoeffsBase.h:98:1
	vmovsd	8(%rcx), %xmm2          # xmm2 = mem[0],zero
.Ltmp4:
	.loc	2 98 1                  # /home/talgat/libs/eigen/Eigen/src/Core/DenseCoeffsBase.h:98:1
	vsubsd	%xmm0, %xmm1, %xmm1
	#DEBUG_VALUE: inner <- 0
	#DEBUG_VALUE: coeffByOuterInner:inner <- 0
	#DEBUG_VALUE: outer <- 0
	#DEBUG_VALUE: coeffByOuterInner:outer <- 0
	vmovsd	(%r8), %xmm3            # xmm3 = mem[0],zero
.Ltmp5:
	.loc	2 98 1                  # /home/talgat/libs/eigen/Eigen/src/Core/DenseCoeffsBase.h:98:1
	vmovsd	8(%r8), %xmm4           # xmm4 = mem[0],zero
.Ltmp6:
	#DEBUG_VALUE: inner <- 1
	#DEBUG_VALUE: coeffByOuterInner:inner <- 1
	#DEBUG_VALUE: outer <- 0
	#DEBUG_VALUE: coeffByOuterInner:outer <- 0
	.loc	2 98 1                  # /home/talgat/libs/eigen/Eigen/src/Core/DenseCoeffsBase.h:98:1
	vmulsd	%xmm3, %xmm1, %xmm1
.Ltmp7:
	#DEBUG_VALUE: inner <- 0
	#DEBUG_VALUE: coeffByOuterInner:inner <- 0
	#DEBUG_VALUE: outer <- 0
	#DEBUG_VALUE: coeffByOuterInner:outer <- 0
	.loc	2 98 1                  # /home/talgat/libs/eigen/Eigen/src/Core/DenseCoeffsBase.h:98:1
	vsubsd	8(%rsi), %xmm2, %xmm2
.Ltmp8:
	#DEBUG_VALUE: inner <- 1
	#DEBUG_VALUE: coeffByOuterInner:inner <- 1
	#DEBUG_VALUE: outer <- 0
	#DEBUG_VALUE: coeffByOuterInner:outer <- 0
	.loc	2 98 1                  # /home/talgat/libs/eigen/Eigen/src/Core/DenseCoeffsBase.h:98:1
	vmovsd	16(%rcx), %xmm5         # xmm5 = mem[0],zero
	vsubsd	16(%rsi), %xmm5, %xmm5
.Ltmp9:
	.loc	2 98 1                  # /home/talgat/libs/eigen/Eigen/src/Core/DenseCoeffsBase.h:98:1
	vmulsd	%xmm4, %xmm2, %xmm2
.Ltmp10:
	#DEBUG_VALUE: inner <- 2
	#DEBUG_VALUE: coeffByOuterInner:inner <- 2
	#DEBUG_VALUE: outer <- 0
	#DEBUG_VALUE: coeffByOuterInner:outer <- 0
	#DEBUG_VALUE:  <- undef
	#DEBUG_VALUE: coeffByOuterInner: <- undef
	#DEBUG_VALUE: inner <- 1
	#DEBUG_VALUE: coeffByOuterInner:inner <- 1
	#DEBUG_VALUE: outer <- 0
	#DEBUG_VALUE: coeffByOuterInner:outer <- 0
	.loc	2 98 1                  # /home/talgat/libs/eigen/Eigen/src/Core/DenseCoeffsBase.h:98:1
	vmovsd	16(%r8), %xmm6          # xmm6 = mem[0],zero
	vmulsd	%xmm6, %xmm5, %xmm5
.Ltmp11:
	.loc	1 73 1 is_stmt 1        # vlasovsolver/cpu_acc_intersections.cpp:73:1
	vaddsd	%xmm5, %xmm2, %xmm2
	vaddsd	%xmm2, %xmm1, %xmm1
.Ltmp12:
	#DEBUG_VALUE: mat <- undef
	#DEBUG_VALUE: run:mat <- undef
	#DEBUG_VALUE: nom <- $xmm1
	.file	3 "/home/talgat/libs/eigen/Eigen/src/Core/Redux.h"
	.loc	3 103 1                 # /home/talgat/libs/eigen/Eigen/src/Core/Redux.h:103:1
	vmovsd	(%rdx), %xmm2           # xmm2 = mem[0],zero
	vmulsd	%xmm3, %xmm2, %xmm3
.Ltmp13:
	#DEBUG_VALUE: mat <- undef
	#DEBUG_VALUE: run:mat <- undef
	.loc	3 103 1 is_stmt 0       # /home/talgat/libs/eigen/Eigen/src/Core/Redux.h:103:1
	vmulsd	8(%rdx), %xmm4, %xmm4
.Ltmp14:
	#DEBUG_VALUE: mat <- undef
	#DEBUG_VALUE: run:mat <- undef
	.loc	3 103 1                 # /home/talgat/libs/eigen/Eigen/src/Core/Redux.h:103:1
	vmulsd	16(%rdx), %xmm6, %xmm5
.Ltmp15:
	.loc	1 73 1 is_stmt 1        # vlasovsolver/cpu_acc_intersections.cpp:73:1
	vaddsd	%xmm5, %xmm4, %xmm4
	vaddsd	%xmm4, %xmm3, %xmm3
	.loc	1 53 1                  # vlasovsolver/cpu_acc_intersections.cpp:53:1
	vdivsd	%xmm3, %xmm1, %xmm1
.Ltmp16:
	#DEBUG_VALUE: other <- undef
	#DEBUG_VALUE: lazyAssign:other <- undef
	#DEBUG_VALUE:  <- $rax
	#DEBUG_VALUE: lazyAssign: <- $rax
	#DEBUG_VALUE: other <- undef
	#DEBUG_VALUE: Matrix:other <- undef
	#DEBUG_VALUE:  <- $rax
	#DEBUG_VALUE: Matrix: <- $rax
	.file	4 "/home/talgat/libs/eigen/Eigen/src/Core/Assign.h"
	.loc	4 313 1                 # /home/talgat/libs/eigen/Eigen/src/Core/Assign.h:313:1
	vmulsd	%xmm1, %xmm2, %xmm2
	vaddsd	%xmm2, %xmm0, %xmm0
	vmovsd	%xmm0, (%rdi)
.Ltmp17:
	#DEBUG_VALUE: src <- undef
	#DEBUG_VALUE: run:src <- undef
	#DEBUG_VALUE: dst <- $rax
	#DEBUG_VALUE: run:dst <- $rax
	.loc	4 495 1                 # /home/talgat/libs/eigen/Eigen/src/Core/Assign.h:495:1
	vmulsd	8(%rdx), %xmm1, %xmm0
	vaddsd	8(%rsi), %xmm0, %xmm0
	vmovsd	%xmm0, 8(%rdi)
	.loc	4 180 1                 # /home/talgat/libs/eigen/Eigen/src/Core/Assign.h:180:1
	vmulsd	16(%rdx), %xmm1, %xmm0
	vaddsd	16(%rsi), %xmm0, %xmm0
	vmovsd	%xmm0, 16(%rdi)
.Ltmp18:
	.loc	1 54 1                  # vlasovsolver/cpu_acc_intersections.cpp:54:1
	popq	%rbp
	.cfi_def_cfa %rsp, 8
	retq
.Ltmp19:
.Lfunc_end0:
	.size	_Z23line_plane_intersectionRKN5Eigen6MatrixIdLi3ELi1ELi0ELi3ELi1EEES3_S3_S3_, .Lfunc_end0-_Z23line_plane_intersectionRKN5Eigen6MatrixIdLi3ELi1ELi0ELi3ELi1EEES3_S3_S3_
	.cfi_endproc
	.file	5 "/home/talgat/libs/eigen/Eigen/src/Core/Matrix.h"
                                        # -- End function
	.section	.rodata.cst8,"aM",@progbits,8
	.p2align	3               # -- Begin function _Z25compute_intersections_1stRKN5vmesh12VelocityMeshIjjEERKN5Eigen9TransformIdLi3ELi2ELi0EEES8_jRKhRdSB_SB_SB_
.LCPI1_0:
	.quad	4602678819172646912     # double 0.5
	.text
	.globl	_Z25compute_intersections_1stRKN5vmesh12VelocityMeshIjjEERKN5Eigen9TransformIdLi3ELi2ELi0EEES8_jRKhRdSB_SB_SB_
	.p2align	4, 0x90
	.type	_Z25compute_intersections_1stRKN5vmesh12VelocityMeshIjjEERKN5Eigen9TransformIdLi3ELi2ELi0EEES8_jRKhRdSB_SB_SB_,@function
_Z25compute_intersections_1stRKN5vmesh12VelocityMeshIjjEERKN5Eigen9TransformIdLi3ELi2ELi0EEES8_jRKhRdSB_SB_SB_: # @_Z25compute_intersections_1stRKN5vmesh12VelocityMeshIjjEERKN5Eigen9TransformIdLi3ELi2ELi0EEES8_jRKhRdSB_SB_SB_
.Lfunc_begin1:
	.loc	1 72 0                  # vlasovsolver/cpu_acc_intersections.cpp:72:0
	.cfi_startproc
# %bb.0:                                # %L.entry
	#DEBUG_VALUE: compute_intersections_1st:vmesh <- $rdi
	#DEBUG_VALUE: compute_intersections_1st:bwd_transform <- $rsi
	#DEBUG_VALUE: compute_intersections_1st:fwd_transform <- $rdx
	#DEBUG_VALUE: compute_intersections_1st:dimension <- $ecx
	#DEBUG_VALUE: compute_intersections_1st:refLevel <- $r8
	#DEBUG_VALUE: compute_intersections_1st:intersection <- $r9
	pushq	%rbp
	.cfi_def_cfa_offset 16
	.cfi_offset %rbp, -16
	movq	%rsp, %rbp
	.cfi_def_cfa_register %rbp
.Ltmp20:
	#DEBUG_VALUE: vmesh <- $rdi
	#DEBUG_VALUE: bwd_transform <- $rsi
	#DEBUG_VALUE: fwd_transform <- $rdx
	#DEBUG_VALUE: dimension <- $ecx
	#DEBUG_VALUE: refLevel <- $r8
	#DEBUG_VALUE: intersection <- $r9
	movq	16(%rbp), %rax
.Ltmp21:
	#DEBUG_VALUE: intersection_dk <- [DW_OP_plus_uconst 32] [$rbp+0]
	#DEBUG_VALUE: compute_intersections_1st:intersection_dk <- [DW_OP_plus_uconst 32] [$rbp+0]
	#DEBUG_VALUE: intersection_dj <- [DW_OP_plus_uconst 24] [$rbp+0]
	#DEBUG_VALUE: compute_intersections_1st:intersection_dj <- [DW_OP_plus_uconst 24] [$rbp+0]
	#DEBUG_VALUE: intersection_di <- [DW_OP_plus_uconst 16] [$rbp+0]
	#DEBUG_VALUE: compute_intersections_1st:intersection_di <- [DW_OP_plus_uconst 16] [$rbp+0]
	#DEBUG_VALUE: intersection <- $r9
	#DEBUG_VALUE: compute_intersections_1st:intersection <- $r9
	#DEBUG_VALUE: dimension <- $ecx
	#DEBUG_VALUE: compute_intersections_1st:dimension <- $ecx
	#DEBUG_VALUE: bwd_transform <- $rsi
	#DEBUG_VALUE: compute_intersections_1st:bwd_transform <- $rsi
	#DEBUG_VALUE: vmesh <- $rdi
	#DEBUG_VALUE: compute_intersections_1st:vmesh <- $rdi
	.loc	1 74 1 prologue_end     # vlasovsolver/cpu_acc_intersections.cpp:74:1
	cmpl	$2, %ecx
	je	.LBB1_5
.Ltmp22:
# %bb.1:                                # %L.entry
	#DEBUG_VALUE: compute_intersections_1st:intersection_di <- [DW_OP_plus_uconst 16] [$rbp+0]
	#DEBUG_VALUE: intersection_di <- [DW_OP_plus_uconst 16] [$rbp+0]
	#DEBUG_VALUE: compute_intersections_1st:intersection_dj <- [DW_OP_plus_uconst 24] [$rbp+0]
	#DEBUG_VALUE: intersection_dj <- [DW_OP_plus_uconst 24] [$rbp+0]
	#DEBUG_VALUE: compute_intersections_1st:intersection_dk <- [DW_OP_plus_uconst 32] [$rbp+0]
	#DEBUG_VALUE: intersection_dk <- [DW_OP_plus_uconst 32] [$rbp+0]
	#DEBUG_VALUE: intersection <- $r9
	#DEBUG_VALUE: refLevel <- $r8
	#DEBUG_VALUE: dimension <- $ecx
	#DEBUG_VALUE: fwd_transform <- $rdx
	#DEBUG_VALUE: bwd_transform <- $rsi
	#DEBUG_VALUE: vmesh <- $rdi
	#DEBUG_VALUE: compute_intersections_1st:intersection <- $r9
	#DEBUG_VALUE: compute_intersections_1st:refLevel <- $r8
	#DEBUG_VALUE: compute_intersections_1st:dimension <- $ecx
	#DEBUG_VALUE: compute_intersections_1st:fwd_transform <- $rdx
	#DEBUG_VALUE: compute_intersections_1st:bwd_transform <- $rsi
	#DEBUG_VALUE: compute_intersections_1st:vmesh <- $rdi
	cmpl	$1, %ecx
	je	.LBB1_4
.Ltmp23:
# %bb.2:                                # %L.entry
	#DEBUG_VALUE: compute_intersections_1st:intersection_di <- [DW_OP_plus_uconst 16] [$rbp+0]
	#DEBUG_VALUE: intersection_di <- [DW_OP_plus_uconst 16] [$rbp+0]
	#DEBUG_VALUE: compute_intersections_1st:intersection_dj <- [DW_OP_plus_uconst 24] [$rbp+0]
	#DEBUG_VALUE: intersection_dj <- [DW_OP_plus_uconst 24] [$rbp+0]
	#DEBUG_VALUE: compute_intersections_1st:intersection_dk <- [DW_OP_plus_uconst 32] [$rbp+0]
	#DEBUG_VALUE: intersection_dk <- [DW_OP_plus_uconst 32] [$rbp+0]
	#DEBUG_VALUE: intersection <- $r9
	#DEBUG_VALUE: refLevel <- $r8
	#DEBUG_VALUE: dimension <- $ecx
	#DEBUG_VALUE: fwd_transform <- $rdx
	#DEBUG_VALUE: bwd_transform <- $rsi
	#DEBUG_VALUE: vmesh <- $rdi
	#DEBUG_VALUE: compute_intersections_1st:intersection <- $r9
	#DEBUG_VALUE: compute_intersections_1st:refLevel <- $r8
	#DEBUG_VALUE: compute_intersections_1st:dimension <- $ecx
	#DEBUG_VALUE: compute_intersections_1st:fwd_transform <- $rdx
	#DEBUG_VALUE: compute_intersections_1st:bwd_transform <- $rsi
	#DEBUG_VALUE: compute_intersections_1st:vmesh <- $rdi
	testl	%ecx, %ecx
	jne	.LBB1_7
.Ltmp24:
# %bb.3:                                # %L.B2605
	#DEBUG_VALUE: compute_intersections_1st:intersection_di <- [DW_OP_plus_uconst 16] [$rbp+0]
	#DEBUG_VALUE: intersection_di <- [DW_OP_plus_uconst 16] [$rbp+0]
	#DEBUG_VALUE: compute_intersections_1st:intersection_dj <- [DW_OP_plus_uconst 24] [$rbp+0]
	#DEBUG_VALUE: intersection_dj <- [DW_OP_plus_uconst 24] [$rbp+0]
	#DEBUG_VALUE: compute_intersections_1st:intersection_dk <- [DW_OP_plus_uconst 32] [$rbp+0]
	#DEBUG_VALUE: intersection_dk <- [DW_OP_plus_uconst 32] [$rbp+0]
	#DEBUG_VALUE: intersection <- $r9
	#DEBUG_VALUE: refLevel <- $r8
	#DEBUG_VALUE: dimension <- $ecx
	#DEBUG_VALUE: fwd_transform <- $rdx
	#DEBUG_VALUE: bwd_transform <- $rsi
	#DEBUG_VALUE: vmesh <- $rdi
	#DEBUG_VALUE: compute_intersections_1st:intersection <- $r9
	#DEBUG_VALUE: compute_intersections_1st:refLevel <- $r8
	#DEBUG_VALUE: compute_intersections_1st:dimension <- $ecx
	#DEBUG_VALUE: compute_intersections_1st:fwd_transform <- $rdx
	#DEBUG_VALUE: compute_intersections_1st:bwd_transform <- $rsi
	#DEBUG_VALUE: compute_intersections_1st:vmesh <- $rdi
	#DEBUG_VALUE: lazyAssign: <- undef
	#DEBUG_VALUE:  <- undef
	#DEBUG_VALUE: lazyAssign:other <- undef
	#DEBUG_VALUE: other <- undef
	#DEBUG_VALUE: run:dst <- undef
	#DEBUG_VALUE: dst <- undef
	#DEBUG_VALUE: run:src <- undef
	#DEBUG_VALUE: src <- undef
	#DEBUG_VALUE: run:row <- 0
	#DEBUG_VALUE: row <- 0
	#DEBUG_VALUE: run:col <- 0
	#DEBUG_VALUE: col <- 0
	#DEBUG_VALUE: run:lhs <- undef
	#DEBUG_VALUE: lhs <- undef
	#DEBUG_VALUE: run:rhs <- undef
	#DEBUG_VALUE: rhs <- undef
	#DEBUG_VALUE: run:res <- undef
	#DEBUG_VALUE: res <- undef
	.file	6 "/home/talgat/libs/eigen/Eigen/src/Core/products/CoeffBasedProduct.h"
	.loc	6 246 1                 # /home/talgat/libs/eigen/Eigen/src/Core/products/CoeffBasedProduct.h:246:1
	vmovsd	32(%rsi), %xmm5         # xmm5 = mem[0],zero
	.loc	6 245 1                 # /home/talgat/libs/eigen/Eigen/src/Core/products/CoeffBasedProduct.h:245:1
	vmovsd	(%rsi), %xmm9           # xmm9 = mem[0],zero
.Ltmp25:
	#DEBUG_VALUE: res <- undef
	#DEBUG_VALUE: run:res <- undef
	#DEBUG_VALUE: rhs <- undef
	#DEBUG_VALUE: run:rhs <- undef
	#DEBUG_VALUE: lhs <- undef
	#DEBUG_VALUE: run:lhs <- undef
	#DEBUG_VALUE: col <- 0
	#DEBUG_VALUE: run:col <- 0
	#DEBUG_VALUE: row <- 1
	#DEBUG_VALUE: run:row <- 1
	.loc	6 245 1 is_stmt 0       # /home/talgat/libs/eigen/Eigen/src/Core/products/CoeffBasedProduct.h:245:1
	vmovsd	8(%rsi), %xmm8          # xmm8 = mem[0],zero
	vxorpd	%xmm0, %xmm0, %xmm0
.Ltmp26:
	.loc	6 246 1 is_stmt 1       # /home/talgat/libs/eigen/Eigen/src/Core/products/CoeffBasedProduct.h:246:1
	vxorpd	%xmm2, %xmm2, %xmm2
	#DEBUG_VALUE: col <- 0
	#DEBUG_VALUE: run:col <- 0
	#DEBUG_VALUE: row <- 0
	#DEBUG_VALUE: run:row <- 0
	vfmadd213sd	%xmm9, %xmm5, %xmm2 # xmm2 = (xmm5 * xmm2) + xmm9
	.loc	6 144 1                 # /home/talgat/libs/eigen/Eigen/src/Core/products/CoeffBasedProduct.h:144:1
	vmovsd	64(%rsi), %xmm11        # xmm11 = mem[0],zero
	vfmadd231sd	%xmm0, %xmm11, %xmm2 # xmm2 = (xmm11 * xmm0) + xmm2
.Ltmp27:
	.loc	6 246 1                 # /home/talgat/libs/eigen/Eigen/src/Core/products/CoeffBasedProduct.h:246:1
	vmovsd	40(%rsi), %xmm15        # xmm15 = mem[0],zero
	#DEBUG_VALUE: col <- 0
	#DEBUG_VALUE: run:col <- 0
	#DEBUG_VALUE: row <- 1
	#DEBUG_VALUE: run:row <- 1
	vxorpd	%xmm1, %xmm1, %xmm1
	vfmadd213sd	%xmm8, %xmm15, %xmm1 # xmm1 = (xmm15 * xmm1) + xmm8
	.loc	6 144 1                 # /home/talgat/libs/eigen/Eigen/src/Core/products/CoeffBasedProduct.h:144:1
	vmovsd	72(%rsi), %xmm14        # xmm14 = mem[0],zero
	vfmadd231sd	%xmm0, %xmm14, %xmm1 # xmm1 = (xmm14 * xmm0) + xmm1
.Ltmp28:
	#DEBUG_VALUE: res <- undef
	#DEBUG_VALUE: run:res <- undef
	#DEBUG_VALUE: rhs <- undef
	#DEBUG_VALUE: run:rhs <- undef
	#DEBUG_VALUE: lhs <- undef
	#DEBUG_VALUE: run:lhs <- undef
	#DEBUG_VALUE: col <- 0
	#DEBUG_VALUE: run:col <- 0
	#DEBUG_VALUE: row <- 2
	#DEBUG_VALUE: run:row <- 2
	.loc	6 245 1                 # /home/talgat/libs/eigen/Eigen/src/Core/products/CoeffBasedProduct.h:245:1
	vmovsd	16(%rsi), %xmm12        # xmm12 = mem[0],zero
	.loc	6 246 1                 # /home/talgat/libs/eigen/Eigen/src/Core/products/CoeffBasedProduct.h:246:1
	vmovsd	48(%rsi), %xmm6         # xmm6 = mem[0],zero
.Ltmp29:
	.loc	1 268 1                 # vlasovsolver/cpu_acc_intersections.cpp:268:1
	imulq	$336, (%rdi), %rcx      # imm = 0x150
.Ltmp30:
	movq	_ZN5vmesh12VelocityMeshIjjE14meshParametersE(%rip), %rdx
.Ltmp31:
	vmovsd	120(%rdx,%rcx), %xmm13  # xmm13 = mem[0],zero
.Ltmp32:
	#DEBUG_VALUE: line_point <- [DW_OP_LLVM_fragment 64 64] undef
	vmovsd	192(%rdx,%rcx), %xmm10  # xmm10 = mem[0],zero
.Ltmp33:
	#DEBUG_VALUE: rhs <- undef
	#DEBUG_VALUE: run:rhs <- undef
	#DEBUG_VALUE: lhs <- undef
	#DEBUG_VALUE: run:lhs <- undef
	#DEBUG_VALUE: col <- 0
	#DEBUG_VALUE: run:col <- 0
	#DEBUG_VALUE: row <- 0
	#DEBUG_VALUE: run:row <- 0
	#DEBUG_VALUE: src <- undef
	#DEBUG_VALUE: run:src <- undef
	#DEBUG_VALUE: dst <- undef
	#DEBUG_VALUE: run:dst <- undef
	#DEBUG_VALUE: other <- undef
	#DEBUG_VALUE: operator+=:other <- undef
	#DEBUG_VALUE:  <- undef
	#DEBUG_VALUE: operator+=: <- undef
	#DEBUG_VALUE: plane_point <- [DW_OP_LLVM_fragment 128 64] undef
	#DEBUG_VALUE: src <- undef
	#DEBUG_VALUE: run:src <- undef
	#DEBUG_VALUE: dst <- undef
	#DEBUG_VALUE: run:dst <- undef
	#DEBUG_VALUE: plane_point <- [DW_OP_LLVM_fragment 64 64] undef
	#DEBUG_VALUE: src <- undef
	#DEBUG_VALUE: run:src <- undef
	#DEBUG_VALUE: dst <- undef
	#DEBUG_VALUE: run:dst <- undef
	#DEBUG_VALUE: plane_point <- [DW_OP_LLVM_fragment 0 64] undef
	#DEBUG_VALUE: src <- undef
	#DEBUG_VALUE: run:src <- undef
	#DEBUG_VALUE: dst <- undef
	#DEBUG_VALUE: run:dst <- undef
	#DEBUG_VALUE: other <- undef
	#DEBUG_VALUE: lazyAssign:other <- undef
	#DEBUG_VALUE:  <- undef
	#DEBUG_VALUE: lazyAssign: <- undef
	#DEBUG_VALUE: a_startCol <- 3
	#DEBUG_VALUE: BlockImpl:a_startCol <- 3
	#DEBUG_VALUE: a_startRow <- 0
	#DEBUG_VALUE: BlockImpl:a_startRow <- 0
	#DEBUG_VALUE: xpr <- $rsi
	#DEBUG_VALUE: BlockImpl:xpr <- $rsi
	#DEBUG_VALUE:  <- undef
	#DEBUG_VALUE: BlockImpl: <- undef
	#DEBUG_VALUE: other <- undef
	#DEBUG_VALUE: run:other <- undef
	#DEBUG_VALUE: T <- $rsi
	#DEBUG_VALUE: run:T <- $rsi
	.loc	6 245 1                 # /home/talgat/libs/eigen/Eigen/src/Core/products/CoeffBasedProduct.h:245:1
	vmulsd	%xmm9, %xmm13, %xmm4
	.loc	6 246 1                 # /home/talgat/libs/eigen/Eigen/src/Core/products/CoeffBasedProduct.h:246:1
	vfmadd231sd	%xmm0, %xmm5, %xmm4 # xmm4 = (xmm5 * xmm0) + xmm4
.Ltmp34:
	.loc	6 245 1                 # /home/talgat/libs/eigen/Eigen/src/Core/products/CoeffBasedProduct.h:245:1
	vmulsd	%xmm10, %xmm9, %xmm3
	.loc	6 246 1                 # /home/talgat/libs/eigen/Eigen/src/Core/products/CoeffBasedProduct.h:246:1
	vfmadd213sd	%xmm3, %xmm0, %xmm5 # xmm5 = (xmm0 * xmm5) + xmm3
.Ltmp35:
	.loc	6 246 1 is_stmt 0       # /home/talgat/libs/eigen/Eigen/src/Core/products/CoeffBasedProduct.h:246:1
	vxorpd	%xmm3, %xmm3, %xmm3
	#DEBUG_VALUE: col <- 0
	#DEBUG_VALUE: run:col <- 0
	#DEBUG_VALUE: row <- 2
	#DEBUG_VALUE: run:row <- 2
	vfmadd213sd	%xmm12, %xmm6, %xmm3 # xmm3 = (xmm6 * xmm3) + xmm12
.Ltmp36:
	.loc	6 144 1 is_stmt 1       # /home/talgat/libs/eigen/Eigen/src/Core/products/CoeffBasedProduct.h:144:1
	vfmadd231sd	%xmm0, %xmm11, %xmm4 # xmm4 = (xmm11 * xmm0) + xmm4
.Ltmp37:
	#DEBUG_VALUE: col <- 0
	#DEBUG_VALUE: run:col <- 0
	#DEBUG_VALUE: row <- 0
	#DEBUG_VALUE: run:row <- 0
	#DEBUG_VALUE: T <- $rsi
	#DEBUG_VALUE: run:T <- $rsi
	.loc	6 144 1 is_stmt 0       # /home/talgat/libs/eigen/Eigen/src/Core/products/CoeffBasedProduct.h:144:1
	vfmadd213sd	%xmm5, %xmm0, %xmm11 # xmm11 = (xmm0 * xmm11) + xmm5
.Ltmp38:
	#DEBUG_VALUE: res <- undef
	#DEBUG_VALUE: run:res <- undef
	#DEBUG_VALUE: rhs <- undef
	#DEBUG_VALUE: run:rhs <- undef
	#DEBUG_VALUE: lhs <- undef
	#DEBUG_VALUE: run:lhs <- undef
	.loc	6 245 1 is_stmt 1       # /home/talgat/libs/eigen/Eigen/src/Core/products/CoeffBasedProduct.h:245:1
	vmulsd	%xmm8, %xmm13, %xmm5
	#DEBUG_VALUE: T <- $rsi
	#DEBUG_VALUE: run:T <- $rsi
	.loc	6 246 1                 # /home/talgat/libs/eigen/Eigen/src/Core/products/CoeffBasedProduct.h:246:1
	vfmadd231sd	%xmm0, %xmm15, %xmm5 # xmm5 = (xmm15 * xmm0) + xmm5
.Ltmp39:
	#DEBUG_VALUE: col <- 0
	#DEBUG_VALUE: run:col <- 0
	#DEBUG_VALUE: row <- 1
	#DEBUG_VALUE: run:row <- 1
	.loc	6 245 1                 # /home/talgat/libs/eigen/Eigen/src/Core/products/CoeffBasedProduct.h:245:1
	vmulsd	%xmm10, %xmm8, %xmm7
	.loc	6 246 1                 # /home/talgat/libs/eigen/Eigen/src/Core/products/CoeffBasedProduct.h:246:1
	vfmadd213sd	%xmm7, %xmm0, %xmm15 # xmm15 = (xmm0 * xmm15) + xmm7
.Ltmp40:
	.loc	6 144 1                 # /home/talgat/libs/eigen/Eigen/src/Core/products/CoeffBasedProduct.h:144:1
	vmovsd	80(%rsi), %xmm9         # xmm9 = mem[0],zero
.Ltmp41:
	#DEBUG_VALUE: col <- 0
	#DEBUG_VALUE: run:col <- 0
	#DEBUG_VALUE: row <- 2
	#DEBUG_VALUE: run:row <- 2
	.loc	4 144 1 is_stmt 0       # /home/talgat/libs/eigen/Eigen/src/Core/Assign.h:144:1
	vaddsd	96(%rsi), %xmm4, %xmm4
.Ltmp42:
	#DEBUG_VALUE: rhs <- undef
	#DEBUG_VALUE: run:rhs <- undef
	#DEBUG_VALUE: lhs <- undef
	#DEBUG_VALUE: run:lhs <- undef
	#DEBUG_VALUE: src <- undef
	#DEBUG_VALUE: run:src <- undef
	#DEBUG_VALUE: dst <- undef
	#DEBUG_VALUE: run:dst <- undef
	#DEBUG_VALUE: T <- $rsi
	#DEBUG_VALUE: run:T <- $rsi
	.loc	6 144 1                 # /home/talgat/libs/eigen/Eigen/src/Core/products/CoeffBasedProduct.h:144:1
	vfmadd231sd	%xmm0, %xmm9, %xmm3 # xmm3 = (xmm9 * xmm0) + xmm3
.Ltmp43:
	#DEBUG_VALUE: col <- 0
	#DEBUG_VALUE: run:col <- 0
	#DEBUG_VALUE: row <- 1
	#DEBUG_VALUE: run:row <- 1
	#DEBUG_VALUE: col <- 0
	#DEBUG_VALUE: run:col <- 0
	#DEBUG_VALUE: row <- 2
	#DEBUG_VALUE: run:row <- 2
	.loc	6 144 1                 # /home/talgat/libs/eigen/Eigen/src/Core/products/CoeffBasedProduct.h:144:1
	vfmadd231sd	%xmm0, %xmm14, %xmm5 # xmm5 = (xmm14 * xmm0) + xmm5
.Ltmp44:
	#DEBUG_VALUE: T <- $rsi
	#DEBUG_VALUE: run:T <- $rsi
	.loc	4 505 1 is_stmt 1       # /home/talgat/libs/eigen/Eigen/src/Core/Assign.h:505:1
	vaddsd	104(%rsi), %xmm5, %xmm8
.Ltmp45:
	#DEBUG_VALUE: rhs <- undef
	#DEBUG_VALUE: run:rhs <- undef
	#DEBUG_VALUE: lhs <- undef
	#DEBUG_VALUE: run:lhs <- undef
	.loc	4 0 1 is_stmt 0         # /home/talgat/libs/eigen/Eigen/src/Core/Assign.h:0:1
	vmovapd	%xmm12, %xmm5
.Ltmp46:
	#DEBUG_VALUE: col <- 0
	#DEBUG_VALUE: run:col <- 0
	#DEBUG_VALUE: row <- 2
	#DEBUG_VALUE: run:row <- 2
	.loc	6 245 1 is_stmt 1       # /home/talgat/libs/eigen/Eigen/src/Core/products/CoeffBasedProduct.h:245:1
	vmulsd	%xmm12, %xmm13, %xmm7
	.loc	6 246 1                 # /home/talgat/libs/eigen/Eigen/src/Core/products/CoeffBasedProduct.h:246:1
	vfmadd231sd	%xmm0, %xmm6, %xmm7 # xmm7 = (xmm6 * xmm0) + xmm7
	.loc	6 144 1                 # /home/talgat/libs/eigen/Eigen/src/Core/products/CoeffBasedProduct.h:144:1
	vfmadd231sd	%xmm0, %xmm9, %xmm7 # xmm7 = (xmm9 * xmm0) + xmm7
.Ltmp47:
	.loc	4 144 1 is_stmt 0       # /home/talgat/libs/eigen/Eigen/src/Core/Assign.h:144:1
	vaddsd	112(%rsi), %xmm7, %xmm12
.Ltmp48:
	.loc	6 144 1                 # /home/talgat/libs/eigen/Eigen/src/Core/products/CoeffBasedProduct.h:144:1
	vfmadd213sd	%xmm15, %xmm0, %xmm14 # xmm14 = (xmm0 * xmm14) + xmm15
.Ltmp49:
	#DEBUG_VALUE: res <- undef
	#DEBUG_VALUE: run:res <- undef
	#DEBUG_VALUE: rhs <- undef
	#DEBUG_VALUE: run:rhs <- undef
	#DEBUG_VALUE: lhs <- undef
	#DEBUG_VALUE: run:lhs <- undef
	#DEBUG_VALUE: col <- 0
	#DEBUG_VALUE: run:col <- 0
	#DEBUG_VALUE: row <- 1
	#DEBUG_VALUE: run:row <- 1
	.loc	1 407 1 is_stmt 1       # vlasovsolver/cpu_acc_intersections.cpp:407:1
	vmovsd	200(%rdx,%rcx), %xmm13  # xmm13 = mem[0],zero
.Ltmp50:
	#DEBUG_VALUE: col <- 0
	#DEBUG_VALUE: run:col <- 0
	#DEBUG_VALUE: row <- 2
	#DEBUG_VALUE: run:row <- 2
	.loc	6 245 1                 # /home/talgat/libs/eigen/Eigen/src/Core/products/CoeffBasedProduct.h:245:1
	vmulsd	%xmm10, %xmm5, %xmm10
	vmovsd	.LCPI1_0(%rip), %xmm7   # xmm7 = mem[0],zero
	.loc	6 246 1                 # /home/talgat/libs/eigen/Eigen/src/Core/products/CoeffBasedProduct.h:246:1
	vfmadd213sd	%xmm10, %xmm0, %xmm6 # xmm6 = (xmm0 * xmm6) + xmm10
	.loc	6 144 1                 # /home/talgat/libs/eigen/Eigen/src/Core/products/CoeffBasedProduct.h:144:1
	vfmadd213sd	%xmm6, %xmm0, %xmm9 # xmm9 = (xmm0 * xmm9) + xmm6
.Ltmp51:
	#DEBUG_VALUE:  <- undef
	#DEBUG_VALUE: coeffByOuterInner: <- undef
	#DEBUG_VALUE: .._T27768184_34322.m_rhs <- undef
	#DEBUG_VALUE: .._T27768184_34322.m_lhs <- undef
	#DEBUG_VALUE: p_normal <- undef
	#DEBUG_VALUE: line_plane_intersection:p_normal <- undef
	#DEBUG_VALUE: p_point <- undef
	#DEBUG_VALUE: line_plane_intersection:p_point <- undef
	#DEBUG_VALUE: l_direction <- undef
	#DEBUG_VALUE: line_plane_intersection:l_direction <- undef
	#DEBUG_VALUE: l_point <- undef
	#DEBUG_VALUE: line_plane_intersection:l_point <- undef
	#DEBUG_VALUE: euclidian_dk <- [DW_OP_LLVM_fragment 128 64] undef
	#DEBUG_VALUE: euclidian_dk <- [DW_OP_LLVM_fragment 64 64] 0.000000e+00
	#DEBUG_VALUE: euclidian_dk <- [DW_OP_LLVM_fragment 0 64] 0.000000e+00
	#DEBUG_VALUE: euclidian_dj <- [DW_OP_LLVM_fragment 128 64] 0.000000e+00
	#DEBUG_VALUE: euclidian_dj <- [DW_OP_LLVM_fragment 64 64] undef
	#DEBUG_VALUE: euclidian_dj <- [DW_OP_LLVM_fragment 0 64] 0.000000e+00
	#DEBUG_VALUE: lagrangian_di <- [DW_OP_LLVM_fragment 64 64] $xmm14
	#DEBUG_VALUE: lagrangian_di <- [DW_OP_LLVM_fragment 0 64] $xmm11
	#DEBUG_VALUE: lagrangian_di <- [DW_OP_LLVM_fragment 128 64] $xmm9
	#DEBUG_VALUE: line_direction <- [DW_OP_LLVM_fragment 128 64] 0.000000e+00
	#DEBUG_VALUE: line_direction <- [DW_OP_LLVM_fragment 64 64] 0.000000e+00
	#DEBUG_VALUE: line_direction <- [DW_OP_LLVM_fragment 0 64] 1.000000e+00
	#DEBUG_VALUE: plane_normal <- [DW_OP_LLVM_fragment 64 64] $xmm1
	#DEBUG_VALUE: plane_normal <- [DW_OP_LLVM_fragment 0 64] $xmm2
	#DEBUG_VALUE: plane_normal <- [DW_OP_LLVM_fragment 128 64] $xmm3
	#DEBUG_VALUE: plane_point <- [DW_OP_LLVM_fragment 128 64] $xmm12
	#DEBUG_VALUE: plane_point <- [DW_OP_LLVM_fragment 64 64] $xmm8
	#DEBUG_VALUE: plane_point <- [DW_OP_LLVM_fragment 0 64] $xmm4
	#DEBUG_VALUE: line_point <- [DW_OP_LLVM_fragment 0 64] 0.000000e+00
	.loc	3 103 1                 # /home/talgat/libs/eigen/Eigen/src/Core/Redux.h:103:1
	vmulsd	%xmm0, %xmm1, %xmm6
.Ltmp52:
	#DEBUG_VALUE: mat <- undef
	#DEBUG_VALUE: run:mat <- undef
	.loc	3 103 1 is_stmt 0       # /home/talgat/libs/eigen/Eigen/src/Core/Redux.h:103:1
	vmulsd	%xmm0, %xmm3, %xmm5
.Ltmp53:
	.loc	1 73 1 is_stmt 1        # vlasovsolver/cpu_acc_intersections.cpp:73:1
	vaddsd	%xmm5, %xmm6, %xmm5
	vmovsd	128(%rdx,%rcx), %xmm6   # xmm6 = mem[0],zero
.Ltmp54:
	.loc	1 407 1                 # vlasovsolver/cpu_acc_intersections.cpp:407:1
	vfmadd231sd	%xmm7, %xmm13, %xmm6 # xmm6 = (xmm13 * xmm7) + xmm6
.Ltmp55:
	.loc	4 495 1                 # /home/talgat/libs/eigen/Eigen/src/Core/Assign.h:495:1
	vaddsd	%xmm11, %xmm4, %xmm10
.Ltmp56:
	#DEBUG_VALUE: inner <- 0
	#DEBUG_VALUE: coeffByOuterInner:inner <- 0
	#DEBUG_VALUE: outer <- 0
	#DEBUG_VALUE: coeffByOuterInner:outer <- 0
	#DEBUG_VALUE: euclidian_dk <- [DW_OP_LLVM_fragment 64 64] 0.000000e+00
	#DEBUG_VALUE: euclidian_dk <- [DW_OP_LLVM_fragment 0 64] 0.000000e+00
	#DEBUG_VALUE: euclidian_dj <- [DW_OP_LLVM_fragment 128 64] 0.000000e+00
	#DEBUG_VALUE: euclidian_dj <- [DW_OP_LLVM_fragment 0 64] 0.000000e+00
	#DEBUG_VALUE: lagrangian_di <- [DW_OP_LLVM_fragment 64 64] $xmm14
	#DEBUG_VALUE: lagrangian_di <- [DW_OP_LLVM_fragment 0 64] $xmm11
	#DEBUG_VALUE: lagrangian_di <- [DW_OP_LLVM_fragment 128 64] $xmm9
	#DEBUG_VALUE: line_direction <- [DW_OP_LLVM_fragment 128 64] 0.000000e+00
	#DEBUG_VALUE: line_direction <- [DW_OP_LLVM_fragment 64 64] 0.000000e+00
	#DEBUG_VALUE: line_direction <- [DW_OP_LLVM_fragment 0 64] 1.000000e+00
	#DEBUG_VALUE: plane_normal <- [DW_OP_LLVM_fragment 64 64] $xmm1
	#DEBUG_VALUE: plane_normal <- [DW_OP_LLVM_fragment 0 64] $xmm2
	#DEBUG_VALUE: plane_normal <- [DW_OP_LLVM_fragment 128 64] $xmm3
	#DEBUG_VALUE: plane_point <- [DW_OP_LLVM_fragment 128 64] $xmm12
	#DEBUG_VALUE: plane_point <- [DW_OP_LLVM_fragment 64 64] $xmm8
	#DEBUG_VALUE: plane_point <- [DW_OP_LLVM_fragment 0 64] $xmm4
	#DEBUG_VALUE: line_point <- [DW_OP_LLVM_fragment 0 64] 0.000000e+00
	.loc	2 98 1                  # /home/talgat/libs/eigen/Eigen/src/Core/DenseCoeffsBase.h:98:1
	vmulsd	%xmm4, %xmm2, %xmm11
.Ltmp57:
	#DEBUG_VALUE: mat <- undef
	#DEBUG_VALUE: run:mat <- undef
	#DEBUG_VALUE: mat <- undef
	#DEBUG_VALUE: run:mat <- undef
	#DEBUG_VALUE:  <- undef
	#DEBUG_VALUE: coeffByOuterInner: <- undef
	#DEBUG_VALUE:  <- undef
	#DEBUG_VALUE: coeffByOuterInner: <- undef
	.loc	1 73 1                  # vlasovsolver/cpu_acc_intersections.cpp:73:1
	vaddsd	%xmm5, %xmm2, %xmm5
.Ltmp58:
	#DEBUG_VALUE: src <- undef
	#DEBUG_VALUE: run:src <- undef
	#DEBUG_VALUE: dst <- undef
	#DEBUG_VALUE: run:dst <- undef
	#DEBUG_VALUE: other <- undef
	#DEBUG_VALUE: Matrix:other <- undef
	#DEBUG_VALUE:  <- undef
	#DEBUG_VALUE: Matrix: <- undef
	#DEBUG_VALUE: intersection_0_0_0 <- [DW_OP_LLVM_fragment 128 64] undef
	#DEBUG_VALUE: intersection_0_0_0 <- [DW_OP_LLVM_fragment 64 64] undef
	#DEBUG_VALUE: src <- undef
	#DEBUG_VALUE: run:src <- undef
	#DEBUG_VALUE: dst <- undef
	#DEBUG_VALUE: run:dst <- undef
	#DEBUG_VALUE: other <- undef
	#DEBUG_VALUE: lazyAssign:other <- undef
	#DEBUG_VALUE:  <- undef
	#DEBUG_VALUE: lazyAssign: <- undef
	#DEBUG_VALUE: other <- undef
	#DEBUG_VALUE: Matrix:other <- undef
	#DEBUG_VALUE:  <- undef
	#DEBUG_VALUE: Matrix: <- undef
	.loc	2 98 1                  # /home/talgat/libs/eigen/Eigen/src/Core/DenseCoeffsBase.h:98:1
	vmulsd	%xmm10, %xmm2, %xmm15
.Ltmp59:
	#DEBUG_VALUE:  <- undef
	#DEBUG_VALUE: coeffByOuterInner: <- undef
	.loc	1 407 1                 # vlasovsolver/cpu_acc_intersections.cpp:407:1
	vmovsd	208(%rdx,%rcx), %xmm10  # xmm10 = mem[0],zero
	vfmadd213sd	136(%rdx,%rcx), %xmm10, %xmm7 # xmm7 = (xmm10 * xmm7) + mem
.Ltmp60:
	#DEBUG_VALUE: res <- undef
	#DEBUG_VALUE: run:res <- undef
	#DEBUG_VALUE: rhs <- undef
	#DEBUG_VALUE: run:rhs <- undef
	#DEBUG_VALUE: lhs <- undef
	#DEBUG_VALUE: run:lhs <- undef
	#DEBUG_VALUE: col <- 0
	#DEBUG_VALUE: run:col <- 0
	#DEBUG_VALUE: row <- 0
	#DEBUG_VALUE: run:row <- 0
	#DEBUG_VALUE: src <- undef
	#DEBUG_VALUE: run:src <- undef
	#DEBUG_VALUE: dst <- undef
	#DEBUG_VALUE: run:dst <- undef
	#DEBUG_VALUE: other <- undef
	#DEBUG_VALUE: lazyAssign:other <- undef
	#DEBUG_VALUE:  <- undef
	#DEBUG_VALUE: lazyAssign: <- undef
	#DEBUG_VALUE: line_point <- [DW_OP_LLVM_fragment 128 64] $xmm7
	.loc	4 180 1                 # /home/talgat/libs/eigen/Eigen/src/Core/Assign.h:180:1
	vaddsd	%xmm14, %xmm8, %xmm4
.Ltmp61:
	#DEBUG_VALUE: euclidian_dk <- [DW_OP_LLVM_fragment 64 64] 0.000000e+00
	#DEBUG_VALUE: euclidian_dk <- [DW_OP_LLVM_fragment 0 64] 0.000000e+00
	#DEBUG_VALUE: euclidian_dj <- [DW_OP_LLVM_fragment 128 64] 0.000000e+00
	#DEBUG_VALUE: euclidian_dj <- [DW_OP_LLVM_fragment 0 64] 0.000000e+00
	#DEBUG_VALUE: lagrangian_di <- [DW_OP_LLVM_fragment 64 64] $xmm14
	#DEBUG_VALUE: lagrangian_di <- [DW_OP_LLVM_fragment 128 64] $xmm9
	#DEBUG_VALUE: line_direction <- [DW_OP_LLVM_fragment 128 64] 0.000000e+00
	#DEBUG_VALUE: line_direction <- [DW_OP_LLVM_fragment 64 64] 0.000000e+00
	#DEBUG_VALUE: line_direction <- [DW_OP_LLVM_fragment 0 64] 1.000000e+00
	#DEBUG_VALUE: plane_normal <- [DW_OP_LLVM_fragment 64 64] $xmm1
	#DEBUG_VALUE: plane_normal <- [DW_OP_LLVM_fragment 128 64] $xmm3
	#DEBUG_VALUE: plane_point <- [DW_OP_LLVM_fragment 128 64] $xmm12
	#DEBUG_VALUE: plane_point <- [DW_OP_LLVM_fragment 64 64] $xmm8
	#DEBUG_VALUE: line_point <- [DW_OP_LLVM_fragment 0 64] 0.000000e+00
	.loc	4 181 1                 # /home/talgat/libs/eigen/Eigen/src/Core/Assign.h:181:1
	vaddsd	%xmm9, %xmm12, %xmm2
.Ltmp62:
	#DEBUG_VALUE: inner <- 0
	#DEBUG_VALUE: coeffByOuterInner:inner <- 0
	#DEBUG_VALUE: outer <- 0
	#DEBUG_VALUE: coeffByOuterInner:outer <- 0
	#DEBUG_VALUE:  <- undef
	#DEBUG_VALUE: coeffByOuterInner: <- undef
	#DEBUG_VALUE: .._T27768184_34322.m_rhs <- undef
	#DEBUG_VALUE: .._T27768184_34322.m_lhs <- undef
	#DEBUG_VALUE: p_normal <- undef
	#DEBUG_VALUE: line_plane_intersection:p_normal <- undef
	#DEBUG_VALUE: p_point <- undef
	#DEBUG_VALUE: line_plane_intersection:p_point <- undef
	#DEBUG_VALUE: l_direction <- undef
	#DEBUG_VALUE: line_plane_intersection:l_direction <- undef
	#DEBUG_VALUE: l_point <- undef
	#DEBUG_VALUE: line_plane_intersection:l_point <- undef
	#DEBUG_VALUE: inner <- 1
	#DEBUG_VALUE: coeffByOuterInner:inner <- 1
	#DEBUG_VALUE: outer <- 0
	#DEBUG_VALUE: coeffByOuterInner:outer <- 0
	.loc	2 98 1                  # /home/talgat/libs/eigen/Eigen/src/Core/DenseCoeffsBase.h:98:1
	vsubsd	%xmm6, %xmm4, %xmm4
	vmulsd	%xmm4, %xmm1, %xmm4
.Ltmp63:
	#DEBUG_VALUE: inner <- 2
	#DEBUG_VALUE: coeffByOuterInner:inner <- 2
	#DEBUG_VALUE: outer <- 0
	#DEBUG_VALUE: coeffByOuterInner:outer <- 0
	#DEBUG_VALUE:  <- undef
	#DEBUG_VALUE: coeffByOuterInner: <- undef
	.loc	2 98 1 is_stmt 0        # /home/talgat/libs/eigen/Eigen/src/Core/DenseCoeffsBase.h:98:1
	vsubsd	%xmm7, %xmm2, %xmm2
	vmulsd	%xmm2, %xmm3, %xmm2
.Ltmp64:
	.loc	1 73 1 is_stmt 1        # vlasovsolver/cpu_acc_intersections.cpp:73:1
	vaddsd	%xmm2, %xmm4, %xmm2
	vaddsd	%xmm2, %xmm15, %xmm9
.Ltmp65:
	#DEBUG_VALUE: mat <- undef
	#DEBUG_VALUE: run:mat <- undef
	#DEBUG_VALUE: mat <- undef
	#DEBUG_VALUE: run:mat <- undef
	#DEBUG_VALUE: mat <- undef
	#DEBUG_VALUE: run:mat <- undef
	#DEBUG_VALUE: nom <- $xmm9
	.loc	4 180 1                 # /home/talgat/libs/eigen/Eigen/src/Core/Assign.h:180:1
	vaddsd	%xmm13, %xmm6, %xmm4
	.loc	4 181 1                 # /home/talgat/libs/eigen/Eigen/src/Core/Assign.h:181:1
	vaddsd	%xmm0, %xmm7, %xmm2
.Ltmp66:
	#DEBUG_VALUE: inner <- 1
	#DEBUG_VALUE: coeffByOuterInner:inner <- 1
	#DEBUG_VALUE: outer <- 0
	#DEBUG_VALUE: coeffByOuterInner:outer <- 0
	#DEBUG_VALUE:  <- undef
	#DEBUG_VALUE: coeffByOuterInner: <- undef
	#DEBUG_VALUE: inner <- 0
	#DEBUG_VALUE: coeffByOuterInner:inner <- 0
	#DEBUG_VALUE: outer <- 0
	#DEBUG_VALUE: coeffByOuterInner:outer <- 0
	#DEBUG_VALUE:  <- undef
	#DEBUG_VALUE: coeffByOuterInner: <- undef
	#DEBUG_VALUE: .._T27768184_34322.m_rhs <- undef
	#DEBUG_VALUE: .._T27768184_34322.m_lhs <- undef
	#DEBUG_VALUE: p_normal <- undef
	#DEBUG_VALUE: line_plane_intersection:p_normal <- undef
	#DEBUG_VALUE: p_point <- undef
	#DEBUG_VALUE: line_plane_intersection:p_point <- undef
	#DEBUG_VALUE: l_direction <- undef
	#DEBUG_VALUE: line_plane_intersection:l_direction <- undef
	#DEBUG_VALUE: l_point <- undef
	#DEBUG_VALUE: line_plane_intersection:l_point <- undef
	.loc	2 98 1                  # /home/talgat/libs/eigen/Eigen/src/Core/DenseCoeffsBase.h:98:1
	vsubsd	%xmm4, %xmm8, %xmm4
	vmulsd	%xmm4, %xmm1, %xmm4
.Ltmp67:
	#DEBUG_VALUE: inner <- 2
	#DEBUG_VALUE: coeffByOuterInner:inner <- 2
	#DEBUG_VALUE: outer <- 0
	#DEBUG_VALUE: coeffByOuterInner:outer <- 0
	#DEBUG_VALUE:  <- undef
	#DEBUG_VALUE: coeffByOuterInner: <- undef
	.loc	2 98 1 is_stmt 0        # /home/talgat/libs/eigen/Eigen/src/Core/DenseCoeffsBase.h:98:1
	vsubsd	%xmm2, %xmm12, %xmm2
	vmulsd	%xmm2, %xmm3, %xmm2
.Ltmp68:
	.loc	1 73 1 is_stmt 1        # vlasovsolver/cpu_acc_intersections.cpp:73:1
	vaddsd	%xmm4, %xmm2, %xmm2
.Ltmp69:
	.loc	1 53 1                  # vlasovsolver/cpu_acc_intersections.cpp:53:1
	vdivsd	%xmm5, %xmm9, %xmm4
.Ltmp70:
	#DEBUG_VALUE: other <- undef
	#DEBUG_VALUE: lazyAssign:other <- undef
	#DEBUG_VALUE:  <- undef
	#DEBUG_VALUE: lazyAssign: <- undef
	#DEBUG_VALUE: other <- undef
	#DEBUG_VALUE: Matrix:other <- undef
	#DEBUG_VALUE:  <- undef
	#DEBUG_VALUE: Matrix: <- undef
	#DEBUG_VALUE: nom <- $xmm9
	.loc	4 313 1                 # /home/talgat/libs/eigen/Eigen/src/Core/Assign.h:313:1
	vaddsd	%xmm0, %xmm4, %xmm4
.Ltmp71:
	#DEBUG_VALUE: src <- undef
	#DEBUG_VALUE: run:src <- undef
	#DEBUG_VALUE: dst <- undef
	#DEBUG_VALUE: run:dst <- undef
	#DEBUG_VALUE: other <- undef
	#DEBUG_VALUE: Matrix:other <- undef
	#DEBUG_VALUE:  <- undef
	#DEBUG_VALUE: Matrix: <- undef
	#DEBUG_VALUE: intersection_1_0_0 <- [DW_OP_LLVM_fragment 128 64] undef
	#DEBUG_VALUE: intersection_1_0_0 <- [DW_OP_LLVM_fragment 64 64] undef
	#DEBUG_VALUE: src <- undef
	#DEBUG_VALUE: run:src <- undef
	#DEBUG_VALUE: dst <- undef
	#DEBUG_VALUE: run:dst <- undef
	#DEBUG_VALUE: intersection_1_0_0 <- [DW_OP_LLVM_fragment 0 64] $xmm4
	.loc	1 73 1                  # vlasovsolver/cpu_acc_intersections.cpp:73:1
	vaddsd	%xmm2, %xmm11, %xmm2
.Ltmp72:
	#DEBUG_VALUE: mat <- undef
	#DEBUG_VALUE: run:mat <- undef
	#DEBUG_VALUE: mat <- undef
	#DEBUG_VALUE: run:mat <- undef
	#DEBUG_VALUE: mat <- undef
	#DEBUG_VALUE: run:mat <- undef
	#DEBUG_VALUE: nom <- $xmm2
	.loc	1 53 1                  # vlasovsolver/cpu_acc_intersections.cpp:53:1
	vdivsd	%xmm5, %xmm2, %xmm2
.Ltmp73:
	#DEBUG_VALUE: other <- undef
	#DEBUG_VALUE: lazyAssign:other <- undef
	#DEBUG_VALUE:  <- undef
	#DEBUG_VALUE: lazyAssign: <- undef
	#DEBUG_VALUE: other <- undef
	#DEBUG_VALUE: Matrix:other <- undef
	#DEBUG_VALUE:  <- undef
	#DEBUG_VALUE: Matrix: <- undef
	.loc	4 313 1                 # /home/talgat/libs/eigen/Eigen/src/Core/Assign.h:313:1
	vaddsd	%xmm0, %xmm2, %xmm2
.Ltmp74:
	#DEBUG_VALUE: src <- undef
	#DEBUG_VALUE: run:src <- undef
	#DEBUG_VALUE: dst <- undef
	#DEBUG_VALUE: run:dst <- undef
	#DEBUG_VALUE: other <- undef
	#DEBUG_VALUE: Matrix:other <- undef
	#DEBUG_VALUE:  <- undef
	#DEBUG_VALUE: Matrix: <- undef
	#DEBUG_VALUE: intersection_0_1_0 <- [DW_OP_LLVM_fragment 128 64] undef
	#DEBUG_VALUE: intersection_0_1_0 <- [DW_OP_LLVM_fragment 64 64] undef
	#DEBUG_VALUE: src <- undef
	#DEBUG_VALUE: run:src <- undef
	#DEBUG_VALUE: dst <- undef
	#DEBUG_VALUE: run:dst <- undef
	#DEBUG_VALUE: intersection_0_1_0 <- [DW_OP_LLVM_fragment 0 64] $xmm2
	.loc	4 180 1                 # /home/talgat/libs/eigen/Eigen/src/Core/Assign.h:180:1
	vaddsd	%xmm0, %xmm6, %xmm0
.Ltmp75:
	#DEBUG_VALUE: inner <- 1
	#DEBUG_VALUE: coeffByOuterInner:inner <- 1
	#DEBUG_VALUE: outer <- 0
	#DEBUG_VALUE: coeffByOuterInner:outer <- 0
	.loc	2 98 1                  # /home/talgat/libs/eigen/Eigen/src/Core/DenseCoeffsBase.h:98:1
	vunpcklpd	%xmm0, %xmm6, %xmm0 # xmm0 = xmm6[0],xmm0[0]
	vmovddup	%xmm8, %xmm6    # xmm6 = xmm8[0,0]
	vsubpd	%xmm0, %xmm6, %xmm0
	vmovddup	%xmm1, %xmm1    # xmm1 = xmm1[0,0]
.Ltmp76:
	vmulpd	%xmm0, %xmm1, %xmm0
.Ltmp77:
	#DEBUG_VALUE: inner <- 2
	#DEBUG_VALUE: coeffByOuterInner:inner <- 2
	#DEBUG_VALUE: outer <- 0
	#DEBUG_VALUE: coeffByOuterInner:outer <- 0
	#DEBUG_VALUE:  <- undef
	#DEBUG_VALUE: coeffByOuterInner: <- undef
	.loc	4 181 1                 # /home/talgat/libs/eigen/Eigen/src/Core/Assign.h:181:1
	vaddsd	%xmm10, %xmm7, %xmm1
.Ltmp78:
	#DEBUG_VALUE: inner <- 1
	#DEBUG_VALUE: coeffByOuterInner:inner <- 1
	#DEBUG_VALUE: outer <- 0
	#DEBUG_VALUE: coeffByOuterInner:outer <- 0
	#DEBUG_VALUE:  <- undef
	#DEBUG_VALUE: coeffByOuterInner: <- undef
	#DEBUG_VALUE: inner <- 0
	#DEBUG_VALUE: coeffByOuterInner:inner <- 0
	#DEBUG_VALUE: outer <- 0
	#DEBUG_VALUE: coeffByOuterInner:outer <- 0
	#DEBUG_VALUE:  <- undef
	#DEBUG_VALUE: coeffByOuterInner: <- undef
	#DEBUG_VALUE: .._T27768184_34322.m_rhs <- undef
	#DEBUG_VALUE: .._T27768184_34322.m_lhs <- undef
	#DEBUG_VALUE: p_normal <- undef
	#DEBUG_VALUE: line_plane_intersection:p_normal <- undef
	#DEBUG_VALUE: p_point <- undef
	#DEBUG_VALUE: line_plane_intersection:p_point <- undef
	#DEBUG_VALUE: l_direction <- undef
	#DEBUG_VALUE: line_plane_intersection:l_direction <- undef
	#DEBUG_VALUE: l_point <- undef
	#DEBUG_VALUE: line_plane_intersection:l_point <- undef
	#DEBUG_VALUE: inner <- 2
	#DEBUG_VALUE: coeffByOuterInner:inner <- 2
	#DEBUG_VALUE: outer <- 0
	#DEBUG_VALUE: coeffByOuterInner:outer <- 0
	.loc	2 98 1                  # /home/talgat/libs/eigen/Eigen/src/Core/DenseCoeffsBase.h:98:1
	vunpcklpd	%xmm1, %xmm7, %xmm1 # xmm1 = xmm7[0],xmm1[0]
	vmovddup	%xmm12, %xmm6   # xmm6 = xmm12[0,0]
	vsubpd	%xmm1, %xmm6, %xmm1
	vmovddup	%xmm3, %xmm3    # xmm3 = xmm3[0,0]
.Ltmp79:
	vmulpd	%xmm1, %xmm3, %xmm1
.Ltmp80:
	.loc	1 73 1                  # vlasovsolver/cpu_acc_intersections.cpp:73:1
	vaddpd	%xmm1, %xmm0, %xmm0
	vmovddup	%xmm11, %xmm1   # xmm1 = xmm11[0,0]
	vaddpd	%xmm0, %xmm1, %xmm0
.Ltmp81:
	#DEBUG_VALUE: mat <- undef
	#DEBUG_VALUE: run:mat <- undef
	#DEBUG_VALUE: mat <- undef
	#DEBUG_VALUE: run:mat <- undef
	#DEBUG_VALUE: mat <- undef
	#DEBUG_VALUE: run:mat <- undef
	.loc	1 53 1                  # vlasovsolver/cpu_acc_intersections.cpp:53:1
	vmovddup	%xmm5, %xmm1    # xmm1 = xmm5[0,0]
	vdivpd	%xmm1, %xmm0, %xmm0
.Ltmp82:
	#DEBUG_VALUE: other <- undef
	#DEBUG_VALUE: lazyAssign:other <- undef
	#DEBUG_VALUE:  <- undef
	#DEBUG_VALUE: lazyAssign: <- undef
	#DEBUG_VALUE: other <- undef
	#DEBUG_VALUE: Matrix:other <- undef
	#DEBUG_VALUE:  <- undef
	#DEBUG_VALUE: Matrix: <- undef
	.loc	4 313 1                 # /home/talgat/libs/eigen/Eigen/src/Core/Assign.h:313:1
	vxorpd	%xmm1, %xmm1, %xmm1
	vaddpd	%xmm1, %xmm0, %xmm0
.Ltmp83:
	#DEBUG_VALUE: intersection_0_0_1 <- [DW_OP_LLVM_fragment 128 64] undef
	#DEBUG_VALUE: intersection_0_0_1 <- [DW_OP_LLVM_fragment 64 64] undef
	#DEBUG_VALUE: src <- undef
	#DEBUG_VALUE: run:src <- undef
	#DEBUG_VALUE: dst <- undef
	#DEBUG_VALUE: run:dst <- undef
	.loc	1 158 1                 # vlasovsolver/cpu_acc_intersections.cpp:158:1
	vmovlpd	%xmm0, (%r9)
	vsubsd	%xmm0, %xmm4, %xmm1
	vmovsd	%xmm1, (%rax)
	vsubsd	%xmm0, %xmm2, %xmm1
	jmp	.LBB1_6
.Ltmp84:
.LBB1_5:                                # %L.B2607
	#DEBUG_VALUE: compute_intersections_1st:intersection_di <- [DW_OP_plus_uconst 16] [$rbp+0]
	#DEBUG_VALUE: intersection_di <- [DW_OP_plus_uconst 16] [$rbp+0]
	#DEBUG_VALUE: compute_intersections_1st:intersection_dj <- [DW_OP_plus_uconst 24] [$rbp+0]
	#DEBUG_VALUE: intersection_dj <- [DW_OP_plus_uconst 24] [$rbp+0]
	#DEBUG_VALUE: compute_intersections_1st:intersection_dk <- [DW_OP_plus_uconst 32] [$rbp+0]
	#DEBUG_VALUE: intersection_dk <- [DW_OP_plus_uconst 32] [$rbp+0]
	#DEBUG_VALUE: intersection <- $r9
	#DEBUG_VALUE: refLevel <- $r8
	#DEBUG_VALUE: dimension <- $ecx
	#DEBUG_VALUE: fwd_transform <- $rdx
	#DEBUG_VALUE: bwd_transform <- $rsi
	#DEBUG_VALUE: vmesh <- $rdi
	#DEBUG_VALUE: compute_intersections_1st:intersection <- $r9
	#DEBUG_VALUE: compute_intersections_1st:refLevel <- $r8
	#DEBUG_VALUE: compute_intersections_1st:dimension <- $ecx
	#DEBUG_VALUE: compute_intersections_1st:fwd_transform <- $rdx
	#DEBUG_VALUE: compute_intersections_1st:bwd_transform <- $rsi
	#DEBUG_VALUE: compute_intersections_1st:vmesh <- $rdi
	#DEBUG_VALUE: lazyAssign: <- undef
	#DEBUG_VALUE:  <- undef
	#DEBUG_VALUE: lazyAssign:other <- undef
	#DEBUG_VALUE: other <- undef
	#DEBUG_VALUE: run:dst <- undef
	#DEBUG_VALUE: dst <- undef
	#DEBUG_VALUE: run:src <- undef
	#DEBUG_VALUE: src <- undef
	#DEBUG_VALUE: run:lhs <- undef
	#DEBUG_VALUE: lhs <- undef
	#DEBUG_VALUE: run:rhs <- undef
	#DEBUG_VALUE: rhs <- undef
	#DEBUG_VALUE: run:res <- undef
	#DEBUG_VALUE: res <- undef
	.loc	1 0 1 is_stmt 0         # vlasovsolver/cpu_acc_intersections.cpp:0:1
	vxorpd	%xmm14, %xmm14, %xmm14
.Ltmp85:
	#DEBUG_VALUE: col <- 0
	#DEBUG_VALUE: run:col <- 0
	#DEBUG_VALUE: row <- 0
	#DEBUG_VALUE: run:row <- 0
	.loc	6 245 1 is_stmt 1       # /home/talgat/libs/eigen/Eigen/src/Core/products/CoeffBasedProduct.h:245:1
	vmulsd	(%rsi), %xmm14, %xmm3
	.loc	6 246 1                 # /home/talgat/libs/eigen/Eigen/src/Core/products/CoeffBasedProduct.h:246:1
	vfmadd231sd	32(%rsi), %xmm14, %xmm3 # xmm3 = (xmm14 * mem) + xmm3
	.loc	6 144 1                 # /home/talgat/libs/eigen/Eigen/src/Core/products/CoeffBasedProduct.h:144:1
	vmovsd	64(%rsi), %xmm0         # xmm0 = mem[0],zero
.Ltmp86:
	.loc	6 144 1 is_stmt 0       # /home/talgat/libs/eigen/Eigen/src/Core/products/CoeffBasedProduct.h:144:1
	vmovsd	72(%rsi), %xmm12        # xmm12 = mem[0],zero
	.loc	6 245 1 is_stmt 1       # /home/talgat/libs/eigen/Eigen/src/Core/products/CoeffBasedProduct.h:245:1
	vmulsd	8(%rsi), %xmm14, %xmm1
	.loc	6 246 1                 # /home/talgat/libs/eigen/Eigen/src/Core/products/CoeffBasedProduct.h:246:1
	vfmadd231sd	40(%rsi), %xmm14, %xmm1 # xmm1 = (xmm14 * mem) + xmm1
.Ltmp87:
	.loc	6 144 1                 # /home/talgat/libs/eigen/Eigen/src/Core/products/CoeffBasedProduct.h:144:1
	vaddsd	%xmm3, %xmm0, %xmm11
.Ltmp88:
	#DEBUG_VALUE: res <- undef
	#DEBUG_VALUE: run:res <- undef
	#DEBUG_VALUE: rhs <- undef
	#DEBUG_VALUE: run:rhs <- undef
	#DEBUG_VALUE: lhs <- undef
	#DEBUG_VALUE: run:lhs <- undef
	#DEBUG_VALUE: col <- 0
	#DEBUG_VALUE: run:col <- 0
	#DEBUG_VALUE: row <- 1
	#DEBUG_VALUE: run:row <- 1
	#DEBUG_VALUE: col <- 0
	#DEBUG_VALUE: run:col <- 0
	#DEBUG_VALUE: row <- 0
	#DEBUG_VALUE: run:row <- 0
	.loc	6 144 1 is_stmt 0       # /home/talgat/libs/eigen/Eigen/src/Core/products/CoeffBasedProduct.h:144:1
	vaddsd	%xmm1, %xmm12, %xmm9
.Ltmp89:
	#DEBUG_VALUE: res <- undef
	#DEBUG_VALUE: run:res <- undef
	#DEBUG_VALUE: rhs <- undef
	#DEBUG_VALUE: run:rhs <- undef
	#DEBUG_VALUE: lhs <- undef
	#DEBUG_VALUE: run:lhs <- undef
	#DEBUG_VALUE: col <- 0
	#DEBUG_VALUE: run:col <- 0
	#DEBUG_VALUE: row <- 2
	#DEBUG_VALUE: run:row <- 2
	.loc	6 245 1 is_stmt 1       # /home/talgat/libs/eigen/Eigen/src/Core/products/CoeffBasedProduct.h:245:1
	vmulsd	16(%rsi), %xmm14, %xmm6
	.loc	6 246 1                 # /home/talgat/libs/eigen/Eigen/src/Core/products/CoeffBasedProduct.h:246:1
	vfmadd231sd	48(%rsi), %xmm14, %xmm6 # xmm6 = (xmm14 * mem) + xmm6
	.loc	6 144 1                 # /home/talgat/libs/eigen/Eigen/src/Core/products/CoeffBasedProduct.h:144:1
	vmovsd	80(%rsi), %xmm7         # xmm7 = mem[0],zero
	vaddsd	%xmm6, %xmm7, %xmm8
.Ltmp90:
	.loc	1 407 1                 # vlasovsolver/cpu_acc_intersections.cpp:407:1
	movq	_ZN5vmesh12VelocityMeshIjjE14meshParametersE(%rip), %rcx
.Ltmp91:
	imulq	$336, (%rdi), %rdx      # imm = 0x150
.Ltmp92:
	.loc	1 270 1                 # vlasovsolver/cpu_acc_intersections.cpp:270:1
	vmovsd	136(%rcx,%rdx), %xmm4   # xmm4 = mem[0],zero
	.loc	1 407 1                 # vlasovsolver/cpu_acc_intersections.cpp:407:1
	vmovsd	192(%rcx,%rdx), %xmm10  # xmm10 = mem[0],zero
.Ltmp93:
	#DEBUG_VALUE: rhs <- undef
	#DEBUG_VALUE: run:rhs <- undef
	#DEBUG_VALUE: lhs <- undef
	#DEBUG_VALUE: run:lhs <- undef
	#DEBUG_VALUE: col <- 0
	#DEBUG_VALUE: run:col <- 0
	#DEBUG_VALUE: row <- 0
	#DEBUG_VALUE: run:row <- 0
	#DEBUG_VALUE: src <- undef
	#DEBUG_VALUE: run:src <- undef
	#DEBUG_VALUE: dst <- undef
	#DEBUG_VALUE: run:dst <- undef
	#DEBUG_VALUE: other <- undef
	#DEBUG_VALUE: operator+=:other <- undef
	#DEBUG_VALUE:  <- undef
	#DEBUG_VALUE: operator+=: <- undef
	#DEBUG_VALUE: plane_point <- [DW_OP_LLVM_fragment 128 64] undef
	#DEBUG_VALUE: src <- undef
	#DEBUG_VALUE: run:src <- undef
	#DEBUG_VALUE: dst <- undef
	#DEBUG_VALUE: run:dst <- undef
	#DEBUG_VALUE: plane_point <- [DW_OP_LLVM_fragment 64 64] undef
	#DEBUG_VALUE: src <- undef
	#DEBUG_VALUE: run:src <- undef
	#DEBUG_VALUE: dst <- undef
	#DEBUG_VALUE: run:dst <- undef
	#DEBUG_VALUE: plane_point <- [DW_OP_LLVM_fragment 0 64] undef
	#DEBUG_VALUE: src <- undef
	#DEBUG_VALUE: run:src <- undef
	#DEBUG_VALUE: dst <- undef
	#DEBUG_VALUE: run:dst <- undef
	#DEBUG_VALUE: other <- undef
	#DEBUG_VALUE: lazyAssign:other <- undef
	#DEBUG_VALUE:  <- undef
	#DEBUG_VALUE: lazyAssign: <- undef
	#DEBUG_VALUE: a_startCol <- 3
	#DEBUG_VALUE: BlockImpl:a_startCol <- 3
	#DEBUG_VALUE: a_startRow <- 0
	#DEBUG_VALUE: BlockImpl:a_startRow <- 0
	#DEBUG_VALUE: xpr <- $rsi
	#DEBUG_VALUE: BlockImpl:xpr <- $rsi
	#DEBUG_VALUE:  <- undef
	#DEBUG_VALUE: BlockImpl: <- undef
	#DEBUG_VALUE: other <- undef
	#DEBUG_VALUE: run:other <- undef
	#DEBUG_VALUE: T <- $rsi
	#DEBUG_VALUE: run:T <- $rsi
	.loc	6 144 1                 # /home/talgat/libs/eigen/Eigen/src/Core/products/CoeffBasedProduct.h:144:1
	vmovapd	%xmm0, %xmm5
	vfmadd213sd	%xmm3, %xmm4, %xmm5 # xmm5 = (xmm4 * xmm5) + xmm3
.Ltmp94:
	.loc	4 144 1 is_stmt 0       # /home/talgat/libs/eigen/Eigen/src/Core/Assign.h:144:1
	vaddsd	96(%rsi), %xmm5, %xmm13
.Ltmp95:
	#DEBUG_VALUE: rhs <- undef
	#DEBUG_VALUE: run:rhs <- undef
	#DEBUG_VALUE: lhs <- undef
	#DEBUG_VALUE: run:lhs <- undef
	#DEBUG_VALUE: src <- undef
	#DEBUG_VALUE: run:src <- undef
	#DEBUG_VALUE: dst <- undef
	#DEBUG_VALUE: run:dst <- undef
	.loc	1 270 1 is_stmt 1       # vlasovsolver/cpu_acc_intersections.cpp:270:1
	vmovsd	208(%rcx,%rdx), %xmm5   # xmm5 = mem[0],zero
.Ltmp96:
	#DEBUG_VALUE: res <- undef
	#DEBUG_VALUE: run:res <- undef
	#DEBUG_VALUE: rhs <- undef
	#DEBUG_VALUE: run:rhs <- undef
	#DEBUG_VALUE: lhs <- undef
	#DEBUG_VALUE: run:lhs <- undef
	#DEBUG_VALUE: col <- 0
	#DEBUG_VALUE: run:col <- 0
	#DEBUG_VALUE: row <- 0
	#DEBUG_VALUE: run:row <- 0
	#DEBUG_VALUE: src <- undef
	#DEBUG_VALUE: run:src <- undef
	#DEBUG_VALUE: dst <- undef
	#DEBUG_VALUE: run:dst <- undef
	#DEBUG_VALUE: other <- undef
	#DEBUG_VALUE: lazyAssign:other <- undef
	#DEBUG_VALUE:  <- undef
	#DEBUG_VALUE: lazyAssign: <- undef
	.loc	6 144 1                 # /home/talgat/libs/eigen/Eigen/src/Core/products/CoeffBasedProduct.h:144:1
	vfmadd231sd	%xmm0, %xmm5, %xmm3 # xmm3 = (xmm5 * xmm0) + xmm3
.Ltmp97:
	#DEBUG_VALUE: res <- undef
	#DEBUG_VALUE: run:res <- undef
	#DEBUG_VALUE: rhs <- undef
	#DEBUG_VALUE: run:rhs <- undef
	#DEBUG_VALUE: lhs <- undef
	#DEBUG_VALUE: run:lhs <- undef
	#DEBUG_VALUE: col <- 0
	#DEBUG_VALUE: run:col <- 0
	#DEBUG_VALUE: row <- 1
	#DEBUG_VALUE: run:row <- 1
	.loc	6 144 1 is_stmt 0       # /home/talgat/libs/eigen/Eigen/src/Core/products/CoeffBasedProduct.h:144:1
	vmovapd	%xmm12, %xmm0
	#DEBUG_VALUE: T <- $rsi
	#DEBUG_VALUE: run:T <- $rsi
	vfmadd213sd	%xmm1, %xmm4, %xmm0 # xmm0 = (xmm4 * xmm0) + xmm1
.Ltmp98:
	.loc	4 505 1 is_stmt 1       # /home/talgat/libs/eigen/Eigen/src/Core/Assign.h:505:1
	vaddsd	104(%rsi), %xmm0, %xmm0
.Ltmp99:
	#DEBUG_VALUE: rhs <- undef
	#DEBUG_VALUE: run:rhs <- undef
	#DEBUG_VALUE: lhs <- undef
	#DEBUG_VALUE: run:lhs <- undef
	#DEBUG_VALUE: col <- 0
	#DEBUG_VALUE: run:col <- 0
	#DEBUG_VALUE: row <- 2
	#DEBUG_VALUE: run:row <- 2
	.loc	6 144 1                 # /home/talgat/libs/eigen/Eigen/src/Core/products/CoeffBasedProduct.h:144:1
	vfmadd213sd	%xmm6, %xmm7, %xmm4 # xmm4 = (xmm7 * xmm4) + xmm6
.Ltmp100:
	.loc	4 144 1 is_stmt 0       # /home/talgat/libs/eigen/Eigen/src/Core/Assign.h:144:1
	vaddsd	112(%rsi), %xmm4, %xmm2
.Ltmp101:
	#DEBUG_VALUE: col <- 0
	#DEBUG_VALUE: run:col <- 0
	#DEBUG_VALUE: row <- 1
	#DEBUG_VALUE: run:row <- 1
	.loc	6 144 1                 # /home/talgat/libs/eigen/Eigen/src/Core/products/CoeffBasedProduct.h:144:1
	vfmadd231sd	%xmm12, %xmm5, %xmm1 # xmm1 = (xmm5 * xmm12) + xmm1
.Ltmp102:
	#DEBUG_VALUE: res <- undef
	#DEBUG_VALUE: run:res <- undef
	#DEBUG_VALUE: rhs <- undef
	#DEBUG_VALUE: run:rhs <- undef
	#DEBUG_VALUE: lhs <- undef
	#DEBUG_VALUE: run:lhs <- undef
	.loc	6 0 1                   # /home/talgat/libs/eigen/Eigen/src/Core/products/CoeffBasedProduct.h:0:1
	vmovsd	.LCPI1_0(%rip), %xmm4   # xmm4 = mem[0],zero
.Ltmp103:
	#DEBUG_VALUE: col <- 0
	#DEBUG_VALUE: run:col <- 0
	#DEBUG_VALUE: row <- 2
	#DEBUG_VALUE: run:row <- 2
	.loc	6 144 1                 # /home/talgat/libs/eigen/Eigen/src/Core/products/CoeffBasedProduct.h:144:1
	vfmadd231sd	%xmm7, %xmm5, %xmm6 # xmm6 = (xmm5 * xmm7) + xmm6
.Ltmp104:
	#DEBUG_VALUE: mat <- undef
	#DEBUG_VALUE: run:mat <- undef
	#DEBUG_VALUE:  <- undef
	#DEBUG_VALUE: coeffByOuterInner: <- undef
	#DEBUG_VALUE:  <- undef
	#DEBUG_VALUE: coeffByOuterInner: <- undef
	#DEBUG_VALUE:  <- undef
	#DEBUG_VALUE: coeffByOuterInner: <- undef
	#DEBUG_VALUE: .._T27768184_34322.m_rhs <- undef
	#DEBUG_VALUE: .._T27768184_34322.m_lhs <- undef
	#DEBUG_VALUE: p_normal <- undef
	#DEBUG_VALUE: line_plane_intersection:p_normal <- undef
	#DEBUG_VALUE: p_point <- undef
	#DEBUG_VALUE: line_plane_intersection:p_point <- undef
	#DEBUG_VALUE: l_direction <- undef
	#DEBUG_VALUE: line_plane_intersection:l_direction <- undef
	#DEBUG_VALUE: l_point <- undef
	#DEBUG_VALUE: line_plane_intersection:l_point <- undef
	#DEBUG_VALUE: lagrangian_dk <- [DW_OP_LLVM_fragment 64 64] $xmm1
	#DEBUG_VALUE: lagrangian_dk <- [DW_OP_LLVM_fragment 0 64] $xmm3
	#DEBUG_VALUE: lagrangian_dk <- [DW_OP_LLVM_fragment 128 64] $xmm6
	#DEBUG_VALUE: plane_point <- [DW_OP_LLVM_fragment 128 64] $xmm2
	#DEBUG_VALUE: plane_point <- [DW_OP_LLVM_fragment 64 64] $xmm0
	#DEBUG_VALUE: plane_point <- [DW_OP_LLVM_fragment 0 64] $xmm13
	#DEBUG_VALUE: line_direction <- [DW_OP_LLVM_fragment 128 64] 1.000000e+00
	#DEBUG_VALUE: line_direction <- [DW_OP_LLVM_fragment 64 64] 0.000000e+00
	#DEBUG_VALUE: line_direction <- [DW_OP_LLVM_fragment 0 64] 0.000000e+00
	#DEBUG_VALUE: plane_normal <- [DW_OP_LLVM_fragment 64 64] $xmm9
	#DEBUG_VALUE: plane_normal <- [DW_OP_LLVM_fragment 0 64] $xmm11
	#DEBUG_VALUE: plane_normal <- [DW_OP_LLVM_fragment 128 64] $xmm8
	.loc	3 103 1 is_stmt 1       # /home/talgat/libs/eigen/Eigen/src/Core/Redux.h:103:1
	vmulsd	%xmm14, %xmm11, %xmm5
.Ltmp105:
	#DEBUG_VALUE: mat <- undef
	#DEBUG_VALUE: run:mat <- undef
	.loc	3 103 1 is_stmt 0       # /home/talgat/libs/eigen/Eigen/src/Core/Redux.h:103:1
	vmulsd	%xmm14, %xmm9, %xmm7
.Ltmp106:
	#DEBUG_VALUE: mat <- undef
	#DEBUG_VALUE: run:mat <- undef
	.loc	1 73 1 is_stmt 1        # vlasovsolver/cpu_acc_intersections.cpp:73:1
	vaddsd	%xmm8, %xmm7, %xmm7
	vaddsd	%xmm7, %xmm5, %xmm12
.Ltmp107:
	#DEBUG_VALUE: src <- undef
	#DEBUG_VALUE: run:src <- undef
	#DEBUG_VALUE: dst <- undef
	#DEBUG_VALUE: run:dst <- undef
	#DEBUG_VALUE: other <- undef
	#DEBUG_VALUE: Matrix:other <- undef
	#DEBUG_VALUE:  <- undef
	#DEBUG_VALUE: Matrix: <- undef
	#DEBUG_VALUE: intersection_0_0_0 <- [DW_OP_LLVM_fragment 64 64] undef
	#DEBUG_VALUE: src <- undef
	#DEBUG_VALUE: run:src <- undef
	#DEBUG_VALUE: dst <- undef
	#DEBUG_VALUE: run:dst <- undef
	#DEBUG_VALUE: intersection_0_0_0 <- [DW_OP_LLVM_fragment 0 64] undef
	#DEBUG_VALUE: other <- undef
	#DEBUG_VALUE: lazyAssign:other <- undef
	#DEBUG_VALUE:  <- undef
	#DEBUG_VALUE: lazyAssign: <- undef
	#DEBUG_VALUE: other <- undef
	#DEBUG_VALUE: Matrix:other <- undef
	#DEBUG_VALUE:  <- undef
	#DEBUG_VALUE: Matrix: <- undef
	.loc	1 0 1 is_stmt 0         # vlasovsolver/cpu_acc_intersections.cpp:0:1
	vmovsd	120(%rcx,%rdx), %xmm5   # xmm5 = mem[0],zero
.Ltmp108:
	.loc	1 407 1 is_stmt 1       # vlasovsolver/cpu_acc_intersections.cpp:407:1
	vfmadd231sd	%xmm4, %xmm10, %xmm5 # xmm5 = (xmm10 * xmm4) + xmm5
.Ltmp109:
	.loc	4 181 1                 # /home/talgat/libs/eigen/Eigen/src/Core/Assign.h:181:1
	vaddsd	%xmm6, %xmm2, %xmm6
.Ltmp110:
	#DEBUG_VALUE: inner <- 2
	#DEBUG_VALUE: coeffByOuterInner:inner <- 2
	#DEBUG_VALUE: outer <- 0
	#DEBUG_VALUE: coeffByOuterInner:outer <- 0
	#DEBUG_VALUE: lagrangian_dk <- [DW_OP_LLVM_fragment 64 64] $xmm1
	#DEBUG_VALUE: lagrangian_dk <- [DW_OP_LLVM_fragment 0 64] $xmm3
	#DEBUG_VALUE: lagrangian_dk <- [DW_OP_LLVM_fragment 128 64] $xmm6
	#DEBUG_VALUE: plane_point <- [DW_OP_LLVM_fragment 128 64] $xmm2
	#DEBUG_VALUE: plane_point <- [DW_OP_LLVM_fragment 64 64] $xmm0
	#DEBUG_VALUE: plane_point <- [DW_OP_LLVM_fragment 0 64] $xmm13
	#DEBUG_VALUE: line_direction <- [DW_OP_LLVM_fragment 128 64] 1.000000e+00
	#DEBUG_VALUE: line_direction <- [DW_OP_LLVM_fragment 64 64] 0.000000e+00
	#DEBUG_VALUE: line_direction <- [DW_OP_LLVM_fragment 0 64] 0.000000e+00
	#DEBUG_VALUE: plane_normal <- [DW_OP_LLVM_fragment 64 64] $xmm9
	#DEBUG_VALUE: plane_normal <- [DW_OP_LLVM_fragment 0 64] $xmm11
	#DEBUG_VALUE: plane_normal <- [DW_OP_LLVM_fragment 128 64] $xmm8
	.loc	2 98 1                  # /home/talgat/libs/eigen/Eigen/src/Core/DenseCoeffsBase.h:98:1
	vunpcklpd	%xmm6, %xmm2, %xmm15 # xmm15 = xmm2[0],xmm6[0]
.Ltmp111:
	.loc	1 407 1                 # vlasovsolver/cpu_acc_intersections.cpp:407:1
	vmovsd	200(%rcx,%rdx), %xmm6   # xmm6 = mem[0],zero
.Ltmp112:
	vfmadd213sd	128(%rcx,%rdx), %xmm6, %xmm4 # xmm4 = (xmm6 * xmm4) + mem
.Ltmp113:
	#DEBUG_VALUE: euclidian_dj <- [DW_OP_LLVM_fragment 128 64] 0.000000e+00
	#DEBUG_VALUE: euclidian_dj <- [DW_OP_LLVM_fragment 64 64] undef
	#DEBUG_VALUE: euclidian_dj <- [DW_OP_LLVM_fragment 0 64] 0.000000e+00
	#DEBUG_VALUE: euclidian_di <- [DW_OP_LLVM_fragment 128 64] 0.000000e+00
	#DEBUG_VALUE: euclidian_di <- [DW_OP_LLVM_fragment 64 64] 0.000000e+00
	#DEBUG_VALUE: euclidian_di <- [DW_OP_LLVM_fragment 0 64] undef
	#DEBUG_VALUE: line_point <- [DW_OP_LLVM_fragment 128 64] 0.000000e+00
	#DEBUG_VALUE: line_point <- [DW_OP_LLVM_fragment 0 64] $xmm5
	#DEBUG_VALUE: line_point <- [DW_OP_LLVM_fragment 64 64] $xmm4
	.loc	4 495 1                 # /home/talgat/libs/eigen/Eigen/src/Core/Assign.h:495:1
	vaddsd	%xmm10, %xmm5, %xmm10
.Ltmp114:
	#DEBUG_VALUE: lagrangian_dk <- [DW_OP_LLVM_fragment 64 64] $xmm1
	#DEBUG_VALUE: lagrangian_dk <- [DW_OP_LLVM_fragment 0 64] $xmm3
	#DEBUG_VALUE: plane_point <- [DW_OP_LLVM_fragment 64 64] $xmm0
	#DEBUG_VALUE: plane_point <- [DW_OP_LLVM_fragment 0 64] $xmm13
	#DEBUG_VALUE: line_direction <- [DW_OP_LLVM_fragment 128 64] 1.000000e+00
	#DEBUG_VALUE: line_direction <- [DW_OP_LLVM_fragment 64 64] 0.000000e+00
	#DEBUG_VALUE: line_direction <- [DW_OP_LLVM_fragment 0 64] 0.000000e+00
	#DEBUG_VALUE: plane_normal <- [DW_OP_LLVM_fragment 64 64] $xmm9
	#DEBUG_VALUE: plane_normal <- [DW_OP_LLVM_fragment 0 64] $xmm11
	#DEBUG_VALUE: plane_normal <- [DW_OP_LLVM_fragment 128 64] $xmm8
	.loc	2 98 1                  # /home/talgat/libs/eigen/Eigen/src/Core/DenseCoeffsBase.h:98:1
	vmovddup	%xmm8, %xmm2    # xmm2 = xmm8[0,0]
.Ltmp115:
	#DEBUG_VALUE: inner <- 2
	#DEBUG_VALUE: coeffByOuterInner:inner <- 2
	#DEBUG_VALUE: outer <- 0
	#DEBUG_VALUE: coeffByOuterInner:outer <- 0
	vmulpd	%xmm15, %xmm2, %xmm2
.Ltmp116:
	.loc	4 180 1                 # /home/talgat/libs/eigen/Eigen/src/Core/Assign.h:180:1
	vaddsd	%xmm14, %xmm4, %xmm8
.Ltmp117:
	#DEBUG_VALUE: inner <- 0
	#DEBUG_VALUE: coeffByOuterInner:inner <- 0
	#DEBUG_VALUE: outer <- 0
	#DEBUG_VALUE: coeffByOuterInner:outer <- 0
	#DEBUG_VALUE:  <- undef
	#DEBUG_VALUE: coeffByOuterInner: <- undef
	#DEBUG_VALUE: .._T27768184_34322.m_rhs <- undef
	#DEBUG_VALUE: .._T27768184_34322.m_lhs <- undef
	#DEBUG_VALUE: p_normal <- undef
	#DEBUG_VALUE: line_plane_intersection:p_normal <- undef
	#DEBUG_VALUE: p_point <- undef
	#DEBUG_VALUE: line_plane_intersection:p_point <- undef
	#DEBUG_VALUE: l_direction <- undef
	#DEBUG_VALUE: line_plane_intersection:l_direction <- undef
	#DEBUG_VALUE: l_point <- undef
	#DEBUG_VALUE: line_plane_intersection:l_point <- undef
	.loc	2 98 1                  # /home/talgat/libs/eigen/Eigen/src/Core/DenseCoeffsBase.h:98:1
	vsubsd	%xmm10, %xmm13, %xmm7
	vmulsd	%xmm7, %xmm11, %xmm10
.Ltmp118:
	#DEBUG_VALUE: inner <- 1
	#DEBUG_VALUE: coeffByOuterInner:inner <- 1
	#DEBUG_VALUE: outer <- 0
	#DEBUG_VALUE: coeffByOuterInner:outer <- 0
	#DEBUG_VALUE:  <- undef
	#DEBUG_VALUE: coeffByOuterInner: <- undef
	.loc	2 98 1 is_stmt 0        # /home/talgat/libs/eigen/Eigen/src/Core/DenseCoeffsBase.h:98:1
	vsubsd	%xmm8, %xmm0, %xmm7
	vmulsd	%xmm7, %xmm9, %xmm7
.Ltmp119:
	#DEBUG_VALUE: inner <- 2
	#DEBUG_VALUE: coeffByOuterInner:inner <- 2
	#DEBUG_VALUE: outer <- 0
	#DEBUG_VALUE: coeffByOuterInner:outer <- 0
	#DEBUG_VALUE:  <- undef
	#DEBUG_VALUE: coeffByOuterInner: <- undef
	.loc	1 73 1 is_stmt 1        # vlasovsolver/cpu_acc_intersections.cpp:73:1
	vaddsd	%xmm7, %xmm2, %xmm7
	vaddsd	%xmm7, %xmm10, %xmm8
.Ltmp120:
	#DEBUG_VALUE: mat <- undef
	#DEBUG_VALUE: run:mat <- undef
	#DEBUG_VALUE: mat <- undef
	#DEBUG_VALUE: run:mat <- undef
	#DEBUG_VALUE: mat <- undef
	#DEBUG_VALUE: run:mat <- undef
	#DEBUG_VALUE: nom <- $xmm8
	.loc	4 495 1                 # /home/talgat/libs/eigen/Eigen/src/Core/Assign.h:495:1
	vaddsd	%xmm14, %xmm5, %xmm7
	.loc	4 180 1                 # /home/talgat/libs/eigen/Eigen/src/Core/Assign.h:180:1
	vaddsd	%xmm4, %xmm6, %xmm6
.Ltmp121:
	#DEBUG_VALUE: inner <- 0
	#DEBUG_VALUE: coeffByOuterInner:inner <- 0
	#DEBUG_VALUE: outer <- 0
	#DEBUG_VALUE: coeffByOuterInner:outer <- 0
	#DEBUG_VALUE:  <- undef
	#DEBUG_VALUE: coeffByOuterInner: <- undef
	#DEBUG_VALUE: .._T27768184_34322.m_rhs <- undef
	#DEBUG_VALUE: .._T27768184_34322.m_lhs <- undef
	#DEBUG_VALUE: p_normal <- undef
	#DEBUG_VALUE: line_plane_intersection:p_normal <- undef
	#DEBUG_VALUE: p_point <- undef
	#DEBUG_VALUE: line_plane_intersection:p_point <- undef
	#DEBUG_VALUE: l_direction <- undef
	#DEBUG_VALUE: line_plane_intersection:l_direction <- undef
	#DEBUG_VALUE: l_point <- undef
	#DEBUG_VALUE: line_plane_intersection:l_point <- undef
	.loc	2 98 1                  # /home/talgat/libs/eigen/Eigen/src/Core/DenseCoeffsBase.h:98:1
	vsubsd	%xmm7, %xmm13, %xmm7
	vmulsd	%xmm7, %xmm11, %xmm7
.Ltmp122:
	#DEBUG_VALUE: inner <- 1
	#DEBUG_VALUE: coeffByOuterInner:inner <- 1
	#DEBUG_VALUE: outer <- 0
	#DEBUG_VALUE: coeffByOuterInner:outer <- 0
	#DEBUG_VALUE:  <- undef
	#DEBUG_VALUE: coeffByOuterInner: <- undef
	.loc	2 98 1 is_stmt 0        # /home/talgat/libs/eigen/Eigen/src/Core/DenseCoeffsBase.h:98:1
	vsubsd	%xmm6, %xmm0, %xmm6
	vmulsd	%xmm6, %xmm9, %xmm6
.Ltmp123:
	#DEBUG_VALUE: inner <- 2
	#DEBUG_VALUE: coeffByOuterInner:inner <- 2
	#DEBUG_VALUE: outer <- 0
	#DEBUG_VALUE: coeffByOuterInner:outer <- 0
	#DEBUG_VALUE:  <- undef
	#DEBUG_VALUE: coeffByOuterInner: <- undef
	.loc	1 73 1 is_stmt 1        # vlasovsolver/cpu_acc_intersections.cpp:73:1
	vaddsd	%xmm6, %xmm2, %xmm6
	vaddsd	%xmm6, %xmm7, %xmm6
.Ltmp124:
	#DEBUG_VALUE: mat <- undef
	#DEBUG_VALUE: run:mat <- undef
	#DEBUG_VALUE: mat <- undef
	#DEBUG_VALUE: run:mat <- undef
	#DEBUG_VALUE: mat <- undef
	#DEBUG_VALUE: run:mat <- undef
	#DEBUG_VALUE: nom <- $xmm6
	.loc	1 53 1                  # vlasovsolver/cpu_acc_intersections.cpp:53:1
	vdivsd	%xmm12, %xmm8, %xmm7
.Ltmp125:
	#DEBUG_VALUE: intersection_1_0_0 <- [DW_OP_LLVM_fragment 64 64] undef
	#DEBUG_VALUE: src <- undef
	#DEBUG_VALUE: run:src <- undef
	#DEBUG_VALUE: dst <- undef
	#DEBUG_VALUE: run:dst <- undef
	#DEBUG_VALUE: intersection_1_0_0 <- [DW_OP_LLVM_fragment 0 64] undef
	#DEBUG_VALUE: other <- undef
	#DEBUG_VALUE: lazyAssign:other <- undef
	#DEBUG_VALUE:  <- undef
	#DEBUG_VALUE: lazyAssign: <- undef
	#DEBUG_VALUE: other <- undef
	#DEBUG_VALUE: Matrix:other <- undef
	#DEBUG_VALUE:  <- undef
	#DEBUG_VALUE: Matrix: <- undef
	#DEBUG_VALUE: nom <- $xmm8
	.loc	4 180 1                 # /home/talgat/libs/eigen/Eigen/src/Core/Assign.h:180:1
	vaddsd	%xmm14, %xmm7, %xmm7
.Ltmp126:
	#DEBUG_VALUE: src <- undef
	#DEBUG_VALUE: run:src <- undef
	#DEBUG_VALUE: dst <- undef
	#DEBUG_VALUE: run:dst <- undef
	#DEBUG_VALUE: other <- undef
	#DEBUG_VALUE: Matrix:other <- undef
	#DEBUG_VALUE:  <- undef
	#DEBUG_VALUE: Matrix: <- undef
	#DEBUG_VALUE: intersection_1_0_0 <- [DW_OP_LLVM_fragment 128 64] $xmm7
	.loc	1 53 1                  # vlasovsolver/cpu_acc_intersections.cpp:53:1
	vdivsd	%xmm12, %xmm6, %xmm6
.Ltmp127:
	#DEBUG_VALUE: intersection_0_1_0 <- [DW_OP_LLVM_fragment 64 64] undef
	#DEBUG_VALUE: src <- undef
	#DEBUG_VALUE: run:src <- undef
	#DEBUG_VALUE: dst <- undef
	#DEBUG_VALUE: run:dst <- undef
	#DEBUG_VALUE: intersection_0_1_0 <- [DW_OP_LLVM_fragment 0 64] undef
	#DEBUG_VALUE: other <- undef
	#DEBUG_VALUE: lazyAssign:other <- undef
	#DEBUG_VALUE:  <- undef
	#DEBUG_VALUE: lazyAssign: <- undef
	#DEBUG_VALUE: other <- undef
	#DEBUG_VALUE: Matrix:other <- undef
	#DEBUG_VALUE:  <- undef
	#DEBUG_VALUE: Matrix: <- undef
	#DEBUG_VALUE: nom <- $xmm6
	.loc	4 180 1                 # /home/talgat/libs/eigen/Eigen/src/Core/Assign.h:180:1
	vaddsd	%xmm14, %xmm6, %xmm6
.Ltmp128:
	#DEBUG_VALUE: src <- undef
	#DEBUG_VALUE: run:src <- undef
	#DEBUG_VALUE: dst <- undef
	#DEBUG_VALUE: run:dst <- undef
	#DEBUG_VALUE: other <- undef
	#DEBUG_VALUE: Matrix:other <- undef
	#DEBUG_VALUE:  <- undef
	#DEBUG_VALUE: Matrix: <- undef
	#DEBUG_VALUE: intersection_0_1_0 <- [DW_OP_LLVM_fragment 128 64] $xmm6
	.loc	4 495 1                 # /home/talgat/libs/eigen/Eigen/src/Core/Assign.h:495:1
	vaddsd	%xmm3, %xmm13, %xmm3
.Ltmp129:
	#DEBUG_VALUE: inner <- 0
	#DEBUG_VALUE: coeffByOuterInner:inner <- 0
	#DEBUG_VALUE: outer <- 0
	#DEBUG_VALUE: coeffByOuterInner:outer <- 0
	.loc	2 98 1                  # /home/talgat/libs/eigen/Eigen/src/Core/DenseCoeffsBase.h:98:1
	vunpcklpd	%xmm3, %xmm13, %xmm3 # xmm3 = xmm13[0],xmm3[0]
	vmovddup	%xmm5, %xmm5    # xmm5 = xmm5[0,0]
.Ltmp130:
	vsubpd	%xmm5, %xmm3, %xmm3
	vmovddup	%xmm11, %xmm5   # xmm5 = xmm11[0,0]
	vmulpd	%xmm3, %xmm5, %xmm3
.Ltmp131:
	#DEBUG_VALUE: inner <- 1
	#DEBUG_VALUE: coeffByOuterInner:inner <- 1
	#DEBUG_VALUE: outer <- 0
	#DEBUG_VALUE: coeffByOuterInner:outer <- 0
	#DEBUG_VALUE:  <- undef
	#DEBUG_VALUE: coeffByOuterInner: <- undef
	.loc	4 180 1                 # /home/talgat/libs/eigen/Eigen/src/Core/Assign.h:180:1
	vaddsd	%xmm1, %xmm0, %xmm1
.Ltmp132:
	#DEBUG_VALUE: inner <- 0
	#DEBUG_VALUE: coeffByOuterInner:inner <- 0
	#DEBUG_VALUE: outer <- 0
	#DEBUG_VALUE: coeffByOuterInner:outer <- 0
	#DEBUG_VALUE:  <- undef
	#DEBUG_VALUE: coeffByOuterInner: <- undef
	#DEBUG_VALUE: .._T27768184_34322.m_rhs <- undef
	#DEBUG_VALUE: .._T27768184_34322.m_lhs <- undef
	#DEBUG_VALUE: p_normal <- undef
	#DEBUG_VALUE: line_plane_intersection:p_normal <- undef
	#DEBUG_VALUE: p_point <- undef
	#DEBUG_VALUE: line_plane_intersection:p_point <- undef
	#DEBUG_VALUE: l_direction <- undef
	#DEBUG_VALUE: line_plane_intersection:l_direction <- undef
	#DEBUG_VALUE: l_point <- undef
	#DEBUG_VALUE: line_plane_intersection:l_point <- undef
	#DEBUG_VALUE: inner <- 1
	#DEBUG_VALUE: coeffByOuterInner:inner <- 1
	#DEBUG_VALUE: outer <- 0
	#DEBUG_VALUE: coeffByOuterInner:outer <- 0
	.loc	2 98 1                  # /home/talgat/libs/eigen/Eigen/src/Core/DenseCoeffsBase.h:98:1
	vunpcklpd	%xmm1, %xmm0, %xmm0 # xmm0 = xmm0[0],xmm1[0]
.Ltmp133:
	vmovddup	%xmm4, %xmm1    # xmm1 = xmm4[0,0]
	vsubpd	%xmm1, %xmm0, %xmm0
	vmovddup	%xmm9, %xmm1    # xmm1 = xmm9[0,0]
	vmulpd	%xmm0, %xmm1, %xmm0
.Ltmp134:
	#DEBUG_VALUE: inner <- 2
	#DEBUG_VALUE: coeffByOuterInner:inner <- 2
	#DEBUG_VALUE: outer <- 0
	#DEBUG_VALUE: coeffByOuterInner:outer <- 0
	#DEBUG_VALUE:  <- undef
	#DEBUG_VALUE: coeffByOuterInner: <- undef
	.loc	1 73 1                  # vlasovsolver/cpu_acc_intersections.cpp:73:1
	vaddpd	%xmm0, %xmm2, %xmm0
	vaddpd	%xmm0, %xmm3, %xmm0
.Ltmp135:
	#DEBUG_VALUE: mat <- undef
	#DEBUG_VALUE: run:mat <- undef
	#DEBUG_VALUE: mat <- undef
	#DEBUG_VALUE: run:mat <- undef
	#DEBUG_VALUE: mat <- undef
	#DEBUG_VALUE: run:mat <- undef
	.loc	1 53 1                  # vlasovsolver/cpu_acc_intersections.cpp:53:1
	vmovddup	%xmm12, %xmm1   # xmm1 = xmm12[0,0]
	vdivpd	%xmm1, %xmm0, %xmm0
.Ltmp136:
	#DEBUG_VALUE: intersection_0_0_1 <- [DW_OP_LLVM_fragment 64 64] undef
	#DEBUG_VALUE: src <- undef
	#DEBUG_VALUE: run:src <- undef
	#DEBUG_VALUE: dst <- undef
	#DEBUG_VALUE: run:dst <- undef
	#DEBUG_VALUE: intersection_0_0_1 <- [DW_OP_LLVM_fragment 0 64] undef
	#DEBUG_VALUE: other <- undef
	#DEBUG_VALUE: lazyAssign:other <- undef
	#DEBUG_VALUE:  <- undef
	#DEBUG_VALUE: lazyAssign: <- undef
	#DEBUG_VALUE: other <- undef
	#DEBUG_VALUE: Matrix:other <- undef
	#DEBUG_VALUE:  <- undef
	#DEBUG_VALUE: Matrix: <- undef
	.loc	4 180 1                 # /home/talgat/libs/eigen/Eigen/src/Core/Assign.h:180:1
	vxorpd	%xmm1, %xmm1, %xmm1
	vaddpd	%xmm1, %xmm0, %xmm0
.Ltmp137:
	.loc	1 158 1                 # vlasovsolver/cpu_acc_intersections.cpp:158:1
	vmovlpd	%xmm0, (%r9)
	vsubsd	%xmm0, %xmm7, %xmm1
	vmovsd	%xmm1, (%rax)
	vsubsd	%xmm0, %xmm6, %xmm1
	jmp	.LBB1_6
.Ltmp138:
.LBB1_4:                                # %L.B2606
	#DEBUG_VALUE: compute_intersections_1st:intersection_di <- [DW_OP_plus_uconst 16] [$rbp+0]
	#DEBUG_VALUE: intersection_di <- [DW_OP_plus_uconst 16] [$rbp+0]
	#DEBUG_VALUE: compute_intersections_1st:intersection_dj <- [DW_OP_plus_uconst 24] [$rbp+0]
	#DEBUG_VALUE: intersection_dj <- [DW_OP_plus_uconst 24] [$rbp+0]
	#DEBUG_VALUE: compute_intersections_1st:intersection_dk <- [DW_OP_plus_uconst 32] [$rbp+0]
	#DEBUG_VALUE: intersection_dk <- [DW_OP_plus_uconst 32] [$rbp+0]
	#DEBUG_VALUE: intersection <- $r9
	#DEBUG_VALUE: refLevel <- $r8
	#DEBUG_VALUE: dimension <- $ecx
	#DEBUG_VALUE: fwd_transform <- $rdx
	#DEBUG_VALUE: bwd_transform <- $rsi
	#DEBUG_VALUE: vmesh <- $rdi
	#DEBUG_VALUE: compute_intersections_1st:intersection <- $r9
	#DEBUG_VALUE: compute_intersections_1st:refLevel <- $r8
	#DEBUG_VALUE: compute_intersections_1st:dimension <- $ecx
	#DEBUG_VALUE: compute_intersections_1st:fwd_transform <- $rdx
	#DEBUG_VALUE: compute_intersections_1st:bwd_transform <- $rsi
	#DEBUG_VALUE: compute_intersections_1st:vmesh <- $rdi
	#DEBUG_VALUE: lazyAssign: <- undef
	#DEBUG_VALUE:  <- undef
	#DEBUG_VALUE: lazyAssign:other <- undef
	#DEBUG_VALUE: other <- undef
	#DEBUG_VALUE: run:dst <- undef
	#DEBUG_VALUE: dst <- undef
	#DEBUG_VALUE: run:src <- undef
	#DEBUG_VALUE: src <- undef
	#DEBUG_VALUE: run:lhs <- undef
	#DEBUG_VALUE: lhs <- undef
	#DEBUG_VALUE: run:rhs <- undef
	#DEBUG_VALUE: rhs <- undef
	#DEBUG_VALUE: run:res <- undef
	#DEBUG_VALUE: res <- undef
	.loc	1 0 1 is_stmt 0         # vlasovsolver/cpu_acc_intersections.cpp:0:1
	vxorpd	%xmm8, %xmm8, %xmm8
.Ltmp139:
	#DEBUG_VALUE: col <- 0
	#DEBUG_VALUE: run:col <- 0
	#DEBUG_VALUE: row <- 0
	#DEBUG_VALUE: run:row <- 0
	.loc	6 245 1 is_stmt 1       # /home/talgat/libs/eigen/Eigen/src/Core/products/CoeffBasedProduct.h:245:1
	vmulsd	(%rsi), %xmm8, %xmm10
	.loc	6 246 1                 # /home/talgat/libs/eigen/Eigen/src/Core/products/CoeffBasedProduct.h:246:1
	vmovsd	32(%rsi), %xmm6         # xmm6 = mem[0],zero
.Ltmp140:
	.loc	6 246 1 is_stmt 0       # /home/talgat/libs/eigen/Eigen/src/Core/products/CoeffBasedProduct.h:246:1
	vmovsd	40(%rsi), %xmm7         # xmm7 = mem[0],zero
.Ltmp141:
	.loc	6 246 1                 # /home/talgat/libs/eigen/Eigen/src/Core/products/CoeffBasedProduct.h:246:1
	vaddsd	%xmm10, %xmm6, %xmm1
	#DEBUG_VALUE: col <- 0
	#DEBUG_VALUE: run:col <- 0
	#DEBUG_VALUE: row <- 0
	#DEBUG_VALUE: run:row <- 0
	.loc	6 144 1 is_stmt 1       # /home/talgat/libs/eigen/Eigen/src/Core/products/CoeffBasedProduct.h:144:1
	vmovsd	64(%rsi), %xmm0         # xmm0 = mem[0],zero
	vfmadd231sd	%xmm8, %xmm0, %xmm1 # xmm1 = (xmm0 * xmm8) + xmm1
.Ltmp142:
	#DEBUG_VALUE: res <- undef
	#DEBUG_VALUE: run:res <- undef
	#DEBUG_VALUE: rhs <- undef
	#DEBUG_VALUE: run:rhs <- undef
	#DEBUG_VALUE: lhs <- undef
	#DEBUG_VALUE: run:lhs <- undef
	.loc	6 0 1 is_stmt 0         # /home/talgat/libs/eigen/Eigen/src/Core/products/CoeffBasedProduct.h:0:1
	vmovapd	%xmm1, -48(%rbp)        # 16-byte Spill
.Ltmp143:
	#DEBUG_VALUE: col <- 0
	#DEBUG_VALUE: run:col <- 0
	#DEBUG_VALUE: row <- 1
	#DEBUG_VALUE: run:row <- 1
	.loc	6 245 1 is_stmt 1       # /home/talgat/libs/eigen/Eigen/src/Core/products/CoeffBasedProduct.h:245:1
	vmulsd	8(%rsi), %xmm8, %xmm12
	.loc	6 246 1                 # /home/talgat/libs/eigen/Eigen/src/Core/products/CoeffBasedProduct.h:246:1
	vaddsd	%xmm12, %xmm7, %xmm13
	.loc	6 144 1                 # /home/talgat/libs/eigen/Eigen/src/Core/products/CoeffBasedProduct.h:144:1
	vmovsd	72(%rsi), %xmm15        # xmm15 = mem[0],zero
	vfmadd231sd	%xmm8, %xmm15, %xmm13 # xmm13 = (xmm15 * xmm8) + xmm13
.Ltmp144:
	#DEBUG_VALUE: res <- undef
	#DEBUG_VALUE: run:res <- undef
	#DEBUG_VALUE: rhs <- undef
	#DEBUG_VALUE: run:rhs <- undef
	#DEBUG_VALUE: lhs <- undef
	#DEBUG_VALUE: run:lhs <- undef
	#DEBUG_VALUE: col <- 0
	#DEBUG_VALUE: run:col <- 0
	#DEBUG_VALUE: row <- 2
	#DEBUG_VALUE: run:row <- 2
	.loc	6 245 1                 # /home/talgat/libs/eigen/Eigen/src/Core/products/CoeffBasedProduct.h:245:1
	vmulsd	16(%rsi), %xmm8, %xmm1
	.loc	6 246 1                 # /home/talgat/libs/eigen/Eigen/src/Core/products/CoeffBasedProduct.h:246:1
	vmovsd	48(%rsi), %xmm2         # xmm2 = mem[0],zero
	vaddsd	%xmm1, %xmm2, %xmm14
	.loc	6 144 1                 # /home/talgat/libs/eigen/Eigen/src/Core/products/CoeffBasedProduct.h:144:1
	vmovsd	80(%rsi), %xmm9         # xmm9 = mem[0],zero
	vfmadd231sd	%xmm8, %xmm9, %xmm14 # xmm14 = (xmm9 * xmm8) + xmm14
.Ltmp145:
	.loc	1 407 1                 # vlasovsolver/cpu_acc_intersections.cpp:407:1
	movq	_ZN5vmesh12VelocityMeshIjjE14meshParametersE(%rip), %rcx
.Ltmp146:
	imulq	$336, (%rdi), %rdx      # imm = 0x150
.Ltmp147:
	.loc	1 269 1                 # vlasovsolver/cpu_acc_intersections.cpp:269:1
	vmovsd	128(%rcx,%rdx), %xmm4   # xmm4 = mem[0],zero
.Ltmp148:
	.loc	6 246 1                 # /home/talgat/libs/eigen/Eigen/src/Core/products/CoeffBasedProduct.h:246:1
	vmovapd	%xmm6, %xmm3
	vfmadd213sd	%xmm10, %xmm4, %xmm3 # xmm3 = (xmm4 * xmm3) + xmm10
.Ltmp149:
	.loc	1 269 1                 # vlasovsolver/cpu_acc_intersections.cpp:269:1
	vmovsd	200(%rcx,%rdx), %xmm5   # xmm5 = mem[0],zero
.Ltmp150:
	#DEBUG_VALUE: res <- undef
	#DEBUG_VALUE: run:res <- undef
	#DEBUG_VALUE: rhs <- undef
	#DEBUG_VALUE: run:rhs <- undef
	#DEBUG_VALUE: lhs <- undef
	#DEBUG_VALUE: run:lhs <- undef
	#DEBUG_VALUE: col <- 0
	#DEBUG_VALUE: run:col <- 0
	#DEBUG_VALUE: row <- 0
	#DEBUG_VALUE: run:row <- 0
	#DEBUG_VALUE: src <- undef
	#DEBUG_VALUE: run:src <- undef
	#DEBUG_VALUE: dst <- undef
	#DEBUG_VALUE: run:dst <- undef
	#DEBUG_VALUE: other <- undef
	#DEBUG_VALUE: lazyAssign:other <- undef
	#DEBUG_VALUE:  <- undef
	#DEBUG_VALUE: lazyAssign: <- undef
	.loc	6 246 1                 # /home/talgat/libs/eigen/Eigen/src/Core/products/CoeffBasedProduct.h:246:1
	vfmadd213sd	%xmm10, %xmm5, %xmm6 # xmm6 = (xmm5 * xmm6) + xmm10
.Ltmp151:
	.loc	6 246 1 is_stmt 0       # /home/talgat/libs/eigen/Eigen/src/Core/products/CoeffBasedProduct.h:246:1
	vmovapd	%xmm7, %xmm10
	vfmadd213sd	%xmm12, %xmm4, %xmm10 # xmm10 = (xmm4 * xmm10) + xmm12
.Ltmp152:
	.loc	6 246 1                 # /home/talgat/libs/eigen/Eigen/src/Core/products/CoeffBasedProduct.h:246:1
	vfmadd213sd	%xmm12, %xmm5, %xmm7 # xmm7 = (xmm5 * xmm7) + xmm12
.Ltmp153:
	.loc	1 407 1 is_stmt 1       # vlasovsolver/cpu_acc_intersections.cpp:407:1
	vmovsd	192(%rcx,%rdx), %xmm12  # xmm12 = mem[0],zero
.Ltmp154:
	#DEBUG_VALUE: rhs <- undef
	#DEBUG_VALUE: run:rhs <- undef
	#DEBUG_VALUE: lhs <- undef
	#DEBUG_VALUE: run:lhs <- undef
	#DEBUG_VALUE: col <- 0
	#DEBUG_VALUE: run:col <- 0
	#DEBUG_VALUE: row <- 0
	#DEBUG_VALUE: run:row <- 0
	#DEBUG_VALUE: src <- undef
	#DEBUG_VALUE: run:src <- undef
	#DEBUG_VALUE: dst <- undef
	#DEBUG_VALUE: run:dst <- undef
	#DEBUG_VALUE: other <- undef
	#DEBUG_VALUE: operator+=:other <- undef
	#DEBUG_VALUE:  <- undef
	#DEBUG_VALUE: operator+=: <- undef
	#DEBUG_VALUE: plane_point <- [DW_OP_LLVM_fragment 128 64] undef
	#DEBUG_VALUE: src <- undef
	#DEBUG_VALUE: run:src <- undef
	#DEBUG_VALUE: dst <- undef
	#DEBUG_VALUE: run:dst <- undef
	#DEBUG_VALUE: plane_point <- [DW_OP_LLVM_fragment 64 64] undef
	#DEBUG_VALUE: src <- undef
	#DEBUG_VALUE: run:src <- undef
	#DEBUG_VALUE: dst <- undef
	#DEBUG_VALUE: run:dst <- undef
	#DEBUG_VALUE: plane_point <- [DW_OP_LLVM_fragment 0 64] undef
	#DEBUG_VALUE: src <- undef
	#DEBUG_VALUE: run:src <- undef
	#DEBUG_VALUE: dst <- undef
	#DEBUG_VALUE: run:dst <- undef
	#DEBUG_VALUE: other <- undef
	#DEBUG_VALUE: lazyAssign:other <- undef
	#DEBUG_VALUE:  <- undef
	#DEBUG_VALUE: lazyAssign: <- undef
	#DEBUG_VALUE: a_startCol <- 3
	#DEBUG_VALUE: BlockImpl:a_startCol <- 3
	#DEBUG_VALUE: a_startRow <- 0
	#DEBUG_VALUE: BlockImpl:a_startRow <- 0
	#DEBUG_VALUE: xpr <- $rsi
	#DEBUG_VALUE: BlockImpl:xpr <- $rsi
	#DEBUG_VALUE:  <- undef
	#DEBUG_VALUE: BlockImpl: <- undef
	#DEBUG_VALUE: other <- undef
	#DEBUG_VALUE: run:other <- undef
	#DEBUG_VALUE: T <- $rsi
	#DEBUG_VALUE: run:T <- $rsi
	.loc	6 144 1                 # /home/talgat/libs/eigen/Eigen/src/Core/products/CoeffBasedProduct.h:144:1
	vfmadd231sd	%xmm8, %xmm0, %xmm3 # xmm3 = (xmm0 * xmm8) + xmm3
.Ltmp155:
	.loc	4 144 1 is_stmt 0       # /home/talgat/libs/eigen/Eigen/src/Core/Assign.h:144:1
	vaddsd	96(%rsi), %xmm3, %xmm11
.Ltmp156:
	#DEBUG_VALUE: rhs <- undef
	#DEBUG_VALUE: run:rhs <- undef
	#DEBUG_VALUE: lhs <- undef
	#DEBUG_VALUE: run:lhs <- undef
	#DEBUG_VALUE: col <- 0
	#DEBUG_VALUE: run:col <- 0
	#DEBUG_VALUE: row <- 1
	#DEBUG_VALUE: run:row <- 1
	#DEBUG_VALUE: src <- undef
	#DEBUG_VALUE: run:src <- undef
	#DEBUG_VALUE: dst <- undef
	#DEBUG_VALUE: run:dst <- undef
	.loc	6 144 1                 # /home/talgat/libs/eigen/Eigen/src/Core/products/CoeffBasedProduct.h:144:1
	vfmadd231sd	%xmm8, %xmm15, %xmm10 # xmm10 = (xmm15 * xmm8) + xmm10
.Ltmp157:
	.loc	4 505 1 is_stmt 1       # /home/talgat/libs/eigen/Eigen/src/Core/Assign.h:505:1
	vaddsd	104(%rsi), %xmm10, %xmm3
.Ltmp158:
	#DEBUG_VALUE: rhs <- undef
	#DEBUG_VALUE: run:rhs <- undef
	#DEBUG_VALUE: lhs <- undef
	#DEBUG_VALUE: run:lhs <- undef
	#DEBUG_VALUE: col <- 0
	#DEBUG_VALUE: run:col <- 0
	#DEBUG_VALUE: row <- 2
	#DEBUG_VALUE: run:row <- 2
	.loc	6 246 1                 # /home/talgat/libs/eigen/Eigen/src/Core/products/CoeffBasedProduct.h:246:1
	vfmadd213sd	%xmm1, %xmm2, %xmm4 # xmm4 = (xmm2 * xmm4) + xmm1
	.loc	6 144 1                 # /home/talgat/libs/eigen/Eigen/src/Core/products/CoeffBasedProduct.h:144:1
	vfmadd231sd	%xmm8, %xmm9, %xmm4 # xmm4 = (xmm9 * xmm8) + xmm4
.Ltmp159:
	.loc	4 144 1 is_stmt 0       # /home/talgat/libs/eigen/Eigen/src/Core/Assign.h:144:1
	vaddsd	112(%rsi), %xmm4, %xmm4
	vmovapd	%xmm4, -32(%rbp)        # 16-byte Spill
.Ltmp160:
	.loc	6 246 1 is_stmt 1       # /home/talgat/libs/eigen/Eigen/src/Core/products/CoeffBasedProduct.h:246:1
	vfmadd213sd	%xmm1, %xmm5, %xmm2 # xmm2 = (xmm5 * xmm2) + xmm1
	vmovsd	.LCPI1_0(%rip), %xmm4   # xmm4 = mem[0],zero
	vmovsd	120(%rcx,%rdx), %xmm5   # xmm5 = mem[0],zero
.Ltmp161:
	.loc	1 407 1                 # vlasovsolver/cpu_acc_intersections.cpp:407:1
	vfmadd231sd	%xmm4, %xmm12, %xmm5 # xmm5 = (xmm12 * xmm4) + xmm5
.Ltmp162:
	.loc	6 144 1                 # /home/talgat/libs/eigen/Eigen/src/Core/products/CoeffBasedProduct.h:144:1
	vfmadd213sd	%xmm6, %xmm8, %xmm0 # xmm0 = (xmm8 * xmm0) + xmm6
.Ltmp163:
	#DEBUG_VALUE: res <- undef
	#DEBUG_VALUE: run:res <- undef
	#DEBUG_VALUE: rhs <- undef
	#DEBUG_VALUE: run:rhs <- undef
	#DEBUG_VALUE: lhs <- undef
	#DEBUG_VALUE: run:lhs <- undef
	#DEBUG_VALUE: col <- 0
	#DEBUG_VALUE: run:col <- 0
	#DEBUG_VALUE: row <- 0
	#DEBUG_VALUE: run:row <- 0
	.loc	6 0 1 is_stmt 0         # /home/talgat/libs/eigen/Eigen/src/Core/products/CoeffBasedProduct.h:0:1
	vmovsd	%xmm0, -8(%rbp)         # 8-byte Spill
.Ltmp164:
	.loc	1 407 1 is_stmt 1       # vlasovsolver/cpu_acc_intersections.cpp:407:1
	vmovsd	208(%rcx,%rdx), %xmm0   # xmm0 = mem[0],zero
	vmovsd	%xmm0, -16(%rbp)        # 8-byte Spill
	vfmadd213sd	136(%rcx,%rdx), %xmm0, %xmm4 # xmm4 = (xmm0 * xmm4) + mem
.Ltmp165:
	#DEBUG_VALUE: euclidian_di <- [DW_OP_LLVM_fragment 0 64] undef
	#DEBUG_VALUE: col <- 0
	#DEBUG_VALUE: run:col <- 0
	#DEBUG_VALUE: row <- 1
	#DEBUG_VALUE: run:row <- 1
	.loc	6 144 1                 # /home/talgat/libs/eigen/Eigen/src/Core/products/CoeffBasedProduct.h:144:1
	vfmadd213sd	%xmm7, %xmm8, %xmm15 # xmm15 = (xmm8 * xmm15) + xmm7
.Ltmp166:
	#DEBUG_VALUE: res <- undef
	#DEBUG_VALUE: run:res <- undef
	#DEBUG_VALUE: rhs <- undef
	#DEBUG_VALUE: run:rhs <- undef
	#DEBUG_VALUE: lhs <- undef
	#DEBUG_VALUE: run:lhs <- undef
	#DEBUG_VALUE: col <- 0
	#DEBUG_VALUE: run:col <- 0
	#DEBUG_VALUE: row <- 2
	#DEBUG_VALUE: run:row <- 2
	.loc	6 144 1 is_stmt 0       # /home/talgat/libs/eigen/Eigen/src/Core/products/CoeffBasedProduct.h:144:1
	vfmadd213sd	%xmm2, %xmm8, %xmm9 # xmm9 = (xmm8 * xmm9) + xmm2
.Ltmp167:
	#DEBUG_VALUE:  <- undef
	#DEBUG_VALUE: coeffByOuterInner: <- undef
	#DEBUG_VALUE:  <- undef
	#DEBUG_VALUE: coeffByOuterInner: <- undef
	#DEBUG_VALUE: .._T27768184_34322.m_rhs <- undef
	#DEBUG_VALUE: .._T27768184_34322.m_lhs <- undef
	#DEBUG_VALUE: p_normal <- undef
	#DEBUG_VALUE: line_plane_intersection:p_normal <- undef
	#DEBUG_VALUE: p_point <- undef
	#DEBUG_VALUE: line_plane_intersection:p_point <- undef
	#DEBUG_VALUE: l_direction <- undef
	#DEBUG_VALUE: line_plane_intersection:l_direction <- undef
	#DEBUG_VALUE: l_point <- undef
	#DEBUG_VALUE: line_plane_intersection:l_point <- undef
	#DEBUG_VALUE: euclidian_dk <- [DW_OP_LLVM_fragment 128 64] undef
	.loc	6 0 1                   # /home/talgat/libs/eigen/Eigen/src/Core/products/CoeffBasedProduct.h:0:1
	vmovapd	-48(%rbp), %xmm1        # 16-byte Reload
.Ltmp168:
	#DEBUG_VALUE: euclidian_dk <- [DW_OP_LLVM_fragment 64 64] 0.000000e+00
	#DEBUG_VALUE: euclidian_dk <- [DW_OP_LLVM_fragment 0 64] 0.000000e+00
	#DEBUG_VALUE: lagrangian_dj <- [DW_OP_LLVM_fragment 64 64] $xmm15
	#DEBUG_VALUE: lagrangian_dj <- [DW_OP_constu 8, DW_OP_minus, DW_OP_LLVM_fragment 0 64] [$rbp+0]
	#DEBUG_VALUE: lagrangian_dj <- [DW_OP_LLVM_fragment 128 64] $xmm9
	#DEBUG_VALUE: euclidian_di <- [DW_OP_LLVM_fragment 128 64] 0.000000e+00
	#DEBUG_VALUE: euclidian_di <- [DW_OP_LLVM_fragment 64 64] 0.000000e+00
	#DEBUG_VALUE: line_point <- [DW_OP_LLVM_fragment 64 64] 0.000000e+00
	#DEBUG_VALUE: line_point <- [DW_OP_LLVM_fragment 0 64] $xmm5
	#DEBUG_VALUE: line_point <- [DW_OP_LLVM_fragment 128 64] $xmm4
	#DEBUG_VALUE: plane_point <- [DW_OP_constu 32, DW_OP_minus, DW_OP_LLVM_fragment 128 64] [$rbp+0]
	#DEBUG_VALUE: plane_point <- [DW_OP_LLVM_fragment 64 64] $xmm3
	#DEBUG_VALUE: plane_point <- [DW_OP_LLVM_fragment 0 64] $xmm11
	#DEBUG_VALUE: line_direction <- [DW_OP_LLVM_fragment 128 64] 0.000000e+00
	#DEBUG_VALUE: line_direction <- [DW_OP_LLVM_fragment 64 64] 1.000000e+00
	#DEBUG_VALUE: line_direction <- [DW_OP_LLVM_fragment 0 64] 0.000000e+00
	#DEBUG_VALUE: plane_normal <- [DW_OP_LLVM_fragment 64 64] $xmm13
	#DEBUG_VALUE: plane_normal <- [DW_OP_LLVM_fragment 0 64] $xmm1
	#DEBUG_VALUE: plane_normal <- [DW_OP_LLVM_fragment 128 64] $xmm14
	.loc	3 103 1 is_stmt 1       # /home/talgat/libs/eigen/Eigen/src/Core/Redux.h:103:1
	vmulsd	%xmm8, %xmm1, %xmm0
.Ltmp169:
	#DEBUG_VALUE: mat <- undef
	#DEBUG_VALUE: run:mat <- undef
	#DEBUG_VALUE: mat <- undef
	#DEBUG_VALUE: run:mat <- undef
	.loc	3 103 1 is_stmt 0       # /home/talgat/libs/eigen/Eigen/src/Core/Redux.h:103:1
	vmulsd	%xmm8, %xmm14, %xmm7
.Ltmp170:
	.loc	1 73 1 is_stmt 1        # vlasovsolver/cpu_acc_intersections.cpp:73:1
	vaddsd	%xmm7, %xmm13, %xmm7
	vaddsd	%xmm7, %xmm0, %xmm10
.Ltmp171:
	#DEBUG_VALUE: src <- undef
	#DEBUG_VALUE: run:src <- undef
	#DEBUG_VALUE: dst <- undef
	#DEBUG_VALUE: run:dst <- undef
	#DEBUG_VALUE: other <- undef
	#DEBUG_VALUE: Matrix:other <- undef
	#DEBUG_VALUE:  <- undef
	#DEBUG_VALUE: Matrix: <- undef
	#DEBUG_VALUE: intersection_0_0_0 <- [DW_OP_LLVM_fragment 128 64] undef
	#DEBUG_VALUE: src <- undef
	#DEBUG_VALUE: run:src <- undef
	#DEBUG_VALUE: dst <- undef
	#DEBUG_VALUE: run:dst <- undef
	#DEBUG_VALUE: intersection_0_0_0 <- [DW_OP_LLVM_fragment 0 64] undef
	#DEBUG_VALUE: other <- undef
	#DEBUG_VALUE: lazyAssign:other <- undef
	#DEBUG_VALUE:  <- undef
	#DEBUG_VALUE: lazyAssign: <- undef
	#DEBUG_VALUE: other <- undef
	#DEBUG_VALUE: Matrix:other <- undef
	#DEBUG_VALUE:  <- undef
	#DEBUG_VALUE: Matrix: <- undef
	.loc	4 495 1                 # /home/talgat/libs/eigen/Eigen/src/Core/Assign.h:495:1
	vaddsd	%xmm12, %xmm5, %xmm7
	.loc	4 181 1                 # /home/talgat/libs/eigen/Eigen/src/Core/Assign.h:181:1
	vaddsd	%xmm8, %xmm4, %xmm12
.Ltmp172:
	#DEBUG_VALUE: inner <- 0
	#DEBUG_VALUE: coeffByOuterInner:inner <- 0
	#DEBUG_VALUE: outer <- 0
	#DEBUG_VALUE: coeffByOuterInner:outer <- 0
	#DEBUG_VALUE:  <- undef
	#DEBUG_VALUE: coeffByOuterInner: <- undef
	#DEBUG_VALUE: .._T27768184_34322.m_rhs <- undef
	#DEBUG_VALUE: .._T27768184_34322.m_lhs <- undef
	#DEBUG_VALUE: p_normal <- undef
	#DEBUG_VALUE: line_plane_intersection:p_normal <- undef
	#DEBUG_VALUE: p_point <- undef
	#DEBUG_VALUE: line_plane_intersection:p_point <- undef
	#DEBUG_VALUE: l_direction <- undef
	#DEBUG_VALUE: line_plane_intersection:l_direction <- undef
	#DEBUG_VALUE: l_point <- undef
	#DEBUG_VALUE: line_plane_intersection:l_point <- undef
	.loc	2 98 1                  # /home/talgat/libs/eigen/Eigen/src/Core/DenseCoeffsBase.h:98:1
	vsubsd	%xmm7, %xmm11, %xmm7
	vmulsd	%xmm7, %xmm1, %xmm7
.Ltmp173:
	#DEBUG_VALUE:  <- undef
	#DEBUG_VALUE: coeffByOuterInner: <- undef
	#DEBUG_VALUE: inner <- 1
	#DEBUG_VALUE: coeffByOuterInner:inner <- 1
	#DEBUG_VALUE: outer <- 0
	#DEBUG_VALUE: coeffByOuterInner:outer <- 0
	#DEBUG_VALUE:  <- undef
	#DEBUG_VALUE: coeffByOuterInner: <- undef
	#DEBUG_VALUE: plane_normal <- [DW_OP_LLVM_fragment 0 64] $xmm1
	.loc	2 0 1 is_stmt 0         # /home/talgat/libs/eigen/Eigen/src/Core/DenseCoeffsBase.h:0:1
	vmovapd	-32(%rbp), %xmm0        # 16-byte Reload
.Ltmp174:
	#DEBUG_VALUE: inner <- 2
	#DEBUG_VALUE: coeffByOuterInner:inner <- 2
	#DEBUG_VALUE: outer <- 0
	#DEBUG_VALUE: coeffByOuterInner:outer <- 0
	#DEBUG_VALUE: plane_point <- [DW_OP_LLVM_fragment 128 64] $xmm0
	.loc	2 98 1                  # /home/talgat/libs/eigen/Eigen/src/Core/DenseCoeffsBase.h:98:1
	vsubsd	%xmm12, %xmm0, %xmm2
	vmulsd	%xmm2, %xmm14, %xmm2
.Ltmp175:
	#DEBUG_VALUE: inner <- 1
	#DEBUG_VALUE: coeffByOuterInner:inner <- 1
	#DEBUG_VALUE: outer <- 0
	#DEBUG_VALUE: coeffByOuterInner:outer <- 0
	.loc	2 98 1                  # /home/talgat/libs/eigen/Eigen/src/Core/DenseCoeffsBase.h:98:1
	vmulsd	%xmm3, %xmm13, %xmm12
.Ltmp176:
	#DEBUG_VALUE: mat <- undef
	#DEBUG_VALUE: run:mat <- undef
	#DEBUG_VALUE:  <- undef
	#DEBUG_VALUE: coeffByOuterInner: <- undef
	.loc	1 73 1 is_stmt 1        # vlasovsolver/cpu_acc_intersections.cpp:73:1
	vaddsd	%xmm2, %xmm12, %xmm2
	vaddsd	%xmm2, %xmm7, %xmm2
.Ltmp177:
	#DEBUG_VALUE: mat <- undef
	#DEBUG_VALUE: run:mat <- undef
	#DEBUG_VALUE: mat <- undef
	#DEBUG_VALUE: run:mat <- undef
	#DEBUG_VALUE: mat <- undef
	#DEBUG_VALUE: run:mat <- undef
	#DEBUG_VALUE: nom <- $xmm2
	.loc	4 180 1                 # /home/talgat/libs/eigen/Eigen/src/Core/Assign.h:180:1
	vaddsd	%xmm15, %xmm3, %xmm3
.Ltmp178:
	.loc	2 98 1                  # /home/talgat/libs/eigen/Eigen/src/Core/DenseCoeffsBase.h:98:1
	vmulsd	%xmm3, %xmm13, %xmm3
.Ltmp179:
	#DEBUG_VALUE:  <- undef
	#DEBUG_VALUE: coeffByOuterInner: <- undef
	.loc	4 181 1                 # /home/talgat/libs/eigen/Eigen/src/Core/Assign.h:181:1
	vaddsd	%xmm9, %xmm0, %xmm6
.Ltmp180:
	#DEBUG_VALUE:  <- undef
	#DEBUG_VALUE: coeffByOuterInner: <- undef
	#DEBUG_VALUE: .._T27768184_34322.m_rhs <- undef
	#DEBUG_VALUE: .._T27768184_34322.m_lhs <- undef
	#DEBUG_VALUE: p_normal <- undef
	#DEBUG_VALUE: line_plane_intersection:p_normal <- undef
	#DEBUG_VALUE: p_point <- undef
	#DEBUG_VALUE: line_plane_intersection:p_point <- undef
	#DEBUG_VALUE: l_direction <- undef
	#DEBUG_VALUE: line_plane_intersection:l_direction <- undef
	#DEBUG_VALUE: l_point <- undef
	#DEBUG_VALUE: line_plane_intersection:l_point <- undef
	#DEBUG_VALUE: inner <- 2
	#DEBUG_VALUE: coeffByOuterInner:inner <- 2
	#DEBUG_VALUE: outer <- 0
	#DEBUG_VALUE: coeffByOuterInner:outer <- 0
	#DEBUG_VALUE: plane_point <- [DW_OP_LLVM_fragment 128 64] $xmm0
	.loc	2 98 1                  # /home/talgat/libs/eigen/Eigen/src/Core/DenseCoeffsBase.h:98:1
	vsubsd	%xmm4, %xmm6, %xmm6
	vmulsd	%xmm6, %xmm14, %xmm6
.Ltmp181:
	.loc	1 73 1                  # vlasovsolver/cpu_acc_intersections.cpp:73:1
	vaddsd	%xmm6, %xmm3, %xmm3
.Ltmp182:
	.loc	4 495 1                 # /home/talgat/libs/eigen/Eigen/src/Core/Assign.h:495:1
	vaddsd	-8(%rbp), %xmm11, %xmm6 # 8-byte Folded Reload
.Ltmp183:
	#DEBUG_VALUE: inner <- 0
	#DEBUG_VALUE: coeffByOuterInner:inner <- 0
	#DEBUG_VALUE: outer <- 0
	#DEBUG_VALUE: coeffByOuterInner:outer <- 0
	.loc	2 98 1                  # /home/talgat/libs/eigen/Eigen/src/Core/DenseCoeffsBase.h:98:1
	vsubsd	%xmm5, %xmm6, %xmm6
	vmovapd	%xmm1, %xmm7
.Ltmp184:
	#DEBUG_VALUE: plane_normal <- [DW_OP_LLVM_fragment 0 64] $xmm7
	vmulsd	%xmm6, %xmm1, %xmm6
.Ltmp185:
	#DEBUG_VALUE: inner <- 1
	#DEBUG_VALUE: coeffByOuterInner:inner <- 1
	#DEBUG_VALUE: outer <- 0
	#DEBUG_VALUE: coeffByOuterInner:outer <- 0
	#DEBUG_VALUE:  <- undef
	#DEBUG_VALUE: coeffByOuterInner: <- undef
	.loc	1 73 1                  # vlasovsolver/cpu_acc_intersections.cpp:73:1
	vaddsd	%xmm3, %xmm6, %xmm3
.Ltmp186:
	#DEBUG_VALUE: mat <- undef
	#DEBUG_VALUE: run:mat <- undef
	#DEBUG_VALUE: mat <- undef
	#DEBUG_VALUE: run:mat <- undef
	#DEBUG_VALUE: mat <- undef
	#DEBUG_VALUE: run:mat <- undef
	#DEBUG_VALUE: nom <- $xmm3
	.loc	1 53 1                  # vlasovsolver/cpu_acc_intersections.cpp:53:1
	vdivsd	%xmm10, %xmm2, %xmm2
.Ltmp187:
	#DEBUG_VALUE: src <- undef
	#DEBUG_VALUE: run:src <- undef
	#DEBUG_VALUE: dst <- undef
	#DEBUG_VALUE: run:dst <- undef
	#DEBUG_VALUE: intersection_1_0_0 <- [DW_OP_LLVM_fragment 0 64] undef
	#DEBUG_VALUE: other <- undef
	#DEBUG_VALUE: lazyAssign:other <- undef
	#DEBUG_VALUE:  <- undef
	#DEBUG_VALUE: lazyAssign: <- undef
	#DEBUG_VALUE: other <- undef
	#DEBUG_VALUE: Matrix:other <- undef
	#DEBUG_VALUE:  <- undef
	#DEBUG_VALUE: Matrix: <- undef
	#DEBUG_VALUE: nom <- $xmm2
	.loc	4 495 1                 # /home/talgat/libs/eigen/Eigen/src/Core/Assign.h:495:1
	vaddsd	%xmm8, %xmm2, %xmm2
.Ltmp188:
	#DEBUG_VALUE: src <- undef
	#DEBUG_VALUE: run:src <- undef
	#DEBUG_VALUE: dst <- undef
	#DEBUG_VALUE: run:dst <- undef
	#DEBUG_VALUE: other <- undef
	#DEBUG_VALUE: Matrix:other <- undef
	#DEBUG_VALUE:  <- undef
	#DEBUG_VALUE: Matrix: <- undef
	#DEBUG_VALUE: intersection_1_0_0 <- [DW_OP_LLVM_fragment 128 64] undef
	#DEBUG_VALUE: intersection_1_0_0 <- [DW_OP_LLVM_fragment 64 64] $xmm2
	.loc	1 53 1                  # vlasovsolver/cpu_acc_intersections.cpp:53:1
	vdivsd	%xmm10, %xmm3, %xmm3
.Ltmp189:
	#DEBUG_VALUE: src <- undef
	#DEBUG_VALUE: run:src <- undef
	#DEBUG_VALUE: dst <- undef
	#DEBUG_VALUE: run:dst <- undef
	#DEBUG_VALUE: intersection_0_1_0 <- [DW_OP_LLVM_fragment 0 64] undef
	#DEBUG_VALUE: other <- undef
	#DEBUG_VALUE: lazyAssign:other <- undef
	#DEBUG_VALUE:  <- undef
	#DEBUG_VALUE: lazyAssign: <- undef
	#DEBUG_VALUE: other <- undef
	#DEBUG_VALUE: Matrix:other <- undef
	#DEBUG_VALUE:  <- undef
	#DEBUG_VALUE: Matrix: <- undef
	#DEBUG_VALUE: nom <- $xmm3
	.loc	4 495 1                 # /home/talgat/libs/eigen/Eigen/src/Core/Assign.h:495:1
	vaddsd	%xmm8, %xmm3, %xmm3
.Ltmp190:
	#DEBUG_VALUE: src <- undef
	#DEBUG_VALUE: run:src <- undef
	#DEBUG_VALUE: dst <- undef
	#DEBUG_VALUE: run:dst <- undef
	#DEBUG_VALUE: other <- undef
	#DEBUG_VALUE: Matrix:other <- undef
	#DEBUG_VALUE:  <- undef
	#DEBUG_VALUE: Matrix: <- undef
	#DEBUG_VALUE: intersection_0_1_0 <- [DW_OP_LLVM_fragment 128 64] undef
	#DEBUG_VALUE: intersection_0_1_0 <- [DW_OP_LLVM_fragment 64 64] $xmm3
	.loc	4 495 1 is_stmt 0       # /home/talgat/libs/eigen/Eigen/src/Core/Assign.h:495:1
	vaddsd	%xmm8, %xmm5, %xmm1
.Ltmp191:
	#DEBUG_VALUE: inner <- 0
	#DEBUG_VALUE: coeffByOuterInner:inner <- 0
	#DEBUG_VALUE: outer <- 0
	#DEBUG_VALUE: coeffByOuterInner:outer <- 0
	.loc	2 98 1 is_stmt 1        # /home/talgat/libs/eigen/Eigen/src/Core/DenseCoeffsBase.h:98:1
	vunpcklpd	%xmm1, %xmm5, %xmm1 # xmm1 = xmm5[0],xmm1[0]
	vmovddup	%xmm11, %xmm5   # xmm5 = xmm11[0,0]
.Ltmp192:
	vsubpd	%xmm1, %xmm5, %xmm1
	vmovddup	%xmm7, %xmm5    # xmm5 = xmm7[0,0]
	vmulpd	%xmm1, %xmm5, %xmm1
.Ltmp193:
	#DEBUG_VALUE: inner <- 2
	#DEBUG_VALUE: coeffByOuterInner:inner <- 2
	#DEBUG_VALUE: outer <- 0
	#DEBUG_VALUE: coeffByOuterInner:outer <- 0
	#DEBUG_VALUE:  <- undef
	#DEBUG_VALUE: coeffByOuterInner: <- undef
	#DEBUG_VALUE: inner <- 1
	#DEBUG_VALUE: coeffByOuterInner:inner <- 1
	#DEBUG_VALUE: outer <- 0
	#DEBUG_VALUE: coeffByOuterInner:outer <- 0
	#DEBUG_VALUE:  <- undef
	#DEBUG_VALUE: coeffByOuterInner: <- undef
	.loc	4 181 1                 # /home/talgat/libs/eigen/Eigen/src/Core/Assign.h:181:1
	vaddsd	-16(%rbp), %xmm4, %xmm5 # 8-byte Folded Reload
.Ltmp194:
	#DEBUG_VALUE: inner <- 0
	#DEBUG_VALUE: coeffByOuterInner:inner <- 0
	#DEBUG_VALUE: outer <- 0
	#DEBUG_VALUE: coeffByOuterInner:outer <- 0
	#DEBUG_VALUE:  <- undef
	#DEBUG_VALUE: coeffByOuterInner: <- undef
	#DEBUG_VALUE: .._T27768184_34322.m_rhs <- undef
	#DEBUG_VALUE: .._T27768184_34322.m_lhs <- undef
	#DEBUG_VALUE: p_normal <- undef
	#DEBUG_VALUE: line_plane_intersection:p_normal <- undef
	#DEBUG_VALUE: p_point <- undef
	#DEBUG_VALUE: line_plane_intersection:p_point <- undef
	#DEBUG_VALUE: l_direction <- undef
	#DEBUG_VALUE: line_plane_intersection:l_direction <- undef
	#DEBUG_VALUE: l_point <- undef
	#DEBUG_VALUE: line_plane_intersection:l_point <- undef
	#DEBUG_VALUE: inner <- 2
	#DEBUG_VALUE: coeffByOuterInner:inner <- 2
	#DEBUG_VALUE: outer <- 0
	#DEBUG_VALUE: coeffByOuterInner:outer <- 0
	.loc	2 98 1                  # /home/talgat/libs/eigen/Eigen/src/Core/DenseCoeffsBase.h:98:1
	vunpcklpd	%xmm5, %xmm4, %xmm4 # xmm4 = xmm4[0],xmm5[0]
.Ltmp195:
	vmovddup	%xmm0, %xmm5    # xmm5 = xmm0[0,0]
	vsubpd	%xmm4, %xmm5, %xmm4
	vmovddup	%xmm14, %xmm5   # xmm5 = xmm14[0,0]
	vmulpd	%xmm4, %xmm5, %xmm4
.Ltmp196:
	.loc	1 73 1                  # vlasovsolver/cpu_acc_intersections.cpp:73:1
	vmovddup	%xmm12, %xmm5   # xmm5 = xmm12[0,0]
	vaddpd	%xmm4, %xmm5, %xmm4
	vaddpd	%xmm4, %xmm1, %xmm1
.Ltmp197:
	#DEBUG_VALUE: mat <- undef
	#DEBUG_VALUE: run:mat <- undef
	#DEBUG_VALUE: mat <- undef
	#DEBUG_VALUE: run:mat <- undef
	#DEBUG_VALUE: mat <- undef
	#DEBUG_VALUE: run:mat <- undef
	.loc	1 53 1                  # vlasovsolver/cpu_acc_intersections.cpp:53:1
	vmovddup	%xmm10, %xmm0   # xmm0 = xmm10[0,0]
.Ltmp198:
	vdivpd	%xmm0, %xmm1, %xmm0
.Ltmp199:
	#DEBUG_VALUE: src <- undef
	#DEBUG_VALUE: run:src <- undef
	#DEBUG_VALUE: dst <- undef
	#DEBUG_VALUE: run:dst <- undef
	#DEBUG_VALUE: intersection_0_0_1 <- [DW_OP_LLVM_fragment 0 64] undef
	#DEBUG_VALUE: other <- undef
	#DEBUG_VALUE: lazyAssign:other <- undef
	#DEBUG_VALUE:  <- undef
	#DEBUG_VALUE: lazyAssign: <- undef
	#DEBUG_VALUE: other <- undef
	#DEBUG_VALUE: Matrix:other <- undef
	#DEBUG_VALUE:  <- undef
	#DEBUG_VALUE: Matrix: <- undef
	.loc	4 495 1                 # /home/talgat/libs/eigen/Eigen/src/Core/Assign.h:495:1
	vxorpd	%xmm1, %xmm1, %xmm1
	vaddpd	%xmm1, %xmm0, %xmm0
.Ltmp200:
	#DEBUG_VALUE: intersection_0_0_1 <- [DW_OP_LLVM_fragment 128 64] undef
	.loc	1 158 1                 # vlasovsolver/cpu_acc_intersections.cpp:158:1
	vmovlpd	%xmm0, (%r9)
	vsubsd	%xmm0, %xmm2, %xmm1
	vmovsd	%xmm1, (%rax)
	vsubsd	%xmm0, %xmm3, %xmm1
.Ltmp201:
.LBB1_6:                                # %L.B0006.sink.split
	#DEBUG_VALUE: compute_intersections_1st:intersection_di <- [DW_OP_plus_uconst 16] [$rbp+0]
	#DEBUG_VALUE: intersection_di <- [DW_OP_plus_uconst 16] [$rbp+0]
	#DEBUG_VALUE: compute_intersections_1st:intersection_dj <- [DW_OP_plus_uconst 24] [$rbp+0]
	#DEBUG_VALUE: intersection_dj <- [DW_OP_plus_uconst 24] [$rbp+0]
	#DEBUG_VALUE: compute_intersections_1st:intersection_dk <- [DW_OP_plus_uconst 32] [$rbp+0]
	#DEBUG_VALUE: intersection_dk <- [DW_OP_plus_uconst 32] [$rbp+0]
	#DEBUG_VALUE: intersection <- $r9
	#DEBUG_VALUE: refLevel <- $r8
	#DEBUG_VALUE: bwd_transform <- $rsi
	#DEBUG_VALUE: vmesh <- $rdi
	#DEBUG_VALUE: compute_intersections_1st:intersection <- $r9
	#DEBUG_VALUE: compute_intersections_1st:refLevel <- $r8
	#DEBUG_VALUE: compute_intersections_1st:bwd_transform <- $rsi
	#DEBUG_VALUE: compute_intersections_1st:vmesh <- $rdi
	.loc	1 0 1 is_stmt 0         # vlasovsolver/cpu_acc_intersections.cpp:0:1
	movq	32(%rbp), %rax
	movq	24(%rbp), %rcx
	.loc	1 158 1                 # vlasovsolver/cpu_acc_intersections.cpp:158:1
	vmovsd	%xmm1, (%rcx)
	vpermilpd	$1, %xmm0, %xmm1 # xmm1 = xmm0[1,0]
	vsubsd	%xmm0, %xmm1, %xmm0
	vmovsd	%xmm0, (%rax)
.Ltmp202:
.LBB1_7:                                # %L.B0006
	#DEBUG_VALUE: compute_intersections_1st:intersection_di <- [DW_OP_plus_uconst 16] [$rbp+0]
	#DEBUG_VALUE: intersection_di <- [DW_OP_plus_uconst 16] [$rbp+0]
	#DEBUG_VALUE: compute_intersections_1st:intersection_dj <- [DW_OP_plus_uconst 24] [$rbp+0]
	#DEBUG_VALUE: intersection_dj <- [DW_OP_plus_uconst 24] [$rbp+0]
	#DEBUG_VALUE: compute_intersections_1st:intersection_dk <- [DW_OP_plus_uconst 32] [$rbp+0]
	#DEBUG_VALUE: intersection_dk <- [DW_OP_plus_uconst 32] [$rbp+0]
	#DEBUG_VALUE: intersection <- $r9
	#DEBUG_VALUE: refLevel <- $r8
	#DEBUG_VALUE: bwd_transform <- $rsi
	#DEBUG_VALUE: vmesh <- $rdi
	#DEBUG_VALUE: compute_intersections_1st:intersection <- $r9
	#DEBUG_VALUE: compute_intersections_1st:refLevel <- $r8
	#DEBUG_VALUE: compute_intersections_1st:bwd_transform <- $rsi
	#DEBUG_VALUE: compute_intersections_1st:vmesh <- $rdi
	.loc	1 167 1 is_stmt 1       # vlasovsolver/cpu_acc_intersections.cpp:167:1
	popq	%rbp
	.cfi_def_cfa %rsp, 8
	retq
.Ltmp203:
.Lfunc_end1:
	.size	_Z25compute_intersections_1stRKN5vmesh12VelocityMeshIjjEERKN5Eigen9TransformIdLi3ELi2ELi0EEES8_jRKhRdSB_SB_SB_, .Lfunc_end1-_Z25compute_intersections_1stRKN5vmesh12VelocityMeshIjjEERKN5Eigen9TransformIdLi3ELi2ELi0EEES8_jRKhRdSB_SB_SB_
	.cfi_endproc
	.file	7 "/home/talgat/libs/eigen/Eigen/src/Core/PlainObjectBase.h"
	.file	8 "/home/talgat/libs/eigen/Eigen/src/Core/NoAlias.h"
	.file	9 "/home/talgat/libs/eigen/Eigen/src/Geometry/Transform.h"
                                        # -- End function
	.section	.rodata.cst8,"aM",@progbits,8
	.p2align	3               # -- Begin function _Z25compute_intersections_2ndRKN5vmesh12VelocityMeshIjjEERKN5Eigen9TransformIdLi3ELi2ELi0EEES8_jRKhRdSB_SB_SB_
.LCPI2_0:
	.quad	4602678819172646912     # double 0.5
	.text
	.globl	_Z25compute_intersections_2ndRKN5vmesh12VelocityMeshIjjEERKN5Eigen9TransformIdLi3ELi2ELi0EEES8_jRKhRdSB_SB_SB_
	.p2align	4, 0x90
	.type	_Z25compute_intersections_2ndRKN5vmesh12VelocityMeshIjjEERKN5Eigen9TransformIdLi3ELi2ELi0EEES8_jRKhRdSB_SB_SB_,@function
_Z25compute_intersections_2ndRKN5vmesh12VelocityMeshIjjEERKN5Eigen9TransformIdLi3ELi2ELi0EEES8_jRKhRdSB_SB_SB_: # @_Z25compute_intersections_2ndRKN5vmesh12VelocityMeshIjjEERKN5Eigen9TransformIdLi3ELi2ELi0EEES8_jRKhRdSB_SB_SB_
.Lfunc_begin2:
	.loc	1 185 0                 # vlasovsolver/cpu_acc_intersections.cpp:185:0
	.cfi_startproc
# %bb.0:                                # %L.entry
	#DEBUG_VALUE: compute_intersections_2nd:vmesh <- $rdi
	#DEBUG_VALUE: compute_intersections_2nd:bwd_transform <- $rsi
	#DEBUG_VALUE: compute_intersections_2nd:fwd_transform <- $rdx
	#DEBUG_VALUE: compute_intersections_2nd:dimension <- $ecx
	#DEBUG_VALUE: compute_intersections_2nd:refLevel <- $r8
	#DEBUG_VALUE: compute_intersections_2nd:intersection <- $r9
	pushq	%rbp
	.cfi_def_cfa_offset 16
	.cfi_offset %rbp, -16
	movq	%rsp, %rbp
	.cfi_def_cfa_register %rbp
.Ltmp204:
	#DEBUG_VALUE: vmesh <- $rdi
	#DEBUG_VALUE: bwd_transform <- $rsi
	#DEBUG_VALUE: fwd_transform <- $rdx
	#DEBUG_VALUE: dimension <- $ecx
	#DEBUG_VALUE: refLevel <- $r8
	#DEBUG_VALUE: intersection <- $r9
	movq	16(%rbp), %rax
.Ltmp205:
	#DEBUG_VALUE: intersection_dk <- [DW_OP_plus_uconst 32] [$rbp+0]
	#DEBUG_VALUE: compute_intersections_2nd:intersection_dk <- [DW_OP_plus_uconst 32] [$rbp+0]
	#DEBUG_VALUE: intersection_dj <- [DW_OP_plus_uconst 24] [$rbp+0]
	#DEBUG_VALUE: compute_intersections_2nd:intersection_dj <- [DW_OP_plus_uconst 24] [$rbp+0]
	#DEBUG_VALUE: intersection_di <- [DW_OP_plus_uconst 16] [$rbp+0]
	#DEBUG_VALUE: compute_intersections_2nd:intersection_di <- [DW_OP_plus_uconst 16] [$rbp+0]
	#DEBUG_VALUE: intersection <- $r9
	#DEBUG_VALUE: compute_intersections_2nd:intersection <- $r9
	#DEBUG_VALUE: dimension <- $ecx
	#DEBUG_VALUE: compute_intersections_2nd:dimension <- $ecx
	#DEBUG_VALUE: bwd_transform <- $rsi
	#DEBUG_VALUE: compute_intersections_2nd:bwd_transform <- $rsi
	#DEBUG_VALUE: vmesh <- $rdi
	#DEBUG_VALUE: compute_intersections_2nd:vmesh <- $rdi
	.loc	1 187 1 prologue_end    # vlasovsolver/cpu_acc_intersections.cpp:187:1
	cmpl	$2, %ecx
	je	.LBB2_5
.Ltmp206:
# %bb.1:                                # %L.entry
	#DEBUG_VALUE: compute_intersections_2nd:intersection_di <- [DW_OP_plus_uconst 16] [$rbp+0]
	#DEBUG_VALUE: intersection_di <- [DW_OP_plus_uconst 16] [$rbp+0]
	#DEBUG_VALUE: compute_intersections_2nd:intersection_dj <- [DW_OP_plus_uconst 24] [$rbp+0]
	#DEBUG_VALUE: intersection_dj <- [DW_OP_plus_uconst 24] [$rbp+0]
	#DEBUG_VALUE: compute_intersections_2nd:intersection_dk <- [DW_OP_plus_uconst 32] [$rbp+0]
	#DEBUG_VALUE: intersection_dk <- [DW_OP_plus_uconst 32] [$rbp+0]
	#DEBUG_VALUE: intersection <- $r9
	#DEBUG_VALUE: refLevel <- $r8
	#DEBUG_VALUE: dimension <- $ecx
	#DEBUG_VALUE: fwd_transform <- $rdx
	#DEBUG_VALUE: bwd_transform <- $rsi
	#DEBUG_VALUE: vmesh <- $rdi
	#DEBUG_VALUE: compute_intersections_2nd:intersection <- $r9
	#DEBUG_VALUE: compute_intersections_2nd:refLevel <- $r8
	#DEBUG_VALUE: compute_intersections_2nd:dimension <- $ecx
	#DEBUG_VALUE: compute_intersections_2nd:fwd_transform <- $rdx
	#DEBUG_VALUE: compute_intersections_2nd:bwd_transform <- $rsi
	#DEBUG_VALUE: compute_intersections_2nd:vmesh <- $rdi
	cmpl	$1, %ecx
	je	.LBB2_4
.Ltmp207:
# %bb.2:                                # %L.entry
	#DEBUG_VALUE: compute_intersections_2nd:intersection_di <- [DW_OP_plus_uconst 16] [$rbp+0]
	#DEBUG_VALUE: intersection_di <- [DW_OP_plus_uconst 16] [$rbp+0]
	#DEBUG_VALUE: compute_intersections_2nd:intersection_dj <- [DW_OP_plus_uconst 24] [$rbp+0]
	#DEBUG_VALUE: intersection_dj <- [DW_OP_plus_uconst 24] [$rbp+0]
	#DEBUG_VALUE: compute_intersections_2nd:intersection_dk <- [DW_OP_plus_uconst 32] [$rbp+0]
	#DEBUG_VALUE: intersection_dk <- [DW_OP_plus_uconst 32] [$rbp+0]
	#DEBUG_VALUE: intersection <- $r9
	#DEBUG_VALUE: refLevel <- $r8
	#DEBUG_VALUE: dimension <- $ecx
	#DEBUG_VALUE: fwd_transform <- $rdx
	#DEBUG_VALUE: bwd_transform <- $rsi
	#DEBUG_VALUE: vmesh <- $rdi
	#DEBUG_VALUE: compute_intersections_2nd:intersection <- $r9
	#DEBUG_VALUE: compute_intersections_2nd:refLevel <- $r8
	#DEBUG_VALUE: compute_intersections_2nd:dimension <- $ecx
	#DEBUG_VALUE: compute_intersections_2nd:fwd_transform <- $rdx
	#DEBUG_VALUE: compute_intersections_2nd:bwd_transform <- $rsi
	#DEBUG_VALUE: compute_intersections_2nd:vmesh <- $rdi
	testl	%ecx, %ecx
	jne	.LBB2_8
.Ltmp208:
# %bb.3:                                # %L.B2830
	#DEBUG_VALUE: compute_intersections_2nd:intersection_di <- [DW_OP_plus_uconst 16] [$rbp+0]
	#DEBUG_VALUE: intersection_di <- [DW_OP_plus_uconst 16] [$rbp+0]
	#DEBUG_VALUE: compute_intersections_2nd:intersection_dj <- [DW_OP_plus_uconst 24] [$rbp+0]
	#DEBUG_VALUE: intersection_dj <- [DW_OP_plus_uconst 24] [$rbp+0]
	#DEBUG_VALUE: compute_intersections_2nd:intersection_dk <- [DW_OP_plus_uconst 32] [$rbp+0]
	#DEBUG_VALUE: intersection_dk <- [DW_OP_plus_uconst 32] [$rbp+0]
	#DEBUG_VALUE: intersection <- $r9
	#DEBUG_VALUE: refLevel <- $r8
	#DEBUG_VALUE: dimension <- $ecx
	#DEBUG_VALUE: fwd_transform <- $rdx
	#DEBUG_VALUE: bwd_transform <- $rsi
	#DEBUG_VALUE: vmesh <- $rdi
	#DEBUG_VALUE: compute_intersections_2nd:intersection <- $r9
	#DEBUG_VALUE: compute_intersections_2nd:refLevel <- $r8
	#DEBUG_VALUE: compute_intersections_2nd:dimension <- $ecx
	#DEBUG_VALUE: compute_intersections_2nd:fwd_transform <- $rdx
	#DEBUG_VALUE: compute_intersections_2nd:bwd_transform <- $rsi
	#DEBUG_VALUE: compute_intersections_2nd:vmesh <- $rdi
	.loc	1 287 1                 # vlasovsolver/cpu_acc_intersections.cpp:287:1
	movq	_ZN5vmesh12VelocityMeshIjjE14meshParametersE(%rip), %rcx
.Ltmp209:
	imulq	$336, (%rdi), %rdx      # imm = 0x150
.Ltmp210:
	vmovsd	200(%rcx,%rdx), %xmm0   # xmm0 = mem[0],zero
	vmovsd	%xmm0, -8(%rbp)         # 8-byte Spill
	vmovsd	.LCPI2_0(%rip), %xmm9   # xmm9 = mem[0],zero
	vmovsd	128(%rcx,%rdx), %xmm14  # xmm14 = mem[0],zero
	vfmadd231sd	%xmm9, %xmm0, %xmm14 # xmm14 = (xmm0 * xmm9) + xmm14
.Ltmp211:
	#DEBUG_VALUE: plane_point <- [DW_OP_LLVM_fragment 64 64] $xmm14
	#DEBUG_VALUE: plane_normal <- [DW_OP_LLVM_fragment 128 64] 0.000000e+00
	#DEBUG_VALUE: plane_normal <- [DW_OP_LLVM_fragment 64 64] 1.000000e+00
	#DEBUG_VALUE: plane_normal <- [DW_OP_LLVM_fragment 0 64] 0.000000e+00
	.loc	6 245 1                 # /home/talgat/libs/eigen/Eigen/src/Core/products/CoeffBasedProduct.h:245:1
	vmovsd	(%rsi), %xmm1           # xmm1 = mem[0],zero
.Ltmp212:
	#DEBUG_VALUE: res <- undef
	#DEBUG_VALUE: run:res <- undef
	#DEBUG_VALUE: rhs <- undef
	#DEBUG_VALUE: run:rhs <- undef
	#DEBUG_VALUE: lhs <- undef
	#DEBUG_VALUE: run:lhs <- undef
	#DEBUG_VALUE: col <- 0
	#DEBUG_VALUE: run:col <- 0
	#DEBUG_VALUE: row <- 1
	#DEBUG_VALUE: run:row <- 1
	.loc	6 245 1 is_stmt 0       # /home/talgat/libs/eigen/Eigen/src/Core/products/CoeffBasedProduct.h:245:1
	vmovsd	8(%rsi), %xmm2          # xmm2 = mem[0],zero
.Ltmp213:
	.loc	6 246 1 is_stmt 1       # /home/talgat/libs/eigen/Eigen/src/Core/products/CoeffBasedProduct.h:246:1
	vmovsd	32(%rsi), %xmm13        # xmm13 = mem[0],zero
	vxorpd	%xmm4, %xmm4, %xmm4
	.loc	6 144 1                 # /home/talgat/libs/eigen/Eigen/src/Core/products/CoeffBasedProduct.h:144:1
	vmovsd	64(%rsi), %xmm11        # xmm11 = mem[0],zero
.Ltmp214:
	.loc	6 246 1                 # /home/talgat/libs/eigen/Eigen/src/Core/products/CoeffBasedProduct.h:246:1
	vmovsd	40(%rsi), %xmm12        # xmm12 = mem[0],zero
	#DEBUG_VALUE: col <- 0
	#DEBUG_VALUE: run:col <- 0
	#DEBUG_VALUE: row <- 1
	#DEBUG_VALUE: run:row <- 1
	.loc	6 144 1                 # /home/talgat/libs/eigen/Eigen/src/Core/products/CoeffBasedProduct.h:144:1
	vmovsd	72(%rsi), %xmm10        # xmm10 = mem[0],zero
.Ltmp215:
	.loc	6 245 1                 # /home/talgat/libs/eigen/Eigen/src/Core/products/CoeffBasedProduct.h:245:1
	vmovsd	16(%rsi), %xmm3         # xmm3 = mem[0],zero
	vmovsd	%xmm3, -48(%rbp)        # 8-byte Spill
.Ltmp216:
	.loc	1 270 1                 # vlasovsolver/cpu_acc_intersections.cpp:270:1
	vmovsd	208(%rcx,%rdx), %xmm7   # xmm7 = mem[0],zero
.Ltmp217:
	#DEBUG_VALUE: res <- undef
	#DEBUG_VALUE: run:res <- undef
	#DEBUG_VALUE: rhs <- undef
	#DEBUG_VALUE: run:rhs <- undef
	#DEBUG_VALUE: lhs <- undef
	#DEBUG_VALUE: run:lhs <- undef
	#DEBUG_VALUE: col <- 0
	#DEBUG_VALUE: run:col <- 0
	#DEBUG_VALUE: row <- 0
	#DEBUG_VALUE: run:row <- 0
	#DEBUG_VALUE: src <- undef
	#DEBUG_VALUE: run:src <- undef
	#DEBUG_VALUE: dst <- undef
	#DEBUG_VALUE: run:dst <- undef
	#DEBUG_VALUE: other <- undef
	#DEBUG_VALUE: lazyAssign:other <- undef
	#DEBUG_VALUE:  <- undef
	#DEBUG_VALUE: lazyAssign: <- undef
	.loc	6 245 1                 # /home/talgat/libs/eigen/Eigen/src/Core/products/CoeffBasedProduct.h:245:1
	vmulsd	%xmm4, %xmm1, %xmm15
	#DEBUG_VALUE: plane_point <- [DW_OP_LLVM_fragment 64 64] $xmm14
.Ltmp218:
	#DEBUG_VALUE: plane_normal <- [DW_OP_LLVM_fragment 128 64] 0.000000e+00
	#DEBUG_VALUE: plane_normal <- [DW_OP_LLVM_fragment 64 64] 1.000000e+00
	#DEBUG_VALUE: plane_normal <- [DW_OP_LLVM_fragment 0 64] 0.000000e+00
	.loc	6 246 1                 # /home/talgat/libs/eigen/Eigen/src/Core/products/CoeffBasedProduct.h:246:1
	vxorpd	%xmm0, %xmm0, %xmm0
	vfmadd213sd	%xmm15, %xmm13, %xmm0 # xmm0 = (xmm13 * xmm0) + xmm15
	.loc	6 144 1                 # /home/talgat/libs/eigen/Eigen/src/Core/products/CoeffBasedProduct.h:144:1
	vfmadd231sd	%xmm11, %xmm7, %xmm0 # xmm0 = (xmm7 * xmm11) + xmm0
.Ltmp219:
	#DEBUG_VALUE: res <- undef
	#DEBUG_VALUE: run:res <- undef
	#DEBUG_VALUE: rhs <- undef
	#DEBUG_VALUE: run:rhs <- undef
	#DEBUG_VALUE: lhs <- undef
	#DEBUG_VALUE: run:lhs <- undef
	.loc	6 0 1 is_stmt 0         # /home/talgat/libs/eigen/Eigen/src/Core/products/CoeffBasedProduct.h:0:1
	vmovsd	%xmm0, -32(%rbp)        # 8-byte Spill
.Ltmp220:
	#DEBUG_VALUE: col <- 0
	#DEBUG_VALUE: run:col <- 0
	#DEBUG_VALUE: row <- 1
	#DEBUG_VALUE: run:row <- 1
	.loc	6 245 1 is_stmt 1       # /home/talgat/libs/eigen/Eigen/src/Core/products/CoeffBasedProduct.h:245:1
	vmulsd	%xmm4, %xmm2, %xmm5
	vmovsd	%xmm5, -40(%rbp)        # 8-byte Spill
	.loc	6 246 1                 # /home/talgat/libs/eigen/Eigen/src/Core/products/CoeffBasedProduct.h:246:1
	vxorpd	%xmm0, %xmm0, %xmm0
	vfmadd213sd	%xmm5, %xmm12, %xmm0 # xmm0 = (xmm12 * xmm0) + xmm5
	.loc	6 144 1                 # /home/talgat/libs/eigen/Eigen/src/Core/products/CoeffBasedProduct.h:144:1
	vfmadd231sd	%xmm10, %xmm7, %xmm0 # xmm0 = (xmm7 * xmm10) + xmm0
.Ltmp221:
	#DEBUG_VALUE: res <- undef
	#DEBUG_VALUE: run:res <- undef
	#DEBUG_VALUE: rhs <- undef
	#DEBUG_VALUE: run:rhs <- undef
	#DEBUG_VALUE: lhs <- undef
	#DEBUG_VALUE: run:lhs <- undef
	.loc	6 0 1 is_stmt 0         # /home/talgat/libs/eigen/Eigen/src/Core/products/CoeffBasedProduct.h:0:1
	vmovsd	%xmm0, -16(%rbp)        # 8-byte Spill
.Ltmp222:
	.loc	6 246 1 is_stmt 1       # /home/talgat/libs/eigen/Eigen/src/Core/products/CoeffBasedProduct.h:246:1
	vmovsd	48(%rsi), %xmm5         # xmm5 = mem[0],zero
.Ltmp223:
	#DEBUG_VALUE: col <- 0
	#DEBUG_VALUE: run:col <- 0
	#DEBUG_VALUE: row <- 2
	#DEBUG_VALUE: run:row <- 2
	.loc	6 245 1                 # /home/talgat/libs/eigen/Eigen/src/Core/products/CoeffBasedProduct.h:245:1
	vmulsd	%xmm4, %xmm3, %xmm0
	vmovsd	%xmm0, -24(%rbp)        # 8-byte Spill
	.loc	6 246 1                 # /home/talgat/libs/eigen/Eigen/src/Core/products/CoeffBasedProduct.h:246:1
	vxorpd	%xmm8, %xmm8, %xmm8
	vfmadd213sd	%xmm0, %xmm5, %xmm8 # xmm8 = (xmm5 * xmm8) + xmm0
.Ltmp224:
	.loc	6 144 1                 # /home/talgat/libs/eigen/Eigen/src/Core/products/CoeffBasedProduct.h:144:1
	vmovsd	80(%rsi), %xmm6         # xmm6 = mem[0],zero
.Ltmp225:
	.loc	6 144 1 is_stmt 0       # /home/talgat/libs/eigen/Eigen/src/Core/products/CoeffBasedProduct.h:144:1
	vfmadd231sd	%xmm6, %xmm7, %xmm8 # xmm8 = (xmm7 * xmm6) + xmm8
.Ltmp226:
	#DEBUG_VALUE: res <- undef
	#DEBUG_VALUE: run:res <- undef
	#DEBUG_VALUE: rhs <- undef
	#DEBUG_VALUE: run:rhs <- undef
	#DEBUG_VALUE: lhs <- undef
	#DEBUG_VALUE: run:lhs <- undef
	#DEBUG_VALUE: src <- undef
	#DEBUG_VALUE: run:src <- undef
	#DEBUG_VALUE: dst <- undef
	#DEBUG_VALUE: run:dst <- undef
	#DEBUG_VALUE: other <- undef
	#DEBUG_VALUE: lazyAssign:other <- undef
	#DEBUG_VALUE:  <- undef
	#DEBUG_VALUE: lazyAssign: <- undef
	#DEBUG_VALUE: lagrangian_dk <- [DW_OP_constu 16, DW_OP_minus, DW_OP_LLVM_fragment 64 64] [$rbp+0]
	#DEBUG_VALUE: lagrangian_dk <- [DW_OP_constu 32, DW_OP_minus, DW_OP_LLVM_fragment 0 64] [$rbp+0]
	#DEBUG_VALUE: lagrangian_dk <- [DW_OP_LLVM_fragment 128 64] $xmm8
	#DEBUG_VALUE: col <- 0
	#DEBUG_VALUE: run:col <- 0
	#DEBUG_VALUE: row <- 2
	#DEBUG_VALUE: run:row <- 2
	.loc	1 407 1 is_stmt 1       # vlasovsolver/cpu_acc_intersections.cpp:407:1
	vfmadd213sd	136(%rcx,%rdx), %xmm7, %xmm9 # xmm9 = (xmm7 * xmm9) + mem
.Ltmp227:
	#DEBUG_VALUE: rhs <- undef
	#DEBUG_VALUE: run:rhs <- undef
	#DEBUG_VALUE: lhs <- undef
	#DEBUG_VALUE: run:lhs <- undef
	#DEBUG_VALUE: src <- undef
	#DEBUG_VALUE: run:src <- undef
	#DEBUG_VALUE: dst <- undef
	#DEBUG_VALUE: run:dst <- undef
	#DEBUG_VALUE: other <- undef
	#DEBUG_VALUE: operator+=:other <- undef
	#DEBUG_VALUE:  <- undef
	#DEBUG_VALUE: operator+=: <- undef
	#DEBUG_VALUE: line_point <- [DW_OP_LLVM_fragment 128 64] undef
	#DEBUG_VALUE: src <- undef
	#DEBUG_VALUE: run:src <- undef
	#DEBUG_VALUE: dst <- undef
	#DEBUG_VALUE: run:dst <- undef
	#DEBUG_VALUE: line_point <- [DW_OP_LLVM_fragment 64 64] undef
	#DEBUG_VALUE: src <- undef
	#DEBUG_VALUE: run:src <- undef
	#DEBUG_VALUE: dst <- undef
	#DEBUG_VALUE: run:dst <- undef
	#DEBUG_VALUE: line_point <- [DW_OP_LLVM_fragment 0 64] undef
	#DEBUG_VALUE: src <- undef
	#DEBUG_VALUE: run:src <- undef
	#DEBUG_VALUE: dst <- undef
	#DEBUG_VALUE: run:dst <- undef
	#DEBUG_VALUE: other <- undef
	#DEBUG_VALUE: lazyAssign:other <- undef
	#DEBUG_VALUE:  <- undef
	#DEBUG_VALUE: lazyAssign: <- undef
	#DEBUG_VALUE: a_startCol <- 3
	#DEBUG_VALUE: BlockImpl:a_startCol <- 3
	#DEBUG_VALUE: a_startRow <- 0
	#DEBUG_VALUE: BlockImpl:a_startRow <- 0
	#DEBUG_VALUE: xpr <- $rsi
	#DEBUG_VALUE: BlockImpl:xpr <- $rsi
	#DEBUG_VALUE:  <- undef
	#DEBUG_VALUE: BlockImpl: <- undef
	#DEBUG_VALUE: other <- undef
	#DEBUG_VALUE: run:other <- undef
	.loc	1 268 1                 # vlasovsolver/cpu_acc_intersections.cpp:268:1
	vmovsd	192(%rcx,%rdx), %xmm7   # xmm7 = mem[0],zero
.Ltmp228:
	#DEBUG_VALUE: res <- undef
	#DEBUG_VALUE: run:res <- undef
	#DEBUG_VALUE: rhs <- undef
	#DEBUG_VALUE: run:rhs <- undef
	#DEBUG_VALUE: lhs <- undef
	#DEBUG_VALUE: run:lhs <- undef
	#DEBUG_VALUE: src <- undef
	#DEBUG_VALUE: run:src <- undef
	#DEBUG_VALUE: dst <- undef
	#DEBUG_VALUE: run:dst <- undef
	#DEBUG_VALUE: other <- undef
	#DEBUG_VALUE: lazyAssign:other <- undef
	#DEBUG_VALUE:  <- undef
	#DEBUG_VALUE: lazyAssign: <- undef
	.loc	1 0 1 is_stmt 0         # vlasovsolver/cpu_acc_intersections.cpp:0:1
	vmovapd	%xmm1, %xmm0
.Ltmp229:
	#DEBUG_VALUE: col <- 0
	#DEBUG_VALUE: run:col <- 0
	#DEBUG_VALUE: row <- 0
	#DEBUG_VALUE: run:row <- 0
	.loc	6 245 1 is_stmt 1       # /home/talgat/libs/eigen/Eigen/src/Core/products/CoeffBasedProduct.h:245:1
	vmulsd	%xmm7, %xmm1, %xmm1
.Ltmp230:
	#DEBUG_VALUE: lagrangian_dk <- [DW_OP_constu 16, DW_OP_minus, DW_OP_LLVM_fragment 64 64] [$rbp+0]
	#DEBUG_VALUE: lagrangian_dk <- [DW_OP_constu 32, DW_OP_minus, DW_OP_LLVM_fragment 0 64] [$rbp+0]
	#DEBUG_VALUE: lagrangian_dk <- [DW_OP_LLVM_fragment 128 64] $xmm8
	#DEBUG_VALUE: plane_point <- [DW_OP_LLVM_fragment 64 64] $xmm14
	#DEBUG_VALUE: plane_normal <- [DW_OP_LLVM_fragment 128 64] 0.000000e+00
	#DEBUG_VALUE: plane_normal <- [DW_OP_LLVM_fragment 64 64] 1.000000e+00
	#DEBUG_VALUE: plane_normal <- [DW_OP_LLVM_fragment 0 64] 0.000000e+00
	.loc	6 246 1                 # /home/talgat/libs/eigen/Eigen/src/Core/products/CoeffBasedProduct.h:246:1
	vfmadd231sd	%xmm4, %xmm13, %xmm1 # xmm1 = (xmm13 * xmm4) + xmm1
.Ltmp231:
	#DEBUG_VALUE: col <- 0
	#DEBUG_VALUE: run:col <- 0
	#DEBUG_VALUE: row <- 0
	#DEBUG_VALUE: run:row <- 0
	.loc	6 246 1 is_stmt 0       # /home/talgat/libs/eigen/Eigen/src/Core/products/CoeffBasedProduct.h:246:1
	vaddsd	%xmm15, %xmm13, %xmm15
.Ltmp232:
	.loc	1 268 1 is_stmt 1       # vlasovsolver/cpu_acc_intersections.cpp:268:1
	vmovsd	120(%rcx,%rdx), %xmm3   # xmm3 = mem[0],zero
.Ltmp233:
	#DEBUG_VALUE: col <- 0
	#DEBUG_VALUE: run:col <- 0
	#DEBUG_VALUE: row <- 0
	#DEBUG_VALUE: run:row <- 0
	#DEBUG_VALUE: T <- $rsi
	#DEBUG_VALUE: run:T <- $rsi
	.loc	6 245 1                 # /home/talgat/libs/eigen/Eigen/src/Core/products/CoeffBasedProduct.h:245:1
	vmulsd	%xmm0, %xmm3, %xmm0
	.loc	6 246 1                 # /home/talgat/libs/eigen/Eigen/src/Core/products/CoeffBasedProduct.h:246:1
	vfmadd231sd	%xmm13, %xmm14, %xmm0 # xmm0 = (xmm14 * xmm13) + xmm0
.Ltmp234:
	#DEBUG_VALUE: plane_point <- [DW_OP_LLVM_fragment 128 64] 0.000000e+00
	#DEBUG_VALUE: plane_point <- [DW_OP_LLVM_fragment 0 64] 0.000000e+00
	.loc	6 144 1                 # /home/talgat/libs/eigen/Eigen/src/Core/products/CoeffBasedProduct.h:144:1
	vfmadd231sd	%xmm4, %xmm11, %xmm1 # xmm1 = (xmm11 * xmm4) + xmm1
.Ltmp235:
	#DEBUG_VALUE: col <- 0
	#DEBUG_VALUE: run:col <- 0
	#DEBUG_VALUE: row <- 0
	#DEBUG_VALUE: run:row <- 0
	#DEBUG_VALUE: lagrangian_dk <- [DW_OP_constu 16, DW_OP_minus, DW_OP_LLVM_fragment 64 64] [$rbp+0]
	#DEBUG_VALUE: lagrangian_dk <- [DW_OP_constu 32, DW_OP_minus, DW_OP_LLVM_fragment 0 64] [$rbp+0]
	#DEBUG_VALUE: lagrangian_dk <- [DW_OP_LLVM_fragment 128 64] $xmm8
	#DEBUG_VALUE: plane_point <- [DW_OP_LLVM_fragment 64 64] $xmm14
	#DEBUG_VALUE: plane_normal <- [DW_OP_LLVM_fragment 128 64] 0.000000e+00
	#DEBUG_VALUE: plane_normal <- [DW_OP_LLVM_fragment 64 64] 1.000000e+00
	#DEBUG_VALUE: plane_normal <- [DW_OP_LLVM_fragment 0 64] 0.000000e+00
	.loc	6 144 1 is_stmt 0       # /home/talgat/libs/eigen/Eigen/src/Core/products/CoeffBasedProduct.h:144:1
	vfmadd231sd	%xmm4, %xmm11, %xmm15 # xmm15 = (xmm11 * xmm4) + xmm15
.Ltmp236:
	#DEBUG_VALUE: res <- undef
	#DEBUG_VALUE: run:res <- undef
	#DEBUG_VALUE: rhs <- undef
	#DEBUG_VALUE: run:rhs <- undef
	#DEBUG_VALUE: lhs <- undef
	#DEBUG_VALUE: run:lhs <- undef
	#DEBUG_VALUE: col <- 0
	#DEBUG_VALUE: run:col <- 0
	#DEBUG_VALUE: row <- 0
	#DEBUG_VALUE: run:row <- 0
	.loc	6 144 1                 # /home/talgat/libs/eigen/Eigen/src/Core/products/CoeffBasedProduct.h:144:1
	vfmadd231sd	%xmm11, %xmm9, %xmm0 # xmm0 = (xmm9 * xmm11) + xmm0
.Ltmp237:
	#DEBUG_VALUE: col <- 0
	#DEBUG_VALUE: run:col <- 0
	#DEBUG_VALUE: row <- 0
	#DEBUG_VALUE: run:row <- 0
	#DEBUG_VALUE: T <- $rsi
	#DEBUG_VALUE: run:T <- $rsi
	.loc	6 245 1 is_stmt 1       # /home/talgat/libs/eigen/Eigen/src/Core/products/CoeffBasedProduct.h:245:1
	vmulsd	%xmm7, %xmm2, %xmm11
.Ltmp238:
	#DEBUG_VALUE: plane_point <- [DW_OP_LLVM_fragment 128 64] 0.000000e+00
	#DEBUG_VALUE: plane_point <- [DW_OP_LLVM_fragment 0 64] 0.000000e+00
	#DEBUG_VALUE: lagrangian_dk <- [DW_OP_constu 16, DW_OP_minus, DW_OP_LLVM_fragment 64 64] [$rbp+0]
	#DEBUG_VALUE: lagrangian_dk <- [DW_OP_constu 32, DW_OP_minus, DW_OP_LLVM_fragment 0 64] [$rbp+0]
	#DEBUG_VALUE: lagrangian_dk <- [DW_OP_LLVM_fragment 128 64] $xmm8
	#DEBUG_VALUE: col <- 0
	#DEBUG_VALUE: run:col <- 0
	#DEBUG_VALUE: row <- 1
	#DEBUG_VALUE: run:row <- 1
	#DEBUG_VALUE: plane_point <- [DW_OP_LLVM_fragment 64 64] $xmm14
	#DEBUG_VALUE: plane_normal <- [DW_OP_LLVM_fragment 128 64] 0.000000e+00
	#DEBUG_VALUE: plane_normal <- [DW_OP_LLVM_fragment 64 64] 1.000000e+00
	#DEBUG_VALUE: plane_normal <- [DW_OP_LLVM_fragment 0 64] 0.000000e+00
	.loc	6 246 1                 # /home/talgat/libs/eigen/Eigen/src/Core/products/CoeffBasedProduct.h:246:1
	vfmadd231sd	%xmm4, %xmm12, %xmm11 # xmm11 = (xmm12 * xmm4) + xmm11
.Ltmp239:
	#DEBUG_VALUE: col <- 0
	#DEBUG_VALUE: run:col <- 0
	#DEBUG_VALUE: row <- 1
	#DEBUG_VALUE: run:row <- 1
	.loc	6 246 1 is_stmt 0       # /home/talgat/libs/eigen/Eigen/src/Core/products/CoeffBasedProduct.h:246:1
	vaddsd	-40(%rbp), %xmm12, %xmm13 # 8-byte Folded Reload
.Ltmp240:
	.loc	6 245 1 is_stmt 1       # /home/talgat/libs/eigen/Eigen/src/Core/products/CoeffBasedProduct.h:245:1
	vmulsd	%xmm2, %xmm3, %xmm2
	#DEBUG_VALUE: T <- $rsi
	#DEBUG_VALUE: run:T <- $rsi
	.loc	6 246 1                 # /home/talgat/libs/eigen/Eigen/src/Core/products/CoeffBasedProduct.h:246:1
	vfmadd231sd	%xmm12, %xmm14, %xmm2 # xmm2 = (xmm14 * xmm12) + xmm2
.Ltmp241:
	.loc	6 144 1                 # /home/talgat/libs/eigen/Eigen/src/Core/products/CoeffBasedProduct.h:144:1
	vfmadd231sd	%xmm4, %xmm10, %xmm11 # xmm11 = (xmm10 * xmm4) + xmm11
.Ltmp242:
	#DEBUG_VALUE: res <- undef
	#DEBUG_VALUE: run:res <- undef
	#DEBUG_VALUE: rhs <- undef
	#DEBUG_VALUE: run:rhs <- undef
	#DEBUG_VALUE: lhs <- undef
	#DEBUG_VALUE: run:lhs <- undef
	#DEBUG_VALUE: plane_point <- [DW_OP_LLVM_fragment 128 64] 0.000000e+00
	#DEBUG_VALUE: plane_point <- [DW_OP_LLVM_fragment 0 64] 0.000000e+00
	#DEBUG_VALUE: lagrangian_dk <- [DW_OP_constu 16, DW_OP_minus, DW_OP_LLVM_fragment 64 64] [$rbp+0]
	#DEBUG_VALUE: lagrangian_dk <- [DW_OP_constu 32, DW_OP_minus, DW_OP_LLVM_fragment 0 64] [$rbp+0]
	#DEBUG_VALUE: lagrangian_dk <- [DW_OP_LLVM_fragment 128 64] $xmm8
	#DEBUG_VALUE: col <- 0
	#DEBUG_VALUE: run:col <- 0
	#DEBUG_VALUE: row <- 1
	#DEBUG_VALUE: run:row <- 1
	#DEBUG_VALUE: plane_point <- [DW_OP_LLVM_fragment 64 64] $xmm14
	#DEBUG_VALUE: plane_normal <- [DW_OP_LLVM_fragment 128 64] 0.000000e+00
	#DEBUG_VALUE: plane_normal <- [DW_OP_LLVM_fragment 64 64] 1.000000e+00
	#DEBUG_VALUE: plane_normal <- [DW_OP_LLVM_fragment 0 64] 0.000000e+00
	.loc	6 144 1 is_stmt 0       # /home/talgat/libs/eigen/Eigen/src/Core/products/CoeffBasedProduct.h:144:1
	vfmadd231sd	%xmm4, %xmm10, %xmm13 # xmm13 = (xmm10 * xmm4) + xmm13
.Ltmp243:
	#DEBUG_VALUE: res <- undef
	#DEBUG_VALUE: run:res <- undef
	#DEBUG_VALUE: rhs <- undef
	#DEBUG_VALUE: run:rhs <- undef
	#DEBUG_VALUE: lhs <- undef
	#DEBUG_VALUE: run:lhs <- undef
	#DEBUG_VALUE: col <- 0
	#DEBUG_VALUE: run:col <- 0
	#DEBUG_VALUE: row <- 1
	#DEBUG_VALUE: run:row <- 1
	.loc	6 144 1                 # /home/talgat/libs/eigen/Eigen/src/Core/products/CoeffBasedProduct.h:144:1
	vfmadd231sd	%xmm10, %xmm9, %xmm2 # xmm2 = (xmm9 * xmm10) + xmm2
	#DEBUG_VALUE: T <- $rsi
	#DEBUG_VALUE: run:T <- $rsi
	vmovsd	-48(%rbp), %xmm10       # 8-byte Reload
                                        # xmm10 = mem[0],zero
.Ltmp244:
	#DEBUG_VALUE: col <- 0
	#DEBUG_VALUE: run:col <- 0
	#DEBUG_VALUE: row <- 2
	#DEBUG_VALUE: run:row <- 2
	.loc	6 245 1 is_stmt 1       # /home/talgat/libs/eigen/Eigen/src/Core/products/CoeffBasedProduct.h:245:1
	vmulsd	%xmm7, %xmm10, %xmm7
.Ltmp245:
	#DEBUG_VALUE: plane_point <- [DW_OP_LLVM_fragment 128 64] 0.000000e+00
	#DEBUG_VALUE: plane_point <- [DW_OP_LLVM_fragment 0 64] 0.000000e+00
	#DEBUG_VALUE: lagrangian_dk <- [DW_OP_constu 16, DW_OP_minus, DW_OP_LLVM_fragment 64 64] [$rbp+0]
	#DEBUG_VALUE: lagrangian_dk <- [DW_OP_constu 32, DW_OP_minus, DW_OP_LLVM_fragment 0 64] [$rbp+0]
	#DEBUG_VALUE: lagrangian_dk <- [DW_OP_LLVM_fragment 128 64] $xmm8
	#DEBUG_VALUE: plane_point <- [DW_OP_LLVM_fragment 64 64] $xmm14
	#DEBUG_VALUE: plane_normal <- [DW_OP_LLVM_fragment 128 64] 0.000000e+00
	#DEBUG_VALUE: plane_normal <- [DW_OP_LLVM_fragment 64 64] 1.000000e+00
	#DEBUG_VALUE: plane_normal <- [DW_OP_LLVM_fragment 0 64] 0.000000e+00
	.loc	6 245 1 is_stmt 0       # /home/talgat/libs/eigen/Eigen/src/Core/products/CoeffBasedProduct.h:245:1
	vmulsd	%xmm10, %xmm3, %xmm3
.Ltmp246:
	#DEBUG_VALUE: T <- $rsi
	#DEBUG_VALUE: run:T <- $rsi
	.loc	6 246 1 is_stmt 1       # /home/talgat/libs/eigen/Eigen/src/Core/products/CoeffBasedProduct.h:246:1
	vfmadd231sd	%xmm4, %xmm5, %xmm7 # xmm7 = (xmm5 * xmm4) + xmm7
.Ltmp247:
	#DEBUG_VALUE: col <- 0
	#DEBUG_VALUE: run:col <- 0
	#DEBUG_VALUE: row <- 2
	#DEBUG_VALUE: run:row <- 2
	#DEBUG_VALUE: col <- 0
	#DEBUG_VALUE: run:col <- 0
	#DEBUG_VALUE: row <- 2
	#DEBUG_VALUE: run:row <- 2
	#DEBUG_VALUE: plane_point <- [DW_OP_LLVM_fragment 128 64] 0.000000e+00
	#DEBUG_VALUE: plane_point <- [DW_OP_LLVM_fragment 0 64] 0.000000e+00
	#DEBUG_VALUE: lagrangian_dk <- [DW_OP_constu 16, DW_OP_minus, DW_OP_LLVM_fragment 64 64] [$rbp+0]
	#DEBUG_VALUE: lagrangian_dk <- [DW_OP_constu 32, DW_OP_minus, DW_OP_LLVM_fragment 0 64] [$rbp+0]
	#DEBUG_VALUE: lagrangian_dk <- [DW_OP_LLVM_fragment 128 64] $xmm8
	#DEBUG_VALUE: plane_point <- [DW_OP_LLVM_fragment 64 64] $xmm14
	#DEBUG_VALUE: plane_normal <- [DW_OP_LLVM_fragment 128 64] 0.000000e+00
	#DEBUG_VALUE: plane_normal <- [DW_OP_LLVM_fragment 64 64] 1.000000e+00
	#DEBUG_VALUE: plane_normal <- [DW_OP_LLVM_fragment 0 64] 0.000000e+00
	.loc	6 246 1 is_stmt 0       # /home/talgat/libs/eigen/Eigen/src/Core/products/CoeffBasedProduct.h:246:1
	vaddsd	-24(%rbp), %xmm5, %xmm10 # 8-byte Folded Reload
.Ltmp248:
	.loc	6 246 1                 # /home/talgat/libs/eigen/Eigen/src/Core/products/CoeffBasedProduct.h:246:1
	vfmadd231sd	%xmm5, %xmm14, %xmm3 # xmm3 = (xmm14 * xmm5) + xmm3
	#DEBUG_VALUE: T <- $rsi
	#DEBUG_VALUE: run:T <- $rsi
	.loc	6 144 1 is_stmt 1       # /home/talgat/libs/eigen/Eigen/src/Core/products/CoeffBasedProduct.h:144:1
	vfmadd231sd	%xmm9, %xmm6, %xmm3 # xmm3 = (xmm6 * xmm9) + xmm3
.Ltmp249:
	.loc	6 144 1 is_stmt 0       # /home/talgat/libs/eigen/Eigen/src/Core/products/CoeffBasedProduct.h:144:1
	vfmadd231sd	%xmm4, %xmm6, %xmm7 # xmm7 = (xmm6 * xmm4) + xmm7
.Ltmp250:
	#DEBUG_VALUE: euclidian_dj <- [DW_OP_LLVM_fragment 128 64] 0.000000e+00
	#DEBUG_VALUE: euclidian_dj <- [DW_OP_LLVM_fragment 64 64] undef
	#DEBUG_VALUE: euclidian_dj <- [DW_OP_LLVM_fragment 0 64] 0.000000e+00
	#DEBUG_VALUE: lagrangian_di <- [DW_OP_LLVM_fragment 64 64] $xmm11
	#DEBUG_VALUE: lagrangian_di <- [DW_OP_LLVM_fragment 0 64] $xmm1
	#DEBUG_VALUE: lagrangian_di <- [DW_OP_LLVM_fragment 128 64] $xmm7
	#DEBUG_VALUE: col <- 0
	#DEBUG_VALUE: run:col <- 0
	#DEBUG_VALUE: row <- 2
	#DEBUG_VALUE: run:row <- 2
	#DEBUG_VALUE: plane_point <- [DW_OP_LLVM_fragment 128 64] 0.000000e+00
	#DEBUG_VALUE: plane_point <- [DW_OP_LLVM_fragment 0 64] 0.000000e+00
	#DEBUG_VALUE: lagrangian_dk <- [DW_OP_constu 16, DW_OP_minus, DW_OP_LLVM_fragment 64 64] [$rbp+0]
	#DEBUG_VALUE: lagrangian_dk <- [DW_OP_constu 32, DW_OP_minus, DW_OP_LLVM_fragment 0 64] [$rbp+0]
	#DEBUG_VALUE: lagrangian_dk <- [DW_OP_LLVM_fragment 128 64] $xmm8
	#DEBUG_VALUE: plane_point <- [DW_OP_LLVM_fragment 64 64] $xmm14
	#DEBUG_VALUE: plane_normal <- [DW_OP_LLVM_fragment 128 64] 0.000000e+00
	#DEBUG_VALUE: plane_normal <- [DW_OP_LLVM_fragment 64 64] 1.000000e+00
	#DEBUG_VALUE: plane_normal <- [DW_OP_LLVM_fragment 0 64] 0.000000e+00
	.loc	6 144 1                 # /home/talgat/libs/eigen/Eigen/src/Core/products/CoeffBasedProduct.h:144:1
	vfmadd231sd	%xmm4, %xmm6, %xmm10 # xmm10 = (xmm6 * xmm4) + xmm10
.Ltmp251:
	#DEBUG_VALUE: line_direction <- [DW_OP_LLVM_fragment 64 64] $xmm13
	#DEBUG_VALUE: line_direction <- [DW_OP_LLVM_fragment 0 64] $xmm15
	#DEBUG_VALUE: line_direction <- [DW_OP_LLVM_fragment 128 64] $xmm10
	#DEBUG_VALUE: col <- 0
	#DEBUG_VALUE: run:col <- 0
	#DEBUG_VALUE: row <- 2
	#DEBUG_VALUE: run:row <- 2
	.loc	4 144 1                 # /home/talgat/libs/eigen/Eigen/src/Core/Assign.h:144:1
	vaddsd	96(%rsi), %xmm0, %xmm5
.Ltmp252:
	#DEBUG_VALUE: rhs <- undef
	#DEBUG_VALUE: run:rhs <- undef
	#DEBUG_VALUE: lhs <- undef
	#DEBUG_VALUE: run:lhs <- undef
	#DEBUG_VALUE: col <- 0
	#DEBUG_VALUE: run:col <- 0
	#DEBUG_VALUE: row <- 1
	#DEBUG_VALUE: run:row <- 1
	#DEBUG_VALUE: src <- undef
	#DEBUG_VALUE: run:src <- undef
	#DEBUG_VALUE: dst <- undef
	#DEBUG_VALUE: run:dst <- undef
	#DEBUG_VALUE: T <- $rsi
	#DEBUG_VALUE: run:T <- $rsi
	.loc	4 144 1                 # /home/talgat/libs/eigen/Eigen/src/Core/Assign.h:144:1
	vaddsd	112(%rsi), %xmm3, %xmm3
.Ltmp253:
	#DEBUG_VALUE: mat <- undef
	#DEBUG_VALUE: run:mat <- undef
	#DEBUG_VALUE:  <- undef
	#DEBUG_VALUE: coeffByOuterInner: <- undef
	#DEBUG_VALUE:  <- undef
	#DEBUG_VALUE: coeffByOuterInner: <- undef
	#DEBUG_VALUE:  <- undef
	#DEBUG_VALUE: coeffByOuterInner: <- undef
	#DEBUG_VALUE: .._T27768184_34322.m_rhs <- undef
	#DEBUG_VALUE: .._T27768184_34322.m_lhs <- undef
	#DEBUG_VALUE: p_normal <- undef
	#DEBUG_VALUE: line_plane_intersection:p_normal <- undef
	#DEBUG_VALUE: p_point <- undef
	#DEBUG_VALUE: line_plane_intersection:p_point <- undef
	#DEBUG_VALUE: l_direction <- undef
	#DEBUG_VALUE: line_plane_intersection:l_direction <- undef
	#DEBUG_VALUE: l_point <- undef
	#DEBUG_VALUE: line_plane_intersection:l_point <- undef
	#DEBUG_VALUE: line_point <- [DW_OP_LLVM_fragment 128 64] $xmm3
	#DEBUG_VALUE: line_point <- [DW_OP_LLVM_fragment 0 64] $xmm5
	.loc	3 103 1 is_stmt 1       # /home/talgat/libs/eigen/Eigen/src/Core/Redux.h:103:1
	vmulsd	%xmm4, %xmm10, %xmm0
.Ltmp254:
	#DEBUG_VALUE: line_direction <- [DW_OP_LLVM_fragment 64 64] $xmm13
	#DEBUG_VALUE: line_direction <- [DW_OP_LLVM_fragment 0 64] $xmm15
	#DEBUG_VALUE: line_direction <- [DW_OP_LLVM_fragment 128 64] $xmm10
	#DEBUG_VALUE: euclidian_dj <- [DW_OP_LLVM_fragment 128 64] 0.000000e+00
	#DEBUG_VALUE: euclidian_dj <- [DW_OP_LLVM_fragment 0 64] 0.000000e+00
	#DEBUG_VALUE: lagrangian_di <- [DW_OP_LLVM_fragment 64 64] $xmm11
	#DEBUG_VALUE: lagrangian_di <- [DW_OP_LLVM_fragment 0 64] $xmm1
	#DEBUG_VALUE: lagrangian_di <- [DW_OP_LLVM_fragment 128 64] $xmm7
	#DEBUG_VALUE: plane_point <- [DW_OP_LLVM_fragment 128 64] 0.000000e+00
	#DEBUG_VALUE: plane_point <- [DW_OP_LLVM_fragment 0 64] 0.000000e+00
	#DEBUG_VALUE: lagrangian_dk <- [DW_OP_constu 16, DW_OP_minus, DW_OP_LLVM_fragment 64 64] [$rbp+0]
	#DEBUG_VALUE: lagrangian_dk <- [DW_OP_constu 32, DW_OP_minus, DW_OP_LLVM_fragment 0 64] [$rbp+0]
	#DEBUG_VALUE: lagrangian_dk <- [DW_OP_LLVM_fragment 128 64] $xmm8
	#DEBUG_VALUE: plane_point <- [DW_OP_LLVM_fragment 64 64] $xmm14
	#DEBUG_VALUE: plane_normal <- [DW_OP_LLVM_fragment 128 64] 0.000000e+00
	#DEBUG_VALUE: plane_normal <- [DW_OP_LLVM_fragment 64 64] 1.000000e+00
	#DEBUG_VALUE: plane_normal <- [DW_OP_LLVM_fragment 0 64] 0.000000e+00
	.loc	1 73 1                  # vlasovsolver/cpu_acc_intersections.cpp:73:1
	vaddsd	%xmm0, %xmm13, %xmm0
.Ltmp255:
	.loc	3 103 1                 # /home/talgat/libs/eigen/Eigen/src/Core/Redux.h:103:1
	vmulsd	%xmm4, %xmm15, %xmm6
.Ltmp256:
	#DEBUG_VALUE: mat <- undef
	#DEBUG_VALUE: run:mat <- undef
	#DEBUG_VALUE: mat <- undef
	#DEBUG_VALUE: run:mat <- undef
	.loc	1 73 1                  # vlasovsolver/cpu_acc_intersections.cpp:73:1
	vaddsd	%xmm0, %xmm6, %xmm0
.Ltmp257:
	#DEBUG_VALUE: src <- undef
	#DEBUG_VALUE: run:src <- undef
	#DEBUG_VALUE: dst <- undef
	#DEBUG_VALUE: run:dst <- undef
	#DEBUG_VALUE: other <- undef
	#DEBUG_VALUE: Matrix:other <- undef
	#DEBUG_VALUE:  <- undef
	#DEBUG_VALUE: Matrix: <- undef
	#DEBUG_VALUE: intersect_0_0_0 <- [DW_OP_LLVM_fragment 128 64] undef
	#DEBUG_VALUE: intersect_0_0_0 <- [DW_OP_LLVM_fragment 64 64] undef
	#DEBUG_VALUE: src <- undef
	#DEBUG_VALUE: run:src <- undef
	#DEBUG_VALUE: dst <- undef
	#DEBUG_VALUE: run:dst <- undef
	#DEBUG_VALUE: other <- undef
	#DEBUG_VALUE: lazyAssign:other <- undef
	#DEBUG_VALUE:  <- undef
	#DEBUG_VALUE: lazyAssign: <- undef
	#DEBUG_VALUE: other <- undef
	#DEBUG_VALUE: Matrix:other <- undef
	#DEBUG_VALUE:  <- undef
	#DEBUG_VALUE: Matrix: <- undef
	.loc	4 495 1                 # /home/talgat/libs/eigen/Eigen/src/Core/Assign.h:495:1
	vaddsd	%xmm5, %xmm1, %xmm1
.Ltmp258:
	.loc	4 181 1                 # /home/talgat/libs/eigen/Eigen/src/Core/Assign.h:181:1
	vaddsd	%xmm3, %xmm7, %xmm6
.Ltmp259:
	#DEBUG_VALUE: inner <- 0
	#DEBUG_VALUE: coeffByOuterInner:inner <- 0
	#DEBUG_VALUE: outer <- 0
	#DEBUG_VALUE: coeffByOuterInner:outer <- 0
	#DEBUG_VALUE:  <- undef
	#DEBUG_VALUE: coeffByOuterInner: <- undef
	#DEBUG_VALUE: .._T27768184_34322.m_rhs <- undef
	#DEBUG_VALUE: .._T27768184_34322.m_lhs <- undef
	#DEBUG_VALUE: p_normal <- undef
	#DEBUG_VALUE: line_plane_intersection:p_normal <- undef
	#DEBUG_VALUE: p_point <- undef
	#DEBUG_VALUE: line_plane_intersection:p_point <- undef
	#DEBUG_VALUE: l_direction <- undef
	#DEBUG_VALUE: line_plane_intersection:l_direction <- undef
	#DEBUG_VALUE: l_point <- undef
	#DEBUG_VALUE: line_plane_intersection:l_point <- undef
	.loc	2 98 1                  # /home/talgat/libs/eigen/Eigen/src/Core/DenseCoeffsBase.h:98:1
	vsubsd	%xmm1, %xmm4, %xmm7
.Ltmp260:
	vmulsd	%xmm4, %xmm7, %xmm7
.Ltmp261:
	#DEBUG_VALUE:  <- undef
	#DEBUG_VALUE: coeffByOuterInner: <- undef
	.loc	2 98 1 is_stmt 0        # /home/talgat/libs/eigen/Eigen/src/Core/DenseCoeffsBase.h:98:1
	vsubsd	%xmm6, %xmm4, %xmm6
	vmulsd	%xmm4, %xmm6, %xmm4
.Ltmp262:
	.loc	4 505 1 is_stmt 1       # /home/talgat/libs/eigen/Eigen/src/Core/Assign.h:505:1
	vaddsd	104(%rsi), %xmm2, %xmm2
.Ltmp263:
	#DEBUG_VALUE: rhs <- undef
	#DEBUG_VALUE: run:rhs <- undef
	#DEBUG_VALUE: lhs <- undef
	#DEBUG_VALUE: run:lhs <- undef
	#DEBUG_VALUE: col <- 0
	#DEBUG_VALUE: run:col <- 0
	#DEBUG_VALUE: row <- 2
	#DEBUG_VALUE: run:row <- 2
	#DEBUG_VALUE: line_point <- [DW_OP_LLVM_fragment 64 64] $xmm2
	#DEBUG_VALUE: T <- $rsi
	#DEBUG_VALUE: run:T <- $rsi
	.loc	4 180 1                 # /home/talgat/libs/eigen/Eigen/src/Core/Assign.h:180:1
	vaddsd	%xmm2, %xmm11, %xmm6
.Ltmp264:
	#DEBUG_VALUE: inner <- 1
	#DEBUG_VALUE: coeffByOuterInner:inner <- 1
	#DEBUG_VALUE: outer <- 0
	#DEBUG_VALUE: coeffByOuterInner:outer <- 0
	#DEBUG_VALUE: line_direction <- [DW_OP_LLVM_fragment 0 64] $xmm15
	#DEBUG_VALUE: euclidian_dj <- [DW_OP_LLVM_fragment 128 64] 0.000000e+00
	#DEBUG_VALUE: euclidian_dj <- [DW_OP_LLVM_fragment 0 64] 0.000000e+00
	#DEBUG_VALUE: lagrangian_di <- [DW_OP_LLVM_fragment 64 64] $xmm11
	#DEBUG_VALUE: plane_point <- [DW_OP_LLVM_fragment 128 64] 0.000000e+00
	#DEBUG_VALUE: plane_point <- [DW_OP_LLVM_fragment 0 64] 0.000000e+00
	#DEBUG_VALUE: line_point <- [DW_OP_LLVM_fragment 128 64] $xmm3
	#DEBUG_VALUE: line_point <- [DW_OP_LLVM_fragment 0 64] $xmm5
	#DEBUG_VALUE: lagrangian_dk <- [DW_OP_constu 16, DW_OP_minus, DW_OP_LLVM_fragment 64 64] [$rbp+0]
	#DEBUG_VALUE: lagrangian_dk <- [DW_OP_constu 32, DW_OP_minus, DW_OP_LLVM_fragment 0 64] [$rbp+0]
	#DEBUG_VALUE: lagrangian_dk <- [DW_OP_LLVM_fragment 128 64] $xmm8
	#DEBUG_VALUE: plane_point <- [DW_OP_LLVM_fragment 64 64] $xmm14
	#DEBUG_VALUE: plane_normal <- [DW_OP_LLVM_fragment 128 64] 0.000000e+00
	#DEBUG_VALUE: plane_normal <- [DW_OP_LLVM_fragment 64 64] 1.000000e+00
	#DEBUG_VALUE: plane_normal <- [DW_OP_LLVM_fragment 0 64] 0.000000e+00
	.loc	2 98 1                  # /home/talgat/libs/eigen/Eigen/src/Core/DenseCoeffsBase.h:98:1
	vsubsd	%xmm6, %xmm14, %xmm6
.Ltmp265:
	#DEBUG_VALUE: inner <- 2
	#DEBUG_VALUE: coeffByOuterInner:inner <- 2
	#DEBUG_VALUE: outer <- 0
	#DEBUG_VALUE: coeffByOuterInner:outer <- 0
	#DEBUG_VALUE:  <- undef
	#DEBUG_VALUE: coeffByOuterInner: <- undef
	.loc	1 73 1                  # vlasovsolver/cpu_acc_intersections.cpp:73:1
	vaddsd	%xmm4, %xmm6, %xmm4
	vaddsd	%xmm4, %xmm7, %xmm4
.Ltmp266:
	#DEBUG_VALUE: mat <- undef
	#DEBUG_VALUE: run:mat <- undef
	#DEBUG_VALUE: mat <- undef
	#DEBUG_VALUE: run:mat <- undef
	#DEBUG_VALUE: mat <- undef
	#DEBUG_VALUE: run:mat <- undef
	#DEBUG_VALUE: nom <- $xmm4
	.loc	1 53 1                  # vlasovsolver/cpu_acc_intersections.cpp:53:1
	vdivsd	%xmm0, %xmm4, %xmm4
.Ltmp267:
	#DEBUG_VALUE: other <- undef
	#DEBUG_VALUE: lazyAssign:other <- undef
	#DEBUG_VALUE:  <- undef
	#DEBUG_VALUE: lazyAssign: <- undef
	#DEBUG_VALUE: other <- undef
	#DEBUG_VALUE: Matrix:other <- undef
	#DEBUG_VALUE:  <- undef
	#DEBUG_VALUE: Matrix: <- undef
	.loc	4 313 1                 # /home/talgat/libs/eigen/Eigen/src/Core/Assign.h:313:1
	vmulsd	%xmm4, %xmm15, %xmm4
	vaddsd	%xmm4, %xmm1, %xmm1
.Ltmp268:
	#DEBUG_VALUE: src <- undef
	#DEBUG_VALUE: run:src <- undef
	#DEBUG_VALUE: dst <- undef
	#DEBUG_VALUE: run:dst <- undef
	#DEBUG_VALUE: other <- undef
	#DEBUG_VALUE: Matrix:other <- undef
	#DEBUG_VALUE:  <- undef
	#DEBUG_VALUE: Matrix: <- undef
	#DEBUG_VALUE: intersect_1_0_0 <- [DW_OP_LLVM_fragment 128 64] undef
	#DEBUG_VALUE: intersect_1_0_0 <- [DW_OP_LLVM_fragment 64 64] undef
	#DEBUG_VALUE: src <- undef
	#DEBUG_VALUE: run:src <- undef
	#DEBUG_VALUE: dst <- undef
	#DEBUG_VALUE: run:dst <- undef
	#DEBUG_VALUE: intersect_1_0_0 <- [DW_OP_LLVM_fragment 0 64] $xmm1
	.loc	4 181 1                 # /home/talgat/libs/eigen/Eigen/src/Core/Assign.h:181:1
	vaddsd	%xmm3, %xmm8, %xmm4
.Ltmp269:
	#DEBUG_VALUE: inner <- 2
	#DEBUG_VALUE: coeffByOuterInner:inner <- 2
	#DEBUG_VALUE: outer <- 0
	#DEBUG_VALUE: coeffByOuterInner:outer <- 0
	.loc	2 98 1                  # /home/talgat/libs/eigen/Eigen/src/Core/DenseCoeffsBase.h:98:1
	vunpcklpd	%xmm4, %xmm3, %xmm3 # xmm3 = xmm3[0],xmm4[0]
.Ltmp270:
	vxorpd	%xmm4, %xmm4, %xmm4
	vsubpd	%xmm3, %xmm4, %xmm3
	vmulpd	%xmm4, %xmm3, %xmm3
.Ltmp271:
	.loc	4 495 1                 # /home/talgat/libs/eigen/Eigen/src/Core/Assign.h:495:1
	vaddsd	-32(%rbp), %xmm5, %xmm6 # 8-byte Folded Reload
.Ltmp272:
	#DEBUG_VALUE: inner <- 0
	#DEBUG_VALUE: coeffByOuterInner:inner <- 0
	#DEBUG_VALUE: outer <- 0
	#DEBUG_VALUE: coeffByOuterInner:outer <- 0
	.loc	2 98 1                  # /home/talgat/libs/eigen/Eigen/src/Core/DenseCoeffsBase.h:98:1
	vunpcklpd	%xmm6, %xmm5, %xmm6 # xmm6 = xmm5[0],xmm6[0]
	vsubpd	%xmm6, %xmm4, %xmm7
	vmulpd	%xmm4, %xmm7, %xmm4
.Ltmp273:
	.loc	4 180 1                 # /home/talgat/libs/eigen/Eigen/src/Core/Assign.h:180:1
	vaddsd	-8(%rbp), %xmm14, %xmm7 # 8-byte Folded Reload
.Ltmp274:
	#DEBUG_VALUE: inner <- 1
	#DEBUG_VALUE: coeffByOuterInner:inner <- 1
	#DEBUG_VALUE: outer <- 0
	#DEBUG_VALUE: coeffByOuterInner:outer <- 0
	#DEBUG_VALUE:  <- undef
	#DEBUG_VALUE: coeffByOuterInner: <- undef
	#DEBUG_VALUE: inner <- 0
	#DEBUG_VALUE: coeffByOuterInner:inner <- 0
	#DEBUG_VALUE: outer <- 0
	#DEBUG_VALUE: coeffByOuterInner:outer <- 0
	#DEBUG_VALUE:  <- undef
	#DEBUG_VALUE: coeffByOuterInner: <- undef
	#DEBUG_VALUE: .._T27768184_34322.m_rhs <- undef
	#DEBUG_VALUE: .._T27768184_34322.m_lhs <- undef
	#DEBUG_VALUE: p_normal <- undef
	#DEBUG_VALUE: line_plane_intersection:p_normal <- undef
	#DEBUG_VALUE: p_point <- undef
	#DEBUG_VALUE: line_plane_intersection:p_point <- undef
	#DEBUG_VALUE: l_direction <- undef
	#DEBUG_VALUE: line_plane_intersection:l_direction <- undef
	#DEBUG_VALUE: l_point <- undef
	#DEBUG_VALUE: line_plane_intersection:l_point <- undef
	.loc	2 98 1                  # /home/talgat/libs/eigen/Eigen/src/Core/DenseCoeffsBase.h:98:1
	vsubsd	%xmm2, %xmm7, %xmm7
.Ltmp275:
	#DEBUG_VALUE: inner <- 2
	#DEBUG_VALUE: coeffByOuterInner:inner <- 2
	#DEBUG_VALUE: outer <- 0
	#DEBUG_VALUE: coeffByOuterInner:outer <- 0
	#DEBUG_VALUE:  <- undef
	#DEBUG_VALUE: coeffByOuterInner: <- undef
	.loc	1 73 1                  # vlasovsolver/cpu_acc_intersections.cpp:73:1
	vaddsd	%xmm3, %xmm7, %xmm7
	vaddsd	%xmm7, %xmm4, %xmm7
.Ltmp276:
	#DEBUG_VALUE: mat <- undef
	#DEBUG_VALUE: run:mat <- undef
	#DEBUG_VALUE: mat <- undef
	#DEBUG_VALUE: run:mat <- undef
	#DEBUG_VALUE: mat <- undef
	#DEBUG_VALUE: run:mat <- undef
	#DEBUG_VALUE: nom <- $xmm7
	.loc	1 53 1                  # vlasovsolver/cpu_acc_intersections.cpp:53:1
	vdivsd	%xmm0, %xmm7, %xmm7
.Ltmp277:
	#DEBUG_VALUE: other <- undef
	#DEBUG_VALUE: lazyAssign:other <- undef
	#DEBUG_VALUE:  <- undef
	#DEBUG_VALUE: lazyAssign: <- undef
	#DEBUG_VALUE: other <- undef
	#DEBUG_VALUE: Matrix:other <- undef
	#DEBUG_VALUE:  <- undef
	#DEBUG_VALUE: Matrix: <- undef
	.loc	4 313 1                 # /home/talgat/libs/eigen/Eigen/src/Core/Assign.h:313:1
	vmulsd	%xmm7, %xmm15, %xmm7
	vaddsd	%xmm7, %xmm5, %xmm5
.Ltmp278:
	#DEBUG_VALUE: src <- undef
	#DEBUG_VALUE: run:src <- undef
	#DEBUG_VALUE: dst <- undef
	#DEBUG_VALUE: run:dst <- undef
	#DEBUG_VALUE: other <- undef
	#DEBUG_VALUE: Matrix:other <- undef
	#DEBUG_VALUE:  <- undef
	#DEBUG_VALUE: Matrix: <- undef
	#DEBUG_VALUE: intersect_0_1_0 <- [DW_OP_LLVM_fragment 128 64] undef
	#DEBUG_VALUE: intersect_0_1_0 <- [DW_OP_LLVM_fragment 64 64] undef
	#DEBUG_VALUE: src <- undef
	#DEBUG_VALUE: run:src <- undef
	#DEBUG_VALUE: dst <- undef
	#DEBUG_VALUE: run:dst <- undef
	#DEBUG_VALUE: intersect_0_1_0 <- [DW_OP_LLVM_fragment 0 64] $xmm5
	.loc	4 180 1                 # /home/talgat/libs/eigen/Eigen/src/Core/Assign.h:180:1
	vaddsd	-16(%rbp), %xmm2, %xmm7 # 8-byte Folded Reload
.Ltmp279:
	#DEBUG_VALUE: inner <- 1
	#DEBUG_VALUE: coeffByOuterInner:inner <- 1
	#DEBUG_VALUE: outer <- 0
	#DEBUG_VALUE: coeffByOuterInner:outer <- 0
	#DEBUG_VALUE:  <- undef
	#DEBUG_VALUE: coeffByOuterInner: <- undef
	#DEBUG_VALUE: inner <- 0
	#DEBUG_VALUE: coeffByOuterInner:inner <- 0
	#DEBUG_VALUE: outer <- 0
	#DEBUG_VALUE: coeffByOuterInner:outer <- 0
	#DEBUG_VALUE:  <- undef
	#DEBUG_VALUE: coeffByOuterInner: <- undef
	#DEBUG_VALUE: .._T27768184_34322.m_rhs <- undef
	#DEBUG_VALUE: .._T27768184_34322.m_lhs <- undef
	#DEBUG_VALUE: p_normal <- undef
	#DEBUG_VALUE: line_plane_intersection:p_normal <- undef
	#DEBUG_VALUE: p_point <- undef
	#DEBUG_VALUE: line_plane_intersection:p_point <- undef
	#DEBUG_VALUE: l_direction <- undef
	#DEBUG_VALUE: line_plane_intersection:l_direction <- undef
	#DEBUG_VALUE: l_point <- undef
	#DEBUG_VALUE: line_plane_intersection:l_point <- undef
	#DEBUG_VALUE: inner <- 1
	#DEBUG_VALUE: coeffByOuterInner:inner <- 1
	#DEBUG_VALUE: outer <- 0
	#DEBUG_VALUE: coeffByOuterInner:outer <- 0
	.loc	2 98 1                  # /home/talgat/libs/eigen/Eigen/src/Core/DenseCoeffsBase.h:98:1
	vunpcklpd	%xmm7, %xmm2, %xmm2 # xmm2 = xmm2[0],xmm7[0]
.Ltmp280:
	vmovddup	%xmm14, %xmm7   # xmm7 = xmm14[0,0]
	vsubpd	%xmm2, %xmm7, %xmm2
.Ltmp281:
	#DEBUG_VALUE: inner <- 2
	#DEBUG_VALUE: coeffByOuterInner:inner <- 2
	#DEBUG_VALUE: outer <- 0
	#DEBUG_VALUE: coeffByOuterInner:outer <- 0
	#DEBUG_VALUE:  <- undef
	#DEBUG_VALUE: coeffByOuterInner: <- undef
	.loc	1 73 1                  # vlasovsolver/cpu_acc_intersections.cpp:73:1
	vaddpd	%xmm3, %xmm2, %xmm2
	vaddpd	%xmm2, %xmm4, %xmm2
.Ltmp282:
	#DEBUG_VALUE: mat <- undef
	#DEBUG_VALUE: run:mat <- undef
	#DEBUG_VALUE: mat <- undef
	#DEBUG_VALUE: run:mat <- undef
	#DEBUG_VALUE: mat <- undef
	#DEBUG_VALUE: run:mat <- undef
	.loc	1 53 1                  # vlasovsolver/cpu_acc_intersections.cpp:53:1
	vmovddup	%xmm0, %xmm0    # xmm0 = xmm0[0,0]
	vdivpd	%xmm0, %xmm2, %xmm0
.Ltmp283:
	#DEBUG_VALUE: other <- undef
	#DEBUG_VALUE: lazyAssign:other <- undef
	#DEBUG_VALUE:  <- undef
	#DEBUG_VALUE: lazyAssign: <- undef
	#DEBUG_VALUE: other <- undef
	#DEBUG_VALUE: Matrix:other <- undef
	#DEBUG_VALUE:  <- undef
	#DEBUG_VALUE: Matrix: <- undef
	.loc	4 313 1                 # /home/talgat/libs/eigen/Eigen/src/Core/Assign.h:313:1
	vmovddup	%xmm15, %xmm2   # xmm2 = xmm15[0,0]
	vmulpd	%xmm0, %xmm2, %xmm0
	vaddpd	%xmm0, %xmm6, %xmm0
.Ltmp284:
	#DEBUG_VALUE: intersect_0_0_1 <- [DW_OP_LLVM_fragment 128 64] undef
	#DEBUG_VALUE: intersect_0_0_1 <- [DW_OP_LLVM_fragment 64 64] undef
	#DEBUG_VALUE: src <- undef
	#DEBUG_VALUE: run:src <- undef
	#DEBUG_VALUE: dst <- undef
	#DEBUG_VALUE: run:dst <- undef
	.loc	1 380 1                 # vlasovsolver/cpu_acc_intersections.cpp:380:1
	vmovlpd	%xmm0, (%r9)
	vsubsd	%xmm0, %xmm1, %xmm1
.Ltmp285:
	vmovsd	%xmm1, (%rax)
	vsubsd	%xmm0, %xmm5, %xmm1
	jmp	.LBB2_7
.Ltmp286:
.LBB2_5:                                # %L.B2832
	#DEBUG_VALUE: compute_intersections_2nd:intersection_di <- [DW_OP_plus_uconst 16] [$rbp+0]
	#DEBUG_VALUE: intersection_di <- [DW_OP_plus_uconst 16] [$rbp+0]
	#DEBUG_VALUE: compute_intersections_2nd:intersection_dj <- [DW_OP_plus_uconst 24] [$rbp+0]
	#DEBUG_VALUE: intersection_dj <- [DW_OP_plus_uconst 24] [$rbp+0]
	#DEBUG_VALUE: compute_intersections_2nd:intersection_dk <- [DW_OP_plus_uconst 32] [$rbp+0]
	#DEBUG_VALUE: intersection_dk <- [DW_OP_plus_uconst 32] [$rbp+0]
	#DEBUG_VALUE: intersection <- $r9
	#DEBUG_VALUE: refLevel <- $r8
	#DEBUG_VALUE: dimension <- $ecx
	#DEBUG_VALUE: fwd_transform <- $rdx
	#DEBUG_VALUE: bwd_transform <- $rsi
	#DEBUG_VALUE: vmesh <- $rdi
	#DEBUG_VALUE: compute_intersections_2nd:intersection <- $r9
	#DEBUG_VALUE: compute_intersections_2nd:refLevel <- $r8
	#DEBUG_VALUE: compute_intersections_2nd:dimension <- $ecx
	#DEBUG_VALUE: compute_intersections_2nd:fwd_transform <- $rdx
	#DEBUG_VALUE: compute_intersections_2nd:bwd_transform <- $rsi
	#DEBUG_VALUE: compute_intersections_2nd:vmesh <- $rdi
	#DEBUG_VALUE: plane_normal <- [DW_OP_LLVM_fragment 0 64] 1.000000e+00
	#DEBUG_VALUE: plane_normal <- [DW_OP_LLVM_fragment 64 64] 0.000000e+00
	#DEBUG_VALUE: plane_normal <- [DW_OP_LLVM_fragment 128 64] 0.000000e+00
	.loc	1 287 1                 # vlasovsolver/cpu_acc_intersections.cpp:287:1
	imulq	$336, (%rdi), %rcx      # imm = 0x150
.Ltmp287:
	movq	_ZN5vmesh12VelocityMeshIjjE14meshParametersE(%rip), %rdx
.Ltmp288:
	vmovsd	192(%rdx,%rcx), %xmm0   # xmm0 = mem[0],zero
	vmovsd	%xmm0, -16(%rbp)        # 8-byte Spill
	vmovsd	.LCPI2_0(%rip), %xmm7   # xmm7 = mem[0],zero
	vmovsd	120(%rdx,%rcx), %xmm12  # xmm12 = mem[0],zero
	vfmadd231sd	%xmm7, %xmm0, %xmm12 # xmm12 = (xmm0 * xmm7) + xmm12
.Ltmp289:
	#DEBUG_VALUE: euclidian_di <- [DW_OP_LLVM_fragment 128 64] 0.000000e+00
	#DEBUG_VALUE: euclidian_di <- [DW_OP_LLVM_fragment 64 64] 0.000000e+00
	#DEBUG_VALUE: euclidian_di <- [DW_OP_LLVM_fragment 0 64] undef
	#DEBUG_VALUE: plane_point <- [DW_OP_LLVM_fragment 128 64] 0.000000e+00
	#DEBUG_VALUE: plane_point <- [DW_OP_LLVM_fragment 64 64] 0.000000e+00
	#DEBUG_VALUE: plane_point <- [DW_OP_LLVM_fragment 0 64] $xmm12
	.loc	1 269 1                 # vlasovsolver/cpu_acc_intersections.cpp:269:1
	vmovsd	200(%rdx,%rcx), %xmm4   # xmm4 = mem[0],zero
.Ltmp290:
	#DEBUG_VALUE: res <- undef
	#DEBUG_VALUE: run:res <- undef
	#DEBUG_VALUE: rhs <- undef
	#DEBUG_VALUE: run:rhs <- undef
	#DEBUG_VALUE: lhs <- undef
	#DEBUG_VALUE: run:lhs <- undef
	#DEBUG_VALUE: col <- 0
	#DEBUG_VALUE: run:col <- 0
	#DEBUG_VALUE: row <- 0
	#DEBUG_VALUE: run:row <- 0
	#DEBUG_VALUE: src <- undef
	#DEBUG_VALUE: run:src <- undef
	#DEBUG_VALUE: dst <- undef
	#DEBUG_VALUE: run:dst <- undef
	#DEBUG_VALUE: other <- undef
	#DEBUG_VALUE: lazyAssign:other <- undef
	#DEBUG_VALUE:  <- undef
	#DEBUG_VALUE: lazyAssign: <- undef
	.loc	6 245 1                 # /home/talgat/libs/eigen/Eigen/src/Core/products/CoeffBasedProduct.h:245:1
	vmovsd	(%rsi), %xmm11          # xmm11 = mem[0],zero
.Ltmp291:
	#DEBUG_VALUE: res <- undef
	#DEBUG_VALUE: run:res <- undef
	#DEBUG_VALUE: rhs <- undef
	#DEBUG_VALUE: run:rhs <- undef
	#DEBUG_VALUE: lhs <- undef
	#DEBUG_VALUE: run:lhs <- undef
	#DEBUG_VALUE: col <- 0
	#DEBUG_VALUE: run:col <- 0
	#DEBUG_VALUE: row <- 1
	#DEBUG_VALUE: run:row <- 1
	.loc	6 245 1 is_stmt 0       # /home/talgat/libs/eigen/Eigen/src/Core/products/CoeffBasedProduct.h:245:1
	vmovsd	8(%rsi), %xmm3          # xmm3 = mem[0],zero
	vxorpd	%xmm8, %xmm8, %xmm8
.Ltmp292:
	.loc	6 245 1                 # /home/talgat/libs/eigen/Eigen/src/Core/products/CoeffBasedProduct.h:245:1
	vmulsd	%xmm8, %xmm11, %xmm0
	#DEBUG_VALUE: col <- 0
	#DEBUG_VALUE: run:col <- 0
	#DEBUG_VALUE: row <- 0
	#DEBUG_VALUE: run:row <- 0
	.loc	6 246 1 is_stmt 1       # /home/talgat/libs/eigen/Eigen/src/Core/products/CoeffBasedProduct.h:246:1
	vmovsd	32(%rsi), %xmm5         # xmm5 = mem[0],zero
	vmovapd	%xmm5, %xmm1
	vfmadd213sd	%xmm0, %xmm4, %xmm1 # xmm1 = (xmm4 * xmm1) + xmm0
	vmovsd	%xmm1, -8(%rbp)         # 8-byte Spill
.Ltmp293:
	.loc	6 245 1                 # /home/talgat/libs/eigen/Eigen/src/Core/products/CoeffBasedProduct.h:245:1
	vmulsd	%xmm8, %xmm3, %xmm9
	#DEBUG_VALUE: col <- 0
	#DEBUG_VALUE: run:col <- 0
	#DEBUG_VALUE: row <- 1
	#DEBUG_VALUE: run:row <- 1
	.loc	6 246 1                 # /home/talgat/libs/eigen/Eigen/src/Core/products/CoeffBasedProduct.h:246:1
	vmovsd	40(%rsi), %xmm6         # xmm6 = mem[0],zero
	vmovapd	%xmm6, %xmm1
	vfmadd213sd	%xmm9, %xmm4, %xmm1 # xmm1 = (xmm4 * xmm1) + xmm9
	vmovsd	%xmm1, -32(%rbp)        # 8-byte Spill
.Ltmp294:
	.loc	6 245 1                 # /home/talgat/libs/eigen/Eigen/src/Core/products/CoeffBasedProduct.h:245:1
	vmovsd	16(%rsi), %xmm10        # xmm10 = mem[0],zero
	vmulsd	%xmm8, %xmm10, %xmm15
	.loc	6 246 1                 # /home/talgat/libs/eigen/Eigen/src/Core/products/CoeffBasedProduct.h:246:1
	vmovsd	48(%rsi), %xmm14        # xmm14 = mem[0],zero
	vmovapd	%xmm14, %xmm13
	vfmadd213sd	%xmm15, %xmm4, %xmm13 # xmm13 = (xmm4 * xmm13) + xmm15
.Ltmp295:
	.loc	1 407 1                 # vlasovsolver/cpu_acc_intersections.cpp:407:1
	vfmadd213sd	128(%rdx,%rcx), %xmm4, %xmm7 # xmm7 = (xmm4 * xmm7) + mem
.Ltmp296:
	#DEBUG_VALUE: rhs <- undef
	#DEBUG_VALUE: run:rhs <- undef
	#DEBUG_VALUE: lhs <- undef
	#DEBUG_VALUE: run:lhs <- undef
	#DEBUG_VALUE: src <- undef
	#DEBUG_VALUE: run:src <- undef
	#DEBUG_VALUE: dst <- undef
	#DEBUG_VALUE: run:dst <- undef
	#DEBUG_VALUE: other <- undef
	#DEBUG_VALUE: operator+=:other <- undef
	#DEBUG_VALUE:  <- undef
	#DEBUG_VALUE: operator+=: <- undef
	#DEBUG_VALUE: line_point <- [DW_OP_LLVM_fragment 128 64] undef
	#DEBUG_VALUE: src <- undef
	#DEBUG_VALUE: run:src <- undef
	#DEBUG_VALUE: dst <- undef
	#DEBUG_VALUE: run:dst <- undef
	#DEBUG_VALUE: line_point <- [DW_OP_LLVM_fragment 64 64] undef
	#DEBUG_VALUE: src <- undef
	#DEBUG_VALUE: run:src <- undef
	#DEBUG_VALUE: dst <- undef
	#DEBUG_VALUE: run:dst <- undef
	#DEBUG_VALUE: line_point <- [DW_OP_LLVM_fragment 0 64] undef
	#DEBUG_VALUE: src <- undef
	#DEBUG_VALUE: run:src <- undef
	#DEBUG_VALUE: dst <- undef
	#DEBUG_VALUE: run:dst <- undef
	#DEBUG_VALUE: other <- undef
	#DEBUG_VALUE: lazyAssign:other <- undef
	#DEBUG_VALUE:  <- undef
	#DEBUG_VALUE: lazyAssign: <- undef
	#DEBUG_VALUE: a_startCol <- 3
	#DEBUG_VALUE: BlockImpl:a_startCol <- 3
	#DEBUG_VALUE: a_startRow <- 0
	#DEBUG_VALUE: BlockImpl:a_startRow <- 0
	#DEBUG_VALUE: xpr <- $rsi
	#DEBUG_VALUE: BlockImpl:xpr <- $rsi
	#DEBUG_VALUE:  <- undef
	#DEBUG_VALUE: BlockImpl: <- undef
	#DEBUG_VALUE: other <- undef
	#DEBUG_VALUE: run:other <- undef
	.loc	6 246 1                 # /home/talgat/libs/eigen/Eigen/src/Core/products/CoeffBasedProduct.h:246:1
	vfmadd231sd	%xmm8, %xmm5, %xmm0 # xmm0 = (xmm5 * xmm8) + xmm0
.Ltmp297:
	.loc	6 246 1 is_stmt 0       # /home/talgat/libs/eigen/Eigen/src/Core/products/CoeffBasedProduct.h:246:1
	vxorpd	%xmm2, %xmm2, %xmm2
	vfmadd213sd	%xmm11, %xmm5, %xmm2 # xmm2 = (xmm5 * xmm2) + xmm11
.Ltmp298:
	#DEBUG_VALUE: col <- 0
	#DEBUG_VALUE: run:col <- 0
	#DEBUG_VALUE: row <- 0
	#DEBUG_VALUE: run:row <- 0
	#DEBUG_VALUE: T <- $rsi
	#DEBUG_VALUE: run:T <- $rsi
	.loc	6 245 1 is_stmt 1       # /home/talgat/libs/eigen/Eigen/src/Core/products/CoeffBasedProduct.h:245:1
	vmulsd	%xmm11, %xmm12, %xmm11
	.loc	6 246 1                 # /home/talgat/libs/eigen/Eigen/src/Core/products/CoeffBasedProduct.h:246:1
	vfmadd231sd	%xmm5, %xmm7, %xmm11 # xmm11 = (xmm7 * xmm5) + xmm11
.Ltmp299:
	.loc	6 246 1 is_stmt 0       # /home/talgat/libs/eigen/Eigen/src/Core/products/CoeffBasedProduct.h:246:1
	vfmadd231sd	%xmm8, %xmm6, %xmm9 # xmm9 = (xmm6 * xmm8) + xmm9
.Ltmp300:
	.loc	6 246 1                 # /home/talgat/libs/eigen/Eigen/src/Core/products/CoeffBasedProduct.h:246:1
	vxorpd	%xmm5, %xmm5, %xmm5
	vfmadd213sd	%xmm3, %xmm6, %xmm5 # xmm5 = (xmm6 * xmm5) + xmm3
.Ltmp301:
	.loc	6 245 1 is_stmt 1       # /home/talgat/libs/eigen/Eigen/src/Core/products/CoeffBasedProduct.h:245:1
	vmulsd	%xmm3, %xmm12, %xmm1
	#DEBUG_VALUE: T <- $rsi
	#DEBUG_VALUE: run:T <- $rsi
	.loc	6 246 1                 # /home/talgat/libs/eigen/Eigen/src/Core/products/CoeffBasedProduct.h:246:1
	vfmadd231sd	%xmm6, %xmm7, %xmm1 # xmm1 = (xmm7 * xmm6) + xmm1
.Ltmp302:
	.loc	6 246 1 is_stmt 0       # /home/talgat/libs/eigen/Eigen/src/Core/products/CoeffBasedProduct.h:246:1
	vxorpd	%xmm4, %xmm4, %xmm4
	vfmadd213sd	%xmm10, %xmm14, %xmm4 # xmm4 = (xmm14 * xmm4) + xmm10
.Ltmp303:
	.loc	6 245 1 is_stmt 1       # /home/talgat/libs/eigen/Eigen/src/Core/products/CoeffBasedProduct.h:245:1
	vmulsd	%xmm10, %xmm12, %xmm6
	#DEBUG_VALUE: T <- $rsi
	#DEBUG_VALUE: run:T <- $rsi
	.loc	6 246 1                 # /home/talgat/libs/eigen/Eigen/src/Core/products/CoeffBasedProduct.h:246:1
	vfmadd231sd	%xmm7, %xmm14, %xmm6 # xmm6 = (xmm14 * xmm7) + xmm6
.Ltmp304:
	.loc	6 246 1 is_stmt 0       # /home/talgat/libs/eigen/Eigen/src/Core/products/CoeffBasedProduct.h:246:1
	vfmadd231sd	%xmm8, %xmm14, %xmm15 # xmm15 = (xmm14 * xmm8) + xmm15
.Ltmp305:
	.loc	6 144 1 is_stmt 1       # /home/talgat/libs/eigen/Eigen/src/Core/products/CoeffBasedProduct.h:144:1
	vmovsd	64(%rsi), %xmm7         # xmm7 = mem[0],zero
.Ltmp306:
	#DEBUG_VALUE: col <- 0
	#DEBUG_VALUE: run:col <- 0
	#DEBUG_VALUE: row <- 0
	#DEBUG_VALUE: run:row <- 0
	.loc	1 270 1                 # vlasovsolver/cpu_acc_intersections.cpp:270:1
	vmovsd	208(%rdx,%rcx), %xmm10  # xmm10 = mem[0],zero
.Ltmp307:
	#DEBUG_VALUE: res <- undef
	#DEBUG_VALUE: run:res <- undef
	#DEBUG_VALUE: rhs <- undef
	#DEBUG_VALUE: run:rhs <- undef
	#DEBUG_VALUE: lhs <- undef
	#DEBUG_VALUE: run:lhs <- undef
	#DEBUG_VALUE: col <- 0
	#DEBUG_VALUE: run:col <- 0
	#DEBUG_VALUE: row <- 0
	#DEBUG_VALUE: run:row <- 0
	#DEBUG_VALUE: src <- undef
	#DEBUG_VALUE: run:src <- undef
	#DEBUG_VALUE: dst <- undef
	#DEBUG_VALUE: run:dst <- undef
	#DEBUG_VALUE: other <- undef
	#DEBUG_VALUE: lazyAssign:other <- undef
	#DEBUG_VALUE:  <- undef
	#DEBUG_VALUE: lazyAssign: <- undef
	#DEBUG_VALUE: euclidian_di <- [DW_OP_LLVM_fragment 128 64] 0.000000e+00
	#DEBUG_VALUE: euclidian_di <- [DW_OP_LLVM_fragment 64 64] 0.000000e+00
	#DEBUG_VALUE: plane_point <- [DW_OP_LLVM_fragment 128 64] 0.000000e+00
	#DEBUG_VALUE: plane_point <- [DW_OP_LLVM_fragment 64 64] 0.000000e+00
	#DEBUG_VALUE: plane_point <- [DW_OP_LLVM_fragment 0 64] $xmm12
	#DEBUG_VALUE: plane_normal <- [DW_OP_LLVM_fragment 128 64] 0.000000e+00
	#DEBUG_VALUE: plane_normal <- [DW_OP_LLVM_fragment 64 64] 0.000000e+00
	#DEBUG_VALUE: plane_normal <- [DW_OP_LLVM_fragment 0 64] 1.000000e+00
	.loc	6 144 1                 # /home/talgat/libs/eigen/Eigen/src/Core/products/CoeffBasedProduct.h:144:1
	vfmadd231sd	%xmm7, %xmm10, %xmm0 # xmm0 = (xmm10 * xmm7) + xmm0
.Ltmp308:
	#DEBUG_VALUE: res <- undef
	#DEBUG_VALUE: run:res <- undef
	#DEBUG_VALUE: rhs <- undef
	#DEBUG_VALUE: run:rhs <- undef
	#DEBUG_VALUE: lhs <- undef
	#DEBUG_VALUE: run:lhs <- undef
	.loc	6 0 1 is_stmt 0         # /home/talgat/libs/eigen/Eigen/src/Core/products/CoeffBasedProduct.h:0:1
	vmovsd	%xmm0, -24(%rbp)        # 8-byte Spill
.Ltmp309:
	.loc	6 144 1                 # /home/talgat/libs/eigen/Eigen/src/Core/products/CoeffBasedProduct.h:144:1
	vmovsd	72(%rsi), %xmm14        # xmm14 = mem[0],zero
.Ltmp310:
	#DEBUG_VALUE: col <- 0
	#DEBUG_VALUE: run:col <- 0
	#DEBUG_VALUE: row <- 1
	#DEBUG_VALUE: run:row <- 1
	#DEBUG_VALUE: col <- 0
	#DEBUG_VALUE: run:col <- 0
	#DEBUG_VALUE: row <- 1
	#DEBUG_VALUE: run:row <- 1
	.loc	6 144 1                 # /home/talgat/libs/eigen/Eigen/src/Core/products/CoeffBasedProduct.h:144:1
	vfmadd231sd	%xmm14, %xmm10, %xmm9 # xmm9 = (xmm10 * xmm14) + xmm9
.Ltmp311:
	#DEBUG_VALUE: res <- undef
	#DEBUG_VALUE: run:res <- undef
	#DEBUG_VALUE: rhs <- undef
	#DEBUG_VALUE: run:rhs <- undef
	#DEBUG_VALUE: lhs <- undef
	#DEBUG_VALUE: run:lhs <- undef
	.loc	6 144 1                 # /home/talgat/libs/eigen/Eigen/src/Core/products/CoeffBasedProduct.h:144:1
	vmovsd	80(%rsi), %xmm0         # xmm0 = mem[0],zero
.Ltmp312:
	#DEBUG_VALUE: col <- 0
	#DEBUG_VALUE: run:col <- 0
	#DEBUG_VALUE: row <- 2
	#DEBUG_VALUE: run:row <- 2
	.loc	6 144 1                 # /home/talgat/libs/eigen/Eigen/src/Core/products/CoeffBasedProduct.h:144:1
	vfmadd213sd	%xmm15, %xmm0, %xmm10 # xmm10 = (xmm0 * xmm10) + xmm15
.Ltmp313:
	#DEBUG_VALUE: res <- undef
	#DEBUG_VALUE: run:res <- undef
	#DEBUG_VALUE: rhs <- undef
	#DEBUG_VALUE: run:rhs <- undef
	#DEBUG_VALUE: lhs <- undef
	#DEBUG_VALUE: run:lhs <- undef
	#DEBUG_VALUE: src <- undef
	#DEBUG_VALUE: run:src <- undef
	#DEBUG_VALUE: dst <- undef
	#DEBUG_VALUE: run:dst <- undef
	#DEBUG_VALUE: other <- undef
	#DEBUG_VALUE: lazyAssign:other <- undef
	#DEBUG_VALUE:  <- undef
	#DEBUG_VALUE: lazyAssign: <- undef
	.loc	6 0 1                   # /home/talgat/libs/eigen/Eigen/src/Core/products/CoeffBasedProduct.h:0:1
	vmovsd	-8(%rbp), %xmm3         # 8-byte Reload
                                        # xmm3 = mem[0],zero
.Ltmp314:
	.loc	6 144 1                 # /home/talgat/libs/eigen/Eigen/src/Core/products/CoeffBasedProduct.h:144:1
	vfmadd231sd	%xmm8, %xmm7, %xmm3 # xmm3 = (xmm7 * xmm8) + xmm3
	#DEBUG_VALUE: col <- 0
	#DEBUG_VALUE: run:col <- 0
	#DEBUG_VALUE: row <- 0
	#DEBUG_VALUE: run:row <- 0
	vmovsd	%xmm3, -8(%rbp)         # 8-byte Spill
.Ltmp315:
	#DEBUG_VALUE: col <- 0
	#DEBUG_VALUE: run:col <- 0
	#DEBUG_VALUE: row <- 0
	#DEBUG_VALUE: run:row <- 0
	.loc	6 144 1                 # /home/talgat/libs/eigen/Eigen/src/Core/products/CoeffBasedProduct.h:144:1
	vfmadd231sd	%xmm8, %xmm7, %xmm2 # xmm2 = (xmm7 * xmm8) + xmm2
.Ltmp316:
	#DEBUG_VALUE: res <- undef
	#DEBUG_VALUE: run:res <- undef
	#DEBUG_VALUE: rhs <- undef
	#DEBUG_VALUE: run:rhs <- undef
	#DEBUG_VALUE: lhs <- undef
	#DEBUG_VALUE: run:lhs <- undef
	#DEBUG_VALUE: lagrangian_dk <- [DW_OP_LLVM_fragment 64 64] $xmm9
	#DEBUG_VALUE: lagrangian_dk <- [DW_OP_constu 24, DW_OP_minus, DW_OP_LLVM_fragment 0 64] [$rbp+0]
	#DEBUG_VALUE: lagrangian_dk <- [DW_OP_LLVM_fragment 128 64] $xmm10
	.loc	1 270 1 is_stmt 1       # vlasovsolver/cpu_acc_intersections.cpp:270:1
	vmovsd	136(%rdx,%rcx), %xmm15  # xmm15 = mem[0],zero
.Ltmp317:
	#DEBUG_VALUE: euclidian_di <- [DW_OP_LLVM_fragment 128 64] 0.000000e+00
	#DEBUG_VALUE: euclidian_di <- [DW_OP_LLVM_fragment 64 64] 0.000000e+00
	#DEBUG_VALUE: plane_point <- [DW_OP_LLVM_fragment 128 64] 0.000000e+00
	#DEBUG_VALUE: plane_point <- [DW_OP_LLVM_fragment 64 64] 0.000000e+00
	#DEBUG_VALUE: plane_point <- [DW_OP_LLVM_fragment 0 64] $xmm12
	#DEBUG_VALUE: plane_normal <- [DW_OP_LLVM_fragment 128 64] 0.000000e+00
	#DEBUG_VALUE: plane_normal <- [DW_OP_LLVM_fragment 64 64] 0.000000e+00
	#DEBUG_VALUE: plane_normal <- [DW_OP_LLVM_fragment 0 64] 1.000000e+00
	.loc	6 144 1                 # /home/talgat/libs/eigen/Eigen/src/Core/products/CoeffBasedProduct.h:144:1
	vfmadd231sd	%xmm7, %xmm15, %xmm11 # xmm11 = (xmm15 * xmm7) + xmm11
	#DEBUG_VALUE: col <- 0
	#DEBUG_VALUE: run:col <- 0
	#DEBUG_VALUE: row <- 0
	#DEBUG_VALUE: run:row <- 0
	#DEBUG_VALUE: T <- $rsi
	#DEBUG_VALUE: run:T <- $rsi
	vmovsd	-32(%rbp), %xmm3        # 8-byte Reload
                                        # xmm3 = mem[0],zero
.Ltmp318:
	.loc	6 144 1 is_stmt 0       # /home/talgat/libs/eigen/Eigen/src/Core/products/CoeffBasedProduct.h:144:1
	vfmadd231sd	%xmm8, %xmm14, %xmm3 # xmm3 = (xmm14 * xmm8) + xmm3
.Ltmp319:
	#DEBUG_VALUE: res <- undef
	#DEBUG_VALUE: run:res <- undef
	#DEBUG_VALUE: rhs <- undef
	#DEBUG_VALUE: run:rhs <- undef
	#DEBUG_VALUE: lhs <- undef
	#DEBUG_VALUE: run:lhs <- undef
	#DEBUG_VALUE: col <- 0
	#DEBUG_VALUE: run:col <- 0
	#DEBUG_VALUE: row <- 1
	#DEBUG_VALUE: run:row <- 1
	#DEBUG_VALUE: col <- 0
	#DEBUG_VALUE: run:col <- 0
	#DEBUG_VALUE: row <- 1
	#DEBUG_VALUE: run:row <- 1
	.loc	6 144 1                 # /home/talgat/libs/eigen/Eigen/src/Core/products/CoeffBasedProduct.h:144:1
	vfmadd231sd	%xmm8, %xmm14, %xmm5 # xmm5 = (xmm14 * xmm8) + xmm5
.Ltmp320:
	#DEBUG_VALUE: res <- undef
	#DEBUG_VALUE: run:res <- undef
	#DEBUG_VALUE: rhs <- undef
	#DEBUG_VALUE: run:rhs <- undef
	#DEBUG_VALUE: lhs <- undef
	#DEBUG_VALUE: run:lhs <- undef
	.loc	6 144 1                 # /home/talgat/libs/eigen/Eigen/src/Core/products/CoeffBasedProduct.h:144:1
	vfmadd231sd	%xmm14, %xmm15, %xmm1 # xmm1 = (xmm15 * xmm14) + xmm1
.Ltmp321:
	#DEBUG_VALUE: T <- $rsi
	#DEBUG_VALUE: run:T <- $rsi
	.loc	6 144 1                 # /home/talgat/libs/eigen/Eigen/src/Core/products/CoeffBasedProduct.h:144:1
	vfmadd231sd	%xmm0, %xmm15, %xmm6 # xmm6 = (xmm15 * xmm0) + xmm6
.Ltmp322:
	#DEBUG_VALUE: col <- 0
	#DEBUG_VALUE: run:col <- 0
	#DEBUG_VALUE: row <- 2
	#DEBUG_VALUE: run:row <- 2
	.loc	6 144 1                 # /home/talgat/libs/eigen/Eigen/src/Core/products/CoeffBasedProduct.h:144:1
	vfmadd231sd	%xmm8, %xmm0, %xmm13 # xmm13 = (xmm0 * xmm8) + xmm13
.Ltmp323:
	.loc	4 505 1 is_stmt 1       # /home/talgat/libs/eigen/Eigen/src/Core/Assign.h:505:1
	vaddsd	104(%rsi), %xmm1, %xmm1
.Ltmp324:
	#DEBUG_VALUE: rhs <- undef
	#DEBUG_VALUE: run:rhs <- undef
	#DEBUG_VALUE: lhs <- undef
	#DEBUG_VALUE: run:lhs <- undef
	#DEBUG_VALUE: col <- 0
	#DEBUG_VALUE: run:col <- 0
	#DEBUG_VALUE: row <- 2
	#DEBUG_VALUE: run:row <- 2
	#DEBUG_VALUE: col <- 0
	#DEBUG_VALUE: run:col <- 0
	#DEBUG_VALUE: row <- 2
	#DEBUG_VALUE: run:row <- 2
	#DEBUG_VALUE: T <- $rsi
	#DEBUG_VALUE: run:T <- $rsi
	.loc	6 144 1                 # /home/talgat/libs/eigen/Eigen/src/Core/products/CoeffBasedProduct.h:144:1
	vfmadd231sd	%xmm8, %xmm0, %xmm4 # xmm4 = (xmm0 * xmm8) + xmm4
.Ltmp325:
	.loc	4 144 1 is_stmt 0       # /home/talgat/libs/eigen/Eigen/src/Core/Assign.h:144:1
	vaddsd	112(%rsi), %xmm6, %xmm0
.Ltmp326:
	#DEBUG_VALUE: mat <- undef
	#DEBUG_VALUE: run:mat <- undef
	#DEBUG_VALUE: mat <- undef
	#DEBUG_VALUE: run:mat <- undef
	#DEBUG_VALUE:  <- undef
	#DEBUG_VALUE: coeffByOuterInner: <- undef
	#DEBUG_VALUE:  <- undef
	#DEBUG_VALUE: coeffByOuterInner: <- undef
	#DEBUG_VALUE:  <- undef
	#DEBUG_VALUE: coeffByOuterInner: <- undef
	#DEBUG_VALUE: .._T27768184_34322.m_rhs <- undef
	#DEBUG_VALUE: .._T27768184_34322.m_lhs <- undef
	#DEBUG_VALUE: p_normal <- undef
	#DEBUG_VALUE: line_plane_intersection:p_normal <- undef
	#DEBUG_VALUE: p_point <- undef
	#DEBUG_VALUE: line_plane_intersection:p_point <- undef
	#DEBUG_VALUE: l_direction <- undef
	#DEBUG_VALUE: line_plane_intersection:l_direction <- undef
	#DEBUG_VALUE: l_point <- undef
	#DEBUG_VALUE: line_plane_intersection:l_point <- undef
	#DEBUG_VALUE: line_direction <- [DW_OP_LLVM_fragment 64 64] $xmm5
	#DEBUG_VALUE: line_direction <- [DW_OP_LLVM_fragment 0 64] $xmm2
	#DEBUG_VALUE: line_direction <- [DW_OP_LLVM_fragment 128 64] $xmm4
	#DEBUG_VALUE: lagrangian_dj <- [DW_OP_LLVM_fragment 64 64] $xmm3
	#DEBUG_VALUE: lagrangian_dj <- [DW_OP_constu 8, DW_OP_minus, DW_OP_LLVM_fragment 0 64] [$rbp+0]
	#DEBUG_VALUE: lagrangian_dj <- [DW_OP_LLVM_fragment 128 64] $xmm13
	#DEBUG_VALUE: line_point <- [DW_OP_LLVM_fragment 128 64] $xmm0
	#DEBUG_VALUE: line_point <- [DW_OP_LLVM_fragment 64 64] $xmm1
	#DEBUG_VALUE: T <- $rsi
	#DEBUG_VALUE: run:T <- $rsi
	.loc	3 103 1 is_stmt 1       # /home/talgat/libs/eigen/Eigen/src/Core/Redux.h:103:1
	vmulsd	%xmm8, %xmm5, %xmm5
.Ltmp327:
	#DEBUG_VALUE: mat <- undef
	#DEBUG_VALUE: run:mat <- undef
	#DEBUG_VALUE: lagrangian_dk <- [DW_OP_LLVM_fragment 64 64] $xmm9
	#DEBUG_VALUE: lagrangian_dk <- [DW_OP_constu 24, DW_OP_minus, DW_OP_LLVM_fragment 0 64] [$rbp+0]
	#DEBUG_VALUE: lagrangian_dk <- [DW_OP_LLVM_fragment 128 64] $xmm10
	#DEBUG_VALUE: euclidian_di <- [DW_OP_LLVM_fragment 128 64] 0.000000e+00
	#DEBUG_VALUE: euclidian_di <- [DW_OP_LLVM_fragment 64 64] 0.000000e+00
	#DEBUG_VALUE: plane_point <- [DW_OP_LLVM_fragment 128 64] 0.000000e+00
	#DEBUG_VALUE: plane_point <- [DW_OP_LLVM_fragment 64 64] 0.000000e+00
	#DEBUG_VALUE: plane_point <- [DW_OP_LLVM_fragment 0 64] $xmm12
	#DEBUG_VALUE: plane_normal <- [DW_OP_LLVM_fragment 128 64] 0.000000e+00
	#DEBUG_VALUE: plane_normal <- [DW_OP_LLVM_fragment 64 64] 0.000000e+00
	#DEBUG_VALUE: plane_normal <- [DW_OP_LLVM_fragment 0 64] 1.000000e+00
	.loc	3 103 1 is_stmt 0       # /home/talgat/libs/eigen/Eigen/src/Core/Redux.h:103:1
	vmulsd	%xmm8, %xmm4, %xmm6
.Ltmp328:
	.loc	1 73 1 is_stmt 1        # vlasovsolver/cpu_acc_intersections.cpp:73:1
	vaddsd	%xmm6, %xmm5, %xmm5
	vaddsd	%xmm5, %xmm2, %xmm2
.Ltmp329:
	#DEBUG_VALUE: src <- undef
	#DEBUG_VALUE: run:src <- undef
	#DEBUG_VALUE: dst <- undef
	#DEBUG_VALUE: run:dst <- undef
	#DEBUG_VALUE: other <- undef
	#DEBUG_VALUE: Matrix:other <- undef
	#DEBUG_VALUE:  <- undef
	#DEBUG_VALUE: Matrix: <- undef
	#DEBUG_VALUE: intersect_0_0_0 <- [DW_OP_LLVM_fragment 64 64] undef
	#DEBUG_VALUE: src <- undef
	#DEBUG_VALUE: run:src <- undef
	#DEBUG_VALUE: dst <- undef
	#DEBUG_VALUE: run:dst <- undef
	#DEBUG_VALUE: intersect_0_0_0 <- [DW_OP_LLVM_fragment 0 64] undef
	#DEBUG_VALUE: other <- undef
	#DEBUG_VALUE: lazyAssign:other <- undef
	#DEBUG_VALUE:  <- undef
	#DEBUG_VALUE: lazyAssign: <- undef
	#DEBUG_VALUE: other <- undef
	#DEBUG_VALUE: Matrix:other <- undef
	#DEBUG_VALUE:  <- undef
	#DEBUG_VALUE: Matrix: <- undef
	.loc	4 180 1                 # /home/talgat/libs/eigen/Eigen/src/Core/Assign.h:180:1
	vaddsd	%xmm1, %xmm9, %xmm5
	.loc	4 181 1                 # /home/talgat/libs/eigen/Eigen/src/Core/Assign.h:181:1
	vaddsd	%xmm0, %xmm10, %xmm6
.Ltmp330:
	#DEBUG_VALUE: inner <- 1
	#DEBUG_VALUE: coeffByOuterInner:inner <- 1
	#DEBUG_VALUE: outer <- 0
	#DEBUG_VALUE: coeffByOuterInner:outer <- 0
	.loc	2 98 1                  # /home/talgat/libs/eigen/Eigen/src/Core/DenseCoeffsBase.h:98:1
	vunpcklpd	%xmm5, %xmm1, %xmm5 # xmm5 = xmm1[0],xmm5[0]
	vxorpd	%xmm7, %xmm7, %xmm7
	vsubpd	%xmm5, %xmm7, %xmm5
	vmulpd	%xmm7, %xmm5, %xmm5
.Ltmp331:
	#DEBUG_VALUE: inner <- 2
	#DEBUG_VALUE: coeffByOuterInner:inner <- 2
	#DEBUG_VALUE: outer <- 0
	#DEBUG_VALUE: coeffByOuterInner:outer <- 0
	.loc	2 98 1 is_stmt 0        # /home/talgat/libs/eigen/Eigen/src/Core/DenseCoeffsBase.h:98:1
	vunpcklpd	%xmm6, %xmm0, %xmm9 # xmm9 = xmm0[0],xmm6[0]
.Ltmp332:
	vsubpd	%xmm9, %xmm7, %xmm6
	vmulpd	%xmm7, %xmm6, %xmm6
.Ltmp333:
	.loc	1 73 1 is_stmt 1        # vlasovsolver/cpu_acc_intersections.cpp:73:1
	vaddpd	%xmm6, %xmm5, %xmm5
.Ltmp334:
	.loc	4 180 1                 # /home/talgat/libs/eigen/Eigen/src/Core/Assign.h:180:1
	vaddsd	%xmm1, %xmm3, %xmm1
.Ltmp335:
	.loc	4 144 1                 # /home/talgat/libs/eigen/Eigen/src/Core/Assign.h:144:1
	vaddsd	96(%rsi), %xmm11, %xmm6
.Ltmp336:
	#DEBUG_VALUE: rhs <- undef
	#DEBUG_VALUE: run:rhs <- undef
	#DEBUG_VALUE: lhs <- undef
	#DEBUG_VALUE: run:lhs <- undef
	#DEBUG_VALUE: col <- 0
	#DEBUG_VALUE: run:col <- 0
	#DEBUG_VALUE: row <- 1
	#DEBUG_VALUE: run:row <- 1
	#DEBUG_VALUE: src <- undef
	#DEBUG_VALUE: run:src <- undef
	#DEBUG_VALUE: dst <- undef
	#DEBUG_VALUE: run:dst <- undef
	#DEBUG_VALUE: line_point <- [DW_OP_LLVM_fragment 0 64] $xmm6
	#DEBUG_VALUE: T <- $rsi
	#DEBUG_VALUE: run:T <- $rsi
	.loc	4 495 1                 # /home/talgat/libs/eigen/Eigen/src/Core/Assign.h:495:1
	vaddsd	-16(%rbp), %xmm12, %xmm7 # 8-byte Folded Reload
.Ltmp337:
	#DEBUG_VALUE: inner <- 0
	#DEBUG_VALUE: coeffByOuterInner:inner <- 0
	#DEBUG_VALUE: outer <- 0
	#DEBUG_VALUE: coeffByOuterInner:outer <- 0
	#DEBUG_VALUE:  <- undef
	#DEBUG_VALUE: coeffByOuterInner: <- undef
	#DEBUG_VALUE: .._T27768184_34322.m_rhs <- undef
	#DEBUG_VALUE: .._T27768184_34322.m_lhs <- undef
	#DEBUG_VALUE: p_normal <- undef
	#DEBUG_VALUE: line_plane_intersection:p_normal <- undef
	#DEBUG_VALUE: p_point <- undef
	#DEBUG_VALUE: line_plane_intersection:p_point <- undef
	#DEBUG_VALUE: l_direction <- undef
	#DEBUG_VALUE: line_plane_intersection:l_direction <- undef
	#DEBUG_VALUE: l_point <- undef
	#DEBUG_VALUE: line_plane_intersection:l_point <- undef
	#DEBUG_VALUE: line_direction <- [DW_OP_LLVM_fragment 128 64] $xmm4
	#DEBUG_VALUE: lagrangian_dj <- [DW_OP_constu 8, DW_OP_minus, DW_OP_LLVM_fragment 0 64] [$rbp+0]
	#DEBUG_VALUE: lagrangian_dj <- [DW_OP_LLVM_fragment 128 64] $xmm13
	#DEBUG_VALUE: lagrangian_dk <- [DW_OP_constu 24, DW_OP_minus, DW_OP_LLVM_fragment 0 64] [$rbp+0]
	#DEBUG_VALUE: line_point <- [DW_OP_LLVM_fragment 128 64] $xmm0
	#DEBUG_VALUE: euclidian_di <- [DW_OP_LLVM_fragment 128 64] 0.000000e+00
	#DEBUG_VALUE: euclidian_di <- [DW_OP_LLVM_fragment 64 64] 0.000000e+00
	#DEBUG_VALUE: plane_point <- [DW_OP_LLVM_fragment 128 64] 0.000000e+00
	#DEBUG_VALUE: plane_point <- [DW_OP_LLVM_fragment 64 64] 0.000000e+00
	#DEBUG_VALUE: plane_point <- [DW_OP_LLVM_fragment 0 64] $xmm12
	#DEBUG_VALUE: plane_normal <- [DW_OP_LLVM_fragment 128 64] 0.000000e+00
	#DEBUG_VALUE: plane_normal <- [DW_OP_LLVM_fragment 64 64] 0.000000e+00
	#DEBUG_VALUE: plane_normal <- [DW_OP_LLVM_fragment 0 64] 1.000000e+00
	.loc	2 98 1                  # /home/talgat/libs/eigen/Eigen/src/Core/DenseCoeffsBase.h:98:1
	vsubsd	%xmm6, %xmm7, %xmm7
.Ltmp338:
	#DEBUG_VALUE: inner <- 2
	#DEBUG_VALUE: coeffByOuterInner:inner <- 2
	#DEBUG_VALUE: outer <- 0
	#DEBUG_VALUE: coeffByOuterInner:outer <- 0
	#DEBUG_VALUE:  <- undef
	#DEBUG_VALUE: coeffByOuterInner: <- undef
	#DEBUG_VALUE: inner <- 1
	#DEBUG_VALUE: coeffByOuterInner:inner <- 1
	#DEBUG_VALUE: outer <- 0
	#DEBUG_VALUE: coeffByOuterInner:outer <- 0
	#DEBUG_VALUE:  <- undef
	#DEBUG_VALUE: coeffByOuterInner: <- undef
	.loc	1 73 1                  # vlasovsolver/cpu_acc_intersections.cpp:73:1
	vaddsd	%xmm5, %xmm7, %xmm7
.Ltmp339:
	#DEBUG_VALUE: mat <- undef
	#DEBUG_VALUE: run:mat <- undef
	#DEBUG_VALUE: mat <- undef
	#DEBUG_VALUE: run:mat <- undef
	#DEBUG_VALUE: mat <- undef
	#DEBUG_VALUE: run:mat <- undef
	#DEBUG_VALUE: nom <- $xmm7
	.loc	1 53 1                  # vlasovsolver/cpu_acc_intersections.cpp:53:1
	vdivsd	%xmm2, %xmm7, %xmm7
.Ltmp340:
	#DEBUG_VALUE: intersect_1_0_0 <- [DW_OP_LLVM_fragment 64 64] undef
	#DEBUG_VALUE: src <- undef
	#DEBUG_VALUE: run:src <- undef
	#DEBUG_VALUE: dst <- undef
	#DEBUG_VALUE: run:dst <- undef
	#DEBUG_VALUE: intersect_1_0_0 <- [DW_OP_LLVM_fragment 0 64] undef
	#DEBUG_VALUE: other <- undef
	#DEBUG_VALUE: lazyAssign:other <- undef
	#DEBUG_VALUE:  <- undef
	#DEBUG_VALUE: lazyAssign: <- undef
	#DEBUG_VALUE: other <- undef
	#DEBUG_VALUE: Matrix:other <- undef
	#DEBUG_VALUE:  <- undef
	#DEBUG_VALUE: Matrix: <- undef
	.loc	4 180 1                 # /home/talgat/libs/eigen/Eigen/src/Core/Assign.h:180:1
	vmulsd	%xmm7, %xmm4, %xmm7
	vaddsd	%xmm7, %xmm0, %xmm10
.Ltmp341:
	#DEBUG_VALUE: src <- undef
	#DEBUG_VALUE: run:src <- undef
	#DEBUG_VALUE: dst <- undef
	#DEBUG_VALUE: run:dst <- undef
	#DEBUG_VALUE: other <- undef
	#DEBUG_VALUE: Matrix:other <- undef
	#DEBUG_VALUE:  <- undef
	#DEBUG_VALUE: Matrix: <- undef
	#DEBUG_VALUE: intersect_1_0_0 <- [DW_OP_LLVM_fragment 128 64] $xmm10
	.loc	4 181 1                 # /home/talgat/libs/eigen/Eigen/src/Core/Assign.h:181:1
	vaddsd	%xmm0, %xmm13, %xmm0
.Ltmp342:
	#DEBUG_VALUE:  <- undef
	#DEBUG_VALUE: coeffByOuterInner: <- undef
	#DEBUG_VALUE: .._T27768184_34322.m_rhs <- undef
	#DEBUG_VALUE: .._T27768184_34322.m_lhs <- undef
	#DEBUG_VALUE: p_normal <- undef
	#DEBUG_VALUE: line_plane_intersection:p_normal <- undef
	#DEBUG_VALUE: p_point <- undef
	#DEBUG_VALUE: line_plane_intersection:p_point <- undef
	#DEBUG_VALUE: l_direction <- undef
	#DEBUG_VALUE: line_plane_intersection:l_direction <- undef
	#DEBUG_VALUE: l_point <- undef
	#DEBUG_VALUE: line_plane_intersection:l_point <- undef
	.loc	2 98 1                  # /home/talgat/libs/eigen/Eigen/src/Core/DenseCoeffsBase.h:98:1
	vsubsd	%xmm1, %xmm8, %xmm1
	vmulsd	%xmm8, %xmm1, %xmm1
.Ltmp343:
	#DEBUG_VALUE: inner <- 2
	#DEBUG_VALUE: coeffByOuterInner:inner <- 2
	#DEBUG_VALUE: outer <- 0
	#DEBUG_VALUE: coeffByOuterInner:outer <- 0
	#DEBUG_VALUE:  <- undef
	#DEBUG_VALUE: coeffByOuterInner: <- undef
	.loc	2 98 1 is_stmt 0        # /home/talgat/libs/eigen/Eigen/src/Core/DenseCoeffsBase.h:98:1
	vsubsd	%xmm0, %xmm8, %xmm7
	vmulsd	%xmm8, %xmm7, %xmm3
.Ltmp344:
	.loc	1 73 1 is_stmt 1        # vlasovsolver/cpu_acc_intersections.cpp:73:1
	vaddsd	%xmm3, %xmm1, %xmm1
.Ltmp345:
	.loc	4 495 1                 # /home/talgat/libs/eigen/Eigen/src/Core/Assign.h:495:1
	vaddsd	-8(%rbp), %xmm6, %xmm3  # 8-byte Folded Reload
.Ltmp346:
	#DEBUG_VALUE: inner <- 0
	#DEBUG_VALUE: coeffByOuterInner:inner <- 0
	#DEBUG_VALUE: outer <- 0
	#DEBUG_VALUE: coeffByOuterInner:outer <- 0
	.loc	2 98 1                  # /home/talgat/libs/eigen/Eigen/src/Core/DenseCoeffsBase.h:98:1
	vsubsd	%xmm3, %xmm12, %xmm3
.Ltmp347:
	#DEBUG_VALUE: inner <- 1
	#DEBUG_VALUE: coeffByOuterInner:inner <- 1
	#DEBUG_VALUE: outer <- 0
	#DEBUG_VALUE: coeffByOuterInner:outer <- 0
	#DEBUG_VALUE:  <- undef
	#DEBUG_VALUE: coeffByOuterInner: <- undef
	.loc	1 73 1                  # vlasovsolver/cpu_acc_intersections.cpp:73:1
	vaddsd	%xmm1, %xmm3, %xmm1
.Ltmp348:
	#DEBUG_VALUE: mat <- undef
	#DEBUG_VALUE: run:mat <- undef
	#DEBUG_VALUE: mat <- undef
	#DEBUG_VALUE: run:mat <- undef
	#DEBUG_VALUE: mat <- undef
	#DEBUG_VALUE: run:mat <- undef
	#DEBUG_VALUE: nom <- $xmm1
	.loc	1 53 1                  # vlasovsolver/cpu_acc_intersections.cpp:53:1
	vdivsd	%xmm2, %xmm1, %xmm1
.Ltmp349:
	#DEBUG_VALUE: intersect_0_1_0 <- [DW_OP_LLVM_fragment 64 64] undef
	#DEBUG_VALUE: src <- undef
	#DEBUG_VALUE: run:src <- undef
	#DEBUG_VALUE: dst <- undef
	#DEBUG_VALUE: run:dst <- undef
	#DEBUG_VALUE: intersect_0_1_0 <- [DW_OP_LLVM_fragment 0 64] undef
	#DEBUG_VALUE: other <- undef
	#DEBUG_VALUE: lazyAssign:other <- undef
	#DEBUG_VALUE:  <- undef
	#DEBUG_VALUE: lazyAssign: <- undef
	#DEBUG_VALUE: other <- undef
	#DEBUG_VALUE: Matrix:other <- undef
	#DEBUG_VALUE:  <- undef
	#DEBUG_VALUE: Matrix: <- undef
	.loc	4 180 1                 # /home/talgat/libs/eigen/Eigen/src/Core/Assign.h:180:1
	vmulsd	%xmm1, %xmm4, %xmm1
	vaddsd	%xmm1, %xmm0, %xmm1
.Ltmp350:
	#DEBUG_VALUE: src <- undef
	#DEBUG_VALUE: run:src <- undef
	#DEBUG_VALUE: dst <- undef
	#DEBUG_VALUE: run:dst <- undef
	#DEBUG_VALUE: other <- undef
	#DEBUG_VALUE: Matrix:other <- undef
	#DEBUG_VALUE:  <- undef
	#DEBUG_VALUE: Matrix: <- undef
	#DEBUG_VALUE: intersect_0_1_0 <- [DW_OP_LLVM_fragment 128 64] $xmm1
	.loc	4 495 1                 # /home/talgat/libs/eigen/Eigen/src/Core/Assign.h:495:1
	vaddsd	-24(%rbp), %xmm6, %xmm0 # 8-byte Folded Reload
.Ltmp351:
	#DEBUG_VALUE: inner <- 0
	#DEBUG_VALUE: coeffByOuterInner:inner <- 0
	#DEBUG_VALUE: outer <- 0
	#DEBUG_VALUE: coeffByOuterInner:outer <- 0
	#DEBUG_VALUE:  <- undef
	#DEBUG_VALUE: coeffByOuterInner: <- undef
	#DEBUG_VALUE: .._T27768184_34322.m_rhs <- undef
	#DEBUG_VALUE: .._T27768184_34322.m_lhs <- undef
	#DEBUG_VALUE: p_normal <- undef
	#DEBUG_VALUE: line_plane_intersection:p_normal <- undef
	#DEBUG_VALUE: p_point <- undef
	#DEBUG_VALUE: line_plane_intersection:p_point <- undef
	#DEBUG_VALUE: l_direction <- undef
	#DEBUG_VALUE: line_plane_intersection:l_direction <- undef
	#DEBUG_VALUE: l_point <- undef
	#DEBUG_VALUE: line_plane_intersection:l_point <- undef
	#DEBUG_VALUE: inner <- 0
	#DEBUG_VALUE: coeffByOuterInner:inner <- 0
	#DEBUG_VALUE: outer <- 0
	#DEBUG_VALUE: coeffByOuterInner:outer <- 0
	.loc	2 98 1                  # /home/talgat/libs/eigen/Eigen/src/Core/DenseCoeffsBase.h:98:1
	vunpcklpd	%xmm0, %xmm6, %xmm0 # xmm0 = xmm6[0],xmm0[0]
	vmovddup	%xmm12, %xmm3   # xmm3 = xmm12[0,0]
	vsubpd	%xmm0, %xmm3, %xmm0
.Ltmp352:
	#DEBUG_VALUE: inner <- 2
	#DEBUG_VALUE: coeffByOuterInner:inner <- 2
	#DEBUG_VALUE: outer <- 0
	#DEBUG_VALUE: coeffByOuterInner:outer <- 0
	#DEBUG_VALUE:  <- undef
	#DEBUG_VALUE: coeffByOuterInner: <- undef
	#DEBUG_VALUE: inner <- 1
	#DEBUG_VALUE: coeffByOuterInner:inner <- 1
	#DEBUG_VALUE: outer <- 0
	#DEBUG_VALUE: coeffByOuterInner:outer <- 0
	#DEBUG_VALUE:  <- undef
	#DEBUG_VALUE: coeffByOuterInner: <- undef
	.loc	1 73 1                  # vlasovsolver/cpu_acc_intersections.cpp:73:1
	vaddpd	%xmm5, %xmm0, %xmm0
.Ltmp353:
	#DEBUG_VALUE: mat <- undef
	#DEBUG_VALUE: run:mat <- undef
	#DEBUG_VALUE: mat <- undef
	#DEBUG_VALUE: run:mat <- undef
	#DEBUG_VALUE: mat <- undef
	#DEBUG_VALUE: run:mat <- undef
	.loc	1 53 1                  # vlasovsolver/cpu_acc_intersections.cpp:53:1
	vmovddup	%xmm2, %xmm2    # xmm2 = xmm2[0,0]
	vdivpd	%xmm2, %xmm0, %xmm0
.Ltmp354:
	#DEBUG_VALUE: intersect_0_0_1 <- [DW_OP_LLVM_fragment 64 64] undef
	#DEBUG_VALUE: src <- undef
	#DEBUG_VALUE: run:src <- undef
	#DEBUG_VALUE: dst <- undef
	#DEBUG_VALUE: run:dst <- undef
	#DEBUG_VALUE: intersect_0_0_1 <- [DW_OP_LLVM_fragment 0 64] undef
	#DEBUG_VALUE: other <- undef
	#DEBUG_VALUE: lazyAssign:other <- undef
	#DEBUG_VALUE:  <- undef
	#DEBUG_VALUE: lazyAssign: <- undef
	#DEBUG_VALUE: other <- undef
	#DEBUG_VALUE: Matrix:other <- undef
	#DEBUG_VALUE:  <- undef
	#DEBUG_VALUE: Matrix: <- undef
	.loc	4 180 1                 # /home/talgat/libs/eigen/Eigen/src/Core/Assign.h:180:1
	vmovddup	%xmm4, %xmm2    # xmm2 = xmm4[0,0]
	vmulpd	%xmm0, %xmm2, %xmm0
	vaddpd	%xmm0, %xmm9, %xmm0
.Ltmp355:
	.loc	1 380 1                 # vlasovsolver/cpu_acc_intersections.cpp:380:1
	vmovlpd	%xmm0, (%r9)
	vsubsd	%xmm0, %xmm10, %xmm2
	jmp	.LBB2_6
.Ltmp356:
.LBB2_4:                                # %L.B2831
	#DEBUG_VALUE: compute_intersections_2nd:intersection_di <- [DW_OP_plus_uconst 16] [$rbp+0]
	#DEBUG_VALUE: intersection_di <- [DW_OP_plus_uconst 16] [$rbp+0]
	#DEBUG_VALUE: compute_intersections_2nd:intersection_dj <- [DW_OP_plus_uconst 24] [$rbp+0]
	#DEBUG_VALUE: intersection_dj <- [DW_OP_plus_uconst 24] [$rbp+0]
	#DEBUG_VALUE: compute_intersections_2nd:intersection_dk <- [DW_OP_plus_uconst 32] [$rbp+0]
	#DEBUG_VALUE: intersection_dk <- [DW_OP_plus_uconst 32] [$rbp+0]
	#DEBUG_VALUE: intersection <- $r9
	#DEBUG_VALUE: refLevel <- $r8
	#DEBUG_VALUE: dimension <- $ecx
	#DEBUG_VALUE: fwd_transform <- $rdx
	#DEBUG_VALUE: bwd_transform <- $rsi
	#DEBUG_VALUE: vmesh <- $rdi
	#DEBUG_VALUE: compute_intersections_2nd:intersection <- $r9
	#DEBUG_VALUE: compute_intersections_2nd:refLevel <- $r8
	#DEBUG_VALUE: compute_intersections_2nd:dimension <- $ecx
	#DEBUG_VALUE: compute_intersections_2nd:fwd_transform <- $rdx
	#DEBUG_VALUE: compute_intersections_2nd:bwd_transform <- $rsi
	#DEBUG_VALUE: compute_intersections_2nd:vmesh <- $rdi
	.loc	1 287 1                 # vlasovsolver/cpu_acc_intersections.cpp:287:1
	movq	_ZN5vmesh12VelocityMeshIjjE14meshParametersE(%rip), %rcx
.Ltmp357:
	imulq	$336, (%rdi), %rdx      # imm = 0x150
.Ltmp358:
	vmovsd	208(%rcx,%rdx), %xmm0   # xmm0 = mem[0],zero
	vmovsd	%xmm0, -8(%rbp)         # 8-byte Spill
	vmovsd	.LCPI2_0(%rip), %xmm6   # xmm6 = mem[0],zero
	vmovsd	136(%rcx,%rdx), %xmm14  # xmm14 = mem[0],zero
	vfmadd231sd	%xmm6, %xmm0, %xmm14 # xmm14 = (xmm0 * xmm6) + xmm14
	.loc	1 269 1                 # vlasovsolver/cpu_acc_intersections.cpp:269:1
	vmovsd	128(%rcx,%rdx), %xmm9   # xmm9 = mem[0],zero
	.loc	1 268 1                 # vlasovsolver/cpu_acc_intersections.cpp:268:1
	vmovsd	192(%rcx,%rdx), %xmm12  # xmm12 = mem[0],zero
.Ltmp359:
	#DEBUG_VALUE: res <- undef
	#DEBUG_VALUE: run:res <- undef
	#DEBUG_VALUE: rhs <- undef
	#DEBUG_VALUE: run:rhs <- undef
	#DEBUG_VALUE: lhs <- undef
	#DEBUG_VALUE: run:lhs <- undef
	#DEBUG_VALUE: col <- 0
	#DEBUG_VALUE: run:col <- 0
	#DEBUG_VALUE: row <- 0
	#DEBUG_VALUE: run:row <- 0
	#DEBUG_VALUE: src <- undef
	#DEBUG_VALUE: run:src <- undef
	#DEBUG_VALUE: dst <- undef
	#DEBUG_VALUE: run:dst <- undef
	#DEBUG_VALUE: other <- undef
	#DEBUG_VALUE: lazyAssign:other <- undef
	#DEBUG_VALUE:  <- undef
	#DEBUG_VALUE: lazyAssign: <- undef
	.loc	6 245 1                 # /home/talgat/libs/eigen/Eigen/src/Core/products/CoeffBasedProduct.h:245:1
	vmovsd	(%rsi), %xmm11          # xmm11 = mem[0],zero
.Ltmp360:
	#DEBUG_VALUE: res <- undef
	#DEBUG_VALUE: run:res <- undef
	#DEBUG_VALUE: rhs <- undef
	#DEBUG_VALUE: run:rhs <- undef
	#DEBUG_VALUE: lhs <- undef
	#DEBUG_VALUE: run:lhs <- undef
	#DEBUG_VALUE: col <- 0
	#DEBUG_VALUE: run:col <- 0
	#DEBUG_VALUE: row <- 1
	#DEBUG_VALUE: run:row <- 1
	.loc	6 245 1 is_stmt 0       # /home/talgat/libs/eigen/Eigen/src/Core/products/CoeffBasedProduct.h:245:1
	vmovsd	8(%rsi), %xmm10         # xmm10 = mem[0],zero
.Ltmp361:
	.loc	6 245 1                 # /home/talgat/libs/eigen/Eigen/src/Core/products/CoeffBasedProduct.h:245:1
	vmulsd	%xmm12, %xmm11, %xmm0
	#DEBUG_VALUE: col <- 0
	#DEBUG_VALUE: run:col <- 0
	#DEBUG_VALUE: row <- 0
	#DEBUG_VALUE: run:row <- 0
	.loc	6 246 1 is_stmt 1       # /home/talgat/libs/eigen/Eigen/src/Core/products/CoeffBasedProduct.h:246:1
	vmovsd	32(%rsi), %xmm7         # xmm7 = mem[0],zero
	vxorpd	%xmm2, %xmm2, %xmm2
	vfmadd231sd	%xmm2, %xmm7, %xmm0 # xmm0 = (xmm7 * xmm2) + xmm0
	vmovapd	%xmm0, %xmm13
.Ltmp362:
	.loc	6 245 1                 # /home/talgat/libs/eigen/Eigen/src/Core/products/CoeffBasedProduct.h:245:1
	vmulsd	%xmm12, %xmm10, %xmm4
	#DEBUG_VALUE: col <- 0
	#DEBUG_VALUE: run:col <- 0
	#DEBUG_VALUE: row <- 1
	#DEBUG_VALUE: run:row <- 1
	.loc	6 246 1                 # /home/talgat/libs/eigen/Eigen/src/Core/products/CoeffBasedProduct.h:246:1
	vmovsd	40(%rsi), %xmm3         # xmm3 = mem[0],zero
	vfmadd231sd	%xmm2, %xmm3, %xmm4 # xmm4 = (xmm3 * xmm2) + xmm4
.Ltmp363:
	.loc	1 269 1                 # vlasovsolver/cpu_acc_intersections.cpp:269:1
	vmovsd	200(%rcx,%rdx), %xmm5   # xmm5 = mem[0],zero
.Ltmp364:
	#DEBUG_VALUE: res <- undef
	#DEBUG_VALUE: run:res <- undef
	#DEBUG_VALUE: rhs <- undef
	#DEBUG_VALUE: run:rhs <- undef
	#DEBUG_VALUE: lhs <- undef
	#DEBUG_VALUE: run:lhs <- undef
	#DEBUG_VALUE: col <- 0
	#DEBUG_VALUE: run:col <- 0
	#DEBUG_VALUE: row <- 0
	#DEBUG_VALUE: run:row <- 0
	#DEBUG_VALUE: src <- undef
	#DEBUG_VALUE: run:src <- undef
	#DEBUG_VALUE: dst <- undef
	#DEBUG_VALUE: run:dst <- undef
	#DEBUG_VALUE: other <- undef
	#DEBUG_VALUE: lazyAssign:other <- undef
	#DEBUG_VALUE:  <- undef
	#DEBUG_VALUE: lazyAssign: <- undef
	.loc	6 245 1                 # /home/talgat/libs/eigen/Eigen/src/Core/products/CoeffBasedProduct.h:245:1
	vmulsd	%xmm2, %xmm11, %xmm8
	.loc	6 246 1                 # /home/talgat/libs/eigen/Eigen/src/Core/products/CoeffBasedProduct.h:246:1
	vmovapd	%xmm7, %xmm15
	vfmadd213sd	%xmm8, %xmm5, %xmm15 # xmm15 = (xmm5 * xmm15) + xmm8
.Ltmp365:
	.loc	6 245 1                 # /home/talgat/libs/eigen/Eigen/src/Core/products/CoeffBasedProduct.h:245:1
	vmulsd	%xmm2, %xmm10, %xmm1
.Ltmp366:
	.loc	6 246 1                 # /home/talgat/libs/eigen/Eigen/src/Core/products/CoeffBasedProduct.h:246:1
	vfmadd231sd	%xmm2, %xmm7, %xmm8 # xmm8 = (xmm7 * xmm2) + xmm8
.Ltmp367:
	.loc	1 407 1                 # vlasovsolver/cpu_acc_intersections.cpp:407:1
	vfmadd213sd	120(%rcx,%rdx), %xmm12, %xmm6 # xmm6 = (xmm12 * xmm6) + mem
.Ltmp368:
	#DEBUG_VALUE: rhs <- undef
	#DEBUG_VALUE: run:rhs <- undef
	#DEBUG_VALUE: lhs <- undef
	#DEBUG_VALUE: run:lhs <- undef
	#DEBUG_VALUE: col <- 0
	#DEBUG_VALUE: run:col <- 0
	#DEBUG_VALUE: row <- 0
	#DEBUG_VALUE: run:row <- 0
	#DEBUG_VALUE: src <- undef
	#DEBUG_VALUE: run:src <- undef
	#DEBUG_VALUE: dst <- undef
	#DEBUG_VALUE: run:dst <- undef
	#DEBUG_VALUE: other <- undef
	#DEBUG_VALUE: operator+=:other <- undef
	#DEBUG_VALUE:  <- undef
	#DEBUG_VALUE: operator+=: <- undef
	#DEBUG_VALUE: line_point <- [DW_OP_LLVM_fragment 128 64] undef
	#DEBUG_VALUE: src <- undef
	#DEBUG_VALUE: run:src <- undef
	#DEBUG_VALUE: dst <- undef
	#DEBUG_VALUE: run:dst <- undef
	#DEBUG_VALUE: line_point <- [DW_OP_LLVM_fragment 64 64] undef
	#DEBUG_VALUE: src <- undef
	#DEBUG_VALUE: run:src <- undef
	#DEBUG_VALUE: dst <- undef
	#DEBUG_VALUE: run:dst <- undef
	#DEBUG_VALUE: line_point <- [DW_OP_LLVM_fragment 0 64] undef
	#DEBUG_VALUE: src <- undef
	#DEBUG_VALUE: run:src <- undef
	#DEBUG_VALUE: dst <- undef
	#DEBUG_VALUE: run:dst <- undef
	#DEBUG_VALUE: other <- undef
	#DEBUG_VALUE: lazyAssign:other <- undef
	#DEBUG_VALUE:  <- undef
	#DEBUG_VALUE: lazyAssign: <- undef
	#DEBUG_VALUE: a_startCol <- 3
	#DEBUG_VALUE: BlockImpl:a_startCol <- 3
	#DEBUG_VALUE: a_startRow <- 0
	#DEBUG_VALUE: BlockImpl:a_startRow <- 0
	#DEBUG_VALUE: xpr <- $rsi
	#DEBUG_VALUE: BlockImpl:xpr <- $rsi
	#DEBUG_VALUE:  <- undef
	#DEBUG_VALUE: BlockImpl: <- undef
	#DEBUG_VALUE: other <- undef
	#DEBUG_VALUE: run:other <- undef
	#DEBUG_VALUE: T <- $rsi
	#DEBUG_VALUE: run:T <- $rsi
	.loc	6 245 1                 # /home/talgat/libs/eigen/Eigen/src/Core/products/CoeffBasedProduct.h:245:1
	vmulsd	%xmm11, %xmm6, %xmm11
	.loc	6 246 1                 # /home/talgat/libs/eigen/Eigen/src/Core/products/CoeffBasedProduct.h:246:1
	vfmadd231sd	%xmm7, %xmm9, %xmm11 # xmm11 = (xmm9 * xmm7) + xmm11
.Ltmp369:
	.loc	6 246 1 is_stmt 0       # /home/talgat/libs/eigen/Eigen/src/Core/products/CoeffBasedProduct.h:246:1
	vmovapd	%xmm3, %xmm7
	vfmadd213sd	%xmm1, %xmm5, %xmm7 # xmm7 = (xmm5 * xmm7) + xmm1
.Ltmp370:
	.loc	6 246 1                 # /home/talgat/libs/eigen/Eigen/src/Core/products/CoeffBasedProduct.h:246:1
	vfmadd231sd	%xmm2, %xmm3, %xmm1 # xmm1 = (xmm3 * xmm2) + xmm1
.Ltmp371:
	.loc	6 245 1 is_stmt 1       # /home/talgat/libs/eigen/Eigen/src/Core/products/CoeffBasedProduct.h:245:1
	vmulsd	%xmm10, %xmm6, %xmm10
	#DEBUG_VALUE: T <- $rsi
	#DEBUG_VALUE: run:T <- $rsi
	.loc	6 246 1                 # /home/talgat/libs/eigen/Eigen/src/Core/products/CoeffBasedProduct.h:246:1
	vfmadd231sd	%xmm3, %xmm9, %xmm10 # xmm10 = (xmm9 * xmm3) + xmm10
.Ltmp372:
	.loc	6 245 1                 # /home/talgat/libs/eigen/Eigen/src/Core/products/CoeffBasedProduct.h:245:1
	vmovsd	16(%rsi), %xmm3         # xmm3 = mem[0],zero
.Ltmp373:
	.loc	6 245 1 is_stmt 0       # /home/talgat/libs/eigen/Eigen/src/Core/products/CoeffBasedProduct.h:245:1
	vmulsd	%xmm3, %xmm6, %xmm6
.Ltmp374:
	#DEBUG_VALUE: T <- $rsi
	#DEBUG_VALUE: run:T <- $rsi
	.loc	6 246 1 is_stmt 1       # /home/talgat/libs/eigen/Eigen/src/Core/products/CoeffBasedProduct.h:246:1
	vmovsd	48(%rsi), %xmm0         # xmm0 = mem[0],zero
.Ltmp375:
	.loc	6 246 1 is_stmt 0       # /home/talgat/libs/eigen/Eigen/src/Core/products/CoeffBasedProduct.h:246:1
	vfmadd231sd	%xmm0, %xmm9, %xmm6 # xmm6 = (xmm9 * xmm0) + xmm6
.Ltmp376:
	#DEBUG_VALUE: T <- $rsi
	#DEBUG_VALUE: run:T <- $rsi
	.loc	6 245 1 is_stmt 1       # /home/talgat/libs/eigen/Eigen/src/Core/products/CoeffBasedProduct.h:245:1
	vmulsd	%xmm12, %xmm3, %xmm9
	.loc	6 246 1                 # /home/talgat/libs/eigen/Eigen/src/Core/products/CoeffBasedProduct.h:246:1
	vfmadd231sd	%xmm2, %xmm0, %xmm9 # xmm9 = (xmm0 * xmm2) + xmm9
.Ltmp377:
	.loc	6 245 1                 # /home/talgat/libs/eigen/Eigen/src/Core/products/CoeffBasedProduct.h:245:1
	vmulsd	%xmm2, %xmm3, %xmm3
	.loc	6 246 1                 # /home/talgat/libs/eigen/Eigen/src/Core/products/CoeffBasedProduct.h:246:1
	vfmadd213sd	%xmm3, %xmm0, %xmm5 # xmm5 = (xmm0 * xmm5) + xmm3
.Ltmp378:
	.loc	6 246 1 is_stmt 0       # /home/talgat/libs/eigen/Eigen/src/Core/products/CoeffBasedProduct.h:246:1
	vfmadd231sd	%xmm2, %xmm0, %xmm3 # xmm3 = (xmm0 * xmm2) + xmm3
.Ltmp379:
	.loc	6 144 1 is_stmt 1       # /home/talgat/libs/eigen/Eigen/src/Core/products/CoeffBasedProduct.h:144:1
	vmovsd	64(%rsi), %xmm0         # xmm0 = mem[0],zero
	#DEBUG_VALUE: col <- 0
	#DEBUG_VALUE: run:col <- 0
	#DEBUG_VALUE: row <- 0
	#DEBUG_VALUE: run:row <- 0
	vfmadd231sd	%xmm2, %xmm0, %xmm13 # xmm13 = (xmm0 * xmm2) + xmm13
	vmovsd	%xmm13, -16(%rbp)       # 8-byte Spill
.Ltmp380:
	.loc	6 144 1 is_stmt 0       # /home/talgat/libs/eigen/Eigen/src/Core/products/CoeffBasedProduct.h:144:1
	vfmadd231sd	%xmm2, %xmm0, %xmm15 # xmm15 = (xmm0 * xmm2) + xmm15
.Ltmp381:
	#DEBUG_VALUE: res <- undef
	#DEBUG_VALUE: run:res <- undef
	#DEBUG_VALUE: rhs <- undef
	#DEBUG_VALUE: run:rhs <- undef
	#DEBUG_VALUE: lhs <- undef
	#DEBUG_VALUE: run:lhs <- undef
	#DEBUG_VALUE: col <- 0
	#DEBUG_VALUE: run:col <- 0
	#DEBUG_VALUE: row <- 0
	#DEBUG_VALUE: run:row <- 0
	.loc	6 144 1                 # /home/talgat/libs/eigen/Eigen/src/Core/products/CoeffBasedProduct.h:144:1
	vaddsd	%xmm8, %xmm0, %xmm13
.Ltmp382:
	#DEBUG_VALUE: res <- undef
	#DEBUG_VALUE: run:res <- undef
	#DEBUG_VALUE: rhs <- undef
	#DEBUG_VALUE: run:rhs <- undef
	#DEBUG_VALUE: lhs <- undef
	#DEBUG_VALUE: run:lhs <- undef
	.loc	6 144 1                 # /home/talgat/libs/eigen/Eigen/src/Core/products/CoeffBasedProduct.h:144:1
	vfmadd231sd	%xmm0, %xmm14, %xmm11 # xmm11 = (xmm14 * xmm0) + xmm11
.Ltmp383:
	#DEBUG_VALUE: col <- 0
	#DEBUG_VALUE: run:col <- 0
	#DEBUG_VALUE: row <- 0
	#DEBUG_VALUE: run:row <- 0
	#DEBUG_VALUE: T <- $rsi
	#DEBUG_VALUE: run:T <- $rsi
	.loc	6 144 1                 # /home/talgat/libs/eigen/Eigen/src/Core/products/CoeffBasedProduct.h:144:1
	vmovsd	72(%rsi), %xmm0         # xmm0 = mem[0],zero
	#DEBUG_VALUE: col <- 0
	#DEBUG_VALUE: run:col <- 0
	#DEBUG_VALUE: row <- 1
	#DEBUG_VALUE: run:row <- 1
	vfmadd231sd	%xmm2, %xmm0, %xmm4 # xmm4 = (xmm0 * xmm2) + xmm4
.Ltmp384:
	#DEBUG_VALUE: res <- undef
	#DEBUG_VALUE: run:res <- undef
	#DEBUG_VALUE: rhs <- undef
	#DEBUG_VALUE: run:rhs <- undef
	#DEBUG_VALUE: lhs <- undef
	#DEBUG_VALUE: run:lhs <- undef
	#DEBUG_VALUE: col <- 0
	#DEBUG_VALUE: run:col <- 0
	#DEBUG_VALUE: row <- 1
	#DEBUG_VALUE: run:row <- 1
	.loc	6 144 1                 # /home/talgat/libs/eigen/Eigen/src/Core/products/CoeffBasedProduct.h:144:1
	vfmadd231sd	%xmm2, %xmm0, %xmm7 # xmm7 = (xmm0 * xmm2) + xmm7
.Ltmp385:
	#DEBUG_VALUE: res <- undef
	#DEBUG_VALUE: run:res <- undef
	#DEBUG_VALUE: rhs <- undef
	#DEBUG_VALUE: run:rhs <- undef
	#DEBUG_VALUE: lhs <- undef
	#DEBUG_VALUE: run:lhs <- undef
	#DEBUG_VALUE: col <- 0
	#DEBUG_VALUE: run:col <- 0
	#DEBUG_VALUE: row <- 1
	#DEBUG_VALUE: run:row <- 1
	.loc	6 144 1                 # /home/talgat/libs/eigen/Eigen/src/Core/products/CoeffBasedProduct.h:144:1
	vaddsd	%xmm1, %xmm0, %xmm8
.Ltmp386:
	#DEBUG_VALUE: res <- undef
	#DEBUG_VALUE: run:res <- undef
	#DEBUG_VALUE: rhs <- undef
	#DEBUG_VALUE: run:rhs <- undef
	#DEBUG_VALUE: lhs <- undef
	#DEBUG_VALUE: run:lhs <- undef
	.loc	6 144 1                 # /home/talgat/libs/eigen/Eigen/src/Core/products/CoeffBasedProduct.h:144:1
	vfmadd231sd	%xmm0, %xmm14, %xmm10 # xmm10 = (xmm14 * xmm0) + xmm10
.Ltmp387:
	#DEBUG_VALUE: col <- 0
	#DEBUG_VALUE: run:col <- 0
	#DEBUG_VALUE: row <- 2
	#DEBUG_VALUE: run:row <- 2
	#DEBUG_VALUE: T <- $rsi
	#DEBUG_VALUE: run:T <- $rsi
	.loc	6 144 1                 # /home/talgat/libs/eigen/Eigen/src/Core/products/CoeffBasedProduct.h:144:1
	vmovsd	80(%rsi), %xmm0         # xmm0 = mem[0],zero
	vfmadd231sd	%xmm2, %xmm0, %xmm9 # xmm9 = (xmm0 * xmm2) + xmm9
.Ltmp388:
	#DEBUG_VALUE: col <- 0
	#DEBUG_VALUE: run:col <- 0
	#DEBUG_VALUE: row <- 2
	#DEBUG_VALUE: run:row <- 2
	.loc	6 144 1                 # /home/talgat/libs/eigen/Eigen/src/Core/products/CoeffBasedProduct.h:144:1
	vfmadd231sd	%xmm2, %xmm0, %xmm5 # xmm5 = (xmm0 * xmm2) + xmm5
.Ltmp389:
	#DEBUG_VALUE: res <- undef
	#DEBUG_VALUE: run:res <- undef
	#DEBUG_VALUE: rhs <- undef
	#DEBUG_VALUE: run:rhs <- undef
	#DEBUG_VALUE: lhs <- undef
	#DEBUG_VALUE: run:lhs <- undef
	#DEBUG_VALUE: col <- 0
	#DEBUG_VALUE: run:col <- 0
	#DEBUG_VALUE: row <- 0
	#DEBUG_VALUE: run:row <- 0
	#DEBUG_VALUE: src <- undef
	#DEBUG_VALUE: run:src <- undef
	#DEBUG_VALUE: dst <- undef
	#DEBUG_VALUE: run:dst <- undef
	#DEBUG_VALUE: other <- undef
	#DEBUG_VALUE: lazyAssign:other <- undef
	#DEBUG_VALUE:  <- undef
	#DEBUG_VALUE: lazyAssign: <- undef
	#DEBUG_VALUE: euclidian_dk <- [DW_OP_LLVM_fragment 128 64] undef
	#DEBUG_VALUE: col <- 0
	#DEBUG_VALUE: run:col <- 0
	#DEBUG_VALUE: row <- 2
	#DEBUG_VALUE: run:row <- 2
	.loc	6 144 1                 # /home/talgat/libs/eigen/Eigen/src/Core/products/CoeffBasedProduct.h:144:1
	vaddsd	%xmm3, %xmm0, %xmm3
.Ltmp390:
	.loc	6 144 1                 # /home/talgat/libs/eigen/Eigen/src/Core/products/CoeffBasedProduct.h:144:1
	vfmadd231sd	%xmm0, %xmm14, %xmm6 # xmm6 = (xmm14 * xmm0) + xmm6
.Ltmp391:
	#DEBUG_VALUE: line_direction <- [DW_OP_LLVM_fragment 64 64] $xmm8
	#DEBUG_VALUE: line_direction <- [DW_OP_LLVM_fragment 0 64] $xmm13
	#DEBUG_VALUE: line_direction <- [DW_OP_LLVM_fragment 128 64] $xmm3
	#DEBUG_VALUE: euclidian_dk <- [DW_OP_LLVM_fragment 64 64] 0.000000e+00
	#DEBUG_VALUE: euclidian_dk <- [DW_OP_LLVM_fragment 0 64] 0.000000e+00
	#DEBUG_VALUE: lagrangian_dj <- [DW_OP_LLVM_fragment 64 64] $xmm7
	#DEBUG_VALUE: lagrangian_dj <- [DW_OP_LLVM_fragment 0 64] $xmm15
	#DEBUG_VALUE: lagrangian_dj <- [DW_OP_LLVM_fragment 128 64] $xmm5
	#DEBUG_VALUE: lagrangian_di <- [DW_OP_LLVM_fragment 64 64] $xmm4
	#DEBUG_VALUE: lagrangian_di <- [DW_OP_constu 16, DW_OP_minus, DW_OP_LLVM_fragment 0 64] [$rbp+0]
	#DEBUG_VALUE: lagrangian_di <- [DW_OP_LLVM_fragment 128 64] $xmm9
	#DEBUG_VALUE: T <- $rsi
	#DEBUG_VALUE: run:T <- $rsi
	#DEBUG_VALUE: plane_point <- [DW_OP_LLVM_fragment 64 64] 0.000000e+00
	#DEBUG_VALUE: plane_point <- [DW_OP_LLVM_fragment 0 64] 0.000000e+00
	#DEBUG_VALUE: plane_point <- [DW_OP_LLVM_fragment 128 64] $xmm14
	#DEBUG_VALUE: plane_normal <- [DW_OP_LLVM_fragment 128 64] 1.000000e+00
	#DEBUG_VALUE: plane_normal <- [DW_OP_LLVM_fragment 64 64] 0.000000e+00
	#DEBUG_VALUE: plane_normal <- [DW_OP_LLVM_fragment 0 64] 0.000000e+00
	.loc	3 103 1 is_stmt 1       # /home/talgat/libs/eigen/Eigen/src/Core/Redux.h:103:1
	vmulsd	%xmm2, %xmm8, %xmm0
.Ltmp392:
	#DEBUG_VALUE: mat <- undef
	#DEBUG_VALUE: run:mat <- undef
	.loc	1 73 1                  # vlasovsolver/cpu_acc_intersections.cpp:73:1
	vaddsd	%xmm3, %xmm0, %xmm12
.Ltmp393:
	.loc	4 505 1                 # /home/talgat/libs/eigen/Eigen/src/Core/Assign.h:505:1
	vaddsd	104(%rsi), %xmm10, %xmm3
.Ltmp394:
	#DEBUG_VALUE: rhs <- undef
	#DEBUG_VALUE: run:rhs <- undef
	#DEBUG_VALUE: lhs <- undef
	#DEBUG_VALUE: run:lhs <- undef
	#DEBUG_VALUE: col <- 0
	#DEBUG_VALUE: run:col <- 0
	#DEBUG_VALUE: row <- 2
	#DEBUG_VALUE: run:row <- 2
	#DEBUG_VALUE: T <- $rsi
	#DEBUG_VALUE: run:T <- $rsi
	.loc	4 144 1                 # /home/talgat/libs/eigen/Eigen/src/Core/Assign.h:144:1
	vaddsd	112(%rsi), %xmm6, %xmm6
.Ltmp395:
	#DEBUG_VALUE:  <- undef
	#DEBUG_VALUE: coeffByOuterInner: <- undef
	#DEBUG_VALUE: .._T27768184_34322.m_rhs <- undef
	#DEBUG_VALUE: .._T27768184_34322.m_lhs <- undef
	#DEBUG_VALUE: p_normal <- undef
	#DEBUG_VALUE: line_plane_intersection:p_normal <- undef
	#DEBUG_VALUE: p_point <- undef
	#DEBUG_VALUE: line_plane_intersection:p_point <- undef
	#DEBUG_VALUE: l_direction <- undef
	#DEBUG_VALUE: line_plane_intersection:l_direction <- undef
	#DEBUG_VALUE: l_point <- undef
	#DEBUG_VALUE: line_plane_intersection:l_point <- undef
	#DEBUG_VALUE: line_point <- [DW_OP_LLVM_fragment 128 64] $xmm6
	#DEBUG_VALUE: line_point <- [DW_OP_LLVM_fragment 64 64] $xmm3
	.loc	3 103 1                 # /home/talgat/libs/eigen/Eigen/src/Core/Redux.h:103:1
	vmulsd	%xmm2, %xmm13, %xmm0
.Ltmp396:
	#DEBUG_VALUE: mat <- undef
	#DEBUG_VALUE: run:mat <- undef
	#DEBUG_VALUE: line_direction <- [DW_OP_LLVM_fragment 64 64] $xmm8
	#DEBUG_VALUE: line_direction <- [DW_OP_LLVM_fragment 0 64] $xmm13
	#DEBUG_VALUE: euclidian_dk <- [DW_OP_LLVM_fragment 64 64] 0.000000e+00
	#DEBUG_VALUE: euclidian_dk <- [DW_OP_LLVM_fragment 0 64] 0.000000e+00
	#DEBUG_VALUE: lagrangian_dj <- [DW_OP_LLVM_fragment 64 64] $xmm7
	#DEBUG_VALUE: lagrangian_dj <- [DW_OP_LLVM_fragment 0 64] $xmm15
	#DEBUG_VALUE: lagrangian_dj <- [DW_OP_LLVM_fragment 128 64] $xmm5
	#DEBUG_VALUE: lagrangian_di <- [DW_OP_LLVM_fragment 64 64] $xmm4
	#DEBUG_VALUE: lagrangian_di <- [DW_OP_constu 16, DW_OP_minus, DW_OP_LLVM_fragment 0 64] [$rbp+0]
	#DEBUG_VALUE: lagrangian_di <- [DW_OP_LLVM_fragment 128 64] $xmm9
	#DEBUG_VALUE: plane_point <- [DW_OP_LLVM_fragment 64 64] 0.000000e+00
	#DEBUG_VALUE: plane_point <- [DW_OP_LLVM_fragment 0 64] 0.000000e+00
	#DEBUG_VALUE: plane_point <- [DW_OP_LLVM_fragment 128 64] $xmm14
	#DEBUG_VALUE: plane_normal <- [DW_OP_LLVM_fragment 128 64] 1.000000e+00
	#DEBUG_VALUE: plane_normal <- [DW_OP_LLVM_fragment 64 64] 0.000000e+00
	#DEBUG_VALUE: plane_normal <- [DW_OP_LLVM_fragment 0 64] 0.000000e+00
	.loc	1 73 1                  # vlasovsolver/cpu_acc_intersections.cpp:73:1
	vaddsd	%xmm12, %xmm0, %xmm10
.Ltmp397:
	#DEBUG_VALUE: src <- undef
	#DEBUG_VALUE: run:src <- undef
	#DEBUG_VALUE: dst <- undef
	#DEBUG_VALUE: run:dst <- undef
	#DEBUG_VALUE: other <- undef
	#DEBUG_VALUE: Matrix:other <- undef
	#DEBUG_VALUE:  <- undef
	#DEBUG_VALUE: Matrix: <- undef
	#DEBUG_VALUE: intersect_0_0_0 <- [DW_OP_LLVM_fragment 128 64] undef
	#DEBUG_VALUE: src <- undef
	#DEBUG_VALUE: run:src <- undef
	#DEBUG_VALUE: dst <- undef
	#DEBUG_VALUE: run:dst <- undef
	#DEBUG_VALUE: intersect_0_0_0 <- [DW_OP_LLVM_fragment 0 64] undef
	#DEBUG_VALUE: other <- undef
	#DEBUG_VALUE: lazyAssign:other <- undef
	#DEBUG_VALUE:  <- undef
	#DEBUG_VALUE: lazyAssign: <- undef
	#DEBUG_VALUE: other <- undef
	#DEBUG_VALUE: Matrix:other <- undef
	#DEBUG_VALUE:  <- undef
	#DEBUG_VALUE: Matrix: <- undef
	.loc	4 180 1                 # /home/talgat/libs/eigen/Eigen/src/Core/Assign.h:180:1
	vaddsd	%xmm3, %xmm4, %xmm0
	.loc	4 181 1                 # /home/talgat/libs/eigen/Eigen/src/Core/Assign.h:181:1
	vaddsd	%xmm6, %xmm9, %xmm9
.Ltmp398:
	#DEBUG_VALUE:  <- undef
	#DEBUG_VALUE: coeffByOuterInner: <- undef
	#DEBUG_VALUE: .._T27768184_34322.m_rhs <- undef
	#DEBUG_VALUE: .._T27768184_34322.m_lhs <- undef
	#DEBUG_VALUE: p_normal <- undef
	#DEBUG_VALUE: line_plane_intersection:p_normal <- undef
	#DEBUG_VALUE: p_point <- undef
	#DEBUG_VALUE: line_plane_intersection:p_point <- undef
	#DEBUG_VALUE: l_direction <- undef
	#DEBUG_VALUE: line_plane_intersection:l_direction <- undef
	#DEBUG_VALUE: l_point <- undef
	#DEBUG_VALUE: line_plane_intersection:l_point <- undef
	.loc	2 98 1                  # /home/talgat/libs/eigen/Eigen/src/Core/DenseCoeffsBase.h:98:1
	vsubsd	%xmm0, %xmm2, %xmm4
.Ltmp399:
	vmulsd	%xmm2, %xmm4, %xmm4
.Ltmp400:
	#DEBUG_VALUE: inner <- 2
	#DEBUG_VALUE: coeffByOuterInner:inner <- 2
	#DEBUG_VALUE: outer <- 0
	#DEBUG_VALUE: coeffByOuterInner:outer <- 0
	#DEBUG_VALUE:  <- undef
	#DEBUG_VALUE: coeffByOuterInner: <- undef
	.loc	2 98 1 is_stmt 0        # /home/talgat/libs/eigen/Eigen/src/Core/DenseCoeffsBase.h:98:1
	vsubsd	%xmm9, %xmm14, %xmm1
.Ltmp401:
	.loc	1 73 1 is_stmt 1        # vlasovsolver/cpu_acc_intersections.cpp:73:1
	vaddsd	%xmm1, %xmm4, %xmm9
.Ltmp402:
	.loc	4 144 1                 # /home/talgat/libs/eigen/Eigen/src/Core/Assign.h:144:1
	vaddsd	96(%rsi), %xmm11, %xmm4
.Ltmp403:
	#DEBUG_VALUE: rhs <- undef
	#DEBUG_VALUE: run:rhs <- undef
	#DEBUG_VALUE: lhs <- undef
	#DEBUG_VALUE: run:lhs <- undef
	#DEBUG_VALUE: col <- 0
	#DEBUG_VALUE: run:col <- 0
	#DEBUG_VALUE: row <- 1
	#DEBUG_VALUE: run:row <- 1
	#DEBUG_VALUE: src <- undef
	#DEBUG_VALUE: run:src <- undef
	#DEBUG_VALUE: dst <- undef
	#DEBUG_VALUE: run:dst <- undef
	#DEBUG_VALUE: line_point <- [DW_OP_LLVM_fragment 0 64] $xmm4
	#DEBUG_VALUE: T <- $rsi
	#DEBUG_VALUE: run:T <- $rsi
	.loc	4 495 1                 # /home/talgat/libs/eigen/Eigen/src/Core/Assign.h:495:1
	vaddsd	-16(%rbp), %xmm4, %xmm1 # 8-byte Folded Reload
.Ltmp404:
	#DEBUG_VALUE: inner <- 0
	#DEBUG_VALUE: coeffByOuterInner:inner <- 0
	#DEBUG_VALUE: outer <- 0
	#DEBUG_VALUE: coeffByOuterInner:outer <- 0
	#DEBUG_VALUE: line_direction <- [DW_OP_LLVM_fragment 64 64] $xmm8
	#DEBUG_VALUE: euclidian_dk <- [DW_OP_LLVM_fragment 64 64] 0.000000e+00
	#DEBUG_VALUE: euclidian_dk <- [DW_OP_LLVM_fragment 0 64] 0.000000e+00
	#DEBUG_VALUE: lagrangian_dj <- [DW_OP_LLVM_fragment 64 64] $xmm7
	#DEBUG_VALUE: lagrangian_dj <- [DW_OP_LLVM_fragment 0 64] $xmm15
	#DEBUG_VALUE: lagrangian_dj <- [DW_OP_LLVM_fragment 128 64] $xmm5
	#DEBUG_VALUE: lagrangian_di <- [DW_OP_constu 16, DW_OP_minus, DW_OP_LLVM_fragment 0 64] [$rbp+0]
	#DEBUG_VALUE: line_point <- [DW_OP_LLVM_fragment 128 64] $xmm6
	#DEBUG_VALUE: line_point <- [DW_OP_LLVM_fragment 64 64] $xmm3
	#DEBUG_VALUE: plane_point <- [DW_OP_LLVM_fragment 64 64] 0.000000e+00
	#DEBUG_VALUE: plane_point <- [DW_OP_LLVM_fragment 0 64] 0.000000e+00
	#DEBUG_VALUE: plane_point <- [DW_OP_LLVM_fragment 128 64] $xmm14
	#DEBUG_VALUE: plane_normal <- [DW_OP_LLVM_fragment 128 64] 1.000000e+00
	#DEBUG_VALUE: plane_normal <- [DW_OP_LLVM_fragment 64 64] 0.000000e+00
	#DEBUG_VALUE: plane_normal <- [DW_OP_LLVM_fragment 0 64] 0.000000e+00
	.loc	2 98 1                  # /home/talgat/libs/eigen/Eigen/src/Core/DenseCoeffsBase.h:98:1
	vsubsd	%xmm1, %xmm2, %xmm1
	vmulsd	%xmm2, %xmm1, %xmm1
.Ltmp405:
	#DEBUG_VALUE: inner <- 1
	#DEBUG_VALUE: coeffByOuterInner:inner <- 1
	#DEBUG_VALUE: outer <- 0
	#DEBUG_VALUE: coeffByOuterInner:outer <- 0
	#DEBUG_VALUE:  <- undef
	#DEBUG_VALUE: coeffByOuterInner: <- undef
	.loc	1 73 1                  # vlasovsolver/cpu_acc_intersections.cpp:73:1
	vaddsd	%xmm9, %xmm1, %xmm9
.Ltmp406:
	#DEBUG_VALUE: mat <- undef
	#DEBUG_VALUE: run:mat <- undef
	#DEBUG_VALUE: mat <- undef
	#DEBUG_VALUE: run:mat <- undef
	#DEBUG_VALUE: mat <- undef
	#DEBUG_VALUE: run:mat <- undef
	#DEBUG_VALUE: nom <- $xmm9
	#DEBUG_VALUE: inner <- 0
	#DEBUG_VALUE: coeffByOuterInner:inner <- 0
	#DEBUG_VALUE: outer <- 0
	#DEBUG_VALUE: coeffByOuterInner:outer <- 0
	.loc	2 98 1                  # /home/talgat/libs/eigen/Eigen/src/Core/DenseCoeffsBase.h:98:1
	vsubsd	%xmm4, %xmm2, %xmm1
	vmulsd	%xmm2, %xmm1, %xmm11
.Ltmp407:
	#DEBUG_VALUE:  <- undef
	#DEBUG_VALUE: coeffByOuterInner: <- undef
	.loc	1 53 1                  # vlasovsolver/cpu_acc_intersections.cpp:53:1
	vdivsd	%xmm10, %xmm9, %xmm1
.Ltmp408:
	#DEBUG_VALUE: src <- undef
	#DEBUG_VALUE: run:src <- undef
	#DEBUG_VALUE: dst <- undef
	#DEBUG_VALUE: run:dst <- undef
	#DEBUG_VALUE: intersect_1_0_0 <- [DW_OP_LLVM_fragment 0 64] undef
	#DEBUG_VALUE: other <- undef
	#DEBUG_VALUE: lazyAssign:other <- undef
	#DEBUG_VALUE:  <- undef
	#DEBUG_VALUE: lazyAssign: <- undef
	#DEBUG_VALUE: other <- undef
	#DEBUG_VALUE: Matrix:other <- undef
	#DEBUG_VALUE:  <- undef
	#DEBUG_VALUE: Matrix: <- undef
	#DEBUG_VALUE: nom <- $xmm9
	.loc	4 495 1                 # /home/talgat/libs/eigen/Eigen/src/Core/Assign.h:495:1
	vmulsd	%xmm1, %xmm8, %xmm1
	vaddsd	%xmm1, %xmm0, %xmm9
.Ltmp409:
	#DEBUG_VALUE: src <- undef
	#DEBUG_VALUE: run:src <- undef
	#DEBUG_VALUE: dst <- undef
	#DEBUG_VALUE: run:dst <- undef
	#DEBUG_VALUE: other <- undef
	#DEBUG_VALUE: Matrix:other <- undef
	#DEBUG_VALUE:  <- undef
	#DEBUG_VALUE: Matrix: <- undef
	#DEBUG_VALUE: intersect_1_0_0 <- [DW_OP_LLVM_fragment 128 64] undef
	#DEBUG_VALUE: intersect_1_0_0 <- [DW_OP_LLVM_fragment 64 64] $xmm9
	#DEBUG_VALUE: inner <- 1
	#DEBUG_VALUE: coeffByOuterInner:inner <- 1
	#DEBUG_VALUE: outer <- 0
	#DEBUG_VALUE: coeffByOuterInner:outer <- 0
	.loc	2 98 1                  # /home/talgat/libs/eigen/Eigen/src/Core/DenseCoeffsBase.h:98:1
	vsubsd	%xmm3, %xmm2, %xmm0
	vmulsd	%xmm2, %xmm0, %xmm0
.Ltmp410:
	#DEBUG_VALUE: mat <- undef
	#DEBUG_VALUE: run:mat <- undef
	#DEBUG_VALUE:  <- undef
	#DEBUG_VALUE: coeffByOuterInner: <- undef
	.loc	4 495 1                 # /home/talgat/libs/eigen/Eigen/src/Core/Assign.h:495:1
	vaddsd	%xmm4, %xmm15, %xmm4
.Ltmp411:
	.loc	4 180 1                 # /home/talgat/libs/eigen/Eigen/src/Core/Assign.h:180:1
	vaddsd	%xmm3, %xmm7, %xmm7
.Ltmp412:
	.loc	2 98 1                  # /home/talgat/libs/eigen/Eigen/src/Core/DenseCoeffsBase.h:98:1
	vsubsd	%xmm4, %xmm2, %xmm4
	vmulsd	%xmm2, %xmm4, %xmm4
.Ltmp413:
	#DEBUG_VALUE: inner <- 1
	#DEBUG_VALUE: coeffByOuterInner:inner <- 1
	#DEBUG_VALUE: outer <- 0
	#DEBUG_VALUE: coeffByOuterInner:outer <- 0
	#DEBUG_VALUE:  <- undef
	#DEBUG_VALUE: coeffByOuterInner: <- undef
	.loc	2 98 1 is_stmt 0        # /home/talgat/libs/eigen/Eigen/src/Core/DenseCoeffsBase.h:98:1
	vsubsd	%xmm7, %xmm2, %xmm1
	vmulsd	%xmm2, %xmm1, %xmm1
.Ltmp414:
	#DEBUG_VALUE:  <- undef
	#DEBUG_VALUE: coeffByOuterInner: <- undef
	.loc	4 181 1 is_stmt 1       # /home/talgat/libs/eigen/Eigen/src/Core/Assign.h:181:1
	vaddsd	%xmm6, %xmm5, %xmm2
.Ltmp415:
	#DEBUG_VALUE: inner <- 0
	#DEBUG_VALUE: coeffByOuterInner:inner <- 0
	#DEBUG_VALUE: outer <- 0
	#DEBUG_VALUE: coeffByOuterInner:outer <- 0
	#DEBUG_VALUE:  <- undef
	#DEBUG_VALUE: coeffByOuterInner: <- undef
	#DEBUG_VALUE: .._T27768184_34322.m_rhs <- undef
	#DEBUG_VALUE: .._T27768184_34322.m_lhs <- undef
	#DEBUG_VALUE: p_normal <- undef
	#DEBUG_VALUE: line_plane_intersection:p_normal <- undef
	#DEBUG_VALUE: p_point <- undef
	#DEBUG_VALUE: line_plane_intersection:p_point <- undef
	#DEBUG_VALUE: l_direction <- undef
	#DEBUG_VALUE: line_plane_intersection:l_direction <- undef
	#DEBUG_VALUE: l_point <- undef
	#DEBUG_VALUE: line_plane_intersection:l_point <- undef
	#DEBUG_VALUE: inner <- 2
	#DEBUG_VALUE: coeffByOuterInner:inner <- 2
	#DEBUG_VALUE: outer <- 0
	#DEBUG_VALUE: coeffByOuterInner:outer <- 0
	.loc	2 98 1                  # /home/talgat/libs/eigen/Eigen/src/Core/DenseCoeffsBase.h:98:1
	vsubsd	%xmm2, %xmm14, %xmm2
.Ltmp416:
	.loc	1 73 1                  # vlasovsolver/cpu_acc_intersections.cpp:73:1
	vaddsd	%xmm2, %xmm1, %xmm1
	vaddsd	%xmm1, %xmm4, %xmm1
.Ltmp417:
	#DEBUG_VALUE: mat <- undef
	#DEBUG_VALUE: run:mat <- undef
	#DEBUG_VALUE: mat <- undef
	#DEBUG_VALUE: run:mat <- undef
	#DEBUG_VALUE: mat <- undef
	#DEBUG_VALUE: run:mat <- undef
	#DEBUG_VALUE: nom <- $xmm1
	.loc	1 53 1                  # vlasovsolver/cpu_acc_intersections.cpp:53:1
	vdivsd	%xmm10, %xmm1, %xmm1
.Ltmp418:
	#DEBUG_VALUE: src <- undef
	#DEBUG_VALUE: run:src <- undef
	#DEBUG_VALUE: dst <- undef
	#DEBUG_VALUE: run:dst <- undef
	#DEBUG_VALUE: intersect_0_1_0 <- [DW_OP_LLVM_fragment 0 64] undef
	#DEBUG_VALUE: other <- undef
	#DEBUG_VALUE: lazyAssign:other <- undef
	#DEBUG_VALUE:  <- undef
	#DEBUG_VALUE: lazyAssign: <- undef
	#DEBUG_VALUE: other <- undef
	#DEBUG_VALUE: Matrix:other <- undef
	#DEBUG_VALUE:  <- undef
	#DEBUG_VALUE: Matrix: <- undef
	.loc	4 495 1                 # /home/talgat/libs/eigen/Eigen/src/Core/Assign.h:495:1
	vmulsd	%xmm1, %xmm8, %xmm1
	vaddsd	%xmm1, %xmm7, %xmm1
.Ltmp419:
	#DEBUG_VALUE: src <- undef
	#DEBUG_VALUE: run:src <- undef
	#DEBUG_VALUE: dst <- undef
	#DEBUG_VALUE: run:dst <- undef
	#DEBUG_VALUE: other <- undef
	#DEBUG_VALUE: Matrix:other <- undef
	#DEBUG_VALUE:  <- undef
	#DEBUG_VALUE: Matrix: <- undef
	#DEBUG_VALUE: intersect_0_1_0 <- [DW_OP_LLVM_fragment 128 64] undef
	#DEBUG_VALUE: intersect_0_1_0 <- [DW_OP_LLVM_fragment 64 64] $xmm1
	.loc	4 181 1                 # /home/talgat/libs/eigen/Eigen/src/Core/Assign.h:181:1
	vaddsd	-8(%rbp), %xmm14, %xmm2 # 8-byte Folded Reload
.Ltmp420:
	#DEBUG_VALUE: inner <- 2
	#DEBUG_VALUE: coeffByOuterInner:inner <- 2
	#DEBUG_VALUE: outer <- 0
	#DEBUG_VALUE: coeffByOuterInner:outer <- 0
	#DEBUG_VALUE:  <- undef
	#DEBUG_VALUE: coeffByOuterInner: <- undef
	#DEBUG_VALUE: inner <- 1
	#DEBUG_VALUE: coeffByOuterInner:inner <- 1
	#DEBUG_VALUE: outer <- 0
	#DEBUG_VALUE: coeffByOuterInner:outer <- 0
	#DEBUG_VALUE:  <- undef
	#DEBUG_VALUE: coeffByOuterInner: <- undef
	#DEBUG_VALUE: inner <- 0
	#DEBUG_VALUE: coeffByOuterInner:inner <- 0
	#DEBUG_VALUE: outer <- 0
	#DEBUG_VALUE: coeffByOuterInner:outer <- 0
	#DEBUG_VALUE:  <- undef
	#DEBUG_VALUE: coeffByOuterInner: <- undef
	#DEBUG_VALUE: .._T27768184_34322.m_rhs <- undef
	#DEBUG_VALUE: .._T27768184_34322.m_lhs <- undef
	#DEBUG_VALUE: p_normal <- undef
	#DEBUG_VALUE: line_plane_intersection:p_normal <- undef
	#DEBUG_VALUE: p_point <- undef
	#DEBUG_VALUE: line_plane_intersection:p_point <- undef
	#DEBUG_VALUE: l_direction <- undef
	#DEBUG_VALUE: line_plane_intersection:l_direction <- undef
	#DEBUG_VALUE: l_point <- undef
	#DEBUG_VALUE: line_plane_intersection:l_point <- undef
	#DEBUG_VALUE: inner <- 2
	#DEBUG_VALUE: coeffByOuterInner:inner <- 2
	#DEBUG_VALUE: outer <- 0
	#DEBUG_VALUE: coeffByOuterInner:outer <- 0
	.loc	2 98 1                  # /home/talgat/libs/eigen/Eigen/src/Core/DenseCoeffsBase.h:98:1
	vunpcklpd	%xmm2, %xmm14, %xmm2 # xmm2 = xmm14[0],xmm2[0]
	vmovddup	%xmm6, %xmm4    # xmm4 = xmm6[0,0]
	vsubpd	%xmm4, %xmm2, %xmm2
.Ltmp421:
	.loc	1 73 1                  # vlasovsolver/cpu_acc_intersections.cpp:73:1
	vmovddup	%xmm0, %xmm0    # xmm0 = xmm0[0,0]
	vaddpd	%xmm2, %xmm0, %xmm0
	vmovddup	%xmm11, %xmm2   # xmm2 = xmm11[0,0]
	vaddpd	%xmm0, %xmm2, %xmm0
.Ltmp422:
	#DEBUG_VALUE: mat <- undef
	#DEBUG_VALUE: run:mat <- undef
	#DEBUG_VALUE: mat <- undef
	#DEBUG_VALUE: run:mat <- undef
	#DEBUG_VALUE: mat <- undef
	#DEBUG_VALUE: run:mat <- undef
	.loc	1 53 1                  # vlasovsolver/cpu_acc_intersections.cpp:53:1
	vmovddup	%xmm10, %xmm2   # xmm2 = xmm10[0,0]
	vdivpd	%xmm2, %xmm0, %xmm0
.Ltmp423:
	#DEBUG_VALUE: src <- undef
	#DEBUG_VALUE: run:src <- undef
	#DEBUG_VALUE: dst <- undef
	#DEBUG_VALUE: run:dst <- undef
	#DEBUG_VALUE: intersect_0_0_1 <- [DW_OP_LLVM_fragment 0 64] undef
	#DEBUG_VALUE: other <- undef
	#DEBUG_VALUE: lazyAssign:other <- undef
	#DEBUG_VALUE:  <- undef
	#DEBUG_VALUE: lazyAssign: <- undef
	#DEBUG_VALUE: other <- undef
	#DEBUG_VALUE: Matrix:other <- undef
	#DEBUG_VALUE:  <- undef
	#DEBUG_VALUE: Matrix: <- undef
	.loc	4 495 1                 # /home/talgat/libs/eigen/Eigen/src/Core/Assign.h:495:1
	vmovddup	%xmm8, %xmm2    # xmm2 = xmm8[0,0]
	vmulpd	%xmm0, %xmm2, %xmm0
	vmovddup	%xmm3, %xmm2    # xmm2 = xmm3[0,0]
	vaddpd	%xmm0, %xmm2, %xmm0
.Ltmp424:
	#DEBUG_VALUE: intersect_0_0_1 <- [DW_OP_LLVM_fragment 128 64] undef
	.loc	1 380 1                 # vlasovsolver/cpu_acc_intersections.cpp:380:1
	vmovlpd	%xmm0, (%r9)
	vsubsd	%xmm0, %xmm9, %xmm2
.Ltmp425:
.LBB2_6:                                # %L.B0015.sink.split
	#DEBUG_VALUE: compute_intersections_2nd:intersection_di <- [DW_OP_plus_uconst 16] [$rbp+0]
	#DEBUG_VALUE: intersection_di <- [DW_OP_plus_uconst 16] [$rbp+0]
	#DEBUG_VALUE: compute_intersections_2nd:intersection_dj <- [DW_OP_plus_uconst 24] [$rbp+0]
	#DEBUG_VALUE: intersection_dj <- [DW_OP_plus_uconst 24] [$rbp+0]
	#DEBUG_VALUE: compute_intersections_2nd:intersection_dk <- [DW_OP_plus_uconst 32] [$rbp+0]
	#DEBUG_VALUE: intersection_dk <- [DW_OP_plus_uconst 32] [$rbp+0]
	#DEBUG_VALUE: intersection <- $r9
	#DEBUG_VALUE: refLevel <- $r8
	#DEBUG_VALUE: bwd_transform <- $rsi
	#DEBUG_VALUE: vmesh <- $rdi
	#DEBUG_VALUE: compute_intersections_2nd:intersection <- $r9
	#DEBUG_VALUE: compute_intersections_2nd:refLevel <- $r8
	#DEBUG_VALUE: compute_intersections_2nd:bwd_transform <- $rsi
	#DEBUG_VALUE: compute_intersections_2nd:vmesh <- $rdi
	vmovsd	%xmm2, (%rax)
	vsubsd	%xmm0, %xmm1, %xmm1
.Ltmp426:
.LBB2_7:                                # %L.B0015.sink.split
	#DEBUG_VALUE: compute_intersections_2nd:intersection_di <- [DW_OP_plus_uconst 16] [$rbp+0]
	#DEBUG_VALUE: intersection_di <- [DW_OP_plus_uconst 16] [$rbp+0]
	#DEBUG_VALUE: compute_intersections_2nd:intersection_dj <- [DW_OP_plus_uconst 24] [$rbp+0]
	#DEBUG_VALUE: intersection_dj <- [DW_OP_plus_uconst 24] [$rbp+0]
	#DEBUG_VALUE: compute_intersections_2nd:intersection_dk <- [DW_OP_plus_uconst 32] [$rbp+0]
	#DEBUG_VALUE: intersection_dk <- [DW_OP_plus_uconst 32] [$rbp+0]
	#DEBUG_VALUE: intersection <- $r9
	#DEBUG_VALUE: refLevel <- $r8
	#DEBUG_VALUE: bwd_transform <- $rsi
	#DEBUG_VALUE: vmesh <- $rdi
	#DEBUG_VALUE: compute_intersections_2nd:intersection <- $r9
	#DEBUG_VALUE: compute_intersections_2nd:refLevel <- $r8
	#DEBUG_VALUE: compute_intersections_2nd:bwd_transform <- $rsi
	#DEBUG_VALUE: compute_intersections_2nd:vmesh <- $rdi
	.loc	1 0 1 is_stmt 0         # vlasovsolver/cpu_acc_intersections.cpp:0:1
	movq	32(%rbp), %rax
	movq	24(%rbp), %rcx
	.loc	1 380 1                 # vlasovsolver/cpu_acc_intersections.cpp:380:1
	vmovsd	%xmm1, (%rcx)
	vpermilpd	$1, %xmm0, %xmm1 # xmm1 = xmm0[1,0]
	vsubsd	%xmm0, %xmm1, %xmm0
	vmovsd	%xmm0, (%rax)
.Ltmp427:
.LBB2_8:                                # %L.B0015
	#DEBUG_VALUE: compute_intersections_2nd:intersection_di <- [DW_OP_plus_uconst 16] [$rbp+0]
	#DEBUG_VALUE: intersection_di <- [DW_OP_plus_uconst 16] [$rbp+0]
	#DEBUG_VALUE: compute_intersections_2nd:intersection_dj <- [DW_OP_plus_uconst 24] [$rbp+0]
	#DEBUG_VALUE: intersection_dj <- [DW_OP_plus_uconst 24] [$rbp+0]
	#DEBUG_VALUE: compute_intersections_2nd:intersection_dk <- [DW_OP_plus_uconst 32] [$rbp+0]
	#DEBUG_VALUE: intersection_dk <- [DW_OP_plus_uconst 32] [$rbp+0]
	#DEBUG_VALUE: intersection <- $r9
	#DEBUG_VALUE: refLevel <- $r8
	#DEBUG_VALUE: bwd_transform <- $rsi
	#DEBUG_VALUE: vmesh <- $rdi
	#DEBUG_VALUE: compute_intersections_2nd:intersection <- $r9
	#DEBUG_VALUE: compute_intersections_2nd:refLevel <- $r8
	#DEBUG_VALUE: compute_intersections_2nd:bwd_transform <- $rsi
	#DEBUG_VALUE: compute_intersections_2nd:vmesh <- $rdi
	.loc	1 293 1 is_stmt 1       # vlasovsolver/cpu_acc_intersections.cpp:293:1
	popq	%rbp
	.cfi_def_cfa %rsp, 8
	retq
.Ltmp428:
.Lfunc_end2:
	.size	_Z25compute_intersections_2ndRKN5vmesh12VelocityMeshIjjEERKN5Eigen9TransformIdLi3ELi2ELi0EEES8_jRKhRdSB_SB_SB_, .Lfunc_end2-_Z25compute_intersections_2ndRKN5vmesh12VelocityMeshIjjEERKN5Eigen9TransformIdLi3ELi2ELi0EEES8_jRKhRdSB_SB_SB_
	.cfi_endproc
                                        # -- End function
	.section	.rodata.cst8,"aM",@progbits,8
	.p2align	3               # -- Begin function _Z25compute_intersections_3rdRKN5vmesh12VelocityMeshIjjEERKN5Eigen9TransformIdLi3ELi2ELi0EEES8_jRKhRdSB_SB_SB_
.LCPI3_0:
	.quad	4602678819172646912     # double 0.5
.LCPI3_1:
	.quad	4609434218613702656     # double 1.5
	.text
	.globl	_Z25compute_intersections_3rdRKN5vmesh12VelocityMeshIjjEERKN5Eigen9TransformIdLi3ELi2ELi0EEES8_jRKhRdSB_SB_SB_
	.p2align	4, 0x90
	.type	_Z25compute_intersections_3rdRKN5vmesh12VelocityMeshIjjEERKN5Eigen9TransformIdLi3ELi2ELi0EEES8_jRKhRdSB_SB_SB_,@function
_Z25compute_intersections_3rdRKN5vmesh12VelocityMeshIjjEERKN5Eigen9TransformIdLi3ELi2ELi0EEES8_jRKhRdSB_SB_SB_: # @_Z25compute_intersections_3rdRKN5vmesh12VelocityMeshIjjEERKN5Eigen9TransformIdLi3ELi2ELi0EEES8_jRKhRdSB_SB_SB_
.Lfunc_begin3:
	.loc	1 314 0                 # vlasovsolver/cpu_acc_intersections.cpp:314:0
	.cfi_startproc
# %bb.0:                                # %L.entry
	#DEBUG_VALUE: compute_intersections_3rd:vmesh <- $rdi
	#DEBUG_VALUE: compute_intersections_3rd:bwd_transform <- $rsi
	#DEBUG_VALUE: compute_intersections_3rd:fwd_transform <- $rdx
	#DEBUG_VALUE: compute_intersections_3rd:dimension <- $ecx
	#DEBUG_VALUE: compute_intersections_3rd:refLevel <- $r8
	#DEBUG_VALUE: compute_intersections_3rd:intersection <- $r9
	pushq	%rbp
	.cfi_def_cfa_offset 16
	.cfi_offset %rbp, -16
	movq	%rsp, %rbp
	.cfi_def_cfa_register %rbp
.Ltmp429:
	#DEBUG_VALUE: vmesh <- $rdi
	#DEBUG_VALUE: bwd_transform <- $rsi
	#DEBUG_VALUE: fwd_transform <- $rdx
	#DEBUG_VALUE: dimension <- $ecx
	#DEBUG_VALUE: refLevel <- $r8
	#DEBUG_VALUE: intersection <- $r9
	movq	16(%rbp), %rax
.Ltmp430:
	#DEBUG_VALUE: intersection_dk <- [DW_OP_plus_uconst 32] [$rbp+0]
	#DEBUG_VALUE: compute_intersections_3rd:intersection_dk <- [DW_OP_plus_uconst 32] [$rbp+0]
	#DEBUG_VALUE: intersection_dj <- [DW_OP_plus_uconst 24] [$rbp+0]
	#DEBUG_VALUE: compute_intersections_3rd:intersection_dj <- [DW_OP_plus_uconst 24] [$rbp+0]
	#DEBUG_VALUE: intersection_di <- [DW_OP_plus_uconst 16] [$rbp+0]
	#DEBUG_VALUE: compute_intersections_3rd:intersection_di <- [DW_OP_plus_uconst 16] [$rbp+0]
	#DEBUG_VALUE: intersection <- $r9
	#DEBUG_VALUE: compute_intersections_3rd:intersection <- $r9
	#DEBUG_VALUE: dimension <- $ecx
	#DEBUG_VALUE: compute_intersections_3rd:dimension <- $ecx
	#DEBUG_VALUE: bwd_transform <- $rsi
	#DEBUG_VALUE: compute_intersections_3rd:bwd_transform <- $rsi
	#DEBUG_VALUE: vmesh <- $rdi
	#DEBUG_VALUE: compute_intersections_3rd:vmesh <- $rdi
	.loc	1 316 1 prologue_end    # vlasovsolver/cpu_acc_intersections.cpp:316:1
	cmpl	$2, %ecx
	je	.LBB3_5
.Ltmp431:
# %bb.1:                                # %L.entry
	#DEBUG_VALUE: compute_intersections_3rd:intersection_di <- [DW_OP_plus_uconst 16] [$rbp+0]
	#DEBUG_VALUE: intersection_di <- [DW_OP_plus_uconst 16] [$rbp+0]
	#DEBUG_VALUE: compute_intersections_3rd:intersection_dj <- [DW_OP_plus_uconst 24] [$rbp+0]
	#DEBUG_VALUE: intersection_dj <- [DW_OP_plus_uconst 24] [$rbp+0]
	#DEBUG_VALUE: compute_intersections_3rd:intersection_dk <- [DW_OP_plus_uconst 32] [$rbp+0]
	#DEBUG_VALUE: intersection_dk <- [DW_OP_plus_uconst 32] [$rbp+0]
	#DEBUG_VALUE: intersection <- $r9
	#DEBUG_VALUE: refLevel <- $r8
	#DEBUG_VALUE: dimension <- $ecx
	#DEBUG_VALUE: fwd_transform <- $rdx
	#DEBUG_VALUE: bwd_transform <- $rsi
	#DEBUG_VALUE: vmesh <- $rdi
	#DEBUG_VALUE: compute_intersections_3rd:intersection <- $r9
	#DEBUG_VALUE: compute_intersections_3rd:refLevel <- $r8
	#DEBUG_VALUE: compute_intersections_3rd:dimension <- $ecx
	#DEBUG_VALUE: compute_intersections_3rd:fwd_transform <- $rdx
	#DEBUG_VALUE: compute_intersections_3rd:bwd_transform <- $rsi
	#DEBUG_VALUE: compute_intersections_3rd:vmesh <- $rdi
	cmpl	$1, %ecx
	je	.LBB3_4
.Ltmp432:
# %bb.2:                                # %L.entry
	#DEBUG_VALUE: compute_intersections_3rd:intersection_di <- [DW_OP_plus_uconst 16] [$rbp+0]
	#DEBUG_VALUE: intersection_di <- [DW_OP_plus_uconst 16] [$rbp+0]
	#DEBUG_VALUE: compute_intersections_3rd:intersection_dj <- [DW_OP_plus_uconst 24] [$rbp+0]
	#DEBUG_VALUE: intersection_dj <- [DW_OP_plus_uconst 24] [$rbp+0]
	#DEBUG_VALUE: compute_intersections_3rd:intersection_dk <- [DW_OP_plus_uconst 32] [$rbp+0]
	#DEBUG_VALUE: intersection_dk <- [DW_OP_plus_uconst 32] [$rbp+0]
	#DEBUG_VALUE: intersection <- $r9
	#DEBUG_VALUE: refLevel <- $r8
	#DEBUG_VALUE: dimension <- $ecx
	#DEBUG_VALUE: fwd_transform <- $rdx
	#DEBUG_VALUE: bwd_transform <- $rsi
	#DEBUG_VALUE: vmesh <- $rdi
	#DEBUG_VALUE: compute_intersections_3rd:intersection <- $r9
	#DEBUG_VALUE: compute_intersections_3rd:refLevel <- $r8
	#DEBUG_VALUE: compute_intersections_3rd:dimension <- $ecx
	#DEBUG_VALUE: compute_intersections_3rd:fwd_transform <- $rdx
	#DEBUG_VALUE: compute_intersections_3rd:bwd_transform <- $rsi
	#DEBUG_VALUE: compute_intersections_3rd:vmesh <- $rdi
	testl	%ecx, %ecx
	jne	.LBB3_8
.Ltmp433:
# %bb.3:                                # %L.B3061
	#DEBUG_VALUE: compute_intersections_3rd:intersection_di <- [DW_OP_plus_uconst 16] [$rbp+0]
	#DEBUG_VALUE: intersection_di <- [DW_OP_plus_uconst 16] [$rbp+0]
	#DEBUG_VALUE: compute_intersections_3rd:intersection_dj <- [DW_OP_plus_uconst 24] [$rbp+0]
	#DEBUG_VALUE: intersection_dj <- [DW_OP_plus_uconst 24] [$rbp+0]
	#DEBUG_VALUE: compute_intersections_3rd:intersection_dk <- [DW_OP_plus_uconst 32] [$rbp+0]
	#DEBUG_VALUE: intersection_dk <- [DW_OP_plus_uconst 32] [$rbp+0]
	#DEBUG_VALUE: intersection <- $r9
	#DEBUG_VALUE: refLevel <- $r8
	#DEBUG_VALUE: dimension <- $ecx
	#DEBUG_VALUE: fwd_transform <- $rdx
	#DEBUG_VALUE: bwd_transform <- $rsi
	#DEBUG_VALUE: vmesh <- $rdi
	#DEBUG_VALUE: compute_intersections_3rd:intersection <- $r9
	#DEBUG_VALUE: compute_intersections_3rd:refLevel <- $r8
	#DEBUG_VALUE: compute_intersections_3rd:dimension <- $ecx
	#DEBUG_VALUE: compute_intersections_3rd:fwd_transform <- $rdx
	#DEBUG_VALUE: compute_intersections_3rd:bwd_transform <- $rsi
	#DEBUG_VALUE: compute_intersections_3rd:vmesh <- $rdi
	.loc	1 407 1                 # vlasovsolver/cpu_acc_intersections.cpp:407:1
	movq	_ZN5vmesh12VelocityMeshIjjE14meshParametersE(%rip), %rcx
.Ltmp434:
	imulq	$336, (%rdi), %rdx      # imm = 0x150
.Ltmp435:
	.loc	1 268 1                 # vlasovsolver/cpu_acc_intersections.cpp:268:1
	vmovsd	120(%rcx,%rdx), %xmm11  # xmm11 = mem[0],zero
	.loc	1 407 1                 # vlasovsolver/cpu_acc_intersections.cpp:407:1
	vmovsd	128(%rcx,%rdx), %xmm10  # xmm10 = mem[0],zero
	vmovsd	200(%rcx,%rdx), %xmm3   # xmm3 = mem[0],zero
	vmovsd	.LCPI3_0(%rip), %xmm4   # xmm4 = mem[0],zero
	vmovapd	%xmm4, %xmm5
	vfmadd213sd	%xmm10, %xmm3, %xmm5 # xmm5 = (xmm3 * xmm5) + xmm10
	vmovsd	136(%rcx,%rdx), %xmm8   # xmm8 = mem[0],zero
	vmovsd	208(%rcx,%rdx), %xmm9   # xmm9 = mem[0],zero
	vfmadd213sd	%xmm8, %xmm9, %xmm4 # xmm4 = (xmm9 * xmm4) + xmm8
.Ltmp436:
	#DEBUG_VALUE: src <- undef
	#DEBUG_VALUE: run:src <- undef
	#DEBUG_VALUE: dst <- undef
	#DEBUG_VALUE: run:dst <- undef
	#DEBUG_VALUE: other <- undef
	#DEBUG_VALUE: lazyAssign:other <- undef
	#DEBUG_VALUE:  <- undef
	#DEBUG_VALUE: lazyAssign: <- undef
	#DEBUG_VALUE: a_startCol <- 3
	#DEBUG_VALUE: BlockImpl:a_startCol <- 3
	#DEBUG_VALUE: a_startRow <- 0
	#DEBUG_VALUE: BlockImpl:a_startRow <- 0
	#DEBUG_VALUE: xpr <- $rsi
	#DEBUG_VALUE: BlockImpl:xpr <- $rsi
	#DEBUG_VALUE:  <- undef
	#DEBUG_VALUE: BlockImpl: <- undef
	#DEBUG_VALUE: other <- undef
	#DEBUG_VALUE: run:other <- undef
	#DEBUG_VALUE: T <- $rsi
	#DEBUG_VALUE: run:T <- $rsi
	.loc	4 505 1                 # /home/talgat/libs/eigen/Eigen/src/Core/Assign.h:505:1
	vmovsd	96(%rsi), %xmm6         # xmm6 = mem[0],zero
.Ltmp437:
	#DEBUG_VALUE: rhs <- undef
	#DEBUG_VALUE: run:rhs <- undef
	#DEBUG_VALUE: lhs <- undef
	#DEBUG_VALUE: run:lhs <- undef
	#DEBUG_VALUE: col <- 0
	#DEBUG_VALUE: run:col <- 0
	#DEBUG_VALUE: row <- 0
	#DEBUG_VALUE: run:row <- 0
	#DEBUG_VALUE: src <- undef
	#DEBUG_VALUE: run:src <- undef
	#DEBUG_VALUE: dst <- undef
	#DEBUG_VALUE: run:dst <- undef
	#DEBUG_VALUE: other <- undef
	#DEBUG_VALUE: operator+=:other <- undef
	#DEBUG_VALUE:  <- undef
	#DEBUG_VALUE: operator+=: <- undef
	#DEBUG_VALUE: point_0_0_0 <- [DW_OP_LLVM_fragment 128 64] undef
	#DEBUG_VALUE: src <- undef
	#DEBUG_VALUE: run:src <- undef
	#DEBUG_VALUE: dst <- undef
	#DEBUG_VALUE: run:dst <- undef
	#DEBUG_VALUE: point_0_0_0 <- [DW_OP_LLVM_fragment 64 64] undef
	#DEBUG_VALUE: src <- undef
	#DEBUG_VALUE: run:src <- undef
	#DEBUG_VALUE: dst <- undef
	#DEBUG_VALUE: run:dst <- undef
	#DEBUG_VALUE: point_0_0_0 <- [DW_OP_LLVM_fragment 0 64] undef
	.loc	6 245 1                 # /home/talgat/libs/eigen/Eigen/src/Core/products/CoeffBasedProduct.h:245:1
	vmovsd	(%rsi), %xmm13          # xmm13 = mem[0],zero
	.loc	6 246 1                 # /home/talgat/libs/eigen/Eigen/src/Core/products/CoeffBasedProduct.h:246:1
	vmovsd	32(%rsi), %xmm14        # xmm14 = mem[0],zero
	.loc	6 245 1                 # /home/talgat/libs/eigen/Eigen/src/Core/products/CoeffBasedProduct.h:245:1
	vmulsd	%xmm13, %xmm11, %xmm12
	.loc	6 246 1                 # /home/talgat/libs/eigen/Eigen/src/Core/products/CoeffBasedProduct.h:246:1
	vmovapd	%xmm14, %xmm2
	vfmadd213sd	%xmm12, %xmm5, %xmm2 # xmm2 = (xmm5 * xmm2) + xmm12
	.loc	6 144 1                 # /home/talgat/libs/eigen/Eigen/src/Core/products/CoeffBasedProduct.h:144:1
	vmovsd	64(%rsi), %xmm7         # xmm7 = mem[0],zero
	vmovapd	%xmm7, %xmm0
	vfmadd213sd	%xmm2, %xmm4, %xmm0 # xmm0 = (xmm4 * xmm0) + xmm2
.Ltmp438:
	.loc	4 144 1 is_stmt 0       # /home/talgat/libs/eigen/Eigen/src/Core/Assign.h:144:1
	vaddsd	%xmm0, %xmm6, %xmm0
.Ltmp439:
	#DEBUG_VALUE: rhs <- undef
	#DEBUG_VALUE: run:rhs <- undef
	#DEBUG_VALUE: lhs <- undef
	#DEBUG_VALUE: run:lhs <- undef
	#DEBUG_VALUE: col <- 0
	#DEBUG_VALUE: run:col <- 0
	#DEBUG_VALUE: row <- 2
	#DEBUG_VALUE: run:row <- 2
	#DEBUG_VALUE: rhs <- undef
	#DEBUG_VALUE: run:rhs <- undef
	#DEBUG_VALUE: lhs <- undef
	#DEBUG_VALUE: run:lhs <- undef
	#DEBUG_VALUE: col <- 0
	#DEBUG_VALUE: run:col <- 0
	#DEBUG_VALUE: row <- 1
	#DEBUG_VALUE: run:row <- 1
	#DEBUG_VALUE: src <- undef
	#DEBUG_VALUE: run:src <- undef
	#DEBUG_VALUE: dst <- undef
	#DEBUG_VALUE: run:dst <- undef
	#DEBUG_VALUE: point_0_0_0 <- [DW_OP_LLVM_fragment 128 64] undef
	#DEBUG_VALUE: point_0_0_0 <- [DW_OP_LLVM_fragment 64 64] undef
	#DEBUG_VALUE: point_0_0_0 <- [DW_OP_LLVM_fragment 0 64] $xmm0
	.loc	1 407 1 is_stmt 1       # vlasovsolver/cpu_acc_intersections.cpp:407:1
	vaddsd	192(%rcx,%rdx), %xmm11, %xmm1
.Ltmp440:
	#DEBUG_VALUE: rhs <- undef
	#DEBUG_VALUE: run:rhs <- undef
	#DEBUG_VALUE: lhs <- undef
	#DEBUG_VALUE: run:lhs <- undef
	#DEBUG_VALUE: col <- 0
	#DEBUG_VALUE: run:col <- 0
	#DEBUG_VALUE: row <- 0
	#DEBUG_VALUE: run:row <- 0
	#DEBUG_VALUE: src <- undef
	#DEBUG_VALUE: run:src <- undef
	#DEBUG_VALUE: dst <- undef
	#DEBUG_VALUE: run:dst <- undef
	#DEBUG_VALUE: other <- undef
	#DEBUG_VALUE: operator+=:other <- undef
	#DEBUG_VALUE:  <- undef
	#DEBUG_VALUE: operator+=: <- undef
	#DEBUG_VALUE: point_1_0_0 <- [DW_OP_LLVM_fragment 128 64] undef
	#DEBUG_VALUE: src <- undef
	#DEBUG_VALUE: run:src <- undef
	#DEBUG_VALUE: dst <- undef
	#DEBUG_VALUE: run:dst <- undef
	#DEBUG_VALUE: point_1_0_0 <- [DW_OP_LLVM_fragment 64 64] undef
	#DEBUG_VALUE: src <- undef
	#DEBUG_VALUE: run:src <- undef
	#DEBUG_VALUE: dst <- undef
	#DEBUG_VALUE: run:dst <- undef
	#DEBUG_VALUE: point_1_0_0 <- [DW_OP_LLVM_fragment 0 64] undef
	#DEBUG_VALUE: src <- undef
	#DEBUG_VALUE: run:src <- undef
	#DEBUG_VALUE: dst <- undef
	#DEBUG_VALUE: run:dst <- undef
	#DEBUG_VALUE: other <- undef
	#DEBUG_VALUE: lazyAssign:other <- undef
	#DEBUG_VALUE:  <- undef
	#DEBUG_VALUE: lazyAssign: <- undef
	#DEBUG_VALUE: a_startCol <- 3
	#DEBUG_VALUE: BlockImpl:a_startCol <- 3
	#DEBUG_VALUE: a_startRow <- 0
	#DEBUG_VALUE: BlockImpl:a_startRow <- 0
	#DEBUG_VALUE: xpr <- undef
	#DEBUG_VALUE: BlockImpl:xpr <- undef
	#DEBUG_VALUE:  <- undef
	#DEBUG_VALUE: BlockImpl: <- undef
	#DEBUG_VALUE: other <- undef
	#DEBUG_VALUE: run:other <- undef
	#DEBUG_VALUE: T <- undef
	#DEBUG_VALUE: run:T <- undef
	.loc	6 245 1                 # /home/talgat/libs/eigen/Eigen/src/Core/products/CoeffBasedProduct.h:245:1
	vmulsd	%xmm1, %xmm13, %xmm1
	.loc	6 246 1                 # /home/talgat/libs/eigen/Eigen/src/Core/products/CoeffBasedProduct.h:246:1
	vfmadd213sd	%xmm1, %xmm14, %xmm5 # xmm5 = (xmm14 * xmm5) + xmm1
	.loc	6 144 1                 # /home/talgat/libs/eigen/Eigen/src/Core/products/CoeffBasedProduct.h:144:1
	vfmadd231sd	%xmm7, %xmm4, %xmm5 # xmm5 = (xmm4 * xmm7) + xmm5
.Ltmp441:
	.loc	4 144 1 is_stmt 0       # /home/talgat/libs/eigen/Eigen/src/Core/Assign.h:144:1
	vaddsd	%xmm5, %xmm6, %xmm5
.Ltmp442:
	#DEBUG_VALUE: point_1_0_0 <- [DW_OP_LLVM_fragment 0 64] $xmm5
	.loc	4 0 1                   # /home/talgat/libs/eigen/Eigen/src/Core/Assign.h:0:1
	vmovsd	.LCPI3_1(%rip), %xmm1   # xmm1 = mem[0],zero
.Ltmp443:
	#DEBUG_VALUE: rhs <- undef
	#DEBUG_VALUE: run:rhs <- undef
	#DEBUG_VALUE: lhs <- undef
	#DEBUG_VALUE: run:lhs <- undef
	#DEBUG_VALUE: col <- 0
	#DEBUG_VALUE: run:col <- 0
	#DEBUG_VALUE: row <- 2
	#DEBUG_VALUE: run:row <- 2
	#DEBUG_VALUE: rhs <- undef
	#DEBUG_VALUE: run:rhs <- undef
	#DEBUG_VALUE: lhs <- undef
	#DEBUG_VALUE: run:lhs <- undef
	#DEBUG_VALUE: col <- 0
	#DEBUG_VALUE: run:col <- 0
	#DEBUG_VALUE: row <- 1
	#DEBUG_VALUE: run:row <- 1
	#DEBUG_VALUE: src <- undef
	#DEBUG_VALUE: run:src <- undef
	#DEBUG_VALUE: dst <- undef
	#DEBUG_VALUE: run:dst <- undef
	#DEBUG_VALUE: point_1_0_0 <- [DW_OP_LLVM_fragment 128 64] undef
	#DEBUG_VALUE: point_1_0_0 <- [DW_OP_LLVM_fragment 64 64] undef
	.loc	1 407 1 is_stmt 1       # vlasovsolver/cpu_acc_intersections.cpp:407:1
	vfmadd213sd	%xmm10, %xmm1, %xmm3 # xmm3 = (xmm1 * xmm3) + xmm10
.Ltmp444:
	#DEBUG_VALUE: rhs <- undef
	#DEBUG_VALUE: run:rhs <- undef
	#DEBUG_VALUE: lhs <- undef
	#DEBUG_VALUE: run:lhs <- undef
	#DEBUG_VALUE: col <- 0
	#DEBUG_VALUE: run:col <- 0
	#DEBUG_VALUE: row <- 0
	#DEBUG_VALUE: run:row <- 0
	#DEBUG_VALUE: src <- undef
	#DEBUG_VALUE: run:src <- undef
	#DEBUG_VALUE: dst <- undef
	#DEBUG_VALUE: run:dst <- undef
	#DEBUG_VALUE: other <- undef
	#DEBUG_VALUE: operator+=:other <- undef
	#DEBUG_VALUE:  <- undef
	#DEBUG_VALUE: operator+=: <- undef
	#DEBUG_VALUE: point_0_1_0 <- [DW_OP_LLVM_fragment 128 64] undef
	#DEBUG_VALUE: src <- undef
	#DEBUG_VALUE: run:src <- undef
	#DEBUG_VALUE: dst <- undef
	#DEBUG_VALUE: run:dst <- undef
	#DEBUG_VALUE: point_0_1_0 <- [DW_OP_LLVM_fragment 64 64] undef
	#DEBUG_VALUE: src <- undef
	#DEBUG_VALUE: run:src <- undef
	#DEBUG_VALUE: dst <- undef
	#DEBUG_VALUE: run:dst <- undef
	#DEBUG_VALUE: point_0_1_0 <- [DW_OP_LLVM_fragment 0 64] undef
	#DEBUG_VALUE: src <- undef
	#DEBUG_VALUE: run:src <- undef
	#DEBUG_VALUE: dst <- undef
	#DEBUG_VALUE: run:dst <- undef
	#DEBUG_VALUE: other <- undef
	#DEBUG_VALUE: lazyAssign:other <- undef
	#DEBUG_VALUE:  <- undef
	#DEBUG_VALUE: lazyAssign: <- undef
	#DEBUG_VALUE: a_startCol <- 3
	#DEBUG_VALUE: BlockImpl:a_startCol <- 3
	#DEBUG_VALUE: a_startRow <- 0
	#DEBUG_VALUE: BlockImpl:a_startRow <- 0
	#DEBUG_VALUE: xpr <- undef
	#DEBUG_VALUE: BlockImpl:xpr <- undef
	#DEBUG_VALUE:  <- undef
	#DEBUG_VALUE: BlockImpl: <- undef
	#DEBUG_VALUE: other <- undef
	#DEBUG_VALUE: run:other <- undef
	#DEBUG_VALUE: T <- undef
	#DEBUG_VALUE: run:T <- undef
	.loc	6 246 1                 # /home/talgat/libs/eigen/Eigen/src/Core/products/CoeffBasedProduct.h:246:1
	vfmadd213sd	%xmm12, %xmm14, %xmm3 # xmm3 = (xmm14 * xmm3) + xmm12
	.loc	6 144 1                 # /home/talgat/libs/eigen/Eigen/src/Core/products/CoeffBasedProduct.h:144:1
	vfmadd213sd	%xmm3, %xmm7, %xmm4 # xmm4 = (xmm7 * xmm4) + xmm3
.Ltmp445:
	.loc	4 144 1 is_stmt 0       # /home/talgat/libs/eigen/Eigen/src/Core/Assign.h:144:1
	vaddsd	%xmm4, %xmm6, %xmm3
.Ltmp446:
	#DEBUG_VALUE: rhs <- undef
	#DEBUG_VALUE: run:rhs <- undef
	#DEBUG_VALUE: lhs <- undef
	#DEBUG_VALUE: run:lhs <- undef
	#DEBUG_VALUE: col <- 0
	#DEBUG_VALUE: run:col <- 0
	#DEBUG_VALUE: row <- 2
	#DEBUG_VALUE: run:row <- 2
	#DEBUG_VALUE: rhs <- undef
	#DEBUG_VALUE: run:rhs <- undef
	#DEBUG_VALUE: lhs <- undef
	#DEBUG_VALUE: run:lhs <- undef
	#DEBUG_VALUE: col <- 0
	#DEBUG_VALUE: run:col <- 0
	#DEBUG_VALUE: row <- 1
	#DEBUG_VALUE: run:row <- 1
	#DEBUG_VALUE: src <- undef
	#DEBUG_VALUE: run:src <- undef
	#DEBUG_VALUE: dst <- undef
	#DEBUG_VALUE: run:dst <- undef
	#DEBUG_VALUE: point_0_1_0 <- [DW_OP_LLVM_fragment 128 64] undef
	#DEBUG_VALUE: point_0_1_0 <- [DW_OP_LLVM_fragment 64 64] undef
	#DEBUG_VALUE: point_0_1_0 <- [DW_OP_LLVM_fragment 0 64] $xmm3
	.loc	1 407 1 is_stmt 1       # vlasovsolver/cpu_acc_intersections.cpp:407:1
	vfmadd213sd	%xmm8, %xmm9, %xmm1 # xmm1 = (xmm9 * xmm1) + xmm8
.Ltmp447:
	#DEBUG_VALUE: rhs <- undef
	#DEBUG_VALUE: run:rhs <- undef
	#DEBUG_VALUE: lhs <- undef
	#DEBUG_VALUE: run:lhs <- undef
	#DEBUG_VALUE: col <- 0
	#DEBUG_VALUE: run:col <- 0
	#DEBUG_VALUE: row <- 0
	#DEBUG_VALUE: run:row <- 0
	#DEBUG_VALUE: src <- undef
	#DEBUG_VALUE: run:src <- undef
	#DEBUG_VALUE: dst <- undef
	#DEBUG_VALUE: run:dst <- undef
	#DEBUG_VALUE: other <- undef
	#DEBUG_VALUE: operator+=:other <- undef
	#DEBUG_VALUE:  <- undef
	#DEBUG_VALUE: operator+=: <- undef
	#DEBUG_VALUE: point_0_0_1 <- [DW_OP_LLVM_fragment 128 64] undef
	#DEBUG_VALUE: src <- undef
	#DEBUG_VALUE: run:src <- undef
	#DEBUG_VALUE: dst <- undef
	#DEBUG_VALUE: run:dst <- undef
	#DEBUG_VALUE: point_0_0_1 <- [DW_OP_LLVM_fragment 64 64] undef
	#DEBUG_VALUE: src <- undef
	#DEBUG_VALUE: run:src <- undef
	#DEBUG_VALUE: dst <- undef
	#DEBUG_VALUE: run:dst <- undef
	#DEBUG_VALUE: point_0_0_1 <- [DW_OP_LLVM_fragment 0 64] undef
	#DEBUG_VALUE: src <- undef
	#DEBUG_VALUE: run:src <- undef
	#DEBUG_VALUE: dst <- undef
	#DEBUG_VALUE: run:dst <- undef
	#DEBUG_VALUE: other <- undef
	#DEBUG_VALUE: lazyAssign:other <- undef
	#DEBUG_VALUE:  <- undef
	#DEBUG_VALUE: lazyAssign: <- undef
	#DEBUG_VALUE: a_startCol <- 3
	#DEBUG_VALUE: BlockImpl:a_startCol <- 3
	#DEBUG_VALUE: a_startRow <- 0
	#DEBUG_VALUE: BlockImpl:a_startRow <- 0
	#DEBUG_VALUE: xpr <- undef
	#DEBUG_VALUE: BlockImpl:xpr <- undef
	#DEBUG_VALUE:  <- undef
	#DEBUG_VALUE: BlockImpl: <- undef
	#DEBUG_VALUE: other <- undef
	#DEBUG_VALUE: run:other <- undef
	#DEBUG_VALUE: T <- undef
	#DEBUG_VALUE: run:T <- undef
	.loc	6 144 1                 # /home/talgat/libs/eigen/Eigen/src/Core/products/CoeffBasedProduct.h:144:1
	vfmadd213sd	%xmm2, %xmm7, %xmm1 # xmm1 = (xmm7 * xmm1) + xmm2
.Ltmp448:
	.loc	4 144 1 is_stmt 0       # /home/talgat/libs/eigen/Eigen/src/Core/Assign.h:144:1
	vaddsd	%xmm1, %xmm6, %xmm1
.Ltmp449:
	#DEBUG_VALUE: rhs <- undef
	#DEBUG_VALUE: run:rhs <- undef
	#DEBUG_VALUE: lhs <- undef
	#DEBUG_VALUE: run:lhs <- undef
	#DEBUG_VALUE: col <- 0
	#DEBUG_VALUE: run:col <- 0
	#DEBUG_VALUE: row <- 2
	#DEBUG_VALUE: run:row <- 2
	#DEBUG_VALUE: rhs <- undef
	#DEBUG_VALUE: run:rhs <- undef
	#DEBUG_VALUE: lhs <- undef
	#DEBUG_VALUE: run:lhs <- undef
	#DEBUG_VALUE: col <- 0
	#DEBUG_VALUE: run:col <- 0
	#DEBUG_VALUE: row <- 1
	#DEBUG_VALUE: run:row <- 1
	#DEBUG_VALUE: src <- undef
	#DEBUG_VALUE: run:src <- undef
	#DEBUG_VALUE: dst <- undef
	#DEBUG_VALUE: run:dst <- undef
	#DEBUG_VALUE: point_0_0_1 <- [DW_OP_LLVM_fragment 128 64] undef
	#DEBUG_VALUE: point_0_0_1 <- [DW_OP_LLVM_fragment 64 64] undef
	#DEBUG_VALUE: point_0_0_1 <- [DW_OP_LLVM_fragment 0 64] $xmm1
	.loc	1 158 1 is_stmt 1       # vlasovsolver/cpu_acc_intersections.cpp:158:1
	vmovsd	%xmm0, (%r9)
	vsubsd	%xmm0, %xmm5, %xmm2
	jmp	.LBB3_6
.Ltmp450:
.LBB3_5:                                # %L.B3063
	#DEBUG_VALUE: compute_intersections_3rd:intersection_di <- [DW_OP_plus_uconst 16] [$rbp+0]
	#DEBUG_VALUE: intersection_di <- [DW_OP_plus_uconst 16] [$rbp+0]
	#DEBUG_VALUE: compute_intersections_3rd:intersection_dj <- [DW_OP_plus_uconst 24] [$rbp+0]
	#DEBUG_VALUE: intersection_dj <- [DW_OP_plus_uconst 24] [$rbp+0]
	#DEBUG_VALUE: compute_intersections_3rd:intersection_dk <- [DW_OP_plus_uconst 32] [$rbp+0]
	#DEBUG_VALUE: intersection_dk <- [DW_OP_plus_uconst 32] [$rbp+0]
	#DEBUG_VALUE: intersection <- $r9
	#DEBUG_VALUE: refLevel <- $r8
	#DEBUG_VALUE: dimension <- $ecx
	#DEBUG_VALUE: fwd_transform <- $rdx
	#DEBUG_VALUE: bwd_transform <- $rsi
	#DEBUG_VALUE: vmesh <- $rdi
	#DEBUG_VALUE: compute_intersections_3rd:intersection <- $r9
	#DEBUG_VALUE: compute_intersections_3rd:refLevel <- $r8
	#DEBUG_VALUE: compute_intersections_3rd:dimension <- $ecx
	#DEBUG_VALUE: compute_intersections_3rd:fwd_transform <- $rdx
	#DEBUG_VALUE: compute_intersections_3rd:bwd_transform <- $rsi
	#DEBUG_VALUE: compute_intersections_3rd:vmesh <- $rdi
	.loc	1 407 1                 # vlasovsolver/cpu_acc_intersections.cpp:407:1
	movq	_ZN5vmesh12VelocityMeshIjjE14meshParametersE(%rip), %rcx
.Ltmp451:
	imulq	$336, (%rdi), %rdx      # imm = 0x150
.Ltmp452:
	vmovsd	192(%rcx,%rdx), %xmm0   # xmm0 = mem[0],zero
	vmovsd	120(%rcx,%rdx), %xmm10  # xmm10 = mem[0],zero
	vmovsd	128(%rcx,%rdx), %xmm8   # xmm8 = mem[0],zero
	vmovsd	.LCPI3_0(%rip), %xmm1   # xmm1 = mem[0],zero
	vmovapd	%xmm1, %xmm4
	vfmadd213sd	%xmm10, %xmm0, %xmm4 # xmm4 = (xmm0 * xmm4) + xmm10
	vmovsd	200(%rcx,%rdx), %xmm9   # xmm9 = mem[0],zero
	vfmadd213sd	%xmm8, %xmm9, %xmm1 # xmm1 = (xmm9 * xmm1) + xmm8
	vmovsd	136(%rcx,%rdx), %xmm6   # xmm6 = mem[0],zero
.Ltmp453:
	#DEBUG_VALUE: src <- undef
	#DEBUG_VALUE: run:src <- undef
	#DEBUG_VALUE: dst <- undef
	#DEBUG_VALUE: run:dst <- undef
	#DEBUG_VALUE: point_0_0_0 <- [DW_OP_LLVM_fragment 64 64] undef
	#DEBUG_VALUE: src <- undef
	#DEBUG_VALUE: run:src <- undef
	#DEBUG_VALUE: dst <- undef
	#DEBUG_VALUE: run:dst <- undef
	#DEBUG_VALUE: point_0_0_0 <- [DW_OP_LLVM_fragment 0 64] undef
	#DEBUG_VALUE: src <- undef
	#DEBUG_VALUE: run:src <- undef
	#DEBUG_VALUE: dst <- undef
	#DEBUG_VALUE: run:dst <- undef
	#DEBUG_VALUE: other <- undef
	#DEBUG_VALUE: lazyAssign:other <- undef
	#DEBUG_VALUE:  <- undef
	#DEBUG_VALUE: lazyAssign: <- undef
	#DEBUG_VALUE: a_startCol <- 3
	#DEBUG_VALUE: BlockImpl:a_startCol <- 3
	#DEBUG_VALUE: a_startRow <- 0
	#DEBUG_VALUE: BlockImpl:a_startRow <- 0
	#DEBUG_VALUE: xpr <- $rsi
	#DEBUG_VALUE: BlockImpl:xpr <- $rsi
	#DEBUG_VALUE:  <- undef
	#DEBUG_VALUE: BlockImpl: <- undef
	#DEBUG_VALUE: other <- undef
	#DEBUG_VALUE: run:other <- undef
	#DEBUG_VALUE: T <- $rsi
	#DEBUG_VALUE: run:T <- $rsi
	.loc	4 505 1                 # /home/talgat/libs/eigen/Eigen/src/Core/Assign.h:505:1
	vmovsd	112(%rsi), %xmm7        # xmm7 = mem[0],zero
.Ltmp454:
	#DEBUG_VALUE: rhs <- undef
	#DEBUG_VALUE: run:rhs <- undef
	#DEBUG_VALUE: lhs <- undef
	#DEBUG_VALUE: run:lhs <- undef
	#DEBUG_VALUE: col <- 0
	#DEBUG_VALUE: run:col <- 0
	#DEBUG_VALUE: row <- 2
	#DEBUG_VALUE: run:row <- 2
	#DEBUG_VALUE: rhs <- undef
	#DEBUG_VALUE: run:rhs <- undef
	#DEBUG_VALUE: lhs <- undef
	#DEBUG_VALUE: run:lhs <- undef
	#DEBUG_VALUE: col <- 0
	#DEBUG_VALUE: run:col <- 0
	#DEBUG_VALUE: row <- 1
	#DEBUG_VALUE: run:row <- 1
	#DEBUG_VALUE: src <- undef
	#DEBUG_VALUE: run:src <- undef
	#DEBUG_VALUE: dst <- undef
	#DEBUG_VALUE: run:dst <- undef
	#DEBUG_VALUE: rhs <- undef
	#DEBUG_VALUE: run:rhs <- undef
	#DEBUG_VALUE: lhs <- undef
	#DEBUG_VALUE: run:lhs <- undef
	#DEBUG_VALUE: col <- 0
	#DEBUG_VALUE: run:col <- 0
	#DEBUG_VALUE: row <- 0
	#DEBUG_VALUE: run:row <- 0
	#DEBUG_VALUE: src <- undef
	#DEBUG_VALUE: run:src <- undef
	#DEBUG_VALUE: dst <- undef
	#DEBUG_VALUE: run:dst <- undef
	#DEBUG_VALUE: other <- undef
	#DEBUG_VALUE: operator+=:other <- undef
	#DEBUG_VALUE:  <- undef
	#DEBUG_VALUE: operator+=: <- undef
	#DEBUG_VALUE: point_0_0_0 <- [DW_OP_LLVM_fragment 128 64] undef
	#DEBUG_VALUE: point_0_0_0 <- [DW_OP_LLVM_fragment 64 64] undef
	#DEBUG_VALUE: point_0_0_0 <- [DW_OP_LLVM_fragment 0 64] undef
	.loc	6 245 1                 # /home/talgat/libs/eigen/Eigen/src/Core/products/CoeffBasedProduct.h:245:1
	vmovsd	16(%rsi), %xmm12        # xmm12 = mem[0],zero
	.loc	6 246 1                 # /home/talgat/libs/eigen/Eigen/src/Core/products/CoeffBasedProduct.h:246:1
	vmovsd	48(%rsi), %xmm2         # xmm2 = mem[0],zero
	.loc	6 245 1                 # /home/talgat/libs/eigen/Eigen/src/Core/products/CoeffBasedProduct.h:245:1
	vmulsd	%xmm12, %xmm4, %xmm11
	.loc	6 246 1                 # /home/talgat/libs/eigen/Eigen/src/Core/products/CoeffBasedProduct.h:246:1
	vmovapd	%xmm2, %xmm5
	vfmadd213sd	%xmm11, %xmm1, %xmm5 # xmm5 = (xmm1 * xmm5) + xmm11
	.loc	6 144 1                 # /home/talgat/libs/eigen/Eigen/src/Core/products/CoeffBasedProduct.h:144:1
	vmovsd	80(%rsi), %xmm4         # xmm4 = mem[0],zero
	vmovsd	.LCPI3_1(%rip), %xmm3   # xmm3 = mem[0],zero
.Ltmp455:
	.loc	1 407 1                 # vlasovsolver/cpu_acc_intersections.cpp:407:1
	vfmadd213sd	%xmm10, %xmm3, %xmm0 # xmm0 = (xmm3 * xmm0) + xmm10
.Ltmp456:
	#DEBUG_VALUE: rhs <- undef
	#DEBUG_VALUE: run:rhs <- undef
	#DEBUG_VALUE: lhs <- undef
	#DEBUG_VALUE: run:lhs <- undef
	#DEBUG_VALUE: col <- 0
	#DEBUG_VALUE: run:col <- 0
	#DEBUG_VALUE: row <- 2
	#DEBUG_VALUE: run:row <- 2
	#DEBUG_VALUE: rhs <- undef
	#DEBUG_VALUE: run:rhs <- undef
	#DEBUG_VALUE: lhs <- undef
	#DEBUG_VALUE: run:lhs <- undef
	#DEBUG_VALUE: col <- 0
	#DEBUG_VALUE: run:col <- 0
	#DEBUG_VALUE: row <- 1
	#DEBUG_VALUE: run:row <- 1
	#DEBUG_VALUE: src <- undef
	#DEBUG_VALUE: run:src <- undef
	#DEBUG_VALUE: dst <- undef
	#DEBUG_VALUE: run:dst <- undef
	#DEBUG_VALUE: rhs <- undef
	#DEBUG_VALUE: run:rhs <- undef
	#DEBUG_VALUE: lhs <- undef
	#DEBUG_VALUE: run:lhs <- undef
	#DEBUG_VALUE: col <- 0
	#DEBUG_VALUE: run:col <- 0
	#DEBUG_VALUE: row <- 0
	#DEBUG_VALUE: run:row <- 0
	#DEBUG_VALUE: src <- undef
	#DEBUG_VALUE: run:src <- undef
	#DEBUG_VALUE: dst <- undef
	#DEBUG_VALUE: run:dst <- undef
	#DEBUG_VALUE: other <- undef
	#DEBUG_VALUE: operator+=:other <- undef
	#DEBUG_VALUE:  <- undef
	#DEBUG_VALUE: operator+=: <- undef
	#DEBUG_VALUE: point_1_0_0 <- [DW_OP_LLVM_fragment 128 64] undef
	#DEBUG_VALUE: src <- undef
	#DEBUG_VALUE: run:src <- undef
	#DEBUG_VALUE: dst <- undef
	#DEBUG_VALUE: run:dst <- undef
	#DEBUG_VALUE: point_1_0_0 <- [DW_OP_LLVM_fragment 64 64] undef
	#DEBUG_VALUE: src <- undef
	#DEBUG_VALUE: run:src <- undef
	#DEBUG_VALUE: dst <- undef
	#DEBUG_VALUE: run:dst <- undef
	#DEBUG_VALUE: point_1_0_0 <- [DW_OP_LLVM_fragment 0 64] undef
	#DEBUG_VALUE: src <- undef
	#DEBUG_VALUE: run:src <- undef
	#DEBUG_VALUE: dst <- undef
	#DEBUG_VALUE: run:dst <- undef
	#DEBUG_VALUE: other <- undef
	#DEBUG_VALUE: lazyAssign:other <- undef
	#DEBUG_VALUE:  <- undef
	#DEBUG_VALUE: lazyAssign: <- undef
	#DEBUG_VALUE: a_startCol <- 3
	#DEBUG_VALUE: BlockImpl:a_startCol <- 3
	#DEBUG_VALUE: a_startRow <- 0
	#DEBUG_VALUE: BlockImpl:a_startRow <- 0
	#DEBUG_VALUE: xpr <- undef
	#DEBUG_VALUE: BlockImpl:xpr <- undef
	#DEBUG_VALUE:  <- undef
	#DEBUG_VALUE: BlockImpl: <- undef
	#DEBUG_VALUE: other <- undef
	#DEBUG_VALUE: run:other <- undef
	#DEBUG_VALUE: T <- undef
	#DEBUG_VALUE: run:T <- undef
	.loc	6 245 1                 # /home/talgat/libs/eigen/Eigen/src/Core/products/CoeffBasedProduct.h:245:1
	vmulsd	%xmm12, %xmm0, %xmm0
	.loc	6 246 1                 # /home/talgat/libs/eigen/Eigen/src/Core/products/CoeffBasedProduct.h:246:1
	vfmadd213sd	%xmm0, %xmm2, %xmm1 # xmm1 = (xmm2 * xmm1) + xmm0
	.loc	6 144 1                 # /home/talgat/libs/eigen/Eigen/src/Core/products/CoeffBasedProduct.h:144:1
	vfmadd231sd	%xmm4, %xmm6, %xmm1 # xmm1 = (xmm6 * xmm4) + xmm1
.Ltmp457:
	.loc	1 407 1                 # vlasovsolver/cpu_acc_intersections.cpp:407:1
	vfmadd213sd	%xmm8, %xmm9, %xmm3 # xmm3 = (xmm9 * xmm3) + xmm8
.Ltmp458:
	#DEBUG_VALUE: rhs <- undef
	#DEBUG_VALUE: run:rhs <- undef
	#DEBUG_VALUE: lhs <- undef
	#DEBUG_VALUE: run:lhs <- undef
	#DEBUG_VALUE: col <- 0
	#DEBUG_VALUE: run:col <- 0
	#DEBUG_VALUE: row <- 2
	#DEBUG_VALUE: run:row <- 2
	#DEBUG_VALUE: rhs <- undef
	#DEBUG_VALUE: run:rhs <- undef
	#DEBUG_VALUE: lhs <- undef
	#DEBUG_VALUE: run:lhs <- undef
	#DEBUG_VALUE: col <- 0
	#DEBUG_VALUE: run:col <- 0
	#DEBUG_VALUE: row <- 1
	#DEBUG_VALUE: run:row <- 1
	#DEBUG_VALUE: src <- undef
	#DEBUG_VALUE: run:src <- undef
	#DEBUG_VALUE: dst <- undef
	#DEBUG_VALUE: run:dst <- undef
	#DEBUG_VALUE: rhs <- undef
	#DEBUG_VALUE: run:rhs <- undef
	#DEBUG_VALUE: lhs <- undef
	#DEBUG_VALUE: run:lhs <- undef
	#DEBUG_VALUE: col <- 0
	#DEBUG_VALUE: run:col <- 0
	#DEBUG_VALUE: row <- 0
	#DEBUG_VALUE: run:row <- 0
	#DEBUG_VALUE: src <- undef
	#DEBUG_VALUE: run:src <- undef
	#DEBUG_VALUE: dst <- undef
	#DEBUG_VALUE: run:dst <- undef
	#DEBUG_VALUE: other <- undef
	#DEBUG_VALUE: operator+=:other <- undef
	#DEBUG_VALUE:  <- undef
	#DEBUG_VALUE: operator+=: <- undef
	#DEBUG_VALUE: point_0_1_0 <- [DW_OP_LLVM_fragment 128 64] undef
	#DEBUG_VALUE: src <- undef
	#DEBUG_VALUE: run:src <- undef
	#DEBUG_VALUE: dst <- undef
	#DEBUG_VALUE: run:dst <- undef
	#DEBUG_VALUE: point_0_1_0 <- [DW_OP_LLVM_fragment 64 64] undef
	#DEBUG_VALUE: src <- undef
	#DEBUG_VALUE: run:src <- undef
	#DEBUG_VALUE: dst <- undef
	#DEBUG_VALUE: run:dst <- undef
	#DEBUG_VALUE: point_0_1_0 <- [DW_OP_LLVM_fragment 0 64] undef
	#DEBUG_VALUE: src <- undef
	#DEBUG_VALUE: run:src <- undef
	#DEBUG_VALUE: dst <- undef
	#DEBUG_VALUE: run:dst <- undef
	#DEBUG_VALUE: other <- undef
	#DEBUG_VALUE: lazyAssign:other <- undef
	#DEBUG_VALUE:  <- undef
	#DEBUG_VALUE: lazyAssign: <- undef
	#DEBUG_VALUE: a_startCol <- 3
	#DEBUG_VALUE: BlockImpl:a_startCol <- 3
	#DEBUG_VALUE: a_startRow <- 0
	#DEBUG_VALUE: BlockImpl:a_startRow <- 0
	#DEBUG_VALUE: xpr <- undef
	#DEBUG_VALUE: BlockImpl:xpr <- undef
	#DEBUG_VALUE:  <- undef
	#DEBUG_VALUE: BlockImpl: <- undef
	#DEBUG_VALUE: other <- undef
	#DEBUG_VALUE: run:other <- undef
	#DEBUG_VALUE: T <- undef
	#DEBUG_VALUE: run:T <- undef
	.loc	6 246 1                 # /home/talgat/libs/eigen/Eigen/src/Core/products/CoeffBasedProduct.h:246:1
	vfmadd213sd	%xmm11, %xmm2, %xmm3 # xmm3 = (xmm2 * xmm3) + xmm11
	.loc	6 144 1                 # /home/talgat/libs/eigen/Eigen/src/Core/products/CoeffBasedProduct.h:144:1
	vfmadd231sd	%xmm4, %xmm6, %xmm3 # xmm3 = (xmm6 * xmm4) + xmm3
.Ltmp459:
	.loc	1 407 1                 # vlasovsolver/cpu_acc_intersections.cpp:407:1
	vaddsd	208(%rcx,%rdx), %xmm6, %xmm2
.Ltmp460:
	#DEBUG_VALUE: rhs <- undef
	#DEBUG_VALUE: run:rhs <- undef
	#DEBUG_VALUE: lhs <- undef
	#DEBUG_VALUE: run:lhs <- undef
	#DEBUG_VALUE: col <- 0
	#DEBUG_VALUE: run:col <- 0
	#DEBUG_VALUE: row <- 2
	#DEBUG_VALUE: run:row <- 2
	#DEBUG_VALUE: rhs <- undef
	#DEBUG_VALUE: run:rhs <- undef
	#DEBUG_VALUE: lhs <- undef
	#DEBUG_VALUE: run:lhs <- undef
	#DEBUG_VALUE: col <- 0
	#DEBUG_VALUE: run:col <- 0
	#DEBUG_VALUE: row <- 1
	#DEBUG_VALUE: run:row <- 1
	#DEBUG_VALUE: src <- undef
	#DEBUG_VALUE: run:src <- undef
	#DEBUG_VALUE: dst <- undef
	#DEBUG_VALUE: run:dst <- undef
	#DEBUG_VALUE: rhs <- undef
	#DEBUG_VALUE: run:rhs <- undef
	#DEBUG_VALUE: lhs <- undef
	#DEBUG_VALUE: run:lhs <- undef
	#DEBUG_VALUE: col <- 0
	#DEBUG_VALUE: run:col <- 0
	#DEBUG_VALUE: row <- 0
	#DEBUG_VALUE: run:row <- 0
	#DEBUG_VALUE: src <- undef
	#DEBUG_VALUE: run:src <- undef
	#DEBUG_VALUE: dst <- undef
	#DEBUG_VALUE: run:dst <- undef
	#DEBUG_VALUE: other <- undef
	#DEBUG_VALUE: operator+=:other <- undef
	#DEBUG_VALUE:  <- undef
	#DEBUG_VALUE: operator+=: <- undef
	#DEBUG_VALUE: point_0_0_1 <- [DW_OP_LLVM_fragment 128 64] undef
	#DEBUG_VALUE: src <- undef
	#DEBUG_VALUE: run:src <- undef
	#DEBUG_VALUE: dst <- undef
	#DEBUG_VALUE: run:dst <- undef
	#DEBUG_VALUE: point_0_0_1 <- [DW_OP_LLVM_fragment 64 64] undef
	#DEBUG_VALUE: src <- undef
	#DEBUG_VALUE: run:src <- undef
	#DEBUG_VALUE: dst <- undef
	#DEBUG_VALUE: run:dst <- undef
	#DEBUG_VALUE: point_0_0_1 <- [DW_OP_LLVM_fragment 0 64] undef
	#DEBUG_VALUE: src <- undef
	#DEBUG_VALUE: run:src <- undef
	#DEBUG_VALUE: dst <- undef
	#DEBUG_VALUE: run:dst <- undef
	#DEBUG_VALUE: other <- undef
	#DEBUG_VALUE: lazyAssign:other <- undef
	#DEBUG_VALUE:  <- undef
	#DEBUG_VALUE: lazyAssign: <- undef
	#DEBUG_VALUE: a_startCol <- 3
	#DEBUG_VALUE: BlockImpl:a_startCol <- 3
	#DEBUG_VALUE: a_startRow <- 0
	#DEBUG_VALUE: BlockImpl:a_startRow <- 0
	#DEBUG_VALUE: xpr <- undef
	#DEBUG_VALUE: BlockImpl:xpr <- undef
	#DEBUG_VALUE:  <- undef
	#DEBUG_VALUE: BlockImpl: <- undef
	#DEBUG_VALUE: other <- undef
	#DEBUG_VALUE: run:other <- undef
	#DEBUG_VALUE: T <- undef
	#DEBUG_VALUE: run:T <- undef
	.loc	6 144 1                 # /home/talgat/libs/eigen/Eigen/src/Core/products/CoeffBasedProduct.h:144:1
	vfmadd213sd	%xmm5, %xmm4, %xmm2 # xmm2 = (xmm4 * xmm2) + xmm5
.Ltmp461:
	#DEBUG_VALUE: col <- 0
	#DEBUG_VALUE: run:col <- 0
	#DEBUG_VALUE: row <- 2
	#DEBUG_VALUE: run:row <- 2
	.loc	6 144 1 is_stmt 0       # /home/talgat/libs/eigen/Eigen/src/Core/products/CoeffBasedProduct.h:144:1
	vfmadd213sd	%xmm5, %xmm6, %xmm4 # xmm4 = (xmm6 * xmm4) + xmm5
.Ltmp462:
	.loc	4 144 1                 # /home/talgat/libs/eigen/Eigen/src/Core/Assign.h:144:1
	vaddsd	%xmm4, %xmm7, %xmm0
.Ltmp463:
	#DEBUG_VALUE: point_0_0_0 <- [DW_OP_LLVM_fragment 128 64] $xmm0
	.loc	4 144 1                 # /home/talgat/libs/eigen/Eigen/src/Core/Assign.h:144:1
	vaddsd	%xmm1, %xmm7, %xmm4
.Ltmp464:
	#DEBUG_VALUE: point_1_0_0 <- [DW_OP_LLVM_fragment 128 64] $xmm4
	.loc	4 144 1                 # /home/talgat/libs/eigen/Eigen/src/Core/Assign.h:144:1
	vaddsd	%xmm3, %xmm7, %xmm3
.Ltmp465:
	#DEBUG_VALUE: point_0_1_0 <- [DW_OP_LLVM_fragment 128 64] $xmm3
	.loc	4 144 1                 # /home/talgat/libs/eigen/Eigen/src/Core/Assign.h:144:1
	vaddsd	%xmm2, %xmm7, %xmm1
.Ltmp466:
	#DEBUG_VALUE: point_0_0_1 <- [DW_OP_LLVM_fragment 128 64] $xmm1
	.loc	1 158 1 is_stmt 1       # vlasovsolver/cpu_acc_intersections.cpp:158:1
	vmovsd	%xmm0, (%r9)
	vsubsd	%xmm0, %xmm4, %xmm2
.Ltmp467:
.LBB3_6:                                # %L.B0024.sink.split
	#DEBUG_VALUE: compute_intersections_3rd:intersection_di <- [DW_OP_plus_uconst 16] [$rbp+0]
	#DEBUG_VALUE: intersection_di <- [DW_OP_plus_uconst 16] [$rbp+0]
	#DEBUG_VALUE: compute_intersections_3rd:intersection_dj <- [DW_OP_plus_uconst 24] [$rbp+0]
	#DEBUG_VALUE: intersection_dj <- [DW_OP_plus_uconst 24] [$rbp+0]
	#DEBUG_VALUE: compute_intersections_3rd:intersection_dk <- [DW_OP_plus_uconst 32] [$rbp+0]
	#DEBUG_VALUE: intersection_dk <- [DW_OP_plus_uconst 32] [$rbp+0]
	#DEBUG_VALUE: intersection <- $r9
	#DEBUG_VALUE: refLevel <- $r8
	#DEBUG_VALUE: bwd_transform <- $rsi
	#DEBUG_VALUE: vmesh <- $rdi
	#DEBUG_VALUE: compute_intersections_3rd:intersection <- $r9
	#DEBUG_VALUE: compute_intersections_3rd:refLevel <- $r8
	#DEBUG_VALUE: compute_intersections_3rd:bwd_transform <- $rsi
	#DEBUG_VALUE: compute_intersections_3rd:vmesh <- $rdi
	vmovsd	%xmm2, (%rax)
	vsubsd	%xmm0, %xmm3, %xmm2
	jmp	.LBB3_7
.Ltmp468:
.LBB3_4:                                # %L.B3062
	#DEBUG_VALUE: compute_intersections_3rd:intersection_di <- [DW_OP_plus_uconst 16] [$rbp+0]
	#DEBUG_VALUE: intersection_di <- [DW_OP_plus_uconst 16] [$rbp+0]
	#DEBUG_VALUE: compute_intersections_3rd:intersection_dj <- [DW_OP_plus_uconst 24] [$rbp+0]
	#DEBUG_VALUE: intersection_dj <- [DW_OP_plus_uconst 24] [$rbp+0]
	#DEBUG_VALUE: compute_intersections_3rd:intersection_dk <- [DW_OP_plus_uconst 32] [$rbp+0]
	#DEBUG_VALUE: intersection_dk <- [DW_OP_plus_uconst 32] [$rbp+0]
	#DEBUG_VALUE: intersection <- $r9
	#DEBUG_VALUE: refLevel <- $r8
	#DEBUG_VALUE: dimension <- $ecx
	#DEBUG_VALUE: fwd_transform <- $rdx
	#DEBUG_VALUE: bwd_transform <- $rsi
	#DEBUG_VALUE: vmesh <- $rdi
	#DEBUG_VALUE: compute_intersections_3rd:intersection <- $r9
	#DEBUG_VALUE: compute_intersections_3rd:refLevel <- $r8
	#DEBUG_VALUE: compute_intersections_3rd:dimension <- $ecx
	#DEBUG_VALUE: compute_intersections_3rd:fwd_transform <- $rdx
	#DEBUG_VALUE: compute_intersections_3rd:bwd_transform <- $rsi
	#DEBUG_VALUE: compute_intersections_3rd:vmesh <- $rdi
	.loc	1 407 1                 # vlasovsolver/cpu_acc_intersections.cpp:407:1
	movq	_ZN5vmesh12VelocityMeshIjjE14meshParametersE(%rip), %rcx
.Ltmp469:
	imulq	$336, (%rdi), %rdx      # imm = 0x150
.Ltmp470:
	vmovsd	192(%rcx,%rdx), %xmm0   # xmm0 = mem[0],zero
	vmovsd	120(%rcx,%rdx), %xmm10  # xmm10 = mem[0],zero
	.loc	1 269 1                 # vlasovsolver/cpu_acc_intersections.cpp:269:1
	vmovsd	128(%rcx,%rdx), %xmm3   # xmm3 = mem[0],zero
	vmovsd	.LCPI3_0(%rip), %xmm1   # xmm1 = mem[0],zero
	.loc	1 407 1                 # vlasovsolver/cpu_acc_intersections.cpp:407:1
	vmovapd	%xmm1, %xmm4
	vfmadd213sd	%xmm10, %xmm0, %xmm4 # xmm4 = (xmm0 * xmm4) + xmm10
	vmovsd	136(%rcx,%rdx), %xmm8   # xmm8 = mem[0],zero
	vmovsd	208(%rcx,%rdx), %xmm9   # xmm9 = mem[0],zero
	vfmadd213sd	%xmm8, %xmm9, %xmm1 # xmm1 = (xmm9 * xmm1) + xmm8
.Ltmp471:
	#DEBUG_VALUE: src <- undef
	#DEBUG_VALUE: run:src <- undef
	#DEBUG_VALUE: dst <- undef
	#DEBUG_VALUE: run:dst <- undef
	#DEBUG_VALUE: point_0_0_0 <- [DW_OP_LLVM_fragment 0 64] undef
	#DEBUG_VALUE: src <- undef
	#DEBUG_VALUE: run:src <- undef
	#DEBUG_VALUE: dst <- undef
	#DEBUG_VALUE: run:dst <- undef
	#DEBUG_VALUE: other <- undef
	#DEBUG_VALUE: lazyAssign:other <- undef
	#DEBUG_VALUE:  <- undef
	#DEBUG_VALUE: lazyAssign: <- undef
	#DEBUG_VALUE: a_startCol <- 3
	#DEBUG_VALUE: BlockImpl:a_startCol <- 3
	#DEBUG_VALUE: a_startRow <- 0
	#DEBUG_VALUE: BlockImpl:a_startRow <- 0
	#DEBUG_VALUE: xpr <- $rsi
	#DEBUG_VALUE: BlockImpl:xpr <- $rsi
	#DEBUG_VALUE:  <- undef
	#DEBUG_VALUE: BlockImpl: <- undef
	#DEBUG_VALUE: other <- undef
	#DEBUG_VALUE: run:other <- undef
	#DEBUG_VALUE: T <- $rsi
	#DEBUG_VALUE: run:T <- $rsi
	.loc	4 505 1                 # /home/talgat/libs/eigen/Eigen/src/Core/Assign.h:505:1
	vmovsd	104(%rsi), %xmm7        # xmm7 = mem[0],zero
.Ltmp472:
	#DEBUG_VALUE: rhs <- undef
	#DEBUG_VALUE: run:rhs <- undef
	#DEBUG_VALUE: lhs <- undef
	#DEBUG_VALUE: run:lhs <- undef
	#DEBUG_VALUE: col <- 0
	#DEBUG_VALUE: run:col <- 0
	#DEBUG_VALUE: row <- 1
	#DEBUG_VALUE: run:row <- 1
	#DEBUG_VALUE: src <- undef
	#DEBUG_VALUE: run:src <- undef
	#DEBUG_VALUE: dst <- undef
	#DEBUG_VALUE: run:dst <- undef
	#DEBUG_VALUE: rhs <- undef
	#DEBUG_VALUE: run:rhs <- undef
	#DEBUG_VALUE: lhs <- undef
	#DEBUG_VALUE: run:lhs <- undef
	#DEBUG_VALUE: col <- 0
	#DEBUG_VALUE: run:col <- 0
	#DEBUG_VALUE: row <- 0
	#DEBUG_VALUE: run:row <- 0
	#DEBUG_VALUE: src <- undef
	#DEBUG_VALUE: run:src <- undef
	#DEBUG_VALUE: dst <- undef
	#DEBUG_VALUE: run:dst <- undef
	#DEBUG_VALUE: other <- undef
	#DEBUG_VALUE: operator+=:other <- undef
	#DEBUG_VALUE:  <- undef
	#DEBUG_VALUE: operator+=: <- undef
	#DEBUG_VALUE: point_0_0_0 <- [DW_OP_LLVM_fragment 128 64] undef
	#DEBUG_VALUE: src <- undef
	#DEBUG_VALUE: run:src <- undef
	#DEBUG_VALUE: dst <- undef
	#DEBUG_VALUE: run:dst <- undef
	#DEBUG_VALUE: point_0_0_0 <- [DW_OP_LLVM_fragment 64 64] undef
	#DEBUG_VALUE: point_0_0_0 <- [DW_OP_LLVM_fragment 0 64] undef
	.loc	6 245 1                 # /home/talgat/libs/eigen/Eigen/src/Core/products/CoeffBasedProduct.h:245:1
	vmovsd	8(%rsi), %xmm5          # xmm5 = mem[0],zero
	.loc	6 246 1                 # /home/talgat/libs/eigen/Eigen/src/Core/products/CoeffBasedProduct.h:246:1
	vmovsd	40(%rsi), %xmm6         # xmm6 = mem[0],zero
	.loc	6 245 1                 # /home/talgat/libs/eigen/Eigen/src/Core/products/CoeffBasedProduct.h:245:1
	vmulsd	%xmm5, %xmm4, %xmm11
	vmovsd	.LCPI3_1(%rip), %xmm2   # xmm2 = mem[0],zero
.Ltmp473:
	#DEBUG_VALUE: rhs <- undef
	#DEBUG_VALUE: run:rhs <- undef
	#DEBUG_VALUE: lhs <- undef
	#DEBUG_VALUE: run:lhs <- undef
	#DEBUG_VALUE: col <- 0
	#DEBUG_VALUE: run:col <- 0
	#DEBUG_VALUE: row <- 2
	#DEBUG_VALUE: run:row <- 2
	#DEBUG_VALUE: point_0_0_0 <- [DW_OP_LLVM_fragment 128 64] undef
	.loc	1 407 1                 # vlasovsolver/cpu_acc_intersections.cpp:407:1
	vfmadd213sd	%xmm10, %xmm2, %xmm0 # xmm0 = (xmm2 * xmm0) + xmm10
.Ltmp474:
	#DEBUG_VALUE: rhs <- undef
	#DEBUG_VALUE: run:rhs <- undef
	#DEBUG_VALUE: lhs <- undef
	#DEBUG_VALUE: run:lhs <- undef
	#DEBUG_VALUE: col <- 0
	#DEBUG_VALUE: run:col <- 0
	#DEBUG_VALUE: row <- 1
	#DEBUG_VALUE: run:row <- 1
	#DEBUG_VALUE: src <- undef
	#DEBUG_VALUE: run:src <- undef
	#DEBUG_VALUE: dst <- undef
	#DEBUG_VALUE: run:dst <- undef
	#DEBUG_VALUE: rhs <- undef
	#DEBUG_VALUE: run:rhs <- undef
	#DEBUG_VALUE: lhs <- undef
	#DEBUG_VALUE: run:lhs <- undef
	#DEBUG_VALUE: col <- 0
	#DEBUG_VALUE: run:col <- 0
	#DEBUG_VALUE: row <- 0
	#DEBUG_VALUE: run:row <- 0
	#DEBUG_VALUE: src <- undef
	#DEBUG_VALUE: run:src <- undef
	#DEBUG_VALUE: dst <- undef
	#DEBUG_VALUE: run:dst <- undef
	#DEBUG_VALUE: other <- undef
	#DEBUG_VALUE: operator+=:other <- undef
	#DEBUG_VALUE:  <- undef
	#DEBUG_VALUE: operator+=: <- undef
	#DEBUG_VALUE: point_1_0_0 <- [DW_OP_LLVM_fragment 128 64] undef
	#DEBUG_VALUE: src <- undef
	#DEBUG_VALUE: run:src <- undef
	#DEBUG_VALUE: dst <- undef
	#DEBUG_VALUE: run:dst <- undef
	#DEBUG_VALUE: point_1_0_0 <- [DW_OP_LLVM_fragment 64 64] undef
	#DEBUG_VALUE: src <- undef
	#DEBUG_VALUE: run:src <- undef
	#DEBUG_VALUE: dst <- undef
	#DEBUG_VALUE: run:dst <- undef
	#DEBUG_VALUE: point_1_0_0 <- [DW_OP_LLVM_fragment 0 64] undef
	#DEBUG_VALUE: src <- undef
	#DEBUG_VALUE: run:src <- undef
	#DEBUG_VALUE: dst <- undef
	#DEBUG_VALUE: run:dst <- undef
	#DEBUG_VALUE: other <- undef
	#DEBUG_VALUE: lazyAssign:other <- undef
	#DEBUG_VALUE:  <- undef
	#DEBUG_VALUE: lazyAssign: <- undef
	#DEBUG_VALUE: a_startCol <- 3
	#DEBUG_VALUE: BlockImpl:a_startCol <- 3
	#DEBUG_VALUE: a_startRow <- 0
	#DEBUG_VALUE: BlockImpl:a_startRow <- 0
	#DEBUG_VALUE: xpr <- $rsi
	#DEBUG_VALUE: BlockImpl:xpr <- $rsi
	#DEBUG_VALUE:  <- undef
	#DEBUG_VALUE: BlockImpl: <- undef
	#DEBUG_VALUE: other <- undef
	#DEBUG_VALUE: run:other <- undef
	#DEBUG_VALUE: T <- $rsi
	#DEBUG_VALUE: run:T <- $rsi
	.loc	6 245 1                 # /home/talgat/libs/eigen/Eigen/src/Core/products/CoeffBasedProduct.h:245:1
	vmulsd	%xmm5, %xmm0, %xmm5
	.loc	6 246 1                 # /home/talgat/libs/eigen/Eigen/src/Core/products/CoeffBasedProduct.h:246:1
	vfmadd231sd	%xmm6, %xmm3, %xmm5 # xmm5 = (xmm3 * xmm6) + xmm5
.Ltmp475:
	.loc	1 407 1                 # vlasovsolver/cpu_acc_intersections.cpp:407:1
	vaddsd	200(%rcx,%rdx), %xmm3, %xmm4
.Ltmp476:
	#DEBUG_VALUE: rhs <- undef
	#DEBUG_VALUE: run:rhs <- undef
	#DEBUG_VALUE: lhs <- undef
	#DEBUG_VALUE: run:lhs <- undef
	#DEBUG_VALUE: col <- 0
	#DEBUG_VALUE: run:col <- 0
	#DEBUG_VALUE: row <- 1
	#DEBUG_VALUE: run:row <- 1
	#DEBUG_VALUE: src <- undef
	#DEBUG_VALUE: run:src <- undef
	#DEBUG_VALUE: dst <- undef
	#DEBUG_VALUE: run:dst <- undef
	#DEBUG_VALUE: rhs <- undef
	#DEBUG_VALUE: run:rhs <- undef
	#DEBUG_VALUE: lhs <- undef
	#DEBUG_VALUE: run:lhs <- undef
	#DEBUG_VALUE: col <- 0
	#DEBUG_VALUE: run:col <- 0
	#DEBUG_VALUE: row <- 0
	#DEBUG_VALUE: run:row <- 0
	#DEBUG_VALUE: src <- undef
	#DEBUG_VALUE: run:src <- undef
	#DEBUG_VALUE: dst <- undef
	#DEBUG_VALUE: run:dst <- undef
	#DEBUG_VALUE: other <- undef
	#DEBUG_VALUE: operator+=:other <- undef
	#DEBUG_VALUE:  <- undef
	#DEBUG_VALUE: operator+=: <- undef
	#DEBUG_VALUE: point_0_1_0 <- [DW_OP_LLVM_fragment 128 64] undef
	#DEBUG_VALUE: src <- undef
	#DEBUG_VALUE: run:src <- undef
	#DEBUG_VALUE: dst <- undef
	#DEBUG_VALUE: run:dst <- undef
	#DEBUG_VALUE: point_0_1_0 <- [DW_OP_LLVM_fragment 64 64] undef
	#DEBUG_VALUE: src <- undef
	#DEBUG_VALUE: run:src <- undef
	#DEBUG_VALUE: dst <- undef
	#DEBUG_VALUE: run:dst <- undef
	#DEBUG_VALUE: point_0_1_0 <- [DW_OP_LLVM_fragment 0 64] undef
	#DEBUG_VALUE: src <- undef
	#DEBUG_VALUE: run:src <- undef
	#DEBUG_VALUE: dst <- undef
	#DEBUG_VALUE: run:dst <- undef
	#DEBUG_VALUE: other <- undef
