; ModuleID = 'vlasovsolver/cpu_acc_map.cpp'
target datalayout = "e-p:64:64-i64:64-f80:128-n8:16:32:64-S128"
target triple = "x86_64-pc-linux-gnu"
define internal void @pgCplus_compiled.() noinline {
L.entry:
	ret void
}


define linkonce_odr i8* @_ZnwmPv(i64 %_T43636608_19155.arg, i8* %__p.arg) #0 inlinehint !dbg !3346 {
L.entry:
	%_T43636608_19155.addr = alloca i64, align 8
	%__p.addr = alloca i8*, align 8

	call void @llvm.dbg.declare (metadata i64* %_T43636608_19155.addr, metadata !3350, metadata !3351), !dbg !3347
	store i64 %_T43636608_19155.arg, i64* %_T43636608_19155.addr, align 8, !tbaa !3358
	call void @llvm.dbg.declare (metadata i64* %_T43636608_19155.addr, metadata !3352, metadata !3351), !dbg !3347
	call void @llvm.dbg.declare (metadata i8** %__p.addr, metadata !3353, metadata !3351), !dbg !3347
	store i8* %__p.arg, i8** %__p.addr, align 8, !tbaa !3359
	call void @llvm.dbg.declare (metadata i8** %__p.addr, metadata !3354, metadata !3351), !dbg !3347
	%0 = load i8*, i8** %__p.addr, align 8, !tbaa !3359, !dbg !3355
	ret i8*  %0, !dbg !3355
}
define linkonce_odr void @_ZdlPvS_(i8* %_T43636608_19156.arg, i8* %_T43636904_19156.arg) #0 inlinehint !dbg !3363 {
L.entry:
	%_T43636608_19156.addr = alloca i8*, align 8
	%_T43636904_19156.addr = alloca i8*, align 8

	call void @llvm.dbg.declare (metadata i8** %_T43636608_19156.addr, metadata !3367, metadata !3351), !dbg !3364
	store i8* %_T43636608_19156.arg, i8** %_T43636608_19156.addr, align 8, !tbaa !3359
	call void @llvm.dbg.declare (metadata i8** %_T43636608_19156.addr, metadata !3368, metadata !3351), !dbg !3364
	call void @llvm.dbg.declare (metadata i8** %_T43636904_19156.addr, metadata !3369, metadata !3351), !dbg !3364
	store i8* %_T43636904_19156.arg, i8** %_T43636904_19156.addr, align 8, !tbaa !3359
	call void @llvm.dbg.declare (metadata i8** %_T43636904_19156.addr, metadata !3370, metadata !3351), !dbg !3364
	ret void, !dbg !3371
}
define internal void @_ZN50_INTERNAL_28_vlasovsolver_cpu_acc_map_cpp_4ed4452213no_subnormalsEv() #0 !dbg !3375 {
L.entry:

	ret void, !dbg !3379
}
define linkonce_odr i8* @_Z14aligned_mallocmm(i64 %size.arg, i64 %align.arg) #0 inlinehint !dbg !3385 {
L.entry:
	%size.addr = alloca i64, align 8
	%align.addr = alloca i64, align 8
	%p.addr = alloca i8*, align 8
	%ptr.addr = alloca i8*, align 8

	call void @llvm.dbg.declare (metadata i64* %size.addr, metadata !3389, metadata !3351), !dbg !3386
	store i64 %size.arg, i64* %size.addr, align 8, !tbaa !3358
	call void @llvm.dbg.declare (metadata i64* %size.addr, metadata !3390, metadata !3351), !dbg !3386
	call void @llvm.dbg.declare (metadata i64* %align.addr, metadata !3391, metadata !3351), !dbg !3386
	store i64 %align.arg, i64* %align.addr, align 8, !tbaa !3358
	call void @llvm.dbg.declare (metadata i64* %align.addr, metadata !3392, metadata !3351), !dbg !3386
	%0 = load i64, i64* %align.addr, align 8, !tbaa !3403, !dbg !3393
	%1 = load i64, i64* %size.addr, align 8, !tbaa !3403, !dbg !3393
	%2 = add i64  %0,  %1, !dbg !3393
	%3 = sub i64  %2, -7, !dbg !3393
	%4 = call i8*  @malloc (i64  %3) nounwind, !dbg !3393
	call void @llvm.dbg.declare (metadata i8** %p.addr, metadata !3394, metadata !3351), !dbg !3386
	store i8*  %4, i8** %p.addr, align 8, !tbaa !3359, !dbg !3393
	%5 = icmp eq i8*  %4,  null, !dbg !3395
	br i1  %5, label %L.B0000, label %L.B3014, !dbg !3395
L.B3014:
	%6 = load i64, i64* %align.addr, align 8, !tbaa !3403, !dbg !3396
	%7 = sub i64  %6, 1, !dbg !3396
	%8 = xor i64 -1,  %7, !dbg !3396
	%9 = ptrtoint i8*  %4 to i64, !dbg !3396
	%10 = add i64  %9, 7, !dbg !3396
	%11 = add i64  %6,  %10, !dbg !3396
	%12 = and i64  %8,  %11, !dbg !3396
	%13 = inttoptr i64  %12 to i8*, !dbg !3396
	call void @llvm.dbg.declare (metadata i8** %ptr.addr, metadata !3397, metadata !3351), !dbg !3386
	store i8*  %13, i8** %ptr.addr, align 8, !tbaa !3359, !dbg !3396
	%14 = load i8*, i8** %p.addr, align 8, !tbaa !3359, !dbg !3398
	%15 = ptrtoint i8*  %13 to i64, !dbg !3398
	%16 = sub i64  %15, 8, !dbg !3398
	%17 = inttoptr i64  %16 to i8**, !dbg !3398
	store i8*  %14, i8**  %17, align 8, !tbaa !3359, !dbg !3398
	%18 = load i8*, i8** %ptr.addr, align 8, !tbaa !3359, !dbg !3399
	ret i8*  %18, !dbg !3399
L.B3015:
	br label %L.R0003, !dbg !3399
L.B0000:
	ret i8*  null, !dbg !3400
L.R0003:
	ret i8* null
}
define linkonce_odr void @_Z12aligned_freePv(i8* %p.arg) #0 inlinehint !dbg !3405 {
L.entry:
	%p.addr = alloca i8*, align 8
	%ptr.addr = alloca i8*, align 8

	call void @llvm.dbg.declare (metadata i8** %p.addr, metadata !3409, metadata !3351), !dbg !3406
	store i8* %p.arg, i8** %p.addr, align 8, !tbaa !3359
	call void @llvm.dbg.declare (metadata i8** %p.addr, metadata !3410, metadata !3351), !dbg !3406
	%0 = load i8*, i8** %p.addr, align 8, !tbaa !3359, !dbg !3411
	%1 = ptrtoint i8*  %0 to i64, !dbg !3411
	%2 = sub i64  %1, 8, !dbg !3411
	%3 = inttoptr i64  %2 to i8**, !dbg !3411
	%4 = load i8*, i8**  %3, align 8, !tbaa !3359, !dbg !3411
	call void @llvm.dbg.declare (metadata i8** %ptr.addr, metadata !3412, metadata !3351), !dbg !3406
	call void  @free (i8*  %4) nounwind, !dbg !3413
	ret void, !dbg !3414
}

%struct._Z10Vec8SimpleIbE = type <{ [8 x i8], [24 x i8]}> 
%struct._Z10Vec8SimpleIfE = type <{ [8 x float]}> 

define linkonce_odr void @_Z6minmod10Vec8SimpleIfES0_(%struct._Z10Vec8SimpleIfE* sret %_T43636792_19544.arg, %struct._Z10Vec8SimpleIfE* %slope1.arg, %struct._Z10Vec8SimpleIfE* %slope2.arg) #0 inlinehint !dbg !3420 {
L.entry:
	%_T43636792_19544.addr = alloca %struct._Z10Vec8SimpleIfE*, align 8
	%slope1.addr = alloca %struct._Z10Vec8SimpleIfE*, align 8
	%slope2.addr = alloca %struct._Z10Vec8SimpleIfE*, align 8
	%zero.addr = alloca %struct._Z10Vec8SimpleIfE, align 32
	%..inline.addr = alloca %struct._Z10Vec8SimpleIfE*, align 8
	%..inline.addr.1 = alloca float, align 4
	%..inline.addr.2 = alloca float, align 4
	%..inline.addr.3 = alloca float, align 4
	%..inline.addr.4 = alloca float, align 4
	%..inline.addr.5 = alloca float, align 4
	%..inline.addr.6 = alloca float, align 4
	%..inline.addr.7 = alloca float, align 4
	%..inline.addr.8 = alloca float, align 4
	%_T43638568_19544.addr = alloca %struct._Z10Vec8SimpleIfE, align 32
	%..inline.addr.9 = alloca %struct._Z10Vec8SimpleIfE*, align 8
	%..inline.addr.180 = alloca float, align 4
	%..inline.addr.190 = alloca float, align 4
	%..inline.addr.200 = alloca float, align 4
	%..inline.addr.210 = alloca float, align 4
	%..inline.addr.220 = alloca float, align 4
	%..inline.addr.230 = alloca float, align 4
	%..inline.addr.240 = alloca float, align 4
	%..inline.addr.250 = alloca float, align 4
	%_T43638864_19544.addr = alloca %struct._Z10Vec8SimpleIfE, align 32
	%_T43638272_19544.addr = alloca %struct._Z10Vec8SimpleIbE, align 32
	%..inline.addr.280 = alloca %struct._Z10Vec8SimpleIfE*, align 8
	%..inline.addr.290 = alloca %struct._Z10Vec8SimpleIfE*, align 8
	%..inline.addr.300 = alloca float, align 4
	%..inline.addr.310 = alloca float, align 4
	%..inline.addr.320 = alloca float, align 4
	%..inline.addr.330 = alloca float, align 4
	%..inline.addr.340 = alloca float, align 4
	%..inline.addr.350 = alloca float, align 4
	%..inline.addr.360 = alloca float, align 4
	%..inline.addr.370 = alloca float, align 4
	%slope.addr = alloca %struct._Z10Vec8SimpleIfE, align 32
	%..inline.addr.390 = alloca %struct._Z10Vec8SimpleIfE*, align 8
	%..inline.addr.400 = alloca %struct._Z10Vec8SimpleIfE*, align 8
	%_T43639456_19544.addr = alloca %struct._Z10Vec8SimpleIfE, align 32
	%_T43639160_19544.addr = alloca %struct._Z10Vec8SimpleIbE, align 32
	%..inline.addr.430 = alloca %struct._Z10Vec8SimpleIfE*, align 8
	%..inline.addr.440 = alloca float, align 4
	%..inline.addr.450 = alloca float, align 4
	%..inline.addr.460 = alloca float, align 4
	%..inline.addr.470 = alloca float, align 4
	%..inline.addr.480 = alloca float, align 4
	%..inline.addr.490 = alloca float, align 4
	%..inline.addr.500 = alloca float, align 4
	%..inline.addr.510 = alloca float, align 4

	store %struct._Z10Vec8SimpleIfE* %_T43636792_19544.arg, %struct._Z10Vec8SimpleIfE** %_T43636792_19544.addr, align 8, !tbaa !3359
	call void @llvm.dbg.declare (metadata %struct._Z10Vec8SimpleIfE** %slope1.addr, metadata !3516, metadata !3351), !dbg !3421
	store %struct._Z10Vec8SimpleIfE* %slope1.arg, %struct._Z10Vec8SimpleIfE** %slope1.addr, align 8, !tbaa !3359
	call void @llvm.dbg.declare (metadata %struct._Z10Vec8SimpleIfE** %slope1.addr, metadata !3517, metadata !3351), !dbg !3421
	call void @llvm.dbg.declare (metadata %struct._Z10Vec8SimpleIfE** %slope2.addr, metadata !3518, metadata !3351), !dbg !3421
	store %struct._Z10Vec8SimpleIfE* %slope2.arg, %struct._Z10Vec8SimpleIfE** %slope2.addr, align 8, !tbaa !3359
	call void @llvm.dbg.declare (metadata %struct._Z10Vec8SimpleIfE** %slope2.addr, metadata !3519, metadata !3351), !dbg !3421
	call void @llvm.dbg.declare (metadata %struct._Z10Vec8SimpleIfE* %zero.addr, metadata !3521, metadata !3351), !dbg !3421
	call void  @_ZN10Vec8SimpleIfEC1Ef (%struct._Z10Vec8SimpleIfE* %zero.addr, float 0x0000000000000000), !dbg !3520
	%0 = load %struct._Z10Vec8SimpleIfE*, %struct._Z10Vec8SimpleIfE** %slope1.addr, align 8, !tbaa !3359, !dbg !3522
	%1 = bitcast %struct._Z10Vec8SimpleIfE*  %0 to i8*, !dbg !3522
	%2 = bitcast %struct._Z10Vec8SimpleIfE** %..inline.addr to i8**, !dbg !3522
	store i8*  %1, i8**  %2, align 8, !tbaa !3359, !dbg !3522
	%3 = load %struct._Z10Vec8SimpleIfE*, %struct._Z10Vec8SimpleIfE** %..inline.addr, align 8, !tbaa !3359, !dbg !3523
	%4 = bitcast %struct._Z10Vec8SimpleIfE*  %3 to float*, !dbg !3523
	%5 = load float, float*  %4, align 4, !tbaa !3358, !dbg !3523
	%6 = call float @llvm.fabs.f32 (float  %5), !dbg !3523
	%7 = bitcast %struct._Z10Vec8SimpleIfE*  %3 to i8*, !dbg !3523
	%8 = getelementptr i8, i8*  %7, i64 4, !dbg !3523
	%9 = bitcast i8*  %8 to float*, !dbg !3523
	%10 = load float, float*  %9, align 4, !tbaa !3358, !dbg !3523
	%11 = call float @llvm.fabs.f32 (float  %10), !dbg !3523
	%12 = getelementptr i8, i8*  %7, i64 8, !dbg !3523
	%13 = bitcast i8*  %12 to float*, !dbg !3523
	%14 = load float, float*  %13, align 4, !tbaa !3358, !dbg !3523
	%15 = call float @llvm.fabs.f32 (float  %14), !dbg !3523
	%16 = getelementptr i8, i8*  %7, i64 12, !dbg !3523
	%17 = bitcast i8*  %16 to float*, !dbg !3523
	%18 = load float, float*  %17, align 4, !tbaa !3358, !dbg !3523
	%19 = call float @llvm.fabs.f32 (float  %18), !dbg !3523
	%20 = getelementptr i8, i8*  %7, i64 16, !dbg !3523
	%21 = bitcast i8*  %20 to float*, !dbg !3523
	%22 = load float, float*  %21, align 4, !tbaa !3358, !dbg !3523
	%23 = call float @llvm.fabs.f32 (float  %22), !dbg !3523
	%24 = getelementptr i8, i8*  %7, i64 20, !dbg !3523
	%25 = bitcast i8*  %24 to float*, !dbg !3523
	%26 = load float, float*  %25, align 4, !tbaa !3358, !dbg !3523
	%27 = call float @llvm.fabs.f32 (float  %26), !dbg !3523
	%28 = getelementptr i8, i8*  %7, i64 24, !dbg !3523
	%29 = bitcast i8*  %28 to float*, !dbg !3523
	%30 = load float, float*  %29, align 4, !tbaa !3358, !dbg !3523
	%31 = call float @llvm.fabs.f32 (float  %30), !dbg !3523
	%32 = getelementptr i8, i8*  %7, i64 28, !dbg !3523
	%33 = bitcast i8*  %32 to float*, !dbg !3523
	%34 = load float, float*  %33, align 4, !tbaa !3358, !dbg !3523
	%35 = call float @llvm.fabs.f32 (float  %34), !dbg !3523
	call void  @_ZN10Vec8SimpleIfEC1Effffffff (%struct._Z10Vec8SimpleIfE* %_T43638568_19544.addr, float  %6, float  %11, float  %15, float  %19, float  %23, float  %27, float  %31, float  %35), !dbg !3523
	%36 = load %struct._Z10Vec8SimpleIfE*, %struct._Z10Vec8SimpleIfE** %slope2.addr, align 8, !tbaa !3359, !dbg !3522
	%37 = bitcast %struct._Z10Vec8SimpleIfE*  %36 to i8*, !dbg !3522
	%38 = bitcast %struct._Z10Vec8SimpleIfE** %..inline.addr.9 to i8**, !dbg !3522
	store i8*  %37, i8**  %38, align 8, !tbaa !3359, !dbg !3522
	%39 = load %struct._Z10Vec8SimpleIfE*, %struct._Z10Vec8SimpleIfE** %..inline.addr.9, align 8, !tbaa !3359, !dbg !3523
	%40 = bitcast %struct._Z10Vec8SimpleIfE*  %39 to float*, !dbg !3523
	%41 = load float, float*  %40, align 4, !tbaa !3358, !dbg !3523
	%42 = call float @llvm.fabs.f32 (float  %41), !dbg !3523
	%43 = bitcast %struct._Z10Vec8SimpleIfE*  %39 to i8*, !dbg !3523
	%44 = getelementptr i8, i8*  %43, i64 4, !dbg !3523
	%45 = bitcast i8*  %44 to float*, !dbg !3523
	%46 = load float, float*  %45, align 4, !tbaa !3358, !dbg !3523
	%47 = call float @llvm.fabs.f32 (float  %46), !dbg !3523
	%48 = getelementptr i8, i8*  %43, i64 8, !dbg !3523
	%49 = bitcast i8*  %48 to float*, !dbg !3523
	%50 = load float, float*  %49, align 4, !tbaa !3358, !dbg !3523
	%51 = call float @llvm.fabs.f32 (float  %50), !dbg !3523
	%52 = getelementptr i8, i8*  %43, i64 12, !dbg !3523
	%53 = bitcast i8*  %52 to float*, !dbg !3523
	%54 = load float, float*  %53, align 4, !tbaa !3358, !dbg !3523
	%55 = call float @llvm.fabs.f32 (float  %54), !dbg !3523
	%56 = getelementptr i8, i8*  %43, i64 16, !dbg !3523
	%57 = bitcast i8*  %56 to float*, !dbg !3523
	%58 = load float, float*  %57, align 4, !tbaa !3358, !dbg !3523
	%59 = call float @llvm.fabs.f32 (float  %58), !dbg !3523
	%60 = getelementptr i8, i8*  %43, i64 20, !dbg !3523
	%61 = bitcast i8*  %60 to float*, !dbg !3523
	%62 = load float, float*  %61, align 4, !tbaa !3358, !dbg !3523
	%63 = call float @llvm.fabs.f32 (float  %62), !dbg !3523
	%64 = getelementptr i8, i8*  %43, i64 24, !dbg !3523
	%65 = bitcast i8*  %64 to float*, !dbg !3523
	%66 = load float, float*  %65, align 4, !tbaa !3358, !dbg !3523
	%67 = call float @llvm.fabs.f32 (float  %66), !dbg !3523
	%68 = getelementptr i8, i8*  %43, i64 28, !dbg !3523
	%69 = bitcast i8*  %68 to float*, !dbg !3523
	%70 = load float, float*  %69, align 4, !tbaa !3358, !dbg !3523
	%71 = call float @llvm.fabs.f32 (float  %70), !dbg !3523
	call void  @_ZN10Vec8SimpleIfEC1Effffffff (%struct._Z10Vec8SimpleIfE* %_T43638864_19544.addr, float  %42, float  %47, float  %51, float  %55, float  %59, float  %63, float  %67, float  %71), !dbg !3523
	%72 = bitcast %struct._Z10Vec8SimpleIfE* %_T43638568_19544.addr to float*, !dbg !3524
	%73 = load float, float*  %72, align 4, !tbaa !3358, !dbg !3524
	%74 = bitcast %struct._Z10Vec8SimpleIfE* %_T43638864_19544.addr to float*, !dbg !3524
	%75 = load float, float*  %74, align 4, !tbaa !3358, !dbg !3524
	%76 = fcmp olt float  %73,  %75, !dbg !3524
	%77 = zext i1  %76 to i32, !dbg !3524
	%78 = trunc i32  %77 to i8, !dbg !3524
	%79 = bitcast %struct._Z10Vec8SimpleIfE* %_T43638568_19544.addr to i8*, !dbg !3524
	%80 = getelementptr i8, i8*  %79, i64 4, !dbg !3524
	%81 = bitcast i8*  %80 to float*, !dbg !3524
	%82 = load float, float*  %81, align 4, !tbaa !3358, !dbg !3524
	%83 = bitcast %struct._Z10Vec8SimpleIfE* %_T43638864_19544.addr to i8*, !dbg !3524
	%84 = getelementptr i8, i8*  %83, i64 4, !dbg !3524
	%85 = bitcast i8*  %84 to float*, !dbg !3524
	%86 = load float, float*  %85, align 4, !tbaa !3358, !dbg !3524
	%87 = fcmp olt float  %82,  %86, !dbg !3524
	%88 = zext i1  %87 to i32, !dbg !3524
	%89 = trunc i32  %88 to i8, !dbg !3524
	%90 = getelementptr i8, i8*  %79, i64 8, !dbg !3524
	%91 = bitcast i8*  %90 to float*, !dbg !3524
	%92 = load float, float*  %91, align 4, !tbaa !3358, !dbg !3524
	%93 = getelementptr i8, i8*  %83, i64 8, !dbg !3524
	%94 = bitcast i8*  %93 to float*, !dbg !3524
	%95 = load float, float*  %94, align 4, !tbaa !3358, !dbg !3524
	%96 = fcmp olt float  %92,  %95, !dbg !3524
	%97 = zext i1  %96 to i32, !dbg !3524
	%98 = trunc i32  %97 to i8, !dbg !3524
	%99 = getelementptr i8, i8*  %79, i64 12, !dbg !3524
	%100 = bitcast i8*  %99 to float*, !dbg !3524
	%101 = load float, float*  %100, align 4, !tbaa !3358, !dbg !3524
	%102 = getelementptr i8, i8*  %83, i64 12, !dbg !3524
	%103 = bitcast i8*  %102 to float*, !dbg !3524
	%104 = load float, float*  %103, align 4, !tbaa !3358, !dbg !3524
	%105 = fcmp olt float  %101,  %104, !dbg !3524
	%106 = zext i1  %105 to i32, !dbg !3524
	%107 = trunc i32  %106 to i8, !dbg !3524
	%108 = getelementptr i8, i8*  %79, i64 16, !dbg !3524
	%109 = bitcast i8*  %108 to float*, !dbg !3524
	%110 = load float, float*  %109, align 4, !tbaa !3358, !dbg !3524
	%111 = getelementptr i8, i8*  %83, i64 16, !dbg !3524
	%112 = bitcast i8*  %111 to float*, !dbg !3524
	%113 = load float, float*  %112, align 4, !tbaa !3358, !dbg !3524
	%114 = fcmp olt float  %110,  %113, !dbg !3524
	%115 = zext i1  %114 to i32, !dbg !3524
	%116 = trunc i32  %115 to i8, !dbg !3524
	%117 = getelementptr i8, i8*  %79, i64 20, !dbg !3524
	%118 = bitcast i8*  %117 to float*, !dbg !3524
	%119 = load float, float*  %118, align 4, !tbaa !3358, !dbg !3524
	%120 = getelementptr i8, i8*  %83, i64 20, !dbg !3524
	%121 = bitcast i8*  %120 to float*, !dbg !3524
	%122 = load float, float*  %121, align 4, !tbaa !3358, !dbg !3524
	%123 = fcmp olt float  %119,  %122, !dbg !3524
	%124 = zext i1  %123 to i32, !dbg !3524
	%125 = trunc i32  %124 to i8, !dbg !3524
	%126 = getelementptr i8, i8*  %79, i64 24, !dbg !3524
	%127 = bitcast i8*  %126 to float*, !dbg !3524
	%128 = load float, float*  %127, align 4, !tbaa !3358, !dbg !3524
	%129 = getelementptr i8, i8*  %83, i64 24, !dbg !3524
	%130 = bitcast i8*  %129 to float*, !dbg !3524
	%131 = load float, float*  %130, align 4, !tbaa !3358, !dbg !3524
	%132 = fcmp olt float  %128,  %131, !dbg !3524
	%133 = zext i1  %132 to i32, !dbg !3524
	%134 = trunc i32  %133 to i8, !dbg !3524
	%135 = getelementptr i8, i8*  %79, i64 28, !dbg !3524
	%136 = bitcast i8*  %135 to float*, !dbg !3524
	%137 = load float, float*  %136, align 4, !tbaa !3358, !dbg !3524
	%138 = getelementptr i8, i8*  %83, i64 28, !dbg !3524
	%139 = bitcast i8*  %138 to float*, !dbg !3524
	%140 = load float, float*  %139, align 4, !tbaa !3358, !dbg !3524
	%141 = fcmp olt float  %137,  %140, !dbg !3524
	%142 = zext i1  %141 to i32, !dbg !3524
	%143 = trunc i32  %142 to i8, !dbg !3524
	call void  @_ZN10Vec8SimpleIbEC1Ebbbbbbbb (%struct._Z10Vec8SimpleIbE* %_T43638272_19544.addr, i8  %78, i8  %89, i8  %98, i8  %107, i8  %116, i8  %125, i8  %134, i8  %143), !dbg !3524
	%144 = load %struct._Z10Vec8SimpleIfE*, %struct._Z10Vec8SimpleIfE** %slope1.addr, align 8, !tbaa !3359, !dbg !3522
	%145 = bitcast %struct._Z10Vec8SimpleIfE*  %144 to i8*, !dbg !3522
	%146 = bitcast %struct._Z10Vec8SimpleIfE** %..inline.addr.280 to i8**, !dbg !3522
	store i8*  %145, i8**  %146, align 8, !tbaa !3359, !dbg !3522
	%147 = load %struct._Z10Vec8SimpleIfE*, %struct._Z10Vec8SimpleIfE** %slope2.addr, align 8, !tbaa !3359, !dbg !3522
	%148 = bitcast %struct._Z10Vec8SimpleIfE*  %147 to i8*, !dbg !3522
	%149 = bitcast %struct._Z10Vec8SimpleIfE** %..inline.addr.290 to i8**, !dbg !3522
	store i8*  %148, i8**  %149, align 8, !tbaa !3359, !dbg !3522
	%150 = bitcast %struct._Z10Vec8SimpleIbE* %_T43638272_19544.addr to i8*, !dbg !3522
	%151 = load i8, i8*  %150, align 1, !tbaa !3358, !dbg !3522
	%152 = sext i8  %151 to i32, !dbg !3522
	%153 = icmp eq i32  %152, 0, !dbg !3522
	br i1  %153, label %L..inline.52181, label %L.B3064, !dbg !3522
L.B3064:
	%154 = load %struct._Z10Vec8SimpleIfE*, %struct._Z10Vec8SimpleIfE** %..inline.addr.280, align 8, !tbaa !3359, !dbg !3525
	%155 = bitcast %struct._Z10Vec8SimpleIfE*  %154 to float*, !dbg !3525
	%156 = load float, float*  %155, align 4, !tbaa !3358, !dbg !3525
	store float  %156, float* %..inline.addr.300, align 4, !tbaa !3532, !dbg !3525
	br label %L..inline.52184, !dbg !3525
L..inline.52181:
	%157 = load %struct._Z10Vec8SimpleIfE*, %struct._Z10Vec8SimpleIfE** %..inline.addr.290, align 8, !tbaa !3359, !dbg !3525
	%158 = bitcast %struct._Z10Vec8SimpleIfE*  %157 to float*, !dbg !3525
	%159 = load float, float*  %158, align 4, !tbaa !3358, !dbg !3525
	store float  %159, float* %..inline.addr.300, align 4, !tbaa !3532, !dbg !3525
	br label %L..inline.52184
L..inline.52184:
	%160 = bitcast %struct._Z10Vec8SimpleIbE* %_T43638272_19544.addr to i8*, !dbg !3525
	%161 = getelementptr i8, i8*  %160, i64 1, !dbg !3525
	%162 = load i8, i8*  %161, align 1, !tbaa !3358, !dbg !3525
	%163 = sext i8  %162 to i32, !dbg !3525
	%164 = icmp eq i32  %163, 0, !dbg !3525
	br i1  %164, label %L..inline.52186, label %L.B3065, !dbg !3525
L.B3065:
	%165 = load %struct._Z10Vec8SimpleIfE*, %struct._Z10Vec8SimpleIfE** %..inline.addr.280, align 8, !tbaa !3359, !dbg !3525
	%166 = bitcast %struct._Z10Vec8SimpleIfE*  %165 to i8*, !dbg !3525
	%167 = getelementptr i8, i8*  %166, i64 4, !dbg !3525
	%168 = bitcast i8*  %167 to float*, !dbg !3525
	%169 = load float, float*  %168, align 4, !tbaa !3358, !dbg !3525
	store float  %169, float* %..inline.addr.310, align 4, !tbaa !3532, !dbg !3525
	br label %L..inline.52188, !dbg !3525
L..inline.52186:
	%170 = load %struct._Z10Vec8SimpleIfE*, %struct._Z10Vec8SimpleIfE** %..inline.addr.290, align 8, !tbaa !3359, !dbg !3525
	%171 = bitcast %struct._Z10Vec8SimpleIfE*  %170 to i8*, !dbg !3525
	%172 = getelementptr i8, i8*  %171, i64 4, !dbg !3525
	%173 = bitcast i8*  %172 to float*, !dbg !3525
	%174 = load float, float*  %173, align 4, !tbaa !3358, !dbg !3525
	store float  %174, float* %..inline.addr.310, align 4, !tbaa !3532, !dbg !3525
	br label %L..inline.52188
L..inline.52188:
	%175 = bitcast %struct._Z10Vec8SimpleIbE* %_T43638272_19544.addr to i8*, !dbg !3525
	%176 = getelementptr i8, i8*  %175, i64 2, !dbg !3525
	%177 = load i8, i8*  %176, align 1, !tbaa !3358, !dbg !3525
	%178 = sext i8  %177 to i32, !dbg !3525
	%179 = icmp eq i32  %178, 0, !dbg !3525
	br i1  %179, label %L..inline.52189, label %L.B3066, !dbg !3525
L.B3066:
	%180 = load %struct._Z10Vec8SimpleIfE*, %struct._Z10Vec8SimpleIfE** %..inline.addr.280, align 8, !tbaa !3359, !dbg !3525
	%181 = bitcast %struct._Z10Vec8SimpleIfE*  %180 to i8*, !dbg !3525
	%182 = getelementptr i8, i8*  %181, i64 8, !dbg !3525
	%183 = bitcast i8*  %182 to float*, !dbg !3525
	%184 = load float, float*  %183, align 4, !tbaa !3358, !dbg !3525
	store float  %184, float* %..inline.addr.320, align 4, !tbaa !3532, !dbg !3525
	br label %L..inline.52191, !dbg !3525
L..inline.52189:
	%185 = load %struct._Z10Vec8SimpleIfE*, %struct._Z10Vec8SimpleIfE** %..inline.addr.290, align 8, !tbaa !3359, !dbg !3525
	%186 = bitcast %struct._Z10Vec8SimpleIfE*  %185 to i8*, !dbg !3525
	%187 = getelementptr i8, i8*  %186, i64 8, !dbg !3525
	%188 = bitcast i8*  %187 to float*, !dbg !3525
	%189 = load float, float*  %188, align 4, !tbaa !3358, !dbg !3525
	store float  %189, float* %..inline.addr.320, align 4, !tbaa !3532, !dbg !3525
	br label %L..inline.52191
L..inline.52191:
	%190 = bitcast %struct._Z10Vec8SimpleIbE* %_T43638272_19544.addr to i8*, !dbg !3525
	%191 = getelementptr i8, i8*  %190, i64 3, !dbg !3525
	%192 = load i8, i8*  %191, align 1, !tbaa !3358, !dbg !3525
	%193 = sext i8  %192 to i32, !dbg !3525
	%194 = icmp eq i32  %193, 0, !dbg !3525
	br i1  %194, label %L..inline.52192, label %L.B3067, !dbg !3525
L.B3067:
	%195 = load %struct._Z10Vec8SimpleIfE*, %struct._Z10Vec8SimpleIfE** %..inline.addr.280, align 8, !tbaa !3359, !dbg !3525
	%196 = bitcast %struct._Z10Vec8SimpleIfE*  %195 to i8*, !dbg !3525
	%197 = getelementptr i8, i8*  %196, i64 12, !dbg !3525
	%198 = bitcast i8*  %197 to float*, !dbg !3525
	%199 = load float, float*  %198, align 4, !tbaa !3358, !dbg !3525
	store float  %199, float* %..inline.addr.330, align 4, !tbaa !3532, !dbg !3525
	br label %L..inline.52194, !dbg !3525
L..inline.52192:
	%200 = load %struct._Z10Vec8SimpleIfE*, %struct._Z10Vec8SimpleIfE** %..inline.addr.290, align 8, !tbaa !3359, !dbg !3525
	%201 = bitcast %struct._Z10Vec8SimpleIfE*  %200 to i8*, !dbg !3525
	%202 = getelementptr i8, i8*  %201, i64 12, !dbg !3525
	%203 = bitcast i8*  %202 to float*, !dbg !3525
	%204 = load float, float*  %203, align 4, !tbaa !3358, !dbg !3525
	store float  %204, float* %..inline.addr.330, align 4, !tbaa !3532, !dbg !3525
	br label %L..inline.52194
L..inline.52194:
	%205 = bitcast %struct._Z10Vec8SimpleIbE* %_T43638272_19544.addr to i8*, !dbg !3525
	%206 = getelementptr i8, i8*  %205, i64 4, !dbg !3525
	%207 = load i8, i8*  %206, align 1, !tbaa !3358, !dbg !3525
	%208 = sext i8  %207 to i32, !dbg !3525
	%209 = icmp eq i32  %208, 0, !dbg !3525
	br i1  %209, label %L..inline.52195, label %L.B3068, !dbg !3525
L.B3068:
	%210 = load %struct._Z10Vec8SimpleIfE*, %struct._Z10Vec8SimpleIfE** %..inline.addr.280, align 8, !tbaa !3359, !dbg !3525
	%211 = bitcast %struct._Z10Vec8SimpleIfE*  %210 to i8*, !dbg !3525
	%212 = getelementptr i8, i8*  %211, i64 16, !dbg !3525
	%213 = bitcast i8*  %212 to float*, !dbg !3525
	%214 = load float, float*  %213, align 4, !tbaa !3358, !dbg !3525
	store float  %214, float* %..inline.addr.340, align 4, !tbaa !3532, !dbg !3525
	br label %L..inline.52197, !dbg !3525
L..inline.52195:
	%215 = load %struct._Z10Vec8SimpleIfE*, %struct._Z10Vec8SimpleIfE** %..inline.addr.290, align 8, !tbaa !3359, !dbg !3525
	%216 = bitcast %struct._Z10Vec8SimpleIfE*  %215 to i8*, !dbg !3525
	%217 = getelementptr i8, i8*  %216, i64 16, !dbg !3525
	%218 = bitcast i8*  %217 to float*, !dbg !3525
	%219 = load float, float*  %218, align 4, !tbaa !3358, !dbg !3525
	store float  %219, float* %..inline.addr.340, align 4, !tbaa !3532, !dbg !3525
	br label %L..inline.52197
L..inline.52197:
	%220 = bitcast %struct._Z10Vec8SimpleIbE* %_T43638272_19544.addr to i8*, !dbg !3525
	%221 = getelementptr i8, i8*  %220, i64 5, !dbg !3525
	%222 = load i8, i8*  %221, align 1, !tbaa !3358, !dbg !3525
	%223 = sext i8  %222 to i32, !dbg !3525
	%224 = icmp eq i32  %223, 0, !dbg !3525
	br i1  %224, label %L..inline.52198, label %L.B3069, !dbg !3525
L.B3069:
	%225 = load %struct._Z10Vec8SimpleIfE*, %struct._Z10Vec8SimpleIfE** %..inline.addr.280, align 8, !tbaa !3359, !dbg !3525
	%226 = bitcast %struct._Z10Vec8SimpleIfE*  %225 to i8*, !dbg !3525
	%227 = getelementptr i8, i8*  %226, i64 20, !dbg !3525
	%228 = bitcast i8*  %227 to float*, !dbg !3525
	%229 = load float, float*  %228, align 4, !tbaa !3358, !dbg !3525
	store float  %229, float* %..inline.addr.350, align 4, !tbaa !3532, !dbg !3525
	br label %L..inline.52200, !dbg !3525
L..inline.52198:
	%230 = load %struct._Z10Vec8SimpleIfE*, %struct._Z10Vec8SimpleIfE** %..inline.addr.290, align 8, !tbaa !3359, !dbg !3525
	%231 = bitcast %struct._Z10Vec8SimpleIfE*  %230 to i8*, !dbg !3525
	%232 = getelementptr i8, i8*  %231, i64 20, !dbg !3525
	%233 = bitcast i8*  %232 to float*, !dbg !3525
	%234 = load float, float*  %233, align 4, !tbaa !3358, !dbg !3525
	store float  %234, float* %..inline.addr.350, align 4, !tbaa !3532, !dbg !3525
	br label %L..inline.52200
L..inline.52200:
	%235 = bitcast %struct._Z10Vec8SimpleIbE* %_T43638272_19544.addr to i8*, !dbg !3525
	%236 = getelementptr i8, i8*  %235, i64 6, !dbg !3525
	%237 = load i8, i8*  %236, align 1, !tbaa !3358, !dbg !3525
	%238 = sext i8  %237 to i32, !dbg !3525
	%239 = icmp eq i32  %238, 0, !dbg !3525
	br i1  %239, label %L..inline.52201, label %L.B3070, !dbg !3525
L.B3070:
	%240 = load %struct._Z10Vec8SimpleIfE*, %struct._Z10Vec8SimpleIfE** %..inline.addr.280, align 8, !tbaa !3359, !dbg !3525
	%241 = bitcast %struct._Z10Vec8SimpleIfE*  %240 to i8*, !dbg !3525
	%242 = getelementptr i8, i8*  %241, i64 24, !dbg !3525
	%243 = bitcast i8*  %242 to float*, !dbg !3525
	%244 = load float, float*  %243, align 4, !tbaa !3358, !dbg !3525
	store float  %244, float* %..inline.addr.360, align 4, !tbaa !3532, !dbg !3525
	br label %L..inline.52203, !dbg !3525
L..inline.52201:
	%245 = load %struct._Z10Vec8SimpleIfE*, %struct._Z10Vec8SimpleIfE** %..inline.addr.290, align 8, !tbaa !3359, !dbg !3525
	%246 = bitcast %struct._Z10Vec8SimpleIfE*  %245 to i8*, !dbg !3525
	%247 = getelementptr i8, i8*  %246, i64 24, !dbg !3525
	%248 = bitcast i8*  %247 to float*, !dbg !3525
	%249 = load float, float*  %248, align 4, !tbaa !3358, !dbg !3525
	store float  %249, float* %..inline.addr.360, align 4, !tbaa !3532, !dbg !3525
	br label %L..inline.52203
L..inline.52203:
	%250 = bitcast %struct._Z10Vec8SimpleIbE* %_T43638272_19544.addr to i8*, !dbg !3525
	%251 = getelementptr i8, i8*  %250, i64 7, !dbg !3525
	%252 = load i8, i8*  %251, align 1, !tbaa !3358, !dbg !3525
	%253 = sext i8  %252 to i32, !dbg !3525
	%254 = icmp eq i32  %253, 0, !dbg !3525
	br i1  %254, label %L..inline.52204, label %L.B3071, !dbg !3525
L.B3071:
	%255 = load %struct._Z10Vec8SimpleIfE*, %struct._Z10Vec8SimpleIfE** %..inline.addr.280, align 8, !tbaa !3359, !dbg !3525
	%256 = bitcast %struct._Z10Vec8SimpleIfE*  %255 to i8*, !dbg !3525
	%257 = getelementptr i8, i8*  %256, i64 28, !dbg !3525
	%258 = bitcast i8*  %257 to float*, !dbg !3525
	%259 = load float, float*  %258, align 4, !tbaa !3358, !dbg !3525
	store float  %259, float* %..inline.addr.370, align 4, !tbaa !3532, !dbg !3525
	br label %L..inline.52206, !dbg !3525
L..inline.52204:
	%260 = load %struct._Z10Vec8SimpleIfE*, %struct._Z10Vec8SimpleIfE** %..inline.addr.290, align 8, !tbaa !3359, !dbg !3525
	%261 = bitcast %struct._Z10Vec8SimpleIfE*  %260 to i8*, !dbg !3525
	%262 = getelementptr i8, i8*  %261, i64 28, !dbg !3525
	%263 = bitcast i8*  %262 to float*, !dbg !3525
	%264 = load float, float*  %263, align 4, !tbaa !3358, !dbg !3525
	store float  %264, float* %..inline.addr.370, align 4, !tbaa !3532, !dbg !3525
	br label %L..inline.52206
L..inline.52206:
	call void @llvm.dbg.declare (metadata %struct._Z10Vec8SimpleIfE* %slope.addr, metadata !3526, metadata !3351), !dbg !3421
	%265 = load float, float* %..inline.addr.300, align 4, !tbaa !3532, !dbg !3525
	%266 = load float, float* %..inline.addr.310, align 4, !tbaa !3532, !dbg !3525
	%267 = load float, float* %..inline.addr.320, align 4, !tbaa !3532, !dbg !3525
	%268 = load float, float* %..inline.addr.330, align 4, !tbaa !3532, !dbg !3525
	%269 = load float, float* %..inline.addr.340, align 4, !tbaa !3532, !dbg !3525
	%270 = load float, float* %..inline.addr.350, align 4, !tbaa !3532, !dbg !3525
	%271 = load float, float* %..inline.addr.360, align 4, !tbaa !3532, !dbg !3525
	%272 = load float, float* %..inline.addr.370, align 4, !tbaa !3532, !dbg !3525
	call void  @_ZN10Vec8SimpleIfEC1Effffffff (%struct._Z10Vec8SimpleIfE* %slope.addr, float  %265, float  %266, float  %267, float  %268, float  %269, float  %270, float  %271, float  %272), !dbg !3525
	%273 = load %struct._Z10Vec8SimpleIfE*, %struct._Z10Vec8SimpleIfE** %slope1.addr, align 8, !tbaa !3359, !dbg !3527
	%274 = bitcast %struct._Z10Vec8SimpleIfE*  %273 to i8*, !dbg !3527
	%275 = bitcast %struct._Z10Vec8SimpleIfE** %..inline.addr.390 to i8**, !dbg !3527
	store i8*  %274, i8**  %275, align 8, !tbaa !3359, !dbg !3527
	%276 = load %struct._Z10Vec8SimpleIfE*, %struct._Z10Vec8SimpleIfE** %slope2.addr, align 8, !tbaa !3359, !dbg !3527
	%277 = bitcast %struct._Z10Vec8SimpleIfE*  %276 to i8*, !dbg !3527
	%278 = bitcast %struct._Z10Vec8SimpleIfE** %..inline.addr.400 to i8**, !dbg !3527
	store i8*  %277, i8**  %278, align 8, !tbaa !3359, !dbg !3527
	%279 = load %struct._Z10Vec8SimpleIfE*, %struct._Z10Vec8SimpleIfE** %..inline.addr.400, align 8, !tbaa !3359, !dbg !3528
	%280 = bitcast %struct._Z10Vec8SimpleIfE*  %279 to float*, !dbg !3528
	%281 = load float, float*  %280, align 4, !tbaa !3358, !dbg !3528
	%282 = load %struct._Z10Vec8SimpleIfE*, %struct._Z10Vec8SimpleIfE** %..inline.addr.390, align 8, !tbaa !3359, !dbg !3528
	%283 = bitcast %struct._Z10Vec8SimpleIfE*  %282 to float*, !dbg !3528
	%284 = load float, float*  %283, align 4, !tbaa !3358, !dbg !3528
	%285 = fmul float  %281,  %284, !dbg !3528
	%286 = bitcast %struct._Z10Vec8SimpleIfE*  %279 to i8*, !dbg !3528
	%287 = getelementptr i8, i8*  %286, i64 4, !dbg !3528
	%288 = bitcast i8*  %287 to float*, !dbg !3528
	%289 = load float, float*  %288, align 4, !tbaa !3358, !dbg !3528
	%290 = bitcast %struct._Z10Vec8SimpleIfE*  %282 to i8*, !dbg !3528
	%291 = getelementptr i8, i8*  %290, i64 4, !dbg !3528
	%292 = bitcast i8*  %291 to float*, !dbg !3528
	%293 = load float, float*  %292, align 4, !tbaa !3358, !dbg !3528
	%294 = fmul float  %289,  %293, !dbg !3528
	%295 = getelementptr i8, i8*  %286, i64 8, !dbg !3528
	%296 = bitcast i8*  %295 to float*, !dbg !3528
	%297 = load float, float*  %296, align 4, !tbaa !3358, !dbg !3528
	%298 = getelementptr i8, i8*  %290, i64 8, !dbg !3528
	%299 = bitcast i8*  %298 to float*, !dbg !3528
	%300 = load float, float*  %299, align 4, !tbaa !3358, !dbg !3528
	%301 = fmul float  %297,  %300, !dbg !3528
	%302 = getelementptr i8, i8*  %286, i64 12, !dbg !3528
	%303 = bitcast i8*  %302 to float*, !dbg !3528
	%304 = load float, float*  %303, align 4, !tbaa !3358, !dbg !3528
	%305 = getelementptr i8, i8*  %290, i64 12, !dbg !3528
	%306 = bitcast i8*  %305 to float*, !dbg !3528
	%307 = load float, float*  %306, align 4, !tbaa !3358, !dbg !3528
	%308 = fmul float  %304,  %307, !dbg !3528
	%309 = getelementptr i8, i8*  %286, i64 16, !dbg !3528
	%310 = bitcast i8*  %309 to float*, !dbg !3528
	%311 = load float, float*  %310, align 4, !tbaa !3358, !dbg !3528
	%312 = getelementptr i8, i8*  %290, i64 16, !dbg !3528
	%313 = bitcast i8*  %312 to float*, !dbg !3528
	%314 = load float, float*  %313, align 4, !tbaa !3358, !dbg !3528
	%315 = fmul float  %311,  %314, !dbg !3528
	%316 = getelementptr i8, i8*  %286, i64 20, !dbg !3528
	%317 = bitcast i8*  %316 to float*, !dbg !3528
	%318 = load float, float*  %317, align 4, !tbaa !3358, !dbg !3528
	%319 = getelementptr i8, i8*  %290, i64 20, !dbg !3528
	%320 = bitcast i8*  %319 to float*, !dbg !3528
	%321 = load float, float*  %320, align 4, !tbaa !3358, !dbg !3528
	%322 = fmul float  %318,  %321, !dbg !3528
	%323 = getelementptr i8, i8*  %286, i64 24, !dbg !3528
	%324 = bitcast i8*  %323 to float*, !dbg !3528
	%325 = load float, float*  %324, align 4, !tbaa !3358, !dbg !3528
	%326 = getelementptr i8, i8*  %290, i64 24, !dbg !3528
	%327 = bitcast i8*  %326 to float*, !dbg !3528
	%328 = load float, float*  %327, align 4, !tbaa !3358, !dbg !3528
	%329 = fmul float  %325,  %328, !dbg !3528
	%330 = getelementptr i8, i8*  %286, i64 28, !dbg !3528
	%331 = bitcast i8*  %330 to float*, !dbg !3528
	%332 = load float, float*  %331, align 4, !tbaa !3358, !dbg !3528
	%333 = getelementptr i8, i8*  %290, i64 28, !dbg !3528
	%334 = bitcast i8*  %333 to float*, !dbg !3528
	%335 = load float, float*  %334, align 4, !tbaa !3358, !dbg !3528
	%336 = fmul float  %332,  %335, !dbg !3528
	call void  @_ZN10Vec8SimpleIfEC1Effffffff (%struct._Z10Vec8SimpleIfE* %_T43639456_19544.addr, float  %285, float  %294, float  %301, float  %308, float  %315, float  %322, float  %329, float  %336), !dbg !3528
	%337 = bitcast %struct._Z10Vec8SimpleIfE* %_T43639456_19544.addr to float*, !dbg !3529
	%338 = load float, float*  %337, align 4, !tbaa !3358, !dbg !3529
	%339 = fcmp ole float  %338, 0x0000000000000000, !dbg !3529
	%340 = zext i1  %339 to i32, !dbg !3529
	%341 = trunc i32  %340 to i8, !dbg !3529
	%342 = bitcast %struct._Z10Vec8SimpleIfE* %_T43639456_19544.addr to i8*, !dbg !3529
	%343 = getelementptr i8, i8*  %342, i64 4, !dbg !3529
	%344 = bitcast i8*  %343 to float*, !dbg !3529
	%345 = load float, float*  %344, align 4, !tbaa !3358, !dbg !3529
	%346 = fcmp ole float  %345, 0x0000000000000000, !dbg !3529
	%347 = zext i1  %346 to i32, !dbg !3529
	%348 = trunc i32  %347 to i8, !dbg !3529
	%349 = getelementptr i8, i8*  %342, i64 8, !dbg !3529
	%350 = bitcast i8*  %349 to float*, !dbg !3529
	%351 = load float, float*  %350, align 4, !tbaa !3358, !dbg !3529
	%352 = fcmp ole float  %351, 0x0000000000000000, !dbg !3529
	%353 = zext i1  %352 to i32, !dbg !3529
	%354 = trunc i32  %353 to i8, !dbg !3529
	%355 = getelementptr i8, i8*  %342, i64 12, !dbg !3529
	%356 = bitcast i8*  %355 to float*, !dbg !3529
	%357 = load float, float*  %356, align 4, !tbaa !3358, !dbg !3529
	%358 = fcmp ole float  %357, 0x0000000000000000, !dbg !3529
	%359 = zext i1  %358 to i32, !dbg !3529
	%360 = trunc i32  %359 to i8, !dbg !3529
	%361 = getelementptr i8, i8*  %342, i64 16, !dbg !3529
	%362 = bitcast i8*  %361 to float*, !dbg !3529
	%363 = load float, float*  %362, align 4, !tbaa !3358, !dbg !3529
	%364 = fcmp ole float  %363, 0x0000000000000000, !dbg !3529
	%365 = zext i1  %364 to i32, !dbg !3529
	%366 = trunc i32  %365 to i8, !dbg !3529
	%367 = getelementptr i8, i8*  %342, i64 20, !dbg !3529
	%368 = bitcast i8*  %367 to float*, !dbg !3529
	%369 = load float, float*  %368, align 4, !tbaa !3358, !dbg !3529
	%370 = fcmp ole float  %369, 0x0000000000000000, !dbg !3529
	%371 = zext i1  %370 to i32, !dbg !3529
	%372 = trunc i32  %371 to i8, !dbg !3529
	%373 = getelementptr i8, i8*  %342, i64 24, !dbg !3529
	%374 = bitcast i8*  %373 to float*, !dbg !3529
	%375 = load float, float*  %374, align 4, !tbaa !3358, !dbg !3529
	%376 = fcmp ole float  %375, 0x0000000000000000, !dbg !3529
	%377 = zext i1  %376 to i32, !dbg !3529
	%378 = trunc i32  %377 to i8, !dbg !3529
	%379 = getelementptr i8, i8*  %342, i64 28, !dbg !3529
	%380 = bitcast i8*  %379 to float*, !dbg !3529
	%381 = load float, float*  %380, align 4, !tbaa !3358, !dbg !3529
	%382 = fcmp ole float  %381, 0x0000000000000000, !dbg !3529
	%383 = zext i1  %382 to i32, !dbg !3529
	%384 = trunc i32  %383 to i8, !dbg !3529
	call void  @_ZN10Vec8SimpleIbEC1Ebbbbbbbb (%struct._Z10Vec8SimpleIbE* %_T43639160_19544.addr, i8  %341, i8  %348, i8  %354, i8  %360, i8  %366, i8  %372, i8  %378, i8  %384), !dbg !3529
	%385 = load %struct._Z10Vec8SimpleIfE*, %struct._Z10Vec8SimpleIfE** %_T43636792_19544.addr, align 8, !tbaa !3359, !dbg !3527
	%386 = bitcast %struct._Z10Vec8SimpleIfE*  %385 to i8*, !dbg !3527
	%387 = bitcast %struct._Z10Vec8SimpleIfE** %..inline.addr.430 to i8**, !dbg !3527
	store i8*  %386, i8**  %387, align 8, !tbaa !3359, !dbg !3527
	%388 = bitcast %struct._Z10Vec8SimpleIbE* %_T43639160_19544.addr to i8*, !dbg !3527
	%389 = load i8, i8*  %388, align 1, !tbaa !3358, !dbg !3527
	%390 = sext i8  %389 to i32, !dbg !3527
	%391 = icmp eq i32  %390, 0, !dbg !3527
	br i1  %391, label %L..inline.52227, label %L.B3072, !dbg !3527
L.B3072:
	%392 = bitcast %struct._Z10Vec8SimpleIfE* %zero.addr to float*, !dbg !3525
	%393 = load float, float*  %392, align 4, !tbaa !3358, !dbg !3525
	store float  %393, float* %..inline.addr.440, align 4, !tbaa !3532, !dbg !3525
	br label %L..inline.52230, !dbg !3525
L..inline.52227:
	%394 = bitcast %struct._Z10Vec8SimpleIfE* %slope.addr to float*, !dbg !3525
	%395 = load float, float*  %394, align 4, !tbaa !3358, !dbg !3525
	store float  %395, float* %..inline.addr.440, align 4, !tbaa !3532, !dbg !3525
	br label %L..inline.52230
L..inline.52230:
	%396 = bitcast %struct._Z10Vec8SimpleIbE* %_T43639160_19544.addr to i8*, !dbg !3525
	%397 = getelementptr i8, i8*  %396, i64 1, !dbg !3525
	%398 = load i8, i8*  %397, align 1, !tbaa !3358, !dbg !3525
	%399 = sext i8  %398 to i32, !dbg !3525
	%400 = icmp eq i32  %399, 0, !dbg !3525
	br i1  %400, label %L..inline.52232, label %L.B3073, !dbg !3525
L.B3073:
	%401 = bitcast %struct._Z10Vec8SimpleIfE* %zero.addr to i8*, !dbg !3525
	%402 = getelementptr i8, i8*  %401, i64 4, !dbg !3525
	%403 = bitcast i8*  %402 to float*, !dbg !3525
	%404 = load float, float*  %403, align 4, !tbaa !3358, !dbg !3525
	store float  %404, float* %..inline.addr.450, align 4, !tbaa !3532, !dbg !3525
	br label %L..inline.52234, !dbg !3525
L..inline.52232:
	%405 = bitcast %struct._Z10Vec8SimpleIfE* %slope.addr to i8*, !dbg !3525
	%406 = getelementptr i8, i8*  %405, i64 4, !dbg !3525
	%407 = bitcast i8*  %406 to float*, !dbg !3525
	%408 = load float, float*  %407, align 4, !tbaa !3358, !dbg !3525
	store float  %408, float* %..inline.addr.450, align 4, !tbaa !3532, !dbg !3525
	br label %L..inline.52234
L..inline.52234:
	%409 = bitcast %struct._Z10Vec8SimpleIbE* %_T43639160_19544.addr to i8*, !dbg !3525
	%410 = getelementptr i8, i8*  %409, i64 2, !dbg !3525
	%411 = load i8, i8*  %410, align 1, !tbaa !3358, !dbg !3525
	%412 = sext i8  %411 to i32, !dbg !3525
	%413 = icmp eq i32  %412, 0, !dbg !3525
	br i1  %413, label %L..inline.52235, label %L.B3074, !dbg !3525
L.B3074:
	%414 = bitcast %struct._Z10Vec8SimpleIfE* %zero.addr to i8*, !dbg !3525
	%415 = getelementptr i8, i8*  %414, i64 8, !dbg !3525
	%416 = bitcast i8*  %415 to float*, !dbg !3525
	%417 = load float, float*  %416, align 4, !tbaa !3358, !dbg !3525
	store float  %417, float* %..inline.addr.460, align 4, !tbaa !3532, !dbg !3525
	br label %L..inline.52237, !dbg !3525
L..inline.52235:
	%418 = bitcast %struct._Z10Vec8SimpleIfE* %slope.addr to i8*, !dbg !3525
	%419 = getelementptr i8, i8*  %418, i64 8, !dbg !3525
	%420 = bitcast i8*  %419 to float*, !dbg !3525
	%421 = load float, float*  %420, align 4, !tbaa !3358, !dbg !3525
	store float  %421, float* %..inline.addr.460, align 4, !tbaa !3532, !dbg !3525
	br label %L..inline.52237
L..inline.52237:
	%422 = bitcast %struct._Z10Vec8SimpleIbE* %_T43639160_19544.addr to i8*, !dbg !3525
	%423 = getelementptr i8, i8*  %422, i64 3, !dbg !3525
	%424 = load i8, i8*  %423, align 1, !tbaa !3358, !dbg !3525
	%425 = sext i8  %424 to i32, !dbg !3525
	%426 = icmp eq i32  %425, 0, !dbg !3525
	br i1  %426, label %L..inline.52238, label %L.B3075, !dbg !3525
L.B3075:
	%427 = bitcast %struct._Z10Vec8SimpleIfE* %zero.addr to i8*, !dbg !3525
	%428 = getelementptr i8, i8*  %427, i64 12, !dbg !3525
	%429 = bitcast i8*  %428 to float*, !dbg !3525
	%430 = load float, float*  %429, align 4, !tbaa !3358, !dbg !3525
	store float  %430, float* %..inline.addr.470, align 4, !tbaa !3532, !dbg !3525
	br label %L..inline.52240, !dbg !3525
L..inline.52238:
	%431 = bitcast %struct._Z10Vec8SimpleIfE* %slope.addr to i8*, !dbg !3525
	%432 = getelementptr i8, i8*  %431, i64 12, !dbg !3525
	%433 = bitcast i8*  %432 to float*, !dbg !3525
	%434 = load float, float*  %433, align 4, !tbaa !3358, !dbg !3525
	store float  %434, float* %..inline.addr.470, align 4, !tbaa !3532, !dbg !3525
	br label %L..inline.52240
L..inline.52240:
	%435 = bitcast %struct._Z10Vec8SimpleIbE* %_T43639160_19544.addr to i8*, !dbg !3525
	%436 = getelementptr i8, i8*  %435, i64 4, !dbg !3525
	%437 = load i8, i8*  %436, align 1, !tbaa !3358, !dbg !3525
	%438 = sext i8  %437 to i32, !dbg !3525
	%439 = icmp eq i32  %438, 0, !dbg !3525
	br i1  %439, label %L..inline.52241, label %L.B3076, !dbg !3525
L.B3076:
	%440 = bitcast %struct._Z10Vec8SimpleIfE* %zero.addr to i8*, !dbg !3525
	%441 = getelementptr i8, i8*  %440, i64 16, !dbg !3525
	%442 = bitcast i8*  %441 to float*, !dbg !3525
	%443 = load float, float*  %442, align 4, !tbaa !3358, !dbg !3525
	store float  %443, float* %..inline.addr.480, align 4, !tbaa !3532, !dbg !3525
	br label %L..inline.52243, !dbg !3525
L..inline.52241:
	%444 = bitcast %struct._Z10Vec8SimpleIfE* %slope.addr to i8*, !dbg !3525
	%445 = getelementptr i8, i8*  %444, i64 16, !dbg !3525
	%446 = bitcast i8*  %445 to float*, !dbg !3525
	%447 = load float, float*  %446, align 4, !tbaa !3358, !dbg !3525
	store float  %447, float* %..inline.addr.480, align 4, !tbaa !3532, !dbg !3525
	br label %L..inline.52243
L..inline.52243:
	%448 = bitcast %struct._Z10Vec8SimpleIbE* %_T43639160_19544.addr to i8*, !dbg !3525
	%449 = getelementptr i8, i8*  %448, i64 5, !dbg !3525
	%450 = load i8, i8*  %449, align 1, !tbaa !3358, !dbg !3525
	%451 = sext i8  %450 to i32, !dbg !3525
	%452 = icmp eq i32  %451, 0, !dbg !3525
	br i1  %452, label %L..inline.52244, label %L.B3077, !dbg !3525
L.B3077:
	%453 = bitcast %struct._Z10Vec8SimpleIfE* %zero.addr to i8*, !dbg !3525
	%454 = getelementptr i8, i8*  %453, i64 20, !dbg !3525
	%455 = bitcast i8*  %454 to float*, !dbg !3525
	%456 = load float, float*  %455, align 4, !tbaa !3358, !dbg !3525
	store float  %456, float* %..inline.addr.490, align 4, !tbaa !3532, !dbg !3525
	br label %L..inline.52246, !dbg !3525
L..inline.52244:
	%457 = bitcast %struct._Z10Vec8SimpleIfE* %slope.addr to i8*, !dbg !3525
	%458 = getelementptr i8, i8*  %457, i64 20, !dbg !3525
	%459 = bitcast i8*  %458 to float*, !dbg !3525
	%460 = load float, float*  %459, align 4, !tbaa !3358, !dbg !3525
	store float  %460, float* %..inline.addr.490, align 4, !tbaa !3532, !dbg !3525
	br label %L..inline.52246
L..inline.52246:
	%461 = bitcast %struct._Z10Vec8SimpleIbE* %_T43639160_19544.addr to i8*, !dbg !3525
	%462 = getelementptr i8, i8*  %461, i64 6, !dbg !3525
	%463 = load i8, i8*  %462, align 1, !tbaa !3358, !dbg !3525
	%464 = sext i8  %463 to i32, !dbg !3525
	%465 = icmp eq i32  %464, 0, !dbg !3525
	br i1  %465, label %L..inline.52247, label %L.B3078, !dbg !3525
L.B3078:
	%466 = bitcast %struct._Z10Vec8SimpleIfE* %zero.addr to i8*, !dbg !3525
	%467 = getelementptr i8, i8*  %466, i64 24, !dbg !3525
	%468 = bitcast i8*  %467 to float*, !dbg !3525
	%469 = load float, float*  %468, align 4, !tbaa !3358, !dbg !3525
	store float  %469, float* %..inline.addr.500, align 4, !tbaa !3532, !dbg !3525
	br label %L..inline.52249, !dbg !3525
L..inline.52247:
	%470 = bitcast %struct._Z10Vec8SimpleIfE* %slope.addr to i8*, !dbg !3525
	%471 = getelementptr i8, i8*  %470, i64 24, !dbg !3525
	%472 = bitcast i8*  %471 to float*, !dbg !3525
	%473 = load float, float*  %472, align 4, !tbaa !3358, !dbg !3525
	store float  %473, float* %..inline.addr.500, align 4, !tbaa !3532, !dbg !3525
	br label %L..inline.52249
L..inline.52249:
	%474 = bitcast %struct._Z10Vec8SimpleIbE* %_T43639160_19544.addr to i8*, !dbg !3525
	%475 = getelementptr i8, i8*  %474, i64 7, !dbg !3525
	%476 = load i8, i8*  %475, align 1, !tbaa !3358, !dbg !3525
	%477 = sext i8  %476 to i32, !dbg !3525
	%478 = icmp eq i32  %477, 0, !dbg !3525
	br i1  %478, label %L..inline.52250, label %L.B3079, !dbg !3525
L.B3079:
	%479 = bitcast %struct._Z10Vec8SimpleIfE* %zero.addr to i8*, !dbg !3525
	%480 = getelementptr i8, i8*  %479, i64 28, !dbg !3525
	%481 = bitcast i8*  %480 to float*, !dbg !3525
	%482 = load float, float*  %481, align 4, !tbaa !3358, !dbg !3525
	store float  %482, float* %..inline.addr.510, align 4, !tbaa !3532, !dbg !3525
	br label %L..inline.52252, !dbg !3525
L..inline.52250:
	%483 = bitcast %struct._Z10Vec8SimpleIfE* %slope.addr to i8*, !dbg !3525
	%484 = getelementptr i8, i8*  %483, i64 28, !dbg !3525
	%485 = bitcast i8*  %484 to float*, !dbg !3525
	%486 = load float, float*  %485, align 4, !tbaa !3358, !dbg !3525
	store float  %486, float* %..inline.addr.510, align 4, !tbaa !3532, !dbg !3525
	br label %L..inline.52252
L..inline.52252:
	%487 = load %struct._Z10Vec8SimpleIfE*, %struct._Z10Vec8SimpleIfE** %..inline.addr.430, align 8, !tbaa !3359, !dbg !3525
	%488 = load float, float* %..inline.addr.440, align 4, !tbaa !3532, !dbg !3525
	%489 = load float, float* %..inline.addr.450, align 4, !tbaa !3532, !dbg !3525
	%490 = load float, float* %..inline.addr.460, align 4, !tbaa !3532, !dbg !3525
	%491 = load float, float* %..inline.addr.470, align 4, !tbaa !3532, !dbg !3525
	%492 = load float, float* %..inline.addr.480, align 4, !tbaa !3532, !dbg !3525
	%493 = load float, float* %..inline.addr.490, align 4, !tbaa !3532, !dbg !3525
	%494 = load float, float* %..inline.addr.500, align 4, !tbaa !3532, !dbg !3525
	%495 = load float, float* %..inline.addr.510, align 4, !tbaa !3532, !dbg !3525
	call void  @_ZN10Vec8SimpleIfEC1Effffffff (%struct._Z10Vec8SimpleIfE*  %487, float  %488, float  %489, float  %490, float  %491, float  %492, float  %493, float  %494, float  %495), !dbg !3525
	ret void, !dbg !3530
}
@one = internal global %struct._Z10Vec8SimpleIfE zeroinitializer, align 32, !dbg !3534
@minus_one = internal global %struct._Z10Vec8SimpleIfE zeroinitializer, align 32, !dbg !3536
@two = internal global %struct._Z10Vec8SimpleIfE zeroinitializer, align 32, !dbg !3538
@half = internal global %struct._Z10Vec8SimpleIfE zeroinitializer, align 32, !dbg !3540
@zero = internal global %struct._Z10Vec8SimpleIfE zeroinitializer, align 32, !dbg !3542
@one_sixth = internal global %struct._Z10Vec8SimpleIfE zeroinitializer, align 32, !dbg !3544
@one_twelfth = internal global %struct._Z10Vec8SimpleIfE zeroinitializer, align 32, !dbg !3546
@seven_twelfth = internal global %struct._Z10Vec8SimpleIfE zeroinitializer, align 32, !dbg !3548
@one_third = internal global %struct._Z10Vec8SimpleIfE zeroinitializer, align 32, !dbg !3550
@WID = internal global i32 4, align 4, !dbg !3552
@WID2 = internal global i32 16, align 4, !dbg !3554
@WID3 = internal global i32 64, align 4, !dbg !3556
@ompi_stdio_seek_set = internal global i32 0, align 4, !dbg !3558
@ompi_stdio_seek_cur = internal global i32 1, align 4, !dbg !3560
@ompi_stdio_seek_end = internal global i32 2, align 4, !dbg !3562
@SEEK_SET = internal global i32 0, align 4, !dbg !3564
@SEEK_CUR = internal global i32 1, align 4, !dbg !3566
@SEEK_END = internal global i32 2, align 4, !dbg !3568
@_ZTVN3MPI8DatatypeE = weak unnamed_addr global [32 x i32 (...)* (...)*]  [ i32 (...)* (...)*  null, i32 (...)* (...)*  bitcast (%struct.__class_type_info* @_ZTIN3MPI8DatatypeE to i32 (...)* (...)*), i32 (...)* (...)*  bitcast (void (%struct._ZN3MPI8DatatypeE*)* @_ZN3MPI8DatatypeD1Ev to i32 (...)* (...)*), i32 (...)* (...)*  bitcast (void (%struct._ZN3MPI8DatatypeE*)* @_ZN3MPI8DatatypeD0Ev to i32 (...)* (...)*), i32 (...)* (...)*  bitcast (void (%struct._ZN3MPI8DatatypeE*, %struct._ZN3MPI8DatatypeE*, i32)* @_ZNK3MPI8Datatype17Create_contiguousEi to i32 (...)* (...)*), i32 (...)* (...)*  bitcast (void (%struct._ZN3MPI8DatatypeE*, %struct._ZN3MPI8DatatypeE*, i32, i32, i32)* @_ZNK3MPI8Datatype13Create_vectorEiii to i32 (...)* (...)*), i32 (...)* (...)*  bitcast (void (%struct._ZN3MPI8DatatypeE*, %struct._ZN3MPI8DatatypeE*, i32, i32*, i32*)* @_ZNK3MPI8Datatype14Create_indexedEiPKiS2_ to i32 (...)* (...)*), i32 (...)* (...)*  bitcast (void (%struct._ZN3MPI8DatatypeE*, %struct._ZN3MPI8DatatypeE*, i32, i32*, i64*)* @_ZNK3MPI8Datatype15Create_hindexedEiPKiPKl to i32 (...)* (...)*), i32 (...)* (...)*  bitcast (void (%struct._ZN3MPI8DatatypeE*, %struct._ZN3MPI8DatatypeE*, i32, i32, i64)* @_ZNK3MPI8Datatype14Create_hvectorEiil to i32 (...)* (...)*), i32 (...)* (...)*  bitcast (void (%struct._ZN3MPI8DatatypeE*, %struct._ZN3MPI8DatatypeE*, i32, i32, i32*)* @_ZNK3MPI8Datatype20Create_indexed_blockEiiPKi to i32 (...)* (...)*), i32 (...)* (...)*  bitcast (void (%struct._ZN3MPI8DatatypeE*, %struct._ZN3MPI8DatatypeE*, i64, i64)* @_ZNK3MPI8Datatype14Create_resizedEll to i32 (...)* (...)*), i32 (...)* (...)*  bitcast (i32 (%struct._ZN3MPI8DatatypeE*)* @_ZNK3MPI8Datatype8Get_sizeEv to i32 (...)* (...)*), i32 (...)* (...)*  bitcast (void (%struct._ZN3MPI8DatatypeE*, i64*, i64*)* @_ZNK3MPI8Datatype10Get_extentERlS1_ to i32 (...)* (...)*), i32 (...)* (...)*  bitcast (void (%struct._ZN3MPI8DatatypeE*, i64*, i64*)* @_ZNK3MPI8Datatype15Get_true_extentERlS1_ to i32 (...)* (...)*), i32 (...)* (...)*  bitcast (void (%struct._ZN3MPI8DatatypeE*)* @_ZN3MPI8Datatype6CommitEv to i32 (...)* (...)*), i32 (...)* (...)*  bitcast (void (%struct._ZN3MPI8DatatypeE*)* @_ZN3MPI8Datatype4FreeEv to i32 (...)* (...)*), i32 (...)* (...)*  bitcast (void (%struct._ZN3MPI8DatatypeE*, i8*, i32, i8*, i32, i32*, %struct._ZN3MPI4CommE*)* @_ZNK3MPI8Datatype4PackEPKviPviRiRKNS_4CommE to i32 (...)* (...)*), i32 (...)* (...)*  bitcast (void (%struct._ZN3MPI8DatatypeE*, i8*, i32, i8*, i32, i32*, %struct._ZN3MPI4CommE*)* @_ZNK3MPI8Datatype6UnpackEPKviPviRiRKNS_4CommE to i32 (...)* (...)*), i32 (...)* (...)*  bitcast (i32 (%struct._ZN3MPI8DatatypeE*, i32, %struct._ZN3MPI4CommE*)* @_ZNK3MPI8Datatype9Pack_sizeEiRKNS_4CommE to i32 (...)* (...)*), i32 (...)* (...)*  bitcast (void (%struct._ZN3MPI8DatatypeE*, i8*, i8*, i32, i8*, i64, i64*)* @_ZNK3MPI8Datatype13Pack_externalEPKcPKviPvlRl to i32 (...)* (...)*), i32 (...)* (...)*  bitcast (i64 (%struct._ZN3MPI8DatatypeE*, i8*, i32)* @_ZNK3MPI8Datatype18Pack_external_sizeEPKci to i32 (...)* (...)*), i32 (...)* (...)*  bitcast (void (%struct._ZN3MPI8DatatypeE*, i8*, i8*, i64, i64*, i8*, i32)* @_ZNK3MPI8Datatype15Unpack_externalEPKcPKvlRlPvi to i32 (...)* (...)*), i32 (...)* (...)*  bitcast (void (%struct._ZN3MPI8DatatypeE*, %struct._ZN3MPI8DatatypeE*, i32, i32*, i32*, i32*, i32)* @_ZNK3MPI8Datatype15Create_subarrayEiPKiS2_S2_i to i32 (...)* (...)*), i32 (...)* (...)*  bitcast (void (%struct._ZN3MPI8DatatypeE*, %struct._ZN3MPI8DatatypeE*, i32, i32, i32, i32*, i32*, i32*, i32*, i32)* @_ZNK3MPI8Datatype13Create_darrayEiiiPKiS2_S2_S2_i to i32 (...)* (...)*), i32 (...)* (...)*  bitcast (void (%struct._ZN3MPI8DatatypeE*, %struct._ZN3MPI8DatatypeE*)* @_ZNK3MPI8Datatype3DupEv to i32 (...)* (...)*), i32 (...)* (...)*  bitcast (void (%struct._ZN3MPI8DatatypeE*, i32)* @_ZN3MPI8Datatype11Delete_attrEi to i32 (...)* (...)*), i32 (...)* (...)*  bitcast (i8 (%struct._ZN3MPI8DatatypeE*, i32, i8*)* @_ZNK3MPI8Datatype8Get_attrEiPv to i32 (...)* (...)*), i32 (...)* (...)*  bitcast (void (%struct._ZN3MPI8DatatypeE*, i32, i32, i32, i32*, i64*, %struct._ZN3MPI8DatatypeE*)* @_ZNK3MPI8Datatype12Get_contentsEiiiPiPlPS0_ to i32 (...)* (...)*), i32 (...)* (...)*  bitcast (void (%struct._ZN3MPI8DatatypeE*, i32*, i32*, i32*, i32*)* @_ZNK3MPI8Datatype12Get_envelopeERiS1_S1_S1_ to i32 (...)* (...)*), i32 (...)* (...)*  bitcast (void (%struct._ZN3MPI8DatatypeE*, i8*, i32*)* @_ZNK3MPI8Datatype8Get_nameEPcRi to i32 (...)* (...)*), i32 (...)* (...)*  bitcast (void (%struct._ZN3MPI8DatatypeE*, i32, i8*)* @_ZN3MPI8Datatype8Set_attrEiPKv to i32 (...)* (...)*), i32 (...)* (...)*  bitcast (void (%struct._ZN3MPI8DatatypeE*, i8*)* @_ZN3MPI8Datatype8Set_nameEPKc to i32 (...)* (...)*) ], align 16, !dbg !3571

%struct._ZN3MPI9Comm_NullE = type <{ i32 (...)* (...)*, %struct.ompi_communicator_t*}> 
%struct.__class_type_info = type <{ %struct.__EDG_type_info}> 
%struct.__EDG_type_info = type <{ i32 (...)* (...)*, i8*}> 
%struct.ompi_datatype_t = type opaque
%struct._ZN3MPI4CommE = type <{ %struct._ZN3MPI9Comm_NullE}> 
%struct.ompi_communicator_t = type opaque
%struct._ZN3MPI8DatatypeE = type <{ i32 (...)* (...)*, %struct.ompi_datatype_t*}> 

@_ZTVN3MPI6StatusE = weak unnamed_addr global [15 x i32 (...)* (...)*]  [ i32 (...)* (...)*  null, i32 (...)* (...)*  bitcast (%struct.__class_type_info* @_ZTIN3MPI6StatusE to i32 (...)* (...)*), i32 (...)* (...)*  bitcast (void (%struct._ZN3MPI6StatusE*)* @_ZN3MPI6StatusD1Ev to i32 (...)* (...)*), i32 (...)* (...)*  bitcast (void (%struct._ZN3MPI6StatusE*)* @_ZN3MPI6StatusD0Ev to i32 (...)* (...)*), i32 (...)* (...)*  bitcast (i32 (%struct._ZN3MPI6StatusE*, %struct._ZN3MPI8DatatypeE*)* @_ZNK3MPI6Status9Get_countERKNS_8DatatypeE to i32 (...)* (...)*), i32 (...)* (...)*  bitcast (i8 (%struct._ZN3MPI6StatusE*)* @_ZNK3MPI6Status12Is_cancelledEv to i32 (...)* (...)*), i32 (...)* (...)*  bitcast (i32 (%struct._ZN3MPI6StatusE*, %struct._ZN3MPI8DatatypeE*)* @_ZNK3MPI6Status12Get_elementsERKNS_8DatatypeE to i32 (...)* (...)*), i32 (...)* (...)*  bitcast (i32 (%struct._ZN3MPI6StatusE*)* @_ZNK3MPI6Status10Get_sourceEv to i32 (...)* (...)*), i32 (...)* (...)*  bitcast (void (%struct._ZN3MPI6StatusE*, i32)* @_ZN3MPI6Status10Set_sourceEi to i32 (...)* (...)*), i32 (...)* (...)*  bitcast (i32 (%struct._ZN3MPI6StatusE*)* @_ZNK3MPI6Status7Get_tagEv to i32 (...)* (...)*), i32 (...)* (...)*  bitcast (void (%struct._ZN3MPI6StatusE*, i32)* @_ZN3MPI6Status7Set_tagEi to i32 (...)* (...)*), i32 (...)* (...)*  bitcast (i32 (%struct._ZN3MPI6StatusE*)* @_ZNK3MPI6Status9Get_errorEv to i32 (...)* (...)*), i32 (...)* (...)*  bitcast (void (%struct._ZN3MPI6StatusE*, i32)* @_ZN3MPI6Status9Set_errorEi to i32 (...)* (...)*), i32 (...)* (...)*  bitcast (void (%struct._ZN3MPI6StatusE*, %struct._ZN3MPI8DatatypeE*, i32)* @_ZN3MPI6Status12Set_elementsERKNS_8DatatypeEi to i32 (...)* (...)*), i32 (...)* (...)*  bitcast (void (%struct._ZN3MPI6StatusE*, i8)* @_ZN3MPI6Status13Set_cancelledEb to i32 (...)* (...)*) ], align 16, !dbg !3576

%struct.ompi_status_public_t = type <{ i32, i32, i32, i32, i64}> 
%struct._ZN3MPI6StatusE = type <{ i32 (...)* (...)*, %struct.ompi_status_public_t}> 

@_ZTVN3MPI7RequestE = weak unnamed_addr global [12 x i32 (...)* (...)*]  [ i32 (...)* (...)*  null, i32 (...)* (...)*  bitcast (%struct.__class_type_info* @_ZTIN3MPI7RequestE to i32 (...)* (...)*), i32 (...)* (...)*  bitcast (void (%struct._ZN3MPI7RequestE*)* @_ZN3MPI7RequestD1Ev to i32 (...)* (...)*), i32 (...)* (...)*  bitcast (void (%struct._ZN3MPI7RequestE*)* @_ZN3MPI7RequestD0Ev to i32 (...)* (...)*), i32 (...)* (...)*  bitcast (void (%struct._ZN3MPI7RequestE*, %struct._ZN3MPI6StatusE*)* @_ZN3MPI7Request4WaitERNS_6StatusE to i32 (...)* (...)*), i32 (...)* (...)*  bitcast (void (%struct._ZN3MPI7RequestE*)* @_ZN3MPI7Request4WaitEv to i32 (...)* (...)*), i32 (...)* (...)*  bitcast (i8 (%struct._ZN3MPI7RequestE*, %struct._ZN3MPI6StatusE*)* @_ZN3MPI7Request4TestERNS_6StatusE to i32 (...)* (...)*), i32 (...)* (...)*  bitcast (i8 (%struct._ZN3MPI7RequestE*)* @_ZN3MPI7Request4TestEv to i32 (...)* (...)*), i32 (...)* (...)*  bitcast (void (%struct._ZN3MPI7RequestE*)* @_ZN3MPI7Request4FreeEv to i32 (...)* (...)*), i32 (...)* (...)*  bitcast (void (%struct._ZN3MPI7RequestE*)* @_ZNK3MPI7Request6CancelEv to i32 (...)* (...)*), i32 (...)* (...)*  bitcast (i8 (%struct._ZN3MPI7RequestE*, %struct._ZN3MPI6StatusE*)* @_ZNK3MPI7Request10Get_statusERNS_6StatusE to i32 (...)* (...)*), i32 (...)* (...)*  bitcast (i8 (%struct._ZN3MPI7RequestE*)* @_ZNK3MPI7Request10Get_statusEv to i32 (...)* (...)*) ], align 16, !dbg !3583

%struct._ZN3MPI7RequestE = type <{ i32 (...)* (...)*, %struct.ompi_request_t*}> 
%struct.ompi_request_t = type opaque

@_ZTVN3MPI8PrequestE = weak unnamed_addr global [13 x i32 (...)* (...)*]  [ i32 (...)* (...)*  null, i32 (...)* (...)*  bitcast (%struct.__si_class_type_info* @_ZTIN3MPI8PrequestE to i32 (...)* (...)*), i32 (...)* (...)*  bitcast (void (%struct._ZN3MPI8PrequestE*)* @_ZN3MPI8PrequestD1Ev to i32 (...)* (...)*), i32 (...)* (...)*  bitcast (void (%struct._ZN3MPI8PrequestE*)* @_ZN3MPI8PrequestD0Ev to i32 (...)* (...)*), i32 (...)* (...)*  bitcast (void (%struct._ZN3MPI7RequestE*, %struct._ZN3MPI6StatusE*)* @_ZN3MPI7Request4WaitERNS_6StatusE to i32 (...)* (...)*), i32 (...)* (...)*  bitcast (void (%struct._ZN3MPI7RequestE*)* @_ZN3MPI7Request4WaitEv to i32 (...)* (...)*), i32 (...)* (...)*  bitcast (i8 (%struct._ZN3MPI7RequestE*, %struct._ZN3MPI6StatusE*)* @_ZN3MPI7Request4TestERNS_6StatusE to i32 (...)* (...)*), i32 (...)* (...)*  bitcast (i8 (%struct._ZN3MPI7RequestE*)* @_ZN3MPI7Request4TestEv to i32 (...)* (...)*), i32 (...)* (...)*  bitcast (void (%struct._ZN3MPI7RequestE*)* @_ZN3MPI7Request4FreeEv to i32 (...)* (...)*), i32 (...)* (...)*  bitcast (void (%struct._ZN3MPI7RequestE*)* @_ZNK3MPI7Request6CancelEv to i32 (...)* (...)*), i32 (...)* (...)*  bitcast (i8 (%struct._ZN3MPI7RequestE*, %struct._ZN3MPI6StatusE*)* @_ZNK3MPI7Request10Get_statusERNS_6StatusE to i32 (...)* (...)*), i32 (...)* (...)*  bitcast (i8 (%struct._ZN3MPI7RequestE*)* @_ZNK3MPI7Request10Get_statusEv to i32 (...)* (...)*), i32 (...)* (...)*  bitcast (void (%struct._ZN3MPI8PrequestE*)* @_ZN3MPI8Prequest5StartEv to i32 (...)* (...)*) ], align 16, !dbg !3588

%struct.__si_class_type_info = type <{ %struct.__class_type_info, %struct.__class_type_info*}> 
%struct._ZN3MPI8PrequestE = type <{ %struct._ZN3MPI7RequestE}> 

@_ZTVN3MPI8GrequestE = weak unnamed_addr global [13 x i32 (...)* (...)*]  [ i32 (...)* (...)*  null, i32 (...)* (...)*  bitcast (%struct.__si_class_type_info* @_ZTIN3MPI8GrequestE to i32 (...)* (...)*), i32 (...)* (...)*  bitcast (void (%struct._ZN3MPI8GrequestE*)* @_ZN3MPI8GrequestD1Ev to i32 (...)* (...)*), i32 (...)* (...)*  bitcast (void (%struct._ZN3MPI8GrequestE*)* @_ZN3MPI8GrequestD0Ev to i32 (...)* (...)*), i32 (...)* (...)*  bitcast (void (%struct._ZN3MPI7RequestE*, %struct._ZN3MPI6StatusE*)* @_ZN3MPI7Request4WaitERNS_6StatusE to i32 (...)* (...)*), i32 (...)* (...)*  bitcast (void (%struct._ZN3MPI7RequestE*)* @_ZN3MPI7Request4WaitEv to i32 (...)* (...)*), i32 (...)* (...)*  bitcast (i8 (%struct._ZN3MPI7RequestE*, %struct._ZN3MPI6StatusE*)* @_ZN3MPI7Request4TestERNS_6StatusE to i32 (...)* (...)*), i32 (...)* (...)*  bitcast (i8 (%struct._ZN3MPI7RequestE*)* @_ZN3MPI7Request4TestEv to i32 (...)* (...)*), i32 (...)* (...)*  bitcast (void (%struct._ZN3MPI7RequestE*)* @_ZN3MPI7Request4FreeEv to i32 (...)* (...)*), i32 (...)* (...)*  bitcast (void (%struct._ZN3MPI7RequestE*)* @_ZNK3MPI7Request6CancelEv to i32 (...)* (...)*), i32 (...)* (...)*  bitcast (i8 (%struct._ZN3MPI7RequestE*, %struct._ZN3MPI6StatusE*)* @_ZNK3MPI7Request10Get_statusERNS_6StatusE to i32 (...)* (...)*), i32 (...)* (...)*  bitcast (i8 (%struct._ZN3MPI7RequestE*)* @_ZNK3MPI7Request10Get_statusEv to i32 (...)* (...)*), i32 (...)* (...)*  bitcast (void (%struct._ZN3MPI8GrequestE*)* @_ZN3MPI8Grequest8CompleteEv to i32 (...)* (...)*) ], align 16, !dbg !3592

%struct._ZN3MPI8GrequestE = type <{ %struct._ZN3MPI7RequestE}> 

@_ZTVN3MPI5GroupE = weak unnamed_addr global [11 x i32 (...)* (...)*]  [ i32 (...)* (...)*  null, i32 (...)* (...)*  bitcast (%struct.__class_type_info* @_ZTIN3MPI5GroupE to i32 (...)* (...)*), i32 (...)* (...)*  bitcast (void (%struct._ZN3MPI5GroupE*)* @_ZN3MPI5GroupD1Ev to i32 (...)* (...)*), i32 (...)* (...)*  bitcast (void (%struct._ZN3MPI5GroupE*)* @_ZN3MPI5GroupD0Ev to i32 (...)* (...)*), i32 (...)* (...)*  bitcast (i32 (%struct._ZN3MPI5GroupE*)* @_ZNK3MPI5Group8Get_sizeEv to i32 (...)* (...)*), i32 (...)* (...)*  bitcast (i32 (%struct._ZN3MPI5GroupE*)* @_ZNK3MPI5Group8Get_rankEv to i32 (...)* (...)*), i32 (...)* (...)*  bitcast (void (%struct._ZN3MPI5GroupE*, %struct._ZN3MPI5GroupE*, i32, i32*)* @_ZNK3MPI5Group4InclEiPKi to i32 (...)* (...)*), i32 (...)* (...)*  bitcast (void (%struct._ZN3MPI5GroupE*, %struct._ZN3MPI5GroupE*, i32, i32*)* @_ZNK3MPI5Group4ExclEiPKi to i32 (...)* (...)*), i32 (...)* (...)*  bitcast (void (%struct._ZN3MPI5GroupE*, %struct._ZN3MPI5GroupE*, i32, [3 x i32]*)* @_ZNK3MPI5Group10Range_inclEiPA3_Ki to i32 (...)* (...)*), i32 (...)* (...)*  bitcast (void (%struct._ZN3MPI5GroupE*, %struct._ZN3MPI5GroupE*, i32, [3 x i32]*)* @_ZNK3MPI5Group10Range_exclEiPA3_Ki to i32 (...)* (...)*), i32 (...)* (...)*  bitcast (void (%struct._ZN3MPI5GroupE*)* @_ZN3MPI5Group4FreeEv to i32 (...)* (...)*) ], align 16, !dbg !3599

%struct.ompi_group_t = type opaque
%struct._ZN3MPI5GroupE = type <{ i32 (...)* (...)*, %struct.ompi_group_t*}> 

@_ZTVN3MPI9Comm_NullE = weak unnamed_addr global [4 x i32 (...)* (...)*]  [ i32 (...)* (...)*  null, i32 (...)* (...)*  bitcast (%struct.__class_type_info* @_ZTIN3MPI9Comm_NullE to i32 (...)* (...)*), i32 (...)* (...)*  bitcast (void (%struct._ZN3MPI9Comm_NullE*)* @_ZN3MPI9Comm_NullD1Ev to i32 (...)* (...)*), i32 (...)* (...)*  bitcast (void (%struct._ZN3MPI9Comm_NullE*)* @_ZN3MPI9Comm_NullD0Ev to i32 (...)* (...)*) ], align 16, !dbg !3604
@_ZTVN3MPI4CommE = weak unnamed_addr global [58 x i32 (...)* (...)*]  [ i32 (...)* (...)*  null, i32 (...)* (...)*  bitcast (%struct.__si_class_type_info* @_ZTIN3MPI4CommE to i32 (...)* (...)*), i32 (...)* (...)*  bitcast (void (%struct._ZN3MPI4CommE*)* @_ZN3MPI4CommD1Ev to i32 (...)* (...)*), i32 (...)* (...)*  bitcast (void (%struct._ZN3MPI4CommE*)* @_ZN3MPI4CommD0Ev to i32 (...)* (...)*), i32 (...)* (...)*  bitcast (void (%struct._ZN3MPI4CommE*, i8*, i32, %struct._ZN3MPI8DatatypeE*, i32, i32)* @_ZNK3MPI4Comm4SendEPKviRKNS_8DatatypeEii to i32 (...)* (...)*), i32 (...)* (...)*  bitcast (void (%struct._ZN3MPI4CommE*, i8*, i32, %struct._ZN3MPI8DatatypeE*, i32, i32, %struct._ZN3MPI6StatusE*)* @_ZNK3MPI4Comm4RecvEPviRKNS_8DatatypeEiiRNS_6StatusE to i32 (...)* (...)*), i32 (...)* (...)*  bitcast (void (%struct._ZN3MPI4CommE*, i8*, i32, %struct._ZN3MPI8DatatypeE*, i32, i32)* @_ZNK3MPI4Comm4RecvEPviRKNS_8DatatypeEii to i32 (...)* (...)*), i32 (...)* (...)*  bitcast (void (%struct._ZN3MPI4CommE*, i8*, i32, %struct._ZN3MPI8DatatypeE*, i32, i32)* @_ZNK3MPI4Comm5BsendEPKviRKNS_8DatatypeEii to i32 (...)* (...)*), i32 (...)* (...)*  bitcast (void (%struct._ZN3MPI4CommE*, i8*, i32, %struct._ZN3MPI8DatatypeE*, i32, i32)* @_ZNK3MPI4Comm5SsendEPKviRKNS_8DatatypeEii to i32 (...)* (...)*), i32 (...)* (...)*  bitcast (void (%struct._ZN3MPI4CommE*, i8*, i32, %struct._ZN3MPI8DatatypeE*, i32, i32)* @_ZNK3MPI4Comm5RsendEPKviRKNS_8DatatypeEii to i32 (...)* (...)*), i32 (...)* (...)*  bitcast (void (%struct._ZN3MPI7RequestE*, %struct._ZN3MPI4CommE*, i8*, i32, %struct._ZN3MPI8DatatypeE*, i32, i32)* @_ZNK3MPI4Comm5IsendEPKviRKNS_8DatatypeEii to i32 (...)* (...)*), i32 (...)* (...)*  bitcast (void (%struct._ZN3MPI7RequestE*, %struct._ZN3MPI4CommE*, i8*, i32, %struct._ZN3MPI8DatatypeE*, i32, i32)* @_ZNK3MPI4Comm6IbsendEPKviRKNS_8DatatypeEii to i32 (...)* (...)*), i32 (...)* (...)*  bitcast (void (%struct._ZN3MPI7RequestE*, %struct._ZN3MPI4CommE*, i8*, i32, %struct._ZN3MPI8DatatypeE*, i32, i32)* @_ZNK3MPI4Comm6IssendEPKviRKNS_8DatatypeEii to i32 (...)* (...)*), i32 (...)* (...)*  bitcast (void (%struct._ZN3MPI7RequestE*, %struct._ZN3MPI4CommE*, i8*, i32, %struct._ZN3MPI8DatatypeE*, i32, i32)* @_ZNK3MPI4Comm6IrsendEPKviRKNS_8DatatypeEii to i32 (...)* (...)*), i32 (...)* (...)*  bitcast (void (%struct._ZN3MPI7RequestE*, %struct._ZN3MPI4CommE*, i8*, i32, %struct._ZN3MPI8DatatypeE*, i32, i32)* @_ZNK3MPI4Comm5IrecvEPviRKNS_8DatatypeEii to i32 (...)* (...)*), i32 (...)* (...)*  bitcast (i8 (%struct._ZN3MPI4CommE*, i32, i32, %struct._ZN3MPI6StatusE*)* @_ZNK3MPI4Comm6IprobeEiiRNS_6StatusE to i32 (...)* (...)*), i32 (...)* (...)*  bitcast (i8 (%struct._ZN3MPI4CommE*, i32, i32)* @_ZNK3MPI4Comm6IprobeEii to i32 (...)* (...)*), i32 (...)* (...)*  bitcast (void (%struct._ZN3MPI4CommE*, i32, i32, %struct._ZN3MPI6StatusE*)* @_ZNK3MPI4Comm5ProbeEiiRNS_6StatusE to i32 (...)* (...)*), i32 (...)* (...)*  bitcast (void (%struct._ZN3MPI4CommE*, i32, i32)* @_ZNK3MPI4Comm5ProbeEii to i32 (...)* (...)*), i32 (...)* (...)*  bitcast (void (%struct._ZN3MPI8PrequestE*, %struct._ZN3MPI4CommE*, i8*, i32, %struct._ZN3MPI8DatatypeE*, i32, i32)* @_ZNK3MPI4Comm9Send_initEPKviRKNS_8DatatypeEii to i32 (...)* (...)*), i32 (...)* (...)*  bitcast (void (%struct._ZN3MPI8PrequestE*, %struct._ZN3MPI4CommE*, i8*, i32, %struct._ZN3MPI8DatatypeE*, i32, i32)* @_ZNK3MPI4Comm10Bsend_initEPKviRKNS_8DatatypeEii to i32 (...)* (...)*), i32 (...)* (...)*  bitcast (void (%struct._ZN3MPI8PrequestE*, %struct._ZN3MPI4CommE*, i8*, i32, %struct._ZN3MPI8DatatypeE*, i32, i32)* @_ZNK3MPI4Comm10Ssend_initEPKviRKNS_8DatatypeEii to i32 (...)* (...)*), i32 (...)* (...)*  bitcast (void (%struct._ZN3MPI8PrequestE*, %struct._ZN3MPI4CommE*, i8*, i32, %struct._ZN3MPI8DatatypeE*, i32, i32)* @_ZNK3MPI4Comm10Rsend_initEPKviRKNS_8DatatypeEii to i32 (...)* (...)*), i32 (...)* (...)*  bitcast (void (%struct._ZN3MPI8PrequestE*, %struct._ZN3MPI4CommE*, i8*, i32, %struct._ZN3MPI8DatatypeE*, i32, i32)* @_ZNK3MPI4Comm9Recv_initEPviRKNS_8DatatypeEii to i32 (...)* (...)*), i32 (...)* (...)*  bitcast (void (%struct._ZN3MPI4CommE*, i8*, i32, %struct._ZN3MPI8DatatypeE*, i32, i32, i8*, i32, %struct._ZN3MPI8DatatypeE*, i32, i32, %struct._ZN3MPI6StatusE*)* @_ZNK3MPI4Comm8SendrecvEPKviRKNS_8DatatypeEiiPviS5_iiRNS_6StatusE to i32 (...)* (...)*), i32 (...)* (...)*  bitcast (void (%struct._ZN3MPI4CommE*, i8*, i32, %struct._ZN3MPI8DatatypeE*, i32, i32, i8*, i32, %struct._ZN3MPI8DatatypeE*, i32, i32)* @_ZNK3MPI4Comm8SendrecvEPKviRKNS_8DatatypeEiiPviS5_ii to i32 (...)* (...)*), i32 (...)* (...)*  bitcast (void (%struct._ZN3MPI4CommE*, i8*, i32, %struct._ZN3MPI8DatatypeE*, i32, i32, i32, i32, %struct._ZN3MPI6StatusE*)* @_ZNK3MPI4Comm16Sendrecv_replaceEPviRKNS_8DatatypeEiiiiRNS_6StatusE to i32 (...)* (...)*), i32 (...)* (...)*  bitcast (void (%struct._ZN3MPI4CommE*, i8*, i32, %struct._ZN3MPI8DatatypeE*, i32, i32, i32, i32)* @_ZNK3MPI4Comm16Sendrecv_replaceEPviRKNS_8DatatypeEiiii to i32 (...)* (...)*), i32 (...)* (...)*  bitcast (void (%struct._ZN3MPI5GroupE*, %struct._ZN3MPI4CommE*)* @_ZNK3MPI4Comm9Get_groupEv to i32 (...)* (...)*), i32 (...)* (...)*  bitcast (i32 (%struct._ZN3MPI4CommE*)* @_ZNK3MPI4Comm8Get_sizeEv to i32 (...)* (...)*), i32 (...)* (...)*  bitcast (i32 (%struct._ZN3MPI4CommE*)* @_ZNK3MPI4Comm8Get_rankEv to i32 (...)* (...)*), i32 (...)* (...)*  bitcast (void ()* @__cxa_pure_virtual to i32 (...)* (...)*), i32 (...)* (...)*  bitcast (void (%struct._ZN3MPI4CommE*)* @_ZN3MPI4Comm4FreeEv to i32 (...)* (...)*), i32 (...)* (...)*  bitcast (i8 (%struct._ZN3MPI4CommE*)* @_ZNK3MPI4Comm8Is_interEv to i32 (...)* (...)*), i32 (...)* (...)*  bitcast (void (%struct._ZN3MPI4CommE*)* @_ZNK3MPI4Comm7BarrierEv to i32 (...)* (...)*), i32 (...)* (...)*  bitcast (void (%struct._ZN3MPI4CommE*, i8*, i32, %struct._ZN3MPI8DatatypeE*, i32)* @_ZNK3MPI4Comm5BcastEPviRKNS_8DatatypeEi to i32 (...)* (...)*), i32 (...)* (...)*  bitcast (void (%struct._ZN3MPI4CommE*, i8*, i32, %struct._ZN3MPI8DatatypeE*, i8*, i32, %struct._ZN3MPI8DatatypeE*, i32)* @_ZNK3MPI4Comm6GatherEPKviRKNS_8DatatypeEPviS5_i to i32 (...)* (...)*), i32 (...)* (...)*  bitcast (void (%struct._ZN3MPI4CommE*, i8*, i32, %struct._ZN3MPI8DatatypeE*, i8*, i32*, i32*, %struct._ZN3MPI8DatatypeE*, i32)* @_ZNK3MPI4Comm7GathervEPKviRKNS_8DatatypeEPvPKiS8_S5_i to i32 (...)* (...)*), i32 (...)* (...)*  bitcast (void (%struct._ZN3MPI4CommE*, i8*, i32, %struct._ZN3MPI8DatatypeE*, i8*, i32, %struct._ZN3MPI8DatatypeE*, i32)* @_ZNK3MPI4Comm7ScatterEPKviRKNS_8DatatypeEPviS5_i to i32 (...)* (...)*), i32 (...)* (...)*  bitcast (void (%struct._ZN3MPI4CommE*, i8*, i32*, i32*, %struct._ZN3MPI8DatatypeE*, i8*, i32, %struct._ZN3MPI8DatatypeE*, i32)* @_ZNK3MPI4Comm8ScattervEPKvPKiS4_RKNS_8DatatypeEPviS7_i to i32 (...)* (...)*), i32 (...)* (...)*  bitcast (void (%struct._ZN3MPI4CommE*, i8*, i32, %struct._ZN3MPI8DatatypeE*, i8*, i32, %struct._ZN3MPI8DatatypeE*)* @_ZNK3MPI4Comm9AllgatherEPKviRKNS_8DatatypeEPviS5_ to i32 (...)* (...)*), i32 (...)* (...)*  bitcast (void (%struct._ZN3MPI4CommE*, i8*, i32, %struct._ZN3MPI8DatatypeE*, i8*, i32*, i32*, %struct._ZN3MPI8DatatypeE*)* @_ZNK3MPI4Comm10AllgathervEPKviRKNS_8DatatypeEPvPKiS8_S5_ to i32 (...)* (...)*), i32 (...)* (...)*  bitcast (void (%struct._ZN3MPI4CommE*, i8*, i32, %struct._ZN3MPI8DatatypeE*, i8*, i32, %struct._ZN3MPI8DatatypeE*)* @_ZNK3MPI4Comm8AlltoallEPKviRKNS_8DatatypeEPviS5_ to i32 (...)* (...)*), i32 (...)* (...)*  bitcast (void (%struct._ZN3MPI4CommE*, i8*, i32*, i32*, %struct._ZN3MPI8DatatypeE*, i8*, i32*, i32*, %struct._ZN3MPI8DatatypeE*)* @_ZNK3MPI4Comm9AlltoallvEPKvPKiS4_RKNS_8DatatypeEPvS4_S4_S7_ to i32 (...)* (...)*), i32 (...)* (...)*  bitcast (void (%struct._ZN3MPI4CommE*, i8*, i32*, i32*, %struct._ZN3MPI8DatatypeE*, i8*, i32*, i32*, %struct._ZN3MPI8DatatypeE*)* @_ZNK3MPI4Comm9AlltoallwEPKvPKiS4_PKNS_8DatatypeEPvS4_S4_S7_ to i32 (...)* (...)*), i32 (...)* (...)*  bitcast (void (%struct._ZN3MPI4CommE*, i8*, i8*, i32, %struct._ZN3MPI8DatatypeE*, %struct._ZN3MPI2OpE*, i32)* @_ZNK3MPI4Comm6ReduceEPKvPviRKNS_8DatatypeERKNS_2OpEi to i32 (...)* (...)*), i32 (...)* (...)*  bitcast (void (%struct._ZN3MPI4CommE*, i8*, i8*, i32, %struct._ZN3MPI8DatatypeE*, %struct._ZN3MPI2OpE*)* @_ZNK3MPI4Comm9AllreduceEPKvPviRKNS_8DatatypeERKNS_2OpE to i32 (...)* (...)*), i32 (...)* (...)*  bitcast (void (%struct._ZN3MPI4CommE*, i8*, i8*, i32*, %struct._ZN3MPI8DatatypeE*, %struct._ZN3MPI2OpE*)* @_ZNK3MPI4Comm14Reduce_scatterEPKvPvPiRKNS_8DatatypeERKNS_2OpE to i32 (...)* (...)*), i32 (...)* (...)*  bitcast (void (%struct._ZN3MPI4CommE*)* @_ZN3MPI4Comm10DisconnectEv to i32 (...)* (...)*), i32 (...)* (...)*  bitcast (void (%struct._ZN3MPI4CommE*, i8*, i32*)* @_ZNK3MPI4Comm8Get_nameEPcRi to i32 (...)* (...)*), i32 (...)* (...)*  bitcast (void (%struct._ZN3MPI4CommE*, i8*)* @_ZN3MPI4Comm8Set_nameEPKc to i32 (...)* (...)*), i32 (...)* (...)*  bitcast (i32 (%struct._ZN3MPI4CommE*)* @_ZNK3MPI4Comm12Get_topologyEv to i32 (...)* (...)*), i32 (...)* (...)*  bitcast (void (%struct._ZN3MPI4CommE*, i32)* @_ZN3MPI4Comm5AbortEi to i32 (...)* (...)*), i32 (...)* (...)*  bitcast (void (%struct._ZN3MPI4CommE*, %struct._ZN3MPI10ErrhandlerE*)* @_ZN3MPI4Comm14Set_errhandlerERKNS_10ErrhandlerE to i32 (...)* (...)*), i32 (...)* (...)*  bitcast (void (%struct._ZN3MPI10ErrhandlerE*, %struct._ZN3MPI4CommE*)* @_ZNK3MPI4Comm14Get_errhandlerEv to i32 (...)* (...)*), i32 (...)* (...)*  bitcast (void (%struct._ZN3MPI4CommE*, i32, i8*)* @_ZNK3MPI4Comm8Set_attrEiPKv to i32 (...)* (...)*), i32 (...)* (...)*  bitcast (i8 (%struct._ZN3MPI4CommE*, i32, i8*)* @_ZNK3MPI4Comm8Get_attrEiPv to i32 (...)* (...)*), i32 (...)* (...)*  bitcast (void (%struct._ZN3MPI4CommE*, i32)* @_ZN3MPI4Comm11Delete_attrEi to i32 (...)* (...)*) ], align 16, !dbg !3611

%struct._ZN3MPI10ErrhandlerE = type <{ i32 (...)* (...)*, %struct.ompi_errhandler_t*}> 
%struct._ZN3MPI2OpE = type <{ i32 (...)* (...)*, %struct.ompi_op_t*}> 
%struct.ompi_errhandler_t = type opaque
%struct.ompi_op_t = type opaque

@_ZTVN3MPI3WinE = weak unnamed_addr global [24 x i32 (...)* (...)*]  [ i32 (...)* (...)*  null, i32 (...)* (...)*  bitcast (%struct.__class_type_info* @_ZTIN3MPI3WinE to i32 (...)* (...)*), i32 (...)* (...)*  bitcast (void (%struct._ZN3MPI3WinE*)* @_ZN3MPI3WinD1Ev to i32 (...)* (...)*), i32 (...)* (...)*  bitcast (void (%struct._ZN3MPI3WinE*)* @_ZN3MPI3WinD0Ev to i32 (...)* (...)*), i32 (...)* (...)*  bitcast (void (%struct._ZN3MPI3WinE*, %struct._ZN3MPI10ErrhandlerE*)* @_ZNK3MPI3Win14Set_errhandlerERKNS_10ErrhandlerE to i32 (...)* (...)*), i32 (...)* (...)*  bitcast (void (%struct._ZN3MPI10ErrhandlerE*, %struct._ZN3MPI3WinE*)* @_ZNK3MPI3Win14Get_errhandlerEv to i32 (...)* (...)*), i32 (...)* (...)*  bitcast (void (%struct._ZN3MPI3WinE*, i8*, i32, %struct._ZN3MPI8DatatypeE*, i32, i64, i32, %struct._ZN3MPI8DatatypeE*, %struct._ZN3MPI2OpE*)* @_ZNK3MPI3Win10AccumulateEPKviRKNS_8DatatypeEiliS5_RKNS_2OpE to i32 (...)* (...)*), i32 (...)* (...)*  bitcast (void (%struct._ZN3MPI3WinE*)* @_ZNK3MPI3Win8CompleteEv to i32 (...)* (...)*), i32 (...)* (...)*  bitcast (void (%struct._ZN3MPI3WinE*, i32)* @_ZNK3MPI3Win5FenceEi to i32 (...)* (...)*), i32 (...)* (...)*  bitcast (void (%struct._ZN3MPI3WinE*)* @_ZN3MPI3Win4FreeEv to i32 (...)* (...)*), i32 (...)* (...)*  bitcast (void (%struct._ZN3MPI3WinE*, i8*, i32, %struct._ZN3MPI8DatatypeE*, i32, i64, i32, %struct._ZN3MPI8DatatypeE*)* @_ZNK3MPI3Win3GetEPKviRKNS_8DatatypeEiliS5_ to i32 (...)* (...)*), i32 (...)* (...)*  bitcast (void (%struct._ZN3MPI5GroupE*, %struct._ZN3MPI3WinE*)* @_ZNK3MPI3Win9Get_groupEv to i32 (...)* (...)*), i32 (...)* (...)*  bitcast (void (%struct._ZN3MPI3WinE*, i32, i32, i32)* @_ZNK3MPI3Win4LockEiii to i32 (...)* (...)*), i32 (...)* (...)*  bitcast (void (%struct._ZN3MPI3WinE*, %struct._ZN3MPI5GroupE*, i32)* @_ZNK3MPI3Win4PostERKNS_5GroupEi to i32 (...)* (...)*), i32 (...)* (...)*  bitcast (void (%struct._ZN3MPI3WinE*, i8*, i32, %struct._ZN3MPI8DatatypeE*, i32, i64, i32, %struct._ZN3MPI8DatatypeE*)* @_ZNK3MPI3Win3PutEPKviRKNS_8DatatypeEiliS5_ to i32 (...)* (...)*), i32 (...)* (...)*  bitcast (void (%struct._ZN3MPI3WinE*, %struct._ZN3MPI5GroupE*, i32)* @_ZNK3MPI3Win5StartERKNS_5GroupEi to i32 (...)* (...)*), i32 (...)* (...)*  bitcast (i8 (%struct._ZN3MPI3WinE*)* @_ZNK3MPI3Win4TestEv to i32 (...)* (...)*), i32 (...)* (...)*  bitcast (void (%struct._ZN3MPI3WinE*, i32)* @_ZNK3MPI3Win6UnlockEi to i32 (...)* (...)*), i32 (...)* (...)*  bitcast (void (%struct._ZN3MPI3WinE*)* @_ZNK3MPI3Win4WaitEv to i32 (...)* (...)*), i32 (...)* (...)*  bitcast (void (%struct._ZN3MPI3WinE*, i32)* @_ZNK3MPI3Win15Call_errhandlerEi to i32 (...)* (...)*), i32 (...)* (...)*  bitcast (void (%struct._ZN3MPI3WinE*, i32)* @_ZN3MPI3Win11Delete_attrEi to i32 (...)* (...)*), i32 (...)* (...)*  bitcast (void (%struct._ZN3MPI3WinE*, i8*, i32*)* @_ZNK3MPI3Win8Get_nameEPcRi to i32 (...)* (...)*), i32 (...)* (...)*  bitcast (void (%struct._ZN3MPI3WinE*, i32, i8*)* @_ZN3MPI3Win8Set_attrEiPKv to i32 (...)* (...)*), i32 (...)* (...)*  bitcast (void (%struct._ZN3MPI3WinE*, i8*)* @_ZN3MPI3Win8Set_nameEPKc to i32 (...)* (...)*) ], align 16, !dbg !3618

%struct.ompi_win_t = type opaque
%struct._ZN3MPI3WinE = type <{ i32 (...)* (...)*, %struct.ompi_win_t*}> 

@_ZTVN3MPI10ErrhandlerE = weak unnamed_addr global [5 x i32 (...)* (...)*]  [ i32 (...)* (...)*  null, i32 (...)* (...)*  bitcast (%struct.__class_type_info* @_ZTIN3MPI10ErrhandlerE to i32 (...)* (...)*), i32 (...)* (...)*  bitcast (void (%struct._ZN3MPI10ErrhandlerE*)* @_ZN3MPI10ErrhandlerD1Ev to i32 (...)* (...)*), i32 (...)* (...)*  bitcast (void (%struct._ZN3MPI10ErrhandlerE*)* @_ZN3MPI10ErrhandlerD0Ev to i32 (...)* (...)*), i32 (...)* (...)*  bitcast (void (%struct._ZN3MPI10ErrhandlerE*)* @_ZN3MPI10Errhandler4FreeEv to i32 (...)* (...)*) ], align 16, !dbg !3625
@_ZTVN3MPI9IntracommE = weak unnamed_addr global [71 x i32 (...)* (...)*]  [ i32 (...)* (...)*  null, i32 (...)* (...)*  bitcast (%struct.__si_class_type_info* @_ZTIN3MPI9IntracommE to i32 (...)* (...)*), i32 (...)* (...)*  bitcast (void (%struct._ZN3MPI9IntracommE*)* @_ZN3MPI9IntracommD1Ev to i32 (...)* (...)*), i32 (...)* (...)*  bitcast (void (%struct._ZN3MPI9IntracommE*)* @_ZN3MPI9IntracommD0Ev to i32 (...)* (...)*), i32 (...)* (...)*  bitcast (void (%struct._ZN3MPI4CommE*, i8*, i32, %struct._ZN3MPI8DatatypeE*, i32, i32)* @_ZNK3MPI4Comm4SendEPKviRKNS_8DatatypeEii to i32 (...)* (...)*), i32 (...)* (...)*  bitcast (void (%struct._ZN3MPI4CommE*, i8*, i32, %struct._ZN3MPI8DatatypeE*, i32, i32, %struct._ZN3MPI6StatusE*)* @_ZNK3MPI4Comm4RecvEPviRKNS_8DatatypeEiiRNS_6StatusE to i32 (...)* (...)*), i32 (...)* (...)*  bitcast (void (%struct._ZN3MPI4CommE*, i8*, i32, %struct._ZN3MPI8DatatypeE*, i32, i32)* @_ZNK3MPI4Comm4RecvEPviRKNS_8DatatypeEii to i32 (...)* (...)*), i32 (...)* (...)*  bitcast (void (%struct._ZN3MPI4CommE*, i8*, i32, %struct._ZN3MPI8DatatypeE*, i32, i32)* @_ZNK3MPI4Comm5BsendEPKviRKNS_8DatatypeEii to i32 (...)* (...)*), i32 (...)* (...)*  bitcast (void (%struct._ZN3MPI4CommE*, i8*, i32, %struct._ZN3MPI8DatatypeE*, i32, i32)* @_ZNK3MPI4Comm5SsendEPKviRKNS_8DatatypeEii to i32 (...)* (...)*), i32 (...)* (...)*  bitcast (void (%struct._ZN3MPI4CommE*, i8*, i32, %struct._ZN3MPI8DatatypeE*, i32, i32)* @_ZNK3MPI4Comm5RsendEPKviRKNS_8DatatypeEii to i32 (...)* (...)*), i32 (...)* (...)*  bitcast (void (%struct._ZN3MPI7RequestE*, %struct._ZN3MPI4CommE*, i8*, i32, %struct._ZN3MPI8DatatypeE*, i32, i32)* @_ZNK3MPI4Comm5IsendEPKviRKNS_8DatatypeEii to i32 (...)* (...)*), i32 (...)* (...)*  bitcast (void (%struct._ZN3MPI7RequestE*, %struct._ZN3MPI4CommE*, i8*, i32, %struct._ZN3MPI8DatatypeE*, i32, i32)* @_ZNK3MPI4Comm6IbsendEPKviRKNS_8DatatypeEii to i32 (...)* (...)*), i32 (...)* (...)*  bitcast (void (%struct._ZN3MPI7RequestE*, %struct._ZN3MPI4CommE*, i8*, i32, %struct._ZN3MPI8DatatypeE*, i32, i32)* @_ZNK3MPI4Comm6IssendEPKviRKNS_8DatatypeEii to i32 (...)* (...)*), i32 (...)* (...)*  bitcast (void (%struct._ZN3MPI7RequestE*, %struct._ZN3MPI4CommE*, i8*, i32, %struct._ZN3MPI8DatatypeE*, i32, i32)* @_ZNK3MPI4Comm6IrsendEPKviRKNS_8DatatypeEii to i32 (...)* (...)*), i32 (...)* (...)*  bitcast (void (%struct._ZN3MPI7RequestE*, %struct._ZN3MPI4CommE*, i8*, i32, %struct._ZN3MPI8DatatypeE*, i32, i32)* @_ZNK3MPI4Comm5IrecvEPviRKNS_8DatatypeEii to i32 (...)* (...)*), i32 (...)* (...)*  bitcast (i8 (%struct._ZN3MPI4CommE*, i32, i32, %struct._ZN3MPI6StatusE*)* @_ZNK3MPI4Comm6IprobeEiiRNS_6StatusE to i32 (...)* (...)*), i32 (...)* (...)*  bitcast (i8 (%struct._ZN3MPI4CommE*, i32, i32)* @_ZNK3MPI4Comm6IprobeEii to i32 (...)* (...)*), i32 (...)* (...)*  bitcast (void (%struct._ZN3MPI4CommE*, i32, i32, %struct._ZN3MPI6StatusE*)* @_ZNK3MPI4Comm5ProbeEiiRNS_6StatusE to i32 (...)* (...)*), i32 (...)* (...)*  bitcast (void (%struct._ZN3MPI4CommE*, i32, i32)* @_ZNK3MPI4Comm5ProbeEii to i32 (...)* (...)*), i32 (...)* (...)*  bitcast (void (%struct._ZN3MPI8PrequestE*, %struct._ZN3MPI4CommE*, i8*, i32, %struct._ZN3MPI8DatatypeE*, i32, i32)* @_ZNK3MPI4Comm9Send_initEPKviRKNS_8DatatypeEii to i32 (...)* (...)*), i32 (...)* (...)*  bitcast (void (%struct._ZN3MPI8PrequestE*, %struct._ZN3MPI4CommE*, i8*, i32, %struct._ZN3MPI8DatatypeE*, i32, i32)* @_ZNK3MPI4Comm10Bsend_initEPKviRKNS_8DatatypeEii to i32 (...)* (...)*), i32 (...)* (...)*  bitcast (void (%struct._ZN3MPI8PrequestE*, %struct._ZN3MPI4CommE*, i8*, i32, %struct._ZN3MPI8DatatypeE*, i32, i32)* @_ZNK3MPI4Comm10Ssend_initEPKviRKNS_8DatatypeEii to i32 (...)* (...)*), i32 (...)* (...)*  bitcast (void (%struct._ZN3MPI8PrequestE*, %struct._ZN3MPI4CommE*, i8*, i32, %struct._ZN3MPI8DatatypeE*, i32, i32)* @_ZNK3MPI4Comm10Rsend_initEPKviRKNS_8DatatypeEii to i32 (...)* (...)*), i32 (...)* (...)*  bitcast (void (%struct._ZN3MPI8PrequestE*, %struct._ZN3MPI4CommE*, i8*, i32, %struct._ZN3MPI8DatatypeE*, i32, i32)* @_ZNK3MPI4Comm9Recv_initEPviRKNS_8DatatypeEii to i32 (...)* (...)*), i32 (...)* (...)*  bitcast (void (%struct._ZN3MPI4CommE*, i8*, i32, %struct._ZN3MPI8DatatypeE*, i32, i32, i8*, i32, %struct._ZN3MPI8DatatypeE*, i32, i32, %struct._ZN3MPI6StatusE*)* @_ZNK3MPI4Comm8SendrecvEPKviRKNS_8DatatypeEiiPviS5_iiRNS_6StatusE to i32 (...)* (...)*), i32 (...)* (...)*  bitcast (void (%struct._ZN3MPI4CommE*, i8*, i32, %struct._ZN3MPI8DatatypeE*, i32, i32, i8*, i32, %struct._ZN3MPI8DatatypeE*, i32, i32)* @_ZNK3MPI4Comm8SendrecvEPKviRKNS_8DatatypeEiiPviS5_ii to i32 (...)* (...)*), i32 (...)* (...)*  bitcast (void (%struct._ZN3MPI4CommE*, i8*, i32, %struct._ZN3MPI8DatatypeE*, i32, i32, i32, i32, %struct._ZN3MPI6StatusE*)* @_ZNK3MPI4Comm16Sendrecv_replaceEPviRKNS_8DatatypeEiiiiRNS_6StatusE to i32 (...)* (...)*), i32 (...)* (...)*  bitcast (void (%struct._ZN3MPI4CommE*, i8*, i32, %struct._ZN3MPI8DatatypeE*, i32, i32, i32, i32)* @_ZNK3MPI4Comm16Sendrecv_replaceEPviRKNS_8DatatypeEiiii to i32 (...)* (...)*), i32 (...)* (...)*  bitcast (void (%struct._ZN3MPI5GroupE*, %struct._ZN3MPI4CommE*)* @_ZNK3MPI4Comm9Get_groupEv to i32 (...)* (...)*), i32 (...)* (...)*  bitcast (i32 (%struct._ZN3MPI4CommE*)* @_ZNK3MPI4Comm8Get_sizeEv to i32 (...)* (...)*), i32 (...)* (...)*  bitcast (i32 (%struct._ZN3MPI4CommE*)* @_ZNK3MPI4Comm8Get_rankEv to i32 (...)* (...)*), i32 (...)* (...)*  bitcast (%struct._ZN3MPI9IntracommE* (%struct._ZN3MPI9IntracommE*)* @_ZNK3MPI9Intracomm5CloneEv to i32 (...)* (...)*), i32 (...)* (...)*  bitcast (void (%struct._ZN3MPI4CommE*)* @_ZN3MPI4Comm4FreeEv to i32 (...)* (...)*), i32 (...)* (...)*  bitcast (i8 (%struct._ZN3MPI4CommE*)* @_ZNK3MPI4Comm8Is_interEv to i32 (...)* (...)*), i32 (...)* (...)*  bitcast (void (%struct._ZN3MPI4CommE*)* @_ZNK3MPI4Comm7BarrierEv to i32 (...)* (...)*), i32 (...)* (...)*  bitcast (void (%struct._ZN3MPI4CommE*, i8*, i32, %struct._ZN3MPI8DatatypeE*, i32)* @_ZNK3MPI4Comm5BcastEPviRKNS_8DatatypeEi to i32 (...)* (...)*), i32 (...)* (...)*  bitcast (void (%struct._ZN3MPI4CommE*, i8*, i32, %struct._ZN3MPI8DatatypeE*, i8*, i32, %struct._ZN3MPI8DatatypeE*, i32)* @_ZNK3MPI4Comm6GatherEPKviRKNS_8DatatypeEPviS5_i to i32 (...)* (...)*), i32 (...)* (...)*  bitcast (void (%struct._ZN3MPI4CommE*, i8*, i32, %struct._ZN3MPI8DatatypeE*, i8*, i32*, i32*, %struct._ZN3MPI8DatatypeE*, i32)* @_ZNK3MPI4Comm7GathervEPKviRKNS_8DatatypeEPvPKiS8_S5_i to i32 (...)* (...)*), i32 (...)* (...)*  bitcast (void (%struct._ZN3MPI4CommE*, i8*, i32, %struct._ZN3MPI8DatatypeE*, i8*, i32, %struct._ZN3MPI8DatatypeE*, i32)* @_ZNK3MPI4Comm7ScatterEPKviRKNS_8DatatypeEPviS5_i to i32 (...)* (...)*), i32 (...)* (...)*  bitcast (void (%struct._ZN3MPI4CommE*, i8*, i32*, i32*, %struct._ZN3MPI8DatatypeE*, i8*, i32, %struct._ZN3MPI8DatatypeE*, i32)* @_ZNK3MPI4Comm8ScattervEPKvPKiS4_RKNS_8DatatypeEPviS7_i to i32 (...)* (...)*), i32 (...)* (...)*  bitcast (void (%struct._ZN3MPI4CommE*, i8*, i32, %struct._ZN3MPI8DatatypeE*, i8*, i32, %struct._ZN3MPI8DatatypeE*)* @_ZNK3MPI4Comm9AllgatherEPKviRKNS_8DatatypeEPviS5_ to i32 (...)* (...)*), i32 (...)* (...)*  bitcast (void (%struct._ZN3MPI4CommE*, i8*, i32, %struct._ZN3MPI8DatatypeE*, i8*, i32*, i32*, %struct._ZN3MPI8DatatypeE*)* @_ZNK3MPI4Comm10AllgathervEPKviRKNS_8DatatypeEPvPKiS8_S5_ to i32 (...)* (...)*), i32 (...)* (...)*  bitcast (void (%struct._ZN3MPI4CommE*, i8*, i32, %struct._ZN3MPI8DatatypeE*, i8*, i32, %struct._ZN3MPI8DatatypeE*)* @_ZNK3MPI4Comm8AlltoallEPKviRKNS_8DatatypeEPviS5_ to i32 (...)* (...)*), i32 (...)* (...)*  bitcast (void (%struct._ZN3MPI4CommE*, i8*, i32*, i32*, %struct._ZN3MPI8DatatypeE*, i8*, i32*, i32*, %struct._ZN3MPI8DatatypeE*)* @_ZNK3MPI4Comm9AlltoallvEPKvPKiS4_RKNS_8DatatypeEPvS4_S4_S7_ to i32 (...)* (...)*), i32 (...)* (...)*  bitcast (void (%struct._ZN3MPI4CommE*, i8*, i32*, i32*, %struct._ZN3MPI8DatatypeE*, i8*, i32*, i32*, %struct._ZN3MPI8DatatypeE*)* @_ZNK3MPI4Comm9AlltoallwEPKvPKiS4_PKNS_8DatatypeEPvS4_S4_S7_ to i32 (...)* (...)*), i32 (...)* (...)*  bitcast (void (%struct._ZN3MPI4CommE*, i8*, i8*, i32, %struct._ZN3MPI8DatatypeE*, %struct._ZN3MPI2OpE*, i32)* @_ZNK3MPI4Comm6ReduceEPKvPviRKNS_8DatatypeERKNS_2OpEi to i32 (...)* (...)*), i32 (...)* (...)*  bitcast (void (%struct._ZN3MPI4CommE*, i8*, i8*, i32, %struct._ZN3MPI8DatatypeE*, %struct._ZN3MPI2OpE*)* @_ZNK3MPI4Comm9AllreduceEPKvPviRKNS_8DatatypeERKNS_2OpE to i32 (...)* (...)*), i32 (...)* (...)*  bitcast (void (%struct._ZN3MPI4CommE*, i8*, i8*, i32*, %struct._ZN3MPI8DatatypeE*, %struct._ZN3MPI2OpE*)* @_ZNK3MPI4Comm14Reduce_scatterEPKvPvPiRKNS_8DatatypeERKNS_2OpE to i32 (...)* (...)*), i32 (...)* (...)*  bitcast (void (%struct._ZN3MPI4CommE*)* @_ZN3MPI4Comm10DisconnectEv to i32 (...)* (...)*), i32 (...)* (...)*  bitcast (void (%struct._ZN3MPI4CommE*, i8*, i32*)* @_ZNK3MPI4Comm8Get_nameEPcRi to i32 (...)* (...)*), i32 (...)* (...)*  bitcast (void (%struct._ZN3MPI4CommE*, i8*)* @_ZN3MPI4Comm8Set_nameEPKc to i32 (...)* (...)*), i32 (...)* (...)*  bitcast (i32 (%struct._ZN3MPI4CommE*)* @_ZNK3MPI4Comm12Get_topologyEv to i32 (...)* (...)*), i32 (...)* (...)*  bitcast (void (%struct._ZN3MPI4CommE*, i32)* @_ZN3MPI4Comm5AbortEi to i32 (...)* (...)*), i32 (...)* (...)*  bitcast (void (%struct._ZN3MPI4CommE*, %struct._ZN3MPI10ErrhandlerE*)* @_ZN3MPI4Comm14Set_errhandlerERKNS_10ErrhandlerE to i32 (...)* (...)*), i32 (...)* (...)*  bitcast (void (%struct._ZN3MPI10ErrhandlerE*, %struct._ZN3MPI4CommE*)* @_ZNK3MPI4Comm14Get_errhandlerEv to i32 (...)* (...)*), i32 (...)* (...)*  bitcast (void (%struct._ZN3MPI4CommE*, i32, i8*)* @_ZNK3MPI4Comm8Set_attrEiPKv to i32 (...)* (...)*), i32 (...)* (...)*  bitcast (i8 (%struct._ZN3MPI4CommE*, i32, i8*)* @_ZNK3MPI4Comm8Get_attrEiPv to i32 (...)* (...)*), i32 (...)* (...)*  bitcast (void (%struct._ZN3MPI4CommE*, i32)* @_ZN3MPI4Comm11Delete_attrEi to i32 (...)* (...)*), i32 (...)* (...)*  bitcast (void (%struct._ZN3MPI9IntracommE*, i8*, i8*, i32, %struct._ZN3MPI8DatatypeE*, %struct._ZN3MPI2OpE*)* @_ZNK3MPI9Intracomm4ScanEPKvPviRKNS_8DatatypeERKNS_2OpE to i32 (...)* (...)*), i32 (...)* (...)*  bitcast (void (%struct._ZN3MPI9IntracommE*, i8*, i8*, i32, %struct._ZN3MPI8DatatypeE*, %struct._ZN3MPI2OpE*)* @_ZNK3MPI9Intracomm6ExscanEPKvPviRKNS_8DatatypeERKNS_2OpE to i32 (...)* (...)*), i32 (...)* (...)*  bitcast (void (%struct._ZN3MPI9IntracommE*, %struct._ZN3MPI9IntracommE*, %struct._ZN3MPI5GroupE*)* @_ZNK3MPI9Intracomm6CreateERKNS_5GroupE to i32 (...)* (...)*), i32 (...)* (...)*  bitcast (void (%struct._ZN3MPI9IntracommE*, %struct._ZN3MPI9IntracommE*, i32, i32)* @_ZNK3MPI9Intracomm5SplitEii to i32 (...)* (...)*), i32 (...)* (...)*  bitcast (void (%struct._ZN3MPI9IntercommE*, %struct._ZN3MPI9IntracommE*, i32, %struct._ZN3MPI4CommE*, i32, i32)* @_ZNK3MPI9Intracomm16Create_intercommEiRKNS_4CommEii to i32 (...)* (...)*), i32 (...)* (...)*  bitcast (void (%struct._ZN3MPI8CartcommE*, %struct._ZN3MPI9IntracommE*, i32, i32*, i8*, i8)* @_ZNK3MPI9Intracomm11Create_cartEiPKiPKbb to i32 (...)* (...)*), i32 (...)* (...)*  bitcast (void (%struct._ZN3MPI9GraphcommE*, %struct._ZN3MPI9IntracommE*, i32, i32*, i32*, i8)* @_ZNK3MPI9Intracomm12Create_graphEiPKiS2_b to i32 (...)* (...)*), i32 (...)* (...)*  bitcast (void (%struct._ZN3MPI9IntercommE*, %struct._ZN3MPI9IntracommE*, i8*, %struct._ZN3MPI4InfoE*, i32)* @_ZNK3MPI9Intracomm6AcceptEPKcRKNS_4InfoEi to i32 (...)* (...)*), i32 (...)* (...)*  bitcast (void (%struct._ZN3MPI9IntercommE*, %struct._ZN3MPI9IntracommE*, i8*, %struct._ZN3MPI4InfoE*, i32)* @_ZNK3MPI9Intracomm7ConnectEPKcRKNS_4InfoEi to i32 (...)* (...)*), i32 (...)* (...)*  bitcast (void (%struct._ZN3MPI9IntercommE*, %struct._ZN3MPI9IntracommE*, i8*, i8**, i32, %struct._ZN3MPI4InfoE*, i32)* @_ZNK3MPI9Intracomm5SpawnEPKcPS2_iRKNS_4InfoEi to i32 (...)* (...)*), i32 (...)* (...)*  bitcast (void (%struct._ZN3MPI9IntercommE*, %struct._ZN3MPI9IntracommE*, i8*, i8**, i32, %struct._ZN3MPI4InfoE*, i32, i32*)* @_ZNK3MPI9Intracomm5SpawnEPKcPS2_iRKNS_4InfoEiPi to i32 (...)* (...)*), i32 (...)* (...)*  bitcast (void (%struct._ZN3MPI9IntercommE*, %struct._ZN3MPI9IntracommE*, i32, i8**, i8***, i32*, %struct._ZN3MPI4InfoE*, i32)* @_ZN3MPI9Intracomm14Spawn_multipleEiPPKcPS3_PKiPKNS_4InfoEi to i32 (...)* (...)*), i32 (...)* (...)*  bitcast (void (%struct._ZN3MPI9IntercommE*, %struct._ZN3MPI9IntracommE*, i32, i8**, i8***, i32*, %struct._ZN3MPI4InfoE*, i32, i32*)* @_ZN3MPI9Intracomm14Spawn_multipleEiPPKcPS3_PKiPKNS_4InfoEiPi to i32 (...)* (...)*) ], align 16, !dbg !3632

%struct.ompi_info_t = type opaque
%struct._ZN3MPI9IntracommE = type <{ %struct._ZN3MPI4CommE}> 
%struct._ZN3MPI9IntercommE = type <{ %struct._ZN3MPI4CommE}> 
%struct._ZN3MPI8CartcommE = type <{ %struct._ZN3MPI9IntracommE}> 
%struct._ZN3MPI9GraphcommE = type <{ %struct._ZN3MPI9IntracommE}> 
%struct._ZN3MPI4InfoE = type <{ i32 (...)* (...)*, %struct.ompi_info_t*}> 

@_ZTVN3MPI8CartcommE = weak unnamed_addr global [78 x i32 (...)* (...)*]  [ i32 (...)* (...)*  null, i32 (...)* (...)*  bitcast (%struct.__si_class_type_info* @_ZTIN3MPI8CartcommE to i32 (...)* (...)*), i32 (...)* (...)*  bitcast (void (%struct._ZN3MPI8CartcommE*)* @_ZN3MPI8CartcommD1Ev to i32 (...)* (...)*), i32 (...)* (...)*  bitcast (void (%struct._ZN3MPI8CartcommE*)* @_ZN3MPI8CartcommD0Ev to i32 (...)* (...)*), i32 (...)* (...)*  bitcast (void (%struct._ZN3MPI4CommE*, i8*, i32, %struct._ZN3MPI8DatatypeE*, i32, i32)* @_ZNK3MPI4Comm4SendEPKviRKNS_8DatatypeEii to i32 (...)* (...)*), i32 (...)* (...)*  bitcast (void (%struct._ZN3MPI4CommE*, i8*, i32, %struct._ZN3MPI8DatatypeE*, i32, i32, %struct._ZN3MPI6StatusE*)* @_ZNK3MPI4Comm4RecvEPviRKNS_8DatatypeEiiRNS_6StatusE to i32 (...)* (...)*), i32 (...)* (...)*  bitcast (void (%struct._ZN3MPI4CommE*, i8*, i32, %struct._ZN3MPI8DatatypeE*, i32, i32)* @_ZNK3MPI4Comm4RecvEPviRKNS_8DatatypeEii to i32 (...)* (...)*), i32 (...)* (...)*  bitcast (void (%struct._ZN3MPI4CommE*, i8*, i32, %struct._ZN3MPI8DatatypeE*, i32, i32)* @_ZNK3MPI4Comm5BsendEPKviRKNS_8DatatypeEii to i32 (...)* (...)*), i32 (...)* (...)*  bitcast (void (%struct._ZN3MPI4CommE*, i8*, i32, %struct._ZN3MPI8DatatypeE*, i32, i32)* @_ZNK3MPI4Comm5SsendEPKviRKNS_8DatatypeEii to i32 (...)* (...)*), i32 (...)* (...)*  bitcast (void (%struct._ZN3MPI4CommE*, i8*, i32, %struct._ZN3MPI8DatatypeE*, i32, i32)* @_ZNK3MPI4Comm5RsendEPKviRKNS_8DatatypeEii to i32 (...)* (...)*), i32 (...)* (...)*  bitcast (void (%struct._ZN3MPI7RequestE*, %struct._ZN3MPI4CommE*, i8*, i32, %struct._ZN3MPI8DatatypeE*, i32, i32)* @_ZNK3MPI4Comm5IsendEPKviRKNS_8DatatypeEii to i32 (...)* (...)*), i32 (...)* (...)*  bitcast (void (%struct._ZN3MPI7RequestE*, %struct._ZN3MPI4CommE*, i8*, i32, %struct._ZN3MPI8DatatypeE*, i32, i32)* @_ZNK3MPI4Comm6IbsendEPKviRKNS_8DatatypeEii to i32 (...)* (...)*), i32 (...)* (...)*  bitcast (void (%struct._ZN3MPI7RequestE*, %struct._ZN3MPI4CommE*, i8*, i32, %struct._ZN3MPI8DatatypeE*, i32, i32)* @_ZNK3MPI4Comm6IssendEPKviRKNS_8DatatypeEii to i32 (...)* (...)*), i32 (...)* (...)*  bitcast (void (%struct._ZN3MPI7RequestE*, %struct._ZN3MPI4CommE*, i8*, i32, %struct._ZN3MPI8DatatypeE*, i32, i32)* @_ZNK3MPI4Comm6IrsendEPKviRKNS_8DatatypeEii to i32 (...)* (...)*), i32 (...)* (...)*  bitcast (void (%struct._ZN3MPI7RequestE*, %struct._ZN3MPI4CommE*, i8*, i32, %struct._ZN3MPI8DatatypeE*, i32, i32)* @_ZNK3MPI4Comm5IrecvEPviRKNS_8DatatypeEii to i32 (...)* (...)*), i32 (...)* (...)*  bitcast (i8 (%struct._ZN3MPI4CommE*, i32, i32, %struct._ZN3MPI6StatusE*)* @_ZNK3MPI4Comm6IprobeEiiRNS_6StatusE to i32 (...)* (...)*), i32 (...)* (...)*  bitcast (i8 (%struct._ZN3MPI4CommE*, i32, i32)* @_ZNK3MPI4Comm6IprobeEii to i32 (...)* (...)*), i32 (...)* (...)*  bitcast (void (%struct._ZN3MPI4CommE*, i32, i32, %struct._ZN3MPI6StatusE*)* @_ZNK3MPI4Comm5ProbeEiiRNS_6StatusE to i32 (...)* (...)*), i32 (...)* (...)*  bitcast (void (%struct._ZN3MPI4CommE*, i32, i32)* @_ZNK3MPI4Comm5ProbeEii to i32 (...)* (...)*), i32 (...)* (...)*  bitcast (void (%struct._ZN3MPI8PrequestE*, %struct._ZN3MPI4CommE*, i8*, i32, %struct._ZN3MPI8DatatypeE*, i32, i32)* @_ZNK3MPI4Comm9Send_initEPKviRKNS_8DatatypeEii to i32 (...)* (...)*), i32 (...)* (...)*  bitcast (void (%struct._ZN3MPI8PrequestE*, %struct._ZN3MPI4CommE*, i8*, i32, %struct._ZN3MPI8DatatypeE*, i32, i32)* @_ZNK3MPI4Comm10Bsend_initEPKviRKNS_8DatatypeEii to i32 (...)* (...)*), i32 (...)* (...)*  bitcast (void (%struct._ZN3MPI8PrequestE*, %struct._ZN3MPI4CommE*, i8*, i32, %struct._ZN3MPI8DatatypeE*, i32, i32)* @_ZNK3MPI4Comm10Ssend_initEPKviRKNS_8DatatypeEii to i32 (...)* (...)*), i32 (...)* (...)*  bitcast (void (%struct._ZN3MPI8PrequestE*, %struct._ZN3MPI4CommE*, i8*, i32, %struct._ZN3MPI8DatatypeE*, i32, i32)* @_ZNK3MPI4Comm10Rsend_initEPKviRKNS_8DatatypeEii to i32 (...)* (...)*), i32 (...)* (...)*  bitcast (void (%struct._ZN3MPI8PrequestE*, %struct._ZN3MPI4CommE*, i8*, i32, %struct._ZN3MPI8DatatypeE*, i32, i32)* @_ZNK3MPI4Comm9Recv_initEPviRKNS_8DatatypeEii to i32 (...)* (...)*), i32 (...)* (...)*  bitcast (void (%struct._ZN3MPI4CommE*, i8*, i32, %struct._ZN3MPI8DatatypeE*, i32, i32, i8*, i32, %struct._ZN3MPI8DatatypeE*, i32, i32, %struct._ZN3MPI6StatusE*)* @_ZNK3MPI4Comm8SendrecvEPKviRKNS_8DatatypeEiiPviS5_iiRNS_6StatusE to i32 (...)* (...)*), i32 (...)* (...)*  bitcast (void (%struct._ZN3MPI4CommE*, i8*, i32, %struct._ZN3MPI8DatatypeE*, i32, i32, i8*, i32, %struct._ZN3MPI8DatatypeE*, i32, i32)* @_ZNK3MPI4Comm8SendrecvEPKviRKNS_8DatatypeEiiPviS5_ii to i32 (...)* (...)*), i32 (...)* (...)*  bitcast (void (%struct._ZN3MPI4CommE*, i8*, i32, %struct._ZN3MPI8DatatypeE*, i32, i32, i32, i32, %struct._ZN3MPI6StatusE*)* @_ZNK3MPI4Comm16Sendrecv_replaceEPviRKNS_8DatatypeEiiiiRNS_6StatusE to i32 (...)* (...)*), i32 (...)* (...)*  bitcast (void (%struct._ZN3MPI4CommE*, i8*, i32, %struct._ZN3MPI8DatatypeE*, i32, i32, i32, i32)* @_ZNK3MPI4Comm16Sendrecv_replaceEPviRKNS_8DatatypeEiiii to i32 (...)* (...)*), i32 (...)* (...)*  bitcast (void (%struct._ZN3MPI5GroupE*, %struct._ZN3MPI4CommE*)* @_ZNK3MPI4Comm9Get_groupEv to i32 (...)* (...)*), i32 (...)* (...)*  bitcast (i32 (%struct._ZN3MPI4CommE*)* @_ZNK3MPI4Comm8Get_sizeEv to i32 (...)* (...)*), i32 (...)* (...)*  bitcast (i32 (%struct._ZN3MPI4CommE*)* @_ZNK3MPI4Comm8Get_rankEv to i32 (...)* (...)*), i32 (...)* (...)*  bitcast (%struct._ZN3MPI8CartcommE* (%struct._ZN3MPI8CartcommE*)* @_ZNK3MPI8Cartcomm5CloneEv to i32 (...)* (...)*), i32 (...)* (...)*  bitcast (void (%struct._ZN3MPI4CommE*)* @_ZN3MPI4Comm4FreeEv to i32 (...)* (...)*), i32 (...)* (...)*  bitcast (i8 (%struct._ZN3MPI4CommE*)* @_ZNK3MPI4Comm8Is_interEv to i32 (...)* (...)*), i32 (...)* (...)*  bitcast (void (%struct._ZN3MPI4CommE*)* @_ZNK3MPI4Comm7BarrierEv to i32 (...)* (...)*), i32 (...)* (...)*  bitcast (void (%struct._ZN3MPI4CommE*, i8*, i32, %struct._ZN3MPI8DatatypeE*, i32)* @_ZNK3MPI4Comm5BcastEPviRKNS_8DatatypeEi to i32 (...)* (...)*), i32 (...)* (...)*  bitcast (void (%struct._ZN3MPI4CommE*, i8*, i32, %struct._ZN3MPI8DatatypeE*, i8*, i32, %struct._ZN3MPI8DatatypeE*, i32)* @_ZNK3MPI4Comm6GatherEPKviRKNS_8DatatypeEPviS5_i to i32 (...)* (...)*), i32 (...)* (...)*  bitcast (void (%struct._ZN3MPI4CommE*, i8*, i32, %struct._ZN3MPI8DatatypeE*, i8*, i32*, i32*, %struct._ZN3MPI8DatatypeE*, i32)* @_ZNK3MPI4Comm7GathervEPKviRKNS_8DatatypeEPvPKiS8_S5_i to i32 (...)* (...)*), i32 (...)* (...)*  bitcast (void (%struct._ZN3MPI4CommE*, i8*, i32, %struct._ZN3MPI8DatatypeE*, i8*, i32, %struct._ZN3MPI8DatatypeE*, i32)* @_ZNK3MPI4Comm7ScatterEPKviRKNS_8DatatypeEPviS5_i to i32 (...)* (...)*), i32 (...)* (...)*  bitcast (void (%struct._ZN3MPI4CommE*, i8*, i32*, i32*, %struct._ZN3MPI8DatatypeE*, i8*, i32, %struct._ZN3MPI8DatatypeE*, i32)* @_ZNK3MPI4Comm8ScattervEPKvPKiS4_RKNS_8DatatypeEPviS7_i to i32 (...)* (...)*), i32 (...)* (...)*  bitcast (void (%struct._ZN3MPI4CommE*, i8*, i32, %struct._ZN3MPI8DatatypeE*, i8*, i32, %struct._ZN3MPI8DatatypeE*)* @_ZNK3MPI4Comm9AllgatherEPKviRKNS_8DatatypeEPviS5_ to i32 (...)* (...)*), i32 (...)* (...)*  bitcast (void (%struct._ZN3MPI4CommE*, i8*, i32, %struct._ZN3MPI8DatatypeE*, i8*, i32*, i32*, %struct._ZN3MPI8DatatypeE*)* @_ZNK3MPI4Comm10AllgathervEPKviRKNS_8DatatypeEPvPKiS8_S5_ to i32 (...)* (...)*), i32 (...)* (...)*  bitcast (void (%struct._ZN3MPI4CommE*, i8*, i32, %struct._ZN3MPI8DatatypeE*, i8*, i32, %struct._ZN3MPI8DatatypeE*)* @_ZNK3MPI4Comm8AlltoallEPKviRKNS_8DatatypeEPviS5_ to i32 (...)* (...)*), i32 (...)* (...)*  bitcast (void (%struct._ZN3MPI4CommE*, i8*, i32*, i32*, %struct._ZN3MPI8DatatypeE*, i8*, i32*, i32*, %struct._ZN3MPI8DatatypeE*)* @_ZNK3MPI4Comm9AlltoallvEPKvPKiS4_RKNS_8DatatypeEPvS4_S4_S7_ to i32 (...)* (...)*), i32 (...)* (...)*  bitcast (void (%struct._ZN3MPI4CommE*, i8*, i32*, i32*, %struct._ZN3MPI8DatatypeE*, i8*, i32*, i32*, %struct._ZN3MPI8DatatypeE*)* @_ZNK3MPI4Comm9AlltoallwEPKvPKiS4_PKNS_8DatatypeEPvS4_S4_S7_ to i32 (...)* (...)*), i32 (...)* (...)*  bitcast (void (%struct._ZN3MPI4CommE*, i8*, i8*, i32, %struct._ZN3MPI8DatatypeE*, %struct._ZN3MPI2OpE*, i32)* @_ZNK3MPI4Comm6ReduceEPKvPviRKNS_8DatatypeERKNS_2OpEi to i32 (...)* (...)*), i32 (...)* (...)*  bitcast (void (%struct._ZN3MPI4CommE*, i8*, i8*, i32, %struct._ZN3MPI8DatatypeE*, %struct._ZN3MPI2OpE*)* @_ZNK3MPI4Comm9AllreduceEPKvPviRKNS_8DatatypeERKNS_2OpE to i32 (...)* (...)*), i32 (...)* (...)*  bitcast (void (%struct._ZN3MPI4CommE*, i8*, i8*, i32*, %struct._ZN3MPI8DatatypeE*, %struct._ZN3MPI2OpE*)* @_ZNK3MPI4Comm14Reduce_scatterEPKvPvPiRKNS_8DatatypeERKNS_2OpE to i32 (...)* (...)*), i32 (...)* (...)*  bitcast (void (%struct._ZN3MPI4CommE*)* @_ZN3MPI4Comm10DisconnectEv to i32 (...)* (...)*), i32 (...)* (...)*  bitcast (void (%struct._ZN3MPI4CommE*, i8*, i32*)* @_ZNK3MPI4Comm8Get_nameEPcRi to i32 (...)* (...)*), i32 (...)* (...)*  bitcast (void (%struct._ZN3MPI4CommE*, i8*)* @_ZN3MPI4Comm8Set_nameEPKc to i32 (...)* (...)*), i32 (...)* (...)*  bitcast (i32 (%struct._ZN3MPI4CommE*)* @_ZNK3MPI4Comm12Get_topologyEv to i32 (...)* (...)*), i32 (...)* (...)*  bitcast (void (%struct._ZN3MPI4CommE*, i32)* @_ZN3MPI4Comm5AbortEi to i32 (...)* (...)*), i32 (...)* (...)*  bitcast (void (%struct._ZN3MPI4CommE*, %struct._ZN3MPI10ErrhandlerE*)* @_ZN3MPI4Comm14Set_errhandlerERKNS_10ErrhandlerE to i32 (...)* (...)*), i32 (...)* (...)*  bitcast (void (%struct._ZN3MPI10ErrhandlerE*, %struct._ZN3MPI4CommE*)* @_ZNK3MPI4Comm14Get_errhandlerEv to i32 (...)* (...)*), i32 (...)* (...)*  bitcast (void (%struct._ZN3MPI4CommE*, i32, i8*)* @_ZNK3MPI4Comm8Set_attrEiPKv to i32 (...)* (...)*), i32 (...)* (...)*  bitcast (i8 (%struct._ZN3MPI4CommE*, i32, i8*)* @_ZNK3MPI4Comm8Get_attrEiPv to i32 (...)* (...)*), i32 (...)* (...)*  bitcast (void (%struct._ZN3MPI4CommE*, i32)* @_ZN3MPI4Comm11Delete_attrEi to i32 (...)* (...)*), i32 (...)* (...)*  bitcast (void (%struct._ZN3MPI9IntracommE*, i8*, i8*, i32, %struct._ZN3MPI8DatatypeE*, %struct._ZN3MPI2OpE*)* @_ZNK3MPI9Intracomm4ScanEPKvPviRKNS_8DatatypeERKNS_2OpE to i32 (...)* (...)*), i32 (...)* (...)*  bitcast (void (%struct._ZN3MPI9IntracommE*, i8*, i8*, i32, %struct._ZN3MPI8DatatypeE*, %struct._ZN3MPI2OpE*)* @_ZNK3MPI9Intracomm6ExscanEPKvPviRKNS_8DatatypeERKNS_2OpE to i32 (...)* (...)*), i32 (...)* (...)*  bitcast (void (%struct._ZN3MPI9IntracommE*, %struct._ZN3MPI9IntracommE*, %struct._ZN3MPI5GroupE*)* @_ZNK3MPI9Intracomm6CreateERKNS_5GroupE to i32 (...)* (...)*), i32 (...)* (...)*  bitcast (void (%struct._ZN3MPI9IntracommE*, %struct._ZN3MPI9IntracommE*, i32, i32)* @_ZNK3MPI9Intracomm5SplitEii to i32 (...)* (...)*), i32 (...)* (...)*  bitcast (void (%struct._ZN3MPI9IntercommE*, %struct._ZN3MPI9IntracommE*, i32, %struct._ZN3MPI4CommE*, i32, i32)* @_ZNK3MPI9Intracomm16Create_intercommEiRKNS_4CommEii to i32 (...)* (...)*), i32 (...)* (...)*  bitcast (void (%struct._ZN3MPI8CartcommE*, %struct._ZN3MPI9IntracommE*, i32, i32*, i8*, i8)* @_ZNK3MPI9Intracomm11Create_cartEiPKiPKbb to i32 (...)* (...)*), i32 (...)* (...)*  bitcast (void (%struct._ZN3MPI9GraphcommE*, %struct._ZN3MPI9IntracommE*, i32, i32*, i32*, i8)* @_ZNK3MPI9Intracomm12Create_graphEiPKiS2_b to i32 (...)* (...)*), i32 (...)* (...)*  bitcast (void (%struct._ZN3MPI9IntercommE*, %struct._ZN3MPI9IntracommE*, i8*, %struct._ZN3MPI4InfoE*, i32)* @_ZNK3MPI9Intracomm6AcceptEPKcRKNS_4InfoEi to i32 (...)* (...)*), i32 (...)* (...)*  bitcast (void (%struct._ZN3MPI9IntercommE*, %struct._ZN3MPI9IntracommE*, i8*, %struct._ZN3MPI4InfoE*, i32)* @_ZNK3MPI9Intracomm7ConnectEPKcRKNS_4InfoEi to i32 (...)* (...)*), i32 (...)* (...)*  bitcast (void (%struct._ZN3MPI9IntercommE*, %struct._ZN3MPI9IntracommE*, i8*, i8**, i32, %struct._ZN3MPI4InfoE*, i32)* @_ZNK3MPI9Intracomm5SpawnEPKcPS2_iRKNS_4InfoEi to i32 (...)* (...)*), i32 (...)* (...)*  bitcast (void (%struct._ZN3MPI9IntercommE*, %struct._ZN3MPI9IntracommE*, i8*, i8**, i32, %struct._ZN3MPI4InfoE*, i32, i32*)* @_ZNK3MPI9Intracomm5SpawnEPKcPS2_iRKNS_4InfoEiPi to i32 (...)* (...)*), i32 (...)* (...)*  bitcast (void (%struct._ZN3MPI9IntercommE*, %struct._ZN3MPI9IntracommE*, i32, i8**, i8***, i32*, %struct._ZN3MPI4InfoE*, i32)* @_ZN3MPI9Intracomm14Spawn_multipleEiPPKcPS3_PKiPKNS_4InfoEi to i32 (...)* (...)*), i32 (...)* (...)*  bitcast (void (%struct._ZN3MPI9IntercommE*, %struct._ZN3MPI9IntracommE*, i32, i8**, i8***, i32*, %struct._ZN3MPI4InfoE*, i32, i32*)* @_ZN3MPI9Intracomm14Spawn_multipleEiPPKcPS3_PKiPKNS_4InfoEiPi to i32 (...)* (...)*), i32 (...)* (...)*  bitcast (i32 (%struct._ZN3MPI8CartcommE*)* @_ZNK3MPI8Cartcomm7Get_dimEv to i32 (...)* (...)*), i32 (...)* (...)*  bitcast (void (%struct._ZN3MPI8CartcommE*, i32, i32*, i8*, i32*)* @_ZNK3MPI8Cartcomm8Get_topoEiPiPbS1_ to i32 (...)* (...)*), i32 (...)* (...)*  bitcast (i32 (%struct._ZN3MPI8CartcommE*, i32*)* @_ZNK3MPI8Cartcomm13Get_cart_rankEPKi to i32 (...)* (...)*), i32 (...)* (...)*  bitcast (void (%struct._ZN3MPI8CartcommE*, i32, i32, i32*)* @_ZNK3MPI8Cartcomm10Get_coordsEiiPi to i32 (...)* (...)*), i32 (...)* (...)*  bitcast (void (%struct._ZN3MPI8CartcommE*, i32, i32, i32*, i32*)* @_ZNK3MPI8Cartcomm5ShiftEiiRiS1_ to i32 (...)* (...)*), i32 (...)* (...)*  bitcast (void (%struct._ZN3MPI8CartcommE*, %struct._ZN3MPI8CartcommE*, i8*)* @_ZNK3MPI8Cartcomm3SubEPKb to i32 (...)* (...)*), i32 (...)* (...)*  bitcast (i32 (%struct._ZN3MPI8CartcommE*, i32, i32*, i8*)* @_ZNK3MPI8Cartcomm3MapEiPKiPKb to i32 (...)* (...)*) ], align 16, !dbg !3639
@_ZTVN3MPI9GraphcommE = weak unnamed_addr global [76 x i32 (...)* (...)*]  [ i32 (...)* (...)*  null, i32 (...)* (...)*  bitcast (%struct.__si_class_type_info* @_ZTIN3MPI9GraphcommE to i32 (...)* (...)*), i32 (...)* (...)*  bitcast (void (%struct._ZN3MPI9GraphcommE*)* @_ZN3MPI9GraphcommD1Ev to i32 (...)* (...)*), i32 (...)* (...)*  bitcast (void (%struct._ZN3MPI9GraphcommE*)* @_ZN3MPI9GraphcommD0Ev to i32 (...)* (...)*), i32 (...)* (...)*  bitcast (void (%struct._ZN3MPI4CommE*, i8*, i32, %struct._ZN3MPI8DatatypeE*, i32, i32)* @_ZNK3MPI4Comm4SendEPKviRKNS_8DatatypeEii to i32 (...)* (...)*), i32 (...)* (...)*  bitcast (void (%struct._ZN3MPI4CommE*, i8*, i32, %struct._ZN3MPI8DatatypeE*, i32, i32, %struct._ZN3MPI6StatusE*)* @_ZNK3MPI4Comm4RecvEPviRKNS_8DatatypeEiiRNS_6StatusE to i32 (...)* (...)*), i32 (...)* (...)*  bitcast (void (%struct._ZN3MPI4CommE*, i8*, i32, %struct._ZN3MPI8DatatypeE*, i32, i32)* @_ZNK3MPI4Comm4RecvEPviRKNS_8DatatypeEii to i32 (...)* (...)*), i32 (...)* (...)*  bitcast (void (%struct._ZN3MPI4CommE*, i8*, i32, %struct._ZN3MPI8DatatypeE*, i32, i32)* @_ZNK3MPI4Comm5BsendEPKviRKNS_8DatatypeEii to i32 (...)* (...)*), i32 (...)* (...)*  bitcast (void (%struct._ZN3MPI4CommE*, i8*, i32, %struct._ZN3MPI8DatatypeE*, i32, i32)* @_ZNK3MPI4Comm5SsendEPKviRKNS_8DatatypeEii to i32 (...)* (...)*), i32 (...)* (...)*  bitcast (void (%struct._ZN3MPI4CommE*, i8*, i32, %struct._ZN3MPI8DatatypeE*, i32, i32)* @_ZNK3MPI4Comm5RsendEPKviRKNS_8DatatypeEii to i32 (...)* (...)*), i32 (...)* (...)*  bitcast (void (%struct._ZN3MPI7RequestE*, %struct._ZN3MPI4CommE*, i8*, i32, %struct._ZN3MPI8DatatypeE*, i32, i32)* @_ZNK3MPI4Comm5IsendEPKviRKNS_8DatatypeEii to i32 (...)* (...)*), i32 (...)* (...)*  bitcast (void (%struct._ZN3MPI7RequestE*, %struct._ZN3MPI4CommE*, i8*, i32, %struct._ZN3MPI8DatatypeE*, i32, i32)* @_ZNK3MPI4Comm6IbsendEPKviRKNS_8DatatypeEii to i32 (...)* (...)*), i32 (...)* (...)*  bitcast (void (%struct._ZN3MPI7RequestE*, %struct._ZN3MPI4CommE*, i8*, i32, %struct._ZN3MPI8DatatypeE*, i32, i32)* @_ZNK3MPI4Comm6IssendEPKviRKNS_8DatatypeEii to i32 (...)* (...)*), i32 (...)* (...)*  bitcast (void (%struct._ZN3MPI7RequestE*, %struct._ZN3MPI4CommE*, i8*, i32, %struct._ZN3MPI8DatatypeE*, i32, i32)* @_ZNK3MPI4Comm6IrsendEPKviRKNS_8DatatypeEii to i32 (...)* (...)*), i32 (...)* (...)*  bitcast (void (%struct._ZN3MPI7RequestE*, %struct._ZN3MPI4CommE*, i8*, i32, %struct._ZN3MPI8DatatypeE*, i32, i32)* @_ZNK3MPI4Comm5IrecvEPviRKNS_8DatatypeEii to i32 (...)* (...)*), i32 (...)* (...)*  bitcast (i8 (%struct._ZN3MPI4CommE*, i32, i32, %struct._ZN3MPI6StatusE*)* @_ZNK3MPI4Comm6IprobeEiiRNS_6StatusE to i32 (...)* (...)*), i32 (...)* (...)*  bitcast (i8 (%struct._ZN3MPI4CommE*, i32, i32)* @_ZNK3MPI4Comm6IprobeEii to i32 (...)* (...)*), i32 (...)* (...)*  bitcast (void (%struct._ZN3MPI4CommE*, i32, i32, %struct._ZN3MPI6StatusE*)* @_ZNK3MPI4Comm5ProbeEiiRNS_6StatusE to i32 (...)* (...)*), i32 (...)* (...)*  bitcast (void (%struct._ZN3MPI4CommE*, i32, i32)* @_ZNK3MPI4Comm5ProbeEii to i32 (...)* (...)*), i32 (...)* (...)*  bitcast (void (%struct._ZN3MPI8PrequestE*, %struct._ZN3MPI4CommE*, i8*, i32, %struct._ZN3MPI8DatatypeE*, i32, i32)* @_ZNK3MPI4Comm9Send_initEPKviRKNS_8DatatypeEii to i32 (...)* (...)*), i32 (...)* (...)*  bitcast (void (%struct._ZN3MPI8PrequestE*, %struct._ZN3MPI4CommE*, i8*, i32, %struct._ZN3MPI8DatatypeE*, i32, i32)* @_ZNK3MPI4Comm10Bsend_initEPKviRKNS_8DatatypeEii to i32 (...)* (...)*), i32 (...)* (...)*  bitcast (void (%struct._ZN3MPI8PrequestE*, %struct._ZN3MPI4CommE*, i8*, i32, %struct._ZN3MPI8DatatypeE*, i32, i32)* @_ZNK3MPI4Comm10Ssend_initEPKviRKNS_8DatatypeEii to i32 (...)* (...)*), i32 (...)* (...)*  bitcast (void (%struct._ZN3MPI8PrequestE*, %struct._ZN3MPI4CommE*, i8*, i32, %struct._ZN3MPI8DatatypeE*, i32, i32)* @_ZNK3MPI4Comm10Rsend_initEPKviRKNS_8DatatypeEii to i32 (...)* (...)*), i32 (...)* (...)*  bitcast (void (%struct._ZN3MPI8PrequestE*, %struct._ZN3MPI4CommE*, i8*, i32, %struct._ZN3MPI8DatatypeE*, i32, i32)* @_ZNK3MPI4Comm9Recv_initEPviRKNS_8DatatypeEii to i32 (...)* (...)*), i32 (...)* (...)*  bitcast (void (%struct._ZN3MPI4CommE*, i8*, i32, %struct._ZN3MPI8DatatypeE*, i32, i32, i8*, i32, %struct._ZN3MPI8DatatypeE*, i32, i32, %struct._ZN3MPI6StatusE*)* @_ZNK3MPI4Comm8SendrecvEPKviRKNS_8DatatypeEiiPviS5_iiRNS_6StatusE to i32 (...)* (...)*), i32 (...)* (...)*  bitcast (void (%struct._ZN3MPI4CommE*, i8*, i32, %struct._ZN3MPI8DatatypeE*, i32, i32, i8*, i32, %struct._ZN3MPI8DatatypeE*, i32, i32)* @_ZNK3MPI4Comm8SendrecvEPKviRKNS_8DatatypeEiiPviS5_ii to i32 (...)* (...)*), i32 (...)* (...)*  bitcast (void (%struct._ZN3MPI4CommE*, i8*, i32, %struct._ZN3MPI8DatatypeE*, i32, i32, i32, i32, %struct._ZN3MPI6StatusE*)* @_ZNK3MPI4Comm16Sendrecv_replaceEPviRKNS_8DatatypeEiiiiRNS_6StatusE to i32 (...)* (...)*), i32 (...)* (...)*  bitcast (void (%struct._ZN3MPI4CommE*, i8*, i32, %struct._ZN3MPI8DatatypeE*, i32, i32, i32, i32)* @_ZNK3MPI4Comm16Sendrecv_replaceEPviRKNS_8DatatypeEiiii to i32 (...)* (...)*), i32 (...)* (...)*  bitcast (void (%struct._ZN3MPI5GroupE*, %struct._ZN3MPI4CommE*)* @_ZNK3MPI4Comm9Get_groupEv to i32 (...)* (...)*), i32 (...)* (...)*  bitcast (i32 (%struct._ZN3MPI4CommE*)* @_ZNK3MPI4Comm8Get_sizeEv to i32 (...)* (...)*), i32 (...)* (...)*  bitcast (i32 (%struct._ZN3MPI4CommE*)* @_ZNK3MPI4Comm8Get_rankEv to i32 (...)* (...)*), i32 (...)* (...)*  bitcast (%struct._ZN3MPI9GraphcommE* (%struct._ZN3MPI9GraphcommE*)* @_ZNK3MPI9Graphcomm5CloneEv to i32 (...)* (...)*), i32 (...)* (...)*  bitcast (void (%struct._ZN3MPI4CommE*)* @_ZN3MPI4Comm4FreeEv to i32 (...)* (...)*), i32 (...)* (...)*  bitcast (i8 (%struct._ZN3MPI4CommE*)* @_ZNK3MPI4Comm8Is_interEv to i32 (...)* (...)*), i32 (...)* (...)*  bitcast (void (%struct._ZN3MPI4CommE*)* @_ZNK3MPI4Comm7BarrierEv to i32 (...)* (...)*), i32 (...)* (...)*  bitcast (void (%struct._ZN3MPI4CommE*, i8*, i32, %struct._ZN3MPI8DatatypeE*, i32)* @_ZNK3MPI4Comm5BcastEPviRKNS_8DatatypeEi to i32 (...)* (...)*), i32 (...)* (...)*  bitcast (void (%struct._ZN3MPI4CommE*, i8*, i32, %struct._ZN3MPI8DatatypeE*, i8*, i32, %struct._ZN3MPI8DatatypeE*, i32)* @_ZNK3MPI4Comm6GatherEPKviRKNS_8DatatypeEPviS5_i to i32 (...)* (...)*), i32 (...)* (...)*  bitcast (void (%struct._ZN3MPI4CommE*, i8*, i32, %struct._ZN3MPI8DatatypeE*, i8*, i32*, i32*, %struct._ZN3MPI8DatatypeE*, i32)* @_ZNK3MPI4Comm7GathervEPKviRKNS_8DatatypeEPvPKiS8_S5_i to i32 (...)* (...)*), i32 (...)* (...)*  bitcast (void (%struct._ZN3MPI4CommE*, i8*, i32, %struct._ZN3MPI8DatatypeE*, i8*, i32, %struct._ZN3MPI8DatatypeE*, i32)* @_ZNK3MPI4Comm7ScatterEPKviRKNS_8DatatypeEPviS5_i to i32 (...)* (...)*), i32 (...)* (...)*  bitcast (void (%struct._ZN3MPI4CommE*, i8*, i32*, i32*, %struct._ZN3MPI8DatatypeE*, i8*, i32, %struct._ZN3MPI8DatatypeE*, i32)* @_ZNK3MPI4Comm8ScattervEPKvPKiS4_RKNS_8DatatypeEPviS7_i to i32 (...)* (...)*), i32 (...)* (...)*  bitcast (void (%struct._ZN3MPI4CommE*, i8*, i32, %struct._ZN3MPI8DatatypeE*, i8*, i32, %struct._ZN3MPI8DatatypeE*)* @_ZNK3MPI4Comm9AllgatherEPKviRKNS_8DatatypeEPviS5_ to i32 (...)* (...)*), i32 (...)* (...)*  bitcast (void (%struct._ZN3MPI4CommE*, i8*, i32, %struct._ZN3MPI8DatatypeE*, i8*, i32*, i32*, %struct._ZN3MPI8DatatypeE*)* @_ZNK3MPI4Comm10AllgathervEPKviRKNS_8DatatypeEPvPKiS8_S5_ to i32 (...)* (...)*), i32 (...)* (...)*  bitcast (void (%struct._ZN3MPI4CommE*, i8*, i32, %struct._ZN3MPI8DatatypeE*, i8*, i32, %struct._ZN3MPI8DatatypeE*)* @_ZNK3MPI4Comm8AlltoallEPKviRKNS_8DatatypeEPviS5_ to i32 (...)* (...)*), i32 (...)* (...)*  bitcast (void (%struct._ZN3MPI4CommE*, i8*, i32*, i32*, %struct._ZN3MPI8DatatypeE*, i8*, i32*, i32*, %struct._ZN3MPI8DatatypeE*)* @_ZNK3MPI4Comm9AlltoallvEPKvPKiS4_RKNS_8DatatypeEPvS4_S4_S7_ to i32 (...)* (...)*), i32 (...)* (...)*  bitcast (void (%struct._ZN3MPI4CommE*, i8*, i32*, i32*, %struct._ZN3MPI8DatatypeE*, i8*, i32*, i32*, %struct._ZN3MPI8DatatypeE*)* @_ZNK3MPI4Comm9AlltoallwEPKvPKiS4_PKNS_8DatatypeEPvS4_S4_S7_ to i32 (...)* (...)*), i32 (...)* (...)*  bitcast (void (%struct._ZN3MPI4CommE*, i8*, i8*, i32, %struct._ZN3MPI8DatatypeE*, %struct._ZN3MPI2OpE*, i32)* @_ZNK3MPI4Comm6ReduceEPKvPviRKNS_8DatatypeERKNS_2OpEi to i32 (...)* (...)*), i32 (...)* (...)*  bitcast (void (%struct._ZN3MPI4CommE*, i8*, i8*, i32, %struct._ZN3MPI8DatatypeE*, %struct._ZN3MPI2OpE*)* @_ZNK3MPI4Comm9AllreduceEPKvPviRKNS_8DatatypeERKNS_2OpE to i32 (...)* (...)*), i32 (...)* (...)*  bitcast (void (%struct._ZN3MPI4CommE*, i8*, i8*, i32*, %struct._ZN3MPI8DatatypeE*, %struct._ZN3MPI2OpE*)* @_ZNK3MPI4Comm14Reduce_scatterEPKvPvPiRKNS_8DatatypeERKNS_2OpE to i32 (...)* (...)*), i32 (...)* (...)*  bitcast (void (%struct._ZN3MPI4CommE*)* @_ZN3MPI4Comm10DisconnectEv to i32 (...)* (...)*), i32 (...)* (...)*  bitcast (void (%struct._ZN3MPI4CommE*, i8*, i32*)* @_ZNK3MPI4Comm8Get_nameEPcRi to i32 (...)* (...)*), i32 (...)* (...)*  bitcast (void (%struct._ZN3MPI4CommE*, i8*)* @_ZN3MPI4Comm8Set_nameEPKc to i32 (...)* (...)*), i32 (...)* (...)*  bitcast (i32 (%struct._ZN3MPI4CommE*)* @_ZNK3MPI4Comm12Get_topologyEv to i32 (...)* (...)*), i32 (...)* (...)*  bitcast (void (%struct._ZN3MPI4CommE*, i32)* @_ZN3MPI4Comm5AbortEi to i32 (...)* (...)*), i32 (...)* (...)*  bitcast (void (%struct._ZN3MPI4CommE*, %struct._ZN3MPI10ErrhandlerE*)* @_ZN3MPI4Comm14Set_errhandlerERKNS_10ErrhandlerE to i32 (...)* (...)*), i32 (...)* (...)*  bitcast (void (%struct._ZN3MPI10ErrhandlerE*, %struct._ZN3MPI4CommE*)* @_ZNK3MPI4Comm14Get_errhandlerEv to i32 (...)* (...)*), i32 (...)* (...)*  bitcast (void (%struct._ZN3MPI4CommE*, i32, i8*)* @_ZNK3MPI4Comm8Set_attrEiPKv to i32 (...)* (...)*), i32 (...)* (...)*  bitcast (i8 (%struct._ZN3MPI4CommE*, i32, i8*)* @_ZNK3MPI4Comm8Get_attrEiPv to i32 (...)* (...)*), i32 (...)* (...)*  bitcast (void (%struct._ZN3MPI4CommE*, i32)* @_ZN3MPI4Comm11Delete_attrEi to i32 (...)* (...)*), i32 (...)* (...)*  bitcast (void (%struct._ZN3MPI9IntracommE*, i8*, i8*, i32, %struct._ZN3MPI8DatatypeE*, %struct._ZN3MPI2OpE*)* @_ZNK3MPI9Intracomm4ScanEPKvPviRKNS_8DatatypeERKNS_2OpE to i32 (...)* (...)*), i32 (...)* (...)*  bitcast (void (%struct._ZN3MPI9IntracommE*, i8*, i8*, i32, %struct._ZN3MPI8DatatypeE*, %struct._ZN3MPI2OpE*)* @_ZNK3MPI9Intracomm6ExscanEPKvPviRKNS_8DatatypeERKNS_2OpE to i32 (...)* (...)*), i32 (...)* (...)*  bitcast (void (%struct._ZN3MPI9IntracommE*, %struct._ZN3MPI9IntracommE*, %struct._ZN3MPI5GroupE*)* @_ZNK3MPI9Intracomm6CreateERKNS_5GroupE to i32 (...)* (...)*), i32 (...)* (...)*  bitcast (void (%struct._ZN3MPI9IntracommE*, %struct._ZN3MPI9IntracommE*, i32, i32)* @_ZNK3MPI9Intracomm5SplitEii to i32 (...)* (...)*), i32 (...)* (...)*  bitcast (void (%struct._ZN3MPI9IntercommE*, %struct._ZN3MPI9IntracommE*, i32, %struct._ZN3MPI4CommE*, i32, i32)* @_ZNK3MPI9Intracomm16Create_intercommEiRKNS_4CommEii to i32 (...)* (...)*), i32 (...)* (...)*  bitcast (void (%struct._ZN3MPI8CartcommE*, %struct._ZN3MPI9IntracommE*, i32, i32*, i8*, i8)* @_ZNK3MPI9Intracomm11Create_cartEiPKiPKbb to i32 (...)* (...)*), i32 (...)* (...)*  bitcast (void (%struct._ZN3MPI9GraphcommE*, %struct._ZN3MPI9IntracommE*, i32, i32*, i32*, i8)* @_ZNK3MPI9Intracomm12Create_graphEiPKiS2_b to i32 (...)* (...)*), i32 (...)* (...)*  bitcast (void (%struct._ZN3MPI9IntercommE*, %struct._ZN3MPI9IntracommE*, i8*, %struct._ZN3MPI4InfoE*, i32)* @_ZNK3MPI9Intracomm6AcceptEPKcRKNS_4InfoEi to i32 (...)* (...)*), i32 (...)* (...)*  bitcast (void (%struct._ZN3MPI9IntercommE*, %struct._ZN3MPI9IntracommE*, i8*, %struct._ZN3MPI4InfoE*, i32)* @_ZNK3MPI9Intracomm7ConnectEPKcRKNS_4InfoEi to i32 (...)* (...)*), i32 (...)* (...)*  bitcast (void (%struct._ZN3MPI9IntercommE*, %struct._ZN3MPI9IntracommE*, i8*, i8**, i32, %struct._ZN3MPI4InfoE*, i32)* @_ZNK3MPI9Intracomm5SpawnEPKcPS2_iRKNS_4InfoEi to i32 (...)* (...)*), i32 (...)* (...)*  bitcast (void (%struct._ZN3MPI9IntercommE*, %struct._ZN3MPI9IntracommE*, i8*, i8**, i32, %struct._ZN3MPI4InfoE*, i32, i32*)* @_ZNK3MPI9Intracomm5SpawnEPKcPS2_iRKNS_4InfoEiPi to i32 (...)* (...)*), i32 (...)* (...)*  bitcast (void (%struct._ZN3MPI9IntercommE*, %struct._ZN3MPI9IntracommE*, i32, i8**, i8***, i32*, %struct._ZN3MPI4InfoE*, i32)* @_ZN3MPI9Intracomm14Spawn_multipleEiPPKcPS3_PKiPKNS_4InfoEi to i32 (...)* (...)*), i32 (...)* (...)*  bitcast (void (%struct._ZN3MPI9IntercommE*, %struct._ZN3MPI9IntracommE*, i32, i8**, i8***, i32*, %struct._ZN3MPI4InfoE*, i32, i32*)* @_ZN3MPI9Intracomm14Spawn_multipleEiPPKcPS3_PKiPKNS_4InfoEiPi to i32 (...)* (...)*), i32 (...)* (...)*  bitcast (void (%struct._ZN3MPI9GraphcommE*, i32*, i32*)* @_ZNK3MPI9Graphcomm8Get_dimsEPiS1_ to i32 (...)* (...)*), i32 (...)* (...)*  bitcast (void (%struct._ZN3MPI9GraphcommE*, i32, i32, i32*, i32*)* @_ZNK3MPI9Graphcomm8Get_topoEiiPiS1_ to i32 (...)* (...)*), i32 (...)* (...)*  bitcast (i32 (%struct._ZN3MPI9GraphcommE*, i32)* @_ZNK3MPI9Graphcomm19Get_neighbors_countEi to i32 (...)* (...)*), i32 (...)* (...)*  bitcast (void (%struct._ZN3MPI9GraphcommE*, i32, i32, i32*)* @_ZNK3MPI9Graphcomm13Get_neighborsEiiPi to i32 (...)* (...)*), i32 (...)* (...)*  bitcast (i32 (%struct._ZN3MPI9GraphcommE*, i32, i32*, i32*)* @_ZNK3MPI9Graphcomm3MapEiPKiS2_ to i32 (...)* (...)*) ], align 16, !dbg !3646
@_ZTVN3MPI9IntercommE = weak unnamed_addr global [63 x i32 (...)* (...)*]  [ i32 (...)* (...)*  null, i32 (...)* (...)*  bitcast (%struct.__si_class_type_info* @_ZTIN3MPI9IntercommE to i32 (...)* (...)*), i32 (...)* (...)*  bitcast (void (%struct._ZN3MPI9IntercommE*)* @_ZN3MPI9IntercommD1Ev to i32 (...)* (...)*), i32 (...)* (...)*  bitcast (void (%struct._ZN3MPI9IntercommE*)* @_ZN3MPI9IntercommD0Ev to i32 (...)* (...)*), i32 (...)* (...)*  bitcast (void (%struct._ZN3MPI4CommE*, i8*, i32, %struct._ZN3MPI8DatatypeE*, i32, i32)* @_ZNK3MPI4Comm4SendEPKviRKNS_8DatatypeEii to i32 (...)* (...)*), i32 (...)* (...)*  bitcast (void (%struct._ZN3MPI4CommE*, i8*, i32, %struct._ZN3MPI8DatatypeE*, i32, i32, %struct._ZN3MPI6StatusE*)* @_ZNK3MPI4Comm4RecvEPviRKNS_8DatatypeEiiRNS_6StatusE to i32 (...)* (...)*), i32 (...)* (...)*  bitcast (void (%struct._ZN3MPI4CommE*, i8*, i32, %struct._ZN3MPI8DatatypeE*, i32, i32)* @_ZNK3MPI4Comm4RecvEPviRKNS_8DatatypeEii to i32 (...)* (...)*), i32 (...)* (...)*  bitcast (void (%struct._ZN3MPI4CommE*, i8*, i32, %struct._ZN3MPI8DatatypeE*, i32, i32)* @_ZNK3MPI4Comm5BsendEPKviRKNS_8DatatypeEii to i32 (...)* (...)*), i32 (...)* (...)*  bitcast (void (%struct._ZN3MPI4CommE*, i8*, i32, %struct._ZN3MPI8DatatypeE*, i32, i32)* @_ZNK3MPI4Comm5SsendEPKviRKNS_8DatatypeEii to i32 (...)* (...)*), i32 (...)* (...)*  bitcast (void (%struct._ZN3MPI4CommE*, i8*, i32, %struct._ZN3MPI8DatatypeE*, i32, i32)* @_ZNK3MPI4Comm5RsendEPKviRKNS_8DatatypeEii to i32 (...)* (...)*), i32 (...)* (...)*  bitcast (void (%struct._ZN3MPI7RequestE*, %struct._ZN3MPI4CommE*, i8*, i32, %struct._ZN3MPI8DatatypeE*, i32, i32)* @_ZNK3MPI4Comm5IsendEPKviRKNS_8DatatypeEii to i32 (...)* (...)*), i32 (...)* (...)*  bitcast (void (%struct._ZN3MPI7RequestE*, %struct._ZN3MPI4CommE*, i8*, i32, %struct._ZN3MPI8DatatypeE*, i32, i32)* @_ZNK3MPI4Comm6IbsendEPKviRKNS_8DatatypeEii to i32 (...)* (...)*), i32 (...)* (...)*  bitcast (void (%struct._ZN3MPI7RequestE*, %struct._ZN3MPI4CommE*, i8*, i32, %struct._ZN3MPI8DatatypeE*, i32, i32)* @_ZNK3MPI4Comm6IssendEPKviRKNS_8DatatypeEii to i32 (...)* (...)*), i32 (...)* (...)*  bitcast (void (%struct._ZN3MPI7RequestE*, %struct._ZN3MPI4CommE*, i8*, i32, %struct._ZN3MPI8DatatypeE*, i32, i32)* @_ZNK3MPI4Comm6IrsendEPKviRKNS_8DatatypeEii to i32 (...)* (...)*), i32 (...)* (...)*  bitcast (void (%struct._ZN3MPI7RequestE*, %struct._ZN3MPI4CommE*, i8*, i32, %struct._ZN3MPI8DatatypeE*, i32, i32)* @_ZNK3MPI4Comm5IrecvEPviRKNS_8DatatypeEii to i32 (...)* (...)*), i32 (...)* (...)*  bitcast (i8 (%struct._ZN3MPI4CommE*, i32, i32, %struct._ZN3MPI6StatusE*)* @_ZNK3MPI4Comm6IprobeEiiRNS_6StatusE to i32 (...)* (...)*), i32 (...)* (...)*  bitcast (i8 (%struct._ZN3MPI4CommE*, i32, i32)* @_ZNK3MPI4Comm6IprobeEii to i32 (...)* (...)*), i32 (...)* (...)*  bitcast (void (%struct._ZN3MPI4CommE*, i32, i32, %struct._ZN3MPI6StatusE*)* @_ZNK3MPI4Comm5ProbeEiiRNS_6StatusE to i32 (...)* (...)*), i32 (...)* (...)*  bitcast (void (%struct._ZN3MPI4CommE*, i32, i32)* @_ZNK3MPI4Comm5ProbeEii to i32 (...)* (...)*), i32 (...)* (...)*  bitcast (void (%struct._ZN3MPI8PrequestE*, %struct._ZN3MPI4CommE*, i8*, i32, %struct._ZN3MPI8DatatypeE*, i32, i32)* @_ZNK3MPI4Comm9Send_initEPKviRKNS_8DatatypeEii to i32 (...)* (...)*), i32 (...)* (...)*  bitcast (void (%struct._ZN3MPI8PrequestE*, %struct._ZN3MPI4CommE*, i8*, i32, %struct._ZN3MPI8DatatypeE*, i32, i32)* @_ZNK3MPI4Comm10Bsend_initEPKviRKNS_8DatatypeEii to i32 (...)* (...)*), i32 (...)* (...)*  bitcast (void (%struct._ZN3MPI8PrequestE*, %struct._ZN3MPI4CommE*, i8*, i32, %struct._ZN3MPI8DatatypeE*, i32, i32)* @_ZNK3MPI4Comm10Ssend_initEPKviRKNS_8DatatypeEii to i32 (...)* (...)*), i32 (...)* (...)*  bitcast (void (%struct._ZN3MPI8PrequestE*, %struct._ZN3MPI4CommE*, i8*, i32, %struct._ZN3MPI8DatatypeE*, i32, i32)* @_ZNK3MPI4Comm10Rsend_initEPKviRKNS_8DatatypeEii to i32 (...)* (...)*), i32 (...)* (...)*  bitcast (void (%struct._ZN3MPI8PrequestE*, %struct._ZN3MPI4CommE*, i8*, i32, %struct._ZN3MPI8DatatypeE*, i32, i32)* @_ZNK3MPI4Comm9Recv_initEPviRKNS_8DatatypeEii to i32 (...)* (...)*), i32 (...)* (...)*  bitcast (void (%struct._ZN3MPI4CommE*, i8*, i32, %struct._ZN3MPI8DatatypeE*, i32, i32, i8*, i32, %struct._ZN3MPI8DatatypeE*, i32, i32, %struct._ZN3MPI6StatusE*)* @_ZNK3MPI4Comm8SendrecvEPKviRKNS_8DatatypeEiiPviS5_iiRNS_6StatusE to i32 (...)* (...)*), i32 (...)* (...)*  bitcast (void (%struct._ZN3MPI4CommE*, i8*, i32, %struct._ZN3MPI8DatatypeE*, i32, i32, i8*, i32, %struct._ZN3MPI8DatatypeE*, i32, i32)* @_ZNK3MPI4Comm8SendrecvEPKviRKNS_8DatatypeEiiPviS5_ii to i32 (...)* (...)*), i32 (...)* (...)*  bitcast (void (%struct._ZN3MPI4CommE*, i8*, i32, %struct._ZN3MPI8DatatypeE*, i32, i32, i32, i32, %struct._ZN3MPI6StatusE*)* @_ZNK3MPI4Comm16Sendrecv_replaceEPviRKNS_8DatatypeEiiiiRNS_6StatusE to i32 (...)* (...)*), i32 (...)* (...)*  bitcast (void (%struct._ZN3MPI4CommE*, i8*, i32, %struct._ZN3MPI8DatatypeE*, i32, i32, i32, i32)* @_ZNK3MPI4Comm16Sendrecv_replaceEPviRKNS_8DatatypeEiiii to i32 (...)* (...)*), i32 (...)* (...)*  bitcast (void (%struct._ZN3MPI5GroupE*, %struct._ZN3MPI4CommE*)* @_ZNK3MPI4Comm9Get_groupEv to i32 (...)* (...)*), i32 (...)* (...)*  bitcast (i32 (%struct._ZN3MPI4CommE*)* @_ZNK3MPI4Comm8Get_sizeEv to i32 (...)* (...)*), i32 (...)* (...)*  bitcast (i32 (%struct._ZN3MPI4CommE*)* @_ZNK3MPI4Comm8Get_rankEv to i32 (...)* (...)*), i32 (...)* (...)*  bitcast (%struct._ZN3MPI9IntercommE* (%struct._ZN3MPI9IntercommE*)* @_ZNK3MPI9Intercomm5CloneEv to i32 (...)* (...)*), i32 (...)* (...)*  bitcast (void (%struct._ZN3MPI4CommE*)* @_ZN3MPI4Comm4FreeEv to i32 (...)* (...)*), i32 (...)* (...)*  bitcast (i8 (%struct._ZN3MPI4CommE*)* @_ZNK3MPI4Comm8Is_interEv to i32 (...)* (...)*), i32 (...)* (...)*  bitcast (void (%struct._ZN3MPI4CommE*)* @_ZNK3MPI4Comm7BarrierEv to i32 (...)* (...)*), i32 (...)* (...)*  bitcast (void (%struct._ZN3MPI4CommE*, i8*, i32, %struct._ZN3MPI8DatatypeE*, i32)* @_ZNK3MPI4Comm5BcastEPviRKNS_8DatatypeEi to i32 (...)* (...)*), i32 (...)* (...)*  bitcast (void (%struct._ZN3MPI4CommE*, i8*, i32, %struct._ZN3MPI8DatatypeE*, i8*, i32, %struct._ZN3MPI8DatatypeE*, i32)* @_ZNK3MPI4Comm6GatherEPKviRKNS_8DatatypeEPviS5_i to i32 (...)* (...)*), i32 (...)* (...)*  bitcast (void (%struct._ZN3MPI4CommE*, i8*, i32, %struct._ZN3MPI8DatatypeE*, i8*, i32*, i32*, %struct._ZN3MPI8DatatypeE*, i32)* @_ZNK3MPI4Comm7GathervEPKviRKNS_8DatatypeEPvPKiS8_S5_i to i32 (...)* (...)*), i32 (...)* (...)*  bitcast (void (%struct._ZN3MPI4CommE*, i8*, i32, %struct._ZN3MPI8DatatypeE*, i8*, i32, %struct._ZN3MPI8DatatypeE*, i32)* @_ZNK3MPI4Comm7ScatterEPKviRKNS_8DatatypeEPviS5_i to i32 (...)* (...)*), i32 (...)* (...)*  bitcast (void (%struct._ZN3MPI4CommE*, i8*, i32*, i32*, %struct._ZN3MPI8DatatypeE*, i8*, i32, %struct._ZN3MPI8DatatypeE*, i32)* @_ZNK3MPI4Comm8ScattervEPKvPKiS4_RKNS_8DatatypeEPviS7_i to i32 (...)* (...)*), i32 (...)* (...)*  bitcast (void (%struct._ZN3MPI4CommE*, i8*, i32, %struct._ZN3MPI8DatatypeE*, i8*, i32, %struct._ZN3MPI8DatatypeE*)* @_ZNK3MPI4Comm9AllgatherEPKviRKNS_8DatatypeEPviS5_ to i32 (...)* (...)*), i32 (...)* (...)*  bitcast (void (%struct._ZN3MPI4CommE*, i8*, i32, %struct._ZN3MPI8DatatypeE*, i8*, i32*, i32*, %struct._ZN3MPI8DatatypeE*)* @_ZNK3MPI4Comm10AllgathervEPKviRKNS_8DatatypeEPvPKiS8_S5_ to i32 (...)* (...)*), i32 (...)* (...)*  bitcast (void (%struct._ZN3MPI4CommE*, i8*, i32, %struct._ZN3MPI8DatatypeE*, i8*, i32, %struct._ZN3MPI8DatatypeE*)* @_ZNK3MPI4Comm8AlltoallEPKviRKNS_8DatatypeEPviS5_ to i32 (...)* (...)*), i32 (...)* (...)*  bitcast (void (%struct._ZN3MPI4CommE*, i8*, i32*, i32*, %struct._ZN3MPI8DatatypeE*, i8*, i32*, i32*, %struct._ZN3MPI8DatatypeE*)* @_ZNK3MPI4Comm9AlltoallvEPKvPKiS4_RKNS_8DatatypeEPvS4_S4_S7_ to i32 (...)* (...)*), i32 (...)* (...)*  bitcast (void (%struct._ZN3MPI4CommE*, i8*, i32*, i32*, %struct._ZN3MPI8DatatypeE*, i8*, i32*, i32*, %struct._ZN3MPI8DatatypeE*)* @_ZNK3MPI4Comm9AlltoallwEPKvPKiS4_PKNS_8DatatypeEPvS4_S4_S7_ to i32 (...)* (...)*), i32 (...)* (...)*  bitcast (void (%struct._ZN3MPI4CommE*, i8*, i8*, i32, %struct._ZN3MPI8DatatypeE*, %struct._ZN3MPI2OpE*, i32)* @_ZNK3MPI4Comm6ReduceEPKvPviRKNS_8DatatypeERKNS_2OpEi to i32 (...)* (...)*), i32 (...)* (...)*  bitcast (void (%struct._ZN3MPI4CommE*, i8*, i8*, i32, %struct._ZN3MPI8DatatypeE*, %struct._ZN3MPI2OpE*)* @_ZNK3MPI4Comm9AllreduceEPKvPviRKNS_8DatatypeERKNS_2OpE to i32 (...)* (...)*), i32 (...)* (...)*  bitcast (void (%struct._ZN3MPI4CommE*, i8*, i8*, i32*, %struct._ZN3MPI8DatatypeE*, %struct._ZN3MPI2OpE*)* @_ZNK3MPI4Comm14Reduce_scatterEPKvPvPiRKNS_8DatatypeERKNS_2OpE to i32 (...)* (...)*), i32 (...)* (...)*  bitcast (void (%struct._ZN3MPI4CommE*)* @_ZN3MPI4Comm10DisconnectEv to i32 (...)* (...)*), i32 (...)* (...)*  bitcast (void (%struct._ZN3MPI4CommE*, i8*, i32*)* @_ZNK3MPI4Comm8Get_nameEPcRi to i32 (...)* (...)*), i32 (...)* (...)*  bitcast (void (%struct._ZN3MPI4CommE*, i8*)* @_ZN3MPI4Comm8Set_nameEPKc to i32 (...)* (...)*), i32 (...)* (...)*  bitcast (i32 (%struct._ZN3MPI4CommE*)* @_ZNK3MPI4Comm12Get_topologyEv to i32 (...)* (...)*), i32 (...)* (...)*  bitcast (void (%struct._ZN3MPI4CommE*, i32)* @_ZN3MPI4Comm5AbortEi to i32 (...)* (...)*), i32 (...)* (...)*  bitcast (void (%struct._ZN3MPI4CommE*, %struct._ZN3MPI10ErrhandlerE*)* @_ZN3MPI4Comm14Set_errhandlerERKNS_10ErrhandlerE to i32 (...)* (...)*), i32 (...)* (...)*  bitcast (void (%struct._ZN3MPI10ErrhandlerE*, %struct._ZN3MPI4CommE*)* @_ZNK3MPI4Comm14Get_errhandlerEv to i32 (...)* (...)*), i32 (...)* (...)*  bitcast (void (%struct._ZN3MPI4CommE*, i32, i8*)* @_ZNK3MPI4Comm8Set_attrEiPKv to i32 (...)* (...)*), i32 (...)* (...)*  bitcast (i8 (%struct._ZN3MPI4CommE*, i32, i8*)* @_ZNK3MPI4Comm8Get_attrEiPv to i32 (...)* (...)*), i32 (...)* (...)*  bitcast (void (%struct._ZN3MPI4CommE*, i32)* @_ZN3MPI4Comm11Delete_attrEi to i32 (...)* (...)*), i32 (...)* (...)*  bitcast (i32 (%struct._ZN3MPI9IntercommE*)* @_ZNK3MPI9Intercomm15Get_remote_sizeEv to i32 (...)* (...)*), i32 (...)* (...)*  bitcast (void (%struct._ZN3MPI5GroupE*, %struct._ZN3MPI9IntercommE*)* @_ZNK3MPI9Intercomm16Get_remote_groupEv to i32 (...)* (...)*), i32 (...)* (...)*  bitcast (void (%struct._ZN3MPI9IntracommE*, %struct._ZN3MPI9IntercommE*, i8)* @_ZNK3MPI9Intercomm5MergeEb to i32 (...)* (...)*), i32 (...)* (...)*  bitcast (void (%struct._ZN3MPI9IntercommE*, %struct._ZN3MPI9IntercommE*, %struct._ZN3MPI5GroupE*)* @_ZNK3MPI9Intercomm6CreateERKNS_5GroupE to i32 (...)* (...)*), i32 (...)* (...)*  bitcast (void (%struct._ZN3MPI9IntercommE*, %struct._ZN3MPI9IntercommE*, i32, i32)* @_ZNK3MPI9Intercomm5SplitEii to i32 (...)* (...)*) ], align 16, !dbg !3653
@_ZTVN3MPI4InfoE = weak unnamed_addr global [12 x i32 (...)* (...)*]  [ i32 (...)* (...)*  null, i32 (...)* (...)*  bitcast (%struct.__class_type_info* @_ZTIN3MPI4InfoE to i32 (...)* (...)*), i32 (...)* (...)*  bitcast (void (%struct._ZN3MPI4InfoE*)* @_ZN3MPI4InfoD1Ev to i32 (...)* (...)*), i32 (...)* (...)*  bitcast (void (%struct._ZN3MPI4InfoE*)* @_ZN3MPI4InfoD0Ev to i32 (...)* (...)*), i32 (...)* (...)*  bitcast (void (%struct._ZN3MPI4InfoE*, i8*)* @_ZN3MPI4Info6DeleteEPKc to i32 (...)* (...)*), i32 (...)* (...)*  bitcast (void (%struct._ZN3MPI4InfoE*, %struct._ZN3MPI4InfoE*)* @_ZNK3MPI4Info3DupEv to i32 (...)* (...)*), i32 (...)* (...)*  bitcast (void (%struct._ZN3MPI4InfoE*)* @_ZN3MPI4Info4FreeEv to i32 (...)* (...)*), i32 (...)* (...)*  bitcast (i8 (%struct._ZN3MPI4InfoE*, i8*, i32, i8*)* @_ZNK3MPI4Info3GetEPKciPc to i32 (...)* (...)*), i32 (...)* (...)*  bitcast (i32 (%struct._ZN3MPI4InfoE*)* @_ZNK3MPI4Info9Get_nkeysEv to i32 (...)* (...)*), i32 (...)* (...)*  bitcast (void (%struct._ZN3MPI4InfoE*, i32, i8*)* @_ZNK3MPI4Info10Get_nthkeyEiPc to i32 (...)* (...)*), i32 (...)* (...)*  bitcast (i8 (%struct._ZN3MPI4InfoE*, i8*, i32*)* @_ZNK3MPI4Info12Get_valuelenEPKcRi to i32 (...)* (...)*), i32 (...)* (...)*  bitcast (void (%struct._ZN3MPI4InfoE*, i8*, i8*)* @_ZN3MPI4Info3SetEPKcS2_ to i32 (...)* (...)*) ], align 16, !dbg !3657

%astruct.dt129 = type <{ %struct.__class_type_info, i32, i32, [3 x %struct.__C1]}> 
%struct.__C1 = type <{ %struct.__class_type_info*, i64}> 

@_ZTVN3MPI2OpE = weak unnamed_addr global [8 x i32 (...)* (...)*]  [ i32 (...)* (...)*  null, i32 (...)* (...)*  bitcast (%struct.__class_type_info* @_ZTIN3MPI2OpE to i32 (...)* (...)*), i32 (...)* (...)*  bitcast (void (%struct._ZN3MPI2OpE*)* @_ZN3MPI2OpD1Ev to i32 (...)* (...)*), i32 (...)* (...)*  bitcast (void (%struct._ZN3MPI2OpE*)* @_ZN3MPI2OpD0Ev to i32 (...)* (...)*), i32 (...)* (...)*  bitcast (void (%struct._ZN3MPI2OpE*, void (i8*, i8*, i32, %struct._ZN3MPI8DatatypeE*)*, i8)* @_ZN3MPI2Op4InitEPFvPKvPviRKNS_8DatatypeEEb to i32 (...)* (...)*), i32 (...)* (...)*  bitcast (void (%struct._ZN3MPI2OpE*)* @_ZN3MPI2Op4FreeEv to i32 (...)* (...)*), i32 (...)* (...)*  bitcast (void (%struct._ZN3MPI2OpE*, i8*, i8*, i32, %struct._ZN3MPI8DatatypeE*)* @_ZNK3MPI2Op12Reduce_localEPKvPviRKNS_8DatatypeE to i32 (...)* (...)*), i32 (...)* (...)*  bitcast (i8 (%struct._ZN3MPI2OpE*)* @_ZNK3MPI2Op14Is_commutativeEv to i32 (...)* (...)*) ], align 16, !dbg !3662
@_ZTISt23__codecvt_abstract_baseIDsc11__mbstate_tE = weak unnamed_addr global %astruct.dt129  <{ %struct.__class_type_info  <{ %struct.__EDG_type_info  <{ i32 (...)* (...)*  bitcast (i8* getelementptr(i8, i8* bitcast([0 x i32 (...)* (...)*]* @_ZTVN10__cxxabiv121__vmi_class_type_infoE to i8*), i32 16) to i32 (...)* (...)*), i8*  getelementptr(i8, i8* bitcast([46 x i8]* @_ZTSSt23__codecvt_abstract_baseIDsc11__mbstate_tE to i8*), i32 0) }> }>, i32 0, i32 2, [3 x %struct.__C1]  [ %struct.__C1  <{ %struct.__class_type_info*  @_ZTINSt6locale5facetE, i64 2 }>, %struct.__C1  <{ %struct.__class_type_info*  @_ZTISt12codecvt_base, i64 2 }>, %struct.__C1  <{ %struct.__class_type_info* zeroinitializer, i64 0 }> ] }>, align 16, !dbg !3673
@_ZTISt23__codecvt_abstract_baseIDic11__mbstate_tE = weak unnamed_addr global %astruct.dt129  <{ %struct.__class_type_info  <{ %struct.__EDG_type_info  <{ i32 (...)* (...)*  bitcast (i8* getelementptr(i8, i8* bitcast([0 x i32 (...)* (...)*]* @_ZTVN10__cxxabiv121__vmi_class_type_infoE to i8*), i32 16) to i32 (...)* (...)*), i8*  getelementptr(i8, i8* bitcast([46 x i8]* @_ZTSSt23__codecvt_abstract_baseIDic11__mbstate_tE to i8*), i32 0) }> }>, i32 0, i32 2, [3 x %struct.__C1]  [ %struct.__C1  <{ %struct.__class_type_info*  @_ZTINSt6locale5facetE, i64 2 }>, %struct.__C1  <{ %struct.__class_type_info*  @_ZTISt12codecvt_base, i64 2 }>, %struct.__C1  <{ %struct.__class_type_info* zeroinitializer, i64 0 }> ] }>, align 16, !dbg !3677
@_ZTIN3MPI8DatatypeE = weak unnamed_addr global %struct.__class_type_info  <{ %struct.__EDG_type_info  <{ i32 (...)* (...)*  bitcast (i8* getelementptr(i8, i8* bitcast([0 x i32 (...)* (...)*]* @_ZTVN10__cxxabiv117__class_type_infoE to i8*), i32 16) to i32 (...)* (...)*), i8*  getelementptr(i8, i8* bitcast([16 x i8]* @_ZTSN3MPI8DatatypeE to i8*), i32 0) }> }>, align 16, !dbg !3578
@_ZTIN3MPI2OpE = weak unnamed_addr global %struct.__class_type_info  <{ %struct.__EDG_type_info  <{ i32 (...)* (...)*  bitcast (i8* getelementptr(i8, i8* bitcast([0 x i32 (...)* (...)*]* @_ZTVN10__cxxabiv117__class_type_infoE to i8*), i32 16) to i32 (...)* (...)*), i8*  getelementptr(i8, i8* bitcast([10 x i8]* @_ZTSN3MPI2OpE to i8*), i32 0) }> }>, align 16, !dbg !3675
@_ZTIN3MPI6StatusE = weak unnamed_addr global %struct.__class_type_info  <{ %struct.__EDG_type_info  <{ i32 (...)* (...)*  bitcast (i8* getelementptr(i8, i8* bitcast([0 x i32 (...)* (...)*]* @_ZTVN10__cxxabiv117__class_type_infoE to i8*), i32 16) to i32 (...)* (...)*), i8*  getelementptr(i8, i8* bitcast([14 x i8]* @_ZTSN3MPI6StatusE to i8*), i32 0) }> }>, align 16, !dbg !3585
@_ZTIN3MPI7RequestE = weak unnamed_addr global %struct.__class_type_info  <{ %struct.__EDG_type_info  <{ i32 (...)* (...)*  bitcast (i8* getelementptr(i8, i8* bitcast([0 x i32 (...)* (...)*]* @_ZTVN10__cxxabiv117__class_type_infoE to i8*), i32 16) to i32 (...)* (...)*), i8*  getelementptr(i8, i8* bitcast([15 x i8]* @_ZTSN3MPI7RequestE to i8*), i32 0) }> }>, align 16, !dbg !3590
@_ZTIN3MPI8PrequestE = weak unnamed_addr global %struct.__si_class_type_info  <{ %struct.__class_type_info  <{ %struct.__EDG_type_info  <{ i32 (...)* (...)*  bitcast (i8* getelementptr(i8, i8* bitcast([0 x i32 (...)* (...)*]* @_ZTVN10__cxxabiv120__si_class_type_infoE to i8*), i32 16) to i32 (...)* (...)*), i8*  getelementptr(i8, i8* bitcast([16 x i8]* @_ZTSN3MPI8PrequestE to i8*), i32 0) }> }>, %struct.__class_type_info*  @_ZTIN3MPI7RequestE }>, align 16, !dbg !3594
@_ZTIN3MPI8GrequestE = weak unnamed_addr global %struct.__si_class_type_info  <{ %struct.__class_type_info  <{ %struct.__EDG_type_info  <{ i32 (...)* (...)*  bitcast (i8* getelementptr(i8, i8* bitcast([0 x i32 (...)* (...)*]* @_ZTVN10__cxxabiv120__si_class_type_infoE to i8*), i32 16) to i32 (...)* (...)*), i8*  getelementptr(i8, i8* bitcast([16 x i8]* @_ZTSN3MPI8GrequestE to i8*), i32 0) }> }>, %struct.__class_type_info*  @_ZTIN3MPI7RequestE }>, align 16, !dbg !3601
@_ZTIN3MPI5GroupE = weak unnamed_addr global %struct.__class_type_info  <{ %struct.__EDG_type_info  <{ i32 (...)* (...)*  bitcast (i8* getelementptr(i8, i8* bitcast([0 x i32 (...)* (...)*]* @_ZTVN10__cxxabiv117__class_type_infoE to i8*), i32 16) to i32 (...)* (...)*), i8*  getelementptr(i8, i8* bitcast([13 x i8]* @_ZTSN3MPI5GroupE to i8*), i32 0) }> }>, align 16, !dbg !3606
@_ZTIN3MPI9Comm_NullE = weak unnamed_addr global %struct.__class_type_info  <{ %struct.__EDG_type_info  <{ i32 (...)* (...)*  bitcast (i8* getelementptr(i8, i8* bitcast([0 x i32 (...)* (...)*]* @_ZTVN10__cxxabiv117__class_type_infoE to i8*), i32 16) to i32 (...)* (...)*), i8*  getelementptr(i8, i8* bitcast([17 x i8]* @_ZTSN3MPI9Comm_NullE to i8*), i32 0) }> }>, align 16, !dbg !3613
@_ZTIN3MPI4CommE = weak unnamed_addr global %struct.__si_class_type_info  <{ %struct.__class_type_info  <{ %struct.__EDG_type_info  <{ i32 (...)* (...)*  bitcast (i8* getelementptr(i8, i8* bitcast([0 x i32 (...)* (...)*]* @_ZTVN10__cxxabiv120__si_class_type_infoE to i8*), i32 16) to i32 (...)* (...)*), i8*  getelementptr(i8, i8* bitcast([12 x i8]* @_ZTSN3MPI4CommE to i8*), i32 0) }> }>, %struct.__class_type_info*  @_ZTIN3MPI9Comm_NullE }>, align 16, !dbg !3620
@_ZTIN3MPI3WinE = weak unnamed_addr global %struct.__class_type_info  <{ %struct.__EDG_type_info  <{ i32 (...)* (...)*  bitcast (i8* getelementptr(i8, i8* bitcast([0 x i32 (...)* (...)*]* @_ZTVN10__cxxabiv117__class_type_infoE to i8*), i32 16) to i32 (...)* (...)*), i8*  getelementptr(i8, i8* bitcast([11 x i8]* @_ZTSN3MPI3WinE to i8*), i32 0) }> }>, align 16, !dbg !3627
@_ZTIN3MPI10ErrhandlerE = weak unnamed_addr global %struct.__class_type_info  <{ %struct.__EDG_type_info  <{ i32 (...)* (...)*  bitcast (i8* getelementptr(i8, i8* bitcast([0 x i32 (...)* (...)*]* @_ZTVN10__cxxabiv117__class_type_infoE to i8*), i32 16) to i32 (...)* (...)*), i8*  getelementptr(i8, i8* bitcast([19 x i8]* @_ZTSN3MPI10ErrhandlerE to i8*), i32 0) }> }>, align 16, !dbg !3634
@_ZTIN3MPI9IntracommE = weak unnamed_addr global %struct.__si_class_type_info  <{ %struct.__class_type_info  <{ %struct.__EDG_type_info  <{ i32 (...)* (...)*  bitcast (i8* getelementptr(i8, i8* bitcast([0 x i32 (...)* (...)*]* @_ZTVN10__cxxabiv120__si_class_type_infoE to i8*), i32 16) to i32 (...)* (...)*), i8*  getelementptr(i8, i8* bitcast([17 x i8]* @_ZTSN3MPI9IntracommE to i8*), i32 0) }> }>, %struct.__class_type_info*  bitcast(i8* getelementptr(i8, i8* bitcast(%struct.__si_class_type_info* @_ZTIN3MPI4CommE to i8*), i32 0) to %struct.__class_type_info*) }>, align 16, !dbg !3641
@_ZTIN3MPI8CartcommE = weak unnamed_addr global %struct.__si_class_type_info  <{ %struct.__class_type_info  <{ %struct.__EDG_type_info  <{ i32 (...)* (...)*  bitcast (i8* getelementptr(i8, i8* bitcast([0 x i32 (...)* (...)*]* @_ZTVN10__cxxabiv120__si_class_type_infoE to i8*), i32 16) to i32 (...)* (...)*), i8*  getelementptr(i8, i8* bitcast([16 x i8]* @_ZTSN3MPI8CartcommE to i8*), i32 0) }> }>, %struct.__class_type_info*  bitcast(i8* getelementptr(i8, i8* bitcast(%struct.__si_class_type_info* @_ZTIN3MPI9IntracommE to i8*), i32 0) to %struct.__class_type_info*) }>, align 16, !dbg !3648
@_ZTIN3MPI9GraphcommE = weak unnamed_addr global %struct.__si_class_type_info  <{ %struct.__class_type_info  <{ %struct.__EDG_type_info  <{ i32 (...)* (...)*  bitcast (i8* getelementptr(i8, i8* bitcast([0 x i32 (...)* (...)*]* @_ZTVN10__cxxabiv120__si_class_type_infoE to i8*), i32 16) to i32 (...)* (...)*), i8*  getelementptr(i8, i8* bitcast([17 x i8]* @_ZTSN3MPI9GraphcommE to i8*), i32 0) }> }>, %struct.__class_type_info*  bitcast(i8* getelementptr(i8, i8* bitcast(%struct.__si_class_type_info* @_ZTIN3MPI9IntracommE to i8*), i32 0) to %struct.__class_type_info*) }>, align 16, !dbg !3655
@_ZTIN3MPI9IntercommE = weak unnamed_addr global %struct.__si_class_type_info  <{ %struct.__class_type_info  <{ %struct.__EDG_type_info  <{ i32 (...)* (...)*  bitcast (i8* getelementptr(i8, i8* bitcast([0 x i32 (...)* (...)*]* @_ZTVN10__cxxabiv120__si_class_type_infoE to i8*), i32 16) to i32 (...)* (...)*), i8*  getelementptr(i8, i8* bitcast([17 x i8]* @_ZTSN3MPI9IntercommE to i8*), i32 0) }> }>, %struct.__class_type_info*  bitcast(i8* getelementptr(i8, i8* bitcast(%struct.__si_class_type_info* @_ZTIN3MPI4CommE to i8*), i32 0) to %struct.__class_type_info*) }>, align 16, !dbg !3659
@_ZTIN3MPI4InfoE = weak unnamed_addr global %struct.__class_type_info  <{ %struct.__EDG_type_info  <{ i32 (...)* (...)*  bitcast (i8* getelementptr(i8, i8* bitcast([0 x i32 (...)* (...)*]* @_ZTVN10__cxxabiv117__class_type_infoE to i8*), i32 16) to i32 (...)* (...)*), i8*  getelementptr(i8, i8* bitcast([12 x i8]* @_ZTSN3MPI4InfoE to i8*), i32 0) }> }>, align 16, !dbg !3664
@_ZTISt12codecvt_base = weak unnamed_addr global %struct.__class_type_info  <{ %struct.__EDG_type_info  <{ i32 (...)* (...)*  bitcast (i8* getelementptr(i8, i8* bitcast([0 x i32 (...)* (...)*]* @_ZTVN10__cxxabiv117__class_type_infoE to i8*), i32 16) to i32 (...)* (...)*), i8*  getelementptr(i8, i8* bitcast([17 x i8]* @_ZTSSt12codecvt_base to i8*), i32 0) }> }>, align 16, !dbg !3689
@_ZTSSt12codecvt_base = weak unnamed_addr global [17 x i8]  c"St12codecvt_base\00", align 16, !dbg !3745
@_ZTSSt23__codecvt_abstract_baseIDsc11__mbstate_tE = weak unnamed_addr global [46 x i8]  c"St23__codecvt_abstract_baseIDsc11__mbstate_tE\00", align 16, !dbg !3685
@_ZTSSt23__codecvt_abstract_baseIDic11__mbstate_tE = weak unnamed_addr global [46 x i8]  c"St23__codecvt_abstract_baseIDic11__mbstate_tE\00", align 16, !dbg !3691
@_ZTISt7codecvtIDsc11__mbstate_tE = weak unnamed_addr global %struct.__si_class_type_info  <{ %struct.__class_type_info  <{ %struct.__EDG_type_info  <{ i32 (...)* (...)*  bitcast (i8* getelementptr(i8, i8* bitcast([0 x i32 (...)* (...)*]* @_ZTVN10__cxxabiv120__si_class_type_infoE to i8*), i32 16) to i32 (...)* (...)*), i8*  getelementptr(i8, i8* bitcast([29 x i8]* @_ZTSSt7codecvtIDsc11__mbstate_tE to i8*), i32 0) }> }>, %struct.__class_type_info*  bitcast(i8* getelementptr(i8, i8* bitcast(%astruct.dt129* @_ZTISt23__codecvt_abstract_baseIDsc11__mbstate_tE to i8*), i32 0) to %struct.__class_type_info*) }>, align 16, !dbg !3747
@_ZTSSt7codecvtIDsc11__mbstate_tE = weak unnamed_addr global [29 x i8]  c"St7codecvtIDsc11__mbstate_tE\00", align 16, !dbg !3752
@_ZTISt7codecvtIDic11__mbstate_tE = weak unnamed_addr global %struct.__si_class_type_info  <{ %struct.__class_type_info  <{ %struct.__EDG_type_info  <{ i32 (...)* (...)*  bitcast (i8* getelementptr(i8, i8* bitcast([0 x i32 (...)* (...)*]* @_ZTVN10__cxxabiv120__si_class_type_infoE to i8*), i32 16) to i32 (...)* (...)*), i8*  getelementptr(i8, i8* bitcast([29 x i8]* @_ZTSSt7codecvtIDic11__mbstate_tE to i8*), i32 0) }> }>, %struct.__class_type_info*  bitcast(i8* getelementptr(i8, i8* bitcast(%astruct.dt129* @_ZTISt23__codecvt_abstract_baseIDic11__mbstate_tE to i8*), i32 0) to %struct.__class_type_info*) }>, align 16, !dbg !3754
@_ZTSSt7codecvtIDic11__mbstate_tE = weak unnamed_addr global [29 x i8]  c"St7codecvtIDic11__mbstate_tE\00", align 16, !dbg !3756
@_ZTSN3MPI8DatatypeE = weak unnamed_addr global [16 x i8]  c"N3MPI8DatatypeE\00", align 16, !dbg !3695
@_ZTSN3MPI2OpE = weak unnamed_addr global [10 x i8]  c"N3MPI2OpE\00", align 8, !dbg !3700
@_ZTSN3MPI6StatusE = weak unnamed_addr global [14 x i8]  c"N3MPI6StatusE\00", align 8, !dbg !3705
@_ZTSN3MPI7RequestE = weak unnamed_addr global [15 x i8]  c"N3MPI7RequestE\00", align 8, !dbg !3708
@_ZTSN3MPI8PrequestE = weak unnamed_addr global [16 x i8]  c"N3MPI8PrequestE\00", align 16, !dbg !3712
@_ZTSN3MPI8GrequestE = weak unnamed_addr global [16 x i8]  c"N3MPI8GrequestE\00", align 16, !dbg !3714
@_ZTSN3MPI5GroupE = weak unnamed_addr global [13 x i8]  c"N3MPI5GroupE\00", align 8, !dbg !3717
@_ZTSN3MPI9Comm_NullE = weak unnamed_addr global [17 x i8]  c"N3MPI9Comm_NullE\00", align 16, !dbg !3722
@_ZTSN3MPI4CommE = weak unnamed_addr global [12 x i8]  c"N3MPI4CommE\00", align 8, !dbg !3725
@_ZTSN3MPI3WinE = weak unnamed_addr global [11 x i8]  c"N3MPI3WinE\00", align 8, !dbg !3728
@_ZTSN3MPI10ErrhandlerE = weak unnamed_addr global [19 x i8]  c"N3MPI10ErrhandlerE\00", align 16, !dbg !3733
@_ZTSN3MPI9IntracommE = weak unnamed_addr global [17 x i8]  c"N3MPI9IntracommE\00", align 16, !dbg !3735
@_ZTSN3MPI8CartcommE = weak unnamed_addr global [16 x i8]  c"N3MPI8CartcommE\00", align 16, !dbg !3737
@_ZTSN3MPI9GraphcommE = weak unnamed_addr global [17 x i8]  c"N3MPI9GraphcommE\00", align 16, !dbg !3739
@_ZTSN3MPI9IntercommE = weak unnamed_addr global [17 x i8]  c"N3MPI9IntercommE\00", align 16, !dbg !3741

%struct._ZNSt12_Vector_baseIjSaIjEE12_Vector_implE = type <{ %struct._ZNSt12_Vector_baseIjSaIjEE17_Vector_impl_dataE}> 
%union.__C5 = type <{ [16 x i8]}> 
%struct._ZSt6vectorIN5vmesh14MeshParametersESaIS1_EE = type <{ %struct._ZSt12_Vector_baseIN5vmesh14MeshParametersESaIS1_EE}> 
%struct._ZSt12_Vector_baseIN5vmesh14MeshParametersESaIS1_EE = type <{ %struct._ZNSt12_Vector_baseIN5vmesh14MeshParametersESaIS1_EE12_Vector_implE}> 
%struct._ZSt6vectorIjSaIjEE = type <{ %struct._ZSt12_Vector_baseIjSaIjEE}> 
%struct._ZNSt12_Vector_baseIjSaIjEE17_Vector_impl_dataE = type <{ i32*, i32*, i32*}> 
%struct._ZSt12_Vector_baseIjSaIjEE = type <{ %struct._ZNSt12_Vector_baseIjSaIjEE12_Vector_implE}> 
%struct._ZNSt12_Vector_baseIN5vmesh14MeshParametersESaIS1_EE12_Vector_implE = type <{ %struct._ZNSt12_Vector_baseIN5vmesh14MeshParametersESaIS1_EE17_Vector_impl_dataE}> 
%struct._ZNSt7__cxx1112basic_stringIcSt11char_traitsIcESaIcEE12_Alloc_hiderE = type <{ i8*}> 
%struct._ZSt6vectorIdSaIdEE = type <{ %struct._ZSt12_Vector_baseIdSaIdEE}> 
%struct._ZSt12_Vector_baseIdSaIdEE = type <{ %struct._ZNSt12_Vector_baseIdSaIdEE12_Vector_implE}> 
%struct._ZNSt12_Vector_baseIdSaIdEE17_Vector_impl_dataE = type <{ double*, double*, double*}> 
%struct._ZN5vmesh14MeshParametersE = type <{ %struct._ZNSt7__cxx1112basic_stringIcSt11char_traitsIcESaIcEEE, i32, [4 x i8], [6 x double], [3 x i32], [3 x i32], i8, i8, [6 x i8], [3 x double], [3 x double], [3 x double], [3 x double], [3 x double], %struct._ZSt6vectorIjSaIjEE, %struct._ZSt6vectorIdSaIdEE, %struct._ZSt6vectorIdSaIdEE, %struct._ZSt6vectorIjSaIjEE}> 
%struct._ZNSt7__cxx1112basic_stringIcSt11char_traitsIcESaIcEEE = type <{ %struct._ZNSt7__cxx1112basic_stringIcSt11char_traitsIcESaIcEE12_Alloc_hiderE, i64, %union.__C5}> 
%struct._ZNSt12_Vector_baseIdSaIdEE12_Vector_implE = type <{ %struct._ZNSt12_Vector_baseIdSaIdEE17_Vector_impl_dataE}> 
%struct._ZNSt12_Vector_baseIN5vmesh14MeshParametersESaIS1_EE17_Vector_impl_dataE = type <{ %struct._ZN5vmesh14MeshParametersE*, %struct._ZN5vmesh14MeshParametersE*, %struct._ZN5vmesh14MeshParametersE*}> 

@_ZTSN3MPI4InfoE = weak unnamed_addr global [12 x i8]  c"N3MPI4InfoE\00", align 8, !dbg !3743
@_ZN5vmesh12VelocityMeshIjjE14meshParametersE = weak unnamed_addr global %struct._ZSt6vectorIN5vmesh14MeshParametersESaIS1_EE zeroinitializer, align 16, !dbg !3758
@_ZN50_INTERNAL_28_vlasovsolver_cpu_acc_map_cpp_4ed445225vmesh16INVALID_GLOBALIDE = internal global i32 -1, align 4, !dbg !3760
@_ZN50_INTERNAL_28_vlasovsolver_cpu_acc_map_cpp_4ed445225vmesh15INVALID_LOCALIDE = internal global i32 -1, align 4, !dbg !3762
@_ZN50_INTERNAL_28_vlasovsolver_cpu_acc_map_cpp_4ed445225vmesh23INVALID_VEL_BLOCK_INDEXE = internal global i32 -1, align 4, !dbg !3764
@_ZN50_INTERNAL_28_vlasovsolver_cpu_acc_map_cpp_4ed445225vmesh23BLOCK_ALLOCATION_FACTORE = internal global double  1.10000000000000009E+0, align 8, !dbg !3766
@_ZN50_INTERNAL_28_vlasovsolver_cpu_acc_map_cpp_4ed445223MPI16MAX_ERROR_STRINGE = internal global i32 256, align 4, !dbg !3768
@_ZN50_INTERNAL_28_vlasovsolver_cpu_acc_map_cpp_4ed4452212spatial_cell8Transfer15CELL_PARAMETERSE = internal global i64 1, align 8, !dbg !3770
@_ZN50_INTERNAL_28_vlasovsolver_cpu_acc_map_cpp_4ed4452212spatial_cell8Transfer16CELL_DERIVATIVESE = internal global i64 2, align 8, !dbg !3772
@_ZN50_INTERNAL_28_vlasovsolver_cpu_acc_map_cpp_4ed4452212spatial_cell8Transfer14VEL_BLOCK_DATAE = internal global i64 16, align 8, !dbg !3774
@_ZN50_INTERNAL_28_vlasovsolver_cpu_acc_map_cpp_4ed4452212spatial_cell8Transfer20CELL_SYSBOUNDARYFLAGE = internal global i64 512, align 8, !dbg !3776
@_ZN50_INTERNAL_28_vlasovsolver_cpu_acc_map_cpp_4ed4452212spatial_cell8Transfer21CELL_BVOL_DERIVATIVESE = internal global i64 524288, align 8, !dbg !3778
@_ZN50_INTERNAL_28_vlasovsolver_cpu_acc_map_cpp_4ed4452212spatial_cell8Transfer12POP_METADATAE = internal global i64 67108864, align 8, !dbg !3780
@_ZN50_INTERNAL_28_vlasovsolver_cpu_acc_map_cpp_4ed4452212spatial_cell8Transfer9RANDOMGENE = internal global i64 134217728, align 8, !dbg !3782
@__I___28_vlasovsolver_cpu_acc_map_cpp_4ed44522 = global i32 0, align 4, !dbg !3784
@_ZTVN10__cxxabiv120__si_class_type_infoE = external global [0 x i32 (...)* (...)*], align 8
@_ZTVN10__cxxabiv117__class_type_infoE = external global [0 x i32 (...)* (...)*], align 8
@_ZTINSt6locale5facetE = external global %struct.__class_type_info, align 8
@_ZTVN10__cxxabiv121__vmi_class_type_infoE = external global [0 x i32 (...)* (...)*], align 8
@_ZGVN5vmesh12VelocityMeshIjjE14meshParametersE = weak unnamed_addr global i64 zeroinitializer, align 8
@llvm.global_ctors = appending global [1 x { i32, void ()*, i8* }][{ i32, void ()*, i8* } { i32 65535, void ()* @__sti___28_vlasovsolver_cpu_acc_map_cpp_4ed44522, i8* null }]
attributes #0 = { "frame-pointer"="all" }

declare void @_ZN3MPI3Win4FreeEv(%struct._ZN3MPI3WinE*) #0
declare void @__cxa_pure_virtual() #0
declare void @_ZN3MPI8Datatype4FreeEv(%struct._ZN3MPI8DatatypeE*) #0
declare void @_ZN10Vec8SimpleIbEC1Ebbbbbbbb(%struct._Z10Vec8SimpleIbE*, i8 signext, i8 signext, i8 signext, i8 signext, i8 signext, i8 signext, i8 signext, i8 signext) #0
declare void @_ZN10Vec8SimpleIfEC1Effffffff(%struct._Z10Vec8SimpleIfE*, float, float, float, float, float, float, float, float) #0
declare float @llvm.fabs.f32(float)
declare void @_ZN10Vec8SimpleIfEC1Ef(%struct._Z10Vec8SimpleIfE*, float) #0
declare void @free(i8*) #0
declare i8* @malloc(i64) #0
declare void @llvm.dbg.declare(metadata, metadata, metadata)
declare i32 @__gxx_personality_v0(...)

; Named metadata
!llvm.module.flags = !{ !1, !2 }
!llvm.dbg.cu = !{ !10 }

; Metadata
!1 = !{ i32 2, !"Dwarf Version", i32 2 }
!2 = !{ i32 2, !"Debug Info Version", i32 3 }
!3 = !DIFile(filename: "vlasovsolver/cpu_acc_map.cpp", directory: "/home/talgat/vlasiator")
; !4 = !DIFile(tag: DW_TAG_file_type, pair: !3)
!4 = !{ i32 41, !3 }
!5 = !{  }
!6 = !{  }
!7 = !{ !3346, !3363, !3375, !3385, !3405, !3420 }
!8 = !{ !3534, !3536, !3538, !3540, !3542, !3544, !3546, !3548, !3550, !3552, !3554, !3556, !3558, !3560, !3562, !3564, !3566, !3568, !3571, !3576, !3578, !3583, !3585, !3588, !3590, !3592, !3594, !3599, !3601, !3604, !3606, !3611, !3613, !3618, !3620, !3625, !3627, !3632, !3634, !3639, !3641, !3646, !3648, !3653, !3655, !3657, !3659, !3662, !3664, !3673, !3675, !3677, !3680, !3685, !3687, !3689, !3691, !3693, !3695, !3700, !3705, !3708, !3710, !3712, !3714, !3717, !3722, !3725, !3728, !3733, !3735, !3737, !3739, !3741, !3743, !3745, !3747, !3752, !3754, !3756, !3758, !3760, !3762, !3764, !3766, !3768, !3770, !3772, !3774, !3776, !3778, !3780, !3782, !3784 }
!9 = !{  }
!10 = distinct !DICompileUnit(file: !3, language: DW_LANG_C_plus_plus, producer: " NVC++ 21.2-0", enums: !5, retainedTypes: !6, globals: !8, emissionKind: FullDebug, imports: !9)
!11 = !DINamespace(scope: !10, name: "std")
!12 = !DINamespace(scope: !11, name: "__cxx11")
!13 = !DINamespace(scope: !11, name: "__swappable_details")
!14 = !{  }
!15 = !DICompositeType(tag: DW_TAG_structure_type, file: !3, scope: !13, name: "__do_is_swappable_impl", line: 1, size: 8, align: 8, elements: !14, runtimeLang: DW_LANG_C_plus_plus)
!16 = !{  }
!17 = !DICompositeType(tag: DW_TAG_structure_type, file: !3, scope: !13, name: "__do_is_nothrow_swappable_impl", line: 1, size: 8, align: 8, elements: !16, runtimeLang: DW_LANG_C_plus_plus)
!18 = !DINamespace(scope: !11, name: "__swappable_with_details")
!19 = !{  }
!20 = !DICompositeType(tag: DW_TAG_structure_type, file: !3, scope: !18, name: "__do_is_swappable_with_impl", line: 1, size: 8, align: 8, elements: !19, runtimeLang: DW_LANG_C_plus_plus)
!21 = !{  }
!22 = !DICompositeType(tag: DW_TAG_structure_type, file: !3, scope: !18, name: "__do_is_nothrow_swappable_with_impl", line: 1, size: 8, align: 8, elements: !21, runtimeLang: DW_LANG_C_plus_plus)
!23 = !DINamespace(scope: !11, name: "__debug")
!24 = !DINamespace(scope: !11, name: "__exception_ptr")
!25 = !{ !29 }
!26 = !DICompositeType(tag: DW_TAG_class_type, file: !3, scope: !24, name: "exception_ptr", line: 1, size: 64, align: 64, elements: !25, runtimeLang: DW_LANG_C_plus_plus)
!27 = !DIBasicType(tag: DW_TAG_unspecified_type, name: "void")
!28 = !DIDerivedType(tag: DW_TAG_pointer_type, size: 64, align: 64, baseType: !27)
!29 = !DIDerivedType(tag: DW_TAG_member, file: !3, scope: !26, name: "_M_exception_object", line: 1, size: 64, align: 64, baseType: !28)
!30 = !DINamespace(scope: !11, name: "__detail")
!31 = !{  }
!32 = !DICompositeType(tag: DW_TAG_structure_type, file: !3, scope: !30, name: "_Identity", line: 1, size: 8, align: 8, elements: !31, runtimeLang: DW_LANG_C_plus_plus)
!33 = !{  }
!34 = !DICompositeType(tag: DW_TAG_structure_type, file: !3, scope: !30, name: "_Select1st", line: 1, size: 8, align: 8, elements: !33, runtimeLang: DW_LANG_C_plus_plus)
!35 = !{ !38 }
!36 = !DICompositeType(tag: DW_TAG_structure_type, file: !3, scope: !30, name: "_Hash_node_base", line: 1, size: 64, align: 64, elements: !35, runtimeLang: DW_LANG_C_plus_plus)
!37 = !DIDerivedType(tag: DW_TAG_pointer_type, size: 64, align: 64, baseType: !36)
!38 = !DIDerivedType(tag: DW_TAG_member, file: !3, scope: !36, name: "_M_nxt", line: 1, size: 64, align: 64, baseType: !37)
!39 = !{  }
!40 = !DICompositeType(tag: DW_TAG_structure_type, file: !3, scope: !30, name: "_Mod_range_hashing", line: 1, size: 8, align: 8, elements: !39, runtimeLang: DW_LANG_C_plus_plus)
!41 = !DIBasicType(tag: DW_TAG_base_type, name: "unsigned long", size: 64, align: 64, encoding: DW_ATE_unsigned)
!42 = !DIDerivedType(tag: DW_TAG_typedef, file: !3, scope: !40, name: "first_argument_type", line: 1, size: 64, align: 64, baseType: !41)
!43 = !DIDerivedType(tag: DW_TAG_typedef, file: !3, scope: !40, name: "second_argument_type", line: 1, size: 64, align: 64, baseType: !41)
!44 = !DIDerivedType(tag: DW_TAG_typedef, file: !3, scope: !40, name: "result_type", line: 1, size: 64, align: 64, baseType: !41)
!45 = !{  }
!46 = !DICompositeType(tag: DW_TAG_structure_type, file: !3, scope: !30, name: "_Default_ranged_hash", line: 1, size: 8, align: 8, elements: !45, runtimeLang: DW_LANG_C_plus_plus)
!47 = !{ !59, !60 }
!48 = !DICompositeType(tag: DW_TAG_structure_type, file: !3, scope: !30, name: "_Prime_rehash_policy", line: 1, size: 128, align: 64, elements: !47, runtimeLang: DW_LANG_C_plus_plus)
!49 = !{ !55 }
!50 = !DICompositeType(tag: DW_TAG_structure_type, file: !3, name: "_ZSt17integral_constantIbLb1EE", size: 8, align: 8, elements: !49)
!51 = !DISubrange(count: 0)
!52 = !DIBasicType(tag: DW_TAG_base_type, name: "signed char", size: 8, align: 8, encoding: DW_ATE_signed_char)
!53 = !{ !51 }
!54 = !DICompositeType(tag: DW_TAG_array_type, size: 8, align: 8, baseType: !52, elements: !53)
!55 = !DIDerivedType(tag: DW_TAG_member, file: !3, scope: !50, size: 8, align: 8, baseType: !54)
!56 = !DIDerivedType(tag: DW_TAG_typedef, file: !3, scope: !48, name: "__has_load_factor", line: 1, size: 8, align: 8, baseType: !50)
!57 = !DIDerivedType(tag: DW_TAG_typedef, file: !3, scope: !48, name: "_State", line: 1, size: 64, align: 64, baseType: !41)
!58 = !DIBasicType(tag: DW_TAG_base_type, name: "float", size: 32, align: 32, encoding: DW_ATE_float)
!59 = !DIDerivedType(tag: DW_TAG_member, file: !3, scope: !48, name: "_M_max_load_factor", line: 1, size: 32, align: 32, baseType: !58)
!60 = !DIDerivedType(tag: DW_TAG_member, file: !3, scope: !48, name: "_M_next_resize", line: 1, size: 64, align: 64, offset: 64, baseType: !41)
!61 = !{  }
!62 = !DICompositeType(tag: DW_TAG_structure_type, file: !3, scope: !30, name: "_Mask_range_hashing", line: 1, size: 8, align: 8, elements: !61, runtimeLang: DW_LANG_C_plus_plus)
!63 = !DIDerivedType(tag: DW_TAG_typedef, file: !3, scope: !62, name: "first_argument_type", line: 1, size: 64, align: 64, baseType: !41)
!64 = !DIDerivedType(tag: DW_TAG_typedef, file: !3, scope: !62, name: "second_argument_type", line: 1, size: 64, align: 64, baseType: !41)
!65 = !DIDerivedType(tag: DW_TAG_typedef, file: !3, scope: !62, name: "result_type", line: 1, size: 64, align: 64, baseType: !41)
!66 = !{ !70, !71 }
!67 = !DICompositeType(tag: DW_TAG_structure_type, file: !3, scope: !30, name: "_Power2_rehash_policy", line: 1, size: 128, align: 64, elements: !66, runtimeLang: DW_LANG_C_plus_plus)
!68 = !DIDerivedType(tag: DW_TAG_typedef, file: !3, scope: !67, name: "__has_load_factor", line: 1, size: 8, align: 8, baseType: !50)
!69 = !DIDerivedType(tag: DW_TAG_typedef, file: !3, scope: !67, name: "_State", line: 1, size: 64, align: 64, baseType: !41)
!70 = !DIDerivedType(tag: DW_TAG_member, file: !3, scope: !67, name: "_M_max_load_factor", line: 1, size: 32, align: 32, baseType: !58)
!71 = !DIDerivedType(tag: DW_TAG_member, file: !3, scope: !67, name: "_M_next_resize", line: 1, size: 64, align: 64, offset: 64, baseType: !41)
!72 = !{  }
!73 = !DICompositeType(tag: DW_TAG_structure_type, file: !3, scope: !30, name: "_Equality_base", line: 1, size: 8, align: 8, elements: !72, runtimeLang: DW_LANG_C_plus_plus)
!74 = !{  }
!75 = !DICompositeType(tag: DW_TAG_structure_type, file: !3, scope: !30, name: "_Hashtable_traits", line: 1, size: 8, align: 8, elements: !74, runtimeLang: DW_LANG_C_plus_plus)
!76 = !{ !78 }
!77 = !DICompositeType(tag: DW_TAG_structure_type, file: !3, name: "_ZSt17integral_constantIbLb0EE", size: 8, align: 8, elements: !76)
!78 = !DIDerivedType(tag: DW_TAG_member, file: !3, scope: !77, size: 8, align: 8, baseType: !54)
!79 = !DIDerivedType(tag: DW_TAG_typedef, file: !3, scope: !75, name: "__hash_cached", line: 1, size: 8, align: 8, baseType: !77)
!80 = !DIDerivedType(tag: DW_TAG_typedef, file: !3, scope: !75, name: "__constant_iterators", line: 1, size: 8, align: 8, baseType: !77)
!81 = !DIDerivedType(tag: DW_TAG_typedef, file: !3, scope: !75, name: "__unique_keys", line: 1, size: 8, align: 8, baseType: !50)
!82 = !{ !84 }
!83 = !DICompositeType(tag: DW_TAG_structure_type, file: !3, scope: !30, name: "_Hashtable_ebo_helper", line: 1, size: 8, align: 8, elements: !82, runtimeLang: DW_LANG_C_plus_plus)
!84 = !DIDerivedType(tag: DW_TAG_inheritance, file: !3, scope: !83, name: "_Select1st", line: 1, size: 8, align: 8, baseType: !34)
!85 = !{ !89 }
!86 = !DICompositeType(tag: DW_TAG_structure_type, file: !3, scope: !30, name: "_Hashtable_ebo_helper", line: 1, size: 8, align: 8, elements: !85, runtimeLang: DW_LANG_C_plus_plus)
!87 = !{  }
!88 = !DICompositeType(tag: DW_TAG_structure_type, file: !3, scope: !86, name: "hash", line: 1, size: 8, align: 8, elements: !87, runtimeLang: DW_LANG_C_plus_plus)
!89 = !DIDerivedType(tag: DW_TAG_inheritance, file: !3, scope: !86, name: "hash", line: 1, size: 8, align: 8, baseType: !88)
!90 = !{ !92 }
!91 = !DICompositeType(tag: DW_TAG_structure_type, file: !3, scope: !30, name: "_Hashtable_ebo_helper", line: 1, size: 8, align: 8, elements: !90, runtimeLang: DW_LANG_C_plus_plus)
!92 = !DIDerivedType(tag: DW_TAG_inheritance, file: !3, scope: !91, name: "_Mod_range_hashing", line: 1, size: 8, align: 8, baseType: !40)
!93 = !{ !125, !126, !127 }
!94 = !DICompositeType(tag: DW_TAG_structure_type, file: !3, scope: !30, name: "_Hash_code_base", line: 1, size: 8, align: 8, elements: !93, runtimeLang: DW_LANG_C_plus_plus)
!95 = !DIDerivedType(tag: DW_TAG_typedef, file: !3, scope: !94, name: "__ebo_extract_key", line: 1, size: 8, align: 8, baseType: !83)
!96 = !DIDerivedType(tag: DW_TAG_typedef, file: !3, scope: !94, name: "__ebo_h1", line: 1, size: 8, align: 8, baseType: !86)
!97 = !DIDerivedType(tag: DW_TAG_typedef, file: !3, scope: !94, name: "__ebo_h2", line: 1, size: 8, align: 8, baseType: !91)
!98 = !DIDerivedType(tag: DW_TAG_typedef, file: !3, scope: !94, name: "hasher", line: 1, size: 8, align: 8, baseType: !88)
!99 = !DIDerivedType(tag: DW_TAG_typedef, file: !3, scope: !94, name: "__hash_code", line: 1, size: 64, align: 64, baseType: !41)
!100 = !{ !123 }
!101 = !DICompositeType(tag: DW_TAG_structure_type, file: !3, name: "_ZNSt8__detail10_Hash_nodeISt4pairIKjjELb0EEE", size: 128, align: 64, elements: !100)
!102 = !{ !104, !122 }
!103 = !DICompositeType(tag: DW_TAG_structure_type, file: !3, name: "_ZNSt8__detail21_Hash_node_value_baseISt4pairIKjjEEE", size: 128, align: 64, elements: !102)
!104 = !DIDerivedType(tag: DW_TAG_member, file: !3, scope: !103, name: "__b_NSt8__detail15_Hash_node_baseE", size: 64, align: 64, baseType: !36)
!105 = !{ !121 }
!106 = !DICompositeType(tag: DW_TAG_structure_type, file: !3, name: "_ZN9__gnu_cxx16__aligned_bufferISt4pairIKjjEEE", size: 64, align: 32, elements: !105)
!107 = !{ !113, !120 }
!108 = !DICompositeType(tag: DW_TAG_union_type, file: !3, name: "_ZNSt15aligned_storageILm8ELm4EE4typeE", size: 64, align: 32, elements: !107)
!109 = !DISubrange(count: 8)
!110 = !DIBasicType(tag: DW_TAG_base_type, name: "unsigned char", size: 8, align: 8, encoding: DW_ATE_unsigned_char)
!111 = !{ !109 }
!112 = !DICompositeType(tag: DW_TAG_array_type, size: 64, align: 8, baseType: !110, elements: !111)
!113 = !DIDerivedType(tag: DW_TAG_member, file: !3, scope: !108, name: "__data", size: 64, align: 8, baseType: !112)
!114 = !{ !119 }
!115 = !DICompositeType(tag: DW_TAG_structure_type, file: !3, name: "_ZNSt15aligned_storageILm8ELm4EE4typeUt_E", size: 32, align: 32, elements: !114)
!116 = !DISubrange(count: 4)
!117 = !{ !116 }
!118 = !DICompositeType(tag: DW_TAG_array_type, size: 32, align: 8, baseType: !52, elements: !117)
!119 = !DIDerivedType(tag: DW_TAG_member, file: !3, scope: !115, size: 32, align: 8, baseType: !118)
!120 = !DIDerivedType(tag: DW_TAG_member, file: !3, scope: !108, name: "__align", size: 32, align: 32, baseType: !115)
!121 = !DIDerivedType(tag: DW_TAG_member, file: !3, scope: !106, name: "_M_storage", size: 64, align: 32, baseType: !108)
!122 = !DIDerivedType(tag: DW_TAG_member, file: !3, scope: !103, name: "_M_storage", size: 64, align: 32, offset: 64, baseType: !106)
!123 = !DIDerivedType(tag: DW_TAG_member, file: !3, scope: !101, name: "__b_NSt8__detail21_Hash_node_value_baseISt4pairIKjjEEE", size: 128, align: 64, baseType: !103)
!124 = !DIDerivedType(tag: DW_TAG_typedef, file: !3, scope: !94, name: "__node_type", line: 1, size: 128, align: 64, baseType: !101)
!125 = !DIDerivedType(tag: DW_TAG_inheritance, file: !3, scope: !94, name: "_Hashtable_ebo_helper", line: 1, size: 8, align: 8, baseType: !83)
!126 = !DIDerivedType(tag: DW_TAG_inheritance, file: !3, scope: !94, name: "_Hashtable_ebo_helper", line: 1, size: 8, align: 8, baseType: !86)
!127 = !DIDerivedType(tag: DW_TAG_inheritance, file: !3, scope: !94, name: "_Hashtable_ebo_helper", line: 1, size: 8, align: 8, baseType: !91)
!128 = !{ !132 }
!129 = !DICompositeType(tag: DW_TAG_structure_type, file: !3, scope: !30, name: "_Hashtable_ebo_helper", line: 1, size: 8, align: 8, elements: !128, runtimeLang: DW_LANG_C_plus_plus)
!130 = !{  }
!131 = !DICompositeType(tag: DW_TAG_structure_type, file: !3, scope: !129, name: "equal_to", line: 1, size: 8, align: 8, elements: !130, runtimeLang: DW_LANG_C_plus_plus)
!132 = !DIDerivedType(tag: DW_TAG_inheritance, file: !3, scope: !129, name: "equal_to", line: 1, size: 8, align: 8, baseType: !131)
!133 = !{ !181, !182 }
!134 = !DICompositeType(tag: DW_TAG_structure_type, file: !3, scope: !30, name: "_Hashtable_base", line: 1, size: 8, align: 8, elements: !133, runtimeLang: DW_LANG_C_plus_plus)
!135 = !DIBasicType(tag: DW_TAG_base_type, name: "unsigned", size: 32, align: 32, encoding: DW_ATE_unsigned)
!136 = !DIDerivedType(tag: DW_TAG_typedef, file: !3, scope: !134, name: "key_type", line: 1, size: 32, align: 32, baseType: !135)
!137 = !{ !139, !140 }
!138 = !DICompositeType(tag: DW_TAG_structure_type, file: !3, name: "_ZSt4pairIKjjE", size: 64, align: 32, elements: !137)
!139 = !DIDerivedType(tag: DW_TAG_member, file: !3, scope: !138, name: "first", size: 32, align: 32, baseType: !135)
!140 = !DIDerivedType(tag: DW_TAG_member, file: !3, scope: !138, name: "second", size: 32, align: 32, offset: 32, baseType: !135)
!141 = !DIDerivedType(tag: DW_TAG_typedef, file: !3, scope: !134, name: "value_type", line: 1, size: 64, align: 32, baseType: !138)
!142 = !DIDerivedType(tag: DW_TAG_typedef, file: !3, scope: !134, name: "key_equal", line: 1, size: 8, align: 8, baseType: !131)
!143 = !DIDerivedType(tag: DW_TAG_typedef, file: !3, scope: !134, name: "size_type", line: 1, size: 64, align: 64, baseType: !41)
!144 = !DIBasicType(tag: DW_TAG_base_type, name: "long", size: 64, align: 64, encoding: DW_ATE_signed)
!145 = !DIDerivedType(tag: DW_TAG_typedef, file: !3, scope: !134, name: "difference_type", line: 1, size: 64, align: 64, baseType: !144)
!146 = !DIDerivedType(tag: DW_TAG_typedef, file: !3, scope: !134, name: "__traits_type", line: 1, size: 8, align: 8, baseType: !75)
!147 = !DIDerivedType(tag: DW_TAG_typedef, file: !3, scope: !134, name: "__hash_cached", line: 1, size: 8, align: 8, baseType: !77)
!148 = !DIDerivedType(tag: DW_TAG_typedef, file: !3, scope: !134, name: "__constant_iterators", line: 1, size: 8, align: 8, baseType: !77)
!149 = !DIDerivedType(tag: DW_TAG_typedef, file: !3, scope: !134, name: "__unique_keys", line: 1, size: 8, align: 8, baseType: !50)
!150 = !DIDerivedType(tag: DW_TAG_typedef, file: !3, scope: !134, name: "__hash_code_base", line: 1, size: 8, align: 8, baseType: !94)
!151 = !DIDerivedType(tag: DW_TAG_typedef, file: !3, scope: !134, name: "__hash_code", line: 1, size: 64, align: 64, baseType: !41)
!152 = !DIDerivedType(tag: DW_TAG_typedef, file: !3, scope: !134, name: "__node_type", line: 1, size: 128, align: 64, baseType: !101)
!153 = !{ !159 }
!154 = !DICompositeType(tag: DW_TAG_structure_type, file: !3, name: "_ZNSt8__detail14_Node_iteratorISt4pairIKjjELb0ELb0EEE", size: 64, align: 64, elements: !153)
!155 = !{ !158 }
!156 = !DICompositeType(tag: DW_TAG_structure_type, file: !3, name: "_ZNSt8__detail19_Node_iterator_baseISt4pairIKjjELb0EEE", size: 64, align: 64, elements: !155)
!157 = !DIDerivedType(tag: DW_TAG_pointer_type, size: 64, align: 64, baseType: !101)
!158 = !DIDerivedType(tag: DW_TAG_member, file: !3, scope: !156, name: "_M_cur", size: 64, align: 64, baseType: !157)
!159 = !DIDerivedType(tag: DW_TAG_member, file: !3, scope: !154, name: "__b_NSt8__detail19_Node_iterator_baseISt4pairIKjjELb0EEE", size: 64, align: 64, baseType: !156)
!160 = !DIDerivedType(tag: DW_TAG_typedef, file: !3, scope: !134, name: "iterator", line: 1, size: 64, align: 64, baseType: !154)
!161 = !{ !163 }
!162 = !DICompositeType(tag: DW_TAG_structure_type, file: !3, name: "_ZNSt8__detail20_Node_const_iteratorISt4pairIKjjELb0ELb0EEE", size: 64, align: 64, elements: !161)
!163 = !DIDerivedType(tag: DW_TAG_member, file: !3, scope: !162, name: "__b_NSt8__detail19_Node_iterator_baseISt4pairIKjjELb0EEE", size: 64, align: 64, baseType: !156)
!164 = !DIDerivedType(tag: DW_TAG_typedef, file: !3, scope: !134, name: "const_iterator", line: 1, size: 64, align: 64, baseType: !162)
!165 = !{  }
!166 = !DICompositeType(tag: DW_TAG_structure_type, file: !3, name: "_ZNSt8__detail15_Local_iteratorIjSt4pairIKjjENS_10_Select1stESt4hashIjENS_18_Mod_range_hashingENS_20_Default_ranged_hashELb0ELb0EEE", align: 8, elements: !165)
!167 = !DIDerivedType(tag: DW_TAG_typedef, file: !3, scope: !134, name: "local_iterator", line: 1, align: 8, baseType: !166)
!168 = !{  }
!169 = !DICompositeType(tag: DW_TAG_structure_type, file: !3, name: "_ZNSt8__detail21_Local_const_iteratorIjSt4pairIKjjENS_10_Select1stESt4hashIjENS_18_Mod_range_hashingENS_20_Default_ranged_hashELb0ELb0EEE", align: 8, elements: !168)
!170 = !DIDerivedType(tag: DW_TAG_typedef, file: !3, scope: !134, name: "const_local_iterator", line: 1, align: 8, baseType: !169)
!171 = !{ !173, !174 }
!172 = !DICompositeType(tag: DW_TAG_structure_type, file: !3, name: "_ZSt4pairINSt8__detail14_Node_iteratorIS_IKjjELb0ELb0EEEbE", size: 128, align: 64, elements: !171)
!173 = !DIDerivedType(tag: DW_TAG_member, file: !3, scope: !172, name: "first", size: 64, align: 64, baseType: !154)
!174 = !DIDerivedType(tag: DW_TAG_member, file: !3, scope: !172, name: "second", size: 8, align: 8, offset: 64, baseType: !52)
!175 = !DIDerivedType(tag: DW_TAG_typedef, file: !3, scope: !134, name: "__ireturn_type", line: 1, size: 128, align: 64, baseType: !172)
!176 = !DIDerivedType(tag: DW_TAG_typedef, file: !3, scope: !134, name: "_EqualEBO", line: 1, size: 8, align: 8, baseType: !129)
!177 = !{ !179 }
!178 = !DICompositeType(tag: DW_TAG_structure_type, file: !3, name: "_ZNSt8__detail13_Equal_helperIjSt4pairIKjjENS_10_Select1stESt8equal_toIjEmLb0EEE", size: 8, align: 8, elements: !177)
!179 = !DIDerivedType(tag: DW_TAG_member, file: !3, scope: !178, size: 8, align: 8, baseType: !54)
!180 = !DIDerivedType(tag: DW_TAG_typedef, file: !3, scope: !134, name: "_EqualHelper", line: 1, size: 8, align: 8, baseType: !178)
!181 = !DIDerivedType(tag: DW_TAG_inheritance, file: !3, scope: !134, name: "_Hash_code_base", line: 1, size: 8, align: 8, baseType: !94)
!182 = !DIDerivedType(tag: DW_TAG_inheritance, file: !3, scope: !134, name: "_Hashtable_ebo_helper", line: 1, size: 8, align: 8, baseType: !129)
!183 = !{  }
!184 = !DICompositeType(tag: DW_TAG_structure_type, file: !3, scope: !30, name: "_Map_base", line: 1, size: 8, align: 8, elements: !183, runtimeLang: DW_LANG_C_plus_plus)
!185 = !DIDerivedType(tag: DW_TAG_typedef, file: !3, scope: !184, name: "__hashtable_base", line: 1, size: 8, align: 8, baseType: !134)
!186 = !{ !189, !190, !191, !192, !193, !194 }
!187 = !DICompositeType(tag: DW_TAG_structure_type, file: !3, name: "_ZSt10_HashtableIjSt4pairIKjjESaIS2_ENSt8__detail10_Select1stESt8equal_toIjESt4hashIjENS4_18_Mod_range_hashingENS4_20_Default_ranged_hashENS4_20_Prime_rehash_policyENS4_17_Hashtable_traitsILb0ELb0ELb1EEEE", size: 448, align: 64, elements: !186)
!188 = !DIDerivedType(tag: DW_TAG_pointer_type, size: 64, align: 64, baseType: !37)
!189 = !DIDerivedType(tag: DW_TAG_member, file: !3, scope: !187, name: "_M_buckets", size: 64, align: 64, baseType: !188)
!190 = !DIDerivedType(tag: DW_TAG_member, file: !3, scope: !187, name: "_M_bucket_count", size: 64, align: 64, offset: 64, baseType: !41)
!191 = !DIDerivedType(tag: DW_TAG_member, file: !3, scope: !187, name: "_M_before_begin", size: 64, align: 64, offset: 128, baseType: !36)
!192 = !DIDerivedType(tag: DW_TAG_member, file: !3, scope: !187, name: "_M_element_count", size: 64, align: 64, offset: 192, baseType: !41)
!193 = !DIDerivedType(tag: DW_TAG_member, file: !3, scope: !187, name: "_M_rehash_policy", size: 128, align: 64, offset: 256, baseType: !48)
!194 = !DIDerivedType(tag: DW_TAG_member, file: !3, scope: !187, name: "_M_single_bucket", size: 64, align: 64, offset: 384, baseType: !37)
!195 = !DIDerivedType(tag: DW_TAG_typedef, file: !3, scope: !184, name: "__hashtable", line: 1, size: 448, align: 64, baseType: !187)
!196 = !DIDerivedType(tag: DW_TAG_typedef, file: !3, scope: !184, name: "__hash_code", line: 1, size: 64, align: 64, baseType: !41)
!197 = !DIDerivedType(tag: DW_TAG_typedef, file: !3, scope: !184, name: "__node_type", line: 1, size: 128, align: 64, baseType: !101)
!198 = !DIDerivedType(tag: DW_TAG_typedef, file: !3, scope: !184, name: "key_type", line: 1, size: 32, align: 32, baseType: !135)
!199 = !DIDerivedType(tag: DW_TAG_typedef, file: !3, scope: !184, name: "iterator", line: 1, size: 64, align: 64, baseType: !154)
!200 = !DIDerivedType(tag: DW_TAG_typedef, file: !3, scope: !184, name: "mapped_type", line: 1, size: 32, align: 32, baseType: !135)
!201 = !{  }
!202 = !DICompositeType(tag: DW_TAG_structure_type, file: !3, scope: !30, name: "_Insert_base", line: 1, size: 8, align: 8, elements: !201, runtimeLang: DW_LANG_C_plus_plus)
!203 = !DIDerivedType(tag: DW_TAG_typedef, file: !3, scope: !202, name: "__hashtable", line: 1, size: 448, align: 64, baseType: !187)
!204 = !DIDerivedType(tag: DW_TAG_typedef, file: !3, scope: !202, name: "__hashtable_base", line: 1, size: 8, align: 8, baseType: !134)
!205 = !DIDerivedType(tag: DW_TAG_typedef, file: !3, scope: !202, name: "value_type", line: 1, size: 64, align: 32, baseType: !138)
!206 = !DIDerivedType(tag: DW_TAG_typedef, file: !3, scope: !202, name: "iterator", line: 1, size: 64, align: 64, baseType: !154)
!207 = !DIDerivedType(tag: DW_TAG_typedef, file: !3, scope: !202, name: "const_iterator", line: 1, size: 64, align: 64, baseType: !162)
!208 = !DIDerivedType(tag: DW_TAG_typedef, file: !3, scope: !202, name: "size_type", line: 1, size: 64, align: 64, baseType: !41)
!209 = !DIDerivedType(tag: DW_TAG_typedef, file: !3, scope: !202, name: "__unique_keys", line: 1, size: 8, align: 8, baseType: !50)
!210 = !DIDerivedType(tag: DW_TAG_typedef, file: !3, scope: !202, name: "__ireturn_type", line: 1, size: 128, align: 64, baseType: !172)
!211 = !DIDerivedType(tag: DW_TAG_typedef, file: !3, scope: !202, name: "__node_type", line: 1, size: 128, align: 64, baseType: !101)
!212 = !{ !214 }
!213 = !DICompositeType(tag: DW_TAG_structure_type, file: !3, name: "_ZSaINSt8__detail10_Hash_nodeISt4pairIKjjELb0EEEE", size: 8, align: 8, elements: !212)
!214 = !DIDerivedType(tag: DW_TAG_member, file: !3, scope: !213, size: 8, align: 8, baseType: !54)
!215 = !DIDerivedType(tag: DW_TAG_typedef, file: !3, scope: !202, name: "__node_alloc_type", line: 1, size: 8, align: 8, baseType: !213)
!216 = !{ !218 }
!217 = !DICompositeType(tag: DW_TAG_structure_type, file: !3, scope: !30, name: "_Hashtable_ebo_helper", line: 1, size: 8, align: 8, elements: !216, runtimeLang: DW_LANG_C_plus_plus)
!218 = !DIDerivedType(tag: DW_TAG_inheritance, file: !3, scope: !217, name: "allocator", line: 1, size: 8, align: 8, baseType: !213)
!219 = !{ !242 }
!220 = !DICompositeType(tag: DW_TAG_structure_type, file: !3, scope: !30, name: "_Hashtable_alloc", line: 1, size: 8, align: 8, elements: !219, runtimeLang: DW_LANG_C_plus_plus)
!221 = !DIDerivedType(tag: DW_TAG_typedef, file: !3, scope: !220, name: "__ebo_node_alloc", line: 1, size: 8, align: 8, baseType: !217)
!222 = !DIDerivedType(tag: DW_TAG_typedef, file: !3, scope: !220, name: "__node_type", line: 1, size: 128, align: 64, baseType: !101)
!223 = !DIDerivedType(tag: DW_TAG_typedef, file: !3, scope: !220, name: "__node_alloc_type", line: 1, size: 8, align: 8, baseType: !213)
!224 = !{ !226 }
!225 = !DICompositeType(tag: DW_TAG_structure_type, file: !3, name: "_ZN9__gnu_cxx14__alloc_traitsISaINSt8__detail10_Hash_nodeISt4pairIKjjELb0EEEES6_EE", size: 8, align: 8, elements: !224)
!226 = !DIDerivedType(tag: DW_TAG_member, file: !3, scope: !225, size: 8, align: 8, baseType: !54)
!227 = !DIDerivedType(tag: DW_TAG_typedef, file: !3, scope: !220, name: "__node_alloc_traits", line: 1, size: 8, align: 8, baseType: !225)
!228 = !{ !230 }
!229 = !DICompositeType(tag: DW_TAG_structure_type, file: !3, name: "_ZSt16allocator_traitsISaISt4pairIKjjEEE", size: 8, align: 8, elements: !228)
!230 = !DIDerivedType(tag: DW_TAG_member, file: !3, scope: !229, size: 8, align: 8, baseType: !54)
!231 = !DIDerivedType(tag: DW_TAG_typedef, file: !3, scope: !220, name: "__value_alloc_traits", line: 1, size: 8, align: 8, baseType: !229)
!232 = !DIDerivedType(tag: DW_TAG_typedef, file: !3, scope: !220, name: "__node_base", line: 1, size: 64, align: 64, baseType: !36)
!233 = !DIDerivedType(tag: DW_TAG_typedef, file: !3, scope: !220, name: "__bucket_type", line: 1, size: 64, align: 64, baseType: !37)
!234 = !{ !236 }
!235 = !DICompositeType(tag: DW_TAG_structure_type, file: !3, name: "_ZSaIPNSt8__detail15_Hash_node_baseEE", size: 8, align: 8, elements: !234)
!236 = !DIDerivedType(tag: DW_TAG_member, file: !3, scope: !235, size: 8, align: 8, baseType: !54)
!237 = !DIDerivedType(tag: DW_TAG_typedef, file: !3, scope: !220, name: "__bucket_alloc_type", line: 1, size: 8, align: 8, baseType: !235)
!238 = !{ !240 }
!239 = !DICompositeType(tag: DW_TAG_structure_type, file: !3, name: "_ZSt16allocator_traitsISaIPNSt8__detail15_Hash_node_baseEEE", size: 8, align: 8, elements: !238)
!240 = !DIDerivedType(tag: DW_TAG_member, file: !3, scope: !239, size: 8, align: 8, baseType: !54)
!241 = !DIDerivedType(tag: DW_TAG_typedef, file: !3, scope: !220, name: "__bucket_alloc_traits", line: 1, size: 8, align: 8, baseType: !239)
!242 = !DIDerivedType(tag: DW_TAG_inheritance, file: !3, scope: !220, name: "_Hashtable_ebo_helper", line: 1, size: 8, align: 8, baseType: !217)
!243 = !DIDerivedType(tag: DW_TAG_typedef, file: !3, scope: !11, name: "size_t", line: 1, size: 64, align: 64, baseType: !41)
!244 = !DIDerivedType(tag: DW_TAG_typedef, file: !3, scope: !11, name: "ptrdiff_t", line: 1, size: 64, align: 64, baseType: !144)
!245 = !DIDerivedType(tag: DW_TAG_typedef, file: !3, scope: !11, name: "nullptr_t", line: 1, size: 64, align: 64, baseType: !28)
!246 = !{  }
!247 = !DICompositeType(tag: DW_TAG_structure_type, file: !3, scope: !11, name: "__true_type", line: 1, size: 8, align: 8, elements: !246, runtimeLang: DW_LANG_C_plus_plus)
!248 = !{  }
!249 = !DICompositeType(tag: DW_TAG_structure_type, file: !3, scope: !11, name: "__false_type", line: 1, size: 8, align: 8, elements: !248, runtimeLang: DW_LANG_C_plus_plus)
!250 = !DIDerivedType(tag: DW_TAG_typedef, file: !3, scope: !11, name: "true_type", line: 1, size: 8, align: 8, baseType: !50)
!251 = !DIDerivedType(tag: DW_TAG_typedef, file: !3, scope: !11, name: "false_type", line: 1, size: 8, align: 8, baseType: !77)
!252 = !{  }
!253 = !DICompositeType(tag: DW_TAG_structure_type, file: !3, scope: !11, name: "__failure_type", line: 1, size: 8, align: 8, elements: !252, runtimeLang: DW_LANG_C_plus_plus)
!254 = !{  }
!255 = !DICompositeType(tag: DW_TAG_structure_type, file: !3, scope: !11, name: "__do_is_destructible_impl", line: 1, size: 8, align: 8, elements: !254, runtimeLang: DW_LANG_C_plus_plus)
!256 = !{  }
!257 = !DICompositeType(tag: DW_TAG_structure_type, file: !3, scope: !11, name: "__do_is_nt_destructible_impl", line: 1, size: 8, align: 8, elements: !256, runtimeLang: DW_LANG_C_plus_plus)
!258 = !{  }
!259 = !DICompositeType(tag: DW_TAG_structure_type, file: !3, scope: !11, name: "__do_is_implicitly_default_constructible_impl", line: 1, size: 8, align: 8, elements: !258, runtimeLang: DW_LANG_C_plus_plus)
!260 = !{  }
!261 = !DICompositeType(tag: DW_TAG_class_type, file: !3, scope: !11, name: "__make_unsigned_selector_base", line: 1, size: 8, align: 8, elements: !260, runtimeLang: DW_LANG_C_plus_plus)
!262 = !{  }
!263 = !DICompositeType(tag: DW_TAG_structure_type, file: !3, scope: !11, name: "__do_common_type_impl", line: 1, size: 8, align: 8, elements: !262, runtimeLang: DW_LANG_C_plus_plus)
!264 = !{  }
!265 = !DICompositeType(tag: DW_TAG_structure_type, file: !3, scope: !11, name: "__do_member_type_wrapper", line: 1, size: 8, align: 8, elements: !264, runtimeLang: DW_LANG_C_plus_plus)
!266 = !{  }
!267 = !DICompositeType(tag: DW_TAG_structure_type, file: !3, scope: !11, name: "__invoke_memfun_ref", line: 1, size: 8, align: 8, elements: !266, runtimeLang: DW_LANG_C_plus_plus)
!268 = !{  }
!269 = !DICompositeType(tag: DW_TAG_structure_type, file: !3, scope: !11, name: "__invoke_memfun_deref", line: 1, size: 8, align: 8, elements: !268, runtimeLang: DW_LANG_C_plus_plus)
!270 = !{  }
!271 = !DICompositeType(tag: DW_TAG_structure_type, file: !3, scope: !11, name: "__invoke_memobj_ref", line: 1, size: 8, align: 8, elements: !270, runtimeLang: DW_LANG_C_plus_plus)
!272 = !{  }
!273 = !DICompositeType(tag: DW_TAG_structure_type, file: !3, scope: !11, name: "__invoke_memobj_deref", line: 1, size: 8, align: 8, elements: !272, runtimeLang: DW_LANG_C_plus_plus)
!274 = !{  }
!275 = !DICompositeType(tag: DW_TAG_structure_type, file: !3, scope: !11, name: "__invoke_other", line: 1, size: 8, align: 8, elements: !274, runtimeLang: DW_LANG_C_plus_plus)
!276 = !{  }
!277 = !DICompositeType(tag: DW_TAG_structure_type, file: !3, scope: !11, name: "__result_of_memfun_ref_impl", line: 1, size: 8, align: 8, elements: !276, runtimeLang: DW_LANG_C_plus_plus)
!278 = !{  }
!279 = !DICompositeType(tag: DW_TAG_structure_type, file: !3, scope: !11, name: "__result_of_memfun_deref_impl", line: 1, size: 8, align: 8, elements: !278, runtimeLang: DW_LANG_C_plus_plus)
!280 = !{  }
!281 = !DICompositeType(tag: DW_TAG_structure_type, file: !3, scope: !11, name: "__result_of_memobj_ref_impl", line: 1, size: 8, align: 8, elements: !280, runtimeLang: DW_LANG_C_plus_plus)
!282 = !{  }
!283 = !DICompositeType(tag: DW_TAG_structure_type, file: !3, scope: !11, name: "__result_of_memobj_deref_impl", line: 1, size: 8, align: 8, elements: !282, runtimeLang: DW_LANG_C_plus_plus)
!284 = !{  }
!285 = !DICompositeType(tag: DW_TAG_structure_type, file: !3, scope: !11, name: "__result_of_other_impl", line: 1, size: 8, align: 8, elements: !284, runtimeLang: DW_LANG_C_plus_plus)
!286 = !{  }
!287 = !DICompositeType(tag: DW_TAG_structure_type, file: !3, scope: !11, name: "__nonesuch", line: 1, size: 8, align: 8, elements: !286, runtimeLang: DW_LANG_C_plus_plus)
!288 = !{  }
!289 = !DICompositeType(tag: DW_TAG_structure_type, file: !3, scope: !11, name: "piecewise_construct_t", line: 1, size: 8, align: 8, elements: !288, runtimeLang: DW_LANG_C_plus_plus)
!290 = !{ !292 }
!291 = !DICompositeType(tag: DW_TAG_structure_type, file: !3, scope: !11, name: "__nonesuch_no_braces", line: 1, size: 8, align: 8, elements: !290, runtimeLang: DW_LANG_C_plus_plus)
!292 = !DIDerivedType(tag: DW_TAG_inheritance, file: !3, scope: !291, name: "__nonesuch", line: 1, size: 8, align: 8, baseType: !287)
!293 = !{  }
!294 = !DICompositeType(tag: DW_TAG_structure_type, file: !3, scope: !11, name: "input_iterator_tag", line: 1, size: 8, align: 8, elements: !293, runtimeLang: DW_LANG_C_plus_plus)
!295 = !{  }
!296 = !DICompositeType(tag: DW_TAG_structure_type, file: !3, scope: !11, name: "output_iterator_tag", line: 1, size: 8, align: 8, elements: !295, runtimeLang: DW_LANG_C_plus_plus)
!297 = !{ !299 }
!298 = !DICompositeType(tag: DW_TAG_structure_type, file: !3, scope: !11, name: "forward_iterator_tag", line: 1, size: 8, align: 8, elements: !297, runtimeLang: DW_LANG_C_plus_plus)
!299 = !DIDerivedType(tag: DW_TAG_inheritance, file: !3, scope: !298, name: "input_iterator_tag", line: 1, size: 8, align: 8, baseType: !294)
!300 = !{ !302 }
!301 = !DICompositeType(tag: DW_TAG_structure_type, file: !3, scope: !11, name: "bidirectional_iterator_tag", line: 1, size: 8, align: 8, elements: !300, runtimeLang: DW_LANG_C_plus_plus)
!302 = !DIDerivedType(tag: DW_TAG_inheritance, file: !3, scope: !301, name: "forward_iterator_tag", line: 1, size: 8, align: 8, baseType: !298)
!303 = !{ !305 }
!304 = !DICompositeType(tag: DW_TAG_structure_type, file: !3, scope: !11, name: "random_access_iterator_tag", line: 1, size: 8, align: 8, elements: !303, runtimeLang: DW_LANG_C_plus_plus)
!305 = !DIDerivedType(tag: DW_TAG_inheritance, file: !3, scope: !304, name: "bidirectional_iterator_tag", line: 1, size: 8, align: 8, baseType: !301)
!306 = !{  }
!307 = !DICompositeType(tag: DW_TAG_class_type, file: !3, scope: !11, name: "__undefined", line: 1, align: 8, elements: !306, runtimeLang: DW_LANG_C_plus_plus)
!308 = !{  }
!309 = !DICompositeType(tag: DW_TAG_class_type, file: !3, scope: !11, name: "exception", line: 1, size: 64, align: 64, elements: !308, runtimeLang: DW_LANG_C_plus_plus)
!310 = !{ !312 }
!311 = !DICompositeType(tag: DW_TAG_class_type, file: !3, scope: !11, name: "bad_exception", line: 1, size: 64, align: 64, elements: !310, runtimeLang: DW_LANG_C_plus_plus)
!312 = !DIDerivedType(tag: DW_TAG_inheritance, file: !3, scope: !311, name: "exception", line: 1, size: 64, align: 64, baseType: !309)
!313 = !{ null }
!314 = !DISubroutineType(types: !313)
!315 = !DIDerivedType(tag: DW_TAG_pointer_type, size: 64, align: 64, baseType: !314)
!316 = !DIDerivedType(tag: DW_TAG_typedef, file: !3, scope: !11, name: "terminate_handler", line: 1, size: 64, align: 64, baseType: !315)
!317 = !DIDerivedType(tag: DW_TAG_typedef, file: !3, scope: !11, name: "unexpected_handler", line: 1, size: 64, align: 64, baseType: !315)
!318 = !{ !321 }
!319 = !DICompositeType(tag: DW_TAG_class_type, file: !3, scope: !11, name: "type_info", line: 1, size: 128, align: 64, elements: !318, runtimeLang: DW_LANG_C_plus_plus)
!320 = !DIDerivedType(tag: DW_TAG_pointer_type, size: 64, align: 64, baseType: !52)
!321 = !DIDerivedType(tag: DW_TAG_member, file: !3, scope: !319, name: "__name", line: 1, size: 64, align: 64, offset: 64, baseType: !320)
!322 = !{ !324 }
!323 = !DICompositeType(tag: DW_TAG_class_type, file: !3, scope: !11, name: "bad_cast", line: 1, size: 64, align: 64, elements: !322, runtimeLang: DW_LANG_C_plus_plus)
!324 = !DIDerivedType(tag: DW_TAG_inheritance, file: !3, scope: !323, name: "exception", line: 1, size: 64, align: 64, baseType: !309)
!325 = !{ !327 }
!326 = !DICompositeType(tag: DW_TAG_class_type, file: !3, scope: !11, name: "bad_typeid", line: 1, size: 64, align: 64, elements: !325, runtimeLang: DW_LANG_C_plus_plus)
!327 = !DIDerivedType(tag: DW_TAG_inheritance, file: !3, scope: !326, name: "exception", line: 1, size: 64, align: 64, baseType: !309)
!328 = !{ !330 }
!329 = !DICompositeType(tag: DW_TAG_class_type, file: !3, scope: !11, name: "nested_exception", line: 1, size: 128, align: 64, elements: !328, runtimeLang: DW_LANG_C_plus_plus)
!330 = !DIDerivedType(tag: DW_TAG_member, file: !3, scope: !329, name: "_M_ptr", line: 1, size: 64, align: 64, offset: 64, baseType: !26)
!331 = !{ !333 }
!332 = !DICompositeType(tag: DW_TAG_class_type, file: !3, scope: !11, name: "bad_alloc", line: 1, size: 64, align: 64, elements: !331, runtimeLang: DW_LANG_C_plus_plus)
!333 = !DIDerivedType(tag: DW_TAG_inheritance, file: !3, scope: !332, name: "exception", line: 1, size: 64, align: 64, baseType: !309)
!334 = !{ !336 }
!335 = !DICompositeType(tag: DW_TAG_class_type, file: !3, scope: !11, name: "bad_array_new_length", line: 1, size: 64, align: 64, elements: !334, runtimeLang: DW_LANG_C_plus_plus)
!336 = !DIDerivedType(tag: DW_TAG_inheritance, file: !3, scope: !335, name: "bad_alloc", line: 1, size: 64, align: 64, baseType: !332)
!337 = !{  }
!338 = !DICompositeType(tag: DW_TAG_structure_type, file: !3, scope: !11, name: "nothrow_t", line: 1, size: 8, align: 8, elements: !337, runtimeLang: DW_LANG_C_plus_plus)
!339 = !DIDerivedType(tag: DW_TAG_typedef, file: !3, scope: !11, name: "new_handler", line: 1, size: 64, align: 64, baseType: !315)
!340 = !{  }
!341 = !DICompositeType(tag: DW_TAG_structure_type, file: !3, scope: !11, name: "__allocator_traits_base", line: 1, size: 8, align: 8, elements: !340, runtimeLang: DW_LANG_C_plus_plus)
!342 = !{  }
!343 = !DICompositeType(tag: DW_TAG_structure_type, file: !3, scope: !341, name: "__rebind", line: 1, size: 8, align: 8, elements: !342, runtimeLang: DW_LANG_C_plus_plus)
!344 = !{ !346 }
!345 = !DICompositeType(tag: DW_TAG_structure_type, file: !3, name: "_Z17aligned_allocatorIfLm64EE", size: 8, align: 8, elements: !344)
!346 = !DIDerivedType(tag: DW_TAG_member, file: !3, scope: !345, size: 8, align: 8, baseType: !54)
!347 = !DIDerivedType(tag: DW_TAG_typedef, file: !3, scope: !343, name: "type", line: 1, size: 8, align: 8, baseType: !345)
!348 = !{  }
!349 = !DICompositeType(tag: DW_TAG_structure_type, file: !3, scope: !341, name: "__rebind", line: 1, size: 8, align: 8, elements: !348, runtimeLang: DW_LANG_C_plus_plus)
!350 = !{ !352 }
!351 = !DICompositeType(tag: DW_TAG_structure_type, file: !3, name: "_Z17aligned_allocatorIdLm6EE", size: 8, align: 8, elements: !350)
!352 = !DIDerivedType(tag: DW_TAG_member, file: !3, scope: !351, size: 8, align: 8, baseType: !54)
!353 = !DIDerivedType(tag: DW_TAG_typedef, file: !3, scope: !349, name: "type", line: 1, size: 8, align: 8, baseType: !351)
!354 = !{  }
!355 = !DICompositeType(tag: DW_TAG_structure_type, file: !3, scope: !341, name: "__rebind", line: 1, size: 8, align: 8, elements: !354, runtimeLang: DW_LANG_C_plus_plus)
!356 = !DIDerivedType(tag: DW_TAG_typedef, file: !3, scope: !355, name: "type", line: 1, size: 8, align: 8, baseType: !213)
!357 = !{  }
!358 = !DICompositeType(tag: DW_TAG_structure_type, file: !3, scope: !341, name: "__rebind", line: 1, size: 8, align: 8, elements: !357, runtimeLang: DW_LANG_C_plus_plus)
!359 = !DIDerivedType(tag: DW_TAG_typedef, file: !3, scope: !358, name: "type", line: 1, size: 8, align: 8, baseType: !235)
!360 = !{ !362, !363, !364, !365, !366 }
!361 = !DICompositeType(tag: DW_TAG_enumeration_type, file: !3, scope: !11, name: "float_round_style", line: 1, size: 32, align: 32, elements: !360, runtimeLang: DW_LANG_C_plus_plus)
!362 = !DIEnumerator(name: "round_indeterminate", value: -1)
!363 = !DIEnumerator(name: "round_toward_zero", value: 0)
!364 = !DIEnumerator(name: "round_to_nearest", value: 1)
!365 = !DIEnumerator(name: "round_toward_infinity", value: 2)
!366 = !DIEnumerator(name: "round_toward_neg_infinity", value: 3)
!367 = !{ !369, !370, !371 }
!368 = !DICompositeType(tag: DW_TAG_enumeration_type, file: !3, scope: !11, name: "float_denorm_style", line: 1, size: 32, align: 32, elements: !367, runtimeLang: DW_LANG_C_plus_plus)
!369 = !DIEnumerator(name: "denorm_indeterminate", value: -1)
!370 = !DIEnumerator(name: "denorm_absent", value: 0)
!371 = !DIEnumerator(name: "denorm_present", value: 1)
!372 = !{  }
!373 = !DICompositeType(tag: DW_TAG_structure_type, file: !3, scope: !11, name: "__numeric_limits_base", line: 1, size: 8, align: 8, elements: !372, runtimeLang: DW_LANG_C_plus_plus)
!374 = !{  }
!375 = !DICompositeType(tag: DW_TAG_structure_type, file: !3, scope: !11, name: "_Hash_impl", line: 1, size: 8, align: 8, elements: !374, runtimeLang: DW_LANG_C_plus_plus)
!376 = !{  }
!377 = !DICompositeType(tag: DW_TAG_structure_type, file: !3, scope: !11, name: "_Fnv_hash_impl", line: 1, size: 8, align: 8, elements: !376, runtimeLang: DW_LANG_C_plus_plus)
!378 = !DIDerivedType(tag: DW_TAG_typedef, file: !3, scope: !11, name: "_Bit_type", line: 1, size: 64, align: 64, baseType: !41)
!379 = !{ !382, !383 }
!380 = !DICompositeType(tag: DW_TAG_structure_type, file: !3, scope: !11, name: "_Bit_reference", line: 1, size: 128, align: 64, elements: !379, runtimeLang: DW_LANG_C_plus_plus)
!381 = !DIDerivedType(tag: DW_TAG_pointer_type, size: 64, align: 64, baseType: !41)
!382 = !DIDerivedType(tag: DW_TAG_member, file: !3, scope: !380, name: "_M_p", line: 1, size: 64, align: 64, baseType: !381)
!383 = !DIDerivedType(tag: DW_TAG_member, file: !3, scope: !380, name: "_M_mask", line: 1, size: 64, align: 64, offset: 64, baseType: !41)
!384 = !{ !386, !387 }
!385 = !DICompositeType(tag: DW_TAG_structure_type, file: !3, scope: !11, name: "_Bit_iterator_base", line: 1, size: 128, align: 64, elements: !384, runtimeLang: DW_LANG_C_plus_plus)
!386 = !DIDerivedType(tag: DW_TAG_member, file: !3, scope: !385, name: "_M_p", line: 1, size: 64, align: 64, baseType: !381)
!387 = !DIDerivedType(tag: DW_TAG_member, file: !3, scope: !385, name: "_M_offset", line: 1, size: 32, align: 32, offset: 64, baseType: !135)
!388 = !{ !392 }
!389 = !DICompositeType(tag: DW_TAG_structure_type, file: !3, scope: !11, name: "_Bit_iterator", line: 1, size: 128, align: 64, elements: !388, runtimeLang: DW_LANG_C_plus_plus)
!390 = !DIDerivedType(tag: DW_TAG_typedef, file: !3, scope: !389, name: "reference", line: 1, size: 128, align: 64, baseType: !380)
!391 = !DIDerivedType(tag: DW_TAG_typedef, file: !3, scope: !389, name: "iterator", line: 1, size: 128, align: 64, baseType: !389)
!392 = !DIDerivedType(tag: DW_TAG_inheritance, file: !3, scope: !389, name: "_Bit_iterator_base", line: 1, size: 128, align: 64, baseType: !385)
!393 = !{ !399 }
!394 = !DICompositeType(tag: DW_TAG_structure_type, file: !3, scope: !11, name: "_Bit_const_iterator", line: 1, size: 128, align: 64, elements: !393, runtimeLang: DW_LANG_C_plus_plus)
!395 = !DIDerivedType(tag: DW_TAG_typedef, file: !3, scope: !394, name: "reference", line: 1, size: 8, align: 8, baseType: !52)
!396 = !DIDerivedType(tag: DW_TAG_typedef, file: !3, scope: !394, name: "const_reference", line: 1, size: 8, align: 8, baseType: !52)
!397 = !DIDerivedType(tag: DW_TAG_typedef, file: !3, scope: !394, name: "pointer", line: 1, size: 64, align: 64, baseType: !320)
!398 = !DIDerivedType(tag: DW_TAG_typedef, file: !3, scope: !394, name: "const_iterator", line: 1, size: 128, align: 64, baseType: !394)
!399 = !DIDerivedType(tag: DW_TAG_inheritance, file: !3, scope: !394, name: "_Bit_iterator_base", line: 1, size: 128, align: 64, baseType: !385)
!400 = !{ !405, !406, !414 }
!401 = !DICompositeType(tag: DW_TAG_structure_type, file: !3, name: "_ZNSt7__cxx1112basic_stringIcSt11char_traitsIcESaIcEEE", size: 256, align: 64, elements: !400)
!402 = !{ !404 }
!403 = !DICompositeType(tag: DW_TAG_structure_type, file: !3, name: "_ZNSt7__cxx1112basic_stringIcSt11char_traitsIcESaIcEE12_Alloc_hiderE", size: 64, align: 64, elements: !402)
!404 = !DIDerivedType(tag: DW_TAG_member, file: !3, scope: !403, name: "_M_p", size: 64, align: 64, baseType: !320)
!405 = !DIDerivedType(tag: DW_TAG_member, file: !3, scope: !401, name: "_M_dataplus", size: 64, align: 64, baseType: !403)
!406 = !DIDerivedType(tag: DW_TAG_member, file: !3, scope: !401, name: "_M_string_length", size: 64, align: 64, offset: 64, baseType: !41)
!407 = !{ !412, !413 }
!408 = !DICompositeType(tag: DW_TAG_union_type, file: !3, name: "__C5", size: 128, align: 64, elements: !407)
!409 = !DISubrange(count: 16)
!410 = !{ !409 }
!411 = !DICompositeType(tag: DW_TAG_array_type, size: 128, align: 8, baseType: !52, elements: !410)
!412 = !DIDerivedType(tag: DW_TAG_member, file: !3, scope: !408, name: "_M_local_buf", size: 128, align: 8, baseType: !411)
!413 = !DIDerivedType(tag: DW_TAG_member, file: !3, scope: !408, name: "_M_allocated_capacity", size: 64, align: 64, baseType: !41)
!414 = !DIDerivedType(tag: DW_TAG_member, file: !3, scope: !401, size: 128, align: 64, offset: 128, baseType: !408)
!415 = !DIDerivedType(tag: DW_TAG_typedef, file: !3, scope: !11, name: "string", line: 1, size: 256, align: 64, baseType: !401)
!416 = !{ !423, !424, !430 }
!417 = !DICompositeType(tag: DW_TAG_structure_type, file: !3, name: "_ZNSt7__cxx1112basic_stringIwSt11char_traitsIwESaIwEEE", size: 256, align: 64, elements: !416)
!418 = !{ !422 }
!419 = !DICompositeType(tag: DW_TAG_structure_type, file: !3, name: "_ZNSt7__cxx1112basic_stringIwSt11char_traitsIwESaIwEE12_Alloc_hiderE", size: 64, align: 64, elements: !418)
!420 = !DIBasicType(tag: DW_TAG_base_type, name: "int", size: 32, align: 32, encoding: DW_ATE_signed)
!421 = !DIDerivedType(tag: DW_TAG_pointer_type, size: 64, align: 64, baseType: !420)
!422 = !DIDerivedType(tag: DW_TAG_member, file: !3, scope: !419, name: "_M_p", size: 64, align: 64, baseType: !421)
!423 = !DIDerivedType(tag: DW_TAG_member, file: !3, scope: !417, name: "_M_dataplus", size: 64, align: 64, baseType: !419)
!424 = !DIDerivedType(tag: DW_TAG_member, file: !3, scope: !417, name: "_M_string_length", size: 64, align: 64, offset: 64, baseType: !41)
!425 = !{ !428, !429 }
!426 = !DICompositeType(tag: DW_TAG_union_type, file: !3, name: "__C6", size: 128, align: 64, elements: !425)
!427 = !DICompositeType(tag: DW_TAG_array_type, size: 128, align: 32, baseType: !420, elements: !117)
!428 = !DIDerivedType(tag: DW_TAG_member, file: !3, scope: !426, name: "_M_local_buf", size: 128, align: 32, baseType: !427)
!429 = !DIDerivedType(tag: DW_TAG_member, file: !3, scope: !426, name: "_M_allocated_capacity", size: 64, align: 64, baseType: !41)
!430 = !DIDerivedType(tag: DW_TAG_member, file: !3, scope: !417, size: 128, align: 64, offset: 128, baseType: !426)
!431 = !DIDerivedType(tag: DW_TAG_typedef, file: !3, scope: !11, name: "wstring", line: 1, size: 256, align: 64, baseType: !417)
!432 = !{ !439, !440, !446 }
!433 = !DICompositeType(tag: DW_TAG_structure_type, file: !3, name: "_ZNSt7__cxx1112basic_stringIDsSt11char_traitsIDsESaIDsEEE", size: 256, align: 64, elements: !432)
!434 = !{ !438 }
!435 = !DICompositeType(tag: DW_TAG_structure_type, file: !3, name: "_ZNSt7__cxx1112basic_stringIDsSt11char_traitsIDsESaIDsEE12_Alloc_hiderE", size: 64, align: 64, elements: !434)
!436 = !DIBasicType(tag: DW_TAG_base_type, name: "unsigned short", size: 16, align: 16, encoding: DW_ATE_unsigned)
!437 = !DIDerivedType(tag: DW_TAG_pointer_type, size: 64, align: 64, baseType: !436)
!438 = !DIDerivedType(tag: DW_TAG_member, file: !3, scope: !435, name: "_M_p", size: 64, align: 64, baseType: !437)
!439 = !DIDerivedType(tag: DW_TAG_member, file: !3, scope: !433, name: "_M_dataplus", size: 64, align: 64, baseType: !435)
!440 = !DIDerivedType(tag: DW_TAG_member, file: !3, scope: !433, name: "_M_string_length", size: 64, align: 64, offset: 64, baseType: !41)
!441 = !{ !444, !445 }
!442 = !DICompositeType(tag: DW_TAG_union_type, file: !3, name: "__C7", size: 128, align: 64, elements: !441)
!443 = !DICompositeType(tag: DW_TAG_array_type, size: 128, align: 16, baseType: !436, elements: !111)
!444 = !DIDerivedType(tag: DW_TAG_member, file: !3, scope: !442, name: "_M_local_buf", size: 128, align: 16, baseType: !443)
!445 = !DIDerivedType(tag: DW_TAG_member, file: !3, scope: !442, name: "_M_allocated_capacity", size: 64, align: 64, baseType: !41)
!446 = !DIDerivedType(tag: DW_TAG_member, file: !3, scope: !433, size: 128, align: 64, offset: 128, baseType: !442)
!447 = !DIDerivedType(tag: DW_TAG_typedef, file: !3, scope: !11, name: "u16string", line: 1, size: 256, align: 64, baseType: !433)
!448 = !{ !454, !455, !461 }
!449 = !DICompositeType(tag: DW_TAG_structure_type, file: !3, name: "_ZNSt7__cxx1112basic_stringIDiSt11char_traitsIDiESaIDiEEE", size: 256, align: 64, elements: !448)
!450 = !{ !453 }
!451 = !DICompositeType(tag: DW_TAG_structure_type, file: !3, name: "_ZNSt7__cxx1112basic_stringIDiSt11char_traitsIDiESaIDiEE12_Alloc_hiderE", size: 64, align: 64, elements: !450)
!452 = !DIDerivedType(tag: DW_TAG_pointer_type, size: 64, align: 64, baseType: !135)
!453 = !DIDerivedType(tag: DW_TAG_member, file: !3, scope: !451, name: "_M_p", size: 64, align: 64, baseType: !452)
!454 = !DIDerivedType(tag: DW_TAG_member, file: !3, scope: !449, name: "_M_dataplus", size: 64, align: 64, baseType: !451)
!455 = !DIDerivedType(tag: DW_TAG_member, file: !3, scope: !449, name: "_M_string_length", size: 64, align: 64, offset: 64, baseType: !41)
!456 = !{ !459, !460 }
!457 = !DICompositeType(tag: DW_TAG_union_type, file: !3, name: "__C8", size: 128, align: 64, elements: !456)
!458 = !DICompositeType(tag: DW_TAG_array_type, size: 128, align: 32, baseType: !135, elements: !117)
!459 = !DIDerivedType(tag: DW_TAG_member, file: !3, scope: !457, name: "_M_local_buf", size: 128, align: 32, baseType: !458)
!460 = !DIDerivedType(tag: DW_TAG_member, file: !3, scope: !457, name: "_M_allocated_capacity", size: 64, align: 64, baseType: !41)
!461 = !DIDerivedType(tag: DW_TAG_member, file: !3, scope: !449, size: 128, align: 64, offset: 128, baseType: !457)
!462 = !DIDerivedType(tag: DW_TAG_typedef, file: !3, scope: !11, name: "u32string", line: 1, size: 256, align: 64, baseType: !449)
!463 = !DIDerivedType(tag: DW_TAG_typedef, file: !3, scope: !11, name: "streamoff", line: 1, size: 64, align: 64, baseType: !144)
!464 = !DIDerivedType(tag: DW_TAG_typedef, file: !3, scope: !11, name: "streamsize", line: 1, size: 64, align: 64, baseType: !144)
!465 = !{  }
!466 = !DICompositeType(tag: DW_TAG_structure_type, file: !3, name: "_ZSt4fposI11__mbstate_tE", align: 8, elements: !465)
!467 = !DIDerivedType(tag: DW_TAG_typedef, file: !3, scope: !11, name: "streampos", line: 1, align: 8, baseType: !466)
!468 = !DIDerivedType(tag: DW_TAG_typedef, file: !3, scope: !11, name: "wstreampos", line: 1, align: 8, baseType: !466)
!469 = !DIDerivedType(tag: DW_TAG_typedef, file: !3, scope: !11, name: "u16streampos", line: 1, align: 8, baseType: !466)
!470 = !DIDerivedType(tag: DW_TAG_typedef, file: !3, scope: !11, name: "u32streampos", line: 1, align: 8, baseType: !466)
!471 = !{  }
!472 = !DICompositeType(tag: DW_TAG_structure_type, file: !3, scope: !11, name: "char_traits", line: 1, size: 8, align: 8, elements: !471, runtimeLang: DW_LANG_C_plus_plus)
!473 = !DIDerivedType(tag: DW_TAG_typedef, file: !3, scope: !472, name: "char_type", line: 1, size: 8, align: 8, baseType: !52)
!474 = !DIDerivedType(tag: DW_TAG_typedef, file: !3, scope: !472, name: "int_type", line: 1, size: 32, align: 32, baseType: !420)
!475 = !DIDerivedType(tag: DW_TAG_typedef, file: !3, scope: !472, name: "pos_type", line: 1, align: 8, baseType: !466)
!476 = !DIDerivedType(tag: DW_TAG_typedef, file: !3, scope: !472, name: "off_type", line: 1, size: 64, align: 64, baseType: !144)
!477 = !{ !479, !484 }
!478 = !DICompositeType(tag: DW_TAG_structure_type, file: !3, name: "__mbstate_t", size: 64, align: 32, elements: !477)
!479 = !DIDerivedType(tag: DW_TAG_member, file: !3, scope: !478, name: "__count", size: 32, align: 32, baseType: !420)
!480 = !{ !482, !483 }
!481 = !DICompositeType(tag: DW_TAG_union_type, file: !3, name: "_ZN11__mbstate_tUt_E", size: 32, align: 32, elements: !480)
!482 = !DIDerivedType(tag: DW_TAG_member, file: !3, scope: !481, name: "__wch", size: 32, align: 32, baseType: !135)
!483 = !DIDerivedType(tag: DW_TAG_member, file: !3, scope: !481, name: "__wchb", size: 32, align: 8, baseType: !118)
!484 = !DIDerivedType(tag: DW_TAG_member, file: !3, scope: !478, name: "__value", size: 32, align: 32, offset: 32, baseType: !481)
!485 = !DIDerivedType(tag: DW_TAG_typedef, file: !3, scope: !472, name: "state_type", line: 1, size: 64, align: 32, baseType: !478)
!486 = !{ !494, !495, !496, !497, !499 }
!487 = !DICompositeType(tag: DW_TAG_structure_type, file: !3, name: "__locale_struct", size: 1856, align: 64, elements: !486)
!488 = !DISubrange(count: 13)
!489 = !{  }
!490 = !DICompositeType(tag: DW_TAG_structure_type, file: !3, name: "__locale_data", align: 8, elements: !489)
!491 = !DIDerivedType(tag: DW_TAG_pointer_type, size: 64, align: 64, baseType: !490)
!492 = !{ !488 }
!493 = !DICompositeType(tag: DW_TAG_array_type, size: 832, align: 64, baseType: !491, elements: !492)
!494 = !DIDerivedType(tag: DW_TAG_member, file: !3, scope: !487, name: "__locales", size: 832, align: 64, baseType: !493)
!495 = !DIDerivedType(tag: DW_TAG_member, file: !3, scope: !487, name: "__ctype_b", size: 64, align: 64, offset: 832, baseType: !437)
!496 = !DIDerivedType(tag: DW_TAG_member, file: !3, scope: !487, name: "__ctype_tolower", size: 64, align: 64, offset: 896, baseType: !421)
!497 = !DIDerivedType(tag: DW_TAG_member, file: !3, scope: !487, name: "__ctype_toupper", size: 64, align: 64, offset: 960, baseType: !421)
!498 = !DICompositeType(tag: DW_TAG_array_type, size: 832, align: 64, baseType: !320, elements: !492)
!499 = !DIDerivedType(tag: DW_TAG_member, file: !3, scope: !487, name: "__names", size: 832, align: 64, offset: 1024, baseType: !498)
!500 = !DIDerivedType(tag: DW_TAG_pointer_type, size: 64, align: 64, baseType: !487)
!501 = !DIDerivedType(tag: DW_TAG_typedef, file: !3, scope: !11, name: "__c_locale", line: 1, size: 64, align: 64, baseType: !500)
!502 = !{ !596, !602, !603, !604, !616, !637, !642, !647 }
!503 = !DICompositeType(tag: DW_TAG_structure_type, file: !3, name: "_ZSt9basic_iosIcSt11char_traitsIcEE", size: 2112, align: 64, elements: !502)
!504 = !{ !512, !513, !514, !538, !548, !549, !566, !571, !573, !574, !576, !595 }
!505 = !DICompositeType(tag: DW_TAG_structure_type, file: !3, name: "_ZSt8ios_base", size: 1728, align: 64, elements: !504)
!506 = !{ !420 }
!507 = !DISubroutineType(types: !506)
!508 = !DIDerivedType(tag: DW_TAG_pointer_type, size: 64, align: 64, baseType: !507)
!509 = !{ !508 }
!510 = !DISubroutineType(types: !509)
!511 = !DIDerivedType(tag: DW_TAG_pointer_type, size: 64, align: 64, baseType: !510)
!512 = !DIDerivedType(tag: DW_TAG_member, file: !3, scope: !505, name: "__vptr", size: 64, align: 64, baseType: !511)
!513 = !DIDerivedType(tag: DW_TAG_member, file: !3, scope: !505, name: "_M_precision", size: 64, align: 64, offset: 64, baseType: !144)
!514 = !DIDerivedType(tag: DW_TAG_member, file: !3, scope: !505, name: "_M_width", size: 64, align: 64, offset: 128, baseType: !144)
!515 = !DIEnumerator(name: "_ZSt19_S_ios_fmtflags_min", value: -2147483648)
!516 = !DIEnumerator(name: "_ZSt19_S_ios_fmtflags_max", value: 2147483647)
!517 = !DIEnumerator(name: "_ZSt19_S_ios_fmtflags_end", value: 65536)
!518 = !DIEnumerator(name: "_ZSt13_S_floatfield", value: 260)
!519 = !DIEnumerator(name: "_ZSt12_S_basefield", value: 74)
!520 = !DIEnumerator(name: "_ZSt14_S_adjustfield", value: 176)
!521 = !DIEnumerator(name: "_ZSt12_S_uppercase", value: 16384)
!522 = !DIEnumerator(name: "_ZSt10_S_unitbuf", value: 8192)
!523 = !DIEnumerator(name: "_ZSt9_S_skipws", value: 4096)
!524 = !DIEnumerator(name: "_ZSt10_S_showpos", value: 2048)
!525 = !DIEnumerator(name: "_ZSt12_S_showpoint", value: 1024)
!526 = !DIEnumerator(name: "_ZSt11_S_showbase", value: 512)
!527 = !DIEnumerator(name: "_ZSt13_S_scientific", value: 256)
!528 = !DIEnumerator(name: "_ZSt8_S_right", value: 128)
!529 = !DIEnumerator(name: "_ZSt6_S_oct", value: 64)
!530 = !DIEnumerator(name: "_ZSt7_S_left", value: 32)
!531 = !DIEnumerator(name: "_ZSt11_S_internal", value: 16)
!532 = !DIEnumerator(name: "_ZSt6_S_hex", value: 8)
!533 = !DIEnumerator(name: "_ZSt8_S_fixed", value: 4)
!534 = !DIEnumerator(name: "_ZSt6_S_dec", value: 2)
!535 = !DIEnumerator(name: "_ZSt12_S_boolalpha", value: 1)
!536 = !{ !535, !534, !533, !532, !531, !530, !529, !528, !527, !526, !525, !524, !523, !522, !521, !520, !519, !518, !517, !516, !515 }
!537 = !DICompositeType(tag: DW_TAG_enumeration_type, file: !3, name: "_ZSt13_Ios_Fmtflags", size: 32, align: 32, elements: !536)
!538 = !DIDerivedType(tag: DW_TAG_member, file: !3, scope: !505, name: "_M_flags", size: 32, align: 32, offset: 192, baseType: !537)
!539 = !DIEnumerator(name: "_ZSt18_S_ios_iostate_min", value: -2147483648)
!540 = !DIEnumerator(name: "_ZSt18_S_ios_iostate_max", value: 2147483647)
!541 = !DIEnumerator(name: "_ZSt18_S_ios_iostate_end", value: 65536)
!542 = !DIEnumerator(name: "_ZSt10_S_failbit", value: 4)
!543 = !DIEnumerator(name: "_ZSt9_S_eofbit", value: 2)
!544 = !DIEnumerator(name: "_ZSt9_S_badbit", value: 1)
!545 = !DIEnumerator(name: "_ZSt10_S_goodbit", value: 0)
!546 = !{ !545, !544, !543, !542, !541, !540, !539 }
!547 = !DICompositeType(tag: DW_TAG_enumeration_type, file: !3, name: "_ZSt12_Ios_Iostate", size: 32, align: 32, elements: !546)
!548 = !DIDerivedType(tag: DW_TAG_member, file: !3, scope: !505, name: "_M_exception", size: 32, align: 32, offset: 224, baseType: !547)
!549 = !DIDerivedType(tag: DW_TAG_member, file: !3, scope: !505, name: "_M_streambuf_state", size: 32, align: 32, offset: 256, baseType: !547)
!550 = !{ !553, !563, !564, !565 }
!551 = !DICompositeType(tag: DW_TAG_structure_type, file: !3, name: "_ZNSt8ios_base14_Callback_listE", size: 192, align: 64, elements: !550)
!552 = !DIDerivedType(tag: DW_TAG_pointer_type, size: 64, align: 64, baseType: !551)
!553 = !DIDerivedType(tag: DW_TAG_member, file: !3, scope: !551, name: "_M_next", size: 64, align: 64, baseType: !552)
!554 = !DIEnumerator(name: "_ZNSt8ios_base13copyfmt_eventE", value: 2)
!555 = !DIEnumerator(name: "_ZNSt8ios_base11imbue_eventE", value: 1)
!556 = !DIEnumerator(name: "_ZNSt8ios_base11erase_eventE", value: 0)
!557 = !{ !556, !555, !554 }
!558 = !DICompositeType(tag: DW_TAG_enumeration_type, file: !3, name: "_ZNSt8ios_base5eventE", size: 32, align: 32, elements: !557)
!559 = !DIDerivedType(tag: DW_TAG_pointer_type, size: 64, align: 64, baseType: !505)
!560 = !{ null, !558, !559, !420 }
!561 = !DISubroutineType(types: !560)
!562 = !DIDerivedType(tag: DW_TAG_pointer_type, size: 64, align: 64, baseType: !561)
!563 = !DIDerivedType(tag: DW_TAG_member, file: !3, scope: !551, name: "_M_fn", size: 64, align: 64, offset: 64, baseType: !562)
!564 = !DIDerivedType(tag: DW_TAG_member, file: !3, scope: !551, name: "_M_index", size: 32, align: 32, offset: 128, baseType: !420)
!565 = !DIDerivedType(tag: DW_TAG_member, file: !3, scope: !551, name: "_M_refcount", size: 32, align: 32, offset: 160, baseType: !420)
!566 = !DIDerivedType(tag: DW_TAG_member, file: !3, scope: !505, name: "_M_callbacks", size: 64, align: 64, offset: 320, baseType: !552)
!567 = !{ !569, !570 }
!568 = !DICompositeType(tag: DW_TAG_structure_type, file: !3, name: "_ZNSt8ios_base6_WordsE", size: 128, align: 64, elements: !567)
!569 = !DIDerivedType(tag: DW_TAG_member, file: !3, scope: !568, name: "_M_pword", size: 64, align: 64, baseType: !28)
!570 = !DIDerivedType(tag: DW_TAG_member, file: !3, scope: !568, name: "_M_iword", size: 64, align: 64, offset: 64, baseType: !144)
!571 = !DIDerivedType(tag: DW_TAG_member, file: !3, scope: !505, name: "_M_word_zero", size: 128, align: 64, offset: 384, baseType: !568)
!572 = !DICompositeType(tag: DW_TAG_array_type, size: 1024, align: 64, baseType: !568, elements: !111)
!573 = !DIDerivedType(tag: DW_TAG_member, file: !3, scope: !505, name: "_M_local_word", size: 1024, align: 64, offset: 512, baseType: !572)
!574 = !DIDerivedType(tag: DW_TAG_member, file: !3, scope: !505, name: "_M_word_size", size: 32, align: 32, offset: 1536, baseType: !420)
!575 = !DIDerivedType(tag: DW_TAG_pointer_type, size: 64, align: 64, baseType: !568)
!576 = !DIDerivedType(tag: DW_TAG_member, file: !3, scope: !505, name: "_M_word", size: 64, align: 64, offset: 1600, baseType: !575)
!577 = !{ !594 }
!578 = !DICompositeType(tag: DW_TAG_structure_type, file: !3, name: "_ZSt6locale", size: 64, align: 64, elements: !577)
!579 = !{ !581, !588, !589, !590, !592 }
!580 = !DICompositeType(tag: DW_TAG_structure_type, file: !3, name: "_ZNSt6locale5_ImplE", size: 320, align: 64, elements: !579)
!581 = !DIDerivedType(tag: DW_TAG_member, file: !3, scope: !580, name: "_M_refcount", size: 32, align: 32, baseType: !420)
!582 = !{ !584, !585 }
!583 = !DICompositeType(tag: DW_TAG_structure_type, file: !3, name: "_ZNSt6locale5facetE", size: 128, align: 64, elements: !582)
!584 = !DIDerivedType(tag: DW_TAG_member, file: !3, scope: !583, name: "__vptr", size: 64, align: 64, baseType: !511)
!585 = !DIDerivedType(tag: DW_TAG_member, file: !3, scope: !583, name: "_M_refcount", size: 32, align: 32, offset: 64, baseType: !420)
!586 = !DIDerivedType(tag: DW_TAG_pointer_type, size: 64, align: 64, baseType: !583)
!587 = !DIDerivedType(tag: DW_TAG_pointer_type, size: 64, align: 64, baseType: !586)
!588 = !DIDerivedType(tag: DW_TAG_member, file: !3, scope: !580, name: "_M_facets", size: 64, align: 64, offset: 64, baseType: !587)
!589 = !DIDerivedType(tag: DW_TAG_member, file: !3, scope: !580, name: "_M_facets_size", size: 64, align: 64, offset: 128, baseType: !41)
!590 = !DIDerivedType(tag: DW_TAG_member, file: !3, scope: !580, name: "_M_caches", size: 64, align: 64, offset: 192, baseType: !587)
!591 = !DIDerivedType(tag: DW_TAG_pointer_type, size: 64, align: 64, baseType: !320)
!592 = !DIDerivedType(tag: DW_TAG_member, file: !3, scope: !580, name: "_M_names", size: 64, align: 64, offset: 256, baseType: !591)
!593 = !DIDerivedType(tag: DW_TAG_pointer_type, size: 64, align: 64, baseType: !580)
!594 = !DIDerivedType(tag: DW_TAG_member, file: !3, scope: !578, name: "_M_impl", size: 64, align: 64, baseType: !593)
!595 = !DIDerivedType(tag: DW_TAG_member, file: !3, scope: !505, name: "_M_ios_locale", size: 64, align: 64, offset: 1664, baseType: !578)
!596 = !DIDerivedType(tag: DW_TAG_member, file: !3, scope: !503, name: "__b_St8ios_base", size: 1728, align: 64, baseType: !505)
!597 = !{ !599, !600 }
!598 = !DICompositeType(tag: DW_TAG_structure_type, file: !3, name: "_ZSo", size: 2176, align: 64, elements: !597)
!599 = !DIDerivedType(tag: DW_TAG_member, file: !3, scope: !598, name: "__vptr", size: 64, align: 64, baseType: !511)
!600 = !DIDerivedType(tag: DW_TAG_member, file: !3, scope: !598, name: "__v_St9basic_iosIcSt11char_traitsIcEE", size: 2112, align: 64, offset: 64, baseType: !503)
!601 = !DIDerivedType(tag: DW_TAG_pointer_type, size: 64, align: 64, baseType: !598)
!602 = !DIDerivedType(tag: DW_TAG_member, file: !3, scope: !503, name: "_M_tie", size: 64, align: 64, offset: 1728, baseType: !601)
!603 = !DIDerivedType(tag: DW_TAG_member, file: !3, scope: !503, name: "_M_fill", size: 8, align: 8, offset: 1792, baseType: !52)
!604 = !DIDerivedType(tag: DW_TAG_member, file: !3, scope: !503, name: "_M_fill_init", size: 8, align: 8, offset: 1800, baseType: !52)
!605 = !{ !607, !608, !609, !610, !611, !612, !613, !614 }
!606 = !DICompositeType(tag: DW_TAG_structure_type, file: !3, name: "_ZSt15basic_streambufIcSt11char_traitsIcEE", size: 512, align: 64, elements: !605)
!607 = !DIDerivedType(tag: DW_TAG_member, file: !3, scope: !606, name: "__vptr", size: 64, align: 64, baseType: !511)
!608 = !DIDerivedType(tag: DW_TAG_member, file: !3, scope: !606, name: "_M_in_beg", size: 64, align: 64, offset: 64, baseType: !320)
!609 = !DIDerivedType(tag: DW_TAG_member, file: !3, scope: !606, name: "_M_in_cur", size: 64, align: 64, offset: 128, baseType: !320)
!610 = !DIDerivedType(tag: DW_TAG_member, file: !3, scope: !606, name: "_M_in_end", size: 64, align: 64, offset: 192, baseType: !320)
!611 = !DIDerivedType(tag: DW_TAG_member, file: !3, scope: !606, name: "_M_out_beg", size: 64, align: 64, offset: 256, baseType: !320)
!612 = !DIDerivedType(tag: DW_TAG_member, file: !3, scope: !606, name: "_M_out_cur", size: 64, align: 64, offset: 320, baseType: !320)
!613 = !DIDerivedType(tag: DW_TAG_member, file: !3, scope: !606, name: "_M_out_end", size: 64, align: 64, offset: 384, baseType: !320)
!614 = !DIDerivedType(tag: DW_TAG_member, file: !3, scope: !606, name: "_M_buf_locale", size: 64, align: 64, offset: 448, baseType: !578)
!615 = !DIDerivedType(tag: DW_TAG_pointer_type, size: 64, align: 64, baseType: !606)
!616 = !DIDerivedType(tag: DW_TAG_member, file: !3, scope: !503, name: "_M_streambuf", size: 64, align: 64, offset: 1856, baseType: !615)
!617 = !{ !623, !624, !625, !626, !627, !628, !629, !633, !634, !635 }
!618 = !DICompositeType(tag: DW_TAG_structure_type, file: !3, name: "_ZSt5ctypeIcE", size: 4608, align: 64, elements: !617)
!619 = !{ !621, !622 }
!620 = !DICompositeType(tag: DW_TAG_structure_type, file: !3, name: "__SO__NSt6locale5facetE", size: 96, align: 64, elements: !619)
!621 = !DIDerivedType(tag: DW_TAG_member, file: !3, scope: !620, name: "__vptr", size: 64, align: 64, baseType: !511)
!622 = !DIDerivedType(tag: DW_TAG_member, file: !3, scope: !620, name: "_M_refcount", size: 32, align: 32, offset: 64, baseType: !420)
!623 = !DIDerivedType(tag: DW_TAG_member, file: !3, scope: !618, name: "__b_NSt6locale5facetE", size: 96, align: 64, baseType: !620)
!624 = !DIDerivedType(tag: DW_TAG_member, file: !3, scope: !618, name: "_M_c_locale_ctype", size: 64, align: 64, offset: 128, baseType: !500)
!625 = !DIDerivedType(tag: DW_TAG_member, file: !3, scope: !618, name: "_M_del", size: 8, align: 8, offset: 192, baseType: !52)
!626 = !DIDerivedType(tag: DW_TAG_member, file: !3, scope: !618, name: "_M_toupper", size: 64, align: 64, offset: 256, baseType: !421)
!627 = !DIDerivedType(tag: DW_TAG_member, file: !3, scope: !618, name: "_M_tolower", size: 64, align: 64, offset: 320, baseType: !421)
!628 = !DIDerivedType(tag: DW_TAG_member, file: !3, scope: !618, name: "_M_table", size: 64, align: 64, offset: 384, baseType: !437)
!629 = !DIDerivedType(tag: DW_TAG_member, file: !3, scope: !618, name: "_M_widen_ok", size: 8, align: 8, offset: 448, baseType: !52)
!630 = !DISubrange(count: 256)
!631 = !{ !630 }
!632 = !DICompositeType(tag: DW_TAG_array_type, size: 2048, align: 8, baseType: !52, elements: !631)
!633 = !DIDerivedType(tag: DW_TAG_member, file: !3, scope: !618, name: "_M_widen", size: 2048, align: 8, offset: 456, baseType: !632)
!634 = !DIDerivedType(tag: DW_TAG_member, file: !3, scope: !618, name: "_M_narrow", size: 2048, align: 8, offset: 2504, baseType: !632)
!635 = !DIDerivedType(tag: DW_TAG_member, file: !3, scope: !618, name: "_M_narrow_ok", size: 8, align: 8, offset: 4552, baseType: !52)
!636 = !DIDerivedType(tag: DW_TAG_pointer_type, size: 64, align: 64, baseType: !618)
!637 = !DIDerivedType(tag: DW_TAG_member, file: !3, scope: !503, name: "_M_ctype", size: 64, align: 64, offset: 1920, baseType: !636)
!638 = !{ !640 }
!639 = !DICompositeType(tag: DW_TAG_structure_type, file: !3, name: "_ZSt7num_putIcSt19ostreambuf_iteratorIcSt11char_traitsIcEEE", size: 128, align: 64, elements: !638)
!640 = !DIDerivedType(tag: DW_TAG_member, file: !3, scope: !639, name: "__b_NSt6locale5facetE", size: 96, align: 64, baseType: !620)
!641 = !DIDerivedType(tag: DW_TAG_pointer_type, size: 64, align: 64, baseType: !639)
!642 = !DIDerivedType(tag: DW_TAG_member, file: !3, scope: !503, name: "_M_num_put", size: 64, align: 64, offset: 1984, baseType: !641)
!643 = !{ !645 }
!644 = !DICompositeType(tag: DW_TAG_structure_type, file: !3, name: "_ZSt7num_getIcSt19istreambuf_iteratorIcSt11char_traitsIcEEE", size: 128, align: 64, elements: !643)
!645 = !DIDerivedType(tag: DW_TAG_member, file: !3, scope: !644, name: "__b_NSt6locale5facetE", size: 96, align: 64, baseType: !620)
!646 = !DIDerivedType(tag: DW_TAG_pointer_type, size: 64, align: 64, baseType: !644)
!647 = !DIDerivedType(tag: DW_TAG_member, file: !3, scope: !503, name: "_M_num_get", size: 64, align: 64, offset: 2048, baseType: !646)
!648 = !DIDerivedType(tag: DW_TAG_typedef, file: !3, scope: !11, name: "ios", line: 1, size: 2112, align: 64, baseType: !503)
!649 = !{ !651, !652, !653 }
!650 = !DICompositeType(tag: DW_TAG_structure_type, file: !3, name: "_ZSi", size: 2240, align: 64, elements: !649)
!651 = !DIDerivedType(tag: DW_TAG_member, file: !3, scope: !650, name: "__vptr", size: 64, align: 64, baseType: !511)
!652 = !DIDerivedType(tag: DW_TAG_member, file: !3, scope: !650, name: "_M_gcount", size: 64, align: 64, offset: 64, baseType: !144)
!653 = !DIDerivedType(tag: DW_TAG_member, file: !3, scope: !650, name: "__v_St9basic_iosIcSt11char_traitsIcEE", size: 2112, align: 64, offset: 128, baseType: !503)
!654 = !DIDerivedType(tag: DW_TAG_typedef, file: !3, scope: !11, name: "istream", line: 1, size: 2240, align: 64, baseType: !650)
!655 = !DIDerivedType(tag: DW_TAG_typedef, file: !3, scope: !11, name: "ostream", line: 1, size: 2176, align: 64, baseType: !598)
!656 = !{ !669, !686, !687 }
!657 = !DICompositeType(tag: DW_TAG_structure_type, file: !3, name: "_ZNSt7__cxx1118basic_stringstreamIcSt11char_traitsIcESaIcEEE", size: 3136, align: 64, elements: !656)
!658 = !{ !664, !668 }
!659 = !DICompositeType(tag: DW_TAG_structure_type, file: !3, name: "__SO__Sd", size: 192, align: 64, elements: !658)
!660 = !{ !662, !663 }
!661 = !DICompositeType(tag: DW_TAG_structure_type, file: !3, name: "__SO__Si", size: 128, align: 64, elements: !660)
!662 = !DIDerivedType(tag: DW_TAG_member, file: !3, scope: !661, name: "__vptr", size: 64, align: 64, baseType: !511)
!663 = !DIDerivedType(tag: DW_TAG_member, file: !3, scope: !661, name: "_M_gcount", size: 64, align: 64, offset: 64, baseType: !144)
!664 = !DIDerivedType(tag: DW_TAG_member, file: !3, scope: !659, name: "__b_Si", size: 128, align: 64, baseType: !661)
!665 = !{ !667 }
!666 = !DICompositeType(tag: DW_TAG_structure_type, file: !3, name: "__SO__So", size: 64, align: 64, elements: !665)
!667 = !DIDerivedType(tag: DW_TAG_member, file: !3, scope: !666, name: "__vptr", size: 64, align: 64, baseType: !511)
!668 = !DIDerivedType(tag: DW_TAG_member, file: !3, scope: !659, name: "__b_So", size: 64, align: 64, offset: 128, baseType: !666)
!669 = !DIDerivedType(tag: DW_TAG_member, file: !3, scope: !657, name: "__b_Sd", size: 192, align: 64, baseType: !659)
!670 = !{ !672, !684, !685 }
!671 = !DICompositeType(tag: DW_TAG_structure_type, file: !3, name: "_ZNSt7__cxx1115basic_stringbufIcSt11char_traitsIcESaIcEEE", size: 832, align: 64, elements: !670)
!672 = !DIDerivedType(tag: DW_TAG_member, file: !3, scope: !671, name: "__b_St15basic_streambufIcSt11char_traitsIcEE", size: 512, align: 64, baseType: !606)
!673 = !DIEnumerator(name: "_ZSt19_S_ios_openmode_min", value: -2147483648)
!674 = !DIEnumerator(name: "_ZSt19_S_ios_openmode_max", value: 2147483647)
!675 = !DIEnumerator(name: "_ZSt19_S_ios_openmode_end", value: 65536)
!676 = !DIEnumerator(name: "_ZSt8_S_trunc", value: 32)
!677 = !DIEnumerator(name: "_ZSt6_S_out", value: 16)
!678 = !DIEnumerator(name: "_ZSt5_S_in", value: 8)
!679 = !DIEnumerator(name: "_ZSt6_S_bin", value: 4)
!680 = !DIEnumerator(name: "_ZSt6_S_ate", value: 2)
!681 = !DIEnumerator(name: "_ZSt6_S_app", value: 1)
!682 = !{ !681, !680, !679, !678, !677, !676, !675, !674, !673 }
!683 = !DICompositeType(tag: DW_TAG_enumeration_type, file: !3, name: "_ZSt13_Ios_Openmode", size: 32, align: 32, elements: !682)
!684 = !DIDerivedType(tag: DW_TAG_member, file: !3, scope: !671, name: "_M_mode", size: 32, align: 32, offset: 512, baseType: !683)
!685 = !DIDerivedType(tag: DW_TAG_member, file: !3, scope: !671, name: "_M_string", size: 256, align: 64, offset: 576, baseType: !401)
!686 = !DIDerivedType(tag: DW_TAG_member, file: !3, scope: !657, name: "_M_stringbuf", size: 832, align: 64, offset: 192, baseType: !671)
!687 = !DIDerivedType(tag: DW_TAG_member, file: !3, scope: !657, name: "__v_St9basic_iosIcSt11char_traitsIcEE", size: 2112, align: 64, offset: 1024, baseType: !503)
!688 = !DIDerivedType(tag: DW_TAG_typedef, file: !3, scope: !11, name: "stringstream", line: 1, size: 3136, align: 64, baseType: !657)
!689 = !{ !691, !795, !796 }
!690 = !DICompositeType(tag: DW_TAG_structure_type, file: !3, name: "_ZSt13basic_fstreamIcSt11char_traitsIcEE", size: 4224, align: 64, elements: !689)
!691 = !DIDerivedType(tag: DW_TAG_member, file: !3, scope: !690, name: "__b_Sd", size: 192, align: 64, baseType: !659)
!692 = !{ !694, !719, !768, !769, !770, !771, !772, !773, !774, !775, !776, !777, !778, !779, !780, !781, !790, !791, !792, !793, !794 }
!693 = !DICompositeType(tag: DW_TAG_structure_type, file: !3, name: "_ZSt13basic_filebufIcSt11char_traitsIcEE", size: 1920, align: 64, elements: !692)
!694 = !DIDerivedType(tag: DW_TAG_member, file: !3, scope: !693, name: "__b_St15basic_streambufIcSt11char_traitsIcEE", size: 512, align: 64, baseType: !606)
!695 = !{ !713, !717, !718 }
!696 = !DICompositeType(tag: DW_TAG_union_type, file: !3, name: "pthread_mutex_t", size: 320, align: 64, elements: !695)
!697 = !{ !699, !700, !701, !702, !703, !705, !706, !712 }
!698 = !DICompositeType(tag: DW_TAG_structure_type, file: !3, name: "__pthread_mutex_s", size: 320, align: 64, elements: !697)
!699 = !DIDerivedType(tag: DW_TAG_member, file: !3, scope: !698, name: "__lock", size: 32, align: 32, baseType: !420)
!700 = !DIDerivedType(tag: DW_TAG_member, file: !3, scope: !698, name: "__count", size: 32, align: 32, offset: 32, baseType: !135)
!701 = !DIDerivedType(tag: DW_TAG_member, file: !3, scope: !698, name: "__owner", size: 32, align: 32, offset: 64, baseType: !420)
!702 = !DIDerivedType(tag: DW_TAG_member, file: !3, scope: !698, name: "__nusers", size: 32, align: 32, offset: 96, baseType: !135)
!703 = !DIDerivedType(tag: DW_TAG_member, file: !3, scope: !698, name: "__kind", size: 32, align: 32, offset: 128, baseType: !420)
!704 = !DIBasicType(tag: DW_TAG_base_type, name: "short", size: 16, align: 16, encoding: DW_ATE_signed)
!705 = !DIDerivedType(tag: DW_TAG_member, file: !3, scope: !698, name: "__spins", size: 16, align: 16, offset: 160, baseType: !704)
!706 = !DIDerivedType(tag: DW_TAG_member, file: !3, scope: !698, name: "__elision", size: 16, align: 16, offset: 176, baseType: !704)
!707 = !{ !710, !711 }
!708 = !DICompositeType(tag: DW_TAG_structure_type, file: !3, name: "__pthread_internal_list", size: 128, align: 64, elements: !707)
!709 = !DIDerivedType(tag: DW_TAG_pointer_type, size: 64, align: 64, baseType: !708)
!710 = !DIDerivedType(tag: DW_TAG_member, file: !3, scope: !708, name: "__prev", size: 64, align: 64, baseType: !709)
!711 = !DIDerivedType(tag: DW_TAG_member, file: !3, scope: !708, name: "__next", size: 64, align: 64, offset: 64, baseType: !709)
!712 = !DIDerivedType(tag: DW_TAG_member, file: !3, scope: !698, name: "__list", size: 128, align: 64, offset: 192, baseType: !708)
!713 = !DIDerivedType(tag: DW_TAG_member, file: !3, scope: !696, name: "__data", size: 320, align: 64, baseType: !698)
!714 = !DISubrange(count: 40)
!715 = !{ !714 }
!716 = !DICompositeType(tag: DW_TAG_array_type, size: 320, align: 8, baseType: !52, elements: !715)
!717 = !DIDerivedType(tag: DW_TAG_member, file: !3, scope: !696, name: "__size", size: 320, align: 8, baseType: !716)
!718 = !DIDerivedType(tag: DW_TAG_member, file: !3, scope: !696, name: "__align", size: 64, align: 64, baseType: !144)
!719 = !DIDerivedType(tag: DW_TAG_member, file: !3, scope: !693, name: "_M_lock", size: 320, align: 64, offset: 512, baseType: !696)
!720 = !{ !766, !767 }
!721 = !DICompositeType(tag: DW_TAG_structure_type, file: !3, name: "_ZSt12__basic_fileIcE", size: 128, align: 64, elements: !720)
!722 = !{ !724, !725, !726, !727, !728, !729, !730, !731, !732, !733, !734, !735, !739, !741, !742, !743, !744, !745, !746, !747, !748, !749, !753, !757, !758, !759, !760, !761, !765 }
!723 = !DICompositeType(tag: DW_TAG_structure_type, file: !3, name: "_IO_FILE", size: 1728, align: 64, elements: !722)
!724 = !DIDerivedType(tag: DW_TAG_member, file: !3, scope: !723, name: "_flags", size: 32, align: 32, baseType: !420)
!725 = !DIDerivedType(tag: DW_TAG_member, file: !3, scope: !723, name: "_IO_read_ptr", size: 64, align: 64, offset: 64, baseType: !320)
!726 = !DIDerivedType(tag: DW_TAG_member, file: !3, scope: !723, name: "_IO_read_end", size: 64, align: 64, offset: 128, baseType: !320)
!727 = !DIDerivedType(tag: DW_TAG_member, file: !3, scope: !723, name: "_IO_read_base", size: 64, align: 64, offset: 192, baseType: !320)
!728 = !DIDerivedType(tag: DW_TAG_member, file: !3, scope: !723, name: "_IO_write_base", size: 64, align: 64, offset: 256, baseType: !320)
!729 = !DIDerivedType(tag: DW_TAG_member, file: !3, scope: !723, name: "_IO_write_ptr", size: 64, align: 64, offset: 320, baseType: !320)
!730 = !DIDerivedType(tag: DW_TAG_member, file: !3, scope: !723, name: "_IO_write_end", size: 64, align: 64, offset: 384, baseType: !320)
!731 = !DIDerivedType(tag: DW_TAG_member, file: !3, scope: !723, name: "_IO_buf_base", size: 64, align: 64, offset: 448, baseType: !320)
!732 = !DIDerivedType(tag: DW_TAG_member, file: !3, scope: !723, name: "_IO_buf_end", size: 64, align: 64, offset: 512, baseType: !320)
!733 = !DIDerivedType(tag: DW_TAG_member, file: !3, scope: !723, name: "_IO_save_base", size: 64, align: 64, offset: 576, baseType: !320)
!734 = !DIDerivedType(tag: DW_TAG_member, file: !3, scope: !723, name: "_IO_backup_base", size: 64, align: 64, offset: 640, baseType: !320)
!735 = !DIDerivedType(tag: DW_TAG_member, file: !3, scope: !723, name: "_IO_save_end", size: 64, align: 64, offset: 704, baseType: !320)
!736 = !{  }
!737 = !DICompositeType(tag: DW_TAG_structure_type, file: !3, name: "_IO_marker", align: 8, elements: !736)
!738 = !DIDerivedType(tag: DW_TAG_pointer_type, size: 64, align: 64, baseType: !737)
!739 = !DIDerivedType(tag: DW_TAG_member, file: !3, scope: !723, name: "_markers", size: 64, align: 64, offset: 768, baseType: !738)
!740 = !DIDerivedType(tag: DW_TAG_pointer_type, size: 64, align: 64, baseType: !723)
!741 = !DIDerivedType(tag: DW_TAG_member, file: !3, scope: !723, name: "_chain", size: 64, align: 64, offset: 832, baseType: !740)
!742 = !DIDerivedType(tag: DW_TAG_member, file: !3, scope: !723, name: "_fileno", size: 32, align: 32, offset: 896, baseType: !420)
!743 = !DIDerivedType(tag: DW_TAG_member, file: !3, scope: !723, name: "_flags2", size: 32, align: 32, offset: 928, baseType: !420)
!744 = !DIDerivedType(tag: DW_TAG_member, file: !3, scope: !723, name: "_old_offset", size: 64, align: 64, offset: 960, baseType: !144)
!745 = !DIDerivedType(tag: DW_TAG_member, file: !3, scope: !723, name: "_cur_column", size: 16, align: 16, offset: 1024, baseType: !436)
!746 = !DIDerivedType(tag: DW_TAG_member, file: !3, scope: !723, name: "_vtable_offset", size: 8, align: 8, offset: 1040, baseType: !52)
!747 = !DIDerivedType(tag: DW_TAG_member, file: !3, scope: !723, name: "_shortbuf", size: 8, align: 8, offset: 1048, baseType: !54)
!748 = !DIDerivedType(tag: DW_TAG_member, file: !3, scope: !723, name: "_lock", size: 64, align: 64, offset: 1088, baseType: !28)
!749 = !DIDerivedType(tag: DW_TAG_member, file: !3, scope: !723, name: "_offset", size: 64, align: 64, offset: 1152, baseType: !144)
!750 = !{  }
!751 = !DICompositeType(tag: DW_TAG_structure_type, file: !3, name: "_IO_codecvt", align: 8, elements: !750)
!752 = !DIDerivedType(tag: DW_TAG_pointer_type, size: 64, align: 64, baseType: !751)
!753 = !DIDerivedType(tag: DW_TAG_member, file: !3, scope: !723, name: "_codecvt", size: 64, align: 64, offset: 1216, baseType: !752)
!754 = !{  }
!755 = !DICompositeType(tag: DW_TAG_structure_type, file: !3, name: "_IO_wide_data", align: 8, elements: !754)
!756 = !DIDerivedType(tag: DW_TAG_pointer_type, size: 64, align: 64, baseType: !755)
!757 = !DIDerivedType(tag: DW_TAG_member, file: !3, scope: !723, name: "_wide_data", size: 64, align: 64, offset: 1280, baseType: !756)
!758 = !DIDerivedType(tag: DW_TAG_member, file: !3, scope: !723, name: "_freeres_list", size: 64, align: 64, offset: 1344, baseType: !740)
!759 = !DIDerivedType(tag: DW_TAG_member, file: !3, scope: !723, name: "_freeres_buf", size: 64, align: 64, offset: 1408, baseType: !28)
!760 = !DIDerivedType(tag: DW_TAG_member, file: !3, scope: !723, name: "__pad5", size: 64, align: 64, offset: 1472, baseType: !41)
!761 = !DIDerivedType(tag: DW_TAG_member, file: !3, scope: !723, name: "_mode", size: 32, align: 32, offset: 1536, baseType: !420)
!762 = !DISubrange(count: 20)
!763 = !{ !762 }
!764 = !DICompositeType(tag: DW_TAG_array_type, size: 160, align: 8, baseType: !52, elements: !763)
!765 = !DIDerivedType(tag: DW_TAG_member, file: !3, scope: !723, name: "_unused2", size: 160, align: 8, offset: 1568, baseType: !764)
!766 = !DIDerivedType(tag: DW_TAG_member, file: !3, scope: !721, name: "_M_cfile", size: 64, align: 64, baseType: !740)
!767 = !DIDerivedType(tag: DW_TAG_member, file: !3, scope: !721, name: "_M_cfile_created", size: 8, align: 8, offset: 64, baseType: !52)
!768 = !DIDerivedType(tag: DW_TAG_member, file: !3, scope: !693, name: "_M_file", size: 128, align: 64, offset: 832, baseType: !721)
!769 = !DIDerivedType(tag: DW_TAG_member, file: !3, scope: !693, name: "_M_mode", size: 32, align: 32, offset: 960, baseType: !683)
!770 = !DIDerivedType(tag: DW_TAG_member, file: !3, scope: !693, name: "_M_state_beg", size: 64, align: 32, offset: 992, baseType: !478)
!771 = !DIDerivedType(tag: DW_TAG_member, file: !3, scope: !693, name: "_M_state_cur", size: 64, align: 32, offset: 1056, baseType: !478)
!772 = !DIDerivedType(tag: DW_TAG_member, file: !3, scope: !693, name: "_M_state_last", size: 64, align: 32, offset: 1120, baseType: !478)
!773 = !DIDerivedType(tag: DW_TAG_member, file: !3, scope: !693, name: "_M_buf", size: 64, align: 64, offset: 1216, baseType: !320)
!774 = !DIDerivedType(tag: DW_TAG_member, file: !3, scope: !693, name: "_M_buf_size", size: 64, align: 64, offset: 1280, baseType: !41)
!775 = !DIDerivedType(tag: DW_TAG_member, file: !3, scope: !693, name: "_M_buf_allocated", size: 8, align: 8, offset: 1344, baseType: !52)
!776 = !DIDerivedType(tag: DW_TAG_member, file: !3, scope: !693, name: "_M_reading", size: 8, align: 8, offset: 1352, baseType: !52)
!777 = !DIDerivedType(tag: DW_TAG_member, file: !3, scope: !693, name: "_M_writing", size: 8, align: 8, offset: 1360, baseType: !52)
!778 = !DIDerivedType(tag: DW_TAG_member, file: !3, scope: !693, name: "_M_pback", size: 8, align: 8, offset: 1368, baseType: !52)
!779 = !DIDerivedType(tag: DW_TAG_member, file: !3, scope: !693, name: "_M_pback_cur_save", size: 64, align: 64, offset: 1408, baseType: !320)
!780 = !DIDerivedType(tag: DW_TAG_member, file: !3, scope: !693, name: "_M_pback_end_save", size: 64, align: 64, offset: 1472, baseType: !320)
!781 = !DIDerivedType(tag: DW_TAG_member, file: !3, scope: !693, name: "_M_pback_init", size: 8, align: 8, offset: 1536, baseType: !52)
!782 = !{ !787, !788 }
!783 = !DICompositeType(tag: DW_TAG_structure_type, file: !3, name: "_ZSt7codecvtIcc11__mbstate_tE", size: 192, align: 64, elements: !782)
!784 = !{ !786 }
!785 = !DICompositeType(tag: DW_TAG_structure_type, file: !3, name: "__SO__St23__codecvt_abstract_baseIcc11__mbstate_tE", size: 96, align: 64, elements: !784)
!786 = !DIDerivedType(tag: DW_TAG_member, file: !3, scope: !785, name: "__b_NSt6locale5facetE", size: 96, align: 64, baseType: !620)
!787 = !DIDerivedType(tag: DW_TAG_member, file: !3, scope: !783, name: "__b_St23__codecvt_abstract_baseIcc11__mbstate_tE", size: 96, align: 64, baseType: !785)
!788 = !DIDerivedType(tag: DW_TAG_member, file: !3, scope: !783, name: "_M_c_locale_codecvt", size: 64, align: 64, offset: 128, baseType: !500)
!789 = !DIDerivedType(tag: DW_TAG_pointer_type, size: 64, align: 64, baseType: !783)
!790 = !DIDerivedType(tag: DW_TAG_member, file: !3, scope: !693, name: "_M_codecvt", size: 64, align: 64, offset: 1600, baseType: !789)
!791 = !DIDerivedType(tag: DW_TAG_member, file: !3, scope: !693, name: "_M_ext_buf", size: 64, align: 64, offset: 1664, baseType: !320)
!792 = !DIDerivedType(tag: DW_TAG_member, file: !3, scope: !693, name: "_M_ext_buf_size", size: 64, align: 64, offset: 1728, baseType: !144)
!793 = !DIDerivedType(tag: DW_TAG_member, file: !3, scope: !693, name: "_M_ext_next", size: 64, align: 64, offset: 1792, baseType: !320)
!794 = !DIDerivedType(tag: DW_TAG_member, file: !3, scope: !693, name: "_M_ext_end", size: 64, align: 64, offset: 1856, baseType: !320)
!795 = !DIDerivedType(tag: DW_TAG_member, file: !3, scope: !690, name: "_M_filebuf", size: 1920, align: 64, offset: 192, baseType: !693)
!796 = !DIDerivedType(tag: DW_TAG_member, file: !3, scope: !690, name: "__v_St9basic_iosIcSt11char_traitsIcEE", size: 2112, align: 64, offset: 2112, baseType: !503)
!797 = !DIDerivedType(tag: DW_TAG_typedef, file: !3, scope: !11, name: "fstream", line: 1, size: 4224, align: 64, baseType: !690)
!798 = !{ !800, !801, !855 }
!799 = !DICompositeType(tag: DW_TAG_structure_type, file: !3, name: "_ZSt13basic_istreamIwSt11char_traitsIwEE", size: 2240, align: 64, elements: !798)
!800 = !DIDerivedType(tag: DW_TAG_member, file: !3, scope: !799, name: "__vptr", size: 64, align: 64, baseType: !511)
!801 = !DIDerivedType(tag: DW_TAG_member, file: !3, scope: !799, name: "_M_gcount", size: 64, align: 64, offset: 64, baseType: !144)
!802 = !{ !804, !810, !811, !812, !824, !844, !849, !854 }
!803 = !DICompositeType(tag: DW_TAG_structure_type, file: !3, name: "_ZSt9basic_iosIwSt11char_traitsIwEE", size: 2112, align: 64, elements: !802)
!804 = !DIDerivedType(tag: DW_TAG_member, file: !3, scope: !803, name: "__b_St8ios_base", size: 1728, align: 64, baseType: !505)
!805 = !{ !807, !808 }
!806 = !DICompositeType(tag: DW_TAG_structure_type, file: !3, name: "_ZSt13basic_ostreamIwSt11char_traitsIwEE", size: 2176, align: 64, elements: !805)
!807 = !DIDerivedType(tag: DW_TAG_member, file: !3, scope: !806, name: "__vptr", size: 64, align: 64, baseType: !511)
!808 = !DIDerivedType(tag: DW_TAG_member, file: !3, scope: !806, name: "__v_St9basic_iosIwSt11char_traitsIwEE", size: 2112, align: 64, offset: 64, baseType: !803)
!809 = !DIDerivedType(tag: DW_TAG_pointer_type, size: 64, align: 64, baseType: !806)
!810 = !DIDerivedType(tag: DW_TAG_member, file: !3, scope: !803, name: "_M_tie", size: 64, align: 64, offset: 1728, baseType: !809)
!811 = !DIDerivedType(tag: DW_TAG_member, file: !3, scope: !803, name: "_M_fill", size: 32, align: 32, offset: 1792, baseType: !420)
!812 = !DIDerivedType(tag: DW_TAG_member, file: !3, scope: !803, name: "_M_fill_init", size: 8, align: 8, offset: 1824, baseType: !52)
!813 = !{ !815, !816, !817, !818, !819, !820, !821, !822 }
!814 = !DICompositeType(tag: DW_TAG_structure_type, file: !3, name: "_ZSt15basic_streambufIwSt11char_traitsIwEE", size: 512, align: 64, elements: !813)
!815 = !DIDerivedType(tag: DW_TAG_member, file: !3, scope: !814, name: "__vptr", size: 64, align: 64, baseType: !511)
!816 = !DIDerivedType(tag: DW_TAG_member, file: !3, scope: !814, name: "_M_in_beg", size: 64, align: 64, offset: 64, baseType: !421)
!817 = !DIDerivedType(tag: DW_TAG_member, file: !3, scope: !814, name: "_M_in_cur", size: 64, align: 64, offset: 128, baseType: !421)
!818 = !DIDerivedType(tag: DW_TAG_member, file: !3, scope: !814, name: "_M_in_end", size: 64, align: 64, offset: 192, baseType: !421)
!819 = !DIDerivedType(tag: DW_TAG_member, file: !3, scope: !814, name: "_M_out_beg", size: 64, align: 64, offset: 256, baseType: !421)
!820 = !DIDerivedType(tag: DW_TAG_member, file: !3, scope: !814, name: "_M_out_cur", size: 64, align: 64, offset: 320, baseType: !421)
!821 = !DIDerivedType(tag: DW_TAG_member, file: !3, scope: !814, name: "_M_out_end", size: 64, align: 64, offset: 384, baseType: !421)
!822 = !DIDerivedType(tag: DW_TAG_member, file: !3, scope: !814, name: "_M_buf_locale", size: 64, align: 64, offset: 448, baseType: !578)
!823 = !DIDerivedType(tag: DW_TAG_pointer_type, size: 64, align: 64, baseType: !814)
!824 = !DIDerivedType(tag: DW_TAG_member, file: !3, scope: !803, name: "_M_streambuf", size: 64, align: 64, offset: 1856, baseType: !823)
!825 = !{ !830, !831, !832, !836, !838, !840, !842 }
!826 = !DICompositeType(tag: DW_TAG_structure_type, file: !3, name: "_ZSt5ctypeIwE", size: 10752, align: 64, elements: !825)
!827 = !{ !829 }
!828 = !DICompositeType(tag: DW_TAG_structure_type, file: !3, name: "__SO__St21__ctype_abstract_baseIwE", size: 96, align: 64, elements: !827)
!829 = !DIDerivedType(tag: DW_TAG_member, file: !3, scope: !828, name: "__b_NSt6locale5facetE", size: 96, align: 64, baseType: !620)
!830 = !DIDerivedType(tag: DW_TAG_member, file: !3, scope: !826, name: "__b_St21__ctype_abstract_baseIwE", size: 96, align: 64, baseType: !828)
!831 = !DIDerivedType(tag: DW_TAG_member, file: !3, scope: !826, name: "_M_c_locale_ctype", size: 64, align: 64, offset: 128, baseType: !500)
!832 = !DIDerivedType(tag: DW_TAG_member, file: !3, scope: !826, name: "_M_narrow_ok", size: 8, align: 8, offset: 192, baseType: !52)
!833 = !DISubrange(count: 128)
!834 = !{ !833 }
!835 = !DICompositeType(tag: DW_TAG_array_type, size: 1024, align: 8, baseType: !52, elements: !834)
!836 = !DIDerivedType(tag: DW_TAG_member, file: !3, scope: !826, name: "_M_narrow", size: 1024, align: 8, offset: 200, baseType: !835)
!837 = !DICompositeType(tag: DW_TAG_array_type, size: 8192, align: 32, baseType: !135, elements: !631)
!838 = !DIDerivedType(tag: DW_TAG_member, file: !3, scope: !826, name: "_M_widen", size: 8192, align: 32, offset: 1248, baseType: !837)
!839 = !DICompositeType(tag: DW_TAG_array_type, size: 256, align: 16, baseType: !436, elements: !410)
!840 = !DIDerivedType(tag: DW_TAG_member, file: !3, scope: !826, name: "_M_bit", size: 256, align: 16, offset: 9440, baseType: !839)
!841 = !DICompositeType(tag: DW_TAG_array_type, size: 1024, align: 64, baseType: !41, elements: !410)
!842 = !DIDerivedType(tag: DW_TAG_member, file: !3, scope: !826, name: "_M_wmask", size: 1024, align: 64, offset: 9728, baseType: !841)
!843 = !DIDerivedType(tag: DW_TAG_pointer_type, size: 64, align: 64, baseType: !826)
!844 = !DIDerivedType(tag: DW_TAG_member, file: !3, scope: !803, name: "_M_ctype", size: 64, align: 64, offset: 1920, baseType: !843)
!845 = !{ !847 }
!846 = !DICompositeType(tag: DW_TAG_structure_type, file: !3, name: "_ZSt7num_putIwSt19ostreambuf_iteratorIwSt11char_traitsIwEEE", size: 128, align: 64, elements: !845)
!847 = !DIDerivedType(tag: DW_TAG_member, file: !3, scope: !846, name: "__b_NSt6locale5facetE", size: 96, align: 64, baseType: !620)
!848 = !DIDerivedType(tag: DW_TAG_pointer_type, size: 64, align: 64, baseType: !846)
!849 = !DIDerivedType(tag: DW_TAG_member, file: !3, scope: !803, name: "_M_num_put", size: 64, align: 64, offset: 1984, baseType: !848)
!850 = !{ !852 }
!851 = !DICompositeType(tag: DW_TAG_structure_type, file: !3, name: "_ZSt7num_getIwSt19istreambuf_iteratorIwSt11char_traitsIwEEE", size: 128, align: 64, elements: !850)
!852 = !DIDerivedType(tag: DW_TAG_member, file: !3, scope: !851, name: "__b_NSt6locale5facetE", size: 96, align: 64, baseType: !620)
!853 = !DIDerivedType(tag: DW_TAG_pointer_type, size: 64, align: 64, baseType: !851)
!854 = !DIDerivedType(tag: DW_TAG_member, file: !3, scope: !803, name: "_M_num_get", size: 64, align: 64, offset: 2048, baseType: !853)
!855 = !DIDerivedType(tag: DW_TAG_member, file: !3, scope: !799, name: "__v_St9basic_iosIwSt11char_traitsIwEE", size: 2112, align: 64, offset: 128, baseType: !803)
!856 = !DIDerivedType(tag: DW_TAG_typedef, file: !3, scope: !11, name: "wistream", line: 1, size: 2240, align: 64, baseType: !799)
!857 = !DIDerivedType(tag: DW_TAG_typedef, file: !3, scope: !11, name: "wostream", line: 1, size: 2176, align: 64, baseType: !806)
!858 = !{  }
!859 = !DICompositeType(tag: DW_TAG_structure_type, file: !3, scope: !11, name: "__is_transparent", line: 1, align: 8, elements: !858, runtimeLang: DW_LANG_C_plus_plus)
!860 = !{ !862, !863, !864, !865, !866, !867, !868, !869, !870, !871, !872, !873, !874, !875, !876, !877, !878, !879, !880, !881, !882, !883, !884, !885, !886, !887, !888, !889, !890, !891, !892, !893, !894, !895, !896, !897, !898, !899, !900, !901, !902, !903, !904, !905, !906, !907, !908, !909, !910, !911, !912, !913, !914, !915, !916, !917, !918, !919, !920, !921, !922, !923, !924, !925, !926, !927, !928, !929, !930, !931, !932, !933, !934, !935, !936, !937, !938, !939 }
!861 = !DICompositeType(tag: DW_TAG_enumeration_type, file: !3, scope: !11, name: "errc", line: 1, size: 32, align: 32, elements: !860, runtimeLang: DW_LANG_C_plus_plus)
!862 = !DIEnumerator(name: "_ZNSt4errc19wrong_protocol_typeE", value: 91)
!863 = !DIEnumerator(name: "_ZNSt4errc15value_too_largeE", value: 75)
!864 = !DIEnumerator(name: "_ZNSt4errc29too_many_symbolic_link_levelsE", value: 40)
!865 = !DIEnumerator(name: "_ZNSt4errc14too_many_linksE", value: 31)
!866 = !DIEnumerator(name: "_ZNSt4errc19too_many_files_openE", value: 24)
!867 = !DIEnumerator(name: "_ZNSt4errc29too_many_files_open_in_systemE", value: 23)
!868 = !DIEnumerator(name: "_ZNSt4errc9timed_outE", value: 110)
!869 = !DIEnumerator(name: "_ZNSt4errc14text_file_busyE", value: 26)
!870 = !DIEnumerator(name: "_ZNSt4errc14stream_timeoutE", value: 62)
!871 = !DIEnumerator(name: "_ZNSt4errc21state_not_recoverableE", value: 131)
!872 = !DIEnumerator(name: "_ZNSt4errc19result_out_of_rangeE", value: 34)
!873 = !DIEnumerator(name: "_ZNSt4errc30resource_unavailable_try_againE", value: 11)
!874 = !DIEnumerator(name: "_ZNSt4errc29resource_deadlock_would_occurE", value: 35)
!875 = !DIEnumerator(name: "_ZNSt4errc21read_only_file_systemE", value: 30)
!876 = !DIEnumerator(name: "_ZNSt4errc22protocol_not_supportedE", value: 93)
!877 = !DIEnumerator(name: "_ZNSt4errc14protocol_errorE", value: 71)
!878 = !DIEnumerator(name: "_ZNSt4errc17permission_deniedE", value: 13)
!879 = !DIEnumerator(name: "_ZNSt4errc10owner_deadE", value: 130)
!880 = !DIEnumerator(name: "_ZNSt4errc21operation_would_blockE", value: 11)
!881 = !DIEnumerator(name: "_ZNSt4errc23operation_not_supportedE", value: 95)
!882 = !DIEnumerator(name: "_ZNSt4errc23operation_not_permittedE", value: 1)
!883 = !DIEnumerator(name: "_ZNSt4errc21operation_in_progressE", value: 115)
!884 = !DIEnumerator(name: "_ZNSt4errc18operation_canceledE", value: 125)
!885 = !DIEnumerator(name: "_ZNSt4errc13not_supportedE", value: 95)
!886 = !DIEnumerator(name: "_ZNSt4errc17not_enough_memoryE", value: 12)
!887 = !DIEnumerator(name: "_ZNSt4errc13not_connectedE", value: 107)
!888 = !DIEnumerator(name: "_ZNSt4errc12not_a_streamE", value: 60)
!889 = !DIEnumerator(name: "_ZNSt4errc12not_a_socketE", value: 88)
!890 = !DIEnumerator(name: "_ZNSt4errc15not_a_directoryE", value: 20)
!891 = !DIEnumerator(name: "_ZNSt4errc15no_such_processE", value: 3)
!892 = !DIEnumerator(name: "_ZNSt4errc25no_such_file_or_directoryE", value: 2)
!893 = !DIEnumerator(name: "_ZNSt4errc14no_such_deviceE", value: 19)
!894 = !DIEnumerator(name: "_ZNSt4errc25no_such_device_or_addressE", value: 6)
!895 = !DIEnumerator(name: "_ZNSt4errc19no_stream_resourcesE", value: 63)
!896 = !DIEnumerator(name: "_ZNSt4errc18no_space_on_deviceE", value: 28)
!897 = !DIEnumerator(name: "_ZNSt4errc18no_protocol_optionE", value: 92)
!898 = !DIEnumerator(name: "_ZNSt4errc10no_messageE", value: 42)
!899 = !DIEnumerator(name: "_ZNSt4errc20no_message_availableE", value: 61)
!900 = !DIEnumerator(name: "_ZNSt4errc17no_lock_availableE", value: 37)
!901 = !DIEnumerator(name: "_ZNSt4errc7no_linkE", value: 67)
!902 = !DIEnumerator(name: "_ZNSt4errc16no_child_processE", value: 10)
!903 = !DIEnumerator(name: "_ZNSt4errc15no_buffer_spaceE", value: 105)
!904 = !DIEnumerator(name: "_ZNSt4errc19network_unreachableE", value: 101)
!905 = !DIEnumerator(name: "_ZNSt4errc13network_resetE", value: 102)
!906 = !DIEnumerator(name: "_ZNSt4errc12network_downE", value: 100)
!907 = !DIEnumerator(name: "_ZNSt4errc12message_sizeE", value: 90)
!908 = !DIEnumerator(name: "_ZNSt4errc14is_a_directoryE", value: 21)
!909 = !DIEnumerator(name: "_ZNSt4errc8io_errorE", value: 5)
!910 = !DIEnumerator(name: "_ZNSt4errc12invalid_seekE", value: 29)
!911 = !DIEnumerator(name: "_ZNSt4errc16invalid_argumentE", value: 22)
!912 = !DIEnumerator(name: "_ZNSt4errc11interruptedE", value: 4)
!913 = !DIEnumerator(name: "_ZNSt4errc34inappropriate_io_control_operationE", value: 25)
!914 = !DIEnumerator(name: "_ZNSt4errc21illegal_byte_sequenceE", value: 84)
!915 = !DIEnumerator(name: "_ZNSt4errc18identifier_removedE", value: 43)
!916 = !DIEnumerator(name: "_ZNSt4errc16host_unreachableE", value: 113)
!917 = !DIEnumerator(name: "_ZNSt4errc22function_not_supportedE", value: 38)
!918 = !DIEnumerator(name: "_ZNSt4errc17filename_too_longE", value: 36)
!919 = !DIEnumerator(name: "_ZNSt4errc14file_too_largeE", value: 27)
!920 = !DIEnumerator(name: "_ZNSt4errc11file_existsE", value: 17)
!921 = !DIEnumerator(name: "_ZNSt4errc23executable_format_errorE", value: 8)
!922 = !DIEnumerator(name: "_ZNSt4errc19directory_not_emptyE", value: 39)
!923 = !DIEnumerator(name: "_ZNSt4errc23device_or_resource_busyE", value: 16)
!924 = !DIEnumerator(name: "_ZNSt4errc28destination_address_requiredE", value: 89)
!925 = !DIEnumerator(name: "_ZNSt4errc17cross_device_linkE", value: 18)
!926 = !DIEnumerator(name: "_ZNSt4errc16connection_resetE", value: 104)
!927 = !DIEnumerator(name: "_ZNSt4errc18connection_refusedE", value: 111)
!928 = !DIEnumerator(name: "_ZNSt4errc30connection_already_in_progressE", value: 114)
!929 = !DIEnumerator(name: "_ZNSt4errc18connection_abortedE", value: 103)
!930 = !DIEnumerator(name: "_ZNSt4errc11broken_pipeE", value: 32)
!931 = !DIEnumerator(name: "_ZNSt4errc11bad_messageE", value: 74)
!932 = !DIEnumerator(name: "_ZNSt4errc19bad_file_descriptorE", value: 9)
!933 = !DIEnumerator(name: "_ZNSt4errc11bad_addressE", value: 14)
!934 = !DIEnumerator(name: "_ZNSt4errc22argument_out_of_domainE", value: 33)
!935 = !DIEnumerator(name: "_ZNSt4errc22argument_list_too_longE", value: 7)
!936 = !DIEnumerator(name: "_ZNSt4errc17already_connectedE", value: 106)
!937 = !DIEnumerator(name: "_ZNSt4errc21address_not_availableE", value: 99)
!938 = !DIEnumerator(name: "_ZNSt4errc14address_in_useE", value: 98)
!939 = !DIEnumerator(name: "_ZNSt4errc28address_family_not_supportedE", value: 97)
!940 = !{ !947 }
!941 = !DICompositeType(tag: DW_TAG_structure_type, file: !3, scope: !11, name: "__cow_string", line: 1, size: 64, align: 64, elements: !940, runtimeLang: DW_LANG_C_plus_plus)
!942 = !{ !944, !946 }
!943 = !DICompositeType(tag: DW_TAG_union_type, file: !3, scope: !941, line: 1, size: 64, align: 64, elements: !942, runtimeLang: DW_LANG_C_plus_plus)
!944 = !DIDerivedType(tag: DW_TAG_member, file: !3, scope: !943, name: "_M_p", line: 1, size: 64, align: 64, baseType: !320)
!945 = !DICompositeType(tag: DW_TAG_array_type, size: 64, align: 8, baseType: !52, elements: !111)
!946 = !DIDerivedType(tag: DW_TAG_member, file: !3, scope: !943, name: "_M_bytes", line: 1, size: 64, align: 8, baseType: !945)
!947 = !DIDerivedType(tag: DW_TAG_member, file: !3, scope: !941, line: 1, size: 64, align: 64, baseType: !943)
!948 = !{ !950, !951 }
!949 = !DICompositeType(tag: DW_TAG_class_type, file: !3, scope: !11, name: "logic_error", line: 1, size: 128, align: 64, elements: !948, runtimeLang: DW_LANG_C_plus_plus)
!950 = !DIDerivedType(tag: DW_TAG_inheritance, file: !3, scope: !949, name: "exception", line: 1, size: 64, align: 64, baseType: !309)
!951 = !DIDerivedType(tag: DW_TAG_member, file: !3, scope: !949, name: "_M_msg", line: 1, size: 64, align: 64, offset: 64, baseType: !941)
!952 = !{ !954 }
!953 = !DICompositeType(tag: DW_TAG_class_type, file: !3, scope: !11, name: "domain_error", line: 1, size: 128, align: 64, elements: !952, runtimeLang: DW_LANG_C_plus_plus)
!954 = !DIDerivedType(tag: DW_TAG_inheritance, file: !3, scope: !953, name: "logic_error", line: 1, size: 128, align: 64, baseType: !949)
!955 = !{ !957 }
!956 = !DICompositeType(tag: DW_TAG_class_type, file: !3, scope: !11, name: "invalid_argument", line: 1, size: 128, align: 64, elements: !955, runtimeLang: DW_LANG_C_plus_plus)
!957 = !DIDerivedType(tag: DW_TAG_inheritance, file: !3, scope: !956, name: "logic_error", line: 1, size: 128, align: 64, baseType: !949)
!958 = !{ !960 }
!959 = !DICompositeType(tag: DW_TAG_class_type, file: !3, scope: !11, name: "length_error", line: 1, size: 128, align: 64, elements: !958, runtimeLang: DW_LANG_C_plus_plus)
!960 = !DIDerivedType(tag: DW_TAG_inheritance, file: !3, scope: !959, name: "logic_error", line: 1, size: 128, align: 64, baseType: !949)
!961 = !{ !963 }
!962 = !DICompositeType(tag: DW_TAG_class_type, file: !3, scope: !11, name: "out_of_range", line: 1, size: 128, align: 64, elements: !961, runtimeLang: DW_LANG_C_plus_plus)
!963 = !DIDerivedType(tag: DW_TAG_inheritance, file: !3, scope: !962, name: "logic_error", line: 1, size: 128, align: 64, baseType: !949)
!964 = !{ !966, !967 }
!965 = !DICompositeType(tag: DW_TAG_class_type, file: !3, scope: !11, name: "runtime_error", line: 1, size: 128, align: 64, elements: !964, runtimeLang: DW_LANG_C_plus_plus)
!966 = !DIDerivedType(tag: DW_TAG_inheritance, file: !3, scope: !965, name: "exception", line: 1, size: 64, align: 64, baseType: !309)
!967 = !DIDerivedType(tag: DW_TAG_member, file: !3, scope: !965, name: "_M_msg", line: 1, size: 64, align: 64, offset: 64, baseType: !941)
!968 = !{ !970 }
!969 = !DICompositeType(tag: DW_TAG_class_type, file: !3, scope: !11, name: "range_error", line: 1, size: 128, align: 64, elements: !968, runtimeLang: DW_LANG_C_plus_plus)
!970 = !DIDerivedType(tag: DW_TAG_inheritance, file: !3, scope: !969, name: "runtime_error", line: 1, size: 128, align: 64, baseType: !965)
!971 = !{ !973 }
!972 = !DICompositeType(tag: DW_TAG_class_type, file: !3, scope: !11, name: "overflow_error", line: 1, size: 128, align: 64, elements: !971, runtimeLang: DW_LANG_C_plus_plus)
!973 = !DIDerivedType(tag: DW_TAG_inheritance, file: !3, scope: !972, name: "runtime_error", line: 1, size: 128, align: 64, baseType: !965)
!974 = !{ !976 }
!975 = !DICompositeType(tag: DW_TAG_class_type, file: !3, scope: !11, name: "underflow_error", line: 1, size: 128, align: 64, elements: !974, runtimeLang: DW_LANG_C_plus_plus)
!976 = !DIDerivedType(tag: DW_TAG_inheritance, file: !3, scope: !975, name: "runtime_error", line: 1, size: 128, align: 64, baseType: !965)
!977 = !{ !979, !984 }
!978 = !DICompositeType(tag: DW_TAG_structure_type, file: !3, scope: !11, name: "error_code", line: 1, size: 128, align: 64, elements: !977, runtimeLang: DW_LANG_C_plus_plus)
!979 = !DIDerivedType(tag: DW_TAG_member, file: !3, scope: !978, name: "_M_value", line: 1, size: 32, align: 32, baseType: !420)
!980 = !{ !982 }
!981 = !DICompositeType(tag: DW_TAG_structure_type, file: !3, name: "_ZNSt3_V214error_categoryE", size: 64, align: 64, elements: !980)
!982 = !DIDerivedType(tag: DW_TAG_member, file: !3, scope: !981, name: "__vptr", size: 64, align: 64, baseType: !511)
!983 = !DIDerivedType(tag: DW_TAG_pointer_type, size: 64, align: 64, baseType: !981)
!984 = !DIDerivedType(tag: DW_TAG_member, file: !3, scope: !978, name: "_M_cat", line: 1, size: 64, align: 64, offset: 64, baseType: !983)
!985 = !{ !987, !988 }
!986 = !DICompositeType(tag: DW_TAG_structure_type, file: !3, scope: !11, name: "error_condition", line: 1, size: 128, align: 64, elements: !985, runtimeLang: DW_LANG_C_plus_plus)
!987 = !DIDerivedType(tag: DW_TAG_member, file: !3, scope: !986, name: "_M_value", line: 1, size: 32, align: 32, baseType: !420)
!988 = !DIDerivedType(tag: DW_TAG_member, file: !3, scope: !986, name: "_M_cat", line: 1, size: 64, align: 64, offset: 64, baseType: !983)
!989 = !{ !991, !992 }
!990 = !DICompositeType(tag: DW_TAG_class_type, file: !3, scope: !11, name: "system_error", line: 1, size: 256, align: 64, elements: !989, runtimeLang: DW_LANG_C_plus_plus)
!991 = !DIDerivedType(tag: DW_TAG_inheritance, file: !3, scope: !990, name: "runtime_error", line: 1, size: 128, align: 64, baseType: !965)
!992 = !DIDerivedType(tag: DW_TAG_member, file: !3, scope: !990, name: "_M_code", line: 1, size: 128, align: 64, offset: 128, baseType: !978)
!993 = !{ !995, !996, !997, !998 }
!994 = !DICompositeType(tag: DW_TAG_enumeration_type, file: !3, scope: !11, name: "_Ios_Seekdir", line: 1, size: 32, align: 32, elements: !993, runtimeLang: DW_LANG_C_plus_plus)
