	.text
	.file	"cpu_moments.ll"
	.file	1 "/home/talgat/vlasiator/vlasovsolver/cpu_moments.cpp"
	.section	.rodata.cst8,"aM",@progbits,8
	.p2align	3               # -- Begin function _Z20calculateCellMomentsPN12spatial_cell11SpatialCellERKbS3_
.LCPI0_0:
	.quad	4615063718147915776     # double 3.5
.LCPI0_1:
	.quad	4612811918334230528     # double 2.5
.LCPI0_2:
	.quad	4609434218613702656     # double 1.5
.LCPI0_3:
	.quad	4602678819172646912     # double 0.5
.LCPI0_5:
	.quad	0                       # double 0
	.section	.rodata.cst16,"aM",@progbits,16
	.p2align	4
.LCPI0_4:
	.quad	4615063718147915776     # double 3.5
	.quad	4615063718147915776     # double 3.5
	.text
	.globl	_Z20calculateCellMomentsPN12spatial_cell11SpatialCellERKbS3_
	.p2align	4, 0x90
	.type	_Z20calculateCellMomentsPN12spatial_cell11SpatialCellERKbS3_,@function
_Z20calculateCellMomentsPN12spatial_cell11SpatialCellERKbS3_: # @_Z20calculateCellMomentsPN12spatial_cell11SpatialCellERKbS3_
.Lfunc_begin0:
	.loc	1 39 0                  # vlasovsolver/cpu_moments.cpp:39:0
	.cfi_startproc
# %bb.0:                                # %L.entry
	#DEBUG_VALUE: calculateCellMoments:cell <- $rdi
	#DEBUG_VALUE: calculateCellMoments:computeSecond <- $rsi
	#DEBUG_VALUE: calculateCellMoments:doNotSkip <- $rdx
	pushq	%rbp
	.cfi_def_cfa_offset 16
	.cfi_offset %rbp, -16
	movq	%rsp, %rbp
	.cfi_def_cfa_register %rbp
	pushq	%r15
	pushq	%r14
	pushq	%r13
	pushq	%r12
	pushq	%rbx
	andq	$-32, %rsp
	subq	$640, %rsp              # imm = 0x280
	.cfi_offset %rbx, -56
	.cfi_offset %r12, -48
	.cfi_offset %r13, -40
	.cfi_offset %r14, -32
	.cfi_offset %r15, -24
.Ltmp0:
	#DEBUG_VALUE: cell <- $rdi
	#DEBUG_VALUE: computeSecond <- $rsi
	#DEBUG_VALUE: doNotSkip <- $rdx
	movq	%rdi, %r14
.Ltmp1:
	#DEBUG_VALUE: skipMoments <- 0
	#DEBUG_VALUE: doNotSkip <- $rdx
	#DEBUG_VALUE: calculateCellMoments:doNotSkip <- $rdx
	#DEBUG_VALUE: computeSecond <- $rsi
	#DEBUG_VALUE: calculateCellMoments:computeSecond <- $rsi
	#DEBUG_VALUE: cell <- $r14
	#DEBUG_VALUE: calculateCellMoments:cell <- $r14
	.loc	1 44 1 prologue_end     # vlasovsolver/cpu_moments.cpp:44:1
	cmpb	$0, (%rdx)
	movq	%rdi, 64(%rsp)          # 8-byte Spill
.Ltmp2:
	#DEBUG_VALUE: cell <- [DW_OP_plus_uconst 64] [$rsp+0]
	#DEBUG_VALUE: calculateCellMoments:cell <- [DW_OP_plus_uconst 64] [$rsp+0]
	jne	.LBB0_2
.Ltmp3:
# %bb.1:                                # %L.B1531
	#DEBUG_VALUE: calculateCellMoments:cell <- [DW_OP_plus_uconst 64] [$rsp+0]
	#DEBUG_VALUE: cell <- [DW_OP_plus_uconst 64] [$rsp+0]
	#DEBUG_VALUE: skipMoments <- 0
	#DEBUG_VALUE: doNotSkip <- $rdx
	#DEBUG_VALUE: computeSecond <- $rsi
	#DEBUG_VALUE: calculateCellMoments:doNotSkip <- $rdx
	#DEBUG_VALUE: calculateCellMoments:computeSecond <- $rsi
	cmpl	$0, 928(%r14)
	je	.LBB0_13
.Ltmp4:
.LBB0_2:                                # %L.B0000
	#DEBUG_VALUE: calculateCellMoments:cell <- [DW_OP_plus_uconst 64] [$rsp+0]
	#DEBUG_VALUE: cell <- [DW_OP_plus_uconst 64] [$rsp+0]
	#DEBUG_VALUE: skipMoments <- 0
	#DEBUG_VALUE: doNotSkip <- $rdx
	#DEBUG_VALUE: computeSecond <- $rsi
	#DEBUG_VALUE: calculateCellMoments:doNotSkip <- $rdx
	#DEBUG_VALUE: calculateCellMoments:computeSecond <- $rsi
	.loc	1 0 1 is_stmt 0         # vlasovsolver/cpu_moments.cpp:0:1
	movq	%rsi, 8(%rsp)           # 8-byte Spill
.Ltmp5:
	#DEBUG_VALUE: calculateCellMoments:computeSecond <- [DW_OP_plus_uconst 8] [$rsp+0]
	.loc	1 186 1 is_stmt 1       # vlasovsolver/cpu_moments.cpp:186:1
	vxorpd	%xmm0, %xmm0, %xmm0
	vmovupd	%ymm0, 96(%r14)
	movq	$0, 128(%r14)
	vxorpd	%xmm0, %xmm0, %xmm0
	vmovupd	%xmm0, 328(%r14)
	movq	$0, 344(%r14)
.Ltmp6:
	#DEBUG_VALUE: popID <- 0
	.loc	1 62 1                  # vlasovsolver/cpu_moments.cpp:62:1
	vzeroupper
	callq	_Z16getObjectWrapperv
.Ltmp7:
	movq	232(%rax), %rcx
	subq	224(%rax), %rcx
	movq	%rcx, %rax
	movabsq	$5675921253449092805, %rdx # imm = 0x4EC4EC4EC4EC4EC5
	imulq	%rdx
	sarq	$6, %rdx
	sarq	$63, %rcx
.Ltmp8:
	.loc	1 916 1                 # vlasovsolver/cpu_moments.cpp:916:1
	cmpq	%rcx, %rdx
	jne	.LBB0_3
.Ltmp9:
.LBB0_12:                               # %L.N0001
	#DEBUG_VALUE: calculateCellMoments:computeSecond <- [DW_OP_plus_uconst 8] [$rsp+0]
	#DEBUG_VALUE: calculateCellMoments:cell <- [DW_OP_plus_uconst 64] [$rsp+0]
	#DEBUG_VALUE: cell <- [DW_OP_plus_uconst 64] [$rsp+0]
	#DEBUG_VALUE: skipMoments <- 0
	.loc	1 186 1                 # vlasovsolver/cpu_moments.cpp:186:1
	vmovsd	96(%r14), %xmm1         # xmm1 = mem[0],zero
	vmovsd	104(%r14), %xmm0        # xmm0 = mem[0],zero
	callq	_Z15divideIfNonZerodd
	vmovsd	%xmm0, 104(%r14)
	vmovsd	96(%r14), %xmm1         # xmm1 = mem[0],zero
	vmovsd	112(%r14), %xmm0        # xmm0 = mem[0],zero
	callq	_Z15divideIfNonZerodd
	vmovsd	%xmm0, 112(%r14)
	vmovsd	96(%r14), %xmm1         # xmm1 = mem[0],zero
	vmovsd	120(%r14), %xmm0        # xmm0 = mem[0],zero
	callq	_Z15divideIfNonZerodd
	vmovsd	%xmm0, 120(%r14)
	movq	8(%rsp), %rsi           # 8-byte Reload
.Ltmp10:
	#DEBUG_VALUE: calculateCellMoments:computeSecond <- $rsi
.LBB0_13:                               # %L.B0002
	#DEBUG_VALUE: calculateCellMoments:cell <- [DW_OP_plus_uconst 64] [$rsp+0]
	#DEBUG_VALUE: cell <- [DW_OP_plus_uconst 64] [$rsp+0]
	#DEBUG_VALUE: skipMoments <- 0
	#DEBUG_VALUE: calculateCellMoments:computeSecond <- $rsi
	.loc	1 102 1                 # vlasovsolver/cpu_moments.cpp:102:1
	cmpb	$0, (%rsi)
	je	.LBB0_24
.Ltmp11:
# %bb.14:                               # %L.B0022.preheader
	#DEBUG_VALUE: calculateCellMoments:cell <- [DW_OP_plus_uconst 64] [$rsp+0]
	#DEBUG_VALUE: cell <- [DW_OP_plus_uconst 64] [$rsp+0]
	#DEBUG_VALUE: skipMoments <- 0
	#DEBUG_VALUE: calculateCellMoments:computeSecond <- $rsi
	#DEBUG_VALUE: popID <- 0
	.loc	1 105 1                 # vlasovsolver/cpu_moments.cpp:105:1
	callq	_Z16getObjectWrapperv
.Ltmp12:
	movq	232(%rax), %rcx
	subq	224(%rax), %rcx
	movq	%rcx, %rax
	movabsq	$5675921253449092805, %rdx # imm = 0x4EC4EC4EC4EC4EC5
	imulq	%rdx
	sarq	$6, %rdx
	sarq	$63, %rcx
.Ltmp13:
	.loc	1 916 1                 # vlasovsolver/cpu_moments.cpp:916:1
	cmpq	%rcx, %rdx
	jne	.LBB0_15
.Ltmp14:
.LBB0_24:                               # %L.R0000
	#DEBUG_VALUE: calculateCellMoments:cell <- [DW_OP_plus_uconst 64] [$rsp+0]
	#DEBUG_VALUE: cell <- [DW_OP_plus_uconst 64] [$rsp+0]
	#DEBUG_VALUE: skipMoments <- 0
	.loc	1 137 1                 # vlasovsolver/cpu_moments.cpp:137:1
	leaq	-40(%rbp), %rsp
.Ltmp15:
	popq	%rbx
	popq	%r12
	popq	%r13
	popq	%r14
	popq	%r15
	popq	%rbp
	.cfi_def_cfa %rsp, 8
	retq
.Ltmp16:
.LBB0_3:                                # %L.B1533.lr.ph
	.cfi_def_cfa %rbp, 16
	#DEBUG_VALUE: popID <- 0
	#DEBUG_VALUE: calculateCellMoments:computeSecond <- [DW_OP_plus_uconst 8] [$rsp+0]
	#DEBUG_VALUE: calculateCellMoments:cell <- [DW_OP_plus_uconst 64] [$rsp+0]
	#DEBUG_VALUE: cell <- [DW_OP_plus_uconst 64] [$rsp+0]
	#DEBUG_VALUE: skipMoments <- 0
	.loc	1 0 1 is_stmt 0         # vlasovsolver/cpu_moments.cpp:0:1
	xorl	%ebx, %ebx
	jmp	.LBB0_4
.Ltmp17:
	.p2align	4, 0x90
.LBB0_6:                                #   in Loop: Header=BB0_4 Depth=1
	#DEBUG_VALUE: charge <- [DW_OP_plus_uconst 16] [$rsp+0]
	#DEBUG_VALUE: array <- [DW_OP_LLVM_fragment 0 64] 0.000000e+00
	#DEBUG_VALUE: array <- [DW_OP_LLVM_fragment 64 64] 0.000000e+00
	#DEBUG_VALUE: array <- [DW_OP_LLVM_fragment 128 64] 0.000000e+00
	#DEBUG_VALUE: array <- [DW_OP_LLVM_fragment 192 64] 0.000000e+00
	#DEBUG_VALUE: blockLID <- 0
	#DEBUG_VALUE: mass <- [DW_OP_plus_uconst 352] [$rsp+0]
	#DEBUG_VALUE: data <- $r14
	#DEBUG_VALUE: blockParams <- $r12
	#DEBUG_VALUE: popID <- $ebx
	#DEBUG_VALUE: calculateCellMoments:computeSecond <- [DW_OP_plus_uconst 8] [$rsp+0]
	#DEBUG_VALUE: calculateCellMoments:cell <- [DW_OP_plus_uconst 64] [$rsp+0]
	#DEBUG_VALUE: cell <- [DW_OP_plus_uconst 64] [$rsp+0]
	#DEBUG_VALUE: skipMoments <- 0
	vxorpd	%xmm1, %xmm1, %xmm1
.Ltmp18:
.LBB0_10:                               # %L.B0015
                                        #   in Loop: Header=BB0_4 Depth=1
	#DEBUG_VALUE: charge <- [DW_OP_plus_uconst 16] [$rsp+0]
	#DEBUG_VALUE: array <- [DW_OP_LLVM_fragment 0 64] 0.000000e+00
	#DEBUG_VALUE: array <- [DW_OP_LLVM_fragment 64 64] 0.000000e+00
	#DEBUG_VALUE: array <- [DW_OP_LLVM_fragment 128 64] 0.000000e+00
	#DEBUG_VALUE: array <- [DW_OP_LLVM_fragment 192 64] 0.000000e+00
	#DEBUG_VALUE: mass <- [DW_OP_plus_uconst 352] [$rsp+0]
	#DEBUG_VALUE: data <- $r14
	#DEBUG_VALUE: blockParams <- $r12
	#DEBUG_VALUE: calculateCellMoments:computeSecond <- [DW_OP_plus_uconst 8] [$rsp+0]
	#DEBUG_VALUE: calculateCellMoments:cell <- [DW_OP_plus_uconst 64] [$rsp+0]
	#DEBUG_VALUE: cell <- [DW_OP_plus_uconst 64] [$rsp+0]
	#DEBUG_VALUE: skipMoments <- 0
	vmovapd	%ymm1, 320(%rsp)        # 32-byte Spill
	movq	64(%rsp), %r14          # 8-byte Reload
.Ltmp19:
	.loc	1 916 1 is_stmt 1       # vlasovsolver/cpu_moments.cpp:916:1
	movq	1408(%r14), %rbx
.Ltmp20:
	#DEBUG_VALUE: pop <- undef
	.loc	1 83 1                  # vlasovsolver/cpu_moments.cpp:83:1
	vmovlpd	%xmm1, (%rbx,%r13)
	.loc	1 84 1                  # vlasovsolver/cpu_moments.cpp:84:1
	vpermilpd	$1, %xmm1, %xmm0 # xmm0 = xmm1[1,0]
                                        # kill: def $xmm1 killed $xmm1 killed $ymm1
	vzeroupper
	callq	_Z15divideIfNonZerodd
	vmovsd	%xmm0, 8(%rbx,%r13)
	vmovaps	320(%rsp), %ymm1        # 32-byte Reload
	.loc	1 85 1                  # vlasovsolver/cpu_moments.cpp:85:1
	vextractf128	$1, %ymm1, %xmm0
	vmovaps	%xmm0, 48(%rsp)         # 16-byte Spill
                                        # kill: def $xmm1 killed $xmm1 killed $ymm1
	vzeroupper
	callq	_Z15divideIfNonZerodd
	vmovsd	%xmm0, 16(%rbx,%r13)
	.loc	1 86 1                  # vlasovsolver/cpu_moments.cpp:86:1
	vpermilpd	$1, 48(%rsp), %xmm0 # 16-byte Folded Reload
                                        # xmm0 = mem[1,0]
	vmovaps	320(%rsp), %ymm1        # 32-byte Reload
                                        # kill: def $xmm1 killed $xmm1 killed $ymm1
	vzeroupper
	callq	_Z15divideIfNonZerodd
	vmovsd	%xmm0, 24(%rbx,%r13)
.Ltmp21:
	.loc	1 186 1                 # vlasovsolver/cpu_moments.cpp:186:1
	vbroadcastsd	352(%rsp), %ymm0 # 16-byte Folded Reload
	vmovapd	320(%rsp), %ymm1        # 32-byte Reload
	vfmadd213pd	96(%r14), %ymm1, %ymm0 # ymm0 = (ymm1 * ymm0) + mem
	vmovupd	%ymm0, 96(%r14)
	vmovsd	16(%rsp), %xmm0         # 8-byte Reload
                                        # xmm0 = mem[0],zero
	vfmadd213sd	128(%r14), %xmm1, %xmm0 # xmm0 = (xmm1 * xmm0) + mem
	vmovsd	%xmm0, 128(%r14)
	movq	32(%rsp), %rbx          # 8-byte Reload
.Ltmp22:
.LBB0_11:                               # %L_T28354088_54311
                                        #   in Loop: Header=BB0_4 Depth=1
	#DEBUG_VALUE: calculateCellMoments:computeSecond <- [DW_OP_plus_uconst 8] [$rsp+0]
	#DEBUG_VALUE: calculateCellMoments:cell <- [DW_OP_plus_uconst 64] [$rsp+0]
	#DEBUG_VALUE: cell <- [DW_OP_plus_uconst 64] [$rsp+0]
	#DEBUG_VALUE: skipMoments <- 0
	.loc	1 94 1                  # vlasovsolver/cpu_moments.cpp:94:1
	incl	%ebx
.Ltmp23:
	#DEBUG_VALUE: popID <- $ebx
	.loc	1 62 1                  # vlasovsolver/cpu_moments.cpp:62:1
	vzeroupper
	callq	_Z16getObjectWrapperv
	movq	232(%rax), %rcx
	subq	224(%rax), %rcx
	movq	%rcx, %rax
	movabsq	$5675921253449092805, %rdx # imm = 0x4EC4EC4EC4EC4EC5
	imulq	%rdx
	sarq	$6, %rdx
	sarq	$63, %rcx
	subq	%rcx, %rdx
.Ltmp24:
	.loc	1 916 1                 # vlasovsolver/cpu_moments.cpp:916:1
	cmpq	%rbx, %rdx
	jbe	.LBB0_12
.Ltmp25:
.LBB0_4:                                # %L.B1533
                                        # =>This Loop Header: Depth=1
                                        #     Child Loop BB0_8 Depth 2
	#DEBUG_VALUE: calculateCellMoments:computeSecond <- [DW_OP_plus_uconst 8] [$rsp+0]
	#DEBUG_VALUE: calculateCellMoments:cell <- [DW_OP_plus_uconst 64] [$rsp+0]
	#DEBUG_VALUE: cell <- [DW_OP_plus_uconst 64] [$rsp+0]
	#DEBUG_VALUE: skipMoments <- 0
	#DEBUG_VALUE: popID <- $ebx
	.loc	1 1513 1                # vlasovsolver/cpu_moments.cpp:1513:1
	movq	1408(%r14), %r15
	imulq	$608, %rbx, %r13        # imm = 0x260
	.loc	1 309 1                 # vlasovsolver/cpu_moments.cpp:309:1
	cmpl	$0, 580(%r15,%r13)
	je	.LBB0_11
.Ltmp26:
# %bb.5:                                # %L.B0008
                                        #   in Loop: Header=BB0_4 Depth=1
	#DEBUG_VALUE: popID <- $ebx
	#DEBUG_VALUE: calculateCellMoments:computeSecond <- [DW_OP_plus_uconst 8] [$rsp+0]
	#DEBUG_VALUE: calculateCellMoments:cell <- [DW_OP_plus_uconst 64] [$rsp+0]
	#DEBUG_VALUE: cell <- [DW_OP_plus_uconst 64] [$rsp+0]
	#DEBUG_VALUE: skipMoments <- 0
	.loc	1 165 1                 # vlasovsolver/cpu_moments.cpp:165:1
	movq	296(%r15,%r13), %r14
	.loc	1 198 1                 # vlasovsolver/cpu_moments.cpp:198:1
	movq	584(%r15,%r13), %r12
.Ltmp27:
	#DEBUG_VALUE: blockParams <- $r12
	#DEBUG_VALUE: data <- $r14
	.loc	1 68 1                  # vlasovsolver/cpu_moments.cpp:68:1
	callq	_Z16getObjectWrapperv
.Ltmp28:
	.loc	1 1044 1                # vlasovsolver/cpu_moments.cpp:1044:1
	movq	224(%rax), %rax
	movq	%rbx, 32(%rsp)          # 8-byte Spill
	movq	%r13, 24(%rsp)          # 8-byte Spill
	imulq	$208, %rbx, %r13
	vmovsd	40(%rax,%r13), %xmm0    # xmm0 = mem[0],zero
	vmovaps	%xmm0, 352(%rsp)        # 16-byte Spill
.Ltmp29:
	#DEBUG_VALUE: mass <- [DW_OP_plus_uconst 352] [$rsp+0]
	#DEBUG_VALUE: blockParams <- $r12
	#DEBUG_VALUE: data <- $r14
	.loc	1 69 1                  # vlasovsolver/cpu_moments.cpp:69:1
	callq	_Z16getObjectWrapperv
.Ltmp30:
	.loc	1 1044 1                # vlasovsolver/cpu_moments.cpp:1044:1
	movq	224(%rax), %rax
	vmovsd	32(%rax,%r13), %xmm0    # xmm0 = mem[0],zero
.Ltmp31:
	#DEBUG_VALUE: blockLID <- 0
	#DEBUG_VALUE: array <- [DW_OP_LLVM_fragment 192 64] 0.000000e+00
	#DEBUG_VALUE: array <- [DW_OP_LLVM_fragment 128 64] 0.000000e+00
	#DEBUG_VALUE: array <- [DW_OP_LLVM_fragment 64 64] 0.000000e+00
	#DEBUG_VALUE: array <- [DW_OP_LLVM_fragment 0 64] 0.000000e+00
	#DEBUG_VALUE: charge <- $xmm0
	.loc	1 0 1 is_stmt 0         # vlasovsolver/cpu_moments.cpp:0:1
	vmovsd	%xmm0, 16(%rsp)         # 8-byte Spill
.Ltmp32:
	#DEBUG_VALUE: charge <- [DW_OP_plus_uconst 16] [$rsp+0]
	#DEBUG_VALUE: charge <- [DW_OP_plus_uconst 16] [$rsp+0]
	movq	24(%rsp), %r13          # 8-byte Reload
	.loc	1 309 1 is_stmt 1       # vlasovsolver/cpu_moments.cpp:309:1
	movl	580(%r15,%r13), %eax
	testq	%rax, %rax
	je	.LBB0_6
.Ltmp33:
# %bb.7:                                # %L.B1535
                                        #   in Loop: Header=BB0_4 Depth=1
	#DEBUG_VALUE: charge <- [DW_OP_plus_uconst 16] [$rsp+0]
	#DEBUG_VALUE: array <- [DW_OP_LLVM_fragment 0 64] 0.000000e+00
	#DEBUG_VALUE: array <- [DW_OP_LLVM_fragment 64 64] 0.000000e+00
	#DEBUG_VALUE: array <- [DW_OP_LLVM_fragment 128 64] 0.000000e+00
	#DEBUG_VALUE: array <- [DW_OP_LLVM_fragment 192 64] 0.000000e+00
	#DEBUG_VALUE: blockLID <- 0
	#DEBUG_VALUE: mass <- [DW_OP_plus_uconst 352] [$rsp+0]
	#DEBUG_VALUE: data <- $r14
	#DEBUG_VALUE: blockParams <- $r12
	#DEBUG_VALUE: popID <- $ebx
	#DEBUG_VALUE: calculateCellMoments:computeSecond <- [DW_OP_plus_uconst 8] [$rsp+0]
	#DEBUG_VALUE: calculateCellMoments:cell <- [DW_OP_plus_uconst 64] [$rsp+0]
	#DEBUG_VALUE: cell <- [DW_OP_plus_uconst 64] [$rsp+0]
	#DEBUG_VALUE: skipMoments <- 0
	.loc	1 0 1 is_stmt 0         # vlasovsolver/cpu_moments.cpp:0:1
	shlq	$8, %rax
	vxorps	%xmm2, %xmm2, %xmm2
.Ltmp34:
	.loc	1 76 1 is_stmt 1        # vlasovsolver/cpu_moments.cpp:76:1
	xorl	%ecx, %ecx
	xorl	%edx, %edx
	movabsq	$17179868928, %rbx      # imm = 0x3FFFFFF00
.Ltmp35:
	.loc	1 0 1 is_stmt 0         # vlasovsolver/cpu_moments.cpp:0:1
	vmovsd	.LCPI0_0(%rip), %xmm9   # xmm9 = mem[0],zero
	vmovsd	.LCPI0_1(%rip), %xmm10  # xmm10 = mem[0],zero
.Ltmp36:
	.p2align	4, 0x90
.LBB0_8:                                # %L.B0014
                                        #   Parent Loop BB0_4 Depth=1
                                        # =>  This Inner Loop Header: Depth=2
	#DEBUG_VALUE: charge <- [DW_OP_plus_uconst 16] [$rsp+0]
	#DEBUG_VALUE: array <- [DW_OP_LLVM_fragment 0 64] 0.000000e+00
	#DEBUG_VALUE: array <- [DW_OP_LLVM_fragment 64 64] 0.000000e+00
	#DEBUG_VALUE: array <- [DW_OP_LLVM_fragment 128 64] 0.000000e+00
	#DEBUG_VALUE: array <- [DW_OP_LLVM_fragment 192 64] 0.000000e+00
	#DEBUG_VALUE: blockLID <- 0
	#DEBUG_VALUE: mass <- [DW_OP_plus_uconst 352] [$rsp+0]
	#DEBUG_VALUE: data <- $r14
	#DEBUG_VALUE: blockParams <- $r12
	#DEBUG_VALUE: calculateCellMoments:computeSecond <- [DW_OP_plus_uconst 8] [$rsp+0]
	#DEBUG_VALUE: calculateCellMoments:cell <- [DW_OP_plus_uconst 64] [$rsp+0]
	#DEBUG_VALUE: cell <- [DW_OP_plus_uconst 64] [$rsp+0]
	#DEBUG_VALUE: skipMoments <- 0
	vmovaps	%ymm2, 512(%rsp)        # 32-byte Spill
	.loc	1 77 1 is_stmt 1        # vlasovsolver/cpu_moments.cpp:77:1
	movq	%rdx, %rsi
	andq	%rbx, %rsi
	movl	%ecx, %edi
	andl	$-2, %edi
.Ltmp37:
	.loc	1 81 1                  # vlasovsolver/cpu_moments.cpp:81:1
	vmovsd	24(%r12,%rcx,8), %xmm1  # xmm1 = mem[0],zero
	vmovsd	%xmm1, 48(%rsp)         # 8-byte Spill
	vmovsd	40(%r12,%rcx,8), %xmm2  # xmm2 = mem[0],zero
	vmovsd	%xmm2, 320(%rsp)        # 8-byte Spill
	vmovsd	(%r12,%rdi,8), %xmm12   # xmm12 = mem[0],zero
	.loc	1 0 0 is_stmt 0         # vlasovsolver/cpu_moments.cpp:0:0
	vmovsd	8(%r12,%rdi,8), %xmm3   # xmm3 = mem[0],zero
	.loc	1 81 1                  # vlasovsolver/cpu_moments.cpp:81:1
	vfmadd213sd	%xmm12, %xmm1, %xmm9 # xmm9 = (xmm1 * xmm9) + xmm12
	vmovapd	%xmm9, %xmm8
	vfmadd213sd	%xmm12, %xmm1, %xmm10 # xmm10 = (xmm1 * xmm10) + xmm12
	vmovsd	.LCPI0_2(%rip), %xmm13  # xmm13 = mem[0],zero
	vfmadd213sd	%xmm12, %xmm1, %xmm13 # xmm13 = (xmm1 * xmm13) + xmm12
	vmovsd	16(%r12,%rdi,8), %xmm14 # xmm14 = mem[0],zero
	vmovsd	.LCPI0_3(%rip), %xmm11  # xmm11 = mem[0],zero
	vmovapd	%xmm11, %xmm6
	vfmadd213sd	%xmm14, %xmm2, %xmm6 # xmm6 = (xmm2 * xmm6) + xmm14
	vfmadd231sd	%xmm11, %xmm1, %xmm12 # xmm12 = (xmm1 * xmm11) + xmm12
	.loc	1 0 0                   # vlasovsolver/cpu_moments.cpp:0:0
	vmovsd	32(%r12,%rdi,8), %xmm15 # xmm15 = mem[0],zero
	.loc	1 82 1 is_stmt 1        # vlasovsolver/cpu_moments.cpp:82:1
	vfmadd213sd	%xmm3, %xmm15, %xmm11 # xmm11 = (xmm15 * xmm11) + xmm3
	vmovapd	%xmm3, %xmm9
	.loc	1 86 1                  # vlasovsolver/cpu_moments.cpp:86:1
	vmovss	(%r14,%rsi), %xmm0      # xmm0 = mem[0],zero,zero,zero
	vcvtss2sd	%xmm0, %xmm0, %xmm7
	.loc	1 81 1                  # vlasovsolver/cpu_moments.cpp:81:1
	vmovss	4(%r14,%rsi), %xmm1     # xmm1 = mem[0],zero,zero,zero
	.loc	1 87 1                  # vlasovsolver/cpu_moments.cpp:87:1
	vmovapd	%xmm7, %xmm0
	vxorpd	%xmm3, %xmm3, %xmm3
	vfmadd213sd	%xmm3, %xmm12, %xmm0 # xmm0 = (xmm12 * xmm0) + xmm3
	.loc	1 88 1                  # vlasovsolver/cpu_moments.cpp:88:1
	vmovapd	%xmm7, %xmm4
	vfmadd213sd	%xmm3, %xmm11, %xmm4 # xmm4 = (xmm11 * xmm4) + xmm3
	.loc	1 81 1                  # vlasovsolver/cpu_moments.cpp:81:1
	vcvtss2sd	%xmm1, %xmm1, %xmm1
	.loc	1 86 1                  # vlasovsolver/cpu_moments.cpp:86:1
	vaddsd	%xmm3, %xmm7, %xmm5
	.loc	1 89 1                  # vlasovsolver/cpu_moments.cpp:89:1
	vfmadd213sd	%xmm3, %xmm6, %xmm7 # xmm7 = (xmm6 * xmm7) + xmm3
	.loc	1 81 1                  # vlasovsolver/cpu_moments.cpp:81:1
	vaddsd	%xmm1, %xmm5, %xmm5
	vfmadd231sd	%xmm1, %xmm13, %xmm0 # xmm0 = (xmm13 * xmm1) + xmm0
	vfmadd231sd	%xmm1, %xmm11, %xmm4 # xmm4 = (xmm11 * xmm1) + xmm4
	vfmadd231sd	%xmm1, %xmm6, %xmm7 # xmm7 = (xmm6 * xmm1) + xmm7
	vmovss	8(%r14,%rsi), %xmm1     # xmm1 = mem[0],zero,zero,zero
	vcvtss2sd	%xmm1, %xmm1, %xmm1
	vaddsd	%xmm1, %xmm5, %xmm5
	vmovapd	%xmm10, %xmm2
	vmovsd	%xmm10, 40(%rsp)        # 8-byte Spill
	vfmadd231sd	%xmm1, %xmm10, %xmm0 # xmm0 = (xmm10 * xmm1) + xmm0
	vfmadd231sd	%xmm1, %xmm11, %xmm4 # xmm4 = (xmm11 * xmm1) + xmm4
	vfmadd231sd	%xmm1, %xmm6, %xmm7 # xmm7 = (xmm6 * xmm1) + xmm7
	vmovss	12(%r14,%rsi), %xmm1    # xmm1 = mem[0],zero,zero,zero
	vcvtss2sd	%xmm1, %xmm1, %xmm1
	vaddsd	%xmm1, %xmm5, %xmm10
	vmovapd	%xmm8, %xmm5
	vfmadd231sd	%xmm1, %xmm8, %xmm0 # xmm0 = (xmm8 * xmm1) + xmm0
	vfmadd231sd	%xmm1, %xmm11, %xmm4 # xmm4 = (xmm11 * xmm1) + xmm4
	vfmadd231sd	%xmm1, %xmm6, %xmm7 # xmm7 = (xmm6 * xmm1) + xmm7
	.loc	1 82 1                  # vlasovsolver/cpu_moments.cpp:82:1
	vmovsd	.LCPI0_2(%rip), %xmm8   # xmm8 = mem[0],zero
	vmovapd	%xmm9, %xmm3
	vfmadd213sd	%xmm9, %xmm15, %xmm8 # xmm8 = (xmm15 * xmm8) + xmm9
	.loc	1 86 1                  # vlasovsolver/cpu_moments.cpp:86:1
	vmovss	16(%r14,%rsi), %xmm1    # xmm1 = mem[0],zero,zero,zero
	vcvtss2sd	%xmm1, %xmm1, %xmm1
	vaddsd	%xmm1, %xmm10, %xmm10
	.loc	1 87 1                  # vlasovsolver/cpu_moments.cpp:87:1
	vfmadd231sd	%xmm1, %xmm12, %xmm0 # xmm0 = (xmm12 * xmm1) + xmm0
	.loc	1 88 1                  # vlasovsolver/cpu_moments.cpp:88:1
	vfmadd231sd	%xmm1, %xmm8, %xmm4 # xmm4 = (xmm8 * xmm1) + xmm4
	.loc	1 89 1                  # vlasovsolver/cpu_moments.cpp:89:1
	vfmadd231sd	%xmm1, %xmm6, %xmm7 # xmm7 = (xmm6 * xmm1) + xmm7
	.loc	1 81 1                  # vlasovsolver/cpu_moments.cpp:81:1
	vmovss	20(%r14,%rsi), %xmm1    # xmm1 = mem[0],zero,zero,zero
	vcvtss2sd	%xmm1, %xmm1, %xmm1
	vaddsd	%xmm1, %xmm10, %xmm10
	vfmadd231sd	%xmm1, %xmm13, %xmm0 # xmm0 = (xmm13 * xmm1) + xmm0
	vmovss	24(%r14,%rsi), %xmm9    # xmm9 = mem[0],zero,zero,zero
	vcvtss2sd	%xmm9, %xmm9, %xmm9
	vfmadd231sd	%xmm1, %xmm8, %xmm4 # xmm4 = (xmm8 * xmm1) + xmm4
	vfmadd231sd	%xmm1, %xmm6, %xmm7 # xmm7 = (xmm6 * xmm1) + xmm7
	vaddsd	%xmm9, %xmm10, %xmm1
	vmovsd	.LCPI0_1(%rip), %xmm10  # xmm10 = mem[0],zero
	vfmadd231sd	%xmm9, %xmm2, %xmm0 # xmm0 = (xmm2 * xmm9) + xmm0
	vfmadd231sd	%xmm9, %xmm8, %xmm4 # xmm4 = (xmm8 * xmm9) + xmm4
	vfmadd231sd	%xmm9, %xmm6, %xmm7 # xmm7 = (xmm6 * xmm9) + xmm7
	vmovss	28(%r14,%rsi), %xmm2    # xmm2 = mem[0],zero,zero,zero
	vcvtss2sd	%xmm2, %xmm2, %xmm2
	vaddsd	%xmm2, %xmm1, %xmm1
	vfmadd231sd	%xmm2, %xmm5, %xmm0 # xmm0 = (xmm5 * xmm2) + xmm0
	vmovapd	%xmm5, %xmm9
	vfmadd231sd	%xmm2, %xmm8, %xmm4 # xmm4 = (xmm8 * xmm2) + xmm4
	vfmadd231sd	%xmm2, %xmm6, %xmm7 # xmm7 = (xmm6 * xmm2) + xmm7
	.loc	1 82 1                  # vlasovsolver/cpu_moments.cpp:82:1
	vmovapd	%xmm10, %xmm2
	vfmadd213sd	%xmm3, %xmm15, %xmm2 # xmm2 = (xmm15 * xmm2) + xmm3
	vmovapd	%xmm3, %xmm5
	.loc	1 86 1                  # vlasovsolver/cpu_moments.cpp:86:1
	vmovss	32(%r14,%rsi), %xmm3    # xmm3 = mem[0],zero,zero,zero
	vcvtss2sd	%xmm3, %xmm3, %xmm3
	vaddsd	%xmm3, %xmm1, %xmm1
	.loc	1 87 1                  # vlasovsolver/cpu_moments.cpp:87:1
	vfmadd231sd	%xmm3, %xmm12, %xmm0 # xmm0 = (xmm12 * xmm3) + xmm0
	.loc	1 88 1                  # vlasovsolver/cpu_moments.cpp:88:1
	vfmadd231sd	%xmm3, %xmm2, %xmm4 # xmm4 = (xmm2 * xmm3) + xmm4
	.loc	1 89 1                  # vlasovsolver/cpu_moments.cpp:89:1
	vfmadd231sd	%xmm3, %xmm6, %xmm7 # xmm7 = (xmm6 * xmm3) + xmm7
	.loc	1 81 1                  # vlasovsolver/cpu_moments.cpp:81:1
	vmovss	36(%r14,%rsi), %xmm3    # xmm3 = mem[0],zero,zero,zero
	vcvtss2sd	%xmm3, %xmm3, %xmm3
	vaddsd	%xmm3, %xmm1, %xmm1
	vfmadd231sd	%xmm3, %xmm13, %xmm0 # xmm0 = (xmm13 * xmm3) + xmm0
	vfmadd231sd	%xmm3, %xmm2, %xmm4 # xmm4 = (xmm2 * xmm3) + xmm4
	vfmadd231sd	%xmm3, %xmm6, %xmm7 # xmm7 = (xmm6 * xmm3) + xmm7
	vmovss	40(%r14,%rsi), %xmm3    # xmm3 = mem[0],zero,zero,zero
	vcvtss2sd	%xmm3, %xmm3, %xmm3
	vaddsd	%xmm3, %xmm1, %xmm1
	vmovsd	40(%rsp), %xmm10        # 8-byte Reload
                                        # xmm10 = mem[0],zero
	vfmadd231sd	%xmm3, %xmm10, %xmm0 # xmm0 = (xmm10 * xmm3) + xmm0
	vfmadd231sd	%xmm3, %xmm2, %xmm4 # xmm4 = (xmm2 * xmm3) + xmm4
	vfmadd231sd	%xmm3, %xmm6, %xmm7 # xmm7 = (xmm6 * xmm3) + xmm7
	.loc	1 82 1                  # vlasovsolver/cpu_moments.cpp:82:1
	vfmadd132sd	.LCPI0_0(%rip), %xmm5, %xmm15 # xmm15 = (xmm15 * mem) + xmm5
	.loc	1 81 1                  # vlasovsolver/cpu_moments.cpp:81:1
	vmovss	44(%r14,%rsi), %xmm3    # xmm3 = mem[0],zero,zero,zero
	vcvtss2sd	%xmm3, %xmm3, %xmm3
	vaddsd	%xmm3, %xmm1, %xmm1
	vmovapd	%xmm9, %xmm5
	vfmadd231sd	%xmm3, %xmm9, %xmm0 # xmm0 = (xmm9 * xmm3) + xmm0
	vfmadd231sd	%xmm3, %xmm2, %xmm4 # xmm4 = (xmm2 * xmm3) + xmm4
	vfmadd231sd	%xmm3, %xmm6, %xmm7 # xmm7 = (xmm6 * xmm3) + xmm7
	.loc	1 86 1                  # vlasovsolver/cpu_moments.cpp:86:1
	vmovss	48(%r14,%rsi), %xmm3    # xmm3 = mem[0],zero,zero,zero
	vcvtss2sd	%xmm3, %xmm3, %xmm3
	vaddsd	%xmm3, %xmm1, %xmm1
	.loc	1 87 1                  # vlasovsolver/cpu_moments.cpp:87:1
	vfmadd231sd	%xmm3, %xmm12, %xmm0 # xmm0 = (xmm12 * xmm3) + xmm0
	.loc	1 88 1                  # vlasovsolver/cpu_moments.cpp:88:1
	vfmadd231sd	%xmm3, %xmm15, %xmm4 # xmm4 = (xmm15 * xmm3) + xmm4
	.loc	1 89 1                  # vlasovsolver/cpu_moments.cpp:89:1
	vfmadd231sd	%xmm3, %xmm6, %xmm7 # xmm7 = (xmm6 * xmm3) + xmm7
	.loc	1 81 1                  # vlasovsolver/cpu_moments.cpp:81:1
	vmovss	52(%r14,%rsi), %xmm3    # xmm3 = mem[0],zero,zero,zero
	vcvtss2sd	%xmm3, %xmm3, %xmm3
	vaddsd	%xmm3, %xmm1, %xmm1
	vfmadd231sd	%xmm3, %xmm13, %xmm0 # xmm0 = (xmm13 * xmm3) + xmm0
	vfmadd231sd	%xmm3, %xmm15, %xmm4 # xmm4 = (xmm15 * xmm3) + xmm4
	vfmadd231sd	%xmm3, %xmm6, %xmm7 # xmm7 = (xmm6 * xmm3) + xmm7
	vmovss	56(%r14,%rsi), %xmm3    # xmm3 = mem[0],zero,zero,zero
	vcvtss2sd	%xmm3, %xmm3, %xmm3
	vaddsd	%xmm3, %xmm1, %xmm1
	vfmadd231sd	%xmm3, %xmm10, %xmm0 # xmm0 = (xmm10 * xmm3) + xmm0
	vmovapd	%xmm10, %xmm9
	vfmadd231sd	%xmm3, %xmm15, %xmm4 # xmm4 = (xmm15 * xmm3) + xmm4
	vfmadd231sd	%xmm3, %xmm6, %xmm7 # xmm7 = (xmm6 * xmm3) + xmm7
	vmovss	60(%r14,%rsi), %xmm3    # xmm3 = mem[0],zero,zero,zero
	vcvtss2sd	%xmm3, %xmm3, %xmm3
	vfmadd231sd	%xmm6, %xmm3, %xmm7 # xmm7 = (xmm3 * xmm6) + xmm7
	vaddsd	%xmm3, %xmm1, %xmm1
	vfmadd231sd	%xmm3, %xmm5, %xmm0 # xmm0 = (xmm5 * xmm3) + xmm0
	vmovapd	%xmm5, %xmm10
	vfmadd231sd	%xmm3, %xmm15, %xmm4 # xmm4 = (xmm15 * xmm3) + xmm4
	vmovsd	.LCPI0_2(%rip), %xmm6   # xmm6 = mem[0],zero
	vfmadd132sd	320(%rsp), %xmm14, %xmm6 # 8-byte Folded Reload
                                        # xmm6 = (xmm6 * mem) + xmm14
	vmovss	64(%r14,%rsi), %xmm3    # xmm3 = mem[0],zero,zero,zero
	vcvtss2sd	%xmm3, %xmm3, %xmm3
	vaddsd	%xmm3, %xmm1, %xmm1
	vfmadd231sd	%xmm3, %xmm12, %xmm0 # xmm0 = (xmm12 * xmm3) + xmm0
	vfmadd231sd	%xmm3, %xmm11, %xmm4 # xmm4 = (xmm11 * xmm3) + xmm4
	vfmadd231sd	%xmm3, %xmm6, %xmm7 # xmm7 = (xmm6 * xmm3) + xmm7
	vmovss	68(%r14,%rsi), %xmm3    # xmm3 = mem[0],zero,zero,zero
	vcvtss2sd	%xmm3, %xmm3, %xmm3
	vaddsd	%xmm3, %xmm1, %xmm1
	vfmadd231sd	%xmm3, %xmm13, %xmm0 # xmm0 = (xmm13 * xmm3) + xmm0
	vfmadd231sd	%xmm3, %xmm11, %xmm4 # xmm4 = (xmm11 * xmm3) + xmm4
	vfmadd231sd	%xmm3, %xmm6, %xmm7 # xmm7 = (xmm6 * xmm3) + xmm7
	vmovss	72(%r14,%rsi), %xmm3    # xmm3 = mem[0],zero,zero,zero
	vcvtss2sd	%xmm3, %xmm3, %xmm3
	vaddsd	%xmm3, %xmm1, %xmm1
	vfmadd231sd	%xmm3, %xmm9, %xmm0 # xmm0 = (xmm9 * xmm3) + xmm0
	vfmadd231sd	%xmm3, %xmm11, %xmm4 # xmm4 = (xmm11 * xmm3) + xmm4
	vfmadd231sd	%xmm3, %xmm6, %xmm7 # xmm7 = (xmm6 * xmm3) + xmm7
	vmovss	76(%r14,%rsi), %xmm3    # xmm3 = mem[0],zero,zero,zero
	vcvtss2sd	%xmm3, %xmm3, %xmm3
	vaddsd	%xmm3, %xmm1, %xmm1
	vfmadd231sd	%xmm3, %xmm5, %xmm0 # xmm0 = (xmm5 * xmm3) + xmm0
	vfmadd231sd	%xmm3, %xmm11, %xmm4 # xmm4 = (xmm11 * xmm3) + xmm4
	vfmadd231sd	%xmm3, %xmm6, %xmm7 # xmm7 = (xmm6 * xmm3) + xmm7
	vmovss	80(%r14,%rsi), %xmm3    # xmm3 = mem[0],zero,zero,zero
	vcvtss2sd	%xmm3, %xmm3, %xmm3
	vaddsd	%xmm3, %xmm1, %xmm1
	vfmadd231sd	%xmm3, %xmm12, %xmm0 # xmm0 = (xmm12 * xmm3) + xmm0
	vmovss	84(%r14,%rsi), %xmm5    # xmm5 = mem[0],zero,zero,zero
	vcvtss2sd	%xmm5, %xmm5, %xmm5
	vfmadd231sd	%xmm3, %xmm8, %xmm4 # xmm4 = (xmm8 * xmm3) + xmm4
	vfmadd231sd	%xmm3, %xmm6, %xmm7 # xmm7 = (xmm6 * xmm3) + xmm7
	vaddsd	%xmm5, %xmm1, %xmm1
	vfmadd231sd	%xmm5, %xmm13, %xmm0 # xmm0 = (xmm13 * xmm5) + xmm0
	vfmadd231sd	%xmm5, %xmm8, %xmm4 # xmm4 = (xmm8 * xmm5) + xmm4
	vfmadd231sd	%xmm5, %xmm6, %xmm7 # xmm7 = (xmm6 * xmm5) + xmm7
	vmovss	88(%r14,%rsi), %xmm3    # xmm3 = mem[0],zero,zero,zero
	vcvtss2sd	%xmm3, %xmm3, %xmm3
	vaddsd	%xmm3, %xmm1, %xmm1
	vfmadd231sd	%xmm3, %xmm9, %xmm0 # xmm0 = (xmm9 * xmm3) + xmm0
	vfmadd231sd	%xmm3, %xmm8, %xmm4 # xmm4 = (xmm8 * xmm3) + xmm4
	vfmadd231sd	%xmm3, %xmm6, %xmm7 # xmm7 = (xmm6 * xmm3) + xmm7
	vmovss	92(%r14,%rsi), %xmm3    # xmm3 = mem[0],zero,zero,zero
	vcvtss2sd	%xmm3, %xmm3, %xmm3
	vaddsd	%xmm3, %xmm1, %xmm1
	vfmadd231sd	%xmm3, %xmm10, %xmm0 # xmm0 = (xmm10 * xmm3) + xmm0
	vfmadd231sd	%xmm3, %xmm8, %xmm4 # xmm4 = (xmm8 * xmm3) + xmm4
	vfmadd231sd	%xmm3, %xmm6, %xmm7 # xmm7 = (xmm6 * xmm3) + xmm7
	vmovss	96(%r14,%rsi), %xmm3    # xmm3 = mem[0],zero,zero,zero
	vcvtss2sd	%xmm3, %xmm3, %xmm3
	vaddsd	%xmm3, %xmm1, %xmm1
	vfmadd231sd	%xmm3, %xmm12, %xmm0 # xmm0 = (xmm12 * xmm3) + xmm0
	vfmadd231sd	%xmm3, %xmm2, %xmm4 # xmm4 = (xmm2 * xmm3) + xmm4
	vfmadd231sd	%xmm3, %xmm6, %xmm7 # xmm7 = (xmm6 * xmm3) + xmm7
	vmovss	100(%r14,%rsi), %xmm3   # xmm3 = mem[0],zero,zero,zero
	vcvtss2sd	%xmm3, %xmm3, %xmm3
	vaddsd	%xmm3, %xmm1, %xmm1
	vfmadd231sd	%xmm3, %xmm13, %xmm0 # xmm0 = (xmm13 * xmm3) + xmm0
	vfmadd231sd	%xmm3, %xmm2, %xmm4 # xmm4 = (xmm2 * xmm3) + xmm4
	vfmadd231sd	%xmm3, %xmm6, %xmm7 # xmm7 = (xmm6 * xmm3) + xmm7
	vmovss	104(%r14,%rsi), %xmm3   # xmm3 = mem[0],zero,zero,zero
	vcvtss2sd	%xmm3, %xmm3, %xmm3
	vaddsd	%xmm3, %xmm1, %xmm1
	vfmadd231sd	%xmm3, %xmm9, %xmm0 # xmm0 = (xmm9 * xmm3) + xmm0
	vmovss	108(%r14,%rsi), %xmm5   # xmm5 = mem[0],zero,zero,zero
	vcvtss2sd	%xmm5, %xmm5, %xmm5
	vfmadd231sd	%xmm3, %xmm2, %xmm4 # xmm4 = (xmm2 * xmm3) + xmm4
	vfmadd231sd	%xmm3, %xmm6, %xmm7 # xmm7 = (xmm6 * xmm3) + xmm7
	vaddsd	%xmm5, %xmm1, %xmm1
	vfmadd231sd	%xmm5, %xmm10, %xmm0 # xmm0 = (xmm10 * xmm5) + xmm0
	vfmadd231sd	%xmm5, %xmm2, %xmm4 # xmm4 = (xmm2 * xmm5) + xmm4
	vfmadd231sd	%xmm5, %xmm6, %xmm7 # xmm7 = (xmm6 * xmm5) + xmm7
	vmovss	112(%r14,%rsi), %xmm3   # xmm3 = mem[0],zero,zero,zero
	vcvtss2sd	%xmm3, %xmm3, %xmm3
	vaddsd	%xmm3, %xmm1, %xmm1
	vfmadd231sd	%xmm3, %xmm12, %xmm0 # xmm0 = (xmm12 * xmm3) + xmm0
	vfmadd231sd	%xmm3, %xmm15, %xmm4 # xmm4 = (xmm15 * xmm3) + xmm4
	vfmadd231sd	%xmm3, %xmm6, %xmm7 # xmm7 = (xmm6 * xmm3) + xmm7
	vmovss	116(%r14,%rsi), %xmm3   # xmm3 = mem[0],zero,zero,zero
	vcvtss2sd	%xmm3, %xmm3, %xmm3
	vaddsd	%xmm3, %xmm1, %xmm1
	vfmadd231sd	%xmm3, %xmm13, %xmm0 # xmm0 = (xmm13 * xmm3) + xmm0
	vfmadd231sd	%xmm3, %xmm15, %xmm4 # xmm4 = (xmm15 * xmm3) + xmm4
	vfmadd231sd	%xmm3, %xmm6, %xmm7 # xmm7 = (xmm6 * xmm3) + xmm7
	vmovss	120(%r14,%rsi), %xmm3   # xmm3 = mem[0],zero,zero,zero
	vcvtss2sd	%xmm3, %xmm3, %xmm3
	vaddsd	%xmm3, %xmm1, %xmm1
	vfmadd231sd	%xmm3, %xmm9, %xmm0 # xmm0 = (xmm9 * xmm3) + xmm0
	vfmadd231sd	%xmm3, %xmm15, %xmm4 # xmm4 = (xmm15 * xmm3) + xmm4
	vfmadd231sd	%xmm3, %xmm6, %xmm7 # xmm7 = (xmm6 * xmm3) + xmm7
	vmovss	124(%r14,%rsi), %xmm3   # xmm3 = mem[0],zero,zero,zero
	vcvtss2sd	%xmm3, %xmm3, %xmm3
	vfmadd231sd	%xmm6, %xmm3, %xmm7 # xmm7 = (xmm3 * xmm6) + xmm7
	vaddsd	%xmm3, %xmm1, %xmm1
	vfmadd231sd	%xmm3, %xmm10, %xmm0 # xmm0 = (xmm10 * xmm3) + xmm0
	vfmadd231sd	%xmm3, %xmm15, %xmm4 # xmm4 = (xmm15 * xmm3) + xmm4
	vmovss	128(%r14,%rsi), %xmm3   # xmm3 = mem[0],zero,zero,zero
	vcvtss2sd	%xmm3, %xmm3, %xmm3
	vmovsd	.LCPI0_1(%rip), %xmm6   # xmm6 = mem[0],zero
	vfmadd132sd	320(%rsp), %xmm14, %xmm6 # 8-byte Folded Reload
                                        # xmm6 = (xmm6 * mem) + xmm14
	vaddsd	%xmm3, %xmm1, %xmm1
	vfmadd231sd	%xmm3, %xmm12, %xmm0 # xmm0 = (xmm12 * xmm3) + xmm0
	vfmadd231sd	%xmm3, %xmm11, %xmm4 # xmm4 = (xmm11 * xmm3) + xmm4
	vfmadd231sd	%xmm3, %xmm6, %xmm7 # xmm7 = (xmm6 * xmm3) + xmm7
	vmovss	132(%r14,%rsi), %xmm3   # xmm3 = mem[0],zero,zero,zero
	vcvtss2sd	%xmm3, %xmm3, %xmm3
	vaddsd	%xmm3, %xmm1, %xmm1
	vfmadd231sd	%xmm3, %xmm13, %xmm0 # xmm0 = (xmm13 * xmm3) + xmm0
	vfmadd231sd	%xmm3, %xmm11, %xmm4 # xmm4 = (xmm11 * xmm3) + xmm4
	vfmadd231sd	%xmm3, %xmm6, %xmm7 # xmm7 = (xmm6 * xmm3) + xmm7
	vmovss	136(%r14,%rsi), %xmm3   # xmm3 = mem[0],zero,zero,zero
	vcvtss2sd	%xmm3, %xmm3, %xmm3
	vaddsd	%xmm3, %xmm1, %xmm1
	vfmadd231sd	%xmm3, %xmm9, %xmm0 # xmm0 = (xmm9 * xmm3) + xmm0
	vfmadd231sd	%xmm3, %xmm11, %xmm4 # xmm4 = (xmm11 * xmm3) + xmm4
	vfmadd231sd	%xmm3, %xmm6, %xmm7 # xmm7 = (xmm6 * xmm3) + xmm7
	vmovss	140(%r14,%rsi), %xmm3   # xmm3 = mem[0],zero,zero,zero
	vcvtss2sd	%xmm3, %xmm3, %xmm3
	vaddsd	%xmm3, %xmm1, %xmm1
	vfmadd231sd	%xmm3, %xmm10, %xmm0 # xmm0 = (xmm10 * xmm3) + xmm0
	vfmadd231sd	%xmm3, %xmm11, %xmm4 # xmm4 = (xmm11 * xmm3) + xmm4
	vfmadd231sd	%xmm3, %xmm6, %xmm7 # xmm7 = (xmm6 * xmm3) + xmm7
	vmovss	144(%r14,%rsi), %xmm3   # xmm3 = mem[0],zero,zero,zero
	vcvtss2sd	%xmm3, %xmm3, %xmm3
	vaddsd	%xmm3, %xmm1, %xmm1
	vfmadd231sd	%xmm3, %xmm12, %xmm0 # xmm0 = (xmm12 * xmm3) + xmm0
	vfmadd231sd	%xmm3, %xmm8, %xmm4 # xmm4 = (xmm8 * xmm3) + xmm4
	vfmadd231sd	%xmm3, %xmm6, %xmm7 # xmm7 = (xmm6 * xmm3) + xmm7
	vmovss	148(%r14,%rsi), %xmm3   # xmm3 = mem[0],zero,zero,zero
	vcvtss2sd	%xmm3, %xmm3, %xmm3
	vaddsd	%xmm3, %xmm1, %xmm1
	vfmadd231sd	%xmm3, %xmm13, %xmm0 # xmm0 = (xmm13 * xmm3) + xmm0
	vmovss	152(%r14,%rsi), %xmm5   # xmm5 = mem[0],zero,zero,zero
	vcvtss2sd	%xmm5, %xmm5, %xmm5
	vfmadd231sd	%xmm3, %xmm8, %xmm4 # xmm4 = (xmm8 * xmm3) + xmm4
	vfmadd231sd	%xmm3, %xmm6, %xmm7 # xmm7 = (xmm6 * xmm3) + xmm7
	vaddsd	%xmm5, %xmm1, %xmm1
	vfmadd231sd	%xmm5, %xmm9, %xmm0 # xmm0 = (xmm9 * xmm5) + xmm0
	vfmadd231sd	%xmm5, %xmm8, %xmm4 # xmm4 = (xmm8 * xmm5) + xmm4
	vfmadd231sd	%xmm5, %xmm6, %xmm7 # xmm7 = (xmm6 * xmm5) + xmm7
	vmovss	156(%r14,%rsi), %xmm3   # xmm3 = mem[0],zero,zero,zero
	vcvtss2sd	%xmm3, %xmm3, %xmm3
	vaddsd	%xmm3, %xmm1, %xmm1
	vfmadd231sd	%xmm3, %xmm10, %xmm0 # xmm0 = (xmm10 * xmm3) + xmm0
	vfmadd231sd	%xmm3, %xmm8, %xmm4 # xmm4 = (xmm8 * xmm3) + xmm4
	vfmadd231sd	%xmm3, %xmm6, %xmm7 # xmm7 = (xmm6 * xmm3) + xmm7
	vmovss	160(%r14,%rsi), %xmm3   # xmm3 = mem[0],zero,zero,zero
	vcvtss2sd	%xmm3, %xmm3, %xmm3
	vaddsd	%xmm3, %xmm1, %xmm1
	vfmadd231sd	%xmm3, %xmm12, %xmm0 # xmm0 = (xmm12 * xmm3) + xmm0
	vfmadd231sd	%xmm3, %xmm2, %xmm4 # xmm4 = (xmm2 * xmm3) + xmm4
	vfmadd231sd	%xmm3, %xmm6, %xmm7 # xmm7 = (xmm6 * xmm3) + xmm7
	vmovss	164(%r14,%rsi), %xmm3   # xmm3 = mem[0],zero,zero,zero
	vcvtss2sd	%xmm3, %xmm3, %xmm3
	vaddsd	%xmm3, %xmm1, %xmm1
	vfmadd231sd	%xmm3, %xmm13, %xmm0 # xmm0 = (xmm13 * xmm3) + xmm0
	vfmadd231sd	%xmm3, %xmm2, %xmm4 # xmm4 = (xmm2 * xmm3) + xmm4
	vfmadd231sd	%xmm3, %xmm6, %xmm7 # xmm7 = (xmm6 * xmm3) + xmm7
	vmovss	168(%r14,%rsi), %xmm3   # xmm3 = mem[0],zero,zero,zero
	vcvtss2sd	%xmm3, %xmm3, %xmm3
	vaddsd	%xmm3, %xmm1, %xmm1
	vfmadd231sd	%xmm3, %xmm9, %xmm0 # xmm0 = (xmm9 * xmm3) + xmm0
	vfmadd231sd	%xmm3, %xmm2, %xmm4 # xmm4 = (xmm2 * xmm3) + xmm4
	vfmadd231sd	%xmm3, %xmm6, %xmm7 # xmm7 = (xmm6 * xmm3) + xmm7
	vmovss	172(%r14,%rsi), %xmm3   # xmm3 = mem[0],zero,zero,zero
	vcvtss2sd	%xmm3, %xmm3, %xmm3
	vaddsd	%xmm3, %xmm1, %xmm1
	vfmadd231sd	%xmm3, %xmm10, %xmm0 # xmm0 = (xmm10 * xmm3) + xmm0
	vmovss	176(%r14,%rsi), %xmm5   # xmm5 = mem[0],zero,zero,zero
	vcvtss2sd	%xmm5, %xmm5, %xmm5
	vfmadd231sd	%xmm3, %xmm2, %xmm4 # xmm4 = (xmm2 * xmm3) + xmm4
	vfmadd231sd	%xmm3, %xmm6, %xmm7 # xmm7 = (xmm6 * xmm3) + xmm7
	vaddsd	%xmm5, %xmm1, %xmm1
	vfmadd231sd	%xmm5, %xmm12, %xmm0 # xmm0 = (xmm12 * xmm5) + xmm0
	vfmadd231sd	%xmm5, %xmm15, %xmm4 # xmm4 = (xmm15 * xmm5) + xmm4
	vfmadd231sd	%xmm5, %xmm6, %xmm7 # xmm7 = (xmm6 * xmm5) + xmm7
	vmovss	180(%r14,%rsi), %xmm3   # xmm3 = mem[0],zero,zero,zero
	vcvtss2sd	%xmm3, %xmm3, %xmm3
	vaddsd	%xmm3, %xmm1, %xmm1
	vfmadd231sd	%xmm3, %xmm13, %xmm0 # xmm0 = (xmm13 * xmm3) + xmm0
	vfmadd231sd	%xmm3, %xmm15, %xmm4 # xmm4 = (xmm15 * xmm3) + xmm4
	vfmadd231sd	%xmm3, %xmm6, %xmm7 # xmm7 = (xmm6 * xmm3) + xmm7
	vmovss	184(%r14,%rsi), %xmm3   # xmm3 = mem[0],zero,zero,zero
	vcvtss2sd	%xmm3, %xmm3, %xmm3
	vaddsd	%xmm3, %xmm1, %xmm1
	vfmadd231sd	%xmm3, %xmm9, %xmm0 # xmm0 = (xmm9 * xmm3) + xmm0
	vfmadd231sd	%xmm3, %xmm15, %xmm4 # xmm4 = (xmm15 * xmm3) + xmm4
	vfmadd231sd	%xmm3, %xmm6, %xmm7 # xmm7 = (xmm6 * xmm3) + xmm7
	vmovss	188(%r14,%rsi), %xmm3   # xmm3 = mem[0],zero,zero,zero
	vcvtss2sd	%xmm3, %xmm3, %xmm3
	vfmadd231sd	%xmm6, %xmm3, %xmm7 # xmm7 = (xmm3 * xmm6) + xmm7
	vaddsd	%xmm3, %xmm1, %xmm1
	vfmadd231sd	%xmm3, %xmm10, %xmm0 # xmm0 = (xmm10 * xmm3) + xmm0
	vfmadd231sd	%xmm3, %xmm15, %xmm4 # xmm4 = (xmm15 * xmm3) + xmm4
	vmovsd	320(%rsp), %xmm6        # 8-byte Reload
                                        # xmm6 = mem[0],zero
	vfmadd231sd	.LCPI0_0(%rip), %xmm6, %xmm14 # xmm14 = (xmm6 * mem) + xmm14
	vmovss	192(%r14,%rsi), %xmm3   # xmm3 = mem[0],zero,zero,zero
	vcvtss2sd	%xmm3, %xmm3, %xmm3
	vaddsd	%xmm3, %xmm1, %xmm1
	vfmadd231sd	%xmm3, %xmm12, %xmm0 # xmm0 = (xmm12 * xmm3) + xmm0
	vmovss	196(%r14,%rsi), %xmm5   # xmm5 = mem[0],zero,zero,zero
	vcvtss2sd	%xmm5, %xmm5, %xmm5
	vfmadd231sd	%xmm3, %xmm11, %xmm4 # xmm4 = (xmm11 * xmm3) + xmm4
	vfmadd231sd	%xmm3, %xmm14, %xmm7 # xmm7 = (xmm14 * xmm3) + xmm7
	vaddsd	%xmm5, %xmm1, %xmm1
	vfmadd231sd	%xmm5, %xmm13, %xmm0 # xmm0 = (xmm13 * xmm5) + xmm0
	vfmadd231sd	%xmm5, %xmm11, %xmm4 # xmm4 = (xmm11 * xmm5) + xmm4
	vfmadd231sd	%xmm5, %xmm14, %xmm7 # xmm7 = (xmm14 * xmm5) + xmm7
	vmovss	200(%r14,%rsi), %xmm3   # xmm3 = mem[0],zero,zero,zero
	vcvtss2sd	%xmm3, %xmm3, %xmm3
	vaddsd	%xmm3, %xmm1, %xmm1
	vfmadd231sd	%xmm3, %xmm9, %xmm0 # xmm0 = (xmm9 * xmm3) + xmm0
	vfmadd231sd	%xmm3, %xmm11, %xmm4 # xmm4 = (xmm11 * xmm3) + xmm4
	vfmadd231sd	%xmm3, %xmm14, %xmm7 # xmm7 = (xmm14 * xmm3) + xmm7
	vmovss	204(%r14,%rsi), %xmm3   # xmm3 = mem[0],zero,zero,zero
	vcvtss2sd	%xmm3, %xmm3, %xmm3
	vfmadd213sd	%xmm4, %xmm3, %xmm11 # xmm11 = (xmm3 * xmm11) + xmm4
	vaddsd	%xmm3, %xmm1, %xmm1
	vfmadd231sd	%xmm3, %xmm10, %xmm0 # xmm0 = (xmm10 * xmm3) + xmm0
	vfmadd231sd	%xmm3, %xmm14, %xmm7 # xmm7 = (xmm14 * xmm3) + xmm7
	vmovss	208(%r14,%rsi), %xmm3   # xmm3 = mem[0],zero,zero,zero
	vcvtss2sd	%xmm3, %xmm3, %xmm3
	vaddsd	%xmm3, %xmm1, %xmm1
	vfmadd231sd	%xmm3, %xmm12, %xmm0 # xmm0 = (xmm12 * xmm3) + xmm0
	vfmadd231sd	%xmm3, %xmm8, %xmm11 # xmm11 = (xmm8 * xmm3) + xmm11
	vfmadd231sd	%xmm3, %xmm14, %xmm7 # xmm7 = (xmm14 * xmm3) + xmm7
	vmovss	212(%r14,%rsi), %xmm3   # xmm3 = mem[0],zero,zero,zero
	vcvtss2sd	%xmm3, %xmm3, %xmm3
	vaddsd	%xmm3, %xmm1, %xmm1
	vfmadd231sd	%xmm3, %xmm13, %xmm0 # xmm0 = (xmm13 * xmm3) + xmm0
	vfmadd231sd	%xmm3, %xmm8, %xmm11 # xmm11 = (xmm8 * xmm3) + xmm11
	vfmadd231sd	%xmm3, %xmm14, %xmm7 # xmm7 = (xmm14 * xmm3) + xmm7
	vmovss	216(%r14,%rsi), %xmm3   # xmm3 = mem[0],zero,zero,zero
	vcvtss2sd	%xmm3, %xmm3, %xmm3
	vaddsd	%xmm3, %xmm1, %xmm1
	vfmadd231sd	%xmm3, %xmm9, %xmm0 # xmm0 = (xmm9 * xmm3) + xmm0
	vmovss	220(%r14,%rsi), %xmm4   # xmm4 = mem[0],zero,zero,zero
	vcvtss2sd	%xmm4, %xmm4, %xmm4
	vfmadd231sd	%xmm3, %xmm8, %xmm11 # xmm11 = (xmm8 * xmm3) + xmm11
	vfmadd231sd	%xmm3, %xmm14, %xmm7 # xmm7 = (xmm14 * xmm3) + xmm7
	vfmadd213sd	%xmm11, %xmm4, %xmm8 # xmm8 = (xmm4 * xmm8) + xmm11
	vaddsd	%xmm4, %xmm1, %xmm1
	vfmadd231sd	%xmm4, %xmm10, %xmm0 # xmm0 = (xmm10 * xmm4) + xmm0
	vfmadd231sd	%xmm4, %xmm14, %xmm7 # xmm7 = (xmm14 * xmm4) + xmm7
	vmovss	224(%r14,%rsi), %xmm3   # xmm3 = mem[0],zero,zero,zero
	vcvtss2sd	%xmm3, %xmm3, %xmm3
	vaddsd	%xmm3, %xmm1, %xmm1
	vfmadd231sd	%xmm3, %xmm12, %xmm0 # xmm0 = (xmm12 * xmm3) + xmm0
	vfmadd231sd	%xmm3, %xmm2, %xmm8 # xmm8 = (xmm2 * xmm3) + xmm8
	vfmadd231sd	%xmm3, %xmm14, %xmm7 # xmm7 = (xmm14 * xmm3) + xmm7
	vmovss	228(%r14,%rsi), %xmm3   # xmm3 = mem[0],zero,zero,zero
	vcvtss2sd	%xmm3, %xmm3, %xmm3
	vaddsd	%xmm3, %xmm1, %xmm1
	vfmadd231sd	%xmm3, %xmm13, %xmm0 # xmm0 = (xmm13 * xmm3) + xmm0
	vfmadd231sd	%xmm3, %xmm2, %xmm8 # xmm8 = (xmm2 * xmm3) + xmm8
	vfmadd231sd	%xmm3, %xmm14, %xmm7 # xmm7 = (xmm14 * xmm3) + xmm7
	vmovss	232(%r14,%rsi), %xmm3   # xmm3 = mem[0],zero,zero,zero
	vcvtss2sd	%xmm3, %xmm3, %xmm3
	vaddsd	%xmm3, %xmm1, %xmm1
	vfmadd231sd	%xmm3, %xmm9, %xmm0 # xmm0 = (xmm9 * xmm3) + xmm0
	vfmadd231sd	%xmm3, %xmm2, %xmm8 # xmm8 = (xmm2 * xmm3) + xmm8
	vfmadd231sd	%xmm3, %xmm14, %xmm7 # xmm7 = (xmm14 * xmm3) + xmm7
	vmovss	236(%r14,%rsi), %xmm3   # xmm3 = mem[0],zero,zero,zero
	vcvtss2sd	%xmm3, %xmm3, %xmm3
	vfmadd213sd	%xmm8, %xmm3, %xmm2 # xmm2 = (xmm3 * xmm2) + xmm8
	vaddsd	%xmm3, %xmm1, %xmm1
	vfmadd231sd	%xmm3, %xmm10, %xmm0 # xmm0 = (xmm10 * xmm3) + xmm0
	vfmadd231sd	%xmm3, %xmm14, %xmm7 # xmm7 = (xmm14 * xmm3) + xmm7
	vmovss	240(%r14,%rsi), %xmm3   # xmm3 = mem[0],zero,zero,zero
	vcvtss2sd	%xmm3, %xmm3, %xmm3
	vaddsd	%xmm3, %xmm1, %xmm1
	vfmadd213sd	%xmm0, %xmm3, %xmm12 # xmm12 = (xmm3 * xmm12) + xmm0
	vmovss	244(%r14,%rsi), %xmm0   # xmm0 = mem[0],zero,zero,zero
	vcvtss2sd	%xmm0, %xmm0, %xmm0
	vfmadd231sd	%xmm3, %xmm15, %xmm2 # xmm2 = (xmm15 * xmm3) + xmm2
	vfmadd231sd	%xmm3, %xmm14, %xmm7 # xmm7 = (xmm14 * xmm3) + xmm7
	vfmadd213sd	%xmm12, %xmm0, %xmm13 # xmm13 = (xmm0 * xmm13) + xmm12
	vaddsd	%xmm0, %xmm1, %xmm1
	vfmadd231sd	%xmm0, %xmm15, %xmm2 # xmm2 = (xmm15 * xmm0) + xmm2
	vfmadd231sd	%xmm0, %xmm14, %xmm7 # xmm7 = (xmm14 * xmm0) + xmm7
	vmovss	248(%r14,%rsi), %xmm0   # xmm0 = mem[0],zero,zero,zero
	vcvtss2sd	%xmm0, %xmm0, %xmm0
	vfmadd213sd	%xmm13, %xmm0, %xmm9 # xmm9 = (xmm0 * xmm9) + xmm13
	vaddsd	%xmm0, %xmm1, %xmm1
	vfmadd231sd	%xmm0, %xmm15, %xmm2 # xmm2 = (xmm15 * xmm0) + xmm2
	vfmadd231sd	%xmm0, %xmm14, %xmm7 # xmm7 = (xmm14 * xmm0) + xmm7
	vmovss	252(%r14,%rsi), %xmm0   # xmm0 = mem[0],zero,zero,zero
	vcvtss2sd	%xmm0, %xmm0, %xmm0
	vfmadd213sd	%xmm9, %xmm0, %xmm10 # xmm10 = (xmm0 * xmm10) + xmm9
	vmovsd	.LCPI0_0(%rip), %xmm9   # xmm9 = mem[0],zero
	vfmadd213sd	%xmm2, %xmm0, %xmm15 # xmm15 = (xmm0 * xmm15) + xmm2
	vfmadd231sd	%xmm14, %xmm0, %xmm7 # xmm7 = (xmm0 * xmm14) + xmm7
	vaddsd	%xmm0, %xmm1, %xmm0
.Ltmp38:
	.loc	1 92 1                  # vlasovsolver/cpu_moments.cpp:92:1
	vunpcklpd	%xmm10, %xmm0, %xmm1 # xmm1 = xmm0[0],xmm10[0]
	vmovsd	48(%rsp), %xmm0         # 8-byte Reload
                                        # xmm0 = mem[0],zero
.Ltmp39:
	.loc	1 90 1                  # vlasovsolver/cpu_moments.cpp:90:1
	vmulsd	32(%r12,%rcx,8), %xmm0, %xmm0
	vmulsd	%xmm0, %xmm6, %xmm2
	vmovsd	.LCPI0_1(%rip), %xmm10  # xmm10 = mem[0],zero
.Ltmp40:
	.loc	1 92 1                  # vlasovsolver/cpu_moments.cpp:92:1
	vunpcklpd	%xmm7, %xmm15, %xmm3 # xmm3 = xmm15[0],xmm7[0]
	vmovapd	512(%rsp), %ymm0        # 32-byte Reload
.Ltmp41:
	#DEBUG_VALUE: blockLID <- undef
	vinsertf128	$1, %xmm3, %ymm1, %ymm3
	vbroadcastsd	%xmm2, %ymm1
	vmovapd	%ymm1, %ymm2
	vfmadd213pd	%ymm0, %ymm3, %ymm2 # ymm2 = (ymm3 * ymm2) + ymm0
.Ltmp42:
	#DEBUG_VALUE: blockLID <- [DW_OP_plus_uconst 1, DW_OP_stack_value] undef
	.loc	1 80 1                  # vlasovsolver/cpu_moments.cpp:80:1
	addq	$256, %rdx              # imm = 0x100
	addq	$6, %rcx
	cmpq	%rdx, %rax
	jne	.LBB0_8
.Ltmp43:
# %bb.9:                                # %L.B0015.loopexit
                                        #   in Loop: Header=BB0_4 Depth=1
	#DEBUG_VALUE: charge <- [DW_OP_plus_uconst 16] [$rsp+0]
	#DEBUG_VALUE: array <- [DW_OP_LLVM_fragment 0 64] 0.000000e+00
	#DEBUG_VALUE: array <- [DW_OP_LLVM_fragment 64 64] 0.000000e+00
	#DEBUG_VALUE: array <- [DW_OP_LLVM_fragment 128 64] 0.000000e+00
	#DEBUG_VALUE: array <- [DW_OP_LLVM_fragment 192 64] 0.000000e+00
	#DEBUG_VALUE: mass <- [DW_OP_plus_uconst 352] [$rsp+0]
	#DEBUG_VALUE: data <- $r14
	#DEBUG_VALUE: blockParams <- $r12
	#DEBUG_VALUE: calculateCellMoments:computeSecond <- [DW_OP_plus_uconst 8] [$rsp+0]
	#DEBUG_VALUE: calculateCellMoments:cell <- [DW_OP_plus_uconst 64] [$rsp+0]
	#DEBUG_VALUE: cell <- [DW_OP_plus_uconst 64] [$rsp+0]
	#DEBUG_VALUE: skipMoments <- 0
	.loc	1 92 1                  # vlasovsolver/cpu_moments.cpp:92:1
	vfmadd213pd	%ymm0, %ymm3, %ymm1 # ymm1 = (ymm3 * ymm1) + ymm0
	jmp	.LBB0_10
.Ltmp44:
.LBB0_15:                               # %L.B1541.lr.ph
	#DEBUG_VALUE: popID <- 0
	#DEBUG_VALUE: calculateCellMoments:cell <- [DW_OP_plus_uconst 64] [$rsp+0]
	#DEBUG_VALUE: cell <- [DW_OP_plus_uconst 64] [$rsp+0]
	#DEBUG_VALUE: skipMoments <- 0
	.loc	1 0 1 is_stmt 0         # vlasovsolver/cpu_moments.cpp:0:1
	xorl	%r12d, %r12d
	jmp	.LBB0_16
.Ltmp45:
	.p2align	4, 0x90
.LBB0_18:                               #   in Loop: Header=BB0_16 Depth=1
	#DEBUG_VALUE: blockLID <- 0
	#DEBUG_VALUE: mass <- $xmm2
	#DEBUG_VALUE: array <- [DW_OP_LLVM_fragment 0 64] 0.000000e+00
	#DEBUG_VALUE: array <- [DW_OP_LLVM_fragment 64 64] 0.000000e+00
	#DEBUG_VALUE: array <- [DW_OP_LLVM_fragment 128 64] 0.000000e+00
	#DEBUG_VALUE: data <- $r15
	#DEBUG_VALUE: blockParams <- $r14
	#DEBUG_VALUE: calculateCellMoments:cell <- [DW_OP_plus_uconst 64] [$rsp+0]
	#DEBUG_VALUE: cell <- [DW_OP_plus_uconst 64] [$rsp+0]
	#DEBUG_VALUE: skipMoments <- 0
	vxorpd	%xmm0, %xmm0, %xmm0
	vxorpd	%xmm1, %xmm1, %xmm1
	vmovsd	%xmm1, (%rsp)           # 8-byte Spill
	movq	%r13, %r14
.Ltmp46:
.LBB0_22:                               # %L.B0032
                                        #   in Loop: Header=BB0_16 Depth=1
	#DEBUG_VALUE: mass <- $xmm2
	#DEBUG_VALUE: array <- [DW_OP_LLVM_fragment 64 64] 0.000000e+00
	#DEBUG_VALUE: array <- [DW_OP_LLVM_fragment 128 64] 0.000000e+00
	#DEBUG_VALUE: data <- $r15
	#DEBUG_VALUE: calculateCellMoments:cell <- [DW_OP_plus_uconst 64] [$rsp+0]
	#DEBUG_VALUE: cell <- [DW_OP_plus_uconst 64] [$rsp+0]
	#DEBUG_VALUE: skipMoments <- 0
	#DEBUG_VALUE: array <- [DW_OP_LLVM_fragment 0 64] [$rsp+0]
	.loc	1 129 1 is_stmt 1       # vlasovsolver/cpu_moments.cpp:129:1
	vmulsd	(%rsp), %xmm2, %xmm1    # 8-byte Folded Reload
	vmovsd	%xmm1, 96(%r8,%r9)
	.loc	1 130 1                 # vlasovsolver/cpu_moments.cpp:130:1
	vmovddup	%xmm2, %xmm2    # xmm2 = xmm2[0,0]
.Ltmp47:
	vmulpd	%xmm0, %xmm2, %xmm0
	vmovupd	%xmm0, 104(%r8,%r9)
.Ltmp48:
	.loc	1 186 1                 # vlasovsolver/cpu_moments.cpp:186:1
	vaddsd	328(%r14), %xmm1, %xmm0
	vmovsd	%xmm0, 328(%r14)
	vmovsd	336(%r14), %xmm0        # xmm0 = mem[0],zero
	vmovsd	344(%r14), %xmm1        # xmm1 = mem[0],zero
	vaddsd	104(%r8,%r9), %xmm0, %xmm0
	vmovsd	%xmm0, 336(%r14)
	vaddsd	112(%r8,%r9), %xmm1, %xmm0
	vmovsd	%xmm0, 344(%r14)
.Ltmp49:
.LBB0_23:                               # %L_T28354208_54311
                                        #   in Loop: Header=BB0_16 Depth=1
	#DEBUG_VALUE: calculateCellMoments:cell <- [DW_OP_plus_uconst 64] [$rsp+0]
	#DEBUG_VALUE: cell <- [DW_OP_plus_uconst 64] [$rsp+0]
	#DEBUG_VALUE: skipMoments <- 0
	.loc	1 136 1                 # vlasovsolver/cpu_moments.cpp:136:1
	incl	%r12d
.Ltmp50:
	#DEBUG_VALUE: popID <- $r12d
	.loc	1 105 1                 # vlasovsolver/cpu_moments.cpp:105:1
	callq	_Z16getObjectWrapperv
	movq	232(%rax), %rcx
	subq	224(%rax), %rcx
	movq	%rcx, %rax
	movabsq	$5675921253449092805, %rdx # imm = 0x4EC4EC4EC4EC4EC5
	imulq	%rdx
	sarq	$6, %rdx
	sarq	$63, %rcx
	subq	%rcx, %rdx
.Ltmp51:
	.loc	1 916 1                 # vlasovsolver/cpu_moments.cpp:916:1
	cmpq	%r12, %rdx
	jbe	.LBB0_24
.Ltmp52:
.LBB0_16:                               # %L.B1541
                                        # =>This Loop Header: Depth=1
                                        #     Child Loop BB0_20 Depth 2
	#DEBUG_VALUE: calculateCellMoments:cell <- [DW_OP_plus_uconst 64] [$rsp+0]
	#DEBUG_VALUE: cell <- [DW_OP_plus_uconst 64] [$rsp+0]
	#DEBUG_VALUE: skipMoments <- 0
	#DEBUG_VALUE: popID <- $r12d
	.loc	1 1513 1                # vlasovsolver/cpu_moments.cpp:1513:1
	movq	1408(%r14), %rbx
	imulq	$608, %r12, %rax        # imm = 0x260
	.loc	1 309 1                 # vlasovsolver/cpu_moments.cpp:309:1
	cmpl	$0, 580(%rbx,%rax)
	je	.LBB0_23
.Ltmp53:
# %bb.17:                               # %L.B0025
                                        #   in Loop: Header=BB0_16 Depth=1
	#DEBUG_VALUE: popID <- $r12d
	#DEBUG_VALUE: calculateCellMoments:cell <- [DW_OP_plus_uconst 64] [$rsp+0]
	#DEBUG_VALUE: cell <- [DW_OP_plus_uconst 64] [$rsp+0]
	#DEBUG_VALUE: skipMoments <- 0
	.loc	1 165 1                 # vlasovsolver/cpu_moments.cpp:165:1
	movq	296(%rbx,%rax), %r15
	movq	%r14, %r13
	.loc	1 198 1                 # vlasovsolver/cpu_moments.cpp:198:1
	movq	584(%rbx,%rax), %r14
.Ltmp54:
	#DEBUG_VALUE: blockParams <- $r14
	#DEBUG_VALUE: data <- $r15
	.loc	1 0 1 is_stmt 0         # vlasovsolver/cpu_moments.cpp:0:1
	movq	%r12, 384(%rsp)         # 8-byte Spill
	movq	%rax, %r12
.Ltmp55:
	.loc	1 111 1 is_stmt 1       # vlasovsolver/cpu_moments.cpp:111:1
	callq	_Z16getObjectWrapperv
	movq	%r12, %r9
	movq	384(%rsp), %r12         # 8-byte Reload
.Ltmp56:
	.loc	1 1044 1                # vlasovsolver/cpu_moments.cpp:1044:1
	movq	224(%rax), %rax
	imulq	$208, %r12, %rcx
	vmovsd	40(%rax,%rcx), %xmm2    # xmm2 = mem[0],zero
.Ltmp57:
	#DEBUG_VALUE: array <- [DW_OP_LLVM_fragment 128 64] 0.000000e+00
	#DEBUG_VALUE: array <- [DW_OP_LLVM_fragment 64 64] 0.000000e+00
	#DEBUG_VALUE: array <- [DW_OP_LLVM_fragment 0 64] 0.000000e+00
	#DEBUG_VALUE: mass <- $xmm2
	.loc	1 916 1                 # vlasovsolver/cpu_moments.cpp:916:1
	movq	1408(%r13), %r8
.Ltmp58:
	#DEBUG_VALUE: blockLID <- 0
	.loc	1 309 1                 # vlasovsolver/cpu_moments.cpp:309:1
	movl	580(%rbx,%r9), %ecx
	testq	%rcx, %rcx
	je	.LBB0_18
.Ltmp59:
# %bb.19:                               # %L.B1543
                                        #   in Loop: Header=BB0_16 Depth=1
	#DEBUG_VALUE: blockLID <- 0
	#DEBUG_VALUE: mass <- $xmm2
	#DEBUG_VALUE: array <- [DW_OP_LLVM_fragment 0 64] 0.000000e+00
	#DEBUG_VALUE: array <- [DW_OP_LLVM_fragment 64 64] 0.000000e+00
	#DEBUG_VALUE: array <- [DW_OP_LLVM_fragment 128 64] 0.000000e+00
	#DEBUG_VALUE: data <- $r15
	#DEBUG_VALUE: blockParams <- $r14
	#DEBUG_VALUE: calculateCellMoments:cell <- [DW_OP_plus_uconst 64] [$rsp+0]
	#DEBUG_VALUE: cell <- [DW_OP_plus_uconst 64] [$rsp+0]
	#DEBUG_VALUE: skipMoments <- 0
	.loc	1 0 1 is_stmt 0         # vlasovsolver/cpu_moments.cpp:0:1
	vmovapd	%xmm2, 544(%rsp)        # 16-byte Spill
.Ltmp60:
	#DEBUG_VALUE: mass <- [DW_OP_plus_uconst 544] [$rsp+0]
	vmovsd	104(%r13), %xmm0        # xmm0 = mem[0],zero
	vmovsd	%xmm0, 392(%rsp)        # 8-byte Spill
	vmovupd	112(%r13), %xmm0
	vmovapd	%xmm0, 576(%rsp)        # 16-byte Spill
	vpermilpd	$1, %xmm0, %xmm0 # xmm0 = xmm0[1,0]
	vmovapd	%xmm0, 560(%rsp)        # 16-byte Spill
	shlq	$8, %rcx
	vxorpd	%xmm3, %xmm3, %xmm3
	vxorpd	%xmm0, %xmm0, %xmm0
	vmovsd	%xmm0, (%rsp)           # 8-byte Spill
.Ltmp61:
	xorl	%edx, %edx
	xorl	%esi, %esi
	movabsq	$17179868928, %rbx      # imm = 0x3FFFFFF00
.Ltmp62:
	.p2align	4, 0x90
.LBB0_20:                               # %L.B0031
                                        #   Parent Loop BB0_16 Depth=1
                                        # =>  This Inner Loop Header: Depth=2
	#DEBUG_VALUE: mass <- [DW_OP_plus_uconst 544] [$rsp+0]
	#DEBUG_VALUE: blockLID <- 0
	#DEBUG_VALUE: array <- [DW_OP_LLVM_fragment 64 64] 0.000000e+00
	#DEBUG_VALUE: array <- [DW_OP_LLVM_fragment 128 64] 0.000000e+00
	#DEBUG_VALUE: data <- $r15
	#DEBUG_VALUE: blockParams <- $r14
	#DEBUG_VALUE: calculateCellMoments:cell <- [DW_OP_plus_uconst 64] [$rsp+0]
	#DEBUG_VALUE: cell <- [DW_OP_plus_uconst 64] [$rsp+0]
	#DEBUG_VALUE: skipMoments <- 0
	vmovapd	%xmm3, 592(%rsp)        # 16-byte Spill
	.loc	1 186 1 is_stmt 1       # vlasovsolver/cpu_moments.cpp:186:1
	movq	%rsi, %rdi
	andq	%rbx, %rdi
.Ltmp63:
	.loc	1 120 1                 # vlasovsolver/cpu_moments.cpp:120:1
	movl	%edx, %eax
	andl	$-2, %eax
.Ltmp64:
	.loc	1 124 1                 # vlasovsolver/cpu_moments.cpp:124:1
	vmovsd	40(%r14,%rdx,8), %xmm2  # xmm2 = mem[0],zero
	.loc	1 0 0 is_stmt 0         # vlasovsolver/cpu_moments.cpp:0:0
	vmovupd	8(%r14,%rax,8), %xmm0
	vmovapd	%xmm0, 368(%rsp)        # 16-byte Spill
	.loc	1 124 1                 # vlasovsolver/cpu_moments.cpp:124:1
	vpermilpd	$1, %xmm0, %xmm0 # xmm0 = xmm0[1,0]
	vmovsd	.LCPI0_3(%rip), %xmm1   # xmm1 = mem[0],zero
	vfmadd213sd	%xmm0, %xmm2, %xmm1 # xmm1 = (xmm2 * xmm1) + xmm0
	vmovapd	%xmm2, %xmm7
	vmovapd	560(%rsp), %xmm6        # 16-byte Reload
	.loc	1 0 0                   # vlasovsolver/cpu_moments.cpp:0:0
	vsubsd	%xmm6, %xmm1, %xmm1
	.loc	1 129 1 is_stmt 1       # vlasovsolver/cpu_moments.cpp:129:1
	vmovss	(%r15,%rdi), %xmm2      # xmm2 = mem[0],zero,zero,zero
	.loc	1 124 1                 # vlasovsolver/cpu_moments.cpp:124:1
	vmovss	4(%r15,%rdi), %xmm3     # xmm3 = mem[0],zero,zero,zero
	.loc	1 129 1                 # vlasovsolver/cpu_moments.cpp:129:1
	vcvtss2sd	%xmm2, %xmm2, %xmm2
	vmovsd	%xmm2, 488(%rsp)        # 8-byte Spill
	.loc	1 131 1                 # vlasovsolver/cpu_moments.cpp:131:1
	vmulsd	%xmm2, %xmm1, %xmm2
	.loc	1 124 1                 # vlasovsolver/cpu_moments.cpp:124:1
	vcvtss2sd	%xmm3, %xmm3, %xmm4
	vmovsd	%xmm4, 320(%rsp)        # 8-byte Spill
	vmovss	8(%r15,%rdi), %xmm3     # xmm3 = mem[0],zero,zero,zero
	vcvtss2sd	%xmm3, %xmm3, %xmm5
	vmovsd	%xmm5, 48(%rsp)         # 8-byte Spill
	vxorpd	%xmm3, %xmm3, %xmm3
	.loc	1 131 1                 # vlasovsolver/cpu_moments.cpp:131:1
	vfmadd213sd	%xmm3, %xmm1, %xmm2 # xmm2 = (xmm1 * xmm2) + xmm3
	.loc	1 124 1                 # vlasovsolver/cpu_moments.cpp:124:1
	vmulsd	%xmm4, %xmm1, %xmm3
	vmulsd	%xmm5, %xmm1, %xmm4
	vmovss	12(%r15,%rdi), %xmm5    # xmm5 = mem[0],zero,zero,zero
	vcvtss2sd	%xmm5, %xmm5, %xmm5
	vmovsd	%xmm5, 512(%rsp)        # 8-byte Spill
	vfmadd213sd	%xmm2, %xmm1, %xmm3 # xmm3 = (xmm1 * xmm3) + xmm2
	vfmadd213sd	%xmm3, %xmm1, %xmm4 # xmm4 = (xmm1 * xmm4) + xmm3
	vmulsd	%xmm5, %xmm1, %xmm2
	.loc	1 129 1                 # vlasovsolver/cpu_moments.cpp:129:1
	vmovss	16(%r15,%rdi), %xmm3    # xmm3 = mem[0],zero,zero,zero
	vcvtss2sd	%xmm3, %xmm3, %xmm3
	vmovsd	%xmm3, 40(%rsp)         # 8-byte Spill
	.loc	1 124 1                 # vlasovsolver/cpu_moments.cpp:124:1
	vfmadd213sd	%xmm4, %xmm1, %xmm2 # xmm2 = (xmm1 * xmm2) + xmm4
	.loc	1 131 1                 # vlasovsolver/cpu_moments.cpp:131:1
	vmulsd	%xmm3, %xmm1, %xmm3
	.loc	1 124 1                 # vlasovsolver/cpu_moments.cpp:124:1
	vmovss	20(%r15,%rdi), %xmm4    # xmm4 = mem[0],zero,zero,zero
	vcvtss2sd	%xmm4, %xmm4, %xmm4
	vmovsd	%xmm4, 32(%rsp)         # 8-byte Spill
	vmulsd	%xmm4, %xmm1, %xmm4
	.loc	1 131 1                 # vlasovsolver/cpu_moments.cpp:131:1
	vfmadd213sd	%xmm2, %xmm1, %xmm3 # xmm3 = (xmm1 * xmm3) + xmm2
	.loc	1 124 1                 # vlasovsolver/cpu_moments.cpp:124:1
	vfmadd213sd	%xmm3, %xmm1, %xmm4 # xmm4 = (xmm1 * xmm4) + xmm3
	vmovss	24(%r15,%rdi), %xmm2    # xmm2 = mem[0],zero,zero,zero
	vcvtss2sd	%xmm2, %xmm2, %xmm2
	vmovsd	%xmm2, 24(%rsp)         # 8-byte Spill
	vmulsd	%xmm2, %xmm1, %xmm2
	vfmadd213sd	%xmm4, %xmm1, %xmm2 # xmm2 = (xmm1 * xmm2) + xmm4
	vmovss	28(%r15,%rdi), %xmm3    # xmm3 = mem[0],zero,zero,zero
	vcvtss2sd	%xmm3, %xmm3, %xmm3
	vmovsd	%xmm3, 352(%rsp)        # 8-byte Spill
	vmulsd	%xmm3, %xmm1, %xmm3
	vfmadd213sd	%xmm2, %xmm1, %xmm3 # xmm3 = (xmm1 * xmm3) + xmm2
	.loc	1 129 1                 # vlasovsolver/cpu_moments.cpp:129:1
	vmovss	32(%r15,%rdi), %xmm2    # xmm2 = mem[0],zero,zero,zero
	vcvtss2sd	%xmm2, %xmm2, %xmm4
	vmovsd	%xmm4, 16(%rsp)         # 8-byte Spill
	.loc	1 124 1                 # vlasovsolver/cpu_moments.cpp:124:1
	vmovss	36(%r15,%rdi), %xmm2    # xmm2 = mem[0],zero,zero,zero
	vcvtss2sd	%xmm2, %xmm2, %xmm5
	vmovsd	%xmm5, 8(%rsp)          # 8-byte Spill
	.loc	1 131 1                 # vlasovsolver/cpu_moments.cpp:131:1
	vmulsd	%xmm4, %xmm1, %xmm2
	vfmadd213sd	%xmm3, %xmm1, %xmm2 # xmm2 = (xmm1 * xmm2) + xmm3
	.loc	1 124 1                 # vlasovsolver/cpu_moments.cpp:124:1
	vmulsd	%xmm5, %xmm1, %xmm3
	vfmadd213sd	%xmm2, %xmm1, %xmm3 # xmm3 = (xmm1 * xmm3) + xmm2
	vmovss	40(%r15,%rdi), %xmm2    # xmm2 = mem[0],zero,zero,zero
	vcvtss2sd	%xmm2, %xmm2, %xmm2
	vmovsd	%xmm2, 312(%rsp)        # 8-byte Spill
	vmulsd	%xmm2, %xmm1, %xmm2
	vfmadd213sd	%xmm3, %xmm1, %xmm2 # xmm2 = (xmm1 * xmm2) + xmm3
	vmovss	44(%r15,%rdi), %xmm3    # xmm3 = mem[0],zero,zero,zero
	vcvtss2sd	%xmm3, %xmm3, %xmm3
	vmovsd	%xmm3, 304(%rsp)        # 8-byte Spill
	vmulsd	%xmm3, %xmm1, %xmm3
	vfmadd213sd	%xmm2, %xmm1, %xmm3 # xmm3 = (xmm1 * xmm3) + xmm2
	.loc	1 129 1                 # vlasovsolver/cpu_moments.cpp:129:1
	vmovss	48(%r15,%rdi), %xmm2    # xmm2 = mem[0],zero,zero,zero
	vcvtss2sd	%xmm2, %xmm2, %xmm2
	vmovsd	%xmm2, 296(%rsp)        # 8-byte Spill
	.loc	1 131 1                 # vlasovsolver/cpu_moments.cpp:131:1
	vmulsd	%xmm2, %xmm1, %xmm2
	vfmadd213sd	%xmm3, %xmm1, %xmm2 # xmm2 = (xmm1 * xmm2) + xmm3
	.loc	1 124 1                 # vlasovsolver/cpu_moments.cpp:124:1
	vmovss	52(%r15,%rdi), %xmm3    # xmm3 = mem[0],zero,zero,zero
	vcvtss2sd	%xmm3, %xmm3, %xmm3
	vmovsd	%xmm3, 288(%rsp)        # 8-byte Spill
	vmulsd	%xmm3, %xmm1, %xmm3
	vfmadd213sd	%xmm2, %xmm1, %xmm3 # xmm3 = (xmm1 * xmm3) + xmm2
	vmovss	56(%r15,%rdi), %xmm2    # xmm2 = mem[0],zero,zero,zero
	vcvtss2sd	%xmm2, %xmm2, %xmm4
	vmovsd	%xmm4, 280(%rsp)        # 8-byte Spill
	vmovss	60(%r15,%rdi), %xmm2    # xmm2 = mem[0],zero,zero,zero
	vcvtss2sd	%xmm2, %xmm2, %xmm5
	vmovsd	%xmm5, 272(%rsp)        # 8-byte Spill
	vmulsd	%xmm4, %xmm1, %xmm2
	vfmadd213sd	%xmm3, %xmm1, %xmm2 # xmm2 = (xmm1 * xmm2) + xmm3
	vmulsd	%xmm5, %xmm1, %xmm3
	vfmadd213sd	%xmm2, %xmm1, %xmm3 # xmm3 = (xmm1 * xmm3) + xmm2
	vmovsd	.LCPI0_2(%rip), %xmm1   # xmm1 = mem[0],zero
	vmovapd	%xmm7, 496(%rsp)        # 16-byte Spill
	vfmadd213sd	%xmm0, %xmm7, %xmm1 # xmm1 = (xmm7 * xmm1) + xmm0
	.loc	1 0 0 is_stmt 0         # vlasovsolver/cpu_moments.cpp:0:0
	vsubsd	%xmm6, %xmm1, %xmm1
	.loc	1 124 1                 # vlasovsolver/cpu_moments.cpp:124:1
	vmovss	64(%r15,%rdi), %xmm2    # xmm2 = mem[0],zero,zero,zero
	vcvtss2sd	%xmm2, %xmm2, %xmm4
	vmovsd	%xmm4, 264(%rsp)        # 8-byte Spill
	vmovss	68(%r15,%rdi), %xmm2    # xmm2 = mem[0],zero,zero,zero
	vcvtss2sd	%xmm2, %xmm2, %xmm5
	vmovsd	%xmm5, 256(%rsp)        # 8-byte Spill
	vmulsd	%xmm4, %xmm1, %xmm2
	vfmadd213sd	%xmm3, %xmm1, %xmm2 # xmm2 = (xmm1 * xmm2) + xmm3
	vmulsd	%xmm5, %xmm1, %xmm3
	vfmadd213sd	%xmm2, %xmm1, %xmm3 # xmm3 = (xmm1 * xmm3) + xmm2
	vmovss	72(%r15,%rdi), %xmm2    # xmm2 = mem[0],zero,zero,zero
	vcvtss2sd	%xmm2, %xmm2, %xmm2
	vmovsd	%xmm2, 248(%rsp)        # 8-byte Spill
	vmulsd	%xmm2, %xmm1, %xmm2
	vfmadd213sd	%xmm3, %xmm1, %xmm2 # xmm2 = (xmm1 * xmm2) + xmm3
	vmovss	76(%r15,%rdi), %xmm3    # xmm3 = mem[0],zero,zero,zero
	vcvtss2sd	%xmm3, %xmm3, %xmm3
	vmovsd	%xmm3, 240(%rsp)        # 8-byte Spill
	vmulsd	%xmm3, %xmm1, %xmm3
	vfmadd213sd	%xmm2, %xmm1, %xmm3 # xmm3 = (xmm1 * xmm3) + xmm2
	vmovss	80(%r15,%rdi), %xmm2    # xmm2 = mem[0],zero,zero,zero
	vcvtss2sd	%xmm2, %xmm2, %xmm2
	vmovsd	%xmm2, 232(%rsp)        # 8-byte Spill
	vmulsd	%xmm2, %xmm1, %xmm2
	vfmadd213sd	%xmm3, %xmm1, %xmm2 # xmm2 = (xmm1 * xmm2) + xmm3
	vmovss	84(%r15,%rdi), %xmm3    # xmm3 = mem[0],zero,zero,zero
	vcvtss2sd	%xmm3, %xmm3, %xmm3
	vmovsd	%xmm3, 224(%rsp)        # 8-byte Spill
	vmulsd	%xmm3, %xmm1, %xmm3
	vfmadd213sd	%xmm2, %xmm1, %xmm3 # xmm3 = (xmm1 * xmm3) + xmm2
	vmovss	88(%r15,%rdi), %xmm2    # xmm2 = mem[0],zero,zero,zero
	vcvtss2sd	%xmm2, %xmm2, %xmm4
	vmovsd	%xmm4, 216(%rsp)        # 8-byte Spill
	vmovss	92(%r15,%rdi), %xmm2    # xmm2 = mem[0],zero,zero,zero
	vcvtss2sd	%xmm2, %xmm2, %xmm5
	vmovsd	%xmm5, 208(%rsp)        # 8-byte Spill
	vmulsd	%xmm4, %xmm1, %xmm2
	vfmadd213sd	%xmm3, %xmm1, %xmm2 # xmm2 = (xmm1 * xmm2) + xmm3
	vmulsd	%xmm5, %xmm1, %xmm3
	vfmadd213sd	%xmm2, %xmm1, %xmm3 # xmm3 = (xmm1 * xmm3) + xmm2
	vmovss	96(%r15,%rdi), %xmm2    # xmm2 = mem[0],zero,zero,zero
	vcvtss2sd	%xmm2, %xmm2, %xmm2
	vmovsd	%xmm2, 200(%rsp)        # 8-byte Spill
	vmulsd	%xmm2, %xmm1, %xmm2
	vfmadd213sd	%xmm3, %xmm1, %xmm2 # xmm2 = (xmm1 * xmm2) + xmm3
	vmovss	100(%r15,%rdi), %xmm3   # xmm3 = mem[0],zero,zero,zero
	vcvtss2sd	%xmm3, %xmm3, %xmm3
	vmovsd	%xmm3, 192(%rsp)        # 8-byte Spill
	vmulsd	%xmm3, %xmm1, %xmm3
	vfmadd213sd	%xmm2, %xmm1, %xmm3 # xmm3 = (xmm1 * xmm3) + xmm2
	vmovss	104(%r15,%rdi), %xmm2   # xmm2 = mem[0],zero,zero,zero
	vcvtss2sd	%xmm2, %xmm2, %xmm2
	vmovsd	%xmm2, 184(%rsp)        # 8-byte Spill
	vmulsd	%xmm2, %xmm1, %xmm2
	vfmadd213sd	%xmm3, %xmm1, %xmm2 # xmm2 = (xmm1 * xmm2) + xmm3
	vmovss	108(%r15,%rdi), %xmm3   # xmm3 = mem[0],zero,zero,zero
	vcvtss2sd	%xmm3, %xmm3, %xmm3
	vmovsd	%xmm3, 176(%rsp)        # 8-byte Spill
	vmulsd	%xmm3, %xmm1, %xmm3
	vfmadd213sd	%xmm2, %xmm1, %xmm3 # xmm3 = (xmm1 * xmm3) + xmm2
	vmovss	112(%r15,%rdi), %xmm2   # xmm2 = mem[0],zero,zero,zero
	vcvtss2sd	%xmm2, %xmm2, %xmm4
	vmovsd	%xmm4, 168(%rsp)        # 8-byte Spill
	vmovss	116(%r15,%rdi), %xmm2   # xmm2 = mem[0],zero,zero,zero
	vcvtss2sd	%xmm2, %xmm2, %xmm5
	vmovsd	%xmm5, 160(%rsp)        # 8-byte Spill
	vmulsd	%xmm4, %xmm1, %xmm2
	vfmadd213sd	%xmm3, %xmm1, %xmm2 # xmm2 = (xmm1 * xmm2) + xmm3
	vmulsd	%xmm5, %xmm1, %xmm3
	vfmadd213sd	%xmm2, %xmm1, %xmm3 # xmm3 = (xmm1 * xmm3) + xmm2
	vmovss	120(%r15,%rdi), %xmm2   # xmm2 = mem[0],zero,zero,zero
	vcvtss2sd	%xmm2, %xmm2, %xmm2
	vmovsd	%xmm2, 152(%rsp)        # 8-byte Spill
	vmulsd	%xmm2, %xmm1, %xmm2
	vfmadd213sd	%xmm3, %xmm1, %xmm2 # xmm2 = (xmm1 * xmm2) + xmm3
	vmovss	124(%r15,%rdi), %xmm3   # xmm3 = mem[0],zero,zero,zero
	vcvtss2sd	%xmm3, %xmm3, %xmm3
	vmovsd	%xmm3, 144(%rsp)        # 8-byte Spill
	vmulsd	%xmm3, %xmm1, %xmm3
	vfmadd213sd	%xmm2, %xmm1, %xmm3 # xmm3 = (xmm1 * xmm3) + xmm2
	vmovsd	.LCPI0_1(%rip), %xmm12  # xmm12 = mem[0],zero
	vfmadd231sd	%xmm12, %xmm7, %xmm0 # xmm0 = (xmm7 * xmm12) + xmm0
	vmovss	128(%r15,%rdi), %xmm1   # xmm1 = mem[0],zero,zero,zero
	vcvtss2sd	%xmm1, %xmm1, %xmm1
	vmovsd	%xmm1, 136(%rsp)        # 8-byte Spill
	.loc	1 0 0                   # vlasovsolver/cpu_moments.cpp:0:0
	vsubsd	%xmm6, %xmm0, %xmm6
	.loc	1 124 1                 # vlasovsolver/cpu_moments.cpp:124:1
	vmulsd	%xmm1, %xmm6, %xmm0
	vfmadd213sd	%xmm3, %xmm6, %xmm0 # xmm0 = (xmm6 * xmm0) + xmm3
	vmovss	132(%r15,%rdi), %xmm1   # xmm1 = mem[0],zero,zero,zero
	vcvtss2sd	%xmm1, %xmm1, %xmm1
	vmovsd	%xmm1, 128(%rsp)        # 8-byte Spill
	vmulsd	%xmm1, %xmm6, %xmm1
	vfmadd213sd	%xmm0, %xmm6, %xmm1 # xmm1 = (xmm6 * xmm1) + xmm0
	vmovss	136(%r15,%rdi), %xmm0   # xmm0 = mem[0],zero,zero,zero
	vcvtss2sd	%xmm0, %xmm0, %xmm0
	vmovsd	%xmm0, 120(%rsp)        # 8-byte Spill
	vmulsd	%xmm0, %xmm6, %xmm0
	vfmadd213sd	%xmm1, %xmm6, %xmm0 # xmm0 = (xmm6 * xmm0) + xmm1
	vmovss	140(%r15,%rdi), %xmm1   # xmm1 = mem[0],zero,zero,zero
	vcvtss2sd	%xmm1, %xmm1, %xmm1
	vmovsd	%xmm1, 104(%rsp)        # 8-byte Spill
	vmulsd	%xmm1, %xmm6, %xmm1
	vfmadd213sd	%xmm0, %xmm6, %xmm1 # xmm1 = (xmm6 * xmm1) + xmm0
	vmovss	144(%r15,%rdi), %xmm0   # xmm0 = mem[0],zero,zero,zero
	vcvtss2sd	%xmm0, %xmm0, %xmm2
	vmovsd	%xmm2, 112(%rsp)        # 8-byte Spill
	vmovss	148(%r15,%rdi), %xmm0   # xmm0 = mem[0],zero,zero,zero
	vcvtss2sd	%xmm0, %xmm0, %xmm3
	vmovsd	%xmm3, 96(%rsp)         # 8-byte Spill
	vmulsd	%xmm2, %xmm6, %xmm0
	vfmadd213sd	%xmm1, %xmm6, %xmm0 # xmm0 = (xmm6 * xmm0) + xmm1
	vmulsd	%xmm3, %xmm6, %xmm1
	vfmadd213sd	%xmm0, %xmm6, %xmm1 # xmm1 = (xmm6 * xmm1) + xmm0
	vmovss	152(%r15,%rdi), %xmm0   # xmm0 = mem[0],zero,zero,zero
	vcvtss2sd	%xmm0, %xmm0, %xmm0
	vmovsd	%xmm0, 88(%rsp)         # 8-byte Spill
	vmulsd	%xmm0, %xmm6, %xmm0
	vfmadd213sd	%xmm1, %xmm6, %xmm0 # xmm0 = (xmm6 * xmm0) + xmm1
	vmovss	156(%r15,%rdi), %xmm1   # xmm1 = mem[0],zero,zero,zero
	vcvtss2sd	%xmm1, %xmm1, %xmm1
	vmovsd	%xmm1, 80(%rsp)         # 8-byte Spill
	vmulsd	%xmm1, %xmm6, %xmm1
	vfmadd213sd	%xmm0, %xmm6, %xmm1 # xmm1 = (xmm6 * xmm1) + xmm0
	vmovss	160(%r15,%rdi), %xmm0   # xmm0 = mem[0],zero,zero,zero
	vcvtss2sd	%xmm0, %xmm0, %xmm0
	vmovsd	%xmm0, 72(%rsp)         # 8-byte Spill
	vmulsd	%xmm0, %xmm6, %xmm0
	vfmadd213sd	%xmm1, %xmm6, %xmm0 # xmm0 = (xmm6 * xmm0) + xmm1
	vmovss	164(%r15,%rdi), %xmm1   # xmm1 = mem[0],zero,zero,zero
	vcvtss2sd	%xmm1, %xmm1, %xmm15
	vmulsd	%xmm15, %xmm6, %xmm1
	vmovsd	%xmm15, 472(%rsp)       # 8-byte Spill
	vfmadd213sd	%xmm0, %xmm6, %xmm1 # xmm1 = (xmm6 * xmm1) + xmm0
	vmovss	168(%r15,%rdi), %xmm0   # xmm0 = mem[0],zero,zero,zero
	vcvtss2sd	%xmm0, %xmm0, %xmm14
	vmovss	172(%r15,%rdi), %xmm0   # xmm0 = mem[0],zero,zero,zero
	vcvtss2sd	%xmm0, %xmm0, %xmm12
	vmulsd	%xmm14, %xmm6, %xmm0
	vmovsd	%xmm14, 464(%rsp)       # 8-byte Spill
	vfmadd213sd	%xmm1, %xmm6, %xmm0 # xmm0 = (xmm6 * xmm0) + xmm1
	vmulsd	%xmm12, %xmm6, %xmm1
	vmovsd	%xmm12, 456(%rsp)       # 8-byte Spill
	vfmadd213sd	%xmm0, %xmm6, %xmm1 # xmm1 = (xmm6 * xmm1) + xmm0
	vmovss	176(%r15,%rdi), %xmm0   # xmm0 = mem[0],zero,zero,zero
	vcvtss2sd	%xmm0, %xmm0, %xmm11
	vmulsd	%xmm11, %xmm6, %xmm0
	vmovsd	%xmm11, 448(%rsp)       # 8-byte Spill
	vfmadd213sd	%xmm1, %xmm6, %xmm0 # xmm0 = (xmm6 * xmm0) + xmm1
	vmovss	180(%r15,%rdi), %xmm1   # xmm1 = mem[0],zero,zero,zero
	vcvtss2sd	%xmm1, %xmm1, %xmm10
	vmulsd	%xmm10, %xmm6, %xmm1
	vmovsd	%xmm10, 440(%rsp)       # 8-byte Spill
	vfmadd213sd	%xmm0, %xmm6, %xmm1 # xmm1 = (xmm6 * xmm1) + xmm0
	vmovss	184(%r15,%rdi), %xmm0   # xmm0 = mem[0],zero,zero,zero
	vcvtss2sd	%xmm0, %xmm0, %xmm9
	vmulsd	%xmm9, %xmm6, %xmm0
	vmovsd	%xmm9, 432(%rsp)        # 8-byte Spill
	vfmadd213sd	%xmm1, %xmm6, %xmm0 # xmm0 = (xmm6 * xmm0) + xmm1
	vmovss	188(%r15,%rdi), %xmm1   # xmm1 = mem[0],zero,zero,zero
	vcvtss2sd	%xmm1, %xmm1, %xmm8
	vmulsd	%xmm8, %xmm6, %xmm2
	vmovsd	%xmm8, 424(%rsp)        # 8-byte Spill
	vfmadd213sd	%xmm0, %xmm6, %xmm2 # xmm2 = (xmm6 * xmm2) + xmm0
	vmovsd	%xmm2, 480(%rsp)        # 8-byte Spill
	.loc	1 0 0                   # vlasovsolver/cpu_moments.cpp:0:0
	vmovsd	32(%r14,%rax,8), %xmm1  # xmm1 = mem[0],zero
	.loc	1 125 1 is_stmt 1       # vlasovsolver/cpu_moments.cpp:125:1
	vmovsd	.LCPI0_3(%rip), %xmm0   # xmm0 = mem[0],zero
	vmovapd	368(%rsp), %xmm4        # 16-byte Reload
	vfmadd213sd	%xmm4, %xmm1, %xmm0 # xmm0 = (xmm1 * xmm0) + xmm4
	vmovapd	576(%rsp), %xmm5        # 16-byte Reload
	.loc	1 130 1                 # vlasovsolver/cpu_moments.cpp:130:1
	vsubsd	%xmm5, %xmm0, %xmm0
	vmovsd	488(%rsp), %xmm13       # 8-byte Reload
                                        # xmm13 = mem[0],zero
	vmulsd	%xmm13, %xmm0, %xmm2
	vfmadd213sd	.LCPI0_5, %xmm0, %xmm2 # xmm2 = (xmm0 * xmm2) + mem
	.loc	1 124 1                 # vlasovsolver/cpu_moments.cpp:124:1
	vmulsd	320(%rsp), %xmm0, %xmm3 # 8-byte Folded Reload
	vfmadd213sd	%xmm2, %xmm0, %xmm3 # xmm3 = (xmm0 * xmm3) + xmm2
	vmulsd	48(%rsp), %xmm0, %xmm2  # 8-byte Folded Reload
	vfmadd213sd	%xmm3, %xmm0, %xmm2 # xmm2 = (xmm0 * xmm2) + xmm3
	vmulsd	512(%rsp), %xmm0, %xmm3 # 8-byte Folded Reload
	vfmadd213sd	%xmm2, %xmm0, %xmm3 # xmm3 = (xmm0 * xmm3) + xmm2
	.loc	1 125 1                 # vlasovsolver/cpu_moments.cpp:125:1
	vmovsd	.LCPI0_2(%rip), %xmm2   # xmm2 = mem[0],zero
	vfmadd213sd	%xmm4, %xmm1, %xmm2 # xmm2 = (xmm1 * xmm2) + xmm4
	.loc	1 130 1                 # vlasovsolver/cpu_moments.cpp:130:1
	vsubsd	%xmm5, %xmm2, %xmm7
	vmulsd	40(%rsp), %xmm7, %xmm2  # 8-byte Folded Reload
	vfmadd213sd	%xmm3, %xmm7, %xmm2 # xmm2 = (xmm7 * xmm2) + xmm3
	.loc	1 124 1                 # vlasovsolver/cpu_moments.cpp:124:1
	vmulsd	32(%rsp), %xmm7, %xmm3  # 8-byte Folded Reload
	vfmadd213sd	%xmm2, %xmm7, %xmm3 # xmm3 = (xmm7 * xmm3) + xmm2
	vmulsd	24(%rsp), %xmm7, %xmm2  # 8-byte Folded Reload
	vfmadd213sd	%xmm3, %xmm7, %xmm2 # xmm2 = (xmm7 * xmm2) + xmm3
	vmulsd	352(%rsp), %xmm7, %xmm3 # 8-byte Folded Reload
	vfmadd213sd	%xmm2, %xmm7, %xmm3 # xmm3 = (xmm7 * xmm3) + xmm2
	.loc	1 125 1                 # vlasovsolver/cpu_moments.cpp:125:1
	vmovsd	.LCPI0_1(%rip), %xmm2   # xmm2 = mem[0],zero
	vfmadd213sd	%xmm4, %xmm1, %xmm2 # xmm2 = (xmm1 * xmm2) + xmm4
	vmovapd	%xmm4, %xmm6
	.loc	1 130 1                 # vlasovsolver/cpu_moments.cpp:130:1
	vsubsd	%xmm5, %xmm2, %xmm2
	vmulsd	16(%rsp), %xmm2, %xmm4  # 8-byte Folded Reload
	vfmadd213sd	%xmm3, %xmm2, %xmm4 # xmm4 = (xmm2 * xmm4) + xmm3
	.loc	1 124 1                 # vlasovsolver/cpu_moments.cpp:124:1
	vmulsd	8(%rsp), %xmm2, %xmm3   # 8-byte Folded Reload
	vfmadd213sd	%xmm4, %xmm2, %xmm3 # xmm3 = (xmm2 * xmm3) + xmm4
	vmulsd	312(%rsp), %xmm2, %xmm4 # 8-byte Folded Reload
	vfmadd213sd	%xmm3, %xmm2, %xmm4 # xmm4 = (xmm2 * xmm4) + xmm3
	vmulsd	304(%rsp), %xmm2, %xmm3 # 8-byte Folded Reload
	vfmadd213sd	%xmm4, %xmm2, %xmm3 # xmm3 = (xmm2 * xmm3) + xmm4
	.loc	1 125 1                 # vlasovsolver/cpu_moments.cpp:125:1
	vunpcklpd	496(%rsp), %xmm1, %xmm1 # 16-byte Folded Reload
                                        # xmm1 = xmm1[0],mem[0]
	vfmadd132pd	.LCPI0_4(%rip), %xmm6, %xmm1 # xmm1 = (xmm1 * mem) + xmm6
	.loc	1 130 1                 # vlasovsolver/cpu_moments.cpp:130:1
	vsubpd	%xmm5, %xmm1, %xmm6
	vmulsd	296(%rsp), %xmm6, %xmm1 # 8-byte Folded Reload
	vfmadd213sd	%xmm3, %xmm6, %xmm1 # xmm1 = (xmm6 * xmm1) + xmm3
	.loc	1 124 1                 # vlasovsolver/cpu_moments.cpp:124:1
	vmulsd	288(%rsp), %xmm6, %xmm3 # 8-byte Folded Reload
	vfmadd213sd	%xmm1, %xmm6, %xmm3 # xmm3 = (xmm6 * xmm3) + xmm1
	vmulsd	280(%rsp), %xmm6, %xmm1 # 8-byte Folded Reload
	vfmadd213sd	%xmm3, %xmm6, %xmm1 # xmm1 = (xmm6 * xmm1) + xmm3
	vmulsd	272(%rsp), %xmm6, %xmm3 # 8-byte Folded Reload
	vfmadd213sd	%xmm1, %xmm6, %xmm3 # xmm3 = (xmm6 * xmm3) + xmm1
	vmulsd	264(%rsp), %xmm0, %xmm1 # 8-byte Folded Reload
	vfmadd213sd	%xmm3, %xmm0, %xmm1 # xmm1 = (xmm0 * xmm1) + xmm3
	vmulsd	256(%rsp), %xmm0, %xmm3 # 8-byte Folded Reload
	vfmadd213sd	%xmm1, %xmm0, %xmm3 # xmm3 = (xmm0 * xmm3) + xmm1
	vmulsd	248(%rsp), %xmm0, %xmm1 # 8-byte Folded Reload
	vfmadd213sd	%xmm3, %xmm0, %xmm1 # xmm1 = (xmm0 * xmm1) + xmm3
	vmulsd	240(%rsp), %xmm0, %xmm3 # 8-byte Folded Reload
	vfmadd213sd	%xmm1, %xmm0, %xmm3 # xmm3 = (xmm0 * xmm3) + xmm1
	vmulsd	232(%rsp), %xmm7, %xmm1 # 8-byte Folded Reload
	vfmadd213sd	%xmm3, %xmm7, %xmm1 # xmm1 = (xmm7 * xmm1) + xmm3
	vmulsd	224(%rsp), %xmm7, %xmm3 # 8-byte Folded Reload
	vfmadd213sd	%xmm1, %xmm7, %xmm3 # xmm3 = (xmm7 * xmm3) + xmm1
	vmulsd	216(%rsp), %xmm7, %xmm1 # 8-byte Folded Reload
	vfmadd213sd	%xmm3, %xmm7, %xmm1 # xmm1 = (xmm7 * xmm1) + xmm3
	vmulsd	208(%rsp), %xmm7, %xmm3 # 8-byte Folded Reload
	vfmadd213sd	%xmm1, %xmm7, %xmm3 # xmm3 = (xmm7 * xmm3) + xmm1
	vmulsd	200(%rsp), %xmm2, %xmm1 # 8-byte Folded Reload
	vfmadd213sd	%xmm3, %xmm2, %xmm1 # xmm1 = (xmm2 * xmm1) + xmm3
	vmulsd	192(%rsp), %xmm2, %xmm3 # 8-byte Folded Reload
	vfmadd213sd	%xmm1, %xmm2, %xmm3 # xmm3 = (xmm2 * xmm3) + xmm1
	vmulsd	184(%rsp), %xmm2, %xmm1 # 8-byte Folded Reload
	vfmadd213sd	%xmm3, %xmm2, %xmm1 # xmm1 = (xmm2 * xmm1) + xmm3
	vmulsd	176(%rsp), %xmm2, %xmm3 # 8-byte Folded Reload
	vfmadd213sd	%xmm1, %xmm2, %xmm3 # xmm3 = (xmm2 * xmm3) + xmm1
	vmulsd	168(%rsp), %xmm6, %xmm1 # 8-byte Folded Reload
	vfmadd213sd	%xmm3, %xmm6, %xmm1 # xmm1 = (xmm6 * xmm1) + xmm3
	vmulsd	160(%rsp), %xmm6, %xmm3 # 8-byte Folded Reload
	vfmadd213sd	%xmm1, %xmm6, %xmm3 # xmm3 = (xmm6 * xmm3) + xmm1
	vmulsd	152(%rsp), %xmm6, %xmm1 # 8-byte Folded Reload
	vfmadd213sd	%xmm3, %xmm6, %xmm1 # xmm1 = (xmm6 * xmm1) + xmm3
	vmulsd	144(%rsp), %xmm6, %xmm3 # 8-byte Folded Reload
	vfmadd213sd	%xmm1, %xmm6, %xmm3 # xmm3 = (xmm6 * xmm3) + xmm1
	vmulsd	136(%rsp), %xmm0, %xmm1 # 8-byte Folded Reload
	vfmadd213sd	%xmm3, %xmm0, %xmm1 # xmm1 = (xmm0 * xmm1) + xmm3
	vmulsd	128(%rsp), %xmm0, %xmm3 # 8-byte Folded Reload
	vfmadd213sd	%xmm1, %xmm0, %xmm3 # xmm3 = (xmm0 * xmm3) + xmm1
	vmulsd	120(%rsp), %xmm0, %xmm1 # 8-byte Folded Reload
	vfmadd213sd	%xmm3, %xmm0, %xmm1 # xmm1 = (xmm0 * xmm1) + xmm3
	vmulsd	104(%rsp), %xmm0, %xmm3 # 8-byte Folded Reload
	vfmadd213sd	%xmm1, %xmm0, %xmm3 # xmm3 = (xmm0 * xmm3) + xmm1
	vmulsd	112(%rsp), %xmm7, %xmm1 # 8-byte Folded Reload
	vfmadd213sd	%xmm3, %xmm7, %xmm1 # xmm1 = (xmm7 * xmm1) + xmm3
	vmulsd	96(%rsp), %xmm7, %xmm3  # 8-byte Folded Reload
	vfmadd213sd	%xmm1, %xmm7, %xmm3 # xmm3 = (xmm7 * xmm3) + xmm1
	vmulsd	88(%rsp), %xmm7, %xmm1  # 8-byte Folded Reload
	vfmadd213sd	%xmm3, %xmm7, %xmm1 # xmm1 = (xmm7 * xmm1) + xmm3
	vmulsd	80(%rsp), %xmm7, %xmm3  # 8-byte Folded Reload
	vfmadd213sd	%xmm1, %xmm7, %xmm3 # xmm3 = (xmm7 * xmm3) + xmm1
	vmulsd	72(%rsp), %xmm2, %xmm1  # 8-byte Folded Reload
	vfmadd213sd	%xmm3, %xmm2, %xmm1 # xmm1 = (xmm2 * xmm1) + xmm3
	vmulsd	%xmm15, %xmm2, %xmm3
	vfmadd213sd	%xmm1, %xmm2, %xmm3 # xmm3 = (xmm2 * xmm3) + xmm1
	vmulsd	%xmm14, %xmm2, %xmm1
	vfmadd213sd	%xmm3, %xmm2, %xmm1 # xmm1 = (xmm2 * xmm1) + xmm3
	vmulsd	%xmm12, %xmm2, %xmm3
	vfmadd213sd	%xmm1, %xmm2, %xmm3 # xmm3 = (xmm2 * xmm3) + xmm1
	vmulsd	%xmm11, %xmm6, %xmm1
	vfmadd213sd	%xmm3, %xmm6, %xmm1 # xmm1 = (xmm6 * xmm1) + xmm3
	vmulsd	%xmm10, %xmm6, %xmm3
	vfmadd213sd	%xmm1, %xmm6, %xmm3 # xmm3 = (xmm6 * xmm3) + xmm1
	vmulsd	%xmm9, %xmm6, %xmm1
	vfmadd213sd	%xmm3, %xmm6, %xmm1 # xmm1 = (xmm6 * xmm1) + xmm3
	vmulsd	%xmm8, %xmm6, %xmm3
	vfmadd213sd	%xmm1, %xmm6, %xmm3 # xmm3 = (xmm6 * xmm3) + xmm1
	vmovss	192(%r15,%rdi), %xmm1   # xmm1 = mem[0],zero,zero,zero
	vcvtss2sd	%xmm1, %xmm1, %xmm1
	vmovsd	%xmm1, 368(%rsp)        # 8-byte Spill
	vmulsd	%xmm1, %xmm0, %xmm1
	vfmadd213sd	%xmm3, %xmm0, %xmm1 # xmm1 = (xmm0 * xmm1) + xmm3
	vmovss	196(%r15,%rdi), %xmm3   # xmm3 = mem[0],zero,zero,zero
	vcvtss2sd	%xmm3, %xmm3, %xmm5
	vmulsd	%xmm5, %xmm0, %xmm3
	vfmadd213sd	%xmm1, %xmm0, %xmm3 # xmm3 = (xmm0 * xmm3) + xmm1
	vmovss	200(%r15,%rdi), %xmm1   # xmm1 = mem[0],zero,zero,zero
	vcvtss2sd	%xmm1, %xmm1, %xmm1
	vmovsd	%xmm1, 416(%rsp)        # 8-byte Spill
	vmulsd	%xmm1, %xmm0, %xmm1
	vfmadd213sd	%xmm3, %xmm0, %xmm1 # xmm1 = (xmm0 * xmm1) + xmm3
	vmovss	204(%r15,%rdi), %xmm3   # xmm3 = mem[0],zero,zero,zero
	vcvtss2sd	%xmm3, %xmm3, %xmm3
	vmovsd	%xmm3, 408(%rsp)        # 8-byte Spill
	vmulsd	%xmm3, %xmm0, %xmm3
	vfmadd213sd	%xmm1, %xmm0, %xmm3 # xmm3 = (xmm0 * xmm3) + xmm1
	vmovss	208(%r15,%rdi), %xmm0   # xmm0 = mem[0],zero,zero,zero
	vcvtss2sd	%xmm0, %xmm0, %xmm1
	vmovsd	%xmm1, 400(%rsp)        # 8-byte Spill
	vmovss	212(%r15,%rdi), %xmm0   # xmm0 = mem[0],zero,zero,zero
	vcvtss2sd	%xmm0, %xmm0, %xmm15
	vmulsd	%xmm1, %xmm7, %xmm0
	vfmadd213sd	%xmm3, %xmm7, %xmm0 # xmm0 = (xmm7 * xmm0) + xmm3
	vmulsd	%xmm15, %xmm7, %xmm3
	vfmadd213sd	%xmm0, %xmm7, %xmm3 # xmm3 = (xmm7 * xmm3) + xmm0
	vmovss	216(%r15,%rdi), %xmm0   # xmm0 = mem[0],zero,zero,zero
	vcvtss2sd	%xmm0, %xmm0, %xmm9
	vmulsd	%xmm9, %xmm7, %xmm10
	vfmadd213sd	%xmm3, %xmm7, %xmm10 # xmm10 = (xmm7 * xmm10) + xmm3
	vmovss	220(%r15,%rdi), %xmm0   # xmm0 = mem[0],zero,zero,zero
	vcvtss2sd	%xmm0, %xmm0, %xmm8
	vmulsd	%xmm8, %xmm7, %xmm11
	vfmadd213sd	%xmm10, %xmm7, %xmm11 # xmm11 = (xmm7 * xmm11) + xmm10
	vmovsd	(%r14,%rax,8), %xmm7    # xmm7 = mem[0],zero
	vmovsd	24(%r14,%rdx,8), %xmm14 # xmm14 = mem[0],zero
	vmovsd	.LCPI0_1(%rip), %xmm12  # xmm12 = mem[0],zero
	vfmadd213sd	%xmm7, %xmm14, %xmm12 # xmm12 = (xmm14 * xmm12) + xmm7
	vmovsd	.LCPI0_2(%rip), %xmm10  # xmm10 = mem[0],zero
	vfmadd213sd	%xmm7, %xmm14, %xmm10 # xmm10 = (xmm14 * xmm10) + xmm7
	vmovapd	%xmm7, %xmm3
	vfmadd231sd	.LCPI0_3(%rip), %xmm14, %xmm7 # xmm7 = (xmm14 * mem) + xmm7
	vmovsd	392(%rsp), %xmm4        # 8-byte Reload
                                        # xmm4 = mem[0],zero
	.loc	1 0 0 is_stmt 0         # vlasovsolver/cpu_moments.cpp:0:0
	vsubsd	%xmm4, %xmm7, %xmm7
	vsubsd	%xmm4, %xmm10, %xmm10
	.loc	1 129 1 is_stmt 1       # vlasovsolver/cpu_moments.cpp:129:1
	vmulsd	%xmm13, %xmm7, %xmm13
	vfmadd213sd	.LCPI0_5, %xmm7, %xmm13 # xmm13 = (xmm7 * xmm13) + mem
	.loc	1 124 1                 # vlasovsolver/cpu_moments.cpp:124:1
	vmulsd	320(%rsp), %xmm10, %xmm0 # 8-byte Folded Reload
	vfmadd213sd	%xmm13, %xmm10, %xmm0 # xmm0 = (xmm10 * xmm0) + xmm13
	.loc	1 0 0 is_stmt 0         # vlasovsolver/cpu_moments.cpp:0:0
	vsubsd	%xmm4, %xmm12, %xmm13
	.loc	1 124 1                 # vlasovsolver/cpu_moments.cpp:124:1
	vmulsd	48(%rsp), %xmm13, %xmm1 # 8-byte Folded Reload
	vfmadd213sd	%xmm0, %xmm13, %xmm1 # xmm1 = (xmm13 * xmm1) + xmm0
	vfmadd231sd	.LCPI0_0(%rip), %xmm14, %xmm3 # xmm3 = (xmm14 * mem) + xmm3
	.loc	1 0 0                   # vlasovsolver/cpu_moments.cpp:0:0
	vsubsd	%xmm4, %xmm3, %xmm12
	.loc	1 124 1                 # vlasovsolver/cpu_moments.cpp:124:1
	vmulsd	512(%rsp), %xmm12, %xmm0 # 8-byte Folded Reload
	vfmadd213sd	%xmm1, %xmm12, %xmm0 # xmm0 = (xmm12 * xmm0) + xmm1
	.loc	1 129 1 is_stmt 1       # vlasovsolver/cpu_moments.cpp:129:1
	vmulsd	40(%rsp), %xmm7, %xmm1  # 8-byte Folded Reload
	vfmadd213sd	%xmm0, %xmm7, %xmm1 # xmm1 = (xmm7 * xmm1) + xmm0
	.loc	1 124 1                 # vlasovsolver/cpu_moments.cpp:124:1
	vmulsd	32(%rsp), %xmm10, %xmm0 # 8-byte Folded Reload
	vfmadd213sd	%xmm1, %xmm10, %xmm0 # xmm0 = (xmm10 * xmm0) + xmm1
	vmulsd	24(%rsp), %xmm13, %xmm1 # 8-byte Folded Reload
	vfmadd213sd	%xmm0, %xmm13, %xmm1 # xmm1 = (xmm13 * xmm1) + xmm0
	vmulsd	352(%rsp), %xmm12, %xmm0 # 8-byte Folded Reload
	vfmadd213sd	%xmm1, %xmm12, %xmm0 # xmm0 = (xmm12 * xmm0) + xmm1
	.loc	1 129 1                 # vlasovsolver/cpu_moments.cpp:129:1
	vmulsd	16(%rsp), %xmm7, %xmm1  # 8-byte Folded Reload
	vfmadd213sd	%xmm0, %xmm7, %xmm1 # xmm1 = (xmm7 * xmm1) + xmm0
	.loc	1 124 1                 # vlasovsolver/cpu_moments.cpp:124:1
	vmulsd	8(%rsp), %xmm10, %xmm0  # 8-byte Folded Reload
	vfmadd213sd	%xmm1, %xmm10, %xmm0 # xmm0 = (xmm10 * xmm0) + xmm1
	vmulsd	312(%rsp), %xmm13, %xmm1 # 8-byte Folded Reload
	vfmadd213sd	%xmm0, %xmm13, %xmm1 # xmm1 = (xmm13 * xmm1) + xmm0
	vmulsd	304(%rsp), %xmm12, %xmm0 # 8-byte Folded Reload
	vfmadd213sd	%xmm1, %xmm12, %xmm0 # xmm0 = (xmm12 * xmm0) + xmm1
	.loc	1 129 1                 # vlasovsolver/cpu_moments.cpp:129:1
	vmulsd	296(%rsp), %xmm7, %xmm1 # 8-byte Folded Reload
	vfmadd213sd	%xmm0, %xmm7, %xmm1 # xmm1 = (xmm7 * xmm1) + xmm0
	.loc	1 124 1                 # vlasovsolver/cpu_moments.cpp:124:1
	vmulsd	288(%rsp), %xmm10, %xmm0 # 8-byte Folded Reload
	vfmadd213sd	%xmm1, %xmm10, %xmm0 # xmm0 = (xmm10 * xmm0) + xmm1
	vmulsd	280(%rsp), %xmm13, %xmm1 # 8-byte Folded Reload
	vfmadd213sd	%xmm0, %xmm13, %xmm1 # xmm1 = (xmm13 * xmm1) + xmm0
	vmulsd	272(%rsp), %xmm12, %xmm0 # 8-byte Folded Reload
	vfmadd213sd	%xmm1, %xmm12, %xmm0 # xmm0 = (xmm12 * xmm0) + xmm1
	vmulsd	264(%rsp), %xmm7, %xmm1 # 8-byte Folded Reload
	vfmadd213sd	%xmm0, %xmm7, %xmm1 # xmm1 = (xmm7 * xmm1) + xmm0
	vmulsd	256(%rsp), %xmm10, %xmm0 # 8-byte Folded Reload
	vfmadd213sd	%xmm1, %xmm10, %xmm0 # xmm0 = (xmm10 * xmm0) + xmm1
	vmulsd	248(%rsp), %xmm13, %xmm1 # 8-byte Folded Reload
	vfmadd213sd	%xmm0, %xmm13, %xmm1 # xmm1 = (xmm13 * xmm1) + xmm0
	vmulsd	240(%rsp), %xmm12, %xmm0 # 8-byte Folded Reload
	vfmadd213sd	%xmm1, %xmm12, %xmm0 # xmm0 = (xmm12 * xmm0) + xmm1
	vmulsd	232(%rsp), %xmm7, %xmm1 # 8-byte Folded Reload
	vfmadd213sd	%xmm0, %xmm7, %xmm1 # xmm1 = (xmm7 * xmm1) + xmm0
	vmulsd	224(%rsp), %xmm10, %xmm0 # 8-byte Folded Reload
	vfmadd213sd	%xmm1, %xmm10, %xmm0 # xmm0 = (xmm10 * xmm0) + xmm1
	vmulsd	216(%rsp), %xmm13, %xmm1 # 8-byte Folded Reload
	vfmadd213sd	%xmm0, %xmm13, %xmm1 # xmm1 = (xmm13 * xmm1) + xmm0
	vmulsd	208(%rsp), %xmm12, %xmm0 # 8-byte Folded Reload
	vfmadd213sd	%xmm1, %xmm12, %xmm0 # xmm0 = (xmm12 * xmm0) + xmm1
	vmulsd	200(%rsp), %xmm7, %xmm1 # 8-byte Folded Reload
	vfmadd213sd	%xmm0, %xmm7, %xmm1 # xmm1 = (xmm7 * xmm1) + xmm0
	vmulsd	192(%rsp), %xmm10, %xmm0 # 8-byte Folded Reload
	vfmadd213sd	%xmm1, %xmm10, %xmm0 # xmm0 = (xmm10 * xmm0) + xmm1
	vmulsd	184(%rsp), %xmm13, %xmm1 # 8-byte Folded Reload
	vfmadd213sd	%xmm0, %xmm13, %xmm1 # xmm1 = (xmm13 * xmm1) + xmm0
	vmulsd	176(%rsp), %xmm12, %xmm0 # 8-byte Folded Reload
	vfmadd213sd	%xmm1, %xmm12, %xmm0 # xmm0 = (xmm12 * xmm0) + xmm1
	vmulsd	168(%rsp), %xmm7, %xmm1 # 8-byte Folded Reload
	vfmadd213sd	%xmm0, %xmm7, %xmm1 # xmm1 = (xmm7 * xmm1) + xmm0
	vmulsd	160(%rsp), %xmm10, %xmm0 # 8-byte Folded Reload
	vfmadd213sd	%xmm1, %xmm10, %xmm0 # xmm0 = (xmm10 * xmm0) + xmm1
	vmulsd	152(%rsp), %xmm13, %xmm1 # 8-byte Folded Reload
	vfmadd213sd	%xmm0, %xmm13, %xmm1 # xmm1 = (xmm13 * xmm1) + xmm0
	vmulsd	144(%rsp), %xmm12, %xmm0 # 8-byte Folded Reload
	vfmadd213sd	%xmm1, %xmm12, %xmm0 # xmm0 = (xmm12 * xmm0) + xmm1
	vmulsd	136(%rsp), %xmm7, %xmm1 # 8-byte Folded Reload
	vfmadd213sd	%xmm0, %xmm7, %xmm1 # xmm1 = (xmm7 * xmm1) + xmm0
	vmulsd	128(%rsp), %xmm10, %xmm0 # 8-byte Folded Reload
	vfmadd213sd	%xmm1, %xmm10, %xmm0 # xmm0 = (xmm10 * xmm0) + xmm1
	vmulsd	120(%rsp), %xmm13, %xmm1 # 8-byte Folded Reload
	vfmadd213sd	%xmm0, %xmm13, %xmm1 # xmm1 = (xmm13 * xmm1) + xmm0
	vmulsd	104(%rsp), %xmm12, %xmm0 # 8-byte Folded Reload
	vfmadd213sd	%xmm1, %xmm12, %xmm0 # xmm0 = (xmm12 * xmm0) + xmm1
	vmulsd	112(%rsp), %xmm7, %xmm1 # 8-byte Folded Reload
	vfmadd213sd	%xmm0, %xmm7, %xmm1 # xmm1 = (xmm7 * xmm1) + xmm0
	vmulsd	96(%rsp), %xmm10, %xmm0 # 8-byte Folded Reload
	vfmadd213sd	%xmm1, %xmm10, %xmm0 # xmm0 = (xmm10 * xmm0) + xmm1
	vmulsd	88(%rsp), %xmm13, %xmm1 # 8-byte Folded Reload
	vfmadd213sd	%xmm0, %xmm13, %xmm1 # xmm1 = (xmm13 * xmm1) + xmm0
	vmulsd	80(%rsp), %xmm12, %xmm0 # 8-byte Folded Reload
	vfmadd213sd	%xmm1, %xmm12, %xmm0 # xmm0 = (xmm12 * xmm0) + xmm1
	vmulsd	72(%rsp), %xmm7, %xmm1  # 8-byte Folded Reload
	vfmadd213sd	%xmm0, %xmm7, %xmm1 # xmm1 = (xmm7 * xmm1) + xmm0
	vmulsd	472(%rsp), %xmm10, %xmm0 # 8-byte Folded Reload
	vfmadd213sd	%xmm1, %xmm10, %xmm0 # xmm0 = (xmm10 * xmm0) + xmm1
	vmulsd	464(%rsp), %xmm13, %xmm1 # 8-byte Folded Reload
	vfmadd213sd	%xmm0, %xmm13, %xmm1 # xmm1 = (xmm13 * xmm1) + xmm0
	vmulsd	456(%rsp), %xmm12, %xmm0 # 8-byte Folded Reload
	vfmadd213sd	%xmm1, %xmm12, %xmm0 # xmm0 = (xmm12 * xmm0) + xmm1
	vmulsd	448(%rsp), %xmm7, %xmm1 # 8-byte Folded Reload
	vfmadd213sd	%xmm0, %xmm7, %xmm1 # xmm1 = (xmm7 * xmm1) + xmm0
	vmulsd	440(%rsp), %xmm10, %xmm0 # 8-byte Folded Reload
	vfmadd213sd	%xmm1, %xmm10, %xmm0 # xmm0 = (xmm10 * xmm0) + xmm1
	vmulsd	432(%rsp), %xmm13, %xmm1 # 8-byte Folded Reload
	vfmadd213sd	%xmm0, %xmm13, %xmm1 # xmm1 = (xmm13 * xmm1) + xmm0
	vmulsd	424(%rsp), %xmm12, %xmm0 # 8-byte Folded Reload
	vfmadd213sd	%xmm1, %xmm12, %xmm0 # xmm0 = (xmm12 * xmm0) + xmm1
	vmovsd	368(%rsp), %xmm1        # 8-byte Reload
                                        # xmm1 = mem[0],zero
	vmulsd	%xmm1, %xmm7, %xmm4
	vfmadd213sd	%xmm0, %xmm7, %xmm4 # xmm4 = (xmm7 * xmm4) + xmm0
	vpermilpd	$1, %xmm6, %xmm0 # xmm0 = xmm6[1,0]
	vmulsd	%xmm1, %xmm0, %xmm3
	vfmadd213sd	480(%rsp), %xmm0, %xmm3 # 8-byte Folded Reload
                                        # xmm3 = (xmm0 * xmm3) + mem
	vmulsd	%xmm5, %xmm10, %xmm1
	vfmadd213sd	%xmm4, %xmm10, %xmm1 # xmm1 = (xmm10 * xmm1) + xmm4
	vmulsd	%xmm5, %xmm0, %xmm4
	vfmadd213sd	%xmm3, %xmm0, %xmm4 # xmm4 = (xmm0 * xmm4) + xmm3
	vmovsd	416(%rsp), %xmm5        # 8-byte Reload
                                        # xmm5 = mem[0],zero
	vmulsd	%xmm5, %xmm13, %xmm3
	vfmadd213sd	%xmm1, %xmm13, %xmm3 # xmm3 = (xmm13 * xmm3) + xmm1
	vmulsd	%xmm5, %xmm0, %xmm1
	vfmadd213sd	%xmm4, %xmm0, %xmm1 # xmm1 = (xmm0 * xmm1) + xmm4
	vmovsd	408(%rsp), %xmm5        # 8-byte Reload
                                        # xmm5 = mem[0],zero
	vmulsd	%xmm5, %xmm12, %xmm4
	vfmadd213sd	%xmm3, %xmm12, %xmm4 # xmm4 = (xmm12 * xmm4) + xmm3
	vmulsd	%xmm5, %xmm0, %xmm3
	vfmadd213sd	%xmm1, %xmm0, %xmm3 # xmm3 = (xmm0 * xmm3) + xmm1
	vmovsd	400(%rsp), %xmm5        # 8-byte Reload
                                        # xmm5 = mem[0],zero
	vmulsd	%xmm5, %xmm7, %xmm1
	vfmadd213sd	%xmm4, %xmm7, %xmm1 # xmm1 = (xmm7 * xmm1) + xmm4
	vmulsd	%xmm5, %xmm0, %xmm4
	vfmadd213sd	%xmm3, %xmm0, %xmm4 # xmm4 = (xmm0 * xmm4) + xmm3
	vmulsd	%xmm15, %xmm10, %xmm3
	vfmadd213sd	%xmm1, %xmm10, %xmm3 # xmm3 = (xmm10 * xmm3) + xmm1
	vmulsd	%xmm15, %xmm0, %xmm1
	vfmadd213sd	%xmm4, %xmm0, %xmm1 # xmm1 = (xmm0 * xmm1) + xmm4
	vmulsd	%xmm9, %xmm13, %xmm4
	vfmadd213sd	%xmm3, %xmm13, %xmm4 # xmm4 = (xmm13 * xmm4) + xmm3
	vmulsd	%xmm9, %xmm0, %xmm3
	vfmadd213sd	%xmm1, %xmm0, %xmm3 # xmm3 = (xmm0 * xmm3) + xmm1
	vmulsd	%xmm8, %xmm12, %xmm1
	vfmadd213sd	%xmm4, %xmm12, %xmm1 # xmm1 = (xmm12 * xmm1) + xmm4
	vmulsd	%xmm8, %xmm0, %xmm4
	vfmadd213sd	%xmm3, %xmm0, %xmm4 # xmm4 = (xmm0 * xmm4) + xmm3
	vmovss	224(%r15,%rdi), %xmm3   # xmm3 = mem[0],zero,zero,zero
	vcvtss2sd	%xmm3, %xmm3, %xmm3
	vmulsd	%xmm3, %xmm7, %xmm5
	vfmadd213sd	%xmm1, %xmm7, %xmm5 # xmm5 = (xmm7 * xmm5) + xmm1
	vmulsd	%xmm3, %xmm0, %xmm0
	vmulsd	%xmm3, %xmm2, %xmm1
	vunpcklpd	%xmm0, %xmm1, %xmm0 # xmm0 = xmm1[0],xmm0[0]
	vblendpd	$1, %xmm2, %xmm6, %xmm1 # xmm1 = xmm2[0],xmm6[1]
	vunpcklpd	%xmm4, %xmm11, %xmm2 # xmm2 = xmm11[0],xmm4[0]
	vfmadd213pd	%xmm2, %xmm1, %xmm0 # xmm0 = (xmm1 * xmm0) + xmm2
	vmovss	228(%r15,%rdi), %xmm2   # xmm2 = mem[0],zero,zero,zero
	vcvtss2sd	%xmm2, %xmm2, %xmm2
	vmulsd	%xmm2, %xmm10, %xmm3
	vfmadd213sd	%xmm5, %xmm10, %xmm3 # xmm3 = (xmm10 * xmm3) + xmm5
	vmovddup	%xmm2, %xmm2    # xmm2 = xmm2[0,0]
	vmulpd	%xmm2, %xmm1, %xmm2
	vmovss	232(%r15,%rdi), %xmm4   # xmm4 = mem[0],zero,zero,zero
	vcvtss2sd	%xmm4, %xmm4, %xmm4
	vfmadd213pd	%xmm0, %xmm1, %xmm2 # xmm2 = (xmm1 * xmm2) + xmm0
	vmulsd	%xmm4, %xmm13, %xmm0
	vfmadd213sd	%xmm3, %xmm13, %xmm0 # xmm0 = (xmm13 * xmm0) + xmm3
	vmovddup	%xmm4, %xmm3    # xmm3 = xmm4[0,0]
	vmulpd	%xmm3, %xmm1, %xmm3
	vmovss	236(%r15,%rdi), %xmm4   # xmm4 = mem[0],zero,zero,zero
	vfmadd213pd	%xmm2, %xmm1, %xmm3 # xmm3 = (xmm1 * xmm3) + xmm2
	vcvtss2sd	%xmm4, %xmm4, %xmm2
	vmulsd	%xmm2, %xmm12, %xmm4
	vmovddup	%xmm2, %xmm2    # xmm2 = xmm2[0,0]
	vmulpd	%xmm2, %xmm1, %xmm2
	vfmadd213sd	%xmm0, %xmm12, %xmm4 # xmm4 = (xmm12 * xmm4) + xmm0
	vfmadd213pd	%xmm3, %xmm1, %xmm2 # xmm2 = (xmm1 * xmm2) + xmm3
	vmovss	240(%r15,%rdi), %xmm0   # xmm0 = mem[0],zero,zero,zero
	vcvtss2sd	%xmm0, %xmm0, %xmm0
	vmulsd	%xmm0, %xmm7, %xmm1
	vfmadd213sd	%xmm4, %xmm7, %xmm1 # xmm1 = (xmm7 * xmm1) + xmm4
	vmovss	244(%r15,%rdi), %xmm3   # xmm3 = mem[0],zero,zero,zero
	vcvtss2sd	%xmm3, %xmm3, %xmm3
	vmulsd	%xmm3, %xmm10, %xmm4
	vmovss	248(%r15,%rdi), %xmm5   # xmm5 = mem[0],zero,zero,zero
	vfmadd213sd	%xmm1, %xmm10, %xmm4 # xmm4 = (xmm10 * xmm4) + xmm1
	vcvtss2sd	%xmm5, %xmm5, %xmm1
	vmovss	252(%r15,%rdi), %xmm5   # xmm5 = mem[0],zero,zero,zero
	vcvtss2sd	%xmm5, %xmm5, %xmm5
	vmulsd	%xmm1, %xmm13, %xmm7
	vfmadd213sd	%xmm4, %xmm13, %xmm7 # xmm7 = (xmm13 * xmm7) + xmm4
	vmovsd	(%rsp), %xmm8           # 8-byte Reload
                                        # xmm8 = mem[0],zero
.Ltmp65:
	#DEBUG_VALUE: blockLID <- undef
	#DEBUG_VALUE: array <- [DW_OP_LLVM_fragment 0 64] $xmm8
	vmulsd	%xmm5, %xmm12, %xmm4
	vfmadd213sd	%xmm7, %xmm12, %xmm4 # xmm4 = (xmm12 * xmm4) + xmm7
	vmovddup	%xmm0, %xmm0    # xmm0 = xmm0[0,0]
	vmulpd	%xmm0, %xmm6, %xmm0
	vfmadd213pd	%xmm2, %xmm6, %xmm0 # xmm0 = (xmm6 * xmm0) + xmm2
	vmovddup	%xmm3, %xmm2    # xmm2 = xmm3[0,0]
	vmulpd	%xmm2, %xmm6, %xmm2
	vfmadd213pd	%xmm0, %xmm6, %xmm2 # xmm2 = (xmm6 * xmm2) + xmm0
	vmovddup	%xmm1, %xmm0    # xmm0 = xmm1[0,0]
	vmulpd	%xmm0, %xmm6, %xmm0
	vfmadd213pd	%xmm2, %xmm6, %xmm0 # xmm0 = (xmm6 * xmm0) + xmm2
	vmovddup	%xmm5, %xmm1    # xmm1 = xmm5[0,0]
	vmulpd	%xmm1, %xmm6, %xmm1
	vfmadd213pd	%xmm0, %xmm6, %xmm1 # xmm1 = (xmm6 * xmm1) + xmm0
.Ltmp66:
	.loc	1 132 1                 # vlasovsolver/cpu_moments.cpp:132:1
	vmulsd	32(%r14,%rdx,8), %xmm14, %xmm0
	vmulsd	496(%rsp), %xmm0, %xmm0 # 16-byte Folded Reload
	vmovapd	592(%rsp), %xmm2        # 16-byte Reload
.Ltmp67:
	.loc	1 134 1                 # vlasovsolver/cpu_moments.cpp:134:1
	vfmadd213sd	%xmm8, %xmm0, %xmm4 # xmm4 = (xmm0 * xmm4) + xmm8
.Ltmp68:
	#DEBUG_VALUE: array <- [DW_OP_LLVM_fragment 0 64] $xmm4
	.loc	1 0 1 is_stmt 0         # vlasovsolver/cpu_moments.cpp:0:1
	vmovsd	%xmm4, (%rsp)           # 8-byte Spill
.Ltmp69:
	#DEBUG_VALUE: array <- [DW_OP_LLVM_fragment 0 64] [$rsp+0]
	#DEBUG_VALUE: array <- [DW_OP_LLVM_fragment 0 64] [$rsp+0]
	#DEBUG_VALUE: array <- [DW_OP_LLVM_fragment 0 64] [$rsp+0]
	.loc	1 135 1 is_stmt 1       # vlasovsolver/cpu_moments.cpp:135:1
	vmovddup	%xmm0, %xmm0    # xmm0 = xmm0[0,0]
	vmovapd	%xmm0, %xmm3
	vfmadd213pd	%xmm2, %xmm1, %xmm3 # xmm3 = (xmm1 * xmm3) + xmm2
.Ltmp70:
	#DEBUG_VALUE: blockLID <- [DW_OP_plus_uconst 1, DW_OP_stack_value] undef
	.loc	1 126 1                 # vlasovsolver/cpu_moments.cpp:126:1
	addq	$256, %rsi              # imm = 0x100
	addq	$6, %rdx
	cmpq	%rsi, %rcx
	jne	.LBB0_20
.Ltmp71:
# %bb.21:                               # %L.B0032.loopexit
                                        #   in Loop: Header=BB0_16 Depth=1
	#DEBUG_VALUE: array <- [DW_OP_LLVM_fragment 0 64] [$rsp+0]
	#DEBUG_VALUE: mass <- [DW_OP_plus_uconst 544] [$rsp+0]
	#DEBUG_VALUE: array <- [DW_OP_LLVM_fragment 64 64] 0.000000e+00
	#DEBUG_VALUE: array <- [DW_OP_LLVM_fragment 128 64] 0.000000e+00
	#DEBUG_VALUE: data <- $r15
	#DEBUG_VALUE: blockParams <- $r14
	#DEBUG_VALUE: calculateCellMoments:cell <- [DW_OP_plus_uconst 64] [$rsp+0]
	#DEBUG_VALUE: cell <- [DW_OP_plus_uconst 64] [$rsp+0]
	#DEBUG_VALUE: skipMoments <- 0
	.loc	1 135 1                 # vlasovsolver/cpu_moments.cpp:135:1
	vfmadd213pd	%xmm2, %xmm1, %xmm0 # xmm0 = (xmm1 * xmm0) + xmm2
	movq	64(%rsp), %r14          # 8-byte Reload
.Ltmp72:
	.loc	1 0 1 is_stmt 0         # vlasovsolver/cpu_moments.cpp:0:1
	vmovapd	544(%rsp), %xmm2        # 16-byte Reload
.Ltmp73:
	#DEBUG_VALUE: mass <- $xmm2
	jmp	.LBB0_22
.Ltmp74:
.Lfunc_end0:
	.size	_Z20calculateCellMomentsPN12spatial_cell11SpatialCellERKbS3_, .Lfunc_end0-_Z20calculateCellMomentsPN12spatial_cell11SpatialCellERKbS3_
	.cfi_endproc
                                        # -- End function
	.section	.rodata.cst8,"aM",@progbits,8
	.p2align	3               # -- Begin function _Z18calculateMoments_RRN5dccrg5DccrgIN12spatial_cell11SpatialCellENS_18Cartesian_GeometryESt5tupleIJEES5_EERKSt6vectorImSaImEERKb
.LCPI1_0:
	.quad	4615063718147915776     # double 3.5
.LCPI1_1:
	.quad	4612811918334230528     # double 2.5
.LCPI1_2:
	.quad	4609434218613702656     # double 1.5
.LCPI1_3:
	.quad	4602678819172646912     # double 0.5
.LCPI1_5:
	.quad	-4616189618054758400    # double -1
.LCPI1_8:
	.quad	0                       # double 0
	.section	.rodata.cst16,"aM",@progbits,16
	.p2align	4
.LCPI1_4:
	.quad	4615063718147915776     # double 3.5
	.quad	4615063718147915776     # double 3.5
.LCPI1_7:
	.zero	16
	.section	.rodata.cst32,"aM",@progbits,32
	.p2align	5
.LCPI1_6:
	.zero	32
	.text
	.globl	_Z18calculateMoments_RRN5dccrg5DccrgIN12spatial_cell11SpatialCellENS_18Cartesian_GeometryESt5tupleIJEES5_EERKSt6vectorImSaImEERKb
	.p2align	4, 0x90
	.type	_Z18calculateMoments_RRN5dccrg5DccrgIN12spatial_cell11SpatialCellENS_18Cartesian_GeometryESt5tupleIJEES5_EERKSt6vectorImSaImEERKb,@function
_Z18calculateMoments_RRN5dccrg5DccrgIN12spatial_cell11SpatialCellENS_18Cartesian_GeometryESt5tupleIJEES5_EERKSt6vectorImSaImEERKb: # @_Z18calculateMoments_RRN5dccrg5DccrgIN12spatial_cell11SpatialCellENS_18Cartesian_GeometryESt5tupleIJEES5_EERKSt6vectorImSaImEERKb
.Lfunc_begin1:
	.loc	1 149 0 is_stmt 1       # vlasovsolver/cpu_moments.cpp:149:0
	.cfi_startproc
	.cfi_personality 3, __gxx_personality_v0
	.cfi_lsda 3, .Lexception0
# %bb.0:                                # %L.entry
	#DEBUG_VALUE: calculateMoments_R:mpiGrid <- $rdi
	#DEBUG_VALUE: calculateMoments_R:cells <- $rsi
	#DEBUG_VALUE: calculateMoments_R:computeSecond <- $rdx
	pushq	%rbp
	.cfi_def_cfa_offset 16
	.cfi_offset %rbp, -16
	movq	%rsp, %rbp
	.cfi_def_cfa_register %rbp
	pushq	%r15
	pushq	%r14
	pushq	%r13
	pushq	%r12
	pushq	%rbx
	andq	$-32, %rsp
	subq	$800, %rsp              # imm = 0x320
	.cfi_offset %rbx, -56
	.cfi_offset %r12, -48
	.cfi_offset %r13, -40
	.cfi_offset %r14, -32
	.cfi_offset %r15, -24
	movq	%rdx, %r15
	movq	%rsi, 8(%rsp)           # 8-byte Spill
	movq	%rdi, 120(%rsp)         # 8-byte Spill
.Ltmp93:
	#DEBUG_VALUE: computeSecond <- undef
	#DEBUG_VALUE: cells <- undef
	#DEBUG_VALUE: mpiGrid <- undef
	#DEBUG_VALUE: calculateMoments_R:computeSecond <- $r15
	#DEBUG_VALUE: calculateMoments_R:cells <- [DW_OP_plus_uconst 8] [$rsp+0]
	#DEBUG_VALUE: calculateMoments_R:mpiGrid <- [DW_OP_plus_uconst 120] [$rsp+0]
	.loc	1 527 1 prologue_end    # vlasovsolver/cpu_moments.cpp:527:1
	leaq	32(%rsp), %rbx
	movq	%rbx, 16(%rsp)
.Ltmp94:
	#DEBUG_VALUE: __dnew <- 17
	#DEBUG_VALUE: _M_construct:_T29072768_54493 <- undef
	#DEBUG_VALUE:  <- [DW_OP_plus_uconst 16, DW_OP_stack_value] $rsp
	#DEBUG_VALUE: _M_construct: <- [DW_OP_plus_uconst 16, DW_OP_stack_value] $rsp
	#DEBUG_VALUE: ....inline.__FILL_CHARARRAY <- [DW_OP_LLVM_convert 32 7, DW_OP_LLVM_convert 8 7, DW_OP_stack_value] 0
	.file	2 "/usr/include/c++/9/bits/basic_string.tcc"
	.loc	2 143 1                 # /usr/include/c++/9/bits/basic_string.tcc:143:1
	movq	$17, (%rsp)
.Ltmp95:
	#DEBUG_VALUE: __dnew <- [DW_OP_deref] $rsp
.Ltmp75:
	.loc	2 0 1 is_stmt 0         # /usr/include/c++/9/bits/basic_string.tcc:0:1
	leaq	16(%rsp), %rdi
	movq	%rsp, %rsi
	.loc	2 219 1 is_stmt 1       # /usr/include/c++/9/bits/basic_string.tcc:219:1
	xorl	%edx, %edx
	callq	_ZNSt7__cxx1112basic_stringIcSt11char_traitsIcESaIcEE9_M_createERmm
.Ltmp76:
.Ltmp96:
	#DEBUG_VALUE: __beg <- undef
	#DEBUG_VALUE: _M_construct:__beg <- undef
# %bb.1:                                # %L.B1743
	#DEBUG_VALUE: __dnew <- [DW_OP_deref] $rsp
	#DEBUG_VALUE: ....inline.__FILL_CHARARRAY <- [DW_OP_LLVM_convert 32 7, DW_OP_LLVM_convert 8 7, DW_OP_stack_value] 0
	#DEBUG_VALUE: _M_construct: <- [DW_OP_plus_uconst 16, DW_OP_stack_value] $rsp
	#DEBUG_VALUE:  <- [DW_OP_plus_uconst 16, DW_OP_stack_value] $rsp
	#DEBUG_VALUE: calculateMoments_R:mpiGrid <- [DW_OP_plus_uconst 120] [$rsp+0]
	#DEBUG_VALUE: calculateMoments_R:cells <- [DW_OP_plus_uconst 8] [$rsp+0]
	#DEBUG_VALUE: calculateMoments_R:computeSecond <- $r15
	movq	%rax, 16(%rsp)
	.loc	2 220 1                 # /usr/include/c++/9/bits/basic_string.tcc:220:1
	movq	(%rsp), %rcx
.Ltmp97:
	#DEBUG_VALUE: __dnew <- $rcx
	movq	%rcx, 32(%rsp)
	.loc	2 398 1                 # /usr/include/c++/9/bits/basic_string.tcc:398:1
	vmovupd	.S55839(%rip), %xmm0
	vmovupd	%xmm0, (%rax)
	movb	$110, 16(%rax)
	.loc	2 216 1                 # /usr/include/c++/9/bits/basic_string.tcc:216:1
	movq	%rcx, 24(%rsp)
	.loc	2 217 1                 # /usr/include/c++/9/bits/basic_string.tcc:217:1
	movq	16(%rsp), %rax
	movb	$0, (%rax,%rcx)
.Ltmp78:
	leaq	16(%rsp), %rdi
.Ltmp98:
	.loc	1 151 1                 # vlasovsolver/cpu_moments.cpp:151:1
	callq	_ZN7phiprof5startERKNSt7__cxx1112basic_stringIcSt11char_traitsIcESaIcEEE
.Ltmp99:
.Ltmp79:
# %bb.2:                                # %L.B1744
	#DEBUG_VALUE: ....inline.__FILL_CHARARRAY <- [DW_OP_LLVM_convert 32 7, DW_OP_LLVM_convert 8 7, DW_OP_stack_value] 0
	#DEBUG_VALUE: calculateMoments_R:mpiGrid <- [DW_OP_plus_uconst 120] [$rsp+0]
	#DEBUG_VALUE: calculateMoments_R:cells <- [DW_OP_plus_uconst 8] [$rsp+0]
	#DEBUG_VALUE: calculateMoments_R:computeSecond <- $r15
	.loc	1 658 1                 # vlasovsolver/cpu_moments.cpp:658:1
	movq	16(%rsp), %rdi
	cmpq	%rbx, %rdi
	je	.LBB1_4
.Ltmp100:
# %bb.3:                                # %L.B1745
	#DEBUG_VALUE: ....inline.__FILL_CHARARRAY <- [DW_OP_LLVM_convert 32 7, DW_OP_LLVM_convert 8 7, DW_OP_stack_value] 0
	#DEBUG_VALUE: calculateMoments_R:mpiGrid <- [DW_OP_plus_uconst 120] [$rsp+0]
	#DEBUG_VALUE: calculateMoments_R:cells <- [DW_OP_plus_uconst 8] [$rsp+0]
	#DEBUG_VALUE: calculateMoments_R:computeSecond <- $r15
	callq	_ZdlPv
.Ltmp101:
.LBB1_4:                                # %L..inline.74761
	#DEBUG_VALUE: ....inline.__FILL_CHARARRAY <- [DW_OP_LLVM_convert 32 7, DW_OP_LLVM_convert 8 7, DW_OP_stack_value] 0
	#DEBUG_VALUE: calculateMoments_R:mpiGrid <- [DW_OP_plus_uconst 120] [$rsp+0]
	#DEBUG_VALUE: calculateMoments_R:cells <- [DW_OP_plus_uconst 8] [$rsp+0]
	#DEBUG_VALUE: calculateMoments_R:computeSecond <- $r15
	#DEBUG_VALUE: popID <- 0
	.loc	1 154 1                 # vlasovsolver/cpu_moments.cpp:154:1
	callq	_Z16getObjectWrapperv
	movq	232(%rax), %rdi
	subq	224(%rax), %rdi
	movabsq	$5675921253449092805, %rdx # imm = 0x4EC4EC4EC4EC4EC5
	movq	%rdi, %rax
	imulq	%rdx
	sarq	$6, %rdx
	sarq	$63, %rdi
	movq	8(%rsp), %rsi           # 8-byte Reload
.Ltmp102:
	.loc	1 916 1                 # vlasovsolver/cpu_moments.cpp:916:1
	movq	(%rsi), %rax
	movq	8(%rsi), %rsi
	subq	%rax, %rsi
	cmpq	$8, %rsi
	setb	%cl
	cmpq	%rdi, %rdx
	je	.LBB1_21
.Ltmp103:
# %bb.5:                                # %L.B1746.preheader
	#DEBUG_VALUE: popID <- 0
	#DEBUG_VALUE: ....inline.__FILL_CHARARRAY <- [DW_OP_LLVM_convert 32 7, DW_OP_LLVM_convert 8 7, DW_OP_stack_value] 0
	#DEBUG_VALUE: calculateMoments_R:mpiGrid <- [DW_OP_plus_uconst 120] [$rsp+0]
	#DEBUG_VALUE: calculateMoments_R:cells <- [DW_OP_plus_uconst 8] [$rsp+0]
	#DEBUG_VALUE: calculateMoments_R:computeSecond <- $r15
	.loc	1 0 1 is_stmt 0         # vlasovsolver/cpu_moments.cpp:0:1
	movq	%r15, 56(%rsp)          # 8-byte Spill
.Ltmp104:
	#DEBUG_VALUE: calculateMoments_R:computeSecond <- [DW_OP_plus_uconst 56] [$rsp+0]
	xorl	%r15d, %r15d
	jmp	.LBB1_6
.Ltmp105:
	.p2align	4, 0x90
.LBB1_19:                               # %L.B0078
                                        #   in Loop: Header=BB1_6 Depth=1
	#DEBUG_VALUE: calculateMoments_R:computeSecond <- [DW_OP_plus_uconst 56] [$rsp+0]
	#DEBUG_VALUE: ....inline.__FILL_CHARARRAY <- [DW_OP_LLVM_convert 32 7, DW_OP_LLVM_convert 8 7, DW_OP_stack_value] 0
	#DEBUG_VALUE: calculateMoments_R:mpiGrid <- [DW_OP_plus_uconst 120] [$rsp+0]
	#DEBUG_VALUE: calculateMoments_R:cells <- [DW_OP_plus_uconst 8] [$rsp+0]
	.loc	1 224 1 is_stmt 1       # vlasovsolver/cpu_moments.cpp:224:1
	incl	%r15d
.Ltmp106:
	#DEBUG_VALUE: popID <- $r15d
	.loc	1 154 1                 # vlasovsolver/cpu_moments.cpp:154:1
	vzeroupper
	callq	_Z16getObjectWrapperv
	movq	232(%rax), %rcx
	subq	224(%rax), %rcx
	movq	%rcx, %rax
	movabsq	$5675921253449092805, %rdx # imm = 0x4EC4EC4EC4EC4EC5
	imulq	%rdx
	sarq	$6, %rdx
	sarq	$63, %rcx
	subq	%rcx, %rdx
	movq	8(%rsp), %rcx           # 8-byte Reload
.Ltmp107:
	.loc	1 916 1                 # vlasovsolver/cpu_moments.cpp:916:1
	movq	(%rcx), %rax
	movq	8(%rcx), %rcx
	subq	%rax, %rcx
	cmpq	$8, %rcx
	setb	%cl
	cmpq	%r15, %rdx
	jbe	.LBB1_20
.Ltmp108:
.LBB1_6:                                # %L.B1746
                                        # =>This Loop Header: Depth=1
                                        #     Child Loop BB1_8 Depth 2
                                        #       Child Loop BB1_15 Depth 3
	#DEBUG_VALUE: calculateMoments_R:computeSecond <- [DW_OP_plus_uconst 56] [$rsp+0]
	#DEBUG_VALUE: ....inline.__FILL_CHARARRAY <- [DW_OP_LLVM_convert 32 7, DW_OP_LLVM_convert 8 7, DW_OP_stack_value] 0
	#DEBUG_VALUE: calculateMoments_R:mpiGrid <- [DW_OP_plus_uconst 120] [$rsp+0]
	#DEBUG_VALUE: calculateMoments_R:cells <- [DW_OP_plus_uconst 8] [$rsp+0]
	#DEBUG_VALUE: popID <- $r15d
	#DEBUG_VALUE: c <- 0
	testb	$1, %cl
	jne	.LBB1_19
.Ltmp109:
# %bb.7:                                # %L.B1747
                                        #   in Loop: Header=BB1_6 Depth=1
	#DEBUG_VALUE: c <- 0
	#DEBUG_VALUE: popID <- $r15d
	#DEBUG_VALUE: calculateMoments_R:computeSecond <- [DW_OP_plus_uconst 56] [$rsp+0]
	#DEBUG_VALUE: ....inline.__FILL_CHARARRAY <- [DW_OP_LLVM_convert 32 7, DW_OP_LLVM_convert 8 7, DW_OP_stack_value] 0
	#DEBUG_VALUE: calculateMoments_R:mpiGrid <- [DW_OP_plus_uconst 120] [$rsp+0]
	#DEBUG_VALUE: calculateMoments_R:cells <- [DW_OP_plus_uconst 8] [$rsp+0]
	.loc	1 156 1                 # vlasovsolver/cpu_moments.cpp:156:1
	imulq	$208, %r15, %rcx
	movq	%rcx, 64(%rsp)          # 8-byte Spill
	imulq	$608, %r15, %r13        # imm = 0x260
.Ltmp110:
	.loc	1 0 0 is_stmt 0         # vlasovsolver/cpu_moments.cpp:0:0
	xorl	%ebx, %ebx
	movq	%r15, 72(%rsp)          # 8-byte Spill
	jmp	.LBB1_8
.Ltmp111:
.LBB1_13:                               #   in Loop: Header=BB1_8 Depth=2
	#DEBUG_VALUE: charge <- [DW_OP_plus_uconst 80] [$rsp+0]
	#DEBUG_VALUE: array <- [DW_OP_LLVM_fragment 0 64] 0.000000e+00
	#DEBUG_VALUE: array <- [DW_OP_LLVM_fragment 64 64] 0.000000e+00
	#DEBUG_VALUE: array <- [DW_OP_LLVM_fragment 128 64] 0.000000e+00
	#DEBUG_VALUE: array <- [DW_OP_LLVM_fragment 192 64] 0.000000e+00
	#DEBUG_VALUE: blockLID <- 0
	#DEBUG_VALUE: mass <- [DW_OP_plus_uconst 416] [$rsp+0]
	#DEBUG_VALUE: blockParams <- $r15
	#DEBUG_VALUE: data <- $r14
	#DEBUG_VALUE: calculateMoments_R:computeSecond <- [DW_OP_plus_uconst 56] [$rsp+0]
	#DEBUG_VALUE: ....inline.__FILL_CHARARRAY <- [DW_OP_LLVM_convert 32 7, DW_OP_LLVM_convert 8 7, DW_OP_stack_value] 0
	#DEBUG_VALUE: calculateMoments_R:mpiGrid <- [DW_OP_plus_uconst 120] [$rsp+0]
	#DEBUG_VALUE: calculateMoments_R:cells <- [DW_OP_plus_uconst 8] [$rsp+0]
	vxorpd	%xmm1, %xmm1, %xmm1
.Ltmp112:
.LBB1_17:                               # %L.B0089
                                        #   in Loop: Header=BB1_8 Depth=2
	#DEBUG_VALUE: calculateMoments_R:computeSecond <- [DW_OP_plus_uconst 56] [$rsp+0]
	#DEBUG_VALUE: ....inline.__FILL_CHARARRAY <- [DW_OP_LLVM_convert 32 7, DW_OP_LLVM_convert 8 7, DW_OP_stack_value] 0
	#DEBUG_VALUE: calculateMoments_R:mpiGrid <- [DW_OP_plus_uconst 120] [$rsp+0]
	#DEBUG_VALUE: calculateMoments_R:cells <- [DW_OP_plus_uconst 8] [$rsp+0]
	vmovapd	%ymm1, 384(%rsp)        # 32-byte Spill
	movq	88(%rsp), %rbx          # 8-byte Reload
	.loc	1 916 1 is_stmt 1       # vlasovsolver/cpu_moments.cpp:916:1
	movq	1408(%rbx), %r15
.Ltmp113:
	#DEBUG_VALUE: pop <- undef
	.loc	1 0 1 is_stmt 0         # vlasovsolver/cpu_moments.cpp:0:1
	movq	%r8, %r13
.Ltmp114:
	.loc	1 213 1 is_stmt 1       # vlasovsolver/cpu_moments.cpp:213:1
	vmovlpd	%xmm1, 32(%r15,%r8)
	.loc	1 214 1                 # vlasovsolver/cpu_moments.cpp:214:1
	vpermilpd	$1, %xmm1, %xmm0 # xmm0 = xmm1[1,0]
                                        # kill: def $xmm1 killed $xmm1 killed $ymm1
	vzeroupper
	callq	_Z15divideIfNonZerodd
	vmovsd	%xmm0, 40(%r15,%r13)
	vmovaps	384(%rsp), %ymm1        # 32-byte Reload
	.loc	1 215 1                 # vlasovsolver/cpu_moments.cpp:215:1
	vextractf128	$1, %ymm1, %xmm0
	vmovaps	%xmm0, 128(%rsp)        # 16-byte Spill
                                        # kill: def $xmm1 killed $xmm1 killed $ymm1
	vzeroupper
	callq	_Z15divideIfNonZerodd
	vmovsd	%xmm0, 48(%r15,%r13)
	.loc	1 216 1                 # vlasovsolver/cpu_moments.cpp:216:1
	vpermilpd	$1, 128(%rsp), %xmm0 # 16-byte Folded Reload
                                        # xmm0 = mem[1,0]
	vmovaps	384(%rsp), %ymm1        # 32-byte Reload
                                        # kill: def $xmm1 killed $xmm1 killed $ymm1
	vzeroupper
	callq	_Z15divideIfNonZerodd
	vmovsd	%xmm0, 56(%r15,%r13)
	.loc	1 186 1                 # vlasovsolver/cpu_moments.cpp:186:1
	vbroadcastsd	416(%rsp), %ymm0 # 16-byte Folded Reload
	vmovapd	384(%rsp), %ymm1        # 32-byte Reload
	vfmadd213pd	248(%rbx), %ymm1, %ymm0 # ymm0 = (ymm1 * ymm0) + mem
	vmovupd	%ymm0, 248(%rbx)
	vmovsd	80(%rsp), %xmm0         # 8-byte Reload
                                        # xmm0 = mem[0],zero
	vfmadd213sd	280(%rbx), %xmm1, %xmm0 # xmm0 = (xmm1 * xmm0) + mem
	vmovsd	%xmm0, 280(%rbx)
	movq	72(%rsp), %r15          # 8-byte Reload
	movq	96(%rsp), %rbx          # 8-byte Reload
.Ltmp115:
.LBB1_18:                               # %L_T29096008_54317
                                        #   in Loop: Header=BB1_8 Depth=2
	#DEBUG_VALUE: calculateMoments_R:computeSecond <- [DW_OP_plus_uconst 56] [$rsp+0]
	#DEBUG_VALUE: ....inline.__FILL_CHARARRAY <- [DW_OP_LLVM_convert 32 7, DW_OP_LLVM_convert 8 7, DW_OP_stack_value] 0
	#DEBUG_VALUE: calculateMoments_R:mpiGrid <- [DW_OP_plus_uconst 120] [$rsp+0]
	#DEBUG_VALUE: calculateMoments_R:cells <- [DW_OP_plus_uconst 8] [$rsp+0]
	.loc	1 223 1                 # vlasovsolver/cpu_moments.cpp:223:1
	incq	%rbx
.Ltmp116:
	#DEBUG_VALUE: c <- $rbx
	.loc	1 0 1 is_stmt 0         # vlasovsolver/cpu_moments.cpp:0:1
	movq	8(%rsp), %rcx           # 8-byte Reload
	.loc	1 223 1                 # vlasovsolver/cpu_moments.cpp:223:1
	movq	(%rcx), %rax
	movq	8(%rcx), %rcx
	subq	%rax, %rcx
	sarq	$3, %rcx
	cmpq	%rcx, %rbx
	jae	.LBB1_19
.Ltmp117:
.LBB1_8:                                # %L.B0077
                                        #   Parent Loop BB1_6 Depth=1
                                        # =>  This Loop Header: Depth=2
                                        #       Child Loop BB1_15 Depth 3
	#DEBUG_VALUE: calculateMoments_R:computeSecond <- [DW_OP_plus_uconst 56] [$rsp+0]
	#DEBUG_VALUE: ....inline.__FILL_CHARARRAY <- [DW_OP_LLVM_convert 32 7, DW_OP_LLVM_convert 8 7, DW_OP_stack_value] 0
	#DEBUG_VALUE: calculateMoments_R:mpiGrid <- [DW_OP_plus_uconst 120] [$rsp+0]
	#DEBUG_VALUE: calculateMoments_R:cells <- [DW_OP_plus_uconst 8] [$rsp+0]
	.loc	1 1062 1 is_stmt 1      # vlasovsolver/cpu_moments.cpp:1062:1
	movq	(%rax,%rbx,8), %rsi
	movq	120(%rsp), %rdi         # 8-byte Reload
	vzeroupper
	callq	_ZNK5dccrg5DccrgIN12spatial_cell11SpatialCellENS_18Cartesian_GeometryESt5tupleIJEES5_EixEm
.Ltmp118:
	#DEBUG_VALUE: cell <- $rax
	#DEBUG_VALUE: c <- $rbx
	.loc	1 159 1                 # vlasovsolver/cpu_moments.cpp:159:1
	cmpl	$0, 928(%rax)
	je	.LBB1_18
.Ltmp119:
# %bb.9:                                # %L.B1748
                                        #   in Loop: Header=BB1_8 Depth=2
	#DEBUG_VALUE: c <- $rbx
	#DEBUG_VALUE: cell <- $rax
	#DEBUG_VALUE: calculateMoments_R:computeSecond <- [DW_OP_plus_uconst 56] [$rsp+0]
	#DEBUG_VALUE: ....inline.__FILL_CHARARRAY <- [DW_OP_LLVM_convert 32 7, DW_OP_LLVM_convert 8 7, DW_OP_stack_value] 0
	#DEBUG_VALUE: calculateMoments_R:mpiGrid <- [DW_OP_plus_uconst 120] [$rsp+0]
	#DEBUG_VALUE: calculateMoments_R:cells <- [DW_OP_plus_uconst 8] [$rsp+0]
	.loc	1 0 0 is_stmt 0         # vlasovsolver/cpu_moments.cpp:0:0
	testl	%r15d, %r15d
	.loc	1 164 1 is_stmt 1       # vlasovsolver/cpu_moments.cpp:164:1
	jne	.LBB1_11
.Ltmp120:
# %bb.10:                               # %L.B1749
                                        #   in Loop: Header=BB1_8 Depth=2
	#DEBUG_VALUE: c <- $rbx
	#DEBUG_VALUE: cell <- $rax
	#DEBUG_VALUE: calculateMoments_R:computeSecond <- [DW_OP_plus_uconst 56] [$rsp+0]
	#DEBUG_VALUE: ....inline.__FILL_CHARARRAY <- [DW_OP_LLVM_convert 32 7, DW_OP_LLVM_convert 8 7, DW_OP_stack_value] 0
	#DEBUG_VALUE: calculateMoments_R:mpiGrid <- [DW_OP_plus_uconst 120] [$rsp+0]
	#DEBUG_VALUE: calculateMoments_R:cells <- [DW_OP_plus_uconst 8] [$rsp+0]
	.loc	1 186 1                 # vlasovsolver/cpu_moments.cpp:186:1
	vxorpd	%xmm0, %xmm0, %xmm0
	vmovupd	%ymm0, 248(%rax)
	movq	$0, 280(%rax)
	vxorpd	%xmm0, %xmm0, %xmm0
	vmovupd	%xmm0, 376(%rax)
	movq	$0, 392(%rax)
.Ltmp121:
.LBB1_11:                               # %L.B0081
                                        #   in Loop: Header=BB1_8 Depth=2
	#DEBUG_VALUE: calculateMoments_R:computeSecond <- [DW_OP_plus_uconst 56] [$rsp+0]
	#DEBUG_VALUE: ....inline.__FILL_CHARARRAY <- [DW_OP_LLVM_convert 32 7, DW_OP_LLVM_convert 8 7, DW_OP_stack_value] 0
	#DEBUG_VALUE: calculateMoments_R:mpiGrid <- [DW_OP_plus_uconst 120] [$rsp+0]
	#DEBUG_VALUE: calculateMoments_R:cells <- [DW_OP_plus_uconst 8] [$rsp+0]
	.loc	1 1513 1                # vlasovsolver/cpu_moments.cpp:1513:1
	movq	1408(%rax), %r12
	.loc	1 309 1                 # vlasovsolver/cpu_moments.cpp:309:1
	cmpl	$0, 580(%r12,%r13)
	je	.LBB1_18
.Ltmp122:
# %bb.12:                               # %L.B0082
                                        #   in Loop: Header=BB1_8 Depth=2
	#DEBUG_VALUE: calculateMoments_R:computeSecond <- [DW_OP_plus_uconst 56] [$rsp+0]
	#DEBUG_VALUE: ....inline.__FILL_CHARARRAY <- [DW_OP_LLVM_convert 32 7, DW_OP_LLVM_convert 8 7, DW_OP_stack_value] 0
	#DEBUG_VALUE: calculateMoments_R:mpiGrid <- [DW_OP_plus_uconst 120] [$rsp+0]
	#DEBUG_VALUE: calculateMoments_R:cells <- [DW_OP_plus_uconst 8] [$rsp+0]
	.loc	1 0 1 is_stmt 0         # vlasovsolver/cpu_moments.cpp:0:1
	movq	%rax, 88(%rsp)          # 8-byte Spill
	movq	%rbx, 96(%rsp)          # 8-byte Spill
.Ltmp123:
	.loc	1 165 1 is_stmt 1       # vlasovsolver/cpu_moments.cpp:165:1
	movq	296(%r12,%r13), %r14
.Ltmp124:
	#DEBUG_VALUE: data <- $r14
	.loc	1 198 1                 # vlasovsolver/cpu_moments.cpp:198:1
	movq	584(%r12,%r13), %r15
.Ltmp125:
	#DEBUG_VALUE: blockParams <- $r15
	.loc	1 183 1                 # vlasovsolver/cpu_moments.cpp:183:1
	vzeroupper
	callq	_Z16getObjectWrapperv
.Ltmp126:
	.loc	1 1044 1                # vlasovsolver/cpu_moments.cpp:1044:1
	movq	224(%rax), %rax
	movq	64(%rsp), %rbx          # 8-byte Reload
	vmovsd	40(%rax,%rbx), %xmm0    # xmm0 = mem[0],zero
	vmovaps	%xmm0, 416(%rsp)        # 16-byte Spill
.Ltmp127:
	#DEBUG_VALUE: mass <- [DW_OP_plus_uconst 416] [$rsp+0]
	#DEBUG_VALUE: blockParams <- $r15
	#DEBUG_VALUE: data <- $r14
	.loc	1 184 1                 # vlasovsolver/cpu_moments.cpp:184:1
	callq	_Z16getObjectWrapperv
.Ltmp128:
	.loc	1 1044 1                # vlasovsolver/cpu_moments.cpp:1044:1
	movq	224(%rax), %rax
	vmovsd	32(%rax,%rbx), %xmm0    # xmm0 = mem[0],zero
.Ltmp129:
	#DEBUG_VALUE: blockLID <- 0
	#DEBUG_VALUE: array <- [DW_OP_LLVM_fragment 192 64] 0.000000e+00
	#DEBUG_VALUE: array <- [DW_OP_LLVM_fragment 128 64] 0.000000e+00
	#DEBUG_VALUE: array <- [DW_OP_LLVM_fragment 64 64] 0.000000e+00
	#DEBUG_VALUE: array <- [DW_OP_LLVM_fragment 0 64] 0.000000e+00
	#DEBUG_VALUE: charge <- $xmm0
	.loc	1 0 1 is_stmt 0         # vlasovsolver/cpu_moments.cpp:0:1
	vmovsd	%xmm0, 80(%rsp)         # 8-byte Spill
.Ltmp130:
	#DEBUG_VALUE: charge <- [DW_OP_plus_uconst 80] [$rsp+0]
	#DEBUG_VALUE: charge <- [DW_OP_plus_uconst 80] [$rsp+0]
	movq	%r13, %r8
	.loc	1 309 1 is_stmt 1       # vlasovsolver/cpu_moments.cpp:309:1
	movl	580(%r12,%r13), %eax
	testq	%rax, %rax
	je	.LBB1_13
.Ltmp131:
# %bb.14:                               # %L.B1751
                                        #   in Loop: Header=BB1_8 Depth=2
	#DEBUG_VALUE: charge <- [DW_OP_plus_uconst 80] [$rsp+0]
	#DEBUG_VALUE: array <- [DW_OP_LLVM_fragment 0 64] 0.000000e+00
	#DEBUG_VALUE: array <- [DW_OP_LLVM_fragment 64 64] 0.000000e+00
	#DEBUG_VALUE: array <- [DW_OP_LLVM_fragment 128 64] 0.000000e+00
	#DEBUG_VALUE: array <- [DW_OP_LLVM_fragment 192 64] 0.000000e+00
	#DEBUG_VALUE: blockLID <- 0
	#DEBUG_VALUE: mass <- [DW_OP_plus_uconst 416] [$rsp+0]
	#DEBUG_VALUE: blockParams <- $r15
	#DEBUG_VALUE: data <- $r14
	#DEBUG_VALUE: calculateMoments_R:computeSecond <- [DW_OP_plus_uconst 56] [$rsp+0]
	#DEBUG_VALUE: ....inline.__FILL_CHARARRAY <- [DW_OP_LLVM_convert 32 7, DW_OP_LLVM_convert 8 7, DW_OP_stack_value] 0
	#DEBUG_VALUE: calculateMoments_R:mpiGrid <- [DW_OP_plus_uconst 120] [$rsp+0]
	#DEBUG_VALUE: calculateMoments_R:cells <- [DW_OP_plus_uconst 8] [$rsp+0]
	.loc	1 0 1 is_stmt 0         # vlasovsolver/cpu_moments.cpp:0:1
	shlq	$8, %rax
	vxorps	%xmm2, %xmm2, %xmm2
.Ltmp132:
	.loc	1 205 1 is_stmt 1       # vlasovsolver/cpu_moments.cpp:205:1
	xorl	%ecx, %ecx
	xorl	%edx, %edx
	movabsq	$17179868928, %rbx      # imm = 0x3FFFFFF00
	vmovsd	.LCPI1_0(%rip), %xmm9   # xmm9 = mem[0],zero
	vmovsd	.LCPI1_1(%rip), %xmm10  # xmm10 = mem[0],zero
.Ltmp133:
	.p2align	4, 0x90
.LBB1_15:                               # %L.B0088
                                        #   Parent Loop BB1_6 Depth=1
                                        #     Parent Loop BB1_8 Depth=2
                                        # =>    This Inner Loop Header: Depth=3
	#DEBUG_VALUE: charge <- [DW_OP_plus_uconst 80] [$rsp+0]
	#DEBUG_VALUE: array <- [DW_OP_LLVM_fragment 0 64] 0.000000e+00
	#DEBUG_VALUE: array <- [DW_OP_LLVM_fragment 64 64] 0.000000e+00
	#DEBUG_VALUE: array <- [DW_OP_LLVM_fragment 128 64] 0.000000e+00
	#DEBUG_VALUE: array <- [DW_OP_LLVM_fragment 192 64] 0.000000e+00
	#DEBUG_VALUE: blockLID <- 0
	#DEBUG_VALUE: mass <- [DW_OP_plus_uconst 416] [$rsp+0]
	#DEBUG_VALUE: blockParams <- $r15
	#DEBUG_VALUE: data <- $r14
	#DEBUG_VALUE: calculateMoments_R:computeSecond <- [DW_OP_plus_uconst 56] [$rsp+0]
	#DEBUG_VALUE: ....inline.__FILL_CHARARRAY <- [DW_OP_LLVM_convert 32 7, DW_OP_LLVM_convert 8 7, DW_OP_stack_value] 0
	#DEBUG_VALUE: calculateMoments_R:mpiGrid <- [DW_OP_plus_uconst 120] [$rsp+0]
	#DEBUG_VALUE: calculateMoments_R:cells <- [DW_OP_plus_uconst 8] [$rsp+0]
	.loc	1 0 1 is_stmt 0         # vlasovsolver/cpu_moments.cpp:0:1
	vmovaps	%ymm2, 672(%rsp)        # 32-byte Spill
	.loc	1 206 1 is_stmt 1       # vlasovsolver/cpu_moments.cpp:206:1
	movq	%rdx, %rsi
	andq	%rbx, %rsi
	movl	%ecx, %edi
	andl	$-2, %edi
.Ltmp134:
	.loc	1 81 1                  # vlasovsolver/cpu_moments.cpp:81:1
	vmovsd	24(%r15,%rcx,8), %xmm1  # xmm1 = mem[0],zero
	vmovsd	%xmm1, 128(%rsp)        # 8-byte Spill
	vmovsd	40(%r15,%rcx,8), %xmm2  # xmm2 = mem[0],zero
	vmovsd	%xmm2, 384(%rsp)        # 8-byte Spill
	vmovsd	(%r15,%rdi,8), %xmm12   # xmm12 = mem[0],zero
	.loc	1 0 0 is_stmt 0         # vlasovsolver/cpu_moments.cpp:0:0
	vmovsd	8(%r15,%rdi,8), %xmm3   # xmm3 = mem[0],zero
	.loc	1 81 1                  # vlasovsolver/cpu_moments.cpp:81:1
	vfmadd213sd	%xmm12, %xmm1, %xmm9 # xmm9 = (xmm1 * xmm9) + xmm12
	vmovapd	%xmm9, %xmm8
	vfmadd213sd	%xmm12, %xmm1, %xmm10 # xmm10 = (xmm1 * xmm10) + xmm12
	vmovsd	.LCPI1_2(%rip), %xmm13  # xmm13 = mem[0],zero
	vfmadd213sd	%xmm12, %xmm1, %xmm13 # xmm13 = (xmm1 * xmm13) + xmm12
	vmovsd	16(%r15,%rdi,8), %xmm14 # xmm14 = mem[0],zero
	vmovsd	.LCPI1_3(%rip), %xmm11  # xmm11 = mem[0],zero
	vmovapd	%xmm11, %xmm6
	vfmadd213sd	%xmm14, %xmm2, %xmm6 # xmm6 = (xmm2 * xmm6) + xmm14
	vfmadd231sd	%xmm11, %xmm1, %xmm12 # xmm12 = (xmm1 * xmm11) + xmm12
	.loc	1 0 0                   # vlasovsolver/cpu_moments.cpp:0:0
	vmovsd	32(%r15,%rdi,8), %xmm15 # xmm15 = mem[0],zero
	.loc	1 82 1 is_stmt 1        # vlasovsolver/cpu_moments.cpp:82:1
	vfmadd213sd	%xmm3, %xmm15, %xmm11 # xmm11 = (xmm15 * xmm11) + xmm3
	vmovapd	%xmm3, %xmm9
	.loc	1 86 1                  # vlasovsolver/cpu_moments.cpp:86:1
	vmovss	(%r14,%rsi), %xmm0      # xmm0 = mem[0],zero,zero,zero
	vcvtss2sd	%xmm0, %xmm0, %xmm7
	.loc	1 81 1                  # vlasovsolver/cpu_moments.cpp:81:1
	vmovss	4(%r14,%rsi), %xmm1     # xmm1 = mem[0],zero,zero,zero
	.loc	1 87 1                  # vlasovsolver/cpu_moments.cpp:87:1
	vmovapd	%xmm7, %xmm0
	vxorpd	%xmm3, %xmm3, %xmm3
	vfmadd213sd	%xmm3, %xmm12, %xmm0 # xmm0 = (xmm12 * xmm0) + xmm3
	.loc	1 88 1                  # vlasovsolver/cpu_moments.cpp:88:1
	vmovapd	%xmm7, %xmm4
	vfmadd213sd	%xmm3, %xmm11, %xmm4 # xmm4 = (xmm11 * xmm4) + xmm3
	.loc	1 81 1                  # vlasovsolver/cpu_moments.cpp:81:1
	vcvtss2sd	%xmm1, %xmm1, %xmm1
	.loc	1 86 1                  # vlasovsolver/cpu_moments.cpp:86:1
	vaddsd	%xmm3, %xmm7, %xmm5
	.loc	1 89 1                  # vlasovsolver/cpu_moments.cpp:89:1
	vfmadd213sd	%xmm3, %xmm6, %xmm7 # xmm7 = (xmm6 * xmm7) + xmm3
	.loc	1 81 1                  # vlasovsolver/cpu_moments.cpp:81:1
	vaddsd	%xmm1, %xmm5, %xmm5
	vfmadd231sd	%xmm1, %xmm13, %xmm0 # xmm0 = (xmm13 * xmm1) + xmm0
	vfmadd231sd	%xmm1, %xmm11, %xmm4 # xmm4 = (xmm11 * xmm1) + xmm4
	vfmadd231sd	%xmm1, %xmm6, %xmm7 # xmm7 = (xmm6 * xmm1) + xmm7
	vmovss	8(%r14,%rsi), %xmm1     # xmm1 = mem[0],zero,zero,zero
	vcvtss2sd	%xmm1, %xmm1, %xmm1
	vaddsd	%xmm1, %xmm5, %xmm5
	vmovapd	%xmm10, %xmm2
	vmovsd	%xmm10, 104(%rsp)       # 8-byte Spill
	vfmadd231sd	%xmm1, %xmm10, %xmm0 # xmm0 = (xmm10 * xmm1) + xmm0
	vfmadd231sd	%xmm1, %xmm11, %xmm4 # xmm4 = (xmm11 * xmm1) + xmm4
	vfmadd231sd	%xmm1, %xmm6, %xmm7 # xmm7 = (xmm6 * xmm1) + xmm7
	vmovss	12(%r14,%rsi), %xmm1    # xmm1 = mem[0],zero,zero,zero
	vcvtss2sd	%xmm1, %xmm1, %xmm1
	vaddsd	%xmm1, %xmm5, %xmm10
	vmovapd	%xmm8, %xmm5
	vfmadd231sd	%xmm1, %xmm8, %xmm0 # xmm0 = (xmm8 * xmm1) + xmm0
	vfmadd231sd	%xmm1, %xmm11, %xmm4 # xmm4 = (xmm11 * xmm1) + xmm4
	vfmadd231sd	%xmm1, %xmm6, %xmm7 # xmm7 = (xmm6 * xmm1) + xmm7
	.loc	1 82 1                  # vlasovsolver/cpu_moments.cpp:82:1
	vmovsd	.LCPI1_2(%rip), %xmm8   # xmm8 = mem[0],zero
	vmovapd	%xmm9, %xmm3
	vfmadd213sd	%xmm9, %xmm15, %xmm8 # xmm8 = (xmm15 * xmm8) + xmm9
	.loc	1 86 1                  # vlasovsolver/cpu_moments.cpp:86:1
	vmovss	16(%r14,%rsi), %xmm1    # xmm1 = mem[0],zero,zero,zero
	vcvtss2sd	%xmm1, %xmm1, %xmm1
	vaddsd	%xmm1, %xmm10, %xmm10
	.loc	1 87 1                  # vlasovsolver/cpu_moments.cpp:87:1
	vfmadd231sd	%xmm1, %xmm12, %xmm0 # xmm0 = (xmm12 * xmm1) + xmm0
	.loc	1 88 1                  # vlasovsolver/cpu_moments.cpp:88:1
	vfmadd231sd	%xmm1, %xmm8, %xmm4 # xmm4 = (xmm8 * xmm1) + xmm4
	.loc	1 89 1                  # vlasovsolver/cpu_moments.cpp:89:1
	vfmadd231sd	%xmm1, %xmm6, %xmm7 # xmm7 = (xmm6 * xmm1) + xmm7
	.loc	1 81 1                  # vlasovsolver/cpu_moments.cpp:81:1
	vmovss	20(%r14,%rsi), %xmm1    # xmm1 = mem[0],zero,zero,zero
	vcvtss2sd	%xmm1, %xmm1, %xmm1
	vaddsd	%xmm1, %xmm10, %xmm10
	vfmadd231sd	%xmm1, %xmm13, %xmm0 # xmm0 = (xmm13 * xmm1) + xmm0
	vmovss	24(%r14,%rsi), %xmm9    # xmm9 = mem[0],zero,zero,zero
	vcvtss2sd	%xmm9, %xmm9, %xmm9
	vfmadd231sd	%xmm1, %xmm8, %xmm4 # xmm4 = (xmm8 * xmm1) + xmm4
	vfmadd231sd	%xmm1, %xmm6, %xmm7 # xmm7 = (xmm6 * xmm1) + xmm7
	vaddsd	%xmm9, %xmm10, %xmm1
	vmovsd	.LCPI1_1(%rip), %xmm10  # xmm10 = mem[0],zero
	vfmadd231sd	%xmm9, %xmm2, %xmm0 # xmm0 = (xmm2 * xmm9) + xmm0
	vfmadd231sd	%xmm9, %xmm8, %xmm4 # xmm4 = (xmm8 * xmm9) + xmm4
	vfmadd231sd	%xmm9, %xmm6, %xmm7 # xmm7 = (xmm6 * xmm9) + xmm7
	vmovss	28(%r14,%rsi), %xmm2    # xmm2 = mem[0],zero,zero,zero
	vcvtss2sd	%xmm2, %xmm2, %xmm2
	vaddsd	%xmm2, %xmm1, %xmm1
	vfmadd231sd	%xmm2, %xmm5, %xmm0 # xmm0 = (xmm5 * xmm2) + xmm0
	vmovapd	%xmm5, %xmm9
	vfmadd231sd	%xmm2, %xmm8, %xmm4 # xmm4 = (xmm8 * xmm2) + xmm4
	vfmadd231sd	%xmm2, %xmm6, %xmm7 # xmm7 = (xmm6 * xmm2) + xmm7
	.loc	1 82 1                  # vlasovsolver/cpu_moments.cpp:82:1
	vmovapd	%xmm10, %xmm2
	vfmadd213sd	%xmm3, %xmm15, %xmm2 # xmm2 = (xmm15 * xmm2) + xmm3
	vmovapd	%xmm3, %xmm5
	.loc	1 86 1                  # vlasovsolver/cpu_moments.cpp:86:1
	vmovss	32(%r14,%rsi), %xmm3    # xmm3 = mem[0],zero,zero,zero
	vcvtss2sd	%xmm3, %xmm3, %xmm3
	vaddsd	%xmm3, %xmm1, %xmm1
	.loc	1 87 1                  # vlasovsolver/cpu_moments.cpp:87:1
	vfmadd231sd	%xmm3, %xmm12, %xmm0 # xmm0 = (xmm12 * xmm3) + xmm0
	.loc	1 88 1                  # vlasovsolver/cpu_moments.cpp:88:1
	vfmadd231sd	%xmm3, %xmm2, %xmm4 # xmm4 = (xmm2 * xmm3) + xmm4
	.loc	1 89 1                  # vlasovsolver/cpu_moments.cpp:89:1
	vfmadd231sd	%xmm3, %xmm6, %xmm7 # xmm7 = (xmm6 * xmm3) + xmm7
	.loc	1 81 1                  # vlasovsolver/cpu_moments.cpp:81:1
	vmovss	36(%r14,%rsi), %xmm3    # xmm3 = mem[0],zero,zero,zero
	vcvtss2sd	%xmm3, %xmm3, %xmm3
	vaddsd	%xmm3, %xmm1, %xmm1
	vfmadd231sd	%xmm3, %xmm13, %xmm0 # xmm0 = (xmm13 * xmm3) + xmm0
	vfmadd231sd	%xmm3, %xmm2, %xmm4 # xmm4 = (xmm2 * xmm3) + xmm4
	vfmadd231sd	%xmm3, %xmm6, %xmm7 # xmm7 = (xmm6 * xmm3) + xmm7
	vmovss	40(%r14,%rsi), %xmm3    # xmm3 = mem[0],zero,zero,zero
	vcvtss2sd	%xmm3, %xmm3, %xmm3
	vaddsd	%xmm3, %xmm1, %xmm1
	vmovsd	104(%rsp), %xmm10       # 8-byte Reload
                                        # xmm10 = mem[0],zero
	vfmadd231sd	%xmm3, %xmm10, %xmm0 # xmm0 = (xmm10 * xmm3) + xmm0
	vfmadd231sd	%xmm3, %xmm2, %xmm4 # xmm4 = (xmm2 * xmm3) + xmm4
	vfmadd231sd	%xmm3, %xmm6, %xmm7 # xmm7 = (xmm6 * xmm3) + xmm7
	.loc	1 82 1                  # vlasovsolver/cpu_moments.cpp:82:1
	vfmadd132sd	.LCPI1_0(%rip), %xmm5, %xmm15 # xmm15 = (xmm15 * mem) + xmm5
	.loc	1 81 1                  # vlasovsolver/cpu_moments.cpp:81:1
	vmovss	44(%r14,%rsi), %xmm3    # xmm3 = mem[0],zero,zero,zero
	vcvtss2sd	%xmm3, %xmm3, %xmm3
	vaddsd	%xmm3, %xmm1, %xmm1
	vmovapd	%xmm9, %xmm5
	vfmadd231sd	%xmm3, %xmm9, %xmm0 # xmm0 = (xmm9 * xmm3) + xmm0
	vfmadd231sd	%xmm3, %xmm2, %xmm4 # xmm4 = (xmm2 * xmm3) + xmm4
	vfmadd231sd	%xmm3, %xmm6, %xmm7 # xmm7 = (xmm6 * xmm3) + xmm7
	.loc	1 86 1                  # vlasovsolver/cpu_moments.cpp:86:1
	vmovss	48(%r14,%rsi), %xmm3    # xmm3 = mem[0],zero,zero,zero
	vcvtss2sd	%xmm3, %xmm3, %xmm3
	vaddsd	%xmm3, %xmm1, %xmm1
	.loc	1 87 1                  # vlasovsolver/cpu_moments.cpp:87:1
	vfmadd231sd	%xmm3, %xmm12, %xmm0 # xmm0 = (xmm12 * xmm3) + xmm0
	.loc	1 88 1                  # vlasovsolver/cpu_moments.cpp:88:1
	vfmadd231sd	%xmm3, %xmm15, %xmm4 # xmm4 = (xmm15 * xmm3) + xmm4
	.loc	1 89 1                  # vlasovsolver/cpu_moments.cpp:89:1
	vfmadd231sd	%xmm3, %xmm6, %xmm7 # xmm7 = (xmm6 * xmm3) + xmm7
	.loc	1 81 1                  # vlasovsolver/cpu_moments.cpp:81:1
	vmovss	52(%r14,%rsi), %xmm3    # xmm3 = mem[0],zero,zero,zero
	vcvtss2sd	%xmm3, %xmm3, %xmm3
	vaddsd	%xmm3, %xmm1, %xmm1
	vfmadd231sd	%xmm3, %xmm13, %xmm0 # xmm0 = (xmm13 * xmm3) + xmm0
	vfmadd231sd	%xmm3, %xmm15, %xmm4 # xmm4 = (xmm15 * xmm3) + xmm4
	vfmadd231sd	%xmm3, %xmm6, %xmm7 # xmm7 = (xmm6 * xmm3) + xmm7
	vmovss	56(%r14,%rsi), %xmm3    # xmm3 = mem[0],zero,zero,zero
	vcvtss2sd	%xmm3, %xmm3, %xmm3
	vaddsd	%xmm3, %xmm1, %xmm1
	vfmadd231sd	%xmm3, %xmm10, %xmm0 # xmm0 = (xmm10 * xmm3) + xmm0
	vmovapd	%xmm10, %xmm9
	vfmadd231sd	%xmm3, %xmm15, %xmm4 # xmm4 = (xmm15 * xmm3) + xmm4
	vfmadd231sd	%xmm3, %xmm6, %xmm7 # xmm7 = (xmm6 * xmm3) + xmm7
	vmovss	60(%r14,%rsi), %xmm3    # xmm3 = mem[0],zero,zero,zero
	vcvtss2sd	%xmm3, %xmm3, %xmm3
	vfmadd231sd	%xmm6, %xmm3, %xmm7 # xmm7 = (xmm3 * xmm6) + xmm7
	vaddsd	%xmm3, %xmm1, %xmm1
	vfmadd231sd	%xmm3, %xmm5, %xmm0 # xmm0 = (xmm5 * xmm3) + xmm0
	vmovapd	%xmm5, %xmm10
	vfmadd231sd	%xmm3, %xmm15, %xmm4 # xmm4 = (xmm15 * xmm3) + xmm4
	vmovsd	.LCPI1_2(%rip), %xmm6   # xmm6 = mem[0],zero
	vfmadd132sd	384(%rsp), %xmm14, %xmm6 # 8-byte Folded Reload
                                        # xmm6 = (xmm6 * mem) + xmm14
	vmovss	64(%r14,%rsi), %xmm3    # xmm3 = mem[0],zero,zero,zero
	vcvtss2sd	%xmm3, %xmm3, %xmm3
	vaddsd	%xmm3, %xmm1, %xmm1
	vfmadd231sd	%xmm3, %xmm12, %xmm0 # xmm0 = (xmm12 * xmm3) + xmm0
	vfmadd231sd	%xmm3, %xmm11, %xmm4 # xmm4 = (xmm11 * xmm3) + xmm4
	vfmadd231sd	%xmm3, %xmm6, %xmm7 # xmm7 = (xmm6 * xmm3) + xmm7
	vmovss	68(%r14,%rsi), %xmm3    # xmm3 = mem[0],zero,zero,zero
	vcvtss2sd	%xmm3, %xmm3, %xmm3
	vaddsd	%xmm3, %xmm1, %xmm1
	vfmadd231sd	%xmm3, %xmm13, %xmm0 # xmm0 = (xmm13 * xmm3) + xmm0
	vfmadd231sd	%xmm3, %xmm11, %xmm4 # xmm4 = (xmm11 * xmm3) + xmm4
	vfmadd231sd	%xmm3, %xmm6, %xmm7 # xmm7 = (xmm6 * xmm3) + xmm7
	vmovss	72(%r14,%rsi), %xmm3    # xmm3 = mem[0],zero,zero,zero
	vcvtss2sd	%xmm3, %xmm3, %xmm3
	vaddsd	%xmm3, %xmm1, %xmm1
	vfmadd231sd	%xmm3, %xmm9, %xmm0 # xmm0 = (xmm9 * xmm3) + xmm0
	vfmadd231sd	%xmm3, %xmm11, %xmm4 # xmm4 = (xmm11 * xmm3) + xmm4
	vfmadd231sd	%xmm3, %xmm6, %xmm7 # xmm7 = (xmm6 * xmm3) + xmm7
	vmovss	76(%r14,%rsi), %xmm3    # xmm3 = mem[0],zero,zero,zero
	vcvtss2sd	%xmm3, %xmm3, %xmm3
	vaddsd	%xmm3, %xmm1, %xmm1
	vfmadd231sd	%xmm3, %xmm5, %xmm0 # xmm0 = (xmm5 * xmm3) + xmm0
	vfmadd231sd	%xmm3, %xmm11, %xmm4 # xmm4 = (xmm11 * xmm3) + xmm4
	vfmadd231sd	%xmm3, %xmm6, %xmm7 # xmm7 = (xmm6 * xmm3) + xmm7
	vmovss	80(%r14,%rsi), %xmm3    # xmm3 = mem[0],zero,zero,zero
	vcvtss2sd	%xmm3, %xmm3, %xmm3
	vaddsd	%xmm3, %xmm1, %xmm1
	vfmadd231sd	%xmm3, %xmm12, %xmm0 # xmm0 = (xmm12 * xmm3) + xmm0
	vmovss	84(%r14,%rsi), %xmm5    # xmm5 = mem[0],zero,zero,zero
	vcvtss2sd	%xmm5, %xmm5, %xmm5
	vfmadd231sd	%xmm3, %xmm8, %xmm4 # xmm4 = (xmm8 * xmm3) + xmm4
	vfmadd231sd	%xmm3, %xmm6, %xmm7 # xmm7 = (xmm6 * xmm3) + xmm7
	vaddsd	%xmm5, %xmm1, %xmm1
	vfmadd231sd	%xmm5, %xmm13, %xmm0 # xmm0 = (xmm13 * xmm5) + xmm0
	vfmadd231sd	%xmm5, %xmm8, %xmm4 # xmm4 = (xmm8 * xmm5) + xmm4
	vfmadd231sd	%xmm5, %xmm6, %xmm7 # xmm7 = (xmm6 * xmm5) + xmm7
	vmovss	88(%r14,%rsi), %xmm3    # xmm3 = mem[0],zero,zero,zero
	vcvtss2sd	%xmm3, %xmm3, %xmm3
	vaddsd	%xmm3, %xmm1, %xmm1
	vfmadd231sd	%xmm3, %xmm9, %xmm0 # xmm0 = (xmm9 * xmm3) + xmm0
	vfmadd231sd	%xmm3, %xmm8, %xmm4 # xmm4 = (xmm8 * xmm3) + xmm4
	vfmadd231sd	%xmm3, %xmm6, %xmm7 # xmm7 = (xmm6 * xmm3) + xmm7
	vmovss	92(%r14,%rsi), %xmm3    # xmm3 = mem[0],zero,zero,zero
	vcvtss2sd	%xmm3, %xmm3, %xmm3
	vaddsd	%xmm3, %xmm1, %xmm1
	vfmadd231sd	%xmm3, %xmm10, %xmm0 # xmm0 = (xmm10 * xmm3) + xmm0
	vfmadd231sd	%xmm3, %xmm8, %xmm4 # xmm4 = (xmm8 * xmm3) + xmm4
	vfmadd231sd	%xmm3, %xmm6, %xmm7 # xmm7 = (xmm6 * xmm3) + xmm7
	vmovss	96(%r14,%rsi), %xmm3    # xmm3 = mem[0],zero,zero,zero
	vcvtss2sd	%xmm3, %xmm3, %xmm3
	vaddsd	%xmm3, %xmm1, %xmm1
	vfmadd231sd	%xmm3, %xmm12, %xmm0 # xmm0 = (xmm12 * xmm3) + xmm0
	vfmadd231sd	%xmm3, %xmm2, %xmm4 # xmm4 = (xmm2 * xmm3) + xmm4
	vfmadd231sd	%xmm3, %xmm6, %xmm7 # xmm7 = (xmm6 * xmm3) + xmm7
	vmovss	100(%r14,%rsi), %xmm3   # xmm3 = mem[0],zero,zero,zero
	vcvtss2sd	%xmm3, %xmm3, %xmm3
	vaddsd	%xmm3, %xmm1, %xmm1
	vfmadd231sd	%xmm3, %xmm13, %xmm0 # xmm0 = (xmm13 * xmm3) + xmm0
	vfmadd231sd	%xmm3, %xmm2, %xmm4 # xmm4 = (xmm2 * xmm3) + xmm4
	vfmadd231sd	%xmm3, %xmm6, %xmm7 # xmm7 = (xmm6 * xmm3) + xmm7
	vmovss	104(%r14,%rsi), %xmm3   # xmm3 = mem[0],zero,zero,zero
	vcvtss2sd	%xmm3, %xmm3, %xmm3
	vaddsd	%xmm3, %xmm1, %xmm1
	vfmadd231sd	%xmm3, %xmm9, %xmm0 # xmm0 = (xmm9 * xmm3) + xmm0
	vmovss	108(%r14,%rsi), %xmm5   # xmm5 = mem[0],zero,zero,zero
	vcvtss2sd	%xmm5, %xmm5, %xmm5
	vfmadd231sd	%xmm3, %xmm2, %xmm4 # xmm4 = (xmm2 * xmm3) + xmm4
	vfmadd231sd	%xmm3, %xmm6, %xmm7 # xmm7 = (xmm6 * xmm3) + xmm7
	vaddsd	%xmm5, %xmm1, %xmm1
	vfmadd231sd	%xmm5, %xmm10, %xmm0 # xmm0 = (xmm10 * xmm5) + xmm0
	vfmadd231sd	%xmm5, %xmm2, %xmm4 # xmm4 = (xmm2 * xmm5) + xmm4
	vfmadd231sd	%xmm5, %xmm6, %xmm7 # xmm7 = (xmm6 * xmm5) + xmm7
	vmovss	112(%r14,%rsi), %xmm3   # xmm3 = mem[0],zero,zero,zero
	vcvtss2sd	%xmm3, %xmm3, %xmm3
	vaddsd	%xmm3, %xmm1, %xmm1
	vfmadd231sd	%xmm3, %xmm12, %xmm0 # xmm0 = (xmm12 * xmm3) + xmm0
	vfmadd231sd	%xmm3, %xmm15, %xmm4 # xmm4 = (xmm15 * xmm3) + xmm4
	vfmadd231sd	%xmm3, %xmm6, %xmm7 # xmm7 = (xmm6 * xmm3) + xmm7
	vmovss	116(%r14,%rsi), %xmm3   # xmm3 = mem[0],zero,zero,zero
	vcvtss2sd	%xmm3, %xmm3, %xmm3
	vaddsd	%xmm3, %xmm1, %xmm1
	vfmadd231sd	%xmm3, %xmm13, %xmm0 # xmm0 = (xmm13 * xmm3) + xmm0
	vfmadd231sd	%xmm3, %xmm15, %xmm4 # xmm4 = (xmm15 * xmm3) + xmm4
	vfmadd231sd	%xmm3, %xmm6, %xmm7 # xmm7 = (xmm6 * xmm3) + xmm7
	vmovss	120(%r14,%rsi), %xmm3   # xmm3 = mem[0],zero,zero,zero
	vcvtss2sd	%xmm3, %xmm3, %xmm3
	vaddsd	%xmm3, %xmm1, %xmm1
	vfmadd231sd	%xmm3, %xmm9, %xmm0 # xmm0 = (xmm9 * xmm3) + xmm0
	vfmadd231sd	%xmm3, %xmm15, %xmm4 # xmm4 = (xmm15 * xmm3) + xmm4
	vfmadd231sd	%xmm3, %xmm6, %xmm7 # xmm7 = (xmm6 * xmm3) + xmm7
	vmovss	124(%r14,%rsi), %xmm3   # xmm3 = mem[0],zero,zero,zero
	vcvtss2sd	%xmm3, %xmm3, %xmm3
	vfmadd231sd	%xmm6, %xmm3, %xmm7 # xmm7 = (xmm3 * xmm6) + xmm7
	vaddsd	%xmm3, %xmm1, %xmm1
	vfmadd231sd	%xmm3, %xmm10, %xmm0 # xmm0 = (xmm10 * xmm3) + xmm0
	vfmadd231sd	%xmm3, %xmm15, %xmm4 # xmm4 = (xmm15 * xmm3) + xmm4
	vmovss	128(%r14,%rsi), %xmm3   # xmm3 = mem[0],zero,zero,zero
	vcvtss2sd	%xmm3, %xmm3, %xmm3
	vmovsd	.LCPI1_1(%rip), %xmm6   # xmm6 = mem[0],zero
	vfmadd132sd	384(%rsp), %xmm14, %xmm6 # 8-byte Folded Reload
                                        # xmm6 = (xmm6 * mem) + xmm14
	vaddsd	%xmm3, %xmm1, %xmm1
	vfmadd231sd	%xmm3, %xmm12, %xmm0 # xmm0 = (xmm12 * xmm3) + xmm0
	vfmadd231sd	%xmm3, %xmm11, %xmm4 # xmm4 = (xmm11 * xmm3) + xmm4
	vfmadd231sd	%xmm3, %xmm6, %xmm7 # xmm7 = (xmm6 * xmm3) + xmm7
	vmovss	132(%r14,%rsi), %xmm3   # xmm3 = mem[0],zero,zero,zero
	vcvtss2sd	%xmm3, %xmm3, %xmm3
	vaddsd	%xmm3, %xmm1, %xmm1
	vfmadd231sd	%xmm3, %xmm13, %xmm0 # xmm0 = (xmm13 * xmm3) + xmm0
	vfmadd231sd	%xmm3, %xmm11, %xmm4 # xmm4 = (xmm11 * xmm3) + xmm4
	vfmadd231sd	%xmm3, %xmm6, %xmm7 # xmm7 = (xmm6 * xmm3) + xmm7
	vmovss	136(%r14,%rsi), %xmm3   # xmm3 = mem[0],zero,zero,zero
	vcvtss2sd	%xmm3, %xmm3, %xmm3
	vaddsd	%xmm3, %xmm1, %xmm1
	vfmadd231sd	%xmm3, %xmm9, %xmm0 # xmm0 = (xmm9 * xmm3) + xmm0
	vfmadd231sd	%xmm3, %xmm11, %xmm4 # xmm4 = (xmm11 * xmm3) + xmm4
	vfmadd231sd	%xmm3, %xmm6, %xmm7 # xmm7 = (xmm6 * xmm3) + xmm7
	vmovss	140(%r14,%rsi), %xmm3   # xmm3 = mem[0],zero,zero,zero
	vcvtss2sd	%xmm3, %xmm3, %xmm3
	vaddsd	%xmm3, %xmm1, %xmm1
	vfmadd231sd	%xmm3, %xmm10, %xmm0 # xmm0 = (xmm10 * xmm3) + xmm0
	vfmadd231sd	%xmm3, %xmm11, %xmm4 # xmm4 = (xmm11 * xmm3) + xmm4
	vfmadd231sd	%xmm3, %xmm6, %xmm7 # xmm7 = (xmm6 * xmm3) + xmm7
	vmovss	144(%r14,%rsi), %xmm3   # xmm3 = mem[0],zero,zero,zero
	vcvtss2sd	%xmm3, %xmm3, %xmm3
	vaddsd	%xmm3, %xmm1, %xmm1
	vfmadd231sd	%xmm3, %xmm12, %xmm0 # xmm0 = (xmm12 * xmm3) + xmm0
	vfmadd231sd	%xmm3, %xmm8, %xmm4 # xmm4 = (xmm8 * xmm3) + xmm4
	vfmadd231sd	%xmm3, %xmm6, %xmm7 # xmm7 = (xmm6 * xmm3) + xmm7
	vmovss	148(%r14,%rsi), %xmm3   # xmm3 = mem[0],zero,zero,zero
	vcvtss2sd	%xmm3, %xmm3, %xmm3
	vaddsd	%xmm3, %xmm1, %xmm1
	vfmadd231sd	%xmm3, %xmm13, %xmm0 # xmm0 = (xmm13 * xmm3) + xmm0
	vmovss	152(%r14,%rsi), %xmm5   # xmm5 = mem[0],zero,zero,zero
	vcvtss2sd	%xmm5, %xmm5, %xmm5
	vfmadd231sd	%xmm3, %xmm8, %xmm4 # xmm4 = (xmm8 * xmm3) + xmm4
	vfmadd231sd	%xmm3, %xmm6, %xmm7 # xmm7 = (xmm6 * xmm3) + xmm7
	vaddsd	%xmm5, %xmm1, %xmm1
	vfmadd231sd	%xmm5, %xmm9, %xmm0 # xmm0 = (xmm9 * xmm5) + xmm0
	vfmadd231sd	%xmm5, %xmm8, %xmm4 # xmm4 = (xmm8 * xmm5) + xmm4
	vfmadd231sd	%xmm5, %xmm6, %xmm7 # xmm7 = (xmm6 * xmm5) + xmm7
	vmovss	156(%r14,%rsi), %xmm3   # xmm3 = mem[0],zero,zero,zero
	vcvtss2sd	%xmm3, %xmm3, %xmm3
	vaddsd	%xmm3, %xmm1, %xmm1
	vfmadd231sd	%xmm3, %xmm10, %xmm0 # xmm0 = (xmm10 * xmm3) + xmm0
	vfmadd231sd	%xmm3, %xmm8, %xmm4 # xmm4 = (xmm8 * xmm3) + xmm4
	vfmadd231sd	%xmm3, %xmm6, %xmm7 # xmm7 = (xmm6 * xmm3) + xmm7
	vmovss	160(%r14,%rsi), %xmm3   # xmm3 = mem[0],zero,zero,zero
	vcvtss2sd	%xmm3, %xmm3, %xmm3
	vaddsd	%xmm3, %xmm1, %xmm1
	vfmadd231sd	%xmm3, %xmm12, %xmm0 # xmm0 = (xmm12 * xmm3) + xmm0
	vfmadd231sd	%xmm3, %xmm2, %xmm4 # xmm4 = (xmm2 * xmm3) + xmm4
	vfmadd231sd	%xmm3, %xmm6, %xmm7 # xmm7 = (xmm6 * xmm3) + xmm7
	vmovss	164(%r14,%rsi), %xmm3   # xmm3 = mem[0],zero,zero,zero
	vcvtss2sd	%xmm3, %xmm3, %xmm3
	vaddsd	%xmm3, %xmm1, %xmm1
	vfmadd231sd	%xmm3, %xmm13, %xmm0 # xmm0 = (xmm13 * xmm3) + xmm0
	vfmadd231sd	%xmm3, %xmm2, %xmm4 # xmm4 = (xmm2 * xmm3) + xmm4
	vfmadd231sd	%xmm3, %xmm6, %xmm7 # xmm7 = (xmm6 * xmm3) + xmm7
	vmovss	168(%r14,%rsi), %xmm3   # xmm3 = mem[0],zero,zero,zero
	vcvtss2sd	%xmm3, %xmm3, %xmm3
	vaddsd	%xmm3, %xmm1, %xmm1
	vfmadd231sd	%xmm3, %xmm9, %xmm0 # xmm0 = (xmm9 * xmm3) + xmm0
	vfmadd231sd	%xmm3, %xmm2, %xmm4 # xmm4 = (xmm2 * xmm3) + xmm4
	vfmadd231sd	%xmm3, %xmm6, %xmm7 # xmm7 = (xmm6 * xmm3) + xmm7
	vmovss	172(%r14,%rsi), %xmm3   # xmm3 = mem[0],zero,zero,zero
	vcvtss2sd	%xmm3, %xmm3, %xmm3
	vaddsd	%xmm3, %xmm1, %xmm1
	vfmadd231sd	%xmm3, %xmm10, %xmm0 # xmm0 = (xmm10 * xmm3) + xmm0
	vmovss	176(%r14,%rsi), %xmm5   # xmm5 = mem[0],zero,zero,zero
	vcvtss2sd	%xmm5, %xmm5, %xmm5
	vfmadd231sd	%xmm3, %xmm2, %xmm4 # xmm4 = (xmm2 * xmm3) + xmm4
	vfmadd231sd	%xmm3, %xmm6, %xmm7 # xmm7 = (xmm6 * xmm3) + xmm7
	vaddsd	%xmm5, %xmm1, %xmm1
	vfmadd231sd	%xmm5, %xmm12, %xmm0 # xmm0 = (xmm12 * xmm5) + xmm0
	vfmadd231sd	%xmm5, %xmm15, %xmm4 # xmm4 = (xmm15 * xmm5) + xmm4
	vfmadd231sd	%xmm5, %xmm6, %xmm7 # xmm7 = (xmm6 * xmm5) + xmm7
	vmovss	180(%r14,%rsi), %xmm3   # xmm3 = mem[0],zero,zero,zero
	vcvtss2sd	%xmm3, %xmm3, %xmm3
	vaddsd	%xmm3, %xmm1, %xmm1
	vfmadd231sd	%xmm3, %xmm13, %xmm0 # xmm0 = (xmm13 * xmm3) + xmm0
	vfmadd231sd	%xmm3, %xmm15, %xmm4 # xmm4 = (xmm15 * xmm3) + xmm4
	vfmadd231sd	%xmm3, %xmm6, %xmm7 # xmm7 = (xmm6 * xmm3) + xmm7
	vmovss	184(%r14,%rsi), %xmm3   # xmm3 = mem[0],zero,zero,zero
	vcvtss2sd	%xmm3, %xmm3, %xmm3
	vaddsd	%xmm3, %xmm1, %xmm1
	vfmadd231sd	%xmm3, %xmm9, %xmm0 # xmm0 = (xmm9 * xmm3) + xmm0
	vfmadd231sd	%xmm3, %xmm15, %xmm4 # xmm4 = (xmm15 * xmm3) + xmm4
	vfmadd231sd	%xmm3, %xmm6, %xmm7 # xmm7 = (xmm6 * xmm3) + xmm7
	vmovss	188(%r14,%rsi), %xmm3   # xmm3 = mem[0],zero,zero,zero
	vcvtss2sd	%xmm3, %xmm3, %xmm3
	vfmadd231sd	%xmm6, %xmm3, %xmm7 # xmm7 = (xmm3 * xmm6) + xmm7
	vaddsd	%xmm3, %xmm1, %xmm1
	vfmadd231sd	%xmm3, %xmm10, %xmm0 # xmm0 = (xmm10 * xmm3) + xmm0
	vfmadd231sd	%xmm3, %xmm15, %xmm4 # xmm4 = (xmm15 * xmm3) + xmm4
	vmovsd	384(%rsp), %xmm6        # 8-byte Reload
                                        # xmm6 = mem[0],zero
	vfmadd231sd	.LCPI1_0(%rip), %xmm6, %xmm14 # xmm14 = (xmm6 * mem) + xmm14
	vmovss	192(%r14,%rsi), %xmm3   # xmm3 = mem[0],zero,zero,zero
	vcvtss2sd	%xmm3, %xmm3, %xmm3
	vaddsd	%xmm3, %xmm1, %xmm1
	vfmadd231sd	%xmm3, %xmm12, %xmm0 # xmm0 = (xmm12 * xmm3) + xmm0
	vmovss	196(%r14,%rsi), %xmm5   # xmm5 = mem[0],zero,zero,zero
	vcvtss2sd	%xmm5, %xmm5, %xmm5
	vfmadd231sd	%xmm3, %xmm11, %xmm4 # xmm4 = (xmm11 * xmm3) + xmm4
	vfmadd231sd	%xmm3, %xmm14, %xmm7 # xmm7 = (xmm14 * xmm3) + xmm7
	vaddsd	%xmm5, %xmm1, %xmm1
	vfmadd231sd	%xmm5, %xmm13, %xmm0 # xmm0 = (xmm13 * xmm5) + xmm0
	vfmadd231sd	%xmm5, %xmm11, %xmm4 # xmm4 = (xmm11 * xmm5) + xmm4
	vfmadd231sd	%xmm5, %xmm14, %xmm7 # xmm7 = (xmm14 * xmm5) + xmm7
	vmovss	200(%r14,%rsi), %xmm3   # xmm3 = mem[0],zero,zero,zero
	vcvtss2sd	%xmm3, %xmm3, %xmm3
	vaddsd	%xmm3, %xmm1, %xmm1
	vfmadd231sd	%xmm3, %xmm9, %xmm0 # xmm0 = (xmm9 * xmm3) + xmm0
	vfmadd231sd	%xmm3, %xmm11, %xmm4 # xmm4 = (xmm11 * xmm3) + xmm4
	vfmadd231sd	%xmm3, %xmm14, %xmm7 # xmm7 = (xmm14 * xmm3) + xmm7
	vmovss	204(%r14,%rsi), %xmm3   # xmm3 = mem[0],zero,zero,zero
	vcvtss2sd	%xmm3, %xmm3, %xmm3
	vfmadd213sd	%xmm4, %xmm3, %xmm11 # xmm11 = (xmm3 * xmm11) + xmm4
	vaddsd	%xmm3, %xmm1, %xmm1
	vfmadd231sd	%xmm3, %xmm10, %xmm0 # xmm0 = (xmm10 * xmm3) + xmm0
	vfmadd231sd	%xmm3, %xmm14, %xmm7 # xmm7 = (xmm14 * xmm3) + xmm7
	vmovss	208(%r14,%rsi), %xmm3   # xmm3 = mem[0],zero,zero,zero
	vcvtss2sd	%xmm3, %xmm3, %xmm3
	vaddsd	%xmm3, %xmm1, %xmm1
	vfmadd231sd	%xmm3, %xmm12, %xmm0 # xmm0 = (xmm12 * xmm3) + xmm0
	vfmadd231sd	%xmm3, %xmm8, %xmm11 # xmm11 = (xmm8 * xmm3) + xmm11
	vfmadd231sd	%xmm3, %xmm14, %xmm7 # xmm7 = (xmm14 * xmm3) + xmm7
	vmovss	212(%r14,%rsi), %xmm3   # xmm3 = mem[0],zero,zero,zero
	vcvtss2sd	%xmm3, %xmm3, %xmm3
	vaddsd	%xmm3, %xmm1, %xmm1
	vfmadd231sd	%xmm3, %xmm13, %xmm0 # xmm0 = (xmm13 * xmm3) + xmm0
	vfmadd231sd	%xmm3, %xmm8, %xmm11 # xmm11 = (xmm8 * xmm3) + xmm11
	vfmadd231sd	%xmm3, %xmm14, %xmm7 # xmm7 = (xmm14 * xmm3) + xmm7
	vmovss	216(%r14,%rsi), %xmm3   # xmm3 = mem[0],zero,zero,zero
	vcvtss2sd	%xmm3, %xmm3, %xmm3
	vaddsd	%xmm3, %xmm1, %xmm1
	vfmadd231sd	%xmm3, %xmm9, %xmm0 # xmm0 = (xmm9 * xmm3) + xmm0
	vmovss	220(%r14,%rsi), %xmm4   # xmm4 = mem[0],zero,zero,zero
	vcvtss2sd	%xmm4, %xmm4, %xmm4
	vfmadd231sd	%xmm3, %xmm8, %xmm11 # xmm11 = (xmm8 * xmm3) + xmm11
	vfmadd231sd	%xmm3, %xmm14, %xmm7 # xmm7 = (xmm14 * xmm3) + xmm7
	vfmadd213sd	%xmm11, %xmm4, %xmm8 # xmm8 = (xmm4 * xmm8) + xmm11
	vaddsd	%xmm4, %xmm1, %xmm1
	vfmadd231sd	%xmm4, %xmm10, %xmm0 # xmm0 = (xmm10 * xmm4) + xmm0
	vfmadd231sd	%xmm4, %xmm14, %xmm7 # xmm7 = (xmm14 * xmm4) + xmm7
	vmovss	224(%r14,%rsi), %xmm3   # xmm3 = mem[0],zero,zero,zero
	vcvtss2sd	%xmm3, %xmm3, %xmm3
	vaddsd	%xmm3, %xmm1, %xmm1
	vfmadd231sd	%xmm3, %xmm12, %xmm0 # xmm0 = (xmm12 * xmm3) + xmm0
	vfmadd231sd	%xmm3, %xmm2, %xmm8 # xmm8 = (xmm2 * xmm3) + xmm8
	vfmadd231sd	%xmm3, %xmm14, %xmm7 # xmm7 = (xmm14 * xmm3) + xmm7
	vmovss	228(%r14,%rsi), %xmm3   # xmm3 = mem[0],zero,zero,zero
	vcvtss2sd	%xmm3, %xmm3, %xmm3
	vaddsd	%xmm3, %xmm1, %xmm1
	vfmadd231sd	%xmm3, %xmm13, %xmm0 # xmm0 = (xmm13 * xmm3) + xmm0
	vfmadd231sd	%xmm3, %xmm2, %xmm8 # xmm8 = (xmm2 * xmm3) + xmm8
	vfmadd231sd	%xmm3, %xmm14, %xmm7 # xmm7 = (xmm14 * xmm3) + xmm7
	vmovss	232(%r14,%rsi), %xmm3   # xmm3 = mem[0],zero,zero,zero
	vcvtss2sd	%xmm3, %xmm3, %xmm3
	vaddsd	%xmm3, %xmm1, %xmm1
	vfmadd231sd	%xmm3, %xmm9, %xmm0 # xmm0 = (xmm9 * xmm3) + xmm0
	vfmadd231sd	%xmm3, %xmm2, %xmm8 # xmm8 = (xmm2 * xmm3) + xmm8
	vfmadd231sd	%xmm3, %xmm14, %xmm7 # xmm7 = (xmm14 * xmm3) + xmm7
	vmovss	236(%r14,%rsi), %xmm3   # xmm3 = mem[0],zero,zero,zero
	vcvtss2sd	%xmm3, %xmm3, %xmm3
	vfmadd213sd	%xmm8, %xmm3, %xmm2 # xmm2 = (xmm3 * xmm2) + xmm8
	vaddsd	%xmm3, %xmm1, %xmm1
	vfmadd231sd	%xmm3, %xmm10, %xmm0 # xmm0 = (xmm10 * xmm3) + xmm0
	vfmadd231sd	%xmm3, %xmm14, %xmm7 # xmm7 = (xmm14 * xmm3) + xmm7
	vmovss	240(%r14,%rsi), %xmm3   # xmm3 = mem[0],zero,zero,zero
	vcvtss2sd	%xmm3, %xmm3, %xmm3
	vaddsd	%xmm3, %xmm1, %xmm1
	vfmadd213sd	%xmm0, %xmm3, %xmm12 # xmm12 = (xmm3 * xmm12) + xmm0
	vmovss	244(%r14,%rsi), %xmm0   # xmm0 = mem[0],zero,zero,zero
	vcvtss2sd	%xmm0, %xmm0, %xmm0
	vfmadd231sd	%xmm3, %xmm15, %xmm2 # xmm2 = (xmm15 * xmm3) + xmm2
	vfmadd231sd	%xmm3, %xmm14, %xmm7 # xmm7 = (xmm14 * xmm3) + xmm7
	vfmadd213sd	%xmm12, %xmm0, %xmm13 # xmm13 = (xmm0 * xmm13) + xmm12
	vaddsd	%xmm0, %xmm1, %xmm1
	vfmadd231sd	%xmm0, %xmm15, %xmm2 # xmm2 = (xmm15 * xmm0) + xmm2
	vfmadd231sd	%xmm0, %xmm14, %xmm7 # xmm7 = (xmm14 * xmm0) + xmm7
	vmovss	248(%r14,%rsi), %xmm0   # xmm0 = mem[0],zero,zero,zero
	vcvtss2sd	%xmm0, %xmm0, %xmm0
	vfmadd213sd	%xmm13, %xmm0, %xmm9 # xmm9 = (xmm0 * xmm9) + xmm13
	vaddsd	%xmm0, %xmm1, %xmm1
	vfmadd231sd	%xmm0, %xmm15, %xmm2 # xmm2 = (xmm15 * xmm0) + xmm2
	vfmadd231sd	%xmm0, %xmm14, %xmm7 # xmm7 = (xmm14 * xmm0) + xmm7
	vmovss	252(%r14,%rsi), %xmm0   # xmm0 = mem[0],zero,zero,zero
	vcvtss2sd	%xmm0, %xmm0, %xmm0
	vfmadd213sd	%xmm9, %xmm0, %xmm10 # xmm10 = (xmm0 * xmm10) + xmm9
	vmovsd	.LCPI1_0(%rip), %xmm9   # xmm9 = mem[0],zero
	vfmadd213sd	%xmm2, %xmm0, %xmm15 # xmm15 = (xmm0 * xmm15) + xmm2
	vfmadd231sd	%xmm14, %xmm0, %xmm7 # xmm7 = (xmm0 * xmm14) + xmm7
	vaddsd	%xmm0, %xmm1, %xmm0
.Ltmp135:
	.loc	1 92 1                  # vlasovsolver/cpu_moments.cpp:92:1
	vunpcklpd	%xmm10, %xmm0, %xmm1 # xmm1 = xmm0[0],xmm10[0]
	vmovsd	128(%rsp), %xmm0        # 8-byte Reload
                                        # xmm0 = mem[0],zero
.Ltmp136:
	.loc	1 90 1                  # vlasovsolver/cpu_moments.cpp:90:1
	vmulsd	32(%r15,%rcx,8), %xmm0, %xmm0
	vmulsd	%xmm0, %xmm6, %xmm2
	vmovsd	.LCPI1_1(%rip), %xmm10  # xmm10 = mem[0],zero
.Ltmp137:
	.loc	1 92 1                  # vlasovsolver/cpu_moments.cpp:92:1
	vunpcklpd	%xmm7, %xmm15, %xmm3 # xmm3 = xmm15[0],xmm7[0]
	vmovapd	672(%rsp), %ymm0        # 32-byte Reload
.Ltmp138:
	#DEBUG_VALUE: blockLID <- undef
	vinsertf128	$1, %xmm3, %ymm1, %ymm3
	vbroadcastsd	%xmm2, %ymm1
	vmovapd	%ymm1, %ymm2
	vfmadd213pd	%ymm0, %ymm3, %ymm2 # ymm2 = (ymm3 * ymm2) + ymm0
.Ltmp139:
	#DEBUG_VALUE: blockLID <- [DW_OP_plus_uconst 1, DW_OP_stack_value] undef
	.loc	1 209 1                 # vlasovsolver/cpu_moments.cpp:209:1
	addq	$256, %rdx              # imm = 0x100
	addq	$6, %rcx
	cmpq	%rdx, %rax
	jne	.LBB1_15
.Ltmp140:
# %bb.16:                               # %L.B0089.loopexit
                                        #   in Loop: Header=BB1_8 Depth=2
	#DEBUG_VALUE: calculateMoments_R:computeSecond <- [DW_OP_plus_uconst 56] [$rsp+0]
	#DEBUG_VALUE: ....inline.__FILL_CHARARRAY <- [DW_OP_LLVM_convert 32 7, DW_OP_LLVM_convert 8 7, DW_OP_stack_value] 0
	#DEBUG_VALUE: calculateMoments_R:mpiGrid <- [DW_OP_plus_uconst 120] [$rsp+0]
	#DEBUG_VALUE: calculateMoments_R:cells <- [DW_OP_plus_uconst 8] [$rsp+0]
	.loc	1 92 1                  # vlasovsolver/cpu_moments.cpp:92:1
	vfmadd213pd	%ymm0, %ymm3, %ymm1 # ymm1 = (ymm3 * ymm1) + ymm0
	jmp	.LBB1_17
.Ltmp141:
.LBB1_20:                               # %L.N0007.loopexit
	#DEBUG_VALUE: popID <- $r15d
	#DEBUG_VALUE: calculateMoments_R:computeSecond <- [DW_OP_plus_uconst 56] [$rsp+0]
	#DEBUG_VALUE: ....inline.__FILL_CHARARRAY <- [DW_OP_LLVM_convert 32 7, DW_OP_LLVM_convert 8 7, DW_OP_stack_value] 0
	#DEBUG_VALUE: calculateMoments_R:mpiGrid <- [DW_OP_plus_uconst 120] [$rsp+0]
	#DEBUG_VALUE: calculateMoments_R:cells <- [DW_OP_plus_uconst 8] [$rsp+0]
	.loc	1 0 1 is_stmt 0         # vlasovsolver/cpu_moments.cpp:0:1
	movq	56(%rsp), %r15          # 8-byte Reload
.Ltmp142:
	#DEBUG_VALUE: calculateMoments_R:computeSecond <- $r15
.LBB1_21:                               # %L.N0007
	#DEBUG_VALUE: ....inline.__FILL_CHARARRAY <- [DW_OP_LLVM_convert 32 7, DW_OP_LLVM_convert 8 7, DW_OP_stack_value] 0
	#DEBUG_VALUE: calculateMoments_R:mpiGrid <- [DW_OP_plus_uconst 120] [$rsp+0]
	#DEBUG_VALUE: calculateMoments_R:cells <- [DW_OP_plus_uconst 8] [$rsp+0]
	#DEBUG_VALUE: calculateMoments_R:computeSecond <- $r15
	#DEBUG_VALUE: c <- 0
	.loc	1 916 1 is_stmt 1       # vlasovsolver/cpu_moments.cpp:916:1
	testb	%cl, %cl
	je	.LBB1_22
.Ltmp143:
.LBB1_26:                               # %L.B0097
	#DEBUG_VALUE: ....inline.__FILL_CHARARRAY <- [DW_OP_LLVM_convert 32 7, DW_OP_LLVM_convert 8 7, DW_OP_stack_value] 0
	#DEBUG_VALUE: calculateMoments_R:mpiGrid <- [DW_OP_plus_uconst 120] [$rsp+0]
	#DEBUG_VALUE: calculateMoments_R:cells <- [DW_OP_plus_uconst 8] [$rsp+0]
	#DEBUG_VALUE: calculateMoments_R:computeSecond <- $r15
	.loc	1 238 1                 # vlasovsolver/cpu_moments.cpp:238:1
	cmpb	$0, (%r15)
	je	.LBB1_35
.Ltmp144:
# %bb.27:                               # %L.B0106.preheader
	#DEBUG_VALUE: ....inline.__FILL_CHARARRAY <- [DW_OP_LLVM_convert 32 7, DW_OP_LLVM_convert 8 7, DW_OP_stack_value] 0
	#DEBUG_VALUE: calculateMoments_R:mpiGrid <- [DW_OP_plus_uconst 120] [$rsp+0]
	#DEBUG_VALUE: calculateMoments_R:cells <- [DW_OP_plus_uconst 8] [$rsp+0]
	#DEBUG_VALUE: calculateMoments_R:computeSecond <- $r15
	#DEBUG_VALUE: popID <- 0
	.loc	1 243 1                 # vlasovsolver/cpu_moments.cpp:243:1
	callq	_Z16getObjectWrapperv
	movq	232(%rax), %rcx
	subq	224(%rax), %rcx
	movq	%rcx, %rax
	movabsq	$5675921253449092805, %rdx # imm = 0x4EC4EC4EC4EC4EC5
	imulq	%rdx
	sarq	$6, %rdx
	sarq	$63, %rcx
.Ltmp145:
	.loc	1 916 1                 # vlasovsolver/cpu_moments.cpp:916:1
	cmpq	%rcx, %rdx
	jne	.LBB1_28
.Ltmp146:
.LBB1_46:                               # %L.N0009
	#DEBUG_VALUE: ....inline.__FILL_CHARARRAY <- [DW_OP_LLVM_convert 32 7, DW_OP_LLVM_convert 8 7, DW_OP_stack_value] 0
	#DEBUG_VALUE: calculateMoments_R:mpiGrid <- [DW_OP_plus_uconst 120] [$rsp+0]
	#DEBUG_VALUE: calculateMoments_R:cells <- [DW_OP_plus_uconst 8] [$rsp+0]
	.loc	1 527 1                 # vlasovsolver/cpu_moments.cpp:527:1
	leaq	32(%rsp), %rax
	movq	%rax, 16(%rsp)
.Ltmp147:
	#DEBUG_VALUE: __dnew <- 17
	#DEBUG_VALUE: _M_construct:_T29072768_54493 <- undef
	#DEBUG_VALUE:  <- [DW_OP_plus_uconst 16, DW_OP_stack_value] $rsp
	#DEBUG_VALUE: _M_construct: <- [DW_OP_plus_uconst 16, DW_OP_stack_value] $rsp
	#DEBUG_VALUE: ....inline.__FILL_CHARARRAY <- [DW_OP_LLVM_convert 32 7, DW_OP_LLVM_convert 8 7, DW_OP_stack_value] 0
	.loc	2 143 1                 # /usr/include/c++/9/bits/basic_string.tcc:143:1
	movq	$17, (%rsp)
.Ltmp148:
	#DEBUG_VALUE: __dnew <- [DW_OP_deref] $rsp
.Ltmp81:
	.loc	2 0 1 is_stmt 0         # /usr/include/c++/9/bits/basic_string.tcc:0:1
	leaq	16(%rsp), %rdi
	movq	%rsp, %rsi
	.loc	2 219 1 is_stmt 1       # /usr/include/c++/9/bits/basic_string.tcc:219:1
	xorl	%edx, %edx
	callq	_ZNSt7__cxx1112basic_stringIcSt11char_traitsIcESaIcEE9_M_createERmm
.Ltmp82:
.Ltmp149:
	#DEBUG_VALUE: __beg <- undef
	#DEBUG_VALUE: _M_construct:__beg <- undef
# %bb.47:                               # %L.B1777
	#DEBUG_VALUE: __dnew <- [DW_OP_deref] $rsp
	#DEBUG_VALUE: _M_construct: <- [DW_OP_plus_uconst 16, DW_OP_stack_value] $rsp
	#DEBUG_VALUE:  <- [DW_OP_plus_uconst 16, DW_OP_stack_value] $rsp
	#DEBUG_VALUE: ....inline.__FILL_CHARARRAY <- [DW_OP_LLVM_convert 32 7, DW_OP_LLVM_convert 8 7, DW_OP_stack_value] 0
	#DEBUG_VALUE: calculateMoments_R:mpiGrid <- [DW_OP_plus_uconst 120] [$rsp+0]
	#DEBUG_VALUE: calculateMoments_R:cells <- [DW_OP_plus_uconst 8] [$rsp+0]
	movq	%rax, 16(%rsp)
	.loc	2 220 1                 # /usr/include/c++/9/bits/basic_string.tcc:220:1
	movq	(%rsp), %rcx
.Ltmp150:
	#DEBUG_VALUE: __dnew <- $rcx
	movq	%rcx, 32(%rsp)
	.loc	2 398 1                 # /usr/include/c++/9/bits/basic_string.tcc:398:1
	vmovups	.S55839(%rip), %xmm0
	vmovups	%xmm0, (%rax)
	movb	$110, 16(%rax)
	.loc	2 216 1                 # /usr/include/c++/9/bits/basic_string.tcc:216:1
	movq	%rcx, 24(%rsp)
	.loc	2 217 1                 # /usr/include/c++/9/bits/basic_string.tcc:217:1
	movq	16(%rsp), %rax
	movb	$0, (%rax,%rcx)
.Ltmp151:
	.loc	1 527 1                 # vlasovsolver/cpu_moments.cpp:527:1
	leaq	608(%rsp), %rbx
	movq	%rbx, 592(%rsp)
.Ltmp152:
	#DEBUG_VALUE: __dnew <- 0
	#DEBUG_VALUE: _M_construct:_T29072768_54493 <- undef
	#DEBUG_VALUE:  <- [DW_OP_plus_uconst 592, DW_OP_stack_value] $rsp
	#DEBUG_VALUE: _M_construct: <- [DW_OP_plus_uconst 592, DW_OP_stack_value] $rsp
	#DEBUG_VALUE: ....inline.__FILL_CHARARRAY <- [DW_OP_LLVM_convert 32 7, DW_OP_LLVM_convert 8 7, DW_OP_stack_value] 0
	.loc	2 216 1                 # /usr/include/c++/9/bits/basic_string.tcc:216:1
	movq	$0, 600(%rsp)
	.loc	2 217 1                 # /usr/include/c++/9/bits/basic_string.tcc:217:1
	movb	$0, 608(%rsp)
.Ltmp84:
	leaq	16(%rsp), %rdi
	vmovsd	.LCPI1_5(%rip), %xmm0   # xmm0 = mem[0],zero
	leaq	592(%rsp), %rsi
.Ltmp153:
	.loc	1 284 1                 # vlasovsolver/cpu_moments.cpp:284:1
	callq	_ZN7phiprof4stopERKNSt7__cxx1112basic_stringIcSt11char_traitsIcESaIcEEEdS7_
.Ltmp154:
.Ltmp85:
# %bb.48:                               # %L.B1778
	#DEBUG_VALUE: ....inline.__FILL_CHARARRAY <- [DW_OP_LLVM_convert 32 7, DW_OP_LLVM_convert 8 7, DW_OP_stack_value] 0
	#DEBUG_VALUE: calculateMoments_R:mpiGrid <- [DW_OP_plus_uconst 120] [$rsp+0]
	#DEBUG_VALUE: calculateMoments_R:cells <- [DW_OP_plus_uconst 8] [$rsp+0]
	.loc	1 658 1                 # vlasovsolver/cpu_moments.cpp:658:1
	movq	592(%rsp), %rdi
	cmpq	%rbx, %rdi
	je	.LBB1_50
.Ltmp155:
# %bb.49:                               # %L.B1779
	#DEBUG_VALUE: ....inline.__FILL_CHARARRAY <- [DW_OP_LLVM_convert 32 7, DW_OP_LLVM_convert 8 7, DW_OP_stack_value] 0
	#DEBUG_VALUE: calculateMoments_R:mpiGrid <- [DW_OP_plus_uconst 120] [$rsp+0]
	#DEBUG_VALUE: calculateMoments_R:cells <- [DW_OP_plus_uconst 8] [$rsp+0]
	callq	_ZdlPv
.Ltmp156:
.LBB1_50:                               # %L..inline.76205
	#DEBUG_VALUE: ....inline.__FILL_CHARARRAY <- [DW_OP_LLVM_convert 32 7, DW_OP_LLVM_convert 8 7, DW_OP_stack_value] 0
	#DEBUG_VALUE: calculateMoments_R:mpiGrid <- [DW_OP_plus_uconst 120] [$rsp+0]
	#DEBUG_VALUE: calculateMoments_R:cells <- [DW_OP_plus_uconst 8] [$rsp+0]
	movq	16(%rsp), %rdi
	leaq	32(%rsp), %rax
	cmpq	%rax, %rdi
	je	.LBB1_52
.Ltmp157:
.LBB1_51:                               # %L.B1780
	#DEBUG_VALUE: ....inline.__FILL_CHARARRAY <- [DW_OP_LLVM_convert 32 7, DW_OP_LLVM_convert 8 7, DW_OP_stack_value] 0
	#DEBUG_VALUE: calculateMoments_R:mpiGrid <- [DW_OP_plus_uconst 120] [$rsp+0]
	#DEBUG_VALUE: calculateMoments_R:cells <- [DW_OP_plus_uconst 8] [$rsp+0]
	callq	_ZdlPv
.Ltmp158:
.LBB1_52:                               # %L.R0003
	#DEBUG_VALUE: ....inline.__FILL_CHARARRAY <- [DW_OP_LLVM_convert 32 7, DW_OP_LLVM_convert 8 7, DW_OP_stack_value] 0
	#DEBUG_VALUE: calculateMoments_R:mpiGrid <- [DW_OP_plus_uconst 120] [$rsp+0]
	#DEBUG_VALUE: calculateMoments_R:cells <- [DW_OP_plus_uconst 8] [$rsp+0]
	.loc	1 285 1                 # vlasovsolver/cpu_moments.cpp:285:1
	leaq	-40(%rbp), %rsp
.Ltmp159:
	popq	%rbx
	popq	%r12
	popq	%r13
	popq	%r14
	popq	%r15
	popq	%rbp
	.cfi_def_cfa %rsp, 8
	retq
.Ltmp160:
.LBB1_22:                               # %L.B0096.preheader
	.cfi_def_cfa %rbp, 16
	#DEBUG_VALUE: c <- 0
	#DEBUG_VALUE: ....inline.__FILL_CHARARRAY <- [DW_OP_LLVM_convert 32 7, DW_OP_LLVM_convert 8 7, DW_OP_stack_value] 0
	#DEBUG_VALUE: calculateMoments_R:mpiGrid <- [DW_OP_plus_uconst 120] [$rsp+0]
	#DEBUG_VALUE: calculateMoments_R:cells <- [DW_OP_plus_uconst 8] [$rsp+0]
	#DEBUG_VALUE: calculateMoments_R:computeSecond <- $r15
	.loc	1 0 1 is_stmt 0         # vlasovsolver/cpu_moments.cpp:0:1
	xorl	%r14d, %r14d
	jmp	.LBB1_23
.Ltmp161:
	.p2align	4, 0x90
.LBB1_25:                               # %L_T29096128_54317
                                        #   in Loop: Header=BB1_23 Depth=1
	#DEBUG_VALUE: c <- $r14
	#DEBUG_VALUE: ....inline.__FILL_CHARARRAY <- [DW_OP_LLVM_convert 32 7, DW_OP_LLVM_convert 8 7, DW_OP_stack_value] 0
	#DEBUG_VALUE: calculateMoments_R:mpiGrid <- [DW_OP_plus_uconst 120] [$rsp+0]
	#DEBUG_VALUE: calculateMoments_R:cells <- [DW_OP_plus_uconst 8] [$rsp+0]
	#DEBUG_VALUE: calculateMoments_R:computeSecond <- $r15
	.loc	1 235 1 is_stmt 1       # vlasovsolver/cpu_moments.cpp:235:1
	incq	%r14
.Ltmp162:
	#DEBUG_VALUE: c <- $r14
	.loc	1 0 1 is_stmt 0         # vlasovsolver/cpu_moments.cpp:0:1
	movq	8(%rsp), %rcx           # 8-byte Reload
	.loc	1 235 1                 # vlasovsolver/cpu_moments.cpp:235:1
	movq	(%rcx), %rax
	movq	8(%rcx), %rcx
	subq	%rax, %rcx
	sarq	$3, %rcx
	cmpq	%rcx, %r14
	jae	.LBB1_26
.Ltmp163:
.LBB1_23:                               # %L.B0096
                                        # =>This Inner Loop Header: Depth=1
	#DEBUG_VALUE: ....inline.__FILL_CHARARRAY <- [DW_OP_LLVM_convert 32 7, DW_OP_LLVM_convert 8 7, DW_OP_stack_value] 0
	#DEBUG_VALUE: calculateMoments_R:mpiGrid <- [DW_OP_plus_uconst 120] [$rsp+0]
	#DEBUG_VALUE: calculateMoments_R:cells <- [DW_OP_plus_uconst 8] [$rsp+0]
	#DEBUG_VALUE: calculateMoments_R:computeSecond <- $r15
	.loc	1 1062 1 is_stmt 1      # vlasovsolver/cpu_moments.cpp:1062:1
	movq	(%rax,%r14,8), %rsi
	movq	120(%rsp), %rdi         # 8-byte Reload
	callq	_ZNK5dccrg5DccrgIN12spatial_cell11SpatialCellENS_18Cartesian_GeometryESt5tupleIJEES5_EixEm
.Ltmp164:
	#DEBUG_VALUE: cell <- $rax
	#DEBUG_VALUE: c <- $r14
	.loc	1 229 1                 # vlasovsolver/cpu_moments.cpp:229:1
	cmpl	$0, 928(%rax)
	je	.LBB1_25
.Ltmp165:
# %bb.24:                               # %L.B1756
                                        #   in Loop: Header=BB1_23 Depth=1
	#DEBUG_VALUE: c <- $r14
	#DEBUG_VALUE: cell <- $rax
	#DEBUG_VALUE: ....inline.__FILL_CHARARRAY <- [DW_OP_LLVM_convert 32 7, DW_OP_LLVM_convert 8 7, DW_OP_stack_value] 0
	#DEBUG_VALUE: calculateMoments_R:mpiGrid <- [DW_OP_plus_uconst 120] [$rsp+0]
	#DEBUG_VALUE: calculateMoments_R:cells <- [DW_OP_plus_uconst 8] [$rsp+0]
	#DEBUG_VALUE: calculateMoments_R:computeSecond <- $r15
	.loc	1 0 0 is_stmt 0         # vlasovsolver/cpu_moments.cpp:0:0
	movq	%rax, %rbx
.Ltmp166:
	#DEBUG_VALUE: cell <- $rbx
	.loc	1 186 1 is_stmt 1       # vlasovsolver/cpu_moments.cpp:186:1
	vmovsd	248(%rax), %xmm1        # xmm1 = mem[0],zero
	vmovsd	256(%rax), %xmm0        # xmm0 = mem[0],zero
	callq	_Z15divideIfNonZerodd
	vmovsd	%xmm0, 256(%rbx)
	vmovsd	248(%rbx), %xmm1        # xmm1 = mem[0],zero
	vmovsd	264(%rbx), %xmm0        # xmm0 = mem[0],zero
	callq	_Z15divideIfNonZerodd
	vmovsd	%xmm0, 264(%rbx)
	vmovsd	248(%rbx), %xmm1        # xmm1 = mem[0],zero
	vmovsd	272(%rbx), %xmm0        # xmm0 = mem[0],zero
	callq	_Z15divideIfNonZerodd
	vmovsd	%xmm0, 272(%rbx)
	jmp	.LBB1_25
.Ltmp167:
.LBB1_35:                               # %L.B1757
	#DEBUG_VALUE: ....inline.__FILL_CHARARRAY <- [DW_OP_LLVM_convert 32 7, DW_OP_LLVM_convert 8 7, DW_OP_stack_value] 0
	#DEBUG_VALUE: calculateMoments_R:mpiGrid <- [DW_OP_plus_uconst 120] [$rsp+0]
	#DEBUG_VALUE: calculateMoments_R:cells <- [DW_OP_plus_uconst 8] [$rsp+0]
	#DEBUG_VALUE: calculateMoments_R:computeSecond <- $r15
	.loc	1 527 1                 # vlasovsolver/cpu_moments.cpp:527:1
	leaq	448(%rsp), %r15
.Ltmp168:
	movq	%r15, 432(%rsp)
.Ltmp169:
	#DEBUG_VALUE: __dnew <- 17
	#DEBUG_VALUE: _M_construct:_T29072768_54493 <- undef
	#DEBUG_VALUE:  <- [DW_OP_plus_uconst 432, DW_OP_stack_value] $rsp
	#DEBUG_VALUE: _M_construct: <- [DW_OP_plus_uconst 432, DW_OP_stack_value] $rsp
	#DEBUG_VALUE: ....inline.__FILL_CHARARRAY <- [DW_OP_LLVM_convert 32 7, DW_OP_LLVM_convert 8 7, DW_OP_stack_value] 0
	.loc	2 143 1                 # /usr/include/c++/9/bits/basic_string.tcc:143:1
	movq	$17, (%rsp)
.Ltmp170:
	#DEBUG_VALUE: __dnew <- [DW_OP_deref] $rsp
.Ltmp87:
	.loc	2 0 1 is_stmt 0         # /usr/include/c++/9/bits/basic_string.tcc:0:1
	leaq	432(%rsp), %rdi
	movq	%rsp, %rsi
	.loc	2 219 1 is_stmt 1       # /usr/include/c++/9/bits/basic_string.tcc:219:1
	xorl	%edx, %edx
	callq	_ZNSt7__cxx1112basic_stringIcSt11char_traitsIcESaIcEE9_M_createERmm
.Ltmp88:
.Ltmp171:
	#DEBUG_VALUE: __beg <- undef
	#DEBUG_VALUE: _M_construct:__beg <- undef
# %bb.36:                               # %L.B1761
	#DEBUG_VALUE: __dnew <- [DW_OP_deref] $rsp
	#DEBUG_VALUE: _M_construct: <- [DW_OP_plus_uconst 432, DW_OP_stack_value] $rsp
	#DEBUG_VALUE:  <- [DW_OP_plus_uconst 432, DW_OP_stack_value] $rsp
	#DEBUG_VALUE: ....inline.__FILL_CHARARRAY <- [DW_OP_LLVM_convert 32 7, DW_OP_LLVM_convert 8 7, DW_OP_stack_value] 0
	#DEBUG_VALUE: calculateMoments_R:mpiGrid <- [DW_OP_plus_uconst 120] [$rsp+0]
	#DEBUG_VALUE: calculateMoments_R:cells <- [DW_OP_plus_uconst 8] [$rsp+0]
	movq	%rax, 432(%rsp)
	.loc	2 220 1                 # /usr/include/c++/9/bits/basic_string.tcc:220:1
	movq	(%rsp), %rcx
.Ltmp172:
	#DEBUG_VALUE: __dnew <- $rcx
	movq	%rcx, 448(%rsp)
	.loc	2 398 1                 # /usr/include/c++/9/bits/basic_string.tcc:398:1
	vmovups	.S55839(%rip), %xmm0
	vmovups	%xmm0, (%rax)
	movb	$110, 16(%rax)
	.loc	2 216 1                 # /usr/include/c++/9/bits/basic_string.tcc:216:1
	movq	%rcx, 440(%rsp)
	.loc	2 217 1                 # /usr/include/c++/9/bits/basic_string.tcc:217:1
	movq	432(%rsp), %rax
	movb	$0, (%rax,%rcx)
.Ltmp173:
	.loc	1 527 1                 # vlasovsolver/cpu_moments.cpp:527:1
	leaq	640(%rsp), %rbx
	movq	%rbx, 624(%rsp)
.Ltmp174:
	#DEBUG_VALUE: __dnew <- 0
	#DEBUG_VALUE: _M_construct:_T29072768_54493 <- undef
	#DEBUG_VALUE:  <- [DW_OP_plus_uconst 624, DW_OP_stack_value] $rsp
	#DEBUG_VALUE: _M_construct: <- [DW_OP_plus_uconst 624, DW_OP_stack_value] $rsp
	#DEBUG_VALUE: ....inline.__FILL_CHARARRAY <- [DW_OP_LLVM_convert 32 7, DW_OP_LLVM_convert 8 7, DW_OP_stack_value] 0
	.loc	2 216 1                 # /usr/include/c++/9/bits/basic_string.tcc:216:1
	movq	$0, 632(%rsp)
	.loc	2 217 1                 # /usr/include/c++/9/bits/basic_string.tcc:217:1
	movb	$0, 640(%rsp)
.Ltmp90:
	leaq	432(%rsp), %rdi
	vmovsd	.LCPI1_5(%rip), %xmm0   # xmm0 = mem[0],zero
	leaq	624(%rsp), %rsi
.Ltmp175:
	.loc	1 239 1                 # vlasovsolver/cpu_moments.cpp:239:1
	callq	_ZN7phiprof4stopERKNSt7__cxx1112basic_stringIcSt11char_traitsIcESaIcEEEdS7_
.Ltmp176:
.Ltmp91:
# %bb.37:                               # %L.B1762
	#DEBUG_VALUE: ....inline.__FILL_CHARARRAY <- [DW_OP_LLVM_convert 32 7, DW_OP_LLVM_convert 8 7, DW_OP_stack_value] 0
	#DEBUG_VALUE: calculateMoments_R:mpiGrid <- [DW_OP_plus_uconst 120] [$rsp+0]
	#DEBUG_VALUE: calculateMoments_R:cells <- [DW_OP_plus_uconst 8] [$rsp+0]
	.loc	1 658 1                 # vlasovsolver/cpu_moments.cpp:658:1
	movq	624(%rsp), %rdi
	cmpq	%rbx, %rdi
	je	.LBB1_39
.Ltmp177:
# %bb.38:                               # %L.B1763
	#DEBUG_VALUE: ....inline.__FILL_CHARARRAY <- [DW_OP_LLVM_convert 32 7, DW_OP_LLVM_convert 8 7, DW_OP_stack_value] 0
	#DEBUG_VALUE: calculateMoments_R:mpiGrid <- [DW_OP_plus_uconst 120] [$rsp+0]
	#DEBUG_VALUE: calculateMoments_R:cells <- [DW_OP_plus_uconst 8] [$rsp+0]
	callq	_ZdlPv
.Ltmp178:
.LBB1_39:                               # %L..inline.75606
	#DEBUG_VALUE: ....inline.__FILL_CHARARRAY <- [DW_OP_LLVM_convert 32 7, DW_OP_LLVM_convert 8 7, DW_OP_stack_value] 0
	#DEBUG_VALUE: calculateMoments_R:mpiGrid <- [DW_OP_plus_uconst 120] [$rsp+0]
	#DEBUG_VALUE: calculateMoments_R:cells <- [DW_OP_plus_uconst 8] [$rsp+0]
	movq	432(%rsp), %rdi
	cmpq	%r15, %rdi
	jne	.LBB1_51
	jmp	.LBB1_52
.Ltmp179:
.LBB1_28:                               # %L.B1765.preheader
	#DEBUG_VALUE: popID <- 0
	#DEBUG_VALUE: ....inline.__FILL_CHARARRAY <- [DW_OP_LLVM_convert 32 7, DW_OP_LLVM_convert 8 7, DW_OP_stack_value] 0
	#DEBUG_VALUE: calculateMoments_R:mpiGrid <- [DW_OP_plus_uconst 120] [$rsp+0]
	#DEBUG_VALUE: calculateMoments_R:cells <- [DW_OP_plus_uconst 8] [$rsp+0]
	#DEBUG_VALUE: calculateMoments_R:computeSecond <- $r15
	.loc	1 0 1 is_stmt 0         # vlasovsolver/cpu_moments.cpp:0:1
	xorl	%eax, %eax
	movq	%rax, 112(%rsp)         # 8-byte Spill
	jmp	.LBB1_29
.Ltmp180:
	.p2align	4, 0x90
.LBB1_45:                               # %L.B0111
                                        #   in Loop: Header=BB1_29 Depth=1
	#DEBUG_VALUE: ....inline.__FILL_CHARARRAY <- [DW_OP_LLVM_convert 32 7, DW_OP_LLVM_convert 8 7, DW_OP_stack_value] 0
	#DEBUG_VALUE: calculateMoments_R:mpiGrid <- [DW_OP_plus_uconst 120] [$rsp+0]
	#DEBUG_VALUE: calculateMoments_R:cells <- [DW_OP_plus_uconst 8] [$rsp+0]
	movq	112(%rsp), %rbx         # 8-byte Reload
.Ltmp181:
	.loc	1 282 1 is_stmt 1       # vlasovsolver/cpu_moments.cpp:282:1
	incl	%ebx
.Ltmp182:
	#DEBUG_VALUE: popID <- $ebx
	.loc	1 243 1                 # vlasovsolver/cpu_moments.cpp:243:1
	callq	_Z16getObjectWrapperv
	movq	232(%rax), %rcx
	subq	224(%rax), %rcx
	movq	%rcx, %rax
	movabsq	$5675921253449092805, %rdx # imm = 0x4EC4EC4EC4EC4EC5
	imulq	%rdx
	sarq	$6, %rdx
	sarq	$63, %rcx
	subq	%rcx, %rdx
	movq	%rbx, 112(%rsp)         # 8-byte Spill
.Ltmp183:
	#DEBUG_VALUE: popID <- [DW_OP_plus_uconst 112] [$rsp+0]
	.loc	1 916 1                 # vlasovsolver/cpu_moments.cpp:916:1
	cmpq	%rbx, %rdx
	jbe	.LBB1_46
.Ltmp184:
.LBB1_29:                               # %L.B1765
                                        # =>This Loop Header: Depth=1
                                        #     Child Loop BB1_31 Depth 2
                                        #       Child Loop BB1_41 Depth 3
	#DEBUG_VALUE: ....inline.__FILL_CHARARRAY <- [DW_OP_LLVM_convert 32 7, DW_OP_LLVM_convert 8 7, DW_OP_stack_value] 0
	#DEBUG_VALUE: calculateMoments_R:mpiGrid <- [DW_OP_plus_uconst 120] [$rsp+0]
	#DEBUG_VALUE: calculateMoments_R:cells <- [DW_OP_plus_uconst 8] [$rsp+0]
	#DEBUG_VALUE: popID <- [DW_OP_plus_uconst 112] [$rsp+0]
	.loc	1 0 1 is_stmt 0         # vlasovsolver/cpu_moments.cpp:0:1
	movq	8(%rsp), %rcx           # 8-byte Reload
	.loc	1 916 1                 # vlasovsolver/cpu_moments.cpp:916:1
	movq	(%rcx), %rax
.Ltmp185:
	#DEBUG_VALUE: c <- 0
	movq	8(%rcx), %rcx
	subq	%rax, %rcx
	cmpq	$8, %rcx
	jb	.LBB1_45
.Ltmp186:
# %bb.30:                               # %L.B1766
                                        #   in Loop: Header=BB1_29 Depth=1
	#DEBUG_VALUE: c <- 0
	#DEBUG_VALUE: popID <- [DW_OP_plus_uconst 112] [$rsp+0]
	#DEBUG_VALUE: ....inline.__FILL_CHARARRAY <- [DW_OP_LLVM_convert 32 7, DW_OP_LLVM_convert 8 7, DW_OP_stack_value] 0
	#DEBUG_VALUE: calculateMoments_R:mpiGrid <- [DW_OP_plus_uconst 120] [$rsp+0]
	#DEBUG_VALUE: calculateMoments_R:cells <- [DW_OP_plus_uconst 8] [$rsp+0]
	.loc	1 0 1                   # vlasovsolver/cpu_moments.cpp:0:1
	movq	112(%rsp), %rcx         # 8-byte Reload
.Ltmp187:
	.loc	1 245 1 is_stmt 1       # vlasovsolver/cpu_moments.cpp:245:1
	imulq	$208, %rcx, %rdx
	movq	%rdx, 480(%rsp)         # 8-byte Spill
	imulq	$608, %rcx, %r14        # imm = 0x260
.Ltmp188:
	.loc	1 0 0 is_stmt 0         # vlasovsolver/cpu_moments.cpp:0:0
	xorl	%ebx, %ebx
	jmp	.LBB1_31
.Ltmp189:
.LBB1_34:                               #   in Loop: Header=BB1_31 Depth=2
	#DEBUG_VALUE: blockLID <- 0
	#DEBUG_VALUE: mass <- $xmm2
	#DEBUG_VALUE: array <- [DW_OP_LLVM_fragment 0 64] 0.000000e+00
	#DEBUG_VALUE: array <- [DW_OP_LLVM_fragment 64 64] 0.000000e+00
	#DEBUG_VALUE: array <- [DW_OP_LLVM_fragment 128 64] 0.000000e+00
	#DEBUG_VALUE: data <- $r12
	#DEBUG_VALUE: blockParams <- $r13
	#DEBUG_VALUE: ....inline.__FILL_CHARARRAY <- [DW_OP_LLVM_convert 32 7, DW_OP_LLVM_convert 8 7, DW_OP_stack_value] 0
	#DEBUG_VALUE: calculateMoments_R:mpiGrid <- [DW_OP_plus_uconst 120] [$rsp+0]
	#DEBUG_VALUE: calculateMoments_R:cells <- [DW_OP_plus_uconst 8] [$rsp+0]
	vxorpd	%xmm0, %xmm0, %xmm0
	vxorpd	%xmm1, %xmm1, %xmm1
	vmovsd	%xmm1, 48(%rsp)         # 8-byte Spill
	movq	144(%rsp), %rbx         # 8-byte Reload
.Ltmp190:
.LBB1_43:                               # %L.B0121
                                        #   in Loop: Header=BB1_31 Depth=2
	#DEBUG_VALUE: ....inline.__FILL_CHARARRAY <- [DW_OP_LLVM_convert 32 7, DW_OP_LLVM_convert 8 7, DW_OP_stack_value] 0
	#DEBUG_VALUE: calculateMoments_R:mpiGrid <- [DW_OP_plus_uconst 120] [$rsp+0]
	#DEBUG_VALUE: calculateMoments_R:cells <- [DW_OP_plus_uconst 8] [$rsp+0]
	#DEBUG_VALUE: array <- [DW_OP_plus_uconst 48, DW_OP_LLVM_fragment 0 64] [$rsp+0]
	.loc	1 274 1 is_stmt 1       # vlasovsolver/cpu_moments.cpp:274:1
	vmulsd	48(%rsp), %xmm2, %xmm1  # 8-byte Folded Reload
	movq	%r10, %r14
	vmovsd	%xmm1, 120(%r8,%r10)
	.loc	1 275 1                 # vlasovsolver/cpu_moments.cpp:275:1
	vmovddup	%xmm2, %xmm2    # xmm2 = xmm2[0,0]
	vmulpd	%xmm0, %xmm2, %xmm0
	vmovupd	%xmm0, 128(%r8,%r10)
.Ltmp191:
	.loc	1 186 1                 # vlasovsolver/cpu_moments.cpp:186:1
	vaddsd	376(%r11), %xmm1, %xmm0
	vmovsd	%xmm0, 376(%r11)
	vmovsd	384(%r11), %xmm0        # xmm0 = mem[0],zero
	vmovsd	392(%r11), %xmm1        # xmm1 = mem[0],zero
	vaddsd	128(%r8,%r10), %xmm0, %xmm0
	vmovsd	%xmm0, 384(%r11)
	vaddsd	136(%r8,%r10), %xmm1, %xmm0
	vmovsd	%xmm0, 392(%r11)
.Ltmp192:
.LBB1_44:                               # %L_T29096248_54317
                                        #   in Loop: Header=BB1_31 Depth=2
	#DEBUG_VALUE: ....inline.__FILL_CHARARRAY <- [DW_OP_LLVM_convert 32 7, DW_OP_LLVM_convert 8 7, DW_OP_stack_value] 0
	#DEBUG_VALUE: calculateMoments_R:mpiGrid <- [DW_OP_plus_uconst 120] [$rsp+0]
	#DEBUG_VALUE: calculateMoments_R:cells <- [DW_OP_plus_uconst 8] [$rsp+0]
	.loc	1 281 1                 # vlasovsolver/cpu_moments.cpp:281:1
	incq	%rbx
.Ltmp193:
	#DEBUG_VALUE: c <- $rbx
	.loc	1 0 1 is_stmt 0         # vlasovsolver/cpu_moments.cpp:0:1
	movq	8(%rsp), %rcx           # 8-byte Reload
	.loc	1 281 1                 # vlasovsolver/cpu_moments.cpp:281:1
	movq	(%rcx), %rax
	movq	8(%rcx), %rcx
	subq	%rax, %rcx
	sarq	$3, %rcx
	cmpq	%rcx, %rbx
	jae	.LBB1_45
.Ltmp194:
.LBB1_31:                               # %L.B0110
                                        #   Parent Loop BB1_29 Depth=1
                                        # =>  This Loop Header: Depth=2
                                        #       Child Loop BB1_41 Depth 3
	#DEBUG_VALUE: ....inline.__FILL_CHARARRAY <- [DW_OP_LLVM_convert 32 7, DW_OP_LLVM_convert 8 7, DW_OP_stack_value] 0
	#DEBUG_VALUE: calculateMoments_R:mpiGrid <- [DW_OP_plus_uconst 120] [$rsp+0]
	#DEBUG_VALUE: calculateMoments_R:cells <- [DW_OP_plus_uconst 8] [$rsp+0]
	.loc	1 1062 1 is_stmt 1      # vlasovsolver/cpu_moments.cpp:1062:1
	movq	(%rax,%rbx,8), %rsi
	movq	120(%rsp), %rdi         # 8-byte Reload
	callq	_ZNK5dccrg5DccrgIN12spatial_cell11SpatialCellENS_18Cartesian_GeometryESt5tupleIJEES5_EixEm
.Ltmp195:
	#DEBUG_VALUE: cell <- $rax
	#DEBUG_VALUE: c <- $rbx
	.loc	1 248 1                 # vlasovsolver/cpu_moments.cpp:248:1
	cmpl	$0, 928(%rax)
	je	.LBB1_44
.Ltmp196:
# %bb.32:                               # %L.B1767
                                        #   in Loop: Header=BB1_31 Depth=2
	#DEBUG_VALUE: ....inline.__FILL_CHARARRAY <- [DW_OP_LLVM_convert 32 7, DW_OP_LLVM_convert 8 7, DW_OP_stack_value] 0
	#DEBUG_VALUE: calculateMoments_R:mpiGrid <- [DW_OP_plus_uconst 120] [$rsp+0]
	#DEBUG_VALUE: calculateMoments_R:cells <- [DW_OP_plus_uconst 8] [$rsp+0]
	.loc	1 1513 1                # vlasovsolver/cpu_moments.cpp:1513:1
	movq	1408(%rax), %r15
	.loc	1 309 1                 # vlasovsolver/cpu_moments.cpp:309:1
	cmpl	$0, 580(%r15,%r14)
	je	.LBB1_44
.Ltmp197:
# %bb.33:                               # %L.B0114
                                        #   in Loop: Header=BB1_31 Depth=2
	#DEBUG_VALUE: ....inline.__FILL_CHARARRAY <- [DW_OP_LLVM_convert 32 7, DW_OP_LLVM_convert 8 7, DW_OP_stack_value] 0
	#DEBUG_VALUE: calculateMoments_R:mpiGrid <- [DW_OP_plus_uconst 120] [$rsp+0]
	#DEBUG_VALUE: calculateMoments_R:cells <- [DW_OP_plus_uconst 8] [$rsp+0]
	.loc	1 0 1 is_stmt 0         # vlasovsolver/cpu_moments.cpp:0:1
	movq	%rbx, 144(%rsp)         # 8-byte Spill
	movq	%r14, %rbx
.Ltmp198:
	.loc	1 165 1 is_stmt 1       # vlasovsolver/cpu_moments.cpp:165:1
	movq	296(%r15,%r14), %r12
	.loc	1 198 1                 # vlasovsolver/cpu_moments.cpp:198:1
	movq	584(%r15,%r14), %r13
.Ltmp199:
	#DEBUG_VALUE: blockParams <- $r13
	#DEBUG_VALUE: data <- $r12
	.loc	1 0 1 is_stmt 0         # vlasovsolver/cpu_moments.cpp:0:1
	movq	%rax, %r14
.Ltmp200:
	.loc	1 256 1 is_stmt 1       # vlasovsolver/cpu_moments.cpp:256:1
	callq	_Z16getObjectWrapperv
	movq	%r14, %r11
.Ltmp201:
	.loc	1 1044 1                # vlasovsolver/cpu_moments.cpp:1044:1
	movq	224(%rax), %rax
	movq	480(%rsp), %rcx         # 8-byte Reload
	vmovsd	40(%rax,%rcx), %xmm2    # xmm2 = mem[0],zero
.Ltmp202:
	#DEBUG_VALUE: array <- [DW_OP_LLVM_fragment 128 64] 0.000000e+00
	#DEBUG_VALUE: array <- [DW_OP_LLVM_fragment 64 64] 0.000000e+00
	#DEBUG_VALUE: array <- [DW_OP_LLVM_fragment 0 64] 0.000000e+00
	#DEBUG_VALUE: mass <- $xmm2
	.loc	1 916 1                 # vlasovsolver/cpu_moments.cpp:916:1
	movq	1408(%r14), %r8
.Ltmp203:
	#DEBUG_VALUE: blockLID <- 0
	.loc	1 0 1 is_stmt 0         # vlasovsolver/cpu_moments.cpp:0:1
	movq	%rbx, %r10
	.loc	1 309 1 is_stmt 1       # vlasovsolver/cpu_moments.cpp:309:1
	movl	580(%r15,%rbx), %ecx
	testq	%rcx, %rcx
	je	.LBB1_34
.Ltmp204:
# %bb.40:                               # %L.B1769
                                        #   in Loop: Header=BB1_31 Depth=2
	#DEBUG_VALUE: blockLID <- 0
	#DEBUG_VALUE: mass <- $xmm2
	#DEBUG_VALUE: array <- [DW_OP_LLVM_fragment 0 64] 0.000000e+00
	#DEBUG_VALUE: array <- [DW_OP_LLVM_fragment 64 64] 0.000000e+00
	#DEBUG_VALUE: array <- [DW_OP_LLVM_fragment 128 64] 0.000000e+00
	#DEBUG_VALUE: data <- $r12
	#DEBUG_VALUE: blockParams <- $r13
	#DEBUG_VALUE: ....inline.__FILL_CHARARRAY <- [DW_OP_LLVM_convert 32 7, DW_OP_LLVM_convert 8 7, DW_OP_stack_value] 0
	#DEBUG_VALUE: calculateMoments_R:mpiGrid <- [DW_OP_plus_uconst 120] [$rsp+0]
	#DEBUG_VALUE: calculateMoments_R:cells <- [DW_OP_plus_uconst 8] [$rsp+0]
	.loc	1 0 1 is_stmt 0         # vlasovsolver/cpu_moments.cpp:0:1
	vmovapd	%xmm2, 704(%rsp)        # 16-byte Spill
.Ltmp205:
	#DEBUG_VALUE: mass <- [DW_OP_plus_uconst 704] [$rsp+0]
	vmovsd	256(%r11), %xmm0        # xmm0 = mem[0],zero
	vmovsd	%xmm0, 488(%rsp)        # 8-byte Spill
	vmovupd	264(%r11), %xmm0
	vmovapd	%xmm0, 736(%rsp)        # 16-byte Spill
	vpermilpd	$1, %xmm0, %xmm0 # xmm0 = xmm0[1,0]
	vmovapd	%xmm0, 720(%rsp)        # 16-byte Spill
	shlq	$8, %rcx
	vxorpd	%xmm3, %xmm3, %xmm3
	vxorpd	%xmm0, %xmm0, %xmm0
	vmovsd	%xmm0, 48(%rsp)         # 8-byte Spill
.Ltmp206:
	xorl	%edx, %edx
	xorl	%esi, %esi
	movabsq	$17179868928, %r9       # imm = 0x3FFFFFF00
.Ltmp207:
	.p2align	4, 0x90
.LBB1_41:                               # %L.B0120
                                        #   Parent Loop BB1_29 Depth=1
                                        #     Parent Loop BB1_31 Depth=2
                                        # =>    This Inner Loop Header: Depth=3
	#DEBUG_VALUE: mass <- [DW_OP_plus_uconst 704] [$rsp+0]
	#DEBUG_VALUE: blockLID <- 0
	#DEBUG_VALUE: array <- [DW_OP_LLVM_fragment 64 64] 0.000000e+00
	#DEBUG_VALUE: array <- [DW_OP_LLVM_fragment 128 64] 0.000000e+00
	#DEBUG_VALUE: data <- $r12
	#DEBUG_VALUE: blockParams <- $r13
	#DEBUG_VALUE: ....inline.__FILL_CHARARRAY <- [DW_OP_LLVM_convert 32 7, DW_OP_LLVM_convert 8 7, DW_OP_stack_value] 0
	#DEBUG_VALUE: calculateMoments_R:mpiGrid <- [DW_OP_plus_uconst 120] [$rsp+0]
	#DEBUG_VALUE: calculateMoments_R:cells <- [DW_OP_plus_uconst 8] [$rsp+0]
	vmovapd	%xmm3, 752(%rsp)        # 16-byte Spill
.Ltmp208:
	.loc	1 186 1 is_stmt 1       # vlasovsolver/cpu_moments.cpp:186:1
	movq	%rsi, %rdi
	andq	%r9, %rdi
.Ltmp209:
	.loc	1 265 1                 # vlasovsolver/cpu_moments.cpp:265:1
	movl	%edx, %eax
	andl	$-2, %eax
.Ltmp210:
	.loc	1 124 1                 # vlasovsolver/cpu_moments.cpp:124:1
	vmovsd	40(%r13,%rdx,8), %xmm2  # xmm2 = mem[0],zero
	.loc	1 0 0 is_stmt 0         # vlasovsolver/cpu_moments.cpp:0:0
	vmovupd	8(%r13,%rax,8), %xmm0
	vmovapd	%xmm0, 464(%rsp)        # 16-byte Spill
	.loc	1 124 1                 # vlasovsolver/cpu_moments.cpp:124:1
	vpermilpd	$1, %xmm0, %xmm0 # xmm0 = xmm0[1,0]
	vmovsd	.LCPI1_3(%rip), %xmm1   # xmm1 = mem[0],zero
	vfmadd213sd	%xmm0, %xmm2, %xmm1 # xmm1 = (xmm2 * xmm1) + xmm0
	vmovapd	%xmm2, %xmm7
	vmovapd	720(%rsp), %xmm6        # 16-byte Reload
	.loc	1 0 0                   # vlasovsolver/cpu_moments.cpp:0:0
	vsubsd	%xmm6, %xmm1, %xmm1
	.loc	1 129 1 is_stmt 1       # vlasovsolver/cpu_moments.cpp:129:1
	vmovss	(%r12,%rdi), %xmm2      # xmm2 = mem[0],zero,zero,zero
	.loc	1 124 1                 # vlasovsolver/cpu_moments.cpp:124:1
	vmovss	4(%r12,%rdi), %xmm3     # xmm3 = mem[0],zero,zero,zero
	.loc	1 129 1                 # vlasovsolver/cpu_moments.cpp:129:1
	vcvtss2sd	%xmm2, %xmm2, %xmm2
	vmovsd	%xmm2, 584(%rsp)        # 8-byte Spill
	.loc	1 131 1                 # vlasovsolver/cpu_moments.cpp:131:1
	vmulsd	%xmm2, %xmm1, %xmm2
	.loc	1 124 1                 # vlasovsolver/cpu_moments.cpp:124:1
	vcvtss2sd	%xmm3, %xmm3, %xmm4
	vmovsd	%xmm4, 384(%rsp)        # 8-byte Spill
	vmovss	8(%r12,%rdi), %xmm3     # xmm3 = mem[0],zero,zero,zero
	vcvtss2sd	%xmm3, %xmm3, %xmm5
	vmovsd	%xmm5, 128(%rsp)        # 8-byte Spill
	vxorpd	%xmm3, %xmm3, %xmm3
	.loc	1 131 1                 # vlasovsolver/cpu_moments.cpp:131:1
	vfmadd213sd	%xmm3, %xmm1, %xmm2 # xmm2 = (xmm1 * xmm2) + xmm3
	.loc	1 124 1                 # vlasovsolver/cpu_moments.cpp:124:1
	vmulsd	%xmm4, %xmm1, %xmm3
	vmulsd	%xmm5, %xmm1, %xmm4
	vmovss	12(%r12,%rdi), %xmm5    # xmm5 = mem[0],zero,zero,zero
	vcvtss2sd	%xmm5, %xmm5, %xmm5
	vmovsd	%xmm5, 672(%rsp)        # 8-byte Spill
	vfmadd213sd	%xmm2, %xmm1, %xmm3 # xmm3 = (xmm1 * xmm3) + xmm2
	vfmadd213sd	%xmm3, %xmm1, %xmm4 # xmm4 = (xmm1 * xmm4) + xmm3
	vmulsd	%xmm5, %xmm1, %xmm2
	.loc	1 129 1                 # vlasovsolver/cpu_moments.cpp:129:1
	vmovss	16(%r12,%rdi), %xmm3    # xmm3 = mem[0],zero,zero,zero
	vcvtss2sd	%xmm3, %xmm3, %xmm3
	vmovsd	%xmm3, 104(%rsp)        # 8-byte Spill
	.loc	1 124 1                 # vlasovsolver/cpu_moments.cpp:124:1
	vfmadd213sd	%xmm4, %xmm1, %xmm2 # xmm2 = (xmm1 * xmm2) + xmm4
	.loc	1 131 1                 # vlasovsolver/cpu_moments.cpp:131:1
	vmulsd	%xmm3, %xmm1, %xmm3
	.loc	1 124 1                 # vlasovsolver/cpu_moments.cpp:124:1
	vmovss	20(%r12,%rdi), %xmm4    # xmm4 = mem[0],zero,zero,zero
	vcvtss2sd	%xmm4, %xmm4, %xmm4
	vmovsd	%xmm4, 96(%rsp)         # 8-byte Spill
	vmulsd	%xmm4, %xmm1, %xmm4
	.loc	1 131 1                 # vlasovsolver/cpu_moments.cpp:131:1
	vfmadd213sd	%xmm2, %xmm1, %xmm3 # xmm3 = (xmm1 * xmm3) + xmm2
	.loc	1 124 1                 # vlasovsolver/cpu_moments.cpp:124:1
	vfmadd213sd	%xmm3, %xmm1, %xmm4 # xmm4 = (xmm1 * xmm4) + xmm3
	vmovss	24(%r12,%rdi), %xmm2    # xmm2 = mem[0],zero,zero,zero
	vcvtss2sd	%xmm2, %xmm2, %xmm2
	vmovsd	%xmm2, 88(%rsp)         # 8-byte Spill
	vmulsd	%xmm2, %xmm1, %xmm2
	vfmadd213sd	%xmm4, %xmm1, %xmm2 # xmm2 = (xmm1 * xmm2) + xmm4
	vmovss	28(%r12,%rdi), %xmm3    # xmm3 = mem[0],zero,zero,zero
	vcvtss2sd	%xmm3, %xmm3, %xmm3
	vmovsd	%xmm3, 416(%rsp)        # 8-byte Spill
	vmulsd	%xmm3, %xmm1, %xmm3
	vfmadd213sd	%xmm2, %xmm1, %xmm3 # xmm3 = (xmm1 * xmm3) + xmm2
	.loc	1 129 1                 # vlasovsolver/cpu_moments.cpp:129:1
	vmovss	32(%r12,%rdi), %xmm2    # xmm2 = mem[0],zero,zero,zero
	vcvtss2sd	%xmm2, %xmm2, %xmm4
	vmovsd	%xmm4, 80(%rsp)         # 8-byte Spill
	.loc	1 124 1                 # vlasovsolver/cpu_moments.cpp:124:1
	vmovss	36(%r12,%rdi), %xmm2    # xmm2 = mem[0],zero,zero,zero
	vcvtss2sd	%xmm2, %xmm2, %xmm5
	vmovsd	%xmm5, 72(%rsp)         # 8-byte Spill
	.loc	1 131 1                 # vlasovsolver/cpu_moments.cpp:131:1
	vmulsd	%xmm4, %xmm1, %xmm2
	vfmadd213sd	%xmm3, %xmm1, %xmm2 # xmm2 = (xmm1 * xmm2) + xmm3
	.loc	1 124 1                 # vlasovsolver/cpu_moments.cpp:124:1
	vmulsd	%xmm5, %xmm1, %xmm3
	vfmadd213sd	%xmm2, %xmm1, %xmm3 # xmm3 = (xmm1 * xmm3) + xmm2
	vmovss	40(%r12,%rdi), %xmm2    # xmm2 = mem[0],zero,zero,zero
	vcvtss2sd	%xmm2, %xmm2, %xmm2
	vmovsd	%xmm2, 64(%rsp)         # 8-byte Spill
	vmulsd	%xmm2, %xmm1, %xmm2
	vfmadd213sd	%xmm3, %xmm1, %xmm2 # xmm2 = (xmm1 * xmm2) + xmm3
	vmovss	44(%r12,%rdi), %xmm3    # xmm3 = mem[0],zero,zero,zero
	vcvtss2sd	%xmm3, %xmm3, %xmm3
	vmovsd	%xmm3, 56(%rsp)         # 8-byte Spill
	vmulsd	%xmm3, %xmm1, %xmm3
	vfmadd213sd	%xmm2, %xmm1, %xmm3 # xmm3 = (xmm1 * xmm3) + xmm2
	.loc	1 129 1                 # vlasovsolver/cpu_moments.cpp:129:1
	vmovss	48(%r12,%rdi), %xmm2    # xmm2 = mem[0],zero,zero,zero
	vcvtss2sd	%xmm2, %xmm2, %xmm2
	vmovsd	%xmm2, 376(%rsp)        # 8-byte Spill
	.loc	1 131 1                 # vlasovsolver/cpu_moments.cpp:131:1
	vmulsd	%xmm2, %xmm1, %xmm2
	vfmadd213sd	%xmm3, %xmm1, %xmm2 # xmm2 = (xmm1 * xmm2) + xmm3
	.loc	1 124 1                 # vlasovsolver/cpu_moments.cpp:124:1
	vmovss	52(%r12,%rdi), %xmm3    # xmm3 = mem[0],zero,zero,zero
	vcvtss2sd	%xmm3, %xmm3, %xmm3
	vmovsd	%xmm3, 368(%rsp)        # 8-byte Spill
	vmulsd	%xmm3, %xmm1, %xmm3
	vfmadd213sd	%xmm2, %xmm1, %xmm3 # xmm3 = (xmm1 * xmm3) + xmm2
	vmovss	56(%r12,%rdi), %xmm2    # xmm2 = mem[0],zero,zero,zero
	vcvtss2sd	%xmm2, %xmm2, %xmm4
	vmovsd	%xmm4, 360(%rsp)        # 8-byte Spill
	vmovss	60(%r12,%rdi), %xmm2    # xmm2 = mem[0],zero,zero,zero
	vcvtss2sd	%xmm2, %xmm2, %xmm5
	vmovsd	%xmm5, 352(%rsp)        # 8-byte Spill
	vmulsd	%xmm4, %xmm1, %xmm2
	vfmadd213sd	%xmm3, %xmm1, %xmm2 # xmm2 = (xmm1 * xmm2) + xmm3
	vmulsd	%xmm5, %xmm1, %xmm3
	vfmadd213sd	%xmm2, %xmm1, %xmm3 # xmm3 = (xmm1 * xmm3) + xmm2
	vmovsd	.LCPI1_2(%rip), %xmm1   # xmm1 = mem[0],zero
	vmovapd	%xmm7, 656(%rsp)        # 16-byte Spill
	vfmadd213sd	%xmm0, %xmm7, %xmm1 # xmm1 = (xmm7 * xmm1) + xmm0
	.loc	1 0 0 is_stmt 0         # vlasovsolver/cpu_moments.cpp:0:0
	vsubsd	%xmm6, %xmm1, %xmm1
	.loc	1 124 1                 # vlasovsolver/cpu_moments.cpp:124:1
	vmovss	64(%r12,%rdi), %xmm2    # xmm2 = mem[0],zero,zero,zero
	vcvtss2sd	%xmm2, %xmm2, %xmm4
	vmovsd	%xmm4, 344(%rsp)        # 8-byte Spill
	vmovss	68(%r12,%rdi), %xmm2    # xmm2 = mem[0],zero,zero,zero
	vcvtss2sd	%xmm2, %xmm2, %xmm5
	vmovsd	%xmm5, 336(%rsp)        # 8-byte Spill
	vmulsd	%xmm4, %xmm1, %xmm2
	vfmadd213sd	%xmm3, %xmm1, %xmm2 # xmm2 = (xmm1 * xmm2) + xmm3
	vmulsd	%xmm5, %xmm1, %xmm3
	vfmadd213sd	%xmm2, %xmm1, %xmm3 # xmm3 = (xmm1 * xmm3) + xmm2
	vmovss	72(%r12,%rdi), %xmm2    # xmm2 = mem[0],zero,zero,zero
	vcvtss2sd	%xmm2, %xmm2, %xmm2
	vmovsd	%xmm2, 328(%rsp)        # 8-byte Spill
	vmulsd	%xmm2, %xmm1, %xmm2
	vfmadd213sd	%xmm3, %xmm1, %xmm2 # xmm2 = (xmm1 * xmm2) + xmm3
	vmovss	76(%r12,%rdi), %xmm3    # xmm3 = mem[0],zero,zero,zero
	vcvtss2sd	%xmm3, %xmm3, %xmm3
	vmovsd	%xmm3, 320(%rsp)        # 8-byte Spill
	vmulsd	%xmm3, %xmm1, %xmm3
	vfmadd213sd	%xmm2, %xmm1, %xmm3 # xmm3 = (xmm1 * xmm3) + xmm2
	vmovss	80(%r12,%rdi), %xmm2    # xmm2 = mem[0],zero,zero,zero
	vcvtss2sd	%xmm2, %xmm2, %xmm2
	vmovsd	%xmm2, 312(%rsp)        # 8-byte Spill
	vmulsd	%xmm2, %xmm1, %xmm2
	vfmadd213sd	%xmm3, %xmm1, %xmm2 # xmm2 = (xmm1 * xmm2) + xmm3
	vmovss	84(%r12,%rdi), %xmm3    # xmm3 = mem[0],zero,zero,zero
	vcvtss2sd	%xmm3, %xmm3, %xmm3
	vmovsd	%xmm3, 304(%rsp)        # 8-byte Spill
	vmulsd	%xmm3, %xmm1, %xmm3
	vfmadd213sd	%xmm2, %xmm1, %xmm3 # xmm3 = (xmm1 * xmm3) + xmm2
	vmovss	88(%r12,%rdi), %xmm2    # xmm2 = mem[0],zero,zero,zero
	vcvtss2sd	%xmm2, %xmm2, %xmm4
	vmovsd	%xmm4, 296(%rsp)        # 8-byte Spill
	vmovss	92(%r12,%rdi), %xmm2    # xmm2 = mem[0],zero,zero,zero
	vcvtss2sd	%xmm2, %xmm2, %xmm5
	vmovsd	%xmm5, 288(%rsp)        # 8-byte Spill
	vmulsd	%xmm4, %xmm1, %xmm2
	vfmadd213sd	%xmm3, %xmm1, %xmm2 # xmm2 = (xmm1 * xmm2) + xmm3
	vmulsd	%xmm5, %xmm1, %xmm3
	vfmadd213sd	%xmm2, %xmm1, %xmm3 # xmm3 = (xmm1 * xmm3) + xmm2
	vmovss	96(%r12,%rdi), %xmm2    # xmm2 = mem[0],zero,zero,zero
	vcvtss2sd	%xmm2, %xmm2, %xmm2
	vmovsd	%xmm2, 280(%rsp)        # 8-byte Spill
	vmulsd	%xmm2, %xmm1, %xmm2
	vfmadd213sd	%xmm3, %xmm1, %xmm2 # xmm2 = (xmm1 * xmm2) + xmm3
	vmovss	100(%r12,%rdi), %xmm3   # xmm3 = mem[0],zero,zero,zero
	vcvtss2sd	%xmm3, %xmm3, %xmm3
	vmovsd	%xmm3, 272(%rsp)        # 8-byte Spill
	vmulsd	%xmm3, %xmm1, %xmm3
	vfmadd213sd	%xmm2, %xmm1, %xmm3 # xmm3 = (xmm1 * xmm3) + xmm2
	vmovss	104(%r12,%rdi), %xmm2   # xmm2 = mem[0],zero,zero,zero
	vcvtss2sd	%xmm2, %xmm2, %xmm2
	vmovsd	%xmm2, 264(%rsp)        # 8-byte Spill
	vmulsd	%xmm2, %xmm1, %xmm2
	vfmadd213sd	%xmm3, %xmm1, %xmm2 # xmm2 = (xmm1 * xmm2) + xmm3
	vmovss	108(%r12,%rdi), %xmm3   # xmm3 = mem[0],zero,zero,zero
	vcvtss2sd	%xmm3, %xmm3, %xmm3
	vmovsd	%xmm3, 256(%rsp)        # 8-byte Spill
	vmulsd	%xmm3, %xmm1, %xmm3
	vfmadd213sd	%xmm2, %xmm1, %xmm3 # xmm3 = (xmm1 * xmm3) + xmm2
	vmovss	112(%r12,%rdi), %xmm2   # xmm2 = mem[0],zero,zero,zero
	vcvtss2sd	%xmm2, %xmm2, %xmm4
	vmovsd	%xmm4, 248(%rsp)        # 8-byte Spill
	vmovss	116(%r12,%rdi), %xmm2   # xmm2 = mem[0],zero,zero,zero
	vcvtss2sd	%xmm2, %xmm2, %xmm5
	vmovsd	%xmm5, 240(%rsp)        # 8-byte Spill
	vmulsd	%xmm4, %xmm1, %xmm2
	vfmadd213sd	%xmm3, %xmm1, %xmm2 # xmm2 = (xmm1 * xmm2) + xmm3
	vmulsd	%xmm5, %xmm1, %xmm3
	vfmadd213sd	%xmm2, %xmm1, %xmm3 # xmm3 = (xmm1 * xmm3) + xmm2
	vmovss	120(%r12,%rdi), %xmm2   # xmm2 = mem[0],zero,zero,zero
	vcvtss2sd	%xmm2, %xmm2, %xmm2
	vmovsd	%xmm2, 232(%rsp)        # 8-byte Spill
	vmulsd	%xmm2, %xmm1, %xmm2
	vfmadd213sd	%xmm3, %xmm1, %xmm2 # xmm2 = (xmm1 * xmm2) + xmm3
	vmovss	124(%r12,%rdi), %xmm3   # xmm3 = mem[0],zero,zero,zero
	vcvtss2sd	%xmm3, %xmm3, %xmm3
	vmovsd	%xmm3, 224(%rsp)        # 8-byte Spill
	vmulsd	%xmm3, %xmm1, %xmm3
	vfmadd213sd	%xmm2, %xmm1, %xmm3 # xmm3 = (xmm1 * xmm3) + xmm2
	vmovsd	.LCPI1_1(%rip), %xmm12  # xmm12 = mem[0],zero
	vfmadd231sd	%xmm12, %xmm7, %xmm0 # xmm0 = (xmm7 * xmm12) + xmm0
	vmovss	128(%r12,%rdi), %xmm1   # xmm1 = mem[0],zero,zero,zero
	vcvtss2sd	%xmm1, %xmm1, %xmm1
	vmovsd	%xmm1, 216(%rsp)        # 8-byte Spill
	.loc	1 0 0                   # vlasovsolver/cpu_moments.cpp:0:0
	vsubsd	%xmm6, %xmm0, %xmm6
	.loc	1 124 1                 # vlasovsolver/cpu_moments.cpp:124:1
	vmulsd	%xmm1, %xmm6, %xmm0
	vfmadd213sd	%xmm3, %xmm6, %xmm0 # xmm0 = (xmm6 * xmm0) + xmm3
	vmovss	132(%r12,%rdi), %xmm1   # xmm1 = mem[0],zero,zero,zero
	vcvtss2sd	%xmm1, %xmm1, %xmm1
	vmovsd	%xmm1, 208(%rsp)        # 8-byte Spill
	vmulsd	%xmm1, %xmm6, %xmm1
	vfmadd213sd	%xmm0, %xmm6, %xmm1 # xmm1 = (xmm6 * xmm1) + xmm0
	vmovss	136(%r12,%rdi), %xmm0   # xmm0 = mem[0],zero,zero,zero
	vcvtss2sd	%xmm0, %xmm0, %xmm0
	vmovsd	%xmm0, 200(%rsp)        # 8-byte Spill
	vmulsd	%xmm0, %xmm6, %xmm0
	vfmadd213sd	%xmm1, %xmm6, %xmm0 # xmm0 = (xmm6 * xmm0) + xmm1
	vmovss	140(%r12,%rdi), %xmm1   # xmm1 = mem[0],zero,zero,zero
	vcvtss2sd	%xmm1, %xmm1, %xmm1
	vmovsd	%xmm1, 184(%rsp)        # 8-byte Spill
	vmulsd	%xmm1, %xmm6, %xmm1
	vfmadd213sd	%xmm0, %xmm6, %xmm1 # xmm1 = (xmm6 * xmm1) + xmm0
	vmovss	144(%r12,%rdi), %xmm0   # xmm0 = mem[0],zero,zero,zero
	vcvtss2sd	%xmm0, %xmm0, %xmm2
	vmovsd	%xmm2, 192(%rsp)        # 8-byte Spill
	vmovss	148(%r12,%rdi), %xmm0   # xmm0 = mem[0],zero,zero,zero
	vcvtss2sd	%xmm0, %xmm0, %xmm3
	vmovsd	%xmm3, 176(%rsp)        # 8-byte Spill
	vmulsd	%xmm2, %xmm6, %xmm0
	vfmadd213sd	%xmm1, %xmm6, %xmm0 # xmm0 = (xmm6 * xmm0) + xmm1
	vmulsd	%xmm3, %xmm6, %xmm1
	vfmadd213sd	%xmm0, %xmm6, %xmm1 # xmm1 = (xmm6 * xmm1) + xmm0
	vmovss	152(%r12,%rdi), %xmm0   # xmm0 = mem[0],zero,zero,zero
	vcvtss2sd	%xmm0, %xmm0, %xmm0
	vmovsd	%xmm0, 168(%rsp)        # 8-byte Spill
	vmulsd	%xmm0, %xmm6, %xmm0
	vfmadd213sd	%xmm1, %xmm6, %xmm0 # xmm0 = (xmm6 * xmm0) + xmm1
	vmovss	156(%r12,%rdi), %xmm1   # xmm1 = mem[0],zero,zero,zero
	vcvtss2sd	%xmm1, %xmm1, %xmm1
	vmovsd	%xmm1, 160(%rsp)        # 8-byte Spill
	vmulsd	%xmm1, %xmm6, %xmm1
	vfmadd213sd	%xmm0, %xmm6, %xmm1 # xmm1 = (xmm6 * xmm1) + xmm0
	vmovss	160(%r12,%rdi), %xmm0   # xmm0 = mem[0],zero,zero,zero
	vcvtss2sd	%xmm0, %xmm0, %xmm0
	vmovsd	%xmm0, 152(%rsp)        # 8-byte Spill
	vmulsd	%xmm0, %xmm6, %xmm0
	vfmadd213sd	%xmm1, %xmm6, %xmm0 # xmm0 = (xmm6 * xmm0) + xmm1
	vmovss	164(%r12,%rdi), %xmm1   # xmm1 = mem[0],zero,zero,zero
	vcvtss2sd	%xmm1, %xmm1, %xmm15
	vmulsd	%xmm15, %xmm6, %xmm1
	vmovsd	%xmm15, 568(%rsp)       # 8-byte Spill
	vfmadd213sd	%xmm0, %xmm6, %xmm1 # xmm1 = (xmm6 * xmm1) + xmm0
	vmovss	168(%r12,%rdi), %xmm0   # xmm0 = mem[0],zero,zero,zero
	vcvtss2sd	%xmm0, %xmm0, %xmm14
	vmovss	172(%r12,%rdi), %xmm0   # xmm0 = mem[0],zero,zero,zero
	vcvtss2sd	%xmm0, %xmm0, %xmm12
	vmulsd	%xmm14, %xmm6, %xmm0
	vmovsd	%xmm14, 560(%rsp)       # 8-byte Spill
	vfmadd213sd	%xmm1, %xmm6, %xmm0 # xmm0 = (xmm6 * xmm0) + xmm1
	vmulsd	%xmm12, %xmm6, %xmm1
	vmovsd	%xmm12, 552(%rsp)       # 8-byte Spill
	vfmadd213sd	%xmm0, %xmm6, %xmm1 # xmm1 = (xmm6 * xmm1) + xmm0
	vmovss	176(%r12,%rdi), %xmm0   # xmm0 = mem[0],zero,zero,zero
	vcvtss2sd	%xmm0, %xmm0, %xmm11
	vmulsd	%xmm11, %xmm6, %xmm0
	vmovsd	%xmm11, 544(%rsp)       # 8-byte Spill
	vfmadd213sd	%xmm1, %xmm6, %xmm0 # xmm0 = (xmm6 * xmm0) + xmm1
	vmovss	180(%r12,%rdi), %xmm1   # xmm1 = mem[0],zero,zero,zero
	vcvtss2sd	%xmm1, %xmm1, %xmm10
	vmulsd	%xmm10, %xmm6, %xmm1
	vmovsd	%xmm10, 536(%rsp)       # 8-byte Spill
	vfmadd213sd	%xmm0, %xmm6, %xmm1 # xmm1 = (xmm6 * xmm1) + xmm0
	vmovss	184(%r12,%rdi), %xmm0   # xmm0 = mem[0],zero,zero,zero
	vcvtss2sd	%xmm0, %xmm0, %xmm9
	vmulsd	%xmm9, %xmm6, %xmm0
	vmovsd	%xmm9, 528(%rsp)        # 8-byte Spill
	vfmadd213sd	%xmm1, %xmm6, %xmm0 # xmm0 = (xmm6 * xmm0) + xmm1
	vmovss	188(%r12,%rdi), %xmm1   # xmm1 = mem[0],zero,zero,zero
	vcvtss2sd	%xmm1, %xmm1, %xmm8
	vmulsd	%xmm8, %xmm6, %xmm2
	vmovsd	%xmm8, 520(%rsp)        # 8-byte Spill
	vfmadd213sd	%xmm0, %xmm6, %xmm2 # xmm2 = (xmm6 * xmm2) + xmm0
	vmovsd	%xmm2, 576(%rsp)        # 8-byte Spill
	.loc	1 0 0                   # vlasovsolver/cpu_moments.cpp:0:0
	vmovsd	32(%r13,%rax,8), %xmm1  # xmm1 = mem[0],zero
	.loc	1 125 1 is_stmt 1       # vlasovsolver/cpu_moments.cpp:125:1
	vmovsd	.LCPI1_3(%rip), %xmm0   # xmm0 = mem[0],zero
	vmovapd	464(%rsp), %xmm4        # 16-byte Reload
	vfmadd213sd	%xmm4, %xmm1, %xmm0 # xmm0 = (xmm1 * xmm0) + xmm4
	vmovapd	736(%rsp), %xmm5        # 16-byte Reload
	.loc	1 130 1                 # vlasovsolver/cpu_moments.cpp:130:1
	vsubsd	%xmm5, %xmm0, %xmm0
	vmovsd	584(%rsp), %xmm13       # 8-byte Reload
                                        # xmm13 = mem[0],zero
	vmulsd	%xmm13, %xmm0, %xmm2
	vfmadd213sd	.LCPI1_8, %xmm0, %xmm2 # xmm2 = (xmm0 * xmm2) + mem
	.loc	1 124 1                 # vlasovsolver/cpu_moments.cpp:124:1
	vmulsd	384(%rsp), %xmm0, %xmm3 # 8-byte Folded Reload
	vfmadd213sd	%xmm2, %xmm0, %xmm3 # xmm3 = (xmm0 * xmm3) + xmm2
	vmulsd	128(%rsp), %xmm0, %xmm2 # 8-byte Folded Reload
	vfmadd213sd	%xmm3, %xmm0, %xmm2 # xmm2 = (xmm0 * xmm2) + xmm3
	vmulsd	672(%rsp), %xmm0, %xmm3 # 8-byte Folded Reload
	vfmadd213sd	%xmm2, %xmm0, %xmm3 # xmm3 = (xmm0 * xmm3) + xmm2
	.loc	1 125 1                 # vlasovsolver/cpu_moments.cpp:125:1
	vmovsd	.LCPI1_2(%rip), %xmm2   # xmm2 = mem[0],zero
	vfmadd213sd	%xmm4, %xmm1, %xmm2 # xmm2 = (xmm1 * xmm2) + xmm4
	.loc	1 130 1                 # vlasovsolver/cpu_moments.cpp:130:1
	vsubsd	%xmm5, %xmm2, %xmm7
	vmulsd	104(%rsp), %xmm7, %xmm2 # 8-byte Folded Reload
	vfmadd213sd	%xmm3, %xmm7, %xmm2 # xmm2 = (xmm7 * xmm2) + xmm3
	.loc	1 124 1                 # vlasovsolver/cpu_moments.cpp:124:1
	vmulsd	96(%rsp), %xmm7, %xmm3  # 8-byte Folded Reload
	vfmadd213sd	%xmm2, %xmm7, %xmm3 # xmm3 = (xmm7 * xmm3) + xmm2
	vmulsd	88(%rsp), %xmm7, %xmm2  # 8-byte Folded Reload
	vfmadd213sd	%xmm3, %xmm7, %xmm2 # xmm2 = (xmm7 * xmm2) + xmm3
	vmulsd	416(%rsp), %xmm7, %xmm3 # 8-byte Folded Reload
	vfmadd213sd	%xmm2, %xmm7, %xmm3 # xmm3 = (xmm7 * xmm3) + xmm2
	.loc	1 125 1                 # vlasovsolver/cpu_moments.cpp:125:1
	vmovsd	.LCPI1_1(%rip), %xmm2   # xmm2 = mem[0],zero
	vfmadd213sd	%xmm4, %xmm1, %xmm2 # xmm2 = (xmm1 * xmm2) + xmm4
	vmovapd	%xmm4, %xmm6
	.loc	1 130 1                 # vlasovsolver/cpu_moments.cpp:130:1
	vsubsd	%xmm5, %xmm2, %xmm2
	vmulsd	80(%rsp), %xmm2, %xmm4  # 8-byte Folded Reload
	vfmadd213sd	%xmm3, %xmm2, %xmm4 # xmm4 = (xmm2 * xmm4) + xmm3
	.loc	1 124 1                 # vlasovsolver/cpu_moments.cpp:124:1
	vmulsd	72(%rsp), %xmm2, %xmm3  # 8-byte Folded Reload
	vfmadd213sd	%xmm4, %xmm2, %xmm3 # xmm3 = (xmm2 * xmm3) + xmm4
	vmulsd	64(%rsp), %xmm2, %xmm4  # 8-byte Folded Reload
	vfmadd213sd	%xmm3, %xmm2, %xmm4 # xmm4 = (xmm2 * xmm4) + xmm3
	vmulsd	56(%rsp), %xmm2, %xmm3  # 8-byte Folded Reload
	vfmadd213sd	%xmm4, %xmm2, %xmm3 # xmm3 = (xmm2 * xmm3) + xmm4
	.loc	1 125 1                 # vlasovsolver/cpu_moments.cpp:125:1
	vunpcklpd	656(%rsp), %xmm1, %xmm1 # 16-byte Folded Reload
                                        # xmm1 = xmm1[0],mem[0]
	vfmadd132pd	.LCPI1_4(%rip), %xmm6, %xmm1 # xmm1 = (xmm1 * mem) + xmm6
	.loc	1 130 1                 # vlasovsolver/cpu_moments.cpp:130:1
	vsubpd	%xmm5, %xmm1, %xmm6
	vmulsd	376(%rsp), %xmm6, %xmm1 # 8-byte Folded Reload
	vfmadd213sd	%xmm3, %xmm6, %xmm1 # xmm1 = (xmm6 * xmm1) + xmm3
	.loc	1 124 1                 # vlasovsolver/cpu_moments.cpp:124:1
	vmulsd	368(%rsp), %xmm6, %xmm3 # 8-byte Folded Reload
	vfmadd213sd	%xmm1, %xmm6, %xmm3 # xmm3 = (xmm6 * xmm3) + xmm1
	vmulsd	360(%rsp), %xmm6, %xmm1 # 8-byte Folded Reload
	vfmadd213sd	%xmm3, %xmm6, %xmm1 # xmm1 = (xmm6 * xmm1) + xmm3
	vmulsd	352(%rsp), %xmm6, %xmm3 # 8-byte Folded Reload
	vfmadd213sd	%xmm1, %xmm6, %xmm3 # xmm3 = (xmm6 * xmm3) + xmm1
	vmulsd	344(%rsp), %xmm0, %xmm1 # 8-byte Folded Reload
	vfmadd213sd	%xmm3, %xmm0, %xmm1 # xmm1 = (xmm0 * xmm1) + xmm3
	vmulsd	336(%rsp), %xmm0, %xmm3 # 8-byte Folded Reload
	vfmadd213sd	%xmm1, %xmm0, %xmm3 # xmm3 = (xmm0 * xmm3) + xmm1
	vmulsd	328(%rsp), %xmm0, %xmm1 # 8-byte Folded Reload
	vfmadd213sd	%xmm3, %xmm0, %xmm1 # xmm1 = (xmm0 * xmm1) + xmm3
	vmulsd	320(%rsp), %xmm0, %xmm3 # 8-byte Folded Reload
	vfmadd213sd	%xmm1, %xmm0, %xmm3 # xmm3 = (xmm0 * xmm3) + xmm1
	vmulsd	312(%rsp), %xmm7, %xmm1 # 8-byte Folded Reload
	vfmadd213sd	%xmm3, %xmm7, %xmm1 # xmm1 = (xmm7 * xmm1) + xmm3
	vmulsd	304(%rsp), %xmm7, %xmm3 # 8-byte Folded Reload
	vfmadd213sd	%xmm1, %xmm7, %xmm3 # xmm3 = (xmm7 * xmm3) + xmm1
	vmulsd	296(%rsp), %xmm7, %xmm1 # 8-byte Folded Reload
	vfmadd213sd	%xmm3, %xmm7, %xmm1 # xmm1 = (xmm7 * xmm1) + xmm3
	vmulsd	288(%rsp), %xmm7, %xmm3 # 8-byte Folded Reload
	vfmadd213sd	%xmm1, %xmm7, %xmm3 # xmm3 = (xmm7 * xmm3) + xmm1
	vmulsd	280(%rsp), %xmm2, %xmm1 # 8-byte Folded Reload
	vfmadd213sd	%xmm3, %xmm2, %xmm1 # xmm1 = (xmm2 * xmm1) + xmm3
	vmulsd	272(%rsp), %xmm2, %xmm3 # 8-byte Folded Reload
	vfmadd213sd	%xmm1, %xmm2, %xmm3 # xmm3 = (xmm2 * xmm3) + xmm1
	vmulsd	264(%rsp), %xmm2, %xmm1 # 8-byte Folded Reload
	vfmadd213sd	%xmm3, %xmm2, %xmm1 # xmm1 = (xmm2 * xmm1) + xmm3
	vmulsd	256(%rsp), %xmm2, %xmm3 # 8-byte Folded Reload
	vfmadd213sd	%xmm1, %xmm2, %xmm3 # xmm3 = (xmm2 * xmm3) + xmm1
	vmulsd	248(%rsp), %xmm6, %xmm1 # 8-byte Folded Reload
	vfmadd213sd	%xmm3, %xmm6, %xmm1 # xmm1 = (xmm6 * xmm1) + xmm3
	vmulsd	240(%rsp), %xmm6, %xmm3 # 8-byte Folded Reload
	vfmadd213sd	%xmm1, %xmm6, %xmm3 # xmm3 = (xmm6 * xmm3) + xmm1
	vmulsd	232(%rsp), %xmm6, %xmm1 # 8-byte Folded Reload
	vfmadd213sd	%xmm3, %xmm6, %xmm1 # xmm1 = (xmm6 * xmm1) + xmm3
	vmulsd	224(%rsp), %xmm6, %xmm3 # 8-byte Folded Reload
	vfmadd213sd	%xmm1, %xmm6, %xmm3 # xmm3 = (xmm6 * xmm3) + xmm1
	vmulsd	216(%rsp), %xmm0, %xmm1 # 8-byte Folded Reload
	vfmadd213sd	%xmm3, %xmm0, %xmm1 # xmm1 = (xmm0 * xmm1) + xmm3
	vmulsd	208(%rsp), %xmm0, %xmm3 # 8-byte Folded Reload
	vfmadd213sd	%xmm1, %xmm0, %xmm3 # xmm3 = (xmm0 * xmm3) + xmm1
	vmulsd	200(%rsp), %xmm0, %xmm1 # 8-byte Folded Reload
	vfmadd213sd	%xmm3, %xmm0, %xmm1 # xmm1 = (xmm0 * xmm1) + xmm3
	vmulsd	184(%rsp), %xmm0, %xmm3 # 8-byte Folded Reload
	vfmadd213sd	%xmm1, %xmm0, %xmm3 # xmm3 = (xmm0 * xmm3) + xmm1
	vmulsd	192(%rsp), %xmm7, %xmm1 # 8-byte Folded Reload
	vfmadd213sd	%xmm3, %xmm7, %xmm1 # xmm1 = (xmm7 * xmm1) + xmm3
	vmulsd	176(%rsp), %xmm7, %xmm3 # 8-byte Folded Reload
	vfmadd213sd	%xmm1, %xmm7, %xmm3 # xmm3 = (xmm7 * xmm3) + xmm1
	vmulsd	168(%rsp), %xmm7, %xmm1 # 8-byte Folded Reload
	vfmadd213sd	%xmm3, %xmm7, %xmm1 # xmm1 = (xmm7 * xmm1) + xmm3
	vmulsd	160(%rsp), %xmm7, %xmm3 # 8-byte Folded Reload
	vfmadd213sd	%xmm1, %xmm7, %xmm3 # xmm3 = (xmm7 * xmm3) + xmm1
	vmulsd	152(%rsp), %xmm2, %xmm1 # 8-byte Folded Reload
	vfmadd213sd	%xmm3, %xmm2, %xmm1 # xmm1 = (xmm2 * xmm1) + xmm3
	vmulsd	%xmm15, %xmm2, %xmm3
	vfmadd213sd	%xmm1, %xmm2, %xmm3 # xmm3 = (xmm2 * xmm3) + xmm1
	vmulsd	%xmm14, %xmm2, %xmm1
	vfmadd213sd	%xmm3, %xmm2, %xmm1 # xmm1 = (xmm2 * xmm1) + xmm3
	vmulsd	%xmm12, %xmm2, %xmm3
	vfmadd213sd	%xmm1, %xmm2, %xmm3 # xmm3 = (xmm2 * xmm3) + xmm1
	vmulsd	%xmm11, %xmm6, %xmm1
	vfmadd213sd	%xmm3, %xmm6, %xmm1 # xmm1 = (xmm6 * xmm1) + xmm3
	vmulsd	%xmm10, %xmm6, %xmm3
	vfmadd213sd	%xmm1, %xmm6, %xmm3 # xmm3 = (xmm6 * xmm3) + xmm1
	vmulsd	%xmm9, %xmm6, %xmm1
	vfmadd213sd	%xmm3, %xmm6, %xmm1 # xmm1 = (xmm6 * xmm1) + xmm3
	vmulsd	%xmm8, %xmm6, %xmm3
	vfmadd213sd	%xmm1, %xmm6, %xmm3 # xmm3 = (xmm6 * xmm3) + xmm1
	vmovss	192(%r12,%rdi), %xmm1   # xmm1 = mem[0],zero,zero,zero
	vcvtss2sd	%xmm1, %xmm1, %xmm1
	vmovsd	%xmm1, 464(%rsp)        # 8-byte Spill
	vmulsd	%xmm1, %xmm0, %xmm1
	vfmadd213sd	%xmm3, %xmm0, %xmm1 # xmm1 = (xmm0 * xmm1) + xmm3
	vmovss	196(%r12,%rdi), %xmm3   # xmm3 = mem[0],zero,zero,zero
	vcvtss2sd	%xmm3, %xmm3, %xmm5
	vmulsd	%xmm5, %xmm0, %xmm3
	vfmadd213sd	%xmm1, %xmm0, %xmm3 # xmm3 = (xmm0 * xmm3) + xmm1
	vmovss	200(%r12,%rdi), %xmm1   # xmm1 = mem[0],zero,zero,zero
	vcvtss2sd	%xmm1, %xmm1, %xmm1
	vmovsd	%xmm1, 512(%rsp)        # 8-byte Spill
	vmulsd	%xmm1, %xmm0, %xmm1
	vfmadd213sd	%xmm3, %xmm0, %xmm1 # xmm1 = (xmm0 * xmm1) + xmm3
	vmovss	204(%r12,%rdi), %xmm3   # xmm3 = mem[0],zero,zero,zero
	vcvtss2sd	%xmm3, %xmm3, %xmm3
	vmovsd	%xmm3, 504(%rsp)        # 8-byte Spill
	vmulsd	%xmm3, %xmm0, %xmm3
	vfmadd213sd	%xmm1, %xmm0, %xmm3 # xmm3 = (xmm0 * xmm3) + xmm1
	vmovss	208(%r12,%rdi), %xmm0   # xmm0 = mem[0],zero,zero,zero
	vcvtss2sd	%xmm0, %xmm0, %xmm1
	vmovsd	%xmm1, 496(%rsp)        # 8-byte Spill
	vmovss	212(%r12,%rdi), %xmm0   # xmm0 = mem[0],zero,zero,zero
	vcvtss2sd	%xmm0, %xmm0, %xmm15
	vmulsd	%xmm1, %xmm7, %xmm0
	vfmadd213sd	%xmm3, %xmm7, %xmm0 # xmm0 = (xmm7 * xmm0) + xmm3
	vmulsd	%xmm15, %xmm7, %xmm3
	vfmadd213sd	%xmm0, %xmm7, %xmm3 # xmm3 = (xmm7 * xmm3) + xmm0
	vmovss	216(%r12,%rdi), %xmm0   # xmm0 = mem[0],zero,zero,zero
	vcvtss2sd	%xmm0, %xmm0, %xmm9
	vmulsd	%xmm9, %xmm7, %xmm10
	vfmadd213sd	%xmm3, %xmm7, %xmm10 # xmm10 = (xmm7 * xmm10) + xmm3
	vmovss	220(%r12,%rdi), %xmm0   # xmm0 = mem[0],zero,zero,zero
	vcvtss2sd	%xmm0, %xmm0, %xmm8
	vmulsd	%xmm8, %xmm7, %xmm11
	vfmadd213sd	%xmm10, %xmm7, %xmm11 # xmm11 = (xmm7 * xmm11) + xmm10
	vmovsd	(%r13,%rax,8), %xmm7    # xmm7 = mem[0],zero
	vmovsd	24(%r13,%rdx,8), %xmm14 # xmm14 = mem[0],zero
	vmovsd	.LCPI1_1(%rip), %xmm12  # xmm12 = mem[0],zero
	vfmadd213sd	%xmm7, %xmm14, %xmm12 # xmm12 = (xmm14 * xmm12) + xmm7
	vmovsd	.LCPI1_2(%rip), %xmm10  # xmm10 = mem[0],zero
	vfmadd213sd	%xmm7, %xmm14, %xmm10 # xmm10 = (xmm14 * xmm10) + xmm7
	vmovapd	%xmm7, %xmm3
	vfmadd231sd	.LCPI1_3(%rip), %xmm14, %xmm7 # xmm7 = (xmm14 * mem) + xmm7
	vmovsd	488(%rsp), %xmm4        # 8-byte Reload
                                        # xmm4 = mem[0],zero
	.loc	1 0 0 is_stmt 0         # vlasovsolver/cpu_moments.cpp:0:0
	vsubsd	%xmm4, %xmm7, %xmm7
	vsubsd	%xmm4, %xmm10, %xmm10
	.loc	1 129 1 is_stmt 1       # vlasovsolver/cpu_moments.cpp:129:1
	vmulsd	%xmm13, %xmm7, %xmm13
	vfmadd213sd	.LCPI1_8, %xmm7, %xmm13 # xmm13 = (xmm7 * xmm13) + mem
	.loc	1 124 1                 # vlasovsolver/cpu_moments.cpp:124:1
	vmulsd	384(%rsp), %xmm10, %xmm0 # 8-byte Folded Reload
	vfmadd213sd	%xmm13, %xmm10, %xmm0 # xmm0 = (xmm10 * xmm0) + xmm13
	.loc	1 0 0 is_stmt 0         # vlasovsolver/cpu_moments.cpp:0:0
	vsubsd	%xmm4, %xmm12, %xmm13
	.loc	1 124 1                 # vlasovsolver/cpu_moments.cpp:124:1
	vmulsd	128(%rsp), %xmm13, %xmm1 # 8-byte Folded Reload
	vfmadd213sd	%xmm0, %xmm13, %xmm1 # xmm1 = (xmm13 * xmm1) + xmm0
	vfmadd231sd	.LCPI1_0(%rip), %xmm14, %xmm3 # xmm3 = (xmm14 * mem) + xmm3
	.loc	1 0 0                   # vlasovsolver/cpu_moments.cpp:0:0
	vsubsd	%xmm4, %xmm3, %xmm12
	.loc	1 124 1                 # vlasovsolver/cpu_moments.cpp:124:1
	vmulsd	672(%rsp), %xmm12, %xmm0 # 8-byte Folded Reload
	vfmadd213sd	%xmm1, %xmm12, %xmm0 # xmm0 = (xmm12 * xmm0) + xmm1
	.loc	1 129 1 is_stmt 1       # vlasovsolver/cpu_moments.cpp:129:1
	vmulsd	104(%rsp), %xmm7, %xmm1 # 8-byte Folded Reload
	vfmadd213sd	%xmm0, %xmm7, %xmm1 # xmm1 = (xmm7 * xmm1) + xmm0
	.loc	1 124 1                 # vlasovsolver/cpu_moments.cpp:124:1
	vmulsd	96(%rsp), %xmm10, %xmm0 # 8-byte Folded Reload
	vfmadd213sd	%xmm1, %xmm10, %xmm0 # xmm0 = (xmm10 * xmm0) + xmm1
	vmulsd	88(%rsp), %xmm13, %xmm1 # 8-byte Folded Reload
	vfmadd213sd	%xmm0, %xmm13, %xmm1 # xmm1 = (xmm13 * xmm1) + xmm0
	vmulsd	416(%rsp), %xmm12, %xmm0 # 8-byte Folded Reload
	vfmadd213sd	%xmm1, %xmm12, %xmm0 # xmm0 = (xmm12 * xmm0) + xmm1
	.loc	1 129 1                 # vlasovsolver/cpu_moments.cpp:129:1
	vmulsd	80(%rsp), %xmm7, %xmm1  # 8-byte Folded Reload
	vfmadd213sd	%xmm0, %xmm7, %xmm1 # xmm1 = (xmm7 * xmm1) + xmm0
	.loc	1 124 1                 # vlasovsolver/cpu_moments.cpp:124:1
	vmulsd	72(%rsp), %xmm10, %xmm0 # 8-byte Folded Reload
	vfmadd213sd	%xmm1, %xmm10, %xmm0 # xmm0 = (xmm10 * xmm0) + xmm1
	vmulsd	64(%rsp), %xmm13, %xmm1 # 8-byte Folded Reload
	vfmadd213sd	%xmm0, %xmm13, %xmm1 # xmm1 = (xmm13 * xmm1) + xmm0
	vmulsd	56(%rsp), %xmm12, %xmm0 # 8-byte Folded Reload
	vfmadd213sd	%xmm1, %xmm12, %xmm0 # xmm0 = (xmm12 * xmm0) + xmm1
	.loc	1 129 1                 # vlasovsolver/cpu_moments.cpp:129:1
	vmulsd	376(%rsp), %xmm7, %xmm1 # 8-byte Folded Reload
	vfmadd213sd	%xmm0, %xmm7, %xmm1 # xmm1 = (xmm7 * xmm1) + xmm0
	.loc	1 124 1                 # vlasovsolver/cpu_moments.cpp:124:1
	vmulsd	368(%rsp), %xmm10, %xmm0 # 8-byte Folded Reload
	vfmadd213sd	%xmm1, %xmm10, %xmm0 # xmm0 = (xmm10 * xmm0) + xmm1
	vmulsd	360(%rsp), %xmm13, %xmm1 # 8-byte Folded Reload
	vfmadd213sd	%xmm0, %xmm13, %xmm1 # xmm1 = (xmm13 * xmm1) + xmm0
	vmulsd	352(%rsp), %xmm12, %xmm0 # 8-byte Folded Reload
	vfmadd213sd	%xmm1, %xmm12, %xmm0 # xmm0 = (xmm12 * xmm0) + xmm1
	vmulsd	344(%rsp), %xmm7, %xmm1 # 8-byte Folded Reload
	vfmadd213sd	%xmm0, %xmm7, %xmm1 # xmm1 = (xmm7 * xmm1) + xmm0
	vmulsd	336(%rsp), %xmm10, %xmm0 # 8-byte Folded Reload
	vfmadd213sd	%xmm1, %xmm10, %xmm0 # xmm0 = (xmm10 * xmm0) + xmm1
	vmulsd	328(%rsp), %xmm13, %xmm1 # 8-byte Folded Reload
	vfmadd213sd	%xmm0, %xmm13, %xmm1 # xmm1 = (xmm13 * xmm1) + xmm0
	vmulsd	320(%rsp), %xmm12, %xmm0 # 8-byte Folded Reload
	vfmadd213sd	%xmm1, %xmm12, %xmm0 # xmm0 = (xmm12 * xmm0) + xmm1
	vmulsd	312(%rsp), %xmm7, %xmm1 # 8-byte Folded Reload
	vfmadd213sd	%xmm0, %xmm7, %xmm1 # xmm1 = (xmm7 * xmm1) + xmm0
	vmulsd	304(%rsp), %xmm10, %xmm0 # 8-byte Folded Reload
	vfmadd213sd	%xmm1, %xmm10, %xmm0 # xmm0 = (xmm10 * xmm0) + xmm1
	vmulsd	296(%rsp), %xmm13, %xmm1 # 8-byte Folded Reload
	vfmadd213sd	%xmm0, %xmm13, %xmm1 # xmm1 = (xmm13 * xmm1) + xmm0
	vmulsd	288(%rsp), %xmm12, %xmm0 # 8-byte Folded Reload
	vfmadd213sd	%xmm1, %xmm12, %xmm0 # xmm0 = (xmm12 * xmm0) + xmm1
	vmulsd	280(%rsp), %xmm7, %xmm1 # 8-byte Folded Reload
	vfmadd213sd	%xmm0, %xmm7, %xmm1 # xmm1 = (xmm7 * xmm1) + xmm0
	vmulsd	272(%rsp), %xmm10, %xmm0 # 8-byte Folded Reload
	vfmadd213sd	%xmm1, %xmm10, %xmm0 # xmm0 = (xmm10 * xmm0) + xmm1
	vmulsd	264(%rsp), %xmm13, %xmm1 # 8-byte Folded Reload
	vfmadd213sd	%xmm0, %xmm13, %xmm1 # xmm1 = (xmm13 * xmm1) + xmm0
	vmulsd	256(%rsp), %xmm12, %xmm0 # 8-byte Folded Reload
	vfmadd213sd	%xmm1, %xmm12, %xmm0 # xmm0 = (xmm12 * xmm0) + xmm1
	vmulsd	248(%rsp), %xmm7, %xmm1 # 8-byte Folded Reload
	vfmadd213sd	%xmm0, %xmm7, %xmm1 # xmm1 = (xmm7 * xmm1) + xmm0
	vmulsd	240(%rsp), %xmm10, %xmm0 # 8-byte Folded Reload
	vfmadd213sd	%xmm1, %xmm10, %xmm0 # xmm0 = (xmm10 * xmm0) + xmm1
	vmulsd	232(%rsp), %xmm13, %xmm1 # 8-byte Folded Reload
	vfmadd213sd	%xmm0, %xmm13, %xmm1 # xmm1 = (xmm13 * xmm1) + xmm0
	vmulsd	224(%rsp), %xmm12, %xmm0 # 8-byte Folded Reload
	vfmadd213sd	%xmm1, %xmm12, %xmm0 # xmm0 = (xmm12 * xmm0) + xmm1
	vmulsd	216(%rsp), %xmm7, %xmm1 # 8-byte Folded Reload
	vfmadd213sd	%xmm0, %xmm7, %xmm1 # xmm1 = (xmm7 * xmm1) + xmm0
	vmulsd	208(%rsp), %xmm10, %xmm0 # 8-byte Folded Reload
	vfmadd213sd	%xmm1, %xmm10, %xmm0 # xmm0 = (xmm10 * xmm0) + xmm1
	vmulsd	200(%rsp), %xmm13, %xmm1 # 8-byte Folded Reload
	vfmadd213sd	%xmm0, %xmm13, %xmm1 # xmm1 = (xmm13 * xmm1) + xmm0
	vmulsd	184(%rsp), %xmm12, %xmm0 # 8-byte Folded Reload
	vfmadd213sd	%xmm1, %xmm12, %xmm0 # xmm0 = (xmm12 * xmm0) + xmm1
	vmulsd	192(%rsp), %xmm7, %xmm1 # 8-byte Folded Reload
	vfmadd213sd	%xmm0, %xmm7, %xmm1 # xmm1 = (xmm7 * xmm1) + xmm0
	vmulsd	176(%rsp), %xmm10, %xmm0 # 8-byte Folded Reload
	vfmadd213sd	%xmm1, %xmm10, %xmm0 # xmm0 = (xmm10 * xmm0) + xmm1
	vmulsd	168(%rsp), %xmm13, %xmm1 # 8-byte Folded Reload
	vfmadd213sd	%xmm0, %xmm13, %xmm1 # xmm1 = (xmm13 * xmm1) + xmm0
	vmulsd	160(%rsp), %xmm12, %xmm0 # 8-byte Folded Reload
	vfmadd213sd	%xmm1, %xmm12, %xmm0 # xmm0 = (xmm12 * xmm0) + xmm1
	vmulsd	152(%rsp), %xmm7, %xmm1 # 8-byte Folded Reload
	vfmadd213sd	%xmm0, %xmm7, %xmm1 # xmm1 = (xmm7 * xmm1) + xmm0
	vmulsd	568(%rsp), %xmm10, %xmm0 # 8-byte Folded Reload
	vfmadd213sd	%xmm1, %xmm10, %xmm0 # xmm0 = (xmm10 * xmm0) + xmm1
	vmulsd	560(%rsp), %xmm13, %xmm1 # 8-byte Folded Reload
	vfmadd213sd	%xmm0, %xmm13, %xmm1 # xmm1 = (xmm13 * xmm1) + xmm0
	vmulsd	552(%rsp), %xmm12, %xmm0 # 8-byte Folded Reload
	vfmadd213sd	%xmm1, %xmm12, %xmm0 # xmm0 = (xmm12 * xmm0) + xmm1
	vmulsd	544(%rsp), %xmm7, %xmm1 # 8-byte Folded Reload
	vfmadd213sd	%xmm0, %xmm7, %xmm1 # xmm1 = (xmm7 * xmm1) + xmm0
	vmulsd	536(%rsp), %xmm10, %xmm0 # 8-byte Folded Reload
	vfmadd213sd	%xmm1, %xmm10, %xmm0 # xmm0 = (xmm10 * xmm0) + xmm1
	vmulsd	528(%rsp), %xmm13, %xmm1 # 8-byte Folded Reload
	vfmadd213sd	%xmm0, %xmm13, %xmm1 # xmm1 = (xmm13 * xmm1) + xmm0
	vmulsd	520(%rsp), %xmm12, %xmm0 # 8-byte Folded Reload
	vfmadd213sd	%xmm1, %xmm12, %xmm0 # xmm0 = (xmm12 * xmm0) + xmm1
	vmovsd	464(%rsp), %xmm1        # 8-byte Reload
                                        # xmm1 = mem[0],zero
	vmulsd	%xmm1, %xmm7, %xmm4
	vfmadd213sd	%xmm0, %xmm7, %xmm4 # xmm4 = (xmm7 * xmm4) + xmm0
	vpermilpd	$1, %xmm6, %xmm0 # xmm0 = xmm6[1,0]
	vmulsd	%xmm1, %xmm0, %xmm3
	vfmadd213sd	576(%rsp), %xmm0, %xmm3 # 8-byte Folded Reload
                                        # xmm3 = (xmm0 * xmm3) + mem
	vmulsd	%xmm5, %xmm10, %xmm1
	vfmadd213sd	%xmm4, %xmm10, %xmm1 # xmm1 = (xmm10 * xmm1) + xmm4
	vmulsd	%xmm5, %xmm0, %xmm4
	vfmadd213sd	%xmm3, %xmm0, %xmm4 # xmm4 = (xmm0 * xmm4) + xmm3
	vmovsd	512(%rsp), %xmm5        # 8-byte Reload
                                        # xmm5 = mem[0],zero
	vmulsd	%xmm5, %xmm13, %xmm3
	vfmadd213sd	%xmm1, %xmm13, %xmm3 # xmm3 = (xmm13 * xmm3) + xmm1
	vmulsd	%xmm5, %xmm0, %xmm1
	vfmadd213sd	%xmm4, %xmm0, %xmm1 # xmm1 = (xmm0 * xmm1) + xmm4
	vmovsd	504(%rsp), %xmm5        # 8-byte Reload
                                        # xmm5 = mem[0],zero
	vmulsd	%xmm5, %xmm12, %xmm4
	vfmadd213sd	%xmm3, %xmm12, %xmm4 # xmm4 = (xmm12 * xmm4) + xmm3
	vmulsd	%xmm5, %xmm0, %xmm3
	vfmadd213sd	%xmm1, %xmm0, %xmm3 # xmm3 = (xmm0 * xmm3) + xmm1
	vmovsd	496(%rsp), %xmm5        # 8-byte Reload
                                        # xmm5 = mem[0],zero
	vmulsd	%xmm5, %xmm7, %xmm1
	vfmadd213sd	%xmm4, %xmm7, %xmm1 # xmm1 = (xmm7 * xmm1) + xmm4
	vmulsd	%xmm5, %xmm0, %xmm4
	vfmadd213sd	%xmm3, %xmm0, %xmm4 # xmm4 = (xmm0 * xmm4) + xmm3
	vmulsd	%xmm15, %xmm10, %xmm3
	vfmadd213sd	%xmm1, %xmm10, %xmm3 # xmm3 = (xmm10 * xmm3) + xmm1
	vmulsd	%xmm15, %xmm0, %xmm1
	vfmadd213sd	%xmm4, %xmm0, %xmm1 # xmm1 = (xmm0 * xmm1) + xmm4
	vmulsd	%xmm9, %xmm13, %xmm4
	vfmadd213sd	%xmm3, %xmm13, %xmm4 # xmm4 = (xmm13 * xmm4) + xmm3
	vmulsd	%xmm9, %xmm0, %xmm3
	vfmadd213sd	%xmm1, %xmm0, %xmm3 # xmm3 = (xmm0 * xmm3) + xmm1
	vmulsd	%xmm8, %xmm12, %xmm1
	vfmadd213sd	%xmm4, %xmm12, %xmm1 # xmm1 = (xmm12 * xmm1) + xmm4
	vmulsd	%xmm8, %xmm0, %xmm4
	vfmadd213sd	%xmm3, %xmm0, %xmm4 # xmm4 = (xmm0 * xmm4) + xmm3
	vmovss	224(%r12,%rdi), %xmm3   # xmm3 = mem[0],zero,zero,zero
	vcvtss2sd	%xmm3, %xmm3, %xmm3
	vmulsd	%xmm3, %xmm7, %xmm5
	vfmadd213sd	%xmm1, %xmm7, %xmm5 # xmm5 = (xmm7 * xmm5) + xmm1
	vmulsd	%xmm3, %xmm0, %xmm0
	vmulsd	%xmm3, %xmm2, %xmm1
	vunpcklpd	%xmm0, %xmm1, %xmm0 # xmm0 = xmm1[0],xmm0[0]
	vblendpd	$1, %xmm2, %xmm6, %xmm1 # xmm1 = xmm2[0],xmm6[1]
	vunpcklpd	%xmm4, %xmm11, %xmm2 # xmm2 = xmm11[0],xmm4[0]
	vfmadd213pd	%xmm2, %xmm1, %xmm0 # xmm0 = (xmm1 * xmm0) + xmm2
	vmovss	228(%r12,%rdi), %xmm2   # xmm2 = mem[0],zero,zero,zero
	vcvtss2sd	%xmm2, %xmm2, %xmm2
	vmulsd	%xmm2, %xmm10, %xmm3
	vfmadd213sd	%xmm5, %xmm10, %xmm3 # xmm3 = (xmm10 * xmm3) + xmm5
	vmovddup	%xmm2, %xmm2    # xmm2 = xmm2[0,0]
	vmulpd	%xmm2, %xmm1, %xmm2
	vmovss	232(%r12,%rdi), %xmm4   # xmm4 = mem[0],zero,zero,zero
	vcvtss2sd	%xmm4, %xmm4, %xmm4
	vfmadd213pd	%xmm0, %xmm1, %xmm2 # xmm2 = (xmm1 * xmm2) + xmm0
	vmulsd	%xmm4, %xmm13, %xmm0
	vfmadd213sd	%xmm3, %xmm13, %xmm0 # xmm0 = (xmm13 * xmm0) + xmm3
	vmovddup	%xmm4, %xmm3    # xmm3 = xmm4[0,0]
	vmulpd	%xmm3, %xmm1, %xmm3
	vmovss	236(%r12,%rdi), %xmm4   # xmm4 = mem[0],zero,zero,zero
	vfmadd213pd	%xmm2, %xmm1, %xmm3 # xmm3 = (xmm1 * xmm3) + xmm2
	vcvtss2sd	%xmm4, %xmm4, %xmm2
	vmulsd	%xmm2, %xmm12, %xmm4
	vmovddup	%xmm2, %xmm2    # xmm2 = xmm2[0,0]
	vmulpd	%xmm2, %xmm1, %xmm2
	vfmadd213sd	%xmm0, %xmm12, %xmm4 # xmm4 = (xmm12 * xmm4) + xmm0
	vfmadd213pd	%xmm3, %xmm1, %xmm2 # xmm2 = (xmm1 * xmm2) + xmm3
	vmovss	240(%r12,%rdi), %xmm0   # xmm0 = mem[0],zero,zero,zero
	vcvtss2sd	%xmm0, %xmm0, %xmm0
	vmulsd	%xmm0, %xmm7, %xmm1
	vfmadd213sd	%xmm4, %xmm7, %xmm1 # xmm1 = (xmm7 * xmm1) + xmm4
	vmovss	244(%r12,%rdi), %xmm3   # xmm3 = mem[0],zero,zero,zero
	vcvtss2sd	%xmm3, %xmm3, %xmm3
	vmulsd	%xmm3, %xmm10, %xmm4
	vmovss	248(%r12,%rdi), %xmm5   # xmm5 = mem[0],zero,zero,zero
	vfmadd213sd	%xmm1, %xmm10, %xmm4 # xmm4 = (xmm10 * xmm4) + xmm1
	vcvtss2sd	%xmm5, %xmm5, %xmm1
	vmovss	252(%r12,%rdi), %xmm5   # xmm5 = mem[0],zero,zero,zero
	vcvtss2sd	%xmm5, %xmm5, %xmm5
	vmulsd	%xmm1, %xmm13, %xmm7
	vfmadd213sd	%xmm4, %xmm13, %xmm7 # xmm7 = (xmm13 * xmm7) + xmm4
	vmovsd	48(%rsp), %xmm8         # 8-byte Reload
                                        # xmm8 = mem[0],zero
.Ltmp211:
	#DEBUG_VALUE: blockLID <- undef
	#DEBUG_VALUE: array <- [DW_OP_LLVM_fragment 0 64] $xmm8
	vmulsd	%xmm5, %xmm12, %xmm4
	vfmadd213sd	%xmm7, %xmm12, %xmm4 # xmm4 = (xmm12 * xmm4) + xmm7
	vmovddup	%xmm0, %xmm0    # xmm0 = xmm0[0,0]
	vmulpd	%xmm0, %xmm6, %xmm0
	vfmadd213pd	%xmm2, %xmm6, %xmm0 # xmm0 = (xmm6 * xmm0) + xmm2
	vmovddup	%xmm3, %xmm2    # xmm2 = xmm3[0,0]
	vmulpd	%xmm2, %xmm6, %xmm2
	vfmadd213pd	%xmm0, %xmm6, %xmm2 # xmm2 = (xmm6 * xmm2) + xmm0
	vmovddup	%xmm1, %xmm0    # xmm0 = xmm1[0,0]
	vmulpd	%xmm0, %xmm6, %xmm0
	vfmadd213pd	%xmm2, %xmm6, %xmm0 # xmm0 = (xmm6 * xmm0) + xmm2
	vmovddup	%xmm5, %xmm1    # xmm1 = xmm5[0,0]
	vmulpd	%xmm1, %xmm6, %xmm1
	vfmadd213pd	%xmm0, %xmm6, %xmm1 # xmm1 = (xmm6 * xmm1) + xmm0
.Ltmp212:
	.loc	1 132 1                 # vlasovsolver/cpu_moments.cpp:132:1
	vmulsd	32(%r13,%rdx,8), %xmm14, %xmm0
	vmulsd	656(%rsp), %xmm0, %xmm0 # 16-byte Folded Reload
	vmovapd	752(%rsp), %xmm2        # 16-byte Reload
.Ltmp213:
	.loc	1 134 1                 # vlasovsolver/cpu_moments.cpp:134:1
	vfmadd213sd	%xmm8, %xmm0, %xmm4 # xmm4 = (xmm0 * xmm4) + xmm8
	vmovsd	%xmm4, 48(%rsp)         # 8-byte Spill
	.loc	1 135 1                 # vlasovsolver/cpu_moments.cpp:135:1
	vmovddup	%xmm0, %xmm0    # xmm0 = xmm0[0,0]
	vmovapd	%xmm0, %xmm3
	vfmadd213pd	%xmm2, %xmm1, %xmm3 # xmm3 = (xmm1 * xmm3) + xmm2
.Ltmp214:
	#DEBUG_VALUE: blockLID <- [DW_OP_plus_uconst 1, DW_OP_stack_value] undef
	#DEBUG_VALUE: array <- [DW_OP_plus_uconst 48, DW_OP_LLVM_fragment 0 64] [$rsp+0]
	.loc	1 271 1                 # vlasovsolver/cpu_moments.cpp:271:1
	addq	$256, %rsi              # imm = 0x100
	addq	$6, %rdx
	cmpq	%rsi, %rcx
	jne	.LBB1_41
.Ltmp215:
# %bb.42:                               # %L.B0121.loopexit
                                        #   in Loop: Header=BB1_31 Depth=2
	#DEBUG_VALUE: ....inline.__FILL_CHARARRAY <- [DW_OP_LLVM_convert 32 7, DW_OP_LLVM_convert 8 7, DW_OP_stack_value] 0
	#DEBUG_VALUE: calculateMoments_R:mpiGrid <- [DW_OP_plus_uconst 120] [$rsp+0]
	#DEBUG_VALUE: calculateMoments_R:cells <- [DW_OP_plus_uconst 8] [$rsp+0]
	.loc	1 135 1                 # vlasovsolver/cpu_moments.cpp:135:1
	vfmadd213pd	%xmm2, %xmm1, %xmm0 # xmm0 = (xmm1 * xmm0) + xmm2
	movq	144(%rsp), %rbx         # 8-byte Reload
	vmovapd	704(%rsp), %xmm2        # 16-byte Reload
	jmp	.LBB1_43
.Ltmp216:
.LBB1_61:                               # %L_T29094568_54317
	#DEBUG_VALUE: ....inline.__FILL_CHARARRAY <- [DW_OP_LLVM_convert 32 7, DW_OP_LLVM_convert 8 7, DW_OP_stack_value] 0
	#DEBUG_VALUE: calculateMoments_R:mpiGrid <- [DW_OP_plus_uconst 120] [$rsp+0]
	#DEBUG_VALUE: calculateMoments_R:cells <- [DW_OP_plus_uconst 8] [$rsp+0]
.Ltmp92:
	.loc	1 0 1 is_stmt 0         # vlasovsolver/cpu_moments.cpp:0:1
	movq	%rax, %r14
	.loc	1 658 1 is_stmt 1       # vlasovsolver/cpu_moments.cpp:658:1
	movq	624(%rsp), %rdi
	cmpq	%rbx, %rdi
	je	.LBB1_59
.Ltmp217:
# %bb.62:                               # %L.B1783
	#DEBUG_VALUE: ....inline.__FILL_CHARARRAY <- [DW_OP_LLVM_convert 32 7, DW_OP_LLVM_convert 8 7, DW_OP_stack_value] 0
	#DEBUG_VALUE: calculateMoments_R:mpiGrid <- [DW_OP_plus_uconst 120] [$rsp+0]
	#DEBUG_VALUE: calculateMoments_R:cells <- [DW_OP_plus_uconst 8] [$rsp+0]
	callq	_ZdlPv
.Ltmp218:
.LBB1_59:                               # %L_T29094208_54317
	#DEBUG_VALUE: ....inline.__FILL_CHARARRAY <- [DW_OP_LLVM_convert 32 7, DW_OP_LLVM_convert 8 7, DW_OP_stack_value] 0
	#DEBUG_VALUE: calculateMoments_R:mpiGrid <- [DW_OP_plus_uconst 120] [$rsp+0]
	#DEBUG_VALUE: calculateMoments_R:cells <- [DW_OP_plus_uconst 8] [$rsp+0]
	movq	432(%rsp), %rdi
	cmpq	%r15, %rdi
	je	.LBB1_55
.Ltmp219:
# %bb.60:                               # %L.B1782
	#DEBUG_VALUE: ....inline.__FILL_CHARARRAY <- [DW_OP_LLVM_convert 32 7, DW_OP_LLVM_convert 8 7, DW_OP_stack_value] 0
	#DEBUG_VALUE: calculateMoments_R:mpiGrid <- [DW_OP_plus_uconst 120] [$rsp+0]
	#DEBUG_VALUE: calculateMoments_R:cells <- [DW_OP_plus_uconst 8] [$rsp+0]
	callq	_ZdlPv
	movq	%r14, %rdi
	callq	_Unwind_Resume
.Ltmp220:
.LBB1_58:                               # %L_T29093848_54317
	#DEBUG_VALUE: __dnew <- [DW_OP_deref] $rsp
	#DEBUG_VALUE: _M_construct: <- [DW_OP_plus_uconst 432, DW_OP_stack_value] $rsp
	#DEBUG_VALUE:  <- [DW_OP_plus_uconst 432, DW_OP_stack_value] $rsp
	#DEBUG_VALUE: ....inline.__FILL_CHARARRAY <- [DW_OP_LLVM_convert 32 7, DW_OP_LLVM_convert 8 7, DW_OP_stack_value] 0
	#DEBUG_VALUE: calculateMoments_R:mpiGrid <- [DW_OP_plus_uconst 120] [$rsp+0]
	#DEBUG_VALUE: calculateMoments_R:cells <- [DW_OP_plus_uconst 8] [$rsp+0]
.Ltmp89:
	.loc	1 0 1 is_stmt 0         # vlasovsolver/cpu_moments.cpp:0:1
	jmp	.LBB1_54
.Ltmp221:
.LBB1_66:                               # %L_T29095528_54317
	#DEBUG_VALUE: ....inline.__FILL_CHARARRAY <- [DW_OP_LLVM_convert 32 7, DW_OP_LLVM_convert 8 7, DW_OP_stack_value] 0
	#DEBUG_VALUE: calculateMoments_R:mpiGrid <- [DW_OP_plus_uconst 120] [$rsp+0]
	#DEBUG_VALUE: calculateMoments_R:cells <- [DW_OP_plus_uconst 8] [$rsp+0]
.Ltmp86:
	movq	%rax, %r14
	.loc	1 658 1                 # vlasovsolver/cpu_moments.cpp:658:1
	movq	592(%rsp), %rdi
	cmpq	%rbx, %rdi
	je	.LBB1_64
.Ltmp222:
# %bb.67:                               # %L.B1785
	#DEBUG_VALUE: ....inline.__FILL_CHARARRAY <- [DW_OP_LLVM_convert 32 7, DW_OP_LLVM_convert 8 7, DW_OP_stack_value] 0
	#DEBUG_VALUE: calculateMoments_R:mpiGrid <- [DW_OP_plus_uconst 120] [$rsp+0]
	#DEBUG_VALUE: calculateMoments_R:cells <- [DW_OP_plus_uconst 8] [$rsp+0]
	callq	_ZdlPv
.Ltmp223:
.LBB1_64:                               # %L_T29095168_54317
	#DEBUG_VALUE: ....inline.__FILL_CHARARRAY <- [DW_OP_LLVM_convert 32 7, DW_OP_LLVM_convert 8 7, DW_OP_stack_value] 0
	#DEBUG_VALUE: calculateMoments_R:mpiGrid <- [DW_OP_plus_uconst 120] [$rsp+0]
	#DEBUG_VALUE: calculateMoments_R:cells <- [DW_OP_plus_uconst 8] [$rsp+0]
	movq	16(%rsp), %rdi
	leaq	32(%rsp), %rax
	cmpq	%rax, %rdi
	je	.LBB1_55
.Ltmp224:
# %bb.65:                               # %L.B1784
	#DEBUG_VALUE: ....inline.__FILL_CHARARRAY <- [DW_OP_LLVM_convert 32 7, DW_OP_LLVM_convert 8 7, DW_OP_stack_value] 0
	#DEBUG_VALUE: calculateMoments_R:mpiGrid <- [DW_OP_plus_uconst 120] [$rsp+0]
	#DEBUG_VALUE: calculateMoments_R:cells <- [DW_OP_plus_uconst 8] [$rsp+0]
	callq	_ZdlPv
	movq	%r14, %rdi
	callq	_Unwind_Resume
.Ltmp225:
.LBB1_63:                               # %L_T29094808_54317
	#DEBUG_VALUE: __dnew <- [DW_OP_deref] $rsp
	#DEBUG_VALUE: _M_construct: <- [DW_OP_plus_uconst 16, DW_OP_stack_value] $rsp
	#DEBUG_VALUE:  <- [DW_OP_plus_uconst 16, DW_OP_stack_value] $rsp
	#DEBUG_VALUE: ....inline.__FILL_CHARARRAY <- [DW_OP_LLVM_convert 32 7, DW_OP_LLVM_convert 8 7, DW_OP_stack_value] 0
	#DEBUG_VALUE: calculateMoments_R:mpiGrid <- [DW_OP_plus_uconst 120] [$rsp+0]
	#DEBUG_VALUE: calculateMoments_R:cells <- [DW_OP_plus_uconst 8] [$rsp+0]
.Ltmp83:
	.loc	1 0 1                   # vlasovsolver/cpu_moments.cpp:0:1
	jmp	.LBB1_54
.Ltmp226:
.LBB1_56:                               # %L_T29093608_54317
	#DEBUG_VALUE: ....inline.__FILL_CHARARRAY <- [DW_OP_LLVM_convert 32 7, DW_OP_LLVM_convert 8 7, DW_OP_stack_value] 0
	#DEBUG_VALUE: calculateMoments_R:mpiGrid <- [DW_OP_plus_uconst 120] [$rsp+0]
	#DEBUG_VALUE: calculateMoments_R:cells <- [DW_OP_plus_uconst 8] [$rsp+0]
	#DEBUG_VALUE: calculateMoments_R:computeSecond <- $r15
.Ltmp80:
	movq	%rax, %r14
	.loc	1 658 1                 # vlasovsolver/cpu_moments.cpp:658:1
	movq	16(%rsp), %rdi
	cmpq	%rbx, %rdi
	je	.LBB1_55
.Ltmp227:
# %bb.57:                               # %L.B1781
	#DEBUG_VALUE: ....inline.__FILL_CHARARRAY <- [DW_OP_LLVM_convert 32 7, DW_OP_LLVM_convert 8 7, DW_OP_stack_value] 0
	#DEBUG_VALUE: calculateMoments_R:mpiGrid <- [DW_OP_plus_uconst 120] [$rsp+0]
	#DEBUG_VALUE: calculateMoments_R:cells <- [DW_OP_plus_uconst 8] [$rsp+0]
	#DEBUG_VALUE: calculateMoments_R:computeSecond <- $r15
	callq	_ZdlPv
	movq	%r14, %rdi
	callq	_Unwind_Resume
.Ltmp228:
.LBB1_53:                               # %L_T29093368_54317
	#DEBUG_VALUE: __dnew <- [DW_OP_deref] $rsp
	#DEBUG_VALUE: ....inline.__FILL_CHARARRAY <- [DW_OP_LLVM_convert 32 7, DW_OP_LLVM_convert 8 7, DW_OP_stack_value] 0
	#DEBUG_VALUE: _M_construct: <- [DW_OP_plus_uconst 16, DW_OP_stack_value] $rsp
	#DEBUG_VALUE:  <- [DW_OP_plus_uconst 16, DW_OP_stack_value] $rsp
	#DEBUG_VALUE: calculateMoments_R:mpiGrid <- [DW_OP_plus_uconst 120] [$rsp+0]
	#DEBUG_VALUE: calculateMoments_R:cells <- [DW_OP_plus_uconst 8] [$rsp+0]
	#DEBUG_VALUE: calculateMoments_R:computeSecond <- $r15
.Ltmp77:
.LBB1_54:                               # %unwind_resume
	#DEBUG_VALUE: ....inline.__FILL_CHARARRAY <- [DW_OP_LLVM_convert 32 7, DW_OP_LLVM_convert 8 7, DW_OP_stack_value] 0
	#DEBUG_VALUE: calculateMoments_R:mpiGrid <- [DW_OP_plus_uconst 120] [$rsp+0]
	#DEBUG_VALUE: calculateMoments_R:cells <- [DW_OP_plus_uconst 8] [$rsp+0]
	.loc	1 0 1                   # vlasovsolver/cpu_moments.cpp:0:1
	movq	%rax, %r14
.Ltmp229:
.LBB1_55:                               # %unwind_resume
	#DEBUG_VALUE: ....inline.__FILL_CHARARRAY <- [DW_OP_LLVM_convert 32 7, DW_OP_LLVM_convert 8 7, DW_OP_stack_value] 0
	#DEBUG_VALUE: calculateMoments_R:mpiGrid <- [DW_OP_plus_uconst 120] [$rsp+0]
	#DEBUG_VALUE: calculateMoments_R:cells <- [DW_OP_plus_uconst 8] [$rsp+0]
	movq	%r14, %rdi
	callq	_Unwind_Resume
.Lfunc_end1:
	.size	_Z18calculateMoments_RRN5dccrg5DccrgIN12spatial_cell11SpatialCellENS_18Cartesian_GeometryESt5tupleIJEES5_EERKSt6vectorImSaImEERKb, .Lfunc_end1-_Z18calculateMoments_RRN5dccrg5DccrgIN12spatial_cell11SpatialCellENS_18Cartesian_GeometryESt5tupleIJEES5_EERKSt6vectorImSaImEERKb
	.cfi_endproc
	.section	.gcc_except_table,"a",@progbits
	.p2align	2
GCC_except_table1:
.Lexception0:
	.byte	255                     # @LPStart Encoding = omit
	.byte	255                     # @TType Encoding = omit
	.byte	1                       # Call site Encoding = uleb128
	.uleb128 .Lcst_end0-.Lcst_begin0
.Lcst_begin0:
	.uleb128 .Ltmp75-.Lfunc_begin1  # >> Call Site 1 <<
	.uleb128 .Ltmp76-.Ltmp75        #   Call between .Ltmp75 and .Ltmp76
	.uleb128 .Ltmp77-.Lfunc_begin1  #     jumps to .Ltmp77
	.byte	0                       #   On action: cleanup
	.uleb128 .Ltmp78-.Lfunc_begin1  # >> Call Site 2 <<
	.uleb128 .Ltmp79-.Ltmp78        #   Call between .Ltmp78 and .Ltmp79
	.uleb128 .Ltmp80-.Lfunc_begin1  #     jumps to .Ltmp80
	.byte	0                       #   On action: cleanup
	.uleb128 .Ltmp79-.Lfunc_begin1  # >> Call Site 3 <<
	.uleb128 .Ltmp81-.Ltmp79        #   Call between .Ltmp79 and .Ltmp81
	.byte	0                       #     has no landing pad
	.byte	0                       #   On action: cleanup
	.uleb128 .Ltmp81-.Lfunc_begin1  # >> Call Site 4 <<
	.uleb128 .Ltmp82-.Ltmp81        #   Call between .Ltmp81 and .Ltmp82
	.uleb128 .Ltmp83-.Lfunc_begin1  #     jumps to .Ltmp83
	.byte	0                       #   On action: cleanup
	.uleb128 .Ltmp84-.Lfunc_begin1  # >> Call Site 5 <<
	.uleb128 .Ltmp85-.Ltmp84        #   Call between .Ltmp84 and .Ltmp85
	.uleb128 .Ltmp86-.Lfunc_begin1  #     jumps to .Ltmp86
	.byte	0                       #   On action: cleanup
	.uleb128 .Ltmp85-.Lfunc_begin1  # >> Call Site 6 <<
	.uleb128 .Ltmp87-.Ltmp85        #   Call between .Ltmp85 and .Ltmp87
	.byte	0                       #     has no landing pad
	.byte	0                       #   On action: cleanup
	.uleb128 .Ltmp87-.Lfunc_begin1  # >> Call Site 7 <<
	.uleb128 .Ltmp88-.Ltmp87        #   Call between .Ltmp87 and .Ltmp88
	.uleb128 .Ltmp89-.Lfunc_begin1  #     jumps to .Ltmp89
	.byte	0                       #   On action: cleanup
	.uleb128 .Ltmp90-.Lfunc_begin1  # >> Call Site 8 <<
	.uleb128 .Ltmp91-.Ltmp90        #   Call between .Ltmp90 and .Ltmp91
	.uleb128 .Ltmp92-.Lfunc_begin1  #     jumps to .Ltmp92
	.byte	0                       #   On action: cleanup
	.uleb128 .Ltmp91-.Lfunc_begin1  # >> Call Site 9 <<
	.uleb128 .Lfunc_end1-.Ltmp91    #   Call between .Ltmp91 and .Lfunc_end1
	.byte	0                       #     has no landing pad
	.byte	0                       #   On action: cleanup
.Lcst_end0:
	.p2align	2
                                        # -- End function
	.section	.rodata.cst8,"aM",@progbits,8
	.p2align	3               # -- Begin function _Z18calculateMoments_VRN5dccrg5DccrgIN12spatial_cell11SpatialCellENS_18Cartesian_GeometryESt5tupleIJEES5_EERKSt6vectorImSaImEERKb
.LCPI2_0:
	.quad	4615063718147915776     # double 3.5
.LCPI2_1:
	.quad	4612811918334230528     # double 2.5
.LCPI2_2:
	.quad	4609434218613702656     # double 1.5
.LCPI2_3:
	.quad	4602678819172646912     # double 0.5
.LCPI2_5:
	.quad	-4616189618054758400    # double -1
.LCPI2_8:
	.quad	0                       # double 0
	.section	.rodata.cst16,"aM",@progbits,16
	.p2align	4
.LCPI2_4:
	.quad	4615063718147915776     # double 3.5
	.quad	4615063718147915776     # double 3.5
.LCPI2_7:
	.zero	16
	.section	.rodata.cst32,"aM",@progbits,32
	.p2align	5
.LCPI2_6:
	.zero	32
	.text
	.globl	_Z18calculateMoments_VRN5dccrg5DccrgIN12spatial_cell11SpatialCellENS_18Cartesian_GeometryESt5tupleIJEES5_EERKSt6vectorImSaImEERKb
	.p2align	4, 0x90
	.type	_Z18calculateMoments_VRN5dccrg5DccrgIN12spatial_cell11SpatialCellENS_18Cartesian_GeometryESt5tupleIJEES5_EERKSt6vectorImSaImEERKb,@function
_Z18calculateMoments_VRN5dccrg5DccrgIN12spatial_cell11SpatialCellENS_18Cartesian_GeometryESt5tupleIJEES5_EERKSt6vectorImSaImEERKb: # @_Z18calculateMoments_VRN5dccrg5DccrgIN12spatial_cell11SpatialCellENS_18Cartesian_GeometryESt5tupleIJEES5_EERKSt6vectorImSaImEERKb
.Lfunc_begin2:
	.loc	1 298 0 is_stmt 1       # vlasovsolver/cpu_moments.cpp:298:0
	.cfi_startproc
	.cfi_personality 3, __gxx_personality_v0
	.cfi_lsda 3, .Lexception1
# %bb.0:                                # %L.entry
	#DEBUG_VALUE: calculateMoments_V:mpiGrid <- $rdi
	#DEBUG_VALUE: calculateMoments_V:cells <- $rsi
	#DEBUG_VALUE: calculateMoments_V:computeSecond <- $rdx
	pushq	%rbp
	.cfi_def_cfa_offset 16
	.cfi_offset %rbp, -16
	movq	%rsp, %rbp
	.cfi_def_cfa_register %rbp
	pushq	%r15
	pushq	%r14
	pushq	%r13
	pushq	%r12
	pushq	%rbx
	andq	$-32, %rsp
	subq	$800, %rsp              # imm = 0x320
	.cfi_offset %rbx, -56
	.cfi_offset %r12, -48
	.cfi_offset %r13, -40
	.cfi_offset %r14, -32
	.cfi_offset %r15, -24
	movq	%rdx, %r15
	movq	%rsi, 8(%rsp)           # 8-byte Spill
	movq	%rdi, 120(%rsp)         # 8-byte Spill
.Ltmp248:
	#DEBUG_VALUE: computeSecond <- undef
	#DEBUG_VALUE: cells <- undef
	#DEBUG_VALUE: mpiGrid <- undef
	#DEBUG_VALUE: calculateMoments_V:computeSecond <- $r15
	#DEBUG_VALUE: calculateMoments_V:cells <- [DW_OP_plus_uconst 8] [$rsp+0]
	#DEBUG_VALUE: calculateMoments_V:mpiGrid <- [DW_OP_plus_uconst 120] [$rsp+0]
	.loc	1 527 1 prologue_end    # vlasovsolver/cpu_moments.cpp:527:1
	leaq	32(%rsp), %rbx
	movq	%rbx, 16(%rsp)
.Ltmp249:
	#DEBUG_VALUE: __dnew <- 18
	#DEBUG_VALUE: _M_construct:_T29072768_54493 <- undef
	#DEBUG_VALUE:  <- [DW_OP_plus_uconst 16, DW_OP_stack_value] $rsp
	#DEBUG_VALUE: _M_construct: <- [DW_OP_plus_uconst 16, DW_OP_stack_value] $rsp
	#DEBUG_VALUE: ....inline.__FILL_CHARARRAY <- [DW_OP_LLVM_convert 32 7, DW_OP_LLVM_convert 8 7, DW_OP_stack_value] 0
	.loc	2 143 1                 # /usr/include/c++/9/bits/basic_string.tcc:143:1
	movq	$18, (%rsp)
.Ltmp250:
	#DEBUG_VALUE: __dnew <- [DW_OP_deref] $rsp
.Ltmp230:
	.loc	2 0 1 is_stmt 0         # /usr/include/c++/9/bits/basic_string.tcc:0:1
	leaq	16(%rsp), %rdi
	movq	%rsp, %rsi
	.loc	2 219 1 is_stmt 1       # /usr/include/c++/9/bits/basic_string.tcc:219:1
	xorl	%edx, %edx
	callq	_ZNSt7__cxx1112basic_stringIcSt11char_traitsIcESaIcEE9_M_createERmm
.Ltmp231:
.Ltmp251:
	#DEBUG_VALUE: __beg <- undef
	#DEBUG_VALUE: _M_construct:__beg <- undef
# %bb.1:                                # %L.B1959
	#DEBUG_VALUE: __dnew <- [DW_OP_deref] $rsp
	#DEBUG_VALUE: ....inline.__FILL_CHARARRAY <- [DW_OP_LLVM_convert 32 7, DW_OP_LLVM_convert 8 7, DW_OP_stack_value] 0
	#DEBUG_VALUE: _M_construct: <- [DW_OP_plus_uconst 16, DW_OP_stack_value] $rsp
	#DEBUG_VALUE:  <- [DW_OP_plus_uconst 16, DW_OP_stack_value] $rsp
	#DEBUG_VALUE: calculateMoments_V:mpiGrid <- [DW_OP_plus_uconst 120] [$rsp+0]
	#DEBUG_VALUE: calculateMoments_V:cells <- [DW_OP_plus_uconst 8] [$rsp+0]
	#DEBUG_VALUE: calculateMoments_V:computeSecond <- $r15
	movq	%rax, 16(%rsp)
	.loc	2 220 1                 # /usr/include/c++/9/bits/basic_string.tcc:220:1
	movq	(%rsp), %rcx
.Ltmp252:
	#DEBUG_VALUE: __dnew <- $rcx
	movq	%rcx, 32(%rsp)
	.loc	2 398 1                 # /usr/include/c++/9/bits/basic_string.tcc:398:1
	vmovupd	.S56069(%rip), %xmm0
	vmovupd	%xmm0, (%rax)
	movw	$29556, 16(%rax)        # imm = 0x7374
	.loc	2 216 1                 # /usr/include/c++/9/bits/basic_string.tcc:216:1
	movq	%rcx, 24(%rsp)
	.loc	2 217 1                 # /usr/include/c++/9/bits/basic_string.tcc:217:1
	movq	16(%rsp), %rax
	movb	$0, (%rax,%rcx)
.Ltmp233:
	leaq	16(%rsp), %rdi
.Ltmp253:
	.loc	1 300 1                 # vlasovsolver/cpu_moments.cpp:300:1
	callq	_ZN7phiprof5startERKNSt7__cxx1112basic_stringIcSt11char_traitsIcESaIcEEE
.Ltmp254:
.Ltmp234:
# %bb.2:                                # %L.B1960
	#DEBUG_VALUE: ....inline.__FILL_CHARARRAY <- [DW_OP_LLVM_convert 32 7, DW_OP_LLVM_convert 8 7, DW_OP_stack_value] 0
	#DEBUG_VALUE: calculateMoments_V:mpiGrid <- [DW_OP_plus_uconst 120] [$rsp+0]
	#DEBUG_VALUE: calculateMoments_V:cells <- [DW_OP_plus_uconst 8] [$rsp+0]
	#DEBUG_VALUE: calculateMoments_V:computeSecond <- $r15
	.loc	1 658 1                 # vlasovsolver/cpu_moments.cpp:658:1
	movq	16(%rsp), %rdi
	cmpq	%rbx, %rdi
	je	.LBB2_4
.Ltmp255:
# %bb.3:                                # %L.B1961
	#DEBUG_VALUE: ....inline.__FILL_CHARARRAY <- [DW_OP_LLVM_convert 32 7, DW_OP_LLVM_convert 8 7, DW_OP_stack_value] 0
	#DEBUG_VALUE: calculateMoments_V:mpiGrid <- [DW_OP_plus_uconst 120] [$rsp+0]
	#DEBUG_VALUE: calculateMoments_V:cells <- [DW_OP_plus_uconst 8] [$rsp+0]
	#DEBUG_VALUE: calculateMoments_V:computeSecond <- $r15
	callq	_ZdlPv
.Ltmp256:
.LBB2_4:                                # %L..inline.77968
	#DEBUG_VALUE: ....inline.__FILL_CHARARRAY <- [DW_OP_LLVM_convert 32 7, DW_OP_LLVM_convert 8 7, DW_OP_stack_value] 0
	#DEBUG_VALUE: calculateMoments_V:mpiGrid <- [DW_OP_plus_uconst 120] [$rsp+0]
	#DEBUG_VALUE: calculateMoments_V:cells <- [DW_OP_plus_uconst 8] [$rsp+0]
	#DEBUG_VALUE: calculateMoments_V:computeSecond <- $r15
	#DEBUG_VALUE: popID <- 0
	.loc	1 303 1                 # vlasovsolver/cpu_moments.cpp:303:1
	callq	_Z16getObjectWrapperv
	movq	232(%rax), %rdi
	subq	224(%rax), %rdi
	movabsq	$5675921253449092805, %rdx # imm = 0x4EC4EC4EC4EC4EC5
	movq	%rdi, %rax
	imulq	%rdx
	sarq	$6, %rdx
	sarq	$63, %rdi
	movq	8(%rsp), %rsi           # 8-byte Reload
.Ltmp257:
	.loc	1 916 1                 # vlasovsolver/cpu_moments.cpp:916:1
	movq	(%rsi), %rax
	movq	8(%rsi), %rsi
	subq	%rax, %rsi
	cmpq	$8, %rsi
	setb	%cl
	cmpq	%rdi, %rdx
	je	.LBB2_21
.Ltmp258:
# %bb.5:                                # %L.B1962.preheader
	#DEBUG_VALUE: popID <- 0
	#DEBUG_VALUE: ....inline.__FILL_CHARARRAY <- [DW_OP_LLVM_convert 32 7, DW_OP_LLVM_convert 8 7, DW_OP_stack_value] 0
	#DEBUG_VALUE: calculateMoments_V:mpiGrid <- [DW_OP_plus_uconst 120] [$rsp+0]
	#DEBUG_VALUE: calculateMoments_V:cells <- [DW_OP_plus_uconst 8] [$rsp+0]
	#DEBUG_VALUE: calculateMoments_V:computeSecond <- $r15
	.loc	1 0 1 is_stmt 0         # vlasovsolver/cpu_moments.cpp:0:1
	movq	%r15, 56(%rsp)          # 8-byte Spill
.Ltmp259:
	#DEBUG_VALUE: calculateMoments_V:computeSecond <- [DW_OP_plus_uconst 56] [$rsp+0]
	xorl	%r15d, %r15d
	jmp	.LBB2_6
.Ltmp260:
	.p2align	4, 0x90
.LBB2_19:                               # %L.B0133
                                        #   in Loop: Header=BB2_6 Depth=1
	#DEBUG_VALUE: calculateMoments_V:computeSecond <- [DW_OP_plus_uconst 56] [$rsp+0]
	#DEBUG_VALUE: ....inline.__FILL_CHARARRAY <- [DW_OP_LLVM_convert 32 7, DW_OP_LLVM_convert 8 7, DW_OP_stack_value] 0
	#DEBUG_VALUE: calculateMoments_V:mpiGrid <- [DW_OP_plus_uconst 120] [$rsp+0]
	#DEBUG_VALUE: calculateMoments_V:cells <- [DW_OP_plus_uconst 8] [$rsp+0]
	.loc	1 355 1 is_stmt 1       # vlasovsolver/cpu_moments.cpp:355:1
	incl	%r15d
.Ltmp261:
	#DEBUG_VALUE: popID <- $r15d
	.loc	1 303 1                 # vlasovsolver/cpu_moments.cpp:303:1
	vzeroupper
	callq	_Z16getObjectWrapperv
	movq	232(%rax), %rcx
	subq	224(%rax), %rcx
	movq	%rcx, %rax
	movabsq	$5675921253449092805, %rdx # imm = 0x4EC4EC4EC4EC4EC5
	imulq	%rdx
	sarq	$6, %rdx
	sarq	$63, %rcx
	subq	%rcx, %rdx
	movq	8(%rsp), %rcx           # 8-byte Reload
.Ltmp262:
	.loc	1 916 1                 # vlasovsolver/cpu_moments.cpp:916:1
	movq	(%rcx), %rax
	movq	8(%rcx), %rcx
	subq	%rax, %rcx
	cmpq	$8, %rcx
	setb	%cl
	cmpq	%r15, %rdx
	jbe	.LBB2_20
.Ltmp263:
.LBB2_6:                                # %L.B1962
                                        # =>This Loop Header: Depth=1
                                        #     Child Loop BB2_8 Depth 2
                                        #       Child Loop BB2_15 Depth 3
	#DEBUG_VALUE: calculateMoments_V:computeSecond <- [DW_OP_plus_uconst 56] [$rsp+0]
	#DEBUG_VALUE: ....inline.__FILL_CHARARRAY <- [DW_OP_LLVM_convert 32 7, DW_OP_LLVM_convert 8 7, DW_OP_stack_value] 0
	#DEBUG_VALUE: calculateMoments_V:mpiGrid <- [DW_OP_plus_uconst 120] [$rsp+0]
	#DEBUG_VALUE: calculateMoments_V:cells <- [DW_OP_plus_uconst 8] [$rsp+0]
	#DEBUG_VALUE: popID <- $r15d
	#DEBUG_VALUE: c <- 0
	testb	$1, %cl
	jne	.LBB2_19
.Ltmp264:
# %bb.7:                                # %L.B1963
                                        #   in Loop: Header=BB2_6 Depth=1
	#DEBUG_VALUE: c <- 0
	#DEBUG_VALUE: popID <- $r15d
	#DEBUG_VALUE: calculateMoments_V:computeSecond <- [DW_OP_plus_uconst 56] [$rsp+0]
	#DEBUG_VALUE: ....inline.__FILL_CHARARRAY <- [DW_OP_LLVM_convert 32 7, DW_OP_LLVM_convert 8 7, DW_OP_stack_value] 0
	#DEBUG_VALUE: calculateMoments_V:mpiGrid <- [DW_OP_plus_uconst 120] [$rsp+0]
	#DEBUG_VALUE: calculateMoments_V:cells <- [DW_OP_plus_uconst 8] [$rsp+0]
	.loc	1 305 1                 # vlasovsolver/cpu_moments.cpp:305:1
	imulq	$208, %r15, %rcx
	movq	%rcx, 64(%rsp)          # 8-byte Spill
	imulq	$608, %r15, %r13        # imm = 0x260
.Ltmp265:
	.loc	1 0 0 is_stmt 0         # vlasovsolver/cpu_moments.cpp:0:0
	xorl	%ebx, %ebx
	movq	%r15, 72(%rsp)          # 8-byte Spill
	jmp	.LBB2_8
.Ltmp266:
.LBB2_13:                               #   in Loop: Header=BB2_8 Depth=2
	#DEBUG_VALUE: charge <- [DW_OP_plus_uconst 80] [$rsp+0]
	#DEBUG_VALUE: array <- [DW_OP_LLVM_fragment 0 64] 0.000000e+00
	#DEBUG_VALUE: array <- [DW_OP_LLVM_fragment 64 64] 0.000000e+00
	#DEBUG_VALUE: array <- [DW_OP_LLVM_fragment 128 64] 0.000000e+00
	#DEBUG_VALUE: array <- [DW_OP_LLVM_fragment 192 64] 0.000000e+00
	#DEBUG_VALUE: blockLID <- 0
	#DEBUG_VALUE: mass <- [DW_OP_plus_uconst 416] [$rsp+0]
	#DEBUG_VALUE: data <- $r14
	#DEBUG_VALUE: blockParams <- $r15
	#DEBUG_VALUE: calculateMoments_V:computeSecond <- [DW_OP_plus_uconst 56] [$rsp+0]
	#DEBUG_VALUE: ....inline.__FILL_CHARARRAY <- [DW_OP_LLVM_convert 32 7, DW_OP_LLVM_convert 8 7, DW_OP_stack_value] 0
	#DEBUG_VALUE: calculateMoments_V:mpiGrid <- [DW_OP_plus_uconst 120] [$rsp+0]
	#DEBUG_VALUE: calculateMoments_V:cells <- [DW_OP_plus_uconst 8] [$rsp+0]
	vxorpd	%xmm1, %xmm1, %xmm1
.Ltmp267:
.LBB2_17:                               # %L.B0144
                                        #   in Loop: Header=BB2_8 Depth=2
	#DEBUG_VALUE: calculateMoments_V:computeSecond <- [DW_OP_plus_uconst 56] [$rsp+0]
	#DEBUG_VALUE: ....inline.__FILL_CHARARRAY <- [DW_OP_LLVM_convert 32 7, DW_OP_LLVM_convert 8 7, DW_OP_stack_value] 0
	#DEBUG_VALUE: calculateMoments_V:mpiGrid <- [DW_OP_plus_uconst 120] [$rsp+0]
	#DEBUG_VALUE: calculateMoments_V:cells <- [DW_OP_plus_uconst 8] [$rsp+0]
	vmovapd	%ymm1, 384(%rsp)        # 32-byte Spill
	movq	88(%rsp), %rbx          # 8-byte Reload
	.loc	1 916 1 is_stmt 1       # vlasovsolver/cpu_moments.cpp:916:1
	movq	1408(%rbx), %r15
.Ltmp268:
	#DEBUG_VALUE: pop <- undef
	.loc	1 0 1 is_stmt 0         # vlasovsolver/cpu_moments.cpp:0:1
	movq	%r8, %r13
.Ltmp269:
	.loc	1 344 1 is_stmt 1       # vlasovsolver/cpu_moments.cpp:344:1
	vmovlpd	%xmm1, 64(%r15,%r8)
	.loc	1 345 1                 # vlasovsolver/cpu_moments.cpp:345:1
	vpermilpd	$1, %xmm1, %xmm0 # xmm0 = xmm1[1,0]
                                        # kill: def $xmm1 killed $xmm1 killed $ymm1
	vzeroupper
	callq	_Z15divideIfNonZerodd
	vmovsd	%xmm0, 72(%r15,%r13)
	vmovaps	384(%rsp), %ymm1        # 32-byte Reload
	.loc	1 346 1                 # vlasovsolver/cpu_moments.cpp:346:1
	vextractf128	$1, %ymm1, %xmm0
	vmovaps	%xmm0, 128(%rsp)        # 16-byte Spill
                                        # kill: def $xmm1 killed $xmm1 killed $ymm1
	vzeroupper
	callq	_Z15divideIfNonZerodd
	vmovsd	%xmm0, 80(%r15,%r13)
	.loc	1 347 1                 # vlasovsolver/cpu_moments.cpp:347:1
	vpermilpd	$1, 128(%rsp), %xmm0 # 16-byte Folded Reload
                                        # xmm0 = mem[1,0]
	vmovaps	384(%rsp), %ymm1        # 32-byte Reload
                                        # kill: def $xmm1 killed $xmm1 killed $ymm1
	vzeroupper
	callq	_Z15divideIfNonZerodd
	vmovsd	%xmm0, 88(%r15,%r13)
.Ltmp270:
	.loc	1 186 1                 # vlasovsolver/cpu_moments.cpp:186:1
	vbroadcastsd	416(%rsp), %ymm0 # 16-byte Folded Reload
	vmovapd	384(%rsp), %ymm1        # 32-byte Reload
	vfmadd213pd	288(%rbx), %ymm1, %ymm0 # ymm0 = (ymm1 * ymm0) + mem
	vmovupd	%ymm0, 288(%rbx)
	vmovsd	80(%rsp), %xmm0         # 8-byte Reload
                                        # xmm0 = mem[0],zero
	vfmadd213sd	320(%rbx), %xmm1, %xmm0 # xmm0 = (xmm1 * xmm0) + mem
	vmovsd	%xmm0, 320(%rbx)
	movq	72(%rsp), %r15          # 8-byte Reload
	movq	96(%rsp), %rbx          # 8-byte Reload
.Ltmp271:
.LBB2_18:                               # %L_T29094640_54318
                                        #   in Loop: Header=BB2_8 Depth=2
	#DEBUG_VALUE: calculateMoments_V:computeSecond <- [DW_OP_plus_uconst 56] [$rsp+0]
	#DEBUG_VALUE: ....inline.__FILL_CHARARRAY <- [DW_OP_LLVM_convert 32 7, DW_OP_LLVM_convert 8 7, DW_OP_stack_value] 0
	#DEBUG_VALUE: calculateMoments_V:mpiGrid <- [DW_OP_plus_uconst 120] [$rsp+0]
	#DEBUG_VALUE: calculateMoments_V:cells <- [DW_OP_plus_uconst 8] [$rsp+0]
	.loc	1 354 1                 # vlasovsolver/cpu_moments.cpp:354:1
	incq	%rbx
.Ltmp272:
	#DEBUG_VALUE: c <- $rbx
	.loc	1 0 1 is_stmt 0         # vlasovsolver/cpu_moments.cpp:0:1
	movq	8(%rsp), %rcx           # 8-byte Reload
	.loc	1 354 1                 # vlasovsolver/cpu_moments.cpp:354:1
	movq	(%rcx), %rax
	movq	8(%rcx), %rcx
	subq	%rax, %rcx
	sarq	$3, %rcx
	cmpq	%rcx, %rbx
	jae	.LBB2_19
.Ltmp273:
.LBB2_8:                                # %L.B0132
                                        #   Parent Loop BB2_6 Depth=1
                                        # =>  This Loop Header: Depth=2
                                        #       Child Loop BB2_15 Depth 3
	#DEBUG_VALUE: calculateMoments_V:computeSecond <- [DW_OP_plus_uconst 56] [$rsp+0]
	#DEBUG_VALUE: ....inline.__FILL_CHARARRAY <- [DW_OP_LLVM_convert 32 7, DW_OP_LLVM_convert 8 7, DW_OP_stack_value] 0
	#DEBUG_VALUE: calculateMoments_V:mpiGrid <- [DW_OP_plus_uconst 120] [$rsp+0]
	#DEBUG_VALUE: calculateMoments_V:cells <- [DW_OP_plus_uconst 8] [$rsp+0]
	.loc	1 1062 1 is_stmt 1      # vlasovsolver/cpu_moments.cpp:1062:1
	movq	(%rax,%rbx,8), %rsi
	movq	120(%rsp), %rdi         # 8-byte Reload
	vzeroupper
	callq	_ZNK5dccrg5DccrgIN12spatial_cell11SpatialCellENS_18Cartesian_GeometryESt5tupleIJEES5_EixEm
.Ltmp274:
	#DEBUG_VALUE: cell <- $rax
	#DEBUG_VALUE: c <- $rbx
	.loc	1 308 1                 # vlasovsolver/cpu_moments.cpp:308:1
	cmpl	$0, 928(%rax)
	je	.LBB2_18
.Ltmp275:
# %bb.9:                                # %L.B1964
                                        #   in Loop: Header=BB2_8 Depth=2
	#DEBUG_VALUE: c <- $rbx
	#DEBUG_VALUE: cell <- $rax
	#DEBUG_VALUE: calculateMoments_V:computeSecond <- [DW_OP_plus_uconst 56] [$rsp+0]
	#DEBUG_VALUE: ....inline.__FILL_CHARARRAY <- [DW_OP_LLVM_convert 32 7, DW_OP_LLVM_convert 8 7, DW_OP_stack_value] 0
	#DEBUG_VALUE: calculateMoments_V:mpiGrid <- [DW_OP_plus_uconst 120] [$rsp+0]
	#DEBUG_VALUE: calculateMoments_V:cells <- [DW_OP_plus_uconst 8] [$rsp+0]
	.loc	1 0 0 is_stmt 0         # vlasovsolver/cpu_moments.cpp:0:0
	testl	%r15d, %r15d
	.loc	1 313 1 is_stmt 1       # vlasovsolver/cpu_moments.cpp:313:1
	jne	.LBB2_11
.Ltmp276:
# %bb.10:                               # %L.B1965
                                        #   in Loop: Header=BB2_8 Depth=2
	#DEBUG_VALUE: calculateMoments_V:computeSecond <- [DW_OP_plus_uconst 56] [$rsp+0]
	#DEBUG_VALUE: ....inline.__FILL_CHARARRAY <- [DW_OP_LLVM_convert 32 7, DW_OP_LLVM_convert 8 7, DW_OP_stack_value] 0
	#DEBUG_VALUE: calculateMoments_V:mpiGrid <- [DW_OP_plus_uconst 120] [$rsp+0]
	#DEBUG_VALUE: calculateMoments_V:cells <- [DW_OP_plus_uconst 8] [$rsp+0]
	.loc	1 186 1                 # vlasovsolver/cpu_moments.cpp:186:1
	vxorpd	%xmm0, %xmm0, %xmm0
	vmovupd	%ymm0, 288(%rax)
	movq	$0, 320(%rax)
	vxorpd	%xmm0, %xmm0, %xmm0
	vmovupd	%xmm0, 400(%rax)
	movq	$0, 416(%rax)
.Ltmp277:
.LBB2_11:                               # %L.B0136
                                        #   in Loop: Header=BB2_8 Depth=2
	#DEBUG_VALUE: calculateMoments_V:computeSecond <- [DW_OP_plus_uconst 56] [$rsp+0]
	#DEBUG_VALUE: ....inline.__FILL_CHARARRAY <- [DW_OP_LLVM_convert 32 7, DW_OP_LLVM_convert 8 7, DW_OP_stack_value] 0
	#DEBUG_VALUE: calculateMoments_V:mpiGrid <- [DW_OP_plus_uconst 120] [$rsp+0]
	#DEBUG_VALUE: calculateMoments_V:cells <- [DW_OP_plus_uconst 8] [$rsp+0]
	.loc	1 1513 1                # vlasovsolver/cpu_moments.cpp:1513:1
	movq	1408(%rax), %r12
.Ltmp278:
	.loc	1 309 1                 # vlasovsolver/cpu_moments.cpp:309:1
	cmpl	$0, 580(%r12,%r13)
	je	.LBB2_18
.Ltmp279:
# %bb.12:                               # %L.B0137
                                        #   in Loop: Header=BB2_8 Depth=2
	#DEBUG_VALUE: calculateMoments_V:computeSecond <- [DW_OP_plus_uconst 56] [$rsp+0]
	#DEBUG_VALUE: ....inline.__FILL_CHARARRAY <- [DW_OP_LLVM_convert 32 7, DW_OP_LLVM_convert 8 7, DW_OP_stack_value] 0
	#DEBUG_VALUE: calculateMoments_V:mpiGrid <- [DW_OP_plus_uconst 120] [$rsp+0]
	#DEBUG_VALUE: calculateMoments_V:cells <- [DW_OP_plus_uconst 8] [$rsp+0]
	.loc	1 0 1 is_stmt 0         # vlasovsolver/cpu_moments.cpp:0:1
	movq	%rax, 88(%rsp)          # 8-byte Spill
	movq	%rbx, 96(%rsp)          # 8-byte Spill
	.loc	1 165 1 is_stmt 1       # vlasovsolver/cpu_moments.cpp:165:1
	movq	296(%r12,%r13), %r14
	.loc	1 198 1                 # vlasovsolver/cpu_moments.cpp:198:1
	movq	584(%r12,%r13), %r15
.Ltmp280:
	#DEBUG_VALUE: blockParams <- $r15
	#DEBUG_VALUE: data <- $r14
	.loc	1 328 1                 # vlasovsolver/cpu_moments.cpp:328:1
	vzeroupper
	callq	_Z16getObjectWrapperv
.Ltmp281:
	.loc	1 1044 1                # vlasovsolver/cpu_moments.cpp:1044:1
	movq	224(%rax), %rax
	movq	64(%rsp), %rbx          # 8-byte Reload
	vmovsd	40(%rax,%rbx), %xmm0    # xmm0 = mem[0],zero
	vmovaps	%xmm0, 416(%rsp)        # 16-byte Spill
.Ltmp282:
	#DEBUG_VALUE: mass <- [DW_OP_plus_uconst 416] [$rsp+0]
	#DEBUG_VALUE: blockParams <- $r15
	#DEBUG_VALUE: data <- $r14
	.loc	1 329 1                 # vlasovsolver/cpu_moments.cpp:329:1
	callq	_Z16getObjectWrapperv
.Ltmp283:
	.loc	1 1044 1                # vlasovsolver/cpu_moments.cpp:1044:1
	movq	224(%rax), %rax
	vmovsd	32(%rax,%rbx), %xmm0    # xmm0 = mem[0],zero
.Ltmp284:
	#DEBUG_VALUE: blockLID <- 0
	.loc	1 0 1 is_stmt 0         # vlasovsolver/cpu_moments.cpp:0:1
	vmovsd	%xmm0, 80(%rsp)         # 8-byte Spill
	movq	%r13, %r8
.Ltmp285:
	#DEBUG_VALUE: array <- [DW_OP_LLVM_fragment 192 64] 0.000000e+00
	#DEBUG_VALUE: array <- [DW_OP_LLVM_fragment 128 64] 0.000000e+00
	#DEBUG_VALUE: array <- [DW_OP_LLVM_fragment 64 64] 0.000000e+00
	#DEBUG_VALUE: array <- [DW_OP_LLVM_fragment 0 64] 0.000000e+00
	#DEBUG_VALUE: charge <- [DW_OP_plus_uconst 80] [$rsp+0]
	.loc	1 309 1 is_stmt 1       # vlasovsolver/cpu_moments.cpp:309:1
	movl	580(%r12,%r13), %eax
	#DEBUG_VALUE: mass <- [DW_OP_plus_uconst 416] [$rsp+0]
	#DEBUG_VALUE: blockParams <- $r15
	#DEBUG_VALUE: data <- $r14
	testq	%rax, %rax
	je	.LBB2_13
.Ltmp286:
# %bb.14:                               # %L.B1967
                                        #   in Loop: Header=BB2_8 Depth=2
	#DEBUG_VALUE: charge <- [DW_OP_plus_uconst 80] [$rsp+0]
	#DEBUG_VALUE: array <- [DW_OP_LLVM_fragment 0 64] 0.000000e+00
	#DEBUG_VALUE: array <- [DW_OP_LLVM_fragment 64 64] 0.000000e+00
	#DEBUG_VALUE: array <- [DW_OP_LLVM_fragment 128 64] 0.000000e+00
	#DEBUG_VALUE: array <- [DW_OP_LLVM_fragment 192 64] 0.000000e+00
	#DEBUG_VALUE: blockLID <- 0
	#DEBUG_VALUE: mass <- [DW_OP_plus_uconst 416] [$rsp+0]
	#DEBUG_VALUE: data <- $r14
	#DEBUG_VALUE: blockParams <- $r15
	#DEBUG_VALUE: calculateMoments_V:computeSecond <- [DW_OP_plus_uconst 56] [$rsp+0]
	#DEBUG_VALUE: ....inline.__FILL_CHARARRAY <- [DW_OP_LLVM_convert 32 7, DW_OP_LLVM_convert 8 7, DW_OP_stack_value] 0
	#DEBUG_VALUE: calculateMoments_V:mpiGrid <- [DW_OP_plus_uconst 120] [$rsp+0]
	#DEBUG_VALUE: calculateMoments_V:cells <- [DW_OP_plus_uconst 8] [$rsp+0]
	.loc	1 0 1 is_stmt 0         # vlasovsolver/cpu_moments.cpp:0:1
	shlq	$8, %rax
	vxorps	%xmm2, %xmm2, %xmm2
.Ltmp287:
	.loc	1 336 1 is_stmt 1       # vlasovsolver/cpu_moments.cpp:336:1
	xorl	%ecx, %ecx
	xorl	%edx, %edx
	movabsq	$17179868928, %rbx      # imm = 0x3FFFFFF00
	vmovsd	.LCPI2_0(%rip), %xmm9   # xmm9 = mem[0],zero
	vmovsd	.LCPI2_1(%rip), %xmm10  # xmm10 = mem[0],zero
.Ltmp288:
	.p2align	4, 0x90
.LBB2_15:                               # %L.B0143
                                        #   Parent Loop BB2_6 Depth=1
                                        #     Parent Loop BB2_8 Depth=2
                                        # =>    This Inner Loop Header: Depth=3
	#DEBUG_VALUE: charge <- [DW_OP_plus_uconst 80] [$rsp+0]
	#DEBUG_VALUE: array <- [DW_OP_LLVM_fragment 0 64] 0.000000e+00
	#DEBUG_VALUE: array <- [DW_OP_LLVM_fragment 64 64] 0.000000e+00
	#DEBUG_VALUE: array <- [DW_OP_LLVM_fragment 128 64] 0.000000e+00
	#DEBUG_VALUE: array <- [DW_OP_LLVM_fragment 192 64] 0.000000e+00
	#DEBUG_VALUE: blockLID <- 0
	#DEBUG_VALUE: mass <- [DW_OP_plus_uconst 416] [$rsp+0]
	#DEBUG_VALUE: data <- $r14
	#DEBUG_VALUE: blockParams <- $r15
	#DEBUG_VALUE: calculateMoments_V:computeSecond <- [DW_OP_plus_uconst 56] [$rsp+0]
	#DEBUG_VALUE: ....inline.__FILL_CHARARRAY <- [DW_OP_LLVM_convert 32 7, DW_OP_LLVM_convert 8 7, DW_OP_stack_value] 0
	#DEBUG_VALUE: calculateMoments_V:mpiGrid <- [DW_OP_plus_uconst 120] [$rsp+0]
	#DEBUG_VALUE: calculateMoments_V:cells <- [DW_OP_plus_uconst 8] [$rsp+0]
	.loc	1 0 1 is_stmt 0         # vlasovsolver/cpu_moments.cpp:0:1
	vmovaps	%ymm2, 672(%rsp)        # 32-byte Spill
	.loc	1 337 1 is_stmt 1       # vlasovsolver/cpu_moments.cpp:337:1
	movq	%rdx, %rsi
	andq	%rbx, %rsi
	movl	%ecx, %edi
	andl	$-2, %edi
.Ltmp289:
	.loc	1 81 1                  # vlasovsolver/cpu_moments.cpp:81:1
	vmovsd	24(%r15,%rcx,8), %xmm1  # xmm1 = mem[0],zero
	vmovsd	%xmm1, 128(%rsp)        # 8-byte Spill
	vmovsd	40(%r15,%rcx,8), %xmm2  # xmm2 = mem[0],zero
	vmovsd	%xmm2, 384(%rsp)        # 8-byte Spill
	vmovsd	(%r15,%rdi,8), %xmm12   # xmm12 = mem[0],zero
	.loc	1 0 0 is_stmt 0         # vlasovsolver/cpu_moments.cpp:0:0
	vmovsd	8(%r15,%rdi,8), %xmm3   # xmm3 = mem[0],zero
	.loc	1 81 1                  # vlasovsolver/cpu_moments.cpp:81:1
	vfmadd213sd	%xmm12, %xmm1, %xmm9 # xmm9 = (xmm1 * xmm9) + xmm12
	vmovapd	%xmm9, %xmm8
	vfmadd213sd	%xmm12, %xmm1, %xmm10 # xmm10 = (xmm1 * xmm10) + xmm12
	vmovsd	.LCPI2_2(%rip), %xmm13  # xmm13 = mem[0],zero
	vfmadd213sd	%xmm12, %xmm1, %xmm13 # xmm13 = (xmm1 * xmm13) + xmm12
	vmovsd	16(%r15,%rdi,8), %xmm14 # xmm14 = mem[0],zero
	vmovsd	.LCPI2_3(%rip), %xmm11  # xmm11 = mem[0],zero
	vmovapd	%xmm11, %xmm6
	vfmadd213sd	%xmm14, %xmm2, %xmm6 # xmm6 = (xmm2 * xmm6) + xmm14
	vfmadd231sd	%xmm11, %xmm1, %xmm12 # xmm12 = (xmm1 * xmm11) + xmm12
	.loc	1 0 0                   # vlasovsolver/cpu_moments.cpp:0:0
	vmovsd	32(%r15,%rdi,8), %xmm15 # xmm15 = mem[0],zero
	.loc	1 82 1 is_stmt 1        # vlasovsolver/cpu_moments.cpp:82:1
	vfmadd213sd	%xmm3, %xmm15, %xmm11 # xmm11 = (xmm15 * xmm11) + xmm3
	vmovapd	%xmm3, %xmm9
	.loc	1 86 1                  # vlasovsolver/cpu_moments.cpp:86:1
	vmovss	(%r14,%rsi), %xmm0      # xmm0 = mem[0],zero,zero,zero
	vcvtss2sd	%xmm0, %xmm0, %xmm7
	.loc	1 81 1                  # vlasovsolver/cpu_moments.cpp:81:1
	vmovss	4(%r14,%rsi), %xmm1     # xmm1 = mem[0],zero,zero,zero
	.loc	1 87 1                  # vlasovsolver/cpu_moments.cpp:87:1
	vmovapd	%xmm7, %xmm0
	vxorpd	%xmm3, %xmm3, %xmm3
	vfmadd213sd	%xmm3, %xmm12, %xmm0 # xmm0 = (xmm12 * xmm0) + xmm3
	.loc	1 88 1                  # vlasovsolver/cpu_moments.cpp:88:1
	vmovapd	%xmm7, %xmm4
	vfmadd213sd	%xmm3, %xmm11, %xmm4 # xmm4 = (xmm11 * xmm4) + xmm3
	.loc	1 81 1                  # vlasovsolver/cpu_moments.cpp:81:1
	vcvtss2sd	%xmm1, %xmm1, %xmm1
	.loc	1 86 1                  # vlasovsolver/cpu_moments.cpp:86:1
	vaddsd	%xmm3, %xmm7, %xmm5
	.loc	1 89 1                  # vlasovsolver/cpu_moments.cpp:89:1
	vfmadd213sd	%xmm3, %xmm6, %xmm7 # xmm7 = (xmm6 * xmm7) + xmm3
	.loc	1 81 1                  # vlasovsolver/cpu_moments.cpp:81:1
	vaddsd	%xmm1, %xmm5, %xmm5
	vfmadd231sd	%xmm1, %xmm13, %xmm0 # xmm0 = (xmm13 * xmm1) + xmm0
	vfmadd231sd	%xmm1, %xmm11, %xmm4 # xmm4 = (xmm11 * xmm1) + xmm4
	vfmadd231sd	%xmm1, %xmm6, %xmm7 # xmm7 = (xmm6 * xmm1) + xmm7
	vmovss	8(%r14,%rsi), %xmm1     # xmm1 = mem[0],zero,zero,zero
	vcvtss2sd	%xmm1, %xmm1, %xmm1
	vaddsd	%xmm1, %xmm5, %xmm5
	vmovapd	%xmm10, %xmm2
	vmovsd	%xmm10, 104(%rsp)       # 8-byte Spill
	vfmadd231sd	%xmm1, %xmm10, %xmm0 # xmm0 = (xmm10 * xmm1) + xmm0
	vfmadd231sd	%xmm1, %xmm11, %xmm4 # xmm4 = (xmm11 * xmm1) + xmm4
	vfmadd231sd	%xmm1, %xmm6, %xmm7 # xmm7 = (xmm6 * xmm1) + xmm7
	vmovss	12(%r14,%rsi), %xmm1    # xmm1 = mem[0],zero,zero,zero
	vcvtss2sd	%xmm1, %xmm1, %xmm1
	vaddsd	%xmm1, %xmm5, %xmm10
	vmovapd	%xmm8, %xmm5
	vfmadd231sd	%xmm1, %xmm8, %xmm0 # xmm0 = (xmm8 * xmm1) + xmm0
	vfmadd231sd	%xmm1, %xmm11, %xmm4 # xmm4 = (xmm11 * xmm1) + xmm4
	vfmadd231sd	%xmm1, %xmm6, %xmm7 # xmm7 = (xmm6 * xmm1) + xmm7
	.loc	1 82 1                  # vlasovsolver/cpu_moments.cpp:82:1
	vmovsd	.LCPI2_2(%rip), %xmm8   # xmm8 = mem[0],zero
	vmovapd	%xmm9, %xmm3
	vfmadd213sd	%xmm9, %xmm15, %xmm8 # xmm8 = (xmm15 * xmm8) + xmm9
	.loc	1 86 1                  # vlasovsolver/cpu_moments.cpp:86:1
	vmovss	16(%r14,%rsi), %xmm1    # xmm1 = mem[0],zero,zero,zero
	vcvtss2sd	%xmm1, %xmm1, %xmm1
	vaddsd	%xmm1, %xmm10, %xmm10
	.loc	1 87 1                  # vlasovsolver/cpu_moments.cpp:87:1
	vfmadd231sd	%xmm1, %xmm12, %xmm0 # xmm0 = (xmm12 * xmm1) + xmm0
	.loc	1 88 1                  # vlasovsolver/cpu_moments.cpp:88:1
	vfmadd231sd	%xmm1, %xmm8, %xmm4 # xmm4 = (xmm8 * xmm1) + xmm4
	.loc	1 89 1                  # vlasovsolver/cpu_moments.cpp:89:1
	vfmadd231sd	%xmm1, %xmm6, %xmm7 # xmm7 = (xmm6 * xmm1) + xmm7
	.loc	1 81 1                  # vlasovsolver/cpu_moments.cpp:81:1
	vmovss	20(%r14,%rsi), %xmm1    # xmm1 = mem[0],zero,zero,zero
	vcvtss2sd	%xmm1, %xmm1, %xmm1
	vaddsd	%xmm1, %xmm10, %xmm10
	vfmadd231sd	%xmm1, %xmm13, %xmm0 # xmm0 = (xmm13 * xmm1) + xmm0
	vmovss	24(%r14,%rsi), %xmm9    # xmm9 = mem[0],zero,zero,zero
	vcvtss2sd	%xmm9, %xmm9, %xmm9
	vfmadd231sd	%xmm1, %xmm8, %xmm4 # xmm4 = (xmm8 * xmm1) + xmm4
	vfmadd231sd	%xmm1, %xmm6, %xmm7 # xmm7 = (xmm6 * xmm1) + xmm7
	vaddsd	%xmm9, %xmm10, %xmm1
	vmovsd	.LCPI2_1(%rip), %xmm10  # xmm10 = mem[0],zero
	vfmadd231sd	%xmm9, %xmm2, %xmm0 # xmm0 = (xmm2 * xmm9) + xmm0
	vfmadd231sd	%xmm9, %xmm8, %xmm4 # xmm4 = (xmm8 * xmm9) + xmm4
	vfmadd231sd	%xmm9, %xmm6, %xmm7 # xmm7 = (xmm6 * xmm9) + xmm7
	vmovss	28(%r14,%rsi), %xmm2    # xmm2 = mem[0],zero,zero,zero
	vcvtss2sd	%xmm2, %xmm2, %xmm2
	vaddsd	%xmm2, %xmm1, %xmm1
	vfmadd231sd	%xmm2, %xmm5, %xmm0 # xmm0 = (xmm5 * xmm2) + xmm0
	vmovapd	%xmm5, %xmm9
	vfmadd231sd	%xmm2, %xmm8, %xmm4 # xmm4 = (xmm8 * xmm2) + xmm4
	vfmadd231sd	%xmm2, %xmm6, %xmm7 # xmm7 = (xmm6 * xmm2) + xmm7
	.loc	1 82 1                  # vlasovsolver/cpu_moments.cpp:82:1
	vmovapd	%xmm10, %xmm2
	vfmadd213sd	%xmm3, %xmm15, %xmm2 # xmm2 = (xmm15 * xmm2) + xmm3
	vmovapd	%xmm3, %xmm5
	.loc	1 86 1                  # vlasovsolver/cpu_moments.cpp:86:1
	vmovss	32(%r14,%rsi), %xmm3    # xmm3 = mem[0],zero,zero,zero
	vcvtss2sd	%xmm3, %xmm3, %xmm3
	vaddsd	%xmm3, %xmm1, %xmm1
	.loc	1 87 1                  # vlasovsolver/cpu_moments.cpp:87:1
	vfmadd231sd	%xmm3, %xmm12, %xmm0 # xmm0 = (xmm12 * xmm3) + xmm0
	.loc	1 88 1                  # vlasovsolver/cpu_moments.cpp:88:1
	vfmadd231sd	%xmm3, %xmm2, %xmm4 # xmm4 = (xmm2 * xmm3) + xmm4
	.loc	1 89 1                  # vlasovsolver/cpu_moments.cpp:89:1
	vfmadd231sd	%xmm3, %xmm6, %xmm7 # xmm7 = (xmm6 * xmm3) + xmm7
	.loc	1 81 1                  # vlasovsolver/cpu_moments.cpp:81:1
	vmovss	36(%r14,%rsi), %xmm3    # xmm3 = mem[0],zero,zero,zero
	vcvtss2sd	%xmm3, %xmm3, %xmm3
	vaddsd	%xmm3, %xmm1, %xmm1
	vfmadd231sd	%xmm3, %xmm13, %xmm0 # xmm0 = (xmm13 * xmm3) + xmm0
	vfmadd231sd	%xmm3, %xmm2, %xmm4 # xmm4 = (xmm2 * xmm3) + xmm4
	vfmadd231sd	%xmm3, %xmm6, %xmm7 # xmm7 = (xmm6 * xmm3) + xmm7
	vmovss	40(%r14,%rsi), %xmm3    # xmm3 = mem[0],zero,zero,zero
	vcvtss2sd	%xmm3, %xmm3, %xmm3
	vaddsd	%xmm3, %xmm1, %xmm1
	vmovsd	104(%rsp), %xmm10       # 8-byte Reload
                                        # xmm10 = mem[0],zero
	vfmadd231sd	%xmm3, %xmm10, %xmm0 # xmm0 = (xmm10 * xmm3) + xmm0
	vfmadd231sd	%xmm3, %xmm2, %xmm4 # xmm4 = (xmm2 * xmm3) + xmm4
	vfmadd231sd	%xmm3, %xmm6, %xmm7 # xmm7 = (xmm6 * xmm3) + xmm7
	.loc	1 82 1                  # vlasovsolver/cpu_moments.cpp:82:1
	vfmadd132sd	.LCPI2_0(%rip), %xmm5, %xmm15 # xmm15 = (xmm15 * mem) + xmm5
	.loc	1 81 1                  # vlasovsolver/cpu_moments.cpp:81:1
	vmovss	44(%r14,%rsi), %xmm3    # xmm3 = mem[0],zero,zero,zero
	vcvtss2sd	%xmm3, %xmm3, %xmm3
	vaddsd	%xmm3, %xmm1, %xmm1
	vmovapd	%xmm9, %xmm5
	vfmadd231sd	%xmm3, %xmm9, %xmm0 # xmm0 = (xmm9 * xmm3) + xmm0
	vfmadd231sd	%xmm3, %xmm2, %xmm4 # xmm4 = (xmm2 * xmm3) + xmm4
	vfmadd231sd	%xmm3, %xmm6, %xmm7 # xmm7 = (xmm6 * xmm3) + xmm7
	.loc	1 86 1                  # vlasovsolver/cpu_moments.cpp:86:1
	vmovss	48(%r14,%rsi), %xmm3    # xmm3 = mem[0],zero,zero,zero
	vcvtss2sd	%xmm3, %xmm3, %xmm3
	vaddsd	%xmm3, %xmm1, %xmm1
	.loc	1 87 1                  # vlasovsolver/cpu_moments.cpp:87:1
	vfmadd231sd	%xmm3, %xmm12, %xmm0 # xmm0 = (xmm12 * xmm3) + xmm0
	.loc	1 88 1                  # vlasovsolver/cpu_moments.cpp:88:1
	vfmadd231sd	%xmm3, %xmm15, %xmm4 # xmm4 = (xmm15 * xmm3) + xmm4
	.loc	1 89 1                  # vlasovsolver/cpu_moments.cpp:89:1
	vfmadd231sd	%xmm3, %xmm6, %xmm7 # xmm7 = (xmm6 * xmm3) + xmm7
	.loc	1 81 1                  # vlasovsolver/cpu_moments.cpp:81:1
	vmovss	52(%r14,%rsi), %xmm3    # xmm3 = mem[0],zero,zero,zero
	vcvtss2sd	%xmm3, %xmm3, %xmm3
	vaddsd	%xmm3, %xmm1, %xmm1
	vfmadd231sd	%xmm3, %xmm13, %xmm0 # xmm0 = (xmm13 * xmm3) + xmm0
	vfmadd231sd	%xmm3, %xmm15, %xmm4 # xmm4 = (xmm15 * xmm3) + xmm4
	vfmadd231sd	%xmm3, %xmm6, %xmm7 # xmm7 = (xmm6 * xmm3) + xmm7
	vmovss	56(%r14,%rsi), %xmm3    # xmm3 = mem[0],zero,zero,zero
	vcvtss2sd	%xmm3, %xmm3, %xmm3
	vaddsd	%xmm3, %xmm1, %xmm1
	vfmadd231sd	%xmm3, %xmm10, %xmm0 # xmm0 = (xmm10 * xmm3) + xmm0
	vmovapd	%xmm10, %xmm9
	vfmadd231sd	%xmm3, %xmm15, %xmm4 # xmm4 = (xmm15 * xmm3) + xmm4
	vfmadd231sd	%xmm3, %xmm6, %xmm7 # xmm7 = (xmm6 * xmm3) + xmm7
	vmovss	60(%r14,%rsi), %xmm3    # xmm3 = mem[0],zero,zero,zero
	vcvtss2sd	%xmm3, %xmm3, %xmm3
	vfmadd231sd	%xmm6, %xmm3, %xmm7 # xmm7 = (xmm3 * xmm6) + xmm7
	vaddsd	%xmm3, %xmm1, %xmm1
	vfmadd231sd	%xmm3, %xmm5, %xmm0 # xmm0 = (xmm5 * xmm3) + xmm0
	vmovapd	%xmm5, %xmm10
	vfmadd231sd	%xmm3, %xmm15, %xmm4 # xmm4 = (xmm15 * xmm3) + xmm4
	vmovsd	.LCPI2_2(%rip), %xmm6   # xmm6 = mem[0],zero
	vfmadd132sd	384(%rsp), %xmm14, %xmm6 # 8-byte Folded Reload
                                        # xmm6 = (xmm6 * mem) + xmm14
	vmovss	64(%r14,%rsi), %xmm3    # xmm3 = mem[0],zero,zero,zero
	vcvtss2sd	%xmm3, %xmm3, %xmm3
	vaddsd	%xmm3, %xmm1, %xmm1
	vfmadd231sd	%xmm3, %xmm12, %xmm0 # xmm0 = (xmm12 * xmm3) + xmm0
	vfmadd231sd	%xmm3, %xmm11, %xmm4 # xmm4 = (xmm11 * xmm3) + xmm4
	vfmadd231sd	%xmm3, %xmm6, %xmm7 # xmm7 = (xmm6 * xmm3) + xmm7
	vmovss	68(%r14,%rsi), %xmm3    # xmm3 = mem[0],zero,zero,zero
	vcvtss2sd	%xmm3, %xmm3, %xmm3
	vaddsd	%xmm3, %xmm1, %xmm1
	vfmadd231sd	%xmm3, %xmm13, %xmm0 # xmm0 = (xmm13 * xmm3) + xmm0
	vfmadd231sd	%xmm3, %xmm11, %xmm4 # xmm4 = (xmm11 * xmm3) + xmm4
	vfmadd231sd	%xmm3, %xmm6, %xmm7 # xmm7 = (xmm6 * xmm3) + xmm7
	vmovss	72(%r14,%rsi), %xmm3    # xmm3 = mem[0],zero,zero,zero
	vcvtss2sd	%xmm3, %xmm3, %xmm3
	vaddsd	%xmm3, %xmm1, %xmm1
	vfmadd231sd	%xmm3, %xmm9, %xmm0 # xmm0 = (xmm9 * xmm3) + xmm0
	vfmadd231sd	%xmm3, %xmm11, %xmm4 # xmm4 = (xmm11 * xmm3) + xmm4
	vfmadd231sd	%xmm3, %xmm6, %xmm7 # xmm7 = (xmm6 * xmm3) + xmm7
	vmovss	76(%r14,%rsi), %xmm3    # xmm3 = mem[0],zero,zero,zero
	vcvtss2sd	%xmm3, %xmm3, %xmm3
	vaddsd	%xmm3, %xmm1, %xmm1
	vfmadd231sd	%xmm3, %xmm5, %xmm0 # xmm0 = (xmm5 * xmm3) + xmm0
	vfmadd231sd	%xmm3, %xmm11, %xmm4 # xmm4 = (xmm11 * xmm3) + xmm4
	vfmadd231sd	%xmm3, %xmm6, %xmm7 # xmm7 = (xmm6 * xmm3) + xmm7
	vmovss	80(%r14,%rsi), %xmm3    # xmm3 = mem[0],zero,zero,zero
	vcvtss2sd	%xmm3, %xmm3, %xmm3
	vaddsd	%xmm3, %xmm1, %xmm1
	vfmadd231sd	%xmm3, %xmm12, %xmm0 # xmm0 = (xmm12 * xmm3) + xmm0
	vmovss	84(%r14,%rsi), %xmm5    # xmm5 = mem[0],zero,zero,zero
	vcvtss2sd	%xmm5, %xmm5, %xmm5
	vfmadd231sd	%xmm3, %xmm8, %xmm4 # xmm4 = (xmm8 * xmm3) + xmm4
	vfmadd231sd	%xmm3, %xmm6, %xmm7 # xmm7 = (xmm6 * xmm3) + xmm7
	vaddsd	%xmm5, %xmm1, %xmm1
	vfmadd231sd	%xmm5, %xmm13, %xmm0 # xmm0 = (xmm13 * xmm5) + xmm0
	vfmadd231sd	%xmm5, %xmm8, %xmm4 # xmm4 = (xmm8 * xmm5) + xmm4
	vfmadd231sd	%xmm5, %xmm6, %xmm7 # xmm7 = (xmm6 * xmm5) + xmm7
	vmovss	88(%r14,%rsi), %xmm3    # xmm3 = mem[0],zero,zero,zero
	vcvtss2sd	%xmm3, %xmm3, %xmm3
	vaddsd	%xmm3, %xmm1, %xmm1
	vfmadd231sd	%xmm3, %xmm9, %xmm0 # xmm0 = (xmm9 * xmm3) + xmm0
	vfmadd231sd	%xmm3, %xmm8, %xmm4 # xmm4 = (xmm8 * xmm3) + xmm4
	vfmadd231sd	%xmm3, %xmm6, %xmm7 # xmm7 = (xmm6 * xmm3) + xmm7
	vmovss	92(%r14,%rsi), %xmm3    # xmm3 = mem[0],zero,zero,zero
	vcvtss2sd	%xmm3, %xmm3, %xmm3
	vaddsd	%xmm3, %xmm1, %xmm1
	vfmadd231sd	%xmm3, %xmm10, %xmm0 # xmm0 = (xmm10 * xmm3) + xmm0
	vfmadd231sd	%xmm3, %xmm8, %xmm4 # xmm4 = (xmm8 * xmm3) + xmm4
	vfmadd231sd	%xmm3, %xmm6, %xmm7 # xmm7 = (xmm6 * xmm3) + xmm7
	vmovss	96(%r14,%rsi), %xmm3    # xmm3 = mem[0],zero,zero,zero
	vcvtss2sd	%xmm3, %xmm3, %xmm3
	vaddsd	%xmm3, %xmm1, %xmm1
	vfmadd231sd	%xmm3, %xmm12, %xmm0 # xmm0 = (xmm12 * xmm3) + xmm0
	vfmadd231sd	%xmm3, %xmm2, %xmm4 # xmm4 = (xmm2 * xmm3) + xmm4
	vfmadd231sd	%xmm3, %xmm6, %xmm7 # xmm7 = (xmm6 * xmm3) + xmm7
	vmovss	100(%r14,%rsi), %xmm3   # xmm3 = mem[0],zero,zero,zero
	vcvtss2sd	%xmm3, %xmm3, %xmm3
	vaddsd	%xmm3, %xmm1, %xmm1
	vfmadd231sd	%xmm3, %xmm13, %xmm0 # xmm0 = (xmm13 * xmm3) + xmm0
	vfmadd231sd	%xmm3, %xmm2, %xmm4 # xmm4 = (xmm2 * xmm3) + xmm4
	vfmadd231sd	%xmm3, %xmm6, %xmm7 # xmm7 = (xmm6 * xmm3) + xmm7
	vmovss	104(%r14,%rsi), %xmm3   # xmm3 = mem[0],zero,zero,zero
	vcvtss2sd	%xmm3, %xmm3, %xmm3
	vaddsd	%xmm3, %xmm1, %xmm1
	vfmadd231sd	%xmm3, %xmm9, %xmm0 # xmm0 = (xmm9 * xmm3) + xmm0
	vmovss	108(%r14,%rsi), %xmm5   # xmm5 = mem[0],zero,zero,zero
	vcvtss2sd	%xmm5, %xmm5, %xmm5
	vfmadd231sd	%xmm3, %xmm2, %xmm4 # xmm4 = (xmm2 * xmm3) + xmm4
	vfmadd231sd	%xmm3, %xmm6, %xmm7 # xmm7 = (xmm6 * xmm3) + xmm7
	vaddsd	%xmm5, %xmm1, %xmm1
	vfmadd231sd	%xmm5, %xmm10, %xmm0 # xmm0 = (xmm10 * xmm5) + xmm0
	vfmadd231sd	%xmm5, %xmm2, %xmm4 # xmm4 = (xmm2 * xmm5) + xmm4
	vfmadd231sd	%xmm5, %xmm6, %xmm7 # xmm7 = (xmm6 * xmm5) + xmm7
	vmovss	112(%r14,%rsi), %xmm3   # xmm3 = mem[0],zero,zero,zero
	vcvtss2sd	%xmm3, %xmm3, %xmm3
	vaddsd	%xmm3, %xmm1, %xmm1
	vfmadd231sd	%xmm3, %xmm12, %xmm0 # xmm0 = (xmm12 * xmm3) + xmm0
	vfmadd231sd	%xmm3, %xmm15, %xmm4 # xmm4 = (xmm15 * xmm3) + xmm4
	vfmadd231sd	%xmm3, %xmm6, %xmm7 # xmm7 = (xmm6 * xmm3) + xmm7
	vmovss	116(%r14,%rsi), %xmm3   # xmm3 = mem[0],zero,zero,zero
	vcvtss2sd	%xmm3, %xmm3, %xmm3
	vaddsd	%xmm3, %xmm1, %xmm1
	vfmadd231sd	%xmm3, %xmm13, %xmm0 # xmm0 = (xmm13 * xmm3) + xmm0
	vfmadd231sd	%xmm3, %xmm15, %xmm4 # xmm4 = (xmm15 * xmm3) + xmm4
	vfmadd231sd	%xmm3, %xmm6, %xmm7 # xmm7 = (xmm6 * xmm3) + xmm7
	vmovss	120(%r14,%rsi), %xmm3   # xmm3 = mem[0],zero,zero,zero
	vcvtss2sd	%xmm3, %xmm3, %xmm3
	vaddsd	%xmm3, %xmm1, %xmm1
	vfmadd231sd	%xmm3, %xmm9, %xmm0 # xmm0 = (xmm9 * xmm3) + xmm0
	vfmadd231sd	%xmm3, %xmm15, %xmm4 # xmm4 = (xmm15 * xmm3) + xmm4
	vfmadd231sd	%xmm3, %xmm6, %xmm7 # xmm7 = (xmm6 * xmm3) + xmm7
	vmovss	124(%r14,%rsi), %xmm3   # xmm3 = mem[0],zero,zero,zero
	vcvtss2sd	%xmm3, %xmm3, %xmm3
	vfmadd231sd	%xmm6, %xmm3, %xmm7 # xmm7 = (xmm3 * xmm6) + xmm7
	vaddsd	%xmm3, %xmm1, %xmm1
	vfmadd231sd	%xmm3, %xmm10, %xmm0 # xmm0 = (xmm10 * xmm3) + xmm0
	vfmadd231sd	%xmm3, %xmm15, %xmm4 # xmm4 = (xmm15 * xmm3) + xmm4
	vmovss	128(%r14,%rsi), %xmm3   # xmm3 = mem[0],zero,zero,zero
	vcvtss2sd	%xmm3, %xmm3, %xmm3
	vmovsd	.LCPI2_1(%rip), %xmm6   # xmm6 = mem[0],zero
	vfmadd132sd	384(%rsp), %xmm14, %xmm6 # 8-byte Folded Reload
                                        # xmm6 = (xmm6 * mem) + xmm14
	vaddsd	%xmm3, %xmm1, %xmm1
	vfmadd231sd	%xmm3, %xmm12, %xmm0 # xmm0 = (xmm12 * xmm3) + xmm0
	vfmadd231sd	%xmm3, %xmm11, %xmm4 # xmm4 = (xmm11 * xmm3) + xmm4
	vfmadd231sd	%xmm3, %xmm6, %xmm7 # xmm7 = (xmm6 * xmm3) + xmm7
	vmovss	132(%r14,%rsi), %xmm3   # xmm3 = mem[0],zero,zero,zero
	vcvtss2sd	%xmm3, %xmm3, %xmm3
	vaddsd	%xmm3, %xmm1, %xmm1
	vfmadd231sd	%xmm3, %xmm13, %xmm0 # xmm0 = (xmm13 * xmm3) + xmm0
	vfmadd231sd	%xmm3, %xmm11, %xmm4 # xmm4 = (xmm11 * xmm3) + xmm4
	vfmadd231sd	%xmm3, %xmm6, %xmm7 # xmm7 = (xmm6 * xmm3) + xmm7
	vmovss	136(%r14,%rsi), %xmm3   # xmm3 = mem[0],zero,zero,zero
	vcvtss2sd	%xmm3, %xmm3, %xmm3
	vaddsd	%xmm3, %xmm1, %xmm1
	vfmadd231sd	%xmm3, %xmm9, %xmm0 # xmm0 = (xmm9 * xmm3) + xmm0
	vfmadd231sd	%xmm3, %xmm11, %xmm4 # xmm4 = (xmm11 * xmm3) + xmm4
	vfmadd231sd	%xmm3, %xmm6, %xmm7 # xmm7 = (xmm6 * xmm3) + xmm7
	vmovss	140(%r14,%rsi), %xmm3   # xmm3 = mem[0],zero,zero,zero
	vcvtss2sd	%xmm3, %xmm3, %xmm3
	vaddsd	%xmm3, %xmm1, %xmm1
	vfmadd231sd	%xmm3, %xmm10, %xmm0 # xmm0 = (xmm10 * xmm3) + xmm0
	vfmadd231sd	%xmm3, %xmm11, %xmm4 # xmm4 = (xmm11 * xmm3) + xmm4
	vfmadd231sd	%xmm3, %xmm6, %xmm7 # xmm7 = (xmm6 * xmm3) + xmm7
	vmovss	144(%r14,%rsi), %xmm3   # xmm3 = mem[0],zero,zero,zero
	vcvtss2sd	%xmm3, %xmm3, %xmm3
	vaddsd	%xmm3, %xmm1, %xmm1
	vfmadd231sd	%xmm3, %xmm12, %xmm0 # xmm0 = (xmm12 * xmm3) + xmm0
	vfmadd231sd	%xmm3, %xmm8, %xmm4 # xmm4 = (xmm8 * xmm3) + xmm4
	vfmadd231sd	%xmm3, %xmm6, %xmm7 # xmm7 = (xmm6 * xmm3) + xmm7
	vmovss	148(%r14,%rsi), %xmm3   # xmm3 = mem[0],zero,zero,zero
	vcvtss2sd	%xmm3, %xmm3, %xmm3
