; ModuleID = 'vlasovsolver/cpu_acc_sort_blocks.cpp'
target datalayout = "e-p:64:64-i64:64-f80:128-n8:16:32:64-S128"
target triple = "x86_64-pc-linux-gnu"
define internal void @pgCplus_compiled.() noinline {
L.entry:
	ret void
}


define linkonce_odr i8* @_ZnwmPv(i64 %_T38213328_19376.arg, i8* %__p.arg) #0 inlinehint !dbg !2778 {
L.entry:
	%_T38213328_19376.addr = alloca i64, align 8
	%__p.addr = alloca i8*, align 8

	call void @llvm.dbg.declare (metadata i64* %_T38213328_19376.addr, metadata !2782, metadata !2783), !dbg !2779
	store i64 %_T38213328_19376.arg, i64* %_T38213328_19376.addr, align 8, !tbaa !2790
	call void @llvm.dbg.declare (metadata i64* %_T38213328_19376.addr, metadata !2784, metadata !2783), !dbg !2779
	call void @llvm.dbg.declare (metadata i8** %__p.addr, metadata !2785, metadata !2783), !dbg !2779
	store i8* %__p.arg, i8** %__p.addr, align 8, !tbaa !2791
	call void @llvm.dbg.declare (metadata i8** %__p.addr, metadata !2786, metadata !2783), !dbg !2779
	%0 = load i8*, i8** %__p.addr, align 8, !tbaa !2791, !dbg !2787
	ret i8*  %0, !dbg !2787
}
define linkonce_odr void @_ZdlPvS_(i8* %_T38213328_19377.arg, i8* %_T38213624_19377.arg) #0 inlinehint !dbg !2795 {
L.entry:
	%_T38213328_19377.addr = alloca i8*, align 8
	%_T38213624_19377.addr = alloca i8*, align 8

	call void @llvm.dbg.declare (metadata i8** %_T38213328_19377.addr, metadata !2799, metadata !2783), !dbg !2796
	store i8* %_T38213328_19377.arg, i8** %_T38213328_19377.addr, align 8, !tbaa !2791
	call void @llvm.dbg.declare (metadata i8** %_T38213328_19377.addr, metadata !2800, metadata !2783), !dbg !2796
	call void @llvm.dbg.declare (metadata i8** %_T38213624_19377.addr, metadata !2801, metadata !2783), !dbg !2796
	store i8* %_T38213624_19377.arg, i8** %_T38213624_19377.addr, align 8, !tbaa !2791
	call void @llvm.dbg.declare (metadata i8** %_T38213624_19377.addr, metadata !2802, metadata !2783), !dbg !2796
	ret void, !dbg !2803
}

%struct._ZSt4pairIjjE = type <{ i32, i32}> 

define linkonce_odr signext i8 @_Z14paircomparatorRKSt4pairIjjES2_(%struct._ZSt4pairIjjE* %l.arg, %struct._ZSt4pairIjjE* %r.arg) #0 inlinehint !dbg !2805 {
L.entry:
	%l.addr = alloca %struct._ZSt4pairIjjE*, align 8
	%r.addr = alloca %struct._ZSt4pairIjjE*, align 8

	call void @llvm.dbg.declare (metadata %struct._ZSt4pairIjjE** %l.addr, metadata !2809, metadata !2783), !dbg !2806
	store %struct._ZSt4pairIjjE* %l.arg, %struct._ZSt4pairIjjE** %l.addr, align 8, !tbaa !2791
	call void @llvm.dbg.declare (metadata %struct._ZSt4pairIjjE** %l.addr, metadata !2810, metadata !2783), !dbg !2806
	call void @llvm.dbg.declare (metadata %struct._ZSt4pairIjjE** %r.addr, metadata !2811, metadata !2783), !dbg !2806
	store %struct._ZSt4pairIjjE* %r.arg, %struct._ZSt4pairIjjE** %r.addr, align 8, !tbaa !2791
	call void @llvm.dbg.declare (metadata %struct._ZSt4pairIjjE** %r.addr, metadata !2812, metadata !2783), !dbg !2806
	%0 = load %struct._ZSt4pairIjjE*, %struct._ZSt4pairIjjE** %l.addr, align 8, !tbaa !2791, !dbg !2813
	%1 = bitcast %struct._ZSt4pairIjjE*  %0 to i32*, !dbg !2813
	%2 = load i32, i32*  %1, align 4, !tbaa !2790, !dbg !2813
	%3 = load %struct._ZSt4pairIjjE*, %struct._ZSt4pairIjjE** %r.addr, align 8, !tbaa !2791, !dbg !2813
	%4 = bitcast %struct._ZSt4pairIjjE*  %3 to i32*, !dbg !2813
	%5 = load i32, i32*  %4, align 4, !tbaa !2790, !dbg !2813
	%6 = icmp ult i32  %2,  %5, !dbg !2813
	%7 = zext i1  %6 to i32, !dbg !2813
	%8 = trunc i32  %7 to i8, !dbg !2813
	ret i8  %8, !dbg !2813
}

%struct._ZN5vmesh14MeshParametersE = type <{ %struct._ZNSt7__cxx1112basic_stringIcSt11char_traitsIcESaIcEEE, i32, [4 x i8], [6 x double], [3 x i32], [3 x i32], i8, i8, [6 x i8], [3 x double], [3 x double], [3 x double], [3 x double], [3 x double], %struct._ZSt6vectorIjSaIjEE, %struct._ZSt6vectorIdSaIdEE, %struct._ZSt6vectorIdSaIdEE, %struct._ZSt6vectorIjSaIjEE}> 
%struct._ZSt12_Vector_baseIdSaIdEE = type <{ %struct._ZNSt12_Vector_baseIdSaIdEE12_Vector_implE}> 
%struct._ZSt6vectorIN5vmesh14MeshParametersESaIS1_EE = type <{ %struct._ZSt12_Vector_baseIN5vmesh14MeshParametersESaIS1_EE}> 
%struct._ZNSt12_Vector_baseIdSaIdEE12_Vector_implE = type <{ %struct._ZNSt12_Vector_baseIdSaIdEE17_Vector_impl_dataE}> 
%struct._ZN9__gnu_cxx5__ops15_Iter_comp_iterIPFbRKSt4pairIjjES5_EEE = type <{ i8 (%struct._ZSt4pairIjjE*, %struct._ZSt4pairIjjE*)*}> 
%struct._ZN9__gnu_cxx17__normal_iteratorIPSt4pairIjjESt6vectorIS2_SaIS2_EEEE = type <{ %struct._ZSt4pairIjjE*}> 
%struct._ZNSt12_Vector_baseIN5vmesh14MeshParametersESaIS1_EE12_Vector_implE = type <{ %struct._ZNSt12_Vector_baseIN5vmesh14MeshParametersESaIS1_EE17_Vector_impl_dataE}> 
%struct._ZSt6vectorIjSaIjEE = type <{ %struct._ZSt12_Vector_baseIjSaIjEE}> 
%struct._ZNSt12_Vector_baseIdSaIdEE17_Vector_impl_dataE = type <{ double*, double*, double*}> 
%struct._ZSt13unordered_mapIjjSt4hashIjESt8equal_toIjESaISt4pairIKjjEEE = type <{ %struct._ZSt10_HashtableIjSt4pairIKjjESaIS2_ENSt8__detail10_Select1stESt8equal_toIjESt4hashIjENS4_18_Mod_range_hashingENS4_20_Default_ranged_hashENS4_20_Prime_rehash_policyENS4_17_Hashtable_traitsILb0ELb0ELb1EEEE}> 
%struct._ZNSt12_Vector_baseIN5vmesh14MeshParametersESaIS1_EE17_Vector_impl_dataE = type <{ %struct._ZN5vmesh14MeshParametersE*, %struct._ZN5vmesh14MeshParametersE*, %struct._ZN5vmesh14MeshParametersE*}> 
%struct._ZN5vmesh12VelocityMeshIjjEE = type <{ i64, %struct._ZSt6vectorIjSaIjEE, %struct._ZSt13unordered_mapIjjSt4hashIjESt8equal_toIjESaISt4pairIKjjEEE}> 
%struct._ZNSt12_Vector_baseIjSaIjEE17_Vector_impl_dataE = type <{ i32*, i32*, i32*}> 
%struct._ZNSt12_Vector_baseISt4pairIjjESaIS1_EE17_Vector_impl_dataE = type <{ %struct._ZSt4pairIjjE*, %struct._ZSt4pairIjjE*, %struct._ZSt4pairIjjE*}> 
%struct._ZSt10_HashtableIjSt4pairIKjjESaIS2_ENSt8__detail10_Select1stESt8equal_toIjESt4hashIjENS4_18_Mod_range_hashingENS4_20_Default_ranged_hashENS4_20_Prime_rehash_policyENS4_17_Hashtable_traitsILb0ELb0ELb1EEEE = type <{ %struct._ZNSt8__detail15_Hash_node_baseE**, i64, %struct._ZNSt8__detail15_Hash_node_baseE, i64, %struct._ZNSt8__detail20_Prime_rehash_policyE, %struct._ZNSt8__detail15_Hash_node_baseE*}> 
%struct._ZSt12_Vector_baseISt4pairIjjESaIS1_EE = type <{ %struct._ZNSt12_Vector_baseISt4pairIjjESaIS1_EE12_Vector_implE}> 
%struct._ZNSt12_Vector_baseISt4pairIjjESaIS1_EE12_Vector_implE = type <{ %struct._ZNSt12_Vector_baseISt4pairIjjESaIS1_EE17_Vector_impl_dataE}> 
%struct._ZNSt7__cxx1112basic_stringIcSt11char_traitsIcESaIcEE12_Alloc_hiderE = type <{ i8*}> 
%struct._ZNSt8__detail15_Hash_node_baseE = type <{ %struct._ZNSt8__detail15_Hash_node_baseE*}> 
%struct._ZNSt7__cxx1112basic_stringIcSt11char_traitsIcESaIcEEE = type <{ %struct._ZNSt7__cxx1112basic_stringIcSt11char_traitsIcESaIcEE12_Alloc_hiderE, i64, %union.__C5}> 
%struct._ZSt12_Vector_baseIjSaIjEE = type <{ %struct._ZNSt12_Vector_baseIjSaIjEE12_Vector_implE}> 
%struct._ZSt12_Vector_baseIN5vmesh14MeshParametersESaIS1_EE = type <{ %struct._ZNSt12_Vector_baseIN5vmesh14MeshParametersESaIS1_EE12_Vector_implE}> 
%struct._ZN9__gnu_cxx17__normal_iteratorIPjSt6vectorIjSaIjEEEE = type <{ i32*}> 
%struct._ZNSt8__detail20_Prime_rehash_policyE = type <{ float, [4 x i8], i64}> 
%struct._ZNSt12_Vector_baseIjSaIjEE12_Vector_implE = type <{ %struct._ZNSt12_Vector_baseIjSaIjEE17_Vector_impl_dataE}> 
%struct._ZSt6vectorIdSaIdEE = type <{ %struct._ZSt12_Vector_baseIdSaIdEE}> 
%struct._ZSt6vectorISt4pairIjjESaIS1_EE = type <{ %struct._ZSt12_Vector_baseISt4pairIjjESaIS1_EE}> 
%astruct.dt64 = type <{ i8*, i32}> 
%union.__C5 = type <{ [16 x i8]}> 

define void @_Z24sortBlocklistByDimensionRKN5vmesh12VelocityMeshIjjEEjPjRSt6vectorIjSaIjEES8_S8_S8_(%struct._ZN5vmesh12VelocityMeshIjjEE* %vmesh.arg, i32 zeroext %dimension.arg, i32* %blocks.arg, %struct._ZSt6vectorIjSaIjEE* %columnBlockOffsets.arg, %struct._ZSt6vectorIjSaIjEE* %columnNumBlocks.arg, %struct._ZSt6vectorIjSaIjEE* %setColumnOffsets.arg, %struct._ZSt6vectorIjSaIjEE* %setNumColumns.arg) #0 personality i8* bitcast (i32 (...)* @__gxx_personality_v0 to i8*) !dbg !2828 {
L.entry:
	%vmesh.addr = alloca %struct._ZN5vmesh12VelocityMeshIjjEE*, align 8
	%dimension.addr = alloca i32, align 4
	%blocks.addr = alloca i32*, align 8
	%columnBlockOffsets.addr = alloca %struct._ZSt6vectorIjSaIjEE*, align 8
	%columnNumBlocks.addr = alloca %struct._ZSt6vectorIjSaIjEE*, align 8
	%setColumnOffsets.addr = alloca %struct._ZSt6vectorIjSaIjEE*, align 8
	%setNumColumns.addr = alloca %struct._ZSt6vectorIjSaIjEE*, align 8
	%nBlocks.addr = alloca i32, align 4
	%block_pairs.addr = alloca %struct._ZSt6vectorISt4pairIjjESaIS1_EE, align 8
	%..inline.addr = alloca i64, align 8
	%..inline.addr.1 = alloca i64, align 8
	%.ndi0002.addr = alloca i32, align 4
	%.lcr013073.addr = alloca i32, align 4
	%block.addr = alloca i32, align 4
	%.D0000.addr = alloca i32, align 4
	%.._T38221856_19756.second.addr = alloca i32, align 4
	%..inline.addr.2 = alloca %struct._ZSt4pairIjjE*, align 8
	%x_index.addr = alloca i32, align 4
	%y_index.addr = alloca i32, align 4
	%.._T38222448_19756.second.addr = alloca i32, align 4
	%..inline.addr.3 = alloca %struct._ZSt4pairIjjE*, align 8
	%x_index.addr.1 = alloca i32, align 4
	%y_index.addr.1 = alloca i32, align 4
	%z_index.addr = alloca i32, align 4
	%.._T38223632_19756.second.addr = alloca i32, align 4
	%..inline.addr.4 = alloca %struct._ZSt4pairIjjE*, align 8
	%..inline.addr.5 = alloca %struct._ZN9__gnu_cxx17__normal_iteratorIPSt4pairIjjESt6vectorIS2_SaIS2_EEEE, align 8
	%..inline.addr.6 = alloca %struct._ZN9__gnu_cxx17__normal_iteratorIPSt4pairIjjESt6vectorIS2_SaIS2_EEEE, align 8
	%..inline.addr.7 = alloca %struct._ZN9__gnu_cxx5__ops15_Iter_comp_iterIPFbRKSt4pairIjjES5_EEE, align 8
	%_T38219784_19756.addr = alloca i32, align 4
	%..inline.addr.8 = alloca %struct._ZSt6vectorIjSaIjEE*, align 8
	%..inline.addr.9 = alloca i32*, align 8
	%..inline.addr.390 = alloca %struct._ZN9__gnu_cxx17__normal_iteratorIPjSt6vectorIjSaIjEEEE, align 8
	%..inline.addr.400 = alloca %struct._ZSt6vectorIjSaIjEE*, align 8
	%..inline.addr.410 = alloca i32*, align 8
	%..inline.addr.420 = alloca %struct._ZN9__gnu_cxx17__normal_iteratorIPjSt6vectorIjSaIjEEEE, align 8
	%i.addr = alloca i32, align 4
	%.r4.1334.addr = alloca i8*, align 8
	%..inline.addr.450 = alloca %struct._ZN5vmesh14MeshParametersE*, align 8
	%column_id.addr = alloca i32, align 4
	%..inline.addr.470 = alloca %struct._ZN5vmesh14MeshParametersE*, align 8
	%dimension_id.addr = alloca i32, align 4
	%prev_column_id.addr = alloca i32, align 4
	%prev_dimension_id.addr = alloca i32, align 4
	%..inline.addr.510 = alloca %struct._ZSt6vectorIjSaIjEE*, align 8
	%..inline.addr.520 = alloca %struct._ZN9__gnu_cxx17__normal_iteratorIPjSt6vectorIjSaIjEEEE, align 8
	%_T38226000_19756.addr = alloca i32, align 4
	%..inline.addr.540 = alloca %struct._ZSt6vectorIjSaIjEE*, align 8
	%..inline.addr.550 = alloca %struct._ZN9__gnu_cxx17__normal_iteratorIPjSt6vectorIjSaIjEEEE, align 8
	%_T38226296_19756.addr = alloca i32, align 4
	%..inline.addr.570 = alloca %struct._ZSt6vectorIjSaIjEE*, align 8
	%..inline.addr.580 = alloca %struct._ZN9__gnu_cxx17__normal_iteratorIPjSt6vectorIjSaIjEEEE, align 8
	%..inline.addr.590 = alloca %struct._ZSt6vectorIjSaIjEE*, align 8
	%..inline.addr.600 = alloca i32*, align 8
	%..inline.addr.610 = alloca %struct._ZN9__gnu_cxx17__normal_iteratorIPjSt6vectorIjSaIjEEEE, align 8
	%..inline.addr.620 = alloca %struct._ZSt6vectorIjSaIjEE*, align 8
	%..inline.addr.630 = alloca i32*, align 8
	%..inline.addr.640 = alloca %struct._ZN9__gnu_cxx17__normal_iteratorIPjSt6vectorIjSaIjEEEE, align 8
	%..inline.addr.650 = alloca %struct._ZSt6vectorIjSaIjEE*, align 8
	%..inline.addr.660 = alloca i32*, align 8
	%..inline.addr.670 = alloca %struct._ZN9__gnu_cxx17__normal_iteratorIPjSt6vectorIjSaIjEEEE, align 8
	%..inline.addr.680 = alloca %struct._ZSt4pairIjjE*, align 8
	%__caught_object_address.addr = alloca i8*, align 8
	%__catch_clause_number.addr = alloca i32, align 4
	%..inline.addr.710 = alloca %struct._ZSt4pairIjjE*, align 8

	call void @llvm.dbg.declare (metadata %struct._ZN5vmesh12VelocityMeshIjjEE** %vmesh.addr, metadata !3724, metadata !2783), !dbg !2829
	store %struct._ZN5vmesh12VelocityMeshIjjEE* %vmesh.arg, %struct._ZN5vmesh12VelocityMeshIjjEE** %vmesh.addr, align 8, !tbaa !2791
	call void @llvm.dbg.declare (metadata %struct._ZN5vmesh12VelocityMeshIjjEE** %vmesh.addr, metadata !3725, metadata !2783), !dbg !2829
	call void @llvm.dbg.declare (metadata i32* %dimension.addr, metadata !3726, metadata !2783), !dbg !2829
	store i32 %dimension.arg, i32* %dimension.addr, align 4, !tbaa !2790
	call void @llvm.dbg.declare (metadata i32* %dimension.addr, metadata !3727, metadata !2783), !dbg !2829
	call void @llvm.dbg.declare (metadata i32** %blocks.addr, metadata !3728, metadata !2783), !dbg !2829
	store i32* %blocks.arg, i32** %blocks.addr, align 8, !tbaa !2791
	call void @llvm.dbg.declare (metadata i32** %blocks.addr, metadata !3729, metadata !2783), !dbg !2829
	call void @llvm.dbg.declare (metadata %struct._ZSt6vectorIjSaIjEE** %columnBlockOffsets.addr, metadata !3730, metadata !2783), !dbg !2829
	store %struct._ZSt6vectorIjSaIjEE* %columnBlockOffsets.arg, %struct._ZSt6vectorIjSaIjEE** %columnBlockOffsets.addr, align 8, !tbaa !2791
	call void @llvm.dbg.declare (metadata %struct._ZSt6vectorIjSaIjEE** %columnBlockOffsets.addr, metadata !3731, metadata !2783), !dbg !2829
	call void @llvm.dbg.declare (metadata %struct._ZSt6vectorIjSaIjEE** %columnNumBlocks.addr, metadata !3732, metadata !2783), !dbg !2829
	store %struct._ZSt6vectorIjSaIjEE* %columnNumBlocks.arg, %struct._ZSt6vectorIjSaIjEE** %columnNumBlocks.addr, align 8, !tbaa !2791
	call void @llvm.dbg.declare (metadata %struct._ZSt6vectorIjSaIjEE** %columnNumBlocks.addr, metadata !3733, metadata !2783), !dbg !2829
	call void @llvm.dbg.declare (metadata %struct._ZSt6vectorIjSaIjEE** %setColumnOffsets.addr, metadata !3734, metadata !2783), !dbg !2829
	store %struct._ZSt6vectorIjSaIjEE* %setColumnOffsets.arg, %struct._ZSt6vectorIjSaIjEE** %setColumnOffsets.addr, align 8, !tbaa !2791
	call void @llvm.dbg.declare (metadata %struct._ZSt6vectorIjSaIjEE** %setColumnOffsets.addr, metadata !3735, metadata !2783), !dbg !2829
	call void @llvm.dbg.declare (metadata %struct._ZSt6vectorIjSaIjEE** %setNumColumns.addr, metadata !3736, metadata !2783), !dbg !2829
	store %struct._ZSt6vectorIjSaIjEE* %setNumColumns.arg, %struct._ZSt6vectorIjSaIjEE** %setNumColumns.addr, align 8, !tbaa !2791
	call void @llvm.dbg.declare (metadata %struct._ZSt6vectorIjSaIjEE** %setNumColumns.addr, metadata !3737, metadata !2783), !dbg !2829
	%0 = load %struct._ZN5vmesh12VelocityMeshIjjEE*, %struct._ZN5vmesh12VelocityMeshIjjEE** %vmesh.addr, align 8, !tbaa !2791, !dbg !3738
	%1 = bitcast %struct._ZN5vmesh12VelocityMeshIjjEE*  %0 to i8*, !dbg !3738
	%2 = getelementptr i8, i8*  %1, i64 16, !dbg !3738
	%3 = bitcast i8*  %2 to i8**, !dbg !3738
	%4 = load i8*, i8**  %3, align 8, !tbaa !2791, !dbg !3738
	%5 = getelementptr i8, i8*  %1, i64 8, !dbg !3738
	%6 = bitcast i8*  %5 to i8**, !dbg !3738
	%7 = load i8*, i8**  %6, align 8, !tbaa !2791, !dbg !3738
	%8 = ptrtoint i8*  %7 to i64, !dbg !3738
	%9 = sub i64 0,  %8, !dbg !3738
	%10 = getelementptr i8, i8*  %4, i64  %9, !dbg !3738
	%11 = ptrtoint i8*  %10 to i64, !dbg !3738
	%12 = sext i32 2 to i64, !dbg !3738
	%13 = ashr i64  %11,  %12, !dbg !3738
	%14 = trunc i64  %13 to i32, !dbg !3738
	call void @llvm.dbg.declare (metadata i32* %nBlocks.addr, metadata !3739, metadata !2783), !dbg !2829
	store i32  %14, i32* %nBlocks.addr, align 4, !tbaa !3788, !dbg !3738
	call void @llvm.dbg.declare (metadata %struct._ZSt6vectorISt4pairIjjESaIS1_EE* %block_pairs.addr, metadata !3741, metadata !2783), !dbg !2829
	%15 = bitcast %struct._ZSt6vectorISt4pairIjjESaIS1_EE* %block_pairs.addr to i8**, !dbg !3740
	store i8* null, i8**  %15, align 8, !tbaa !2791, !dbg !3740
	%16 = bitcast %struct._ZSt6vectorISt4pairIjjESaIS1_EE* %block_pairs.addr to i8*, !dbg !3740
	%17 = getelementptr i8, i8*  %16, i64 8, !dbg !3740
	%18 = bitcast i8*  %17 to i8**, !dbg !3740
	store i8* null, i8**  %18, align 8, !tbaa !2791, !dbg !3740
	%19 = getelementptr i8, i8*  %16, i64 16, !dbg !3740
	%20 = bitcast i8*  %19 to i8**, !dbg !3740
	store i8* null, i8**  %20, align 8, !tbaa !2791, !dbg !3740
	%21 = load i32, i32* %nBlocks.addr, align 4, !tbaa !3788, !dbg !3742
	%22 = zext i32  %21 to i64, !dbg !3742
	store i64  %22, i64* %..inline.addr, align 8, !tbaa !3790, !dbg !3742
	%23 = ptrtoint i8* null to i64, !dbg !3743
	%24 = sub i64 0,  %23, !dbg !3743
	%25 = getelementptr i8, i8* null, i64  %24, !dbg !3743
	%26 = ptrtoint i8*  %25 to i64, !dbg !3743
	%27 = sext i32 3 to i64, !dbg !3743
	%28 = ashr i64  %26,  %27, !dbg !3743
	%29 = icmp ule i64  %22,  %28, !dbg !3743
	br i1  %29, label %L..inline.40725, label %L.B1777, !dbg !3743
L.B1777:
	%30 = bitcast %struct._ZSt6vectorISt4pairIjjESaIS1_EE* %block_pairs.addr to i8*, !dbg !3744
	%31 = getelementptr i8, i8*  %30, i64 8, !dbg !3744
	%32 = bitcast i8*  %31 to i8**, !dbg !3744
	%33 = load i8*, i8**  %32, align 8, !tbaa !2791, !dbg !3744
	%34 = bitcast %struct._ZSt6vectorISt4pairIjjESaIS1_EE* %block_pairs.addr to i8**, !dbg !3744
	%35 = load i8*, i8**  %34, align 8, !tbaa !2791, !dbg !3744
	%36 = ptrtoint i8*  %35 to i64, !dbg !3744
	%37 = sub i64 0,  %36, !dbg !3744
	%38 = getelementptr i8, i8*  %33, i64  %37, !dbg !3744
	%39 = ptrtoint i8*  %38 to i64, !dbg !3744
	%40 = sext i32 3 to i64, !dbg !3744
	%41 = ashr i64  %39,  %40, !dbg !3744
	%42 = sub i64  %22,  %41, !dbg !3744
	invoke void  @_ZNSt6vectorISt4pairIjjESaIS1_EE17_M_default_appendEm (%struct._ZSt6vectorISt4pairIjjESaIS1_EE* %block_pairs.addr, i64  %42)
		to label %L.B1778
		unwind label %L_T38226592_19756, !dbg !3744
L.B1778:
	br label %L..inline.40733, !dbg !3744
L..inline.40725:
	%43 = load i32, i32* %nBlocks.addr, align 4, !tbaa !3788, !dbg !3745
	%44 = zext i32  %43 to i64, !dbg !3745
	%45 = bitcast %struct._ZSt6vectorISt4pairIjjESaIS1_EE* %block_pairs.addr to i8*, !dbg !3745
	%46 = getelementptr i8, i8*  %45, i64 8, !dbg !3745
	%47 = bitcast i8*  %46 to i8**, !dbg !3745
	%48 = load i8*, i8**  %47, align 8, !tbaa !2791, !dbg !3745
	%49 = bitcast %struct._ZSt6vectorISt4pairIjjESaIS1_EE* %block_pairs.addr to i8**, !dbg !3745
	%50 = load i8*, i8**  %49, align 8, !tbaa !2791, !dbg !3745
	%51 = ptrtoint i8*  %50 to i64, !dbg !3745
	%52 = sub i64 0,  %51, !dbg !3745
	%53 = getelementptr i8, i8*  %48, i64  %52, !dbg !3745
	%54 = ptrtoint i8*  %53 to i64, !dbg !3745
	%55 = sext i32 3 to i64, !dbg !3745
	%56 = ashr i64  %54,  %55, !dbg !3745
	%57 = icmp uge i64  %44,  %56, !dbg !3745
	br i1  %57, label %L..inline.40741, label %L.B1779, !dbg !3745
L.B1779:
	%58 = bitcast %struct._ZSt6vectorISt4pairIjjESaIS1_EE* %block_pairs.addr to i8*, !dbg !3746
	%59 = getelementptr i8, i8*  %58, i64 8, !dbg !3746
	%60 = bitcast i8*  %59 to i8**, !dbg !3746
	%61 = load i8*, i8**  %60, align 8, !tbaa !2791, !dbg !3746
	%62 = bitcast %struct._ZSt6vectorISt4pairIjjESaIS1_EE* %block_pairs.addr to i8**, !dbg !3746
	%63 = load i8*, i8**  %62, align 8, !tbaa !2791, !dbg !3746
	%64 = load i64, i64* %..inline.addr, align 8, !tbaa !3790, !dbg !3746
	%65 = mul i64  %64, 8, !dbg !3746
	%66 = getelementptr i8, i8*  %63, i64  %65, !dbg !3746
	%67 = ptrtoint i8*  %66 to i64, !dbg !3746
	%68 = sub i64 0,  %67, !dbg !3746
	%69 = getelementptr i8, i8*  %61, i64  %68, !dbg !3746
	%70 = ptrtoint i8*  %69 to i64, !dbg !3746
	%71 = sext i32 3 to i64, !dbg !3746
	%72 = ashr i64  %70,  %71, !dbg !3746
	%73 = icmp eq i64  %72, 0, !dbg !3746
	%74 = zext i1  %73 to i32, !dbg !3746
	%75 = trunc i32  %74 to i1, !dbg !3746
	%76 = mul i64  %64, 8, !dbg !3746
	%77 = getelementptr i8, i8*  %63, i64  %76, !dbg !3746
	%78 = select i1  %75, i8*  %61, i8*  %77, !dbg !3746
	store i8*  %78, i8**  %60, align 8, !tbaa !2791, !dbg !3746
	br label %L..inline.40741
L..inline.40741:
	br label %L..inline.40733
L..inline.40733:
	%79 = load i32, i32* %nBlocks.addr, align 4, !tbaa !3788, !dbg !3747
	%80 = icmp eq i32  %79, 0, !dbg !3747
	br i1  %80, label %L.B0002, label %L.B1780, !dbg !3747
L.B1780:
	store i32 0, i32* %.ndi0002.addr, align 4, !tbaa !3788, !dbg !3747
	store i32  %79, i32* %.lcr013073.addr, align 4, !tbaa !3788, !dbg !3747
	br label %L.B1776
L.B1776:
	%81 = load i32, i32* %.ndi0002.addr, align 4, !tbaa !3788, !dbg !3747
	%82 = zext i32  %81 to i64, !dbg !3747
	%83 = load %struct._ZN5vmesh12VelocityMeshIjjEE*, %struct._ZN5vmesh12VelocityMeshIjjEE** %vmesh.addr, align 8, !tbaa !2791, !dbg !3747
	%84 = bitcast %struct._ZN5vmesh12VelocityMeshIjjEE*  %83 to i8*, !dbg !3747
	%85 = getelementptr i8, i8*  %84, i64 8, !dbg !3747
	%86 = bitcast i8*  %85 to i32**, !dbg !3747
	%87 = load i32*, i32**  %86, align 8, !tbaa !2791, !dbg !3747
	%88 = getelementptr i32, i32*  %87, i64  %82, !dbg !3747
	%89 = load i32, i32*  %88, align 4, !tbaa !2790, !dbg !3747
	call void @llvm.dbg.declare (metadata i32* %block.addr, metadata !3748, metadata !2783), !dbg !2835
	store i32  %89, i32* %block.addr, align 4, !tbaa !3788, !dbg !3747
	%90 = load i32, i32* %dimension.addr, align 4, !tbaa !3788, !dbg !3747
	store i32  %90, i32* %.D0000.addr, align 4, !tbaa !3788, !dbg !3747
	%91 = icmp eq i32  %90, 0, !dbg !3747
	br i1  %91, label %L.B0005, label %L.B1781, !dbg !3747
L.B1781:
	%92 = icmp eq i32  %90, 1, !dbg !3747
	br i1  %92, label %L.B0008, label %L.B1782, !dbg !3747
L.B1782:
	%93 = icmp eq i32  %90, 2, !dbg !3747
	br i1  %93, label %L.B0011, label %L.B1783, !dbg !3747
L.B1783:
	br label %L.B0014, !dbg !3747
L.B0005:
	%94 = load i32, i32* %.ndi0002.addr, align 4, !tbaa !3788, !dbg !3747
	%95 = zext i32  %94 to i64, !dbg !3747
	%96 = load %struct._ZN5vmesh12VelocityMeshIjjEE*, %struct._ZN5vmesh12VelocityMeshIjjEE** %vmesh.addr, align 8, !tbaa !2791, !dbg !3747
	%97 = bitcast %struct._ZN5vmesh12VelocityMeshIjjEE*  %96 to i8*, !dbg !3747
	%98 = getelementptr i8, i8*  %97, i64 8, !dbg !3747
	%99 = bitcast i8*  %98 to i32**, !dbg !3747
	%100 = load i32*, i32**  %99, align 8, !tbaa !2791, !dbg !3747
	%101 = getelementptr i32, i32*  %100, i64  %95, !dbg !3747
	%102 = load i32, i32*  %101, align 4, !tbaa !2790, !dbg !3747
	call void @llvm.dbg.declare (metadata i32* %.._T38221856_19756.second.addr, metadata !3749, metadata !2783), !dbg !2831
	%103 = bitcast %struct._ZSt6vectorISt4pairIjjESaIS1_EE* %block_pairs.addr to i8**, !dbg !3747
	%104 = load i8*, i8**  %103, align 8, !tbaa !2791, !dbg !3747
	%105 = load i32, i32* %.ndi0002.addr, align 4, !tbaa !3788, !dbg !3747
	%106 = zext i32  %105 to i64, !dbg !3747
	%107 = mul i64  %106, 8, !dbg !3747
	%108 = getelementptr i8, i8*  %104, i64  %107, !dbg !3747
	%109 = bitcast %struct._ZSt4pairIjjE** %..inline.addr.2 to i8**, !dbg !3747
	store i8*  %108, i8**  %109, align 8, !tbaa !2791, !dbg !3747
	%110 = load %struct._ZN5vmesh12VelocityMeshIjjEE*, %struct._ZN5vmesh12VelocityMeshIjjEE** %vmesh.addr, align 8, !tbaa !2791, !dbg !3747
	%111 = bitcast %struct._ZN5vmesh12VelocityMeshIjjEE*  %110 to i8*, !dbg !3747
	%112 = getelementptr i8, i8*  %111, i64 8, !dbg !3747
	%113 = bitcast i8*  %112 to i32**, !dbg !3747
	%114 = load i32*, i32**  %113, align 8, !tbaa !2791, !dbg !3747
	%115 = getelementptr i32, i32*  %114, i64  %106, !dbg !3747
	%116 = load i32, i32*  %115, align 4, !tbaa !2790, !dbg !3747
	%117 = mul i64  %106, 8, !dbg !3747
	%118 = getelementptr i8, i8*  %104, i64  %117, !dbg !3747
	%119 = bitcast i8*  %118 to i32*, !dbg !3747
	store i32  %116, i32*  %119, align 4, !tbaa !2790, !dbg !3747
	%120 = load %struct._ZSt4pairIjjE*, %struct._ZSt4pairIjjE** %..inline.addr.2, align 8, !tbaa !2791, !dbg !3747
	%121 = bitcast %struct._ZSt4pairIjjE*  %120 to i8*, !dbg !3747
	%122 = getelementptr i8, i8*  %121, i64 4, !dbg !3747
	%123 = bitcast i8*  %122 to i32*, !dbg !3747
	store i32  %102, i32*  %123, align 4, !tbaa !2790, !dbg !3747
	br label %L_T38227072_19756, !dbg !3747
L.B0008:
	%124 = load i32, i32* %block.addr, align 4, !tbaa !3788, !dbg !3747
	%125 = bitcast %struct._ZSt6vectorIN5vmesh14MeshParametersESaIS1_EE* @_ZN5vmesh12VelocityMeshIjjE14meshParametersE to i8**, !dbg !3747
	%126 = load i8*, i8**  %125, align 8, !tbaa !2791, !dbg !3747
	%127 = getelementptr i8, i8*  %126, i64 88, !dbg !3747
	%128 = load %struct._ZN5vmesh12VelocityMeshIjjEE*, %struct._ZN5vmesh12VelocityMeshIjjEE** %vmesh.addr, align 8, !tbaa !2791, !dbg !3747
	%129 = bitcast %struct._ZN5vmesh12VelocityMeshIjjEE*  %128 to i64*, !dbg !3747
	%130 = load i64, i64*  %129, align 8, !tbaa !2790, !dbg !3747
	%131 = mul i64  %130, 336, !dbg !3747
	%132 = getelementptr i8, i8*  %127, i64  %131, !dbg !3747
	%133 = bitcast i8*  %132 to i32*, !dbg !3747
	%134 = load i32, i32*  %133, align 4, !tbaa !2790, !dbg !3747
	%135 = urem i32  %124,  %134, !dbg !3747
	call void @llvm.dbg.declare (metadata i32* %x_index.addr, metadata !3752, metadata !2783), !dbg !2841
	store i32  %135, i32* %x_index.addr, align 4, !tbaa !3788, !dbg !3747
	%136 = load i32, i32* %block.addr, align 4, !tbaa !3788, !dbg !3747
	%137 = load i8*, i8**  %125, align 8, !tbaa !2791, !dbg !3747
	%138 = getelementptr i8, i8*  %137, i64 88, !dbg !3747
	%139 = load %struct._ZN5vmesh12VelocityMeshIjjEE*, %struct._ZN5vmesh12VelocityMeshIjjEE** %vmesh.addr, align 8, !tbaa !2791, !dbg !3747
	%140 = bitcast %struct._ZN5vmesh12VelocityMeshIjjEE*  %139 to i64*, !dbg !3747
	%141 = load i64, i64*  %140, align 8, !tbaa !2790, !dbg !3747
	%142 = mul i64  %141, 336, !dbg !3747
	%143 = getelementptr i8, i8*  %138, i64  %142, !dbg !3747
	%144 = bitcast i8*  %143 to i32*, !dbg !3747
	%145 = load i32, i32*  %144, align 4, !tbaa !2790, !dbg !3747
	%146 = udiv i32  %136,  %145, !dbg !3747
	%147 = getelementptr i8, i8*  %137, i64 92, !dbg !3747
	%148 = mul i64  %141, 336, !dbg !3747
	%149 = getelementptr i8, i8*  %147, i64  %148, !dbg !3747
	%150 = bitcast i8*  %149 to i32*, !dbg !3747
	%151 = load i32, i32*  %150, align 4, !tbaa !2790, !dbg !3747
	%152 = urem i32  %146,  %151, !dbg !3747
	call void @llvm.dbg.declare (metadata i32* %y_index.addr, metadata !3753, metadata !2783), !dbg !2841
	store i32  %152, i32* %y_index.addr, align 4, !tbaa !3788, !dbg !3747
	%153 = load i32, i32* %.ndi0002.addr, align 4, !tbaa !3788, !dbg !3747
	%154 = zext i32  %153 to i64, !dbg !3747
	%155 = load %struct._ZN5vmesh12VelocityMeshIjjEE*, %struct._ZN5vmesh12VelocityMeshIjjEE** %vmesh.addr, align 8, !tbaa !2791, !dbg !3747
	%156 = bitcast %struct._ZN5vmesh12VelocityMeshIjjEE*  %155 to i8*, !dbg !3747
	%157 = getelementptr i8, i8*  %156, i64 8, !dbg !3747
	%158 = bitcast i8*  %157 to i32**, !dbg !3747
	%159 = load i32*, i32**  %158, align 8, !tbaa !2791, !dbg !3747
	%160 = getelementptr i32, i32*  %159, i64  %154, !dbg !3747
	%161 = load i32, i32*  %160, align 4, !tbaa !2790, !dbg !3747
	call void @llvm.dbg.declare (metadata i32* %.._T38222448_19756.second.addr, metadata !3754, metadata !2783), !dbg !2831
	%162 = bitcast %struct._ZSt6vectorISt4pairIjjESaIS1_EE* %block_pairs.addr to i8**, !dbg !3747
	%163 = load i8*, i8**  %162, align 8, !tbaa !2791, !dbg !3747
	%164 = load i32, i32* %.ndi0002.addr, align 4, !tbaa !3788, !dbg !3747
	%165 = zext i32  %164 to i64, !dbg !3747
	%166 = mul i64  %165, 8, !dbg !3747
	%167 = getelementptr i8, i8*  %163, i64  %166, !dbg !3747
	%168 = bitcast %struct._ZSt4pairIjjE** %..inline.addr.3 to i8**, !dbg !3747
	store i8*  %167, i8**  %168, align 8, !tbaa !2791, !dbg !3747
	%169 = load %struct._ZN5vmesh12VelocityMeshIjjEE*, %struct._ZN5vmesh12VelocityMeshIjjEE** %vmesh.addr, align 8, !tbaa !2791, !dbg !3747
	%170 = bitcast %struct._ZN5vmesh12VelocityMeshIjjEE*  %169 to i8*, !dbg !3747
	%171 = getelementptr i8, i8*  %170, i64 8, !dbg !3747
	%172 = bitcast i8*  %171 to i32**, !dbg !3747
	%173 = load i32*, i32**  %172, align 8, !tbaa !2791, !dbg !3747
	%174 = getelementptr i32, i32*  %173, i64  %165, !dbg !3747
	%175 = load i32, i32*  %174, align 4, !tbaa !2790, !dbg !3747
	%176 = load i32, i32* %x_index.addr, align 4, !tbaa !3788, !dbg !3747
	%177 = load i32, i32* %y_index.addr, align 4, !tbaa !3788, !dbg !3747
	%178 = load i8*, i8**  %125, align 8, !tbaa !2791, !dbg !3747
	%179 = getelementptr i8, i8*  %178, i64 88, !dbg !3747
	%180 = bitcast %struct._ZN5vmesh12VelocityMeshIjjEE*  %169 to i64*, !dbg !3747
	%181 = load i64, i64*  %180, align 8, !tbaa !2790, !dbg !3747
	%182 = mul i64  %181, 336, !dbg !3747
	%183 = getelementptr i8, i8*  %179, i64  %182, !dbg !3747
	%184 = bitcast i8*  %183 to i32*, !dbg !3747
	%185 = load i32, i32*  %184, align 4, !tbaa !2790, !dbg !3747
	%186 = mul i32  %177,  %185, !dbg !3747
	%187 = add i32  %176,  %186, !dbg !3747
	%188 = sub i32  %175,  %187, !dbg !3747
	%189 = add i32  %188,  %177, !dbg !3747
	%190 = getelementptr i8, i8*  %178, i64 92, !dbg !3747
	%191 = mul i64  %181, 336, !dbg !3747
	%192 = getelementptr i8, i8*  %190, i64  %191, !dbg !3747
	%193 = bitcast i8*  %192 to i32*, !dbg !3747
	%194 = load i32, i32*  %193, align 4, !tbaa !2790, !dbg !3747
	%195 = mul i32  %176,  %194, !dbg !3747
	%196 = add i32  %189,  %195, !dbg !3747
	%197 = mul i64  %165, 8, !dbg !3747
	%198 = getelementptr i8, i8*  %163, i64  %197, !dbg !3747
	%199 = bitcast i8*  %198 to i32*, !dbg !3747
	store i32  %196, i32*  %199, align 4, !tbaa !2790, !dbg !3747
	%200 = load %struct._ZSt4pairIjjE*, %struct._ZSt4pairIjjE** %..inline.addr.3, align 8, !tbaa !2791, !dbg !3747
	%201 = bitcast %struct._ZSt4pairIjjE*  %200 to i8*, !dbg !3747
	%202 = getelementptr i8, i8*  %201, i64 4, !dbg !3747
	%203 = bitcast i8*  %202 to i32*, !dbg !3747
	store i32  %161, i32*  %203, align 4, !tbaa !2790, !dbg !3747
	br label %L_T38227072_19756, !dbg !3747
L.B0011:
	%204 = load i32, i32* %block.addr, align 4, !tbaa !3788, !dbg !3747
	%205 = bitcast %struct._ZSt6vectorIN5vmesh14MeshParametersESaIS1_EE* @_ZN5vmesh12VelocityMeshIjjE14meshParametersE to i8**, !dbg !3747
	%206 = load i8*, i8**  %205, align 8, !tbaa !2791, !dbg !3747
	%207 = getelementptr i8, i8*  %206, i64 88, !dbg !3747
	%208 = load %struct._ZN5vmesh12VelocityMeshIjjEE*, %struct._ZN5vmesh12VelocityMeshIjjEE** %vmesh.addr, align 8, !tbaa !2791, !dbg !3747
	%209 = bitcast %struct._ZN5vmesh12VelocityMeshIjjEE*  %208 to i64*, !dbg !3747
	%210 = load i64, i64*  %209, align 8, !tbaa !2790, !dbg !3747
	%211 = mul i64  %210, 336, !dbg !3747
	%212 = getelementptr i8, i8*  %207, i64  %211, !dbg !3747
	%213 = bitcast i8*  %212 to i32*, !dbg !3747
	%214 = load i32, i32*  %213, align 4, !tbaa !2790, !dbg !3747
	%215 = urem i32  %204,  %214, !dbg !3747
	call void @llvm.dbg.declare (metadata i32* %x_index.addr.1, metadata !3755, metadata !2783), !dbg !2843
	store i32  %215, i32* %x_index.addr.1, align 4, !tbaa !3788, !dbg !3747
	%216 = load i32, i32* %block.addr, align 4, !tbaa !3788, !dbg !3747
	%217 = load i8*, i8**  %205, align 8, !tbaa !2791, !dbg !3747
	%218 = getelementptr i8, i8*  %217, i64 88, !dbg !3747
	%219 = load %struct._ZN5vmesh12VelocityMeshIjjEE*, %struct._ZN5vmesh12VelocityMeshIjjEE** %vmesh.addr, align 8, !tbaa !2791, !dbg !3747
	%220 = bitcast %struct._ZN5vmesh12VelocityMeshIjjEE*  %219 to i64*, !dbg !3747
	%221 = load i64, i64*  %220, align 8, !tbaa !2790, !dbg !3747
	%222 = mul i64  %221, 336, !dbg !3747
	%223 = getelementptr i8, i8*  %218, i64  %222, !dbg !3747
	%224 = bitcast i8*  %223 to i32*, !dbg !3747
	%225 = load i32, i32*  %224, align 4, !tbaa !2790, !dbg !3747
	%226 = udiv i32  %216,  %225, !dbg !3747
	%227 = getelementptr i8, i8*  %217, i64 92, !dbg !3747
	%228 = mul i64  %221, 336, !dbg !3747
	%229 = getelementptr i8, i8*  %227, i64  %228, !dbg !3747
	%230 = bitcast i8*  %229 to i32*, !dbg !3747
	%231 = load i32, i32*  %230, align 4, !tbaa !2790, !dbg !3747
	%232 = urem i32  %226,  %231, !dbg !3747
	call void @llvm.dbg.declare (metadata i32* %y_index.addr.1, metadata !3756, metadata !2783), !dbg !2843
	store i32  %232, i32* %y_index.addr.1, align 4, !tbaa !3788, !dbg !3747
	%233 = load i32, i32* %block.addr, align 4, !tbaa !3788, !dbg !3747
	%234 = load i8*, i8**  %205, align 8, !tbaa !2791, !dbg !3747
	%235 = getelementptr i8, i8*  %234, i64 88, !dbg !3747
	%236 = load %struct._ZN5vmesh12VelocityMeshIjjEE*, %struct._ZN5vmesh12VelocityMeshIjjEE** %vmesh.addr, align 8, !tbaa !2791, !dbg !3747
	%237 = bitcast %struct._ZN5vmesh12VelocityMeshIjjEE*  %236 to i64*, !dbg !3747
	%238 = load i64, i64*  %237, align 8, !tbaa !2790, !dbg !3747
	%239 = mul i64  %238, 336, !dbg !3747
	%240 = getelementptr i8, i8*  %235, i64  %239, !dbg !3747
	%241 = bitcast i8*  %240 to i32*, !dbg !3747
	%242 = load i32, i32*  %241, align 4, !tbaa !2790, !dbg !3747
	%243 = getelementptr i8, i8*  %234, i64 92, !dbg !3747
	%244 = mul i64  %238, 336, !dbg !3747
	%245 = getelementptr i8, i8*  %243, i64  %244, !dbg !3747
	%246 = bitcast i8*  %245 to i32*, !dbg !3747
	%247 = load i32, i32*  %246, align 4, !tbaa !2790, !dbg !3747
	%248 = mul i32  %242,  %247, !dbg !3747
	%249 = udiv i32  %233,  %248, !dbg !3747
	call void @llvm.dbg.declare (metadata i32* %z_index.addr, metadata !3757, metadata !2783), !dbg !2843
	store i32  %249, i32* %z_index.addr, align 4, !tbaa !3788, !dbg !3747
	%250 = load i32, i32* %block.addr, align 4, !tbaa !3788, !dbg !3747
	call void @llvm.dbg.declare (metadata i32* %.._T38223632_19756.second.addr, metadata !3758, metadata !2783), !dbg !2831
	%251 = bitcast %struct._ZSt6vectorISt4pairIjjESaIS1_EE* %block_pairs.addr to i8**, !dbg !3747
	%252 = load i8*, i8**  %251, align 8, !tbaa !2791, !dbg !3747
	%253 = load i32, i32* %.ndi0002.addr, align 4, !tbaa !3788, !dbg !3747
	%254 = zext i32  %253 to i64, !dbg !3747
	%255 = mul i64  %254, 8, !dbg !3747
	%256 = getelementptr i8, i8*  %252, i64  %255, !dbg !3747
	%257 = bitcast %struct._ZSt4pairIjjE** %..inline.addr.4 to i8**, !dbg !3747
	store i8*  %256, i8**  %257, align 8, !tbaa !2791, !dbg !3747
	%258 = load i8*, i8**  %205, align 8, !tbaa !2791, !dbg !3747
	%259 = getelementptr i8, i8*  %258, i64 96, !dbg !3747
	%260 = load %struct._ZN5vmesh12VelocityMeshIjjEE*, %struct._ZN5vmesh12VelocityMeshIjjEE** %vmesh.addr, align 8, !tbaa !2791, !dbg !3747
	%261 = bitcast %struct._ZN5vmesh12VelocityMeshIjjEE*  %260 to i64*, !dbg !3747
	%262 = load i64, i64*  %261, align 8, !tbaa !2790, !dbg !3747
	%263 = mul i64  %262, 336, !dbg !3747
	%264 = getelementptr i8, i8*  %259, i64  %263, !dbg !3747
	%265 = bitcast i8*  %264 to i32*, !dbg !3747
	%266 = load i32, i32*  %265, align 4, !tbaa !2790, !dbg !3747
	%267 = load i32, i32* %x_index.addr.1, align 4, !tbaa !3788, !dbg !3747
	%268 = getelementptr i8, i8*  %258, i64 92, !dbg !3747
	%269 = mul i64  %262, 336, !dbg !3747
	%270 = getelementptr i8, i8*  %268, i64  %269, !dbg !3747
	%271 = bitcast i8*  %270 to i32*, !dbg !3747
	%272 = load i32, i32*  %271, align 4, !tbaa !2790, !dbg !3747
	%273 = mul i32  %267,  %272, !dbg !3747
	%274 = mul i32  %266,  %273, !dbg !3747
	%275 = load i32, i32* %z_index.addr, align 4, !tbaa !3788, !dbg !3747
	%276 = load i32, i32* %y_index.addr.1, align 4, !tbaa !3788, !dbg !3747
	%277 = mul i64  %262, 336, !dbg !3747
	%278 = getelementptr i8, i8*  %259, i64  %277, !dbg !3747
	%279 = bitcast i8*  %278 to i32*, !dbg !3747
	%280 = load i32, i32*  %279, align 4, !tbaa !2790, !dbg !3747
	%281 = mul i32  %276,  %280, !dbg !3747
	%282 = add i32  %275,  %281, !dbg !3747
	%283 = add i32  %274,  %282, !dbg !3747
	%284 = mul i64  %254, 8, !dbg !3747
	%285 = getelementptr i8, i8*  %252, i64  %284, !dbg !3747
	%286 = bitcast i8*  %285 to i32*, !dbg !3747
	store i32  %283, i32*  %286, align 4, !tbaa !2790, !dbg !3747
	%287 = load %struct._ZSt4pairIjjE*, %struct._ZSt4pairIjjE** %..inline.addr.4, align 8, !tbaa !2791, !dbg !3747
	%288 = bitcast %struct._ZSt4pairIjjE*  %287 to i8*, !dbg !3747
	%289 = getelementptr i8, i8*  %288, i64 4, !dbg !3747
	%290 = bitcast i8*  %289 to i32*, !dbg !3747
	store i32  %250, i32*  %290, align 4, !tbaa !2790, !dbg !3747
	br label %L_T38227072_19756, !dbg !3747
L.B0014:
	br label %L_T38227072_19756
L_T38227072_19756:
	%291 = load i32, i32* %.ndi0002.addr, align 4, !tbaa !3788, !dbg !3747
	%292 = add i32  %291, 1, !dbg !3747
	store i32  %292, i32* %.ndi0002.addr, align 4, !tbaa !3788, !dbg !3747
	%293 = load i32, i32* %.lcr013073.addr, align 4, !tbaa !3788, !dbg !3747
	%294 = icmp slt i32  %292,  %293, !dbg !3747
	br i1  %294, label %L.B1776, label %L.B0002, !dbg !3747
L.B0002:
	%295 = bitcast %struct._ZSt6vectorISt4pairIjjESaIS1_EE* %block_pairs.addr to i8**, !dbg !3759
	%296 = load i8*, i8**  %295, align 8, !tbaa !2791, !dbg !3759
	%297 = bitcast %struct._ZN9__gnu_cxx17__normal_iteratorIPSt4pairIjjESt6vectorIS2_SaIS2_EEEE* %..inline.addr.5 to i8**, !dbg !3759
	store i8*  %296, i8**  %297, align 8, !tbaa !2791, !dbg !3759
	%298 = bitcast %struct._ZSt6vectorISt4pairIjjESaIS1_EE* %block_pairs.addr to i8*, !dbg !3760
	%299 = getelementptr i8, i8*  %298, i64 8, !dbg !3760
	%300 = bitcast i8*  %299 to i8**, !dbg !3760
	%301 = load i8*, i8**  %300, align 8, !tbaa !2791, !dbg !3760
	%302 = bitcast %struct._ZN9__gnu_cxx17__normal_iteratorIPSt4pairIjjESt6vectorIS2_SaIS2_EEEE* %..inline.addr.6 to i8**, !dbg !3760
	store i8*  %301, i8**  %302, align 8, !tbaa !2791, !dbg !3760
	%303 = bitcast i8 (%struct._ZSt4pairIjjE*, %struct._ZSt4pairIjjE*)* @_Z14paircomparatorRKSt4pairIjjES2_ to i8*, !dbg !3761
	%304 = bitcast %struct._ZN9__gnu_cxx5__ops15_Iter_comp_iterIPFbRKSt4pairIjjES5_EEE* %..inline.addr.7 to i8**, !dbg !3761
	store i8*  %303, i8**  %304, align 8, !tbaa !2791, !dbg !3761
	%305 = bitcast %struct._ZN9__gnu_cxx17__normal_iteratorIPSt4pairIjjESt6vectorIS2_SaIS2_EEEE* %..inline.addr.5 to i64*, !dbg !3761
	%306 = load i64, i64*  %305, align 8, !tbaa !2790, !dbg !3761
	%307 = bitcast %struct._ZN9__gnu_cxx17__normal_iteratorIPSt4pairIjjESt6vectorIS2_SaIS2_EEEE* %..inline.addr.6 to i64*, !dbg !3761
	%308 = load i64, i64*  %307, align 8, !tbaa !2790, !dbg !3761
	%309 = bitcast %struct._ZN9__gnu_cxx5__ops15_Iter_comp_iterIPFbRKSt4pairIjjES5_EEE* %..inline.addr.7 to i64*, !dbg !3761
	%310 = load i64, i64*  %309, align 8, !tbaa !2790, !dbg !3761
	invoke void  @_ZSt6__sortIN9__gnu_cxx17__normal_iteratorIPSt4pairIjjESt6vectorIS3_SaIS3_EEEENS0_5__ops15_Iter_comp_iterIPFbRKS3_SC_EEEEvT_SG_T0_ (i64  %306, i64  %308, i64  %310)
		to label %L.B1784
		unwind label %L_T38226592_19756, !dbg !3761
L.B1784:
	store i32 0, i32* %_T38219784_19756.addr, align 4, !tbaa !3788, !dbg !3762
	%311 = load %struct._ZSt6vectorIjSaIjEE*, %struct._ZSt6vectorIjSaIjEE** %columnBlockOffsets.addr, align 8, !tbaa !2791, !dbg !3763
	%312 = bitcast %struct._ZSt6vectorIjSaIjEE*  %311 to i8*, !dbg !3763
	%313 = bitcast %struct._ZSt6vectorIjSaIjEE** %..inline.addr.8 to i8**, !dbg !3763
	store i8*  %312, i8**  %313, align 8, !tbaa !2791, !dbg !3763
	%314 = load %struct._ZSt6vectorIjSaIjEE*, %struct._ZSt6vectorIjSaIjEE** %..inline.addr.8, align 8, !tbaa !2791, !dbg !3763
	%315 = bitcast %struct._ZSt6vectorIjSaIjEE*  %314 to i8*, !dbg !3763
	%316 = getelementptr i8, i8*  %315, i64 8, !dbg !3763
	%317 = bitcast i8*  %316 to i8**, !dbg !3763
	%318 = load i8*, i8**  %317, align 8, !tbaa !2791, !dbg !3763
	%319 = getelementptr i8, i8*  %315, i64 16, !dbg !3763
	%320 = bitcast i8*  %319 to i8**, !dbg !3763
	%321 = load i8*, i8**  %320, align 8, !tbaa !2791, !dbg !3763
	%322 = icmp eq i8*  %318,  %321, !dbg !3763
	br i1  %322, label %L..inline.41245, label %L.B1785, !dbg !3763
L.B1785:
	%323 = bitcast %struct._ZSt6vectorIjSaIjEE*  %314 to i8*, !dbg !3763
	%324 = getelementptr i8, i8*  %323, i64 8, !dbg !3763
	%325 = bitcast i8*  %324 to i8**, !dbg !3763
	%326 = load i8*, i8**  %325, align 8, !tbaa !2791, !dbg !3763
	%327 = bitcast i32** %..inline.addr.9 to i8**, !dbg !3763
	store i8*  %326, i8**  %327, align 8, !tbaa !2791, !dbg !3763
	%328 = load i32*, i32** %..inline.addr.9, align 8, !tbaa !2791, !dbg !3763
	%329 = bitcast i32*  %328 to i8*, !dbg !3763
	%330 = icmp eq i8*  %329,  null, !dbg !3763
	br i1  %330, label %L..inline.41283, label %L.B1786, !dbg !3763
L.B1786:
	store i32 0, i32*  %328, align 4, !tbaa !2790, !dbg !3763
	br label %L..inline.41292, !dbg !3763
L..inline.41283:
	br label %L..inline.41292
L..inline.41292:
	%331 = load %struct._ZSt6vectorIjSaIjEE*, %struct._ZSt6vectorIjSaIjEE** %..inline.addr.8, align 8, !tbaa !2791, !dbg !3763
	%332 = bitcast %struct._ZSt6vectorIjSaIjEE*  %331 to i8*, !dbg !3763
	%333 = getelementptr i8, i8*  %332, i64 8, !dbg !3763
	%334 = bitcast i8*  %333 to i8**, !dbg !3763
	%335 = load i8*, i8**  %334, align 8, !tbaa !2791, !dbg !3763
	%336 = getelementptr i8, i8*  %335, i64 4, !dbg !3763
	store i8*  %336, i8**  %334, align 8, !tbaa !2791, !dbg !3763
	br label %L..inline.41295, !dbg !3763
L..inline.41245:
	%337 = load %struct._ZSt6vectorIjSaIjEE*, %struct._ZSt6vectorIjSaIjEE** %columnBlockOffsets.addr, align 8, !tbaa !2791, !dbg !3763
	%338 = bitcast %struct._ZSt6vectorIjSaIjEE*  %337 to i8*, !dbg !3763
	%339 = getelementptr i8, i8*  %338, i64 8, !dbg !3763
	%340 = bitcast i8*  %339 to i8**, !dbg !3763
	%341 = load i8*, i8**  %340, align 8, !tbaa !2791, !dbg !3763
	%342 = bitcast %struct._ZN9__gnu_cxx17__normal_iteratorIPjSt6vectorIjSaIjEEEE* %..inline.addr.390 to i8**, !dbg !3763
	store i8*  %341, i8**  %342, align 8, !tbaa !2791, !dbg !3763
	%343 = load %struct._ZSt6vectorIjSaIjEE*, %struct._ZSt6vectorIjSaIjEE** %..inline.addr.8, align 8, !tbaa !2791, !dbg !3763
	%344 = bitcast %struct._ZN9__gnu_cxx17__normal_iteratorIPjSt6vectorIjSaIjEEEE* %..inline.addr.390 to i64*, !dbg !3763
	%345 = load i64, i64*  %344, align 8, !tbaa !2790, !dbg !3763
	invoke void  @_ZNSt6vectorIjSaIjEE17_M_realloc_insertIJjEEEvN9__gnu_cxx17__normal_iteratorIPjS1_EEDpOT_ (%struct._ZSt6vectorIjSaIjEE*  %343, i64  %345, i32* %_T38219784_19756.addr)
		to label %L.B1787
		unwind label %L_T38226592_19756, !dbg !3763
L.B1787:
	br label %L..inline.41295
L..inline.41295:
	store i32 0, i32* %_T38219784_19756.addr, align 4, !tbaa !3788, !dbg !3764
	%346 = load %struct._ZSt6vectorIjSaIjEE*, %struct._ZSt6vectorIjSaIjEE** %setColumnOffsets.addr, align 8, !tbaa !2791, !dbg !3763
	%347 = bitcast %struct._ZSt6vectorIjSaIjEE*  %346 to i8*, !dbg !3763
	%348 = bitcast %struct._ZSt6vectorIjSaIjEE** %..inline.addr.400 to i8**, !dbg !3763
	store i8*  %347, i8**  %348, align 8, !tbaa !2791, !dbg !3763
	%349 = load %struct._ZSt6vectorIjSaIjEE*, %struct._ZSt6vectorIjSaIjEE** %..inline.addr.400, align 8, !tbaa !2791, !dbg !3763
	%350 = bitcast %struct._ZSt6vectorIjSaIjEE*  %349 to i8*, !dbg !3763
	%351 = getelementptr i8, i8*  %350, i64 8, !dbg !3763
	%352 = bitcast i8*  %351 to i8**, !dbg !3763
	%353 = load i8*, i8**  %352, align 8, !tbaa !2791, !dbg !3763
	%354 = getelementptr i8, i8*  %350, i64 16, !dbg !3763
	%355 = bitcast i8*  %354 to i8**, !dbg !3763
	%356 = load i8*, i8**  %355, align 8, !tbaa !2791, !dbg !3763
	%357 = icmp eq i8*  %353,  %356, !dbg !3763
	br i1  %357, label %L..inline.41337, label %L.B1788, !dbg !3763
L.B1788:
	%358 = bitcast %struct._ZSt6vectorIjSaIjEE*  %349 to i8*, !dbg !3763
	%359 = getelementptr i8, i8*  %358, i64 8, !dbg !3763
	%360 = bitcast i8*  %359 to i8**, !dbg !3763
	%361 = load i8*, i8**  %360, align 8, !tbaa !2791, !dbg !3763
	%362 = bitcast i32** %..inline.addr.410 to i8**, !dbg !3763
	store i8*  %361, i8**  %362, align 8, !tbaa !2791, !dbg !3763
	%363 = load i32*, i32** %..inline.addr.410, align 8, !tbaa !2791, !dbg !3763
	%364 = bitcast i32*  %363 to i8*, !dbg !3763
	%365 = icmp eq i8*  %364,  null, !dbg !3763
	br i1  %365, label %L..inline.41375, label %L.B1789, !dbg !3763
L.B1789:
	store i32 0, i32*  %363, align 4, !tbaa !2790, !dbg !3763
	br label %L..inline.41384, !dbg !3763
L..inline.41375:
	br label %L..inline.41384
L..inline.41384:
	%366 = load %struct._ZSt6vectorIjSaIjEE*, %struct._ZSt6vectorIjSaIjEE** %..inline.addr.400, align 8, !tbaa !2791, !dbg !3763
	%367 = bitcast %struct._ZSt6vectorIjSaIjEE*  %366 to i8*, !dbg !3763
	%368 = getelementptr i8, i8*  %367, i64 8, !dbg !3763
	%369 = bitcast i8*  %368 to i8**, !dbg !3763
	%370 = load i8*, i8**  %369, align 8, !tbaa !2791, !dbg !3763
	%371 = getelementptr i8, i8*  %370, i64 4, !dbg !3763
	store i8*  %371, i8**  %369, align 8, !tbaa !2791, !dbg !3763
	br label %L..inline.41387, !dbg !3763
L..inline.41337:
	%372 = load %struct._ZSt6vectorIjSaIjEE*, %struct._ZSt6vectorIjSaIjEE** %setColumnOffsets.addr, align 8, !tbaa !2791, !dbg !3763
	%373 = bitcast %struct._ZSt6vectorIjSaIjEE*  %372 to i8*, !dbg !3763
	%374 = getelementptr i8, i8*  %373, i64 8, !dbg !3763
	%375 = bitcast i8*  %374 to i8**, !dbg !3763
	%376 = load i8*, i8**  %375, align 8, !tbaa !2791, !dbg !3763
	%377 = bitcast %struct._ZN9__gnu_cxx17__normal_iteratorIPjSt6vectorIjSaIjEEEE* %..inline.addr.420 to i8**, !dbg !3763
	store i8*  %376, i8**  %377, align 8, !tbaa !2791, !dbg !3763
	%378 = load %struct._ZSt6vectorIjSaIjEE*, %struct._ZSt6vectorIjSaIjEE** %..inline.addr.400, align 8, !tbaa !2791, !dbg !3763
	%379 = bitcast %struct._ZN9__gnu_cxx17__normal_iteratorIPjSt6vectorIjSaIjEEEE* %..inline.addr.420 to i64*, !dbg !3763
	%380 = load i64, i64*  %379, align 8, !tbaa !2790, !dbg !3763
	invoke void  @_ZNSt6vectorIjSaIjEE17_M_realloc_insertIJjEEEvN9__gnu_cxx17__normal_iteratorIPjS1_EEDpOT_ (%struct._ZSt6vectorIjSaIjEE*  %378, i64  %380, i32* %_T38219784_19756.addr)
		to label %L.B1790
		unwind label %L_T38226592_19756, !dbg !3763
L.B1790:
	br label %L..inline.41387
L..inline.41387:
	call void @llvm.dbg.declare (metadata i32* %i.addr, metadata !3766, metadata !2783), !dbg !2845
	store i32 0, i32* %i.addr, align 4, !tbaa !3788, !dbg !3765
	%381 = load i32, i32* %nBlocks.addr, align 4, !tbaa !3788, !dbg !3765
	%382 = icmp eq i32  %381, 0, !dbg !3765
	br i1  %382, label %L.B0020, label %L.B1791, !dbg !3765
L.B1791:
	%383 = load i32, i32* %dimension.addr, align 4, !tbaa !3788, !dbg !3765
	%384 = zext i32  %383 to i64, !dbg !3765
	%385 = mul i64  %384, 4, !dbg !3765
	%386 = inttoptr i64  %385 to i8*, !dbg !3765
	store i8*  %386, i8** %.r4.1334.addr, align 8, !tbaa !2791, !dbg !3765
	br label %L.B0019
L.B0019:
	%387 = bitcast %struct._ZSt6vectorIN5vmesh14MeshParametersESaIS1_EE* @_ZN5vmesh12VelocityMeshIjjE14meshParametersE to i8**, !dbg !3767
	%388 = load i8*, i8**  %387, align 8, !tbaa !2791, !dbg !3767
	%389 = load %struct._ZN5vmesh12VelocityMeshIjjEE*, %struct._ZN5vmesh12VelocityMeshIjjEE** %vmesh.addr, align 8, !tbaa !2791, !dbg !3767
	%390 = bitcast %struct._ZN5vmesh12VelocityMeshIjjEE*  %389 to i64*, !dbg !3767
	%391 = load i64, i64*  %390, align 8, !tbaa !2790, !dbg !3767
	%392 = mul i64  %391, 336, !dbg !3767
	%393 = getelementptr i8, i8*  %388, i64  %392, !dbg !3767
	%394 = bitcast %struct._ZN5vmesh14MeshParametersE** %..inline.addr.450 to i8**, !dbg !3767
	store i8*  %393, i8**  %394, align 8, !tbaa !2791, !dbg !3767
	%395 = bitcast %struct._ZSt6vectorISt4pairIjjESaIS1_EE* %block_pairs.addr to i8**, !dbg !3768
	%396 = load i8*, i8**  %395, align 8, !tbaa !2791, !dbg !3768
	%397 = load i32, i32* %i.addr, align 4, !tbaa !3788, !dbg !3768
	%398 = zext i32  %397 to i64, !dbg !3768
	%399 = mul i64  %398, 8, !dbg !3768
	%400 = getelementptr i8, i8*  %396, i64  %399, !dbg !3768
	%401 = bitcast i8*  %400 to i32*, !dbg !3768
	%402 = load i32, i32*  %401, align 4, !tbaa !2790, !dbg !3768
	%403 = load %struct._ZN5vmesh14MeshParametersE*, %struct._ZN5vmesh14MeshParametersE** %..inline.addr.450, align 8, !tbaa !2791, !dbg !3768
	%404 = bitcast %struct._ZN5vmesh14MeshParametersE*  %403 to i8*, !dbg !3768
	%405 = getelementptr i8, i8*  %404, i64 88, !dbg !3768
	%406 = load i8*, i8** %.r4.1334.addr, align 8, !tbaa !2791, !dbg !3768
	%407 = ptrtoint i8*  %406 to i64, !dbg !3768
	%408 = getelementptr i8, i8*  %405, i64  %407, !dbg !3768
	%409 = bitcast i8*  %408 to i32*, !dbg !3768
	%410 = load i32, i32*  %409, align 4, !tbaa !2790, !dbg !3768
	%411 = udiv i32  %402,  %410, !dbg !3768
	call void @llvm.dbg.declare (metadata i32* %column_id.addr, metadata !3769, metadata !2783), !dbg !2847
	store i32  %411, i32* %column_id.addr, align 4, !tbaa !3788, !dbg !3768
	%412 = load i8*, i8**  %387, align 8, !tbaa !2791, !dbg !3767
	%413 = load %struct._ZN5vmesh12VelocityMeshIjjEE*, %struct._ZN5vmesh12VelocityMeshIjjEE** %vmesh.addr, align 8, !tbaa !2791, !dbg !3767
	%414 = bitcast %struct._ZN5vmesh12VelocityMeshIjjEE*  %413 to i64*, !dbg !3767
	%415 = load i64, i64*  %414, align 8, !tbaa !2790, !dbg !3767
	%416 = mul i64  %415, 336, !dbg !3767
	%417 = getelementptr i8, i8*  %412, i64  %416, !dbg !3767
	%418 = bitcast %struct._ZN5vmesh14MeshParametersE** %..inline.addr.470 to i8**, !dbg !3767
	store i8*  %417, i8**  %418, align 8, !tbaa !2791, !dbg !3767
	%419 = load i8*, i8**  %395, align 8, !tbaa !2791, !dbg !3768
	%420 = load i32, i32* %i.addr, align 4, !tbaa !3788, !dbg !3768
	%421 = zext i32  %420 to i64, !dbg !3768
	%422 = mul i64  %421, 8, !dbg !3768
	%423 = getelementptr i8, i8*  %419, i64  %422, !dbg !3768
	%424 = bitcast i8*  %423 to i32*, !dbg !3768
	%425 = load i32, i32*  %424, align 4, !tbaa !2790, !dbg !3768
	%426 = load %struct._ZN5vmesh14MeshParametersE*, %struct._ZN5vmesh14MeshParametersE** %..inline.addr.470, align 8, !tbaa !2791, !dbg !3768
	%427 = bitcast %struct._ZN5vmesh14MeshParametersE*  %426 to i8*, !dbg !3768
	%428 = getelementptr i8, i8*  %427, i64 88, !dbg !3768
	%429 = load i8*, i8** %.r4.1334.addr, align 8, !tbaa !2791, !dbg !3768
	%430 = ptrtoint i8*  %429 to i64, !dbg !3768
	%431 = getelementptr i8, i8*  %428, i64  %430, !dbg !3768
	%432 = bitcast i8*  %431 to i32*, !dbg !3768
	%433 = load i32, i32*  %432, align 4, !tbaa !2790, !dbg !3768
	%434 = urem i32  %425,  %433, !dbg !3768
	call void @llvm.dbg.declare (metadata i32* %dimension_id.addr, metadata !3770, metadata !2783), !dbg !2847
	store i32  %434, i32* %dimension_id.addr, align 4, !tbaa !3788, !dbg !3768
	%435 = load i8*, i8**  %395, align 8, !tbaa !2791, !dbg !3771
	%436 = getelementptr i8, i8*  %435, i64 4, !dbg !3771
	%437 = load i32, i32* %i.addr, align 4, !tbaa !3788, !dbg !3771
	%438 = zext i32  %437 to i64, !dbg !3771
	%439 = mul i64  %438, 8, !dbg !3771
	%440 = getelementptr i8, i8*  %436, i64  %439, !dbg !3771
	%441 = bitcast i8*  %440 to i32*, !dbg !3771
	%442 = load i32, i32*  %441, align 4, !tbaa !2790, !dbg !3771
	%443 = load i32*, i32** %blocks.addr, align 8, !tbaa !2791, !dbg !3771
	%444 = getelementptr i32, i32*  %443, i64  %438, !dbg !3771
	store i32  %442, i32*  %444, align 4, !tbaa !2790, !dbg !3771
	%445 = load i32, i32* %i.addr, align 4, !tbaa !3788, !dbg !3772
	%446 = icmp eq i32  %445, 0, !dbg !3772
	br i1  %446, label %L.B0022, label %L.B1792, !dbg !3772
L.B1792:
	%447 = load i32, i32* %column_id.addr, align 4, !tbaa !3788, !dbg !3772
	call void @llvm.dbg.declare (metadata i32* %prev_column_id.addr, metadata !3773, metadata !2783), !dbg !2829
	%448 = load i32, i32* %prev_column_id.addr, align 4, !tbaa !3788, !dbg !3772
	%449 = icmp ne i32  %447,  %448, !dbg !3772
	br i1  %449, label %L.B0023, label %L.B1793, !dbg !3772
L.B1793:
	%450 = load i32, i32* %dimension_id.addr, align 4, !tbaa !3788, !dbg !3772
	call void @llvm.dbg.declare (metadata i32* %prev_dimension_id.addr, metadata !3774, metadata !2783), !dbg !2829
	%451 = load i32, i32* %prev_dimension_id.addr, align 4, !tbaa !3788, !dbg !3772
	%452 = add i32  %451, 1, !dbg !3772
	%453 = icmp eq i32  %450,  %452, !dbg !3772
	br i1  %453, label %L.B0022, label %L.B0023, !dbg !3772
L.B0023:
	%454 = load %struct._ZSt6vectorIjSaIjEE*, %struct._ZSt6vectorIjSaIjEE** %columnBlockOffsets.addr, align 8, !tbaa !2791, !dbg !3775
	%455 = bitcast %struct._ZSt6vectorIjSaIjEE*  %454 to i8*, !dbg !3775
	%456 = bitcast %struct._ZSt6vectorIjSaIjEE** %..inline.addr.510 to i8**, !dbg !3775
	store i8*  %455, i8**  %456, align 8, !tbaa !2791, !dbg !3775
	%457 = load %struct._ZSt6vectorIjSaIjEE*, %struct._ZSt6vectorIjSaIjEE** %..inline.addr.510, align 8, !tbaa !2791, !dbg !3775
	%458 = bitcast %struct._ZSt6vectorIjSaIjEE*  %457 to i8*, !dbg !3775
	%459 = getelementptr i8, i8*  %458, i64 8, !dbg !3775
	%460 = bitcast i8*  %459 to i8**, !dbg !3775
	%461 = load i8*, i8**  %460, align 8, !tbaa !2791, !dbg !3775
	%462 = getelementptr i8, i8*  %458, i64 16, !dbg !3775
	%463 = bitcast i8*  %462 to i8**, !dbg !3775
	%464 = load i8*, i8**  %463, align 8, !tbaa !2791, !dbg !3775
	%465 = icmp eq i8*  %461,  %464, !dbg !3775
	br i1  %465, label %L..inline.41470, label %L.B1794, !dbg !3775
L.B1794:
	%466 = bitcast %struct._ZSt6vectorIjSaIjEE*  %457 to i8*, !dbg !3776
	%467 = getelementptr i8, i8*  %466, i64 8, !dbg !3776
	%468 = bitcast i8*  %467 to i8**, !dbg !3776
	%469 = load i8*, i8**  %468, align 8, !tbaa !2791, !dbg !3776
	%470 = icmp eq i8*  %469,  null, !dbg !3776
	br i1  %470, label %L..inline.41502, label %L.B1795, !dbg !3776
L.B1795:
	%471 = load i32, i32* %i.addr, align 4, !tbaa !3788, !dbg !3776
	%472 = bitcast %struct._ZSt6vectorIjSaIjEE*  %457 to i8*, !dbg !3776
	%473 = getelementptr i8, i8*  %472, i64 8, !dbg !3776
	%474 = bitcast i8*  %473 to i32**, !dbg !3776
	%475 = load i32*, i32**  %474, align 8, !tbaa !2791, !dbg !3776
	store i32  %471, i32*  %475, align 4, !tbaa !2790, !dbg !3776
	br label %L..inline.41511, !dbg !3776
L..inline.41502:
	br label %L..inline.41511
L..inline.41511:
	%476 = load %struct._ZSt6vectorIjSaIjEE*, %struct._ZSt6vectorIjSaIjEE** %..inline.addr.510, align 8, !tbaa !2791, !dbg !3776
	%477 = bitcast %struct._ZSt6vectorIjSaIjEE*  %476 to i8*, !dbg !3776
	%478 = getelementptr i8, i8*  %477, i64 8, !dbg !3776
	%479 = bitcast i8*  %478 to i8**, !dbg !3776
	%480 = load i8*, i8**  %479, align 8, !tbaa !2791, !dbg !3776
	%481 = getelementptr i8, i8*  %480, i64 4, !dbg !3776
	store i8*  %481, i8**  %479, align 8, !tbaa !2791, !dbg !3776
	br label %L..inline.41514, !dbg !3777
L..inline.41470:
	%482 = load %struct._ZSt6vectorIjSaIjEE*, %struct._ZSt6vectorIjSaIjEE** %columnBlockOffsets.addr, align 8, !tbaa !2791, !dbg !3778
	%483 = bitcast %struct._ZSt6vectorIjSaIjEE*  %482 to i8*, !dbg !3778
	%484 = getelementptr i8, i8*  %483, i64 8, !dbg !3778
	%485 = bitcast i8*  %484 to i8**, !dbg !3778
	%486 = load i8*, i8**  %485, align 8, !tbaa !2791, !dbg !3778
	%487 = bitcast %struct._ZN9__gnu_cxx17__normal_iteratorIPjSt6vectorIjSaIjEEEE* %..inline.addr.520 to i8**, !dbg !3778
	store i8*  %486, i8**  %487, align 8, !tbaa !2791, !dbg !3778
	%488 = load %struct._ZSt6vectorIjSaIjEE*, %struct._ZSt6vectorIjSaIjEE** %..inline.addr.510, align 8, !tbaa !2791, !dbg !3778
	%489 = bitcast %struct._ZN9__gnu_cxx17__normal_iteratorIPjSt6vectorIjSaIjEEEE* %..inline.addr.520 to i64*, !dbg !3778
	%490 = load i64, i64*  %489, align 8, !tbaa !2790, !dbg !3778
	invoke void  @_ZNSt6vectorIjSaIjEE17_M_realloc_insertIJRKjEEEvN9__gnu_cxx17__normal_iteratorIPjS1_EEDpOT_ (%struct._ZSt6vectorIjSaIjEE*  %488, i64  %490, i32* %i.addr)
		to label %L.B1796
		unwind label %L_T38226592_19756, !dbg !3778
L.B1796:
	br label %L..inline.41514
L..inline.41514:
	%491 = load %struct._ZSt6vectorIjSaIjEE*, %struct._ZSt6vectorIjSaIjEE** %columnBlockOffsets.addr, align 8, !tbaa !2791, !dbg !3771
	%492 = bitcast %struct._ZSt6vectorIjSaIjEE*  %491 to i8*, !dbg !3771
	%493 = getelementptr i8, i8*  %492, i64 8, !dbg !3771
	%494 = bitcast i8*  %493 to i8**, !dbg !3771
	%495 = load i8*, i8**  %494, align 8, !tbaa !2791, !dbg !3771
	%496 = bitcast %struct._ZSt6vectorIjSaIjEE*  %491 to i8**, !dbg !3771
	%497 = load i8*, i8**  %496, align 8, !tbaa !2791, !dbg !3771
	%498 = ptrtoint i8*  %497 to i64, !dbg !3771
	%499 = sub i64 0,  %498, !dbg !3771
	%500 = getelementptr i8, i8*  %495, i64  %499, !dbg !3771
	%501 = ptrtoint i8*  %500 to i64, !dbg !3771
	%502 = sext i32 2 to i64, !dbg !3771
	%503 = ashr i64  %501,  %502, !dbg !3771
	%504 = sub i64  %503, 1, !dbg !3771
	%505 = bitcast %struct._ZSt6vectorIjSaIjEE*  %491 to i32**, !dbg !3771
	%506 = load i32*, i32**  %505, align 8, !tbaa !2791, !dbg !3771
	%507 = getelementptr i32, i32*  %506, i64  %504, !dbg !3771
	%508 = load i32, i32*  %507, align 4, !tbaa !2790, !dbg !3771
	%509 = load i8*, i8**  %496, align 8, !tbaa !2791, !dbg !3771
	%510 = ptrtoint i8*  %509 to i64, !dbg !3771
	%511 = sub i64 0,  %510, !dbg !3771
	%512 = getelementptr i8, i8*  %495, i64  %511, !dbg !3771
	%513 = ptrtoint i8*  %512 to i64, !dbg !3771
	%514 = sext i32 2 to i64, !dbg !3771
	%515 = ashr i64  %513,  %514, !dbg !3771
	%516 = sub i64  %515, 2, !dbg !3771
	%517 = load i32*, i32**  %505, align 8, !tbaa !2791, !dbg !3771
	%518 = getelementptr i32, i32*  %517, i64  %516, !dbg !3771
	%519 = load i32, i32*  %518, align 4, !tbaa !2790, !dbg !3771
	%520 = sub i32  %508,  %519, !dbg !3771
	store i32  %520, i32* %_T38226000_19756.addr, align 4, !tbaa !3788, !dbg !3771
	%521 = load %struct._ZSt6vectorIjSaIjEE*, %struct._ZSt6vectorIjSaIjEE** %columnNumBlocks.addr, align 8, !tbaa !2791, !dbg !3763
	%522 = bitcast %struct._ZSt6vectorIjSaIjEE*  %521 to i8*, !dbg !3763
	%523 = bitcast %struct._ZSt6vectorIjSaIjEE** %..inline.addr.540 to i8**, !dbg !3763
	store i8*  %522, i8**  %523, align 8, !tbaa !2791, !dbg !3763
	%524 = load %struct._ZSt6vectorIjSaIjEE*, %struct._ZSt6vectorIjSaIjEE** %..inline.addr.540, align 8, !tbaa !2791, !dbg !3763
	%525 = bitcast %struct._ZSt6vectorIjSaIjEE*  %524 to i8*, !dbg !3763
	%526 = getelementptr i8, i8*  %525, i64 8, !dbg !3763
	%527 = bitcast i8*  %526 to i8**, !dbg !3763
	%528 = load i8*, i8**  %527, align 8, !tbaa !2791, !dbg !3763
	%529 = getelementptr i8, i8*  %525, i64 16, !dbg !3763
	%530 = bitcast i8*  %529 to i8**, !dbg !3763
	%531 = load i8*, i8**  %530, align 8, !tbaa !2791, !dbg !3763
	%532 = icmp eq i8*  %528,  %531, !dbg !3763
	br i1  %532, label %L..inline.41578, label %L.B1797, !dbg !3763
L.B1797:
	%533 = bitcast %struct._ZSt6vectorIjSaIjEE*  %524 to i8*, !dbg !3763
	%534 = getelementptr i8, i8*  %533, i64 8, !dbg !3763
	%535 = bitcast i8*  %534 to i8**, !dbg !3763
	%536 = load i8*, i8**  %535, align 8, !tbaa !2791, !dbg !3763
	%537 = icmp eq i8*  %536,  null, !dbg !3763
	br i1  %537, label %L..inline.41616, label %L.B1798, !dbg !3763
L.B1798:
	%538 = bitcast %struct._ZSt6vectorIjSaIjEE*  %524 to i8*, !dbg !3763
	%539 = getelementptr i8, i8*  %538, i64 8, !dbg !3763
	%540 = bitcast i8*  %539 to i32**, !dbg !3763
	%541 = load i32*, i32**  %540, align 8, !tbaa !2791, !dbg !3763
	store i32  %520, i32*  %541, align 4, !tbaa !2790, !dbg !3763
	br label %L..inline.41625, !dbg !3763
L..inline.41616:
	br label %L..inline.41625
L..inline.41625:
	%542 = load %struct._ZSt6vectorIjSaIjEE*, %struct._ZSt6vectorIjSaIjEE** %..inline.addr.540, align 8, !tbaa !2791, !dbg !3763
	%543 = bitcast %struct._ZSt6vectorIjSaIjEE*  %542 to i8*, !dbg !3763
	%544 = getelementptr i8, i8*  %543, i64 8, !dbg !3763
	%545 = bitcast i8*  %544 to i8**, !dbg !3763
	%546 = load i8*, i8**  %545, align 8, !tbaa !2791, !dbg !3763
	%547 = getelementptr i8, i8*  %546, i64 4, !dbg !3763
	store i8*  %547, i8**  %545, align 8, !tbaa !2791, !dbg !3763
	br label %L..inline.41628, !dbg !3763
L..inline.41578:
	%548 = load %struct._ZSt6vectorIjSaIjEE*, %struct._ZSt6vectorIjSaIjEE** %columnNumBlocks.addr, align 8, !tbaa !2791, !dbg !3763
	%549 = bitcast %struct._ZSt6vectorIjSaIjEE*  %548 to i8*, !dbg !3763
	%550 = getelementptr i8, i8*  %549, i64 8, !dbg !3763
	%551 = bitcast i8*  %550 to i8**, !dbg !3763
	%552 = load i8*, i8**  %551, align 8, !tbaa !2791, !dbg !3763
	%553 = bitcast %struct._ZN9__gnu_cxx17__normal_iteratorIPjSt6vectorIjSaIjEEEE* %..inline.addr.550 to i8**, !dbg !3763
	store i8*  %552, i8**  %553, align 8, !tbaa !2791, !dbg !3763
	%554 = load %struct._ZSt6vectorIjSaIjEE*, %struct._ZSt6vectorIjSaIjEE** %..inline.addr.540, align 8, !tbaa !2791, !dbg !3763
	%555 = bitcast %struct._ZN9__gnu_cxx17__normal_iteratorIPjSt6vectorIjSaIjEEEE* %..inline.addr.550 to i64*, !dbg !3763
	%556 = load i64, i64*  %555, align 8, !tbaa !2790, !dbg !3763
	invoke void  @_ZNSt6vectorIjSaIjEE17_M_realloc_insertIJjEEEvN9__gnu_cxx17__normal_iteratorIPjS1_EEDpOT_ (%struct._ZSt6vectorIjSaIjEE*  %554, i64  %556, i32* %_T38226000_19756.addr)
		to label %L.B1799
		unwind label %L_T38226592_19756, !dbg !3763
L.B1799:
	br label %L..inline.41628
L..inline.41628:
	%557 = load i32, i32* %column_id.addr, align 4, !tbaa !3788, !dbg !3779
	%558 = load i32, i32* %prev_column_id.addr, align 4, !tbaa !3788, !dbg !3779
	%559 = icmp eq i32  %557,  %558, !dbg !3779
	br i1  %559, label %L.B0025, label %L.B1800, !dbg !3779
L.B1800:
	%560 = load %struct._ZSt6vectorIjSaIjEE*, %struct._ZSt6vectorIjSaIjEE** %columnBlockOffsets.addr, align 8, !tbaa !2791, !dbg !3780
	%561 = bitcast %struct._ZSt6vectorIjSaIjEE*  %560 to i8*, !dbg !3780
	%562 = getelementptr i8, i8*  %561, i64 8, !dbg !3780
	%563 = bitcast i8*  %562 to i8**, !dbg !3780
	%564 = load i8*, i8**  %563, align 8, !tbaa !2791, !dbg !3780
	%565 = bitcast %struct._ZSt6vectorIjSaIjEE*  %560 to i8**, !dbg !3780
	%566 = load i8*, i8**  %565, align 8, !tbaa !2791, !dbg !3780
	%567 = ptrtoint i8*  %566 to i64, !dbg !3780
	%568 = sub i64 0,  %567, !dbg !3780
	%569 = getelementptr i8, i8*  %564, i64  %568, !dbg !3780
	%570 = ptrtoint i8*  %569 to i64, !dbg !3780
	%571 = sext i32 2 to i64, !dbg !3780
	%572 = ashr i64  %570,  %571, !dbg !3780
	%573 = sub i64  %572, 1, !dbg !3780
	%574 = trunc i64  %573 to i32, !dbg !3780
	store i32  %574, i32* %_T38226296_19756.addr, align 4, !tbaa !3788, !dbg !3780
	%575 = load %struct._ZSt6vectorIjSaIjEE*, %struct._ZSt6vectorIjSaIjEE** %setColumnOffsets.addr, align 8, !tbaa !2791, !dbg !3763
	%576 = bitcast %struct._ZSt6vectorIjSaIjEE*  %575 to i8*, !dbg !3763
	%577 = bitcast %struct._ZSt6vectorIjSaIjEE** %..inline.addr.570 to i8**, !dbg !3763
	store i8*  %576, i8**  %577, align 8, !tbaa !2791, !dbg !3763
	%578 = load %struct._ZSt6vectorIjSaIjEE*, %struct._ZSt6vectorIjSaIjEE** %..inline.addr.570, align 8, !tbaa !2791, !dbg !3763
	%579 = bitcast %struct._ZSt6vectorIjSaIjEE*  %578 to i8*, !dbg !3763
	%580 = getelementptr i8, i8*  %579, i64 8, !dbg !3763
	%581 = bitcast i8*  %580 to i8**, !dbg !3763
	%582 = load i8*, i8**  %581, align 8, !tbaa !2791, !dbg !3763
	%583 = getelementptr i8, i8*  %579, i64 16, !dbg !3763
	%584 = bitcast i8*  %583 to i8**, !dbg !3763
	%585 = load i8*, i8**  %584, align 8, !tbaa !2791, !dbg !3763
	%586 = icmp eq i8*  %582,  %585, !dbg !3763
	br i1  %586, label %L..inline.41677, label %L.B1801, !dbg !3763
L.B1801:
	%587 = bitcast %struct._ZSt6vectorIjSaIjEE*  %578 to i8*, !dbg !3763
	%588 = getelementptr i8, i8*  %587, i64 8, !dbg !3763
	%589 = bitcast i8*  %588 to i8**, !dbg !3763
	%590 = load i8*, i8**  %589, align 8, !tbaa !2791, !dbg !3763
	%591 = icmp eq i8*  %590,  null, !dbg !3763
	br i1  %591, label %L..inline.41715, label %L.B1802, !dbg !3763
L.B1802:
	%592 = bitcast %struct._ZSt6vectorIjSaIjEE*  %578 to i8*, !dbg !3763
	%593 = getelementptr i8, i8*  %592, i64 8, !dbg !3763
	%594 = bitcast i8*  %593 to i32**, !dbg !3763
	%595 = load i32*, i32**  %594, align 8, !tbaa !2791, !dbg !3763
	store i32  %574, i32*  %595, align 4, !tbaa !2790, !dbg !3763
	br label %L..inline.41724, !dbg !3763
L..inline.41715:
	br label %L..inline.41724
L..inline.41724:
	%596 = load %struct._ZSt6vectorIjSaIjEE*, %struct._ZSt6vectorIjSaIjEE** %..inline.addr.570, align 8, !tbaa !2791, !dbg !3763
	%597 = bitcast %struct._ZSt6vectorIjSaIjEE*  %596 to i8*, !dbg !3763
	%598 = getelementptr i8, i8*  %597, i64 8, !dbg !3763
	%599 = bitcast i8*  %598 to i8**, !dbg !3763
	%600 = load i8*, i8**  %599, align 8, !tbaa !2791, !dbg !3763
	%601 = getelementptr i8, i8*  %600, i64 4, !dbg !3763
	store i8*  %601, i8**  %599, align 8, !tbaa !2791, !dbg !3763
	br label %L..inline.41727, !dbg !3763
L..inline.41677:
	%602 = load %struct._ZSt6vectorIjSaIjEE*, %struct._ZSt6vectorIjSaIjEE** %setColumnOffsets.addr, align 8, !tbaa !2791, !dbg !3763
	%603 = bitcast %struct._ZSt6vectorIjSaIjEE*  %602 to i8*, !dbg !3763
	%604 = getelementptr i8, i8*  %603, i64 8, !dbg !3763
	%605 = bitcast i8*  %604 to i8**, !dbg !3763
	%606 = load i8*, i8**  %605, align 8, !tbaa !2791, !dbg !3763
	%607 = bitcast %struct._ZN9__gnu_cxx17__normal_iteratorIPjSt6vectorIjSaIjEEEE* %..inline.addr.580 to i8**, !dbg !3763
	store i8*  %606, i8**  %607, align 8, !tbaa !2791, !dbg !3763
	%608 = load %struct._ZSt6vectorIjSaIjEE*, %struct._ZSt6vectorIjSaIjEE** %..inline.addr.570, align 8, !tbaa !2791, !dbg !3763
	%609 = bitcast %struct._ZN9__gnu_cxx17__normal_iteratorIPjSt6vectorIjSaIjEEEE* %..inline.addr.580 to i64*, !dbg !3763
	%610 = load i64, i64*  %609, align 8, !tbaa !2790, !dbg !3763
	invoke void  @_ZNSt6vectorIjSaIjEE17_M_realloc_insertIJjEEEvN9__gnu_cxx17__normal_iteratorIPjS1_EEDpOT_ (%struct._ZSt6vectorIjSaIjEE*  %608, i64  %610, i32* %_T38226296_19756.addr)
		to label %L.B1803
		unwind label %L_T38226592_19756, !dbg !3763
L.B1803:
	br label %L..inline.41727
L..inline.41727:
	%611 = load %struct._ZSt6vectorIjSaIjEE*, %struct._ZSt6vectorIjSaIjEE** %setColumnOffsets.addr, align 8, !tbaa !2791, !dbg !3771
	%612 = bitcast %struct._ZSt6vectorIjSaIjEE*  %611 to i8*, !dbg !3771
	%613 = getelementptr i8, i8*  %612, i64 8, !dbg !3771
	%614 = bitcast i8*  %613 to i8**, !dbg !3771
	%615 = load i8*, i8**  %614, align 8, !tbaa !2791, !dbg !3771
	%616 = bitcast %struct._ZSt6vectorIjSaIjEE*  %611 to i8**, !dbg !3771
	%617 = load i8*, i8**  %616, align 8, !tbaa !2791, !dbg !3771
	%618 = ptrtoint i8*  %617 to i64, !dbg !3771
	%619 = sub i64 0,  %618, !dbg !3771
	%620 = getelementptr i8, i8*  %615, i64  %619, !dbg !3771
	%621 = ptrtoint i8*  %620 to i64, !dbg !3771
	%622 = sext i32 2 to i64, !dbg !3771
	%623 = ashr i64  %621,  %622, !dbg !3771
	%624 = sub i64  %623, 1, !dbg !3771
	%625 = bitcast %struct._ZSt6vectorIjSaIjEE*  %611 to i32**, !dbg !3771
	%626 = load i32*, i32**  %625, align 8, !tbaa !2791, !dbg !3771
	%627 = getelementptr i32, i32*  %626, i64  %624, !dbg !3771
	%628 = load i32, i32*  %627, align 4, !tbaa !2790, !dbg !3771
	%629 = load i8*, i8**  %616, align 8, !tbaa !2791, !dbg !3771
	%630 = ptrtoint i8*  %629 to i64, !dbg !3771
	%631 = sub i64 0,  %630, !dbg !3771
	%632 = getelementptr i8, i8*  %615, i64  %631, !dbg !3771
	%633 = ptrtoint i8*  %632 to i64, !dbg !3771
	%634 = sext i32 2 to i64, !dbg !3771
	%635 = ashr i64  %633,  %634, !dbg !3771
	%636 = sub i64  %635, 2, !dbg !3771
	%637 = load i32*, i32**  %625, align 8, !tbaa !2791, !dbg !3771
	%638 = getelementptr i32, i32*  %637, i64  %636, !dbg !3771
	%639 = load i32, i32*  %638, align 4, !tbaa !2790, !dbg !3771
	%640 = sub i32  %628,  %639, !dbg !3771
	store i32  %640, i32* %_T38226296_19756.addr, align 4, !tbaa !3788, !dbg !3771
	%641 = load %struct._ZSt6vectorIjSaIjEE*, %struct._ZSt6vectorIjSaIjEE** %setNumColumns.addr, align 8, !tbaa !2791, !dbg !3763
	%642 = bitcast %struct._ZSt6vectorIjSaIjEE*  %641 to i8*, !dbg !3763
	%643 = bitcast %struct._ZSt6vectorIjSaIjEE** %..inline.addr.590 to i8**, !dbg !3763
	store i8*  %642, i8**  %643, align 8, !tbaa !2791, !dbg !3763
	%644 = load %struct._ZSt6vectorIjSaIjEE*, %struct._ZSt6vectorIjSaIjEE** %..inline.addr.590, align 8, !tbaa !2791, !dbg !3763
	%645 = bitcast %struct._ZSt6vectorIjSaIjEE*  %644 to i8*, !dbg !3763
	%646 = getelementptr i8, i8*  %645, i64 8, !dbg !3763
	%647 = bitcast i8*  %646 to i8**, !dbg !3763
	%648 = load i8*, i8**  %647, align 8, !tbaa !2791, !dbg !3763
	%649 = getelementptr i8, i8*  %645, i64 16, !dbg !3763
	%650 = bitcast i8*  %649 to i8**, !dbg !3763
	%651 = load i8*, i8**  %650, align 8, !tbaa !2791, !dbg !3763
	%652 = icmp eq i8*  %648,  %651, !dbg !3763
	br i1  %652, label %L..inline.41799, label %L.B1804, !dbg !3763
L.B1804:
	%653 = bitcast %struct._ZSt6vectorIjSaIjEE*  %644 to i8*, !dbg !3763
	%654 = getelementptr i8, i8*  %653, i64 8, !dbg !3763
	%655 = bitcast i8*  %654 to i8**, !dbg !3763
	%656 = load i8*, i8**  %655, align 8, !tbaa !2791, !dbg !3763
	%657 = bitcast i32** %..inline.addr.600 to i8**, !dbg !3763
	store i8*  %656, i8**  %657, align 8, !tbaa !2791, !dbg !3763
	%658 = icmp eq i8*  %656,  null, !dbg !3763
	br i1  %658, label %L..inline.41837, label %L.B1805, !dbg !3763
L.B1805:
	%659 = load i32*, i32** %..inline.addr.600, align 8, !tbaa !2791, !dbg !3763
	store i32  %640, i32*  %659, align 4, !tbaa !2790, !dbg !3763
	br label %L..inline.41846, !dbg !3763
L..inline.41837:
	br label %L..inline.41846
L..inline.41846:
	%660 = load %struct._ZSt6vectorIjSaIjEE*, %struct._ZSt6vectorIjSaIjEE** %..inline.addr.590, align 8, !tbaa !2791, !dbg !3763
	%661 = bitcast %struct._ZSt6vectorIjSaIjEE*  %660 to i8*, !dbg !3763
	%662 = getelementptr i8, i8*  %661, i64 8, !dbg !3763
	%663 = bitcast i8*  %662 to i8**, !dbg !3763
	%664 = load i8*, i8**  %663, align 8, !tbaa !2791, !dbg !3763
	%665 = getelementptr i8, i8*  %664, i64 4, !dbg !3763
	store i8*  %665, i8**  %663, align 8, !tbaa !2791, !dbg !3763
	br label %L..inline.41849, !dbg !3763
L..inline.41799:
	%666 = load %struct._ZSt6vectorIjSaIjEE*, %struct._ZSt6vectorIjSaIjEE** %setNumColumns.addr, align 8, !tbaa !2791, !dbg !3763
	%667 = bitcast %struct._ZSt6vectorIjSaIjEE*  %666 to i8*, !dbg !3763
	%668 = getelementptr i8, i8*  %667, i64 8, !dbg !3763
	%669 = bitcast i8*  %668 to i8**, !dbg !3763
	%670 = load i8*, i8**  %669, align 8, !tbaa !2791, !dbg !3763
	%671 = bitcast %struct._ZN9__gnu_cxx17__normal_iteratorIPjSt6vectorIjSaIjEEEE* %..inline.addr.610 to i8**, !dbg !3763
	store i8*  %670, i8**  %671, align 8, !tbaa !2791, !dbg !3763
	%672 = load %struct._ZSt6vectorIjSaIjEE*, %struct._ZSt6vectorIjSaIjEE** %..inline.addr.590, align 8, !tbaa !2791, !dbg !3763
	%673 = bitcast %struct._ZN9__gnu_cxx17__normal_iteratorIPjSt6vectorIjSaIjEEEE* %..inline.addr.610 to i64*, !dbg !3763
	%674 = load i64, i64*  %673, align 8, !tbaa !2790, !dbg !3763
	invoke void  @_ZNSt6vectorIjSaIjEE17_M_realloc_insertIJjEEEvN9__gnu_cxx17__normal_iteratorIPjS1_EEDpOT_ (%struct._ZSt6vectorIjSaIjEE*  %672, i64  %674, i32* %_T38226296_19756.addr)
		to label %L.B1806
		unwind label %L_T38226592_19756, !dbg !3763
L.B1806:
	br label %L..inline.41849
L..inline.41849:
	br label %L.B0025
L.B0025:
	br label %L.B0022
L.B0022:
	%675 = load i32, i32* %column_id.addr, align 4, !tbaa !3788, !dbg !3781
	store i32  %675, i32* %prev_column_id.addr, align 4, !tbaa !3788, !dbg !3781
	%676 = load i32, i32* %dimension_id.addr, align 4, !tbaa !3788, !dbg !3782
	store i32  %676, i32* %prev_dimension_id.addr, align 4, !tbaa !3788, !dbg !3782
	%677 = load i32, i32* %i.addr, align 4, !tbaa !3788, !dbg !3783
	%678 = add i32  %677, 1, !dbg !3783
	store i32  %678, i32* %i.addr, align 4, !tbaa !3788, !dbg !3783
	%679 = load i32, i32* %nBlocks.addr, align 4, !tbaa !3788, !dbg !3783
	%680 = icmp ult i32  %678,  %679, !dbg !3783
	br i1  %680, label %L.B0019, label %L.B0020, !dbg !3783
L.B0020:
	%681 = load i32, i32* %nBlocks.addr, align 4, !tbaa !3788, !dbg !3771
	%682 = load %struct._ZSt6vectorIjSaIjEE*, %struct._ZSt6vectorIjSaIjEE** %columnBlockOffsets.addr, align 8, !tbaa !2791, !dbg !3771
	%683 = bitcast %struct._ZSt6vectorIjSaIjEE*  %682 to i8*, !dbg !3771
	%684 = getelementptr i8, i8*  %683, i64 8, !dbg !3771
	%685 = bitcast i8*  %684 to i8**, !dbg !3771
	%686 = load i8*, i8**  %685, align 8, !tbaa !2791, !dbg !3771
	%687 = bitcast %struct._ZSt6vectorIjSaIjEE*  %682 to i8**, !dbg !3771
	%688 = load i8*, i8**  %687, align 8, !tbaa !2791, !dbg !3771
	%689 = ptrtoint i8*  %688 to i64, !dbg !3771
	%690 = sub i64 0,  %689, !dbg !3771
	%691 = getelementptr i8, i8*  %686, i64  %690, !dbg !3771
	%692 = ptrtoint i8*  %691 to i64, !dbg !3771
	%693 = sext i32 2 to i64, !dbg !3771
	%694 = ashr i64  %692,  %693, !dbg !3771
	%695 = sub i64  %694, 1, !dbg !3771
	%696 = bitcast %struct._ZSt6vectorIjSaIjEE*  %682 to i32**, !dbg !3771
	%697 = load i32*, i32**  %696, align 8, !tbaa !2791, !dbg !3771
	%698 = getelementptr i32, i32*  %697, i64  %695, !dbg !3771
	%699 = load i32, i32*  %698, align 4, !tbaa !2790, !dbg !3771
	%700 = sub i32  %681,  %699, !dbg !3771
	store i32  %700, i32* %_T38219784_19756.addr, align 4, !tbaa !3788, !dbg !3771
	%701 = load %struct._ZSt6vectorIjSaIjEE*, %struct._ZSt6vectorIjSaIjEE** %columnNumBlocks.addr, align 8, !tbaa !2791, !dbg !3763
	%702 = bitcast %struct._ZSt6vectorIjSaIjEE*  %701 to i8*, !dbg !3763
	%703 = bitcast %struct._ZSt6vectorIjSaIjEE** %..inline.addr.620 to i8**, !dbg !3763
	store i8*  %702, i8**  %703, align 8, !tbaa !2791, !dbg !3763
	%704 = load %struct._ZSt6vectorIjSaIjEE*, %struct._ZSt6vectorIjSaIjEE** %..inline.addr.620, align 8, !tbaa !2791, !dbg !3763
	%705 = bitcast %struct._ZSt6vectorIjSaIjEE*  %704 to i8*, !dbg !3763
	%706 = getelementptr i8, i8*  %705, i64 8, !dbg !3763
	%707 = bitcast i8*  %706 to i8**, !dbg !3763
	%708 = load i8*, i8**  %707, align 8, !tbaa !2791, !dbg !3763
	%709 = getelementptr i8, i8*  %705, i64 16, !dbg !3763
	%710 = bitcast i8*  %709 to i8**, !dbg !3763
	%711 = load i8*, i8**  %710, align 8, !tbaa !2791, !dbg !3763
	%712 = icmp eq i8*  %708,  %711, !dbg !3763
	br i1  %712, label %L..inline.41906, label %L.B1807, !dbg !3763
L.B1807:
	%713 = bitcast %struct._ZSt6vectorIjSaIjEE*  %704 to i8*, !dbg !3763
	%714 = getelementptr i8, i8*  %713, i64 8, !dbg !3763
	%715 = bitcast i8*  %714 to i8**, !dbg !3763
	%716 = load i8*, i8**  %715, align 8, !tbaa !2791, !dbg !3763
	%717 = bitcast i32** %..inline.addr.630 to i8**, !dbg !3763
	store i8*  %716, i8**  %717, align 8, !tbaa !2791, !dbg !3763
	%718 = load i32*, i32** %..inline.addr.630, align 8, !tbaa !2791, !dbg !3763
	%719 = bitcast i32*  %718 to i8*, !dbg !3763
	%720 = icmp eq i8*  %719,  null, !dbg !3763
	br i1  %720, label %L..inline.41944, label %L.B1808, !dbg !3763
L.B1808:
	store i32  %700, i32*  %718, align 4, !tbaa !2790, !dbg !3763
	br label %L..inline.41953, !dbg !3763
L..inline.41944:
	br label %L..inline.41953
L..inline.41953:
	%721 = load %struct._ZSt6vectorIjSaIjEE*, %struct._ZSt6vectorIjSaIjEE** %..inline.addr.620, align 8, !tbaa !2791, !dbg !3763
	%722 = bitcast %struct._ZSt6vectorIjSaIjEE*  %721 to i8*, !dbg !3763
	%723 = getelementptr i8, i8*  %722, i64 8, !dbg !3763
	%724 = bitcast i8*  %723 to i8**, !dbg !3763
	%725 = load i8*, i8**  %724, align 8, !tbaa !2791, !dbg !3763
	%726 = getelementptr i8, i8*  %725, i64 4, !dbg !3763
	store i8*  %726, i8**  %724, align 8, !tbaa !2791, !dbg !3763
	br label %L..inline.41956, !dbg !3763
L..inline.41906:
	%727 = load %struct._ZSt6vectorIjSaIjEE*, %struct._ZSt6vectorIjSaIjEE** %columnNumBlocks.addr, align 8, !tbaa !2791, !dbg !3763
	%728 = bitcast %struct._ZSt6vectorIjSaIjEE*  %727 to i8*, !dbg !3763
	%729 = getelementptr i8, i8*  %728, i64 8, !dbg !3763
	%730 = bitcast i8*  %729 to i8**, !dbg !3763
	%731 = load i8*, i8**  %730, align 8, !tbaa !2791, !dbg !3763
	%732 = bitcast %struct._ZN9__gnu_cxx17__normal_iteratorIPjSt6vectorIjSaIjEEEE* %..inline.addr.640 to i8**, !dbg !3763
	store i8*  %731, i8**  %732, align 8, !tbaa !2791, !dbg !3763
	%733 = load %struct._ZSt6vectorIjSaIjEE*, %struct._ZSt6vectorIjSaIjEE** %..inline.addr.620, align 8, !tbaa !2791, !dbg !3763
	%734 = bitcast %struct._ZN9__gnu_cxx17__normal_iteratorIPjSt6vectorIjSaIjEEEE* %..inline.addr.640 to i64*, !dbg !3763
	%735 = load i64, i64*  %734, align 8, !tbaa !2790, !dbg !3763
	invoke void  @_ZNSt6vectorIjSaIjEE17_M_realloc_insertIJjEEEvN9__gnu_cxx17__normal_iteratorIPjS1_EEDpOT_ (%struct._ZSt6vectorIjSaIjEE*  %733, i64  %735, i32* %_T38219784_19756.addr)
		to label %L.B1809
		unwind label %L_T38226592_19756, !dbg !3763
L.B1809:
	br label %L..inline.41956
L..inline.41956:
	%736 = load %struct._ZSt6vectorIjSaIjEE*, %struct._ZSt6vectorIjSaIjEE** %columnNumBlocks.addr, align 8, !tbaa !2791, !dbg !3771
	%737 = bitcast %struct._ZSt6vectorIjSaIjEE*  %736 to i8*, !dbg !3771
	%738 = getelementptr i8, i8*  %737, i64 8, !dbg !3771
	%739 = bitcast i8*  %738 to i8**, !dbg !3771
	%740 = load i8*, i8**  %739, align 8, !tbaa !2791, !dbg !3771
	%741 = bitcast %struct._ZSt6vectorIjSaIjEE*  %736 to i8**, !dbg !3771
	%742 = load i8*, i8**  %741, align 8, !tbaa !2791, !dbg !3771
	%743 = ptrtoint i8*  %742 to i64, !dbg !3771
	%744 = sub i64 0,  %743, !dbg !3771
	%745 = getelementptr i8, i8*  %740, i64  %744, !dbg !3771
	%746 = ptrtoint i8*  %745 to i64, !dbg !3771
	%747 = sext i32 2 to i64, !dbg !3771
	%748 = ashr i64  %746,  %747, !dbg !3771
	%749 = load %struct._ZSt6vectorIjSaIjEE*, %struct._ZSt6vectorIjSaIjEE** %setColumnOffsets.addr, align 8, !tbaa !2791, !dbg !3771
	%750 = bitcast %struct._ZSt6vectorIjSaIjEE*  %749 to i8*, !dbg !3771
	%751 = getelementptr i8, i8*  %750, i64 8, !dbg !3771
	%752 = bitcast i8*  %751 to i8**, !dbg !3771
	%753 = load i8*, i8**  %752, align 8, !tbaa !2791, !dbg !3771
	%754 = bitcast %struct._ZSt6vectorIjSaIjEE*  %749 to i8**, !dbg !3771
	%755 = load i8*, i8**  %754, align 8, !tbaa !2791, !dbg !3771
	%756 = ptrtoint i8*  %755 to i64, !dbg !3771
	%757 = sub i64 0,  %756, !dbg !3771
	%758 = getelementptr i8, i8*  %753, i64  %757, !dbg !3771
	%759 = ptrtoint i8*  %758 to i64, !dbg !3771
	%760 = sext i32 2 to i64, !dbg !3771
	%761 = ashr i64  %759,  %760, !dbg !3771
	%762 = sub i64  %761, 1, !dbg !3771
	%763 = bitcast %struct._ZSt6vectorIjSaIjEE*  %749 to i32**, !dbg !3771
	%764 = load i32*, i32**  %763, align 8, !tbaa !2791, !dbg !3771
	%765 = getelementptr i32, i32*  %764, i64  %762, !dbg !3771
	%766 = load i32, i32*  %765, align 4, !tbaa !2790, !dbg !3771
	%767 = zext i32  %766 to i64, !dbg !3771
	%768 = sub i64  %748,  %767, !dbg !3771
	%769 = trunc i64  %768 to i32, !dbg !3771
	store i32  %769, i32* %_T38219784_19756.addr, align 4, !tbaa !3788, !dbg !3771
	%770 = load %struct._ZSt6vectorIjSaIjEE*, %struct._ZSt6vectorIjSaIjEE** %setNumColumns.addr, align 8, !tbaa !2791, !dbg !3763
	%771 = bitcast %struct._ZSt6vectorIjSaIjEE*  %770 to i8*, !dbg !3763
	%772 = bitcast %struct._ZSt6vectorIjSaIjEE** %..inline.addr.650 to i8**, !dbg !3763
	store i8*  %771, i8**  %772, align 8, !tbaa !2791, !dbg !3763
	%773 = load %struct._ZSt6vectorIjSaIjEE*, %struct._ZSt6vectorIjSaIjEE** %..inline.addr.650, align 8, !tbaa !2791, !dbg !3763
	%774 = bitcast %struct._ZSt6vectorIjSaIjEE*  %773 to i8*, !dbg !3763
	%775 = getelementptr i8, i8*  %774, i64 8, !dbg !3763
	%776 = bitcast i8*  %775 to i8**, !dbg !3763
	%777 = load i8*, i8**  %776, align 8, !tbaa !2791, !dbg !3763
	%778 = getelementptr i8, i8*  %774, i64 16, !dbg !3763
	%779 = bitcast i8*  %778 to i8**, !dbg !3763
	%780 = load i8*, i8**  %779, align 8, !tbaa !2791, !dbg !3763
	%781 = icmp eq i8*  %777,  %780, !dbg !3763
	br i1  %781, label %L..inline.42020, label %L.B1810, !dbg !3763
L.B1810:
	%782 = bitcast %struct._ZSt6vectorIjSaIjEE*  %773 to i8*, !dbg !3763
	%783 = getelementptr i8, i8*  %782, i64 8, !dbg !3763
	%784 = bitcast i8*  %783 to i8**, !dbg !3763
	%785 = load i8*, i8**  %784, align 8, !tbaa !2791, !dbg !3763
	%786 = bitcast i32** %..inline.addr.660 to i8**, !dbg !3763
	store i8*  %785, i8**  %786, align 8, !tbaa !2791, !dbg !3763
	%787 = load i32*, i32** %..inline.addr.660, align 8, !tbaa !2791, !dbg !3763
	%788 = bitcast i32*  %787 to i8*, !dbg !3763
	%789 = icmp eq i8*  %788,  null, !dbg !3763
	br i1  %789, label %L..inline.42058, label %L.B1811, !dbg !3763
L.B1811:
	store i32  %769, i32*  %787, align 4, !tbaa !2790, !dbg !3763
	br label %L..inline.42067, !dbg !3763
L..inline.42058:
	br label %L..inline.42067
L..inline.42067:
	%790 = load %struct._ZSt6vectorIjSaIjEE*, %struct._ZSt6vectorIjSaIjEE** %..inline.addr.650, align 8, !tbaa !2791, !dbg !3763
	%791 = bitcast %struct._ZSt6vectorIjSaIjEE*  %790 to i8*, !dbg !3763
	%792 = getelementptr i8, i8*  %791, i64 8, !dbg !3763
	%793 = bitcast i8*  %792 to i8**, !dbg !3763
	%794 = load i8*, i8**  %793, align 8, !tbaa !2791, !dbg !3763
	%795 = getelementptr i8, i8*  %794, i64 4, !dbg !3763
	store i8*  %795, i8**  %793, align 8, !tbaa !2791, !dbg !3763
	br label %L..inline.42070, !dbg !3763
L..inline.42020:
	%796 = load %struct._ZSt6vectorIjSaIjEE*, %struct._ZSt6vectorIjSaIjEE** %setNumColumns.addr, align 8, !tbaa !2791, !dbg !3763
	%797 = bitcast %struct._ZSt6vectorIjSaIjEE*  %796 to i8*, !dbg !3763
	%798 = getelementptr i8, i8*  %797, i64 8, !dbg !3763
	%799 = bitcast i8*  %798 to i8**, !dbg !3763
	%800 = load i8*, i8**  %799, align 8, !tbaa !2791, !dbg !3763
	%801 = bitcast %struct._ZN9__gnu_cxx17__normal_iteratorIPjSt6vectorIjSaIjEEEE* %..inline.addr.670 to i8**, !dbg !3763
	store i8*  %800, i8**  %801, align 8, !tbaa !2791, !dbg !3763
	%802 = load %struct._ZSt6vectorIjSaIjEE*, %struct._ZSt6vectorIjSaIjEE** %..inline.addr.650, align 8, !tbaa !2791, !dbg !3763
	%803 = bitcast %struct._ZN9__gnu_cxx17__normal_iteratorIPjSt6vectorIjSaIjEEEE* %..inline.addr.670 to i64*, !dbg !3763
	%804 = load i64, i64*  %803, align 8, !tbaa !2790, !dbg !3763
	invoke void  @_ZNSt6vectorIjSaIjEE17_M_realloc_insertIJjEEEvN9__gnu_cxx17__normal_iteratorIPjS1_EEDpOT_ (%struct._ZSt6vectorIjSaIjEE*  %802, i64  %804, i32* %_T38219784_19756.addr)
		to label %L.B1812
		unwind label %L_T38226592_19756, !dbg !3763
L.B1812:
	br label %L..inline.42070
L..inline.42070:
	%805 = bitcast %struct._ZSt6vectorISt4pairIjjESaIS1_EE* %block_pairs.addr to i8**, !dbg !3784
	%806 = load i8*, i8**  %805, align 8, !tbaa !2791, !dbg !3784
	%807 = icmp eq i8*  %806,  null, !dbg !3784
	br i1  %807, label %L..inline.42139, label %L.B1813, !dbg !3784
L.B1813:
	%808 = bitcast %struct._ZSt6vectorISt4pairIjjESaIS1_EE* %block_pairs.addr to i8**, !dbg !3784
	%809 = load i8*, i8**  %808, align 8, !tbaa !2791, !dbg !3784
	%810 = bitcast %struct._ZSt4pairIjjE** %..inline.addr.680 to i8**, !dbg !3784
	store i8*  %809, i8**  %810, align 8, !tbaa !2791, !dbg !3784
	%811 = load %struct._ZSt4pairIjjE*, %struct._ZSt4pairIjjE** %..inline.addr.680, align 8, !tbaa !2791, !dbg !3784
	%812 = bitcast %struct._ZSt4pairIjjE*  %811 to i8*, !dbg !3784
	call void  @_ZdlPv (i8*  %812) nounwind, !dbg !3784
	br label %L.R0003, !dbg !3785
L_T38226592_19756:
	%813 = landingpad %astruct.dt64
	cleanup
	%814 = extractvalue %astruct.dt64  %813, 0, !dbg !3785
	store i8*  %814, i8** %__caught_object_address.addr, align 1, !tbaa !2791, !dbg !3785
	%815 = extractvalue %astruct.dt64  %813, 1, !dbg !3785
	store i32  %815, i32* %__catch_clause_number.addr, align 1, !tbaa !2790, !dbg !3785
	%816 = bitcast %struct._ZSt6vectorISt4pairIjjESaIS1_EE* %block_pairs.addr to i8**, !dbg !3784
	%817 = load i8*, i8**  %816, align 8, !tbaa !2791, !dbg !3784
	%818 = icmp eq i8*  %817,  null, !dbg !3784
	br i1  %818, label %L..inline.42217, label %L.B1814, !dbg !3784
L.B1814:
	%819 = bitcast %struct._ZSt6vectorISt4pairIjjESaIS1_EE* %block_pairs.addr to i8**, !dbg !3784
	%820 = load i8*, i8**  %819, align 8, !tbaa !2791, !dbg !3784
	%821 = bitcast %struct._ZSt4pairIjjE** %..inline.addr.710 to i8**, !dbg !3784
	store i8*  %820, i8**  %821, align 8, !tbaa !2791, !dbg !3784
	%822 = load %struct._ZSt4pairIjjE*, %struct._ZSt4pairIjjE** %..inline.addr.710, align 8, !tbaa !2791, !dbg !3784
	%823 = bitcast %struct._ZSt4pairIjjE*  %822 to i8*, !dbg !3784
	call void  @_ZdlPv (i8*  %823) nounwind, !dbg !3784
	br label %L..inline.42217
L..inline.42217:
	%824 = load i32, i32* %__catch_clause_number.addr, align 4, !tbaa !2790, !dbg !3785
	%825 = load i8*, i8** %__caught_object_address.addr, align 8, !tbaa !2791, !dbg !3785
	%826 = insertvalue %astruct.dt64 undef, i8*  %825, 0, !dbg !3785
	%827 = insertvalue %astruct.dt64  %826, i32  %824, 1, !dbg !3785
	resume %astruct.dt64  %827 , !dbg !3785
L..inline.42139:
	br label %L.R0003
L.R0003:
	ret void, !dbg !3786
}
define linkonce_odr %struct._ZSt4pairIjjE* @_ZNSt20__copy_move_backwardILb1ELb0ESt26random_access_iterator_tagE13__copy_move_bIPSt4pairIjjES5_EET0_T_S7_S6_(%struct._ZSt4pairIjjE* %__first.arg, %struct._ZSt4pairIjjE* %__last.arg, %struct._ZSt4pairIjjE* %__result.arg) #0 inlinehint !dbg !3796 {
L.entry:
	%__first.addr = alloca %struct._ZSt4pairIjjE*, align 8
	%__last.addr = alloca %struct._ZSt4pairIjjE*, align 8
	%__result.addr = alloca %struct._ZSt4pairIjjE*, align 8
	%.ivp0000.addr = alloca i8*, align 8
	%.ivp0001.addr = alloca i8*, align 8
	%.ivp0002.addr = alloca i8*, align 8
	%.ivp0003.addr = alloca i8*, align 8
	%.ndk0000.addr = alloca i64, align 8
	%.ndk0003.addr = alloca i64, align 8
	%.y10005.addr = alloca i64, align 8
	%.x4608.addr = alloca i64, align 8
	%.g0010.addr = alloca i64, align 8
	%.g0011.addr = alloca i64, align 8

	call void @llvm.dbg.declare (metadata %struct._ZSt4pairIjjE** %__first.addr, metadata !3816, metadata !2783), !dbg !3797
	store %struct._ZSt4pairIjjE* %__first.arg, %struct._ZSt4pairIjjE** %__first.addr, align 8, !tbaa !2791
	call void @llvm.dbg.declare (metadata %struct._ZSt4pairIjjE** %__first.addr, metadata !3817, metadata !2783), !dbg !3797
	call void @llvm.dbg.declare (metadata %struct._ZSt4pairIjjE** %__last.addr, metadata !3818, metadata !2783), !dbg !3797
	store %struct._ZSt4pairIjjE* %__last.arg, %struct._ZSt4pairIjjE** %__last.addr, align 8, !tbaa !2791
	call void @llvm.dbg.declare (metadata %struct._ZSt4pairIjjE** %__last.addr, metadata !3819, metadata !2783), !dbg !3797
	call void @llvm.dbg.declare (metadata %struct._ZSt4pairIjjE** %__result.addr, metadata !3820, metadata !2783), !dbg !3797
	store %struct._ZSt4pairIjjE* %__result.arg, %struct._ZSt4pairIjjE** %__result.addr, align 8, !tbaa !2791
	call void @llvm.dbg.declare (metadata %struct._ZSt4pairIjjE** %__result.addr, metadata !3821, metadata !2783), !dbg !3797
	%0 = load %struct._ZSt4pairIjjE*, %struct._ZSt4pairIjjE** %__last.addr, align 8, !tbaa !2791, !dbg !3822
	%1 = bitcast %struct._ZSt4pairIjjE*  %0 to i8*, !dbg !3822
	%2 = getelementptr i8, i8*  %1, i64 18446744073709551608, !dbg !3822
	store i8*  %2, i8** %.ivp0000.addr, align 8, !tbaa !2791, !dbg !3822
	%3 = load %struct._ZSt4pairIjjE*, %struct._ZSt4pairIjjE** %__result.addr, align 8, !tbaa !2791, !dbg !3822
	%4 = bitcast %struct._ZSt4pairIjjE*  %3 to i8*, !dbg !3822
	%5 = getelementptr i8, i8*  %4, i64 18446744073709551608, !dbg !3822
	store i8*  %5, i8** %.ivp0001.addr, align 8, !tbaa !2791, !dbg !3822
	store i8*  %1, i8** %.ivp0002.addr, align 8, !tbaa !2791, !dbg !3822
	store i8*  %4, i8** %.ivp0003.addr, align 8, !tbaa !2791, !dbg !3822
	%6 = load %struct._ZSt4pairIjjE*, %struct._ZSt4pairIjjE** %__first.addr, align 8, !tbaa !2791, !dbg !3822
	%7 = bitcast %struct._ZSt4pairIjjE*  %6 to i8*, !dbg !3822
	%8 = ptrtoint i8*  %7 to i64, !dbg !3822
	%9 = sub i64 0,  %8, !dbg !3822
	%10 = getelementptr i8, i8*  %1, i64  %9, !dbg !3822
	%11 = ptrtoint i8*  %10 to i64, !dbg !3822
	%12 = sext i32 3 to i64, !dbg !3822
	%13 = ashr i64  %11,  %12, !dbg !3822
	store i64  %13, i64* %.ndk0000.addr, align 8, !tbaa !3827, !dbg !3822
	%14 = icmp sle i64  %13, 0, !dbg !3822
	%15 = zext i1  %14 to i32, !dbg !3822
	%16 = trunc i32  %15 to i1, !dbg !3822
	%17 = mul i64  %13, -8, !dbg !3822
	%18 = getelementptr i8, i8*  %4, i64  %17, !dbg !3822
	%19 = select i1  %16, i8*  %4, i8*  %18, !dbg !3822
	%20 = bitcast %struct._ZSt4pairIjjE** %__result.addr to i8**, !dbg !3822
	store i8*  %19, i8**  %20, align 8, !tbaa !2791, !dbg !3822
	br label %L.B1819
L.B1819:
	store i64 0, i64* %.ndk0003.addr, align 8, !tbaa !3827, !dbg !3823
	%21 = load %struct._ZSt4pairIjjE*, %struct._ZSt4pairIjjE** %__last.addr, align 8, !tbaa !2791, !dbg !3823
	%22 = bitcast %struct._ZSt4pairIjjE*  %21 to i8*, !dbg !3823
	%23 = load %struct._ZSt4pairIjjE*, %struct._ZSt4pairIjjE** %__first.addr, align 8, !tbaa !2791, !dbg !3823
	%24 = bitcast %struct._ZSt4pairIjjE*  %23 to i8*, !dbg !3823
	%25 = ptrtoint i8*  %24 to i64, !dbg !3823
	%26 = sub i64 0,  %25, !dbg !3823
	%27 = getelementptr i8, i8*  %22, i64  %26, !dbg !3823
	%28 = ptrtoint i8*  %27 to i64, !dbg !3823
	%29 = sext i32 3 to i64, !dbg !3823
	%30 = ashr i64  %28,  %29, !dbg !3823
	%31 = icmp sle i64  %30, 0, !dbg !3823
	br i1  %31, label %L.B1824, label %L.B1829, !dbg !3823
L.B1829:
	%32 = bitcast %struct._ZSt4pairIjjE*  %21 to i8*, !dbg !3823
	%33 = bitcast %struct._ZSt4pairIjjE*  %23 to i8*, !dbg !3823
	%34 = ptrtoint i8*  %33 to i64, !dbg !3823
	%35 = sub i64 0,  %34, !dbg !3823
	%36 = getelementptr i8, i8*  %32, i64  %35, !dbg !3823
	%37 = ptrtoint i8*  %36 to i64, !dbg !3823
	%38 = sext i32 3 to i64, !dbg !3823
	%39 = ashr i64  %37,  %38, !dbg !3823
	store i64  %39, i64* %.y10005.addr, align 8, !tbaa !3827, !dbg !3823
	%40 = icmp slt i64  %39, 4, !dbg !3823
	br i1  %40, label %L.B1825, label %L.B1830, !dbg !3823
L.B1830:
	%41 = bitcast %struct._ZSt4pairIjjE*  %21 to i8*, !dbg !3823
	%42 = bitcast %struct._ZSt4pairIjjE*  %23 to i8*, !dbg !3823
	%43 = ptrtoint i8*  %42 to i64, !dbg !3823
	%44 = sub i64 0,  %43, !dbg !3823
	%45 = getelementptr i8, i8*  %41, i64  %44, !dbg !3823
	%46 = ptrtoint i8*  %45 to i64, !dbg !3823
	%47 = sext i32 3 to i64, !dbg !3823
	%48 = ashr i64  %46,  %47, !dbg !3823
	%49 = sub i64 0,  %43, !dbg !3823
	%50 = getelementptr i8, i8*  %41, i64  %49, !dbg !3823
	%51 = ptrtoint i8*  %50 to i64, !dbg !3823
	%52 = sext i32 3 to i64, !dbg !3823
	%53 = ashr i64  %51,  %52, !dbg !3823
	%54 = sext i32 1 to i64, !dbg !3823
	%55 = ashr i64  %53,  %54, !dbg !3823
	%56 = sext i32 62 to i64, !dbg !3823
	%57 = lshr i64  %55,  %56, !dbg !3823
	%58 = add i64  %48,  %57, !dbg !3823
	%59 = sext i32 2 to i64, !dbg !3823
	%60 = ashr i64  %58,  %59, !dbg !3823
	store i64  %60, i64* %.x4608.addr, align 8, !tbaa !3827, !dbg !3823
	%61 = sub i64 0,  %43, !dbg !3823
	%62 = getelementptr i8, i8*  %41, i64  %61, !dbg !3823
	%63 = ptrtoint i8*  %62 to i64, !dbg !3823
	%64 = sext i32 3 to i64, !dbg !3823
	%65 = ashr i64  %63,  %64, !dbg !3823
	%66 = sub i64 0,  %43, !dbg !3823
	%67 = getelementptr i8, i8*  %41, i64  %66, !dbg !3823
	%68 = ptrtoint i8*  %67 to i64, !dbg !3823
	%69 = sext i32 3 to i64, !dbg !3823
	%70 = ashr i64  %68,  %69, !dbg !3823
	%71 = sext i32 1 to i64, !dbg !3823
	%72 = ashr i64  %70,  %71, !dbg !3823
	%73 = sext i32 62 to i64, !dbg !3823
	%74 = lshr i64  %72,  %73, !dbg !3823
	%75 = add i64  %65,  %74, !dbg !3823
	%76 = sext i32 2 to i64, !dbg !3823
	%77 = ashr i64  %75,  %76, !dbg !3823
	store i64  %77, i64* %.g0010.addr, align 8, !tbaa !3827, !dbg !3823
	%78 = sub i64 0,  %43, !dbg !3823
	%79 = getelementptr i8, i8*  %41, i64  %78, !dbg !3823
	%80 = ptrtoint i8*  %79 to i64, !dbg !3823
	%81 = sext i32 3 to i64, !dbg !3823
	%82 = ashr i64  %80,  %81, !dbg !3823
	%83 = mul i64  %77, 4, !dbg !3823
	%84 = sub i64  %82,  %83, !dbg !3823
	store i64  %84, i64* %.g0011.addr, align 8, !tbaa !3827, !dbg !3823
	br label %L.B1823
L.B1823:
	%85 = load i8*, i8** %.ivp0002.addr, align 8, !tbaa !2791, !dbg !3823
	%86 = getelementptr i8, i8*  %85, i64 18446744073709551608, !dbg !3823
	%87 = load i64, i64* %.ndk0003.addr, align 8, !tbaa !3827, !dbg !3823
	%88 = mul i64  %87, -8, !dbg !3823
	%89 = getelementptr i8, i8*  %86, i64  %88, !dbg !3823
	%90 = bitcast i8*  %89 to i32*, !dbg !3823
	%91 = load i32, i32*  %90, align 4, !tbaa !2790, !dbg !3823
	%92 = load i8*, i8** %.ivp0003.addr, align 8, !tbaa !2791, !dbg !3823
	%93 = getelementptr i8, i8*  %92, i64 18446744073709551608, !dbg !3823
	%94 = mul i64  %87, -8, !dbg !3823
	%95 = getelementptr i8, i8*  %93, i64  %94, !dbg !3823
	%96 = bitcast i8*  %95 to i32*, !dbg !3823
	store i32  %91, i32*  %96, align 4, !tbaa !2790, !dbg !3823
	%97 = load i8*, i8** %.ivp0000.addr, align 8, !tbaa !2791, !dbg !3823
	%98 = getelementptr i8, i8*  %97, i64 4, !dbg !3823
	%99 = mul i64  %87, -8, !dbg !3823
	%100 = getelementptr i8, i8*  %98, i64  %99, !dbg !3823
	%101 = bitcast i8*  %100 to i32*, !dbg !3823
	%102 = load i32, i32*  %101, align 4, !tbaa !2790, !dbg !3823
	%103 = load i8*, i8** %.ivp0001.addr, align 8, !tbaa !2791, !dbg !3823
	%104 = getelementptr i8, i8*  %103, i64 4, !dbg !3823
	%105 = mul i64  %87, -8, !dbg !3823
	%106 = getelementptr i8, i8*  %104, i64  %105, !dbg !3823
	%107 = bitcast i8*  %106 to i32*, !dbg !3823
	store i32  %102, i32*  %107, align 4, !tbaa !2790, !dbg !3823
	%108 = add i64  %87, 1, !dbg !3823
	%109 = mul i64  %108, -8, !dbg !3823
	%110 = getelementptr i8, i8*  %86, i64  %109, !dbg !3823
	%111 = bitcast i8*  %110 to i32*, !dbg !3823
	%112 = load i32, i32*  %111, align 4, !tbaa !2790, !dbg !3823
	%113 = add i64  %87, 1, !dbg !3823
	%114 = mul i64  %113, -8, !dbg !3823
	%115 = getelementptr i8, i8*  %93, i64  %114, !dbg !3823
	%116 = bitcast i8*  %115 to i32*, !dbg !3823
	store i32  %112, i32*  %116, align 4, !tbaa !2790, !dbg !3823
	%117 = add i64  %87, 1, !dbg !3823
	%118 = mul i64  %117, -8, !dbg !3823
	%119 = getelementptr i8, i8*  %98, i64  %118, !dbg !3823
	%120 = bitcast i8*  %119 to i32*, !dbg !3823
	%121 = load i32, i32*  %120, align 4, !tbaa !2790, !dbg !3823
	%122 = add i64  %87, 1, !dbg !3823
	%123 = mul i64  %122, -8, !dbg !3823
	%124 = getelementptr i8, i8*  %104, i64  %123, !dbg !3823
	%125 = bitcast i8*  %124 to i32*, !dbg !3823
	store i32  %121, i32*  %125, align 4, !tbaa !2790, !dbg !3823
	%126 = add i64  %87, 2, !dbg !3823
	%127 = mul i64  %126, -8, !dbg !3823
	%128 = getelementptr i8, i8*  %86, i64  %127, !dbg !3823
	%129 = bitcast i8*  %128 to i32*, !dbg !3823
	%130 = load i32, i32*  %129, align 4, !tbaa !2790, !dbg !3823
	%131 = add i64  %87, 2, !dbg !3823
	%132 = mul i64  %131, -8, !dbg !3823
	%133 = getelementptr i8, i8*  %93, i64  %132, !dbg !3823
	%134 = bitcast i8*  %133 to i32*, !dbg !3823
	store i32  %130, i32*  %134, align 4, !tbaa !2790, !dbg !3823
	%135 = add i64  %87, 2, !dbg !3823
	%136 = mul i64  %135, -8, !dbg !3823
	%137 = getelementptr i8, i8*  %98, i64  %136, !dbg !3823
	%138 = bitcast i8*  %137 to i32*, !dbg !3823
	%139 = load i32, i32*  %138, align 4, !tbaa !2790, !dbg !3823
	%140 = add i64  %87, 2, !dbg !3823
	%141 = mul i64  %140, -8, !dbg !3823
	%142 = getelementptr i8, i8*  %104, i64  %141, !dbg !3823
	%143 = bitcast i8*  %142 to i32*, !dbg !3823
	store i32  %139, i32*  %143, align 4, !tbaa !2790, !dbg !3823
	%144 = add i64  %87, 3, !dbg !3823
	%145 = mul i64  %144, -8, !dbg !3823
	%146 = getelementptr i8, i8*  %86, i64  %145, !dbg !3823
	%147 = bitcast i8*  %146 to i32*, !dbg !3823
	%148 = load i32, i32*  %147, align 4, !tbaa !2790, !dbg !3823
	%149 = add i64  %87, 3, !dbg !3823
	%150 = mul i64  %149, -8, !dbg !3823
	%151 = getelementptr i8, i8*  %93, i64  %150, !dbg !3823
	%152 = bitcast i8*  %151 to i32*, !dbg !3823
	store i32  %148, i32*  %152, align 4, !tbaa !2790, !dbg !3823
	%153 = add i64  %87, 3, !dbg !3823
	%154 = mul i64  %153, -8, !dbg !3823
	%155 = getelementptr i8, i8*  %98, i64  %154, !dbg !3823
	%156 = bitcast i8*  %155 to i32*, !dbg !3823
	%157 = load i32, i32*  %156, align 4, !tbaa !2790, !dbg !3823
	%158 = add i64  %87, 3, !dbg !3823
	%159 = mul i64  %158, -8, !dbg !3823
	%160 = getelementptr i8, i8*  %104, i64  %159, !dbg !3823
	%161 = bitcast i8*  %160 to i32*, !dbg !3823
	store i32  %157, i32*  %161, align 4, !tbaa !2790, !dbg !3823
	%162 = add i64  %87, 4, !dbg !3823
	store i64  %162, i64* %.ndk0003.addr, align 8, !tbaa !3827, !dbg !3823
	%163 = load i64, i64* %.x4608.addr, align 8, !tbaa !3827, !dbg !3823
	%164 = sub i64  %163, 1, !dbg !3823
	store i64  %164, i64* %.x4608.addr, align 8, !tbaa !3827, !dbg !3823
	%165 = icmp sgt i64  %164, 0, !dbg !3823
	br i1  %165, label %L.B1823, label %L.B1831, !dbg !3823
L.B1831:
	%166 = load i64, i64* %.g0011.addr, align 8, !tbaa !3827, !dbg !3823
	store i64  %166, i64* %.y10005.addr, align 8, !tbaa !3827, !dbg !3823
	br label %L.B1825
L.B1825:
	%167 = load i64, i64* %.y10005.addr, align 8, !tbaa !3827, !dbg !3823
	%168 = icmp eq i64  %167, 0, !dbg !3823
	br i1  %168, label %L.B1826, label %L.B1832, !dbg !3823
L.B1832:
	%169 = icmp eq i64  %167, 1, !dbg !3823
	br i1  %169, label %L.B1827, label %L.B1833, !dbg !3823
L.B1833:
	%170 = icmp eq i64  %167, 2, !dbg !3823
	br i1  %170, label %L.B1828, label %L.B1834, !dbg !3823
L.B1834:
	%171 = load i8*, i8** %.ivp0002.addr, align 8, !tbaa !2791, !dbg !3823
	%172 = getelementptr i8, i8*  %171, i64 18446744073709551608, !dbg !3823
	%173 = load i64, i64* %.ndk0003.addr, align 8, !tbaa !3827, !dbg !3823
	%174 = mul i64  %173, -8, !dbg !3823
	%175 = getelementptr i8, i8*  %172, i64  %174, !dbg !3823
	%176 = bitcast i8*  %175 to i32*, !dbg !3823
	%177 = load i32, i32*  %176, align 4, !tbaa !2790, !dbg !3823
	%178 = load i8*, i8** %.ivp0003.addr, align 8, !tbaa !2791, !dbg !3823
	%179 = getelementptr i8, i8*  %178, i64 18446744073709551608, !dbg !3823
	%180 = mul i64  %173, -8, !dbg !3823
	%181 = getelementptr i8, i8*  %179, i64  %180, !dbg !3823
	%182 = bitcast i8*  %181 to i32*, !dbg !3823
	store i32  %177, i32*  %182, align 4, !tbaa !2790, !dbg !3823
	%183 = load i8*, i8** %.ivp0000.addr, align 8, !tbaa !2791, !dbg !3823
	%184 = getelementptr i8, i8*  %183, i64 4, !dbg !3823
	%185 = mul i64  %173, -8, !dbg !3823
	%186 = getelementptr i8, i8*  %184, i64  %185, !dbg !3823
	%187 = bitcast i8*  %186 to i32*, !dbg !3823
	%188 = load i32, i32*  %187, align 4, !tbaa !2790, !dbg !3823
	%189 = load i8*, i8** %.ivp0001.addr, align 8, !tbaa !2791, !dbg !3823
	%190 = getelementptr i8, i8*  %189, i64 4, !dbg !3823
	%191 = mul i64  %173, -8, !dbg !3823
	%192 = getelementptr i8, i8*  %190, i64  %191, !dbg !3823
	%193 = bitcast i8*  %192 to i32*, !dbg !3823
	store i32  %188, i32*  %193, align 4, !tbaa !2790, !dbg !3823
	%194 = add i64  %173, 1, !dbg !3823
	store i64  %194, i64* %.ndk0003.addr, align 8, !tbaa !3827, !dbg !3823
	br label %L.B1828
L.B1828:
	%195 = load i8*, i8** %.ivp0002.addr, align 8, !tbaa !2791, !dbg !3823
	%196 = getelementptr i8, i8*  %195, i64 18446744073709551608, !dbg !3823
	%197 = load i64, i64* %.ndk0003.addr, align 8, !tbaa !3827, !dbg !3823
	%198 = mul i64  %197, -8, !dbg !3823
	%199 = getelementptr i8, i8*  %196, i64  %198, !dbg !3823
	%200 = bitcast i8*  %199 to i32*, !dbg !3823
	%201 = load i32, i32*  %200, align 4, !tbaa !2790, !dbg !3823
	%202 = load i8*, i8** %.ivp0003.addr, align 8, !tbaa !2791, !dbg !3823
	%203 = getelementptr i8, i8*  %202, i64 18446744073709551608, !dbg !3823
	%204 = mul i64  %197, -8, !dbg !3823
	%205 = getelementptr i8, i8*  %203, i64  %204, !dbg !3823
	%206 = bitcast i8*  %205 to i32*, !dbg !3823
	store i32  %201, i32*  %206, align 4, !tbaa !2790, !dbg !3823
	%207 = load i8*, i8** %.ivp0000.addr, align 8, !tbaa !2791, !dbg !3823
	%208 = getelementptr i8, i8*  %207, i64 4, !dbg !3823
	%209 = mul i64  %197, -8, !dbg !3823
	%210 = getelementptr i8, i8*  %208, i64  %209, !dbg !3823
	%211 = bitcast i8*  %210 to i32*, !dbg !3823
	%212 = load i32, i32*  %211, align 4, !tbaa !2790, !dbg !3823
	%213 = load i8*, i8** %.ivp0001.addr, align 8, !tbaa !2791, !dbg !3823
	%214 = getelementptr i8, i8*  %213, i64 4, !dbg !3823
	%215 = mul i64  %197, -8, !dbg !3823
	%216 = getelementptr i8, i8*  %214, i64  %215, !dbg !3823
	%217 = bitcast i8*  %216 to i32*, !dbg !3823
	store i32  %212, i32*  %217, align 4, !tbaa !2790, !dbg !3823
	%218 = add i64  %197, 1, !dbg !3823
	store i64  %218, i64* %.ndk0003.addr, align 8, !tbaa !3827, !dbg !3823
	br label %L.B1827
L.B1827:
	%219 = load i8*, i8** %.ivp0002.addr, align 8, !tbaa !2791, !dbg !3823
	%220 = getelementptr i8, i8*  %219, i64 18446744073709551608, !dbg !3823
	%221 = load i64, i64* %.ndk0003.addr, align 8, !tbaa !3827, !dbg !3823
	%222 = mul i64  %221, -8, !dbg !3823
	%223 = getelementptr i8, i8*  %220, i64  %222, !dbg !3823
	%224 = bitcast i8*  %223 to i32*, !dbg !3823
	%225 = load i32, i32*  %224, align 4, !tbaa !2790, !dbg !3823
	%226 = load i8*, i8** %.ivp0003.addr, align 8, !tbaa !2791, !dbg !3823
	%227 = getelementptr i8, i8*  %226, i64 18446744073709551608, !dbg !3823
	%228 = mul i64  %221, -8, !dbg !3823
	%229 = getelementptr i8, i8*  %227, i64  %228, !dbg !3823
	%230 = bitcast i8*  %229 to i32*, !dbg !3823
	store i32  %225, i32*  %230, align 4, !tbaa !2790, !dbg !3823
	%231 = load i8*, i8** %.ivp0000.addr, align 8, !tbaa !2791, !dbg !3823
	%232 = getelementptr i8, i8*  %231, i64 4, !dbg !3823
	%233 = mul i64  %221, -8, !dbg !3823
	%234 = getelementptr i8, i8*  %232, i64  %233, !dbg !3823
	%235 = bitcast i8*  %234 to i32*, !dbg !3823
	%236 = load i32, i32*  %235, align 4, !tbaa !2790, !dbg !3823
	%237 = load i8*, i8** %.ivp0001.addr, align 8, !tbaa !2791, !dbg !3823
	%238 = getelementptr i8, i8*  %237, i64 4, !dbg !3823
	%239 = mul i64  %221, -8, !dbg !3823
	%240 = getelementptr i8, i8*  %238, i64  %239, !dbg !3823
	%241 = bitcast i8*  %240 to i32*, !dbg !3823
	store i32  %236, i32*  %241, align 4, !tbaa !2790, !dbg !3823
	br label %L.B1826
L.B1826:
	br label %L.B1824
L.B1824:
	%242 = load %struct._ZSt4pairIjjE*, %struct._ZSt4pairIjjE** %__result.addr, align 8, !tbaa !2791, !dbg !3824
	ret %struct._ZSt4pairIjjE*  %242, !dbg !3824
}
define linkonce_odr void @_ZNSt12_Destroy_auxILb1EE9__destroyIPjEEvT_S3_(i32* %_T38213328_19765.arg, i32* %_T38213624_19765.arg) #0 inlinehint !dbg !3833 {
L.entry:
	%_T38213328_19765.addr = alloca i32*, align 8
	%_T38213624_19765.addr = alloca i32*, align 8

	call void @llvm.dbg.declare (metadata i32** %_T38213328_19765.addr, metadata !3837, metadata !2783), !dbg !3834
	store i32* %_T38213328_19765.arg, i32** %_T38213328_19765.addr, align 8, !tbaa !2791
	call void @llvm.dbg.declare (metadata i32** %_T38213328_19765.addr, metadata !3838, metadata !2783), !dbg !3834
	call void @llvm.dbg.declare (metadata i32** %_T38213624_19765.addr, metadata !3839, metadata !2783), !dbg !3834
	store i32* %_T38213624_19765.arg, i32** %_T38213624_19765.addr, align 8, !tbaa !2791
	call void @llvm.dbg.declare (metadata i32** %_T38213624_19765.addr, metadata !3840, metadata !2783), !dbg !3834
	ret void, !dbg !3841
}
define linkonce_odr void @_ZNSt12_Destroy_auxILb1EE9__destroyIPdEEvT_S3_(double* %_T38213328_19768.arg, double* %_T38213624_19768.arg) #0 inlinehint !dbg !3845 {
L.entry:
	%_T38213328_19768.addr = alloca double*, align 8
	%_T38213624_19768.addr = alloca double*, align 8

	call void @llvm.dbg.declare (metadata double** %_T38213328_19768.addr, metadata !3849, metadata !2783), !dbg !3846
	store double* %_T38213328_19768.arg, double** %_T38213328_19768.addr, align 8, !tbaa !2791
	call void @llvm.dbg.declare (metadata double** %_T38213328_19768.addr, metadata !3850, metadata !2783), !dbg !3846
	call void @llvm.dbg.declare (metadata double** %_T38213624_19768.addr, metadata !3851, metadata !2783), !dbg !3846
	store double* %_T38213624_19768.arg, double** %_T38213624_19768.addr, align 8, !tbaa !2791
	call void @llvm.dbg.declare (metadata double** %_T38213624_19768.addr, metadata !3852, metadata !2783), !dbg !3846
	ret void, !dbg !3853
}
define linkonce_odr void @_ZNSt12_Destroy_auxILb1EE9__destroyIPSt4pairIjjEEEvT_S5_(%struct._ZSt4pairIjjE* %_T38213328_19771.arg, %struct._ZSt4pairIjjE* %_T38213624_19771.arg) #0 inlinehint !dbg !3857 {
L.entry:
	%_T38213328_19771.addr = alloca %struct._ZSt4pairIjjE*, align 8
	%_T38213624_19771.addr = alloca %struct._ZSt4pairIjjE*, align 8

	call void @llvm.dbg.declare (metadata %struct._ZSt4pairIjjE** %_T38213328_19771.addr, metadata !3861, metadata !2783), !dbg !3858
	store %struct._ZSt4pairIjjE* %_T38213328_19771.arg, %struct._ZSt4pairIjjE** %_T38213328_19771.addr, align 8, !tbaa !2791
	call void @llvm.dbg.declare (metadata %struct._ZSt4pairIjjE** %_T38213328_19771.addr, metadata !3862, metadata !2783), !dbg !3858
	call void @llvm.dbg.declare (metadata %struct._ZSt4pairIjjE** %_T38213624_19771.addr, metadata !3863, metadata !2783), !dbg !3858
	store %struct._ZSt4pairIjjE* %_T38213624_19771.arg, %struct._ZSt4pairIjjE** %_T38213624_19771.addr, align 8, !tbaa !2791
	call void @llvm.dbg.declare (metadata %struct._ZSt4pairIjjE** %_T38213624_19771.addr, metadata !3864, metadata !2783), !dbg !3858
	ret void, !dbg !3865
}

%struct._ZSt13move_iteratorIPjE = type <{ i32*}> 

define linkonce_odr i32* @_ZNSt20__uninitialized_copyILb1EE13__uninit_copyISt13move_iteratorIPjES3_EET0_T_S6_S5_(i64 %__first.coerce, i64 %__last.coerce, i32* %__result.arg) #0 inlinehint !dbg !3871 {
L.entry:
	%__first.addr = alloca %struct._ZSt13move_iteratorIPjE, align 8
	%__last.addr = alloca %struct._ZSt13move_iteratorIPjE, align 8
	%__result.addr = alloca i32*, align 8
	%..inline.addr = alloca i32*, align 8
	%..inline.addr.1 = alloca i32*, align 8
	%..inline.addr.2 = alloca i64, align 8

	call void @llvm.dbg.declare (metadata %struct._ZSt13move_iteratorIPjE* %__first.addr, metadata !3931, metadata !2783), !dbg !3872
	%0 = bitcast %struct._ZSt13move_iteratorIPjE* %__first.addr to i64*
	store i64 %__first.coerce, i64*  %0, align 8, !tbaa !2790
	call void @llvm.dbg.declare (metadata %struct._ZSt13move_iteratorIPjE* %__first.addr, metadata !3932, metadata !2783), !dbg !3872
	call void @llvm.dbg.declare (metadata %struct._ZSt13move_iteratorIPjE* %__last.addr, metadata !3933, metadata !2783), !dbg !3872
	%1 = bitcast %struct._ZSt13move_iteratorIPjE* %__last.addr to i64*
	store i64 %__last.coerce, i64*  %1, align 8, !tbaa !2790
	call void @llvm.dbg.declare (metadata %struct._ZSt13move_iteratorIPjE* %__last.addr, metadata !3934, metadata !2783), !dbg !3872
	call void @llvm.dbg.declare (metadata i32** %__result.addr, metadata !3935, metadata !2783), !dbg !3872
	store i32* %__result.arg, i32** %__result.addr, align 8, !tbaa !2791
	call void @llvm.dbg.declare (metadata i32** %__result.addr, metadata !3936, metadata !2783), !dbg !3872
	%2 = bitcast %struct._ZSt13move_iteratorIPjE* %__first.addr to i8**, !dbg !3937
	%3 = load i8*, i8**  %2, align 8, !tbaa !2791, !dbg !3937
	%4 = bitcast i32** %..inline.addr to i8**, !dbg !3937
	store i8*  %3, i8**  %4, align 8, !tbaa !2791, !dbg !3937
	%5 = load i32*, i32** %__result.addr, align 8, !tbaa !2791, !dbg !3937
	%6 = bitcast i32*  %5 to i8*, !dbg !3937
	%7 = bitcast i32** %..inline.addr.1 to i8**, !dbg !3937
	store i8*  %6, i8**  %7, align 8, !tbaa !2791, !dbg !3937
	%8 = bitcast %struct._ZSt13move_iteratorIPjE* %__last.addr to i8**, !dbg !3937
	%9 = load i8*, i8**  %8, align 8, !tbaa !2791, !dbg !3937
	%10 = ptrtoint i8*  %3 to i64, !dbg !3937
	%11 = sub i64 0,  %10, !dbg !3937
	%12 = getelementptr i8, i8*  %9, i64  %11, !dbg !3937
	%13 = ptrtoint i8*  %12 to i64, !dbg !3937
	%14 = sext i32 2 to i64, !dbg !3937
	%15 = ashr i64  %13,  %14, !dbg !3937
	store i64  %15, i64* %..inline.addr.2, align 8, !tbaa !3790, !dbg !3937
	%16 = icmp eq i64  %15, 0, !dbg !3937
	br i1  %16, label %L..inline.43360, label %L.B1837, !dbg !3937
L.B1837:
	%17 = load i32*, i32** %..inline.addr.1, align 8, !tbaa !2791, !dbg !3937
	%18 = bitcast i32*  %17 to i8*, !dbg !3937
	%19 = load i32*, i32** %..inline.addr, align 8, !tbaa !2791, !dbg !3937
	%20 = bitcast i32*  %19 to i8*, !dbg !3937
	%21 = mul i64  %15, 4, !dbg !3937
	%22 = call i8*  @memmove (i8*  %18, i8*  %20, i64  %21) nounwind, !dbg !3937
	br label %L..inline.43360
L..inline.43360:
	%23 = load i32*, i32** %..inline.addr.1, align 8, !tbaa !2791, !dbg !3938
	%24 = bitcast i32*  %23 to i8*, !dbg !3938
	%25 = load i64, i64* %..inline.addr.2, align 8, !tbaa !3790, !dbg !3938
	%26 = mul i64  %25, 4, !dbg !3938
	%27 = getelementptr i8, i8*  %24, i64  %26, !dbg !3938
	%28 = bitcast i8*  %27 to i32*, !dbg !3938
	ret i32*  %28, !dbg !3938
}

%struct._ZSaIcE = type <{ [1 x i8]}> 

define linkonce_odr void @_ZNSt16allocator_traitsISaIcEE10deallocateERS0_Pcm(%struct._ZSaIcE* %__a.arg, i8* %__p.arg, i64 %__n.arg) #0 inlinehint !dbg !3949 {
L.entry:
	%__a.addr = alloca %struct._ZSaIcE*, align 8
	%__p.addr = alloca i8*, align 8
	%__n.addr = alloca i64, align 8
	%..inline.addr = alloca i8*, align 8

	call void @llvm.dbg.declare (metadata %struct._ZSaIcE** %__a.addr, metadata !3957, metadata !2783), !dbg !3950
	store %struct._ZSaIcE* %__a.arg, %struct._ZSaIcE** %__a.addr, align 8, !tbaa !2791
	call void @llvm.dbg.declare (metadata %struct._ZSaIcE** %__a.addr, metadata !3958, metadata !2783), !dbg !3950
	call void @llvm.dbg.declare (metadata i8** %__p.addr, metadata !3959, metadata !2783), !dbg !3950
	store i8* %__p.arg, i8** %__p.addr, align 8, !tbaa !2791
	call void @llvm.dbg.declare (metadata i8** %__p.addr, metadata !3960, metadata !2783), !dbg !3950
	call void @llvm.dbg.declare (metadata i64* %__n.addr, metadata !3961, metadata !2783), !dbg !3950
	store i64 %__n.arg, i64* %__n.addr, align 8, !tbaa !2790
	call void @llvm.dbg.declare (metadata i64* %__n.addr, metadata !3962, metadata !2783), !dbg !3950
	%0 = load i8*, i8** %__p.addr, align 8, !tbaa !2791, !dbg !3963
	call void  @_ZdlPv (i8*  %0) nounwind, !dbg !3964
	ret void, !dbg !3963
}

%struct._ZSaIjE = type <{ [1 x i8]}> 

define linkonce_odr void @_ZNSaIjED1Ev(%struct._ZSaIjE* %_T38213328_19781.arg) #0 inlinehint !dbg !3971 {
L.entry:
	%_T38213328_19781.addr = alloca %struct._ZSaIjE*, align 8

	call void @llvm.dbg.declare (metadata %struct._ZSaIjE** %_T38213328_19781.addr, metadata !3975, metadata !2783), !dbg !3972
	store %struct._ZSaIjE* %_T38213328_19781.arg, %struct._ZSaIjE** %_T38213328_19781.addr, align 8, !tbaa !2791
	call void @llvm.dbg.declare (metadata %struct._ZSaIjE** %_T38213328_19781.addr, metadata !3976, metadata !2783), !dbg !3972
	ret void, !dbg !3977
}
define linkonce_odr void @_ZNSaIjED2Ev(%struct._ZSaIjE* %_T38213328_19782.arg) #0 inlinehint !dbg !3979 {
L.entry:
	%_T38213328_19782.addr = alloca %struct._ZSaIjE*, align 8

	store %struct._ZSaIjE* %_T38213328_19782.arg, %struct._ZSaIjE** %_T38213328_19782.addr, align 8, !tbaa !2791
	ret void, !dbg !3987
}
define linkonce_odr i32* @_ZNSt16allocator_traitsISaIjEE8allocateERS0_m(%struct._ZSaIjE* %__a.arg, i64 %__n.arg) #0 inlinehint !dbg !3995 {
L.entry:
	%__a.addr = alloca %struct._ZSaIjE*, align 8
	%__n.addr = alloca i64, align 8
	%..inline.addr = alloca i64, align 8
	%.Q0000.addr = alloca i8*, align 8

	call void @llvm.dbg.declare (metadata %struct._ZSaIjE** %__a.addr, metadata !4007, metadata !2783), !dbg !3996
	store %struct._ZSaIjE* %__a.arg, %struct._ZSaIjE** %__a.addr, align 8, !tbaa !2791
	call void @llvm.dbg.declare (metadata %struct._ZSaIjE** %__a.addr, metadata !4008, metadata !2783), !dbg !3996
	call void @llvm.dbg.declare (metadata i64* %__n.addr, metadata !4009, metadata !2783), !dbg !3996
	store i64 %__n.arg, i64* %__n.addr, align 8, !tbaa !2790
	call void @llvm.dbg.declare (metadata i64* %__n.addr, metadata !4010, metadata !2783), !dbg !3996
	%0 = load i64, i64* %__n.addr, align 8, !tbaa !3790, !dbg !4011
	store i64  %0, i64* %..inline.addr, align 8, !tbaa !3790, !dbg !4011
	%1 = icmp ule i64  %0, 4611686018427387903, !dbg !4012
	br i1  %1, label %L..inline.43448, label %L.B1844, !dbg !4012
L.B1844:
	call void  @_ZSt17__throw_bad_allocv () noreturn, !dbg !4013
	br label %L..inline.43448
L..inline.43448:
	%2 = load i64, i64* %..inline.addr, align 8, !tbaa !3790, !dbg !4014
	%3 = mul i64  %2, 4, !dbg !4014
	%4 = call i8*  @_Znwm (i64  %3), !dbg !4014
	store i8*  %4, i8** %.Q0000.addr, align 8, !tbaa !2791, !dbg !4014
	%5 = bitcast i8*  %4 to i32*, !dbg !4014
	ret i32*  %5, !dbg !4014
}
define linkonce_odr void @_ZNSt16allocator_traitsISaIjEE10deallocateERS0_Pjm(%struct._ZSaIjE* %__a.arg, i32* %__p.arg, i64 %__n.arg) #0 inlinehint !dbg !4018 {
L.entry:
	%__a.addr = alloca %struct._ZSaIjE*, align 8
	%__p.addr = alloca i32*, align 8
	%__n.addr = alloca i64, align 8
	%..inline.addr = alloca i32*, align 8

	call void @llvm.dbg.declare (metadata %struct._ZSaIjE** %__a.addr, metadata !4026, metadata !2783), !dbg !4019
	store %struct._ZSaIjE* %__a.arg, %struct._ZSaIjE** %__a.addr, align 8, !tbaa !2791
	call void @llvm.dbg.declare (metadata %struct._ZSaIjE** %__a.addr, metadata !4027, metadata !2783), !dbg !4019
	call void @llvm.dbg.declare (metadata i32** %__p.addr, metadata !4028, metadata !2783), !dbg !4019
	store i32* %__p.arg, i32** %__p.addr, align 8, !tbaa !2791
	call void @llvm.dbg.declare (metadata i32** %__p.addr, metadata !4029, metadata !2783), !dbg !4019
	call void @llvm.dbg.declare (metadata i64* %__n.addr, metadata !4030, metadata !2783), !dbg !4019
	store i64 %__n.arg, i64* %__n.addr, align 8, !tbaa !2790
	call void @llvm.dbg.declare (metadata i64* %__n.addr, metadata !4031, metadata !2783), !dbg !4019
	%0 = load i32*, i32** %__p.addr, align 8, !tbaa !2791, !dbg !4032
	%1 = bitcast i32*  %0 to i8*, !dbg !4032
	%2 = bitcast i32** %..inline.addr to i8**, !dbg !4032
	store i8*  %1, i8**  %2, align 8, !tbaa !2791, !dbg !4032
	%3 = load i32*, i32** %..inline.addr, align 8, !tbaa !2791, !dbg !4033
	%4 = bitcast i32*  %3 to i8*, !dbg !4033
	call void  @_ZdlPv (i8*  %4) nounwind, !dbg !4033
	ret void, !dbg !4032
}
define linkonce_odr i64 @_ZNSt16allocator_traitsISaIjEE8max_sizeERKS0_(%struct._ZSaIjE* %__a.arg) #0 inlinehint !dbg !4041 {
L.entry:
	%__a.addr = alloca %struct._ZSaIjE*, align 8

	call void @llvm.dbg.declare (metadata %struct._ZSaIjE** %__a.addr, metadata !4049, metadata !2783), !dbg !4042
	store %struct._ZSaIjE* %__a.arg, %struct._ZSaIjE** %__a.addr, align 8, !tbaa !2791
	call void @llvm.dbg.declare (metadata %struct._ZSaIjE** %__a.addr, metadata !4050, metadata !2783), !dbg !4042
	ret i64 4611686018427387903, !dbg !4051
}
define linkonce_odr void @_ZNSt16allocator_traitsISaIjEE9constructIjJRKjEEEvRS0_PT_DpOT0_(%struct._ZSaIjE* %__a.arg, i32* %__p.arg, i32* %__args.arg) #0 inlinehint !dbg !4056 {
L.entry:
	%__a.addr = alloca %struct._ZSaIjE*, align 8
	%__p.addr = alloca i32*, align 8
	%__args.addr = alloca i32*, align 8

	call void @llvm.dbg.declare (metadata %struct._ZSaIjE** %__a.addr, metadata !4076, metadata !2783), !dbg !4057
	store %struct._ZSaIjE* %__a.arg, %struct._ZSaIjE** %__a.addr, align 8, !tbaa !2791
	call void @llvm.dbg.declare (metadata %struct._ZSaIjE** %__a.addr, metadata !4077, metadata !2783), !dbg !4057
	call void @llvm.dbg.declare (metadata i32** %__p.addr, metadata !4078, metadata !2783), !dbg !4057
	store i32* %__p.arg, i32** %__p.addr, align 8, !tbaa !2791
	call void @llvm.dbg.declare (metadata i32** %__p.addr, metadata !4079, metadata !2783), !dbg !4057
	call void @llvm.dbg.declare (metadata i32** %__args.addr, metadata !4080, metadata !2783), !dbg !4057
	store i32* %__args.arg, i32** %__args.addr, align 8, !tbaa !2791
	call void @llvm.dbg.declare (metadata i32** %__args.addr, metadata !4081, metadata !2783), !dbg !4057
	%0 = load i32*, i32** %__p.addr, align 8, !tbaa !2791, !dbg !4082
	%1 = bitcast i32*  %0 to i8*, !dbg !4082
	%2 = icmp eq i8*  %1,  null, !dbg !4082
	br i1  %2, label %L..inline.43514, label %L.B1853, !dbg !4082
L.B1853:
	%3 = load i32*, i32** %__args.addr, align 8, !tbaa !2791, !dbg !4082
	%4 = load i32, i32*  %3, align 4, !tbaa !2790, !dbg !4082
	store i32  %4, i32*  %0, align 4, !tbaa !2790, !dbg !4082
	br label %L..inline.43524, !dbg !4082
L..inline.43514:
	br label %L..inline.43524
L..inline.43524:
	ret void, !dbg !4083
}
define linkonce_odr void @_ZNSt16allocator_traitsISaIjEE7destroyIjEEvRS0_PT_(%struct._ZSaIjE* %__a.arg, i32* %__p.arg) #0 inlinehint !dbg !4087 {
L.entry:
	%__a.addr = alloca %struct._ZSaIjE*, align 8
	%__p.addr = alloca i32*, align 8

	call void @llvm.dbg.declare (metadata %struct._ZSaIjE** %__a.addr, metadata !4095, metadata !2783), !dbg !4088
	store %struct._ZSaIjE* %__a.arg, %struct._ZSaIjE** %__a.addr, align 8, !tbaa !2791
	call void @llvm.dbg.declare (metadata %struct._ZSaIjE** %__a.addr, metadata !4096, metadata !2783), !dbg !4088
	call void @llvm.dbg.declare (metadata i32** %__p.addr, metadata !4097, metadata !2783), !dbg !4088
	store i32* %__p.arg, i32** %__p.addr, align 8, !tbaa !2791
	call void @llvm.dbg.declare (metadata i32** %__p.addr, metadata !4098, metadata !2783), !dbg !4088
	ret void, !dbg !4099
}
define linkonce_odr void @_ZNSt16allocator_traitsISaIjEE9constructIjJjEEEvRS0_PT_DpOT0_(%struct._ZSaIjE* %__a.arg, i32* %__p.arg, i32* %__args.arg) #0 inlinehint !dbg !4101 {
L.entry:
	%__a.addr = alloca %struct._ZSaIjE*, align 8
	%__p.addr = alloca i32*, align 8
	%__args.addr = alloca i32*, align 8

	call void @llvm.dbg.declare (metadata %struct._ZSaIjE** %__a.addr, metadata !4121, metadata !2783), !dbg !4102
	store %struct._ZSaIjE* %__a.arg, %struct._ZSaIjE** %__a.addr, align 8, !tbaa !2791
	call void @llvm.dbg.declare (metadata %struct._ZSaIjE** %__a.addr, metadata !4122, metadata !2783), !dbg !4102
	call void @llvm.dbg.declare (metadata i32** %__p.addr, metadata !4123, metadata !2783), !dbg !4102
	store i32* %__p.arg, i32** %__p.addr, align 8, !tbaa !2791
	call void @llvm.dbg.declare (metadata i32** %__p.addr, metadata !4124, metadata !2783), !dbg !4102
	call void @llvm.dbg.declare (metadata i32** %__args.addr, metadata !4125, metadata !2783), !dbg !4102
	store i32* %__args.arg, i32** %__args.addr, align 8, !tbaa !2791
	call void @llvm.dbg.declare (metadata i32** %__args.addr, metadata !4126, metadata !2783), !dbg !4102
	%0 = load i32*, i32** %__p.addr, align 8, !tbaa !2791, !dbg !4127
	%1 = bitcast i32*  %0 to i8*, !dbg !4127
	%2 = icmp eq i8*  %1,  null, !dbg !4127
	br i1  %2, label %L..inline.43581, label %L.B1860, !dbg !4127
L.B1860:
	%3 = load i32*, i32** %__args.addr, align 8, !tbaa !2791, !dbg !4127
	%4 = load i32, i32*  %3, align 4, !tbaa !2790, !dbg !4127
	store i32  %4, i32*  %0, align 4, !tbaa !2790, !dbg !4127
	br label %L..inline.43591, !dbg !4127
L..inline.43581:
	br label %L..inline.43591
L..inline.43591:
	ret void, !dbg !4128
}
define linkonce_odr %struct._ZSaIjE* @_ZNSt12_Vector_baseIjSaIjEE19_M_get_Tp_allocatorEv(%struct._ZSt12_Vector_baseIjSaIjEE* %_T38213328_19796.arg) #0 inlinehint !dbg !4136 {
L.entry:
	%_T38213328_19796.addr = alloca %struct._ZSt12_Vector_baseIjSaIjEE*, align 8

	call void @llvm.dbg.declare (metadata %struct._ZSt12_Vector_baseIjSaIjEE** %_T38213328_19796.addr, metadata !4140, metadata !2783), !dbg !4137
	store %struct._ZSt12_Vector_baseIjSaIjEE* %_T38213328_19796.arg, %struct._ZSt12_Vector_baseIjSaIjEE** %_T38213328_19796.addr, align 8, !tbaa !2791
	call void @llvm.dbg.declare (metadata %struct._ZSt12_Vector_baseIjSaIjEE** %_T38213328_19796.addr, metadata !4141, metadata !2783), !dbg !4137
	%0 = load %struct._ZSt12_Vector_baseIjSaIjEE*, %struct._ZSt12_Vector_baseIjSaIjEE** %_T38213328_19796.addr, align 8, !tbaa !2791, !dbg !4142
	%1 = bitcast %struct._ZSt12_Vector_baseIjSaIjEE*  %0 to %struct._ZSaIjE*, !dbg !4142
	ret %struct._ZSaIjE*  %1, !dbg !4142
}
define linkonce_odr %struct._ZSaIjE* @_ZNKSt12_Vector_baseIjSaIjEE19_M_get_Tp_allocatorEv(%struct._ZSt12_Vector_baseIjSaIjEE* %_T38213328_19797.arg) #0 inlinehint !dbg !4144 {
L.entry:
	%_T38213328_19797.addr = alloca %struct._ZSt12_Vector_baseIjSaIjEE*, align 8

	call void @llvm.dbg.declare (metadata %struct._ZSt12_Vector_baseIjSaIjEE** %_T38213328_19797.addr, metadata !4148, metadata !2783), !dbg !4145
	store %struct._ZSt12_Vector_baseIjSaIjEE* %_T38213328_19797.arg, %struct._ZSt12_Vector_baseIjSaIjEE** %_T38213328_19797.addr, align 8, !tbaa !2791
	call void @llvm.dbg.declare (metadata %struct._ZSt12_Vector_baseIjSaIjEE** %_T38213328_19797.addr, metadata !4149, metadata !2783), !dbg !4145
	%0 = load %struct._ZSt12_Vector_baseIjSaIjEE*, %struct._ZSt12_Vector_baseIjSaIjEE** %_T38213328_19797.addr, align 8, !tbaa !2791, !dbg !4150
	%1 = bitcast %struct._ZSt12_Vector_baseIjSaIjEE*  %0 to %struct._ZSaIjE*, !dbg !4150
	ret %struct._ZSaIjE*  %1, !dbg !4150
}
define linkonce_odr void @_ZNSt12_Vector_baseIjSaIjEED1Ev(%struct._ZSt12_Vector_baseIjSaIjEE* %_T38213328_19798.arg) #0 inlinehint !dbg !4154 {
L.entry:
	%_T38213328_19798.addr = alloca %struct._ZSt12_Vector_baseIjSaIjEE*, align 8
	%..inline.addr = alloca i32*, align 8

	call void @llvm.dbg.declare (metadata %struct._ZSt12_Vector_baseIjSaIjEE** %_T38213328_19798.addr, metadata !4182, metadata !2783), !dbg !4155
	store %struct._ZSt12_Vector_baseIjSaIjEE* %_T38213328_19798.arg, %struct._ZSt12_Vector_baseIjSaIjEE** %_T38213328_19798.addr, align 8, !tbaa !2791
	call void @llvm.dbg.declare (metadata %struct._ZSt12_Vector_baseIjSaIjEE** %_T38213328_19798.addr, metadata !4183, metadata !2783), !dbg !4155
	%0 = load %struct._ZSt12_Vector_baseIjSaIjEE*, %struct._ZSt12_Vector_baseIjSaIjEE** %_T38213328_19798.addr, align 8, !tbaa !2791, !dbg !4184
	%1 = bitcast %struct._ZSt12_Vector_baseIjSaIjEE*  %0 to i8**, !dbg !4184
	%2 = load i8*, i8**  %1, align 8, !tbaa !2791, !dbg !4184
	%3 = icmp eq i8*  %2,  null, !dbg !4184
	br i1  %3, label %L..inline.43627, label %L.B1865, !dbg !4184
L.B1865:
	%4 = bitcast %struct._ZSt12_Vector_baseIjSaIjEE*  %0 to i8**, !dbg !4185
	%5 = load i8*, i8**  %4, align 8, !tbaa !2791, !dbg !4185
	%6 = bitcast i32** %..inline.addr to i8**, !dbg !4185
	store i8*  %5, i8**  %6, align 8, !tbaa !2791, !dbg !4185
	%7 = load i32*, i32** %..inline.addr, align 8, !tbaa !2791, !dbg !4185
	%8 = bitcast i32*  %7 to i8*, !dbg !4185
	call void  @_ZdlPv (i8*  %8) nounwind, !dbg !4185
	br label %L..inline.43627
L..inline.43627:
	ret void, !dbg !4186
}
define linkonce_odr void @_ZNSt12_Vector_baseIjSaIjEED2Ev(%struct._ZSt12_Vector_baseIjSaIjEE* %_T38213328_19799.arg) #0 inlinehint !dbg !4188 {
L.entry:
	%_T38213328_19799.addr = alloca %struct._ZSt12_Vector_baseIjSaIjEE*, align 8
	%..inline.addr = alloca %struct._ZSt12_Vector_baseIjSaIjEE*, align 8
	%..inline.addr.1 = alloca i32*, align 8

	store %struct._ZSt12_Vector_baseIjSaIjEE* %_T38213328_19799.arg, %struct._ZSt12_Vector_baseIjSaIjEE** %_T38213328_19799.addr, align 8, !tbaa !2791
	%0 = load %struct._ZSt12_Vector_baseIjSaIjEE*, %struct._ZSt12_Vector_baseIjSaIjEE** %_T38213328_19799.addr, align 8, !tbaa !2791, !dbg !4220
	%1 = bitcast %struct._ZSt12_Vector_baseIjSaIjEE*  %0 to i8*, !dbg !4220
	%2 = bitcast %struct._ZSt12_Vector_baseIjSaIjEE** %..inline.addr to i8**, !dbg !4220
	store i8*  %1, i8**  %2, align 8, !tbaa !2791, !dbg !4220
	%3 = load %struct._ZSt12_Vector_baseIjSaIjEE*, %struct._ZSt12_Vector_baseIjSaIjEE** %..inline.addr, align 8, !tbaa !2791, !dbg !4220
	%4 = bitcast %struct._ZSt12_Vector_baseIjSaIjEE*  %3 to i8**, !dbg !4220
	%5 = load i8*, i8**  %4, align 8, !tbaa !2791, !dbg !4220
	%6 = icmp eq i8*  %5,  null, !dbg !4220
	br i1  %6, label %L..inline.43686, label %L.B1868, !dbg !4220
L.B1868:
	%7 = bitcast %struct._ZSt12_Vector_baseIjSaIjEE*  %3 to i8**, !dbg !4220
	%8 = load i8*, i8**  %7, align 8, !tbaa !2791, !dbg !4220
	%9 = bitcast i32** %..inline.addr.1 to i8**, !dbg !4220
	store i8*  %8, i8**  %9, align 8, !tbaa !2791, !dbg !4220
	%10 = load i32*, i32** %..inline.addr.1, align 8, !tbaa !2791, !dbg !4220
	%11 = bitcast i32*  %10 to i8*, !dbg !4220
	call void  @_ZdlPv (i8*  %11) nounwind, !dbg !4220
	br label %L..inline.43686
L..inline.43686:
	ret void, !dbg !4221
}
define linkonce_odr i32* @_ZNSt12_Vector_baseIjSaIjEE11_M_allocateEm(%struct._ZSt12_Vector_baseIjSaIjEE* %_T38213328_19802.arg, i64 %__n.arg) #0 inlinehint !dbg !4225 {
L.entry:
	%_T38213328_19802.addr = alloca %struct._ZSt12_Vector_baseIjSaIjEE*, align 8
	%__n.addr = alloca i64, align 8
	%..inline.addr = alloca i64, align 8
	%.Q0001.addr = alloca i8*, align 8
	%.I0009.addr = alloca i32*, align 8

	call void @llvm.dbg.declare (metadata %struct._ZSt12_Vector_baseIjSaIjEE** %_T38213328_19802.addr, metadata !4241, metadata !2783), !dbg !4226
	store %struct._ZSt12_Vector_baseIjSaIjEE* %_T38213328_19802.arg, %struct._ZSt12_Vector_baseIjSaIjEE** %_T38213328_19802.addr, align 8, !tbaa !2791
	call void @llvm.dbg.declare (metadata %struct._ZSt12_Vector_baseIjSaIjEE** %_T38213328_19802.addr, metadata !4242, metadata !2783), !dbg !4226
	call void @llvm.dbg.declare (metadata i64* %__n.addr, metadata !4243, metadata !2783), !dbg !4226
	store i64 %__n.arg, i64* %__n.addr, align 8, !tbaa !2790
	call void @llvm.dbg.declare (metadata i64* %__n.addr, metadata !4244, metadata !2783), !dbg !4226
	%0 = load i64, i64* %__n.addr, align 8, !tbaa !3790, !dbg !4245
	%1 = icmp eq i64  %0, 0, !dbg !4245
	br i1  %1, label %L.B0033, label %L.B1871, !dbg !4245
L.B1871:
	store i64  %0, i64* %..inline.addr, align 8, !tbaa !3790, !dbg !4246
	%2 = icmp ule i64  %0, 4611686018427387903, !dbg !4246
	br i1  %2, label %L..inline.43752, label %L.B1872, !dbg !4246
L.B1872:
	call void  @_ZSt17__throw_bad_allocv () noreturn, !dbg !4246
	br label %L..inline.43752
L..inline.43752:
	%3 = load i64, i64* %..inline.addr, align 8, !tbaa !3790, !dbg !4246
	%4 = mul i64  %3, 4, !dbg !4246
	%5 = call i8*  @_Znwm (i64  %4), !dbg !4246
	store i8*  %5, i8** %.Q0001.addr, align 8, !tbaa !2791, !dbg !4246
	%6 = bitcast i32** %.I0009.addr to i8**, !dbg !4246
	store i8*  %5, i8**  %6, align 8, !tbaa !2791, !dbg !4246
	br label %L.B0034, !dbg !4245
L.B0033:
	%7 = bitcast i32** %.I0009.addr to i8**, !dbg !4245
	store i8* null, i8**  %7, align 8, !tbaa !2791, !dbg !4245
	br label %L.B0034
L.B0034:
	%8 = load i32*, i32** %.I0009.addr, align 8, !tbaa !2791, !dbg !4245
	ret i32*  %8, !dbg !4245
}
define linkonce_odr void @_ZNSt12_Vector_baseIjSaIjEE13_M_deallocateEPjm(%struct._ZSt12_Vector_baseIjSaIjEE* %_T38213328_19805.arg, i32* %__p.arg, i64 %__n.arg) #0 inlinehint !dbg !4251 {
L.entry:
	%_T38213328_19805.addr = alloca %struct._ZSt12_Vector_baseIjSaIjEE*, align 8
	%__p.addr = alloca i32*, align 8
	%__n.addr = alloca i64, align 8
	%..inline.addr = alloca i32*, align 8

	call void @llvm.dbg.declare (metadata %struct._ZSt12_Vector_baseIjSaIjEE** %_T38213328_19805.addr, metadata !4263, metadata !2783), !dbg !4252
	store %struct._ZSt12_Vector_baseIjSaIjEE* %_T38213328_19805.arg, %struct._ZSt12_Vector_baseIjSaIjEE** %_T38213328_19805.addr, align 8, !tbaa !2791
	call void @llvm.dbg.declare (metadata %struct._ZSt12_Vector_baseIjSaIjEE** %_T38213328_19805.addr, metadata !4264, metadata !2783), !dbg !4252
	call void @llvm.dbg.declare (metadata i32** %__p.addr, metadata !4265, metadata !2783), !dbg !4252
	store i32* %__p.arg, i32** %__p.addr, align 8, !tbaa !2791
	call void @llvm.dbg.declare (metadata i32** %__p.addr, metadata !4266, metadata !2783), !dbg !4252
	call void @llvm.dbg.declare (metadata i64* %__n.addr, metadata !4267, metadata !2783), !dbg !4252
	store i64 %__n.arg, i64* %__n.addr, align 8, !tbaa !2790
	call void @llvm.dbg.declare (metadata i64* %__n.addr, metadata !4268, metadata !2783), !dbg !4252
	%0 = load i32*, i32** %__p.addr, align 8, !tbaa !2791, !dbg !4269
	%1 = bitcast i32*  %0 to i8*, !dbg !4269
	%2 = icmp eq i8*  %1,  null, !dbg !4269
	br i1  %2, label %L.B0035, label %L.B1875, !dbg !4269
L.B1875:
	%3 = bitcast i32*  %0 to i8*, !dbg !4270
	%4 = bitcast i32** %..inline.addr to i8**, !dbg !4270
	store i8*  %3, i8**  %4, align 8, !tbaa !2791, !dbg !4270
	%5 = load i32*, i32** %..inline.addr, align 8, !tbaa !2791, !dbg !4270
	%6 = bitcast i32*  %5 to i8*, !dbg !4270
	call void  @_ZdlPv (i8*  %6) nounwind, !dbg !4270
	br label %L.B0035
L.B0035:
	ret void, !dbg !4271
}
define linkonce_odr void @_ZNSt12_Vector_baseIjSaIjEE12_Vector_implD1Ev(%struct._ZNSt12_Vector_baseIjSaIjEE12_Vector_implE* %_T38213328_19806.arg) #0 inlinehint !dbg !4276 {
L.entry:
	%_T38213328_19806.addr = alloca %struct._ZNSt12_Vector_baseIjSaIjEE12_Vector_implE*, align 8

	call void @llvm.dbg.declare (metadata %struct._ZNSt12_Vector_baseIjSaIjEE12_Vector_implE** %_T38213328_19806.addr, metadata !4288, metadata !2783), !dbg !4277
	store %struct._ZNSt12_Vector_baseIjSaIjEE12_Vector_implE* %_T38213328_19806.arg, %struct._ZNSt12_Vector_baseIjSaIjEE12_Vector_implE** %_T38213328_19806.addr, align 8, !tbaa !2791
	call void @llvm.dbg.declare (metadata %struct._ZNSt12_Vector_baseIjSaIjEE12_Vector_implE** %_T38213328_19806.addr, metadata !4289, metadata !2783), !dbg !4277
	ret void, !dbg !4290
}
define linkonce_odr void @_ZNSt12_Vector_baseIjSaIjEE12_Vector_implD2Ev(%struct._ZNSt12_Vector_baseIjSaIjEE12_Vector_implE* %_T38213328_19807.arg) #0 inlinehint !dbg !4292 {
L.entry:
	%_T38213328_19807.addr = alloca %struct._ZNSt12_Vector_baseIjSaIjEE12_Vector_implE*, align 8

	store %struct._ZNSt12_Vector_baseIjSaIjEE12_Vector_implE* %_T38213328_19807.arg, %struct._ZNSt12_Vector_baseIjSaIjEE12_Vector_implE** %_T38213328_19807.addr, align 8, !tbaa !2791
	ret void, !dbg !4308
}

%struct._ZSt17integral_constantIbLb1EE = type <{ [1 x i8]}> 

define linkonce_odr i32* @_ZNSt6vectorIjSaIjEE14_S_do_relocateEPjS2_S2_RS0_St17integral_constantIbLb1EE(i32* %__first.arg, i32* %__last.arg, i32* %__result.arg, %struct._ZSaIjE* %__alloc.arg, i8 %_T38214512_19814.coerce) #0 inlinehint !dbg !4316 {
L.entry:
	%__first.addr = alloca i32*, align 8
	%__last.addr = alloca i32*, align 8
	%__result.addr = alloca i32*, align 8
	%__alloc.addr = alloca %struct._ZSaIjE*, align 8
	%_T38214512_19814.addr = alloca %struct._ZSt17integral_constantIbLb1EE, align 1
	%..inline.addr = alloca i32*, align 8
	%..inline.addr.1 = alloca i32*, align 8
	%..inline.addr.2 = alloca i64, align 8

	call void @llvm.dbg.declare (metadata i32** %__first.addr, metadata !4340, metadata !2783), !dbg !4317
	store i32* %__first.arg, i32** %__first.addr, align 8, !tbaa !2791
	call void @llvm.dbg.declare (metadata i32** %__first.addr, metadata !4341, metadata !2783), !dbg !4317
	call void @llvm.dbg.declare (metadata i32** %__last.addr, metadata !4342, metadata !2783), !dbg !4317
	store i32* %__last.arg, i32** %__last.addr, align 8, !tbaa !2791
	call void @llvm.dbg.declare (metadata i32** %__last.addr, metadata !4343, metadata !2783), !dbg !4317
	call void @llvm.dbg.declare (metadata i32** %__result.addr, metadata !4344, metadata !2783), !dbg !4317
	store i32* %__result.arg, i32** %__result.addr, align 8, !tbaa !2791
	call void @llvm.dbg.declare (metadata i32** %__result.addr, metadata !4345, metadata !2783), !dbg !4317
	call void @llvm.dbg.declare (metadata %struct._ZSaIjE** %__alloc.addr, metadata !4346, metadata !2783), !dbg !4317
	store %struct._ZSaIjE* %__alloc.arg, %struct._ZSaIjE** %__alloc.addr, align 8, !tbaa !2791
	call void @llvm.dbg.declare (metadata %struct._ZSaIjE** %__alloc.addr, metadata !4347, metadata !2783), !dbg !4317
	call void @llvm.dbg.declare (metadata %struct._ZSt17integral_constantIbLb1EE* %_T38214512_19814.addr, metadata !4348, metadata !2783), !dbg !4317
	%0 = bitcast %struct._ZSt17integral_constantIbLb1EE* %_T38214512_19814.addr to i8*
	store i8 %_T38214512_19814.coerce, i8*  %0, align 1, !tbaa !2790
	call void @llvm.dbg.declare (metadata %struct._ZSt17integral_constantIbLb1EE* %_T38214512_19814.addr, metadata !4349, metadata !2783), !dbg !4317
	%1 = load i32*, i32** %__first.addr, align 8, !tbaa !2791, !dbg !4350
	%2 = bitcast i32*  %1 to i8*, !dbg !4350
	%3 = bitcast i32** %..inline.addr to i8**, !dbg !4350
	store i8*  %2, i8**  %3, align 8, !tbaa !2791, !dbg !4350
	%4 = load i32*, i32** %__result.addr, align 8, !tbaa !2791, !dbg !4350
	%5 = bitcast i32*  %4 to i8*, !dbg !4350
	%6 = bitcast i32** %..inline.addr.1 to i8**, !dbg !4350
	store i8*  %5, i8**  %6, align 8, !tbaa !2791, !dbg !4350
	%7 = load i32*, i32** %__last.addr, align 8, !tbaa !2791, !dbg !4350
	%8 = bitcast i32*  %7 to i8*, !dbg !4350
	%9 = ptrtoint i8*  %2 to i64, !dbg !4350
	%10 = sub i64 0,  %9, !dbg !4350
	%11 = getelementptr i8, i8*  %8, i64  %10, !dbg !4350
	%12 = ptrtoint i8*  %11 to i64, !dbg !4350
	%13 = sext i32 2 to i64, !dbg !4350
	%14 = ashr i64  %12,  %13, !dbg !4350
	store i64  %14, i64* %..inline.addr.2, align 8, !tbaa !3790, !dbg !4350
	%15 = icmp sle i64  %14, 0, !dbg !4350
	br i1  %15, label %L..inline.43872, label %L.B1882, !dbg !4350
L.B1882:
	%16 = load i32*, i32** %..inline.addr.1, align 8, !tbaa !2791, !dbg !4350
	%17 = bitcast i32*  %16 to i8*, !dbg !4350
	%18 = load i32*, i32** %..inline.addr, align 8, !tbaa !2791, !dbg !4350
	%19 = bitcast i32*  %18 to i8*, !dbg !4350
	%20 = mul i64  %14, 4, !dbg !4350
	%21 = call i8*  @memmove (i8*  %17, i8*  %19, i64  %20) nounwind, !dbg !4350
	br label %L..inline.43872
L..inline.43872:
	%22 = load i32*, i32** %..inline.addr.1, align 8, !tbaa !2791, !dbg !4351
	%23 = bitcast i32*  %22 to i8*, !dbg !4351
	%24 = load i64, i64* %..inline.addr.2, align 8, !tbaa !3790, !dbg !4351
	%25 = mul i64  %24, 4, !dbg !4351
	%26 = getelementptr i8, i8*  %23, i64  %25, !dbg !4351
	%27 = bitcast i8*  %26 to i32*, !dbg !4351
	ret i32*  %27, !dbg !4351
}
define linkonce_odr i32* @_ZNSt6vectorIjSaIjEE11_S_relocateEPjS2_S2_RS0_(i32* %__first.arg, i32* %__last.arg, i32* %__result.arg, %struct._ZSaIjE* %__alloc.arg) #0 inlinehint !dbg !4356 {
L.entry:
	%__first.addr = alloca i32*, align 8
	%__last.addr = alloca i32*, align 8
	%__result.addr = alloca i32*, align 8
	%__alloc.addr = alloca %struct._ZSaIjE*, align 8
	%.._T38215288_19819.__FILL_CHARARRAY.addr = alloca [1 x i8], align 1
	%..inline.addr = alloca i32*, align 8
	%..inline.addr.1 = alloca i32*, align 8
	%..inline.addr.2 = alloca i32*, align 8
	%....inline.__FILL_CHARARRAY.addr = alloca [1 x i8], align 1
	%..inline.addr.3 = alloca i32*, align 8
	%..inline.addr.4 = alloca i32*, align 8
	%..inline.addr.5 = alloca i64, align 8

	call void @llvm.dbg.declare (metadata i32** %__first.addr, metadata !4384, metadata !2783), !dbg !4357
	store i32* %__first.arg, i32** %__first.addr, align 8, !tbaa !2791
	call void @llvm.dbg.declare (metadata i32** %__first.addr, metadata !4385, metadata !2783), !dbg !4357
	call void @llvm.dbg.declare (metadata i32** %__last.addr, metadata !4386, metadata !2783), !dbg !4357
	store i32* %__last.arg, i32** %__last.addr, align 8, !tbaa !2791
	call void @llvm.dbg.declare (metadata i32** %__last.addr, metadata !4387, metadata !2783), !dbg !4357
	call void @llvm.dbg.declare (metadata i32** %__result.addr, metadata !4388, metadata !2783), !dbg !4357
	store i32* %__result.arg, i32** %__result.addr, align 8, !tbaa !2791
	call void @llvm.dbg.declare (metadata i32** %__result.addr, metadata !4389, metadata !2783), !dbg !4357
	call void @llvm.dbg.declare (metadata %struct._ZSaIjE** %__alloc.addr, metadata !4390, metadata !2783), !dbg !4357
	store %struct._ZSaIjE* %__alloc.arg, %struct._ZSaIjE** %__alloc.addr, align 8, !tbaa !2791
	call void @llvm.dbg.declare (metadata %struct._ZSaIjE** %__alloc.addr, metadata !4391, metadata !2783), !dbg !4357
	call void @llvm.dbg.declare (metadata [1 x i8]* %.._T38215288_19819.__FILL_CHARARRAY.addr, metadata !4393, metadata !2783), !dbg !4359
	%0 = bitcast [1 x i8]* %.._T38215288_19819.__FILL_CHARARRAY.addr to i8*, !dbg !4392
	store i8 0, i8*  %0, align 1, !tbaa !2790, !dbg !4392
	%1 = load i32*, i32** %__first.addr, align 8, !tbaa !2791, !dbg !4392
	%2 = bitcast i32*  %1 to i8*, !dbg !4392
	%3 = bitcast i32** %..inline.addr to i8**, !dbg !4392
	store i8*  %2, i8**  %3, align 8, !tbaa !2791, !dbg !4392
	%4 = load i32*, i32** %__last.addr, align 8, !tbaa !2791, !dbg !4392
	%5 = bitcast i32*  %4 to i8*, !dbg !4392
	%6 = bitcast i32** %..inline.addr.1 to i8**, !dbg !4392
	store i8*  %5, i8**  %6, align 8, !tbaa !2791, !dbg !4392
	%7 = load i32*, i32** %__result.addr, align 8, !tbaa !2791, !dbg !4392
	%8 = bitcast i32*  %7 to i8*, !dbg !4392
	%9 = bitcast i32** %..inline.addr.2 to i8**, !dbg !4392
	store i8*  %8, i8**  %9, align 8, !tbaa !2791, !dbg !4392
	%10 = zext i8 0 to i32, !dbg !4394
	%11 = trunc i32  %10 to i8, !dbg !4394
	call void @llvm.dbg.declare (metadata [1 x i8]* %....inline.__FILL_CHARARRAY.addr, metadata !4395, metadata !2783), !dbg !4359
	%12 = bitcast [1 x i8]* %....inline.__FILL_CHARARRAY.addr to i8*, !dbg !4394
	store i8  %11, i8*  %12, align 1, !tbaa !2790, !dbg !4394
	%13 = load i32*, i32** %..inline.addr, align 8, !tbaa !2791, !dbg !4396
	%14 = bitcast i32*  %13 to i8*, !dbg !4396
	%15 = bitcast i32** %..inline.addr.3 to i8**, !dbg !4396
	store i8*  %14, i8**  %15, align 8, !tbaa !2791, !dbg !4396
	%16 = load i32*, i32** %..inline.addr.2, align 8, !tbaa !2791, !dbg !4396
	%17 = bitcast i32*  %16 to i8*, !dbg !4396
	%18 = bitcast i32** %..inline.addr.4 to i8**, !dbg !4396
	store i8*  %17, i8**  %18, align 8, !tbaa !2791, !dbg !4396
	%19 = load i32*, i32** %..inline.addr.1, align 8, !tbaa !2791, !dbg !4396
	%20 = bitcast i32*  %19 to i8*, !dbg !4396
	%21 = ptrtoint i8*  %14 to i64, !dbg !4396
	%22 = sub i64 0,  %21, !dbg !4396
	%23 = getelementptr i8, i8*  %20, i64  %22, !dbg !4396
	%24 = ptrtoint i8*  %23 to i64, !dbg !4396
	%25 = sext i32 2 to i64, !dbg !4396
	%26 = ashr i64  %24,  %25, !dbg !4396
	store i64  %26, i64* %..inline.addr.5, align 8, !tbaa !3790, !dbg !4396
	%27 = icmp sle i64  %26, 0, !dbg !4396
	br i1  %27, label %L..inline.43948, label %L.B1885, !dbg !4396
L.B1885:
	%28 = load i32*, i32** %..inline.addr.4, align 8, !tbaa !2791, !dbg !4396
	%29 = bitcast i32*  %28 to i8*, !dbg !4396
	%30 = load i32*, i32** %..inline.addr.3, align 8, !tbaa !2791, !dbg !4396
	%31 = bitcast i32*  %30 to i8*, !dbg !4396
	%32 = mul i64  %26, 4, !dbg !4396
	%33 = call i8*  @memmove (i8*  %29, i8*  %31, i64  %32) nounwind, !dbg !4396
	br label %L..inline.43948
L..inline.43948:
	%34 = load i32*, i32** %..inline.addr.4, align 8, !tbaa !2791, !dbg !4392
	%35 = bitcast i32*  %34 to i8*, !dbg !4392
	%36 = load i64, i64* %..inline.addr.5, align 8, !tbaa !3790, !dbg !4392
	%37 = mul i64  %36, 4, !dbg !4392
	%38 = getelementptr i8, i8*  %35, i64  %37, !dbg !4392
	%39 = bitcast i8*  %38 to i32*, !dbg !4392
	ret i32*  %39, !dbg !4392
}
define linkonce_odr void @_ZNSt6vectorIjSaIjEED1Ev(%struct._ZSt6vectorIjSaIjEE* %_T38213328_19820.arg) #0 inlinehint !dbg !4401 {
L.entry:
	%_T38213328_19820.addr = alloca %struct._ZSt6vectorIjSaIjEE*, align 8
	%..inline.addr = alloca %struct._ZSt12_Vector_baseIjSaIjEE*, align 8
	%..inline.addr.1 = alloca i32*, align 8

	call void @llvm.dbg.declare (metadata %struct._ZSt6vectorIjSaIjEE** %_T38213328_19820.addr, metadata !4453, metadata !2783), !dbg !4402
	store %struct._ZSt6vectorIjSaIjEE* %_T38213328_19820.arg, %struct._ZSt6vectorIjSaIjEE** %_T38213328_19820.addr, align 8, !tbaa !2791
	call void @llvm.dbg.declare (metadata %struct._ZSt6vectorIjSaIjEE** %_T38213328_19820.addr, metadata !4454, metadata !2783), !dbg !4402
	%0 = load %struct._ZSt6vectorIjSaIjEE*, %struct._ZSt6vectorIjSaIjEE** %_T38213328_19820.addr, align 8, !tbaa !2791, !dbg !4455
	%1 = bitcast %struct._ZSt6vectorIjSaIjEE*  %0 to i8*, !dbg !4455
	%2 = bitcast %struct._ZSt12_Vector_baseIjSaIjEE** %..inline.addr to i8**, !dbg !4455
	store i8*  %1, i8**  %2, align 8, !tbaa !2791, !dbg !4455
	%3 = load %struct._ZSt12_Vector_baseIjSaIjEE*, %struct._ZSt12_Vector_baseIjSaIjEE** %..inline.addr, align 8, !tbaa !2791, !dbg !4456
	%4 = bitcast %struct._ZSt12_Vector_baseIjSaIjEE*  %3 to i8**, !dbg !4456
	%5 = load i8*, i8**  %4, align 8, !tbaa !2791, !dbg !4456
	%6 = icmp eq i8*  %5,  null, !dbg !4456
	br i1  %6, label %L..inline.44035, label %L.B1892, !dbg !4456
L.B1892:
	%7 = bitcast %struct._ZSt12_Vector_baseIjSaIjEE*  %3 to i8**, !dbg !4456
	%8 = load i8*, i8**  %7, align 8, !tbaa !2791, !dbg !4456
	%9 = bitcast i32** %..inline.addr.1 to i8**, !dbg !4456
	store i8*  %8, i8**  %9, align 8, !tbaa !2791, !dbg !4456
	%10 = load i32*, i32** %..inline.addr.1, align 8, !tbaa !2791, !dbg !4456
	%11 = bitcast i32*  %10 to i8*, !dbg !4456
	call void  @_ZdlPv (i8*  %11) nounwind, !dbg !4456
	br label %L..inline.44035
L..inline.44035:
	ret void, !dbg !4455
}
define linkonce_odr void @_ZNSt6vectorIjSaIjEED2Ev(%struct._ZSt6vectorIjSaIjEE* %_T38213328_19821.arg) #0 inlinehint !dbg !4458 {
L.entry:
	%_T38213328_19821.addr = alloca %struct._ZSt6vectorIjSaIjEE*, align 8
	%..inline.addr = alloca %struct._ZSt12_Vector_baseIjSaIjEE*, align 8
	%..inline.addr.1 = alloca i32*, align 8

	store %struct._ZSt6vectorIjSaIjEE* %_T38213328_19821.arg, %struct._ZSt6vectorIjSaIjEE** %_T38213328_19821.addr, align 8, !tbaa !2791
	%0 = load %struct._ZSt6vectorIjSaIjEE*, %struct._ZSt6vectorIjSaIjEE** %_T38213328_19821.addr, align 8, !tbaa !2791, !dbg !4514
	%1 = bitcast %struct._ZSt6vectorIjSaIjEE*  %0 to i8*, !dbg !4514
	%2 = bitcast %struct._ZSt12_Vector_baseIjSaIjEE** %..inline.addr to i8**, !dbg !4514
	store i8*  %1, i8**  %2, align 8, !tbaa !2791, !dbg !4514
	%3 = load %struct._ZSt12_Vector_baseIjSaIjEE*, %struct._ZSt12_Vector_baseIjSaIjEE** %..inline.addr, align 8, !tbaa !2791, !dbg !4514
	%4 = bitcast %struct._ZSt12_Vector_baseIjSaIjEE*  %3 to i8**, !dbg !4514
	%5 = load i8*, i8**  %4, align 8, !tbaa !2791, !dbg !4514
	%6 = icmp eq i8*  %5,  null, !dbg !4514
	br i1  %6, label %L..inline.44139, label %L.B1895, !dbg !4514
L.B1895:
	%7 = bitcast %struct._ZSt12_Vector_baseIjSaIjEE*  %3 to i8**, !dbg !4514
	%8 = load i8*, i8**  %7, align 8, !tbaa !2791, !dbg !4514
	%9 = bitcast i32** %..inline.addr.1 to i8**, !dbg !4514
	store i8*  %8, i8**  %9, align 8, !tbaa !2791, !dbg !4514
	%10 = load i32*, i32** %..inline.addr.1, align 8, !tbaa !2791, !dbg !4514
	%11 = bitcast i32*  %10 to i8*, !dbg !4514
	call void  @_ZdlPv (i8*  %11) nounwind, !dbg !4514
	br label %L..inline.44139
L..inline.44139:
	ret void, !dbg !4514
}
define linkonce_odr i64 @_ZNSt6vectorIjSaIjEE5beginEv(%struct._ZSt6vectorIjSaIjEE* %_T38213328_19823.arg) #0 inlinehint !dbg !4518 {
L.entry:
	%.X19823.addr = alloca %struct._ZN9__gnu_cxx17__normal_iteratorIPjSt6vectorIjSaIjEEEE, align 8
	%_T38213328_19823.addr = alloca %struct._ZSt6vectorIjSaIjEE*, align 8

	call void @llvm.dbg.declare (metadata %struct._ZSt6vectorIjSaIjEE** %_T38213328_19823.addr, metadata !4526, metadata !2783), !dbg !4519
	store %struct._ZSt6vectorIjSaIjEE* %_T38213328_19823.arg, %struct._ZSt6vectorIjSaIjEE** %_T38213328_19823.addr, align 8, !tbaa !2791
	call void @llvm.dbg.declare (metadata %struct._ZSt6vectorIjSaIjEE** %_T38213328_19823.addr, metadata !4527, metadata !2783), !dbg !4519
	%0 = load %struct._ZSt6vectorIjSaIjEE*, %struct._ZSt6vectorIjSaIjEE** %_T38213328_19823.addr, align 8, !tbaa !2791, !dbg !4528
	%1 = bitcast %struct._ZSt6vectorIjSaIjEE*  %0 to i8**, !dbg !4528
	%2 = load i8*, i8**  %1, align 8, !tbaa !2791, !dbg !4528
	%3 = bitcast %struct._ZN9__gnu_cxx17__normal_iteratorIPjSt6vectorIjSaIjEEEE* %.X19823.addr to i8**, !dbg !4528
	store i8*  %2, i8**  %3, align 8, !tbaa !2791, !dbg !4528
	%4 = bitcast %struct._ZN9__gnu_cxx17__normal_iteratorIPjSt6vectorIjSaIjEEEE* %.X19823.addr to i64*, !dbg !4528
	%5 = load i64, i64*  %4, align 8, !tbaa !2790, !dbg !4528
	ret i64  %5, !dbg !4528
}
define linkonce_odr i64 @_ZNSt6vectorIjSaIjEE3endEv(%struct._ZSt6vectorIjSaIjEE* %_T38213328_19825.arg) #0 inlinehint !dbg !4530 {
L.entry:
	%.X19825.addr = alloca %struct._ZN9__gnu_cxx17__normal_iteratorIPjSt6vectorIjSaIjEEEE, align 8
	%_T38213328_19825.addr = alloca %struct._ZSt6vectorIjSaIjEE*, align 8

	call void @llvm.dbg.declare (metadata %struct._ZSt6vectorIjSaIjEE** %_T38213328_19825.addr, metadata !4538, metadata !2783), !dbg !4531
	store %struct._ZSt6vectorIjSaIjEE* %_T38213328_19825.arg, %struct._ZSt6vectorIjSaIjEE** %_T38213328_19825.addr, align 8, !tbaa !2791
	call void @llvm.dbg.declare (metadata %struct._ZSt6vectorIjSaIjEE** %_T38213328_19825.addr, metadata !4539, metadata !2783), !dbg !4531
	%0 = load %struct._ZSt6vectorIjSaIjEE*, %struct._ZSt6vectorIjSaIjEE** %_T38213328_19825.addr, align 8, !tbaa !2791, !dbg !4540
	%1 = bitcast %struct._ZSt6vectorIjSaIjEE*  %0 to i8*, !dbg !4540
	%2 = getelementptr i8, i8*  %1, i64 8, !dbg !4540
	%3 = bitcast i8*  %2 to i8**, !dbg !4540
	%4 = load i8*, i8**  %3, align 8, !tbaa !2791, !dbg !4540
	%5 = bitcast %struct._ZN9__gnu_cxx17__normal_iteratorIPjSt6vectorIjSaIjEEEE* %.X19825.addr to i8**, !dbg !4540
	store i8*  %4, i8**  %5, align 8, !tbaa !2791, !dbg !4540
	%6 = bitcast %struct._ZN9__gnu_cxx17__normal_iteratorIPjSt6vectorIjSaIjEEEE* %.X19825.addr to i64*, !dbg !4540
	%7 = load i64, i64*  %6, align 8, !tbaa !2790, !dbg !4540
	ret i64  %7, !dbg !4540
}
define linkonce_odr i64 @_ZNKSt6vectorIjSaIjEE4sizeEv(%struct._ZSt6vectorIjSaIjEE* %_T38213328_19827.arg) #0 inlinehint !dbg !4544 {
L.entry:
	%_T38213328_19827.addr = alloca %struct._ZSt6vectorIjSaIjEE*, align 8

	call void @llvm.dbg.declare (metadata %struct._ZSt6vectorIjSaIjEE** %_T38213328_19827.addr, metadata !4548, metadata !2783), !dbg !4545
	store %struct._ZSt6vectorIjSaIjEE* %_T38213328_19827.arg, %struct._ZSt6vectorIjSaIjEE** %_T38213328_19827.addr, align 8, !tbaa !2791
	call void @llvm.dbg.declare (metadata %struct._ZSt6vectorIjSaIjEE** %_T38213328_19827.addr, metadata !4549, metadata !2783), !dbg !4545
	%0 = load %struct._ZSt6vectorIjSaIjEE*, %struct._ZSt6vectorIjSaIjEE** %_T38213328_19827.addr, align 8, !tbaa !2791, !dbg !4550
	%1 = bitcast %struct._ZSt6vectorIjSaIjEE*  %0 to i8*, !dbg !4550
	%2 = getelementptr i8, i8*  %1, i64 8, !dbg !4550
	%3 = bitcast i8*  %2 to i8**, !dbg !4550
	%4 = load i8*, i8**  %3, align 8, !tbaa !2791, !dbg !4550
	%5 = bitcast %struct._ZSt6vectorIjSaIjEE*  %0 to i8**, !dbg !4550
	%6 = load i8*, i8**  %5, align 8, !tbaa !2791, !dbg !4550
	%7 = ptrtoint i8*  %6 to i64, !dbg !4550
	%8 = sub i64 0,  %7, !dbg !4550
	%9 = getelementptr i8, i8*  %4, i64  %8, !dbg !4550
	%10 = ptrtoint i8*  %9 to i64, !dbg !4550
	%11 = sext i32 2 to i64, !dbg !4550
	%12 = ashr i64  %10,  %11, !dbg !4550
	ret i64  %12, !dbg !4550
}
define linkonce_odr i64 @_ZNKSt6vectorIjSaIjEE8max_sizeEv(%struct._ZSt6vectorIjSaIjEE* %_T38213328_19829.arg) #0 inlinehint !dbg !4552 {
L.entry:
	%_T38213328_19829.addr = alloca %struct._ZSt6vectorIjSaIjEE*, align 8
	%..inline.addr = alloca %struct._ZSaIjE*, align 8
	%_T38214216_19829.addr = alloca i64, align 8

	call void @llvm.dbg.declare (metadata %struct._ZSt6vectorIjSaIjEE** %_T38213328_19829.addr, metadata !4560, metadata !2783), !dbg !4553
	store %struct._ZSt6vectorIjSaIjEE* %_T38213328_19829.arg, %struct._ZSt6vectorIjSaIjEE** %_T38213328_19829.addr, align 8, !tbaa !2791
	call void @llvm.dbg.declare (metadata %struct._ZSt6vectorIjSaIjEE** %_T38213328_19829.addr, metadata !4561, metadata !2783), !dbg !4553
	%0 = load %struct._ZSt6vectorIjSaIjEE*, %struct._ZSt6vectorIjSaIjEE** %_T38213328_19829.addr, align 8, !tbaa !2791, !dbg !4562
	%1 = bitcast %struct._ZSt6vectorIjSaIjEE*  %0 to i8*, !dbg !4562
	%2 = bitcast %struct._ZSaIjE** %..inline.addr to i8**, !dbg !4562
	store i8*  %1, i8**  %2, align 8, !tbaa !2791, !dbg !4562
	%3 = load %struct._ZSaIjE*, %struct._ZSaIjE** %..inline.addr, align 8, !tbaa !2791, !dbg !4563
	%4 = call i64  @_ZNSt6vectorIjSaIjEE11_S_max_sizeERKS0_ (%struct._ZSaIjE*  %3) nounwind, !dbg !4563
	ret i64  %4, !dbg !4562
}
define linkonce_odr i32* @_ZNSt6vectorIjSaIjEEixEm(%struct._ZSt6vectorIjSaIjEE* %_T38213328_19832.arg, i64 %__n.arg) #0 inlinehint !dbg !4567 {
L.entry:
	%_T38213328_19832.addr = alloca %struct._ZSt6vectorIjSaIjEE*, align 8
	%__n.addr = alloca i64, align 8

	call void @llvm.dbg.declare (metadata %struct._ZSt6vectorIjSaIjEE** %_T38213328_19832.addr, metadata !4571, metadata !2783), !dbg !4568
	store %struct._ZSt6vectorIjSaIjEE* %_T38213328_19832.arg, %struct._ZSt6vectorIjSaIjEE** %_T38213328_19832.addr, align 8, !tbaa !2791
	call void @llvm.dbg.declare (metadata %struct._ZSt6vectorIjSaIjEE** %_T38213328_19832.addr, metadata !4572, metadata !2783), !dbg !4568
	call void @llvm.dbg.declare (metadata i64* %__n.addr, metadata !4573, metadata !2783), !dbg !4568
	store i64 %__n.arg, i64* %__n.addr, align 8, !tbaa !2790
	call void @llvm.dbg.declare (metadata i64* %__n.addr, metadata !4574, metadata !2783), !dbg !4568
	%0 = load %struct._ZSt6vectorIjSaIjEE*, %struct._ZSt6vectorIjSaIjEE** %_T38213328_19832.addr, align 8, !tbaa !2791, !dbg !4575
	%1 = bitcast %struct._ZSt6vectorIjSaIjEE*  %0 to i8**, !dbg !4575
	%2 = load i8*, i8**  %1, align 8, !tbaa !2791, !dbg !4575
	%3 = load i64, i64* %__n.addr, align 8, !tbaa !3790, !dbg !4575
	%4 = mul i64  %3, 4, !dbg !4575
	%5 = getelementptr i8, i8*  %2, i64  %4, !dbg !4575
	%6 = bitcast i8*  %5 to i32*, !dbg !4575
	ret i32*  %6, !dbg !4575
}
define linkonce_odr i32* @_ZNKSt6vectorIjSaIjEEixEm(%struct._ZSt6vectorIjSaIjEE* %_T38213328_19835.arg, i64 %__n.arg) #0 inlinehint !dbg !4578 {
L.entry:
	%_T38213328_19835.addr = alloca %struct._ZSt6vectorIjSaIjEE*, align 8
	%__n.addr = alloca i64, align 8

	call void @llvm.dbg.declare (metadata %struct._ZSt6vectorIjSaIjEE** %_T38213328_19835.addr, metadata !4582, metadata !2783), !dbg !4579
	store %struct._ZSt6vectorIjSaIjEE* %_T38213328_19835.arg, %struct._ZSt6vectorIjSaIjEE** %_T38213328_19835.addr, align 8, !tbaa !2791
	call void @llvm.dbg.declare (metadata %struct._ZSt6vectorIjSaIjEE** %_T38213328_19835.addr, metadata !4583, metadata !2783), !dbg !4579
	call void @llvm.dbg.declare (metadata i64* %__n.addr, metadata !4584, metadata !2783), !dbg !4579
	store i64 %__n.arg, i64* %__n.addr, align 8, !tbaa !2790
	call void @llvm.dbg.declare (metadata i64* %__n.addr, metadata !4585, metadata !2783), !dbg !4579
	%0 = load %struct._ZSt6vectorIjSaIjEE*, %struct._ZSt6vectorIjSaIjEE** %_T38213328_19835.addr, align 8, !tbaa !2791, !dbg !4586
	%1 = bitcast %struct._ZSt6vectorIjSaIjEE*  %0 to i8**, !dbg !4586
	%2 = load i8*, i8**  %1, align 8, !tbaa !2791, !dbg !4586
	%3 = load i64, i64* %__n.addr, align 8, !tbaa !3790, !dbg !4586
	%4 = mul i64  %3, 4, !dbg !4586
	%5 = getelementptr i8, i8*  %2, i64  %4, !dbg !4586
	%6 = bitcast i8*  %5 to i32*, !dbg !4586
	ret i32*  %6, !dbg !4586
}
define linkonce_odr void @_ZNSt6vectorIjSaIjEE9push_backERKj(%struct._ZSt6vectorIjSaIjEE* %_T38213328_19836.arg, i32* %__x.arg) #0 inlinehint !dbg !4591 {
L.entry:
	%_T38213328_19836.addr = alloca %struct._ZSt6vectorIjSaIjEE*, align 8
	%__x.addr = alloca i32*, align 8
	%..inline.addr = alloca %struct._ZN9__gnu_cxx17__normal_iteratorIPjSt6vectorIjSaIjEEEE, align 8

	call void @llvm.dbg.declare (metadata %struct._ZSt6vectorIjSaIjEE** %_T38213328_19836.addr, metadata !4623, metadata !2783), !dbg !4592
	store %struct._ZSt6vectorIjSaIjEE* %_T38213328_19836.arg, %struct._ZSt6vectorIjSaIjEE** %_T38213328_19836.addr, align 8, !tbaa !2791
	call void @llvm.dbg.declare (metadata %struct._ZSt6vectorIjSaIjEE** %_T38213328_19836.addr, metadata !4624, metadata !2783), !dbg !4592
	call void @llvm.dbg.declare (metadata i32** %__x.addr, metadata !4625, metadata !2783), !dbg !4592
	store i32* %__x.arg, i32** %__x.addr, align 8, !tbaa !2791
	call void @llvm.dbg.declare (metadata i32** %__x.addr, metadata !4626, metadata !2783), !dbg !4592
	%0 = load %struct._ZSt6vectorIjSaIjEE*, %struct._ZSt6vectorIjSaIjEE** %_T38213328_19836.addr, align 8, !tbaa !2791, !dbg !4627
	%1 = bitcast %struct._ZSt6vectorIjSaIjEE*  %0 to i8*, !dbg !4627
	%2 = getelementptr i8, i8*  %1, i64 8, !dbg !4627
	%3 = bitcast i8*  %2 to i8**, !dbg !4627
	%4 = load i8*, i8**  %3, align 8, !tbaa !2791, !dbg !4627
	%5 = getelementptr i8, i8*  %1, i64 16, !dbg !4627
	%6 = bitcast i8*  %5 to i8**, !dbg !4627
	%7 = load i8*, i8**  %6, align 8, !tbaa !2791, !dbg !4627
	%8 = icmp eq i8*  %4,  %7, !dbg !4627
	br i1  %8, label %L.B0036, label %L.B1906, !dbg !4627
L.B1906:
	%9 = bitcast %struct._ZSt6vectorIjSaIjEE*  %0 to i8*, !dbg !4628
	%10 = getelementptr i8, i8*  %9, i64 8, !dbg !4628
	%11 = bitcast i8*  %10 to i8**, !dbg !4628
	%12 = load i8*, i8**  %11, align 8, !tbaa !2791, !dbg !4628
	%13 = icmp eq i8*  %12,  null, !dbg !4628
	br i1  %13, label %L..inline.44287, label %L.B1907, !dbg !4628
L.B1907:
	%14 = load i32*, i32** %__x.addr, align 8, !tbaa !2791, !dbg !4628
	%15 = load i32, i32*  %14, align 4, !tbaa !2790, !dbg !4628
	%16 = bitcast %struct._ZSt6vectorIjSaIjEE*  %0 to i8*, !dbg !4628
	%17 = getelementptr i8, i8*  %16, i64 8, !dbg !4628
	%18 = bitcast i8*  %17 to i32**, !dbg !4628
	%19 = load i32*, i32**  %18, align 8, !tbaa !2791, !dbg !4628
	store i32  %15, i32*  %19, align 4, !tbaa !2790, !dbg !4628
	br label %L..inline.44296, !dbg !4628
L..inline.44287:
	br label %L..inline.44296
L..inline.44296:
	%20 = load %struct._ZSt6vectorIjSaIjEE*, %struct._ZSt6vectorIjSaIjEE** %_T38213328_19836.addr, align 8, !tbaa !2791, !dbg !4629
	%21 = bitcast %struct._ZSt6vectorIjSaIjEE*  %20 to i8*, !dbg !4629
	%22 = getelementptr i8, i8*  %21, i64 8, !dbg !4629
	%23 = bitcast i8*  %22 to i8**, !dbg !4629
	%24 = load i8*, i8**  %23, align 8, !tbaa !2791, !dbg !4629
	%25 = getelementptr i8, i8*  %24, i64 4, !dbg !4629
	store i8*  %25, i8**  %23, align 8, !tbaa !2791, !dbg !4629
	br label %L.B0037, !dbg !4630
L.B0036:
	%26 = load %struct._ZSt6vectorIjSaIjEE*, %struct._ZSt6vectorIjSaIjEE** %_T38213328_19836.addr, align 8, !tbaa !2791, !dbg !4631
	%27 = bitcast %struct._ZSt6vectorIjSaIjEE*  %26 to i8*, !dbg !4631
	%28 = getelementptr i8, i8*  %27, i64 8, !dbg !4631
	%29 = bitcast i8*  %28 to i8**, !dbg !4631
	%30 = load i8*, i8**  %29, align 8, !tbaa !2791, !dbg !4631
	%31 = bitcast %struct._ZN9__gnu_cxx17__normal_iteratorIPjSt6vectorIjSaIjEEEE* %..inline.addr to i8**, !dbg !4631
	store i8*  %30, i8**  %31, align 8, !tbaa !2791, !dbg !4631
	%32 = bitcast %struct._ZN9__gnu_cxx17__normal_iteratorIPjSt6vectorIjSaIjEEEE* %..inline.addr to i64*, !dbg !4631
	%33 = load i64, i64*  %32, align 8, !tbaa !2790, !dbg !4631
	%34 = load i32*, i32** %__x.addr, align 8, !tbaa !2791, !dbg !4631
	call void  @_ZNSt6vectorIjSaIjEE17_M_realloc_insertIJRKjEEEvN9__gnu_cxx17__normal_iteratorIPjS1_EEDpOT_ (%struct._ZSt6vectorIjSaIjEE*  %26, i64  %33, i32*  %34), !dbg !4631
	br label %L.B0037
L.B0037:
	ret void, !dbg !4632
}
define linkonce_odr void @_ZNSt6vectorIjSaIjEE9push_backEOj(%struct._ZSt6vectorIjSaIjEE* %_T38213328_19838.arg, i32* %__x.arg) #0 inlinehint !dbg !4634 {
L.entry:
	%_T38213328_19838.addr = alloca %struct._ZSt6vectorIjSaIjEE*, align 8
	%__x.addr = alloca i32*, align 8
	%..inline.addr = alloca %struct._ZSt6vectorIjSaIjEE*, align 8
	%..inline.addr.1 = alloca i32*, align 8
	%..inline.addr.2 = alloca %struct._ZN9__gnu_cxx17__normal_iteratorIPjSt6vectorIjSaIjEEEE, align 8
	%..inline.addr.3 = alloca i32*, align 8

	call void @llvm.dbg.declare (metadata %struct._ZSt6vectorIjSaIjEE** %_T38213328_19838.addr, metadata !4682, metadata !2783), !dbg !4635
	store %struct._ZSt6vectorIjSaIjEE* %_T38213328_19838.arg, %struct._ZSt6vectorIjSaIjEE** %_T38213328_19838.addr, align 8, !tbaa !2791
	call void @llvm.dbg.declare (metadata %struct._ZSt6vectorIjSaIjEE** %_T38213328_19838.addr, metadata !4683, metadata !2783), !dbg !4635
	call void @llvm.dbg.declare (metadata i32** %__x.addr, metadata !4684, metadata !2783), !dbg !4635
	store i32* %__x.arg, i32** %__x.addr, align 8, !tbaa !2791
	call void @llvm.dbg.declare (metadata i32** %__x.addr, metadata !4685, metadata !2783), !dbg !4635
	%0 = load %struct._ZSt6vectorIjSaIjEE*, %struct._ZSt6vectorIjSaIjEE** %_T38213328_19838.addr, align 8, !tbaa !2791, !dbg !4686
	%1 = bitcast %struct._ZSt6vectorIjSaIjEE*  %0 to i8*, !dbg !4686
	%2 = bitcast %struct._ZSt6vectorIjSaIjEE** %..inline.addr to i8**, !dbg !4686
	store i8*  %1, i8**  %2, align 8, !tbaa !2791, !dbg !4686
	%3 = load i32*, i32** %__x.addr, align 8, !tbaa !2791, !dbg !4687
	%4 = bitcast i32*  %3 to i8*, !dbg !4687
	%5 = bitcast i32** %..inline.addr.1 to i8**, !dbg !4687
	store i8*  %4, i8**  %5, align 8, !tbaa !2791, !dbg !4687
	%6 = load %struct._ZSt6vectorIjSaIjEE*, %struct._ZSt6vectorIjSaIjEE** %..inline.addr, align 8, !tbaa !2791, !dbg !4687
	%7 = bitcast %struct._ZSt6vectorIjSaIjEE*  %6 to i8*, !dbg !4687
	%8 = getelementptr i8, i8*  %7, i64 8, !dbg !4687
	%9 = bitcast i8*  %8 to i8**, !dbg !4687
	%10 = load i8*, i8**  %9, align 8, !tbaa !2791, !dbg !4687
	%11 = getelementptr i8, i8*  %7, i64 16, !dbg !4687
	%12 = bitcast i8*  %11 to i8**, !dbg !4687
	%13 = load i8*, i8**  %12, align 8, !tbaa !2791, !dbg !4687
	%14 = icmp eq i8*  %10,  %13, !dbg !4687
	br i1  %14, label %L..inline.44352, label %L.B1912, !dbg !4687
L.B1912:
	%15 = bitcast %struct._ZSt6vectorIjSaIjEE*  %6 to i8*, !dbg !4688
	%16 = getelementptr i8, i8*  %15, i64 8, !dbg !4688
	%17 = bitcast i8*  %16 to i8**, !dbg !4688
	%18 = load i8*, i8**  %17, align 8, !tbaa !2791, !dbg !4688
	%19 = icmp eq i8*  %18,  null, !dbg !4688
	br i1  %19, label %L..inline.44391, label %L.B1913, !dbg !4688
L.B1913:
	%20 = load i32, i32*  %3, align 4, !tbaa !2790, !dbg !4688
	%21 = bitcast %struct._ZSt6vectorIjSaIjEE*  %6 to i8*, !dbg !4688
	%22 = getelementptr i8, i8*  %21, i64 8, !dbg !4688
	%23 = bitcast i8*  %22 to i32**, !dbg !4688
	%24 = load i32*, i32**  %23, align 8, !tbaa !2791, !dbg !4688
	store i32  %20, i32*  %24, align 4, !tbaa !2790, !dbg !4688
	br label %L..inline.44400, !dbg !4688
L..inline.44391:
	br label %L..inline.44400
L..inline.44400:
	%25 = load %struct._ZSt6vectorIjSaIjEE*, %struct._ZSt6vectorIjSaIjEE** %..inline.addr, align 8, !tbaa !2791, !dbg !4688
	%26 = bitcast %struct._ZSt6vectorIjSaIjEE*  %25 to i8*, !dbg !4688
	%27 = getelementptr i8, i8*  %26, i64 8, !dbg !4688
	%28 = bitcast i8*  %27 to i8**, !dbg !4688
	%29 = load i8*, i8**  %28, align 8, !tbaa !2791, !dbg !4688
	%30 = getelementptr i8, i8*  %29, i64 4, !dbg !4688
	store i8*  %30, i8**  %28, align 8, !tbaa !2791, !dbg !4688
	br label %L..inline.44403, !dbg !4689
L..inline.44352:
	%31 = load %struct._ZSt6vectorIjSaIjEE*, %struct._ZSt6vectorIjSaIjEE** %_T38213328_19838.addr, align 8, !tbaa !2791, !dbg !4690
	%32 = bitcast %struct._ZSt6vectorIjSaIjEE*  %31 to i8*, !dbg !4690
	%33 = getelementptr i8, i8*  %32, i64 8, !dbg !4690
	%34 = bitcast i8*  %33 to i8**, !dbg !4690
	%35 = load i8*, i8**  %34, align 8, !tbaa !2791, !dbg !4690
	%36 = bitcast %struct._ZN9__gnu_cxx17__normal_iteratorIPjSt6vectorIjSaIjEEEE* %..inline.addr.2 to i8**, !dbg !4690
	store i8*  %35, i8**  %36, align 8, !tbaa !2791, !dbg !4690
	%37 = load i32*, i32** %..inline.addr.1, align 8, !tbaa !2791, !dbg !4690
	%38 = bitcast i32*  %37 to i8*, !dbg !4690
	%39 = bitcast i32** %..inline.addr.3 to i8**, !dbg !4690
	store i8*  %38, i8**  %39, align 8, !tbaa !2791, !dbg !4690
	%40 = load %struct._ZSt6vectorIjSaIjEE*, %struct._ZSt6vectorIjSaIjEE** %..inline.addr, align 8, !tbaa !2791, !dbg !4690
	%41 = bitcast %struct._ZN9__gnu_cxx17__normal_iteratorIPjSt6vectorIjSaIjEEEE* %..inline.addr.2 to i64*, !dbg !4690
	%42 = load i64, i64*  %41, align 8, !tbaa !2790, !dbg !4690
	%43 = load i32*, i32** %..inline.addr.3, align 8, !tbaa !2791, !dbg !4690
	call void  @_ZNSt6vectorIjSaIjEE17_M_realloc_insertIJjEEEvN9__gnu_cxx17__normal_iteratorIPjS1_EEDpOT_ (%struct._ZSt6vectorIjSaIjEE*  %40, i64  %42, i32*  %43), !dbg !4690
	br label %L..inline.44403
L..inline.44403:
	ret void, !dbg !4687
}
define linkonce_odr i64 @_ZNKSt6vectorIjSaIjEE12_M_check_lenEmPKc(%struct._ZSt6vectorIjSaIjEE* %_T38213328_19841.arg, i64 %__n.arg, i8* %__s.arg) #0 inlinehint !dbg !4694 {
L.entry:
	%_T38213328_19841.addr = alloca %struct._ZSt6vectorIjSaIjEE*, align 8
	%__n.addr = alloca i64, align 8
	%__s.addr = alloca i8*, align 8
	%..inline.addr = alloca %struct._ZSaIjE*, align 8
	%..inline.addr.1 = alloca i64, align 8
	%_T38214808_19841.addr = alloca i64, align 8
	%..inline.addr.2 = alloca i64*, align 8
	%__len.addr = alloca i64, align 8
	%..inline.addr.3 = alloca %struct._ZSaIjE*, align 8
	%..inline.addr.4 = alloca i64, align 8
	%..inline.addr.5 = alloca %struct._ZSaIjE*, align 8
	%..inline.addr.6 = alloca i64, align 8
	%.I0013.addr = alloca i64, align 8

	call void @llvm.dbg.declare (metadata %struct._ZSt6vectorIjSaIjEE** %_T38213328_19841.addr, metadata !4742, metadata !2783), !dbg !4695
	store %struct._ZSt6vectorIjSaIjEE* %_T38213328_19841.arg, %struct._ZSt6vectorIjSaIjEE** %_T38213328_19841.addr, align 8, !tbaa !2791
	call void @llvm.dbg.declare (metadata %struct._ZSt6vectorIjSaIjEE** %_T38213328_19841.addr, metadata !4743, metadata !2783), !dbg !4695
	call void @llvm.dbg.declare (metadata i64* %__n.addr, metadata !4744, metadata !2783), !dbg !4695
	store i64 %__n.arg, i64* %__n.addr, align 8, !tbaa !2790
	call void @llvm.dbg.declare (metadata i64* %__n.addr, metadata !4745, metadata !2783), !dbg !4695
	call void @llvm.dbg.declare (metadata i8** %__s.addr, metadata !4746, metadata !2783), !dbg !4695
	store i8* %__s.arg, i8** %__s.addr, align 8, !tbaa !2791
	call void @llvm.dbg.declare (metadata i8** %__s.addr, metadata !4747, metadata !2783), !dbg !4695
	%0 = load %struct._ZSt6vectorIjSaIjEE*, %struct._ZSt6vectorIjSaIjEE** %_T38213328_19841.addr, align 8, !tbaa !2791, !dbg !4748
	%1 = bitcast %struct._ZSt6vectorIjSaIjEE*  %0 to i8*, !dbg !4748
	%2 = bitcast %struct._ZSaIjE** %..inline.addr to i8**, !dbg !4748
	store i8*  %1, i8**  %2, align 8, !tbaa !2791, !dbg !4748
	%3 = load %struct._ZSaIjE*, %struct._ZSaIjE** %..inline.addr, align 8, !tbaa !2791, !dbg !4748
	%4 = call i64  @_ZNSt6vectorIjSaIjEE11_S_max_sizeERKS0_ (%struct._ZSaIjE*  %3) nounwind, !dbg !4748
	%5 = load %struct._ZSt6vectorIjSaIjEE*, %struct._ZSt6vectorIjSaIjEE** %_T38213328_19841.addr, align 8, !tbaa !2791, !dbg !4749
	%6 = bitcast %struct._ZSt6vectorIjSaIjEE*  %5 to i8*, !dbg !4749
	%7 = getelementptr i8, i8*  %6, i64 8, !dbg !4749
	%8 = bitcast i8*  %7 to i8**, !dbg !4749
	%9 = load i8*, i8**  %8, align 8, !tbaa !2791, !dbg !4749
	%10 = bitcast %struct._ZSt6vectorIjSaIjEE*  %5 to i8**, !dbg !4749
	%11 = load i8*, i8**  %10, align 8, !tbaa !2791, !dbg !4749
	%12 = ptrtoint i8*  %11 to i64, !dbg !4749
	%13 = sub i64 0,  %12, !dbg !4749
	%14 = getelementptr i8, i8*  %9, i64  %13, !dbg !4749
	%15 = ptrtoint i8*  %14 to i64, !dbg !4749
	%16 = sext i32 2 to i64, !dbg !4749
	%17 = ashr i64  %15,  %16, !dbg !4749
	%18 = sub i64  %4,  %17, !dbg !4749
	%19 = load i64, i64* %__n.addr, align 8, !tbaa !3790, !dbg !4749
	%20 = icmp uge i64  %18,  %19, !dbg !4749
	br i1  %20, label %L.B0038, label %L.B1930, !dbg !4749
L.B1930:
	%21 = load i8*, i8** %__s.addr, align 8, !tbaa !2791, !dbg !4750
	call void  @_ZSt20__throw_length_errorPKc (i8*  %21) noreturn, !dbg !4750
	br label %L.B0038
L.B0038:
	%22 = load %struct._ZSt6vectorIjSaIjEE*, %struct._ZSt6vectorIjSaIjEE** %_T38213328_19841.addr, align 8, !tbaa !2791, !dbg !4749
	%23 = bitcast %struct._ZSt6vectorIjSaIjEE*  %22 to i8*, !dbg !4749
	%24 = getelementptr i8, i8*  %23, i64 8, !dbg !4749
	%25 = bitcast i8*  %24 to i8**, !dbg !4749
	%26 = load i8*, i8**  %25, align 8, !tbaa !2791, !dbg !4749
	%27 = bitcast %struct._ZSt6vectorIjSaIjEE*  %22 to i8**, !dbg !4749
	%28 = load i8*, i8**  %27, align 8, !tbaa !2791, !dbg !4749
	%29 = ptrtoint i8*  %28 to i64, !dbg !4749
	%30 = sub i64 0,  %29, !dbg !4749
	%31 = getelementptr i8, i8*  %26, i64  %30, !dbg !4749
	%32 = ptrtoint i8*  %31 to i64, !dbg !4749
	%33 = sext i32 2 to i64, !dbg !4749
	%34 = ashr i64  %32,  %33, !dbg !4749
	store i64  %34, i64* %_T38214808_19841.addr, align 8, !tbaa !3790, !dbg !4749
	%35 = load i64, i64* %__n.addr, align 8, !tbaa !3790, !dbg !4749
	%36 = icmp uge i64  %34,  %35, !dbg !4749
	%37 = zext i1  %36 to i32, !dbg !4749
	%38 = trunc i32  %37 to i1, !dbg !4749
	%39 = bitcast i64* %_T38214808_19841.addr to i8*, !dbg !4749
	%40 = bitcast i64* %__n.addr to i8*, !dbg !4749
	%41 = select i1  %38, i8*  %39, i8*  %40, !dbg !4749
	%42 = bitcast i64** %..inline.addr.2 to i8**, !dbg !4749
	store i8*  %41, i8**  %42, align 8, !tbaa !2791, !dbg !4749
	%43 = load i64*, i64** %..inline.addr.2, align 8, !tbaa !2791, !dbg !4751
	%44 = load i64, i64*  %43, align 8, !tbaa !2790, !dbg !4751
	%45 = sub i64 0,  %29, !dbg !4751
	%46 = getelementptr i8, i8*  %26, i64  %45, !dbg !4751
	%47 = ptrtoint i8*  %46 to i64, !dbg !4751
	%48 = sext i32 2 to i64, !dbg !4751
	%49 = ashr i64  %47,  %48, !dbg !4751
	%50 = add i64  %44,  %49, !dbg !4751
	call void @llvm.dbg.declare (metadata i64* %__len.addr, metadata !4752, metadata !2783), !dbg !4695
	store i64  %50, i64* %__len.addr, align 8, !tbaa !3790, !dbg !4751
	%51 = load i64*, i64** %..inline.addr.2, align 8, !tbaa !2791, !dbg !4749
	%52 = load i64, i64*  %51, align 8, !tbaa !2790, !dbg !4749
	%53 = load %struct._ZSt6vectorIjSaIjEE*, %struct._ZSt6vectorIjSaIjEE** %_T38213328_19841.addr, align 8, !tbaa !2791, !dbg !4749
	%54 = bitcast %struct._ZSt6vectorIjSaIjEE*  %53 to i8*, !dbg !4749
	%55 = getelementptr i8, i8*  %54, i64 8, !dbg !4749
	%56 = bitcast i8*  %55 to i8**, !dbg !4749
	%57 = load i8*, i8**  %56, align 8, !tbaa !2791, !dbg !4749
	%58 = bitcast %struct._ZSt6vectorIjSaIjEE*  %53 to i8**, !dbg !4749
	%59 = load i8*, i8**  %58, align 8, !tbaa !2791, !dbg !4749
	%60 = ptrtoint i8*  %59 to i64, !dbg !4749
	%61 = sub i64 0,  %60, !dbg !4749
	%62 = getelementptr i8, i8*  %57, i64  %61, !dbg !4749
	%63 = ptrtoint i8*  %62 to i64, !dbg !4749
	%64 = sext i32 2 to i64, !dbg !4749
	%65 = ashr i64  %63,  %64, !dbg !4749
	%66 = add i64  %52,  %65, !dbg !4749
	%67 = sub i64 0,  %60, !dbg !4749
	%68 = getelementptr i8, i8*  %57, i64  %67, !dbg !4749
	%69 = ptrtoint i8*  %68 to i64, !dbg !4749
	%70 = sext i32 2 to i64, !dbg !4749
	%71 = ashr i64  %69,  %70, !dbg !4749
	%72 = icmp ult i64  %66,  %71, !dbg !4749
	br i1  %72, label %L.B0041, label %L.B1931, !dbg !4749
L.B1931:
	%73 = bitcast %struct._ZSt6vectorIjSaIjEE*  %53 to i8*, !dbg !4748
	%74 = bitcast %struct._ZSaIjE** %..inline.addr.3 to i8**, !dbg !4748
	store i8*  %73, i8**  %74, align 8, !tbaa !2791, !dbg !4748
	%75 = load %struct._ZSaIjE*, %struct._ZSaIjE** %..inline.addr.3, align 8, !tbaa !2791, !dbg !4748
	%76 = call i64  @_ZNSt6vectorIjSaIjEE11_S_max_sizeERKS0_ (%struct._ZSaIjE*  %75) nounwind, !dbg !4748
	%77 = load i64, i64* %__len.addr, align 8, !tbaa !3790, !dbg !4748
	%78 = icmp ule i64  %77,  %76, !dbg !4748
	br i1  %78, label %L.B0039, label %L.B0041, !dbg !4748
L.B0041:
	%79 = load %struct._ZSt6vectorIjSaIjEE*, %struct._ZSt6vectorIjSaIjEE** %_T38213328_19841.addr, align 8, !tbaa !2791, !dbg !4748
	%80 = bitcast %struct._ZSt6vectorIjSaIjEE*  %79 to i8*, !dbg !4748
	%81 = bitcast %struct._ZSaIjE** %..inline.addr.5 to i8**, !dbg !4748
	store i8*  %80, i8**  %81, align 8, !tbaa !2791, !dbg !4748
	%82 = load %struct._ZSaIjE*, %struct._ZSaIjE** %..inline.addr.5, align 8, !tbaa !2791, !dbg !4748
	%83 = call i64  @_ZNSt6vectorIjSaIjEE11_S_max_sizeERKS0_ (%struct._ZSaIjE*  %82) nounwind, !dbg !4748
	store i64  %83, i64* %.I0013.addr, align 8, !tbaa !3790, !dbg !4748
	br label %L.B0040, !dbg !4753
L.B0039:
	%84 = load i64, i64* %__len.addr, align 8, !tbaa !3790, !dbg !4753
	store i64  %84, i64* %.I0013.addr, align 8, !tbaa !3790, !dbg !4753
	br label %L.B0040
L.B0040:
	%85 = load i64, i64* %.I0013.addr, align 8, !tbaa !3790, !dbg !4753
	ret i64  %85, !dbg !4753
}
define linkonce_odr i64 @_ZNSt6vectorIjSaIjEE11_S_max_sizeERKS0_(%struct._ZSaIjE* %__a.arg) #0 inlinehint personality i8* bitcast (i32 (...)* @__gxx_personality_v0 to i8*) !dbg !4762 {
L.entry:
	%__a.addr = alloca %struct._ZSaIjE*, align 8

	call void @llvm.dbg.declare (metadata %struct._ZSaIjE** %__a.addr, metadata !4778, metadata !2783), !dbg !4763
	store %struct._ZSaIjE* %__a.arg, %struct._ZSaIjE** %__a.addr, align 8, !tbaa !2791
	call void @llvm.dbg.declare (metadata %struct._ZSaIjE** %__a.addr, metadata !4779, metadata !2783), !dbg !4763
	ret i64 2305843009213693951, !dbg !4780
L.B1936:
	br label %L.R0039, !dbg !4780
L_T38215288_19843:
	%0 = landingpad %astruct.dt64
	cleanup
	br label %L.R0039
L.R0039:
	ret i64 0
}

%struct._ZN9__gnu_cxx13new_allocatorIjEE = type <{ [1 x i8]}> 

define linkonce_odr void @_ZNSt6vectorIjSaIjEE17_M_realloc_insertIJRKjEEEvN9__gnu_cxx17__normal_iteratorIPjS1_EEDpOT_(%struct._ZSt6vectorIjSaIjEE* %_T38213328_19845.arg, i64 %__position.coerce, i32* %__args.arg) #0 inlinehint personality i8* bitcast (i32 (...)* @__gxx_personality_v0 to i8*) !dbg !4787 {
L.entry:
	%_T38213328_19845.addr = alloca %struct._ZSt6vectorIjSaIjEE*, align 8
	%__position.addr = alloca %struct._ZN9__gnu_cxx17__normal_iteratorIPjSt6vectorIjSaIjEEEE, align 8
	%__args.addr = alloca i32*, align 8
	%..inline.addr = alloca %struct._ZSt6vectorIjSaIjEE*, align 8
	%..inline.addr.1 = alloca i64, align 8
	%..inline.addr.2 = alloca i8*, align 8
	%..inline.addr.3 = alloca %struct._ZSt6vectorIjSaIjEE*, align 8
	%..inline.addr.4 = alloca %struct._ZSt12_Vector_baseIjSaIjEE*, align 8
	%..inline.addr.5 = alloca %struct._ZSaIjE*, align 8
	%..inline.addr.6 = alloca i64, align 8
	%..inline.addr.7 = alloca i64, align 8
	%..inline.addr.8 = alloca %struct._ZSt6vectorIjSaIjEE*, align 8
	%..inline.addr.9 = alloca i64, align 8
	%..inline.addr.160 = alloca i64, align 8
	%..inline.addr.170 = alloca %struct._ZSt6vectorIjSaIjEE*, align 8
	%..inline.addr.180 = alloca i64, align 8
	%..inline.addr.190 = alloca i64, align 8
	%..inline.addr.200 = alloca i64, align 8
	%..inline.addr.210 = alloca %struct._ZSt6vectorIjSaIjEE*, align 8
	%..inline.addr.220 = alloca i64, align 8
	%..inline.addr.230 = alloca i64, align 8
	%..inline.addr.240 = alloca i64*, align 8
	%..inline.addr.250 = alloca i64, align 8
	%..inline.addr.260 = alloca %struct._ZSt6vectorIjSaIjEE*, align 8
	%..inline.addr.270 = alloca i64, align 8
	%..inline.addr.280 = alloca i64, align 8
	%..inline.addr.290 = alloca %struct._ZSt6vectorIjSaIjEE*, align 8
	%..inline.addr.300 = alloca %struct._ZSt12_Vector_baseIjSaIjEE*, align 8
	%..inline.addr.310 = alloca %struct._ZSaIjE*, align 8
	%..inline.addr.320 = alloca i64, align 8
	%..inline.addr.330 = alloca i64, align 8
	%..inline.addr.340 = alloca %struct._ZSt6vectorIjSaIjEE*, align 8
	%..inline.addr.350 = alloca %struct._ZSt12_Vector_baseIjSaIjEE*, align 8
	%..inline.addr.360 = alloca %struct._ZSaIjE*, align 8
	%..inline.addr.370 = alloca i64, align 8
	%..inline.addr.380 = alloca i64, align 8
	%..inline.addr.390 = alloca i64, align 8
	%..inline.addr.400 = alloca i64, align 8
	%__len.addr = alloca i64, align 8
	%__old_start.addr = alloca i32*, align 8
	%__old_finish.addr = alloca i32*, align 8
	%..inline.addr.440 = alloca %struct._ZSt6vectorIjSaIjEE*, align 8
	%..inline.addr.450 = alloca i32**, align 8
	%..inline.addr.460 = alloca %struct._ZN9__gnu_cxx17__normal_iteratorIPjSt6vectorIjSaIjEEEE, align 8
	%..inline.addr.470 = alloca %struct._ZN9__gnu_cxx17__normal_iteratorIPjSt6vectorIjSaIjEEEE, align 8
	%_T38215992_19845.addr = alloca %struct._ZN9__gnu_cxx17__normal_iteratorIPjSt6vectorIjSaIjEEEE, align 8
	%..inline.addr.490 = alloca %struct._ZN9__gnu_cxx17__normal_iteratorIPjSt6vectorIjSaIjEEEE*, align 8
	%..inline.addr.500 = alloca %struct._ZN9__gnu_cxx17__normal_iteratorIPjSt6vectorIjSaIjEEEE*, align 8
	%..inline.addr.510 = alloca i64, align 8
	%..inline.addr.520 = alloca i64, align 8
	%__elems_before.addr = alloca i64, align 8
	%..inline.addr.540 = alloca %struct._ZSt12_Vector_baseIjSaIjEE*, align 8
	%..inline.addr.550 = alloca i64, align 8
	%..inline.addr.560 = alloca %struct._ZSaIjE*, align 8
	%..inline.addr.570 = alloca i64, align 8
	%..inline.addr.580 = alloca %struct._ZN9__gnu_cxx13new_allocatorIjEE*, align 8
	%..inline.addr.590 = alloca i64, align 8
	%..inline.addr.600 = alloca i64, align 8
	%.Q0002.addr = alloca i8*, align 8
	%..inline.addr.620 = alloca i32*, align 8
	%__new_start.addr = alloca i32*, align 8
	%__new_finish.addr = alloca i32*, align 8
	%..inline.addr.650 = alloca i32*, align 8
	%..inline.addr.660 = alloca i32*, align 8
	%..inline.addr.670 = alloca %struct._ZSaIjE*, align 8
	%..inline.addr.680 = alloca i32*, align 8
	%..inline.addr.690 = alloca i32*, align 8
	%..inline.addr.700 = alloca i32*, align 8
	%..inline.addr.710 = alloca i32*, align 8
	%..inline.addr.720 = alloca i32*, align 8
	%..inline.addr.730 = alloca i32*, align 8
	%..inline.addr.740 = alloca i64, align 8
	%..inline.addr.750 = alloca i8*, align 8
	%..inline.addr.760 = alloca i8*, align 8
	%..inline.addr.770 = alloca i8*, align 8
	%..inline.addr.780 = alloca i32*, align 8
	%..inline.addr.790 = alloca i32*, align 8
	%..inline.addr.800 = alloca i32*, align 8
	%..inline.addr.810 = alloca i32*, align 8
	%..inline.addr.820 = alloca %struct._ZSt12_Vector_baseIjSaIjEE*, align 8
	%..inline.addr.830 = alloca %struct._ZSaIjE*, align 8
	%..inline.addr.840 = alloca i32*, align 8
	%..inline.addr.850 = alloca i32*, align 8
	%..inline.addr.860 = alloca i32*, align 8
	%..inline.addr.870 = alloca %struct._ZSaIjE*, align 8
	%..inline.addr.880 = alloca %struct._ZSt17integral_constantIbLb1EE, align 1
	%..inline.addr.890 = alloca i32*, align 8
	%..inline.addr.900 = alloca i32*, align 8
	%..inline.addr.910 = alloca i32*, align 8
	%..inline.addr.920 = alloca %struct._ZSaIjE*, align 8
	%..inline.addr.930 = alloca %struct._ZSt17integral_constantIbLb1EE, align 1
	%..inline.addr.940 = alloca i32*, align 8
	%..inline.addr.950 = alloca i32*, align 8
	%..inline.addr.960 = alloca i32*, align 8
	%..inline.addr.970 = alloca %struct._ZSaIjE*, align 8
	%..inline.addr.980 = alloca i32*, align 8
	%..inline.addr.990 = alloca i32*, align 8
	%..inline.addr.1000 = alloca i32*, align 8
	%..inline.addr.1010 = alloca i32*, align 8
	%..inline.addr.1020 = alloca i32*, align 8
	%..inline.addr.1030 = alloca i32*, align 8
	%..inline.addr.1040 = alloca i32*, align 8
	%..inline.addr.1050 = alloca i32*, align 8
	%..inline.addr.1060 = alloca i32*, align 8
	%..inline.addr.1070 = alloca i64, align 8
	%..inline.addr.1080 = alloca i32*, align 8
	%..inline.addr.1090 = alloca i32*, align 8
	%..inline.addr.1100 = alloca i32*, align 8
	%..inline.addr.1110 = alloca i32*, align 8
	%..inline.addr.1120 = alloca %struct._ZSt12_Vector_baseIjSaIjEE*, align 8
	%..inline.addr.1130 = alloca %struct._ZSaIjE*, align 8
	%..inline.addr.1140 = alloca i32*, align 8
	%..inline.addr.1150 = alloca i32*, align 8
	%..inline.addr.1160 = alloca i32*, align 8
	%..inline.addr.1170 = alloca %struct._ZSaIjE*, align 8
	%..inline.addr.1180 = alloca %struct._ZSt17integral_constantIbLb1EE, align 1
	%..inline.addr.1190 = alloca i32*, align 8
	%..inline.addr.1200 = alloca i32*, align 8
	%..inline.addr.1210 = alloca i32*, align 8
	%..inline.addr.1220 = alloca %struct._ZSaIjE*, align 8
	%..inline.addr.1230 = alloca %struct._ZSt17integral_constantIbLb1EE, align 1
	%..inline.addr.1240 = alloca i32*, align 8
	%..inline.addr.1250 = alloca i32*, align 8
	%..inline.addr.1260 = alloca i32*, align 8
	%..inline.addr.1270 = alloca %struct._ZSaIjE*, align 8
	%..inline.addr.1280 = alloca i32*, align 8
	%..inline.addr.1290 = alloca i32*, align 8
	%..inline.addr.1300 = alloca i32*, align 8
	%..inline.addr.1310 = alloca i32*, align 8
	%..inline.addr.1320 = alloca i32*, align 8
	%..inline.addr.1330 = alloca i32*, align 8
	%..inline.addr.1340 = alloca i32*, align 8
	%..inline.addr.1350 = alloca i32*, align 8
	%..inline.addr.1360 = alloca i32*, align 8
	%..inline.addr.1370 = alloca i64, align 8
	%..inline.addr.1380 = alloca i32*, align 8
	%..inline.addr.1390 = alloca i32*, align 8
	%..inline.addr.1400 = alloca i32*, align 8
	%..inline.addr.1410 = alloca i32*, align 8
	%..inline.addr.1420 = alloca %struct._ZSt12_Vector_baseIjSaIjEE*, align 8
	%..inline.addr.1430 = alloca %struct._ZSaIjE*, align 8
	%..inline.addr.1440 = alloca %struct._ZSt12_Vector_baseIjSaIjEE*, align 8
	%..inline.addr.1450 = alloca %struct._ZSaIjE*, align 8
	%..inline.addr.1460 = alloca %struct._ZSt12_Vector_baseIjSaIjEE*, align 8
	%..inline.addr.1470 = alloca %struct._ZSaIjE*, align 8
	%..inline.addr.1480 = alloca i32*, align 8
	%..inline.addr.1490 = alloca i32*, align 8
	%..inline.addr.1500 = alloca i32*, align 8
	%..inline.addr.1510 = alloca i32*, align 8
	%..inline.addr.1520 = alloca %struct._ZSt12_Vector_baseIjSaIjEE*, align 8
	%..inline.addr.1530 = alloca i32*, align 8
	%..inline.addr.1540 = alloca i64, align 8
	%..inline.addr.1550 = alloca %struct._ZSaIjE*, align 8
	%..inline.addr.1560 = alloca i32*, align 8
	%..inline.addr.1570 = alloca i64, align 8
	%..inline.addr.1580 = alloca i32*, align 8
	%__caught_object_address.addr = alloca i8*, align 8
	%__catch_clause_number.addr = alloca i32, align 4
	%..inline.addr.1610 = alloca %struct._ZSaIjE*, align 8
	%..inline.addr.1620 = alloca i32*, align 8
	%..inline.addr.1630 = alloca %struct._ZSt12_Vector_baseIjSaIjEE*, align 8
	%..inline.addr.1640 = alloca %struct._ZSaIjE*, align 8
	%..inline.addr.1650 = alloca i32*, align 8
	%..inline.addr.1660 = alloca i32*, align 8
	%..inline.addr.1670 = alloca i32*, align 8
	%..inline.addr.1680 = alloca i32*, align 8
	%..inline.addr.1690 = alloca %struct._ZSt12_Vector_baseIjSaIjEE*, align 8
	%..inline.addr.1700 = alloca i32*, align 8
	%..inline.addr.1710 = alloca i64, align 8
	%..inline.addr.1720 = alloca %struct._ZSaIjE*, align 8
	%..inline.addr.1730 = alloca i32*, align 8
	%..inline.addr.1740 = alloca i64, align 8
	%..inline.addr.1750 = alloca i32*, align 8

	call void @llvm.dbg.declare (metadata %struct._ZSt6vectorIjSaIjEE** %_T38213328_19845.addr, metadata !5053, metadata !2783), !dbg !4788
	store %struct._ZSt6vectorIjSaIjEE* %_T38213328_19845.arg, %struct._ZSt6vectorIjSaIjEE** %_T38213328_19845.addr, align 8
	call void @llvm.dbg.declare (metadata %struct._ZSt6vectorIjSaIjEE** %_T38213328_19845.addr, metadata !5054, metadata !2783), !dbg !4788
	call void @llvm.dbg.declare (metadata %struct._ZN9__gnu_cxx17__normal_iteratorIPjSt6vectorIjSaIjEEEE* %__position.addr, metadata !5055, metadata !2783), !dbg !4788
	%0 = bitcast %struct._ZN9__gnu_cxx17__normal_iteratorIPjSt6vectorIjSaIjEEEE* %__position.addr to i64*
	store i64 %__position.coerce, i64*  %0, align 8
	call void @llvm.dbg.declare (metadata %struct._ZN9__gnu_cxx17__normal_iteratorIPjSt6vectorIjSaIjEEEE* %__position.addr, metadata !5056, metadata !2783), !dbg !4788
	call void @llvm.dbg.declare (metadata i32** %__args.addr, metadata !5057, metadata !2783), !dbg !4788
	store i32* %__args.arg, i32** %__args.addr, align 8
	call void @llvm.dbg.declare (metadata i32** %__args.addr, metadata !5058, metadata !2783), !dbg !4788
	%1 = load %struct._ZSt6vectorIjSaIjEE*, %struct._ZSt6vectorIjSaIjEE** %_T38213328_19845.addr, align 8, !dbg !5059
	%2 = bitcast %struct._ZSt6vectorIjSaIjEE*  %1 to i8*, !dbg !5059
	%3 = bitcast %struct._ZSt6vectorIjSaIjEE** %..inline.addr to i8**, !dbg !5059
	store i8*  %2, i8**  %3, align 8, !dbg !5059
	store i64 1, i64* %..inline.addr.1, align 8, !dbg !5059
	%4 = bitcast [26 x i8]* @.S21668 to i8*, !dbg !5059
	store i8*  %4, i8** %..inline.addr.2, align 8, !dbg !5059
	%5 = load %struct._ZSt6vectorIjSaIjEE*, %struct._ZSt6vectorIjSaIjEE** %..inline.addr, align 8, !dbg !5060
	%6 = bitcast %struct._ZSt6vectorIjSaIjEE*  %5 to i8*, !dbg !5060
	%7 = bitcast %struct._ZSt6vectorIjSaIjEE** %..inline.addr.3 to i8**, !dbg !5060
	store i8*  %6, i8**  %7, align 8, !dbg !5060
	%8 = load %struct._ZSt6vectorIjSaIjEE*, %struct._ZSt6vectorIjSaIjEE** %..inline.addr.3, align 8, !dbg !5060
	%9 = bitcast %struct._ZSt6vectorIjSaIjEE*  %8 to i8*, !dbg !5060
	%10 = bitcast %struct._ZSt12_Vector_baseIjSaIjEE** %..inline.addr.4 to i8**, !dbg !5060
	store i8*  %9, i8**  %10, align 8, !dbg !5060
	%11 = load %struct._ZSt12_Vector_baseIjSaIjEE*, %struct._ZSt12_Vector_baseIjSaIjEE** %..inline.addr.4, align 8, !dbg !5060
	%12 = bitcast %struct._ZSt12_Vector_baseIjSaIjEE*  %11 to i8*, !dbg !5060
	%13 = bitcast %struct._ZSaIjE** %..inline.addr.5 to i8**, !dbg !5060
	store i8*  %12, i8**  %13, align 8, !dbg !5060
	%14 = load %struct._ZSaIjE*, %struct._ZSaIjE** %..inline.addr.5, align 8, !dbg !5060
	%15 = call i64  @_ZNSt6vectorIjSaIjEE11_S_max_sizeERKS0_ (%struct._ZSaIjE*  %14) nounwind, !dbg !5060
	store i64  %15, i64* %..inline.addr.6, align 8, !dbg !5060
	store i64  %15, i64* %..inline.addr.7, align 8, !dbg !5060
	%16 = load %struct._ZSt6vectorIjSaIjEE*, %struct._ZSt6vectorIjSaIjEE** %..inline.addr, align 8, !dbg !5060
	%17 = bitcast %struct._ZSt6vectorIjSaIjEE*  %16 to i8*, !dbg !5060
	%18 = bitcast %struct._ZSt6vectorIjSaIjEE** %..inline.addr.8 to i8**, !dbg !5060
	store i8*  %17, i8**  %18, align 8, !dbg !5060
	%19 = load %struct._ZSt6vectorIjSaIjEE*, %struct._ZSt6vectorIjSaIjEE** %..inline.addr.8, align 8, !dbg !5060
	%20 = bitcast %struct._ZSt6vectorIjSaIjEE*  %19 to i8*, !dbg !5060
	%21 = getelementptr i8, i8*  %20, i64 8, !dbg !5060
	%22 = bitcast i8*  %21 to i8**, !dbg !5060
	%23 = load i8*, i8**  %22, align 8, !dbg !5060
	%24 = bitcast %struct._ZSt6vectorIjSaIjEE*  %19 to i8**, !dbg !5060
	%25 = load i8*, i8**  %24, align 8, !dbg !5060
	%26 = ptrtoint i8*  %25 to i64, !dbg !5060
	%27 = sub i64 0,  %26, !dbg !5060
	%28 = getelementptr i8, i8*  %23, i64  %27, !dbg !5060
	%29 = ptrtoint i8*  %28 to i64, !dbg !5060
	%30 = sext i32 2 to i64, !dbg !5060
	%31 = ashr i64  %29,  %30, !dbg !5060
	store i64  %31, i64* %..inline.addr.9, align 8, !dbg !5060
	store i64  %31, i64* %..inline.addr.160, align 8, !dbg !5060
	%32 = sub i64  %15,  %31, !dbg !5060
	%33 = load i64, i64* %..inline.addr.1, align 8, !dbg !5060
	%34 = icmp uge i64  %32,  %33, !dbg !5060
	br i1  %34, label %L..inline.44646, label %L.B1983, !dbg !5060
L.B1983:
	%35 = load i8*, i8** %..inline.addr.2, align 8, !dbg !5061
	call void  @_ZSt20__throw_length_errorPKc (i8*  %35) noreturn, !dbg !5061
	br label %L..inline.44646
L..inline.44646:
	%36 = load %struct._ZSt6vectorIjSaIjEE*, %struct._ZSt6vectorIjSaIjEE** %..inline.addr, align 8, !dbg !5062
	%37 = bitcast %struct._ZSt6vectorIjSaIjEE*  %36 to i8*, !dbg !5062
	%38 = bitcast %struct._ZSt6vectorIjSaIjEE** %..inline.addr.170 to i8**, !dbg !5062
	store i8*  %37, i8**  %38, align 8, !dbg !5062
	%39 = load %struct._ZSt6vectorIjSaIjEE*, %struct._ZSt6vectorIjSaIjEE** %..inline.addr.170, align 8, !dbg !5062
	%40 = bitcast %struct._ZSt6vectorIjSaIjEE*  %39 to i8*, !dbg !5062
	%41 = getelementptr i8, i8*  %40, i64 8, !dbg !5062
	%42 = bitcast i8*  %41 to i8**, !dbg !5062
	%43 = load i8*, i8**  %42, align 8, !dbg !5062
	%44 = bitcast %struct._ZSt6vectorIjSaIjEE*  %39 to i8**, !dbg !5062
	%45 = load i8*, i8**  %44, align 8, !dbg !5062
	%46 = ptrtoint i8*  %45 to i64, !dbg !5062
	%47 = sub i64 0,  %46, !dbg !5062
	%48 = getelementptr i8, i8*  %43, i64  %47, !dbg !5062
	%49 = ptrtoint i8*  %48 to i64, !dbg !5062
	%50 = sext i32 2 to i64, !dbg !5062
	%51 = ashr i64  %49,  %50, !dbg !5062
	store i64  %51, i64* %..inline.addr.180, align 8, !dbg !5062
	store i64  %51, i64* %..inline.addr.190, align 8, !dbg !5062
	store i64  %51, i64* %..inline.addr.200, align 8, !dbg !5062
	%52 = bitcast %struct._ZSt6vectorIjSaIjEE** %..inline.addr.210 to i8**, !dbg !5062
	store i8*  %37, i8**  %52, align 8, !dbg !5062
	%53 = load %struct._ZSt6vectorIjSaIjEE*, %struct._ZSt6vectorIjSaIjEE** %..inline.addr.210, align 8, !dbg !5062
	%54 = bitcast %struct._ZSt6vectorIjSaIjEE*  %53 to i8*, !dbg !5062
	%55 = getelementptr i8, i8*  %54, i64 8, !dbg !5062
	%56 = bitcast i8*  %55 to i8**, !dbg !5062
	%57 = load i8*, i8**  %56, align 8, !dbg !5062
	%58 = bitcast %struct._ZSt6vectorIjSaIjEE*  %53 to i8**, !dbg !5062
	%59 = load i8*, i8**  %58, align 8, !dbg !5062
	%60 = ptrtoint i8*  %59 to i64, !dbg !5062
	%61 = sub i64 0,  %60, !dbg !5062
	%62 = getelementptr i8, i8*  %57, i64  %61, !dbg !5062
	%63 = ptrtoint i8*  %62 to i64, !dbg !5062
	%64 = sext i32 2 to i64, !dbg !5062
	%65 = ashr i64  %63,  %64, !dbg !5062
	store i64  %65, i64* %..inline.addr.220, align 8, !dbg !5062
	store i64  %65, i64* %..inline.addr.230, align 8, !dbg !5062
	%66 = load i64, i64* %..inline.addr.1, align 8, !dbg !5062
	%67 = icmp uge i64  %51,  %66, !dbg !5062
	br i1  %67, label %L..inline.44669, label %L.B1984, !dbg !5062
L.B1984:
	%68 = bitcast i64* %..inline.addr.1 to i8*, !dbg !5062
	%69 = bitcast i64** %..inline.addr.240 to i8**, !dbg !5062
	store i8*  %68, i8**  %69, align 8, !dbg !5062
	br label %L..inline.44671, !dbg !5062
L..inline.44669:
	%70 = bitcast i64* %..inline.addr.200 to i8*, !dbg !5062
	%71 = bitcast i64** %..inline.addr.240 to i8**, !dbg !5062
	store i8*  %70, i8**  %71, align 8, !dbg !5062
	br label %L..inline.44671
L..inline.44671:
	%72 = load i64*, i64** %..inline.addr.240, align 8, !dbg !5062
	%73 = load i64, i64*  %72, align 8, !dbg !5062
	%74 = load i64, i64* %..inline.addr.230, align 8, !dbg !5062
	%75 = add i64  %73,  %74, !dbg !5062
	store i64  %75, i64* %..inline.addr.250, align 8, !dbg !5062
	%76 = load %struct._ZSt6vectorIjSaIjEE*, %struct._ZSt6vectorIjSaIjEE** %..inline.addr, align 8, !dbg !5063
	%77 = bitcast %struct._ZSt6vectorIjSaIjEE*  %76 to i8*, !dbg !5063
	%78 = bitcast %struct._ZSt6vectorIjSaIjEE** %..inline.addr.260 to i8**, !dbg !5063
	store i8*  %77, i8**  %78, align 8, !dbg !5063
	%79 = load %struct._ZSt6vectorIjSaIjEE*, %struct._ZSt6vectorIjSaIjEE** %..inline.addr.260, align 8, !dbg !5063
	%80 = bitcast %struct._ZSt6vectorIjSaIjEE*  %79 to i8*, !dbg !5063
	%81 = getelementptr i8, i8*  %80, i64 8, !dbg !5063
	%82 = bitcast i8*  %81 to i8**, !dbg !5063
	%83 = load i8*, i8**  %82, align 8, !dbg !5063
	%84 = bitcast %struct._ZSt6vectorIjSaIjEE*  %79 to i8**, !dbg !5063
	%85 = load i8*, i8**  %84, align 8, !dbg !5063
	%86 = ptrtoint i8*  %85 to i64, !dbg !5063
	%87 = sub i64 0,  %86, !dbg !5063
	%88 = getelementptr i8, i8*  %83, i64  %87, !dbg !5063
	%89 = ptrtoint i8*  %88 to i64, !dbg !5063
	%90 = sext i32 2 to i64, !dbg !5063
	%91 = ashr i64  %89,  %90, !dbg !5063
	store i64  %91, i64* %..inline.addr.270, align 8, !dbg !5063
	store i64  %91, i64* %..inline.addr.280, align 8, !dbg !5063
	%92 = icmp ult i64  %75,  %91, !dbg !5063
	br i1  %92, label %L..inline.44679, label %L.B1985, !dbg !5063
L.B1985:
	%93 = load %struct._ZSt6vectorIjSaIjEE*, %struct._ZSt6vectorIjSaIjEE** %..inline.addr, align 8, !dbg !5063
	%94 = bitcast %struct._ZSt6vectorIjSaIjEE*  %93 to i8*, !dbg !5063
	%95 = bitcast %struct._ZSt6vectorIjSaIjEE** %..inline.addr.290 to i8**, !dbg !5063
	store i8*  %94, i8**  %95, align 8, !dbg !5063
	%96 = load %struct._ZSt6vectorIjSaIjEE*, %struct._ZSt6vectorIjSaIjEE** %..inline.addr.290, align 8, !dbg !5063
	%97 = bitcast %struct._ZSt6vectorIjSaIjEE*  %96 to i8*, !dbg !5063
	%98 = bitcast %struct._ZSt12_Vector_baseIjSaIjEE** %..inline.addr.300 to i8**, !dbg !5063
	store i8*  %97, i8**  %98, align 8, !dbg !5063
	%99 = load %struct._ZSt12_Vector_baseIjSaIjEE*, %struct._ZSt12_Vector_baseIjSaIjEE** %..inline.addr.300, align 8, !dbg !5063
	%100 = bitcast %struct._ZSt12_Vector_baseIjSaIjEE*  %99 to i8*, !dbg !5063
	%101 = bitcast %struct._ZSaIjE** %..inline.addr.310 to i8**, !dbg !5063
	store i8*  %100, i8**  %101, align 8, !dbg !5063
	%102 = load %struct._ZSaIjE*, %struct._ZSaIjE** %..inline.addr.310, align 8, !dbg !5063
	%103 = call i64  @_ZNSt6vectorIjSaIjEE11_S_max_sizeERKS0_ (%struct._ZSaIjE*  %102) nounwind, !dbg !5063
	store i64  %103, i64* %..inline.addr.320, align 8, !dbg !5063
	store i64  %103, i64* %..inline.addr.330, align 8, !dbg !5063
	%104 = load i64, i64* %..inline.addr.250, align 8, !dbg !5063
	%105 = icmp ule i64  %104,  %103, !dbg !5063
	br i1  %105, label %L..inline.44694, label %L.B1986, !dbg !5063
L.B1986:
	br label %L..inline.44679
L..inline.44679:
	%106 = load %struct._ZSt6vectorIjSaIjEE*, %struct._ZSt6vectorIjSaIjEE** %..inline.addr, align 8, !dbg !5063
	%107 = bitcast %struct._ZSt6vectorIjSaIjEE*  %106 to i8*, !dbg !5063
	%108 = bitcast %struct._ZSt6vectorIjSaIjEE** %..inline.addr.340 to i8**, !dbg !5063
	store i8*  %107, i8**  %108, align 8, !dbg !5063
	%109 = load %struct._ZSt6vectorIjSaIjEE*, %struct._ZSt6vectorIjSaIjEE** %..inline.addr.340, align 8, !dbg !5063
	%110 = bitcast %struct._ZSt6vectorIjSaIjEE*  %109 to i8*, !dbg !5063
	%111 = bitcast %struct._ZSt12_Vector_baseIjSaIjEE** %..inline.addr.350 to i8**, !dbg !5063
	store i8*  %110, i8**  %111, align 8, !dbg !5063
	%112 = load %struct._ZSt12_Vector_baseIjSaIjEE*, %struct._ZSt12_Vector_baseIjSaIjEE** %..inline.addr.350, align 8, !dbg !5063
	%113 = bitcast %struct._ZSt12_Vector_baseIjSaIjEE*  %112 to i8*, !dbg !5063
	%114 = bitcast %struct._ZSaIjE** %..inline.addr.360 to i8**, !dbg !5063
	store i8*  %113, i8**  %114, align 8, !dbg !5063
	%115 = load %struct._ZSaIjE*, %struct._ZSaIjE** %..inline.addr.360, align 8, !dbg !5063
	%116 = call i64  @_ZNSt6vectorIjSaIjEE11_S_max_sizeERKS0_ (%struct._ZSaIjE*  %115) nounwind, !dbg !5063
	store i64  %116, i64* %..inline.addr.370, align 8, !dbg !5063
	store i64  %116, i64* %..inline.addr.380, align 8, !dbg !5063
	store i64  %116, i64* %..inline.addr.390, align 8, !dbg !5063
	br label %L..inline.44710, !dbg !5063
L..inline.44694:
	%117 = load i64, i64* %..inline.addr.250, align 8, !dbg !5063
	store i64  %117, i64* %..inline.addr.390, align 8, !dbg !5063
	br label %L..inline.44710
L..inline.44710:
	%118 = load i64, i64* %..inline.addr.390, align 8, !dbg !5063
	store i64  %118, i64* %..inline.addr.400, align 8, !dbg !5063
	call void @llvm.dbg.declare (metadata i64* %__len.addr, metadata !5065, metadata !2783), !dbg !4788
	store i64  %118, i64* %__len.addr, align 8, !dbg !5064
	%119 = load %struct._ZSt6vectorIjSaIjEE*, %struct._ZSt6vectorIjSaIjEE** %_T38213328_19845.addr, align 8, !dbg !5066
	%120 = bitcast %struct._ZSt6vectorIjSaIjEE*  %119 to i8**, !dbg !5066
	%121 = load i8*, i8**  %120, align 8, !dbg !5066
	call void @llvm.dbg.declare (metadata i32** %__old_start.addr, metadata !5067, metadata !2783), !dbg !4788
	%122 = bitcast i32** %__old_start.addr to i8**, !dbg !5066
	store i8*  %121, i8**  %122, align 8, !dbg !5066
	%123 = load %struct._ZSt6vectorIjSaIjEE*, %struct._ZSt6vectorIjSaIjEE** %_T38213328_19845.addr, align 8, !dbg !5068
	%124 = bitcast %struct._ZSt6vectorIjSaIjEE*  %123 to i8*, !dbg !5068
	%125 = getelementptr i8, i8*  %124, i64 8, !dbg !5068
	%126 = bitcast i8*  %125 to i8**, !dbg !5068
	%127 = load i8*, i8**  %126, align 8, !dbg !5068
	call void @llvm.dbg.declare (metadata i32** %__old_finish.addr, metadata !5069, metadata !2783), !dbg !4788
	%128 = bitcast i32** %__old_finish.addr to i8**, !dbg !5068
	store i8*  %127, i8**  %128, align 8, !dbg !5068
	%129 = load %struct._ZSt6vectorIjSaIjEE*, %struct._ZSt6vectorIjSaIjEE** %_T38213328_19845.addr, align 8, !dbg !5070
	%130 = bitcast %struct._ZSt6vectorIjSaIjEE*  %129 to i8*, !dbg !5070
	%131 = bitcast %struct._ZSt6vectorIjSaIjEE** %..inline.addr.440 to i8**, !dbg !5070
	store i8*  %130, i8**  %131, align 8, !dbg !5070
	%132 = load %struct._ZSt6vectorIjSaIjEE*, %struct._ZSt6vectorIjSaIjEE** %..inline.addr.440, align 8, !dbg !5071
	%133 = bitcast %struct._ZSt6vectorIjSaIjEE*  %132 to i8*, !dbg !5071
	%134 = bitcast i32*** %..inline.addr.450 to i8**, !dbg !5071
	store i8*  %133, i8**  %134, align 8, !dbg !5071
	%135 = load i32**, i32*** %..inline.addr.450, align 8, !dbg !5071
	%136 = bitcast i32**  %135 to i8**, !dbg !5071
	%137 = load i8*, i8**  %136, align 8, !dbg !5071
	%138 = bitcast %struct._ZN9__gnu_cxx17__normal_iteratorIPjSt6vectorIjSaIjEEEE* %..inline.addr.460 to i8**, !dbg !5071
	store i8*  %137, i8**  %138, align 8, !dbg !5071
	%139 = bitcast %struct._ZN9__gnu_cxx17__normal_iteratorIPjSt6vectorIjSaIjEEEE* %..inline.addr.470 to i8**, !dbg !5071
	store i8*  %137, i8**  %139, align 8, !dbg !5071
	%140 = bitcast %struct._ZN9__gnu_cxx17__normal_iteratorIPjSt6vectorIjSaIjEEEE* %_T38215992_19845.addr to i8**, !dbg !5071
	store i8*  %137, i8**  %140, align 8, !dbg !5071
	%141 = bitcast %struct._ZN9__gnu_cxx17__normal_iteratorIPjSt6vectorIjSaIjEEEE* %__position.addr to i8*, !dbg !5072
	%142 = bitcast %struct._ZN9__gnu_cxx17__normal_iteratorIPjSt6vectorIjSaIjEEEE** %..inline.addr.490 to i8**, !dbg !5072
	store i8*  %141, i8**  %142, align 8, !dbg !5072
	%143 = bitcast %struct._ZN9__gnu_cxx17__normal_iteratorIPjSt6vectorIjSaIjEEEE* %_T38215992_19845.addr to i8*, !dbg !5072
	%144 = bitcast %struct._ZN9__gnu_cxx17__normal_iteratorIPjSt6vectorIjSaIjEEEE** %..inline.addr.500 to i8**, !dbg !5072
	store i8*  %143, i8**  %144, align 8, !dbg !5072
	%145 = load %struct._ZN9__gnu_cxx17__normal_iteratorIPjSt6vectorIjSaIjEEEE*, %struct._ZN9__gnu_cxx17__normal_iteratorIPjSt6vectorIjSaIjEEEE** %..inline.addr.490, align 8, !dbg !5072
	%146 = bitcast %struct._ZN9__gnu_cxx17__normal_iteratorIPjSt6vectorIjSaIjEEEE*  %145 to i8**, !dbg !5072
	%147 = load i8*, i8**  %146, align 8, !dbg !5072
	%148 = load %struct._ZN9__gnu_cxx17__normal_iteratorIPjSt6vectorIjSaIjEEEE*, %struct._ZN9__gnu_cxx17__normal_iteratorIPjSt6vectorIjSaIjEEEE** %..inline.addr.500, align 8, !dbg !5072
	%149 = bitcast %struct._ZN9__gnu_cxx17__normal_iteratorIPjSt6vectorIjSaIjEEEE*  %148 to i8**, !dbg !5072
	%150 = load i8*, i8**  %149, align 8, !dbg !5072
	%151 = ptrtoint i8*  %150 to i64, !dbg !5072
	%152 = sub i64 0,  %151, !dbg !5072
	%153 = getelementptr i8, i8*  %147, i64  %152, !dbg !5072
	%154 = ptrtoint i8*  %153 to i64, !dbg !5072
	%155 = sext i32 2 to i64, !dbg !5072
	%156 = ashr i64  %154,  %155, !dbg !5072
	store i64  %156, i64* %..inline.addr.510, align 8, !dbg !5072
	store i64  %156, i64* %..inline.addr.520, align 8, !dbg !5072
	call void @llvm.dbg.declare (metadata i64* %__elems_before.addr, metadata !5073, metadata !2783), !dbg !4788
	store i64  %156, i64* %__elems_before.addr, align 8, !dbg !5072
	%157 = load %struct._ZSt6vectorIjSaIjEE*, %struct._ZSt6vectorIjSaIjEE** %_T38213328_19845.addr, align 8, !dbg !5074
	%158 = bitcast %struct._ZSt6vectorIjSaIjEE*  %157 to i8*, !dbg !5074
	%159 = bitcast %struct._ZSt12_Vector_baseIjSaIjEE** %..inline.addr.540 to i8**, !dbg !5074
	store i8*  %158, i8**  %159, align 8, !dbg !5074
	%160 = load i64, i64* %__len.addr, align 8, !dbg !5074
	store i64  %160, i64* %..inline.addr.550, align 8, !dbg !5074
	%161 = icmp eq i64  %160, 0, !dbg !5074
	br i1  %161, label %L..inline.44750, label %L.B1987, !dbg !5074
L.B1987:
	%162 = load %struct._ZSt12_Vector_baseIjSaIjEE*, %struct._ZSt12_Vector_baseIjSaIjEE** %..inline.addr.540, align 8, !dbg !5075
	%163 = bitcast %struct._ZSt12_Vector_baseIjSaIjEE*  %162 to i8*, !dbg !5075
	%164 = bitcast %struct._ZSaIjE** %..inline.addr.560 to i8**, !dbg !5075
	store i8*  %163, i8**  %164, align 8, !dbg !5075
	%165 = load i64, i64* %..inline.addr.550, align 8, !dbg !5075
	store i64  %165, i64* %..inline.addr.570, align 8, !dbg !5075
	%166 = load %struct._ZSaIjE*, %struct._ZSaIjE** %..inline.addr.560, align 8, !dbg !5075
	%167 = bitcast %struct._ZSaIjE*  %166 to i8*, !dbg !5075
	%168 = bitcast %struct._ZN9__gnu_cxx13new_allocatorIjEE** %..inline.addr.580 to i8**, !dbg !5075
	store i8*  %167, i8**  %168, align 8, !dbg !5075
	store i64  %165, i64* %..inline.addr.590, align 8, !dbg !5075
	store i64 4611686018427387903, i64* %..inline.addr.600, align 8, !dbg !5075
	%169 = icmp ule i64  %165, 4611686018427387903, !dbg !5075
	br i1  %169, label %L..inline.44770, label %L.B1988, !dbg !5075
L.B1988:
	call void  @_ZSt17__throw_bad_allocv () noreturn, !dbg !5075
	br label %L..inline.44770
L..inline.44770:
	br label %L..inline.44774, !dbg !5075
L..inline.44774:
	%170 = load i64, i64* %..inline.addr.590, align 8, !dbg !5075
	%171 = mul i64  %170, 4, !dbg !5075
	%172 = call i8*  @_Znwm (i64  %171), !dbg !5075
	store i8*  %172, i8** %.Q0002.addr, align 8, !dbg !5075
	%173 = load i8*, i8** %.Q0002.addr, align 8, !dbg !5075
	%174 = bitcast i32** %..inline.addr.620 to i8**, !dbg !5075
	store i8*  %173, i8**  %174, align 8, !dbg !5075
	br label %L..inline.44775, !dbg !5075
L..inline.44750:
	%175 = bitcast i32** %..inline.addr.620 to i8**, !dbg !5075
	store i8* null, i8**  %175, align 8, !dbg !5075
	br label %L..inline.44775
L..inline.44775:
	%176 = load i32*, i32** %..inline.addr.620, align 8, !dbg !5076
	%177 = bitcast i32*  %176 to i8*, !dbg !5076
	call void @llvm.dbg.declare (metadata i32** %__new_start.addr, metadata !5077, metadata !2783), !dbg !4788
	%178 = bitcast i32** %__new_start.addr to i8**, !dbg !5076
	store i8*  %177, i8**  %178, align 8, !dbg !5076
	%179 = load i32*, i32** %__new_start.addr, align 8, !dbg !5078
	%180 = bitcast i32*  %179 to i8*, !dbg !5078
	call void @llvm.dbg.declare (metadata i32** %__new_finish.addr, metadata !5079, metadata !2783), !dbg !4788
	%181 = bitcast i32** %__new_finish.addr to i8**, !dbg !5078
	store i8*  %180, i8**  %181, align 8, !dbg !5078
	%182 = load i32*, i32** %__args.addr, align 8, !dbg !5080
	%183 = bitcast i32*  %182 to i8*, !dbg !5080
	%184 = bitcast i32** %..inline.addr.650 to i8**, !dbg !5080
	store i8*  %183, i8**  %184, align 8, !dbg !5080
	%185 = load i32*, i32** %..inline.addr.650, align 8, !dbg !5080
	%186 = bitcast i32*  %185 to i8*, !dbg !5080
	%187 = bitcast i32** %..inline.addr.660 to i8**, !dbg !5080
	store i8*  %186, i8**  %187, align 8, !dbg !5080
	%188 = load %struct._ZSt6vectorIjSaIjEE*, %struct._ZSt6vectorIjSaIjEE** %_T38213328_19845.addr, align 8, !dbg !5081
	%189 = bitcast %struct._ZSt6vectorIjSaIjEE*  %188 to i8*, !dbg !5081
	%190 = bitcast %struct._ZSaIjE** %..inline.addr.670 to i8**, !dbg !5081
	store i8*  %189, i8**  %190, align 8, !dbg !5081
	%191 = load i32*, i32** %__new_start.addr, align 8, !dbg !5080
	%192 = bitcast i32*  %191 to i8*, !dbg !5080
	%193 = load i64, i64* %__elems_before.addr, align 8, !dbg !5080
	%194 = mul i64  %193, 4, !dbg !5080
	%195 = getelementptr i8, i8*  %192, i64  %194, !dbg !5080
	%196 = bitcast i32** %..inline.addr.680 to i8**, !dbg !5080
	store i8*  %195, i8**  %196, align 8, !dbg !5080
	%197 = load i32*, i32** %..inline.addr.660, align 8, !dbg !5080
	%198 = bitcast i32*  %197 to i8*, !dbg !5080
	%199 = bitcast i32** %..inline.addr.690 to i8**, !dbg !5080
	store i8*  %198, i8**  %199, align 8, !dbg !5080
	%200 = load i32*, i32** %..inline.addr.690, align 8, !dbg !5082
	%201 = bitcast i32*  %200 to i8*, !dbg !5082
	%202 = bitcast i32** %..inline.addr.700 to i8**, !dbg !5082
	store i8*  %201, i8**  %202, align 8, !dbg !5082
	%203 = load i32*, i32** %..inline.addr.700, align 8, !dbg !5082
	%204 = bitcast i32*  %203 to i8*, !dbg !5082
	%205 = bitcast i32** %..inline.addr.710 to i8**, !dbg !5082
	store i8*  %204, i8**  %205, align 8, !dbg !5082
	%206 = load i32*, i32** %..inline.addr.680, align 8, !dbg !5082
	%207 = bitcast i32*  %206 to i8*, !dbg !5082
	%208 = bitcast i32** %..inline.addr.720 to i8**, !dbg !5082
	store i8*  %207, i8**  %208, align 8, !dbg !5082
	%209 = load i32*, i32** %..inline.addr.710, align 8, !dbg !5082
	%210 = bitcast i32*  %209 to i8*, !dbg !5082
	%211 = bitcast i32** %..inline.addr.730 to i8**, !dbg !5082
	store i8*  %210, i8**  %211, align 8, !dbg !5082
	store i64 4, i64* %..inline.addr.740, align 8, !dbg !5082
	%212 = load i32*, i32** %..inline.addr.720, align 8, !dbg !5082
	%213 = bitcast i32*  %212 to i8*, !dbg !5082
	store i8*  %213, i8** %..inline.addr.750, align 8, !dbg !5082
	store i8*  %213, i8** %..inline.addr.760, align 8, !dbg !5082
	store i8*  %213, i8** %..inline.addr.770, align 8, !dbg !5082
	%214 = bitcast i32** %..inline.addr.780 to i8**, !dbg !5082
	store i8*  %213, i8**  %214, align 8, !dbg !5082
	%215 = load i32*, i32** %..inline.addr.780, align 8, !dbg !5082
	%216 = bitcast i32*  %215 to i8*, !dbg !5082
	%217 = icmp eq i8*  %216,  null, !dbg !5082
	br i1  %217, label %L..inline.44814, label %L.B1989, !dbg !5082
L.B1989:
	%218 = load i32*, i32** %..inline.addr.730, align 8, !dbg !5082
	%219 = bitcast i32*  %218 to i8*, !dbg !5082
	%220 = bitcast i32** %..inline.addr.790 to i8**, !dbg !5082
	store i8*  %219, i8**  %220, align 8, !dbg !5082
	%221 = load i32*, i32** %..inline.addr.790, align 8, !dbg !5082
	%222 = bitcast i32*  %221 to i8*, !dbg !5082
	%223 = bitcast i32** %..inline.addr.800 to i8**, !dbg !5082
	store i8*  %222, i8**  %223, align 8, !dbg !5082
	%224 = load i32*, i32** %..inline.addr.800, align 8, !dbg !5082
	%225 = load i32, i32*  %224, align 4, !dbg !5082
	%226 = load i32*, i32** %..inline.addr.780, align 8, !dbg !5082
	store i32  %225, i32*  %226, align 4, !dbg !5082
	%227 = bitcast i32*  %226 to i8*, !dbg !5082
	%228 = bitcast i32** %..inline.addr.810 to i8**, !dbg !5082
	store i8*  %227, i8**  %228, align 8, !dbg !5082
	br label %L..inline.44823, !dbg !5082
L..inline.44814:
	%229 = bitcast i32** %..inline.addr.810 to i8**, !dbg !5082
	store i8* null, i8**  %229, align 8, !dbg !5082
	br label %L..inline.44823
L..inline.44823:
	%230 = bitcast i32** %__new_finish.addr to i8**, !dbg !5083
	store i8* null, i8**  %230, align 8, !dbg !5083
	%231 = load %struct._ZSt6vectorIjSaIjEE*, %struct._ZSt6vectorIjSaIjEE** %_T38213328_19845.addr, align 8, !dbg !5084
	%232 = bitcast %struct._ZSt6vectorIjSaIjEE*  %231 to i8*, !dbg !5084
	%233 = bitcast %struct._ZSt12_Vector_baseIjSaIjEE** %..inline.addr.820 to i8**, !dbg !5084
	store i8*  %232, i8**  %233, align 8, !dbg !5084
	%234 = load %struct._ZSt12_Vector_baseIjSaIjEE*, %struct._ZSt12_Vector_baseIjSaIjEE** %..inline.addr.820, align 8, !dbg !5085
	%235 = bitcast %struct._ZSt12_Vector_baseIjSaIjEE*  %234 to i8*, !dbg !5085
	%236 = bitcast %struct._ZSaIjE** %..inline.addr.830 to i8**, !dbg !5085
	store i8*  %235, i8**  %236, align 8, !dbg !5085
	%237 = load i32*, i32** %__old_start.addr, align 8, !dbg !5086
	%238 = bitcast i32*  %237 to i8*, !dbg !5086
	%239 = bitcast i32** %..inline.addr.840 to i8**, !dbg !5086
	store i8*  %238, i8**  %239, align 8, !dbg !5086
	%240 = bitcast %struct._ZN9__gnu_cxx17__normal_iteratorIPjSt6vectorIjSaIjEEEE* %__position.addr to i8**, !dbg !5085
	%241 = load i8*, i8**  %240, align 8, !dbg !5085
	%242 = bitcast i32** %..inline.addr.850 to i8**, !dbg !5085
	store i8*  %241, i8**  %242, align 8, !dbg !5085
	%243 = load i32*, i32** %__new_start.addr, align 8, !dbg !5085
	%244 = bitcast i32*  %243 to i8*, !dbg !5085
	%245 = bitcast i32** %..inline.addr.860 to i8**, !dbg !5085
	store i8*  %244, i8**  %245, align 8, !dbg !5085
	%246 = load %struct._ZSaIjE*, %struct._ZSaIjE** %..inline.addr.830, align 8, !dbg !5085
	%247 = bitcast %struct._ZSaIjE*  %246 to i8*, !dbg !5085
	%248 = bitcast %struct._ZSaIjE** %..inline.addr.870 to i8**, !dbg !5085
	store i8*  %247, i8**  %248, align 8, !dbg !5085
	%249 = bitcast %struct._ZSt17integral_constantIbLb1EE* %..inline.addr.880 to i8*, !dbg !5085
	store i8 0, i8*  %249, align 1, !dbg !5085
	%250 = load i32*, i32** %..inline.addr.840, align 8, !dbg !5087
	%251 = bitcast i32*  %250 to i8*, !dbg !5087
	%252 = bitcast i32** %..inline.addr.890 to i8**, !dbg !5087
	store i8*  %251, i8**  %252, align 8, !dbg !5087
	%253 = load i32*, i32** %..inline.addr.850, align 8, !dbg !5087
	%254 = bitcast i32*  %253 to i8*, !dbg !5087
	%255 = bitcast i32** %..inline.addr.900 to i8**, !dbg !5087
	store i8*  %254, i8**  %255, align 8, !dbg !5087
	%256 = load i32*, i32** %..inline.addr.860, align 8, !dbg !5087
	%257 = bitcast i32*  %256 to i8*, !dbg !5087
	%258 = bitcast i32** %..inline.addr.910 to i8**, !dbg !5087
	store i8*  %257, i8**  %258, align 8, !dbg !5087
	%259 = load %struct._ZSaIjE*, %struct._ZSaIjE** %..inline.addr.870, align 8, !dbg !5087
	%260 = bitcast %struct._ZSaIjE*  %259 to i8*, !dbg !5087
	%261 = bitcast %struct._ZSaIjE** %..inline.addr.920 to i8**, !dbg !5087
	store i8*  %260, i8**  %261, align 8, !dbg !5087
	%262 = zext i8 0 to i32, !dbg !5088
	%263 = trunc i32  %262 to i8, !dbg !5088
	%264 = bitcast %struct._ZSt17integral_constantIbLb1EE* %..inline.addr.930 to i8*, !dbg !5088
	store i8  %263, i8*  %264, align 1, !dbg !5088
	%265 = load i32*, i32** %..inline.addr.890, align 8, !dbg !5087
	%266 = bitcast i32*  %265 to i8*, !dbg !5087
	%267 = bitcast i32** %..inline.addr.940 to i8**, !dbg !5087
	store i8*  %266, i8**  %267, align 8, !dbg !5087
	%268 = load i32*, i32** %..inline.addr.900, align 8, !dbg !5087
	%269 = bitcast i32*  %268 to i8*, !dbg !5087
	%270 = bitcast i32** %..inline.addr.950 to i8**, !dbg !5087
	store i8*  %269, i8**  %270, align 8, !dbg !5087
	%271 = load i32*, i32** %..inline.addr.910, align 8, !dbg !5087
	%272 = bitcast i32*  %271 to i8*, !dbg !5087
	%273 = bitcast i32** %..inline.addr.960 to i8**, !dbg !5087
	store i8*  %272, i8**  %273, align 8, !dbg !5087
	%274 = load %struct._ZSaIjE*, %struct._ZSaIjE** %..inline.addr.920, align 8, !dbg !5087
	%275 = bitcast %struct._ZSaIjE*  %274 to i8*, !dbg !5087
	%276 = bitcast %struct._ZSaIjE** %..inline.addr.970 to i8**, !dbg !5087
	store i8*  %275, i8**  %276, align 8, !dbg !5087
	%277 = load i32*, i32** %..inline.addr.940, align 8, !dbg !5087
	%278 = bitcast i32*  %277 to i8*, !dbg !5087
	%279 = bitcast i32** %..inline.addr.980 to i8**, !dbg !5087
	store i8*  %278, i8**  %279, align 8, !dbg !5087
	%280 = load i32*, i32** %..inline.addr.980, align 8, !dbg !5087
	%281 = bitcast i32*  %280 to i8*, !dbg !5087
	%282 = bitcast i32** %..inline.addr.990 to i8**, !dbg !5087
	store i8*  %281, i8**  %282, align 8, !dbg !5087
	%283 = load i32*, i32** %..inline.addr.950, align 8, !dbg !5087
	%284 = bitcast i32*  %283 to i8*, !dbg !5087
	%285 = bitcast i32** %..inline.addr.1000 to i8**, !dbg !5087
	store i8*  %284, i8**  %285, align 8, !dbg !5087
	%286 = load i32*, i32** %..inline.addr.1000, align 8, !dbg !5087
	%287 = bitcast i32*  %286 to i8*, !dbg !5087
	%288 = bitcast i32** %..inline.addr.1010 to i8**, !dbg !5087
	store i8*  %287, i8**  %288, align 8, !dbg !5087
	%289 = load i32*, i32** %..inline.addr.960, align 8, !dbg !5087
	%290 = bitcast i32*  %289 to i8*, !dbg !5087
	%291 = bitcast i32** %..inline.addr.1020 to i8**, !dbg !5087
	store i8*  %290, i8**  %291, align 8, !dbg !5087
	%292 = load i32*, i32** %..inline.addr.1020, align 8, !dbg !5087
	%293 = bitcast i32*  %292 to i8*, !dbg !5087
	%294 = bitcast i32** %..inline.addr.1030 to i8**, !dbg !5087
	store i8*  %293, i8**  %294, align 8, !dbg !5087
	%295 = load i32*, i32** %..inline.addr.990, align 8, !dbg !5087
	%296 = bitcast i32*  %295 to i8*, !dbg !5087
	%297 = bitcast i32** %..inline.addr.1040 to i8**, !dbg !5087
	store i8*  %296, i8**  %297, align 8, !dbg !5087
	%298 = load i32*, i32** %..inline.addr.1010, align 8, !dbg !5087
	%299 = bitcast i32*  %298 to i8*, !dbg !5087
	%300 = bitcast i32** %..inline.addr.1050 to i8**, !dbg !5087
	store i8*  %299, i8**  %300, align 8, !dbg !5087
	%301 = load i32*, i32** %..inline.addr.1030, align 8, !dbg !5087
	%302 = bitcast i32*  %301 to i8*, !dbg !5087
	%303 = bitcast i32** %..inline.addr.1060 to i8**, !dbg !5087
	store i8*  %302, i8**  %303, align 8, !dbg !5087
	%304 = load i32*, i32** %..inline.addr.1050, align 8, !dbg !5087
	%305 = bitcast i32*  %304 to i8*, !dbg !5087
	%306 = load i32*, i32** %..inline.addr.1040, align 8, !dbg !5087
	%307 = bitcast i32*  %306 to i8*, !dbg !5087
	%308 = ptrtoint i8*  %307 to i64, !dbg !5087
	%309 = sub i64 0,  %308, !dbg !5087
	%310 = getelementptr i8, i8*  %305, i64  %309, !dbg !5087
	%311 = ptrtoint i8*  %310 to i64, !dbg !5087
	%312 = sext i32 2 to i64, !dbg !5087
	%313 = ashr i64  %311,  %312, !dbg !5087
	store i64  %313, i64* %..inline.addr.1070, align 8, !dbg !5087
	%314 = icmp sle i64  %313, 0, !dbg !5087
	br i1  %314, label %L..inline.44893, label %L.B1990, !dbg !5087
L.B1990:
	%315 = load i32*, i32** %..inline.addr.1060, align 8, !dbg !5087
	%316 = bitcast i32*  %315 to i8*, !dbg !5087
	%317 = load i32*, i32** %..inline.addr.1040, align 8, !dbg !5087
	%318 = bitcast i32*  %317 to i8*, !dbg !5087
	%319 = load i64, i64* %..inline.addr.1070, align 8, !dbg !5087
	%320 = mul i64  %319, 4, !dbg !5087
	%321 = call i8*  @memmove (i8*  %316, i8*  %318, i64  %320) nounwind, !dbg !5087
	br label %L..inline.44893
L..inline.44893:
	%322 = load i32*, i32** %..inline.addr.1060, align 8, !dbg !5087
	%323 = bitcast i32*  %322 to i8*, !dbg !5087
	%324 = load i64, i64* %..inline.addr.1070, align 8, !dbg !5087
	%325 = mul i64  %324, 4, !dbg !5087
	%326 = getelementptr i8, i8*  %323, i64  %325, !dbg !5087
	%327 = bitcast i32** %..inline.addr.1080 to i8**, !dbg !5087
	store i8*  %326, i8**  %327, align 8, !dbg !5087
	%328 = load i32*, i32** %..inline.addr.1080, align 8, !dbg !5087
	%329 = bitcast i32*  %328 to i8*, !dbg !5087
	%330 = bitcast i32** %..inline.addr.1090 to i8**, !dbg !5087
	store i8*  %329, i8**  %330, align 8, !dbg !5087
	%331 = load i32*, i32** %..inline.addr.1090, align 8, !dbg !5087
	%332 = bitcast i32*  %331 to i8*, !dbg !5087
	%333 = bitcast i32** %..inline.addr.1100 to i8**, !dbg !5087
	store i8*  %332, i8**  %333, align 8, !dbg !5087
	%334 = load i32*, i32** %..inline.addr.1100, align 8, !dbg !5087
	%335 = bitcast i32*  %334 to i8*, !dbg !5087
	%336 = bitcast i32** %..inline.addr.1110 to i8**, !dbg !5087
	store i8*  %335, i8**  %336, align 8, !dbg !5087
	%337 = load i32*, i32** %..inline.addr.1110, align 8, !dbg !5089
	%338 = bitcast i32*  %337 to i8*, !dbg !5089
	%339 = bitcast i32** %__new_finish.addr to i8**, !dbg !5089
	store i8*  %338, i8**  %339, align 8, !dbg !5089
	%340 = load i32*, i32** %__new_finish.addr, align 8, !dbg !5090
	%341 = bitcast i32*  %340 to i8*, !dbg !5090
	%342 = getelementptr i8, i8*  %341, i64 4, !dbg !5090
	store i8*  %342, i8**  %339, align 8, !dbg !5090
	%343 = load %struct._ZSt6vectorIjSaIjEE*, %struct._ZSt6vectorIjSaIjEE** %_T38213328_19845.addr, align 8, !dbg !5084
	%344 = bitcast %struct._ZSt6vectorIjSaIjEE*  %343 to i8*, !dbg !5084
	%345 = bitcast %struct._ZSt12_Vector_baseIjSaIjEE** %..inline.addr.1120 to i8**, !dbg !5084
	store i8*  %344, i8**  %345, align 8, !dbg !5084
	%346 = load %struct._ZSt12_Vector_baseIjSaIjEE*, %struct._ZSt12_Vector_baseIjSaIjEE** %..inline.addr.1120, align 8, !dbg !5087
	%347 = bitcast %struct._ZSt12_Vector_baseIjSaIjEE*  %346 to i8*, !dbg !5087
	%348 = bitcast %struct._ZSaIjE** %..inline.addr.1130 to i8**, !dbg !5087
	store i8*  %347, i8**  %348, align 8, !dbg !5087
	%349 = bitcast %struct._ZN9__gnu_cxx17__normal_iteratorIPjSt6vectorIjSaIjEEEE* %__position.addr to i8**, !dbg !5086
	%350 = load i8*, i8**  %349, align 8, !dbg !5086
	%351 = bitcast i32** %..inline.addr.1140 to i8**, !dbg !5086
	store i8*  %350, i8**  %351, align 8, !dbg !5086
	%352 = load i32*, i32** %__old_finish.addr, align 8, !dbg !5087
	%353 = bitcast i32*  %352 to i8*, !dbg !5087
	%354 = bitcast i32** %..inline.addr.1150 to i8**, !dbg !5087
	store i8*  %353, i8**  %354, align 8, !dbg !5087
	%355 = load i32*, i32** %__new_finish.addr, align 8, !dbg !5087
	%356 = bitcast i32*  %355 to i8*, !dbg !5087
	%357 = bitcast i32** %..inline.addr.1160 to i8**, !dbg !5087
	store i8*  %356, i8**  %357, align 8, !dbg !5087
	%358 = load %struct._ZSaIjE*, %struct._ZSaIjE** %..inline.addr.1130, align 8, !dbg !5087
	%359 = bitcast %struct._ZSaIjE*  %358 to i8*, !dbg !5087
	%360 = bitcast %struct._ZSaIjE** %..inline.addr.1170 to i8**, !dbg !5087
	store i8*  %359, i8**  %360, align 8, !dbg !5087
	%361 = bitcast %struct._ZSt17integral_constantIbLb1EE* %..inline.addr.1180 to i8*, !dbg !5087
	store i8 0, i8*  %361, align 1, !dbg !5087
	%362 = load i32*, i32** %..inline.addr.1140, align 8, !dbg !5087
	%363 = bitcast i32*  %362 to i8*, !dbg !5087
	%364 = bitcast i32** %..inline.addr.1190 to i8**, !dbg !5087
	store i8*  %363, i8**  %364, align 8, !dbg !5087
	%365 = load i32*, i32** %..inline.addr.1150, align 8, !dbg !5087
	%366 = bitcast i32*  %365 to i8*, !dbg !5087
	%367 = bitcast i32** %..inline.addr.1200 to i8**, !dbg !5087
	store i8*  %366, i8**  %367, align 8, !dbg !5087
	%368 = load i32*, i32** %..inline.addr.1160, align 8, !dbg !5087
	%369 = bitcast i32*  %368 to i8*, !dbg !5087
	%370 = bitcast i32** %..inline.addr.1210 to i8**, !dbg !5087
	store i8*  %369, i8**  %370, align 8, !dbg !5087
	%371 = load %struct._ZSaIjE*, %struct._ZSaIjE** %..inline.addr.1170, align 8, !dbg !5087
	%372 = bitcast %struct._ZSaIjE*  %371 to i8*, !dbg !5087
	%373 = bitcast %struct._ZSaIjE** %..inline.addr.1220 to i8**, !dbg !5087
	store i8*  %372, i8**  %373, align 8, !dbg !5087
	%374 = zext i8 0 to i32, !dbg !5088
	%375 = trunc i32  %374 to i8, !dbg !5088
	%376 = bitcast %struct._ZSt17integral_constantIbLb1EE* %..inline.addr.1230 to i8*, !dbg !5088
	store i8  %375, i8*  %376, align 1, !dbg !5088
	%377 = load i32*, i32** %..inline.addr.1190, align 8, !dbg !5087
	%378 = bitcast i32*  %377 to i8*, !dbg !5087
	%379 = bitcast i32** %..inline.addr.1240 to i8**, !dbg !5087
	store i8*  %378, i8**  %379, align 8, !dbg !5087
	%380 = load i32*, i32** %..inline.addr.1200, align 8, !dbg !5087
	%381 = bitcast i32*  %380 to i8*, !dbg !5087
	%382 = bitcast i32** %..inline.addr.1250 to i8**, !dbg !5087
	store i8*  %381, i8**  %382, align 8, !dbg !5087
	%383 = load i32*, i32** %..inline.addr.1210, align 8, !dbg !5087
	%384 = bitcast i32*  %383 to i8*, !dbg !5087
	%385 = bitcast i32** %..inline.addr.1260 to i8**, !dbg !5087
	store i8*  %384, i8**  %385, align 8, !dbg !5087
	%386 = load %struct._ZSaIjE*, %struct._ZSaIjE** %..inline.addr.1220, align 8, !dbg !5087
	%387 = bitcast %struct._ZSaIjE*  %386 to i8*, !dbg !5087
	%388 = bitcast %struct._ZSaIjE** %..inline.addr.1270 to i8**, !dbg !5087
	store i8*  %387, i8**  %388, align 8, !dbg !5087
	%389 = load i32*, i32** %..inline.addr.1240, align 8, !dbg !5087
	%390 = bitcast i32*  %389 to i8*, !dbg !5087
	%391 = bitcast i32** %..inline.addr.1280 to i8**, !dbg !5087
	store i8*  %390, i8**  %391, align 8, !dbg !5087
	%392 = load i32*, i32** %..inline.addr.1280, align 8, !dbg !5087
	%393 = bitcast i32*  %392 to i8*, !dbg !5087
	%394 = bitcast i32** %..inline.addr.1290 to i8**, !dbg !5087
	store i8*  %393, i8**  %394, align 8, !dbg !5087
	%395 = load i32*, i32** %..inline.addr.1250, align 8, !dbg !5087
	%396 = bitcast i32*  %395 to i8*, !dbg !5087
	%397 = bitcast i32** %..inline.addr.1300 to i8**, !dbg !5087
	store i8*  %396, i8**  %397, align 8, !dbg !5087
	%398 = load i32*, i32** %..inline.addr.1300, align 8, !dbg !5087
	%399 = bitcast i32*  %398 to i8*, !dbg !5087
	%400 = bitcast i32** %..inline.addr.1310 to i8**, !dbg !5087
	store i8*  %399, i8**  %400, align 8, !dbg !5087
	%401 = load i32*, i32** %..inline.addr.1260, align 8, !dbg !5087
	%402 = bitcast i32*  %401 to i8*, !dbg !5087
	%403 = bitcast i32** %..inline.addr.1320 to i8**, !dbg !5087
	store i8*  %402, i8**  %403, align 8, !dbg !5087
	%404 = load i32*, i32** %..inline.addr.1320, align 8, !dbg !5087
	%405 = bitcast i32*  %404 to i8*, !dbg !5087
	%406 = bitcast i32** %..inline.addr.1330 to i8**, !dbg !5087
	store i8*  %405, i8**  %406, align 8, !dbg !5087
	%407 = load i32*, i32** %..inline.addr.1290, align 8, !dbg !5087
	%408 = bitcast i32*  %407 to i8*, !dbg !5087
	%409 = bitcast i32** %..inline.addr.1340 to i8**, !dbg !5087
	store i8*  %408, i8**  %409, align 8, !dbg !5087
	%410 = load i32*, i32** %..inline.addr.1310, align 8, !dbg !5087
	%411 = bitcast i32*  %410 to i8*, !dbg !5087
	%412 = bitcast i32** %..inline.addr.1350 to i8**, !dbg !5087
	store i8*  %411, i8**  %412, align 8, !dbg !5087
	%413 = load i32*, i32** %..inline.addr.1330, align 8, !dbg !5087
	%414 = bitcast i32*  %413 to i8*, !dbg !5087
	%415 = bitcast i32** %..inline.addr.1360 to i8**, !dbg !5087
	store i8*  %414, i8**  %415, align 8, !dbg !5087
	%416 = load i32*, i32** %..inline.addr.1350, align 8, !dbg !5087
	%417 = bitcast i32*  %416 to i8*, !dbg !5087
	%418 = load i32*, i32** %..inline.addr.1340, align 8, !dbg !5087
	%419 = bitcast i32*  %418 to i8*, !dbg !5087
	%420 = ptrtoint i8*  %419 to i64, !dbg !5087
	%421 = sub i64 0,  %420, !dbg !5087
	%422 = getelementptr i8, i8*  %417, i64  %421, !dbg !5087
	%423 = ptrtoint i8*  %422 to i64, !dbg !5087
	%424 = sext i32 2 to i64, !dbg !5087
	%425 = ashr i64  %423,  %424, !dbg !5087
	store i64  %425, i64* %..inline.addr.1370, align 8, !dbg !5087
	%426 = icmp sle i64  %425, 0, !dbg !5087
	br i1  %426, label %L..inline.44971, label %L.B1991, !dbg !5087
L.B1991:
	%427 = load i32*, i32** %..inline.addr.1360, align 8, !dbg !5087
	%428 = bitcast i32*  %427 to i8*, !dbg !5087
	%429 = load i32*, i32** %..inline.addr.1340, align 8, !dbg !5087
	%430 = bitcast i32*  %429 to i8*, !dbg !5087
	%431 = load i64, i64* %..inline.addr.1370, align 8, !dbg !5087
	%432 = mul i64  %431, 4, !dbg !5087
	%433 = call i8*  @memmove (i8*  %428, i8*  %430, i64  %432) nounwind, !dbg !5087
	br label %L..inline.44971
L..inline.44971:
	%434 = load i32*, i32** %..inline.addr.1360, align 8, !dbg !5087
	%435 = bitcast i32*  %434 to i8*, !dbg !5087
	%436 = load i64, i64* %..inline.addr.1370, align 8, !dbg !5087
	%437 = mul i64  %436, 4, !dbg !5087
	%438 = getelementptr i8, i8*  %435, i64  %437, !dbg !5087
	%439 = bitcast i32** %..inline.addr.1380 to i8**, !dbg !5087
	store i8*  %438, i8**  %439, align 8, !dbg !5087
	%440 = load i32*, i32** %..inline.addr.1380, align 8, !dbg !5087
	%441 = bitcast i32*  %440 to i8*, !dbg !5087
	%442 = bitcast i32** %..inline.addr.1390 to i8**, !dbg !5087
	store i8*  %441, i8**  %442, align 8, !dbg !5087
	%443 = load i32*, i32** %..inline.addr.1390, align 8, !dbg !5087
	%444 = bitcast i32*  %443 to i8*, !dbg !5087
	%445 = bitcast i32** %..inline.addr.1400 to i8**, !dbg !5087
	store i8*  %444, i8**  %445, align 8, !dbg !5087
	%446 = load i32*, i32** %..inline.addr.1400, align 8, !dbg !5087
	%447 = bitcast i32*  %446 to i8*, !dbg !5087
	%448 = bitcast i32** %..inline.addr.1410 to i8**, !dbg !5087
	store i8*  %447, i8**  %448, align 8, !dbg !5087
	%449 = load i32*, i32** %..inline.addr.1410, align 8, !dbg !5089
	%450 = bitcast i32*  %449 to i8*, !dbg !5089
	%451 = bitcast i32** %__new_finish.addr to i8**, !dbg !5089
	store i8*  %450, i8**  %451, align 8, !dbg !5089
	br label %L.B0043, !dbg !5091
L.B1992:
	%452 = load %struct._ZSt6vectorIjSaIjEE*, %struct._ZSt6vectorIjSaIjEE** %_T38213328_19845.addr, align 8, !dbg !5084
	%453 = bitcast %struct._ZSt6vectorIjSaIjEE*  %452 to i8*, !dbg !5084
	%454 = bitcast %struct._ZSt12_Vector_baseIjSaIjEE** %..inline.addr.1420 to i8**, !dbg !5084
	store i8*  %453, i8**  %454, align 8, !dbg !5084
	%455 = load %struct._ZSt12_Vector_baseIjSaIjEE*, %struct._ZSt12_Vector_baseIjSaIjEE** %..inline.addr.1420, align 8, !dbg !5092
	%456 = bitcast %struct._ZSt12_Vector_baseIjSaIjEE*  %455 to i8*, !dbg !5092
	%457 = bitcast %struct._ZSaIjE** %..inline.addr.1430 to i8**, !dbg !5092
	store i8*  %456, i8**  %457, align 8, !dbg !5092
	%458 = load i32*, i32** %__old_start.addr, align 8, !dbg !5086
	%459 = bitcast %struct._ZN9__gnu_cxx17__normal_iteratorIPjSt6vectorIjSaIjEEEE* %__position.addr to i8**, !dbg !5086
	%460 = load i8*, i8**  %459, align 8, !dbg !5086
	%461 = bitcast i8*  %460 to i32*, !dbg !5086
	%462 = load i32*, i32** %__new_start.addr, align 8, !dbg !5086
	%463 = load %struct._ZSaIjE*, %struct._ZSaIjE** %..inline.addr.1430, align 8, !dbg !5086
	%464 = call i32*  @_ZSt34__uninitialized_move_if_noexcept_aIPjS0_SaIjEET0_T_S3_S2_RT1_ (i32*  %458, i32*  %461, i32*  %462, %struct._ZSaIjE*  %463) nounwind, !dbg !5086
	%465 = bitcast i32*  %464 to i8*, !dbg !5086
	%466 = bitcast i32** %__new_finish.addr to i8**, !dbg !5086
	store i8*  %465, i8**  %466, align 8, !dbg !5086
	%467 = load i32*, i32** %__new_finish.addr, align 8, !dbg !5093
	%468 = bitcast i32*  %467 to i8*, !dbg !5093
	%469 = getelementptr i8, i8*  %468, i64 4, !dbg !5093
	store i8*  %469, i8**  %466, align 8, !dbg !5093
	%470 = load %struct._ZSt6vectorIjSaIjEE*, %struct._ZSt6vectorIjSaIjEE** %_T38213328_19845.addr, align 8, !dbg !5084
	%471 = bitcast %struct._ZSt6vectorIjSaIjEE*  %470 to i8*, !dbg !5084
	%472 = bitcast %struct._ZSt12_Vector_baseIjSaIjEE** %..inline.addr.1440 to i8**, !dbg !5084
	store i8*  %471, i8**  %472, align 8, !dbg !5084
	%473 = load %struct._ZSt12_Vector_baseIjSaIjEE*, %struct._ZSt12_Vector_baseIjSaIjEE** %..inline.addr.1440, align 8, !dbg !5094
	%474 = bitcast %struct._ZSt12_Vector_baseIjSaIjEE*  %473 to i8*, !dbg !5094
	%475 = bitcast %struct._ZSaIjE** %..inline.addr.1450 to i8**, !dbg !5094
	store i8*  %474, i8**  %475, align 8, !dbg !5094
	%476 = load i8*, i8**  %459, align 8, !dbg !5086
	%477 = bitcast i8*  %476 to i32*, !dbg !5086
	%478 = load i32*, i32** %__old_finish.addr, align 8, !dbg !5086
	%479 = load i32*, i32** %__new_finish.addr, align 8, !dbg !5086
	%480 = load %struct._ZSaIjE*, %struct._ZSaIjE** %..inline.addr.1450, align 8, !dbg !5086
	%481 = call i32*  @_ZSt34__uninitialized_move_if_noexcept_aIPjS0_SaIjEET0_T_S3_S2_RT1_ (i32*  %477, i32*  %478, i32*  %479, %struct._ZSaIjE*  %480) nounwind, !dbg !5086
	%482 = bitcast i32*  %481 to i8*, !dbg !5086
	store i8*  %482, i8**  %466, align 8, !dbg !5086
	br label %L.B0043
L.B0043:
	br label %L_T38217120_19845
L_T38217120_19845:
	br label %L.B0044, !dbg !5095
L.B1993:
	%483 = load %struct._ZSt6vectorIjSaIjEE*, %struct._ZSt6vectorIjSaIjEE** %_T38213328_19845.addr, align 8, !dbg !5096
	%484 = bitcast %struct._ZSt6vectorIjSaIjEE*  %483 to i8*, !dbg !5096
	%485 = bitcast %struct._ZSt12_Vector_baseIjSaIjEE** %..inline.addr.1460 to i8**, !dbg !5096
	store i8*  %484, i8**  %485, align 8, !dbg !5096
	%486 = load %struct._ZSt12_Vector_baseIjSaIjEE*, %struct._ZSt12_Vector_baseIjSaIjEE** %..inline.addr.1460, align 8, !dbg !5096
	%487 = bitcast %struct._ZSt12_Vector_baseIjSaIjEE*  %486 to i8*, !dbg !5096
	%488 = bitcast %struct._ZSaIjE** %..inline.addr.1470 to i8**, !dbg !5096
	store i8*  %487, i8**  %488, align 8, !dbg !5096
	%489 = load i32*, i32** %__old_start.addr, align 8, !dbg !5086
	%490 = bitcast i32*  %489 to i8*, !dbg !5086
	%491 = bitcast i32** %..inline.addr.1480 to i8**, !dbg !5086
	store i8*  %490, i8**  %491, align 8, !dbg !5086
	%492 = load i32*, i32** %__old_finish.addr, align 8, !dbg !5096
	%493 = bitcast i32*  %492 to i8*, !dbg !5096
	%494 = bitcast i32** %..inline.addr.1490 to i8**, !dbg !5096
	store i8*  %493, i8**  %494, align 8, !dbg !5096
	%495 = load i32*, i32** %..inline.addr.1480, align 8, !dbg !5097
	%496 = bitcast i32*  %495 to i8*, !dbg !5097
	%497 = bitcast i32** %..inline.addr.1500 to i8**, !dbg !5097
	store i8*  %496, i8**  %497, align 8, !dbg !5097
	%498 = load i32*, i32** %..inline.addr.1490, align 8, !dbg !5097
	%499 = bitcast i32*  %498 to i8*, !dbg !5097
	%500 = bitcast i32** %..inline.addr.1510 to i8**, !dbg !5097
	store i8*  %499, i8**  %500, align 8, !dbg !5097
	br label %L.B0044
L.B0044:
	%501 = load %struct._ZSt6vectorIjSaIjEE*, %struct._ZSt6vectorIjSaIjEE** %_T38213328_19845.addr, align 8, !dbg !5098
	%502 = bitcast %struct._ZSt6vectorIjSaIjEE*  %501 to i8*, !dbg !5098
	%503 = bitcast %struct._ZSt12_Vector_baseIjSaIjEE** %..inline.addr.1520 to i8**, !dbg !5098
	store i8*  %502, i8**  %503, align 8, !dbg !5098
	%504 = load i32*, i32** %__old_start.addr, align 8, !dbg !5098
	%505 = bitcast i32*  %504 to i8*, !dbg !5098
	%506 = bitcast i32** %..inline.addr.1530 to i8**, !dbg !5098
	store i8*  %505, i8**  %506, align 8, !dbg !5098
	%507 = getelementptr i8, i8*  %502, i64 16, !dbg !5098
	%508 = bitcast i8*  %507 to i8**, !dbg !5098
	%509 = load i8*, i8**  %508, align 8, !dbg !5098
	%510 = ptrtoint i8*  %505 to i64, !dbg !5098
	%511 = sub i64 0,  %510, !dbg !5098
	%512 = getelementptr i8, i8*  %509, i64  %511, !dbg !5098
	%513 = ptrtoint i8*  %512 to i64, !dbg !5098
	%514 = sext i32 2 to i64, !dbg !5098
	%515 = ashr i64  %513,  %514, !dbg !5098
	store i64  %515, i64* %..inline.addr.1540, align 8, !dbg !5098
	%516 = load i32*, i32** %..inline.addr.1530, align 8, !dbg !5098
	%517 = bitcast i32*  %516 to i8*, !dbg !5098
	%518 = icmp eq i8*  %517,  null, !dbg !5098
	br i1  %518, label %L..inline.45039, label %L.B1994, !dbg !5098
L.B1994:
	%519 = load %struct._ZSt12_Vector_baseIjSaIjEE*, %struct._ZSt12_Vector_baseIjSaIjEE** %..inline.addr.1520, align 8, !dbg !5099
	%520 = bitcast %struct._ZSt12_Vector_baseIjSaIjEE*  %519 to i8*, !dbg !5099
	%521 = bitcast %struct._ZSaIjE** %..inline.addr.1550 to i8**, !dbg !5099
	store i8*  %520, i8**  %521, align 8, !dbg !5099
	%522 = load i32*, i32** %..inline.addr.1530, align 8, !dbg !5099
	%523 = bitcast i32*  %522 to i8*, !dbg !5099
	%524 = bitcast i32** %..inline.addr.1560 to i8**, !dbg !5099
	store i8*  %523, i8**  %524, align 8, !dbg !5099
	%525 = load i64, i64* %..inline.addr.1540, align 8, !dbg !5099
	store i64  %525, i64* %..inline.addr.1570, align 8, !dbg !5099
	%526 = load i32*, i32** %..inline.addr.1560, align 8, !dbg !5099
	%527 = bitcast i32*  %526 to i8*, !dbg !5099
	%528 = bitcast i32** %..inline.addr.1580 to i8**, !dbg !5099
	store i8*  %527, i8**  %528, align 8, !dbg !5099
	%529 = load i32*, i32** %..inline.addr.1580, align 8, !dbg !5099
	%530 = bitcast i32*  %529 to i8*, !dbg !5099
	call void  @_ZdlPv (i8*  %530) nounwind, !dbg !5099
	br label %L..inline.45039
L..inline.45039:
	%531 = load i32*, i32** %__new_start.addr, align 8, !dbg !5100
	%532 = bitcast i32*  %531 to i8*, !dbg !5100
	%533 = load %struct._ZSt6vectorIjSaIjEE*, %struct._ZSt6vectorIjSaIjEE** %_T38213328_19845.addr, align 8, !dbg !5100
	%534 = bitcast %struct._ZSt6vectorIjSaIjEE*  %533 to i8**, !dbg !5100
	store i8*  %532, i8**  %534, align 8, !dbg !5100
	%535 = load i32*, i32** %__new_finish.addr, align 8, !dbg !5101
	%536 = bitcast i32*  %535 to i8*, !dbg !5101
	%537 = bitcast %struct._ZSt6vectorIjSaIjEE*  %533 to i8*, !dbg !5101
	%538 = getelementptr i8, i8*  %537, i64 8, !dbg !5101
	%539 = bitcast i8*  %538 to i8**, !dbg !5101
	store i8*  %536, i8**  %539, align 8, !dbg !5101
	%540 = load i64, i64* %__len.addr, align 8, !dbg !5102
	%541 = mul i64  %540, 4, !dbg !5102
	%542 = getelementptr i8, i8*  %532, i64  %541, !dbg !5102
	%543 = getelementptr i8, i8*  %537, i64 16, !dbg !5102
	%544 = bitcast i8*  %543 to i8**, !dbg !5102
	store i8*  %542, i8**  %544, align 8, !dbg !5102
	br label %L.R0040, !dbg !5102
L_T38216880_19845:
	%545 = landingpad %astruct.dt64
	catch i8*  null 
	%546 = extractvalue %astruct.dt64  %545, 0, !dbg !5102
	store i8*  %546, i8** %__caught_object_address.addr, align 1, !dbg !5102
	%547 = extractvalue %astruct.dt64  %545, 1, !dbg !5102
	store i32  %547, i32* %__catch_clause_number.addr, align 1, !dbg !5102
	%548 = load i8*, i8** %__caught_object_address.addr, align 8, !dbg !5103
	%549 = call i8*  @__cxa_begin_catch (i8*  %548) nounwind, !dbg !5103
	%550 = load i32*, i32** %__new_finish.addr, align 8, !dbg !5104
	%551 = bitcast i32*  %550 to i8*, !dbg !5104
	%552 = icmp ne i8*  %551,  null, !dbg !5104
	br i1  %552, label %L.B0046, label %L.B1995, !dbg !5104
L.B1995:
	%553 = load %struct._ZSt6vectorIjSaIjEE*, %struct._ZSt6vectorIjSaIjEE** %_T38213328_19845.addr, align 8, !dbg !5105
	%554 = bitcast %struct._ZSt6vectorIjSaIjEE*  %553 to i8*, !dbg !5105
	%555 = bitcast %struct._ZSaIjE** %..inline.addr.1610 to i8**, !dbg !5105
	store i8*  %554, i8**  %555, align 8, !dbg !5105
	%556 = load i32*, i32** %__new_start.addr, align 8, !dbg !5105
	%557 = bitcast i32*  %556 to i8*, !dbg !5105
	%558 = load i64, i64* %__elems_before.addr, align 8, !dbg !5105
	%559 = mul i64  %558, 4, !dbg !5105
	%560 = getelementptr i8, i8*  %557, i64  %559, !dbg !5105
	%561 = bitcast i32** %..inline.addr.1620 to i8**, !dbg !5105
	store i8*  %560, i8**  %561, align 8, !dbg !5105
	br label %L.B0047, !dbg !5105
L.B0046:
	%562 = load %struct._ZSt6vectorIjSaIjEE*, %struct._ZSt6vectorIjSaIjEE** %_T38213328_19845.addr, align 8, !dbg !5106
	%563 = bitcast %struct._ZSt6vectorIjSaIjEE*  %562 to i8*, !dbg !5106
	%564 = bitcast %struct._ZSt12_Vector_baseIjSaIjEE** %..inline.addr.1630 to i8**, !dbg !5106
	store i8*  %563, i8**  %564, align 8, !dbg !5106
	%565 = load %struct._ZSt12_Vector_baseIjSaIjEE*, %struct._ZSt12_Vector_baseIjSaIjEE** %..inline.addr.1630, align 8, !dbg !5106
	%566 = bitcast %struct._ZSt12_Vector_baseIjSaIjEE*  %565 to i8*, !dbg !5106
	%567 = bitcast %struct._ZSaIjE** %..inline.addr.1640 to i8**, !dbg !5106
	store i8*  %566, i8**  %567, align 8, !dbg !5106
	%568 = load i32*, i32** %__new_start.addr, align 8, !dbg !5086
	%569 = bitcast i32*  %568 to i8*, !dbg !5086
	%570 = bitcast i32** %..inline.addr.1650 to i8**, !dbg !5086
	store i8*  %569, i8**  %570, align 8, !dbg !5086
	%571 = load i32*, i32** %__new_finish.addr, align 8, !dbg !5106
	%572 = bitcast i32*  %571 to i8*, !dbg !5106
	%573 = bitcast i32** %..inline.addr.1660 to i8**, !dbg !5106
	store i8*  %572, i8**  %573, align 8, !dbg !5106
	%574 = load i32*, i32** %..inline.addr.1650, align 8, !dbg !5097
	%575 = bitcast i32*  %574 to i8*, !dbg !5097
	%576 = bitcast i32** %..inline.addr.1670 to i8**, !dbg !5097
	store i8*  %575, i8**  %576, align 8, !dbg !5097
	%577 = load i32*, i32** %..inline.addr.1660, align 8, !dbg !5097
	%578 = bitcast i32*  %577 to i8*, !dbg !5097
	%579 = bitcast i32** %..inline.addr.1680 to i8**, !dbg !5097
	store i8*  %578, i8**  %579, align 8, !dbg !5097
	br label %L.B0047
L.B0047:
	%580 = load %struct._ZSt6vectorIjSaIjEE*, %struct._ZSt6vectorIjSaIjEE** %_T38213328_19845.addr, align 8, !dbg !5107
	%581 = bitcast %struct._ZSt6vectorIjSaIjEE*  %580 to i8*, !dbg !5107
	%582 = bitcast %struct._ZSt12_Vector_baseIjSaIjEE** %..inline.addr.1690 to i8**, !dbg !5107
	store i8*  %581, i8**  %582, align 8, !dbg !5107
	%583 = load i32*, i32** %__new_start.addr, align 8, !dbg !5107
	%584 = bitcast i32*  %583 to i8*, !dbg !5107
	%585 = bitcast i32** %..inline.addr.1700 to i8**, !dbg !5107
	store i8*  %584, i8**  %585, align 8, !dbg !5107
	%586 = load i64, i64* %__len.addr, align 8, !dbg !5107
	store i64  %586, i64* %..inline.addr.1710, align 8, !dbg !5107
	%587 = load i32*, i32** %..inline.addr.1700, align 8, !dbg !5107
	%588 = bitcast i32*  %587 to i8*, !dbg !5107
	%589 = icmp eq i8*  %588,  null, !dbg !5107
	br i1  %589, label %L..inline.45099, label %L.B1996, !dbg !5107
L.B1996:
	%590 = load %struct._ZSt12_Vector_baseIjSaIjEE*, %struct._ZSt12_Vector_baseIjSaIjEE** %..inline.addr.1690, align 8, !dbg !5099
	%591 = bitcast %struct._ZSt12_Vector_baseIjSaIjEE*  %590 to i8*, !dbg !5099
	%592 = bitcast %struct._ZSaIjE** %..inline.addr.1720 to i8**, !dbg !5099
	store i8*  %591, i8**  %592, align 8, !dbg !5099
	%593 = load i32*, i32** %..inline.addr.1700, align 8, !dbg !5099
	%594 = bitcast i32*  %593 to i8*, !dbg !5099
	%595 = bitcast i32** %..inline.addr.1730 to i8**, !dbg !5099
	store i8*  %594, i8**  %595, align 8, !dbg !5099
	%596 = load i64, i64* %..inline.addr.1710, align 8, !dbg !5099
	store i64  %596, i64* %..inline.addr.1740, align 8, !dbg !5099
	%597 = load i32*, i32** %..inline.addr.1730, align 8, !dbg !5099
	%598 = bitcast i32*  %597 to i8*, !dbg !5099
	%599 = bitcast i32** %..inline.addr.1750 to i8**, !dbg !5099
	store i8*  %598, i8**  %599, align 8, !dbg !5099
	%600 = load i32*, i32** %..inline.addr.1750, align 8, !dbg !5099
	%601 = bitcast i32*  %600 to i8*, !dbg !5099
	call void  @_ZdlPv (i8*  %601) nounwind, !dbg !5099
	br label %L..inline.45099
L..inline.45099:
	invoke void  @__cxa_rethrow () noreturn
		to label %L.B1997
		unwind label %L_T38217240_19845, !dbg !5108
L.B1997:
	br label %L_T38217120_19845, !dbg !5108
L_T38217240_19845:
	%602 = landingpad %astruct.dt64
	cleanup
	%603 = extractvalue %astruct.dt64  %602, 0, !dbg !5109
	store i8*  %603, i8** %__caught_object_address.addr, align 1, !dbg !5109
	%604 = extractvalue %astruct.dt64  %602, 1, !dbg !5109
	store i32  %604, i32* %__catch_clause_number.addr, align 1, !dbg !5109
	call void  @__cxa_end_catch () nounwind, !dbg !5109
	%605 = load i32, i32* %__catch_clause_number.addr, align 4, !dbg !5109
	%606 = load i8*, i8** %__caught_object_address.addr, align 8, !dbg !5109
	%607 = insertvalue %astruct.dt64 undef, i8*  %606, 0, !dbg !5109
	%608 = insertvalue %astruct.dt64  %607, i32  %605, 1, !dbg !5109
	resume %astruct.dt64  %608 , !dbg !5109
L.R0040:
	ret void, !dbg !5088
}
define linkonce_odr void @_ZNSt6vectorIjSaIjEE12emplace_backIJjEEEvDpOT_(%struct._ZSt6vectorIjSaIjEE* %_T38213328_19846.arg, i32* %__args.arg) #0 inlinehint !dbg !5111 {
L.entry:
	%_T38213328_19846.addr = alloca %struct._ZSt6vectorIjSaIjEE*, align 8
	%__args.addr = alloca i32*, align 8
	%..inline.addr = alloca %struct._ZN9__gnu_cxx17__normal_iteratorIPjSt6vectorIjSaIjEEEE, align 8
	%..inline.addr.1 = alloca i32*, align 8

	call void @llvm.dbg.declare (metadata %struct._ZSt6vectorIjSaIjEE** %_T38213328_19846.addr, metadata !5151, metadata !2783), !dbg !5112
	store %struct._ZSt6vectorIjSaIjEE* %_T38213328_19846.arg, %struct._ZSt6vectorIjSaIjEE** %_T38213328_19846.addr, align 8, !tbaa !2791
	call void @llvm.dbg.declare (metadata %struct._ZSt6vectorIjSaIjEE** %_T38213328_19846.addr, metadata !5152, metadata !2783), !dbg !5112
	call void @llvm.dbg.declare (metadata i32** %__args.addr, metadata !5153, metadata !2783), !dbg !5112
	store i32* %__args.arg, i32** %__args.addr, align 8, !tbaa !2791
	call void @llvm.dbg.declare (metadata i32** %__args.addr, metadata !5154, metadata !2783), !dbg !5112
	%0 = load %struct._ZSt6vectorIjSaIjEE*, %struct._ZSt6vectorIjSaIjEE** %_T38213328_19846.addr, align 8, !tbaa !2791, !dbg !5155
	%1 = bitcast %struct._ZSt6vectorIjSaIjEE*  %0 to i8*, !dbg !5155
	%2 = getelementptr i8, i8*  %1, i64 8, !dbg !5155
	%3 = bitcast i8*  %2 to i8**, !dbg !5155
	%4 = load i8*, i8**  %3, align 8, !tbaa !2791, !dbg !5155
	%5 = getelementptr i8, i8*  %1, i64 16, !dbg !5155
	%6 = bitcast i8*  %5 to i8**, !dbg !5155
	%7 = load i8*, i8**  %6, align 8, !tbaa !2791, !dbg !5155
	%8 = icmp eq i8*  %4,  %7, !dbg !5155
	br i1  %8, label %L.B0049, label %L.B2006, !dbg !5155
L.B2006:
	%9 = bitcast %struct._ZSt6vectorIjSaIjEE*  %0 to i8*, !dbg !5156
	%10 = getelementptr i8, i8*  %9, i64 8, !dbg !5156
	%11 = bitcast i8*  %10 to i8**, !dbg !5156
	%12 = load i8*, i8**  %11, align 8, !tbaa !2791, !dbg !5156
	%13 = icmp eq i8*  %12,  null, !dbg !5156
	br i1  %13, label %L..inline.45364, label %L.B2007, !dbg !5156
L.B2007:
	%14 = load i32*, i32** %__args.addr, align 8, !tbaa !2791, !dbg !5156
	%15 = load i32, i32*  %14, align 4, !tbaa !2790, !dbg !5156
	%16 = bitcast %struct._ZSt6vectorIjSaIjEE*  %0 to i8*, !dbg !5156
	%17 = getelementptr i8, i8*  %16, i64 8, !dbg !5156
	%18 = bitcast i8*  %17 to i32**, !dbg !5156
	%19 = load i32*, i32**  %18, align 8, !tbaa !2791, !dbg !5156
	store i32  %15, i32*  %19, align 4, !tbaa !2790, !dbg !5156
	br label %L..inline.45373, !dbg !5156
L..inline.45364:
	br label %L..inline.45373
L..inline.45373:
	%20 = load %struct._ZSt6vectorIjSaIjEE*, %struct._ZSt6vectorIjSaIjEE** %_T38213328_19846.addr, align 8, !tbaa !2791, !dbg !5157
	%21 = bitcast %struct._ZSt6vectorIjSaIjEE*  %20 to i8*, !dbg !5157
	%22 = getelementptr i8, i8*  %21, i64 8, !dbg !5157
	%23 = bitcast i8*  %22 to i8**, !dbg !5157
	%24 = load i8*, i8**  %23, align 8, !tbaa !2791, !dbg !5157
	%25 = getelementptr i8, i8*  %24, i64 4, !dbg !5157
	store i8*  %25, i8**  %23, align 8, !tbaa !2791, !dbg !5157
	br label %L.B0050, !dbg !5158
L.B0049:
	%26 = load %struct._ZSt6vectorIjSaIjEE*, %struct._ZSt6vectorIjSaIjEE** %_T38213328_19846.addr, align 8, !tbaa !2791, !dbg !5159
	%27 = bitcast %struct._ZSt6vectorIjSaIjEE*  %26 to i8*, !dbg !5159
	%28 = getelementptr i8, i8*  %27, i64 8, !dbg !5159
	%29 = bitcast i8*  %28 to i8**, !dbg !5159
	%30 = load i8*, i8**  %29, align 8, !tbaa !2791, !dbg !5159
	%31 = bitcast %struct._ZN9__gnu_cxx17__normal_iteratorIPjSt6vectorIjSaIjEEEE* %..inline.addr to i8**, !dbg !5159
	store i8*  %30, i8**  %31, align 8, !tbaa !2791, !dbg !5159
	%32 = load i32*, i32** %__args.addr, align 8, !tbaa !2791, !dbg !5160
	%33 = bitcast i32*  %32 to i8*, !dbg !5160
	%34 = bitcast i32** %..inline.addr.1 to i8**, !dbg !5160
	store i8*  %33, i8**  %34, align 8, !tbaa !2791, !dbg !5160
	%35 = bitcast %struct._ZN9__gnu_cxx17__normal_iteratorIPjSt6vectorIjSaIjEEEE* %..inline.addr to i64*, !dbg !5161
	%36 = load i64, i64*  %35, align 8, !tbaa !2790, !dbg !5161
	%37 = load i32*, i32** %..inline.addr.1, align 8, !tbaa !2791, !dbg !5161
	call void  @_ZNSt6vectorIjSaIjEE17_M_realloc_insertIJjEEEvN9__gnu_cxx17__normal_iteratorIPjS1_EEDpOT_ (%struct._ZSt6vectorIjSaIjEE*  %26, i64  %36, i32*  %37), !dbg !5161
	br label %L.B0050
L.B0050:
	ret void, !dbg !5162
}
define linkonce_odr void @_ZNSt6vectorIjSaIjEE17_M_realloc_insertIJjEEEvN9__gnu_cxx17__normal_iteratorIPjS1_EEDpOT_(%struct._ZSt6vectorIjSaIjEE* %_T38479464_19848.arg, i64 %__position.coerce, i32* %__args.arg) #0 inlinehint personality i8* bitcast (i32 (...)* @__gxx_personality_v0 to i8*) !dbg !5164 {
L.entry:
	%_T38479464_19848.addr = alloca %struct._ZSt6vectorIjSaIjEE*, align 8
	%__position.addr = alloca %struct._ZN9__gnu_cxx17__normal_iteratorIPjSt6vectorIjSaIjEEEE, align 8
	%__args.addr = alloca i32*, align 8
	%..inline.addr = alloca %struct._ZSt6vectorIjSaIjEE*, align 8
	%..inline.addr.1 = alloca i64, align 8
	%..inline.addr.2 = alloca i8*, align 8
	%..inline.addr.3 = alloca %struct._ZSt6vectorIjSaIjEE*, align 8
	%..inline.addr.4 = alloca %struct._ZSt12_Vector_baseIjSaIjEE*, align 8
	%..inline.addr.5 = alloca %struct._ZSaIjE*, align 8
	%..inline.addr.6 = alloca i64, align 8
	%..inline.addr.7 = alloca i64, align 8
	%..inline.addr.8 = alloca %struct._ZSt6vectorIjSaIjEE*, align 8
	%..inline.addr.9 = alloca i64, align 8
	%..inline.addr.160 = alloca i64, align 8
	%..inline.addr.170 = alloca %struct._ZSt6vectorIjSaIjEE*, align 8
	%..inline.addr.180 = alloca i64, align 8
	%..inline.addr.190 = alloca i64, align 8
	%..inline.addr.200 = alloca i64, align 8
	%..inline.addr.210 = alloca %struct._ZSt6vectorIjSaIjEE*, align 8
	%..inline.addr.220 = alloca i64, align 8
	%..inline.addr.230 = alloca i64, align 8
	%..inline.addr.240 = alloca i64*, align 8
	%..inline.addr.250 = alloca i64, align 8
	%..inline.addr.260 = alloca %struct._ZSt6vectorIjSaIjEE*, align 8
	%..inline.addr.270 = alloca i64, align 8
	%..inline.addr.280 = alloca i64, align 8
	%..inline.addr.290 = alloca %struct._ZSt6vectorIjSaIjEE*, align 8
	%..inline.addr.300 = alloca %struct._ZSt12_Vector_baseIjSaIjEE*, align 8
	%..inline.addr.310 = alloca %struct._ZSaIjE*, align 8
	%..inline.addr.320 = alloca i64, align 8
	%..inline.addr.330 = alloca i64, align 8
	%..inline.addr.340 = alloca %struct._ZSt6vectorIjSaIjEE*, align 8
	%..inline.addr.350 = alloca %struct._ZSt12_Vector_baseIjSaIjEE*, align 8
	%..inline.addr.360 = alloca %struct._ZSaIjE*, align 8
	%..inline.addr.370 = alloca i64, align 8
	%..inline.addr.380 = alloca i64, align 8
	%..inline.addr.390 = alloca i64, align 8
	%..inline.addr.400 = alloca i64, align 8
	%__len.addr = alloca i64, align 8
	%__old_start.addr = alloca i32*, align 8
	%__old_finish.addr = alloca i32*, align 8
	%..inline.addr.440 = alloca %struct._ZSt6vectorIjSaIjEE*, align 8
	%..inline.addr.450 = alloca i32**, align 8
	%..inline.addr.460 = alloca %struct._ZN9__gnu_cxx17__normal_iteratorIPjSt6vectorIjSaIjEEEE, align 8
	%..inline.addr.470 = alloca %struct._ZN9__gnu_cxx17__normal_iteratorIPjSt6vectorIjSaIjEEEE, align 8
	%_T38482128_19848.addr = alloca %struct._ZN9__gnu_cxx17__normal_iteratorIPjSt6vectorIjSaIjEEEE, align 8
	%..inline.addr.490 = alloca %struct._ZN9__gnu_cxx17__normal_iteratorIPjSt6vectorIjSaIjEEEE*, align 8
	%..inline.addr.500 = alloca %struct._ZN9__gnu_cxx17__normal_iteratorIPjSt6vectorIjSaIjEEEE*, align 8
	%..inline.addr.510 = alloca i64, align 8
	%..inline.addr.520 = alloca i64, align 8
	%__elems_before.addr = alloca i64, align 8
	%..inline.addr.540 = alloca %struct._ZSt12_Vector_baseIjSaIjEE*, align 8
	%..inline.addr.550 = alloca i64, align 8
	%..inline.addr.560 = alloca %struct._ZSaIjE*, align 8
	%..inline.addr.570 = alloca i64, align 8
	%..inline.addr.580 = alloca %struct._ZN9__gnu_cxx13new_allocatorIjEE*, align 8
	%..inline.addr.590 = alloca i64, align 8
	%..inline.addr.600 = alloca i64, align 8
	%.Q0003.addr = alloca i8*, align 8
	%..inline.addr.620 = alloca i32*, align 8
	%__new_start.addr = alloca i32*, align 8
	%__new_finish.addr = alloca i32*, align 8
	%..inline.addr.650 = alloca i32*, align 8
	%..inline.addr.660 = alloca i32*, align 8
	%..inline.addr.670 = alloca %struct._ZSaIjE*, align 8
	%..inline.addr.680 = alloca i32*, align 8
	%..inline.addr.690 = alloca i32*, align 8
	%..inline.addr.700 = alloca i32*, align 8
	%..inline.addr.710 = alloca i32*, align 8
	%..inline.addr.720 = alloca i32*, align 8
	%..inline.addr.730 = alloca i32*, align 8
	%..inline.addr.740 = alloca i64, align 8
	%..inline.addr.750 = alloca i8*, align 8
	%..inline.addr.760 = alloca i8*, align 8
	%..inline.addr.770 = alloca i8*, align 8
	%..inline.addr.780 = alloca i32*, align 8
	%..inline.addr.790 = alloca i32*, align 8
	%..inline.addr.800 = alloca i32*, align 8
	%..inline.addr.810 = alloca i32*, align 8
	%..inline.addr.820 = alloca %struct._ZSt12_Vector_baseIjSaIjEE*, align 8
	%..inline.addr.830 = alloca %struct._ZSaIjE*, align 8
	%..inline.addr.840 = alloca i32*, align 8
	%..inline.addr.850 = alloca i32*, align 8
	%..inline.addr.860 = alloca i32*, align 8
	%..inline.addr.870 = alloca %struct._ZSaIjE*, align 8
	%..inline.addr.880 = alloca %struct._ZSt17integral_constantIbLb1EE, align 1
	%..inline.addr.890 = alloca i32*, align 8
	%..inline.addr.900 = alloca i32*, align 8
	%..inline.addr.910 = alloca i32*, align 8
	%..inline.addr.920 = alloca %struct._ZSaIjE*, align 8
	%..inline.addr.930 = alloca %struct._ZSt17integral_constantIbLb1EE, align 1
	%..inline.addr.940 = alloca i32*, align 8
	%..inline.addr.950 = alloca i32*, align 8
	%..inline.addr.960 = alloca i32*, align 8
	%..inline.addr.970 = alloca %struct._ZSaIjE*, align 8
	%..inline.addr.980 = alloca i32*, align 8
	%..inline.addr.990 = alloca i32*, align 8
	%..inline.addr.1000 = alloca i32*, align 8
	%..inline.addr.1010 = alloca i32*, align 8
	%..inline.addr.1020 = alloca i32*, align 8
	%..inline.addr.1030 = alloca i32*, align 8
	%..inline.addr.1040 = alloca i32*, align 8
	%..inline.addr.1050 = alloca i32*, align 8
	%..inline.addr.1060 = alloca i32*, align 8
	%..inline.addr.1070 = alloca i64, align 8
	%..inline.addr.1080 = alloca i32*, align 8
	%..inline.addr.1090 = alloca i32*, align 8
	%..inline.addr.1100 = alloca i32*, align 8
	%..inline.addr.1110 = alloca i32*, align 8
	%..inline.addr.1120 = alloca %struct._ZSt12_Vector_baseIjSaIjEE*, align 8
	%..inline.addr.1130 = alloca %struct._ZSaIjE*, align 8
	%..inline.addr.1140 = alloca i32*, align 8
	%..inline.addr.1150 = alloca i32*, align 8
	%..inline.addr.1160 = alloca i32*, align 8
	%..inline.addr.1170 = alloca %struct._ZSaIjE*, align 8
	%..inline.addr.1180 = alloca %struct._ZSt17integral_constantIbLb1EE, align 1
	%..inline.addr.1190 = alloca i32*, align 8
	%..inline.addr.1200 = alloca i32*, align 8
	%..inline.addr.1210 = alloca i32*, align 8
	%..inline.addr.1220 = alloca %struct._ZSaIjE*, align 8
	%..inline.addr.1230 = alloca %struct._ZSt17integral_constantIbLb1EE, align 1
	%..inline.addr.1240 = alloca i32*, align 8
	%..inline.addr.1250 = alloca i32*, align 8
	%..inline.addr.1260 = alloca i32*, align 8
	%..inline.addr.1270 = alloca %struct._ZSaIjE*, align 8
	%..inline.addr.1280 = alloca i32*, align 8
	%..inline.addr.1290 = alloca i32*, align 8
	%..inline.addr.1300 = alloca i32*, align 8
	%..inline.addr.1310 = alloca i32*, align 8
	%..inline.addr.1320 = alloca i32*, align 8
	%..inline.addr.1330 = alloca i32*, align 8
	%..inline.addr.1340 = alloca i32*, align 8
	%..inline.addr.1350 = alloca i32*, align 8
	%..inline.addr.1360 = alloca i32*, align 8
	%..inline.addr.1370 = alloca i64, align 8
	%..inline.addr.1380 = alloca i32*, align 8
	%..inline.addr.1390 = alloca i32*, align 8
	%..inline.addr.1400 = alloca i32*, align 8
	%..inline.addr.1410 = alloca i32*, align 8
	%..inline.addr.1420 = alloca %struct._ZSt12_Vector_baseIjSaIjEE*, align 8
	%..inline.addr.1430 = alloca %struct._ZSaIjE*, align 8
	%..inline.addr.1440 = alloca %struct._ZSt12_Vector_baseIjSaIjEE*, align 8
	%..inline.addr.1450 = alloca %struct._ZSaIjE*, align 8
	%..inline.addr.1460 = alloca %struct._ZSt12_Vector_baseIjSaIjEE*, align 8
	%..inline.addr.1470 = alloca %struct._ZSaIjE*, align 8
	%..inline.addr.1480 = alloca i32*, align 8
	%..inline.addr.1490 = alloca i32*, align 8
	%..inline.addr.1500 = alloca i32*, align 8
	%..inline.addr.1510 = alloca i32*, align 8
	%..inline.addr.1520 = alloca %struct._ZSt12_Vector_baseIjSaIjEE*, align 8
	%..inline.addr.1530 = alloca i32*, align 8
	%..inline.addr.1540 = alloca i64, align 8
	%..inline.addr.1550 = alloca %struct._ZSaIjE*, align 8
	%..inline.addr.1560 = alloca i32*, align 8
	%..inline.addr.1570 = alloca i64, align 8
	%..inline.addr.1580 = alloca i32*, align 8
	%__caught_object_address.addr = alloca i8*, align 8
	%__catch_clause_number.addr = alloca i32, align 4
	%..inline.addr.1610 = alloca %struct._ZSaIjE*, align 8
	%..inline.addr.1620 = alloca i32*, align 8
	%..inline.addr.1630 = alloca %struct._ZSt12_Vector_baseIjSaIjEE*, align 8
	%..inline.addr.1640 = alloca %struct._ZSaIjE*, align 8
	%..inline.addr.1650 = alloca i32*, align 8
	%..inline.addr.1660 = alloca i32*, align 8
	%..inline.addr.1670 = alloca i32*, align 8
	%..inline.addr.1680 = alloca i32*, align 8
	%..inline.addr.1690 = alloca %struct._ZSt12_Vector_baseIjSaIjEE*, align 8
	%..inline.addr.1700 = alloca i32*, align 8
	%..inline.addr.1710 = alloca i64, align 8
	%..inline.addr.1720 = alloca %struct._ZSaIjE*, align 8
	%..inline.addr.1730 = alloca i32*, align 8
	%..inline.addr.1740 = alloca i64, align 8
	%..inline.addr.1750 = alloca i32*, align 8

	call void @llvm.dbg.declare (metadata %struct._ZSt6vectorIjSaIjEE** %_T38479464_19848.addr, metadata !5430, metadata !2783), !dbg !5165
	store %struct._ZSt6vectorIjSaIjEE* %_T38479464_19848.arg, %struct._ZSt6vectorIjSaIjEE** %_T38479464_19848.addr, align 8
	call void @llvm.dbg.declare (metadata %struct._ZSt6vectorIjSaIjEE** %_T38479464_19848.addr, metadata !5431, metadata !2783), !dbg !5165
	call void @llvm.dbg.declare (metadata %struct._ZN9__gnu_cxx17__normal_iteratorIPjSt6vectorIjSaIjEEEE* %__position.addr, metadata !5432, metadata !2783), !dbg !5165
	%0 = bitcast %struct._ZN9__gnu_cxx17__normal_iteratorIPjSt6vectorIjSaIjEEEE* %__position.addr to i64*
	store i64 %__position.coerce, i64*  %0, align 8
	call void @llvm.dbg.declare (metadata %struct._ZN9__gnu_cxx17__normal_iteratorIPjSt6vectorIjSaIjEEEE* %__position.addr, metadata !5433, metadata !2783), !dbg !5165
	call void @llvm.dbg.declare (metadata i32** %__args.addr, metadata !5434, metadata !2783), !dbg !5165
	store i32* %__args.arg, i32** %__args.addr, align 8
	call void @llvm.dbg.declare (metadata i32** %__args.addr, metadata !5435, metadata !2783), !dbg !5165
	%1 = load %struct._ZSt6vectorIjSaIjEE*, %struct._ZSt6vectorIjSaIjEE** %_T38479464_19848.addr, align 8, !dbg !5436
	%2 = bitcast %struct._ZSt6vectorIjSaIjEE*  %1 to i8*, !dbg !5436
	%3 = bitcast %struct._ZSt6vectorIjSaIjEE** %..inline.addr to i8**, !dbg !5436
	store i8*  %2, i8**  %3, align 8, !dbg !5436
	store i64 1, i64* %..inline.addr.1, align 8, !dbg !5436
	%4 = bitcast [26 x i8]* @.S21668 to i8*, !dbg !5436
	store i8*  %4, i8** %..inline.addr.2, align 8, !dbg !5436
	%5 = load %struct._ZSt6vectorIjSaIjEE*, %struct._ZSt6vectorIjSaIjEE** %..inline.addr, align 8, !dbg !5437
	%6 = bitcast %struct._ZSt6vectorIjSaIjEE*  %5 to i8*, !dbg !5437
	%7 = bitcast %struct._ZSt6vectorIjSaIjEE** %..inline.addr.3 to i8**, !dbg !5437
	store i8*  %6, i8**  %7, align 8, !dbg !5437
	%8 = load %struct._ZSt6vectorIjSaIjEE*, %struct._ZSt6vectorIjSaIjEE** %..inline.addr.3, align 8, !dbg !5437
	%9 = bitcast %struct._ZSt6vectorIjSaIjEE*  %8 to i8*, !dbg !5437
	%10 = bitcast %struct._ZSt12_Vector_baseIjSaIjEE** %..inline.addr.4 to i8**, !dbg !5437
	store i8*  %9, i8**  %10, align 8, !dbg !5437
	%11 = load %struct._ZSt12_Vector_baseIjSaIjEE*, %struct._ZSt12_Vector_baseIjSaIjEE** %..inline.addr.4, align 8, !dbg !5437
	%12 = bitcast %struct._ZSt12_Vector_baseIjSaIjEE*  %11 to i8*, !dbg !5437
	%13 = bitcast %struct._ZSaIjE** %..inline.addr.5 to i8**, !dbg !5437
	store i8*  %12, i8**  %13, align 8, !dbg !5437
	%14 = load %struct._ZSaIjE*, %struct._ZSaIjE** %..inline.addr.5, align 8, !dbg !5437
	%15 = call i64  @_ZNSt6vectorIjSaIjEE11_S_max_sizeERKS0_ (%struct._ZSaIjE*  %14) nounwind, !dbg !5437
	store i64  %15, i64* %..inline.addr.6, align 8, !dbg !5437
	store i64  %15, i64* %..inline.addr.7, align 8, !dbg !5437
	%16 = load %struct._ZSt6vectorIjSaIjEE*, %struct._ZSt6vectorIjSaIjEE** %..inline.addr, align 8, !dbg !5437
	%17 = bitcast %struct._ZSt6vectorIjSaIjEE*  %16 to i8*, !dbg !5437
	%18 = bitcast %struct._ZSt6vectorIjSaIjEE** %..inline.addr.8 to i8**, !dbg !5437
	store i8*  %17, i8**  %18, align 8, !dbg !5437
	%19 = load %struct._ZSt6vectorIjSaIjEE*, %struct._ZSt6vectorIjSaIjEE** %..inline.addr.8, align 8, !dbg !5437
	%20 = bitcast %struct._ZSt6vectorIjSaIjEE*  %19 to i8*, !dbg !5437
	%21 = getelementptr i8, i8*  %20, i64 8, !dbg !5437
	%22 = bitcast i8*  %21 to i8**, !dbg !5437
	%23 = load i8*, i8**  %22, align 8, !dbg !5437
	%24 = bitcast %struct._ZSt6vectorIjSaIjEE*  %19 to i8**, !dbg !5437
	%25 = load i8*, i8**  %24, align 8, !dbg !5437
	%26 = ptrtoint i8*  %25 to i64, !dbg !5437
	%27 = sub i64 0,  %26, !dbg !5437
	%28 = getelementptr i8, i8*  %23, i64  %27, !dbg !5437
	%29 = ptrtoint i8*  %28 to i64, !dbg !5437
	%30 = sext i32 2 to i64, !dbg !5437
	%31 = ashr i64  %29,  %30, !dbg !5437
	store i64  %31, i64* %..inline.addr.9, align 8, !dbg !5437
	store i64  %31, i64* %..inline.addr.160, align 8, !dbg !5437
	%32 = sub i64  %15,  %31, !dbg !5437
	%33 = load i64, i64* %..inline.addr.1, align 8, !dbg !5437
	%34 = icmp uge i64  %32,  %33, !dbg !5437
	br i1  %34, label %L..inline.45457, label %L.B2054, !dbg !5437
L.B2054:
	%35 = load i8*, i8** %..inline.addr.2, align 8, !dbg !5438
	call void  @_ZSt20__throw_length_errorPKc (i8*  %35) noreturn, !dbg !5438
	br label %L..inline.45457
L..inline.45457:
	%36 = load %struct._ZSt6vectorIjSaIjEE*, %struct._ZSt6vectorIjSaIjEE** %..inline.addr, align 8, !dbg !5439
	%37 = bitcast %struct._ZSt6vectorIjSaIjEE*  %36 to i8*, !dbg !5439
	%38 = bitcast %struct._ZSt6vectorIjSaIjEE** %..inline.addr.170 to i8**, !dbg !5439
	store i8*  %37, i8**  %38, align 8, !dbg !5439
	%39 = load %struct._ZSt6vectorIjSaIjEE*, %struct._ZSt6vectorIjSaIjEE** %..inline.addr.170, align 8, !dbg !5439
	%40 = bitcast %struct._ZSt6vectorIjSaIjEE*  %39 to i8*, !dbg !5439
	%41 = getelementptr i8, i8*  %40, i64 8, !dbg !5439
	%42 = bitcast i8*  %41 to i8**, !dbg !5439
	%43 = load i8*, i8**  %42, align 8, !dbg !5439
	%44 = bitcast %struct._ZSt6vectorIjSaIjEE*  %39 to i8**, !dbg !5439
	%45 = load i8*, i8**  %44, align 8, !dbg !5439
	%46 = ptrtoint i8*  %45 to i64, !dbg !5439
	%47 = sub i64 0,  %46, !dbg !5439
	%48 = getelementptr i8, i8*  %43, i64  %47, !dbg !5439
	%49 = ptrtoint i8*  %48 to i64, !dbg !5439
	%50 = sext i32 2 to i64, !dbg !5439
	%51 = ashr i64  %49,  %50, !dbg !5439
	store i64  %51, i64* %..inline.addr.180, align 8, !dbg !5439
	store i64  %51, i64* %..inline.addr.190, align 8, !dbg !5439
	store i64  %51, i64* %..inline.addr.200, align 8, !dbg !5439
	%52 = bitcast %struct._ZSt6vectorIjSaIjEE** %..inline.addr.210 to i8**, !dbg !5439
	store i8*  %37, i8**  %52, align 8, !dbg !5439
	%53 = load %struct._ZSt6vectorIjSaIjEE*, %struct._ZSt6vectorIjSaIjEE** %..inline.addr.210, align 8, !dbg !5439
	%54 = bitcast %struct._ZSt6vectorIjSaIjEE*  %53 to i8*, !dbg !5439
	%55 = getelementptr i8, i8*  %54, i64 8, !dbg !5439
	%56 = bitcast i8*  %55 to i8**, !dbg !5439
	%57 = load i8*, i8**  %56, align 8, !dbg !5439
	%58 = bitcast %struct._ZSt6vectorIjSaIjEE*  %53 to i8**, !dbg !5439
	%59 = load i8*, i8**  %58, align 8, !dbg !5439
	%60 = ptrtoint i8*  %59 to i64, !dbg !5439
	%61 = sub i64 0,  %60, !dbg !5439
	%62 = getelementptr i8, i8*  %57, i64  %61, !dbg !5439
	%63 = ptrtoint i8*  %62 to i64, !dbg !5439
	%64 = sext i32 2 to i64, !dbg !5439
	%65 = ashr i64  %63,  %64, !dbg !5439
	store i64  %65, i64* %..inline.addr.220, align 8, !dbg !5439
	store i64  %65, i64* %..inline.addr.230, align 8, !dbg !5439
	%66 = load i64, i64* %..inline.addr.1, align 8, !dbg !5439
	%67 = icmp uge i64  %51,  %66, !dbg !5439
	br i1  %67, label %L..inline.45480, label %L.B2055, !dbg !5439
L.B2055:
	%68 = bitcast i64* %..inline.addr.1 to i8*, !dbg !5439
	%69 = bitcast i64** %..inline.addr.240 to i8**, !dbg !5439
	store i8*  %68, i8**  %69, align 8, !dbg !5439
	br label %L..inline.45482, !dbg !5439
L..inline.45480:
	%70 = bitcast i64* %..inline.addr.200 to i8*, !dbg !5439
	%71 = bitcast i64** %..inline.addr.240 to i8**, !dbg !5439
	store i8*  %70, i8**  %71, align 8, !dbg !5439
	br label %L..inline.45482
L..inline.45482:
	%72 = load i64*, i64** %..inline.addr.240, align 8, !dbg !5439
	%73 = load i64, i64*  %72, align 8, !dbg !5439
	%74 = load i64, i64* %..inline.addr.230, align 8, !dbg !5439
	%75 = add i64  %73,  %74, !dbg !5439
	store i64  %75, i64* %..inline.addr.250, align 8, !dbg !5439
	%76 = load %struct._ZSt6vectorIjSaIjEE*, %struct._ZSt6vectorIjSaIjEE** %..inline.addr, align 8, !dbg !5440
	%77 = bitcast %struct._ZSt6vectorIjSaIjEE*  %76 to i8*, !dbg !5440
	%78 = bitcast %struct._ZSt6vectorIjSaIjEE** %..inline.addr.260 to i8**, !dbg !5440
	store i8*  %77, i8**  %78, align 8, !dbg !5440
	%79 = load %struct._ZSt6vectorIjSaIjEE*, %struct._ZSt6vectorIjSaIjEE** %..inline.addr.260, align 8, !dbg !5440
	%80 = bitcast %struct._ZSt6vectorIjSaIjEE*  %79 to i8*, !dbg !5440
	%81 = getelementptr i8, i8*  %80, i64 8, !dbg !5440
	%82 = bitcast i8*  %81 to i8**, !dbg !5440
	%83 = load i8*, i8**  %82, align 8, !dbg !5440
	%84 = bitcast %struct._ZSt6vectorIjSaIjEE*  %79 to i8**, !dbg !5440
