	.text
	.file	"cpu_acc_map.ll"
	.file	1 "/home/talgat/vlasiator/vlasovsolver/cpu_acc_map.cpp"
	.section	.rodata.cst4,"aM",@progbits,4
	.p2align	2               # -- Begin function _Z13slope_limiterRK10Vec8SimpleIfES2_S2_RS0_S3_
.LCPI0_0:
	.long	2147483647              # float NaN
.LCPI0_1:
	.long	3212836864              # float -1
.LCPI0_2:
	.long	1065353216              # float 1
	.text
	.weak	_Z13slope_limiterRK10Vec8SimpleIfES2_S2_RS0_S3_
	.p2align	4, 0x90
	.type	_Z13slope_limiterRK10Vec8SimpleIfES2_S2_RS0_S3_,@function
_Z13slope_limiterRK10Vec8SimpleIfES2_S2_RS0_S3_: # @_Z13slope_limiterRK10Vec8SimpleIfES2_S2_RS0_S3_
.Lfunc_begin0:
	.file	2 "/home/talgat/vlasiator/vlasovsolver/cpu_slope_limiters.hpp"
	.loc	2 105 0                 # vlasovsolver/cpu_slope_limiters.hpp:105:0
	.cfi_startproc
# %bb.0:                                # %L.entry
	#DEBUG_VALUE: slope_limiter:l <- $rdi
	#DEBUG_VALUE: slope_limiter:l <- $rdi
	#DEBUG_VALUE: slope_limiter:m <- $rsi
	#DEBUG_VALUE: slope_limiter:m <- $rsi
	#DEBUG_VALUE: slope_limiter:r <- $rdx
	#DEBUG_VALUE: slope_limiter:r <- $rdx
	#DEBUG_VALUE: slope_limiter:slope_abs <- $rcx
	#DEBUG_VALUE: slope_limiter:slope_abs <- $rcx
	#DEBUG_VALUE: slope_limiter:slope_sign <- $r8
	#DEBUG_VALUE: slope_limiter:slope_sign <- $r8
	pushq	%rbp
	.cfi_def_cfa_offset 16
	.cfi_offset %rbp, -16
	movq	%rsp, %rbp
	.cfi_def_cfa_register %rbp
.Ltmp0:
	#DEBUG_VALUE: l <- $rdi
	#DEBUG_VALUE: l <- $rdi
	#DEBUG_VALUE: m <- $rsi
	#DEBUG_VALUE: m <- $rsi
	#DEBUG_VALUE: r <- $rdx
	#DEBUG_VALUE: r <- $rdx
	#DEBUG_VALUE: slope_abs <- $rcx
	#DEBUG_VALUE: slope_abs <- $rcx
	#DEBUG_VALUE: slope_sign <- $r8
	#DEBUG_VALUE: slope_sign <- $r8
	.loc	2 92 1 prologue_end     # vlasovsolver/cpu_slope_limiters.hpp:92:1
	vmovups	(%rdx), %ymm0
	vmovups	(%rsi), %ymm1
	vsubps	%ymm1, %ymm0, %ymm0
	vsubps	(%rdi), %ymm1, %ymm1
	vaddps	%ymm1, %ymm1, %ymm2
.Ltmp1:
	.loc	2 728 1                 # vlasovsolver/cpu_slope_limiters.hpp:728:1
	vbroadcastss	.LCPI0_0(%rip), %ymm3 # ymm3 = [NaN,NaN,NaN,NaN,NaN,NaN,NaN,NaN]
.Ltmp2:
	#DEBUG_VALUE: zero <- [DW_OP_LLVM_fragment 224 32] 0.000000e+00
	#DEBUG_VALUE: zero <- [DW_OP_LLVM_fragment 192 32] 0.000000e+00
	#DEBUG_VALUE: zero <- [DW_OP_LLVM_fragment 160 32] 0.000000e+00
	#DEBUG_VALUE: zero <- [DW_OP_LLVM_fragment 128 32] 0.000000e+00
	#DEBUG_VALUE: zero <- [DW_OP_LLVM_fragment 96 32] 0.000000e+00
	#DEBUG_VALUE: zero <- [DW_OP_LLVM_fragment 64 32] 0.000000e+00
	#DEBUG_VALUE: zero <- [DW_OP_LLVM_fragment 32 32] 0.000000e+00
	#DEBUG_VALUE: zero <- [DW_OP_LLVM_fragment 0 32] 0.000000e+00
	#DEBUG_VALUE: slope2 <- undef
	#DEBUG_VALUE: minmod:slope2 <- undef
	#DEBUG_VALUE: slope1 <- undef
	#DEBUG_VALUE: minmod:slope1 <- undef
	.loc	2 728 1 is_stmt 0       # vlasovsolver/cpu_slope_limiters.hpp:728:1
	vandps	%ymm3, %ymm0, %ymm4
	vandps	%ymm3, %ymm2, %ymm5
	.loc	2 1198 1 is_stmt 1      # vlasovsolver/cpu_slope_limiters.hpp:1198:1
	vcmpnltps	%ymm5, %ymm4, %ymm4
	vblendvps	%ymm4, %ymm2, %ymm0, %ymm4
	.loc	2 867 1                 # vlasovsolver/cpu_slope_limiters.hpp:867:1
	vmulps	%ymm2, %ymm0, %ymm2
	.loc	2 1266 1                # vlasovsolver/cpu_slope_limiters.hpp:1266:1
	vxorps	%xmm5, %xmm5, %xmm5
	vcmpnleps	%ymm5, %ymm2, %ymm2
	vandps	%ymm4, %ymm2, %ymm2
.Ltmp3:
	.loc	2 92 1                  # vlasovsolver/cpu_slope_limiters.hpp:92:1
	vaddps	%ymm0, %ymm0, %ymm0
.Ltmp4:
	#DEBUG_VALUE: zero <- [DW_OP_LLVM_fragment 224 32] 0.000000e+00
	#DEBUG_VALUE: zero <- [DW_OP_LLVM_fragment 192 32] 0.000000e+00
	#DEBUG_VALUE: zero <- [DW_OP_LLVM_fragment 160 32] 0.000000e+00
	#DEBUG_VALUE: zero <- [DW_OP_LLVM_fragment 128 32] 0.000000e+00
	#DEBUG_VALUE: zero <- [DW_OP_LLVM_fragment 96 32] 0.000000e+00
	#DEBUG_VALUE: zero <- [DW_OP_LLVM_fragment 64 32] 0.000000e+00
	#DEBUG_VALUE: zero <- [DW_OP_LLVM_fragment 32 32] 0.000000e+00
	#DEBUG_VALUE: zero <- [DW_OP_LLVM_fragment 0 32] 0.000000e+00
	#DEBUG_VALUE: slope2 <- undef
	#DEBUG_VALUE: minmod:slope2 <- undef
	#DEBUG_VALUE: slope1 <- undef
	#DEBUG_VALUE: minmod:slope1 <- undef
	.loc	2 728 1                 # vlasovsolver/cpu_slope_limiters.hpp:728:1
	vandps	%ymm3, %ymm0, %ymm4
	vandps	%ymm3, %ymm1, %ymm6
	.loc	2 1198 1                # vlasovsolver/cpu_slope_limiters.hpp:1198:1
	vcmpnltps	%ymm6, %ymm4, %ymm4
	vblendvps	%ymm4, %ymm1, %ymm0, %ymm4
	.loc	2 867 1                 # vlasovsolver/cpu_slope_limiters.hpp:867:1
	vmulps	%ymm1, %ymm0, %ymm0
	.loc	2 1266 1                # vlasovsolver/cpu_slope_limiters.hpp:1266:1
	vcmpnleps	%ymm5, %ymm0, %ymm0
	vandps	%ymm4, %ymm0, %ymm0
.Ltmp5:
	#DEBUG_VALUE: zero <- [DW_OP_LLVM_fragment 224 32] 0.000000e+00
	#DEBUG_VALUE: zero <- [DW_OP_LLVM_fragment 192 32] 0.000000e+00
	#DEBUG_VALUE: zero <- [DW_OP_LLVM_fragment 160 32] 0.000000e+00
	#DEBUG_VALUE: zero <- [DW_OP_LLVM_fragment 128 32] 0.000000e+00
	#DEBUG_VALUE: zero <- [DW_OP_LLVM_fragment 96 32] 0.000000e+00
	#DEBUG_VALUE: zero <- [DW_OP_LLVM_fragment 64 32] 0.000000e+00
	#DEBUG_VALUE: zero <- [DW_OP_LLVM_fragment 32 32] 0.000000e+00
	#DEBUG_VALUE: zero <- [DW_OP_LLVM_fragment 0 32] 0.000000e+00
	#DEBUG_VALUE: slope2 <- undef
	#DEBUG_VALUE: maxmod:slope2 <- undef
	#DEBUG_VALUE: slope1 <- undef
	#DEBUG_VALUE: maxmod:slope1 <- undef
	.loc	2 728 1                 # vlasovsolver/cpu_slope_limiters.hpp:728:1
	vandps	%ymm3, %ymm2, %ymm1
	vandps	%ymm3, %ymm0, %ymm4
	.loc	2 1094 1                # vlasovsolver/cpu_slope_limiters.hpp:1094:1
	vcmpnltps	%ymm1, %ymm4, %ymm1
	vblendvps	%ymm1, %ymm0, %ymm2, %ymm1
	.loc	2 867 1                 # vlasovsolver/cpu_slope_limiters.hpp:867:1
	vmulps	%ymm2, %ymm0, %ymm0
	.loc	2 1266 1                # vlasovsolver/cpu_slope_limiters.hpp:1266:1
	vcmpnleps	%ymm5, %ymm0, %ymm0
	vandps	%ymm1, %ymm0, %ymm0
.Ltmp6:
	.loc	2 728 1                 # vlasovsolver/cpu_slope_limiters.hpp:728:1
	vandps	%ymm3, %ymm0, %ymm1
.Ltmp7:
	.loc	2 707 1                 # vlasovsolver/cpu_slope_limiters.hpp:707:1
	vmovups	%ymm1, (%rcx)
.Ltmp8:
	.loc	2 1110 1                # vlasovsolver/cpu_slope_limiters.hpp:1110:1
	vcmpnltps	%ymm0, %ymm5, %ymm0
	vbroadcastss	.LCPI0_1(%rip), %ymm1 # ymm1 = [-1.0E+0,-1.0E+0,-1.0E+0,-1.0E+0,-1.0E+0,-1.0E+0,-1.0E+0,-1.0E+0]
	vbroadcastss	.LCPI0_2(%rip), %ymm2 # ymm2 = [1.0E+0,1.0E+0,1.0E+0,1.0E+0,1.0E+0,1.0E+0,1.0E+0,1.0E+0]
	vblendvps	%ymm0, %ymm1, %ymm2, %ymm0
.Ltmp9:
	.loc	2 707 1                 # vlasovsolver/cpu_slope_limiters.hpp:707:1
	vmovups	%ymm0, (%r8)
.Ltmp10:
	.loc	2 109 1                 # vlasovsolver/cpu_slope_limiters.hpp:109:1
	popq	%rbp
	.cfi_def_cfa %rsp, 8
	vzeroupper
	retq
.Ltmp11:
.Lfunc_end0:
	.size	_Z13slope_limiterRK10Vec8SimpleIfES2_S2_RS0_S3_, .Lfunc_end0-_Z13slope_limiterRK10Vec8SimpleIfES2_S2_RS0_S3_
	.cfi_endproc
                                        # -- End function
	.section	.rodata.cst4,"aM",@progbits,4
	.p2align	2               # -- Begin function _Z26compute_h8_left_face_valuePK10Vec8SimpleIfEjRS0_
.LCPI1_0:
	.long	1077936128              # float 3
.LCPI1_1:
	.long	1105723392              # float 29
.LCPI1_2:
	.long	1124794368              # float 139
.LCPI1_3:
	.long	1141194752              # float 533
	.section	.rodata.cst8,"aM",@progbits,8
	.p2align	3
.LCPI1_4:
	.quad	4563132925301831700     # double 0.0011904761904761906
	.text
	.weak	_Z26compute_h8_left_face_valuePK10Vec8SimpleIfEjRS0_
	.p2align	4, 0x90
	.type	_Z26compute_h8_left_face_valuePK10Vec8SimpleIfEjRS0_,@function
_Z26compute_h8_left_face_valuePK10Vec8SimpleIfEjRS0_: # @_Z26compute_h8_left_face_valuePK10Vec8SimpleIfEjRS0_
.Lfunc_begin1:
	.file	3 "/home/talgat/vlasiator/vlasovsolver/cpu_face_estimates.hpp"
	.loc	3 45 0                  # vlasovsolver/cpu_face_estimates.hpp:45:0
	.cfi_startproc
# %bb.0:                                # %L.entry
	#DEBUG_VALUE: compute_h8_left_face_value:values <- $rdi
	#DEBUG_VALUE: compute_h8_left_face_value:k <- $esi
	#DEBUG_VALUE: compute_h8_left_face_value:fv_l <- $rdx
	pushq	%rbp
	.cfi_def_cfa_offset 16
	.cfi_offset %rbp, -16
	movq	%rsp, %rbp
	.cfi_def_cfa_register %rbp
.Ltmp12:
	#DEBUG_VALUE: values <- $rdi
	#DEBUG_VALUE: k <- $esi
	#DEBUG_VALUE: fv_l <- $rdx
                                        # kill: def $esi killed $esi def $rsi
	#DEBUG_VALUE: k <- $esi
	#DEBUG_VALUE: compute_h8_left_face_value:k <- $esi
	#DEBUG_VALUE: values <- $rdi
	#DEBUG_VALUE: compute_h8_left_face_value:values <- $rdi
	.loc	3 898 1 prologue_end    # vlasovsolver/cpu_face_estimates.hpp:898:1
	leal	-4(%rsi), %eax
	shlq	$5, %rax
	vbroadcastss	.LCPI1_0(%rip), %ymm0 # ymm0 = [3.0E+0,3.0E+0,3.0E+0,3.0E+0,3.0E+0,3.0E+0,3.0E+0,3.0E+0]
	vmulps	(%rdi,%rax), %ymm0, %ymm2
	leal	-3(%rsi), %eax
	shlq	$5, %rax
	vbroadcastss	.LCPI1_1(%rip), %ymm1 # ymm1 = [2.9E+1,2.9E+1,2.9E+1,2.9E+1,2.9E+1,2.9E+1,2.9E+1,2.9E+1]
	vmulps	(%rdi,%rax), %ymm1, %ymm3
	.loc	3 759 1                 # vlasovsolver/cpu_face_estimates.hpp:759:1
	vsubps	%ymm2, %ymm3, %ymm2
	.loc	3 898 1                 # vlasovsolver/cpu_face_estimates.hpp:898:1
	leal	-2(%rsi), %eax
	shlq	$5, %rax
	vbroadcastss	.LCPI1_2(%rip), %ymm3 # ymm3 = [1.39E+2,1.39E+2,1.39E+2,1.39E+2,1.39E+2,1.39E+2,1.39E+2,1.39E+2]
	vmulps	(%rdi,%rax), %ymm3, %ymm4
	.loc	3 822 1                 # vlasovsolver/cpu_face_estimates.hpp:822:1
	vsubps	%ymm4, %ymm2, %ymm2
	.loc	3 898 1                 # vlasovsolver/cpu_face_estimates.hpp:898:1
	leal	-1(%rsi), %eax
	shlq	$5, %rax
	vbroadcastss	.LCPI1_3(%rip), %ymm4 # ymm4 = [5.33E+2,5.33E+2,5.33E+2,5.33E+2,5.33E+2,5.33E+2,5.33E+2,5.33E+2]
	vmulps	(%rdi,%rax), %ymm4, %ymm5
	.loc	3 759 1                 # vlasovsolver/cpu_face_estimates.hpp:759:1
	vaddps	%ymm5, %ymm2, %ymm2
	.loc	3 898 1                 # vlasovsolver/cpu_face_estimates.hpp:898:1
	movl	%esi, %eax
	shlq	$5, %rax
	vmulps	(%rdi,%rax), %ymm4, %ymm4
	.loc	3 759 1                 # vlasovsolver/cpu_face_estimates.hpp:759:1
	vaddps	%ymm4, %ymm2, %ymm2
	.loc	3 898 1                 # vlasovsolver/cpu_face_estimates.hpp:898:1
	leal	1(%rsi), %eax
	shlq	$5, %rax
	vmulps	(%rdi,%rax), %ymm3, %ymm3
	leal	2(%rsi), %eax
	shlq	$5, %rax
	vmulps	(%rdi,%rax), %ymm1, %ymm1
	.loc	3 822 1                 # vlasovsolver/cpu_face_estimates.hpp:822:1
	vsubps	%ymm3, %ymm2, %ymm2
	.loc	3 759 1                 # vlasovsolver/cpu_face_estimates.hpp:759:1
	vaddps	%ymm1, %ymm2, %ymm1
	.loc	3 898 1                 # vlasovsolver/cpu_face_estimates.hpp:898:1
	addl	$3, %esi
.Ltmp13:
	shlq	$5, %rsi
	vmulps	(%rdi,%rsi), %ymm0, %ymm0
	.loc	3 822 1                 # vlasovsolver/cpu_face_estimates.hpp:822:1
	vsubps	%ymm0, %ymm1, %ymm0
	.loc	3 898 1                 # vlasovsolver/cpu_face_estimates.hpp:898:1
	vcvtps2pd	%xmm0, %ymm1
	vextractf128	$1, %ymm0, %xmm0
	vcvtps2pd	%xmm0, %ymm0
	#DEBUG_VALUE: fv_l <- $rdx
	#DEBUG_VALUE: compute_h8_left_face_value:fv_l <- $rdx
	vbroadcastsd	.LCPI1_4(%rip), %ymm2 # ymm2 = [1.1904761904761906E-3,1.1904761904761906E-3,1.1904761904761906E-3,1.1904761904761906E-3]
	vmulpd	%ymm2, %ymm0, %ymm0
	vmulpd	%ymm2, %ymm1, %ymm1
	vcvtpd2ps	%ymm1, %xmm1
	vcvtpd2ps	%ymm0, %xmm0
.Ltmp14:
	.loc	3 707 1                 # vlasovsolver/cpu_face_estimates.hpp:707:1
	vmovupd	%xmm0, 16(%rdx)
	vmovupd	%xmm1, (%rdx)
.Ltmp15:
	.loc	3 55 1                  # vlasovsolver/cpu_face_estimates.hpp:55:1
	popq	%rbp
	.cfi_def_cfa %rsp, 8
	vzeroupper
	retq
.Ltmp16:
.Lfunc_end1:
	.size	_Z26compute_h8_left_face_valuePK10Vec8SimpleIfEjRS0_, .Lfunc_end1-_Z26compute_h8_left_face_valuePK10Vec8SimpleIfEjRS0_
	.cfi_endproc
                                        # -- End function
	.section	.rodata.cst4,"aM",@progbits,4
	.p2align	2               # -- Begin function _Z31compute_h7_left_face_derivativePK10Vec8SimpleIfEjRS0_
.LCPI2_0:
	.long	1091567616              # float 9
.LCPI2_1:
	.long	1122893824              # float 119
.LCPI2_2:
	.long	1147027456              # float 889
.LCPI2_3:
	.long	1172322304              # float 7175
	.section	.rodata.cst8,"aM",@progbits,8
	.p2align	3
.LCPI2_4:
	.quad	4551452160554016794     # double 1.9841269841269841E-4
	.text
	.weak	_Z31compute_h7_left_face_derivativePK10Vec8SimpleIfEjRS0_
	.p2align	4, 0x90
	.type	_Z31compute_h7_left_face_derivativePK10Vec8SimpleIfEjRS0_,@function
_Z31compute_h7_left_face_derivativePK10Vec8SimpleIfEjRS0_: # @_Z31compute_h7_left_face_derivativePK10Vec8SimpleIfEjRS0_
.Lfunc_begin2:
	.loc	3 67 0                  # vlasovsolver/cpu_face_estimates.hpp:67:0
	.cfi_startproc
# %bb.0:                                # %L.entry
	#DEBUG_VALUE: compute_h7_left_face_derivative:values <- $rdi
	#DEBUG_VALUE: compute_h7_left_face_derivative:k <- $esi
	#DEBUG_VALUE: compute_h7_left_face_derivative:fd_l <- $rdx
	pushq	%rbp
	.cfi_def_cfa_offset 16
	.cfi_offset %rbp, -16
	movq	%rsp, %rbp
	.cfi_def_cfa_register %rbp
.Ltmp17:
	#DEBUG_VALUE: values <- $rdi
	#DEBUG_VALUE: k <- $esi
	#DEBUG_VALUE: fd_l <- $rdx
                                        # kill: def $esi killed $esi def $rsi
	#DEBUG_VALUE: k <- $esi
	#DEBUG_VALUE: compute_h7_left_face_derivative:k <- $esi
	#DEBUG_VALUE: values <- $rdi
	#DEBUG_VALUE: compute_h7_left_face_derivative:values <- $rdi
	.loc	3 898 1 prologue_end    # vlasovsolver/cpu_face_estimates.hpp:898:1
	leal	-4(%rsi), %eax
	shlq	$5, %rax
	vbroadcastss	.LCPI2_0(%rip), %ymm0 # ymm0 = [9.0E+0,9.0E+0,9.0E+0,9.0E+0,9.0E+0,9.0E+0,9.0E+0,9.0E+0]
	vmulps	(%rdi,%rax), %ymm0, %ymm2
	leal	-3(%rsi), %eax
	shlq	$5, %rax
	vbroadcastss	.LCPI2_1(%rip), %ymm1 # ymm1 = [1.19E+2,1.19E+2,1.19E+2,1.19E+2,1.19E+2,1.19E+2,1.19E+2,1.19E+2]
	vmulps	(%rdi,%rax), %ymm1, %ymm3
	.loc	3 822 1                 # vlasovsolver/cpu_face_estimates.hpp:822:1
	vsubps	%ymm3, %ymm2, %ymm2
	.loc	3 898 1                 # vlasovsolver/cpu_face_estimates.hpp:898:1
	leal	-2(%rsi), %eax
	shlq	$5, %rax
	vbroadcastss	.LCPI2_2(%rip), %ymm3 # ymm3 = [8.89E+2,8.89E+2,8.89E+2,8.89E+2,8.89E+2,8.89E+2,8.89E+2,8.89E+2]
	vmulps	(%rdi,%rax), %ymm3, %ymm4
	.loc	3 759 1                 # vlasovsolver/cpu_face_estimates.hpp:759:1
	vaddps	%ymm4, %ymm2, %ymm2
	.loc	3 898 1                 # vlasovsolver/cpu_face_estimates.hpp:898:1
	leal	-1(%rsi), %eax
	shlq	$5, %rax
	vbroadcastss	.LCPI2_3(%rip), %ymm4 # ymm4 = [7.175E+3,7.175E+3,7.175E+3,7.175E+3,7.175E+3,7.175E+3,7.175E+3,7.175E+3]
	vmulps	(%rdi,%rax), %ymm4, %ymm5
	.loc	3 822 1                 # vlasovsolver/cpu_face_estimates.hpp:822:1
	vsubps	%ymm5, %ymm2, %ymm2
	.loc	3 898 1                 # vlasovsolver/cpu_face_estimates.hpp:898:1
	movl	%esi, %eax
	shlq	$5, %rax
	vmulps	(%rdi,%rax), %ymm4, %ymm4
	.loc	3 759 1                 # vlasovsolver/cpu_face_estimates.hpp:759:1
	vaddps	%ymm4, %ymm2, %ymm2
	.loc	3 898 1                 # vlasovsolver/cpu_face_estimates.hpp:898:1
	leal	1(%rsi), %eax
	shlq	$5, %rax
	vmulps	(%rdi,%rax), %ymm3, %ymm3
	leal	2(%rsi), %eax
	shlq	$5, %rax
	vmulps	(%rdi,%rax), %ymm1, %ymm1
	.loc	3 822 1                 # vlasovsolver/cpu_face_estimates.hpp:822:1
	vsubps	%ymm3, %ymm2, %ymm2
	.loc	3 759 1                 # vlasovsolver/cpu_face_estimates.hpp:759:1
	vaddps	%ymm1, %ymm2, %ymm1
	.loc	3 898 1                 # vlasovsolver/cpu_face_estimates.hpp:898:1
	addl	$3, %esi
.Ltmp18:
	shlq	$5, %rsi
	vmulps	(%rdi,%rsi), %ymm0, %ymm0
	.loc	3 822 1                 # vlasovsolver/cpu_face_estimates.hpp:822:1
	vsubps	%ymm0, %ymm1, %ymm0
	.loc	3 898 1                 # vlasovsolver/cpu_face_estimates.hpp:898:1
	vcvtps2pd	%xmm0, %ymm1
	vextractf128	$1, %ymm0, %xmm0
	vcvtps2pd	%xmm0, %ymm0
	#DEBUG_VALUE: fd_l <- $rdx
	#DEBUG_VALUE: compute_h7_left_face_derivative:fd_l <- $rdx
	vbroadcastsd	.LCPI2_4(%rip), %ymm2 # ymm2 = [1.9841269841269841E-4,1.9841269841269841E-4,1.9841269841269841E-4,1.9841269841269841E-4]
	vmulpd	%ymm2, %ymm0, %ymm0
	vmulpd	%ymm2, %ymm1, %ymm1
	vcvtpd2ps	%ymm1, %xmm1
	vcvtpd2ps	%ymm0, %xmm0
.Ltmp19:
	.loc	3 707 1                 # vlasovsolver/cpu_face_estimates.hpp:707:1
	vmovupd	%xmm0, 16(%rdx)
	vmovupd	%xmm1, (%rdx)
.Ltmp20:
	.loc	3 77 1                  # vlasovsolver/cpu_face_estimates.hpp:77:1
	popq	%rbp
	.cfi_def_cfa %rsp, 8
	vzeroupper
	retq
.Ltmp21:
.Lfunc_end2:
	.size	_Z31compute_h7_left_face_derivativePK10Vec8SimpleIfEjRS0_, .Lfunc_end2-_Z31compute_h7_left_face_derivativePK10Vec8SimpleIfEjRS0_
	.cfi_endproc
                                        # -- End function
	.section	.rodata.cst4,"aM",@progbits,4
	.p2align	2               # -- Begin function _Z22compute_h5_face_valuesPK10Vec8SimpleIfEjRS0_S3_
.LCPI3_0:
	.long	1077936128              # float 3
.LCPI3_1:
	.long	1104674816              # float 27
.LCPI3_2:
	.long	1111228416              # float 47
.LCPI3_3:
	.long	1095761920              # float 13
	.section	.rodata.cst8,"aM",@progbits,8
	.p2align	3
.LCPI3_4:
	.quad	4580461061010952465     # double 0.016666666666666666
	.text
	.weak	_Z22compute_h5_face_valuesPK10Vec8SimpleIfEjRS0_S3_
	.p2align	4, 0x90
	.type	_Z22compute_h5_face_valuesPK10Vec8SimpleIfEjRS0_S3_,@function
_Z22compute_h5_face_valuesPK10Vec8SimpleIfEjRS0_S3_: # @_Z22compute_h5_face_valuesPK10Vec8SimpleIfEjRS0_S3_
.Lfunc_begin3:
	.loc	3 123 0                 # vlasovsolver/cpu_face_estimates.hpp:123:0
	.cfi_startproc
# %bb.0:                                # %L.entry
	#DEBUG_VALUE: compute_h5_face_values:values <- $rdi
	#DEBUG_VALUE: compute_h5_face_values:k <- $esi
	#DEBUG_VALUE: compute_h5_face_values:fv_l <- $rdx
	#DEBUG_VALUE: compute_h5_face_values:fv_r <- $rcx
	pushq	%rbp
	.cfi_def_cfa_offset 16
	.cfi_offset %rbp, -16
	movq	%rsp, %rbp
	.cfi_def_cfa_register %rbp
.Ltmp22:
	#DEBUG_VALUE: values <- $rdi
	#DEBUG_VALUE: k <- $esi
	#DEBUG_VALUE: fv_l <- $rdx
	#DEBUG_VALUE: fv_r <- $rcx
                                        # kill: def $esi killed $esi def $rsi
	#DEBUG_VALUE: k <- $esi
	#DEBUG_VALUE: compute_h5_face_values:k <- $esi
	#DEBUG_VALUE: values <- $rdi
	#DEBUG_VALUE: compute_h5_face_values:values <- $rdi
	.loc	3 898 1 prologue_end    # vlasovsolver/cpu_face_estimates.hpp:898:1
	leal	-2(%rsi), %r8d
	shlq	$5, %r8
	vbroadcastss	.LCPI3_0(%rip), %ymm0 # ymm0 = [3.0E+0,3.0E+0,3.0E+0,3.0E+0,3.0E+0,3.0E+0,3.0E+0,3.0E+0]
	vmulps	(%rdi,%r8), %ymm0, %ymm3
	leal	-1(%rsi), %r9d
	shlq	$5, %r9
	vbroadcastss	.LCPI3_1(%rip), %ymm1 # ymm1 = [2.7E+1,2.7E+1,2.7E+1,2.7E+1,2.7E+1,2.7E+1,2.7E+1,2.7E+1]
	vmulps	(%rdi,%r9), %ymm1, %ymm4
	movl	%esi, %r10d
	shlq	$5, %r10
	vbroadcastss	.LCPI3_2(%rip), %ymm2 # ymm2 = [4.7E+1,4.7E+1,4.7E+1,4.7E+1,4.7E+1,4.7E+1,4.7E+1,4.7E+1]
	vmulps	(%rdi,%r10), %ymm2, %ymm5
	.loc	3 759 1                 # vlasovsolver/cpu_face_estimates.hpp:759:1
	vsubps	%ymm3, %ymm4, %ymm3
	.loc	3 898 1                 # vlasovsolver/cpu_face_estimates.hpp:898:1
	leal	1(%rsi), %eax
	shlq	$5, %rax
	vbroadcastss	.LCPI3_3(%rip), %ymm4 # ymm4 = [1.3E+1,1.3E+1,1.3E+1,1.3E+1,1.3E+1,1.3E+1,1.3E+1,1.3E+1]
	vmulps	(%rdi,%rax), %ymm4, %ymm6
	.loc	3 759 1                 # vlasovsolver/cpu_face_estimates.hpp:759:1
	vaddps	%ymm5, %ymm3, %ymm3
	.loc	3 822 1                 # vlasovsolver/cpu_face_estimates.hpp:822:1
	vsubps	%ymm6, %ymm3, %ymm3
	.loc	3 898 1                 # vlasovsolver/cpu_face_estimates.hpp:898:1
	addl	$2, %esi
.Ltmp23:
	shlq	$5, %rsi
	vmovups	(%rdi,%rsi), %ymm5
	vaddps	%ymm5, %ymm5, %ymm5
	.loc	3 759 1                 # vlasovsolver/cpu_face_estimates.hpp:759:1
	vaddps	%ymm5, %ymm3, %ymm3
	.loc	3 898 1                 # vlasovsolver/cpu_face_estimates.hpp:898:1
	vcvtps2pd	%xmm3, %ymm5
	vextractf128	$1, %ymm3, %xmm3
	vcvtps2pd	%xmm3, %ymm3
	#DEBUG_VALUE: fv_l <- $rdx
	#DEBUG_VALUE: compute_h5_face_values:fv_l <- $rdx
	vbroadcastsd	.LCPI3_4(%rip), %ymm6 # ymm6 = [1.6666666666666666E-2,1.6666666666666666E-2,1.6666666666666666E-2,1.6666666666666666E-2]
	vmulpd	%ymm6, %ymm3, %ymm3
	vmulpd	%ymm6, %ymm5, %ymm5
	vcvtpd2ps	%ymm5, %xmm5
	vcvtpd2ps	%ymm3, %xmm3
.Ltmp24:
	.loc	3 707 1                 # vlasovsolver/cpu_face_estimates.hpp:707:1
	vmovupd	%xmm3, 16(%rdx)
	vmovupd	%xmm5, (%rdx)
.Ltmp25:
	#DEBUG_VALUE: fv_r <- $rcx
	#DEBUG_VALUE: compute_h5_face_values:fv_r <- $rcx
	.loc	3 898 1                 # vlasovsolver/cpu_face_estimates.hpp:898:1
	vmovups	(%rdi,%r8), %ymm3
	vaddps	%ymm3, %ymm3, %ymm3
	vmulps	(%rdi,%r9), %ymm4, %ymm4
	.loc	3 822 1                 # vlasovsolver/cpu_face_estimates.hpp:822:1
	vsubps	%ymm4, %ymm3, %ymm3
	.loc	3 898 1                 # vlasovsolver/cpu_face_estimates.hpp:898:1
	vmulps	(%rdi,%r10), %ymm2, %ymm2
	.loc	3 759 1                 # vlasovsolver/cpu_face_estimates.hpp:759:1
	vaddps	%ymm2, %ymm3, %ymm2
	.loc	3 898 1                 # vlasovsolver/cpu_face_estimates.hpp:898:1
	vmulps	(%rdi,%rax), %ymm1, %ymm1
	.loc	3 759 1                 # vlasovsolver/cpu_face_estimates.hpp:759:1
	vaddps	%ymm1, %ymm2, %ymm1
	.loc	3 898 1                 # vlasovsolver/cpu_face_estimates.hpp:898:1
	vmulps	(%rdi,%rsi), %ymm0, %ymm0
	.loc	3 822 1                 # vlasovsolver/cpu_face_estimates.hpp:822:1
	vsubps	%ymm0, %ymm1, %ymm0
	.loc	3 898 1                 # vlasovsolver/cpu_face_estimates.hpp:898:1
	vcvtps2pd	%xmm0, %ymm1
	vextractf128	$1, %ymm0, %xmm0
	vcvtps2pd	%xmm0, %ymm0
	vmulpd	%ymm6, %ymm0, %ymm0
	vmulpd	%ymm6, %ymm1, %ymm1
	vcvtpd2ps	%ymm1, %xmm1
	vcvtpd2ps	%ymm0, %xmm0
.Ltmp26:
	.loc	3 707 1                 # vlasovsolver/cpu_face_estimates.hpp:707:1
	vmovupd	%xmm0, 16(%rcx)
	vmovupd	%xmm1, (%rcx)
.Ltmp27:
	.loc	3 135 1                 # vlasovsolver/cpu_face_estimates.hpp:135:1
	popq	%rbp
	.cfi_def_cfa %rsp, 8
	vzeroupper
	retq
.Ltmp28:
.Lfunc_end3:
	.size	_Z22compute_h5_face_valuesPK10Vec8SimpleIfEjRS0_S3_, .Lfunc_end3-_Z22compute_h5_face_valuesPK10Vec8SimpleIfEjRS0_S3_
	.cfi_endproc
                                        # -- End function
	.section	.rodata.cst4,"aM",@progbits,4
	.p2align	2               # -- Begin function _Z40compute_filtered_face_values_derivativesPK10Vec8SimpleIfEj19face_estimate_orderRS0_S4_S4_S4_f
.LCPI4_0:
	.long	1097859072              # float 15
.LCPI4_2:
	.long	1088421888              # float 7
.LCPI4_3:
	.long	1090519040              # float 8
.LCPI4_4:
	.long	1108606976              # float 37
.LCPI4_6:
	.long	1131741184              # float 245
.LCPI4_7:
	.long	1103626240              # float 25
.LCPI4_9:
	.long	1065353216              # float 1
.LCPI4_10:
	.long	3204448256              # float -0.5
.LCPI4_11:
	.long	1056964608              # float 0.5
	.section	.rodata.cst8,"aM",@progbits,8
	.p2align	3
.LCPI4_1:
	.quad	4590669220166325589     # double 0.083333333333333329
.LCPI4_5:
	.quad	4580461061010952465     # double 0.016666666666666666
.LCPI4_8:
	.quad	4573055141623720983     # double 0.0055555555555555558
	.text
	.weak	_Z40compute_filtered_face_values_derivativesPK10Vec8SimpleIfEj19face_estimate_orderRS0_S4_S4_S4_f
	.p2align	4, 0x90
	.type	_Z40compute_filtered_face_values_derivativesPK10Vec8SimpleIfEj19face_estimate_orderRS0_S4_S4_S4_f,@function
_Z40compute_filtered_face_values_derivativesPK10Vec8SimpleIfEj19face_estimate_orderRS0_S4_S4_S4_f: # @_Z40compute_filtered_face_values_derivativesPK10Vec8SimpleIfEj19face_estimate_orderRS0_S4_S4_S4_f
.Lfunc_begin4:
	.loc	3 216 0                 # vlasovsolver/cpu_face_estimates.hpp:216:0
	.cfi_startproc
# %bb.0:                                # %L.entry
	#DEBUG_VALUE: compute_filtered_face_values_derivatives:values <- $rdi
	#DEBUG_VALUE: compute_filtered_face_values_derivatives:k <- $esi
	#DEBUG_VALUE: compute_filtered_face_values_derivatives:order <- $edx
	#DEBUG_VALUE: compute_filtered_face_values_derivatives:fv_l <- $rcx
	#DEBUG_VALUE: compute_filtered_face_values_derivatives:fv_r <- $r8
	#DEBUG_VALUE: compute_filtered_face_values_derivatives:fd_l <- $r9
	#DEBUG_VALUE: compute_filtered_face_values_derivatives:threshold <- $xmm0
	pushq	%rbp
	.cfi_def_cfa_offset 16
	.cfi_offset %rbp, -16
	movq	%rsp, %rbp
	.cfi_def_cfa_register %rbp
	pushq	%r15
	pushq	%r14
	pushq	%r13
	pushq	%r12
	pushq	%rbx
	andq	$-32, %rsp
	subq	$640, %rsp              # imm = 0x280
	.cfi_offset %rbx, -56
	.cfi_offset %r12, -48
	.cfi_offset %r13, -40
	.cfi_offset %r14, -32
	.cfi_offset %r15, -24
	movq	%r9, %r12
                                        # kill: def $esi killed $esi def $rsi
	movq	%rdi, %r14
	movq	16(%rbp), %r15
.Ltmp29:
	#DEBUG_VALUE: threshold <- undef
	#DEBUG_VALUE: fd_r <- $r15
	#DEBUG_VALUE: fd_l <- undef
	#DEBUG_VALUE: fv_r <- undef
	#DEBUG_VALUE: fv_l <- undef
	#DEBUG_VALUE: k <- undef
	#DEBUG_VALUE: values <- undef
	#DEBUG_VALUE: order <- $edx
	#DEBUG_VALUE: compute_filtered_face_values_derivatives:threshold <- $xmm0
	#DEBUG_VALUE: compute_filtered_face_values_derivatives:fd_r <- [DW_OP_plus_uconst 16] [$rbp+0]
	#DEBUG_VALUE: compute_filtered_face_values_derivatives:fd_l <- $r12
	#DEBUG_VALUE: compute_filtered_face_values_derivatives:fv_r <- $r8
	#DEBUG_VALUE: compute_filtered_face_values_derivatives:fv_l <- $rcx
	#DEBUG_VALUE: compute_filtered_face_values_derivatives:order <- $edx
	#DEBUG_VALUE: compute_filtered_face_values_derivatives:k <- $esi
	#DEBUG_VALUE: compute_filtered_face_values_derivatives:values <- $r14
	.loc	3 218 1 prologue_end    # vlasovsolver/cpu_face_estimates.hpp:218:1
	testl	%edx, %edx
	movq	%rcx, 376(%rsp)         # 8-byte Spill
.Ltmp30:
	#DEBUG_VALUE: compute_filtered_face_values_derivatives:fv_l <- [DW_OP_plus_uconst 376] [$rsp+0]
	.loc	3 0 1 is_stmt 0         # vlasovsolver/cpu_face_estimates.hpp:0:1
	movq	%r8, 464(%rsp)          # 8-byte Spill
	vmovapd	%xmm0, 80(%rsp)         # 16-byte Spill
.Ltmp31:
	#DEBUG_VALUE: compute_filtered_face_values_derivatives:threshold <- [DW_OP_plus_uconst 80] [$rsp+0]
	.loc	3 218 1                 # vlasovsolver/cpu_face_estimates.hpp:218:1
	je	.LBB4_55
.Ltmp32:
# %bb.1:                                # %L.entry
	#DEBUG_VALUE: compute_filtered_face_values_derivatives:threshold <- [DW_OP_plus_uconst 80] [$rsp+0]
	#DEBUG_VALUE: compute_filtered_face_values_derivatives:fv_l <- [DW_OP_plus_uconst 376] [$rsp+0]
	#DEBUG_VALUE: compute_filtered_face_values_derivatives:values <- $r14
	#DEBUG_VALUE: compute_filtered_face_values_derivatives:fd_l <- $r12
	#DEBUG_VALUE: compute_filtered_face_values_derivatives:fd_r <- [DW_OP_plus_uconst 16] [$rbp+0]
	#DEBUG_VALUE: order <- $edx
	#DEBUG_VALUE: fd_r <- $r15
	#DEBUG_VALUE: compute_filtered_face_values_derivatives:fv_r <- $r8
	#DEBUG_VALUE: compute_filtered_face_values_derivatives:order <- $edx
	#DEBUG_VALUE: compute_filtered_face_values_derivatives:k <- $esi
	cmpl	$1, %edx
	je	.LBB4_56
.Ltmp33:
# %bb.2:                                # %L.entry
	#DEBUG_VALUE: compute_filtered_face_values_derivatives:threshold <- [DW_OP_plus_uconst 80] [$rsp+0]
	#DEBUG_VALUE: compute_filtered_face_values_derivatives:fv_l <- [DW_OP_plus_uconst 376] [$rsp+0]
	#DEBUG_VALUE: compute_filtered_face_values_derivatives:values <- $r14
	#DEBUG_VALUE: compute_filtered_face_values_derivatives:fd_l <- $r12
	#DEBUG_VALUE: compute_filtered_face_values_derivatives:fd_r <- [DW_OP_plus_uconst 16] [$rbp+0]
	#DEBUG_VALUE: order <- $edx
	#DEBUG_VALUE: fd_r <- $r15
	#DEBUG_VALUE: compute_filtered_face_values_derivatives:fv_r <- $r8
	#DEBUG_VALUE: compute_filtered_face_values_derivatives:order <- $edx
	#DEBUG_VALUE: compute_filtered_face_values_derivatives:k <- $esi
	cmpl	$3, %edx
	jne	.LBB4_54
.Ltmp34:
# %bb.3:                                # %L.B0037
	#DEBUG_VALUE: compute_filtered_face_values_derivatives:threshold <- [DW_OP_plus_uconst 80] [$rsp+0]
	#DEBUG_VALUE: compute_filtered_face_values_derivatives:fv_l <- [DW_OP_plus_uconst 376] [$rsp+0]
	#DEBUG_VALUE: compute_filtered_face_values_derivatives:values <- $r14
	#DEBUG_VALUE: compute_filtered_face_values_derivatives:fd_l <- $r12
	#DEBUG_VALUE: compute_filtered_face_values_derivatives:fd_r <- [DW_OP_plus_uconst 16] [$rbp+0]
	#DEBUG_VALUE: order <- $edx
	#DEBUG_VALUE: fd_r <- $r15
	#DEBUG_VALUE: compute_filtered_face_values_derivatives:fv_r <- $r8
	#DEBUG_VALUE: compute_filtered_face_values_derivatives:order <- $edx
	#DEBUG_VALUE: compute_filtered_face_values_derivatives:k <- $esi
	.loc	3 238 1 is_stmt 1       # vlasovsolver/cpu_face_estimates.hpp:238:1
	movq	%r14, %rdi
	movq	%rcx, %rdx
.Ltmp35:
	.loc	3 0 1 is_stmt 0         # vlasovsolver/cpu_face_estimates.hpp:0:1
	movq	%r8, %r13
.Ltmp36:
	#DEBUG_VALUE: compute_filtered_face_values_derivatives:fv_r <- $r13
	movq	%rsi, %r15
.Ltmp37:
	.loc	3 238 1                 # vlasovsolver/cpu_face_estimates.hpp:238:1
	callq	_Z26compute_h8_left_face_valuePK10Vec8SimpleIfEjRS0_
.Ltmp38:
	.loc	3 239 1 is_stmt 1       # vlasovsolver/cpu_face_estimates.hpp:239:1
	leal	1(%r15), %ebx
	movq	%r14, %rdi
	movl	%ebx, %esi
	movq	%r13, %rdx
	callq	_Z26compute_h8_left_face_valuePK10Vec8SimpleIfEjRS0_
	.loc	3 240 1                 # vlasovsolver/cpu_face_estimates.hpp:240:1
	movq	%r14, %rdi
	movl	%r15d, %esi
	movq	%r12, %rdx
	callq	_Z31compute_h7_left_face_derivativePK10Vec8SimpleIfEjRS0_
	.loc	3 241 1                 # vlasovsolver/cpu_face_estimates.hpp:241:1
	movq	%r14, %rdi
	movl	%ebx, %esi
	movq	16(%rbp), %rdx
	callq	_Z31compute_h7_left_face_derivativePK10Vec8SimpleIfEjRS0_
	movq	%r15, %r10
	movq	16(%rbp), %r15
	.loc	3 883 1                 # vlasovsolver/cpu_face_estimates.hpp:883:1
	movl	%r10d, %r13d
.Ltmp39:
	decl	%r10d
	jmp	.LBB4_4
.Ltmp40:
.LBB4_55:                               # %L.B0033
	#DEBUG_VALUE: compute_filtered_face_values_derivatives:threshold <- [DW_OP_plus_uconst 80] [$rsp+0]
	#DEBUG_VALUE: compute_filtered_face_values_derivatives:fv_l <- [DW_OP_plus_uconst 376] [$rsp+0]
	#DEBUG_VALUE: compute_filtered_face_values_derivatives:values <- $r14
	#DEBUG_VALUE: compute_filtered_face_values_derivatives:fd_l <- $r12
	#DEBUG_VALUE: compute_filtered_face_values_derivatives:fd_r <- [DW_OP_plus_uconst 16] [$rbp+0]
	#DEBUG_VALUE: order <- $edx
	#DEBUG_VALUE: fd_r <- $r15
	#DEBUG_VALUE: compute_filtered_face_values_derivatives:fv_r <- $r8
	#DEBUG_VALUE: compute_filtered_face_values_derivatives:order <- $edx
	#DEBUG_VALUE: compute_filtered_face_values_derivatives:k <- $esi
	.loc	3 163 1                 # vlasovsolver/cpu_face_estimates.hpp:163:1
	leal	-2(%rsi), %r10d
	shlq	$5, %r10
	leal	-1(%rsi), %r9d
	movq	%r9, %rax
	shlq	$5, %rax
	vbroadcastss	.LCPI4_2(%rip), %ymm1 # ymm1 = [7.0E+0,7.0E+0,7.0E+0,7.0E+0,7.0E+0,7.0E+0,7.0E+0,7.0E+0]
	vmulps	(%r14,%rax), %ymm1, %ymm0
	vsubps	(%r14,%r10), %ymm0, %ymm0
	movl	%esi, %r13d
	movq	%r13, %rdx
.Ltmp41:
	shlq	$5, %rdx
	vmulps	(%r14,%rdx), %ymm1, %ymm2
	vaddps	%ymm2, %ymm0, %ymm0
	leal	1(%rsi), %ebx
	movq	%rbx, %rdi
	shlq	$5, %rdi
	vsubps	(%r14,%rdi), %ymm0, %ymm0
	vcvtps2pd	%xmm0, %ymm2
	vextractf128	$1, %ymm0, %xmm0
	vcvtps2pd	%xmm0, %ymm3
	vbroadcastsd	.LCPI4_1(%rip), %ymm0 # ymm0 = [8.3333333333333329E-2,8.3333333333333329E-2,8.3333333333333329E-2,8.3333333333333329E-2]
	vmulpd	%ymm0, %ymm3, %ymm3
	vmulpd	%ymm0, %ymm2, %ymm2
	vcvtpd2ps	%ymm2, %xmm2
	vcvtpd2ps	%ymm3, %xmm3
	vmovupd	%xmm3, 16(%rcx)
	vmovupd	%xmm2, (%rcx)
	vmulps	(%r14,%rdx), %ymm1, %ymm2
	vsubps	(%r14,%rax), %ymm2, %ymm2
	vmulps	(%r14,%rdi), %ymm1, %ymm1
	vaddps	%ymm1, %ymm2, %ymm1
	addl	$2, %esi
.Ltmp42:
	shlq	$5, %rsi
	vsubps	(%r14,%rsi), %ymm1, %ymm1
	vcvtps2pd	%xmm1, %ymm2
	vextractf128	$1, %ymm1, %xmm1
	vcvtps2pd	%xmm1, %ymm1
	vmulpd	%ymm0, %ymm1, %ymm1
	vmulpd	%ymm0, %ymm2, %ymm2
	vcvtpd2ps	%ymm2, %xmm2
	vcvtpd2ps	%ymm1, %xmm1
	vmovupd	%xmm1, 16(%r8)
	vmovupd	%xmm2, (%r8)
	.loc	3 205 1                 # vlasovsolver/cpu_face_estimates.hpp:205:1
	vmovups	(%r14,%rdx), %ymm1
	vsubps	(%r14,%rax), %ymm1, %ymm1
	vbroadcastss	.LCPI4_0(%rip), %ymm2 # ymm2 = [1.5E+1,1.5E+1,1.5E+1,1.5E+1,1.5E+1,1.5E+1,1.5E+1,1.5E+1]
	vmulps	%ymm2, %ymm1, %ymm1
	vmovups	(%r14,%rdi), %ymm3
	vsubps	(%r14,%r10), %ymm3, %ymm3
	vsubps	%ymm3, %ymm1, %ymm1
	vcvtps2pd	%xmm1, %ymm3
	vextractf128	$1, %ymm1, %xmm1
	vcvtps2pd	%xmm1, %ymm1
	vmulpd	%ymm0, %ymm1, %ymm1
	vmulpd	%ymm0, %ymm3, %ymm3
	vcvtpd2ps	%ymm3, %xmm3
	vcvtpd2ps	%ymm1, %xmm1
	vmovupd	%xmm1, 16(%r12)
	vmovupd	%xmm3, (%r12)
	vmovups	(%r14,%rdi), %ymm1
	vsubps	(%r14,%rdx), %ymm1, %ymm1
	vmulps	%ymm2, %ymm1, %ymm1
	vmovups	(%r14,%rsi), %ymm2
	vsubps	(%r14,%rax), %ymm2, %ymm2
	vsubps	%ymm2, %ymm1, %ymm1
	vcvtps2pd	%xmm1, %ymm2
	vextractf128	$1, %ymm1, %xmm1
	vcvtps2pd	%xmm1, %ymm1
	vmulpd	%ymm0, %ymm1, %ymm1
	vmulpd	%ymm0, %ymm2, %ymm0
	vcvtpd2ps	%ymm0, %xmm0
	vcvtpd2ps	%ymm1, %xmm1
	vmovupd	%xmm1, 16(%r15)
	vmovupd	%xmm0, (%r15)
	movq	%r9, %r10
	jmp	.LBB4_4
.Ltmp43:
.LBB4_56:                               # %L.B0034
	#DEBUG_VALUE: compute_filtered_face_values_derivatives:threshold <- [DW_OP_plus_uconst 80] [$rsp+0]
	#DEBUG_VALUE: compute_filtered_face_values_derivatives:fv_l <- [DW_OP_plus_uconst 376] [$rsp+0]
	#DEBUG_VALUE: compute_filtered_face_values_derivatives:values <- $r14
	#DEBUG_VALUE: compute_filtered_face_values_derivatives:fd_l <- $r12
	#DEBUG_VALUE: compute_filtered_face_values_derivatives:fd_r <- [DW_OP_plus_uconst 16] [$rbp+0]
	#DEBUG_VALUE: order <- $edx
	#DEBUG_VALUE: fd_r <- $r15
	#DEBUG_VALUE: compute_filtered_face_values_derivatives:fv_r <- $r8
	#DEBUG_VALUE: compute_filtered_face_values_derivatives:order <- $edx
	#DEBUG_VALUE: compute_filtered_face_values_derivatives:k <- $esi
	.loc	3 226 1                 # vlasovsolver/cpu_face_estimates.hpp:226:1
	movq	%r14, %rdi
	movq	%rcx, %rdx
.Ltmp44:
	movq	%r8, %rcx
	movq	%rsi, %r15
.Ltmp45:
	callq	_Z22compute_h5_face_valuesPK10Vec8SimpleIfEjRS0_S3_
.Ltmp46:
	.loc	3 146 1                 # vlasovsolver/cpu_face_estimates.hpp:146:1
	movl	%r15d, %r13d
	movq	%r13, %rdx
	shlq	$5, %rdx
	leal	-1(%r15), %eax
	movq	%rax, %rcx
	shlq	$5, %rcx
	vmovups	(%r14,%rdx), %ymm0
	vsubps	(%r14,%rcx), %ymm0, %ymm0
	vbroadcastss	.LCPI4_0(%rip), %ymm1 # ymm1 = [1.5E+1,1.5E+1,1.5E+1,1.5E+1,1.5E+1,1.5E+1,1.5E+1,1.5E+1]
	vmulps	%ymm1, %ymm0, %ymm0
	leal	1(%r15), %ebx
	movq	%rbx, %rsi
	shlq	$5, %rsi
	leal	-2(%r15), %edi
	shlq	$5, %rdi
	vmovups	(%r14,%rsi), %ymm2
	vsubps	(%r14,%rdi), %ymm2, %ymm2
	vsubps	%ymm2, %ymm0, %ymm0
	vcvtps2pd	%xmm0, %ymm2
	vextractf128	$1, %ymm0, %xmm0
	vcvtps2pd	%xmm0, %ymm0
	vbroadcastsd	.LCPI4_1(%rip), %ymm3 # ymm3 = [8.3333333333333329E-2,8.3333333333333329E-2,8.3333333333333329E-2,8.3333333333333329E-2]
	vmulpd	%ymm3, %ymm0, %ymm0
	vmulpd	%ymm3, %ymm2, %ymm2
	vcvtpd2ps	%ymm2, %xmm2
	vcvtpd2ps	%ymm0, %xmm0
	vmovupd	%xmm0, 16(%r12)
	vmovupd	%xmm2, (%r12)
	vmovups	(%r14,%rsi), %ymm0
	vsubps	(%r14,%rdx), %ymm0, %ymm0
	vmulps	%ymm1, %ymm0, %ymm0
	addl	$2, %r15d
	shlq	$5, %r15
	vmovups	(%r14,%r15), %ymm1
	movq	16(%rbp), %r15
	vsubps	(%r14,%rcx), %ymm1, %ymm1
	vsubps	%ymm1, %ymm0, %ymm0
	vcvtps2pd	%xmm0, %ymm1
	vextractf128	$1, %ymm0, %xmm0
	vcvtps2pd	%xmm0, %ymm0
	vmulpd	%ymm3, %ymm0, %ymm0
	vmulpd	%ymm3, %ymm1, %ymm1
	vcvtpd2ps	%ymm1, %xmm1
	vcvtpd2ps	%ymm0, %xmm0
	vmovupd	%xmm0, 16(%r15)
	vmovupd	%xmm1, (%r15)
	movq	%rax, %r10
	jmp	.LBB4_4
.Ltmp47:
.LBB4_54:                               # %L.B0036
	#DEBUG_VALUE: compute_filtered_face_values_derivatives:threshold <- [DW_OP_plus_uconst 80] [$rsp+0]
	#DEBUG_VALUE: compute_filtered_face_values_derivatives:fv_l <- [DW_OP_plus_uconst 376] [$rsp+0]
	#DEBUG_VALUE: compute_filtered_face_values_derivatives:values <- $r14
	#DEBUG_VALUE: compute_filtered_face_values_derivatives:fd_l <- $r12
	#DEBUG_VALUE: compute_filtered_face_values_derivatives:fd_r <- [DW_OP_plus_uconst 16] [$rbp+0]
	#DEBUG_VALUE: order <- $edx
	#DEBUG_VALUE: fd_r <- $r15
	#DEBUG_VALUE: compute_filtered_face_values_derivatives:fv_r <- $r8
	#DEBUG_VALUE: compute_filtered_face_values_derivatives:order <- $edx
	#DEBUG_VALUE: compute_filtered_face_values_derivatives:k <- $esi
	.loc	3 90 1                  # vlasovsolver/cpu_face_estimates.hpp:90:1
	leal	-2(%rsi), %r11d
	shlq	$5, %r11
	vbroadcastss	.LCPI4_3(%rip), %ymm0 # ymm0 = [8.0E+0,8.0E+0,8.0E+0,8.0E+0,8.0E+0,8.0E+0,8.0E+0,8.0E+0]
	vmulps	(%r14,%r11), %ymm0, %ymm1
	leal	-3(%rsi), %r9d
	shlq	$5, %r9
	vmovups	(%r14,%r9), %ymm2
	vsubps	%ymm1, %ymm2, %ymm2
	leal	-1(%rsi), %r10d
	movq	%r10, %r15
.Ltmp48:
	shlq	$5, %r15
	vbroadcastss	.LCPI4_4(%rip), %ymm1 # ymm1 = [3.7E+1,3.7E+1,3.7E+1,3.7E+1,3.7E+1,3.7E+1,3.7E+1,3.7E+1]
	vmulps	(%r14,%r15), %ymm1, %ymm3
	vaddps	%ymm3, %ymm2, %ymm2
	movl	%esi, %r13d
	movq	%r13, %rdi
	shlq	$5, %rdi
	vmulps	(%r14,%rdi), %ymm1, %ymm3
	leal	1(%rsi), %ebx
	movq	%rbx, %rax
	shlq	$5, %rax
	vmulps	(%r14,%rax), %ymm0, %ymm4
	vaddps	%ymm3, %ymm2, %ymm2
	vsubps	%ymm4, %ymm2, %ymm2
	leal	2(%rsi), %edx
.Ltmp49:
	shlq	$5, %rdx
	vaddps	(%r14,%rdx), %ymm2, %ymm2
	vcvtps2pd	%xmm2, %ymm3
	vextractf128	$1, %ymm2, %xmm2
	vcvtps2pd	%xmm2, %ymm2
	vbroadcastsd	.LCPI4_5(%rip), %ymm4 # ymm4 = [1.6666666666666666E-2,1.6666666666666666E-2,1.6666666666666666E-2,1.6666666666666666E-2]
	vmulpd	%ymm4, %ymm2, %ymm2
	vmulpd	%ymm4, %ymm3, %ymm3
	vcvtpd2ps	%ymm3, %xmm3
	vcvtpd2ps	%ymm2, %xmm2
	vmovupd	%xmm2, 16(%rcx)
	vmovupd	%xmm3, (%rcx)
	vmulps	(%r14,%r15), %ymm0, %ymm2
	vmovups	(%r14,%r11), %ymm3
	vsubps	%ymm2, %ymm3, %ymm2
	vmulps	(%r14,%rdi), %ymm1, %ymm3
	vaddps	%ymm3, %ymm2, %ymm2
	vmulps	(%r14,%rax), %ymm1, %ymm1
	vaddps	%ymm1, %ymm2, %ymm1
	vmulps	(%r14,%rdx), %ymm0, %ymm0
	vsubps	%ymm0, %ymm1, %ymm0
	addl	$3, %esi
.Ltmp50:
	shlq	$5, %rsi
	vaddps	(%r14,%rsi), %ymm0, %ymm0
	vcvtps2pd	%xmm0, %ymm1
	vextractf128	$1, %ymm0, %xmm0
	vcvtps2pd	%xmm0, %ymm0
	vmulpd	%ymm4, %ymm0, %ymm0
	vmulpd	%ymm4, %ymm1, %ymm1
	vcvtpd2ps	%ymm1, %xmm1
	vcvtpd2ps	%ymm0, %xmm0
	vmovupd	%xmm0, 16(%r8)
	vmovupd	%xmm1, (%r8)
	.loc	3 108 1                 # vlasovsolver/cpu_face_estimates.hpp:108:1
	vmovups	(%r14,%rdx), %ymm0
	vsubps	(%r14,%r9), %ymm0, %ymm0
	vmovups	(%r14,%rdi), %ymm1
	vsubps	(%r14,%r15), %ymm1, %ymm1
	vbroadcastss	.LCPI4_6(%rip), %ymm2 # ymm2 = [2.45E+2,2.45E+2,2.45E+2,2.45E+2,2.45E+2,2.45E+2,2.45E+2,2.45E+2]
	vmulps	%ymm2, %ymm1, %ymm1
	vmovups	(%r14,%rax), %ymm3
	vsubps	(%r14,%r11), %ymm3, %ymm3
	vbroadcastss	.LCPI4_7(%rip), %ymm4 # ymm4 = [2.5E+1,2.5E+1,2.5E+1,2.5E+1,2.5E+1,2.5E+1,2.5E+1,2.5E+1]
	vmulps	%ymm4, %ymm3, %ymm3
	vsubps	%ymm3, %ymm1, %ymm1
	vaddps	%ymm0, %ymm0, %ymm0
	vaddps	%ymm0, %ymm1, %ymm0
	vcvtps2pd	%xmm0, %ymm1
	vextractf128	$1, %ymm0, %xmm0
	vcvtps2pd	%xmm0, %ymm0
	vbroadcastsd	.LCPI4_8(%rip), %ymm3 # ymm3 = [5.5555555555555558E-3,5.5555555555555558E-3,5.5555555555555558E-3,5.5555555555555558E-3]
	vmulpd	%ymm3, %ymm0, %ymm0
	vmulpd	%ymm3, %ymm1, %ymm1
	vcvtpd2ps	%ymm1, %xmm1
	vcvtpd2ps	%ymm0, %xmm0
	vmovupd	%xmm0, 16(%r12)
	vmovupd	%xmm1, (%r12)
	vmovups	(%r14,%rax), %ymm0
	vsubps	(%r14,%rdi), %ymm0, %ymm0
	vmovups	(%r14,%rdx), %ymm1
	vsubps	(%r14,%r15), %ymm1, %ymm1
	movq	16(%rbp), %r15
	vmovups	(%r14,%rsi), %ymm5
	vsubps	(%r14,%r11), %ymm5, %ymm5
	vmulps	%ymm2, %ymm0, %ymm0
	vmulps	%ymm4, %ymm1, %ymm1
	vsubps	%ymm1, %ymm0, %ymm0
	vaddps	%ymm5, %ymm5, %ymm1
	vaddps	%ymm1, %ymm0, %ymm0
	vcvtps2pd	%xmm0, %ymm1
	vextractf128	$1, %ymm0, %xmm0
	vcvtps2pd	%xmm0, %ymm0
	vmulpd	%ymm3, %ymm0, %ymm0
	vmulpd	%ymm3, %ymm1, %ymm1
	vcvtpd2ps	%ymm1, %xmm1
	vcvtpd2ps	%ymm0, %xmm0
	vmovupd	%xmm0, 16(%r15)
	vmovupd	%xmm1, (%r15)
.Ltmp51:
.LBB4_4:                                # %L_T47028328_19603
	#DEBUG_VALUE: compute_filtered_face_values_derivatives:threshold <- [DW_OP_plus_uconst 80] [$rsp+0]
	#DEBUG_VALUE: compute_filtered_face_values_derivatives:fv_l <- [DW_OP_plus_uconst 376] [$rsp+0]
	#DEBUG_VALUE: compute_filtered_face_values_derivatives:values <- $r14
	#DEBUG_VALUE: compute_filtered_face_values_derivatives:fd_l <- $r12
	#DEBUG_VALUE: compute_filtered_face_values_derivatives:fd_r <- [DW_OP_plus_uconst 16] [$rbp+0]
	.loc	3 883 1                 # vlasovsolver/cpu_face_estimates.hpp:883:1
	shlq	$5, %r10
	shlq	$5, %r13
	shlq	$5, %rbx
	vmovss	.LCPI4_9(%rip), %xmm0   # xmm0 = mem[0],zero,zero,zero
	.loc	3 247 1                 # vlasovsolver/cpu_face_estimates.hpp:247:1
	vdivss	80(%rsp), %xmm0, %xmm0  # 16-byte Folded Reload
	.loc	3 883 1                 # vlasovsolver/cpu_face_estimates.hpp:883:1
	leaq	(%r14,%r10), %rax
	movq	%rax, 64(%rsp)          # 8-byte Spill
	leaq	4(%r14), %rax
	movq	%rax, 112(%rsp)         # 8-byte Spill
	leaq	20(%r14), %rax
	movq	%rax, 184(%rsp)         # 8-byte Spill
	leaq	24(%r14), %rax
	movq	%rax, 456(%rsp)         # 8-byte Spill
	vbroadcastss	%xmm0, %ymm0
	vmovss	(%r14,%r10), %xmm1      # xmm1 = mem[0],zero,zero,zero
	vmovss	16(%r14,%r10), %xmm2    # xmm2 = mem[0],zero,zero,zero
	vinsertps	$16, 20(%r14,%r10), %xmm2, %xmm2 # xmm2 = xmm2[0],mem[0],xmm2[2,3]
	vinsertps	$32, 24(%r14,%r10), %xmm2, %xmm2 # xmm2 = xmm2[0,1],mem[0],xmm2[3]
	vinsertps	$48, 28(%r14,%r10), %xmm2, %xmm2 # xmm2 = xmm2[0,1,2],mem[0]
	vinsertps	$16, 4(%r14,%r10), %xmm1, %xmm1 # xmm1 = xmm1[0],mem[0],xmm1[2,3]
	vinsertps	$32, 8(%r14,%r10), %xmm1, %xmm1 # xmm1 = xmm1[0,1],mem[0],xmm1[3]
	movq	%r10, 72(%rsp)          # 8-byte Spill
	vinsertps	$48, 12(%r14,%r10), %xmm1, %xmm1 # xmm1 = xmm1[0,1,2],mem[0]
	vinsertf128	$1, %xmm2, %ymm1, %ymm1
	vmulps	%ymm1, %ymm0, %ymm1
	vmovaps	%ymm1, 320(%rsp)
	leaq	28(%r14), %rax
	movq	%rax, 104(%rsp)         # 8-byte Spill
	leaq	(%r14,%r13), %rax
	movq	%rax, 264(%rsp)         # 8-byte Spill
	leaq	4(%r14,%r13), %rax
	movq	%rax, 256(%rsp)         # 8-byte Spill
	leaq	20(%r14,%r13), %rax
	movq	%rax, 248(%rsp)         # 8-byte Spill
	leaq	24(%r14,%r13), %rax
	movq	%rax, 240(%rsp)         # 8-byte Spill
	leaq	28(%r14,%r13), %rax
	movq	%rax, 232(%rsp)         # 8-byte Spill
	vmovss	(%r14,%r13), %xmm1      # xmm1 = mem[0],zero,zero,zero
	vmovss	16(%r14,%r13), %xmm2    # xmm2 = mem[0],zero,zero,zero
	vinsertps	$16, 20(%r14,%r13), %xmm2, %xmm2 # xmm2 = xmm2[0],mem[0],xmm2[2,3]
	vinsertps	$32, 24(%r14,%r13), %xmm2, %xmm2 # xmm2 = xmm2[0,1],mem[0],xmm2[3]
	vinsertps	$48, 28(%r14,%r13), %xmm2, %xmm2 # xmm2 = xmm2[0,1,2],mem[0]
	vinsertps	$16, 4(%r14,%r13), %xmm1, %xmm1 # xmm1 = xmm1[0],mem[0],xmm1[2,3]
	vinsertps	$32, 8(%r14,%r13), %xmm1, %xmm1 # xmm1 = xmm1[0,1],mem[0],xmm1[3]
	vinsertps	$48, 12(%r14,%r13), %xmm1, %xmm1 # xmm1 = xmm1[0,1,2],mem[0]
	vinsertf128	$1, %xmm2, %ymm1, %ymm1
	vmulps	%ymm1, %ymm0, %ymm1
	vmovaps	%ymm1, 288(%rsp)
	vmovss	(%r14,%rbx), %xmm1      # xmm1 = mem[0],zero,zero,zero
	vmovss	16(%r14,%rbx), %xmm2    # xmm2 = mem[0],zero,zero,zero
	vinsertps	$16, 20(%r14,%rbx), %xmm2, %xmm2 # xmm2 = xmm2[0],mem[0],xmm2[2,3]
	vinsertps	$32, 24(%r14,%rbx), %xmm2, %xmm2 # xmm2 = xmm2[0,1],mem[0],xmm2[3]
	vinsertps	$48, 28(%r14,%rbx), %xmm2, %xmm2 # xmm2 = xmm2[0,1,2],mem[0]
	vinsertps	$16, 4(%r14,%rbx), %xmm1, %xmm1 # xmm1 = xmm1[0],mem[0],xmm1[2,3]
	vinsertps	$32, 8(%r14,%rbx), %xmm1, %xmm1 # xmm1 = xmm1[0,1],mem[0],xmm1[3]
	movq	%rbx, 472(%rsp)         # 8-byte Spill
	vinsertps	$48, 12(%r14,%rbx), %xmm1, %xmm1 # xmm1 = xmm1[0,1,2],mem[0]
	vinsertf128	$1, %xmm2, %ymm1, %ymm1
	vmulps	%ymm1, %ymm0, %ymm0
	vmovaps	%ymm0, 128(%rsp)
	leaq	320(%rsp), %rdi
	leaq	288(%rsp), %rsi
	leaq	128(%rsp), %rdx
	leaq	192(%rsp), %rcx
	leaq	384(%rsp), %r8
	.loc	3 248 1                 # vlasovsolver/cpu_face_estimates.hpp:248:1
	vzeroupper
	callq	_Z13slope_limiterRK10Vec8SimpleIfES2_S2_RS0_S3_
	vmovaps	80(%rsp), %xmm2         # 16-byte Reload
.Ltmp52:
	#DEBUG_VALUE: compute_filtered_face_values_derivatives:threshold <- $xmm2
	.loc	3 883 1                 # vlasovsolver/cpu_face_estimates.hpp:883:1
	vmulss	192(%rsp), %xmm2, %xmm1
	vbroadcastss	%xmm2, %xmm0
	vmulps	196(%rsp), %xmm0, %xmm7
	vmulss	212(%rsp), %xmm2, %xmm14
	vmulss	216(%rsp), %xmm2, %xmm6
	vmulss	220(%rsp), %xmm2, %xmm4
	vmovss	%xmm1, 128(%rsp)
	vmovups	%xmm7, 132(%rsp)
	vmovss	%xmm14, 148(%rsp)
	vmovss	%xmm6, 152(%rsp)
	vmovss	%xmm4, 156(%rsp)
	vmovss	%xmm1, 28(%rsp)         # 4-byte Spill
.Ltmp53:
	.loc	3 707 1                 # vlasovsolver/cpu_face_estimates.hpp:707:1
	vmovss	%xmm1, 192(%rsp)
	vmovups	%xmm7, 196(%rsp)
	vmovss	%xmm14, 212(%rsp)
	vmovss	%xmm6, 216(%rsp)
	vmovss	%xmm4, 220(%rsp)
.Ltmp54:
	.loc	3 1019 1                # vlasovsolver/cpu_face_estimates.hpp:1019:1
	vmovshdup	%xmm7, %xmm15   # xmm15 = xmm7[1,1,3,3]
	vpermilpd	$1, %xmm7, %xmm13 # xmm13 = xmm7[1,0]
	vpermilps	$231, %xmm7, %xmm12 # xmm12 = xmm7[3,1,2,3]
	vxorpd	%xmm3, %xmm3, %xmm3
.Ltmp55:
	#DEBUG_VALUE: is_extrema <- [DW_OP_LLVM_fragment 56 8] undef
	#DEBUG_VALUE: is_extrema <- [DW_OP_LLVM_fragment 48 8] undef
	#DEBUG_VALUE: is_extrema <- [DW_OP_LLVM_fragment 40 8] undef
	#DEBUG_VALUE: is_extrema <- [DW_OP_LLVM_fragment 32 8] undef
	#DEBUG_VALUE: is_extrema <- [DW_OP_LLVM_fragment 24 8] undef
	#DEBUG_VALUE: is_extrema <- [DW_OP_LLVM_fragment 16 8] undef
	#DEBUG_VALUE: is_extrema <- [DW_OP_LLVM_fragment 8 8] undef
	#DEBUG_VALUE: is_extrema <- [DW_OP_LLVM_fragment 0 8] undef
	.loc	3 253 1                 # vlasovsolver/cpu_face_estimates.hpp:253:1
	vucomiss	%xmm3, %xmm4
	movq	%r12, 368(%rsp)         # 8-byte Spill
	movq	464(%rsp), %r10         # 8-byte Reload
	jne	.LBB4_5
	jnp	.LBB4_12
.Ltmp56:
.LBB4_5:                                # %L_T47028328_19603
	#DEBUG_VALUE: compute_filtered_face_values_derivatives:threshold <- $xmm2
	#DEBUG_VALUE: compute_filtered_face_values_derivatives:fv_l <- [DW_OP_plus_uconst 376] [$rsp+0]
	#DEBUG_VALUE: compute_filtered_face_values_derivatives:values <- $r14
	#DEBUG_VALUE: compute_filtered_face_values_derivatives:fd_l <- $r12
	#DEBUG_VALUE: compute_filtered_face_values_derivatives:fd_r <- [DW_OP_plus_uconst 16] [$rbp+0]
	vucomiss	%xmm3, %xmm6
	jne	.LBB4_6
	jnp	.LBB4_12
.Ltmp57:
.LBB4_6:                                # %L_T47028328_19603
	#DEBUG_VALUE: compute_filtered_face_values_derivatives:threshold <- $xmm2
	#DEBUG_VALUE: compute_filtered_face_values_derivatives:fv_l <- [DW_OP_plus_uconst 376] [$rsp+0]
	#DEBUG_VALUE: compute_filtered_face_values_derivatives:values <- $r14
	#DEBUG_VALUE: compute_filtered_face_values_derivatives:fd_l <- $r12
	#DEBUG_VALUE: compute_filtered_face_values_derivatives:fd_r <- [DW_OP_plus_uconst 16] [$rbp+0]
	.loc	3 0 1 is_stmt 0         # vlasovsolver/cpu_face_estimates.hpp:0:1
	vxorps	%xmm0, %xmm0, %xmm0
	.loc	3 253 1                 # vlasovsolver/cpu_face_estimates.hpp:253:1
	vucomiss	%xmm0, %xmm14
	jne	.LBB4_7
	jnp	.LBB4_12
.Ltmp58:
.LBB4_7:                                # %L_T47028328_19603
	#DEBUG_VALUE: compute_filtered_face_values_derivatives:threshold <- $xmm2
	#DEBUG_VALUE: compute_filtered_face_values_derivatives:fv_l <- [DW_OP_plus_uconst 376] [$rsp+0]
	#DEBUG_VALUE: compute_filtered_face_values_derivatives:values <- $r14
	#DEBUG_VALUE: compute_filtered_face_values_derivatives:fd_l <- $r12
	#DEBUG_VALUE: compute_filtered_face_values_derivatives:fd_r <- [DW_OP_plus_uconst 16] [$rbp+0]
	vucomiss	%xmm0, %xmm12
	jne	.LBB4_8
	jnp	.LBB4_12
.Ltmp59:
.LBB4_8:                                # %L_T47028328_19603
	#DEBUG_VALUE: compute_filtered_face_values_derivatives:threshold <- $xmm2
	#DEBUG_VALUE: compute_filtered_face_values_derivatives:fv_l <- [DW_OP_plus_uconst 376] [$rsp+0]
	#DEBUG_VALUE: compute_filtered_face_values_derivatives:values <- $r14
	#DEBUG_VALUE: compute_filtered_face_values_derivatives:fd_l <- $r12
	#DEBUG_VALUE: compute_filtered_face_values_derivatives:fd_r <- [DW_OP_plus_uconst 16] [$rbp+0]
	.loc	3 0 1                   # vlasovsolver/cpu_face_estimates.hpp:0:1
	vxorps	%xmm0, %xmm0, %xmm0
	.loc	3 253 1                 # vlasovsolver/cpu_face_estimates.hpp:253:1
	vucomiss	%xmm0, %xmm13
	jne	.LBB4_9
	jnp	.LBB4_12
.Ltmp60:
.LBB4_9:                                # %L_T47028328_19603
	#DEBUG_VALUE: compute_filtered_face_values_derivatives:threshold <- $xmm2
	#DEBUG_VALUE: compute_filtered_face_values_derivatives:fv_l <- [DW_OP_plus_uconst 376] [$rsp+0]
	#DEBUG_VALUE: compute_filtered_face_values_derivatives:values <- $r14
	#DEBUG_VALUE: compute_filtered_face_values_derivatives:fd_l <- $r12
	#DEBUG_VALUE: compute_filtered_face_values_derivatives:fd_r <- [DW_OP_plus_uconst 16] [$rbp+0]
	vucomiss	%xmm0, %xmm15
	jne	.LBB4_10
	jnp	.LBB4_12
.Ltmp61:
.LBB4_10:                               # %L_T47028328_19603
	#DEBUG_VALUE: compute_filtered_face_values_derivatives:threshold <- $xmm2
	#DEBUG_VALUE: compute_filtered_face_values_derivatives:fv_l <- [DW_OP_plus_uconst 376] [$rsp+0]
	#DEBUG_VALUE: compute_filtered_face_values_derivatives:values <- $r14
	#DEBUG_VALUE: compute_filtered_face_values_derivatives:fd_l <- $r12
	#DEBUG_VALUE: compute_filtered_face_values_derivatives:fd_r <- [DW_OP_plus_uconst 16] [$rbp+0]
	.loc	3 0 1                   # vlasovsolver/cpu_face_estimates.hpp:0:1
	vxorps	%xmm0, %xmm0, %xmm0
	.loc	3 253 1                 # vlasovsolver/cpu_face_estimates.hpp:253:1
	vucomiss	%xmm0, %xmm7
	jne	.LBB4_11
	jnp	.LBB4_12
.Ltmp62:
.LBB4_11:                               # %L_T47028328_19603
	#DEBUG_VALUE: compute_filtered_face_values_derivatives:threshold <- $xmm2
	#DEBUG_VALUE: compute_filtered_face_values_derivatives:fv_l <- [DW_OP_plus_uconst 376] [$rsp+0]
	#DEBUG_VALUE: compute_filtered_face_values_derivatives:values <- $r14
	#DEBUG_VALUE: compute_filtered_face_values_derivatives:fd_l <- $r12
	#DEBUG_VALUE: compute_filtered_face_values_derivatives:fd_r <- [DW_OP_plus_uconst 16] [$rbp+0]
	.loc	3 0 1                   # vlasovsolver/cpu_face_estimates.hpp:0:1
	vmovss	28(%rsp), %xmm1         # 4-byte Reload
                                        # xmm1 = mem[0],zero,zero,zero
	.loc	3 253 1                 # vlasovsolver/cpu_face_estimates.hpp:253:1
	vucomiss	%xmm0, %xmm1
	jne	.LBB4_45
	jp	.LBB4_45
.Ltmp63:
.LBB4_12:                               # %L.B3857.critedge
	#DEBUG_VALUE: compute_filtered_face_values_derivatives:threshold <- $xmm2
	#DEBUG_VALUE: compute_filtered_face_values_derivatives:fv_l <- [DW_OP_plus_uconst 376] [$rsp+0]
	#DEBUG_VALUE: compute_filtered_face_values_derivatives:values <- $r14
	#DEBUG_VALUE: compute_filtered_face_values_derivatives:fd_l <- $r12
	#DEBUG_VALUE: compute_filtered_face_values_derivatives:fd_r <- [DW_OP_plus_uconst 16] [$rbp+0]
	.loc	3 0 0                   # vlasovsolver/cpu_face_estimates.hpp:0:0
	leaq	(%r14,%r13), %r11
	addq	$8, %r11
	movq	%r10, %r12
.Ltmp64:
	leaq	12(%r14,%r13), %r10
	leaq	16(%r14,%r13), %rax
	movq	%rax, 80(%rsp)          # 8-byte Spill
	.loc	3 1377 1 is_stmt 1      # vlasovsolver/cpu_face_estimates.hpp:1377:1
	leaq	4(%r12), %rcx
	leaq	8(%r12), %rdi
	leaq	12(%r12), %r8
	leaq	16(%r12), %r15
	leaq	20(%r12), %r9
	leaq	24(%r12), %r13
	movq	376(%rsp), %rsi         # 8-byte Reload
	leaq	4(%rsi), %rbx
	.loc	3 1019 1                # vlasovsolver/cpu_face_estimates.hpp:1019:1
	vucomiss	%xmm3, %xmm7
	movq	256(%rsp), %rax         # 8-byte Reload
	.loc	3 1377 1                # vlasovsolver/cpu_face_estimates.hpp:1377:1
	movq	%rax, %rdx
	cmovneq	%rcx, %rdx
	cmovpq	%rcx, %rdx
	movq	%rdx, 32(%rsp)          # 8-byte Spill
	cmovneq	%rbx, %rax
	cmovpq	%rbx, %rax
	movq	%rax, 56(%rsp)          # 8-byte Spill
	leaq	8(%rsi), %rbx
	.loc	3 1019 1                # vlasovsolver/cpu_face_estimates.hpp:1019:1
	vucomiss	%xmm3, %xmm15
	movq	%r11, %rax
	.loc	3 1377 1                # vlasovsolver/cpu_face_estimates.hpp:1377:1
	cmovneq	%rdi, %r11
	cmovpq	%rdi, %r11
	cmovneq	%rbx, %rax
	cmovpq	%rbx, %rax
	movq	%rax, 48(%rsp)          # 8-byte Spill
	leaq	12(%rsi), %rbx
	.loc	3 1019 1                # vlasovsolver/cpu_face_estimates.hpp:1019:1
	vucomiss	%xmm3, %xmm13
	movq	%r10, %rax
	.loc	3 1377 1                # vlasovsolver/cpu_face_estimates.hpp:1377:1
	cmovneq	%r8, %r10
	cmovpq	%r8, %r10
	cmovneq	%rbx, %rax
	cmovpq	%rbx, %rax
	movq	%rax, 432(%rsp)         # 8-byte Spill
	leaq	16(%rsi), %rbx
	.loc	3 1019 1                # vlasovsolver/cpu_face_estimates.hpp:1019:1
	vucomiss	%xmm3, %xmm12
	movq	80(%rsp), %rax          # 8-byte Reload
	.loc	3 1377 1                # vlasovsolver/cpu_face_estimates.hpp:1377:1
	movq	%rax, %rdi
	cmovneq	%r15, %rdi
	cmovpq	%r15, %rdi
	cmovneq	%rbx, %rax
	cmovpq	%rbx, %rax
	movq	%rax, 80(%rsp)          # 8-byte Spill
	leaq	20(%rsi), %r15
	.loc	3 1019 1                # vlasovsolver/cpu_face_estimates.hpp:1019:1
	vucomiss	%xmm3, %xmm14
	movq	248(%rsp), %r8          # 8-byte Reload
	.loc	3 1377 1                # vlasovsolver/cpu_face_estimates.hpp:1377:1
	movq	%r8, %rbx
	cmovneq	%r9, %rbx
	cmovpq	%r9, %rbx
	cmovneq	%r15, %r8
	cmovpq	%r15, %r8
	leaq	24(%rsi), %r15
	.loc	3 1019 1                # vlasovsolver/cpu_face_estimates.hpp:1019:1
	vucomiss	%xmm3, %xmm6
	movq	240(%rsp), %rax         # 8-byte Reload
	.loc	3 1377 1                # vlasovsolver/cpu_face_estimates.hpp:1377:1
	movq	%rax, %rdx
	cmovneq	%r13, %rdx
	cmovpq	%r13, %rdx
	movq	%rax, %r9
	cmovneq	%r15, %r9
	cmovpq	%r15, %r9
	leaq	28(%r12), %r15
	.loc	3 1019 1                # vlasovsolver/cpu_face_estimates.hpp:1019:1
	vucomiss	%xmm3, %xmm4
	movq	232(%rsp), %r13         # 8-byte Reload
	.loc	3 1377 1                # vlasovsolver/cpu_face_estimates.hpp:1377:1
	movq	%r13, %rax
	cmovneq	%r15, %rax
	cmovpq	%r15, %rax
	leaq	28(%rsi), %rcx
	movq	%r13, %r15
	cmovneq	%rcx, %r15
	cmovpq	%rcx, %r15
	vmovss	28(%rsp), %xmm0         # 4-byte Reload
                                        # xmm0 = mem[0],zero,zero,zero
	.loc	3 1019 1                # vlasovsolver/cpu_face_estimates.hpp:1019:1
	vucomiss	%xmm3, %xmm0
	movq	264(%rsp), %r13         # 8-byte Reload
.Ltmp65:
	.loc	3 254 1                 # vlasovsolver/cpu_face_estimates.hpp:254:1
	movq	%r13, %rcx
	cmovneq	%r12, %rcx
	cmovpq	%r12, %rcx
.Ltmp66:
	.loc	3 1377 1                # vlasovsolver/cpu_face_estimates.hpp:1377:1
	movl	(%rcx), %ecx
	movl	%ecx, 44(%rsp)          # 4-byte Spill
	movq	32(%rsp), %rcx          # 8-byte Reload
	movl	(%rcx), %ecx
	movl	%ecx, 32(%rsp)          # 4-byte Spill
	movl	(%r11), %r11d
	movl	(%r10), %r10d
	movl	(%rdi), %edi
	movl	(%rbx), %ebx
	movl	(%rdx), %edx
	movl	(%rax), %eax
	movl	44(%rsp), %ecx          # 4-byte Reload
.Ltmp67:
	.loc	3 707 1                 # vlasovsolver/cpu_face_estimates.hpp:707:1
	movl	%ecx, (%r12)
	movl	32(%rsp), %ecx          # 4-byte Reload
	movl	%ecx, 4(%r12)
	movl	%r11d, 8(%r12)
	movl	%r10d, 12(%r12)
	movl	%edi, 16(%r12)
	movl	%ebx, 20(%r12)
	movl	%edx, 24(%r12)
	movq	%r12, %r10
	movl	%eax, 28(%r12)
.Ltmp68:
	.loc	3 255 1                 # vlasovsolver/cpu_face_estimates.hpp:255:1
	cmovneq	%rsi, %r13
	cmovpq	%rsi, %r13
.Ltmp69:
	.loc	3 1377 1                # vlasovsolver/cpu_face_estimates.hpp:1377:1
	movl	(%r13), %eax
	movq	56(%rsp), %rcx          # 8-byte Reload
	movl	(%rcx), %ecx
	movq	48(%rsp), %rdx          # 8-byte Reload
	movl	(%rdx), %edx
	movq	432(%rsp), %rdi         # 8-byte Reload
	movl	(%rdi), %r12d
	movq	80(%rsp), %rdi          # 8-byte Reload
	movl	(%rdi), %edi
	movl	(%r8), %ebx
	movl	(%r9), %r8d
	movl	(%r15), %r9d
.Ltmp70:
	.loc	3 707 1                 # vlasovsolver/cpu_face_estimates.hpp:707:1
	movl	%eax, (%rsi)
	movl	%ecx, 4(%rsi)
	movl	%edx, 8(%rsi)
	movl	%r12d, 12(%rsi)
	movl	%edi, 16(%rsi)
	movl	%ebx, 20(%rsi)
	movq	368(%rsp), %r12         # 8-byte Reload
	movl	%r8d, 24(%rsi)
	movl	%r9d, 28(%rsi)
	vxorpd	%xmm8, %xmm8, %xmm8
.Ltmp71:
	.loc	3 1392 1                # vlasovsolver/cpu_face_estimates.hpp:1392:1
	vxorpd	%xmm9, %xmm9, %xmm9
.Ltmp72:
	.loc	3 256 1                 # vlasovsolver/cpu_face_estimates.hpp:256:1
	jne	.LBB4_13
	jnp	.LBB4_14
.Ltmp73:
.LBB4_13:                               # %L..inline.65704
	#DEBUG_VALUE: compute_filtered_face_values_derivatives:threshold <- $xmm2
	#DEBUG_VALUE: compute_filtered_face_values_derivatives:fv_l <- [DW_OP_plus_uconst 376] [$rsp+0]
	#DEBUG_VALUE: compute_filtered_face_values_derivatives:values <- $r14
	#DEBUG_VALUE: compute_filtered_face_values_derivatives:fd_r <- [DW_OP_plus_uconst 16] [$rbp+0]
	.loc	3 1392 1                # vlasovsolver/cpu_face_estimates.hpp:1392:1
	vmovss	(%r12), %xmm0           # xmm0 = mem[0],zero,zero,zero
	vcvtss2sd	%xmm0, %xmm0, %xmm9
.Ltmp74:
.LBB4_14:                               # %L..inline.65707
	#DEBUG_VALUE: compute_filtered_face_values_derivatives:threshold <- $xmm2
	#DEBUG_VALUE: compute_filtered_face_values_derivatives:fv_l <- [DW_OP_plus_uconst 376] [$rsp+0]
	#DEBUG_VALUE: compute_filtered_face_values_derivatives:values <- $r14
	#DEBUG_VALUE: compute_filtered_face_values_derivatives:fd_r <- [DW_OP_plus_uconst 16] [$rbp+0]
	.loc	3 0 1 is_stmt 0         # vlasovsolver/cpu_face_estimates.hpp:0:1
	vxorps	%xmm0, %xmm0, %xmm0
	.loc	3 1392 1                # vlasovsolver/cpu_face_estimates.hpp:1392:1
	vucomiss	%xmm0, %xmm7
	jne	.LBB4_15
	jnp	.LBB4_16
.Ltmp75:
.LBB4_15:                               # %L..inline.65709
	#DEBUG_VALUE: compute_filtered_face_values_derivatives:threshold <- $xmm2
	#DEBUG_VALUE: compute_filtered_face_values_derivatives:fv_l <- [DW_OP_plus_uconst 376] [$rsp+0]
	#DEBUG_VALUE: compute_filtered_face_values_derivatives:values <- $r14
	#DEBUG_VALUE: compute_filtered_face_values_derivatives:fd_r <- [DW_OP_plus_uconst 16] [$rbp+0]
	vmovss	4(%r12), %xmm1          # xmm1 = mem[0],zero,zero,zero
	vcvtss2sd	%xmm1, %xmm1, %xmm8
.Ltmp76:
.LBB4_16:                               # %L..inline.65711
	#DEBUG_VALUE: compute_filtered_face_values_derivatives:threshold <- $xmm2
	#DEBUG_VALUE: compute_filtered_face_values_derivatives:fv_l <- [DW_OP_plus_uconst 376] [$rsp+0]
	#DEBUG_VALUE: compute_filtered_face_values_derivatives:values <- $r14
	#DEBUG_VALUE: compute_filtered_face_values_derivatives:fd_r <- [DW_OP_plus_uconst 16] [$rbp+0]
	.loc	3 0 1                   # vlasovsolver/cpu_face_estimates.hpp:0:1
	vxorpd	%xmm10, %xmm10, %xmm10
	.loc	3 1392 1                # vlasovsolver/cpu_face_estimates.hpp:1392:1
	vucomiss	%xmm0, %xmm15
	vxorpd	%xmm11, %xmm11, %xmm11
	movq	16(%rbp), %r15
	jne	.LBB4_17
	jnp	.LBB4_18
.Ltmp77:
.LBB4_17:                               # %L..inline.65712
	#DEBUG_VALUE: compute_filtered_face_values_derivatives:threshold <- $xmm2
	#DEBUG_VALUE: compute_filtered_face_values_derivatives:fv_l <- [DW_OP_plus_uconst 376] [$rsp+0]
	#DEBUG_VALUE: compute_filtered_face_values_derivatives:values <- $r14
	#DEBUG_VALUE: compute_filtered_face_values_derivatives:fd_r <- [DW_OP_plus_uconst 16] [$rbp+0]
	vmovss	8(%r12), %xmm0          # xmm0 = mem[0],zero,zero,zero
	vcvtss2sd	%xmm0, %xmm0, %xmm11
.Ltmp78:
.LBB4_18:                               # %L..inline.65714
	#DEBUG_VALUE: compute_filtered_face_values_derivatives:threshold <- $xmm2
	#DEBUG_VALUE: compute_filtered_face_values_derivatives:fv_l <- [DW_OP_plus_uconst 376] [$rsp+0]
	#DEBUG_VALUE: compute_filtered_face_values_derivatives:values <- $r14
	#DEBUG_VALUE: compute_filtered_face_values_derivatives:fd_r <- [DW_OP_plus_uconst 16] [$rbp+0]
	.loc	3 0 1                   # vlasovsolver/cpu_face_estimates.hpp:0:1
	vxorps	%xmm1, %xmm1, %xmm1
	.loc	3 1392 1                # vlasovsolver/cpu_face_estimates.hpp:1392:1
	vucomiss	%xmm1, %xmm13
	jne	.LBB4_19
	jnp	.LBB4_20
.Ltmp79:
.LBB4_19:                               # %L..inline.65715
	#DEBUG_VALUE: compute_filtered_face_values_derivatives:threshold <- $xmm2
	#DEBUG_VALUE: compute_filtered_face_values_derivatives:fv_l <- [DW_OP_plus_uconst 376] [$rsp+0]
	#DEBUG_VALUE: compute_filtered_face_values_derivatives:values <- $r14
	#DEBUG_VALUE: compute_filtered_face_values_derivatives:fd_r <- [DW_OP_plus_uconst 16] [$rbp+0]
	vmovss	12(%r12), %xmm0         # xmm0 = mem[0],zero,zero,zero
	vcvtss2sd	%xmm0, %xmm0, %xmm10
.Ltmp80:
.LBB4_20:                               # %L..inline.65717
	#DEBUG_VALUE: compute_filtered_face_values_derivatives:threshold <- $xmm2
	#DEBUG_VALUE: compute_filtered_face_values_derivatives:fv_l <- [DW_OP_plus_uconst 376] [$rsp+0]
	#DEBUG_VALUE: compute_filtered_face_values_derivatives:values <- $r14
	#DEBUG_VALUE: compute_filtered_face_values_derivatives:fd_r <- [DW_OP_plus_uconst 16] [$rbp+0]
	.loc	3 0 1                   # vlasovsolver/cpu_face_estimates.hpp:0:1
	vxorps	%xmm0, %xmm0, %xmm0
	.loc	3 1392 1                # vlasovsolver/cpu_face_estimates.hpp:1392:1
	vucomiss	%xmm1, %xmm12
	vxorps	%xmm1, %xmm1, %xmm1
	jne	.LBB4_21
	jnp	.LBB4_22
.Ltmp81:
.LBB4_21:                               # %L..inline.65718
	#DEBUG_VALUE: compute_filtered_face_values_derivatives:threshold <- $xmm2
	#DEBUG_VALUE: compute_filtered_face_values_derivatives:fv_l <- [DW_OP_plus_uconst 376] [$rsp+0]
	#DEBUG_VALUE: compute_filtered_face_values_derivatives:values <- $r14
	#DEBUG_VALUE: compute_filtered_face_values_derivatives:fd_r <- [DW_OP_plus_uconst 16] [$rbp+0]
	vmovss	16(%r12), %xmm1         # xmm1 = mem[0],zero,zero,zero
	vcvtss2sd	%xmm1, %xmm1, %xmm1
.Ltmp82:
.LBB4_22:                               # %L..inline.65720
	#DEBUG_VALUE: compute_filtered_face_values_derivatives:threshold <- $xmm2
	#DEBUG_VALUE: compute_filtered_face_values_derivatives:fv_l <- [DW_OP_plus_uconst 376] [$rsp+0]
	#DEBUG_VALUE: compute_filtered_face_values_derivatives:values <- $r14
	#DEBUG_VALUE: compute_filtered_face_values_derivatives:fd_r <- [DW_OP_plus_uconst 16] [$rbp+0]
	.loc	3 0 1                   # vlasovsolver/cpu_face_estimates.hpp:0:1
	vxorps	%xmm2, %xmm2, %xmm2
.Ltmp83:
	.loc	3 1392 1                # vlasovsolver/cpu_face_estimates.hpp:1392:1
	vucomiss	%xmm2, %xmm14
	jne	.LBB4_23
	jnp	.LBB4_24
.Ltmp84:
.LBB4_23:                               # %L..inline.65721
	#DEBUG_VALUE: compute_filtered_face_values_derivatives:fv_l <- [DW_OP_plus_uconst 376] [$rsp+0]
	#DEBUG_VALUE: compute_filtered_face_values_derivatives:values <- $r14
	#DEBUG_VALUE: compute_filtered_face_values_derivatives:fd_r <- [DW_OP_plus_uconst 16] [$rbp+0]
	vmovss	20(%r12), %xmm0         # xmm0 = mem[0],zero,zero,zero
	vcvtss2sd	%xmm0, %xmm0, %xmm0
.Ltmp85:
.LBB4_24:                               # %L..inline.65723
	#DEBUG_VALUE: compute_filtered_face_values_derivatives:fv_l <- [DW_OP_plus_uconst 376] [$rsp+0]
	#DEBUG_VALUE: compute_filtered_face_values_derivatives:values <- $r14
	#DEBUG_VALUE: compute_filtered_face_values_derivatives:fd_r <- [DW_OP_plus_uconst 16] [$rbp+0]
	.loc	3 0 1                   # vlasovsolver/cpu_face_estimates.hpp:0:1
	vxorps	%xmm5, %xmm5, %xmm5
	.loc	3 1392 1                # vlasovsolver/cpu_face_estimates.hpp:1392:1
	vucomiss	%xmm2, %xmm6
	vxorps	%xmm3, %xmm3, %xmm3
	jne	.LBB4_25
	jnp	.LBB4_26
.Ltmp86:
.LBB4_25:                               # %L..inline.65724
	#DEBUG_VALUE: compute_filtered_face_values_derivatives:fv_l <- [DW_OP_plus_uconst 376] [$rsp+0]
	#DEBUG_VALUE: compute_filtered_face_values_derivatives:values <- $r14
	#DEBUG_VALUE: compute_filtered_face_values_derivatives:fd_r <- [DW_OP_plus_uconst 16] [$rbp+0]
	vmovss	24(%r12), %xmm2         # xmm2 = mem[0],zero,zero,zero
	vcvtss2sd	%xmm2, %xmm2, %xmm3
.Ltmp87:
.LBB4_26:                               # %L..inline.65726
	#DEBUG_VALUE: compute_filtered_face_values_derivatives:fv_l <- [DW_OP_plus_uconst 376] [$rsp+0]
	#DEBUG_VALUE: compute_filtered_face_values_derivatives:values <- $r14
	#DEBUG_VALUE: compute_filtered_face_values_derivatives:fd_r <- [DW_OP_plus_uconst 16] [$rbp+0]
	.loc	3 0 1                   # vlasovsolver/cpu_face_estimates.hpp:0:1
	vxorps	%xmm2, %xmm2, %xmm2
	.loc	3 1392 1                # vlasovsolver/cpu_face_estimates.hpp:1392:1
	vucomiss	%xmm2, %xmm4
	jne	.LBB4_27
	jnp	.LBB4_28
.Ltmp88:
.LBB4_27:                               # %L..inline.65727
	#DEBUG_VALUE: compute_filtered_face_values_derivatives:fv_l <- [DW_OP_plus_uconst 376] [$rsp+0]
	#DEBUG_VALUE: compute_filtered_face_values_derivatives:values <- $r14
	#DEBUG_VALUE: compute_filtered_face_values_derivatives:fd_r <- [DW_OP_plus_uconst 16] [$rbp+0]
	vmovss	28(%r12), %xmm5         # xmm5 = mem[0],zero,zero,zero
	vcvtss2sd	%xmm5, %xmm5, %xmm5
.Ltmp89:
.LBB4_28:                               # %L..inline.65729
	#DEBUG_VALUE: compute_filtered_face_values_derivatives:fv_l <- [DW_OP_plus_uconst 376] [$rsp+0]
	#DEBUG_VALUE: compute_filtered_face_values_derivatives:values <- $r14
	#DEBUG_VALUE: compute_filtered_face_values_derivatives:fd_r <- [DW_OP_plus_uconst 16] [$rbp+0]
	vmovlhps	%xmm5, %xmm3, %xmm3 # xmm3 = xmm3[0],xmm5[0]
	vmovlhps	%xmm0, %xmm1, %xmm0 # xmm0 = xmm1[0],xmm0[0]
	vinsertf128	$1, %xmm3, %ymm0, %ymm0
	vunpcklpd	%xmm10, %xmm11, %xmm1 # xmm1 = xmm11[0],xmm10[0]
	vunpcklpd	%xmm8, %xmm9, %xmm3 # xmm3 = xmm9[0],xmm8[0]
	vinsertf128	$1, %xmm1, %ymm3, %ymm1
	vcvtpd2ps	%ymm1, %xmm1
	vcvtpd2ps	%ymm0, %xmm0
.Ltmp90:
	.loc	3 707 1 is_stmt 1       # vlasovsolver/cpu_face_estimates.hpp:707:1
	vmovupd	%xmm0, 16(%r12)
	vmovupd	%xmm1, (%r12)
	vxorpd	%xmm8, %xmm8, %xmm8
	vmovss	28(%rsp), %xmm0         # 4-byte Reload
                                        # xmm0 = mem[0],zero,zero,zero
.Ltmp91:
	.loc	3 257 1                 # vlasovsolver/cpu_face_estimates.hpp:257:1
	vucomiss	%xmm2, %xmm0
.Ltmp92:
	.loc	3 1392 1                # vlasovsolver/cpu_face_estimates.hpp:1392:1
	vxorpd	%xmm9, %xmm9, %xmm9
.Ltmp93:
	.loc	3 257 1                 # vlasovsolver/cpu_face_estimates.hpp:257:1
	jne	.LBB4_29
	jnp	.LBB4_30
.Ltmp94:
.LBB4_29:                               # %L..inline.65762
	#DEBUG_VALUE: compute_filtered_face_values_derivatives:fv_l <- [DW_OP_plus_uconst 376] [$rsp+0]
	#DEBUG_VALUE: compute_filtered_face_values_derivatives:values <- $r14
	#DEBUG_VALUE: compute_filtered_face_values_derivatives:fd_r <- [DW_OP_plus_uconst 16] [$rbp+0]
	.loc	3 1392 1                # vlasovsolver/cpu_face_estimates.hpp:1392:1
	vmovss	(%r15), %xmm0           # xmm0 = mem[0],zero,zero,zero
	vcvtss2sd	%xmm0, %xmm0, %xmm9
.Ltmp95:
.LBB4_30:                               # %L..inline.65765
	#DEBUG_VALUE: compute_filtered_face_values_derivatives:fv_l <- [DW_OP_plus_uconst 376] [$rsp+0]
	#DEBUG_VALUE: compute_filtered_face_values_derivatives:values <- $r14
	#DEBUG_VALUE: compute_filtered_face_values_derivatives:fd_r <- [DW_OP_plus_uconst 16] [$rbp+0]
	.loc	3 0 1 is_stmt 0         # vlasovsolver/cpu_face_estimates.hpp:0:1
	vxorps	%xmm0, %xmm0, %xmm0
	.loc	3 1392 1                # vlasovsolver/cpu_face_estimates.hpp:1392:1
	vucomiss	%xmm0, %xmm7
	jne	.LBB4_31
	jnp	.LBB4_32
.Ltmp96:
.LBB4_31:                               # %L..inline.65767
	#DEBUG_VALUE: compute_filtered_face_values_derivatives:fv_l <- [DW_OP_plus_uconst 376] [$rsp+0]
	#DEBUG_VALUE: compute_filtered_face_values_derivatives:values <- $r14
	#DEBUG_VALUE: compute_filtered_face_values_derivatives:fd_r <- [DW_OP_plus_uconst 16] [$rbp+0]
	vmovss	4(%r15), %xmm1          # xmm1 = mem[0],zero,zero,zero
	vcvtss2sd	%xmm1, %xmm1, %xmm8
.Ltmp97:
.LBB4_32:                               # %L..inline.65769
	#DEBUG_VALUE: compute_filtered_face_values_derivatives:fv_l <- [DW_OP_plus_uconst 376] [$rsp+0]
	#DEBUG_VALUE: compute_filtered_face_values_derivatives:values <- $r14
	#DEBUG_VALUE: compute_filtered_face_values_derivatives:fd_r <- [DW_OP_plus_uconst 16] [$rbp+0]
	.loc	3 0 1                   # vlasovsolver/cpu_face_estimates.hpp:0:1
	vxorpd	%xmm10, %xmm10, %xmm10
	.loc	3 1392 1                # vlasovsolver/cpu_face_estimates.hpp:1392:1
	vucomiss	%xmm0, %xmm15
	vxorpd	%xmm11, %xmm11, %xmm11
	jne	.LBB4_33
	jnp	.LBB4_34
.Ltmp98:
.LBB4_33:                               # %L..inline.65770
	#DEBUG_VALUE: compute_filtered_face_values_derivatives:fv_l <- [DW_OP_plus_uconst 376] [$rsp+0]
	#DEBUG_VALUE: compute_filtered_face_values_derivatives:values <- $r14
	#DEBUG_VALUE: compute_filtered_face_values_derivatives:fd_r <- [DW_OP_plus_uconst 16] [$rbp+0]
	vmovss	8(%r15), %xmm0          # xmm0 = mem[0],zero,zero,zero
	vcvtss2sd	%xmm0, %xmm0, %xmm11
.Ltmp99:
.LBB4_34:                               # %L..inline.65772
	#DEBUG_VALUE: compute_filtered_face_values_derivatives:fv_l <- [DW_OP_plus_uconst 376] [$rsp+0]
	#DEBUG_VALUE: compute_filtered_face_values_derivatives:values <- $r14
	#DEBUG_VALUE: compute_filtered_face_values_derivatives:fd_r <- [DW_OP_plus_uconst 16] [$rbp+0]
	.loc	3 0 1                   # vlasovsolver/cpu_face_estimates.hpp:0:1
	vxorpd	%xmm1, %xmm1, %xmm1
	.loc	3 1392 1                # vlasovsolver/cpu_face_estimates.hpp:1392:1
	vucomiss	%xmm1, %xmm13
	jne	.LBB4_35
	jnp	.LBB4_36
.Ltmp100:
.LBB4_35:                               # %L..inline.65773
	#DEBUG_VALUE: compute_filtered_face_values_derivatives:fv_l <- [DW_OP_plus_uconst 376] [$rsp+0]
	#DEBUG_VALUE: compute_filtered_face_values_derivatives:values <- $r14
	#DEBUG_VALUE: compute_filtered_face_values_derivatives:fd_r <- [DW_OP_plus_uconst 16] [$rbp+0]
	vmovss	12(%r15), %xmm0         # xmm0 = mem[0],zero,zero,zero
	vcvtss2sd	%xmm0, %xmm0, %xmm10
.Ltmp101:
.LBB4_36:                               # %L..inline.65775
	#DEBUG_VALUE: compute_filtered_face_values_derivatives:fv_l <- [DW_OP_plus_uconst 376] [$rsp+0]
	#DEBUG_VALUE: compute_filtered_face_values_derivatives:values <- $r14
	#DEBUG_VALUE: compute_filtered_face_values_derivatives:fd_r <- [DW_OP_plus_uconst 16] [$rbp+0]
	.loc	3 0 1                   # vlasovsolver/cpu_face_estimates.hpp:0:1
	vxorps	%xmm0, %xmm0, %xmm0
	.loc	3 1392 1                # vlasovsolver/cpu_face_estimates.hpp:1392:1
	vucomiss	%xmm1, %xmm12
	vxorps	%xmm1, %xmm1, %xmm1
	jne	.LBB4_37
	jnp	.LBB4_38
.Ltmp102:
.LBB4_37:                               # %L..inline.65776
	#DEBUG_VALUE: compute_filtered_face_values_derivatives:fv_l <- [DW_OP_plus_uconst 376] [$rsp+0]
	#DEBUG_VALUE: compute_filtered_face_values_derivatives:values <- $r14
	#DEBUG_VALUE: compute_filtered_face_values_derivatives:fd_r <- [DW_OP_plus_uconst 16] [$rbp+0]
	vmovss	16(%r15), %xmm1         # xmm1 = mem[0],zero,zero,zero
	vcvtss2sd	%xmm1, %xmm1, %xmm1
.Ltmp103:
.LBB4_38:                               # %L..inline.65778
	#DEBUG_VALUE: compute_filtered_face_values_derivatives:fv_l <- [DW_OP_plus_uconst 376] [$rsp+0]
	#DEBUG_VALUE: compute_filtered_face_values_derivatives:values <- $r14
	#DEBUG_VALUE: compute_filtered_face_values_derivatives:fd_r <- [DW_OP_plus_uconst 16] [$rbp+0]
	.loc	3 0 1                   # vlasovsolver/cpu_face_estimates.hpp:0:1
	vxorps	%xmm5, %xmm5, %xmm5
	.loc	3 1392 1                # vlasovsolver/cpu_face_estimates.hpp:1392:1
	vucomiss	%xmm5, %xmm14
	jne	.LBB4_39
	jnp	.LBB4_40
.Ltmp104:
.LBB4_39:                               # %L..inline.65779
	#DEBUG_VALUE: compute_filtered_face_values_derivatives:fv_l <- [DW_OP_plus_uconst 376] [$rsp+0]
	#DEBUG_VALUE: compute_filtered_face_values_derivatives:values <- $r14
	#DEBUG_VALUE: compute_filtered_face_values_derivatives:fd_r <- [DW_OP_plus_uconst 16] [$rbp+0]
	vmovss	20(%r15), %xmm0         # xmm0 = mem[0],zero,zero,zero
	vcvtss2sd	%xmm0, %xmm0, %xmm0
.Ltmp105:
.LBB4_40:                               # %L..inline.65781
	#DEBUG_VALUE: compute_filtered_face_values_derivatives:fv_l <- [DW_OP_plus_uconst 376] [$rsp+0]
	#DEBUG_VALUE: compute_filtered_face_values_derivatives:values <- $r14
	#DEBUG_VALUE: compute_filtered_face_values_derivatives:fd_r <- [DW_OP_plus_uconst 16] [$rbp+0]
	.loc	3 0 1                   # vlasovsolver/cpu_face_estimates.hpp:0:1
	vxorps	%xmm2, %xmm2, %xmm2
	.loc	3 1392 1                # vlasovsolver/cpu_face_estimates.hpp:1392:1
	vucomiss	%xmm5, %xmm6
	vxorps	%xmm5, %xmm5, %xmm5
	jne	.LBB4_41
	jnp	.LBB4_42
.Ltmp106:
.LBB4_41:                               # %L..inline.65782
	#DEBUG_VALUE: compute_filtered_face_values_derivatives:fv_l <- [DW_OP_plus_uconst 376] [$rsp+0]
	#DEBUG_VALUE: compute_filtered_face_values_derivatives:values <- $r14
	#DEBUG_VALUE: compute_filtered_face_values_derivatives:fd_r <- [DW_OP_plus_uconst 16] [$rbp+0]
	vmovss	24(%r15), %xmm5         # xmm5 = mem[0],zero,zero,zero
	vcvtss2sd	%xmm5, %xmm5, %xmm5
.Ltmp107:
.LBB4_42:                               # %L..inline.65784
	#DEBUG_VALUE: compute_filtered_face_values_derivatives:fv_l <- [DW_OP_plus_uconst 376] [$rsp+0]
	#DEBUG_VALUE: compute_filtered_face_values_derivatives:values <- $r14
	#DEBUG_VALUE: compute_filtered_face_values_derivatives:fd_r <- [DW_OP_plus_uconst 16] [$rbp+0]
	.loc	3 0 1                   # vlasovsolver/cpu_face_estimates.hpp:0:1
	vxorpd	%xmm3, %xmm3, %xmm3
	.loc	3 1392 1                # vlasovsolver/cpu_face_estimates.hpp:1392:1
	vucomiss	%xmm3, %xmm4
	jne	.LBB4_43
	jnp	.LBB4_44
.Ltmp108:
.LBB4_43:                               # %L..inline.65785
	#DEBUG_VALUE: compute_filtered_face_values_derivatives:fv_l <- [DW_OP_plus_uconst 376] [$rsp+0]
	#DEBUG_VALUE: compute_filtered_face_values_derivatives:values <- $r14
	#DEBUG_VALUE: compute_filtered_face_values_derivatives:fd_r <- [DW_OP_plus_uconst 16] [$rbp+0]
	vmovss	28(%r15), %xmm2         # xmm2 = mem[0],zero,zero,zero
	vcvtss2sd	%xmm2, %xmm2, %xmm2
.Ltmp109:
.LBB4_44:                               # %L..inline.65787
	#DEBUG_VALUE: compute_filtered_face_values_derivatives:fv_l <- [DW_OP_plus_uconst 376] [$rsp+0]
	#DEBUG_VALUE: compute_filtered_face_values_derivatives:values <- $r14
	#DEBUG_VALUE: compute_filtered_face_values_derivatives:fd_r <- [DW_OP_plus_uconst 16] [$rbp+0]
	vmovlhps	%xmm2, %xmm5, %xmm2 # xmm2 = xmm5[0],xmm2[0]
	vmovlhps	%xmm0, %xmm1, %xmm0 # xmm0 = xmm1[0],xmm0[0]
	vinsertf128	$1, %xmm2, %ymm0, %ymm0
	vunpcklpd	%xmm10, %xmm11, %xmm1 # xmm1 = xmm11[0],xmm10[0]
	vunpcklpd	%xmm8, %xmm9, %xmm2 # xmm2 = xmm9[0],xmm8[0]
	vinsertf128	$1, %xmm1, %ymm2, %ymm1
	vcvtpd2ps	%ymm1, %xmm1
	vcvtpd2ps	%ymm0, %xmm0
.Ltmp110:
	.loc	3 707 1 is_stmt 1       # vlasovsolver/cpu_face_estimates.hpp:707:1
	vmovupd	%xmm0, 16(%r15)
	vmovupd	%xmm1, (%r15)
.Ltmp111:
.LBB4_45:                               # %L.B0039
	#DEBUG_VALUE: compute_filtered_face_values_derivatives:fv_l <- [DW_OP_plus_uconst 376] [$rsp+0]
	#DEBUG_VALUE: compute_filtered_face_values_derivatives:values <- $r14
	#DEBUG_VALUE: compute_filtered_face_values_derivatives:fd_r <- [DW_OP_plus_uconst 16] [$rbp+0]
	.loc	3 0 1 is_stmt 0         # vlasovsolver/cpu_face_estimates.hpp:0:1
	vmovaps	%xmm15, 512(%rsp)       # 16-byte Spill
	vmovaps	%xmm7, 592(%rsp)        # 16-byte Spill
	vmovaps	%xmm13, 528(%rsp)       # 16-byte Spill
	vmovaps	%xmm12, 560(%rsp)       # 16-byte Spill
	vmovss	%xmm14, 276(%rsp)       # 4-byte Spill
	vmovss	%xmm6, 280(%rsp)        # 4-byte Spill
	vmovss	%xmm4, 284(%rsp)        # 4-byte Spill
	movq	64(%rsp), %rax          # 8-byte Reload
	.loc	3 822 1 is_stmt 1       # vlasovsolver/cpu_face_estimates.hpp:822:1
	vmovss	(%rax), %xmm0           # xmm0 = mem[0],zero,zero,zero
	movq	376(%rsp), %rsi         # 8-byte Reload
	vmovss	(%rsi), %xmm9           # xmm9 = mem[0],zero,zero,zero
	vsubss	%xmm9, %xmm0, %xmm12
	vmovups	4(%rsi), %xmm6
	movq	72(%rsp), %rcx          # 8-byte Reload
	movq	112(%rsp), %rax         # 8-byte Reload
	vmovups	(%rax,%rcx), %xmm0
	vsubps	%xmm6, %xmm0, %xmm11
	movq	184(%rsp), %rax         # 8-byte Reload
	vmovss	(%rax,%rcx), %xmm2      # xmm2 = mem[0],zero,zero,zero
	vmovss	20(%rsi), %xmm10        # xmm10 = mem[0],zero,zero,zero
	vsubss	%xmm10, %xmm2, %xmm8
	movq	456(%rsp), %r13         # 8-byte Reload
	vmovss	(%r13,%rcx), %xmm3      # xmm3 = mem[0],zero,zero,zero
	vmovss	24(%rsi), %xmm13        # xmm13 = mem[0],zero,zero,zero
	vsubss	%xmm13, %xmm3, %xmm3
	movq	104(%rsp), %rax         # 8-byte Reload
	vmovss	(%rax,%rcx), %xmm4      # xmm4 = mem[0],zero,zero,zero
	vmovss	28(%rsi), %xmm15        # xmm15 = mem[0],zero,zero,zero
	vsubss	%xmm15, %xmm4, %xmm5
	vmovss	%xmm12, 288(%rsp)
	vmovups	%xmm11, 292(%rsp)
	vmovss	%xmm8, 308(%rsp)
	vmovss	%xmm3, 312(%rsp)
	vmovss	%xmm5, 316(%rsp)
	movq	264(%rsp), %rax         # 8-byte Reload
	vmovss	(%rax), %xmm0           # xmm0 = mem[0],zero,zero,zero
	vmovss	%xmm0, 64(%rsp)         # 4-byte Spill
	vsubss	%xmm0, %xmm9, %xmm4
	movq	256(%rsp), %rax         # 8-byte Reload
	vmovups	(%rax), %xmm1
	movq	248(%rsp), %rax         # 8-byte Reload
	vmovss	(%rax), %xmm2           # xmm2 = mem[0],zero,zero,zero
	movq	240(%rsp), %rax         # 8-byte Reload
	vmovss	(%rax), %xmm0           # xmm0 = mem[0],zero,zero,zero
	movq	232(%rsp), %rax         # 8-byte Reload
	vmovss	(%rax), %xmm7           # xmm7 = mem[0],zero,zero,zero
	vmovss	%xmm4, 320(%rsp)
	.loc	3 867 1                 # vlasovsolver/cpu_face_estimates.hpp:867:1
	vmulss	%xmm4, %xmm12, %xmm14
	vmovaps	%xmm1, 80(%rsp)         # 16-byte Spill
	vmovaps	%xmm6, 576(%rsp)        # 16-byte Spill
	.loc	3 822 1                 # vlasovsolver/cpu_face_estimates.hpp:822:1
	vsubps	%xmm1, %xmm6, %xmm4
	vmovups	%xmm4, 324(%rsp)
	vmovss	%xmm2, 72(%rsp)         # 4-byte Spill
	vsubss	%xmm2, %xmm10, %xmm1
	vmovss	%xmm1, 340(%rsp)
	.loc	3 867 1                 # vlasovsolver/cpu_face_estimates.hpp:867:1
	vmulss	%xmm1, %xmm8, %xmm12
	vmovss	%xmm0, 124(%rsp)        # 4-byte Spill
	.loc	3 822 1                 # vlasovsolver/cpu_face_estimates.hpp:822:1
	vsubss	%xmm0, %xmm13, %xmm1
	vmovss	%xmm1, 344(%rsp)
	vmovss	%xmm7, 44(%rsp)         # 4-byte Spill
	vsubss	%xmm7, %xmm15, %xmm2
	vmovss	%xmm2, 348(%rsp)
	.loc	3 867 1                 # vlasovsolver/cpu_face_estimates.hpp:867:1
	vmulss	%xmm1, %xmm3, %xmm7
	vmulss	%xmm2, %xmm5, %xmm2
	vmovss	%xmm14, 128(%rsp)
	vinsertps	$16, 8(%r12), %xmm4, %xmm1 # xmm1 = xmm4[0],mem[0],xmm4[2,3]
	vinsertps	$32, 12(%r12), %xmm1, %xmm1 # xmm1 = xmm1[0,1],mem[0],xmm1[3]
	vinsertps	$48, 16(%r12), %xmm1, %xmm1 # xmm1 = xmm1[0,1,2],mem[0]
	vmovups	388(%rsp), %xmm8
	vblendps	$1, %xmm11, %xmm8, %xmm3 # xmm3 = xmm11[0],xmm8[1,2,3]
	vmulps	%xmm1, %xmm3, %xmm1
	vmovss	%xmm1, 132(%rsp)
	vmovss	4(%r12), %xmm3          # xmm3 = mem[0],zero,zero,zero
	vblendps	$1, %xmm3, %xmm4, %xmm3 # xmm3 = xmm3[0],xmm4[1,2,3]
	vblendps	$1, %xmm8, %xmm11, %xmm0 # xmm0 = xmm8[0],xmm11[1,2,3]
	vmulps	%xmm3, %xmm0, %xmm0
	vxorps	%xmm3, %xmm3, %xmm3
	.loc	3 1215 1                # vlasovsolver/cpu_face_estimates.hpp:1215:1
	vucomiss	%xmm14, %xmm3
	.loc	3 867 1                 # vlasovsolver/cpu_face_estimates.hpp:867:1
	vextractps	$1, %xmm0, 136(%rsp)
	vextractps	$2, %xmm0, 140(%rsp)
	vextractps	$3, %xmm0, 144(%rsp)
	vmovss	%xmm12, 148(%rsp)
	vmovss	%xmm7, 152(%rsp)
	vmovss	%xmm2, 156(%rsp)
	vmovshdup	%xmm8, %xmm6    # xmm6 = xmm8[1,1,3,3]
	vpermilpd	$1, %xmm8, %xmm4 # xmm4 = xmm8[1,0]
	vmovapd	%xmm4, 480(%rsp)        # 16-byte Spill
	vpermilps	$231, %xmm8, %xmm4 # xmm4 = xmm8[3,1,2,3]
	vmovaps	%xmm4, 496(%rsp)        # 16-byte Spill
	vmovss	404(%rsp), %xmm4        # xmm4 = mem[0],zero,zero,zero
	vmovss	%xmm4, 32(%rsp)         # 4-byte Spill
	vmulss	20(%r12), %xmm4, %xmm11
	vmovss	408(%rsp), %xmm4        # xmm4 = mem[0],zero,zero,zero
	vmovss	%xmm4, 48(%rsp)         # 4-byte Spill
	vmulss	24(%r12), %xmm4, %xmm14
	vmovss	412(%rsp), %xmm4        # xmm4 = mem[0],zero,zero,zero
	vmovss	%xmm4, 56(%rsp)         # 4-byte Spill
	vmulss	28(%r12), %xmm4, %xmm5
	.loc	3 261 1                 # vlasovsolver/cpu_face_estimates.hpp:261:1
	ja	.LBB4_47
.Ltmp112:
# %bb.46:                               # %L.B3890
	#DEBUG_VALUE: compute_filtered_face_values_derivatives:fv_l <- [DW_OP_plus_uconst 376] [$rsp+0]
	#DEBUG_VALUE: compute_filtered_face_values_derivatives:values <- $r14
	#DEBUG_VALUE: compute_filtered_face_values_derivatives:fd_r <- [DW_OP_plus_uconst 16] [$rbp+0]
	.loc	3 867 1                 # vlasovsolver/cpu_face_estimates.hpp:867:1
	vmovss	384(%rsp), %xmm4        # xmm4 = mem[0],zero,zero,zero
	vmulss	(%r12), %xmm4, %xmm4
	movb	$1, %r9b
	.loc	3 1215 1                # vlasovsolver/cpu_face_estimates.hpp:1215:1
	vucomiss	%xmm4, %xmm3
	.loc	3 985 1                 # vlasovsolver/cpu_face_estimates.hpp:985:1
	jbe	.LBB4_48
.Ltmp113:
.LBB4_47:                               # %L..inline.65940
	#DEBUG_VALUE: compute_filtered_face_values_derivatives:fv_l <- [DW_OP_plus_uconst 376] [$rsp+0]
	#DEBUG_VALUE: compute_filtered_face_values_derivatives:values <- $r14
	#DEBUG_VALUE: compute_filtered_face_values_derivatives:fd_r <- [DW_OP_plus_uconst 16] [$rbp+0]
	.loc	3 0 1 is_stmt 0         # vlasovsolver/cpu_face_estimates.hpp:0:1
	xorl	%r9d, %r9d
.Ltmp114:
.LBB4_48:                               # %L..inline.65943
	#DEBUG_VALUE: compute_filtered_face_values_derivatives:fv_l <- [DW_OP_plus_uconst 376] [$rsp+0]
	#DEBUG_VALUE: compute_filtered_face_values_derivatives:values <- $r14
	#DEBUG_VALUE: compute_filtered_face_values_derivatives:fd_r <- [DW_OP_plus_uconst 16] [$rbp+0]
	movq	472(%rsp), %r11         # 8-byte Reload
	addq	%r11, %r14
.Ltmp115:
	vxorps	%xmm3, %xmm3, %xmm3
	.loc	3 1215 1 is_stmt 1      # vlasovsolver/cpu_face_estimates.hpp:1215:1
	vucomiss	%xmm5, %xmm3
	setbe	%bl
	vucomiss	%xmm14, %xmm3
	setbe	%al
	vucomiss	%xmm11, %xmm3
	setbe	%cl
	vxorps	%xmm4, %xmm4, %xmm4
	vcmpnltps	%xmm4, %xmm1, %xmm1
	vcmpnltps	%xmm4, %xmm0, %xmm0
	vucomiss	%xmm2, %xmm3
	setbe	%dil
	vucomiss	%xmm7, %xmm3
	setbe	%r8b
	vucomiss	%xmm12, %xmm3
	setbe	%dl
.Ltmp116:
	#DEBUG_VALUE: filter <- [DW_OP_LLVM_fragment 56 8] undef
	#DEBUG_VALUE: filter <- [DW_OP_LLVM_fragment 48 8] undef
	#DEBUG_VALUE: filter <- [DW_OP_LLVM_fragment 40 8] undef
	#DEBUG_VALUE: filter <- [DW_OP_LLVM_fragment 32 8] undef
	#DEBUG_VALUE: filter <- [DW_OP_LLVM_fragment 24 8] undef
	#DEBUG_VALUE: filter <- [DW_OP_LLVM_fragment 16 8] undef
	#DEBUG_VALUE: filter <- [DW_OP_LLVM_fragment 8 8] undef
	#DEBUG_VALUE: filter <- [DW_OP_LLVM_fragment 0 8] undef
	.loc	3 1436 1                # vlasovsolver/cpu_face_estimates.hpp:1436:1
	vandps	%xmm0, %xmm1, %xmm7
	andb	%cl, %dl
	andb	%al, %r8b
	andb	%bl, %dil
.Ltmp117:
	.loc	3 262 1                 # vlasovsolver/cpu_face_estimates.hpp:262:1
	vmovmskps	%xmm7, %eax
	cmpb	$15, %al
	vmovaps	%xmm6, 544(%rsp)        # 16-byte Spill
	vmovaps	%xmm8, 432(%rsp)        # 16-byte Spill
	jne	.LBB4_57
.Ltmp118:
# %bb.49:                               # %L..inline.65943
	#DEBUG_VALUE: compute_filtered_face_values_derivatives:fv_l <- [DW_OP_plus_uconst 376] [$rsp+0]
	#DEBUG_VALUE: compute_filtered_face_values_derivatives:fd_r <- [DW_OP_plus_uconst 16] [$rbp+0]
	testb	%dil, %dil
	je	.LBB4_57
.Ltmp119:
# %bb.50:                               # %L..inline.65943
	#DEBUG_VALUE: compute_filtered_face_values_derivatives:fv_l <- [DW_OP_plus_uconst 376] [$rsp+0]
	#DEBUG_VALUE: compute_filtered_face_values_derivatives:fd_r <- [DW_OP_plus_uconst 16] [$rbp+0]
	testb	%r8b, %r8b
	je	.LBB4_57
.Ltmp120:
# %bb.51:                               # %L..inline.65943
	#DEBUG_VALUE: compute_filtered_face_values_derivatives:fv_l <- [DW_OP_plus_uconst 376] [$rsp+0]
	#DEBUG_VALUE: compute_filtered_face_values_derivatives:fd_r <- [DW_OP_plus_uconst 16] [$rbp+0]
	testb	%dl, %dl
	je	.LBB4_57
.Ltmp121:
# %bb.52:                               # %L..inline.65943
	#DEBUG_VALUE: compute_filtered_face_values_derivatives:fv_l <- [DW_OP_plus_uconst 376] [$rsp+0]
	#DEBUG_VALUE: compute_filtered_face_values_derivatives:fd_r <- [DW_OP_plus_uconst 16] [$rbp+0]
	testb	%r9b, %r9b
	je	.LBB4_57
.Ltmp122:
# %bb.53:
	#DEBUG_VALUE: compute_filtered_face_values_derivatives:fv_l <- [DW_OP_plus_uconst 376] [$rsp+0]
	#DEBUG_VALUE: compute_filtered_face_values_derivatives:fd_r <- [DW_OP_plus_uconst 16] [$rbp+0]
	.loc	3 0 1 is_stmt 0         # vlasovsolver/cpu_face_estimates.hpp:0:1
	vmovss	44(%rsp), %xmm11        # 4-byte Reload
                                        # xmm11 = mem[0],zero,zero,zero
	vmovss	124(%rsp), %xmm9        # 4-byte Reload
                                        # xmm9 = mem[0],zero,zero,zero
	vmovaps	80(%rsp), %xmm7         # 16-byte Reload
	vmovss	72(%rsp), %xmm8         # 4-byte Reload
                                        # xmm8 = mem[0],zero,zero,zero
	vmovss	64(%rsp), %xmm15        # 4-byte Reload
                                        # xmm15 = mem[0],zero,zero,zero
	jmp	.LBB4_90
.Ltmp123:
.LBB4_57:                               # %L.B3914.critedge
	#DEBUG_VALUE: compute_filtered_face_values_derivatives:fv_l <- [DW_OP_plus_uconst 376] [$rsp+0]
	#DEBUG_VALUE: compute_filtered_face_values_derivatives:fd_r <- [DW_OP_plus_uconst 16] [$rbp+0]
	.loc	3 883 1 is_stmt 1       # vlasovsolver/cpu_face_estimates.hpp:883:1
	vbroadcastss	.LCPI4_10(%rip), %xmm0 # xmm0 = [-5.0E-1,-5.0E-1,-5.0E-1,-5.0E-1]
	vmulps	%xmm0, %xmm8, %xmm1
.Ltmp124:
	.loc	3 264 1                 # vlasovsolver/cpu_face_estimates.hpp:264:1
	testb	%r9b, %r9b
	jne	.LBB4_59
.Ltmp125:
# %bb.58:                               # %L.B3915
	#DEBUG_VALUE: compute_filtered_face_values_derivatives:fv_l <- [DW_OP_plus_uconst 376] [$rsp+0]
	#DEBUG_VALUE: compute_filtered_face_values_derivatives:fd_r <- [DW_OP_plus_uconst 16] [$rbp+0]
	.loc	3 883 1                 # vlasovsolver/cpu_face_estimates.hpp:883:1
	vmovss	384(%rsp), %xmm0        # xmm0 = mem[0],zero,zero,zero
	vmulss	.LCPI4_10(%rip), %xmm0, %xmm0
	.loc	3 867 1                 # vlasovsolver/cpu_face_estimates.hpp:867:1
	vmulss	28(%rsp), %xmm0, %xmm0  # 4-byte Folded Reload
	.loc	3 822 1                 # vlasovsolver/cpu_face_estimates.hpp:822:1
	vaddss	64(%rsp), %xmm0, %xmm9  # 4-byte Folded Reload
.Ltmp126:
.LBB4_59:                               # %L..inline.66056
	#DEBUG_VALUE: compute_filtered_face_values_derivatives:fv_l <- [DW_OP_plus_uconst 376] [$rsp+0]
	#DEBUG_VALUE: compute_filtered_face_values_derivatives:fd_r <- [DW_OP_plus_uconst 16] [$rbp+0]
	.loc	3 0 1 is_stmt 0         # vlasovsolver/cpu_face_estimates.hpp:0:1
	vmovss	.LCPI4_11(%rip), %xmm0  # xmm0 = mem[0],zero,zero,zero
	vmovaps	592(%rsp), %xmm5        # 16-byte Reload
	vmulps	%xmm1, %xmm5, %xmm1
	.loc	3 1377 1 is_stmt 1      # vlasovsolver/cpu_face_estimates.hpp:1377:1
	testb	%dl, %dl
	movq	368(%rsp), %rcx         # 8-byte Reload
	vmovss	284(%rsp), %xmm11       # 4-byte Reload
                                        # xmm11 = mem[0],zero,zero,zero
	vmovss	280(%rsp), %xmm12       # 4-byte Reload
                                        # xmm12 = mem[0],zero,zero,zero
	vmovss	276(%rsp), %xmm3        # 4-byte Reload
                                        # xmm3 = mem[0],zero,zero,zero
	vmovss	72(%rsp), %xmm4         # 4-byte Reload
                                        # xmm4 = mem[0],zero,zero,zero
	jne	.LBB4_61
.Ltmp127:
# %bb.60:                               # %L..inline.66056
	#DEBUG_VALUE: compute_filtered_face_values_derivatives:fv_l <- [DW_OP_plus_uconst 376] [$rsp+0]
	#DEBUG_VALUE: compute_filtered_face_values_derivatives:fd_r <- [DW_OP_plus_uconst 16] [$rbp+0]
	.loc	3 0 1 is_stmt 0         # vlasovsolver/cpu_face_estimates.hpp:0:1
	vmulss	32(%rsp), %xmm0, %xmm2  # 4-byte Folded Reload
	vmulss	%xmm2, %xmm3, %xmm2
	vsubss	%xmm2, %xmm4, %xmm10
.Ltmp128:
.LBB4_61:                               # %L..inline.66056
	#DEBUG_VALUE: compute_filtered_face_values_derivatives:fv_l <- [DW_OP_plus_uconst 376] [$rsp+0]
	#DEBUG_VALUE: compute_filtered_face_values_derivatives:fd_r <- [DW_OP_plus_uconst 16] [$rbp+0]
	vaddps	80(%rsp), %xmm1, %xmm1  # 16-byte Folded Reload
	.loc	3 1377 1                # vlasovsolver/cpu_face_estimates.hpp:1377:1
	testb	%r8b, %r8b
	jne	.LBB4_63
.Ltmp129:
# %bb.62:                               # %L..inline.66056
	#DEBUG_VALUE: compute_filtered_face_values_derivatives:fv_l <- [DW_OP_plus_uconst 376] [$rsp+0]
	#DEBUG_VALUE: compute_filtered_face_values_derivatives:fd_r <- [DW_OP_plus_uconst 16] [$rbp+0]
	.loc	3 0 1                   # vlasovsolver/cpu_face_estimates.hpp:0:1
	vmulss	48(%rsp), %xmm0, %xmm2  # 4-byte Folded Reload
	vmulss	%xmm2, %xmm12, %xmm2
	vmovss	124(%rsp), %xmm4        # 4-byte Reload
                                        # xmm4 = mem[0],zero,zero,zero
	vsubss	%xmm2, %xmm4, %xmm13
.Ltmp130:
.LBB4_63:                               # %L..inline.66056
	#DEBUG_VALUE: compute_filtered_face_values_derivatives:fv_l <- [DW_OP_plus_uconst 376] [$rsp+0]
	#DEBUG_VALUE: compute_filtered_face_values_derivatives:fd_r <- [DW_OP_plus_uconst 16] [$rbp+0]
	.loc	3 1377 1                # vlasovsolver/cpu_face_estimates.hpp:1377:1
	vblendvps	%xmm7, 576(%rsp), %xmm1, %xmm1 # 16-byte Folded Reload
	testb	%dil, %dil
	jne	.LBB4_65
.Ltmp131:
# %bb.64:                               # %L..inline.66056
	#DEBUG_VALUE: compute_filtered_face_values_derivatives:fv_l <- [DW_OP_plus_uconst 376] [$rsp+0]
	#DEBUG_VALUE: compute_filtered_face_values_derivatives:fd_r <- [DW_OP_plus_uconst 16] [$rbp+0]
	.loc	3 0 1                   # vlasovsolver/cpu_face_estimates.hpp:0:1
	vmulss	56(%rsp), %xmm0, %xmm0  # 4-byte Folded Reload
	vmulss	%xmm0, %xmm11, %xmm0
	vmovss	44(%rsp), %xmm2         # 4-byte Reload
                                        # xmm2 = mem[0],zero,zero,zero
	vsubss	%xmm0, %xmm2, %xmm15
.Ltmp132:
.LBB4_65:                               # %L..inline.66056
	#DEBUG_VALUE: compute_filtered_face_values_derivatives:fv_l <- [DW_OP_plus_uconst 376] [$rsp+0]
	#DEBUG_VALUE: compute_filtered_face_values_derivatives:fd_r <- [DW_OP_plus_uconst 16] [$rbp+0]
	.loc	3 707 1 is_stmt 1       # vlasovsolver/cpu_face_estimates.hpp:707:1
	vmovss	%xmm9, (%rsi)
	vmovups	%xmm1, 4(%rsi)
	vmovss	%xmm10, 20(%rsi)
	vmovss	%xmm13, 24(%rsi)
	vmovss	%xmm15, 28(%rsi)
.Ltmp133:
	.loc	3 265 1                 # vlasovsolver/cpu_face_estimates.hpp:265:1
	testb	%r9b, %r9b
	je	.LBB4_66
.Ltmp134:
# %bb.67:                               # %L..inline.66131
	#DEBUG_VALUE: compute_filtered_face_values_derivatives:fv_l <- [DW_OP_plus_uconst 376] [$rsp+0]
	#DEBUG_VALUE: compute_filtered_face_values_derivatives:fd_r <- [DW_OP_plus_uconst 16] [$rbp+0]
	.loc	3 1377 1                # vlasovsolver/cpu_face_estimates.hpp:1377:1
	vmovss	(%rcx), %xmm4           # xmm4 = mem[0],zero,zero,zero
	jmp	.LBB4_68
.Ltmp135:
.LBB4_66:                               # %L.B3923
	#DEBUG_VALUE: compute_filtered_face_values_derivatives:fv_l <- [DW_OP_plus_uconst 376] [$rsp+0]
	#DEBUG_VALUE: compute_filtered_face_values_derivatives:fd_r <- [DW_OP_plus_uconst 16] [$rbp+0]
	.loc	3 0 1 is_stmt 0         # vlasovsolver/cpu_face_estimates.hpp:0:1
	vmovss	28(%rsp), %xmm0         # 4-byte Reload
                                        # xmm0 = mem[0],zero,zero,zero
	.loc	3 867 1 is_stmt 1       # vlasovsolver/cpu_face_estimates.hpp:867:1
	vmulss	384(%rsp), %xmm0, %xmm4
.Ltmp136:
.LBB4_68:                               # %L..inline.66134
	#DEBUG_VALUE: compute_filtered_face_values_derivatives:fv_l <- [DW_OP_plus_uconst 376] [$rsp+0]
	#DEBUG_VALUE: compute_filtered_face_values_derivatives:fd_r <- [DW_OP_plus_uconst 16] [$rbp+0]
	.loc	3 0 1 is_stmt 0         # vlasovsolver/cpu_face_estimates.hpp:0:1
	vmovaps	528(%rsp), %xmm0        # 16-byte Reload
	vmovaps	512(%rsp), %xmm1        # 16-byte Reload
	.loc	3 1377 1 is_stmt 1      # vlasovsolver/cpu_face_estimates.hpp:1377:1
	vpextrb	$0, %xmm7, %eax
	testb	$1, %al
	je	.LBB4_69
.Ltmp137:
# %bb.70:                               # %L..inline.66136
	#DEBUG_VALUE: compute_filtered_face_values_derivatives:fv_l <- [DW_OP_plus_uconst 376] [$rsp+0]
	#DEBUG_VALUE: compute_filtered_face_values_derivatives:fd_r <- [DW_OP_plus_uconst 16] [$rbp+0]
	vmovss	4(%rcx), %xmm5          # xmm5 = mem[0],zero,zero,zero
	jmp	.LBB4_71
.Ltmp138:
.LBB4_69:
	#DEBUG_VALUE: compute_filtered_face_values_derivatives:fv_l <- [DW_OP_plus_uconst 376] [$rsp+0]
	#DEBUG_VALUE: compute_filtered_face_values_derivatives:fd_r <- [DW_OP_plus_uconst 16] [$rbp+0]
	.loc	3 0 1 is_stmt 0         # vlasovsolver/cpu_face_estimates.hpp:0:1
	vmulss	%xmm8, %xmm5, %xmm5
.Ltmp139:
.LBB4_71:                               # %L..inline.66138
	#DEBUG_VALUE: compute_filtered_face_values_derivatives:fv_l <- [DW_OP_plus_uconst 376] [$rsp+0]
	#DEBUG_VALUE: compute_filtered_face_values_derivatives:fd_r <- [DW_OP_plus_uconst 16] [$rbp+0]
	.loc	3 1377 1                # vlasovsolver/cpu_face_estimates.hpp:1377:1
	vpextrb	$4, %xmm7, %eax
	testb	$1, %al
	je	.LBB4_72
.Ltmp140:
# %bb.73:                               # %L..inline.66139
	#DEBUG_VALUE: compute_filtered_face_values_derivatives:fv_l <- [DW_OP_plus_uconst 376] [$rsp+0]
	#DEBUG_VALUE: compute_filtered_face_values_derivatives:fd_r <- [DW_OP_plus_uconst 16] [$rbp+0]
	vmovss	8(%rcx), %xmm6          # xmm6 = mem[0],zero,zero,zero
	jmp	.LBB4_74
.Ltmp141:
.LBB4_72:
	#DEBUG_VALUE: compute_filtered_face_values_derivatives:fv_l <- [DW_OP_plus_uconst 376] [$rsp+0]
	#DEBUG_VALUE: compute_filtered_face_values_derivatives:fd_r <- [DW_OP_plus_uconst 16] [$rbp+0]
	.loc	3 0 1                   # vlasovsolver/cpu_face_estimates.hpp:0:1
	vmulss	%xmm6, %xmm1, %xmm6
.Ltmp142:
.LBB4_74:                               # %L..inline.66141
	#DEBUG_VALUE: compute_filtered_face_values_derivatives:fv_l <- [DW_OP_plus_uconst 376] [$rsp+0]
	#DEBUG_VALUE: compute_filtered_face_values_derivatives:fd_r <- [DW_OP_plus_uconst 16] [$rbp+0]
	.loc	3 1377 1                # vlasovsolver/cpu_face_estimates.hpp:1377:1
	vpextrb	$8, %xmm7, %eax
	testb	$1, %al
	je	.LBB4_75
.Ltmp143:
# %bb.76:                               # %L..inline.66142
	#DEBUG_VALUE: compute_filtered_face_values_derivatives:fv_l <- [DW_OP_plus_uconst 376] [$rsp+0]
	#DEBUG_VALUE: compute_filtered_face_values_derivatives:fd_r <- [DW_OP_plus_uconst 16] [$rbp+0]
	vmovss	12(%rcx), %xmm2         # xmm2 = mem[0],zero,zero,zero
	jmp	.LBB4_77
.Ltmp144:
.LBB4_75:
	#DEBUG_VALUE: compute_filtered_face_values_derivatives:fv_l <- [DW_OP_plus_uconst 376] [$rsp+0]
	#DEBUG_VALUE: compute_filtered_face_values_derivatives:fd_r <- [DW_OP_plus_uconst 16] [$rbp+0]
	.loc	3 0 1                   # vlasovsolver/cpu_face_estimates.hpp:0:1
	vmulss	480(%rsp), %xmm0, %xmm2 # 16-byte Folded Reload
.Ltmp145:
.LBB4_77:                               # %L..inline.66144
	#DEBUG_VALUE: compute_filtered_face_values_derivatives:fv_l <- [DW_OP_plus_uconst 376] [$rsp+0]
	#DEBUG_VALUE: compute_filtered_face_values_derivatives:fd_r <- [DW_OP_plus_uconst 16] [$rbp+0]
	.loc	3 1377 1                # vlasovsolver/cpu_face_estimates.hpp:1377:1
	vpextrb	$12, %xmm7, %eax
	testb	$1, %al
	je	.LBB4_78
.Ltmp146:
# %bb.79:                               # %L..inline.66145
	#DEBUG_VALUE: compute_filtered_face_values_derivatives:fv_l <- [DW_OP_plus_uconst 376] [$rsp+0]
	#DEBUG_VALUE: compute_filtered_face_values_derivatives:fd_r <- [DW_OP_plus_uconst 16] [$rbp+0]
	vmovss	16(%rcx), %xmm0         # xmm0 = mem[0],zero,zero,zero
	testb	%dl, %dl
	jne	.LBB4_82
.Ltmp147:
.LBB4_81:
	#DEBUG_VALUE: compute_filtered_face_values_derivatives:fv_l <- [DW_OP_plus_uconst 376] [$rsp+0]
	#DEBUG_VALUE: compute_filtered_face_values_derivatives:fd_r <- [DW_OP_plus_uconst 16] [$rbp+0]
	.loc	3 0 1                   # vlasovsolver/cpu_face_estimates.hpp:0:1
	vmulss	32(%rsp), %xmm3, %xmm1  # 4-byte Folded Reload
	.loc	3 1377 1                # vlasovsolver/cpu_face_estimates.hpp:1377:1
	testb	%r8b, %r8b
	jne	.LBB4_85
.Ltmp148:
.LBB4_84:
	#DEBUG_VALUE: compute_filtered_face_values_derivatives:fv_l <- [DW_OP_plus_uconst 376] [$rsp+0]
	#DEBUG_VALUE: compute_filtered_face_values_derivatives:fd_r <- [DW_OP_plus_uconst 16] [$rbp+0]
	.loc	3 0 1                   # vlasovsolver/cpu_face_estimates.hpp:0:1
	vmulss	48(%rsp), %xmm12, %xmm7 # 4-byte Folded Reload
	.loc	3 1377 1                # vlasovsolver/cpu_face_estimates.hpp:1377:1
	testb	%dil, %dil
	jne	.LBB4_88
.Ltmp149:
.LBB4_87:
	#DEBUG_VALUE: compute_filtered_face_values_derivatives:fv_l <- [DW_OP_plus_uconst 376] [$rsp+0]
	#DEBUG_VALUE: compute_filtered_face_values_derivatives:fd_r <- [DW_OP_plus_uconst 16] [$rbp+0]
	.loc	3 0 1                   # vlasovsolver/cpu_face_estimates.hpp:0:1
	vmulss	56(%rsp), %xmm11, %xmm3 # 4-byte Folded Reload
	jmp	.LBB4_89
.Ltmp150:
.LBB4_78:
	#DEBUG_VALUE: compute_filtered_face_values_derivatives:fv_l <- [DW_OP_plus_uconst 376] [$rsp+0]
	#DEBUG_VALUE: compute_filtered_face_values_derivatives:fd_r <- [DW_OP_plus_uconst 16] [$rbp+0]
	vmovaps	496(%rsp), %xmm0        # 16-byte Reload
	vmulss	560(%rsp), %xmm0, %xmm0 # 16-byte Folded Reload
	.loc	3 1377 1                # vlasovsolver/cpu_face_estimates.hpp:1377:1
	testb	%dl, %dl
	je	.LBB4_81
.Ltmp151:
.LBB4_82:                               # %L..inline.66148
	#DEBUG_VALUE: compute_filtered_face_values_derivatives:fv_l <- [DW_OP_plus_uconst 376] [$rsp+0]
	#DEBUG_VALUE: compute_filtered_face_values_derivatives:fd_r <- [DW_OP_plus_uconst 16] [$rbp+0]
	vmovss	20(%rcx), %xmm1         # xmm1 = mem[0],zero,zero,zero
	testb	%r8b, %r8b
	je	.LBB4_84
.Ltmp152:
.LBB4_85:                               # %L..inline.66151
	#DEBUG_VALUE: compute_filtered_face_values_derivatives:fv_l <- [DW_OP_plus_uconst 376] [$rsp+0]
	#DEBUG_VALUE: compute_filtered_face_values_derivatives:fd_r <- [DW_OP_plus_uconst 16] [$rbp+0]
	vmovss	24(%rcx), %xmm7         # xmm7 = mem[0],zero,zero,zero
	testb	%dil, %dil
	je	.LBB4_87
.Ltmp153:
.LBB4_88:                               # %L..inline.66154
	#DEBUG_VALUE: compute_filtered_face_values_derivatives:fv_l <- [DW_OP_plus_uconst 376] [$rsp+0]
	#DEBUG_VALUE: compute_filtered_face_values_derivatives:fd_r <- [DW_OP_plus_uconst 16] [$rbp+0]
	vmovss	28(%rcx), %xmm3         # xmm3 = mem[0],zero,zero,zero
.Ltmp154:
.LBB4_89:                               # %L..inline.66156
	#DEBUG_VALUE: compute_filtered_face_values_derivatives:fv_l <- [DW_OP_plus_uconst 376] [$rsp+0]
	#DEBUG_VALUE: compute_filtered_face_values_derivatives:fd_r <- [DW_OP_plus_uconst 16] [$rbp+0]
	.loc	3 707 1 is_stmt 1       # vlasovsolver/cpu_face_estimates.hpp:707:1
	vmovss	%xmm4, (%rcx)
	vmovss	%xmm5, 4(%rcx)
	vmovss	%xmm6, 8(%rcx)
	vmovss	%xmm2, 12(%rcx)
	vmovss	%xmm0, 16(%rcx)
	vmovss	%xmm1, 20(%rcx)
	vmovss	%xmm7, 24(%rcx)
	vmovss	%xmm3, 28(%rcx)
	movq	264(%rsp), %rax         # 8-byte Reload
.Ltmp155:
	.loc	3 822 1                 # vlasovsolver/cpu_face_estimates.hpp:822:1
	vmovss	(%rax), %xmm15          # xmm15 = mem[0],zero,zero,zero
	movq	256(%rsp), %rax         # 8-byte Reload
	vmovups	(%rax), %xmm7
	movq	248(%rsp), %rax         # 8-byte Reload
	vmovss	(%rax), %xmm8           # xmm8 = mem[0],zero,zero,zero
	movq	240(%rsp), %rax         # 8-byte Reload
	vmovss	(%rax), %xmm9           # xmm9 = mem[0],zero,zero,zero
	movq	232(%rsp), %rax         # 8-byte Reload
	vmovss	(%rax), %xmm11          # xmm11 = mem[0],zero,zero,zero
.Ltmp156:
.LBB4_90:                               # %L.B0042
	#DEBUG_VALUE: compute_filtered_face_values_derivatives:fv_l <- [DW_OP_plus_uconst 376] [$rsp+0]
	#DEBUG_VALUE: compute_filtered_face_values_derivatives:fd_r <- [DW_OP_plus_uconst 16] [$rbp+0]
	vmovss	(%r14), %xmm1           # xmm1 = mem[0],zero,zero,zero
	vmovss	(%r10), %xmm12          # xmm12 = mem[0],zero,zero,zero
	vsubss	%xmm12, %xmm1, %xmm3
	movq	112(%rsp), %rax         # 8-byte Reload
	vmovups	(%rax,%r11), %xmm2
	vmovups	4(%r10), %xmm10
	vsubps	%xmm10, %xmm2, %xmm4
	movq	184(%rsp), %rax         # 8-byte Reload
	vmovss	(%rax,%r11), %xmm5      # xmm5 = mem[0],zero,zero,zero
	vmovss	20(%r10), %xmm14        # xmm14 = mem[0],zero,zero,zero
	vsubss	%xmm14, %xmm5, %xmm0
	vmovss	(%r13,%r11), %xmm6      # xmm6 = mem[0],zero,zero,zero
	vmovss	24(%r10), %xmm5         # xmm5 = mem[0],zero,zero,zero
	vsubss	%xmm5, %xmm6, %xmm1
	movq	104(%rsp), %rax         # 8-byte Reload
	vmovss	(%rax,%r11), %xmm6      # xmm6 = mem[0],zero,zero,zero
	vmovss	28(%r10), %xmm13        # xmm13 = mem[0],zero,zero,zero
	vsubss	%xmm13, %xmm6, %xmm2
	vmovss	%xmm3, 128(%rsp)
	vmovups	%xmm4, 132(%rsp)
	vmovss	%xmm0, 148(%rsp)
	vmovss	%xmm1, 152(%rsp)
	vmovss	%xmm2, 156(%rsp)
	vmovss	%xmm15, 64(%rsp)        # 4-byte Spill
	vmovss	%xmm12, 184(%rsp)       # 4-byte Spill
	vsubss	%xmm15, %xmm12, %xmm6
	vmovaps	%xmm10, %xmm12
	vmovaps	%xmm5, %xmm10
	vmovaps	%xmm7, 80(%rsp)         # 16-byte Spill
	vsubps	%xmm7, %xmm12, %xmm5
	vmovss	%xmm6, 288(%rsp)
	.loc	3 867 1                 # vlasovsolver/cpu_face_estimates.hpp:867:1
	vmulss	%xmm6, %xmm3, %xmm3
	vmovss	%xmm8, 72(%rsp)         # 4-byte Spill
	.loc	3 822 1                 # vlasovsolver/cpu_face_estimates.hpp:822:1
	vsubss	%xmm8, %xmm14, %xmm7
	vmovups	%xmm5, 292(%rsp)
	.loc	3 867 1                 # vlasovsolver/cpu_face_estimates.hpp:867:1
	vmulps	%xmm5, %xmm4, %xmm6
	.loc	3 822 1                 # vlasovsolver/cpu_face_estimates.hpp:822:1
	vsubss	%xmm9, %xmm10, %xmm4
	vmovss	%xmm7, 308(%rsp)
	.loc	3 867 1                 # vlasovsolver/cpu_face_estimates.hpp:867:1
	vmulss	%xmm7, %xmm0, %xmm0
	.loc	3 822 1                 # vlasovsolver/cpu_face_estimates.hpp:822:1
	vsubss	%xmm11, %xmm13, %xmm5
	vmovss	%xmm4, 312(%rsp)
	vmovss	%xmm5, 316(%rsp)
	.loc	3 867 1                 # vlasovsolver/cpu_face_estimates.hpp:867:1
	vmulss	%xmm4, %xmm1, %xmm1
	vmulss	%xmm5, %xmm2, %xmm2
	vxorps	%xmm5, %xmm5, %xmm5
	.loc	3 1215 1                # vlasovsolver/cpu_face_estimates.hpp:1215:1
	vucomiss	%xmm0, %xmm5
	setbe	%r9b
	vucomiss	%xmm1, %xmm5
	setbe	%cl
	vucomiss	%xmm2, %xmm5
	setbe	%dl
	vucomiss	%xmm3, %xmm5
	setbe	%al
	.loc	3 867 1                 # vlasovsolver/cpu_face_estimates.hpp:867:1
	vmovss	384(%rsp), %xmm8        # xmm8 = mem[0],zero,zero,zero
	vmulss	(%r15), %xmm8, %xmm0
	vmovss	32(%rsp), %xmm1         # 4-byte Reload
                                        # xmm1 = mem[0],zero,zero,zero
	vmulss	20(%r15), %xmm1, %xmm1
	vmovss	48(%rsp), %xmm2         # 4-byte Reload
                                        # xmm2 = mem[0],zero,zero,zero
	vmulss	24(%r15), %xmm2, %xmm2
	vmovss	56(%rsp), %xmm3         # 4-byte Reload
                                        # xmm3 = mem[0],zero,zero,zero
	vmulss	28(%r15), %xmm3, %xmm3
	.loc	3 1215 1                # vlasovsolver/cpu_face_estimates.hpp:1215:1
	vucomiss	%xmm1, %xmm5
	setbe	%r8b
	vucomiss	%xmm2, %xmm5
	setbe	%dil
	vucomiss	%xmm3, %xmm5
	setbe	%sil
	vucomiss	%xmm0, %xmm5
	vmovaps	432(%rsp), %xmm4        # 16-byte Reload
	.loc	3 867 1                 # vlasovsolver/cpu_face_estimates.hpp:867:1
	vmulps	4(%r15), %xmm4, %xmm5
	vmovss	%xmm0, 320(%rsp)
	vmovups	%xmm5, 324(%rsp)
	vmovss	%xmm1, 340(%rsp)
	vmovss	%xmm2, 344(%rsp)
	vmovss	%xmm3, 348(%rsp)
	.loc	3 1215 1                # vlasovsolver/cpu_face_estimates.hpp:1215:1
	vxorps	%xmm0, %xmm0, %xmm0
	vcmpnltps	%xmm0, %xmm6, %xmm1
	vcmpnltps	%xmm0, %xmm5, %xmm0
	.loc	3 1436 1                # vlasovsolver/cpu_face_estimates.hpp:1436:1
	vandps	%xmm0, %xmm1, %xmm6
	.loc	3 1215 1                # vlasovsolver/cpu_face_estimates.hpp:1215:1
	setbe	%bl
.Ltmp157:
	#DEBUG_VALUE: filter <- [DW_OP_LLVM_fragment 56 8] undef
	#DEBUG_VALUE: filter <- [DW_OP_LLVM_fragment 48 8] undef
	#DEBUG_VALUE: filter <- [DW_OP_LLVM_fragment 40 8] undef
	#DEBUG_VALUE: filter <- [DW_OP_LLVM_fragment 32 8] undef
	#DEBUG_VALUE: filter <- [DW_OP_LLVM_fragment 24 8] undef
	#DEBUG_VALUE: filter <- [DW_OP_LLVM_fragment 16 8] undef
	#DEBUG_VALUE: filter <- [DW_OP_LLVM_fragment 8 8] undef
	#DEBUG_VALUE: filter <- [DW_OP_LLVM_fragment 0 8] undef
	.loc	3 270 1                 # vlasovsolver/cpu_face_estimates.hpp:270:1
	andb	%al, %bl
.Ltmp158:
	.loc	3 1436 1                # vlasovsolver/cpu_face_estimates.hpp:1436:1
	andb	%r9b, %r8b
	andb	%cl, %dil
	andb	%dl, %sil
.Ltmp159:
	.loc	3 270 1                 # vlasovsolver/cpu_face_estimates.hpp:270:1
	vmovmskps	%xmm6, %eax
	cmpb	$15, %al
	jne	.LBB4_95
.Ltmp160:
# %bb.91:                               # %L.B0042
	#DEBUG_VALUE: compute_filtered_face_values_derivatives:fv_l <- [DW_OP_plus_uconst 376] [$rsp+0]
	#DEBUG_VALUE: compute_filtered_face_values_derivatives:fd_r <- [DW_OP_plus_uconst 16] [$rbp+0]
	testb	%bl, %bl
	je	.LBB4_95
.Ltmp161:
# %bb.92:                               # %L.B0042
	#DEBUG_VALUE: compute_filtered_face_values_derivatives:fv_l <- [DW_OP_plus_uconst 376] [$rsp+0]
	#DEBUG_VALUE: compute_filtered_face_values_derivatives:fd_r <- [DW_OP_plus_uconst 16] [$rbp+0]
	testb	%r8b, %r8b
	je	.LBB4_95
.Ltmp162:
# %bb.93:                               # %L.B0042
	#DEBUG_VALUE: compute_filtered_face_values_derivatives:fv_l <- [DW_OP_plus_uconst 376] [$rsp+0]
	#DEBUG_VALUE: compute_filtered_face_values_derivatives:fd_r <- [DW_OP_plus_uconst 16] [$rbp+0]
	testb	%dil, %dil
	je	.LBB4_95
.Ltmp163:
# %bb.94:                               # %L.B0042
	#DEBUG_VALUE: compute_filtered_face_values_derivatives:fv_l <- [DW_OP_plus_uconst 376] [$rsp+0]
	#DEBUG_VALUE: compute_filtered_face_values_derivatives:fd_r <- [DW_OP_plus_uconst 16] [$rbp+0]
	testb	%sil, %sil
	jne	.LBB4_128
.Ltmp164:
.LBB4_95:                               # %L.B3955.critedge
	#DEBUG_VALUE: compute_filtered_face_values_derivatives:fv_l <- [DW_OP_plus_uconst 376] [$rsp+0]
	#DEBUG_VALUE: compute_filtered_face_values_derivatives:fd_r <- [DW_OP_plus_uconst 16] [$rbp+0]
	.loc	3 0 1 is_stmt 0         # vlasovsolver/cpu_face_estimates.hpp:0:1
	vmovaps	%xmm9, %xmm1
	vmovaps	%xmm11, %xmm2
	.loc	3 883 1 is_stmt 1       # vlasovsolver/cpu_face_estimates.hpp:883:1
	vbroadcastss	.LCPI4_11(%rip), %xmm9 # xmm9 = [5.0E-1,5.0E-1,5.0E-1,5.0E-1]
	vmulps	%xmm9, %xmm4, %xmm3
	.loc	3 867 1                 # vlasovsolver/cpu_face_estimates.hpp:867:1
	vmovups	196(%rsp), %xmm15
	vmovss	212(%rsp), %xmm11       # xmm11 = mem[0],zero,zero,zero
	vmovss	216(%rsp), %xmm0        # xmm0 = mem[0],zero,zero,zero
	vmovss	%xmm0, 104(%rsp)        # 4-byte Spill
	vmovss	220(%rsp), %xmm0        # xmm0 = mem[0],zero,zero,zero
	vmovss	%xmm0, 112(%rsp)        # 4-byte Spill
.Ltmp165:
	.loc	3 272 1                 # vlasovsolver/cpu_face_estimates.hpp:272:1
	testb	%bl, %bl
	vmovss	184(%rsp), %xmm5        # 4-byte Reload
                                        # xmm5 = mem[0],zero,zero,zero
	jne	.LBB4_97
.Ltmp166:
# %bb.96:                               # %L.B3956
	#DEBUG_VALUE: compute_filtered_face_values_derivatives:fv_l <- [DW_OP_plus_uconst 376] [$rsp+0]
	#DEBUG_VALUE: compute_filtered_face_values_derivatives:fd_r <- [DW_OP_plus_uconst 16] [$rbp+0]
	.loc	3 883 1                 # vlasovsolver/cpu_face_estimates.hpp:883:1
	vmulss	.LCPI4_11(%rip), %xmm8, %xmm0
	.loc	3 867 1                 # vlasovsolver/cpu_face_estimates.hpp:867:1
	vmulss	192(%rsp), %xmm0, %xmm0
	.loc	3 759 1                 # vlasovsolver/cpu_face_estimates.hpp:759:1
	vaddss	64(%rsp), %xmm0, %xmm5  # 4-byte Folded Reload
.Ltmp167:
.LBB4_97:                               # %L..inline.66438
	#DEBUG_VALUE: compute_filtered_face_values_derivatives:fv_l <- [DW_OP_plus_uconst 376] [$rsp+0]
	#DEBUG_VALUE: compute_filtered_face_values_derivatives:fd_r <- [DW_OP_plus_uconst 16] [$rbp+0]
	.loc	3 0 0 is_stmt 0         # vlasovsolver/cpu_face_estimates.hpp:0:0
	vmulps	%xmm15, %xmm3, %xmm3
	.loc	3 1377 1 is_stmt 1      # vlasovsolver/cpu_face_estimates.hpp:1377:1
	testb	%r8b, %r8b
	vmovaps	80(%rsp), %xmm7         # 16-byte Reload
	jne	.LBB4_99
.Ltmp168:
# %bb.98:                               # %L..inline.66438
	#DEBUG_VALUE: compute_filtered_face_values_derivatives:fv_l <- [DW_OP_plus_uconst 376] [$rsp+0]
	#DEBUG_VALUE: compute_filtered_face_values_derivatives:fd_r <- [DW_OP_plus_uconst 16] [$rbp+0]
	.loc	3 0 1 is_stmt 0         # vlasovsolver/cpu_face_estimates.hpp:0:1
	vmulss	32(%rsp), %xmm9, %xmm0  # 4-byte Folded Reload
	vmulss	%xmm11, %xmm0, %xmm0
	vaddss	72(%rsp), %xmm0, %xmm14 # 4-byte Folded Reload
.Ltmp169:
.LBB4_99:                               # %L..inline.66438
	#DEBUG_VALUE: compute_filtered_face_values_derivatives:fv_l <- [DW_OP_plus_uconst 376] [$rsp+0]
	#DEBUG_VALUE: compute_filtered_face_values_derivatives:fd_r <- [DW_OP_plus_uconst 16] [$rbp+0]
	vaddps	%xmm3, %xmm7, %xmm3
	.loc	3 1377 1                # vlasovsolver/cpu_face_estimates.hpp:1377:1
	testb	%dil, %dil
	jne	.LBB4_101
.Ltmp170:
# %bb.100:                              # %L..inline.66438
	#DEBUG_VALUE: compute_filtered_face_values_derivatives:fv_l <- [DW_OP_plus_uconst 376] [$rsp+0]
	#DEBUG_VALUE: compute_filtered_face_values_derivatives:fd_r <- [DW_OP_plus_uconst 16] [$rbp+0]
	.loc	3 0 1                   # vlasovsolver/cpu_face_estimates.hpp:0:1
	vmulss	48(%rsp), %xmm9, %xmm0  # 4-byte Folded Reload
	vmulss	104(%rsp), %xmm0, %xmm0 # 4-byte Folded Reload
	vaddss	%xmm0, %xmm1, %xmm10
.Ltmp171:
.LBB4_101:                              # %L..inline.66438
	#DEBUG_VALUE: compute_filtered_face_values_derivatives:fv_l <- [DW_OP_plus_uconst 376] [$rsp+0]
	#DEBUG_VALUE: compute_filtered_face_values_derivatives:fd_r <- [DW_OP_plus_uconst 16] [$rbp+0]
	.loc	3 1377 1                # vlasovsolver/cpu_face_estimates.hpp:1377:1
	vblendvps	%xmm6, %xmm12, %xmm3, %xmm1
	testb	%sil, %sil
	jne	.LBB4_103
.Ltmp172:
# %bb.102:                              # %L..inline.66438
	#DEBUG_VALUE: compute_filtered_face_values_derivatives:fv_l <- [DW_OP_plus_uconst 376] [$rsp+0]
	#DEBUG_VALUE: compute_filtered_face_values_derivatives:fd_r <- [DW_OP_plus_uconst 16] [$rbp+0]
	.loc	3 0 1                   # vlasovsolver/cpu_face_estimates.hpp:0:1
	vmulss	56(%rsp), %xmm9, %xmm0  # 4-byte Folded Reload
	vmulss	112(%rsp), %xmm0, %xmm0 # 4-byte Folded Reload
	vaddss	%xmm0, %xmm2, %xmm13
.Ltmp173:
.LBB4_103:                              # %L..inline.66438
	#DEBUG_VALUE: compute_filtered_face_values_derivatives:fv_l <- [DW_OP_plus_uconst 376] [$rsp+0]
	#DEBUG_VALUE: compute_filtered_face_values_derivatives:fd_r <- [DW_OP_plus_uconst 16] [$rbp+0]
	.loc	3 707 1 is_stmt 1       # vlasovsolver/cpu_face_estimates.hpp:707:1
	vmovss	%xmm5, (%r10)
	vmovups	%xmm1, 4(%r10)
	vmovss	%xmm14, 20(%r10)
	vmovss	%xmm10, 24(%r10)
	vmovss	%xmm13, 28(%r10)
.Ltmp174:
	.loc	3 273 1                 # vlasovsolver/cpu_face_estimates.hpp:273:1
	testb	%bl, %bl
	je	.LBB4_104
.Ltmp175:
# %bb.105:                              # %L..inline.66513
	#DEBUG_VALUE: compute_filtered_face_values_derivatives:fv_l <- [DW_OP_plus_uconst 376] [$rsp+0]
	#DEBUG_VALUE: compute_filtered_face_values_derivatives:fd_r <- [DW_OP_plus_uconst 16] [$rbp+0]
	.loc	3 1377 1                # vlasovsolver/cpu_face_estimates.hpp:1377:1
	vmovss	(%r15), %xmm0           # xmm0 = mem[0],zero,zero,zero
	jmp	.LBB4_106
.Ltmp176:
.LBB4_104:                              # %L.B3964
	#DEBUG_VALUE: compute_filtered_face_values_derivatives:fv_l <- [DW_OP_plus_uconst 376] [$rsp+0]
	#DEBUG_VALUE: compute_filtered_face_values_derivatives:fd_r <- [DW_OP_plus_uconst 16] [$rbp+0]
	.loc	3 867 1                 # vlasovsolver/cpu_face_estimates.hpp:867:1
	vmulss	192(%rsp), %xmm8, %xmm0
.Ltmp177:
.LBB4_106:                              # %L..inline.66516
	#DEBUG_VALUE: compute_filtered_face_values_derivatives:fv_l <- [DW_OP_plus_uconst 376] [$rsp+0]
	#DEBUG_VALUE: compute_filtered_face_values_derivatives:fd_r <- [DW_OP_plus_uconst 16] [$rbp+0]
	.loc	3 1377 1                # vlasovsolver/cpu_face_estimates.hpp:1377:1
	vpextrb	$0, %xmm6, %eax
	testb	$1, %al
	je	.LBB4_107
.Ltmp178:
# %bb.108:                              # %L..inline.66518
	#DEBUG_VALUE: compute_filtered_face_values_derivatives:fv_l <- [DW_OP_plus_uconst 376] [$rsp+0]
	#DEBUG_VALUE: compute_filtered_face_values_derivatives:fd_r <- [DW_OP_plus_uconst 16] [$rbp+0]
	vmovss	4(%r15), %xmm1          # xmm1 = mem[0],zero,zero,zero
	jmp	.LBB4_109
.Ltmp179:
.LBB4_107:
	#DEBUG_VALUE: compute_filtered_face_values_derivatives:fv_l <- [DW_OP_plus_uconst 376] [$rsp+0]
	#DEBUG_VALUE: compute_filtered_face_values_derivatives:fd_r <- [DW_OP_plus_uconst 16] [$rbp+0]
	.loc	3 0 1 is_stmt 0         # vlasovsolver/cpu_face_estimates.hpp:0:1
	vmulss	%xmm15, %xmm4, %xmm1
.Ltmp180:
.LBB4_109:                              # %L..inline.66520
	#DEBUG_VALUE: compute_filtered_face_values_derivatives:fv_l <- [DW_OP_plus_uconst 376] [$rsp+0]
	#DEBUG_VALUE: compute_filtered_face_values_derivatives:fd_r <- [DW_OP_plus_uconst 16] [$rbp+0]
	.loc	3 1377 1                # vlasovsolver/cpu_face_estimates.hpp:1377:1
	vpextrb	$4, %xmm6, %eax
	testb	$1, %al
	je	.LBB4_110
.Ltmp181:
# %bb.111:                              # %L..inline.66521
	#DEBUG_VALUE: compute_filtered_face_values_derivatives:fv_l <- [DW_OP_plus_uconst 376] [$rsp+0]
	#DEBUG_VALUE: compute_filtered_face_values_derivatives:fd_r <- [DW_OP_plus_uconst 16] [$rbp+0]
	vmovss	8(%r15), %xmm2          # xmm2 = mem[0],zero,zero,zero
	jmp	.LBB4_112
.Ltmp182:
.LBB4_110:
	#DEBUG_VALUE: compute_filtered_face_values_derivatives:fv_l <- [DW_OP_plus_uconst 376] [$rsp+0]
	#DEBUG_VALUE: compute_filtered_face_values_derivatives:fd_r <- [DW_OP_plus_uconst 16] [$rbp+0]
	.loc	3 0 1                   # vlasovsolver/cpu_face_estimates.hpp:0:1
	vmovshdup	%xmm15, %xmm2   # xmm2 = xmm15[1,1,3,3]
	vmulss	544(%rsp), %xmm2, %xmm2 # 16-byte Folded Reload
.Ltmp183:
.LBB4_112:                              # %L..inline.66523
	#DEBUG_VALUE: compute_filtered_face_values_derivatives:fv_l <- [DW_OP_plus_uconst 376] [$rsp+0]
	#DEBUG_VALUE: compute_filtered_face_values_derivatives:fd_r <- [DW_OP_plus_uconst 16] [$rbp+0]
	.loc	3 1377 1                # vlasovsolver/cpu_face_estimates.hpp:1377:1
	vpextrb	$8, %xmm6, %eax
	testb	$1, %al
	je	.LBB4_113
.Ltmp184:
# %bb.114:                              # %L..inline.66524
	#DEBUG_VALUE: compute_filtered_face_values_derivatives:fv_l <- [DW_OP_plus_uconst 376] [$rsp+0]
	#DEBUG_VALUE: compute_filtered_face_values_derivatives:fd_r <- [DW_OP_plus_uconst 16] [$rbp+0]
	vmovss	12(%r15), %xmm3         # xmm3 = mem[0],zero,zero,zero
	jmp	.LBB4_115
.Ltmp185:
.LBB4_113:
	#DEBUG_VALUE: compute_filtered_face_values_derivatives:fv_l <- [DW_OP_plus_uconst 376] [$rsp+0]
	#DEBUG_VALUE: compute_filtered_face_values_derivatives:fd_r <- [DW_OP_plus_uconst 16] [$rbp+0]
	.loc	3 0 1                   # vlasovsolver/cpu_face_estimates.hpp:0:1
	vpermilpd	$1, %xmm15, %xmm3 # xmm3 = xmm15[1,0]
	vmulss	480(%rsp), %xmm3, %xmm3 # 16-byte Folded Reload
.Ltmp186:
.LBB4_115:                              # %L..inline.66526
	#DEBUG_VALUE: compute_filtered_face_values_derivatives:fv_l <- [DW_OP_plus_uconst 376] [$rsp+0]
	#DEBUG_VALUE: compute_filtered_face_values_derivatives:fd_r <- [DW_OP_plus_uconst 16] [$rbp+0]
	.loc	3 1377 1                # vlasovsolver/cpu_face_estimates.hpp:1377:1
	vpextrb	$12, %xmm6, %eax
	testb	$1, %al
	je	.LBB4_116
.Ltmp187:
# %bb.117:                              # %L..inline.66527
	#DEBUG_VALUE: compute_filtered_face_values_derivatives:fv_l <- [DW_OP_plus_uconst 376] [$rsp+0]
	#DEBUG_VALUE: compute_filtered_face_values_derivatives:fd_r <- [DW_OP_plus_uconst 16] [$rbp+0]
	vmovss	16(%r15), %xmm4         # xmm4 = mem[0],zero,zero,zero
	testb	%r8b, %r8b
	jne	.LBB4_120
.Ltmp188:
.LBB4_119:
	#DEBUG_VALUE: compute_filtered_face_values_derivatives:fv_l <- [DW_OP_plus_uconst 376] [$rsp+0]
	#DEBUG_VALUE: compute_filtered_face_values_derivatives:fd_r <- [DW_OP_plus_uconst 16] [$rbp+0]
	.loc	3 0 1                   # vlasovsolver/cpu_face_estimates.hpp:0:1
	vmulss	32(%rsp), %xmm11, %xmm5 # 4-byte Folded Reload
	.loc	3 1377 1                # vlasovsolver/cpu_face_estimates.hpp:1377:1
	testb	%dil, %dil
	jne	.LBB4_123
.Ltmp189:
.LBB4_122:
	#DEBUG_VALUE: compute_filtered_face_values_derivatives:fv_l <- [DW_OP_plus_uconst 376] [$rsp+0]
	#DEBUG_VALUE: compute_filtered_face_values_derivatives:fd_r <- [DW_OP_plus_uconst 16] [$rbp+0]
	.loc	3 0 1                   # vlasovsolver/cpu_face_estimates.hpp:0:1
	vmovss	104(%rsp), %xmm6        # 4-byte Reload
                                        # xmm6 = mem[0],zero,zero,zero
	vmulss	48(%rsp), %xmm6, %xmm6  # 4-byte Folded Reload
	.loc	3 1377 1                # vlasovsolver/cpu_face_estimates.hpp:1377:1
	testb	%sil, %sil
	jne	.LBB4_126
.Ltmp190:
.LBB4_125:
	#DEBUG_VALUE: compute_filtered_face_values_derivatives:fv_l <- [DW_OP_plus_uconst 376] [$rsp+0]
	#DEBUG_VALUE: compute_filtered_face_values_derivatives:fd_r <- [DW_OP_plus_uconst 16] [$rbp+0]
	.loc	3 0 1                   # vlasovsolver/cpu_face_estimates.hpp:0:1
	vmovss	112(%rsp), %xmm7        # 4-byte Reload
                                        # xmm7 = mem[0],zero,zero,zero
	vmulss	56(%rsp), %xmm7, %xmm7  # 4-byte Folded Reload
	jmp	.LBB4_127
.Ltmp191:
.LBB4_116:
	#DEBUG_VALUE: compute_filtered_face_values_derivatives:fv_l <- [DW_OP_plus_uconst 376] [$rsp+0]
	#DEBUG_VALUE: compute_filtered_face_values_derivatives:fd_r <- [DW_OP_plus_uconst 16] [$rbp+0]
	vpermilps	$231, %xmm15, %xmm4 # xmm4 = xmm15[3,1,2,3]
	vmulss	496(%rsp), %xmm4, %xmm4 # 16-byte Folded Reload
	.loc	3 1377 1                # vlasovsolver/cpu_face_estimates.hpp:1377:1
	testb	%r8b, %r8b
	je	.LBB4_119
.Ltmp192:
.LBB4_120:                              # %L..inline.66530
	#DEBUG_VALUE: compute_filtered_face_values_derivatives:fv_l <- [DW_OP_plus_uconst 376] [$rsp+0]
	#DEBUG_VALUE: compute_filtered_face_values_derivatives:fd_r <- [DW_OP_plus_uconst 16] [$rbp+0]
	vmovss	20(%r15), %xmm5         # xmm5 = mem[0],zero,zero,zero
	testb	%dil, %dil
	je	.LBB4_122
.Ltmp193:
.LBB4_123:                              # %L..inline.66533
	#DEBUG_VALUE: compute_filtered_face_values_derivatives:fv_l <- [DW_OP_plus_uconst 376] [$rsp+0]
	#DEBUG_VALUE: compute_filtered_face_values_derivatives:fd_r <- [DW_OP_plus_uconst 16] [$rbp+0]
	vmovss	24(%r15), %xmm6         # xmm6 = mem[0],zero,zero,zero
	testb	%sil, %sil
	je	.LBB4_125
.Ltmp194:
.LBB4_126:                              # %L..inline.66536
	#DEBUG_VALUE: compute_filtered_face_values_derivatives:fv_l <- [DW_OP_plus_uconst 376] [$rsp+0]
	#DEBUG_VALUE: compute_filtered_face_values_derivatives:fd_r <- [DW_OP_plus_uconst 16] [$rbp+0]
	vmovss	28(%r15), %xmm7         # xmm7 = mem[0],zero,zero,zero
.Ltmp195:
.LBB4_127:                              # %L..inline.66538
	#DEBUG_VALUE: compute_filtered_face_values_derivatives:fv_l <- [DW_OP_plus_uconst 376] [$rsp+0]
	#DEBUG_VALUE: compute_filtered_face_values_derivatives:fd_r <- [DW_OP_plus_uconst 16] [$rbp+0]
	.loc	3 707 1 is_stmt 1       # vlasovsolver/cpu_face_estimates.hpp:707:1
	vmovss	%xmm0, (%r15)
	vmovss	%xmm1, 4(%r15)
	vmovss	%xmm2, 8(%r15)
	vmovss	%xmm3, 12(%r15)
	vmovss	%xmm4, 16(%r15)
	vmovss	%xmm5, 20(%r15)
	vmovss	%xmm6, 24(%r15)
	vmovss	%xmm7, 28(%r15)
.Ltmp196:
.LBB4_128:                              # %L.B0045
	#DEBUG_VALUE: compute_filtered_face_values_derivatives:fv_l <- [DW_OP_plus_uconst 376] [$rsp+0]
	#DEBUG_VALUE: compute_filtered_face_values_derivatives:fd_r <- [DW_OP_plus_uconst 16] [$rbp+0]
	.loc	3 275 1                 # vlasovsolver/cpu_face_estimates.hpp:275:1
	leaq	-40(%rbp), %rsp
.Ltmp197:
	popq	%rbx
	popq	%r12
	popq	%r13
	popq	%r14
	popq	%r15
	popq	%rbp
	.cfi_def_cfa %rsp, 8
	vzeroupper
	retq
.Ltmp198:
.Lfunc_end4:
	.size	_Z40compute_filtered_face_values_derivativesPK10Vec8SimpleIfEj19face_estimate_orderRS0_S4_S4_S4_f, .Lfunc_end4-_Z40compute_filtered_face_values_derivativesPK10Vec8SimpleIfEj19face_estimate_orderRS0_S4_S4_S4_f
	.cfi_endproc
                                        # -- End function
	.section	.rodata.cst4,"aM",@progbits,4
	.p2align	2               # -- Begin function _Z23filter_pqm_monotonicityP10Vec8SimpleIfEjRS0_S2_S2_S2_
.LCPI5_0:
	.long	1114636288              # float 60
.LCPI5_1:
	.long	1103101952              # float 24
.LCPI5_2:
	.long	1108344832              # float 36
.LCPI5_3:
	.long	1077936128              # float 3
.LCPI5_4:
	.long	1135869952              # float 360
.LCPI5_7:
	.long	1126694912              # float 168
.LCPI5_8:
	.long	1128267776              # float 192
.LCPI5_9:
	.long	1106247680              # float 30
.LCPI5_10:
	.long	1127481344              # float 180
.LCPI5_11:
	.long	3274964992              # float -180
.LCPI5_12:
	.long	1082130432              # float 4
.LCPI5_13:
	.long	3229614080              # float -4
.LCPI5_14:
	.long	1128792064              # float 200
.LCPI5_15:
	.long	2147483648              # float -0
.LCPI5_16:
	.long	1056964608              # float 0.5
.LCPI5_17:
	.long	1065353216              # float 1
.LCPI5_18:
	.long	2147483647              # float NaN
.LCPI5_19:
	.long	1092616192              # float 10
.LCPI5_25:
	.long	1084227584              # float 5
.LCPI5_26:
	.long	1101004800              # float 20
.LCPI5_27:
	.long	3225419776              # float -3
.LCPI5_31:
	.long	1090519040              # float 8
.LCPI5_33:
	.long	0                       # float 0
	.section	.rodata.cst16,"aM",@progbits,16
	.p2align	4
.LCPI5_5:
	.long	1135869952              # float 360
	.long	1106247680              # float 30
	.zero	4
	.zero	4
.LCPI5_6:
	.long	1106247680              # float 30
	.long	1135869952              # float 360
	.zero	4
	.zero	4
.LCPI5_32:
	.zero	16
	.section	.rodata.cst8,"aM",@progbits,8
	.p2align	3
.LCPI5_20:
	.quad	-4602678819172646912    # double -8
.LCPI5_21:
	.quad	4599676419421066581     # double 0.33333333333333331
.LCPI5_22:
	.quad	-4601552919265804288    # double -10
.LCPI5_23:
	.quad	4618441417868443648     # double 6
.LCPI5_24:
	.quad	4616189618054758400     # double 4
.LCPI5_28:
	.quad	4614688418178968235     # double 3.3333333333333335
.LCPI5_29:
	.quad	-4604930618986332160    # double -6
.LCPI5_30:
	.quad	4621819117588971520     # double 10
	.text
	.weak	_Z23filter_pqm_monotonicityP10Vec8SimpleIfEjRS0_S2_S2_S2_
	.p2align	4, 0x90
	.type	_Z23filter_pqm_monotonicityP10Vec8SimpleIfEjRS0_S2_S2_S2_,@function
_Z23filter_pqm_monotonicityP10Vec8SimpleIfEjRS0_S2_S2_S2_: # @_Z23filter_pqm_monotonicityP10Vec8SimpleIfEjRS0_S2_S2_S2_
.Lfunc_begin5:
	.file	4 "/home/talgat/vlasiator/vlasovsolver/cpu_1d_pqm.hpp"
	.loc	4 38 0                  # vlasovsolver/cpu_1d_pqm.hpp:38:0
	.cfi_startproc
# %bb.0:                                # %L.entry
	#DEBUG_VALUE: filter_pqm_monotonicity:values <- $rdi
	#DEBUG_VALUE: filter_pqm_monotonicity:k <- $esi
	#DEBUG_VALUE: filter_pqm_monotonicity:fv_l <- $rdx
	#DEBUG_VALUE: filter_pqm_monotonicity:fv_r <- $rcx
	#DEBUG_VALUE: filter_pqm_monotonicity:fd_l <- $r8
	#DEBUG_VALUE: filter_pqm_monotonicity:fd_r <- $r9
	pushq	%rbp
	.cfi_def_cfa_offset 16
	.cfi_offset %rbp, -16
	movq	%rsp, %rbp
	.cfi_def_cfa_register %rbp
	pushq	%r15
	pushq	%r14
	pushq	%r13
	pushq	%r12
	pushq	%rbx
	andq	$-32, %rsp
	subq	$992, %rsp              # imm = 0x3E0
	.cfi_offset %rbx, -56
	.cfi_offset %r12, -48
	.cfi_offset %r13, -40
	.cfi_offset %r14, -32
	.cfi_offset %r15, -24
                                        # kill: def $esi killed $esi def $rsi
.Ltmp199:
	#DEBUG_VALUE: root_outside <- [DW_OP_LLVM_fragment 224 32] 1.000000e+02
	#DEBUG_VALUE: root_outside <- [DW_OP_LLVM_fragment 192 32] 1.000000e+02
	#DEBUG_VALUE: root_outside <- [DW_OP_LLVM_fragment 160 32] 1.000000e+02
	#DEBUG_VALUE: root_outside <- [DW_OP_LLVM_fragment 128 32] 1.000000e+02
	#DEBUG_VALUE: root_outside <- [DW_OP_LLVM_fragment 96 32] 1.000000e+02
	#DEBUG_VALUE: root_outside <- [DW_OP_LLVM_fragment 64 32] 1.000000e+02
	#DEBUG_VALUE: root_outside <- [DW_OP_LLVM_fragment 32 32] 1.000000e+02
	#DEBUG_VALUE: root_outside <- [DW_OP_LLVM_fragment 0 32] 1.000000e+02
	#DEBUG_VALUE: fd_r <- $r9
	#DEBUG_VALUE: fd_l <- $r8
	#DEBUG_VALUE: fv_r <- $rcx
	#DEBUG_VALUE: fv_l <- $rdx
	#DEBUG_VALUE: k <- $esi
	#DEBUG_VALUE: values <- $rdi
	#DEBUG_VALUE: filter_pqm_monotonicity:fd_r <- $r9
	#DEBUG_VALUE: filter_pqm_monotonicity:fd_l <- $r8
	#DEBUG_VALUE: filter_pqm_monotonicity:fv_r <- $rcx
	#DEBUG_VALUE: filter_pqm_monotonicity:fv_l <- $rdx
	#DEBUG_VALUE: filter_pqm_monotonicity:k <- $esi
	#DEBUG_VALUE: filter_pqm_monotonicity:values <- $rdi
	.loc	4 898 1 prologue_end    # vlasovsolver/cpu_1d_pqm.hpp:898:1
	movl	%esi, %ebx
	shlq	$5, %rbx
	vmovups	(%rdi,%rbx), %xmm0
	vbroadcastss	.LCPI5_0(%rip), %xmm14 # xmm14 = [6.0E+1,6.0E+1,6.0E+1,6.0E+1]
	vmulss	%xmm14, %xmm0, %xmm1
	vmovaps	%xmm0, %xmm9
	vmovaps	%xmm14, %xmm8
	vmovss	(%rcx), %xmm0           # xmm0 = mem[0],zero,zero,zero
	vbroadcastss	.LCPI5_1(%rip), %xmm3 # xmm3 = [2.4E+1,2.4E+1,2.4E+1,2.4E+1]
	vmulss	%xmm3, %xmm0, %xmm2
	vmovaps	%xmm3, %xmm11
	.loc	4 822 1                 # vlasovsolver/cpu_1d_pqm.hpp:822:1
	vsubss	%xmm2, %xmm1, %xmm2
	.loc	4 898 1                 # vlasovsolver/cpu_1d_pqm.hpp:898:1
	vmovss	(%rdx), %xmm1           # xmm1 = mem[0],zero,zero,zero
	vbroadcastss	.LCPI5_2(%rip), %xmm13 # xmm13 = [3.6E+1,3.6E+1,3.6E+1,3.6E+1]
	vmulss	%xmm13, %xmm1, %xmm3
	.loc	4 822 1                 # vlasovsolver/cpu_1d_pqm.hpp:822:1
	vsubss	%xmm3, %xmm2, %xmm6
	.loc	4 898 1                 # vlasovsolver/cpu_1d_pqm.hpp:898:1
	vmovss	(%r8), %xmm4            # xmm4 = mem[0],zero,zero,zero
	vbroadcastss	.LCPI5_3(%rip), %xmm15 # xmm15 = [3.0E+0,3.0E+0,3.0E+0,3.0E+0]
	vmulss	%xmm15, %xmm4, %xmm2
	.loc	4 822 1                 # vlasovsolver/cpu_1d_pqm.hpp:822:1
	vmovss	(%r9), %xmm3            # xmm3 = mem[0],zero,zero,zero
	vsubss	%xmm2, %xmm3, %xmm2
	.loc	4 898 1                 # vlasovsolver/cpu_1d_pqm.hpp:898:1
	vmulss	%xmm15, %xmm2, %xmm2
	.loc	4 759 1                 # vlasovsolver/cpu_1d_pqm.hpp:759:1
	vaddss	%xmm2, %xmm6, %xmm10
	vmovss	.LCPI5_4(%rip), %xmm2   # xmm2 = mem[0],zero,zero,zero
.Ltmp200:
	#DEBUG_VALUE: b0 <- [DW_OP_LLVM_fragment 160 32] undef
	#DEBUG_VALUE: b0 <- [DW_OP_LLVM_fragment 128 32] undef
	#DEBUG_VALUE: b0 <- [DW_OP_LLVM_fragment 96 32] undef
	#DEBUG_VALUE: b0 <- [DW_OP_LLVM_fragment 64 32] undef
	#DEBUG_VALUE: b0 <- [DW_OP_LLVM_fragment 32 32] undef
	#DEBUG_VALUE: b0 <- [DW_OP_LLVM_fragment 0 32] $xmm10
	.loc	4 898 1                 # vlasovsolver/cpu_1d_pqm.hpp:898:1
	vmulss	%xmm2, %xmm9, %xmm6
	vmovaps	%xmm2, %xmm14
	vmulss	%xmm13, %xmm4, %xmm2
	.loc	4 759 1                 # vlasovsolver/cpu_1d_pqm.hpp:759:1
	vsubss	%xmm6, %xmm2, %xmm2
	.loc	4 898 1                 # vlasovsolver/cpu_1d_pqm.hpp:898:1
	vmulss	%xmm11, %xmm3, %xmm7
	.loc	4 822 1                 # vlasovsolver/cpu_1d_pqm.hpp:822:1
	vsubss	%xmm7, %xmm2, %xmm2
	.loc	4 898 1                 # vlasovsolver/cpu_1d_pqm.hpp:898:1
	vbroadcastss	.LCPI5_7(%rip), %xmm5 # xmm5 = [1.68E+2,1.68E+2,1.68E+2,1.68E+2]
	vmovaps	%xmm5, 224(%rsp)        # 16-byte Spill
	vmulss	%xmm5, %xmm0, %xmm7
	.loc	4 759 1                 # vlasovsolver/cpu_1d_pqm.hpp:759:1
	vaddss	%xmm2, %xmm7, %xmm2
	.loc	4 898 1                 # vlasovsolver/cpu_1d_pqm.hpp:898:1
	vbroadcastss	.LCPI5_8(%rip), %xmm5 # xmm5 = [1.92E+2,1.92E+2,1.92E+2,1.92E+2]
	vmovaps	%xmm5, 192(%rsp)        # 16-byte Spill
	vmulss	%xmm5, %xmm1, %xmm7
	.loc	4 759 1                 # vlasovsolver/cpu_1d_pqm.hpp:759:1
	vaddss	%xmm2, %xmm7, %xmm7
	vmovss	%xmm4, 76(%rsp)         # 4-byte Spill
	.loc	4 822 1                 # vlasovsolver/cpu_1d_pqm.hpp:822:1
	vsubss	%xmm4, %xmm3, %xmm2
	.loc	4 898 1                 # vlasovsolver/cpu_1d_pqm.hpp:898:1
	vmulss	.LCPI5_9(%rip), %xmm2, %xmm2
	.loc	4 759 1                 # vlasovsolver/cpu_1d_pqm.hpp:759:1
	vaddss	%xmm2, %xmm6, %xmm2
	vaddss	%xmm1, %xmm0, %xmm0
	.loc	4 898 1                 # vlasovsolver/cpu_1d_pqm.hpp:898:1
	vmulss	.LCPI5_10(%rip), %xmm0, %xmm0
	.loc	4 822 1                 # vlasovsolver/cpu_1d_pqm.hpp:822:1
	vsubss	%xmm0, %xmm2, %xmm1
	vmovss	%xmm10, 72(%rsp)        # 4-byte Spill
.Ltmp201:
	#DEBUG_VALUE: b0 <- [DW_OP_plus_uconst 72, DW_OP_LLVM_fragment 0 32] [$rsp+0]
	.loc	4 898 1                 # vlasovsolver/cpu_1d_pqm.hpp:898:1
	vmulss	.LCPI5_12(%rip), %xmm10, %xmm0
	.loc	4 867 1                 # vlasovsolver/cpu_1d_pqm.hpp:867:1
	vmulss	%xmm0, %xmm1, %xmm0
	vmovaps	%xmm1, %xmm2
	vmovss	%xmm1, 20(%rsp)         # 4-byte Spill
	vmovaps	%xmm7, 256(%rsp)        # 16-byte Spill
	vmulss	%xmm7, %xmm7, %xmm1
	.loc	4 822 1                 # vlasovsolver/cpu_1d_pqm.hpp:822:1
	vsubss	%xmm0, %xmm1, %xmm0
	.loc	4 898 1                 # vlasovsolver/cpu_1d_pqm.hpp:898:1
	vbroadcastss	.LCPI5_14(%rip), %xmm12 # xmm12 = [2.0E+2,2.0E+2,2.0E+2,2.0E+2]
	.loc	4 57 1                  # vlasovsolver/cpu_1d_pqm.hpp:57:1
	vmulss	%xmm12, %xmm2, %xmm1
	vaddss	%xmm1, %xmm7, %xmm2
	vsqrtss	%xmm0, %xmm0, %xmm3
	vxorps	%xmm1, %xmm1, %xmm1
	vcmpnltss	%xmm1, %xmm0, %xmm0
	vblendvps	%xmm0, %xmm3, %xmm2, %xmm0
.Ltmp202:
	#DEBUG_VALUE: sqrt_val <- [DW_OP_LLVM_fragment 0 32] $xmm0
	.loc	4 0 1 is_stmt 0         # vlasovsolver/cpu_1d_pqm.hpp:0:1
	vmovaps	%xmm0, 112(%rsp)        # 16-byte Spill
.Ltmp203:
	#DEBUG_VALUE: sqrt_val <- [DW_OP_plus_uconst 112, DW_OP_LLVM_fragment 0 32] [$rsp+0]
	#DEBUG_VALUE: sqrt_val <- [DW_OP_plus_uconst 112, DW_OP_LLVM_fragment 0 32] [$rsp+0]
	vmovaps	%xmm9, 96(%rsp)         # 16-byte Spill
	.loc	4 898 1 is_stmt 1       # vlasovsolver/cpu_1d_pqm.hpp:898:1
	vmovshdup	%xmm9, %xmm0    # xmm0 = xmm9[1,1,3,3]
	vmulss	%xmm8, %xmm0, %xmm2
	vmovss	4(%rcx), %xmm3          # xmm3 = mem[0],zero,zero,zero
	vmulss	%xmm11, %xmm3, %xmm6
	.loc	4 822 1                 # vlasovsolver/cpu_1d_pqm.hpp:822:1
	vsubss	%xmm6, %xmm2, %xmm2
	.loc	4 898 1                 # vlasovsolver/cpu_1d_pqm.hpp:898:1
	vmovss	4(%rdx), %xmm6          # xmm6 = mem[0],zero,zero,zero
	vmulss	%xmm13, %xmm6, %xmm7
	.loc	4 822 1                 # vlasovsolver/cpu_1d_pqm.hpp:822:1
	vsubss	%xmm7, %xmm2, %xmm2
	.loc	4 898 1                 # vlasovsolver/cpu_1d_pqm.hpp:898:1
	vmovss	4(%r8), %xmm5           # xmm5 = mem[0],zero,zero,zero
	vmulss	%xmm15, %xmm5, %xmm7
	.loc	4 822 1                 # vlasovsolver/cpu_1d_pqm.hpp:822:1
	vmovss	4(%r9), %xmm1           # xmm1 = mem[0],zero,zero,zero
	vsubss	%xmm7, %xmm1, %xmm7
	.loc	4 898 1                 # vlasovsolver/cpu_1d_pqm.hpp:898:1
	vmulss	%xmm15, %xmm7, %xmm7
	.loc	4 759 1                 # vlasovsolver/cpu_1d_pqm.hpp:759:1
	vaddss	%xmm7, %xmm2, %xmm4
	.loc	4 898 1                 # vlasovsolver/cpu_1d_pqm.hpp:898:1
	vmulss	%xmm14, %xmm0, %xmm0
	vmulss	%xmm13, %xmm5, %xmm2
	.loc	4 759 1                 # vlasovsolver/cpu_1d_pqm.hpp:759:1
	vsubss	%xmm0, %xmm2, %xmm2
	.loc	4 898 1                 # vlasovsolver/cpu_1d_pqm.hpp:898:1
	vmulss	%xmm11, %xmm1, %xmm7
	vmovaps	%xmm11, %xmm14
	.loc	4 822 1                 # vlasovsolver/cpu_1d_pqm.hpp:822:1
	vsubss	%xmm7, %xmm2, %xmm2
	vmovaps	224(%rsp), %xmm10       # 16-byte Reload
	.loc	4 898 1                 # vlasovsolver/cpu_1d_pqm.hpp:898:1
	vmulss	%xmm10, %xmm3, %xmm7
	.loc	4 759 1                 # vlasovsolver/cpu_1d_pqm.hpp:759:1
	vaddss	%xmm2, %xmm7, %xmm2
	vmovaps	192(%rsp), %xmm11       # 16-byte Reload
	.loc	4 898 1                 # vlasovsolver/cpu_1d_pqm.hpp:898:1
	vmulss	%xmm11, %xmm6, %xmm7
	.loc	4 759 1                 # vlasovsolver/cpu_1d_pqm.hpp:759:1
	vaddss	%xmm2, %xmm7, %xmm2
	vmovss	%xmm5, 48(%rsp)         # 4-byte Spill
	.loc	4 822 1                 # vlasovsolver/cpu_1d_pqm.hpp:822:1
	vsubss	%xmm5, %xmm1, %xmm1
	vmovss	.LCPI5_9(%rip), %xmm5   # xmm5 = mem[0],zero,zero,zero
	.loc	4 898 1                 # vlasovsolver/cpu_1d_pqm.hpp:898:1
	vmulss	%xmm5, %xmm1, %xmm1
	.loc	4 759 1                 # vlasovsolver/cpu_1d_pqm.hpp:759:1
	vaddss	%xmm1, %xmm0, %xmm0
	vaddss	%xmm6, %xmm3, %xmm1
	vmovss	.LCPI5_10(%rip), %xmm3  # xmm3 = mem[0],zero,zero,zero
	.loc	4 898 1                 # vlasovsolver/cpu_1d_pqm.hpp:898:1
	vmulss	%xmm3, %xmm1, %xmm1
	.loc	4 822 1                 # vlasovsolver/cpu_1d_pqm.hpp:822:1
	vsubss	%xmm1, %xmm0, %xmm3
	vmovss	%xmm3, 4(%rsp)          # 4-byte Spill
	vmovss	%xmm4, 32(%rsp)         # 4-byte Spill
	.loc	4 898 1                 # vlasovsolver/cpu_1d_pqm.hpp:898:1
	vmulss	.LCPI5_12(%rip), %xmm4, %xmm0
	.loc	4 867 1                 # vlasovsolver/cpu_1d_pqm.hpp:867:1
	vmulss	%xmm0, %xmm3, %xmm0
	vmovaps	%xmm2, 672(%rsp)        # 16-byte Spill
	vmulss	%xmm2, %xmm2, %xmm1
	.loc	4 822 1                 # vlasovsolver/cpu_1d_pqm.hpp:822:1
	vsubss	%xmm0, %xmm1, %xmm0
	.loc	4 898 1                 # vlasovsolver/cpu_1d_pqm.hpp:898:1
	vmulss	%xmm12, %xmm3, %xmm1
	.loc	4 759 1                 # vlasovsolver/cpu_1d_pqm.hpp:759:1
	vaddss	%xmm1, %xmm2, %xmm1
	.loc	4 743 1                 # vlasovsolver/cpu_1d_pqm.hpp:743:1
	vsqrtss	%xmm0, %xmm0, %xmm2
	vcmpnltss	.LCPI5_33, %xmm0, %xmm0
	vblendvps	%xmm0, %xmm2, %xmm1, %xmm0
.Ltmp204:
	#DEBUG_VALUE: sqrt_val <- [DW_OP_LLVM_fragment 32 32] $xmm0
	.loc	4 0 1 is_stmt 0         # vlasovsolver/cpu_1d_pqm.hpp:0:1
	vmovaps	%xmm0, 704(%rsp)        # 16-byte Spill
.Ltmp205:
	#DEBUG_VALUE: sqrt_val <- [DW_OP_plus_uconst 704, DW_OP_LLVM_fragment 32 32] [$rsp+0]
	#DEBUG_VALUE: sqrt_val <- [DW_OP_plus_uconst 704, DW_OP_LLVM_fragment 32 32] [$rsp+0]
	.loc	4 898 1 is_stmt 1       # vlasovsolver/cpu_1d_pqm.hpp:898:1
	vpermilpd	$1, %xmm9, %xmm0 # xmm0 = xmm9[1,0]
	vmulss	%xmm8, %xmm0, %xmm1
	vmovaps	%xmm8, %xmm4
	vmovaps	%xmm8, 608(%rsp)        # 16-byte Spill
	vmovss	8(%rcx), %xmm2          # xmm2 = mem[0],zero,zero,zero
	vmulss	%xmm14, %xmm2, %xmm3
	.loc	4 822 1                 # vlasovsolver/cpu_1d_pqm.hpp:822:1
	vsubss	%xmm3, %xmm1, %xmm1
	.loc	4 898 1                 # vlasovsolver/cpu_1d_pqm.hpp:898:1
	vmovss	8(%rdx), %xmm3          # xmm3 = mem[0],zero,zero,zero
	vmulss	%xmm13, %xmm3, %xmm6
	.loc	4 822 1                 # vlasovsolver/cpu_1d_pqm.hpp:822:1
	vsubss	%xmm6, %xmm1, %xmm1
	.loc	4 898 1                 # vlasovsolver/cpu_1d_pqm.hpp:898:1
	vmovss	8(%r8), %xmm5           # xmm5 = mem[0],zero,zero,zero
	vmulss	%xmm15, %xmm5, %xmm6
	.loc	4 822 1                 # vlasovsolver/cpu_1d_pqm.hpp:822:1
	vmovss	8(%r9), %xmm7           # xmm7 = mem[0],zero,zero,zero
	vsubss	%xmm6, %xmm7, %xmm6
	.loc	4 898 1                 # vlasovsolver/cpu_1d_pqm.hpp:898:1
	vmulss	%xmm15, %xmm6, %xmm6
	.loc	4 759 1                 # vlasovsolver/cpu_1d_pqm.hpp:759:1
	vaddss	%xmm6, %xmm1, %xmm8
	.loc	4 898 1                 # vlasovsolver/cpu_1d_pqm.hpp:898:1
	vmulss	.LCPI5_4(%rip), %xmm0, %xmm0
	vmulss	%xmm13, %xmm5, %xmm1
	.loc	4 759 1                 # vlasovsolver/cpu_1d_pqm.hpp:759:1
	vsubss	%xmm0, %xmm1, %xmm1
	.loc	4 898 1                 # vlasovsolver/cpu_1d_pqm.hpp:898:1
	vmulss	%xmm14, %xmm7, %xmm6
	.loc	4 822 1                 # vlasovsolver/cpu_1d_pqm.hpp:822:1
	vsubss	%xmm6, %xmm1, %xmm1
	.loc	4 898 1                 # vlasovsolver/cpu_1d_pqm.hpp:898:1
	vmulss	%xmm10, %xmm2, %xmm6
	.loc	4 759 1                 # vlasovsolver/cpu_1d_pqm.hpp:759:1
	vaddss	%xmm1, %xmm6, %xmm1
	.loc	4 898 1                 # vlasovsolver/cpu_1d_pqm.hpp:898:1
	vmulss	%xmm11, %xmm3, %xmm6
	.loc	4 759 1                 # vlasovsolver/cpu_1d_pqm.hpp:759:1
	vaddss	%xmm1, %xmm6, %xmm6
	vmovss	%xmm5, 52(%rsp)         # 4-byte Spill
	.loc	4 822 1                 # vlasovsolver/cpu_1d_pqm.hpp:822:1
	vsubss	%xmm5, %xmm7, %xmm1
	.loc	4 898 1                 # vlasovsolver/cpu_1d_pqm.hpp:898:1
	vmulss	.LCPI5_9(%rip), %xmm1, %xmm1
	.loc	4 759 1                 # vlasovsolver/cpu_1d_pqm.hpp:759:1
	vaddss	%xmm1, %xmm0, %xmm0
	vaddss	%xmm3, %xmm2, %xmm1
	.loc	4 898 1                 # vlasovsolver/cpu_1d_pqm.hpp:898:1
	vmulss	.LCPI5_10(%rip), %xmm1, %xmm1
	.loc	4 822 1                 # vlasovsolver/cpu_1d_pqm.hpp:822:1
	vsubss	%xmm1, %xmm0, %xmm2
	vmovss	%xmm2, 480(%rsp)        # 4-byte Spill
	vmovss	%xmm8, 36(%rsp)         # 4-byte Spill
	vmovss	.LCPI5_12(%rip), %xmm9  # xmm9 = mem[0],zero,zero,zero
	.loc	4 898 1                 # vlasovsolver/cpu_1d_pqm.hpp:898:1
	vmulss	%xmm9, %xmm8, %xmm0
	.loc	4 867 1                 # vlasovsolver/cpu_1d_pqm.hpp:867:1
	vmulss	%xmm0, %xmm2, %xmm0
	vmovaps	%xmm6, 384(%rsp)        # 16-byte Spill
	vmulss	%xmm6, %xmm6, %xmm1
	.loc	4 822 1                 # vlasovsolver/cpu_1d_pqm.hpp:822:1
	vsubss	%xmm0, %xmm1, %xmm0
	.loc	4 898 1                 # vlasovsolver/cpu_1d_pqm.hpp:898:1
	vmulss	%xmm12, %xmm2, %xmm1
	.loc	4 759 1                 # vlasovsolver/cpu_1d_pqm.hpp:759:1
	vaddss	%xmm1, %xmm6, %xmm1
	.loc	4 743 1                 # vlasovsolver/cpu_1d_pqm.hpp:743:1
	vsqrtss	%xmm0, %xmm0, %xmm2
	.loc	4 1377 1                # vlasovsolver/cpu_1d_pqm.hpp:1377:1
	vcmpnltss	.LCPI5_33, %xmm0, %xmm0
	vblendvps	%xmm0, %xmm2, %xmm1, %xmm0
.Ltmp206:
	#DEBUG_VALUE: sqrt_val <- [DW_OP_LLVM_fragment 64 32] $xmm0
	.loc	4 0 1 is_stmt 0         # vlasovsolver/cpu_1d_pqm.hpp:0:1
	vmovaps	%xmm0, 416(%rsp)        # 16-byte Spill
.Ltmp207:
	#DEBUG_VALUE: sqrt_val <- [DW_OP_plus_uconst 416, DW_OP_LLVM_fragment 64 32] [$rsp+0]
	#DEBUG_VALUE: sqrt_val <- [DW_OP_plus_uconst 416, DW_OP_LLVM_fragment 64 32] [$rsp+0]
	.loc	4 898 1 is_stmt 1       # vlasovsolver/cpu_1d_pqm.hpp:898:1
	vpermilps	$231, 96(%rsp), %xmm0 # 16-byte Folded Reload
                                        # xmm0 = mem[3,1,2,3]
	vmulss	%xmm4, %xmm0, %xmm1
	vmovss	12(%rcx), %xmm2         # xmm2 = mem[0],zero,zero,zero
	vmulss	%xmm14, %xmm2, %xmm3
	.loc	4 822 1                 # vlasovsolver/cpu_1d_pqm.hpp:822:1
	vsubss	%xmm3, %xmm1, %xmm1
	.loc	4 898 1                 # vlasovsolver/cpu_1d_pqm.hpp:898:1
	vmovss	12(%rdx), %xmm3         # xmm3 = mem[0],zero,zero,zero
	vmulss	%xmm13, %xmm3, %xmm6
	.loc	4 822 1                 # vlasovsolver/cpu_1d_pqm.hpp:822:1
	vsubss	%xmm6, %xmm1, %xmm1
	.loc	4 898 1                 # vlasovsolver/cpu_1d_pqm.hpp:898:1
	vmovss	12(%r8), %xmm4          # xmm4 = mem[0],zero,zero,zero
	vmulss	%xmm15, %xmm4, %xmm6
	.loc	4 822 1                 # vlasovsolver/cpu_1d_pqm.hpp:822:1
	vmovss	12(%r9), %xmm7          # xmm7 = mem[0],zero,zero,zero
	vsubss	%xmm6, %xmm7, %xmm6
	.loc	4 898 1                 # vlasovsolver/cpu_1d_pqm.hpp:898:1
	vmulss	%xmm15, %xmm6, %xmm6
	vmovaps	%xmm15, %xmm8
	.loc	4 759 1                 # vlasovsolver/cpu_1d_pqm.hpp:759:1
	vaddss	%xmm6, %xmm1, %xmm5
	.loc	4 898 1                 # vlasovsolver/cpu_1d_pqm.hpp:898:1
	vmulss	.LCPI5_4(%rip), %xmm0, %xmm0
	vmulss	%xmm13, %xmm4, %xmm1
	.loc	4 759 1                 # vlasovsolver/cpu_1d_pqm.hpp:759:1
	vsubss	%xmm0, %xmm1, %xmm1
	.loc	4 898 1                 # vlasovsolver/cpu_1d_pqm.hpp:898:1
	vmulss	%xmm14, %xmm7, %xmm6
	.loc	4 822 1                 # vlasovsolver/cpu_1d_pqm.hpp:822:1
	vsubss	%xmm6, %xmm1, %xmm1
	vmovaps	%xmm10, %xmm15
	.loc	4 898 1                 # vlasovsolver/cpu_1d_pqm.hpp:898:1
	vmulss	%xmm10, %xmm2, %xmm6
	.loc	4 759 1                 # vlasovsolver/cpu_1d_pqm.hpp:759:1
	vaddss	%xmm1, %xmm6, %xmm1
	.loc	4 898 1                 # vlasovsolver/cpu_1d_pqm.hpp:898:1
	vmulss	%xmm11, %xmm3, %xmm6
	.loc	4 759 1                 # vlasovsolver/cpu_1d_pqm.hpp:759:1
	vaddss	%xmm1, %xmm6, %xmm6
	vmovss	%xmm4, 60(%rsp)         # 4-byte Spill
	.loc	4 822 1                 # vlasovsolver/cpu_1d_pqm.hpp:822:1
	vsubss	%xmm4, %xmm7, %xmm1
	.loc	4 898 1                 # vlasovsolver/cpu_1d_pqm.hpp:898:1
	vmulss	.LCPI5_9(%rip), %xmm1, %xmm1
	.loc	4 759 1                 # vlasovsolver/cpu_1d_pqm.hpp:759:1
	vaddss	%xmm1, %xmm0, %xmm0
	vaddss	%xmm3, %xmm2, %xmm1
	.loc	4 898 1                 # vlasovsolver/cpu_1d_pqm.hpp:898:1
	vmulss	.LCPI5_10(%rip), %xmm1, %xmm1
	.loc	4 822 1                 # vlasovsolver/cpu_1d_pqm.hpp:822:1
	vsubss	%xmm1, %xmm0, %xmm2
	vmovss	%xmm2, (%rsp)           # 4-byte Spill
	vmovss	%xmm5, 40(%rsp)         # 4-byte Spill
	.loc	4 898 1                 # vlasovsolver/cpu_1d_pqm.hpp:898:1
	vmulss	%xmm9, %xmm5, %xmm0
	.loc	4 867 1                 # vlasovsolver/cpu_1d_pqm.hpp:867:1
	vmulss	%xmm0, %xmm2, %xmm0
	vmovaps	%xmm6, 80(%rsp)         # 16-byte Spill
	vmulss	%xmm6, %xmm6, %xmm1
	.loc	4 822 1                 # vlasovsolver/cpu_1d_pqm.hpp:822:1
	vsubss	%xmm0, %xmm1, %xmm0
	.loc	4 898 1                 # vlasovsolver/cpu_1d_pqm.hpp:898:1
	vmulss	%xmm12, %xmm2, %xmm1
	vmovaps	%xmm12, %xmm10
	.loc	4 759 1                 # vlasovsolver/cpu_1d_pqm.hpp:759:1
	vaddss	%xmm1, %xmm6, %xmm1
	.loc	4 743 1                 # vlasovsolver/cpu_1d_pqm.hpp:743:1
	vsqrtss	%xmm0, %xmm0, %xmm2
	vxorps	%xmm3, %xmm3, %xmm3
	vcmpnltss	%xmm3, %xmm0, %xmm0
	vblendvps	%xmm0, %xmm2, %xmm1, %xmm0
.Ltmp208:
	#DEBUG_VALUE: sqrt_val <- [DW_OP_LLVM_fragment 96 32] $xmm0
	.loc	4 0 1 is_stmt 0         # vlasovsolver/cpu_1d_pqm.hpp:0:1
	vmovaps	%xmm0, 96(%rsp)         # 16-byte Spill
.Ltmp209:
	#DEBUG_VALUE: sqrt_val <- [DW_OP_plus_uconst 96, DW_OP_LLVM_fragment 96 32] [$rsp+0]
	#DEBUG_VALUE: sqrt_val <- [DW_OP_plus_uconst 96, DW_OP_LLVM_fragment 96 32] [$rsp+0]
	.loc	4 898 1 is_stmt 1       # vlasovsolver/cpu_1d_pqm.hpp:898:1
	vmovups	16(%rdi,%rbx), %xmm9
	vmovaps	608(%rsp), %xmm12       # 16-byte Reload
	vmulss	%xmm12, %xmm9, %xmm0
	vmovss	16(%rcx), %xmm1         # xmm1 = mem[0],zero,zero,zero
	vmulss	%xmm14, %xmm1, %xmm2
	.loc	4 822 1                 # vlasovsolver/cpu_1d_pqm.hpp:822:1
	vsubss	%xmm2, %xmm0, %xmm0
	.loc	4 898 1                 # vlasovsolver/cpu_1d_pqm.hpp:898:1
	vmovss	16(%rdx), %xmm2         # xmm2 = mem[0],zero,zero,zero
	vmulss	%xmm13, %xmm2, %xmm6
	.loc	4 822 1                 # vlasovsolver/cpu_1d_pqm.hpp:822:1
	vsubss	%xmm6, %xmm0, %xmm4
	.loc	4 898 1                 # vlasovsolver/cpu_1d_pqm.hpp:898:1
	vmovss	16(%r8), %xmm0          # xmm0 = mem[0],zero,zero,zero
	vmulss	%xmm8, %xmm0, %xmm6
	.loc	4 822 1                 # vlasovsolver/cpu_1d_pqm.hpp:822:1
	vmovss	16(%r9), %xmm7          # xmm7 = mem[0],zero,zero,zero
	vsubss	%xmm6, %xmm7, %xmm6
	.loc	4 898 1                 # vlasovsolver/cpu_1d_pqm.hpp:898:1
	vmulss	%xmm8, %xmm6, %xmm6
	.loc	4 759 1                 # vlasovsolver/cpu_1d_pqm.hpp:759:1
	vaddss	%xmm6, %xmm4, %xmm5
	vmovss	.LCPI5_4(%rip), %xmm3   # xmm3 = mem[0],zero,zero,zero
	.loc	4 898 1                 # vlasovsolver/cpu_1d_pqm.hpp:898:1
	vmulss	%xmm3, %xmm9, %xmm3
	vmulss	%xmm13, %xmm0, %xmm6
	.loc	4 759 1                 # vlasovsolver/cpu_1d_pqm.hpp:759:1
	vsubss	%xmm3, %xmm6, %xmm6
	.loc	4 898 1                 # vlasovsolver/cpu_1d_pqm.hpp:898:1
	vmulss	%xmm14, %xmm7, %xmm4
	.loc	4 822 1                 # vlasovsolver/cpu_1d_pqm.hpp:822:1
	vsubss	%xmm4, %xmm6, %xmm4
	.loc	4 898 1                 # vlasovsolver/cpu_1d_pqm.hpp:898:1
	vmulss	%xmm15, %xmm1, %xmm6
	.loc	4 759 1                 # vlasovsolver/cpu_1d_pqm.hpp:759:1
	vaddss	%xmm4, %xmm6, %xmm4
	.loc	4 898 1                 # vlasovsolver/cpu_1d_pqm.hpp:898:1
	vmulss	%xmm11, %xmm2, %xmm6
	.loc	4 759 1                 # vlasovsolver/cpu_1d_pqm.hpp:759:1
	vaddss	%xmm4, %xmm6, %xmm6
	vmovss	%xmm0, 68(%rsp)         # 4-byte Spill
	.loc	4 822 1                 # vlasovsolver/cpu_1d_pqm.hpp:822:1
	vsubss	%xmm0, %xmm7, %xmm4
	vmovss	.LCPI5_9(%rip), %xmm0   # xmm0 = mem[0],zero,zero,zero
	.loc	4 898 1                 # vlasovsolver/cpu_1d_pqm.hpp:898:1
	vmulss	%xmm0, %xmm4, %xmm4
	.loc	4 759 1                 # vlasovsolver/cpu_1d_pqm.hpp:759:1
	vaddss	%xmm4, %xmm3, %xmm0
	vaddss	%xmm2, %xmm1, %xmm1
	vmovss	.LCPI5_10(%rip), %xmm2  # xmm2 = mem[0],zero,zero,zero
	.loc	4 898 1                 # vlasovsolver/cpu_1d_pqm.hpp:898:1
	vmulss	%xmm2, %xmm1, %xmm1
	.loc	4 822 1                 # vlasovsolver/cpu_1d_pqm.hpp:822:1
	vsubss	%xmm1, %xmm0, %xmm2
	vmovss	%xmm2, 8(%rsp)          # 4-byte Spill
	vmovss	%xmm5, 56(%rsp)         # 4-byte Spill
	.loc	4 898 1                 # vlasovsolver/cpu_1d_pqm.hpp:898:1
	vmulss	.LCPI5_12(%rip), %xmm5, %xmm0
	.loc	4 867 1                 # vlasovsolver/cpu_1d_pqm.hpp:867:1
	vmulss	%xmm0, %xmm2, %xmm0
	vmovaps	%xmm6, 208(%rsp)        # 16-byte Spill
	vmulss	%xmm6, %xmm6, %xmm1
	.loc	4 822 1                 # vlasovsolver/cpu_1d_pqm.hpp:822:1
	vsubss	%xmm0, %xmm1, %xmm0
	.loc	4 898 1                 # vlasovsolver/cpu_1d_pqm.hpp:898:1
	vmulss	%xmm10, %xmm2, %xmm1
	vmovaps	%xmm10, 592(%rsp)       # 16-byte Spill
	.loc	4 759 1                 # vlasovsolver/cpu_1d_pqm.hpp:759:1
	vaddss	%xmm1, %xmm6, %xmm1
	.loc	4 743 1                 # vlasovsolver/cpu_1d_pqm.hpp:743:1
	vsqrtss	%xmm0, %xmm0, %xmm2
	.loc	4 1377 1                # vlasovsolver/cpu_1d_pqm.hpp:1377:1
	vcmpnltss	.LCPI5_33, %xmm0, %xmm0
	vblendvps	%xmm0, %xmm2, %xmm1, %xmm0
.Ltmp210:
	#DEBUG_VALUE: sqrt_val <- [DW_OP_LLVM_fragment 128 32] $xmm0
	.loc	4 0 1 is_stmt 0         # vlasovsolver/cpu_1d_pqm.hpp:0:1
	vmovaps	%xmm0, 368(%rsp)        # 16-byte Spill
.Ltmp211:
	#DEBUG_VALUE: sqrt_val <- [DW_OP_plus_uconst 368, DW_OP_LLVM_fragment 128 32] [$rsp+0]
	#DEBUG_VALUE: sqrt_val <- [DW_OP_plus_uconst 368, DW_OP_LLVM_fragment 128 32] [$rsp+0]
	.loc	4 898 1 is_stmt 1       # vlasovsolver/cpu_1d_pqm.hpp:898:1
	vmovshdup	%xmm9, %xmm0    # xmm0 = xmm9[1,1,3,3]
	vmovaps	%xmm12, %xmm15
	vmulss	%xmm12, %xmm0, %xmm1
	vmovss	20(%rcx), %xmm2         # xmm2 = mem[0],zero,zero,zero
	vmulss	%xmm14, %xmm2, %xmm4
	.loc	4 822 1                 # vlasovsolver/cpu_1d_pqm.hpp:822:1
	vsubss	%xmm4, %xmm1, %xmm1
	.loc	4 898 1                 # vlasovsolver/cpu_1d_pqm.hpp:898:1
	vmovss	20(%rdx), %xmm4         # xmm4 = mem[0],zero,zero,zero
	vmulss	%xmm13, %xmm4, %xmm6
	.loc	4 822 1                 # vlasovsolver/cpu_1d_pqm.hpp:822:1
	vsubss	%xmm6, %xmm1, %xmm1
	.loc	4 898 1                 # vlasovsolver/cpu_1d_pqm.hpp:898:1
	vmovss	20(%r8), %xmm3          # xmm3 = mem[0],zero,zero,zero
	vmulss	%xmm8, %xmm3, %xmm6
	.loc	4 822 1                 # vlasovsolver/cpu_1d_pqm.hpp:822:1
	vmovss	20(%r9), %xmm7          # xmm7 = mem[0],zero,zero,zero
	vsubss	%xmm6, %xmm7, %xmm6
	.loc	4 898 1                 # vlasovsolver/cpu_1d_pqm.hpp:898:1
	vmulss	%xmm8, %xmm6, %xmm6
	.loc	4 759 1                 # vlasovsolver/cpu_1d_pqm.hpp:759:1
	vaddss	%xmm6, %xmm1, %xmm5
	.loc	4 898 1                 # vlasovsolver/cpu_1d_pqm.hpp:898:1
	vmulss	.LCPI5_4(%rip), %xmm0, %xmm0
	vmulss	%xmm13, %xmm3, %xmm1
	.loc	4 759 1                 # vlasovsolver/cpu_1d_pqm.hpp:759:1
	vsubss	%xmm0, %xmm1, %xmm1
	.loc	4 898 1                 # vlasovsolver/cpu_1d_pqm.hpp:898:1
	vmulss	%xmm14, %xmm7, %xmm6
	.loc	4 822 1                 # vlasovsolver/cpu_1d_pqm.hpp:822:1
	vsubss	%xmm6, %xmm1, %xmm1
	.loc	4 898 1                 # vlasovsolver/cpu_1d_pqm.hpp:898:1
	vmulss	224(%rsp), %xmm2, %xmm6 # 16-byte Folded Reload
	.loc	4 759 1                 # vlasovsolver/cpu_1d_pqm.hpp:759:1
	vaddss	%xmm1, %xmm6, %xmm1
	.loc	4 898 1                 # vlasovsolver/cpu_1d_pqm.hpp:898:1
	vmulss	%xmm11, %xmm4, %xmm6
	.loc	4 759 1                 # vlasovsolver/cpu_1d_pqm.hpp:759:1
	vaddss	%xmm1, %xmm6, %xmm12
.Ltmp212:
	#DEBUG_VALUE: b1 <- [DW_OP_LLVM_fragment 160 32] $xmm12
	#DEBUG_VALUE: b1 <- [DW_OP_plus_uconst 208, DW_OP_LLVM_fragment 128 32] [$rsp+0]
	#DEBUG_VALUE: b1 <- [DW_OP_plus_uconst 80, DW_OP_LLVM_fragment 96 32] [$rsp+0]
	#DEBUG_VALUE: b1 <- [DW_OP_plus_uconst 384, DW_OP_LLVM_fragment 64 32] [$rsp+0]
	#DEBUG_VALUE: b1 <- [DW_OP_plus_uconst 672, DW_OP_LLVM_fragment 32 32] [$rsp+0]
	#DEBUG_VALUE: b1 <- [DW_OP_plus_uconst 256, DW_OP_LLVM_fragment 0 32] [$rsp+0]
	.loc	4 0 1 is_stmt 0         # vlasovsolver/cpu_1d_pqm.hpp:0:1
	vmovss	%xmm3, 64(%rsp)         # 4-byte Spill
	.loc	4 822 1 is_stmt 1       # vlasovsolver/cpu_1d_pqm.hpp:822:1
	vsubss	%xmm3, %xmm7, %xmm1
	.loc	4 898 1                 # vlasovsolver/cpu_1d_pqm.hpp:898:1
	vmulss	.LCPI5_9(%rip), %xmm1, %xmm1
	.loc	4 759 1                 # vlasovsolver/cpu_1d_pqm.hpp:759:1
	vaddss	%xmm1, %xmm0, %xmm0
	vaddss	%xmm4, %xmm2, %xmm1
	.loc	4 898 1                 # vlasovsolver/cpu_1d_pqm.hpp:898:1
	vmulss	.LCPI5_10(%rip), %xmm1, %xmm1
	.loc	4 822 1                 # vlasovsolver/cpu_1d_pqm.hpp:822:1
	vsubss	%xmm1, %xmm0, %xmm2
	vmovss	%xmm2, 12(%rsp)         # 4-byte Spill
	vmovss	%xmm5, 44(%rsp)         # 4-byte Spill
	.loc	4 898 1                 # vlasovsolver/cpu_1d_pqm.hpp:898:1
	vmulss	.LCPI5_12(%rip), %xmm5, %xmm0
	.loc	4 867 1                 # vlasovsolver/cpu_1d_pqm.hpp:867:1
	vmulss	%xmm0, %xmm2, %xmm0
	vmulss	%xmm12, %xmm12, %xmm1
	.loc	4 822 1                 # vlasovsolver/cpu_1d_pqm.hpp:822:1
	vsubss	%xmm0, %xmm1, %xmm0
	.loc	4 898 1                 # vlasovsolver/cpu_1d_pqm.hpp:898:1
	vmulss	%xmm10, %xmm2, %xmm1
	.loc	4 759 1                 # vlasovsolver/cpu_1d_pqm.hpp:759:1
	vaddss	%xmm1, %xmm12, %xmm1
	.loc	4 743 1                 # vlasovsolver/cpu_1d_pqm.hpp:743:1
	vsqrtss	%xmm0, %xmm0, %xmm2
	vcmpnltss	.LCPI5_33, %xmm0, %xmm0
	vblendvps	%xmm0, %xmm2, %xmm1, %xmm0
.Ltmp213:
	#DEBUG_VALUE: sqrt_val <- [DW_OP_LLVM_fragment 160 32] $xmm0
	.loc	4 0 1 is_stmt 0         # vlasovsolver/cpu_1d_pqm.hpp:0:1
	vmovaps	%xmm0, 752(%rsp)        # 16-byte Spill
.Ltmp214:
	#DEBUG_VALUE: sqrt_val <- [DW_OP_plus_uconst 752, DW_OP_LLVM_fragment 160 32] [$rsp+0]
	#DEBUG_VALUE: sqrt_val <- [DW_OP_plus_uconst 752, DW_OP_LLVM_fragment 160 32] [$rsp+0]
	.loc	4 898 1 is_stmt 1       # vlasovsolver/cpu_1d_pqm.hpp:898:1
	vmovddup	24(%rdi,%rbx), %xmm0 # xmm0 = mem[0,0]
	vinsertps	$208, %xmm9, %xmm0, %xmm1 # xmm1 = xmm0[0],xmm9[3],xmm0[2,3]
	vmulps	%xmm15, %xmm1, %xmm1
	movq	%rcx, 656(%rsp)         # 8-byte Spill
.Ltmp215:
	#DEBUG_VALUE: fv_r <- [DW_OP_plus_uconst 656] [$rsp+0]
	#DEBUG_VALUE: filter_pqm_monotonicity:fv_r <- [DW_OP_plus_uconst 656] [$rsp+0]
	vmovsd	24(%rcx), %xmm2         # xmm2 = mem[0],zero
	vmulps	%xmm14, %xmm2, %xmm4
	.loc	4 822 1                 # vlasovsolver/cpu_1d_pqm.hpp:822:1
	vsubps	%xmm4, %xmm1, %xmm1
	movq	%rdx, 640(%rsp)         # 8-byte Spill
.Ltmp216:
	#DEBUG_VALUE: fv_l <- [DW_OP_plus_uconst 640] [$rsp+0]
	#DEBUG_VALUE: filter_pqm_monotonicity:fv_l <- [DW_OP_plus_uconst 640] [$rsp+0]
	.loc	4 898 1                 # vlasovsolver/cpu_1d_pqm.hpp:898:1
	vmovsd	24(%rdx), %xmm4         # xmm4 = mem[0],zero
	vmulps	%xmm13, %xmm4, %xmm6
	.loc	4 822 1                 # vlasovsolver/cpu_1d_pqm.hpp:822:1
	vsubps	%xmm6, %xmm1, %xmm1
	movq	%r8, 648(%rsp)          # 8-byte Spill
.Ltmp217:
	#DEBUG_VALUE: fd_l <- [DW_OP_plus_uconst 648] [$rsp+0]
	#DEBUG_VALUE: filter_pqm_monotonicity:fd_l <- [DW_OP_plus_uconst 648] [$rsp+0]
	.loc	4 898 1                 # vlasovsolver/cpu_1d_pqm.hpp:898:1
	vmovsd	24(%r8), %xmm3          # xmm3 = mem[0],zero
	vmulps	%xmm8, %xmm3, %xmm6
	movq	%r9, 664(%rsp)          # 8-byte Spill
.Ltmp218:
	#DEBUG_VALUE: fd_r <- [DW_OP_plus_uconst 664] [$rsp+0]
	#DEBUG_VALUE: filter_pqm_monotonicity:fd_r <- [DW_OP_plus_uconst 664] [$rsp+0]
	.loc	4 822 1                 # vlasovsolver/cpu_1d_pqm.hpp:822:1
	vmovsd	24(%r9), %xmm7          # xmm7 = mem[0],zero
	vsubps	%xmm6, %xmm7, %xmm6
	.loc	4 898 1                 # vlasovsolver/cpu_1d_pqm.hpp:898:1
	vmulps	%xmm8, %xmm6, %xmm6
	.loc	4 759 1                 # vlasovsolver/cpu_1d_pqm.hpp:759:1
	vaddps	%xmm6, %xmm1, %xmm15
	.loc	4 898 1                 # vlasovsolver/cpu_1d_pqm.hpp:898:1
	vmovshdup	%xmm3, %xmm1    # xmm1 = xmm3[1,1,3,3]
	.loc	4 822 1                 # vlasovsolver/cpu_1d_pqm.hpp:822:1
	vmovshdup	%xmm7, %xmm6    # xmm6 = xmm7[1,1,3,3]
	vsubss	%xmm1, %xmm6, %xmm1
	.loc	4 898 1                 # vlasovsolver/cpu_1d_pqm.hpp:898:1
	vinsertps	$16, %xmm1, %xmm0, %xmm0 # xmm0 = xmm0[0],xmm1[0],xmm0[2,3]
	.loc	4 822 1                 # vlasovsolver/cpu_1d_pqm.hpp:822:1
	vsubss	%xmm3, %xmm7, %xmm1
	.loc	4 898 1                 # vlasovsolver/cpu_1d_pqm.hpp:898:1
	vinsertps	$208, %xmm9, %xmm1, %xmm1 # xmm1 = xmm1[0],xmm9[3],xmm1[2,3]
	vmulps	.LCPI5_5(%rip), %xmm0, %xmm0
	vmulps	.LCPI5_6(%rip), %xmm1, %xmm1
	vmovaps	%xmm3, 608(%rsp)        # 16-byte Spill
	vmulps	%xmm13, %xmm3, %xmm3
	.loc	4 759 1                 # vlasovsolver/cpu_1d_pqm.hpp:759:1
	vblendps	$2, %xmm1, %xmm0, %xmm5 # xmm5 = xmm0[0],xmm1[1],xmm0[2,3]
	vsubps	%xmm5, %xmm3, %xmm3
	.loc	4 898 1                 # vlasovsolver/cpu_1d_pqm.hpp:898:1
	vmulps	%xmm14, %xmm7, %xmm5
	.loc	4 822 1                 # vlasovsolver/cpu_1d_pqm.hpp:822:1
	vsubps	%xmm5, %xmm3, %xmm3
	.loc	4 898 1                 # vlasovsolver/cpu_1d_pqm.hpp:898:1
	vmulps	224(%rsp), %xmm2, %xmm5 # 16-byte Folded Reload
	vmovaps	%xmm8, %xmm6
	.loc	4 759 1                 # vlasovsolver/cpu_1d_pqm.hpp:759:1
	vaddps	%xmm3, %xmm5, %xmm3
	.loc	4 898 1                 # vlasovsolver/cpu_1d_pqm.hpp:898:1
	vmulps	%xmm11, %xmm4, %xmm5
	.loc	4 759 1                 # vlasovsolver/cpu_1d_pqm.hpp:759:1
	vaddps	%xmm3, %xmm5, %xmm10
	vaddps	%xmm1, %xmm0, %xmm0
	vaddps	%xmm4, %xmm2, %xmm1
	.loc	4 898 1                 # vlasovsolver/cpu_1d_pqm.hpp:898:1
	vbroadcastss	.LCPI5_11(%rip), %xmm2 # xmm2 = [-1.8E+2,-1.8E+2,-1.8E+2,-1.8E+2]
	vmulps	%xmm2, %xmm1, %xmm1
	.loc	4 822 1                 # vlasovsolver/cpu_1d_pqm.hpp:822:1
	vaddps	%xmm1, %xmm0, %xmm7
.Ltmp219:
	#DEBUG_VALUE: b2 <- [DW_OP_plus_uconst 12, DW_OP_LLVM_fragment 160 32] [$rsp+0]
	#DEBUG_VALUE: b2 <- [DW_OP_plus_uconst 8, DW_OP_LLVM_fragment 128 32] [$rsp+0]
	#DEBUG_VALUE: b2 <- [DW_OP_LLVM_fragment 96 32] [$rsp+0]
	#DEBUG_VALUE: b2 <- [DW_OP_plus_uconst 480, DW_OP_LLVM_fragment 64 32] [$rsp+0]
	#DEBUG_VALUE: b2 <- [DW_OP_LLVM_fragment 32 32] undef
	#DEBUG_VALUE: b2 <- [DW_OP_plus_uconst 20, DW_OP_LLVM_fragment 0 32] [$rsp+0]
	.loc	4 898 1                 # vlasovsolver/cpu_1d_pqm.hpp:898:1
	vbroadcastss	.LCPI5_13(%rip), %xmm0 # xmm0 = [-4.0E+0,-4.0E+0,-4.0E+0,-4.0E+0]
	vmovaps	%xmm15, 848(%rsp)       # 16-byte Spill
	vmulps	%xmm0, %xmm15, %xmm0
	.loc	4 867 1                 # vlasovsolver/cpu_1d_pqm.hpp:867:1
	vmulps	%xmm0, %xmm7, %xmm0
	vmulps	%xmm10, %xmm10, %xmm1
	.loc	4 822 1                 # vlasovsolver/cpu_1d_pqm.hpp:822:1
	vaddps	%xmm0, %xmm1, %xmm0
.Ltmp220:
	#DEBUG_VALUE: val_to_sqrt <- [DW_OP_LLVM_fragment 160 32] undef
	#DEBUG_VALUE: val_to_sqrt <- [DW_OP_LLVM_fragment 128 32] undef
	#DEBUG_VALUE: val_to_sqrt <- [DW_OP_LLVM_fragment 96 32] undef
	#DEBUG_VALUE: val_to_sqrt <- [DW_OP_LLVM_fragment 64 32] undef
	#DEBUG_VALUE: val_to_sqrt <- [DW_OP_LLVM_fragment 32 32] undef
	#DEBUG_VALUE: val_to_sqrt <- [DW_OP_LLVM_fragment 0 32] undef
	.loc	4 0 1 is_stmt 0         # vlasovsolver/cpu_1d_pqm.hpp:0:1
	vmovaps	%xmm0, 224(%rsp)        # 16-byte Spill
	.loc	4 822 1                 # vlasovsolver/cpu_1d_pqm.hpp:822:1
	leal	-1(%rsi), %eax
	shlq	$5, %rax
	movq	%rbx, 632(%rsp)         # 8-byte Spill
	.loc	4 898 1 is_stmt 1       # vlasovsolver/cpu_1d_pqm.hpp:898:1
	vmovups	(%rdi,%rbx), %ymm0
	.loc	4 822 1                 # vlasovsolver/cpu_1d_pqm.hpp:822:1
	vsubps	(%rdi,%rax), %ymm0, %ymm1
	.loc	4 898 1                 # vlasovsolver/cpu_1d_pqm.hpp:898:1
	vaddps	%ymm1, %ymm1, %ymm1
	vmovaps	%ymm1, 928(%rsp)
	.loc	4 822 1                 # vlasovsolver/cpu_1d_pqm.hpp:822:1
	incl	%esi
.Ltmp221:
	shlq	$5, %rsi
	vmovups	(%rdi,%rsi), %ymm2
	vsubps	%ymm0, %ymm2, %ymm0
	.loc	4 898 1                 # vlasovsolver/cpu_1d_pqm.hpp:898:1
	vaddps	%ymm0, %ymm0, %ymm0
	vmovaps	%ymm0, 896(%rsp)
	.loc	4 759 1                 # vlasovsolver/cpu_1d_pqm.hpp:759:1
	vaddps	%ymm0, %ymm1, %ymm13
.Ltmp222:
	#DEBUG_VALUE: sqrt_val <- [DW_OP_plus_uconst 112, DW_OP_LLVM_fragment 0 32] [$rsp+0]
	#DEBUG_VALUE: sqrt_val <- [DW_OP_LLVM_fragment 0 32] undef
	.loc	4 0 1 is_stmt 0         # vlasovsolver/cpu_1d_pqm.hpp:0:1
	vmovaps	256(%rsp), %xmm14       # 16-byte Reload
.Ltmp223:
	#DEBUG_VALUE: b1 <- [DW_OP_LLVM_fragment 0 32] $xmm14
	vmovaps	112(%rsp), %xmm0        # 16-byte Reload
	.loc	4 759 1                 # vlasovsolver/cpu_1d_pqm.hpp:759:1
	vsubss	%xmm14, %xmm0, %xmm0
	vmovss	20(%rsp), %xmm2         # 4-byte Reload
                                        # xmm2 = mem[0],zero,zero,zero
.Ltmp224:
	#DEBUG_VALUE: b2 <- [DW_OP_LLVM_fragment 0 32] $xmm2
	.loc	4 898 1 is_stmt 1       # vlasovsolver/cpu_1d_pqm.hpp:898:1
	vaddss	%xmm2, %xmm2, %xmm1
	vmovss	%xmm1, 184(%rsp)        # 4-byte Spill
	.loc	4 914 1                 # vlasovsolver/cpu_1d_pqm.hpp:914:1
	vdivss	%xmm1, %xmm0, %xmm4
.Ltmp225:
	#DEBUG_VALUE: sqrt_val <- [DW_OP_LLVM_fragment 32 32] undef
	.loc	4 0 1 is_stmt 0         # vlasovsolver/cpu_1d_pqm.hpp:0:1
	vmovaps	704(%rsp), %xmm0        # 16-byte Reload
.Ltmp226:
	#DEBUG_VALUE: b1 <- [DW_OP_plus_uconst 672, DW_OP_LLVM_fragment 32 32] [$rsp+0]
	#DEBUG_VALUE: b1 <- [DW_OP_LLVM_fragment 32 32] undef
	#DEBUG_VALUE: sqrt_val <- [DW_OP_plus_uconst 704, DW_OP_LLVM_fragment 32 32] [$rsp+0]
	.loc	4 759 1 is_stmt 1       # vlasovsolver/cpu_1d_pqm.hpp:759:1
	vsubss	672(%rsp), %xmm0, %xmm0 # 16-byte Folded Reload
.Ltmp227:
	#DEBUG_VALUE: b2 <- [DW_OP_plus_uconst 4, DW_OP_LLVM_fragment 32 32] [$rsp+0]
	.loc	4 0 1 is_stmt 0         # vlasovsolver/cpu_1d_pqm.hpp:0:1
	vmovss	4(%rsp), %xmm1          # 4-byte Reload
                                        # xmm1 = mem[0],zero,zero,zero
.Ltmp228:
	#DEBUG_VALUE: b2 <- [DW_OP_LLVM_fragment 32 32] $xmm1
	.loc	4 898 1 is_stmt 1       # vlasovsolver/cpu_1d_pqm.hpp:898:1
	vaddss	%xmm1, %xmm1, %xmm1
.Ltmp229:
	#DEBUG_VALUE: b2 <- [DW_OP_plus_uconst 4, DW_OP_LLVM_fragment 32 32] [$rsp+0]
	.loc	4 0 1 is_stmt 0         # vlasovsolver/cpu_1d_pqm.hpp:0:1
	vmovss	%xmm1, 180(%rsp)        # 4-byte Spill
	.loc	4 914 1 is_stmt 1       # vlasovsolver/cpu_1d_pqm.hpp:914:1
	vdivss	%xmm1, %xmm0, %xmm0
.Ltmp230:
	#DEBUG_VALUE: sqrt_val <- [DW_OP_LLVM_fragment 64 32] undef
	.loc	4 0 1 is_stmt 0         # vlasovsolver/cpu_1d_pqm.hpp:0:1
	vmovaps	416(%rsp), %xmm1        # 16-byte Reload
.Ltmp231:
	#DEBUG_VALUE: b1 <- [DW_OP_plus_uconst 384, DW_OP_LLVM_fragment 64 32] [$rsp+0]
	#DEBUG_VALUE: b1 <- [DW_OP_LLVM_fragment 64 32] undef
	#DEBUG_VALUE: sqrt_val <- [DW_OP_plus_uconst 416, DW_OP_LLVM_fragment 64 32] [$rsp+0]
	.loc	4 759 1 is_stmt 1       # vlasovsolver/cpu_1d_pqm.hpp:759:1
	vsubss	384(%rsp), %xmm1, %xmm1 # 16-byte Folded Reload
.Ltmp232:
	#DEBUG_VALUE: b2 <- [DW_OP_plus_uconst 480, DW_OP_LLVM_fragment 64 32] [$rsp+0]
	#DEBUG_VALUE: b2 <- [DW_OP_LLVM_fragment 64 32] undef
	.loc	4 0 1 is_stmt 0         # vlasovsolver/cpu_1d_pqm.hpp:0:1
	vmovss	480(%rsp), %xmm3        # 4-byte Reload
                                        # xmm3 = mem[0],zero,zero,zero
	.loc	4 898 1 is_stmt 1       # vlasovsolver/cpu_1d_pqm.hpp:898:1
	vaddss	%xmm3, %xmm3, %xmm3
	vmovss	%xmm3, 176(%rsp)        # 4-byte Spill
	.loc	4 914 1                 # vlasovsolver/cpu_1d_pqm.hpp:914:1
	vdivss	%xmm3, %xmm1, %xmm11
.Ltmp233:
	#DEBUG_VALUE: sqrt_val <- [DW_OP_LLVM_fragment 96 32] undef
	.loc	4 0 1 is_stmt 0         # vlasovsolver/cpu_1d_pqm.hpp:0:1
	vmovaps	96(%rsp), %xmm1         # 16-byte Reload
.Ltmp234:
	#DEBUG_VALUE: b1 <- [DW_OP_plus_uconst 80, DW_OP_LLVM_fragment 96 32] [$rsp+0]
	#DEBUG_VALUE: b1 <- [DW_OP_LLVM_fragment 96 32] undef
	#DEBUG_VALUE: sqrt_val <- [DW_OP_plus_uconst 96, DW_OP_LLVM_fragment 96 32] [$rsp+0]
	.loc	4 759 1 is_stmt 1       # vlasovsolver/cpu_1d_pqm.hpp:759:1
	vsubss	80(%rsp), %xmm1, %xmm1  # 16-byte Folded Reload
.Ltmp235:
	#DEBUG_VALUE: b2 <- [DW_OP_LLVM_fragment 96 32] [$rsp+0]
	#DEBUG_VALUE: b2 <- [DW_OP_LLVM_fragment 96 32] undef
	.loc	4 0 1 is_stmt 0         # vlasovsolver/cpu_1d_pqm.hpp:0:1
	vmovss	(%rsp), %xmm5           # 4-byte Reload
                                        # xmm5 = mem[0],zero,zero,zero
	.loc	4 898 1 is_stmt 1       # vlasovsolver/cpu_1d_pqm.hpp:898:1
	vaddss	%xmm5, %xmm5, %xmm5
	vmovss	%xmm5, 172(%rsp)        # 4-byte Spill
	.loc	4 914 1                 # vlasovsolver/cpu_1d_pqm.hpp:914:1
	vdivss	%xmm5, %xmm1, %xmm8
.Ltmp236:
	#DEBUG_VALUE: b1 <- [DW_OP_plus_uconst 208, DW_OP_LLVM_fragment 128 32] [$rsp+0]
	#DEBUG_VALUE: b1 <- [DW_OP_LLVM_fragment 128 32] undef
	#DEBUG_VALUE: sqrt_val <- [DW_OP_LLVM_fragment 128 32] undef
	.loc	4 0 1 is_stmt 0         # vlasovsolver/cpu_1d_pqm.hpp:0:1
	vmovaps	368(%rsp), %xmm1        # 16-byte Reload
.Ltmp237:
	#DEBUG_VALUE: sqrt_val <- [DW_OP_plus_uconst 368, DW_OP_LLVM_fragment 128 32] [$rsp+0]
	.loc	4 759 1 is_stmt 1       # vlasovsolver/cpu_1d_pqm.hpp:759:1
	vsubss	208(%rsp), %xmm1, %xmm1 # 16-byte Folded Reload
.Ltmp238:
	#DEBUG_VALUE: b2 <- [DW_OP_plus_uconst 8, DW_OP_LLVM_fragment 128 32] [$rsp+0]
	#DEBUG_VALUE: b2 <- [DW_OP_LLVM_fragment 128 32] undef
	.loc	4 0 1 is_stmt 0         # vlasovsolver/cpu_1d_pqm.hpp:0:1
	vmovss	8(%rsp), %xmm5          # 4-byte Reload
                                        # xmm5 = mem[0],zero,zero,zero
	.loc	4 898 1 is_stmt 1       # vlasovsolver/cpu_1d_pqm.hpp:898:1
	vaddss	%xmm5, %xmm5, %xmm5
	vmovss	%xmm5, 168(%rsp)        # 4-byte Spill
	.loc	4 914 1                 # vlasovsolver/cpu_1d_pqm.hpp:914:1
	vdivss	%xmm5, %xmm1, %xmm9
	vmovaps	%xmm12, 192(%rsp)       # 16-byte Spill
.Ltmp239:
	#DEBUG_VALUE: sqrt_val <- [DW_OP_plus_uconst 752, DW_OP_LLVM_fragment 160 32] [$rsp+0]
	#DEBUG_VALUE: sqrt_val <- [DW_OP_LLVM_fragment 160 32] undef
	#DEBUG_VALUE: b1 <- [DW_OP_plus_uconst 192, DW_OP_LLVM_fragment 160 32] [$rsp+0]
	.loc	4 0 1 is_stmt 0         # vlasovsolver/cpu_1d_pqm.hpp:0:1
	vmovaps	752(%rsp), %xmm1        # 16-byte Reload
	.loc	4 759 1 is_stmt 1       # vlasovsolver/cpu_1d_pqm.hpp:759:1
	vsubss	%xmm12, %xmm1, %xmm1
.Ltmp240:
	#DEBUG_VALUE: b2 <- [DW_OP_plus_uconst 12, DW_OP_LLVM_fragment 160 32] [$rsp+0]
	#DEBUG_VALUE: b2 <- [DW_OP_LLVM_fragment 160 32] undef
	.loc	4 0 1 is_stmt 0         # vlasovsolver/cpu_1d_pqm.hpp:0:1
	vmovss	12(%rsp), %xmm3         # 4-byte Reload
                                        # xmm3 = mem[0],zero,zero,zero
	.loc	4 898 1 is_stmt 1       # vlasovsolver/cpu_1d_pqm.hpp:898:1
	vaddss	%xmm3, %xmm3, %xmm5
	vmovss	%xmm5, 164(%rsp)        # 4-byte Spill
	.loc	4 914 1                 # vlasovsolver/cpu_1d_pqm.hpp:914:1
	vdivss	%xmm5, %xmm1, %xmm5
.Ltmp241:
	#DEBUG_VALUE: root2 <- [DW_OP_LLVM_fragment 160 32] undef
	#DEBUG_VALUE: root2 <- [DW_OP_LLVM_fragment 128 32] undef
	#DEBUG_VALUE: root2 <- [DW_OP_LLVM_fragment 96 32] undef
	#DEBUG_VALUE: root2 <- [DW_OP_LLVM_fragment 64 32] undef
	#DEBUG_VALUE: root2 <- [DW_OP_LLVM_fragment 32 32] undef
	#DEBUG_VALUE: root2 <- [DW_OP_LLVM_fragment 0 32] undef
	#DEBUG_VALUE: root1 <- [DW_OP_LLVM_fragment 160 32] $xmm5
	#DEBUG_VALUE: root1 <- [DW_OP_LLVM_fragment 128 32] $xmm9
	#DEBUG_VALUE: root1 <- [DW_OP_LLVM_fragment 96 32] $xmm8
	#DEBUG_VALUE: root1 <- [DW_OP_LLVM_fragment 64 32] $xmm11
	#DEBUG_VALUE: root1 <- [DW_OP_LLVM_fragment 32 32] $xmm0
	#DEBUG_VALUE: root1 <- [DW_OP_LLVM_fragment 0 32] $xmm4
	.loc	4 0 1 is_stmt 0         # vlasovsolver/cpu_1d_pqm.hpp:0:1
	vxorps	%xmm1, %xmm1, %xmm1
	.loc	4 1162 1 is_stmt 1      # vlasovsolver/cpu_1d_pqm.hpp:1162:1
	vucomiss	%xmm1, %xmm0
	setb	%dl
	vucomiss	%xmm1, %xmm11
	setb	%cl
	vucomiss	%xmm1, %xmm8
	setb	%al
	vucomiss	%xmm1, %xmm9
	setb	%r10b
	vucomiss	%xmm1, %xmm5
	vxorps	%xmm1, %xmm1, %xmm1
	setb	%r11b
	.loc	4 1266 1                # vlasovsolver/cpu_1d_pqm.hpp:1266:1
	vbroadcastss	.LCPI5_17(%rip), %xmm15 # xmm15 = [1.0E+0,1.0E+0,1.0E+0,1.0E+0]
	vucomiss	%xmm0, %xmm15
	setb	%bl
	vucomiss	%xmm11, %xmm15
	setb	%r15b
	vmovss	%xmm8, 16(%rsp)         # 4-byte Spill
.Ltmp242:
	#DEBUG_VALUE: root1 <- [DW_OP_plus_uconst 16, DW_OP_LLVM_fragment 96 32] [$rsp+0]
	vucomiss	%xmm8, %xmm15
	setb	%r9b
	vmovss	%xmm9, 140(%rsp)        # 4-byte Spill
.Ltmp243:
	#DEBUG_VALUE: root1 <- [DW_OP_plus_uconst 140, DW_OP_LLVM_fragment 128 32] [$rsp+0]
	vucomiss	%xmm9, %xmm15
	setb	%r14b
	vmovss	%xmm5, 144(%rsp)        # 4-byte Spill
.Ltmp244:
	#DEBUG_VALUE: root1 <- [DW_OP_plus_uconst 144, DW_OP_LLVM_fragment 160 32] [$rsp+0]
	vucomiss	%xmm5, %xmm15
	setb	%sil
	.loc	4 1003 1                # vlasovsolver/cpu_1d_pqm.hpp:1003:1
	orb	%dl, %bl
	.loc	4 1162 1                # vlasovsolver/cpu_1d_pqm.hpp:1162:1
	vucomiss	%xmm1, %xmm4
	vmovaps	%xmm7, 352(%rsp)        # 16-byte Spill
	.loc	4 898 1                 # vlasovsolver/cpu_1d_pqm.hpp:898:1
	vmulps	592(%rsp), %xmm7, %xmm1 # 16-byte Folded Reload
	.loc	4 759 1                 # vlasovsolver/cpu_1d_pqm.hpp:759:1
	vaddps	%xmm1, %xmm10, %xmm3
	.loc	4 1215 1                # vlasovsolver/cpu_1d_pqm.hpp:1215:1
	vxorps	%xmm1, %xmm1, %xmm1
	vmovaps	224(%rsp), %xmm7        # 16-byte Reload
	vcmpnltps	%xmm1, %xmm7, %xmm5
	.loc	4 743 1                 # vlasovsolver/cpu_1d_pqm.hpp:743:1
	vsqrtps	%xmm7, %xmm1
	.loc	4 930 1                 # vlasovsolver/cpu_1d_pqm.hpp:930:1
	vdivss	%xmm6, %xmm2, %xmm2
.Ltmp245:
	#DEBUG_VALUE: c3 <- [DW_OP_LLVM_fragment 160 32] undef
	#DEBUG_VALUE: c3 <- [DW_OP_LLVM_fragment 128 32] undef
	#DEBUG_VALUE: c3 <- [DW_OP_LLVM_fragment 96 32] undef
	#DEBUG_VALUE: c3 <- [DW_OP_LLVM_fragment 64 32] undef
	#DEBUG_VALUE: c3 <- [DW_OP_LLVM_fragment 32 32] undef
	#DEBUG_VALUE: c3 <- [DW_OP_LLVM_fragment 0 32] $xmm2
	.loc	4 0 1 is_stmt 0         # vlasovsolver/cpu_1d_pqm.hpp:0:1
	vmovss	%xmm2, 24(%rsp)         # 4-byte Spill
.Ltmp246:
	#DEBUG_VALUE: c3 <- [DW_OP_plus_uconst 24, DW_OP_LLVM_fragment 0 32] [$rsp+0]
	#DEBUG_VALUE: c3 <- [DW_OP_plus_uconst 24, DW_OP_LLVM_fragment 0 32] [$rsp+0]
	vmovss	.LCPI5_16(%rip), %xmm12 # xmm12 = mem[0],zero,zero,zero
.Ltmp247:
	#DEBUG_VALUE: c1 <- [DW_OP_plus_uconst 44, DW_OP_LLVM_fragment 160 32] [$rsp+0]
	#DEBUG_VALUE: c1 <- [DW_OP_plus_uconst 56, DW_OP_LLVM_fragment 128 32] [$rsp+0]
	#DEBUG_VALUE: c1 <- [DW_OP_plus_uconst 40, DW_OP_LLVM_fragment 96 32] [$rsp+0]
	#DEBUG_VALUE: c1 <- [DW_OP_plus_uconst 36, DW_OP_LLVM_fragment 64 32] [$rsp+0]
	#DEBUG_VALUE: c1 <- [DW_OP_plus_uconst 32, DW_OP_LLVM_fragment 32 32] [$rsp+0]
	#DEBUG_VALUE: c1 <- [DW_OP_plus_uconst 72, DW_OP_LLVM_fragment 0 32] [$rsp+0]
	#DEBUG_VALUE: c0 <- [DW_OP_plus_uconst 64, DW_OP_LLVM_fragment 160 32] [$rsp+0]
	#DEBUG_VALUE: c0 <- [DW_OP_plus_uconst 68, DW_OP_LLVM_fragment 128 32] [$rsp+0]
	#DEBUG_VALUE: c0 <- [DW_OP_plus_uconst 60, DW_OP_LLVM_fragment 96 32] [$rsp+0]
	#DEBUG_VALUE: c0 <- [DW_OP_plus_uconst 52, DW_OP_LLVM_fragment 64 32] [$rsp+0]
	#DEBUG_VALUE: c0 <- [DW_OP_plus_uconst 48, DW_OP_LLVM_fragment 32 32] [$rsp+0]
	#DEBUG_VALUE: c0 <- [DW_OP_plus_uconst 76, DW_OP_LLVM_fragment 0 32] [$rsp+0]
	#DEBUG_VALUE: b1 <- [DW_OP_plus_uconst 256, DW_OP_LLVM_fragment 0 32] [$rsp+0]
	#DEBUG_VALUE: b1 <- [DW_OP_LLVM_fragment 0 32] $xmm14
	.loc	4 930 1                 # vlasovsolver/cpu_1d_pqm.hpp:930:1
	vmulss	%xmm12, %xmm14, %xmm2
.Ltmp248:
	#DEBUG_VALUE: c2 <- [DW_OP_LLVM_fragment 128 32] undef
	#DEBUG_VALUE: c2 <- [DW_OP_LLVM_fragment 96 32] undef
	#DEBUG_VALUE: c2 <- [DW_OP_LLVM_fragment 64 32] undef
	#DEBUG_VALUE: c2 <- [DW_OP_LLVM_fragment 32 32] undef
	#DEBUG_VALUE: c2 <- [DW_OP_LLVM_fragment 0 32] $xmm2
	#DEBUG_VALUE: c2 <- [DW_OP_LLVM_fragment 160 32] undef
	.loc	4 0 1                   # vlasovsolver/cpu_1d_pqm.hpp:0:1
	vmovss	%xmm2, 28(%rsp)         # 4-byte Spill
.Ltmp249:
	#DEBUG_VALUE: c2 <- [DW_OP_plus_uconst 28, DW_OP_LLVM_fragment 0 32] [$rsp+0]
	#DEBUG_VALUE: c2 <- [DW_OP_plus_uconst 28, DW_OP_LLVM_fragment 0 32] [$rsp+0]
	.loc	4 78 1 is_stmt 1        # vlasovsolver/cpu_1d_pqm.hpp:78:1
	vmovaps	%xmm13, %xmm2
	.loc	4 1377 1                # vlasovsolver/cpu_1d_pqm.hpp:1377:1
	vmovaps	%xmm13, %xmm7
	.loc	4 78 1                  # vlasovsolver/cpu_1d_pqm.hpp:78:1
	jb	.LBB5_3
.Ltmp250:
# %bb.1:                                # %L.entry
	#DEBUG_VALUE: c2 <- [DW_OP_plus_uconst 28, DW_OP_LLVM_fragment 0 32] [$rsp+0]
	#DEBUG_VALUE: c0 <- [DW_OP_plus_uconst 76, DW_OP_LLVM_fragment 0 32] [$rsp+0]
	#DEBUG_VALUE: c0 <- [DW_OP_plus_uconst 48, DW_OP_LLVM_fragment 32 32] [$rsp+0]
	#DEBUG_VALUE: c0 <- [DW_OP_plus_uconst 52, DW_OP_LLVM_fragment 64 32] [$rsp+0]
	#DEBUG_VALUE: c0 <- [DW_OP_plus_uconst 60, DW_OP_LLVM_fragment 96 32] [$rsp+0]
	#DEBUG_VALUE: c0 <- [DW_OP_plus_uconst 68, DW_OP_LLVM_fragment 128 32] [$rsp+0]
	#DEBUG_VALUE: c0 <- [DW_OP_plus_uconst 64, DW_OP_LLVM_fragment 160 32] [$rsp+0]
	#DEBUG_VALUE: c1 <- [DW_OP_plus_uconst 72, DW_OP_LLVM_fragment 0 32] [$rsp+0]
	#DEBUG_VALUE: c1 <- [DW_OP_plus_uconst 32, DW_OP_LLVM_fragment 32 32] [$rsp+0]
	#DEBUG_VALUE: c1 <- [DW_OP_plus_uconst 36, DW_OP_LLVM_fragment 64 32] [$rsp+0]
	#DEBUG_VALUE: c1 <- [DW_OP_plus_uconst 40, DW_OP_LLVM_fragment 96 32] [$rsp+0]
	#DEBUG_VALUE: c1 <- [DW_OP_plus_uconst 56, DW_OP_LLVM_fragment 128 32] [$rsp+0]
	#DEBUG_VALUE: c1 <- [DW_OP_plus_uconst 44, DW_OP_LLVM_fragment 160 32] [$rsp+0]
	#DEBUG_VALUE: c3 <- [DW_OP_plus_uconst 24, DW_OP_LLVM_fragment 0 32] [$rsp+0]
	#DEBUG_VALUE: root1 <- [DW_OP_plus_uconst 144, DW_OP_LLVM_fragment 160 32] [$rsp+0]
	#DEBUG_VALUE: root1 <- [DW_OP_plus_uconst 140, DW_OP_LLVM_fragment 128 32] [$rsp+0]
	#DEBUG_VALUE: root1 <- [DW_OP_plus_uconst 16, DW_OP_LLVM_fragment 96 32] [$rsp+0]
	#DEBUG_VALUE: root1 <- [DW_OP_LLVM_fragment 0 32] $xmm4
	#DEBUG_VALUE: root1 <- [DW_OP_LLVM_fragment 32 32] $xmm0
	#DEBUG_VALUE: root1 <- [DW_OP_LLVM_fragment 64 32] $xmm11
	#DEBUG_VALUE: b1 <- [DW_OP_plus_uconst 192, DW_OP_LLVM_fragment 160 32] [$rsp+0]
	#DEBUG_VALUE: b2 <- [DW_OP_plus_uconst 4, DW_OP_LLVM_fragment 32 32] [$rsp+0]
	#DEBUG_VALUE: b1 <- [DW_OP_LLVM_fragment 0 32] $xmm14
	#DEBUG_VALUE: b2 <- [DW_OP_plus_uconst 480, DW_OP_LLVM_fragment 64 32] [$rsp+0]
	#DEBUG_VALUE: b2 <- [DW_OP_LLVM_fragment 96 32] [$rsp+0]
	#DEBUG_VALUE: b2 <- [DW_OP_plus_uconst 8, DW_OP_LLVM_fragment 128 32] [$rsp+0]
	#DEBUG_VALUE: b2 <- [DW_OP_plus_uconst 12, DW_OP_LLVM_fragment 160 32] [$rsp+0]
	#DEBUG_VALUE: filter_pqm_monotonicity:fd_r <- [DW_OP_plus_uconst 664] [$rsp+0]
	#DEBUG_VALUE: fd_r <- [DW_OP_plus_uconst 664] [$rsp+0]
	#DEBUG_VALUE: filter_pqm_monotonicity:fd_l <- [DW_OP_plus_uconst 648] [$rsp+0]
	#DEBUG_VALUE: fd_l <- [DW_OP_plus_uconst 648] [$rsp+0]
	#DEBUG_VALUE: filter_pqm_monotonicity:fv_l <- [DW_OP_plus_uconst 640] [$rsp+0]
	#DEBUG_VALUE: fv_l <- [DW_OP_plus_uconst 640] [$rsp+0]
	#DEBUG_VALUE: filter_pqm_monotonicity:fv_r <- [DW_OP_plus_uconst 656] [$rsp+0]
	#DEBUG_VALUE: fv_r <- [DW_OP_plus_uconst 656] [$rsp+0]
	#DEBUG_VALUE: sqrt_val <- [DW_OP_plus_uconst 752, DW_OP_LLVM_fragment 160 32] [$rsp+0]
	#DEBUG_VALUE: b1 <- [DW_OP_plus_uconst 672, DW_OP_LLVM_fragment 32 32] [$rsp+0]
	#DEBUG_VALUE: b1 <- [DW_OP_plus_uconst 384, DW_OP_LLVM_fragment 64 32] [$rsp+0]
	#DEBUG_VALUE: b1 <- [DW_OP_plus_uconst 80, DW_OP_LLVM_fragment 96 32] [$rsp+0]
	#DEBUG_VALUE: b1 <- [DW_OP_plus_uconst 208, DW_OP_LLVM_fragment 128 32] [$rsp+0]
	#DEBUG_VALUE: sqrt_val <- [DW_OP_plus_uconst 368, DW_OP_LLVM_fragment 128 32] [$rsp+0]
	#DEBUG_VALUE: sqrt_val <- [DW_OP_plus_uconst 96, DW_OP_LLVM_fragment 96 32] [$rsp+0]
	#DEBUG_VALUE: sqrt_val <- [DW_OP_plus_uconst 416, DW_OP_LLVM_fragment 64 32] [$rsp+0]
	#DEBUG_VALUE: sqrt_val <- [DW_OP_plus_uconst 704, DW_OP_LLVM_fragment 32 32] [$rsp+0]
	#DEBUG_VALUE: sqrt_val <- [DW_OP_plus_uconst 112, DW_OP_LLVM_fragment 0 32] [$rsp+0]
	#DEBUG_VALUE: b0 <- [DW_OP_plus_uconst 72, DW_OP_LLVM_fragment 0 32] [$rsp+0]
	#DEBUG_VALUE: values <- $rdi
	#DEBUG_VALUE: root_outside <- [DW_OP_LLVM_fragment 0 32] 1.000000e+02
	#DEBUG_VALUE: root_outside <- [DW_OP_LLVM_fragment 32 32] 1.000000e+02
	#DEBUG_VALUE: root_outside <- [DW_OP_LLVM_fragment 64 32] 1.000000e+02
	#DEBUG_VALUE: root_outside <- [DW_OP_LLVM_fragment 96 32] 1.000000e+02
	#DEBUG_VALUE: root_outside <- [DW_OP_LLVM_fragment 128 32] 1.000000e+02
	#DEBUG_VALUE: root_outside <- [DW_OP_LLVM_fragment 160 32] 1.000000e+02
	#DEBUG_VALUE: root_outside <- [DW_OP_LLVM_fragment 192 32] 1.000000e+02
	#DEBUG_VALUE: root_outside <- [DW_OP_LLVM_fragment 224 32] 1.000000e+02
	#DEBUG_VALUE: filter_pqm_monotonicity:values <- $rdi
	.loc	4 0 1 is_stmt 0         # vlasovsolver/cpu_1d_pqm.hpp:0:1
	vmovss	.LCPI5_17(%rip), %xmm7  # xmm7 = mem[0],zero,zero,zero
	.loc	4 78 1                  # vlasovsolver/cpu_1d_pqm.hpp:78:1
	vucomiss	%xmm4, %xmm7
	.loc	4 1377 1 is_stmt 1      # vlasovsolver/cpu_1d_pqm.hpp:1377:1
	vmovaps	%xmm2, %xmm7
	.loc	4 78 1                  # vlasovsolver/cpu_1d_pqm.hpp:78:1
	jb	.LBB5_3
.Ltmp251:
# %bb.2:                                # %L.B4189
	#DEBUG_VALUE: c2 <- [DW_OP_plus_uconst 28, DW_OP_LLVM_fragment 0 32] [$rsp+0]
	#DEBUG_VALUE: c0 <- [DW_OP_plus_uconst 76, DW_OP_LLVM_fragment 0 32] [$rsp+0]
	#DEBUG_VALUE: c0 <- [DW_OP_plus_uconst 48, DW_OP_LLVM_fragment 32 32] [$rsp+0]
	#DEBUG_VALUE: c0 <- [DW_OP_plus_uconst 52, DW_OP_LLVM_fragment 64 32] [$rsp+0]
	#DEBUG_VALUE: c0 <- [DW_OP_plus_uconst 60, DW_OP_LLVM_fragment 96 32] [$rsp+0]
	#DEBUG_VALUE: c0 <- [DW_OP_plus_uconst 68, DW_OP_LLVM_fragment 128 32] [$rsp+0]
	#DEBUG_VALUE: c0 <- [DW_OP_plus_uconst 64, DW_OP_LLVM_fragment 160 32] [$rsp+0]
	#DEBUG_VALUE: c1 <- [DW_OP_plus_uconst 72, DW_OP_LLVM_fragment 0 32] [$rsp+0]
	#DEBUG_VALUE: c1 <- [DW_OP_plus_uconst 32, DW_OP_LLVM_fragment 32 32] [$rsp+0]
	#DEBUG_VALUE: c1 <- [DW_OP_plus_uconst 36, DW_OP_LLVM_fragment 64 32] [$rsp+0]
	#DEBUG_VALUE: c1 <- [DW_OP_plus_uconst 40, DW_OP_LLVM_fragment 96 32] [$rsp+0]
	#DEBUG_VALUE: c1 <- [DW_OP_plus_uconst 56, DW_OP_LLVM_fragment 128 32] [$rsp+0]
	#DEBUG_VALUE: c1 <- [DW_OP_plus_uconst 44, DW_OP_LLVM_fragment 160 32] [$rsp+0]
	#DEBUG_VALUE: c3 <- [DW_OP_plus_uconst 24, DW_OP_LLVM_fragment 0 32] [$rsp+0]
	#DEBUG_VALUE: root1 <- [DW_OP_plus_uconst 144, DW_OP_LLVM_fragment 160 32] [$rsp+0]
	#DEBUG_VALUE: root1 <- [DW_OP_plus_uconst 140, DW_OP_LLVM_fragment 128 32] [$rsp+0]
	#DEBUG_VALUE: root1 <- [DW_OP_plus_uconst 16, DW_OP_LLVM_fragment 96 32] [$rsp+0]
	#DEBUG_VALUE: root1 <- [DW_OP_LLVM_fragment 0 32] $xmm4
	#DEBUG_VALUE: root1 <- [DW_OP_LLVM_fragment 32 32] $xmm0
	#DEBUG_VALUE: root1 <- [DW_OP_LLVM_fragment 64 32] $xmm11
	#DEBUG_VALUE: b1 <- [DW_OP_plus_uconst 192, DW_OP_LLVM_fragment 160 32] [$rsp+0]
	#DEBUG_VALUE: b2 <- [DW_OP_plus_uconst 4, DW_OP_LLVM_fragment 32 32] [$rsp+0]
	#DEBUG_VALUE: b1 <- [DW_OP_LLVM_fragment 0 32] $xmm14
	#DEBUG_VALUE: b2 <- [DW_OP_plus_uconst 480, DW_OP_LLVM_fragment 64 32] [$rsp+0]
	#DEBUG_VALUE: b2 <- [DW_OP_LLVM_fragment 96 32] [$rsp+0]
	#DEBUG_VALUE: b2 <- [DW_OP_plus_uconst 8, DW_OP_LLVM_fragment 128 32] [$rsp+0]
	#DEBUG_VALUE: b2 <- [DW_OP_plus_uconst 12, DW_OP_LLVM_fragment 160 32] [$rsp+0]
	#DEBUG_VALUE: filter_pqm_monotonicity:fd_r <- [DW_OP_plus_uconst 664] [$rsp+0]
	#DEBUG_VALUE: fd_r <- [DW_OP_plus_uconst 664] [$rsp+0]
	#DEBUG_VALUE: filter_pqm_monotonicity:fd_l <- [DW_OP_plus_uconst 648] [$rsp+0]
	#DEBUG_VALUE: fd_l <- [DW_OP_plus_uconst 648] [$rsp+0]
	#DEBUG_VALUE: filter_pqm_monotonicity:fv_l <- [DW_OP_plus_uconst 640] [$rsp+0]
	#DEBUG_VALUE: fv_l <- [DW_OP_plus_uconst 640] [$rsp+0]
	#DEBUG_VALUE: filter_pqm_monotonicity:fv_r <- [DW_OP_plus_uconst 656] [$rsp+0]
	#DEBUG_VALUE: fv_r <- [DW_OP_plus_uconst 656] [$rsp+0]
	#DEBUG_VALUE: sqrt_val <- [DW_OP_plus_uconst 752, DW_OP_LLVM_fragment 160 32] [$rsp+0]
	#DEBUG_VALUE: b1 <- [DW_OP_plus_uconst 672, DW_OP_LLVM_fragment 32 32] [$rsp+0]
	#DEBUG_VALUE: b1 <- [DW_OP_plus_uconst 384, DW_OP_LLVM_fragment 64 32] [$rsp+0]
	#DEBUG_VALUE: b1 <- [DW_OP_plus_uconst 80, DW_OP_LLVM_fragment 96 32] [$rsp+0]
	#DEBUG_VALUE: b1 <- [DW_OP_plus_uconst 208, DW_OP_LLVM_fragment 128 32] [$rsp+0]
	#DEBUG_VALUE: sqrt_val <- [DW_OP_plus_uconst 368, DW_OP_LLVM_fragment 128 32] [$rsp+0]
	#DEBUG_VALUE: sqrt_val <- [DW_OP_plus_uconst 96, DW_OP_LLVM_fragment 96 32] [$rsp+0]
	#DEBUG_VALUE: sqrt_val <- [DW_OP_plus_uconst 416, DW_OP_LLVM_fragment 64 32] [$rsp+0]
	#DEBUG_VALUE: sqrt_val <- [DW_OP_plus_uconst 704, DW_OP_LLVM_fragment 32 32] [$rsp+0]
	#DEBUG_VALUE: sqrt_val <- [DW_OP_plus_uconst 112, DW_OP_LLVM_fragment 0 32] [$rsp+0]
	#DEBUG_VALUE: b0 <- [DW_OP_plus_uconst 72, DW_OP_LLVM_fragment 0 32] [$rsp+0]
	#DEBUG_VALUE: values <- $rdi
	#DEBUG_VALUE: root_outside <- [DW_OP_LLVM_fragment 0 32] 1.000000e+02
	#DEBUG_VALUE: root_outside <- [DW_OP_LLVM_fragment 32 32] 1.000000e+02
	#DEBUG_VALUE: root_outside <- [DW_OP_LLVM_fragment 64 32] 1.000000e+02
	#DEBUG_VALUE: root_outside <- [DW_OP_LLVM_fragment 96 32] 1.000000e+02
	#DEBUG_VALUE: root_outside <- [DW_OP_LLVM_fragment 128 32] 1.000000e+02
	#DEBUG_VALUE: root_outside <- [DW_OP_LLVM_fragment 160 32] 1.000000e+02
	#DEBUG_VALUE: root_outside <- [DW_OP_LLVM_fragment 192 32] 1.000000e+02
	#DEBUG_VALUE: root_outside <- [DW_OP_LLVM_fragment 224 32] 1.000000e+02
	#DEBUG_VALUE: filter_pqm_monotonicity:values <- $rdi
	.loc	4 867 1                 # vlasovsolver/cpu_1d_pqm.hpp:867:1
	vmulss	24(%rsp), %xmm4, %xmm7  # 4-byte Folded Reload
	.loc	4 759 1                 # vlasovsolver/cpu_1d_pqm.hpp:759:1
	vaddss	28(%rsp), %xmm7, %xmm7  # 4-byte Folded Reload
	.loc	4 867 1                 # vlasovsolver/cpu_1d_pqm.hpp:867:1
	vmulss	%xmm7, %xmm4, %xmm7
	.loc	4 759 1                 # vlasovsolver/cpu_1d_pqm.hpp:759:1
	vaddss	72(%rsp), %xmm7, %xmm7  # 4-byte Folded Reload
	.loc	4 867 1                 # vlasovsolver/cpu_1d_pqm.hpp:867:1
	vmulss	%xmm7, %xmm4, %xmm4
.Ltmp252:
	.loc	4 759 1                 # vlasovsolver/cpu_1d_pqm.hpp:759:1
	vaddss	76(%rsp), %xmm4, %xmm7  # 4-byte Folded Reload
.Ltmp253:
.LBB5_3:                                # %L..inline.70094
	#DEBUG_VALUE: c2 <- [DW_OP_plus_uconst 28, DW_OP_LLVM_fragment 0 32] [$rsp+0]
	#DEBUG_VALUE: c0 <- [DW_OP_plus_uconst 76, DW_OP_LLVM_fragment 0 32] [$rsp+0]
	#DEBUG_VALUE: c0 <- [DW_OP_plus_uconst 48, DW_OP_LLVM_fragment 32 32] [$rsp+0]
	#DEBUG_VALUE: c0 <- [DW_OP_plus_uconst 52, DW_OP_LLVM_fragment 64 32] [$rsp+0]
	#DEBUG_VALUE: c0 <- [DW_OP_plus_uconst 60, DW_OP_LLVM_fragment 96 32] [$rsp+0]
	#DEBUG_VALUE: c0 <- [DW_OP_plus_uconst 68, DW_OP_LLVM_fragment 128 32] [$rsp+0]
	#DEBUG_VALUE: c0 <- [DW_OP_plus_uconst 64, DW_OP_LLVM_fragment 160 32] [$rsp+0]
	#DEBUG_VALUE: c1 <- [DW_OP_plus_uconst 72, DW_OP_LLVM_fragment 0 32] [$rsp+0]
	#DEBUG_VALUE: c1 <- [DW_OP_plus_uconst 32, DW_OP_LLVM_fragment 32 32] [$rsp+0]
	#DEBUG_VALUE: c1 <- [DW_OP_plus_uconst 36, DW_OP_LLVM_fragment 64 32] [$rsp+0]
	#DEBUG_VALUE: c1 <- [DW_OP_plus_uconst 40, DW_OP_LLVM_fragment 96 32] [$rsp+0]
	#DEBUG_VALUE: c1 <- [DW_OP_plus_uconst 56, DW_OP_LLVM_fragment 128 32] [$rsp+0]
	#DEBUG_VALUE: c1 <- [DW_OP_plus_uconst 44, DW_OP_LLVM_fragment 160 32] [$rsp+0]
	#DEBUG_VALUE: c3 <- [DW_OP_plus_uconst 24, DW_OP_LLVM_fragment 0 32] [$rsp+0]
	#DEBUG_VALUE: root1 <- [DW_OP_plus_uconst 144, DW_OP_LLVM_fragment 160 32] [$rsp+0]
	#DEBUG_VALUE: root1 <- [DW_OP_plus_uconst 140, DW_OP_LLVM_fragment 128 32] [$rsp+0]
	#DEBUG_VALUE: root1 <- [DW_OP_plus_uconst 16, DW_OP_LLVM_fragment 96 32] [$rsp+0]
	#DEBUG_VALUE: root1 <- [DW_OP_LLVM_fragment 32 32] $xmm0
	#DEBUG_VALUE: root1 <- [DW_OP_LLVM_fragment 64 32] $xmm11
	#DEBUG_VALUE: b1 <- [DW_OP_plus_uconst 192, DW_OP_LLVM_fragment 160 32] [$rsp+0]
	#DEBUG_VALUE: b2 <- [DW_OP_plus_uconst 4, DW_OP_LLVM_fragment 32 32] [$rsp+0]
	#DEBUG_VALUE: b1 <- [DW_OP_LLVM_fragment 0 32] $xmm14
	#DEBUG_VALUE: b2 <- [DW_OP_plus_uconst 480, DW_OP_LLVM_fragment 64 32] [$rsp+0]
	#DEBUG_VALUE: b2 <- [DW_OP_LLVM_fragment 96 32] [$rsp+0]
	#DEBUG_VALUE: b2 <- [DW_OP_plus_uconst 8, DW_OP_LLVM_fragment 128 32] [$rsp+0]
	#DEBUG_VALUE: b2 <- [DW_OP_plus_uconst 12, DW_OP_LLVM_fragment 160 32] [$rsp+0]
	#DEBUG_VALUE: filter_pqm_monotonicity:fd_r <- [DW_OP_plus_uconst 664] [$rsp+0]
	#DEBUG_VALUE: fd_r <- [DW_OP_plus_uconst 664] [$rsp+0]
	#DEBUG_VALUE: filter_pqm_monotonicity:fd_l <- [DW_OP_plus_uconst 648] [$rsp+0]
	#DEBUG_VALUE: fd_l <- [DW_OP_plus_uconst 648] [$rsp+0]
	#DEBUG_VALUE: filter_pqm_monotonicity:fv_l <- [DW_OP_plus_uconst 640] [$rsp+0]
	#DEBUG_VALUE: fv_l <- [DW_OP_plus_uconst 640] [$rsp+0]
	#DEBUG_VALUE: filter_pqm_monotonicity:fv_r <- [DW_OP_plus_uconst 656] [$rsp+0]
	#DEBUG_VALUE: fv_r <- [DW_OP_plus_uconst 656] [$rsp+0]
	#DEBUG_VALUE: sqrt_val <- [DW_OP_plus_uconst 752, DW_OP_LLVM_fragment 160 32] [$rsp+0]
	#DEBUG_VALUE: b1 <- [DW_OP_plus_uconst 672, DW_OP_LLVM_fragment 32 32] [$rsp+0]
	#DEBUG_VALUE: b1 <- [DW_OP_plus_uconst 384, DW_OP_LLVM_fragment 64 32] [$rsp+0]
	#DEBUG_VALUE: b1 <- [DW_OP_plus_uconst 80, DW_OP_LLVM_fragment 96 32] [$rsp+0]
	#DEBUG_VALUE: b1 <- [DW_OP_plus_uconst 208, DW_OP_LLVM_fragment 128 32] [$rsp+0]
	#DEBUG_VALUE: sqrt_val <- [DW_OP_plus_uconst 368, DW_OP_LLVM_fragment 128 32] [$rsp+0]
	#DEBUG_VALUE: sqrt_val <- [DW_OP_plus_uconst 96, DW_OP_LLVM_fragment 96 32] [$rsp+0]
	#DEBUG_VALUE: sqrt_val <- [DW_OP_plus_uconst 416, DW_OP_LLVM_fragment 64 32] [$rsp+0]
	#DEBUG_VALUE: sqrt_val <- [DW_OP_plus_uconst 704, DW_OP_LLVM_fragment 32 32] [$rsp+0]
	#DEBUG_VALUE: sqrt_val <- [DW_OP_plus_uconst 112, DW_OP_LLVM_fragment 0 32] [$rsp+0]
	#DEBUG_VALUE: b0 <- [DW_OP_plus_uconst 72, DW_OP_LLVM_fragment 0 32] [$rsp+0]
	#DEBUG_VALUE: values <- $rdi
	#DEBUG_VALUE: root_outside <- [DW_OP_LLVM_fragment 0 32] 1.000000e+02
	#DEBUG_VALUE: root_outside <- [DW_OP_LLVM_fragment 32 32] 1.000000e+02
	#DEBUG_VALUE: root_outside <- [DW_OP_LLVM_fragment 64 32] 1.000000e+02
	#DEBUG_VALUE: root_outside <- [DW_OP_LLVM_fragment 96 32] 1.000000e+02
	#DEBUG_VALUE: root_outside <- [DW_OP_LLVM_fragment 128 32] 1.000000e+02
	#DEBUG_VALUE: root_outside <- [DW_OP_LLVM_fragment 160 32] 1.000000e+02
	#DEBUG_VALUE: root_outside <- [DW_OP_LLVM_fragment 192 32] 1.000000e+02
	#DEBUG_VALUE: root_outside <- [DW_OP_LLVM_fragment 224 32] 1.000000e+02
	#DEBUG_VALUE: filter_pqm_monotonicity:values <- $rdi
	.loc	4 0 0 is_stmt 0         # vlasovsolver/cpu_1d_pqm.hpp:0:0
	vblendvps	%xmm5, %xmm1, %xmm3, %xmm3
	vmovss	4(%rsp), %xmm1          # 4-byte Reload
                                        # xmm1 = mem[0],zero,zero,zero
	vdivss	%xmm6, %xmm1, %xmm4
.Ltmp254:
	#DEBUG_VALUE: c3 <- [DW_OP_LLVM_fragment 160 32] undef
	#DEBUG_VALUE: c3 <- [DW_OP_LLVM_fragment 128 32] undef
	#DEBUG_VALUE: c3 <- [DW_OP_LLVM_fragment 96 32] undef
	#DEBUG_VALUE: c3 <- [DW_OP_LLVM_fragment 64 32] undef
	#DEBUG_VALUE: c3 <- [DW_OP_LLVM_fragment 32 32] $xmm4
	vmovaps	672(%rsp), %xmm14       # 16-byte Reload
.Ltmp255:
	vmulss	%xmm12, %xmm14, %xmm5
.Ltmp256:
	#DEBUG_VALUE: c2 <- [DW_OP_LLVM_fragment 128 32] undef
	#DEBUG_VALUE: c2 <- [DW_OP_LLVM_fragment 96 32] undef
	#DEBUG_VALUE: c2 <- [DW_OP_LLVM_fragment 64 32] undef
	#DEBUG_VALUE: c2 <- [DW_OP_LLVM_fragment 32 32] $xmm5
	#DEBUG_VALUE: c2 <- [DW_OP_LLVM_fragment 160 32] undef
	#DEBUG_VALUE: root2 <- [DW_OP_LLVM_fragment 160 32] undef
	#DEBUG_VALUE: root2 <- [DW_OP_LLVM_fragment 128 32] undef
	#DEBUG_VALUE: root2 <- [DW_OP_LLVM_fragment 96 32] undef
	#DEBUG_VALUE: root2 <- [DW_OP_LLVM_fragment 64 32] undef
	#DEBUG_VALUE: root2 <- [DW_OP_LLVM_fragment 32 32] undef
	#DEBUG_VALUE: root2 <- [DW_OP_LLVM_fragment 0 32] undef
	orb	%r15b, %cl
	vmovshdup	%xmm13, %xmm1   # xmm1 = xmm13[1,1,3,3]
	vmovaps	%xmm1, 224(%rsp)        # 16-byte Spill
	testb	%bl, %bl
	jne	.LBB5_5
.Ltmp257:
# %bb.4:                                # %L..inline.70094
	#DEBUG_VALUE: c2 <- [DW_OP_LLVM_fragment 32 32] $xmm5
	#DEBUG_VALUE: c3 <- [DW_OP_LLVM_fragment 32 32] $xmm4
	#DEBUG_VALUE: c2 <- [DW_OP_plus_uconst 28, DW_OP_LLVM_fragment 0 32] [$rsp+0]
	#DEBUG_VALUE: c0 <- [DW_OP_plus_uconst 76, DW_OP_LLVM_fragment 0 32] [$rsp+0]
	#DEBUG_VALUE: c0 <- [DW_OP_plus_uconst 48, DW_OP_LLVM_fragment 32 32] [$rsp+0]
	#DEBUG_VALUE: c0 <- [DW_OP_plus_uconst 52, DW_OP_LLVM_fragment 64 32] [$rsp+0]
	#DEBUG_VALUE: c0 <- [DW_OP_plus_uconst 60, DW_OP_LLVM_fragment 96 32] [$rsp+0]
	#DEBUG_VALUE: c0 <- [DW_OP_plus_uconst 68, DW_OP_LLVM_fragment 128 32] [$rsp+0]
	#DEBUG_VALUE: c0 <- [DW_OP_plus_uconst 64, DW_OP_LLVM_fragment 160 32] [$rsp+0]
	#DEBUG_VALUE: c1 <- [DW_OP_plus_uconst 72, DW_OP_LLVM_fragment 0 32] [$rsp+0]
	#DEBUG_VALUE: c1 <- [DW_OP_plus_uconst 32, DW_OP_LLVM_fragment 32 32] [$rsp+0]
	#DEBUG_VALUE: c1 <- [DW_OP_plus_uconst 36, DW_OP_LLVM_fragment 64 32] [$rsp+0]
	#DEBUG_VALUE: c1 <- [DW_OP_plus_uconst 40, DW_OP_LLVM_fragment 96 32] [$rsp+0]
	#DEBUG_VALUE: c1 <- [DW_OP_plus_uconst 56, DW_OP_LLVM_fragment 128 32] [$rsp+0]
	#DEBUG_VALUE: c1 <- [DW_OP_plus_uconst 44, DW_OP_LLVM_fragment 160 32] [$rsp+0]
	#DEBUG_VALUE: c3 <- [DW_OP_plus_uconst 24, DW_OP_LLVM_fragment 0 32] [$rsp+0]
	#DEBUG_VALUE: root1 <- [DW_OP_plus_uconst 144, DW_OP_LLVM_fragment 160 32] [$rsp+0]
	#DEBUG_VALUE: root1 <- [DW_OP_plus_uconst 140, DW_OP_LLVM_fragment 128 32] [$rsp+0]
	#DEBUG_VALUE: root1 <- [DW_OP_plus_uconst 16, DW_OP_LLVM_fragment 96 32] [$rsp+0]
	#DEBUG_VALUE: root1 <- [DW_OP_LLVM_fragment 32 32] $xmm0
	#DEBUG_VALUE: root1 <- [DW_OP_LLVM_fragment 64 32] $xmm11
	#DEBUG_VALUE: b1 <- [DW_OP_plus_uconst 192, DW_OP_LLVM_fragment 160 32] [$rsp+0]
	#DEBUG_VALUE: b2 <- [DW_OP_plus_uconst 4, DW_OP_LLVM_fragment 32 32] [$rsp+0]
	#DEBUG_VALUE: b2 <- [DW_OP_plus_uconst 480, DW_OP_LLVM_fragment 64 32] [$rsp+0]
	#DEBUG_VALUE: b2 <- [DW_OP_LLVM_fragment 96 32] [$rsp+0]
	#DEBUG_VALUE: b2 <- [DW_OP_plus_uconst 8, DW_OP_LLVM_fragment 128 32] [$rsp+0]
	#DEBUG_VALUE: b2 <- [DW_OP_plus_uconst 12, DW_OP_LLVM_fragment 160 32] [$rsp+0]
	#DEBUG_VALUE: filter_pqm_monotonicity:fd_r <- [DW_OP_plus_uconst 664] [$rsp+0]
	#DEBUG_VALUE: fd_r <- [DW_OP_plus_uconst 664] [$rsp+0]
	#DEBUG_VALUE: filter_pqm_monotonicity:fd_l <- [DW_OP_plus_uconst 648] [$rsp+0]
	#DEBUG_VALUE: fd_l <- [DW_OP_plus_uconst 648] [$rsp+0]
	#DEBUG_VALUE: filter_pqm_monotonicity:fv_l <- [DW_OP_plus_uconst 640] [$rsp+0]
	#DEBUG_VALUE: fv_l <- [DW_OP_plus_uconst 640] [$rsp+0]
	#DEBUG_VALUE: filter_pqm_monotonicity:fv_r <- [DW_OP_plus_uconst 656] [$rsp+0]
	#DEBUG_VALUE: fv_r <- [DW_OP_plus_uconst 656] [$rsp+0]
	#DEBUG_VALUE: sqrt_val <- [DW_OP_plus_uconst 752, DW_OP_LLVM_fragment 160 32] [$rsp+0]
	#DEBUG_VALUE: b1 <- [DW_OP_plus_uconst 672, DW_OP_LLVM_fragment 32 32] [$rsp+0]
	#DEBUG_VALUE: b1 <- [DW_OP_plus_uconst 384, DW_OP_LLVM_fragment 64 32] [$rsp+0]
	#DEBUG_VALUE: b1 <- [DW_OP_plus_uconst 80, DW_OP_LLVM_fragment 96 32] [$rsp+0]
	#DEBUG_VALUE: b1 <- [DW_OP_plus_uconst 208, DW_OP_LLVM_fragment 128 32] [$rsp+0]
	#DEBUG_VALUE: sqrt_val <- [DW_OP_plus_uconst 368, DW_OP_LLVM_fragment 128 32] [$rsp+0]
	#DEBUG_VALUE: sqrt_val <- [DW_OP_plus_uconst 96, DW_OP_LLVM_fragment 96 32] [$rsp+0]
	#DEBUG_VALUE: sqrt_val <- [DW_OP_plus_uconst 416, DW_OP_LLVM_fragment 64 32] [$rsp+0]
	#DEBUG_VALUE: sqrt_val <- [DW_OP_plus_uconst 704, DW_OP_LLVM_fragment 32 32] [$rsp+0]
	#DEBUG_VALUE: sqrt_val <- [DW_OP_plus_uconst 112, DW_OP_LLVM_fragment 0 32] [$rsp+0]
	#DEBUG_VALUE: b0 <- [DW_OP_plus_uconst 72, DW_OP_LLVM_fragment 0 32] [$rsp+0]
	#DEBUG_VALUE: values <- $rdi
	#DEBUG_VALUE: root_outside <- [DW_OP_LLVM_fragment 0 32] 1.000000e+02
	#DEBUG_VALUE: root_outside <- [DW_OP_LLVM_fragment 32 32] 1.000000e+02
	#DEBUG_VALUE: root_outside <- [DW_OP_LLVM_fragment 64 32] 1.000000e+02
	#DEBUG_VALUE: root_outside <- [DW_OP_LLVM_fragment 96 32] 1.000000e+02
	#DEBUG_VALUE: root_outside <- [DW_OP_LLVM_fragment 128 32] 1.000000e+02
	#DEBUG_VALUE: root_outside <- [DW_OP_LLVM_fragment 160 32] 1.000000e+02
	#DEBUG_VALUE: root_outside <- [DW_OP_LLVM_fragment 192 32] 1.000000e+02
	#DEBUG_VALUE: root_outside <- [DW_OP_LLVM_fragment 224 32] 1.000000e+02
	#DEBUG_VALUE: filter_pqm_monotonicity:values <- $rdi
	vmulss	%xmm0, %xmm4, %xmm1
	vaddss	%xmm1, %xmm5, %xmm1
	vmulss	%xmm1, %xmm0, %xmm1
	vaddss	32(%rsp), %xmm1, %xmm1  # 4-byte Folded Reload
	vmulss	%xmm1, %xmm0, %xmm0
.Ltmp258:
	vaddss	48(%rsp), %xmm0, %xmm1  # 4-byte Folded Reload
.Ltmp259:
.LBB5_5:                                # %L..inline.70094
	#DEBUG_VALUE: c2 <- [DW_OP_LLVM_fragment 32 32] $xmm5
	#DEBUG_VALUE: c3 <- [DW_OP_LLVM_fragment 32 32] $xmm4
	#DEBUG_VALUE: c2 <- [DW_OP_plus_uconst 28, DW_OP_LLVM_fragment 0 32] [$rsp+0]
	#DEBUG_VALUE: c0 <- [DW_OP_plus_uconst 76, DW_OP_LLVM_fragment 0 32] [$rsp+0]
	#DEBUG_VALUE: c0 <- [DW_OP_plus_uconst 48, DW_OP_LLVM_fragment 32 32] [$rsp+0]
	#DEBUG_VALUE: c0 <- [DW_OP_plus_uconst 52, DW_OP_LLVM_fragment 64 32] [$rsp+0]
	#DEBUG_VALUE: c0 <- [DW_OP_plus_uconst 60, DW_OP_LLVM_fragment 96 32] [$rsp+0]
	#DEBUG_VALUE: c0 <- [DW_OP_plus_uconst 68, DW_OP_LLVM_fragment 128 32] [$rsp+0]
	#DEBUG_VALUE: c0 <- [DW_OP_plus_uconst 64, DW_OP_LLVM_fragment 160 32] [$rsp+0]
	#DEBUG_VALUE: c1 <- [DW_OP_plus_uconst 72, DW_OP_LLVM_fragment 0 32] [$rsp+0]
	#DEBUG_VALUE: c1 <- [DW_OP_plus_uconst 32, DW_OP_LLVM_fragment 32 32] [$rsp+0]
	#DEBUG_VALUE: c1 <- [DW_OP_plus_uconst 36, DW_OP_LLVM_fragment 64 32] [$rsp+0]
	#DEBUG_VALUE: c1 <- [DW_OP_plus_uconst 40, DW_OP_LLVM_fragment 96 32] [$rsp+0]
	#DEBUG_VALUE: c1 <- [DW_OP_plus_uconst 56, DW_OP_LLVM_fragment 128 32] [$rsp+0]
	#DEBUG_VALUE: c1 <- [DW_OP_plus_uconst 44, DW_OP_LLVM_fragment 160 32] [$rsp+0]
	#DEBUG_VALUE: c3 <- [DW_OP_plus_uconst 24, DW_OP_LLVM_fragment 0 32] [$rsp+0]
	#DEBUG_VALUE: root1 <- [DW_OP_plus_uconst 144, DW_OP_LLVM_fragment 160 32] [$rsp+0]
	#DEBUG_VALUE: root1 <- [DW_OP_plus_uconst 140, DW_OP_LLVM_fragment 128 32] [$rsp+0]
	#DEBUG_VALUE: root1 <- [DW_OP_plus_uconst 16, DW_OP_LLVM_fragment 96 32] [$rsp+0]
	#DEBUG_VALUE: root1 <- [DW_OP_LLVM_fragment 64 32] $xmm11
	#DEBUG_VALUE: b1 <- [DW_OP_plus_uconst 192, DW_OP_LLVM_fragment 160 32] [$rsp+0]
	#DEBUG_VALUE: b2 <- [DW_OP_plus_uconst 4, DW_OP_LLVM_fragment 32 32] [$rsp+0]
	#DEBUG_VALUE: b2 <- [DW_OP_plus_uconst 480, DW_OP_LLVM_fragment 64 32] [$rsp+0]
	#DEBUG_VALUE: b2 <- [DW_OP_LLVM_fragment 96 32] [$rsp+0]
	#DEBUG_VALUE: b2 <- [DW_OP_plus_uconst 8, DW_OP_LLVM_fragment 128 32] [$rsp+0]
	#DEBUG_VALUE: b2 <- [DW_OP_plus_uconst 12, DW_OP_LLVM_fragment 160 32] [$rsp+0]
	#DEBUG_VALUE: filter_pqm_monotonicity:fd_r <- [DW_OP_plus_uconst 664] [$rsp+0]
	#DEBUG_VALUE: fd_r <- [DW_OP_plus_uconst 664] [$rsp+0]
	#DEBUG_VALUE: filter_pqm_monotonicity:fd_l <- [DW_OP_plus_uconst 648] [$rsp+0]
	#DEBUG_VALUE: fd_l <- [DW_OP_plus_uconst 648] [$rsp+0]
	#DEBUG_VALUE: filter_pqm_monotonicity:fv_l <- [DW_OP_plus_uconst 640] [$rsp+0]
	#DEBUG_VALUE: fv_l <- [DW_OP_plus_uconst 640] [$rsp+0]
	#DEBUG_VALUE: filter_pqm_monotonicity:fv_r <- [DW_OP_plus_uconst 656] [$rsp+0]
	#DEBUG_VALUE: fv_r <- [DW_OP_plus_uconst 656] [$rsp+0]
	#DEBUG_VALUE: sqrt_val <- [DW_OP_plus_uconst 752, DW_OP_LLVM_fragment 160 32] [$rsp+0]
	#DEBUG_VALUE: b1 <- [DW_OP_plus_uconst 672, DW_OP_LLVM_fragment 32 32] [$rsp+0]
	#DEBUG_VALUE: b1 <- [DW_OP_plus_uconst 384, DW_OP_LLVM_fragment 64 32] [$rsp+0]
	#DEBUG_VALUE: b1 <- [DW_OP_plus_uconst 80, DW_OP_LLVM_fragment 96 32] [$rsp+0]
	#DEBUG_VALUE: b1 <- [DW_OP_plus_uconst 208, DW_OP_LLVM_fragment 128 32] [$rsp+0]
	#DEBUG_VALUE: sqrt_val <- [DW_OP_plus_uconst 368, DW_OP_LLVM_fragment 128 32] [$rsp+0]
	#DEBUG_VALUE: sqrt_val <- [DW_OP_plus_uconst 96, DW_OP_LLVM_fragment 96 32] [$rsp+0]
	#DEBUG_VALUE: sqrt_val <- [DW_OP_plus_uconst 416, DW_OP_LLVM_fragment 64 32] [$rsp+0]
	#DEBUG_VALUE: sqrt_val <- [DW_OP_plus_uconst 704, DW_OP_LLVM_fragment 32 32] [$rsp+0]
	#DEBUG_VALUE: sqrt_val <- [DW_OP_plus_uconst 112, DW_OP_LLVM_fragment 0 32] [$rsp+0]
	#DEBUG_VALUE: b0 <- [DW_OP_plus_uconst 72, DW_OP_LLVM_fragment 0 32] [$rsp+0]
	#DEBUG_VALUE: values <- $rdi
	#DEBUG_VALUE: root_outside <- [DW_OP_LLVM_fragment 0 32] 1.000000e+02
	#DEBUG_VALUE: root_outside <- [DW_OP_LLVM_fragment 32 32] 1.000000e+02
	#DEBUG_VALUE: root_outside <- [DW_OP_LLVM_fragment 64 32] 1.000000e+02
	#DEBUG_VALUE: root_outside <- [DW_OP_LLVM_fragment 96 32] 1.000000e+02
	#DEBUG_VALUE: root_outside <- [DW_OP_LLVM_fragment 128 32] 1.000000e+02
	#DEBUG_VALUE: root_outside <- [DW_OP_LLVM_fragment 160 32] 1.000000e+02
	#DEBUG_VALUE: root_outside <- [DW_OP_LLVM_fragment 192 32] 1.000000e+02
	#DEBUG_VALUE: root_outside <- [DW_OP_LLVM_fragment 224 32] 1.000000e+02
	#DEBUG_VALUE: filter_pqm_monotonicity:values <- $rdi
	vmovss	%xmm4, 148(%rsp)        # 4-byte Spill
.Ltmp260:
	#DEBUG_VALUE: c3 <- [DW_OP_plus_uconst 148, DW_OP_LLVM_fragment 32 32] [$rsp+0]
	vmovss	%xmm5, 152(%rsp)        # 4-byte Spill
.Ltmp261:
	#DEBUG_VALUE: c2 <- [DW_OP_plus_uconst 152, DW_OP_LLVM_fragment 32 32] [$rsp+0]
	vmovss	%xmm1, 592(%rsp)        # 4-byte Spill
	vmovss	%xmm7, 20(%rsp)         # 4-byte Spill
	vmovss	%xmm2, 4(%rsp)          # 4-byte Spill
	vmovaps	%xmm3, 816(%rsp)        # 16-byte Spill
	vsubps	%xmm10, %xmm3, %xmm8
	vmovaps	352(%rsp), %xmm4        # 16-byte Reload
	vaddps	%xmm4, %xmm4, %xmm3
	vmovss	480(%rsp), %xmm1        # 4-byte Reload
                                        # xmm1 = mem[0],zero,zero,zero
	vdivss	%xmm6, %xmm1, %xmm0
.Ltmp262:
	#DEBUG_VALUE: c3 <- [DW_OP_LLVM_fragment 160 32] undef
	#DEBUG_VALUE: c3 <- [DW_OP_LLVM_fragment 128 32] undef
	#DEBUG_VALUE: c3 <- [DW_OP_LLVM_fragment 96 32] undef
	#DEBUG_VALUE: c3 <- [DW_OP_LLVM_fragment 64 32] $xmm0
	vmovaps	384(%rsp), %xmm5        # 16-byte Reload
	vmulss	%xmm12, %xmm5, %xmm7
.Ltmp263:
	#DEBUG_VALUE: c2 <- [DW_OP_LLVM_fragment 128 32] undef
	#DEBUG_VALUE: c2 <- [DW_OP_LLVM_fragment 96 32] undef
	#DEBUG_VALUE: c2 <- [DW_OP_LLVM_fragment 64 32] $xmm7
	#DEBUG_VALUE: c2 <- [DW_OP_LLVM_fragment 160 32] undef
	vbroadcastss	.LCPI5_15(%rip), %xmm2 # xmm2 = [-0.0E+0,-0.0E+0,-0.0E+0,-0.0E+0]
.Ltmp264:
	#DEBUG_VALUE: root2 <- [DW_OP_LLVM_fragment 160 32] undef
	#DEBUG_VALUE: root2 <- [DW_OP_LLVM_fragment 128 32] undef
	#DEBUG_VALUE: root2 <- [DW_OP_LLVM_fragment 96 32] undef
	#DEBUG_VALUE: root2 <- [DW_OP_LLVM_fragment 64 32] undef
	#DEBUG_VALUE: root2 <- [DW_OP_LLVM_fragment 32 32] undef
	#DEBUG_VALUE: root2 <- [DW_OP_LLVM_fragment 0 32] undef
	orb	%r9b, %al
.Ltmp265:
	#DEBUG_VALUE: root1_slope <- [DW_OP_plus_uconst 592, DW_OP_LLVM_fragment 32 32] [$rsp+0]
	.loc	4 1377 1 is_stmt 1      # vlasovsolver/cpu_1d_pqm.hpp:1377:1
	vpermilpd	$1, %xmm13, %xmm1 # xmm1 = xmm13[1,0]
	vmovapd	%xmm1, 480(%rsp)        # 16-byte Spill
	testb	%cl, %cl
	jne	.LBB5_7
.Ltmp266:
# %bb.6:                                # %L..inline.70094
	#DEBUG_VALUE: root1_slope <- [DW_OP_plus_uconst 592, DW_OP_LLVM_fragment 32 32] [$rsp+0]
	#DEBUG_VALUE: c2 <- [DW_OP_LLVM_fragment 64 32] $xmm7
	#DEBUG_VALUE: c3 <- [DW_OP_LLVM_fragment 64 32] $xmm0
	#DEBUG_VALUE: c2 <- [DW_OP_plus_uconst 152, DW_OP_LLVM_fragment 32 32] [$rsp+0]
	#DEBUG_VALUE: c3 <- [DW_OP_plus_uconst 148, DW_OP_LLVM_fragment 32 32] [$rsp+0]
	#DEBUG_VALUE: c2 <- [DW_OP_plus_uconst 28, DW_OP_LLVM_fragment 0 32] [$rsp+0]
	#DEBUG_VALUE: c0 <- [DW_OP_plus_uconst 76, DW_OP_LLVM_fragment 0 32] [$rsp+0]
	#DEBUG_VALUE: c0 <- [DW_OP_plus_uconst 48, DW_OP_LLVM_fragment 32 32] [$rsp+0]
	#DEBUG_VALUE: c0 <- [DW_OP_plus_uconst 52, DW_OP_LLVM_fragment 64 32] [$rsp+0]
	#DEBUG_VALUE: c0 <- [DW_OP_plus_uconst 60, DW_OP_LLVM_fragment 96 32] [$rsp+0]
	#DEBUG_VALUE: c0 <- [DW_OP_plus_uconst 68, DW_OP_LLVM_fragment 128 32] [$rsp+0]
	#DEBUG_VALUE: c0 <- [DW_OP_plus_uconst 64, DW_OP_LLVM_fragment 160 32] [$rsp+0]
	#DEBUG_VALUE: c1 <- [DW_OP_plus_uconst 72, DW_OP_LLVM_fragment 0 32] [$rsp+0]
	#DEBUG_VALUE: c1 <- [DW_OP_plus_uconst 32, DW_OP_LLVM_fragment 32 32] [$rsp+0]
	#DEBUG_VALUE: c1 <- [DW_OP_plus_uconst 36, DW_OP_LLVM_fragment 64 32] [$rsp+0]
	#DEBUG_VALUE: c1 <- [DW_OP_plus_uconst 40, DW_OP_LLVM_fragment 96 32] [$rsp+0]
	#DEBUG_VALUE: c1 <- [DW_OP_plus_uconst 56, DW_OP_LLVM_fragment 128 32] [$rsp+0]
	#DEBUG_VALUE: c1 <- [DW_OP_plus_uconst 44, DW_OP_LLVM_fragment 160 32] [$rsp+0]
	#DEBUG_VALUE: c3 <- [DW_OP_plus_uconst 24, DW_OP_LLVM_fragment 0 32] [$rsp+0]
	#DEBUG_VALUE: root1 <- [DW_OP_plus_uconst 144, DW_OP_LLVM_fragment 160 32] [$rsp+0]
	#DEBUG_VALUE: root1 <- [DW_OP_plus_uconst 140, DW_OP_LLVM_fragment 128 32] [$rsp+0]
	#DEBUG_VALUE: root1 <- [DW_OP_plus_uconst 16, DW_OP_LLVM_fragment 96 32] [$rsp+0]
	#DEBUG_VALUE: root1 <- [DW_OP_LLVM_fragment 64 32] $xmm11
	#DEBUG_VALUE: b1 <- [DW_OP_plus_uconst 192, DW_OP_LLVM_fragment 160 32] [$rsp+0]
	#DEBUG_VALUE: b2 <- [DW_OP_plus_uconst 4, DW_OP_LLVM_fragment 32 32] [$rsp+0]
	#DEBUG_VALUE: b2 <- [DW_OP_plus_uconst 480, DW_OP_LLVM_fragment 64 32] [$rsp+0]
	#DEBUG_VALUE: b2 <- [DW_OP_LLVM_fragment 96 32] [$rsp+0]
	#DEBUG_VALUE: b2 <- [DW_OP_plus_uconst 8, DW_OP_LLVM_fragment 128 32] [$rsp+0]
	#DEBUG_VALUE: b2 <- [DW_OP_plus_uconst 12, DW_OP_LLVM_fragment 160 32] [$rsp+0]
	#DEBUG_VALUE: filter_pqm_monotonicity:fd_r <- [DW_OP_plus_uconst 664] [$rsp+0]
	#DEBUG_VALUE: fd_r <- [DW_OP_plus_uconst 664] [$rsp+0]
	#DEBUG_VALUE: filter_pqm_monotonicity:fd_l <- [DW_OP_plus_uconst 648] [$rsp+0]
	#DEBUG_VALUE: fd_l <- [DW_OP_plus_uconst 648] [$rsp+0]
	#DEBUG_VALUE: filter_pqm_monotonicity:fv_l <- [DW_OP_plus_uconst 640] [$rsp+0]
	#DEBUG_VALUE: fv_l <- [DW_OP_plus_uconst 640] [$rsp+0]
	#DEBUG_VALUE: filter_pqm_monotonicity:fv_r <- [DW_OP_plus_uconst 656] [$rsp+0]
	#DEBUG_VALUE: fv_r <- [DW_OP_plus_uconst 656] [$rsp+0]
	#DEBUG_VALUE: sqrt_val <- [DW_OP_plus_uconst 752, DW_OP_LLVM_fragment 160 32] [$rsp+0]
	#DEBUG_VALUE: b1 <- [DW_OP_plus_uconst 672, DW_OP_LLVM_fragment 32 32] [$rsp+0]
	#DEBUG_VALUE: b1 <- [DW_OP_plus_uconst 384, DW_OP_LLVM_fragment 64 32] [$rsp+0]
	#DEBUG_VALUE: b1 <- [DW_OP_plus_uconst 80, DW_OP_LLVM_fragment 96 32] [$rsp+0]
	#DEBUG_VALUE: b1 <- [DW_OP_plus_uconst 208, DW_OP_LLVM_fragment 128 32] [$rsp+0]
	#DEBUG_VALUE: sqrt_val <- [DW_OP_plus_uconst 368, DW_OP_LLVM_fragment 128 32] [$rsp+0]
	#DEBUG_VALUE: sqrt_val <- [DW_OP_plus_uconst 96, DW_OP_LLVM_fragment 96 32] [$rsp+0]
	#DEBUG_VALUE: sqrt_val <- [DW_OP_plus_uconst 416, DW_OP_LLVM_fragment 64 32] [$rsp+0]
	#DEBUG_VALUE: sqrt_val <- [DW_OP_plus_uconst 704, DW_OP_LLVM_fragment 32 32] [$rsp+0]
	#DEBUG_VALUE: sqrt_val <- [DW_OP_plus_uconst 112, DW_OP_LLVM_fragment 0 32] [$rsp+0]
	#DEBUG_VALUE: b0 <- [DW_OP_plus_uconst 72, DW_OP_LLVM_fragment 0 32] [$rsp+0]
	#DEBUG_VALUE: values <- $rdi
	#DEBUG_VALUE: root_outside <- [DW_OP_LLVM_fragment 0 32] 1.000000e+02
	#DEBUG_VALUE: root_outside <- [DW_OP_LLVM_fragment 32 32] 1.000000e+02
	#DEBUG_VALUE: root_outside <- [DW_OP_LLVM_fragment 64 32] 1.000000e+02
	#DEBUG_VALUE: root_outside <- [DW_OP_LLVM_fragment 96 32] 1.000000e+02
	#DEBUG_VALUE: root_outside <- [DW_OP_LLVM_fragment 128 32] 1.000000e+02
	#DEBUG_VALUE: root_outside <- [DW_OP_LLVM_fragment 160 32] 1.000000e+02
	#DEBUG_VALUE: root_outside <- [DW_OP_LLVM_fragment 192 32] 1.000000e+02
	#DEBUG_VALUE: root_outside <- [DW_OP_LLVM_fragment 224 32] 1.000000e+02
	#DEBUG_VALUE: filter_pqm_monotonicity:values <- $rdi
	.loc	4 0 1 is_stmt 0         # vlasovsolver/cpu_1d_pqm.hpp:0:1
	vmulss	%xmm11, %xmm0, %xmm1
	vaddss	%xmm1, %xmm7, %xmm1
	vmulss	%xmm1, %xmm11, %xmm1
	vaddss	36(%rsp), %xmm1, %xmm1  # 4-byte Folded Reload
	vmulss	%xmm1, %xmm11, %xmm1
	vaddss	52(%rsp), %xmm1, %xmm1  # 4-byte Folded Reload
.Ltmp267:
.LBB5_7:                                # %L..inline.70094
	#DEBUG_VALUE: root1_slope <- [DW_OP_plus_uconst 592, DW_OP_LLVM_fragment 32 32] [$rsp+0]
	#DEBUG_VALUE: c2 <- [DW_OP_LLVM_fragment 64 32] $xmm7
	#DEBUG_VALUE: c3 <- [DW_OP_LLVM_fragment 64 32] $xmm0
	#DEBUG_VALUE: c2 <- [DW_OP_plus_uconst 152, DW_OP_LLVM_fragment 32 32] [$rsp+0]
	#DEBUG_VALUE: c3 <- [DW_OP_plus_uconst 148, DW_OP_LLVM_fragment 32 32] [$rsp+0]
	#DEBUG_VALUE: c2 <- [DW_OP_plus_uconst 28, DW_OP_LLVM_fragment 0 32] [$rsp+0]
	#DEBUG_VALUE: c0 <- [DW_OP_plus_uconst 76, DW_OP_LLVM_fragment 0 32] [$rsp+0]
	#DEBUG_VALUE: c0 <- [DW_OP_plus_uconst 48, DW_OP_LLVM_fragment 32 32] [$rsp+0]
	#DEBUG_VALUE: c0 <- [DW_OP_plus_uconst 52, DW_OP_LLVM_fragment 64 32] [$rsp+0]
	#DEBUG_VALUE: c0 <- [DW_OP_plus_uconst 60, DW_OP_LLVM_fragment 96 32] [$rsp+0]
	#DEBUG_VALUE: c0 <- [DW_OP_plus_uconst 68, DW_OP_LLVM_fragment 128 32] [$rsp+0]
	#DEBUG_VALUE: c0 <- [DW_OP_plus_uconst 64, DW_OP_LLVM_fragment 160 32] [$rsp+0]
	#DEBUG_VALUE: c1 <- [DW_OP_plus_uconst 72, DW_OP_LLVM_fragment 0 32] [$rsp+0]
	#DEBUG_VALUE: c1 <- [DW_OP_plus_uconst 32, DW_OP_LLVM_fragment 32 32] [$rsp+0]
	#DEBUG_VALUE: c1 <- [DW_OP_plus_uconst 36, DW_OP_LLVM_fragment 64 32] [$rsp+0]
	#DEBUG_VALUE: c1 <- [DW_OP_plus_uconst 40, DW_OP_LLVM_fragment 96 32] [$rsp+0]
	#DEBUG_VALUE: c1 <- [DW_OP_plus_uconst 56, DW_OP_LLVM_fragment 128 32] [$rsp+0]
	#DEBUG_VALUE: c1 <- [DW_OP_plus_uconst 44, DW_OP_LLVM_fragment 160 32] [$rsp+0]
	#DEBUG_VALUE: c3 <- [DW_OP_plus_uconst 24, DW_OP_LLVM_fragment 0 32] [$rsp+0]
	#DEBUG_VALUE: root1 <- [DW_OP_plus_uconst 144, DW_OP_LLVM_fragment 160 32] [$rsp+0]
	#DEBUG_VALUE: root1 <- [DW_OP_plus_uconst 140, DW_OP_LLVM_fragment 128 32] [$rsp+0]
	#DEBUG_VALUE: root1 <- [DW_OP_plus_uconst 16, DW_OP_LLVM_fragment 96 32] [$rsp+0]
	#DEBUG_VALUE: root1 <- [DW_OP_LLVM_fragment 64 32] $xmm11
	#DEBUG_VALUE: b1 <- [DW_OP_plus_uconst 192, DW_OP_LLVM_fragment 160 32] [$rsp+0]
	#DEBUG_VALUE: b2 <- [DW_OP_plus_uconst 4, DW_OP_LLVM_fragment 32 32] [$rsp+0]
	#DEBUG_VALUE: b2 <- [DW_OP_plus_uconst 480, DW_OP_LLVM_fragment 64 32] [$rsp+0]
	#DEBUG_VALUE: b2 <- [DW_OP_LLVM_fragment 96 32] [$rsp+0]
	#DEBUG_VALUE: b2 <- [DW_OP_plus_uconst 8, DW_OP_LLVM_fragment 128 32] [$rsp+0]
	#DEBUG_VALUE: b2 <- [DW_OP_plus_uconst 12, DW_OP_LLVM_fragment 160 32] [$rsp+0]
	#DEBUG_VALUE: filter_pqm_monotonicity:fd_r <- [DW_OP_plus_uconst 664] [$rsp+0]
	#DEBUG_VALUE: fd_r <- [DW_OP_plus_uconst 664] [$rsp+0]
	#DEBUG_VALUE: filter_pqm_monotonicity:fd_l <- [DW_OP_plus_uconst 648] [$rsp+0]
	#DEBUG_VALUE: fd_l <- [DW_OP_plus_uconst 648] [$rsp+0]
	#DEBUG_VALUE: filter_pqm_monotonicity:fv_l <- [DW_OP_plus_uconst 640] [$rsp+0]
	#DEBUG_VALUE: fv_l <- [DW_OP_plus_uconst 640] [$rsp+0]
	#DEBUG_VALUE: filter_pqm_monotonicity:fv_r <- [DW_OP_plus_uconst 656] [$rsp+0]
	#DEBUG_VALUE: fv_r <- [DW_OP_plus_uconst 656] [$rsp+0]
	#DEBUG_VALUE: sqrt_val <- [DW_OP_plus_uconst 752, DW_OP_LLVM_fragment 160 32] [$rsp+0]
	#DEBUG_VALUE: b1 <- [DW_OP_plus_uconst 672, DW_OP_LLVM_fragment 32 32] [$rsp+0]
	#DEBUG_VALUE: b1 <- [DW_OP_plus_uconst 384, DW_OP_LLVM_fragment 64 32] [$rsp+0]
	#DEBUG_VALUE: b1 <- [DW_OP_plus_uconst 80, DW_OP_LLVM_fragment 96 32] [$rsp+0]
	#DEBUG_VALUE: b1 <- [DW_OP_plus_uconst 208, DW_OP_LLVM_fragment 128 32] [$rsp+0]
	#DEBUG_VALUE: sqrt_val <- [DW_OP_plus_uconst 368, DW_OP_LLVM_fragment 128 32] [$rsp+0]
	#DEBUG_VALUE: sqrt_val <- [DW_OP_plus_uconst 96, DW_OP_LLVM_fragment 96 32] [$rsp+0]
	#DEBUG_VALUE: sqrt_val <- [DW_OP_plus_uconst 416, DW_OP_LLVM_fragment 64 32] [$rsp+0]
	#DEBUG_VALUE: sqrt_val <- [DW_OP_plus_uconst 704, DW_OP_LLVM_fragment 32 32] [$rsp+0]
	#DEBUG_VALUE: sqrt_val <- [DW_OP_plus_uconst 112, DW_OP_LLVM_fragment 0 32] [$rsp+0]
	#DEBUG_VALUE: b0 <- [DW_OP_plus_uconst 72, DW_OP_LLVM_fragment 0 32] [$rsp+0]
	#DEBUG_VALUE: values <- $rdi
	#DEBUG_VALUE: root_outside <- [DW_OP_LLVM_fragment 0 32] 1.000000e+02
	#DEBUG_VALUE: root_outside <- [DW_OP_LLVM_fragment 32 32] 1.000000e+02
	#DEBUG_VALUE: root_outside <- [DW_OP_LLVM_fragment 64 32] 1.000000e+02
	#DEBUG_VALUE: root_outside <- [DW_OP_LLVM_fragment 96 32] 1.000000e+02
	#DEBUG_VALUE: root_outside <- [DW_OP_LLVM_fragment 128 32] 1.000000e+02
	#DEBUG_VALUE: root_outside <- [DW_OP_LLVM_fragment 160 32] 1.000000e+02
	#DEBUG_VALUE: root_outside <- [DW_OP_LLVM_fragment 192 32] 1.000000e+02
	#DEBUG_VALUE: root_outside <- [DW_OP_LLVM_fragment 224 32] 1.000000e+02
	#DEBUG_VALUE: filter_pqm_monotonicity:values <- $rdi
	vmovss	%xmm0, 156(%rsp)        # 4-byte Spill
.Ltmp268:
	#DEBUG_VALUE: c3 <- [DW_OP_plus_uconst 156, DW_OP_LLVM_fragment 64 32] [$rsp+0]
	vmovss	%xmm7, 160(%rsp)        # 4-byte Spill
.Ltmp269:
	#DEBUG_VALUE: c2 <- [DW_OP_plus_uconst 160, DW_OP_LLVM_fragment 64 32] [$rsp+0]
	vmovss	%xmm1, 188(%rsp)        # 4-byte Spill
	vmovaps	%xmm3, 832(%rsp)        # 16-byte Spill
	vdivps	%xmm3, %xmm8, %xmm11
.Ltmp270:
	vdivps	%xmm6, %xmm4, %xmm8
	vmovss	(%rsp), %xmm0           # 4-byte Reload
                                        # xmm0 = mem[0],zero,zero,zero
	vdivss	%xmm6, %xmm0, %xmm0
.Ltmp271:
	#DEBUG_VALUE: c3 <- [DW_OP_LLVM_fragment 160 32] undef
	#DEBUG_VALUE: c3 <- [DW_OP_LLVM_fragment 128 32] undef
	#DEBUG_VALUE: c3 <- [DW_OP_LLVM_fragment 96 32] $xmm0
	vmovss	%xmm0, 352(%rsp)        # 4-byte Spill
.Ltmp272:
	#DEBUG_VALUE: c3 <- [DW_OP_plus_uconst 352, DW_OP_LLVM_fragment 96 32] [$rsp+0]
	#DEBUG_VALUE: c3 <- [DW_OP_plus_uconst 352, DW_OP_LLVM_fragment 96 32] [$rsp+0]
	vmovaps	80(%rsp), %xmm1         # 16-byte Reload
	vmulss	%xmm12, %xmm1, %xmm0
.Ltmp273:
	#DEBUG_VALUE: c2 <- [DW_OP_LLVM_fragment 128 32] undef
	#DEBUG_VALUE: c2 <- [DW_OP_LLVM_fragment 96 32] $xmm0
	#DEBUG_VALUE: c2 <- [DW_OP_LLVM_fragment 160 32] undef
	vxorps	256(%rsp), %xmm2, %xmm3 # 16-byte Folded Reload
	vxorps	%xmm2, %xmm14, %xmm9
	vmovaps	%xmm6, %xmm7
	vxorps	%xmm2, %xmm5, %xmm4
	vxorps	%xmm2, %xmm1, %xmm1
	vmovaps	208(%rsp), %xmm6        # 16-byte Reload
	vxorps	%xmm2, %xmm6, %xmm14
	vxorps	192(%rsp), %xmm2, %xmm5 # 16-byte Folded Reload
	vxorps	%xmm2, %xmm10, %xmm2
.Ltmp274:
	#DEBUG_VALUE: root2 <- [DW_OP_LLVM_fragment 160 32] undef
	#DEBUG_VALUE: root2 <- [DW_OP_LLVM_fragment 128 32] undef
	#DEBUG_VALUE: root2 <- [DW_OP_LLVM_fragment 96 32] undef
	#DEBUG_VALUE: root2 <- [DW_OP_LLVM_fragment 64 32] undef
	#DEBUG_VALUE: root2 <- [DW_OP_LLVM_fragment 32 32] undef
	#DEBUG_VALUE: root2 <- [DW_OP_LLVM_fragment 0 32] undef
	vmovaps	%xmm2, 256(%rsp)        # 16-byte Spill
	orb	%r14b, %r10b
.Ltmp275:
	#DEBUG_VALUE: root1_slope <- [DW_OP_plus_uconst 188, DW_OP_LLVM_fragment 64 32] [$rsp+0]
	vpermilps	$231, %xmm13, %xmm2 # xmm2 = xmm13[3,1,2,3]
	vmovaps	%xmm2, 672(%rsp)        # 16-byte Spill
	testb	%al, %al
	jne	.LBB5_9
.Ltmp276:
# %bb.8:                                # %L..inline.70094
	#DEBUG_VALUE: root1_slope <- [DW_OP_plus_uconst 188, DW_OP_LLVM_fragment 64 32] [$rsp+0]
	#DEBUG_VALUE: c2 <- [DW_OP_LLVM_fragment 96 32] $xmm0
	#DEBUG_VALUE: c3 <- [DW_OP_plus_uconst 352, DW_OP_LLVM_fragment 96 32] [$rsp+0]
	#DEBUG_VALUE: c2 <- [DW_OP_plus_uconst 160, DW_OP_LLVM_fragment 64 32] [$rsp+0]
	#DEBUG_VALUE: c3 <- [DW_OP_plus_uconst 156, DW_OP_LLVM_fragment 64 32] [$rsp+0]
	#DEBUG_VALUE: root1_slope <- [DW_OP_plus_uconst 592, DW_OP_LLVM_fragment 32 32] [$rsp+0]
	#DEBUG_VALUE: c2 <- [DW_OP_plus_uconst 152, DW_OP_LLVM_fragment 32 32] [$rsp+0]
	#DEBUG_VALUE: c3 <- [DW_OP_plus_uconst 148, DW_OP_LLVM_fragment 32 32] [$rsp+0]
	#DEBUG_VALUE: c2 <- [DW_OP_plus_uconst 28, DW_OP_LLVM_fragment 0 32] [$rsp+0]
	#DEBUG_VALUE: c0 <- [DW_OP_plus_uconst 76, DW_OP_LLVM_fragment 0 32] [$rsp+0]
	#DEBUG_VALUE: c0 <- [DW_OP_plus_uconst 48, DW_OP_LLVM_fragment 32 32] [$rsp+0]
	#DEBUG_VALUE: c0 <- [DW_OP_plus_uconst 52, DW_OP_LLVM_fragment 64 32] [$rsp+0]
	#DEBUG_VALUE: c0 <- [DW_OP_plus_uconst 60, DW_OP_LLVM_fragment 96 32] [$rsp+0]
	#DEBUG_VALUE: c0 <- [DW_OP_plus_uconst 68, DW_OP_LLVM_fragment 128 32] [$rsp+0]
	#DEBUG_VALUE: c0 <- [DW_OP_plus_uconst 64, DW_OP_LLVM_fragment 160 32] [$rsp+0]
	#DEBUG_VALUE: c1 <- [DW_OP_plus_uconst 72, DW_OP_LLVM_fragment 0 32] [$rsp+0]
	#DEBUG_VALUE: c1 <- [DW_OP_plus_uconst 32, DW_OP_LLVM_fragment 32 32] [$rsp+0]
	#DEBUG_VALUE: c1 <- [DW_OP_plus_uconst 36, DW_OP_LLVM_fragment 64 32] [$rsp+0]
	#DEBUG_VALUE: c1 <- [DW_OP_plus_uconst 40, DW_OP_LLVM_fragment 96 32] [$rsp+0]
	#DEBUG_VALUE: c1 <- [DW_OP_plus_uconst 56, DW_OP_LLVM_fragment 128 32] [$rsp+0]
	#DEBUG_VALUE: c1 <- [DW_OP_plus_uconst 44, DW_OP_LLVM_fragment 160 32] [$rsp+0]
	#DEBUG_VALUE: c3 <- [DW_OP_plus_uconst 24, DW_OP_LLVM_fragment 0 32] [$rsp+0]
	#DEBUG_VALUE: root1 <- [DW_OP_plus_uconst 144, DW_OP_LLVM_fragment 160 32] [$rsp+0]
	#DEBUG_VALUE: root1 <- [DW_OP_plus_uconst 140, DW_OP_LLVM_fragment 128 32] [$rsp+0]
	#DEBUG_VALUE: root1 <- [DW_OP_plus_uconst 16, DW_OP_LLVM_fragment 96 32] [$rsp+0]
	#DEBUG_VALUE: b1 <- [DW_OP_plus_uconst 192, DW_OP_LLVM_fragment 160 32] [$rsp+0]
	#DEBUG_VALUE: b2 <- [DW_OP_plus_uconst 4, DW_OP_LLVM_fragment 32 32] [$rsp+0]
	#DEBUG_VALUE: b2 <- [DW_OP_plus_uconst 480, DW_OP_LLVM_fragment 64 32] [$rsp+0]
	#DEBUG_VALUE: b2 <- [DW_OP_LLVM_fragment 96 32] [$rsp+0]
	#DEBUG_VALUE: b2 <- [DW_OP_plus_uconst 8, DW_OP_LLVM_fragment 128 32] [$rsp+0]
	#DEBUG_VALUE: b2 <- [DW_OP_plus_uconst 12, DW_OP_LLVM_fragment 160 32] [$rsp+0]
	#DEBUG_VALUE: filter_pqm_monotonicity:fd_r <- [DW_OP_plus_uconst 664] [$rsp+0]
	#DEBUG_VALUE: fd_r <- [DW_OP_plus_uconst 664] [$rsp+0]
	#DEBUG_VALUE: filter_pqm_monotonicity:fd_l <- [DW_OP_plus_uconst 648] [$rsp+0]
	#DEBUG_VALUE: fd_l <- [DW_OP_plus_uconst 648] [$rsp+0]
	#DEBUG_VALUE: filter_pqm_monotonicity:fv_l <- [DW_OP_plus_uconst 640] [$rsp+0]
	#DEBUG_VALUE: fv_l <- [DW_OP_plus_uconst 640] [$rsp+0]
	#DEBUG_VALUE: filter_pqm_monotonicity:fv_r <- [DW_OP_plus_uconst 656] [$rsp+0]
	#DEBUG_VALUE: fv_r <- [DW_OP_plus_uconst 656] [$rsp+0]
	#DEBUG_VALUE: sqrt_val <- [DW_OP_plus_uconst 752, DW_OP_LLVM_fragment 160 32] [$rsp+0]
	#DEBUG_VALUE: b1 <- [DW_OP_plus_uconst 672, DW_OP_LLVM_fragment 32 32] [$rsp+0]
	#DEBUG_VALUE: b1 <- [DW_OP_plus_uconst 384, DW_OP_LLVM_fragment 64 32] [$rsp+0]
	#DEBUG_VALUE: b1 <- [DW_OP_plus_uconst 80, DW_OP_LLVM_fragment 96 32] [$rsp+0]
	#DEBUG_VALUE: b1 <- [DW_OP_plus_uconst 208, DW_OP_LLVM_fragment 128 32] [$rsp+0]
	#DEBUG_VALUE: sqrt_val <- [DW_OP_plus_uconst 368, DW_OP_LLVM_fragment 128 32] [$rsp+0]
	#DEBUG_VALUE: sqrt_val <- [DW_OP_plus_uconst 96, DW_OP_LLVM_fragment 96 32] [$rsp+0]
	#DEBUG_VALUE: sqrt_val <- [DW_OP_plus_uconst 416, DW_OP_LLVM_fragment 64 32] [$rsp+0]
	#DEBUG_VALUE: sqrt_val <- [DW_OP_plus_uconst 704, DW_OP_LLVM_fragment 32 32] [$rsp+0]
	#DEBUG_VALUE: sqrt_val <- [DW_OP_plus_uconst 112, DW_OP_LLVM_fragment 0 32] [$rsp+0]
	#DEBUG_VALUE: b0 <- [DW_OP_plus_uconst 72, DW_OP_LLVM_fragment 0 32] [$rsp+0]
	#DEBUG_VALUE: values <- $rdi
	#DEBUG_VALUE: root_outside <- [DW_OP_LLVM_fragment 0 32] 1.000000e+02
	#DEBUG_VALUE: root_outside <- [DW_OP_LLVM_fragment 32 32] 1.000000e+02
	#DEBUG_VALUE: root_outside <- [DW_OP_LLVM_fragment 64 32] 1.000000e+02
	#DEBUG_VALUE: root_outside <- [DW_OP_LLVM_fragment 96 32] 1.000000e+02
	#DEBUG_VALUE: root_outside <- [DW_OP_LLVM_fragment 128 32] 1.000000e+02
	#DEBUG_VALUE: root_outside <- [DW_OP_LLVM_fragment 160 32] 1.000000e+02
	#DEBUG_VALUE: root_outside <- [DW_OP_LLVM_fragment 192 32] 1.000000e+02
	#DEBUG_VALUE: root_outside <- [DW_OP_LLVM_fragment 224 32] 1.000000e+02
	#DEBUG_VALUE: filter_pqm_monotonicity:values <- $rdi
	vmovaps	%xmm5, 384(%rsp)        # 16-byte Spill
	vmovss	16(%rsp), %xmm5         # 4-byte Reload
                                        # xmm5 = mem[0],zero,zero,zero
	vmulss	352(%rsp), %xmm5, %xmm2 # 4-byte Folded Reload
	vaddss	%xmm2, %xmm0, %xmm2
	vmulss	%xmm2, %xmm5, %xmm2
	vaddss	40(%rsp), %xmm2, %xmm2  # 4-byte Folded Reload
	vmulss	%xmm2, %xmm5, %xmm2
	vmovaps	384(%rsp), %xmm5        # 16-byte Reload
	vaddss	60(%rsp), %xmm2, %xmm2  # 4-byte Folded Reload
.Ltmp277:
.LBB5_9:                                # %L..inline.70094
	#DEBUG_VALUE: root1_slope <- [DW_OP_plus_uconst 188, DW_OP_LLVM_fragment 64 32] [$rsp+0]
	#DEBUG_VALUE: c2 <- [DW_OP_LLVM_fragment 96 32] $xmm0
	#DEBUG_VALUE: c3 <- [DW_OP_plus_uconst 352, DW_OP_LLVM_fragment 96 32] [$rsp+0]
	#DEBUG_VALUE: c2 <- [DW_OP_plus_uconst 160, DW_OP_LLVM_fragment 64 32] [$rsp+0]
	#DEBUG_VALUE: c3 <- [DW_OP_plus_uconst 156, DW_OP_LLVM_fragment 64 32] [$rsp+0]
	#DEBUG_VALUE: root1_slope <- [DW_OP_plus_uconst 592, DW_OP_LLVM_fragment 32 32] [$rsp+0]
	#DEBUG_VALUE: c2 <- [DW_OP_plus_uconst 152, DW_OP_LLVM_fragment 32 32] [$rsp+0]
	#DEBUG_VALUE: c3 <- [DW_OP_plus_uconst 148, DW_OP_LLVM_fragment 32 32] [$rsp+0]
	#DEBUG_VALUE: c2 <- [DW_OP_plus_uconst 28, DW_OP_LLVM_fragment 0 32] [$rsp+0]
	#DEBUG_VALUE: c0 <- [DW_OP_plus_uconst 76, DW_OP_LLVM_fragment 0 32] [$rsp+0]
	#DEBUG_VALUE: c0 <- [DW_OP_plus_uconst 48, DW_OP_LLVM_fragment 32 32] [$rsp+0]
	#DEBUG_VALUE: c0 <- [DW_OP_plus_uconst 52, DW_OP_LLVM_fragment 64 32] [$rsp+0]
	#DEBUG_VALUE: c0 <- [DW_OP_plus_uconst 60, DW_OP_LLVM_fragment 96 32] [$rsp+0]
	#DEBUG_VALUE: c0 <- [DW_OP_plus_uconst 68, DW_OP_LLVM_fragment 128 32] [$rsp+0]
	#DEBUG_VALUE: c0 <- [DW_OP_plus_uconst 64, DW_OP_LLVM_fragment 160 32] [$rsp+0]
	#DEBUG_VALUE: c1 <- [DW_OP_plus_uconst 72, DW_OP_LLVM_fragment 0 32] [$rsp+0]
	#DEBUG_VALUE: c1 <- [DW_OP_plus_uconst 32, DW_OP_LLVM_fragment 32 32] [$rsp+0]
	#DEBUG_VALUE: c1 <- [DW_OP_plus_uconst 36, DW_OP_LLVM_fragment 64 32] [$rsp+0]
	#DEBUG_VALUE: c1 <- [DW_OP_plus_uconst 40, DW_OP_LLVM_fragment 96 32] [$rsp+0]
	#DEBUG_VALUE: c1 <- [DW_OP_plus_uconst 56, DW_OP_LLVM_fragment 128 32] [$rsp+0]
	#DEBUG_VALUE: c1 <- [DW_OP_plus_uconst 44, DW_OP_LLVM_fragment 160 32] [$rsp+0]
	#DEBUG_VALUE: c3 <- [DW_OP_plus_uconst 24, DW_OP_LLVM_fragment 0 32] [$rsp+0]
	#DEBUG_VALUE: root1 <- [DW_OP_plus_uconst 144, DW_OP_LLVM_fragment 160 32] [$rsp+0]
	#DEBUG_VALUE: root1 <- [DW_OP_plus_uconst 140, DW_OP_LLVM_fragment 128 32] [$rsp+0]
	#DEBUG_VALUE: root1 <- [DW_OP_plus_uconst 16, DW_OP_LLVM_fragment 96 32] [$rsp+0]
	#DEBUG_VALUE: b1 <- [DW_OP_plus_uconst 192, DW_OP_LLVM_fragment 160 32] [$rsp+0]
	#DEBUG_VALUE: b2 <- [DW_OP_plus_uconst 4, DW_OP_LLVM_fragment 32 32] [$rsp+0]
	#DEBUG_VALUE: b2 <- [DW_OP_plus_uconst 480, DW_OP_LLVM_fragment 64 32] [$rsp+0]
	#DEBUG_VALUE: b2 <- [DW_OP_LLVM_fragment 96 32] [$rsp+0]
	#DEBUG_VALUE: b2 <- [DW_OP_plus_uconst 8, DW_OP_LLVM_fragment 128 32] [$rsp+0]
	#DEBUG_VALUE: b2 <- [DW_OP_plus_uconst 12, DW_OP_LLVM_fragment 160 32] [$rsp+0]
	#DEBUG_VALUE: filter_pqm_monotonicity:fd_r <- [DW_OP_plus_uconst 664] [$rsp+0]
	#DEBUG_VALUE: fd_r <- [DW_OP_plus_uconst 664] [$rsp+0]
	#DEBUG_VALUE: filter_pqm_monotonicity:fd_l <- [DW_OP_plus_uconst 648] [$rsp+0]
	#DEBUG_VALUE: fd_l <- [DW_OP_plus_uconst 648] [$rsp+0]
	#DEBUG_VALUE: filter_pqm_monotonicity:fv_l <- [DW_OP_plus_uconst 640] [$rsp+0]
	#DEBUG_VALUE: fv_l <- [DW_OP_plus_uconst 640] [$rsp+0]
	#DEBUG_VALUE: filter_pqm_monotonicity:fv_r <- [DW_OP_plus_uconst 656] [$rsp+0]
	#DEBUG_VALUE: fv_r <- [DW_OP_plus_uconst 656] [$rsp+0]
	#DEBUG_VALUE: sqrt_val <- [DW_OP_plus_uconst 752, DW_OP_LLVM_fragment 160 32] [$rsp+0]
	#DEBUG_VALUE: b1 <- [DW_OP_plus_uconst 672, DW_OP_LLVM_fragment 32 32] [$rsp+0]
	#DEBUG_VALUE: b1 <- [DW_OP_plus_uconst 384, DW_OP_LLVM_fragment 64 32] [$rsp+0]
	#DEBUG_VALUE: b1 <- [DW_OP_plus_uconst 80, DW_OP_LLVM_fragment 96 32] [$rsp+0]
	#DEBUG_VALUE: b1 <- [DW_OP_plus_uconst 208, DW_OP_LLVM_fragment 128 32] [$rsp+0]
	#DEBUG_VALUE: sqrt_val <- [DW_OP_plus_uconst 368, DW_OP_LLVM_fragment 128 32] [$rsp+0]
	#DEBUG_VALUE: sqrt_val <- [DW_OP_plus_uconst 96, DW_OP_LLVM_fragment 96 32] [$rsp+0]
	#DEBUG_VALUE: sqrt_val <- [DW_OP_plus_uconst 416, DW_OP_LLVM_fragment 64 32] [$rsp+0]
	#DEBUG_VALUE: sqrt_val <- [DW_OP_plus_uconst 704, DW_OP_LLVM_fragment 32 32] [$rsp+0]
	#DEBUG_VALUE: sqrt_val <- [DW_OP_plus_uconst 112, DW_OP_LLVM_fragment 0 32] [$rsp+0]
	#DEBUG_VALUE: b0 <- [DW_OP_plus_uconst 72, DW_OP_LLVM_fragment 0 32] [$rsp+0]
	#DEBUG_VALUE: values <- $rdi
	#DEBUG_VALUE: root_outside <- [DW_OP_LLVM_fragment 0 32] 1.000000e+02
	#DEBUG_VALUE: root_outside <- [DW_OP_LLVM_fragment 32 32] 1.000000e+02
	#DEBUG_VALUE: root_outside <- [DW_OP_LLVM_fragment 64 32] 1.000000e+02
	#DEBUG_VALUE: root_outside <- [DW_OP_LLVM_fragment 96 32] 1.000000e+02
	#DEBUG_VALUE: root_outside <- [DW_OP_LLVM_fragment 128 32] 1.000000e+02
	#DEBUG_VALUE: root_outside <- [DW_OP_LLVM_fragment 160 32] 1.000000e+02
	#DEBUG_VALUE: root_outside <- [DW_OP_LLVM_fragment 192 32] 1.000000e+02
	#DEBUG_VALUE: root_outside <- [DW_OP_LLVM_fragment 224 32] 1.000000e+02
	#DEBUG_VALUE: filter_pqm_monotonicity:values <- $rdi
	vmovss	%xmm0, 16(%rsp)         # 4-byte Spill
.Ltmp278:
	#DEBUG_VALUE: c2 <- [DW_OP_plus_uconst 16, DW_OP_LLVM_fragment 96 32] [$rsp+0]
	vmovss	%xmm2, 384(%rsp)        # 4-byte Spill
	vsubss	112(%rsp), %xmm3, %xmm0 # 16-byte Folded Reload
	vmovss	%xmm0, 80(%rsp)         # 4-byte Spill
	vsubss	704(%rsp), %xmm9, %xmm0 # 16-byte Folded Reload
	vmovss	%xmm0, (%rsp)           # 4-byte Spill
	vsubss	416(%rsp), %xmm4, %xmm0 # 16-byte Folded Reload
	vmovss	%xmm0, 112(%rsp)        # 4-byte Spill
	vinsertps	$16, %xmm12, %xmm8, %xmm2 # xmm2 = xmm8[0],xmm12[0],xmm8[2,3]
	vsubss	96(%rsp), %xmm1, %xmm0  # 16-byte Folded Reload
	vmovss	%xmm0, 416(%rsp)        # 4-byte Spill
	vblendps	$2, %xmm10, %xmm11, %xmm1 # xmm1 = xmm11[0],xmm10[1],xmm11[2,3]
	vblendps	$2, %xmm11, %xmm10, %xmm10 # xmm10 = xmm10[0],xmm11[1],xmm10[2,3]
	vsubss	368(%rsp), %xmm14, %xmm3 # 16-byte Folded Reload
	vmovaps	%xmm8, 96(%rsp)         # 16-byte Spill
	vblendps	$1, %xmm12, %xmm8, %xmm4 # xmm4 = xmm12[0],xmm8[1,2,3]
	vmovss	8(%rsp), %xmm0          # 4-byte Reload
                                        # xmm0 = mem[0],zero,zero,zero
	vdivss	%xmm7, %xmm0, %xmm0
.Ltmp279:
	#DEBUG_VALUE: c3 <- [DW_OP_LLVM_fragment 160 32] undef
	#DEBUG_VALUE: c3 <- [DW_OP_LLVM_fragment 128 32] $xmm0
	vmovss	%xmm0, 8(%rsp)          # 4-byte Spill
.Ltmp280:
	#DEBUG_VALUE: c3 <- [DW_OP_plus_uconst 8, DW_OP_LLVM_fragment 128 32] [$rsp+0]
	#DEBUG_VALUE: c3 <- [DW_OP_plus_uconst 8, DW_OP_LLVM_fragment 128 32] [$rsp+0]
	vmulss	%xmm12, %xmm6, %xmm0
.Ltmp281:
	#DEBUG_VALUE: c2 <- [DW_OP_LLVM_fragment 128 32] $xmm0
	#DEBUG_VALUE: c2 <- [DW_OP_LLVM_fragment 160 32] undef
	vmovss	%xmm0, 208(%rsp)        # 4-byte Spill
.Ltmp282:
	#DEBUG_VALUE: c2 <- [DW_OP_plus_uconst 208, DW_OP_LLVM_fragment 128 32] [$rsp+0]
	#DEBUG_VALUE: c2 <- [DW_OP_plus_uconst 208, DW_OP_LLVM_fragment 128 32] [$rsp+0]
	vsubss	752(%rsp), %xmm5, %xmm9 # 16-byte Folded Reload
	vmovaps	256(%rsp), %xmm0        # 16-byte Reload
	vsubps	816(%rsp), %xmm0, %xmm14 # 16-byte Folded Reload
.Ltmp283:
	#DEBUG_VALUE: root2 <- [DW_OP_LLVM_fragment 160 32] undef
	#DEBUG_VALUE: root2 <- [DW_OP_LLVM_fragment 128 32] undef
	#DEBUG_VALUE: root2 <- [DW_OP_LLVM_fragment 96 32] undef
	#DEBUG_VALUE: root2 <- [DW_OP_LLVM_fragment 64 32] undef
	#DEBUG_VALUE: root2 <- [DW_OP_LLVM_fragment 32 32] undef
	#DEBUG_VALUE: root2 <- [DW_OP_LLVM_fragment 0 32] undef
	orb	%sil, %r11b
.Ltmp284:
	#DEBUG_VALUE: root1_slope <- [DW_OP_plus_uconst 384, DW_OP_LLVM_fragment 96 32] [$rsp+0]
	vmovaps	%ymm13, 256(%rsp)       # 32-byte Spill
	vextractf128	$1, %ymm13, %xmm6
.Ltmp285:
	.loc	4 1377 1                # vlasovsolver/cpu_1d_pqm.hpp:1377:1
	vmovaps	%xmm6, %xmm0
	testb	%r10b, %r10b
	vmovaps	%xmm7, %xmm5
	jne	.LBB5_11
.Ltmp286:
# %bb.10:                               # %L..inline.70094
	#DEBUG_VALUE: root1_slope <- [DW_OP_plus_uconst 384, DW_OP_LLVM_fragment 96 32] [$rsp+0]
	#DEBUG_VALUE: c2 <- [DW_OP_plus_uconst 208, DW_OP_LLVM_fragment 128 32] [$rsp+0]
	#DEBUG_VALUE: c3 <- [DW_OP_plus_uconst 8, DW_OP_LLVM_fragment 128 32] [$rsp+0]
	#DEBUG_VALUE: c2 <- [DW_OP_plus_uconst 16, DW_OP_LLVM_fragment 96 32] [$rsp+0]
	#DEBUG_VALUE: root1_slope <- [DW_OP_plus_uconst 188, DW_OP_LLVM_fragment 64 32] [$rsp+0]
	#DEBUG_VALUE: c3 <- [DW_OP_plus_uconst 352, DW_OP_LLVM_fragment 96 32] [$rsp+0]
	#DEBUG_VALUE: c2 <- [DW_OP_plus_uconst 160, DW_OP_LLVM_fragment 64 32] [$rsp+0]
	#DEBUG_VALUE: c3 <- [DW_OP_plus_uconst 156, DW_OP_LLVM_fragment 64 32] [$rsp+0]
	#DEBUG_VALUE: root1_slope <- [DW_OP_plus_uconst 592, DW_OP_LLVM_fragment 32 32] [$rsp+0]
	#DEBUG_VALUE: c2 <- [DW_OP_plus_uconst 152, DW_OP_LLVM_fragment 32 32] [$rsp+0]
	#DEBUG_VALUE: c3 <- [DW_OP_plus_uconst 148, DW_OP_LLVM_fragment 32 32] [$rsp+0]
	#DEBUG_VALUE: c2 <- [DW_OP_plus_uconst 28, DW_OP_LLVM_fragment 0 32] [$rsp+0]
	#DEBUG_VALUE: c0 <- [DW_OP_plus_uconst 76, DW_OP_LLVM_fragment 0 32] [$rsp+0]
	#DEBUG_VALUE: c0 <- [DW_OP_plus_uconst 48, DW_OP_LLVM_fragment 32 32] [$rsp+0]
	#DEBUG_VALUE: c0 <- [DW_OP_plus_uconst 52, DW_OP_LLVM_fragment 64 32] [$rsp+0]
	#DEBUG_VALUE: c0 <- [DW_OP_plus_uconst 60, DW_OP_LLVM_fragment 96 32] [$rsp+0]
	#DEBUG_VALUE: c0 <- [DW_OP_plus_uconst 68, DW_OP_LLVM_fragment 128 32] [$rsp+0]
	#DEBUG_VALUE: c0 <- [DW_OP_plus_uconst 64, DW_OP_LLVM_fragment 160 32] [$rsp+0]
	#DEBUG_VALUE: c1 <- [DW_OP_plus_uconst 72, DW_OP_LLVM_fragment 0 32] [$rsp+0]
	#DEBUG_VALUE: c1 <- [DW_OP_plus_uconst 32, DW_OP_LLVM_fragment 32 32] [$rsp+0]
	#DEBUG_VALUE: c1 <- [DW_OP_plus_uconst 36, DW_OP_LLVM_fragment 64 32] [$rsp+0]
	#DEBUG_VALUE: c1 <- [DW_OP_plus_uconst 40, DW_OP_LLVM_fragment 96 32] [$rsp+0]
	#DEBUG_VALUE: c1 <- [DW_OP_plus_uconst 56, DW_OP_LLVM_fragment 128 32] [$rsp+0]
	#DEBUG_VALUE: c1 <- [DW_OP_plus_uconst 44, DW_OP_LLVM_fragment 160 32] [$rsp+0]
	#DEBUG_VALUE: c3 <- [DW_OP_plus_uconst 24, DW_OP_LLVM_fragment 0 32] [$rsp+0]
	#DEBUG_VALUE: root1 <- [DW_OP_plus_uconst 144, DW_OP_LLVM_fragment 160 32] [$rsp+0]
	#DEBUG_VALUE: root1 <- [DW_OP_plus_uconst 140, DW_OP_LLVM_fragment 128 32] [$rsp+0]
	#DEBUG_VALUE: root1 <- [DW_OP_plus_uconst 16, DW_OP_LLVM_fragment 96 32] [$rsp+0]
	#DEBUG_VALUE: b1 <- [DW_OP_plus_uconst 192, DW_OP_LLVM_fragment 160 32] [$rsp+0]
	#DEBUG_VALUE: b2 <- [DW_OP_plus_uconst 4, DW_OP_LLVM_fragment 32 32] [$rsp+0]
	#DEBUG_VALUE: b2 <- [DW_OP_plus_uconst 480, DW_OP_LLVM_fragment 64 32] [$rsp+0]
	#DEBUG_VALUE: b2 <- [DW_OP_LLVM_fragment 96 32] [$rsp+0]
	#DEBUG_VALUE: b2 <- [DW_OP_plus_uconst 8, DW_OP_LLVM_fragment 128 32] [$rsp+0]
	#DEBUG_VALUE: b2 <- [DW_OP_plus_uconst 12, DW_OP_LLVM_fragment 160 32] [$rsp+0]
	#DEBUG_VALUE: filter_pqm_monotonicity:fd_r <- [DW_OP_plus_uconst 664] [$rsp+0]
	#DEBUG_VALUE: fd_r <- [DW_OP_plus_uconst 664] [$rsp+0]
	#DEBUG_VALUE: filter_pqm_monotonicity:fd_l <- [DW_OP_plus_uconst 648] [$rsp+0]
	#DEBUG_VALUE: fd_l <- [DW_OP_plus_uconst 648] [$rsp+0]
	#DEBUG_VALUE: filter_pqm_monotonicity:fv_l <- [DW_OP_plus_uconst 640] [$rsp+0]
	#DEBUG_VALUE: fv_l <- [DW_OP_plus_uconst 640] [$rsp+0]
	#DEBUG_VALUE: filter_pqm_monotonicity:fv_r <- [DW_OP_plus_uconst 656] [$rsp+0]
	#DEBUG_VALUE: fv_r <- [DW_OP_plus_uconst 656] [$rsp+0]
	#DEBUG_VALUE: sqrt_val <- [DW_OP_plus_uconst 752, DW_OP_LLVM_fragment 160 32] [$rsp+0]
	#DEBUG_VALUE: b1 <- [DW_OP_plus_uconst 672, DW_OP_LLVM_fragment 32 32] [$rsp+0]
	#DEBUG_VALUE: b1 <- [DW_OP_plus_uconst 384, DW_OP_LLVM_fragment 64 32] [$rsp+0]
	#DEBUG_VALUE: b1 <- [DW_OP_plus_uconst 80, DW_OP_LLVM_fragment 96 32] [$rsp+0]
	#DEBUG_VALUE: b1 <- [DW_OP_plus_uconst 208, DW_OP_LLVM_fragment 128 32] [$rsp+0]
	#DEBUG_VALUE: sqrt_val <- [DW_OP_plus_uconst 368, DW_OP_LLVM_fragment 128 32] [$rsp+0]
	#DEBUG_VALUE: sqrt_val <- [DW_OP_plus_uconst 96, DW_OP_LLVM_fragment 96 32] [$rsp+0]
	#DEBUG_VALUE: sqrt_val <- [DW_OP_plus_uconst 416, DW_OP_LLVM_fragment 64 32] [$rsp+0]
	#DEBUG_VALUE: sqrt_val <- [DW_OP_plus_uconst 704, DW_OP_LLVM_fragment 32 32] [$rsp+0]
	#DEBUG_VALUE: sqrt_val <- [DW_OP_plus_uconst 112, DW_OP_LLVM_fragment 0 32] [$rsp+0]
	#DEBUG_VALUE: b0 <- [DW_OP_plus_uconst 72, DW_OP_LLVM_fragment 0 32] [$rsp+0]
	#DEBUG_VALUE: values <- $rdi
	#DEBUG_VALUE: root_outside <- [DW_OP_LLVM_fragment 0 32] 1.000000e+02
	#DEBUG_VALUE: root_outside <- [DW_OP_LLVM_fragment 32 32] 1.000000e+02
	#DEBUG_VALUE: root_outside <- [DW_OP_LLVM_fragment 64 32] 1.000000e+02
	#DEBUG_VALUE: root_outside <- [DW_OP_LLVM_fragment 96 32] 1.000000e+02
	#DEBUG_VALUE: root_outside <- [DW_OP_LLVM_fragment 128 32] 1.000000e+02
	#DEBUG_VALUE: root_outside <- [DW_OP_LLVM_fragment 160 32] 1.000000e+02
	#DEBUG_VALUE: root_outside <- [DW_OP_LLVM_fragment 192 32] 1.000000e+02
	#DEBUG_VALUE: root_outside <- [DW_OP_LLVM_fragment 224 32] 1.000000e+02
	#DEBUG_VALUE: filter_pqm_monotonicity:values <- $rdi
	.loc	4 0 1                   # vlasovsolver/cpu_1d_pqm.hpp:0:1
	vmovss	140(%rsp), %xmm0        # 4-byte Reload
                                        # xmm0 = mem[0],zero,zero,zero
	vmulss	8(%rsp), %xmm0, %xmm7   # 4-byte Folded Reload
	vaddss	208(%rsp), %xmm7, %xmm7 # 4-byte Folded Reload
	vmulss	%xmm7, %xmm0, %xmm7
	vaddss	56(%rsp), %xmm7, %xmm7  # 4-byte Folded Reload
	vmulss	%xmm7, %xmm0, %xmm7
	vaddss	68(%rsp), %xmm7, %xmm0  # 4-byte Folded Reload
.Ltmp287:
.LBB5_11:                               # %L..inline.70094
	#DEBUG_VALUE: root1_slope <- [DW_OP_plus_uconst 384, DW_OP_LLVM_fragment 96 32] [$rsp+0]
	#DEBUG_VALUE: c2 <- [DW_OP_plus_uconst 208, DW_OP_LLVM_fragment 128 32] [$rsp+0]
	#DEBUG_VALUE: c3 <- [DW_OP_plus_uconst 8, DW_OP_LLVM_fragment 128 32] [$rsp+0]
	#DEBUG_VALUE: c2 <- [DW_OP_plus_uconst 16, DW_OP_LLVM_fragment 96 32] [$rsp+0]
	#DEBUG_VALUE: root1_slope <- [DW_OP_plus_uconst 188, DW_OP_LLVM_fragment 64 32] [$rsp+0]
	#DEBUG_VALUE: c3 <- [DW_OP_plus_uconst 352, DW_OP_LLVM_fragment 96 32] [$rsp+0]
	#DEBUG_VALUE: c2 <- [DW_OP_plus_uconst 160, DW_OP_LLVM_fragment 64 32] [$rsp+0]
	#DEBUG_VALUE: c3 <- [DW_OP_plus_uconst 156, DW_OP_LLVM_fragment 64 32] [$rsp+0]
	#DEBUG_VALUE: root1_slope <- [DW_OP_plus_uconst 592, DW_OP_LLVM_fragment 32 32] [$rsp+0]
	#DEBUG_VALUE: c2 <- [DW_OP_plus_uconst 152, DW_OP_LLVM_fragment 32 32] [$rsp+0]
	#DEBUG_VALUE: c3 <- [DW_OP_plus_uconst 148, DW_OP_LLVM_fragment 32 32] [$rsp+0]
	#DEBUG_VALUE: c2 <- [DW_OP_plus_uconst 28, DW_OP_LLVM_fragment 0 32] [$rsp+0]
	#DEBUG_VALUE: c0 <- [DW_OP_plus_uconst 76, DW_OP_LLVM_fragment 0 32] [$rsp+0]
	#DEBUG_VALUE: c0 <- [DW_OP_plus_uconst 48, DW_OP_LLVM_fragment 32 32] [$rsp+0]
	#DEBUG_VALUE: c0 <- [DW_OP_plus_uconst 52, DW_OP_LLVM_fragment 64 32] [$rsp+0]
	#DEBUG_VALUE: c0 <- [DW_OP_plus_uconst 60, DW_OP_LLVM_fragment 96 32] [$rsp+0]
	#DEBUG_VALUE: c0 <- [DW_OP_plus_uconst 68, DW_OP_LLVM_fragment 128 32] [$rsp+0]
	#DEBUG_VALUE: c0 <- [DW_OP_plus_uconst 64, DW_OP_LLVM_fragment 160 32] [$rsp+0]
	#DEBUG_VALUE: c1 <- [DW_OP_plus_uconst 72, DW_OP_LLVM_fragment 0 32] [$rsp+0]
	#DEBUG_VALUE: c1 <- [DW_OP_plus_uconst 32, DW_OP_LLVM_fragment 32 32] [$rsp+0]
	#DEBUG_VALUE: c1 <- [DW_OP_plus_uconst 36, DW_OP_LLVM_fragment 64 32] [$rsp+0]
	#DEBUG_VALUE: c1 <- [DW_OP_plus_uconst 40, DW_OP_LLVM_fragment 96 32] [$rsp+0]
	#DEBUG_VALUE: c1 <- [DW_OP_plus_uconst 56, DW_OP_LLVM_fragment 128 32] [$rsp+0]
	#DEBUG_VALUE: c1 <- [DW_OP_plus_uconst 44, DW_OP_LLVM_fragment 160 32] [$rsp+0]
	#DEBUG_VALUE: c3 <- [DW_OP_plus_uconst 24, DW_OP_LLVM_fragment 0 32] [$rsp+0]
	#DEBUG_VALUE: root1 <- [DW_OP_plus_uconst 144, DW_OP_LLVM_fragment 160 32] [$rsp+0]
	#DEBUG_VALUE: root1 <- [DW_OP_plus_uconst 140, DW_OP_LLVM_fragment 128 32] [$rsp+0]
	#DEBUG_VALUE: root1 <- [DW_OP_plus_uconst 16, DW_OP_LLVM_fragment 96 32] [$rsp+0]
	#DEBUG_VALUE: b1 <- [DW_OP_plus_uconst 192, DW_OP_LLVM_fragment 160 32] [$rsp+0]
	#DEBUG_VALUE: b2 <- [DW_OP_plus_uconst 4, DW_OP_LLVM_fragment 32 32] [$rsp+0]
	#DEBUG_VALUE: b2 <- [DW_OP_plus_uconst 480, DW_OP_LLVM_fragment 64 32] [$rsp+0]
	#DEBUG_VALUE: b2 <- [DW_OP_LLVM_fragment 96 32] [$rsp+0]
	#DEBUG_VALUE: b2 <- [DW_OP_plus_uconst 8, DW_OP_LLVM_fragment 128 32] [$rsp+0]
	#DEBUG_VALUE: b2 <- [DW_OP_plus_uconst 12, DW_OP_LLVM_fragment 160 32] [$rsp+0]
	#DEBUG_VALUE: filter_pqm_monotonicity:fd_r <- [DW_OP_plus_uconst 664] [$rsp+0]
	#DEBUG_VALUE: fd_r <- [DW_OP_plus_uconst 664] [$rsp+0]
	#DEBUG_VALUE: filter_pqm_monotonicity:fd_l <- [DW_OP_plus_uconst 648] [$rsp+0]
	#DEBUG_VALUE: fd_l <- [DW_OP_plus_uconst 648] [$rsp+0]
	#DEBUG_VALUE: filter_pqm_monotonicity:fv_l <- [DW_OP_plus_uconst 640] [$rsp+0]
	#DEBUG_VALUE: fv_l <- [DW_OP_plus_uconst 640] [$rsp+0]
	#DEBUG_VALUE: filter_pqm_monotonicity:fv_r <- [DW_OP_plus_uconst 656] [$rsp+0]
	#DEBUG_VALUE: fv_r <- [DW_OP_plus_uconst 656] [$rsp+0]
	#DEBUG_VALUE: sqrt_val <- [DW_OP_plus_uconst 752, DW_OP_LLVM_fragment 160 32] [$rsp+0]
	#DEBUG_VALUE: b1 <- [DW_OP_plus_uconst 672, DW_OP_LLVM_fragment 32 32] [$rsp+0]
	#DEBUG_VALUE: b1 <- [DW_OP_plus_uconst 384, DW_OP_LLVM_fragment 64 32] [$rsp+0]
	#DEBUG_VALUE: b1 <- [DW_OP_plus_uconst 80, DW_OP_LLVM_fragment 96 32] [$rsp+0]
	#DEBUG_VALUE: b1 <- [DW_OP_plus_uconst 208, DW_OP_LLVM_fragment 128 32] [$rsp+0]
	#DEBUG_VALUE: sqrt_val <- [DW_OP_plus_uconst 368, DW_OP_LLVM_fragment 128 32] [$rsp+0]
	#DEBUG_VALUE: sqrt_val <- [DW_OP_plus_uconst 96, DW_OP_LLVM_fragment 96 32] [$rsp+0]
	#DEBUG_VALUE: sqrt_val <- [DW_OP_plus_uconst 416, DW_OP_LLVM_fragment 64 32] [$rsp+0]
	#DEBUG_VALUE: sqrt_val <- [DW_OP_plus_uconst 704, DW_OP_LLVM_fragment 32 32] [$rsp+0]
	#DEBUG_VALUE: sqrt_val <- [DW_OP_plus_uconst 112, DW_OP_LLVM_fragment 0 32] [$rsp+0]
	#DEBUG_VALUE: b0 <- [DW_OP_plus_uconst 72, DW_OP_LLVM_fragment 0 32] [$rsp+0]
	#DEBUG_VALUE: values <- $rdi
	#DEBUG_VALUE: root_outside <- [DW_OP_LLVM_fragment 0 32] 1.000000e+02
	#DEBUG_VALUE: root_outside <- [DW_OP_LLVM_fragment 32 32] 1.000000e+02
	#DEBUG_VALUE: root_outside <- [DW_OP_LLVM_fragment 64 32] 1.000000e+02
	#DEBUG_VALUE: root_outside <- [DW_OP_LLVM_fragment 96 32] 1.000000e+02
	#DEBUG_VALUE: root_outside <- [DW_OP_LLVM_fragment 128 32] 1.000000e+02
	#DEBUG_VALUE: root_outside <- [DW_OP_LLVM_fragment 160 32] 1.000000e+02
	#DEBUG_VALUE: root_outside <- [DW_OP_LLVM_fragment 192 32] 1.000000e+02
	#DEBUG_VALUE: root_outside <- [DW_OP_LLVM_fragment 224 32] 1.000000e+02
	#DEBUG_VALUE: filter_pqm_monotonicity:values <- $rdi
	vmovss	%xmm0, 704(%rsp)        # 4-byte Spill
	vmovss	12(%rsp), %xmm0         # 4-byte Reload
                                        # xmm0 = mem[0],zero,zero,zero
	vdivss	%xmm5, %xmm0, %xmm5
.Ltmp288:
	#DEBUG_VALUE: c3 <- [DW_OP_LLVM_fragment 160 32] $xmm5
	vmulps	%xmm1, %xmm2, %xmm13
	vmulps	%xmm4, %xmm10, %xmm2
	vmulss	192(%rsp), %xmm12, %xmm4 # 16-byte Folded Reload
.Ltmp289:
	#DEBUG_VALUE: c2 <- [DW_OP_LLVM_fragment 160 32] $xmm4
	vmovss	80(%rsp), %xmm0         # 4-byte Reload
                                        # xmm0 = mem[0],zero,zero,zero
	vdivss	184(%rsp), %xmm0, %xmm7 # 4-byte Folded Reload
.Ltmp290:
	#DEBUG_VALUE: root2 <- [DW_OP_LLVM_fragment 0 32] $xmm7
	vmovss	(%rsp), %xmm0           # 4-byte Reload
                                        # xmm0 = mem[0],zero,zero,zero
	vdivss	180(%rsp), %xmm0, %xmm1 # 4-byte Folded Reload
.Ltmp291:
	#DEBUG_VALUE: root2 <- [DW_OP_LLVM_fragment 32 32] $xmm1
	vmovss	112(%rsp), %xmm0        # 4-byte Reload
                                        # xmm0 = mem[0],zero,zero,zero
	vdivss	176(%rsp), %xmm0, %xmm10 # 4-byte Folded Reload
.Ltmp292:
	#DEBUG_VALUE: root2 <- [DW_OP_LLVM_fragment 64 32] $xmm10
	vmovss	416(%rsp), %xmm0        # 4-byte Reload
                                        # xmm0 = mem[0],zero,zero,zero
	vdivss	172(%rsp), %xmm0, %xmm8 # 4-byte Folded Reload
.Ltmp293:
	#DEBUG_VALUE: root2 <- [DW_OP_LLVM_fragment 96 32] $xmm8
	vdivss	168(%rsp), %xmm3, %xmm3 # 4-byte Folded Reload
.Ltmp294:
	#DEBUG_VALUE: root2 <- [DW_OP_LLVM_fragment 128 32] $xmm3
	vdivss	164(%rsp), %xmm9, %xmm12 # 4-byte Folded Reload
.Ltmp295:
	#DEBUG_VALUE: root2 <- [DW_OP_LLVM_fragment 160 32] $xmm12
	vdivps	832(%rsp), %xmm14, %xmm9 # 16-byte Folded Reload
.Ltmp296:
	#DEBUG_VALUE: root1_slope <- [DW_OP_plus_uconst 704, DW_OP_LLVM_fragment 128 32] [$rsp+0]
	vmovshdup	%xmm6, %xmm0    # xmm0 = xmm6[1,1,3,3]
	vmovaps	%xmm0, 112(%rsp)        # 16-byte Spill
	testb	%r11b, %r11b
	vmovaps	%xmm6, %xmm14
	jne	.LBB5_13
.Ltmp297:
# %bb.12:                               # %L..inline.70094
	#DEBUG_VALUE: root1_slope <- [DW_OP_plus_uconst 704, DW_OP_LLVM_fragment 128 32] [$rsp+0]
	#DEBUG_VALUE: root2 <- [DW_OP_LLVM_fragment 160 32] $xmm12
	#DEBUG_VALUE: root2 <- [DW_OP_LLVM_fragment 128 32] $xmm3
	#DEBUG_VALUE: root2 <- [DW_OP_LLVM_fragment 96 32] $xmm8
	#DEBUG_VALUE: root2 <- [DW_OP_LLVM_fragment 64 32] $xmm10
	#DEBUG_VALUE: root2 <- [DW_OP_LLVM_fragment 32 32] $xmm1
	#DEBUG_VALUE: root2 <- [DW_OP_LLVM_fragment 0 32] $xmm7
	#DEBUG_VALUE: c2 <- [DW_OP_LLVM_fragment 160 32] $xmm4
	#DEBUG_VALUE: c3 <- [DW_OP_LLVM_fragment 160 32] $xmm5
	#DEBUG_VALUE: root1_slope <- [DW_OP_plus_uconst 384, DW_OP_LLVM_fragment 96 32] [$rsp+0]
	#DEBUG_VALUE: c2 <- [DW_OP_plus_uconst 208, DW_OP_LLVM_fragment 128 32] [$rsp+0]
	#DEBUG_VALUE: c3 <- [DW_OP_plus_uconst 8, DW_OP_LLVM_fragment 128 32] [$rsp+0]
	#DEBUG_VALUE: c2 <- [DW_OP_plus_uconst 16, DW_OP_LLVM_fragment 96 32] [$rsp+0]
	#DEBUG_VALUE: root1_slope <- [DW_OP_plus_uconst 188, DW_OP_LLVM_fragment 64 32] [$rsp+0]
	#DEBUG_VALUE: c3 <- [DW_OP_plus_uconst 352, DW_OP_LLVM_fragment 96 32] [$rsp+0]
	#DEBUG_VALUE: c2 <- [DW_OP_plus_uconst 160, DW_OP_LLVM_fragment 64 32] [$rsp+0]
	#DEBUG_VALUE: c3 <- [DW_OP_plus_uconst 156, DW_OP_LLVM_fragment 64 32] [$rsp+0]
	#DEBUG_VALUE: root1_slope <- [DW_OP_plus_uconst 592, DW_OP_LLVM_fragment 32 32] [$rsp+0]
	#DEBUG_VALUE: c2 <- [DW_OP_plus_uconst 152, DW_OP_LLVM_fragment 32 32] [$rsp+0]
	#DEBUG_VALUE: c3 <- [DW_OP_plus_uconst 148, DW_OP_LLVM_fragment 32 32] [$rsp+0]
	#DEBUG_VALUE: c2 <- [DW_OP_plus_uconst 28, DW_OP_LLVM_fragment 0 32] [$rsp+0]
	#DEBUG_VALUE: c0 <- [DW_OP_plus_uconst 76, DW_OP_LLVM_fragment 0 32] [$rsp+0]
	#DEBUG_VALUE: c0 <- [DW_OP_plus_uconst 48, DW_OP_LLVM_fragment 32 32] [$rsp+0]
	#DEBUG_VALUE: c0 <- [DW_OP_plus_uconst 52, DW_OP_LLVM_fragment 64 32] [$rsp+0]
	#DEBUG_VALUE: c0 <- [DW_OP_plus_uconst 60, DW_OP_LLVM_fragment 96 32] [$rsp+0]
	#DEBUG_VALUE: c0 <- [DW_OP_plus_uconst 68, DW_OP_LLVM_fragment 128 32] [$rsp+0]
	#DEBUG_VALUE: c0 <- [DW_OP_plus_uconst 64, DW_OP_LLVM_fragment 160 32] [$rsp+0]
	#DEBUG_VALUE: c1 <- [DW_OP_plus_uconst 72, DW_OP_LLVM_fragment 0 32] [$rsp+0]
	#DEBUG_VALUE: c1 <- [DW_OP_plus_uconst 32, DW_OP_LLVM_fragment 32 32] [$rsp+0]
	#DEBUG_VALUE: c1 <- [DW_OP_plus_uconst 36, DW_OP_LLVM_fragment 64 32] [$rsp+0]
	#DEBUG_VALUE: c1 <- [DW_OP_plus_uconst 40, DW_OP_LLVM_fragment 96 32] [$rsp+0]
	#DEBUG_VALUE: c1 <- [DW_OP_plus_uconst 56, DW_OP_LLVM_fragment 128 32] [$rsp+0]
	#DEBUG_VALUE: c1 <- [DW_OP_plus_uconst 44, DW_OP_LLVM_fragment 160 32] [$rsp+0]
	#DEBUG_VALUE: c3 <- [DW_OP_plus_uconst 24, DW_OP_LLVM_fragment 0 32] [$rsp+0]
	#DEBUG_VALUE: root1 <- [DW_OP_plus_uconst 144, DW_OP_LLVM_fragment 160 32] [$rsp+0]
	#DEBUG_VALUE: root1 <- [DW_OP_plus_uconst 140, DW_OP_LLVM_fragment 128 32] [$rsp+0]
	#DEBUG_VALUE: root1 <- [DW_OP_plus_uconst 16, DW_OP_LLVM_fragment 96 32] [$rsp+0]
	#DEBUG_VALUE: b1 <- [DW_OP_plus_uconst 192, DW_OP_LLVM_fragment 160 32] [$rsp+0]
	#DEBUG_VALUE: b2 <- [DW_OP_plus_uconst 4, DW_OP_LLVM_fragment 32 32] [$rsp+0]
	#DEBUG_VALUE: b2 <- [DW_OP_plus_uconst 480, DW_OP_LLVM_fragment 64 32] [$rsp+0]
	#DEBUG_VALUE: b2 <- [DW_OP_LLVM_fragment 96 32] [$rsp+0]
	#DEBUG_VALUE: b2 <- [DW_OP_plus_uconst 8, DW_OP_LLVM_fragment 128 32] [$rsp+0]
	#DEBUG_VALUE: b2 <- [DW_OP_plus_uconst 12, DW_OP_LLVM_fragment 160 32] [$rsp+0]
	#DEBUG_VALUE: filter_pqm_monotonicity:fd_r <- [DW_OP_plus_uconst 664] [$rsp+0]
	#DEBUG_VALUE: fd_r <- [DW_OP_plus_uconst 664] [$rsp+0]
	#DEBUG_VALUE: filter_pqm_monotonicity:fd_l <- [DW_OP_plus_uconst 648] [$rsp+0]
	#DEBUG_VALUE: fd_l <- [DW_OP_plus_uconst 648] [$rsp+0]
	#DEBUG_VALUE: filter_pqm_monotonicity:fv_l <- [DW_OP_plus_uconst 640] [$rsp+0]
	#DEBUG_VALUE: fv_l <- [DW_OP_plus_uconst 640] [$rsp+0]
	#DEBUG_VALUE: filter_pqm_monotonicity:fv_r <- [DW_OP_plus_uconst 656] [$rsp+0]
	#DEBUG_VALUE: fv_r <- [DW_OP_plus_uconst 656] [$rsp+0]
	#DEBUG_VALUE: sqrt_val <- [DW_OP_plus_uconst 752, DW_OP_LLVM_fragment 160 32] [$rsp+0]
	#DEBUG_VALUE: b1 <- [DW_OP_plus_uconst 672, DW_OP_LLVM_fragment 32 32] [$rsp+0]
	#DEBUG_VALUE: b1 <- [DW_OP_plus_uconst 384, DW_OP_LLVM_fragment 64 32] [$rsp+0]
	#DEBUG_VALUE: b1 <- [DW_OP_plus_uconst 80, DW_OP_LLVM_fragment 96 32] [$rsp+0]
	#DEBUG_VALUE: b1 <- [DW_OP_plus_uconst 208, DW_OP_LLVM_fragment 128 32] [$rsp+0]
	#DEBUG_VALUE: sqrt_val <- [DW_OP_plus_uconst 368, DW_OP_LLVM_fragment 128 32] [$rsp+0]
	#DEBUG_VALUE: sqrt_val <- [DW_OP_plus_uconst 96, DW_OP_LLVM_fragment 96 32] [$rsp+0]
	#DEBUG_VALUE: sqrt_val <- [DW_OP_plus_uconst 416, DW_OP_LLVM_fragment 64 32] [$rsp+0]
	#DEBUG_VALUE: sqrt_val <- [DW_OP_plus_uconst 704, DW_OP_LLVM_fragment 32 32] [$rsp+0]
	#DEBUG_VALUE: sqrt_val <- [DW_OP_plus_uconst 112, DW_OP_LLVM_fragment 0 32] [$rsp+0]
	#DEBUG_VALUE: b0 <- [DW_OP_plus_uconst 72, DW_OP_LLVM_fragment 0 32] [$rsp+0]
	#DEBUG_VALUE: values <- $rdi
	#DEBUG_VALUE: root_outside <- [DW_OP_LLVM_fragment 0 32] 1.000000e+02
	#DEBUG_VALUE: root_outside <- [DW_OP_LLVM_fragment 32 32] 1.000000e+02
	#DEBUG_VALUE: root_outside <- [DW_OP_LLVM_fragment 64 32] 1.000000e+02
	#DEBUG_VALUE: root_outside <- [DW_OP_LLVM_fragment 96 32] 1.000000e+02
	#DEBUG_VALUE: root_outside <- [DW_OP_LLVM_fragment 128 32] 1.000000e+02
	#DEBUG_VALUE: root_outside <- [DW_OP_LLVM_fragment 160 32] 1.000000e+02
	#DEBUG_VALUE: root_outside <- [DW_OP_LLVM_fragment 192 32] 1.000000e+02
	#DEBUG_VALUE: root_outside <- [DW_OP_LLVM_fragment 224 32] 1.000000e+02
	#DEBUG_VALUE: filter_pqm_monotonicity:values <- $rdi
	vmovss	144(%rsp), %xmm6        # 4-byte Reload
                                        # xmm6 = mem[0],zero,zero,zero
	vmulss	%xmm6, %xmm5, %xmm0
	vaddss	%xmm0, %xmm4, %xmm0
	vmulss	%xmm0, %xmm6, %xmm0
	vaddss	44(%rsp), %xmm0, %xmm0  # 4-byte Folded Reload
	vmulss	%xmm0, %xmm6, %xmm0
	vaddss	64(%rsp), %xmm0, %xmm0  # 4-byte Folded Reload
.Ltmp298:
.LBB5_13:                               # %L..inline.70094
	#DEBUG_VALUE: root1_slope <- [DW_OP_plus_uconst 704, DW_OP_LLVM_fragment 128 32] [$rsp+0]
	#DEBUG_VALUE: root2 <- [DW_OP_LLVM_fragment 160 32] $xmm12
	#DEBUG_VALUE: root2 <- [DW_OP_LLVM_fragment 128 32] $xmm3
	#DEBUG_VALUE: root2 <- [DW_OP_LLVM_fragment 96 32] $xmm8
	#DEBUG_VALUE: root2 <- [DW_OP_LLVM_fragment 64 32] $xmm10
	#DEBUG_VALUE: root2 <- [DW_OP_LLVM_fragment 32 32] $xmm1
	#DEBUG_VALUE: root2 <- [DW_OP_LLVM_fragment 0 32] $xmm7
	#DEBUG_VALUE: c2 <- [DW_OP_LLVM_fragment 160 32] $xmm4
	#DEBUG_VALUE: c3 <- [DW_OP_LLVM_fragment 160 32] $xmm5
	#DEBUG_VALUE: root1_slope <- [DW_OP_plus_uconst 384, DW_OP_LLVM_fragment 96 32] [$rsp+0]
	#DEBUG_VALUE: c2 <- [DW_OP_plus_uconst 208, DW_OP_LLVM_fragment 128 32] [$rsp+0]
	#DEBUG_VALUE: c3 <- [DW_OP_plus_uconst 8, DW_OP_LLVM_fragment 128 32] [$rsp+0]
	#DEBUG_VALUE: c2 <- [DW_OP_plus_uconst 16, DW_OP_LLVM_fragment 96 32] [$rsp+0]
	#DEBUG_VALUE: root1_slope <- [DW_OP_plus_uconst 188, DW_OP_LLVM_fragment 64 32] [$rsp+0]
	#DEBUG_VALUE: c3 <- [DW_OP_plus_uconst 352, DW_OP_LLVM_fragment 96 32] [$rsp+0]
	#DEBUG_VALUE: c2 <- [DW_OP_plus_uconst 160, DW_OP_LLVM_fragment 64 32] [$rsp+0]
	#DEBUG_VALUE: c3 <- [DW_OP_plus_uconst 156, DW_OP_LLVM_fragment 64 32] [$rsp+0]
	#DEBUG_VALUE: root1_slope <- [DW_OP_plus_uconst 592, DW_OP_LLVM_fragment 32 32] [$rsp+0]
	#DEBUG_VALUE: c2 <- [DW_OP_plus_uconst 152, DW_OP_LLVM_fragment 32 32] [$rsp+0]
	#DEBUG_VALUE: c3 <- [DW_OP_plus_uconst 148, DW_OP_LLVM_fragment 32 32] [$rsp+0]
	#DEBUG_VALUE: c2 <- [DW_OP_plus_uconst 28, DW_OP_LLVM_fragment 0 32] [$rsp+0]
	#DEBUG_VALUE: c0 <- [DW_OP_plus_uconst 76, DW_OP_LLVM_fragment 0 32] [$rsp+0]
	#DEBUG_VALUE: c0 <- [DW_OP_plus_uconst 48, DW_OP_LLVM_fragment 32 32] [$rsp+0]
	#DEBUG_VALUE: c0 <- [DW_OP_plus_uconst 52, DW_OP_LLVM_fragment 64 32] [$rsp+0]
	#DEBUG_VALUE: c0 <- [DW_OP_plus_uconst 60, DW_OP_LLVM_fragment 96 32] [$rsp+0]
	#DEBUG_VALUE: c0 <- [DW_OP_plus_uconst 68, DW_OP_LLVM_fragment 128 32] [$rsp+0]
	#DEBUG_VALUE: c0 <- [DW_OP_plus_uconst 64, DW_OP_LLVM_fragment 160 32] [$rsp+0]
	#DEBUG_VALUE: c1 <- [DW_OP_plus_uconst 72, DW_OP_LLVM_fragment 0 32] [$rsp+0]
	#DEBUG_VALUE: c1 <- [DW_OP_plus_uconst 32, DW_OP_LLVM_fragment 32 32] [$rsp+0]
	#DEBUG_VALUE: c1 <- [DW_OP_plus_uconst 36, DW_OP_LLVM_fragment 64 32] [$rsp+0]
	#DEBUG_VALUE: c1 <- [DW_OP_plus_uconst 40, DW_OP_LLVM_fragment 96 32] [$rsp+0]
	#DEBUG_VALUE: c1 <- [DW_OP_plus_uconst 56, DW_OP_LLVM_fragment 128 32] [$rsp+0]
	#DEBUG_VALUE: c1 <- [DW_OP_plus_uconst 44, DW_OP_LLVM_fragment 160 32] [$rsp+0]
	#DEBUG_VALUE: c3 <- [DW_OP_plus_uconst 24, DW_OP_LLVM_fragment 0 32] [$rsp+0]
	#DEBUG_VALUE: root1 <- [DW_OP_plus_uconst 144, DW_OP_LLVM_fragment 160 32] [$rsp+0]
	#DEBUG_VALUE: root1 <- [DW_OP_plus_uconst 140, DW_OP_LLVM_fragment 128 32] [$rsp+0]
	#DEBUG_VALUE: root1 <- [DW_OP_plus_uconst 16, DW_OP_LLVM_fragment 96 32] [$rsp+0]
	#DEBUG_VALUE: b1 <- [DW_OP_plus_uconst 192, DW_OP_LLVM_fragment 160 32] [$rsp+0]
	#DEBUG_VALUE: b2 <- [DW_OP_plus_uconst 4, DW_OP_LLVM_fragment 32 32] [$rsp+0]
	#DEBUG_VALUE: b2 <- [DW_OP_plus_uconst 480, DW_OP_LLVM_fragment 64 32] [$rsp+0]
	#DEBUG_VALUE: b2 <- [DW_OP_LLVM_fragment 96 32] [$rsp+0]
	#DEBUG_VALUE: b2 <- [DW_OP_plus_uconst 8, DW_OP_LLVM_fragment 128 32] [$rsp+0]
	#DEBUG_VALUE: b2 <- [DW_OP_plus_uconst 12, DW_OP_LLVM_fragment 160 32] [$rsp+0]
	#DEBUG_VALUE: filter_pqm_monotonicity:fd_r <- [DW_OP_plus_uconst 664] [$rsp+0]
	#DEBUG_VALUE: fd_r <- [DW_OP_plus_uconst 664] [$rsp+0]
	#DEBUG_VALUE: filter_pqm_monotonicity:fd_l <- [DW_OP_plus_uconst 648] [$rsp+0]
	#DEBUG_VALUE: fd_l <- [DW_OP_plus_uconst 648] [$rsp+0]
	#DEBUG_VALUE: filter_pqm_monotonicity:fv_l <- [DW_OP_plus_uconst 640] [$rsp+0]
	#DEBUG_VALUE: fv_l <- [DW_OP_plus_uconst 640] [$rsp+0]
	#DEBUG_VALUE: filter_pqm_monotonicity:fv_r <- [DW_OP_plus_uconst 656] [$rsp+0]
	#DEBUG_VALUE: fv_r <- [DW_OP_plus_uconst 656] [$rsp+0]
	#DEBUG_VALUE: sqrt_val <- [DW_OP_plus_uconst 752, DW_OP_LLVM_fragment 160 32] [$rsp+0]
	#DEBUG_VALUE: b1 <- [DW_OP_plus_uconst 672, DW_OP_LLVM_fragment 32 32] [$rsp+0]
	#DEBUG_VALUE: b1 <- [DW_OP_plus_uconst 384, DW_OP_LLVM_fragment 64 32] [$rsp+0]
	#DEBUG_VALUE: b1 <- [DW_OP_plus_uconst 80, DW_OP_LLVM_fragment 96 32] [$rsp+0]
	#DEBUG_VALUE: b1 <- [DW_OP_plus_uconst 208, DW_OP_LLVM_fragment 128 32] [$rsp+0]
	#DEBUG_VALUE: sqrt_val <- [DW_OP_plus_uconst 368, DW_OP_LLVM_fragment 128 32] [$rsp+0]
	#DEBUG_VALUE: sqrt_val <- [DW_OP_plus_uconst 96, DW_OP_LLVM_fragment 96 32] [$rsp+0]
	#DEBUG_VALUE: sqrt_val <- [DW_OP_plus_uconst 416, DW_OP_LLVM_fragment 64 32] [$rsp+0]
	#DEBUG_VALUE: sqrt_val <- [DW_OP_plus_uconst 704, DW_OP_LLVM_fragment 32 32] [$rsp+0]
	#DEBUG_VALUE: sqrt_val <- [DW_OP_plus_uconst 112, DW_OP_LLVM_fragment 0 32] [$rsp+0]
	#DEBUG_VALUE: b0 <- [DW_OP_plus_uconst 72, DW_OP_LLVM_fragment 0 32] [$rsp+0]
	#DEBUG_VALUE: values <- $rdi
	#DEBUG_VALUE: root_outside <- [DW_OP_LLVM_fragment 0 32] 1.000000e+02
	#DEBUG_VALUE: root_outside <- [DW_OP_LLVM_fragment 32 32] 1.000000e+02
	#DEBUG_VALUE: root_outside <- [DW_OP_LLVM_fragment 64 32] 1.000000e+02
	#DEBUG_VALUE: root_outside <- [DW_OP_LLVM_fragment 96 32] 1.000000e+02
	#DEBUG_VALUE: root_outside <- [DW_OP_LLVM_fragment 128 32] 1.000000e+02
	#DEBUG_VALUE: root_outside <- [DW_OP_LLVM_fragment 160 32] 1.000000e+02
	#DEBUG_VALUE: root_outside <- [DW_OP_LLVM_fragment 192 32] 1.000000e+02
	#DEBUG_VALUE: root_outside <- [DW_OP_LLVM_fragment 224 32] 1.000000e+02
	#DEBUG_VALUE: filter_pqm_monotonicity:values <- $rdi
	vmovss	%xmm4, 192(%rsp)        # 4-byte Spill
.Ltmp299:
	#DEBUG_VALUE: c2 <- [DW_OP_plus_uconst 192, DW_OP_LLVM_fragment 160 32] [$rsp+0]
	vmovss	%xmm5, (%rsp)           # 4-byte Spill
.Ltmp300:
	#DEBUG_VALUE: c3 <- [DW_OP_LLVM_fragment 160 32] [$rsp+0]
	vmovss	%xmm0, 416(%rsp)        # 4-byte Spill
	vaddps	%xmm13, %xmm2, %xmm0
	vxorps	%xmm4, %xmm4, %xmm4
	vcmpnleps	%xmm11, %xmm4, %xmm5
	vcmpnleps	%xmm15, %xmm11, %xmm4
.Ltmp301:
	#DEBUG_VALUE: root1_slope <- [DW_OP_plus_uconst 416, DW_OP_LLVM_fragment 160 32] [$rsp+0]
	vmovaps	%xmm4, 80(%rsp)         # 16-byte Spill
	vxorps	%xmm4, %xmm4, %xmm4
.Ltmp302:
	#DEBUG_VALUE: root1_slope <- [DW_OP_plus_uconst 20, DW_OP_LLVM_fragment 0 32] [$rsp+0]
	.loc	4 1162 1 is_stmt 1      # vlasovsolver/cpu_1d_pqm.hpp:1162:1
	vucomiss	%xmm4, %xmm1
	setb	%dl
	vucomiss	%xmm4, %xmm10
	setb	%al
	vucomiss	%xmm4, %xmm8
	setb	%bl
	vucomiss	%xmm4, %xmm3
	setb	%r15b
	vucomiss	%xmm4, %xmm12
	setb	%sil
	.loc	4 1266 1                # vlasovsolver/cpu_1d_pqm.hpp:1266:1
	vucomiss	%xmm1, %xmm15
	setb	%cl
	vucomiss	%xmm10, %xmm15
	setb	%r9b
	vmovss	%xmm8, 12(%rsp)         # 4-byte Spill
.Ltmp303:
	#DEBUG_VALUE: root2 <- [DW_OP_plus_uconst 12, DW_OP_LLVM_fragment 96 32] [$rsp+0]
	vucomiss	%xmm8, %xmm15
	setb	%r12b
	vucomiss	%xmm3, %xmm15
	setb	%r14b
	vucomiss	%xmm12, %xmm15
	setb	%r11b
	.loc	4 1003 1                # vlasovsolver/cpu_1d_pqm.hpp:1003:1
	orb	%dl, %cl
	.loc	4 1162 1                # vlasovsolver/cpu_1d_pqm.hpp:1162:1
	vucomiss	%xmm4, %xmm7
	.loc	4 867 1                 # vlasovsolver/cpu_1d_pqm.hpp:867:1
	vmulps	96(%rsp), %xmm9, %xmm4  # 16-byte Folded Reload
	.loc	4 759 1                 # vlasovsolver/cpu_1d_pqm.hpp:759:1
	vblendps	$2, %xmm13, %xmm2, %xmm2 # xmm2 = xmm2[0],xmm13[1],xmm2[2,3]
	vmovaps	%xmm14, %xmm13
	vmovss	%xmm3, 368(%rsp)        # 4-byte Spill
.Ltmp304:
	#DEBUG_VALUE: root2 <- [DW_OP_plus_uconst 368, DW_OP_LLVM_fragment 128 32] [$rsp+0]
	.loc	4 81 1                  # vlasovsolver/cpu_1d_pqm.hpp:81:1
	jb	.LBB5_16
.Ltmp305:
# %bb.14:                               # %L..inline.70094
	#DEBUG_VALUE: root2 <- [DW_OP_plus_uconst 368, DW_OP_LLVM_fragment 128 32] [$rsp+0]
	#DEBUG_VALUE: root2 <- [DW_OP_plus_uconst 12, DW_OP_LLVM_fragment 96 32] [$rsp+0]
	#DEBUG_VALUE: root1_slope <- [DW_OP_plus_uconst 20, DW_OP_LLVM_fragment 0 32] [$rsp+0]
	#DEBUG_VALUE: root1_slope <- [DW_OP_plus_uconst 416, DW_OP_LLVM_fragment 160 32] [$rsp+0]
	#DEBUG_VALUE: c3 <- [DW_OP_LLVM_fragment 160 32] [$rsp+0]
	#DEBUG_VALUE: c2 <- [DW_OP_plus_uconst 192, DW_OP_LLVM_fragment 160 32] [$rsp+0]
	#DEBUG_VALUE: root1_slope <- [DW_OP_plus_uconst 704, DW_OP_LLVM_fragment 128 32] [$rsp+0]
	#DEBUG_VALUE: root2 <- [DW_OP_LLVM_fragment 160 32] $xmm12
	#DEBUG_VALUE: root2 <- [DW_OP_LLVM_fragment 64 32] $xmm10
	#DEBUG_VALUE: root2 <- [DW_OP_LLVM_fragment 32 32] $xmm1
	#DEBUG_VALUE: root2 <- [DW_OP_LLVM_fragment 0 32] $xmm7
	#DEBUG_VALUE: root1_slope <- [DW_OP_plus_uconst 384, DW_OP_LLVM_fragment 96 32] [$rsp+0]
	#DEBUG_VALUE: c2 <- [DW_OP_plus_uconst 208, DW_OP_LLVM_fragment 128 32] [$rsp+0]
	#DEBUG_VALUE: c3 <- [DW_OP_plus_uconst 8, DW_OP_LLVM_fragment 128 32] [$rsp+0]
	#DEBUG_VALUE: c2 <- [DW_OP_plus_uconst 16, DW_OP_LLVM_fragment 96 32] [$rsp+0]
	#DEBUG_VALUE: root1_slope <- [DW_OP_plus_uconst 188, DW_OP_LLVM_fragment 64 32] [$rsp+0]
	#DEBUG_VALUE: c3 <- [DW_OP_plus_uconst 352, DW_OP_LLVM_fragment 96 32] [$rsp+0]
	#DEBUG_VALUE: c2 <- [DW_OP_plus_uconst 160, DW_OP_LLVM_fragment 64 32] [$rsp+0]
	#DEBUG_VALUE: c3 <- [DW_OP_plus_uconst 156, DW_OP_LLVM_fragment 64 32] [$rsp+0]
	#DEBUG_VALUE: root1_slope <- [DW_OP_plus_uconst 592, DW_OP_LLVM_fragment 32 32] [$rsp+0]
	#DEBUG_VALUE: c2 <- [DW_OP_plus_uconst 152, DW_OP_LLVM_fragment 32 32] [$rsp+0]
	#DEBUG_VALUE: c3 <- [DW_OP_plus_uconst 148, DW_OP_LLVM_fragment 32 32] [$rsp+0]
	#DEBUG_VALUE: c2 <- [DW_OP_plus_uconst 28, DW_OP_LLVM_fragment 0 32] [$rsp+0]
	#DEBUG_VALUE: c0 <- [DW_OP_plus_uconst 76, DW_OP_LLVM_fragment 0 32] [$rsp+0]
	#DEBUG_VALUE: c0 <- [DW_OP_plus_uconst 48, DW_OP_LLVM_fragment 32 32] [$rsp+0]
	#DEBUG_VALUE: c0 <- [DW_OP_plus_uconst 52, DW_OP_LLVM_fragment 64 32] [$rsp+0]
	#DEBUG_VALUE: c0 <- [DW_OP_plus_uconst 60, DW_OP_LLVM_fragment 96 32] [$rsp+0]
	#DEBUG_VALUE: c0 <- [DW_OP_plus_uconst 68, DW_OP_LLVM_fragment 128 32] [$rsp+0]
	#DEBUG_VALUE: c0 <- [DW_OP_plus_uconst 64, DW_OP_LLVM_fragment 160 32] [$rsp+0]
	#DEBUG_VALUE: c1 <- [DW_OP_plus_uconst 72, DW_OP_LLVM_fragment 0 32] [$rsp+0]
	#DEBUG_VALUE: c1 <- [DW_OP_plus_uconst 32, DW_OP_LLVM_fragment 32 32] [$rsp+0]
	#DEBUG_VALUE: c1 <- [DW_OP_plus_uconst 36, DW_OP_LLVM_fragment 64 32] [$rsp+0]
	#DEBUG_VALUE: c1 <- [DW_OP_plus_uconst 40, DW_OP_LLVM_fragment 96 32] [$rsp+0]
	#DEBUG_VALUE: c1 <- [DW_OP_plus_uconst 56, DW_OP_LLVM_fragment 128 32] [$rsp+0]
	#DEBUG_VALUE: c1 <- [DW_OP_plus_uconst 44, DW_OP_LLVM_fragment 160 32] [$rsp+0]
	#DEBUG_VALUE: c3 <- [DW_OP_plus_uconst 24, DW_OP_LLVM_fragment 0 32] [$rsp+0]
	#DEBUG_VALUE: root1 <- [DW_OP_plus_uconst 144, DW_OP_LLVM_fragment 160 32] [$rsp+0]
	#DEBUG_VALUE: root1 <- [DW_OP_plus_uconst 140, DW_OP_LLVM_fragment 128 32] [$rsp+0]
	#DEBUG_VALUE: root1 <- [DW_OP_plus_uconst 16, DW_OP_LLVM_fragment 96 32] [$rsp+0]
	#DEBUG_VALUE: b1 <- [DW_OP_plus_uconst 192, DW_OP_LLVM_fragment 160 32] [$rsp+0]
	#DEBUG_VALUE: b2 <- [DW_OP_plus_uconst 4, DW_OP_LLVM_fragment 32 32] [$rsp+0]
	#DEBUG_VALUE: b2 <- [DW_OP_plus_uconst 480, DW_OP_LLVM_fragment 64 32] [$rsp+0]
	#DEBUG_VALUE: b2 <- [DW_OP_LLVM_fragment 96 32] [$rsp+0]
	#DEBUG_VALUE: b2 <- [DW_OP_plus_uconst 8, DW_OP_LLVM_fragment 128 32] [$rsp+0]
	#DEBUG_VALUE: b2 <- [DW_OP_plus_uconst 12, DW_OP_LLVM_fragment 160 32] [$rsp+0]
	#DEBUG_VALUE: filter_pqm_monotonicity:fd_r <- [DW_OP_plus_uconst 664] [$rsp+0]
	#DEBUG_VALUE: fd_r <- [DW_OP_plus_uconst 664] [$rsp+0]
	#DEBUG_VALUE: filter_pqm_monotonicity:fd_l <- [DW_OP_plus_uconst 648] [$rsp+0]
	#DEBUG_VALUE: fd_l <- [DW_OP_plus_uconst 648] [$rsp+0]
	#DEBUG_VALUE: filter_pqm_monotonicity:fv_l <- [DW_OP_plus_uconst 640] [$rsp+0]
	#DEBUG_VALUE: fv_l <- [DW_OP_plus_uconst 640] [$rsp+0]
	#DEBUG_VALUE: filter_pqm_monotonicity:fv_r <- [DW_OP_plus_uconst 656] [$rsp+0]
	#DEBUG_VALUE: fv_r <- [DW_OP_plus_uconst 656] [$rsp+0]
	#DEBUG_VALUE: sqrt_val <- [DW_OP_plus_uconst 752, DW_OP_LLVM_fragment 160 32] [$rsp+0]
	#DEBUG_VALUE: b1 <- [DW_OP_plus_uconst 672, DW_OP_LLVM_fragment 32 32] [$rsp+0]
	#DEBUG_VALUE: b1 <- [DW_OP_plus_uconst 384, DW_OP_LLVM_fragment 64 32] [$rsp+0]
	#DEBUG_VALUE: b1 <- [DW_OP_plus_uconst 80, DW_OP_LLVM_fragment 96 32] [$rsp+0]
	#DEBUG_VALUE: b1 <- [DW_OP_plus_uconst 208, DW_OP_LLVM_fragment 128 32] [$rsp+0]
	#DEBUG_VALUE: sqrt_val <- [DW_OP_plus_uconst 368, DW_OP_LLVM_fragment 128 32] [$rsp+0]
	#DEBUG_VALUE: sqrt_val <- [DW_OP_plus_uconst 96, DW_OP_LLVM_fragment 96 32] [$rsp+0]
	#DEBUG_VALUE: sqrt_val <- [DW_OP_plus_uconst 416, DW_OP_LLVM_fragment 64 32] [$rsp+0]
	#DEBUG_VALUE: sqrt_val <- [DW_OP_plus_uconst 704, DW_OP_LLVM_fragment 32 32] [$rsp+0]
	#DEBUG_VALUE: sqrt_val <- [DW_OP_plus_uconst 112, DW_OP_LLVM_fragment 0 32] [$rsp+0]
	#DEBUG_VALUE: b0 <- [DW_OP_plus_uconst 72, DW_OP_LLVM_fragment 0 32] [$rsp+0]
	#DEBUG_VALUE: values <- $rdi
	#DEBUG_VALUE: root_outside <- [DW_OP_LLVM_fragment 0 32] 1.000000e+02
	#DEBUG_VALUE: root_outside <- [DW_OP_LLVM_fragment 32 32] 1.000000e+02
	#DEBUG_VALUE: root_outside <- [DW_OP_LLVM_fragment 64 32] 1.000000e+02
	#DEBUG_VALUE: root_outside <- [DW_OP_LLVM_fragment 96 32] 1.000000e+02
	#DEBUG_VALUE: root_outside <- [DW_OP_LLVM_fragment 128 32] 1.000000e+02
	#DEBUG_VALUE: root_outside <- [DW_OP_LLVM_fragment 160 32] 1.000000e+02
	#DEBUG_VALUE: root_outside <- [DW_OP_LLVM_fragment 192 32] 1.000000e+02
	#DEBUG_VALUE: root_outside <- [DW_OP_LLVM_fragment 224 32] 1.000000e+02
	#DEBUG_VALUE: filter_pqm_monotonicity:values <- $rdi
	.loc	4 0 1 is_stmt 0         # vlasovsolver/cpu_1d_pqm.hpp:0:1
	vmovss	.LCPI5_17(%rip), %xmm6  # xmm6 = mem[0],zero,zero,zero
	.loc	4 81 1                  # vlasovsolver/cpu_1d_pqm.hpp:81:1
	vucomiss	%xmm7, %xmm6
	jb	.LBB5_16
.Ltmp306:
# %bb.15:                               # %L.B4205
	#DEBUG_VALUE: root2 <- [DW_OP_plus_uconst 368, DW_OP_LLVM_fragment 128 32] [$rsp+0]
	#DEBUG_VALUE: root2 <- [DW_OP_plus_uconst 12, DW_OP_LLVM_fragment 96 32] [$rsp+0]
	#DEBUG_VALUE: root1_slope <- [DW_OP_plus_uconst 20, DW_OP_LLVM_fragment 0 32] [$rsp+0]
	#DEBUG_VALUE: root1_slope <- [DW_OP_plus_uconst 416, DW_OP_LLVM_fragment 160 32] [$rsp+0]
	#DEBUG_VALUE: c3 <- [DW_OP_LLVM_fragment 160 32] [$rsp+0]
	#DEBUG_VALUE: c2 <- [DW_OP_plus_uconst 192, DW_OP_LLVM_fragment 160 32] [$rsp+0]
	#DEBUG_VALUE: root1_slope <- [DW_OP_plus_uconst 704, DW_OP_LLVM_fragment 128 32] [$rsp+0]
	#DEBUG_VALUE: root2 <- [DW_OP_LLVM_fragment 160 32] $xmm12
	#DEBUG_VALUE: root2 <- [DW_OP_LLVM_fragment 64 32] $xmm10
	#DEBUG_VALUE: root2 <- [DW_OP_LLVM_fragment 32 32] $xmm1
	#DEBUG_VALUE: root2 <- [DW_OP_LLVM_fragment 0 32] $xmm7
	#DEBUG_VALUE: root1_slope <- [DW_OP_plus_uconst 384, DW_OP_LLVM_fragment 96 32] [$rsp+0]
	#DEBUG_VALUE: c2 <- [DW_OP_plus_uconst 208, DW_OP_LLVM_fragment 128 32] [$rsp+0]
	#DEBUG_VALUE: c3 <- [DW_OP_plus_uconst 8, DW_OP_LLVM_fragment 128 32] [$rsp+0]
	#DEBUG_VALUE: c2 <- [DW_OP_plus_uconst 16, DW_OP_LLVM_fragment 96 32] [$rsp+0]
	#DEBUG_VALUE: root1_slope <- [DW_OP_plus_uconst 188, DW_OP_LLVM_fragment 64 32] [$rsp+0]
	#DEBUG_VALUE: c3 <- [DW_OP_plus_uconst 352, DW_OP_LLVM_fragment 96 32] [$rsp+0]
	#DEBUG_VALUE: c2 <- [DW_OP_plus_uconst 160, DW_OP_LLVM_fragment 64 32] [$rsp+0]
	#DEBUG_VALUE: c3 <- [DW_OP_plus_uconst 156, DW_OP_LLVM_fragment 64 32] [$rsp+0]
	#DEBUG_VALUE: root1_slope <- [DW_OP_plus_uconst 592, DW_OP_LLVM_fragment 32 32] [$rsp+0]
	#DEBUG_VALUE: c2 <- [DW_OP_plus_uconst 152, DW_OP_LLVM_fragment 32 32] [$rsp+0]
	#DEBUG_VALUE: c3 <- [DW_OP_plus_uconst 148, DW_OP_LLVM_fragment 32 32] [$rsp+0]
	#DEBUG_VALUE: c2 <- [DW_OP_plus_uconst 28, DW_OP_LLVM_fragment 0 32] [$rsp+0]
	#DEBUG_VALUE: c0 <- [DW_OP_plus_uconst 76, DW_OP_LLVM_fragment 0 32] [$rsp+0]
	#DEBUG_VALUE: c0 <- [DW_OP_plus_uconst 48, DW_OP_LLVM_fragment 32 32] [$rsp+0]
	#DEBUG_VALUE: c0 <- [DW_OP_plus_uconst 52, DW_OP_LLVM_fragment 64 32] [$rsp+0]
	#DEBUG_VALUE: c0 <- [DW_OP_plus_uconst 60, DW_OP_LLVM_fragment 96 32] [$rsp+0]
	#DEBUG_VALUE: c0 <- [DW_OP_plus_uconst 68, DW_OP_LLVM_fragment 128 32] [$rsp+0]
	#DEBUG_VALUE: c0 <- [DW_OP_plus_uconst 64, DW_OP_LLVM_fragment 160 32] [$rsp+0]
	#DEBUG_VALUE: c1 <- [DW_OP_plus_uconst 72, DW_OP_LLVM_fragment 0 32] [$rsp+0]
	#DEBUG_VALUE: c1 <- [DW_OP_plus_uconst 32, DW_OP_LLVM_fragment 32 32] [$rsp+0]
	#DEBUG_VALUE: c1 <- [DW_OP_plus_uconst 36, DW_OP_LLVM_fragment 64 32] [$rsp+0]
	#DEBUG_VALUE: c1 <- [DW_OP_plus_uconst 40, DW_OP_LLVM_fragment 96 32] [$rsp+0]
	#DEBUG_VALUE: c1 <- [DW_OP_plus_uconst 56, DW_OP_LLVM_fragment 128 32] [$rsp+0]
	#DEBUG_VALUE: c1 <- [DW_OP_plus_uconst 44, DW_OP_LLVM_fragment 160 32] [$rsp+0]
	#DEBUG_VALUE: c3 <- [DW_OP_plus_uconst 24, DW_OP_LLVM_fragment 0 32] [$rsp+0]
	#DEBUG_VALUE: root1 <- [DW_OP_plus_uconst 144, DW_OP_LLVM_fragment 160 32] [$rsp+0]
	#DEBUG_VALUE: root1 <- [DW_OP_plus_uconst 140, DW_OP_LLVM_fragment 128 32] [$rsp+0]
	#DEBUG_VALUE: root1 <- [DW_OP_plus_uconst 16, DW_OP_LLVM_fragment 96 32] [$rsp+0]
	#DEBUG_VALUE: b1 <- [DW_OP_plus_uconst 192, DW_OP_LLVM_fragment 160 32] [$rsp+0]
	#DEBUG_VALUE: b2 <- [DW_OP_plus_uconst 4, DW_OP_LLVM_fragment 32 32] [$rsp+0]
	#DEBUG_VALUE: b2 <- [DW_OP_plus_uconst 480, DW_OP_LLVM_fragment 64 32] [$rsp+0]
	#DEBUG_VALUE: b2 <- [DW_OP_LLVM_fragment 96 32] [$rsp+0]
	#DEBUG_VALUE: b2 <- [DW_OP_plus_uconst 8, DW_OP_LLVM_fragment 128 32] [$rsp+0]
	#DEBUG_VALUE: b2 <- [DW_OP_plus_uconst 12, DW_OP_LLVM_fragment 160 32] [$rsp+0]
	#DEBUG_VALUE: filter_pqm_monotonicity:fd_r <- [DW_OP_plus_uconst 664] [$rsp+0]
	#DEBUG_VALUE: fd_r <- [DW_OP_plus_uconst 664] [$rsp+0]
	#DEBUG_VALUE: filter_pqm_monotonicity:fd_l <- [DW_OP_plus_uconst 648] [$rsp+0]
	#DEBUG_VALUE: fd_l <- [DW_OP_plus_uconst 648] [$rsp+0]
	#DEBUG_VALUE: filter_pqm_monotonicity:fv_l <- [DW_OP_plus_uconst 640] [$rsp+0]
	#DEBUG_VALUE: fv_l <- [DW_OP_plus_uconst 640] [$rsp+0]
	#DEBUG_VALUE: filter_pqm_monotonicity:fv_r <- [DW_OP_plus_uconst 656] [$rsp+0]
	#DEBUG_VALUE: fv_r <- [DW_OP_plus_uconst 656] [$rsp+0]
	#DEBUG_VALUE: sqrt_val <- [DW_OP_plus_uconst 752, DW_OP_LLVM_fragment 160 32] [$rsp+0]
	#DEBUG_VALUE: b1 <- [DW_OP_plus_uconst 672, DW_OP_LLVM_fragment 32 32] [$rsp+0]
	#DEBUG_VALUE: b1 <- [DW_OP_plus_uconst 384, DW_OP_LLVM_fragment 64 32] [$rsp+0]
	#DEBUG_VALUE: b1 <- [DW_OP_plus_uconst 80, DW_OP_LLVM_fragment 96 32] [$rsp+0]
	#DEBUG_VALUE: b1 <- [DW_OP_plus_uconst 208, DW_OP_LLVM_fragment 128 32] [$rsp+0]
	#DEBUG_VALUE: sqrt_val <- [DW_OP_plus_uconst 368, DW_OP_LLVM_fragment 128 32] [$rsp+0]
	#DEBUG_VALUE: sqrt_val <- [DW_OP_plus_uconst 96, DW_OP_LLVM_fragment 96 32] [$rsp+0]
	#DEBUG_VALUE: sqrt_val <- [DW_OP_plus_uconst 416, DW_OP_LLVM_fragment 64 32] [$rsp+0]
	#DEBUG_VALUE: sqrt_val <- [DW_OP_plus_uconst 704, DW_OP_LLVM_fragment 32 32] [$rsp+0]
