; ModuleID = 'vlasovsolver/cpu_acc_load_blocks.cpp'
target datalayout = "e-p:64:64-i64:64-f80:128-n8:16:32:64-S128"
target triple = "x86_64-pc-linux-gnu"
define internal void @pgCplus_compiled.() noinline {
L.entry:
	ret void
}

%struct._ZSt6vectorId17aligned_allocatorIdLm6EEE = type <{ %struct._ZSt12_Vector_baseId17aligned_allocatorIdLm6EEE}> 
%struct._ZSt12_Vector_baseId17aligned_allocatorIdLm6EEE = type <{ %struct._ZNSt12_Vector_baseId17aligned_allocatorIdLm6EEE12_Vector_implE}> 
%struct._ZSt12_Vector_baseIf17aligned_allocatorIfLm64EEE = type <{ %struct._ZNSt12_Vector_baseIf17aligned_allocatorIfLm64EEE12_Vector_implE}> 
%struct._ZNSt8__detail20_Prime_rehash_policyE = type <{ float, [4 x i8], i64}> 
%struct._ZSt10_HashtableIjSt4pairIKjjESaIS2_ENSt8__detail10_Select1stESt8equal_toIjESt4hashIjENS4_18_Mod_range_hashingENS4_20_Default_ranged_hashENS4_20_Prime_rehash_policyENS4_17_Hashtable_traitsILb0ELb0ELb1EEEE = type <{ %struct._ZNSt8__detail15_Hash_node_baseE**, i64, %struct._ZNSt8__detail15_Hash_node_baseE, i64, %struct._ZNSt8__detail20_Prime_rehash_policyE, %struct._ZNSt8__detail15_Hash_node_baseE*}> 
%struct._ZSt12_Vector_baseIjSaIjEE = type <{ %struct._ZNSt12_Vector_baseIjSaIjEE12_Vector_implE}> 
%struct._ZNSt8__detail15_Hash_node_baseE = type <{ %struct._ZNSt8__detail15_Hash_node_baseE*}> 
%struct._ZNSt12_Vector_baseIjSaIjEE17_Vector_impl_dataE = type <{ i32*, i32*, i32*}> 
%struct._ZNSt12_Vector_baseId17aligned_allocatorIdLm6EEE17_Vector_impl_dataE = type <{ double*, double*, double*}> 
%struct._ZN5vmesh22VelocityBlockContainerIjEE = type <{ %struct._ZSt6vectorIf17aligned_allocatorIfLm64EEE, [64 x float], i32, i32, %struct._ZSt6vectorId17aligned_allocatorIdLm6EEE}> 
%struct._ZNSt12_Vector_baseIf17aligned_allocatorIfLm64EEE17_Vector_impl_dataE = type <{ float*, float*, float*}> 
%struct._ZSt6vectorIf17aligned_allocatorIfLm64EEE = type <{ %struct._ZSt12_Vector_baseIf17aligned_allocatorIfLm64EEE}> 
%struct._Z10Vec8SimpleIfE = type <{ [8 x float]}> 
%struct._ZSt6vectorIjSaIjEE = type <{ %struct._ZSt12_Vector_baseIjSaIjEE}> 
%struct._ZN5vmesh12VelocityMeshIjjEE = type <{ i64, %struct._ZSt6vectorIjSaIjEE, %struct._ZSt13unordered_mapIjjSt4hashIjESt8equal_toIjESaISt4pairIKjjEEE}> 
%struct._ZNSt12_Vector_baseIjSaIjEE12_Vector_implE = type <{ %struct._ZNSt12_Vector_baseIjSaIjEE17_Vector_impl_dataE}> 
%struct._ZNSt12_Vector_baseIf17aligned_allocatorIfLm64EEE12_Vector_implE = type <{ %struct._ZNSt12_Vector_baseIf17aligned_allocatorIfLm64EEE17_Vector_impl_dataE}> 
%struct._ZNSt12_Vector_baseId17aligned_allocatorIdLm6EEE12_Vector_implE = type <{ %struct._ZNSt12_Vector_baseId17aligned_allocatorIdLm6EEE17_Vector_impl_dataE}> 
%struct._ZSt13unordered_mapIjjSt4hashIjESt8equal_toIjESaISt4pairIKjjEEE = type <{ %struct._ZSt10_HashtableIjSt4pairIKjjESaIS2_ENSt8__detail10_Select1stESt8equal_toIjESt4hashIjENS4_18_Mod_range_hashingENS4_20_Default_ranged_hashENS4_20_Prime_rehash_policyENS4_17_Hashtable_traitsILb0ELb0ELb1EEEE}> 



define void @_Z19loadColumnBlockDataRKN5vmesh12VelocityMeshIjjEERNS_22VelocityBlockContainerIjEEPjjiP10Vec8SimpleIfE(%struct._ZN5vmesh12VelocityMeshIjjEE* %vmesh.arg, %struct._ZN5vmesh22VelocityBlockContainerIjEE* %blockContainer.arg, i32* %blocks.arg, i32 zeroext %n_blocks.arg, i32 signext %dimension.arg, %struct._Z10Vec8SimpleIfE* %values.arg) #0 !dbg !2680 {
L.entry:
	%vmesh.addr = alloca %struct._ZN5vmesh12VelocityMeshIjjEE*, align 8
	%blockContainer.addr = alloca %struct._ZN5vmesh22VelocityBlockContainerIjEE*, align 8
	%blocks.addr = alloca i32*, align 8
	%n_blocks.addr = alloca i32, align 4
	%dimension.addr = alloca i32, align 4
	%values.addr = alloca %struct._Z10Vec8SimpleIfE*, align 8
	%k.addr = alloca i32, align 4
	%.x0001.addr = alloca i32, align 4
	%.r1.0436.addr = alloca i32, align 4
	%.r1.0114.addr = alloca i32, align 4
	%_T43514048_18870.addr = alloca %struct._Z10Vec8SimpleIfE, align 32
	%..inline.addr = alloca %struct._Z10Vec8SimpleIfE*, align 8
	%..inline.addr.1 = alloca %struct._Z10Vec8SimpleIfE*, align 8
	%block_k.addr = alloca i32, align 4
	%.r1.1087.addr = alloca i32, align 4
	%.r1.0870.addr = alloca i32, align 4
	%.r1.0653.addr = alloca i32, align 4
	%.Q0000.addr = alloca i32, align 4
	%data.addr = alloca float*, align 8
	%..inline.addr.2 = alloca float, align 4
	%..inline.addr.3 = alloca float, align 4
	%..inline.addr.4 = alloca float, align 4
	%..inline.addr.5 = alloca float, align 4
	%..inline.addr.6 = alloca float, align 4
	%..inline.addr.7 = alloca float, align 4
	%..inline.addr.8 = alloca float, align 4
	%_T43514936_18870.addr = alloca %struct._Z10Vec8SimpleIfE, align 32
	%..inline.addr.9 = alloca %struct._Z10Vec8SimpleIfE*, align 8
	%..inline.addr.340 = alloca float, align 4
	%..inline.addr.350 = alloca float, align 4
	%..inline.addr.360 = alloca float, align 4
	%..inline.addr.370 = alloca float, align 4
	%..inline.addr.380 = alloca float, align 4
	%..inline.addr.390 = alloca float, align 4
	%..inline.addr.400 = alloca float, align 4
	%..inline.addr.410 = alloca %struct._Z10Vec8SimpleIfE*, align 8
	%..inline.addr.420 = alloca float, align 4
	%..inline.addr.430 = alloca float, align 4
	%..inline.addr.440 = alloca float, align 4
	%..inline.addr.450 = alloca float, align 4
	%..inline.addr.460 = alloca float, align 4
	%..inline.addr.470 = alloca float, align 4
	%..inline.addr.480 = alloca float, align 4
	%..inline.addr.490 = alloca %struct._Z10Vec8SimpleIfE*, align 8
	%..inline.addr.500 = alloca float, align 4
	%..inline.addr.510 = alloca float, align 4
	%..inline.addr.520 = alloca float, align 4
	%..inline.addr.530 = alloca float, align 4
	%..inline.addr.540 = alloca float, align 4
	%..inline.addr.550 = alloca float, align 4
	%..inline.addr.560 = alloca float, align 4
	%..inline.addr.570 = alloca %struct._Z10Vec8SimpleIfE*, align 8
	%..inline.addr.580 = alloca float, align 4
	%..inline.addr.590 = alloca float, align 4
	%..inline.addr.600 = alloca float, align 4
	%..inline.addr.610 = alloca float, align 4
	%..inline.addr.620 = alloca float, align 4
	%..inline.addr.630 = alloca float, align 4
	%..inline.addr.640 = alloca float, align 4
	%..inline.addr.650 = alloca %struct._Z10Vec8SimpleIfE*, align 8
	%..inline.addr.660 = alloca float, align 4
	%..inline.addr.670 = alloca float, align 4
	%..inline.addr.680 = alloca float, align 4
	%..inline.addr.690 = alloca float, align 4
	%..inline.addr.700 = alloca float, align 4
	%..inline.addr.710 = alloca float, align 4
	%..inline.addr.720 = alloca float, align 4
	%..inline.addr.730 = alloca %struct._Z10Vec8SimpleIfE*, align 8
	%..inline.addr.740 = alloca float, align 4
	%..inline.addr.750 = alloca float, align 4
	%..inline.addr.760 = alloca float, align 4
	%..inline.addr.770 = alloca float, align 4
	%..inline.addr.780 = alloca float, align 4
	%..inline.addr.790 = alloca float, align 4
	%..inline.addr.800 = alloca float, align 4
	%..inline.addr.810 = alloca %struct._Z10Vec8SimpleIfE*, align 8
	%..inline.addr.820 = alloca float, align 4
	%..inline.addr.830 = alloca float, align 4
	%..inline.addr.840 = alloca float, align 4
	%..inline.addr.850 = alloca float, align 4
	%..inline.addr.860 = alloca float, align 4
	%..inline.addr.870 = alloca float, align 4
	%..inline.addr.880 = alloca float, align 4
	%..inline.addr.890 = alloca %struct._Z10Vec8SimpleIfE*, align 8
	%block_k.addr.1 = alloca i32, align 4
	%.Q0001.addr = alloca i32, align 4
	%data.addr.1 = alloca float*, align 8
	%..inline.addr.930 = alloca float, align 4
	%..inline.addr.940 = alloca float, align 4
	%..inline.addr.950 = alloca float, align 4
	%..inline.addr.960 = alloca float, align 4
	%..inline.addr.970 = alloca float, align 4
	%..inline.addr.980 = alloca float, align 4
	%..inline.addr.990 = alloca float, align 4
	%_T43516416_18870.addr = alloca %struct._Z10Vec8SimpleIfE, align 32
	%..inline.addr.1010 = alloca %struct._Z10Vec8SimpleIfE*, align 8
	%..inline.addr.1020 = alloca float, align 4
	%..inline.addr.1030 = alloca float, align 4
	%..inline.addr.1040 = alloca float, align 4
	%..inline.addr.1050 = alloca float, align 4
	%..inline.addr.1060 = alloca float, align 4
	%..inline.addr.1070 = alloca float, align 4
	%..inline.addr.1080 = alloca float, align 4
	%..inline.addr.1090 = alloca %struct._Z10Vec8SimpleIfE*, align 8
	%..inline.addr.1100 = alloca float, align 4
	%..inline.addr.1110 = alloca float, align 4
	%..inline.addr.1120 = alloca float, align 4
	%..inline.addr.1130 = alloca float, align 4
	%..inline.addr.1140 = alloca float, align 4
	%..inline.addr.1150 = alloca float, align 4
	%..inline.addr.1160 = alloca float, align 4
	%..inline.addr.1170 = alloca %struct._Z10Vec8SimpleIfE*, align 8
	%..inline.addr.1180 = alloca float, align 4
	%..inline.addr.1190 = alloca float, align 4
	%..inline.addr.1200 = alloca float, align 4
	%..inline.addr.1210 = alloca float, align 4
	%..inline.addr.1220 = alloca float, align 4
	%..inline.addr.1230 = alloca float, align 4
	%..inline.addr.1240 = alloca float, align 4
	%..inline.addr.1250 = alloca %struct._Z10Vec8SimpleIfE*, align 8
	%..inline.addr.1260 = alloca float, align 4
	%..inline.addr.1270 = alloca float, align 4
	%..inline.addr.1280 = alloca float, align 4
	%..inline.addr.1290 = alloca float, align 4
	%..inline.addr.1300 = alloca float, align 4
	%..inline.addr.1310 = alloca float, align 4
	%..inline.addr.1320 = alloca float, align 4
	%..inline.addr.1330 = alloca %struct._Z10Vec8SimpleIfE*, align 8
	%..inline.addr.1340 = alloca float, align 4
	%..inline.addr.1350 = alloca float, align 4
	%..inline.addr.1360 = alloca float, align 4
	%..inline.addr.1370 = alloca float, align 4
	%..inline.addr.1380 = alloca float, align 4
	%..inline.addr.1390 = alloca float, align 4
	%..inline.addr.1400 = alloca float, align 4
	%..inline.addr.1410 = alloca %struct._Z10Vec8SimpleIfE*, align 8
	%..inline.addr.1420 = alloca float, align 4
	%..inline.addr.1430 = alloca float, align 4
	%..inline.addr.1440 = alloca float, align 4
	%..inline.addr.1450 = alloca float, align 4
	%..inline.addr.1460 = alloca float, align 4
	%..inline.addr.1470 = alloca float, align 4
	%..inline.addr.1480 = alloca float, align 4
	%..inline.addr.1490 = alloca %struct._Z10Vec8SimpleIfE*, align 8
	%..inline.addr.1500 = alloca float, align 4
	%..inline.addr.1510 = alloca float, align 4
	%..inline.addr.1520 = alloca float, align 4
	%..inline.addr.1530 = alloca float, align 4
	%..inline.addr.1540 = alloca float, align 4
	%..inline.addr.1550 = alloca float, align 4
	%..inline.addr.1560 = alloca float, align 4
	%..inline.addr.1570 = alloca %struct._Z10Vec8SimpleIfE*, align 8
	%cell_indices_to_id.addr = alloca [3 x i32], align 4
	%cellid_transpose.addr = alloca [64 x i8], align 1
	%.x0002.addr = alloca i32, align 4
	%blockValues.addr = alloca [64 x float], align 4
	%.G0003.addr = alloca i8*, align 8
	%.G0001.addr = alloca i8*, align 8
	%..inline.addr.1640 = alloca %struct._Z10Vec8SimpleIfE*, align 8
	%block_k.addr.2 = alloca i32, align 4
	%.Q0002.addr = alloca i32, align 4
	%data.addr.2 = alloca float*, align 8
	%..inline.addr.1680 = alloca %struct._Z10Vec8SimpleIfE*, align 8
	%..inline.addr.1690 = alloca float*, align 8

	call void @llvm.dbg.declare (metadata %struct._ZN5vmesh12VelocityMeshIjjEE** %vmesh.addr, metadata !3018, metadata !3019), !dbg !2681
	store %struct._ZN5vmesh12VelocityMeshIjjEE* %vmesh.arg, %struct._ZN5vmesh12VelocityMeshIjjEE** %vmesh.addr, align 8, !tbaa !3105
	call void @llvm.dbg.declare (metadata %struct._ZN5vmesh12VelocityMeshIjjEE** %vmesh.addr, metadata !3020, metadata !3019), !dbg !2681
	call void @llvm.dbg.declare (metadata %struct._ZN5vmesh22VelocityBlockContainerIjEE** %blockContainer.addr, metadata !3021, metadata !3019), !dbg !2681
	store %struct._ZN5vmesh22VelocityBlockContainerIjEE* %blockContainer.arg, %struct._ZN5vmesh22VelocityBlockContainerIjEE** %blockContainer.addr, align 8, !tbaa !3105
	call void @llvm.dbg.declare (metadata %struct._ZN5vmesh22VelocityBlockContainerIjEE** %blockContainer.addr, metadata !3022, metadata !3019), !dbg !2681
	call void @llvm.dbg.declare (metadata i32** %blocks.addr, metadata !3023, metadata !3019), !dbg !2681
	store i32* %blocks.arg, i32** %blocks.addr, align 8, !tbaa !3105
	call void @llvm.dbg.declare (metadata i32** %blocks.addr, metadata !3024, metadata !3019), !dbg !2681
	call void @llvm.dbg.declare (metadata i32* %n_blocks.addr, metadata !3025, metadata !3019), !dbg !2681
	store i32 %n_blocks.arg, i32* %n_blocks.addr, align 4, !tbaa !3106
	call void @llvm.dbg.declare (metadata i32* %n_blocks.addr, metadata !3026, metadata !3019), !dbg !2681
	call void @llvm.dbg.declare (metadata i32* %dimension.addr, metadata !3027, metadata !3019), !dbg !2681
	store i32 %dimension.arg, i32* %dimension.addr, align 4, !tbaa !3106
	call void @llvm.dbg.declare (metadata i32* %dimension.addr, metadata !3028, metadata !3019), !dbg !2681
	call void @llvm.dbg.declare (metadata %struct._Z10Vec8SimpleIfE** %values.addr, metadata !3029, metadata !3019), !dbg !2681
	store %struct._Z10Vec8SimpleIfE* %values.arg, %struct._Z10Vec8SimpleIfE** %values.addr, align 8, !tbaa !3105
	call void @llvm.dbg.declare (metadata %struct._Z10Vec8SimpleIfE** %values.addr, metadata !3030, metadata !3019), !dbg !2681
	call void @llvm.dbg.declare (metadata i32* %k.addr, metadata !3032, metadata !3019), !dbg !2685
	store i32 0, i32* %k.addr, align 4, !tbaa !3108, !dbg !3031
	store i32 4, i32* %.x0001.addr, align 4, !tbaa !3108, !dbg !3031
	%0 = load i32, i32* %n_blocks.addr, align 4, !tbaa !3108, !dbg !3031
	%1 = add i32  %0, 2, !dbg !3031
	%2 = mul i32  %1, 4, !dbg !3031
	store i32  %2, i32* %.r1.0436.addr, align 4, !tbaa !3108, !dbg !3031
	%3 = add i32  %0, 1, !dbg !3031
	%4 = mul i32  %3, 4, !dbg !3031
	store i32  %4, i32* %.r1.0114.addr, align 4, !tbaa !3108, !dbg !3031
	br label %L.B0001
L.B0001:
	%5 = bitcast %struct._Z10Vec8SimpleIfE* %_T43514048_18870.addr to float*, !dbg !3033
	store float 0x0000000000000000, float*  %5, align 4, !tbaa !3106, !dbg !3033
	%6 = bitcast %struct._Z10Vec8SimpleIfE* %_T43514048_18870.addr to i8*, !dbg !3034
	%7 = getelementptr i8, i8*  %6, i64 4, !dbg !3034
	%8 = bitcast i8*  %7 to float*, !dbg !3034
	store float 0x0000000000000000, float*  %8, align 4, !tbaa !3106, !dbg !3034
	%9 = getelementptr i8, i8*  %6, i64 8, !dbg !3034
	%10 = bitcast i8*  %9 to float*, !dbg !3034
	store float 0x0000000000000000, float*  %10, align 4, !tbaa !3106, !dbg !3034
	%11 = getelementptr i8, i8*  %6, i64 12, !dbg !3034
	%12 = bitcast i8*  %11 to float*, !dbg !3034
	store float 0x0000000000000000, float*  %12, align 4, !tbaa !3106, !dbg !3034
	%13 = getelementptr i8, i8*  %6, i64 16, !dbg !3034
	%14 = bitcast i8*  %13 to float*, !dbg !3034
	store float 0x0000000000000000, float*  %14, align 4, !tbaa !3106, !dbg !3034
	%15 = getelementptr i8, i8*  %6, i64 20, !dbg !3034
	%16 = bitcast i8*  %15 to float*, !dbg !3034
	store float 0x0000000000000000, float*  %16, align 4, !tbaa !3106, !dbg !3034
	%17 = getelementptr i8, i8*  %6, i64 24, !dbg !3034
	%18 = bitcast i8*  %17 to float*, !dbg !3034
	store float 0x0000000000000000, float*  %18, align 4, !tbaa !3106, !dbg !3034
	%19 = getelementptr i8, i8*  %6, i64 28, !dbg !3034
	%20 = bitcast i8*  %19 to float*, !dbg !3034
	store float 0x0000000000000000, float*  %20, align 4, !tbaa !3106, !dbg !3034
	%21 = load %struct._Z10Vec8SimpleIfE*, %struct._Z10Vec8SimpleIfE** %values.addr, align 8, !tbaa !3105, !dbg !3035
	%22 = bitcast %struct._Z10Vec8SimpleIfE*  %21 to i8*, !dbg !3035
	%23 = load i32, i32* %k.addr, align 4, !tbaa !3108, !dbg !3035
	%24 = zext i32  %23 to i64, !dbg !3035
	%25 = mul i64  %24, 32, !dbg !3035
	%26 = getelementptr i8, i8*  %22, i64  %25, !dbg !3035
	%27 = bitcast %struct._Z10Vec8SimpleIfE** %..inline.addr to i8**, !dbg !3035
	store i8*  %26, i8**  %27, align 8, !tbaa !3105, !dbg !3035
	%28 = load float, float*  %5, align 4, !tbaa !3106, !dbg !3033
	%29 = load %struct._Z10Vec8SimpleIfE*, %struct._Z10Vec8SimpleIfE** %..inline.addr, align 8, !tbaa !3105, !dbg !3033
	%30 = bitcast %struct._Z10Vec8SimpleIfE*  %29 to float*, !dbg !3033
	store float  %28, float*  %30, align 4, !tbaa !3106, !dbg !3033
	%31 = load float, float*  %8, align 4, !tbaa !3106, !dbg !3036
	%32 = bitcast %struct._Z10Vec8SimpleIfE*  %29 to i8*, !dbg !3036
	%33 = getelementptr i8, i8*  %32, i64 4, !dbg !3036
	%34 = bitcast i8*  %33 to float*, !dbg !3036
	store float  %31, float*  %34, align 4, !tbaa !3106, !dbg !3036
	%35 = load float, float*  %10, align 4, !tbaa !3106, !dbg !3036
	%36 = getelementptr i8, i8*  %32, i64 8, !dbg !3036
	%37 = bitcast i8*  %36 to float*, !dbg !3036
	store float  %35, float*  %37, align 4, !tbaa !3106, !dbg !3036
	%38 = load float, float*  %12, align 4, !tbaa !3106, !dbg !3036
	%39 = getelementptr i8, i8*  %32, i64 12, !dbg !3036
	%40 = bitcast i8*  %39 to float*, !dbg !3036
	store float  %38, float*  %40, align 4, !tbaa !3106, !dbg !3036
	%41 = load float, float*  %14, align 4, !tbaa !3106, !dbg !3036
	%42 = getelementptr i8, i8*  %32, i64 16, !dbg !3036
	%43 = bitcast i8*  %42 to float*, !dbg !3036
	store float  %41, float*  %43, align 4, !tbaa !3106, !dbg !3036
	%44 = load float, float*  %16, align 4, !tbaa !3106, !dbg !3036
	%45 = getelementptr i8, i8*  %32, i64 20, !dbg !3036
	%46 = bitcast i8*  %45 to float*, !dbg !3036
	store float  %44, float*  %46, align 4, !tbaa !3106, !dbg !3036
	%47 = load float, float*  %18, align 4, !tbaa !3106, !dbg !3036
	%48 = getelementptr i8, i8*  %32, i64 24, !dbg !3036
	%49 = bitcast i8*  %48 to float*, !dbg !3036
	store float  %47, float*  %49, align 4, !tbaa !3106, !dbg !3036
	%50 = load float, float*  %20, align 4, !tbaa !3106, !dbg !3036
	%51 = getelementptr i8, i8*  %32, i64 28, !dbg !3036
	%52 = bitcast i8*  %51 to float*, !dbg !3036
	store float  %50, float*  %52, align 4, !tbaa !3106, !dbg !3036
	store float 0x0000000000000000, float*  %5, align 4, !tbaa !3106, !dbg !3033
	store float 0x0000000000000000, float*  %8, align 4, !tbaa !3106, !dbg !3034
	store float 0x0000000000000000, float*  %10, align 4, !tbaa !3106, !dbg !3034
	store float 0x0000000000000000, float*  %12, align 4, !tbaa !3106, !dbg !3034
	store float 0x0000000000000000, float*  %14, align 4, !tbaa !3106, !dbg !3034
	store float 0x0000000000000000, float*  %16, align 4, !tbaa !3106, !dbg !3034
	store float 0x0000000000000000, float*  %18, align 4, !tbaa !3106, !dbg !3034
	store float 0x0000000000000000, float*  %20, align 4, !tbaa !3106, !dbg !3034
	%53 = load i32, i32* %.r1.0114.addr, align 4, !tbaa !3108, !dbg !3037
	%54 = add i32  %23,  %53, !dbg !3037
	%55 = zext i32  %54 to i64, !dbg !3037
	%56 = mul i64  %55, 32, !dbg !3037
	%57 = getelementptr i8, i8*  %22, i64  %56, !dbg !3037
	%58 = bitcast %struct._Z10Vec8SimpleIfE** %..inline.addr.1 to i8**, !dbg !3037
	store i8*  %57, i8**  %58, align 8, !tbaa !3105, !dbg !3037
	%59 = load float, float*  %5, align 4, !tbaa !3106, !dbg !3033
	%60 = load %struct._Z10Vec8SimpleIfE*, %struct._Z10Vec8SimpleIfE** %..inline.addr.1, align 8, !tbaa !3105, !dbg !3033
	%61 = bitcast %struct._Z10Vec8SimpleIfE*  %60 to float*, !dbg !3033
	store float  %59, float*  %61, align 4, !tbaa !3106, !dbg !3033
	%62 = load float, float*  %8, align 4, !tbaa !3106, !dbg !3036
	%63 = bitcast %struct._Z10Vec8SimpleIfE*  %60 to i8*, !dbg !3036
	%64 = getelementptr i8, i8*  %63, i64 4, !dbg !3036
	%65 = bitcast i8*  %64 to float*, !dbg !3036
	store float  %62, float*  %65, align 4, !tbaa !3106, !dbg !3036
	%66 = load float, float*  %10, align 4, !tbaa !3106, !dbg !3036
	%67 = getelementptr i8, i8*  %63, i64 8, !dbg !3036
	%68 = bitcast i8*  %67 to float*, !dbg !3036
	store float  %66, float*  %68, align 4, !tbaa !3106, !dbg !3036
	%69 = load float, float*  %12, align 4, !tbaa !3106, !dbg !3036
	%70 = getelementptr i8, i8*  %63, i64 12, !dbg !3036
	%71 = bitcast i8*  %70 to float*, !dbg !3036
	store float  %69, float*  %71, align 4, !tbaa !3106, !dbg !3036
	%72 = load float, float*  %14, align 4, !tbaa !3106, !dbg !3036
	%73 = getelementptr i8, i8*  %63, i64 16, !dbg !3036
	%74 = bitcast i8*  %73 to float*, !dbg !3036
	store float  %72, float*  %74, align 4, !tbaa !3106, !dbg !3036
	%75 = load float, float*  %16, align 4, !tbaa !3106, !dbg !3036
	%76 = getelementptr i8, i8*  %63, i64 20, !dbg !3036
	%77 = bitcast i8*  %76 to float*, !dbg !3036
	store float  %75, float*  %77, align 4, !tbaa !3106, !dbg !3036
	%78 = load float, float*  %18, align 4, !tbaa !3106, !dbg !3036
	%79 = getelementptr i8, i8*  %63, i64 24, !dbg !3036
	%80 = bitcast i8*  %79 to float*, !dbg !3036
	store float  %78, float*  %80, align 4, !tbaa !3106, !dbg !3036
	%81 = load float, float*  %20, align 4, !tbaa !3106, !dbg !3036
	%82 = getelementptr i8, i8*  %63, i64 28, !dbg !3036
	%83 = bitcast i8*  %82 to float*, !dbg !3036
	store float  %81, float*  %83, align 4, !tbaa !3106, !dbg !3036
	store float 0x0000000000000000, float*  %5, align 4, !tbaa !3106, !dbg !3033
	store float 0x0000000000000000, float*  %8, align 4, !tbaa !3106, !dbg !3033
	store float 0x0000000000000000, float*  %10, align 4, !tbaa !3106, !dbg !3033
	store float 0x0000000000000000, float*  %12, align 4, !tbaa !3106, !dbg !3033
	store float 0x0000000000000000, float*  %14, align 4, !tbaa !3106, !dbg !3033
	store float 0x0000000000000000, float*  %16, align 4, !tbaa !3106, !dbg !3033
	store float 0x0000000000000000, float*  %18, align 4, !tbaa !3106, !dbg !3033
	store float 0x0000000000000000, float*  %20, align 4, !tbaa !3106, !dbg !3033
	%84 = load i32, i32* %.r1.0436.addr, align 4, !tbaa !3108, !dbg !3033
	%85 = add i32  %23,  %84, !dbg !3033
	%86 = zext i32  %85 to i64, !dbg !3033
	%87 = mul i64  %86, 32, !dbg !3033
	%88 = getelementptr i8, i8*  %22, i64  %87, !dbg !3033
	store i8*  %88, i8**  %27, align 8, !tbaa !3105, !dbg !3033
	%89 = load float, float*  %5, align 4, !tbaa !3106, !dbg !3033
	%90 = load %struct._Z10Vec8SimpleIfE*, %struct._Z10Vec8SimpleIfE** %..inline.addr, align 8, !tbaa !3105, !dbg !3033
	%91 = bitcast %struct._Z10Vec8SimpleIfE*  %90 to float*, !dbg !3033
	store float  %89, float*  %91, align 4, !tbaa !3106, !dbg !3033
	%92 = load float, float*  %8, align 4, !tbaa !3106, !dbg !3033
	%93 = bitcast %struct._Z10Vec8SimpleIfE*  %90 to i8*, !dbg !3033
	%94 = getelementptr i8, i8*  %93, i64 4, !dbg !3033
	%95 = bitcast i8*  %94 to float*, !dbg !3033
	store float  %92, float*  %95, align 4, !tbaa !3106, !dbg !3033
	%96 = load float, float*  %10, align 4, !tbaa !3106, !dbg !3033
	%97 = getelementptr i8, i8*  %93, i64 8, !dbg !3033
	%98 = bitcast i8*  %97 to float*, !dbg !3033
	store float  %96, float*  %98, align 4, !tbaa !3106, !dbg !3033
	%99 = load float, float*  %12, align 4, !tbaa !3106, !dbg !3033
	%100 = getelementptr i8, i8*  %93, i64 12, !dbg !3033
	%101 = bitcast i8*  %100 to float*, !dbg !3033
	store float  %99, float*  %101, align 4, !tbaa !3106, !dbg !3033
	%102 = load float, float*  %14, align 4, !tbaa !3106, !dbg !3033
	%103 = getelementptr i8, i8*  %93, i64 16, !dbg !3033
	%104 = bitcast i8*  %103 to float*, !dbg !3033
	store float  %102, float*  %104, align 4, !tbaa !3106, !dbg !3033
	%105 = load float, float*  %16, align 4, !tbaa !3106, !dbg !3033
	%106 = getelementptr i8, i8*  %93, i64 20, !dbg !3033
	%107 = bitcast i8*  %106 to float*, !dbg !3033
	store float  %105, float*  %107, align 4, !tbaa !3106, !dbg !3033
	%108 = load float, float*  %18, align 4, !tbaa !3106, !dbg !3033
	%109 = getelementptr i8, i8*  %93, i64 24, !dbg !3033
	%110 = bitcast i8*  %109 to float*, !dbg !3033
	store float  %108, float*  %110, align 4, !tbaa !3106, !dbg !3033
	%111 = load float, float*  %20, align 4, !tbaa !3106, !dbg !3033
	%112 = getelementptr i8, i8*  %93, i64 28, !dbg !3033
	%113 = bitcast i8*  %112 to float*, !dbg !3033
	store float  %111, float*  %113, align 4, !tbaa !3106, !dbg !3033
	store float 0x0000000000000000, float*  %5, align 4, !tbaa !3106, !dbg !3033
	store float 0x0000000000000000, float*  %8, align 4, !tbaa !3106, !dbg !3033
	store float 0x0000000000000000, float*  %10, align 4, !tbaa !3106, !dbg !3033
	store float 0x0000000000000000, float*  %12, align 4, !tbaa !3106, !dbg !3033
	store float 0x0000000000000000, float*  %14, align 4, !tbaa !3106, !dbg !3033
	store float 0x0000000000000000, float*  %16, align 4, !tbaa !3106, !dbg !3033
	store float 0x0000000000000000, float*  %18, align 4, !tbaa !3106, !dbg !3033
	store float 0x0000000000000000, float*  %20, align 4, !tbaa !3106, !dbg !3033
	%114 = add i32  %53,  %85, !dbg !3033
	%115 = zext i32  %114 to i64, !dbg !3033
	%116 = mul i64  %115, 32, !dbg !3033
	%117 = getelementptr i8, i8*  %22, i64  %116, !dbg !3033
	store i8*  %117, i8**  %58, align 8, !tbaa !3105, !dbg !3033
	%118 = load float, float*  %5, align 4, !tbaa !3106, !dbg !3033
	%119 = load %struct._Z10Vec8SimpleIfE*, %struct._Z10Vec8SimpleIfE** %..inline.addr.1, align 8, !tbaa !3105, !dbg !3033
	%120 = bitcast %struct._Z10Vec8SimpleIfE*  %119 to float*, !dbg !3033
	store float  %118, float*  %120, align 4, !tbaa !3106, !dbg !3033
	%121 = load float, float*  %8, align 4, !tbaa !3106, !dbg !3033
	%122 = bitcast %struct._Z10Vec8SimpleIfE*  %119 to i8*, !dbg !3033
	%123 = getelementptr i8, i8*  %122, i64 4, !dbg !3033
	%124 = bitcast i8*  %123 to float*, !dbg !3033
	store float  %121, float*  %124, align 4, !tbaa !3106, !dbg !3033
	%125 = load float, float*  %10, align 4, !tbaa !3106, !dbg !3033
	%126 = getelementptr i8, i8*  %122, i64 8, !dbg !3033
	%127 = bitcast i8*  %126 to float*, !dbg !3033
	store float  %125, float*  %127, align 4, !tbaa !3106, !dbg !3033
	%128 = load float, float*  %12, align 4, !tbaa !3106, !dbg !3033
	%129 = getelementptr i8, i8*  %122, i64 12, !dbg !3033
	%130 = bitcast i8*  %129 to float*, !dbg !3033
	store float  %128, float*  %130, align 4, !tbaa !3106, !dbg !3033
	%131 = load float, float*  %14, align 4, !tbaa !3106, !dbg !3033
	%132 = getelementptr i8, i8*  %122, i64 16, !dbg !3033
	%133 = bitcast i8*  %132 to float*, !dbg !3033
	store float  %131, float*  %133, align 4, !tbaa !3106, !dbg !3033
	%134 = load float, float*  %16, align 4, !tbaa !3106, !dbg !3033
	%135 = getelementptr i8, i8*  %122, i64 20, !dbg !3033
	%136 = bitcast i8*  %135 to float*, !dbg !3033
	store float  %134, float*  %136, align 4, !tbaa !3106, !dbg !3033
	%137 = load float, float*  %18, align 4, !tbaa !3106, !dbg !3033
	%138 = getelementptr i8, i8*  %122, i64 24, !dbg !3033
	%139 = bitcast i8*  %138 to float*, !dbg !3033
	store float  %137, float*  %139, align 4, !tbaa !3106, !dbg !3033
	%140 = load float, float*  %20, align 4, !tbaa !3106, !dbg !3033
	%141 = getelementptr i8, i8*  %122, i64 28, !dbg !3033
	%142 = bitcast i8*  %141 to float*, !dbg !3033
	store float  %140, float*  %142, align 4, !tbaa !3106, !dbg !3033
	%143 = add i32  %23, 1, !dbg !3038
	store i32  %143, i32* %k.addr, align 4, !tbaa !3108, !dbg !3038
	%144 = load i32, i32* %.x0001.addr, align 4, !tbaa !3108, !dbg !3031
	%145 = sub i32  %144, 1, !dbg !3031
	store i32  %145, i32* %.x0001.addr, align 4, !tbaa !3108, !dbg !3031
	%146 = icmp ne i32  %145, 0, !dbg !3038
	br i1  %146, label %L.B0001, label %L.B1024, !dbg !3038
L.B1024:
	%147 = load i32, i32* %dimension.addr, align 4, !tbaa !3108, !dbg !3039
	%148 = icmp ne i32  %147, 0, !dbg !3039
	br i1  %148, label %L.B0012, label %L.B1025, !dbg !3039
L.B1025:
	call void @llvm.dbg.declare (metadata i32* %block_k.addr, metadata !3041, metadata !3019), !dbg !2695
	store i32 0, i32* %block_k.addr, align 4, !tbaa !3108, !dbg !3040
	%149 = load i32, i32* %n_blocks.addr, align 4, !tbaa !3108, !dbg !3040
	%150 = icmp eq i32  %149, 0, !dbg !3040
	br i1  %150, label %L.B0016, label %L.B1026, !dbg !3040
L.B1026:
	store i32  %149, i32* %.x0001.addr, align 4, !tbaa !3108, !dbg !3040
	%151 = add i32  %149, 2, !dbg !3040
	%152 = mul i32  %151, 4, !dbg !3040
	%153 = add i32  %152, 3, !dbg !3040
	store i32  %153, i32* %.r1.1087.addr, align 4, !tbaa !3108, !dbg !3040
	%154 = add i32  %149, 2, !dbg !3040
	%155 = mul i32  %154, 4, !dbg !3040
	%156 = add i32  %155, 2, !dbg !3040
	store i32  %156, i32* %.r1.0870.addr, align 4, !tbaa !3108, !dbg !3040
	%157 = add i32  %149, 2, !dbg !3040
	%158 = mul i32  %157, 4, !dbg !3040
	%159 = add i32  %158, 1, !dbg !3040
	store i32  %159, i32* %.r1.0653.addr, align 4, !tbaa !3108, !dbg !3040
	%160 = add i32  %149, 2, !dbg !3040
	%161 = mul i32  %160, 4, !dbg !3040
	store i32  %161, i32* %.r1.0436.addr, align 4, !tbaa !3108, !dbg !3040
	br label %L.B0015
L.B0015:
	%162 = load %struct._ZN5vmesh12VelocityMeshIjjEE*, %struct._ZN5vmesh12VelocityMeshIjjEE** %vmesh.addr, align 8, !tbaa !3105, !dbg !3042
	%163 = load i32*, i32** %blocks.addr, align 8, !tbaa !3105, !dbg !3042
	%164 = bitcast i32*  %163 to i8*, !dbg !3042
	%165 = load i32, i32* %block_k.addr, align 4, !tbaa !3108, !dbg !3042
	%166 = zext i32  %165 to i64, !dbg !3042
	%167 = mul i64  %166, 4, !dbg !3042
	%168 = getelementptr i8, i8*  %164, i64  %167, !dbg !3042
	%169 = bitcast i8*  %168 to i32*, !dbg !3042
	%170 = call i32  @_ZNK5vmesh12VelocityMeshIjjE10getLocalIDERKj (%struct._ZN5vmesh12VelocityMeshIjjEE*  %162, i32*  %169), !dbg !3042
	store i32  %170, i32* %.Q0000.addr, align 4, !tbaa !3108, !dbg !3042
	%171 = load %struct._ZN5vmesh22VelocityBlockContainerIjEE*, %struct._ZN5vmesh22VelocityBlockContainerIjEE** %blockContainer.addr, align 8, !tbaa !3105, !dbg !3043
	%172 = bitcast %struct._ZN5vmesh22VelocityBlockContainerIjEE*  %171 to i8**, !dbg !3043
	%173 = load i8*, i8**  %172, align 8, !tbaa !3105, !dbg !3043
	%174 = mul i32  %170, 64, !dbg !3043
	%175 = zext i32  %174 to i64, !dbg !3043
	%176 = mul i64  %175, 4, !dbg !3043
	%177 = getelementptr i8, i8*  %173, i64  %176, !dbg !3043
	call void @llvm.dbg.declare (metadata float** %data.addr, metadata !3044, metadata !3019), !dbg !2697
	%178 = bitcast float** %data.addr to i8**, !dbg !3043
	store i8*  %177, i8**  %178, align 8, !tbaa !3105, !dbg !3043
	%179 = load float*, float** %data.addr, align 8, !tbaa !3105, !dbg !3045
	%180 = bitcast float*  %179 to i8*, !dbg !3045
	%181 = getelementptr i8, i8*  %180, i64 64, !dbg !3045
	%182 = bitcast i8*  %181 to float*, !dbg !3045
	%183 = load float, float*  %182, align 4, !tbaa !3106, !dbg !3045
	%184 = getelementptr i8, i8*  %180, i64 128, !dbg !3045
	%185 = bitcast i8*  %184 to float*, !dbg !3045
	%186 = load float, float*  %185, align 4, !tbaa !3106, !dbg !3045
	%187 = getelementptr i8, i8*  %180, i64 192, !dbg !3045
	%188 = bitcast i8*  %187 to float*, !dbg !3045
	%189 = load float, float*  %188, align 4, !tbaa !3106, !dbg !3045
	%190 = getelementptr i8, i8*  %180, i64 16, !dbg !3045
	%191 = bitcast i8*  %190 to float*, !dbg !3045
	%192 = load float, float*  %191, align 4, !tbaa !3106, !dbg !3045
	%193 = getelementptr i8, i8*  %180, i64 80, !dbg !3045
	%194 = bitcast i8*  %193 to float*, !dbg !3045
	%195 = load float, float*  %194, align 4, !tbaa !3106, !dbg !3045
	%196 = getelementptr i8, i8*  %180, i64 144, !dbg !3045
	%197 = bitcast i8*  %196 to float*, !dbg !3045
	%198 = load float, float*  %197, align 4, !tbaa !3106, !dbg !3045
	%199 = getelementptr i8, i8*  %180, i64 208, !dbg !3045
	%200 = bitcast i8*  %199 to float*, !dbg !3045
	%201 = load float, float*  %200, align 4, !tbaa !3106, !dbg !3045
	%202 = load i32, i32* %.Q0000.addr, align 4, !tbaa !3108, !dbg !3045
	%203 = mul i32  %202, 64, !dbg !3045
	%204 = zext i32  %203 to i64, !dbg !3045
	%205 = load %struct._ZN5vmesh22VelocityBlockContainerIjEE*, %struct._ZN5vmesh22VelocityBlockContainerIjEE** %blockContainer.addr, align 8, !tbaa !3105, !dbg !3045
	%206 = bitcast %struct._ZN5vmesh22VelocityBlockContainerIjEE*  %205 to float**, !dbg !3045
	%207 = load float*, float**  %206, align 8, !tbaa !3105, !dbg !3045
	%208 = getelementptr float, float*  %207, i64  %204, !dbg !3045
	%209 = load float, float*  %208, align 4, !tbaa !3106, !dbg !3045
	%210 = bitcast %struct._Z10Vec8SimpleIfE* %_T43514936_18870.addr to float*, !dbg !3045
	store float  %209, float*  %210, align 4, !tbaa !3106, !dbg !3045
	%211 = bitcast %struct._Z10Vec8SimpleIfE* %_T43514936_18870.addr to i8*, !dbg !3046
	%212 = getelementptr i8, i8*  %211, i64 4, !dbg !3046
	%213 = bitcast i8*  %212 to float*, !dbg !3046
	store float  %183, float*  %213, align 4, !tbaa !3106, !dbg !3046
	%214 = getelementptr i8, i8*  %211, i64 8, !dbg !3047
	%215 = bitcast i8*  %214 to float*, !dbg !3047
	store float  %186, float*  %215, align 4, !tbaa !3106, !dbg !3047
	%216 = getelementptr i8, i8*  %211, i64 12, !dbg !3048
	%217 = bitcast i8*  %216 to float*, !dbg !3048
	store float  %189, float*  %217, align 4, !tbaa !3106, !dbg !3048
	%218 = getelementptr i8, i8*  %211, i64 16, !dbg !3049
	%219 = bitcast i8*  %218 to float*, !dbg !3049
	store float  %192, float*  %219, align 4, !tbaa !3106, !dbg !3049
	%220 = getelementptr i8, i8*  %211, i64 20, !dbg !3050
	%221 = bitcast i8*  %220 to float*, !dbg !3050
	store float  %195, float*  %221, align 4, !tbaa !3106, !dbg !3050
	%222 = getelementptr i8, i8*  %211, i64 24, !dbg !3051
	%223 = bitcast i8*  %222 to float*, !dbg !3051
	store float  %198, float*  %223, align 4, !tbaa !3106, !dbg !3051
	%224 = getelementptr i8, i8*  %211, i64 28, !dbg !3052
	%225 = bitcast i8*  %224 to float*, !dbg !3052
	store float  %201, float*  %225, align 4, !tbaa !3106, !dbg !3052
	%226 = load %struct._Z10Vec8SimpleIfE*, %struct._Z10Vec8SimpleIfE** %values.addr, align 8, !tbaa !3105, !dbg !3045
	%227 = bitcast %struct._Z10Vec8SimpleIfE*  %226 to i8*, !dbg !3045
	%228 = load i32, i32* %block_k.addr, align 4, !tbaa !3108, !dbg !3045
	%229 = add i32  %228, 1, !dbg !3045
	%230 = mul i32  %229, 4, !dbg !3045
	%231 = zext i32  %230 to i64, !dbg !3045
	%232 = mul i64  %231, 32, !dbg !3045
	%233 = getelementptr i8, i8*  %227, i64  %232, !dbg !3045
	%234 = bitcast %struct._Z10Vec8SimpleIfE** %..inline.addr.9 to i8**, !dbg !3045
	store i8*  %233, i8**  %234, align 8, !tbaa !3105, !dbg !3045
	%235 = load float, float*  %210, align 4, !tbaa !3106, !dbg !3040
	%236 = load %struct._Z10Vec8SimpleIfE*, %struct._Z10Vec8SimpleIfE** %..inline.addr.9, align 8, !tbaa !3105, !dbg !3040
	%237 = bitcast %struct._Z10Vec8SimpleIfE*  %236 to float*, !dbg !3040
	store float  %235, float*  %237, align 4, !tbaa !3106, !dbg !3040
	%238 = load float, float*  %213, align 4, !tbaa !3106, !dbg !3036
	%239 = bitcast %struct._Z10Vec8SimpleIfE*  %236 to i8*, !dbg !3036
	%240 = getelementptr i8, i8*  %239, i64 4, !dbg !3036
	%241 = bitcast i8*  %240 to float*, !dbg !3036
	store float  %238, float*  %241, align 4, !tbaa !3106, !dbg !3036
	%242 = load float, float*  %215, align 4, !tbaa !3106, !dbg !3036
	%243 = getelementptr i8, i8*  %239, i64 8, !dbg !3036
	%244 = bitcast i8*  %243 to float*, !dbg !3036
	store float  %242, float*  %244, align 4, !tbaa !3106, !dbg !3036
	%245 = load float, float*  %217, align 4, !tbaa !3106, !dbg !3036
	%246 = getelementptr i8, i8*  %239, i64 12, !dbg !3036
	%247 = bitcast i8*  %246 to float*, !dbg !3036
	store float  %245, float*  %247, align 4, !tbaa !3106, !dbg !3036
	%248 = load float, float*  %219, align 4, !tbaa !3106, !dbg !3036
	%249 = getelementptr i8, i8*  %239, i64 16, !dbg !3036
	%250 = bitcast i8*  %249 to float*, !dbg !3036
	store float  %248, float*  %250, align 4, !tbaa !3106, !dbg !3036
	%251 = load float, float*  %221, align 4, !tbaa !3106, !dbg !3036
	%252 = getelementptr i8, i8*  %239, i64 20, !dbg !3036
	%253 = bitcast i8*  %252 to float*, !dbg !3036
	store float  %251, float*  %253, align 4, !tbaa !3106, !dbg !3036
	%254 = load float, float*  %223, align 4, !tbaa !3106, !dbg !3036
	%255 = getelementptr i8, i8*  %239, i64 24, !dbg !3036
	%256 = bitcast i8*  %255 to float*, !dbg !3036
	store float  %254, float*  %256, align 4, !tbaa !3106, !dbg !3036
	%257 = load float, float*  %225, align 4, !tbaa !3106, !dbg !3036
	%258 = getelementptr i8, i8*  %239, i64 28, !dbg !3036
	%259 = bitcast i8*  %258 to float*, !dbg !3036
	store float  %257, float*  %259, align 4, !tbaa !3106, !dbg !3036
	%260 = getelementptr i8, i8*  %180, i64 96, !dbg !3053
	%261 = bitcast i8*  %260 to float*, !dbg !3053
	%262 = load float, float*  %261, align 4, !tbaa !3106, !dbg !3053
	%263 = getelementptr i8, i8*  %180, i64 160, !dbg !3053
	%264 = bitcast i8*  %263 to float*, !dbg !3053
	%265 = load float, float*  %264, align 4, !tbaa !3106, !dbg !3053
	%266 = getelementptr i8, i8*  %180, i64 224, !dbg !3053
	%267 = bitcast i8*  %266 to float*, !dbg !3053
	%268 = load float, float*  %267, align 4, !tbaa !3106, !dbg !3053
	%269 = getelementptr i8, i8*  %180, i64 48, !dbg !3053
	%270 = bitcast i8*  %269 to float*, !dbg !3053
	%271 = load float, float*  %270, align 4, !tbaa !3106, !dbg !3053
	%272 = getelementptr i8, i8*  %180, i64 112, !dbg !3053
	%273 = bitcast i8*  %272 to float*, !dbg !3053
	%274 = load float, float*  %273, align 4, !tbaa !3106, !dbg !3053
	%275 = getelementptr i8, i8*  %180, i64 176, !dbg !3053
	%276 = bitcast i8*  %275 to float*, !dbg !3053
	%277 = load float, float*  %276, align 4, !tbaa !3106, !dbg !3053
	%278 = getelementptr i8, i8*  %180, i64 240, !dbg !3053
	%279 = bitcast i8*  %278 to float*, !dbg !3053
	%280 = load float, float*  %279, align 4, !tbaa !3106, !dbg !3053
	%281 = getelementptr i8, i8*  %180, i64 32, !dbg !3053
	%282 = bitcast i8*  %281 to float*, !dbg !3053
	%283 = load float, float*  %282, align 4, !tbaa !3106, !dbg !3053
	store float  %283, float*  %210, align 4, !tbaa !3106, !dbg !3053
	store float  %262, float*  %213, align 4, !tbaa !3106, !dbg !3046
	store float  %265, float*  %215, align 4, !tbaa !3106, !dbg !3047
	store float  %268, float*  %217, align 4, !tbaa !3106, !dbg !3048
	store float  %271, float*  %219, align 4, !tbaa !3106, !dbg !3049
	store float  %274, float*  %221, align 4, !tbaa !3106, !dbg !3050
	store float  %277, float*  %223, align 4, !tbaa !3106, !dbg !3051
	store float  %280, float*  %225, align 4, !tbaa !3106, !dbg !3052
	%284 = add i32  %228, 1, !dbg !3053
	%285 = mul i32  %284, 4, !dbg !3053
	%286 = load i32, i32* %.r1.0436.addr, align 4, !tbaa !3108, !dbg !3053
	%287 = add i32  %285,  %286, !dbg !3053
	%288 = zext i32  %287 to i64, !dbg !3053
	%289 = mul i64  %288, 32, !dbg !3053
	%290 = getelementptr i8, i8*  %227, i64  %289, !dbg !3053
	%291 = bitcast %struct._Z10Vec8SimpleIfE** %..inline.addr.410 to i8**, !dbg !3053
	store i8*  %290, i8**  %291, align 8, !tbaa !3105, !dbg !3053
	%292 = load float, float*  %210, align 4, !tbaa !3106, !dbg !3040
	%293 = load %struct._Z10Vec8SimpleIfE*, %struct._Z10Vec8SimpleIfE** %..inline.addr.410, align 8, !tbaa !3105, !dbg !3040
	%294 = bitcast %struct._Z10Vec8SimpleIfE*  %293 to float*, !dbg !3040
	store float  %292, float*  %294, align 4, !tbaa !3106, !dbg !3040
	%295 = load float, float*  %213, align 4, !tbaa !3106, !dbg !3036
	%296 = bitcast %struct._Z10Vec8SimpleIfE*  %293 to i8*, !dbg !3036
	%297 = getelementptr i8, i8*  %296, i64 4, !dbg !3036
	%298 = bitcast i8*  %297 to float*, !dbg !3036
	store float  %295, float*  %298, align 4, !tbaa !3106, !dbg !3036
	%299 = load float, float*  %215, align 4, !tbaa !3106, !dbg !3036
	%300 = getelementptr i8, i8*  %296, i64 8, !dbg !3036
	%301 = bitcast i8*  %300 to float*, !dbg !3036
	store float  %299, float*  %301, align 4, !tbaa !3106, !dbg !3036
	%302 = load float, float*  %217, align 4, !tbaa !3106, !dbg !3036
	%303 = getelementptr i8, i8*  %296, i64 12, !dbg !3036
	%304 = bitcast i8*  %303 to float*, !dbg !3036
	store float  %302, float*  %304, align 4, !tbaa !3106, !dbg !3036
	%305 = load float, float*  %219, align 4, !tbaa !3106, !dbg !3036
	%306 = getelementptr i8, i8*  %296, i64 16, !dbg !3036
	%307 = bitcast i8*  %306 to float*, !dbg !3036
	store float  %305, float*  %307, align 4, !tbaa !3106, !dbg !3036
	%308 = load float, float*  %221, align 4, !tbaa !3106, !dbg !3036
	%309 = getelementptr i8, i8*  %296, i64 20, !dbg !3036
	%310 = bitcast i8*  %309 to float*, !dbg !3036
	store float  %308, float*  %310, align 4, !tbaa !3106, !dbg !3036
	%311 = load float, float*  %223, align 4, !tbaa !3106, !dbg !3036
	%312 = getelementptr i8, i8*  %296, i64 24, !dbg !3036
	%313 = bitcast i8*  %312 to float*, !dbg !3036
	store float  %311, float*  %313, align 4, !tbaa !3106, !dbg !3036
	%314 = load float, float*  %225, align 4, !tbaa !3106, !dbg !3036
	%315 = getelementptr i8, i8*  %296, i64 28, !dbg !3036
	%316 = bitcast i8*  %315 to float*, !dbg !3036
	store float  %314, float*  %316, align 4, !tbaa !3106, !dbg !3036
	%317 = getelementptr i8, i8*  %180, i64 68, !dbg !3054
	%318 = bitcast i8*  %317 to float*, !dbg !3054
	%319 = load float, float*  %318, align 4, !tbaa !3106, !dbg !3054
	%320 = getelementptr i8, i8*  %180, i64 132, !dbg !3054
	%321 = bitcast i8*  %320 to float*, !dbg !3054
	%322 = load float, float*  %321, align 4, !tbaa !3106, !dbg !3054
	%323 = getelementptr i8, i8*  %180, i64 196, !dbg !3054
	%324 = bitcast i8*  %323 to float*, !dbg !3054
	%325 = load float, float*  %324, align 4, !tbaa !3106, !dbg !3054
	%326 = getelementptr i8, i8*  %180, i64 20, !dbg !3054
	%327 = bitcast i8*  %326 to float*, !dbg !3054
	%328 = load float, float*  %327, align 4, !tbaa !3106, !dbg !3054
	%329 = getelementptr i8, i8*  %180, i64 84, !dbg !3054
	%330 = bitcast i8*  %329 to float*, !dbg !3054
	%331 = load float, float*  %330, align 4, !tbaa !3106, !dbg !3054
	%332 = getelementptr i8, i8*  %180, i64 148, !dbg !3054
	%333 = bitcast i8*  %332 to float*, !dbg !3054
	%334 = load float, float*  %333, align 4, !tbaa !3106, !dbg !3054
	%335 = getelementptr i8, i8*  %180, i64 212, !dbg !3054
	%336 = bitcast i8*  %335 to float*, !dbg !3054
	%337 = load float, float*  %336, align 4, !tbaa !3106, !dbg !3054
	%338 = getelementptr i8, i8*  %180, i64 4, !dbg !3054
	%339 = bitcast i8*  %338 to float*, !dbg !3054
	%340 = load float, float*  %339, align 4, !tbaa !3106, !dbg !3054
	store float  %340, float*  %210, align 4, !tbaa !3106, !dbg !3054
	store float  %319, float*  %213, align 4, !tbaa !3106, !dbg !3046
	store float  %322, float*  %215, align 4, !tbaa !3106, !dbg !3047
	store float  %325, float*  %217, align 4, !tbaa !3106, !dbg !3048
	store float  %328, float*  %219, align 4, !tbaa !3106, !dbg !3049
	store float  %331, float*  %221, align 4, !tbaa !3106, !dbg !3050
	store float  %334, float*  %223, align 4, !tbaa !3106, !dbg !3051
	store float  %337, float*  %225, align 4, !tbaa !3106, !dbg !3052
	%341 = add i32  %228, 1, !dbg !3054
	%342 = mul i32  %341, 4, !dbg !3054
	%343 = add i32  %342, 1, !dbg !3054
	%344 = zext i32  %343 to i64, !dbg !3054
	%345 = mul i64  %344, 32, !dbg !3054
	%346 = getelementptr i8, i8*  %227, i64  %345, !dbg !3054
	%347 = bitcast %struct._Z10Vec8SimpleIfE** %..inline.addr.490 to i8**, !dbg !3054
	store i8*  %346, i8**  %347, align 8, !tbaa !3105, !dbg !3054
	%348 = load float, float*  %210, align 4, !tbaa !3106, !dbg !3040
	%349 = load %struct._Z10Vec8SimpleIfE*, %struct._Z10Vec8SimpleIfE** %..inline.addr.490, align 8, !tbaa !3105, !dbg !3040
	%350 = bitcast %struct._Z10Vec8SimpleIfE*  %349 to float*, !dbg !3040
	store float  %348, float*  %350, align 4, !tbaa !3106, !dbg !3040
	%351 = load float, float*  %213, align 4, !tbaa !3106, !dbg !3036
	%352 = bitcast %struct._Z10Vec8SimpleIfE*  %349 to i8*, !dbg !3036
	%353 = getelementptr i8, i8*  %352, i64 4, !dbg !3036
	%354 = bitcast i8*  %353 to float*, !dbg !3036
	store float  %351, float*  %354, align 4, !tbaa !3106, !dbg !3036
	%355 = load float, float*  %215, align 4, !tbaa !3106, !dbg !3036
	%356 = getelementptr i8, i8*  %352, i64 8, !dbg !3036
	%357 = bitcast i8*  %356 to float*, !dbg !3036
	store float  %355, float*  %357, align 4, !tbaa !3106, !dbg !3036
	%358 = load float, float*  %217, align 4, !tbaa !3106, !dbg !3036
	%359 = getelementptr i8, i8*  %352, i64 12, !dbg !3036
	%360 = bitcast i8*  %359 to float*, !dbg !3036
	store float  %358, float*  %360, align 4, !tbaa !3106, !dbg !3036
	%361 = load float, float*  %219, align 4, !tbaa !3106, !dbg !3036
	%362 = getelementptr i8, i8*  %352, i64 16, !dbg !3036
	%363 = bitcast i8*  %362 to float*, !dbg !3036
	store float  %361, float*  %363, align 4, !tbaa !3106, !dbg !3036
	%364 = load float, float*  %221, align 4, !tbaa !3106, !dbg !3036
	%365 = getelementptr i8, i8*  %352, i64 20, !dbg !3036
	%366 = bitcast i8*  %365 to float*, !dbg !3036
	store float  %364, float*  %366, align 4, !tbaa !3106, !dbg !3036
	%367 = load float, float*  %223, align 4, !tbaa !3106, !dbg !3036
	%368 = getelementptr i8, i8*  %352, i64 24, !dbg !3036
	%369 = bitcast i8*  %368 to float*, !dbg !3036
	store float  %367, float*  %369, align 4, !tbaa !3106, !dbg !3036
	%370 = load float, float*  %225, align 4, !tbaa !3106, !dbg !3036
	%371 = getelementptr i8, i8*  %352, i64 28, !dbg !3036
	%372 = bitcast i8*  %371 to float*, !dbg !3036
	store float  %370, float*  %372, align 4, !tbaa !3106, !dbg !3036
	%373 = getelementptr i8, i8*  %180, i64 100, !dbg !3055
	%374 = bitcast i8*  %373 to float*, !dbg !3055
	%375 = load float, float*  %374, align 4, !tbaa !3106, !dbg !3055
	%376 = getelementptr i8, i8*  %180, i64 164, !dbg !3055
	%377 = bitcast i8*  %376 to float*, !dbg !3055
	%378 = load float, float*  %377, align 4, !tbaa !3106, !dbg !3055
	%379 = getelementptr i8, i8*  %180, i64 228, !dbg !3055
	%380 = bitcast i8*  %379 to float*, !dbg !3055
	%381 = load float, float*  %380, align 4, !tbaa !3106, !dbg !3055
	%382 = getelementptr i8, i8*  %180, i64 52, !dbg !3055
	%383 = bitcast i8*  %382 to float*, !dbg !3055
	%384 = load float, float*  %383, align 4, !tbaa !3106, !dbg !3055
	%385 = getelementptr i8, i8*  %180, i64 116, !dbg !3055
	%386 = bitcast i8*  %385 to float*, !dbg !3055
	%387 = load float, float*  %386, align 4, !tbaa !3106, !dbg !3055
	%388 = getelementptr i8, i8*  %180, i64 180, !dbg !3055
	%389 = bitcast i8*  %388 to float*, !dbg !3055
	%390 = load float, float*  %389, align 4, !tbaa !3106, !dbg !3055
	%391 = getelementptr i8, i8*  %180, i64 244, !dbg !3055
	%392 = bitcast i8*  %391 to float*, !dbg !3055
	%393 = load float, float*  %392, align 4, !tbaa !3106, !dbg !3055
	%394 = getelementptr i8, i8*  %180, i64 36, !dbg !3055
	%395 = bitcast i8*  %394 to float*, !dbg !3055
	%396 = load float, float*  %395, align 4, !tbaa !3106, !dbg !3055
	store float  %396, float*  %210, align 4, !tbaa !3106, !dbg !3055
	store float  %375, float*  %213, align 4, !tbaa !3106, !dbg !3046
	store float  %378, float*  %215, align 4, !tbaa !3106, !dbg !3047
	store float  %381, float*  %217, align 4, !tbaa !3106, !dbg !3048
	store float  %384, float*  %219, align 4, !tbaa !3106, !dbg !3049
	store float  %387, float*  %221, align 4, !tbaa !3106, !dbg !3050
	store float  %390, float*  %223, align 4, !tbaa !3106, !dbg !3051
	store float  %393, float*  %225, align 4, !tbaa !3106, !dbg !3052
	%397 = add i32  %228, 1, !dbg !3055
	%398 = mul i32  %397, 4, !dbg !3055
	%399 = load i32, i32* %.r1.0653.addr, align 4, !tbaa !3108, !dbg !3055
	%400 = add i32  %398,  %399, !dbg !3055
	%401 = zext i32  %400 to i64, !dbg !3055
	%402 = mul i64  %401, 32, !dbg !3055
	%403 = getelementptr i8, i8*  %227, i64  %402, !dbg !3055
	%404 = bitcast %struct._Z10Vec8SimpleIfE** %..inline.addr.570 to i8**, !dbg !3055
	store i8*  %403, i8**  %404, align 8, !tbaa !3105, !dbg !3055
	%405 = load float, float*  %210, align 4, !tbaa !3106, !dbg !3040
	%406 = load %struct._Z10Vec8SimpleIfE*, %struct._Z10Vec8SimpleIfE** %..inline.addr.570, align 8, !tbaa !3105, !dbg !3040
	%407 = bitcast %struct._Z10Vec8SimpleIfE*  %406 to float*, !dbg !3040
	store float  %405, float*  %407, align 4, !tbaa !3106, !dbg !3040
	%408 = load float, float*  %213, align 4, !tbaa !3106, !dbg !3036
	%409 = bitcast %struct._Z10Vec8SimpleIfE*  %406 to i8*, !dbg !3036
	%410 = getelementptr i8, i8*  %409, i64 4, !dbg !3036
	%411 = bitcast i8*  %410 to float*, !dbg !3036
	store float  %408, float*  %411, align 4, !tbaa !3106, !dbg !3036
	%412 = load float, float*  %215, align 4, !tbaa !3106, !dbg !3036
	%413 = getelementptr i8, i8*  %409, i64 8, !dbg !3036
	%414 = bitcast i8*  %413 to float*, !dbg !3036
	store float  %412, float*  %414, align 4, !tbaa !3106, !dbg !3036
	%415 = load float, float*  %217, align 4, !tbaa !3106, !dbg !3036
	%416 = getelementptr i8, i8*  %409, i64 12, !dbg !3036
	%417 = bitcast i8*  %416 to float*, !dbg !3036
	store float  %415, float*  %417, align 4, !tbaa !3106, !dbg !3036
	%418 = load float, float*  %219, align 4, !tbaa !3106, !dbg !3036
	%419 = getelementptr i8, i8*  %409, i64 16, !dbg !3036
	%420 = bitcast i8*  %419 to float*, !dbg !3036
	store float  %418, float*  %420, align 4, !tbaa !3106, !dbg !3036
	%421 = load float, float*  %221, align 4, !tbaa !3106, !dbg !3036
	%422 = getelementptr i8, i8*  %409, i64 20, !dbg !3036
	%423 = bitcast i8*  %422 to float*, !dbg !3036
	store float  %421, float*  %423, align 4, !tbaa !3106, !dbg !3036
	%424 = load float, float*  %223, align 4, !tbaa !3106, !dbg !3036
	%425 = getelementptr i8, i8*  %409, i64 24, !dbg !3036
	%426 = bitcast i8*  %425 to float*, !dbg !3036
	store float  %424, float*  %426, align 4, !tbaa !3106, !dbg !3036
	%427 = load float, float*  %225, align 4, !tbaa !3106, !dbg !3036
	%428 = getelementptr i8, i8*  %409, i64 28, !dbg !3036
	%429 = bitcast i8*  %428 to float*, !dbg !3036
	store float  %427, float*  %429, align 4, !tbaa !3106, !dbg !3036
	%430 = getelementptr i8, i8*  %180, i64 72, !dbg !3056
	%431 = bitcast i8*  %430 to float*, !dbg !3056
	%432 = load float, float*  %431, align 4, !tbaa !3106, !dbg !3056
	%433 = getelementptr i8, i8*  %180, i64 136, !dbg !3056
	%434 = bitcast i8*  %433 to float*, !dbg !3056
	%435 = load float, float*  %434, align 4, !tbaa !3106, !dbg !3056
	%436 = getelementptr i8, i8*  %180, i64 200, !dbg !3056
	%437 = bitcast i8*  %436 to float*, !dbg !3056
	%438 = load float, float*  %437, align 4, !tbaa !3106, !dbg !3056
	%439 = getelementptr i8, i8*  %180, i64 24, !dbg !3056
	%440 = bitcast i8*  %439 to float*, !dbg !3056
	%441 = load float, float*  %440, align 4, !tbaa !3106, !dbg !3056
	%442 = getelementptr i8, i8*  %180, i64 88, !dbg !3056
	%443 = bitcast i8*  %442 to float*, !dbg !3056
	%444 = load float, float*  %443, align 4, !tbaa !3106, !dbg !3056
	%445 = getelementptr i8, i8*  %180, i64 152, !dbg !3056
	%446 = bitcast i8*  %445 to float*, !dbg !3056
	%447 = load float, float*  %446, align 4, !tbaa !3106, !dbg !3056
	%448 = getelementptr i8, i8*  %180, i64 216, !dbg !3056
	%449 = bitcast i8*  %448 to float*, !dbg !3056
	%450 = load float, float*  %449, align 4, !tbaa !3106, !dbg !3056
	%451 = getelementptr i8, i8*  %180, i64 8, !dbg !3056
	%452 = bitcast i8*  %451 to float*, !dbg !3056
	%453 = load float, float*  %452, align 4, !tbaa !3106, !dbg !3056
	store float  %453, float*  %210, align 4, !tbaa !3106, !dbg !3056
	store float  %432, float*  %213, align 4, !tbaa !3106, !dbg !3046
	store float  %435, float*  %215, align 4, !tbaa !3106, !dbg !3047
	store float  %438, float*  %217, align 4, !tbaa !3106, !dbg !3048
	store float  %441, float*  %219, align 4, !tbaa !3106, !dbg !3049
	store float  %444, float*  %221, align 4, !tbaa !3106, !dbg !3050
	store float  %447, float*  %223, align 4, !tbaa !3106, !dbg !3051
	store float  %450, float*  %225, align 4, !tbaa !3106, !dbg !3052
	%454 = add i32  %228, 1, !dbg !3056
	%455 = mul i32  %454, 4, !dbg !3056
	%456 = add i32  %455, 2, !dbg !3056
	%457 = zext i32  %456 to i64, !dbg !3056
	%458 = mul i64  %457, 32, !dbg !3056
	%459 = getelementptr i8, i8*  %227, i64  %458, !dbg !3056
	%460 = bitcast %struct._Z10Vec8SimpleIfE** %..inline.addr.650 to i8**, !dbg !3056
	store i8*  %459, i8**  %460, align 8, !tbaa !3105, !dbg !3056
	%461 = load float, float*  %210, align 4, !tbaa !3106, !dbg !3040
	%462 = load %struct._Z10Vec8SimpleIfE*, %struct._Z10Vec8SimpleIfE** %..inline.addr.650, align 8, !tbaa !3105, !dbg !3040
	%463 = bitcast %struct._Z10Vec8SimpleIfE*  %462 to float*, !dbg !3040
	store float  %461, float*  %463, align 4, !tbaa !3106, !dbg !3040
	%464 = load float, float*  %213, align 4, !tbaa !3106, !dbg !3036
	%465 = bitcast %struct._Z10Vec8SimpleIfE*  %462 to i8*, !dbg !3036
	%466 = getelementptr i8, i8*  %465, i64 4, !dbg !3036
	%467 = bitcast i8*  %466 to float*, !dbg !3036
	store float  %464, float*  %467, align 4, !tbaa !3106, !dbg !3036
	%468 = load float, float*  %215, align 4, !tbaa !3106, !dbg !3036
	%469 = getelementptr i8, i8*  %465, i64 8, !dbg !3036
	%470 = bitcast i8*  %469 to float*, !dbg !3036
	store float  %468, float*  %470, align 4, !tbaa !3106, !dbg !3036
	%471 = load float, float*  %217, align 4, !tbaa !3106, !dbg !3036
	%472 = getelementptr i8, i8*  %465, i64 12, !dbg !3036
	%473 = bitcast i8*  %472 to float*, !dbg !3036
	store float  %471, float*  %473, align 4, !tbaa !3106, !dbg !3036
	%474 = load float, float*  %219, align 4, !tbaa !3106, !dbg !3036
	%475 = getelementptr i8, i8*  %465, i64 16, !dbg !3036
	%476 = bitcast i8*  %475 to float*, !dbg !3036
	store float  %474, float*  %476, align 4, !tbaa !3106, !dbg !3036
	%477 = load float, float*  %221, align 4, !tbaa !3106, !dbg !3036
	%478 = getelementptr i8, i8*  %465, i64 20, !dbg !3036
	%479 = bitcast i8*  %478 to float*, !dbg !3036
	store float  %477, float*  %479, align 4, !tbaa !3106, !dbg !3036
	%480 = load float, float*  %223, align 4, !tbaa !3106, !dbg !3036
	%481 = getelementptr i8, i8*  %465, i64 24, !dbg !3036
	%482 = bitcast i8*  %481 to float*, !dbg !3036
	store float  %480, float*  %482, align 4, !tbaa !3106, !dbg !3036
	%483 = load float, float*  %225, align 4, !tbaa !3106, !dbg !3036
	%484 = getelementptr i8, i8*  %465, i64 28, !dbg !3036
	%485 = bitcast i8*  %484 to float*, !dbg !3036
	store float  %483, float*  %485, align 4, !tbaa !3106, !dbg !3036
	%486 = getelementptr i8, i8*  %180, i64 104, !dbg !3057
	%487 = bitcast i8*  %486 to float*, !dbg !3057
	%488 = load float, float*  %487, align 4, !tbaa !3106, !dbg !3057
	%489 = getelementptr i8, i8*  %180, i64 168, !dbg !3057
	%490 = bitcast i8*  %489 to float*, !dbg !3057
	%491 = load float, float*  %490, align 4, !tbaa !3106, !dbg !3057
	%492 = getelementptr i8, i8*  %180, i64 232, !dbg !3057
	%493 = bitcast i8*  %492 to float*, !dbg !3057
	%494 = load float, float*  %493, align 4, !tbaa !3106, !dbg !3057
	%495 = getelementptr i8, i8*  %180, i64 56, !dbg !3057
	%496 = bitcast i8*  %495 to float*, !dbg !3057
	%497 = load float, float*  %496, align 4, !tbaa !3106, !dbg !3057
	%498 = getelementptr i8, i8*  %180, i64 120, !dbg !3057
	%499 = bitcast i8*  %498 to float*, !dbg !3057
	%500 = load float, float*  %499, align 4, !tbaa !3106, !dbg !3057
	%501 = getelementptr i8, i8*  %180, i64 184, !dbg !3057
	%502 = bitcast i8*  %501 to float*, !dbg !3057
	%503 = load float, float*  %502, align 4, !tbaa !3106, !dbg !3057
	%504 = getelementptr i8, i8*  %180, i64 248, !dbg !3057
	%505 = bitcast i8*  %504 to float*, !dbg !3057
	%506 = load float, float*  %505, align 4, !tbaa !3106, !dbg !3057
	%507 = getelementptr i8, i8*  %180, i64 40, !dbg !3057
	%508 = bitcast i8*  %507 to float*, !dbg !3057
	%509 = load float, float*  %508, align 4, !tbaa !3106, !dbg !3057
	store float  %509, float*  %210, align 4, !tbaa !3106, !dbg !3057
	store float  %488, float*  %213, align 4, !tbaa !3106, !dbg !3046
	store float  %491, float*  %215, align 4, !tbaa !3106, !dbg !3047
	store float  %494, float*  %217, align 4, !tbaa !3106, !dbg !3048
	store float  %497, float*  %219, align 4, !tbaa !3106, !dbg !3049
	store float  %500, float*  %221, align 4, !tbaa !3106, !dbg !3050
	store float  %503, float*  %223, align 4, !tbaa !3106, !dbg !3051
	store float  %506, float*  %225, align 4, !tbaa !3106, !dbg !3052
	%510 = add i32  %228, 1, !dbg !3057
	%511 = mul i32  %510, 4, !dbg !3057
	%512 = load i32, i32* %.r1.0870.addr, align 4, !tbaa !3108, !dbg !3057
	%513 = add i32  %511,  %512, !dbg !3057
	%514 = zext i32  %513 to i64, !dbg !3057
	%515 = mul i64  %514, 32, !dbg !3057
	%516 = getelementptr i8, i8*  %227, i64  %515, !dbg !3057
	%517 = bitcast %struct._Z10Vec8SimpleIfE** %..inline.addr.730 to i8**, !dbg !3057
	store i8*  %516, i8**  %517, align 8, !tbaa !3105, !dbg !3057
	%518 = load float, float*  %210, align 4, !tbaa !3106, !dbg !3040
	%519 = load %struct._Z10Vec8SimpleIfE*, %struct._Z10Vec8SimpleIfE** %..inline.addr.730, align 8, !tbaa !3105, !dbg !3040
	%520 = bitcast %struct._Z10Vec8SimpleIfE*  %519 to float*, !dbg !3040
	store float  %518, float*  %520, align 4, !tbaa !3106, !dbg !3040
	%521 = load float, float*  %213, align 4, !tbaa !3106, !dbg !3036
	%522 = bitcast %struct._Z10Vec8SimpleIfE*  %519 to i8*, !dbg !3036
	%523 = getelementptr i8, i8*  %522, i64 4, !dbg !3036
	%524 = bitcast i8*  %523 to float*, !dbg !3036
	store float  %521, float*  %524, align 4, !tbaa !3106, !dbg !3036
	%525 = load float, float*  %215, align 4, !tbaa !3106, !dbg !3036
	%526 = getelementptr i8, i8*  %522, i64 8, !dbg !3036
	%527 = bitcast i8*  %526 to float*, !dbg !3036
	store float  %525, float*  %527, align 4, !tbaa !3106, !dbg !3036
	%528 = load float, float*  %217, align 4, !tbaa !3106, !dbg !3036
	%529 = getelementptr i8, i8*  %522, i64 12, !dbg !3036
	%530 = bitcast i8*  %529 to float*, !dbg !3036
	store float  %528, float*  %530, align 4, !tbaa !3106, !dbg !3036
	%531 = load float, float*  %219, align 4, !tbaa !3106, !dbg !3036
	%532 = getelementptr i8, i8*  %522, i64 16, !dbg !3036
	%533 = bitcast i8*  %532 to float*, !dbg !3036
	store float  %531, float*  %533, align 4, !tbaa !3106, !dbg !3036
	%534 = load float, float*  %221, align 4, !tbaa !3106, !dbg !3036
	%535 = getelementptr i8, i8*  %522, i64 20, !dbg !3036
	%536 = bitcast i8*  %535 to float*, !dbg !3036
	store float  %534, float*  %536, align 4, !tbaa !3106, !dbg !3036
	%537 = load float, float*  %223, align 4, !tbaa !3106, !dbg !3036
	%538 = getelementptr i8, i8*  %522, i64 24, !dbg !3036
	%539 = bitcast i8*  %538 to float*, !dbg !3036
	store float  %537, float*  %539, align 4, !tbaa !3106, !dbg !3036
	%540 = load float, float*  %225, align 4, !tbaa !3106, !dbg !3036
	%541 = getelementptr i8, i8*  %522, i64 28, !dbg !3036
	%542 = bitcast i8*  %541 to float*, !dbg !3036
	store float  %540, float*  %542, align 4, !tbaa !3106, !dbg !3036
	%543 = getelementptr i8, i8*  %180, i64 76, !dbg !3058
	%544 = bitcast i8*  %543 to float*, !dbg !3058
	%545 = load float, float*  %544, align 4, !tbaa !3106, !dbg !3058
	%546 = getelementptr i8, i8*  %180, i64 140, !dbg !3058
	%547 = bitcast i8*  %546 to float*, !dbg !3058
	%548 = load float, float*  %547, align 4, !tbaa !3106, !dbg !3058
	%549 = getelementptr i8, i8*  %180, i64 204, !dbg !3058
	%550 = bitcast i8*  %549 to float*, !dbg !3058
	%551 = load float, float*  %550, align 4, !tbaa !3106, !dbg !3058
	%552 = getelementptr i8, i8*  %180, i64 28, !dbg !3058
	%553 = bitcast i8*  %552 to float*, !dbg !3058
	%554 = load float, float*  %553, align 4, !tbaa !3106, !dbg !3058
	%555 = getelementptr i8, i8*  %180, i64 92, !dbg !3058
	%556 = bitcast i8*  %555 to float*, !dbg !3058
	%557 = load float, float*  %556, align 4, !tbaa !3106, !dbg !3058
	%558 = getelementptr i8, i8*  %180, i64 156, !dbg !3058
	%559 = bitcast i8*  %558 to float*, !dbg !3058
	%560 = load float, float*  %559, align 4, !tbaa !3106, !dbg !3058
	%561 = getelementptr i8, i8*  %180, i64 220, !dbg !3058
	%562 = bitcast i8*  %561 to float*, !dbg !3058
	%563 = load float, float*  %562, align 4, !tbaa !3106, !dbg !3058
	%564 = getelementptr i8, i8*  %180, i64 12, !dbg !3058
	%565 = bitcast i8*  %564 to float*, !dbg !3058
	%566 = load float, float*  %565, align 4, !tbaa !3106, !dbg !3058
	store float  %566, float*  %210, align 4, !tbaa !3106, !dbg !3058
	store float  %545, float*  %213, align 4, !tbaa !3106, !dbg !3046
	store float  %548, float*  %215, align 4, !tbaa !3106, !dbg !3047
	store float  %551, float*  %217, align 4, !tbaa !3106, !dbg !3048
	store float  %554, float*  %219, align 4, !tbaa !3106, !dbg !3049
	store float  %557, float*  %221, align 4, !tbaa !3106, !dbg !3050
	store float  %560, float*  %223, align 4, !tbaa !3106, !dbg !3051
	store float  %563, float*  %225, align 4, !tbaa !3106, !dbg !3052
	%567 = add i32  %228, 1, !dbg !3058
	%568 = mul i32  %567, 4, !dbg !3058
	%569 = add i32  %568, 3, !dbg !3058
	%570 = zext i32  %569 to i64, !dbg !3058
	%571 = mul i64  %570, 32, !dbg !3058
	%572 = getelementptr i8, i8*  %227, i64  %571, !dbg !3058
	%573 = bitcast %struct._Z10Vec8SimpleIfE** %..inline.addr.810 to i8**, !dbg !3058
	store i8*  %572, i8**  %573, align 8, !tbaa !3105, !dbg !3058
	%574 = load float, float*  %210, align 4, !tbaa !3106, !dbg !3040
	%575 = load %struct._Z10Vec8SimpleIfE*, %struct._Z10Vec8SimpleIfE** %..inline.addr.810, align 8, !tbaa !3105, !dbg !3040
	%576 = bitcast %struct._Z10Vec8SimpleIfE*  %575 to float*, !dbg !3040
	store float  %574, float*  %576, align 4, !tbaa !3106, !dbg !3040
	%577 = load float, float*  %213, align 4, !tbaa !3106, !dbg !3036
	%578 = bitcast %struct._Z10Vec8SimpleIfE*  %575 to i8*, !dbg !3036
	%579 = getelementptr i8, i8*  %578, i64 4, !dbg !3036
	%580 = bitcast i8*  %579 to float*, !dbg !3036
	store float  %577, float*  %580, align 4, !tbaa !3106, !dbg !3036
	%581 = load float, float*  %215, align 4, !tbaa !3106, !dbg !3036
	%582 = getelementptr i8, i8*  %578, i64 8, !dbg !3036
	%583 = bitcast i8*  %582 to float*, !dbg !3036
	store float  %581, float*  %583, align 4, !tbaa !3106, !dbg !3036
	%584 = load float, float*  %217, align 4, !tbaa !3106, !dbg !3036
	%585 = getelementptr i8, i8*  %578, i64 12, !dbg !3036
	%586 = bitcast i8*  %585 to float*, !dbg !3036
	store float  %584, float*  %586, align 4, !tbaa !3106, !dbg !3036
	%587 = load float, float*  %219, align 4, !tbaa !3106, !dbg !3036
	%588 = getelementptr i8, i8*  %578, i64 16, !dbg !3036
	%589 = bitcast i8*  %588 to float*, !dbg !3036
	store float  %587, float*  %589, align 4, !tbaa !3106, !dbg !3036
	%590 = load float, float*  %221, align 4, !tbaa !3106, !dbg !3036
	%591 = getelementptr i8, i8*  %578, i64 20, !dbg !3036
	%592 = bitcast i8*  %591 to float*, !dbg !3036
	store float  %590, float*  %592, align 4, !tbaa !3106, !dbg !3036
	%593 = load float, float*  %223, align 4, !tbaa !3106, !dbg !3036
	%594 = getelementptr i8, i8*  %578, i64 24, !dbg !3036
	%595 = bitcast i8*  %594 to float*, !dbg !3036
	store float  %593, float*  %595, align 4, !tbaa !3106, !dbg !3036
	%596 = load float, float*  %225, align 4, !tbaa !3106, !dbg !3036
	%597 = getelementptr i8, i8*  %578, i64 28, !dbg !3036
	%598 = bitcast i8*  %597 to float*, !dbg !3036
	store float  %596, float*  %598, align 4, !tbaa !3106, !dbg !3036
	%599 = getelementptr i8, i8*  %180, i64 108, !dbg !3043
	%600 = bitcast i8*  %599 to float*, !dbg !3043
	%601 = load float, float*  %600, align 4, !tbaa !3106, !dbg !3043
	%602 = getelementptr i8, i8*  %180, i64 172, !dbg !3043
	%603 = bitcast i8*  %602 to float*, !dbg !3043
	%604 = load float, float*  %603, align 4, !tbaa !3106, !dbg !3043
	%605 = getelementptr i8, i8*  %180, i64 236, !dbg !3043
	%606 = bitcast i8*  %605 to float*, !dbg !3043
	%607 = load float, float*  %606, align 4, !tbaa !3106, !dbg !3043
	%608 = getelementptr i8, i8*  %180, i64 60, !dbg !3043
	%609 = bitcast i8*  %608 to float*, !dbg !3043
	%610 = load float, float*  %609, align 4, !tbaa !3106, !dbg !3043
	%611 = getelementptr i8, i8*  %180, i64 124, !dbg !3043
	%612 = bitcast i8*  %611 to float*, !dbg !3043
	%613 = load float, float*  %612, align 4, !tbaa !3106, !dbg !3043
	%614 = getelementptr i8, i8*  %180, i64 188, !dbg !3043
	%615 = bitcast i8*  %614 to float*, !dbg !3043
	%616 = load float, float*  %615, align 4, !tbaa !3106, !dbg !3043
	%617 = getelementptr i8, i8*  %180, i64 252, !dbg !3043
	%618 = bitcast i8*  %617 to float*, !dbg !3043
	%619 = load float, float*  %618, align 4, !tbaa !3106, !dbg !3043
	%620 = getelementptr i8, i8*  %180, i64 44, !dbg !3043
	%621 = bitcast i8*  %620 to float*, !dbg !3043
	%622 = load float, float*  %621, align 4, !tbaa !3106, !dbg !3043
	store float  %622, float*  %210, align 4, !tbaa !3106, !dbg !3043
	store float  %601, float*  %213, align 4, !tbaa !3106, !dbg !3046
	store float  %604, float*  %215, align 4, !tbaa !3106, !dbg !3047
	store float  %607, float*  %217, align 4, !tbaa !3106, !dbg !3048
	store float  %610, float*  %219, align 4, !tbaa !3106, !dbg !3049
	store float  %613, float*  %221, align 4, !tbaa !3106, !dbg !3050
	store float  %616, float*  %223, align 4, !tbaa !3106, !dbg !3051
	store float  %619, float*  %225, align 4, !tbaa !3106, !dbg !3052
	%623 = add i32  %228, 1, !dbg !3043
	%624 = mul i32  %623, 4, !dbg !3043
	%625 = load i32, i32* %.r1.1087.addr, align 4, !tbaa !3108, !dbg !3043
	%626 = add i32  %624,  %625, !dbg !3043
	%627 = zext i32  %626 to i64, !dbg !3043
	%628 = mul i64  %627, 32, !dbg !3043
	%629 = getelementptr i8, i8*  %227, i64  %628, !dbg !3043
	%630 = bitcast %struct._Z10Vec8SimpleIfE** %..inline.addr.890 to i8**, !dbg !3043
	store i8*  %629, i8**  %630, align 8, !tbaa !3105, !dbg !3043
	%631 = load float, float*  %210, align 4, !tbaa !3106, !dbg !3040
	%632 = load %struct._Z10Vec8SimpleIfE*, %struct._Z10Vec8SimpleIfE** %..inline.addr.890, align 8, !tbaa !3105, !dbg !3040
	%633 = bitcast %struct._Z10Vec8SimpleIfE*  %632 to float*, !dbg !3040
	store float  %631, float*  %633, align 4, !tbaa !3106, !dbg !3040
	%634 = load float, float*  %213, align 4, !tbaa !3106, !dbg !3036
	%635 = bitcast %struct._Z10Vec8SimpleIfE*  %632 to i8*, !dbg !3036
	%636 = getelementptr i8, i8*  %635, i64 4, !dbg !3036
	%637 = bitcast i8*  %636 to float*, !dbg !3036
	store float  %634, float*  %637, align 4, !tbaa !3106, !dbg !3036
	%638 = load float, float*  %215, align 4, !tbaa !3106, !dbg !3036
	%639 = getelementptr i8, i8*  %635, i64 8, !dbg !3036
	%640 = bitcast i8*  %639 to float*, !dbg !3036
	store float  %638, float*  %640, align 4, !tbaa !3106, !dbg !3036
	%641 = load float, float*  %217, align 4, !tbaa !3106, !dbg !3036
	%642 = getelementptr i8, i8*  %635, i64 12, !dbg !3036
	%643 = bitcast i8*  %642 to float*, !dbg !3036
	store float  %641, float*  %643, align 4, !tbaa !3106, !dbg !3036
	%644 = load float, float*  %219, align 4, !tbaa !3106, !dbg !3036
	%645 = getelementptr i8, i8*  %635, i64 16, !dbg !3036
	%646 = bitcast i8*  %645 to float*, !dbg !3036
	store float  %644, float*  %646, align 4, !tbaa !3106, !dbg !3036
	%647 = load float, float*  %221, align 4, !tbaa !3106, !dbg !3036
	%648 = getelementptr i8, i8*  %635, i64 20, !dbg !3036
	%649 = bitcast i8*  %648 to float*, !dbg !3036
	store float  %647, float*  %649, align 4, !tbaa !3106, !dbg !3036
	%650 = load float, float*  %223, align 4, !tbaa !3106, !dbg !3036
	%651 = getelementptr i8, i8*  %635, i64 24, !dbg !3036
	%652 = bitcast i8*  %651 to float*, !dbg !3036
	store float  %650, float*  %652, align 4, !tbaa !3106, !dbg !3036
	%653 = load float, float*  %225, align 4, !tbaa !3106, !dbg !3036
	%654 = getelementptr i8, i8*  %635, i64 28, !dbg !3036
	%655 = bitcast i8*  %654 to float*, !dbg !3036
	store float  %653, float*  %655, align 4, !tbaa !3106, !dbg !3036
	%656 = bitcast i32 (...)* @__c_mzero4 to i32 (i8*, i64, ...)*, !dbg !3059
	%657 = call i32 (i8*, i64, ...)  %656 (i8*  %180, i64 64) nounwind, !dbg !3059
	%658 = load i32, i32* %block_k.addr, align 4, !tbaa !3108, !dbg !3060
	%659 = add i32  %658, 1, !dbg !3060
	store i32  %659, i32* %block_k.addr, align 4, !tbaa !3108, !dbg !3060
	%660 = load i32, i32* %.x0001.addr, align 4, !tbaa !3108, !dbg !3040
	%661 = sub i32  %660, 1, !dbg !3040
	store i32  %661, i32* %.x0001.addr, align 4, !tbaa !3108, !dbg !3040
	%662 = icmp ne i32  %661, 0, !dbg !3060
	br i1  %662, label %L.B0015, label %L.B0016, !dbg !3060
L.B0016:
	br label %L.B0012
L.B0012:
	%663 = load i32, i32* %dimension.addr, align 4, !tbaa !3108, !dbg !3061
	%664 = icmp ne i32  %663, 1, !dbg !3061
	br i1  %664, label %L.B0025, label %L.B1027, !dbg !3061
L.B1027:
	call void @llvm.dbg.declare (metadata i32* %block_k.addr.1, metadata !3063, metadata !3019), !dbg !2703
	store i32 0, i32* %block_k.addr.1, align 4, !tbaa !3108, !dbg !3062
	%665 = load i32, i32* %n_blocks.addr, align 4, !tbaa !3108, !dbg !3062
	%666 = icmp eq i32  %665, 0, !dbg !3062
	br i1  %666, label %L.B0029, label %L.B1028, !dbg !3062
L.B1028:
	store i32  %665, i32* %.x0001.addr, align 4, !tbaa !3108, !dbg !3062
	%667 = add i32  %665, 2, !dbg !3062
	%668 = mul i32  %667, 4, !dbg !3062
	%669 = add i32  %668, 3, !dbg !3062
	store i32  %669, i32* %.r1.1087.addr, align 4, !tbaa !3108, !dbg !3062
	%670 = add i32  %665, 2, !dbg !3062
	%671 = mul i32  %670, 4, !dbg !3062
	%672 = add i32  %671, 2, !dbg !3062
	store i32  %672, i32* %.r1.0870.addr, align 4, !tbaa !3108, !dbg !3062
	%673 = add i32  %665, 2, !dbg !3062
	%674 = mul i32  %673, 4, !dbg !3062
	%675 = add i32  %674, 1, !dbg !3062
	store i32  %675, i32* %.r1.0653.addr, align 4, !tbaa !3108, !dbg !3062
	%676 = add i32  %665, 2, !dbg !3062
	%677 = mul i32  %676, 4, !dbg !3062
	store i32  %677, i32* %.r1.0436.addr, align 4, !tbaa !3108, !dbg !3062
	br label %L.B0028
L.B0028:
	%678 = load %struct._ZN5vmesh12VelocityMeshIjjEE*, %struct._ZN5vmesh12VelocityMeshIjjEE** %vmesh.addr, align 8, !tbaa !3105, !dbg !3064
	%679 = load i32*, i32** %blocks.addr, align 8, !tbaa !3105, !dbg !3064
	%680 = bitcast i32*  %679 to i8*, !dbg !3064
	%681 = load i32, i32* %block_k.addr.1, align 4, !tbaa !3108, !dbg !3064
	%682 = zext i32  %681 to i64, !dbg !3064
	%683 = mul i64  %682, 4, !dbg !3064
	%684 = getelementptr i8, i8*  %680, i64  %683, !dbg !3064
	%685 = bitcast i8*  %684 to i32*, !dbg !3064
	%686 = call i32  @_ZNK5vmesh12VelocityMeshIjjE10getLocalIDERKj (%struct._ZN5vmesh12VelocityMeshIjjEE*  %678, i32*  %685), !dbg !3064
	store i32  %686, i32* %.Q0001.addr, align 4, !tbaa !3108, !dbg !3064
	%687 = load %struct._ZN5vmesh22VelocityBlockContainerIjEE*, %struct._ZN5vmesh22VelocityBlockContainerIjEE** %blockContainer.addr, align 8, !tbaa !3105, !dbg !3043
	%688 = bitcast %struct._ZN5vmesh22VelocityBlockContainerIjEE*  %687 to i8**, !dbg !3043
	%689 = load i8*, i8**  %688, align 8, !tbaa !3105, !dbg !3043
	%690 = mul i32  %686, 64, !dbg !3043
	%691 = zext i32  %690 to i64, !dbg !3043
	%692 = mul i64  %691, 4, !dbg !3043
	%693 = getelementptr i8, i8*  %689, i64  %692, !dbg !3043
	call void @llvm.dbg.declare (metadata float** %data.addr.1, metadata !3065, metadata !3019), !dbg !2705
	%694 = bitcast float** %data.addr.1 to i8**, !dbg !3043
	store i8*  %693, i8**  %694, align 8, !tbaa !3105, !dbg !3043
	%695 = load float*, float** %data.addr.1, align 8, !tbaa !3105, !dbg !3066
	%696 = bitcast float*  %695 to i8*, !dbg !3066
	%697 = getelementptr i8, i8*  %696, i64 4, !dbg !3066
	%698 = bitcast i8*  %697 to float*, !dbg !3066
	%699 = load float, float*  %698, align 4, !tbaa !3106, !dbg !3066
	%700 = getelementptr i8, i8*  %696, i64 8, !dbg !3066
	%701 = bitcast i8*  %700 to float*, !dbg !3066
	%702 = load float, float*  %701, align 4, !tbaa !3106, !dbg !3066
	%703 = getelementptr i8, i8*  %696, i64 12, !dbg !3066
	%704 = bitcast i8*  %703 to float*, !dbg !3066
	%705 = load float, float*  %704, align 4, !tbaa !3106, !dbg !3066
	%706 = getelementptr i8, i8*  %696, i64 64, !dbg !3066
	%707 = bitcast i8*  %706 to float*, !dbg !3066
	%708 = load float, float*  %707, align 4, !tbaa !3106, !dbg !3066
	%709 = getelementptr i8, i8*  %696, i64 68, !dbg !3066
	%710 = bitcast i8*  %709 to float*, !dbg !3066
	%711 = load float, float*  %710, align 4, !tbaa !3106, !dbg !3066
	%712 = getelementptr i8, i8*  %696, i64 72, !dbg !3066
	%713 = bitcast i8*  %712 to float*, !dbg !3066
	%714 = load float, float*  %713, align 4, !tbaa !3106, !dbg !3066
	%715 = getelementptr i8, i8*  %696, i64 76, !dbg !3066
	%716 = bitcast i8*  %715 to float*, !dbg !3066
	%717 = load float, float*  %716, align 4, !tbaa !3106, !dbg !3066
	%718 = load i32, i32* %.Q0001.addr, align 4, !tbaa !3108, !dbg !3066
	%719 = mul i32  %718, 64, !dbg !3066
	%720 = zext i32  %719 to i64, !dbg !3066
	%721 = load %struct._ZN5vmesh22VelocityBlockContainerIjEE*, %struct._ZN5vmesh22VelocityBlockContainerIjEE** %blockContainer.addr, align 8, !tbaa !3105, !dbg !3066
	%722 = bitcast %struct._ZN5vmesh22VelocityBlockContainerIjEE*  %721 to float**, !dbg !3066
	%723 = load float*, float**  %722, align 8, !tbaa !3105, !dbg !3066
	%724 = getelementptr float, float*  %723, i64  %720, !dbg !3066
	%725 = load float, float*  %724, align 4, !tbaa !3106, !dbg !3066
	%726 = bitcast %struct._Z10Vec8SimpleIfE* %_T43516416_18870.addr to float*, !dbg !3066
	store float  %725, float*  %726, align 4, !tbaa !3106, !dbg !3066
	%727 = bitcast %struct._Z10Vec8SimpleIfE* %_T43516416_18870.addr to i8*, !dbg !3046
	%728 = getelementptr i8, i8*  %727, i64 4, !dbg !3046
	%729 = bitcast i8*  %728 to float*, !dbg !3046
	store float  %699, float*  %729, align 4, !tbaa !3106, !dbg !3046
	%730 = getelementptr i8, i8*  %727, i64 8, !dbg !3047
	%731 = bitcast i8*  %730 to float*, !dbg !3047
	store float  %702, float*  %731, align 4, !tbaa !3106, !dbg !3047
	%732 = getelementptr i8, i8*  %727, i64 12, !dbg !3048
	%733 = bitcast i8*  %732 to float*, !dbg !3048
	store float  %705, float*  %733, align 4, !tbaa !3106, !dbg !3048
	%734 = getelementptr i8, i8*  %727, i64 16, !dbg !3049
	%735 = bitcast i8*  %734 to float*, !dbg !3049
	store float  %708, float*  %735, align 4, !tbaa !3106, !dbg !3049
	%736 = getelementptr i8, i8*  %727, i64 20, !dbg !3050
	%737 = bitcast i8*  %736 to float*, !dbg !3050
	store float  %711, float*  %737, align 4, !tbaa !3106, !dbg !3050
	%738 = getelementptr i8, i8*  %727, i64 24, !dbg !3051
	%739 = bitcast i8*  %738 to float*, !dbg !3051
	store float  %714, float*  %739, align 4, !tbaa !3106, !dbg !3051
	%740 = getelementptr i8, i8*  %727, i64 28, !dbg !3052
	%741 = bitcast i8*  %740 to float*, !dbg !3052
	store float  %717, float*  %741, align 4, !tbaa !3106, !dbg !3052
	%742 = load %struct._Z10Vec8SimpleIfE*, %struct._Z10Vec8SimpleIfE** %values.addr, align 8, !tbaa !3105, !dbg !3066
	%743 = bitcast %struct._Z10Vec8SimpleIfE*  %742 to i8*, !dbg !3066
	%744 = load i32, i32* %block_k.addr.1, align 4, !tbaa !3108, !dbg !3066
	%745 = add i32  %744, 1, !dbg !3066
	%746 = mul i32  %745, 4, !dbg !3066
	%747 = zext i32  %746 to i64, !dbg !3066
	%748 = mul i64  %747, 32, !dbg !3066
	%749 = getelementptr i8, i8*  %743, i64  %748, !dbg !3066
	%750 = bitcast %struct._Z10Vec8SimpleIfE** %..inline.addr.1010 to i8**, !dbg !3066
	store i8*  %749, i8**  %750, align 8, !tbaa !3105, !dbg !3066
	%751 = load float, float*  %726, align 4, !tbaa !3106, !dbg !3036
	%752 = load %struct._Z10Vec8SimpleIfE*, %struct._Z10Vec8SimpleIfE** %..inline.addr.1010, align 8, !tbaa !3105, !dbg !3036
	%753 = bitcast %struct._Z10Vec8SimpleIfE*  %752 to float*, !dbg !3036
	store float  %751, float*  %753, align 4, !tbaa !3106, !dbg !3036
	%754 = load float, float*  %729, align 4, !tbaa !3106, !dbg !3036
	%755 = bitcast %struct._Z10Vec8SimpleIfE*  %752 to i8*, !dbg !3036
	%756 = getelementptr i8, i8*  %755, i64 4, !dbg !3036
	%757 = bitcast i8*  %756 to float*, !dbg !3036
	store float  %754, float*  %757, align 4, !tbaa !3106, !dbg !3036
	%758 = load float, float*  %731, align 4, !tbaa !3106, !dbg !3036
	%759 = getelementptr i8, i8*  %755, i64 8, !dbg !3036
	%760 = bitcast i8*  %759 to float*, !dbg !3036
	store float  %758, float*  %760, align 4, !tbaa !3106, !dbg !3036
	%761 = load float, float*  %733, align 4, !tbaa !3106, !dbg !3036
	%762 = getelementptr i8, i8*  %755, i64 12, !dbg !3036
	%763 = bitcast i8*  %762 to float*, !dbg !3036
	store float  %761, float*  %763, align 4, !tbaa !3106, !dbg !3036
	%764 = load float, float*  %735, align 4, !tbaa !3106, !dbg !3036
	%765 = getelementptr i8, i8*  %755, i64 16, !dbg !3036
	%766 = bitcast i8*  %765 to float*, !dbg !3036
	store float  %764, float*  %766, align 4, !tbaa !3106, !dbg !3036
	%767 = load float, float*  %737, align 4, !tbaa !3106, !dbg !3036
	%768 = getelementptr i8, i8*  %755, i64 20, !dbg !3036
	%769 = bitcast i8*  %768 to float*, !dbg !3036
	store float  %767, float*  %769, align 4, !tbaa !3106, !dbg !3036
	%770 = load float, float*  %739, align 4, !tbaa !3106, !dbg !3036
	%771 = getelementptr i8, i8*  %755, i64 24, !dbg !3036
	%772 = bitcast i8*  %771 to float*, !dbg !3036
	store float  %770, float*  %772, align 4, !tbaa !3106, !dbg !3036
	%773 = load float, float*  %741, align 4, !tbaa !3106, !dbg !3036
	%774 = getelementptr i8, i8*  %755, i64 28, !dbg !3036
	%775 = bitcast i8*  %774 to float*, !dbg !3036
	store float  %773, float*  %775, align 4, !tbaa !3106, !dbg !3036
	%776 = getelementptr i8, i8*  %696, i64 132, !dbg !3067
	%777 = bitcast i8*  %776 to float*, !dbg !3067
	%778 = load float, float*  %777, align 4, !tbaa !3106, !dbg !3067
	%779 = getelementptr i8, i8*  %696, i64 136, !dbg !3067
	%780 = bitcast i8*  %779 to float*, !dbg !3067
	%781 = load float, float*  %780, align 4, !tbaa !3106, !dbg !3067
	%782 = getelementptr i8, i8*  %696, i64 140, !dbg !3067
	%783 = bitcast i8*  %782 to float*, !dbg !3067
	%784 = load float, float*  %783, align 4, !tbaa !3106, !dbg !3067
	%785 = getelementptr i8, i8*  %696, i64 192, !dbg !3067
	%786 = bitcast i8*  %785 to float*, !dbg !3067
	%787 = load float, float*  %786, align 4, !tbaa !3106, !dbg !3067
	%788 = getelementptr i8, i8*  %696, i64 196, !dbg !3067
	%789 = bitcast i8*  %788 to float*, !dbg !3067
	%790 = load float, float*  %789, align 4, !tbaa !3106, !dbg !3067
	%791 = getelementptr i8, i8*  %696, i64 200, !dbg !3067
	%792 = bitcast i8*  %791 to float*, !dbg !3067
	%793 = load float, float*  %792, align 4, !tbaa !3106, !dbg !3067
	%794 = getelementptr i8, i8*  %696, i64 204, !dbg !3067
	%795 = bitcast i8*  %794 to float*, !dbg !3067
	%796 = load float, float*  %795, align 4, !tbaa !3106, !dbg !3067
	%797 = getelementptr i8, i8*  %696, i64 128, !dbg !3067
	%798 = bitcast i8*  %797 to float*, !dbg !3067
	%799 = load float, float*  %798, align 4, !tbaa !3106, !dbg !3067
	store float  %799, float*  %726, align 4, !tbaa !3106, !dbg !3067
	store float  %778, float*  %729, align 4, !tbaa !3106, !dbg !3046
	store float  %781, float*  %731, align 4, !tbaa !3106, !dbg !3047
	store float  %784, float*  %733, align 4, !tbaa !3106, !dbg !3048
	store float  %787, float*  %735, align 4, !tbaa !3106, !dbg !3049
	store float  %790, float*  %737, align 4, !tbaa !3106, !dbg !3050
	store float  %793, float*  %739, align 4, !tbaa !3106, !dbg !3051
	store float  %796, float*  %741, align 4, !tbaa !3106, !dbg !3052
	%800 = add i32  %744, 1, !dbg !3067
	%801 = mul i32  %800, 4, !dbg !3067
	%802 = load i32, i32* %.r1.0436.addr, align 4, !tbaa !3108, !dbg !3067
	%803 = add i32  %801,  %802, !dbg !3067
	%804 = zext i32  %803 to i64, !dbg !3067
	%805 = mul i64  %804, 32, !dbg !3067
	%806 = getelementptr i8, i8*  %743, i64  %805, !dbg !3067
	%807 = bitcast %struct._Z10Vec8SimpleIfE** %..inline.addr.1090 to i8**, !dbg !3067
	store i8*  %806, i8**  %807, align 8, !tbaa !3105, !dbg !3067
	%808 = load float, float*  %726, align 4, !tbaa !3106, !dbg !3036
	%809 = load %struct._Z10Vec8SimpleIfE*, %struct._Z10Vec8SimpleIfE** %..inline.addr.1090, align 8, !tbaa !3105, !dbg !3036
	%810 = bitcast %struct._Z10Vec8SimpleIfE*  %809 to float*, !dbg !3036
	store float  %808, float*  %810, align 4, !tbaa !3106, !dbg !3036
	%811 = load float, float*  %729, align 4, !tbaa !3106, !dbg !3036
	%812 = bitcast %struct._Z10Vec8SimpleIfE*  %809 to i8*, !dbg !3036
	%813 = getelementptr i8, i8*  %812, i64 4, !dbg !3036
	%814 = bitcast i8*  %813 to float*, !dbg !3036
	store float  %811, float*  %814, align 4, !tbaa !3106, !dbg !3036
	%815 = load float, float*  %731, align 4, !tbaa !3106, !dbg !3036
	%816 = getelementptr i8, i8*  %812, i64 8, !dbg !3036
	%817 = bitcast i8*  %816 to float*, !dbg !3036
	store float  %815, float*  %817, align 4, !tbaa !3106, !dbg !3036
	%818 = load float, float*  %733, align 4, !tbaa !3106, !dbg !3036
	%819 = getelementptr i8, i8*  %812, i64 12, !dbg !3036
	%820 = bitcast i8*  %819 to float*, !dbg !3036
	store float  %818, float*  %820, align 4, !tbaa !3106, !dbg !3036
	%821 = load float, float*  %735, align 4, !tbaa !3106, !dbg !3036
	%822 = getelementptr i8, i8*  %812, i64 16, !dbg !3036
	%823 = bitcast i8*  %822 to float*, !dbg !3036
	store float  %821, float*  %823, align 4, !tbaa !3106, !dbg !3036
	%824 = load float, float*  %737, align 4, !tbaa !3106, !dbg !3036
	%825 = getelementptr i8, i8*  %812, i64 20, !dbg !3036
	%826 = bitcast i8*  %825 to float*, !dbg !3036
	store float  %824, float*  %826, align 4, !tbaa !3106, !dbg !3036
	%827 = load float, float*  %739, align 4, !tbaa !3106, !dbg !3036
	%828 = getelementptr i8, i8*  %812, i64 24, !dbg !3036
	%829 = bitcast i8*  %828 to float*, !dbg !3036
	store float  %827, float*  %829, align 4, !tbaa !3106, !dbg !3036
	%830 = load float, float*  %741, align 4, !tbaa !3106, !dbg !3036
	%831 = getelementptr i8, i8*  %812, i64 28, !dbg !3036
	%832 = bitcast i8*  %831 to float*, !dbg !3036
	store float  %830, float*  %832, align 4, !tbaa !3106, !dbg !3036
	%833 = getelementptr i8, i8*  %696, i64 20, !dbg !3068
	%834 = bitcast i8*  %833 to float*, !dbg !3068
	%835 = load float, float*  %834, align 4, !tbaa !3106, !dbg !3068
	%836 = getelementptr i8, i8*  %696, i64 24, !dbg !3068
	%837 = bitcast i8*  %836 to float*, !dbg !3068
	%838 = load float, float*  %837, align 4, !tbaa !3106, !dbg !3068
	%839 = getelementptr i8, i8*  %696, i64 28, !dbg !3068
	%840 = bitcast i8*  %839 to float*, !dbg !3068
	%841 = load float, float*  %840, align 4, !tbaa !3106, !dbg !3068
	%842 = getelementptr i8, i8*  %696, i64 80, !dbg !3068
	%843 = bitcast i8*  %842 to float*, !dbg !3068
	%844 = load float, float*  %843, align 4, !tbaa !3106, !dbg !3068
	%845 = getelementptr i8, i8*  %696, i64 84, !dbg !3068
	%846 = bitcast i8*  %845 to float*, !dbg !3068
	%847 = load float, float*  %846, align 4, !tbaa !3106, !dbg !3068
	%848 = getelementptr i8, i8*  %696, i64 88, !dbg !3068
	%849 = bitcast i8*  %848 to float*, !dbg !3068
	%850 = load float, float*  %849, align 4, !tbaa !3106, !dbg !3068
	%851 = getelementptr i8, i8*  %696, i64 92, !dbg !3068
	%852 = bitcast i8*  %851 to float*, !dbg !3068
	%853 = load float, float*  %852, align 4, !tbaa !3106, !dbg !3068
	%854 = getelementptr i8, i8*  %696, i64 16, !dbg !3068
	%855 = bitcast i8*  %854 to float*, !dbg !3068
	%856 = load float, float*  %855, align 4, !tbaa !3106, !dbg !3068
	store float  %856, float*  %726, align 4, !tbaa !3106, !dbg !3068
	store float  %835, float*  %729, align 4, !tbaa !3106, !dbg !3046
	store float  %838, float*  %731, align 4, !tbaa !3106, !dbg !3047
	store float  %841, float*  %733, align 4, !tbaa !3106, !dbg !3048
	store float  %844, float*  %735, align 4, !tbaa !3106, !dbg !3049
	store float  %847, float*  %737, align 4, !tbaa !3106, !dbg !3050
	store float  %850, float*  %739, align 4, !tbaa !3106, !dbg !3051
	store float  %853, float*  %741, align 4, !tbaa !3106, !dbg !3052
	%857 = add i32  %744, 1, !dbg !3068
	%858 = mul i32  %857, 4, !dbg !3068
	%859 = add i32  %858, 1, !dbg !3068
	%860 = zext i32  %859 to i64, !dbg !3068
	%861 = mul i64  %860, 32, !dbg !3068
	%862 = getelementptr i8, i8*  %743, i64  %861, !dbg !3068
	%863 = bitcast %struct._Z10Vec8SimpleIfE** %..inline.addr.1170 to i8**, !dbg !3068
	store i8*  %862, i8**  %863, align 8, !tbaa !3105, !dbg !3068
	%864 = load float, float*  %726, align 4, !tbaa !3106, !dbg !3036
	%865 = load %struct._Z10Vec8SimpleIfE*, %struct._Z10Vec8SimpleIfE** %..inline.addr.1170, align 8, !tbaa !3105, !dbg !3036
	%866 = bitcast %struct._Z10Vec8SimpleIfE*  %865 to float*, !dbg !3036
	store float  %864, float*  %866, align 4, !tbaa !3106, !dbg !3036
	%867 = load float, float*  %729, align 4, !tbaa !3106, !dbg !3036
	%868 = bitcast %struct._Z10Vec8SimpleIfE*  %865 to i8*, !dbg !3036
	%869 = getelementptr i8, i8*  %868, i64 4, !dbg !3036
	%870 = bitcast i8*  %869 to float*, !dbg !3036
	store float  %867, float*  %870, align 4, !tbaa !3106, !dbg !3036
	%871 = load float, float*  %731, align 4, !tbaa !3106, !dbg !3036
	%872 = getelementptr i8, i8*  %868, i64 8, !dbg !3036
	%873 = bitcast i8*  %872 to float*, !dbg !3036
	store float  %871, float*  %873, align 4, !tbaa !3106, !dbg !3036
	%874 = load float, float*  %733, align 4, !tbaa !3106, !dbg !3036
	%875 = getelementptr i8, i8*  %868, i64 12, !dbg !3036
	%876 = bitcast i8*  %875 to float*, !dbg !3036
	store float  %874, float*  %876, align 4, !tbaa !3106, !dbg !3036
	%877 = load float, float*  %735, align 4, !tbaa !3106, !dbg !3036
	%878 = getelementptr i8, i8*  %868, i64 16, !dbg !3036
	%879 = bitcast i8*  %878 to float*, !dbg !3036
	store float  %877, float*  %879, align 4, !tbaa !3106, !dbg !3036
	%880 = load float, float*  %737, align 4, !tbaa !3106, !dbg !3036
	%881 = getelementptr i8, i8*  %868, i64 20, !dbg !3036
	%882 = bitcast i8*  %881 to float*, !dbg !3036
	store float  %880, float*  %882, align 4, !tbaa !3106, !dbg !3036
	%883 = load float, float*  %739, align 4, !tbaa !3106, !dbg !3036
	%884 = getelementptr i8, i8*  %868, i64 24, !dbg !3036
	%885 = bitcast i8*  %884 to float*, !dbg !3036
	store float  %883, float*  %885, align 4, !tbaa !3106, !dbg !3036
	%886 = load float, float*  %741, align 4, !tbaa !3106, !dbg !3036
	%887 = getelementptr i8, i8*  %868, i64 28, !dbg !3036
	%888 = bitcast i8*  %887 to float*, !dbg !3036
	store float  %886, float*  %888, align 4, !tbaa !3106, !dbg !3036
	%889 = getelementptr i8, i8*  %696, i64 148, !dbg !3069
	%890 = bitcast i8*  %889 to float*, !dbg !3069
	%891 = load float, float*  %890, align 4, !tbaa !3106, !dbg !3069
	%892 = getelementptr i8, i8*  %696, i64 152, !dbg !3069
	%893 = bitcast i8*  %892 to float*, !dbg !3069
	%894 = load float, float*  %893, align 4, !tbaa !3106, !dbg !3069
	%895 = getelementptr i8, i8*  %696, i64 156, !dbg !3069
	%896 = bitcast i8*  %895 to float*, !dbg !3069
	%897 = load float, float*  %896, align 4, !tbaa !3106, !dbg !3069
	%898 = getelementptr i8, i8*  %696, i64 208, !dbg !3069
	%899 = bitcast i8*  %898 to float*, !dbg !3069
	%900 = load float, float*  %899, align 4, !tbaa !3106, !dbg !3069
	%901 = getelementptr i8, i8*  %696, i64 212, !dbg !3069
	%902 = bitcast i8*  %901 to float*, !dbg !3069
	%903 = load float, float*  %902, align 4, !tbaa !3106, !dbg !3069
	%904 = getelementptr i8, i8*  %696, i64 216, !dbg !3069
	%905 = bitcast i8*  %904 to float*, !dbg !3069
	%906 = load float, float*  %905, align 4, !tbaa !3106, !dbg !3069
	%907 = getelementptr i8, i8*  %696, i64 220, !dbg !3069
	%908 = bitcast i8*  %907 to float*, !dbg !3069
	%909 = load float, float*  %908, align 4, !tbaa !3106, !dbg !3069
	%910 = getelementptr i8, i8*  %696, i64 144, !dbg !3069
	%911 = bitcast i8*  %910 to float*, !dbg !3069
	%912 = load float, float*  %911, align 4, !tbaa !3106, !dbg !3069
	store float  %912, float*  %726, align 4, !tbaa !3106, !dbg !3069
	store float  %891, float*  %729, align 4, !tbaa !3106, !dbg !3046
	store float  %894, float*  %731, align 4, !tbaa !3106, !dbg !3047
	store float  %897, float*  %733, align 4, !tbaa !3106, !dbg !3048
	store float  %900, float*  %735, align 4, !tbaa !3106, !dbg !3049
	store float  %903, float*  %737, align 4, !tbaa !3106, !dbg !3050
	store float  %906, float*  %739, align 4, !tbaa !3106, !dbg !3051
	store float  %909, float*  %741, align 4, !tbaa !3106, !dbg !3052
	%913 = add i32  %744, 1, !dbg !3069
	%914 = mul i32  %913, 4, !dbg !3069
	%915 = load i32, i32* %.r1.0653.addr, align 4, !tbaa !3108, !dbg !3069
	%916 = add i32  %914,  %915, !dbg !3069
	%917 = zext i32  %916 to i64, !dbg !3069
	%918 = mul i64  %917, 32, !dbg !3069
	%919 = getelementptr i8, i8*  %743, i64  %918, !dbg !3069
	%920 = bitcast %struct._Z10Vec8SimpleIfE** %..inline.addr.1250 to i8**, !dbg !3069
	store i8*  %919, i8**  %920, align 8, !tbaa !3105, !dbg !3069
	%921 = load float, float*  %726, align 4, !tbaa !3106, !dbg !3036
	%922 = load %struct._Z10Vec8SimpleIfE*, %struct._Z10Vec8SimpleIfE** %..inline.addr.1250, align 8, !tbaa !3105, !dbg !3036
	%923 = bitcast %struct._Z10Vec8SimpleIfE*  %922 to float*, !dbg !3036
	store float  %921, float*  %923, align 4, !tbaa !3106, !dbg !3036
	%924 = load float, float*  %729, align 4, !tbaa !3106, !dbg !3036
	%925 = bitcast %struct._Z10Vec8SimpleIfE*  %922 to i8*, !dbg !3036
	%926 = getelementptr i8, i8*  %925, i64 4, !dbg !3036
	%927 = bitcast i8*  %926 to float*, !dbg !3036
	store float  %924, float*  %927, align 4, !tbaa !3106, !dbg !3036
	%928 = load float, float*  %731, align 4, !tbaa !3106, !dbg !3036
	%929 = getelementptr i8, i8*  %925, i64 8, !dbg !3036
	%930 = bitcast i8*  %929 to float*, !dbg !3036
	store float  %928, float*  %930, align 4, !tbaa !3106, !dbg !3036
	%931 = load float, float*  %733, align 4, !tbaa !3106, !dbg !3036
	%932 = getelementptr i8, i8*  %925, i64 12, !dbg !3036
	%933 = bitcast i8*  %932 to float*, !dbg !3036
	store float  %931, float*  %933, align 4, !tbaa !3106, !dbg !3036
	%934 = load float, float*  %735, align 4, !tbaa !3106, !dbg !3036
	%935 = getelementptr i8, i8*  %925, i64 16, !dbg !3036
	%936 = bitcast i8*  %935 to float*, !dbg !3036
	store float  %934, float*  %936, align 4, !tbaa !3106, !dbg !3036
	%937 = load float, float*  %737, align 4, !tbaa !3106, !dbg !3036
	%938 = getelementptr i8, i8*  %925, i64 20, !dbg !3036
	%939 = bitcast i8*  %938 to float*, !dbg !3036
	store float  %937, float*  %939, align 4, !tbaa !3106, !dbg !3036
	%940 = load float, float*  %739, align 4, !tbaa !3106, !dbg !3036
	%941 = getelementptr i8, i8*  %925, i64 24, !dbg !3036
	%942 = bitcast i8*  %941 to float*, !dbg !3036
	store float  %940, float*  %942, align 4, !tbaa !3106, !dbg !3036
	%943 = load float, float*  %741, align 4, !tbaa !3106, !dbg !3036
	%944 = getelementptr i8, i8*  %925, i64 28, !dbg !3036
	%945 = bitcast i8*  %944 to float*, !dbg !3036
	store float  %943, float*  %945, align 4, !tbaa !3106, !dbg !3036
	%946 = getelementptr i8, i8*  %696, i64 36, !dbg !3070
	%947 = bitcast i8*  %946 to float*, !dbg !3070
	%948 = load float, float*  %947, align 4, !tbaa !3106, !dbg !3070
	%949 = getelementptr i8, i8*  %696, i64 40, !dbg !3070
	%950 = bitcast i8*  %949 to float*, !dbg !3070
	%951 = load float, float*  %950, align 4, !tbaa !3106, !dbg !3070
	%952 = getelementptr i8, i8*  %696, i64 44, !dbg !3070
	%953 = bitcast i8*  %952 to float*, !dbg !3070
	%954 = load float, float*  %953, align 4, !tbaa !3106, !dbg !3070
	%955 = getelementptr i8, i8*  %696, i64 96, !dbg !3070
	%956 = bitcast i8*  %955 to float*, !dbg !3070
	%957 = load float, float*  %956, align 4, !tbaa !3106, !dbg !3070
	%958 = getelementptr i8, i8*  %696, i64 100, !dbg !3070
	%959 = bitcast i8*  %958 to float*, !dbg !3070
	%960 = load float, float*  %959, align 4, !tbaa !3106, !dbg !3070
	%961 = getelementptr i8, i8*  %696, i64 104, !dbg !3070
	%962 = bitcast i8*  %961 to float*, !dbg !3070
	%963 = load float, float*  %962, align 4, !tbaa !3106, !dbg !3070
	%964 = getelementptr i8, i8*  %696, i64 108, !dbg !3070
	%965 = bitcast i8*  %964 to float*, !dbg !3070
	%966 = load float, float*  %965, align 4, !tbaa !3106, !dbg !3070
	%967 = getelementptr i8, i8*  %696, i64 32, !dbg !3070
	%968 = bitcast i8*  %967 to float*, !dbg !3070
	%969 = load float, float*  %968, align 4, !tbaa !3106, !dbg !3070
	store float  %969, float*  %726, align 4, !tbaa !3106, !dbg !3070
	store float  %948, float*  %729, align 4, !tbaa !3106, !dbg !3046
	store float  %951, float*  %731, align 4, !tbaa !3106, !dbg !3047
	store float  %954, float*  %733, align 4, !tbaa !3106, !dbg !3048
	store float  %957, float*  %735, align 4, !tbaa !3106, !dbg !3049
	store float  %960, float*  %737, align 4, !tbaa !3106, !dbg !3050
	store float  %963, float*  %739, align 4, !tbaa !3106, !dbg !3051
	store float  %966, float*  %741, align 4, !tbaa !3106, !dbg !3052
	%970 = add i32  %744, 1, !dbg !3070
	%971 = mul i32  %970, 4, !dbg !3070
	%972 = add i32  %971, 2, !dbg !3070
	%973 = zext i32  %972 to i64, !dbg !3070
	%974 = mul i64  %973, 32, !dbg !3070
	%975 = getelementptr i8, i8*  %743, i64  %974, !dbg !3070
	%976 = bitcast %struct._Z10Vec8SimpleIfE** %..inline.addr.1330 to i8**, !dbg !3070
	store i8*  %975, i8**  %976, align 8, !tbaa !3105, !dbg !3070
	%977 = load float, float*  %726, align 4, !tbaa !3106, !dbg !3036
	%978 = load %struct._Z10Vec8SimpleIfE*, %struct._Z10Vec8SimpleIfE** %..inline.addr.1330, align 8, !tbaa !3105, !dbg !3036
	%979 = bitcast %struct._Z10Vec8SimpleIfE*  %978 to float*, !dbg !3036
	store float  %977, float*  %979, align 4, !tbaa !3106, !dbg !3036
	%980 = load float, float*  %729, align 4, !tbaa !3106, !dbg !3036
	%981 = bitcast %struct._Z10Vec8SimpleIfE*  %978 to i8*, !dbg !3036
	%982 = getelementptr i8, i8*  %981, i64 4, !dbg !3036
	%983 = bitcast i8*  %982 to float*, !dbg !3036
	store float  %980, float*  %983, align 4, !tbaa !3106, !dbg !3036
	%984 = load float, float*  %731, align 4, !tbaa !3106, !dbg !3036
	%985 = getelementptr i8, i8*  %981, i64 8, !dbg !3036
	%986 = bitcast i8*  %985 to float*, !dbg !3036
	store float  %984, float*  %986, align 4, !tbaa !3106, !dbg !3036
	%987 = load float, float*  %733, align 4, !tbaa !3106, !dbg !3036
	%988 = getelementptr i8, i8*  %981, i64 12, !dbg !3036
	%989 = bitcast i8*  %988 to float*, !dbg !3036
	store float  %987, float*  %989, align 4, !tbaa !3106, !dbg !3036
	%990 = load float, float*  %735, align 4, !tbaa !3106, !dbg !3036
	%991 = getelementptr i8, i8*  %981, i64 16, !dbg !3036
	%992 = bitcast i8*  %991 to float*, !dbg !3036
	store float  %990, float*  %992, align 4, !tbaa !3106, !dbg !3036
	%993 = load float, float*  %737, align 4, !tbaa !3106, !dbg !3036
	%994 = getelementptr i8, i8*  %981, i64 20, !dbg !3036
	%995 = bitcast i8*  %994 to float*, !dbg !3036
	store float  %993, float*  %995, align 4, !tbaa !3106, !dbg !3036
	%996 = load float, float*  %739, align 4, !tbaa !3106, !dbg !3036
	%997 = getelementptr i8, i8*  %981, i64 24, !dbg !3036
	%998 = bitcast i8*  %997 to float*, !dbg !3036
	store float  %996, float*  %998, align 4, !tbaa !3106, !dbg !3036
	%999 = load float, float*  %741, align 4, !tbaa !3106, !dbg !3036
	%1000 = getelementptr i8, i8*  %981, i64 28, !dbg !3036
	%1001 = bitcast i8*  %1000 to float*, !dbg !3036
	store float  %999, float*  %1001, align 4, !tbaa !3106, !dbg !3036
	%1002 = getelementptr i8, i8*  %696, i64 164, !dbg !3071
	%1003 = bitcast i8*  %1002 to float*, !dbg !3071
	%1004 = load float, float*  %1003, align 4, !tbaa !3106, !dbg !3071
	%1005 = getelementptr i8, i8*  %696, i64 168, !dbg !3071
	%1006 = bitcast i8*  %1005 to float*, !dbg !3071
	%1007 = load float, float*  %1006, align 4, !tbaa !3106, !dbg !3071
	%1008 = getelementptr i8, i8*  %696, i64 172, !dbg !3071
	%1009 = bitcast i8*  %1008 to float*, !dbg !3071
	%1010 = load float, float*  %1009, align 4, !tbaa !3106, !dbg !3071
	%1011 = getelementptr i8, i8*  %696, i64 224, !dbg !3071
	%1012 = bitcast i8*  %1011 to float*, !dbg !3071
	%1013 = load float, float*  %1012, align 4, !tbaa !3106, !dbg !3071
	%1014 = getelementptr i8, i8*  %696, i64 228, !dbg !3071
	%1015 = bitcast i8*  %1014 to float*, !dbg !3071
	%1016 = load float, float*  %1015, align 4, !tbaa !3106, !dbg !3071
	%1017 = getelementptr i8, i8*  %696, i64 232, !dbg !3071
	%1018 = bitcast i8*  %1017 to float*, !dbg !3071
	%1019 = load float, float*  %1018, align 4, !tbaa !3106, !dbg !3071
	%1020 = getelementptr i8, i8*  %696, i64 236, !dbg !3071
	%1021 = bitcast i8*  %1020 to float*, !dbg !3071
	%1022 = load float, float*  %1021, align 4, !tbaa !3106, !dbg !3071
	%1023 = getelementptr i8, i8*  %696, i64 160, !dbg !3071
	%1024 = bitcast i8*  %1023 to float*, !dbg !3071
	%1025 = load float, float*  %1024, align 4, !tbaa !3106, !dbg !3071
	store float  %1025, float*  %726, align 4, !tbaa !3106, !dbg !3071
	store float  %1004, float*  %729, align 4, !tbaa !3106, !dbg !3046
	store float  %1007, float*  %731, align 4, !tbaa !3106, !dbg !3047
	store float  %1010, float*  %733, align 4, !tbaa !3106, !dbg !3048
	store float  %1013, float*  %735, align 4, !tbaa !3106, !dbg !3049
	store float  %1016, float*  %737, align 4, !tbaa !3106, !dbg !3050
	store float  %1019, float*  %739, align 4, !tbaa !3106, !dbg !3051
	store float  %1022, float*  %741, align 4, !tbaa !3106, !dbg !3052
	%1026 = add i32  %744, 1, !dbg !3071
	%1027 = mul i32  %1026, 4, !dbg !3071
	%1028 = load i32, i32* %.r1.0870.addr, align 4, !tbaa !3108, !dbg !3071
	%1029 = add i32  %1027,  %1028, !dbg !3071
	%1030 = zext i32  %1029 to i64, !dbg !3071
	%1031 = mul i64  %1030, 32, !dbg !3071
	%1032 = getelementptr i8, i8*  %743, i64  %1031, !dbg !3071
	%1033 = bitcast %struct._Z10Vec8SimpleIfE** %..inline.addr.1410 to i8**, !dbg !3071
	store i8*  %1032, i8**  %1033, align 8, !tbaa !3105, !dbg !3071
	%1034 = load float, float*  %726, align 4, !tbaa !3106, !dbg !3036
	%1035 = load %struct._Z10Vec8SimpleIfE*, %struct._Z10Vec8SimpleIfE** %..inline.addr.1410, align 8, !tbaa !3105, !dbg !3036
	%1036 = bitcast %struct._Z10Vec8SimpleIfE*  %1035 to float*, !dbg !3036
	store float  %1034, float*  %1036, align 4, !tbaa !3106, !dbg !3036
	%1037 = load float, float*  %729, align 4, !tbaa !3106, !dbg !3036
	%1038 = bitcast %struct._Z10Vec8SimpleIfE*  %1035 to i8*, !dbg !3036
	%1039 = getelementptr i8, i8*  %1038, i64 4, !dbg !3036
	%1040 = bitcast i8*  %1039 to float*, !dbg !3036
	store float  %1037, float*  %1040, align 4, !tbaa !3106, !dbg !3036
	%1041 = load float, float*  %731, align 4, !tbaa !3106, !dbg !3036
	%1042 = getelementptr i8, i8*  %1038, i64 8, !dbg !3036
	%1043 = bitcast i8*  %1042 to float*, !dbg !3036
	store float  %1041, float*  %1043, align 4, !tbaa !3106, !dbg !3036
	%1044 = load float, float*  %733, align 4, !tbaa !3106, !dbg !3036
	%1045 = getelementptr i8, i8*  %1038, i64 12, !dbg !3036
	%1046 = bitcast i8*  %1045 to float*, !dbg !3036
	store float  %1044, float*  %1046, align 4, !tbaa !3106, !dbg !3036
	%1047 = load float, float*  %735, align 4, !tbaa !3106, !dbg !3036
	%1048 = getelementptr i8, i8*  %1038, i64 16, !dbg !3036
	%1049 = bitcast i8*  %1048 to float*, !dbg !3036
	store float  %1047, float*  %1049, align 4, !tbaa !3106, !dbg !3036
	%1050 = load float, float*  %737, align 4, !tbaa !3106, !dbg !3036
	%1051 = getelementptr i8, i8*  %1038, i64 20, !dbg !3036
	%1052 = bitcast i8*  %1051 to float*, !dbg !3036
	store float  %1050, float*  %1052, align 4, !tbaa !3106, !dbg !3036
	%1053 = load float, float*  %739, align 4, !tbaa !3106, !dbg !3036
	%1054 = getelementptr i8, i8*  %1038, i64 24, !dbg !3036
	%1055 = bitcast i8*  %1054 to float*, !dbg !3036
	store float  %1053, float*  %1055, align 4, !tbaa !3106, !dbg !3036
	%1056 = load float, float*  %741, align 4, !tbaa !3106, !dbg !3036
	%1057 = getelementptr i8, i8*  %1038, i64 28, !dbg !3036
	%1058 = bitcast i8*  %1057 to float*, !dbg !3036
	store float  %1056, float*  %1058, align 4, !tbaa !3106, !dbg !3036
	%1059 = getelementptr i8, i8*  %696, i64 52, !dbg !3072
	%1060 = bitcast i8*  %1059 to float*, !dbg !3072
	%1061 = load float, float*  %1060, align 4, !tbaa !3106, !dbg !3072
	%1062 = getelementptr i8, i8*  %696, i64 56, !dbg !3072
	%1063 = bitcast i8*  %1062 to float*, !dbg !3072
	%1064 = load float, float*  %1063, align 4, !tbaa !3106, !dbg !3072
	%1065 = getelementptr i8, i8*  %696, i64 60, !dbg !3072
	%1066 = bitcast i8*  %1065 to float*, !dbg !3072
	%1067 = load float, float*  %1066, align 4, !tbaa !3106, !dbg !3072
	%1068 = getelementptr i8, i8*  %696, i64 112, !dbg !3072
	%1069 = bitcast i8*  %1068 to float*, !dbg !3072
	%1070 = load float, float*  %1069, align 4, !tbaa !3106, !dbg !3072
	%1071 = getelementptr i8, i8*  %696, i64 116, !dbg !3072
	%1072 = bitcast i8*  %1071 to float*, !dbg !3072
	%1073 = load float, float*  %1072, align 4, !tbaa !3106, !dbg !3072
	%1074 = getelementptr i8, i8*  %696, i64 120, !dbg !3072
	%1075 = bitcast i8*  %1074 to float*, !dbg !3072
	%1076 = load float, float*  %1075, align 4, !tbaa !3106, !dbg !3072
	%1077 = getelementptr i8, i8*  %696, i64 124, !dbg !3072
	%1078 = bitcast i8*  %1077 to float*, !dbg !3072
	%1079 = load float, float*  %1078, align 4, !tbaa !3106, !dbg !3072
	%1080 = getelementptr i8, i8*  %696, i64 48, !dbg !3072
	%1081 = bitcast i8*  %1080 to float*, !dbg !3072
	%1082 = load float, float*  %1081, align 4, !tbaa !3106, !dbg !3072
	store float  %1082, float*  %726, align 4, !tbaa !3106, !dbg !3072
	store float  %1061, float*  %729, align 4, !tbaa !3106, !dbg !3046
	store float  %1064, float*  %731, align 4, !tbaa !3106, !dbg !3047
	store float  %1067, float*  %733, align 4, !tbaa !3106, !dbg !3048
	store float  %1070, float*  %735, align 4, !tbaa !3106, !dbg !3049
	store float  %1073, float*  %737, align 4, !tbaa !3106, !dbg !3050
	store float  %1076, float*  %739, align 4, !tbaa !3106, !dbg !3051
	store float  %1079, float*  %741, align 4, !tbaa !3106, !dbg !3052
	%1083 = add i32  %744, 1, !dbg !3072
	%1084 = mul i32  %1083, 4, !dbg !3072
	%1085 = add i32  %1084, 3, !dbg !3072
	%1086 = zext i32  %1085 to i64, !dbg !3072
	%1087 = mul i64  %1086, 32, !dbg !3072
	%1088 = getelementptr i8, i8*  %743, i64  %1087, !dbg !3072
	%1089 = bitcast %struct._Z10Vec8SimpleIfE** %..inline.addr.1490 to i8**, !dbg !3072
	store i8*  %1088, i8**  %1089, align 8, !tbaa !3105, !dbg !3072
	%1090 = load float, float*  %726, align 4, !tbaa !3106, !dbg !3036
	%1091 = load %struct._Z10Vec8SimpleIfE*, %struct._Z10Vec8SimpleIfE** %..inline.addr.1490, align 8, !tbaa !3105, !dbg !3036
	%1092 = bitcast %struct._Z10Vec8SimpleIfE*  %1091 to float*, !dbg !3036
	store float  %1090, float*  %1092, align 4, !tbaa !3106, !dbg !3036
	%1093 = load float, float*  %729, align 4, !tbaa !3106, !dbg !3036
	%1094 = bitcast %struct._Z10Vec8SimpleIfE*  %1091 to i8*, !dbg !3036
	%1095 = getelementptr i8, i8*  %1094, i64 4, !dbg !3036
	%1096 = bitcast i8*  %1095 to float*, !dbg !3036
	store float  %1093, float*  %1096, align 4, !tbaa !3106, !dbg !3036
	%1097 = load float, float*  %731, align 4, !tbaa !3106, !dbg !3036
	%1098 = getelementptr i8, i8*  %1094, i64 8, !dbg !3036
	%1099 = bitcast i8*  %1098 to float*, !dbg !3036
	store float  %1097, float*  %1099, align 4, !tbaa !3106, !dbg !3036
	%1100 = load float, float*  %733, align 4, !tbaa !3106, !dbg !3036
	%1101 = getelementptr i8, i8*  %1094, i64 12, !dbg !3036
	%1102 = bitcast i8*  %1101 to float*, !dbg !3036
	store float  %1100, float*  %1102, align 4, !tbaa !3106, !dbg !3036
	%1103 = load float, float*  %735, align 4, !tbaa !3106, !dbg !3036
	%1104 = getelementptr i8, i8*  %1094, i64 16, !dbg !3036
	%1105 = bitcast i8*  %1104 to float*, !dbg !3036
	store float  %1103, float*  %1105, align 4, !tbaa !3106, !dbg !3036
	%1106 = load float, float*  %737, align 4, !tbaa !3106, !dbg !3036
	%1107 = getelementptr i8, i8*  %1094, i64 20, !dbg !3036
	%1108 = bitcast i8*  %1107 to float*, !dbg !3036
	store float  %1106, float*  %1108, align 4, !tbaa !3106, !dbg !3036
	%1109 = load float, float*  %739, align 4, !tbaa !3106, !dbg !3036
	%1110 = getelementptr i8, i8*  %1094, i64 24, !dbg !3036
	%1111 = bitcast i8*  %1110 to float*, !dbg !3036
	store float  %1109, float*  %1111, align 4, !tbaa !3106, !dbg !3036
	%1112 = load float, float*  %741, align 4, !tbaa !3106, !dbg !3036
	%1113 = getelementptr i8, i8*  %1094, i64 28, !dbg !3036
	%1114 = bitcast i8*  %1113 to float*, !dbg !3036
	store float  %1112, float*  %1114, align 4, !tbaa !3106, !dbg !3036
	%1115 = getelementptr i8, i8*  %696, i64 180, !dbg !3073
	%1116 = bitcast i8*  %1115 to float*, !dbg !3073
	%1117 = load float, float*  %1116, align 4, !tbaa !3106, !dbg !3073
	%1118 = getelementptr i8, i8*  %696, i64 184, !dbg !3073
	%1119 = bitcast i8*  %1118 to float*, !dbg !3073
	%1120 = load float, float*  %1119, align 4, !tbaa !3106, !dbg !3073
	%1121 = getelementptr i8, i8*  %696, i64 188, !dbg !3073
	%1122 = bitcast i8*  %1121 to float*, !dbg !3073
	%1123 = load float, float*  %1122, align 4, !tbaa !3106, !dbg !3073
	%1124 = getelementptr i8, i8*  %696, i64 240, !dbg !3073
	%1125 = bitcast i8*  %1124 to float*, !dbg !3073
	%1126 = load float, float*  %1125, align 4, !tbaa !3106, !dbg !3073
	%1127 = getelementptr i8, i8*  %696, i64 244, !dbg !3073
	%1128 = bitcast i8*  %1127 to float*, !dbg !3073
	%1129 = load float, float*  %1128, align 4, !tbaa !3106, !dbg !3073
	%1130 = getelementptr i8, i8*  %696, i64 248, !dbg !3073
	%1131 = bitcast i8*  %1130 to float*, !dbg !3073
	%1132 = load float, float*  %1131, align 4, !tbaa !3106, !dbg !3073
	%1133 = getelementptr i8, i8*  %696, i64 252, !dbg !3073
	%1134 = bitcast i8*  %1133 to float*, !dbg !3073
	%1135 = load float, float*  %1134, align 4, !tbaa !3106, !dbg !3073
	%1136 = getelementptr i8, i8*  %696, i64 176, !dbg !3073
	%1137 = bitcast i8*  %1136 to float*, !dbg !3073
	%1138 = load float, float*  %1137, align 4, !tbaa !3106, !dbg !3073
	store float  %1138, float*  %726, align 4, !tbaa !3106, !dbg !3073
	store float  %1117, float*  %729, align 4, !tbaa !3106, !dbg !3046
	store float  %1120, float*  %731, align 4, !tbaa !3106, !dbg !3047
	store float  %1123, float*  %733, align 4, !tbaa !3106, !dbg !3048
	store float  %1126, float*  %735, align 4, !tbaa !3106, !dbg !3049
	store float  %1129, float*  %737, align 4, !tbaa !3106, !dbg !3050
	store float  %1132, float*  %739, align 4, !tbaa !3106, !dbg !3051
	store float  %1135, float*  %741, align 4, !tbaa !3106, !dbg !3052
	%1139 = add i32  %744, 1, !dbg !3073
	%1140 = mul i32  %1139, 4, !dbg !3073
	%1141 = load i32, i32* %.r1.1087.addr, align 4, !tbaa !3108, !dbg !3073
	%1142 = add i32  %1140,  %1141, !dbg !3073
	%1143 = zext i32  %1142 to i64, !dbg !3073
	%1144 = mul i64  %1143, 32, !dbg !3073
	%1145 = getelementptr i8, i8*  %743, i64  %1144, !dbg !3073
	%1146 = bitcast %struct._Z10Vec8SimpleIfE** %..inline.addr.1570 to i8**, !dbg !3073
	store i8*  %1145, i8**  %1146, align 8, !tbaa !3105, !dbg !3073
	%1147 = load float, float*  %726, align 4, !tbaa !3106, !dbg !3036
	%1148 = load %struct._Z10Vec8SimpleIfE*, %struct._Z10Vec8SimpleIfE** %..inline.addr.1570, align 8, !tbaa !3105, !dbg !3036
	%1149 = bitcast %struct._Z10Vec8SimpleIfE*  %1148 to float*, !dbg !3036
	store float  %1147, float*  %1149, align 4, !tbaa !3106, !dbg !3036
	%1150 = load float, float*  %729, align 4, !tbaa !3106, !dbg !3036
	%1151 = bitcast %struct._Z10Vec8SimpleIfE*  %1148 to i8*, !dbg !3036
	%1152 = getelementptr i8, i8*  %1151, i64 4, !dbg !3036
	%1153 = bitcast i8*  %1152 to float*, !dbg !3036
	store float  %1150, float*  %1153, align 4, !tbaa !3106, !dbg !3036
	%1154 = load float, float*  %731, align 4, !tbaa !3106, !dbg !3036
	%1155 = getelementptr i8, i8*  %1151, i64 8, !dbg !3036
	%1156 = bitcast i8*  %1155 to float*, !dbg !3036
	store float  %1154, float*  %1156, align 4, !tbaa !3106, !dbg !3036
	%1157 = load float, float*  %733, align 4, !tbaa !3106, !dbg !3036
	%1158 = getelementptr i8, i8*  %1151, i64 12, !dbg !3036
	%1159 = bitcast i8*  %1158 to float*, !dbg !3036
	store float  %1157, float*  %1159, align 4, !tbaa !3106, !dbg !3036
	%1160 = load float, float*  %735, align 4, !tbaa !3106, !dbg !3036
	%1161 = getelementptr i8, i8*  %1151, i64 16, !dbg !3036
	%1162 = bitcast i8*  %1161 to float*, !dbg !3036
	store float  %1160, float*  %1162, align 4, !tbaa !3106, !dbg !3036
	%1163 = load float, float*  %737, align 4, !tbaa !3106, !dbg !3036
	%1164 = getelementptr i8, i8*  %1151, i64 20, !dbg !3036
	%1165 = bitcast i8*  %1164 to float*, !dbg !3036
	store float  %1163, float*  %1165, align 4, !tbaa !3106, !dbg !3036
	%1166 = load float, float*  %739, align 4, !tbaa !3106, !dbg !3036
	%1167 = getelementptr i8, i8*  %1151, i64 24, !dbg !3036
	%1168 = bitcast i8*  %1167 to float*, !dbg !3036
	store float  %1166, float*  %1168, align 4, !tbaa !3106, !dbg !3036
	%1169 = load float, float*  %741, align 4, !tbaa !3106, !dbg !3036
	%1170 = getelementptr i8, i8*  %1151, i64 28, !dbg !3036
	%1171 = bitcast i8*  %1170 to float*, !dbg !3036
	store float  %1169, float*  %1171, align 4, !tbaa !3106, !dbg !3036
	call void @llvm.dbg.declare (metadata [3 x i32]* %cell_indices_to_id.addr, metadata !3075, metadata !3019), !dbg !2705
	%1172 = bitcast [3 x i32]* %cell_indices_to_id.addr to i32*, !dbg !3074
	store i32 1, i32*  %1172, align 4, !tbaa !3106, !dbg !3074
	%1173 = bitcast [3 x i32]* %cell_indices_to_id.addr to i8*, !dbg !3076
	%1174 = getelementptr i8, i8*  %1173, i64 4, !dbg !3076
	%1175 = bitcast i8*  %1174 to i32*, !dbg !3076
	store i32 16, i32*  %1175, align 4, !tbaa !3106, !dbg !3076
	%1176 = getelementptr i8, i8*  %1173, i64 8, !dbg !3077
	%1177 = bitcast i8*  %1176 to i32*, !dbg !3077
	store i32 4, i32*  %1177, align 4, !tbaa !3106, !dbg !3077
	call void @llvm.dbg.declare (metadata [64 x i8]* %cellid_transpose.addr, metadata !3080, metadata !3019), !dbg !2705
	%1178 = bitcast [64 x i8]* %cellid_transpose.addr to i8*, !dbg !3078
	store i8 0, i8*  %1178, align 1, !tbaa !3106, !dbg !3078
	%1179 = load i32, i32*  %1172, align 4, !tbaa !3106, !dbg !3081
	%1180 = and i32  %1179, 255, !dbg !3081
	%1181 = trunc i32  %1180 to i8, !dbg !3081
	%1182 = getelementptr i8, i8*  %1178, i64 1, !dbg !3081
	store i8  %1181, i8*  %1182, align 1, !tbaa !3106, !dbg !3081
	%1183 = mul i32  %1179, 2, !dbg !3081
	%1184 = and i32  %1183, 255, !dbg !3081
	%1185 = trunc i32  %1184 to i8, !dbg !3081
	%1186 = getelementptr i8, i8*  %1178, i64 2, !dbg !3081
	store i8  %1185, i8*  %1186, align 1, !tbaa !3106, !dbg !3081
	%1187 = mul i32  %1179, 3, !dbg !3081
	%1188 = and i32  %1187, 255, !dbg !3081
	%1189 = trunc i32  %1188 to i8, !dbg !3081
	%1190 = getelementptr i8, i8*  %1178, i64 3, !dbg !3081
	store i8  %1189, i8*  %1190, align 1, !tbaa !3106, !dbg !3081
	%1191 = getelementptr i8, i8*  %1173, i64 4, !dbg !3082
	%1192 = bitcast i8*  %1191 to i32*, !dbg !3082
	%1193 = load i32, i32*  %1192, align 4, !tbaa !3106, !dbg !3082
	%1194 = and i32  %1193, 255, !dbg !3082
	%1195 = trunc i32  %1194 to i8, !dbg !3082
	%1196 = getelementptr i8, i8*  %1178, i64 4, !dbg !3082
	store i8  %1195, i8*  %1196, align 1, !tbaa !3106, !dbg !3082
	%1197 = add i32  %1193,  %1179, !dbg !3082
	%1198 = and i32  %1197, 255, !dbg !3082
	%1199 = trunc i32  %1198 to i8, !dbg !3082
	%1200 = getelementptr i8, i8*  %1178, i64 5, !dbg !3082
	store i8  %1199, i8*  %1200, align 1, !tbaa !3106, !dbg !3082
	%1201 = mul i32  %1179, 2, !dbg !3082
	%1202 = add i32  %1201,  %1193, !dbg !3082
	%1203 = and i32  %1202, 255, !dbg !3082
	%1204 = trunc i32  %1203 to i8, !dbg !3082
	%1205 = getelementptr i8, i8*  %1178, i64 6, !dbg !3082
	store i8  %1204, i8*  %1205, align 1, !tbaa !3106, !dbg !3082
	%1206 = mul i32  %1179, 3, !dbg !3082
	%1207 = add i32  %1206,  %1193, !dbg !3082
	%1208 = and i32  %1207, 255, !dbg !3082
	%1209 = trunc i32  %1208 to i8, !dbg !3082
	%1210 = getelementptr i8, i8*  %1178, i64 7, !dbg !3082
	store i8  %1209, i8*  %1210, align 1, !tbaa !3106, !dbg !3082
	%1211 = mul i32  %1193, 2, !dbg !3082
	%1212 = and i32  %1211, 255, !dbg !3082
	%1213 = trunc i32  %1212 to i8, !dbg !3082
	%1214 = getelementptr i8, i8*  %1178, i64 8, !dbg !3082
	store i8  %1213, i8*  %1214, align 1, !tbaa !3106, !dbg !3082
	%1215 = mul i32  %1193, 2, !dbg !3082
	%1216 = add i32  %1215,  %1179, !dbg !3082
	%1217 = and i32  %1216, 255, !dbg !3082
	%1218 = trunc i32  %1217 to i8, !dbg !3082
	%1219 = getelementptr i8, i8*  %1178, i64 9, !dbg !3082
	store i8  %1218, i8*  %1219, align 1, !tbaa !3106, !dbg !3082
	%1220 = mul i32  %1193, 2, !dbg !3082
	%1221 = mul i32  %1179, 2, !dbg !3082
	%1222 = add i32  %1220,  %1221, !dbg !3082
	%1223 = and i32  %1222, 255, !dbg !3082
	%1224 = trunc i32  %1223 to i8, !dbg !3082
	%1225 = getelementptr i8, i8*  %1178, i64 10, !dbg !3082
	store i8  %1224, i8*  %1225, align 1, !tbaa !3106, !dbg !3082
	%1226 = mul i32  %1193, 2, !dbg !3082
	%1227 = mul i32  %1179, 3, !dbg !3082
	%1228 = add i32  %1226,  %1227, !dbg !3082
	%1229 = and i32  %1228, 255, !dbg !3082
	%1230 = trunc i32  %1229 to i8, !dbg !3082
	%1231 = getelementptr i8, i8*  %1178, i64 11, !dbg !3082
	store i8  %1230, i8*  %1231, align 1, !tbaa !3106, !dbg !3082
	%1232 = mul i32  %1193, 3, !dbg !3082
	%1233 = and i32  %1232, 255, !dbg !3082
	%1234 = trunc i32  %1233 to i8, !dbg !3082
	%1235 = getelementptr i8, i8*  %1178, i64 12, !dbg !3082
	store i8  %1234, i8*  %1235, align 1, !tbaa !3106, !dbg !3082
	%1236 = mul i32  %1193, 3, !dbg !3082
	%1237 = add i32  %1236,  %1179, !dbg !3082
	%1238 = and i32  %1237, 255, !dbg !3082
	%1239 = trunc i32  %1238 to i8, !dbg !3082
	%1240 = getelementptr i8, i8*  %1178, i64 13, !dbg !3082
	store i8  %1239, i8*  %1240, align 1, !tbaa !3106, !dbg !3082
	%1241 = mul i32  %1193, 3, !dbg !3082
	%1242 = mul i32  %1179, 2, !dbg !3082
	%1243 = add i32  %1241,  %1242, !dbg !3082
	%1244 = and i32  %1243, 255, !dbg !3082
	%1245 = trunc i32  %1244 to i8, !dbg !3082
	%1246 = getelementptr i8, i8*  %1178, i64 14, !dbg !3082
	store i8  %1245, i8*  %1246, align 1, !tbaa !3106, !dbg !3082
	%1247 = mul i32  %1193, 3, !dbg !3082
	%1248 = mul i32  %1179, 3, !dbg !3082
	%1249 = add i32  %1247,  %1248, !dbg !3082
	%1250 = and i32  %1249, 255, !dbg !3082
	%1251 = trunc i32  %1250 to i8, !dbg !3082
	%1252 = getelementptr i8, i8*  %1178, i64 15, !dbg !3082
	store i8  %1251, i8*  %1252, align 1, !tbaa !3106, !dbg !3082
	%1253 = getelementptr i8, i8*  %1173, i64 8, !dbg !3083
	%1254 = bitcast i8*  %1253 to i32*, !dbg !3083
	%1255 = load i32, i32*  %1254, align 4, !tbaa !3106, !dbg !3083
	%1256 = and i32  %1255, 255, !dbg !3083
	%1257 = trunc i32  %1256 to i8, !dbg !3083
	%1258 = getelementptr i8, i8*  %1178, i64 16, !dbg !3083
	store i8  %1257, i8*  %1258, align 1, !tbaa !3106, !dbg !3083
	%1259 = add i32  %1255,  %1179, !dbg !3083
	%1260 = and i32  %1259, 255, !dbg !3083
	%1261 = trunc i32  %1260 to i8, !dbg !3083
	%1262 = getelementptr i8, i8*  %1178, i64 17, !dbg !3083
	store i8  %1261, i8*  %1262, align 1, !tbaa !3106, !dbg !3083
	%1263 = mul i32  %1179, 2, !dbg !3083
	%1264 = add i32  %1263,  %1255, !dbg !3083
	%1265 = and i32  %1264, 255, !dbg !3083
	%1266 = trunc i32  %1265 to i8, !dbg !3083
	%1267 = getelementptr i8, i8*  %1178, i64 18, !dbg !3083
	store i8  %1266, i8*  %1267, align 1, !tbaa !3106, !dbg !3083
	%1268 = mul i32  %1179, 3, !dbg !3083
	%1269 = add i32  %1268,  %1255, !dbg !3083
	%1270 = and i32  %1269, 255, !dbg !3083
	%1271 = trunc i32  %1270 to i8, !dbg !3083
	%1272 = getelementptr i8, i8*  %1178, i64 19, !dbg !3083
	store i8  %1271, i8*  %1272, align 1, !tbaa !3106, !dbg !3083
	%1273 = add i32  %1255,  %1193, !dbg !3083
	%1274 = and i32  %1273, 255, !dbg !3083
	%1275 = trunc i32  %1274 to i8, !dbg !3083
	%1276 = getelementptr i8, i8*  %1178, i64 20, !dbg !3083
	store i8  %1275, i8*  %1276, align 1, !tbaa !3106, !dbg !3083
	%1277 = add i32  %1197,  %1255, !dbg !3083
	%1278 = and i32  %1277, 255, !dbg !3083
	%1279 = trunc i32  %1278 to i8, !dbg !3083
	%1280 = getelementptr i8, i8*  %1178, i64 21, !dbg !3083
	store i8  %1279, i8*  %1280, align 1, !tbaa !3106, !dbg !3083
	%1281 = mul i32  %1179, 2, !dbg !3083
	%1282 = add i32  %1281,  %1193, !dbg !3083
	%1283 = add i32  %1282,  %1255, !dbg !3083
	%1284 = and i32  %1283, 255, !dbg !3083
	%1285 = trunc i32  %1284 to i8, !dbg !3083
	%1286 = getelementptr i8, i8*  %1178, i64 22, !dbg !3083
	store i8  %1285, i8*  %1286, align 1, !tbaa !3106, !dbg !3083
	%1287 = mul i32  %1179, 3, !dbg !3083
	%1288 = add i32  %1287,  %1193, !dbg !3083
	%1289 = add i32  %1288,  %1255, !dbg !3083
	%1290 = and i32  %1289, 255, !dbg !3083
	%1291 = trunc i32  %1290 to i8, !dbg !3083
	%1292 = getelementptr i8, i8*  %1178, i64 23, !dbg !3083
	store i8  %1291, i8*  %1292, align 1, !tbaa !3106, !dbg !3083
	%1293 = mul i32  %1193, 2, !dbg !3083
	%1294 = add i32  %1293,  %1255, !dbg !3083
	%1295 = and i32  %1294, 255, !dbg !3083
	%1296 = trunc i32  %1295 to i8, !dbg !3083
	%1297 = getelementptr i8, i8*  %1178, i64 24, !dbg !3083
	store i8  %1296, i8*  %1297, align 1, !tbaa !3106, !dbg !3083
	%1298 = mul i32  %1193, 2, !dbg !3083
	%1299 = add i32  %1298,  %1179, !dbg !3083
	%1300 = add i32  %1299,  %1255, !dbg !3083
	%1301 = and i32  %1300, 255, !dbg !3083
	%1302 = trunc i32  %1301 to i8, !dbg !3083
	%1303 = getelementptr i8, i8*  %1178, i64 25, !dbg !3083
	store i8  %1302, i8*  %1303, align 1, !tbaa !3106, !dbg !3083
	%1304 = mul i32  %1193, 2, !dbg !3083
	%1305 = mul i32  %1179, 2, !dbg !3083
	%1306 = add i32  %1304,  %1305, !dbg !3083
	%1307 = add i32  %1306,  %1255, !dbg !3083
	%1308 = and i32  %1307, 255, !dbg !3083
	%1309 = trunc i32  %1308 to i8, !dbg !3083
	%1310 = getelementptr i8, i8*  %1178, i64 26, !dbg !3083
	store i8  %1309, i8*  %1310, align 1, !tbaa !3106, !dbg !3083
	%1311 = mul i32  %1193, 2, !dbg !3083
	%1312 = mul i32  %1179, 3, !dbg !3083
	%1313 = add i32  %1311,  %1312, !dbg !3083
	%1314 = add i32  %1313,  %1255, !dbg !3083
	%1315 = and i32  %1314, 255, !dbg !3083
	%1316 = trunc i32  %1315 to i8, !dbg !3083
	%1317 = getelementptr i8, i8*  %1178, i64 27, !dbg !3083
	store i8  %1316, i8*  %1317, align 1, !tbaa !3106, !dbg !3083
	%1318 = mul i32  %1193, 3, !dbg !3083
	%1319 = add i32  %1318,  %1255, !dbg !3083
	%1320 = and i32  %1319, 255, !dbg !3083
	%1321 = trunc i32  %1320 to i8, !dbg !3083
	%1322 = getelementptr i8, i8*  %1178, i64 28, !dbg !3083
	store i8  %1321, i8*  %1322, align 1, !tbaa !3106, !dbg !3083
	%1323 = mul i32  %1193, 3, !dbg !3083
	%1324 = add i32  %1323,  %1179, !dbg !3083
	%1325 = add i32  %1324,  %1255, !dbg !3083
	%1326 = and i32  %1325, 255, !dbg !3083
	%1327 = trunc i32  %1326 to i8, !dbg !3083
	%1328 = getelementptr i8, i8*  %1178, i64 29, !dbg !3083
	store i8  %1327, i8*  %1328, align 1, !tbaa !3106, !dbg !3083
	%1329 = mul i32  %1193, 3, !dbg !3083
	%1330 = mul i32  %1179, 2, !dbg !3083
	%1331 = add i32  %1329,  %1330, !dbg !3083
	%1332 = add i32  %1331,  %1255, !dbg !3083
	%1333 = and i32  %1332, 255, !dbg !3083
	%1334 = trunc i32  %1333 to i8, !dbg !3083
	%1335 = getelementptr i8, i8*  %1178, i64 30, !dbg !3083
	store i8  %1334, i8*  %1335, align 1, !tbaa !3106, !dbg !3083
	%1336 = mul i32  %1193, 3, !dbg !3083
	%1337 = mul i32  %1179, 3, !dbg !3083
	%1338 = add i32  %1336,  %1337, !dbg !3083
	%1339 = add i32  %1338,  %1255, !dbg !3083
	%1340 = and i32  %1339, 255, !dbg !3083
	%1341 = trunc i32  %1340 to i8, !dbg !3083
	%1342 = getelementptr i8, i8*  %1178, i64 31, !dbg !3083
	store i8  %1341, i8*  %1342, align 1, !tbaa !3106, !dbg !3083
	%1343 = mul i32  %1255, 2, !dbg !3083
	%1344 = and i32  %1343, 255, !dbg !3083
	%1345 = trunc i32  %1344 to i8, !dbg !3083
	%1346 = getelementptr i8, i8*  %1178, i64 32, !dbg !3083
	store i8  %1345, i8*  %1346, align 1, !tbaa !3106, !dbg !3083
	%1347 = mul i32  %1255, 2, !dbg !3083
	%1348 = add i32  %1347,  %1179, !dbg !3083
	%1349 = and i32  %1348, 255, !dbg !3083
	%1350 = trunc i32  %1349 to i8, !dbg !3083
	%1351 = getelementptr i8, i8*  %1178, i64 33, !dbg !3083
	store i8  %1350, i8*  %1351, align 1, !tbaa !3106, !dbg !3083
	%1352 = mul i32  %1179, 2, !dbg !3083
	%1353 = mul i32  %1255, 2, !dbg !3083
	%1354 = add i32  %1352,  %1353, !dbg !3083
	%1355 = and i32  %1354, 255, !dbg !3083
	%1356 = trunc i32  %1355 to i8, !dbg !3083
	%1357 = getelementptr i8, i8*  %1178, i64 34, !dbg !3083
	store i8  %1356, i8*  %1357, align 1, !tbaa !3106, !dbg !3083
	%1358 = mul i32  %1179, 3, !dbg !3083
	%1359 = mul i32  %1255, 2, !dbg !3083
	%1360 = add i32  %1358,  %1359, !dbg !3083
	%1361 = and i32  %1360, 255, !dbg !3083
	%1362 = trunc i32  %1361 to i8, !dbg !3083
	%1363 = getelementptr i8, i8*  %1178, i64 35, !dbg !3083
	store i8  %1362, i8*  %1363, align 1, !tbaa !3106, !dbg !3083
	%1364 = mul i32  %1255, 2, !dbg !3083
	%1365 = add i32  %1364,  %1193, !dbg !3083
	%1366 = and i32  %1365, 255, !dbg !3083
	%1367 = trunc i32  %1366 to i8, !dbg !3083
	%1368 = getelementptr i8, i8*  %1178, i64 36, !dbg !3083
	store i8  %1367, i8*  %1368, align 1, !tbaa !3106, !dbg !3083
	%1369 = mul i32  %1255, 2, !dbg !3083
	%1370 = add i32  %1197,  %1369, !dbg !3083
	%1371 = and i32  %1370, 255, !dbg !3083
	%1372 = trunc i32  %1371 to i8, !dbg !3083
	%1373 = getelementptr i8, i8*  %1178, i64 37, !dbg !3083
	store i8  %1372, i8*  %1373, align 1, !tbaa !3106, !dbg !3083
	%1374 = mul i32  %1179, 2, !dbg !3083
	%1375 = add i32  %1374,  %1193, !dbg !3083
	%1376 = mul i32  %1255, 2, !dbg !3083
	%1377 = add i32  %1375,  %1376, !dbg !3083
	%1378 = and i32  %1377, 255, !dbg !3083
	%1379 = trunc i32  %1378 to i8, !dbg !3083
	%1380 = getelementptr i8, i8*  %1178, i64 38, !dbg !3083
	store i8  %1379, i8*  %1380, align 1, !tbaa !3106, !dbg !3083
	%1381 = mul i32  %1179, 3, !dbg !3083
	%1382 = add i32  %1381,  %1193, !dbg !3083
	%1383 = mul i32  %1255, 2, !dbg !3083
	%1384 = add i32  %1382,  %1383, !dbg !3083
	%1385 = and i32  %1384, 255, !dbg !3083
	%1386 = trunc i32  %1385 to i8, !dbg !3083
	%1387 = getelementptr i8, i8*  %1178, i64 39, !dbg !3083
	store i8  %1386, i8*  %1387, align 1, !tbaa !3106, !dbg !3083
	%1388 = mul i32  %1193, 2, !dbg !3083
	%1389 = mul i32  %1255, 2, !dbg !3083
	%1390 = add i32  %1388,  %1389, !dbg !3083
	%1391 = and i32  %1390, 255, !dbg !3083
	%1392 = trunc i32  %1391 to i8, !dbg !3083
	%1393 = getelementptr i8, i8*  %1178, i64 40, !dbg !3083
	store i8  %1392, i8*  %1393, align 1, !tbaa !3106, !dbg !3083
	%1394 = mul i32  %1193, 2, !dbg !3083
	%1395 = add i32  %1394,  %1179, !dbg !3083
	%1396 = mul i32  %1255, 2, !dbg !3083
	%1397 = add i32  %1395,  %1396, !dbg !3083
	%1398 = and i32  %1397, 255, !dbg !3083
	%1399 = trunc i32  %1398 to i8, !dbg !3083
	%1400 = getelementptr i8, i8*  %1178, i64 41, !dbg !3083
	store i8  %1399, i8*  %1400, align 1, !tbaa !3106, !dbg !3083
	%1401 = mul i32  %1193, 2, !dbg !3083
	%1402 = mul i32  %1179, 2, !dbg !3083
	%1403 = add i32  %1401,  %1402, !dbg !3083
	%1404 = mul i32  %1255, 2, !dbg !3083
	%1405 = add i32  %1403,  %1404, !dbg !3083
	%1406 = and i32  %1405, 255, !dbg !3083
	%1407 = trunc i32  %1406 to i8, !dbg !3083
	%1408 = getelementptr i8, i8*  %1178, i64 42, !dbg !3083
	store i8  %1407, i8*  %1408, align 1, !tbaa !3106, !dbg !3083
	%1409 = mul i32  %1193, 2, !dbg !3083
	%1410 = mul i32  %1179, 3, !dbg !3083
	%1411 = add i32  %1409,  %1410, !dbg !3083
	%1412 = mul i32  %1255, 2, !dbg !3083
	%1413 = add i32  %1411,  %1412, !dbg !3083
	%1414 = and i32  %1413, 255, !dbg !3083
	%1415 = trunc i32  %1414 to i8, !dbg !3083
	%1416 = getelementptr i8, i8*  %1178, i64 43, !dbg !3083
	store i8  %1415, i8*  %1416, align 1, !tbaa !3106, !dbg !3083
	%1417 = mul i32  %1193, 3, !dbg !3083
	%1418 = mul i32  %1255, 2, !dbg !3083
	%1419 = add i32  %1417,  %1418, !dbg !3083
	%1420 = and i32  %1419, 255, !dbg !3083
	%1421 = trunc i32  %1420 to i8, !dbg !3083
	%1422 = getelementptr i8, i8*  %1178, i64 44, !dbg !3083
	store i8  %1421, i8*  %1422, align 1, !tbaa !3106, !dbg !3083
	%1423 = mul i32  %1193, 3, !dbg !3083
	%1424 = add i32  %1423,  %1179, !dbg !3083
	%1425 = mul i32  %1255, 2, !dbg !3083
	%1426 = add i32  %1424,  %1425, !dbg !3083
	%1427 = and i32  %1426, 255, !dbg !3083
	%1428 = trunc i32  %1427 to i8, !dbg !3083
	%1429 = getelementptr i8, i8*  %1178, i64 45, !dbg !3083
	store i8  %1428, i8*  %1429, align 1, !tbaa !3106, !dbg !3083
	%1430 = mul i32  %1193, 3, !dbg !3083
	%1431 = mul i32  %1179, 2, !dbg !3083
	%1432 = add i32  %1430,  %1431, !dbg !3083
	%1433 = mul i32  %1255, 2, !dbg !3083
	%1434 = add i32  %1432,  %1433, !dbg !3083
	%1435 = and i32  %1434, 255, !dbg !3083
	%1436 = trunc i32  %1435 to i8, !dbg !3083
	%1437 = getelementptr i8, i8*  %1178, i64 46, !dbg !3083
	store i8  %1436, i8*  %1437, align 1, !tbaa !3106, !dbg !3083
	%1438 = mul i32  %1193, 3, !dbg !3083
	%1439 = mul i32  %1179, 3, !dbg !3083
	%1440 = add i32  %1438,  %1439, !dbg !3083
	%1441 = mul i32  %1255, 2, !dbg !3083
	%1442 = add i32  %1440,  %1441, !dbg !3083
	%1443 = and i32  %1442, 255, !dbg !3083
	%1444 = trunc i32  %1443 to i8, !dbg !3083
	%1445 = getelementptr i8, i8*  %1178, i64 47, !dbg !3083
	store i8  %1444, i8*  %1445, align 1, !tbaa !3106, !dbg !3083
	%1446 = mul i32  %1255, 3, !dbg !3083
	%1447 = and i32  %1446, 255, !dbg !3083
	%1448 = trunc i32  %1447 to i8, !dbg !3083
	%1449 = getelementptr i8, i8*  %1178, i64 48, !dbg !3083
	store i8  %1448, i8*  %1449, align 1, !tbaa !3106, !dbg !3083
	%1450 = mul i32  %1255, 3, !dbg !3083
	%1451 = add i32  %1179,  %1450, !dbg !3083
	%1452 = and i32  %1451, 255, !dbg !3083
	%1453 = trunc i32  %1452 to i8, !dbg !3083
	%1454 = getelementptr i8, i8*  %1178, i64 49, !dbg !3083
	store i8  %1453, i8*  %1454, align 1, !tbaa !3106, !dbg !3083
	%1455 = mul i32  %1179, 2, !dbg !3083
	%1456 = mul i32  %1255, 3, !dbg !3083
	%1457 = add i32  %1455,  %1456, !dbg !3083
	%1458 = and i32  %1457, 255, !dbg !3083
	%1459 = trunc i32  %1458 to i8, !dbg !3083
	%1460 = getelementptr i8, i8*  %1178, i64 50, !dbg !3083
	store i8  %1459, i8*  %1460, align 1, !tbaa !3106, !dbg !3083
	%1461 = mul i32  %1179, 3, !dbg !3083
	%1462 = mul i32  %1255, 3, !dbg !3083
	%1463 = add i32  %1461,  %1462, !dbg !3083
	%1464 = and i32  %1463, 255, !dbg !3083
	%1465 = trunc i32  %1464 to i8, !dbg !3083
	%1466 = getelementptr i8, i8*  %1178, i64 51, !dbg !3083
	store i8  %1465, i8*  %1466, align 1, !tbaa !3106, !dbg !3083
	%1467 = mul i32  %1255, 3, !dbg !3083
	%1468 = add i32  %1193,  %1467, !dbg !3083
	%1469 = and i32  %1468, 255, !dbg !3083
	%1470 = trunc i32  %1469 to i8, !dbg !3083
	%1471 = getelementptr i8, i8*  %1178, i64 52, !dbg !3083
	store i8  %1470, i8*  %1471, align 1, !tbaa !3106, !dbg !3083
	%1472 = mul i32  %1255, 3, !dbg !3083
	%1473 = add i32  %1197,  %1472, !dbg !3083
	%1474 = and i32  %1473, 255, !dbg !3083
	%1475 = trunc i32  %1474 to i8, !dbg !3083
	%1476 = getelementptr i8, i8*  %1178, i64 53, !dbg !3083
	store i8  %1475, i8*  %1476, align 1, !tbaa !3106, !dbg !3083
	%1477 = mul i32  %1179, 2, !dbg !3083
	%1478 = add i32  %1477,  %1193, !dbg !3083
	%1479 = mul i32  %1255, 3, !dbg !3083
	%1480 = add i32  %1478,  %1479, !dbg !3083
	%1481 = and i32  %1480, 255, !dbg !3083
	%1482 = trunc i32  %1481 to i8, !dbg !3083
	%1483 = getelementptr i8, i8*  %1178, i64 54, !dbg !3083
	store i8  %1482, i8*  %1483, align 1, !tbaa !3106, !dbg !3083
	%1484 = mul i32  %1179, 3, !dbg !3083
	%1485 = add i32  %1484,  %1193, !dbg !3083
	%1486 = mul i32  %1255, 3, !dbg !3083
	%1487 = add i32  %1485,  %1486, !dbg !3083
	%1488 = and i32  %1487, 255, !dbg !3083
	%1489 = trunc i32  %1488 to i8, !dbg !3083
	%1490 = getelementptr i8, i8*  %1178, i64 55, !dbg !3083
	store i8  %1489, i8*  %1490, align 1, !tbaa !3106, !dbg !3083
	%1491 = mul i32  %1193, 2, !dbg !3083
	%1492 = mul i32  %1255, 3, !dbg !3083
	%1493 = add i32  %1491,  %1492, !dbg !3083
	%1494 = and i32  %1493, 255, !dbg !3083
	%1495 = trunc i32  %1494 to i8, !dbg !3083
	%1496 = getelementptr i8, i8*  %1178, i64 56, !dbg !3083
	store i8  %1495, i8*  %1496, align 1, !tbaa !3106, !dbg !3083
	%1497 = mul i32  %1193, 2, !dbg !3083
	%1498 = add i32  %1497,  %1179, !dbg !3083
	%1499 = mul i32  %1255, 3, !dbg !3083
	%1500 = add i32  %1498,  %1499, !dbg !3083
	%1501 = and i32  %1500, 255, !dbg !3083
	%1502 = trunc i32  %1501 to i8, !dbg !3083
	%1503 = getelementptr i8, i8*  %1178, i64 57, !dbg !3083
	store i8  %1502, i8*  %1503, align 1, !tbaa !3106, !dbg !3083
	%1504 = mul i32  %1193, 2, !dbg !3083
	%1505 = mul i32  %1179, 2, !dbg !3083
	%1506 = add i32  %1504,  %1505, !dbg !3083
	%1507 = mul i32  %1255, 3, !dbg !3083
	%1508 = add i32  %1506,  %1507, !dbg !3083
	%1509 = and i32  %1508, 255, !dbg !3083
	%1510 = trunc i32  %1509 to i8, !dbg !3083
	%1511 = getelementptr i8, i8*  %1178, i64 58, !dbg !3083
	store i8  %1510, i8*  %1511, align 1, !tbaa !3106, !dbg !3083
	%1512 = mul i32  %1193, 2, !dbg !3083
	%1513 = mul i32  %1179, 3, !dbg !3083
	%1514 = add i32  %1512,  %1513, !dbg !3083
	%1515 = mul i32  %1255, 3, !dbg !3083
	%1516 = add i32  %1514,  %1515, !dbg !3083
	%1517 = and i32  %1516, 255, !dbg !3083
	%1518 = trunc i32  %1517 to i8, !dbg !3083
	%1519 = getelementptr i8, i8*  %1178, i64 59, !dbg !3083
	store i8  %1518, i8*  %1519, align 1, !tbaa !3106, !dbg !3083
	%1520 = mul i32  %1193, 3, !dbg !3083
	%1521 = mul i32  %1255, 3, !dbg !3083
	%1522 = add i32  %1520,  %1521, !dbg !3083
	%1523 = and i32  %1522, 255, !dbg !3083
	%1524 = trunc i32  %1523 to i8, !dbg !3083
	%1525 = getelementptr i8, i8*  %1178, i64 60, !dbg !3083
	store i8  %1524, i8*  %1525, align 1, !tbaa !3106, !dbg !3083
	%1526 = mul i32  %1193, 3, !dbg !3083
	%1527 = add i32  %1526,  %1179, !dbg !3083
	%1528 = mul i32  %1255, 3, !dbg !3083
	%1529 = add i32  %1527,  %1528, !dbg !3083
	%1530 = and i32  %1529, 255, !dbg !3083
	%1531 = trunc i32  %1530 to i8, !dbg !3083
	%1532 = getelementptr i8, i8*  %1178, i64 61, !dbg !3083
	store i8  %1531, i8*  %1532, align 1, !tbaa !3106, !dbg !3083
	%1533 = mul i32  %1193, 3, !dbg !3083
	%1534 = mul i32  %1179, 2, !dbg !3083
	%1535 = add i32  %1533,  %1534, !dbg !3083
	%1536 = mul i32  %1255, 3, !dbg !3083
	%1537 = add i32  %1535,  %1536, !dbg !3083
	%1538 = and i32  %1537, 255, !dbg !3083
	%1539 = trunc i32  %1538 to i8, !dbg !3083
	%1540 = getelementptr i8, i8*  %1178, i64 62, !dbg !3083
	store i8  %1539, i8*  %1540, align 1, !tbaa !3106, !dbg !3083
	%1541 = mul i32  %1193, 3, !dbg !3083
	%1542 = mul i32  %1179, 3, !dbg !3083
	%1543 = add i32  %1541,  %1542, !dbg !3083
	%1544 = mul i32  %1255, 3, !dbg !3083
	%1545 = add i32  %1543,  %1544, !dbg !3083
	%1546 = and i32  %1545, 255, !dbg !3083
	%1547 = trunc i32  %1546 to i8, !dbg !3083
	%1548 = getelementptr i8, i8*  %1178, i64 63, !dbg !3083
	store i8  %1547, i8*  %1548, align 1, !tbaa !3106, !dbg !3083
	store i32 32, i32* %.x0002.addr, align 4, !tbaa !3108, !dbg !3084
	call void @llvm.dbg.declare (metadata [64 x float]* %blockValues.addr, metadata !3085, metadata !3019), !dbg !2705
	%1549 = bitcast [64 x float]* %blockValues.addr to i8*, !dbg !3084
	%1550 = getelementptr i8, i8*  %1549, i64 4, !dbg !3084
	store i8*  %1550, i8** %.G0003.addr, align 8, !tbaa !3105, !dbg !3084
	%1551 = getelementptr i8, i8*  %1178, i64 1, !dbg !3084
	store i8*  %1551, i8** %.G0001.addr, align 8, !tbaa !3105, !dbg !3084
	br label %L.B1022
L.B1022:
	%1552 = load i8*, i8** %.G0001.addr, align 8, !tbaa !3105, !dbg !3062
	%1553 = getelementptr i8, i8*  %1552, i64 18446744073709551615, !dbg !3062
	%1554 = load i8, i8*  %1553, align 1, !tbaa !3106, !dbg !3062
	%1555 = zext i8  %1554 to i32, !dbg !3062
	%1556 = sext i32  %1555 to i64, !dbg !3062
	%1557 = load float*, float** %data.addr.1, align 8, !tbaa !3105, !dbg !3062
	%1558 = getelementptr float, float*  %1557, i64  %1556, !dbg !3062
	%1559 = load float, float*  %1558, align 4, !tbaa !3106, !dbg !3062
	%1560 = load i8*, i8** %.G0003.addr, align 8, !tbaa !3105, !dbg !3062
	%1561 = getelementptr i8, i8*  %1560, i64 18446744073709551612, !dbg !3062
	%1562 = bitcast i8*  %1561 to float*, !dbg !3062
	store float  %1559, float*  %1562, align 4, !tbaa !3106, !dbg !3062
	%1563 = load i8, i8*  %1552, align 1, !tbaa !3106, !dbg !3084
	%1564 = zext i8  %1563 to i32, !dbg !3084
	%1565 = sext i32  %1564 to i64, !dbg !3084
	%1566 = getelementptr float, float*  %1557, i64  %1565, !dbg !3084
	%1567 = load float, float*  %1566, align 4, !tbaa !3106, !dbg !3084
	%1568 = bitcast i8*  %1560 to float*, !dbg !3084
	store float  %1567, float*  %1568, align 4, !tbaa !3106, !dbg !3084
	%1569 = getelementptr i8, i8*  %1560, i64 8, !dbg !3084
	store i8*  %1569, i8** %.G0003.addr, align 8, !tbaa !3105, !dbg !3084
	%1570 = getelementptr i8, i8*  %1552, i64 2, !dbg !3084
	store i8*  %1570, i8** %.G0001.addr, align 8, !tbaa !3105, !dbg !3084
	%1571 = load i32, i32* %.x0002.addr, align 4, !tbaa !3108, !dbg !3084
	%1572 = sub i32  %1571, 1, !dbg !3084
	store i32  %1572, i32* %.x0002.addr, align 4, !tbaa !3108, !dbg !3084
	%1573 = icmp sgt i32  %1572, 0, !dbg !3062
	br i1  %1573, label %L.B1022, label %L.B1029, !dbg !3062
L.B1029:
	%1574 = load %struct._Z10Vec8SimpleIfE*, %struct._Z10Vec8SimpleIfE** %values.addr, align 8, !tbaa !3105, !dbg !3086
	%1575 = bitcast %struct._Z10Vec8SimpleIfE*  %1574 to i8*, !dbg !3086
	%1576 = load i32, i32* %block_k.addr.1, align 4, !tbaa !3108, !dbg !3086
	%1577 = add i32  %1576, 1, !dbg !3086
	%1578 = mul i32  %1577, 4, !dbg !3086
	%1579 = zext i32  %1578 to i64, !dbg !3086
	%1580 = mul i64  %1579, 32, !dbg !3086
	%1581 = getelementptr i8, i8*  %1575, i64  %1580, !dbg !3086
	%1582 = bitcast %struct._Z10Vec8SimpleIfE** %..inline.addr.1640 to i8**, !dbg !3086
	store i8*  %1581, i8**  %1582, align 8, !tbaa !3105, !dbg !3086
	%1583 = bitcast [64 x float]* %blockValues.addr to float*, !dbg !3087
	%1584 = load float, float*  %1583, align 4, !tbaa !3106, !dbg !3087
	%1585 = load %struct._Z10Vec8SimpleIfE*, %struct._Z10Vec8SimpleIfE** %..inline.addr.1640, align 8, !tbaa !3105, !dbg !3087
	%1586 = bitcast %struct._Z10Vec8SimpleIfE*  %1585 to float*, !dbg !3087
	store float  %1584, float*  %1586, align 4, !tbaa !3106, !dbg !3087
	%1587 = bitcast [64 x float]* %blockValues.addr to i8*, !dbg !3088
	%1588 = getelementptr i8, i8*  %1587, i64 4, !dbg !3088
	%1589 = bitcast i8*  %1588 to float*, !dbg !3088
	%1590 = load float, float*  %1589, align 4, !tbaa !3106, !dbg !3088
	%1591 = bitcast %struct._Z10Vec8SimpleIfE*  %1585 to i8*, !dbg !3088
	%1592 = getelementptr i8, i8*  %1591, i64 4, !dbg !3088
	%1593 = bitcast i8*  %1592 to float*, !dbg !3088
	store float  %1590, float*  %1593, align 4, !tbaa !3106, !dbg !3088
	%1594 = getelementptr i8, i8*  %1587, i64 8, !dbg !3088
	%1595 = bitcast i8*  %1594 to float*, !dbg !3088
	%1596 = load float, float*  %1595, align 4, !tbaa !3106, !dbg !3088
	%1597 = getelementptr i8, i8*  %1591, i64 8, !dbg !3088
	%1598 = bitcast i8*  %1597 to float*, !dbg !3088
	store float  %1596, float*  %1598, align 4, !tbaa !3106, !dbg !3088
	%1599 = getelementptr i8, i8*  %1587, i64 12, !dbg !3088
	%1600 = bitcast i8*  %1599 to float*, !dbg !3088
	%1601 = load float, float*  %1600, align 4, !tbaa !3106, !dbg !3088
	%1602 = getelementptr i8, i8*  %1591, i64 12, !dbg !3088
	%1603 = bitcast i8*  %1602 to float*, !dbg !3088
	store float  %1601, float*  %1603, align 4, !tbaa !3106, !dbg !3088
	%1604 = getelementptr i8, i8*  %1587, i64 16, !dbg !3088
	%1605 = bitcast i8*  %1604 to float*, !dbg !3088
	%1606 = load float, float*  %1605, align 4, !tbaa !3106, !dbg !3088
	%1607 = getelementptr i8, i8*  %1591, i64 16, !dbg !3088
	%1608 = bitcast i8*  %1607 to float*, !dbg !3088
	store float  %1606, float*  %1608, align 4, !tbaa !3106, !dbg !3088
	%1609 = getelementptr i8, i8*  %1587, i64 20, !dbg !3088
	%1610 = bitcast i8*  %1609 to float*, !dbg !3088
	%1611 = load float, float*  %1610, align 4, !tbaa !3106, !dbg !3088
	%1612 = getelementptr i8, i8*  %1591, i64 20, !dbg !3088
	%1613 = bitcast i8*  %1612 to float*, !dbg !3088
	store float  %1611, float*  %1613, align 4, !tbaa !3106, !dbg !3088
	%1614 = getelementptr i8, i8*  %1587, i64 24, !dbg !3088
	%1615 = bitcast i8*  %1614 to float*, !dbg !3088
	%1616 = load float, float*  %1615, align 4, !tbaa !3106, !dbg !3088
	%1617 = getelementptr i8, i8*  %1591, i64 24, !dbg !3088
	%1618 = bitcast i8*  %1617 to float*, !dbg !3088
	store float  %1616, float*  %1618, align 4, !tbaa !3106, !dbg !3088
	%1619 = getelementptr i8, i8*  %1587, i64 28, !dbg !3088
	%1620 = bitcast i8*  %1619 to float*, !dbg !3088
	%1621 = load float, float*  %1620, align 4, !tbaa !3106, !dbg !3088
	%1622 = getelementptr i8, i8*  %1591, i64 28, !dbg !3088
	%1623 = bitcast i8*  %1622 to float*, !dbg !3088
	store float  %1621, float*  %1623, align 4, !tbaa !3106, !dbg !3088
	%1624 = add i32  %1576, 1, !dbg !3087
	%1625 = mul i32  %1624, 4, !dbg !3087
	%1626 = load i32, i32* %.r1.0436.addr, align 4, !tbaa !3108, !dbg !3087
	%1627 = add i32  %1625,  %1626, !dbg !3087
	%1628 = zext i32  %1627 to i64, !dbg !3087
	%1629 = mul i64  %1628, 32, !dbg !3087
	%1630 = getelementptr i8, i8*  %1575, i64  %1629, !dbg !3087
	store i8*  %1630, i8**  %1582, align 8, !tbaa !3105, !dbg !3087
	%1631 = getelementptr i8, i8*  %1587, i64 32, !dbg !3087
	%1632 = bitcast i8*  %1631 to float*, !dbg !3087
	%1633 = load float, float*  %1632, align 4, !tbaa !3106, !dbg !3087
	%1634 = load %struct._Z10Vec8SimpleIfE*, %struct._Z10Vec8SimpleIfE** %..inline.addr.1640, align 8, !tbaa !3105, !dbg !3087
	%1635 = bitcast %struct._Z10Vec8SimpleIfE*  %1634 to float*, !dbg !3087
	store float  %1633, float*  %1635, align 4, !tbaa !3106, !dbg !3087
	%1636 = getelementptr i8, i8*  %1587, i64 36, !dbg !3087
	%1637 = bitcast i8*  %1636 to float*, !dbg !3087
	%1638 = load float, float*  %1637, align 4, !tbaa !3106, !dbg !3087
	%1639 = bitcast %struct._Z10Vec8SimpleIfE*  %1634 to i8*, !dbg !3087
	%1640 = getelementptr i8, i8*  %1639, i64 4, !dbg !3087
	%1641 = bitcast i8*  %1640 to float*, !dbg !3087
	store float  %1638, float*  %1641, align 4, !tbaa !3106, !dbg !3087
	%1642 = getelementptr i8, i8*  %1587, i64 40, !dbg !3087
	%1643 = bitcast i8*  %1642 to float*, !dbg !3087
	%1644 = load float, float*  %1643, align 4, !tbaa !3106, !dbg !3087
	%1645 = getelementptr i8, i8*  %1639, i64 8, !dbg !3087
	%1646 = bitcast i8*  %1645 to float*, !dbg !3087
	store float  %1644, float*  %1646, align 4, !tbaa !3106, !dbg !3087
	%1647 = getelementptr i8, i8*  %1587, i64 44, !dbg !3087
	%1648 = bitcast i8*  %1647 to float*, !dbg !3087
	%1649 = load float, float*  %1648, align 4, !tbaa !3106, !dbg !3087
	%1650 = getelementptr i8, i8*  %1639, i64 12, !dbg !3087
	%1651 = bitcast i8*  %1650 to float*, !dbg !3087
	store float  %1649, float*  %1651, align 4, !tbaa !3106, !dbg !3087
	%1652 = getelementptr i8, i8*  %1587, i64 48, !dbg !3087
	%1653 = bitcast i8*  %1652 to float*, !dbg !3087
	%1654 = load float, float*  %1653, align 4, !tbaa !3106, !dbg !3087
	%1655 = getelementptr i8, i8*  %1639, i64 16, !dbg !3087
	%1656 = bitcast i8*  %1655 to float*, !dbg !3087
	store float  %1654, float*  %1656, align 4, !tbaa !3106, !dbg !3087
	%1657 = getelementptr i8, i8*  %1587, i64 52, !dbg !3087
	%1658 = bitcast i8*  %1657 to float*, !dbg !3087
	%1659 = load float, float*  %1658, align 4, !tbaa !3106, !dbg !3087
	%1660 = getelementptr i8, i8*  %1639, i64 20, !dbg !3087
	%1661 = bitcast i8*  %1660 to float*, !dbg !3087
	store float  %1659, float*  %1661, align 4, !tbaa !3106, !dbg !3087
	%1662 = getelementptr i8, i8*  %1587, i64 56, !dbg !3087
	%1663 = bitcast i8*  %1662 to float*, !dbg !3087
	%1664 = load float, float*  %1663, align 4, !tbaa !3106, !dbg !3087
	%1665 = getelementptr i8, i8*  %1639, i64 24, !dbg !3087
	%1666 = bitcast i8*  %1665 to float*, !dbg !3087
	store float  %1664, float*  %1666, align 4, !tbaa !3106, !dbg !3087
	%1667 = getelementptr i8, i8*  %1587, i64 60, !dbg !3087
	%1668 = bitcast i8*  %1667 to float*, !dbg !3087
	%1669 = load float, float*  %1668, align 4, !tbaa !3106, !dbg !3087
	%1670 = getelementptr i8, i8*  %1639, i64 28, !dbg !3087
	%1671 = bitcast i8*  %1670 to float*, !dbg !3087
	store float  %1669, float*  %1671, align 4, !tbaa !3106, !dbg !3087
	%1672 = add i32  %1576, 1, !dbg !3089
	%1673 = mul i32  %1672, 4, !dbg !3089
	%1674 = add i32  %1673, 1, !dbg !3089
	%1675 = zext i32  %1674 to i64, !dbg !3089
	%1676 = mul i64  %1675, 32, !dbg !3089
	%1677 = getelementptr i8, i8*  %1575, i64  %1676, !dbg !3089
	store i8*  %1677, i8**  %1582, align 8, !tbaa !3105, !dbg !3089
	%1678 = getelementptr i8, i8*  %1587, i64 64, !dbg !3089
	%1679 = bitcast i8*  %1678 to float*, !dbg !3089
	%1680 = load float, float*  %1679, align 4, !tbaa !3106, !dbg !3089
	%1681 = load %struct._Z10Vec8SimpleIfE*, %struct._Z10Vec8SimpleIfE** %..inline.addr.1640, align 8, !tbaa !3105, !dbg !3089
	%1682 = bitcast %struct._Z10Vec8SimpleIfE*  %1681 to float*, !dbg !3089
	store float  %1680, float*  %1682, align 4, !tbaa !3106, !dbg !3089
	%1683 = getelementptr i8, i8*  %1587, i64 68, !dbg !3089
	%1684 = bitcast i8*  %1683 to float*, !dbg !3089
	%1685 = load float, float*  %1684, align 4, !tbaa !3106, !dbg !3089
	%1686 = bitcast %struct._Z10Vec8SimpleIfE*  %1681 to i8*, !dbg !3089
	%1687 = getelementptr i8, i8*  %1686, i64 4, !dbg !3089
	%1688 = bitcast i8*  %1687 to float*, !dbg !3089
	store float  %1685, float*  %1688, align 4, !tbaa !3106, !dbg !3089
	%1689 = getelementptr i8, i8*  %1587, i64 72, !dbg !3089
	%1690 = bitcast i8*  %1689 to float*, !dbg !3089
	%1691 = load float, float*  %1690, align 4, !tbaa !3106, !dbg !3089
	%1692 = getelementptr i8, i8*  %1686, i64 8, !dbg !3089
	%1693 = bitcast i8*  %1692 to float*, !dbg !3089
	store float  %1691, float*  %1693, align 4, !tbaa !3106, !dbg !3089
	%1694 = getelementptr i8, i8*  %1587, i64 76, !dbg !3089
	%1695 = bitcast i8*  %1694 to float*, !dbg !3089
	%1696 = load float, float*  %1695, align 4, !tbaa !3106, !dbg !3089
	%1697 = getelementptr i8, i8*  %1686, i64 12, !dbg !3089
	%1698 = bitcast i8*  %1697 to float*, !dbg !3089
	store float  %1696, float*  %1698, align 4, !tbaa !3106, !dbg !3089
	%1699 = getelementptr i8, i8*  %1587, i64 80, !dbg !3089
	%1700 = bitcast i8*  %1699 to float*, !dbg !3089
	%1701 = load float, float*  %1700, align 4, !tbaa !3106, !dbg !3089
	%1702 = getelementptr i8, i8*  %1686, i64 16, !dbg !3089
	%1703 = bitcast i8*  %1702 to float*, !dbg !3089
	store float  %1701, float*  %1703, align 4, !tbaa !3106, !dbg !3089
	%1704 = getelementptr i8, i8*  %1587, i64 84, !dbg !3089
	%1705 = bitcast i8*  %1704 to float*, !dbg !3089
	%1706 = load float, float*  %1705, align 4, !tbaa !3106, !dbg !3089
	%1707 = getelementptr i8, i8*  %1686, i64 20, !dbg !3089
	%1708 = bitcast i8*  %1707 to float*, !dbg !3089
	store float  %1706, float*  %1708, align 4, !tbaa !3106, !dbg !3089
	%1709 = getelementptr i8, i8*  %1587, i64 88, !dbg !3089
	%1710 = bitcast i8*  %1709 to float*, !dbg !3089
	%1711 = load float, float*  %1710, align 4, !tbaa !3106, !dbg !3089
	%1712 = getelementptr i8, i8*  %1686, i64 24, !dbg !3089
	%1713 = bitcast i8*  %1712 to float*, !dbg !3089
	store float  %1711, float*  %1713, align 4, !tbaa !3106, !dbg !3089
	%1714 = getelementptr i8, i8*  %1587, i64 92, !dbg !3089
	%1715 = bitcast i8*  %1714 to float*, !dbg !3089
	%1716 = load float, float*  %1715, align 4, !tbaa !3106, !dbg !3089
	%1717 = getelementptr i8, i8*  %1686, i64 28, !dbg !3089
	%1718 = bitcast i8*  %1717 to float*, !dbg !3089
	store float  %1716, float*  %1718, align 4, !tbaa !3106, !dbg !3089
	%1719 = add i32  %1576, 1, !dbg !3089
	%1720 = mul i32  %1719, 4, !dbg !3089
	%1721 = load i32, i32* %.r1.0653.addr, align 4, !tbaa !3108, !dbg !3089
	%1722 = add i32  %1720,  %1721, !dbg !3089
	%1723 = zext i32  %1722 to i64, !dbg !3089
	%1724 = mul i64  %1723, 32, !dbg !3089
	%1725 = getelementptr i8, i8*  %1575, i64  %1724, !dbg !3089
	store i8*  %1725, i8**  %1582, align 8, !tbaa !3105, !dbg !3089
	%1726 = getelementptr i8, i8*  %1587, i64 96, !dbg !3089
	%1727 = bitcast i8*  %1726 to float*, !dbg !3089
	%1728 = load float, float*  %1727, align 4, !tbaa !3106, !dbg !3089
	%1729 = load %struct._Z10Vec8SimpleIfE*, %struct._Z10Vec8SimpleIfE** %..inline.addr.1640, align 8, !tbaa !3105, !dbg !3089
	%1730 = bitcast %struct._Z10Vec8SimpleIfE*  %1729 to float*, !dbg !3089
	store float  %1728, float*  %1730, align 4, !tbaa !3106, !dbg !3089
	%1731 = getelementptr i8, i8*  %1587, i64 100, !dbg !3089
	%1732 = bitcast i8*  %1731 to float*, !dbg !3089
	%1733 = load float, float*  %1732, align 4, !tbaa !3106, !dbg !3089
	%1734 = bitcast %struct._Z10Vec8SimpleIfE*  %1729 to i8*, !dbg !3089
	%1735 = getelementptr i8, i8*  %1734, i64 4, !dbg !3089
	%1736 = bitcast i8*  %1735 to float*, !dbg !3089
	store float  %1733, float*  %1736, align 4, !tbaa !3106, !dbg !3089
	%1737 = getelementptr i8, i8*  %1587, i64 104, !dbg !3089
	%1738 = bitcast i8*  %1737 to float*, !dbg !3089
	%1739 = load float, float*  %1738, align 4, !tbaa !3106, !dbg !3089
	%1740 = getelementptr i8, i8*  %1734, i64 8, !dbg !3089
	%1741 = bitcast i8*  %1740 to float*, !dbg !3089
	store float  %1739, float*  %1741, align 4, !tbaa !3106, !dbg !3089
	%1742 = getelementptr i8, i8*  %1587, i64 108, !dbg !3089
	%1743 = bitcast i8*  %1742 to float*, !dbg !3089
	%1744 = load float, float*  %1743, align 4, !tbaa !3106, !dbg !3089
	%1745 = getelementptr i8, i8*  %1734, i64 12, !dbg !3089
	%1746 = bitcast i8*  %1745 to float*, !dbg !3089
	store float  %1744, float*  %1746, align 4, !tbaa !3106, !dbg !3089
	%1747 = getelementptr i8, i8*  %1587, i64 112, !dbg !3089
	%1748 = bitcast i8*  %1747 to float*, !dbg !3089
	%1749 = load float, float*  %1748, align 4, !tbaa !3106, !dbg !3089
	%1750 = getelementptr i8, i8*  %1734, i64 16, !dbg !3089
	%1751 = bitcast i8*  %1750 to float*, !dbg !3089
	store float  %1749, float*  %1751, align 4, !tbaa !3106, !dbg !3089
	%1752 = getelementptr i8, i8*  %1587, i64 116, !dbg !3089
	%1753 = bitcast i8*  %1752 to float*, !dbg !3089
	%1754 = load float, float*  %1753, align 4, !tbaa !3106, !dbg !3089
	%1755 = getelementptr i8, i8*  %1734, i64 20, !dbg !3089
	%1756 = bitcast i8*  %1755 to float*, !dbg !3089
	store float  %1754, float*  %1756, align 4, !tbaa !3106, !dbg !3089
	%1757 = getelementptr i8, i8*  %1587, i64 120, !dbg !3089
	%1758 = bitcast i8*  %1757 to float*, !dbg !3089
	%1759 = load float, float*  %1758, align 4, !tbaa !3106, !dbg !3089
	%1760 = getelementptr i8, i8*  %1734, i64 24, !dbg !3089
	%1761 = bitcast i8*  %1760 to float*, !dbg !3089
	store float  %1759, float*  %1761, align 4, !tbaa !3106, !dbg !3089
	%1762 = getelementptr i8, i8*  %1587, i64 124, !dbg !3089
	%1763 = bitcast i8*  %1762 to float*, !dbg !3089
	%1764 = load float, float*  %1763, align 4, !tbaa !3106, !dbg !3089
	%1765 = getelementptr i8, i8*  %1734, i64 28, !dbg !3089
	%1766 = bitcast i8*  %1765 to float*, !dbg !3089
	store float  %1764, float*  %1766, align 4, !tbaa !3106, !dbg !3089
	%1767 = add i32  %1576, 1, !dbg !3089
	%1768 = mul i32  %1767, 4, !dbg !3089
	%1769 = add i32  %1768, 2, !dbg !3089
	%1770 = zext i32  %1769 to i64, !dbg !3089
	%1771 = mul i64  %1770, 32, !dbg !3089
	%1772 = getelementptr i8, i8*  %1575, i64  %1771, !dbg !3089
	store i8*  %1772, i8**  %1582, align 8, !tbaa !3105, !dbg !3089
	%1773 = getelementptr i8, i8*  %1587, i64 128, !dbg !3089
	%1774 = bitcast i8*  %1773 to float*, !dbg !3089
	%1775 = load float, float*  %1774, align 4, !tbaa !3106, !dbg !3089
	%1776 = load %struct._Z10Vec8SimpleIfE*, %struct._Z10Vec8SimpleIfE** %..inline.addr.1640, align 8, !tbaa !3105, !dbg !3089
	%1777 = bitcast %struct._Z10Vec8SimpleIfE*  %1776 to float*, !dbg !3089
	store float  %1775, float*  %1777, align 4, !tbaa !3106, !dbg !3089
	%1778 = getelementptr i8, i8*  %1587, i64 132, !dbg !3089
	%1779 = bitcast i8*  %1778 to float*, !dbg !3089
	%1780 = load float, float*  %1779, align 4, !tbaa !3106, !dbg !3089
	%1781 = bitcast %struct._Z10Vec8SimpleIfE*  %1776 to i8*, !dbg !3089
	%1782 = getelementptr i8, i8*  %1781, i64 4, !dbg !3089
	%1783 = bitcast i8*  %1782 to float*, !dbg !3089
	store float  %1780, float*  %1783, align 4, !tbaa !3106, !dbg !3089
	%1784 = getelementptr i8, i8*  %1587, i64 136, !dbg !3089
	%1785 = bitcast i8*  %1784 to float*, !dbg !3089
	%1786 = load float, float*  %1785, align 4, !tbaa !3106, !dbg !3089
	%1787 = getelementptr i8, i8*  %1781, i64 8, !dbg !3089
	%1788 = bitcast i8*  %1787 to float*, !dbg !3089
	store float  %1786, float*  %1788, align 4, !tbaa !3106, !dbg !3089
	%1789 = getelementptr i8, i8*  %1587, i64 140, !dbg !3089
	%1790 = bitcast i8*  %1789 to float*, !dbg !3089
	%1791 = load float, float*  %1790, align 4, !tbaa !3106, !dbg !3089
	%1792 = getelementptr i8, i8*  %1781, i64 12, !dbg !3089
	%1793 = bitcast i8*  %1792 to float*, !dbg !3089
	store float  %1791, float*  %1793, align 4, !tbaa !3106, !dbg !3089
	%1794 = getelementptr i8, i8*  %1587, i64 144, !dbg !3089
	%1795 = bitcast i8*  %1794 to float*, !dbg !3089
	%1796 = load float, float*  %1795, align 4, !tbaa !3106, !dbg !3089
	%1797 = getelementptr i8, i8*  %1781, i64 16, !dbg !3089
	%1798 = bitcast i8*  %1797 to float*, !dbg !3089
	store float  %1796, float*  %1798, align 4, !tbaa !3106, !dbg !3089
	%1799 = getelementptr i8, i8*  %1587, i64 148, !dbg !3089
	%1800 = bitcast i8*  %1799 to float*, !dbg !3089
	%1801 = load float, float*  %1800, align 4, !tbaa !3106, !dbg !3089
	%1802 = getelementptr i8, i8*  %1781, i64 20, !dbg !3089
	%1803 = bitcast i8*  %1802 to float*, !dbg !3089
	store float  %1801, float*  %1803, align 4, !tbaa !3106, !dbg !3089
	%1804 = getelementptr i8, i8*  %1587, i64 152, !dbg !3089
	%1805 = bitcast i8*  %1804 to float*, !dbg !3089
	%1806 = load float, float*  %1805, align 4, !tbaa !3106, !dbg !3089
	%1807 = getelementptr i8, i8*  %1781, i64 24, !dbg !3089
	%1808 = bitcast i8*  %1807 to float*, !dbg !3089
	store float  %1806, float*  %1808, align 4, !tbaa !3106, !dbg !3089
	%1809 = getelementptr i8, i8*  %1587, i64 156, !dbg !3089
	%1810 = bitcast i8*  %1809 to float*, !dbg !3089
	%1811 = load float, float*  %1810, align 4, !tbaa !3106, !dbg !3089
	%1812 = getelementptr i8, i8*  %1781, i64 28, !dbg !3089
	%1813 = bitcast i8*  %1812 to float*, !dbg !3089
	store float  %1811, float*  %1813, align 4, !tbaa !3106, !dbg !3089
	%1814 = add i32  %1576, 1, !dbg !3089
	%1815 = mul i32  %1814, 4, !dbg !3089
	%1816 = load i32, i32* %.r1.0870.addr, align 4, !tbaa !3108, !dbg !3089
	%1817 = add i32  %1815,  %1816, !dbg !3089
	%1818 = zext i32  %1817 to i64, !dbg !3089
	%1819 = mul i64  %1818, 32, !dbg !3089
	%1820 = getelementptr i8, i8*  %1575, i64  %1819, !dbg !3089
	store i8*  %1820, i8**  %1582, align 8, !tbaa !3105, !dbg !3089
	%1821 = getelementptr i8, i8*  %1587, i64 160, !dbg !3089
	%1822 = bitcast i8*  %1821 to float*, !dbg !3089
	%1823 = load float, float*  %1822, align 4, !tbaa !3106, !dbg !3089
	%1824 = load %struct._Z10Vec8SimpleIfE*, %struct._Z10Vec8SimpleIfE** %..inline.addr.1640, align 8, !tbaa !3105, !dbg !3089
	%1825 = bitcast %struct._Z10Vec8SimpleIfE*  %1824 to float*, !dbg !3089
	store float  %1823, float*  %1825, align 4, !tbaa !3106, !dbg !3089
	%1826 = getelementptr i8, i8*  %1587, i64 164, !dbg !3089
	%1827 = bitcast i8*  %1826 to float*, !dbg !3089
	%1828 = load float, float*  %1827, align 4, !tbaa !3106, !dbg !3089
	%1829 = bitcast %struct._Z10Vec8SimpleIfE*  %1824 to i8*, !dbg !3089
	%1830 = getelementptr i8, i8*  %1829, i64 4, !dbg !3089
	%1831 = bitcast i8*  %1830 to float*, !dbg !3089
	store float  %1828, float*  %1831, align 4, !tbaa !3106, !dbg !3089
	%1832 = getelementptr i8, i8*  %1587, i64 168, !dbg !3089
	%1833 = bitcast i8*  %1832 to float*, !dbg !3089
	%1834 = load float, float*  %1833, align 4, !tbaa !3106, !dbg !3089
	%1835 = getelementptr i8, i8*  %1829, i64 8, !dbg !3089
	%1836 = bitcast i8*  %1835 to float*, !dbg !3089
	store float  %1834, float*  %1836, align 4, !tbaa !3106, !dbg !3089
	%1837 = getelementptr i8, i8*  %1587, i64 172, !dbg !3089
	%1838 = bitcast i8*  %1837 to float*, !dbg !3089
	%1839 = load float, float*  %1838, align 4, !tbaa !3106, !dbg !3089
	%1840 = getelementptr i8, i8*  %1829, i64 12, !dbg !3089
	%1841 = bitcast i8*  %1840 to float*, !dbg !3089
	store float  %1839, float*  %1841, align 4, !tbaa !3106, !dbg !3089
	%1842 = getelementptr i8, i8*  %1587, i64 176, !dbg !3089
	%1843 = bitcast i8*  %1842 to float*, !dbg !3089
	%1844 = load float, float*  %1843, align 4, !tbaa !3106, !dbg !3089
	%1845 = getelementptr i8, i8*  %1829, i64 16, !dbg !3089
	%1846 = bitcast i8*  %1845 to float*, !dbg !3089
	store float  %1844, float*  %1846, align 4, !tbaa !3106, !dbg !3089
	%1847 = getelementptr i8, i8*  %1587, i64 180, !dbg !3089
	%1848 = bitcast i8*  %1847 to float*, !dbg !3089
	%1849 = load float, float*  %1848, align 4, !tbaa !3106, !dbg !3089
	%1850 = getelementptr i8, i8*  %1829, i64 20, !dbg !3089
	%1851 = bitcast i8*  %1850 to float*, !dbg !3089
	store float  %1849, float*  %1851, align 4, !tbaa !3106, !dbg !3089
	%1852 = getelementptr i8, i8*  %1587, i64 184, !dbg !3089
	%1853 = bitcast i8*  %1852 to float*, !dbg !3089
	%1854 = load float, float*  %1853, align 4, !tbaa !3106, !dbg !3089
	%1855 = getelementptr i8, i8*  %1829, i64 24, !dbg !3089
	%1856 = bitcast i8*  %1855 to float*, !dbg !3089
	store float  %1854, float*  %1856, align 4, !tbaa !3106, !dbg !3089
	%1857 = getelementptr i8, i8*  %1587, i64 188, !dbg !3089
	%1858 = bitcast i8*  %1857 to float*, !dbg !3089
	%1859 = load float, float*  %1858, align 4, !tbaa !3106, !dbg !3089
	%1860 = getelementptr i8, i8*  %1829, i64 28, !dbg !3089
	%1861 = bitcast i8*  %1860 to float*, !dbg !3089
	store float  %1859, float*  %1861, align 4, !tbaa !3106, !dbg !3089
	%1862 = add i32  %1576, 1, !dbg !3089
	%1863 = mul i32  %1862, 4, !dbg !3089
	%1864 = add i32  %1863, 3, !dbg !3089
	%1865 = zext i32  %1864 to i64, !dbg !3089
	%1866 = mul i64  %1865, 32, !dbg !3089
	%1867 = getelementptr i8, i8*  %1575, i64  %1866, !dbg !3089
	store i8*  %1867, i8**  %1582, align 8, !tbaa !3105, !dbg !3089
	%1868 = getelementptr i8, i8*  %1587, i64 192, !dbg !3089
	%1869 = bitcast i8*  %1868 to float*, !dbg !3089
	%1870 = load float, float*  %1869, align 4, !tbaa !3106, !dbg !3089
	%1871 = load %struct._Z10Vec8SimpleIfE*, %struct._Z10Vec8SimpleIfE** %..inline.addr.1640, align 8, !tbaa !3105, !dbg !3089
	%1872 = bitcast %struct._Z10Vec8SimpleIfE*  %1871 to float*, !dbg !3089
	store float  %1870, float*  %1872, align 4, !tbaa !3106, !dbg !3089
	%1873 = getelementptr i8, i8*  %1587, i64 196, !dbg !3089
	%1874 = bitcast i8*  %1873 to float*, !dbg !3089
	%1875 = load float, float*  %1874, align 4, !tbaa !3106, !dbg !3089
	%1876 = bitcast %struct._Z10Vec8SimpleIfE*  %1871 to i8*, !dbg !3089
	%1877 = getelementptr i8, i8*  %1876, i64 4, !dbg !3089
	%1878 = bitcast i8*  %1877 to float*, !dbg !3089
	store float  %1875, float*  %1878, align 4, !tbaa !3106, !dbg !3089
	%1879 = getelementptr i8, i8*  %1587, i64 200, !dbg !3089
	%1880 = bitcast i8*  %1879 to float*, !dbg !3089
	%1881 = load float, float*  %1880, align 4, !tbaa !3106, !dbg !3089
	%1882 = getelementptr i8, i8*  %1876, i64 8, !dbg !3089
	%1883 = bitcast i8*  %1882 to float*, !dbg !3089
	store float  %1881, float*  %1883, align 4, !tbaa !3106, !dbg !3089
	%1884 = getelementptr i8, i8*  %1587, i64 204, !dbg !3089
	%1885 = bitcast i8*  %1884 to float*, !dbg !3089
	%1886 = load float, float*  %1885, align 4, !tbaa !3106, !dbg !3089
	%1887 = getelementptr i8, i8*  %1876, i64 12, !dbg !3089
	%1888 = bitcast i8*  %1887 to float*, !dbg !3089
	store float  %1886, float*  %1888, align 4, !tbaa !3106, !dbg !3089
	%1889 = getelementptr i8, i8*  %1587, i64 208, !dbg !3089
	%1890 = bitcast i8*  %1889 to float*, !dbg !3089
	%1891 = load float, float*  %1890, align 4, !tbaa !3106, !dbg !3089
	%1892 = getelementptr i8, i8*  %1876, i64 16, !dbg !3089
	%1893 = bitcast i8*  %1892 to float*, !dbg !3089
	store float  %1891, float*  %1893, align 4, !tbaa !3106, !dbg !3089
	%1894 = getelementptr i8, i8*  %1587, i64 212, !dbg !3089
	%1895 = bitcast i8*  %1894 to float*, !dbg !3089
	%1896 = load float, float*  %1895, align 4, !tbaa !3106, !dbg !3089
	%1897 = getelementptr i8, i8*  %1876, i64 20, !dbg !3089
	%1898 = bitcast i8*  %1897 to float*, !dbg !3089
	store float  %1896, float*  %1898, align 4, !tbaa !3106, !dbg !3089
	%1899 = getelementptr i8, i8*  %1587, i64 216, !dbg !3089
	%1900 = bitcast i8*  %1899 to float*, !dbg !3089
	%1901 = load float, float*  %1900, align 4, !tbaa !3106, !dbg !3089
	%1902 = getelementptr i8, i8*  %1876, i64 24, !dbg !3089
	%1903 = bitcast i8*  %1902 to float*, !dbg !3089
	store float  %1901, float*  %1903, align 4, !tbaa !3106, !dbg !3089
	%1904 = getelementptr i8, i8*  %1587, i64 220, !dbg !3089
	%1905 = bitcast i8*  %1904 to float*, !dbg !3089
	%1906 = load float, float*  %1905, align 4, !tbaa !3106, !dbg !3089
	%1907 = getelementptr i8, i8*  %1876, i64 28, !dbg !3089
	%1908 = bitcast i8*  %1907 to float*, !dbg !3089
	store float  %1906, float*  %1908, align 4, !tbaa !3106, !dbg !3089
	%1909 = add i32  %1576, 1, !dbg !3089
	%1910 = mul i32  %1909, 4, !dbg !3089
	%1911 = load i32, i32* %.r1.1087.addr, align 4, !tbaa !3108, !dbg !3089
	%1912 = add i32  %1910,  %1911, !dbg !3089
	%1913 = zext i32  %1912 to i64, !dbg !3089
	%1914 = mul i64  %1913, 32, !dbg !3089
	%1915 = getelementptr i8, i8*  %1575, i64  %1914, !dbg !3089
	store i8*  %1915, i8**  %1582, align 8, !tbaa !3105, !dbg !3089
	%1916 = getelementptr i8, i8*  %1587, i64 224, !dbg !3089
	%1917 = bitcast i8*  %1916 to float*, !dbg !3089
	%1918 = load float, float*  %1917, align 4, !tbaa !3106, !dbg !3089
	%1919 = load %struct._Z10Vec8SimpleIfE*, %struct._Z10Vec8SimpleIfE** %..inline.addr.1640, align 8, !tbaa !3105, !dbg !3089
	%1920 = bitcast %struct._Z10Vec8SimpleIfE*  %1919 to float*, !dbg !3089
	store float  %1918, float*  %1920, align 4, !tbaa !3106, !dbg !3089
	%1921 = getelementptr i8, i8*  %1587, i64 228, !dbg !3089
	%1922 = bitcast i8*  %1921 to float*, !dbg !3089
	%1923 = load float, float*  %1922, align 4, !tbaa !3106, !dbg !3089
	%1924 = bitcast %struct._Z10Vec8SimpleIfE*  %1919 to i8*, !dbg !3089
	%1925 = getelementptr i8, i8*  %1924, i64 4, !dbg !3089
	%1926 = bitcast i8*  %1925 to float*, !dbg !3089
	store float  %1923, float*  %1926, align 4, !tbaa !3106, !dbg !3089
	%1927 = getelementptr i8, i8*  %1587, i64 232, !dbg !3089
	%1928 = bitcast i8*  %1927 to float*, !dbg !3089
	%1929 = load float, float*  %1928, align 4, !tbaa !3106, !dbg !3089
	%1930 = getelementptr i8, i8*  %1924, i64 8, !dbg !3089
	%1931 = bitcast i8*  %1930 to float*, !dbg !3089
	store float  %1929, float*  %1931, align 4, !tbaa !3106, !dbg !3089
	%1932 = getelementptr i8, i8*  %1587, i64 236, !dbg !3089
	%1933 = bitcast i8*  %1932 to float*, !dbg !3089
	%1934 = load float, float*  %1933, align 4, !tbaa !3106, !dbg !3089
	%1935 = getelementptr i8, i8*  %1924, i64 12, !dbg !3089
	%1936 = bitcast i8*  %1935 to float*, !dbg !3089
	store float  %1934, float*  %1936, align 4, !tbaa !3106, !dbg !3089
	%1937 = getelementptr i8, i8*  %1587, i64 240, !dbg !3089
	%1938 = bitcast i8*  %1937 to float*, !dbg !3089
	%1939 = load float, float*  %1938, align 4, !tbaa !3106, !dbg !3089
	%1940 = getelementptr i8, i8*  %1924, i64 16, !dbg !3089
	%1941 = bitcast i8*  %1940 to float*, !dbg !3089
	store float  %1939, float*  %1941, align 4, !tbaa !3106, !dbg !3089
	%1942 = getelementptr i8, i8*  %1587, i64 244, !dbg !3089
	%1943 = bitcast i8*  %1942 to float*, !dbg !3089
	%1944 = load float, float*  %1943, align 4, !tbaa !3106, !dbg !3089
	%1945 = getelementptr i8, i8*  %1924, i64 20, !dbg !3089
	%1946 = bitcast i8*  %1945 to float*, !dbg !3089
	store float  %1944, float*  %1946, align 4, !tbaa !3106, !dbg !3089
	%1947 = getelementptr i8, i8*  %1587, i64 248, !dbg !3089
	%1948 = bitcast i8*  %1947 to float*, !dbg !3089
	%1949 = load float, float*  %1948, align 4, !tbaa !3106, !dbg !3089
	%1950 = getelementptr i8, i8*  %1924, i64 24, !dbg !3089
	%1951 = bitcast i8*  %1950 to float*, !dbg !3089
	store float  %1949, float*  %1951, align 4, !tbaa !3106, !dbg !3089
	%1952 = getelementptr i8, i8*  %1587, i64 252, !dbg !3089
	%1953 = bitcast i8*  %1952 to float*, !dbg !3089
	%1954 = load float, float*  %1953, align 4, !tbaa !3106, !dbg !3089
	%1955 = getelementptr i8, i8*  %1924, i64 28, !dbg !3089
	%1956 = bitcast i8*  %1955 to float*, !dbg !3089
	store float  %1954, float*  %1956, align 4, !tbaa !3106, !dbg !3089
	%1957 = load float*, float** %data.addr.1, align 8, !tbaa !3105, !dbg !3090
	%1958 = bitcast float*  %1957 to i8*, !dbg !3090
	%1959 = bitcast i32 (...)* @__c_mzero4 to i32 (i8*, i64, ...)*, !dbg !3090
	%1960 = call i32 (i8*, i64, ...)  %1959 (i8*  %1958, i64 64) nounwind, !dbg !3090
	%1961 = load i32, i32* %block_k.addr.1, align 4, !tbaa !3108, !dbg !3091
	%1962 = add i32  %1961, 1, !dbg !3091
	store i32  %1962, i32* %block_k.addr.1, align 4, !tbaa !3108, !dbg !3091
	%1963 = load i32, i32* %.x0001.addr, align 4, !tbaa !3108, !dbg !3062
	%1964 = sub i32  %1963, 1, !dbg !3062
	store i32  %1964, i32* %.x0001.addr, align 4, !tbaa !3108, !dbg !3062
	%1965 = icmp ne i32  %1964, 0, !dbg !3091
	br i1  %1965, label %L.B0028, label %L.B0029, !dbg !3091
L.B0029:
	br label %L.B0025
L.B0025:
	%1966 = load i32, i32* %dimension.addr, align 4, !tbaa !3108, !dbg !3092
	%1967 = icmp ne i32  %1966, 2, !dbg !3092
	br i1  %1967, label %L.B0070, label %L.B1030, !dbg !3092
L.B1030:
	call void @llvm.dbg.declare (metadata i32* %block_k.addr.2, metadata !3094, metadata !3019), !dbg !2731
	store i32 0, i32* %block_k.addr.2, align 4, !tbaa !3108, !dbg !3093
	%1968 = load i32, i32* %n_blocks.addr, align 4, !tbaa !3108, !dbg !3093
	%1969 = icmp eq i32  %1968, 0, !dbg !3093
	br i1  %1969, label %L.B0074, label %L.B1031, !dbg !3093
L.B1031:
	store i32  %1968, i32* %.x0001.addr, align 4, !tbaa !3108, !dbg !3093
	%1970 = add i32  %1968, 2, !dbg !3093
	%1971 = mul i32  %1970, 4, !dbg !3093
	%1972 = add i32  %1971, 3, !dbg !3093
	store i32  %1972, i32* %.r1.1087.addr, align 4, !tbaa !3108, !dbg !3093
	%1973 = add i32  %1968, 2, !dbg !3093
	%1974 = mul i32  %1973, 4, !dbg !3093
	%1975 = add i32  %1974, 2, !dbg !3093
	store i32  %1975, i32* %.r1.0870.addr, align 4, !tbaa !3108, !dbg !3093
	%1976 = add i32  %1968, 2, !dbg !3093
	%1977 = mul i32  %1976, 4, !dbg !3093
	%1978 = add i32  %1977, 1, !dbg !3093
	store i32  %1978, i32* %.r1.0653.addr, align 4, !tbaa !3108, !dbg !3093
	%1979 = add i32  %1968, 2, !dbg !3093
	%1980 = mul i32  %1979, 4, !dbg !3093
	store i32  %1980, i32* %.r1.0436.addr, align 4, !tbaa !3108, !dbg !3093
	br label %L.B0073
L.B0073:
	%1981 = load %struct._ZN5vmesh12VelocityMeshIjjEE*, %struct._ZN5vmesh12VelocityMeshIjjEE** %vmesh.addr, align 8, !tbaa !3105, !dbg !3095
	%1982 = load i32*, i32** %blocks.addr, align 8, !tbaa !3105, !dbg !3095
	%1983 = bitcast i32*  %1982 to i8*, !dbg !3095
	%1984 = load i32, i32* %block_k.addr.2, align 4, !tbaa !3108, !dbg !3095
	%1985 = zext i32  %1984 to i64, !dbg !3095
	%1986 = mul i64  %1985, 4, !dbg !3095
	%1987 = getelementptr i8, i8*  %1983, i64  %1986, !dbg !3095
	%1988 = bitcast i8*  %1987 to i32*, !dbg !3095
	%1989 = call i32  @_ZNK5vmesh12VelocityMeshIjjE10getLocalIDERKj (%struct._ZN5vmesh12VelocityMeshIjjEE*  %1981, i32*  %1988), !dbg !3095
	store i32  %1989, i32* %.Q0002.addr, align 4, !tbaa !3108, !dbg !3095
	%1990 = load %struct._ZN5vmesh22VelocityBlockContainerIjEE*, %struct._ZN5vmesh22VelocityBlockContainerIjEE** %blockContainer.addr, align 8, !tbaa !3105, !dbg !3043
	%1991 = bitcast %struct._ZN5vmesh22VelocityBlockContainerIjEE*  %1990 to i8**, !dbg !3043
	%1992 = load i8*, i8**  %1991, align 8, !tbaa !3105, !dbg !3043
	%1993 = mul i32  %1989, 64, !dbg !3043
	%1994 = zext i32  %1993 to i64, !dbg !3043
	%1995 = mul i64  %1994, 4, !dbg !3043
	%1996 = getelementptr i8, i8*  %1992, i64  %1995, !dbg !3043
	call void @llvm.dbg.declare (metadata float** %data.addr.2, metadata !3096, metadata !3019), !dbg !2733
	%1997 = bitcast float** %data.addr.2 to i8**, !dbg !3043
	store i8*  %1996, i8**  %1997, align 8, !tbaa !3105, !dbg !3043
	%1998 = load %struct._Z10Vec8SimpleIfE*, %struct._Z10Vec8SimpleIfE** %values.addr, align 8, !tbaa !3105, !dbg !3097
	%1999 = bitcast %struct._Z10Vec8SimpleIfE*  %1998 to i8*, !dbg !3097
	%2000 = load i32, i32* %block_k.addr.2, align 4, !tbaa !3108, !dbg !3097
	%2001 = add i32  %2000, 1, !dbg !3097
	%2002 = mul i32  %2001, 4, !dbg !3097
	%2003 = zext i32  %2002 to i64, !dbg !3097
	%2004 = mul i64  %2003, 32, !dbg !3097
	%2005 = getelementptr i8, i8*  %1999, i64  %2004, !dbg !3097
	%2006 = bitcast %struct._Z10Vec8SimpleIfE** %..inline.addr.1680 to i8**, !dbg !3097
	store i8*  %2005, i8**  %2006, align 8, !tbaa !3105, !dbg !3097
	%2007 = load float*, float** %data.addr.2, align 8, !tbaa !3105, !dbg !3097
	%2008 = bitcast float*  %2007 to i8*, !dbg !3097
	%2009 = bitcast float** %..inline.addr.1690 to i8**, !dbg !3097
	store i8*  %2008, i8**  %2009, align 8, !tbaa !3105, !dbg !3097
	%2010 = load float*, float** %..inline.addr.1690, align 8, !tbaa !3105, !dbg !3098
	%2011 = load float, float*  %2010, align 4, !tbaa !3106, !dbg !3098
	%2012 = load %struct._Z10Vec8SimpleIfE*, %struct._Z10Vec8SimpleIfE** %..inline.addr.1680, align 8, !tbaa !3105, !dbg !3098
	%2013 = bitcast %struct._Z10Vec8SimpleIfE*  %2012 to float*, !dbg !3098
	store float  %2011, float*  %2013, align 4, !tbaa !3106, !dbg !3098
	%2014 = bitcast float*  %2010 to i8*, !dbg !3088
	%2015 = getelementptr i8, i8*  %2014, i64 4, !dbg !3088
	%2016 = bitcast i8*  %2015 to float*, !dbg !3088
	%2017 = load float, float*  %2016, align 4, !tbaa !3106, !dbg !3088
	%2018 = bitcast %struct._Z10Vec8SimpleIfE*  %2012 to i8*, !dbg !3088
	%2019 = getelementptr i8, i8*  %2018, i64 4, !dbg !3088
	%2020 = bitcast i8*  %2019 to float*, !dbg !3088
	store float  %2017, float*  %2020, align 4, !tbaa !3106, !dbg !3088
	%2021 = getelementptr i8, i8*  %2014, i64 8, !dbg !3088
	%2022 = bitcast i8*  %2021 to float*, !dbg !3088
	%2023 = load float, float*  %2022, align 4, !tbaa !3106, !dbg !3088
	%2024 = getelementptr i8, i8*  %2018, i64 8, !dbg !3088
	%2025 = bitcast i8*  %2024 to float*, !dbg !3088
	store float  %2023, float*  %2025, align 4, !tbaa !3106, !dbg !3088
	%2026 = getelementptr i8, i8*  %2014, i64 12, !dbg !3088
	%2027 = bitcast i8*  %2026 to float*, !dbg !3088
	%2028 = load float, float*  %2027, align 4, !tbaa !3106, !dbg !3088
	%2029 = getelementptr i8, i8*  %2018, i64 12, !dbg !3088
	%2030 = bitcast i8*  %2029 to float*, !dbg !3088
	store float  %2028, float*  %2030, align 4, !tbaa !3106, !dbg !3088
	%2031 = getelementptr i8, i8*  %2014, i64 16, !dbg !3088
	%2032 = bitcast i8*  %2031 to float*, !dbg !3088
	%2033 = load float, float*  %2032, align 4, !tbaa !3106, !dbg !3088
	%2034 = getelementptr i8, i8*  %2018, i64 16, !dbg !3088
	%2035 = bitcast i8*  %2034 to float*, !dbg !3088
	store float  %2033, float*  %2035, align 4, !tbaa !3106, !dbg !3088
	%2036 = getelementptr i8, i8*  %2014, i64 20, !dbg !3088
	%2037 = bitcast i8*  %2036 to float*, !dbg !3088
	%2038 = load float, float*  %2037, align 4, !tbaa !3106, !dbg !3088
	%2039 = getelementptr i8, i8*  %2018, i64 20, !dbg !3088
	%2040 = bitcast i8*  %2039 to float*, !dbg !3088
	store float  %2038, float*  %2040, align 4, !tbaa !3106, !dbg !3088
	%2041 = getelementptr i8, i8*  %2014, i64 24, !dbg !3088
	%2042 = bitcast i8*  %2041 to float*, !dbg !3088
	%2043 = load float, float*  %2042, align 4, !tbaa !3106, !dbg !3088
	%2044 = getelementptr i8, i8*  %2018, i64 24, !dbg !3088
	%2045 = bitcast i8*  %2044 to float*, !dbg !3088
	store float  %2043, float*  %2045, align 4, !tbaa !3106, !dbg !3088
	%2046 = getelementptr i8, i8*  %2014, i64 28, !dbg !3088
	%2047 = bitcast i8*  %2046 to float*, !dbg !3088
	%2048 = load float, float*  %2047, align 4, !tbaa !3106, !dbg !3088
	%2049 = getelementptr i8, i8*  %2018, i64 28, !dbg !3088
	%2050 = bitcast i8*  %2049 to float*, !dbg !3088
	store float  %2048, float*  %2050, align 4, !tbaa !3106, !dbg !3088
	%2051 = load i32, i32* %.r1.0436.addr, align 4, !tbaa !3108, !dbg !3098
	%2052 = add i32  %2000, 1, !dbg !3098
	%2053 = mul i32  %2052, 4, !dbg !3098
	%2054 = add i32  %2051,  %2053, !dbg !3098
	%2055 = zext i32  %2054 to i64, !dbg !3098
	%2056 = mul i64  %2055, 32, !dbg !3098
	%2057 = getelementptr i8, i8*  %1999, i64  %2056, !dbg !3098
	store i8*  %2057, i8**  %2006, align 8, !tbaa !3105, !dbg !3098
	%2058 = getelementptr i8, i8*  %2008, i64 32, !dbg !3098
	store i8*  %2058, i8**  %2009, align 8, !tbaa !3105, !dbg !3098
	%2059 = load float*, float** %..inline.addr.1690, align 8, !tbaa !3105, !dbg !3098
	%2060 = load float, float*  %2059, align 4, !tbaa !3106, !dbg !3098
	%2061 = load %struct._Z10Vec8SimpleIfE*, %struct._Z10Vec8SimpleIfE** %..inline.addr.1680, align 8, !tbaa !3105, !dbg !3098
	%2062 = bitcast %struct._Z10Vec8SimpleIfE*  %2061 to float*, !dbg !3098
	store float  %2060, float*  %2062, align 4, !tbaa !3106, !dbg !3098
	%2063 = bitcast float*  %2059 to i8*, !dbg !3098
	%2064 = getelementptr i8, i8*  %2063, i64 4, !dbg !3098
	%2065 = bitcast i8*  %2064 to float*, !dbg !3098
	%2066 = load float, float*  %2065, align 4, !tbaa !3106, !dbg !3098
	%2067 = bitcast %struct._Z10Vec8SimpleIfE*  %2061 to i8*, !dbg !3098
	%2068 = getelementptr i8, i8*  %2067, i64 4, !dbg !3098
	%2069 = bitcast i8*  %2068 to float*, !dbg !3098
	store float  %2066, float*  %2069, align 4, !tbaa !3106, !dbg !3098
	%2070 = getelementptr i8, i8*  %2063, i64 8, !dbg !3098
	%2071 = bitcast i8*  %2070 to float*, !dbg !3098
	%2072 = load float, float*  %2071, align 4, !tbaa !3106, !dbg !3098
	%2073 = getelementptr i8, i8*  %2067, i64 8, !dbg !3098
	%2074 = bitcast i8*  %2073 to float*, !dbg !3098
	store float  %2072, float*  %2074, align 4, !tbaa !3106, !dbg !3098
	%2075 = getelementptr i8, i8*  %2063, i64 12, !dbg !3098
	%2076 = bitcast i8*  %2075 to float*, !dbg !3098
	%2077 = load float, float*  %2076, align 4, !tbaa !3106, !dbg !3098
	%2078 = getelementptr i8, i8*  %2067, i64 12, !dbg !3098
	%2079 = bitcast i8*  %2078 to float*, !dbg !3098
	store float  %2077, float*  %2079, align 4, !tbaa !3106, !dbg !3098
	%2080 = getelementptr i8, i8*  %2063, i64 16, !dbg !3098
	%2081 = bitcast i8*  %2080 to float*, !dbg !3098
	%2082 = load float, float*  %2081, align 4, !tbaa !3106, !dbg !3098
	%2083 = getelementptr i8, i8*  %2067, i64 16, !dbg !3098
	%2084 = bitcast i8*  %2083 to float*, !dbg !3098
	store float  %2082, float*  %2084, align 4, !tbaa !3106, !dbg !3098
	%2085 = getelementptr i8, i8*  %2063, i64 20, !dbg !3098
	%2086 = bitcast i8*  %2085 to float*, !dbg !3098
	%2087 = load float, float*  %2086, align 4, !tbaa !3106, !dbg !3098
	%2088 = getelementptr i8, i8*  %2067, i64 20, !dbg !3098
	%2089 = bitcast i8*  %2088 to float*, !dbg !3098
	store float  %2087, float*  %2089, align 4, !tbaa !3106, !dbg !3098
	%2090 = getelementptr i8, i8*  %2063, i64 24, !dbg !3098
	%2091 = bitcast i8*  %2090 to float*, !dbg !3098
	%2092 = load float, float*  %2091, align 4, !tbaa !3106, !dbg !3098
	%2093 = getelementptr i8, i8*  %2067, i64 24, !dbg !3098
	%2094 = bitcast i8*  %2093 to float*, !dbg !3098
	store float  %2092, float*  %2094, align 4, !tbaa !3106, !dbg !3098
	%2095 = getelementptr i8, i8*  %2063, i64 28, !dbg !3098
	%2096 = bitcast i8*  %2095 to float*, !dbg !3098
	%2097 = load float, float*  %2096, align 4, !tbaa !3106, !dbg !3098
	%2098 = getelementptr i8, i8*  %2067, i64 28, !dbg !3098
	%2099 = bitcast i8*  %2098 to float*, !dbg !3098
	store float  %2097, float*  %2099, align 4, !tbaa !3106, !dbg !3098
	%2100 = add i32  %2000, 1, !dbg !3099
	%2101 = mul i32  %2100, 4, !dbg !3099
	%2102 = add i32  %2101, 1, !dbg !3099
	%2103 = zext i32  %2102 to i64, !dbg !3099
	%2104 = mul i64  %2103, 32, !dbg !3099
	%2105 = getelementptr i8, i8*  %1999, i64  %2104, !dbg !3099
	store i8*  %2105, i8**  %2006, align 8, !tbaa !3105, !dbg !3099
	%2106 = getelementptr i8, i8*  %2008, i64 64, !dbg !3099
	store i8*  %2106, i8**  %2009, align 8, !tbaa !3105, !dbg !3099
	%2107 = load float*, float** %..inline.addr.1690, align 8, !tbaa !3105, !dbg !3099
	%2108 = load float, float*  %2107, align 4, !tbaa !3106, !dbg !3099
	%2109 = load %struct._Z10Vec8SimpleIfE*, %struct._Z10Vec8SimpleIfE** %..inline.addr.1680, align 8, !tbaa !3105, !dbg !3099
	%2110 = bitcast %struct._Z10Vec8SimpleIfE*  %2109 to float*, !dbg !3099
	store float  %2108, float*  %2110, align 4, !tbaa !3106, !dbg !3099
	%2111 = bitcast float*  %2107 to i8*, !dbg !3099
	%2112 = getelementptr i8, i8*  %2111, i64 4, !dbg !3099
	%2113 = bitcast i8*  %2112 to float*, !dbg !3099
	%2114 = load float, float*  %2113, align 4, !tbaa !3106, !dbg !3099
	%2115 = bitcast %struct._Z10Vec8SimpleIfE*  %2109 to i8*, !dbg !3099
	%2116 = getelementptr i8, i8*  %2115, i64 4, !dbg !3099
	%2117 = bitcast i8*  %2116 to float*, !dbg !3099
	store float  %2114, float*  %2117, align 4, !tbaa !3106, !dbg !3099
	%2118 = getelementptr i8, i8*  %2111, i64 8, !dbg !3099
	%2119 = bitcast i8*  %2118 to float*, !dbg !3099
	%2120 = load float, float*  %2119, align 4, !tbaa !3106, !dbg !3099
	%2121 = getelementptr i8, i8*  %2115, i64 8, !dbg !3099
	%2122 = bitcast i8*  %2121 to float*, !dbg !3099
	store float  %2120, float*  %2122, align 4, !tbaa !3106, !dbg !3099
	%2123 = getelementptr i8, i8*  %2111, i64 12, !dbg !3099
	%2124 = bitcast i8*  %2123 to float*, !dbg !3099
	%2125 = load float, float*  %2124, align 4, !tbaa !3106, !dbg !3099
	%2126 = getelementptr i8, i8*  %2115, i64 12, !dbg !3099
	%2127 = bitcast i8*  %2126 to float*, !dbg !3099
	store float  %2125, float*  %2127, align 4, !tbaa !3106, !dbg !3099
	%2128 = getelementptr i8, i8*  %2111, i64 16, !dbg !3099
	%2129 = bitcast i8*  %2128 to float*, !dbg !3099
	%2130 = load float, float*  %2129, align 4, !tbaa !3106, !dbg !3099
	%2131 = getelementptr i8, i8*  %2115, i64 16, !dbg !3099
	%2132 = bitcast i8*  %2131 to float*, !dbg !3099
	store float  %2130, float*  %2132, align 4, !tbaa !3106, !dbg !3099
	%2133 = getelementptr i8, i8*  %2111, i64 20, !dbg !3099
	%2134 = bitcast i8*  %2133 to float*, !dbg !3099
	%2135 = load float, float*  %2134, align 4, !tbaa !3106, !dbg !3099
	%2136 = getelementptr i8, i8*  %2115, i64 20, !dbg !3099
	%2137 = bitcast i8*  %2136 to float*, !dbg !3099
	store float  %2135, float*  %2137, align 4, !tbaa !3106, !dbg !3099
	%2138 = getelementptr i8, i8*  %2111, i64 24, !dbg !3099
	%2139 = bitcast i8*  %2138 to float*, !dbg !3099
	%2140 = load float, float*  %2139, align 4, !tbaa !3106, !dbg !3099
	%2141 = getelementptr i8, i8*  %2115, i64 24, !dbg !3099
	%2142 = bitcast i8*  %2141 to float*, !dbg !3099
	store float  %2140, float*  %2142, align 4, !tbaa !3106, !dbg !3099
	%2143 = getelementptr i8, i8*  %2111, i64 28, !dbg !3099
	%2144 = bitcast i8*  %2143 to float*, !dbg !3099
	%2145 = load float, float*  %2144, align 4, !tbaa !3106, !dbg !3099
	%2146 = getelementptr i8, i8*  %2115, i64 28, !dbg !3099
	%2147 = bitcast i8*  %2146 to float*, !dbg !3099
	store float  %2145, float*  %2147, align 4, !tbaa !3106, !dbg !3099
	%2148 = load i32, i32* %.r1.0653.addr, align 4, !tbaa !3108, !dbg !3099
	%2149 = add i32  %2000, 1, !dbg !3099
	%2150 = mul i32  %2149, 4, !dbg !3099
	%2151 = add i32  %2148,  %2150, !dbg !3099
	%2152 = zext i32  %2151 to i64, !dbg !3099
	%2153 = mul i64  %2152, 32, !dbg !3099
	%2154 = getelementptr i8, i8*  %1999, i64  %2153, !dbg !3099
	store i8*  %2154, i8**  %2006, align 8, !tbaa !3105, !dbg !3099
	%2155 = getelementptr i8, i8*  %2008, i64 96, !dbg !3099
	store i8*  %2155, i8**  %2009, align 8, !tbaa !3105, !dbg !3099
	%2156 = load float*, float** %..inline.addr.1690, align 8, !tbaa !3105, !dbg !3099
	%2157 = load float, float*  %2156, align 4, !tbaa !3106, !dbg !3099
	%2158 = load %struct._Z10Vec8SimpleIfE*, %struct._Z10Vec8SimpleIfE** %..inline.addr.1680, align 8, !tbaa !3105, !dbg !3099
	%2159 = bitcast %struct._Z10Vec8SimpleIfE*  %2158 to float*, !dbg !3099
	store float  %2157, float*  %2159, align 4, !tbaa !3106, !dbg !3099
	%2160 = bitcast float*  %2156 to i8*, !dbg !3099
	%2161 = getelementptr i8, i8*  %2160, i64 4, !dbg !3099
	%2162 = bitcast i8*  %2161 to float*, !dbg !3099
	%2163 = load float, float*  %2162, align 4, !tbaa !3106, !dbg !3099
	%2164 = bitcast %struct._Z10Vec8SimpleIfE*  %2158 to i8*, !dbg !3099
	%2165 = getelementptr i8, i8*  %2164, i64 4, !dbg !3099
	%2166 = bitcast i8*  %2165 to float*, !dbg !3099
	store float  %2163, float*  %2166, align 4, !tbaa !3106, !dbg !3099
	%2167 = getelementptr i8, i8*  %2160, i64 8, !dbg !3099
	%2168 = bitcast i8*  %2167 to float*, !dbg !3099
	%2169 = load float, float*  %2168, align 4, !tbaa !3106, !dbg !3099
	%2170 = getelementptr i8, i8*  %2164, i64 8, !dbg !3099
	%2171 = bitcast i8*  %2170 to float*, !dbg !3099
	store float  %2169, float*  %2171, align 4, !tbaa !3106, !dbg !3099
	%2172 = getelementptr i8, i8*  %2160, i64 12, !dbg !3099
	%2173 = bitcast i8*  %2172 to float*, !dbg !3099
	%2174 = load float, float*  %2173, align 4, !tbaa !3106, !dbg !3099
	%2175 = getelementptr i8, i8*  %2164, i64 12, !dbg !3099
	%2176 = bitcast i8*  %2175 to float*, !dbg !3099
	store float  %2174, float*  %2176, align 4, !tbaa !3106, !dbg !3099
	%2177 = getelementptr i8, i8*  %2160, i64 16, !dbg !3099
	%2178 = bitcast i8*  %2177 to float*, !dbg !3099
	%2179 = load float, float*  %2178, align 4, !tbaa !3106, !dbg !3099
	%2180 = getelementptr i8, i8*  %2164, i64 16, !dbg !3099
	%2181 = bitcast i8*  %2180 to float*, !dbg !3099
	store float  %2179, float*  %2181, align 4, !tbaa !3106, !dbg !3099
	%2182 = getelementptr i8, i8*  %2160, i64 20, !dbg !3099
	%2183 = bitcast i8*  %2182 to float*, !dbg !3099
	%2184 = load float, float*  %2183, align 4, !tbaa !3106, !dbg !3099
	%2185 = getelementptr i8, i8*  %2164, i64 20, !dbg !3099
	%2186 = bitcast i8*  %2185 to float*, !dbg !3099
	store float  %2184, float*  %2186, align 4, !tbaa !3106, !dbg !3099
	%2187 = getelementptr i8, i8*  %2160, i64 24, !dbg !3099
	%2188 = bitcast i8*  %2187 to float*, !dbg !3099
	%2189 = load float, float*  %2188, align 4, !tbaa !3106, !dbg !3099
	%2190 = getelementptr i8, i8*  %2164, i64 24, !dbg !3099
	%2191 = bitcast i8*  %2190 to float*, !dbg !3099
	store float  %2189, float*  %2191, align 4, !tbaa !3106, !dbg !3099
	%2192 = getelementptr i8, i8*  %2160, i64 28, !dbg !3099
	%2193 = bitcast i8*  %2192 to float*, !dbg !3099
	%2194 = load float, float*  %2193, align 4, !tbaa !3106, !dbg !3099
	%2195 = getelementptr i8, i8*  %2164, i64 28, !dbg !3099
	%2196 = bitcast i8*  %2195 to float*, !dbg !3099
	store float  %2194, float*  %2196, align 4, !tbaa !3106, !dbg !3099
	%2197 = add i32  %2000, 1, !dbg !3099
	%2198 = mul i32  %2197, 4, !dbg !3099
	%2199 = add i32  %2198, 2, !dbg !3099
	%2200 = zext i32  %2199 to i64, !dbg !3099
	%2201 = mul i64  %2200, 32, !dbg !3099
	%2202 = getelementptr i8, i8*  %1999, i64  %2201, !dbg !3099
	store i8*  %2202, i8**  %2006, align 8, !tbaa !3105, !dbg !3099
	%2203 = getelementptr i8, i8*  %2008, i64 128, !dbg !3099
	store i8*  %2203, i8**  %2009, align 8, !tbaa !3105, !dbg !3099
	%2204 = load float*, float** %..inline.addr.1690, align 8, !tbaa !3105, !dbg !3099
	%2205 = load float, float*  %2204, align 4, !tbaa !3106, !dbg !3099
	%2206 = load %struct._Z10Vec8SimpleIfE*, %struct._Z10Vec8SimpleIfE** %..inline.addr.1680, align 8, !tbaa !3105, !dbg !3099
	%2207 = bitcast %struct._Z10Vec8SimpleIfE*  %2206 to float*, !dbg !3099
	store float  %2205, float*  %2207, align 4, !tbaa !3106, !dbg !3099
	%2208 = bitcast float*  %2204 to i8*, !dbg !3099
	%2209 = getelementptr i8, i8*  %2208, i64 4, !dbg !3099
	%2210 = bitcast i8*  %2209 to float*, !dbg !3099
	%2211 = load float, float*  %2210, align 4, !tbaa !3106, !dbg !3099
	%2212 = bitcast %struct._Z10Vec8SimpleIfE*  %2206 to i8*, !dbg !3099
	%2213 = getelementptr i8, i8*  %2212, i64 4, !dbg !3099
	%2214 = bitcast i8*  %2213 to float*, !dbg !3099
	store float  %2211, float*  %2214, align 4, !tbaa !3106, !dbg !3099
	%2215 = getelementptr i8, i8*  %2208, i64 8, !dbg !3099
	%2216 = bitcast i8*  %2215 to float*, !dbg !3099
	%2217 = load float, float*  %2216, align 4, !tbaa !3106, !dbg !3099
	%2218 = getelementptr i8, i8*  %2212, i64 8, !dbg !3099
	%2219 = bitcast i8*  %2218 to float*, !dbg !3099
	store float  %2217, float*  %2219, align 4, !tbaa !3106, !dbg !3099
	%2220 = getelementptr i8, i8*  %2208, i64 12, !dbg !3099
	%2221 = bitcast i8*  %2220 to float*, !dbg !3099
	%2222 = load float, float*  %2221, align 4, !tbaa !3106, !dbg !3099
	%2223 = getelementptr i8, i8*  %2212, i64 12, !dbg !3099
	%2224 = bitcast i8*  %2223 to float*, !dbg !3099
	store float  %2222, float*  %2224, align 4, !tbaa !3106, !dbg !3099
	%2225 = getelementptr i8, i8*  %2208, i64 16, !dbg !3099
	%2226 = bitcast i8*  %2225 to float*, !dbg !3099
	%2227 = load float, float*  %2226, align 4, !tbaa !3106, !dbg !3099
	%2228 = getelementptr i8, i8*  %2212, i64 16, !dbg !3099
	%2229 = bitcast i8*  %2228 to float*, !dbg !3099
	store float  %2227, float*  %2229, align 4, !tbaa !3106, !dbg !3099
	%2230 = getelementptr i8, i8*  %2208, i64 20, !dbg !3099
	%2231 = bitcast i8*  %2230 to float*, !dbg !3099
	%2232 = load float, float*  %2231, align 4, !tbaa !3106, !dbg !3099
	%2233 = getelementptr i8, i8*  %2212, i64 20, !dbg !3099
	%2234 = bitcast i8*  %2233 to float*, !dbg !3099
	store float  %2232, float*  %2234, align 4, !tbaa !3106, !dbg !3099
	%2235 = getelementptr i8, i8*  %2208, i64 24, !dbg !3099
	%2236 = bitcast i8*  %2235 to float*, !dbg !3099
	%2237 = load float, float*  %2236, align 4, !tbaa !3106, !dbg !3099
	%2238 = getelementptr i8, i8*  %2212, i64 24, !dbg !3099
	%2239 = bitcast i8*  %2238 to float*, !dbg !3099
	store float  %2237, float*  %2239, align 4, !tbaa !3106, !dbg !3099
	%2240 = getelementptr i8, i8*  %2208, i64 28, !dbg !3099
	%2241 = bitcast i8*  %2240 to float*, !dbg !3099
	%2242 = load float, float*  %2241, align 4, !tbaa !3106, !dbg !3099
	%2243 = getelementptr i8, i8*  %2212, i64 28, !dbg !3099
	%2244 = bitcast i8*  %2243 to float*, !dbg !3099
	store float  %2242, float*  %2244, align 4, !tbaa !3106, !dbg !3099
	%2245 = load i32, i32* %.r1.0870.addr, align 4, !tbaa !3108, !dbg !3099
	%2246 = add i32  %2000, 1, !dbg !3099
	%2247 = mul i32  %2246, 4, !dbg !3099
	%2248 = add i32  %2245,  %2247, !dbg !3099
	%2249 = zext i32  %2248 to i64, !dbg !3099
	%2250 = mul i64  %2249, 32, !dbg !3099
	%2251 = getelementptr i8, i8*  %1999, i64  %2250, !dbg !3099
	store i8*  %2251, i8**  %2006, align 8, !tbaa !3105, !dbg !3099
	%2252 = getelementptr i8, i8*  %2008, i64 160, !dbg !3099
	store i8*  %2252, i8**  %2009, align 8, !tbaa !3105, !dbg !3099
	%2253 = load float*, float** %..inline.addr.1690, align 8, !tbaa !3105, !dbg !3099
	%2254 = load float, float*  %2253, align 4, !tbaa !3106, !dbg !3099
	%2255 = load %struct._Z10Vec8SimpleIfE*, %struct._Z10Vec8SimpleIfE** %..inline.addr.1680, align 8, !tbaa !3105, !dbg !3099
	%2256 = bitcast %struct._Z10Vec8SimpleIfE*  %2255 to float*, !dbg !3099
	store float  %2254, float*  %2256, align 4, !tbaa !3106, !dbg !3099
	%2257 = bitcast float*  %2253 to i8*, !dbg !3099
	%2258 = getelementptr i8, i8*  %2257, i64 4, !dbg !3099
	%2259 = bitcast i8*  %2258 to float*, !dbg !3099
	%2260 = load float, float*  %2259, align 4, !tbaa !3106, !dbg !3099
	%2261 = bitcast %struct._Z10Vec8SimpleIfE*  %2255 to i8*, !dbg !3099
	%2262 = getelementptr i8, i8*  %2261, i64 4, !dbg !3099
	%2263 = bitcast i8*  %2262 to float*, !dbg !3099
	store float  %2260, float*  %2263, align 4, !tbaa !3106, !dbg !3099
	%2264 = getelementptr i8, i8*  %2257, i64 8, !dbg !3099
	%2265 = bitcast i8*  %2264 to float*, !dbg !3099
	%2266 = load float, float*  %2265, align 4, !tbaa !3106, !dbg !3099
	%2267 = getelementptr i8, i8*  %2261, i64 8, !dbg !3099
	%2268 = bitcast i8*  %2267 to float*, !dbg !3099
	store float  %2266, float*  %2268, align 4, !tbaa !3106, !dbg !3099
	%2269 = getelementptr i8, i8*  %2257, i64 12, !dbg !3099
	%2270 = bitcast i8*  %2269 to float*, !dbg !3099
	%2271 = load float, float*  %2270, align 4, !tbaa !3106, !dbg !3099
	%2272 = getelementptr i8, i8*  %2261, i64 12, !dbg !3099
	%2273 = bitcast i8*  %2272 to float*, !dbg !3099
	store float  %2271, float*  %2273, align 4, !tbaa !3106, !dbg !3099
	%2274 = getelementptr i8, i8*  %2257, i64 16, !dbg !3099
	%2275 = bitcast i8*  %2274 to float*, !dbg !3099
	%2276 = load float, float*  %2275, align 4, !tbaa !3106, !dbg !3099
	%2277 = getelementptr i8, i8*  %2261, i64 16, !dbg !3099
	%2278 = bitcast i8*  %2277 to float*, !dbg !3099
	store float  %2276, float*  %2278, align 4, !tbaa !3106, !dbg !3099
	%2279 = getelementptr i8, i8*  %2257, i64 20, !dbg !3099
	%2280 = bitcast i8*  %2279 to float*, !dbg !3099
	%2281 = load float, float*  %2280, align 4, !tbaa !3106, !dbg !3099
	%2282 = getelementptr i8, i8*  %2261, i64 20, !dbg !3099
	%2283 = bitcast i8*  %2282 to float*, !dbg !3099
	store float  %2281, float*  %2283, align 4, !tbaa !3106, !dbg !3099
	%2284 = getelementptr i8, i8*  %2257, i64 24, !dbg !3099
	%2285 = bitcast i8*  %2284 to float*, !dbg !3099
	%2286 = load float, float*  %2285, align 4, !tbaa !3106, !dbg !3099
	%2287 = getelementptr i8, i8*  %2261, i64 24, !dbg !3099
	%2288 = bitcast i8*  %2287 to float*, !dbg !3099
	store float  %2286, float*  %2288, align 4, !tbaa !3106, !dbg !3099
	%2289 = getelementptr i8, i8*  %2257, i64 28, !dbg !3099
	%2290 = bitcast i8*  %2289 to float*, !dbg !3099
	%2291 = load float, float*  %2290, align 4, !tbaa !3106, !dbg !3099
	%2292 = getelementptr i8, i8*  %2261, i64 28, !dbg !3099
	%2293 = bitcast i8*  %2292 to float*, !dbg !3099
	store float  %2291, float*  %2293, align 4, !tbaa !3106, !dbg !3099
	%2294 = add i32  %2000, 1, !dbg !3099
	%2295 = mul i32  %2294, 4, !dbg !3099
	%2296 = add i32  %2295, 3, !dbg !3099
	%2297 = zext i32  %2296 to i64, !dbg !3099
	%2298 = mul i64  %2297, 32, !dbg !3099
	%2299 = getelementptr i8, i8*  %1999, i64  %2298, !dbg !3099
	store i8*  %2299, i8**  %2006, align 8, !tbaa !3105, !dbg !3099
	%2300 = getelementptr i8, i8*  %2008, i64 192, !dbg !3099
	store i8*  %2300, i8**  %2009, align 8, !tbaa !3105, !dbg !3099
	%2301 = load float*, float** %..inline.addr.1690, align 8, !tbaa !3105, !dbg !3099
	%2302 = load float, float*  %2301, align 4, !tbaa !3106, !dbg !3099
	%2303 = load %struct._Z10Vec8SimpleIfE*, %struct._Z10Vec8SimpleIfE** %..inline.addr.1680, align 8, !tbaa !3105, !dbg !3099
	%2304 = bitcast %struct._Z10Vec8SimpleIfE*  %2303 to float*, !dbg !3099
	store float  %2302, float*  %2304, align 4, !tbaa !3106, !dbg !3099
	%2305 = bitcast float*  %2301 to i8*, !dbg !3099
	%2306 = getelementptr i8, i8*  %2305, i64 4, !dbg !3099
	%2307 = bitcast i8*  %2306 to float*, !dbg !3099
	%2308 = load float, float*  %2307, align 4, !tbaa !3106, !dbg !3099
	%2309 = bitcast %struct._Z10Vec8SimpleIfE*  %2303 to i8*, !dbg !3099
	%2310 = getelementptr i8, i8*  %2309, i64 4, !dbg !3099
	%2311 = bitcast i8*  %2310 to float*, !dbg !3099
	store float  %2308, float*  %2311, align 4, !tbaa !3106, !dbg !3099
	%2312 = getelementptr i8, i8*  %2305, i64 8, !dbg !3099
	%2313 = bitcast i8*  %2312 to float*, !dbg !3099
	%2314 = load float, float*  %2313, align 4, !tbaa !3106, !dbg !3099
	%2315 = getelementptr i8, i8*  %2309, i64 8, !dbg !3099
	%2316 = bitcast i8*  %2315 to float*, !dbg !3099
	store float  %2314, float*  %2316, align 4, !tbaa !3106, !dbg !3099
	%2317 = getelementptr i8, i8*  %2305, i64 12, !dbg !3099
	%2318 = bitcast i8*  %2317 to float*, !dbg !3099
	%2319 = load float, float*  %2318, align 4, !tbaa !3106, !dbg !3099
	%2320 = getelementptr i8, i8*  %2309, i64 12, !dbg !3099
	%2321 = bitcast i8*  %2320 to float*, !dbg !3099
	store float  %2319, float*  %2321, align 4, !tbaa !3106, !dbg !3099
	%2322 = getelementptr i8, i8*  %2305, i64 16, !dbg !3099
	%2323 = bitcast i8*  %2322 to float*, !dbg !3099
	%2324 = load float, float*  %2323, align 4, !tbaa !3106, !dbg !3099
	%2325 = getelementptr i8, i8*  %2309, i64 16, !dbg !3099
	%2326 = bitcast i8*  %2325 to float*, !dbg !3099
	store float  %2324, float*  %2326, align 4, !tbaa !3106, !dbg !3099
	%2327 = getelementptr i8, i8*  %2305, i64 20, !dbg !3099
	%2328 = bitcast i8*  %2327 to float*, !dbg !3099
	%2329 = load float, float*  %2328, align 4, !tbaa !3106, !dbg !3099
	%2330 = getelementptr i8, i8*  %2309, i64 20, !dbg !3099
	%2331 = bitcast i8*  %2330 to float*, !dbg !3099
	store float  %2329, float*  %2331, align 4, !tbaa !3106, !dbg !3099
	%2332 = getelementptr i8, i8*  %2305, i64 24, !dbg !3099
	%2333 = bitcast i8*  %2332 to float*, !dbg !3099
	%2334 = load float, float*  %2333, align 4, !tbaa !3106, !dbg !3099
	%2335 = getelementptr i8, i8*  %2309, i64 24, !dbg !3099
	%2336 = bitcast i8*  %2335 to float*, !dbg !3099
	store float  %2334, float*  %2336, align 4, !tbaa !3106, !dbg !3099
	%2337 = getelementptr i8, i8*  %2305, i64 28, !dbg !3099
	%2338 = bitcast i8*  %2337 to float*, !dbg !3099
	%2339 = load float, float*  %2338, align 4, !tbaa !3106, !dbg !3099
	%2340 = getelementptr i8, i8*  %2309, i64 28, !dbg !3099
	%2341 = bitcast i8*  %2340 to float*, !dbg !3099
	store float  %2339, float*  %2341, align 4, !tbaa !3106, !dbg !3099
	%2342 = load i32, i32* %.r1.1087.addr, align 4, !tbaa !3108, !dbg !3099
	%2343 = add i32  %2000, 1, !dbg !3099
	%2344 = mul i32  %2343, 4, !dbg !3099
	%2345 = add i32  %2342,  %2344, !dbg !3099
	%2346 = zext i32  %2345 to i64, !dbg !3099
	%2347 = mul i64  %2346, 32, !dbg !3099
	%2348 = getelementptr i8, i8*  %1999, i64  %2347, !dbg !3099
	store i8*  %2348, i8**  %2006, align 8, !tbaa !3105, !dbg !3099
	%2349 = getelementptr i8, i8*  %2008, i64 224, !dbg !3099
	store i8*  %2349, i8**  %2009, align 8, !tbaa !3105, !dbg !3099
	%2350 = load float*, float** %..inline.addr.1690, align 8, !tbaa !3105, !dbg !3099
	%2351 = load float, float*  %2350, align 4, !tbaa !3106, !dbg !3099
	%2352 = load %struct._Z10Vec8SimpleIfE*, %struct._Z10Vec8SimpleIfE** %..inline.addr.1680, align 8, !tbaa !3105, !dbg !3099
	%2353 = bitcast %struct._Z10Vec8SimpleIfE*  %2352 to float*, !dbg !3099
	store float  %2351, float*  %2353, align 4, !tbaa !3106, !dbg !3099
	%2354 = bitcast float*  %2350 to i8*, !dbg !3099
	%2355 = getelementptr i8, i8*  %2354, i64 4, !dbg !3099
	%2356 = bitcast i8*  %2355 to float*, !dbg !3099
	%2357 = load float, float*  %2356, align 4, !tbaa !3106, !dbg !3099
	%2358 = bitcast %struct._Z10Vec8SimpleIfE*  %2352 to i8*, !dbg !3099
	%2359 = getelementptr i8, i8*  %2358, i64 4, !dbg !3099
	%2360 = bitcast i8*  %2359 to float*, !dbg !3099
	store float  %2357, float*  %2360, align 4, !tbaa !3106, !dbg !3099
	%2361 = getelementptr i8, i8*  %2354, i64 8, !dbg !3099
	%2362 = bitcast i8*  %2361 to float*, !dbg !3099
	%2363 = load float, float*  %2362, align 4, !tbaa !3106, !dbg !3099
	%2364 = getelementptr i8, i8*  %2358, i64 8, !dbg !3099
	%2365 = bitcast i8*  %2364 to float*, !dbg !3099
	store float  %2363, float*  %2365, align 4, !tbaa !3106, !dbg !3099
	%2366 = getelementptr i8, i8*  %2354, i64 12, !dbg !3099
	%2367 = bitcast i8*  %2366 to float*, !dbg !3099
	%2368 = load float, float*  %2367, align 4, !tbaa !3106, !dbg !3099
	%2369 = getelementptr i8, i8*  %2358, i64 12, !dbg !3099
	%2370 = bitcast i8*  %2369 to float*, !dbg !3099
	store float  %2368, float*  %2370, align 4, !tbaa !3106, !dbg !3099
	%2371 = getelementptr i8, i8*  %2354, i64 16, !dbg !3099
	%2372 = bitcast i8*  %2371 to float*, !dbg !3099
	%2373 = load float, float*  %2372, align 4, !tbaa !3106, !dbg !3099
	%2374 = getelementptr i8, i8*  %2358, i64 16, !dbg !3099
	%2375 = bitcast i8*  %2374 to float*, !dbg !3099
	store float  %2373, float*  %2375, align 4, !tbaa !3106, !dbg !3099
	%2376 = getelementptr i8, i8*  %2354, i64 20, !dbg !3099
	%2377 = bitcast i8*  %2376 to float*, !dbg !3099
	%2378 = load float, float*  %2377, align 4, !tbaa !3106, !dbg !3099
	%2379 = getelementptr i8, i8*  %2358, i64 20, !dbg !3099
	%2380 = bitcast i8*  %2379 to float*, !dbg !3099
	store float  %2378, float*  %2380, align 4, !tbaa !3106, !dbg !3099
	%2381 = getelementptr i8, i8*  %2354, i64 24, !dbg !3099
	%2382 = bitcast i8*  %2381 to float*, !dbg !3099
	%2383 = load float, float*  %2382, align 4, !tbaa !3106, !dbg !3099
	%2384 = getelementptr i8, i8*  %2358, i64 24, !dbg !3099
	%2385 = bitcast i8*  %2384 to float*, !dbg !3099
	store float  %2383, float*  %2385, align 4, !tbaa !3106, !dbg !3099
	%2386 = getelementptr i8, i8*  %2354, i64 28, !dbg !3099
	%2387 = bitcast i8*  %2386 to float*, !dbg !3099
	%2388 = load float, float*  %2387, align 4, !tbaa !3106, !dbg !3099
	%2389 = getelementptr i8, i8*  %2358, i64 28, !dbg !3099
	%2390 = bitcast i8*  %2389 to float*, !dbg !3099
	store float  %2388, float*  %2390, align 4, !tbaa !3106, !dbg !3099
	%2391 = bitcast i32 (...)* @__c_mzero4 to i32 (i8*, i64, ...)*, !dbg !3100
	%2392 = call i32 (i8*, i64, ...)  %2391 (i8*  %2008, i64 64) nounwind, !dbg !3100
	%2393 = load i32, i32* %block_k.addr.2, align 4, !tbaa !3108, !dbg !3101
	%2394 = add i32  %2393, 1, !dbg !3101
	store i32  %2394, i32* %block_k.addr.2, align 4, !tbaa !3108, !dbg !3101
	%2395 = load i32, i32* %.x0001.addr, align 4, !tbaa !3108, !dbg !3093
	%2396 = sub i32  %2395, 1, !dbg !3093
	store i32  %2396, i32* %.x0001.addr, align 4, !tbaa !3108, !dbg !3093
	%2397 = icmp ne i32  %2396, 0, !dbg !3101
	br i1  %2397, label %L.B0073, label %L.B0074, !dbg !3101
L.B0074:
	br label %L.B0070
L.B0070:
	ret void, !dbg !3102
}
define linkonce_odr void @_ZN10Vec8SimpleIfEC1Ef(%struct._Z10Vec8SimpleIfE* %_T43482752_18872.arg, float %x.arg) #0 inlinehint !dbg !3114 {
L.entry:
	%_T43482752_18872.addr = alloca %struct._Z10Vec8SimpleIfE*, align 8
	%x.addr = alloca float, align 4

	call void @llvm.dbg.declare (metadata %struct._Z10Vec8SimpleIfE** %_T43482752_18872.addr, metadata !3120, metadata !3019), !dbg !3115
	store %struct._Z10Vec8SimpleIfE* %_T43482752_18872.arg, %struct._Z10Vec8SimpleIfE** %_T43482752_18872.addr, align 8, !tbaa !3105
	call void @llvm.dbg.declare (metadata %struct._Z10Vec8SimpleIfE** %_T43482752_18872.addr, metadata !3121, metadata !3019), !dbg !3115
	call void @llvm.dbg.declare (metadata float* %x.addr, metadata !3122, metadata !3019), !dbg !3115
	store float %x.arg, float* %x.addr, align 4, !tbaa !3106
	call void @llvm.dbg.declare (metadata float* %x.addr, metadata !3123, metadata !3019), !dbg !3115
	%0 = load float, float* %x.addr, align 4, !tbaa !3127, !dbg !3124
	%1 = load %struct._Z10Vec8SimpleIfE*, %struct._Z10Vec8SimpleIfE** %_T43482752_18872.addr, align 8, !tbaa !3105, !dbg !3124
	%2 = bitcast %struct._Z10Vec8SimpleIfE*  %1 to float*, !dbg !3124
	store float  %0, float*  %2, align 4, !tbaa !3106, !dbg !3124
	%3 = bitcast %struct._Z10Vec8SimpleIfE*  %1 to i8*, !dbg !3124
	%4 = getelementptr i8, i8*  %3, i64 4, !dbg !3124
	%5 = bitcast i8*  %4 to float*, !dbg !3124
	store float  %0, float*  %5, align 4, !tbaa !3106, !dbg !3124
	%6 = getelementptr i8, i8*  %3, i64 8, !dbg !3124
	%7 = bitcast i8*  %6 to float*, !dbg !3124
	store float  %0, float*  %7, align 4, !tbaa !3106, !dbg !3124
	%8 = getelementptr i8, i8*  %3, i64 12, !dbg !3124
	%9 = bitcast i8*  %8 to float*, !dbg !3124
	store float  %0, float*  %9, align 4, !tbaa !3106, !dbg !3124
	%10 = getelementptr i8, i8*  %3, i64 16, !dbg !3124
	%11 = bitcast i8*  %10 to float*, !dbg !3124
	store float  %0, float*  %11, align 4, !tbaa !3106, !dbg !3124
	%12 = getelementptr i8, i8*  %3, i64 20, !dbg !3124
	%13 = bitcast i8*  %12 to float*, !dbg !3124
	store float  %0, float*  %13, align 4, !tbaa !3106, !dbg !3124
	%14 = getelementptr i8, i8*  %3, i64 24, !dbg !3124
	%15 = bitcast i8*  %14 to float*, !dbg !3124
	store float  %0, float*  %15, align 4, !tbaa !3106, !dbg !3124
	%16 = getelementptr i8, i8*  %3, i64 28, !dbg !3124
	%17 = bitcast i8*  %16 to float*, !dbg !3124
	store float  %0, float*  %17, align 4, !tbaa !3106, !dbg !3124
	ret void, !dbg !3125
}
define linkonce_odr void @_ZN10Vec8SimpleIfEC2Ef(%struct._Z10Vec8SimpleIfE* %_T43482568_18873.arg, float %_T43482864_18873.arg) #0 inlinehint !dbg !3129 {
L.entry:
	%_T43482568_18873.addr = alloca %struct._Z10Vec8SimpleIfE*, align 8
	%_T43482864_18873.addr = alloca float, align 4
	%..inline.addr = alloca %struct._Z10Vec8SimpleIfE*, align 8
	%..inline.addr.1 = alloca float, align 4

	store %struct._Z10Vec8SimpleIfE* %_T43482568_18873.arg, %struct._Z10Vec8SimpleIfE** %_T43482568_18873.addr, align 8, !tbaa !3105
	store float %_T43482864_18873.arg, float* %_T43482864_18873.addr, align 4, !tbaa !3106
	%0 = load %struct._Z10Vec8SimpleIfE*, %struct._Z10Vec8SimpleIfE** %_T43482568_18873.addr, align 8, !tbaa !3105, !dbg !3141
	%1 = bitcast %struct._Z10Vec8SimpleIfE*  %0 to i8*, !dbg !3141
	%2 = bitcast %struct._Z10Vec8SimpleIfE** %..inline.addr to i8**, !dbg !3141
	store i8*  %1, i8**  %2, align 8, !tbaa !3105, !dbg !3141
	%3 = load float, float* %_T43482864_18873.addr, align 4, !tbaa !3127, !dbg !3141
	%4 = load %struct._Z10Vec8SimpleIfE*, %struct._Z10Vec8SimpleIfE** %..inline.addr, align 8, !tbaa !3105, !dbg !3141
	%5 = bitcast %struct._Z10Vec8SimpleIfE*  %4 to float*, !dbg !3141
	store float  %3, float*  %5, align 4, !tbaa !3106, !dbg !3141
	%6 = bitcast %struct._Z10Vec8SimpleIfE*  %4 to i8*, !dbg !3141
	%7 = getelementptr i8, i8*  %6, i64 4, !dbg !3141
	%8 = bitcast i8*  %7 to float*, !dbg !3141
	store float  %3, float*  %8, align 4, !tbaa !3106, !dbg !3141
	%9 = getelementptr i8, i8*  %6, i64 8, !dbg !3141
	%10 = bitcast i8*  %9 to float*, !dbg !3141
	store float  %3, float*  %10, align 4, !tbaa !3106, !dbg !3141
	%11 = getelementptr i8, i8*  %6, i64 12, !dbg !3141
	%12 = bitcast i8*  %11 to float*, !dbg !3141
	store float  %3, float*  %12, align 4, !tbaa !3106, !dbg !3141
	%13 = getelementptr i8, i8*  %6, i64 16, !dbg !3141
	%14 = bitcast i8*  %13 to float*, !dbg !3141
	store float  %3, float*  %14, align 4, !tbaa !3106, !dbg !3141
	%15 = getelementptr i8, i8*  %6, i64 20, !dbg !3141
	%16 = bitcast i8*  %15 to float*, !dbg !3141
	store float  %3, float*  %16, align 4, !tbaa !3106, !dbg !3141
	%17 = getelementptr i8, i8*  %6, i64 24, !dbg !3141
	%18 = bitcast i8*  %17 to float*, !dbg !3141
	store float  %3, float*  %18, align 4, !tbaa !3106, !dbg !3141
	%19 = getelementptr i8, i8*  %6, i64 28, !dbg !3141
	%20 = bitcast i8*  %19 to float*, !dbg !3141
	store float  %3, float*  %20, align 4, !tbaa !3106, !dbg !3141
	ret void, !dbg !3142
}
define linkonce_odr void @_ZN10Vec8SimpleIfEC1Effffffff(%struct._Z10Vec8SimpleIfE* %_T43484040_18874.arg, float %a.arg, float %b.arg, float %c.arg, float %d.arg, float %e.arg, float %f.arg, float %g.arg, float %h.arg) #0 inlinehint !dbg !3146 {
L.entry:
	%_T43484040_18874.addr = alloca %struct._Z10Vec8SimpleIfE*, align 8
	%a.addr = alloca float, align 4
	%b.addr = alloca float, align 4
	%c.addr = alloca float, align 4
	%d.addr = alloca float, align 4
	%e.addr = alloca float, align 4
	%f.addr = alloca float, align 4
	%g.addr = alloca float, align 4
	%h.addr = alloca float, align 4

	call void @llvm.dbg.declare (metadata %struct._Z10Vec8SimpleIfE** %_T43484040_18874.addr, metadata !3150, metadata !3019), !dbg !3147
	store %struct._Z10Vec8SimpleIfE* %_T43484040_18874.arg, %struct._Z10Vec8SimpleIfE** %_T43484040_18874.addr, align 8, !tbaa !3105
	call void @llvm.dbg.declare (metadata %struct._Z10Vec8SimpleIfE** %_T43484040_18874.addr, metadata !3151, metadata !3019), !dbg !3147
	call void @llvm.dbg.declare (metadata float* %a.addr, metadata !3152, metadata !3019), !dbg !3147
	store float %a.arg, float* %a.addr, align 4, !tbaa !3106
	call void @llvm.dbg.declare (metadata float* %a.addr, metadata !3153, metadata !3019), !dbg !3147
	call void @llvm.dbg.declare (metadata float* %b.addr, metadata !3154, metadata !3019), !dbg !3147
	store float %b.arg, float* %b.addr, align 4, !tbaa !3106
	call void @llvm.dbg.declare (metadata float* %b.addr, metadata !3155, metadata !3019), !dbg !3147
	call void @llvm.dbg.declare (metadata float* %c.addr, metadata !3156, metadata !3019), !dbg !3147
	store float %c.arg, float* %c.addr, align 4, !tbaa !3106
	call void @llvm.dbg.declare (metadata float* %c.addr, metadata !3157, metadata !3019), !dbg !3147
	call void @llvm.dbg.declare (metadata float* %d.addr, metadata !3158, metadata !3019), !dbg !3147
	store float %d.arg, float* %d.addr, align 4, !tbaa !3106
	call void @llvm.dbg.declare (metadata float* %d.addr, metadata !3159, metadata !3019), !dbg !3147
	call void @llvm.dbg.declare (metadata float* %e.addr, metadata !3160, metadata !3019), !dbg !3147
	store float %e.arg, float* %e.addr, align 4, !tbaa !3106
	call void @llvm.dbg.declare (metadata float* %e.addr, metadata !3161, metadata !3019), !dbg !3147
	call void @llvm.dbg.declare (metadata float* %f.addr, metadata !3162, metadata !3019), !dbg !3147
	store float %f.arg, float* %f.addr, align 4, !tbaa !3106
	call void @llvm.dbg.declare (metadata float* %f.addr, metadata !3163, metadata !3019), !dbg !3147
	call void @llvm.dbg.declare (metadata float* %g.addr, metadata !3164, metadata !3019), !dbg !3147
	store float %g.arg, float* %g.addr, align 4, !tbaa !3106
	call void @llvm.dbg.declare (metadata float* %g.addr, metadata !3165, metadata !3019), !dbg !3147
	call void @llvm.dbg.declare (metadata float* %h.addr, metadata !3166, metadata !3019), !dbg !3147
	store float %h.arg, float* %h.addr, align 4, !tbaa !3106
	call void @llvm.dbg.declare (metadata float* %h.addr, metadata !3167, metadata !3019), !dbg !3147
	%0 = load float, float* %a.addr, align 4, !tbaa !3127, !dbg !3168
	%1 = load %struct._Z10Vec8SimpleIfE*, %struct._Z10Vec8SimpleIfE** %_T43484040_18874.addr, align 8, !tbaa !3105, !dbg !3168
	%2 = bitcast %struct._Z10Vec8SimpleIfE*  %1 to float*, !dbg !3168
	store float  %0, float*  %2, align 4, !tbaa !3106, !dbg !3168
	%3 = load float, float* %b.addr, align 4, !tbaa !3127, !dbg !3169
	%4 = bitcast %struct._Z10Vec8SimpleIfE*  %1 to i8*, !dbg !3169
	%5 = getelementptr i8, i8*  %4, i64 4, !dbg !3169
	%6 = bitcast i8*  %5 to float*, !dbg !3169
	store float  %3, float*  %6, align 4, !tbaa !3106, !dbg !3169
	%7 = load float, float* %c.addr, align 4, !tbaa !3127, !dbg !3170
	%8 = getelementptr i8, i8*  %4, i64 8, !dbg !3170
	%9 = bitcast i8*  %8 to float*, !dbg !3170
	store float  %7, float*  %9, align 4, !tbaa !3106, !dbg !3170
	%10 = load float, float* %d.addr, align 4, !tbaa !3127, !dbg !3171
	%11 = getelementptr i8, i8*  %4, i64 12, !dbg !3171
	%12 = bitcast i8*  %11 to float*, !dbg !3171
	store float  %10, float*  %12, align 4, !tbaa !3106, !dbg !3171
	%13 = load float, float* %e.addr, align 4, !tbaa !3127, !dbg !3172
	%14 = getelementptr i8, i8*  %4, i64 16, !dbg !3172
	%15 = bitcast i8*  %14 to float*, !dbg !3172
	store float  %13, float*  %15, align 4, !tbaa !3106, !dbg !3172
	%16 = load float, float* %f.addr, align 4, !tbaa !3127, !dbg !3173
	%17 = getelementptr i8, i8*  %4, i64 20, !dbg !3173
	%18 = bitcast i8*  %17 to float*, !dbg !3173
	store float  %16, float*  %18, align 4, !tbaa !3106, !dbg !3173
	%19 = load float, float* %g.addr, align 4, !tbaa !3127, !dbg !3174
	%20 = getelementptr i8, i8*  %4, i64 24, !dbg !3174
	%21 = bitcast i8*  %20 to float*, !dbg !3174
	store float  %19, float*  %21, align 4, !tbaa !3106, !dbg !3174
	%22 = load float, float* %h.addr, align 4, !tbaa !3127, !dbg !3175
	%23 = getelementptr i8, i8*  %4, i64 28, !dbg !3175
	%24 = bitcast i8*  %23 to float*, !dbg !3175
	store float  %22, float*  %24, align 4, !tbaa !3106, !dbg !3175
	ret void, !dbg !3176
}
define linkonce_odr void @_ZN10Vec8SimpleIfEC2Effffffff(%struct._Z10Vec8SimpleIfE* %_T43482568_18875.arg, float %_T43482864_18875.arg, float %_T43483160_18875.arg, float %_T43483456_18875.arg, float %_T43483752_18875.arg, float %_T43484048_18875.arg, float %_T43484344_18875.arg, float %_T43484640_18875.arg, float %_T43484936_18875.arg) #0 inlinehint !dbg !3178 {
L.entry:
	%_T43482568_18875.addr = alloca %struct._Z10Vec8SimpleIfE*, align 8
	%_T43482864_18875.addr = alloca float, align 4
	%_T43483160_18875.addr = alloca float, align 4
	%_T43483456_18875.addr = alloca float, align 4
	%_T43483752_18875.addr = alloca float, align 4
	%_T43484048_18875.addr = alloca float, align 4
	%_T43484344_18875.addr = alloca float, align 4
	%_T43484640_18875.addr = alloca float, align 4
	%_T43484936_18875.addr = alloca float, align 4
	%..inline.addr = alloca %struct._Z10Vec8SimpleIfE*, align 8
	%..inline.addr.1 = alloca float, align 4
	%..inline.addr.2 = alloca float, align 4
	%..inline.addr.3 = alloca float, align 4
	%..inline.addr.4 = alloca float, align 4
	%..inline.addr.5 = alloca float, align 4
	%..inline.addr.6 = alloca float, align 4
	%..inline.addr.7 = alloca float, align 4

	store %struct._Z10Vec8SimpleIfE* %_T43482568_18875.arg, %struct._Z10Vec8SimpleIfE** %_T43482568_18875.addr, align 8, !tbaa !3105
	store float %_T43482864_18875.arg, float* %_T43482864_18875.addr, align 4, !tbaa !3106
	store float %_T43483160_18875.arg, float* %_T43483160_18875.addr, align 4, !tbaa !3106
	store float %_T43483456_18875.arg, float* %_T43483456_18875.addr, align 4, !tbaa !3106
	store float %_T43483752_18875.arg, float* %_T43483752_18875.addr, align 4, !tbaa !3106
	store float %_T43484048_18875.arg, float* %_T43484048_18875.addr, align 4, !tbaa !3106
	store float %_T43484344_18875.arg, float* %_T43484344_18875.addr, align 4, !tbaa !3106
	store float %_T43484640_18875.arg, float* %_T43484640_18875.addr, align 4, !tbaa !3106
	store float %_T43484936_18875.arg, float* %_T43484936_18875.addr, align 4, !tbaa !3106
	%0 = load %struct._Z10Vec8SimpleIfE*, %struct._Z10Vec8SimpleIfE** %_T43482568_18875.addr, align 8, !tbaa !3105, !dbg !3186
	%1 = bitcast %struct._Z10Vec8SimpleIfE*  %0 to i8*, !dbg !3186
	%2 = bitcast %struct._Z10Vec8SimpleIfE** %..inline.addr to i8**, !dbg !3186
	store i8*  %1, i8**  %2, align 8, !tbaa !3105, !dbg !3186
	%3 = load float, float* %_T43483160_18875.addr, align 4, !tbaa !3127, !dbg !3186
	%4 = load float, float* %_T43483456_18875.addr, align 4, !tbaa !3127, !dbg !3186
	%5 = load float, float* %_T43483752_18875.addr, align 4, !tbaa !3127, !dbg !3186
	%6 = load float, float* %_T43484048_18875.addr, align 4, !tbaa !3127, !dbg !3186
	%7 = load float, float* %_T43484344_18875.addr, align 4, !tbaa !3127, !dbg !3186
	%8 = load float, float* %_T43484640_18875.addr, align 4, !tbaa !3127, !dbg !3186
	%9 = load float, float* %_T43484936_18875.addr, align 4, !tbaa !3127, !dbg !3186
	%10 = load float, float* %_T43482864_18875.addr, align 4, !tbaa !3127, !dbg !3186
	%11 = bitcast %struct._Z10Vec8SimpleIfE*  %0 to float*, !dbg !3186
	store float  %10, float*  %11, align 4, !tbaa !3106, !dbg !3186
	%12 = load %struct._Z10Vec8SimpleIfE*, %struct._Z10Vec8SimpleIfE** %..inline.addr, align 8, !tbaa !3105, !dbg !3187
	%13 = bitcast %struct._Z10Vec8SimpleIfE*  %12 to i8*, !dbg !3187
	%14 = getelementptr i8, i8*  %13, i64 4, !dbg !3187
	%15 = bitcast i8*  %14 to float*, !dbg !3187
	store float  %3, float*  %15, align 4, !tbaa !3106, !dbg !3187
	%16 = getelementptr i8, i8*  %13, i64 8, !dbg !3188
	%17 = bitcast i8*  %16 to float*, !dbg !3188
	store float  %4, float*  %17, align 4, !tbaa !3106, !dbg !3188
	%18 = getelementptr i8, i8*  %13, i64 12, !dbg !3189
	%19 = bitcast i8*  %18 to float*, !dbg !3189
	store float  %5, float*  %19, align 4, !tbaa !3106, !dbg !3189
	%20 = getelementptr i8, i8*  %13, i64 16, !dbg !3190
	%21 = bitcast i8*  %20 to float*, !dbg !3190
	store float  %6, float*  %21, align 4, !tbaa !3106, !dbg !3190
	%22 = getelementptr i8, i8*  %13, i64 20, !dbg !3191
	%23 = bitcast i8*  %22 to float*, !dbg !3191
	store float  %7, float*  %23, align 4, !tbaa !3106, !dbg !3191
	%24 = getelementptr i8, i8*  %13, i64 24, !dbg !3192
	%25 = bitcast i8*  %24 to float*, !dbg !3192
	store float  %8, float*  %25, align 4, !tbaa !3106, !dbg !3192
	%26 = getelementptr i8, i8*  %13, i64 28, !dbg !3193
	%27 = bitcast i8*  %26 to float*, !dbg !3193
	store float  %9, float*  %27, align 4, !tbaa !3106, !dbg !3193
	ret void, !dbg !3186
}
define linkonce_odr %struct._Z10Vec8SimpleIfE* @_ZN10Vec8SimpleIfE4loadEPKf(%struct._Z10Vec8SimpleIfE* %_T43482752_18876.arg, float* %p.arg) #0 inlinehint !dbg !3197 {
L.entry:
	%_T43482752_18876.addr = alloca %struct._Z10Vec8SimpleIfE*, align 8
	%p.addr = alloca float*, align 8

	call void @llvm.dbg.declare (metadata %struct._Z10Vec8SimpleIfE** %_T43482752_18876.addr, metadata !3203, metadata !3019), !dbg !3198
	store %struct._Z10Vec8SimpleIfE* %_T43482752_18876.arg, %struct._Z10Vec8SimpleIfE** %_T43482752_18876.addr, align 8, !tbaa !3105
	call void @llvm.dbg.declare (metadata %struct._Z10Vec8SimpleIfE** %_T43482752_18876.addr, metadata !3204, metadata !3019), !dbg !3198
	call void @llvm.dbg.declare (metadata float** %p.addr, metadata !3205, metadata !3019), !dbg !3198
	store float* %p.arg, float** %p.addr, align 8, !tbaa !3105
	call void @llvm.dbg.declare (metadata float** %p.addr, metadata !3206, metadata !3019), !dbg !3198
	%0 = load float*, float** %p.addr, align 8, !tbaa !3105, !dbg !3207
	%1 = load float, float*  %0, align 4, !tbaa !3106, !dbg !3207
	%2 = load %struct._Z10Vec8SimpleIfE*, %struct._Z10Vec8SimpleIfE** %_T43482752_18876.addr, align 8, !tbaa !3105, !dbg !3207
	%3 = bitcast %struct._Z10Vec8SimpleIfE*  %2 to float*, !dbg !3207
	store float  %1, float*  %3, align 4, !tbaa !3106, !dbg !3207
	%4 = bitcast float*  %0 to i8*, !dbg !3207
	%5 = getelementptr i8, i8*  %4, i64 4, !dbg !3207
	%6 = bitcast i8*  %5 to float*, !dbg !3207
	%7 = load float, float*  %6, align 4, !tbaa !3106, !dbg !3207
	%8 = bitcast %struct._Z10Vec8SimpleIfE*  %2 to i8*, !dbg !3207
	%9 = getelementptr i8, i8*  %8, i64 4, !dbg !3207
	%10 = bitcast i8*  %9 to float*, !dbg !3207
	store float  %7, float*  %10, align 4, !tbaa !3106, !dbg !3207
	%11 = getelementptr i8, i8*  %4, i64 8, !dbg !3207
	%12 = bitcast i8*  %11 to float*, !dbg !3207
	%13 = load float, float*  %12, align 4, !tbaa !3106, !dbg !3207
	%14 = getelementptr i8, i8*  %8, i64 8, !dbg !3207
	%15 = bitcast i8*  %14 to float*, !dbg !3207
	store float  %13, float*  %15, align 4, !tbaa !3106, !dbg !3207
	%16 = getelementptr i8, i8*  %4, i64 12, !dbg !3207
	%17 = bitcast i8*  %16 to float*, !dbg !3207
	%18 = load float, float*  %17, align 4, !tbaa !3106, !dbg !3207
	%19 = getelementptr i8, i8*  %8, i64 12, !dbg !3207
	%20 = bitcast i8*  %19 to float*, !dbg !3207
	store float  %18, float*  %20, align 4, !tbaa !3106, !dbg !3207
	%21 = getelementptr i8, i8*  %4, i64 16, !dbg !3207
	%22 = bitcast i8*  %21 to float*, !dbg !3207
	%23 = load float, float*  %22, align 4, !tbaa !3106, !dbg !3207
	%24 = getelementptr i8, i8*  %8, i64 16, !dbg !3207
	%25 = bitcast i8*  %24 to float*, !dbg !3207
	store float  %23, float*  %25, align 4, !tbaa !3106, !dbg !3207
	%26 = getelementptr i8, i8*  %4, i64 20, !dbg !3207
	%27 = bitcast i8*  %26 to float*, !dbg !3207
	%28 = load float, float*  %27, align 4, !tbaa !3106, !dbg !3207
	%29 = getelementptr i8, i8*  %8, i64 20, !dbg !3207
	%30 = bitcast i8*  %29 to float*, !dbg !3207
	store float  %28, float*  %30, align 4, !tbaa !3106, !dbg !3207
	%31 = getelementptr i8, i8*  %4, i64 24, !dbg !3207
	%32 = bitcast i8*  %31 to float*, !dbg !3207
	%33 = load float, float*  %32, align 4, !tbaa !3106, !dbg !3207
	%34 = getelementptr i8, i8*  %8, i64 24, !dbg !3207
	%35 = bitcast i8*  %34 to float*, !dbg !3207
	store float  %33, float*  %35, align 4, !tbaa !3106, !dbg !3207
	%36 = getelementptr i8, i8*  %4, i64 28, !dbg !3207
	%37 = bitcast i8*  %36 to float*, !dbg !3207
	%38 = load float, float*  %37, align 4, !tbaa !3106, !dbg !3207
	%39 = getelementptr i8, i8*  %8, i64 28, !dbg !3207
	%40 = bitcast i8*  %39 to float*, !dbg !3207
	store float  %38, float*  %40, align 4, !tbaa !3106, !dbg !3207
	ret %struct._Z10Vec8SimpleIfE*  %2, !dbg !3208
}
define linkonce_odr %struct._Z10Vec8SimpleIfE* @_ZN10Vec8SimpleIfEaSERKS0_(%struct._Z10Vec8SimpleIfE* %_T43482752_18877.arg, %struct._Z10Vec8SimpleIfE* %r.arg) #0 inlinehint !dbg !3217 {
L.entry:
	%_T43482752_18877.addr = alloca %struct._Z10Vec8SimpleIfE*, align 8
	%r.addr = alloca %struct._Z10Vec8SimpleIfE*, align 8

	call void @llvm.dbg.declare (metadata %struct._Z10Vec8SimpleIfE** %_T43482752_18877.addr, metadata !3223, metadata !3019), !dbg !3218
	store %struct._Z10Vec8SimpleIfE* %_T43482752_18877.arg, %struct._Z10Vec8SimpleIfE** %_T43482752_18877.addr, align 8, !tbaa !3105
	call void @llvm.dbg.declare (metadata %struct._Z10Vec8SimpleIfE** %_T43482752_18877.addr, metadata !3224, metadata !3019), !dbg !3218
	call void @llvm.dbg.declare (metadata %struct._Z10Vec8SimpleIfE** %r.addr, metadata !3225, metadata !3019), !dbg !3218
	store %struct._Z10Vec8SimpleIfE* %r.arg, %struct._Z10Vec8SimpleIfE** %r.addr, align 8, !tbaa !3105
	call void @llvm.dbg.declare (metadata %struct._Z10Vec8SimpleIfE** %r.addr, metadata !3226, metadata !3019), !dbg !3218
	%0 = load %struct._Z10Vec8SimpleIfE*, %struct._Z10Vec8SimpleIfE** %r.addr, align 8, !tbaa !3105, !dbg !3227
	%1 = bitcast %struct._Z10Vec8SimpleIfE*  %0 to float*, !dbg !3227
	%2 = load float, float*  %1, align 4, !tbaa !3106, !dbg !3227
	%3 = load %struct._Z10Vec8SimpleIfE*, %struct._Z10Vec8SimpleIfE** %_T43482752_18877.addr, align 8, !tbaa !3105, !dbg !3227
	%4 = bitcast %struct._Z10Vec8SimpleIfE*  %3 to float*, !dbg !3227
	store float  %2, float*  %4, align 4, !tbaa !3106, !dbg !3227
	%5 = bitcast %struct._Z10Vec8SimpleIfE*  %0 to i8*, !dbg !3227
	%6 = getelementptr i8, i8*  %5, i64 4, !dbg !3227
	%7 = bitcast i8*  %6 to float*, !dbg !3227
	%8 = load float, float*  %7, align 4, !tbaa !3106, !dbg !3227
	%9 = bitcast %struct._Z10Vec8SimpleIfE*  %3 to i8*, !dbg !3227
	%10 = getelementptr i8, i8*  %9, i64 4, !dbg !3227
	%11 = bitcast i8*  %10 to float*, !dbg !3227
	store float  %8, float*  %11, align 4, !tbaa !3106, !dbg !3227
	%12 = getelementptr i8, i8*  %5, i64 8, !dbg !3227
	%13 = bitcast i8*  %12 to float*, !dbg !3227
	%14 = load float, float*  %13, align 4, !tbaa !3106, !dbg !3227
	%15 = getelementptr i8, i8*  %9, i64 8, !dbg !3227
	%16 = bitcast i8*  %15 to float*, !dbg !3227
	store float  %14, float*  %16, align 4, !tbaa !3106, !dbg !3227
	%17 = getelementptr i8, i8*  %5, i64 12, !dbg !3227
	%18 = bitcast i8*  %17 to float*, !dbg !3227
	%19 = load float, float*  %18, align 4, !tbaa !3106, !dbg !3227
	%20 = getelementptr i8, i8*  %9, i64 12, !dbg !3227
	%21 = bitcast i8*  %20 to float*, !dbg !3227
	store float  %19, float*  %21, align 4, !tbaa !3106, !dbg !3227
	%22 = getelementptr i8, i8*  %5, i64 16, !dbg !3227
	%23 = bitcast i8*  %22 to float*, !dbg !3227
	%24 = load float, float*  %23, align 4, !tbaa !3106, !dbg !3227
	%25 = getelementptr i8, i8*  %9, i64 16, !dbg !3227
	%26 = bitcast i8*  %25 to float*, !dbg !3227
	store float  %24, float*  %26, align 4, !tbaa !3106, !dbg !3227
	%27 = getelementptr i8, i8*  %5, i64 20, !dbg !3227
	%28 = bitcast i8*  %27 to float*, !dbg !3227
	%29 = load float, float*  %28, align 4, !tbaa !3106, !dbg !3227
	%30 = getelementptr i8, i8*  %9, i64 20, !dbg !3227
	%31 = bitcast i8*  %30 to float*, !dbg !3227
	store float  %29, float*  %31, align 4, !tbaa !3106, !dbg !3227
	%32 = getelementptr i8, i8*  %5, i64 24, !dbg !3227
	%33 = bitcast i8*  %32 to float*, !dbg !3227
	%34 = load float, float*  %33, align 4, !tbaa !3106, !dbg !3227
	%35 = getelementptr i8, i8*  %9, i64 24, !dbg !3227
	%36 = bitcast i8*  %35 to float*, !dbg !3227
	store float  %34, float*  %36, align 4, !tbaa !3106, !dbg !3227
	%37 = getelementptr i8, i8*  %5, i64 28, !dbg !3227
	%38 = bitcast i8*  %37 to float*, !dbg !3227
	%39 = load float, float*  %38, align 4, !tbaa !3106, !dbg !3227
	%40 = getelementptr i8, i8*  %9, i64 28, !dbg !3227
	%41 = bitcast i8*  %40 to float*, !dbg !3227
	store float  %39, float*  %41, align 4, !tbaa !3106, !dbg !3227
	ret %struct._Z10Vec8SimpleIfE*  %3, !dbg !3228
}

%struct._ZSaIcE = type <{ [1 x i8]}> 

define linkonce_odr void @_ZNSt16allocator_traitsISaIcEE10deallocateERS0_Pcm(%struct._ZSaIcE* %__a.arg, i8* %__p.arg, i64 %__n.arg) #0 inlinehint !dbg !3239 {
L.entry:
	%__a.addr = alloca %struct._ZSaIcE*, align 8
	%__p.addr = alloca i8*, align 8
	%__n.addr = alloca i64, align 8
	%..inline.addr = alloca i8*, align 8

	call void @llvm.dbg.declare (metadata %struct._ZSaIcE** %__a.addr, metadata !3247, metadata !3019), !dbg !3240
	store %struct._ZSaIcE* %__a.arg, %struct._ZSaIcE** %__a.addr, align 8, !tbaa !3105
	call void @llvm.dbg.declare (metadata %struct._ZSaIcE** %__a.addr, metadata !3248, metadata !3019), !dbg !3240
	call void @llvm.dbg.declare (metadata i8** %__p.addr, metadata !3249, metadata !3019), !dbg !3240
	store i8* %__p.arg, i8** %__p.addr, align 8, !tbaa !3105
	call void @llvm.dbg.declare (metadata i8** %__p.addr, metadata !3250, metadata !3019), !dbg !3240
	call void @llvm.dbg.declare (metadata i64* %__n.addr, metadata !3251, metadata !3019), !dbg !3240
	store i64 %__n.arg, i64* %__n.addr, align 8, !tbaa !3106
	call void @llvm.dbg.declare (metadata i64* %__n.addr, metadata !3252, metadata !3019), !dbg !3240
	%0 = load i8*, i8** %__p.addr, align 8, !tbaa !3105, !dbg !3253
	call void  @_ZdlPv (i8*  %0) nounwind, !dbg !3254
	ret void, !dbg !3253
}

%struct._ZSt4hashIjE = type <{ [1 x i8]}> 

define linkonce_odr i64 @_ZNKSt4hashIjEclEj(%struct._ZSt4hashIjE* %_T43482568_18883.arg, i32 zeroext %__val.arg) #0 inlinehint !dbg !3261 {
L.entry:
	%_T43482568_18883.addr = alloca %struct._ZSt4hashIjE*, align 8
	%__val.addr = alloca i32, align 4

	call void @llvm.dbg.declare (metadata %struct._ZSt4hashIjE** %_T43482568_18883.addr, metadata !3265, metadata !3019), !dbg !3262
	store %struct._ZSt4hashIjE* %_T43482568_18883.arg, %struct._ZSt4hashIjE** %_T43482568_18883.addr, align 8, !tbaa !3105
	call void @llvm.dbg.declare (metadata %struct._ZSt4hashIjE** %_T43482568_18883.addr, metadata !3266, metadata !3019), !dbg !3262
	call void @llvm.dbg.declare (metadata i32* %__val.addr, metadata !3267, metadata !3019), !dbg !3262
	store i32 %__val.arg, i32* %__val.addr, align 4, !tbaa !3106
	call void @llvm.dbg.declare (metadata i32* %__val.addr, metadata !3268, metadata !3019), !dbg !3262
	%0 = load i32, i32* %__val.addr, align 4, !tbaa !3108, !dbg !3269
	%1 = zext i32  %0 to i64, !dbg !3269
	ret i64  %1, !dbg !3269
}
define linkonce_odr void @_ZNSt12_Destroy_auxILb1EE9__destroyIPjEEvT_S3_(i32* %_T43482568_18886.arg, i32* %_T43482864_18886.arg) #0 inlinehint !dbg !3275 {
L.entry:
	%_T43482568_18886.addr = alloca i32*, align 8
	%_T43482864_18886.addr = alloca i32*, align 8

	call void @llvm.dbg.declare (metadata i32** %_T43482568_18886.addr, metadata !3279, metadata !3019), !dbg !3276
	store i32* %_T43482568_18886.arg, i32** %_T43482568_18886.addr, align 8, !tbaa !3105
	call void @llvm.dbg.declare (metadata i32** %_T43482568_18886.addr, metadata !3280, metadata !3019), !dbg !3276
	call void @llvm.dbg.declare (metadata i32** %_T43482864_18886.addr, metadata !3281, metadata !3019), !dbg !3276
	store i32* %_T43482864_18886.arg, i32** %_T43482864_18886.addr, align 8, !tbaa !3105
	call void @llvm.dbg.declare (metadata i32** %_T43482864_18886.addr, metadata !3282, metadata !3019), !dbg !3276
	ret void, !dbg !3283
}
define linkonce_odr void @_ZNSt12_Destroy_auxILb1EE9__destroyIPdEEvT_S3_(double* %_T43482568_18889.arg, double* %_T43482864_18889.arg) #0 inlinehint !dbg !3287 {
L.entry:
	%_T43482568_18889.addr = alloca double*, align 8
	%_T43482864_18889.addr = alloca double*, align 8

	call void @llvm.dbg.declare (metadata double** %_T43482568_18889.addr, metadata !3291, metadata !3019), !dbg !3288
	store double* %_T43482568_18889.arg, double** %_T43482568_18889.addr, align 8, !tbaa !3105
	call void @llvm.dbg.declare (metadata double** %_T43482568_18889.addr, metadata !3292, metadata !3019), !dbg !3288
	call void @llvm.dbg.declare (metadata double** %_T43482864_18889.addr, metadata !3293, metadata !3019), !dbg !3288
	store double* %_T43482864_18889.arg, double** %_T43482864_18889.addr, align 8, !tbaa !3105
	call void @llvm.dbg.declare (metadata double** %_T43482864_18889.addr, metadata !3294, metadata !3019), !dbg !3288
	ret void, !dbg !3295
}

%struct._ZSt4pairIKjjE = type <{ i32, i32}> 

define linkonce_odr i32* @_ZNSt10__pair_getILm0EE11__const_getIKjjEERKT_RKSt4pairIS3_T0_E(%struct._ZSt4pairIKjjE* %__pair.arg) #0 inlinehint !dbg !3306 {
L.entry:
	%__pair.addr = alloca %struct._ZSt4pairIKjjE*, align 8

	call void @llvm.dbg.declare (metadata %struct._ZSt4pairIKjjE** %__pair.addr, metadata !3310, metadata !3019), !dbg !3307
	store %struct._ZSt4pairIKjjE* %__pair.arg, %struct._ZSt4pairIKjjE** %__pair.addr, align 8, !tbaa !3105
	call void @llvm.dbg.declare (metadata %struct._ZSt4pairIKjjE** %__pair.addr, metadata !3311, metadata !3019), !dbg !3307
	%0 = load %struct._ZSt4pairIKjjE*, %struct._ZSt4pairIKjjE** %__pair.addr, align 8, !tbaa !3105, !dbg !3312
	%1 = bitcast %struct._ZSt4pairIKjjE*  %0 to i32*, !dbg !3312
	ret i32*  %1, !dbg !3312
}
define linkonce_odr i32* @_ZNSt10__pair_getILm0EE5__getIKjjEERT_RSt4pairIS3_T0_E(%struct._ZSt4pairIKjjE* %__pair.arg) #0 inlinehint !dbg !3321 {
L.entry:
	%__pair.addr = alloca %struct._ZSt4pairIKjjE*, align 8

	call void @llvm.dbg.declare (metadata %struct._ZSt4pairIKjjE** %__pair.addr, metadata !3325, metadata !3019), !dbg !3322
	store %struct._ZSt4pairIKjjE* %__pair.arg, %struct._ZSt4pairIKjjE** %__pair.addr, align 8, !tbaa !3105
	call void @llvm.dbg.declare (metadata %struct._ZSt4pairIKjjE** %__pair.addr, metadata !3326, metadata !3019), !dbg !3322
	%0 = load %struct._ZSt4pairIKjjE*, %struct._ZSt4pairIKjjE** %__pair.addr, align 8, !tbaa !3105, !dbg !3327
	%1 = bitcast %struct._ZSt4pairIKjjE*  %0 to i32*, !dbg !3327
	ret i32*  %1, !dbg !3327
}

%struct._ZSaIjE = type <{ [1 x i8]}> 

define linkonce_odr void @_ZNSaIjED1Ev(%struct._ZSaIjE* %_T43482568_18894.arg) #0 inlinehint !dbg !3337 {
L.entry:
	%_T43482568_18894.addr = alloca %struct._ZSaIjE*, align 8

	call void @llvm.dbg.declare (metadata %struct._ZSaIjE** %_T43482568_18894.addr, metadata !3341, metadata !3019), !dbg !3338
	store %struct._ZSaIjE* %_T43482568_18894.arg, %struct._ZSaIjE** %_T43482568_18894.addr, align 8, !tbaa !3105
	call void @llvm.dbg.declare (metadata %struct._ZSaIjE** %_T43482568_18894.addr, metadata !3342, metadata !3019), !dbg !3338
	ret void, !dbg !3343
}
define linkonce_odr void @_ZNSaIjED2Ev(%struct._ZSaIjE* %_T43482568_18895.arg) #0 inlinehint !dbg !3345 {
L.entry:
	%_T43482568_18895.addr = alloca %struct._ZSaIjE*, align 8

	store %struct._ZSaIjE* %_T43482568_18895.arg, %struct._ZSaIjE** %_T43482568_18895.addr, align 8, !tbaa !3105
	ret void, !dbg !3353
}
define linkonce_odr void @_ZNSt16allocator_traitsISaIjEE10deallocateERS0_Pjm(%struct._ZSaIjE* %__a.arg, i32* %__p.arg, i64 %__n.arg) #0 inlinehint !dbg !3361 {
L.entry:
	%__a.addr = alloca %struct._ZSaIjE*, align 8
	%__p.addr = alloca i32*, align 8
	%__n.addr = alloca i64, align 8
	%..inline.addr = alloca i32*, align 8

	call void @llvm.dbg.declare (metadata %struct._ZSaIjE** %__a.addr, metadata !3369, metadata !3019), !dbg !3362
	store %struct._ZSaIjE* %__a.arg, %struct._ZSaIjE** %__a.addr, align 8, !tbaa !3105
	call void @llvm.dbg.declare (metadata %struct._ZSaIjE** %__a.addr, metadata !3370, metadata !3019), !dbg !3362
	call void @llvm.dbg.declare (metadata i32** %__p.addr, metadata !3371, metadata !3019), !dbg !3362
	store i32* %__p.arg, i32** %__p.addr, align 8, !tbaa !3105
	call void @llvm.dbg.declare (metadata i32** %__p.addr, metadata !3372, metadata !3019), !dbg !3362
	call void @llvm.dbg.declare (metadata i64* %__n.addr, metadata !3373, metadata !3019), !dbg !3362
	store i64 %__n.arg, i64* %__n.addr, align 8, !tbaa !3106
	call void @llvm.dbg.declare (metadata i64* %__n.addr, metadata !3374, metadata !3019), !dbg !3362
	%0 = load i32*, i32** %__p.addr, align 8, !tbaa !3105, !dbg !3375
	%1 = bitcast i32*  %0 to i8*, !dbg !3375
	%2 = bitcast i32** %..inline.addr to i8**, !dbg !3375
	store i8*  %1, i8**  %2, align 8, !tbaa !3105, !dbg !3375
	%3 = load i32*, i32** %..inline.addr, align 8, !tbaa !3105, !dbg !3376
	%4 = bitcast i32*  %3 to i8*, !dbg !3376
	call void  @_ZdlPv (i8*  %4) nounwind, !dbg !3376
	ret void, !dbg !3375
}
define linkonce_odr %struct._ZSaIjE* @_ZNSt12_Vector_baseIjSaIjEE19_M_get_Tp_allocatorEv(%struct._ZSt12_Vector_baseIjSaIjEE* %_T43482568_18901.arg) #0 inlinehint !dbg !3384 {
L.entry:
	%_T43482568_18901.addr = alloca %struct._ZSt12_Vector_baseIjSaIjEE*, align 8

	call void @llvm.dbg.declare (metadata %struct._ZSt12_Vector_baseIjSaIjEE** %_T43482568_18901.addr, metadata !3388, metadata !3019), !dbg !3385
	store %struct._ZSt12_Vector_baseIjSaIjEE* %_T43482568_18901.arg, %struct._ZSt12_Vector_baseIjSaIjEE** %_T43482568_18901.addr, align 8, !tbaa !3105
	call void @llvm.dbg.declare (metadata %struct._ZSt12_Vector_baseIjSaIjEE** %_T43482568_18901.addr, metadata !3389, metadata !3019), !dbg !3385
	%0 = load %struct._ZSt12_Vector_baseIjSaIjEE*, %struct._ZSt12_Vector_baseIjSaIjEE** %_T43482568_18901.addr, align 8, !tbaa !3105, !dbg !3390
	%1 = bitcast %struct._ZSt12_Vector_baseIjSaIjEE*  %0 to %struct._ZSaIjE*, !dbg !3390
	ret %struct._ZSaIjE*  %1, !dbg !3390
}
define linkonce_odr void @_ZNSt12_Vector_baseIjSaIjEED1Ev(%struct._ZSt12_Vector_baseIjSaIjEE* %_T43482568_18902.arg) #0 inlinehint !dbg !3394 {
L.entry:
	%_T43482568_18902.addr = alloca %struct._ZSt12_Vector_baseIjSaIjEE*, align 8
	%..inline.addr = alloca i32*, align 8

	call void @llvm.dbg.declare (metadata %struct._ZSt12_Vector_baseIjSaIjEE** %_T43482568_18902.addr, metadata !3422, metadata !3019), !dbg !3395
	store %struct._ZSt12_Vector_baseIjSaIjEE* %_T43482568_18902.arg, %struct._ZSt12_Vector_baseIjSaIjEE** %_T43482568_18902.addr, align 8, !tbaa !3105
	call void @llvm.dbg.declare (metadata %struct._ZSt12_Vector_baseIjSaIjEE** %_T43482568_18902.addr, metadata !3423, metadata !3019), !dbg !3395
	%0 = load %struct._ZSt12_Vector_baseIjSaIjEE*, %struct._ZSt12_Vector_baseIjSaIjEE** %_T43482568_18902.addr, align 8, !tbaa !3105, !dbg !3424
	%1 = bitcast %struct._ZSt12_Vector_baseIjSaIjEE*  %0 to i8**, !dbg !3424
	%2 = load i8*, i8**  %1, align 8, !tbaa !3105, !dbg !3424
	%3 = icmp eq i8*  %2,  null, !dbg !3424
	br i1  %3, label %L..inline.32273, label %L.B1050, !dbg !3424
L.B1050:
	%4 = bitcast %struct._ZSt12_Vector_baseIjSaIjEE*  %0 to i8**, !dbg !3425
	%5 = load i8*, i8**  %4, align 8, !tbaa !3105, !dbg !3425
	%6 = bitcast i32** %..inline.addr to i8**, !dbg !3425
	store i8*  %5, i8**  %6, align 8, !tbaa !3105, !dbg !3425
	%7 = load i32*, i32** %..inline.addr, align 8, !tbaa !3105, !dbg !3425
	%8 = bitcast i32*  %7 to i8*, !dbg !3425
	call void  @_ZdlPv (i8*  %8) nounwind, !dbg !3425
	br label %L..inline.32273
L..inline.32273:
	ret void, !dbg !3426
}
define linkonce_odr void @_ZNSt12_Vector_baseIjSaIjEED2Ev(%struct._ZSt12_Vector_baseIjSaIjEE* %_T43482568_18903.arg) #0 inlinehint !dbg !3428 {
L.entry:
	%_T43482568_18903.addr = alloca %struct._ZSt12_Vector_baseIjSaIjEE*, align 8
	%..inline.addr = alloca %struct._ZSt12_Vector_baseIjSaIjEE*, align 8
	%..inline.addr.1 = alloca i32*, align 8

	store %struct._ZSt12_Vector_baseIjSaIjEE* %_T43482568_18903.arg, %struct._ZSt12_Vector_baseIjSaIjEE** %_T43482568_18903.addr, align 8, !tbaa !3105
	%0 = load %struct._ZSt12_Vector_baseIjSaIjEE*, %struct._ZSt12_Vector_baseIjSaIjEE** %_T43482568_18903.addr, align 8, !tbaa !3105, !dbg !3460
	%1 = bitcast %struct._ZSt12_Vector_baseIjSaIjEE*  %0 to i8*, !dbg !3460
	%2 = bitcast %struct._ZSt12_Vector_baseIjSaIjEE** %..inline.addr to i8**, !dbg !3460
	store i8*  %1, i8**  %2, align 8, !tbaa !3105, !dbg !3460
	%3 = load %struct._ZSt12_Vector_baseIjSaIjEE*, %struct._ZSt12_Vector_baseIjSaIjEE** %..inline.addr, align 8, !tbaa !3105, !dbg !3460
	%4 = bitcast %struct._ZSt12_Vector_baseIjSaIjEE*  %3 to i8**, !dbg !3460
	%5 = load i8*, i8**  %4, align 8, !tbaa !3105, !dbg !3460
	%6 = icmp eq i8*  %5,  null, !dbg !3460
	br i1  %6, label %L..inline.32332, label %L.B1053, !dbg !3460
L.B1053:
	%7 = bitcast %struct._ZSt12_Vector_baseIjSaIjEE*  %3 to i8**, !dbg !3460
	%8 = load i8*, i8**  %7, align 8, !tbaa !3105, !dbg !3460
	%9 = bitcast i32** %..inline.addr.1 to i8**, !dbg !3460
	store i8*  %8, i8**  %9, align 8, !tbaa !3105, !dbg !3460
	%10 = load i32*, i32** %..inline.addr.1, align 8, !tbaa !3105, !dbg !3460
	%11 = bitcast i32*  %10 to i8*, !dbg !3460
	call void  @_ZdlPv (i8*  %11) nounwind, !dbg !3460
	br label %L..inline.32332
L..inline.32332:
	ret void, !dbg !3461
}
define linkonce_odr void @_ZNSt12_Vector_baseIjSaIjEE13_M_deallocateEPjm(%struct._ZSt12_Vector_baseIjSaIjEE* %_T43482568_18906.arg, i32* %__p.arg, i64 %__n.arg) #0 inlinehint !dbg !3465 {
L.entry:
	%_T43482568_18906.addr = alloca %struct._ZSt12_Vector_baseIjSaIjEE*, align 8
	%__p.addr = alloca i32*, align 8
	%__n.addr = alloca i64, align 8
	%..inline.addr = alloca i32*, align 8

	call void @llvm.dbg.declare (metadata %struct._ZSt12_Vector_baseIjSaIjEE** %_T43482568_18906.addr, metadata !3477, metadata !3019), !dbg !3466
	store %struct._ZSt12_Vector_baseIjSaIjEE* %_T43482568_18906.arg, %struct._ZSt12_Vector_baseIjSaIjEE** %_T43482568_18906.addr, align 8, !tbaa !3105
	call void @llvm.dbg.declare (metadata %struct._ZSt12_Vector_baseIjSaIjEE** %_T43482568_18906.addr, metadata !3478, metadata !3019), !dbg !3466
	call void @llvm.dbg.declare (metadata i32** %__p.addr, metadata !3479, metadata !3019), !dbg !3466
	store i32* %__p.arg, i32** %__p.addr, align 8, !tbaa !3105
	call void @llvm.dbg.declare (metadata i32** %__p.addr, metadata !3480, metadata !3019), !dbg !3466
	call void @llvm.dbg.declare (metadata i64* %__n.addr, metadata !3481, metadata !3019), !dbg !3466
	store i64 %__n.arg, i64* %__n.addr, align 8, !tbaa !3106
	call void @llvm.dbg.declare (metadata i64* %__n.addr, metadata !3482, metadata !3019), !dbg !3466
	%0 = load i32*, i32** %__p.addr, align 8, !tbaa !3105, !dbg !3483
	%1 = bitcast i32*  %0 to i8*, !dbg !3483
	%2 = icmp eq i8*  %1,  null, !dbg !3483
	br i1  %2, label %L.B0105, label %L.B1056, !dbg !3483
L.B1056:
	%3 = bitcast i32*  %0 to i8*, !dbg !3484
	%4 = bitcast i32** %..inline.addr to i8**, !dbg !3484
	store i8*  %3, i8**  %4, align 8, !tbaa !3105, !dbg !3484
	%5 = load i32*, i32** %..inline.addr, align 8, !tbaa !3105, !dbg !3484
	%6 = bitcast i32*  %5 to i8*, !dbg !3484
	call void  @_ZdlPv (i8*  %6) nounwind, !dbg !3484
	br label %L.B0105
L.B0105:
	ret void, !dbg !3485
}
define linkonce_odr void @_ZNSt12_Vector_baseIjSaIjEE12_Vector_implD1Ev(%struct._ZNSt12_Vector_baseIjSaIjEE12_Vector_implE* %_T43482568_18907.arg) #0 inlinehint !dbg !3490 {
L.entry:
	%_T43482568_18907.addr = alloca %struct._ZNSt12_Vector_baseIjSaIjEE12_Vector_implE*, align 8

	call void @llvm.dbg.declare (metadata %struct._ZNSt12_Vector_baseIjSaIjEE12_Vector_implE** %_T43482568_18907.addr, metadata !3502, metadata !3019), !dbg !3491
	store %struct._ZNSt12_Vector_baseIjSaIjEE12_Vector_implE* %_T43482568_18907.arg, %struct._ZNSt12_Vector_baseIjSaIjEE12_Vector_implE** %_T43482568_18907.addr, align 8, !tbaa !3105
	call void @llvm.dbg.declare (metadata %struct._ZNSt12_Vector_baseIjSaIjEE12_Vector_implE** %_T43482568_18907.addr, metadata !3503, metadata !3019), !dbg !3491
	ret void, !dbg !3504
}
define linkonce_odr void @_ZNSt12_Vector_baseIjSaIjEE12_Vector_implD2Ev(%struct._ZNSt12_Vector_baseIjSaIjEE12_Vector_implE* %_T43482568_18908.arg) #0 inlinehint !dbg !3506 {
L.entry:
	%_T43482568_18908.addr = alloca %struct._ZNSt12_Vector_baseIjSaIjEE12_Vector_implE*, align 8

	store %struct._ZNSt12_Vector_baseIjSaIjEE12_Vector_implE* %_T43482568_18908.arg, %struct._ZNSt12_Vector_baseIjSaIjEE12_Vector_implE** %_T43482568_18908.addr, align 8, !tbaa !3105
	ret void, !dbg !3522
}
define linkonce_odr void @_ZNSt6vectorIjSaIjEED1Ev(%struct._ZSt6vectorIjSaIjEE* %_T43482568_18909.arg) #0 inlinehint !dbg !3527 {
L.entry:
	%_T43482568_18909.addr = alloca %struct._ZSt6vectorIjSaIjEE*, align 8
	%..inline.addr = alloca %struct._ZSt12_Vector_baseIjSaIjEE*, align 8
	%..inline.addr.1 = alloca i32*, align 8

	call void @llvm.dbg.declare (metadata %struct._ZSt6vectorIjSaIjEE** %_T43482568_18909.addr, metadata !3579, metadata !3019), !dbg !3528
	store %struct._ZSt6vectorIjSaIjEE* %_T43482568_18909.arg, %struct._ZSt6vectorIjSaIjEE** %_T43482568_18909.addr, align 8, !tbaa !3105
	call void @llvm.dbg.declare (metadata %struct._ZSt6vectorIjSaIjEE** %_T43482568_18909.addr, metadata !3580, metadata !3019), !dbg !3528
	%0 = load %struct._ZSt6vectorIjSaIjEE*, %struct._ZSt6vectorIjSaIjEE** %_T43482568_18909.addr, align 8, !tbaa !3105, !dbg !3581
	%1 = bitcast %struct._ZSt6vectorIjSaIjEE*  %0 to i8*, !dbg !3581
	%2 = bitcast %struct._ZSt12_Vector_baseIjSaIjEE** %..inline.addr to i8**, !dbg !3581
	store i8*  %1, i8**  %2, align 8, !tbaa !3105, !dbg !3581
	%3 = load %struct._ZSt12_Vector_baseIjSaIjEE*, %struct._ZSt12_Vector_baseIjSaIjEE** %..inline.addr, align 8, !tbaa !3105, !dbg !3582
	%4 = bitcast %struct._ZSt12_Vector_baseIjSaIjEE*  %3 to i8**, !dbg !3582
	%5 = load i8*, i8**  %4, align 8, !tbaa !3105, !dbg !3582
	%6 = icmp eq i8*  %5,  null, !dbg !3582
	br i1  %6, label %L..inline.32483, label %L.B1067, !dbg !3582
L.B1067:
	%7 = bitcast %struct._ZSt12_Vector_baseIjSaIjEE*  %3 to i8**, !dbg !3582
	%8 = load i8*, i8**  %7, align 8, !tbaa !3105, !dbg !3582
	%9 = bitcast i32** %..inline.addr.1 to i8**, !dbg !3582
	store i8*  %8, i8**  %9, align 8, !tbaa !3105, !dbg !3582
	%10 = load i32*, i32** %..inline.addr.1, align 8, !tbaa !3105, !dbg !3582
	%11 = bitcast i32*  %10 to i8*, !dbg !3582
	call void  @_ZdlPv (i8*  %11) nounwind, !dbg !3582
	br label %L..inline.32483
L..inline.32483:
	ret void, !dbg !3581
}
define linkonce_odr void @_ZNSt6vectorIjSaIjEED2Ev(%struct._ZSt6vectorIjSaIjEE* %_T43482568_18910.arg) #0 inlinehint !dbg !3584 {
L.entry:
	%_T43482568_18910.addr = alloca %struct._ZSt6vectorIjSaIjEE*, align 8
	%..inline.addr = alloca %struct._ZSt12_Vector_baseIjSaIjEE*, align 8
	%..inline.addr.1 = alloca i32*, align 8

	store %struct._ZSt6vectorIjSaIjEE* %_T43482568_18910.arg, %struct._ZSt6vectorIjSaIjEE** %_T43482568_18910.addr, align 8, !tbaa !3105
	%0 = load %struct._ZSt6vectorIjSaIjEE*, %struct._ZSt6vectorIjSaIjEE** %_T43482568_18910.addr, align 8, !tbaa !3105, !dbg !3640
	%1 = bitcast %struct._ZSt6vectorIjSaIjEE*  %0 to i8*, !dbg !3640
	%2 = bitcast %struct._ZSt12_Vector_baseIjSaIjEE** %..inline.addr to i8**, !dbg !3640
	store i8*  %1, i8**  %2, align 8, !tbaa !3105, !dbg !3640
	%3 = load %struct._ZSt12_Vector_baseIjSaIjEE*, %struct._ZSt12_Vector_baseIjSaIjEE** %..inline.addr, align 8, !tbaa !3105, !dbg !3640
	%4 = bitcast %struct._ZSt12_Vector_baseIjSaIjEE*  %3 to i8**, !dbg !3640
	%5 = load i8*, i8**  %4, align 8, !tbaa !3105, !dbg !3640
	%6 = icmp eq i8*  %5,  null, !dbg !3640
	br i1  %6, label %L..inline.32587, label %L.B1070, !dbg !3640
L.B1070:
	%7 = bitcast %struct._ZSt12_Vector_baseIjSaIjEE*  %3 to i8**, !dbg !3640
	%8 = load i8*, i8**  %7, align 8, !tbaa !3105, !dbg !3640
	%9 = bitcast i32** %..inline.addr.1 to i8**, !dbg !3640
	store i8*  %8, i8**  %9, align 8, !tbaa !3105, !dbg !3640
	%10 = load i32*, i32** %..inline.addr.1, align 8, !tbaa !3105, !dbg !3640
	%11 = bitcast i32*  %10 to i8*, !dbg !3640
	call void  @_ZdlPv (i8*  %11) nounwind, !dbg !3640
	br label %L..inline.32587
L..inline.32587:
	ret void, !dbg !3640
}

%struct._ZSaIdE = type <{ [1 x i8]}> 

define linkonce_odr void @_ZNSaIdED1Ev(%struct._ZSaIdE* %_T43482568_18911.arg) #0 inlinehint !dbg !3648 {
L.entry:
	%_T43482568_18911.addr = alloca %struct._ZSaIdE*, align 8

	call void @llvm.dbg.declare (metadata %struct._ZSaIdE** %_T43482568_18911.addr, metadata !3652, metadata !3019), !dbg !3649
	store %struct._ZSaIdE* %_T43482568_18911.arg, %struct._ZSaIdE** %_T43482568_18911.addr, align 8, !tbaa !3105
	call void @llvm.dbg.declare (metadata %struct._ZSaIdE** %_T43482568_18911.addr, metadata !3653, metadata !3019), !dbg !3649
	ret void, !dbg !3654
}
define linkonce_odr void @_ZNSaIdED2Ev(%struct._ZSaIdE* %_T43482568_18912.arg) #0 inlinehint !dbg !3656 {
L.entry:
	%_T43482568_18912.addr = alloca %struct._ZSaIdE*, align 8

	store %struct._ZSaIdE* %_T43482568_18912.arg, %struct._ZSaIdE** %_T43482568_18912.addr, align 8, !tbaa !3105
	ret void, !dbg !3664
}
define linkonce_odr void @_ZNSt16allocator_traitsISaIdEE10deallocateERS0_Pdm(%struct._ZSaIdE* %__a.arg, double* %__p.arg, i64 %__n.arg) #0 inlinehint !dbg !3672 {
L.entry:
	%__a.addr = alloca %struct._ZSaIdE*, align 8
	%__p.addr = alloca double*, align 8
	%__n.addr = alloca i64, align 8
	%..inline.addr = alloca double*, align 8

	call void @llvm.dbg.declare (metadata %struct._ZSaIdE** %__a.addr, metadata !3680, metadata !3019), !dbg !3673
	store %struct._ZSaIdE* %__a.arg, %struct._ZSaIdE** %__a.addr, align 8, !tbaa !3105
	call void @llvm.dbg.declare (metadata %struct._ZSaIdE** %__a.addr, metadata !3681, metadata !3019), !dbg !3673
	call void @llvm.dbg.declare (metadata double** %__p.addr, metadata !3682, metadata !3019), !dbg !3673
	store double* %__p.arg, double** %__p.addr, align 8, !tbaa !3105
	call void @llvm.dbg.declare (metadata double** %__p.addr, metadata !3683, metadata !3019), !dbg !3673
	call void @llvm.dbg.declare (metadata i64* %__n.addr, metadata !3684, metadata !3019), !dbg !3673
	store i64 %__n.arg, i64* %__n.addr, align 8, !tbaa !3106
	call void @llvm.dbg.declare (metadata i64* %__n.addr, metadata !3685, metadata !3019), !dbg !3673
	%0 = load double*, double** %__p.addr, align 8, !tbaa !3105, !dbg !3686
	%1 = bitcast double*  %0 to i8*, !dbg !3686
	%2 = bitcast double** %..inline.addr to i8**, !dbg !3686
	store i8*  %1, i8**  %2, align 8, !tbaa !3105, !dbg !3686
	%3 = load double*, double** %..inline.addr, align 8, !tbaa !3105, !dbg !3687
	%4 = bitcast double*  %3 to i8*, !dbg !3687
	call void  @_ZdlPv (i8*  %4) nounwind, !dbg !3687
	ret void, !dbg !3686
}

%struct._ZSt12_Vector_baseIdSaIdEE = type <{ %struct._ZNSt12_Vector_baseIdSaIdEE12_Vector_implE}> 
%struct._ZNSt12_Vector_baseIdSaIdEE12_Vector_implE = type <{ %struct._ZNSt12_Vector_baseIdSaIdEE17_Vector_impl_dataE}> 
%struct._ZNSt12_Vector_baseIdSaIdEE17_Vector_impl_dataE = type <{ double*, double*, double*}> 

define linkonce_odr %struct._ZSaIdE* @_ZNSt12_Vector_baseIdSaIdEE19_M_get_Tp_allocatorEv(%struct._ZSt12_Vector_baseIdSaIdEE* %_T43482568_18918.arg) #0 inlinehint !dbg !3693 {
L.entry:
	%_T43482568_18918.addr = alloca %struct._ZSt12_Vector_baseIdSaIdEE*, align 8

	call void @llvm.dbg.declare (metadata %struct._ZSt12_Vector_baseIdSaIdEE** %_T43482568_18918.addr, metadata !3697, metadata !3019), !dbg !3694
	store %struct._ZSt12_Vector_baseIdSaIdEE* %_T43482568_18918.arg, %struct._ZSt12_Vector_baseIdSaIdEE** %_T43482568_18918.addr, align 8, !tbaa !3105
	call void @llvm.dbg.declare (metadata %struct._ZSt12_Vector_baseIdSaIdEE** %_T43482568_18918.addr, metadata !3698, metadata !3019), !dbg !3694
	%0 = load %struct._ZSt12_Vector_baseIdSaIdEE*, %struct._ZSt12_Vector_baseIdSaIdEE** %_T43482568_18918.addr, align 8, !tbaa !3105, !dbg !3699
	%1 = bitcast %struct._ZSt12_Vector_baseIdSaIdEE*  %0 to %struct._ZSaIdE*, !dbg !3699
	ret %struct._ZSaIdE*  %1, !dbg !3699
}
define linkonce_odr void @_ZNSt12_Vector_baseIdSaIdEED1Ev(%struct._ZSt12_Vector_baseIdSaIdEE* %_T43482568_18919.arg) #0 inlinehint !dbg !3703 {
L.entry:
	%_T43482568_18919.addr = alloca %struct._ZSt12_Vector_baseIdSaIdEE*, align 8
	%..inline.addr = alloca double*, align 8

	call void @llvm.dbg.declare (metadata %struct._ZSt12_Vector_baseIdSaIdEE** %_T43482568_18919.addr, metadata !3731, metadata !3019), !dbg !3704
	store %struct._ZSt12_Vector_baseIdSaIdEE* %_T43482568_18919.arg, %struct._ZSt12_Vector_baseIdSaIdEE** %_T43482568_18919.addr, align 8, !tbaa !3105
	call void @llvm.dbg.declare (metadata %struct._ZSt12_Vector_baseIdSaIdEE** %_T43482568_18919.addr, metadata !3732, metadata !3019), !dbg !3704
	%0 = load %struct._ZSt12_Vector_baseIdSaIdEE*, %struct._ZSt12_Vector_baseIdSaIdEE** %_T43482568_18919.addr, align 8, !tbaa !3105, !dbg !3733
	%1 = bitcast %struct._ZSt12_Vector_baseIdSaIdEE*  %0 to i8**, !dbg !3733
	%2 = load i8*, i8**  %1, align 8, !tbaa !3105, !dbg !3733
	%3 = icmp eq i8*  %2,  null, !dbg !3733
	br i1  %3, label %L..inline.32683, label %L.B1079, !dbg !3733
L.B1079:
	%4 = bitcast %struct._ZSt12_Vector_baseIdSaIdEE*  %0 to i8**, !dbg !3734
	%5 = load i8*, i8**  %4, align 8, !tbaa !3105, !dbg !3734
	%6 = bitcast double** %..inline.addr to i8**, !dbg !3734
	store i8*  %5, i8**  %6, align 8, !tbaa !3105, !dbg !3734
	%7 = load double*, double** %..inline.addr, align 8, !tbaa !3105, !dbg !3734
	%8 = bitcast double*  %7 to i8*, !dbg !3734
	call void  @_ZdlPv (i8*  %8) nounwind, !dbg !3734
	br label %L..inline.32683
L..inline.32683:
	ret void, !dbg !3735
}
define linkonce_odr void @_ZNSt12_Vector_baseIdSaIdEED2Ev(%struct._ZSt12_Vector_baseIdSaIdEE* %_T43482568_18920.arg) #0 inlinehint !dbg !3737 {
L.entry:
	%_T43482568_18920.addr = alloca %struct._ZSt12_Vector_baseIdSaIdEE*, align 8
	%..inline.addr = alloca %struct._ZSt12_Vector_baseIdSaIdEE*, align 8
	%..inline.addr.1 = alloca double*, align 8

	store %struct._ZSt12_Vector_baseIdSaIdEE* %_T43482568_18920.arg, %struct._ZSt12_Vector_baseIdSaIdEE** %_T43482568_18920.addr, align 8, !tbaa !3105
	%0 = load %struct._ZSt12_Vector_baseIdSaIdEE*, %struct._ZSt12_Vector_baseIdSaIdEE** %_T43482568_18920.addr, align 8, !tbaa !3105, !dbg !3769
	%1 = bitcast %struct._ZSt12_Vector_baseIdSaIdEE*  %0 to i8*, !dbg !3769
	%2 = bitcast %struct._ZSt12_Vector_baseIdSaIdEE** %..inline.addr to i8**, !dbg !3769
	store i8*  %1, i8**  %2, align 8, !tbaa !3105, !dbg !3769
	%3 = load %struct._ZSt12_Vector_baseIdSaIdEE*, %struct._ZSt12_Vector_baseIdSaIdEE** %..inline.addr, align 8, !tbaa !3105, !dbg !3769
	%4 = bitcast %struct._ZSt12_Vector_baseIdSaIdEE*  %3 to i8**, !dbg !3769
	%5 = load i8*, i8**  %4, align 8, !tbaa !3105, !dbg !3769
	%6 = icmp eq i8*  %5,  null, !dbg !3769
	br i1  %6, label %L..inline.32742, label %L.B1082, !dbg !3769
L.B1082:
	%7 = bitcast %struct._ZSt12_Vector_baseIdSaIdEE*  %3 to i8**, !dbg !3769
	%8 = load i8*, i8**  %7, align 8, !tbaa !3105, !dbg !3769
	%9 = bitcast double** %..inline.addr.1 to i8**, !dbg !3769
	store i8*  %8, i8**  %9, align 8, !tbaa !3105, !dbg !3769
	%10 = load double*, double** %..inline.addr.1, align 8, !tbaa !3105, !dbg !3769
	%11 = bitcast double*  %10 to i8*, !dbg !3769
	call void  @_ZdlPv (i8*  %11) nounwind, !dbg !3769
	br label %L..inline.32742
L..inline.32742:
	ret void, !dbg !3770
}
define linkonce_odr void @_ZNSt12_Vector_baseIdSaIdEE13_M_deallocateEPdm(%struct._ZSt12_Vector_baseIdSaIdEE* %_T43482568_18923.arg, double* %__p.arg, i64 %__n.arg) #0 inlinehint !dbg !3774 {
L.entry:
	%_T43482568_18923.addr = alloca %struct._ZSt12_Vector_baseIdSaIdEE*, align 8
	%__p.addr = alloca double*, align 8
	%__n.addr = alloca i64, align 8
	%..inline.addr = alloca double*, align 8

	call void @llvm.dbg.declare (metadata %struct._ZSt12_Vector_baseIdSaIdEE** %_T43482568_18923.addr, metadata !3786, metadata !3019), !dbg !3775
	store %struct._ZSt12_Vector_baseIdSaIdEE* %_T43482568_18923.arg, %struct._ZSt12_Vector_baseIdSaIdEE** %_T43482568_18923.addr, align 8, !tbaa !3105
	call void @llvm.dbg.declare (metadata %struct._ZSt12_Vector_baseIdSaIdEE** %_T43482568_18923.addr, metadata !3787, metadata !3019), !dbg !3775
	call void @llvm.dbg.declare (metadata double** %__p.addr, metadata !3788, metadata !3019), !dbg !3775
	store double* %__p.arg, double** %__p.addr, align 8, !tbaa !3105
	call void @llvm.dbg.declare (metadata double** %__p.addr, metadata !3789, metadata !3019), !dbg !3775
	call void @llvm.dbg.declare (metadata i64* %__n.addr, metadata !3790, metadata !3019), !dbg !3775
	store i64 %__n.arg, i64* %__n.addr, align 8, !tbaa !3106
	call void @llvm.dbg.declare (metadata i64* %__n.addr, metadata !3791, metadata !3019), !dbg !3775
	%0 = load double*, double** %__p.addr, align 8, !tbaa !3105, !dbg !3792
	%1 = bitcast double*  %0 to i8*, !dbg !3792
	%2 = icmp eq i8*  %1,  null, !dbg !3792
	br i1  %2, label %L.B0106, label %L.B1085, !dbg !3792
L.B1085:
	%3 = bitcast double*  %0 to i8*, !dbg !3793
	%4 = bitcast double** %..inline.addr to i8**, !dbg !3793
	store i8*  %3, i8**  %4, align 8, !tbaa !3105, !dbg !3793
	%5 = load double*, double** %..inline.addr, align 8, !tbaa !3105, !dbg !3793
	%6 = bitcast double*  %5 to i8*, !dbg !3793
	call void  @_ZdlPv (i8*  %6) nounwind, !dbg !3793
	br label %L.B0106
L.B0106:
	ret void, !dbg !3794
}
define linkonce_odr void @_ZNSt12_Vector_baseIdSaIdEE12_Vector_implD1Ev(%struct._ZNSt12_Vector_baseIdSaIdEE12_Vector_implE* %_T43482568_18924.arg) #0 inlinehint !dbg !3799 {
L.entry:
	%_T43482568_18924.addr = alloca %struct._ZNSt12_Vector_baseIdSaIdEE12_Vector_implE*, align 8

	call void @llvm.dbg.declare (metadata %struct._ZNSt12_Vector_baseIdSaIdEE12_Vector_implE** %_T43482568_18924.addr, metadata !3811, metadata !3019), !dbg !3800
	store %struct._ZNSt12_Vector_baseIdSaIdEE12_Vector_implE* %_T43482568_18924.arg, %struct._ZNSt12_Vector_baseIdSaIdEE12_Vector_implE** %_T43482568_18924.addr, align 8, !tbaa !3105
	call void @llvm.dbg.declare (metadata %struct._ZNSt12_Vector_baseIdSaIdEE12_Vector_implE** %_T43482568_18924.addr, metadata !3812, metadata !3019), !dbg !3800
	ret void, !dbg !3813
}
define linkonce_odr void @_ZNSt12_Vector_baseIdSaIdEE12_Vector_implD2Ev(%struct._ZNSt12_Vector_baseIdSaIdEE12_Vector_implE* %_T43482568_18925.arg) #0 inlinehint !dbg !3815 {
L.entry:
	%_T43482568_18925.addr = alloca %struct._ZNSt12_Vector_baseIdSaIdEE12_Vector_implE*, align 8

	store %struct._ZNSt12_Vector_baseIdSaIdEE12_Vector_implE* %_T43482568_18925.arg, %struct._ZNSt12_Vector_baseIdSaIdEE12_Vector_implE** %_T43482568_18925.addr, align 8, !tbaa !3105
	ret void, !dbg !3831
}

%struct._ZSt6vectorIdSaIdEE = type <{ %struct._ZSt12_Vector_baseIdSaIdEE}> 

define linkonce_odr void @_ZNSt6vectorIdSaIdEED1Ev(%struct._ZSt6vectorIdSaIdEE* %_T43482568_18926.arg) #0 inlinehint !dbg !3836 {
L.entry:
	%_T43482568_18926.addr = alloca %struct._ZSt6vectorIdSaIdEE*, align 8
	%..inline.addr = alloca %struct._ZSt12_Vector_baseIdSaIdEE*, align 8
	%..inline.addr.1 = alloca double*, align 8

	call void @llvm.dbg.declare (metadata %struct._ZSt6vectorIdSaIdEE** %_T43482568_18926.addr, metadata !3888, metadata !3019), !dbg !3837
	store %struct._ZSt6vectorIdSaIdEE* %_T43482568_18926.arg, %struct._ZSt6vectorIdSaIdEE** %_T43482568_18926.addr, align 8, !tbaa !3105
	call void @llvm.dbg.declare (metadata %struct._ZSt6vectorIdSaIdEE** %_T43482568_18926.addr, metadata !3889, metadata !3019), !dbg !3837
	%0 = load %struct._ZSt6vectorIdSaIdEE*, %struct._ZSt6vectorIdSaIdEE** %_T43482568_18926.addr, align 8, !tbaa !3105, !dbg !3890
	%1 = bitcast %struct._ZSt6vectorIdSaIdEE*  %0 to i8*, !dbg !3890
	%2 = bitcast %struct._ZSt12_Vector_baseIdSaIdEE** %..inline.addr to i8**, !dbg !3890
	store i8*  %1, i8**  %2, align 8, !tbaa !3105, !dbg !3890
	%3 = load %struct._ZSt12_Vector_baseIdSaIdEE*, %struct._ZSt12_Vector_baseIdSaIdEE** %..inline.addr, align 8, !tbaa !3105, !dbg !3891
	%4 = bitcast %struct._ZSt12_Vector_baseIdSaIdEE*  %3 to i8**, !dbg !3891
	%5 = load i8*, i8**  %4, align 8, !tbaa !3105, !dbg !3891
	%6 = icmp eq i8*  %5,  null, !dbg !3891
	br i1  %6, label %L..inline.32893, label %L.B1096, !dbg !3891
L.B1096:
	%7 = bitcast %struct._ZSt12_Vector_baseIdSaIdEE*  %3 to i8**, !dbg !3891
	%8 = load i8*, i8**  %7, align 8, !tbaa !3105, !dbg !3891
	%9 = bitcast double** %..inline.addr.1 to i8**, !dbg !3891
	store i8*  %8, i8**  %9, align 8, !tbaa !3105, !dbg !3891
	%10 = load double*, double** %..inline.addr.1, align 8, !tbaa !3105, !dbg !3891
	%11 = bitcast double*  %10 to i8*, !dbg !3891
	call void  @_ZdlPv (i8*  %11) nounwind, !dbg !3891
	br label %L..inline.32893
L..inline.32893:
	ret void, !dbg !3890
}
define linkonce_odr void @_ZNSt6vectorIdSaIdEED2Ev(%struct._ZSt6vectorIdSaIdEE* %_T43482568_18927.arg) #0 inlinehint !dbg !3893 {
L.entry:
	%_T43482568_18927.addr = alloca %struct._ZSt6vectorIdSaIdEE*, align 8
	%..inline.addr = alloca %struct._ZSt12_Vector_baseIdSaIdEE*, align 8
	%..inline.addr.1 = alloca double*, align 8

	store %struct._ZSt6vectorIdSaIdEE* %_T43482568_18927.arg, %struct._ZSt6vectorIdSaIdEE** %_T43482568_18927.addr, align 8, !tbaa !3105
	%0 = load %struct._ZSt6vectorIdSaIdEE*, %struct._ZSt6vectorIdSaIdEE** %_T43482568_18927.addr, align 8, !tbaa !3105, !dbg !3949
	%1 = bitcast %struct._ZSt6vectorIdSaIdEE*  %0 to i8*, !dbg !3949
	%2 = bitcast %struct._ZSt12_Vector_baseIdSaIdEE** %..inline.addr to i8**, !dbg !3949
	store i8*  %1, i8**  %2, align 8, !tbaa !3105, !dbg !3949
	%3 = load %struct._ZSt12_Vector_baseIdSaIdEE*, %struct._ZSt12_Vector_baseIdSaIdEE** %..inline.addr, align 8, !tbaa !3105, !dbg !3949
	%4 = bitcast %struct._ZSt12_Vector_baseIdSaIdEE*  %3 to i8**, !dbg !3949
	%5 = load i8*, i8**  %4, align 8, !tbaa !3105, !dbg !3949
	%6 = icmp eq i8*  %5,  null, !dbg !3949
	br i1  %6, label %L..inline.32997, label %L.B1099, !dbg !3949
L.B1099:
	%7 = bitcast %struct._ZSt12_Vector_baseIdSaIdEE*  %3 to i8**, !dbg !3949
	%8 = load i8*, i8**  %7, align 8, !tbaa !3105, !dbg !3949
	%9 = bitcast double** %..inline.addr.1 to i8**, !dbg !3949
	store i8*  %8, i8**  %9, align 8, !tbaa !3105, !dbg !3949
	%10 = load double*, double** %..inline.addr.1, align 8, !tbaa !3105, !dbg !3949
	%11 = bitcast double*  %10 to i8*, !dbg !3949
	call void  @_ZdlPv (i8*  %11) nounwind, !dbg !3949
	br label %L..inline.32997
L..inline.32997:
	ret void, !dbg !3949
}

%struct._ZSaIN5vmesh14MeshParametersEE = type <{ [1 x i8]}> 

define linkonce_odr void @_ZNSaIN5vmesh14MeshParametersEED1Ev(%struct._ZSaIN5vmesh14MeshParametersEE* %_T43482568_18928.arg) #0 inlinehint !dbg !3957 {
L.entry:
	%_T43482568_18928.addr = alloca %struct._ZSaIN5vmesh14MeshParametersEE*, align 8

	call void @llvm.dbg.declare (metadata %struct._ZSaIN5vmesh14MeshParametersEE** %_T43482568_18928.addr, metadata !3961, metadata !3019), !dbg !3958
	store %struct._ZSaIN5vmesh14MeshParametersEE* %_T43482568_18928.arg, %struct._ZSaIN5vmesh14MeshParametersEE** %_T43482568_18928.addr, align 8, !tbaa !3105
	call void @llvm.dbg.declare (metadata %struct._ZSaIN5vmesh14MeshParametersEE** %_T43482568_18928.addr, metadata !3962, metadata !3019), !dbg !3958
	ret void, !dbg !3963
}
define linkonce_odr void @_ZNSaIN5vmesh14MeshParametersEED2Ev(%struct._ZSaIN5vmesh14MeshParametersEE* %_T43482568_18929.arg) #0 inlinehint !dbg !3965 {
L.entry:
	%_T43482568_18929.addr = alloca %struct._ZSaIN5vmesh14MeshParametersEE*, align 8

	store %struct._ZSaIN5vmesh14MeshParametersEE* %_T43482568_18929.arg, %struct._ZSaIN5vmesh14MeshParametersEE** %_T43482568_18929.addr, align 8, !tbaa !3105
	ret void, !dbg !3973
}

%union.__C5 = type <{ [16 x i8]}> 
%struct._ZN5vmesh14MeshParametersE = type <{ %struct._ZNSt7__cxx1112basic_stringIcSt11char_traitsIcESaIcEEE, i32, [4 x i8], [6 x double], [3 x i32], [3 x i32], i8, i8, [6 x i8], [3 x double], [3 x double], [3 x double], [3 x double], [3 x double], %struct._ZSt6vectorIjSaIjEE, %struct._ZSt6vectorIdSaIdEE, %struct._ZSt6vectorIdSaIdEE, %struct._ZSt6vectorIjSaIjEE}> 
%struct._ZNSt7__cxx1112basic_stringIcSt11char_traitsIcESaIcEE12_Alloc_hiderE = type <{ i8*}> 
%struct._ZNSt7__cxx1112basic_stringIcSt11char_traitsIcESaIcEEE = type <{ %struct._ZNSt7__cxx1112basic_stringIcSt11char_traitsIcESaIcEE12_Alloc_hiderE, i64, %union.__C5}> 

define linkonce_odr void @_ZNSt16allocator_traitsISaIN5vmesh14MeshParametersEEE10deallocateERS2_PS1_m(%struct._ZSaIN5vmesh14MeshParametersEE* %__a.arg, %struct._ZN5vmesh14MeshParametersE* %__p.arg, i64 %__n.arg) #0 inlinehint !dbg !3982 {
L.entry:
	%__a.addr = alloca %struct._ZSaIN5vmesh14MeshParametersEE*, align 8
	%__p.addr = alloca %struct._ZN5vmesh14MeshParametersE*, align 8
	%__n.addr = alloca i64, align 8
	%..inline.addr = alloca %struct._ZN5vmesh14MeshParametersE*, align 8

	call void @llvm.dbg.declare (metadata %struct._ZSaIN5vmesh14MeshParametersEE** %__a.addr, metadata !3990, metadata !3019), !dbg !3983
	store %struct._ZSaIN5vmesh14MeshParametersEE* %__a.arg, %struct._ZSaIN5vmesh14MeshParametersEE** %__a.addr, align 8, !tbaa !3105
	call void @llvm.dbg.declare (metadata %struct._ZSaIN5vmesh14MeshParametersEE** %__a.addr, metadata !3991, metadata !3019), !dbg !3983
	call void @llvm.dbg.declare (metadata %struct._ZN5vmesh14MeshParametersE** %__p.addr, metadata !3992, metadata !3019), !dbg !3983
	store %struct._ZN5vmesh14MeshParametersE* %__p.arg, %struct._ZN5vmesh14MeshParametersE** %__p.addr, align 8, !tbaa !3105
	call void @llvm.dbg.declare (metadata %struct._ZN5vmesh14MeshParametersE** %__p.addr, metadata !3993, metadata !3019), !dbg !3983
	call void @llvm.dbg.declare (metadata i64* %__n.addr, metadata !3994, metadata !3019), !dbg !3983
	store i64 %__n.arg, i64* %__n.addr, align 8, !tbaa !3106
