	.text
	.file	"cpu_acc_semilag.ll"
	.file	1 "/home/talgat/vlasiator/vlasovsolver/cpu_acc_semilag.cpp"
	.globl	_Z21prepareAccelerateCellPN12spatial_cell11SpatialCellEj # -- Begin function _Z21prepareAccelerateCellPN12spatial_cell11SpatialCellEj
	.p2align	4, 0x90
	.type	_Z21prepareAccelerateCellPN12spatial_cell11SpatialCellEj,@function
_Z21prepareAccelerateCellPN12spatial_cell11SpatialCellEj: # @_Z21prepareAccelerateCellPN12spatial_cell11SpatialCellEj
.Lfunc_begin0:
	.loc	1 49 0                  # vlasovsolver/cpu_acc_semilag.cpp:49:0
	.cfi_startproc
# %bb.0:                                # %L.entry
	#DEBUG_VALUE: prepareAccelerateCell:spatial_cell <- $rdi
	#DEBUG_VALUE: prepareAccelerateCell:spatial_cell <- $rdi
	#DEBUG_VALUE: prepareAccelerateCell:spatial_cell <- $rdi
	#DEBUG_VALUE: prepareAccelerateCell:popID <- $esi
	#DEBUG_VALUE: prepareAccelerateCell:popID <- $esi
	#DEBUG_VALUE: prepareAccelerateCell:popID <- $esi
	pushq	%rbp
	.cfi_def_cfa_offset 16
	.cfi_offset %rbp, -16
	movq	%rsp, %rbp
	.cfi_def_cfa_register %rbp
.Ltmp0:
	#DEBUG_VALUE: spatial_cell <- $rdi
	#DEBUG_VALUE: spatial_cell <- $rdi
	#DEBUG_VALUE: spatial_cell <- $rdi
	#DEBUG_VALUE: popID <- $esi
	#DEBUG_VALUE: popID <- $esi
	#DEBUG_VALUE: popID <- $esi
	.loc	1 50 1 prologue_end     # vlasovsolver/cpu_acc_semilag.cpp:50:1
	popq	%rbp
	.cfi_def_cfa %rsp, 8
	jmp	_Z23updateAccelerationMaxdtPN12spatial_cell11SpatialCellEj # TAILCALL
.Ltmp1:
.Lfunc_end0:
	.size	_Z21prepareAccelerateCellPN12spatial_cell11SpatialCellEj, .Lfunc_end0-_Z21prepareAccelerateCellPN12spatial_cell11SpatialCellEj
	.cfi_endproc
                                        # -- End function
	.globl	_Z24getAccelerationSubcyclesPN12spatial_cell11SpatialCellEdj # -- Begin function _Z24getAccelerationSubcyclesPN12spatial_cell11SpatialCellEdj
	.p2align	4, 0x90
	.type	_Z24getAccelerationSubcyclesPN12spatial_cell11SpatialCellEdj,@function
_Z24getAccelerationSubcyclesPN12spatial_cell11SpatialCellEdj: # @_Z24getAccelerationSubcyclesPN12spatial_cell11SpatialCellEdj
.Lfunc_begin1:
	.loc	1 63 0                  # vlasovsolver/cpu_acc_semilag.cpp:63:0
	.cfi_startproc
# %bb.0:                                # %L.entry
	#DEBUG_VALUE: getAccelerationSubcycles:spatial_cell <- $rdi
	#DEBUG_VALUE: getAccelerationSubcycles:dt <- $xmm0
	#DEBUG_VALUE: getAccelerationSubcycles:popID <- $esi
	pushq	%rbp
	.cfi_def_cfa_offset 16
	.cfi_offset %rbp, -16
	movq	%rsp, %rbp
	.cfi_def_cfa_register %rbp
	subq	$16, %rsp
.Ltmp2:
	#DEBUG_VALUE: spatial_cell <- $rdi
	#DEBUG_VALUE: dt <- $xmm0
	#DEBUG_VALUE: popID <- $esi
	vmovsd	%xmm0, -8(%rbp)         # 8-byte Spill
	#DEBUG_VALUE: popID <- $esi
	#DEBUG_VALUE: getAccelerationSubcycles:popID <- $esi
.Ltmp3:
	#DEBUG_VALUE: dt <- [DW_OP_constu 8, DW_OP_minus] [$rbp+0]
	#DEBUG_VALUE: getAccelerationSubcycles:dt <- [DW_OP_constu 8, DW_OP_minus] [$rbp+0]
	#DEBUG_VALUE: spatial_cell <- $rdi
	#DEBUG_VALUE: getAccelerationSubcycles:spatial_cell <- $rdi
	#DEBUG_VALUE: popID <- $esi
	#DEBUG_VALUE: getAccelerationSubcycles:popID <- $esi
	#DEBUG_VALUE: spatial_cell <- $rdi
	#DEBUG_VALUE: getAccelerationSubcycles:spatial_cell <- $rdi
	.loc	1 64 1 prologue_end     # vlasovsolver/cpu_acc_semilag.cpp:64:1
	callq	_ZNK12spatial_cell11SpatialCell12get_max_v_dtEj
.Ltmp4:
	.loc	1 0 1 is_stmt 0         # vlasovsolver/cpu_acc_semilag.cpp:0:1
	vmovsd	-8(%rbp), %xmm0         # 8-byte Reload
                                        # xmm0 = mem[0],zero
.Ltmp5:
	#DEBUG_VALUE: dt <- $xmm0
	#DEBUG_VALUE: getAccelerationSubcycles:dt <- $xmm0
	.loc	1 64 1                  # vlasovsolver/cpu_acc_semilag.cpp:64:1
	vdivsd	(%rax), %xmm0, %xmm0
.Ltmp6:
	vroundsd	$10, %xmm0, %xmm0, %xmm0
	vcvttsd2si	%xmm0, %rcx
	testl	%ecx, %ecx
	movl	$1, %eax
	.loc	1 230 1 is_stmt 1       # vlasovsolver/cpu_acc_semilag.cpp:230:1
	cmovnel	%ecx, %eax
	addq	$16, %rsp
	popq	%rbp
	.cfi_def_cfa %rsp, 8
	retq
.Ltmp7:
.Lfunc_end1:
	.size	_Z24getAccelerationSubcyclesPN12spatial_cell11SpatialCellEdj, .Lfunc_end1-_Z24getAccelerationSubcyclesPN12spatial_cell11SpatialCellEdj
	.cfi_endproc
                                        # -- End function
	.section	.rodata.cst8,"aM",@progbits,8
	.p2align	3               # -- Begin function _Z19cpu_accelerate_cellPN12spatial_cell11SpatialCellEjjjRKdb
.LCPI2_0:
	.quad	4607182418800017408     # double 1
.LCPI2_1:
	.quad	-4616189618054758400    # double -1
	.text
	.globl	_Z19cpu_accelerate_cellPN12spatial_cell11SpatialCellEjjjRKdb
	.p2align	4, 0x90
	.type	_Z19cpu_accelerate_cellPN12spatial_cell11SpatialCellEjjjRKdb,@function
_Z19cpu_accelerate_cellPN12spatial_cell11SpatialCellEjjjRKdb: # @_Z19cpu_accelerate_cellPN12spatial_cell11SpatialCellEjjjRKdb
.Lfunc_begin2:
	.loc	1 90 0                  # vlasovsolver/cpu_acc_semilag.cpp:90:0
	.cfi_startproc
	.cfi_personality 3, __gxx_personality_v0
	.cfi_lsda 3, .Lexception0
# %bb.0:                                # %L.entry
	#DEBUG_VALUE: cpu_accelerate_cell:spatial_cell <- $rdi
	#DEBUG_VALUE: cpu_accelerate_cell:popID <- $esi
	#DEBUG_VALUE: cpu_accelerate_cell:map_order <- $edx
	#DEBUG_VALUE: cpu_accelerate_cell:order_step <- $ecx
	#DEBUG_VALUE: cpu_accelerate_cell:dt <- $r8
	#DEBUG_VALUE: cpu_accelerate_cell:useAccelerator <- $r9d
	pushq	%rbp
	.cfi_def_cfa_offset 16
	.cfi_offset %rbp, -16
	movq	%rsp, %rbp
	.cfi_def_cfa_register %rbp
	pushq	%r15
	pushq	%r14
	pushq	%r13
	pushq	%r12
	pushq	%rbx
	subq	$536, %rsp              # imm = 0x218
	.cfi_offset %rbx, -56
	.cfi_offset %r12, -48
	.cfi_offset %r13, -40
	.cfi_offset %r14, -32
	.cfi_offset %r15, -24
	movl	%r9d, -92(%rbp)         # 4-byte Spill
.Ltmp74:
	#DEBUG_VALUE: cpu_accelerate_cell:useAccelerator <- [DW_OP_constu 92, DW_OP_minus] [$rbp+0]
	movq	%r8, %rbx
	movl	%ecx, -252(%rbp)        # 4-byte Spill
	movl	%edx, %r15d
	movl	%esi, %r13d
	movq	%rdi, %r14
.Ltmp75:
	#DEBUG_VALUE: useAccelerator <- undef
	#DEBUG_VALUE: dt <- undef
	#DEBUG_VALUE: order_step <- undef
	#DEBUG_VALUE: map_order <- undef
	#DEBUG_VALUE: spatial_cell <- $r14
	#DEBUG_VALUE: popID <- $r13d
	#DEBUG_VALUE: cpu_accelerate_cell:useAccelerator <- undef
	#DEBUG_VALUE: cpu_accelerate_cell:dt <- $rbx
	#DEBUG_VALUE: cpu_accelerate_cell:order_step <- [DW_OP_constu 252, DW_OP_minus] [$rbp+0]
	#DEBUG_VALUE: cpu_accelerate_cell:map_order <- $r15d
	#DEBUG_VALUE: cpu_accelerate_cell:popID <- $r13d
	#DEBUG_VALUE: cpu_accelerate_cell:spatial_cell <- $r14
	.cfi_escape 0x2e, 0x00
	.loc	1 164 1 prologue_end    # vlasovsolver/cpu_acc_semilag.cpp:164:1
	callq	MPI_Wtime
	.loc	1 1501 1                # vlasovsolver/cpu_acc_semilag.cpp:1501:1
	movq	1408(%r14), %rax
.Ltmp76:
	#DEBUG_VALUE: vmesh <- undef
	.loc	1 0 1 is_stmt 0         # vlasovsolver/cpu_acc_semilag.cpp:0:1
	movq	%rax, -136(%rbp)        # 8-byte Spill
	.loc	1 527 1 is_stmt 1       # vlasovsolver/cpu_acc_semilag.cpp:527:1
	leaq	-272(%rbp), %r12
	movq	%r12, -288(%rbp)
.Ltmp77:
	#DEBUG_VALUE: __dnew <- 17
	#DEBUG_VALUE: _M_construct:_T47974328_38852 <- undef
	#DEBUG_VALUE:  <- [DW_OP_constu 288, DW_OP_minus, DW_OP_stack_value] $rbp
	#DEBUG_VALUE: _M_construct: <- [DW_OP_constu 288, DW_OP_minus, DW_OP_stack_value] $rbp
	#DEBUG_VALUE: ....inline.__FILL_CHARARRAY <- [DW_OP_LLVM_convert 32 7, DW_OP_LLVM_convert 8 7, DW_OP_stack_value] 0
	.file	2 "/usr/include/c++/9/bits/basic_string.tcc"
	.loc	2 143 1                 # /usr/include/c++/9/bits/basic_string.tcc:143:1
	movq	$17, -56(%rbp)
.Ltmp78:
	#DEBUG_VALUE: __dnew <- [DW_OP_constu 56, DW_OP_minus, DW_OP_deref] $rbp
.Ltmp8:
	.cfi_escape 0x2e, 0x00
	.loc	2 0 1 is_stmt 0         # /usr/include/c++/9/bits/basic_string.tcc:0:1
	leaq	-288(%rbp), %rdi
	leaq	-56(%rbp), %rsi
	.loc	2 219 1 is_stmt 1       # /usr/include/c++/9/bits/basic_string.tcc:219:1
	xorl	%edx, %edx
	callq	_ZNSt7__cxx1112basic_stringIcSt11char_traitsIcESaIcEE9_M_createERmm
.Ltmp9:
.Ltmp79:
	#DEBUG_VALUE: __beg <- undef
	#DEBUG_VALUE: _M_construct:__beg <- undef
# %bb.1:                                # %L.B2343
	#DEBUG_VALUE: __dnew <- [DW_OP_constu 56, DW_OP_minus, DW_OP_deref] $rbp
	#DEBUG_VALUE: ....inline.__FILL_CHARARRAY <- [DW_OP_LLVM_convert 32 7, DW_OP_LLVM_convert 8 7, DW_OP_stack_value] 0
	#DEBUG_VALUE: _M_construct: <- [DW_OP_constu 288, DW_OP_minus, DW_OP_stack_value] $rbp
	#DEBUG_VALUE:  <- [DW_OP_constu 288, DW_OP_minus, DW_OP_stack_value] $rbp
	#DEBUG_VALUE: cpu_accelerate_cell:spatial_cell <- $r14
	#DEBUG_VALUE: cpu_accelerate_cell:popID <- $r13d
	#DEBUG_VALUE: cpu_accelerate_cell:map_order <- $r15d
	#DEBUG_VALUE: cpu_accelerate_cell:order_step <- [DW_OP_constu 252, DW_OP_minus] [$rbp+0]
	#DEBUG_VALUE: cpu_accelerate_cell:dt <- $rbx
	#DEBUG_VALUE: popID <- $r13d
	#DEBUG_VALUE: spatial_cell <- $r14
	#DEBUG_VALUE: cpu_accelerate_cell:useAccelerator <- [DW_OP_constu 92, DW_OP_minus] [$rbp+0]
	#DEBUG_VALUE: cpu_accelerate_cell:useAccelerator <- undef
	#DEBUG_VALUE: useAccelerator <- undef
	#DEBUG_VALUE: vmesh <- undef
	movq	%rax, -288(%rbp)
	.loc	2 220 1                 # /usr/include/c++/9/bits/basic_string.tcc:220:1
	movq	-56(%rbp), %rcx
.Ltmp80:
	#DEBUG_VALUE: __dnew <- $rcx
	movq	%rcx, -272(%rbp)
	.loc	2 398 1                 # /usr/include/c++/9/bits/basic_string.tcc:398:1
	vmovupd	.S40785(%rip), %xmm0
	vmovupd	%xmm0, (%rax)
	movb	$109, 16(%rax)
	.loc	2 216 1                 # /usr/include/c++/9/bits/basic_string.tcc:216:1
	movq	%rcx, -280(%rbp)
	.loc	2 217 1                 # /usr/include/c++/9/bits/basic_string.tcc:217:1
	movq	-288(%rbp), %rax
	movb	$0, (%rax,%rcx)
.Ltmp11:
	.cfi_escape 0x2e, 0x00
	leaq	-288(%rbp), %rdi
.Ltmp81:
	.loc	1 97 1                  # vlasovsolver/cpu_acc_semilag.cpp:97:1
	callq	_ZN7phiprof5startERKNSt7__cxx1112basic_stringIcSt11char_traitsIcESaIcEEE
.Ltmp82:
.Ltmp12:
# %bb.2:                                # %L.B2344
	#DEBUG_VALUE: ....inline.__FILL_CHARARRAY <- [DW_OP_LLVM_convert 32 7, DW_OP_LLVM_convert 8 7, DW_OP_stack_value] 0
	#DEBUG_VALUE: cpu_accelerate_cell:spatial_cell <- $r14
	#DEBUG_VALUE: cpu_accelerate_cell:popID <- $r13d
	#DEBUG_VALUE: cpu_accelerate_cell:map_order <- $r15d
	#DEBUG_VALUE: cpu_accelerate_cell:order_step <- [DW_OP_constu 252, DW_OP_minus] [$rbp+0]
	#DEBUG_VALUE: cpu_accelerate_cell:dt <- $rbx
	#DEBUG_VALUE: popID <- $r13d
	#DEBUG_VALUE: spatial_cell <- $r14
	#DEBUG_VALUE: cpu_accelerate_cell:useAccelerator <- [DW_OP_constu 92, DW_OP_minus] [$rbp+0]
	#DEBUG_VALUE: cpu_accelerate_cell:useAccelerator <- undef
	#DEBUG_VALUE: useAccelerator <- undef
	#DEBUG_VALUE: vmesh <- undef
	.loc	1 658 1                 # vlasovsolver/cpu_acc_semilag.cpp:658:1
	movq	-288(%rbp), %rdi
	cmpq	%r12, %rdi
	je	.LBB2_4
.Ltmp83:
# %bb.3:                                # %L.B2345
	#DEBUG_VALUE: ....inline.__FILL_CHARARRAY <- [DW_OP_LLVM_convert 32 7, DW_OP_LLVM_convert 8 7, DW_OP_stack_value] 0
	#DEBUG_VALUE: cpu_accelerate_cell:spatial_cell <- $r14
	#DEBUG_VALUE: cpu_accelerate_cell:popID <- $r13d
	#DEBUG_VALUE: cpu_accelerate_cell:map_order <- $r15d
	#DEBUG_VALUE: cpu_accelerate_cell:order_step <- [DW_OP_constu 252, DW_OP_minus] [$rbp+0]
	#DEBUG_VALUE: cpu_accelerate_cell:dt <- $rbx
	#DEBUG_VALUE: popID <- $r13d
	#DEBUG_VALUE: spatial_cell <- $r14
	#DEBUG_VALUE: cpu_accelerate_cell:useAccelerator <- [DW_OP_constu 92, DW_OP_minus] [$rbp+0]
	.cfi_escape 0x2e, 0x00
	callq	_ZdlPv
.Ltmp84:
.LBB2_4:                                # %L..inline.74976
	#DEBUG_VALUE: ....inline.__FILL_CHARARRAY <- [DW_OP_LLVM_convert 32 7, DW_OP_LLVM_convert 8 7, DW_OP_stack_value] 0
	#DEBUG_VALUE: cpu_accelerate_cell:spatial_cell <- $r14
	#DEBUG_VALUE: cpu_accelerate_cell:popID <- $r13d
	#DEBUG_VALUE: cpu_accelerate_cell:map_order <- $r15d
	#DEBUG_VALUE: cpu_accelerate_cell:order_step <- [DW_OP_constu 252, DW_OP_minus] [$rbp+0]
	#DEBUG_VALUE: cpu_accelerate_cell:dt <- $rbx
	#DEBUG_VALUE: popID <- $r13d
	#DEBUG_VALUE: spatial_cell <- $r14
	#DEBUG_VALUE: cpu_accelerate_cell:useAccelerator <- [DW_OP_constu 92, DW_OP_minus] [$rbp+0]
	#DEBUG_VALUE: cpu_accelerate_cell:useAccelerator <- undef
	#DEBUG_VALUE: useAccelerator <- undef
	#DEBUG_VALUE: vmesh <- undef
	.cfi_escape 0x2e, 0x00
	.loc	1 0 1 is_stmt 0         # vlasovsolver/cpu_acc_semilag.cpp:0:1
	leaq	-576(%rbp), %rdi
	.loc	1 100 1 is_stmt 1       # vlasovsolver/cpu_acc_semilag.cpp:100:1
	movq	%r14, %rsi
	movl	%r13d, %edx
	movq	%rbx, %rcx
	callq	_Z35compute_acceleration_transformationPN12spatial_cell11SpatialCellEjRKd
.Ltmp85:
	#DEBUG_VALUE:  <- undef
	#DEBUG_VALUE: copyCoeff: <- undef
	#DEBUG_VALUE: other <- undef
	#DEBUG_VALUE: copyCoeff:other <- undef
	#DEBUG_VALUE: index <- 0
	#DEBUG_VALUE: copyCoeff:index <- 0
	#DEBUG_VALUE: val <- undef
	#DEBUG_VALUE: setConstant:val <- undef
	#DEBUG_VALUE:  <- undef
	#DEBUG_VALUE: setConstant: <- undef
	#DEBUG_VALUE: a_startCol <- 0
	#DEBUG_VALUE: BlockImpl:a_startCol <- 0
	#DEBUG_VALUE: a_startRow <- 3
	#DEBUG_VALUE: BlockImpl:a_startRow <- 3
	#DEBUG_VALUE: xpr <- [DW_OP_constu 416, DW_OP_minus, DW_OP_stack_value] $rbp
	#DEBUG_VALUE: BlockImpl:xpr <- [DW_OP_constu 416, DW_OP_minus, DW_OP_stack_value] $rbp
	#DEBUG_VALUE:  <- undef
	#DEBUG_VALUE: BlockImpl: <- undef
	#DEBUG_VALUE: hint <- 2
	#DEBUG_VALUE: inverse:hint <- 2
	#DEBUG_VALUE:  <- [DW_OP_constu 576, DW_OP_minus, DW_OP_stack_value] $rbp
	#DEBUG_VALUE: inverse: <- [DW_OP_constu 576, DW_OP_minus, DW_OP_stack_value] $rbp
	.file	3 "/home/talgat/libs/eigen/Eigen/src/Core/DenseCoeffsBase.h"
	.loc	3 83 1                  # /home/talgat/libs/eigen/Eigen/src/Core/DenseCoeffsBase.h:83:1
	movq	$0, -392(%rbp)
.Ltmp86:
	#DEBUG_VALUE: other <- undef
	#DEBUG_VALUE: copyCoeff:other <- undef
	#DEBUG_VALUE: index <- 1
	#DEBUG_VALUE: copyCoeff:index <- 1
	#DEBUG_VALUE:  <- undef
	#DEBUG_VALUE: copyCoeff: <- undef
	.loc	3 83 1 is_stmt 0        # /home/talgat/libs/eigen/Eigen/src/Core/DenseCoeffsBase.h:83:1
	movq	$0, -360(%rbp)
.Ltmp87:
	#DEBUG_VALUE: other <- undef
	#DEBUG_VALUE: copyCoeff:other <- undef
	#DEBUG_VALUE: index <- 2
	#DEBUG_VALUE: copyCoeff:index <- 2
	#DEBUG_VALUE:  <- undef
	#DEBUG_VALUE: copyCoeff: <- undef
	.loc	3 83 1                  # /home/talgat/libs/eigen/Eigen/src/Core/DenseCoeffsBase.h:83:1
	movq	$0, -328(%rbp)
	movabsq	$4607182418800017408, %rax # imm = 0x3FF0000000000000
.Ltmp88:
	.file	4 "/home/talgat/libs/eigen/Eigen/src/Geometry/Transform.h"
	.loc	4 241 1 is_stmt 1       # /home/talgat/libs/eigen/Eigen/src/Geometry/Transform.h:241:1
	movq	%rax, -296(%rbp)
.Ltmp89:
	#DEBUG_VALUE: src <- undef
	#DEBUG_VALUE: run:src <- undef
	#DEBUG_VALUE: dst <- undef
	#DEBUG_VALUE: run:dst <- undef
	#DEBUG_VALUE: other <- undef
	#DEBUG_VALUE: run:other <- undef
	#DEBUG_VALUE: dst <- undef
	#DEBUG_VALUE: run:dst <- undef
	.file	5 "/home/talgat/libs/eigen/Eigen/src/Core/Assign.h"
	.loc	5 505 1                 # /home/talgat/libs/eigen/Eigen/src/Core/Assign.h:505:1
	vmovsd	-576(%rbp), %xmm14      # xmm14 = mem[0],zero
.Ltmp90:
	#DEBUG_VALUE: src <- undef
	#DEBUG_VALUE: run:src <- undef
	#DEBUG_VALUE: dst <- undef
	#DEBUG_VALUE: run:dst <- undef
	.loc	5 505 1 is_stmt 0       # /home/talgat/libs/eigen/Eigen/src/Core/Assign.h:505:1
	vmovsd	-568(%rbp), %xmm15      # xmm15 = mem[0],zero
.Ltmp91:
	#DEBUG_VALUE: src <- undef
	#DEBUG_VALUE: run:src <- undef
	#DEBUG_VALUE: dst <- undef
	#DEBUG_VALUE: run:dst <- undef
	.loc	5 505 1                 # /home/talgat/libs/eigen/Eigen/src/Core/Assign.h:505:1
	vmovsd	-560(%rbp), %xmm4       # xmm4 = mem[0],zero
.Ltmp92:
	#DEBUG_VALUE: src <- undef
	#DEBUG_VALUE: run:src <- undef
	#DEBUG_VALUE: dst <- undef
	#DEBUG_VALUE: run:dst <- undef
	.loc	5 505 1                 # /home/talgat/libs/eigen/Eigen/src/Core/Assign.h:505:1
	vmovsd	-544(%rbp), %xmm10      # xmm10 = mem[0],zero
.Ltmp93:
	#DEBUG_VALUE: src <- undef
	#DEBUG_VALUE: run:src <- undef
	#DEBUG_VALUE: dst <- undef
	#DEBUG_VALUE: run:dst <- undef
	.loc	5 505 1                 # /home/talgat/libs/eigen/Eigen/src/Core/Assign.h:505:1
	vmovsd	-536(%rbp), %xmm9       # xmm9 = mem[0],zero
.Ltmp94:
	#DEBUG_VALUE: src <- undef
	#DEBUG_VALUE: run:src <- undef
	#DEBUG_VALUE: dst <- undef
	#DEBUG_VALUE: run:dst <- undef
	.loc	5 505 1                 # /home/talgat/libs/eigen/Eigen/src/Core/Assign.h:505:1
	vmovsd	-528(%rbp), %xmm13      # xmm13 = mem[0],zero
.Ltmp95:
	#DEBUG_VALUE: src <- undef
	#DEBUG_VALUE: run:src <- undef
	#DEBUG_VALUE: dst <- undef
	#DEBUG_VALUE: run:dst <- undef
	.loc	5 505 1                 # /home/talgat/libs/eigen/Eigen/src/Core/Assign.h:505:1
	vmovsd	-512(%rbp), %xmm2       # xmm2 = mem[0],zero
.Ltmp96:
	#DEBUG_VALUE: src <- undef
	#DEBUG_VALUE: run:src <- undef
	#DEBUG_VALUE: dst <- undef
	#DEBUG_VALUE: run:dst <- undef
	.loc	5 505 1                 # /home/talgat/libs/eigen/Eigen/src/Core/Assign.h:505:1
	vmovsd	-504(%rbp), %xmm5       # xmm5 = mem[0],zero
.Ltmp97:
	#DEBUG_VALUE: src <- undef
	#DEBUG_VALUE: run:src <- undef
	#DEBUG_VALUE: dst <- undef
	#DEBUG_VALUE: run:dst <- undef
	.loc	5 505 1                 # /home/talgat/libs/eigen/Eigen/src/Core/Assign.h:505:1
	vmovsd	-496(%rbp), %xmm6       # xmm6 = mem[0],zero
.Ltmp98:
	#DEBUG_VALUE: result <- undef
	#DEBUG_VALUE: run:result <- undef
	#DEBUG_VALUE: matrix <- undef
	#DEBUG_VALUE: run:matrix <- undef
	.file	6 "/home/talgat/libs/eigen/Eigen/src/LU/Inverse.h"
	.loc	6 125 1 is_stmt 1       # /home/talgat/libs/eigen/Eigen/src/LU/Inverse.h:125:1
	vmulsd	%xmm5, %xmm13, %xmm7
	vfmsub231sd	%xmm9, %xmm6, %xmm7 # xmm7 = (xmm6 * xmm9) - xmm7
.Ltmp99:
	#DEBUG_VALUE: cofactors_col0 <- undef
	vmulsd	%xmm6, %xmm10, %xmm0
	vfmsub231sd	%xmm2, %xmm13, %xmm0 # xmm0 = (xmm13 * xmm2) - xmm0
	#DEBUG_VALUE: cofactors_col0 <- undef
	vmulsd	%xmm2, %xmm9, %xmm1
	vfmsub231sd	%xmm10, %xmm5, %xmm1 # xmm1 = (xmm5 * xmm10) - xmm1
.Ltmp100:
	#DEBUG_VALUE: inner <- 0
	#DEBUG_VALUE: coeffByOuterInner:inner <- 0
	#DEBUG_VALUE: outer <- 0
	#DEBUG_VALUE: coeffByOuterInner:outer <- 0
	#DEBUG_VALUE:  <- undef
	#DEBUG_VALUE: coeffByOuterInner: <- undef
	#DEBUG_VALUE: cofactors_col0 <- undef
	.loc	3 98 1                  # /home/talgat/libs/eigen/Eigen/src/Core/DenseCoeffsBase.h:98:1
	vmulsd	%xmm7, %xmm14, %xmm8
.Ltmp101:
	#DEBUG_VALUE: inner <- 1
	#DEBUG_VALUE: coeffByOuterInner:inner <- 1
	#DEBUG_VALUE: outer <- 0
	#DEBUG_VALUE: coeffByOuterInner:outer <- 0
	#DEBUG_VALUE:  <- undef
	#DEBUG_VALUE: coeffByOuterInner: <- undef
	.loc	3 98 1 is_stmt 0        # /home/talgat/libs/eigen/Eigen/src/Core/DenseCoeffsBase.h:98:1
	vmulsd	%xmm0, %xmm15, %xmm11
.Ltmp102:
	#DEBUG_VALUE: inner <- 2
	#DEBUG_VALUE: coeffByOuterInner:inner <- 2
	#DEBUG_VALUE: outer <- 0
	#DEBUG_VALUE: coeffByOuterInner:outer <- 0
	#DEBUG_VALUE:  <- undef
	#DEBUG_VALUE: coeffByOuterInner: <- undef
	.loc	3 98 1                  # /home/talgat/libs/eigen/Eigen/src/Core/DenseCoeffsBase.h:98:1
	vmulsd	%xmm1, %xmm4, %xmm3
.Ltmp103:
	.loc	6 364 1 is_stmt 1       # /home/talgat/libs/eigen/Eigen/src/LU/Inverse.h:364:1
	vaddsd	%xmm11, %xmm3, %xmm3
	vaddsd	%xmm3, %xmm8, %xmm8
	vmovsd	.LCPI2_0(%rip), %xmm3   # xmm3 = mem[0],zero
	.loc	6 156 1                 # /home/talgat/libs/eigen/Eigen/src/LU/Inverse.h:156:1
	vdivsd	%xmm8, %xmm3, %xmm3
.Ltmp104:
	#DEBUG_VALUE: other <- undef
	#DEBUG_VALUE: lazyAssign:other <- undef
	#DEBUG_VALUE:  <- undef
	#DEBUG_VALUE: lazyAssign: <- undef
	#DEBUG_VALUE: result <- undef
	#DEBUG_VALUE: compute_inverse_size3_helper:result <- undef
	#DEBUG_VALUE: cofactors_col0 <- undef
	#DEBUG_VALUE: compute_inverse_size3_helper:cofactors_col0 <- undef
	#DEBUG_VALUE: matrix <- undef
	#DEBUG_VALUE: compute_inverse_size3_helper:matrix <- undef
	#DEBUG_VALUE: invdet <- $xmm3
	.loc	5 313 1                 # /home/talgat/libs/eigen/Eigen/src/Core/Assign.h:313:1
	vmulsd	%xmm3, %xmm7, %xmm7
	vmovsd	%xmm7, -144(%rbp)       # 8-byte Spill
	vmovsd	%xmm7, -416(%rbp)
.Ltmp105:
	#DEBUG_VALUE: src <- undef
	#DEBUG_VALUE: run:src <- undef
	#DEBUG_VALUE: dst <- undef
	#DEBUG_VALUE: run:dst <- undef
	.loc	5 495 1                 # /home/talgat/libs/eigen/Eigen/src/Core/Assign.h:495:1
	vmulsd	%xmm3, %xmm0, %xmm7
	vmovsd	%xmm7, -384(%rbp)
	.loc	5 180 1                 # /home/talgat/libs/eigen/Eigen/src/Core/Assign.h:180:1
	vmulsd	%xmm3, %xmm1, %xmm12
	vmovsd	%xmm12, -352(%rbp)
.Ltmp106:
	.loc	6 125 1                 # /home/talgat/libs/eigen/Eigen/src/LU/Inverse.h:125:1
	vmulsd	%xmm6, %xmm15, %xmm0
	vfmsub231sd	%xmm5, %xmm4, %xmm0 # xmm0 = (xmm4 * xmm5) - xmm0
	.loc	6 127 1                 # /home/talgat/libs/eigen/Eigen/src/LU/Inverse.h:127:1
	vmulsd	%xmm3, %xmm0, %xmm11
	vmovsd	%xmm11, -408(%rbp)
	.loc	6 125 1                 # /home/talgat/libs/eigen/Eigen/src/LU/Inverse.h:125:1
	vmulsd	%xmm2, %xmm4, %xmm0
	vfmsub213sd	%xmm0, %xmm14, %xmm6 # xmm6 = (xmm14 * xmm6) - xmm0
	.loc	6 127 1                 # /home/talgat/libs/eigen/Eigen/src/LU/Inverse.h:127:1
	vmulsd	%xmm3, %xmm6, %xmm6
	vmovsd	%xmm6, -376(%rbp)
	.loc	6 125 1                 # /home/talgat/libs/eigen/Eigen/src/LU/Inverse.h:125:1
	vmulsd	%xmm5, %xmm14, %xmm0
	vfmsub231sd	%xmm2, %xmm15, %xmm0 # xmm0 = (xmm15 * xmm2) - xmm0
	.loc	6 127 1                 # /home/talgat/libs/eigen/Eigen/src/LU/Inverse.h:127:1
	vmulsd	%xmm3, %xmm0, %xmm2
	vmovsd	%xmm2, -344(%rbp)
	.loc	6 125 1                 # /home/talgat/libs/eigen/Eigen/src/LU/Inverse.h:125:1
	vmulsd	%xmm9, %xmm4, %xmm0
	vfmsub231sd	%xmm13, %xmm15, %xmm0 # xmm0 = (xmm15 * xmm13) - xmm0
	.loc	6 127 1                 # /home/talgat/libs/eigen/Eigen/src/LU/Inverse.h:127:1
	vmulsd	%xmm3, %xmm0, %xmm8
	vmovsd	%xmm8, -400(%rbp)
	.loc	6 125 1                 # /home/talgat/libs/eigen/Eigen/src/LU/Inverse.h:125:1
	vmulsd	%xmm13, %xmm14, %xmm1
	vfmsub213sd	%xmm1, %xmm10, %xmm4 # xmm4 = (xmm10 * xmm4) - xmm1
	.loc	6 127 1                 # /home/talgat/libs/eigen/Eigen/src/LU/Inverse.h:127:1
	vmulsd	%xmm3, %xmm4, %xmm1
	vmovsd	%xmm1, -368(%rbp)
	.loc	6 125 1                 # /home/talgat/libs/eigen/Eigen/src/LU/Inverse.h:125:1
	vmulsd	%xmm10, %xmm15, %xmm4
	vfmsub231sd	%xmm9, %xmm14, %xmm4 # xmm4 = (xmm14 * xmm9) - xmm4
	.loc	6 127 1                 # /home/talgat/libs/eigen/Eigen/src/LU/Inverse.h:127:1
	vmulsd	%xmm3, %xmm4, %xmm3
.Ltmp107:
	vmovsd	%xmm3, -336(%rbp)
.Ltmp108:
	#DEBUG_VALUE: rhs <- [DW_OP_plus_uconst 48, DW_OP_stack_value] undef
	#DEBUG_VALUE: run:rhs <- [DW_OP_plus_uconst 48, DW_OP_stack_value] undef
	#DEBUG_VALUE: lhs <- [DW_OP_plus_uconst 8, DW_OP_stack_value] undef
	#DEBUG_VALUE: run:lhs <- [DW_OP_plus_uconst 8, DW_OP_stack_value] undef
	#DEBUG_VALUE: col <- 0
	#DEBUG_VALUE: run:col <- 0
	#DEBUG_VALUE: row <- 0
	#DEBUG_VALUE: run:row <- 0
	#DEBUG_VALUE: col <- 0
	#DEBUG_VALUE: coeff:col <- 0
	#DEBUG_VALUE: row <- 0
	#DEBUG_VALUE: coeff:row <- 0
	#DEBUG_VALUE:  <- undef
	#DEBUG_VALUE: coeff: <- undef
	#DEBUG_VALUE: src <- undef
	#DEBUG_VALUE: run:src <- undef
	#DEBUG_VALUE: dst <- undef
	#DEBUG_VALUE: run:dst <- undef
	#DEBUG_VALUE: other <- undef
	#DEBUG_VALUE: lazyAssign:other <- undef
	#DEBUG_VALUE:  <- undef
	#DEBUG_VALUE: lazyAssign: <- undef
	#DEBUG_VALUE: other <- undef
	#DEBUG_VALUE: run:other <- undef
	#DEBUG_VALUE: dst <- undef
	#DEBUG_VALUE: run:dst <- undef
	#DEBUG_VALUE: a_startCol <- 3
	#DEBUG_VALUE: BlockImpl:a_startCol <- 3
	#DEBUG_VALUE: a_startRow <- 0
	#DEBUG_VALUE: BlockImpl:a_startRow <- 0
	#DEBUG_VALUE: xpr <- [DW_OP_constu 576, DW_OP_minus, DW_OP_stack_value] $rbp
	#DEBUG_VALUE: BlockImpl:xpr <- [DW_OP_constu 576, DW_OP_minus, DW_OP_stack_value] $rbp
	#DEBUG_VALUE:  <- undef
	#DEBUG_VALUE: BlockImpl: <- undef
	.file	7 "/home/talgat/libs/eigen/Eigen/src/Core/products/CoeffBasedProduct.h"
	.loc	7 256 1                 # /home/talgat/libs/eigen/Eigen/src/Core/products/CoeffBasedProduct.h:256:1
	vmovsd	-480(%rbp), %xmm4       # xmm4 = mem[0],zero
	.loc	7 93 1                  # /home/talgat/libs/eigen/Eigen/src/Core/products/CoeffBasedProduct.h:93:1
	vmovsd	-472(%rbp), %xmm5       # xmm5 = mem[0],zero
	.loc	7 256 1                 # /home/talgat/libs/eigen/Eigen/src/Core/products/CoeffBasedProduct.h:256:1
	vmulsd	-144(%rbp), %xmm4, %xmm0 # 8-byte Folded Reload
	.loc	7 93 1                  # /home/talgat/libs/eigen/Eigen/src/Core/products/CoeffBasedProduct.h:93:1
	vfnmsub213sd	%xmm0, %xmm5, %xmm7 # xmm7 = -(xmm5 * xmm7) - xmm0
.Ltmp109:
	#DEBUG_VALUE: res <- $xmm7
	.loc	7 246 1                 # /home/talgat/libs/eigen/Eigen/src/Core/products/CoeffBasedProduct.h:246:1
	vmovsd	-464(%rbp), %xmm0       # xmm0 = mem[0],zero
	vfnmadd213sd	%xmm7, %xmm0, %xmm12 # xmm12 = -(xmm0 * xmm12) + xmm7
.Ltmp110:
	#DEBUG_VALUE: rhs <- undef
	#DEBUG_VALUE: run:rhs <- undef
	#DEBUG_VALUE: lhs <- undef
	#DEBUG_VALUE: run:lhs <- undef
	#DEBUG_VALUE: col <- 0
	#DEBUG_VALUE: run:col <- 0
	#DEBUG_VALUE: row <- 1
	#DEBUG_VALUE: run:row <- 1
	#DEBUG_VALUE: col <- 0
	#DEBUG_VALUE: coeff:col <- 0
	#DEBUG_VALUE: row <- 1
	#DEBUG_VALUE: coeff:row <- 1
	#DEBUG_VALUE:  <- undef
	#DEBUG_VALUE: coeff: <- undef
	#DEBUG_VALUE: res <- $xmm12
	.loc	7 256 1                 # /home/talgat/libs/eigen/Eigen/src/Core/products/CoeffBasedProduct.h:256:1
	vmulsd	%xmm4, %xmm11, %xmm7
	.loc	7 93 1                  # /home/talgat/libs/eigen/Eigen/src/Core/products/CoeffBasedProduct.h:93:1
	vfnmsub213sd	%xmm7, %xmm5, %xmm6 # xmm6 = -(xmm5 * xmm6) - xmm7
.Ltmp111:
	#DEBUG_VALUE: res <- $xmm6
	.loc	7 246 1                 # /home/talgat/libs/eigen/Eigen/src/Core/products/CoeffBasedProduct.h:246:1
	vfnmadd213sd	%xmm6, %xmm0, %xmm2 # xmm2 = -(xmm0 * xmm2) + xmm6
.Ltmp112:
	#DEBUG_VALUE: rhs <- undef
	#DEBUG_VALUE: run:rhs <- undef
	#DEBUG_VALUE: lhs <- undef
	#DEBUG_VALUE: run:lhs <- undef
	#DEBUG_VALUE: col <- 0
	#DEBUG_VALUE: run:col <- 0
	#DEBUG_VALUE: row <- 2
	#DEBUG_VALUE: run:row <- 2
	#DEBUG_VALUE: col <- 0
	#DEBUG_VALUE: coeff:col <- 0
	#DEBUG_VALUE: row <- 2
	#DEBUG_VALUE: coeff:row <- 2
	#DEBUG_VALUE:  <- undef
	#DEBUG_VALUE: coeff: <- undef
	#DEBUG_VALUE: res <- $xmm2
	.loc	7 256 1                 # /home/talgat/libs/eigen/Eigen/src/Core/products/CoeffBasedProduct.h:256:1
	vmulsd	%xmm4, %xmm8, %xmm4
	.loc	7 93 1                  # /home/talgat/libs/eigen/Eigen/src/Core/products/CoeffBasedProduct.h:93:1
	vfnmsub231sd	%xmm5, %xmm1, %xmm4 # xmm4 = -(xmm1 * xmm5) - xmm4
.Ltmp113:
	#DEBUG_VALUE: res <- $xmm4
	.loc	7 246 1                 # /home/talgat/libs/eigen/Eigen/src/Core/products/CoeffBasedProduct.h:246:1
	vfnmadd231sd	%xmm0, %xmm3, %xmm4 # xmm4 = -(xmm3 * xmm0) + xmm4
.Ltmp114:
	#DEBUG_VALUE: src <- undef
	#DEBUG_VALUE: run:src <- undef
	#DEBUG_VALUE: dst <- undef
	#DEBUG_VALUE: run:dst <- undef
	#DEBUG_VALUE: res <- $xmm4
	.loc	5 495 1                 # /home/talgat/libs/eigen/Eigen/src/Core/Assign.h:495:1
	vmovsd	%xmm12, -320(%rbp)
	.loc	5 180 1                 # /home/talgat/libs/eigen/Eigen/src/Core/Assign.h:180:1
	vmovsd	%xmm2, -312(%rbp)
	.loc	5 181 1                 # /home/talgat/libs/eigen/Eigen/src/Core/Assign.h:181:1
	vmovsd	%xmm4, -304(%rbp)
.Ltmp115:
	#DEBUG_VALUE:  <- undef
	#DEBUG_VALUE: copyCoeff: <- undef
	#DEBUG_VALUE: other <- undef
	#DEBUG_VALUE: copyCoeff:other <- undef
	#DEBUG_VALUE: index <- 0
	#DEBUG_VALUE: copyCoeff:index <- 0
	#DEBUG_VALUE: val <- undef
	#DEBUG_VALUE: setConstant:val <- undef
	#DEBUG_VALUE:  <- undef
	#DEBUG_VALUE: setConstant: <- undef
	#DEBUG_VALUE: a_startCol <- 0
	#DEBUG_VALUE: BlockImpl:a_startCol <- 0
	#DEBUG_VALUE: a_startRow <- 3
	#DEBUG_VALUE: BlockImpl:a_startRow <- 3
	#DEBUG_VALUE: xpr <- [DW_OP_constu 416, DW_OP_minus, DW_OP_stack_value] $rbp
	#DEBUG_VALUE: BlockImpl:xpr <- [DW_OP_constu 416, DW_OP_minus, DW_OP_stack_value] $rbp
	#DEBUG_VALUE:  <- undef
	#DEBUG_VALUE: BlockImpl: <- undef
	.loc	3 83 1                  # /home/talgat/libs/eigen/Eigen/src/Core/DenseCoeffsBase.h:83:1
	movq	$0, -392(%rbp)
.Ltmp116:
	#DEBUG_VALUE: other <- undef
	#DEBUG_VALUE: copyCoeff:other <- undef
	#DEBUG_VALUE: index <- 1
	#DEBUG_VALUE: copyCoeff:index <- 1
	#DEBUG_VALUE:  <- undef
	#DEBUG_VALUE: copyCoeff: <- undef
	.loc	3 83 1 is_stmt 0        # /home/talgat/libs/eigen/Eigen/src/Core/DenseCoeffsBase.h:83:1
	movq	$0, -360(%rbp)
.Ltmp117:
	#DEBUG_VALUE: other <- undef
	#DEBUG_VALUE: copyCoeff:other <- undef
	#DEBUG_VALUE: index <- 2
	#DEBUG_VALUE: copyCoeff:index <- 2
	#DEBUG_VALUE:  <- undef
	#DEBUG_VALUE: copyCoeff: <- undef
	.loc	3 83 1                  # /home/talgat/libs/eigen/Eigen/src/Core/DenseCoeffsBase.h:83:1
	movq	$0, -328(%rbp)
.Ltmp118:
	.loc	4 614 1 is_stmt 1       # /home/talgat/libs/eigen/Eigen/src/Geometry/Transform.h:614:1
	movq	%rax, -296(%rbp)
.Ltmp119:
	.loc	1 527 1                 # vlasovsolver/cpu_acc_semilag.cpp:527:1
	movq	%r12, -288(%rbp)
.Ltmp120:
	#DEBUG_VALUE: __dnew <- 17
	#DEBUG_VALUE: _M_construct:_T47974328_38852 <- undef
	#DEBUG_VALUE:  <- [DW_OP_constu 288, DW_OP_minus, DW_OP_stack_value] $rbp
	#DEBUG_VALUE: _M_construct: <- [DW_OP_constu 288, DW_OP_minus, DW_OP_stack_value] $rbp
	#DEBUG_VALUE: ....inline.__FILL_CHARARRAY <- [DW_OP_LLVM_convert 32 7, DW_OP_LLVM_convert 8 7, DW_OP_stack_value] 0
	.loc	2 143 1                 # /usr/include/c++/9/bits/basic_string.tcc:143:1
	movq	$17, -56(%rbp)
.Ltmp121:
	#DEBUG_VALUE: __dnew <- [DW_OP_constu 56, DW_OP_minus, DW_OP_deref] $rbp
.Ltmp14:
	.cfi_escape 0x2e, 0x00
	.loc	2 0 1 is_stmt 0         # /usr/include/c++/9/bits/basic_string.tcc:0:1
	leaq	-288(%rbp), %rdi
	leaq	-56(%rbp), %rsi
	.loc	2 219 1 is_stmt 1       # /usr/include/c++/9/bits/basic_string.tcc:219:1
	xorl	%edx, %edx
	callq	_ZNSt7__cxx1112basic_stringIcSt11char_traitsIcESaIcEE9_M_createERmm
.Ltmp122:
.Ltmp15:
	#DEBUG_VALUE: __beg <- undef
	#DEBUG_VALUE: _M_construct:__beg <- undef
# %bb.5:                                # %L.B2349
	#DEBUG_VALUE: __dnew <- [DW_OP_constu 56, DW_OP_minus, DW_OP_deref] $rbp
	#DEBUG_VALUE: _M_construct: <- [DW_OP_constu 288, DW_OP_minus, DW_OP_stack_value] $rbp
	#DEBUG_VALUE:  <- [DW_OP_constu 288, DW_OP_minus, DW_OP_stack_value] $rbp
	#DEBUG_VALUE: ....inline.__FILL_CHARARRAY <- [DW_OP_LLVM_convert 32 7, DW_OP_LLVM_convert 8 7, DW_OP_stack_value] 0
	#DEBUG_VALUE: cpu_accelerate_cell:spatial_cell <- $r14
	#DEBUG_VALUE: cpu_accelerate_cell:popID <- $r13d
	#DEBUG_VALUE: cpu_accelerate_cell:map_order <- $r15d
	#DEBUG_VALUE: cpu_accelerate_cell:order_step <- [DW_OP_constu 252, DW_OP_minus] [$rbp+0]
	#DEBUG_VALUE: cpu_accelerate_cell:dt <- $rbx
	#DEBUG_VALUE: popID <- $r13d
	#DEBUG_VALUE: spatial_cell <- $r14
	#DEBUG_VALUE: cpu_accelerate_cell:useAccelerator <- [DW_OP_constu 92, DW_OP_minus] [$rbp+0]
	#DEBUG_VALUE: cpu_accelerate_cell:useAccelerator <- undef
	#DEBUG_VALUE: useAccelerator <- undef
	#DEBUG_VALUE: vmesh <- undef
	.loc	2 0 1 is_stmt 0         # /usr/include/c++/9/bits/basic_string.tcc:0:1
	movq	%r14, -144(%rbp)        # 8-byte Spill
.Ltmp123:
	#DEBUG_VALUE: spatial_cell <- [DW_OP_constu 144, DW_OP_minus] [$rbp+0]
	.loc	2 219 1                 # /usr/include/c++/9/bits/basic_string.tcc:219:1
	movq	%rax, -288(%rbp)
	.loc	2 220 1 is_stmt 1       # /usr/include/c++/9/bits/basic_string.tcc:220:1
	movq	-56(%rbp), %rcx
.Ltmp124:
	#DEBUG_VALUE: __dnew <- $rcx
	movq	%rcx, -272(%rbp)
	.loc	2 398 1                 # /usr/include/c++/9/bits/basic_string.tcc:398:1
	vmovups	.S40785(%rip), %xmm0
	vmovups	%xmm0, (%rax)
	movb	$109, 16(%rax)
	.loc	2 216 1                 # /usr/include/c++/9/bits/basic_string.tcc:216:1
	movq	%rcx, -280(%rbp)
	.loc	2 217 1                 # /usr/include/c++/9/bits/basic_string.tcc:217:1
	movq	-288(%rbp), %rax
	movb	$0, (%rax,%rcx)
.Ltmp125:
	.loc	1 527 1                 # vlasovsolver/cpu_acc_semilag.cpp:527:1
	leaq	-432(%rbp), %rbx
.Ltmp126:
	movq	%rbx, -448(%rbp)
.Ltmp127:
	#DEBUG_VALUE: __dnew <- 0
	#DEBUG_VALUE: _M_construct:_T47974328_38852 <- undef
	#DEBUG_VALUE:  <- [DW_OP_constu 448, DW_OP_minus, DW_OP_stack_value] $rbp
	#DEBUG_VALUE: _M_construct: <- [DW_OP_constu 448, DW_OP_minus, DW_OP_stack_value] $rbp
	#DEBUG_VALUE: ....inline.__FILL_CHARARRAY <- [DW_OP_LLVM_convert 32 7, DW_OP_LLVM_convert 8 7, DW_OP_stack_value] 0
	.loc	2 216 1                 # /usr/include/c++/9/bits/basic_string.tcc:216:1
	movq	$0, -440(%rbp)
	.loc	2 217 1                 # /usr/include/c++/9/bits/basic_string.tcc:217:1
	movb	$0, -432(%rbp)
.Ltmp17:
	.cfi_escape 0x2e, 0x00
	leaq	-288(%rbp), %rdi
	vmovsd	.LCPI2_1(%rip), %xmm0   # xmm0 = mem[0],zero
	leaq	-448(%rbp), %rsi
.Ltmp128:
	.loc	1 102 1                 # vlasovsolver/cpu_acc_semilag.cpp:102:1
	callq	_ZN7phiprof4stopERKNSt7__cxx1112basic_stringIcSt11char_traitsIcESaIcEEEdS7_
.Ltmp129:
.Ltmp18:
# %bb.6:                                # %L.B2350
	#DEBUG_VALUE: spatial_cell <- [DW_OP_constu 144, DW_OP_minus] [$rbp+0]
	#DEBUG_VALUE: ....inline.__FILL_CHARARRAY <- [DW_OP_LLVM_convert 32 7, DW_OP_LLVM_convert 8 7, DW_OP_stack_value] 0
	#DEBUG_VALUE: cpu_accelerate_cell:spatial_cell <- $r14
	#DEBUG_VALUE: cpu_accelerate_cell:popID <- $r13d
	#DEBUG_VALUE: cpu_accelerate_cell:map_order <- $r15d
	#DEBUG_VALUE: cpu_accelerate_cell:order_step <- [DW_OP_constu 252, DW_OP_minus] [$rbp+0]
	#DEBUG_VALUE: popID <- $r13d
	#DEBUG_VALUE: cpu_accelerate_cell:useAccelerator <- [DW_OP_constu 92, DW_OP_minus] [$rbp+0]
	.loc	1 0 1 is_stmt 0         # vlasovsolver/cpu_acc_semilag.cpp:0:1
	movl	%r13d, %r14d
.Ltmp130:
	movl	%r13d, %r13d
.Ltmp131:
	#DEBUG_VALUE: vmesh <- undef
	#DEBUG_VALUE: useAccelerator <- undef
	#DEBUG_VALUE: cpu_accelerate_cell:useAccelerator <- undef
	.loc	1 658 1 is_stmt 1       # vlasovsolver/cpu_acc_semilag.cpp:658:1
	movq	-448(%rbp), %rdi
	cmpq	%rbx, %rdi
	je	.LBB2_8
.Ltmp132:
# %bb.7:                                # %L.B2351
	#DEBUG_VALUE: spatial_cell <- [DW_OP_constu 144, DW_OP_minus] [$rbp+0]
	#DEBUG_VALUE: ....inline.__FILL_CHARARRAY <- [DW_OP_LLVM_convert 32 7, DW_OP_LLVM_convert 8 7, DW_OP_stack_value] 0
	#DEBUG_VALUE: cpu_accelerate_cell:map_order <- $r15d
	#DEBUG_VALUE: cpu_accelerate_cell:order_step <- [DW_OP_constu 252, DW_OP_minus] [$rbp+0]
	#DEBUG_VALUE: cpu_accelerate_cell:useAccelerator <- [DW_OP_constu 92, DW_OP_minus] [$rbp+0]
	.cfi_escape 0x2e, 0x00
	callq	_ZdlPv
.Ltmp133:
.LBB2_8:                                # %L..inline.75209
	#DEBUG_VALUE: spatial_cell <- [DW_OP_constu 144, DW_OP_minus] [$rbp+0]
	#DEBUG_VALUE: ....inline.__FILL_CHARARRAY <- [DW_OP_LLVM_convert 32 7, DW_OP_LLVM_convert 8 7, DW_OP_stack_value] 0
	#DEBUG_VALUE: cpu_accelerate_cell:map_order <- $r15d
	#DEBUG_VALUE: cpu_accelerate_cell:order_step <- [DW_OP_constu 252, DW_OP_minus] [$rbp+0]
	#DEBUG_VALUE: cpu_accelerate_cell:useAccelerator <- [DW_OP_constu 92, DW_OP_minus] [$rbp+0]
	.loc	1 0 0 is_stmt 0         # vlasovsolver/cpu_acc_semilag.cpp:0:0
	imulq	$608, %r13, %rbx        # imm = 0x260
.Ltmp134:
	#DEBUG_VALUE: vmesh <- undef
	#DEBUG_VALUE: useAccelerator <- undef
	#DEBUG_VALUE: cpu_accelerate_cell:useAccelerator <- undef
	.loc	1 658 1                 # vlasovsolver/cpu_acc_semilag.cpp:658:1
	movq	-288(%rbp), %rdi
	cmpq	%r12, %rdi
	je	.LBB2_10
.Ltmp135:
# %bb.9:                                # %L.B2352
	#DEBUG_VALUE: spatial_cell <- [DW_OP_constu 144, DW_OP_minus] [$rbp+0]
	#DEBUG_VALUE: ....inline.__FILL_CHARARRAY <- [DW_OP_LLVM_convert 32 7, DW_OP_LLVM_convert 8 7, DW_OP_stack_value] 0
	#DEBUG_VALUE: cpu_accelerate_cell:map_order <- $r15d
	#DEBUG_VALUE: cpu_accelerate_cell:order_step <- [DW_OP_constu 252, DW_OP_minus] [$rbp+0]
	#DEBUG_VALUE: cpu_accelerate_cell:useAccelerator <- [DW_OP_constu 92, DW_OP_minus] [$rbp+0]
	.cfi_escape 0x2e, 0x00
	callq	_ZdlPv
.Ltmp136:
.LBB2_10:                               # %L..inline.75296
	#DEBUG_VALUE: spatial_cell <- [DW_OP_constu 144, DW_OP_minus] [$rbp+0]
	#DEBUG_VALUE: ....inline.__FILL_CHARARRAY <- [DW_OP_LLVM_convert 32 7, DW_OP_LLVM_convert 8 7, DW_OP_stack_value] 0
	#DEBUG_VALUE: cpu_accelerate_cell:map_order <- $r15d
	#DEBUG_VALUE: cpu_accelerate_cell:order_step <- [DW_OP_constu 252, DW_OP_minus] [$rbp+0]
	#DEBUG_VALUE: cpu_accelerate_cell:useAccelerator <- [DW_OP_constu 92, DW_OP_minus] [$rbp+0]
	#DEBUG_VALUE: cpu_accelerate_cell:useAccelerator <- [DW_OP_constu 92, DW_OP_minus] [$rbp+0]
	#DEBUG_VALUE: useAccelerator <- [DW_OP_constu 92, DW_OP_minus] [$rbp+0]
	.loc	1 0 1                   # vlasovsolver/cpu_acc_semilag.cpp:0:1
	movq	-136(%rbp), %rax        # 8-byte Reload
	leaq	(%rax,%rbx), %r13
	addq	$208, %r13
.Ltmp137:
	#DEBUG_VALUE: refLevel <- 0
	#DEBUG_VALUE: vmesh <- $r13
	.loc	1 104 1 is_stmt 1       # vlasovsolver/cpu_acc_semilag.cpp:104:1
	movb	$0, -41(%rbp)
.Ltmp138:
	.loc	1 108 1                 # vlasovsolver/cpu_acc_semilag.cpp:108:1
	testl	%r15d, %r15d
	movl	%r14d, -136(%rbp)       # 4-byte Spill
	movl	-252(%rbp), %ebx        # 4-byte Reload
	je	.LBB2_21
.Ltmp139:
# %bb.11:                               # %L..inline.75296
	#DEBUG_VALUE: vmesh <- $r13
	#DEBUG_VALUE: refLevel <- 0
	#DEBUG_VALUE: useAccelerator <- [DW_OP_constu 92, DW_OP_minus] [$rbp+0]
	#DEBUG_VALUE: spatial_cell <- [DW_OP_constu 144, DW_OP_minus] [$rbp+0]
	#DEBUG_VALUE: ....inline.__FILL_CHARARRAY <- [DW_OP_LLVM_convert 32 7, DW_OP_LLVM_convert 8 7, DW_OP_stack_value] 0
	#DEBUG_VALUE: cpu_accelerate_cell:map_order <- $r15d
	#DEBUG_VALUE: cpu_accelerate_cell:order_step <- [DW_OP_constu 252, DW_OP_minus] [$rbp+0]
	#DEBUG_VALUE: cpu_accelerate_cell:useAccelerator <- [DW_OP_constu 92, DW_OP_minus] [$rbp+0]
	cmpl	$1, %r15d
	je	.LBB2_29
.Ltmp140:
# %bb.12:                               # %L..inline.75296
	#DEBUG_VALUE: vmesh <- $r13
	#DEBUG_VALUE: refLevel <- 0
	#DEBUG_VALUE: useAccelerator <- [DW_OP_constu 92, DW_OP_minus] [$rbp+0]
	#DEBUG_VALUE: spatial_cell <- [DW_OP_constu 144, DW_OP_minus] [$rbp+0]
	#DEBUG_VALUE: ....inline.__FILL_CHARARRAY <- [DW_OP_LLVM_convert 32 7, DW_OP_LLVM_convert 8 7, DW_OP_stack_value] 0
	#DEBUG_VALUE: cpu_accelerate_cell:map_order <- $r15d
	#DEBUG_VALUE: cpu_accelerate_cell:order_step <- [DW_OP_constu 252, DW_OP_minus] [$rbp+0]
	#DEBUG_VALUE: cpu_accelerate_cell:useAccelerator <- [DW_OP_constu 92, DW_OP_minus] [$rbp+0]
	cmpl	$2, %r15d
	jne	.LBB2_106
.Ltmp141:
# %bb.13:                               # %L.B0015
	#DEBUG_VALUE: vmesh <- $r13
	#DEBUG_VALUE: refLevel <- 0
	#DEBUG_VALUE: useAccelerator <- [DW_OP_constu 92, DW_OP_minus] [$rbp+0]
	#DEBUG_VALUE: spatial_cell <- [DW_OP_constu 144, DW_OP_minus] [$rbp+0]
	#DEBUG_VALUE: ....inline.__FILL_CHARARRAY <- [DW_OP_LLVM_convert 32 7, DW_OP_LLVM_convert 8 7, DW_OP_stack_value] 0
	#DEBUG_VALUE: cpu_accelerate_cell:map_order <- $r15d
	#DEBUG_VALUE: cpu_accelerate_cell:order_step <- [DW_OP_constu 252, DW_OP_minus] [$rbp+0]
	#DEBUG_VALUE: cpu_accelerate_cell:useAccelerator <- [DW_OP_constu 92, DW_OP_minus] [$rbp+0]
	#DEBUG_VALUE: basic_string: <- [DW_OP_constu 88, DW_OP_minus, DW_OP_stack_value] $rbp
	#DEBUG_VALUE:  <- [DW_OP_constu 88, DW_OP_minus, DW_OP_stack_value] $rbp
	.file	8 "/usr/include/c++/9/bits/basic_string.h"
	.loc	8 527 1                 # /usr/include/c++/9/bits/basic_string.h:527:1
	leaq	-72(%rbp), %r15
.Ltmp142:
	movq	%r15, -88(%rbp)
.Ltmp143:
	#DEBUG_VALUE: __dnew <- 21
	#DEBUG_VALUE: _M_construct:_T47974328_38852 <- undef
	#DEBUG_VALUE:  <- [DW_OP_constu 88, DW_OP_minus, DW_OP_stack_value] $rbp
	#DEBUG_VALUE: _M_construct: <- [DW_OP_constu 88, DW_OP_minus, DW_OP_stack_value] $rbp
	#DEBUG_VALUE: ....inline.__FILL_CHARARRAY <- [DW_OP_LLVM_convert 32 7, DW_OP_LLVM_convert 8 7, DW_OP_stack_value] 0
	.loc	2 143 1                 # /usr/include/c++/9/bits/basic_string.tcc:143:1
	movq	$21, -56(%rbp)
.Ltmp144:
	#DEBUG_VALUE: __dnew <- [DW_OP_constu 56, DW_OP_minus, DW_OP_deref] $rbp
.Ltmp20:
	.cfi_escape 0x2e, 0x00
	.loc	2 0 1 is_stmt 0         # /usr/include/c++/9/bits/basic_string.tcc:0:1
	leaq	-88(%rbp), %rdi
	leaq	-56(%rbp), %rsi
	.loc	2 219 1 is_stmt 1       # /usr/include/c++/9/bits/basic_string.tcc:219:1
	xorl	%edx, %edx
	callq	_ZNSt7__cxx1112basic_stringIcSt11char_traitsIcESaIcEE9_M_createERmm
.Ltmp21:
.Ltmp145:
	#DEBUG_VALUE: __end <- undef
	#DEBUG_VALUE: _M_construct:__end <- undef
	#DEBUG_VALUE: __beg <- undef
	#DEBUG_VALUE: _M_construct:__beg <- undef
	#DEBUG_VALUE: __s <- undef
	#DEBUG_VALUE: basic_string:__s <- undef
# %bb.14:                               # %.noexc
	#DEBUG_VALUE: __dnew <- [DW_OP_constu 56, DW_OP_minus, DW_OP_deref] $rbp
	#DEBUG_VALUE: ....inline.__FILL_CHARARRAY <- [DW_OP_LLVM_convert 32 7, DW_OP_LLVM_convert 8 7, DW_OP_stack_value] 0
	#DEBUG_VALUE: _M_construct: <- [DW_OP_constu 88, DW_OP_minus, DW_OP_stack_value] $rbp
	#DEBUG_VALUE:  <- [DW_OP_constu 88, DW_OP_minus, DW_OP_stack_value] $rbp
	#DEBUG_VALUE:  <- [DW_OP_constu 88, DW_OP_minus, DW_OP_stack_value] $rbp
	#DEBUG_VALUE: basic_string: <- [DW_OP_constu 88, DW_OP_minus, DW_OP_stack_value] $rbp
	#DEBUG_VALUE: vmesh <- $r13
	#DEBUG_VALUE: refLevel <- 0
	#DEBUG_VALUE: useAccelerator <- [DW_OP_constu 92, DW_OP_minus] [$rbp+0]
	#DEBUG_VALUE: spatial_cell <- [DW_OP_constu 144, DW_OP_minus] [$rbp+0]
	#DEBUG_VALUE: ....inline.__FILL_CHARARRAY <- [DW_OP_LLVM_convert 32 7, DW_OP_LLVM_convert 8 7, DW_OP_stack_value] 0
	#DEBUG_VALUE: cpu_accelerate_cell:order_step <- [DW_OP_constu 252, DW_OP_minus] [$rbp+0]
	#DEBUG_VALUE: cpu_accelerate_cell:useAccelerator <- [DW_OP_constu 92, DW_OP_minus] [$rbp+0]
	movq	%rax, -88(%rbp)
	.loc	2 220 1                 # /usr/include/c++/9/bits/basic_string.tcc:220:1
	movq	-56(%rbp), %rcx
.Ltmp146:
	#DEBUG_VALUE: __dnew <- $rcx
	movq	%rcx, -72(%rbp)
	.loc	2 398 1                 # /usr/include/c++/9/bits/basic_string.tcc:398:1
	vmovupd	.S40801(%rip), %xmm0
	vmovupd	%xmm0, (%rax)
	movabsq	$8317708060514805107, %rdx # imm = 0x736E6F6974636573
	movq	%rdx, 13(%rax)
	.loc	2 216 1                 # /usr/include/c++/9/bits/basic_string.tcc:216:1
	movq	%rcx, -80(%rbp)
	.loc	2 217 1                 # /usr/include/c++/9/bits/basic_string.tcc:217:1
	movq	-88(%rbp), %rax
	movb	$0, (%rax,%rcx)
.Ltmp23:
	.cfi_escape 0x2e, 0x00
	leaq	-88(%rbp), %rdi
.Ltmp147:
	.loc	1 144 1                 # vlasovsolver/cpu_acc_semilag.cpp:144:1
	callq	_ZN7phiprof5startERKNSt7__cxx1112basic_stringIcSt11char_traitsIcESaIcEEE
.Ltmp148:
.Ltmp24:
# %bb.15:                               # %L.B2356
	#DEBUG_VALUE: vmesh <- $r13
	#DEBUG_VALUE: refLevel <- 0
	#DEBUG_VALUE: useAccelerator <- [DW_OP_constu 92, DW_OP_minus] [$rbp+0]
	#DEBUG_VALUE: spatial_cell <- [DW_OP_constu 144, DW_OP_minus] [$rbp+0]
	#DEBUG_VALUE: ....inline.__FILL_CHARARRAY <- [DW_OP_LLVM_convert 32 7, DW_OP_LLVM_convert 8 7, DW_OP_stack_value] 0
	#DEBUG_VALUE: cpu_accelerate_cell:order_step <- [DW_OP_constu 252, DW_OP_minus] [$rbp+0]
	#DEBUG_VALUE: cpu_accelerate_cell:useAccelerator <- [DW_OP_constu 92, DW_OP_minus] [$rbp+0]
	#DEBUG_VALUE: ~basic_string: <- [DW_OP_constu 88, DW_OP_minus, DW_OP_stack_value] $rbp
	#DEBUG_VALUE:  <- [DW_OP_constu 88, DW_OP_minus, DW_OP_stack_value] $rbp
	.loc	8 231 1                 # /usr/include/c++/9/bits/basic_string.h:231:1
	movq	-88(%rbp), %rdi
	cmpq	%r15, %rdi
	je	.LBB2_17
.Ltmp149:
# %bb.16:                               # %L.B2639.i99
	#DEBUG_VALUE:  <- [DW_OP_constu 88, DW_OP_minus, DW_OP_stack_value] $rbp
	#DEBUG_VALUE: ~basic_string: <- [DW_OP_constu 88, DW_OP_minus, DW_OP_stack_value] $rbp
	#DEBUG_VALUE: vmesh <- $r13
	#DEBUG_VALUE: refLevel <- 0
	#DEBUG_VALUE: useAccelerator <- [DW_OP_constu 92, DW_OP_minus] [$rbp+0]
	#DEBUG_VALUE: spatial_cell <- [DW_OP_constu 144, DW_OP_minus] [$rbp+0]
	#DEBUG_VALUE: ....inline.__FILL_CHARARRAY <- [DW_OP_LLVM_convert 32 7, DW_OP_LLVM_convert 8 7, DW_OP_stack_value] 0
	#DEBUG_VALUE: cpu_accelerate_cell:order_step <- [DW_OP_constu 252, DW_OP_minus] [$rbp+0]
	#DEBUG_VALUE: cpu_accelerate_cell:useAccelerator <- [DW_OP_constu 92, DW_OP_minus] [$rbp+0]
	.cfi_escape 0x2e, 0x00
	.loc	8 232 1                 # /usr/include/c++/9/bits/basic_string.h:232:1
	callq	_ZdlPv
.Ltmp150:
.LBB2_17:                               # %_ZNSt7__cxx1112basic_stringIcSt11char_traitsIcESaIcEED1Ev.exit100
	#DEBUG_VALUE: vmesh <- $r13
	#DEBUG_VALUE: refLevel <- 0
	#DEBUG_VALUE: useAccelerator <- [DW_OP_constu 92, DW_OP_minus] [$rbp+0]
	#DEBUG_VALUE: spatial_cell <- [DW_OP_constu 144, DW_OP_minus] [$rbp+0]
	#DEBUG_VALUE: ....inline.__FILL_CHARARRAY <- [DW_OP_LLVM_convert 32 7, DW_OP_LLVM_convert 8 7, DW_OP_stack_value] 0
	#DEBUG_VALUE: cpu_accelerate_cell:order_step <- [DW_OP_constu 252, DW_OP_minus] [$rbp+0]
	#DEBUG_VALUE: cpu_accelerate_cell:useAccelerator <- [DW_OP_constu 92, DW_OP_minus] [$rbp+0]
	.loc	1 146 1                 # vlasovsolver/cpu_acc_semilag.cpp:146:1
	testl	%ebx, %ebx
	je	.LBB2_37
.Ltmp151:
# %bb.18:                               # %L.B0016
	#DEBUG_VALUE: vmesh <- $r13
	#DEBUG_VALUE: refLevel <- 0
	#DEBUG_VALUE: useAccelerator <- [DW_OP_constu 92, DW_OP_minus] [$rbp+0]
	#DEBUG_VALUE: spatial_cell <- [DW_OP_constu 144, DW_OP_minus] [$rbp+0]
	#DEBUG_VALUE: ....inline.__FILL_CHARARRAY <- [DW_OP_LLVM_convert 32 7, DW_OP_LLVM_convert 8 7, DW_OP_stack_value] 0
	#DEBUG_VALUE: cpu_accelerate_cell:order_step <- [DW_OP_constu 252, DW_OP_minus] [$rbp+0]
	#DEBUG_VALUE: cpu_accelerate_cell:useAccelerator <- [DW_OP_constu 92, DW_OP_minus] [$rbp+0]
	.loc	1 0 1 is_stmt 0         # vlasovsolver/cpu_acc_semilag.cpp:0:1
	movb	$1, %r14b
	.loc	1 148 1 is_stmt 1       # vlasovsolver/cpu_acc_semilag.cpp:148:1
	cmpl	$2, %ebx
	je	.LBB2_40
.Ltmp152:
# %bb.19:                               # %L.B0016
	#DEBUG_VALUE: vmesh <- $r13
	#DEBUG_VALUE: refLevel <- 0
	#DEBUG_VALUE: useAccelerator <- [DW_OP_constu 92, DW_OP_minus] [$rbp+0]
	#DEBUG_VALUE: spatial_cell <- [DW_OP_constu 144, DW_OP_minus] [$rbp+0]
	#DEBUG_VALUE: ....inline.__FILL_CHARARRAY <- [DW_OP_LLVM_convert 32 7, DW_OP_LLVM_convert 8 7, DW_OP_stack_value] 0
	#DEBUG_VALUE: cpu_accelerate_cell:order_step <- [DW_OP_constu 252, DW_OP_minus] [$rbp+0]
	#DEBUG_VALUE: cpu_accelerate_cell:useAccelerator <- [DW_OP_constu 92, DW_OP_minus] [$rbp+0]
	cmpl	$1, %ebx
	jne	.LBB2_41
.Ltmp153:
# %bb.20:                               # %L.B2358
	#DEBUG_VALUE: vmesh <- $r13
	#DEBUG_VALUE: refLevel <- 0
	#DEBUG_VALUE: useAccelerator <- [DW_OP_constu 92, DW_OP_minus] [$rbp+0]
	#DEBUG_VALUE: spatial_cell <- [DW_OP_constu 144, DW_OP_minus] [$rbp+0]
	#DEBUG_VALUE: ....inline.__FILL_CHARARRAY <- [DW_OP_LLVM_convert 32 7, DW_OP_LLVM_convert 8 7, DW_OP_stack_value] 0
	#DEBUG_VALUE: cpu_accelerate_cell:order_step <- [DW_OP_constu 252, DW_OP_minus] [$rbp+0]
	#DEBUG_VALUE: cpu_accelerate_cell:useAccelerator <- [DW_OP_constu 92, DW_OP_minus] [$rbp+0]
	#DEBUG_VALUE: refLevel <- [DW_OP_constu 41, DW_OP_minus, DW_OP_deref] $rbp
	#DEBUG_VALUE: intersection_x <- [DW_OP_constu 216, DW_OP_minus, DW_OP_deref] $rbp
	#DEBUG_VALUE: intersection_x_di <- [DW_OP_constu 208, DW_OP_minus, DW_OP_deref] $rbp
	#DEBUG_VALUE: intersection_x_dj <- [DW_OP_constu 200, DW_OP_minus, DW_OP_deref] $rbp
	#DEBUG_VALUE: intersection_x_dk <- [DW_OP_constu 192, DW_OP_minus, DW_OP_deref] $rbp
	.cfi_escape 0x2e, 0x20
	subq	$8, %rsp
	leaq	-192(%rbp), %rax
	leaq	-200(%rbp), %r10
	leaq	-208(%rbp), %r11
	leaq	-416(%rbp), %rsi
	leaq	-576(%rbp), %rdx
	xorl	%r14d, %r14d
	leaq	-41(%rbp), %r8
	leaq	-216(%rbp), %r9
	movq	%r13, %rdi
	movl	$0, %ecx
	pushq	%rax
	pushq	%r10
	pushq	%r11
	callq	_Z25compute_intersections_2ndRKN5vmesh12VelocityMeshIjjEERKN5Eigen9TransformIdLi3ELi2ELi0EEES8_jRKhRdSB_SB_SB_
	addq	$32, %rsp
.Ltmp154:
.LBB2_41:
	#DEBUG_VALUE: vmesh <- $r13
	#DEBUG_VALUE: useAccelerator <- [DW_OP_constu 92, DW_OP_minus] [$rbp+0]
	#DEBUG_VALUE: spatial_cell <- [DW_OP_constu 144, DW_OP_minus] [$rbp+0]
	#DEBUG_VALUE: ....inline.__FILL_CHARARRAY <- [DW_OP_LLVM_convert 32 7, DW_OP_LLVM_convert 8 7, DW_OP_stack_value] 0
	#DEBUG_VALUE: cpu_accelerate_cell:order_step <- [DW_OP_constu 252, DW_OP_minus] [$rbp+0]
	#DEBUG_VALUE: cpu_accelerate_cell:useAccelerator <- [DW_OP_constu 92, DW_OP_minus] [$rbp+0]
	.loc	1 0 1 is_stmt 0         # vlasovsolver/cpu_acc_semilag.cpp:0:1
	movb	$1, %r12b
	jmp	.LBB2_42
.Ltmp155:
.LBB2_21:                               # %L.B0001
	#DEBUG_VALUE: vmesh <- $r13
	#DEBUG_VALUE: refLevel <- 0
	#DEBUG_VALUE: useAccelerator <- [DW_OP_constu 92, DW_OP_minus] [$rbp+0]
	#DEBUG_VALUE: spatial_cell <- [DW_OP_constu 144, DW_OP_minus] [$rbp+0]
	#DEBUG_VALUE: ....inline.__FILL_CHARARRAY <- [DW_OP_LLVM_convert 32 7, DW_OP_LLVM_convert 8 7, DW_OP_stack_value] 0
	#DEBUG_VALUE: cpu_accelerate_cell:map_order <- $r15d
	#DEBUG_VALUE: cpu_accelerate_cell:order_step <- [DW_OP_constu 252, DW_OP_minus] [$rbp+0]
	#DEBUG_VALUE: cpu_accelerate_cell:useAccelerator <- [DW_OP_constu 92, DW_OP_minus] [$rbp+0]
	.loc	1 527 1 is_stmt 1       # vlasovsolver/cpu_acc_semilag.cpp:527:1
	leaq	-112(%rbp), %r15
.Ltmp156:
	movq	%r15, -128(%rbp)
.Ltmp157:
	#DEBUG_VALUE: __dnew <- 21
	#DEBUG_VALUE: _M_construct:_T47974328_38852 <- undef
	#DEBUG_VALUE:  <- [DW_OP_constu 128, DW_OP_minus, DW_OP_stack_value] $rbp
	#DEBUG_VALUE: _M_construct: <- [DW_OP_constu 128, DW_OP_minus, DW_OP_stack_value] $rbp
	#DEBUG_VALUE: ....inline.__FILL_CHARARRAY <- [DW_OP_LLVM_convert 32 7, DW_OP_LLVM_convert 8 7, DW_OP_stack_value] 0
	.loc	2 143 1                 # /usr/include/c++/9/bits/basic_string.tcc:143:1
	movq	$21, -56(%rbp)
.Ltmp158:
	#DEBUG_VALUE: __dnew <- [DW_OP_constu 56, DW_OP_minus, DW_OP_deref] $rbp
.Ltmp56:
	.cfi_escape 0x2e, 0x00
	.loc	2 0 1 is_stmt 0         # /usr/include/c++/9/bits/basic_string.tcc:0:1
	leaq	-128(%rbp), %rdi
	leaq	-56(%rbp), %rsi
	.loc	2 219 1 is_stmt 1       # /usr/include/c++/9/bits/basic_string.tcc:219:1
	xorl	%edx, %edx
	callq	_ZNSt7__cxx1112basic_stringIcSt11char_traitsIcESaIcEE9_M_createERmm
.Ltmp57:
.Ltmp159:
	#DEBUG_VALUE: __beg <- undef
	#DEBUG_VALUE: _M_construct:__beg <- undef
# %bb.22:                               # %L.B2372
	#DEBUG_VALUE: __dnew <- [DW_OP_constu 56, DW_OP_minus, DW_OP_deref] $rbp
	#DEBUG_VALUE: _M_construct: <- [DW_OP_constu 128, DW_OP_minus, DW_OP_stack_value] $rbp
	#DEBUG_VALUE:  <- [DW_OP_constu 128, DW_OP_minus, DW_OP_stack_value] $rbp
	#DEBUG_VALUE: vmesh <- $r13
	#DEBUG_VALUE: refLevel <- 0
	#DEBUG_VALUE: useAccelerator <- [DW_OP_constu 92, DW_OP_minus] [$rbp+0]
	#DEBUG_VALUE: spatial_cell <- [DW_OP_constu 144, DW_OP_minus] [$rbp+0]
	#DEBUG_VALUE: ....inline.__FILL_CHARARRAY <- [DW_OP_LLVM_convert 32 7, DW_OP_LLVM_convert 8 7, DW_OP_stack_value] 0
	#DEBUG_VALUE: cpu_accelerate_cell:order_step <- [DW_OP_constu 252, DW_OP_minus] [$rbp+0]
	#DEBUG_VALUE: cpu_accelerate_cell:useAccelerator <- [DW_OP_constu 92, DW_OP_minus] [$rbp+0]
	movq	%rax, -128(%rbp)
	.loc	2 220 1                 # /usr/include/c++/9/bits/basic_string.tcc:220:1
	movq	-56(%rbp), %rcx
.Ltmp160:
	#DEBUG_VALUE: __dnew <- $rcx
	movq	%rcx, -112(%rbp)
	.loc	2 398 1                 # /usr/include/c++/9/bits/basic_string.tcc:398:1
	vmovupd	.S40801(%rip), %xmm0
	vmovupd	%xmm0, (%rax)
	movabsq	$8317708060514805107, %r12 # imm = 0x736E6F6974636573
	movq	%r12, 13(%rax)
	.loc	2 216 1                 # /usr/include/c++/9/bits/basic_string.tcc:216:1
	movq	%rcx, -120(%rbp)
	.loc	2 217 1                 # /usr/include/c++/9/bits/basic_string.tcc:217:1
	movq	-128(%rbp), %rax
	movb	$0, (%rax,%rcx)
.Ltmp59:
	.cfi_escape 0x2e, 0x00
	leaq	-128(%rbp), %rdi
.Ltmp161:
	.loc	1 110 1                 # vlasovsolver/cpu_acc_semilag.cpp:110:1
	callq	_ZN7phiprof5startERKNSt7__cxx1112basic_stringIcSt11char_traitsIcESaIcEEE
.Ltmp162:
.Ltmp60:
# %bb.23:                               # %L.B2373
	#DEBUG_VALUE: vmesh <- $r13
	#DEBUG_VALUE: refLevel <- 0
	#DEBUG_VALUE: useAccelerator <- [DW_OP_constu 92, DW_OP_minus] [$rbp+0]
	#DEBUG_VALUE: spatial_cell <- [DW_OP_constu 144, DW_OP_minus] [$rbp+0]
	#DEBUG_VALUE: ....inline.__FILL_CHARARRAY <- [DW_OP_LLVM_convert 32 7, DW_OP_LLVM_convert 8 7, DW_OP_stack_value] 0
	#DEBUG_VALUE: cpu_accelerate_cell:order_step <- [DW_OP_constu 252, DW_OP_minus] [$rbp+0]
	#DEBUG_VALUE: cpu_accelerate_cell:useAccelerator <- [DW_OP_constu 92, DW_OP_minus] [$rbp+0]
	.loc	1 658 1                 # vlasovsolver/cpu_acc_semilag.cpp:658:1
	movq	-128(%rbp), %rdi
	cmpq	%r15, %rdi
	je	.LBB2_25
.Ltmp163:
# %bb.24:                               # %L.B2374
	#DEBUG_VALUE: vmesh <- $r13
	#DEBUG_VALUE: refLevel <- 0
	#DEBUG_VALUE: useAccelerator <- [DW_OP_constu 92, DW_OP_minus] [$rbp+0]
	#DEBUG_VALUE: spatial_cell <- [DW_OP_constu 144, DW_OP_minus] [$rbp+0]
	#DEBUG_VALUE: ....inline.__FILL_CHARARRAY <- [DW_OP_LLVM_convert 32 7, DW_OP_LLVM_convert 8 7, DW_OP_stack_value] 0
	#DEBUG_VALUE: cpu_accelerate_cell:order_step <- [DW_OP_constu 252, DW_OP_minus] [$rbp+0]
	#DEBUG_VALUE: cpu_accelerate_cell:useAccelerator <- [DW_OP_constu 92, DW_OP_minus] [$rbp+0]
	.cfi_escape 0x2e, 0x00
	callq	_ZdlPv
.Ltmp164:
.LBB2_25:                               # %L..inline.75456
	#DEBUG_VALUE: vmesh <- $r13
	#DEBUG_VALUE: refLevel <- 0
	#DEBUG_VALUE: useAccelerator <- [DW_OP_constu 92, DW_OP_minus] [$rbp+0]
	#DEBUG_VALUE: spatial_cell <- [DW_OP_constu 144, DW_OP_minus] [$rbp+0]
	#DEBUG_VALUE: ....inline.__FILL_CHARARRAY <- [DW_OP_LLVM_convert 32 7, DW_OP_LLVM_convert 8 7, DW_OP_stack_value] 0
	#DEBUG_VALUE: cpu_accelerate_cell:order_step <- [DW_OP_constu 252, DW_OP_minus] [$rbp+0]
	#DEBUG_VALUE: cpu_accelerate_cell:useAccelerator <- [DW_OP_constu 92, DW_OP_minus] [$rbp+0]
	.loc	1 112 1                 # vlasovsolver/cpu_acc_semilag.cpp:112:1
	testl	%ebx, %ebx
	je	.LBB2_38
.Ltmp165:
# %bb.26:                               # %L.B0002
	#DEBUG_VALUE: vmesh <- $r13
	#DEBUG_VALUE: refLevel <- 0
	#DEBUG_VALUE: useAccelerator <- [DW_OP_constu 92, DW_OP_minus] [$rbp+0]
	#DEBUG_VALUE: spatial_cell <- [DW_OP_constu 144, DW_OP_minus] [$rbp+0]
	#DEBUG_VALUE: ....inline.__FILL_CHARARRAY <- [DW_OP_LLVM_convert 32 7, DW_OP_LLVM_convert 8 7, DW_OP_stack_value] 0
	#DEBUG_VALUE: cpu_accelerate_cell:order_step <- [DW_OP_constu 252, DW_OP_minus] [$rbp+0]
	#DEBUG_VALUE: cpu_accelerate_cell:useAccelerator <- [DW_OP_constu 92, DW_OP_minus] [$rbp+0]
	.loc	1 0 1 is_stmt 0         # vlasovsolver/cpu_acc_semilag.cpp:0:1
	movb	$1, %r14b
	.loc	1 114 1 is_stmt 1       # vlasovsolver/cpu_acc_semilag.cpp:114:1
	cmpl	$2, %ebx
	je	.LBB2_62
.Ltmp166:
# %bb.27:                               # %L.B0002
	#DEBUG_VALUE: vmesh <- $r13
	#DEBUG_VALUE: refLevel <- 0
	#DEBUG_VALUE: useAccelerator <- [DW_OP_constu 92, DW_OP_minus] [$rbp+0]
	#DEBUG_VALUE: spatial_cell <- [DW_OP_constu 144, DW_OP_minus] [$rbp+0]
	#DEBUG_VALUE: ....inline.__FILL_CHARARRAY <- [DW_OP_LLVM_convert 32 7, DW_OP_LLVM_convert 8 7, DW_OP_stack_value] 0
	#DEBUG_VALUE: cpu_accelerate_cell:order_step <- [DW_OP_constu 252, DW_OP_minus] [$rbp+0]
	#DEBUG_VALUE: cpu_accelerate_cell:useAccelerator <- [DW_OP_constu 92, DW_OP_minus] [$rbp+0]
	cmpl	$1, %ebx
	jne	.LBB2_63
.Ltmp167:
# %bb.28:                               # %L.B2376
	#DEBUG_VALUE: vmesh <- $r13
	#DEBUG_VALUE: refLevel <- 0
	#DEBUG_VALUE: useAccelerator <- [DW_OP_constu 92, DW_OP_minus] [$rbp+0]
	#DEBUG_VALUE: spatial_cell <- [DW_OP_constu 144, DW_OP_minus] [$rbp+0]
	#DEBUG_VALUE: ....inline.__FILL_CHARARRAY <- [DW_OP_LLVM_convert 32 7, DW_OP_LLVM_convert 8 7, DW_OP_stack_value] 0
	#DEBUG_VALUE: cpu_accelerate_cell:order_step <- [DW_OP_constu 252, DW_OP_minus] [$rbp+0]
	#DEBUG_VALUE: cpu_accelerate_cell:useAccelerator <- [DW_OP_constu 92, DW_OP_minus] [$rbp+0]
	#DEBUG_VALUE: refLevel <- [DW_OP_constu 41, DW_OP_minus, DW_OP_deref] $rbp
	#DEBUG_VALUE: intersection_y <- [DW_OP_constu 184, DW_OP_minus, DW_OP_deref] $rbp
	#DEBUG_VALUE: intersection_y_di <- [DW_OP_constu 176, DW_OP_minus, DW_OP_deref] $rbp
	#DEBUG_VALUE: intersection_y_dj <- [DW_OP_constu 168, DW_OP_minus, DW_OP_deref] $rbp
	#DEBUG_VALUE: intersection_y_dk <- [DW_OP_constu 160, DW_OP_minus, DW_OP_deref] $rbp
	.cfi_escape 0x2e, 0x20
	subq	$8, %rsp
	leaq	-160(%rbp), %rax
	leaq	-168(%rbp), %r10
	leaq	-176(%rbp), %r11
	leaq	-416(%rbp), %rsi
	leaq	-576(%rbp), %rdx
	leaq	-41(%rbp), %r8
	leaq	-184(%rbp), %r9
	movq	%r13, %rdi
	movl	$1, %ecx
	pushq	%rax
	pushq	%r10
	pushq	%r11
	callq	_Z25compute_intersections_2ndRKN5vmesh12VelocityMeshIjjEERKN5Eigen9TransformIdLi3ELi2ELi0EEES8_jRKhRdSB_SB_SB_
	addq	$32, %rsp
	xorl	%r14d, %r14d
.Ltmp168:
.LBB2_63:
	#DEBUG_VALUE: vmesh <- $r13
	#DEBUG_VALUE: useAccelerator <- [DW_OP_constu 92, DW_OP_minus] [$rbp+0]
	#DEBUG_VALUE: spatial_cell <- [DW_OP_constu 144, DW_OP_minus] [$rbp+0]
	#DEBUG_VALUE: ....inline.__FILL_CHARARRAY <- [DW_OP_LLVM_convert 32 7, DW_OP_LLVM_convert 8 7, DW_OP_stack_value] 0
	#DEBUG_VALUE: cpu_accelerate_cell:order_step <- [DW_OP_constu 252, DW_OP_minus] [$rbp+0]
	#DEBUG_VALUE: cpu_accelerate_cell:useAccelerator <- [DW_OP_constu 92, DW_OP_minus] [$rbp+0]
	.loc	1 0 1 is_stmt 0         # vlasovsolver/cpu_acc_semilag.cpp:0:1
	movb	$1, %bl
	jmp	.LBB2_64
.Ltmp169:
.LBB2_29:                               # %L.B0008
	#DEBUG_VALUE: vmesh <- $r13
	#DEBUG_VALUE: refLevel <- 0
	#DEBUG_VALUE: useAccelerator <- [DW_OP_constu 92, DW_OP_minus] [$rbp+0]
	#DEBUG_VALUE: spatial_cell <- [DW_OP_constu 144, DW_OP_minus] [$rbp+0]
	#DEBUG_VALUE: ....inline.__FILL_CHARARRAY <- [DW_OP_LLVM_convert 32 7, DW_OP_LLVM_convert 8 7, DW_OP_stack_value] 0
	#DEBUG_VALUE: cpu_accelerate_cell:map_order <- $r15d
	#DEBUG_VALUE: cpu_accelerate_cell:order_step <- [DW_OP_constu 252, DW_OP_minus] [$rbp+0]
	#DEBUG_VALUE: cpu_accelerate_cell:useAccelerator <- [DW_OP_constu 92, DW_OP_minus] [$rbp+0]
	.loc	1 527 1 is_stmt 1       # vlasovsolver/cpu_acc_semilag.cpp:527:1
	leaq	-72(%rbp), %r15
.Ltmp170:
	movq	%r15, -88(%rbp)
.Ltmp171:
	#DEBUG_VALUE: __dnew <- 21
	#DEBUG_VALUE: _M_construct:_T47974328_38852 <- undef
	#DEBUG_VALUE:  <- [DW_OP_constu 88, DW_OP_minus, DW_OP_stack_value] $rbp
	#DEBUG_VALUE: _M_construct: <- [DW_OP_constu 88, DW_OP_minus, DW_OP_stack_value] $rbp
	#DEBUG_VALUE: ....inline.__FILL_CHARARRAY <- [DW_OP_LLVM_convert 32 7, DW_OP_LLVM_convert 8 7, DW_OP_stack_value] 0
	.loc	2 143 1                 # /usr/include/c++/9/bits/basic_string.tcc:143:1
	movq	$21, -56(%rbp)
.Ltmp172:
	#DEBUG_VALUE: __dnew <- [DW_OP_constu 56, DW_OP_minus, DW_OP_deref] $rbp
.Ltmp38:
	.cfi_escape 0x2e, 0x00
	.loc	2 0 1 is_stmt 0         # /usr/include/c++/9/bits/basic_string.tcc:0:1
	leaq	-88(%rbp), %rdi
	leaq	-56(%rbp), %rsi
	.loc	2 219 1 is_stmt 1       # /usr/include/c++/9/bits/basic_string.tcc:219:1
	xorl	%edx, %edx
	callq	_ZNSt7__cxx1112basic_stringIcSt11char_traitsIcESaIcEE9_M_createERmm
.Ltmp39:
.Ltmp173:
	#DEBUG_VALUE: __beg <- undef
	#DEBUG_VALUE: _M_construct:__beg <- undef
# %bb.30:                               # %L.B2400
	#DEBUG_VALUE: __dnew <- [DW_OP_constu 56, DW_OP_minus, DW_OP_deref] $rbp
	#DEBUG_VALUE: _M_construct: <- [DW_OP_constu 88, DW_OP_minus, DW_OP_stack_value] $rbp
	#DEBUG_VALUE:  <- [DW_OP_constu 88, DW_OP_minus, DW_OP_stack_value] $rbp
	#DEBUG_VALUE: vmesh <- $r13
	#DEBUG_VALUE: refLevel <- 0
	#DEBUG_VALUE: useAccelerator <- [DW_OP_constu 92, DW_OP_minus] [$rbp+0]
	#DEBUG_VALUE: spatial_cell <- [DW_OP_constu 144, DW_OP_minus] [$rbp+0]
	#DEBUG_VALUE: ....inline.__FILL_CHARARRAY <- [DW_OP_LLVM_convert 32 7, DW_OP_LLVM_convert 8 7, DW_OP_stack_value] 0
	#DEBUG_VALUE: cpu_accelerate_cell:order_step <- [DW_OP_constu 252, DW_OP_minus] [$rbp+0]
	#DEBUG_VALUE: cpu_accelerate_cell:useAccelerator <- [DW_OP_constu 92, DW_OP_minus] [$rbp+0]
	movq	%rax, -88(%rbp)
	.loc	2 220 1                 # /usr/include/c++/9/bits/basic_string.tcc:220:1
	movq	-56(%rbp), %rcx
.Ltmp174:
	#DEBUG_VALUE: __dnew <- $rcx
	movq	%rcx, -72(%rbp)
	.loc	2 398 1                 # /usr/include/c++/9/bits/basic_string.tcc:398:1
	vmovupd	.S40801(%rip), %xmm0
	vmovupd	%xmm0, (%rax)
	movabsq	$8317708060514805107, %r12 # imm = 0x736E6F6974636573
	movq	%r12, 13(%rax)
	.loc	2 216 1                 # /usr/include/c++/9/bits/basic_string.tcc:216:1
	movq	%rcx, -80(%rbp)
	.loc	2 217 1                 # /usr/include/c++/9/bits/basic_string.tcc:217:1
	movq	-88(%rbp), %rax
	movb	$0, (%rax,%rcx)
.Ltmp41:
	.cfi_escape 0x2e, 0x00
	leaq	-88(%rbp), %rdi
.Ltmp175:
	.loc	1 127 1                 # vlasovsolver/cpu_acc_semilag.cpp:127:1
	callq	_ZN7phiprof5startERKNSt7__cxx1112basic_stringIcSt11char_traitsIcESaIcEEE
.Ltmp176:
.Ltmp42:
# %bb.31:                               # %L.B2401
	#DEBUG_VALUE: vmesh <- $r13
	#DEBUG_VALUE: refLevel <- 0
	#DEBUG_VALUE: useAccelerator <- [DW_OP_constu 92, DW_OP_minus] [$rbp+0]
	#DEBUG_VALUE: spatial_cell <- [DW_OP_constu 144, DW_OP_minus] [$rbp+0]
	#DEBUG_VALUE: ....inline.__FILL_CHARARRAY <- [DW_OP_LLVM_convert 32 7, DW_OP_LLVM_convert 8 7, DW_OP_stack_value] 0
	#DEBUG_VALUE: cpu_accelerate_cell:order_step <- [DW_OP_constu 252, DW_OP_minus] [$rbp+0]
	#DEBUG_VALUE: cpu_accelerate_cell:useAccelerator <- [DW_OP_constu 92, DW_OP_minus] [$rbp+0]
	.loc	1 658 1                 # vlasovsolver/cpu_acc_semilag.cpp:658:1
	movq	-88(%rbp), %rdi
	cmpq	%r15, %rdi
	je	.LBB2_33
.Ltmp177:
# %bb.32:                               # %L.B2402
	#DEBUG_VALUE: vmesh <- $r13
	#DEBUG_VALUE: refLevel <- 0
	#DEBUG_VALUE: useAccelerator <- [DW_OP_constu 92, DW_OP_minus] [$rbp+0]
	#DEBUG_VALUE: spatial_cell <- [DW_OP_constu 144, DW_OP_minus] [$rbp+0]
	#DEBUG_VALUE: ....inline.__FILL_CHARARRAY <- [DW_OP_LLVM_convert 32 7, DW_OP_LLVM_convert 8 7, DW_OP_stack_value] 0
	#DEBUG_VALUE: cpu_accelerate_cell:order_step <- [DW_OP_constu 252, DW_OP_minus] [$rbp+0]
	#DEBUG_VALUE: cpu_accelerate_cell:useAccelerator <- [DW_OP_constu 92, DW_OP_minus] [$rbp+0]
	.cfi_escape 0x2e, 0x00
	callq	_ZdlPv
.Ltmp178:
.LBB2_33:                               # %L..inline.76416
	#DEBUG_VALUE: vmesh <- $r13
	#DEBUG_VALUE: refLevel <- 0
	#DEBUG_VALUE: useAccelerator <- [DW_OP_constu 92, DW_OP_minus] [$rbp+0]
	#DEBUG_VALUE: spatial_cell <- [DW_OP_constu 144, DW_OP_minus] [$rbp+0]
	#DEBUG_VALUE: ....inline.__FILL_CHARARRAY <- [DW_OP_LLVM_convert 32 7, DW_OP_LLVM_convert 8 7, DW_OP_stack_value] 0
	#DEBUG_VALUE: cpu_accelerate_cell:order_step <- [DW_OP_constu 252, DW_OP_minus] [$rbp+0]
	#DEBUG_VALUE: cpu_accelerate_cell:useAccelerator <- [DW_OP_constu 92, DW_OP_minus] [$rbp+0]
	.loc	1 129 1                 # vlasovsolver/cpu_acc_semilag.cpp:129:1
	testl	%ebx, %ebx
	je	.LBB2_39
.Ltmp179:
# %bb.34:                               # %L.B0009
	#DEBUG_VALUE: vmesh <- $r13
	#DEBUG_VALUE: refLevel <- 0
	#DEBUG_VALUE: useAccelerator <- [DW_OP_constu 92, DW_OP_minus] [$rbp+0]
	#DEBUG_VALUE: spatial_cell <- [DW_OP_constu 144, DW_OP_minus] [$rbp+0]
	#DEBUG_VALUE: ....inline.__FILL_CHARARRAY <- [DW_OP_LLVM_convert 32 7, DW_OP_LLVM_convert 8 7, DW_OP_stack_value] 0
	#DEBUG_VALUE: cpu_accelerate_cell:order_step <- [DW_OP_constu 252, DW_OP_minus] [$rbp+0]
	#DEBUG_VALUE: cpu_accelerate_cell:useAccelerator <- [DW_OP_constu 92, DW_OP_minus] [$rbp+0]
	.loc	1 131 1                 # vlasovsolver/cpu_acc_semilag.cpp:131:1
	cmpl	$2, %ebx
	je	.LBB2_84
.Ltmp180:
# %bb.35:                               # %L.B0009
	#DEBUG_VALUE: vmesh <- $r13
	#DEBUG_VALUE: refLevel <- 0
	#DEBUG_VALUE: useAccelerator <- [DW_OP_constu 92, DW_OP_minus] [$rbp+0]
	#DEBUG_VALUE: spatial_cell <- [DW_OP_constu 144, DW_OP_minus] [$rbp+0]
	#DEBUG_VALUE: ....inline.__FILL_CHARARRAY <- [DW_OP_LLVM_convert 32 7, DW_OP_LLVM_convert 8 7, DW_OP_stack_value] 0
	#DEBUG_VALUE: cpu_accelerate_cell:order_step <- [DW_OP_constu 252, DW_OP_minus] [$rbp+0]
	#DEBUG_VALUE: cpu_accelerate_cell:useAccelerator <- [DW_OP_constu 92, DW_OP_minus] [$rbp+0]
	cmpl	$1, %ebx
	jne	.LBB2_85
.Ltmp181:
# %bb.36:                               # %L.B2404
	#DEBUG_VALUE: vmesh <- $r13
	#DEBUG_VALUE: refLevel <- 0
	#DEBUG_VALUE: useAccelerator <- [DW_OP_constu 92, DW_OP_minus] [$rbp+0]
	#DEBUG_VALUE: spatial_cell <- [DW_OP_constu 144, DW_OP_minus] [$rbp+0]
	#DEBUG_VALUE: ....inline.__FILL_CHARARRAY <- [DW_OP_LLVM_convert 32 7, DW_OP_LLVM_convert 8 7, DW_OP_stack_value] 0
	#DEBUG_VALUE: cpu_accelerate_cell:order_step <- [DW_OP_constu 252, DW_OP_minus] [$rbp+0]
	#DEBUG_VALUE: cpu_accelerate_cell:useAccelerator <- [DW_OP_constu 92, DW_OP_minus] [$rbp+0]
	#DEBUG_VALUE: refLevel <- [DW_OP_constu 41, DW_OP_minus, DW_OP_deref] $rbp
	#DEBUG_VALUE: intersection_z <- [DW_OP_constu 248, DW_OP_minus, DW_OP_deref] $rbp
	#DEBUG_VALUE: intersection_z_di <- [DW_OP_constu 240, DW_OP_minus, DW_OP_deref] $rbp
	#DEBUG_VALUE: intersection_z_dj <- [DW_OP_constu 232, DW_OP_minus, DW_OP_deref] $rbp
	#DEBUG_VALUE: intersection_z_dk <- [DW_OP_constu 224, DW_OP_minus, DW_OP_deref] $rbp
	.cfi_escape 0x2e, 0x20
	subq	$8, %rsp
	leaq	-224(%rbp), %rax
	leaq	-232(%rbp), %r10
	leaq	-240(%rbp), %r11
	leaq	-416(%rbp), %rsi
	leaq	-576(%rbp), %rdx
	leaq	-41(%rbp), %r8
	leaq	-248(%rbp), %r9
	movq	%r13, %rdi
	movl	$2, %ecx
	pushq	%rax
	pushq	%r10
	pushq	%r11
	callq	_Z25compute_intersections_2ndRKN5vmesh12VelocityMeshIjjEERKN5Eigen9TransformIdLi3ELi2ELi0EEES8_jRKhRdSB_SB_SB_
	addq	$32, %rsp
	movl	$0, -148(%rbp)          # 4-byte Folded Spill
	jmp	.LBB2_86
.Ltmp182:
.LBB2_37:                               # %L.B0016.thread
	#DEBUG_VALUE: vmesh <- $r13
	#DEBUG_VALUE: refLevel <- 0
	#DEBUG_VALUE: useAccelerator <- [DW_OP_constu 92, DW_OP_minus] [$rbp+0]
	#DEBUG_VALUE: spatial_cell <- [DW_OP_constu 144, DW_OP_minus] [$rbp+0]
	#DEBUG_VALUE: ....inline.__FILL_CHARARRAY <- [DW_OP_LLVM_convert 32 7, DW_OP_LLVM_convert 8 7, DW_OP_stack_value] 0
	#DEBUG_VALUE: cpu_accelerate_cell:order_step <- [DW_OP_constu 252, DW_OP_minus] [$rbp+0]
	#DEBUG_VALUE: cpu_accelerate_cell:useAccelerator <- [DW_OP_constu 92, DW_OP_minus] [$rbp+0]
	#DEBUG_VALUE: refLevel <- [DW_OP_constu 41, DW_OP_minus, DW_OP_deref] $rbp
	#DEBUG_VALUE: intersection_z <- [DW_OP_constu 248, DW_OP_minus, DW_OP_deref] $rbp
	#DEBUG_VALUE: intersection_z_di <- [DW_OP_constu 240, DW_OP_minus, DW_OP_deref] $rbp
	#DEBUG_VALUE: intersection_z_dj <- [DW_OP_constu 232, DW_OP_minus, DW_OP_deref] $rbp
	#DEBUG_VALUE: intersection_z_dk <- [DW_OP_constu 224, DW_OP_minus, DW_OP_deref] $rbp
	.cfi_escape 0x2e, 0x20
	.loc	1 146 1                 # vlasovsolver/cpu_acc_semilag.cpp:146:1
	subq	$8, %rsp
	leaq	-224(%rbp), %rax
	leaq	-232(%rbp), %r10
	leaq	-240(%rbp), %r11
	leaq	-416(%rbp), %rsi
	leaq	-576(%rbp), %rdx
	leaq	-41(%rbp), %r8
	leaq	-248(%rbp), %r9
	movq	%r13, %rdi
	movl	$2, %ecx
	pushq	%rax
	pushq	%r10
	pushq	%r11
	callq	_Z25compute_intersections_1stRKN5vmesh12VelocityMeshIjjEERKN5Eigen9TransformIdLi3ELi2ELi0EEES8_jRKhRdSB_SB_SB_
	addq	$32, %rsp
	movb	$1, %r12b
	movb	$1, %r14b
	jmp	.LBB2_42
.Ltmp183:
.LBB2_38:                               # %L.B0002.thread
	#DEBUG_VALUE: vmesh <- $r13
	#DEBUG_VALUE: refLevel <- 0
	#DEBUG_VALUE: useAccelerator <- [DW_OP_constu 92, DW_OP_minus] [$rbp+0]
	#DEBUG_VALUE: spatial_cell <- [DW_OP_constu 144, DW_OP_minus] [$rbp+0]
	#DEBUG_VALUE: ....inline.__FILL_CHARARRAY <- [DW_OP_LLVM_convert 32 7, DW_OP_LLVM_convert 8 7, DW_OP_stack_value] 0
	#DEBUG_VALUE: cpu_accelerate_cell:order_step <- [DW_OP_constu 252, DW_OP_minus] [$rbp+0]
	#DEBUG_VALUE: cpu_accelerate_cell:useAccelerator <- [DW_OP_constu 92, DW_OP_minus] [$rbp+0]
	#DEBUG_VALUE: refLevel <- [DW_OP_constu 41, DW_OP_minus, DW_OP_deref] $rbp
	#DEBUG_VALUE: intersection_x <- [DW_OP_constu 216, DW_OP_minus, DW_OP_deref] $rbp
	#DEBUG_VALUE: intersection_x_di <- [DW_OP_constu 208, DW_OP_minus, DW_OP_deref] $rbp
	#DEBUG_VALUE: intersection_x_dj <- [DW_OP_constu 200, DW_OP_minus, DW_OP_deref] $rbp
	#DEBUG_VALUE: intersection_x_dk <- [DW_OP_constu 192, DW_OP_minus, DW_OP_deref] $rbp
	.cfi_escape 0x2e, 0x20
	.loc	1 112 1                 # vlasovsolver/cpu_acc_semilag.cpp:112:1
	subq	$8, %rsp
	leaq	-192(%rbp), %rax
	leaq	-200(%rbp), %r10
	leaq	-208(%rbp), %r11
	leaq	-416(%rbp), %rsi
	leaq	-576(%rbp), %rdx
	leaq	-41(%rbp), %r8
	leaq	-216(%rbp), %r9
	movq	%r13, %rdi
	movl	$0, %ecx
	pushq	%rax
	pushq	%r10
	pushq	%r11
	callq	_Z25compute_intersections_1stRKN5vmesh12VelocityMeshIjjEERKN5Eigen9TransformIdLi3ELi2ELi0EEES8_jRKhRdSB_SB_SB_
	addq	$32, %rsp
	movb	$1, %bl
	movb	$1, %r14b
	jmp	.LBB2_64
.Ltmp184:
.LBB2_39:                               # %L.B0009.thread
	#DEBUG_VALUE: vmesh <- $r13
	#DEBUG_VALUE: refLevel <- 0
	#DEBUG_VALUE: useAccelerator <- [DW_OP_constu 92, DW_OP_minus] [$rbp+0]
	#DEBUG_VALUE: spatial_cell <- [DW_OP_constu 144, DW_OP_minus] [$rbp+0]
	#DEBUG_VALUE: ....inline.__FILL_CHARARRAY <- [DW_OP_LLVM_convert 32 7, DW_OP_LLVM_convert 8 7, DW_OP_stack_value] 0
	#DEBUG_VALUE: cpu_accelerate_cell:order_step <- [DW_OP_constu 252, DW_OP_minus] [$rbp+0]
	#DEBUG_VALUE: cpu_accelerate_cell:useAccelerator <- [DW_OP_constu 92, DW_OP_minus] [$rbp+0]
	#DEBUG_VALUE: refLevel <- [DW_OP_constu 41, DW_OP_minus, DW_OP_deref] $rbp
	#DEBUG_VALUE: intersection_y <- [DW_OP_constu 184, DW_OP_minus, DW_OP_deref] $rbp
	#DEBUG_VALUE: intersection_y_di <- [DW_OP_constu 176, DW_OP_minus, DW_OP_deref] $rbp
	#DEBUG_VALUE: intersection_y_dj <- [DW_OP_constu 168, DW_OP_minus, DW_OP_deref] $rbp
	#DEBUG_VALUE: intersection_y_dk <- [DW_OP_constu 160, DW_OP_minus, DW_OP_deref] $rbp
	.cfi_escape 0x2e, 0x20
	.loc	1 129 1                 # vlasovsolver/cpu_acc_semilag.cpp:129:1
	subq	$8, %rsp
	leaq	-160(%rbp), %rax
	leaq	-168(%rbp), %r10
	leaq	-176(%rbp), %r11
	leaq	-416(%rbp), %rsi
	leaq	-576(%rbp), %rdx
	leaq	-41(%rbp), %r8
	leaq	-184(%rbp), %r9
	movq	%r13, %rdi
	movl	$1, %ecx
	pushq	%rax
	pushq	%r10
	pushq	%r11
	callq	_Z25compute_intersections_1stRKN5vmesh12VelocityMeshIjjEERKN5Eigen9TransformIdLi3ELi2ELi0EEES8_jRKhRdSB_SB_SB_
	addq	$32, %rsp
	movb	$1, %r14b
	movb	$1, %al
	movl	%eax, -148(%rbp)        # 4-byte Spill
	jmp	.LBB2_87
.Ltmp185:
.LBB2_40:                               # %L.B2359
	#DEBUG_VALUE: vmesh <- $r13
	#DEBUG_VALUE: refLevel <- 0
	#DEBUG_VALUE: useAccelerator <- [DW_OP_constu 92, DW_OP_minus] [$rbp+0]
	#DEBUG_VALUE: spatial_cell <- [DW_OP_constu 144, DW_OP_minus] [$rbp+0]
	#DEBUG_VALUE: ....inline.__FILL_CHARARRAY <- [DW_OP_LLVM_convert 32 7, DW_OP_LLVM_convert 8 7, DW_OP_stack_value] 0
	#DEBUG_VALUE: cpu_accelerate_cell:order_step <- [DW_OP_constu 252, DW_OP_minus] [$rbp+0]
	#DEBUG_VALUE: cpu_accelerate_cell:useAccelerator <- [DW_OP_constu 92, DW_OP_minus] [$rbp+0]
	#DEBUG_VALUE: refLevel <- [DW_OP_constu 41, DW_OP_minus, DW_OP_deref] $rbp
	#DEBUG_VALUE: intersection_y <- [DW_OP_constu 184, DW_OP_minus, DW_OP_deref] $rbp
	#DEBUG_VALUE: intersection_y_di <- [DW_OP_constu 176, DW_OP_minus, DW_OP_deref] $rbp
	#DEBUG_VALUE: intersection_y_dj <- [DW_OP_constu 168, DW_OP_minus, DW_OP_deref] $rbp
	#DEBUG_VALUE: intersection_y_dk <- [DW_OP_constu 160, DW_OP_minus, DW_OP_deref] $rbp
	.cfi_escape 0x2e, 0x20
	.loc	1 150 1                 # vlasovsolver/cpu_acc_semilag.cpp:150:1
	subq	$8, %rsp
	leaq	-160(%rbp), %rax
	leaq	-168(%rbp), %r10
	leaq	-176(%rbp), %r11
	leaq	-416(%rbp), %rsi
	leaq	-576(%rbp), %rdx
	leaq	-41(%rbp), %r8
	leaq	-184(%rbp), %r9
	movq	%r13, %rdi
	movl	$1, %ecx
	pushq	%rax
	pushq	%r10
	pushq	%r11
	callq	_Z25compute_intersections_3rdRKN5vmesh12VelocityMeshIjjEERKN5Eigen9TransformIdLi3ELi2ELi0EEES8_jRKhRdSB_SB_SB_
	addq	$32, %rsp
	xorl	%r12d, %r12d
.Ltmp186:
.LBB2_42:                               # %L.B0018
	#DEBUG_VALUE: vmesh <- $r13
	#DEBUG_VALUE: useAccelerator <- [DW_OP_constu 92, DW_OP_minus] [$rbp+0]
	#DEBUG_VALUE: spatial_cell <- [DW_OP_constu 144, DW_OP_minus] [$rbp+0]
	#DEBUG_VALUE: ....inline.__FILL_CHARARRAY <- [DW_OP_LLVM_convert 32 7, DW_OP_LLVM_convert 8 7, DW_OP_stack_value] 0
	#DEBUG_VALUE: cpu_accelerate_cell:order_step <- [DW_OP_constu 252, DW_OP_minus] [$rbp+0]
	#DEBUG_VALUE: cpu_accelerate_cell:useAccelerator <- [DW_OP_constu 92, DW_OP_minus] [$rbp+0]
	#DEBUG_VALUE: basic_string: <- [DW_OP_constu 88, DW_OP_minus, DW_OP_stack_value] $rbp
	#DEBUG_VALUE:  <- [DW_OP_constu 88, DW_OP_minus, DW_OP_stack_value] $rbp
	.loc	8 527 1                 # /usr/include/c++/9/bits/basic_string.h:527:1
	movq	%r15, -88(%rbp)
.Ltmp187:
	#DEBUG_VALUE: __dnew <- 21
	#DEBUG_VALUE: _M_construct:_T47974328_38852 <- undef
	#DEBUG_VALUE:  <- [DW_OP_constu 88, DW_OP_minus, DW_OP_stack_value] $rbp
	#DEBUG_VALUE: _M_construct: <- [DW_OP_constu 88, DW_OP_minus, DW_OP_stack_value] $rbp
	#DEBUG_VALUE: ....inline.__FILL_CHARARRAY <- [DW_OP_LLVM_convert 32 7, DW_OP_LLVM_convert 8 7, DW_OP_stack_value] 0
	.loc	2 143 1                 # /usr/include/c++/9/bits/basic_string.tcc:143:1
	movq	$21, -56(%rbp)
.Ltmp188:
	#DEBUG_VALUE: __dnew <- [DW_OP_constu 56, DW_OP_minus, DW_OP_deref] $rbp
.Ltmp26:
	.cfi_escape 0x2e, 0x00
	.loc	2 0 1 is_stmt 0         # /usr/include/c++/9/bits/basic_string.tcc:0:1
	leaq	-88(%rbp), %rdi
	leaq	-56(%rbp), %rsi
	.loc	2 219 1 is_stmt 1       # /usr/include/c++/9/bits/basic_string.tcc:219:1
	xorl	%edx, %edx
	callq	_ZNSt7__cxx1112basic_stringIcSt11char_traitsIcESaIcEE9_M_createERmm
.Ltmp27:
.Ltmp189:
	#DEBUG_VALUE: __end <- undef
	#DEBUG_VALUE: _M_construct:__end <- undef
	#DEBUG_VALUE: __beg <- undef
	#DEBUG_VALUE: _M_construct:__beg <- undef
	#DEBUG_VALUE: __s <- undef
	#DEBUG_VALUE: basic_string:__s <- undef
# %bb.43:                               # %.noexc108
	#DEBUG_VALUE: __dnew <- [DW_OP_constu 56, DW_OP_minus, DW_OP_deref] $rbp
	#DEBUG_VALUE: ....inline.__FILL_CHARARRAY <- [DW_OP_LLVM_convert 32 7, DW_OP_LLVM_convert 8 7, DW_OP_stack_value] 0
	#DEBUG_VALUE: _M_construct: <- [DW_OP_constu 88, DW_OP_minus, DW_OP_stack_value] $rbp
	#DEBUG_VALUE:  <- [DW_OP_constu 88, DW_OP_minus, DW_OP_stack_value] $rbp
	#DEBUG_VALUE:  <- [DW_OP_constu 88, DW_OP_minus, DW_OP_stack_value] $rbp
	#DEBUG_VALUE: basic_string: <- [DW_OP_constu 88, DW_OP_minus, DW_OP_stack_value] $rbp
	#DEBUG_VALUE: vmesh <- $r13
	#DEBUG_VALUE: useAccelerator <- [DW_OP_constu 92, DW_OP_minus] [$rbp+0]
	#DEBUG_VALUE: spatial_cell <- [DW_OP_constu 144, DW_OP_minus] [$rbp+0]
	#DEBUG_VALUE: ....inline.__FILL_CHARARRAY <- [DW_OP_LLVM_convert 32 7, DW_OP_LLVM_convert 8 7, DW_OP_stack_value] 0
	#DEBUG_VALUE: cpu_accelerate_cell:order_step <- [DW_OP_constu 252, DW_OP_minus] [$rbp+0]
	#DEBUG_VALUE: cpu_accelerate_cell:useAccelerator <- [DW_OP_constu 92, DW_OP_minus] [$rbp+0]
	movq	%rax, -88(%rbp)
	.loc	2 220 1                 # /usr/include/c++/9/bits/basic_string.tcc:220:1
	movq	-56(%rbp), %rcx
.Ltmp190:
	#DEBUG_VALUE: __dnew <- $rcx
	movq	%rcx, -72(%rbp)
	.loc	2 398 1                 # /usr/include/c++/9/bits/basic_string.tcc:398:1
	vmovups	.S40801(%rip), %xmm0
	vmovups	%xmm0, (%rax)
	movabsq	$8317708060514805107, %rdx # imm = 0x736E6F6974636573
	movq	%rdx, 13(%rax)
	.loc	2 216 1                 # /usr/include/c++/9/bits/basic_string.tcc:216:1
	movq	%rcx, -80(%rbp)
	.loc	2 217 1                 # /usr/include/c++/9/bits/basic_string.tcc:217:1
	movq	-88(%rbp), %rax
	movb	$0, (%rax,%rcx)
.Ltmp191:
	#DEBUG_VALUE:  <- [DW_OP_constu 128, DW_OP_minus, DW_OP_stack_value] $rbp
	#DEBUG_VALUE: basic_string: <- [DW_OP_constu 128, DW_OP_minus, DW_OP_stack_value] $rbp
	.loc	8 527 1                 # /usr/include/c++/9/bits/basic_string.h:527:1
	leaq	-112(%rbp), %r13
.Ltmp192:
	movq	%r13, -128(%rbp)
.Ltmp193:
	#DEBUG_VALUE: __dnew <- 0
	#DEBUG_VALUE: _M_construct:_T47974328_38852 <- undef
	#DEBUG_VALUE:  <- [DW_OP_constu 128, DW_OP_minus, DW_OP_stack_value] $rbp
	#DEBUG_VALUE: _M_construct: <- [DW_OP_constu 128, DW_OP_minus, DW_OP_stack_value] $rbp
	#DEBUG_VALUE: ....inline.__FILL_CHARARRAY <- [DW_OP_LLVM_convert 32 7, DW_OP_LLVM_convert 8 7, DW_OP_stack_value] 0
	.loc	2 216 1                 # /usr/include/c++/9/bits/basic_string.tcc:216:1
	movq	$0, -120(%rbp)
	.loc	2 217 1                 # /usr/include/c++/9/bits/basic_string.tcc:217:1
	movb	$0, -112(%rbp)
.Ltmp29:
	.cfi_escape 0x2e, 0x00
	leaq	-88(%rbp), %rdi
	vmovsd	.LCPI2_1(%rip), %xmm0   # xmm0 = mem[0],zero
	leaq	-128(%rbp), %rsi
.Ltmp194:
	.loc	1 152 1                 # vlasovsolver/cpu_acc_semilag.cpp:152:1
	callq	_ZN7phiprof4stopERKNSt7__cxx1112basic_stringIcSt11char_traitsIcESaIcEEEdS7_
.Ltmp195:
.Ltmp30:
	#DEBUG_VALUE: __end <- undef
	#DEBUG_VALUE: _M_construct:__end <- undef
# %bb.44:                               # %L.B2362
	#DEBUG_VALUE: useAccelerator <- [DW_OP_constu 92, DW_OP_minus] [$rbp+0]
	#DEBUG_VALUE: spatial_cell <- [DW_OP_constu 144, DW_OP_minus] [$rbp+0]
	#DEBUG_VALUE: ....inline.__FILL_CHARARRAY <- [DW_OP_LLVM_convert 32 7, DW_OP_LLVM_convert 8 7, DW_OP_stack_value] 0
	#DEBUG_VALUE: cpu_accelerate_cell:order_step <- [DW_OP_constu 252, DW_OP_minus] [$rbp+0]
	#DEBUG_VALUE: cpu_accelerate_cell:useAccelerator <- [DW_OP_constu 92, DW_OP_minus] [$rbp+0]
	#DEBUG_VALUE: ~basic_string: <- [DW_OP_constu 128, DW_OP_minus, DW_OP_stack_value] $rbp
	#DEBUG_VALUE:  <- [DW_OP_constu 128, DW_OP_minus, DW_OP_stack_value] $rbp
	.loc	8 231 1                 # /usr/include/c++/9/bits/basic_string.h:231:1
	movq	-128(%rbp), %rdi
	cmpq	%r13, %rdi
	je	.LBB2_46
.Ltmp196:
# %bb.45:                               # %L.B2639.i117
	#DEBUG_VALUE:  <- [DW_OP_constu 128, DW_OP_minus, DW_OP_stack_value] $rbp
	#DEBUG_VALUE: ~basic_string: <- [DW_OP_constu 128, DW_OP_minus, DW_OP_stack_value] $rbp
	#DEBUG_VALUE: useAccelerator <- [DW_OP_constu 92, DW_OP_minus] [$rbp+0]
	#DEBUG_VALUE: spatial_cell <- [DW_OP_constu 144, DW_OP_minus] [$rbp+0]
	#DEBUG_VALUE: ....inline.__FILL_CHARARRAY <- [DW_OP_LLVM_convert 32 7, DW_OP_LLVM_convert 8 7, DW_OP_stack_value] 0
	#DEBUG_VALUE: cpu_accelerate_cell:order_step <- [DW_OP_constu 252, DW_OP_minus] [$rbp+0]
	#DEBUG_VALUE: cpu_accelerate_cell:useAccelerator <- [DW_OP_constu 92, DW_OP_minus] [$rbp+0]
	.cfi_escape 0x2e, 0x00
	.loc	8 232 1                 # /usr/include/c++/9/bits/basic_string.h:232:1
	callq	_ZdlPv
.Ltmp197:
.LBB2_46:                               # %_ZNSt7__cxx1112basic_stringIcSt11char_traitsIcESaIcEED1Ev.exit118
	#DEBUG_VALUE: useAccelerator <- [DW_OP_constu 92, DW_OP_minus] [$rbp+0]
	#DEBUG_VALUE: spatial_cell <- [DW_OP_constu 144, DW_OP_minus] [$rbp+0]
	#DEBUG_VALUE: ....inline.__FILL_CHARARRAY <- [DW_OP_LLVM_convert 32 7, DW_OP_LLVM_convert 8 7, DW_OP_stack_value] 0
	#DEBUG_VALUE: cpu_accelerate_cell:order_step <- [DW_OP_constu 252, DW_OP_minus] [$rbp+0]
	#DEBUG_VALUE: cpu_accelerate_cell:useAccelerator <- [DW_OP_constu 92, DW_OP_minus] [$rbp+0]
	#DEBUG_VALUE: ~basic_string: <- [DW_OP_constu 88, DW_OP_minus, DW_OP_stack_value] $rbp
	#DEBUG_VALUE:  <- [DW_OP_constu 88, DW_OP_minus, DW_OP_stack_value] $rbp
	.loc	8 231 1                 # /usr/include/c++/9/bits/basic_string.h:231:1
	movq	-88(%rbp), %rdi
	cmpq	%r15, %rdi
	je	.LBB2_48
.Ltmp198:
# %bb.47:                               # %L.B2639.i119
	#DEBUG_VALUE:  <- [DW_OP_constu 88, DW_OP_minus, DW_OP_stack_value] $rbp
	#DEBUG_VALUE: ~basic_string: <- [DW_OP_constu 88, DW_OP_minus, DW_OP_stack_value] $rbp
	#DEBUG_VALUE: useAccelerator <- [DW_OP_constu 92, DW_OP_minus] [$rbp+0]
	#DEBUG_VALUE: spatial_cell <- [DW_OP_constu 144, DW_OP_minus] [$rbp+0]
	#DEBUG_VALUE: ....inline.__FILL_CHARARRAY <- [DW_OP_LLVM_convert 32 7, DW_OP_LLVM_convert 8 7, DW_OP_stack_value] 0
	#DEBUG_VALUE: cpu_accelerate_cell:order_step <- [DW_OP_constu 252, DW_OP_minus] [$rbp+0]
	#DEBUG_VALUE: cpu_accelerate_cell:useAccelerator <- [DW_OP_constu 92, DW_OP_minus] [$rbp+0]
	.cfi_escape 0x2e, 0x00
	.loc	8 232 1                 # /usr/include/c++/9/bits/basic_string.h:232:1
	callq	_ZdlPv
.Ltmp199:
.LBB2_48:                               # %_ZNSt7__cxx1112basic_stringIcSt11char_traitsIcESaIcEED1Ev.exit120
	#DEBUG_VALUE: useAccelerator <- [DW_OP_constu 92, DW_OP_minus] [$rbp+0]
	#DEBUG_VALUE: spatial_cell <- [DW_OP_constu 144, DW_OP_minus] [$rbp+0]
	#DEBUG_VALUE: ....inline.__FILL_CHARARRAY <- [DW_OP_LLVM_convert 32 7, DW_OP_LLVM_convert 8 7, DW_OP_stack_value] 0
	#DEBUG_VALUE: cpu_accelerate_cell:order_step <- [DW_OP_constu 252, DW_OP_minus] [$rbp+0]
	#DEBUG_VALUE: cpu_accelerate_cell:useAccelerator <- [DW_OP_constu 92, DW_OP_minus] [$rbp+0]
	#DEBUG_VALUE: basic_string: <- [DW_OP_constu 88, DW_OP_minus, DW_OP_stack_value] $rbp
	#DEBUG_VALUE:  <- [DW_OP_constu 88, DW_OP_minus, DW_OP_stack_value] $rbp
	.loc	8 527 1                 # /usr/include/c++/9/bits/basic_string.h:527:1
	movq	%r15, -88(%rbp)
	movabsq	$7453010364987436333, %rax # imm = 0x676E697070616D2D
.Ltmp200:
	#DEBUG_VALUE: __dnew <- 15
	#DEBUG_VALUE: _M_construct:_T47974328_38852 <- undef
	#DEBUG_VALUE:  <- [DW_OP_constu 88, DW_OP_minus, DW_OP_stack_value] $rbp
	#DEBUG_VALUE: _M_construct: <- [DW_OP_constu 88, DW_OP_minus, DW_OP_stack_value] $rbp
	#DEBUG_VALUE: ....inline.__FILL_CHARARRAY <- [DW_OP_LLVM_convert 32 7, DW_OP_LLVM_convert 8 7, DW_OP_stack_value] 0
	.loc	2 398 1                 # /usr/include/c++/9/bits/basic_string.tcc:398:1
	movq	%rax, 7(%r15)
	movabsq	$3271148752100749155, %rax # imm = 0x2D657475706D6F63
	movq	%rax, (%r15)
.Ltmp201:
	#DEBUG_VALUE: __beg <- undef
	#DEBUG_VALUE: _M_construct:__beg <- undef
	#DEBUG_VALUE: __s <- undef
	#DEBUG_VALUE: basic_string:__s <- undef
	.loc	2 216 1                 # /usr/include/c++/9/bits/basic_string.tcc:216:1
	movq	$15, -80(%rbp)
	.loc	2 217 1                 # /usr/include/c++/9/bits/basic_string.tcc:217:1
	movb	$0, -57(%rbp)
.Ltmp32:
	.cfi_escape 0x2e, 0x00
	leaq	-88(%rbp), %rdi
.Ltmp202:
	.loc	1 153 1                 # vlasovsolver/cpu_acc_semilag.cpp:153:1
	callq	_ZN7phiprof5startERKNSt7__cxx1112basic_stringIcSt11char_traitsIcESaIcEEE
.Ltmp33:
.Ltmp203:
	#DEBUG_VALUE: __end <- undef
	#DEBUG_VALUE: _M_construct:__end <- undef
# %bb.49:                               # %L.B2364
	#DEBUG_VALUE: useAccelerator <- [DW_OP_constu 92, DW_OP_minus] [$rbp+0]
	#DEBUG_VALUE: spatial_cell <- [DW_OP_constu 144, DW_OP_minus] [$rbp+0]
	#DEBUG_VALUE: ....inline.__FILL_CHARARRAY <- [DW_OP_LLVM_convert 32 7, DW_OP_LLVM_convert 8 7, DW_OP_stack_value] 0
	#DEBUG_VALUE: cpu_accelerate_cell:order_step <- [DW_OP_constu 252, DW_OP_minus] [$rbp+0]
	#DEBUG_VALUE: cpu_accelerate_cell:useAccelerator <- [DW_OP_constu 92, DW_OP_minus] [$rbp+0]
	#DEBUG_VALUE: ~basic_string: <- [DW_OP_constu 88, DW_OP_minus, DW_OP_stack_value] $rbp
	#DEBUG_VALUE:  <- [DW_OP_constu 88, DW_OP_minus, DW_OP_stack_value] $rbp
	.loc	8 231 1                 # /usr/include/c++/9/bits/basic_string.h:231:1
	movq	-88(%rbp), %rdi
	cmpq	%r15, %rdi
	je	.LBB2_51
.Ltmp204:
# %bb.50:                               # %L.B2639.i132
	#DEBUG_VALUE:  <- [DW_OP_constu 88, DW_OP_minus, DW_OP_stack_value] $rbp
	#DEBUG_VALUE: ~basic_string: <- [DW_OP_constu 88, DW_OP_minus, DW_OP_stack_value] $rbp
	#DEBUG_VALUE: useAccelerator <- [DW_OP_constu 92, DW_OP_minus] [$rbp+0]
	#DEBUG_VALUE: spatial_cell <- [DW_OP_constu 144, DW_OP_minus] [$rbp+0]
	#DEBUG_VALUE: ....inline.__FILL_CHARARRAY <- [DW_OP_LLVM_convert 32 7, DW_OP_LLVM_convert 8 7, DW_OP_stack_value] 0
	#DEBUG_VALUE: cpu_accelerate_cell:order_step <- [DW_OP_constu 252, DW_OP_minus] [$rbp+0]
	#DEBUG_VALUE: cpu_accelerate_cell:useAccelerator <- [DW_OP_constu 92, DW_OP_minus] [$rbp+0]
	.cfi_escape 0x2e, 0x00
	.loc	8 232 1                 # /usr/include/c++/9/bits/basic_string.h:232:1
	callq	_ZdlPv
.Ltmp205:
.LBB2_51:                               # %_ZNSt7__cxx1112basic_stringIcSt11char_traitsIcESaIcEED1Ev.exit133
	#DEBUG_VALUE: useAccelerator <- [DW_OP_constu 92, DW_OP_minus] [$rbp+0]
	#DEBUG_VALUE: spatial_cell <- [DW_OP_constu 144, DW_OP_minus] [$rbp+0]
	#DEBUG_VALUE: ....inline.__FILL_CHARARRAY <- [DW_OP_LLVM_convert 32 7, DW_OP_LLVM_convert 8 7, DW_OP_stack_value] 0
	#DEBUG_VALUE: cpu_accelerate_cell:order_step <- [DW_OP_constu 252, DW_OP_minus] [$rbp+0]
	#DEBUG_VALUE: cpu_accelerate_cell:useAccelerator <- [DW_OP_constu 92, DW_OP_minus] [$rbp+0]
	.loc	1 146 1                 # vlasovsolver/cpu_acc_semilag.cpp:146:1
	testl	%ebx, %ebx
	.loc	1 154 1                 # vlasovsolver/cpu_acc_semilag.cpp:154:1
	je	.LBB2_60
.Ltmp206:
# %bb.52:                               # %L.B0019
	#DEBUG_VALUE: useAccelerator <- [DW_OP_constu 92, DW_OP_minus] [$rbp+0]
	#DEBUG_VALUE: spatial_cell <- [DW_OP_constu 144, DW_OP_minus] [$rbp+0]
	#DEBUG_VALUE: ....inline.__FILL_CHARARRAY <- [DW_OP_LLVM_convert 32 7, DW_OP_LLVM_convert 8 7, DW_OP_stack_value] 0
	#DEBUG_VALUE: cpu_accelerate_cell:order_step <- [DW_OP_constu 252, DW_OP_minus] [$rbp+0]
	#DEBUG_VALUE: cpu_accelerate_cell:useAccelerator <- [DW_OP_constu 92, DW_OP_minus] [$rbp+0]
	.loc	1 155 1                 # vlasovsolver/cpu_acc_semilag.cpp:155:1
	testb	%r14b, %r14b
	je	.LBB2_61
.Ltmp207:
.LBB2_53:                               # %L.B0020
	#DEBUG_VALUE: useAccelerator <- [DW_OP_constu 92, DW_OP_minus] [$rbp+0]
	#DEBUG_VALUE: ....inline.__FILL_CHARARRAY <- [DW_OP_LLVM_convert 32 7, DW_OP_LLVM_convert 8 7, DW_OP_stack_value] 0
	#DEBUG_VALUE: cpu_accelerate_cell:order_step <- [DW_OP_constu 252, DW_OP_minus] [$rbp+0]
	#DEBUG_VALUE: cpu_accelerate_cell:useAccelerator <- [DW_OP_constu 92, DW_OP_minus] [$rbp+0]
	.loc	1 156 1                 # vlasovsolver/cpu_acc_semilag.cpp:156:1
	testb	%r12b, %r12b
	jne	.LBB2_55
.Ltmp208:
.LBB2_54:                               # %L.B2367
	#DEBUG_VALUE: useAccelerator <- [DW_OP_constu 92, DW_OP_minus] [$rbp+0]
	#DEBUG_VALUE: ....inline.__FILL_CHARARRAY <- [DW_OP_LLVM_convert 32 7, DW_OP_LLVM_convert 8 7, DW_OP_stack_value] 0
	#DEBUG_VALUE: cpu_accelerate_cell:order_step <- [DW_OP_constu 252, DW_OP_minus] [$rbp+0]
	#DEBUG_VALUE: cpu_accelerate_cell:useAccelerator <- [DW_OP_constu 92, DW_OP_minus] [$rbp+0]
	vmovsd	-184(%rbp), %xmm0       # xmm0 = mem[0],zero
.Ltmp209:
	#DEBUG_VALUE: intersection_y <- $xmm0
	vcvtsd2ss	%xmm0, %xmm0, %xmm0
.Ltmp210:
	vmovsd	-176(%rbp), %xmm1       # xmm1 = mem[0],zero
.Ltmp211:
	#DEBUG_VALUE: intersection_y_di <- $xmm1
	vcvtsd2ss	%xmm1, %xmm1, %xmm1
.Ltmp212:
	vmovsd	-168(%rbp), %xmm2       # xmm2 = mem[0],zero
.Ltmp213:
	#DEBUG_VALUE: intersection_y_dj <- $xmm2
	vcvtsd2ss	%xmm2, %xmm2, %xmm2
.Ltmp214:
	vmovsd	-160(%rbp), %xmm3       # xmm3 = mem[0],zero
.Ltmp215:
	#DEBUG_VALUE: intersection_y_dk <- $xmm3
	vcvtsd2ss	%xmm3, %xmm3, %xmm3
.Ltmp216:
	movsbl	-92(%rbp), %ecx         # 1-byte Folded Reload
	.cfi_escape 0x2e, 0x00
	movq	-144(%rbp), %rdi        # 8-byte Reload
	movl	-136(%rbp), %esi        # 4-byte Reload
	movl	$1, %edx
	callq	_Z6map_1dPN12spatial_cell11SpatialCellEjffffjb
.Ltmp217:
.LBB2_55:                               # %L.B0021
	#DEBUG_VALUE: useAccelerator <- [DW_OP_constu 92, DW_OP_minus] [$rbp+0]
	#DEBUG_VALUE: ....inline.__FILL_CHARARRAY <- [DW_OP_LLVM_convert 32 7, DW_OP_LLVM_convert 8 7, DW_OP_stack_value] 0
	#DEBUG_VALUE: cpu_accelerate_cell:order_step <- [DW_OP_constu 252, DW_OP_minus] [$rbp+0]
	#DEBUG_VALUE: cpu_accelerate_cell:useAccelerator <- [DW_OP_constu 92, DW_OP_minus] [$rbp+0]
	#DEBUG_VALUE: basic_string: <- [DW_OP_constu 88, DW_OP_minus, DW_OP_stack_value] $rbp
	#DEBUG_VALUE:  <- [DW_OP_constu 88, DW_OP_minus, DW_OP_stack_value] $rbp
	.loc	8 527 1                 # /usr/include/c++/9/bits/basic_string.h:527:1
	movq	%r15, -88(%rbp)
.Ltmp218:
	#DEBUG_VALUE: _M_construct:_T47974328_38852 <- undef
	#DEBUG_VALUE: ....inline.__FILL_CHARARRAY <- [DW_OP_LLVM_convert 32 7, DW_OP_LLVM_convert 8 7, DW_OP_stack_value] 0
	.loc	2 398 1                 # /usr/include/c++/9/bits/basic_string.tcc:398:1
	movabsq	$7453010364987436333, %rax # imm = 0x676E697070616D2D
.Ltmp219:
	#DEBUG_VALUE: __dnew <- 15
	#DEBUG_VALUE:  <- [DW_OP_constu 88, DW_OP_minus, DW_OP_stack_value] $rbp
	#DEBUG_VALUE: _M_construct: <- [DW_OP_constu 88, DW_OP_minus, DW_OP_stack_value] $rbp
	movq	%rax, 7(%r15)
	movabsq	$3271148752100749155, %rax # imm = 0x2D657475706D6F63
	movq	%rax, (%r15)
.Ltmp220:
	#DEBUG_VALUE: __beg <- undef
	#DEBUG_VALUE: _M_construct:__beg <- undef
	#DEBUG_VALUE: __s <- undef
	#DEBUG_VALUE: basic_string:__s <- undef
	.loc	2 216 1                 # /usr/include/c++/9/bits/basic_string.tcc:216:1
	movq	$15, -80(%rbp)
	.loc	2 217 1                 # /usr/include/c++/9/bits/basic_string.tcc:217:1
	movb	$0, -57(%rbp)
.Ltmp221:
	#DEBUG_VALUE:  <- [DW_OP_constu 128, DW_OP_minus, DW_OP_stack_value] $rbp
	#DEBUG_VALUE: basic_string: <- [DW_OP_constu 128, DW_OP_minus, DW_OP_stack_value] $rbp
	.loc	8 527 1                 # /usr/include/c++/9/bits/basic_string.h:527:1
	movq	%r13, -128(%rbp)
.Ltmp222:
	#DEBUG_VALUE: __dnew <- 0
	#DEBUG_VALUE: _M_construct:_T47974328_38852 <- undef
	#DEBUG_VALUE: __end <- undef
	#DEBUG_VALUE: _M_construct:__end <- undef
	#DEBUG_VALUE:  <- [DW_OP_constu 128, DW_OP_minus, DW_OP_stack_value] $rbp
	#DEBUG_VALUE: _M_construct: <- [DW_OP_constu 128, DW_OP_minus, DW_OP_stack_value] $rbp
	#DEBUG_VALUE: ....inline.__FILL_CHARARRAY <- [DW_OP_LLVM_convert 32 7, DW_OP_LLVM_convert 8 7, DW_OP_stack_value] 0
	.loc	2 216 1                 # /usr/include/c++/9/bits/basic_string.tcc:216:1
	movq	$0, -120(%rbp)
	.loc	2 217 1                 # /usr/include/c++/9/bits/basic_string.tcc:217:1
	movb	$0, -112(%rbp)
.Ltmp35:
	.cfi_escape 0x2e, 0x00
	leaq	-88(%rbp), %rdi
	vmovsd	.LCPI2_1(%rip), %xmm0   # xmm0 = mem[0],zero
	leaq	-128(%rbp), %rsi
.Ltmp223:
	.loc	1 157 1                 # vlasovsolver/cpu_acc_semilag.cpp:157:1
	callq	_ZN7phiprof4stopERKNSt7__cxx1112basic_stringIcSt11char_traitsIcESaIcEEEdS7_
.Ltmp36:
.Ltmp224:
	#DEBUG_VALUE: __end <- undef
	#DEBUG_VALUE: _M_construct:__end <- undef
# %bb.56:                               # %L.B2370
	#DEBUG_VALUE: useAccelerator <- [DW_OP_constu 92, DW_OP_minus] [$rbp+0]
	#DEBUG_VALUE: ....inline.__FILL_CHARARRAY <- [DW_OP_LLVM_convert 32 7, DW_OP_LLVM_convert 8 7, DW_OP_stack_value] 0
	#DEBUG_VALUE: cpu_accelerate_cell:order_step <- [DW_OP_constu 252, DW_OP_minus] [$rbp+0]
	#DEBUG_VALUE: cpu_accelerate_cell:useAccelerator <- [DW_OP_constu 92, DW_OP_minus] [$rbp+0]
	#DEBUG_VALUE: ~basic_string: <- [DW_OP_constu 128, DW_OP_minus, DW_OP_stack_value] $rbp
	#DEBUG_VALUE:  <- [DW_OP_constu 128, DW_OP_minus, DW_OP_stack_value] $rbp
	.loc	8 231 1                 # /usr/include/c++/9/bits/basic_string.h:231:1
	movq	-128(%rbp), %rdi
	cmpq	%r13, %rdi
	je	.LBB2_58
.Ltmp225:
# %bb.57:                               # %L.B2639.i150
	#DEBUG_VALUE:  <- [DW_OP_constu 128, DW_OP_minus, DW_OP_stack_value] $rbp
	#DEBUG_VALUE: ~basic_string: <- [DW_OP_constu 128, DW_OP_minus, DW_OP_stack_value] $rbp
	#DEBUG_VALUE: useAccelerator <- [DW_OP_constu 92, DW_OP_minus] [$rbp+0]
	#DEBUG_VALUE: ....inline.__FILL_CHARARRAY <- [DW_OP_LLVM_convert 32 7, DW_OP_LLVM_convert 8 7, DW_OP_stack_value] 0
	#DEBUG_VALUE: cpu_accelerate_cell:order_step <- [DW_OP_constu 252, DW_OP_minus] [$rbp+0]
	#DEBUG_VALUE: cpu_accelerate_cell:useAccelerator <- [DW_OP_constu 92, DW_OP_minus] [$rbp+0]
	.cfi_escape 0x2e, 0x00
	.loc	8 232 1                 # /usr/include/c++/9/bits/basic_string.h:232:1
	callq	_ZdlPv
.Ltmp226:
.LBB2_58:                               # %_ZNSt7__cxx1112basic_stringIcSt11char_traitsIcESaIcEED1Ev.exit151
	#DEBUG_VALUE: useAccelerator <- [DW_OP_constu 92, DW_OP_minus] [$rbp+0]
	#DEBUG_VALUE: ....inline.__FILL_CHARARRAY <- [DW_OP_LLVM_convert 32 7, DW_OP_LLVM_convert 8 7, DW_OP_stack_value] 0
	#DEBUG_VALUE: cpu_accelerate_cell:order_step <- [DW_OP_constu 252, DW_OP_minus] [$rbp+0]
	#DEBUG_VALUE: cpu_accelerate_cell:useAccelerator <- [DW_OP_constu 92, DW_OP_minus] [$rbp+0]
	#DEBUG_VALUE: ~basic_string: <- [DW_OP_constu 88, DW_OP_minus, DW_OP_stack_value] $rbp
	#DEBUG_VALUE:  <- [DW_OP_constu 88, DW_OP_minus, DW_OP_stack_value] $rbp
	.loc	8 231 1                 # /usr/include/c++/9/bits/basic_string.h:231:1
	movq	-88(%rbp), %rdi
	cmpq	%r15, %rdi
	je	.LBB2_106
.Ltmp227:
# %bb.59:                               # %L.B2639.i152
	#DEBUG_VALUE:  <- [DW_OP_constu 88, DW_OP_minus, DW_OP_stack_value] $rbp
	#DEBUG_VALUE: ~basic_string: <- [DW_OP_constu 88, DW_OP_minus, DW_OP_stack_value] $rbp
	#DEBUG_VALUE: useAccelerator <- [DW_OP_constu 92, DW_OP_minus] [$rbp+0]
	#DEBUG_VALUE: ....inline.__FILL_CHARARRAY <- [DW_OP_LLVM_convert 32 7, DW_OP_LLVM_convert 8 7, DW_OP_stack_value] 0
	#DEBUG_VALUE: cpu_accelerate_cell:order_step <- [DW_OP_constu 252, DW_OP_minus] [$rbp+0]
	#DEBUG_VALUE: cpu_accelerate_cell:useAccelerator <- [DW_OP_constu 92, DW_OP_minus] [$rbp+0]
	.cfi_escape 0x2e, 0x00
	.loc	8 0 1 is_stmt 0         # /usr/include/c++/9/bits/basic_string.h:0:1
	jmp	.LBB2_105
.Ltmp228:
.LBB2_60:                               # %L.B2365
	#DEBUG_VALUE: useAccelerator <- [DW_OP_constu 92, DW_OP_minus] [$rbp+0]
	#DEBUG_VALUE: spatial_cell <- [DW_OP_constu 144, DW_OP_minus] [$rbp+0]
	#DEBUG_VALUE: ....inline.__FILL_CHARARRAY <- [DW_OP_LLVM_convert 32 7, DW_OP_LLVM_convert 8 7, DW_OP_stack_value] 0
	#DEBUG_VALUE: cpu_accelerate_cell:order_step <- [DW_OP_constu 252, DW_OP_minus] [$rbp+0]
	#DEBUG_VALUE: cpu_accelerate_cell:useAccelerator <- [DW_OP_constu 92, DW_OP_minus] [$rbp+0]
	.loc	1 154 1 is_stmt 1       # vlasovsolver/cpu_acc_semilag.cpp:154:1
	vmovsd	-248(%rbp), %xmm0       # xmm0 = mem[0],zero
.Ltmp229:
	#DEBUG_VALUE: intersection_z <- $xmm0
	vcvtsd2ss	%xmm0, %xmm0, %xmm0
.Ltmp230:
	vmovsd	-240(%rbp), %xmm1       # xmm1 = mem[0],zero
.Ltmp231:
	#DEBUG_VALUE: intersection_z_di <- $xmm1
	vcvtsd2ss	%xmm1, %xmm1, %xmm1
.Ltmp232:
	vmovsd	-232(%rbp), %xmm2       # xmm2 = mem[0],zero
.Ltmp233:
	#DEBUG_VALUE: intersection_z_dj <- $xmm2
	vcvtsd2ss	%xmm2, %xmm2, %xmm2
.Ltmp234:
	vmovsd	-224(%rbp), %xmm3       # xmm3 = mem[0],zero
.Ltmp235:
	#DEBUG_VALUE: intersection_z_dk <- $xmm3
	vcvtsd2ss	%xmm3, %xmm3, %xmm3
.Ltmp236:
	movsbl	-92(%rbp), %ecx         # 1-byte Folded Reload
	.cfi_escape 0x2e, 0x00
	movq	-144(%rbp), %rdi        # 8-byte Reload
.Ltmp237:
	#DEBUG_VALUE: spatial_cell <- $rdi
	.loc	1 0 1 is_stmt 0         # vlasovsolver/cpu_acc_semilag.cpp:0:1
	movl	-136(%rbp), %esi        # 4-byte Reload
	.loc	1 154 1                 # vlasovsolver/cpu_acc_semilag.cpp:154:1
	movl	$2, %edx
	callq	_Z6map_1dPN12spatial_cell11SpatialCellEjffffjb
.Ltmp238:
	.loc	1 155 1 is_stmt 1       # vlasovsolver/cpu_acc_semilag.cpp:155:1
	testb	%r14b, %r14b
	jne	.LBB2_53
.Ltmp239:
.LBB2_61:                               # %L.B2366
	#DEBUG_VALUE: useAccelerator <- [DW_OP_constu 92, DW_OP_minus] [$rbp+0]
	#DEBUG_VALUE: ....inline.__FILL_CHARARRAY <- [DW_OP_LLVM_convert 32 7, DW_OP_LLVM_convert 8 7, DW_OP_stack_value] 0
	#DEBUG_VALUE: cpu_accelerate_cell:order_step <- [DW_OP_constu 252, DW_OP_minus] [$rbp+0]
	#DEBUG_VALUE: cpu_accelerate_cell:useAccelerator <- [DW_OP_constu 92, DW_OP_minus] [$rbp+0]
	vmovsd	-216(%rbp), %xmm0       # xmm0 = mem[0],zero
.Ltmp240:
	#DEBUG_VALUE: intersection_x <- $xmm0
	vcvtsd2ss	%xmm0, %xmm0, %xmm0
.Ltmp241:
	vmovsd	-208(%rbp), %xmm1       # xmm1 = mem[0],zero
.Ltmp242:
	#DEBUG_VALUE: intersection_x_di <- $xmm1
	vcvtsd2ss	%xmm1, %xmm1, %xmm1
.Ltmp243:
	vmovsd	-200(%rbp), %xmm2       # xmm2 = mem[0],zero
.Ltmp244:
	#DEBUG_VALUE: intersection_x_dj <- $xmm2
	vcvtsd2ss	%xmm2, %xmm2, %xmm2
.Ltmp245:
	vmovsd	-192(%rbp), %xmm3       # xmm3 = mem[0],zero
.Ltmp246:
	#DEBUG_VALUE: intersection_x_dk <- $xmm3
	vcvtsd2ss	%xmm3, %xmm3, %xmm3
.Ltmp247:
	movsbl	-92(%rbp), %ecx         # 1-byte Folded Reload
	.cfi_escape 0x2e, 0x00
	movq	-144(%rbp), %rdi        # 8-byte Reload
	movl	-136(%rbp), %esi        # 4-byte Reload
	xorl	%edx, %edx
	callq	_Z6map_1dPN12spatial_cell11SpatialCellEjffffjb
	.loc	1 156 1                 # vlasovsolver/cpu_acc_semilag.cpp:156:1
	testb	%r12b, %r12b
	je	.LBB2_54
	jmp	.LBB2_55
.Ltmp248:
.LBB2_62:                               # %L.B2377
	#DEBUG_VALUE: vmesh <- $r13
	#DEBUG_VALUE: refLevel <- 0
	#DEBUG_VALUE: useAccelerator <- [DW_OP_constu 92, DW_OP_minus] [$rbp+0]
	#DEBUG_VALUE: spatial_cell <- [DW_OP_constu 144, DW_OP_minus] [$rbp+0]
	#DEBUG_VALUE: ....inline.__FILL_CHARARRAY <- [DW_OP_LLVM_convert 32 7, DW_OP_LLVM_convert 8 7, DW_OP_stack_value] 0
	#DEBUG_VALUE: cpu_accelerate_cell:order_step <- [DW_OP_constu 252, DW_OP_minus] [$rbp+0]
	#DEBUG_VALUE: cpu_accelerate_cell:useAccelerator <- [DW_OP_constu 92, DW_OP_minus] [$rbp+0]
	#DEBUG_VALUE: refLevel <- [DW_OP_constu 41, DW_OP_minus, DW_OP_deref] $rbp
	#DEBUG_VALUE: intersection_z <- [DW_OP_constu 248, DW_OP_minus, DW_OP_deref] $rbp
	#DEBUG_VALUE: intersection_z_di <- [DW_OP_constu 240, DW_OP_minus, DW_OP_deref] $rbp
	#DEBUG_VALUE: intersection_z_dj <- [DW_OP_constu 232, DW_OP_minus, DW_OP_deref] $rbp
	#DEBUG_VALUE: intersection_z_dk <- [DW_OP_constu 224, DW_OP_minus, DW_OP_deref] $rbp
	.cfi_escape 0x2e, 0x20
	.loc	1 116 1                 # vlasovsolver/cpu_acc_semilag.cpp:116:1
	subq	$8, %rsp
	leaq	-224(%rbp), %rax
	leaq	-232(%rbp), %r10
	leaq	-240(%rbp), %r11
	leaq	-416(%rbp), %rsi
	leaq	-576(%rbp), %rdx
	leaq	-41(%rbp), %r8
	leaq	-248(%rbp), %r9
	movq	%r13, %rdi
	movl	$2, %ecx
	pushq	%rax
	pushq	%r10
	pushq	%r11
	callq	_Z25compute_intersections_3rdRKN5vmesh12VelocityMeshIjjEERKN5Eigen9TransformIdLi3ELi2ELi0EEES8_jRKhRdSB_SB_SB_
	addq	$32, %rsp
	xorl	%ebx, %ebx
.Ltmp249:
.LBB2_64:                               # %L.B0004
	#DEBUG_VALUE: vmesh <- $r13
	#DEBUG_VALUE: useAccelerator <- [DW_OP_constu 92, DW_OP_minus] [$rbp+0]
	#DEBUG_VALUE: spatial_cell <- [DW_OP_constu 144, DW_OP_minus] [$rbp+0]
	#DEBUG_VALUE: ....inline.__FILL_CHARARRAY <- [DW_OP_LLVM_convert 32 7, DW_OP_LLVM_convert 8 7, DW_OP_stack_value] 0
	#DEBUG_VALUE: cpu_accelerate_cell:order_step <- [DW_OP_constu 252, DW_OP_minus] [$rbp+0]
	#DEBUG_VALUE: cpu_accelerate_cell:useAccelerator <- [DW_OP_constu 92, DW_OP_minus] [$rbp+0]
	.loc	1 527 1                 # vlasovsolver/cpu_acc_semilag.cpp:527:1
	movq	%r15, -128(%rbp)
.Ltmp250:
	#DEBUG_VALUE: __dnew <- 21
	#DEBUG_VALUE: _M_construct:_T47974328_38852 <- undef
	#DEBUG_VALUE:  <- [DW_OP_constu 128, DW_OP_minus, DW_OP_stack_value] $rbp
	#DEBUG_VALUE: _M_construct: <- [DW_OP_constu 128, DW_OP_minus, DW_OP_stack_value] $rbp
	#DEBUG_VALUE: ....inline.__FILL_CHARARRAY <- [DW_OP_LLVM_convert 32 7, DW_OP_LLVM_convert 8 7, DW_OP_stack_value] 0
	.loc	2 143 1                 # /usr/include/c++/9/bits/basic_string.tcc:143:1
	movq	$21, -56(%rbp)
.Ltmp251:
	#DEBUG_VALUE: __dnew <- [DW_OP_constu 56, DW_OP_minus, DW_OP_deref] $rbp
.Ltmp62:
	.cfi_escape 0x2e, 0x00
	.loc	2 0 1 is_stmt 0         # /usr/include/c++/9/bits/basic_string.tcc:0:1
	leaq	-128(%rbp), %rdi
	leaq	-56(%rbp), %rsi
	.loc	2 219 1 is_stmt 1       # /usr/include/c++/9/bits/basic_string.tcc:219:1
	xorl	%edx, %edx
	callq	_ZNSt7__cxx1112basic_stringIcSt11char_traitsIcESaIcEE9_M_createERmm
.Ltmp63:
.Ltmp252:
	#DEBUG_VALUE: __beg <- undef
	#DEBUG_VALUE: _M_construct:__beg <- undef
# %bb.65:                               # %L.B2381
	#DEBUG_VALUE: __dnew <- [DW_OP_constu 56, DW_OP_minus, DW_OP_deref] $rbp
	#DEBUG_VALUE: _M_construct: <- [DW_OP_constu 128, DW_OP_minus, DW_OP_stack_value] $rbp
	#DEBUG_VALUE:  <- [DW_OP_constu 128, DW_OP_minus, DW_OP_stack_value] $rbp
	#DEBUG_VALUE: vmesh <- $r13
	#DEBUG_VALUE: useAccelerator <- [DW_OP_constu 92, DW_OP_minus] [$rbp+0]
	#DEBUG_VALUE: spatial_cell <- [DW_OP_constu 144, DW_OP_minus] [$rbp+0]
	#DEBUG_VALUE: ....inline.__FILL_CHARARRAY <- [DW_OP_LLVM_convert 32 7, DW_OP_LLVM_convert 8 7, DW_OP_stack_value] 0
	#DEBUG_VALUE: cpu_accelerate_cell:order_step <- [DW_OP_constu 252, DW_OP_minus] [$rbp+0]
	#DEBUG_VALUE: cpu_accelerate_cell:useAccelerator <- [DW_OP_constu 92, DW_OP_minus] [$rbp+0]
	movq	%rax, -128(%rbp)
	.loc	2 220 1                 # /usr/include/c++/9/bits/basic_string.tcc:220:1
	movq	-56(%rbp), %rcx
.Ltmp253:
	#DEBUG_VALUE: __dnew <- $rcx
	movq	%rcx, -112(%rbp)
	.loc	2 398 1                 # /usr/include/c++/9/bits/basic_string.tcc:398:1
	vmovups	.S40801(%rip), %xmm0
	vmovups	%xmm0, (%rax)
	movq	%r12, 13(%rax)
	.loc	2 216 1                 # /usr/include/c++/9/bits/basic_string.tcc:216:1
	movq	%rcx, -120(%rbp)
	.loc	2 217 1                 # /usr/include/c++/9/bits/basic_string.tcc:217:1
	movq	-128(%rbp), %rax
	movb	$0, (%rax,%rcx)
.Ltmp254:
	.loc	1 527 1                 # vlasovsolver/cpu_acc_semilag.cpp:527:1
	leaq	-72(%rbp), %r13
.Ltmp255:
	movq	%r13, -88(%rbp)
.Ltmp256:
	#DEBUG_VALUE: __dnew <- 0
	#DEBUG_VALUE: _M_construct:_T47974328_38852 <- undef
	#DEBUG_VALUE:  <- [DW_OP_constu 88, DW_OP_minus, DW_OP_stack_value] $rbp
	#DEBUG_VALUE: _M_construct: <- [DW_OP_constu 88, DW_OP_minus, DW_OP_stack_value] $rbp
	#DEBUG_VALUE: ....inline.__FILL_CHARARRAY <- [DW_OP_LLVM_convert 32 7, DW_OP_LLVM_convert 8 7, DW_OP_stack_value] 0
	.loc	2 216 1                 # /usr/include/c++/9/bits/basic_string.tcc:216:1
	movq	$0, -80(%rbp)
	.loc	2 217 1                 # /usr/include/c++/9/bits/basic_string.tcc:217:1
	movb	$0, -72(%rbp)
.Ltmp65:
	.cfi_escape 0x2e, 0x00
	leaq	-128(%rbp), %rdi
	vmovsd	.LCPI2_1(%rip), %xmm0   # xmm0 = mem[0],zero
	leaq	-88(%rbp), %rsi
.Ltmp257:
	.loc	1 118 1                 # vlasovsolver/cpu_acc_semilag.cpp:118:1
	callq	_ZN7phiprof4stopERKNSt7__cxx1112basic_stringIcSt11char_traitsIcESaIcEEEdS7_
.Ltmp258:
.Ltmp66:
# %bb.66:                               # %L.B2382
	#DEBUG_VALUE: useAccelerator <- [DW_OP_constu 92, DW_OP_minus] [$rbp+0]
	#DEBUG_VALUE: spatial_cell <- [DW_OP_constu 144, DW_OP_minus] [$rbp+0]
	#DEBUG_VALUE: ....inline.__FILL_CHARARRAY <- [DW_OP_LLVM_convert 32 7, DW_OP_LLVM_convert 8 7, DW_OP_stack_value] 0
	#DEBUG_VALUE: cpu_accelerate_cell:order_step <- [DW_OP_constu 252, DW_OP_minus] [$rbp+0]
	#DEBUG_VALUE: cpu_accelerate_cell:useAccelerator <- [DW_OP_constu 92, DW_OP_minus] [$rbp+0]
	.loc	1 658 1                 # vlasovsolver/cpu_acc_semilag.cpp:658:1
	movq	-88(%rbp), %rdi
	cmpq	%r13, %rdi
	je	.LBB2_68
.Ltmp259:
# %bb.67:                               # %L.B2383
	#DEBUG_VALUE: useAccelerator <- [DW_OP_constu 92, DW_OP_minus] [$rbp+0]
	#DEBUG_VALUE: spatial_cell <- [DW_OP_constu 144, DW_OP_minus] [$rbp+0]
	#DEBUG_VALUE: ....inline.__FILL_CHARARRAY <- [DW_OP_LLVM_convert 32 7, DW_OP_LLVM_convert 8 7, DW_OP_stack_value] 0
	#DEBUG_VALUE: cpu_accelerate_cell:order_step <- [DW_OP_constu 252, DW_OP_minus] [$rbp+0]
	#DEBUG_VALUE: cpu_accelerate_cell:useAccelerator <- [DW_OP_constu 92, DW_OP_minus] [$rbp+0]
	.cfi_escape 0x2e, 0x00
	callq	_ZdlPv
.Ltmp260:
.LBB2_68:                               # %L..inline.75689
	#DEBUG_VALUE: useAccelerator <- [DW_OP_constu 92, DW_OP_minus] [$rbp+0]
	#DEBUG_VALUE: spatial_cell <- [DW_OP_constu 144, DW_OP_minus] [$rbp+0]
	#DEBUG_VALUE: ....inline.__FILL_CHARARRAY <- [DW_OP_LLVM_convert 32 7, DW_OP_LLVM_convert 8 7, DW_OP_stack_value] 0
	#DEBUG_VALUE: cpu_accelerate_cell:order_step <- [DW_OP_constu 252, DW_OP_minus] [$rbp+0]
	#DEBUG_VALUE: cpu_accelerate_cell:useAccelerator <- [DW_OP_constu 92, DW_OP_minus] [$rbp+0]
	movq	-128(%rbp), %rdi
	cmpq	%r15, %rdi
	je	.LBB2_70
.Ltmp261:
# %bb.69:                               # %L.B2384
	#DEBUG_VALUE: useAccelerator <- [DW_OP_constu 92, DW_OP_minus] [$rbp+0]
	#DEBUG_VALUE: spatial_cell <- [DW_OP_constu 144, DW_OP_minus] [$rbp+0]
	#DEBUG_VALUE: ....inline.__FILL_CHARARRAY <- [DW_OP_LLVM_convert 32 7, DW_OP_LLVM_convert 8 7, DW_OP_stack_value] 0
	#DEBUG_VALUE: cpu_accelerate_cell:order_step <- [DW_OP_constu 252, DW_OP_minus] [$rbp+0]
	#DEBUG_VALUE: cpu_accelerate_cell:useAccelerator <- [DW_OP_constu 92, DW_OP_minus] [$rbp+0]
	.cfi_escape 0x2e, 0x00
	callq	_ZdlPv
.Ltmp262:
.LBB2_70:                               # %L.B2386
	#DEBUG_VALUE: useAccelerator <- [DW_OP_constu 92, DW_OP_minus] [$rbp+0]
	#DEBUG_VALUE: spatial_cell <- [DW_OP_constu 144, DW_OP_minus] [$rbp+0]
	#DEBUG_VALUE: ....inline.__FILL_CHARARRAY <- [DW_OP_LLVM_convert 32 7, DW_OP_LLVM_convert 8 7, DW_OP_stack_value] 0
	#DEBUG_VALUE: cpu_accelerate_cell:order_step <- [DW_OP_constu 252, DW_OP_minus] [$rbp+0]
	#DEBUG_VALUE: cpu_accelerate_cell:useAccelerator <- [DW_OP_constu 92, DW_OP_minus] [$rbp+0]
	.loc	1 527 1                 # vlasovsolver/cpu_acc_semilag.cpp:527:1
	movq	%r13, -88(%rbp)
	movabsq	$7453010364987436333, %rax # imm = 0x676E697070616D2D
.Ltmp263:
	#DEBUG_VALUE: __dnew <- 15
	#DEBUG_VALUE: _M_construct:_T47974328_38852 <- undef
	#DEBUG_VALUE:  <- [DW_OP_constu 88, DW_OP_minus, DW_OP_stack_value] $rbp
	#DEBUG_VALUE: _M_construct: <- [DW_OP_constu 88, DW_OP_minus, DW_OP_stack_value] $rbp
	#DEBUG_VALUE: ....inline.__FILL_CHARARRAY <- [DW_OP_LLVM_convert 32 7, DW_OP_LLVM_convert 8 7, DW_OP_stack_value] 0
	.loc	2 398 1                 # /usr/include/c++/9/bits/basic_string.tcc:398:1
	movq	%rax, 7(%r13)
	movabsq	$3271148752100749155, %r12 # imm = 0x2D657475706D6F63
	movq	%r12, (%r13)
.Ltmp264:
	#DEBUG_VALUE: __beg <- undef
	#DEBUG_VALUE: _M_construct:__beg <- undef
	.loc	2 216 1                 # /usr/include/c++/9/bits/basic_string.tcc:216:1
	movq	$15, -80(%rbp)
	.loc	2 217 1                 # /usr/include/c++/9/bits/basic_string.tcc:217:1
	movb	$0, -57(%rbp)
.Ltmp68:
	.cfi_escape 0x2e, 0x00
	leaq	-88(%rbp), %rdi
.Ltmp265:
	.loc	1 119 1                 # vlasovsolver/cpu_acc_semilag.cpp:119:1
	callq	_ZN7phiprof5startERKNSt7__cxx1112basic_stringIcSt11char_traitsIcESaIcEEE
.Ltmp69:
.Ltmp266:
# %bb.71:                               # %L.B2387
	#DEBUG_VALUE: useAccelerator <- [DW_OP_constu 92, DW_OP_minus] [$rbp+0]
	#DEBUG_VALUE: spatial_cell <- [DW_OP_constu 144, DW_OP_minus] [$rbp+0]
	#DEBUG_VALUE: ....inline.__FILL_CHARARRAY <- [DW_OP_LLVM_convert 32 7, DW_OP_LLVM_convert 8 7, DW_OP_stack_value] 0
	#DEBUG_VALUE: cpu_accelerate_cell:order_step <- [DW_OP_constu 252, DW_OP_minus] [$rbp+0]
	#DEBUG_VALUE: cpu_accelerate_cell:useAccelerator <- [DW_OP_constu 92, DW_OP_minus] [$rbp+0]
	.loc	1 658 1                 # vlasovsolver/cpu_acc_semilag.cpp:658:1
	movq	-88(%rbp), %rdi
	cmpq	%r13, %rdi
	je	.LBB2_73
.Ltmp267:
# %bb.72:                               # %L.B2388
	#DEBUG_VALUE: useAccelerator <- [DW_OP_constu 92, DW_OP_minus] [$rbp+0]
	#DEBUG_VALUE: spatial_cell <- [DW_OP_constu 144, DW_OP_minus] [$rbp+0]
	#DEBUG_VALUE: ....inline.__FILL_CHARARRAY <- [DW_OP_LLVM_convert 32 7, DW_OP_LLVM_convert 8 7, DW_OP_stack_value] 0
	#DEBUG_VALUE: cpu_accelerate_cell:order_step <- [DW_OP_constu 252, DW_OP_minus] [$rbp+0]
	#DEBUG_VALUE: cpu_accelerate_cell:useAccelerator <- [DW_OP_constu 92, DW_OP_minus] [$rbp+0]
	.cfi_escape 0x2e, 0x00
	callq	_ZdlPv
.Ltmp268:
.LBB2_73:                               # %L..inline.75936
	#DEBUG_VALUE: useAccelerator <- [DW_OP_constu 92, DW_OP_minus] [$rbp+0]
	#DEBUG_VALUE: spatial_cell <- [DW_OP_constu 144, DW_OP_minus] [$rbp+0]
	#DEBUG_VALUE: ....inline.__FILL_CHARARRAY <- [DW_OP_LLVM_convert 32 7, DW_OP_LLVM_convert 8 7, DW_OP_stack_value] 0
	#DEBUG_VALUE: cpu_accelerate_cell:order_step <- [DW_OP_constu 252, DW_OP_minus] [$rbp+0]
	#DEBUG_VALUE: cpu_accelerate_cell:useAccelerator <- [DW_OP_constu 92, DW_OP_minus] [$rbp+0]
	.loc	1 0 1 is_stmt 0         # vlasovsolver/cpu_acc_semilag.cpp:0:1
	movl	%ebx, %r15d
.Ltmp269:
	.loc	1 112 1 is_stmt 1       # vlasovsolver/cpu_acc_semilag.cpp:112:1
	cmpl	$0, -252(%rbp)          # 4-byte Folded Reload
	.loc	1 120 1                 # vlasovsolver/cpu_acc_semilag.cpp:120:1
	jne	.LBB2_75
.Ltmp270:
# %bb.74:                               # %L.B2389
	#DEBUG_VALUE: useAccelerator <- [DW_OP_constu 92, DW_OP_minus] [$rbp+0]
	#DEBUG_VALUE: spatial_cell <- [DW_OP_constu 144, DW_OP_minus] [$rbp+0]
	#DEBUG_VALUE: ....inline.__FILL_CHARARRAY <- [DW_OP_LLVM_convert 32 7, DW_OP_LLVM_convert 8 7, DW_OP_stack_value] 0
	#DEBUG_VALUE: cpu_accelerate_cell:order_step <- [DW_OP_constu 252, DW_OP_minus] [$rbp+0]
	#DEBUG_VALUE: cpu_accelerate_cell:useAccelerator <- [DW_OP_constu 92, DW_OP_minus] [$rbp+0]
	vmovsd	-216(%rbp), %xmm0       # xmm0 = mem[0],zero
.Ltmp271:
	#DEBUG_VALUE: intersection_x <- $xmm0
	vcvtsd2ss	%xmm0, %xmm0, %xmm0
.Ltmp272:
	vmovsd	-208(%rbp), %xmm1       # xmm1 = mem[0],zero
.Ltmp273:
	#DEBUG_VALUE: intersection_x_di <- $xmm1
	vcvtsd2ss	%xmm1, %xmm1, %xmm1
.Ltmp274:
	vmovsd	-200(%rbp), %xmm2       # xmm2 = mem[0],zero
.Ltmp275:
	#DEBUG_VALUE: intersection_x_dj <- $xmm2
	vcvtsd2ss	%xmm2, %xmm2, %xmm2
.Ltmp276:
	vmovsd	-192(%rbp), %xmm3       # xmm3 = mem[0],zero
.Ltmp277:
	#DEBUG_VALUE: intersection_x_dk <- $xmm3
	vcvtsd2ss	%xmm3, %xmm3, %xmm3
.Ltmp278:
	movsbl	-92(%rbp), %ecx         # 1-byte Folded Reload
	.cfi_escape 0x2e, 0x00
	movq	-144(%rbp), %rdi        # 8-byte Reload
.Ltmp279:
	#DEBUG_VALUE: spatial_cell <- $rdi
	.loc	1 0 1 is_stmt 0         # vlasovsolver/cpu_acc_semilag.cpp:0:1
	movl	-136(%rbp), %esi        # 4-byte Reload
	.loc	1 120 1                 # vlasovsolver/cpu_acc_semilag.cpp:120:1
	xorl	%edx, %edx
	callq	_Z6map_1dPN12spatial_cell11SpatialCellEjffffjb
.Ltmp280:
.LBB2_75:                               # %L.B0005
	#DEBUG_VALUE: useAccelerator <- [DW_OP_constu 92, DW_OP_minus] [$rbp+0]
	#DEBUG_VALUE: ....inline.__FILL_CHARARRAY <- [DW_OP_LLVM_convert 32 7, DW_OP_LLVM_convert 8 7, DW_OP_stack_value] 0
	#DEBUG_VALUE: cpu_accelerate_cell:order_step <- [DW_OP_constu 252, DW_OP_minus] [$rbp+0]
	#DEBUG_VALUE: cpu_accelerate_cell:useAccelerator <- [DW_OP_constu 92, DW_OP_minus] [$rbp+0]
	.loc	1 121 1 is_stmt 1       # vlasovsolver/cpu_acc_semilag.cpp:121:1
	testb	%r14b, %r14b
	movq	-144(%rbp), %rbx        # 8-byte Reload
	jne	.LBB2_77
.Ltmp281:
# %bb.76:                               # %L.B2390
	#DEBUG_VALUE: useAccelerator <- [DW_OP_constu 92, DW_OP_minus] [$rbp+0]
	#DEBUG_VALUE: ....inline.__FILL_CHARARRAY <- [DW_OP_LLVM_convert 32 7, DW_OP_LLVM_convert 8 7, DW_OP_stack_value] 0
	#DEBUG_VALUE: cpu_accelerate_cell:order_step <- [DW_OP_constu 252, DW_OP_minus] [$rbp+0]
	#DEBUG_VALUE: cpu_accelerate_cell:useAccelerator <- [DW_OP_constu 92, DW_OP_minus] [$rbp+0]
	vmovsd	-184(%rbp), %xmm0       # xmm0 = mem[0],zero
.Ltmp282:
	#DEBUG_VALUE: intersection_y <- $xmm0
	vcvtsd2ss	%xmm0, %xmm0, %xmm0
.Ltmp283:
	vmovsd	-176(%rbp), %xmm1       # xmm1 = mem[0],zero
.Ltmp284:
	#DEBUG_VALUE: intersection_y_di <- $xmm1
	vcvtsd2ss	%xmm1, %xmm1, %xmm1
.Ltmp285:
	vmovsd	-168(%rbp), %xmm2       # xmm2 = mem[0],zero
.Ltmp286:
	#DEBUG_VALUE: intersection_y_dj <- $xmm2
	vcvtsd2ss	%xmm2, %xmm2, %xmm2
.Ltmp287:
	vmovsd	-160(%rbp), %xmm3       # xmm3 = mem[0],zero
.Ltmp288:
	#DEBUG_VALUE: intersection_y_dk <- $xmm3
	vcvtsd2ss	%xmm3, %xmm3, %xmm3
.Ltmp289:
	movsbl	-92(%rbp), %ecx         # 1-byte Folded Reload
	.cfi_escape 0x2e, 0x00
	movq	%rbx, %rdi
	movl	-136(%rbp), %esi        # 4-byte Reload
	movl	$1, %edx
	callq	_Z6map_1dPN12spatial_cell11SpatialCellEjffffjb
.Ltmp290:
.LBB2_77:                               # %L.B0006
	#DEBUG_VALUE: useAccelerator <- [DW_OP_constu 92, DW_OP_minus] [$rbp+0]
	#DEBUG_VALUE: ....inline.__FILL_CHARARRAY <- [DW_OP_LLVM_convert 32 7, DW_OP_LLVM_convert 8 7, DW_OP_stack_value] 0
	#DEBUG_VALUE: cpu_accelerate_cell:order_step <- [DW_OP_constu 252, DW_OP_minus] [$rbp+0]
	#DEBUG_VALUE: cpu_accelerate_cell:useAccelerator <- [DW_OP_constu 92, DW_OP_minus] [$rbp+0]
	.loc	1 122 1                 # vlasovsolver/cpu_acc_semilag.cpp:122:1
	testb	%r15b, %r15b
	jne	.LBB2_79
.Ltmp291:
# %bb.78:                               # %L.B2391
	#DEBUG_VALUE: useAccelerator <- [DW_OP_constu 92, DW_OP_minus] [$rbp+0]
	#DEBUG_VALUE: ....inline.__FILL_CHARARRAY <- [DW_OP_LLVM_convert 32 7, DW_OP_LLVM_convert 8 7, DW_OP_stack_value] 0
	#DEBUG_VALUE: cpu_accelerate_cell:order_step <- [DW_OP_constu 252, DW_OP_minus] [$rbp+0]
	#DEBUG_VALUE: cpu_accelerate_cell:useAccelerator <- [DW_OP_constu 92, DW_OP_minus] [$rbp+0]
	vmovsd	-248(%rbp), %xmm0       # xmm0 = mem[0],zero
.Ltmp292:
	#DEBUG_VALUE: intersection_z <- $xmm0
	vcvtsd2ss	%xmm0, %xmm0, %xmm0
.Ltmp293:
	vmovsd	-240(%rbp), %xmm1       # xmm1 = mem[0],zero
.Ltmp294:
	#DEBUG_VALUE: intersection_z_di <- $xmm1
	vcvtsd2ss	%xmm1, %xmm1, %xmm1
.Ltmp295:
	vmovsd	-232(%rbp), %xmm2       # xmm2 = mem[0],zero
.Ltmp296:
	#DEBUG_VALUE: intersection_z_dj <- $xmm2
	vcvtsd2ss	%xmm2, %xmm2, %xmm2
.Ltmp297:
	vmovsd	-224(%rbp), %xmm3       # xmm3 = mem[0],zero
.Ltmp298:
	#DEBUG_VALUE: intersection_z_dk <- $xmm3
	vcvtsd2ss	%xmm3, %xmm3, %xmm3
.Ltmp299:
	movsbl	-92(%rbp), %ecx         # 1-byte Folded Reload
	.cfi_escape 0x2e, 0x00
	movq	%rbx, %rdi
	movl	-136(%rbp), %esi        # 4-byte Reload
	movl	$2, %edx
	callq	_Z6map_1dPN12spatial_cell11SpatialCellEjffffjb
.Ltmp300:
.LBB2_79:                               # %L.B2395
	#DEBUG_VALUE: useAccelerator <- [DW_OP_constu 92, DW_OP_minus] [$rbp+0]
	#DEBUG_VALUE: ....inline.__FILL_CHARARRAY <- [DW_OP_LLVM_convert 32 7, DW_OP_LLVM_convert 8 7, DW_OP_stack_value] 0
	#DEBUG_VALUE: cpu_accelerate_cell:order_step <- [DW_OP_constu 252, DW_OP_minus] [$rbp+0]
	#DEBUG_VALUE: cpu_accelerate_cell:useAccelerator <- [DW_OP_constu 92, DW_OP_minus] [$rbp+0]
	.loc	1 527 1                 # vlasovsolver/cpu_acc_semilag.cpp:527:1
	movq	%r13, -88(%rbp)
.Ltmp301:
	#DEBUG_VALUE: _M_construct:_T47974328_38852 <- undef
	#DEBUG_VALUE: ....inline.__FILL_CHARARRAY <- [DW_OP_LLVM_convert 32 7, DW_OP_LLVM_convert 8 7, DW_OP_stack_value] 0
	.loc	2 398 1                 # /usr/include/c++/9/bits/basic_string.tcc:398:1
	movabsq	$7453010364987436333, %rax # imm = 0x676E697070616D2D
.Ltmp302:
	#DEBUG_VALUE: __dnew <- 15
	#DEBUG_VALUE:  <- [DW_OP_constu 88, DW_OP_minus, DW_OP_stack_value] $rbp
	#DEBUG_VALUE: _M_construct: <- [DW_OP_constu 88, DW_OP_minus, DW_OP_stack_value] $rbp
	movq	%rax, 7(%r13)
	movq	%r12, (%r13)
.Ltmp303:
	#DEBUG_VALUE: __beg <- undef
	#DEBUG_VALUE: _M_construct:__beg <- undef
	.loc	2 216 1                 # /usr/include/c++/9/bits/basic_string.tcc:216:1
	movq	$15, -80(%rbp)
	.loc	2 217 1                 # /usr/include/c++/9/bits/basic_string.tcc:217:1
	movb	$0, -57(%rbp)
	leaq	-112(%rbp), %rbx
.Ltmp304:
	.loc	1 527 1                 # vlasovsolver/cpu_acc_semilag.cpp:527:1
	movq	%rbx, -128(%rbp)
.Ltmp305:
	#DEBUG_VALUE: __dnew <- 0
	#DEBUG_VALUE: _M_construct:_T47974328_38852 <- undef
	#DEBUG_VALUE:  <- [DW_OP_constu 128, DW_OP_minus, DW_OP_stack_value] $rbp
	#DEBUG_VALUE: _M_construct: <- [DW_OP_constu 128, DW_OP_minus, DW_OP_stack_value] $rbp
	.loc	2 216 1                 # /usr/include/c++/9/bits/basic_string.tcc:216:1
	movq	$0, -120(%rbp)
	.loc	2 217 1                 # /usr/include/c++/9/bits/basic_string.tcc:217:1
	movb	$0, -112(%rbp)
.Ltmp71:
	.cfi_escape 0x2e, 0x00
	leaq	-88(%rbp), %rdi
	vmovsd	.LCPI2_1(%rip), %xmm0   # xmm0 = mem[0],zero
	leaq	-128(%rbp), %rsi
.Ltmp306:
	.loc	1 123 1                 # vlasovsolver/cpu_acc_semilag.cpp:123:1
	callq	_ZN7phiprof4stopERKNSt7__cxx1112basic_stringIcSt11char_traitsIcESaIcEEEdS7_
.Ltmp72:
.Ltmp307:
# %bb.80:                               # %L.B2396
	#DEBUG_VALUE: useAccelerator <- [DW_OP_constu 92, DW_OP_minus] [$rbp+0]
	#DEBUG_VALUE: ....inline.__FILL_CHARARRAY <- [DW_OP_LLVM_convert 32 7, DW_OP_LLVM_convert 8 7, DW_OP_stack_value] 0
	#DEBUG_VALUE: cpu_accelerate_cell:order_step <- [DW_OP_constu 252, DW_OP_minus] [$rbp+0]
	#DEBUG_VALUE: cpu_accelerate_cell:useAccelerator <- [DW_OP_constu 92, DW_OP_minus] [$rbp+0]
	.loc	1 658 1                 # vlasovsolver/cpu_acc_semilag.cpp:658:1
	movq	-128(%rbp), %rdi
	cmpq	%rbx, %rdi
	je	.LBB2_82
.Ltmp308:
# %bb.81:                               # %L.B2397
	#DEBUG_VALUE: useAccelerator <- [DW_OP_constu 92, DW_OP_minus] [$rbp+0]
	#DEBUG_VALUE: ....inline.__FILL_CHARARRAY <- [DW_OP_LLVM_convert 32 7, DW_OP_LLVM_convert 8 7, DW_OP_stack_value] 0
	#DEBUG_VALUE: cpu_accelerate_cell:order_step <- [DW_OP_constu 252, DW_OP_minus] [$rbp+0]
	#DEBUG_VALUE: cpu_accelerate_cell:useAccelerator <- [DW_OP_constu 92, DW_OP_minus] [$rbp+0]
	.cfi_escape 0x2e, 0x00
	callq	_ZdlPv
.Ltmp309:
.LBB2_82:                               # %L..inline.76169
	#DEBUG_VALUE: useAccelerator <- [DW_OP_constu 92, DW_OP_minus] [$rbp+0]
	#DEBUG_VALUE: ....inline.__FILL_CHARARRAY <- [DW_OP_LLVM_convert 32 7, DW_OP_LLVM_convert 8 7, DW_OP_stack_value] 0
	#DEBUG_VALUE: cpu_accelerate_cell:order_step <- [DW_OP_constu 252, DW_OP_minus] [$rbp+0]
	#DEBUG_VALUE: cpu_accelerate_cell:useAccelerator <- [DW_OP_constu 92, DW_OP_minus] [$rbp+0]
	movq	-88(%rbp), %rdi
	cmpq	%r13, %rdi
	je	.LBB2_106
.Ltmp310:
# %bb.83:                               # %L.B2398
	#DEBUG_VALUE: useAccelerator <- [DW_OP_constu 92, DW_OP_minus] [$rbp+0]
	#DEBUG_VALUE: ....inline.__FILL_CHARARRAY <- [DW_OP_LLVM_convert 32 7, DW_OP_LLVM_convert 8 7, DW_OP_stack_value] 0
	#DEBUG_VALUE: cpu_accelerate_cell:order_step <- [DW_OP_constu 252, DW_OP_minus] [$rbp+0]
	#DEBUG_VALUE: cpu_accelerate_cell:useAccelerator <- [DW_OP_constu 92, DW_OP_minus] [$rbp+0]
	.cfi_escape 0x2e, 0x00
	.loc	1 0 1 is_stmt 0         # vlasovsolver/cpu_acc_semilag.cpp:0:1
	jmp	.LBB2_105
.Ltmp311:
.LBB2_84:                               # %L.B2405
	#DEBUG_VALUE: vmesh <- $r13
	#DEBUG_VALUE: refLevel <- 0
	#DEBUG_VALUE: useAccelerator <- [DW_OP_constu 92, DW_OP_minus] [$rbp+0]
	#DEBUG_VALUE: spatial_cell <- [DW_OP_constu 144, DW_OP_minus] [$rbp+0]
	#DEBUG_VALUE: ....inline.__FILL_CHARARRAY <- [DW_OP_LLVM_convert 32 7, DW_OP_LLVM_convert 8 7, DW_OP_stack_value] 0
	#DEBUG_VALUE: cpu_accelerate_cell:order_step <- [DW_OP_constu 252, DW_OP_minus] [$rbp+0]
	#DEBUG_VALUE: cpu_accelerate_cell:useAccelerator <- [DW_OP_constu 92, DW_OP_minus] [$rbp+0]
	#DEBUG_VALUE: refLevel <- [DW_OP_constu 41, DW_OP_minus, DW_OP_deref] $rbp
	#DEBUG_VALUE: intersection_x <- [DW_OP_constu 216, DW_OP_minus, DW_OP_deref] $rbp
	#DEBUG_VALUE: intersection_x_di <- [DW_OP_constu 208, DW_OP_minus, DW_OP_deref] $rbp
	#DEBUG_VALUE: intersection_x_dj <- [DW_OP_constu 200, DW_OP_minus, DW_OP_deref] $rbp
	#DEBUG_VALUE: intersection_x_dk <- [DW_OP_constu 192, DW_OP_minus, DW_OP_deref] $rbp
	movb	$1, %al
	movl	%eax, -148(%rbp)        # 4-byte Spill
	.cfi_escape 0x2e, 0x20
.Ltmp312:
	.loc	1 133 1 is_stmt 1       # vlasovsolver/cpu_acc_semilag.cpp:133:1
	subq	$8, %rsp
	leaq	-192(%rbp), %rax
	leaq	-200(%rbp), %r10
	leaq	-208(%rbp), %r11
	leaq	-416(%rbp), %rsi
	leaq	-576(%rbp), %rdx
	xorl	%r14d, %r14d
	leaq	-41(%rbp), %r8
	leaq	-216(%rbp), %r9
	movq	%r13, %rdi
	movl	$0, %ecx
	pushq	%rax
	pushq	%r10
	pushq	%r11
	callq	_Z25compute_intersections_3rdRKN5vmesh12VelocityMeshIjjEERKN5Eigen9TransformIdLi3ELi2ELi0EEES8_jRKhRdSB_SB_SB_
	addq	$32, %rsp
	jmp	.LBB2_87
.Ltmp313:
.LBB2_85:
	#DEBUG_VALUE: vmesh <- $r13
	#DEBUG_VALUE: refLevel <- 0
	#DEBUG_VALUE: useAccelerator <- [DW_OP_constu 92, DW_OP_minus] [$rbp+0]
	#DEBUG_VALUE: spatial_cell <- [DW_OP_constu 144, DW_OP_minus] [$rbp+0]
	#DEBUG_VALUE: ....inline.__FILL_CHARARRAY <- [DW_OP_LLVM_convert 32 7, DW_OP_LLVM_convert 8 7, DW_OP_stack_value] 0
	#DEBUG_VALUE: cpu_accelerate_cell:order_step <- [DW_OP_constu 252, DW_OP_minus] [$rbp+0]
	#DEBUG_VALUE: cpu_accelerate_cell:useAccelerator <- [DW_OP_constu 92, DW_OP_minus] [$rbp+0]
	.loc	1 0 1 is_stmt 0         # vlasovsolver/cpu_acc_semilag.cpp:0:1
	movb	$1, %al
	movl	%eax, -148(%rbp)        # 4-byte Spill
.Ltmp314:
.LBB2_86:                               # %L.B0011
	#DEBUG_VALUE: vmesh <- $r13
	#DEBUG_VALUE: useAccelerator <- [DW_OP_constu 92, DW_OP_minus] [$rbp+0]
	#DEBUG_VALUE: spatial_cell <- [DW_OP_constu 144, DW_OP_minus] [$rbp+0]
	#DEBUG_VALUE: ....inline.__FILL_CHARARRAY <- [DW_OP_LLVM_convert 32 7, DW_OP_LLVM_convert 8 7, DW_OP_stack_value] 0
	#DEBUG_VALUE: cpu_accelerate_cell:order_step <- [DW_OP_constu 252, DW_OP_minus] [$rbp+0]
	#DEBUG_VALUE: cpu_accelerate_cell:useAccelerator <- [DW_OP_constu 92, DW_OP_minus] [$rbp+0]
	movb	$1, %r14b
.Ltmp315:
.LBB2_87:                               # %L.B0011
	#DEBUG_VALUE: vmesh <- $r13
	#DEBUG_VALUE: useAccelerator <- [DW_OP_constu 92, DW_OP_minus] [$rbp+0]
	#DEBUG_VALUE: spatial_cell <- [DW_OP_constu 144, DW_OP_minus] [$rbp+0]
	#DEBUG_VALUE: ....inline.__FILL_CHARARRAY <- [DW_OP_LLVM_convert 32 7, DW_OP_LLVM_convert 8 7, DW_OP_stack_value] 0
	#DEBUG_VALUE: cpu_accelerate_cell:order_step <- [DW_OP_constu 252, DW_OP_minus] [$rbp+0]
	#DEBUG_VALUE: cpu_accelerate_cell:useAccelerator <- [DW_OP_constu 92, DW_OP_minus] [$rbp+0]
	.loc	1 527 1 is_stmt 1       # vlasovsolver/cpu_acc_semilag.cpp:527:1
	movq	%r15, -88(%rbp)
.Ltmp316:
	#DEBUG_VALUE: __dnew <- 21
	#DEBUG_VALUE: _M_construct:_T47974328_38852 <- undef
	#DEBUG_VALUE:  <- [DW_OP_constu 88, DW_OP_minus, DW_OP_stack_value] $rbp
	#DEBUG_VALUE: _M_construct: <- [DW_OP_constu 88, DW_OP_minus, DW_OP_stack_value] $rbp
	#DEBUG_VALUE: ....inline.__FILL_CHARARRAY <- [DW_OP_LLVM_convert 32 7, DW_OP_LLVM_convert 8 7, DW_OP_stack_value] 0
	.loc	2 143 1                 # /usr/include/c++/9/bits/basic_string.tcc:143:1
	movq	$21, -56(%rbp)
.Ltmp317:
	#DEBUG_VALUE: __dnew <- [DW_OP_constu 56, DW_OP_minus, DW_OP_deref] $rbp
.Ltmp44:
	.cfi_escape 0x2e, 0x00
	.loc	2 0 1 is_stmt 0         # /usr/include/c++/9/bits/basic_string.tcc:0:1
	leaq	-88(%rbp), %rdi
	leaq	-56(%rbp), %rsi
	.loc	2 219 1 is_stmt 1       # /usr/include/c++/9/bits/basic_string.tcc:219:1
	xorl	%edx, %edx
	callq	_ZNSt7__cxx1112basic_stringIcSt11char_traitsIcESaIcEE9_M_createERmm
.Ltmp45:
.Ltmp318:
	#DEBUG_VALUE: __beg <- undef
	#DEBUG_VALUE: _M_construct:__beg <- undef
# %bb.88:                               # %L.B2409
	#DEBUG_VALUE: __dnew <- [DW_OP_constu 56, DW_OP_minus, DW_OP_deref] $rbp
	#DEBUG_VALUE: _M_construct: <- [DW_OP_constu 88, DW_OP_minus, DW_OP_stack_value] $rbp
	#DEBUG_VALUE:  <- [DW_OP_constu 88, DW_OP_minus, DW_OP_stack_value] $rbp
	#DEBUG_VALUE: vmesh <- $r13
	#DEBUG_VALUE: useAccelerator <- [DW_OP_constu 92, DW_OP_minus] [$rbp+0]
	#DEBUG_VALUE: spatial_cell <- [DW_OP_constu 144, DW_OP_minus] [$rbp+0]
	#DEBUG_VALUE: ....inline.__FILL_CHARARRAY <- [DW_OP_LLVM_convert 32 7, DW_OP_LLVM_convert 8 7, DW_OP_stack_value] 0
	#DEBUG_VALUE: cpu_accelerate_cell:order_step <- [DW_OP_constu 252, DW_OP_minus] [$rbp+0]
	#DEBUG_VALUE: cpu_accelerate_cell:useAccelerator <- [DW_OP_constu 92, DW_OP_minus] [$rbp+0]
	movq	%rax, -88(%rbp)
	.loc	2 220 1                 # /usr/include/c++/9/bits/basic_string.tcc:220:1
	movq	-56(%rbp), %rcx
.Ltmp319:
	#DEBUG_VALUE: __dnew <- $rcx
	movq	%rcx, -72(%rbp)
	.loc	2 398 1                 # /usr/include/c++/9/bits/basic_string.tcc:398:1
	vmovups	.S40801(%rip), %xmm0
	vmovups	%xmm0, (%rax)
	movq	%r12, 13(%rax)
	.loc	2 216 1                 # /usr/include/c++/9/bits/basic_string.tcc:216:1
	movq	%rcx, -80(%rbp)
	.loc	2 217 1                 # /usr/include/c++/9/bits/basic_string.tcc:217:1
	movq	-88(%rbp), %rax
	movb	$0, (%rax,%rcx)
.Ltmp320:
	.loc	1 527 1                 # vlasovsolver/cpu_acc_semilag.cpp:527:1
	leaq	-112(%rbp), %r13
.Ltmp321:
	movq	%r13, -128(%rbp)
.Ltmp322:
	#DEBUG_VALUE: __dnew <- 0
	#DEBUG_VALUE: _M_construct:_T47974328_38852 <- undef
	#DEBUG_VALUE:  <- [DW_OP_constu 128, DW_OP_minus, DW_OP_stack_value] $rbp
	#DEBUG_VALUE: _M_construct: <- [DW_OP_constu 128, DW_OP_minus, DW_OP_stack_value] $rbp
	#DEBUG_VALUE: ....inline.__FILL_CHARARRAY <- [DW_OP_LLVM_convert 32 7, DW_OP_LLVM_convert 8 7, DW_OP_stack_value] 0
	.loc	2 216 1                 # /usr/include/c++/9/bits/basic_string.tcc:216:1
	movq	$0, -120(%rbp)
	.loc	2 217 1                 # /usr/include/c++/9/bits/basic_string.tcc:217:1
	movb	$0, -112(%rbp)
.Ltmp47:
	.cfi_escape 0x2e, 0x00
	leaq	-88(%rbp), %rdi
	vmovsd	.LCPI2_1(%rip), %xmm0   # xmm0 = mem[0],zero
	leaq	-128(%rbp), %rsi
.Ltmp323:
	.loc	1 135 1                 # vlasovsolver/cpu_acc_semilag.cpp:135:1
	callq	_ZN7phiprof4stopERKNSt7__cxx1112basic_stringIcSt11char_traitsIcESaIcEEEdS7_
.Ltmp324:
.Ltmp48:
# %bb.89:                               # %L.B2410
	#DEBUG_VALUE: useAccelerator <- [DW_OP_constu 92, DW_OP_minus] [$rbp+0]
	#DEBUG_VALUE: spatial_cell <- [DW_OP_constu 144, DW_OP_minus] [$rbp+0]
	#DEBUG_VALUE: ....inline.__FILL_CHARARRAY <- [DW_OP_LLVM_convert 32 7, DW_OP_LLVM_convert 8 7, DW_OP_stack_value] 0
	#DEBUG_VALUE: cpu_accelerate_cell:order_step <- [DW_OP_constu 252, DW_OP_minus] [$rbp+0]
	#DEBUG_VALUE: cpu_accelerate_cell:useAccelerator <- [DW_OP_constu 92, DW_OP_minus] [$rbp+0]
	.loc	1 658 1                 # vlasovsolver/cpu_acc_semilag.cpp:658:1
	movq	-128(%rbp), %rdi
	cmpq	%r13, %rdi
	je	.LBB2_91
.Ltmp325:
# %bb.90:                               # %L.B2411
	#DEBUG_VALUE: useAccelerator <- [DW_OP_constu 92, DW_OP_minus] [$rbp+0]
	#DEBUG_VALUE: spatial_cell <- [DW_OP_constu 144, DW_OP_minus] [$rbp+0]
	#DEBUG_VALUE: ....inline.__FILL_CHARARRAY <- [DW_OP_LLVM_convert 32 7, DW_OP_LLVM_convert 8 7, DW_OP_stack_value] 0
	#DEBUG_VALUE: cpu_accelerate_cell:order_step <- [DW_OP_constu 252, DW_OP_minus] [$rbp+0]
	#DEBUG_VALUE: cpu_accelerate_cell:useAccelerator <- [DW_OP_constu 92, DW_OP_minus] [$rbp+0]
	.cfi_escape 0x2e, 0x00
	callq	_ZdlPv
.Ltmp326:
.LBB2_91:                               # %L..inline.76649
	#DEBUG_VALUE: useAccelerator <- [DW_OP_constu 92, DW_OP_minus] [$rbp+0]
	#DEBUG_VALUE: spatial_cell <- [DW_OP_constu 144, DW_OP_minus] [$rbp+0]
	#DEBUG_VALUE: ....inline.__FILL_CHARARRAY <- [DW_OP_LLVM_convert 32 7, DW_OP_LLVM_convert 8 7, DW_OP_stack_value] 0
	#DEBUG_VALUE: cpu_accelerate_cell:order_step <- [DW_OP_constu 252, DW_OP_minus] [$rbp+0]
	#DEBUG_VALUE: cpu_accelerate_cell:useAccelerator <- [DW_OP_constu 92, DW_OP_minus] [$rbp+0]
	movq	-88(%rbp), %rdi
	cmpq	%r15, %rdi
	je	.LBB2_93
.Ltmp327:
# %bb.92:                               # %L.B2412
	#DEBUG_VALUE: useAccelerator <- [DW_OP_constu 92, DW_OP_minus] [$rbp+0]
	#DEBUG_VALUE: spatial_cell <- [DW_OP_constu 144, DW_OP_minus] [$rbp+0]
	#DEBUG_VALUE: ....inline.__FILL_CHARARRAY <- [DW_OP_LLVM_convert 32 7, DW_OP_LLVM_convert 8 7, DW_OP_stack_value] 0
	#DEBUG_VALUE: cpu_accelerate_cell:order_step <- [DW_OP_constu 252, DW_OP_minus] [$rbp+0]
	#DEBUG_VALUE: cpu_accelerate_cell:useAccelerator <- [DW_OP_constu 92, DW_OP_minus] [$rbp+0]
	.cfi_escape 0x2e, 0x00
	callq	_ZdlPv
.Ltmp328:
.LBB2_93:                               # %L..inline.76736
	#DEBUG_VALUE: useAccelerator <- [DW_OP_constu 92, DW_OP_minus] [$rbp+0]
	#DEBUG_VALUE: spatial_cell <- [DW_OP_constu 144, DW_OP_minus] [$rbp+0]
	#DEBUG_VALUE: ....inline.__FILL_CHARARRAY <- [DW_OP_LLVM_convert 32 7, DW_OP_LLVM_convert 8 7, DW_OP_stack_value] 0
	#DEBUG_VALUE: cpu_accelerate_cell:order_step <- [DW_OP_constu 252, DW_OP_minus] [$rbp+0]
	#DEBUG_VALUE: cpu_accelerate_cell:useAccelerator <- [DW_OP_constu 92, DW_OP_minus] [$rbp+0]
	#DEBUG_VALUE: basic_string: <- [DW_OP_constu 88, DW_OP_minus, DW_OP_stack_value] $rbp
	#DEBUG_VALUE:  <- [DW_OP_constu 88, DW_OP_minus, DW_OP_stack_value] $rbp
	.loc	8 527 1                 # /usr/include/c++/9/bits/basic_string.h:527:1
	movq	%r15, -88(%rbp)
	movabsq	$7453010364987436333, %r12 # imm = 0x676E697070616D2D
.Ltmp329:
	#DEBUG_VALUE: __dnew <- 15
	#DEBUG_VALUE: _M_construct:_T47974328_38852 <- undef
	#DEBUG_VALUE:  <- [DW_OP_constu 88, DW_OP_minus, DW_OP_stack_value] $rbp
	#DEBUG_VALUE: _M_construct: <- [DW_OP_constu 88, DW_OP_minus, DW_OP_stack_value] $rbp
	#DEBUG_VALUE: ....inline.__FILL_CHARARRAY <- [DW_OP_LLVM_convert 32 7, DW_OP_LLVM_convert 8 7, DW_OP_stack_value] 0
	.loc	2 398 1                 # /usr/include/c++/9/bits/basic_string.tcc:398:1
	movq	%r12, 7(%r15)
	movabsq	$3271148752100749155, %rax # imm = 0x2D657475706D6F63
	movq	%rax, (%r15)
.Ltmp330:
	#DEBUG_VALUE: __beg <- undef
	#DEBUG_VALUE: _M_construct:__beg <- undef
	#DEBUG_VALUE: __s <- undef
	#DEBUG_VALUE: basic_string:__s <- undef
	.loc	2 216 1                 # /usr/include/c++/9/bits/basic_string.tcc:216:1
	movq	$15, -80(%rbp)
	.loc	2 217 1                 # /usr/include/c++/9/bits/basic_string.tcc:217:1
	movb	$0, -57(%rbp)
.Ltmp50:
	.cfi_escape 0x2e, 0x00
	leaq	-88(%rbp), %rdi
.Ltmp331:
	.loc	1 136 1                 # vlasovsolver/cpu_acc_semilag.cpp:136:1
	callq	_ZN7phiprof5startERKNSt7__cxx1112basic_stringIcSt11char_traitsIcESaIcEEE
.Ltmp51:
.Ltmp332:
	#DEBUG_VALUE: __end <- undef
	#DEBUG_VALUE: _M_construct:__end <- undef
# %bb.94:                               # %L.B2414
	#DEBUG_VALUE: useAccelerator <- [DW_OP_constu 92, DW_OP_minus] [$rbp+0]
	#DEBUG_VALUE: spatial_cell <- [DW_OP_constu 144, DW_OP_minus] [$rbp+0]
	#DEBUG_VALUE: ....inline.__FILL_CHARARRAY <- [DW_OP_LLVM_convert 32 7, DW_OP_LLVM_convert 8 7, DW_OP_stack_value] 0
	#DEBUG_VALUE: cpu_accelerate_cell:order_step <- [DW_OP_constu 252, DW_OP_minus] [$rbp+0]
	#DEBUG_VALUE: cpu_accelerate_cell:useAccelerator <- [DW_OP_constu 92, DW_OP_minus] [$rbp+0]
	#DEBUG_VALUE: ~basic_string: <- [DW_OP_constu 88, DW_OP_minus, DW_OP_stack_value] $rbp
	#DEBUG_VALUE:  <- [DW_OP_constu 88, DW_OP_minus, DW_OP_stack_value] $rbp
	.loc	8 231 1                 # /usr/include/c++/9/bits/basic_string.h:231:1
	movq	-88(%rbp), %rdi
	cmpq	%r15, %rdi
	je	.LBB2_96
.Ltmp333:
# %bb.95:                               # %L.B2639.i202
	#DEBUG_VALUE:  <- [DW_OP_constu 88, DW_OP_minus, DW_OP_stack_value] $rbp
	#DEBUG_VALUE: ~basic_string: <- [DW_OP_constu 88, DW_OP_minus, DW_OP_stack_value] $rbp
	#DEBUG_VALUE: useAccelerator <- [DW_OP_constu 92, DW_OP_minus] [$rbp+0]
	#DEBUG_VALUE: spatial_cell <- [DW_OP_constu 144, DW_OP_minus] [$rbp+0]
	#DEBUG_VALUE: ....inline.__FILL_CHARARRAY <- [DW_OP_LLVM_convert 32 7, DW_OP_LLVM_convert 8 7, DW_OP_stack_value] 0
	#DEBUG_VALUE: cpu_accelerate_cell:order_step <- [DW_OP_constu 252, DW_OP_minus] [$rbp+0]
	#DEBUG_VALUE: cpu_accelerate_cell:useAccelerator <- [DW_OP_constu 92, DW_OP_minus] [$rbp+0]
	.cfi_escape 0x2e, 0x00
	.loc	8 232 1                 # /usr/include/c++/9/bits/basic_string.h:232:1
	callq	_ZdlPv
.Ltmp334:
.LBB2_96:                               # %_ZNSt7__cxx1112basic_stringIcSt11char_traitsIcESaIcEED1Ev.exit203
	#DEBUG_VALUE: useAccelerator <- [DW_OP_constu 92, DW_OP_minus] [$rbp+0]
	#DEBUG_VALUE: spatial_cell <- [DW_OP_constu 144, DW_OP_minus] [$rbp+0]
	#DEBUG_VALUE: ....inline.__FILL_CHARARRAY <- [DW_OP_LLVM_convert 32 7, DW_OP_LLVM_convert 8 7, DW_OP_stack_value] 0
	#DEBUG_VALUE: cpu_accelerate_cell:order_step <- [DW_OP_constu 252, DW_OP_minus] [$rbp+0]
	#DEBUG_VALUE: cpu_accelerate_cell:useAccelerator <- [DW_OP_constu 92, DW_OP_minus] [$rbp+0]
	.loc	1 129 1                 # vlasovsolver/cpu_acc_semilag.cpp:129:1
	testl	%ebx, %ebx
	.loc	1 137 1                 # vlasovsolver/cpu_acc_semilag.cpp:137:1
	je	.LBB2_107
.Ltmp335:
# %bb.97:                               # %L.B0012
	#DEBUG_VALUE: useAccelerator <- [DW_OP_constu 92, DW_OP_minus] [$rbp+0]
	#DEBUG_VALUE: spatial_cell <- [DW_OP_constu 144, DW_OP_minus] [$rbp+0]
	#DEBUG_VALUE: ....inline.__FILL_CHARARRAY <- [DW_OP_LLVM_convert 32 7, DW_OP_LLVM_convert 8 7, DW_OP_stack_value] 0
	#DEBUG_VALUE: cpu_accelerate_cell:order_step <- [DW_OP_constu 252, DW_OP_minus] [$rbp+0]
	#DEBUG_VALUE: cpu_accelerate_cell:useAccelerator <- [DW_OP_constu 92, DW_OP_minus] [$rbp+0]
	.loc	1 138 1                 # vlasovsolver/cpu_acc_semilag.cpp:138:1
	cmpb	$0, -148(%rbp)          # 1-byte Folded Reload
	je	.LBB2_108
.Ltmp336:
.LBB2_98:                               # %L.B0013
	#DEBUG_VALUE: useAccelerator <- [DW_OP_constu 92, DW_OP_minus] [$rbp+0]
	#DEBUG_VALUE: ....inline.__FILL_CHARARRAY <- [DW_OP_LLVM_convert 32 7, DW_OP_LLVM_convert 8 7, DW_OP_stack_value] 0
	#DEBUG_VALUE: cpu_accelerate_cell:order_step <- [DW_OP_constu 252, DW_OP_minus] [$rbp+0]
	#DEBUG_VALUE: cpu_accelerate_cell:useAccelerator <- [DW_OP_constu 92, DW_OP_minus] [$rbp+0]
	.loc	1 139 1                 # vlasovsolver/cpu_acc_semilag.cpp:139:1
	testb	%r14b, %r14b
	jne	.LBB2_100
.Ltmp337:
.LBB2_99:                               # %L.B2417
	#DEBUG_VALUE: useAccelerator <- [DW_OP_constu 92, DW_OP_minus] [$rbp+0]
	#DEBUG_VALUE: ....inline.__FILL_CHARARRAY <- [DW_OP_LLVM_convert 32 7, DW_OP_LLVM_convert 8 7, DW_OP_stack_value] 0
	#DEBUG_VALUE: cpu_accelerate_cell:order_step <- [DW_OP_constu 252, DW_OP_minus] [$rbp+0]
	#DEBUG_VALUE: cpu_accelerate_cell:useAccelerator <- [DW_OP_constu 92, DW_OP_minus] [$rbp+0]
	vmovsd	-216(%rbp), %xmm0       # xmm0 = mem[0],zero
.Ltmp338:
	#DEBUG_VALUE: intersection_x <- $xmm0
	vcvtsd2ss	%xmm0, %xmm0, %xmm0
.Ltmp339:
	vmovsd	-208(%rbp), %xmm1       # xmm1 = mem[0],zero
.Ltmp340:
	#DEBUG_VALUE: intersection_x_di <- $xmm1
	vcvtsd2ss	%xmm1, %xmm1, %xmm1
.Ltmp341:
	vmovsd	-200(%rbp), %xmm2       # xmm2 = mem[0],zero
.Ltmp342:
	#DEBUG_VALUE: intersection_x_dj <- $xmm2
	vcvtsd2ss	%xmm2, %xmm2, %xmm2
.Ltmp343:
	vmovsd	-192(%rbp), %xmm3       # xmm3 = mem[0],zero
.Ltmp344:
	#DEBUG_VALUE: intersection_x_dk <- $xmm3
	vcvtsd2ss	%xmm3, %xmm3, %xmm3
.Ltmp345:
	movsbl	-92(%rbp), %ecx         # 1-byte Folded Reload
	.cfi_escape 0x2e, 0x00
	movq	-144(%rbp), %rdi        # 8-byte Reload
	movl	-136(%rbp), %esi        # 4-byte Reload
	xorl	%edx, %edx
	callq	_Z6map_1dPN12spatial_cell11SpatialCellEjffffjb
.Ltmp346:
.LBB2_100:                              # %L.B0014
	#DEBUG_VALUE: useAccelerator <- [DW_OP_constu 92, DW_OP_minus] [$rbp+0]
	#DEBUG_VALUE: ....inline.__FILL_CHARARRAY <- [DW_OP_LLVM_convert 32 7, DW_OP_LLVM_convert 8 7, DW_OP_stack_value] 0
	#DEBUG_VALUE: cpu_accelerate_cell:order_step <- [DW_OP_constu 252, DW_OP_minus] [$rbp+0]
	#DEBUG_VALUE: cpu_accelerate_cell:useAccelerator <- [DW_OP_constu 92, DW_OP_minus] [$rbp+0]
	#DEBUG_VALUE: basic_string: <- [DW_OP_constu 88, DW_OP_minus, DW_OP_stack_value] $rbp
	#DEBUG_VALUE:  <- [DW_OP_constu 88, DW_OP_minus, DW_OP_stack_value] $rbp
	.loc	8 527 1                 # /usr/include/c++/9/bits/basic_string.h:527:1
	movq	%r15, -88(%rbp)
.Ltmp347:
	#DEBUG_VALUE: __dnew <- 15
	#DEBUG_VALUE: _M_construct:_T47974328_38852 <- undef
	#DEBUG_VALUE:  <- [DW_OP_constu 88, DW_OP_minus, DW_OP_stack_value] $rbp
	#DEBUG_VALUE: _M_construct: <- [DW_OP_constu 88, DW_OP_minus, DW_OP_stack_value] $rbp
	#DEBUG_VALUE: ....inline.__FILL_CHARARRAY <- [DW_OP_LLVM_convert 32 7, DW_OP_LLVM_convert 8 7, DW_OP_stack_value] 0
	.loc	2 398 1                 # /usr/include/c++/9/bits/basic_string.tcc:398:1
	movq	%r12, 7(%r15)
	movabsq	$3271148752100749155, %rax # imm = 0x2D657475706D6F63
	movq	%rax, (%r15)
.Ltmp348:
	#DEBUG_VALUE: __beg <- undef
	#DEBUG_VALUE: _M_construct:__beg <- undef
	#DEBUG_VALUE: __s <- undef
	#DEBUG_VALUE: basic_string:__s <- undef
	.loc	2 216 1                 # /usr/include/c++/9/bits/basic_string.tcc:216:1
	movq	$15, -80(%rbp)
	.loc	2 217 1                 # /usr/include/c++/9/bits/basic_string.tcc:217:1
	movb	$0, -57(%rbp)
.Ltmp349:
	#DEBUG_VALUE:  <- [DW_OP_constu 128, DW_OP_minus, DW_OP_stack_value] $rbp
	#DEBUG_VALUE: basic_string: <- [DW_OP_constu 128, DW_OP_minus, DW_OP_stack_value] $rbp
	.loc	8 527 1                 # /usr/include/c++/9/bits/basic_string.h:527:1
	movq	%r13, -128(%rbp)
.Ltmp350:
	#DEBUG_VALUE: __dnew <- 0
	#DEBUG_VALUE: _M_construct:_T47974328_38852 <- undef
	#DEBUG_VALUE: __end <- undef
	#DEBUG_VALUE: _M_construct:__end <- undef
	#DEBUG_VALUE:  <- [DW_OP_constu 128, DW_OP_minus, DW_OP_stack_value] $rbp
	#DEBUG_VALUE: _M_construct: <- [DW_OP_constu 128, DW_OP_minus, DW_OP_stack_value] $rbp
	#DEBUG_VALUE: ....inline.__FILL_CHARARRAY <- [DW_OP_LLVM_convert 32 7, DW_OP_LLVM_convert 8 7, DW_OP_stack_value] 0
	.loc	2 216 1                 # /usr/include/c++/9/bits/basic_string.tcc:216:1
	movq	$0, -120(%rbp)
	.loc	2 217 1                 # /usr/include/c++/9/bits/basic_string.tcc:217:1
	movb	$0, -112(%rbp)
.Ltmp53:
	.cfi_escape 0x2e, 0x00
	leaq	-88(%rbp), %rdi
	vmovsd	.LCPI2_1(%rip), %xmm0   # xmm0 = mem[0],zero
	leaq	-128(%rbp), %rsi
.Ltmp351:
	.loc	1 140 1                 # vlasovsolver/cpu_acc_semilag.cpp:140:1
	callq	_ZN7phiprof4stopERKNSt7__cxx1112basic_stringIcSt11char_traitsIcESaIcEEEdS7_
.Ltmp54:
.Ltmp352:
	#DEBUG_VALUE: __end <- undef
	#DEBUG_VALUE: _M_construct:__end <- undef
# %bb.101:                              # %L.B2420
	#DEBUG_VALUE: useAccelerator <- [DW_OP_constu 92, DW_OP_minus] [$rbp+0]
	#DEBUG_VALUE: ....inline.__FILL_CHARARRAY <- [DW_OP_LLVM_convert 32 7, DW_OP_LLVM_convert 8 7, DW_OP_stack_value] 0
	#DEBUG_VALUE: cpu_accelerate_cell:order_step <- [DW_OP_constu 252, DW_OP_minus] [$rbp+0]
	#DEBUG_VALUE: cpu_accelerate_cell:useAccelerator <- [DW_OP_constu 92, DW_OP_minus] [$rbp+0]
	#DEBUG_VALUE: ~basic_string: <- [DW_OP_constu 128, DW_OP_minus, DW_OP_stack_value] $rbp
	#DEBUG_VALUE:  <- [DW_OP_constu 128, DW_OP_minus, DW_OP_stack_value] $rbp
	.loc	8 231 1                 # /usr/include/c++/9/bits/basic_string.h:231:1
	movq	-128(%rbp), %rdi
	cmpq	%r13, %rdi
	je	.LBB2_103
.Ltmp353:
# %bb.102:                              # %L.B2639.i220
	#DEBUG_VALUE:  <- [DW_OP_constu 128, DW_OP_minus, DW_OP_stack_value] $rbp
	#DEBUG_VALUE: ~basic_string: <- [DW_OP_constu 128, DW_OP_minus, DW_OP_stack_value] $rbp
	#DEBUG_VALUE: useAccelerator <- [DW_OP_constu 92, DW_OP_minus] [$rbp+0]
	#DEBUG_VALUE: ....inline.__FILL_CHARARRAY <- [DW_OP_LLVM_convert 32 7, DW_OP_LLVM_convert 8 7, DW_OP_stack_value] 0
	#DEBUG_VALUE: cpu_accelerate_cell:order_step <- [DW_OP_constu 252, DW_OP_minus] [$rbp+0]
	#DEBUG_VALUE: cpu_accelerate_cell:useAccelerator <- [DW_OP_constu 92, DW_OP_minus] [$rbp+0]
	.cfi_escape 0x2e, 0x00
	.loc	8 232 1                 # /usr/include/c++/9/bits/basic_string.h:232:1
	callq	_ZdlPv
.Ltmp354:
.LBB2_103:                              # %_ZNSt7__cxx1112basic_stringIcSt11char_traitsIcESaIcEED1Ev.exit221
	#DEBUG_VALUE: useAccelerator <- [DW_OP_constu 92, DW_OP_minus] [$rbp+0]
	#DEBUG_VALUE: ....inline.__FILL_CHARARRAY <- [DW_OP_LLVM_convert 32 7, DW_OP_LLVM_convert 8 7, DW_OP_stack_value] 0
	#DEBUG_VALUE: cpu_accelerate_cell:order_step <- [DW_OP_constu 252, DW_OP_minus] [$rbp+0]
	#DEBUG_VALUE: cpu_accelerate_cell:useAccelerator <- [DW_OP_constu 92, DW_OP_minus] [$rbp+0]
	#DEBUG_VALUE: ~basic_string: <- [DW_OP_constu 88, DW_OP_minus, DW_OP_stack_value] $rbp
	#DEBUG_VALUE:  <- [DW_OP_constu 88, DW_OP_minus, DW_OP_stack_value] $rbp
	.loc	8 231 1                 # /usr/include/c++/9/bits/basic_string.h:231:1
	movq	-88(%rbp), %rdi
	cmpq	%r15, %rdi
	je	.LBB2_106
.Ltmp355:
# %bb.104:                              # %L.B2639.i222
	#DEBUG_VALUE:  <- [DW_OP_constu 88, DW_OP_minus, DW_OP_stack_value] $rbp
	#DEBUG_VALUE: ~basic_string: <- [DW_OP_constu 88, DW_OP_minus, DW_OP_stack_value] $rbp
	#DEBUG_VALUE: useAccelerator <- [DW_OP_constu 92, DW_OP_minus] [$rbp+0]
	#DEBUG_VALUE: ....inline.__FILL_CHARARRAY <- [DW_OP_LLVM_convert 32 7, DW_OP_LLVM_convert 8 7, DW_OP_stack_value] 0
	#DEBUG_VALUE: cpu_accelerate_cell:order_step <- [DW_OP_constu 252, DW_OP_minus] [$rbp+0]
	#DEBUG_VALUE: cpu_accelerate_cell:useAccelerator <- [DW_OP_constu 92, DW_OP_minus] [$rbp+0]
	.cfi_escape 0x2e, 0x00
.LBB2_105:                              # %L.R0003
	#DEBUG_VALUE: useAccelerator <- [DW_OP_constu 92, DW_OP_minus] [$rbp+0]
	#DEBUG_VALUE: ....inline.__FILL_CHARARRAY <- [DW_OP_LLVM_convert 32 7, DW_OP_LLVM_convert 8 7, DW_OP_stack_value] 0
	#DEBUG_VALUE: cpu_accelerate_cell:order_step <- [DW_OP_constu 252, DW_OP_minus] [$rbp+0]
	#DEBUG_VALUE: cpu_accelerate_cell:useAccelerator <- [DW_OP_constu 92, DW_OP_minus] [$rbp+0]
	.loc	1 0 0 is_stmt 0         # vlasovsolver/cpu_acc_semilag.cpp:0:0
	callq	_ZdlPv
.Ltmp356:
.LBB2_106:                              # %L.R0003
	#DEBUG_VALUE: useAccelerator <- [DW_OP_constu 92, DW_OP_minus] [$rbp+0]
	#DEBUG_VALUE: ....inline.__FILL_CHARARRAY <- [DW_OP_LLVM_convert 32 7, DW_OP_LLVM_convert 8 7, DW_OP_stack_value] 0
	#DEBUG_VALUE: cpu_accelerate_cell:order_step <- [DW_OP_constu 252, DW_OP_minus] [$rbp+0]
	#DEBUG_VALUE: cpu_accelerate_cell:useAccelerator <- [DW_OP_constu 92, DW_OP_minus] [$rbp+0]
	.loc	1 164 1 is_stmt 1       # vlasovsolver/cpu_acc_semilag.cpp:164:1
	addq	$536, %rsp              # imm = 0x218
	popq	%rbx
	popq	%r12
	popq	%r13
	popq	%r14
	popq	%r15
	popq	%rbp
	.cfi_def_cfa %rsp, 8
	retq
.Ltmp357:
.LBB2_107:                              # %L.B2415
	.cfi_def_cfa %rbp, 16
	#DEBUG_VALUE: useAccelerator <- [DW_OP_constu 92, DW_OP_minus] [$rbp+0]
	#DEBUG_VALUE: spatial_cell <- [DW_OP_constu 144, DW_OP_minus] [$rbp+0]
	#DEBUG_VALUE: ....inline.__FILL_CHARARRAY <- [DW_OP_LLVM_convert 32 7, DW_OP_LLVM_convert 8 7, DW_OP_stack_value] 0
	#DEBUG_VALUE: cpu_accelerate_cell:order_step <- [DW_OP_constu 252, DW_OP_minus] [$rbp+0]
	#DEBUG_VALUE: cpu_accelerate_cell:useAccelerator <- [DW_OP_constu 92, DW_OP_minus] [$rbp+0]
	.loc	1 137 1                 # vlasovsolver/cpu_acc_semilag.cpp:137:1
	vmovsd	-184(%rbp), %xmm0       # xmm0 = mem[0],zero
.Ltmp358:
	#DEBUG_VALUE: intersection_y <- $xmm0
	vcvtsd2ss	%xmm0, %xmm0, %xmm0
.Ltmp359:
	vmovsd	-176(%rbp), %xmm1       # xmm1 = mem[0],zero
.Ltmp360:
	#DEBUG_VALUE: intersection_y_di <- $xmm1
	vcvtsd2ss	%xmm1, %xmm1, %xmm1
.Ltmp361:
	vmovsd	-168(%rbp), %xmm2       # xmm2 = mem[0],zero
.Ltmp362:
	#DEBUG_VALUE: intersection_y_dj <- $xmm2
	vcvtsd2ss	%xmm2, %xmm2, %xmm2
.Ltmp363:
	vmovsd	-160(%rbp), %xmm3       # xmm3 = mem[0],zero
.Ltmp364:
	#DEBUG_VALUE: intersection_y_dk <- $xmm3
	vcvtsd2ss	%xmm3, %xmm3, %xmm3
.Ltmp365:
	movsbl	-92(%rbp), %ecx         # 1-byte Folded Reload
	.cfi_escape 0x2e, 0x00
	movq	-144(%rbp), %rdi        # 8-byte Reload
.Ltmp366:
	#DEBUG_VALUE: spatial_cell <- $rdi
	.loc	1 0 1 is_stmt 0         # vlasovsolver/cpu_acc_semilag.cpp:0:1
	movl	-136(%rbp), %esi        # 4-byte Reload
	.loc	1 137 1                 # vlasovsolver/cpu_acc_semilag.cpp:137:1
	movl	$1, %edx
	callq	_Z6map_1dPN12spatial_cell11SpatialCellEjffffjb
.Ltmp367:
	.loc	1 138 1 is_stmt 1       # vlasovsolver/cpu_acc_semilag.cpp:138:1
	cmpb	$0, -148(%rbp)          # 1-byte Folded Reload
	jne	.LBB2_98
.Ltmp368:
.LBB2_108:                              # %L.B2416
	#DEBUG_VALUE: useAccelerator <- [DW_OP_constu 92, DW_OP_minus] [$rbp+0]
	#DEBUG_VALUE: ....inline.__FILL_CHARARRAY <- [DW_OP_LLVM_convert 32 7, DW_OP_LLVM_convert 8 7, DW_OP_stack_value] 0
	#DEBUG_VALUE: cpu_accelerate_cell:order_step <- [DW_OP_constu 252, DW_OP_minus] [$rbp+0]
	#DEBUG_VALUE: cpu_accelerate_cell:useAccelerator <- [DW_OP_constu 92, DW_OP_minus] [$rbp+0]
	vmovsd	-248(%rbp), %xmm0       # xmm0 = mem[0],zero
.Ltmp369:
	#DEBUG_VALUE: intersection_z <- $xmm0
	vcvtsd2ss	%xmm0, %xmm0, %xmm0
.Ltmp370:
	vmovsd	-240(%rbp), %xmm1       # xmm1 = mem[0],zero
.Ltmp371:
	#DEBUG_VALUE: intersection_z_di <- $xmm1
	vcvtsd2ss	%xmm1, %xmm1, %xmm1
.Ltmp372:
	vmovsd	-232(%rbp), %xmm2       # xmm2 = mem[0],zero
.Ltmp373:
	#DEBUG_VALUE: intersection_z_dj <- $xmm2
	vcvtsd2ss	%xmm2, %xmm2, %xmm2
.Ltmp374:
	vmovsd	-224(%rbp), %xmm3       # xmm3 = mem[0],zero
.Ltmp375:
	#DEBUG_VALUE: intersection_z_dk <- $xmm3
	vcvtsd2ss	%xmm3, %xmm3, %xmm3
.Ltmp376:
	movsbl	-92(%rbp), %ecx         # 1-byte Folded Reload
	.cfi_escape 0x2e, 0x00
	movq	-144(%rbp), %rdi        # 8-byte Reload
	movl	-136(%rbp), %esi        # 4-byte Reload
	movl	$2, %edx
	callq	_Z6map_1dPN12spatial_cell11SpatialCellEjffffjb
	.loc	1 139 1                 # vlasovsolver/cpu_acc_semilag.cpp:139:1
	testb	%r14b, %r14b
	je	.LBB2_99
	jmp	.LBB2_100
.Ltmp377:
.LBB2_109:                              # %L_T47808064_38685
	#DEBUG_VALUE: useAccelerator <- [DW_OP_constu 92, DW_OP_minus] [$rbp+0]
	#DEBUG_VALUE: ....inline.__FILL_CHARARRAY <- [DW_OP_LLVM_convert 32 7, DW_OP_LLVM_convert 8 7, DW_OP_stack_value] 0
	#DEBUG_VALUE: cpu_accelerate_cell:order_step <- [DW_OP_constu 252, DW_OP_minus] [$rbp+0]
	#DEBUG_VALUE: cpu_accelerate_cell:useAccelerator <- [DW_OP_constu 92, DW_OP_minus] [$rbp+0]
.Ltmp37:
	.loc	1 0 1 is_stmt 0         # vlasovsolver/cpu_acc_semilag.cpp:0:1
	movq	%rax, %r14
.Ltmp378:
	#DEBUG_VALUE:  <- [DW_OP_constu 128, DW_OP_minus, DW_OP_stack_value] $rbp
	#DEBUG_VALUE: ~basic_string: <- [DW_OP_constu 128, DW_OP_minus, DW_OP_stack_value] $rbp
	.loc	8 231 1 is_stmt 1       # /usr/include/c++/9/bits/basic_string.h:231:1
	movq	-128(%rbp), %rdi
	cmpq	%r13, %rdi
	je	.LBB2_111
.Ltmp379:
# %bb.110:                              # %L.B2639.i
	#DEBUG_VALUE: ~basic_string: <- [DW_OP_constu 128, DW_OP_minus, DW_OP_stack_value] $rbp
	#DEBUG_VALUE:  <- [DW_OP_constu 128, DW_OP_minus, DW_OP_stack_value] $rbp
	#DEBUG_VALUE: useAccelerator <- [DW_OP_constu 92, DW_OP_minus] [$rbp+0]
	#DEBUG_VALUE: ....inline.__FILL_CHARARRAY <- [DW_OP_LLVM_convert 32 7, DW_OP_LLVM_convert 8 7, DW_OP_stack_value] 0
	#DEBUG_VALUE: cpu_accelerate_cell:order_step <- [DW_OP_constu 252, DW_OP_minus] [$rbp+0]
	#DEBUG_VALUE: cpu_accelerate_cell:useAccelerator <- [DW_OP_constu 92, DW_OP_minus] [$rbp+0]
	.cfi_escape 0x2e, 0x00
	.loc	8 232 1                 # /usr/include/c++/9/bits/basic_string.h:232:1
	callq	_ZdlPv
.Ltmp380:
.LBB2_111:                              # %L_T47807944_38685
	#DEBUG_VALUE: useAccelerator <- [DW_OP_constu 92, DW_OP_minus] [$rbp+0]
	#DEBUG_VALUE: ....inline.__FILL_CHARARRAY <- [DW_OP_LLVM_convert 32 7, DW_OP_LLVM_convert 8 7, DW_OP_stack_value] 0
	#DEBUG_VALUE: cpu_accelerate_cell:order_step <- [DW_OP_constu 252, DW_OP_minus] [$rbp+0]
	#DEBUG_VALUE: cpu_accelerate_cell:useAccelerator <- [DW_OP_constu 92, DW_OP_minus] [$rbp+0]
	#DEBUG_VALUE: ~basic_string: <- [DW_OP_constu 88, DW_OP_minus, DW_OP_stack_value] $rbp
	#DEBUG_VALUE:  <- [DW_OP_constu 88, DW_OP_minus, DW_OP_stack_value] $rbp
	.loc	8 231 1                 # /usr/include/c++/9/bits/basic_string.h:231:1
	movq	-88(%rbp), %rdi
	cmpq	%r15, %rdi
	je	.LBB2_160
.Ltmp381:
# %bb.112:                              # %L.B2639.i95
	#DEBUG_VALUE:  <- [DW_OP_constu 88, DW_OP_minus, DW_OP_stack_value] $rbp
	#DEBUG_VALUE: ~basic_string: <- [DW_OP_constu 88, DW_OP_minus, DW_OP_stack_value] $rbp
	#DEBUG_VALUE: useAccelerator <- [DW_OP_constu 92, DW_OP_minus] [$rbp+0]
	#DEBUG_VALUE: ....inline.__FILL_CHARARRAY <- [DW_OP_LLVM_convert 32 7, DW_OP_LLVM_convert 8 7, DW_OP_stack_value] 0
	#DEBUG_VALUE: cpu_accelerate_cell:order_step <- [DW_OP_constu 252, DW_OP_minus] [$rbp+0]
	#DEBUG_VALUE: cpu_accelerate_cell:useAccelerator <- [DW_OP_constu 92, DW_OP_minus] [$rbp+0]
	.cfi_escape 0x2e, 0x00
	.loc	8 232 1                 # /usr/include/c++/9/bits/basic_string.h:232:1
	callq	_ZdlPv
	.cfi_escape 0x2e, 0x00
	movq	%r14, %rdi
	callq	_Unwind_Resume
.Ltmp382:
.LBB2_113:                              # %L_T47805184_38685
	#DEBUG_VALUE: useAccelerator <- [DW_OP_constu 92, DW_OP_minus] [$rbp+0]
	#DEBUG_VALUE: ....inline.__FILL_CHARARRAY <- [DW_OP_LLVM_convert 32 7, DW_OP_LLVM_convert 8 7, DW_OP_stack_value] 0
	#DEBUG_VALUE: cpu_accelerate_cell:order_step <- [DW_OP_constu 252, DW_OP_minus] [$rbp+0]
	#DEBUG_VALUE: cpu_accelerate_cell:useAccelerator <- [DW_OP_constu 92, DW_OP_minus] [$rbp+0]
.Ltmp55:
	.loc	8 0 1 is_stmt 0         # /usr/include/c++/9/bits/basic_string.h:0:1
	movq	%rax, %r14
.Ltmp383:
	#DEBUG_VALUE:  <- [DW_OP_constu 128, DW_OP_minus, DW_OP_stack_value] $rbp
	#DEBUG_VALUE: ~basic_string: <- [DW_OP_constu 128, DW_OP_minus, DW_OP_stack_value] $rbp
	.loc	8 231 1 is_stmt 1       # /usr/include/c++/9/bits/basic_string.h:231:1
	movq	-128(%rbp), %rdi
	cmpq	%r13, %rdi
	je	.LBB2_115
.Ltmp384:
# %bb.114:                              # %L.B2639.i134
	#DEBUG_VALUE: ~basic_string: <- [DW_OP_constu 128, DW_OP_minus, DW_OP_stack_value] $rbp
	#DEBUG_VALUE:  <- [DW_OP_constu 128, DW_OP_minus, DW_OP_stack_value] $rbp
	#DEBUG_VALUE: useAccelerator <- [DW_OP_constu 92, DW_OP_minus] [$rbp+0]
	#DEBUG_VALUE: ....inline.__FILL_CHARARRAY <- [DW_OP_LLVM_convert 32 7, DW_OP_LLVM_convert 8 7, DW_OP_stack_value] 0
	#DEBUG_VALUE: cpu_accelerate_cell:order_step <- [DW_OP_constu 252, DW_OP_minus] [$rbp+0]
	#DEBUG_VALUE: cpu_accelerate_cell:useAccelerator <- [DW_OP_constu 92, DW_OP_minus] [$rbp+0]
	.cfi_escape 0x2e, 0x00
	.loc	8 232 1                 # /usr/include/c++/9/bits/basic_string.h:232:1
	callq	_ZdlPv
.Ltmp385:
.LBB2_115:                              # %L_T47805064_38685
	#DEBUG_VALUE: useAccelerator <- [DW_OP_constu 92, DW_OP_minus] [$rbp+0]
	#DEBUG_VALUE: ....inline.__FILL_CHARARRAY <- [DW_OP_LLVM_convert 32 7, DW_OP_LLVM_convert 8 7, DW_OP_stack_value] 0
	#DEBUG_VALUE: cpu_accelerate_cell:order_step <- [DW_OP_constu 252, DW_OP_minus] [$rbp+0]
	#DEBUG_VALUE: cpu_accelerate_cell:useAccelerator <- [DW_OP_constu 92, DW_OP_minus] [$rbp+0]
	#DEBUG_VALUE: ~basic_string: <- [DW_OP_constu 88, DW_OP_minus, DW_OP_stack_value] $rbp
	#DEBUG_VALUE:  <- [DW_OP_constu 88, DW_OP_minus, DW_OP_stack_value] $rbp
	.loc	8 231 1                 # /usr/include/c++/9/bits/basic_string.h:231:1
	movq	-88(%rbp), %rdi
	cmpq	%r15, %rdi
	je	.LBB2_160
.Ltmp386:
# %bb.116:                              # %L.B2639.i154
	#DEBUG_VALUE:  <- [DW_OP_constu 88, DW_OP_minus, DW_OP_stack_value] $rbp
	#DEBUG_VALUE: ~basic_string: <- [DW_OP_constu 88, DW_OP_minus, DW_OP_stack_value] $rbp
	#DEBUG_VALUE: useAccelerator <- [DW_OP_constu 92, DW_OP_minus] [$rbp+0]
	#DEBUG_VALUE: ....inline.__FILL_CHARARRAY <- [DW_OP_LLVM_convert 32 7, DW_OP_LLVM_convert 8 7, DW_OP_stack_value] 0
	#DEBUG_VALUE: cpu_accelerate_cell:order_step <- [DW_OP_constu 252, DW_OP_minus] [$rbp+0]
	#DEBUG_VALUE: cpu_accelerate_cell:useAccelerator <- [DW_OP_constu 92, DW_OP_minus] [$rbp+0]
	.cfi_escape 0x2e, 0x00
	.loc	8 232 1                 # /usr/include/c++/9/bits/basic_string.h:232:1
	callq	_ZdlPv
	.cfi_escape 0x2e, 0x00
	movq	%r14, %rdi
	callq	_Unwind_Resume
.Ltmp387:
.LBB2_117:                              # %L_T47804224_38685
	#DEBUG_VALUE: useAccelerator <- [DW_OP_constu 92, DW_OP_minus] [$rbp+0]
	#DEBUG_VALUE: spatial_cell <- [DW_OP_constu 144, DW_OP_minus] [$rbp+0]
	#DEBUG_VALUE: ....inline.__FILL_CHARARRAY <- [DW_OP_LLVM_convert 32 7, DW_OP_LLVM_convert 8 7, DW_OP_stack_value] 0
	#DEBUG_VALUE: cpu_accelerate_cell:order_step <- [DW_OP_constu 252, DW_OP_minus] [$rbp+0]
	#DEBUG_VALUE: cpu_accelerate_cell:useAccelerator <- [DW_OP_constu 92, DW_OP_minus] [$rbp+0]
.Ltmp52:
	.loc	8 0 1 is_stmt 0         # /usr/include/c++/9/bits/basic_string.h:0:1
	movq	%rax, %r14
.Ltmp388:
	#DEBUG_VALUE:  <- [DW_OP_constu 88, DW_OP_minus, DW_OP_stack_value] $rbp
	#DEBUG_VALUE: ~basic_string: <- [DW_OP_constu 88, DW_OP_minus, DW_OP_stack_value] $rbp
	.loc	8 231 1 is_stmt 1       # /usr/include/c++/9/bits/basic_string.h:231:1
	movq	-88(%rbp), %rdi
	cmpq	%r15, %rdi
	je	.LBB2_160
.Ltmp389:
# %bb.118:                              # %L.B2639.i165
	#DEBUG_VALUE: ~basic_string: <- [DW_OP_constu 88, DW_OP_minus, DW_OP_stack_value] $rbp
	#DEBUG_VALUE:  <- [DW_OP_constu 88, DW_OP_minus, DW_OP_stack_value] $rbp
	#DEBUG_VALUE: useAccelerator <- [DW_OP_constu 92, DW_OP_minus] [$rbp+0]
	#DEBUG_VALUE: spatial_cell <- [DW_OP_constu 144, DW_OP_minus] [$rbp+0]
	#DEBUG_VALUE: ....inline.__FILL_CHARARRAY <- [DW_OP_LLVM_convert 32 7, DW_OP_LLVM_convert 8 7, DW_OP_stack_value] 0
	#DEBUG_VALUE: cpu_accelerate_cell:order_step <- [DW_OP_constu 252, DW_OP_minus] [$rbp+0]
	#DEBUG_VALUE: cpu_accelerate_cell:useAccelerator <- [DW_OP_constu 92, DW_OP_minus] [$rbp+0]
	.cfi_escape 0x2e, 0x00
	.loc	8 232 1                 # /usr/include/c++/9/bits/basic_string.h:232:1
	callq	_ZdlPv
	.cfi_escape 0x2e, 0x00
	movq	%r14, %rdi
	callq	_Unwind_Resume
.Ltmp390:
.LBB2_119:                              # %L_T47803744_38685
	#DEBUG_VALUE: useAccelerator <- [DW_OP_constu 92, DW_OP_minus] [$rbp+0]
	#DEBUG_VALUE: spatial_cell <- [DW_OP_constu 144, DW_OP_minus] [$rbp+0]
	#DEBUG_VALUE: ....inline.__FILL_CHARARRAY <- [DW_OP_LLVM_convert 32 7, DW_OP_LLVM_convert 8 7, DW_OP_stack_value] 0
	#DEBUG_VALUE: cpu_accelerate_cell:order_step <- [DW_OP_constu 252, DW_OP_minus] [$rbp+0]
	#DEBUG_VALUE: cpu_accelerate_cell:useAccelerator <- [DW_OP_constu 92, DW_OP_minus] [$rbp+0]
.Ltmp49:
	.loc	8 0 1 is_stmt 0         # /usr/include/c++/9/bits/basic_string.h:0:1
	movq	%rax, %r14
.Ltmp391:
	#DEBUG_VALUE:  <- [DW_OP_constu 128, DW_OP_minus, DW_OP_stack_value] $rbp
	#DEBUG_VALUE: ~basic_string: <- [DW_OP_constu 128, DW_OP_minus, DW_OP_stack_value] $rbp
	.loc	8 231 1 is_stmt 1       # /usr/include/c++/9/bits/basic_string.h:231:1
	movq	-128(%rbp), %rdi
	cmpq	%r13, %rdi
	je	.LBB2_121
.Ltmp392:
# %bb.120:                              # %L.B2639.i170
	#DEBUG_VALUE: ~basic_string: <- [DW_OP_constu 128, DW_OP_minus, DW_OP_stack_value] $rbp
	#DEBUG_VALUE:  <- [DW_OP_constu 128, DW_OP_minus, DW_OP_stack_value] $rbp
	#DEBUG_VALUE: useAccelerator <- [DW_OP_constu 92, DW_OP_minus] [$rbp+0]
	#DEBUG_VALUE: spatial_cell <- [DW_OP_constu 144, DW_OP_minus] [$rbp+0]
	#DEBUG_VALUE: ....inline.__FILL_CHARARRAY <- [DW_OP_LLVM_convert 32 7, DW_OP_LLVM_convert 8 7, DW_OP_stack_value] 0
	#DEBUG_VALUE: cpu_accelerate_cell:order_step <- [DW_OP_constu 252, DW_OP_minus] [$rbp+0]
	#DEBUG_VALUE: cpu_accelerate_cell:useAccelerator <- [DW_OP_constu 92, DW_OP_minus] [$rbp+0]
	.cfi_escape 0x2e, 0x00
	.loc	8 232 1                 # /usr/include/c++/9/bits/basic_string.h:232:1
	callq	_ZdlPv
.Ltmp393:
.LBB2_121:                              # %L_T47803624_38685
	#DEBUG_VALUE: useAccelerator <- [DW_OP_constu 92, DW_OP_minus] [$rbp+0]
	#DEBUG_VALUE: spatial_cell <- [DW_OP_constu 144, DW_OP_minus] [$rbp+0]
	#DEBUG_VALUE: ....inline.__FILL_CHARARRAY <- [DW_OP_LLVM_convert 32 7, DW_OP_LLVM_convert 8 7, DW_OP_stack_value] 0
	#DEBUG_VALUE: cpu_accelerate_cell:order_step <- [DW_OP_constu 252, DW_OP_minus] [$rbp+0]
	#DEBUG_VALUE: cpu_accelerate_cell:useAccelerator <- [DW_OP_constu 92, DW_OP_minus] [$rbp+0]
	#DEBUG_VALUE: ~basic_string: <- [DW_OP_constu 88, DW_OP_minus, DW_OP_stack_value] $rbp
	#DEBUG_VALUE:  <- [DW_OP_constu 88, DW_OP_minus, DW_OP_stack_value] $rbp
	.loc	8 231 1                 # /usr/include/c++/9/bits/basic_string.h:231:1
	movq	-88(%rbp), %rdi
	cmpq	%r15, %rdi
	je	.LBB2_160
.Ltmp394:
# %bb.122:                              # %L.B2639.i175
	#DEBUG_VALUE:  <- [DW_OP_constu 88, DW_OP_minus, DW_OP_stack_value] $rbp
	#DEBUG_VALUE: ~basic_string: <- [DW_OP_constu 88, DW_OP_minus, DW_OP_stack_value] $rbp
	#DEBUG_VALUE: useAccelerator <- [DW_OP_constu 92, DW_OP_minus] [$rbp+0]
	#DEBUG_VALUE: spatial_cell <- [DW_OP_constu 144, DW_OP_minus] [$rbp+0]
	#DEBUG_VALUE: ....inline.__FILL_CHARARRAY <- [DW_OP_LLVM_convert 32 7, DW_OP_LLVM_convert 8 7, DW_OP_stack_value] 0
	#DEBUG_VALUE: cpu_accelerate_cell:order_step <- [DW_OP_constu 252, DW_OP_minus] [$rbp+0]
	#DEBUG_VALUE: cpu_accelerate_cell:useAccelerator <- [DW_OP_constu 92, DW_OP_minus] [$rbp+0]
	.cfi_escape 0x2e, 0x00
	.loc	8 232 1                 # /usr/include/c++/9/bits/basic_string.h:232:1
	callq	_ZdlPv
	.cfi_escape 0x2e, 0x00
	movq	%r14, %rdi
	callq	_Unwind_Resume
.Ltmp395:
.LBB2_123:                              # %L_T47803024_38685
	#DEBUG_VALUE: __dnew <- [DW_OP_constu 56, DW_OP_minus, DW_OP_deref] $rbp
	#DEBUG_VALUE: _M_construct: <- [DW_OP_constu 88, DW_OP_minus, DW_OP_stack_value] $rbp
	#DEBUG_VALUE:  <- [DW_OP_constu 88, DW_OP_minus, DW_OP_stack_value] $rbp
	#DEBUG_VALUE: vmesh <- $r13
	#DEBUG_VALUE: useAccelerator <- [DW_OP_constu 92, DW_OP_minus] [$rbp+0]
	#DEBUG_VALUE: spatial_cell <- [DW_OP_constu 144, DW_OP_minus] [$rbp+0]
	#DEBUG_VALUE: ....inline.__FILL_CHARARRAY <- [DW_OP_LLVM_convert 32 7, DW_OP_LLVM_convert 8 7, DW_OP_stack_value] 0
	#DEBUG_VALUE: cpu_accelerate_cell:order_step <- [DW_OP_constu 252, DW_OP_minus] [$rbp+0]
	#DEBUG_VALUE: cpu_accelerate_cell:useAccelerator <- [DW_OP_constu 92, DW_OP_minus] [$rbp+0]
.Ltmp46:
	.loc	8 0 1 is_stmt 0         # /usr/include/c++/9/bits/basic_string.h:0:1
	jmp	.LBB2_159
.Ltmp396:
.LBB2_124:                              # %L_T47802304_38685
	#DEBUG_VALUE: useAccelerator <- [DW_OP_constu 92, DW_OP_minus] [$rbp+0]
	#DEBUG_VALUE: ....inline.__FILL_CHARARRAY <- [DW_OP_LLVM_convert 32 7, DW_OP_LLVM_convert 8 7, DW_OP_stack_value] 0
	#DEBUG_VALUE: cpu_accelerate_cell:order_step <- [DW_OP_constu 252, DW_OP_minus] [$rbp+0]
	#DEBUG_VALUE: cpu_accelerate_cell:useAccelerator <- [DW_OP_constu 92, DW_OP_minus] [$rbp+0]
.Ltmp73:
	movq	%rax, %r14
.Ltmp397:
	#DEBUG_VALUE:  <- [DW_OP_constu 128, DW_OP_minus, DW_OP_stack_value] $rbp
	#DEBUG_VALUE: ~basic_string: <- [DW_OP_constu 128, DW_OP_minus, DW_OP_stack_value] $rbp
	.loc	8 231 1 is_stmt 1       # /usr/include/c++/9/bits/basic_string.h:231:1
	movq	-128(%rbp), %rdi
	cmpq	%rbx, %rdi
	je	.LBB2_126
.Ltmp398:
# %bb.125:                              # %L.B2639.i191
	#DEBUG_VALUE: ~basic_string: <- [DW_OP_constu 128, DW_OP_minus, DW_OP_stack_value] $rbp
	#DEBUG_VALUE:  <- [DW_OP_constu 128, DW_OP_minus, DW_OP_stack_value] $rbp
	#DEBUG_VALUE: useAccelerator <- [DW_OP_constu 92, DW_OP_minus] [$rbp+0]
	#DEBUG_VALUE: ....inline.__FILL_CHARARRAY <- [DW_OP_LLVM_convert 32 7, DW_OP_LLVM_convert 8 7, DW_OP_stack_value] 0
	#DEBUG_VALUE: cpu_accelerate_cell:order_step <- [DW_OP_constu 252, DW_OP_minus] [$rbp+0]
	#DEBUG_VALUE: cpu_accelerate_cell:useAccelerator <- [DW_OP_constu 92, DW_OP_minus] [$rbp+0]
	.cfi_escape 0x2e, 0x00
	.loc	8 232 1                 # /usr/include/c++/9/bits/basic_string.h:232:1
	callq	_ZdlPv
.Ltmp399:
.LBB2_126:                              # %L_T47802184_38685
	#DEBUG_VALUE: useAccelerator <- [DW_OP_constu 92, DW_OP_minus] [$rbp+0]
	#DEBUG_VALUE: ....inline.__FILL_CHARARRAY <- [DW_OP_LLVM_convert 32 7, DW_OP_LLVM_convert 8 7, DW_OP_stack_value] 0
	#DEBUG_VALUE: cpu_accelerate_cell:order_step <- [DW_OP_constu 252, DW_OP_minus] [$rbp+0]
	#DEBUG_VALUE: cpu_accelerate_cell:useAccelerator <- [DW_OP_constu 92, DW_OP_minus] [$rbp+0]
	#DEBUG_VALUE: ~basic_string: <- [DW_OP_constu 88, DW_OP_minus, DW_OP_stack_value] $rbp
	#DEBUG_VALUE:  <- [DW_OP_constu 88, DW_OP_minus, DW_OP_stack_value] $rbp
	.loc	8 231 1                 # /usr/include/c++/9/bits/basic_string.h:231:1
	movq	-88(%rbp), %rdi
	cmpq	%r13, %rdi
	je	.LBB2_160
.Ltmp400:
# %bb.127:                              # %L.B2639.i193
	#DEBUG_VALUE:  <- [DW_OP_constu 88, DW_OP_minus, DW_OP_stack_value] $rbp
	#DEBUG_VALUE: ~basic_string: <- [DW_OP_constu 88, DW_OP_minus, DW_OP_stack_value] $rbp
	#DEBUG_VALUE: useAccelerator <- [DW_OP_constu 92, DW_OP_minus] [$rbp+0]
	#DEBUG_VALUE: ....inline.__FILL_CHARARRAY <- [DW_OP_LLVM_convert 32 7, DW_OP_LLVM_convert 8 7, DW_OP_stack_value] 0
	#DEBUG_VALUE: cpu_accelerate_cell:order_step <- [DW_OP_constu 252, DW_OP_minus] [$rbp+0]
	#DEBUG_VALUE: cpu_accelerate_cell:useAccelerator <- [DW_OP_constu 92, DW_OP_minus] [$rbp+0]
	.cfi_escape 0x2e, 0x00
	.loc	8 232 1                 # /usr/include/c++/9/bits/basic_string.h:232:1
	callq	_ZdlPv
	.cfi_escape 0x2e, 0x00
	movq	%r14, %rdi
	callq	_Unwind_Resume
.Ltmp401:
.LBB2_128:                              # %L_T47801344_38685
	#DEBUG_VALUE: useAccelerator <- [DW_OP_constu 92, DW_OP_minus] [$rbp+0]
	#DEBUG_VALUE: spatial_cell <- [DW_OP_constu 144, DW_OP_minus] [$rbp+0]
	#DEBUG_VALUE: ....inline.__FILL_CHARARRAY <- [DW_OP_LLVM_convert 32 7, DW_OP_LLVM_convert 8 7, DW_OP_stack_value] 0
	#DEBUG_VALUE: cpu_accelerate_cell:order_step <- [DW_OP_constu 252, DW_OP_minus] [$rbp+0]
	#DEBUG_VALUE: cpu_accelerate_cell:useAccelerator <- [DW_OP_constu 92, DW_OP_minus] [$rbp+0]
.Ltmp70:
	.loc	8 0 1 is_stmt 0         # /usr/include/c++/9/bits/basic_string.h:0:1
	movq	%rax, %r14
.Ltmp402:
	#DEBUG_VALUE:  <- [DW_OP_constu 88, DW_OP_minus, DW_OP_stack_value] $rbp
	#DEBUG_VALUE: ~basic_string: <- [DW_OP_constu 88, DW_OP_minus, DW_OP_stack_value] $rbp
	.loc	8 231 1 is_stmt 1       # /usr/include/c++/9/bits/basic_string.h:231:1
	movq	-88(%rbp), %rdi
	cmpq	%r13, %rdi
	je	.LBB2_160
.Ltmp403:
# %bb.129:                              # %L.B2639.i204
	#DEBUG_VALUE: ~basic_string: <- [DW_OP_constu 88, DW_OP_minus, DW_OP_stack_value] $rbp
	#DEBUG_VALUE:  <- [DW_OP_constu 88, DW_OP_minus, DW_OP_stack_value] $rbp
	#DEBUG_VALUE: useAccelerator <- [DW_OP_constu 92, DW_OP_minus] [$rbp+0]
	#DEBUG_VALUE: spatial_cell <- [DW_OP_constu 144, DW_OP_minus] [$rbp+0]
	#DEBUG_VALUE: ....inline.__FILL_CHARARRAY <- [DW_OP_LLVM_convert 32 7, DW_OP_LLVM_convert 8 7, DW_OP_stack_value] 0
	#DEBUG_VALUE: cpu_accelerate_cell:order_step <- [DW_OP_constu 252, DW_OP_minus] [$rbp+0]
	#DEBUG_VALUE: cpu_accelerate_cell:useAccelerator <- [DW_OP_constu 92, DW_OP_minus] [$rbp+0]
	.cfi_escape 0x2e, 0x00
	.loc	8 232 1                 # /usr/include/c++/9/bits/basic_string.h:232:1
	callq	_ZdlPv
	.cfi_escape 0x2e, 0x00
	movq	%r14, %rdi
	callq	_Unwind_Resume
.Ltmp404:
.LBB2_130:                              # %L_T47800864_38685
	#DEBUG_VALUE: useAccelerator <- [DW_OP_constu 92, DW_OP_minus] [$rbp+0]
	#DEBUG_VALUE: spatial_cell <- [DW_OP_constu 144, DW_OP_minus] [$rbp+0]
	#DEBUG_VALUE: ....inline.__FILL_CHARARRAY <- [DW_OP_LLVM_convert 32 7, DW_OP_LLVM_convert 8 7, DW_OP_stack_value] 0
	#DEBUG_VALUE: cpu_accelerate_cell:order_step <- [DW_OP_constu 252, DW_OP_minus] [$rbp+0]
	#DEBUG_VALUE: cpu_accelerate_cell:useAccelerator <- [DW_OP_constu 92, DW_OP_minus] [$rbp+0]
.Ltmp67:
	.loc	8 0 1 is_stmt 0         # /usr/include/c++/9/bits/basic_string.h:0:1
	movq	%rax, %r14
.Ltmp405:
	#DEBUG_VALUE:  <- [DW_OP_constu 88, DW_OP_minus, DW_OP_stack_value] $rbp
	#DEBUG_VALUE: ~basic_string: <- [DW_OP_constu 88, DW_OP_minus, DW_OP_stack_value] $rbp
	.loc	8 231 1 is_stmt 1       # /usr/include/c++/9/bits/basic_string.h:231:1
	movq	-88(%rbp), %rdi
	cmpq	%r13, %rdi
	je	.LBB2_132
.Ltmp406:
# %bb.131:                              # %L.B2639.i224
	#DEBUG_VALUE: ~basic_string: <- [DW_OP_constu 88, DW_OP_minus, DW_OP_stack_value] $rbp
	#DEBUG_VALUE:  <- [DW_OP_constu 88, DW_OP_minus, DW_OP_stack_value] $rbp
	#DEBUG_VALUE: useAccelerator <- [DW_OP_constu 92, DW_OP_minus] [$rbp+0]
	#DEBUG_VALUE: spatial_cell <- [DW_OP_constu 144, DW_OP_minus] [$rbp+0]
	#DEBUG_VALUE: ....inline.__FILL_CHARARRAY <- [DW_OP_LLVM_convert 32 7, DW_OP_LLVM_convert 8 7, DW_OP_stack_value] 0
	#DEBUG_VALUE: cpu_accelerate_cell:order_step <- [DW_OP_constu 252, DW_OP_minus] [$rbp+0]
	#DEBUG_VALUE: cpu_accelerate_cell:useAccelerator <- [DW_OP_constu 92, DW_OP_minus] [$rbp+0]
	.cfi_escape 0x2e, 0x00
	.loc	8 232 1                 # /usr/include/c++/9/bits/basic_string.h:232:1
	callq	_ZdlPv
.Ltmp407:
.LBB2_132:                              # %L_T47800744_38685
	#DEBUG_VALUE: useAccelerator <- [DW_OP_constu 92, DW_OP_minus] [$rbp+0]
	#DEBUG_VALUE: spatial_cell <- [DW_OP_constu 144, DW_OP_minus] [$rbp+0]
	#DEBUG_VALUE: ....inline.__FILL_CHARARRAY <- [DW_OP_LLVM_convert 32 7, DW_OP_LLVM_convert 8 7, DW_OP_stack_value] 0
	#DEBUG_VALUE: cpu_accelerate_cell:order_step <- [DW_OP_constu 252, DW_OP_minus] [$rbp+0]
	#DEBUG_VALUE: cpu_accelerate_cell:useAccelerator <- [DW_OP_constu 92, DW_OP_minus] [$rbp+0]
	#DEBUG_VALUE: ~basic_string: <- [DW_OP_constu 128, DW_OP_minus, DW_OP_stack_value] $rbp
	#DEBUG_VALUE:  <- [DW_OP_constu 128, DW_OP_minus, DW_OP_stack_value] $rbp
	.loc	8 231 1                 # /usr/include/c++/9/bits/basic_string.h:231:1
	movq	-128(%rbp), %rdi
	cmpq	%r15, %rdi
	je	.LBB2_160
.Ltmp408:
# %bb.133:                              # %L.B2639.i226
	#DEBUG_VALUE:  <- [DW_OP_constu 128, DW_OP_minus, DW_OP_stack_value] $rbp
	#DEBUG_VALUE: ~basic_string: <- [DW_OP_constu 128, DW_OP_minus, DW_OP_stack_value] $rbp
	#DEBUG_VALUE: useAccelerator <- [DW_OP_constu 92, DW_OP_minus] [$rbp+0]
	#DEBUG_VALUE: spatial_cell <- [DW_OP_constu 144, DW_OP_minus] [$rbp+0]
	#DEBUG_VALUE: ....inline.__FILL_CHARARRAY <- [DW_OP_LLVM_convert 32 7, DW_OP_LLVM_convert 8 7, DW_OP_stack_value] 0
	#DEBUG_VALUE: cpu_accelerate_cell:order_step <- [DW_OP_constu 252, DW_OP_minus] [$rbp+0]
	#DEBUG_VALUE: cpu_accelerate_cell:useAccelerator <- [DW_OP_constu 92, DW_OP_minus] [$rbp+0]
	.cfi_escape 0x2e, 0x00
	.loc	8 232 1                 # /usr/include/c++/9/bits/basic_string.h:232:1
	callq	_ZdlPv
	.cfi_escape 0x2e, 0x00
	movq	%r14, %rdi
	callq	_Unwind_Resume
.Ltmp409:
.LBB2_134:                              # %L_T47800144_38685
	#DEBUG_VALUE: __dnew <- [DW_OP_constu 56, DW_OP_minus, DW_OP_deref] $rbp
	#DEBUG_VALUE: _M_construct: <- [DW_OP_constu 128, DW_OP_minus, DW_OP_stack_value] $rbp
	#DEBUG_VALUE:  <- [DW_OP_constu 128, DW_OP_minus, DW_OP_stack_value] $rbp
	#DEBUG_VALUE: vmesh <- $r13
	#DEBUG_VALUE: useAccelerator <- [DW_OP_constu 92, DW_OP_minus] [$rbp+0]
	#DEBUG_VALUE: spatial_cell <- [DW_OP_constu 144, DW_OP_minus] [$rbp+0]
	#DEBUG_VALUE: ....inline.__FILL_CHARARRAY <- [DW_OP_LLVM_convert 32 7, DW_OP_LLVM_convert 8 7, DW_OP_stack_value] 0
	#DEBUG_VALUE: cpu_accelerate_cell:order_step <- [DW_OP_constu 252, DW_OP_minus] [$rbp+0]
	#DEBUG_VALUE: cpu_accelerate_cell:useAccelerator <- [DW_OP_constu 92, DW_OP_minus] [$rbp+0]
.Ltmp64:
	.loc	8 0 1 is_stmt 0         # /usr/include/c++/9/bits/basic_string.h:0:1
	jmp	.LBB2_159
.Ltmp410:
.LBB2_135:                              # %L_T47807104_38685
	#DEBUG_VALUE: useAccelerator <- [DW_OP_constu 92, DW_OP_minus] [$rbp+0]
	#DEBUG_VALUE: spatial_cell <- [DW_OP_constu 144, DW_OP_minus] [$rbp+0]
	#DEBUG_VALUE: ....inline.__FILL_CHARARRAY <- [DW_OP_LLVM_convert 32 7, DW_OP_LLVM_convert 8 7, DW_OP_stack_value] 0
	#DEBUG_VALUE: cpu_accelerate_cell:order_step <- [DW_OP_constu 252, DW_OP_minus] [$rbp+0]
	#DEBUG_VALUE: cpu_accelerate_cell:useAccelerator <- [DW_OP_constu 92, DW_OP_minus] [$rbp+0]
.Ltmp34:
	movq	%rax, %r14
.Ltmp411:
	#DEBUG_VALUE:  <- [DW_OP_constu 88, DW_OP_minus, DW_OP_stack_value] $rbp
	#DEBUG_VALUE: ~basic_string: <- [DW_OP_constu 88, DW_OP_minus, DW_OP_stack_value] $rbp
	.loc	8 231 1 is_stmt 1       # /usr/include/c++/9/bits/basic_string.h:231:1
	movq	-88(%rbp), %rdi
	cmpq	%r15, %rdi
	je	.LBB2_160
.Ltmp412:
# %bb.136:                              # %L.B2639.i97
	#DEBUG_VALUE: ~basic_string: <- [DW_OP_constu 88, DW_OP_minus, DW_OP_stack_value] $rbp
	#DEBUG_VALUE:  <- [DW_OP_constu 88, DW_OP_minus, DW_OP_stack_value] $rbp
	#DEBUG_VALUE: useAccelerator <- [DW_OP_constu 92, DW_OP_minus] [$rbp+0]
	#DEBUG_VALUE: spatial_cell <- [DW_OP_constu 144, DW_OP_minus] [$rbp+0]
	#DEBUG_VALUE: ....inline.__FILL_CHARARRAY <- [DW_OP_LLVM_convert 32 7, DW_OP_LLVM_convert 8 7, DW_OP_stack_value] 0
	#DEBUG_VALUE: cpu_accelerate_cell:order_step <- [DW_OP_constu 252, DW_OP_minus] [$rbp+0]
	#DEBUG_VALUE: cpu_accelerate_cell:useAccelerator <- [DW_OP_constu 92, DW_OP_minus] [$rbp+0]
	.cfi_escape 0x2e, 0x00
	.loc	8 232 1                 # /usr/include/c++/9/bits/basic_string.h:232:1
	callq	_ZdlPv
	.cfi_escape 0x2e, 0x00
	movq	%r14, %rdi
	callq	_Unwind_Resume
.Ltmp413:
.LBB2_137:                              # %L_T47806624_38685
	#DEBUG_VALUE: useAccelerator <- [DW_OP_constu 92, DW_OP_minus] [$rbp+0]
	#DEBUG_VALUE: spatial_cell <- [DW_OP_constu 144, DW_OP_minus] [$rbp+0]
	#DEBUG_VALUE: ....inline.__FILL_CHARARRAY <- [DW_OP_LLVM_convert 32 7, DW_OP_LLVM_convert 8 7, DW_OP_stack_value] 0
	#DEBUG_VALUE: cpu_accelerate_cell:order_step <- [DW_OP_constu 252, DW_OP_minus] [$rbp+0]
	#DEBUG_VALUE: cpu_accelerate_cell:useAccelerator <- [DW_OP_constu 92, DW_OP_minus] [$rbp+0]
.Ltmp31:
	.loc	8 0 1 is_stmt 0         # /usr/include/c++/9/bits/basic_string.h:0:1
	movq	%rax, %r14
.Ltmp414:
	#DEBUG_VALUE:  <- [DW_OP_constu 128, DW_OP_minus, DW_OP_stack_value] $rbp
	#DEBUG_VALUE: ~basic_string: <- [DW_OP_constu 128, DW_OP_minus, DW_OP_stack_value] $rbp
	.loc	8 231 1 is_stmt 1       # /usr/include/c++/9/bits/basic_string.h:231:1
	movq	-128(%rbp), %rdi
	cmpq	%r13, %rdi
	je	.LBB2_139
.Ltmp415:
# %bb.138:                              # %L.B2639.i101
	#DEBUG_VALUE: ~basic_string: <- [DW_OP_constu 128, DW_OP_minus, DW_OP_stack_value] $rbp
	#DEBUG_VALUE:  <- [DW_OP_constu 128, DW_OP_minus, DW_OP_stack_value] $rbp
	#DEBUG_VALUE: useAccelerator <- [DW_OP_constu 92, DW_OP_minus] [$rbp+0]
	#DEBUG_VALUE: spatial_cell <- [DW_OP_constu 144, DW_OP_minus] [$rbp+0]
	#DEBUG_VALUE: ....inline.__FILL_CHARARRAY <- [DW_OP_LLVM_convert 32 7, DW_OP_LLVM_convert 8 7, DW_OP_stack_value] 0
	#DEBUG_VALUE: cpu_accelerate_cell:order_step <- [DW_OP_constu 252, DW_OP_minus] [$rbp+0]
	#DEBUG_VALUE: cpu_accelerate_cell:useAccelerator <- [DW_OP_constu 92, DW_OP_minus] [$rbp+0]
	.cfi_escape 0x2e, 0x00
	.loc	8 232 1                 # /usr/include/c++/9/bits/basic_string.h:232:1
	callq	_ZdlPv
.Ltmp416:
.LBB2_139:                              # %L_T47806504_38685
	#DEBUG_VALUE: useAccelerator <- [DW_OP_constu 92, DW_OP_minus] [$rbp+0]
	#DEBUG_VALUE: spatial_cell <- [DW_OP_constu 144, DW_OP_minus] [$rbp+0]
	#DEBUG_VALUE: ....inline.__FILL_CHARARRAY <- [DW_OP_LLVM_convert 32 7, DW_OP_LLVM_convert 8 7, DW_OP_stack_value] 0
	#DEBUG_VALUE: cpu_accelerate_cell:order_step <- [DW_OP_constu 252, DW_OP_minus] [$rbp+0]
	#DEBUG_VALUE: cpu_accelerate_cell:useAccelerator <- [DW_OP_constu 92, DW_OP_minus] [$rbp+0]
	#DEBUG_VALUE: ~basic_string: <- [DW_OP_constu 88, DW_OP_minus, DW_OP_stack_value] $rbp
	#DEBUG_VALUE:  <- [DW_OP_constu 88, DW_OP_minus, DW_OP_stack_value] $rbp
	.loc	8 231 1                 # /usr/include/c++/9/bits/basic_string.h:231:1
	movq	-88(%rbp), %rdi
	cmpq	%r15, %rdi
	je	.LBB2_160
.Ltmp417:
# %bb.140:                              # %L.B2639.i121
	#DEBUG_VALUE:  <- [DW_OP_constu 88, DW_OP_minus, DW_OP_stack_value] $rbp
	#DEBUG_VALUE: ~basic_string: <- [DW_OP_constu 88, DW_OP_minus, DW_OP_stack_value] $rbp
	#DEBUG_VALUE: useAccelerator <- [DW_OP_constu 92, DW_OP_minus] [$rbp+0]
	#DEBUG_VALUE: spatial_cell <- [DW_OP_constu 144, DW_OP_minus] [$rbp+0]
	#DEBUG_VALUE: ....inline.__FILL_CHARARRAY <- [DW_OP_LLVM_convert 32 7, DW_OP_LLVM_convert 8 7, DW_OP_stack_value] 0
	#DEBUG_VALUE: cpu_accelerate_cell:order_step <- [DW_OP_constu 252, DW_OP_minus] [$rbp+0]
	#DEBUG_VALUE: cpu_accelerate_cell:useAccelerator <- [DW_OP_constu 92, DW_OP_minus] [$rbp+0]
	.cfi_escape 0x2e, 0x00
	.loc	8 232 1                 # /usr/include/c++/9/bits/basic_string.h:232:1
	callq	_ZdlPv
	.cfi_escape 0x2e, 0x00
	movq	%r14, %rdi
	callq	_Unwind_Resume
.Ltmp418:
.LBB2_141:                              # %L_T47805904_38685
	#DEBUG_VALUE: __dnew <- [DW_OP_constu 56, DW_OP_minus, DW_OP_deref] $rbp
	#DEBUG_VALUE: ....inline.__FILL_CHARARRAY <- [DW_OP_LLVM_convert 32 7, DW_OP_LLVM_convert 8 7, DW_OP_stack_value] 0
	#DEBUG_VALUE: _M_construct: <- [DW_OP_constu 88, DW_OP_minus, DW_OP_stack_value] $rbp
	#DEBUG_VALUE:  <- [DW_OP_constu 88, DW_OP_minus, DW_OP_stack_value] $rbp
	#DEBUG_VALUE:  <- [DW_OP_constu 88, DW_OP_minus, DW_OP_stack_value] $rbp
	#DEBUG_VALUE: basic_string: <- [DW_OP_constu 88, DW_OP_minus, DW_OP_stack_value] $rbp
	#DEBUG_VALUE: vmesh <- $r13
	#DEBUG_VALUE: useAccelerator <- [DW_OP_constu 92, DW_OP_minus] [$rbp+0]
	#DEBUG_VALUE: spatial_cell <- [DW_OP_constu 144, DW_OP_minus] [$rbp+0]
	#DEBUG_VALUE: ....inline.__FILL_CHARARRAY <- [DW_OP_LLVM_convert 32 7, DW_OP_LLVM_convert 8 7, DW_OP_stack_value] 0
	#DEBUG_VALUE: cpu_accelerate_cell:order_step <- [DW_OP_constu 252, DW_OP_minus] [$rbp+0]
	#DEBUG_VALUE: cpu_accelerate_cell:useAccelerator <- [DW_OP_constu 92, DW_OP_minus] [$rbp+0]
.Ltmp28:
	.loc	8 0 1 is_stmt 0         # /usr/include/c++/9/bits/basic_string.h:0:1
	jmp	.LBB2_159
.Ltmp419:
.LBB2_142:                              # %L_T47802784_38685
	#DEBUG_VALUE: vmesh <- $r13
	#DEBUG_VALUE: refLevel <- 0
	#DEBUG_VALUE: useAccelerator <- [DW_OP_constu 92, DW_OP_minus] [$rbp+0]
	#DEBUG_VALUE: spatial_cell <- [DW_OP_constu 144, DW_OP_minus] [$rbp+0]
	#DEBUG_VALUE: ....inline.__FILL_CHARARRAY <- [DW_OP_LLVM_convert 32 7, DW_OP_LLVM_convert 8 7, DW_OP_stack_value] 0
	#DEBUG_VALUE: cpu_accelerate_cell:order_step <- [DW_OP_constu 252, DW_OP_minus] [$rbp+0]
	#DEBUG_VALUE: cpu_accelerate_cell:useAccelerator <- [DW_OP_constu 92, DW_OP_minus] [$rbp+0]
.Ltmp43:
	movq	%rax, %r14
.Ltmp420:
	#DEBUG_VALUE:  <- [DW_OP_constu 88, DW_OP_minus, DW_OP_stack_value] $rbp
	#DEBUG_VALUE: ~basic_string: <- [DW_OP_constu 88, DW_OP_minus, DW_OP_stack_value] $rbp
	.loc	8 231 1 is_stmt 1       # /usr/include/c++/9/bits/basic_string.h:231:1
	movq	-88(%rbp), %rdi
	cmpq	%r15, %rdi
	je	.LBB2_160
.Ltmp421:
# %bb.143:                              # %L.B2639.i180
	#DEBUG_VALUE: ~basic_string: <- [DW_OP_constu 88, DW_OP_minus, DW_OP_stack_value] $rbp
	#DEBUG_VALUE:  <- [DW_OP_constu 88, DW_OP_minus, DW_OP_stack_value] $rbp
	#DEBUG_VALUE: vmesh <- $r13
	#DEBUG_VALUE: refLevel <- 0
	#DEBUG_VALUE: useAccelerator <- [DW_OP_constu 92, DW_OP_minus] [$rbp+0]
	#DEBUG_VALUE: spatial_cell <- [DW_OP_constu 144, DW_OP_minus] [$rbp+0]
	#DEBUG_VALUE: ....inline.__FILL_CHARARRAY <- [DW_OP_LLVM_convert 32 7, DW_OP_LLVM_convert 8 7, DW_OP_stack_value] 0
	#DEBUG_VALUE: cpu_accelerate_cell:order_step <- [DW_OP_constu 252, DW_OP_minus] [$rbp+0]
	#DEBUG_VALUE: cpu_accelerate_cell:useAccelerator <- [DW_OP_constu 92, DW_OP_minus] [$rbp+0]
	.cfi_escape 0x2e, 0x00
	.loc	8 232 1                 # /usr/include/c++/9/bits/basic_string.h:232:1
	callq	_ZdlPv
	.cfi_escape 0x2e, 0x00
	movq	%r14, %rdi
	callq	_Unwind_Resume
.Ltmp422:
.LBB2_144:                              # %L_T47802544_38685
	#DEBUG_VALUE: __dnew <- [DW_OP_constu 56, DW_OP_minus, DW_OP_deref] $rbp
	#DEBUG_VALUE: _M_construct: <- [DW_OP_constu 88, DW_OP_minus, DW_OP_stack_value] $rbp
	#DEBUG_VALUE:  <- [DW_OP_constu 88, DW_OP_minus, DW_OP_stack_value] $rbp
	#DEBUG_VALUE: vmesh <- $r13
	#DEBUG_VALUE: refLevel <- 0
	#DEBUG_VALUE: useAccelerator <- [DW_OP_constu 92, DW_OP_minus] [$rbp+0]
	#DEBUG_VALUE: spatial_cell <- [DW_OP_constu 144, DW_OP_minus] [$rbp+0]
	#DEBUG_VALUE: ....inline.__FILL_CHARARRAY <- [DW_OP_LLVM_convert 32 7, DW_OP_LLVM_convert 8 7, DW_OP_stack_value] 0
	#DEBUG_VALUE: cpu_accelerate_cell:order_step <- [DW_OP_constu 252, DW_OP_minus] [$rbp+0]
	#DEBUG_VALUE: cpu_accelerate_cell:useAccelerator <- [DW_OP_constu 92, DW_OP_minus] [$rbp+0]
.Ltmp40:
	.loc	8 0 1 is_stmt 0         # /usr/include/c++/9/bits/basic_string.h:0:1
	jmp	.LBB2_159
.Ltmp423:
.LBB2_145:                              # %L_T47799904_38685
	#DEBUG_VALUE: vmesh <- $r13
	#DEBUG_VALUE: refLevel <- 0
	#DEBUG_VALUE: useAccelerator <- [DW_OP_constu 92, DW_OP_minus] [$rbp+0]
	#DEBUG_VALUE: spatial_cell <- [DW_OP_constu 144, DW_OP_minus] [$rbp+0]
	#DEBUG_VALUE: ....inline.__FILL_CHARARRAY <- [DW_OP_LLVM_convert 32 7, DW_OP_LLVM_convert 8 7, DW_OP_stack_value] 0
	#DEBUG_VALUE: cpu_accelerate_cell:order_step <- [DW_OP_constu 252, DW_OP_minus] [$rbp+0]
	#DEBUG_VALUE: cpu_accelerate_cell:useAccelerator <- [DW_OP_constu 92, DW_OP_minus] [$rbp+0]
.Ltmp61:
	movq	%rax, %r14
.Ltmp424:
	#DEBUG_VALUE:  <- [DW_OP_constu 128, DW_OP_minus, DW_OP_stack_value] $rbp
	#DEBUG_VALUE: ~basic_string: <- [DW_OP_constu 128, DW_OP_minus, DW_OP_stack_value] $rbp
	.loc	8 231 1 is_stmt 1       # /usr/include/c++/9/bits/basic_string.h:231:1
	movq	-128(%rbp), %rdi
	cmpq	%r15, %rdi
	je	.LBB2_160
.Ltmp425:
# %bb.146:                              # %L.B2639.i230
	#DEBUG_VALUE: ~basic_string: <- [DW_OP_constu 128, DW_OP_minus, DW_OP_stack_value] $rbp
	#DEBUG_VALUE:  <- [DW_OP_constu 128, DW_OP_minus, DW_OP_stack_value] $rbp
	#DEBUG_VALUE: vmesh <- $r13
	#DEBUG_VALUE: refLevel <- 0
	#DEBUG_VALUE: useAccelerator <- [DW_OP_constu 92, DW_OP_minus] [$rbp+0]
	#DEBUG_VALUE: spatial_cell <- [DW_OP_constu 144, DW_OP_minus] [$rbp+0]
	#DEBUG_VALUE: ....inline.__FILL_CHARARRAY <- [DW_OP_LLVM_convert 32 7, DW_OP_LLVM_convert 8 7, DW_OP_stack_value] 0
	#DEBUG_VALUE: cpu_accelerate_cell:order_step <- [DW_OP_constu 252, DW_OP_minus] [$rbp+0]
	#DEBUG_VALUE: cpu_accelerate_cell:useAccelerator <- [DW_OP_constu 92, DW_OP_minus] [$rbp+0]
	.cfi_escape 0x2e, 0x00
	.loc	8 232 1                 # /usr/include/c++/9/bits/basic_string.h:232:1
	callq	_ZdlPv
	.cfi_escape 0x2e, 0x00
	movq	%r14, %rdi
	callq	_Unwind_Resume
.Ltmp426:
.LBB2_147:                              # %L_T47799664_38685
	#DEBUG_VALUE: __dnew <- [DW_OP_constu 56, DW_OP_minus, DW_OP_deref] $rbp
	#DEBUG_VALUE: _M_construct: <- [DW_OP_constu 128, DW_OP_minus, DW_OP_stack_value] $rbp
	#DEBUG_VALUE:  <- [DW_OP_constu 128, DW_OP_minus, DW_OP_stack_value] $rbp
	#DEBUG_VALUE: vmesh <- $r13
	#DEBUG_VALUE: refLevel <- 0
	#DEBUG_VALUE: useAccelerator <- [DW_OP_constu 92, DW_OP_minus] [$rbp+0]
	#DEBUG_VALUE: spatial_cell <- [DW_OP_constu 144, DW_OP_minus] [$rbp+0]
	#DEBUG_VALUE: ....inline.__FILL_CHARARRAY <- [DW_OP_LLVM_convert 32 7, DW_OP_LLVM_convert 8 7, DW_OP_stack_value] 0
	#DEBUG_VALUE: cpu_accelerate_cell:order_step <- [DW_OP_constu 252, DW_OP_minus] [$rbp+0]
	#DEBUG_VALUE: cpu_accelerate_cell:useAccelerator <- [DW_OP_constu 92, DW_OP_minus] [$rbp+0]
.Ltmp58:
	.loc	8 0 1 is_stmt 0         # /usr/include/c++/9/bits/basic_string.h:0:1
	jmp	.LBB2_159
.Ltmp427:
.LBB2_148:                              # %L_T47805664_38685
	#DEBUG_VALUE: vmesh <- $r13
	#DEBUG_VALUE: refLevel <- 0
	#DEBUG_VALUE: useAccelerator <- [DW_OP_constu 92, DW_OP_minus] [$rbp+0]
	#DEBUG_VALUE: spatial_cell <- [DW_OP_constu 144, DW_OP_minus] [$rbp+0]
	#DEBUG_VALUE: ....inline.__FILL_CHARARRAY <- [DW_OP_LLVM_convert 32 7, DW_OP_LLVM_convert 8 7, DW_OP_stack_value] 0
	#DEBUG_VALUE: cpu_accelerate_cell:order_step <- [DW_OP_constu 252, DW_OP_minus] [$rbp+0]
	#DEBUG_VALUE: cpu_accelerate_cell:useAccelerator <- [DW_OP_constu 92, DW_OP_minus] [$rbp+0]
.Ltmp25:
	movq	%rax, %r14
.Ltmp428:
	#DEBUG_VALUE:  <- [DW_OP_constu 88, DW_OP_minus, DW_OP_stack_value] $rbp
	#DEBUG_VALUE: ~basic_string: <- [DW_OP_constu 88, DW_OP_minus, DW_OP_stack_value] $rbp
	.loc	8 231 1 is_stmt 1       # /usr/include/c++/9/bits/basic_string.h:231:1
	movq	-88(%rbp), %rdi
	cmpq	%r15, %rdi
	je	.LBB2_160
.Ltmp429:
# %bb.149:                              # %L.B2639.i123
	#DEBUG_VALUE: ~basic_string: <- [DW_OP_constu 88, DW_OP_minus, DW_OP_stack_value] $rbp
	#DEBUG_VALUE:  <- [DW_OP_constu 88, DW_OP_minus, DW_OP_stack_value] $rbp
	#DEBUG_VALUE: vmesh <- $r13
	#DEBUG_VALUE: refLevel <- 0
	#DEBUG_VALUE: useAccelerator <- [DW_OP_constu 92, DW_OP_minus] [$rbp+0]
	#DEBUG_VALUE: spatial_cell <- [DW_OP_constu 144, DW_OP_minus] [$rbp+0]
	#DEBUG_VALUE: ....inline.__FILL_CHARARRAY <- [DW_OP_LLVM_convert 32 7, DW_OP_LLVM_convert 8 7, DW_OP_stack_value] 0
	#DEBUG_VALUE: cpu_accelerate_cell:order_step <- [DW_OP_constu 252, DW_OP_minus] [$rbp+0]
	#DEBUG_VALUE: cpu_accelerate_cell:useAccelerator <- [DW_OP_constu 92, DW_OP_minus] [$rbp+0]
	.cfi_escape 0x2e, 0x00
	.loc	8 232 1                 # /usr/include/c++/9/bits/basic_string.h:232:1
	callq	_ZdlPv
	.cfi_escape 0x2e, 0x00
	movq	%r14, %rdi
	callq	_Unwind_Resume
.Ltmp430:
.LBB2_150:                              # %L_T47805424_38685
	#DEBUG_VALUE: __dnew <- [DW_OP_constu 56, DW_OP_minus, DW_OP_deref] $rbp
	#DEBUG_VALUE: ....inline.__FILL_CHARARRAY <- [DW_OP_LLVM_convert 32 7, DW_OP_LLVM_convert 8 7, DW_OP_stack_value] 0
	#DEBUG_VALUE: _M_construct: <- [DW_OP_constu 88, DW_OP_minus, DW_OP_stack_value] $rbp
	#DEBUG_VALUE:  <- [DW_OP_constu 88, DW_OP_minus, DW_OP_stack_value] $rbp
	#DEBUG_VALUE:  <- [DW_OP_constu 88, DW_OP_minus, DW_OP_stack_value] $rbp
	#DEBUG_VALUE: basic_string: <- [DW_OP_constu 88, DW_OP_minus, DW_OP_stack_value] $rbp
	#DEBUG_VALUE: vmesh <- $r13
	#DEBUG_VALUE: refLevel <- 0
	#DEBUG_VALUE: useAccelerator <- [DW_OP_constu 92, DW_OP_minus] [$rbp+0]
	#DEBUG_VALUE: spatial_cell <- [DW_OP_constu 144, DW_OP_minus] [$rbp+0]
	#DEBUG_VALUE: ....inline.__FILL_CHARARRAY <- [DW_OP_LLVM_convert 32 7, DW_OP_LLVM_convert 8 7, DW_OP_stack_value] 0
	#DEBUG_VALUE: cpu_accelerate_cell:order_step <- [DW_OP_constu 252, DW_OP_minus] [$rbp+0]
	#DEBUG_VALUE: cpu_accelerate_cell:useAccelerator <- [DW_OP_constu 92, DW_OP_minus] [$rbp+0]
.Ltmp22:
	.loc	8 0 1 is_stmt 0         # /usr/include/c++/9/bits/basic_string.h:0:1
	jmp	.LBB2_159
.Ltmp431:
.LBB2_151:                              # %L_T47799424_38685
	#DEBUG_VALUE: spatial_cell <- [DW_OP_constu 144, DW_OP_minus] [$rbp+0]
	#DEBUG_VALUE: ....inline.__FILL_CHARARRAY <- [DW_OP_LLVM_convert 32 7, DW_OP_LLVM_convert 8 7, DW_OP_stack_value] 0
	#DEBUG_VALUE: cpu_accelerate_cell:spatial_cell <- $r14
	#DEBUG_VALUE: cpu_accelerate_cell:popID <- $r13d
	#DEBUG_VALUE: cpu_accelerate_cell:map_order <- $r15d
	#DEBUG_VALUE: cpu_accelerate_cell:order_step <- [DW_OP_constu 252, DW_OP_minus] [$rbp+0]
	#DEBUG_VALUE: popID <- $r13d
	#DEBUG_VALUE: cpu_accelerate_cell:useAccelerator <- [DW_OP_constu 92, DW_OP_minus] [$rbp+0]
.Ltmp19:
	movq	%rax, %r14
.Ltmp432:
	#DEBUG_VALUE:  <- [DW_OP_constu 448, DW_OP_minus, DW_OP_stack_value] $rbp
	#DEBUG_VALUE: ~basic_string: <- [DW_OP_constu 448, DW_OP_minus, DW_OP_stack_value] $rbp
	.loc	8 231 1 is_stmt 1       # /usr/include/c++/9/bits/basic_string.h:231:1
	movq	-448(%rbp), %rdi
	cmpq	%rbx, %rdi
	je	.LBB2_153
.Ltmp433:
# %bb.152:                              # %L.B2639.i232
	#DEBUG_VALUE: ~basic_string: <- [DW_OP_constu 448, DW_OP_minus, DW_OP_stack_value] $rbp
	#DEBUG_VALUE:  <- [DW_OP_constu 448, DW_OP_minus, DW_OP_stack_value] $rbp
	#DEBUG_VALUE: spatial_cell <- [DW_OP_constu 144, DW_OP_minus] [$rbp+0]
	#DEBUG_VALUE: ....inline.__FILL_CHARARRAY <- [DW_OP_LLVM_convert 32 7, DW_OP_LLVM_convert 8 7, DW_OP_stack_value] 0
	#DEBUG_VALUE: cpu_accelerate_cell:popID <- $r13d
	#DEBUG_VALUE: cpu_accelerate_cell:map_order <- $r15d
	#DEBUG_VALUE: cpu_accelerate_cell:order_step <- [DW_OP_constu 252, DW_OP_minus] [$rbp+0]
	#DEBUG_VALUE: popID <- $r13d
	#DEBUG_VALUE: cpu_accelerate_cell:useAccelerator <- [DW_OP_constu 92, DW_OP_minus] [$rbp+0]
	.cfi_escape 0x2e, 0x00
	.loc	8 232 1                 # /usr/include/c++/9/bits/basic_string.h:232:1
	callq	_ZdlPv
.Ltmp434:
.LBB2_153:                              # %L_T47799304_38685
	#DEBUG_VALUE: spatial_cell <- [DW_OP_constu 144, DW_OP_minus] [$rbp+0]
	#DEBUG_VALUE: ....inline.__FILL_CHARARRAY <- [DW_OP_LLVM_convert 32 7, DW_OP_LLVM_convert 8 7, DW_OP_stack_value] 0
	#DEBUG_VALUE: cpu_accelerate_cell:popID <- $r13d
	#DEBUG_VALUE: cpu_accelerate_cell:map_order <- $r15d
	#DEBUG_VALUE: cpu_accelerate_cell:order_step <- [DW_OP_constu 252, DW_OP_minus] [$rbp+0]
	#DEBUG_VALUE: popID <- $r13d
	#DEBUG_VALUE: cpu_accelerate_cell:useAccelerator <- [DW_OP_constu 92, DW_OP_minus] [$rbp+0]
	#DEBUG_VALUE: ~basic_string: <- [DW_OP_constu 288, DW_OP_minus, DW_OP_stack_value] $rbp
	#DEBUG_VALUE:  <- [DW_OP_constu 288, DW_OP_minus, DW_OP_stack_value] $rbp
	.loc	8 231 1                 # /usr/include/c++/9/bits/basic_string.h:231:1
	movq	-288(%rbp), %rdi
	cmpq	%r12, %rdi
	je	.LBB2_160
.Ltmp435:
# %bb.154:                              # %L.B2639.i234
	#DEBUG_VALUE:  <- [DW_OP_constu 288, DW_OP_minus, DW_OP_stack_value] $rbp
	#DEBUG_VALUE: ~basic_string: <- [DW_OP_constu 288, DW_OP_minus, DW_OP_stack_value] $rbp
	#DEBUG_VALUE: spatial_cell <- [DW_OP_constu 144, DW_OP_minus] [$rbp+0]
	#DEBUG_VALUE: ....inline.__FILL_CHARARRAY <- [DW_OP_LLVM_convert 32 7, DW_OP_LLVM_convert 8 7, DW_OP_stack_value] 0
	#DEBUG_VALUE: cpu_accelerate_cell:popID <- $r13d
	#DEBUG_VALUE: cpu_accelerate_cell:map_order <- $r15d
	#DEBUG_VALUE: cpu_accelerate_cell:order_step <- [DW_OP_constu 252, DW_OP_minus] [$rbp+0]
	#DEBUG_VALUE: popID <- $r13d
	#DEBUG_VALUE: cpu_accelerate_cell:useAccelerator <- [DW_OP_constu 92, DW_OP_minus] [$rbp+0]
	.cfi_escape 0x2e, 0x00
	.loc	8 232 1                 # /usr/include/c++/9/bits/basic_string.h:232:1
	callq	_ZdlPv
	.cfi_escape 0x2e, 0x00
	movq	%r14, %rdi
	callq	_Unwind_Resume
.Ltmp436:
.LBB2_155:                              # %L_T47798704_38685
	#DEBUG_VALUE: __dnew <- [DW_OP_constu 56, DW_OP_minus, DW_OP_deref] $rbp
	#DEBUG_VALUE: _M_construct: <- [DW_OP_constu 288, DW_OP_minus, DW_OP_stack_value] $rbp
	#DEBUG_VALUE:  <- [DW_OP_constu 288, DW_OP_minus, DW_OP_stack_value] $rbp
	#DEBUG_VALUE: copyCoeff:index <- 2
	#DEBUG_VALUE: index <- 2
	#DEBUG_VALUE: copyCoeff:index <- 1
	#DEBUG_VALUE: index <- 1
	#DEBUG_VALUE: BlockImpl:xpr <- [DW_OP_constu 416, DW_OP_minus, DW_OP_stack_value] $rbp
	#DEBUG_VALUE: xpr <- [DW_OP_constu 416, DW_OP_minus, DW_OP_stack_value] $rbp
	#DEBUG_VALUE: BlockImpl:a_startRow <- 3
	#DEBUG_VALUE: a_startRow <- 3
	#DEBUG_VALUE: BlockImpl:a_startCol <- 0
	#DEBUG_VALUE: a_startCol <- 0
	#DEBUG_VALUE: copyCoeff:index <- 0
	#DEBUG_VALUE: index <- 0
	#DEBUG_VALUE: coeff:row <- 2
	#DEBUG_VALUE: row <- 2
	#DEBUG_VALUE: coeff:col <- 0
	#DEBUG_VALUE: col <- 0
	#DEBUG_VALUE: run:row <- 2
	#DEBUG_VALUE: row <- 2
	#DEBUG_VALUE: run:col <- 0
	#DEBUG_VALUE: col <- 0
	#DEBUG_VALUE: coeff:row <- 1
	#DEBUG_VALUE: row <- 1
	#DEBUG_VALUE: coeff:col <- 0
	#DEBUG_VALUE: col <- 0
	#DEBUG_VALUE: run:row <- 1
	#DEBUG_VALUE: row <- 1
	#DEBUG_VALUE: run:col <- 0
	#DEBUG_VALUE: col <- 0
	#DEBUG_VALUE: BlockImpl:xpr <- [DW_OP_constu 576, DW_OP_minus, DW_OP_stack_value] $rbp
	#DEBUG_VALUE: xpr <- [DW_OP_constu 576, DW_OP_minus, DW_OP_stack_value] $rbp
	#DEBUG_VALUE: BlockImpl:a_startRow <- 0
	#DEBUG_VALUE: a_startRow <- 0
	#DEBUG_VALUE: BlockImpl:a_startCol <- 3
	#DEBUG_VALUE: a_startCol <- 3
	#DEBUG_VALUE: coeff:row <- 0
	#DEBUG_VALUE: row <- 0
	#DEBUG_VALUE: coeff:col <- 0
	#DEBUG_VALUE: col <- 0
	#DEBUG_VALUE: run:row <- 0
	#DEBUG_VALUE: row <- 0
	#DEBUG_VALUE: run:col <- 0
	#DEBUG_VALUE: col <- 0
	#DEBUG_VALUE: coeffByOuterInner:outer <- 0
	#DEBUG_VALUE: outer <- 0
	#DEBUG_VALUE: coeffByOuterInner:inner <- 2
	#DEBUG_VALUE: inner <- 2
	#DEBUG_VALUE: coeffByOuterInner:outer <- 0
	#DEBUG_VALUE: outer <- 0
	#DEBUG_VALUE: coeffByOuterInner:inner <- 1
	#DEBUG_VALUE: inner <- 1
	#DEBUG_VALUE: coeffByOuterInner:outer <- 0
	#DEBUG_VALUE: outer <- 0
	#DEBUG_VALUE: coeffByOuterInner:inner <- 0
	#DEBUG_VALUE: inner <- 0
	#DEBUG_VALUE: copyCoeff:index <- 2
	#DEBUG_VALUE: index <- 2
	#DEBUG_VALUE: copyCoeff:index <- 1
	#DEBUG_VALUE: index <- 1
	#DEBUG_VALUE: inverse: <- [DW_OP_constu 576, DW_OP_minus, DW_OP_stack_value] $rbp
	#DEBUG_VALUE:  <- [DW_OP_constu 576, DW_OP_minus, DW_OP_stack_value] $rbp
	#DEBUG_VALUE: inverse:hint <- 2
	#DEBUG_VALUE: hint <- 2
	#DEBUG_VALUE: BlockImpl:xpr <- [DW_OP_constu 416, DW_OP_minus, DW_OP_stack_value] $rbp
	#DEBUG_VALUE: xpr <- [DW_OP_constu 416, DW_OP_minus, DW_OP_stack_value] $rbp
	#DEBUG_VALUE: BlockImpl:a_startRow <- 3
	#DEBUG_VALUE: a_startRow <- 3
	#DEBUG_VALUE: BlockImpl:a_startCol <- 0
	#DEBUG_VALUE: a_startCol <- 0
	#DEBUG_VALUE: copyCoeff:index <- 0
	#DEBUG_VALUE: index <- 0
	#DEBUG_VALUE: ....inline.__FILL_CHARARRAY <- [DW_OP_LLVM_convert 32 7, DW_OP_LLVM_convert 8 7, DW_OP_stack_value] 0
	#DEBUG_VALUE: cpu_accelerate_cell:spatial_cell <- $r14
	#DEBUG_VALUE: cpu_accelerate_cell:popID <- $r13d
	#DEBUG_VALUE: cpu_accelerate_cell:map_order <- $r15d
	#DEBUG_VALUE: cpu_accelerate_cell:order_step <- [DW_OP_constu 252, DW_OP_minus] [$rbp+0]
	#DEBUG_VALUE: cpu_accelerate_cell:dt <- $rbx
	#DEBUG_VALUE: popID <- $r13d
	#DEBUG_VALUE: spatial_cell <- $r14
	#DEBUG_VALUE: cpu_accelerate_cell:useAccelerator <- [DW_OP_constu 92, DW_OP_minus] [$rbp+0]
.Ltmp16:
	.loc	8 0 1 is_stmt 0         # /usr/include/c++/9/bits/basic_string.h:0:1
	jmp	.LBB2_159
.Ltmp437:
.LBB2_156:                              # %L_T47798464_38685
	#DEBUG_VALUE: ....inline.__FILL_CHARARRAY <- [DW_OP_LLVM_convert 32 7, DW_OP_LLVM_convert 8 7, DW_OP_stack_value] 0
	#DEBUG_VALUE: cpu_accelerate_cell:spatial_cell <- $r14
	#DEBUG_VALUE: cpu_accelerate_cell:popID <- $r13d
	#DEBUG_VALUE: cpu_accelerate_cell:map_order <- $r15d
	#DEBUG_VALUE: cpu_accelerate_cell:order_step <- [DW_OP_constu 252, DW_OP_minus] [$rbp+0]
	#DEBUG_VALUE: cpu_accelerate_cell:dt <- $rbx
	#DEBUG_VALUE: popID <- $r13d
	#DEBUG_VALUE: spatial_cell <- $r14
	#DEBUG_VALUE: cpu_accelerate_cell:useAccelerator <- [DW_OP_constu 92, DW_OP_minus] [$rbp+0]
.Ltmp13:
	movq	%rax, %r14
.Ltmp438:
	#DEBUG_VALUE:  <- [DW_OP_constu 288, DW_OP_minus, DW_OP_stack_value] $rbp
	#DEBUG_VALUE: ~basic_string: <- [DW_OP_constu 288, DW_OP_minus, DW_OP_stack_value] $rbp
	.loc	8 231 1 is_stmt 1       # /usr/include/c++/9/bits/basic_string.h:231:1
	movq	-288(%rbp), %rdi
	cmpq	%r12, %rdi
	je	.LBB2_160
.Ltmp439:
# %bb.157:                              # %L.B2639.i228
	#DEBUG_VALUE: ~basic_string: <- [DW_OP_constu 288, DW_OP_minus, DW_OP_stack_value] $rbp
	#DEBUG_VALUE:  <- [DW_OP_constu 288, DW_OP_minus, DW_OP_stack_value] $rbp
	#DEBUG_VALUE: ....inline.__FILL_CHARARRAY <- [DW_OP_LLVM_convert 32 7, DW_OP_LLVM_convert 8 7, DW_OP_stack_value] 0
	#DEBUG_VALUE: cpu_accelerate_cell:popID <- $r13d
	#DEBUG_VALUE: cpu_accelerate_cell:map_order <- $r15d
	#DEBUG_VALUE: cpu_accelerate_cell:order_step <- [DW_OP_constu 252, DW_OP_minus] [$rbp+0]
	#DEBUG_VALUE: cpu_accelerate_cell:dt <- $rbx
	#DEBUG_VALUE: popID <- $r13d
	#DEBUG_VALUE: cpu_accelerate_cell:useAccelerator <- [DW_OP_constu 92, DW_OP_minus] [$rbp+0]
	.cfi_escape 0x2e, 0x00
	.loc	8 232 1                 # /usr/include/c++/9/bits/basic_string.h:232:1
	callq	_ZdlPv
	.cfi_escape 0x2e, 0x00
	movq	%r14, %rdi
	callq	_Unwind_Resume
.Ltmp440:
.LBB2_158:                              # %L_T47798224_38685
	#DEBUG_VALUE: __dnew <- [DW_OP_constu 56, DW_OP_minus, DW_OP_deref] $rbp
	#DEBUG_VALUE: ....inline.__FILL_CHARARRAY <- [DW_OP_LLVM_convert 32 7, DW_OP_LLVM_convert 8 7, DW_OP_stack_value] 0
	#DEBUG_VALUE: _M_construct: <- [DW_OP_constu 288, DW_OP_minus, DW_OP_stack_value] $rbp
	#DEBUG_VALUE:  <- [DW_OP_constu 288, DW_OP_minus, DW_OP_stack_value] $rbp
	#DEBUG_VALUE: cpu_accelerate_cell:spatial_cell <- $r14
	#DEBUG_VALUE: cpu_accelerate_cell:popID <- $r13d
	#DEBUG_VALUE: cpu_accelerate_cell:map_order <- $r15d
	#DEBUG_VALUE: cpu_accelerate_cell:order_step <- [DW_OP_constu 252, DW_OP_minus] [$rbp+0]
	#DEBUG_VALUE: cpu_accelerate_cell:dt <- $rbx
	#DEBUG_VALUE: popID <- $r13d
	#DEBUG_VALUE: spatial_cell <- $r14
	#DEBUG_VALUE: cpu_accelerate_cell:useAccelerator <- [DW_OP_constu 92, DW_OP_minus] [$rbp+0]
.Ltmp10:
.LBB2_159:                              # %unwind_resume
	#DEBUG_VALUE: ....inline.__FILL_CHARARRAY <- [DW_OP_LLVM_convert 32 7, DW_OP_LLVM_convert 8 7, DW_OP_stack_value] 0
	#DEBUG_VALUE: cpu_accelerate_cell:order_step <- [DW_OP_constu 252, DW_OP_minus] [$rbp+0]
	#DEBUG_VALUE: cpu_accelerate_cell:useAccelerator <- [DW_OP_constu 92, DW_OP_minus] [$rbp+0]
	.loc	8 0 1 is_stmt 0         # /usr/include/c++/9/bits/basic_string.h:0:1
	movq	%rax, %r14
.Ltmp441:
.LBB2_160:                              # %unwind_resume
	#DEBUG_VALUE: ....inline.__FILL_CHARARRAY <- [DW_OP_LLVM_convert 32 7, DW_OP_LLVM_convert 8 7, DW_OP_stack_value] 0
	#DEBUG_VALUE: cpu_accelerate_cell:order_step <- [DW_OP_constu 252, DW_OP_minus] [$rbp+0]
	#DEBUG_VALUE: cpu_accelerate_cell:useAccelerator <- [DW_OP_constu 92, DW_OP_minus] [$rbp+0]
	.cfi_escape 0x2e, 0x00
	movq	%r14, %rdi
	callq	_Unwind_Resume
.Lfunc_end2:
	.size	_Z19cpu_accelerate_cellPN12spatial_cell11SpatialCellEjjjRKdb, .Lfunc_end2-_Z19cpu_accelerate_cellPN12spatial_cell11SpatialCellEjjjRKdb
	.cfi_endproc
	.file	9 "/home/talgat/libs/eigen/Eigen/src/Core/CwiseNullaryOp.h"
	.file	10 "/home/talgat/libs/eigen/Eigen/src/Core/PlainObjectBase.h"
	.section	.gcc_except_table,"a",@progbits
	.p2align	2
GCC_except_table2:
.Lexception0:
	.byte	255                     # @LPStart Encoding = omit
	.byte	255                     # @TType Encoding = omit
	.byte	1                       # Call site Encoding = uleb128
	.uleb128 .Lcst_end0-.Lcst_begin0
.Lcst_begin0:
	.uleb128 .Lfunc_begin2-.Lfunc_begin2 # >> Call Site 1 <<
	.uleb128 .Ltmp8-.Lfunc_begin2   #   Call between .Lfunc_begin2 and .Ltmp8
	.byte	0                       #     has no landing pad
	.byte	0                       #   On action: cleanup
	.uleb128 .Ltmp8-.Lfunc_begin2   # >> Call Site 2 <<
	.uleb128 .Ltmp9-.Ltmp8          #   Call between .Ltmp8 and .Ltmp9
	.uleb128 .Ltmp10-.Lfunc_begin2  #     jumps to .Ltmp10
	.byte	0                       #   On action: cleanup
	.uleb128 .Ltmp11-.Lfunc_begin2  # >> Call Site 3 <<
	.uleb128 .Ltmp12-.Ltmp11        #   Call between .Ltmp11 and .Ltmp12
	.uleb128 .Ltmp13-.Lfunc_begin2  #     jumps to .Ltmp13
	.byte	0                       #   On action: cleanup
	.uleb128 .Ltmp12-.Lfunc_begin2  # >> Call Site 4 <<
	.uleb128 .Ltmp14-.Ltmp12        #   Call between .Ltmp12 and .Ltmp14
	.byte	0                       #     has no landing pad
	.byte	0                       #   On action: cleanup
	.uleb128 .Ltmp14-.Lfunc_begin2  # >> Call Site 5 <<
	.uleb128 .Ltmp15-.Ltmp14        #   Call between .Ltmp14 and .Ltmp15
	.uleb128 .Ltmp16-.Lfunc_begin2  #     jumps to .Ltmp16
	.byte	0                       #   On action: cleanup
	.uleb128 .Ltmp17-.Lfunc_begin2  # >> Call Site 6 <<
	.uleb128 .Ltmp18-.Ltmp17        #   Call between .Ltmp17 and .Ltmp18
	.uleb128 .Ltmp19-.Lfunc_begin2  #     jumps to .Ltmp19
	.byte	0                       #   On action: cleanup
	.uleb128 .Ltmp18-.Lfunc_begin2  # >> Call Site 7 <<
	.uleb128 .Ltmp20-.Ltmp18        #   Call between .Ltmp18 and .Ltmp20
	.byte	0                       #     has no landing pad
	.byte	0                       #   On action: cleanup
	.uleb128 .Ltmp20-.Lfunc_begin2  # >> Call Site 8 <<
	.uleb128 .Ltmp21-.Ltmp20        #   Call between .Ltmp20 and .Ltmp21
	.uleb128 .Ltmp22-.Lfunc_begin2  #     jumps to .Ltmp22
	.byte	0                       #   On action: cleanup
	.uleb128 .Ltmp23-.Lfunc_begin2  # >> Call Site 9 <<
	.uleb128 .Ltmp24-.Ltmp23        #   Call between .Ltmp23 and .Ltmp24
	.uleb128 .Ltmp25-.Lfunc_begin2  #     jumps to .Ltmp25
	.byte	0                       #   On action: cleanup
	.uleb128 .Ltmp24-.Lfunc_begin2  # >> Call Site 10 <<
	.uleb128 .Ltmp56-.Ltmp24        #   Call between .Ltmp24 and .Ltmp56
	.byte	0                       #     has no landing pad
	.byte	0                       #   On action: cleanup
	.uleb128 .Ltmp56-.Lfunc_begin2  # >> Call Site 11 <<
	.uleb128 .Ltmp57-.Ltmp56        #   Call between .Ltmp56 and .Ltmp57
	.uleb128 .Ltmp58-.Lfunc_begin2  #     jumps to .Ltmp58
	.byte	0                       #   On action: cleanup
	.uleb128 .Ltmp59-.Lfunc_begin2  # >> Call Site 12 <<
	.uleb128 .Ltmp60-.Ltmp59        #   Call between .Ltmp59 and .Ltmp60
	.uleb128 .Ltmp61-.Lfunc_begin2  #     jumps to .Ltmp61
	.byte	0                       #   On action: cleanup
	.uleb128 .Ltmp60-.Lfunc_begin2  # >> Call Site 13 <<
	.uleb128 .Ltmp38-.Ltmp60        #   Call between .Ltmp60 and .Ltmp38
	.byte	0                       #     has no landing pad
	.byte	0                       #   On action: cleanup
	.uleb128 .Ltmp38-.Lfunc_begin2  # >> Call Site 14 <<
	.uleb128 .Ltmp39-.Ltmp38        #   Call between .Ltmp38 and .Ltmp39
	.uleb128 .Ltmp40-.Lfunc_begin2  #     jumps to .Ltmp40
	.byte	0                       #   On action: cleanup
	.uleb128 .Ltmp41-.Lfunc_begin2  # >> Call Site 15 <<
	.uleb128 .Ltmp42-.Ltmp41        #   Call between .Ltmp41 and .Ltmp42
	.uleb128 .Ltmp43-.Lfunc_begin2  #     jumps to .Ltmp43
	.byte	0                       #   On action: cleanup
	.uleb128 .Ltmp42-.Lfunc_begin2  # >> Call Site 16 <<
	.uleb128 .Ltmp26-.Ltmp42        #   Call between .Ltmp42 and .Ltmp26
	.byte	0                       #     has no landing pad
	.byte	0                       #   On action: cleanup
	.uleb128 .Ltmp26-.Lfunc_begin2  # >> Call Site 17 <<
	.uleb128 .Ltmp27-.Ltmp26        #   Call between .Ltmp26 and .Ltmp27
	.uleb128 .Ltmp28-.Lfunc_begin2  #     jumps to .Ltmp28
	.byte	0                       #   On action: cleanup
	.uleb128 .Ltmp29-.Lfunc_begin2  # >> Call Site 18 <<
	.uleb128 .Ltmp30-.Ltmp29        #   Call between .Ltmp29 and .Ltmp30
	.uleb128 .Ltmp31-.Lfunc_begin2  #     jumps to .Ltmp31
	.byte	0                       #   On action: cleanup
	.uleb128 .Ltmp30-.Lfunc_begin2  # >> Call Site 19 <<
	.uleb128 .Ltmp32-.Ltmp30        #   Call between .Ltmp30 and .Ltmp32
	.byte	0                       #     has no landing pad
	.byte	0                       #   On action: cleanup
	.uleb128 .Ltmp32-.Lfunc_begin2  # >> Call Site 20 <<
	.uleb128 .Ltmp33-.Ltmp32        #   Call between .Ltmp32 and .Ltmp33
	.uleb128 .Ltmp34-.Lfunc_begin2  #     jumps to .Ltmp34
	.byte	0                       #   On action: cleanup
	.uleb128 .Ltmp33-.Lfunc_begin2  # >> Call Site 21 <<
	.uleb128 .Ltmp35-.Ltmp33        #   Call between .Ltmp33 and .Ltmp35
	.byte	0                       #     has no landing pad
	.byte	0                       #   On action: cleanup
	.uleb128 .Ltmp35-.Lfunc_begin2  # >> Call Site 22 <<
	.uleb128 .Ltmp36-.Ltmp35        #   Call between .Ltmp35 and .Ltmp36
	.uleb128 .Ltmp37-.Lfunc_begin2  #     jumps to .Ltmp37
	.byte	0                       #   On action: cleanup
	.uleb128 .Ltmp36-.Lfunc_begin2  # >> Call Site 23 <<
	.uleb128 .Ltmp62-.Ltmp36        #   Call between .Ltmp36 and .Ltmp62
	.byte	0                       #     has no landing pad
	.byte	0                       #   On action: cleanup
	.uleb128 .Ltmp62-.Lfunc_begin2  # >> Call Site 24 <<
	.uleb128 .Ltmp63-.Ltmp62        #   Call between .Ltmp62 and .Ltmp63
	.uleb128 .Ltmp64-.Lfunc_begin2  #     jumps to .Ltmp64
	.byte	0                       #   On action: cleanup
	.uleb128 .Ltmp65-.Lfunc_begin2  # >> Call Site 25 <<
	.uleb128 .Ltmp66-.Ltmp65        #   Call between .Ltmp65 and .Ltmp66
	.uleb128 .Ltmp67-.Lfunc_begin2  #     jumps to .Ltmp67
	.byte	0                       #   On action: cleanup
	.uleb128 .Ltmp66-.Lfunc_begin2  # >> Call Site 26 <<
	.uleb128 .Ltmp68-.Ltmp66        #   Call between .Ltmp66 and .Ltmp68
	.byte	0                       #     has no landing pad
	.byte	0                       #   On action: cleanup
	.uleb128 .Ltmp68-.Lfunc_begin2  # >> Call Site 27 <<
	.uleb128 .Ltmp69-.Ltmp68        #   Call between .Ltmp68 and .Ltmp69
	.uleb128 .Ltmp70-.Lfunc_begin2  #     jumps to .Ltmp70
	.byte	0                       #   On action: cleanup
	.uleb128 .Ltmp69-.Lfunc_begin2  # >> Call Site 28 <<
	.uleb128 .Ltmp71-.Ltmp69        #   Call between .Ltmp69 and .Ltmp71
	.byte	0                       #     has no landing pad
	.byte	0                       #   On action: cleanup
	.uleb128 .Ltmp71-.Lfunc_begin2  # >> Call Site 29 <<
	.uleb128 .Ltmp72-.Ltmp71        #   Call between .Ltmp71 and .Ltmp72
	.uleb128 .Ltmp73-.Lfunc_begin2  #     jumps to .Ltmp73
	.byte	0                       #   On action: cleanup
	.uleb128 .Ltmp72-.Lfunc_begin2  # >> Call Site 30 <<
	.uleb128 .Ltmp44-.Ltmp72        #   Call between .Ltmp72 and .Ltmp44
	.byte	0                       #     has no landing pad
	.byte	0                       #   On action: cleanup
	.uleb128 .Ltmp44-.Lfunc_begin2  # >> Call Site 31 <<
	.uleb128 .Ltmp45-.Ltmp44        #   Call between .Ltmp44 and .Ltmp45
	.uleb128 .Ltmp46-.Lfunc_begin2  #     jumps to .Ltmp46
	.byte	0                       #   On action: cleanup
	.uleb128 .Ltmp47-.Lfunc_begin2  # >> Call Site 32 <<
	.uleb128 .Ltmp48-.Ltmp47        #   Call between .Ltmp47 and .Ltmp48
	.uleb128 .Ltmp49-.Lfunc_begin2  #     jumps to .Ltmp49
	.byte	0                       #   On action: cleanup
	.uleb128 .Ltmp48-.Lfunc_begin2  # >> Call Site 33 <<
	.uleb128 .Ltmp50-.Ltmp48        #   Call between .Ltmp48 and .Ltmp50
	.byte	0                       #     has no landing pad
	.byte	0                       #   On action: cleanup
	.uleb128 .Ltmp50-.Lfunc_begin2  # >> Call Site 34 <<
	.uleb128 .Ltmp51-.Ltmp50        #   Call between .Ltmp50 and .Ltmp51
	.uleb128 .Ltmp52-.Lfunc_begin2  #     jumps to .Ltmp52
	.byte	0                       #   On action: cleanup
	.uleb128 .Ltmp51-.Lfunc_begin2  # >> Call Site 35 <<
	.uleb128 .Ltmp53-.Ltmp51        #   Call between .Ltmp51 and .Ltmp53
	.byte	0                       #     has no landing pad
	.byte	0                       #   On action: cleanup
	.uleb128 .Ltmp53-.Lfunc_begin2  # >> Call Site 36 <<
	.uleb128 .Ltmp54-.Ltmp53        #   Call between .Ltmp53 and .Ltmp54
	.uleb128 .Ltmp55-.Lfunc_begin2  #     jumps to .Ltmp55
	.byte	0                       #   On action: cleanup
	.uleb128 .Ltmp54-.Lfunc_begin2  # >> Call Site 37 <<
	.uleb128 .Lfunc_end2-.Ltmp54    #   Call between .Ltmp54 and .Lfunc_end2
	.byte	0                       #     has no landing pad
	.byte	0                       #   On action: cleanup
.Lcst_end0:
	.p2align	2
                                        # -- End function
	.text
	.weak	_ZN10Vec4SimpleIiEC1Ev  # -- Begin function _ZN10Vec4SimpleIiEC1Ev
	.p2align	4, 0x90
	.type	_ZN10Vec4SimpleIiEC1Ev,@function
_ZN10Vec4SimpleIiEC1Ev:                 # @_ZN10Vec4SimpleIiEC1Ev
.Lfunc_begin3:
	.file	11 "/home/talgat/vlasiator/vlasovsolver/vectorclass_fallback.cu"
	.loc	11 46 0 is_stmt 1       # vlasovsolver/vectorclass_fallback.cu:46:0
	.cfi_startproc
# %bb.0:                                # %L.entry
	#DEBUG_VALUE: Vec4Simple: <- $rdi
	pushq	%rbp
	.cfi_def_cfa_offset 16
	.cfi_offset %rbp, -16
	movq	%rsp, %rbp
	.cfi_def_cfa_register %rbp
.Ltmp442:
	#DEBUG_VALUE:  <- $rdi
	.loc	11 46 1 prologue_end    # vlasovsolver/vectorclass_fallback.cu:46:1
	popq	%rbp
	.cfi_def_cfa %rsp, 8
	retq
.Ltmp443:
.Lfunc_end3:
	.size	_ZN10Vec4SimpleIiEC1Ev, .Lfunc_end3-_ZN10Vec4SimpleIiEC1Ev
	.cfi_endproc
                                        # -- End function
	.weak	_ZN10Vec4SimpleIiEC2Ev  # -- Begin function _ZN10Vec4SimpleIiEC2Ev
	.p2align	4, 0x90
	.type	_ZN10Vec4SimpleIiEC2Ev,@function
_ZN10Vec4SimpleIiEC2Ev:                 # @_ZN10Vec4SimpleIiEC2Ev
.Lfunc_begin4:
	.loc	1 0 0                   # vlasovsolver/cpu_acc_semilag.cpp:0:0
	.cfi_startproc
# %bb.0:                                # %L.entry
	pushq	%rbp
	.cfi_def_cfa_offset 16
	.cfi_offset %rbp, -16
	movq	%rsp, %rbp
	.cfi_def_cfa_register %rbp
.Ltmp444:
	.loc	1 46 1 prologue_end     # vlasovsolver/cpu_acc_semilag.cpp:46:1
	popq	%rbp
	.cfi_def_cfa %rsp, 8
	retq
.Ltmp445:
.Lfunc_end4:
	.size	_ZN10Vec4SimpleIiEC2Ev, .Lfunc_end4-_ZN10Vec4SimpleIiEC2Ev
	.cfi_endproc
                                        # -- End function
	.weak	_ZN10Vec4SimpleIiEC1EPi # -- Begin function _ZN10Vec4SimpleIiEC1EPi
	.p2align	4, 0x90
	.type	_ZN10Vec4SimpleIiEC1EPi,@function
_ZN10Vec4SimpleIiEC1EPi:                # @_ZN10Vec4SimpleIiEC1EPi
.Lfunc_begin5:
	.loc	11 48 0                 # vlasovsolver/vectorclass_fallback.cu:48:0
	.cfi_startproc
# %bb.0:                                # %L.entry
	#DEBUG_VALUE: Vec4Simple: <- $rdi
	#DEBUG_VALUE: Vec4Simple: <- $rdi
	#DEBUG_VALUE: Vec4Simple:p <- $rsi
	#DEBUG_VALUE: Vec4Simple:p <- $rsi
	pushq	%rbp
	.cfi_def_cfa_offset 16
	.cfi_offset %rbp, -16
	movq	%rsp, %rbp
	.cfi_def_cfa_register %rbp
.Ltmp446:
	#DEBUG_VALUE:  <- $rdi
	#DEBUG_VALUE:  <- $rdi
	#DEBUG_VALUE: p <- $rsi
	#DEBUG_VALUE: p <- $rsi
	.loc	11 48 1 prologue_end    # vlasovsolver/vectorclass_fallback.cu:48:1
	movq	%rsi, (%rdi)
	popq	%rbp
	.cfi_def_cfa %rsp, 8
	retq
.Ltmp447:
.Lfunc_end5:
	.size	_ZN10Vec4SimpleIiEC1EPi, .Lfunc_end5-_ZN10Vec4SimpleIiEC1EPi
	.cfi_endproc
                                        # -- End function
	.weak	_ZN10Vec4SimpleIiEC2EPi # -- Begin function _ZN10Vec4SimpleIiEC2EPi
	.p2align	4, 0x90
	.type	_ZN10Vec4SimpleIiEC2EPi,@function
_ZN10Vec4SimpleIiEC2EPi:                # @_ZN10Vec4SimpleIiEC2EPi
.Lfunc_begin6:
	.loc	1 0 0                   # vlasovsolver/cpu_acc_semilag.cpp:0:0
	.cfi_startproc
# %bb.0:                                # %L.entry
	pushq	%rbp
	.cfi_def_cfa_offset 16
	.cfi_offset %rbp, -16
	movq	%rsp, %rbp
	.cfi_def_cfa_register %rbp
.Ltmp448:
	.loc	1 48 1 prologue_end     # vlasovsolver/cpu_acc_semilag.cpp:48:1
	movq	%rsi, (%rdi)
	popq	%rbp
	.cfi_def_cfa %rsp, 8
	retq
.Ltmp449:
.Lfunc_end6:
	.size	_ZN10Vec4SimpleIiEC2EPi, .Lfunc_end6-_ZN10Vec4SimpleIiEC2EPi
	.cfi_endproc
                                        # -- End function
	.weak	_ZN10Vec4SimpleIiEC1Ei  # -- Begin function _ZN10Vec4SimpleIiEC1Ei
	.p2align	4, 0x90
	.type	_ZN10Vec4SimpleIiEC1Ei,@function
_ZN10Vec4SimpleIiEC1Ei:                 # @_ZN10Vec4SimpleIiEC1Ei
.Lfunc_begin7:
	.loc	11 54 0                 # vlasovsolver/vectorclass_fallback.cu:54:0
	.cfi_startproc
# %bb.0:                                # %L.entry
	#DEBUG_VALUE: Vec4Simple: <- $rdi
	#DEBUG_VALUE: Vec4Simple: <- $rdi
	#DEBUG_VALUE: Vec4Simple:x <- $esi
	#DEBUG_VALUE: Vec4Simple:x <- $esi
	pushq	%rbp
	.cfi_def_cfa_offset 16
	.cfi_offset %rbp, -16
	movq	%rsp, %rbp
	.cfi_def_cfa_register %rbp
.Ltmp450:
	#DEBUG_VALUE:  <- $rdi
	#DEBUG_VALUE:  <- $rdi
	#DEBUG_VALUE: x <- $esi
	#DEBUG_VALUE: x <- $esi
	.loc	11 56 1 prologue_end    # vlasovsolver/vectorclass_fallback.cu:56:1
	vmovd	%esi, %xmm0
	vpbroadcastd	%xmm0, %xmm0
	vmovdqu	%xmm0, 32(%rdi)
.Ltmp451:
	.loc	11 57 1                 # vlasovsolver/vectorclass_fallback.cu:57:1
	popq	%rbp
	.cfi_def_cfa %rsp, 8
	retq
.Ltmp452:
.Lfunc_end7:
	.size	_ZN10Vec4SimpleIiEC1Ei, .Lfunc_end7-_ZN10Vec4SimpleIiEC1Ei
	.cfi_endproc
                                        # -- End function
	.weak	_ZN10Vec4SimpleIiEC2Ei  # -- Begin function _ZN10Vec4SimpleIiEC2Ei
	.p2align	4, 0x90
	.type	_ZN10Vec4SimpleIiEC2Ei,@function
_ZN10Vec4SimpleIiEC2Ei:                 # @_ZN10Vec4SimpleIiEC2Ei
.Lfunc_begin8:
	.loc	1 0 0                   # vlasovsolver/cpu_acc_semilag.cpp:0:0
	.cfi_startproc
# %bb.0:                                # %L.entry
	pushq	%rbp
	.cfi_def_cfa_offset 16
	.cfi_offset %rbp, -16
	movq	%rsp, %rbp
	.cfi_def_cfa_register %rbp
.Ltmp453:
	.loc	1 55 1 prologue_end     # vlasovsolver/cpu_acc_semilag.cpp:55:1
	vmovd	%esi, %xmm0
	vpbroadcastd	%xmm0, %xmm0
	vmovdqu	%xmm0, 32(%rdi)
.Ltmp454:
	.loc	1 57 1                  # vlasovsolver/cpu_acc_semilag.cpp:57:1
	popq	%rbp
	.cfi_def_cfa %rsp, 8
	retq
.Ltmp455:
.Lfunc_end8:
	.size	_ZN10Vec4SimpleIiEC2Ei, .Lfunc_end8-_ZN10Vec4SimpleIiEC2Ei
	.cfi_endproc
                                        # -- End function
	.weak	_ZN10Vec4SimpleIiEC1Eiiii # -- Begin function _ZN10Vec4SimpleIiEC1Eiiii
	.p2align	4, 0x90
	.type	_ZN10Vec4SimpleIiEC1Eiiii,@function
_ZN10Vec4SimpleIiEC1Eiiii:              # @_ZN10Vec4SimpleIiEC1Eiiii
.Lfunc_begin9:
	.loc	11 60 0                 # vlasovsolver/vectorclass_fallback.cu:60:0
	.cfi_startproc
# %bb.0:                                # %L.entry
	#DEBUG_VALUE: Vec4Simple: <- $rdi
	#DEBUG_VALUE: Vec4Simple: <- $rdi
	#DEBUG_VALUE: Vec4Simple:a <- $esi
	#DEBUG_VALUE: Vec4Simple:a <- $esi
	#DEBUG_VALUE: Vec4Simple:b <- $edx
	#DEBUG_VALUE: Vec4Simple:b <- $edx
	#DEBUG_VALUE: Vec4Simple:c <- $ecx
	#DEBUG_VALUE: Vec4Simple:c <- $ecx
	#DEBUG_VALUE: Vec4Simple:d <- $r8d
	#DEBUG_VALUE: Vec4Simple:d <- $r8d
	pushq	%rbp
	.cfi_def_cfa_offset 16
	.cfi_offset %rbp, -16
	movq	%rsp, %rbp
	.cfi_def_cfa_register %rbp
.Ltmp456:
	#DEBUG_VALUE:  <- $rdi
	#DEBUG_VALUE:  <- $rdi
	#DEBUG_VALUE: a <- $esi
	#DEBUG_VALUE: a <- $esi
	#DEBUG_VALUE: b <- $edx
	#DEBUG_VALUE: b <- $edx
	#DEBUG_VALUE: c <- $ecx
	#DEBUG_VALUE: c <- $ecx
	#DEBUG_VALUE: d <- $r8d
	#DEBUG_VALUE: d <- $r8d
	.loc	11 61 1 prologue_end    # vlasovsolver/vectorclass_fallback.cu:61:1
	movl	%esi, 32(%rdi)
	.loc	11 62 1                 # vlasovsolver/vectorclass_fallback.cu:62:1
	movl	%edx, 36(%rdi)
	.loc	11 63 1                 # vlasovsolver/vectorclass_fallback.cu:63:1
	movl	%ecx, 40(%rdi)
	.loc	11 64 1                 # vlasovsolver/vectorclass_fallback.cu:64:1
	movl	%r8d, 44(%rdi)
	.loc	11 65 1                 # vlasovsolver/vectorclass_fallback.cu:65:1
	popq	%rbp
	.cfi_def_cfa %rsp, 8
	retq
.Ltmp457:
.Lfunc_end9:
	.size	_ZN10Vec4SimpleIiEC1Eiiii, .Lfunc_end9-_ZN10Vec4SimpleIiEC1Eiiii
	.cfi_endproc
                                        # -- End function
	.weak	_ZN10Vec4SimpleIiEC2Eiiii # -- Begin function _ZN10Vec4SimpleIiEC2Eiiii
	.p2align	4, 0x90
	.type	_ZN10Vec4SimpleIiEC2Eiiii,@function
_ZN10Vec4SimpleIiEC2Eiiii:              # @_ZN10Vec4SimpleIiEC2Eiiii
.Lfunc_begin10:
	.loc	1 0 0                   # vlasovsolver/cpu_acc_semilag.cpp:0:0
	.cfi_startproc
# %bb.0:                                # %L.entry
	pushq	%rbp
	.cfi_def_cfa_offset 16
	.cfi_offset %rbp, -16
	movq	%rsp, %rbp
	.cfi_def_cfa_register %rbp
.Ltmp458:
	.loc	1 65 1 prologue_end     # vlasovsolver/cpu_acc_semilag.cpp:65:1
	movl	%esi, 32(%rdi)
	.loc	1 61 1                  # vlasovsolver/cpu_acc_semilag.cpp:61:1
	movl	%edx, 36(%rdi)
	.loc	1 62 1                  # vlasovsolver/cpu_acc_semilag.cpp:62:1
	movl	%ecx, 40(%rdi)
	.loc	1 63 1                  # vlasovsolver/cpu_acc_semilag.cpp:63:1
	movl	%r8d, 44(%rdi)
	.loc	1 65 1                  # vlasovsolver/cpu_acc_semilag.cpp:65:1
	popq	%rbp
	.cfi_def_cfa %rsp, 8
	retq
.Ltmp459:
.Lfunc_end10:
	.size	_ZN10Vec4SimpleIiEC2Eiiii, .Lfunc_end10-_ZN10Vec4SimpleIiEC2Eiiii
	.cfi_endproc
                                        # -- End function
	.weak	_ZN10Vec4SimpleIiEC1ERKS0_ # -- Begin function _ZN10Vec4SimpleIiEC1ERKS0_
	.p2align	4, 0x90
	.type	_ZN10Vec4SimpleIiEC1ERKS0_,@function
_ZN10Vec4SimpleIiEC1ERKS0_:             # @_ZN10Vec4SimpleIiEC1ERKS0_
.Lfunc_begin11:
	.loc	11 68 0                 # vlasovsolver/vectorclass_fallback.cu:68:0
	.cfi_startproc
# %bb.0:                                # %L.entry
	#DEBUG_VALUE: Vec4Simple: <- $rdi
	#DEBUG_VALUE: Vec4Simple: <- $rdi
	#DEBUG_VALUE: Vec4Simple:x <- $rsi
	#DEBUG_VALUE: Vec4Simple:x <- $rsi
	pushq	%rbp
	.cfi_def_cfa_offset 16
	.cfi_offset %rbp, -16
	movq	%rsp, %rbp
	.cfi_def_cfa_register %rbp
.Ltmp460:
	#DEBUG_VALUE:  <- $rdi
	#DEBUG_VALUE:  <- $rdi
	#DEBUG_VALUE: x <- $rsi
	#DEBUG_VALUE: x <- $rsi
	.loc	11 70 1 prologue_end    # vlasovsolver/vectorclass_fallback.cu:70:1
	movl	32(%rsi), %eax
	movl	%eax, 32(%rdi)
	.loc	11 69 1                 # vlasovsolver/vectorclass_fallback.cu:69:1
	movl	36(%rsi), %eax
	movl	%eax, 36(%rdi)
	movl	40(%rsi), %eax
	movl	%eax, 40(%rdi)
	movl	44(%rsi), %eax
	movl	%eax, 44(%rdi)
.Ltmp461:
	.loc	11 71 1                 # vlasovsolver/vectorclass_fallback.cu:71:1
	popq	%rbp
	.cfi_def_cfa %rsp, 8
	retq
.Ltmp462:
.Lfunc_end11:
	.size	_ZN10Vec4SimpleIiEC1ERKS0_, .Lfunc_end11-_ZN10Vec4SimpleIiEC1ERKS0_
	.cfi_endproc
                                        # -- End function
	.weak	_ZN10Vec4SimpleIiEC2ERKS0_ # -- Begin function _ZN10Vec4SimpleIiEC2ERKS0_
	.p2align	4, 0x90
	.type	_ZN10Vec4SimpleIiEC2ERKS0_,@function
_ZN10Vec4SimpleIiEC2ERKS0_:             # @_ZN10Vec4SimpleIiEC2ERKS0_
.Lfunc_begin12:
	.loc	1 0 0                   # vlasovsolver/cpu_acc_semilag.cpp:0:0
	.cfi_startproc
# %bb.0:                                # %L.entry
	pushq	%rbp
	.cfi_def_cfa_offset 16
	.cfi_offset %rbp, -16
	movq	%rsp, %rbp
	.cfi_def_cfa_register %rbp
.Ltmp463:
	.loc	1 69 1 prologue_end     # vlasovsolver/cpu_acc_semilag.cpp:69:1
	movl	32(%rsi), %eax
	movl	%eax, 32(%rdi)
	movl	36(%rsi), %eax
	movl	%eax, 36(%rdi)
	movl	40(%rsi), %eax
	movl	%eax, 40(%rdi)
	movl	44(%rsi), %eax
	movl	%eax, 44(%rdi)
.Ltmp464:
	.loc	1 71 1                  # vlasovsolver/cpu_acc_semilag.cpp:71:1
	popq	%rbp
	.cfi_def_cfa %rsp, 8
	retq
.Ltmp465:
.Lfunc_end12:
	.size	_ZN10Vec4SimpleIiEC2ERKS0_, .Lfunc_end12-_ZN10Vec4SimpleIiEC2ERKS0_
	.cfi_endproc
                                        # -- End function
	.weak	_ZN10Vec4SimpleIiE4loadEPKi # -- Begin function _ZN10Vec4SimpleIiE4loadEPKi
	.p2align	4, 0x90
	.type	_ZN10Vec4SimpleIiE4loadEPKi,@function
_ZN10Vec4SimpleIiE4loadEPKi:            # @_ZN10Vec4SimpleIiE4loadEPKi
.Lfunc_begin13:
	.loc	11 76 0                 # vlasovsolver/vectorclass_fallback.cu:76:0
	.cfi_startproc
# %bb.0:                                # %L.entry
	#DEBUG_VALUE: load: <- $rdi
	#DEBUG_VALUE: load:p <- $rsi
	pushq	%rbp
	.cfi_def_cfa_offset 16
	.cfi_offset %rbp, -16
	movq	%rsp, %rbp
	.cfi_def_cfa_register %rbp
.Ltmp466:
	#DEBUG_VALUE:  <- $rdi
	#DEBUG_VALUE: p <- $rsi
	movq	%rdi, %rax
	#DEBUG_VALUE: p <- $rsi
	#DEBUG_VALUE: load:p <- $rsi
.Ltmp467:
	#DEBUG_VALUE:  <- $rax
	#DEBUG_VALUE: load: <- $rax
	.loc	11 78 1 prologue_end    # vlasovsolver/vectorclass_fallback.cu:78:1
	movl	(%rsi), %ecx
	movl	%ecx, 32(%rdi)
	.loc	11 77 1                 # vlasovsolver/vectorclass_fallback.cu:77:1
	movl	4(%rsi), %ecx
	movl	%ecx, 36(%rdi)
	movl	8(%rsi), %ecx
	movl	%ecx, 40(%rdi)
	movl	12(%rsi), %ecx
	movl	%ecx, 44(%rdi)
.Ltmp468:
	.loc	11 79 1                 # vlasovsolver/vectorclass_fallback.cu:79:1
	popq	%rbp
	.cfi_def_cfa %rsp, 8
	retq
.Ltmp469:
.Lfunc_end13:
	.size	_ZN10Vec4SimpleIiE4loadEPKi, .Lfunc_end13-_ZN10Vec4SimpleIiE4loadEPKi
	.cfi_endproc
                                        # -- End function
	.weak	_ZN10Vec4SimpleIiE6load_aEPKi # -- Begin function _ZN10Vec4SimpleIiE6load_aEPKi
	.p2align	4, 0x90
	.type	_ZN10Vec4SimpleIiE6load_aEPKi,@function
_ZN10Vec4SimpleIiE6load_aEPKi:          # @_ZN10Vec4SimpleIiE6load_aEPKi
.Lfunc_begin14:
	.loc	11 85 0                 # vlasovsolver/vectorclass_fallback.cu:85:0
	.cfi_startproc
# %bb.0:                                # %L.entry
	#DEBUG_VALUE: load_a: <- $rdi
	#DEBUG_VALUE: load_a:p <- $rsi
	pushq	%rbp
	.cfi_def_cfa_offset 16
	.cfi_offset %rbp, -16
	movq	%rsp, %rbp
	.cfi_def_cfa_register %rbp
.Ltmp470:
	#DEBUG_VALUE:  <- $rdi
	#DEBUG_VALUE: p <- $rsi
	movq	%rdi, %rax
	#DEBUG_VALUE: p <- $rsi
	#DEBUG_VALUE: load_a:p <- $rsi
.Ltmp471:
	#DEBUG_VALUE:  <- $rax
	#DEBUG_VALUE: load_a: <- $rax
	.loc	11 77 1 prologue_end    # vlasovsolver/vectorclass_fallback.cu:77:1
	movl	(%rsi), %ecx
	movl	%ecx, 32(%rdi)
	movl	4(%rsi), %ecx
	movl	%ecx, 36(%rdi)
	movl	8(%rsi), %ecx
	movl	%ecx, 40(%rdi)
	movl	12(%rsi), %ecx
	movl	%ecx, 44(%rdi)
.Ltmp472:
	.loc	11 80 1                 # vlasovsolver/vectorclass_fallback.cu:80:1
	popq	%rbp
	.cfi_def_cfa %rsp, 8
	retq
.Ltmp473:
.Lfunc_end14:
	.size	_ZN10Vec4SimpleIiE6load_aEPKi, .Lfunc_end14-_ZN10Vec4SimpleIiE6load_aEPKi
	.cfi_endproc
                                        # -- End function
	.weak	_ZN10Vec4SimpleIiE6insertEiRKi # -- Begin function _ZN10Vec4SimpleIiE6insertEiRKi
	.p2align	4, 0x90
	.type	_ZN10Vec4SimpleIiE6insertEiRKi,@function
_ZN10Vec4SimpleIiE6insertEiRKi:         # @_ZN10Vec4SimpleIiE6insertEiRKi
.Lfunc_begin15:
	.loc	11 91 0                 # vlasovsolver/vectorclass_fallback.cu:91:0
	.cfi_startproc
# %bb.0:                                # %L.entry
	#DEBUG_VALUE: insert: <- $rdi
	#DEBUG_VALUE: insert:i <- $esi
	#DEBUG_VALUE: insert:x <- $rdx
	pushq	%rbp
	.cfi_def_cfa_offset 16
	.cfi_offset %rbp, -16
	movq	%rsp, %rbp
	.cfi_def_cfa_register %rbp
.Ltmp474:
	#DEBUG_VALUE:  <- $rdi
	#DEBUG_VALUE: i <- $esi
	#DEBUG_VALUE: x <- $rdx
	movq	%rdi, %rax
	#DEBUG_VALUE: x <- $rdx
	#DEBUG_VALUE: insert:x <- $rdx
	#DEBUG_VALUE: i <- $esi
	#DEBUG_VALUE: insert:i <- $esi
.Ltmp475:
	#DEBUG_VALUE:  <- $rax
	#DEBUG_VALUE: insert: <- $rax
	.loc	11 92 1 prologue_end    # vlasovsolver/vectorclass_fallback.cu:92:1
	movl	(%rdx), %ecx
	movslq	%esi, %rdx
.Ltmp476:
	movl	%ecx, 32(%rdi,%rdx,4)
	.loc	11 93 1                 # vlasovsolver/vectorclass_fallback.cu:93:1
	popq	%rbp
	.cfi_def_cfa %rsp, 8
	retq
.Ltmp477:
.Lfunc_end15:
	.size	_ZN10Vec4SimpleIiE6insertEiRKi, .Lfunc_end15-_ZN10Vec4SimpleIiE6insertEiRKi
	.cfi_endproc
                                        # -- End function
	.weak	_ZNK10Vec4SimpleIiE5storeEPi # -- Begin function _ZNK10Vec4SimpleIiE5storeEPi
	.p2align	4, 0x90
	.type	_ZNK10Vec4SimpleIiE5storeEPi,@function
_ZNK10Vec4SimpleIiE5storeEPi:           # @_ZNK10Vec4SimpleIiE5storeEPi
.Lfunc_begin16:
	.loc	11 99 0                 # vlasovsolver/vectorclass_fallback.cu:99:0
	.cfi_startproc
# %bb.0:                                # %L.entry
	#DEBUG_VALUE: store: <- $rdi
	#DEBUG_VALUE: store: <- $rdi
	#DEBUG_VALUE: store:p <- $rsi
	#DEBUG_VALUE: store:p <- $rsi
	pushq	%rbp
	.cfi_def_cfa_offset 16
	.cfi_offset %rbp, -16
	movq	%rsp, %rbp
	.cfi_def_cfa_register %rbp
.Ltmp478:
	#DEBUG_VALUE:  <- $rdi
	#DEBUG_VALUE:  <- $rdi
	#DEBUG_VALUE: p <- $rsi
	#DEBUG_VALUE: p <- $rsi
	.loc	11 101 1 prologue_end   # vlasovsolver/vectorclass_fallback.cu:101:1
	movl	32(%rdi), %eax
	movl	%eax, (%rsi)
	.loc	11 100 1                # vlasovsolver/vectorclass_fallback.cu:100:1
	movl	36(%rdi), %eax
	movl	%eax, 4(%rsi)
	movl	40(%rdi), %eax
	movl	%eax, 8(%rsi)
	movl	44(%rdi), %eax
	movl	%eax, 12(%rsi)
.Ltmp479:
	.loc	11 102 1                # vlasovsolver/vectorclass_fallback.cu:102:1
	popq	%rbp
	.cfi_def_cfa %rsp, 8
	retq
.Ltmp480:
.Lfunc_end16:
	.size	_ZNK10Vec4SimpleIiE5storeEPi, .Lfunc_end16-_ZNK10Vec4SimpleIiE5storeEPi
	.cfi_endproc
                                        # -- End function
	.weak	_ZNK10Vec4SimpleIiE7store_aEPi # -- Begin function _ZNK10Vec4SimpleIiE7store_aEPi
	.p2align	4, 0x90
	.type	_ZNK10Vec4SimpleIiE7store_aEPi,@function
_ZNK10Vec4SimpleIiE7store_aEPi:         # @_ZNK10Vec4SimpleIiE7store_aEPi
.Lfunc_begin17:
	.loc	11 107 0                # vlasovsolver/vectorclass_fallback.cu:107:0
	.cfi_startproc
# %bb.0:                                # %L.entry
	#DEBUG_VALUE: store_a: <- $rdi
	#DEBUG_VALUE: store_a: <- $rdi
	#DEBUG_VALUE: store_a:p <- $rsi
	#DEBUG_VALUE: store_a:p <- $rsi
	pushq	%rbp
	.cfi_def_cfa_offset 16
	.cfi_offset %rbp, -16
	movq	%rsp, %rbp
	.cfi_def_cfa_register %rbp
.Ltmp481:
	#DEBUG_VALUE:  <- $rdi
	#DEBUG_VALUE:  <- $rdi
	#DEBUG_VALUE: p <- $rsi
	#DEBUG_VALUE: p <- $rsi
	.loc	11 100 1 prologue_end   # vlasovsolver/vectorclass_fallback.cu:100:1
	movl	32(%rdi), %eax
	movl	%eax, (%rsi)
	movl	36(%rdi), %eax
	movl	%eax, 4(%rsi)
	movl	40(%rdi), %eax
	movl	%eax, 8(%rsi)
	movl	44(%rdi), %eax
	movl	%eax, 12(%rsi)
.Ltmp482:
	.loc	11 109 1                # vlasovsolver/vectorclass_fallback.cu:109:1
	popq	%rbp
	.cfi_def_cfa %rsp, 8
	retq
.Ltmp483:
.Lfunc_end17:
	.size	_ZNK10Vec4SimpleIiE7store_aEPi, .Lfunc_end17-_ZNK10Vec4SimpleIiE7store_aEPi
	.cfi_endproc
                                        # -- End function
	.weak	_ZN10Vec4SimpleIiEaSERKS0_ # -- Begin function _ZN10Vec4SimpleIiEaSERKS0_
	.p2align	4, 0x90
	.type	_ZN10Vec4SimpleIiEaSERKS0_,@function
_ZN10Vec4SimpleIiEaSERKS0_:             # @_ZN10Vec4SimpleIiEaSERKS0_
.Lfunc_begin18:
	.loc	11 113 0                # vlasovsolver/vectorclass_fallback.cu:113:0
	.cfi_startproc
# %bb.0:                                # %L.entry
	#DEBUG_VALUE: operator=: <- $rdi
	#DEBUG_VALUE: operator=:r <- $rsi
	pushq	%rbp
	.cfi_def_cfa_offset 16
	.cfi_offset %rbp, -16
	movq	%rsp, %rbp
	.cfi_def_cfa_register %rbp
.Ltmp484:
	#DEBUG_VALUE:  <- $rdi
	#DEBUG_VALUE: r <- $rsi
	movq	%rdi, %rax
	#DEBUG_VALUE: r <- $rsi
	#DEBUG_VALUE: operator=:r <- $rsi
.Ltmp485:
	#DEBUG_VALUE:  <- $rax
	#DEBUG_VALUE: operator=: <- $rax
	.loc	11 115 1 prologue_end   # vlasovsolver/vectorclass_fallback.cu:115:1
	movl	32(%rsi), %ecx
	movl	%ecx, 32(%rdi)
	.loc	11 114 1                # vlasovsolver/vectorclass_fallback.cu:114:1
	movl	36(%rsi), %ecx
	movl	%ecx, 36(%rdi)
	movl	40(%rsi), %ecx
	movl	%ecx, 40(%rdi)
	movl	44(%rsi), %ecx
	movl	%ecx, 44(%rdi)
.Ltmp486:
	.loc	11 116 1                # vlasovsolver/vectorclass_fallback.cu:116:1
	popq	%rbp
	.cfi_def_cfa %rsp, 8
	retq
.Ltmp487:
.Lfunc_end18:
	.size	_ZN10Vec4SimpleIiEaSERKS0_, .Lfunc_end18-_ZN10Vec4SimpleIiEaSERKS0_
	.cfi_endproc
                                        # -- End function
	.weak	_ZNK10Vec4SimpleIiEixEi # -- Begin function _ZNK10Vec4SimpleIiEixEi
	.p2align	4, 0x90
	.type	_ZNK10Vec4SimpleIiEixEi,@function
_ZNK10Vec4SimpleIiEixEi:                # @_ZNK10Vec4SimpleIiEixEi
.Lfunc_begin19:
	.loc	11 121 0                # vlasovsolver/vectorclass_fallback.cu:121:0
	.cfi_startproc
# %bb.0:                                # %L.entry
	#DEBUG_VALUE: operator[]: <- $rdi
	#DEBUG_VALUE: operator[]: <- $rdi
	#DEBUG_VALUE: operator[]:i <- $esi
	#DEBUG_VALUE: operator[]:i <- $esi
	pushq	%rbp
	.cfi_def_cfa_offset 16
	.cfi_offset %rbp, -16
	movq	%rsp, %rbp
	.cfi_def_cfa_register %rbp
.Ltmp488:
	#DEBUG_VALUE:  <- $rdi
	#DEBUG_VALUE:  <- $rdi
	#DEBUG_VALUE: i <- $esi
	#DEBUG_VALUE: i <- $esi
	.loc	11 122 1 prologue_end   # vlasovsolver/vectorclass_fallback.cu:122:1
	movslq	%esi, %rax
	movl	32(%rdi,%rax,4), %eax
	popq	%rbp
	.cfi_def_cfa %rsp, 8
	retq
.Ltmp489:
.Lfunc_end19:
	.size	_ZNK10Vec4SimpleIiEixEi, .Lfunc_end19-_ZNK10Vec4SimpleIiEixEi
	.cfi_endproc
                                        # -- End function
	.weak	_ZN10Vec4SimpleIiEppEi  # -- Begin function _ZN10Vec4SimpleIiEppEi
	.p2align	4, 0x90
	.type	_ZN10Vec4SimpleIiEppEi,@function
_ZN10Vec4SimpleIiEppEi:                 # @_ZN10Vec4SimpleIiEppEi
.Lfunc_begin20:
	.loc	11 127 0                # vlasovsolver/vectorclass_fallback.cu:127:0
	.cfi_startproc
# %bb.0:                                # %L.entry
	#DEBUG_VALUE: operator++: <- $rsi
	#DEBUG_VALUE: operator++:_T47974032_38704 <- $edx
	pushq	%rbp
	.cfi_def_cfa_offset 16
	.cfi_offset %rbp, -16
	movq	%rsp, %rbp
	.cfi_def_cfa_register %rbp
.Ltmp490:
	#DEBUG_VALUE:  <- $rsi
	#DEBUG_VALUE: _T47974032_38704 <- $edx
	movq	%rdi, %rax
	#DEBUG_VALUE:  <- $rsi
	#DEBUG_VALUE: operator++: <- $rsi
.Ltmp491:
	.loc	11 69 1 prologue_end    # vlasovsolver/vectorclass_fallback.cu:69:1
	movl	32(%rsi), %ecx
	movl	%ecx, 32(%rdi)
	movl	36(%rsi), %ecx
	movl	%ecx, 36(%rdi)
	movl	40(%rsi), %ecx
	movl	%ecx, 40(%rdi)
	movl	44(%rsi), %ecx
	movl	%ecx, 44(%rdi)
.Ltmp492:
	.loc	11 130 1                # vlasovsolver/vectorclass_fallback.cu:130:1
	vmovdqu	32(%rsi), %xmm0
	vpcmpeqd	%xmm1, %xmm1, %xmm1
	vpsubd	%xmm1, %xmm0, %xmm0
	vmovdqu	%xmm0, 32(%rsi)
.Ltmp493:
	.loc	11 132 1                # vlasovsolver/vectorclass_fallback.cu:132:1
	popq	%rbp
	.cfi_def_cfa %rsp, 8
	retq
.Ltmp494:
.Lfunc_end20:
	.size	_ZN10Vec4SimpleIiEppEi, .Lfunc_end20-_ZN10Vec4SimpleIiEppEi
	.cfi_endproc
                                        # -- End function
	.weak	_ZN10Vec4SimpleIiE9getSquareEi # -- Begin function _ZN10Vec4SimpleIiE9getSquareEi
	.p2align	4, 0x90
	.type	_ZN10Vec4SimpleIiE9getSquareEi,@function
_ZN10Vec4SimpleIiE9getSquareEi:         # @_ZN10Vec4SimpleIiE9getSquareEi
.Lfunc_begin21:
	.loc	11 51 0                 # vlasovsolver/vectorclass_fallback.cu:51:0
	.cfi_startproc
# %bb.0:                                # %L.entry
	#DEBUG_VALUE: getSquare:b <- $edi
	pushq	%rbp
	.cfi_def_cfa_offset 16
	.cfi_offset %rbp, -16
	movq	%rsp, %rbp
	.cfi_def_cfa_register %rbp
.Ltmp495:
	#DEBUG_VALUE: b <- $edi
	movl	%edi, %eax
.Ltmp496:
	#DEBUG_VALUE: b <- $eax
	#DEBUG_VALUE: getSquare:b <- $eax
	.loc	11 51 1 prologue_end    # vlasovsolver/vectorclass_fallback.cu:51:1
	imull	%edi, %eax
.Ltmp497:
	popq	%rbp
	.cfi_def_cfa %rsp, 8
	retq
.Ltmp498:
.Lfunc_end21:
	.size	_ZN10Vec4SimpleIiE9getSquareEi, .Lfunc_end21-_ZN10Vec4SimpleIiE9getSquareEi
	.cfi_endproc
                                        # -- End function
	.weak	_ZN10Vec8SimpleIiEC1Ev  # -- Begin function _ZN10Vec8SimpleIiEC1Ev
	.p2align	4, 0x90
	.type	_ZN10Vec8SimpleIiEC1Ev,@function
_ZN10Vec8SimpleIiEC1Ev:                 # @_ZN10Vec8SimpleIiEC1Ev
.Lfunc_begin22:
	.loc	11 690 0                # vlasovsolver/vectorclass_fallback.cu:690:0
	.cfi_startproc
# %bb.0:                                # %L.entry
	#DEBUG_VALUE: Vec8Simple: <- $rdi
	pushq	%rbp
	.cfi_def_cfa_offset 16
	.cfi_offset %rbp, -16
	movq	%rsp, %rbp
	.cfi_def_cfa_register %rbp
.Ltmp499:
	#DEBUG_VALUE:  <- $rdi
	.loc	11 690 1 prologue_end   # vlasovsolver/vectorclass_fallback.cu:690:1
	popq	%rbp
	.cfi_def_cfa %rsp, 8
	retq
.Ltmp500:
.Lfunc_end22:
	.size	_ZN10Vec8SimpleIiEC1Ev, .Lfunc_end22-_ZN10Vec8SimpleIiEC1Ev
	.cfi_endproc
                                        # -- End function
	.weak	_ZN10Vec8SimpleIiEC2Ev  # -- Begin function _ZN10Vec8SimpleIiEC2Ev
	.p2align	4, 0x90
	.type	_ZN10Vec8SimpleIiEC2Ev,@function
_ZN10Vec8SimpleIiEC2Ev:                 # @_ZN10Vec8SimpleIiEC2Ev
.Lfunc_begin23:
	.loc	1 0 0                   # vlasovsolver/cpu_acc_semilag.cpp:0:0
	.cfi_startproc
# %bb.0:                                # %L.entry
	pushq	%rbp
	.cfi_def_cfa_offset 16
	.cfi_offset %rbp, -16
	movq	%rsp, %rbp
	.cfi_def_cfa_register %rbp
.Ltmp501:
	.loc	1 690 1 prologue_end    # vlasovsolver/cpu_acc_semilag.cpp:690:1
	popq	%rbp
	.cfi_def_cfa %rsp, 8
	retq
.Ltmp502:
.Lfunc_end23:
	.size	_ZN10Vec8SimpleIiEC2Ev, .Lfunc_end23-_ZN10Vec8SimpleIiEC2Ev
	.cfi_endproc
                                        # -- End function
	.weak	_ZN10Vec8SimpleIiEC1Ei  # -- Begin function _ZN10Vec8SimpleIiEC1Ei
	.p2align	4, 0x90
	.type	_ZN10Vec8SimpleIiEC1Ei,@function
_ZN10Vec8SimpleIiEC1Ei:                 # @_ZN10Vec8SimpleIiEC1Ei
.Lfunc_begin24:
	.loc	11 696 0                # vlasovsolver/vectorclass_fallback.cu:696:0
	.cfi_startproc
# %bb.0:                                # %L.entry
	#DEBUG_VALUE: Vec8Simple: <- $rdi
	#DEBUG_VALUE: Vec8Simple: <- $rdi
	#DEBUG_VALUE: Vec8Simple:x <- $esi
	#DEBUG_VALUE: Vec8Simple:x <- $esi
	pushq	%rbp
	.cfi_def_cfa_offset 16
	.cfi_offset %rbp, -16
	movq	%rsp, %rbp
	.cfi_def_cfa_register %rbp
.Ltmp503:
	#DEBUG_VALUE:  <- $rdi
	#DEBUG_VALUE:  <- $rdi
	#DEBUG_VALUE: x <- $esi
	#DEBUG_VALUE: x <- $esi
	.loc	11 697 1 prologue_end   # vlasovsolver/vectorclass_fallback.cu:697:1
	vmovd	%esi, %xmm0
	vpbroadcastd	%xmm0, %ymm0
	vmovdqu	%ymm0, 32(%rdi)
.Ltmp504:
	.loc	11 699 1                # vlasovsolver/vectorclass_fallback.cu:699:1
	popq	%rbp
	.cfi_def_cfa %rsp, 8
	vzeroupper
	retq
.Ltmp505:
.Lfunc_end24:
	.size	_ZN10Vec8SimpleIiEC1Ei, .Lfunc_end24-_ZN10Vec8SimpleIiEC1Ei
	.cfi_endproc
                                        # -- End function
	.weak	_ZN10Vec8SimpleIiEC2Ei  # -- Begin function _ZN10Vec8SimpleIiEC2Ei
	.p2align	4, 0x90
	.type	_ZN10Vec8SimpleIiEC2Ei,@function
_ZN10Vec8SimpleIiEC2Ei:                 # @_ZN10Vec8SimpleIiEC2Ei
.Lfunc_begin25:
	.loc	1 0 0                   # vlasovsolver/cpu_acc_semilag.cpp:0:0
	.cfi_startproc
# %bb.0:                                # %L.entry
	pushq	%rbp
	.cfi_def_cfa_offset 16
	.cfi_offset %rbp, -16
	movq	%rsp, %rbp
	.cfi_def_cfa_register %rbp
.Ltmp506:
	.loc	1 697 1 prologue_end    # vlasovsolver/cpu_acc_semilag.cpp:697:1
	vmovd	%esi, %xmm0
	vpbroadcastd	%xmm0, %ymm0
	vmovdqu	%ymm0, 32(%rdi)
.Ltmp507:
	.loc	1 699 1                 # vlasovsolver/cpu_acc_semilag.cpp:699:1
	popq	%rbp
	.cfi_def_cfa %rsp, 8
	vzeroupper
	retq
.Ltmp508:
.Lfunc_end25:
	.size	_ZN10Vec8SimpleIiEC2Ei, .Lfunc_end25-_ZN10Vec8SimpleIiEC2Ei
	.cfi_endproc
                                        # -- End function
	.weak	_ZN10Vec8SimpleIiEC1Eiiiiiiii # -- Begin function _ZN10Vec8SimpleIiEC1Eiiiiiiii
	.p2align	4, 0x90
	.type	_ZN10Vec8SimpleIiEC1Eiiiiiiii,@function
_ZN10Vec8SimpleIiEC1Eiiiiiiii:          # @_ZN10Vec8SimpleIiEC1Eiiiiiiii
.Lfunc_begin26:
	.loc	11 702 0                # vlasovsolver/vectorclass_fallback.cu:702:0
	.cfi_startproc
# %bb.0:                                # %L.entry
	#DEBUG_VALUE: Vec8Simple: <- $rdi
	#DEBUG_VALUE: Vec8Simple:a <- $esi
	#DEBUG_VALUE: Vec8Simple:b <- $edx
	#DEBUG_VALUE: Vec8Simple:c <- $ecx
	#DEBUG_VALUE: Vec8Simple:d <- $r8d
	#DEBUG_VALUE: Vec8Simple:e <- $r9d
	pushq	%rbp
	.cfi_def_cfa_offset 16
	.cfi_offset %rbp, -16
	movq	%rsp, %rbp
	.cfi_def_cfa_register %rbp
.Ltmp509:
	#DEBUG_VALUE:  <- $rdi
	#DEBUG_VALUE: a <- $esi
	#DEBUG_VALUE: b <- $edx
	#DEBUG_VALUE: c <- $ecx
	#DEBUG_VALUE: d <- $r8d
	#DEBUG_VALUE: e <- $r9d
	movl	32(%rbp), %r10d
	movl	24(%rbp), %r11d
	movl	16(%rbp), %eax
.Ltmp510:
	#DEBUG_VALUE: h <- [DW_OP_plus_uconst 32] [$rbp+0]
	#DEBUG_VALUE: Vec8Simple:h <- [DW_OP_plus_uconst 32] [$rbp+0]
	#DEBUG_VALUE: g <- [DW_OP_plus_uconst 24] [$rbp+0]
	#DEBUG_VALUE: Vec8Simple:g <- [DW_OP_plus_uconst 24] [$rbp+0]
	#DEBUG_VALUE: f <- [DW_OP_plus_uconst 16] [$rbp+0]
	#DEBUG_VALUE: Vec8Simple:f <- [DW_OP_plus_uconst 16] [$rbp+0]
	#DEBUG_VALUE: e <- $r9d
	#DEBUG_VALUE: Vec8Simple:e <- $r9d
	#DEBUG_VALUE: d <- $r8d
	#DEBUG_VALUE: Vec8Simple:d <- $r8d
	#DEBUG_VALUE: c <- $ecx
	#DEBUG_VALUE: Vec8Simple:c <- $ecx
	#DEBUG_VALUE: b <- $edx
	#DEBUG_VALUE: Vec8Simple:b <- $edx
	#DEBUG_VALUE: a <- $esi
	#DEBUG_VALUE: Vec8Simple:a <- $esi
	#DEBUG_VALUE:  <- $rdi
	#DEBUG_VALUE: Vec8Simple: <- $rdi
	.loc	11 703 1 prologue_end   # vlasovsolver/vectorclass_fallback.cu:703:1
	movl	%esi, 32(%rdi)
	.loc	11 704 1                # vlasovsolver/vectorclass_fallback.cu:704:1
	movl	%edx, 36(%rdi)
	.loc	11 705 1                # vlasovsolver/vectorclass_fallback.cu:705:1
	movl	%ecx, 40(%rdi)
	.loc	11 706 1                # vlasovsolver/vectorclass_fallback.cu:706:1
	movl	%r8d, 44(%rdi)
	.loc	11 707 1                # vlasovsolver/vectorclass_fallback.cu:707:1
	movl	%r9d, 48(%rdi)
	.loc	11 708 1                # vlasovsolver/vectorclass_fallback.cu:708:1
	movl	%eax, 52(%rdi)
	.loc	11 709 1                # vlasovsolver/vectorclass_fallback.cu:709:1
	movl	%r11d, 56(%rdi)
	.loc	11 710 1                # vlasovsolver/vectorclass_fallback.cu:710:1
	movl	%r10d, 60(%rdi)
	.loc	11 711 1                # vlasovsolver/vectorclass_fallback.cu:711:1
	popq	%rbp
	.cfi_def_cfa %rsp, 8
	retq
.Ltmp511:
.Lfunc_end26:
	.size	_ZN10Vec8SimpleIiEC1Eiiiiiiii, .Lfunc_end26-_ZN10Vec8SimpleIiEC1Eiiiiiiii
	.cfi_endproc
                                        # -- End function
	.weak	_ZN10Vec8SimpleIiEC2Eiiiiiiii # -- Begin function _ZN10Vec8SimpleIiEC2Eiiiiiiii
	.p2align	4, 0x90
	.type	_ZN10Vec8SimpleIiEC2Eiiiiiiii,@function
_ZN10Vec8SimpleIiEC2Eiiiiiiii:          # @_ZN10Vec8SimpleIiEC2Eiiiiiiii
.Lfunc_begin27:
	.loc	1 0 0                   # vlasovsolver/cpu_acc_semilag.cpp:0:0
	.cfi_startproc
# %bb.0:                                # %L.entry
	pushq	%rbp
	.cfi_def_cfa_offset 16
	.cfi_offset %rbp, -16
	movq	%rsp, %rbp
	.cfi_def_cfa_register %rbp
	movl	32(%rbp), %r10d
	movl	24(%rbp), %r11d
	movl	16(%rbp), %eax
.Ltmp512:
	.loc	1 711 1 prologue_end    # vlasovsolver/cpu_acc_semilag.cpp:711:1
	movl	%esi, 32(%rdi)
	.loc	1 703 1                 # vlasovsolver/cpu_acc_semilag.cpp:703:1
	movl	%edx, 36(%rdi)
	.loc	1 704 1                 # vlasovsolver/cpu_acc_semilag.cpp:704:1
	movl	%ecx, 40(%rdi)
	.loc	1 705 1                 # vlasovsolver/cpu_acc_semilag.cpp:705:1
	movl	%r8d, 44(%rdi)
	.loc	1 706 1                 # vlasovsolver/cpu_acc_semilag.cpp:706:1
	movl	%r9d, 48(%rdi)
	.loc	1 707 1                 # vlasovsolver/cpu_acc_semilag.cpp:707:1
	movl	%eax, 52(%rdi)
	.loc	1 708 1                 # vlasovsolver/cpu_acc_semilag.cpp:708:1
	movl	%r11d, 56(%rdi)
	.loc	1 709 1                 # vlasovsolver/cpu_acc_semilag.cpp:709:1
	movl	%r10d, 60(%rdi)
	.loc	1 711 1                 # vlasovsolver/cpu_acc_semilag.cpp:711:1
	popq	%rbp
	.cfi_def_cfa %rsp, 8
	retq
.Ltmp513:
.Lfunc_end27:
	.size	_ZN10Vec8SimpleIiEC2Eiiiiiiii, .Lfunc_end27-_ZN10Vec8SimpleIiEC2Eiiiiiiii
	.cfi_endproc
                                        # -- End function
	.weak	_ZN10Vec8SimpleIiEC1ERKS0_ # -- Begin function _ZN10Vec8SimpleIiEC1ERKS0_
	.p2align	4, 0x90
	.type	_ZN10Vec8SimpleIiEC1ERKS0_,@function
_ZN10Vec8SimpleIiEC1ERKS0_:             # @_ZN10Vec8SimpleIiEC1ERKS0_
.Lfunc_begin28:
	.loc	11 714 0                # vlasovsolver/vectorclass_fallback.cu:714:0
	.cfi_startproc
# %bb.0:                                # %L.entry
	#DEBUG_VALUE: Vec8Simple: <- $rdi
	#DEBUG_VALUE: Vec8Simple: <- $rdi
	#DEBUG_VALUE: Vec8Simple:x <- $rsi
	#DEBUG_VALUE: Vec8Simple:x <- $rsi
	pushq	%rbp
	.cfi_def_cfa_offset 16
	.cfi_offset %rbp, -16
	movq	%rsp, %rbp
	.cfi_def_cfa_register %rbp
.Ltmp514:
	#DEBUG_VALUE:  <- $rdi
	#DEBUG_VALUE:  <- $rdi
	#DEBUG_VALUE: x <- $rsi
	#DEBUG_VALUE: x <- $rsi
	.loc	11 715 1 prologue_end   # vlasovsolver/vectorclass_fallback.cu:715:1
	movl	32(%rsi), %eax
	movl	%eax, 32(%rdi)
	movl	36(%rsi), %eax
	movl	%eax, 36(%rdi)
	movl	40(%rsi), %eax
	movl	%eax, 40(%rdi)
	movl	44(%rsi), %eax
	movl	%eax, 44(%rdi)
	movl	48(%rsi), %eax
	movl	%eax, 48(%rdi)
	movl	52(%rsi), %eax
	movl	%eax, 52(%rdi)
	movl	56(%rsi), %eax
	movl	%eax, 56(%rdi)
	movl	60(%rsi), %eax
	movl	%eax, 60(%rdi)
.Ltmp515:
	.loc	11 717 1                # vlasovsolver/vectorclass_fallback.cu:717:1
	popq	%rbp
	.cfi_def_cfa %rsp, 8
	retq
.Ltmp516:
.Lfunc_end28:
	.size	_ZN10Vec8SimpleIiEC1ERKS0_, .Lfunc_end28-_ZN10Vec8SimpleIiEC1ERKS0_
	.cfi_endproc
                                        # -- End function
	.weak	_ZN10Vec8SimpleIiEC2ERKS0_ # -- Begin function _ZN10Vec8SimpleIiEC2ERKS0_
	.p2align	4, 0x90
	.type	_ZN10Vec8SimpleIiEC2ERKS0_,@function
_ZN10Vec8SimpleIiEC2ERKS0_:             # @_ZN10Vec8SimpleIiEC2ERKS0_
.Lfunc_begin29:
	.loc	1 0 0                   # vlasovsolver/cpu_acc_semilag.cpp:0:0
	.cfi_startproc
# %bb.0:                                # %L.entry
	pushq	%rbp
	.cfi_def_cfa_offset 16
	.cfi_offset %rbp, -16
	movq	%rsp, %rbp
	.cfi_def_cfa_register %rbp
.Ltmp517:
	.loc	1 715 1 prologue_end    # vlasovsolver/cpu_acc_semilag.cpp:715:1
	movl	32(%rsi), %eax
	movl	%eax, 32(%rdi)
	movl	36(%rsi), %eax
	movl	%eax, 36(%rdi)
	movl	40(%rsi), %eax
	movl	%eax, 40(%rdi)
	movl	44(%rsi), %eax
	movl	%eax, 44(%rdi)
	movl	48(%rsi), %eax
	movl	%eax, 48(%rdi)
	movl	52(%rsi), %eax
	movl	%eax, 52(%rdi)
	movl	56(%rsi), %eax
	movl	%eax, 56(%rdi)
	movl	60(%rsi), %eax
	movl	%eax, 60(%rdi)
.Ltmp518:
	.loc	1 717 1                 # vlasovsolver/cpu_acc_semilag.cpp:717:1
	popq	%rbp
	.cfi_def_cfa %rsp, 8
	retq
.Ltmp519:
.Lfunc_end29:
	.size	_ZN10Vec8SimpleIiEC2ERKS0_, .Lfunc_end29-_ZN10Vec8SimpleIiEC2ERKS0_
	.cfi_endproc
                                        # -- End function
	.weak	_ZN10Vec8SimpleIiE4loadEPKi # -- Begin function _ZN10Vec8SimpleIiE4loadEPKi
	.p2align	4, 0x90
	.type	_ZN10Vec8SimpleIiE4loadEPKi,@function
_ZN10Vec8SimpleIiE4loadEPKi:            # @_ZN10Vec8SimpleIiE4loadEPKi
.Lfunc_begin30:
	.loc	11 721 0                # vlasovsolver/vectorclass_fallback.cu:721:0
	.cfi_startproc
# %bb.0:                                # %L.entry
	#DEBUG_VALUE: load: <- $rdi
	#DEBUG_VALUE: load:p <- $rsi
	pushq	%rbp
	.cfi_def_cfa_offset 16
	.cfi_offset %rbp, -16
	movq	%rsp, %rbp
	.cfi_def_cfa_register %rbp
.Ltmp520:
	#DEBUG_VALUE:  <- $rdi
	#DEBUG_VALUE: p <- $rsi
	movq	%rdi, %rax
	#DEBUG_VALUE: p <- $rsi
	#DEBUG_VALUE: load:p <- $rsi
.Ltmp521:
	#DEBUG_VALUE:  <- $rax
	#DEBUG_VALUE: load: <- $rax
	.loc	11 722 1 prologue_end   # vlasovsolver/vectorclass_fallback.cu:722:1
	movl	(%rsi), %ecx
	movl	%ecx, 32(%rdi)
	movl	4(%rsi), %ecx
	movl	%ecx, 36(%rdi)
	movl	8(%rsi), %ecx
	movl	%ecx, 40(%rdi)
	movl	12(%rsi), %ecx
	movl	%ecx, 44(%rdi)
	movl	16(%rsi), %ecx
	movl	%ecx, 48(%rdi)
	movl	20(%rsi), %ecx
	movl	%ecx, 52(%rdi)
	movl	24(%rsi), %ecx
	movl	%ecx, 56(%rdi)
	movl	28(%rsi), %ecx
	movl	%ecx, 60(%rdi)
.Ltmp522:
	.loc	11 724 1                # vlasovsolver/vectorclass_fallback.cu:724:1
	popq	%rbp
	.cfi_def_cfa %rsp, 8
	retq
.Ltmp523:
.Lfunc_end30:
	.size	_ZN10Vec8SimpleIiE4loadEPKi, .Lfunc_end30-_ZN10Vec8SimpleIiE4loadEPKi
	.cfi_endproc
                                        # -- End function
	.weak	_ZN10Vec8SimpleIiE6load_aEPKi # -- Begin function _ZN10Vec8SimpleIiE6load_aEPKi
	.p2align	4, 0x90
	.type	_ZN10Vec8SimpleIiE6load_aEPKi,@function
_ZN10Vec8SimpleIiE6load_aEPKi:          # @_ZN10Vec8SimpleIiE6load_aEPKi
.Lfunc_begin31:
	.loc	11 729 0                # vlasovsolver/vectorclass_fallback.cu:729:0
	.cfi_startproc
# %bb.0:                                # %L.entry
	#DEBUG_VALUE: load_a: <- $rdi
	#DEBUG_VALUE: load_a:p <- $rsi
	pushq	%rbp
	.cfi_def_cfa_offset 16
	.cfi_offset %rbp, -16
	movq	%rsp, %rbp
	.cfi_def_cfa_register %rbp
.Ltmp524:
	#DEBUG_VALUE:  <- $rdi
	#DEBUG_VALUE: p <- $rsi
	movq	%rdi, %rax
	#DEBUG_VALUE: p <- $rsi
	#DEBUG_VALUE: load_a:p <- $rsi
.Ltmp525:
	#DEBUG_VALUE:  <- $rax
	#DEBUG_VALUE: load_a: <- $rax
	.loc	11 722 1 prologue_end   # vlasovsolver/vectorclass_fallback.cu:722:1
	movl	(%rsi), %ecx
	movl	%ecx, 32(%rdi)
	movl	4(%rsi), %ecx
	movl	%ecx, 36(%rdi)
	movl	8(%rsi), %ecx
	movl	%ecx, 40(%rdi)
	movl	12(%rsi), %ecx
	movl	%ecx, 44(%rdi)
	movl	16(%rsi), %ecx
	movl	%ecx, 48(%rdi)
	movl	20(%rsi), %ecx
	movl	%ecx, 52(%rdi)
	movl	24(%rsi), %ecx
	movl	%ecx, 56(%rdi)
	movl	28(%rsi), %ecx
	movl	%ecx, 60(%rdi)
.Ltmp526:
	.loc	11 725 1                # vlasovsolver/vectorclass_fallback.cu:725:1
	popq	%rbp
	.cfi_def_cfa %rsp, 8
	retq
.Ltmp527:
.Lfunc_end31:
	.size	_ZN10Vec8SimpleIiE6load_aEPKi, .Lfunc_end31-_ZN10Vec8SimpleIiE6load_aEPKi
	.cfi_endproc
                                        # -- End function
	.weak	_ZN10Vec8SimpleIiE6insertEiRKi # -- Begin function _ZN10Vec8SimpleIiE6insertEiRKi
	.p2align	4, 0x90
	.type	_ZN10Vec8SimpleIiE6insertEiRKi,@function
_ZN10Vec8SimpleIiE6insertEiRKi:         # @_ZN10Vec8SimpleIiE6insertEiRKi
.Lfunc_begin32:
	.loc	11 735 0                # vlasovsolver/vectorclass_fallback.cu:735:0
	.cfi_startproc
# %bb.0:                                # %L.entry
	#DEBUG_VALUE: insert: <- $rdi
	#DEBUG_VALUE: insert:i <- $esi
	#DEBUG_VALUE: insert:x <- $rdx
	pushq	%rbp
	.cfi_def_cfa_offset 16
	.cfi_offset %rbp, -16
	movq	%rsp, %rbp
	.cfi_def_cfa_register %rbp
.Ltmp528:
	#DEBUG_VALUE:  <- $rdi
	#DEBUG_VALUE: i <- $esi
	#DEBUG_VALUE: x <- $rdx
	movq	%rdi, %rax
	#DEBUG_VALUE: x <- $rdx
	#DEBUG_VALUE: insert:x <- $rdx
	#DEBUG_VALUE: i <- $esi
	#DEBUG_VALUE: insert:i <- $esi
.Ltmp529:
	#DEBUG_VALUE:  <- $rax
	#DEBUG_VALUE: insert: <- $rax
	.loc	11 736 1 prologue_end   # vlasovsolver/vectorclass_fallback.cu:736:1
	movl	(%rdx), %ecx
	movslq	%esi, %rdx
.Ltmp530:
	movl	%ecx, 32(%rdi,%rdx,4)
	.loc	11 737 1                # vlasovsolver/vectorclass_fallback.cu:737:1
	popq	%rbp
	.cfi_def_cfa %rsp, 8
	retq
.Ltmp531:
.Lfunc_end32:
	.size	_ZN10Vec8SimpleIiE6insertEiRKi, .Lfunc_end32-_ZN10Vec8SimpleIiE6insertEiRKi
	.cfi_endproc
                                        # -- End function
	.weak	_ZNK10Vec8SimpleIiE5storeEPi # -- Begin function _ZNK10Vec8SimpleIiE5storeEPi
	.p2align	4, 0x90
	.type	_ZNK10Vec8SimpleIiE5storeEPi,@function
_ZNK10Vec8SimpleIiE5storeEPi:           # @_ZNK10Vec8SimpleIiE5storeEPi
.Lfunc_begin33:
	.loc	11 742 0                # vlasovsolver/vectorclass_fallback.cu:742:0
	.cfi_startproc
# %bb.0:                                # %L.entry
	#DEBUG_VALUE: store: <- $rdi
	#DEBUG_VALUE: store: <- $rdi
	#DEBUG_VALUE: store:p <- $rsi
	#DEBUG_VALUE: store:p <- $rsi
	pushq	%rbp
	.cfi_def_cfa_offset 16
	.cfi_offset %rbp, -16
	movq	%rsp, %rbp
	.cfi_def_cfa_register %rbp
.Ltmp532:
	#DEBUG_VALUE:  <- $rdi
	#DEBUG_VALUE:  <- $rdi
	#DEBUG_VALUE: p <- $rsi
	#DEBUG_VALUE: p <- $rsi
	.loc	11 743 1 prologue_end   # vlasovsolver/vectorclass_fallback.cu:743:1
	movl	32(%rdi), %eax
	movl	%eax, (%rsi)
	movl	36(%rdi), %eax
	movl	%eax, 4(%rsi)
	movl	40(%rdi), %eax
	movl	%eax, 8(%rsi)
	movl	44(%rdi), %eax
	movl	%eax, 12(%rsi)
	movl	48(%rdi), %eax
	movl	%eax, 16(%rsi)
	movl	52(%rdi), %eax
	movl	%eax, 20(%rsi)
	movl	56(%rdi), %eax
	movl	%eax, 24(%rsi)
	movl	60(%rdi), %eax
	movl	%eax, 28(%rsi)
.Ltmp533:
	.loc	11 745 1                # vlasovsolver/vectorclass_fallback.cu:745:1
	popq	%rbp
	.cfi_def_cfa %rsp, 8
	retq
.Ltmp534:
.Lfunc_end33:
	.size	_ZNK10Vec8SimpleIiE5storeEPi, .Lfunc_end33-_ZNK10Vec8SimpleIiE5storeEPi
	.cfi_endproc
                                        # -- End function
	.weak	_ZNK10Vec8SimpleIiE7store_aEPi # -- Begin function _ZNK10Vec8SimpleIiE7store_aEPi
	.p2align	4, 0x90
	.type	_ZNK10Vec8SimpleIiE7store_aEPi,@function
_ZNK10Vec8SimpleIiE7store_aEPi:         # @_ZNK10Vec8SimpleIiE7store_aEPi
.Lfunc_begin34:
	.loc	11 749 0                # vlasovsolver/vectorclass_fallback.cu:749:0
	.cfi_startproc
# %bb.0:                                # %L.entry
	#DEBUG_VALUE: store_a: <- $rdi
	#DEBUG_VALUE: store_a: <- $rdi
	#DEBUG_VALUE: store_a:p <- $rsi
	#DEBUG_VALUE: store_a:p <- $rsi
	pushq	%rbp
	.cfi_def_cfa_offset 16
	.cfi_offset %rbp, -16
	movq	%rsp, %rbp
	.cfi_def_cfa_register %rbp
.Ltmp535:
	#DEBUG_VALUE:  <- $rdi
	#DEBUG_VALUE:  <- $rdi
	#DEBUG_VALUE: p <- $rsi
	#DEBUG_VALUE: p <- $rsi
	.loc	11 743 1 prologue_end   # vlasovsolver/vectorclass_fallback.cu:743:1
	movl	32(%rdi), %eax
	movl	%eax, (%rsi)
	movl	36(%rdi), %eax
	movl	%eax, 4(%rsi)
	movl	40(%rdi), %eax
	movl	%eax, 8(%rsi)
	movl	44(%rdi), %eax
	movl	%eax, 12(%rsi)
	movl	48(%rdi), %eax
	movl	%eax, 16(%rsi)
	movl	52(%rdi), %eax
	movl	%eax, 20(%rsi)
	movl	56(%rdi), %eax
	movl	%eax, 24(%rsi)
	movl	60(%rdi), %eax
	movl	%eax, 28(%rsi)
.Ltmp536:
	.loc	11 751 1                # vlasovsolver/vectorclass_fallback.cu:751:1
	popq	%rbp
	.cfi_def_cfa %rsp, 8
	retq
.Ltmp537:
.Lfunc_end34:
	.size	_ZNK10Vec8SimpleIiE7store_aEPi, .Lfunc_end34-_ZNK10Vec8SimpleIiE7store_aEPi
	.cfi_endproc
                                        # -- End function
	.weak	_ZN10Vec8SimpleIiEaSERKS0_ # -- Begin function _ZN10Vec8SimpleIiEaSERKS0_
	.p2align	4, 0x90
	.type	_ZN10Vec8SimpleIiEaSERKS0_,@function
_ZN10Vec8SimpleIiEaSERKS0_:             # @_ZN10Vec8SimpleIiEaSERKS0_
.Lfunc_begin35:
	.loc	11 755 0                # vlasovsolver/vectorclass_fallback.cu:755:0
	.cfi_startproc
# %bb.0:                                # %L.entry
	#DEBUG_VALUE: operator=: <- $rdi
	#DEBUG_VALUE: operator=:r <- $rsi
	pushq	%rbp
	.cfi_def_cfa_offset 16
	.cfi_offset %rbp, -16
	movq	%rsp, %rbp
	.cfi_def_cfa_register %rbp
.Ltmp538:
	#DEBUG_VALUE:  <- $rdi
	#DEBUG_VALUE: r <- $rsi
	movq	%rdi, %rax
	#DEBUG_VALUE: r <- $rsi
	#DEBUG_VALUE: operator=:r <- $rsi
.Ltmp539:
	#DEBUG_VALUE:  <- $rax
	#DEBUG_VALUE: operator=: <- $rax
	.loc	11 756 1 prologue_end   # vlasovsolver/vectorclass_fallback.cu:756:1
	movl	32(%rsi), %ecx
	movl	%ecx, 32(%rdi)
	movl	36(%rsi), %ecx
	movl	%ecx, 36(%rdi)
	movl	40(%rsi), %ecx
	movl	%ecx, 40(%rdi)
	movl	44(%rsi), %ecx
	movl	%ecx, 44(%rdi)
	movl	48(%rsi), %ecx
	movl	%ecx, 48(%rdi)
	movl	52(%rsi), %ecx
	movl	%ecx, 52(%rdi)
	movl	56(%rsi), %ecx
	movl	%ecx, 56(%rdi)
	movl	60(%rsi), %ecx
	movl	%ecx, 60(%rdi)
.Ltmp540:
	.loc	11 758 1                # vlasovsolver/vectorclass_fallback.cu:758:1
	popq	%rbp
	.cfi_def_cfa %rsp, 8
	retq
.Ltmp541:
.Lfunc_end35:
	.size	_ZN10Vec8SimpleIiEaSERKS0_, .Lfunc_end35-_ZN10Vec8SimpleIiEaSERKS0_
	.cfi_endproc
                                        # -- End function
	.weak	_ZNK10Vec8SimpleIiEixEi # -- Begin function _ZNK10Vec8SimpleIiEixEi
	.p2align	4, 0x90
	.type	_ZNK10Vec8SimpleIiEixEi,@function
_ZNK10Vec8SimpleIiEixEi:                # @_ZNK10Vec8SimpleIiEixEi
.Lfunc_begin36:
	.loc	11 763 0                # vlasovsolver/vectorclass_fallback.cu:763:0
	.cfi_startproc
# %bb.0:                                # %L.entry
	#DEBUG_VALUE: operator[]: <- $rdi
	#DEBUG_VALUE: operator[]: <- $rdi
	#DEBUG_VALUE: operator[]:i <- $esi
	#DEBUG_VALUE: operator[]:i <- $esi
	pushq	%rbp
	.cfi_def_cfa_offset 16
	.cfi_offset %rbp, -16
	movq	%rsp, %rbp
	.cfi_def_cfa_register %rbp
.Ltmp542:
	#DEBUG_VALUE:  <- $rdi
	#DEBUG_VALUE:  <- $rdi
	#DEBUG_VALUE: i <- $esi
	#DEBUG_VALUE: i <- $esi
	.loc	11 764 1 prologue_end   # vlasovsolver/vectorclass_fallback.cu:764:1
	movslq	%esi, %rax
	movl	32(%rdi,%rax,4), %eax
	popq	%rbp
	.cfi_def_cfa %rsp, 8
	retq
.Ltmp543:
.Lfunc_end36:
	.size	_ZNK10Vec8SimpleIiEixEi, .Lfunc_end36-_ZNK10Vec8SimpleIiEixEi
	.cfi_endproc
                                        # -- End function
	.weak	_ZN10Vec8SimpleIiEppEi  # -- Begin function _ZN10Vec8SimpleIiEppEi
	.p2align	4, 0x90
	.type	_ZN10Vec8SimpleIiEppEi,@function
_ZN10Vec8SimpleIiEppEi:                 # @_ZN10Vec8SimpleIiEppEi
.Lfunc_begin37:
	.loc	11 769 0                # vlasovsolver/vectorclass_fallback.cu:769:0
	.cfi_startproc
# %bb.0:                                # %L.entry
	#DEBUG_VALUE: operator++: <- $rsi
	#DEBUG_VALUE: operator++:_T47974032_38721 <- $edx
	pushq	%rbp
	.cfi_def_cfa_offset 16
	.cfi_offset %rbp, -16
	movq	%rsp, %rbp
	.cfi_def_cfa_register %rbp
.Ltmp544:
	#DEBUG_VALUE:  <- $rsi
	#DEBUG_VALUE: _T47974032_38721 <- $edx
	movq	%rdi, %rax
	#DEBUG_VALUE:  <- $rsi
	#DEBUG_VALUE: operator++: <- $rsi
.Ltmp545:
	.loc	11 715 1 prologue_end   # vlasovsolver/vectorclass_fallback.cu:715:1
	movl	32(%rsi), %ecx
	movl	%ecx, 32(%rdi)
	movl	36(%rsi), %ecx
	movl	%ecx, 36(%rdi)
	movl	40(%rsi), %ecx
	movl	%ecx, 40(%rdi)
	movl	44(%rsi), %ecx
	movl	%ecx, 44(%rdi)
	movl	48(%rsi), %ecx
	movl	%ecx, 48(%rdi)
	movl	52(%rsi), %ecx
	movl	%ecx, 52(%rdi)
	movl	56(%rsi), %ecx
	movl	%ecx, 56(%rdi)
	movl	60(%rsi), %ecx
	movl	%ecx, 60(%rdi)
.Ltmp546:
	.loc	11 771 1                # vlasovsolver/vectorclass_fallback.cu:771:1
	vmovdqu	32(%rsi), %ymm0
	vpcmpeqd	%ymm1, %ymm1, %ymm1
	vpsubd	%ymm1, %ymm0, %ymm0
	vmovdqu	%ymm0, 32(%rsi)
.Ltmp547:
	.loc	11 774 1                # vlasovsolver/vectorclass_fallback.cu:774:1
	popq	%rbp
	.cfi_def_cfa %rsp, 8
	vzeroupper
	retq
.Ltmp548:
.Lfunc_end37:
	.size	_ZN10Vec8SimpleIiEppEi, .Lfunc_end37-_ZN10Vec8SimpleIiEppEi
	.cfi_endproc
                                        # -- End function
	.weak	_ZN10Vec8SimpleIiE7getCubeEi # -- Begin function _ZN10Vec8SimpleIiE7getCubeEi
	.p2align	4, 0x90
	.type	_ZN10Vec8SimpleIiE7getCubeEi,@function
_ZN10Vec8SimpleIiE7getCubeEi:           # @_ZN10Vec8SimpleIiE7getCubeEi
.Lfunc_begin38:
	.loc	11 693 0                # vlasovsolver/vectorclass_fallback.cu:693:0
	.cfi_startproc
# %bb.0:                                # %L.entry
	#DEBUG_VALUE: getCube:b <- $edi
	#DEBUG_VALUE: getCube:b <- $edi
	pushq	%rbp
	.cfi_def_cfa_offset 16
	.cfi_offset %rbp, -16
	movq	%rsp, %rbp
	.cfi_def_cfa_register %rbp
.Ltmp549:
	#DEBUG_VALUE: b <- $edi
	#DEBUG_VALUE: b <- $edi
	.loc	11 693 1 prologue_end   # vlasovsolver/vectorclass_fallback.cu:693:1
	movl	%edi, %eax
	imull	%edi, %eax
	imull	%edi, %eax
	popq	%rbp
	.cfi_def_cfa %rsp, 8
	retq
.Ltmp550:
.Lfunc_end38:
	.size	_ZN10Vec8SimpleIiE7getCubeEi, .Lfunc_end38-_ZN10Vec8SimpleIiE7getCubeEi
	.cfi_endproc
                                        # -- End function
	.weak	_ZNSt6vectorIN5vmesh14MeshParametersESaIS1_EED1Ev # -- Begin function _ZNSt6vectorIN5vmesh14MeshParametersESaIS1_EED1Ev
	.p2align	4, 0x90
	.type	_ZNSt6vectorIN5vmesh14MeshParametersESaIS1_EED1Ev,@function
_ZNSt6vectorIN5vmesh14MeshParametersESaIS1_EED1Ev: # @_ZNSt6vectorIN5vmesh14MeshParametersESaIS1_EED1Ev
.Lfunc_begin39:
	.file	12 "/usr/include/c++/9/bits/stl_vector.h"
	.loc	12 676 0                # /usr/include/c++/9/bits/stl_vector.h:676:0
	.cfi_startproc
# %bb.0:                                # %L.entry
	#DEBUG_VALUE: ~vector: <- $rdi
	#DEBUG_VALUE: ~vector: <- $rdi
	pushq	%rbp
	.cfi_def_cfa_offset 16
	.cfi_offset %rbp, -16
	movq	%rsp, %rbp
	.cfi_def_cfa_register %rbp
.Ltmp551:
	pushq	%r15
	pushq	%r14
	pushq	%rbx
	pushq	%rax
	.cfi_offset %rbx, -40
	.cfi_offset %r14, -32
	.cfi_offset %r15, -24
.Ltmp552:
	#DEBUG_VALUE:  <- $rdi
	#DEBUG_VALUE:  <- $rdi
	.loc	12 206 1 prologue_end   # /usr/include/c++/9/bits/stl_vector.h:206:1
	movq	(%rdi), %rbx
	movq	8(%rdi), %rsi
	cmpq	%rsi, %rbx
	je	.LBB39_14
.Ltmp553:
# %bb.1:                                # %L.B2575
	#DEBUG_VALUE:  <- $rdi
	#DEBUG_VALUE: ~vector: <- $rdi
	.loc	12 0 1 is_stmt 0        # /usr/include/c++/9/bits/stl_vector.h:0:1
	movq	%rdi, %r14
.Ltmp554:
	#DEBUG_VALUE: ~vector: <- $r14
	#DEBUG_VALUE:  <- $r14
	.loc	12 206 1                # /usr/include/c++/9/bits/stl_vector.h:206:1
	subq	%rbx, %rsi
	leaq	335(%rsi), %rcx
	movabsq	$-4392081922311798003, %rdx # imm = 0xC30C30C30C30C30D
	movq	%rcx, %rax
	imulq	%rdx
	leaq	(%rsi,%rdx), %rax
	addq	$335, %rax              # imm = 0x14F
	sarq	$8, %rax
	sarq	$63, %rcx
	subq	%rcx, %rax
	imulq	$336, %rax, %r15        # imm = 0x150
	addq	%rbx, %r15
	jmp	.LBB39_2
.Ltmp555:
	.p2align	4, 0x90
.LBB39_12:                              # %_ZN5vmesh14MeshParametersD1Ev.exit
                                        #   in Loop: Header=BB39_2 Depth=1
	#DEBUG_VALUE:  <- $r14
	#DEBUG_VALUE: ~vector: <- $r14
	addq	$336, %rbx              # imm = 0x150
	cmpq	%r15, %rbx
	jae	.LBB39_13
.Ltmp556:
.LBB39_2:                               # %L..inline.80213
                                        # =>This Inner Loop Header: Depth=1
	#DEBUG_VALUE:  <- $r14
	#DEBUG_VALUE: ~vector: <- $r14
	#DEBUG_VALUE: ~MeshParameters: <- $rbx
	#DEBUG_VALUE:  <- $rbx
	.file	13 "/home/talgat/vlasiator/vlasovsolver/../velocity_mesh_parameters.h"
	.loc	13 680 1 is_stmt 1      # vlasovsolver/../velocity_mesh_parameters.h:680:1
	movq	312(%rbx), %rdi
	testq	%rdi, %rdi
	je	.LBB39_4
.Ltmp557:
# %bb.3:                                # %L.B3903.i
                                        #   in Loop: Header=BB39_2 Depth=1
	#DEBUG_VALUE:  <- $rbx
	#DEBUG_VALUE: ~MeshParameters: <- $rbx
	#DEBUG_VALUE:  <- $r14
	#DEBUG_VALUE: ~vector: <- $r14
	callq	_ZdlPv
.Ltmp558:
.LBB39_4:                               # %L..inline.107011.i
                                        #   in Loop: Header=BB39_2 Depth=1
	#DEBUG_VALUE:  <- $rbx
	#DEBUG_VALUE: ~MeshParameters: <- $rbx
	#DEBUG_VALUE:  <- $r14
	#DEBUG_VALUE: ~vector: <- $r14
	movq	288(%rbx), %rdi
	testq	%rdi, %rdi
	je	.LBB39_6
.Ltmp559:
# %bb.5:                                # %L.B3904.i
                                        #   in Loop: Header=BB39_2 Depth=1
	#DEBUG_VALUE:  <- $rbx
	#DEBUG_VALUE: ~MeshParameters: <- $rbx
	#DEBUG_VALUE:  <- $r14
	#DEBUG_VALUE: ~vector: <- $r14
	callq	_ZdlPv
.Ltmp560:
.LBB39_6:                               # %L..inline.107089.i
                                        #   in Loop: Header=BB39_2 Depth=1
	#DEBUG_VALUE:  <- $rbx
	#DEBUG_VALUE: ~MeshParameters: <- $rbx
	#DEBUG_VALUE:  <- $r14
	#DEBUG_VALUE: ~vector: <- $r14
	movq	264(%rbx), %rdi
	testq	%rdi, %rdi
	je	.LBB39_8
.Ltmp561:
# %bb.7:                                # %L.B3905.i
                                        #   in Loop: Header=BB39_2 Depth=1
	#DEBUG_VALUE:  <- $rbx
	#DEBUG_VALUE: ~MeshParameters: <- $rbx
	#DEBUG_VALUE:  <- $r14
	#DEBUG_VALUE: ~vector: <- $r14
	callq	_ZdlPv
.Ltmp562:
.LBB39_8:                               # %L..inline.107167.i
                                        #   in Loop: Header=BB39_2 Depth=1
	#DEBUG_VALUE:  <- $rbx
	#DEBUG_VALUE: ~MeshParameters: <- $rbx
	#DEBUG_VALUE:  <- $r14
	#DEBUG_VALUE: ~vector: <- $r14
	movq	240(%rbx), %rdi
	testq	%rdi, %rdi
	je	.LBB39_10
.Ltmp563:
# %bb.9:                                # %L.B3906.i
                                        #   in Loop: Header=BB39_2 Depth=1
	#DEBUG_VALUE:  <- $rbx
	#DEBUG_VALUE: ~MeshParameters: <- $rbx
	#DEBUG_VALUE:  <- $r14
	#DEBUG_VALUE: ~vector: <- $r14
	callq	_ZdlPv
.Ltmp564:
.LBB39_10:                              # %L..inline.107245.i
                                        #   in Loop: Header=BB39_2 Depth=1
	#DEBUG_VALUE:  <- $rbx
	#DEBUG_VALUE: ~MeshParameters: <- $rbx
	#DEBUG_VALUE:  <- $r14
	#DEBUG_VALUE: ~vector: <- $r14
	.loc	13 658 1                # vlasovsolver/../velocity_mesh_parameters.h:658:1
	movq	(%rbx), %rdi
	leaq	16(%rbx), %rax
	cmpq	%rdi, %rax
	je	.LBB39_12
.Ltmp565:
# %bb.11:                               # %L.B3907.i
                                        #   in Loop: Header=BB39_2 Depth=1
	#DEBUG_VALUE:  <- $rbx
	#DEBUG_VALUE: ~MeshParameters: <- $rbx
	#DEBUG_VALUE:  <- $r14
	#DEBUG_VALUE: ~vector: <- $r14
	callq	_ZdlPv
	jmp	.LBB39_12
.Ltmp566:
.LBB39_13:                              # %L..inline.80214thread-pre-split
	#DEBUG_VALUE:  <- $r14
	#DEBUG_VALUE: ~vector: <- $r14
	.loc	12 332 1                # /usr/include/c++/9/bits/stl_vector.h:332:1
	movq	(%r14), %rbx
.Ltmp567:
.LBB39_14:                              # %L..inline.80214
	testq	%rbx, %rbx
	je	.LBB39_15
# %bb.16:                               # %L.B2576
	movq	%rbx, %rdi
	addq	$8, %rsp
	popq	%rbx
	popq	%r14
	popq	%r15
	popq	%rbp
	.cfi_def_cfa %rsp, 8
	jmp	_ZdlPv                  # TAILCALL
.LBB39_15:                              # %L..inline.80246
	.cfi_def_cfa %rbp, 16
	.loc	12 680 1                # /usr/include/c++/9/bits/stl_vector.h:680:1
	addq	$8, %rsp
	popq	%rbx
	popq	%r14
	popq	%r15
	popq	%rbp
	.cfi_def_cfa %rsp, 8
	retq
.Ltmp568:
.Lfunc_end39:
	.size	_ZNSt6vectorIN5vmesh14MeshParametersESaIS1_EED1Ev, .Lfunc_end39-_ZNSt6vectorIN5vmesh14MeshParametersESaIS1_EED1Ev
	.cfi_endproc
                                        # -- End function
	.weak	_ZN3MPI8DatatypeD1Ev    # -- Begin function _ZN3MPI8DatatypeD1Ev
	.p2align	4, 0x90
	.type	_ZN3MPI8DatatypeD1Ev,@function
_ZN3MPI8DatatypeD1Ev:                   # @_ZN3MPI8DatatypeD1Ev
.Lfunc_begin40:
	.file	14 "/usr/lib/x86_64-linux-gnu/openmpi/include/openmpi/ompi/mpi/cxx/datatype.h"
	.loc	14 70 0                 # /usr/lib/x86_64-linux-gnu/openmpi/include/openmpi/ompi/mpi/cxx/datatype.h:70:0
	.cfi_startproc
# %bb.0:                                # %L.entry
	#DEBUG_VALUE: ~Datatype: <- $rdi
	#DEBUG_VALUE: ~Datatype: <- $rdi
	pushq	%rbp
	.cfi_def_cfa_offset 16
	.cfi_offset %rbp, -16
	movq	%rsp, %rbp
	.cfi_def_cfa_register %rbp
.Ltmp569:
	#DEBUG_VALUE:  <- $rdi
	#DEBUG_VALUE:  <- $rdi
	.loc	14 70 1 prologue_end    # /usr/lib/x86_64-linux-gnu/openmpi/include/openmpi/ompi/mpi/cxx/datatype.h:70:1
	movq	$_ZTVN3MPI8DatatypeE+16, (%rdi)
	popq	%rbp
	.cfi_def_cfa %rsp, 8
	retq
.Ltmp570:
.Lfunc_end40:
	.size	_ZN3MPI8DatatypeD1Ev, .Lfunc_end40-_ZN3MPI8DatatypeD1Ev
	.cfi_endproc
                                        # -- End function
	.weak	_ZN3MPI8DatatypeD0Ev    # -- Begin function _ZN3MPI8DatatypeD0Ev
	.p2align	4, 0x90
	.type	_ZN3MPI8DatatypeD0Ev,@function
_ZN3MPI8DatatypeD0Ev:                   # @_ZN3MPI8DatatypeD0Ev
.Lfunc_begin41:
	.loc	1 0 0                   # vlasovsolver/cpu_acc_semilag.cpp:0:0
	.cfi_startproc
# %bb.0:                                # %L.entry
	pushq	%rbp
	.cfi_def_cfa_offset 16
	.cfi_offset %rbp, -16
	movq	%rsp, %rbp
	.cfi_def_cfa_register %rbp
.Ltmp571:
	.loc	1 70 1 prologue_end     # vlasovsolver/cpu_acc_semilag.cpp:70:1
	movl	$16, %esi
	popq	%rbp
	.cfi_def_cfa %rsp, 8
	jmp	_ZdlPvm                 # TAILCALL
.Ltmp572:
.Lfunc_end41:
	.size	_ZN3MPI8DatatypeD0Ev, .Lfunc_end41-_ZN3MPI8DatatypeD0Ev
	.cfi_endproc
                                        # -- End function
	.weak	_ZNK3MPI8Datatype17Create_contiguousEi # -- Begin function _ZNK3MPI8Datatype17Create_contiguousEi
	.p2align	4, 0x90
	.type	_ZNK3MPI8Datatype17Create_contiguousEi,@function
_ZNK3MPI8Datatype17Create_contiguousEi: # @_ZNK3MPI8Datatype17Create_contiguousEi
.Lfunc_begin42:
	.file	15 "/usr/lib/x86_64-linux-gnu/openmpi/include/openmpi/ompi/mpi/cxx/datatype_inln.h"
	.loc	15 30 0                 # /usr/lib/x86_64-linux-gnu/openmpi/include/openmpi/ompi/mpi/cxx/datatype_inln.h:30:0
	.cfi_startproc
# %bb.0:                                # %L.entry
	#DEBUG_VALUE: Create_contiguous: <- $rsi
	#DEBUG_VALUE: Create_contiguous:count <- $edx
	pushq	%rbp
	.cfi_def_cfa_offset 16
	.cfi_offset %rbp, -16
	movq	%rsp, %rbp
	.cfi_def_cfa_register %rbp
	pushq	%rbx
	pushq	%rax
	.cfi_offset %rbx, -24
	movl	%edx, %eax
	movq	%rdi, %rbx
.Ltmp573:
	#DEBUG_VALUE:  <- $rsi
	#DEBUG_VALUE: count <- $eax
	#DEBUG_VALUE: Create_contiguous:count <- $eax
	#DEBUG_VALUE: Create_contiguous: <- $rsi
