	.text
	.file	"cpu_acc_load_blocks.ll"
	.file	1 "/home/talgat/vlasiator/vlasovsolver/cpu_acc_load_blocks.cpp"
	.section	.rodata.cst32,"aM",@progbits,32
	.p2align	5               # -- Begin function _Z19loadColumnBlockDataRKN5vmesh12VelocityMeshIjjEERNS_22VelocityBlockContainerIjEEPjjiP10Vec8SimpleIfE
.LCPI0_0:
	.byte	0                       # 0x0
	.byte	1                       # 0x1
	.byte	2                       # 0x2
	.byte	3                       # 0x3
	.byte	16                      # 0x10
	.byte	17                      # 0x11
	.byte	18                      # 0x12
	.byte	19                      # 0x13
	.byte	32                      # 0x20
	.byte	33                      # 0x21
	.byte	34                      # 0x22
	.byte	35                      # 0x23
	.byte	48                      # 0x30
	.byte	49                      # 0x31
	.byte	50                      # 0x32
	.byte	51                      # 0x33
	.byte	4                       # 0x4
	.byte	5                       # 0x5
	.byte	6                       # 0x6
	.byte	7                       # 0x7
	.byte	20                      # 0x14
	.byte	21                      # 0x15
	.byte	22                      # 0x16
	.byte	23                      # 0x17
	.byte	36                      # 0x24
	.byte	37                      # 0x25
	.byte	38                      # 0x26
	.byte	39                      # 0x27
	.byte	52                      # 0x34
	.byte	53                      # 0x35
	.byte	54                      # 0x36
	.byte	55                      # 0x37
.LCPI0_1:
	.byte	8                       # 0x8
	.byte	9                       # 0x9
	.byte	10                      # 0xa
	.byte	11                      # 0xb
	.byte	24                      # 0x18
	.byte	25                      # 0x19
	.byte	26                      # 0x1a
	.byte	27                      # 0x1b
	.byte	40                      # 0x28
	.byte	41                      # 0x29
	.byte	42                      # 0x2a
	.byte	43                      # 0x2b
	.byte	56                      # 0x38
	.byte	57                      # 0x39
	.byte	58                      # 0x3a
	.byte	59                      # 0x3b
	.byte	12                      # 0xc
	.byte	13                      # 0xd
	.byte	14                      # 0xe
	.byte	15                      # 0xf
	.byte	28                      # 0x1c
	.byte	29                      # 0x1d
	.byte	30                      # 0x1e
	.byte	31                      # 0x1f
	.byte	44                      # 0x2c
	.byte	45                      # 0x2d
	.byte	46                      # 0x2e
	.byte	47                      # 0x2f
	.byte	60                      # 0x3c
	.byte	61                      # 0x3d
	.byte	62                      # 0x3e
	.byte	63                      # 0x3f
	.text
	.globl	_Z19loadColumnBlockDataRKN5vmesh12VelocityMeshIjjEERNS_22VelocityBlockContainerIjEEPjjiP10Vec8SimpleIfE
	.p2align	4, 0x90
	.type	_Z19loadColumnBlockDataRKN5vmesh12VelocityMeshIjjEERNS_22VelocityBlockContainerIjEEPjjiP10Vec8SimpleIfE,@function
_Z19loadColumnBlockDataRKN5vmesh12VelocityMeshIjjEERNS_22VelocityBlockContainerIjEEPjjiP10Vec8SimpleIfE: # @_Z19loadColumnBlockDataRKN5vmesh12VelocityMeshIjjEERNS_22VelocityBlockContainerIjEEPjjiP10Vec8SimpleIfE
.Lfunc_begin0:
	.loc	1 34 0                  # vlasovsolver/cpu_acc_load_blocks.cpp:34:0
	.cfi_startproc
# %bb.0:                                # %L.entry
	#DEBUG_VALUE: loadColumnBlockData:vmesh <- $rdi
	#DEBUG_VALUE: loadColumnBlockData:blockContainer <- $rsi
	#DEBUG_VALUE: loadColumnBlockData:blocks <- $rdx
	#DEBUG_VALUE: loadColumnBlockData:n_blocks <- $ecx
	#DEBUG_VALUE: loadColumnBlockData:dimension <- $r8d
	#DEBUG_VALUE: loadColumnBlockData:values <- $r9
	pushq	%rbp
	.cfi_def_cfa_offset 16
	.cfi_offset %rbp, -16
	movq	%rsp, %rbp
	.cfi_def_cfa_register %rbp
	pushq	%r15
	pushq	%r14
	pushq	%r13
	pushq	%r12
	pushq	%rbx
	andq	$-32, %rsp
	subq	$672, %rsp              # imm = 0x2A0
	.cfi_offset %rbx, -56
	.cfi_offset %r12, -48
	.cfi_offset %r13, -40
	.cfi_offset %r14, -32
	.cfi_offset %r15, -24
	movq	%r9, %rbx
	movl	%r8d, 36(%rsp)          # 4-byte Spill
                                        # kill: def $ecx killed $ecx def $rcx
	movq	%rdx, 104(%rsp)         # 8-byte Spill
	movq	%rsi, 96(%rsp)          # 8-byte Spill
	movq	%rdi, 56(%rsp)          # 8-byte Spill
.Ltmp0:
	#DEBUG_VALUE: k <- 0
	#DEBUG_VALUE: values <- $rbx
	#DEBUG_VALUE: dimension <- undef
	#DEBUG_VALUE: n_blocks <- $ecx
	#DEBUG_VALUE: blocks <- undef
	#DEBUG_VALUE: blockContainer <- undef
	#DEBUG_VALUE: vmesh <- undef
	#DEBUG_VALUE: loadColumnBlockData:values <- $rbx
	#DEBUG_VALUE: loadColumnBlockData:dimension <- [DW_OP_plus_uconst 36] [$rsp+0]
	#DEBUG_VALUE: loadColumnBlockData:n_blocks <- $ecx
	#DEBUG_VALUE: loadColumnBlockData:blocks <- [DW_OP_plus_uconst 104] [$rsp+0]
	#DEBUG_VALUE: loadColumnBlockData:blockContainer <- [DW_OP_plus_uconst 96] [$rsp+0]
	#DEBUG_VALUE: loadColumnBlockData:vmesh <- [DW_OP_plus_uconst 56] [$rsp+0]
	.loc	1 38 1 prologue_end     # vlasovsolver/cpu_acc_load_blocks.cpp:38:1
	leal	2(%rcx), %eax
	movq	%rax, 48(%rsp)          # 8-byte Spill
	leal	4(,%rcx,4), %r15d
.Ltmp1:
	.loc	1 0 0 is_stmt 0         # vlasovsolver/cpu_acc_load_blocks.cpp:0:0
	leal	8(,%rcx,4), %r12d
.Ltmp2:
	#DEBUG_VALUE: j <- undef
	movq	%rcx, %r14
.Ltmp3:
	#DEBUG_VALUE: n_blocks <- $r14d
	#DEBUG_VALUE: loadColumnBlockData:n_blocks <- $r14d
	leaq	576(%rsp), %r13
	.loc	1 40 1 is_stmt 1        # vlasovsolver/cpu_acc_load_blocks.cpp:40:1
	vxorps	%xmm0, %xmm0, %xmm0
	movq	%r13, %rdi
	callq	_ZN10Vec8SimpleIfEC1Ef
	movq	%rbx, %rdi
	movq	%r13, %rsi
	callq	_ZN10Vec8SimpleIfEaSERKS0_
	.loc	1 41 1                  # vlasovsolver/cpu_acc_load_blocks.cpp:41:1
	vxorps	%xmm0, %xmm0, %xmm0
	movq	%r13, %rdi
	callq	_ZN10Vec8SimpleIfEC1Ef
	shlq	$6, %r15
	leaq	(%rbx,%r15), %rdi
	movq	%r13, %rsi
	callq	_ZN10Vec8SimpleIfEaSERKS0_
	.loc	1 40 1                  # vlasovsolver/cpu_acc_load_blocks.cpp:40:1
	vxorps	%xmm0, %xmm0, %xmm0
	movq	%r13, %rdi
	callq	_ZN10Vec8SimpleIfEC1Ef
	movq	%r12, 8(%rsp)           # 8-byte Spill
	movq	%r12, %rax
	shlq	$6, %rax
	movq	%rax, 16(%rsp)          # 8-byte Spill
	leaq	(%rbx,%rax), %rdi
	movq	%r13, %rsi
	callq	_ZN10Vec8SimpleIfEaSERKS0_
	.loc	1 41 1                  # vlasovsolver/cpu_acc_load_blocks.cpp:41:1
	vxorps	%xmm0, %xmm0, %xmm0
	movq	%r13, %rdi
	callq	_ZN10Vec8SimpleIfEC1Ef
	leal	(%r12,%r14,4), %edi
	addl	$4, %edi
	movq	%r14, %r12
.Ltmp4:
	#DEBUG_VALUE: n_blocks <- $r12d
	#DEBUG_VALUE: loadColumnBlockData:n_blocks <- $r12d
	shlq	$6, %rdi
	addq	%rbx, %rdi
	movq	%r13, %rsi
	callq	_ZN10Vec8SimpleIfEaSERKS0_
.Ltmp5:
	#DEBUG_VALUE: k <- 1
	.loc	1 40 1                  # vlasovsolver/cpu_acc_load_blocks.cpp:40:1
	vxorps	%xmm0, %xmm0, %xmm0
	movq	%r13, %rdi
	callq	_ZN10Vec8SimpleIfEC1Ef
	leaq	64(%rbx), %rdi
	movq	%r13, %rsi
	callq	_ZN10Vec8SimpleIfEaSERKS0_
	.loc	1 41 1                  # vlasovsolver/cpu_acc_load_blocks.cpp:41:1
	vxorps	%xmm0, %xmm0, %xmm0
	movq	%r13, %rdi
	callq	_ZN10Vec8SimpleIfEC1Ef
	leaq	(%rbx,%r15), %rdi
	addq	$64, %rdi
	movq	%r13, %rsi
	callq	_ZN10Vec8SimpleIfEaSERKS0_
	.loc	1 40 1                  # vlasovsolver/cpu_acc_load_blocks.cpp:40:1
	vxorps	%xmm0, %xmm0, %xmm0
	movq	%r13, %rdi
	callq	_ZN10Vec8SimpleIfEC1Ef
	movq	16(%rsp), %r14          # 8-byte Reload
	leaq	(%rbx,%r14), %rdi
	addq	$64, %rdi
	movq	%r13, %rsi
	callq	_ZN10Vec8SimpleIfEaSERKS0_
	.loc	1 41 1                  # vlasovsolver/cpu_acc_load_blocks.cpp:41:1
	vxorps	%xmm0, %xmm0, %xmm0
	movq	%r13, %rdi
	callq	_ZN10Vec8SimpleIfEC1Ef
	#DEBUG_VALUE: n_blocks <- $r12d
	#DEBUG_VALUE: loadColumnBlockData:n_blocks <- $r12d
	movq	8(%rsp), %rax           # 8-byte Reload
	leal	(%rax,%r12,4), %edi
	addl	$5, %edi
	shlq	$6, %rdi
	addq	%rbx, %rdi
	movq	%r13, %rsi
	callq	_ZN10Vec8SimpleIfEaSERKS0_
.Ltmp6:
	#DEBUG_VALUE: k <- 2
	.loc	1 40 1                  # vlasovsolver/cpu_acc_load_blocks.cpp:40:1
	vxorps	%xmm0, %xmm0, %xmm0
	movq	%r13, %rdi
	callq	_ZN10Vec8SimpleIfEC1Ef
	leaq	128(%rbx), %rdi
	movq	%r13, %rsi
	callq	_ZN10Vec8SimpleIfEaSERKS0_
	.loc	1 41 1                  # vlasovsolver/cpu_acc_load_blocks.cpp:41:1
	vxorps	%xmm0, %xmm0, %xmm0
	movq	%r13, %rdi
	callq	_ZN10Vec8SimpleIfEC1Ef
	leaq	(%rbx,%r15), %rdi
	addq	$128, %rdi
	movq	%r13, %rsi
	callq	_ZN10Vec8SimpleIfEaSERKS0_
	.loc	1 40 1                  # vlasovsolver/cpu_acc_load_blocks.cpp:40:1
	vxorps	%xmm0, %xmm0, %xmm0
	movq	%r13, %rdi
	callq	_ZN10Vec8SimpleIfEC1Ef
	leaq	(%rbx,%r14), %rdi
	addq	$128, %rdi
	movq	%r13, %rsi
	callq	_ZN10Vec8SimpleIfEaSERKS0_
	.loc	1 41 1                  # vlasovsolver/cpu_acc_load_blocks.cpp:41:1
	vxorps	%xmm0, %xmm0, %xmm0
	movq	%r13, %rdi
	callq	_ZN10Vec8SimpleIfEC1Ef
	movq	8(%rsp), %r14           # 8-byte Reload
	leal	(%r14,%r12,4), %edi
	addl	$6, %edi
	#DEBUG_VALUE: n_blocks <- $r12d
	#DEBUG_VALUE: loadColumnBlockData:n_blocks <- $r12d
	shlq	$6, %rdi
	addq	%rbx, %rdi
	movq	%r13, %rsi
	callq	_ZN10Vec8SimpleIfEaSERKS0_
.Ltmp7:
	#DEBUG_VALUE: k <- 3
	.loc	1 40 1                  # vlasovsolver/cpu_acc_load_blocks.cpp:40:1
	vxorps	%xmm0, %xmm0, %xmm0
	movq	%r13, %rdi
	callq	_ZN10Vec8SimpleIfEC1Ef
	leaq	192(%rbx), %rdi
	movq	%r13, %rsi
	callq	_ZN10Vec8SimpleIfEaSERKS0_
	.loc	1 41 1                  # vlasovsolver/cpu_acc_load_blocks.cpp:41:1
	vxorps	%xmm0, %xmm0, %xmm0
	movq	%r13, %rdi
	callq	_ZN10Vec8SimpleIfEC1Ef
	leaq	(%rbx,%r15), %rdi
	addq	$192, %rdi
	movq	%r13, %rsi
	callq	_ZN10Vec8SimpleIfEaSERKS0_
	.loc	1 40 1                  # vlasovsolver/cpu_acc_load_blocks.cpp:40:1
	vxorps	%xmm0, %xmm0, %xmm0
	movq	%r13, %rdi
	callq	_ZN10Vec8SimpleIfEC1Ef
	movq	16(%rsp), %rax          # 8-byte Reload
	leaq	(%rbx,%rax), %rdi
	addq	$192, %rdi
	movq	%r13, %rsi
	callq	_ZN10Vec8SimpleIfEaSERKS0_
	.loc	1 41 1                  # vlasovsolver/cpu_acc_load_blocks.cpp:41:1
	vxorps	%xmm0, %xmm0, %xmm0
	movq	%r13, %rdi
	callq	_ZN10Vec8SimpleIfEC1Ef
	leal	(%r14,%r12,4), %edi
	addl	$7, %edi
	shlq	$6, %rdi
	movq	%rbx, 24(%rsp)          # 8-byte Spill
.Ltmp8:
	#DEBUG_VALUE: values <- [DW_OP_plus_uconst 24] [$rsp+0]
	#DEBUG_VALUE: loadColumnBlockData:values <- [DW_OP_plus_uconst 24] [$rsp+0]
	addq	%rbx, %rdi
	movq	%r13, %rsi
	callq	_ZN10Vec8SimpleIfEaSERKS0_
.Ltmp9:
	#DEBUG_VALUE: j <- [DW_OP_plus_uconst 2, DW_OP_stack_value] undef
	#DEBUG_VALUE: k <- 4
	#DEBUG_VALUE: n_blocks <- $r12d
	#DEBUG_VALUE: loadColumnBlockData:n_blocks <- $r12d
	.loc	1 0 1 is_stmt 0         # vlasovsolver/cpu_acc_load_blocks.cpp:0:1
	movq	%r12, 16(%rsp)          # 8-byte Spill
.Ltmp10:
	#DEBUG_VALUE: n_blocks <- [DW_OP_plus_uconst 16] [$rsp+0]
	#DEBUG_VALUE: loadColumnBlockData:n_blocks <- [DW_OP_plus_uconst 16] [$rsp+0]
	.loc	1 92 1 is_stmt 1        # vlasovsolver/cpu_acc_load_blocks.cpp:92:1
	testl	%r12d, %r12d
.Ltmp11:
	#DEBUG_VALUE: block_k <- 0
	.loc	1 91 1                  # vlasovsolver/cpu_acc_load_blocks.cpp:91:1
	je	.LBB0_16
.Ltmp12:
# %bb.1:                                # %L.entry
	#DEBUG_VALUE: block_k <- 0
	#DEBUG_VALUE: loadColumnBlockData:n_blocks <- [DW_OP_plus_uconst 16] [$rsp+0]
	#DEBUG_VALUE: n_blocks <- [DW_OP_plus_uconst 16] [$rsp+0]
	#DEBUG_VALUE: loadColumnBlockData:values <- [DW_OP_plus_uconst 24] [$rsp+0]
	#DEBUG_VALUE: values <- [DW_OP_plus_uconst 24] [$rsp+0]
	#DEBUG_VALUE: loadColumnBlockData:vmesh <- [DW_OP_plus_uconst 56] [$rsp+0]
	#DEBUG_VALUE: loadColumnBlockData:blockContainer <- [DW_OP_plus_uconst 96] [$rsp+0]
	#DEBUG_VALUE: loadColumnBlockData:blocks <- [DW_OP_plus_uconst 104] [$rsp+0]
	#DEBUG_VALUE: loadColumnBlockData:dimension <- [DW_OP_plus_uconst 36] [$rsp+0]
	cmpl	$0, 36(%rsp)            # 4-byte Folded Reload
	jne	.LBB0_16
.Ltmp13:
# %bb.2:                                # %L.B0817
	#DEBUG_VALUE: block_k <- 0
	#DEBUG_VALUE: loadColumnBlockData:n_blocks <- [DW_OP_plus_uconst 16] [$rsp+0]
	#DEBUG_VALUE: n_blocks <- [DW_OP_plus_uconst 16] [$rsp+0]
	#DEBUG_VALUE: loadColumnBlockData:values <- [DW_OP_plus_uconst 24] [$rsp+0]
	#DEBUG_VALUE: values <- [DW_OP_plus_uconst 24] [$rsp+0]
	#DEBUG_VALUE: loadColumnBlockData:vmesh <- [DW_OP_plus_uconst 56] [$rsp+0]
	#DEBUG_VALUE: loadColumnBlockData:blockContainer <- [DW_OP_plus_uconst 96] [$rsp+0]
	#DEBUG_VALUE: loadColumnBlockData:blocks <- [DW_OP_plus_uconst 104] [$rsp+0]
	#DEBUG_VALUE: loadColumnBlockData:dimension <- [DW_OP_plus_uconst 36] [$rsp+0]
	.loc	1 0 1 is_stmt 0         # vlasovsolver/cpu_acc_load_blocks.cpp:0:1
	movq	48(%rsp), %rax          # 8-byte Reload
.Ltmp14:
	.loc	1 92 1 is_stmt 1        # vlasovsolver/cpu_acc_load_blocks.cpp:92:1
	leal	(,%rax,4), %ecx
	movq	%rcx, 88(%rsp)          # 8-byte Spill
	leal	3(,%rax,4), %ecx
	movq	%rcx, 80(%rsp)          # 8-byte Spill
	leal	2(,%rax,4), %ecx
	movq	%rcx, 72(%rsp)          # 8-byte Spill
	leal	1(,%rax,4), %eax
	movq	%rax, 64(%rsp)          # 8-byte Spill
	leaq	512(%rsp), %r12
.Ltmp15:
	.loc	1 0 0 is_stmt 0         # vlasovsolver/cpu_acc_load_blocks.cpp:0:0
	xorl	%r15d, %r15d
	movq	16(%rsp), %rax          # 8-byte Reload
.Ltmp16:
	.loc	1 92 1                  # vlasovsolver/cpu_acc_load_blocks.cpp:92:1
	movl	%eax, %r11d
	movq	24(%rsp), %r13          # 8-byte Reload
	jmp	.LBB0_3
.Ltmp17:
	.p2align	4, 0x90
.LBB0_15:                               # %_ZNK5vmesh12VelocityMeshIjjE10getLocalIDERKj.exit
                                        #   in Loop: Header=BB0_3 Depth=1
	#DEBUG_VALUE: block_k <- $r15
	#DEBUG_VALUE: loadColumnBlockData:n_blocks <- [DW_OP_plus_uconst 16] [$rsp+0]
	#DEBUG_VALUE: n_blocks <- [DW_OP_plus_uconst 16] [$rsp+0]
	#DEBUG_VALUE: loadColumnBlockData:values <- [DW_OP_plus_uconst 24] [$rsp+0]
	#DEBUG_VALUE: values <- [DW_OP_plus_uconst 24] [$rsp+0]
	#DEBUG_VALUE: loadColumnBlockData:vmesh <- [DW_OP_plus_uconst 56] [$rsp+0]
	#DEBUG_VALUE: loadColumnBlockData:blockContainer <- [DW_OP_plus_uconst 96] [$rsp+0]
	#DEBUG_VALUE: loadColumnBlockData:blocks <- [DW_OP_plus_uconst 104] [$rsp+0]
	#DEBUG_VALUE: loadColumnBlockData:dimension <- [DW_OP_plus_uconst 36] [$rsp+0]
	.loc	1 0 1                   # vlasovsolver/cpu_acc_load_blocks.cpp:0:1
	movq	96(%rsp), %rax          # 8-byte Reload
.Ltmp18:
	.loc	1 179 1 is_stmt 1       # vlasovsolver/cpu_acc_load_blocks.cpp:179:1
	movq	(%rax), %r14
	shll	$6, %ebx
	leaq	(%r14,%rbx,4), %rax
	movq	%rax, 40(%rsp)          # 8-byte Spill
.Ltmp19:
	.loc	1 172 1                 # vlasovsolver/cpu_acc_load_blocks.cpp:172:1
	vmovss	64(%r14,%rbx,4), %xmm1  # xmm1 = mem[0],zero,zero,zero
	vmovss	128(%r14,%rbx,4), %xmm2 # xmm2 = mem[0],zero,zero,zero
	vmovss	192(%r14,%rbx,4), %xmm3 # xmm3 = mem[0],zero,zero,zero
.Ltmp20:
	#DEBUG_VALUE: data <- [DW_OP_plus_uconst 40] [$rsp+0]
	vmovss	(%r14,%rbx,4), %xmm0    # xmm0 = mem[0],zero,zero,zero
	vmovss	16(%r14,%rbx,4), %xmm4  # xmm4 = mem[0],zero,zero,zero
	vmovss	80(%r14,%rbx,4), %xmm5  # xmm5 = mem[0],zero,zero,zero
	vmovss	144(%r14,%rbx,4), %xmm6 # xmm6 = mem[0],zero,zero,zero
	vmovss	208(%r14,%rbx,4), %xmm7 # xmm7 = mem[0],zero,zero,zero
	movq	%r12, %rdi
	callq	_ZN10Vec8SimpleIfEC1Effffffff
	incq	%r15
.Ltmp21:
	leal	(,%r15,4), %edi
	shlq	$6, %rdi
	addq	%r13, %rdi
	movq	%r12, %rsi
	callq	_ZN10Vec8SimpleIfEaSERKS0_
	.loc	1 173 1                 # vlasovsolver/cpu_acc_load_blocks.cpp:173:1
	vmovss	96(%r14,%rbx,4), %xmm1  # xmm1 = mem[0],zero,zero,zero
	vmovss	160(%r14,%rbx,4), %xmm2 # xmm2 = mem[0],zero,zero,zero
	vmovss	224(%r14,%rbx,4), %xmm3 # xmm3 = mem[0],zero,zero,zero
	vmovss	32(%r14,%rbx,4), %xmm0  # xmm0 = mem[0],zero,zero,zero
	vmovss	48(%r14,%rbx,4), %xmm4  # xmm4 = mem[0],zero,zero,zero
	vmovss	112(%r14,%rbx,4), %xmm5 # xmm5 = mem[0],zero,zero,zero
	vmovss	176(%r14,%rbx,4), %xmm6 # xmm6 = mem[0],zero,zero,zero
	vmovss	240(%r14,%rbx,4), %xmm7 # xmm7 = mem[0],zero,zero,zero
	movq	%r12, %rdi
	callq	_ZN10Vec8SimpleIfEC1Effffffff
	movq	88(%rsp), %rax          # 8-byte Reload
	leal	(%rax,%r15,4), %edi
	shlq	$6, %rdi
	addq	%r13, %rdi
	movq	%r12, %rsi
	callq	_ZN10Vec8SimpleIfEaSERKS0_
	.loc	1 174 1                 # vlasovsolver/cpu_acc_load_blocks.cpp:174:1
	vmovss	68(%r14,%rbx,4), %xmm1  # xmm1 = mem[0],zero,zero,zero
	vmovss	132(%r14,%rbx,4), %xmm2 # xmm2 = mem[0],zero,zero,zero
	vmovss	196(%r14,%rbx,4), %xmm3 # xmm3 = mem[0],zero,zero,zero
	vmovss	4(%r14,%rbx,4), %xmm0   # xmm0 = mem[0],zero,zero,zero
	vmovss	20(%r14,%rbx,4), %xmm4  # xmm4 = mem[0],zero,zero,zero
	vmovss	84(%r14,%rbx,4), %xmm5  # xmm5 = mem[0],zero,zero,zero
	vmovss	148(%r14,%rbx,4), %xmm6 # xmm6 = mem[0],zero,zero,zero
	vmovss	212(%r14,%rbx,4), %xmm7 # xmm7 = mem[0],zero,zero,zero
	movq	%r12, %rdi
	callq	_ZN10Vec8SimpleIfEC1Effffffff
	leal	1(,%r15,4), %edi
	shlq	$6, %rdi
	addq	%r13, %rdi
	movq	%r12, %rsi
	callq	_ZN10Vec8SimpleIfEaSERKS0_
	.loc	1 175 1                 # vlasovsolver/cpu_acc_load_blocks.cpp:175:1
	vmovss	100(%r14,%rbx,4), %xmm1 # xmm1 = mem[0],zero,zero,zero
	vmovss	164(%r14,%rbx,4), %xmm2 # xmm2 = mem[0],zero,zero,zero
	vmovss	228(%r14,%rbx,4), %xmm3 # xmm3 = mem[0],zero,zero,zero
	vmovss	36(%r14,%rbx,4), %xmm0  # xmm0 = mem[0],zero,zero,zero
	vmovss	52(%r14,%rbx,4), %xmm4  # xmm4 = mem[0],zero,zero,zero
	vmovss	116(%r14,%rbx,4), %xmm5 # xmm5 = mem[0],zero,zero,zero
	vmovss	180(%r14,%rbx,4), %xmm6 # xmm6 = mem[0],zero,zero,zero
	vmovss	244(%r14,%rbx,4), %xmm7 # xmm7 = mem[0],zero,zero,zero
	movq	%r12, %rdi
	callq	_ZN10Vec8SimpleIfEC1Effffffff
	movq	64(%rsp), %rax          # 8-byte Reload
	leal	(%rax,%r15,4), %edi
	shlq	$6, %rdi
	addq	%r13, %rdi
	movq	%r12, %rsi
	callq	_ZN10Vec8SimpleIfEaSERKS0_
	.loc	1 176 1                 # vlasovsolver/cpu_acc_load_blocks.cpp:176:1
	vmovss	72(%r14,%rbx,4), %xmm1  # xmm1 = mem[0],zero,zero,zero
	vmovss	136(%r14,%rbx,4), %xmm2 # xmm2 = mem[0],zero,zero,zero
	vmovss	200(%r14,%rbx,4), %xmm3 # xmm3 = mem[0],zero,zero,zero
	vmovss	8(%r14,%rbx,4), %xmm0   # xmm0 = mem[0],zero,zero,zero
	vmovss	24(%r14,%rbx,4), %xmm4  # xmm4 = mem[0],zero,zero,zero
	vmovss	88(%r14,%rbx,4), %xmm5  # xmm5 = mem[0],zero,zero,zero
	vmovss	152(%r14,%rbx,4), %xmm6 # xmm6 = mem[0],zero,zero,zero
	vmovss	216(%r14,%rbx,4), %xmm7 # xmm7 = mem[0],zero,zero,zero
	movq	%r12, %rdi
	callq	_ZN10Vec8SimpleIfEC1Effffffff
	leal	2(,%r15,4), %edi
	shlq	$6, %rdi
	addq	%r13, %rdi
	movq	%r12, %rsi
	callq	_ZN10Vec8SimpleIfEaSERKS0_
	.loc	1 177 1                 # vlasovsolver/cpu_acc_load_blocks.cpp:177:1
	vmovss	104(%r14,%rbx,4), %xmm1 # xmm1 = mem[0],zero,zero,zero
	vmovss	168(%r14,%rbx,4), %xmm2 # xmm2 = mem[0],zero,zero,zero
	vmovss	232(%r14,%rbx,4), %xmm3 # xmm3 = mem[0],zero,zero,zero
	vmovss	40(%r14,%rbx,4), %xmm0  # xmm0 = mem[0],zero,zero,zero
	vmovss	56(%r14,%rbx,4), %xmm4  # xmm4 = mem[0],zero,zero,zero
	vmovss	120(%r14,%rbx,4), %xmm5 # xmm5 = mem[0],zero,zero,zero
	vmovss	184(%r14,%rbx,4), %xmm6 # xmm6 = mem[0],zero,zero,zero
	vmovss	248(%r14,%rbx,4), %xmm7 # xmm7 = mem[0],zero,zero,zero
	movq	%r12, %rdi
	callq	_ZN10Vec8SimpleIfEC1Effffffff
	movq	72(%rsp), %rax          # 8-byte Reload
	leal	(%rax,%r15,4), %edi
	shlq	$6, %rdi
	addq	%r13, %rdi
	movq	%r12, %rsi
	callq	_ZN10Vec8SimpleIfEaSERKS0_
	.loc	1 178 1                 # vlasovsolver/cpu_acc_load_blocks.cpp:178:1
	vmovss	76(%r14,%rbx,4), %xmm1  # xmm1 = mem[0],zero,zero,zero
	vmovss	140(%r14,%rbx,4), %xmm2 # xmm2 = mem[0],zero,zero,zero
	vmovss	204(%r14,%rbx,4), %xmm3 # xmm3 = mem[0],zero,zero,zero
	vmovss	12(%r14,%rbx,4), %xmm0  # xmm0 = mem[0],zero,zero,zero
	vmovss	28(%r14,%rbx,4), %xmm4  # xmm4 = mem[0],zero,zero,zero
	vmovss	92(%r14,%rbx,4), %xmm5  # xmm5 = mem[0],zero,zero,zero
	vmovss	156(%r14,%rbx,4), %xmm6 # xmm6 = mem[0],zero,zero,zero
	vmovss	220(%r14,%rbx,4), %xmm7 # xmm7 = mem[0],zero,zero,zero
	movq	%r12, %rdi
	callq	_ZN10Vec8SimpleIfEC1Effffffff
	leal	3(,%r15,4), %edi
	shlq	$6, %rdi
	addq	%r13, %rdi
	movq	%r12, %rsi
	callq	_ZN10Vec8SimpleIfEaSERKS0_
.Ltmp22:
	.loc	1 179 1                 # vlasovsolver/cpu_acc_load_blocks.cpp:179:1
	vmovss	108(%r14,%rbx,4), %xmm1 # xmm1 = mem[0],zero,zero,zero
	vmovss	172(%r14,%rbx,4), %xmm2 # xmm2 = mem[0],zero,zero,zero
	vmovss	236(%r14,%rbx,4), %xmm3 # xmm3 = mem[0],zero,zero,zero
	vmovss	44(%r14,%rbx,4), %xmm0  # xmm0 = mem[0],zero,zero,zero
	vmovss	60(%r14,%rbx,4), %xmm4  # xmm4 = mem[0],zero,zero,zero
	vmovss	124(%r14,%rbx,4), %xmm5 # xmm5 = mem[0],zero,zero,zero
	vmovss	188(%r14,%rbx,4), %xmm6 # xmm6 = mem[0],zero,zero,zero
	vmovss	252(%r14,%rbx,4), %xmm7 # xmm7 = mem[0],zero,zero,zero
	movq	%r12, %rdi
	callq	_ZN10Vec8SimpleIfEC1Effffffff
	movq	80(%rsp), %rax          # 8-byte Reload
	leal	(%rax,%r15,4), %edi
	shlq	$6, %rdi
	addq	%r13, %rdi
	movq	%r12, %rsi
	callq	_ZN10Vec8SimpleIfEaSERKS0_
	.loc	1 196 1                 # vlasovsolver/cpu_acc_load_blocks.cpp:196:1
	movl	$64, %esi
	movq	40(%rsp), %rdi          # 8-byte Reload
	xorl	%eax, %eax
	callq	__c_mzero4
.Ltmp23:
	#DEBUG_VALUE: block_k <- $r15
	.loc	1 0 1 is_stmt 0         # vlasovsolver/cpu_acc_load_blocks.cpp:0:1
	movl	8(%rsp), %r11d          # 4-byte Reload
.Ltmp24:
	.loc	1 198 1 is_stmt 1       # vlasovsolver/cpu_acc_load_blocks.cpp:198:1
	decl	%r11d
	je	.LBB0_16
.Ltmp25:
.LBB0_3:                                # %L.B0015
                                        # =>This Loop Header: Depth=1
                                        #     Child Loop BB0_7 Depth 2
	#DEBUG_VALUE: loadColumnBlockData:n_blocks <- [DW_OP_plus_uconst 16] [$rsp+0]
	#DEBUG_VALUE: n_blocks <- [DW_OP_plus_uconst 16] [$rsp+0]
	#DEBUG_VALUE: loadColumnBlockData:values <- [DW_OP_plus_uconst 24] [$rsp+0]
	#DEBUG_VALUE: values <- [DW_OP_plus_uconst 24] [$rsp+0]
	#DEBUG_VALUE: loadColumnBlockData:vmesh <- [DW_OP_plus_uconst 56] [$rsp+0]
	#DEBUG_VALUE: loadColumnBlockData:blockContainer <- [DW_OP_plus_uconst 96] [$rsp+0]
	#DEBUG_VALUE: loadColumnBlockData:blocks <- [DW_OP_plus_uconst 104] [$rsp+0]
	#DEBUG_VALUE: loadColumnBlockData:dimension <- [DW_OP_plus_uconst 36] [$rsp+0]
	#DEBUG_VALUE: block_k <- $r15
	#DEBUG_VALUE: getLocalID: <- [DW_OP_plus_uconst 56] [$rsp+0]
	#DEBUG_VALUE:  <- [DW_OP_plus_uconst 56] [$rsp+0]
	#DEBUG_VALUE: getLocalID:globalID <- undef
	#DEBUG_VALUE: globalID <- undef
	.loc	1 0 1 is_stmt 0         # vlasovsolver/cpu_acc_load_blocks.cpp:0:1
	movq	104(%rsp), %rax         # 8-byte Reload
.Ltmp26:
	.file	2 "/home/talgat/vlasiator/vlasovsolver/../velocity_mesh_old.h"
	.loc	2 925 1 is_stmt 1       # vlasovsolver/../velocity_mesh_old.h:925:1
	movl	(%rax,%r15,4), %r9d
	movq	56(%rsp), %rcx          # 8-byte Reload
	movq	40(%rcx), %r10
	movq	%r9, %r8
	cmpq	%r10, %r9
	jb	.LBB0_5
.Ltmp27:
# %bb.4:                                #   in Loop: Header=BB0_3 Depth=1
	#DEBUG_VALUE:  <- [DW_OP_plus_uconst 56] [$rsp+0]
	#DEBUG_VALUE: getLocalID: <- [DW_OP_plus_uconst 56] [$rsp+0]
	#DEBUG_VALUE: block_k <- $r15
	#DEBUG_VALUE: loadColumnBlockData:n_blocks <- [DW_OP_plus_uconst 16] [$rsp+0]
	#DEBUG_VALUE: n_blocks <- [DW_OP_plus_uconst 16] [$rsp+0]
	#DEBUG_VALUE: loadColumnBlockData:values <- [DW_OP_plus_uconst 24] [$rsp+0]
	#DEBUG_VALUE: values <- [DW_OP_plus_uconst 24] [$rsp+0]
	#DEBUG_VALUE: loadColumnBlockData:vmesh <- [DW_OP_plus_uconst 56] [$rsp+0]
	#DEBUG_VALUE: loadColumnBlockData:blockContainer <- [DW_OP_plus_uconst 96] [$rsp+0]
	#DEBUG_VALUE: loadColumnBlockData:blocks <- [DW_OP_plus_uconst 104] [$rsp+0]
	#DEBUG_VALUE: loadColumnBlockData:dimension <- [DW_OP_plus_uconst 36] [$rsp+0]
	.loc	2 0 1 is_stmt 0         # vlasovsolver/../velocity_mesh_old.h:0:1
	movl	%r9d, %eax
	xorl	%edx, %edx
	divl	%r10d
	movl	%edx, %r8d
.Ltmp28:
.LBB0_5:                                #   in Loop: Header=BB0_3 Depth=1
	#DEBUG_VALUE:  <- [DW_OP_plus_uconst 56] [$rsp+0]
	#DEBUG_VALUE: getLocalID: <- [DW_OP_plus_uconst 56] [$rsp+0]
	#DEBUG_VALUE: block_k <- $r15
	#DEBUG_VALUE: loadColumnBlockData:n_blocks <- [DW_OP_plus_uconst 16] [$rsp+0]
	#DEBUG_VALUE: n_blocks <- [DW_OP_plus_uconst 16] [$rsp+0]
	#DEBUG_VALUE: loadColumnBlockData:values <- [DW_OP_plus_uconst 24] [$rsp+0]
	#DEBUG_VALUE: values <- [DW_OP_plus_uconst 24] [$rsp+0]
	#DEBUG_VALUE: loadColumnBlockData:vmesh <- [DW_OP_plus_uconst 56] [$rsp+0]
	#DEBUG_VALUE: loadColumnBlockData:blockContainer <- [DW_OP_plus_uconst 96] [$rsp+0]
	#DEBUG_VALUE: loadColumnBlockData:blocks <- [DW_OP_plus_uconst 104] [$rsp+0]
	#DEBUG_VALUE: loadColumnBlockData:dimension <- [DW_OP_plus_uconst 36] [$rsp+0]
	#DEBUG_VALUE: _M_find_before_node: <- [DW_OP_plus_uconst 56, DW_OP_deref_size 8, DW_OP_plus_uconst 32, DW_OP_stack_value] $rsp
	#DEBUG_VALUE:  <- [DW_OP_plus_uconst 56, DW_OP_deref_size 8, DW_OP_plus_uconst 32, DW_OP_stack_value] $rsp
	#DEBUG_VALUE: _M_find_before_node:__n <- $r8
	#DEBUG_VALUE: __n <- $r8
	#DEBUG_VALUE: _M_find_before_node:__code <- $r9
	#DEBUG_VALUE: __code <- $r9
	.file	3 "/usr/include/c++/9/bits/hashtable.h"
	.loc	3 1538 1 is_stmt 1      # /usr/include/c++/9/bits/hashtable.h:1538:1
	movq	32(%rcx), %rax
	movq	(%rax,%r8,8), %rsi
.Ltmp29:
	#DEBUG_VALUE: __prev_p <- $rsi
	.loc	3 0 1 is_stmt 0         # /usr/include/c++/9/bits/hashtable.h:0:1
	movl	$-1, %ebx
	.loc	3 1539 1 is_stmt 1      # /usr/include/c++/9/bits/hashtable.h:1539:1
	testq	%rsi, %rsi
.Ltmp30:
	#DEBUG_VALUE: __k <- undef
	#DEBUG_VALUE: _M_find_before_node:__k <- undef
	.loc	3 0 1 is_stmt 0         # /usr/include/c++/9/bits/hashtable.h:0:1
	movl	%r11d, 8(%rsp)          # 4-byte Spill
	.loc	3 1539 1                # /usr/include/c++/9/bits/hashtable.h:1539:1
	je	.LBB0_15
.Ltmp31:
# %bb.6:                                # %L.B0098.i.i
                                        #   in Loop: Header=BB0_3 Depth=1
	#DEBUG_VALUE: __prev_p <- $rsi
	#DEBUG_VALUE: __code <- $r9
	#DEBUG_VALUE: _M_find_before_node:__code <- $r9
	#DEBUG_VALUE: __n <- $r8
	#DEBUG_VALUE: _M_find_before_node:__n <- $r8
	#DEBUG_VALUE:  <- [DW_OP_plus_uconst 56, DW_OP_deref_size 8, DW_OP_plus_uconst 32, DW_OP_stack_value] $rsp
	#DEBUG_VALUE: _M_find_before_node: <- [DW_OP_plus_uconst 56, DW_OP_deref_size 8, DW_OP_plus_uconst 32, DW_OP_stack_value] $rsp
	#DEBUG_VALUE:  <- [DW_OP_plus_uconst 56] [$rsp+0]
	#DEBUG_VALUE: getLocalID: <- [DW_OP_plus_uconst 56] [$rsp+0]
	#DEBUG_VALUE: block_k <- $r15
	#DEBUG_VALUE: loadColumnBlockData:n_blocks <- [DW_OP_plus_uconst 16] [$rsp+0]
	#DEBUG_VALUE: n_blocks <- [DW_OP_plus_uconst 16] [$rsp+0]
	#DEBUG_VALUE: loadColumnBlockData:values <- [DW_OP_plus_uconst 24] [$rsp+0]
	#DEBUG_VALUE: values <- [DW_OP_plus_uconst 24] [$rsp+0]
	#DEBUG_VALUE: loadColumnBlockData:vmesh <- [DW_OP_plus_uconst 56] [$rsp+0]
	#DEBUG_VALUE: loadColumnBlockData:blockContainer <- [DW_OP_plus_uconst 96] [$rsp+0]
	#DEBUG_VALUE: loadColumnBlockData:blocks <- [DW_OP_plus_uconst 104] [$rsp+0]
	#DEBUG_VALUE: loadColumnBlockData:dimension <- [DW_OP_plus_uconst 36] [$rsp+0]
	#DEBUG_VALUE: __prev_p <- $rsi
	.loc	3 1542 1 is_stmt 1      # /usr/include/c++/9/bits/hashtable.h:1542:1
	movq	(%rsi), %rcx
.Ltmp32:
	#DEBUG_VALUE: __p <- $rcx
	.loc	3 1836 1                # /usr/include/c++/9/bits/hashtable.h:1836:1
	cmpl	8(%rcx), %r9d
	jne	.LBB0_7
.Ltmp33:
.LBB0_13:                               # %L..inline.34596.i
                                        #   in Loop: Header=BB0_3 Depth=1
	#DEBUG_VALUE: __prev_p <- $rsi
	#DEBUG_VALUE: __code <- $r9
	#DEBUG_VALUE: _M_find_before_node:__code <- $r9
	#DEBUG_VALUE: __n <- $r8
	#DEBUG_VALUE: _M_find_before_node:__n <- $r8
	#DEBUG_VALUE:  <- [DW_OP_plus_uconst 56, DW_OP_deref_size 8, DW_OP_plus_uconst 32, DW_OP_stack_value] $rsp
	#DEBUG_VALUE: _M_find_before_node: <- [DW_OP_plus_uconst 56, DW_OP_deref_size 8, DW_OP_plus_uconst 32, DW_OP_stack_value] $rsp
	#DEBUG_VALUE:  <- [DW_OP_plus_uconst 56] [$rsp+0]
	#DEBUG_VALUE: getLocalID: <- [DW_OP_plus_uconst 56] [$rsp+0]
	#DEBUG_VALUE: block_k <- $r15
	#DEBUG_VALUE: loadColumnBlockData:n_blocks <- [DW_OP_plus_uconst 16] [$rsp+0]
	#DEBUG_VALUE: n_blocks <- [DW_OP_plus_uconst 16] [$rsp+0]
	#DEBUG_VALUE: loadColumnBlockData:values <- [DW_OP_plus_uconst 24] [$rsp+0]
	#DEBUG_VALUE: values <- [DW_OP_plus_uconst 24] [$rsp+0]
	#DEBUG_VALUE: loadColumnBlockData:vmesh <- [DW_OP_plus_uconst 56] [$rsp+0]
	#DEBUG_VALUE: loadColumnBlockData:blockContainer <- [DW_OP_plus_uconst 96] [$rsp+0]
	#DEBUG_VALUE: loadColumnBlockData:blocks <- [DW_OP_plus_uconst 104] [$rsp+0]
	#DEBUG_VALUE: loadColumnBlockData:dimension <- [DW_OP_plus_uconst 36] [$rsp+0]
	#DEBUG_VALUE: __prev_p <- $rsi
	.loc	2 925 1                 # vlasovsolver/../velocity_mesh_old.h:925:1
	movq	(%rsi), %rax
	testq	%rax, %rax
.Ltmp34:
	#DEBUG_VALUE: ...._T38286072_19052.__b_NSt8__detail19_Node_iterator_baseISt4pairIKjjELb0EEE._M_cur <- 0
	#DEBUG_VALUE: ......inline.__b_NSt8__detail19_Node_iterator_baseISt4pairIKjjELb0EEE._M_cur <- 0
	#DEBUG_VALUE: it <- undef
	.loc	2 314 1                 # vlasovsolver/../velocity_mesh_old.h:314:1
	je	.LBB0_15
.Ltmp35:
# %bb.14:                               # %L.B1096.i
                                        #   in Loop: Header=BB0_3 Depth=1
	#DEBUG_VALUE: ......inline.__b_NSt8__detail19_Node_iterator_baseISt4pairIKjjELb0EEE._M_cur <- 0
	#DEBUG_VALUE: ...._T38286072_19052.__b_NSt8__detail19_Node_iterator_baseISt4pairIKjjELb0EEE._M_cur <- 0
	#DEBUG_VALUE:  <- [DW_OP_plus_uconst 56] [$rsp+0]
	#DEBUG_VALUE: getLocalID: <- [DW_OP_plus_uconst 56] [$rsp+0]
	#DEBUG_VALUE: block_k <- $r15
	#DEBUG_VALUE: loadColumnBlockData:n_blocks <- [DW_OP_plus_uconst 16] [$rsp+0]
	#DEBUG_VALUE: n_blocks <- [DW_OP_plus_uconst 16] [$rsp+0]
	#DEBUG_VALUE: loadColumnBlockData:values <- [DW_OP_plus_uconst 24] [$rsp+0]
	#DEBUG_VALUE: values <- [DW_OP_plus_uconst 24] [$rsp+0]
	#DEBUG_VALUE: loadColumnBlockData:vmesh <- [DW_OP_plus_uconst 56] [$rsp+0]
	#DEBUG_VALUE: loadColumnBlockData:blockContainer <- [DW_OP_plus_uconst 96] [$rsp+0]
	#DEBUG_VALUE: loadColumnBlockData:blocks <- [DW_OP_plus_uconst 104] [$rsp+0]
	#DEBUG_VALUE: loadColumnBlockData:dimension <- [DW_OP_plus_uconst 36] [$rsp+0]
	.loc	2 401 1                 # vlasovsolver/../velocity_mesh_old.h:401:1
	movl	12(%rax), %ebx
	jmp	.LBB0_15
.Ltmp36:
	.p2align	4, 0x90
.LBB0_7:                                # %L.B0101.i.i
                                        #   Parent Loop BB0_3 Depth=1
                                        # =>  This Inner Loop Header: Depth=2
	#DEBUG_VALUE: __p <- $rcx
	#DEBUG_VALUE: __code <- $r9
	#DEBUG_VALUE: _M_find_before_node:__code <- $r9
	#DEBUG_VALUE: __n <- $r8
	#DEBUG_VALUE: _M_find_before_node:__n <- $r8
	#DEBUG_VALUE:  <- [DW_OP_plus_uconst 56, DW_OP_deref_size 8, DW_OP_plus_uconst 32, DW_OP_stack_value] $rsp
	#DEBUG_VALUE: _M_find_before_node: <- [DW_OP_plus_uconst 56, DW_OP_deref_size 8, DW_OP_plus_uconst 32, DW_OP_stack_value] $rsp
	#DEBUG_VALUE:  <- [DW_OP_plus_uconst 56] [$rsp+0]
	#DEBUG_VALUE: getLocalID: <- [DW_OP_plus_uconst 56] [$rsp+0]
	#DEBUG_VALUE: block_k <- $r15
	#DEBUG_VALUE: loadColumnBlockData:n_blocks <- [DW_OP_plus_uconst 16] [$rsp+0]
	#DEBUG_VALUE: n_blocks <- [DW_OP_plus_uconst 16] [$rsp+0]
	#DEBUG_VALUE: loadColumnBlockData:values <- [DW_OP_plus_uconst 24] [$rsp+0]
	#DEBUG_VALUE: values <- [DW_OP_plus_uconst 24] [$rsp+0]
	#DEBUG_VALUE: loadColumnBlockData:vmesh <- [DW_OP_plus_uconst 56] [$rsp+0]
	#DEBUG_VALUE: loadColumnBlockData:blockContainer <- [DW_OP_plus_uconst 96] [$rsp+0]
	#DEBUG_VALUE: loadColumnBlockData:blocks <- [DW_OP_plus_uconst 104] [$rsp+0]
	#DEBUG_VALUE: loadColumnBlockData:dimension <- [DW_OP_plus_uconst 36] [$rsp+0]
	.loc	2 0 1 is_stmt 0         # vlasovsolver/../velocity_mesh_old.h:0:1
	movq	%rcx, %rsi
.Ltmp37:
	#DEBUG_VALUE: __p <- $rsi
	.loc	3 1548 1 is_stmt 1      # /usr/include/c++/9/bits/hashtable.h:1548:1
	movq	(%rcx), %rcx
	testq	%rcx, %rcx
	je	.LBB0_15
.Ltmp38:
# %bb.8:                                # %L.B0959.i.i
                                        #   in Loop: Header=BB0_7 Depth=2
	#DEBUG_VALUE: __code <- $r9
	#DEBUG_VALUE: _M_find_before_node:__code <- $r9
	#DEBUG_VALUE: __n <- $r8
	#DEBUG_VALUE: _M_find_before_node:__n <- $r8
	#DEBUG_VALUE:  <- [DW_OP_plus_uconst 56, DW_OP_deref_size 8, DW_OP_plus_uconst 32, DW_OP_stack_value] $rsp
	#DEBUG_VALUE: _M_find_before_node: <- [DW_OP_plus_uconst 56, DW_OP_deref_size 8, DW_OP_plus_uconst 32, DW_OP_stack_value] $rsp
	#DEBUG_VALUE:  <- [DW_OP_plus_uconst 56] [$rsp+0]
	#DEBUG_VALUE: getLocalID: <- [DW_OP_plus_uconst 56] [$rsp+0]
	#DEBUG_VALUE: block_k <- $r15
	#DEBUG_VALUE: loadColumnBlockData:n_blocks <- [DW_OP_plus_uconst 16] [$rsp+0]
	#DEBUG_VALUE: n_blocks <- [DW_OP_plus_uconst 16] [$rsp+0]
	#DEBUG_VALUE: loadColumnBlockData:values <- [DW_OP_plus_uconst 24] [$rsp+0]
	#DEBUG_VALUE: values <- [DW_OP_plus_uconst 24] [$rsp+0]
	#DEBUG_VALUE: loadColumnBlockData:vmesh <- [DW_OP_plus_uconst 56] [$rsp+0]
	#DEBUG_VALUE: loadColumnBlockData:blockContainer <- [DW_OP_plus_uconst 96] [$rsp+0]
	#DEBUG_VALUE: loadColumnBlockData:blocks <- [DW_OP_plus_uconst 104] [$rsp+0]
	#DEBUG_VALUE: loadColumnBlockData:dimension <- [DW_OP_plus_uconst 36] [$rsp+0]
	.loc	3 640 1                 # /usr/include/c++/9/bits/hashtable.h:640:1
	movl	8(%rcx), %edi
	movq	%rdi, %rdx
	cmpq	%r10, %rdi
	jb	.LBB0_10
.Ltmp39:
# %bb.9:                                #   in Loop: Header=BB0_7 Depth=2
	#DEBUG_VALUE: __code <- $r9
	#DEBUG_VALUE: _M_find_before_node:__code <- $r9
	#DEBUG_VALUE: __n <- $r8
	#DEBUG_VALUE: _M_find_before_node:__n <- $r8
	#DEBUG_VALUE:  <- [DW_OP_plus_uconst 56, DW_OP_deref_size 8, DW_OP_plus_uconst 32, DW_OP_stack_value] $rsp
	#DEBUG_VALUE: _M_find_before_node: <- [DW_OP_plus_uconst 56, DW_OP_deref_size 8, DW_OP_plus_uconst 32, DW_OP_stack_value] $rsp
	#DEBUG_VALUE:  <- [DW_OP_plus_uconst 56] [$rsp+0]
	#DEBUG_VALUE: getLocalID: <- [DW_OP_plus_uconst 56] [$rsp+0]
	#DEBUG_VALUE: block_k <- $r15
	#DEBUG_VALUE: loadColumnBlockData:n_blocks <- [DW_OP_plus_uconst 16] [$rsp+0]
	#DEBUG_VALUE: n_blocks <- [DW_OP_plus_uconst 16] [$rsp+0]
	#DEBUG_VALUE: loadColumnBlockData:values <- [DW_OP_plus_uconst 24] [$rsp+0]
	#DEBUG_VALUE: values <- [DW_OP_plus_uconst 24] [$rsp+0]
	#DEBUG_VALUE: loadColumnBlockData:vmesh <- [DW_OP_plus_uconst 56] [$rsp+0]
	#DEBUG_VALUE: loadColumnBlockData:blockContainer <- [DW_OP_plus_uconst 96] [$rsp+0]
	#DEBUG_VALUE: loadColumnBlockData:blocks <- [DW_OP_plus_uconst 104] [$rsp+0]
	#DEBUG_VALUE: loadColumnBlockData:dimension <- [DW_OP_plus_uconst 36] [$rsp+0]
	.loc	3 0 1 is_stmt 0         # /usr/include/c++/9/bits/hashtable.h:0:1
	movl	%edi, %eax
	xorl	%edx, %edx
	divl	%r10d
                                        # kill: def $edx killed $edx def $rdx
.Ltmp40:
.LBB0_10:                               #   in Loop: Header=BB0_7 Depth=2
	#DEBUG_VALUE: __code <- $r9
	#DEBUG_VALUE: _M_find_before_node:__code <- $r9
	#DEBUG_VALUE: __n <- $r8
	#DEBUG_VALUE: _M_find_before_node:__n <- $r8
	#DEBUG_VALUE:  <- [DW_OP_plus_uconst 56, DW_OP_deref_size 8, DW_OP_plus_uconst 32, DW_OP_stack_value] $rsp
	#DEBUG_VALUE: _M_find_before_node: <- [DW_OP_plus_uconst 56, DW_OP_deref_size 8, DW_OP_plus_uconst 32, DW_OP_stack_value] $rsp
	#DEBUG_VALUE:  <- [DW_OP_plus_uconst 56] [$rsp+0]
	#DEBUG_VALUE: getLocalID: <- [DW_OP_plus_uconst 56] [$rsp+0]
	#DEBUG_VALUE: block_k <- $r15
	#DEBUG_VALUE: loadColumnBlockData:n_blocks <- [DW_OP_plus_uconst 16] [$rsp+0]
	#DEBUG_VALUE: n_blocks <- [DW_OP_plus_uconst 16] [$rsp+0]
	#DEBUG_VALUE: loadColumnBlockData:values <- [DW_OP_plus_uconst 24] [$rsp+0]
	#DEBUG_VALUE: values <- [DW_OP_plus_uconst 24] [$rsp+0]
	#DEBUG_VALUE: loadColumnBlockData:vmesh <- [DW_OP_plus_uconst 56] [$rsp+0]
	#DEBUG_VALUE: loadColumnBlockData:blockContainer <- [DW_OP_plus_uconst 96] [$rsp+0]
	#DEBUG_VALUE: loadColumnBlockData:blocks <- [DW_OP_plus_uconst 104] [$rsp+0]
	#DEBUG_VALUE: loadColumnBlockData:dimension <- [DW_OP_plus_uconst 36] [$rsp+0]
	.loc	3 640 1                 # /usr/include/c++/9/bits/hashtable.h:640:1
	cmpq	%r8, %rdx
	jne	.LBB0_15
.Ltmp41:
# %bb.11:                               # %L.B0102.i.i
                                        #   in Loop: Header=BB0_7 Depth=2
	#DEBUG_VALUE: __code <- $r9
	#DEBUG_VALUE: _M_find_before_node:__code <- $r9
	#DEBUG_VALUE: __n <- $r8
	#DEBUG_VALUE: _M_find_before_node:__n <- $r8
	#DEBUG_VALUE:  <- [DW_OP_plus_uconst 56, DW_OP_deref_size 8, DW_OP_plus_uconst 32, DW_OP_stack_value] $rsp
	#DEBUG_VALUE: _M_find_before_node: <- [DW_OP_plus_uconst 56, DW_OP_deref_size 8, DW_OP_plus_uconst 32, DW_OP_stack_value] $rsp
	#DEBUG_VALUE:  <- [DW_OP_plus_uconst 56] [$rsp+0]
	#DEBUG_VALUE: getLocalID: <- [DW_OP_plus_uconst 56] [$rsp+0]
	#DEBUG_VALUE: block_k <- $r15
	#DEBUG_VALUE: loadColumnBlockData:n_blocks <- [DW_OP_plus_uconst 16] [$rsp+0]
	#DEBUG_VALUE: n_blocks <- [DW_OP_plus_uconst 16] [$rsp+0]
	#DEBUG_VALUE: loadColumnBlockData:values <- [DW_OP_plus_uconst 24] [$rsp+0]
	#DEBUG_VALUE: values <- [DW_OP_plus_uconst 24] [$rsp+0]
	#DEBUG_VALUE: loadColumnBlockData:vmesh <- [DW_OP_plus_uconst 56] [$rsp+0]
	#DEBUG_VALUE: loadColumnBlockData:blockContainer <- [DW_OP_plus_uconst 96] [$rsp+0]
	#DEBUG_VALUE: loadColumnBlockData:blocks <- [DW_OP_plus_uconst 104] [$rsp+0]
	#DEBUG_VALUE: loadColumnBlockData:dimension <- [DW_OP_plus_uconst 36] [$rsp+0]
	#DEBUG_VALUE: __p <- $rcx
	.loc	3 1836 1 is_stmt 1      # /usr/include/c++/9/bits/hashtable.h:1836:1
	cmpl	%edi, %r9d
	jne	.LBB0_7
.Ltmp42:
# %bb.12:                               # %_ZNKSt10_HashtableIjSt4pairIKjjESaIS2_ENSt8__detail10_Select1stESt8equal_toIjESt4hashIjENS4_18_Mod_range_hashingENS4_20_Default_ranged_hashENS4_20_Prime_rehash_policyENS4_17_Hashtable_traitsILb0ELb0ELb1EEEE19_M_find_before_nodeEmRS1_m.exit.i
                                        #   in Loop: Header=BB0_3 Depth=1
	#DEBUG_VALUE: __p <- $rcx
	#DEBUG_VALUE: __code <- $r9
	#DEBUG_VALUE: _M_find_before_node:__code <- $r9
	#DEBUG_VALUE: __n <- $r8
	#DEBUG_VALUE: _M_find_before_node:__n <- $r8
	#DEBUG_VALUE:  <- [DW_OP_plus_uconst 56, DW_OP_deref_size 8, DW_OP_plus_uconst 32, DW_OP_stack_value] $rsp
	#DEBUG_VALUE: _M_find_before_node: <- [DW_OP_plus_uconst 56, DW_OP_deref_size 8, DW_OP_plus_uconst 32, DW_OP_stack_value] $rsp
	#DEBUG_VALUE:  <- [DW_OP_plus_uconst 56] [$rsp+0]
	#DEBUG_VALUE: getLocalID: <- [DW_OP_plus_uconst 56] [$rsp+0]
	#DEBUG_VALUE: block_k <- $r15
	#DEBUG_VALUE: loadColumnBlockData:n_blocks <- [DW_OP_plus_uconst 16] [$rsp+0]
	#DEBUG_VALUE: n_blocks <- [DW_OP_plus_uconst 16] [$rsp+0]
	#DEBUG_VALUE: loadColumnBlockData:values <- [DW_OP_plus_uconst 24] [$rsp+0]
	#DEBUG_VALUE: values <- [DW_OP_plus_uconst 24] [$rsp+0]
	#DEBUG_VALUE: loadColumnBlockData:vmesh <- [DW_OP_plus_uconst 56] [$rsp+0]
	#DEBUG_VALUE: loadColumnBlockData:blockContainer <- [DW_OP_plus_uconst 96] [$rsp+0]
	#DEBUG_VALUE: loadColumnBlockData:blocks <- [DW_OP_plus_uconst 104] [$rsp+0]
	#DEBUG_VALUE: loadColumnBlockData:dimension <- [DW_OP_plus_uconst 36] [$rsp+0]
	#DEBUG_VALUE: __prev_p <- $rsi
	#DEBUG_VALUE: __p <- $rsi
	.loc	2 925 1                 # vlasovsolver/../velocity_mesh_old.h:925:1
	testq	%rsi, %rsi
	jne	.LBB0_13
	jmp	.LBB0_15
.Ltmp43:
.LBB0_16:                               # %L.B0012
	#DEBUG_VALUE: loadColumnBlockData:n_blocks <- [DW_OP_plus_uconst 16] [$rsp+0]
	#DEBUG_VALUE: n_blocks <- [DW_OP_plus_uconst 16] [$rsp+0]
	#DEBUG_VALUE: loadColumnBlockData:values <- [DW_OP_plus_uconst 24] [$rsp+0]
	#DEBUG_VALUE: values <- [DW_OP_plus_uconst 24] [$rsp+0]
	#DEBUG_VALUE: loadColumnBlockData:vmesh <- [DW_OP_plus_uconst 56] [$rsp+0]
	#DEBUG_VALUE: loadColumnBlockData:blockContainer <- [DW_OP_plus_uconst 96] [$rsp+0]
	#DEBUG_VALUE: loadColumnBlockData:blocks <- [DW_OP_plus_uconst 104] [$rsp+0]
	#DEBUG_VALUE: loadColumnBlockData:dimension <- [DW_OP_plus_uconst 36] [$rsp+0]
	.loc	1 92 1                  # vlasovsolver/cpu_acc_load_blocks.cpp:92:1
	cmpl	$0, 16(%rsp)            # 4-byte Folded Reload
	movq	56(%rsp), %rcx          # 8-byte Reload
.Ltmp44:
	#DEBUG_VALUE: block_k <- 0
	.loc	1 200 1                 # vlasovsolver/cpu_acc_load_blocks.cpp:200:1
	je	.LBB0_34
.Ltmp45:
# %bb.17:                               # %L.B0012
	#DEBUG_VALUE: block_k <- 0
	#DEBUG_VALUE: loadColumnBlockData:n_blocks <- [DW_OP_plus_uconst 16] [$rsp+0]
	#DEBUG_VALUE: n_blocks <- [DW_OP_plus_uconst 16] [$rsp+0]
	#DEBUG_VALUE: loadColumnBlockData:values <- [DW_OP_plus_uconst 24] [$rsp+0]
	#DEBUG_VALUE: values <- [DW_OP_plus_uconst 24] [$rsp+0]
	#DEBUG_VALUE: loadColumnBlockData:vmesh <- [DW_OP_plus_uconst 56] [$rsp+0]
	#DEBUG_VALUE: loadColumnBlockData:blockContainer <- [DW_OP_plus_uconst 96] [$rsp+0]
	#DEBUG_VALUE: loadColumnBlockData:blocks <- [DW_OP_plus_uconst 104] [$rsp+0]
	#DEBUG_VALUE: loadColumnBlockData:dimension <- [DW_OP_plus_uconst 36] [$rsp+0]
	cmpl	$1, 36(%rsp)            # 4-byte Folded Reload
	jne	.LBB0_34
.Ltmp46:
# %bb.18:                               # %L.B0819
	#DEBUG_VALUE: block_k <- 0
	#DEBUG_VALUE: loadColumnBlockData:n_blocks <- [DW_OP_plus_uconst 16] [$rsp+0]
	#DEBUG_VALUE: n_blocks <- [DW_OP_plus_uconst 16] [$rsp+0]
	#DEBUG_VALUE: loadColumnBlockData:values <- [DW_OP_plus_uconst 24] [$rsp+0]
	#DEBUG_VALUE: values <- [DW_OP_plus_uconst 24] [$rsp+0]
	#DEBUG_VALUE: loadColumnBlockData:vmesh <- [DW_OP_plus_uconst 56] [$rsp+0]
	#DEBUG_VALUE: loadColumnBlockData:blockContainer <- [DW_OP_plus_uconst 96] [$rsp+0]
	#DEBUG_VALUE: loadColumnBlockData:blocks <- [DW_OP_plus_uconst 104] [$rsp+0]
	#DEBUG_VALUE: loadColumnBlockData:dimension <- [DW_OP_plus_uconst 36] [$rsp+0]
	.loc	1 0 1 is_stmt 0         # vlasovsolver/cpu_acc_load_blocks.cpp:0:1
	movq	48(%rsp), %rax          # 8-byte Reload
.Ltmp47:
	.loc	1 201 1 is_stmt 1       # vlasovsolver/cpu_acc_load_blocks.cpp:201:1
	leal	(,%rax,4), %edx
	movq	%rdx, 40(%rsp)          # 8-byte Spill
	leal	3(,%rax,4), %edx
	movq	%rdx, 64(%rsp)          # 8-byte Spill
	leal	2(,%rax,4), %edx
	movq	%rdx, 120(%rsp)         # 8-byte Spill
	leal	1(,%rax,4), %eax
	movq	%rax, 112(%rsp)         # 8-byte Spill
.Ltmp48:
	.loc	1 0 0 is_stmt 0         # vlasovsolver/cpu_acc_load_blocks.cpp:0:0
	xorl	%r15d, %r15d
	movq	16(%rsp), %rax          # 8-byte Reload
.Ltmp49:
	.loc	1 201 1                 # vlasovsolver/cpu_acc_load_blocks.cpp:201:1
	movl	%eax, %esi
	jmp	.LBB0_19
.Ltmp50:
	.p2align	4, 0x90
.LBB0_33:                               # %L.B0054.preheader
                                        #   in Loop: Header=BB0_19 Depth=1
	#DEBUG_VALUE: cell_indices_to_id <- [DW_OP_LLVM_fragment 0 32] 1
	#DEBUG_VALUE: cell_indices_to_id <- [DW_OP_LLVM_fragment 32 32] 16
	#DEBUG_VALUE: cell_indices_to_id <- [DW_OP_LLVM_fragment 64 32] 4
	#DEBUG_VALUE: offset <- 0
	#DEBUG_VALUE: data <- $rbx
	#DEBUG_VALUE: loadColumnBlockData:n_blocks <- [DW_OP_plus_uconst 16] [$rsp+0]
	#DEBUG_VALUE: n_blocks <- [DW_OP_plus_uconst 16] [$rsp+0]
	#DEBUG_VALUE: loadColumnBlockData:values <- [DW_OP_plus_uconst 24] [$rsp+0]
	#DEBUG_VALUE: values <- [DW_OP_plus_uconst 24] [$rsp+0]
	#DEBUG_VALUE: loadColumnBlockData:vmesh <- [DW_OP_plus_uconst 56] [$rsp+0]
	#DEBUG_VALUE: loadColumnBlockData:blockContainer <- [DW_OP_plus_uconst 96] [$rsp+0]
	#DEBUG_VALUE: loadColumnBlockData:blocks <- [DW_OP_plus_uconst 104] [$rsp+0]
	#DEBUG_VALUE: loadColumnBlockData:dimension <- [DW_OP_plus_uconst 36] [$rsp+0]
	#DEBUG_VALUE: offset <- 0
	#DEBUG_VALUE: k <- 0
	.loc	1 0 1                   # vlasovsolver/cpu_acc_load_blocks.cpp:0:1
	movq	80(%rsp), %r14          # 8-byte Reload
.Ltmp51:
	.loc	1 330 1 is_stmt 1       # vlasovsolver/cpu_acc_load_blocks.cpp:330:1
	movq	%r14, %rdi
	leaq	256(%rsp), %rsi
	vzeroupper
	callq	_ZN10Vec8SimpleIfE4loadEPKf
.Ltmp52:
	#DEBUG_VALUE: offset <- 8
	.loc	1 0 1 is_stmt 0         # vlasovsolver/cpu_acc_load_blocks.cpp:0:1
	movq	40(%rsp), %r12          # 8-byte Reload
	.loc	1 328 1 is_stmt 1       # vlasovsolver/cpu_acc_load_blocks.cpp:328:1
	shlq	$6, %r12
	addq	%r12, %r14
	.loc	1 330 1                 # vlasovsolver/cpu_acc_load_blocks.cpp:330:1
	movq	%r14, %rdi
	leaq	288(%rsp), %rsi
	callq	_ZN10Vec8SimpleIfE4loadEPKf
.Ltmp53:
	#DEBUG_VALUE: k <- 1
	#DEBUG_VALUE: offset <- 16
	.loc	1 0 1 is_stmt 0         # vlasovsolver/cpu_acc_load_blocks.cpp:0:1
	movq	72(%rsp), %r13          # 8-byte Reload
	.loc	1 328 1 is_stmt 1       # vlasovsolver/cpu_acc_load_blocks.cpp:328:1
	movq	%r13, %r14
	orq	$64, %r14
	movq	24(%rsp), %r15          # 8-byte Reload
	addq	%r15, %r14
	.loc	1 330 1                 # vlasovsolver/cpu_acc_load_blocks.cpp:330:1
	movq	%r14, %rdi
	leaq	320(%rsp), %rsi
	callq	_ZN10Vec8SimpleIfE4loadEPKf
.Ltmp54:
	#DEBUG_VALUE: offset <- 24
	.loc	1 328 1                 # vlasovsolver/cpu_acc_load_blocks.cpp:328:1
	addq	%r12, %r14
	.loc	1 330 1                 # vlasovsolver/cpu_acc_load_blocks.cpp:330:1
	movq	%r14, %rdi
	leaq	352(%rsp), %rsi
	callq	_ZN10Vec8SimpleIfE4loadEPKf
.Ltmp55:
	#DEBUG_VALUE: k <- 2
	#DEBUG_VALUE: offset <- 32
	.loc	1 328 1                 # vlasovsolver/cpu_acc_load_blocks.cpp:328:1
	movq	%r13, %r14
	orq	$128, %r14
	addq	%r15, %r14
	.loc	1 330 1                 # vlasovsolver/cpu_acc_load_blocks.cpp:330:1
	movq	%r14, %rdi
	leaq	384(%rsp), %rsi
	callq	_ZN10Vec8SimpleIfE4loadEPKf
.Ltmp56:
	#DEBUG_VALUE: offset <- 40
	.loc	1 328 1                 # vlasovsolver/cpu_acc_load_blocks.cpp:328:1
	addq	%r12, %r14
	.loc	1 330 1                 # vlasovsolver/cpu_acc_load_blocks.cpp:330:1
	movq	%r14, %rdi
	leaq	416(%rsp), %rsi
	callq	_ZN10Vec8SimpleIfE4loadEPKf
	.loc	1 328 1                 # vlasovsolver/cpu_acc_load_blocks.cpp:328:1
	orq	$192, %r13
	addq	%r15, %r13
	.loc	1 330 1                 # vlasovsolver/cpu_acc_load_blocks.cpp:330:1
	movq	%r13, %rdi
	leaq	448(%rsp), %rsi
	callq	_ZN10Vec8SimpleIfE4loadEPKf
.Ltmp57:
	#DEBUG_VALUE: offset <- 56
	.loc	1 328 1                 # vlasovsolver/cpu_acc_load_blocks.cpp:328:1
	addq	%r12, %r13
	.loc	1 330 1                 # vlasovsolver/cpu_acc_load_blocks.cpp:330:1
	movq	%r13, %rdi
	leaq	480(%rsp), %rsi
	callq	_ZN10Vec8SimpleIfE4loadEPKf
.Ltmp58:
	#DEBUG_VALUE: k <- 4
	#DEBUG_VALUE: offset <- 64
	.loc	1 337 1                 # vlasovsolver/cpu_acc_load_blocks.cpp:337:1
	movl	$64, %esi
	movq	%rbx, %rdi
	xorl	%eax, %eax
	callq	__c_mzero4
.Ltmp59:
	#DEBUG_VALUE: block_k <- [DW_OP_plus_uconst 8] [$rsp+0]
	.loc	1 0 1 is_stmt 0         # vlasovsolver/cpu_acc_load_blocks.cpp:0:1
	movl	88(%rsp), %esi          # 4-byte Reload
.Ltmp60:
	.loc	1 339 1 is_stmt 1       # vlasovsolver/cpu_acc_load_blocks.cpp:339:1
	decl	%esi
	movq	56(%rsp), %rcx          # 8-byte Reload
	movq	8(%rsp), %r15           # 8-byte Reload
.Ltmp61:
	#DEBUG_VALUE: block_k <- $r15
	je	.LBB0_34
.Ltmp62:
.LBB0_19:                               # %L.B0028
                                        # =>This Loop Header: Depth=1
                                        #     Child Loop BB0_23 Depth 2
                                        #     Child Loop BB0_32 Depth 2
	#DEBUG_VALUE: loadColumnBlockData:n_blocks <- [DW_OP_plus_uconst 16] [$rsp+0]
	#DEBUG_VALUE: n_blocks <- [DW_OP_plus_uconst 16] [$rsp+0]
	#DEBUG_VALUE: loadColumnBlockData:values <- [DW_OP_plus_uconst 24] [$rsp+0]
	#DEBUG_VALUE: values <- [DW_OP_plus_uconst 24] [$rsp+0]
	#DEBUG_VALUE: loadColumnBlockData:vmesh <- [DW_OP_plus_uconst 56] [$rsp+0]
	#DEBUG_VALUE: loadColumnBlockData:blockContainer <- [DW_OP_plus_uconst 96] [$rsp+0]
	#DEBUG_VALUE: loadColumnBlockData:blocks <- [DW_OP_plus_uconst 104] [$rsp+0]
	#DEBUG_VALUE: loadColumnBlockData:dimension <- [DW_OP_plus_uconst 36] [$rsp+0]
	#DEBUG_VALUE: block_k <- $r15
	#DEBUG_VALUE: getLocalID: <- [DW_OP_plus_uconst 56] [$rsp+0]
	#DEBUG_VALUE:  <- [DW_OP_plus_uconst 56] [$rsp+0]
	#DEBUG_VALUE: getLocalID:globalID <- undef
	#DEBUG_VALUE: globalID <- undef
	.loc	1 0 1 is_stmt 0         # vlasovsolver/cpu_acc_load_blocks.cpp:0:1
	movq	104(%rsp), %rax         # 8-byte Reload
.Ltmp63:
	.loc	2 925 1 is_stmt 1       # vlasovsolver/../velocity_mesh_old.h:925:1
	movl	(%rax,%r15,4), %r9d
	movq	40(%rcx), %rbx
	movq	%r9, %r8
	cmpq	%rbx, %r9
	jb	.LBB0_21
.Ltmp64:
# %bb.20:                               #   in Loop: Header=BB0_19 Depth=1
	#DEBUG_VALUE:  <- [DW_OP_plus_uconst 56] [$rsp+0]
	#DEBUG_VALUE: getLocalID: <- [DW_OP_plus_uconst 56] [$rsp+0]
	#DEBUG_VALUE: block_k <- $r15
	#DEBUG_VALUE: loadColumnBlockData:n_blocks <- [DW_OP_plus_uconst 16] [$rsp+0]
	#DEBUG_VALUE: n_blocks <- [DW_OP_plus_uconst 16] [$rsp+0]
	#DEBUG_VALUE: loadColumnBlockData:values <- [DW_OP_plus_uconst 24] [$rsp+0]
	#DEBUG_VALUE: values <- [DW_OP_plus_uconst 24] [$rsp+0]
	#DEBUG_VALUE: loadColumnBlockData:vmesh <- [DW_OP_plus_uconst 56] [$rsp+0]
	#DEBUG_VALUE: loadColumnBlockData:blockContainer <- [DW_OP_plus_uconst 96] [$rsp+0]
	#DEBUG_VALUE: loadColumnBlockData:blocks <- [DW_OP_plus_uconst 104] [$rsp+0]
	#DEBUG_VALUE: loadColumnBlockData:dimension <- [DW_OP_plus_uconst 36] [$rsp+0]
	.loc	2 0 1 is_stmt 0         # vlasovsolver/../velocity_mesh_old.h:0:1
	movl	%r9d, %eax
	xorl	%edx, %edx
	divl	%ebx
	movl	%edx, %r8d
.Ltmp65:
.LBB0_21:                               #   in Loop: Header=BB0_19 Depth=1
	#DEBUG_VALUE:  <- [DW_OP_plus_uconst 56] [$rsp+0]
	#DEBUG_VALUE: getLocalID: <- [DW_OP_plus_uconst 56] [$rsp+0]
	#DEBUG_VALUE: block_k <- $r15
	#DEBUG_VALUE: loadColumnBlockData:n_blocks <- [DW_OP_plus_uconst 16] [$rsp+0]
	#DEBUG_VALUE: n_blocks <- [DW_OP_plus_uconst 16] [$rsp+0]
	#DEBUG_VALUE: loadColumnBlockData:values <- [DW_OP_plus_uconst 24] [$rsp+0]
	#DEBUG_VALUE: values <- [DW_OP_plus_uconst 24] [$rsp+0]
	#DEBUG_VALUE: loadColumnBlockData:vmesh <- [DW_OP_plus_uconst 56] [$rsp+0]
	#DEBUG_VALUE: loadColumnBlockData:blockContainer <- [DW_OP_plus_uconst 96] [$rsp+0]
	#DEBUG_VALUE: loadColumnBlockData:blocks <- [DW_OP_plus_uconst 104] [$rsp+0]
	#DEBUG_VALUE: loadColumnBlockData:dimension <- [DW_OP_plus_uconst 36] [$rsp+0]
	#DEBUG_VALUE: _M_find_before_node: <- [DW_OP_plus_uconst 56, DW_OP_deref_size 8, DW_OP_plus_uconst 32, DW_OP_stack_value] $rsp
	#DEBUG_VALUE:  <- [DW_OP_plus_uconst 56, DW_OP_deref_size 8, DW_OP_plus_uconst 32, DW_OP_stack_value] $rsp
	#DEBUG_VALUE: _M_find_before_node:__n <- $r8
	#DEBUG_VALUE: __n <- $r8
	#DEBUG_VALUE: _M_find_before_node:__code <- $r9
	#DEBUG_VALUE: __code <- $r9
	.loc	3 1538 1 is_stmt 1      # /usr/include/c++/9/bits/hashtable.h:1538:1
	movq	32(%rcx), %rax
	movq	(%rax,%r8,8), %rcx
.Ltmp66:
	#DEBUG_VALUE: __prev_p <- $rcx
	.loc	3 0 1 is_stmt 0         # /usr/include/c++/9/bits/hashtable.h:0:1
	movl	$-1, %r12d
	.loc	3 1539 1 is_stmt 1      # /usr/include/c++/9/bits/hashtable.h:1539:1
	testq	%rcx, %rcx
.Ltmp67:
	#DEBUG_VALUE: __k <- undef
	#DEBUG_VALUE: _M_find_before_node:__k <- undef
	.loc	3 0 1 is_stmt 0         # /usr/include/c++/9/bits/hashtable.h:0:1
	movl	%esi, 88(%rsp)          # 4-byte Spill
	.loc	3 1539 1                # /usr/include/c++/9/bits/hashtable.h:1539:1
	je	.LBB0_31
.Ltmp68:
# %bb.22:                               # %L.B0098.i.i104
                                        #   in Loop: Header=BB0_19 Depth=1
	#DEBUG_VALUE: __prev_p <- $rcx
	#DEBUG_VALUE: __code <- $r9
	#DEBUG_VALUE: _M_find_before_node:__code <- $r9
	#DEBUG_VALUE: __n <- $r8
	#DEBUG_VALUE: _M_find_before_node:__n <- $r8
	#DEBUG_VALUE:  <- [DW_OP_plus_uconst 56, DW_OP_deref_size 8, DW_OP_plus_uconst 32, DW_OP_stack_value] $rsp
	#DEBUG_VALUE: _M_find_before_node: <- [DW_OP_plus_uconst 56, DW_OP_deref_size 8, DW_OP_plus_uconst 32, DW_OP_stack_value] $rsp
	#DEBUG_VALUE:  <- [DW_OP_plus_uconst 56] [$rsp+0]
	#DEBUG_VALUE: getLocalID: <- [DW_OP_plus_uconst 56] [$rsp+0]
	#DEBUG_VALUE: block_k <- $r15
	#DEBUG_VALUE: loadColumnBlockData:n_blocks <- [DW_OP_plus_uconst 16] [$rsp+0]
	#DEBUG_VALUE: n_blocks <- [DW_OP_plus_uconst 16] [$rsp+0]
	#DEBUG_VALUE: loadColumnBlockData:values <- [DW_OP_plus_uconst 24] [$rsp+0]
	#DEBUG_VALUE: values <- [DW_OP_plus_uconst 24] [$rsp+0]
	#DEBUG_VALUE: loadColumnBlockData:vmesh <- [DW_OP_plus_uconst 56] [$rsp+0]
	#DEBUG_VALUE: loadColumnBlockData:blockContainer <- [DW_OP_plus_uconst 96] [$rsp+0]
	#DEBUG_VALUE: loadColumnBlockData:blocks <- [DW_OP_plus_uconst 104] [$rsp+0]
	#DEBUG_VALUE: loadColumnBlockData:dimension <- [DW_OP_plus_uconst 36] [$rsp+0]
	#DEBUG_VALUE: __prev_p <- $rcx
	.loc	3 1542 1 is_stmt 1      # /usr/include/c++/9/bits/hashtable.h:1542:1
	movq	(%rcx), %rsi
.Ltmp69:
	#DEBUG_VALUE: __p <- $rsi
	.loc	3 1836 1                # /usr/include/c++/9/bits/hashtable.h:1836:1
	cmpl	8(%rsi), %r9d
	jne	.LBB0_23
.Ltmp70:
.LBB0_29:                               # %L..inline.34596.i111
                                        #   in Loop: Header=BB0_19 Depth=1
	#DEBUG_VALUE: __prev_p <- $rcx
	#DEBUG_VALUE: __code <- $r9
	#DEBUG_VALUE: _M_find_before_node:__code <- $r9
	#DEBUG_VALUE: __n <- $r8
	#DEBUG_VALUE: _M_find_before_node:__n <- $r8
	#DEBUG_VALUE:  <- [DW_OP_plus_uconst 56, DW_OP_deref_size 8, DW_OP_plus_uconst 32, DW_OP_stack_value] $rsp
	#DEBUG_VALUE: _M_find_before_node: <- [DW_OP_plus_uconst 56, DW_OP_deref_size 8, DW_OP_plus_uconst 32, DW_OP_stack_value] $rsp
	#DEBUG_VALUE:  <- [DW_OP_plus_uconst 56] [$rsp+0]
	#DEBUG_VALUE: getLocalID: <- [DW_OP_plus_uconst 56] [$rsp+0]
	#DEBUG_VALUE: block_k <- $r15
	#DEBUG_VALUE: loadColumnBlockData:n_blocks <- [DW_OP_plus_uconst 16] [$rsp+0]
	#DEBUG_VALUE: n_blocks <- [DW_OP_plus_uconst 16] [$rsp+0]
	#DEBUG_VALUE: loadColumnBlockData:values <- [DW_OP_plus_uconst 24] [$rsp+0]
	#DEBUG_VALUE: values <- [DW_OP_plus_uconst 24] [$rsp+0]
	#DEBUG_VALUE: loadColumnBlockData:vmesh <- [DW_OP_plus_uconst 56] [$rsp+0]
	#DEBUG_VALUE: loadColumnBlockData:blockContainer <- [DW_OP_plus_uconst 96] [$rsp+0]
	#DEBUG_VALUE: loadColumnBlockData:blocks <- [DW_OP_plus_uconst 104] [$rsp+0]
	#DEBUG_VALUE: loadColumnBlockData:dimension <- [DW_OP_plus_uconst 36] [$rsp+0]
	#DEBUG_VALUE: __prev_p <- $rcx
	.loc	2 925 1                 # vlasovsolver/../velocity_mesh_old.h:925:1
	movq	(%rcx), %rax
	testq	%rax, %rax
.Ltmp71:
	#DEBUG_VALUE: ...._T38286072_19052.__b_NSt8__detail19_Node_iterator_baseISt4pairIKjjELb0EEE._M_cur <- 0
	#DEBUG_VALUE: ......inline.__b_NSt8__detail19_Node_iterator_baseISt4pairIKjjELb0EEE._M_cur <- 0
	#DEBUG_VALUE: it <- undef
	.loc	2 314 1                 # vlasovsolver/../velocity_mesh_old.h:314:1
	je	.LBB0_31
.Ltmp72:
# %bb.30:                               # %L.B1096.i112
                                        #   in Loop: Header=BB0_19 Depth=1
	#DEBUG_VALUE: ......inline.__b_NSt8__detail19_Node_iterator_baseISt4pairIKjjELb0EEE._M_cur <- 0
	#DEBUG_VALUE: ...._T38286072_19052.__b_NSt8__detail19_Node_iterator_baseISt4pairIKjjELb0EEE._M_cur <- 0
	#DEBUG_VALUE:  <- [DW_OP_plus_uconst 56] [$rsp+0]
	#DEBUG_VALUE: getLocalID: <- [DW_OP_plus_uconst 56] [$rsp+0]
	#DEBUG_VALUE: block_k <- $r15
	#DEBUG_VALUE: loadColumnBlockData:n_blocks <- [DW_OP_plus_uconst 16] [$rsp+0]
	#DEBUG_VALUE: n_blocks <- [DW_OP_plus_uconst 16] [$rsp+0]
	#DEBUG_VALUE: loadColumnBlockData:values <- [DW_OP_plus_uconst 24] [$rsp+0]
	#DEBUG_VALUE: values <- [DW_OP_plus_uconst 24] [$rsp+0]
	#DEBUG_VALUE: loadColumnBlockData:vmesh <- [DW_OP_plus_uconst 56] [$rsp+0]
	#DEBUG_VALUE: loadColumnBlockData:blockContainer <- [DW_OP_plus_uconst 96] [$rsp+0]
	#DEBUG_VALUE: loadColumnBlockData:blocks <- [DW_OP_plus_uconst 104] [$rsp+0]
	#DEBUG_VALUE: loadColumnBlockData:dimension <- [DW_OP_plus_uconst 36] [$rsp+0]
	.loc	2 401 1                 # vlasovsolver/../velocity_mesh_old.h:401:1
	movl	12(%rax), %r12d
.Ltmp73:
.LBB0_31:                               # %_ZNK5vmesh12VelocityMeshIjjE10getLocalIDERKj.exit114
                                        #   in Loop: Header=BB0_19 Depth=1
	#DEBUG_VALUE: block_k <- $r15
	#DEBUG_VALUE: loadColumnBlockData:n_blocks <- [DW_OP_plus_uconst 16] [$rsp+0]
	#DEBUG_VALUE: n_blocks <- [DW_OP_plus_uconst 16] [$rsp+0]
	#DEBUG_VALUE: loadColumnBlockData:values <- [DW_OP_plus_uconst 24] [$rsp+0]
	#DEBUG_VALUE: values <- [DW_OP_plus_uconst 24] [$rsp+0]
	#DEBUG_VALUE: loadColumnBlockData:vmesh <- [DW_OP_plus_uconst 56] [$rsp+0]
	#DEBUG_VALUE: loadColumnBlockData:blockContainer <- [DW_OP_plus_uconst 96] [$rsp+0]
	#DEBUG_VALUE: loadColumnBlockData:blocks <- [DW_OP_plus_uconst 104] [$rsp+0]
	#DEBUG_VALUE: loadColumnBlockData:dimension <- [DW_OP_plus_uconst 36] [$rsp+0]
	.loc	2 0 1 is_stmt 0         # vlasovsolver/../velocity_mesh_old.h:0:1
	movq	96(%rsp), %rax          # 8-byte Reload
.Ltmp74:
	.loc	1 179 1 is_stmt 1       # vlasovsolver/cpu_acc_load_blocks.cpp:179:1
	movq	(%rax), %r14
	shll	$6, %r12d
	leaq	(%r14,%r12,4), %rbx
.Ltmp75:
	#DEBUG_VALUE: data <- $rbx
	.loc	1 281 1                 # vlasovsolver/cpu_acc_load_blocks.cpp:281:1
	vmovss	(%r14,%r12,4), %xmm0    # xmm0 = mem[0],zero,zero,zero
	vmovss	4(%r14,%r12,4), %xmm1   # xmm1 = mem[0],zero,zero,zero
	vmovss	8(%r14,%r12,4), %xmm2   # xmm2 = mem[0],zero,zero,zero
	vmovss	12(%r14,%r12,4), %xmm3  # xmm3 = mem[0],zero,zero,zero
	vmovss	64(%r14,%r12,4), %xmm4  # xmm4 = mem[0],zero,zero,zero
	vmovss	68(%r14,%r12,4), %xmm5  # xmm5 = mem[0],zero,zero,zero
	vmovss	72(%r14,%r12,4), %xmm6  # xmm6 = mem[0],zero,zero,zero
	vmovss	76(%r14,%r12,4), %xmm7  # xmm7 = mem[0],zero,zero,zero
	leaq	128(%rsp), %rdi
	callq	_ZN10Vec8SimpleIfEC1Effffffff
	incq	%r15
.Ltmp76:
	leal	(,%r15,4), %ecx
	shlq	$6, %rcx
	movq	%r15, %r13
	movq	%r15, 8(%rsp)           # 8-byte Spill
	movq	24(%rsp), %r15          # 8-byte Reload
	movq	%rcx, 72(%rsp)          # 8-byte Spill
	leaq	(%r15,%rcx), %rdi
	movq	%rdi, 80(%rsp)          # 8-byte Spill
	leaq	128(%rsp), %rsi
	callq	_ZN10Vec8SimpleIfEaSERKS0_
	.loc	1 282 1                 # vlasovsolver/cpu_acc_load_blocks.cpp:282:1
	vmovss	128(%r14,%r12,4), %xmm0 # xmm0 = mem[0],zero,zero,zero
	vmovss	132(%r14,%r12,4), %xmm1 # xmm1 = mem[0],zero,zero,zero
	vmovss	136(%r14,%r12,4), %xmm2 # xmm2 = mem[0],zero,zero,zero
	vmovss	140(%r14,%r12,4), %xmm3 # xmm3 = mem[0],zero,zero,zero
	vmovss	192(%r14,%r12,4), %xmm4 # xmm4 = mem[0],zero,zero,zero
	vmovss	196(%r14,%r12,4), %xmm5 # xmm5 = mem[0],zero,zero,zero
	vmovss	200(%r14,%r12,4), %xmm6 # xmm6 = mem[0],zero,zero,zero
	vmovss	204(%r14,%r12,4), %xmm7 # xmm7 = mem[0],zero,zero,zero
	leaq	128(%rsp), %rdi
	callq	_ZN10Vec8SimpleIfEC1Effffffff
	movq	40(%rsp), %rax          # 8-byte Reload
	leal	(%rax,%r13,4), %edi
	shlq	$6, %rdi
	addq	%r15, %rdi
	movq	%r15, %r13
	leaq	128(%rsp), %rsi
	callq	_ZN10Vec8SimpleIfEaSERKS0_
	.loc	1 283 1                 # vlasovsolver/cpu_acc_load_blocks.cpp:283:1
	vmovss	16(%r14,%r12,4), %xmm0  # xmm0 = mem[0],zero,zero,zero
	vmovss	20(%r14,%r12,4), %xmm1  # xmm1 = mem[0],zero,zero,zero
	vmovss	24(%r14,%r12,4), %xmm2  # xmm2 = mem[0],zero,zero,zero
	vmovss	28(%r14,%r12,4), %xmm3  # xmm3 = mem[0],zero,zero,zero
	vmovss	80(%r14,%r12,4), %xmm4  # xmm4 = mem[0],zero,zero,zero
	vmovss	84(%r14,%r12,4), %xmm5  # xmm5 = mem[0],zero,zero,zero
	vmovss	88(%r14,%r12,4), %xmm6  # xmm6 = mem[0],zero,zero,zero
	vmovss	92(%r14,%r12,4), %xmm7  # xmm7 = mem[0],zero,zero,zero
	leaq	128(%rsp), %rdi
	callq	_ZN10Vec8SimpleIfEC1Effffffff
	movq	8(%rsp), %r15           # 8-byte Reload
	leal	1(,%r15,4), %edi
	shlq	$6, %rdi
	addq	%r13, %rdi
	leaq	128(%rsp), %rsi
	callq	_ZN10Vec8SimpleIfEaSERKS0_
	.loc	1 284 1                 # vlasovsolver/cpu_acc_load_blocks.cpp:284:1
	vmovss	144(%r14,%r12,4), %xmm0 # xmm0 = mem[0],zero,zero,zero
	vmovss	148(%r14,%r12,4), %xmm1 # xmm1 = mem[0],zero,zero,zero
	vmovss	152(%r14,%r12,4), %xmm2 # xmm2 = mem[0],zero,zero,zero
	vmovss	156(%r14,%r12,4), %xmm3 # xmm3 = mem[0],zero,zero,zero
	vmovss	208(%r14,%r12,4), %xmm4 # xmm4 = mem[0],zero,zero,zero
	vmovss	212(%r14,%r12,4), %xmm5 # xmm5 = mem[0],zero,zero,zero
	vmovss	216(%r14,%r12,4), %xmm6 # xmm6 = mem[0],zero,zero,zero
	vmovss	220(%r14,%r12,4), %xmm7 # xmm7 = mem[0],zero,zero,zero
	leaq	128(%rsp), %rdi
	callq	_ZN10Vec8SimpleIfEC1Effffffff
	movq	112(%rsp), %rax         # 8-byte Reload
	leal	(%rax,%r15,4), %edi
	shlq	$6, %rdi
	addq	%r13, %rdi
	leaq	128(%rsp), %rsi
	callq	_ZN10Vec8SimpleIfEaSERKS0_
	.loc	1 285 1                 # vlasovsolver/cpu_acc_load_blocks.cpp:285:1
	vmovss	32(%r14,%r12,4), %xmm0  # xmm0 = mem[0],zero,zero,zero
	vmovss	36(%r14,%r12,4), %xmm1  # xmm1 = mem[0],zero,zero,zero
	vmovss	40(%r14,%r12,4), %xmm2  # xmm2 = mem[0],zero,zero,zero
	vmovss	44(%r14,%r12,4), %xmm3  # xmm3 = mem[0],zero,zero,zero
	vmovss	96(%r14,%r12,4), %xmm4  # xmm4 = mem[0],zero,zero,zero
	vmovss	100(%r14,%r12,4), %xmm5 # xmm5 = mem[0],zero,zero,zero
	vmovss	104(%r14,%r12,4), %xmm6 # xmm6 = mem[0],zero,zero,zero
	vmovss	108(%r14,%r12,4), %xmm7 # xmm7 = mem[0],zero,zero,zero
	leaq	128(%rsp), %rdi
	callq	_ZN10Vec8SimpleIfEC1Effffffff
	leal	2(,%r15,4), %edi
	movq	%r15, %r13
	shlq	$6, %rdi
	movq	24(%rsp), %r15          # 8-byte Reload
	addq	%r15, %rdi
	leaq	128(%rsp), %rsi
	callq	_ZN10Vec8SimpleIfEaSERKS0_
	.loc	1 286 1                 # vlasovsolver/cpu_acc_load_blocks.cpp:286:1
	vmovss	160(%r14,%r12,4), %xmm0 # xmm0 = mem[0],zero,zero,zero
	vmovss	164(%r14,%r12,4), %xmm1 # xmm1 = mem[0],zero,zero,zero
	vmovss	168(%r14,%r12,4), %xmm2 # xmm2 = mem[0],zero,zero,zero
	vmovss	172(%r14,%r12,4), %xmm3 # xmm3 = mem[0],zero,zero,zero
	vmovss	224(%r14,%r12,4), %xmm4 # xmm4 = mem[0],zero,zero,zero
	vmovss	228(%r14,%r12,4), %xmm5 # xmm5 = mem[0],zero,zero,zero
	vmovss	232(%r14,%r12,4), %xmm6 # xmm6 = mem[0],zero,zero,zero
	vmovss	236(%r14,%r12,4), %xmm7 # xmm7 = mem[0],zero,zero,zero
	leaq	128(%rsp), %rdi
	callq	_ZN10Vec8SimpleIfEC1Effffffff
	movq	120(%rsp), %rax         # 8-byte Reload
	leal	(%rax,%r13,4), %edi
	shlq	$6, %rdi
	addq	%r15, %rdi
	leaq	128(%rsp), %rsi
	movq	%rsi, %r13
	callq	_ZN10Vec8SimpleIfEaSERKS0_
	.loc	1 287 1                 # vlasovsolver/cpu_acc_load_blocks.cpp:287:1
	vmovss	48(%r14,%r12,4), %xmm0  # xmm0 = mem[0],zero,zero,zero
	vmovss	52(%r14,%r12,4), %xmm1  # xmm1 = mem[0],zero,zero,zero
	vmovss	56(%r14,%r12,4), %xmm2  # xmm2 = mem[0],zero,zero,zero
	vmovss	60(%r14,%r12,4), %xmm3  # xmm3 = mem[0],zero,zero,zero
	vmovss	112(%r14,%r12,4), %xmm4 # xmm4 = mem[0],zero,zero,zero
	vmovss	116(%r14,%r12,4), %xmm5 # xmm5 = mem[0],zero,zero,zero
	vmovss	120(%r14,%r12,4), %xmm6 # xmm6 = mem[0],zero,zero,zero
	vmovss	124(%r14,%r12,4), %xmm7 # xmm7 = mem[0],zero,zero,zero
	movq	%r13, %rdi
	callq	_ZN10Vec8SimpleIfEC1Effffffff
	movq	8(%rsp), %r13           # 8-byte Reload
	leal	3(,%r13,4), %edi
	shlq	$6, %rdi
	addq	%r15, %rdi
	leaq	128(%rsp), %rsi
	callq	_ZN10Vec8SimpleIfEaSERKS0_
	.loc	1 288 1                 # vlasovsolver/cpu_acc_load_blocks.cpp:288:1
	vmovss	176(%r14,%r12,4), %xmm0 # xmm0 = mem[0],zero,zero,zero
	vmovss	180(%r14,%r12,4), %xmm1 # xmm1 = mem[0],zero,zero,zero
	vmovss	184(%r14,%r12,4), %xmm2 # xmm2 = mem[0],zero,zero,zero
	vmovss	188(%r14,%r12,4), %xmm3 # xmm3 = mem[0],zero,zero,zero
	vmovss	240(%r14,%r12,4), %xmm4 # xmm4 = mem[0],zero,zero,zero
	vmovss	244(%r14,%r12,4), %xmm5 # xmm5 = mem[0],zero,zero,zero
	vmovss	248(%r14,%r12,4), %xmm6 # xmm6 = mem[0],zero,zero,zero
	vmovss	252(%r14,%r12,4), %xmm7 # xmm7 = mem[0],zero,zero,zero
	leaq	128(%rsp), %rdi
	callq	_ZN10Vec8SimpleIfEC1Effffffff
	movq	64(%rsp), %rax          # 8-byte Reload
	leal	(%rax,%r13,4), %edi
	shlq	$6, %rdi
	addq	%r15, %rdi
	leaq	128(%rsp), %rsi
	callq	_ZN10Vec8SimpleIfEaSERKS0_
.Ltmp77:
	#DEBUG_VALUE: offset <- 0
	#DEBUG_VALUE: cell_indices_to_id <- [DW_OP_LLVM_fragment 64 32] 4
	#DEBUG_VALUE: cell_indices_to_id <- [DW_OP_LLVM_fragment 32 32] 16
	#DEBUG_VALUE: cell_indices_to_id <- [DW_OP_LLVM_fragment 0 32] 1
	.loc	1 318 1                 # vlasovsolver/cpu_acc_load_blocks.cpp:318:1
	vmovaps	.LCPI0_0(%rip), %ymm0   # ymm0 = [0,1,2,3,16,17,18,19,32,33,34,35,48,49,50,51,4,5,6,7,20,21,22,23,36,37,38,39,52,53,54,55]
	vmovups	%ymm0, 192(%rsp)
.Ltmp78:
	.loc	1 314 1                 # vlasovsolver/cpu_acc_load_blocks.cpp:314:1
	vmovaps	.LCPI0_1(%rip), %ymm0   # ymm0 = [8,9,10,11,24,25,26,27,40,41,42,43,56,57,58,59,12,13,14,15,28,29,30,31,44,45,46,47,60,61,62,63]
	vmovups	%ymm0, 224(%rsp)
.Ltmp79:
	.loc	1 328 1                 # vlasovsolver/cpu_acc_load_blocks.cpp:328:1
	movzbl	192(%rsp), %eax
	movl	(%rbx,%rax,4), %eax
	movl	%eax, 256(%rsp)
.Ltmp80:
	.loc	1 323 1                 # vlasovsolver/cpu_acc_load_blocks.cpp:323:1
	movl	4(%r14,%r12,4), %eax
	movl	%eax, 260(%rsp)
	movl	$1, %eax
.Ltmp81:
	.p2align	4, 0x90
.LBB0_32:                               # %L.B0814.L.B0814_crit_edge
                                        #   Parent Loop BB0_19 Depth=1
                                        # =>  This Inner Loop Header: Depth=2
	#DEBUG_VALUE: cell_indices_to_id <- [DW_OP_LLVM_fragment 0 32] 1
	#DEBUG_VALUE: cell_indices_to_id <- [DW_OP_LLVM_fragment 32 32] 16
	#DEBUG_VALUE: cell_indices_to_id <- [DW_OP_LLVM_fragment 64 32] 4
	#DEBUG_VALUE: offset <- 0
	#DEBUG_VALUE: data <- $rbx
	#DEBUG_VALUE: loadColumnBlockData:n_blocks <- [DW_OP_plus_uconst 16] [$rsp+0]
	#DEBUG_VALUE: n_blocks <- [DW_OP_plus_uconst 16] [$rsp+0]
	#DEBUG_VALUE: loadColumnBlockData:values <- [DW_OP_plus_uconst 24] [$rsp+0]
	#DEBUG_VALUE: values <- [DW_OP_plus_uconst 24] [$rsp+0]
	#DEBUG_VALUE: loadColumnBlockData:vmesh <- [DW_OP_plus_uconst 56] [$rsp+0]
	#DEBUG_VALUE: loadColumnBlockData:blockContainer <- [DW_OP_plus_uconst 96] [$rsp+0]
	#DEBUG_VALUE: loadColumnBlockData:blocks <- [DW_OP_plus_uconst 104] [$rsp+0]
	#DEBUG_VALUE: loadColumnBlockData:dimension <- [DW_OP_plus_uconst 36] [$rsp+0]
	movzbl	193(%rsp,%rax,2), %ecx
.Ltmp82:
	.loc	1 328 1                 # vlasovsolver/cpu_acc_load_blocks.cpp:328:1
	movzbl	192(%rsp,%rax,2), %edx
	movl	(%rbx,%rdx,4), %edx
	movl	%edx, 256(%rsp,%rax,8)
.Ltmp83:
	.loc	1 323 1                 # vlasovsolver/cpu_acc_load_blocks.cpp:323:1
	movl	(%rbx,%rcx,4), %ecx
	movl	%ecx, 260(%rsp,%rax,8)
	movzbl	195(%rsp,%rax,2), %ecx
.Ltmp84:
	.loc	1 328 1                 # vlasovsolver/cpu_acc_load_blocks.cpp:328:1
	movzbl	194(%rsp,%rax,2), %edx
	movl	(%rbx,%rdx,4), %edx
	movl	%edx, 264(%rsp,%rax,8)
.Ltmp85:
	.loc	1 323 1                 # vlasovsolver/cpu_acc_load_blocks.cpp:323:1
	movl	(%rbx,%rcx,4), %ecx
	movl	%ecx, 268(%rsp,%rax,8)
	movzbl	197(%rsp,%rax,2), %ecx
.Ltmp86:
	.loc	1 328 1                 # vlasovsolver/cpu_acc_load_blocks.cpp:328:1
	movzbl	196(%rsp,%rax,2), %edx
	movl	(%rbx,%rdx,4), %edx
	movl	%edx, 272(%rsp,%rax,8)
.Ltmp87:
	.loc	1 323 1                 # vlasovsolver/cpu_acc_load_blocks.cpp:323:1
	movl	(%rbx,%rcx,4), %ecx
	movl	%ecx, 276(%rsp,%rax,8)
.Ltmp88:
	.loc	1 328 1                 # vlasovsolver/cpu_acc_load_blocks.cpp:328:1
	cmpl	$29, %eax
	je	.LBB0_33
.Ltmp89:
# %bb.51:                               # %L.B0814.L.B0814_crit_edge.3
                                        #   in Loop: Header=BB0_32 Depth=2
	#DEBUG_VALUE: cell_indices_to_id <- [DW_OP_LLVM_fragment 0 32] 1
	#DEBUG_VALUE: cell_indices_to_id <- [DW_OP_LLVM_fragment 32 32] 16
	#DEBUG_VALUE: cell_indices_to_id <- [DW_OP_LLVM_fragment 64 32] 4
	#DEBUG_VALUE: offset <- 0
	#DEBUG_VALUE: data <- $rbx
	#DEBUG_VALUE: loadColumnBlockData:n_blocks <- [DW_OP_plus_uconst 16] [$rsp+0]
	#DEBUG_VALUE: n_blocks <- [DW_OP_plus_uconst 16] [$rsp+0]
	#DEBUG_VALUE: loadColumnBlockData:values <- [DW_OP_plus_uconst 24] [$rsp+0]
	#DEBUG_VALUE: values <- [DW_OP_plus_uconst 24] [$rsp+0]
	#DEBUG_VALUE: loadColumnBlockData:vmesh <- [DW_OP_plus_uconst 56] [$rsp+0]
	#DEBUG_VALUE: loadColumnBlockData:blockContainer <- [DW_OP_plus_uconst 96] [$rsp+0]
	#DEBUG_VALUE: loadColumnBlockData:blocks <- [DW_OP_plus_uconst 104] [$rsp+0]
	#DEBUG_VALUE: loadColumnBlockData:dimension <- [DW_OP_plus_uconst 36] [$rsp+0]
	.loc	1 323 1                 # vlasovsolver/cpu_acc_load_blocks.cpp:323:1
	movzbl	199(%rsp,%rax,2), %ecx
.Ltmp90:
	.loc	1 328 1                 # vlasovsolver/cpu_acc_load_blocks.cpp:328:1
	movzbl	198(%rsp,%rax,2), %edx
	movl	(%rbx,%rdx,4), %edx
	movl	%edx, 280(%rsp,%rax,8)
.Ltmp91:
	.loc	1 323 1                 # vlasovsolver/cpu_acc_load_blocks.cpp:323:1
	movl	(%rbx,%rcx,4), %ecx
	movl	%ecx, 284(%rsp,%rax,8)
	addq	$4, %rax
	jmp	.LBB0_32
.Ltmp92:
	.p2align	4, 0x90
.LBB0_23:                               # %L.B0101.i.i106
                                        #   Parent Loop BB0_19 Depth=1
                                        # =>  This Inner Loop Header: Depth=2
	#DEBUG_VALUE: __p <- $rsi
	#DEBUG_VALUE: __code <- $r9
	#DEBUG_VALUE: _M_find_before_node:__code <- $r9
	#DEBUG_VALUE: __n <- $r8
	#DEBUG_VALUE: _M_find_before_node:__n <- $r8
	#DEBUG_VALUE:  <- [DW_OP_plus_uconst 56, DW_OP_deref_size 8, DW_OP_plus_uconst 32, DW_OP_stack_value] $rsp
	#DEBUG_VALUE: _M_find_before_node: <- [DW_OP_plus_uconst 56, DW_OP_deref_size 8, DW_OP_plus_uconst 32, DW_OP_stack_value] $rsp
	#DEBUG_VALUE:  <- [DW_OP_plus_uconst 56] [$rsp+0]
	#DEBUG_VALUE: getLocalID: <- [DW_OP_plus_uconst 56] [$rsp+0]
	#DEBUG_VALUE: block_k <- $r15
	#DEBUG_VALUE: loadColumnBlockData:n_blocks <- [DW_OP_plus_uconst 16] [$rsp+0]
	#DEBUG_VALUE: n_blocks <- [DW_OP_plus_uconst 16] [$rsp+0]
	#DEBUG_VALUE: loadColumnBlockData:values <- [DW_OP_plus_uconst 24] [$rsp+0]
	#DEBUG_VALUE: values <- [DW_OP_plus_uconst 24] [$rsp+0]
	#DEBUG_VALUE: loadColumnBlockData:vmesh <- [DW_OP_plus_uconst 56] [$rsp+0]
	#DEBUG_VALUE: loadColumnBlockData:blockContainer <- [DW_OP_plus_uconst 96] [$rsp+0]
	#DEBUG_VALUE: loadColumnBlockData:blocks <- [DW_OP_plus_uconst 104] [$rsp+0]
	#DEBUG_VALUE: loadColumnBlockData:dimension <- [DW_OP_plus_uconst 36] [$rsp+0]
	.loc	1 0 1 is_stmt 0         # vlasovsolver/cpu_acc_load_blocks.cpp:0:1
	movq	%rsi, %rcx
.Ltmp93:
	#DEBUG_VALUE: __p <- $rcx
	.loc	3 1548 1 is_stmt 1      # /usr/include/c++/9/bits/hashtable.h:1548:1
	movq	(%rsi), %rsi
	testq	%rsi, %rsi
	je	.LBB0_31
.Ltmp94:
# %bb.24:                               # %L.B0959.i.i107
                                        #   in Loop: Header=BB0_23 Depth=2
	#DEBUG_VALUE: __code <- $r9
	#DEBUG_VALUE: _M_find_before_node:__code <- $r9
	#DEBUG_VALUE: __n <- $r8
	#DEBUG_VALUE: _M_find_before_node:__n <- $r8
	#DEBUG_VALUE:  <- [DW_OP_plus_uconst 56, DW_OP_deref_size 8, DW_OP_plus_uconst 32, DW_OP_stack_value] $rsp
	#DEBUG_VALUE: _M_find_before_node: <- [DW_OP_plus_uconst 56, DW_OP_deref_size 8, DW_OP_plus_uconst 32, DW_OP_stack_value] $rsp
	#DEBUG_VALUE:  <- [DW_OP_plus_uconst 56] [$rsp+0]
	#DEBUG_VALUE: getLocalID: <- [DW_OP_plus_uconst 56] [$rsp+0]
	#DEBUG_VALUE: block_k <- $r15
	#DEBUG_VALUE: loadColumnBlockData:n_blocks <- [DW_OP_plus_uconst 16] [$rsp+0]
	#DEBUG_VALUE: n_blocks <- [DW_OP_plus_uconst 16] [$rsp+0]
	#DEBUG_VALUE: loadColumnBlockData:values <- [DW_OP_plus_uconst 24] [$rsp+0]
	#DEBUG_VALUE: values <- [DW_OP_plus_uconst 24] [$rsp+0]
	#DEBUG_VALUE: loadColumnBlockData:vmesh <- [DW_OP_plus_uconst 56] [$rsp+0]
	#DEBUG_VALUE: loadColumnBlockData:blockContainer <- [DW_OP_plus_uconst 96] [$rsp+0]
	#DEBUG_VALUE: loadColumnBlockData:blocks <- [DW_OP_plus_uconst 104] [$rsp+0]
	#DEBUG_VALUE: loadColumnBlockData:dimension <- [DW_OP_plus_uconst 36] [$rsp+0]
	.loc	3 640 1                 # /usr/include/c++/9/bits/hashtable.h:640:1
	movl	8(%rsi), %edi
	movq	%rdi, %rdx
	cmpq	%rbx, %rdi
	jb	.LBB0_26
.Ltmp95:
# %bb.25:                               #   in Loop: Header=BB0_23 Depth=2
	#DEBUG_VALUE: __code <- $r9
	#DEBUG_VALUE: _M_find_before_node:__code <- $r9
	#DEBUG_VALUE: __n <- $r8
	#DEBUG_VALUE: _M_find_before_node:__n <- $r8
	#DEBUG_VALUE:  <- [DW_OP_plus_uconst 56, DW_OP_deref_size 8, DW_OP_plus_uconst 32, DW_OP_stack_value] $rsp
	#DEBUG_VALUE: _M_find_before_node: <- [DW_OP_plus_uconst 56, DW_OP_deref_size 8, DW_OP_plus_uconst 32, DW_OP_stack_value] $rsp
	#DEBUG_VALUE:  <- [DW_OP_plus_uconst 56] [$rsp+0]
	#DEBUG_VALUE: getLocalID: <- [DW_OP_plus_uconst 56] [$rsp+0]
	#DEBUG_VALUE: block_k <- $r15
	#DEBUG_VALUE: loadColumnBlockData:n_blocks <- [DW_OP_plus_uconst 16] [$rsp+0]
	#DEBUG_VALUE: n_blocks <- [DW_OP_plus_uconst 16] [$rsp+0]
	#DEBUG_VALUE: loadColumnBlockData:values <- [DW_OP_plus_uconst 24] [$rsp+0]
	#DEBUG_VALUE: values <- [DW_OP_plus_uconst 24] [$rsp+0]
	#DEBUG_VALUE: loadColumnBlockData:vmesh <- [DW_OP_plus_uconst 56] [$rsp+0]
	#DEBUG_VALUE: loadColumnBlockData:blockContainer <- [DW_OP_plus_uconst 96] [$rsp+0]
	#DEBUG_VALUE: loadColumnBlockData:blocks <- [DW_OP_plus_uconst 104] [$rsp+0]
	#DEBUG_VALUE: loadColumnBlockData:dimension <- [DW_OP_plus_uconst 36] [$rsp+0]
	.loc	3 0 1 is_stmt 0         # /usr/include/c++/9/bits/hashtable.h:0:1
	movl	%edi, %eax
	xorl	%edx, %edx
	divl	%ebx
                                        # kill: def $edx killed $edx def $rdx
.Ltmp96:
.LBB0_26:                               #   in Loop: Header=BB0_23 Depth=2
	#DEBUG_VALUE: __code <- $r9
	#DEBUG_VALUE: _M_find_before_node:__code <- $r9
	#DEBUG_VALUE: __n <- $r8
	#DEBUG_VALUE: _M_find_before_node:__n <- $r8
	#DEBUG_VALUE:  <- [DW_OP_plus_uconst 56, DW_OP_deref_size 8, DW_OP_plus_uconst 32, DW_OP_stack_value] $rsp
	#DEBUG_VALUE: _M_find_before_node: <- [DW_OP_plus_uconst 56, DW_OP_deref_size 8, DW_OP_plus_uconst 32, DW_OP_stack_value] $rsp
	#DEBUG_VALUE:  <- [DW_OP_plus_uconst 56] [$rsp+0]
	#DEBUG_VALUE: getLocalID: <- [DW_OP_plus_uconst 56] [$rsp+0]
	#DEBUG_VALUE: block_k <- $r15
	#DEBUG_VALUE: loadColumnBlockData:n_blocks <- [DW_OP_plus_uconst 16] [$rsp+0]
	#DEBUG_VALUE: n_blocks <- [DW_OP_plus_uconst 16] [$rsp+0]
	#DEBUG_VALUE: loadColumnBlockData:values <- [DW_OP_plus_uconst 24] [$rsp+0]
	#DEBUG_VALUE: values <- [DW_OP_plus_uconst 24] [$rsp+0]
	#DEBUG_VALUE: loadColumnBlockData:vmesh <- [DW_OP_plus_uconst 56] [$rsp+0]
	#DEBUG_VALUE: loadColumnBlockData:blockContainer <- [DW_OP_plus_uconst 96] [$rsp+0]
	#DEBUG_VALUE: loadColumnBlockData:blocks <- [DW_OP_plus_uconst 104] [$rsp+0]
	#DEBUG_VALUE: loadColumnBlockData:dimension <- [DW_OP_plus_uconst 36] [$rsp+0]
	.loc	3 640 1                 # /usr/include/c++/9/bits/hashtable.h:640:1
	cmpq	%r8, %rdx
	jne	.LBB0_31
.Ltmp97:
# %bb.27:                               # %L.B0102.i.i108
                                        #   in Loop: Header=BB0_23 Depth=2
	#DEBUG_VALUE: __code <- $r9
	#DEBUG_VALUE: _M_find_before_node:__code <- $r9
	#DEBUG_VALUE: __n <- $r8
	#DEBUG_VALUE: _M_find_before_node:__n <- $r8
	#DEBUG_VALUE:  <- [DW_OP_plus_uconst 56, DW_OP_deref_size 8, DW_OP_plus_uconst 32, DW_OP_stack_value] $rsp
	#DEBUG_VALUE: _M_find_before_node: <- [DW_OP_plus_uconst 56, DW_OP_deref_size 8, DW_OP_plus_uconst 32, DW_OP_stack_value] $rsp
	#DEBUG_VALUE:  <- [DW_OP_plus_uconst 56] [$rsp+0]
	#DEBUG_VALUE: getLocalID: <- [DW_OP_plus_uconst 56] [$rsp+0]
	#DEBUG_VALUE: block_k <- $r15
	#DEBUG_VALUE: loadColumnBlockData:n_blocks <- [DW_OP_plus_uconst 16] [$rsp+0]
	#DEBUG_VALUE: n_blocks <- [DW_OP_plus_uconst 16] [$rsp+0]
	#DEBUG_VALUE: loadColumnBlockData:values <- [DW_OP_plus_uconst 24] [$rsp+0]
	#DEBUG_VALUE: values <- [DW_OP_plus_uconst 24] [$rsp+0]
	#DEBUG_VALUE: loadColumnBlockData:vmesh <- [DW_OP_plus_uconst 56] [$rsp+0]
	#DEBUG_VALUE: loadColumnBlockData:blockContainer <- [DW_OP_plus_uconst 96] [$rsp+0]
	#DEBUG_VALUE: loadColumnBlockData:blocks <- [DW_OP_plus_uconst 104] [$rsp+0]
	#DEBUG_VALUE: loadColumnBlockData:dimension <- [DW_OP_plus_uconst 36] [$rsp+0]
	#DEBUG_VALUE: __p <- $rsi
	.loc	3 1836 1 is_stmt 1      # /usr/include/c++/9/bits/hashtable.h:1836:1
	cmpl	%edi, %r9d
	jne	.LBB0_23
.Ltmp98:
# %bb.28:                               # %_ZNKSt10_HashtableIjSt4pairIKjjESaIS2_ENSt8__detail10_Select1stESt8equal_toIjESt4hashIjENS4_18_Mod_range_hashingENS4_20_Default_ranged_hashENS4_20_Prime_rehash_policyENS4_17_Hashtable_traitsILb0ELb0ELb1EEEE19_M_find_before_nodeEmRS1_m.exit.i109
                                        #   in Loop: Header=BB0_19 Depth=1
	#DEBUG_VALUE: __p <- $rsi
	#DEBUG_VALUE: __code <- $r9
	#DEBUG_VALUE: _M_find_before_node:__code <- $r9
	#DEBUG_VALUE: __n <- $r8
	#DEBUG_VALUE: _M_find_before_node:__n <- $r8
	#DEBUG_VALUE:  <- [DW_OP_plus_uconst 56, DW_OP_deref_size 8, DW_OP_plus_uconst 32, DW_OP_stack_value] $rsp
	#DEBUG_VALUE: _M_find_before_node: <- [DW_OP_plus_uconst 56, DW_OP_deref_size 8, DW_OP_plus_uconst 32, DW_OP_stack_value] $rsp
	#DEBUG_VALUE:  <- [DW_OP_plus_uconst 56] [$rsp+0]
	#DEBUG_VALUE: getLocalID: <- [DW_OP_plus_uconst 56] [$rsp+0]
	#DEBUG_VALUE: block_k <- $r15
	#DEBUG_VALUE: loadColumnBlockData:n_blocks <- [DW_OP_plus_uconst 16] [$rsp+0]
	#DEBUG_VALUE: n_blocks <- [DW_OP_plus_uconst 16] [$rsp+0]
	#DEBUG_VALUE: loadColumnBlockData:values <- [DW_OP_plus_uconst 24] [$rsp+0]
	#DEBUG_VALUE: values <- [DW_OP_plus_uconst 24] [$rsp+0]
	#DEBUG_VALUE: loadColumnBlockData:vmesh <- [DW_OP_plus_uconst 56] [$rsp+0]
	#DEBUG_VALUE: loadColumnBlockData:blockContainer <- [DW_OP_plus_uconst 96] [$rsp+0]
	#DEBUG_VALUE: loadColumnBlockData:blocks <- [DW_OP_plus_uconst 104] [$rsp+0]
	#DEBUG_VALUE: loadColumnBlockData:dimension <- [DW_OP_plus_uconst 36] [$rsp+0]
	#DEBUG_VALUE: __prev_p <- $rcx
	#DEBUG_VALUE: __p <- $rcx
	.loc	2 925 1                 # vlasovsolver/../velocity_mesh_old.h:925:1
	testq	%rcx, %rcx
	jne	.LBB0_29
	jmp	.LBB0_31
.Ltmp99:
.LBB0_34:                               # %L.B0025
	#DEBUG_VALUE: loadColumnBlockData:n_blocks <- [DW_OP_plus_uconst 16] [$rsp+0]
	#DEBUG_VALUE: n_blocks <- [DW_OP_plus_uconst 16] [$rsp+0]
	#DEBUG_VALUE: loadColumnBlockData:values <- [DW_OP_plus_uconst 24] [$rsp+0]
	#DEBUG_VALUE: values <- [DW_OP_plus_uconst 24] [$rsp+0]
	#DEBUG_VALUE: loadColumnBlockData:vmesh <- [DW_OP_plus_uconst 56] [$rsp+0]
	#DEBUG_VALUE: loadColumnBlockData:blockContainer <- [DW_OP_plus_uconst 96] [$rsp+0]
	#DEBUG_VALUE: loadColumnBlockData:blocks <- [DW_OP_plus_uconst 104] [$rsp+0]
	#DEBUG_VALUE: loadColumnBlockData:dimension <- [DW_OP_plus_uconst 36] [$rsp+0]
	.loc	1 92 1                  # vlasovsolver/cpu_acc_load_blocks.cpp:92:1
	cmpl	$0, 16(%rsp)            # 4-byte Folded Reload
.Ltmp100:
	#DEBUG_VALUE: block_k <- 0
	.loc	1 343 1                 # vlasovsolver/cpu_acc_load_blocks.cpp:343:1
	je	.LBB0_50
.Ltmp101:
# %bb.35:                               # %L.B0025
	#DEBUG_VALUE: block_k <- 0
	#DEBUG_VALUE: loadColumnBlockData:n_blocks <- [DW_OP_plus_uconst 16] [$rsp+0]
	#DEBUG_VALUE: n_blocks <- [DW_OP_plus_uconst 16] [$rsp+0]
	#DEBUG_VALUE: loadColumnBlockData:values <- [DW_OP_plus_uconst 24] [$rsp+0]
	#DEBUG_VALUE: values <- [DW_OP_plus_uconst 24] [$rsp+0]
	#DEBUG_VALUE: loadColumnBlockData:vmesh <- [DW_OP_plus_uconst 56] [$rsp+0]
	#DEBUG_VALUE: loadColumnBlockData:blockContainer <- [DW_OP_plus_uconst 96] [$rsp+0]
	#DEBUG_VALUE: loadColumnBlockData:blocks <- [DW_OP_plus_uconst 104] [$rsp+0]
	#DEBUG_VALUE: loadColumnBlockData:dimension <- [DW_OP_plus_uconst 36] [$rsp+0]
	cmpl	$2, 36(%rsp)            # 4-byte Folded Reload
	jne	.LBB0_50
.Ltmp102:
# %bb.36:                               # %L.B0822
	#DEBUG_VALUE: block_k <- 0
	#DEBUG_VALUE: loadColumnBlockData:n_blocks <- [DW_OP_plus_uconst 16] [$rsp+0]
	#DEBUG_VALUE: n_blocks <- [DW_OP_plus_uconst 16] [$rsp+0]
	#DEBUG_VALUE: loadColumnBlockData:values <- [DW_OP_plus_uconst 24] [$rsp+0]
	#DEBUG_VALUE: values <- [DW_OP_plus_uconst 24] [$rsp+0]
	#DEBUG_VALUE: loadColumnBlockData:vmesh <- [DW_OP_plus_uconst 56] [$rsp+0]
	#DEBUG_VALUE: loadColumnBlockData:blockContainer <- [DW_OP_plus_uconst 96] [$rsp+0]
	#DEBUG_VALUE: loadColumnBlockData:blocks <- [DW_OP_plus_uconst 104] [$rsp+0]
	#DEBUG_VALUE: loadColumnBlockData:dimension <- [DW_OP_plus_uconst 36] [$rsp+0]
	.loc	1 0 1 is_stmt 0         # vlasovsolver/cpu_acc_load_blocks.cpp:0:1
	movq	48(%rsp), %rax          # 8-byte Reload
.Ltmp103:
	.loc	1 346 1 is_stmt 1       # vlasovsolver/cpu_acc_load_blocks.cpp:346:1
	shll	$2, %eax
	shlq	$6, %rax
	movq	%rax, 48(%rsp)          # 8-byte Spill
.Ltmp104:
	.loc	1 0 0 is_stmt 0         # vlasovsolver/cpu_acc_load_blocks.cpp:0:0
	xorl	%r10d, %r10d
	jmp	.LBB0_37
.Ltmp105:
	.p2align	4, 0x90
.LBB0_49:                               # %_ZNK5vmesh12VelocityMeshIjjE10getLocalIDERKj.exit125
                                        #   in Loop: Header=BB0_37 Depth=1
	#DEBUG_VALUE: block_k <- $r10
	#DEBUG_VALUE: loadColumnBlockData:n_blocks <- [DW_OP_plus_uconst 16] [$rsp+0]
	#DEBUG_VALUE: n_blocks <- [DW_OP_plus_uconst 16] [$rsp+0]
	#DEBUG_VALUE: loadColumnBlockData:values <- [DW_OP_plus_uconst 24] [$rsp+0]
	#DEBUG_VALUE: values <- [DW_OP_plus_uconst 24] [$rsp+0]
	#DEBUG_VALUE: loadColumnBlockData:vmesh <- [DW_OP_plus_uconst 56] [$rsp+0]
	#DEBUG_VALUE: loadColumnBlockData:blockContainer <- [DW_OP_plus_uconst 96] [$rsp+0]
	#DEBUG_VALUE: loadColumnBlockData:blocks <- [DW_OP_plus_uconst 104] [$rsp+0]
	#DEBUG_VALUE: loadColumnBlockData:dimension <- [DW_OP_plus_uconst 36] [$rsp+0]
	movq	96(%rsp), %rax          # 8-byte Reload
.Ltmp106:
	.loc	1 179 1 is_stmt 1       # vlasovsolver/cpu_acc_load_blocks.cpp:179:1
	movq	(%rax), %r13
	shll	$6, %r12d
	leaq	(,%r12,4), %rsi
	addq	%r13, %rsi
	movq	%rsi, 40(%rsp)          # 8-byte Spill
.Ltmp107:
	#DEBUG_VALUE: k <- 0
	#DEBUG_VALUE: offset <- 0
	#DEBUG_VALUE: data <- $rsi
	.loc	1 349 1                 # vlasovsolver/cpu_acc_load_blocks.cpp:349:1
	incq	%r10
.Ltmp108:
	.loc	1 0 1 is_stmt 0         # vlasovsolver/cpu_acc_load_blocks.cpp:0:1
	movq	%r10, 8(%rsp)           # 8-byte Spill
	.loc	1 349 1                 # vlasovsolver/cpu_acc_load_blocks.cpp:349:1
	leal	(,%r10,4), %r14d
	.loc	1 350 1 is_stmt 1       # vlasovsolver/cpu_acc_load_blocks.cpp:350:1
	shlq	$6, %r14
	movq	24(%rsp), %rax          # 8-byte Reload
	leaq	(%rax,%r14), %rbx
	movq	%rax, %r15
	.loc	1 351 1                 # vlasovsolver/cpu_acc_load_blocks.cpp:351:1
	movq	%rbx, %rdi
.Ltmp109:
	#DEBUG_VALUE: data <- [DW_OP_plus_uconst 40] [$rsp+0]
	callq	_ZN10Vec8SimpleIfE4loadEPKf
.Ltmp110:
	#DEBUG_VALUE: offset <- 8
	.loc	1 350 1                 # vlasovsolver/cpu_acc_load_blocks.cpp:350:1
	addq	48(%rsp), %rbx          # 8-byte Folded Reload
	.loc	1 351 1                 # vlasovsolver/cpu_acc_load_blocks.cpp:351:1
	leaq	32(,%r12,4), %rsi
	addq	%r13, %rsi
	movq	%rbx, %rdi
	callq	_ZN10Vec8SimpleIfE4loadEPKf
.Ltmp111:
	#DEBUG_VALUE: k <- 1
	#DEBUG_VALUE: offset <- 16
	.loc	1 350 1                 # vlasovsolver/cpu_acc_load_blocks.cpp:350:1
	leaq	(%r15,%r14), %rbx
	addq	$64, %rbx
	.loc	1 351 1                 # vlasovsolver/cpu_acc_load_blocks.cpp:351:1
	leaq	64(,%r12,4), %rsi
	addq	%r13, %rsi
	movq	%rbx, %rdi
	callq	_ZN10Vec8SimpleIfE4loadEPKf
.Ltmp112:
	#DEBUG_VALUE: offset <- 24
	.loc	1 0 1 is_stmt 0         # vlasovsolver/cpu_acc_load_blocks.cpp:0:1
	movq	48(%rsp), %r15          # 8-byte Reload
	.loc	1 350 1 is_stmt 1       # vlasovsolver/cpu_acc_load_blocks.cpp:350:1
	addq	%r15, %rbx
	.loc	1 351 1                 # vlasovsolver/cpu_acc_load_blocks.cpp:351:1
	leaq	96(,%r12,4), %rsi
	addq	%r13, %rsi
	movq	%rbx, %rdi
	callq	_ZN10Vec8SimpleIfE4loadEPKf
.Ltmp113:
	#DEBUG_VALUE: k <- 2
	#DEBUG_VALUE: offset <- 32
	.loc	1 0 1 is_stmt 0         # vlasovsolver/cpu_acc_load_blocks.cpp:0:1
	movq	24(%rsp), %rax          # 8-byte Reload
	.loc	1 350 1 is_stmt 1       # vlasovsolver/cpu_acc_load_blocks.cpp:350:1
	leaq	(%rax,%r14), %rbx
	addq	$128, %rbx
	.loc	1 351 1                 # vlasovsolver/cpu_acc_load_blocks.cpp:351:1
	leaq	128(,%r12,4), %rsi
	addq	%r13, %rsi
	movq	%rbx, %rdi
	callq	_ZN10Vec8SimpleIfE4loadEPKf
.Ltmp114:
	#DEBUG_VALUE: offset <- 40
	.loc	1 350 1                 # vlasovsolver/cpu_acc_load_blocks.cpp:350:1
	addq	%r15, %rbx
	.loc	1 351 1                 # vlasovsolver/cpu_acc_load_blocks.cpp:351:1
	leaq	160(,%r12,4), %rsi
	addq	%r13, %rsi
	movq	%rbx, %rdi
	callq	_ZN10Vec8SimpleIfE4loadEPKf
.Ltmp115:
	#DEBUG_VALUE: k <- 3
	#DEBUG_VALUE: offset <- 48
	.loc	1 0 1 is_stmt 0         # vlasovsolver/cpu_acc_load_blocks.cpp:0:1
	movq	24(%rsp), %rax          # 8-byte Reload
	.loc	1 350 1 is_stmt 1       # vlasovsolver/cpu_acc_load_blocks.cpp:350:1
	leaq	(%rax,%r14), %rbx
	addq	$192, %rbx
	.loc	1 351 1                 # vlasovsolver/cpu_acc_load_blocks.cpp:351:1
	leaq	192(,%r12,4), %rsi
	addq	%r13, %rsi
	movq	%rbx, %rdi
	callq	_ZN10Vec8SimpleIfE4loadEPKf
.Ltmp116:
	#DEBUG_VALUE: offset <- 56
	.loc	1 350 1                 # vlasovsolver/cpu_acc_load_blocks.cpp:350:1
	addq	%r15, %rbx
	.loc	1 351 1                 # vlasovsolver/cpu_acc_load_blocks.cpp:351:1
	leaq	224(,%r12,4), %rsi
	addq	%r13, %rsi
	movq	%rbx, %rdi
	callq	_ZN10Vec8SimpleIfE4loadEPKf
.Ltmp117:
	#DEBUG_VALUE: k <- 4
	#DEBUG_VALUE: offset <- 64
	.loc	1 357 1                 # vlasovsolver/cpu_acc_load_blocks.cpp:357:1
	movl	$64, %esi
	movq	40(%rsp), %rdi          # 8-byte Reload
	xorl	%eax, %eax
	callq	__c_mzero4
	movq	8(%rsp), %r10           # 8-byte Reload
.Ltmp118:
	#DEBUG_VALUE: block_k <- $r10
	.loc	1 0 1 is_stmt 0         # vlasovsolver/cpu_acc_load_blocks.cpp:0:1
	movq	16(%rsp), %rax          # 8-byte Reload
.Ltmp119:
	.loc	1 359 1 is_stmt 1       # vlasovsolver/cpu_acc_load_blocks.cpp:359:1
	decl	%eax
	movq	%rax, 16(%rsp)          # 8-byte Spill
	movq	56(%rsp), %rcx          # 8-byte Reload
	je	.LBB0_50
.Ltmp120:
.LBB0_37:                               # %L.B0073
                                        # =>This Loop Header: Depth=1
                                        #     Child Loop BB0_41 Depth 2
	#DEBUG_VALUE: loadColumnBlockData:n_blocks <- [DW_OP_plus_uconst 16] [$rsp+0]
	#DEBUG_VALUE: n_blocks <- [DW_OP_plus_uconst 16] [$rsp+0]
	#DEBUG_VALUE: loadColumnBlockData:values <- [DW_OP_plus_uconst 24] [$rsp+0]
	#DEBUG_VALUE: values <- [DW_OP_plus_uconst 24] [$rsp+0]
	#DEBUG_VALUE: loadColumnBlockData:vmesh <- [DW_OP_plus_uconst 56] [$rsp+0]
	#DEBUG_VALUE: loadColumnBlockData:blockContainer <- [DW_OP_plus_uconst 96] [$rsp+0]
	#DEBUG_VALUE: loadColumnBlockData:blocks <- [DW_OP_plus_uconst 104] [$rsp+0]
	#DEBUG_VALUE: loadColumnBlockData:dimension <- [DW_OP_plus_uconst 36] [$rsp+0]
	#DEBUG_VALUE: block_k <- $r10
	#DEBUG_VALUE: getLocalID: <- [DW_OP_plus_uconst 56] [$rsp+0]
	#DEBUG_VALUE:  <- [DW_OP_plus_uconst 56] [$rsp+0]
	#DEBUG_VALUE: getLocalID:globalID <- undef
	#DEBUG_VALUE: globalID <- undef
	.loc	1 0 1 is_stmt 0         # vlasovsolver/cpu_acc_load_blocks.cpp:0:1
	movq	104(%rsp), %rax         # 8-byte Reload
.Ltmp121:
	.loc	2 925 1 is_stmt 1       # vlasovsolver/../velocity_mesh_old.h:925:1
	movl	(%rax,%r10,4), %r9d
	movq	40(%rcx), %rbx
	movq	%r9, %r8
	cmpq	%rbx, %r9
	jb	.LBB0_39
.Ltmp122:
# %bb.38:                               #   in Loop: Header=BB0_37 Depth=1
	#DEBUG_VALUE:  <- [DW_OP_plus_uconst 56] [$rsp+0]
	#DEBUG_VALUE: getLocalID: <- [DW_OP_plus_uconst 56] [$rsp+0]
	#DEBUG_VALUE: block_k <- $r10
	#DEBUG_VALUE: loadColumnBlockData:n_blocks <- [DW_OP_plus_uconst 16] [$rsp+0]
	#DEBUG_VALUE: n_blocks <- [DW_OP_plus_uconst 16] [$rsp+0]
	#DEBUG_VALUE: loadColumnBlockData:values <- [DW_OP_plus_uconst 24] [$rsp+0]
	#DEBUG_VALUE: values <- [DW_OP_plus_uconst 24] [$rsp+0]
	#DEBUG_VALUE: loadColumnBlockData:vmesh <- [DW_OP_plus_uconst 56] [$rsp+0]
	#DEBUG_VALUE: loadColumnBlockData:blockContainer <- [DW_OP_plus_uconst 96] [$rsp+0]
	#DEBUG_VALUE: loadColumnBlockData:blocks <- [DW_OP_plus_uconst 104] [$rsp+0]
	#DEBUG_VALUE: loadColumnBlockData:dimension <- [DW_OP_plus_uconst 36] [$rsp+0]
	.loc	2 0 1 is_stmt 0         # vlasovsolver/../velocity_mesh_old.h:0:1
	movl	%r9d, %eax
	xorl	%edx, %edx
	divl	%ebx
	movl	%edx, %r8d
.Ltmp123:
.LBB0_39:                               #   in Loop: Header=BB0_37 Depth=1
	#DEBUG_VALUE:  <- [DW_OP_plus_uconst 56] [$rsp+0]
	#DEBUG_VALUE: getLocalID: <- [DW_OP_plus_uconst 56] [$rsp+0]
	#DEBUG_VALUE: block_k <- $r10
	#DEBUG_VALUE: loadColumnBlockData:n_blocks <- [DW_OP_plus_uconst 16] [$rsp+0]
	#DEBUG_VALUE: n_blocks <- [DW_OP_plus_uconst 16] [$rsp+0]
	#DEBUG_VALUE: loadColumnBlockData:values <- [DW_OP_plus_uconst 24] [$rsp+0]
	#DEBUG_VALUE: values <- [DW_OP_plus_uconst 24] [$rsp+0]
	#DEBUG_VALUE: loadColumnBlockData:vmesh <- [DW_OP_plus_uconst 56] [$rsp+0]
	#DEBUG_VALUE: loadColumnBlockData:blockContainer <- [DW_OP_plus_uconst 96] [$rsp+0]
	#DEBUG_VALUE: loadColumnBlockData:blocks <- [DW_OP_plus_uconst 104] [$rsp+0]
	#DEBUG_VALUE: loadColumnBlockData:dimension <- [DW_OP_plus_uconst 36] [$rsp+0]
	#DEBUG_VALUE: _M_find_before_node: <- [DW_OP_plus_uconst 56, DW_OP_deref_size 8, DW_OP_plus_uconst 32, DW_OP_stack_value] $rsp
	#DEBUG_VALUE:  <- [DW_OP_plus_uconst 56, DW_OP_deref_size 8, DW_OP_plus_uconst 32, DW_OP_stack_value] $rsp
	#DEBUG_VALUE: _M_find_before_node:__n <- $r8
	#DEBUG_VALUE: __n <- $r8
	#DEBUG_VALUE: _M_find_before_node:__code <- $r9
	#DEBUG_VALUE: __code <- $r9
	.loc	3 1538 1 is_stmt 1      # /usr/include/c++/9/bits/hashtable.h:1538:1
	movq	32(%rcx), %rax
	movq	(%rax,%r8,8), %rcx
.Ltmp124:
	#DEBUG_VALUE: __prev_p <- $rcx
	.loc	3 0 1 is_stmt 0         # /usr/include/c++/9/bits/hashtable.h:0:1
	movl	$-1, %r12d
	.loc	3 1539 1 is_stmt 1      # /usr/include/c++/9/bits/hashtable.h:1539:1
	testq	%rcx, %rcx
.Ltmp125:
	#DEBUG_VALUE: __k <- undef
	#DEBUG_VALUE: _M_find_before_node:__k <- undef
	je	.LBB0_49
.Ltmp126:
# %bb.40:                               # %L.B0098.i.i115
                                        #   in Loop: Header=BB0_37 Depth=1
	#DEBUG_VALUE: __prev_p <- $rcx
	#DEBUG_VALUE: __code <- $r9
	#DEBUG_VALUE: _M_find_before_node:__code <- $r9
	#DEBUG_VALUE: __n <- $r8
	#DEBUG_VALUE: _M_find_before_node:__n <- $r8
	#DEBUG_VALUE:  <- [DW_OP_plus_uconst 56, DW_OP_deref_size 8, DW_OP_plus_uconst 32, DW_OP_stack_value] $rsp
	#DEBUG_VALUE: _M_find_before_node: <- [DW_OP_plus_uconst 56, DW_OP_deref_size 8, DW_OP_plus_uconst 32, DW_OP_stack_value] $rsp
	#DEBUG_VALUE:  <- [DW_OP_plus_uconst 56] [$rsp+0]
	#DEBUG_VALUE: getLocalID: <- [DW_OP_plus_uconst 56] [$rsp+0]
	#DEBUG_VALUE: block_k <- $r10
	#DEBUG_VALUE: loadColumnBlockData:n_blocks <- [DW_OP_plus_uconst 16] [$rsp+0]
	#DEBUG_VALUE: n_blocks <- [DW_OP_plus_uconst 16] [$rsp+0]
	#DEBUG_VALUE: loadColumnBlockData:values <- [DW_OP_plus_uconst 24] [$rsp+0]
	#DEBUG_VALUE: values <- [DW_OP_plus_uconst 24] [$rsp+0]
	#DEBUG_VALUE: loadColumnBlockData:vmesh <- [DW_OP_plus_uconst 56] [$rsp+0]
	#DEBUG_VALUE: loadColumnBlockData:blockContainer <- [DW_OP_plus_uconst 96] [$rsp+0]
	#DEBUG_VALUE: loadColumnBlockData:blocks <- [DW_OP_plus_uconst 104] [$rsp+0]
	#DEBUG_VALUE: loadColumnBlockData:dimension <- [DW_OP_plus_uconst 36] [$rsp+0]
	#DEBUG_VALUE: __prev_p <- $rcx
	.loc	3 1542 1                # /usr/include/c++/9/bits/hashtable.h:1542:1
	movq	(%rcx), %rsi
.Ltmp127:
	#DEBUG_VALUE: __p <- $rsi
	.loc	3 1836 1                # /usr/include/c++/9/bits/hashtable.h:1836:1
	cmpl	8(%rsi), %r9d
	jne	.LBB0_41
.Ltmp128:
.LBB0_47:                               # %L..inline.34596.i122
                                        #   in Loop: Header=BB0_37 Depth=1
	#DEBUG_VALUE: __prev_p <- $rcx
	#DEBUG_VALUE: __code <- $r9
	#DEBUG_VALUE: _M_find_before_node:__code <- $r9
	#DEBUG_VALUE: __n <- $r8
	#DEBUG_VALUE: _M_find_before_node:__n <- $r8
	#DEBUG_VALUE:  <- [DW_OP_plus_uconst 56, DW_OP_deref_size 8, DW_OP_plus_uconst 32, DW_OP_stack_value] $rsp
	#DEBUG_VALUE: _M_find_before_node: <- [DW_OP_plus_uconst 56, DW_OP_deref_size 8, DW_OP_plus_uconst 32, DW_OP_stack_value] $rsp
	#DEBUG_VALUE:  <- [DW_OP_plus_uconst 56] [$rsp+0]
	#DEBUG_VALUE: getLocalID: <- [DW_OP_plus_uconst 56] [$rsp+0]
	#DEBUG_VALUE: block_k <- $r10
	#DEBUG_VALUE: loadColumnBlockData:n_blocks <- [DW_OP_plus_uconst 16] [$rsp+0]
	#DEBUG_VALUE: n_blocks <- [DW_OP_plus_uconst 16] [$rsp+0]
	#DEBUG_VALUE: loadColumnBlockData:values <- [DW_OP_plus_uconst 24] [$rsp+0]
	#DEBUG_VALUE: values <- [DW_OP_plus_uconst 24] [$rsp+0]
	#DEBUG_VALUE: loadColumnBlockData:vmesh <- [DW_OP_plus_uconst 56] [$rsp+0]
	#DEBUG_VALUE: loadColumnBlockData:blockContainer <- [DW_OP_plus_uconst 96] [$rsp+0]
	#DEBUG_VALUE: loadColumnBlockData:blocks <- [DW_OP_plus_uconst 104] [$rsp+0]
	#DEBUG_VALUE: loadColumnBlockData:dimension <- [DW_OP_plus_uconst 36] [$rsp+0]
	#DEBUG_VALUE: __prev_p <- $rcx
	.loc	2 925 1                 # vlasovsolver/../velocity_mesh_old.h:925:1
	movq	(%rcx), %rax
	testq	%rax, %rax
.Ltmp129:
	#DEBUG_VALUE: ...._T38286072_19052.__b_NSt8__detail19_Node_iterator_baseISt4pairIKjjELb0EEE._M_cur <- 0
	#DEBUG_VALUE: ......inline.__b_NSt8__detail19_Node_iterator_baseISt4pairIKjjELb0EEE._M_cur <- 0
	#DEBUG_VALUE: it <- undef
	.loc	2 314 1                 # vlasovsolver/../velocity_mesh_old.h:314:1
	je	.LBB0_49
.Ltmp130:
# %bb.48:                               # %L.B1096.i123
                                        #   in Loop: Header=BB0_37 Depth=1
	#DEBUG_VALUE: ......inline.__b_NSt8__detail19_Node_iterator_baseISt4pairIKjjELb0EEE._M_cur <- 0
	#DEBUG_VALUE: ...._T38286072_19052.__b_NSt8__detail19_Node_iterator_baseISt4pairIKjjELb0EEE._M_cur <- 0
	#DEBUG_VALUE:  <- [DW_OP_plus_uconst 56] [$rsp+0]
	#DEBUG_VALUE: getLocalID: <- [DW_OP_plus_uconst 56] [$rsp+0]
	#DEBUG_VALUE: block_k <- $r10
	#DEBUG_VALUE: loadColumnBlockData:n_blocks <- [DW_OP_plus_uconst 16] [$rsp+0]
	#DEBUG_VALUE: n_blocks <- [DW_OP_plus_uconst 16] [$rsp+0]
	#DEBUG_VALUE: loadColumnBlockData:values <- [DW_OP_plus_uconst 24] [$rsp+0]
	#DEBUG_VALUE: values <- [DW_OP_plus_uconst 24] [$rsp+0]
	#DEBUG_VALUE: loadColumnBlockData:vmesh <- [DW_OP_plus_uconst 56] [$rsp+0]
	#DEBUG_VALUE: loadColumnBlockData:blockContainer <- [DW_OP_plus_uconst 96] [$rsp+0]
	#DEBUG_VALUE: loadColumnBlockData:blocks <- [DW_OP_plus_uconst 104] [$rsp+0]
	#DEBUG_VALUE: loadColumnBlockData:dimension <- [DW_OP_plus_uconst 36] [$rsp+0]
	.loc	2 401 1                 # vlasovsolver/../velocity_mesh_old.h:401:1
	movl	12(%rax), %r12d
	jmp	.LBB0_49
.Ltmp131:
	.p2align	4, 0x90
.LBB0_41:                               # %L.B0101.i.i117
                                        #   Parent Loop BB0_37 Depth=1
                                        # =>  This Inner Loop Header: Depth=2
	#DEBUG_VALUE: __p <- $rsi
	#DEBUG_VALUE: __code <- $r9
	#DEBUG_VALUE: _M_find_before_node:__code <- $r9
	#DEBUG_VALUE: __n <- $r8
	#DEBUG_VALUE: _M_find_before_node:__n <- $r8
	#DEBUG_VALUE:  <- [DW_OP_plus_uconst 56, DW_OP_deref_size 8, DW_OP_plus_uconst 32, DW_OP_stack_value] $rsp
	#DEBUG_VALUE: _M_find_before_node: <- [DW_OP_plus_uconst 56, DW_OP_deref_size 8, DW_OP_plus_uconst 32, DW_OP_stack_value] $rsp
	#DEBUG_VALUE:  <- [DW_OP_plus_uconst 56] [$rsp+0]
	#DEBUG_VALUE: getLocalID: <- [DW_OP_plus_uconst 56] [$rsp+0]
	#DEBUG_VALUE: block_k <- $r10
	#DEBUG_VALUE: loadColumnBlockData:n_blocks <- [DW_OP_plus_uconst 16] [$rsp+0]
	#DEBUG_VALUE: n_blocks <- [DW_OP_plus_uconst 16] [$rsp+0]
	#DEBUG_VALUE: loadColumnBlockData:values <- [DW_OP_plus_uconst 24] [$rsp+0]
	#DEBUG_VALUE: values <- [DW_OP_plus_uconst 24] [$rsp+0]
	#DEBUG_VALUE: loadColumnBlockData:vmesh <- [DW_OP_plus_uconst 56] [$rsp+0]
	#DEBUG_VALUE: loadColumnBlockData:blockContainer <- [DW_OP_plus_uconst 96] [$rsp+0]
	#DEBUG_VALUE: loadColumnBlockData:blocks <- [DW_OP_plus_uconst 104] [$rsp+0]
	#DEBUG_VALUE: loadColumnBlockData:dimension <- [DW_OP_plus_uconst 36] [$rsp+0]
	.loc	2 0 1 is_stmt 0         # vlasovsolver/../velocity_mesh_old.h:0:1
	movq	%rsi, %rcx
.Ltmp132:
	#DEBUG_VALUE: __p <- $rcx
	.loc	3 1548 1 is_stmt 1      # /usr/include/c++/9/bits/hashtable.h:1548:1
	movq	(%rsi), %rsi
	testq	%rsi, %rsi
	je	.LBB0_49
.Ltmp133:
# %bb.42:                               # %L.B0959.i.i118
                                        #   in Loop: Header=BB0_41 Depth=2
	#DEBUG_VALUE: __code <- $r9
	#DEBUG_VALUE: _M_find_before_node:__code <- $r9
	#DEBUG_VALUE: __n <- $r8
	#DEBUG_VALUE: _M_find_before_node:__n <- $r8
	#DEBUG_VALUE:  <- [DW_OP_plus_uconst 56, DW_OP_deref_size 8, DW_OP_plus_uconst 32, DW_OP_stack_value] $rsp
	#DEBUG_VALUE: _M_find_before_node: <- [DW_OP_plus_uconst 56, DW_OP_deref_size 8, DW_OP_plus_uconst 32, DW_OP_stack_value] $rsp
	#DEBUG_VALUE:  <- [DW_OP_plus_uconst 56] [$rsp+0]
	#DEBUG_VALUE: getLocalID: <- [DW_OP_plus_uconst 56] [$rsp+0]
	#DEBUG_VALUE: block_k <- $r10
	#DEBUG_VALUE: loadColumnBlockData:n_blocks <- [DW_OP_plus_uconst 16] [$rsp+0]
	#DEBUG_VALUE: n_blocks <- [DW_OP_plus_uconst 16] [$rsp+0]
	#DEBUG_VALUE: loadColumnBlockData:values <- [DW_OP_plus_uconst 24] [$rsp+0]
	#DEBUG_VALUE: values <- [DW_OP_plus_uconst 24] [$rsp+0]
	#DEBUG_VALUE: loadColumnBlockData:vmesh <- [DW_OP_plus_uconst 56] [$rsp+0]
	#DEBUG_VALUE: loadColumnBlockData:blockContainer <- [DW_OP_plus_uconst 96] [$rsp+0]
	#DEBUG_VALUE: loadColumnBlockData:blocks <- [DW_OP_plus_uconst 104] [$rsp+0]
	#DEBUG_VALUE: loadColumnBlockData:dimension <- [DW_OP_plus_uconst 36] [$rsp+0]
	.loc	3 640 1                 # /usr/include/c++/9/bits/hashtable.h:640:1
	movl	8(%rsi), %edi
	movq	%rdi, %rdx
	cmpq	%rbx, %rdi
	jb	.LBB0_44
.Ltmp134:
# %bb.43:                               #   in Loop: Header=BB0_41 Depth=2
	#DEBUG_VALUE: __code <- $r9
	#DEBUG_VALUE: _M_find_before_node:__code <- $r9
	#DEBUG_VALUE: __n <- $r8
	#DEBUG_VALUE: _M_find_before_node:__n <- $r8
	#DEBUG_VALUE:  <- [DW_OP_plus_uconst 56, DW_OP_deref_size 8, DW_OP_plus_uconst 32, DW_OP_stack_value] $rsp
	#DEBUG_VALUE: _M_find_before_node: <- [DW_OP_plus_uconst 56, DW_OP_deref_size 8, DW_OP_plus_uconst 32, DW_OP_stack_value] $rsp
	#DEBUG_VALUE:  <- [DW_OP_plus_uconst 56] [$rsp+0]
	#DEBUG_VALUE: getLocalID: <- [DW_OP_plus_uconst 56] [$rsp+0]
	#DEBUG_VALUE: block_k <- $r10
	#DEBUG_VALUE: loadColumnBlockData:n_blocks <- [DW_OP_plus_uconst 16] [$rsp+0]
	#DEBUG_VALUE: n_blocks <- [DW_OP_plus_uconst 16] [$rsp+0]
	#DEBUG_VALUE: loadColumnBlockData:values <- [DW_OP_plus_uconst 24] [$rsp+0]
	#DEBUG_VALUE: values <- [DW_OP_plus_uconst 24] [$rsp+0]
	#DEBUG_VALUE: loadColumnBlockData:vmesh <- [DW_OP_plus_uconst 56] [$rsp+0]
	#DEBUG_VALUE: loadColumnBlockData:blockContainer <- [DW_OP_plus_uconst 96] [$rsp+0]
	#DEBUG_VALUE: loadColumnBlockData:blocks <- [DW_OP_plus_uconst 104] [$rsp+0]
	#DEBUG_VALUE: loadColumnBlockData:dimension <- [DW_OP_plus_uconst 36] [$rsp+0]
	.loc	3 0 1 is_stmt 0         # /usr/include/c++/9/bits/hashtable.h:0:1
	movl	%edi, %eax
	xorl	%edx, %edx
	divl	%ebx
                                        # kill: def $edx killed $edx def $rdx
.Ltmp135:
.LBB0_44:                               #   in Loop: Header=BB0_41 Depth=2
	#DEBUG_VALUE: __code <- $r9
	#DEBUG_VALUE: _M_find_before_node:__code <- $r9
	#DEBUG_VALUE: __n <- $r8
	#DEBUG_VALUE: _M_find_before_node:__n <- $r8
	#DEBUG_VALUE:  <- [DW_OP_plus_uconst 56, DW_OP_deref_size 8, DW_OP_plus_uconst 32, DW_OP_stack_value] $rsp
	#DEBUG_VALUE: _M_find_before_node: <- [DW_OP_plus_uconst 56, DW_OP_deref_size 8, DW_OP_plus_uconst 32, DW_OP_stack_value] $rsp
	#DEBUG_VALUE:  <- [DW_OP_plus_uconst 56] [$rsp+0]
	#DEBUG_VALUE: getLocalID: <- [DW_OP_plus_uconst 56] [$rsp+0]
	#DEBUG_VALUE: block_k <- $r10
	#DEBUG_VALUE: loadColumnBlockData:n_blocks <- [DW_OP_plus_uconst 16] [$rsp+0]
	#DEBUG_VALUE: n_blocks <- [DW_OP_plus_uconst 16] [$rsp+0]
	#DEBUG_VALUE: loadColumnBlockData:values <- [DW_OP_plus_uconst 24] [$rsp+0]
	#DEBUG_VALUE: values <- [DW_OP_plus_uconst 24] [$rsp+0]
	#DEBUG_VALUE: loadColumnBlockData:vmesh <- [DW_OP_plus_uconst 56] [$rsp+0]
	#DEBUG_VALUE: loadColumnBlockData:blockContainer <- [DW_OP_plus_uconst 96] [$rsp+0]
	#DEBUG_VALUE: loadColumnBlockData:blocks <- [DW_OP_plus_uconst 104] [$rsp+0]
	#DEBUG_VALUE: loadColumnBlockData:dimension <- [DW_OP_plus_uconst 36] [$rsp+0]
	.loc	3 640 1                 # /usr/include/c++/9/bits/hashtable.h:640:1
	cmpq	%r8, %rdx
	jne	.LBB0_49
.Ltmp136:
# %bb.45:                               # %L.B0102.i.i119
                                        #   in Loop: Header=BB0_41 Depth=2
	#DEBUG_VALUE: __code <- $r9
	#DEBUG_VALUE: _M_find_before_node:__code <- $r9
	#DEBUG_VALUE: __n <- $r8
	#DEBUG_VALUE: _M_find_before_node:__n <- $r8
	#DEBUG_VALUE:  <- [DW_OP_plus_uconst 56, DW_OP_deref_size 8, DW_OP_plus_uconst 32, DW_OP_stack_value] $rsp
	#DEBUG_VALUE: _M_find_before_node: <- [DW_OP_plus_uconst 56, DW_OP_deref_size 8, DW_OP_plus_uconst 32, DW_OP_stack_value] $rsp
	#DEBUG_VALUE:  <- [DW_OP_plus_uconst 56] [$rsp+0]
	#DEBUG_VALUE: getLocalID: <- [DW_OP_plus_uconst 56] [$rsp+0]
	#DEBUG_VALUE: block_k <- $r10
	#DEBUG_VALUE: loadColumnBlockData:n_blocks <- [DW_OP_plus_uconst 16] [$rsp+0]
	#DEBUG_VALUE: n_blocks <- [DW_OP_plus_uconst 16] [$rsp+0]
	#DEBUG_VALUE: loadColumnBlockData:values <- [DW_OP_plus_uconst 24] [$rsp+0]
	#DEBUG_VALUE: values <- [DW_OP_plus_uconst 24] [$rsp+0]
	#DEBUG_VALUE: loadColumnBlockData:vmesh <- [DW_OP_plus_uconst 56] [$rsp+0]
	#DEBUG_VALUE: loadColumnBlockData:blockContainer <- [DW_OP_plus_uconst 96] [$rsp+0]
	#DEBUG_VALUE: loadColumnBlockData:blocks <- [DW_OP_plus_uconst 104] [$rsp+0]
	#DEBUG_VALUE: loadColumnBlockData:dimension <- [DW_OP_plus_uconst 36] [$rsp+0]
	#DEBUG_VALUE: __p <- $rsi
	.loc	3 1836 1 is_stmt 1      # /usr/include/c++/9/bits/hashtable.h:1836:1
	cmpl	%edi, %r9d
	jne	.LBB0_41
.Ltmp137:
# %bb.46:                               # %_ZNKSt10_HashtableIjSt4pairIKjjESaIS2_ENSt8__detail10_Select1stESt8equal_toIjESt4hashIjENS4_18_Mod_range_hashingENS4_20_Default_ranged_hashENS4_20_Prime_rehash_policyENS4_17_Hashtable_traitsILb0ELb0ELb1EEEE19_M_find_before_nodeEmRS1_m.exit.i120
                                        #   in Loop: Header=BB0_37 Depth=1
	#DEBUG_VALUE: __p <- $rsi
	#DEBUG_VALUE: __code <- $r9
	#DEBUG_VALUE: _M_find_before_node:__code <- $r9
	#DEBUG_VALUE: __n <- $r8
	#DEBUG_VALUE: _M_find_before_node:__n <- $r8
	#DEBUG_VALUE:  <- [DW_OP_plus_uconst 56, DW_OP_deref_size 8, DW_OP_plus_uconst 32, DW_OP_stack_value] $rsp
	#DEBUG_VALUE: _M_find_before_node: <- [DW_OP_plus_uconst 56, DW_OP_deref_size 8, DW_OP_plus_uconst 32, DW_OP_stack_value] $rsp
	#DEBUG_VALUE:  <- [DW_OP_plus_uconst 56] [$rsp+0]
	#DEBUG_VALUE: getLocalID: <- [DW_OP_plus_uconst 56] [$rsp+0]
	#DEBUG_VALUE: block_k <- $r10
	#DEBUG_VALUE: loadColumnBlockData:n_blocks <- [DW_OP_plus_uconst 16] [$rsp+0]
	#DEBUG_VALUE: n_blocks <- [DW_OP_plus_uconst 16] [$rsp+0]
	#DEBUG_VALUE: loadColumnBlockData:values <- [DW_OP_plus_uconst 24] [$rsp+0]
	#DEBUG_VALUE: values <- [DW_OP_plus_uconst 24] [$rsp+0]
	#DEBUG_VALUE: loadColumnBlockData:vmesh <- [DW_OP_plus_uconst 56] [$rsp+0]
	#DEBUG_VALUE: loadColumnBlockData:blockContainer <- [DW_OP_plus_uconst 96] [$rsp+0]
	#DEBUG_VALUE: loadColumnBlockData:blocks <- [DW_OP_plus_uconst 104] [$rsp+0]
	#DEBUG_VALUE: loadColumnBlockData:dimension <- [DW_OP_plus_uconst 36] [$rsp+0]
	#DEBUG_VALUE: __prev_p <- $rcx
	#DEBUG_VALUE: __p <- $rcx
	.loc	2 925 1                 # vlasovsolver/../velocity_mesh_old.h:925:1
	testq	%rcx, %rcx
	jne	.LBB0_47
	jmp	.LBB0_49
.Ltmp138:
.LBB0_50:                               # %L.B0070
	#DEBUG_VALUE: loadColumnBlockData:n_blocks <- [DW_OP_plus_uconst 16] [$rsp+0]
	#DEBUG_VALUE: n_blocks <- [DW_OP_plus_uconst 16] [$rsp+0]
	#DEBUG_VALUE: loadColumnBlockData:values <- [DW_OP_plus_uconst 24] [$rsp+0]
	#DEBUG_VALUE: values <- [DW_OP_plus_uconst 24] [$rsp+0]
	#DEBUG_VALUE: loadColumnBlockData:vmesh <- [DW_OP_plus_uconst 56] [$rsp+0]
	#DEBUG_VALUE: loadColumnBlockData:blockContainer <- [DW_OP_plus_uconst 96] [$rsp+0]
	#DEBUG_VALUE: loadColumnBlockData:blocks <- [DW_OP_plus_uconst 104] [$rsp+0]
	#DEBUG_VALUE: loadColumnBlockData:dimension <- [DW_OP_plus_uconst 36] [$rsp+0]
	.loc	1 361 1                 # vlasovsolver/cpu_acc_load_blocks.cpp:361:1
	leaq	-40(%rbp), %rsp
.Ltmp139:
	popq	%rbx
	popq	%r12
	popq	%r13
	popq	%r14
	popq	%r15
	popq	%rbp
	.cfi_def_cfa %rsp, 8
	retq
.Ltmp140:
.Lfunc_end0:
	.size	_Z19loadColumnBlockDataRKN5vmesh12VelocityMeshIjjEERNS_22VelocityBlockContainerIjEEPjjiP10Vec8SimpleIfE, .Lfunc_end0-_Z19loadColumnBlockDataRKN5vmesh12VelocityMeshIjjEERNS_22VelocityBlockContainerIjEEPjjiP10Vec8SimpleIfE
	.cfi_endproc
                                        # -- End function
	.weak	_ZNSt6vectorIN5vmesh14MeshParametersESaIS1_EED1Ev # -- Begin function _ZNSt6vectorIN5vmesh14MeshParametersESaIS1_EED1Ev
	.p2align	4, 0x90
	.type	_ZNSt6vectorIN5vmesh14MeshParametersESaIS1_EED1Ev,@function
_ZNSt6vectorIN5vmesh14MeshParametersESaIS1_EED1Ev: # @_ZNSt6vectorIN5vmesh14MeshParametersESaIS1_EED1Ev
.Lfunc_begin1:
	.file	4 "/usr/include/c++/9/bits/stl_vector.h"
	.loc	4 676 0                 # /usr/include/c++/9/bits/stl_vector.h:676:0
	.cfi_startproc
# %bb.0:                                # %L.entry
	#DEBUG_VALUE: ~vector: <- $rdi
	#DEBUG_VALUE: ~vector: <- $rdi
	pushq	%rbp
	.cfi_def_cfa_offset 16
	.cfi_offset %rbp, -16
	movq	%rsp, %rbp
	.cfi_def_cfa_register %rbp
.Ltmp141:
	pushq	%r15
	pushq	%r14
	pushq	%rbx
	pushq	%rax
	.cfi_offset %rbx, -40
	.cfi_offset %r14, -32
	.cfi_offset %r15, -24
.Ltmp142:
	#DEBUG_VALUE:  <- $rdi
	#DEBUG_VALUE:  <- $rdi
	.loc	4 206 1 prologue_end    # /usr/include/c++/9/bits/stl_vector.h:206:1
	movq	(%rdi), %rbx
	movq	8(%rdi), %rsi
	cmpq	%rsi, %rbx
	je	.LBB1_14
.Ltmp143:
# %bb.1:                                # %L.B0922
	#DEBUG_VALUE:  <- $rdi
	#DEBUG_VALUE: ~vector: <- $rdi
	.loc	4 0 1 is_stmt 0         # /usr/include/c++/9/bits/stl_vector.h:0:1
	movq	%rdi, %r14
.Ltmp144:
	#DEBUG_VALUE: ~vector: <- $r14
	#DEBUG_VALUE:  <- $r14
	.loc	4 206 1                 # /usr/include/c++/9/bits/stl_vector.h:206:1
	subq	%rbx, %rsi
	leaq	335(%rsi), %rcx
	movabsq	$-4392081922311798003, %rdx # imm = 0xC30C30C30C30C30D
	movq	%rcx, %rax
	imulq	%rdx
	leaq	(%rsi,%rdx), %rax
	addq	$335, %rax              # imm = 0x14F
	sarq	$8, %rax
	sarq	$63, %rcx
	subq	%rcx, %rax
	imulq	$336, %rax, %r15        # imm = 0x150
	addq	%rbx, %r15
	jmp	.LBB1_2
.Ltmp145:
	.p2align	4, 0x90
.LBB1_12:                               # %_ZN5vmesh14MeshParametersD1Ev.exit
                                        #   in Loop: Header=BB1_2 Depth=1
	#DEBUG_VALUE:  <- $r14
	#DEBUG_VALUE: ~vector: <- $r14
	addq	$336, %rbx              # imm = 0x150
	cmpq	%r15, %rbx
	jae	.LBB1_13
.Ltmp146:
.LBB1_2:                                # %L..inline.31402
                                        # =>This Inner Loop Header: Depth=1
	#DEBUG_VALUE:  <- $r14
	#DEBUG_VALUE: ~vector: <- $r14
	#DEBUG_VALUE: ~MeshParameters: <- $rbx
	#DEBUG_VALUE:  <- $rbx
	.file	5 "/home/talgat/vlasiator/vlasovsolver/../velocity_mesh_parameters.h"
	.loc	5 680 1 is_stmt 1       # vlasovsolver/../velocity_mesh_parameters.h:680:1
	movq	312(%rbx), %rdi
	testq	%rdi, %rdi
	je	.LBB1_4
.Ltmp147:
# %bb.3:                                # %L.B1079.i
                                        #   in Loop: Header=BB1_2 Depth=1
	#DEBUG_VALUE:  <- $rbx
	#DEBUG_VALUE: ~MeshParameters: <- $rbx
	#DEBUG_VALUE:  <- $r14
	#DEBUG_VALUE: ~vector: <- $r14
	callq	_ZdlPv
.Ltmp148:
.LBB1_4:                                # %L..inline.34020.i
                                        #   in Loop: Header=BB1_2 Depth=1
	#DEBUG_VALUE:  <- $rbx
	#DEBUG_VALUE: ~MeshParameters: <- $rbx
	#DEBUG_VALUE:  <- $r14
	#DEBUG_VALUE: ~vector: <- $r14
	movq	288(%rbx), %rdi
	testq	%rdi, %rdi
	je	.LBB1_6
.Ltmp149:
# %bb.5:                                # %L.B1080.i
                                        #   in Loop: Header=BB1_2 Depth=1
	#DEBUG_VALUE:  <- $rbx
	#DEBUG_VALUE: ~MeshParameters: <- $rbx
	#DEBUG_VALUE:  <- $r14
	#DEBUG_VALUE: ~vector: <- $r14
	callq	_ZdlPv
.Ltmp150:
.LBB1_6:                                # %L..inline.34098.i
                                        #   in Loop: Header=BB1_2 Depth=1
	#DEBUG_VALUE:  <- $rbx
	#DEBUG_VALUE: ~MeshParameters: <- $rbx
	#DEBUG_VALUE:  <- $r14
	#DEBUG_VALUE: ~vector: <- $r14
	movq	264(%rbx), %rdi
	testq	%rdi, %rdi
	je	.LBB1_8
.Ltmp151:
# %bb.7:                                # %L.B1081.i
                                        #   in Loop: Header=BB1_2 Depth=1
	#DEBUG_VALUE:  <- $rbx
	#DEBUG_VALUE: ~MeshParameters: <- $rbx
	#DEBUG_VALUE:  <- $r14
	#DEBUG_VALUE: ~vector: <- $r14
	callq	_ZdlPv
.Ltmp152:
.LBB1_8:                                # %L..inline.34176.i
                                        #   in Loop: Header=BB1_2 Depth=1
	#DEBUG_VALUE:  <- $rbx
	#DEBUG_VALUE: ~MeshParameters: <- $rbx
	#DEBUG_VALUE:  <- $r14
	#DEBUG_VALUE: ~vector: <- $r14
	movq	240(%rbx), %rdi
	testq	%rdi, %rdi
	je	.LBB1_10
.Ltmp153:
# %bb.9:                                # %L.B1082.i
                                        #   in Loop: Header=BB1_2 Depth=1
	#DEBUG_VALUE:  <- $rbx
	#DEBUG_VALUE: ~MeshParameters: <- $rbx
	#DEBUG_VALUE:  <- $r14
	#DEBUG_VALUE: ~vector: <- $r14
	callq	_ZdlPv
.Ltmp154:
.LBB1_10:                               # %L..inline.34254.i
                                        #   in Loop: Header=BB1_2 Depth=1
	#DEBUG_VALUE:  <- $rbx
	#DEBUG_VALUE: ~MeshParameters: <- $rbx
	#DEBUG_VALUE:  <- $r14
	#DEBUG_VALUE: ~vector: <- $r14
	.loc	5 658 1                 # vlasovsolver/../velocity_mesh_parameters.h:658:1
	movq	(%rbx), %rdi
	leaq	16(%rbx), %rax
	cmpq	%rdi, %rax
	je	.LBB1_12
.Ltmp155:
# %bb.11:                               # %L.B1083.i
                                        #   in Loop: Header=BB1_2 Depth=1
	#DEBUG_VALUE:  <- $rbx
	#DEBUG_VALUE: ~MeshParameters: <- $rbx
	#DEBUG_VALUE:  <- $r14
	#DEBUG_VALUE: ~vector: <- $r14
	callq	_ZdlPv
	jmp	.LBB1_12
.Ltmp156:
.LBB1_13:                               # %L..inline.31403thread-pre-split
	#DEBUG_VALUE:  <- $r14
	#DEBUG_VALUE: ~vector: <- $r14
	.loc	4 332 1                 # /usr/include/c++/9/bits/stl_vector.h:332:1
	movq	(%r14), %rbx
.Ltmp157:
.LBB1_14:                               # %L..inline.31403
	testq	%rbx, %rbx
	je	.LBB1_15
# %bb.16:                               # %L.B0923
	movq	%rbx, %rdi
	addq	$8, %rsp
	popq	%rbx
	popq	%r14
	popq	%r15
	popq	%rbp
	.cfi_def_cfa %rsp, 8
	jmp	_ZdlPv                  # TAILCALL
.LBB1_15:                               # %L..inline.31435
	.cfi_def_cfa %rbp, 16
	.loc	4 680 1                 # /usr/include/c++/9/bits/stl_vector.h:680:1
	addq	$8, %rsp
	popq	%rbx
	popq	%r14
	popq	%r15
	popq	%rbp
	.cfi_def_cfa %rsp, 8
	retq
.Ltmp158:
.Lfunc_end1:
	.size	_ZNSt6vectorIN5vmesh14MeshParametersESaIS1_EED1Ev, .Lfunc_end1-_ZNSt6vectorIN5vmesh14MeshParametersESaIS1_EED1Ev
	.cfi_endproc
                                        # -- End function
	.weak	_ZN3MPI8DatatypeD1Ev    # -- Begin function _ZN3MPI8DatatypeD1Ev
	.p2align	4, 0x90
	.type	_ZN3MPI8DatatypeD1Ev,@function
_ZN3MPI8DatatypeD1Ev:                   # @_ZN3MPI8DatatypeD1Ev
.Lfunc_begin2:
	.file	6 "/usr/lib/x86_64-linux-gnu/openmpi/include/openmpi/ompi/mpi/cxx/datatype.h"
	.loc	6 70 0                  # /usr/lib/x86_64-linux-gnu/openmpi/include/openmpi/ompi/mpi/cxx/datatype.h:70:0
	.cfi_startproc
# %bb.0:                                # %L.entry
	#DEBUG_VALUE: ~Datatype: <- $rdi
	#DEBUG_VALUE: ~Datatype: <- $rdi
	pushq	%rbp
	.cfi_def_cfa_offset 16
	.cfi_offset %rbp, -16
	movq	%rsp, %rbp
	.cfi_def_cfa_register %rbp
.Ltmp159:
	#DEBUG_VALUE:  <- $rdi
	#DEBUG_VALUE:  <- $rdi
	.loc	6 70 1 prologue_end     # /usr/lib/x86_64-linux-gnu/openmpi/include/openmpi/ompi/mpi/cxx/datatype.h:70:1
	movq	$_ZTVN3MPI8DatatypeE+16, (%rdi)
	popq	%rbp
	.cfi_def_cfa %rsp, 8
	retq
.Ltmp160:
.Lfunc_end2:
	.size	_ZN3MPI8DatatypeD1Ev, .Lfunc_end2-_ZN3MPI8DatatypeD1Ev
	.cfi_endproc
                                        # -- End function
	.weak	_ZN3MPI8DatatypeD0Ev    # -- Begin function _ZN3MPI8DatatypeD0Ev
	.p2align	4, 0x90
	.type	_ZN3MPI8DatatypeD0Ev,@function
_ZN3MPI8DatatypeD0Ev:                   # @_ZN3MPI8DatatypeD0Ev
.Lfunc_begin3:
	.loc	1 0 0                   # vlasovsolver/cpu_acc_load_blocks.cpp:0:0
	.cfi_startproc
# %bb.0:                                # %L.entry
	pushq	%rbp
	.cfi_def_cfa_offset 16
	.cfi_offset %rbp, -16
	movq	%rsp, %rbp
	.cfi_def_cfa_register %rbp
.Ltmp161:
	.loc	1 70 1 prologue_end     # vlasovsolver/cpu_acc_load_blocks.cpp:70:1
	movl	$16, %esi
	popq	%rbp
	.cfi_def_cfa %rsp, 8
	jmp	_ZdlPvm                 # TAILCALL
.Ltmp162:
.Lfunc_end3:
	.size	_ZN3MPI8DatatypeD0Ev, .Lfunc_end3-_ZN3MPI8DatatypeD0Ev
	.cfi_endproc
                                        # -- End function
	.weak	_ZNK3MPI8Datatype17Create_contiguousEi # -- Begin function _ZNK3MPI8Datatype17Create_contiguousEi
	.p2align	4, 0x90
	.type	_ZNK3MPI8Datatype17Create_contiguousEi,@function
_ZNK3MPI8Datatype17Create_contiguousEi: # @_ZNK3MPI8Datatype17Create_contiguousEi
.Lfunc_begin4:
	.file	7 "/usr/lib/x86_64-linux-gnu/openmpi/include/openmpi/ompi/mpi/cxx/datatype_inln.h"
	.loc	7 30 0                  # /usr/lib/x86_64-linux-gnu/openmpi/include/openmpi/ompi/mpi/cxx/datatype_inln.h:30:0
	.cfi_startproc
# %bb.0:                                # %L.entry
	#DEBUG_VALUE: Create_contiguous: <- $rsi
	#DEBUG_VALUE: Create_contiguous:count <- $edx
	pushq	%rbp
	.cfi_def_cfa_offset 16
	.cfi_offset %rbp, -16
	movq	%rsp, %rbp
	.cfi_def_cfa_register %rbp
	pushq	%rbx
	pushq	%rax
	.cfi_offset %rbx, -24
	movl	%edx, %eax
	movq	%rdi, %rbx
.Ltmp163:
	#DEBUG_VALUE:  <- $rsi
	#DEBUG_VALUE: count <- $eax
	#DEBUG_VALUE: Create_contiguous:count <- $eax
	#DEBUG_VALUE: Create_contiguous: <- $rsi
	.loc	7 32 1 prologue_end     # /usr/lib/x86_64-linux-gnu/openmpi/include/openmpi/ompi/mpi/cxx/datatype_inln.h:32:1
	movq	8(%rsi), %rsi
.Ltmp164:
	#DEBUG_VALUE: newtype <- [DW_OP_constu 16, DW_OP_minus, DW_OP_deref] $rbp
	.loc	7 0 1 is_stmt 0         # /usr/lib/x86_64-linux-gnu/openmpi/include/openmpi/ompi/mpi/cxx/datatype_inln.h:0:1
	leaq	-16(%rbp), %rdx
	.loc	7 32 1                  # /usr/lib/x86_64-linux-gnu/openmpi/include/openmpi/ompi/mpi/cxx/datatype_inln.h:32:1
	movl	%eax, %edi
.Ltmp165:
	#DEBUG_VALUE: Create_contiguous:count <- $edi
	callq	MPI_Type_contiguous
.Ltmp166:
	.loc	7 33 1 is_stmt 1        # /usr/lib/x86_64-linux-gnu/openmpi/include/openmpi/ompi/mpi/cxx/datatype_inln.h:33:1
	movq	-16(%rbp), %rax
.Ltmp167:
	#DEBUG_VALUE: newtype <- undef
	movq	$_ZTVN3MPI8DatatypeE+16, (%rbx)
	.loc	7 72 1                  # /usr/lib/x86_64-linux-gnu/openmpi/include/openmpi/ompi/mpi/cxx/datatype_inln.h:72:1
	movq	%rax, 8(%rbx)
	.loc	7 34 1                  # /usr/lib/x86_64-linux-gnu/openmpi/include/openmpi/ompi/mpi/cxx/datatype_inln.h:34:1
	movq	%rbx, %rax
	addq	$8, %rsp
	popq	%rbx
	popq	%rbp
	.cfi_def_cfa %rsp, 8
	retq
.Ltmp168:
.Lfunc_end4:
	.size	_ZNK3MPI8Datatype17Create_contiguousEi, .Lfunc_end4-_ZNK3MPI8Datatype17Create_contiguousEi
	.cfi_endproc
                                        # -- End function
	.weak	_ZNK3MPI8Datatype13Create_vectorEiii # -- Begin function _ZNK3MPI8Datatype13Create_vectorEiii
	.p2align	4, 0x90
	.type	_ZNK3MPI8Datatype13Create_vectorEiii,@function
_ZNK3MPI8Datatype13Create_vectorEiii:   # @_ZNK3MPI8Datatype13Create_vectorEiii
.Lfunc_begin5:
	.loc	7 39 0                  # /usr/lib/x86_64-linux-gnu/openmpi/include/openmpi/ompi/mpi/cxx/datatype_inln.h:39:0
	.cfi_startproc
# %bb.0:                                # %L.entry
	#DEBUG_VALUE: Create_vector: <- $rsi
	#DEBUG_VALUE: Create_vector:count <- $edx
	#DEBUG_VALUE: Create_vector:blocklength <- $ecx
	#DEBUG_VALUE: Create_vector:stride <- $r8d
	pushq	%rbp
	.cfi_def_cfa_offset 16
	.cfi_offset %rbp, -16
	movq	%rsp, %rbp
	.cfi_def_cfa_register %rbp
	pushq	%rbx
	pushq	%rax
	.cfi_offset %rbx, -24
	movl	%r8d, %r9d
	movq	%rdi, %rbx
.Ltmp169:
	#DEBUG_VALUE:  <- $rsi
	#DEBUG_VALUE: stride <- $r9d
	#DEBUG_VALUE: blocklength <- $ecx
	#DEBUG_VALUE: count <- $edx
	#DEBUG_VALUE: Create_vector:stride <- $r9d
	#DEBUG_VALUE: Create_vector:blocklength <- $ecx
	#DEBUG_VALUE: Create_vector:count <- $edx
	#DEBUG_VALUE: Create_vector: <- $rsi
	.loc	7 41 1 prologue_end     # /usr/lib/x86_64-linux-gnu/openmpi/include/openmpi/ompi/mpi/cxx/datatype_inln.h:41:1
	movq	8(%rsi), %rax
.Ltmp170:
	#DEBUG_VALUE: newtype <- [DW_OP_constu 16, DW_OP_minus, DW_OP_deref] $rbp
	.loc	7 0 1 is_stmt 0         # /usr/lib/x86_64-linux-gnu/openmpi/include/openmpi/ompi/mpi/cxx/datatype_inln.h:0:1
	leaq	-16(%rbp), %r8
	.loc	7 41 1                  # /usr/lib/x86_64-linux-gnu/openmpi/include/openmpi/ompi/mpi/cxx/datatype_inln.h:41:1
	movl	%edx, %edi
.Ltmp171:
	#DEBUG_VALUE: Create_vector:count <- $edi
	movl	%ecx, %esi
.Ltmp172:
	#DEBUG_VALUE: Create_vector:blocklength <- $esi
	movl	%r9d, %edx
.Ltmp173:
	#DEBUG_VALUE: Create_vector:stride <- $edx
	movq	%rax, %rcx
.Ltmp174:
	callq	MPI_Type_vector
.Ltmp175:
	.loc	7 42 1 is_stmt 1        # /usr/lib/x86_64-linux-gnu/openmpi/include/openmpi/ompi/mpi/cxx/datatype_inln.h:42:1
	movq	-16(%rbp), %rax
.Ltmp176:
	#DEBUG_VALUE: newtype <- undef
	movq	$_ZTVN3MPI8DatatypeE+16, (%rbx)
	.loc	7 72 1                  # /usr/lib/x86_64-linux-gnu/openmpi/include/openmpi/ompi/mpi/cxx/datatype_inln.h:72:1
	movq	%rax, 8(%rbx)
	.loc	7 43 1                  # /usr/lib/x86_64-linux-gnu/openmpi/include/openmpi/ompi/mpi/cxx/datatype_inln.h:43:1
	movq	%rbx, %rax
	addq	$8, %rsp
	popq	%rbx
	popq	%rbp
	.cfi_def_cfa %rsp, 8
	retq
.Ltmp177:
.Lfunc_end5:
	.size	_ZNK3MPI8Datatype13Create_vectorEiii, .Lfunc_end5-_ZNK3MPI8Datatype13Create_vectorEiii
	.cfi_endproc
                                        # -- End function
	.weak	_ZNK3MPI8Datatype14Create_indexedEiPKiS2_ # -- Begin function _ZNK3MPI8Datatype14Create_indexedEiPKiS2_
	.p2align	4, 0x90
	.type	_ZNK3MPI8Datatype14Create_indexedEiPKiS2_,@function
_ZNK3MPI8Datatype14Create_indexedEiPKiS2_: # @_ZNK3MPI8Datatype14Create_indexedEiPKiS2_
.Lfunc_begin6:
	.loc	7 49 0                  # /usr/lib/x86_64-linux-gnu/openmpi/include/openmpi/ompi/mpi/cxx/datatype_inln.h:49:0
	.cfi_startproc
# %bb.0:                                # %L.entry
	#DEBUG_VALUE: Create_indexed: <- $rsi
	#DEBUG_VALUE: Create_indexed:count <- $edx
	#DEBUG_VALUE: Create_indexed:array_of_blocklengths <- $rcx
	#DEBUG_VALUE: Create_indexed:array_of_displacements <- $r8
	pushq	%rbp
	.cfi_def_cfa_offset 16
	.cfi_offset %rbp, -16
	movq	%rsp, %rbp
	.cfi_def_cfa_register %rbp
	pushq	%rbx
	pushq	%rax
	.cfi_offset %rbx, -24
	movq	%r8, %r9
	movq	%rdi, %rbx
.Ltmp178:
	#DEBUG_VALUE:  <- $rsi
	#DEBUG_VALUE: array_of_displacements <- $r9
	#DEBUG_VALUE: array_of_blocklengths <- $rcx
	#DEBUG_VALUE: count <- $edx
	#DEBUG_VALUE: Create_indexed:array_of_displacements <- $r9
	#DEBUG_VALUE: Create_indexed:array_of_blocklengths <- $rcx
	#DEBUG_VALUE: Create_indexed:count <- $edx
	#DEBUG_VALUE: Create_indexed: <- $rsi
	.loc	7 51 1 prologue_end     # /usr/lib/x86_64-linux-gnu/openmpi/include/openmpi/ompi/mpi/cxx/datatype_inln.h:51:1
	movq	8(%rsi), %rax
.Ltmp179:
	#DEBUG_VALUE: newtype <- [DW_OP_constu 16, DW_OP_minus, DW_OP_deref] $rbp
	.loc	7 0 1 is_stmt 0         # /usr/lib/x86_64-linux-gnu/openmpi/include/openmpi/ompi/mpi/cxx/datatype_inln.h:0:1
	leaq	-16(%rbp), %r8
	.loc	7 51 1                  # /usr/lib/x86_64-linux-gnu/openmpi/include/openmpi/ompi/mpi/cxx/datatype_inln.h:51:1
	movl	%edx, %edi
.Ltmp180:
	#DEBUG_VALUE: Create_indexed:count <- $edi
	movq	%rcx, %rsi
.Ltmp181:
	#DEBUG_VALUE: Create_indexed:array_of_blocklengths <- $rsi
	movq	%r9, %rdx
.Ltmp182:
	#DEBUG_VALUE: Create_indexed:array_of_displacements <- $rdx
	movq	%rax, %rcx
.Ltmp183:
	callq	MPI_Type_indexed
.Ltmp184:
	.loc	7 53 1 is_stmt 1        # /usr/lib/x86_64-linux-gnu/openmpi/include/openmpi/ompi/mpi/cxx/datatype_inln.h:53:1
	movq	-16(%rbp), %rax
.Ltmp185:
	#DEBUG_VALUE: newtype <- undef
	movq	$_ZTVN3MPI8DatatypeE+16, (%rbx)
	.loc	7 72 1                  # /usr/lib/x86_64-linux-gnu/openmpi/include/openmpi/ompi/mpi/cxx/datatype_inln.h:72:1
	movq	%rax, 8(%rbx)
	.loc	7 54 1                  # /usr/lib/x86_64-linux-gnu/openmpi/include/openmpi/ompi/mpi/cxx/datatype_inln.h:54:1
	movq	%rbx, %rax
	addq	$8, %rsp
	popq	%rbx
	popq	%rbp
	.cfi_def_cfa %rsp, 8
	retq
.Ltmp186:
.Lfunc_end6:
	.size	_ZNK3MPI8Datatype14Create_indexedEiPKiS2_, .Lfunc_end6-_ZNK3MPI8Datatype14Create_indexedEiPKiS2_
	.cfi_endproc
                                        # -- End function
	.weak	_ZNK3MPI8Datatype15Create_hindexedEiPKiPKl # -- Begin function _ZNK3MPI8Datatype15Create_hindexedEiPKiPKl
	.p2align	4, 0x90
	.type	_ZNK3MPI8Datatype15Create_hindexedEiPKiPKl,@function
_ZNK3MPI8Datatype15Create_hindexedEiPKiPKl: # @_ZNK3MPI8Datatype15Create_hindexedEiPKiPKl
.Lfunc_begin7:
	.loc	7 77 0                  # /usr/lib/x86_64-linux-gnu/openmpi/include/openmpi/ompi/mpi/cxx/datatype_inln.h:77:0
	.cfi_startproc
# %bb.0:                                # %L.entry
	#DEBUG_VALUE: Create_hindexed: <- $rsi
	#DEBUG_VALUE: Create_hindexed:count <- $edx
	#DEBUG_VALUE: Create_hindexed:array_of_blocklengths <- $rcx
	#DEBUG_VALUE: Create_hindexed:array_of_displacements <- $r8
	pushq	%rbp
	.cfi_def_cfa_offset 16
	.cfi_offset %rbp, -16
	movq	%rsp, %rbp
	.cfi_def_cfa_register %rbp
	pushq	%rbx
	pushq	%rax
	.cfi_offset %rbx, -24
	movq	%r8, %r9
	movq	%rdi, %rbx
.Ltmp187:
	#DEBUG_VALUE:  <- $rsi
	#DEBUG_VALUE: array_of_displacements <- $r9
	#DEBUG_VALUE: array_of_blocklengths <- $rcx
	#DEBUG_VALUE: count <- $edx
	#DEBUG_VALUE: Create_hindexed:array_of_displacements <- $r9
	#DEBUG_VALUE: Create_hindexed:array_of_blocklengths <- $rcx
	#DEBUG_VALUE: Create_hindexed:count <- $edx
	#DEBUG_VALUE: Create_hindexed: <- $rsi
	.loc	7 79 1 prologue_end     # /usr/lib/x86_64-linux-gnu/openmpi/include/openmpi/ompi/mpi/cxx/datatype_inln.h:79:1
	movq	8(%rsi), %rax
.Ltmp188:
	#DEBUG_VALUE: newtype <- [DW_OP_constu 16, DW_OP_minus, DW_OP_deref] $rbp
	.loc	7 0 1 is_stmt 0         # /usr/lib/x86_64-linux-gnu/openmpi/include/openmpi/ompi/mpi/cxx/datatype_inln.h:0:1
	leaq	-16(%rbp), %r8
	.loc	7 79 1                  # /usr/lib/x86_64-linux-gnu/openmpi/include/openmpi/ompi/mpi/cxx/datatype_inln.h:79:1
	movl	%edx, %edi
.Ltmp189:
	#DEBUG_VALUE: Create_hindexed:count <- $edi
	movq	%rcx, %rsi
.Ltmp190:
	#DEBUG_VALUE: Create_hindexed:array_of_blocklengths <- $rsi
	movq	%r9, %rdx
.Ltmp191:
	#DEBUG_VALUE: Create_hindexed:array_of_displacements <- $rdx
	movq	%rax, %rcx
.Ltmp192:
	callq	MPI_Type_create_hindexed
.Ltmp193:
	.loc	7 82 1 is_stmt 1        # /usr/lib/x86_64-linux-gnu/openmpi/include/openmpi/ompi/mpi/cxx/datatype_inln.h:82:1
	movq	-16(%rbp), %rax
.Ltmp194:
	#DEBUG_VALUE: newtype <- undef
	movq	$_ZTVN3MPI8DatatypeE+16, (%rbx)
	.loc	7 72 1                  # /usr/lib/x86_64-linux-gnu/openmpi/include/openmpi/ompi/mpi/cxx/datatype_inln.h:72:1
	movq	%rax, 8(%rbx)
	.loc	7 83 1                  # /usr/lib/x86_64-linux-gnu/openmpi/include/openmpi/ompi/mpi/cxx/datatype_inln.h:83:1
	movq	%rbx, %rax
	addq	$8, %rsp
	popq	%rbx
	popq	%rbp
	.cfi_def_cfa %rsp, 8
	retq
.Ltmp195:
.Lfunc_end7:
	.size	_ZNK3MPI8Datatype15Create_hindexedEiPKiPKl, .Lfunc_end7-_ZNK3MPI8Datatype15Create_hindexedEiPKiPKl
	.cfi_endproc
                                        # -- End function
	.weak	_ZNK3MPI8Datatype14Create_hvectorEiil # -- Begin function _ZNK3MPI8Datatype14Create_hvectorEiil
	.p2align	4, 0x90
	.type	_ZNK3MPI8Datatype14Create_hvectorEiil,@function
_ZNK3MPI8Datatype14Create_hvectorEiil:  # @_ZNK3MPI8Datatype14Create_hvectorEiil
.Lfunc_begin8:
	.loc	7 88 0                  # /usr/lib/x86_64-linux-gnu/openmpi/include/openmpi/ompi/mpi/cxx/datatype_inln.h:88:0
	.cfi_startproc
# %bb.0:                                # %L.entry
	#DEBUG_VALUE: Create_hvector: <- $rsi
	#DEBUG_VALUE: Create_hvector:count <- $edx
	#DEBUG_VALUE: Create_hvector:blocklength <- $ecx
	#DEBUG_VALUE: Create_hvector:stride <- $r8
	pushq	%rbp
	.cfi_def_cfa_offset 16
	.cfi_offset %rbp, -16
	movq	%rsp, %rbp
	.cfi_def_cfa_register %rbp
	pushq	%rbx
	pushq	%rax
	.cfi_offset %rbx, -24
	movq	%r8, %r9
	movq	%rdi, %rbx
.Ltmp196:
	#DEBUG_VALUE:  <- $rsi
	#DEBUG_VALUE: stride <- $r9
	#DEBUG_VALUE: blocklength <- $ecx
	#DEBUG_VALUE: count <- $edx
	#DEBUG_VALUE: Create_hvector:stride <- $r9
	#DEBUG_VALUE: Create_hvector:blocklength <- $ecx
	#DEBUG_VALUE: Create_hvector:count <- $edx
	#DEBUG_VALUE: Create_hvector: <- $rsi
	.loc	7 90 1 prologue_end     # /usr/lib/x86_64-linux-gnu/openmpi/include/openmpi/ompi/mpi/cxx/datatype_inln.h:90:1
	movq	8(%rsi), %rax
.Ltmp197:
	#DEBUG_VALUE: newtype <- [DW_OP_constu 16, DW_OP_minus, DW_OP_deref] $rbp
	.loc	7 0 1 is_stmt 0         # /usr/lib/x86_64-linux-gnu/openmpi/include/openmpi/ompi/mpi/cxx/datatype_inln.h:0:1
	leaq	-16(%rbp), %r8
	.loc	7 90 1                  # /usr/lib/x86_64-linux-gnu/openmpi/include/openmpi/ompi/mpi/cxx/datatype_inln.h:90:1
	movl	%edx, %edi
.Ltmp198:
	#DEBUG_VALUE: Create_hvector:count <- $edi
	movl	%ecx, %esi
.Ltmp199:
	#DEBUG_VALUE: Create_hvector:blocklength <- $esi
	movq	%r9, %rdx
.Ltmp200:
	#DEBUG_VALUE: Create_hvector:stride <- $rdx
	movq	%rax, %rcx
.Ltmp201:
	callq	MPI_Type_create_hvector
.Ltmp202:
	.loc	7 93 1 is_stmt 1        # /usr/lib/x86_64-linux-gnu/openmpi/include/openmpi/ompi/mpi/cxx/datatype_inln.h:93:1
	movq	-16(%rbp), %rax
.Ltmp203:
	#DEBUG_VALUE: newtype <- undef
	movq	$_ZTVN3MPI8DatatypeE+16, (%rbx)
	.loc	7 72 1                  # /usr/lib/x86_64-linux-gnu/openmpi/include/openmpi/ompi/mpi/cxx/datatype_inln.h:72:1
	movq	%rax, 8(%rbx)
	.loc	7 94 1                  # /usr/lib/x86_64-linux-gnu/openmpi/include/openmpi/ompi/mpi/cxx/datatype_inln.h:94:1
	movq	%rbx, %rax
	addq	$8, %rsp
	popq	%rbx
	popq	%rbp
	.cfi_def_cfa %rsp, 8
	retq
.Ltmp204:
.Lfunc_end8:
	.size	_ZNK3MPI8Datatype14Create_hvectorEiil, .Lfunc_end8-_ZNK3MPI8Datatype14Create_hvectorEiil
	.cfi_endproc
                                        # -- End function
	.weak	_ZNK3MPI8Datatype20Create_indexed_blockEiiPKi # -- Begin function _ZNK3MPI8Datatype20Create_indexed_blockEiiPKi
	.p2align	4, 0x90
	.type	_ZNK3MPI8Datatype20Create_indexed_blockEiiPKi,@function
_ZNK3MPI8Datatype20Create_indexed_blockEiiPKi: # @_ZNK3MPI8Datatype20Create_indexed_blockEiiPKi
.Lfunc_begin9:
	.loc	7 99 0                  # /usr/lib/x86_64-linux-gnu/openmpi/include/openmpi/ompi/mpi/cxx/datatype_inln.h:99:0
	.cfi_startproc
# %bb.0:                                # %L.entry
	#DEBUG_VALUE: Create_indexed_block: <- $rsi
	#DEBUG_VALUE: Create_indexed_block:count <- $edx
	#DEBUG_VALUE: Create_indexed_block:blocklength <- $ecx
	#DEBUG_VALUE: Create_indexed_block:array_of_displacements <- $r8
	pushq	%rbp
	.cfi_def_cfa_offset 16
	.cfi_offset %rbp, -16
	movq	%rsp, %rbp
	.cfi_def_cfa_register %rbp
	pushq	%rbx
	pushq	%rax
	.cfi_offset %rbx, -24
	movq	%r8, %r9
	movq	%rdi, %rbx
.Ltmp205:
	#DEBUG_VALUE:  <- $rsi
	#DEBUG_VALUE: array_of_displacements <- $r9
	#DEBUG_VALUE: blocklength <- $ecx
	#DEBUG_VALUE: count <- $edx
	#DEBUG_VALUE: Create_indexed_block:array_of_displacements <- $r9
	#DEBUG_VALUE: Create_indexed_block:blocklength <- $ecx
	#DEBUG_VALUE: Create_indexed_block:count <- $edx
	#DEBUG_VALUE: Create_indexed_block: <- $rsi
	.loc	7 101 1 prologue_end    # /usr/lib/x86_64-linux-gnu/openmpi/include/openmpi/ompi/mpi/cxx/datatype_inln.h:101:1
	movq	8(%rsi), %rax
.Ltmp206:
	#DEBUG_VALUE: newtype <- [DW_OP_constu 16, DW_OP_minus, DW_OP_deref] $rbp
	.loc	7 0 1 is_stmt 0         # /usr/lib/x86_64-linux-gnu/openmpi/include/openmpi/ompi/mpi/cxx/datatype_inln.h:0:1
	leaq	-16(%rbp), %r8
	.loc	7 101 1                 # /usr/lib/x86_64-linux-gnu/openmpi/include/openmpi/ompi/mpi/cxx/datatype_inln.h:101:1
	movl	%edx, %edi
.Ltmp207:
	#DEBUG_VALUE: Create_indexed_block:count <- $edi
	movl	%ecx, %esi
.Ltmp208:
	#DEBUG_VALUE: Create_indexed_block:blocklength <- $esi
	movq	%r9, %rdx
.Ltmp209:
	#DEBUG_VALUE: Create_indexed_block:array_of_displacements <- $rdx
	movq	%rax, %rcx
.Ltmp210:
	callq	MPI_Type_create_indexed_block
.Ltmp211:
	.loc	7 103 1 is_stmt 1       # /usr/lib/x86_64-linux-gnu/openmpi/include/openmpi/ompi/mpi/cxx/datatype_inln.h:103:1
	movq	-16(%rbp), %rax
.Ltmp212:
	#DEBUG_VALUE: newtype <- undef
	movq	$_ZTVN3MPI8DatatypeE+16, (%rbx)
	.loc	7 72 1                  # /usr/lib/x86_64-linux-gnu/openmpi/include/openmpi/ompi/mpi/cxx/datatype_inln.h:72:1
	movq	%rax, 8(%rbx)
	.loc	7 104 1                 # /usr/lib/x86_64-linux-gnu/openmpi/include/openmpi/ompi/mpi/cxx/datatype_inln.h:104:1
	movq	%rbx, %rax
	addq	$8, %rsp
	popq	%rbx
	popq	%rbp
	.cfi_def_cfa %rsp, 8
	retq
.Ltmp213:
.Lfunc_end9:
	.size	_ZNK3MPI8Datatype20Create_indexed_blockEiiPKi, .Lfunc_end9-_ZNK3MPI8Datatype20Create_indexed_blockEiiPKi
	.cfi_endproc
                                        # -- End function
	.weak	_ZNK3MPI8Datatype14Create_resizedEll # -- Begin function _ZNK3MPI8Datatype14Create_resizedEll
	.p2align	4, 0x90
	.type	_ZNK3MPI8Datatype14Create_resizedEll,@function
_ZNK3MPI8Datatype14Create_resizedEll:   # @_ZNK3MPI8Datatype14Create_resizedEll
.Lfunc_begin10:
	.loc	7 108 0                 # /usr/lib/x86_64-linux-gnu/openmpi/include/openmpi/ompi/mpi/cxx/datatype_inln.h:108:0
	.cfi_startproc
# %bb.0:                                # %L.entry
	#DEBUG_VALUE: Create_resized: <- $rsi
	#DEBUG_VALUE: Create_resized:lb <- $rdx
	#DEBUG_VALUE: Create_resized:extent <- $rcx
	pushq	%rbp
	.cfi_def_cfa_offset 16
	.cfi_offset %rbp, -16
	movq	%rsp, %rbp
	.cfi_def_cfa_register %rbp
	pushq	%rbx
	pushq	%rax
	.cfi_offset %rbx, -24
	movq	%rdi, %rbx
.Ltmp214:
	#DEBUG_VALUE:  <- $rsi
	#DEBUG_VALUE: extent <- $rcx
	#DEBUG_VALUE: lb <- $rdx
	#DEBUG_VALUE: Create_resized:extent <- $rcx
	#DEBUG_VALUE: Create_resized:lb <- $rdx
	#DEBUG_VALUE: Create_resized: <- $rsi
	.loc	7 111 1 prologue_end    # /usr/lib/x86_64-linux-gnu/openmpi/include/openmpi/ompi/mpi/cxx/datatype_inln.h:111:1
	movq	8(%rsi), %rdi
.Ltmp215:
	#DEBUG_VALUE: newtype <- [DW_OP_constu 16, DW_OP_minus, DW_OP_deref] $rbp
	.loc	7 0 1 is_stmt 0         # /usr/lib/x86_64-linux-gnu/openmpi/include/openmpi/ompi/mpi/cxx/datatype_inln.h:0:1
	leaq	-16(%rbp), %rax
	.loc	7 111 1                 # /usr/lib/x86_64-linux-gnu/openmpi/include/openmpi/ompi/mpi/cxx/datatype_inln.h:111:1
	movq	%rdx, %rsi
.Ltmp216:
	#DEBUG_VALUE: Create_resized:lb <- $rsi
	movq	%rcx, %rdx
.Ltmp217:
	#DEBUG_VALUE: Create_resized:extent <- $rdx
	movq	%rax, %rcx
.Ltmp218:
	callq	MPI_Type_create_resized
.Ltmp219:
	.loc	7 112 1 is_stmt 1       # /usr/lib/x86_64-linux-gnu/openmpi/include/openmpi/ompi/mpi/cxx/datatype_inln.h:112:1
	movq	-16(%rbp), %rax
.Ltmp220:
	#DEBUG_VALUE: newtype <- undef
	movq	$_ZTVN3MPI8DatatypeE+16, (%rbx)
	.loc	7 72 1                  # /usr/lib/x86_64-linux-gnu/openmpi/include/openmpi/ompi/mpi/cxx/datatype_inln.h:72:1
	movq	%rax, 8(%rbx)
	.loc	7 113 1                 # /usr/lib/x86_64-linux-gnu/openmpi/include/openmpi/ompi/mpi/cxx/datatype_inln.h:113:1
	movq	%rbx, %rax
	addq	$8, %rsp
	popq	%rbx
	popq	%rbp
	.cfi_def_cfa %rsp, 8
	retq
.Ltmp221:
.Lfunc_end10:
	.size	_ZNK3MPI8Datatype14Create_resizedEll, .Lfunc_end10-_ZNK3MPI8Datatype14Create_resizedEll
	.cfi_endproc
                                        # -- End function
	.weak	_ZNK3MPI8Datatype8Get_sizeEv # -- Begin function _ZNK3MPI8Datatype8Get_sizeEv
	.p2align	4, 0x90
	.type	_ZNK3MPI8Datatype8Get_sizeEv,@function
_ZNK3MPI8Datatype8Get_sizeEv:           # @_ZNK3MPI8Datatype8Get_sizeEv
.Lfunc_begin11:
	.loc	7 117 0                 # /usr/lib/x86_64-linux-gnu/openmpi/include/openmpi/ompi/mpi/cxx/datatype_inln.h:117:0
	.cfi_startproc
# %bb.0:                                # %L.entry
	#DEBUG_VALUE: Get_size: <- $rdi
	#DEBUG_VALUE: Get_size: <- $rdi
	pushq	%rbp
	.cfi_def_cfa_offset 16
	.cfi_offset %rbp, -16
	movq	%rsp, %rbp
	.cfi_def_cfa_register %rbp
	subq	$16, %rsp
.Ltmp222:
	#DEBUG_VALUE:  <- $rdi
	.loc	7 119 1 prologue_end    # /usr/lib/x86_64-linux-gnu/openmpi/include/openmpi/ompi/mpi/cxx/datatype_inln.h:119:1
	movq	8(%rdi), %rdi
.Ltmp223:
	#DEBUG_VALUE: size <- [DW_OP_constu 4, DW_OP_minus, DW_OP_deref] $rbp
	.loc	7 0 1 is_stmt 0         # /usr/lib/x86_64-linux-gnu/openmpi/include/openmpi/ompi/mpi/cxx/datatype_inln.h:0:1
	leaq	-4(%rbp), %rsi
	.loc	7 119 1                 # /usr/lib/x86_64-linux-gnu/openmpi/include/openmpi/ompi/mpi/cxx/datatype_inln.h:119:1
	callq	MPI_Type_size
	.loc	7 120 1 is_stmt 1       # /usr/lib/x86_64-linux-gnu/openmpi/include/openmpi/ompi/mpi/cxx/datatype_inln.h:120:1
	movl	-4(%rbp), %eax
.Ltmp224:
	#DEBUG_VALUE: size <- $eax
	addq	$16, %rsp
	popq	%rbp
	.cfi_def_cfa %rsp, 8
	retq
.Ltmp225:
.Lfunc_end11:
	.size	_ZNK3MPI8Datatype8Get_sizeEv, .Lfunc_end11-_ZNK3MPI8Datatype8Get_sizeEv
	.cfi_endproc
                                        # -- End function
	.weak	_ZNK3MPI8Datatype10Get_extentERlS1_ # -- Begin function _ZNK3MPI8Datatype10Get_extentERlS1_
	.p2align	4, 0x90
	.type	_ZNK3MPI8Datatype10Get_extentERlS1_,@function
_ZNK3MPI8Datatype10Get_extentERlS1_:    # @_ZNK3MPI8Datatype10Get_extentERlS1_
.Lfunc_begin12:
	.loc	7 125 0                 # /usr/lib/x86_64-linux-gnu/openmpi/include/openmpi/ompi/mpi/cxx/datatype_inln.h:125:0
	.cfi_startproc
# %bb.0:                                # %L.entry
	#DEBUG_VALUE: Get_extent: <- $rdi
	#DEBUG_VALUE: Get_extent: <- $rdi
	#DEBUG_VALUE: Get_extent:lb <- $rsi
	#DEBUG_VALUE: Get_extent:lb <- $rsi
	#DEBUG_VALUE: Get_extent:extent <- $rdx
	#DEBUG_VALUE: Get_extent:extent <- $rdx
	pushq	%rbp
	.cfi_def_cfa_offset 16
	.cfi_offset %rbp, -16
	movq	%rsp, %rbp
	.cfi_def_cfa_register %rbp
.Ltmp226:
	#DEBUG_VALUE:  <- $rdi
	#DEBUG_VALUE:  <- $rdi
	#DEBUG_VALUE: lb <- $rsi
	#DEBUG_VALUE: lb <- $rsi
	#DEBUG_VALUE: extent <- $rdx
	#DEBUG_VALUE: extent <- $rdx
	.loc	7 126 1 prologue_end    # /usr/lib/x86_64-linux-gnu/openmpi/include/openmpi/ompi/mpi/cxx/datatype_inln.h:126:1
	movq	8(%rdi), %rdi
.Ltmp227:
	#DEBUG_VALUE: extent <- $rdx
	#DEBUG_VALUE: Get_extent:extent <- $rdx
	#DEBUG_VALUE: lb <- $rsi
	#DEBUG_VALUE: Get_extent:lb <- $rsi
	popq	%rbp
	.cfi_def_cfa %rsp, 8
	jmp	MPI_Type_get_extent     # TAILCALL
.Ltmp228:
.Lfunc_end12:
	.size	_ZNK3MPI8Datatype10Get_extentERlS1_, .Lfunc_end12-_ZNK3MPI8Datatype10Get_extentERlS1_
	.cfi_endproc
                                        # -- End function
	.weak	_ZNK3MPI8Datatype15Get_true_extentERlS1_ # -- Begin function _ZNK3MPI8Datatype15Get_true_extentERlS1_
	.p2align	4, 0x90
	.type	_ZNK3MPI8Datatype15Get_true_extentERlS1_,@function
_ZNK3MPI8Datatype15Get_true_extentERlS1_: # @_ZNK3MPI8Datatype15Get_true_extentERlS1_
.Lfunc_begin13:
	.loc	7 131 0                 # /usr/lib/x86_64-linux-gnu/openmpi/include/openmpi/ompi/mpi/cxx/datatype_inln.h:131:0
	.cfi_startproc
# %bb.0:                                # %L.entry
	#DEBUG_VALUE: Get_true_extent: <- $rdi
	#DEBUG_VALUE: Get_true_extent: <- $rdi
	#DEBUG_VALUE: Get_true_extent:lb <- $rsi
	#DEBUG_VALUE: Get_true_extent:lb <- $rsi
	#DEBUG_VALUE: Get_true_extent:extent <- $rdx
	#DEBUG_VALUE: Get_true_extent:extent <- $rdx
	pushq	%rbp
	.cfi_def_cfa_offset 16
	.cfi_offset %rbp, -16
	movq	%rsp, %rbp
	.cfi_def_cfa_register %rbp
.Ltmp229:
	#DEBUG_VALUE:  <- $rdi
	#DEBUG_VALUE:  <- $rdi
	#DEBUG_VALUE: lb <- $rsi
	#DEBUG_VALUE: lb <- $rsi
	#DEBUG_VALUE: extent <- $rdx
	#DEBUG_VALUE: extent <- $rdx
	.loc	7 132 1 prologue_end    # /usr/lib/x86_64-linux-gnu/openmpi/include/openmpi/ompi/mpi/cxx/datatype_inln.h:132:1
	movq	8(%rdi), %rdi
.Ltmp230:
	#DEBUG_VALUE: extent <- $rdx
	#DEBUG_VALUE: Get_true_extent:extent <- $rdx
	#DEBUG_VALUE: lb <- $rsi
	#DEBUG_VALUE: Get_true_extent:lb <- $rsi
	popq	%rbp
	.cfi_def_cfa %rsp, 8
	jmp	MPI_Type_get_true_extent # TAILCALL
.Ltmp231:
.Lfunc_end13:
	.size	_ZNK3MPI8Datatype15Get_true_extentERlS1_, .Lfunc_end13-_ZNK3MPI8Datatype15Get_true_extentERlS1_
	.cfi_endproc
                                        # -- End function
	.weak	_ZN3MPI8Datatype6CommitEv # -- Begin function _ZN3MPI8Datatype6CommitEv
	.p2align	4, 0x90
	.type	_ZN3MPI8Datatype6CommitEv,@function
_ZN3MPI8Datatype6CommitEv:              # @_ZN3MPI8Datatype6CommitEv
.Lfunc_begin14:
	.loc	7 137 0                 # /usr/lib/x86_64-linux-gnu/openmpi/include/openmpi/ompi/mpi/cxx/datatype_inln.h:137:0
	.cfi_startproc
# %bb.0:                                # %L.entry
	#DEBUG_VALUE: Commit: <- $rdi
	#DEBUG_VALUE: Commit: <- $rdi
	pushq	%rbp
	.cfi_def_cfa_offset 16
	.cfi_offset %rbp, -16
	movq	%rsp, %rbp
	.cfi_def_cfa_register %rbp
.Ltmp232:
	#DEBUG_VALUE:  <- $rdi
	#DEBUG_VALUE:  <- $rdi
	.loc	7 138 1 prologue_end    # /usr/lib/x86_64-linux-gnu/openmpi/include/openmpi/ompi/mpi/cxx/datatype_inln.h:138:1
	addq	$8, %rdi
.Ltmp233:
	popq	%rbp
	.cfi_def_cfa %rsp, 8
	jmp	MPI_Type_commit         # TAILCALL
.Ltmp234:
.Lfunc_end14:
	.size	_ZN3MPI8Datatype6CommitEv, .Lfunc_end14-_ZN3MPI8Datatype6CommitEv
	.cfi_endproc
                                        # -- End function
	.weak	_ZNK3MPI8Datatype4PackEPKviPviRiRKNS_4CommE # -- Begin function _ZNK3MPI8Datatype4PackEPKviPviRiRKNS_4CommE
	.p2align	4, 0x90
	.type	_ZNK3MPI8Datatype4PackEPKviPviRiRKNS_4CommE,@function
_ZNK3MPI8Datatype4PackEPKviPviRiRKNS_4CommE: # @_ZNK3MPI8Datatype4PackEPKviPviRiRKNS_4CommE
.Lfunc_begin15:
	.loc	7 145 0                 # /usr/lib/x86_64-linux-gnu/openmpi/include/openmpi/ompi/mpi/cxx/datatype_inln.h:145:0
	.cfi_startproc
# %bb.0:                                # %L.entry
	#DEBUG_VALUE: Pack: <- $rdi
	#DEBUG_VALUE: Pack:inbuf <- $rsi
	#DEBUG_VALUE: Pack:incount <- $edx
	#DEBUG_VALUE: Pack:outbuf <- $rcx
	#DEBUG_VALUE: Pack:outsize <- $r8d
	#DEBUG_VALUE: Pack:position <- $r9
	pushq	%rbp
	.cfi_def_cfa_offset 16
	.cfi_offset %rbp, -16
	movq	%rsp, %rbp
	.cfi_def_cfa_register %rbp
	subq	$16, %rsp
.Ltmp235:
	#DEBUG_VALUE:  <- $rdi
	#DEBUG_VALUE: inbuf <- $rsi
	#DEBUG_VALUE: incount <- $edx
	#DEBUG_VALUE: outbuf <- $rcx
	#DEBUG_VALUE: outsize <- $r8d
	#DEBUG_VALUE: position <- $r9
	movq	16(%rbp), %r10
.Ltmp236:
	#DEBUG_VALUE: comm <- [DW_OP_plus_uconst 16] [$rbp+0]
	#DEBUG_VALUE: Pack:comm <- [DW_OP_plus_uconst 16] [$rbp+0]
	#DEBUG_VALUE: position <- $r9
	#DEBUG_VALUE: Pack:position <- $r9
	#DEBUG_VALUE: outsize <- $r8d
	#DEBUG_VALUE: Pack:outsize <- $r8d
	#DEBUG_VALUE: outbuf <- $rcx
	#DEBUG_VALUE: Pack:outbuf <- $rcx
	#DEBUG_VALUE: incount <- $edx
	#DEBUG_VALUE: Pack:incount <- $edx
	#DEBUG_VALUE: inbuf <- $rsi
	#DEBUG_VALUE: Pack:inbuf <- $rsi
	#DEBUG_VALUE:  <- $rdi
	#DEBUG_VALUE: Pack: <- $rdi
	.loc	7 80 1 prologue_end     # /usr/lib/x86_64-linux-gnu/openmpi/include/openmpi/ompi/mpi/cxx/datatype_inln.h:80:1
	movq	8(%rdi), %rax
	movq	8(%r10), %rdi
.Ltmp237:
	movq	%rdi, (%rsp)
	movq	%rsi, %rdi
.Ltmp238:
	#DEBUG_VALUE: inbuf <- $rdi
	#DEBUG_VALUE: Pack:inbuf <- $rdi
	movl	%edx, %esi
.Ltmp239:
	#DEBUG_VALUE: incount <- $esi
	#DEBUG_VALUE: Pack:incount <- $esi
	movq	%rax, %rdx
	#DEBUG_VALUE: position <- $r9
	#DEBUG_VALUE: Pack:position <- $r9
	#DEBUG_VALUE: outsize <- $r8d
	#DEBUG_VALUE: Pack:outsize <- $r8d
	#DEBUG_VALUE: outbuf <- $rcx
	#DEBUG_VALUE: Pack:outbuf <- $rcx
	callq	MPI_Pack
.Ltmp240:
	.loc	7 148 1                 # /usr/lib/x86_64-linux-gnu/openmpi/include/openmpi/ompi/mpi/cxx/datatype_inln.h:148:1
	addq	$16, %rsp
	popq	%rbp
	.cfi_def_cfa %rsp, 8
	retq
.Ltmp241:
.Lfunc_end15:
	.size	_ZNK3MPI8Datatype4PackEPKviPviRiRKNS_4CommE, .Lfunc_end15-_ZNK3MPI8Datatype4PackEPKviPviRiRKNS_4CommE
	.cfi_endproc
                                        # -- End function
	.weak	_ZNK3MPI8Datatype6UnpackEPKviPviRiRKNS_4CommE # -- Begin function _ZNK3MPI8Datatype6UnpackEPKviPviRiRKNS_4CommE
	.p2align	4, 0x90
	.type	_ZNK3MPI8Datatype6UnpackEPKviPviRiRKNS_4CommE,@function
_ZNK3MPI8Datatype6UnpackEPKviPviRiRKNS_4CommE: # @_ZNK3MPI8Datatype6UnpackEPKviPviRiRKNS_4CommE
.Lfunc_begin16:
	.loc	7 154 0                 # /usr/lib/x86_64-linux-gnu/openmpi/include/openmpi/ompi/mpi/cxx/datatype_inln.h:154:0
	.cfi_startproc
# %bb.0:                                # %L.entry
	#DEBUG_VALUE: Unpack: <- $rdi
	#DEBUG_VALUE: Unpack:inbuf <- $rsi
	#DEBUG_VALUE: Unpack:insize <- $edx
	#DEBUG_VALUE: Unpack:outbuf <- $rcx
	#DEBUG_VALUE: Unpack:outcount <- $r8d
	#DEBUG_VALUE: Unpack:position <- $r9
	pushq	%rbp
	.cfi_def_cfa_offset 16
	.cfi_offset %rbp, -16
	movq	%rsp, %rbp
	.cfi_def_cfa_register %rbp
	subq	$16, %rsp
.Ltmp242:
	#DEBUG_VALUE:  <- $rdi
	#DEBUG_VALUE: inbuf <- $rsi
	#DEBUG_VALUE: insize <- $edx
	#DEBUG_VALUE: outbuf <- $rcx
	#DEBUG_VALUE: outcount <- $r8d
	#DEBUG_VALUE: position <- $r9
	movq	%r9, %rax
	movq	16(%rbp), %r10
.Ltmp243:
	#DEBUG_VALUE: comm <- [DW_OP_plus_uconst 16] [$rbp+0]
	#DEBUG_VALUE: Unpack:comm <- [DW_OP_plus_uconst 16] [$rbp+0]
	#DEBUG_VALUE: position <- $rax
	#DEBUG_VALUE: Unpack:position <- $rax
	#DEBUG_VALUE: outcount <- $r8d
	#DEBUG_VALUE: Unpack:outcount <- $r8d
	#DEBUG_VALUE: outbuf <- $rcx
	#DEBUG_VALUE: Unpack:outbuf <- $rcx
	#DEBUG_VALUE: insize <- $edx
	#DEBUG_VALUE: Unpack:insize <- $edx
	#DEBUG_VALUE: inbuf <- $rsi
	#DEBUG_VALUE: Unpack:inbuf <- $rsi
	#DEBUG_VALUE:  <- $rdi
	#DEBUG_VALUE: Unpack: <- $rdi
	.loc	7 80 1 prologue_end     # /usr/lib/x86_64-linux-gnu/openmpi/include/openmpi/ompi/mpi/cxx/datatype_inln.h:80:1
	movq	8(%rdi), %r9
	movq	8(%r10), %rdi
.Ltmp244:
	movq	%rdi, (%rsp)
	movq	%rsi, %rdi
.Ltmp245:
	#DEBUG_VALUE: inbuf <- $rdi
	#DEBUG_VALUE: Unpack:inbuf <- $rdi
	movl	%edx, %esi
.Ltmp246:
	#DEBUG_VALUE: insize <- $esi
	#DEBUG_VALUE: Unpack:insize <- $esi
	movq	%rax, %rdx
.Ltmp247:
	#DEBUG_VALUE: position <- $rdx
	#DEBUG_VALUE: Unpack:position <- $rdx
	#DEBUG_VALUE: outcount <- $r8d
	#DEBUG_VALUE: Unpack:outcount <- $r8d
	#DEBUG_VALUE: outbuf <- $rcx
	#DEBUG_VALUE: Unpack:outbuf <- $rcx
	callq	MPI_Unpack
.Ltmp248:
	.loc	7 157 1                 # /usr/lib/x86_64-linux-gnu/openmpi/include/openmpi/ompi/mpi/cxx/datatype_inln.h:157:1
	addq	$16, %rsp
	popq	%rbp
	.cfi_def_cfa %rsp, 8
	retq
.Ltmp249:
.Lfunc_end16:
	.size	_ZNK3MPI8Datatype6UnpackEPKviPviRiRKNS_4CommE, .Lfunc_end16-_ZNK3MPI8Datatype6UnpackEPKviPviRiRKNS_4CommE
	.cfi_endproc
                                        # -- End function
	.weak	_ZNK3MPI8Datatype9Pack_sizeEiRKNS_4CommE # -- Begin function _ZNK3MPI8Datatype9Pack_sizeEiRKNS_4CommE
	.p2align	4, 0x90
	.type	_ZNK3MPI8Datatype9Pack_sizeEiRKNS_4CommE,@function
_ZNK3MPI8Datatype9Pack_sizeEiRKNS_4CommE: # @_ZNK3MPI8Datatype9Pack_sizeEiRKNS_4CommE
.Lfunc_begin17:
	.loc	7 161 0                 # /usr/lib/x86_64-linux-gnu/openmpi/include/openmpi/ompi/mpi/cxx/datatype_inln.h:161:0
	.cfi_startproc
# %bb.0:                                # %L.entry
	#DEBUG_VALUE: Pack_size: <- $rdi
	#DEBUG_VALUE: Pack_size:incount <- $esi
	#DEBUG_VALUE: Pack_size:comm <- $rdx
	pushq	%rbp
	.cfi_def_cfa_offset 16
	.cfi_offset %rbp, -16
	movq	%rsp, %rbp
	.cfi_def_cfa_register %rbp
	subq	$16, %rsp
	movl	%esi, %eax
.Ltmp250:
	#DEBUG_VALUE: comm <- $rdx
	#DEBUG_VALUE: incount <- $eax
	#DEBUG_VALUE:  <- $rdi
	#DEBUG_VALUE: Pack_size:comm <- $rdx
	#DEBUG_VALUE: Pack_size:incount <- $eax
	#DEBUG_VALUE: Pack_size: <- $rdi
	.loc	7 80 1 prologue_end     # /usr/lib/x86_64-linux-gnu/openmpi/include/openmpi/ompi/mpi/cxx/datatype_inln.h:80:1
	movq	8(%rdi), %rsi
	movq	8(%rdx), %rdx
.Ltmp251:
	#DEBUG_VALUE: size <- [DW_OP_constu 4, DW_OP_minus, DW_OP_deref] $rbp
	.loc	7 0 1 is_stmt 0         # /usr/lib/x86_64-linux-gnu/openmpi/include/openmpi/ompi/mpi/cxx/datatype_inln.h:0:1
	leaq	-4(%rbp), %rcx
	.loc	7 80 1                  # /usr/lib/x86_64-linux-gnu/openmpi/include/openmpi/ompi/mpi/cxx/datatype_inln.h:80:1
	movl	%eax, %edi
.Ltmp252:
	#DEBUG_VALUE: Pack_size:incount <- $edi
	callq	MPI_Pack_size
.Ltmp253:
	.loc	7 164 1 is_stmt 1       # /usr/lib/x86_64-linux-gnu/openmpi/include/openmpi/ompi/mpi/cxx/datatype_inln.h:164:1
	movl	-4(%rbp), %eax
.Ltmp254:
	#DEBUG_VALUE: size <- $eax
	addq	$16, %rsp
	popq	%rbp
	.cfi_def_cfa %rsp, 8
	retq
.Ltmp255:
.Lfunc_end17:
	.size	_ZNK3MPI8Datatype9Pack_sizeEiRKNS_4CommE, .Lfunc_end17-_ZNK3MPI8Datatype9Pack_sizeEiRKNS_4CommE
	.cfi_endproc
                                        # -- End function
	.weak	_ZNK3MPI8Datatype13Pack_externalEPKcPKviPvlRl # -- Begin function _ZNK3MPI8Datatype13Pack_externalEPKcPKviPvlRl
	.p2align	4, 0x90
	.type	_ZNK3MPI8Datatype13Pack_externalEPKcPKviPvlRl,@function
_ZNK3MPI8Datatype13Pack_externalEPKcPKviPvlRl: # @_ZNK3MPI8Datatype13Pack_externalEPKcPKviPvlRl
.Lfunc_begin18:
	.loc	7 170 0                 # /usr/lib/x86_64-linux-gnu/openmpi/include/openmpi/ompi/mpi/cxx/datatype_inln.h:170:0
	.cfi_startproc
# %bb.0:                                # %L.entry
	#DEBUG_VALUE: Pack_external: <- $rdi
	#DEBUG_VALUE: Pack_external: <- $rdi
	#DEBUG_VALUE: Pack_external:datarep <- $rsi
	#DEBUG_VALUE: Pack_external:datarep <- $rsi
	#DEBUG_VALUE: Pack_external:inbuf <- $rdx
	#DEBUG_VALUE: Pack_external:inbuf <- $rdx
	#DEBUG_VALUE: Pack_external:incount <- $ecx
	#DEBUG_VALUE: Pack_external:incount <- $ecx
	#DEBUG_VALUE: Pack_external:outbuf <- $r8
	#DEBUG_VALUE: Pack_external:outbuf <- $r8
	#DEBUG_VALUE: Pack_external:outsize <- $r9
	#DEBUG_VALUE: Pack_external:outsize <- $r9
	pushq	%rbp
	.cfi_def_cfa_offset 16
	.cfi_offset %rbp, -16
	movq	%rsp, %rbp
	.cfi_def_cfa_register %rbp
.Ltmp256:
	#DEBUG_VALUE:  <- $rdi
	#DEBUG_VALUE:  <- $rdi
	#DEBUG_VALUE: datarep <- $rsi
	#DEBUG_VALUE: datarep <- $rsi
	#DEBUG_VALUE: inbuf <- $rdx
	#DEBUG_VALUE: inbuf <- $rdx
	#DEBUG_VALUE: incount <- $ecx
	#DEBUG_VALUE: incount <- $ecx
	#DEBUG_VALUE: outbuf <- $r8
	#DEBUG_VALUE: outbuf <- $r8
	#DEBUG_VALUE: outsize <- $r9
	#DEBUG_VALUE: outsize <- $r9
	#DEBUG_VALUE: Pack_external:position <- [DW_OP_plus_uconst 16] [$rbp+0]
	#DEBUG_VALUE: position <- [DW_OP_plus_uconst 16] [$rbp+0]
	.loc	7 171 1 prologue_end    # /usr/lib/x86_64-linux-gnu/openmpi/include/openmpi/ompi/mpi/cxx/datatype_inln.h:171:1
	movq	8(%rdi), %rax
	movq	%rsi, %rdi
.Ltmp257:
	#DEBUG_VALUE: datarep <- $rdi
	#DEBUG_VALUE: Pack_external:datarep <- $rdi
	movq	%rdx, %rsi
.Ltmp258:
	#DEBUG_VALUE: inbuf <- $rsi
	#DEBUG_VALUE: Pack_external:inbuf <- $rsi
	movl	%ecx, %edx
.Ltmp259:
	#DEBUG_VALUE: incount <- $edx
	#DEBUG_VALUE: Pack_external:incount <- $edx
	movq	%rax, %rcx
	#DEBUG_VALUE: outsize <- $r9
	#DEBUG_VALUE: Pack_external:outsize <- $r9
	#DEBUG_VALUE: outbuf <- $r8
	#DEBUG_VALUE: Pack_external:outbuf <- $r8
	popq	%rbp
	.cfi_def_cfa %rsp, 8
	jmp	MPI_Pack_external       # TAILCALL
.Ltmp260:
.Lfunc_end18:
	.size	_ZNK3MPI8Datatype13Pack_externalEPKcPKviPvlRl, .Lfunc_end18-_ZNK3MPI8Datatype13Pack_externalEPKcPKviPvlRl
	.cfi_endproc
                                        # -- End function
	.weak	_ZNK3MPI8Datatype18Pack_external_sizeEPKci # -- Begin function _ZNK3MPI8Datatype18Pack_external_sizeEPKci
	.p2align	4, 0x90
	.type	_ZNK3MPI8Datatype18Pack_external_sizeEPKci,@function
_ZNK3MPI8Datatype18Pack_external_sizeEPKci: # @_ZNK3MPI8Datatype18Pack_external_sizeEPKci
.Lfunc_begin19:
	.loc	7 177 0                 # /usr/lib/x86_64-linux-gnu/openmpi/include/openmpi/ompi/mpi/cxx/datatype_inln.h:177:0
	.cfi_startproc
# %bb.0:                                # %L.entry
	#DEBUG_VALUE: Pack_external_size: <- $rdi
	#DEBUG_VALUE: Pack_external_size: <- $rdi
	#DEBUG_VALUE: Pack_external_size:datarep <- $rsi
	#DEBUG_VALUE: Pack_external_size:datarep <- $rsi
	#DEBUG_VALUE: Pack_external_size:incount <- $edx
	#DEBUG_VALUE: Pack_external_size:incount <- $edx
	pushq	%rbp
	.cfi_def_cfa_offset 16
	.cfi_offset %rbp, -16
	movq	%rsp, %rbp
	.cfi_def_cfa_register %rbp
	subq	$16, %rsp
.Ltmp261:
	#DEBUG_VALUE:  <- $rdi
	#DEBUG_VALUE: datarep <- $rsi
	#DEBUG_VALUE: incount <- $edx
	.loc	7 179 1 prologue_end    # /usr/lib/x86_64-linux-gnu/openmpi/include/openmpi/ompi/mpi/cxx/datatype_inln.h:179:1
	movq	8(%rdi), %rax
.Ltmp262:
	#DEBUG_VALUE: addr <- [DW_OP_constu 8, DW_OP_minus, DW_OP_deref] $rbp
	.loc	7 0 1 is_stmt 0         # /usr/lib/x86_64-linux-gnu/openmpi/include/openmpi/ompi/mpi/cxx/datatype_inln.h:0:1
	leaq	-8(%rbp), %rcx
	.loc	7 179 1                 # /usr/lib/x86_64-linux-gnu/openmpi/include/openmpi/ompi/mpi/cxx/datatype_inln.h:179:1
	movq	%rsi, %rdi
.Ltmp263:
	#DEBUG_VALUE: Pack_external_size:datarep <- $rdi
	movl	%edx, %esi
.Ltmp264:
	#DEBUG_VALUE: Pack_external_size:incount <- $esi
	movq	%rax, %rdx
.Ltmp265:
	callq	MPI_Pack_external_size
.Ltmp266:
	.loc	7 180 1 is_stmt 1       # /usr/lib/x86_64-linux-gnu/openmpi/include/openmpi/ompi/mpi/cxx/datatype_inln.h:180:1
	movq	-8(%rbp), %rax
.Ltmp267:
	#DEBUG_VALUE: addr <- $rax
	addq	$16, %rsp
	popq	%rbp
	.cfi_def_cfa %rsp, 8
	retq
.Ltmp268:
.Lfunc_end19:
	.size	_ZNK3MPI8Datatype18Pack_external_sizeEPKci, .Lfunc_end19-_ZNK3MPI8Datatype18Pack_external_sizeEPKci
	.cfi_endproc
                                        # -- End function
	.weak	_ZNK3MPI8Datatype15Unpack_externalEPKcPKvlRlPvi # -- Begin function _ZNK3MPI8Datatype15Unpack_externalEPKcPKvlRlPvi
	.p2align	4, 0x90
	.type	_ZNK3MPI8Datatype15Unpack_externalEPKcPKvlRlPvi,@function
_ZNK3MPI8Datatype15Unpack_externalEPKcPKvlRlPvi: # @_ZNK3MPI8Datatype15Unpack_externalEPKcPKvlRlPvi
.Lfunc_begin20:
	.loc	7 186 0                 # /usr/lib/x86_64-linux-gnu/openmpi/include/openmpi/ompi/mpi/cxx/datatype_inln.h:186:0
	.cfi_startproc
# %bb.0:                                # %L.entry
	#DEBUG_VALUE: Unpack_external: <- $rdi
	#DEBUG_VALUE: Unpack_external:datarep <- $rsi
	#DEBUG_VALUE: Unpack_external:inbuf <- $rdx
	#DEBUG_VALUE: Unpack_external:insize <- $rcx
	#DEBUG_VALUE: Unpack_external:position <- $r8
	#DEBUG_VALUE: Unpack_external:outbuf <- $r9
	pushq	%rbp
	.cfi_def_cfa_offset 16
	.cfi_offset %rbp, -16
	movq	%rsp, %rbp
	.cfi_def_cfa_register %rbp
	subq	$16, %rsp
.Ltmp269:
	#DEBUG_VALUE:  <- $rdi
	#DEBUG_VALUE: datarep <- $rsi
	#DEBUG_VALUE: inbuf <- $rdx
	#DEBUG_VALUE: insize <- $rcx
	#DEBUG_VALUE: position <- $r8
	#DEBUG_VALUE: outbuf <- $r9
	movq	%r9, %rax
	movl	16(%rbp), %r9d
.Ltmp270:
	#DEBUG_VALUE: outcount <- [DW_OP_plus_uconst 16] [$rbp+0]
	#DEBUG_VALUE: Unpack_external:outcount <- [DW_OP_plus_uconst 16] [$rbp+0]
	#DEBUG_VALUE: outbuf <- $rax
	#DEBUG_VALUE: Unpack_external:outbuf <- $rax
	#DEBUG_VALUE: position <- $r8
	#DEBUG_VALUE: Unpack_external:position <- $r8
	#DEBUG_VALUE: insize <- $rcx
	#DEBUG_VALUE: Unpack_external:insize <- $rcx
	#DEBUG_VALUE: inbuf <- $rdx
	#DEBUG_VALUE: Unpack_external:inbuf <- $rdx
	#DEBUG_VALUE: datarep <- $rsi
	#DEBUG_VALUE: Unpack_external:datarep <- $rsi
	#DEBUG_VALUE:  <- $rdi
	#DEBUG_VALUE: Unpack_external: <- $rdi
	.loc	7 187 1 prologue_end    # /usr/lib/x86_64-linux-gnu/openmpi/include/openmpi/ompi/mpi/cxx/datatype_inln.h:187:1
	movq	8(%rdi), %rdi
.Ltmp271:
	movq	%rdi, (%rsp)
	movq	%rsi, %rdi
.Ltmp272:
	#DEBUG_VALUE: datarep <- $rdi
	#DEBUG_VALUE: Unpack_external:datarep <- $rdi
	movq	%rdx, %rsi
.Ltmp273:
	#DEBUG_VALUE: inbuf <- $rsi
	#DEBUG_VALUE: Unpack_external:inbuf <- $rsi
	movq	%rcx, %rdx
.Ltmp274:
	#DEBUG_VALUE: insize <- $rdx
	#DEBUG_VALUE: Unpack_external:insize <- $rdx
	movq	%r8, %rcx
.Ltmp275:
	#DEBUG_VALUE: position <- $rcx
	#DEBUG_VALUE: Unpack_external:position <- $rcx
	movq	%rax, %r8
.Ltmp276:
	#DEBUG_VALUE: outbuf <- $r8
	#DEBUG_VALUE: Unpack_external:outbuf <- $r8
	callq	MPI_Unpack_external
.Ltmp277:
	.loc	7 189 1                 # /usr/lib/x86_64-linux-gnu/openmpi/include/openmpi/ompi/mpi/cxx/datatype_inln.h:189:1
	addq	$16, %rsp
	popq	%rbp
	.cfi_def_cfa %rsp, 8
	retq
.Ltmp278:
.Lfunc_end20:
	.size	_ZNK3MPI8Datatype15Unpack_externalEPKcPKvlRlPvi, .Lfunc_end20-_ZNK3MPI8Datatype15Unpack_externalEPKcPKvlRlPvi
	.cfi_endproc
                                        # -- End function
	.weak	_ZNK3MPI8Datatype15Create_subarrayEiPKiS2_S2_i # -- Begin function _ZNK3MPI8Datatype15Create_subarrayEiPKiS2_S2_i
	.p2align	4, 0x90
	.type	_ZNK3MPI8Datatype15Create_subarrayEiPKiS2_S2_i,@function
_ZNK3MPI8Datatype15Create_subarrayEiPKiS2_S2_i: # @_ZNK3MPI8Datatype15Create_subarrayEiPKiS2_S2_i
.Lfunc_begin21:
	.loc	7 200 0                 # /usr/lib/x86_64-linux-gnu/openmpi/include/openmpi/ompi/mpi/cxx/datatype_inln.h:200:0
	.cfi_startproc
# %bb.0:                                # %L.entry
	#DEBUG_VALUE: Create_subarray: <- $rsi
	#DEBUG_VALUE: Create_subarray:ndims <- $edx
	#DEBUG_VALUE: Create_subarray:array_of_sizes <- $rcx
	#DEBUG_VALUE: Create_subarray:array_of_subsizes <- $r8
	#DEBUG_VALUE: Create_subarray:array_of_starts <- $r9
	pushq	%rbp
	.cfi_def_cfa_offset 16
	.cfi_offset %rbp, -16
	movq	%rsp, %rbp
	.cfi_def_cfa_register %rbp
	pushq	%rbx
	subq	$24, %rsp
	.cfi_offset %rbx, -24
	movq	%r9, %r10
	movq	%r8, %rax
	movq	%rdi, %rbx
	movl	16(%rbp), %r8d
.Ltmp279:
	#DEBUG_VALUE:  <- $rsi
	#DEBUG_VALUE: order <- $r8d
	#DEBUG_VALUE: array_of_starts <- $r10
	#DEBUG_VALUE: array_of_subsizes <- $rax
	#DEBUG_VALUE: array_of_sizes <- $rcx
	#DEBUG_VALUE: ndims <- $edx
	#DEBUG_VALUE: Create_subarray:order <- [DW_OP_plus_uconst 16] [$rbp+0]
	#DEBUG_VALUE: Create_subarray:array_of_starts <- $r10
	#DEBUG_VALUE: Create_subarray:array_of_subsizes <- $rax
	#DEBUG_VALUE: Create_subarray:array_of_sizes <- $rcx
	#DEBUG_VALUE: Create_subarray:ndims <- $edx
	#DEBUG_VALUE: Create_subarray: <- $rsi
	.loc	7 202 1 prologue_end    # /usr/lib/x86_64-linux-gnu/openmpi/include/openmpi/ompi/mpi/cxx/datatype_inln.h:202:1
	movq	8(%rsi), %r9
.Ltmp280:
	#DEBUG_VALUE: type <- [DW_OP_constu 16, DW_OP_minus, DW_OP_deref] $rbp
	.loc	7 0 1 is_stmt 0         # /usr/lib/x86_64-linux-gnu/openmpi/include/openmpi/ompi/mpi/cxx/datatype_inln.h:0:1
	leaq	-16(%rbp), %rsi
.Ltmp281:
	.loc	7 202 1                 # /usr/lib/x86_64-linux-gnu/openmpi/include/openmpi/ompi/mpi/cxx/datatype_inln.h:202:1
	movq	%rsi, (%rsp)
	movl	%edx, %edi
.Ltmp282:
	#DEBUG_VALUE: Create_subarray:ndims <- $edi
	movq	%rcx, %rsi
.Ltmp283:
	#DEBUG_VALUE: Create_subarray:array_of_sizes <- $rsi
	movq	%rax, %rdx
.Ltmp284:
	#DEBUG_VALUE: Create_subarray:array_of_subsizes <- $rdx
	movq	%r10, %rcx
.Ltmp285:
	#DEBUG_VALUE: Create_subarray:array_of_starts <- $rcx
	callq	MPI_Type_create_subarray
.Ltmp286:
	.loc	7 206 1 is_stmt 1       # /usr/lib/x86_64-linux-gnu/openmpi/include/openmpi/ompi/mpi/cxx/datatype_inln.h:206:1
	movq	-16(%rbp), %rax
.Ltmp287:
	#DEBUG_VALUE: type <- undef
	movq	$_ZTVN3MPI8DatatypeE+16, (%rbx)
	.loc	7 72 1                  # /usr/lib/x86_64-linux-gnu/openmpi/include/openmpi/ompi/mpi/cxx/datatype_inln.h:72:1
	movq	%rax, 8(%rbx)
	.loc	7 207 1                 # /usr/lib/x86_64-linux-gnu/openmpi/include/openmpi/ompi/mpi/cxx/datatype_inln.h:207:1
	movq	%rbx, %rax
	addq	$24, %rsp
	popq	%rbx
	popq	%rbp
	.cfi_def_cfa %rsp, 8
	retq
.Ltmp288:
.Lfunc_end21:
	.size	_ZNK3MPI8Datatype15Create_subarrayEiPKiS2_S2_i, .Lfunc_end21-_ZNK3MPI8Datatype15Create_subarrayEiPKiS2_S2_i
	.cfi_endproc
                                        # -- End function
	.weak	_ZNK3MPI8Datatype13Create_darrayEiiiPKiS2_S2_S2_i # -- Begin function _ZNK3MPI8Datatype13Create_darrayEiiiPKiS2_S2_S2_i
	.p2align	4, 0x90
	.type	_ZNK3MPI8Datatype13Create_darrayEiiiPKiS2_S2_S2_i,@function
_ZNK3MPI8Datatype13Create_darrayEiiiPKiS2_S2_S2_i: # @_ZNK3MPI8Datatype13Create_darrayEiiiPKiS2_S2_S2_i
.Lfunc_begin22:
	.loc	7 214 0                 # /usr/lib/x86_64-linux-gnu/openmpi/include/openmpi/ompi/mpi/cxx/datatype_inln.h:214:0
	.cfi_startproc
# %bb.0:                                # %L.entry
	#DEBUG_VALUE: Create_darray: <- $rsi
	#DEBUG_VALUE: Create_darray:size <- $edx
	#DEBUG_VALUE: Create_darray:rank <- $ecx
	#DEBUG_VALUE: Create_darray:ndims <- $r8d
	#DEBUG_VALUE: Create_darray:array_of_gsizes <- $r9
	pushq	%rbp
	.cfi_def_cfa_offset 16
	.cfi_offset %rbp, -16
	movq	%rsp, %rbp
	.cfi_def_cfa_register %rbp
	pushq	%r15
	pushq	%r14
	pushq	%rbx
	pushq	%rax
	.cfi_offset %rbx, -40
	.cfi_offset %r14, -32
	.cfi_offset %r15, -24
	movq	%r9, %r11
	movl	%r8d, %eax
	movq	%rsi, %r10
	movq	%rdi, %rbx
	movq	16(%rbp), %r8
.Ltmp289:
	movq	24(%rbp), %r9
.Ltmp290:
	#DEBUG_VALUE: array_of_psizes <- undef
	movl	40(%rbp), %r14d
.Ltmp291:
	#DEBUG_VALUE: type <- [DW_OP_constu 32, DW_OP_minus, DW_OP_deref] $rbp
	#DEBUG_VALUE:  <- $r10
	#DEBUG_VALUE: order <- $r14d
	#DEBUG_VALUE: array_of_dargs <- $r9
	#DEBUG_VALUE: array_of_distribs <- $r8
	#DEBUG_VALUE: array_of_gsizes <- $r11
	#DEBUG_VALUE: ndims <- $eax
	#DEBUG_VALUE: rank <- $ecx
	#DEBUG_VALUE: size <- $edx
	#DEBUG_VALUE: Create_darray:order <- [DW_OP_plus_uconst 40] [$rbp+0]
	#DEBUG_VALUE: Create_darray:array_of_psizes <- [DW_OP_plus_uconst 32] [$rbp+0]
	#DEBUG_VALUE: Create_darray:array_of_dargs <- [DW_OP_plus_uconst 24] [$rbp+0]
	#DEBUG_VALUE: Create_darray:array_of_distribs <- [DW_OP_plus_uconst 16] [$rbp+0]
	#DEBUG_VALUE: Create_darray:array_of_gsizes <- $r11
	#DEBUG_VALUE: Create_darray:ndims <- $eax
	#DEBUG_VALUE: Create_darray:rank <- $ecx
	#DEBUG_VALUE: Create_darray:size <- $edx
	#DEBUG_VALUE: Create_darray: <- $r10
	leaq	-32(%rbp), %r15
.Ltmp292:
	.loc	7 216 1 prologue_end    # /usr/lib/x86_64-linux-gnu/openmpi/include/openmpi/ompi/mpi/cxx/datatype_inln.h:216:1
	movl	%edx, %edi
.Ltmp293:
	#DEBUG_VALUE: Create_darray:size <- $edi
	movl	%ecx, %esi
.Ltmp294:
	#DEBUG_VALUE: Create_darray:rank <- $esi
	movl	%eax, %edx
.Ltmp295:
	#DEBUG_VALUE: Create_darray:ndims <- $edx
	movq	%r11, %rcx
.Ltmp296:
	#DEBUG_VALUE: Create_darray:array_of_gsizes <- $rcx
	pushq	%r15
	pushq	8(%r10)
	pushq	%r14
	pushq	32(%rbp)
	callq	MPI_Type_create_darray
.Ltmp297:
	addq	$32, %rsp
	.loc	7 222 1                 # /usr/lib/x86_64-linux-gnu/openmpi/include/openmpi/ompi/mpi/cxx/datatype_inln.h:222:1
	movq	-32(%rbp), %rax
.Ltmp298:
	#DEBUG_VALUE: type <- undef
	movq	$_ZTVN3MPI8DatatypeE+16, (%rbx)
	.loc	7 72 1                  # /usr/lib/x86_64-linux-gnu/openmpi/include/openmpi/ompi/mpi/cxx/datatype_inln.h:72:1
	movq	%rax, 8(%rbx)
	.loc	7 223 1                 # /usr/lib/x86_64-linux-gnu/openmpi/include/openmpi/ompi/mpi/cxx/datatype_inln.h:223:1
	movq	%rbx, %rax
	addq	$8, %rsp
	popq	%rbx
	popq	%r14
.Ltmp299:
	popq	%r15
	popq	%rbp
	.cfi_def_cfa %rsp, 8
	retq
.Ltmp300:
.Lfunc_end22:
	.size	_ZNK3MPI8Datatype13Create_darrayEiiiPKiS2_S2_S2_i, .Lfunc_end22-_ZNK3MPI8Datatype13Create_darrayEiiiPKiS2_S2_S2_i
	.cfi_endproc
                                        # -- End function
	.weak	_ZNK3MPI8Datatype3DupEv # -- Begin function _ZNK3MPI8Datatype3DupEv
	.p2align	4, 0x90
	.type	_ZNK3MPI8Datatype3DupEv,@function
_ZNK3MPI8Datatype3DupEv:                # @_ZNK3MPI8Datatype3DupEv
.Lfunc_begin23:
	.loc	7 264 0                 # /usr/lib/x86_64-linux-gnu/openmpi/include/openmpi/ompi/mpi/cxx/datatype_inln.h:264:0
	.cfi_startproc
# %bb.0:                                # %L.entry
	#DEBUG_VALUE: Dup: <- $rsi
	pushq	%rbp
	.cfi_def_cfa_offset 16
	.cfi_offset %rbp, -16
	movq	%rsp, %rbp
	.cfi_def_cfa_register %rbp
	pushq	%rbx
	pushq	%rax
	.cfi_offset %rbx, -24
	movq	%rdi, %rbx
.Ltmp301:
	#DEBUG_VALUE:  <- $rsi
	#DEBUG_VALUE: Dup: <- $rsi
	.loc	7 266 1 prologue_end    # /usr/lib/x86_64-linux-gnu/openmpi/include/openmpi/ompi/mpi/cxx/datatype_inln.h:266:1
	movq	8(%rsi), %rdi
.Ltmp302:
	#DEBUG_VALUE: type <- [DW_OP_constu 16, DW_OP_minus, DW_OP_deref] $rbp
	.loc	7 0 1 is_stmt 0         # /usr/lib/x86_64-linux-gnu/openmpi/include/openmpi/ompi/mpi/cxx/datatype_inln.h:0:1
	leaq	-16(%rbp), %rsi
.Ltmp303:
	.loc	7 266 1                 # /usr/lib/x86_64-linux-gnu/openmpi/include/openmpi/ompi/mpi/cxx/datatype_inln.h:266:1
	callq	MPI_Type_dup
	.loc	7 267 1 is_stmt 1       # /usr/lib/x86_64-linux-gnu/openmpi/include/openmpi/ompi/mpi/cxx/datatype_inln.h:267:1
	movq	-16(%rbp), %rax
.Ltmp304:
	#DEBUG_VALUE: type <- undef
	movq	$_ZTVN3MPI8DatatypeE+16, (%rbx)
	.loc	7 72 1                  # /usr/lib/x86_64-linux-gnu/openmpi/include/openmpi/ompi/mpi/cxx/datatype_inln.h:72:1
	movq	%rax, 8(%rbx)
	.loc	7 268 1                 # /usr/lib/x86_64-linux-gnu/openmpi/include/openmpi/ompi/mpi/cxx/datatype_inln.h:268:1
	movq	%rbx, %rax
	addq	$8, %rsp
	popq	%rbx
	popq	%rbp
	.cfi_def_cfa %rsp, 8
	retq
.Ltmp305:
.Lfunc_end23:
	.size	_ZNK3MPI8Datatype3DupEv, .Lfunc_end23-_ZNK3MPI8Datatype3DupEv
	.cfi_endproc
                                        # -- End function
	.weak	_ZN3MPI8Datatype11Delete_attrEi # -- Begin function _ZN3MPI8Datatype11Delete_attrEi
	.p2align	4, 0x90
	.type	_ZN3MPI8Datatype11Delete_attrEi,@function
_ZN3MPI8Datatype11Delete_attrEi:        # @_ZN3MPI8Datatype11Delete_attrEi
.Lfunc_begin24:
	.loc	7 333 0                 # /usr/lib/x86_64-linux-gnu/openmpi/include/openmpi/ompi/mpi/cxx/datatype_inln.h:333:0
	.cfi_startproc
# %bb.0:                                # %L.entry
	#DEBUG_VALUE: Delete_attr: <- $rdi
	#DEBUG_VALUE: Delete_attr: <- $rdi
	#DEBUG_VALUE: Delete_attr:type_keyval <- $esi
	#DEBUG_VALUE: Delete_attr:type_keyval <- $esi
	pushq	%rbp
	.cfi_def_cfa_offset 16
	.cfi_offset %rbp, -16
	movq	%rsp, %rbp
	.cfi_def_cfa_register %rbp
.Ltmp306:
	#DEBUG_VALUE:  <- $rdi
	#DEBUG_VALUE:  <- $rdi
	#DEBUG_VALUE: type_keyval <- $esi
	#DEBUG_VALUE: type_keyval <- $esi
	.loc	7 334 1 prologue_end    # /usr/lib/x86_64-linux-gnu/openmpi/include/openmpi/ompi/mpi/cxx/datatype_inln.h:334:1
	movq	8(%rdi), %rdi
.Ltmp307:
	#DEBUG_VALUE: type_keyval <- $esi
	#DEBUG_VALUE: Delete_attr:type_keyval <- $esi
	popq	%rbp
	.cfi_def_cfa %rsp, 8
	jmp	MPI_Type_delete_attr    # TAILCALL
.Ltmp308:
.Lfunc_end24:
	.size	_ZN3MPI8Datatype11Delete_attrEi, .Lfunc_end24-_ZN3MPI8Datatype11Delete_attrEi
	.cfi_endproc
                                        # -- End function
	.weak	_ZNK3MPI8Datatype8Get_attrEiPv # -- Begin function _ZNK3MPI8Datatype8Get_attrEiPv
	.p2align	4, 0x90
	.type	_ZNK3MPI8Datatype8Get_attrEiPv,@function
_ZNK3MPI8Datatype8Get_attrEiPv:         # @_ZNK3MPI8Datatype8Get_attrEiPv
.Lfunc_begin25:
	.loc	7 346 0                 # /usr/lib/x86_64-linux-gnu/openmpi/include/openmpi/ompi/mpi/cxx/datatype_inln.h:346:0
	.cfi_startproc
# %bb.0:                                # %L.entry
	#DEBUG_VALUE: Get_attr: <- $rdi
	#DEBUG_VALUE: Get_attr: <- $rdi
	#DEBUG_VALUE: Get_attr:type_keyval <- $esi
	#DEBUG_VALUE: Get_attr:type_keyval <- $esi
	#DEBUG_VALUE: Get_attr:attribute_val <- $rdx
	#DEBUG_VALUE: Get_attr:attribute_val <- $rdx
	pushq	%rbp
	.cfi_def_cfa_offset 16
	.cfi_offset %rbp, -16
	movq	%rsp, %rbp
	.cfi_def_cfa_register %rbp
	subq	$16, %rsp
.Ltmp309:
	#DEBUG_VALUE:  <- $rdi
	#DEBUG_VALUE: type_keyval <- $esi
	#DEBUG_VALUE: attribute_val <- $rdx
	.loc	7 348 1 prologue_end    # /usr/lib/x86_64-linux-gnu/openmpi/include/openmpi/ompi/mpi/cxx/datatype_inln.h:348:1
	movq	8(%rdi), %rdi
.Ltmp310:
	#DEBUG_VALUE: ret <- [DW_OP_constu 4, DW_OP_minus, DW_OP_deref] $rbp
	.loc	7 0 1 is_stmt 0         # /usr/lib/x86_64-linux-gnu/openmpi/include/openmpi/ompi/mpi/cxx/datatype_inln.h:0:1
	leaq	-4(%rbp), %rcx
	#DEBUG_VALUE: Get_attr:attribute_val <- $rdx
	#DEBUG_VALUE: Get_attr:type_keyval <- $esi
	.loc	7 348 1                 # /usr/lib/x86_64-linux-gnu/openmpi/include/openmpi/ompi/mpi/cxx/datatype_inln.h:348:1
	callq	MPI_Type_get_attr
.Ltmp311:
	#DEBUG_VALUE: ret <- undef
	.loc	7 349 1 is_stmt 1       # /usr/lib/x86_64-linux-gnu/openmpi/include/openmpi/ompi/mpi/cxx/datatype_inln.h:349:1
	cmpl	$0, -4(%rbp)
	setne	%al
	addq	$16, %rsp
	popq	%rbp
	.cfi_def_cfa %rsp, 8
	retq
.Ltmp312:
.Lfunc_end25:
	.size	_ZNK3MPI8Datatype8Get_attrEiPv, .Lfunc_end25-_ZNK3MPI8Datatype8Get_attrEiPv
	.cfi_endproc
                                        # -- End function
	.weak	_ZNK3MPI8Datatype12Get_contentsEiiiPiPlPS0_ # -- Begin function _ZNK3MPI8Datatype12Get_contentsEiiiPiPlPS0_
	.p2align	4, 0x90
	.type	_ZNK3MPI8Datatype12Get_contentsEiiiPiPlPS0_,@function
_ZNK3MPI8Datatype12Get_contentsEiiiPiPlPS0_: # @_ZNK3MPI8Datatype12Get_contentsEiiiPiPlPS0_
.Lfunc_begin26:
	.loc	7 358 0                 # /usr/lib/x86_64-linux-gnu/openmpi/include/openmpi/ompi/mpi/cxx/datatype_inln.h:358:0
	.cfi_startproc
# %bb.0:                                # %L.entry
	#DEBUG_VALUE: Get_contents: <- $rdi
	#DEBUG_VALUE: Get_contents:max_integers <- $esi
	#DEBUG_VALUE: Get_contents:max_addresses <- $edx
	#DEBUG_VALUE: Get_contents:max_datatypes <- $ecx
	#DEBUG_VALUE: Get_contents:array_of_integers <- $r8
	#DEBUG_VALUE: Get_contents:array_of_addresses <- $r9
	pushq	%rbp
	.cfi_def_cfa_offset 16
	.cfi_offset %rbp, -16
	movq	%rsp, %rbp
	.cfi_def_cfa_register %rbp
	pushq	%r15
	pushq	%r14
	pushq	%r13
	pushq	%r12
	pushq	%rbx
	subq	$40, %rsp
	.cfi_offset %rbx, -56
	.cfi_offset %r12, -48
	.cfi_offset %r13, -40
	.cfi_offset %r14, -32
	.cfi_offset %r15, -24
.Ltmp313:
	#DEBUG_VALUE:  <- $rdi
	#DEBUG_VALUE: max_integers <- $esi
	#DEBUG_VALUE: max_addresses <- $edx
	#DEBUG_VALUE: max_datatypes <- $ecx
	#DEBUG_VALUE: array_of_integers <- $r8
	#DEBUG_VALUE: array_of_addresses <- $r9
	movq	%r9, -72(%rbp)          # 8-byte Spill
	movq	%r8, -64(%rbp)          # 8-byte Spill
	movl	%ecx, %r13d
	movl	%edx, -52(%rbp)         # 4-byte Spill
	movl	%esi, %r15d
	movq	%rdi, %r12
	movq	16(%rbp), %rax
	movq	%rax, -48(%rbp)         # 8-byte Spill
.Ltmp314:
	#DEBUG_VALUE: array_of_datatypes <- [DW_OP_plus_uconst 16] [$rbp+0]
	#DEBUG_VALUE: Get_contents:array_of_datatypes <- [DW_OP_plus_uconst 16] [$rbp+0]
	#DEBUG_VALUE: array_of_addresses <- [DW_OP_constu 72, DW_OP_minus] [$rbp+0]
	#DEBUG_VALUE: Get_contents:array_of_addresses <- [DW_OP_constu 72, DW_OP_minus] [$rbp+0]
	#DEBUG_VALUE: array_of_integers <- [DW_OP_constu 64, DW_OP_minus] [$rbp+0]
	#DEBUG_VALUE: Get_contents:array_of_integers <- [DW_OP_constu 64, DW_OP_minus] [$rbp+0]
	#DEBUG_VALUE: max_datatypes <- $r13d
	#DEBUG_VALUE: Get_contents:max_datatypes <- $r13d
	#DEBUG_VALUE: max_addresses <- [DW_OP_constu 52, DW_OP_minus] [$rbp+0]
	#DEBUG_VALUE: Get_contents:max_addresses <- [DW_OP_constu 52, DW_OP_minus] [$rbp+0]
	#DEBUG_VALUE: max_integers <- $r15d
	#DEBUG_VALUE: Get_contents:max_integers <- $r15d
	#DEBUG_VALUE:  <- $r12
	#DEBUG_VALUE: Get_contents: <- $r12
	.loc	7 360 1 prologue_end    # /usr/lib/x86_64-linux-gnu/openmpi/include/openmpi/ompi/mpi/cxx/datatype_inln.h:360:1
	movslq	%ecx, %r14
	leaq	(,%r14,8), %rdi
	callq	_Znam
	movq	%rax, %rbx
.Ltmp315:
	#DEBUG_VALUE: c_datatypes <- $rbx
	.loc	7 362 1                 # /usr/lib/x86_64-linux-gnu/openmpi/include/openmpi/ompi/mpi/cxx/datatype_inln.h:362:1
	movq	8(%r12), %rdi
	movq	%rax, (%rsp)
	movl	%r15d, %esi
.Ltmp316:
	#DEBUG_VALUE: max_integers <- $esi
	#DEBUG_VALUE: Get_contents:max_integers <- $esi
	.loc	7 0 1 is_stmt 0         # /usr/lib/x86_64-linux-gnu/openmpi/include/openmpi/ompi/mpi/cxx/datatype_inln.h:0:1
	movl	-52(%rbp), %edx         # 4-byte Reload
.Ltmp317:
	#DEBUG_VALUE: max_addresses <- $edx
	#DEBUG_VALUE: Get_contents:max_addresses <- $edx
	.loc	7 362 1                 # /usr/lib/x86_64-linux-gnu/openmpi/include/openmpi/ompi/mpi/cxx/datatype_inln.h:362:1
	movl	%r14d, %ecx
	movq	-64(%rbp), %r8          # 8-byte Reload
.Ltmp318:
	#DEBUG_VALUE: array_of_integers <- $r8
	#DEBUG_VALUE: Get_contents:array_of_integers <- $r8
	.loc	7 0 1                   # /usr/lib/x86_64-linux-gnu/openmpi/include/openmpi/ompi/mpi/cxx/datatype_inln.h:0:1
	movq	-72(%rbp), %r9          # 8-byte Reload
.Ltmp319:
	#DEBUG_VALUE: array_of_addresses <- $r9
	#DEBUG_VALUE: Get_contents:array_of_addresses <- $r9
	.loc	7 362 1                 # /usr/lib/x86_64-linux-gnu/openmpi/include/openmpi/ompi/mpi/cxx/datatype_inln.h:362:1
	callq	MPI_Type_get_contents
.Ltmp320:
	#DEBUG_VALUE: max_datatypes <- $r13d
	#DEBUG_VALUE: Get_contents:max_datatypes <- $r13d
	.loc	7 369 1 is_stmt 1       # /usr/lib/x86_64-linux-gnu/openmpi/include/openmpi/ompi/mpi/cxx/datatype_inln.h:369:1
	testl	%r14d, %r14d
	jle	.LBB26_13
.Ltmp321:
# %bb.1:                                # %L.B1142
	#DEBUG_VALUE: c_datatypes <- $rbx
	#DEBUG_VALUE: Get_contents: <- $r12
	#DEBUG_VALUE:  <- $r12
	#DEBUG_VALUE: Get_contents:max_datatypes <- $r13d
	#DEBUG_VALUE: max_datatypes <- $r13d
	#DEBUG_VALUE: Get_contents:array_of_datatypes <- [DW_OP_plus_uconst 16] [$rbp+0]
	#DEBUG_VALUE: array_of_datatypes <- [DW_OP_plus_uconst 16] [$rbp+0]
	.loc	7 0 1 is_stmt 0         # /usr/lib/x86_64-linux-gnu/openmpi/include/openmpi/ompi/mpi/cxx/datatype_inln.h:0:1
	xorl	%eax, %eax
	.loc	7 369 1                 # /usr/lib/x86_64-linux-gnu/openmpi/include/openmpi/ompi/mpi/cxx/datatype_inln.h:369:1
	cmpl	$4, %r13d
	jl	.LBB26_5
.Ltmp322:
# %bb.2:                                # %L.B1143
	#DEBUG_VALUE: c_datatypes <- $rbx
	#DEBUG_VALUE: Get_contents: <- $r12
	#DEBUG_VALUE:  <- $r12
	#DEBUG_VALUE: Get_contents:max_datatypes <- $r13d
	#DEBUG_VALUE: max_datatypes <- $r13d
	#DEBUG_VALUE: Get_contents:array_of_datatypes <- [DW_OP_plus_uconst 16] [$rbp+0]
	#DEBUG_VALUE: array_of_datatypes <- [DW_OP_plus_uconst 16] [$rbp+0]
	movl	%r13d, %ecx
	shrl	$31, %ecx
	addl	%r13d, %ecx
	movl	%ecx, %edx
	sarl	$2, %edx
	andl	$-4, %ecx
	movq	-48(%rbp), %rax         # 8-byte Reload
	leaq	56(%rax), %rsi
	xorl	%eax, %eax
.Ltmp323:
	.p2align	4, 0x90
.LBB26_3:                               # %L.B1136
                                        # =>This Inner Loop Header: Depth=1
	#DEBUG_VALUE: c_datatypes <- $rbx
	#DEBUG_VALUE: Get_contents: <- $r12
	#DEBUG_VALUE:  <- $r12
	#DEBUG_VALUE: Get_contents:max_datatypes <- $r13d
	#DEBUG_VALUE: max_datatypes <- $r13d
	#DEBUG_VALUE: Get_contents:array_of_datatypes <- [DW_OP_plus_uconst 16] [$rbp+0]
	#DEBUG_VALUE: array_of_datatypes <- [DW_OP_plus_uconst 16] [$rbp+0]
	movq	(%rbx,%rax,8), %rdi
	movq	%rdi, -48(%rsi)
	movq	8(%rbx,%rax,8), %rdi
	movq	%rdi, -32(%rsi)
	movq	16(%rbx,%rax,8), %rdi
	movq	%rdi, -16(%rsi)
	movq	24(%rbx,%rax,8), %rdi
	movq	%rdi, (%rsi)
	addq	$4, %rax
	addq	$64, %rsi
	decl	%edx
	jg	.LBB26_3
.Ltmp324:
# %bb.4:                                # %L.B1138.loopexit
	#DEBUG_VALUE: c_datatypes <- $rbx
	#DEBUG_VALUE: Get_contents: <- $r12
	#DEBUG_VALUE:  <- $r12
	#DEBUG_VALUE: Get_contents:max_datatypes <- $r13d
	#DEBUG_VALUE: max_datatypes <- $r13d
	#DEBUG_VALUE: Get_contents:array_of_datatypes <- [DW_OP_plus_uconst 16] [$rbp+0]
	#DEBUG_VALUE: array_of_datatypes <- [DW_OP_plus_uconst 16] [$rbp+0]
	subl	%ecx, %r13d
.Ltmp325:
.LBB26_5:                               # %L.B1138
	#DEBUG_VALUE: c_datatypes <- $rbx
	#DEBUG_VALUE: Get_contents: <- $r12
	#DEBUG_VALUE:  <- $r12
	#DEBUG_VALUE: Get_contents:array_of_datatypes <- [DW_OP_plus_uconst 16] [$rbp+0]
	#DEBUG_VALUE: array_of_datatypes <- [DW_OP_plus_uconst 16] [$rbp+0]
	testl	%r13d, %r13d
	je	.LBB26_13
.Ltmp326:
# %bb.6:                                # %L.B1138
	#DEBUG_VALUE: c_datatypes <- $rbx
	#DEBUG_VALUE: Get_contents: <- $r12
	#DEBUG_VALUE:  <- $r12
	#DEBUG_VALUE: Get_contents:array_of_datatypes <- [DW_OP_plus_uconst 16] [$rbp+0]
	#DEBUG_VALUE: array_of_datatypes <- [DW_OP_plus_uconst 16] [$rbp+0]
	cmpl	$1, %r13d
	je	.LBB26_7
.Ltmp327:
# %bb.8:                                # %L.B1138
	#DEBUG_VALUE: c_datatypes <- $rbx
	#DEBUG_VALUE: Get_contents: <- $r12
	#DEBUG_VALUE:  <- $r12
	#DEBUG_VALUE: Get_contents:array_of_datatypes <- [DW_OP_plus_uconst 16] [$rbp+0]
	#DEBUG_VALUE: array_of_datatypes <- [DW_OP_plus_uconst 16] [$rbp+0]
	cmpl	$2, %r13d
	jne	.LBB26_10
.Ltmp328:
# %bb.9:
	#DEBUG_VALUE: c_datatypes <- $rbx
	#DEBUG_VALUE: Get_contents: <- $r12
	#DEBUG_VALUE:  <- $r12
	#DEBUG_VALUE: Get_contents:array_of_datatypes <- [DW_OP_plus_uconst 16] [$rbp+0]
	#DEBUG_VALUE: array_of_datatypes <- [DW_OP_plus_uconst 16] [$rbp+0]
	.loc	7 0 1                   # /usr/lib/x86_64-linux-gnu/openmpi/include/openmpi/ompi/mpi/cxx/datatype_inln.h:0:1
	movq	-48(%rbp), %rsi         # 8-byte Reload
	jmp	.LBB26_11
.Ltmp329:
.LBB26_7:
	#DEBUG_VALUE: c_datatypes <- $rbx
	#DEBUG_VALUE: Get_contents: <- $r12
	#DEBUG_VALUE:  <- $r12
	#DEBUG_VALUE: Get_contents:array_of_datatypes <- [DW_OP_plus_uconst 16] [$rbp+0]
	#DEBUG_VALUE: array_of_datatypes <- [DW_OP_plus_uconst 16] [$rbp+0]
	movq	-48(%rbp), %rsi         # 8-byte Reload
	jmp	.LBB26_12
.Ltmp330:
.LBB26_10:                              # %L.B1147
	#DEBUG_VALUE: c_datatypes <- $rbx
	#DEBUG_VALUE: Get_contents: <- $r12
	#DEBUG_VALUE:  <- $r12
	#DEBUG_VALUE: Get_contents:array_of_datatypes <- [DW_OP_plus_uconst 16] [$rbp+0]
	#DEBUG_VALUE: array_of_datatypes <- [DW_OP_plus_uconst 16] [$rbp+0]
	.loc	7 369 1                 # /usr/lib/x86_64-linux-gnu/openmpi/include/openmpi/ompi/mpi/cxx/datatype_inln.h:369:1
	cltq
	movq	(%rbx,%rax,8), %rcx
	movq	%rax, %rdx
	shlq	$4, %rdx
	movq	-48(%rbp), %rsi         # 8-byte Reload
	movq	%rcx, 8(%rsi,%rdx)
	incl	%eax
.Ltmp331:
.LBB26_11:                              # %L.B1141
	#DEBUG_VALUE: c_datatypes <- $rbx
	#DEBUG_VALUE: Get_contents: <- $r12
	#DEBUG_VALUE:  <- $r12
	#DEBUG_VALUE: Get_contents:array_of_datatypes <- [DW_OP_plus_uconst 16] [$rbp+0]
	#DEBUG_VALUE: array_of_datatypes <- [DW_OP_plus_uconst 16] [$rbp+0]
	cltq
	movq	(%rbx,%rax,8), %rcx
	movq	%rax, %rdx
	shlq	$4, %rdx
	movq	%rcx, 8(%rsi,%rdx)
	incl	%eax
.Ltmp332:
.LBB26_12:                              # %L.B1140
	#DEBUG_VALUE: c_datatypes <- $rbx
	#DEBUG_VALUE: Get_contents: <- $r12
	#DEBUG_VALUE:  <- $r12
	#DEBUG_VALUE: Get_contents:array_of_datatypes <- [DW_OP_plus_uconst 16] [$rbp+0]
	#DEBUG_VALUE: array_of_datatypes <- [DW_OP_plus_uconst 16] [$rbp+0]
	cltq
	movq	(%rbx,%rax,8), %rcx
	shlq	$4, %rax
	movq	%rcx, 8(%rsi,%rax)
.Ltmp333:
.LBB26_13:                              # %L.B1137
	#DEBUG_VALUE: c_datatypes <- $rbx
	#DEBUG_VALUE: Get_contents: <- $r12
	#DEBUG_VALUE:  <- $r12
	#DEBUG_VALUE: Get_contents:array_of_datatypes <- [DW_OP_plus_uconst 16] [$rbp+0]
	#DEBUG_VALUE: array_of_datatypes <- [DW_OP_plus_uconst 16] [$rbp+0]
	.loc	7 372 1 is_stmt 1       # /usr/lib/x86_64-linux-gnu/openmpi/include/openmpi/ompi/mpi/cxx/datatype_inln.h:372:1
	movq	%rbx, %rdi
	addq	$40, %rsp
	popq	%rbx
.Ltmp334:
	popq	%r12
.Ltmp335:
	popq	%r13
	popq	%r14
	popq	%r15
	popq	%rbp
	.cfi_def_cfa %rsp, 8
	jmp	_ZdaPv                  # TAILCALL
.Ltmp336:
.Lfunc_end26:
	.size	_ZNK3MPI8Datatype12Get_contentsEiiiPiPlPS0_, .Lfunc_end26-_ZNK3MPI8Datatype12Get_contentsEiiiPiPlPS0_
	.cfi_endproc
                                        # -- End function
	.weak	_ZNK3MPI8Datatype12Get_envelopeERiS1_S1_S1_ # -- Begin function _ZNK3MPI8Datatype12Get_envelopeERiS1_S1_S1_
	.p2align	4, 0x90
	.type	_ZNK3MPI8Datatype12Get_envelopeERiS1_S1_S1_,@function
_ZNK3MPI8Datatype12Get_envelopeERiS1_S1_S1_: # @_ZNK3MPI8Datatype12Get_envelopeERiS1_S1_S1_
.Lfunc_begin27:
	.loc	7 378 0                 # /usr/lib/x86_64-linux-gnu/openmpi/include/openmpi/ompi/mpi/cxx/datatype_inln.h:378:0
	.cfi_startproc
# %bb.0:                                # %L.entry
	#DEBUG_VALUE: Get_envelope: <- $rdi
	#DEBUG_VALUE: Get_envelope: <- $rdi
	#DEBUG_VALUE: Get_envelope:num_integers <- $rsi
	#DEBUG_VALUE: Get_envelope:num_integers <- $rsi
	#DEBUG_VALUE: Get_envelope:num_addresses <- $rdx
	#DEBUG_VALUE: Get_envelope:num_addresses <- $rdx
	#DEBUG_VALUE: Get_envelope:num_datatypes <- $rcx
	#DEBUG_VALUE: Get_envelope:num_datatypes <- $rcx
	#DEBUG_VALUE: Get_envelope:combiner <- $r8
	#DEBUG_VALUE: Get_envelope:combiner <- $r8
	pushq	%rbp
	.cfi_def_cfa_offset 16
	.cfi_offset %rbp, -16
	movq	%rsp, %rbp
	.cfi_def_cfa_register %rbp
.Ltmp337:
	#DEBUG_VALUE:  <- $rdi
	#DEBUG_VALUE:  <- $rdi
	#DEBUG_VALUE: num_integers <- $rsi
	#DEBUG_VALUE: num_integers <- $rsi
	#DEBUG_VALUE: num_addresses <- $rdx
	#DEBUG_VALUE: num_addresses <- $rdx
	#DEBUG_VALUE: num_datatypes <- $rcx
	#DEBUG_VALUE: num_datatypes <- $rcx
	#DEBUG_VALUE: combiner <- $r8
	#DEBUG_VALUE: combiner <- $r8
	.loc	7 379 1 prologue_end    # /usr/lib/x86_64-linux-gnu/openmpi/include/openmpi/ompi/mpi/cxx/datatype_inln.h:379:1
	movq	8(%rdi), %rdi
.Ltmp338:
	#DEBUG_VALUE: combiner <- $r8
	#DEBUG_VALUE: Get_envelope:combiner <- $r8
	#DEBUG_VALUE: num_datatypes <- $rcx
	#DEBUG_VALUE: Get_envelope:num_datatypes <- $rcx
	#DEBUG_VALUE: num_addresses <- $rdx
	#DEBUG_VALUE: Get_envelope:num_addresses <- $rdx
	#DEBUG_VALUE: num_integers <- $rsi
	#DEBUG_VALUE: Get_envelope:num_integers <- $rsi
	popq	%rbp
	.cfi_def_cfa %rsp, 8
	jmp	MPI_Type_get_envelope   # TAILCALL
.Ltmp339:
.Lfunc_end27:
	.size	_ZNK3MPI8Datatype12Get_envelopeERiS1_S1_S1_, .Lfunc_end27-_ZNK3MPI8Datatype12Get_envelopeERiS1_S1_S1_
	.cfi_endproc
                                        # -- End function
	.weak	_ZNK3MPI8Datatype8Get_nameEPcRi # -- Begin function _ZNK3MPI8Datatype8Get_nameEPcRi
	.p2align	4, 0x90
	.type	_ZNK3MPI8Datatype8Get_nameEPcRi,@function
_ZNK3MPI8Datatype8Get_nameEPcRi:        # @_ZNK3MPI8Datatype8Get_nameEPcRi
.Lfunc_begin28:
	.loc	7 385 0                 # /usr/lib/x86_64-linux-gnu/openmpi/include/openmpi/ompi/mpi/cxx/datatype_inln.h:385:0
	.cfi_startproc
# %bb.0:                                # %L.entry
	#DEBUG_VALUE: Get_name: <- $rdi
	#DEBUG_VALUE: Get_name: <- $rdi
	#DEBUG_VALUE: Get_name:type_name <- $rsi
	#DEBUG_VALUE: Get_name:type_name <- $rsi
	#DEBUG_VALUE: Get_name:resultlen <- $rdx
	#DEBUG_VALUE: Get_name:resultlen <- $rdx
	pushq	%rbp
	.cfi_def_cfa_offset 16
	.cfi_offset %rbp, -16
	movq	%rsp, %rbp
	.cfi_def_cfa_register %rbp
.Ltmp340:
	#DEBUG_VALUE:  <- $rdi
	#DEBUG_VALUE:  <- $rdi
	#DEBUG_VALUE: type_name <- $rsi
	#DEBUG_VALUE: type_name <- $rsi
	#DEBUG_VALUE: resultlen <- $rdx
	#DEBUG_VALUE: resultlen <- $rdx
	.loc	7 386 1 prologue_end    # /usr/lib/x86_64-linux-gnu/openmpi/include/openmpi/ompi/mpi/cxx/datatype_inln.h:386:1
	movq	8(%rdi), %rdi
.Ltmp341:
	#DEBUG_VALUE: resultlen <- $rdx
	#DEBUG_VALUE: Get_name:resultlen <- $rdx
	#DEBUG_VALUE: type_name <- $rsi
	#DEBUG_VALUE: Get_name:type_name <- $rsi
	popq	%rbp
	.cfi_def_cfa %rsp, 8
	jmp	MPI_Type_get_name       # TAILCALL
.Ltmp342:
.Lfunc_end28:
	.size	_ZNK3MPI8Datatype8Get_nameEPcRi, .Lfunc_end28-_ZNK3MPI8Datatype8Get_nameEPcRi
	.cfi_endproc
                                        # -- End function
	.weak	_ZN3MPI8Datatype8Set_attrEiPKv # -- Begin function _ZN3MPI8Datatype8Set_attrEiPKv
	.p2align	4, 0x90
	.type	_ZN3MPI8Datatype8Set_attrEiPKv,@function
_ZN3MPI8Datatype8Set_attrEiPKv:         # @_ZN3MPI8Datatype8Set_attrEiPKv
.Lfunc_begin29:
	.loc	7 391 0                 # /usr/lib/x86_64-linux-gnu/openmpi/include/openmpi/ompi/mpi/cxx/datatype_inln.h:391:0
	.cfi_startproc
# %bb.0:                                # %L.entry
	#DEBUG_VALUE: Set_attr: <- $rdi
	#DEBUG_VALUE: Set_attr: <- $rdi
	#DEBUG_VALUE: Set_attr:type_keyval <- $esi
	#DEBUG_VALUE: Set_attr:type_keyval <- $esi
	#DEBUG_VALUE: Set_attr:attribute_val <- $rdx
	#DEBUG_VALUE: Set_attr:attribute_val <- $rdx
	pushq	%rbp
	.cfi_def_cfa_offset 16
	.cfi_offset %rbp, -16
	movq	%rsp, %rbp
	.cfi_def_cfa_register %rbp
.Ltmp343:
	#DEBUG_VALUE:  <- $rdi
	#DEBUG_VALUE:  <- $rdi
	#DEBUG_VALUE: type_keyval <- $esi
	#DEBUG_VALUE: type_keyval <- $esi
	#DEBUG_VALUE: attribute_val <- $rdx
	#DEBUG_VALUE: attribute_val <- $rdx
	.loc	7 392 1 prologue_end    # /usr/lib/x86_64-linux-gnu/openmpi/include/openmpi/ompi/mpi/cxx/datatype_inln.h:392:1
	movq	8(%rdi), %rdi
.Ltmp344:
	#DEBUG_VALUE: attribute_val <- $rdx
	#DEBUG_VALUE: Set_attr:attribute_val <- $rdx
	#DEBUG_VALUE: type_keyval <- $esi
	#DEBUG_VALUE: Set_attr:type_keyval <- $esi
	popq	%rbp
	.cfi_def_cfa %rsp, 8
	jmp	MPI_Type_set_attr       # TAILCALL
.Ltmp345:
.Lfunc_end29:
	.size	_ZN3MPI8Datatype8Set_attrEiPKv, .Lfunc_end29-_ZN3MPI8Datatype8Set_attrEiPKv
	.cfi_endproc
                                        # -- End function
	.weak	_ZN3MPI8Datatype8Set_nameEPKc # -- Begin function _ZN3MPI8Datatype8Set_nameEPKc
	.p2align	4, 0x90
	.type	_ZN3MPI8Datatype8Set_nameEPKc,@function
_ZN3MPI8Datatype8Set_nameEPKc:          # @_ZN3MPI8Datatype8Set_nameEPKc
.Lfunc_begin30:
	.loc	7 397 0                 # /usr/lib/x86_64-linux-gnu/openmpi/include/openmpi/ompi/mpi/cxx/datatype_inln.h:397:0
	.cfi_startproc
# %bb.0:                                # %L.entry
	#DEBUG_VALUE: Set_name: <- $rdi
	#DEBUG_VALUE: Set_name: <- $rdi
	#DEBUG_VALUE: Set_name:type_name <- $rsi
	#DEBUG_VALUE: Set_name:type_name <- $rsi
	pushq	%rbp
	.cfi_def_cfa_offset 16
	.cfi_offset %rbp, -16
	movq	%rsp, %rbp
	.cfi_def_cfa_register %rbp
.Ltmp346:
	#DEBUG_VALUE:  <- $rdi
	#DEBUG_VALUE:  <- $rdi
	#DEBUG_VALUE: type_name <- $rsi
	#DEBUG_VALUE: type_name <- $rsi
	.loc	7 398 1 prologue_end    # /usr/lib/x86_64-linux-gnu/openmpi/include/openmpi/ompi/mpi/cxx/datatype_inln.h:398:1
	movq	8(%rdi), %rdi
.Ltmp347:
	#DEBUG_VALUE: type_name <- $rsi
	#DEBUG_VALUE: Set_name:type_name <- $rsi
	popq	%rbp
	.cfi_def_cfa %rsp, 8
	jmp	MPI_Type_set_name       # TAILCALL
.Ltmp348:
.Lfunc_end30:
	.size	_ZN3MPI8Datatype8Set_nameEPKc, .Lfunc_end30-_ZN3MPI8Datatype8Set_nameEPKc
	.cfi_endproc
                                        # -- End function
	.weak	_ZN3MPI2OpD1Ev          # -- Begin function _ZN3MPI2OpD1Ev
	.p2align	4, 0x90
	.type	_ZN3MPI2OpD1Ev,@function
_ZN3MPI2OpD1Ev:                         # @_ZN3MPI2OpD1Ev
.Lfunc_begin31:
	.file	8 "/usr/lib/x86_64-linux-gnu/openmpi/include/openmpi/ompi/mpi/cxx/op_inln.h"
	.loc	8 77 0                  # /usr/lib/x86_64-linux-gnu/openmpi/include/openmpi/ompi/mpi/cxx/op_inln.h:77:0
	.cfi_startproc
# %bb.0:                                # %L.entry
	#DEBUG_VALUE: ~Op: <- $rdi
	#DEBUG_VALUE: ~Op: <- $rdi
	pushq	%rbp
	.cfi_def_cfa_offset 16
	.cfi_offset %rbp, -16
	movq	%rsp, %rbp
	.cfi_def_cfa_register %rbp
.Ltmp349:
	#DEBUG_VALUE:  <- $rdi
	#DEBUG_VALUE:  <- $rdi
	.loc	8 77 1 prologue_end     # /usr/lib/x86_64-linux-gnu/openmpi/include/openmpi/ompi/mpi/cxx/op_inln.h:77:1
	movq	$_ZTVN3MPI2OpE+16, (%rdi)
	.loc	8 82 1                  # /usr/lib/x86_64-linux-gnu/openmpi/include/openmpi/ompi/mpi/cxx/op_inln.h:82:1
	popq	%rbp
	.cfi_def_cfa %rsp, 8
	retq
.Ltmp350:
.Lfunc_end31:
	.size	_ZN3MPI2OpD1Ev, .Lfunc_end31-_ZN3MPI2OpD1Ev
	.cfi_endproc
                                        # -- End function
	.weak	_ZN3MPI2OpD0Ev          # -- Begin function _ZN3MPI2OpD0Ev
	.p2align	4, 0x90
	.type	_ZN3MPI2OpD0Ev,@function
_ZN3MPI2OpD0Ev:                         # @_ZN3MPI2OpD0Ev
.Lfunc_begin32:
	.loc	1 0 0                   # vlasovsolver/cpu_acc_load_blocks.cpp:0:0
	.cfi_startproc
# %bb.0:                                # %L.entry
	pushq	%rbp
	.cfi_def_cfa_offset 16
	.cfi_offset %rbp, -16
	movq	%rsp, %rbp
	.cfi_def_cfa_register %rbp
.Ltmp351:
	.loc	1 82 1 prologue_end     # vlasovsolver/cpu_acc_load_blocks.cpp:82:1
	movl	$16, %esi
	popq	%rbp
	.cfi_def_cfa %rsp, 8
	jmp	_ZdlPvm                 # TAILCALL
.Ltmp352:
.Lfunc_end32:
	.size	_ZN3MPI2OpD0Ev, .Lfunc_end32-_ZN3MPI2OpD0Ev
	.cfi_endproc
                                        # -- End function
	.weak	_ZN3MPI2Op4InitEPFvPKvPviRKNS_8DatatypeEEb # -- Begin function _ZN3MPI2Op4InitEPFvPKvPviRKNS_8DatatypeEEb
	.p2align	4, 0x90
	.type	_ZN3MPI2Op4InitEPFvPKvPviRKNS_8DatatypeEEb,@function
_ZN3MPI2Op4InitEPFvPKvPviRKNS_8DatatypeEEb: # @_ZN3MPI2Op4InitEPFvPKvPviRKNS_8DatatypeEEb
.Lfunc_begin33:
	.loc	8 120 0                 # /usr/lib/x86_64-linux-gnu/openmpi/include/openmpi/ompi/mpi/cxx/op_inln.h:120:0
	.cfi_startproc
# %bb.0:                                # %L.entry
	#DEBUG_VALUE: Init: <- $rdi
	#DEBUG_VALUE: Init:func <- $rsi
	#DEBUG_VALUE: Init:commute <- $edx
	pushq	%rbp
	.cfi_def_cfa_offset 16
	.cfi_offset %rbp, -16
	movq	%rsp, %rbp
	.cfi_def_cfa_register %rbp
	pushq	%r14
	pushq	%rbx
	.cfi_offset %rbx, -32
	.cfi_offset %r14, -24
.Ltmp353:
	#DEBUG_VALUE:  <- $rdi
	#DEBUG_VALUE: func <- $rsi
	#DEBUG_VALUE: commute <- $edx
	movq	%rsi, %r14
	movq	%rdi, %rbx
	#DEBUG_VALUE: commute <- $edx
	#DEBUG_VALUE: Init:commute <- $edx
.Ltmp354:
	#DEBUG_VALUE: func <- $r14
	#DEBUG_VALUE: Init:func <- $r14
	#DEBUG_VALUE:  <- $rbx
	#DEBUG_VALUE: Init: <- $rbx
	.loc	8 121 1 prologue_end    # /usr/lib/x86_64-linux-gnu/openmpi/include/openmpi/ompi/mpi/cxx/op_inln.h:121:1
	leaq	8(%rdi), %rax
	movl	$ompi_mpi_cxx_op_intercept, %edi
	movl	%edx, %esi
.Ltmp355:
	#DEBUG_VALUE: commute <- $esi
	#DEBUG_VALUE: Init:commute <- $esi
	movq	%rax, %rdx
	callq	MPI_Op_create
.Ltmp356:
	.loc	8 123 1                 # /usr/lib/x86_64-linux-gnu/openmpi/include/openmpi/ompi/mpi/cxx/op_inln.h:123:1
	movq	8(%rbx), %rdi
	movq	%r14, %rsi
.Ltmp357:
	#DEBUG_VALUE: func <- $rsi
	#DEBUG_VALUE: Init:func <- $rsi
	popq	%rbx
.Ltmp358:
	popq	%r14
	popq	%rbp
	.cfi_def_cfa %rsp, 8
	jmp	ompi_op_set_cxx_callback # TAILCALL
.Ltmp359:
.Lfunc_end33:
	.size	_ZN3MPI2Op4InitEPFvPKvPviRKNS_8DatatypeEEb, .Lfunc_end33-_ZN3MPI2Op4InitEPFvPKvPviRKNS_8DatatypeEEb
	.cfi_endproc
                                        # -- End function
	.weak	_ZN3MPI2Op4FreeEv       # -- Begin function _ZN3MPI2Op4FreeEv
	.p2align	4, 0x90
	.type	_ZN3MPI2Op4FreeEv,@function
_ZN3MPI2Op4FreeEv:                      # @_ZN3MPI2Op4FreeEv
.Lfunc_begin34:
	.loc	8 129 0                 # /usr/lib/x86_64-linux-gnu/openmpi/include/openmpi/ompi/mpi/cxx/op_inln.h:129:0
	.cfi_startproc
# %bb.0:                                # %L.entry
	#DEBUG_VALUE: Free: <- $rdi
	#DEBUG_VALUE: Free: <- $rdi
	pushq	%rbp
	.cfi_def_cfa_offset 16
	.cfi_offset %rbp, -16
	movq	%rsp, %rbp
	.cfi_def_cfa_register %rbp
.Ltmp360:
	#DEBUG_VALUE:  <- $rdi
	#DEBUG_VALUE:  <- $rdi
	.loc	8 130 1 prologue_end    # /usr/lib/x86_64-linux-gnu/openmpi/include/openmpi/ompi/mpi/cxx/op_inln.h:130:1
	addq	$8, %rdi
.Ltmp361:
	popq	%rbp
	.cfi_def_cfa %rsp, 8
	jmp	MPI_Op_free             # TAILCALL
.Ltmp362:
.Lfunc_end34:
	.size	_ZN3MPI2Op4FreeEv, .Lfunc_end34-_ZN3MPI2Op4FreeEv
	.cfi_endproc
                                        # -- End function
	.weak	_ZNK3MPI2Op12Reduce_localEPKvPviRKNS_8DatatypeE # -- Begin function _ZNK3MPI2Op12Reduce_localEPKvPviRKNS_8DatatypeE
	.p2align	4, 0x90
	.type	_ZNK3MPI2Op12Reduce_localEPKvPviRKNS_8DatatypeE,@function
_ZNK3MPI2Op12Reduce_localEPKvPviRKNS_8DatatypeE: # @_ZNK3MPI2Op12Reduce_localEPKvPviRKNS_8DatatypeE
.Lfunc_begin35:
	.loc	8 137 0                 # /usr/lib/x86_64-linux-gnu/openmpi/include/openmpi/ompi/mpi/cxx/op_inln.h:137:0
	.cfi_startproc
# %bb.0:                                # %L.entry
	#DEBUG_VALUE: Reduce_local: <- $rdi
	#DEBUG_VALUE: Reduce_local: <- $rdi
	#DEBUG_VALUE: Reduce_local:inbuf <- $rsi
	#DEBUG_VALUE: Reduce_local:inbuf <- $rsi
	#DEBUG_VALUE: Reduce_local:inoutbuf <- $rdx
	#DEBUG_VALUE: Reduce_local:inoutbuf <- $rdx
	#DEBUG_VALUE: Reduce_local:count <- $ecx
	#DEBUG_VALUE: Reduce_local:count <- $ecx
	#DEBUG_VALUE: Reduce_local:datatype <- $r8
	#DEBUG_VALUE: Reduce_local:datatype <- $r8
	pushq	%rbp
	.cfi_def_cfa_offset 16
	.cfi_offset %rbp, -16
	movq	%rsp, %rbp
	.cfi_def_cfa_register %rbp
.Ltmp363:
	#DEBUG_VALUE:  <- $rdi
	#DEBUG_VALUE:  <- $rdi
	#DEBUG_VALUE: inbuf <- $rsi
	#DEBUG_VALUE: inbuf <- $rsi
	#DEBUG_VALUE: inoutbuf <- $rdx
	#DEBUG_VALUE: inoutbuf <- $rdx
	#DEBUG_VALUE: count <- $ecx
	#DEBUG_VALUE: count <- $ecx
	#DEBUG_VALUE: datatype <- $r8
	#DEBUG_VALUE: datatype <- $r8
	.loc	8 90 1 prologue_end     # /usr/lib/x86_64-linux-gnu/openmpi/include/openmpi/ompi/mpi/cxx/op_inln.h:90:1
	movq	8(%r8), %rax
	movq	8(%rdi), %r8
.Ltmp364:
	movq	%rsi, %rdi
.Ltmp365:
	#DEBUG_VALUE: inbuf <- $rdi
	#DEBUG_VALUE: Reduce_local:inbuf <- $rdi
	movq	%rdx, %rsi
.Ltmp366:
	#DEBUG_VALUE: inoutbuf <- $rsi
	#DEBUG_VALUE: Reduce_local:inoutbuf <- $rsi
	movl	%ecx, %edx
.Ltmp367:
	#DEBUG_VALUE: count <- $edx
	#DEBUG_VALUE: Reduce_local:count <- $edx
	movq	%rax, %rcx
	popq	%rbp
	.cfi_def_cfa %rsp, 8
	jmp	MPI_Reduce_local        # TAILCALL
.Ltmp368:
.Lfunc_end35:
	.size	_ZNK3MPI2Op12Reduce_localEPKvPviRKNS_8DatatypeE, .Lfunc_end35-_ZNK3MPI2Op12Reduce_localEPKvPviRKNS_8DatatypeE
	.cfi_endproc
                                        # -- End function
	.weak	_ZNK3MPI2Op14Is_commutativeEv # -- Begin function _ZNK3MPI2Op14Is_commutativeEv
	.p2align	4, 0x90
	.type	_ZNK3MPI2Op14Is_commutativeEv,@function
_ZNK3MPI2Op14Is_commutativeEv:          # @_ZNK3MPI2Op14Is_commutativeEv
.Lfunc_begin36:
	.loc	8 145 0                 # /usr/lib/x86_64-linux-gnu/openmpi/include/openmpi/ompi/mpi/cxx/op_inln.h:145:0
	.cfi_startproc
# %bb.0:                                # %L.entry
	#DEBUG_VALUE: Is_commutative: <- $rdi
	#DEBUG_VALUE: Is_commutative: <- $rdi
	pushq	%rbp
	.cfi_def_cfa_offset 16
	.cfi_offset %rbp, -16
	movq	%rsp, %rbp
	.cfi_def_cfa_register %rbp
	subq	$16, %rsp
.Ltmp369:
	#DEBUG_VALUE:  <- $rdi
	.loc	8 147 1 prologue_end    # /usr/lib/x86_64-linux-gnu/openmpi/include/openmpi/ompi/mpi/cxx/op_inln.h:147:1
	movq	8(%rdi), %rdi
.Ltmp370:
	#DEBUG_VALUE: commute <- [DW_OP_constu 4, DW_OP_minus, DW_OP_deref] $rbp
	.loc	8 0 1 is_stmt 0         # /usr/lib/x86_64-linux-gnu/openmpi/include/openmpi/ompi/mpi/cxx/op_inln.h:0:1
	leaq	-4(%rbp), %rsi
	.loc	8 147 1                 # /usr/lib/x86_64-linux-gnu/openmpi/include/openmpi/ompi/mpi/cxx/op_inln.h:147:1
	callq	MPI_Op_commutative
.Ltmp371:
	#DEBUG_VALUE: commute <- undef
	.loc	8 148 1 is_stmt 1       # /usr/lib/x86_64-linux-gnu/openmpi/include/openmpi/ompi/mpi/cxx/op_inln.h:148:1
	cmpl	$0, -4(%rbp)
	setne	%al
	addq	$16, %rsp
	popq	%rbp
	.cfi_def_cfa %rsp, 8
	retq
.Ltmp372:
.Lfunc_end36:
	.size	_ZNK3MPI2Op14Is_commutativeEv, .Lfunc_end36-_ZNK3MPI2Op14Is_commutativeEv
	.cfi_endproc
                                        # -- End function
	.weak	_ZN3MPI6StatusD1Ev      # -- Begin function _ZN3MPI6StatusD1Ev
	.p2align	4, 0x90
	.type	_ZN3MPI6StatusD1Ev,@function
_ZN3MPI6StatusD1Ev:                     # @_ZN3MPI6StatusD1Ev
.Lfunc_begin37:
	.file	9 "/usr/lib/x86_64-linux-gnu/openmpi/include/openmpi/ompi/mpi/cxx/status.h"
	.loc	9 64 0                  # /usr/lib/x86_64-linux-gnu/openmpi/include/openmpi/ompi/mpi/cxx/status.h:64:0
	.cfi_startproc
# %bb.0:                                # %L.entry
	#DEBUG_VALUE: ~Status: <- $rdi
	#DEBUG_VALUE: ~Status: <- $rdi
	pushq	%rbp
	.cfi_def_cfa_offset 16
	.cfi_offset %rbp, -16
	movq	%rsp, %rbp
	.cfi_def_cfa_register %rbp
.Ltmp373:
	#DEBUG_VALUE:  <- $rdi
	#DEBUG_VALUE:  <- $rdi
	.loc	9 64 1 prologue_end     # /usr/lib/x86_64-linux-gnu/openmpi/include/openmpi/ompi/mpi/cxx/status.h:64:1
	movq	$_ZTVN3MPI6StatusE+16, (%rdi)
	popq	%rbp
	.cfi_def_cfa %rsp, 8
	retq
.Ltmp374:
.Lfunc_end37:
	.size	_ZN3MPI6StatusD1Ev, .Lfunc_end37-_ZN3MPI6StatusD1Ev
	.cfi_endproc
                                        # -- End function
	.weak	_ZN3MPI6StatusD0Ev      # -- Begin function _ZN3MPI6StatusD0Ev
	.p2align	4, 0x90
	.type	_ZN3MPI6StatusD0Ev,@function
_ZN3MPI6StatusD0Ev:                     # @_ZN3MPI6StatusD0Ev
.Lfunc_begin38:
	.loc	1 0 0                   # vlasovsolver/cpu_acc_load_blocks.cpp:0:0
	.cfi_startproc
# %bb.0:                                # %L.entry
	pushq	%rbp
	.cfi_def_cfa_offset 16
	.cfi_offset %rbp, -16
	movq	%rsp, %rbp
	.cfi_def_cfa_register %rbp
.Ltmp375:
	.loc	1 64 1 prologue_end     # vlasovsolver/cpu_acc_load_blocks.cpp:64:1
	movl	$32, %esi
	popq	%rbp
	.cfi_def_cfa %rsp, 8
	jmp	_ZdlPvm                 # TAILCALL
.Ltmp376:
.Lfunc_end38:
	.size	_ZN3MPI6StatusD0Ev, .Lfunc_end38-_ZN3MPI6StatusD0Ev
	.cfi_endproc
                                        # -- End function
	.weak	_ZNK3MPI6Status9Get_countERKNS_8DatatypeE # -- Begin function _ZNK3MPI6Status9Get_countERKNS_8DatatypeE
	.p2align	4, 0x90
	.type	_ZNK3MPI6Status9Get_countERKNS_8DatatypeE,@function
_ZNK3MPI6Status9Get_countERKNS_8DatatypeE: # @_ZNK3MPI6Status9Get_countERKNS_8DatatypeE
.Lfunc_begin39:
	.file	10 "/usr/lib/x86_64-linux-gnu/openmpi/include/openmpi/ompi/mpi/cxx/status_inln.h"
	.loc	10 27 0                 # /usr/lib/x86_64-linux-gnu/openmpi/include/openmpi/ompi/mpi/cxx/status_inln.h:27:0
	.cfi_startproc
# %bb.0:                                # %L.entry
	#DEBUG_VALUE: Get_count: <- $rdi
	#DEBUG_VALUE: Get_count: <- $rdi
	#DEBUG_VALUE: Get_count:datatype <- $rsi
	#DEBUG_VALUE: Get_count:datatype <- $rsi
	pushq	%rbp
	.cfi_def_cfa_offset 16
	.cfi_offset %rbp, -16
	movq	%rsp, %rbp
	.cfi_def_cfa_register %rbp
	subq	$16, %rsp
.Ltmp377:
	#DEBUG_VALUE:  <- $rdi
	#DEBUG_VALUE: datatype <- $rsi
	.loc	10 90 1 prologue_end    # /usr/lib/x86_64-linux-gnu/openmpi/include/openmpi/ompi/mpi/cxx/status_inln.h:90:1
	addq	$8, %rdi
.Ltmp378:
	movq	8(%rsi), %rsi
.Ltmp379:
	#DEBUG_VALUE: count <- [DW_OP_constu 4, DW_OP_minus, DW_OP_deref] $rbp
	.loc	10 0 1 is_stmt 0        # /usr/lib/x86_64-linux-gnu/openmpi/include/openmpi/ompi/mpi/cxx/status_inln.h:0:1
	leaq	-4(%rbp), %rdx
	.loc	10 90 1                 # /usr/lib/x86_64-linux-gnu/openmpi/include/openmpi/ompi/mpi/cxx/status_inln.h:90:1
	callq	MPI_Get_count
	.loc	10 30 1 is_stmt 1       # /usr/lib/x86_64-linux-gnu/openmpi/include/openmpi/ompi/mpi/cxx/status_inln.h:30:1
	movl	-4(%rbp), %eax
.Ltmp380:
	#DEBUG_VALUE: count <- $eax
	addq	$16, %rsp
	popq	%rbp
	.cfi_def_cfa %rsp, 8
	retq
.Ltmp381:
.Lfunc_end39:
	.size	_ZNK3MPI6Status9Get_countERKNS_8DatatypeE, .Lfunc_end39-_ZNK3MPI6Status9Get_countERKNS_8DatatypeE
	.cfi_endproc
                                        # -- End function
	.weak	_ZNK3MPI6Status12Is_cancelledEv # -- Begin function _ZNK3MPI6Status12Is_cancelledEv
	.p2align	4, 0x90
	.type	_ZNK3MPI6Status12Is_cancelledEv,@function
_ZNK3MPI6Status12Is_cancelledEv:        # @_ZNK3MPI6Status12Is_cancelledEv
.Lfunc_begin40:
	.loc	10 35 0                 # /usr/lib/x86_64-linux-gnu/openmpi/include/openmpi/ompi/mpi/cxx/status_inln.h:35:0
	.cfi_startproc
# %bb.0:                                # %L.entry
	#DEBUG_VALUE: Is_cancelled: <- $rdi
	#DEBUG_VALUE: Is_cancelled: <- $rdi
	pushq	%rbp
	.cfi_def_cfa_offset 16
	.cfi_offset %rbp, -16
	movq	%rsp, %rbp
	.cfi_def_cfa_register %rbp
	subq	$16, %rsp
.Ltmp382:
	#DEBUG_VALUE:  <- $rdi
	.loc	10 37 1 prologue_end    # /usr/lib/x86_64-linux-gnu/openmpi/include/openmpi/ompi/mpi/cxx/status_inln.h:37:1
	addq	$8, %rdi
.Ltmp383:
	#DEBUG_VALUE: t <- [DW_OP_constu 4, DW_OP_minus, DW_OP_deref] $rbp
	.loc	10 0 1 is_stmt 0        # /usr/lib/x86_64-linux-gnu/openmpi/include/openmpi/ompi/mpi/cxx/status_inln.h:0:1
	leaq	-4(%rbp), %rsi
	.loc	10 37 1                 # /usr/lib/x86_64-linux-gnu/openmpi/include/openmpi/ompi/mpi/cxx/status_inln.h:37:1
	callq	MPI_Test_cancelled
.Ltmp384:
	#DEBUG_VALUE: t <- undef
	.loc	10 38 1 is_stmt 1       # /usr/lib/x86_64-linux-gnu/openmpi/include/openmpi/ompi/mpi/cxx/status_inln.h:38:1
	cmpl	$0, -4(%rbp)
	setne	%al
	addq	$16, %rsp
	popq	%rbp
	.cfi_def_cfa %rsp, 8
	retq
.Ltmp385:
.Lfunc_end40:
	.size	_ZNK3MPI6Status12Is_cancelledEv, .Lfunc_end40-_ZNK3MPI6Status12Is_cancelledEv
	.cfi_endproc
                                        # -- End function
	.weak	_ZNK3MPI6Status12Get_elementsERKNS_8DatatypeE # -- Begin function _ZNK3MPI6Status12Get_elementsERKNS_8DatatypeE
	.p2align	4, 0x90
	.type	_ZNK3MPI6Status12Get_elementsERKNS_8DatatypeE,@function
_ZNK3MPI6Status12Get_elementsERKNS_8DatatypeE: # @_ZNK3MPI6Status12Get_elementsERKNS_8DatatypeE
.Lfunc_begin41:
	.loc	10 43 0                 # /usr/lib/x86_64-linux-gnu/openmpi/include/openmpi/ompi/mpi/cxx/status_inln.h:43:0
	.cfi_startproc
# %bb.0:                                # %L.entry
	#DEBUG_VALUE: Get_elements: <- $rdi
	#DEBUG_VALUE: Get_elements: <- $rdi
	#DEBUG_VALUE: Get_elements:datatype <- $rsi
	#DEBUG_VALUE: Get_elements:datatype <- $rsi
	pushq	%rbp
	.cfi_def_cfa_offset 16
	.cfi_offset %rbp, -16
	movq	%rsp, %rbp
	.cfi_def_cfa_register %rbp
	subq	$16, %rsp
.Ltmp386:
	#DEBUG_VALUE:  <- $rdi
	#DEBUG_VALUE: datatype <- $rsi
	.loc	10 90 1 prologue_end    # /usr/lib/x86_64-linux-gnu/openmpi/include/openmpi/ompi/mpi/cxx/status_inln.h:90:1
	addq	$8, %rdi
.Ltmp387:
	movq	8(%rsi), %rsi
.Ltmp388:
	#DEBUG_VALUE: count <- [DW_OP_constu 4, DW_OP_minus, DW_OP_deref] $rbp
	.loc	10 0 1 is_stmt 0        # /usr/lib/x86_64-linux-gnu/openmpi/include/openmpi/ompi/mpi/cxx/status_inln.h:0:1
	leaq	-4(%rbp), %rdx
	.loc	10 90 1                 # /usr/lib/x86_64-linux-gnu/openmpi/include/openmpi/ompi/mpi/cxx/status_inln.h:90:1
	callq	MPI_Get_elements
	.loc	10 46 1 is_stmt 1       # /usr/lib/x86_64-linux-gnu/openmpi/include/openmpi/ompi/mpi/cxx/status_inln.h:46:1
	movl	-4(%rbp), %eax
.Ltmp389:
	#DEBUG_VALUE: count <- $eax
	addq	$16, %rsp
	popq	%rbp
	.cfi_def_cfa %rsp, 8
	retq
.Ltmp390:
.Lfunc_end41:
	.size	_ZNK3MPI6Status12Get_elementsERKNS_8DatatypeE, .Lfunc_end41-_ZNK3MPI6Status12Get_elementsERKNS_8DatatypeE
	.cfi_endproc
                                        # -- End function
	.weak	_ZNK3MPI6Status10Get_sourceEv # -- Begin function _ZNK3MPI6Status10Get_sourceEv
	.p2align	4, 0x90
	.type	_ZNK3MPI6Status10Get_sourceEv,@function
_ZNK3MPI6Status10Get_sourceEv:          # @_ZNK3MPI6Status10Get_sourceEv
.Lfunc_begin42:
	.loc	10 54 0                 # /usr/lib/x86_64-linux-gnu/openmpi/include/openmpi/ompi/mpi/cxx/status_inln.h:54:0
	.cfi_startproc
# %bb.0:                                # %L.entry
	#DEBUG_VALUE: Get_source: <- $rdi
	#DEBUG_VALUE: Get_source: <- $rdi
	pushq	%rbp
	.cfi_def_cfa_offset 16
	.cfi_offset %rbp, -16
	movq	%rsp, %rbp
	.cfi_def_cfa_register %rbp
.Ltmp391:
	#DEBUG_VALUE:  <- $rdi
	#DEBUG_VALUE:  <- $rdi
	.loc	10 57 1 prologue_end    # /usr/lib/x86_64-linux-gnu/openmpi/include/openmpi/ompi/mpi/cxx/status_inln.h:57:1
	movl	8(%rdi), %eax
	popq	%rbp
	.cfi_def_cfa %rsp, 8
	retq
.Ltmp392:
.Lfunc_end42:
	.size	_ZNK3MPI6Status10Get_sourceEv, .Lfunc_end42-_ZNK3MPI6Status10Get_sourceEv
	.cfi_endproc
                                        # -- End function
	.weak	_ZN3MPI6Status10Set_sourceEi # -- Begin function _ZN3MPI6Status10Set_sourceEi
	.p2align	4, 0x90
	.type	_ZN3MPI6Status10Set_sourceEi,@function
_ZN3MPI6Status10Set_sourceEi:           # @_ZN3MPI6Status10Set_sourceEi
.Lfunc_begin43:
	.loc	10 62 0                 # /usr/lib/x86_64-linux-gnu/openmpi/include/openmpi/ompi/mpi/cxx/status_inln.h:62:0
	.cfi_startproc
# %bb.0:                                # %L.entry
	#DEBUG_VALUE: Set_source: <- $rdi
	#DEBUG_VALUE: Set_source: <- $rdi
	#DEBUG_VALUE: Set_source:source <- $esi
	#DEBUG_VALUE: Set_source:source <- $esi
	pushq	%rbp
	.cfi_def_cfa_offset 16
	.cfi_offset %rbp, -16
	movq	%rsp, %rbp
	.cfi_def_cfa_register %rbp
.Ltmp393:
	#DEBUG_VALUE:  <- $rdi
	#DEBUG_VALUE:  <- $rdi
	#DEBUG_VALUE: source <- $esi
	#DEBUG_VALUE: source <- $esi
	.loc	10 63 1 prologue_end    # /usr/lib/x86_64-linux-gnu/openmpi/include/openmpi/ompi/mpi/cxx/status_inln.h:63:1
	movl	%esi, 8(%rdi)
	.loc	10 64 1                 # /usr/lib/x86_64-linux-gnu/openmpi/include/openmpi/ompi/mpi/cxx/status_inln.h:64:1
	popq	%rbp
	.cfi_def_cfa %rsp, 8
	retq
.Ltmp394:
.Lfunc_end43:
	.size	_ZN3MPI6Status10Set_sourceEi, .Lfunc_end43-_ZN3MPI6Status10Set_sourceEi
	.cfi_endproc
                                        # -- End function
	.weak	_ZNK3MPI6Status7Get_tagEv # -- Begin function _ZNK3MPI6Status7Get_tagEv
	.p2align	4, 0x90
	.type	_ZNK3MPI6Status7Get_tagEv,@function
_ZNK3MPI6Status7Get_tagEv:              # @_ZNK3MPI6Status7Get_tagEv
.Lfunc_begin44:
	.loc	10 68 0                 # /usr/lib/x86_64-linux-gnu/openmpi/include/openmpi/ompi/mpi/cxx/status_inln.h:68:0
	.cfi_startproc
# %bb.0:                                # %L.entry
	#DEBUG_VALUE: Get_tag: <- $rdi
	#DEBUG_VALUE: Get_tag: <- $rdi
	pushq	%rbp
	.cfi_def_cfa_offset 16
	.cfi_offset %rbp, -16
	movq	%rsp, %rbp
	.cfi_def_cfa_register %rbp
.Ltmp395:
	#DEBUG_VALUE:  <- $rdi
	#DEBUG_VALUE:  <- $rdi
	.loc	10 71 1 prologue_end    # /usr/lib/x86_64-linux-gnu/openmpi/include/openmpi/ompi/mpi/cxx/status_inln.h:71:1
	movl	12(%rdi), %eax
	popq	%rbp
	.cfi_def_cfa %rsp, 8
	retq
.Ltmp396:
.Lfunc_end44:
	.size	_ZNK3MPI6Status7Get_tagEv, .Lfunc_end44-_ZNK3MPI6Status7Get_tagEv
	.cfi_endproc
                                        # -- End function
	.weak	_ZN3MPI6Status7Set_tagEi # -- Begin function _ZN3MPI6Status7Set_tagEi
	.p2align	4, 0x90
	.type	_ZN3MPI6Status7Set_tagEi,@function
_ZN3MPI6Status7Set_tagEi:               # @_ZN3MPI6Status7Set_tagEi
.Lfunc_begin45:
	.loc	10 76 0                 # /usr/lib/x86_64-linux-gnu/openmpi/include/openmpi/ompi/mpi/cxx/status_inln.h:76:0
	.cfi_startproc
# %bb.0:                                # %L.entry
	#DEBUG_VALUE: Set_tag: <- $rdi
	#DEBUG_VALUE: Set_tag: <- $rdi
	#DEBUG_VALUE: Set_tag:tag <- $esi
	#DEBUG_VALUE: Set_tag:tag <- $esi
	pushq	%rbp
	.cfi_def_cfa_offset 16
	.cfi_offset %rbp, -16
	movq	%rsp, %rbp
	.cfi_def_cfa_register %rbp
.Ltmp397:
	#DEBUG_VALUE:  <- $rdi
	#DEBUG_VALUE:  <- $rdi
	#DEBUG_VALUE: tag <- $esi
	#DEBUG_VALUE: tag <- $esi
	.loc	10 77 1 prologue_end    # /usr/lib/x86_64-linux-gnu/openmpi/include/openmpi/ompi/mpi/cxx/status_inln.h:77:1
	movl	%esi, 12(%rdi)
	.loc	10 78 1                 # /usr/lib/x86_64-linux-gnu/openmpi/include/openmpi/ompi/mpi/cxx/status_inln.h:78:1
	popq	%rbp
	.cfi_def_cfa %rsp, 8
	retq
.Ltmp398:
.Lfunc_end45:
	.size	_ZN3MPI6Status7Set_tagEi, .Lfunc_end45-_ZN3MPI6Status7Set_tagEi
	.cfi_endproc
                                        # -- End function
	.weak	_ZNK3MPI6Status9Get_errorEv # -- Begin function _ZNK3MPI6Status9Get_errorEv
	.p2align	4, 0x90
	.type	_ZNK3MPI6Status9Get_errorEv,@function
_ZNK3MPI6Status9Get_errorEv:            # @_ZNK3MPI6Status9Get_errorEv
.Lfunc_begin46:
	.loc	10 82 0                 # /usr/lib/x86_64-linux-gnu/openmpi/include/openmpi/ompi/mpi/cxx/status_inln.h:82:0
	.cfi_startproc
# %bb.0:                                # %L.entry
	#DEBUG_VALUE: Get_error: <- $rdi
	#DEBUG_VALUE: Get_error: <- $rdi
	pushq	%rbp
	.cfi_def_cfa_offset 16
	.cfi_offset %rbp, -16
	movq	%rsp, %rbp
	.cfi_def_cfa_register %rbp
.Ltmp399:
	#DEBUG_VALUE:  <- $rdi
	#DEBUG_VALUE:  <- $rdi
	.loc	10 85 1 prologue_end    # /usr/lib/x86_64-linux-gnu/openmpi/include/openmpi/ompi/mpi/cxx/status_inln.h:85:1
	movl	16(%rdi), %eax
	popq	%rbp
	.cfi_def_cfa %rsp, 8
	retq
.Ltmp400:
.Lfunc_end46:
	.size	_ZNK3MPI6Status9Get_errorEv, .Lfunc_end46-_ZNK3MPI6Status9Get_errorEv
	.cfi_endproc
                                        # -- End function
	.weak	_ZN3MPI6Status9Set_errorEi # -- Begin function _ZN3MPI6Status9Set_errorEi
	.p2align	4, 0x90
	.type	_ZN3MPI6Status9Set_errorEi,@function
_ZN3MPI6Status9Set_errorEi:             # @_ZN3MPI6Status9Set_errorEi
.Lfunc_begin47:
	.loc	10 90 0                 # /usr/lib/x86_64-linux-gnu/openmpi/include/openmpi/ompi/mpi/cxx/status_inln.h:90:0
	.cfi_startproc
# %bb.0:                                # %L.entry
	#DEBUG_VALUE: Set_error: <- $rdi
	#DEBUG_VALUE: Set_error: <- $rdi
	#DEBUG_VALUE: Set_error:error <- $esi
	#DEBUG_VALUE: Set_error:error <- $esi
	pushq	%rbp
	.cfi_def_cfa_offset 16
	.cfi_offset %rbp, -16
	movq	%rsp, %rbp
	.cfi_def_cfa_register %rbp
.Ltmp401:
	#DEBUG_VALUE:  <- $rdi
	#DEBUG_VALUE:  <- $rdi
	#DEBUG_VALUE: error <- $esi
	#DEBUG_VALUE: error <- $esi
	.loc	10 91 1 prologue_end    # /usr/lib/x86_64-linux-gnu/openmpi/include/openmpi/ompi/mpi/cxx/status_inln.h:91:1
	movl	%esi, 16(%rdi)
	.loc	10 92 1                 # /usr/lib/x86_64-linux-gnu/openmpi/include/openmpi/ompi/mpi/cxx/status_inln.h:92:1
	popq	%rbp
	.cfi_def_cfa %rsp, 8
	retq
.Ltmp402:
.Lfunc_end47:
	.size	_ZN3MPI6Status9Set_errorEi, .Lfunc_end47-_ZN3MPI6Status9Set_errorEi
	.cfi_endproc
                                        # -- End function
	.weak	_ZN3MPI6Status12Set_elementsERKNS_8DatatypeEi # -- Begin function _ZN3MPI6Status12Set_elementsERKNS_8DatatypeEi
	.p2align	4, 0x90
	.type	_ZN3MPI6Status12Set_elementsERKNS_8DatatypeEi,@function
_ZN3MPI6Status12Set_elementsERKNS_8DatatypeEi: # @_ZN3MPI6Status12Set_elementsERKNS_8DatatypeEi
.Lfunc_begin48:
	.loc	10 96 0                 # /usr/lib/x86_64-linux-gnu/openmpi/include/openmpi/ompi/mpi/cxx/status_inln.h:96:0
	.cfi_startproc
# %bb.0:                                # %L.entry
	#DEBUG_VALUE: Set_elements: <- $rdi
	#DEBUG_VALUE: Set_elements: <- $rdi
	#DEBUG_VALUE: Set_elements:datatype <- $rsi
	#DEBUG_VALUE: Set_elements:datatype <- $rsi
	#DEBUG_VALUE: Set_elements:count <- $edx
	#DEBUG_VALUE: Set_elements:count <- $edx
	pushq	%rbp
	.cfi_def_cfa_offset 16
	.cfi_offset %rbp, -16
	movq	%rsp, %rbp
	.cfi_def_cfa_register %rbp
.Ltmp403:
	#DEBUG_VALUE:  <- $rdi
	#DEBUG_VALUE:  <- $rdi
	#DEBUG_VALUE: datatype <- $rsi
	#DEBUG_VALUE: datatype <- $rsi
	#DEBUG_VALUE: count <- $edx
	#DEBUG_VALUE: count <- $edx
	.loc	10 90 1 prologue_end    # /usr/lib/x86_64-linux-gnu/openmpi/include/openmpi/ompi/mpi/cxx/status_inln.h:90:1
	addq	$8, %rdi
.Ltmp404:
	movq	8(%rsi), %rsi
.Ltmp405:
	#DEBUG_VALUE: count <- $edx
	#DEBUG_VALUE: Set_elements:count <- $edx
	popq	%rbp
	.cfi_def_cfa %rsp, 8
	jmp	MPI_Status_set_elements # TAILCALL
.Ltmp406:
.Lfunc_end48:
	.size	_ZN3MPI6Status12Set_elementsERKNS_8DatatypeEi, .Lfunc_end48-_ZN3MPI6Status12Set_elementsERKNS_8DatatypeEi
	.cfi_endproc
                                        # -- End function
	.weak	_ZN3MPI6Status13Set_cancelledEb # -- Begin function _ZN3MPI6Status13Set_cancelledEb
	.p2align	4, 0x90
	.type	_ZN3MPI6Status13Set_cancelledEb,@function
_ZN3MPI6Status13Set_cancelledEb:        # @_ZN3MPI6Status13Set_cancelledEb
.Lfunc_begin49:
	.loc	10 102 0                # /usr/lib/x86_64-linux-gnu/openmpi/include/openmpi/ompi/mpi/cxx/status_inln.h:102:0
	.cfi_startproc
# %bb.0:                                # %L.entry
	#DEBUG_VALUE: Set_cancelled: <- $rdi
	#DEBUG_VALUE: Set_cancelled: <- $rdi
	#DEBUG_VALUE: Set_cancelled:flag <- $esi
	#DEBUG_VALUE: Set_cancelled:flag <- $esi
	pushq	%rbp
	.cfi_def_cfa_offset 16
	.cfi_offset %rbp, -16
	movq	%rsp, %rbp
	.cfi_def_cfa_register %rbp
.Ltmp407:
	#DEBUG_VALUE:  <- $rdi
	#DEBUG_VALUE:  <- $rdi
	#DEBUG_VALUE: flag <- $esi
	#DEBUG_VALUE: flag <- $esi
	.loc	10 103 1 prologue_end   # /usr/lib/x86_64-linux-gnu/openmpi/include/openmpi/ompi/mpi/cxx/status_inln.h:103:1
	addq	$8, %rdi
.Ltmp408:
	#DEBUG_VALUE: flag <- $esi
	#DEBUG_VALUE: Set_cancelled:flag <- $esi
	popq	%rbp
	.cfi_def_cfa %rsp, 8
	jmp	MPI_Status_set_cancelled # TAILCALL
.Ltmp409:
.Lfunc_end49:
	.size	_ZN3MPI6Status13Set_cancelledEb, .Lfunc_end49-_ZN3MPI6Status13Set_cancelledEb
	.cfi_endproc
                                        # -- End function
	.weak	_ZN3MPI7RequestD1Ev     # -- Begin function _ZN3MPI7RequestD1Ev
	.p2align	4, 0x90
	.type	_ZN3MPI7RequestD1Ev,@function
_ZN3MPI7RequestD1Ev:                    # @_ZN3MPI7RequestD1Ev
.Lfunc_begin50:
	.file	11 "/usr/lib/x86_64-linux-gnu/openmpi/include/openmpi/ompi/mpi/cxx/request.h"
	.loc	11 61 0                 # /usr/lib/x86_64-linux-gnu/openmpi/include/openmpi/ompi/mpi/cxx/request.h:61:0
	.cfi_startproc
# %bb.0:                                # %L.entry
	#DEBUG_VALUE: ~Request: <- $rdi
	#DEBUG_VALUE: ~Request: <- $rdi
	pushq	%rbp
	.cfi_def_cfa_offset 16
	.cfi_offset %rbp, -16
	movq	%rsp, %rbp
	.cfi_def_cfa_register %rbp
.Ltmp410:
	#DEBUG_VALUE:  <- $rdi
	#DEBUG_VALUE:  <- $rdi
	.loc	11 61 1 prologue_end    # /usr/lib/x86_64-linux-gnu/openmpi/include/openmpi/ompi/mpi/cxx/request.h:61:1
	movq	$_ZTVN3MPI7RequestE+16, (%rdi)
	popq	%rbp
	.cfi_def_cfa %rsp, 8
	retq
.Ltmp411:
.Lfunc_end50:
	.size	_ZN3MPI7RequestD1Ev, .Lfunc_end50-_ZN3MPI7RequestD1Ev
	.cfi_endproc
                                        # -- End function
	.weak	_ZN3MPI7RequestD0Ev     # -- Begin function _ZN3MPI7RequestD0Ev
	.p2align	4, 0x90
	.type	_ZN3MPI7RequestD0Ev,@function
_ZN3MPI7RequestD0Ev:                    # @_ZN3MPI7RequestD0Ev
.Lfunc_begin51:
	.loc	1 0 0                   # vlasovsolver/cpu_acc_load_blocks.cpp:0:0
	.cfi_startproc
# %bb.0:                                # %L.entry
	pushq	%rbp
	.cfi_def_cfa_offset 16
	.cfi_offset %rbp, -16
	movq	%rsp, %rbp
	.cfi_def_cfa_register %rbp
.Ltmp412:
	.loc	1 61 1 prologue_end     # vlasovsolver/cpu_acc_load_blocks.cpp:61:1
	movl	$16, %esi
	popq	%rbp
	.cfi_def_cfa %rsp, 8
	jmp	_ZdlPvm                 # TAILCALL
.Ltmp413:
.Lfunc_end51:
	.size	_ZN3MPI7RequestD0Ev, .Lfunc_end51-_ZN3MPI7RequestD0Ev
	.cfi_endproc
                                        # -- End function
	.weak	_ZN3MPI7Request4WaitERNS_6StatusE # -- Begin function _ZN3MPI7Request4WaitERNS_6StatusE
	.p2align	4, 0x90
	.type	_ZN3MPI7Request4WaitERNS_6StatusE,@function
_ZN3MPI7Request4WaitERNS_6StatusE:      # @_ZN3MPI7Request4WaitERNS_6StatusE
.Lfunc_begin52:
	.file	12 "/usr/lib/x86_64-linux-gnu/openmpi/include/openmpi/ompi/mpi/cxx/request_inln.h"
	.loc	12 28 0                 # /usr/lib/x86_64-linux-gnu/openmpi/include/openmpi/ompi/mpi/cxx/request_inln.h:28:0
	.cfi_startproc
# %bb.0:                                # %L.entry
	#DEBUG_VALUE: Wait: <- $rdi
	#DEBUG_VALUE: Wait: <- $rdi
	#DEBUG_VALUE: Wait:status <- $rsi
	#DEBUG_VALUE: Wait:status <- $rsi
	pushq	%rbp
	.cfi_def_cfa_offset 16
	.cfi_offset %rbp, -16
	movq	%rsp, %rbp
	.cfi_def_cfa_register %rbp
.Ltmp414:
	#DEBUG_VALUE:  <- $rdi
	#DEBUG_VALUE:  <- $rdi
	#DEBUG_VALUE: status <- $rsi
	#DEBUG_VALUE: status <- $rsi
	.loc	12 29 1 prologue_end    # /usr/lib/x86_64-linux-gnu/openmpi/include/openmpi/ompi/mpi/cxx/request_inln.h:29:1
	addq	$8, %rdi
.Ltmp415:
	addq	$8, %rsi
.Ltmp416:
	popq	%rbp
	.cfi_def_cfa %rsp, 8
	jmp	MPI_Wait                # TAILCALL
.Ltmp417:
.Lfunc_end52:
	.size	_ZN3MPI7Request4WaitERNS_6StatusE, .Lfunc_end52-_ZN3MPI7Request4WaitERNS_6StatusE
	.cfi_endproc
                                        # -- End function
	.weak	_ZN3MPI7Request4WaitEv  # -- Begin function _ZN3MPI7Request4WaitEv
	.p2align	4, 0x90
	.type	_ZN3MPI7Request4WaitEv,@function
_ZN3MPI7Request4WaitEv:                 # @_ZN3MPI7Request4WaitEv
.Lfunc_begin53:
	.loc	12 34 0                 # /usr/lib/x86_64-linux-gnu/openmpi/include/openmpi/ompi/mpi/cxx/request_inln.h:34:0
	.cfi_startproc
# %bb.0:                                # %L.entry
	#DEBUG_VALUE: Wait: <- $rdi
	#DEBUG_VALUE: Wait: <- $rdi
	pushq	%rbp
	.cfi_def_cfa_offset 16
	.cfi_offset %rbp, -16
	movq	%rsp, %rbp
	.cfi_def_cfa_register %rbp
.Ltmp418:
	#DEBUG_VALUE:  <- $rdi
	#DEBUG_VALUE:  <- $rdi
	.loc	12 35 1 prologue_end    # /usr/lib/x86_64-linux-gnu/openmpi/include/openmpi/ompi/mpi/cxx/request_inln.h:35:1
	addq	$8, %rdi
.Ltmp419:
	xorl	%esi, %esi
	popq	%rbp
	.cfi_def_cfa %rsp, 8
	jmp	MPI_Wait                # TAILCALL
.Ltmp420:
.Lfunc_end53:
	.size	_ZN3MPI7Request4WaitEv, .Lfunc_end53-_ZN3MPI7Request4WaitEv
	.cfi_endproc
                                        # -- End function
	.weak	_ZN3MPI7Request4TestERNS_6StatusE # -- Begin function _ZN3MPI7Request4TestERNS_6StatusE
	.p2align	4, 0x90
	.type	_ZN3MPI7Request4TestERNS_6StatusE,@function
_ZN3MPI7Request4TestERNS_6StatusE:      # @_ZN3MPI7Request4TestERNS_6StatusE
.Lfunc_begin54:
	.loc	12 46 0                 # /usr/lib/x86_64-linux-gnu/openmpi/include/openmpi/ompi/mpi/cxx/request_inln.h:46:0
	.cfi_startproc
# %bb.0:                                # %L.entry
	#DEBUG_VALUE: Test: <- $rdi
	#DEBUG_VALUE: Test: <- $rdi
	#DEBUG_VALUE: Test:status <- $rsi
	#DEBUG_VALUE: Test:status <- $rsi
	pushq	%rbp
	.cfi_def_cfa_offset 16
	.cfi_offset %rbp, -16
	movq	%rsp, %rbp
	.cfi_def_cfa_register %rbp
	subq	$16, %rsp
.Ltmp421:
	#DEBUG_VALUE:  <- $rdi
	#DEBUG_VALUE: status <- $rsi
	.loc	12 48 1 prologue_end    # /usr/lib/x86_64-linux-gnu/openmpi/include/openmpi/ompi/mpi/cxx/request_inln.h:48:1
	addq	$8, %rdi
.Ltmp422:
	leaq	8(%rsi), %rdx
.Ltmp423:
	#DEBUG_VALUE: t <- [DW_OP_constu 4, DW_OP_minus, DW_OP_deref] $rbp
	.loc	12 0 1 is_stmt 0        # /usr/lib/x86_64-linux-gnu/openmpi/include/openmpi/ompi/mpi/cxx/request_inln.h:0:1
	leaq	-4(%rbp), %rsi
.Ltmp424:
	.loc	12 48 1                 # /usr/lib/x86_64-linux-gnu/openmpi/include/openmpi/ompi/mpi/cxx/request_inln.h:48:1
	callq	MPI_Test
.Ltmp425:
	#DEBUG_VALUE: t <- undef
	.loc	12 49 1 is_stmt 1       # /usr/lib/x86_64-linux-gnu/openmpi/include/openmpi/ompi/mpi/cxx/request_inln.h:49:1
	cmpl	$0, -4(%rbp)
	setne	%al
	addq	$16, %rsp
	popq	%rbp
	.cfi_def_cfa %rsp, 8
	retq
.Ltmp426:
.Lfunc_end54:
	.size	_ZN3MPI7Request4TestERNS_6StatusE, .Lfunc_end54-_ZN3MPI7Request4TestERNS_6StatusE
	.cfi_endproc
                                        # -- End function
	.weak	_ZN3MPI7Request4TestEv  # -- Begin function _ZN3MPI7Request4TestEv
	.p2align	4, 0x90
	.type	_ZN3MPI7Request4TestEv,@function
_ZN3MPI7Request4TestEv:                 # @_ZN3MPI7Request4TestEv
.Lfunc_begin55:
	.loc	12 54 0                 # /usr/lib/x86_64-linux-gnu/openmpi/include/openmpi/ompi/mpi/cxx/request_inln.h:54:0
	.cfi_startproc
# %bb.0:                                # %L.entry
	#DEBUG_VALUE: Test: <- $rdi
	#DEBUG_VALUE: Test: <- $rdi
	pushq	%rbp
	.cfi_def_cfa_offset 16
	.cfi_offset %rbp, -16
	movq	%rsp, %rbp
	.cfi_def_cfa_register %rbp
	subq	$16, %rsp
.Ltmp427:
	#DEBUG_VALUE:  <- $rdi
	.loc	12 56 1 prologue_end    # /usr/lib/x86_64-linux-gnu/openmpi/include/openmpi/ompi/mpi/cxx/request_inln.h:56:1
	addq	$8, %rdi
.Ltmp428:
	#DEBUG_VALUE: t <- [DW_OP_constu 4, DW_OP_minus, DW_OP_deref] $rbp
	.loc	12 0 1 is_stmt 0        # /usr/lib/x86_64-linux-gnu/openmpi/include/openmpi/ompi/mpi/cxx/request_inln.h:0:1
	leaq	-4(%rbp), %rsi
	.loc	12 56 1                 # /usr/lib/x86_64-linux-gnu/openmpi/include/openmpi/ompi/mpi/cxx/request_inln.h:56:1
	xorl	%edx, %edx
	callq	MPI_Test
.Ltmp429:
	#DEBUG_VALUE: t <- undef
	.loc	12 57 1 is_stmt 1       # /usr/lib/x86_64-linux-gnu/openmpi/include/openmpi/ompi/mpi/cxx/request_inln.h:57:1
	cmpl	$0, -4(%rbp)
	setne	%al
	addq	$16, %rsp
	popq	%rbp
	.cfi_def_cfa %rsp, 8
	retq
.Ltmp430:
.Lfunc_end55:
	.size	_ZN3MPI7Request4TestEv, .Lfunc_end55-_ZN3MPI7Request4TestEv
	.cfi_endproc
                                        # -- End function
	.weak	_ZN3MPI7Request4FreeEv  # -- Begin function _ZN3MPI7Request4FreeEv
	.p2align	4, 0x90
	.type	_ZN3MPI7Request4FreeEv,@function
_ZN3MPI7Request4FreeEv:                 # @_ZN3MPI7Request4FreeEv
.Lfunc_begin56:
	.loc	12 40 0                 # /usr/lib/x86_64-linux-gnu/openmpi/include/openmpi/ompi/mpi/cxx/request_inln.h:40:0
	.cfi_startproc
# %bb.0:                                # %L.entry
	#DEBUG_VALUE: Free: <- $rdi
	#DEBUG_VALUE: Free: <- $rdi
	pushq	%rbp
	.cfi_def_cfa_offset 16
	.cfi_offset %rbp, -16
	movq	%rsp, %rbp
	.cfi_def_cfa_register %rbp
.Ltmp431:
	#DEBUG_VALUE:  <- $rdi
	#DEBUG_VALUE:  <- $rdi
	.loc	12 41 1 prologue_end    # /usr/lib/x86_64-linux-gnu/openmpi/include/openmpi/ompi/mpi/cxx/request_inln.h:41:1
	addq	$8, %rdi
.Ltmp432:
	popq	%rbp
	.cfi_def_cfa %rsp, 8
	jmp	MPI_Request_free        # TAILCALL
.Ltmp433:
.Lfunc_end56:
	.size	_ZN3MPI7Request4FreeEv, .Lfunc_end56-_ZN3MPI7Request4FreeEv
	.cfi_endproc
                                        # -- End function
	.weak	_ZNK3MPI7Request6CancelEv # -- Begin function _ZNK3MPI7Request6CancelEv
	.p2align	4, 0x90
	.type	_ZNK3MPI7Request6CancelEv,@function
_ZNK3MPI7Request6CancelEv:              # @_ZNK3MPI7Request6CancelEv
.Lfunc_begin57:
	.loc	12 289 0                # /usr/lib/x86_64-linux-gnu/openmpi/include/openmpi/ompi/mpi/cxx/request_inln.h:289:0
	.cfi_startproc
# %bb.0:                                # %L.entry
	#DEBUG_VALUE: Cancel: <- $rdi
	#DEBUG_VALUE: Cancel: <- $rdi
	pushq	%rbp
	.cfi_def_cfa_offset 16
	.cfi_offset %rbp, -16
	movq	%rsp, %rbp
	.cfi_def_cfa_register %rbp
.Ltmp434:
	#DEBUG_VALUE:  <- $rdi
	#DEBUG_VALUE:  <- $rdi
	.loc	12 290 1 prologue_end   # /usr/lib/x86_64-linux-gnu/openmpi/include/openmpi/ompi/mpi/cxx/request_inln.h:290:1
	addq	$8, %rdi
.Ltmp435:
	popq	%rbp
	.cfi_def_cfa %rsp, 8
	jmp	MPI_Cancel              # TAILCALL
.Ltmp436:
.Lfunc_end57:
	.size	_ZNK3MPI7Request6CancelEv, .Lfunc_end57-_ZNK3MPI7Request6CancelEv
	.cfi_endproc
                                        # -- End function
	.weak	_ZNK3MPI7Request10Get_statusERNS_6StatusE # -- Begin function _ZNK3MPI7Request10Get_statusERNS_6StatusE
	.p2align	4, 0x90
	.type	_ZNK3MPI7Request10Get_statusERNS_6StatusE,@function
_ZNK3MPI7Request10Get_statusERNS_6StatusE: # @_ZNK3MPI7Request10Get_statusERNS_6StatusE
.Lfunc_begin58:
	.loc	12 316 0                # /usr/lib/x86_64-linux-gnu/openmpi/include/openmpi/ompi/mpi/cxx/request_inln.h:316:0
	.cfi_startproc
# %bb.0:                                # %L.entry
	#DEBUG_VALUE: Get_status: <- $rdi
	#DEBUG_VALUE: Get_status:status <- $rsi
	pushq	%rbp
	.cfi_def_cfa_offset 16
	.cfi_offset %rbp, -16
	movq	%rsp, %rbp
	.cfi_def_cfa_register %rbp
	pushq	%rbx
	subq	$40, %rsp
	.cfi_offset %rbx, -24
	movq	%rsi, %rbx
.Ltmp437:
	#DEBUG_VALUE: flag <- 0
	#DEBUG_VALUE: status <- undef
	#DEBUG_VALUE:  <- $rdi
	#DEBUG_VALUE: Get_status:status <- $rbx
	#DEBUG_VALUE: Get_status: <- $rdi
	.loc	12 317 1 prologue_end   # /usr/lib/x86_64-linux-gnu/openmpi/include/openmpi/ompi/mpi/cxx/request_inln.h:317:1
	movl	$0, -12(%rbp)
	.loc	12 323 1                # /usr/lib/x86_64-linux-gnu/openmpi/include/openmpi/ompi/mpi/cxx/request_inln.h:323:1
	movq	8(%rdi), %rdi
.Ltmp438:
	#DEBUG_VALUE: flag <- [DW_OP_constu 12, DW_OP_minus, DW_OP_deref] $rbp
	.loc	12 0 1 is_stmt 0        # /usr/lib/x86_64-linux-gnu/openmpi/include/openmpi/ompi/mpi/cxx/request_inln.h:0:1
	leaq	-12(%rbp), %rsi
	leaq	-48(%rbp), %rdx
	.loc	12 323 1                # /usr/lib/x86_64-linux-gnu/openmpi/include/openmpi/ompi/mpi/cxx/request_inln.h:323:1
	callq	MPI_Request_get_status
	.loc	12 324 1 is_stmt 1      # /usr/lib/x86_64-linux-gnu/openmpi/include/openmpi/ompi/mpi/cxx/request_inln.h:324:1
	movl	-12(%rbp), %eax
.Ltmp439:
	#DEBUG_VALUE: flag <- $eax
	testl	%eax, %eax
	je	.LBB58_2
.Ltmp440:
# %bb.1:                                # %L.B1172
	#DEBUG_VALUE: flag <- $eax
	#DEBUG_VALUE: Get_status:status <- $rbx
	.loc	12 325 1                # /usr/lib/x86_64-linux-gnu/openmpi/include/openmpi/ompi/mpi/cxx/request_inln.h:325:1
	vmovaps	-48(%rbp), %xmm0
	vmovups	%xmm0, 8(%rbx)
	movq	-32(%rbp), %rcx
	movq	%rcx, 24(%rbx)
.Ltmp441:
.LBB58_2:                               # %L.B0112
	#DEBUG_VALUE: flag <- $eax
	#DEBUG_VALUE: Get_status:status <- $rbx
	#DEBUG_VALUE: flag <- $eax
	.loc	12 327 1                # /usr/lib/x86_64-linux-gnu/openmpi/include/openmpi/ompi/mpi/cxx/request_inln.h:327:1
	testl	%eax, %eax
	setne	%al
.Ltmp442:
	addq	$40, %rsp
	popq	%rbx
.Ltmp443:
	popq	%rbp
	.cfi_def_cfa %rsp, 8
	retq
.Ltmp444:
.Lfunc_end58:
	.size	_ZNK3MPI7Request10Get_statusERNS_6StatusE, .Lfunc_end58-_ZNK3MPI7Request10Get_statusERNS_6StatusE
	.cfi_endproc
                                        # -- End function
	.weak	_ZNK3MPI7Request10Get_statusEv # -- Begin function _ZNK3MPI7Request10Get_statusEv
	.p2align	4, 0x90
	.type	_ZNK3MPI7Request10Get_statusEv,@function
_ZNK3MPI7Request10Get_statusEv:         # @_ZNK3MPI7Request10Get_statusEv
.Lfunc_begin59:
	.loc	12 331 0                # /usr/lib/x86_64-linux-gnu/openmpi/include/openmpi/ompi/mpi/cxx/request_inln.h:331:0
	.cfi_startproc
# %bb.0:                                # %L.entry
	#DEBUG_VALUE: Get_status: <- $rdi
	#DEBUG_VALUE: Get_status: <- $rdi
	pushq	%rbp
	.cfi_def_cfa_offset 16
	.cfi_offset %rbp, -16
	movq	%rsp, %rbp
	.cfi_def_cfa_register %rbp
	subq	$16, %rsp
.Ltmp445:
	#DEBUG_VALUE:  <- $rdi
	.loc	12 337 1 prologue_end   # /usr/lib/x86_64-linux-gnu/openmpi/include/openmpi/ompi/mpi/cxx/request_inln.h:337:1
	movq	8(%rdi), %rdi
.Ltmp446:
	#DEBUG_VALUE: flag <- [DW_OP_constu 4, DW_OP_minus, DW_OP_deref] $rbp
	.loc	12 0 1 is_stmt 0        # /usr/lib/x86_64-linux-gnu/openmpi/include/openmpi/ompi/mpi/cxx/request_inln.h:0:1
	leaq	-4(%rbp), %rsi
	.loc	12 337 1                # /usr/lib/x86_64-linux-gnu/openmpi/include/openmpi/ompi/mpi/cxx/request_inln.h:337:1
	xorl	%edx, %edx
	callq	MPI_Request_get_status
.Ltmp447:
	#DEBUG_VALUE: flag <- undef
	.loc	12 338 1 is_stmt 1      # /usr/lib/x86_64-linux-gnu/openmpi/include/openmpi/ompi/mpi/cxx/request_inln.h:338:1
	cmpl	$0, -4(%rbp)
	setne	%al
	addq	$16, %rsp
	popq	%rbp
	.cfi_def_cfa %rsp, 8
	retq
.Ltmp448:
.Lfunc_end59:
	.size	_ZNK3MPI7Request10Get_statusEv, .Lfunc_end59-_ZNK3MPI7Request10Get_statusEv
	.cfi_endproc
                                        # -- End function
	.weak	_ZN3MPI8PrequestD1Ev    # -- Begin function _ZN3MPI8PrequestD1Ev
	.p2align	4, 0x90
	.type	_ZN3MPI8PrequestD1Ev,@function
_ZN3MPI8PrequestD1Ev:                   # @_ZN3MPI8PrequestD1Ev
.Lfunc_begin60:
	.loc	11 177 0                # /usr/lib/x86_64-linux-gnu/openmpi/include/openmpi/ompi/mpi/cxx/request.h:177:0
	.cfi_startproc
# %bb.0:                                # %L.entry
	#DEBUG_VALUE: ~Prequest: <- $rdi
	#DEBUG_VALUE: ~Prequest: <- $rdi
	pushq	%rbp
	.cfi_def_cfa_offset 16
	.cfi_offset %rbp, -16
	movq	%rsp, %rbp
	.cfi_def_cfa_register %rbp
.Ltmp449:
	#DEBUG_VALUE:  <- $rdi
	#DEBUG_VALUE:  <- $rdi
	.loc	11 177 1 prologue_end   # /usr/lib/x86_64-linux-gnu/openmpi/include/openmpi/ompi/mpi/cxx/request.h:177:1
	movq	$_ZTVN3MPI7RequestE+16, (%rdi)
	popq	%rbp
	.cfi_def_cfa %rsp, 8
	retq
.Ltmp450:
.Lfunc_end60:
	.size	_ZN3MPI8PrequestD1Ev, .Lfunc_end60-_ZN3MPI8PrequestD1Ev
	.cfi_endproc
                                        # -- End function
	.weak	_ZN3MPI8PrequestD0Ev    # -- Begin function _ZN3MPI8PrequestD0Ev
	.p2align	4, 0x90
	.type	_ZN3MPI8PrequestD0Ev,@function
_ZN3MPI8PrequestD0Ev:                   # @_ZN3MPI8PrequestD0Ev
.Lfunc_begin61:
	.loc	1 0 0                   # vlasovsolver/cpu_acc_load_blocks.cpp:0:0
	.cfi_startproc
# %bb.0:                                # %L.entry
	pushq	%rbp
	.cfi_def_cfa_offset 16
	.cfi_offset %rbp, -16
	movq	%rsp, %rbp
	.cfi_def_cfa_register %rbp
.Ltmp451:
	.loc	1 177 1 prologue_end    # vlasovsolver/cpu_acc_load_blocks.cpp:177:1
	movl	$16, %esi
	popq	%rbp
	.cfi_def_cfa %rsp, 8
	jmp	_ZdlPvm                 # TAILCALL
.Ltmp452:
.Lfunc_end61:
	.size	_ZN3MPI8PrequestD0Ev, .Lfunc_end61-_ZN3MPI8PrequestD0Ev
	.cfi_endproc
                                        # -- End function
	.weak	_ZN3MPI8Prequest5StartEv # -- Begin function _ZN3MPI8Prequest5StartEv
	.p2align	4, 0x90
	.type	_ZN3MPI8Prequest5StartEv,@function
_ZN3MPI8Prequest5StartEv:               # @_ZN3MPI8Prequest5StartEv
.Lfunc_begin62:
	.loc	12 295 0                # /usr/lib/x86_64-linux-gnu/openmpi/include/openmpi/ompi/mpi/cxx/request_inln.h:295:0
	.cfi_startproc
# %bb.0:                                # %L.entry
	#DEBUG_VALUE: Start: <- $rdi
	#DEBUG_VALUE: Start: <- $rdi
	pushq	%rbp
	.cfi_def_cfa_offset 16
	.cfi_offset %rbp, -16
	movq	%rsp, %rbp
	.cfi_def_cfa_register %rbp
.Ltmp453:
	#DEBUG_VALUE:  <- $rdi
	#DEBUG_VALUE:  <- $rdi
	.loc	12 296 1 prologue_end   # /usr/lib/x86_64-linux-gnu/openmpi/include/openmpi/ompi/mpi/cxx/request_inln.h:296:1
	addq	$8, %rdi
.Ltmp454:
	popq	%rbp
	.cfi_def_cfa %rsp, 8
	jmp	MPI_Start               # TAILCALL
.Ltmp455:
.Lfunc_end62:
	.size	_ZN3MPI8Prequest5StartEv, .Lfunc_end62-_ZN3MPI8Prequest5StartEv
	.cfi_endproc
                                        # -- End function
	.weak	_ZN3MPI8GrequestD1Ev    # -- Begin function _ZN3MPI8GrequestD1Ev
	.p2align	4, 0x90
	.type	_ZN3MPI8GrequestD1Ev,@function
_ZN3MPI8GrequestD1Ev:                   # @_ZN3MPI8GrequestD1Ev
.Lfunc_begin63:
	.loc	11 209 0                # /usr/lib/x86_64-linux-gnu/openmpi/include/openmpi/ompi/mpi/cxx/request.h:209:0
	.cfi_startproc
# %bb.0:                                # %L.entry
	#DEBUG_VALUE: ~Grequest: <- $rdi
	#DEBUG_VALUE: ~Grequest: <- $rdi
	pushq	%rbp
	.cfi_def_cfa_offset 16
	.cfi_offset %rbp, -16
	movq	%rsp, %rbp
	.cfi_def_cfa_register %rbp
.Ltmp456:
	#DEBUG_VALUE:  <- $rdi
	#DEBUG_VALUE:  <- $rdi
	.loc	11 209 1 prologue_end   # /usr/lib/x86_64-linux-gnu/openmpi/include/openmpi/ompi/mpi/cxx/request.h:209:1
	movq	$_ZTVN3MPI7RequestE+16, (%rdi)
	popq	%rbp
	.cfi_def_cfa %rsp, 8
	retq
.Ltmp457:
.Lfunc_end63:
	.size	_ZN3MPI8GrequestD1Ev, .Lfunc_end63-_ZN3MPI8GrequestD1Ev
	.cfi_endproc
                                        # -- End function
	.weak	_ZN3MPI8GrequestD0Ev    # -- Begin function _ZN3MPI8GrequestD0Ev
	.p2align	4, 0x90
	.type	_ZN3MPI8GrequestD0Ev,@function
_ZN3MPI8GrequestD0Ev:                   # @_ZN3MPI8GrequestD0Ev
.Lfunc_begin64:
	.loc	1 0 0                   # vlasovsolver/cpu_acc_load_blocks.cpp:0:0
	.cfi_startproc
# %bb.0:                                # %L.entry
	pushq	%rbp
	.cfi_def_cfa_offset 16
	.cfi_offset %rbp, -16
	movq	%rsp, %rbp
	.cfi_def_cfa_register %rbp
.Ltmp458:
	.loc	1 209 1 prologue_end    # vlasovsolver/cpu_acc_load_blocks.cpp:209:1
	movl	$16, %esi
	popq	%rbp
	.cfi_def_cfa %rsp, 8
	jmp	_ZdlPvm                 # TAILCALL
.Ltmp459:
.Lfunc_end64:
	.size	_ZN3MPI8GrequestD0Ev, .Lfunc_end64-_ZN3MPI8GrequestD0Ev
	.cfi_endproc
                                        # -- End function
	.weak	_ZN3MPI8Grequest8CompleteEv # -- Begin function _ZN3MPI8Grequest8CompleteEv
	.p2align	4, 0x90
	.type	_ZN3MPI8Grequest8CompleteEv,@function
_ZN3MPI8Grequest8CompleteEv:            # @_ZN3MPI8Grequest8CompleteEv
.Lfunc_begin65:
	.loc	12 363 0                # /usr/lib/x86_64-linux-gnu/openmpi/include/openmpi/ompi/mpi/cxx/request_inln.h:363:0
	.cfi_startproc
# %bb.0:                                # %L.entry
	#DEBUG_VALUE: Complete: <- $rdi
	#DEBUG_VALUE: Complete: <- $rdi
	pushq	%rbp
	.cfi_def_cfa_offset 16
	.cfi_offset %rbp, -16
	movq	%rsp, %rbp
	.cfi_def_cfa_register %rbp
.Ltmp460:
	#DEBUG_VALUE:  <- $rdi
	#DEBUG_VALUE:  <- $rdi
	.loc	12 364 1 prologue_end   # /usr/lib/x86_64-linux-gnu/openmpi/include/openmpi/ompi/mpi/cxx/request_inln.h:364:1
	movq	8(%rdi), %rdi
.Ltmp461:
	popq	%rbp
	.cfi_def_cfa %rsp, 8
	jmp	MPI_Grequest_complete   # TAILCALL
.Ltmp462:
.Lfunc_end65:
	.size	_ZN3MPI8Grequest8CompleteEv, .Lfunc_end65-_ZN3MPI8Grequest8CompleteEv
	.cfi_endproc
                                        # -- End function
	.weak	_ZN3MPI5GroupD1Ev       # -- Begin function _ZN3MPI5GroupD1Ev
	.p2align	4, 0x90
	.type	_ZN3MPI5GroupD1Ev,@function
_ZN3MPI5GroupD1Ev:                      # @_ZN3MPI5GroupD1Ev
.Lfunc_begin66:
	.file	13 "/usr/lib/x86_64-linux-gnu/openmpi/include/openmpi/ompi/mpi/cxx/group.h"
	.loc	13 67 0                 # /usr/lib/x86_64-linux-gnu/openmpi/include/openmpi/ompi/mpi/cxx/group.h:67:0
	.cfi_startproc
# %bb.0:                                # %L.entry
	#DEBUG_VALUE: ~Group: <- $rdi
	#DEBUG_VALUE: ~Group: <- $rdi
	pushq	%rbp
	.cfi_def_cfa_offset 16
	.cfi_offset %rbp, -16
	movq	%rsp, %rbp
	.cfi_def_cfa_register %rbp
.Ltmp463:
	#DEBUG_VALUE:  <- $rdi
	#DEBUG_VALUE:  <- $rdi
	.loc	13 67 1 prologue_end    # /usr/lib/x86_64-linux-gnu/openmpi/include/openmpi/ompi/mpi/cxx/group.h:67:1
	movq	$_ZTVN3MPI5GroupE+16, (%rdi)
	popq	%rbp
	.cfi_def_cfa %rsp, 8
	retq
.Ltmp464:
.Lfunc_end66:
	.size	_ZN3MPI5GroupD1Ev, .Lfunc_end66-_ZN3MPI5GroupD1Ev
	.cfi_endproc
                                        # -- End function
	.weak	_ZN3MPI5GroupD0Ev       # -- Begin function _ZN3MPI5GroupD0Ev
	.p2align	4, 0x90
	.type	_ZN3MPI5GroupD0Ev,@function
_ZN3MPI5GroupD0Ev:                      # @_ZN3MPI5GroupD0Ev
.Lfunc_begin67:
	.loc	1 0 0                   # vlasovsolver/cpu_acc_load_blocks.cpp:0:0
	.cfi_startproc
# %bb.0:                                # %L.entry
	pushq	%rbp
	.cfi_def_cfa_offset 16
	.cfi_offset %rbp, -16
	movq	%rsp, %rbp
	.cfi_def_cfa_register %rbp
.Ltmp465:
	.loc	1 67 1 prologue_end     # vlasovsolver/cpu_acc_load_blocks.cpp:67:1
	movl	$16, %esi
	popq	%rbp
	.cfi_def_cfa %rsp, 8
	jmp	_ZdlPvm                 # TAILCALL
.Ltmp466:
.Lfunc_end67:
	.size	_ZN3MPI5GroupD0Ev, .Lfunc_end67-_ZN3MPI5GroupD0Ev
	.cfi_endproc
                                        # -- End function
	.weak	_ZNK3MPI5Group8Get_sizeEv # -- Begin function _ZNK3MPI5Group8Get_sizeEv
	.p2align	4, 0x90
	.type	_ZNK3MPI5Group8Get_sizeEv,@function
_ZNK3MPI5Group8Get_sizeEv:              # @_ZNK3MPI5Group8Get_sizeEv
.Lfunc_begin68:
	.file	14 "/usr/lib/x86_64-linux-gnu/openmpi/include/openmpi/ompi/mpi/cxx/group_inln.h"
	.loc	14 27 0                 # /usr/lib/x86_64-linux-gnu/openmpi/include/openmpi/ompi/mpi/cxx/group_inln.h:27:0
	.cfi_startproc
# %bb.0:                                # %L.entry
	#DEBUG_VALUE: Get_size: <- $rdi
	#DEBUG_VALUE: Get_size: <- $rdi
	pushq	%rbp
	.cfi_def_cfa_offset 16
	.cfi_offset %rbp, -16
	movq	%rsp, %rbp
	.cfi_def_cfa_register %rbp
	subq	$16, %rsp
.Ltmp467:
	#DEBUG_VALUE:  <- $rdi
	.loc	14 29 1 prologue_end    # /usr/lib/x86_64-linux-gnu/openmpi/include/openmpi/ompi/mpi/cxx/group_inln.h:29:1
	movq	8(%rdi), %rdi
.Ltmp468:
	#DEBUG_VALUE: size <- [DW_OP_constu 4, DW_OP_minus, DW_OP_deref] $rbp
	.loc	14 0 1 is_stmt 0        # /usr/lib/x86_64-linux-gnu/openmpi/include/openmpi/ompi/mpi/cxx/group_inln.h:0:1
	leaq	-4(%rbp), %rsi
	.loc	14 29 1                 # /usr/lib/x86_64-linux-gnu/openmpi/include/openmpi/ompi/mpi/cxx/group_inln.h:29:1
	callq	MPI_Group_size
	.loc	14 30 1 is_stmt 1       # /usr/lib/x86_64-linux-gnu/openmpi/include/openmpi/ompi/mpi/cxx/group_inln.h:30:1
	movl	-4(%rbp), %eax
.Ltmp469:
	#DEBUG_VALUE: size <- $eax
	addq	$16, %rsp
	popq	%rbp
	.cfi_def_cfa %rsp, 8
	retq
.Ltmp470:
.Lfunc_end68:
	.size	_ZNK3MPI5Group8Get_sizeEv, .Lfunc_end68-_ZNK3MPI5Group8Get_sizeEv
	.cfi_endproc
                                        # -- End function
	.weak	_ZNK3MPI5Group8Get_rankEv # -- Begin function _ZNK3MPI5Group8Get_rankEv
	.p2align	4, 0x90
	.type	_ZNK3MPI5Group8Get_rankEv,@function
_ZNK3MPI5Group8Get_rankEv:              # @_ZNK3MPI5Group8Get_rankEv
.Lfunc_begin69:
	.loc	14 35 0                 # /usr/lib/x86_64-linux-gnu/openmpi/include/openmpi/ompi/mpi/cxx/group_inln.h:35:0
	.cfi_startproc
# %bb.0:                                # %L.entry
	#DEBUG_VALUE: Get_rank: <- $rdi
	#DEBUG_VALUE: Get_rank: <- $rdi
	pushq	%rbp
	.cfi_def_cfa_offset 16
	.cfi_offset %rbp, -16
	movq	%rsp, %rbp
	.cfi_def_cfa_register %rbp
	subq	$16, %rsp
.Ltmp471:
	#DEBUG_VALUE:  <- $rdi
	.loc	14 37 1 prologue_end    # /usr/lib/x86_64-linux-gnu/openmpi/include/openmpi/ompi/mpi/cxx/group_inln.h:37:1
	movq	8(%rdi), %rdi
.Ltmp472:
	#DEBUG_VALUE: myrank <- [DW_OP_constu 4, DW_OP_minus, DW_OP_deref] $rbp
	.loc	14 0 1 is_stmt 0        # /usr/lib/x86_64-linux-gnu/openmpi/include/openmpi/ompi/mpi/cxx/group_inln.h:0:1
	leaq	-4(%rbp), %rsi
	.loc	14 37 1                 # /usr/lib/x86_64-linux-gnu/openmpi/include/openmpi/ompi/mpi/cxx/group_inln.h:37:1
	callq	MPI_Group_rank
	.loc	14 38 1 is_stmt 1       # /usr/lib/x86_64-linux-gnu/openmpi/include/openmpi/ompi/mpi/cxx/group_inln.h:38:1
	movl	-4(%rbp), %eax
.Ltmp473:
	#DEBUG_VALUE: myrank <- $eax
	addq	$16, %rsp
	popq	%rbp
	.cfi_def_cfa %rsp, 8
	retq
.Ltmp474:
.Lfunc_end69:
	.size	_ZNK3MPI5Group8Get_rankEv, .Lfunc_end69-_ZNK3MPI5Group8Get_rankEv
	.cfi_endproc
                                        # -- End function
	.weak	_ZNK3MPI5Group4InclEiPKi # -- Begin function _ZNK3MPI5Group4InclEiPKi
	.p2align	4, 0x90
	.type	_ZNK3MPI5Group4InclEiPKi,@function
_ZNK3MPI5Group4InclEiPKi:               # @_ZNK3MPI5Group4InclEiPKi
.Lfunc_begin70:
	.loc	14 83 0                 # /usr/lib/x86_64-linux-gnu/openmpi/include/openmpi/ompi/mpi/cxx/group_inln.h:83:0
	.cfi_startproc
# %bb.0:                                # %L.entry
	#DEBUG_VALUE: Incl: <- $rsi
	#DEBUG_VALUE: Incl:n <- $edx
	#DEBUG_VALUE: Incl:ranks <- $rcx
	pushq	%rbp
	.cfi_def_cfa_offset 16
	.cfi_offset %rbp, -16
	movq	%rsp, %rbp
	.cfi_def_cfa_register %rbp
	pushq	%rbx
	pushq	%rax
	.cfi_offset %rbx, -24
	movq	%rdi, %rbx
.Ltmp475:
	#DEBUG_VALUE:  <- $rsi
	#DEBUG_VALUE: ranks <- $rcx
	#DEBUG_VALUE: n <- $edx
	#DEBUG_VALUE: Incl:ranks <- $rcx
	#DEBUG_VALUE: Incl:n <- $edx
	#DEBUG_VALUE: Incl: <- $rsi
	.loc	14 85 1 prologue_end    # /usr/lib/x86_64-linux-gnu/openmpi/include/openmpi/ompi/mpi/cxx/group_inln.h:85:1
	movq	8(%rsi), %rdi
.Ltmp476:
	#DEBUG_VALUE: newgroup <- [DW_OP_constu 16, DW_OP_minus, DW_OP_deref] $rbp
	.loc	14 0 1 is_stmt 0        # /usr/lib/x86_64-linux-gnu/openmpi/include/openmpi/ompi/mpi/cxx/group_inln.h:0:1
	leaq	-16(%rbp), %rax
	.loc	14 85 1                 # /usr/lib/x86_64-linux-gnu/openmpi/include/openmpi/ompi/mpi/cxx/group_inln.h:85:1
	movl	%edx, %esi
.Ltmp477:
	#DEBUG_VALUE: Incl:n <- $esi
	movq	%rcx, %rdx
.Ltmp478:
	#DEBUG_VALUE: Incl:ranks <- $rdx
	movq	%rax, %rcx
.Ltmp479:
	callq	MPI_Group_incl
.Ltmp480:
	.loc	14 86 1 is_stmt 1       # /usr/lib/x86_64-linux-gnu/openmpi/include/openmpi/ompi/mpi/cxx/group_inln.h:86:1
	movq	-16(%rbp), %rax
.Ltmp481:
	#DEBUG_VALUE: newgroup <- undef
	movq	$_ZTVN3MPI5GroupE+16, (%rbx)
	.loc	14 62 1                 # /usr/lib/x86_64-linux-gnu/openmpi/include/openmpi/ompi/mpi/cxx/group_inln.h:62:1
	movq	%rax, 8(%rbx)
	.loc	14 87 1                 # /usr/lib/x86_64-linux-gnu/openmpi/include/openmpi/ompi/mpi/cxx/group_inln.h:87:1
	movq	%rbx, %rax
	addq	$8, %rsp
	popq	%rbx
	popq	%rbp
	.cfi_def_cfa %rsp, 8
	retq
.Ltmp482:
.Lfunc_end70:
	.size	_ZNK3MPI5Group4InclEiPKi, .Lfunc_end70-_ZNK3MPI5Group4InclEiPKi
	.cfi_endproc
                                        # -- End function
	.weak	_ZNK3MPI5Group4ExclEiPKi # -- Begin function _ZNK3MPI5Group4ExclEiPKi
	.p2align	4, 0x90
	.type	_ZNK3MPI5Group4ExclEiPKi,@function
_ZNK3MPI5Group4ExclEiPKi:               # @_ZNK3MPI5Group4ExclEiPKi
.Lfunc_begin71:
	.loc	14 91 0                 # /usr/lib/x86_64-linux-gnu/openmpi/include/openmpi/ompi/mpi/cxx/group_inln.h:91:0
	.cfi_startproc
# %bb.0:                                # %L.entry
	#DEBUG_VALUE: Excl: <- $rsi
	#DEBUG_VALUE: Excl:n <- $edx
	#DEBUG_VALUE: Excl:ranks <- $rcx
	pushq	%rbp
	.cfi_def_cfa_offset 16
	.cfi_offset %rbp, -16
	movq	%rsp, %rbp
	.cfi_def_cfa_register %rbp
	pushq	%rbx
	pushq	%rax
	.cfi_offset %rbx, -24
	movq	%rdi, %rbx
.Ltmp483:
	#DEBUG_VALUE:  <- $rsi
	#DEBUG_VALUE: ranks <- $rcx
	#DEBUG_VALUE: n <- $edx
	#DEBUG_VALUE: Excl:ranks <- $rcx
	#DEBUG_VALUE: Excl:n <- $edx
	#DEBUG_VALUE: Excl: <- $rsi
	.loc	14 93 1 prologue_end    # /usr/lib/x86_64-linux-gnu/openmpi/include/openmpi/ompi/mpi/cxx/group_inln.h:93:1
	movq	8(%rsi), %rdi
.Ltmp484:
	#DEBUG_VALUE: newgroup <- [DW_OP_constu 16, DW_OP_minus, DW_OP_deref] $rbp
	.loc	14 0 1 is_stmt 0        # /usr/lib/x86_64-linux-gnu/openmpi/include/openmpi/ompi/mpi/cxx/group_inln.h:0:1
	leaq	-16(%rbp), %rax
	.loc	14 93 1                 # /usr/lib/x86_64-linux-gnu/openmpi/include/openmpi/ompi/mpi/cxx/group_inln.h:93:1
	movl	%edx, %esi
.Ltmp485:
	#DEBUG_VALUE: Excl:n <- $esi
	movq	%rcx, %rdx
.Ltmp486:
	#DEBUG_VALUE: Excl:ranks <- $rdx
	movq	%rax, %rcx
.Ltmp487:
	callq	MPI_Group_excl
.Ltmp488:
	.loc	14 94 1 is_stmt 1       # /usr/lib/x86_64-linux-gnu/openmpi/include/openmpi/ompi/mpi/cxx/group_inln.h:94:1
	movq	-16(%rbp), %rax
.Ltmp489:
	#DEBUG_VALUE: newgroup <- undef
	movq	$_ZTVN3MPI5GroupE+16, (%rbx)
	.loc	14 62 1                 # /usr/lib/x86_64-linux-gnu/openmpi/include/openmpi/ompi/mpi/cxx/group_inln.h:62:1
	movq	%rax, 8(%rbx)
	.loc	14 95 1                 # /usr/lib/x86_64-linux-gnu/openmpi/include/openmpi/ompi/mpi/cxx/group_inln.h:95:1
	movq	%rbx, %rax
	addq	$8, %rsp
	popq	%rbx
	popq	%rbp
	.cfi_def_cfa %rsp, 8
	retq
.Ltmp490:
.Lfunc_end71:
	.size	_ZNK3MPI5Group4ExclEiPKi, .Lfunc_end71-_ZNK3MPI5Group4ExclEiPKi
	.cfi_endproc
                                        # -- End function
	.weak	_ZNK3MPI5Group10Range_inclEiPA3_Ki # -- Begin function _ZNK3MPI5Group10Range_inclEiPA3_Ki
	.p2align	4, 0x90
	.type	_ZNK3MPI5Group10Range_inclEiPA3_Ki,@function
_ZNK3MPI5Group10Range_inclEiPA3_Ki:     # @_ZNK3MPI5Group10Range_inclEiPA3_Ki
.Lfunc_begin72:
	.loc	14 99 0                 # /usr/lib/x86_64-linux-gnu/openmpi/include/openmpi/ompi/mpi/cxx/group_inln.h:99:0
	.cfi_startproc
# %bb.0:                                # %L.entry
	#DEBUG_VALUE: Range_incl: <- $rsi
	#DEBUG_VALUE: Range_incl:n <- $edx
	#DEBUG_VALUE: Range_incl:ranges <- $rcx
	pushq	%rbp
	.cfi_def_cfa_offset 16
	.cfi_offset %rbp, -16
	movq	%rsp, %rbp
	.cfi_def_cfa_register %rbp
	pushq	%rbx
	pushq	%rax
	.cfi_offset %rbx, -24
	movq	%rdi, %rbx
.Ltmp491:
	#DEBUG_VALUE:  <- $rsi
	#DEBUG_VALUE: ranges <- $rcx
	#DEBUG_VALUE: n <- $edx
	#DEBUG_VALUE: Range_incl:ranges <- $rcx
	#DEBUG_VALUE: Range_incl:n <- $edx
	#DEBUG_VALUE: Range_incl: <- $rsi
	.loc	14 101 1 prologue_end   # /usr/lib/x86_64-linux-gnu/openmpi/include/openmpi/ompi/mpi/cxx/group_inln.h:101:1
	movq	8(%rsi), %rdi
.Ltmp492:
	#DEBUG_VALUE: newgroup <- [DW_OP_constu 16, DW_OP_minus, DW_OP_deref] $rbp
	.loc	14 0 1 is_stmt 0        # /usr/lib/x86_64-linux-gnu/openmpi/include/openmpi/ompi/mpi/cxx/group_inln.h:0:1
	leaq	-16(%rbp), %rax
	.loc	14 101 1                # /usr/lib/x86_64-linux-gnu/openmpi/include/openmpi/ompi/mpi/cxx/group_inln.h:101:1
	movl	%edx, %esi
.Ltmp493:
	#DEBUG_VALUE: Range_incl:n <- $esi
	movq	%rcx, %rdx
.Ltmp494:
	#DEBUG_VALUE: Range_incl:ranges <- $rdx
	movq	%rax, %rcx
.Ltmp495:
	callq	MPI_Group_range_incl
.Ltmp496:
	.loc	14 108 1 is_stmt 1      # /usr/lib/x86_64-linux-gnu/openmpi/include/openmpi/ompi/mpi/cxx/group_inln.h:108:1
	movq	-16(%rbp), %rax
.Ltmp497:
	#DEBUG_VALUE: newgroup <- undef
	movq	$_ZTVN3MPI5GroupE+16, (%rbx)
	.loc	14 62 1                 # /usr/lib/x86_64-linux-gnu/openmpi/include/openmpi/ompi/mpi/cxx/group_inln.h:62:1
	movq	%rax, 8(%rbx)
	.loc	14 109 1                # /usr/lib/x86_64-linux-gnu/openmpi/include/openmpi/ompi/mpi/cxx/group_inln.h:109:1
	movq	%rbx, %rax
	addq	$8, %rsp
	popq	%rbx
	popq	%rbp
	.cfi_def_cfa %rsp, 8
	retq
.Ltmp498:
.Lfunc_end72:
	.size	_ZNK3MPI5Group10Range_inclEiPA3_Ki, .Lfunc_end72-_ZNK3MPI5Group10Range_inclEiPA3_Ki
	.cfi_endproc
                                        # -- End function
	.weak	_ZNK3MPI5Group10Range_exclEiPA3_Ki # -- Begin function _ZNK3MPI5Group10Range_exclEiPA3_Ki
	.p2align	4, 0x90
	.type	_ZNK3MPI5Group10Range_exclEiPA3_Ki,@function
_ZNK3MPI5Group10Range_exclEiPA3_Ki:     # @_ZNK3MPI5Group10Range_exclEiPA3_Ki
.Lfunc_begin73:
	.loc	14 113 0                # /usr/lib/x86_64-linux-gnu/openmpi/include/openmpi/ompi/mpi/cxx/group_inln.h:113:0
	.cfi_startproc
# %bb.0:                                # %L.entry
	#DEBUG_VALUE: Range_excl: <- $rsi
	#DEBUG_VALUE: Range_excl:n <- $edx
	#DEBUG_VALUE: Range_excl:ranges <- $rcx
	pushq	%rbp
	.cfi_def_cfa_offset 16
	.cfi_offset %rbp, -16
	movq	%rsp, %rbp
	.cfi_def_cfa_register %rbp
	pushq	%rbx
	pushq	%rax
	.cfi_offset %rbx, -24
	movq	%rdi, %rbx
.Ltmp499:
	#DEBUG_VALUE:  <- $rsi
	#DEBUG_VALUE: ranges <- $rcx
	#DEBUG_VALUE: n <- $edx
	#DEBUG_VALUE: Range_excl:ranges <- $rcx
	#DEBUG_VALUE: Range_excl:n <- $edx
	#DEBUG_VALUE: Range_excl: <- $rsi
	.loc	14 115 1 prologue_end   # /usr/lib/x86_64-linux-gnu/openmpi/include/openmpi/ompi/mpi/cxx/group_inln.h:115:1
	movq	8(%rsi), %rdi
.Ltmp500:
	#DEBUG_VALUE: newgroup <- [DW_OP_constu 16, DW_OP_minus, DW_OP_deref] $rbp
	.loc	14 0 1 is_stmt 0        # /usr/lib/x86_64-linux-gnu/openmpi/include/openmpi/ompi/mpi/cxx/group_inln.h:0:1
	leaq	-16(%rbp), %rax
	.loc	14 115 1                # /usr/lib/x86_64-linux-gnu/openmpi/include/openmpi/ompi/mpi/cxx/group_inln.h:115:1
	movl	%edx, %esi
.Ltmp501:
	#DEBUG_VALUE: Range_excl:n <- $esi
	movq	%rcx, %rdx
.Ltmp502:
	#DEBUG_VALUE: Range_excl:ranges <- $rdx
	movq	%rax, %rcx
.Ltmp503:
	callq	MPI_Group_range_excl
.Ltmp504:
	.loc	14 122 1 is_stmt 1      # /usr/lib/x86_64-linux-gnu/openmpi/include/openmpi/ompi/mpi/cxx/group_inln.h:122:1
	movq	-16(%rbp), %rax
.Ltmp505:
	#DEBUG_VALUE: newgroup <- undef
	movq	$_ZTVN3MPI5GroupE+16, (%rbx)
	.loc	14 62 1                 # /usr/lib/x86_64-linux-gnu/openmpi/include/openmpi/ompi/mpi/cxx/group_inln.h:62:1
	movq	%rax, 8(%rbx)
	.loc	14 123 1                # /usr/lib/x86_64-linux-gnu/openmpi/include/openmpi/ompi/mpi/cxx/group_inln.h:123:1
	movq	%rbx, %rax
	addq	$8, %rsp
	popq	%rbx
	popq	%rbp
	.cfi_def_cfa %rsp, 8
	retq
.Ltmp506:
.Lfunc_end73:
	.size	_ZNK3MPI5Group10Range_exclEiPA3_Ki, .Lfunc_end73-_ZNK3MPI5Group10Range_exclEiPA3_Ki
	.cfi_endproc
                                        # -- End function
	.weak	_ZN3MPI5Group4FreeEv    # -- Begin function _ZN3MPI5Group4FreeEv
	.p2align	4, 0x90
	.type	_ZN3MPI5Group4FreeEv,@function
_ZN3MPI5Group4FreeEv:                   # @_ZN3MPI5Group4FreeEv
.Lfunc_begin74:
	.loc	14 127 0                # /usr/lib/x86_64-linux-gnu/openmpi/include/openmpi/ompi/mpi/cxx/group_inln.h:127:0
	.cfi_startproc
# %bb.0:                                # %L.entry
	#DEBUG_VALUE: Free: <- $rdi
	#DEBUG_VALUE: Free: <- $rdi
	pushq	%rbp
	.cfi_def_cfa_offset 16
	.cfi_offset %rbp, -16
	movq	%rsp, %rbp
	.cfi_def_cfa_register %rbp
.Ltmp507:
	#DEBUG_VALUE:  <- $rdi
	#DEBUG_VALUE:  <- $rdi
	.loc	14 128 1 prologue_end   # /usr/lib/x86_64-linux-gnu/openmpi/include/openmpi/ompi/mpi/cxx/group_inln.h:128:1
	addq	$8, %rdi
.Ltmp508:
	popq	%rbp
	.cfi_def_cfa %rsp, 8
	jmp	MPI_Group_free          # TAILCALL
.Ltmp509:
.Lfunc_end74:
	.size	_ZN3MPI5Group4FreeEv, .Lfunc_end74-_ZN3MPI5Group4FreeEv
	.cfi_endproc
                                        # -- End function
	.weak	_ZN3MPI9Comm_NullD1Ev   # -- Begin function _ZN3MPI9Comm_NullD1Ev
	.p2align	4, 0x90
	.type	_ZN3MPI9Comm_NullD1Ev,@function
_ZN3MPI9Comm_NullD1Ev:                  # @_ZN3MPI9Comm_NullD1Ev
.Lfunc_begin75:
	.file	15 "/usr/lib/x86_64-linux-gnu/openmpi/include/openmpi/ompi/mpi/cxx/comm.h"
	.loc	15 69 0                 # /usr/lib/x86_64-linux-gnu/openmpi/include/openmpi/ompi/mpi/cxx/comm.h:69:0
	.cfi_startproc
# %bb.0:                                # %L.entry
	#DEBUG_VALUE: ~Comm_Null: <- $rdi
	#DEBUG_VALUE: ~Comm_Null: <- $rdi
	pushq	%rbp
	.cfi_def_cfa_offset 16
	.cfi_offset %rbp, -16
	movq	%rsp, %rbp
	.cfi_def_cfa_register %rbp
.Ltmp510:
	#DEBUG_VALUE:  <- $rdi
	#DEBUG_VALUE:  <- $rdi
	.loc	15 69 1 prologue_end    # /usr/lib/x86_64-linux-gnu/openmpi/include/openmpi/ompi/mpi/cxx/comm.h:69:1
	movq	$_ZTVN3MPI9Comm_NullE+16, (%rdi)
	popq	%rbp
	.cfi_def_cfa %rsp, 8
	retq
.Ltmp511:
.Lfunc_end75:
	.size	_ZN3MPI9Comm_NullD1Ev, .Lfunc_end75-_ZN3MPI9Comm_NullD1Ev
	.cfi_endproc
                                        # -- End function
	.weak	_ZN3MPI9Comm_NullD0Ev   # -- Begin function _ZN3MPI9Comm_NullD0Ev
	.p2align	4, 0x90
	.type	_ZN3MPI9Comm_NullD0Ev,@function
_ZN3MPI9Comm_NullD0Ev:                  # @_ZN3MPI9Comm_NullD0Ev
.Lfunc_begin76:
	.loc	1 0 0                   # vlasovsolver/cpu_acc_load_blocks.cpp:0:0
	.cfi_startproc
# %bb.0:                                # %L.entry
	pushq	%rbp
	.cfi_def_cfa_offset 16
	.cfi_offset %rbp, -16
	movq	%rsp, %rbp
	.cfi_def_cfa_register %rbp
.Ltmp512:
	.loc	1 69 1 prologue_end     # vlasovsolver/cpu_acc_load_blocks.cpp:69:1
	movl	$16, %esi
	popq	%rbp
	.cfi_def_cfa %rsp, 8
	jmp	_ZdlPvm                 # TAILCALL
.Ltmp513:
.Lfunc_end76:
	.size	_ZN3MPI9Comm_NullD0Ev, .Lfunc_end76-_ZN3MPI9Comm_NullD0Ev
	.cfi_endproc
                                        # -- End function
	.weak	_ZNK3MPI4Comm4SendEPKviRKNS_8DatatypeEii # -- Begin function _ZNK3MPI4Comm4SendEPKviRKNS_8DatatypeEii
	.p2align	4, 0x90
	.type	_ZNK3MPI4Comm4SendEPKviRKNS_8DatatypeEii,@function
_ZNK3MPI4Comm4SendEPKviRKNS_8DatatypeEii: # @_ZNK3MPI4Comm4SendEPKviRKNS_8DatatypeEii
.Lfunc_begin77:
	.file	16 "/usr/lib/x86_64-linux-gnu/openmpi/include/openmpi/ompi/mpi/cxx/comm_inln.h"
	.loc	16 29 0                 # /usr/lib/x86_64-linux-gnu/openmpi/include/openmpi/ompi/mpi/cxx/comm_inln.h:29:0
	.cfi_startproc
# %bb.0:                                # %L.entry
	#DEBUG_VALUE: Send: <- $rdi
	#DEBUG_VALUE: Send:buf <- $rsi
	#DEBUG_VALUE: Send:count <- $edx
	#DEBUG_VALUE: Send:datatype <- $rcx
	#DEBUG_VALUE: Send:dest <- $r8d
	#DEBUG_VALUE: Send:tag <- $r9d
	pushq	%rbp
	.cfi_def_cfa_offset 16
	.cfi_offset %rbp, -16
	movq	%rsp, %rbp
	.cfi_def_cfa_register %rbp
.Ltmp514:
	#DEBUG_VALUE:  <- $rdi
	#DEBUG_VALUE: buf <- $rsi
	#DEBUG_VALUE: count <- $edx
	#DEBUG_VALUE: datatype <- $rcx
	#DEBUG_VALUE: dest <- $r8d
	#DEBUG_VALUE: tag <- $r9d
	movl	%r9d, %r10d
.Ltmp515:
	#DEBUG_VALUE: tag <- $r10d
	#DEBUG_VALUE: Send:tag <- $r10d
	#DEBUG_VALUE: dest <- $r8d
	#DEBUG_VALUE: Send:dest <- $r8d
	#DEBUG_VALUE: datatype <- $rcx
	#DEBUG_VALUE: Send:datatype <- $rcx
	#DEBUG_VALUE: count <- $edx
	#DEBUG_VALUE: Send:count <- $edx
	#DEBUG_VALUE: buf <- $rsi
	#DEBUG_VALUE: Send:buf <- $rsi
	#DEBUG_VALUE:  <- $rdi
	#DEBUG_VALUE: Send: <- $rdi
	.loc	16 90 1 prologue_end    # /usr/lib/x86_64-linux-gnu/openmpi/include/openmpi/ompi/mpi/cxx/comm_inln.h:90:1
	movq	8(%rcx), %rax
	movq	8(%rdi), %r9
	movq	%rsi, %rdi
.Ltmp516:
	#DEBUG_VALUE: buf <- $rdi
	#DEBUG_VALUE: Send:buf <- $rdi
	movl	%edx, %esi
.Ltmp517:
	#DEBUG_VALUE: count <- $esi
	#DEBUG_VALUE: Send:count <- $esi
	movq	%rax, %rdx
	movl	%r8d, %ecx
.Ltmp518:
	#DEBUG_VALUE: dest <- $ecx
	#DEBUG_VALUE: Send:dest <- $ecx
	movl	%r10d, %r8d
.Ltmp519:
	#DEBUG_VALUE: tag <- $r8d
	#DEBUG_VALUE: Send:tag <- $r8d
	popq	%rbp
	.cfi_def_cfa %rsp, 8
	jmp	MPI_Send                # TAILCALL
.Ltmp520:
.Lfunc_end77:
	.size	_ZNK3MPI4Comm4SendEPKviRKNS_8DatatypeEii, .Lfunc_end77-_ZNK3MPI4Comm4SendEPKviRKNS_8DatatypeEii
	.cfi_endproc
                                        # -- End function
	.weak	_ZNK3MPI4Comm4RecvEPviRKNS_8DatatypeEiiRNS_6StatusE # -- Begin function _ZNK3MPI4Comm4RecvEPviRKNS_8DatatypeEiiRNS_6StatusE
	.p2align	4, 0x90
	.type	_ZNK3MPI4Comm4RecvEPviRKNS_8DatatypeEiiRNS_6StatusE,@function
_ZNK3MPI4Comm4RecvEPviRKNS_8DatatypeEiiRNS_6StatusE: # @_ZNK3MPI4Comm4RecvEPviRKNS_8DatatypeEiiRNS_6StatusE
.Lfunc_begin78:
	.loc	16 36 0                 # /usr/lib/x86_64-linux-gnu/openmpi/include/openmpi/ompi/mpi/cxx/comm_inln.h:36:0
	.cfi_startproc
# %bb.0:                                # %L.entry
	#DEBUG_VALUE: Recv: <- $rdi
	#DEBUG_VALUE: Recv:buf <- $rsi
	#DEBUG_VALUE: Recv:count <- $edx
	#DEBUG_VALUE: Recv:datatype <- $rcx
	#DEBUG_VALUE: Recv:source <- $r8d
	#DEBUG_VALUE: Recv:tag <- $r9d
	pushq	%rbp
	.cfi_def_cfa_offset 16
	.cfi_offset %rbp, -16
	movq	%rsp, %rbp
	.cfi_def_cfa_register %rbp
	subq	$16, %rsp
.Ltmp521:
	#DEBUG_VALUE:  <- $rdi
	#DEBUG_VALUE: buf <- $rsi
	#DEBUG_VALUE: count <- $edx
	#DEBUG_VALUE: datatype <- $rcx
	#DEBUG_VALUE: source <- $r8d
	#DEBUG_VALUE: tag <- $r9d
	movl	%r9d, %r10d
	movq	%rsi, %r11
	movq	16(%rbp), %rsi
.Ltmp522:
	#DEBUG_VALUE: status <- [DW_OP_plus_uconst 16] [$rbp+0]
	#DEBUG_VALUE: Recv:status <- [DW_OP_plus_uconst 16] [$rbp+0]
	#DEBUG_VALUE: tag <- $r10d
	#DEBUG_VALUE: Recv:tag <- $r10d
	#DEBUG_VALUE: source <- $r8d
	#DEBUG_VALUE: Recv:source <- $r8d
	#DEBUG_VALUE: datatype <- $rcx
	#DEBUG_VALUE: Recv:datatype <- $rcx
	#DEBUG_VALUE: count <- $edx
	#DEBUG_VALUE: Recv:count <- $edx
	#DEBUG_VALUE: buf <- $r11
	#DEBUG_VALUE: Recv:buf <- $r11
	#DEBUG_VALUE:  <- $rdi
	#DEBUG_VALUE: Recv: <- $rdi
	.loc	16 90 1 prologue_end    # /usr/lib/x86_64-linux-gnu/openmpi/include/openmpi/ompi/mpi/cxx/comm_inln.h:90:1
	movq	8(%rcx), %rax
	movq	8(%rdi), %r9
	addq	$8, %rsi
	movq	%rsi, (%rsp)
	movq	%r11, %rdi
.Ltmp523:
	#DEBUG_VALUE: buf <- $rdi
	#DEBUG_VALUE: Recv:buf <- $rdi
	movl	%edx, %esi
.Ltmp524:
	#DEBUG_VALUE: count <- $esi
	#DEBUG_VALUE: Recv:count <- $esi
	movq	%rax, %rdx
	movl	%r8d, %ecx
.Ltmp525:
	#DEBUG_VALUE: source <- $ecx
	#DEBUG_VALUE: Recv:source <- $ecx
	movl	%r10d, %r8d
.Ltmp526:
	#DEBUG_VALUE: tag <- $r8d
	#DEBUG_VALUE: Recv:tag <- $r8d
	callq	MPI_Recv
.Ltmp527:
	.loc	16 38 1                 # /usr/lib/x86_64-linux-gnu/openmpi/include/openmpi/ompi/mpi/cxx/comm_inln.h:38:1
	addq	$16, %rsp
	popq	%rbp
	.cfi_def_cfa %rsp, 8
	retq
.Ltmp528:
.Lfunc_end78:
	.size	_ZNK3MPI4Comm4RecvEPviRKNS_8DatatypeEiiRNS_6StatusE, .Lfunc_end78-_ZNK3MPI4Comm4RecvEPviRKNS_8DatatypeEiiRNS_6StatusE
	.cfi_endproc
                                        # -- End function
	.weak	_ZNK3MPI4Comm4RecvEPviRKNS_8DatatypeEii # -- Begin function _ZNK3MPI4Comm4RecvEPviRKNS_8DatatypeEii
	.p2align	4, 0x90
	.type	_ZNK3MPI4Comm4RecvEPviRKNS_8DatatypeEii,@function
_ZNK3MPI4Comm4RecvEPviRKNS_8DatatypeEii: # @_ZNK3MPI4Comm4RecvEPviRKNS_8DatatypeEii
.Lfunc_begin79:
	.loc	16 43 0                 # /usr/lib/x86_64-linux-gnu/openmpi/include/openmpi/ompi/mpi/cxx/comm_inln.h:43:0
	.cfi_startproc
# %bb.0:                                # %L.entry
	#DEBUG_VALUE: Recv: <- $rdi
	#DEBUG_VALUE: Recv:buf <- $rsi
	#DEBUG_VALUE: Recv:count <- $edx
	#DEBUG_VALUE: Recv:datatype <- $rcx
	#DEBUG_VALUE: Recv:source <- $r8d
	#DEBUG_VALUE: Recv:tag <- $r9d
	pushq	%rbp
	.cfi_def_cfa_offset 16
	.cfi_offset %rbp, -16
	movq	%rsp, %rbp
	.cfi_def_cfa_register %rbp
	subq	$16, %rsp
.Ltmp529:
	#DEBUG_VALUE:  <- $rdi
	#DEBUG_VALUE: buf <- $rsi
	#DEBUG_VALUE: count <- $edx
	#DEBUG_VALUE: datatype <- $rcx
	#DEBUG_VALUE: source <- $r8d
	#DEBUG_VALUE: tag <- $r9d
	movl	%r9d, %r10d
.Ltmp530:
	#DEBUG_VALUE: tag <- $r10d
	#DEBUG_VALUE: Recv:tag <- $r10d
	#DEBUG_VALUE: source <- $r8d
	#DEBUG_VALUE: Recv:source <- $r8d
	#DEBUG_VALUE: datatype <- $rcx
	#DEBUG_VALUE: Recv:datatype <- $rcx
	#DEBUG_VALUE: count <- $edx
	#DEBUG_VALUE: Recv:count <- $edx
	#DEBUG_VALUE: buf <- $rsi
	#DEBUG_VALUE: Recv:buf <- $rsi
	#DEBUG_VALUE:  <- $rdi
	#DEBUG_VALUE: Recv: <- $rdi
	.loc	16 90 1 prologue_end    # /usr/lib/x86_64-linux-gnu/openmpi/include/openmpi/ompi/mpi/cxx/comm_inln.h:90:1
	movq	8(%rcx), %rax
	movq	8(%rdi), %r9
	movq	$0, (%rsp)
	movq	%rsi, %rdi
.Ltmp531:
	#DEBUG_VALUE: buf <- $rdi
	#DEBUG_VALUE: Recv:buf <- $rdi
	movl	%edx, %esi
.Ltmp532:
	#DEBUG_VALUE: count <- $esi
	#DEBUG_VALUE: Recv:count <- $esi
	movq	%rax, %rdx
	movl	%r8d, %ecx
.Ltmp533:
	#DEBUG_VALUE: source <- $ecx
	#DEBUG_VALUE: Recv:source <- $ecx
	movl	%r10d, %r8d
.Ltmp534:
	#DEBUG_VALUE: tag <- $r8d
	#DEBUG_VALUE: Recv:tag <- $r8d
	callq	MPI_Recv
.Ltmp535:
	.loc	16 46 1                 # /usr/lib/x86_64-linux-gnu/openmpi/include/openmpi/ompi/mpi/cxx/comm_inln.h:46:1
	addq	$16, %rsp
	popq	%rbp
	.cfi_def_cfa %rsp, 8
	retq
.Ltmp536:
.Lfunc_end79:
	.size	_ZNK3MPI4Comm4RecvEPviRKNS_8DatatypeEii, .Lfunc_end79-_ZNK3MPI4Comm4RecvEPviRKNS_8DatatypeEii
	.cfi_endproc
                                        # -- End function
	.weak	_ZNK3MPI4Comm5BsendEPKviRKNS_8DatatypeEii # -- Begin function _ZNK3MPI4Comm5BsendEPKviRKNS_8DatatypeEii
	.p2align	4, 0x90
	.type	_ZNK3MPI4Comm5BsendEPKviRKNS_8DatatypeEii,@function
_ZNK3MPI4Comm5BsendEPKviRKNS_8DatatypeEii: # @_ZNK3MPI4Comm5BsendEPKviRKNS_8DatatypeEii
.Lfunc_begin80:
	.loc	16 51 0                 # /usr/lib/x86_64-linux-gnu/openmpi/include/openmpi/ompi/mpi/cxx/comm_inln.h:51:0
	.cfi_startproc
# %bb.0:                                # %L.entry
	#DEBUG_VALUE: Bsend: <- $rdi
	#DEBUG_VALUE: Bsend:buf <- $rsi
	#DEBUG_VALUE: Bsend:count <- $edx
	#DEBUG_VALUE: Bsend:datatype <- $rcx
	#DEBUG_VALUE: Bsend:dest <- $r8d
	#DEBUG_VALUE: Bsend:tag <- $r9d
	pushq	%rbp
	.cfi_def_cfa_offset 16
	.cfi_offset %rbp, -16
	movq	%rsp, %rbp
	.cfi_def_cfa_register %rbp
.Ltmp537:
	#DEBUG_VALUE:  <- $rdi
	#DEBUG_VALUE: buf <- $rsi
	#DEBUG_VALUE: count <- $edx
	#DEBUG_VALUE: datatype <- $rcx
	#DEBUG_VALUE: dest <- $r8d
	#DEBUG_VALUE: tag <- $r9d
	movl	%r9d, %r10d
.Ltmp538:
	#DEBUG_VALUE: tag <- $r10d
	#DEBUG_VALUE: Bsend:tag <- $r10d
	#DEBUG_VALUE: dest <- $r8d
	#DEBUG_VALUE: Bsend:dest <- $r8d
	#DEBUG_VALUE: datatype <- $rcx
	#DEBUG_VALUE: Bsend:datatype <- $rcx
	#DEBUG_VALUE: count <- $edx
	#DEBUG_VALUE: Bsend:count <- $edx
	#DEBUG_VALUE: buf <- $rsi
	#DEBUG_VALUE: Bsend:buf <- $rsi
	#DEBUG_VALUE:  <- $rdi
	#DEBUG_VALUE: Bsend: <- $rdi
	.loc	16 90 1 prologue_end    # /usr/lib/x86_64-linux-gnu/openmpi/include/openmpi/ompi/mpi/cxx/comm_inln.h:90:1
	movq	8(%rcx), %rax
	movq	8(%rdi), %r9
	movq	%rsi, %rdi
.Ltmp539:
	#DEBUG_VALUE: buf <- $rdi
	#DEBUG_VALUE: Bsend:buf <- $rdi
	movl	%edx, %esi
.Ltmp540:
	#DEBUG_VALUE: count <- $esi
	#DEBUG_VALUE: Bsend:count <- $esi
	movq	%rax, %rdx
	movl	%r8d, %ecx
.Ltmp541:
	#DEBUG_VALUE: dest <- $ecx
	#DEBUG_VALUE: Bsend:dest <- $ecx
	movl	%r10d, %r8d
.Ltmp542:
	#DEBUG_VALUE: tag <- $r8d
	#DEBUG_VALUE: Bsend:tag <- $r8d
	popq	%rbp
	.cfi_def_cfa %rsp, 8
	jmp	MPI_Bsend               # TAILCALL
.Ltmp543:
.Lfunc_end80:
	.size	_ZNK3MPI4Comm5BsendEPKviRKNS_8DatatypeEii, .Lfunc_end80-_ZNK3MPI4Comm5BsendEPKviRKNS_8DatatypeEii
	.cfi_endproc
                                        # -- End function
	.weak	_ZNK3MPI4Comm5SsendEPKviRKNS_8DatatypeEii # -- Begin function _ZNK3MPI4Comm5SsendEPKviRKNS_8DatatypeEii
	.p2align	4, 0x90
	.type	_ZNK3MPI4Comm5SsendEPKviRKNS_8DatatypeEii,@function
_ZNK3MPI4Comm5SsendEPKviRKNS_8DatatypeEii: # @_ZNK3MPI4Comm5SsendEPKviRKNS_8DatatypeEii
.Lfunc_begin81:
	.loc	16 59 0                 # /usr/lib/x86_64-linux-gnu/openmpi/include/openmpi/ompi/mpi/cxx/comm_inln.h:59:0
	.cfi_startproc
# %bb.0:                                # %L.entry
	#DEBUG_VALUE: Ssend: <- $rdi
	#DEBUG_VALUE: Ssend:buf <- $rsi
	#DEBUG_VALUE: Ssend:count <- $edx
	#DEBUG_VALUE: Ssend:datatype <- $rcx
	#DEBUG_VALUE: Ssend:dest <- $r8d
	#DEBUG_VALUE: Ssend:tag <- $r9d
	pushq	%rbp
	.cfi_def_cfa_offset 16
	.cfi_offset %rbp, -16
	movq	%rsp, %rbp
	.cfi_def_cfa_register %rbp
.Ltmp544:
	#DEBUG_VALUE:  <- $rdi
	#DEBUG_VALUE: buf <- $rsi
	#DEBUG_VALUE: count <- $edx
	#DEBUG_VALUE: datatype <- $rcx
	#DEBUG_VALUE: dest <- $r8d
	#DEBUG_VALUE: tag <- $r9d
	movl	%r9d, %r10d
.Ltmp545:
	#DEBUG_VALUE: tag <- $r10d
	#DEBUG_VALUE: Ssend:tag <- $r10d
	#DEBUG_VALUE: dest <- $r8d
	#DEBUG_VALUE: Ssend:dest <- $r8d
	#DEBUG_VALUE: datatype <- $rcx
	#DEBUG_VALUE: Ssend:datatype <- $rcx
	#DEBUG_VALUE: count <- $edx
	#DEBUG_VALUE: Ssend:count <- $edx
	#DEBUG_VALUE: buf <- $rsi
	#DEBUG_VALUE: Ssend:buf <- $rsi
	#DEBUG_VALUE:  <- $rdi
	#DEBUG_VALUE: Ssend: <- $rdi
	.loc	16 90 1 prologue_end    # /usr/lib/x86_64-linux-gnu/openmpi/include/openmpi/ompi/mpi/cxx/comm_inln.h:90:1
	movq	8(%rcx), %rax
	movq	8(%rdi), %r9
	movq	%rsi, %rdi
.Ltmp546:
	#DEBUG_VALUE: buf <- $rdi
	#DEBUG_VALUE: Ssend:buf <- $rdi
	movl	%edx, %esi
.Ltmp547:
	#DEBUG_VALUE: count <- $esi
	#DEBUG_VALUE: Ssend:count <- $esi
	movq	%rax, %rdx
	movl	%r8d, %ecx
.Ltmp548:
	#DEBUG_VALUE: dest <- $ecx
	#DEBUG_VALUE: Ssend:dest <- $ecx
	movl	%r10d, %r8d
.Ltmp549:
	#DEBUG_VALUE: tag <- $r8d
	#DEBUG_VALUE: Ssend:tag <- $r8d
	popq	%rbp
	.cfi_def_cfa %rsp, 8
	jmp	MPI_Ssend               # TAILCALL
.Ltmp550:
.Lfunc_end81:
	.size	_ZNK3MPI4Comm5SsendEPKviRKNS_8DatatypeEii, .Lfunc_end81-_ZNK3MPI4Comm5SsendEPKviRKNS_8DatatypeEii
	.cfi_endproc
                                        # -- End function
	.weak	_ZNK3MPI4Comm5RsendEPKviRKNS_8DatatypeEii # -- Begin function _ZNK3MPI4Comm5RsendEPKviRKNS_8DatatypeEii
	.p2align	4, 0x90
	.type	_ZNK3MPI4Comm5RsendEPKviRKNS_8DatatypeEii,@function
_ZNK3MPI4Comm5RsendEPKviRKNS_8DatatypeEii: # @_ZNK3MPI4Comm5RsendEPKviRKNS_8DatatypeEii
.Lfunc_begin82:
	.loc	16 67 0                 # /usr/lib/x86_64-linux-gnu/openmpi/include/openmpi/ompi/mpi/cxx/comm_inln.h:67:0
	.cfi_startproc
# %bb.0:                                # %L.entry
	#DEBUG_VALUE: Rsend: <- $rdi
	#DEBUG_VALUE: Rsend:buf <- $rsi
	#DEBUG_VALUE: Rsend:count <- $edx
	#DEBUG_VALUE: Rsend:datatype <- $rcx
	#DEBUG_VALUE: Rsend:dest <- $r8d
	#DEBUG_VALUE: Rsend:tag <- $r9d
	pushq	%rbp
	.cfi_def_cfa_offset 16
	.cfi_offset %rbp, -16
	movq	%rsp, %rbp
	.cfi_def_cfa_register %rbp
.Ltmp551:
	#DEBUG_VALUE:  <- $rdi
	#DEBUG_VALUE: buf <- $rsi
	#DEBUG_VALUE: count <- $edx
	#DEBUG_VALUE: datatype <- $rcx
	#DEBUG_VALUE: dest <- $r8d
	#DEBUG_VALUE: tag <- $r9d
	movl	%r9d, %r10d
.Ltmp552:
	#DEBUG_VALUE: tag <- $r10d
