	.text
	.file	"derivatives.ll"
	.file	1 "/home/talgat/vlasiator/fieldsolver/derivatives.cpp"
	.section	.rodata.cst16,"aM",@progbits,16
	.p2align	4               # -- Begin function _Z20calculateDerivativesiiiR6FsGridISt5arrayIdLm3EELi2EERS_IS0_IdLm8EELi2EERS_IS0_IdLm15EELi2EERS_IS0_IdLm24EELi2EERS_IN7fsgrids9technicalELi2EER11SysBoundaryRKi
.LCPI0_0:
	.quad	9223372036854775807     # double NaN
	.quad	9223372036854775807     # double NaN
	.section	.rodata.cst8,"aM",@progbits,8
	.p2align	3
.LCPI0_1:
	.quad	4503599627370496        # double 2.2250738585072014E-308
.LCPI0_2:
	.quad	4598175219545276416     # double 0.25
	.text
	.globl	_Z20calculateDerivativesiiiR6FsGridISt5arrayIdLm3EELi2EERS_IS0_IdLm8EELi2EERS_IS0_IdLm15EELi2EERS_IS0_IdLm24EELi2EERS_IN7fsgrids9technicalELi2EER11SysBoundaryRKi
	.p2align	4, 0x90
	.type	_Z20calculateDerivativesiiiR6FsGridISt5arrayIdLm3EELi2EERS_IS0_IdLm8EELi2EERS_IS0_IdLm15EELi2EERS_IS0_IdLm24EELi2EERS_IN7fsgrids9technicalELi2EER11SysBoundaryRKi,@function
_Z20calculateDerivativesiiiR6FsGridISt5arrayIdLm3EELi2EERS_IS0_IdLm8EELi2EERS_IS0_IdLm15EELi2EERS_IS0_IdLm24EELi2EERS_IN7fsgrids9technicalELi2EER11SysBoundaryRKi: # @_Z20calculateDerivativesiiiR6FsGridISt5arrayIdLm3EELi2EERS_IS0_IdLm8EELi2EERS_IS0_IdLm15EELi2EERS_IS0_IdLm24EELi2EERS_IN7fsgrids9technicalELi2EER11SysBoundaryRKi
.Lfunc_begin0:
	.loc	1 54 0                  # fieldsolver/derivatives.cpp:54:0
	.cfi_startproc
# %bb.0:                                # %L.entry
	#DEBUG_VALUE: calculateDerivatives:i <- $edi
	#DEBUG_VALUE: calculateDerivatives:j <- $esi
	#DEBUG_VALUE: calculateDerivatives:k <- $edx
	#DEBUG_VALUE: calculateDerivatives:perBGrid <- $rcx
	#DEBUG_VALUE: calculateDerivatives:momentsGrid <- $r8
	#DEBUG_VALUE: calculateDerivatives:dPerBGrid <- $r9
	pushq	%rbp
	.cfi_def_cfa_offset 16
	.cfi_offset %rbp, -16
	movq	%rsp, %rbp
	.cfi_def_cfa_register %rbp
	pushq	%r15
	pushq	%r14
	pushq	%r13
	pushq	%r12
	pushq	%rbx
	subq	$264, %rsp              # imm = 0x108
	.cfi_offset %rbx, -56
	.cfi_offset %r12, -48
	.cfi_offset %r13, -40
	.cfi_offset %r14, -32
	.cfi_offset %r15, -24
	movq	%r8, -120(%rbp)         # 8-byte Spill
	movq	%rcx, -104(%rbp)        # 8-byte Spill
                                        # kill: def $edx killed $edx def $rdx
                                        # kill: def $esi killed $esi def $rsi
                                        # kill: def $edi killed $edi def $rdi
.Ltmp0:
	#DEBUG_VALUE: technicalGrid <- undef
	#DEBUG_VALUE: sysBoundaries <- undef
	#DEBUG_VALUE: calculateDerivatives:RKCase <- [DW_OP_plus_uconst 40] [$rbp+0]
	#DEBUG_VALUE: calculateDerivatives:sysBoundaries <- [DW_OP_plus_uconst 32] [$rbp+0]
	#DEBUG_VALUE: calculateDerivatives:technicalGrid <- [DW_OP_plus_uconst 24] [$rbp+0]
	#DEBUG_VALUE: calculateDerivatives:dMomentsGrid <- [DW_OP_plus_uconst 16] [$rbp+0]
	#DEBUG_VALUE: calculateDerivatives:dPerBGrid <- $r9
	#DEBUG_VALUE: calculateDerivatives:momentsGrid <- [DW_OP_constu 120, DW_OP_minus] [$rbp+0]
	#DEBUG_VALUE: calculateDerivatives:perBGrid <- [DW_OP_constu 104, DW_OP_minus] [$rbp+0]
	#DEBUG_VALUE: calculateDerivatives:k <- $edx
	#DEBUG_VALUE: calculateDerivatives:j <- $esi
	#DEBUG_VALUE: calculateDerivatives:i <- $edi
	.loc	1 702 1 prologue_end    # fieldsolver/derivatives.cpp:702:1
	xorl	%eax, %eax
	testl	%edi, %edi
	setns	%al
	movl	%edi, %ecx
	shrl	$31, %ecx
	leal	(%rax,%rax,8), %r8d
	addl	$4, %r8d
	.loc	1 707 1                 # fieldsolver/derivatives.cpp:707:1
	movl	264(%r9), %ebx
	movl	%ebx, -48(%rbp)         # 4-byte Spill
	cmpl	%edi, %ebx
	leal	13(%rax,%rax,8), %eax
	movl	$-1, %r14d
	movl	%ecx, -108(%rbp)        # 4-byte Spill
	cmovgl	%ecx, %r14d
	movq	%rax, -184(%rbp)        # 8-byte Spill
	movl	%eax, %ecx
	movl	%r8d, -132(%rbp)        # 4-byte Spill
	cmovgl	%r8d, %ecx
	.loc	1 711 1                 # fieldsolver/derivatives.cpp:711:1
	movl	%esi, %ebx
	shrl	$31, %ebx
	testl	%esi, %esi
	leal	-3(%rcx), %eax
	cmovnsl	%ecx, %eax
	.loc	1 715 1                 # fieldsolver/derivatives.cpp:715:1
	movl	268(%r9), %r8d
	cmpl	%esi, %r8d
	leal	3(%rax), %r10d
	cmovgl	%eax, %r10d
	movl	$-1, %r15d
	movl	%ebx, -76(%rbp)         # 4-byte Spill
	cmovgl	%ebx, %r15d
	.loc	1 719 1                 # fieldsolver/derivatives.cpp:719:1
	movl	%edx, %eax
	shrl	$31, %eax
	movl	%edx, %ecx
	sarl	$31, %ecx
	.loc	1 723 1                 # fieldsolver/derivatives.cpp:723:1
	movl	272(%r9), %r11d
	xorl	%ebx, %ebx
	cmpl	%edx, %r11d
	setle	%bl
	movl	$-1, %r13d
	movl	%eax, -72(%rbp)         # 4-byte Spill
	cmovgl	%eax, %r13d
	movl	%ecx, -96(%rbp)         # 4-byte Spill
	.loc	1 719 1                 # fieldsolver/derivatives.cpp:719:1
	addl	%ecx, %ebx
	.loc	1 723 1                 # fieldsolver/derivatives.cpp:723:1
	addl	%r10d, %ebx
.Ltmp1:
	#DEBUG_VALUE: RKCase <- undef
	#DEBUG_VALUE: momentsGrid <- undef
	#DEBUG_VALUE: perBGrid <- undef
	#DEBUG_VALUE: i <- $edi
	#DEBUG_VALUE: dPerBGrid <- $r9
	#DEBUG_VALUE: j <- $esi
	#DEBUG_VALUE: k <- $edx
	#DEBUG_VALUE: dMomentsGrid <- undef
	.loc	1 0 0 is_stmt 0         # fieldsolver/derivatives.cpp:0:0
	movl	%edx, %ecx
	movl	%esi, %r12d
	movl	%edi, %r10d
	.loc	1 776 1 is_stmt 1       # fieldsolver/derivatives.cpp:776:1
	cmpl	$13, %ebx
	movq	%r9, -232(%rbp)         # 8-byte Spill
	je	.LBB0_5
.Ltmp2:
# %bb.1:                                # %L.B1880
	#DEBUG_VALUE: k <- $edx
	#DEBUG_VALUE: j <- $esi
	#DEBUG_VALUE: dPerBGrid <- $r9
	#DEBUG_VALUE: i <- $edi
	#DEBUG_VALUE: calculateDerivatives:perBGrid <- [DW_OP_constu 104, DW_OP_minus] [$rbp+0]
	#DEBUG_VALUE: calculateDerivatives:momentsGrid <- [DW_OP_constu 120, DW_OP_minus] [$rbp+0]
	#DEBUG_VALUE: calculateDerivatives:dMomentsGrid <- [DW_OP_plus_uconst 16] [$rbp+0]
	#DEBUG_VALUE: calculateDerivatives:technicalGrid <- [DW_OP_plus_uconst 24] [$rbp+0]
	#DEBUG_VALUE: calculateDerivatives:sysBoundaries <- [DW_OP_plus_uconst 32] [$rbp+0]
	#DEBUG_VALUE: calculateDerivatives:RKCase <- [DW_OP_plus_uconst 40] [$rbp+0]
	#DEBUG_VALUE: calculateDerivatives:dPerBGrid <- $r9
	#DEBUG_VALUE: calculateDerivatives:k <- $edx
	#DEBUG_VALUE: calculateDerivatives:j <- $esi
	#DEBUG_VALUE: calculateDerivatives:i <- $edi
	.loc	1 779 1                 # fieldsolver/derivatives.cpp:779:1
	movslq	%ebx, %rcx
	movl	92(%r9,%rcx,4), %ebx
	cmpl	$-2, %ebx
	jne	.LBB0_3
.Ltmp3:
# %bb.2:
	#DEBUG_VALUE: k <- $edx
	#DEBUG_VALUE: j <- $esi
	#DEBUG_VALUE: dPerBGrid <- $r9
	#DEBUG_VALUE: i <- $edi
	#DEBUG_VALUE: calculateDerivatives:perBGrid <- [DW_OP_constu 104, DW_OP_minus] [$rbp+0]
	#DEBUG_VALUE: calculateDerivatives:momentsGrid <- [DW_OP_constu 120, DW_OP_minus] [$rbp+0]
	#DEBUG_VALUE: calculateDerivatives:dMomentsGrid <- [DW_OP_plus_uconst 16] [$rbp+0]
	#DEBUG_VALUE: calculateDerivatives:technicalGrid <- [DW_OP_plus_uconst 24] [$rbp+0]
	#DEBUG_VALUE: calculateDerivatives:sysBoundaries <- [DW_OP_plus_uconst 32] [$rbp+0]
	#DEBUG_VALUE: calculateDerivatives:RKCase <- [DW_OP_plus_uconst 40] [$rbp+0]
	#DEBUG_VALUE: calculateDerivatives:dPerBGrid <- $r9
	#DEBUG_VALUE: calculateDerivatives:k <- $edx
	#DEBUG_VALUE: calculateDerivatives:j <- $esi
	#DEBUG_VALUE: calculateDerivatives:i <- $edi
	.loc	1 0 1 is_stmt 0         # fieldsolver/derivatives.cpp:0:1
	xorl	%eax, %eax
	movq	%rax, -168(%rbp)        # 8-byte Spill
	movq	16(%rbp), %r13
	jmp	.LBB0_11
.Ltmp4:
.LBB0_3:                                # %L..inline.76958
	#DEBUG_VALUE: k <- $edx
	#DEBUG_VALUE: j <- $esi
	#DEBUG_VALUE: dPerBGrid <- $r9
	#DEBUG_VALUE: i <- $edi
	#DEBUG_VALUE: calculateDerivatives:perBGrid <- [DW_OP_constu 104, DW_OP_minus] [$rbp+0]
	#DEBUG_VALUE: calculateDerivatives:momentsGrid <- [DW_OP_constu 120, DW_OP_minus] [$rbp+0]
	#DEBUG_VALUE: calculateDerivatives:dMomentsGrid <- [DW_OP_plus_uconst 16] [$rbp+0]
	#DEBUG_VALUE: calculateDerivatives:technicalGrid <- [DW_OP_plus_uconst 24] [$rbp+0]
	#DEBUG_VALUE: calculateDerivatives:sysBoundaries <- [DW_OP_plus_uconst 32] [$rbp+0]
	#DEBUG_VALUE: calculateDerivatives:RKCase <- [DW_OP_plus_uconst 40] [$rbp+0]
	#DEBUG_VALUE: calculateDerivatives:dPerBGrid <- $r9
	#DEBUG_VALUE: calculateDerivatives:k <- $edx
	#DEBUG_VALUE: calculateDerivatives:j <- $esi
	#DEBUG_VALUE: calculateDerivatives:i <- $edi
	movl	%edx, %ecx
	movl	%esi, %r12d
	movl	%edi, %r10d
	.loc	1 784 1 is_stmt 1       # fieldsolver/derivatives.cpp:784:1
	cmpl	56(%r9), %ebx
	jne	.LBB0_5
.Ltmp5:
# %bb.4:                                # %L.B1882
	#DEBUG_VALUE: k <- $edx
	#DEBUG_VALUE: j <- $esi
	#DEBUG_VALUE: dPerBGrid <- $r9
	#DEBUG_VALUE: i <- $edi
	#DEBUG_VALUE: calculateDerivatives:perBGrid <- [DW_OP_constu 104, DW_OP_minus] [$rbp+0]
	#DEBUG_VALUE: calculateDerivatives:momentsGrid <- [DW_OP_constu 120, DW_OP_minus] [$rbp+0]
	#DEBUG_VALUE: calculateDerivatives:dMomentsGrid <- [DW_OP_plus_uconst 16] [$rbp+0]
	#DEBUG_VALUE: calculateDerivatives:technicalGrid <- [DW_OP_plus_uconst 24] [$rbp+0]
	#DEBUG_VALUE: calculateDerivatives:sysBoundaries <- [DW_OP_plus_uconst 32] [$rbp+0]
	#DEBUG_VALUE: calculateDerivatives:RKCase <- [DW_OP_plus_uconst 40] [$rbp+0]
	#DEBUG_VALUE: calculateDerivatives:dPerBGrid <- $r9
	#DEBUG_VALUE: calculateDerivatives:k <- $edx
	#DEBUG_VALUE: calculateDerivatives:j <- $esi
	#DEBUG_VALUE: calculateDerivatives:i <- $edi
	.loc	1 787 1                 # fieldsolver/derivatives.cpp:787:1
	imull	-48(%rbp), %r14d        # 4-byte Folded Reload
	addl	%edi, %r14d
	.loc	1 788 1                 # fieldsolver/derivatives.cpp:788:1
	imull	%r8d, %r15d
	addl	%esi, %r15d
	.loc	1 789 1                 # fieldsolver/derivatives.cpp:789:1
	imull	%r11d, %r13d
	addl	%edx, %r13d
	.loc	1 0 0 is_stmt 0         # fieldsolver/derivatives.cpp:0:0
	movl	%r13d, %ecx
	movl	%r15d, %r12d
	movl	%r14d, %r10d
.Ltmp6:
.LBB0_5:                                # %L..inline.76941
	#DEBUG_VALUE: k <- $edx
	#DEBUG_VALUE: j <- $esi
	#DEBUG_VALUE: dPerBGrid <- $r9
	#DEBUG_VALUE: i <- $edi
	#DEBUG_VALUE: calculateDerivatives:perBGrid <- [DW_OP_constu 104, DW_OP_minus] [$rbp+0]
	#DEBUG_VALUE: calculateDerivatives:momentsGrid <- [DW_OP_constu 120, DW_OP_minus] [$rbp+0]
	#DEBUG_VALUE: calculateDerivatives:dMomentsGrid <- [DW_OP_plus_uconst 16] [$rbp+0]
	#DEBUG_VALUE: calculateDerivatives:technicalGrid <- [DW_OP_plus_uconst 24] [$rbp+0]
	#DEBUG_VALUE: calculateDerivatives:sysBoundaries <- [DW_OP_plus_uconst 32] [$rbp+0]
	#DEBUG_VALUE: calculateDerivatives:RKCase <- [DW_OP_plus_uconst 40] [$rbp+0]
	#DEBUG_VALUE: calculateDerivatives:dPerBGrid <- $r9
	#DEBUG_VALUE: calculateDerivatives:k <- $edx
	#DEBUG_VALUE: calculateDerivatives:j <- $esi
	#DEBUG_VALUE: calculateDerivatives:i <- $edi
	.loc	1 793 1 is_stmt 1       # fieldsolver/derivatives.cpp:793:1
	cmpl	$2, 260(%r9)
	jge	.LBB0_7
.Ltmp7:
# %bb.6:
	#DEBUG_VALUE: k <- $edx
	#DEBUG_VALUE: j <- $esi
	#DEBUG_VALUE: dPerBGrid <- $r9
	#DEBUG_VALUE: i <- $edi
	#DEBUG_VALUE: calculateDerivatives:perBGrid <- [DW_OP_constu 104, DW_OP_minus] [$rbp+0]
	#DEBUG_VALUE: calculateDerivatives:momentsGrid <- [DW_OP_constu 120, DW_OP_minus] [$rbp+0]
	#DEBUG_VALUE: calculateDerivatives:dMomentsGrid <- [DW_OP_plus_uconst 16] [$rbp+0]
	#DEBUG_VALUE: calculateDerivatives:technicalGrid <- [DW_OP_plus_uconst 24] [$rbp+0]
	#DEBUG_VALUE: calculateDerivatives:sysBoundaries <- [DW_OP_plus_uconst 32] [$rbp+0]
	#DEBUG_VALUE: calculateDerivatives:RKCase <- [DW_OP_plus_uconst 40] [$rbp+0]
	#DEBUG_VALUE: calculateDerivatives:dPerBGrid <- $r9
	#DEBUG_VALUE: calculateDerivatives:k <- $edx
	#DEBUG_VALUE: calculateDerivatives:j <- $esi
	#DEBUG_VALUE: calculateDerivatives:i <- $edi
	.loc	1 0 1 is_stmt 0         # fieldsolver/derivatives.cpp:0:1
	xorl	%eax, %eax
	jmp	.LBB0_8
.Ltmp8:
.LBB0_7:                                # %L.B1883
	#DEBUG_VALUE: k <- $edx
	#DEBUG_VALUE: j <- $esi
	#DEBUG_VALUE: dPerBGrid <- $r9
	#DEBUG_VALUE: i <- $edi
	#DEBUG_VALUE: calculateDerivatives:perBGrid <- [DW_OP_constu 104, DW_OP_minus] [$rbp+0]
	#DEBUG_VALUE: calculateDerivatives:momentsGrid <- [DW_OP_constu 120, DW_OP_minus] [$rbp+0]
	#DEBUG_VALUE: calculateDerivatives:dMomentsGrid <- [DW_OP_plus_uconst 16] [$rbp+0]
	#DEBUG_VALUE: calculateDerivatives:technicalGrid <- [DW_OP_plus_uconst 24] [$rbp+0]
	#DEBUG_VALUE: calculateDerivatives:sysBoundaries <- [DW_OP_plus_uconst 32] [$rbp+0]
	#DEBUG_VALUE: calculateDerivatives:RKCase <- [DW_OP_plus_uconst 40] [$rbp+0]
	#DEBUG_VALUE: calculateDerivatives:dPerBGrid <- $r9
	#DEBUG_VALUE: calculateDerivatives:k <- $edx
	#DEBUG_VALUE: calculateDerivatives:j <- $esi
	#DEBUG_VALUE: calculateDerivatives:i <- $edi
	.loc	1 793 1                 # fieldsolver/derivatives.cpp:793:1
	addl	$2, %ecx
	imull	280(%r9), %ecx
	imull	276(%r9), %ecx
	movslq	%ecx, %rax
.Ltmp9:
.LBB0_8:                                # %L..inline.77050
	#DEBUG_VALUE: k <- $edx
	#DEBUG_VALUE: j <- $esi
	#DEBUG_VALUE: dPerBGrid <- $r9
	#DEBUG_VALUE: i <- $edi
	#DEBUG_VALUE: calculateDerivatives:perBGrid <- [DW_OP_constu 104, DW_OP_minus] [$rbp+0]
	#DEBUG_VALUE: calculateDerivatives:momentsGrid <- [DW_OP_constu 120, DW_OP_minus] [$rbp+0]
	#DEBUG_VALUE: calculateDerivatives:dMomentsGrid <- [DW_OP_plus_uconst 16] [$rbp+0]
	#DEBUG_VALUE: calculateDerivatives:technicalGrid <- [DW_OP_plus_uconst 24] [$rbp+0]
	#DEBUG_VALUE: calculateDerivatives:sysBoundaries <- [DW_OP_plus_uconst 32] [$rbp+0]
	#DEBUG_VALUE: calculateDerivatives:RKCase <- [DW_OP_plus_uconst 40] [$rbp+0]
	#DEBUG_VALUE: calculateDerivatives:dPerBGrid <- $r9
	#DEBUG_VALUE: calculateDerivatives:k <- $edx
	#DEBUG_VALUE: calculateDerivatives:j <- $esi
	#DEBUG_VALUE: calculateDerivatives:i <- $edi
	.loc	1 0 1                   # fieldsolver/derivatives.cpp:0:1
	movq	16(%rbp), %r13
	.loc	1 793 1                 # fieldsolver/derivatives.cpp:793:1
	cmpl	$2, 256(%r9)
	jl	.LBB0_10
.Ltmp10:
# %bb.9:                                # %L.B1884
	#DEBUG_VALUE: k <- $edx
	#DEBUG_VALUE: j <- $esi
	#DEBUG_VALUE: dPerBGrid <- $r9
	#DEBUG_VALUE: i <- $edi
	#DEBUG_VALUE: calculateDerivatives:perBGrid <- [DW_OP_constu 104, DW_OP_minus] [$rbp+0]
	#DEBUG_VALUE: calculateDerivatives:momentsGrid <- [DW_OP_constu 120, DW_OP_minus] [$rbp+0]
	#DEBUG_VALUE: calculateDerivatives:dMomentsGrid <- [DW_OP_plus_uconst 16] [$rbp+0]
	#DEBUG_VALUE: calculateDerivatives:technicalGrid <- [DW_OP_plus_uconst 24] [$rbp+0]
	#DEBUG_VALUE: calculateDerivatives:sysBoundaries <- [DW_OP_plus_uconst 32] [$rbp+0]
	#DEBUG_VALUE: calculateDerivatives:RKCase <- [DW_OP_plus_uconst 40] [$rbp+0]
	#DEBUG_VALUE: calculateDerivatives:dPerBGrid <- $r9
	#DEBUG_VALUE: calculateDerivatives:k <- $edx
	#DEBUG_VALUE: calculateDerivatives:j <- $esi
	#DEBUG_VALUE: calculateDerivatives:i <- $edi
	addl	$2, %r12d
	imull	276(%r9), %r12d
	movslq	%r12d, %rcx
	addq	%rcx, %rax
.Ltmp11:
.LBB0_10:                               # %L..inline.77099
	#DEBUG_VALUE: k <- $edx
	#DEBUG_VALUE: j <- $esi
	#DEBUG_VALUE: dPerBGrid <- $r9
	#DEBUG_VALUE: i <- $edi
	#DEBUG_VALUE: calculateDerivatives:perBGrid <- [DW_OP_constu 104, DW_OP_minus] [$rbp+0]
	#DEBUG_VALUE: calculateDerivatives:momentsGrid <- [DW_OP_constu 120, DW_OP_minus] [$rbp+0]
	#DEBUG_VALUE: calculateDerivatives:dMomentsGrid <- [DW_OP_plus_uconst 16] [$rbp+0]
	#DEBUG_VALUE: calculateDerivatives:technicalGrid <- [DW_OP_plus_uconst 24] [$rbp+0]
	#DEBUG_VALUE: calculateDerivatives:sysBoundaries <- [DW_OP_plus_uconst 32] [$rbp+0]
	#DEBUG_VALUE: calculateDerivatives:RKCase <- [DW_OP_plus_uconst 40] [$rbp+0]
	#DEBUG_VALUE: calculateDerivatives:dPerBGrid <- $r9
	#DEBUG_VALUE: calculateDerivatives:k <- $edx
	#DEBUG_VALUE: calculateDerivatives:j <- $esi
	#DEBUG_VALUE: calculateDerivatives:i <- $edi
	movslq	%r10d, %rcx
	addq	$2, %rcx
	xorl	%ebx, %ebx
	cmpl	$2, 252(%r9)
	cmovgeq	%rcx, %rbx
	addq	%rax, %rbx
	.loc	1 795 1 is_stmt 1       # fieldsolver/derivatives.cpp:795:1
	imulq	$120, %rbx, %rax
	addq	744(%r9), %rax
	movq	%rax, -168(%rbp)        # 8-byte Spill
.Ltmp12:
.LBB0_11:                               # %L..inline.77145
	#DEBUG_VALUE: k <- $edx
	#DEBUG_VALUE: j <- $esi
	#DEBUG_VALUE: dPerBGrid <- $r9
	#DEBUG_VALUE: i <- $edi
	#DEBUG_VALUE: calculateDerivatives:perBGrid <- [DW_OP_constu 104, DW_OP_minus] [$rbp+0]
	#DEBUG_VALUE: calculateDerivatives:momentsGrid <- [DW_OP_constu 120, DW_OP_minus] [$rbp+0]
	#DEBUG_VALUE: calculateDerivatives:dMomentsGrid <- [DW_OP_plus_uconst 16] [$rbp+0]
	#DEBUG_VALUE: calculateDerivatives:technicalGrid <- [DW_OP_plus_uconst 24] [$rbp+0]
	#DEBUG_VALUE: calculateDerivatives:sysBoundaries <- [DW_OP_plus_uconst 32] [$rbp+0]
	#DEBUG_VALUE: calculateDerivatives:RKCase <- [DW_OP_plus_uconst 40] [$rbp+0]
	#DEBUG_VALUE: calculateDerivatives:dPerBGrid <- $r9
	#DEBUG_VALUE: calculateDerivatives:k <- $edx
	#DEBUG_VALUE: calculateDerivatives:j <- $esi
	#DEBUG_VALUE: calculateDerivatives:i <- $edi
	#DEBUG_VALUE: sysBoundaries <- undef
	#DEBUG_VALUE: technicalGrid <- undef
	#DEBUG_VALUE: RKCase <- undef
	#DEBUG_VALUE: dPerB <- [DW_OP_constu 168, DW_OP_minus] [$rbp+0]
	.loc	1 707 1                 # fieldsolver/derivatives.cpp:707:1
	movl	264(%r13), %r9d
.Ltmp13:
	.loc	1 715 1                 # fieldsolver/derivatives.cpp:715:1
	movl	268(%r13), %r8d
	.loc	1 707 1                 # fieldsolver/derivatives.cpp:707:1
	cmpl	%edi, %r9d
	movl	$-1, %r15d
	movl	$-1, %r14d
	cmovgl	-108(%rbp), %r14d       # 4-byte Folded Reload
	movq	-184(%rbp), %rcx        # 8-byte Reload
                                        # kill: def $ecx killed $ecx killed $rcx def $rcx
	cmovgl	-132(%rbp), %ecx        # 4-byte Folded Reload
	.loc	1 711 1                 # fieldsolver/derivatives.cpp:711:1
	leal	-3(%rcx), %eax
	testl	%esi, %esi
	cmovnsl	%ecx, %eax
	.loc	1 715 1                 # fieldsolver/derivatives.cpp:715:1
	leal	3(%rax), %ecx
	cmpl	%esi, %r8d
	movl	$-1, %r12d
	cmovgl	-76(%rbp), %r12d        # 4-byte Folded Reload
	cmovgl	%eax, %ecx
	.loc	1 723 1                 # fieldsolver/derivatives.cpp:723:1
	movl	272(%r13), %r11d
	xorl	%ebx, %ebx
	cmpl	%edx, %r11d
	setle	%bl
	cmovgl	-72(%rbp), %r15d        # 4-byte Folded Reload
	.loc	1 719 1                 # fieldsolver/derivatives.cpp:719:1
	addl	-96(%rbp), %ebx         # 4-byte Folded Reload
	.loc	1 723 1                 # fieldsolver/derivatives.cpp:723:1
	addl	%ecx, %ebx
	.loc	1 0 0 is_stmt 0         # fieldsolver/derivatives.cpp:0:0
	movl	%edx, %ecx
	movl	%esi, %eax
	movl	%edi, %r10d
	.loc	1 776 1 is_stmt 1       # fieldsolver/derivatives.cpp:776:1
	cmpl	$13, %ebx
	je	.LBB0_16
.Ltmp14:
# %bb.12:                               # %L.B1891
	#DEBUG_VALUE: dPerB <- [DW_OP_constu 168, DW_OP_minus] [$rbp+0]
	#DEBUG_VALUE: k <- $edx
	#DEBUG_VALUE: j <- $esi
	#DEBUG_VALUE: i <- $edi
	#DEBUG_VALUE: calculateDerivatives:perBGrid <- [DW_OP_constu 104, DW_OP_minus] [$rbp+0]
	#DEBUG_VALUE: calculateDerivatives:momentsGrid <- [DW_OP_constu 120, DW_OP_minus] [$rbp+0]
	#DEBUG_VALUE: calculateDerivatives:dMomentsGrid <- [DW_OP_plus_uconst 16] [$rbp+0]
	#DEBUG_VALUE: calculateDerivatives:technicalGrid <- [DW_OP_plus_uconst 24] [$rbp+0]
	#DEBUG_VALUE: calculateDerivatives:sysBoundaries <- [DW_OP_plus_uconst 32] [$rbp+0]
	#DEBUG_VALUE: calculateDerivatives:RKCase <- [DW_OP_plus_uconst 40] [$rbp+0]
	#DEBUG_VALUE: calculateDerivatives:k <- $edx
	#DEBUG_VALUE: calculateDerivatives:j <- $esi
	#DEBUG_VALUE: calculateDerivatives:i <- $edi
	.loc	1 779 1                 # fieldsolver/derivatives.cpp:779:1
	movslq	%ebx, %rcx
	movl	92(%r13,%rcx,4), %ebx
	cmpl	$-2, %ebx
	jne	.LBB0_14
.Ltmp15:
# %bb.13:
	#DEBUG_VALUE: dPerB <- [DW_OP_constu 168, DW_OP_minus] [$rbp+0]
	#DEBUG_VALUE: k <- $edx
	#DEBUG_VALUE: j <- $esi
	#DEBUG_VALUE: i <- $edi
	#DEBUG_VALUE: calculateDerivatives:perBGrid <- [DW_OP_constu 104, DW_OP_minus] [$rbp+0]
	#DEBUG_VALUE: calculateDerivatives:momentsGrid <- [DW_OP_constu 120, DW_OP_minus] [$rbp+0]
	#DEBUG_VALUE: calculateDerivatives:dMomentsGrid <- [DW_OP_plus_uconst 16] [$rbp+0]
	#DEBUG_VALUE: calculateDerivatives:technicalGrid <- [DW_OP_plus_uconst 24] [$rbp+0]
	#DEBUG_VALUE: calculateDerivatives:sysBoundaries <- [DW_OP_plus_uconst 32] [$rbp+0]
	#DEBUG_VALUE: calculateDerivatives:RKCase <- [DW_OP_plus_uconst 40] [$rbp+0]
	#DEBUG_VALUE: calculateDerivatives:k <- $edx
	#DEBUG_VALUE: calculateDerivatives:j <- $esi
	#DEBUG_VALUE: calculateDerivatives:i <- $edi
	.loc	1 0 1 is_stmt 0         # fieldsolver/derivatives.cpp:0:1
	xorl	%eax, %eax
	movq	%rax, -200(%rbp)        # 8-byte Spill
	movq	24(%rbp), %r15
	jmp	.LBB0_22
.Ltmp16:
.LBB0_14:                               # %L..inline.77225
	#DEBUG_VALUE: dPerB <- [DW_OP_constu 168, DW_OP_minus] [$rbp+0]
	#DEBUG_VALUE: k <- $edx
	#DEBUG_VALUE: j <- $esi
	#DEBUG_VALUE: i <- $edi
	#DEBUG_VALUE: calculateDerivatives:perBGrid <- [DW_OP_constu 104, DW_OP_minus] [$rbp+0]
	#DEBUG_VALUE: calculateDerivatives:momentsGrid <- [DW_OP_constu 120, DW_OP_minus] [$rbp+0]
	#DEBUG_VALUE: calculateDerivatives:dMomentsGrid <- [DW_OP_plus_uconst 16] [$rbp+0]
	#DEBUG_VALUE: calculateDerivatives:technicalGrid <- [DW_OP_plus_uconst 24] [$rbp+0]
	#DEBUG_VALUE: calculateDerivatives:sysBoundaries <- [DW_OP_plus_uconst 32] [$rbp+0]
	#DEBUG_VALUE: calculateDerivatives:RKCase <- [DW_OP_plus_uconst 40] [$rbp+0]
	#DEBUG_VALUE: calculateDerivatives:k <- $edx
	#DEBUG_VALUE: calculateDerivatives:j <- $esi
	#DEBUG_VALUE: calculateDerivatives:i <- $edi
	movl	%edx, %ecx
	movl	%esi, %eax
	movl	%edi, %r10d
	.loc	1 784 1 is_stmt 1       # fieldsolver/derivatives.cpp:784:1
	cmpl	56(%r13), %ebx
	jne	.LBB0_16
.Ltmp17:
# %bb.15:                               # %L.B1893
	#DEBUG_VALUE: dPerB <- [DW_OP_constu 168, DW_OP_minus] [$rbp+0]
	#DEBUG_VALUE: k <- $edx
	#DEBUG_VALUE: j <- $esi
	#DEBUG_VALUE: i <- $edi
	#DEBUG_VALUE: calculateDerivatives:perBGrid <- [DW_OP_constu 104, DW_OP_minus] [$rbp+0]
	#DEBUG_VALUE: calculateDerivatives:momentsGrid <- [DW_OP_constu 120, DW_OP_minus] [$rbp+0]
	#DEBUG_VALUE: calculateDerivatives:dMomentsGrid <- [DW_OP_plus_uconst 16] [$rbp+0]
	#DEBUG_VALUE: calculateDerivatives:technicalGrid <- [DW_OP_plus_uconst 24] [$rbp+0]
	#DEBUG_VALUE: calculateDerivatives:sysBoundaries <- [DW_OP_plus_uconst 32] [$rbp+0]
	#DEBUG_VALUE: calculateDerivatives:RKCase <- [DW_OP_plus_uconst 40] [$rbp+0]
	#DEBUG_VALUE: calculateDerivatives:k <- $edx
	#DEBUG_VALUE: calculateDerivatives:j <- $esi
	#DEBUG_VALUE: calculateDerivatives:i <- $edi
	.loc	1 787 1                 # fieldsolver/derivatives.cpp:787:1
	imull	%r9d, %r14d
	addl	%edi, %r14d
	.loc	1 788 1                 # fieldsolver/derivatives.cpp:788:1
	imull	%r8d, %r12d
	addl	%esi, %r12d
	.loc	1 789 1                 # fieldsolver/derivatives.cpp:789:1
	imull	%r11d, %r15d
	addl	%edx, %r15d
	.loc	1 0 0 is_stmt 0         # fieldsolver/derivatives.cpp:0:0
	movl	%r15d, %ecx
	movl	%r12d, %eax
	movl	%r14d, %r10d
.Ltmp18:
.LBB0_16:                               # %L..inline.77208
	#DEBUG_VALUE: dPerB <- [DW_OP_constu 168, DW_OP_minus] [$rbp+0]
	#DEBUG_VALUE: k <- $edx
	#DEBUG_VALUE: j <- $esi
	#DEBUG_VALUE: i <- $edi
	#DEBUG_VALUE: calculateDerivatives:perBGrid <- [DW_OP_constu 104, DW_OP_minus] [$rbp+0]
	#DEBUG_VALUE: calculateDerivatives:momentsGrid <- [DW_OP_constu 120, DW_OP_minus] [$rbp+0]
	#DEBUG_VALUE: calculateDerivatives:dMomentsGrid <- [DW_OP_plus_uconst 16] [$rbp+0]
	#DEBUG_VALUE: calculateDerivatives:technicalGrid <- [DW_OP_plus_uconst 24] [$rbp+0]
	#DEBUG_VALUE: calculateDerivatives:sysBoundaries <- [DW_OP_plus_uconst 32] [$rbp+0]
	#DEBUG_VALUE: calculateDerivatives:RKCase <- [DW_OP_plus_uconst 40] [$rbp+0]
	#DEBUG_VALUE: calculateDerivatives:k <- $edx
	#DEBUG_VALUE: calculateDerivatives:j <- $esi
	#DEBUG_VALUE: calculateDerivatives:i <- $edi
	.loc	1 793 1 is_stmt 1       # fieldsolver/derivatives.cpp:793:1
	cmpl	$2, 260(%r13)
	jge	.LBB0_18
.Ltmp19:
# %bb.17:
	#DEBUG_VALUE: dPerB <- [DW_OP_constu 168, DW_OP_minus] [$rbp+0]
	#DEBUG_VALUE: k <- $edx
	#DEBUG_VALUE: j <- $esi
	#DEBUG_VALUE: i <- $edi
	#DEBUG_VALUE: calculateDerivatives:perBGrid <- [DW_OP_constu 104, DW_OP_minus] [$rbp+0]
	#DEBUG_VALUE: calculateDerivatives:momentsGrid <- [DW_OP_constu 120, DW_OP_minus] [$rbp+0]
	#DEBUG_VALUE: calculateDerivatives:dMomentsGrid <- [DW_OP_plus_uconst 16] [$rbp+0]
	#DEBUG_VALUE: calculateDerivatives:technicalGrid <- [DW_OP_plus_uconst 24] [$rbp+0]
	#DEBUG_VALUE: calculateDerivatives:sysBoundaries <- [DW_OP_plus_uconst 32] [$rbp+0]
	#DEBUG_VALUE: calculateDerivatives:RKCase <- [DW_OP_plus_uconst 40] [$rbp+0]
	#DEBUG_VALUE: calculateDerivatives:k <- $edx
	#DEBUG_VALUE: calculateDerivatives:j <- $esi
	#DEBUG_VALUE: calculateDerivatives:i <- $edi
	.loc	1 0 1 is_stmt 0         # fieldsolver/derivatives.cpp:0:1
	xorl	%ebx, %ebx
	jmp	.LBB0_19
.Ltmp20:
.LBB0_18:                               # %L.B1894
	#DEBUG_VALUE: dPerB <- [DW_OP_constu 168, DW_OP_minus] [$rbp+0]
	#DEBUG_VALUE: k <- $edx
	#DEBUG_VALUE: j <- $esi
	#DEBUG_VALUE: i <- $edi
	#DEBUG_VALUE: calculateDerivatives:perBGrid <- [DW_OP_constu 104, DW_OP_minus] [$rbp+0]
	#DEBUG_VALUE: calculateDerivatives:momentsGrid <- [DW_OP_constu 120, DW_OP_minus] [$rbp+0]
	#DEBUG_VALUE: calculateDerivatives:dMomentsGrid <- [DW_OP_plus_uconst 16] [$rbp+0]
	#DEBUG_VALUE: calculateDerivatives:technicalGrid <- [DW_OP_plus_uconst 24] [$rbp+0]
	#DEBUG_VALUE: calculateDerivatives:sysBoundaries <- [DW_OP_plus_uconst 32] [$rbp+0]
	#DEBUG_VALUE: calculateDerivatives:RKCase <- [DW_OP_plus_uconst 40] [$rbp+0]
	#DEBUG_VALUE: calculateDerivatives:k <- $edx
	#DEBUG_VALUE: calculateDerivatives:j <- $esi
	#DEBUG_VALUE: calculateDerivatives:i <- $edi
	.loc	1 793 1                 # fieldsolver/derivatives.cpp:793:1
	addl	$2, %ecx
	imull	280(%r13), %ecx
	imull	276(%r13), %ecx
	movslq	%ecx, %rbx
.Ltmp21:
.LBB0_19:                               # %L..inline.77317
	#DEBUG_VALUE: dPerB <- [DW_OP_constu 168, DW_OP_minus] [$rbp+0]
	#DEBUG_VALUE: k <- $edx
	#DEBUG_VALUE: j <- $esi
	#DEBUG_VALUE: i <- $edi
	#DEBUG_VALUE: calculateDerivatives:perBGrid <- [DW_OP_constu 104, DW_OP_minus] [$rbp+0]
	#DEBUG_VALUE: calculateDerivatives:momentsGrid <- [DW_OP_constu 120, DW_OP_minus] [$rbp+0]
	#DEBUG_VALUE: calculateDerivatives:dMomentsGrid <- [DW_OP_plus_uconst 16] [$rbp+0]
	#DEBUG_VALUE: calculateDerivatives:technicalGrid <- [DW_OP_plus_uconst 24] [$rbp+0]
	#DEBUG_VALUE: calculateDerivatives:sysBoundaries <- [DW_OP_plus_uconst 32] [$rbp+0]
	#DEBUG_VALUE: calculateDerivatives:RKCase <- [DW_OP_plus_uconst 40] [$rbp+0]
	#DEBUG_VALUE: calculateDerivatives:k <- $edx
	#DEBUG_VALUE: calculateDerivatives:j <- $esi
	#DEBUG_VALUE: calculateDerivatives:i <- $edi
	.loc	1 0 1                   # fieldsolver/derivatives.cpp:0:1
	movq	24(%rbp), %r15
	.loc	1 793 1                 # fieldsolver/derivatives.cpp:793:1
	cmpl	$2, 256(%r13)
	jl	.LBB0_21
.Ltmp22:
# %bb.20:                               # %L.B1895
	#DEBUG_VALUE: dPerB <- [DW_OP_constu 168, DW_OP_minus] [$rbp+0]
	#DEBUG_VALUE: k <- $edx
	#DEBUG_VALUE: j <- $esi
	#DEBUG_VALUE: i <- $edi
	#DEBUG_VALUE: calculateDerivatives:perBGrid <- [DW_OP_constu 104, DW_OP_minus] [$rbp+0]
	#DEBUG_VALUE: calculateDerivatives:momentsGrid <- [DW_OP_constu 120, DW_OP_minus] [$rbp+0]
	#DEBUG_VALUE: calculateDerivatives:dMomentsGrid <- [DW_OP_plus_uconst 16] [$rbp+0]
	#DEBUG_VALUE: calculateDerivatives:technicalGrid <- [DW_OP_plus_uconst 24] [$rbp+0]
	#DEBUG_VALUE: calculateDerivatives:sysBoundaries <- [DW_OP_plus_uconst 32] [$rbp+0]
	#DEBUG_VALUE: calculateDerivatives:RKCase <- [DW_OP_plus_uconst 40] [$rbp+0]
	#DEBUG_VALUE: calculateDerivatives:k <- $edx
	#DEBUG_VALUE: calculateDerivatives:j <- $esi
	#DEBUG_VALUE: calculateDerivatives:i <- $edi
	addl	$2, %eax
	imull	276(%r13), %eax
	movslq	%eax, %rcx
	addq	%rcx, %rbx
.Ltmp23:
.LBB0_21:                               # %L..inline.77366
	#DEBUG_VALUE: dPerB <- [DW_OP_constu 168, DW_OP_minus] [$rbp+0]
	#DEBUG_VALUE: k <- $edx
	#DEBUG_VALUE: j <- $esi
	#DEBUG_VALUE: i <- $edi
	#DEBUG_VALUE: calculateDerivatives:perBGrid <- [DW_OP_constu 104, DW_OP_minus] [$rbp+0]
	#DEBUG_VALUE: calculateDerivatives:momentsGrid <- [DW_OP_constu 120, DW_OP_minus] [$rbp+0]
	#DEBUG_VALUE: calculateDerivatives:dMomentsGrid <- [DW_OP_plus_uconst 16] [$rbp+0]
	#DEBUG_VALUE: calculateDerivatives:technicalGrid <- [DW_OP_plus_uconst 24] [$rbp+0]
	#DEBUG_VALUE: calculateDerivatives:sysBoundaries <- [DW_OP_plus_uconst 32] [$rbp+0]
	#DEBUG_VALUE: calculateDerivatives:RKCase <- [DW_OP_plus_uconst 40] [$rbp+0]
	#DEBUG_VALUE: calculateDerivatives:k <- $edx
	#DEBUG_VALUE: calculateDerivatives:j <- $esi
	#DEBUG_VALUE: calculateDerivatives:i <- $edi
	movslq	%r10d, %rcx
	addq	$2, %rcx
	xorl	%eax, %eax
	cmpl	$2, 252(%r13)
	cmovgeq	%rcx, %rax
	addq	%rbx, %rax
	.loc	1 795 1 is_stmt 1       # fieldsolver/derivatives.cpp:795:1
	leaq	(%rax,%rax,2), %rax
	shlq	$6, %rax
	addq	744(%r13), %rax
	movq	%rax, -200(%rbp)        # 8-byte Spill
.Ltmp24:
.LBB0_22:                               # %L..inline.77412
	#DEBUG_VALUE: dPerB <- [DW_OP_constu 168, DW_OP_minus] [$rbp+0]
	#DEBUG_VALUE: k <- $edx
	#DEBUG_VALUE: j <- $esi
	#DEBUG_VALUE: i <- $edi
	#DEBUG_VALUE: calculateDerivatives:perBGrid <- [DW_OP_constu 104, DW_OP_minus] [$rbp+0]
	#DEBUG_VALUE: calculateDerivatives:momentsGrid <- [DW_OP_constu 120, DW_OP_minus] [$rbp+0]
	#DEBUG_VALUE: calculateDerivatives:dMomentsGrid <- [DW_OP_plus_uconst 16] [$rbp+0]
	#DEBUG_VALUE: calculateDerivatives:technicalGrid <- [DW_OP_plus_uconst 24] [$rbp+0]
	#DEBUG_VALUE: calculateDerivatives:sysBoundaries <- [DW_OP_plus_uconst 32] [$rbp+0]
	#DEBUG_VALUE: calculateDerivatives:RKCase <- [DW_OP_plus_uconst 40] [$rbp+0]
	#DEBUG_VALUE: calculateDerivatives:k <- $edx
	#DEBUG_VALUE: calculateDerivatives:j <- $esi
	#DEBUG_VALUE: calculateDerivatives:i <- $edi
	#DEBUG_VALUE: sysBoundaries <- undef
	#DEBUG_VALUE: RKCase <- undef
	#DEBUG_VALUE: dMoments <- [DW_OP_constu 200, DW_OP_minus] [$rbp+0]
	.loc	1 707 1                 # fieldsolver/derivatives.cpp:707:1
	movl	264(%r15), %r13d
	.loc	1 715 1                 # fieldsolver/derivatives.cpp:715:1
	movl	268(%r15), %r12d
	.loc	1 707 1                 # fieldsolver/derivatives.cpp:707:1
	cmpl	%edi, %r13d
	movl	$-1, %r10d
	movl	$-1, %r9d
	cmovgl	-108(%rbp), %r9d        # 4-byte Folded Reload
	movq	-184(%rbp), %rax        # 8-byte Reload
                                        # kill: def $eax killed $eax killed $rax def $rax
	cmovgl	-132(%rbp), %eax        # 4-byte Folded Reload
	.loc	1 711 1                 # fieldsolver/derivatives.cpp:711:1
	leal	-3(%rax), %ecx
	testl	%esi, %esi
	cmovnsl	%eax, %ecx
	.loc	1 715 1                 # fieldsolver/derivatives.cpp:715:1
	leal	3(%rcx), %eax
	cmpl	%esi, %r12d
	movl	$-1, %r8d
	cmovgl	-76(%rbp), %r8d         # 4-byte Folded Reload
	cmovgl	%ecx, %eax
	.loc	1 723 1                 # fieldsolver/derivatives.cpp:723:1
	movl	272(%r15), %ecx
	xorl	%r11d, %r11d
	movl	%ecx, -88(%rbp)         # 4-byte Spill
	cmpl	%edx, %ecx
	setle	%r11b
	cmovgl	-72(%rbp), %r10d        # 4-byte Folded Reload
	.loc	1 719 1                 # fieldsolver/derivatives.cpp:719:1
	addl	-96(%rbp), %r11d        # 4-byte Folded Reload
	.loc	1 723 1                 # fieldsolver/derivatives.cpp:723:1
	addl	%eax, %r11d
	.loc	1 779 1                 # fieldsolver/derivatives.cpp:779:1
	movslq	%r11d, %rax
	movq	%rax, -144(%rbp)        # 8-byte Spill
	.loc	1 0 0 is_stmt 0         # fieldsolver/derivatives.cpp:0:0
	movl	%edx, %ecx
	movl	%esi, %eax
	movl	%edi, %ebx
	.loc	1 776 1 is_stmt 1       # fieldsolver/derivatives.cpp:776:1
	cmpl	$13, %r11d
	je	.LBB0_25
.Ltmp25:
# %bb.23:                               # %L.B1902
	#DEBUG_VALUE: dMoments <- [DW_OP_constu 200, DW_OP_minus] [$rbp+0]
	#DEBUG_VALUE: dPerB <- [DW_OP_constu 168, DW_OP_minus] [$rbp+0]
	#DEBUG_VALUE: k <- $edx
	#DEBUG_VALUE: j <- $esi
	#DEBUG_VALUE: i <- $edi
	#DEBUG_VALUE: calculateDerivatives:perBGrid <- [DW_OP_constu 104, DW_OP_minus] [$rbp+0]
	#DEBUG_VALUE: calculateDerivatives:momentsGrid <- [DW_OP_constu 120, DW_OP_minus] [$rbp+0]
	#DEBUG_VALUE: calculateDerivatives:dMomentsGrid <- [DW_OP_plus_uconst 16] [$rbp+0]
	#DEBUG_VALUE: calculateDerivatives:technicalGrid <- [DW_OP_plus_uconst 24] [$rbp+0]
	#DEBUG_VALUE: calculateDerivatives:sysBoundaries <- [DW_OP_plus_uconst 32] [$rbp+0]
	#DEBUG_VALUE: calculateDerivatives:RKCase <- [DW_OP_plus_uconst 40] [$rbp+0]
	#DEBUG_VALUE: calculateDerivatives:k <- $edx
	#DEBUG_VALUE: calculateDerivatives:j <- $esi
	#DEBUG_VALUE: calculateDerivatives:i <- $edi
	.loc	1 0 1 is_stmt 0         # fieldsolver/derivatives.cpp:0:1
	movq	-144(%rbp), %rax        # 8-byte Reload
	.loc	1 779 1 is_stmt 1       # fieldsolver/derivatives.cpp:779:1
	movl	92(%r15,%rax,4), %r14d
	.loc	1 0 0 is_stmt 0         # fieldsolver/derivatives.cpp:0:0
	movl	%edx, %ecx
	movl	%esi, %eax
	movl	%edi, %ebx
	.loc	1 784 1 is_stmt 1       # fieldsolver/derivatives.cpp:784:1
	cmpl	56(%r15), %r14d
	jne	.LBB0_25
.Ltmp26:
# %bb.24:                               # %L.B1904
	#DEBUG_VALUE: dMoments <- [DW_OP_constu 200, DW_OP_minus] [$rbp+0]
	#DEBUG_VALUE: dPerB <- [DW_OP_constu 168, DW_OP_minus] [$rbp+0]
	#DEBUG_VALUE: k <- $edx
	#DEBUG_VALUE: j <- $esi
	#DEBUG_VALUE: i <- $edi
	#DEBUG_VALUE: calculateDerivatives:perBGrid <- [DW_OP_constu 104, DW_OP_minus] [$rbp+0]
	#DEBUG_VALUE: calculateDerivatives:momentsGrid <- [DW_OP_constu 120, DW_OP_minus] [$rbp+0]
	#DEBUG_VALUE: calculateDerivatives:dMomentsGrid <- [DW_OP_plus_uconst 16] [$rbp+0]
	#DEBUG_VALUE: calculateDerivatives:technicalGrid <- [DW_OP_plus_uconst 24] [$rbp+0]
	#DEBUG_VALUE: calculateDerivatives:sysBoundaries <- [DW_OP_plus_uconst 32] [$rbp+0]
	#DEBUG_VALUE: calculateDerivatives:RKCase <- [DW_OP_plus_uconst 40] [$rbp+0]
	#DEBUG_VALUE: calculateDerivatives:k <- $edx
	#DEBUG_VALUE: calculateDerivatives:j <- $esi
	#DEBUG_VALUE: calculateDerivatives:i <- $edi
	.loc	1 787 1                 # fieldsolver/derivatives.cpp:787:1
	movl	%r9d, %ebx
	imull	%r13d, %ebx
	addl	%edi, %ebx
	.loc	1 788 1                 # fieldsolver/derivatives.cpp:788:1
	movl	%r8d, %eax
	imull	%r12d, %eax
	addl	%esi, %eax
	.loc	1 789 1                 # fieldsolver/derivatives.cpp:789:1
	movl	%r10d, %ecx
	imull	-88(%rbp), %ecx         # 4-byte Folded Reload
	addl	%edx, %ecx
.Ltmp27:
.LBB0_25:                               # %L..inline.77475
	#DEBUG_VALUE: dMoments <- [DW_OP_constu 200, DW_OP_minus] [$rbp+0]
	#DEBUG_VALUE: dPerB <- [DW_OP_constu 168, DW_OP_minus] [$rbp+0]
	#DEBUG_VALUE: k <- $edx
	#DEBUG_VALUE: j <- $esi
	#DEBUG_VALUE: i <- $edi
	#DEBUG_VALUE: calculateDerivatives:perBGrid <- [DW_OP_constu 104, DW_OP_minus] [$rbp+0]
	#DEBUG_VALUE: calculateDerivatives:momentsGrid <- [DW_OP_constu 120, DW_OP_minus] [$rbp+0]
	#DEBUG_VALUE: calculateDerivatives:dMomentsGrid <- [DW_OP_plus_uconst 16] [$rbp+0]
	#DEBUG_VALUE: calculateDerivatives:technicalGrid <- [DW_OP_plus_uconst 24] [$rbp+0]
	#DEBUG_VALUE: calculateDerivatives:sysBoundaries <- [DW_OP_plus_uconst 32] [$rbp+0]
	#DEBUG_VALUE: calculateDerivatives:RKCase <- [DW_OP_plus_uconst 40] [$rbp+0]
	#DEBUG_VALUE: calculateDerivatives:k <- $edx
	#DEBUG_VALUE: calculateDerivatives:j <- $esi
	#DEBUG_VALUE: calculateDerivatives:i <- $edi
	#DEBUG_VALUE: sysBoundaries <- undef
	#DEBUG_VALUE: RKCase <- undef
	.loc	1 0 1 is_stmt 0         # fieldsolver/derivatives.cpp:0:1
	movl	%r12d, -176(%rbp)       # 4-byte Spill
	movq	%rsi, -48(%rbp)         # 8-byte Spill
	movq	%rdx, -64(%rbp)         # 8-byte Spill
	movq	%rdi, -56(%rbp)         # 8-byte Spill
	.loc	1 793 1 is_stmt 1       # fieldsolver/derivatives.cpp:793:1
	movl	260(%r15), %r12d
	cmpl	$2, %r12d
	jge	.LBB0_27
.Ltmp28:
# %bb.26:
	#DEBUG_VALUE: dMoments <- [DW_OP_constu 200, DW_OP_minus] [$rbp+0]
	#DEBUG_VALUE: dPerB <- [DW_OP_constu 168, DW_OP_minus] [$rbp+0]
	#DEBUG_VALUE: k <- $edx
	#DEBUG_VALUE: j <- $esi
	#DEBUG_VALUE: i <- $edi
	#DEBUG_VALUE: calculateDerivatives:perBGrid <- [DW_OP_constu 104, DW_OP_minus] [$rbp+0]
	#DEBUG_VALUE: calculateDerivatives:momentsGrid <- [DW_OP_constu 120, DW_OP_minus] [$rbp+0]
	#DEBUG_VALUE: calculateDerivatives:dMomentsGrid <- [DW_OP_plus_uconst 16] [$rbp+0]
	#DEBUG_VALUE: calculateDerivatives:technicalGrid <- [DW_OP_plus_uconst 24] [$rbp+0]
	#DEBUG_VALUE: calculateDerivatives:sysBoundaries <- [DW_OP_plus_uconst 32] [$rbp+0]
	#DEBUG_VALUE: calculateDerivatives:RKCase <- [DW_OP_plus_uconst 40] [$rbp+0]
	#DEBUG_VALUE: calculateDerivatives:k <- $edx
	#DEBUG_VALUE: calculateDerivatives:j <- $esi
	#DEBUG_VALUE: calculateDerivatives:i <- $edi
	.loc	1 0 1 is_stmt 0         # fieldsolver/derivatives.cpp:0:1
	xorl	%ecx, %ecx
	jmp	.LBB0_28
.Ltmp29:
.LBB0_27:                               # %L.B1905
	#DEBUG_VALUE: dMoments <- [DW_OP_constu 200, DW_OP_minus] [$rbp+0]
	#DEBUG_VALUE: dPerB <- [DW_OP_constu 168, DW_OP_minus] [$rbp+0]
	#DEBUG_VALUE: k <- $edx
	#DEBUG_VALUE: j <- $esi
	#DEBUG_VALUE: i <- $edi
	#DEBUG_VALUE: calculateDerivatives:perBGrid <- [DW_OP_constu 104, DW_OP_minus] [$rbp+0]
	#DEBUG_VALUE: calculateDerivatives:momentsGrid <- [DW_OP_constu 120, DW_OP_minus] [$rbp+0]
	#DEBUG_VALUE: calculateDerivatives:dMomentsGrid <- [DW_OP_plus_uconst 16] [$rbp+0]
	#DEBUG_VALUE: calculateDerivatives:technicalGrid <- [DW_OP_plus_uconst 24] [$rbp+0]
	#DEBUG_VALUE: calculateDerivatives:sysBoundaries <- [DW_OP_plus_uconst 32] [$rbp+0]
	#DEBUG_VALUE: calculateDerivatives:RKCase <- [DW_OP_plus_uconst 40] [$rbp+0]
	#DEBUG_VALUE: calculateDerivatives:k <- $edx
	#DEBUG_VALUE: calculateDerivatives:j <- $esi
	#DEBUG_VALUE: calculateDerivatives:i <- $edi
	.loc	1 793 1                 # fieldsolver/derivatives.cpp:793:1
	addl	$2, %ecx
	imull	280(%r15), %ecx
	imull	276(%r15), %ecx
	movslq	%ecx, %rcx
.Ltmp30:
.LBB0_28:                               # %L..inline.77584
	#DEBUG_VALUE: dMoments <- [DW_OP_constu 200, DW_OP_minus] [$rbp+0]
	#DEBUG_VALUE: dPerB <- [DW_OP_constu 168, DW_OP_minus] [$rbp+0]
	#DEBUG_VALUE: k <- $edx
	#DEBUG_VALUE: j <- $esi
	#DEBUG_VALUE: i <- $edi
	#DEBUG_VALUE: calculateDerivatives:perBGrid <- [DW_OP_constu 104, DW_OP_minus] [$rbp+0]
	#DEBUG_VALUE: calculateDerivatives:momentsGrid <- [DW_OP_constu 120, DW_OP_minus] [$rbp+0]
	#DEBUG_VALUE: calculateDerivatives:dMomentsGrid <- [DW_OP_plus_uconst 16] [$rbp+0]
	#DEBUG_VALUE: calculateDerivatives:technicalGrid <- [DW_OP_plus_uconst 24] [$rbp+0]
	#DEBUG_VALUE: calculateDerivatives:sysBoundaries <- [DW_OP_plus_uconst 32] [$rbp+0]
	#DEBUG_VALUE: calculateDerivatives:RKCase <- [DW_OP_plus_uconst 40] [$rbp+0]
	#DEBUG_VALUE: calculateDerivatives:k <- $edx
	#DEBUG_VALUE: calculateDerivatives:j <- $esi
	#DEBUG_VALUE: calculateDerivatives:i <- $edi
	#DEBUG_VALUE: sysBoundaries <- undef
	#DEBUG_VALUE: RKCase <- undef
	movl	256(%r15), %r14d
	cmpl	$2, %r14d
	movl	%r13d, -152(%rbp)       # 4-byte Spill
	jl	.LBB0_30
.Ltmp31:
# %bb.29:                               # %L.B1906
	#DEBUG_VALUE: dMoments <- [DW_OP_constu 200, DW_OP_minus] [$rbp+0]
	#DEBUG_VALUE: dPerB <- [DW_OP_constu 168, DW_OP_minus] [$rbp+0]
	#DEBUG_VALUE: k <- $edx
	#DEBUG_VALUE: j <- $esi
	#DEBUG_VALUE: i <- $edi
	#DEBUG_VALUE: calculateDerivatives:perBGrid <- [DW_OP_constu 104, DW_OP_minus] [$rbp+0]
	#DEBUG_VALUE: calculateDerivatives:momentsGrid <- [DW_OP_constu 120, DW_OP_minus] [$rbp+0]
	#DEBUG_VALUE: calculateDerivatives:dMomentsGrid <- [DW_OP_plus_uconst 16] [$rbp+0]
	#DEBUG_VALUE: calculateDerivatives:technicalGrid <- [DW_OP_plus_uconst 24] [$rbp+0]
	#DEBUG_VALUE: calculateDerivatives:sysBoundaries <- [DW_OP_plus_uconst 32] [$rbp+0]
	#DEBUG_VALUE: calculateDerivatives:RKCase <- [DW_OP_plus_uconst 40] [$rbp+0]
	#DEBUG_VALUE: calculateDerivatives:k <- $edx
	#DEBUG_VALUE: calculateDerivatives:j <- $esi
	#DEBUG_VALUE: calculateDerivatives:i <- $edi
	addl	$2, %eax
	imull	276(%r15), %eax
	cltq
	addq	%rax, %rcx
.Ltmp32:
.LBB0_30:                               # %L..inline.77633
	#DEBUG_VALUE: dMoments <- [DW_OP_constu 200, DW_OP_minus] [$rbp+0]
	#DEBUG_VALUE: dPerB <- [DW_OP_constu 168, DW_OP_minus] [$rbp+0]
	#DEBUG_VALUE: k <- $edx
	#DEBUG_VALUE: j <- $esi
	#DEBUG_VALUE: i <- $edi
	#DEBUG_VALUE: calculateDerivatives:perBGrid <- [DW_OP_constu 104, DW_OP_minus] [$rbp+0]
	#DEBUG_VALUE: calculateDerivatives:momentsGrid <- [DW_OP_constu 120, DW_OP_minus] [$rbp+0]
	#DEBUG_VALUE: calculateDerivatives:dMomentsGrid <- [DW_OP_plus_uconst 16] [$rbp+0]
	#DEBUG_VALUE: calculateDerivatives:technicalGrid <- [DW_OP_plus_uconst 24] [$rbp+0]
	#DEBUG_VALUE: calculateDerivatives:sysBoundaries <- [DW_OP_plus_uconst 32] [$rbp+0]
	#DEBUG_VALUE: calculateDerivatives:RKCase <- [DW_OP_plus_uconst 40] [$rbp+0]
	#DEBUG_VALUE: calculateDerivatives:k <- $edx
	#DEBUG_VALUE: calculateDerivatives:j <- $esi
	#DEBUG_VALUE: calculateDerivatives:i <- $edi
	#DEBUG_VALUE: sysBoundaries <- undef
	#DEBUG_VALUE: RKCase <- undef
	movl	252(%r15), %eax
	movslq	%ebx, %rdx
.Ltmp33:
	addq	$2, %rdx
	xorl	%ebx, %ebx
	cmpl	$2, %eax
	cmovgeq	%rdx, %rbx
	addq	%rcx, %rbx
	.loc	1 795 1 is_stmt 1       # fieldsolver/derivatives.cpp:795:1
	shlq	$5, %rbx
	movq	744(%r15), %rcx
	movq	%rcx, -128(%rbp)        # 8-byte Spill
	.loc	1 796 1                 # fieldsolver/derivatives.cpp:796:1
	movl	(%rcx,%rbx), %ecx
.Ltmp34:
	#DEBUG_VALUE: sysBoundaryFlag <- $ecx
	.loc	1 0 1 is_stmt 0         # fieldsolver/derivatives.cpp:0:1
	movl	%ecx, -156(%rbp)        # 4-byte Spill
.Ltmp35:
	#DEBUG_VALUE: sysBoundaryFlag <- [DW_OP_constu 156, DW_OP_minus] [$rbp+0]
	#DEBUG_VALUE: sysBoundaryFlag <- [DW_OP_constu 156, DW_OP_minus] [$rbp+0]
	movq	-64(%rbp), %r13         # 8-byte Reload
	movl	%r13d, %edx
	movq	-48(%rbp), %rsi         # 8-byte Reload
.Ltmp36:
	movl	%esi, %ebx
	movq	-56(%rbp), %r15         # 8-byte Reload
	movl	%r15d, %ecx
	.loc	1 776 1 is_stmt 1       # fieldsolver/derivatives.cpp:776:1
	cmpl	$13, %r11d
	je	.LBB0_33
.Ltmp37:
# %bb.31:                               # %L.B1913
	#DEBUG_VALUE: sysBoundaryFlag <- [DW_OP_constu 156, DW_OP_minus] [$rbp+0]
	#DEBUG_VALUE: dMoments <- [DW_OP_constu 200, DW_OP_minus] [$rbp+0]
	#DEBUG_VALUE: dPerB <- [DW_OP_constu 168, DW_OP_minus] [$rbp+0]
	#DEBUG_VALUE: i <- $edi
	#DEBUG_VALUE: calculateDerivatives:perBGrid <- [DW_OP_constu 104, DW_OP_minus] [$rbp+0]
	#DEBUG_VALUE: calculateDerivatives:momentsGrid <- [DW_OP_constu 120, DW_OP_minus] [$rbp+0]
	#DEBUG_VALUE: calculateDerivatives:dMomentsGrid <- [DW_OP_plus_uconst 16] [$rbp+0]
	#DEBUG_VALUE: calculateDerivatives:technicalGrid <- [DW_OP_plus_uconst 24] [$rbp+0]
	#DEBUG_VALUE: calculateDerivatives:sysBoundaries <- [DW_OP_plus_uconst 32] [$rbp+0]
	#DEBUG_VALUE: calculateDerivatives:RKCase <- [DW_OP_plus_uconst 40] [$rbp+0]
	#DEBUG_VALUE: calculateDerivatives:i <- $edi
	.loc	1 0 1 is_stmt 0         # fieldsolver/derivatives.cpp:0:1
	movq	24(%rbp), %r11
	movq	-144(%rbp), %rcx        # 8-byte Reload
	.loc	1 779 1 is_stmt 1       # fieldsolver/derivatives.cpp:779:1
	movl	92(%r11,%rcx,4), %edi
.Ltmp38:
	.loc	1 0 0 is_stmt 0         # fieldsolver/derivatives.cpp:0:0
	movl	%r13d, %edx
	movl	%esi, %ebx
	movl	%r15d, %ecx
	.loc	1 784 1 is_stmt 1       # fieldsolver/derivatives.cpp:784:1
	cmpl	56(%r11), %edi
	jne	.LBB0_33
.Ltmp39:
# %bb.32:                               # %L.B1915
	#DEBUG_VALUE: sysBoundaryFlag <- [DW_OP_constu 156, DW_OP_minus] [$rbp+0]
	#DEBUG_VALUE: dMoments <- [DW_OP_constu 200, DW_OP_minus] [$rbp+0]
	#DEBUG_VALUE: dPerB <- [DW_OP_constu 168, DW_OP_minus] [$rbp+0]
	#DEBUG_VALUE: calculateDerivatives:perBGrid <- [DW_OP_constu 104, DW_OP_minus] [$rbp+0]
	#DEBUG_VALUE: calculateDerivatives:momentsGrid <- [DW_OP_constu 120, DW_OP_minus] [$rbp+0]
	#DEBUG_VALUE: calculateDerivatives:dMomentsGrid <- [DW_OP_plus_uconst 16] [$rbp+0]
	#DEBUG_VALUE: calculateDerivatives:technicalGrid <- [DW_OP_plus_uconst 24] [$rbp+0]
	#DEBUG_VALUE: calculateDerivatives:sysBoundaries <- [DW_OP_plus_uconst 32] [$rbp+0]
	#DEBUG_VALUE: calculateDerivatives:RKCase <- [DW_OP_plus_uconst 40] [$rbp+0]
	.loc	1 787 1                 # fieldsolver/derivatives.cpp:787:1
	imull	-152(%rbp), %r9d        # 4-byte Folded Reload
	addl	%r15d, %r9d
	.loc	1 788 1                 # fieldsolver/derivatives.cpp:788:1
	imull	-176(%rbp), %r8d        # 4-byte Folded Reload
	addl	%esi, %r8d
	.loc	1 789 1                 # fieldsolver/derivatives.cpp:789:1
	imull	-88(%rbp), %r10d        # 4-byte Folded Reload
	addl	%r13d, %r10d
	.loc	1 0 0 is_stmt 0         # fieldsolver/derivatives.cpp:0:0
	movl	%r10d, %edx
	movl	%r8d, %ebx
	movl	%r9d, %ecx
.Ltmp40:
.LBB0_33:                               # %L..inline.77742
	#DEBUG_VALUE: sysBoundaryFlag <- [DW_OP_constu 156, DW_OP_minus] [$rbp+0]
	#DEBUG_VALUE: dMoments <- [DW_OP_constu 200, DW_OP_minus] [$rbp+0]
	#DEBUG_VALUE: dPerB <- [DW_OP_constu 168, DW_OP_minus] [$rbp+0]
	#DEBUG_VALUE: calculateDerivatives:perBGrid <- [DW_OP_constu 104, DW_OP_minus] [$rbp+0]
	#DEBUG_VALUE: calculateDerivatives:momentsGrid <- [DW_OP_constu 120, DW_OP_minus] [$rbp+0]
	#DEBUG_VALUE: calculateDerivatives:dMomentsGrid <- [DW_OP_plus_uconst 16] [$rbp+0]
	#DEBUG_VALUE: calculateDerivatives:technicalGrid <- [DW_OP_plus_uconst 24] [$rbp+0]
	#DEBUG_VALUE: calculateDerivatives:sysBoundaries <- [DW_OP_plus_uconst 32] [$rbp+0]
	#DEBUG_VALUE: calculateDerivatives:RKCase <- [DW_OP_plus_uconst 40] [$rbp+0]
	#DEBUG_VALUE: sysBoundaries <- undef
	#DEBUG_VALUE: RKCase <- undef
	.loc	1 793 1 is_stmt 1       # fieldsolver/derivatives.cpp:793:1
	cmpl	$2, %r12d
	movq	-104(%rbp), %r10        # 8-byte Reload
	jge	.LBB0_35
.Ltmp41:
# %bb.34:
	#DEBUG_VALUE: sysBoundaryFlag <- [DW_OP_constu 156, DW_OP_minus] [$rbp+0]
	#DEBUG_VALUE: dMoments <- [DW_OP_constu 200, DW_OP_minus] [$rbp+0]
	#DEBUG_VALUE: dPerB <- [DW_OP_constu 168, DW_OP_minus] [$rbp+0]
	#DEBUG_VALUE: calculateDerivatives:perBGrid <- [DW_OP_constu 104, DW_OP_minus] [$rbp+0]
	#DEBUG_VALUE: calculateDerivatives:momentsGrid <- [DW_OP_constu 120, DW_OP_minus] [$rbp+0]
	#DEBUG_VALUE: calculateDerivatives:dMomentsGrid <- [DW_OP_plus_uconst 16] [$rbp+0]
	#DEBUG_VALUE: calculateDerivatives:technicalGrid <- [DW_OP_plus_uconst 24] [$rbp+0]
	#DEBUG_VALUE: calculateDerivatives:sysBoundaries <- [DW_OP_plus_uconst 32] [$rbp+0]
	#DEBUG_VALUE: calculateDerivatives:RKCase <- [DW_OP_plus_uconst 40] [$rbp+0]
	.loc	1 0 1 is_stmt 0         # fieldsolver/derivatives.cpp:0:1
	xorl	%edx, %edx
	movq	-64(%rbp), %r8          # 8-byte Reload
	movq	-184(%rbp), %r11        # 8-byte Reload
	movq	-48(%rbp), %r12         # 8-byte Reload
	movq	24(%rbp), %rsi
.Ltmp42:
	#DEBUG_VALUE: sysBoundaries <- undef
	#DEBUG_VALUE: RKCase <- undef
	.loc	1 793 1                 # fieldsolver/derivatives.cpp:793:1
	cmpl	$2, %r14d
	jge	.LBB0_36
	jmp	.LBB0_37
.Ltmp43:
.LBB0_35:                               # %L.B1916
	#DEBUG_VALUE: sysBoundaryFlag <- [DW_OP_constu 156, DW_OP_minus] [$rbp+0]
	#DEBUG_VALUE: dMoments <- [DW_OP_constu 200, DW_OP_minus] [$rbp+0]
	#DEBUG_VALUE: dPerB <- [DW_OP_constu 168, DW_OP_minus] [$rbp+0]
	#DEBUG_VALUE: calculateDerivatives:perBGrid <- [DW_OP_constu 104, DW_OP_minus] [$rbp+0]
	#DEBUG_VALUE: calculateDerivatives:momentsGrid <- [DW_OP_constu 120, DW_OP_minus] [$rbp+0]
	#DEBUG_VALUE: calculateDerivatives:dMomentsGrid <- [DW_OP_plus_uconst 16] [$rbp+0]
	#DEBUG_VALUE: calculateDerivatives:technicalGrid <- [DW_OP_plus_uconst 24] [$rbp+0]
	#DEBUG_VALUE: calculateDerivatives:sysBoundaries <- [DW_OP_plus_uconst 32] [$rbp+0]
	#DEBUG_VALUE: calculateDerivatives:RKCase <- [DW_OP_plus_uconst 40] [$rbp+0]
	addl	$2, %edx
	movq	24(%rbp), %rsi
	imull	280(%rsi), %edx
	imull	276(%rsi), %edx
	movslq	%edx, %rdx
	movq	-64(%rbp), %r8          # 8-byte Reload
	movq	-184(%rbp), %r11        # 8-byte Reload
	movq	-48(%rbp), %r12         # 8-byte Reload
.Ltmp44:
	#DEBUG_VALUE: sysBoundaries <- undef
	#DEBUG_VALUE: RKCase <- undef
	cmpl	$2, %r14d
	jl	.LBB0_37
.Ltmp45:
.LBB0_36:                               # %L.B1917
	#DEBUG_VALUE: sysBoundaryFlag <- [DW_OP_constu 156, DW_OP_minus] [$rbp+0]
	#DEBUG_VALUE: dMoments <- [DW_OP_constu 200, DW_OP_minus] [$rbp+0]
	#DEBUG_VALUE: dPerB <- [DW_OP_constu 168, DW_OP_minus] [$rbp+0]
	#DEBUG_VALUE: calculateDerivatives:perBGrid <- [DW_OP_constu 104, DW_OP_minus] [$rbp+0]
	#DEBUG_VALUE: calculateDerivatives:momentsGrid <- [DW_OP_constu 120, DW_OP_minus] [$rbp+0]
	#DEBUG_VALUE: calculateDerivatives:dMomentsGrid <- [DW_OP_plus_uconst 16] [$rbp+0]
	#DEBUG_VALUE: calculateDerivatives:technicalGrid <- [DW_OP_plus_uconst 24] [$rbp+0]
	#DEBUG_VALUE: calculateDerivatives:sysBoundaries <- [DW_OP_plus_uconst 32] [$rbp+0]
	#DEBUG_VALUE: calculateDerivatives:RKCase <- [DW_OP_plus_uconst 40] [$rbp+0]
	addl	$2, %ebx
	imull	276(%rsi), %ebx
	movslq	%ebx, %rdi
	addq	%rdi, %rdx
.Ltmp46:
.LBB0_37:                               # %L..inline.77900
	#DEBUG_VALUE: sysBoundaryFlag <- [DW_OP_constu 156, DW_OP_minus] [$rbp+0]
	#DEBUG_VALUE: dMoments <- [DW_OP_constu 200, DW_OP_minus] [$rbp+0]
	#DEBUG_VALUE: dPerB <- [DW_OP_constu 168, DW_OP_minus] [$rbp+0]
	#DEBUG_VALUE: calculateDerivatives:perBGrid <- [DW_OP_constu 104, DW_OP_minus] [$rbp+0]
	#DEBUG_VALUE: calculateDerivatives:momentsGrid <- [DW_OP_constu 120, DW_OP_minus] [$rbp+0]
	#DEBUG_VALUE: calculateDerivatives:dMomentsGrid <- [DW_OP_plus_uconst 16] [$rbp+0]
	#DEBUG_VALUE: calculateDerivatives:technicalGrid <- [DW_OP_plus_uconst 24] [$rbp+0]
	#DEBUG_VALUE: calculateDerivatives:sysBoundaries <- [DW_OP_plus_uconst 32] [$rbp+0]
	#DEBUG_VALUE: calculateDerivatives:RKCase <- [DW_OP_plus_uconst 40] [$rbp+0]
	.loc	1 0 1                   # fieldsolver/derivatives.cpp:0:1
	movq	-120(%rbp), %r15        # 8-byte Reload
.Ltmp47:
	#DEBUG_VALUE: sysBoundaries <- undef
	#DEBUG_VALUE: RKCase <- undef
	.loc	1 793 1                 # fieldsolver/derivatives.cpp:793:1
	movslq	%ecx, %rcx
	addq	$2, %rcx
	xorl	%edi, %edi
	cmpl	$2, %eax
	cmovgeq	%rcx, %rdi
	addq	%rdx, %rdi
	.loc	1 795 1 is_stmt 1       # fieldsolver/derivatives.cpp:795:1
	shlq	$5, %rdi
	.loc	1 707 1                 # fieldsolver/derivatives.cpp:707:1
	movl	264(%r15), %ecx
	.loc	1 715 1                 # fieldsolver/derivatives.cpp:715:1
	movl	268(%r15), %eax
	movq	-56(%rbp), %r13         # 8-byte Reload
	movl	%ecx, -176(%rbp)        # 4-byte Spill
	.loc	1 707 1                 # fieldsolver/derivatives.cpp:707:1
	cmpl	%r13d, %ecx
	movl	$-1, %esi
	movl	$-1, %r14d
	cmovgl	-108(%rbp), %r14d       # 4-byte Folded Reload
	movl	%r11d, %ecx
	cmovgl	-132(%rbp), %ecx        # 4-byte Folded Reload
	.loc	1 711 1                 # fieldsolver/derivatives.cpp:711:1
	leal	-3(%rcx), %edx
	testl	%r12d, %r12d
	movq	-128(%rbp), %rbx        # 8-byte Reload
	.loc	1 796 1                 # fieldsolver/derivatives.cpp:796:1
	movl	4(%rbx,%rdi), %edi
.Ltmp48:
	#DEBUG_VALUE: sysBoundaryLayer <- $edi
	.loc	1 0 1 is_stmt 0         # fieldsolver/derivatives.cpp:0:1
	movl	%edi, -144(%rbp)        # 4-byte Spill
.Ltmp49:
	#DEBUG_VALUE: sysBoundaryLayer <- [DW_OP_constu 144, DW_OP_minus] [$rbp+0]
	#DEBUG_VALUE: sysBoundaryLayer <- [DW_OP_constu 144, DW_OP_minus] [$rbp+0]
	.loc	1 711 1 is_stmt 1       # fieldsolver/derivatives.cpp:711:1
	cmovnsl	%ecx, %edx
	.loc	1 715 1                 # fieldsolver/derivatives.cpp:715:1
	leal	3(%rdx), %edi
	movl	%eax, -88(%rbp)         # 4-byte Spill
	cmpl	%r12d, %eax
	movl	$-1, %ecx
	cmovgl	-76(%rbp), %ecx         # 4-byte Folded Reload
	movl	%ecx, -92(%rbp)         # 4-byte Spill
	cmovgl	%edx, %edi
	.loc	1 723 1                 # fieldsolver/derivatives.cpp:723:1
	movl	272(%r15), %eax
	xorl	%r9d, %r9d
	movl	%eax, -192(%rbp)        # 4-byte Spill
	cmpl	%r8d, %eax
	setle	%r9b
	cmovgl	-72(%rbp), %esi         # 4-byte Folded Reload
	movl	%esi, -112(%rbp)        # 4-byte Spill
	.loc	1 719 1                 # fieldsolver/derivatives.cpp:719:1
	addl	-96(%rbp), %r9d         # 4-byte Folded Reload
	.loc	1 723 1                 # fieldsolver/derivatives.cpp:723:1
	addl	%r9d, %edi
	.loc	1 0 0 is_stmt 0         # fieldsolver/derivatives.cpp:0:0
	movl	%r8d, %esi
	movl	%r12d, %ecx
	movl	%r13d, %edx
	.loc	1 776 1 is_stmt 1       # fieldsolver/derivatives.cpp:776:1
	cmpl	$13, %edi
	je	.LBB0_42
.Ltmp50:
# %bb.38:                               # %L.B1924
	#DEBUG_VALUE: sysBoundaryLayer <- [DW_OP_constu 144, DW_OP_minus] [$rbp+0]
	#DEBUG_VALUE: sysBoundaryFlag <- [DW_OP_constu 156, DW_OP_minus] [$rbp+0]
	#DEBUG_VALUE: dMoments <- [DW_OP_constu 200, DW_OP_minus] [$rbp+0]
	#DEBUG_VALUE: dPerB <- [DW_OP_constu 168, DW_OP_minus] [$rbp+0]
	#DEBUG_VALUE: calculateDerivatives:perBGrid <- [DW_OP_constu 104, DW_OP_minus] [$rbp+0]
	#DEBUG_VALUE: calculateDerivatives:momentsGrid <- [DW_OP_constu 120, DW_OP_minus] [$rbp+0]
	#DEBUG_VALUE: calculateDerivatives:dMomentsGrid <- [DW_OP_plus_uconst 16] [$rbp+0]
	#DEBUG_VALUE: calculateDerivatives:technicalGrid <- [DW_OP_plus_uconst 24] [$rbp+0]
	#DEBUG_VALUE: calculateDerivatives:sysBoundaries <- [DW_OP_plus_uconst 32] [$rbp+0]
	#DEBUG_VALUE: calculateDerivatives:RKCase <- [DW_OP_plus_uconst 40] [$rbp+0]
	.loc	1 779 1                 # fieldsolver/derivatives.cpp:779:1
	movslq	%edi, %rcx
	movl	92(%r15,%rcx,4), %edi
	cmpl	$-2, %edi
	jne	.LBB0_40
.Ltmp51:
# %bb.39:
	#DEBUG_VALUE: sysBoundaryLayer <- [DW_OP_constu 144, DW_OP_minus] [$rbp+0]
	#DEBUG_VALUE: sysBoundaryFlag <- [DW_OP_constu 156, DW_OP_minus] [$rbp+0]
	#DEBUG_VALUE: dMoments <- [DW_OP_constu 200, DW_OP_minus] [$rbp+0]
	#DEBUG_VALUE: dPerB <- [DW_OP_constu 168, DW_OP_minus] [$rbp+0]
	#DEBUG_VALUE: calculateDerivatives:perBGrid <- [DW_OP_constu 104, DW_OP_minus] [$rbp+0]
	#DEBUG_VALUE: calculateDerivatives:momentsGrid <- [DW_OP_constu 120, DW_OP_minus] [$rbp+0]
	#DEBUG_VALUE: calculateDerivatives:dMomentsGrid <- [DW_OP_plus_uconst 16] [$rbp+0]
	#DEBUG_VALUE: calculateDerivatives:technicalGrid <- [DW_OP_plus_uconst 24] [$rbp+0]
	#DEBUG_VALUE: calculateDerivatives:sysBoundaries <- [DW_OP_plus_uconst 32] [$rbp+0]
	#DEBUG_VALUE: calculateDerivatives:RKCase <- [DW_OP_plus_uconst 40] [$rbp+0]
	.loc	1 0 1 is_stmt 0         # fieldsolver/derivatives.cpp:0:1
	xorl	%eax, %eax
	movq	%rax, -128(%rbp)        # 8-byte Spill
	jmp	.LBB0_47
.Ltmp52:
.LBB0_40:                               # %L..inline.78026
	#DEBUG_VALUE: sysBoundaryLayer <- [DW_OP_constu 144, DW_OP_minus] [$rbp+0]
	#DEBUG_VALUE: sysBoundaryFlag <- [DW_OP_constu 156, DW_OP_minus] [$rbp+0]
	#DEBUG_VALUE: dMoments <- [DW_OP_constu 200, DW_OP_minus] [$rbp+0]
	#DEBUG_VALUE: dPerB <- [DW_OP_constu 168, DW_OP_minus] [$rbp+0]
	#DEBUG_VALUE: calculateDerivatives:perBGrid <- [DW_OP_constu 104, DW_OP_minus] [$rbp+0]
	#DEBUG_VALUE: calculateDerivatives:momentsGrid <- [DW_OP_constu 120, DW_OP_minus] [$rbp+0]
	#DEBUG_VALUE: calculateDerivatives:dMomentsGrid <- [DW_OP_plus_uconst 16] [$rbp+0]
	#DEBUG_VALUE: calculateDerivatives:technicalGrid <- [DW_OP_plus_uconst 24] [$rbp+0]
	#DEBUG_VALUE: calculateDerivatives:sysBoundaries <- [DW_OP_plus_uconst 32] [$rbp+0]
	#DEBUG_VALUE: calculateDerivatives:RKCase <- [DW_OP_plus_uconst 40] [$rbp+0]
	movl	%r8d, %esi
	movl	%r12d, %ecx
	movq	-56(%rbp), %rax         # 8-byte Reload
	movl	%eax, %edx
	.loc	1 784 1 is_stmt 1       # fieldsolver/derivatives.cpp:784:1
	cmpl	56(%r15), %edi
	jne	.LBB0_42
.Ltmp53:
# %bb.41:                               # %L.B1926
	#DEBUG_VALUE: sysBoundaryLayer <- [DW_OP_constu 144, DW_OP_minus] [$rbp+0]
	#DEBUG_VALUE: sysBoundaryFlag <- [DW_OP_constu 156, DW_OP_minus] [$rbp+0]
	#DEBUG_VALUE: dMoments <- [DW_OP_constu 200, DW_OP_minus] [$rbp+0]
	#DEBUG_VALUE: dPerB <- [DW_OP_constu 168, DW_OP_minus] [$rbp+0]
	#DEBUG_VALUE: calculateDerivatives:perBGrid <- [DW_OP_constu 104, DW_OP_minus] [$rbp+0]
	#DEBUG_VALUE: calculateDerivatives:momentsGrid <- [DW_OP_constu 120, DW_OP_minus] [$rbp+0]
	#DEBUG_VALUE: calculateDerivatives:dMomentsGrid <- [DW_OP_plus_uconst 16] [$rbp+0]
	#DEBUG_VALUE: calculateDerivatives:technicalGrid <- [DW_OP_plus_uconst 24] [$rbp+0]
	#DEBUG_VALUE: calculateDerivatives:sysBoundaries <- [DW_OP_plus_uconst 32] [$rbp+0]
	#DEBUG_VALUE: calculateDerivatives:RKCase <- [DW_OP_plus_uconst 40] [$rbp+0]
	.loc	1 787 1                 # fieldsolver/derivatives.cpp:787:1
	imull	-176(%rbp), %r14d       # 4-byte Folded Reload
	addl	-56(%rbp), %r14d        # 4-byte Folded Reload
	movl	-92(%rbp), %ecx         # 4-byte Reload
	.loc	1 788 1                 # fieldsolver/derivatives.cpp:788:1
	imull	-88(%rbp), %ecx         # 4-byte Folded Reload
	addl	%r12d, %ecx
	movl	-112(%rbp), %esi        # 4-byte Reload
	.loc	1 789 1                 # fieldsolver/derivatives.cpp:789:1
	imull	-192(%rbp), %esi        # 4-byte Folded Reload
	addl	%r8d, %esi
	.loc	1 0 0 is_stmt 0         # fieldsolver/derivatives.cpp:0:0
	movl	%r14d, %edx
.Ltmp54:
.LBB0_42:                               # %L..inline.78009
	#DEBUG_VALUE: sysBoundaryLayer <- [DW_OP_constu 144, DW_OP_minus] [$rbp+0]
	#DEBUG_VALUE: sysBoundaryFlag <- [DW_OP_constu 156, DW_OP_minus] [$rbp+0]
	#DEBUG_VALUE: dMoments <- [DW_OP_constu 200, DW_OP_minus] [$rbp+0]
	#DEBUG_VALUE: dPerB <- [DW_OP_constu 168, DW_OP_minus] [$rbp+0]
	#DEBUG_VALUE: calculateDerivatives:perBGrid <- [DW_OP_constu 104, DW_OP_minus] [$rbp+0]
	#DEBUG_VALUE: calculateDerivatives:momentsGrid <- [DW_OP_constu 120, DW_OP_minus] [$rbp+0]
	#DEBUG_VALUE: calculateDerivatives:dMomentsGrid <- [DW_OP_plus_uconst 16] [$rbp+0]
	#DEBUG_VALUE: calculateDerivatives:technicalGrid <- [DW_OP_plus_uconst 24] [$rbp+0]
	#DEBUG_VALUE: calculateDerivatives:sysBoundaries <- [DW_OP_plus_uconst 32] [$rbp+0]
	#DEBUG_VALUE: calculateDerivatives:RKCase <- [DW_OP_plus_uconst 40] [$rbp+0]
	.loc	1 793 1 is_stmt 1       # fieldsolver/derivatives.cpp:793:1
	cmpl	$2, 260(%r15)
	jge	.LBB0_44
.Ltmp55:
# %bb.43:
	#DEBUG_VALUE: sysBoundaryLayer <- [DW_OP_constu 144, DW_OP_minus] [$rbp+0]
	#DEBUG_VALUE: sysBoundaryFlag <- [DW_OP_constu 156, DW_OP_minus] [$rbp+0]
	#DEBUG_VALUE: dMoments <- [DW_OP_constu 200, DW_OP_minus] [$rbp+0]
	#DEBUG_VALUE: dPerB <- [DW_OP_constu 168, DW_OP_minus] [$rbp+0]
	#DEBUG_VALUE: calculateDerivatives:perBGrid <- [DW_OP_constu 104, DW_OP_minus] [$rbp+0]
	#DEBUG_VALUE: calculateDerivatives:momentsGrid <- [DW_OP_constu 120, DW_OP_minus] [$rbp+0]
	#DEBUG_VALUE: calculateDerivatives:dMomentsGrid <- [DW_OP_plus_uconst 16] [$rbp+0]
	#DEBUG_VALUE: calculateDerivatives:technicalGrid <- [DW_OP_plus_uconst 24] [$rbp+0]
	#DEBUG_VALUE: calculateDerivatives:sysBoundaries <- [DW_OP_plus_uconst 32] [$rbp+0]
	#DEBUG_VALUE: calculateDerivatives:RKCase <- [DW_OP_plus_uconst 40] [$rbp+0]
	.loc	1 0 1 is_stmt 0         # fieldsolver/derivatives.cpp:0:1
	xorl	%eax, %eax
	.loc	1 793 1                 # fieldsolver/derivatives.cpp:793:1
	cmpl	$2, 256(%r15)
	jge	.LBB0_45
	jmp	.LBB0_46
.Ltmp56:
.LBB0_44:                               # %L.B1927
	#DEBUG_VALUE: sysBoundaryLayer <- [DW_OP_constu 144, DW_OP_minus] [$rbp+0]
	#DEBUG_VALUE: sysBoundaryFlag <- [DW_OP_constu 156, DW_OP_minus] [$rbp+0]
	#DEBUG_VALUE: dMoments <- [DW_OP_constu 200, DW_OP_minus] [$rbp+0]
	#DEBUG_VALUE: dPerB <- [DW_OP_constu 168, DW_OP_minus] [$rbp+0]
	#DEBUG_VALUE: calculateDerivatives:perBGrid <- [DW_OP_constu 104, DW_OP_minus] [$rbp+0]
	#DEBUG_VALUE: calculateDerivatives:momentsGrid <- [DW_OP_constu 120, DW_OP_minus] [$rbp+0]
	#DEBUG_VALUE: calculateDerivatives:dMomentsGrid <- [DW_OP_plus_uconst 16] [$rbp+0]
	#DEBUG_VALUE: calculateDerivatives:technicalGrid <- [DW_OP_plus_uconst 24] [$rbp+0]
	#DEBUG_VALUE: calculateDerivatives:sysBoundaries <- [DW_OP_plus_uconst 32] [$rbp+0]
	#DEBUG_VALUE: calculateDerivatives:RKCase <- [DW_OP_plus_uconst 40] [$rbp+0]
	addl	$2, %esi
	imull	280(%r15), %esi
	imull	276(%r15), %esi
	movslq	%esi, %rax
	cmpl	$2, 256(%r15)
	jl	.LBB0_46
.Ltmp57:
.LBB0_45:                               # %L.B1928
	#DEBUG_VALUE: sysBoundaryLayer <- [DW_OP_constu 144, DW_OP_minus] [$rbp+0]
	#DEBUG_VALUE: sysBoundaryFlag <- [DW_OP_constu 156, DW_OP_minus] [$rbp+0]
	#DEBUG_VALUE: dMoments <- [DW_OP_constu 200, DW_OP_minus] [$rbp+0]
	#DEBUG_VALUE: dPerB <- [DW_OP_constu 168, DW_OP_minus] [$rbp+0]
	#DEBUG_VALUE: calculateDerivatives:perBGrid <- [DW_OP_constu 104, DW_OP_minus] [$rbp+0]
	#DEBUG_VALUE: calculateDerivatives:momentsGrid <- [DW_OP_constu 120, DW_OP_minus] [$rbp+0]
	#DEBUG_VALUE: calculateDerivatives:dMomentsGrid <- [DW_OP_plus_uconst 16] [$rbp+0]
	#DEBUG_VALUE: calculateDerivatives:technicalGrid <- [DW_OP_plus_uconst 24] [$rbp+0]
	#DEBUG_VALUE: calculateDerivatives:sysBoundaries <- [DW_OP_plus_uconst 32] [$rbp+0]
	#DEBUG_VALUE: calculateDerivatives:RKCase <- [DW_OP_plus_uconst 40] [$rbp+0]
	addl	$2, %ecx
	imull	276(%r15), %ecx
	movslq	%ecx, %rcx
	addq	%rcx, %rax
.Ltmp58:
.LBB0_46:                               # %L..inline.78167
	#DEBUG_VALUE: sysBoundaryLayer <- [DW_OP_constu 144, DW_OP_minus] [$rbp+0]
	#DEBUG_VALUE: sysBoundaryFlag <- [DW_OP_constu 156, DW_OP_minus] [$rbp+0]
	#DEBUG_VALUE: dMoments <- [DW_OP_constu 200, DW_OP_minus] [$rbp+0]
	#DEBUG_VALUE: dPerB <- [DW_OP_constu 168, DW_OP_minus] [$rbp+0]
	#DEBUG_VALUE: calculateDerivatives:perBGrid <- [DW_OP_constu 104, DW_OP_minus] [$rbp+0]
	#DEBUG_VALUE: calculateDerivatives:momentsGrid <- [DW_OP_constu 120, DW_OP_minus] [$rbp+0]
	#DEBUG_VALUE: calculateDerivatives:dMomentsGrid <- [DW_OP_plus_uconst 16] [$rbp+0]
	#DEBUG_VALUE: calculateDerivatives:technicalGrid <- [DW_OP_plus_uconst 24] [$rbp+0]
	#DEBUG_VALUE: calculateDerivatives:sysBoundaries <- [DW_OP_plus_uconst 32] [$rbp+0]
	#DEBUG_VALUE: calculateDerivatives:RKCase <- [DW_OP_plus_uconst 40] [$rbp+0]
	movslq	%edx, %rcx
	addq	$2, %rcx
	xorl	%edx, %edx
	cmpl	$2, 252(%r15)
	cmovgeq	%rcx, %rdx
	addq	%rax, %rdx
	.loc	1 795 1 is_stmt 1       # fieldsolver/derivatives.cpp:795:1
	shlq	$6, %rdx
	addq	744(%r15), %rdx
	movq	%rdx, -128(%rbp)        # 8-byte Spill
.Ltmp59:
.LBB0_47:                               # %L..inline.78213
	#DEBUG_VALUE: sysBoundaryLayer <- [DW_OP_constu 144, DW_OP_minus] [$rbp+0]
	#DEBUG_VALUE: sysBoundaryFlag <- [DW_OP_constu 156, DW_OP_minus] [$rbp+0]
	#DEBUG_VALUE: dMoments <- [DW_OP_constu 200, DW_OP_minus] [$rbp+0]
	#DEBUG_VALUE: dPerB <- [DW_OP_constu 168, DW_OP_minus] [$rbp+0]
	#DEBUG_VALUE: calculateDerivatives:perBGrid <- [DW_OP_constu 104, DW_OP_minus] [$rbp+0]
	#DEBUG_VALUE: calculateDerivatives:momentsGrid <- [DW_OP_constu 120, DW_OP_minus] [$rbp+0]
	#DEBUG_VALUE: calculateDerivatives:dMomentsGrid <- [DW_OP_plus_uconst 16] [$rbp+0]
	#DEBUG_VALUE: calculateDerivatives:technicalGrid <- [DW_OP_plus_uconst 24] [$rbp+0]
	#DEBUG_VALUE: calculateDerivatives:sysBoundaries <- [DW_OP_plus_uconst 32] [$rbp+0]
	#DEBUG_VALUE: calculateDerivatives:RKCase <- [DW_OP_plus_uconst 40] [$rbp+0]
	#DEBUG_VALUE: sysBoundaries <- undef
	#DEBUG_VALUE: RKCase <- undef
	#DEBUG_VALUE: centMoments <- [DW_OP_constu 128, DW_OP_minus] [$rbp+0]
	.loc	1 707 1                 # fieldsolver/derivatives.cpp:707:1
	movl	264(%r10), %eax
	.loc	1 715 1                 # fieldsolver/derivatives.cpp:715:1
	movl	268(%r10), %edi
	movq	-56(%rbp), %rbx         # 8-byte Reload
	movl	%eax, -68(%rbp)         # 4-byte Spill
	.loc	1 707 1                 # fieldsolver/derivatives.cpp:707:1
	cmpl	%ebx, %eax
	movl	$-1, %r8d
	movl	$-1, %edx
	cmovgl	-108(%rbp), %edx        # 4-byte Folded Reload
	movl	%r11d, %eax
	cmovgl	-132(%rbp), %eax        # 4-byte Folded Reload
	.loc	1 711 1                 # fieldsolver/derivatives.cpp:711:1
	leal	-3(%rax), %esi
	testl	%r12d, %r12d
	cmovnsl	%eax, %esi
	.loc	1 715 1                 # fieldsolver/derivatives.cpp:715:1
	leal	3(%rsi), %ecx
	movl	%edi, -152(%rbp)        # 4-byte Spill
	cmpl	%r12d, %edi
	movl	$-1, %r14d
	cmovgl	-76(%rbp), %r14d        # 4-byte Folded Reload
	cmovgl	%esi, %ecx
	.loc	1 723 1                 # fieldsolver/derivatives.cpp:723:1
	movl	272(%r10), %r11d
	xorl	%r13d, %r13d
	movq	-64(%rbp), %rax         # 8-byte Reload
	cmpl	%eax, %r11d
	setle	%r13b
	cmovgl	-72(%rbp), %r8d         # 4-byte Folded Reload
	.loc	1 719 1                 # fieldsolver/derivatives.cpp:719:1
	addl	-96(%rbp), %r13d        # 4-byte Folded Reload
	.loc	1 723 1                 # fieldsolver/derivatives.cpp:723:1
	addl	%r13d, %ecx
	.loc	1 0 0 is_stmt 0         # fieldsolver/derivatives.cpp:0:0
	movl	%eax, %edi
	movl	%r12d, %eax
                                        # kill: def $ebx killed $ebx killed $rbx
	.loc	1 776 1 is_stmt 1       # fieldsolver/derivatives.cpp:776:1
	cmpl	$13, %ecx
	movl	-156(%rbp), %esi        # 4-byte Reload
	je	.LBB0_52
.Ltmp60:
# %bb.48:                               # %L.B1935
	#DEBUG_VALUE: centMoments <- [DW_OP_constu 128, DW_OP_minus] [$rbp+0]
	#DEBUG_VALUE: sysBoundaryLayer <- [DW_OP_constu 144, DW_OP_minus] [$rbp+0]
	#DEBUG_VALUE: sysBoundaryFlag <- [DW_OP_constu 156, DW_OP_minus] [$rbp+0]
	#DEBUG_VALUE: dMoments <- [DW_OP_constu 200, DW_OP_minus] [$rbp+0]
	#DEBUG_VALUE: dPerB <- [DW_OP_constu 168, DW_OP_minus] [$rbp+0]
	#DEBUG_VALUE: calculateDerivatives:perBGrid <- [DW_OP_constu 104, DW_OP_minus] [$rbp+0]
	#DEBUG_VALUE: calculateDerivatives:momentsGrid <- [DW_OP_constu 120, DW_OP_minus] [$rbp+0]
	#DEBUG_VALUE: calculateDerivatives:dMomentsGrid <- [DW_OP_plus_uconst 16] [$rbp+0]
	#DEBUG_VALUE: calculateDerivatives:technicalGrid <- [DW_OP_plus_uconst 24] [$rbp+0]
	#DEBUG_VALUE: calculateDerivatives:sysBoundaries <- [DW_OP_plus_uconst 32] [$rbp+0]
	#DEBUG_VALUE: calculateDerivatives:RKCase <- [DW_OP_plus_uconst 40] [$rbp+0]
	.loc	1 779 1                 # fieldsolver/derivatives.cpp:779:1
	movslq	%ecx, %rax
	movl	92(%r10,%rax,4), %ecx
	cmpl	$-2, %ecx
	jne	.LBB0_50
.Ltmp61:
# %bb.49:
	#DEBUG_VALUE: centMoments <- [DW_OP_constu 128, DW_OP_minus] [$rbp+0]
	#DEBUG_VALUE: sysBoundaryLayer <- [DW_OP_constu 144, DW_OP_minus] [$rbp+0]
	#DEBUG_VALUE: sysBoundaryFlag <- [DW_OP_constu 156, DW_OP_minus] [$rbp+0]
	#DEBUG_VALUE: dMoments <- [DW_OP_constu 200, DW_OP_minus] [$rbp+0]
	#DEBUG_VALUE: dPerB <- [DW_OP_constu 168, DW_OP_minus] [$rbp+0]
	#DEBUG_VALUE: calculateDerivatives:perBGrid <- [DW_OP_constu 104, DW_OP_minus] [$rbp+0]
	#DEBUG_VALUE: calculateDerivatives:momentsGrid <- [DW_OP_constu 120, DW_OP_minus] [$rbp+0]
	#DEBUG_VALUE: calculateDerivatives:dMomentsGrid <- [DW_OP_plus_uconst 16] [$rbp+0]
	#DEBUG_VALUE: calculateDerivatives:technicalGrid <- [DW_OP_plus_uconst 24] [$rbp+0]
	#DEBUG_VALUE: calculateDerivatives:sysBoundaries <- [DW_OP_plus_uconst 32] [$rbp+0]
	#DEBUG_VALUE: calculateDerivatives:RKCase <- [DW_OP_plus_uconst 40] [$rbp+0]
	.loc	1 0 1 is_stmt 0         # fieldsolver/derivatives.cpp:0:1
	xorl	%eax, %eax
	jmp	.LBB0_57
.Ltmp62:
.LBB0_50:                               # %L..inline.78293
	#DEBUG_VALUE: centMoments <- [DW_OP_constu 128, DW_OP_minus] [$rbp+0]
	#DEBUG_VALUE: sysBoundaryLayer <- [DW_OP_constu 144, DW_OP_minus] [$rbp+0]
	#DEBUG_VALUE: sysBoundaryFlag <- [DW_OP_constu 156, DW_OP_minus] [$rbp+0]
	#DEBUG_VALUE: dMoments <- [DW_OP_constu 200, DW_OP_minus] [$rbp+0]
	#DEBUG_VALUE: dPerB <- [DW_OP_constu 168, DW_OP_minus] [$rbp+0]
	#DEBUG_VALUE: calculateDerivatives:perBGrid <- [DW_OP_constu 104, DW_OP_minus] [$rbp+0]
	#DEBUG_VALUE: calculateDerivatives:momentsGrid <- [DW_OP_constu 120, DW_OP_minus] [$rbp+0]
	#DEBUG_VALUE: calculateDerivatives:dMomentsGrid <- [DW_OP_plus_uconst 16] [$rbp+0]
	#DEBUG_VALUE: calculateDerivatives:technicalGrid <- [DW_OP_plus_uconst 24] [$rbp+0]
	#DEBUG_VALUE: calculateDerivatives:sysBoundaries <- [DW_OP_plus_uconst 32] [$rbp+0]
	#DEBUG_VALUE: calculateDerivatives:RKCase <- [DW_OP_plus_uconst 40] [$rbp+0]
	movq	-64(%rbp), %rax         # 8-byte Reload
	movl	%eax, %edi
	movl	%r12d, %eax
	movq	-56(%rbp), %rbx         # 8-byte Reload
                                        # kill: def $ebx killed $ebx killed $rbx
	.loc	1 784 1 is_stmt 1       # fieldsolver/derivatives.cpp:784:1
	cmpl	56(%r10), %ecx
	jne	.LBB0_52
.Ltmp63:
# %bb.51:                               # %L.B1937
	#DEBUG_VALUE: centMoments <- [DW_OP_constu 128, DW_OP_minus] [$rbp+0]
	#DEBUG_VALUE: sysBoundaryLayer <- [DW_OP_constu 144, DW_OP_minus] [$rbp+0]
	#DEBUG_VALUE: sysBoundaryFlag <- [DW_OP_constu 156, DW_OP_minus] [$rbp+0]
	#DEBUG_VALUE: dMoments <- [DW_OP_constu 200, DW_OP_minus] [$rbp+0]
	#DEBUG_VALUE: dPerB <- [DW_OP_constu 168, DW_OP_minus] [$rbp+0]
	#DEBUG_VALUE: calculateDerivatives:perBGrid <- [DW_OP_constu 104, DW_OP_minus] [$rbp+0]
	#DEBUG_VALUE: calculateDerivatives:momentsGrid <- [DW_OP_constu 120, DW_OP_minus] [$rbp+0]
	#DEBUG_VALUE: calculateDerivatives:dMomentsGrid <- [DW_OP_plus_uconst 16] [$rbp+0]
	#DEBUG_VALUE: calculateDerivatives:technicalGrid <- [DW_OP_plus_uconst 24] [$rbp+0]
	#DEBUG_VALUE: calculateDerivatives:sysBoundaries <- [DW_OP_plus_uconst 32] [$rbp+0]
	#DEBUG_VALUE: calculateDerivatives:RKCase <- [DW_OP_plus_uconst 40] [$rbp+0]
	.loc	1 787 1                 # fieldsolver/derivatives.cpp:787:1
	imull	-68(%rbp), %edx         # 4-byte Folded Reload
	addl	-56(%rbp), %edx         # 4-byte Folded Reload
	.loc	1 788 1                 # fieldsolver/derivatives.cpp:788:1
	movl	%r14d, %eax
	imull	-152(%rbp), %eax        # 4-byte Folded Reload
	addl	%r12d, %eax
	.loc	1 789 1                 # fieldsolver/derivatives.cpp:789:1
	movl	%r8d, %edi
	imull	%r11d, %edi
	addl	-64(%rbp), %edi         # 4-byte Folded Reload
	.loc	1 0 0 is_stmt 0         # fieldsolver/derivatives.cpp:0:0
	movl	%edx, %ebx
.Ltmp64:
.LBB0_52:                               # %L..inline.78276
	#DEBUG_VALUE: centMoments <- [DW_OP_constu 128, DW_OP_minus] [$rbp+0]
	#DEBUG_VALUE: sysBoundaryLayer <- [DW_OP_constu 144, DW_OP_minus] [$rbp+0]
	#DEBUG_VALUE: sysBoundaryFlag <- [DW_OP_constu 156, DW_OP_minus] [$rbp+0]
	#DEBUG_VALUE: dMoments <- [DW_OP_constu 200, DW_OP_minus] [$rbp+0]
	#DEBUG_VALUE: dPerB <- [DW_OP_constu 168, DW_OP_minus] [$rbp+0]
	#DEBUG_VALUE: calculateDerivatives:perBGrid <- [DW_OP_constu 104, DW_OP_minus] [$rbp+0]
	#DEBUG_VALUE: calculateDerivatives:momentsGrid <- [DW_OP_constu 120, DW_OP_minus] [$rbp+0]
	#DEBUG_VALUE: calculateDerivatives:dMomentsGrid <- [DW_OP_plus_uconst 16] [$rbp+0]
	#DEBUG_VALUE: calculateDerivatives:technicalGrid <- [DW_OP_plus_uconst 24] [$rbp+0]
	#DEBUG_VALUE: calculateDerivatives:sysBoundaries <- [DW_OP_plus_uconst 32] [$rbp+0]
	#DEBUG_VALUE: calculateDerivatives:RKCase <- [DW_OP_plus_uconst 40] [$rbp+0]
	.loc	1 793 1 is_stmt 1       # fieldsolver/derivatives.cpp:793:1
	cmpl	$2, 260(%r10)
	jge	.LBB0_54
.Ltmp65:
# %bb.53:
	#DEBUG_VALUE: centMoments <- [DW_OP_constu 128, DW_OP_minus] [$rbp+0]
	#DEBUG_VALUE: sysBoundaryLayer <- [DW_OP_constu 144, DW_OP_minus] [$rbp+0]
	#DEBUG_VALUE: sysBoundaryFlag <- [DW_OP_constu 156, DW_OP_minus] [$rbp+0]
	#DEBUG_VALUE: dMoments <- [DW_OP_constu 200, DW_OP_minus] [$rbp+0]
	#DEBUG_VALUE: dPerB <- [DW_OP_constu 168, DW_OP_minus] [$rbp+0]
	#DEBUG_VALUE: calculateDerivatives:perBGrid <- [DW_OP_constu 104, DW_OP_minus] [$rbp+0]
	#DEBUG_VALUE: calculateDerivatives:momentsGrid <- [DW_OP_constu 120, DW_OP_minus] [$rbp+0]
	#DEBUG_VALUE: calculateDerivatives:dMomentsGrid <- [DW_OP_plus_uconst 16] [$rbp+0]
	#DEBUG_VALUE: calculateDerivatives:technicalGrid <- [DW_OP_plus_uconst 24] [$rbp+0]
	#DEBUG_VALUE: calculateDerivatives:sysBoundaries <- [DW_OP_plus_uconst 32] [$rbp+0]
	#DEBUG_VALUE: calculateDerivatives:RKCase <- [DW_OP_plus_uconst 40] [$rbp+0]
	.loc	1 0 1 is_stmt 0         # fieldsolver/derivatives.cpp:0:1
	xorl	%edx, %edx
	.loc	1 793 1                 # fieldsolver/derivatives.cpp:793:1
	cmpl	$2, 256(%r10)
	jge	.LBB0_55
	jmp	.LBB0_56
.Ltmp66:
.LBB0_54:                               # %L.B1938
	#DEBUG_VALUE: centMoments <- [DW_OP_constu 128, DW_OP_minus] [$rbp+0]
	#DEBUG_VALUE: sysBoundaryLayer <- [DW_OP_constu 144, DW_OP_minus] [$rbp+0]
	#DEBUG_VALUE: sysBoundaryFlag <- [DW_OP_constu 156, DW_OP_minus] [$rbp+0]
	#DEBUG_VALUE: dMoments <- [DW_OP_constu 200, DW_OP_minus] [$rbp+0]
	#DEBUG_VALUE: dPerB <- [DW_OP_constu 168, DW_OP_minus] [$rbp+0]
	#DEBUG_VALUE: calculateDerivatives:perBGrid <- [DW_OP_constu 104, DW_OP_minus] [$rbp+0]
	#DEBUG_VALUE: calculateDerivatives:momentsGrid <- [DW_OP_constu 120, DW_OP_minus] [$rbp+0]
	#DEBUG_VALUE: calculateDerivatives:dMomentsGrid <- [DW_OP_plus_uconst 16] [$rbp+0]
	#DEBUG_VALUE: calculateDerivatives:technicalGrid <- [DW_OP_plus_uconst 24] [$rbp+0]
	#DEBUG_VALUE: calculateDerivatives:sysBoundaries <- [DW_OP_plus_uconst 32] [$rbp+0]
	#DEBUG_VALUE: calculateDerivatives:RKCase <- [DW_OP_plus_uconst 40] [$rbp+0]
	addl	$2, %edi
	imull	280(%r10), %edi
	imull	276(%r10), %edi
	movslq	%edi, %rdx
	cmpl	$2, 256(%r10)
	jl	.LBB0_56
.Ltmp67:
.LBB0_55:                               # %L.B1939
	#DEBUG_VALUE: centMoments <- [DW_OP_constu 128, DW_OP_minus] [$rbp+0]
	#DEBUG_VALUE: sysBoundaryLayer <- [DW_OP_constu 144, DW_OP_minus] [$rbp+0]
	#DEBUG_VALUE: sysBoundaryFlag <- [DW_OP_constu 156, DW_OP_minus] [$rbp+0]
	#DEBUG_VALUE: dMoments <- [DW_OP_constu 200, DW_OP_minus] [$rbp+0]
	#DEBUG_VALUE: dPerB <- [DW_OP_constu 168, DW_OP_minus] [$rbp+0]
	#DEBUG_VALUE: calculateDerivatives:perBGrid <- [DW_OP_constu 104, DW_OP_minus] [$rbp+0]
	#DEBUG_VALUE: calculateDerivatives:momentsGrid <- [DW_OP_constu 120, DW_OP_minus] [$rbp+0]
	#DEBUG_VALUE: calculateDerivatives:dMomentsGrid <- [DW_OP_plus_uconst 16] [$rbp+0]
	#DEBUG_VALUE: calculateDerivatives:technicalGrid <- [DW_OP_plus_uconst 24] [$rbp+0]
	#DEBUG_VALUE: calculateDerivatives:sysBoundaries <- [DW_OP_plus_uconst 32] [$rbp+0]
	#DEBUG_VALUE: calculateDerivatives:RKCase <- [DW_OP_plus_uconst 40] [$rbp+0]
	addl	$2, %eax
	imull	276(%r10), %eax
	cltq
	addq	%rax, %rdx
.Ltmp68:
.LBB0_56:                               # %L..inline.78434
	#DEBUG_VALUE: centMoments <- [DW_OP_constu 128, DW_OP_minus] [$rbp+0]
	#DEBUG_VALUE: sysBoundaryLayer <- [DW_OP_constu 144, DW_OP_minus] [$rbp+0]
	#DEBUG_VALUE: sysBoundaryFlag <- [DW_OP_constu 156, DW_OP_minus] [$rbp+0]
	#DEBUG_VALUE: dMoments <- [DW_OP_constu 200, DW_OP_minus] [$rbp+0]
	#DEBUG_VALUE: dPerB <- [DW_OP_constu 168, DW_OP_minus] [$rbp+0]
	#DEBUG_VALUE: calculateDerivatives:perBGrid <- [DW_OP_constu 104, DW_OP_minus] [$rbp+0]
	#DEBUG_VALUE: calculateDerivatives:momentsGrid <- [DW_OP_constu 120, DW_OP_minus] [$rbp+0]
	#DEBUG_VALUE: calculateDerivatives:dMomentsGrid <- [DW_OP_plus_uconst 16] [$rbp+0]
	#DEBUG_VALUE: calculateDerivatives:technicalGrid <- [DW_OP_plus_uconst 24] [$rbp+0]
	#DEBUG_VALUE: calculateDerivatives:sysBoundaries <- [DW_OP_plus_uconst 32] [$rbp+0]
	#DEBUG_VALUE: calculateDerivatives:RKCase <- [DW_OP_plus_uconst 40] [$rbp+0]
	movslq	%ebx, %rax
	addq	$2, %rax
	xorl	%ecx, %ecx
	cmpl	$2, 252(%r10)
	cmovgeq	%rax, %rcx
	addq	%rdx, %rcx
	.loc	1 795 1 is_stmt 1       # fieldsolver/derivatives.cpp:795:1
	leaq	(%rcx,%rcx,2), %rax
	shlq	$3, %rax
	addq	744(%r10), %rax
.Ltmp69:
.LBB0_57:                               # %L..inline.78480
	#DEBUG_VALUE: centMoments <- [DW_OP_constu 128, DW_OP_minus] [$rbp+0]
	#DEBUG_VALUE: sysBoundaryLayer <- [DW_OP_constu 144, DW_OP_minus] [$rbp+0]
	#DEBUG_VALUE: sysBoundaryFlag <- [DW_OP_constu 156, DW_OP_minus] [$rbp+0]
	#DEBUG_VALUE: dMoments <- [DW_OP_constu 200, DW_OP_minus] [$rbp+0]
	#DEBUG_VALUE: dPerB <- [DW_OP_constu 168, DW_OP_minus] [$rbp+0]
	#DEBUG_VALUE: calculateDerivatives:perBGrid <- [DW_OP_constu 104, DW_OP_minus] [$rbp+0]
	#DEBUG_VALUE: calculateDerivatives:momentsGrid <- [DW_OP_constu 120, DW_OP_minus] [$rbp+0]
	#DEBUG_VALUE: calculateDerivatives:dMomentsGrid <- [DW_OP_plus_uconst 16] [$rbp+0]
	#DEBUG_VALUE: calculateDerivatives:technicalGrid <- [DW_OP_plus_uconst 24] [$rbp+0]
	#DEBUG_VALUE: calculateDerivatives:sysBoundaries <- [DW_OP_plus_uconst 32] [$rbp+0]
	#DEBUG_VALUE: calculateDerivatives:RKCase <- [DW_OP_plus_uconst 40] [$rbp+0]
	#DEBUG_VALUE: sysBoundaries <- undef
	#DEBUG_VALUE: RKCase <- undef
	#DEBUG_VALUE: centPerB <- $rax
	.loc	1 82 1                  # fieldsolver/derivatives.cpp:82:1
	cmpl	$1, %esi
	movl	-144(%rbp), %ecx        # 4-byte Reload
	je	.LBB0_60
.Ltmp70:
# %bb.58:                               # %L..inline.78480
	#DEBUG_VALUE: centPerB <- $rax
	#DEBUG_VALUE: centMoments <- [DW_OP_constu 128, DW_OP_minus] [$rbp+0]
	#DEBUG_VALUE: sysBoundaryLayer <- [DW_OP_constu 144, DW_OP_minus] [$rbp+0]
	#DEBUG_VALUE: sysBoundaryFlag <- [DW_OP_constu 156, DW_OP_minus] [$rbp+0]
	#DEBUG_VALUE: dMoments <- [DW_OP_constu 200, DW_OP_minus] [$rbp+0]
	#DEBUG_VALUE: dPerB <- [DW_OP_constu 168, DW_OP_minus] [$rbp+0]
	#DEBUG_VALUE: calculateDerivatives:perBGrid <- [DW_OP_constu 104, DW_OP_minus] [$rbp+0]
	#DEBUG_VALUE: calculateDerivatives:momentsGrid <- [DW_OP_constu 120, DW_OP_minus] [$rbp+0]
	#DEBUG_VALUE: calculateDerivatives:dMomentsGrid <- [DW_OP_plus_uconst 16] [$rbp+0]
	#DEBUG_VALUE: calculateDerivatives:technicalGrid <- [DW_OP_plus_uconst 24] [$rbp+0]
	#DEBUG_VALUE: calculateDerivatives:sysBoundaries <- [DW_OP_plus_uconst 32] [$rbp+0]
	#DEBUG_VALUE: calculateDerivatives:RKCase <- [DW_OP_plus_uconst 40] [$rbp+0]
	cmpl	$1, %ecx
	je	.LBB0_60
.Ltmp71:
# %bb.59:                               # %L.B0035
	#DEBUG_VALUE: centPerB <- $rax
	#DEBUG_VALUE: centMoments <- [DW_OP_constu 128, DW_OP_minus] [$rbp+0]
	#DEBUG_VALUE: sysBoundaryLayer <- [DW_OP_constu 144, DW_OP_minus] [$rbp+0]
	#DEBUG_VALUE: sysBoundaryFlag <- [DW_OP_constu 156, DW_OP_minus] [$rbp+0]
	#DEBUG_VALUE: dMoments <- [DW_OP_constu 200, DW_OP_minus] [$rbp+0]
	#DEBUG_VALUE: dPerB <- [DW_OP_constu 168, DW_OP_minus] [$rbp+0]
	#DEBUG_VALUE: calculateDerivatives:perBGrid <- [DW_OP_constu 104, DW_OP_minus] [$rbp+0]
	#DEBUG_VALUE: calculateDerivatives:momentsGrid <- [DW_OP_constu 120, DW_OP_minus] [$rbp+0]
	#DEBUG_VALUE: calculateDerivatives:dMomentsGrid <- [DW_OP_plus_uconst 16] [$rbp+0]
	#DEBUG_VALUE: calculateDerivatives:technicalGrid <- [DW_OP_plus_uconst 24] [$rbp+0]
	#DEBUG_VALUE: calculateDerivatives:sysBoundaries <- [DW_OP_plus_uconst 32] [$rbp+0]
	#DEBUG_VALUE: calculateDerivatives:RKCase <- [DW_OP_plus_uconst 40] [$rbp+0]
	.loc	1 0 1 is_stmt 0         # fieldsolver/derivatives.cpp:0:1
	movq	32(%rbp), %rdi
	movl	%esi, %r13d
.Ltmp72:
	.loc	1 126 1 is_stmt 1       # fieldsolver/derivatives.cpp:126:1
	callq	_ZNK11SysBoundary14getSysBoundaryEj
.Ltmp73:
	.loc	1 0 1 is_stmt 0         # fieldsolver/derivatives.cpp:0:1
	movq	40(%rbp), %rcx
	.loc	1 126 1                 # fieldsolver/derivatives.cpp:126:1
	movl	(%rcx), %ecx
	movl	%ecx, -296(%rbp)
	movl	$0, -292(%rbp)
	movq	(%rax), %r10
	leaq	-296(%rbp), %r11
	movq	%rax, %rdi
	movq	-232(%rbp), %rbx        # 8-byte Reload
	movq	%rbx, %rsi
	movq	16(%rbp), %rdx
	movq	-56(%rbp), %r15         # 8-byte Reload
	movl	%r15d, %ecx
	movl	%r12d, %r8d
	movq	-64(%rbp), %r14         # 8-byte Reload
	movl	%r14d, %r9d
	leaq	-292(%rbp), %rax
	pushq	%rax
	pushq	%r11
	callq	*80(%r10)
	addq	$16, %rsp
.Ltmp74:
	.loc	1 163 1 is_stmt 1       # fieldsolver/derivatives.cpp:163:1
	movq	32(%rbp), %rdi
	movl	%r13d, %esi
	callq	_ZNK11SysBoundary14getSysBoundaryEj
	movq	40(%rbp), %rcx
	movl	(%rcx), %ecx
	movl	%ecx, -288(%rbp)
	movl	$1, -284(%rbp)
	movq	(%rax), %r10
	leaq	-288(%rbp), %r11
	movq	%rax, %rdi
	movq	%rbx, %rsi
	movq	16(%rbp), %rdx
	movl	%r15d, %ecx
	movl	%r12d, %r8d
	movl	%r14d, %r9d
	leaq	-284(%rbp), %rax
	pushq	%rax
	pushq	%r11
	callq	*80(%r10)
	addq	$16, %rsp
.Ltmp75:
	.loc	1 199 1                 # fieldsolver/derivatives.cpp:199:1
	movq	32(%rbp), %rdi
	movl	%r13d, %esi
	callq	_ZNK11SysBoundary14getSysBoundaryEj
	movq	40(%rbp), %rcx
	movl	(%rcx), %ecx
	movl	%ecx, -280(%rbp)
	movl	$2, -276(%rbp)
	movq	(%rax), %r13
	leaq	-276(%rbp), %r10
	leaq	-280(%rbp), %r11
	movq	%rax, %rdi
	movq	%rbx, %rsi
	movq	16(%rbp), %rdx
	movl	-144(%rbp), %ebx        # 4-byte Reload
	movl	%r15d, %ecx
	movl	%r12d, %r8d
	movl	%r14d, %r9d
	pushq	%r10
	pushq	%r11
	callq	*80(%r13)
	movl	%ebx, %r11d
	movq	-104(%rbp), %r8         # 8-byte Reload
	addq	$16, %rsp
	movq	-168(%rbp), %r9         # 8-byte Reload
.Ltmp76:
	.loc	1 82 1                  # fieldsolver/derivatives.cpp:82:1
	cmpl	$1, %r11d
	.loc	1 203 1                 # fieldsolver/derivatives.cpp:203:1
	jne	.LBB0_259
	jmp	.LBB0_262
.Ltmp77:
.LBB0_60:                               # %L.B0001
	#DEBUG_VALUE: centPerB <- $rax
	#DEBUG_VALUE: centMoments <- [DW_OP_constu 128, DW_OP_minus] [$rbp+0]
	#DEBUG_VALUE: sysBoundaryLayer <- [DW_OP_constu 144, DW_OP_minus] [$rbp+0]
	#DEBUG_VALUE: sysBoundaryFlag <- [DW_OP_constu 156, DW_OP_minus] [$rbp+0]
	#DEBUG_VALUE: dMoments <- [DW_OP_constu 200, DW_OP_minus] [$rbp+0]
	#DEBUG_VALUE: dPerB <- [DW_OP_constu 168, DW_OP_minus] [$rbp+0]
	#DEBUG_VALUE: calculateDerivatives:perBGrid <- [DW_OP_constu 104, DW_OP_minus] [$rbp+0]
	#DEBUG_VALUE: calculateDerivatives:momentsGrid <- [DW_OP_constu 120, DW_OP_minus] [$rbp+0]
	#DEBUG_VALUE: calculateDerivatives:dMomentsGrid <- [DW_OP_plus_uconst 16] [$rbp+0]
	#DEBUG_VALUE: calculateDerivatives:technicalGrid <- [DW_OP_plus_uconst 24] [$rbp+0]
	#DEBUG_VALUE: calculateDerivatives:sysBoundaries <- [DW_OP_plus_uconst 32] [$rbp+0]
	#DEBUG_VALUE: calculateDerivatives:RKCase <- [DW_OP_plus_uconst 40] [$rbp+0]
	.loc	1 0 1 is_stmt 0         # fieldsolver/derivatives.cpp:0:1
	movl	%r11d, -236(%rbp)       # 4-byte Spill
	movq	%rax, -224(%rbp)        # 8-byte Spill
.Ltmp78:
	#DEBUG_VALUE: centPerB <- [DW_OP_constu 224, DW_OP_minus] [$rbp+0]
	.loc	1 702 1 is_stmt 1       # fieldsolver/derivatives.cpp:702:1
	xorl	%eax, %eax
	movq	-56(%rbp), %rcx         # 8-byte Reload
	.loc	1 84 1                  # fieldsolver/derivatives.cpp:84:1
	movl	%ecx, %r10d
	decl	%r10d
	.loc	1 702 1                 # fieldsolver/derivatives.cpp:702:1
	setns	%al
	movl	%r10d, %ecx
	shrl	$31, %ecx
	leal	(%rax,%rax,8), %esi
	addl	$4, %esi
	.loc	1 707 1                 # fieldsolver/derivatives.cpp:707:1
	cmpl	-68(%rbp), %r10d        # 4-byte Folded Reload
	leal	13(%rax,%rax,8), %r11d
	movl	$-1, %edx
	movl	%ecx, -212(%rbp)        # 4-byte Spill
	cmovll	%ecx, %edx
	movl	%r11d, %eax
	movl	%esi, -248(%rbp)        # 4-byte Spill
	cmovll	%esi, %eax
	.loc	1 711 1                 # fieldsolver/derivatives.cpp:711:1
	leal	-3(%rax), %esi
	testl	%r12d, %r12d
	cmovnsl	%eax, %esi
	.loc	1 715 1                 # fieldsolver/derivatives.cpp:715:1
	leal	3(%rsi), %ecx
	cmpl	%r12d, -152(%rbp)       # 4-byte Folded Reload
	cmovgl	%esi, %ecx
	.loc	1 723 1                 # fieldsolver/derivatives.cpp:723:1
	addl	%r13d, %ecx
	movq	-64(%rbp), %rax         # 8-byte Reload
	.loc	1 0 0 is_stmt 0         # fieldsolver/derivatives.cpp:0:0
	movl	%eax, %edi
	movl	%r12d, %eax
	movl	%r10d, %ebx
	.loc	1 776 1 is_stmt 1       # fieldsolver/derivatives.cpp:776:1
	cmpl	$13, %ecx
	je	.LBB0_65
.Ltmp79:
# %bb.61:                               # %L.B1947
	#DEBUG_VALUE: centPerB <- [DW_OP_constu 224, DW_OP_minus] [$rbp+0]
	#DEBUG_VALUE: centMoments <- [DW_OP_constu 128, DW_OP_minus] [$rbp+0]
	#DEBUG_VALUE: sysBoundaryLayer <- [DW_OP_constu 144, DW_OP_minus] [$rbp+0]
	#DEBUG_VALUE: sysBoundaryFlag <- [DW_OP_constu 156, DW_OP_minus] [$rbp+0]
	#DEBUG_VALUE: dMoments <- [DW_OP_constu 200, DW_OP_minus] [$rbp+0]
	#DEBUG_VALUE: dPerB <- [DW_OP_constu 168, DW_OP_minus] [$rbp+0]
	#DEBUG_VALUE: calculateDerivatives:perBGrid <- [DW_OP_constu 104, DW_OP_minus] [$rbp+0]
	#DEBUG_VALUE: calculateDerivatives:momentsGrid <- [DW_OP_constu 120, DW_OP_minus] [$rbp+0]
	#DEBUG_VALUE: calculateDerivatives:dMomentsGrid <- [DW_OP_plus_uconst 16] [$rbp+0]
	#DEBUG_VALUE: calculateDerivatives:technicalGrid <- [DW_OP_plus_uconst 24] [$rbp+0]
	#DEBUG_VALUE: calculateDerivatives:sysBoundaries <- [DW_OP_plus_uconst 32] [$rbp+0]
	#DEBUG_VALUE: calculateDerivatives:RKCase <- [DW_OP_plus_uconst 40] [$rbp+0]
	.loc	1 779 1                 # fieldsolver/derivatives.cpp:779:1
	movslq	%ecx, %rax
	movq	-104(%rbp), %rsi        # 8-byte Reload
	movl	92(%rsi,%rax,4), %ecx
	cmpl	$-2, %ecx
	jne	.LBB0_63
.Ltmp80:
# %bb.62:
	#DEBUG_VALUE: centPerB <- [DW_OP_constu 224, DW_OP_minus] [$rbp+0]
	#DEBUG_VALUE: centMoments <- [DW_OP_constu 128, DW_OP_minus] [$rbp+0]
	#DEBUG_VALUE: sysBoundaryLayer <- [DW_OP_constu 144, DW_OP_minus] [$rbp+0]
	#DEBUG_VALUE: sysBoundaryFlag <- [DW_OP_constu 156, DW_OP_minus] [$rbp+0]
	#DEBUG_VALUE: dMoments <- [DW_OP_constu 200, DW_OP_minus] [$rbp+0]
	#DEBUG_VALUE: dPerB <- [DW_OP_constu 168, DW_OP_minus] [$rbp+0]
	#DEBUG_VALUE: calculateDerivatives:perBGrid <- [DW_OP_constu 104, DW_OP_minus] [$rbp+0]
	#DEBUG_VALUE: calculateDerivatives:momentsGrid <- [DW_OP_constu 120, DW_OP_minus] [$rbp+0]
	#DEBUG_VALUE: calculateDerivatives:dMomentsGrid <- [DW_OP_plus_uconst 16] [$rbp+0]
	#DEBUG_VALUE: calculateDerivatives:technicalGrid <- [DW_OP_plus_uconst 24] [$rbp+0]
	#DEBUG_VALUE: calculateDerivatives:sysBoundaries <- [DW_OP_plus_uconst 32] [$rbp+0]
	#DEBUG_VALUE: calculateDerivatives:RKCase <- [DW_OP_plus_uconst 40] [$rbp+0]
	.loc	1 0 1 is_stmt 0         # fieldsolver/derivatives.cpp:0:1
	xorl	%eax, %eax
	jmp	.LBB0_70
.Ltmp81:
.LBB0_63:                               # %L..inline.78560
	#DEBUG_VALUE: centPerB <- [DW_OP_constu 224, DW_OP_minus] [$rbp+0]
	#DEBUG_VALUE: centMoments <- [DW_OP_constu 128, DW_OP_minus] [$rbp+0]
	#DEBUG_VALUE: sysBoundaryLayer <- [DW_OP_constu 144, DW_OP_minus] [$rbp+0]
	#DEBUG_VALUE: sysBoundaryFlag <- [DW_OP_constu 156, DW_OP_minus] [$rbp+0]
	#DEBUG_VALUE: dMoments <- [DW_OP_constu 200, DW_OP_minus] [$rbp+0]
	#DEBUG_VALUE: dPerB <- [DW_OP_constu 168, DW_OP_minus] [$rbp+0]
	#DEBUG_VALUE: calculateDerivatives:perBGrid <- [DW_OP_constu 104, DW_OP_minus] [$rbp+0]
	#DEBUG_VALUE: calculateDerivatives:momentsGrid <- [DW_OP_constu 120, DW_OP_minus] [$rbp+0]
	#DEBUG_VALUE: calculateDerivatives:dMomentsGrid <- [DW_OP_plus_uconst 16] [$rbp+0]
	#DEBUG_VALUE: calculateDerivatives:technicalGrid <- [DW_OP_plus_uconst 24] [$rbp+0]
	#DEBUG_VALUE: calculateDerivatives:sysBoundaries <- [DW_OP_plus_uconst 32] [$rbp+0]
	#DEBUG_VALUE: calculateDerivatives:RKCase <- [DW_OP_plus_uconst 40] [$rbp+0]
	movq	-64(%rbp), %rax         # 8-byte Reload
	movl	%eax, %edi
	movl	%r12d, %eax
	movl	%r10d, %ebx
	.loc	1 784 1 is_stmt 1       # fieldsolver/derivatives.cpp:784:1
	cmpl	56(%rsi), %ecx
	jne	.LBB0_65
.Ltmp82:
# %bb.64:                               # %L.B1949
	#DEBUG_VALUE: centPerB <- [DW_OP_constu 224, DW_OP_minus] [$rbp+0]
	#DEBUG_VALUE: centMoments <- [DW_OP_constu 128, DW_OP_minus] [$rbp+0]
	#DEBUG_VALUE: sysBoundaryLayer <- [DW_OP_constu 144, DW_OP_minus] [$rbp+0]
	#DEBUG_VALUE: sysBoundaryFlag <- [DW_OP_constu 156, DW_OP_minus] [$rbp+0]
	#DEBUG_VALUE: dMoments <- [DW_OP_constu 200, DW_OP_minus] [$rbp+0]
	#DEBUG_VALUE: dPerB <- [DW_OP_constu 168, DW_OP_minus] [$rbp+0]
	#DEBUG_VALUE: calculateDerivatives:perBGrid <- [DW_OP_constu 104, DW_OP_minus] [$rbp+0]
	#DEBUG_VALUE: calculateDerivatives:momentsGrid <- [DW_OP_constu 120, DW_OP_minus] [$rbp+0]
	#DEBUG_VALUE: calculateDerivatives:dMomentsGrid <- [DW_OP_plus_uconst 16] [$rbp+0]
	#DEBUG_VALUE: calculateDerivatives:technicalGrid <- [DW_OP_plus_uconst 24] [$rbp+0]
	#DEBUG_VALUE: calculateDerivatives:sysBoundaries <- [DW_OP_plus_uconst 32] [$rbp+0]
	#DEBUG_VALUE: calculateDerivatives:RKCase <- [DW_OP_plus_uconst 40] [$rbp+0]
	.loc	1 787 1                 # fieldsolver/derivatives.cpp:787:1
	imull	-68(%rbp), %edx         # 4-byte Folded Reload
	addl	%r10d, %edx
	.loc	1 788 1                 # fieldsolver/derivatives.cpp:788:1
	movl	%r14d, %eax
	imull	-152(%rbp), %eax        # 4-byte Folded Reload
	addl	%r12d, %eax
	.loc	1 789 1                 # fieldsolver/derivatives.cpp:789:1
	movl	%r8d, %edi
	imull	-236(%rbp), %edi        # 4-byte Folded Reload
	addl	-64(%rbp), %edi         # 4-byte Folded Reload
	.loc	1 0 0 is_stmt 0         # fieldsolver/derivatives.cpp:0:0
	movl	%edx, %ebx
.Ltmp83:
.LBB0_65:                               # %L..inline.78543
	#DEBUG_VALUE: centPerB <- [DW_OP_constu 224, DW_OP_minus] [$rbp+0]
	#DEBUG_VALUE: centMoments <- [DW_OP_constu 128, DW_OP_minus] [$rbp+0]
	#DEBUG_VALUE: sysBoundaryLayer <- [DW_OP_constu 144, DW_OP_minus] [$rbp+0]
	#DEBUG_VALUE: sysBoundaryFlag <- [DW_OP_constu 156, DW_OP_minus] [$rbp+0]
	#DEBUG_VALUE: dMoments <- [DW_OP_constu 200, DW_OP_minus] [$rbp+0]
	#DEBUG_VALUE: dPerB <- [DW_OP_constu 168, DW_OP_minus] [$rbp+0]
	#DEBUG_VALUE: calculateDerivatives:perBGrid <- [DW_OP_constu 104, DW_OP_minus] [$rbp+0]
	#DEBUG_VALUE: calculateDerivatives:momentsGrid <- [DW_OP_constu 120, DW_OP_minus] [$rbp+0]
	#DEBUG_VALUE: calculateDerivatives:dMomentsGrid <- [DW_OP_plus_uconst 16] [$rbp+0]
	#DEBUG_VALUE: calculateDerivatives:technicalGrid <- [DW_OP_plus_uconst 24] [$rbp+0]
	#DEBUG_VALUE: calculateDerivatives:sysBoundaries <- [DW_OP_plus_uconst 32] [$rbp+0]
	#DEBUG_VALUE: calculateDerivatives:RKCase <- [DW_OP_plus_uconst 40] [$rbp+0]
	movq	-104(%rbp), %rsi        # 8-byte Reload
	.loc	1 793 1 is_stmt 1       # fieldsolver/derivatives.cpp:793:1
	cmpl	$2, 260(%rsi)
	jge	.LBB0_67
.Ltmp84:
# %bb.66:
	#DEBUG_VALUE: centPerB <- [DW_OP_constu 224, DW_OP_minus] [$rbp+0]
	#DEBUG_VALUE: centMoments <- [DW_OP_constu 128, DW_OP_minus] [$rbp+0]
	#DEBUG_VALUE: sysBoundaryLayer <- [DW_OP_constu 144, DW_OP_minus] [$rbp+0]
	#DEBUG_VALUE: sysBoundaryFlag <- [DW_OP_constu 156, DW_OP_minus] [$rbp+0]
	#DEBUG_VALUE: dMoments <- [DW_OP_constu 200, DW_OP_minus] [$rbp+0]
	#DEBUG_VALUE: dPerB <- [DW_OP_constu 168, DW_OP_minus] [$rbp+0]
	#DEBUG_VALUE: calculateDerivatives:perBGrid <- [DW_OP_constu 104, DW_OP_minus] [$rbp+0]
	#DEBUG_VALUE: calculateDerivatives:momentsGrid <- [DW_OP_constu 120, DW_OP_minus] [$rbp+0]
	#DEBUG_VALUE: calculateDerivatives:dMomentsGrid <- [DW_OP_plus_uconst 16] [$rbp+0]
	#DEBUG_VALUE: calculateDerivatives:technicalGrid <- [DW_OP_plus_uconst 24] [$rbp+0]
	#DEBUG_VALUE: calculateDerivatives:sysBoundaries <- [DW_OP_plus_uconst 32] [$rbp+0]
	#DEBUG_VALUE: calculateDerivatives:RKCase <- [DW_OP_plus_uconst 40] [$rbp+0]
	.loc	1 0 1 is_stmt 0         # fieldsolver/derivatives.cpp:0:1
	xorl	%edx, %edx
	.loc	1 793 1                 # fieldsolver/derivatives.cpp:793:1
	cmpl	$2, 256(%rsi)
	jge	.LBB0_68
	jmp	.LBB0_69
.Ltmp85:
.LBB0_67:                               # %L.B1950
	#DEBUG_VALUE: centPerB <- [DW_OP_constu 224, DW_OP_minus] [$rbp+0]
	#DEBUG_VALUE: centMoments <- [DW_OP_constu 128, DW_OP_minus] [$rbp+0]
	#DEBUG_VALUE: sysBoundaryLayer <- [DW_OP_constu 144, DW_OP_minus] [$rbp+0]
	#DEBUG_VALUE: sysBoundaryFlag <- [DW_OP_constu 156, DW_OP_minus] [$rbp+0]
	#DEBUG_VALUE: dMoments <- [DW_OP_constu 200, DW_OP_minus] [$rbp+0]
	#DEBUG_VALUE: dPerB <- [DW_OP_constu 168, DW_OP_minus] [$rbp+0]
	#DEBUG_VALUE: calculateDerivatives:perBGrid <- [DW_OP_constu 104, DW_OP_minus] [$rbp+0]
	#DEBUG_VALUE: calculateDerivatives:momentsGrid <- [DW_OP_constu 120, DW_OP_minus] [$rbp+0]
	#DEBUG_VALUE: calculateDerivatives:dMomentsGrid <- [DW_OP_plus_uconst 16] [$rbp+0]
	#DEBUG_VALUE: calculateDerivatives:technicalGrid <- [DW_OP_plus_uconst 24] [$rbp+0]
	#DEBUG_VALUE: calculateDerivatives:sysBoundaries <- [DW_OP_plus_uconst 32] [$rbp+0]
	#DEBUG_VALUE: calculateDerivatives:RKCase <- [DW_OP_plus_uconst 40] [$rbp+0]
	addl	$2, %edi
	imull	280(%rsi), %edi
	imull	276(%rsi), %edi
	movslq	%edi, %rdx
	cmpl	$2, 256(%rsi)
	jl	.LBB0_69
.Ltmp86:
.LBB0_68:                               # %L.B1951
	#DEBUG_VALUE: centPerB <- [DW_OP_constu 224, DW_OP_minus] [$rbp+0]
	#DEBUG_VALUE: centMoments <- [DW_OP_constu 128, DW_OP_minus] [$rbp+0]
	#DEBUG_VALUE: sysBoundaryLayer <- [DW_OP_constu 144, DW_OP_minus] [$rbp+0]
	#DEBUG_VALUE: sysBoundaryFlag <- [DW_OP_constu 156, DW_OP_minus] [$rbp+0]
	#DEBUG_VALUE: dMoments <- [DW_OP_constu 200, DW_OP_minus] [$rbp+0]
	#DEBUG_VALUE: dPerB <- [DW_OP_constu 168, DW_OP_minus] [$rbp+0]
	#DEBUG_VALUE: calculateDerivatives:perBGrid <- [DW_OP_constu 104, DW_OP_minus] [$rbp+0]
	#DEBUG_VALUE: calculateDerivatives:momentsGrid <- [DW_OP_constu 120, DW_OP_minus] [$rbp+0]
	#DEBUG_VALUE: calculateDerivatives:dMomentsGrid <- [DW_OP_plus_uconst 16] [$rbp+0]
	#DEBUG_VALUE: calculateDerivatives:technicalGrid <- [DW_OP_plus_uconst 24] [$rbp+0]
	#DEBUG_VALUE: calculateDerivatives:sysBoundaries <- [DW_OP_plus_uconst 32] [$rbp+0]
	#DEBUG_VALUE: calculateDerivatives:RKCase <- [DW_OP_plus_uconst 40] [$rbp+0]
	addl	$2, %eax
	imull	276(%rsi), %eax
	cltq
	addq	%rax, %rdx
.Ltmp87:
.LBB0_69:                               # %L..inline.78701
	#DEBUG_VALUE: centPerB <- [DW_OP_constu 224, DW_OP_minus] [$rbp+0]
	#DEBUG_VALUE: centMoments <- [DW_OP_constu 128, DW_OP_minus] [$rbp+0]
	#DEBUG_VALUE: sysBoundaryLayer <- [DW_OP_constu 144, DW_OP_minus] [$rbp+0]
	#DEBUG_VALUE: sysBoundaryFlag <- [DW_OP_constu 156, DW_OP_minus] [$rbp+0]
	#DEBUG_VALUE: dMoments <- [DW_OP_constu 200, DW_OP_minus] [$rbp+0]
	#DEBUG_VALUE: dPerB <- [DW_OP_constu 168, DW_OP_minus] [$rbp+0]
	#DEBUG_VALUE: calculateDerivatives:perBGrid <- [DW_OP_constu 104, DW_OP_minus] [$rbp+0]
	#DEBUG_VALUE: calculateDerivatives:momentsGrid <- [DW_OP_constu 120, DW_OP_minus] [$rbp+0]
	#DEBUG_VALUE: calculateDerivatives:dMomentsGrid <- [DW_OP_plus_uconst 16] [$rbp+0]
	#DEBUG_VALUE: calculateDerivatives:technicalGrid <- [DW_OP_plus_uconst 24] [$rbp+0]
	#DEBUG_VALUE: calculateDerivatives:sysBoundaries <- [DW_OP_plus_uconst 32] [$rbp+0]
	#DEBUG_VALUE: calculateDerivatives:RKCase <- [DW_OP_plus_uconst 40] [$rbp+0]
	movslq	%ebx, %rax
	addq	$2, %rax
	xorl	%ecx, %ecx
	cmpl	$2, 252(%rsi)
	cmovgeq	%rax, %rcx
	addq	%rdx, %rcx
	.loc	1 795 1 is_stmt 1       # fieldsolver/derivatives.cpp:795:1
	leaq	(%rcx,%rcx,2), %rax
	shlq	$3, %rax
	addq	744(%rsi), %rax
.Ltmp88:
.LBB0_70:                               # %L..inline.78747
	#DEBUG_VALUE: centPerB <- [DW_OP_constu 224, DW_OP_minus] [$rbp+0]
	#DEBUG_VALUE: centMoments <- [DW_OP_constu 128, DW_OP_minus] [$rbp+0]
	#DEBUG_VALUE: sysBoundaryLayer <- [DW_OP_constu 144, DW_OP_minus] [$rbp+0]
	#DEBUG_VALUE: sysBoundaryFlag <- [DW_OP_constu 156, DW_OP_minus] [$rbp+0]
	#DEBUG_VALUE: dMoments <- [DW_OP_constu 200, DW_OP_minus] [$rbp+0]
	#DEBUG_VALUE: dPerB <- [DW_OP_constu 168, DW_OP_minus] [$rbp+0]
	#DEBUG_VALUE: calculateDerivatives:perBGrid <- [DW_OP_constu 104, DW_OP_minus] [$rbp+0]
	#DEBUG_VALUE: calculateDerivatives:momentsGrid <- [DW_OP_constu 120, DW_OP_minus] [$rbp+0]
	#DEBUG_VALUE: calculateDerivatives:dMomentsGrid <- [DW_OP_plus_uconst 16] [$rbp+0]
	#DEBUG_VALUE: calculateDerivatives:technicalGrid <- [DW_OP_plus_uconst 24] [$rbp+0]
	#DEBUG_VALUE: calculateDerivatives:sysBoundaries <- [DW_OP_plus_uconst 32] [$rbp+0]
	#DEBUG_VALUE: calculateDerivatives:RKCase <- [DW_OP_plus_uconst 40] [$rbp+0]
	.loc	1 0 1 is_stmt 0         # fieldsolver/derivatives.cpp:0:1
	movq	%rax, -208(%rbp)        # 8-byte Spill
.Ltmp89:
	#DEBUG_VALUE: leftPerB <- undef
	.loc	1 702 1 is_stmt 1       # fieldsolver/derivatives.cpp:702:1
	xorl	%eax, %eax
	movq	-56(%rbp), %rcx         # 8-byte Reload
	.loc	1 85 1                  # fieldsolver/derivatives.cpp:85:1
	movl	%ecx, %r12d
	incl	%r12d
	.loc	1 702 1                 # fieldsolver/derivatives.cpp:702:1
	setns	%al
	movl	%r12d, %ebx
	shrl	$31, %ebx
	leal	(%rax,%rax,8), %edx
	addl	$4, %edx
	.loc	1 707 1                 # fieldsolver/derivatives.cpp:707:1
	cmpl	-68(%rbp), %r12d        # 4-byte Folded Reload
	leal	13(%rax,%rax,8), %r15d
	movl	$-1, %eax
	cmovll	%ebx, %eax
	movl	%r15d, %ecx
	movl	%edx, -244(%rbp)        # 4-byte Spill
	cmovll	%edx, %ecx
	.loc	1 711 1                 # fieldsolver/derivatives.cpp:711:1
	leal	-3(%rcx), %edx
	movq	-48(%rbp), %rsi         # 8-byte Reload
	testl	%esi, %esi
	cmovnsl	%ecx, %edx
	.loc	1 715 1                 # fieldsolver/derivatives.cpp:715:1
	leal	3(%rdx), %ecx
	cmpl	%esi, -152(%rbp)        # 4-byte Folded Reload
	cmovgl	%edx, %ecx
	.loc	1 723 1                 # fieldsolver/derivatives.cpp:723:1
	addl	%ecx, %r13d
	movq	-64(%rbp), %rcx         # 8-byte Reload
                                        # kill: def $ecx killed $ecx killed $rcx
	.loc	1 0 0 is_stmt 0         # fieldsolver/derivatives.cpp:0:0
	movl	%esi, %edi
	movl	%r12d, %edx
	.loc	1 776 1 is_stmt 1       # fieldsolver/derivatives.cpp:776:1
	cmpl	$13, %r13d
	je	.LBB0_75
.Ltmp90:
# %bb.71:                               # %L.B1958
	#DEBUG_VALUE: centPerB <- [DW_OP_constu 224, DW_OP_minus] [$rbp+0]
	#DEBUG_VALUE: centMoments <- [DW_OP_constu 128, DW_OP_minus] [$rbp+0]
	#DEBUG_VALUE: sysBoundaryLayer <- [DW_OP_constu 144, DW_OP_minus] [$rbp+0]
	#DEBUG_VALUE: sysBoundaryFlag <- [DW_OP_constu 156, DW_OP_minus] [$rbp+0]
	#DEBUG_VALUE: dMoments <- [DW_OP_constu 200, DW_OP_minus] [$rbp+0]
	#DEBUG_VALUE: dPerB <- [DW_OP_constu 168, DW_OP_minus] [$rbp+0]
	#DEBUG_VALUE: calculateDerivatives:perBGrid <- [DW_OP_constu 104, DW_OP_minus] [$rbp+0]
	#DEBUG_VALUE: calculateDerivatives:momentsGrid <- [DW_OP_constu 120, DW_OP_minus] [$rbp+0]
	#DEBUG_VALUE: calculateDerivatives:dMomentsGrid <- [DW_OP_plus_uconst 16] [$rbp+0]
	#DEBUG_VALUE: calculateDerivatives:technicalGrid <- [DW_OP_plus_uconst 24] [$rbp+0]
	#DEBUG_VALUE: calculateDerivatives:sysBoundaries <- [DW_OP_plus_uconst 32] [$rbp+0]
	#DEBUG_VALUE: calculateDerivatives:RKCase <- [DW_OP_plus_uconst 40] [$rbp+0]
	.loc	1 0 1 is_stmt 0         # fieldsolver/derivatives.cpp:0:1
	movl	%r14d, -240(%rbp)       # 4-byte Spill
	movl	%r8d, %r14d
	movl	%ebx, %r8d
	.loc	1 779 1 is_stmt 1       # fieldsolver/derivatives.cpp:779:1
	movslq	%r13d, %rcx
	movq	-104(%rbp), %rbx        # 8-byte Reload
	movl	92(%rbx,%rcx,4), %esi
	cmpl	$-2, %esi
	jne	.LBB0_73
.Ltmp91:
# %bb.72:
	#DEBUG_VALUE: centPerB <- [DW_OP_constu 224, DW_OP_minus] [$rbp+0]
	#DEBUG_VALUE: centMoments <- [DW_OP_constu 128, DW_OP_minus] [$rbp+0]
	#DEBUG_VALUE: sysBoundaryLayer <- [DW_OP_constu 144, DW_OP_minus] [$rbp+0]
	#DEBUG_VALUE: sysBoundaryFlag <- [DW_OP_constu 156, DW_OP_minus] [$rbp+0]
	#DEBUG_VALUE: dMoments <- [DW_OP_constu 200, DW_OP_minus] [$rbp+0]
	#DEBUG_VALUE: dPerB <- [DW_OP_constu 168, DW_OP_minus] [$rbp+0]
	#DEBUG_VALUE: calculateDerivatives:perBGrid <- [DW_OP_constu 104, DW_OP_minus] [$rbp+0]
	#DEBUG_VALUE: calculateDerivatives:momentsGrid <- [DW_OP_constu 120, DW_OP_minus] [$rbp+0]
	#DEBUG_VALUE: calculateDerivatives:dMomentsGrid <- [DW_OP_plus_uconst 16] [$rbp+0]
	#DEBUG_VALUE: calculateDerivatives:technicalGrid <- [DW_OP_plus_uconst 24] [$rbp+0]
	#DEBUG_VALUE: calculateDerivatives:sysBoundaries <- [DW_OP_plus_uconst 32] [$rbp+0]
	#DEBUG_VALUE: calculateDerivatives:RKCase <- [DW_OP_plus_uconst 40] [$rbp+0]
	.loc	1 0 1 is_stmt 0         # fieldsolver/derivatives.cpp:0:1
	xorl	%r13d, %r13d
	movq	-64(%rbp), %rax         # 8-byte Reload
	movq	-120(%rbp), %r14        # 8-byte Reload
	movl	%r8d, %ebx
	movq	%rax, %r8
	jmp	.LBB0_81
.Ltmp92:
.LBB0_73:                               # %L..inline.78827
	#DEBUG_VALUE: centPerB <- [DW_OP_constu 224, DW_OP_minus] [$rbp+0]
	#DEBUG_VALUE: centMoments <- [DW_OP_constu 128, DW_OP_minus] [$rbp+0]
	#DEBUG_VALUE: sysBoundaryLayer <- [DW_OP_constu 144, DW_OP_minus] [$rbp+0]
	#DEBUG_VALUE: sysBoundaryFlag <- [DW_OP_constu 156, DW_OP_minus] [$rbp+0]
	#DEBUG_VALUE: dMoments <- [DW_OP_constu 200, DW_OP_minus] [$rbp+0]
	#DEBUG_VALUE: dPerB <- [DW_OP_constu 168, DW_OP_minus] [$rbp+0]
	#DEBUG_VALUE: calculateDerivatives:perBGrid <- [DW_OP_constu 104, DW_OP_minus] [$rbp+0]
	#DEBUG_VALUE: calculateDerivatives:momentsGrid <- [DW_OP_constu 120, DW_OP_minus] [$rbp+0]
	#DEBUG_VALUE: calculateDerivatives:dMomentsGrid <- [DW_OP_plus_uconst 16] [$rbp+0]
	#DEBUG_VALUE: calculateDerivatives:technicalGrid <- [DW_OP_plus_uconst 24] [$rbp+0]
	#DEBUG_VALUE: calculateDerivatives:sysBoundaries <- [DW_OP_plus_uconst 32] [$rbp+0]
	#DEBUG_VALUE: calculateDerivatives:RKCase <- [DW_OP_plus_uconst 40] [$rbp+0]
	movq	-64(%rbp), %rcx         # 8-byte Reload
                                        # kill: def $ecx killed $ecx killed $rcx
	movq	-48(%rbp), %rdx         # 8-byte Reload
	movl	%edx, %edi
	movl	%r12d, %edx
	.loc	1 784 1 is_stmt 1       # fieldsolver/derivatives.cpp:784:1
	cmpl	56(%rbx), %esi
	movl	%r8d, %ebx
	movl	-240(%rbp), %r8d        # 4-byte Reload
	jne	.LBB0_75
.Ltmp93:
# %bb.74:                               # %L.B1960
	#DEBUG_VALUE: centPerB <- [DW_OP_constu 224, DW_OP_minus] [$rbp+0]
	#DEBUG_VALUE: centMoments <- [DW_OP_constu 128, DW_OP_minus] [$rbp+0]
	#DEBUG_VALUE: sysBoundaryLayer <- [DW_OP_constu 144, DW_OP_minus] [$rbp+0]
	#DEBUG_VALUE: sysBoundaryFlag <- [DW_OP_constu 156, DW_OP_minus] [$rbp+0]
	#DEBUG_VALUE: dMoments <- [DW_OP_constu 200, DW_OP_minus] [$rbp+0]
	#DEBUG_VALUE: dPerB <- [DW_OP_constu 168, DW_OP_minus] [$rbp+0]
	#DEBUG_VALUE: calculateDerivatives:perBGrid <- [DW_OP_constu 104, DW_OP_minus] [$rbp+0]
	#DEBUG_VALUE: calculateDerivatives:momentsGrid <- [DW_OP_constu 120, DW_OP_minus] [$rbp+0]
	#DEBUG_VALUE: calculateDerivatives:dMomentsGrid <- [DW_OP_plus_uconst 16] [$rbp+0]
	#DEBUG_VALUE: calculateDerivatives:technicalGrid <- [DW_OP_plus_uconst 24] [$rbp+0]
	#DEBUG_VALUE: calculateDerivatives:sysBoundaries <- [DW_OP_plus_uconst 32] [$rbp+0]
	#DEBUG_VALUE: calculateDerivatives:RKCase <- [DW_OP_plus_uconst 40] [$rbp+0]
	.loc	1 787 1                 # fieldsolver/derivatives.cpp:787:1
	imull	-68(%rbp), %eax         # 4-byte Folded Reload
	addl	%r12d, %eax
	.loc	1 788 1                 # fieldsolver/derivatives.cpp:788:1
	imull	-152(%rbp), %r8d        # 4-byte Folded Reload
	addl	-48(%rbp), %r8d         # 4-byte Folded Reload
	.loc	1 789 1                 # fieldsolver/derivatives.cpp:789:1
	imull	-236(%rbp), %r14d       # 4-byte Folded Reload
	addl	-64(%rbp), %r14d        # 4-byte Folded Reload
	.loc	1 0 0 is_stmt 0         # fieldsolver/derivatives.cpp:0:0
	movl	%r14d, %ecx
	movl	%r8d, %edi
	movl	%eax, %edx
.Ltmp94:
.LBB0_75:                               # %L..inline.78810
	#DEBUG_VALUE: centPerB <- [DW_OP_constu 224, DW_OP_minus] [$rbp+0]
	#DEBUG_VALUE: centMoments <- [DW_OP_constu 128, DW_OP_minus] [$rbp+0]
	#DEBUG_VALUE: sysBoundaryLayer <- [DW_OP_constu 144, DW_OP_minus] [$rbp+0]
	#DEBUG_VALUE: sysBoundaryFlag <- [DW_OP_constu 156, DW_OP_minus] [$rbp+0]
	#DEBUG_VALUE: dMoments <- [DW_OP_constu 200, DW_OP_minus] [$rbp+0]
	#DEBUG_VALUE: dPerB <- [DW_OP_constu 168, DW_OP_minus] [$rbp+0]
	#DEBUG_VALUE: calculateDerivatives:perBGrid <- [DW_OP_constu 104, DW_OP_minus] [$rbp+0]
	#DEBUG_VALUE: calculateDerivatives:momentsGrid <- [DW_OP_constu 120, DW_OP_minus] [$rbp+0]
	#DEBUG_VALUE: calculateDerivatives:dMomentsGrid <- [DW_OP_plus_uconst 16] [$rbp+0]
	#DEBUG_VALUE: calculateDerivatives:technicalGrid <- [DW_OP_plus_uconst 24] [$rbp+0]
	#DEBUG_VALUE: calculateDerivatives:sysBoundaries <- [DW_OP_plus_uconst 32] [$rbp+0]
	#DEBUG_VALUE: calculateDerivatives:RKCase <- [DW_OP_plus_uconst 40] [$rbp+0]
	movq	-104(%rbp), %rsi        # 8-byte Reload
	.loc	1 793 1 is_stmt 1       # fieldsolver/derivatives.cpp:793:1
	cmpl	$2, 260(%rsi)
	jge	.LBB0_77
.Ltmp95:
# %bb.76:
	#DEBUG_VALUE: centPerB <- [DW_OP_constu 224, DW_OP_minus] [$rbp+0]
	#DEBUG_VALUE: centMoments <- [DW_OP_constu 128, DW_OP_minus] [$rbp+0]
	#DEBUG_VALUE: sysBoundaryLayer <- [DW_OP_constu 144, DW_OP_minus] [$rbp+0]
	#DEBUG_VALUE: sysBoundaryFlag <- [DW_OP_constu 156, DW_OP_minus] [$rbp+0]
	#DEBUG_VALUE: dMoments <- [DW_OP_constu 200, DW_OP_minus] [$rbp+0]
	#DEBUG_VALUE: dPerB <- [DW_OP_constu 168, DW_OP_minus] [$rbp+0]
	#DEBUG_VALUE: calculateDerivatives:perBGrid <- [DW_OP_constu 104, DW_OP_minus] [$rbp+0]
	#DEBUG_VALUE: calculateDerivatives:momentsGrid <- [DW_OP_constu 120, DW_OP_minus] [$rbp+0]
	#DEBUG_VALUE: calculateDerivatives:dMomentsGrid <- [DW_OP_plus_uconst 16] [$rbp+0]
	#DEBUG_VALUE: calculateDerivatives:technicalGrid <- [DW_OP_plus_uconst 24] [$rbp+0]
	#DEBUG_VALUE: calculateDerivatives:sysBoundaries <- [DW_OP_plus_uconst 32] [$rbp+0]
	#DEBUG_VALUE: calculateDerivatives:RKCase <- [DW_OP_plus_uconst 40] [$rbp+0]
	.loc	1 0 1 is_stmt 0         # fieldsolver/derivatives.cpp:0:1
	xorl	%eax, %eax
	jmp	.LBB0_78
.Ltmp96:
.LBB0_77:                               # %L.B1961
	#DEBUG_VALUE: centPerB <- [DW_OP_constu 224, DW_OP_minus] [$rbp+0]
	#DEBUG_VALUE: centMoments <- [DW_OP_constu 128, DW_OP_minus] [$rbp+0]
	#DEBUG_VALUE: sysBoundaryLayer <- [DW_OP_constu 144, DW_OP_minus] [$rbp+0]
	#DEBUG_VALUE: sysBoundaryFlag <- [DW_OP_constu 156, DW_OP_minus] [$rbp+0]
	#DEBUG_VALUE: dMoments <- [DW_OP_constu 200, DW_OP_minus] [$rbp+0]
	#DEBUG_VALUE: dPerB <- [DW_OP_constu 168, DW_OP_minus] [$rbp+0]
	#DEBUG_VALUE: calculateDerivatives:perBGrid <- [DW_OP_constu 104, DW_OP_minus] [$rbp+0]
	#DEBUG_VALUE: calculateDerivatives:momentsGrid <- [DW_OP_constu 120, DW_OP_minus] [$rbp+0]
	#DEBUG_VALUE: calculateDerivatives:dMomentsGrid <- [DW_OP_plus_uconst 16] [$rbp+0]
	#DEBUG_VALUE: calculateDerivatives:technicalGrid <- [DW_OP_plus_uconst 24] [$rbp+0]
	#DEBUG_VALUE: calculateDerivatives:sysBoundaries <- [DW_OP_plus_uconst 32] [$rbp+0]
	#DEBUG_VALUE: calculateDerivatives:RKCase <- [DW_OP_plus_uconst 40] [$rbp+0]
	.loc	1 793 1                 # fieldsolver/derivatives.cpp:793:1
	addl	$2, %ecx
	imull	280(%rsi), %ecx
	imull	276(%rsi), %ecx
	movslq	%ecx, %rax
.Ltmp97:
.LBB0_78:                               # %L..inline.78919
	#DEBUG_VALUE: centPerB <- [DW_OP_constu 224, DW_OP_minus] [$rbp+0]
	#DEBUG_VALUE: centMoments <- [DW_OP_constu 128, DW_OP_minus] [$rbp+0]
	#DEBUG_VALUE: sysBoundaryLayer <- [DW_OP_constu 144, DW_OP_minus] [$rbp+0]
	#DEBUG_VALUE: sysBoundaryFlag <- [DW_OP_constu 156, DW_OP_minus] [$rbp+0]
	#DEBUG_VALUE: dMoments <- [DW_OP_constu 200, DW_OP_minus] [$rbp+0]
	#DEBUG_VALUE: dPerB <- [DW_OP_constu 168, DW_OP_minus] [$rbp+0]
	#DEBUG_VALUE: calculateDerivatives:perBGrid <- [DW_OP_constu 104, DW_OP_minus] [$rbp+0]
	#DEBUG_VALUE: calculateDerivatives:momentsGrid <- [DW_OP_constu 120, DW_OP_minus] [$rbp+0]
	#DEBUG_VALUE: calculateDerivatives:dMomentsGrid <- [DW_OP_plus_uconst 16] [$rbp+0]
	#DEBUG_VALUE: calculateDerivatives:technicalGrid <- [DW_OP_plus_uconst 24] [$rbp+0]
	#DEBUG_VALUE: calculateDerivatives:sysBoundaries <- [DW_OP_plus_uconst 32] [$rbp+0]
	#DEBUG_VALUE: calculateDerivatives:RKCase <- [DW_OP_plus_uconst 40] [$rbp+0]
	.loc	1 0 1                   # fieldsolver/derivatives.cpp:0:1
	movq	-64(%rbp), %r8          # 8-byte Reload
	movq	-120(%rbp), %r14        # 8-byte Reload
	.loc	1 793 1                 # fieldsolver/derivatives.cpp:793:1
	cmpl	$2, 256(%rsi)
	jl	.LBB0_80
.Ltmp98:
# %bb.79:                               # %L.B1962
	#DEBUG_VALUE: centPerB <- [DW_OP_constu 224, DW_OP_minus] [$rbp+0]
	#DEBUG_VALUE: centMoments <- [DW_OP_constu 128, DW_OP_minus] [$rbp+0]
	#DEBUG_VALUE: sysBoundaryLayer <- [DW_OP_constu 144, DW_OP_minus] [$rbp+0]
	#DEBUG_VALUE: sysBoundaryFlag <- [DW_OP_constu 156, DW_OP_minus] [$rbp+0]
	#DEBUG_VALUE: dMoments <- [DW_OP_constu 200, DW_OP_minus] [$rbp+0]
	#DEBUG_VALUE: dPerB <- [DW_OP_constu 168, DW_OP_minus] [$rbp+0]
	#DEBUG_VALUE: calculateDerivatives:perBGrid <- [DW_OP_constu 104, DW_OP_minus] [$rbp+0]
	#DEBUG_VALUE: calculateDerivatives:momentsGrid <- [DW_OP_constu 120, DW_OP_minus] [$rbp+0]
	#DEBUG_VALUE: calculateDerivatives:dMomentsGrid <- [DW_OP_plus_uconst 16] [$rbp+0]
	#DEBUG_VALUE: calculateDerivatives:technicalGrid <- [DW_OP_plus_uconst 24] [$rbp+0]
	#DEBUG_VALUE: calculateDerivatives:sysBoundaries <- [DW_OP_plus_uconst 32] [$rbp+0]
	#DEBUG_VALUE: calculateDerivatives:RKCase <- [DW_OP_plus_uconst 40] [$rbp+0]
	addl	$2, %edi
	imull	276(%rsi), %edi
	movslq	%edi, %rcx
	addq	%rcx, %rax
.Ltmp99:
.LBB0_80:                               # %L..inline.78968
	#DEBUG_VALUE: centPerB <- [DW_OP_constu 224, DW_OP_minus] [$rbp+0]
	#DEBUG_VALUE: centMoments <- [DW_OP_constu 128, DW_OP_minus] [$rbp+0]
	#DEBUG_VALUE: sysBoundaryLayer <- [DW_OP_constu 144, DW_OP_minus] [$rbp+0]
	#DEBUG_VALUE: sysBoundaryFlag <- [DW_OP_constu 156, DW_OP_minus] [$rbp+0]
	#DEBUG_VALUE: dMoments <- [DW_OP_constu 200, DW_OP_minus] [$rbp+0]
	#DEBUG_VALUE: dPerB <- [DW_OP_constu 168, DW_OP_minus] [$rbp+0]
	#DEBUG_VALUE: calculateDerivatives:perBGrid <- [DW_OP_constu 104, DW_OP_minus] [$rbp+0]
	#DEBUG_VALUE: calculateDerivatives:momentsGrid <- [DW_OP_constu 120, DW_OP_minus] [$rbp+0]
	#DEBUG_VALUE: calculateDerivatives:dMomentsGrid <- [DW_OP_plus_uconst 16] [$rbp+0]
	#DEBUG_VALUE: calculateDerivatives:technicalGrid <- [DW_OP_plus_uconst 24] [$rbp+0]
	#DEBUG_VALUE: calculateDerivatives:sysBoundaries <- [DW_OP_plus_uconst 32] [$rbp+0]
	#DEBUG_VALUE: calculateDerivatives:RKCase <- [DW_OP_plus_uconst 40] [$rbp+0]
	movslq	%edx, %rcx
	addq	$2, %rcx
	xorl	%edx, %edx
	cmpl	$2, 252(%rsi)
	cmovgeq	%rcx, %rdx
	addq	%rax, %rdx
	.loc	1 795 1 is_stmt 1       # fieldsolver/derivatives.cpp:795:1
	leaq	(%rdx,%rdx,2), %r13
	shlq	$3, %r13
	addq	744(%rsi), %r13
.Ltmp100:
.LBB0_81:                               # %L..inline.79014
	#DEBUG_VALUE: centPerB <- [DW_OP_constu 224, DW_OP_minus] [$rbp+0]
	#DEBUG_VALUE: centMoments <- [DW_OP_constu 128, DW_OP_minus] [$rbp+0]
	#DEBUG_VALUE: sysBoundaryLayer <- [DW_OP_constu 144, DW_OP_minus] [$rbp+0]
	#DEBUG_VALUE: sysBoundaryFlag <- [DW_OP_constu 156, DW_OP_minus] [$rbp+0]
	#DEBUG_VALUE: dMoments <- [DW_OP_constu 200, DW_OP_minus] [$rbp+0]
	#DEBUG_VALUE: dPerB <- [DW_OP_constu 168, DW_OP_minus] [$rbp+0]
	#DEBUG_VALUE: calculateDerivatives:perBGrid <- [DW_OP_constu 104, DW_OP_minus] [$rbp+0]
	#DEBUG_VALUE: calculateDerivatives:momentsGrid <- [DW_OP_constu 120, DW_OP_minus] [$rbp+0]
	#DEBUG_VALUE: calculateDerivatives:dMomentsGrid <- [DW_OP_plus_uconst 16] [$rbp+0]
	#DEBUG_VALUE: calculateDerivatives:technicalGrid <- [DW_OP_plus_uconst 24] [$rbp+0]
	#DEBUG_VALUE: calculateDerivatives:sysBoundaries <- [DW_OP_plus_uconst 32] [$rbp+0]
	#DEBUG_VALUE: calculateDerivatives:RKCase <- [DW_OP_plus_uconst 40] [$rbp+0]
	#DEBUG_VALUE: rghtPerB <- undef
	.loc	1 707 1                 # fieldsolver/derivatives.cpp:707:1
	cmpl	-176(%rbp), %r10d       # 4-byte Folded Reload
	movl	$-1, %eax
	cmovll	-212(%rbp), %eax        # 4-byte Folded Reload
	cmovll	-248(%rbp), %r11d       # 4-byte Folded Reload
	.loc	1 711 1                 # fieldsolver/derivatives.cpp:711:1
	leal	-3(%r11), %edx
	movq	-48(%rbp), %rsi         # 8-byte Reload
	testl	%esi, %esi
	cmovnsl	%r11d, %edx
	.loc	1 715 1                 # fieldsolver/derivatives.cpp:715:1
	leal	3(%rdx), %ecx
	cmpl	%esi, -88(%rbp)         # 4-byte Folded Reload
	cmovgl	%edx, %ecx
	.loc	1 723 1                 # fieldsolver/derivatives.cpp:723:1
	addl	%r9d, %ecx
	.loc	1 776 1                 # fieldsolver/derivatives.cpp:776:1
	cmpl	$13, %ecx
	jne	.LBB0_83
.Ltmp101:
# %bb.82:
	#DEBUG_VALUE: centPerB <- [DW_OP_constu 224, DW_OP_minus] [$rbp+0]
	#DEBUG_VALUE: centMoments <- [DW_OP_constu 128, DW_OP_minus] [$rbp+0]
	#DEBUG_VALUE: sysBoundaryLayer <- [DW_OP_constu 144, DW_OP_minus] [$rbp+0]
	#DEBUG_VALUE: sysBoundaryFlag <- [DW_OP_constu 156, DW_OP_minus] [$rbp+0]
	#DEBUG_VALUE: dMoments <- [DW_OP_constu 200, DW_OP_minus] [$rbp+0]
	#DEBUG_VALUE: dPerB <- [DW_OP_constu 168, DW_OP_minus] [$rbp+0]
	#DEBUG_VALUE: calculateDerivatives:perBGrid <- [DW_OP_constu 104, DW_OP_minus] [$rbp+0]
	#DEBUG_VALUE: calculateDerivatives:momentsGrid <- [DW_OP_constu 120, DW_OP_minus] [$rbp+0]
	#DEBUG_VALUE: calculateDerivatives:dMomentsGrid <- [DW_OP_plus_uconst 16] [$rbp+0]
	#DEBUG_VALUE: calculateDerivatives:technicalGrid <- [DW_OP_plus_uconst 24] [$rbp+0]
	#DEBUG_VALUE: calculateDerivatives:sysBoundaries <- [DW_OP_plus_uconst 32] [$rbp+0]
	#DEBUG_VALUE: calculateDerivatives:RKCase <- [DW_OP_plus_uconst 40] [$rbp+0]
	.loc	1 0 0 is_stmt 0         # fieldsolver/derivatives.cpp:0:0
	movl	%r8d, %ecx
	movl	%esi, %eax
	movq	-104(%rbp), %r11        # 8-byte Reload
	.loc	1 793 1 is_stmt 1       # fieldsolver/derivatives.cpp:793:1
	cmpl	$2, 260(%r14)
	jge	.LBB0_87
.Ltmp102:
.LBB0_89:
	#DEBUG_VALUE: centPerB <- [DW_OP_constu 224, DW_OP_minus] [$rbp+0]
	#DEBUG_VALUE: centMoments <- [DW_OP_constu 128, DW_OP_minus] [$rbp+0]
	#DEBUG_VALUE: sysBoundaryLayer <- [DW_OP_constu 144, DW_OP_minus] [$rbp+0]
	#DEBUG_VALUE: sysBoundaryFlag <- [DW_OP_constu 156, DW_OP_minus] [$rbp+0]
	#DEBUG_VALUE: dMoments <- [DW_OP_constu 200, DW_OP_minus] [$rbp+0]
	#DEBUG_VALUE: dPerB <- [DW_OP_constu 168, DW_OP_minus] [$rbp+0]
	#DEBUG_VALUE: calculateDerivatives:perBGrid <- [DW_OP_constu 104, DW_OP_minus] [$rbp+0]
	#DEBUG_VALUE: calculateDerivatives:momentsGrid <- [DW_OP_constu 120, DW_OP_minus] [$rbp+0]
	#DEBUG_VALUE: calculateDerivatives:dMomentsGrid <- [DW_OP_plus_uconst 16] [$rbp+0]
	#DEBUG_VALUE: calculateDerivatives:technicalGrid <- [DW_OP_plus_uconst 24] [$rbp+0]
	#DEBUG_VALUE: calculateDerivatives:sysBoundaries <- [DW_OP_plus_uconst 32] [$rbp+0]
	#DEBUG_VALUE: calculateDerivatives:RKCase <- [DW_OP_plus_uconst 40] [$rbp+0]
	.loc	1 0 1 is_stmt 0         # fieldsolver/derivatives.cpp:0:1
	xorl	%ecx, %ecx
	.loc	1 793 1                 # fieldsolver/derivatives.cpp:793:1
	cmpl	$2, 256(%r14)
	jl	.LBB0_91
.Ltmp103:
.LBB0_90:                               # %L.B1973
	#DEBUG_VALUE: centPerB <- [DW_OP_constu 224, DW_OP_minus] [$rbp+0]
	#DEBUG_VALUE: centMoments <- [DW_OP_constu 128, DW_OP_minus] [$rbp+0]
	#DEBUG_VALUE: sysBoundaryLayer <- [DW_OP_constu 144, DW_OP_minus] [$rbp+0]
	#DEBUG_VALUE: sysBoundaryFlag <- [DW_OP_constu 156, DW_OP_minus] [$rbp+0]
	#DEBUG_VALUE: dMoments <- [DW_OP_constu 200, DW_OP_minus] [$rbp+0]
	#DEBUG_VALUE: dPerB <- [DW_OP_constu 168, DW_OP_minus] [$rbp+0]
	#DEBUG_VALUE: calculateDerivatives:perBGrid <- [DW_OP_constu 104, DW_OP_minus] [$rbp+0]
	#DEBUG_VALUE: calculateDerivatives:momentsGrid <- [DW_OP_constu 120, DW_OP_minus] [$rbp+0]
	#DEBUG_VALUE: calculateDerivatives:dMomentsGrid <- [DW_OP_plus_uconst 16] [$rbp+0]
	#DEBUG_VALUE: calculateDerivatives:technicalGrid <- [DW_OP_plus_uconst 24] [$rbp+0]
	#DEBUG_VALUE: calculateDerivatives:sysBoundaries <- [DW_OP_plus_uconst 32] [$rbp+0]
	#DEBUG_VALUE: calculateDerivatives:RKCase <- [DW_OP_plus_uconst 40] [$rbp+0]
	addl	$2, %eax
	imull	276(%r14), %eax
	cltq
	addq	%rax, %rcx
.Ltmp104:
.LBB0_91:                               # %L..inline.79235
	#DEBUG_VALUE: centPerB <- [DW_OP_constu 224, DW_OP_minus] [$rbp+0]
	#DEBUG_VALUE: centMoments <- [DW_OP_constu 128, DW_OP_minus] [$rbp+0]
	#DEBUG_VALUE: sysBoundaryLayer <- [DW_OP_constu 144, DW_OP_minus] [$rbp+0]
	#DEBUG_VALUE: sysBoundaryFlag <- [DW_OP_constu 156, DW_OP_minus] [$rbp+0]
	#DEBUG_VALUE: dMoments <- [DW_OP_constu 200, DW_OP_minus] [$rbp+0]
	#DEBUG_VALUE: dPerB <- [DW_OP_constu 168, DW_OP_minus] [$rbp+0]
	#DEBUG_VALUE: calculateDerivatives:perBGrid <- [DW_OP_constu 104, DW_OP_minus] [$rbp+0]
	#DEBUG_VALUE: calculateDerivatives:momentsGrid <- [DW_OP_constu 120, DW_OP_minus] [$rbp+0]
	#DEBUG_VALUE: calculateDerivatives:dMomentsGrid <- [DW_OP_plus_uconst 16] [$rbp+0]
	#DEBUG_VALUE: calculateDerivatives:technicalGrid <- [DW_OP_plus_uconst 24] [$rbp+0]
	#DEBUG_VALUE: calculateDerivatives:sysBoundaries <- [DW_OP_plus_uconst 32] [$rbp+0]
	#DEBUG_VALUE: calculateDerivatives:RKCase <- [DW_OP_plus_uconst 40] [$rbp+0]
	movslq	%r10d, %rdx
	addq	$2, %rdx
	xorl	%eax, %eax
	cmpl	$2, 252(%r14)
	cmovgeq	%rdx, %rax
	addq	%rcx, %rax
	.loc	1 795 1 is_stmt 1       # fieldsolver/derivatives.cpp:795:1
	shlq	$6, %rax
	addq	744(%r14), %rax
	jmp	.LBB0_92
.Ltmp105:
.LBB0_83:                               # %L.B1969
	#DEBUG_VALUE: centPerB <- [DW_OP_constu 224, DW_OP_minus] [$rbp+0]
	#DEBUG_VALUE: centMoments <- [DW_OP_constu 128, DW_OP_minus] [$rbp+0]
	#DEBUG_VALUE: sysBoundaryLayer <- [DW_OP_constu 144, DW_OP_minus] [$rbp+0]
	#DEBUG_VALUE: sysBoundaryFlag <- [DW_OP_constu 156, DW_OP_minus] [$rbp+0]
	#DEBUG_VALUE: dMoments <- [DW_OP_constu 200, DW_OP_minus] [$rbp+0]
	#DEBUG_VALUE: dPerB <- [DW_OP_constu 168, DW_OP_minus] [$rbp+0]
	#DEBUG_VALUE: calculateDerivatives:perBGrid <- [DW_OP_constu 104, DW_OP_minus] [$rbp+0]
	#DEBUG_VALUE: calculateDerivatives:momentsGrid <- [DW_OP_constu 120, DW_OP_minus] [$rbp+0]
	#DEBUG_VALUE: calculateDerivatives:dMomentsGrid <- [DW_OP_plus_uconst 16] [$rbp+0]
	#DEBUG_VALUE: calculateDerivatives:technicalGrid <- [DW_OP_plus_uconst 24] [$rbp+0]
	#DEBUG_VALUE: calculateDerivatives:sysBoundaries <- [DW_OP_plus_uconst 32] [$rbp+0]
	#DEBUG_VALUE: calculateDerivatives:RKCase <- [DW_OP_plus_uconst 40] [$rbp+0]
	.loc	1 779 1                 # fieldsolver/derivatives.cpp:779:1
	movslq	%ecx, %rcx
	movl	92(%r14,%rcx,4), %ecx
	cmpl	$-2, %ecx
	movq	-104(%rbp), %r11        # 8-byte Reload
	jne	.LBB0_85
.Ltmp106:
# %bb.84:
	#DEBUG_VALUE: centPerB <- [DW_OP_constu 224, DW_OP_minus] [$rbp+0]
	#DEBUG_VALUE: centMoments <- [DW_OP_constu 128, DW_OP_minus] [$rbp+0]
	#DEBUG_VALUE: sysBoundaryLayer <- [DW_OP_constu 144, DW_OP_minus] [$rbp+0]
	#DEBUG_VALUE: sysBoundaryFlag <- [DW_OP_constu 156, DW_OP_minus] [$rbp+0]
	#DEBUG_VALUE: dMoments <- [DW_OP_constu 200, DW_OP_minus] [$rbp+0]
	#DEBUG_VALUE: dPerB <- [DW_OP_constu 168, DW_OP_minus] [$rbp+0]
	#DEBUG_VALUE: calculateDerivatives:perBGrid <- [DW_OP_constu 104, DW_OP_minus] [$rbp+0]
	#DEBUG_VALUE: calculateDerivatives:momentsGrid <- [DW_OP_constu 120, DW_OP_minus] [$rbp+0]
	#DEBUG_VALUE: calculateDerivatives:dMomentsGrid <- [DW_OP_plus_uconst 16] [$rbp+0]
	#DEBUG_VALUE: calculateDerivatives:technicalGrid <- [DW_OP_plus_uconst 24] [$rbp+0]
	#DEBUG_VALUE: calculateDerivatives:sysBoundaries <- [DW_OP_plus_uconst 32] [$rbp+0]
	#DEBUG_VALUE: calculateDerivatives:RKCase <- [DW_OP_plus_uconst 40] [$rbp+0]
	.loc	1 0 1 is_stmt 0         # fieldsolver/derivatives.cpp:0:1
	xorl	%eax, %eax
.Ltmp107:
.LBB0_92:                               # %L..inline.79281
	#DEBUG_VALUE: centPerB <- [DW_OP_constu 224, DW_OP_minus] [$rbp+0]
	#DEBUG_VALUE: centMoments <- [DW_OP_constu 128, DW_OP_minus] [$rbp+0]
	#DEBUG_VALUE: sysBoundaryLayer <- [DW_OP_constu 144, DW_OP_minus] [$rbp+0]
	#DEBUG_VALUE: sysBoundaryFlag <- [DW_OP_constu 156, DW_OP_minus] [$rbp+0]
	#DEBUG_VALUE: dMoments <- [DW_OP_constu 200, DW_OP_minus] [$rbp+0]
	#DEBUG_VALUE: dPerB <- [DW_OP_constu 168, DW_OP_minus] [$rbp+0]
	#DEBUG_VALUE: calculateDerivatives:perBGrid <- [DW_OP_constu 104, DW_OP_minus] [$rbp+0]
	#DEBUG_VALUE: calculateDerivatives:momentsGrid <- [DW_OP_constu 120, DW_OP_minus] [$rbp+0]
	#DEBUG_VALUE: calculateDerivatives:dMomentsGrid <- [DW_OP_plus_uconst 16] [$rbp+0]
	#DEBUG_VALUE: calculateDerivatives:technicalGrid <- [DW_OP_plus_uconst 24] [$rbp+0]
	#DEBUG_VALUE: calculateDerivatives:sysBoundaries <- [DW_OP_plus_uconst 32] [$rbp+0]
	#DEBUG_VALUE: calculateDerivatives:RKCase <- [DW_OP_plus_uconst 40] [$rbp+0]
	#DEBUG_VALUE: leftMoments <- undef
	.loc	1 707 1 is_stmt 1       # fieldsolver/derivatives.cpp:707:1
	cmpl	-176(%rbp), %r12d       # 4-byte Folded Reload
	movl	$-1, %ecx
	cmovll	%ebx, %ecx
	cmovll	-244(%rbp), %r15d       # 4-byte Folded Reload
	.loc	1 711 1                 # fieldsolver/derivatives.cpp:711:1
	leal	-3(%r15), %edx
	movq	-48(%rbp), %rbx         # 8-byte Reload
	testl	%ebx, %ebx
	cmovnsl	%r15d, %edx
	.loc	1 715 1                 # fieldsolver/derivatives.cpp:715:1
	leal	3(%rdx), %esi
	cmpl	%ebx, -88(%rbp)         # 4-byte Folded Reload
	cmovgl	%edx, %esi
	.loc	1 723 1                 # fieldsolver/derivatives.cpp:723:1
	addl	%esi, %r9d
	.loc	1 776 1                 # fieldsolver/derivatives.cpp:776:1
	cmpl	$13, %r9d
	movq	-200(%rbp), %rdi        # 8-byte Reload
	movq	-128(%rbp), %r10        # 8-byte Reload
	jne	.LBB0_95
.Ltmp108:
# %bb.93:
	#DEBUG_VALUE: centPerB <- [DW_OP_constu 224, DW_OP_minus] [$rbp+0]
	#DEBUG_VALUE: centMoments <- [DW_OP_constu 128, DW_OP_minus] [$rbp+0]
	#DEBUG_VALUE: sysBoundaryLayer <- [DW_OP_constu 144, DW_OP_minus] [$rbp+0]
	#DEBUG_VALUE: sysBoundaryFlag <- [DW_OP_constu 156, DW_OP_minus] [$rbp+0]
	#DEBUG_VALUE: dMoments <- [DW_OP_constu 200, DW_OP_minus] [$rbp+0]
	#DEBUG_VALUE: dPerB <- [DW_OP_constu 168, DW_OP_minus] [$rbp+0]
	#DEBUG_VALUE: calculateDerivatives:perBGrid <- [DW_OP_constu 104, DW_OP_minus] [$rbp+0]
	#DEBUG_VALUE: calculateDerivatives:momentsGrid <- [DW_OP_constu 120, DW_OP_minus] [$rbp+0]
	#DEBUG_VALUE: calculateDerivatives:dMomentsGrid <- [DW_OP_plus_uconst 16] [$rbp+0]
	#DEBUG_VALUE: calculateDerivatives:technicalGrid <- [DW_OP_plus_uconst 24] [$rbp+0]
	#DEBUG_VALUE: calculateDerivatives:sysBoundaries <- [DW_OP_plus_uconst 32] [$rbp+0]
	#DEBUG_VALUE: calculateDerivatives:RKCase <- [DW_OP_plus_uconst 40] [$rbp+0]
	.loc	1 0 0 is_stmt 0         # fieldsolver/derivatives.cpp:0:0
	movl	%r8d, %edx
	movl	%ebx, %ecx
	movq	-56(%rbp), %r15         # 8-byte Reload
	movq	-168(%rbp), %rbx        # 8-byte Reload
	movl	-144(%rbp), %r9d        # 4-byte Reload
	.loc	1 793 1 is_stmt 1       # fieldsolver/derivatives.cpp:793:1
	cmpl	$2, 260(%r14)
	jl	.LBB0_99
.Ltmp109:
.LBB0_94:                               # %L.B1983
	#DEBUG_VALUE: centPerB <- [DW_OP_constu 224, DW_OP_minus] [$rbp+0]
	#DEBUG_VALUE: centMoments <- [DW_OP_constu 128, DW_OP_minus] [$rbp+0]
	#DEBUG_VALUE: sysBoundaryLayer <- [DW_OP_constu 144, DW_OP_minus] [$rbp+0]
	#DEBUG_VALUE: sysBoundaryFlag <- [DW_OP_constu 156, DW_OP_minus] [$rbp+0]
	#DEBUG_VALUE: dMoments <- [DW_OP_constu 200, DW_OP_minus] [$rbp+0]
	#DEBUG_VALUE: dPerB <- [DW_OP_constu 168, DW_OP_minus] [$rbp+0]
	#DEBUG_VALUE: calculateDerivatives:perBGrid <- [DW_OP_constu 104, DW_OP_minus] [$rbp+0]
	#DEBUG_VALUE: calculateDerivatives:momentsGrid <- [DW_OP_constu 120, DW_OP_minus] [$rbp+0]
	#DEBUG_VALUE: calculateDerivatives:dMomentsGrid <- [DW_OP_plus_uconst 16] [$rbp+0]
	#DEBUG_VALUE: calculateDerivatives:technicalGrid <- [DW_OP_plus_uconst 24] [$rbp+0]
	#DEBUG_VALUE: calculateDerivatives:sysBoundaries <- [DW_OP_plus_uconst 32] [$rbp+0]
	#DEBUG_VALUE: calculateDerivatives:RKCase <- [DW_OP_plus_uconst 40] [$rbp+0]
	addl	$2, %edx
	imull	280(%r14), %edx
	imull	276(%r14), %edx
	movslq	%edx, %rdx
	cmpl	$2, 256(%r14)
	jge	.LBB0_100
	jmp	.LBB0_101
.Ltmp110:
.LBB0_95:                               # %L.B1980
	#DEBUG_VALUE: centPerB <- [DW_OP_constu 224, DW_OP_minus] [$rbp+0]
	#DEBUG_VALUE: centMoments <- [DW_OP_constu 128, DW_OP_minus] [$rbp+0]
	#DEBUG_VALUE: sysBoundaryLayer <- [DW_OP_constu 144, DW_OP_minus] [$rbp+0]
	#DEBUG_VALUE: sysBoundaryFlag <- [DW_OP_constu 156, DW_OP_minus] [$rbp+0]
	#DEBUG_VALUE: dMoments <- [DW_OP_constu 200, DW_OP_minus] [$rbp+0]
	#DEBUG_VALUE: dPerB <- [DW_OP_constu 168, DW_OP_minus] [$rbp+0]
	#DEBUG_VALUE: calculateDerivatives:perBGrid <- [DW_OP_constu 104, DW_OP_minus] [$rbp+0]
	#DEBUG_VALUE: calculateDerivatives:momentsGrid <- [DW_OP_constu 120, DW_OP_minus] [$rbp+0]
	#DEBUG_VALUE: calculateDerivatives:dMomentsGrid <- [DW_OP_plus_uconst 16] [$rbp+0]
	#DEBUG_VALUE: calculateDerivatives:technicalGrid <- [DW_OP_plus_uconst 24] [$rbp+0]
	#DEBUG_VALUE: calculateDerivatives:sysBoundaries <- [DW_OP_plus_uconst 32] [$rbp+0]
	#DEBUG_VALUE: calculateDerivatives:RKCase <- [DW_OP_plus_uconst 40] [$rbp+0]
	.loc	1 779 1                 # fieldsolver/derivatives.cpp:779:1
	movslq	%r9d, %rdx
	movl	92(%r14,%rdx,4), %edx
	.loc	1 784 1                 # fieldsolver/derivatives.cpp:784:1
	cmpl	56(%r14), %edx
	movq	-56(%rbp), %r15         # 8-byte Reload
	movl	-144(%rbp), %r9d        # 4-byte Reload
	jne	.LBB0_97
.Ltmp111:
# %bb.96:                               # %L.B1982
	#DEBUG_VALUE: centPerB <- [DW_OP_constu 224, DW_OP_minus] [$rbp+0]
	#DEBUG_VALUE: centMoments <- [DW_OP_constu 128, DW_OP_minus] [$rbp+0]
	#DEBUG_VALUE: sysBoundaryLayer <- [DW_OP_constu 144, DW_OP_minus] [$rbp+0]
	#DEBUG_VALUE: sysBoundaryFlag <- [DW_OP_constu 156, DW_OP_minus] [$rbp+0]
	#DEBUG_VALUE: dMoments <- [DW_OP_constu 200, DW_OP_minus] [$rbp+0]
	#DEBUG_VALUE: dPerB <- [DW_OP_constu 168, DW_OP_minus] [$rbp+0]
	#DEBUG_VALUE: calculateDerivatives:perBGrid <- [DW_OP_constu 104, DW_OP_minus] [$rbp+0]
	#DEBUG_VALUE: calculateDerivatives:momentsGrid <- [DW_OP_constu 120, DW_OP_minus] [$rbp+0]
	#DEBUG_VALUE: calculateDerivatives:dMomentsGrid <- [DW_OP_plus_uconst 16] [$rbp+0]
	#DEBUG_VALUE: calculateDerivatives:technicalGrid <- [DW_OP_plus_uconst 24] [$rbp+0]
	#DEBUG_VALUE: calculateDerivatives:sysBoundaries <- [DW_OP_plus_uconst 32] [$rbp+0]
	#DEBUG_VALUE: calculateDerivatives:RKCase <- [DW_OP_plus_uconst 40] [$rbp+0]
	.loc	1 787 1                 # fieldsolver/derivatives.cpp:787:1
	imull	-176(%rbp), %ecx        # 4-byte Folded Reload
	addl	%ecx, %r12d
	movl	-92(%rbp), %ecx         # 4-byte Reload
	.loc	1 788 1                 # fieldsolver/derivatives.cpp:788:1
	imull	-88(%rbp), %ecx         # 4-byte Folded Reload
	addl	-48(%rbp), %ecx         # 4-byte Folded Reload
	movl	-112(%rbp), %edx        # 4-byte Reload
	.loc	1 789 1                 # fieldsolver/derivatives.cpp:789:1
	imull	-192(%rbp), %edx        # 4-byte Folded Reload
	addl	%r8d, %edx
	jmp	.LBB0_98
.Ltmp112:
.LBB0_85:                               # %L..inline.79094
	#DEBUG_VALUE: centPerB <- [DW_OP_constu 224, DW_OP_minus] [$rbp+0]
	#DEBUG_VALUE: centMoments <- [DW_OP_constu 128, DW_OP_minus] [$rbp+0]
	#DEBUG_VALUE: sysBoundaryLayer <- [DW_OP_constu 144, DW_OP_minus] [$rbp+0]
	#DEBUG_VALUE: sysBoundaryFlag <- [DW_OP_constu 156, DW_OP_minus] [$rbp+0]
	#DEBUG_VALUE: dMoments <- [DW_OP_constu 200, DW_OP_minus] [$rbp+0]
	#DEBUG_VALUE: dPerB <- [DW_OP_constu 168, DW_OP_minus] [$rbp+0]
	#DEBUG_VALUE: calculateDerivatives:perBGrid <- [DW_OP_constu 104, DW_OP_minus] [$rbp+0]
	#DEBUG_VALUE: calculateDerivatives:momentsGrid <- [DW_OP_constu 120, DW_OP_minus] [$rbp+0]
	#DEBUG_VALUE: calculateDerivatives:dMomentsGrid <- [DW_OP_plus_uconst 16] [$rbp+0]
	#DEBUG_VALUE: calculateDerivatives:technicalGrid <- [DW_OP_plus_uconst 24] [$rbp+0]
	#DEBUG_VALUE: calculateDerivatives:sysBoundaries <- [DW_OP_plus_uconst 32] [$rbp+0]
	#DEBUG_VALUE: calculateDerivatives:RKCase <- [DW_OP_plus_uconst 40] [$rbp+0]
	.loc	1 784 1                 # fieldsolver/derivatives.cpp:784:1
	cmpl	56(%r14), %ecx
	jne	.LBB0_88
.Ltmp113:
# %bb.86:                               # %L.B1971
	#DEBUG_VALUE: centPerB <- [DW_OP_constu 224, DW_OP_minus] [$rbp+0]
	#DEBUG_VALUE: centMoments <- [DW_OP_constu 128, DW_OP_minus] [$rbp+0]
	#DEBUG_VALUE: sysBoundaryLayer <- [DW_OP_constu 144, DW_OP_minus] [$rbp+0]
	#DEBUG_VALUE: sysBoundaryFlag <- [DW_OP_constu 156, DW_OP_minus] [$rbp+0]
	#DEBUG_VALUE: dMoments <- [DW_OP_constu 200, DW_OP_minus] [$rbp+0]
	#DEBUG_VALUE: dPerB <- [DW_OP_constu 168, DW_OP_minus] [$rbp+0]
	#DEBUG_VALUE: calculateDerivatives:perBGrid <- [DW_OP_constu 104, DW_OP_minus] [$rbp+0]
	#DEBUG_VALUE: calculateDerivatives:momentsGrid <- [DW_OP_constu 120, DW_OP_minus] [$rbp+0]
	#DEBUG_VALUE: calculateDerivatives:dMomentsGrid <- [DW_OP_plus_uconst 16] [$rbp+0]
	#DEBUG_VALUE: calculateDerivatives:technicalGrid <- [DW_OP_plus_uconst 24] [$rbp+0]
	#DEBUG_VALUE: calculateDerivatives:sysBoundaries <- [DW_OP_plus_uconst 32] [$rbp+0]
	#DEBUG_VALUE: calculateDerivatives:RKCase <- [DW_OP_plus_uconst 40] [$rbp+0]
	.loc	1 787 1                 # fieldsolver/derivatives.cpp:787:1
	imull	-176(%rbp), %eax        # 4-byte Folded Reload
	addl	%eax, %r10d
	movl	-92(%rbp), %eax         # 4-byte Reload
	.loc	1 788 1                 # fieldsolver/derivatives.cpp:788:1
	imull	-88(%rbp), %eax         # 4-byte Folded Reload
	addl	-48(%rbp), %eax         # 4-byte Folded Reload
	movl	-112(%rbp), %ecx        # 4-byte Reload
	.loc	1 789 1                 # fieldsolver/derivatives.cpp:789:1
	imull	-192(%rbp), %ecx        # 4-byte Folded Reload
	addl	%r8d, %ecx
	.loc	1 793 1                 # fieldsolver/derivatives.cpp:793:1
	cmpl	$2, 260(%r14)
	jl	.LBB0_89
	jmp	.LBB0_87
.Ltmp114:
.LBB0_97:
	#DEBUG_VALUE: centPerB <- [DW_OP_constu 224, DW_OP_minus] [$rbp+0]
	#DEBUG_VALUE: centMoments <- [DW_OP_constu 128, DW_OP_minus] [$rbp+0]
	#DEBUG_VALUE: sysBoundaryLayer <- [DW_OP_constu 144, DW_OP_minus] [$rbp+0]
	#DEBUG_VALUE: sysBoundaryFlag <- [DW_OP_constu 156, DW_OP_minus] [$rbp+0]
	#DEBUG_VALUE: dMoments <- [DW_OP_constu 200, DW_OP_minus] [$rbp+0]
	#DEBUG_VALUE: dPerB <- [DW_OP_constu 168, DW_OP_minus] [$rbp+0]
	#DEBUG_VALUE: calculateDerivatives:perBGrid <- [DW_OP_constu 104, DW_OP_minus] [$rbp+0]
	#DEBUG_VALUE: calculateDerivatives:momentsGrid <- [DW_OP_constu 120, DW_OP_minus] [$rbp+0]
	#DEBUG_VALUE: calculateDerivatives:dMomentsGrid <- [DW_OP_plus_uconst 16] [$rbp+0]
	#DEBUG_VALUE: calculateDerivatives:technicalGrid <- [DW_OP_plus_uconst 24] [$rbp+0]
	#DEBUG_VALUE: calculateDerivatives:sysBoundaries <- [DW_OP_plus_uconst 32] [$rbp+0]
	#DEBUG_VALUE: calculateDerivatives:RKCase <- [DW_OP_plus_uconst 40] [$rbp+0]
	.loc	1 0 0 is_stmt 0         # fieldsolver/derivatives.cpp:0:0
	movl	%r8d, %edx
	movq	-48(%rbp), %rcx         # 8-byte Reload
                                        # kill: def $ecx killed $ecx killed $rcx
.Ltmp115:
.LBB0_98:                               # %L..inline.79344
	#DEBUG_VALUE: centPerB <- [DW_OP_constu 224, DW_OP_minus] [$rbp+0]
	#DEBUG_VALUE: centMoments <- [DW_OP_constu 128, DW_OP_minus] [$rbp+0]
	#DEBUG_VALUE: sysBoundaryLayer <- [DW_OP_constu 144, DW_OP_minus] [$rbp+0]
	#DEBUG_VALUE: sysBoundaryFlag <- [DW_OP_constu 156, DW_OP_minus] [$rbp+0]
	#DEBUG_VALUE: dMoments <- [DW_OP_constu 200, DW_OP_minus] [$rbp+0]
	#DEBUG_VALUE: dPerB <- [DW_OP_constu 168, DW_OP_minus] [$rbp+0]
	#DEBUG_VALUE: calculateDerivatives:perBGrid <- [DW_OP_constu 104, DW_OP_minus] [$rbp+0]
	#DEBUG_VALUE: calculateDerivatives:momentsGrid <- [DW_OP_constu 120, DW_OP_minus] [$rbp+0]
	#DEBUG_VALUE: calculateDerivatives:dMomentsGrid <- [DW_OP_plus_uconst 16] [$rbp+0]
	#DEBUG_VALUE: calculateDerivatives:technicalGrid <- [DW_OP_plus_uconst 24] [$rbp+0]
	#DEBUG_VALUE: calculateDerivatives:sysBoundaries <- [DW_OP_plus_uconst 32] [$rbp+0]
	#DEBUG_VALUE: calculateDerivatives:RKCase <- [DW_OP_plus_uconst 40] [$rbp+0]
	movq	-168(%rbp), %rbx        # 8-byte Reload
	.loc	1 793 1                 # fieldsolver/derivatives.cpp:793:1
	cmpl	$2, 260(%r14)
	jge	.LBB0_94
.Ltmp116:
.LBB0_99:
	#DEBUG_VALUE: centPerB <- [DW_OP_constu 224, DW_OP_minus] [$rbp+0]
	#DEBUG_VALUE: centMoments <- [DW_OP_constu 128, DW_OP_minus] [$rbp+0]
	#DEBUG_VALUE: sysBoundaryLayer <- [DW_OP_constu 144, DW_OP_minus] [$rbp+0]
	#DEBUG_VALUE: sysBoundaryFlag <- [DW_OP_constu 156, DW_OP_minus] [$rbp+0]
	#DEBUG_VALUE: dMoments <- [DW_OP_constu 200, DW_OP_minus] [$rbp+0]
	#DEBUG_VALUE: dPerB <- [DW_OP_constu 168, DW_OP_minus] [$rbp+0]
	#DEBUG_VALUE: calculateDerivatives:perBGrid <- [DW_OP_constu 104, DW_OP_minus] [$rbp+0]
	#DEBUG_VALUE: calculateDerivatives:momentsGrid <- [DW_OP_constu 120, DW_OP_minus] [$rbp+0]
	#DEBUG_VALUE: calculateDerivatives:dMomentsGrid <- [DW_OP_plus_uconst 16] [$rbp+0]
	#DEBUG_VALUE: calculateDerivatives:technicalGrid <- [DW_OP_plus_uconst 24] [$rbp+0]
	#DEBUG_VALUE: calculateDerivatives:sysBoundaries <- [DW_OP_plus_uconst 32] [$rbp+0]
	#DEBUG_VALUE: calculateDerivatives:RKCase <- [DW_OP_plus_uconst 40] [$rbp+0]
	.loc	1 0 1                   # fieldsolver/derivatives.cpp:0:1
	xorl	%edx, %edx
	.loc	1 793 1                 # fieldsolver/derivatives.cpp:793:1
	cmpl	$2, 256(%r14)
	jl	.LBB0_101
.Ltmp117:
.LBB0_100:                              # %L.B1984
	#DEBUG_VALUE: centPerB <- [DW_OP_constu 224, DW_OP_minus] [$rbp+0]
	#DEBUG_VALUE: centMoments <- [DW_OP_constu 128, DW_OP_minus] [$rbp+0]
	#DEBUG_VALUE: sysBoundaryLayer <- [DW_OP_constu 144, DW_OP_minus] [$rbp+0]
	#DEBUG_VALUE: sysBoundaryFlag <- [DW_OP_constu 156, DW_OP_minus] [$rbp+0]
	#DEBUG_VALUE: dMoments <- [DW_OP_constu 200, DW_OP_minus] [$rbp+0]
	#DEBUG_VALUE: dPerB <- [DW_OP_constu 168, DW_OP_minus] [$rbp+0]
	#DEBUG_VALUE: calculateDerivatives:perBGrid <- [DW_OP_constu 104, DW_OP_minus] [$rbp+0]
	#DEBUG_VALUE: calculateDerivatives:momentsGrid <- [DW_OP_constu 120, DW_OP_minus] [$rbp+0]
	#DEBUG_VALUE: calculateDerivatives:dMomentsGrid <- [DW_OP_plus_uconst 16] [$rbp+0]
	#DEBUG_VALUE: calculateDerivatives:technicalGrid <- [DW_OP_plus_uconst 24] [$rbp+0]
	#DEBUG_VALUE: calculateDerivatives:sysBoundaries <- [DW_OP_plus_uconst 32] [$rbp+0]
	#DEBUG_VALUE: calculateDerivatives:RKCase <- [DW_OP_plus_uconst 40] [$rbp+0]
	addl	$2, %ecx
	imull	276(%r14), %ecx
	movslq	%ecx, %rcx
	addq	%rcx, %rdx
.Ltmp118:
.LBB0_101:                              # %L..inline.79502
	#DEBUG_VALUE: centPerB <- [DW_OP_constu 224, DW_OP_minus] [$rbp+0]
	#DEBUG_VALUE: centMoments <- [DW_OP_constu 128, DW_OP_minus] [$rbp+0]
	#DEBUG_VALUE: sysBoundaryLayer <- [DW_OP_constu 144, DW_OP_minus] [$rbp+0]
	#DEBUG_VALUE: sysBoundaryFlag <- [DW_OP_constu 156, DW_OP_minus] [$rbp+0]
	#DEBUG_VALUE: dMoments <- [DW_OP_constu 200, DW_OP_minus] [$rbp+0]
	#DEBUG_VALUE: dPerB <- [DW_OP_constu 168, DW_OP_minus] [$rbp+0]
	#DEBUG_VALUE: calculateDerivatives:perBGrid <- [DW_OP_constu 104, DW_OP_minus] [$rbp+0]
	#DEBUG_VALUE: calculateDerivatives:momentsGrid <- [DW_OP_constu 120, DW_OP_minus] [$rbp+0]
	#DEBUG_VALUE: calculateDerivatives:dMomentsGrid <- [DW_OP_plus_uconst 16] [$rbp+0]
	#DEBUG_VALUE: calculateDerivatives:technicalGrid <- [DW_OP_plus_uconst 24] [$rbp+0]
	#DEBUG_VALUE: calculateDerivatives:sysBoundaries <- [DW_OP_plus_uconst 32] [$rbp+0]
	#DEBUG_VALUE: calculateDerivatives:RKCase <- [DW_OP_plus_uconst 40] [$rbp+0]
	movslq	%r12d, %rsi
	addq	$2, %rsi
	xorl	%ecx, %ecx
	cmpl	$2, 252(%r14)
	cmovgeq	%rsi, %rcx
	addq	%rdx, %rcx
	.loc	1 795 1 is_stmt 1       # fieldsolver/derivatives.cpp:795:1
	movq	744(%r14), %rdx
	shlq	$6, %rcx
.Ltmp119:
	#DEBUG_VALUE: rghtMoments <- undef
	.loc	1 110 1                 # fieldsolver/derivatives.cpp:110:1
	vmovsd	(%rax), %xmm3           # xmm3 = mem[0],zero
	vmovsd	(%rdx,%rcx), %xmm4      # xmm4 = mem[0],zero
	vsubsd	%xmm3, %xmm4, %xmm2
	vandpd	.LCPI0_0(%rip), %xmm2, %xmm5
	vxorpd	%xmm1, %xmm1, %xmm1
	vmovsd	.LCPI0_1(%rip), %xmm0   # xmm0 = mem[0],zero
	vucomisd	%xmm5, %xmm0
	vxorpd	%xmm5, %xmm5, %xmm5
	ja	.LBB0_103
.Ltmp120:
# %bb.102:                              # %L..inline.79634
	#DEBUG_VALUE: centPerB <- [DW_OP_constu 224, DW_OP_minus] [$rbp+0]
	#DEBUG_VALUE: centMoments <- [DW_OP_constu 128, DW_OP_minus] [$rbp+0]
	#DEBUG_VALUE: sysBoundaryLayer <- [DW_OP_constu 144, DW_OP_minus] [$rbp+0]
	#DEBUG_VALUE: sysBoundaryFlag <- [DW_OP_constu 156, DW_OP_minus] [$rbp+0]
	#DEBUG_VALUE: dMoments <- [DW_OP_constu 200, DW_OP_minus] [$rbp+0]
	#DEBUG_VALUE: dPerB <- [DW_OP_constu 168, DW_OP_minus] [$rbp+0]
	#DEBUG_VALUE: calculateDerivatives:perBGrid <- [DW_OP_constu 104, DW_OP_minus] [$rbp+0]
	#DEBUG_VALUE: calculateDerivatives:momentsGrid <- [DW_OP_constu 120, DW_OP_minus] [$rbp+0]
	#DEBUG_VALUE: calculateDerivatives:dMomentsGrid <- [DW_OP_plus_uconst 16] [$rbp+0]
	#DEBUG_VALUE: calculateDerivatives:technicalGrid <- [DW_OP_plus_uconst 24] [$rbp+0]
	#DEBUG_VALUE: calculateDerivatives:sysBoundaries <- [DW_OP_plus_uconst 32] [$rbp+0]
	#DEBUG_VALUE: calculateDerivatives:RKCase <- [DW_OP_plus_uconst 40] [$rbp+0]
	.loc	1 0 1 is_stmt 0         # fieldsolver/derivatives.cpp:0:1
	vmovsd	(%r10), %xmm5           # xmm5 = mem[0],zero
	vsubsd	%xmm3, %xmm5, %xmm3
	vsubsd	%xmm5, %xmm4, %xmm4
	vmulsd	%xmm4, %xmm3, %xmm3
	vxorpd	%xmm4, %xmm4, %xmm4
	.loc	1 110 1                 # fieldsolver/derivatives.cpp:110:1
	vmaxsd	%xmm3, %xmm4, %xmm3
	vaddsd	%xmm3, %xmm3, %xmm3
	vdivsd	%xmm2, %xmm3, %xmm5
.Ltmp121:
.LBB0_103:                              # %L..inline.79636
	#DEBUG_VALUE: centPerB <- [DW_OP_constu 224, DW_OP_minus] [$rbp+0]
	#DEBUG_VALUE: centMoments <- [DW_OP_constu 128, DW_OP_minus] [$rbp+0]
	#DEBUG_VALUE: sysBoundaryLayer <- [DW_OP_constu 144, DW_OP_minus] [$rbp+0]
	#DEBUG_VALUE: sysBoundaryFlag <- [DW_OP_constu 156, DW_OP_minus] [$rbp+0]
	#DEBUG_VALUE: dMoments <- [DW_OP_constu 200, DW_OP_minus] [$rbp+0]
	#DEBUG_VALUE: dPerB <- [DW_OP_constu 168, DW_OP_minus] [$rbp+0]
	#DEBUG_VALUE: calculateDerivatives:perBGrid <- [DW_OP_constu 104, DW_OP_minus] [$rbp+0]
	#DEBUG_VALUE: calculateDerivatives:momentsGrid <- [DW_OP_constu 120, DW_OP_minus] [$rbp+0]
	#DEBUG_VALUE: calculateDerivatives:dMomentsGrid <- [DW_OP_plus_uconst 16] [$rbp+0]
	#DEBUG_VALUE: calculateDerivatives:technicalGrid <- [DW_OP_plus_uconst 24] [$rbp+0]
	#DEBUG_VALUE: calculateDerivatives:sysBoundaries <- [DW_OP_plus_uconst 32] [$rbp+0]
	#DEBUG_VALUE: calculateDerivatives:RKCase <- [DW_OP_plus_uconst 40] [$rbp+0]
	.loc	1 111 1 is_stmt 1       # fieldsolver/derivatives.cpp:111:1
	vmovsd	%xmm5, (%rdi)
	.loc	1 110 1                 # fieldsolver/derivatives.cpp:110:1
	vmovsd	8(%rax), %xmm3          # xmm3 = mem[0],zero
	vmovsd	8(%rdx,%rcx), %xmm4     # xmm4 = mem[0],zero
	vsubsd	%xmm3, %xmm4, %xmm2
	vandpd	.LCPI0_0(%rip), %xmm2, %xmm5
	vucomisd	%xmm5, %xmm0
	movq	-48(%rbp), %rsi         # 8-byte Reload
	ja	.LBB0_105
.Ltmp122:
# %bb.104:                              # %L..inline.79730
	#DEBUG_VALUE: centPerB <- [DW_OP_constu 224, DW_OP_minus] [$rbp+0]
	#DEBUG_VALUE: centMoments <- [DW_OP_constu 128, DW_OP_minus] [$rbp+0]
	#DEBUG_VALUE: sysBoundaryLayer <- [DW_OP_constu 144, DW_OP_minus] [$rbp+0]
	#DEBUG_VALUE: sysBoundaryFlag <- [DW_OP_constu 156, DW_OP_minus] [$rbp+0]
	#DEBUG_VALUE: dMoments <- [DW_OP_constu 200, DW_OP_minus] [$rbp+0]
	#DEBUG_VALUE: dPerB <- [DW_OP_constu 168, DW_OP_minus] [$rbp+0]
	#DEBUG_VALUE: calculateDerivatives:perBGrid <- [DW_OP_constu 104, DW_OP_minus] [$rbp+0]
	#DEBUG_VALUE: calculateDerivatives:momentsGrid <- [DW_OP_constu 120, DW_OP_minus] [$rbp+0]
	#DEBUG_VALUE: calculateDerivatives:dMomentsGrid <- [DW_OP_plus_uconst 16] [$rbp+0]
	#DEBUG_VALUE: calculateDerivatives:technicalGrid <- [DW_OP_plus_uconst 24] [$rbp+0]
	#DEBUG_VALUE: calculateDerivatives:sysBoundaries <- [DW_OP_plus_uconst 32] [$rbp+0]
	#DEBUG_VALUE: calculateDerivatives:RKCase <- [DW_OP_plus_uconst 40] [$rbp+0]
	.loc	1 0 1 is_stmt 0         # fieldsolver/derivatives.cpp:0:1
	vmovsd	8(%r10), %xmm1          # xmm1 = mem[0],zero
	vsubsd	%xmm3, %xmm1, %xmm3
	vsubsd	%xmm1, %xmm4, %xmm1
	vmulsd	%xmm1, %xmm3, %xmm1
	vxorpd	%xmm3, %xmm3, %xmm3
	.loc	1 110 1                 # fieldsolver/derivatives.cpp:110:1
	vmaxsd	%xmm1, %xmm3, %xmm1
	vaddsd	%xmm1, %xmm1, %xmm1
	vdivsd	%xmm2, %xmm1, %xmm1
.Ltmp123:
.LBB0_105:                              # %L..inline.79732
	#DEBUG_VALUE: centPerB <- [DW_OP_constu 224, DW_OP_minus] [$rbp+0]
	#DEBUG_VALUE: centMoments <- [DW_OP_constu 128, DW_OP_minus] [$rbp+0]
	#DEBUG_VALUE: sysBoundaryLayer <- [DW_OP_constu 144, DW_OP_minus] [$rbp+0]
	#DEBUG_VALUE: sysBoundaryFlag <- [DW_OP_constu 156, DW_OP_minus] [$rbp+0]
	#DEBUG_VALUE: dMoments <- [DW_OP_constu 200, DW_OP_minus] [$rbp+0]
	#DEBUG_VALUE: dPerB <- [DW_OP_constu 168, DW_OP_minus] [$rbp+0]
	#DEBUG_VALUE: calculateDerivatives:perBGrid <- [DW_OP_constu 104, DW_OP_minus] [$rbp+0]
	#DEBUG_VALUE: calculateDerivatives:momentsGrid <- [DW_OP_constu 120, DW_OP_minus] [$rbp+0]
	#DEBUG_VALUE: calculateDerivatives:dMomentsGrid <- [DW_OP_plus_uconst 16] [$rbp+0]
	#DEBUG_VALUE: calculateDerivatives:technicalGrid <- [DW_OP_plus_uconst 24] [$rbp+0]
	#DEBUG_VALUE: calculateDerivatives:sysBoundaries <- [DW_OP_plus_uconst 32] [$rbp+0]
	#DEBUG_VALUE: calculateDerivatives:RKCase <- [DW_OP_plus_uconst 40] [$rbp+0]
	.loc	1 111 1 is_stmt 1       # fieldsolver/derivatives.cpp:111:1
	vmovsd	%xmm1, 24(%rdi)
	.loc	1 110 1                 # fieldsolver/derivatives.cpp:110:1
	vmovsd	40(%rax), %xmm3         # xmm3 = mem[0],zero
	vmovsd	40(%rdx,%rcx), %xmm4    # xmm4 = mem[0],zero
	vsubsd	%xmm3, %xmm4, %xmm2
	vandpd	.LCPI0_0(%rip), %xmm2, %xmm5
	vxorpd	%xmm1, %xmm1, %xmm1
	vucomisd	%xmm5, %xmm0
	vxorpd	%xmm5, %xmm5, %xmm5
	ja	.LBB0_107
.Ltmp124:
# %bb.106:                              # %L..inline.79826
	#DEBUG_VALUE: centPerB <- [DW_OP_constu 224, DW_OP_minus] [$rbp+0]
	#DEBUG_VALUE: centMoments <- [DW_OP_constu 128, DW_OP_minus] [$rbp+0]
	#DEBUG_VALUE: sysBoundaryLayer <- [DW_OP_constu 144, DW_OP_minus] [$rbp+0]
	#DEBUG_VALUE: sysBoundaryFlag <- [DW_OP_constu 156, DW_OP_minus] [$rbp+0]
	#DEBUG_VALUE: dMoments <- [DW_OP_constu 200, DW_OP_minus] [$rbp+0]
	#DEBUG_VALUE: dPerB <- [DW_OP_constu 168, DW_OP_minus] [$rbp+0]
	#DEBUG_VALUE: calculateDerivatives:perBGrid <- [DW_OP_constu 104, DW_OP_minus] [$rbp+0]
	#DEBUG_VALUE: calculateDerivatives:momentsGrid <- [DW_OP_constu 120, DW_OP_minus] [$rbp+0]
	#DEBUG_VALUE: calculateDerivatives:dMomentsGrid <- [DW_OP_plus_uconst 16] [$rbp+0]
	#DEBUG_VALUE: calculateDerivatives:technicalGrid <- [DW_OP_plus_uconst 24] [$rbp+0]
	#DEBUG_VALUE: calculateDerivatives:sysBoundaries <- [DW_OP_plus_uconst 32] [$rbp+0]
	#DEBUG_VALUE: calculateDerivatives:RKCase <- [DW_OP_plus_uconst 40] [$rbp+0]
	.loc	1 0 1 is_stmt 0         # fieldsolver/derivatives.cpp:0:1
	vmovsd	40(%r10), %xmm5         # xmm5 = mem[0],zero
	vsubsd	%xmm3, %xmm5, %xmm3
	vsubsd	%xmm5, %xmm4, %xmm4
	vmulsd	%xmm4, %xmm3, %xmm3
	vxorpd	%xmm4, %xmm4, %xmm4
	.loc	1 110 1                 # fieldsolver/derivatives.cpp:110:1
	vmaxsd	%xmm3, %xmm4, %xmm3
	vaddsd	%xmm3, %xmm3, %xmm3
	vdivsd	%xmm2, %xmm3, %xmm5
.Ltmp125:
.LBB0_107:                              # %L..inline.79828
	#DEBUG_VALUE: centPerB <- [DW_OP_constu 224, DW_OP_minus] [$rbp+0]
	#DEBUG_VALUE: centMoments <- [DW_OP_constu 128, DW_OP_minus] [$rbp+0]
	#DEBUG_VALUE: sysBoundaryLayer <- [DW_OP_constu 144, DW_OP_minus] [$rbp+0]
	#DEBUG_VALUE: sysBoundaryFlag <- [DW_OP_constu 156, DW_OP_minus] [$rbp+0]
	#DEBUG_VALUE: dMoments <- [DW_OP_constu 200, DW_OP_minus] [$rbp+0]
	#DEBUG_VALUE: dPerB <- [DW_OP_constu 168, DW_OP_minus] [$rbp+0]
	#DEBUG_VALUE: calculateDerivatives:perBGrid <- [DW_OP_constu 104, DW_OP_minus] [$rbp+0]
	#DEBUG_VALUE: calculateDerivatives:momentsGrid <- [DW_OP_constu 120, DW_OP_minus] [$rbp+0]
	#DEBUG_VALUE: calculateDerivatives:dMomentsGrid <- [DW_OP_plus_uconst 16] [$rbp+0]
	#DEBUG_VALUE: calculateDerivatives:technicalGrid <- [DW_OP_plus_uconst 24] [$rbp+0]
	#DEBUG_VALUE: calculateDerivatives:sysBoundaries <- [DW_OP_plus_uconst 32] [$rbp+0]
	#DEBUG_VALUE: calculateDerivatives:RKCase <- [DW_OP_plus_uconst 40] [$rbp+0]
	.loc	1 111 1 is_stmt 1       # fieldsolver/derivatives.cpp:111:1
	vmovsd	%xmm5, 48(%rdi)
	.loc	1 110 1                 # fieldsolver/derivatives.cpp:110:1
	vmovsd	48(%rax), %xmm3         # xmm3 = mem[0],zero
	vmovsd	48(%rdx,%rcx), %xmm4    # xmm4 = mem[0],zero
	vsubsd	%xmm3, %xmm4, %xmm2
	vandpd	.LCPI0_0(%rip), %xmm2, %xmm5
	vucomisd	%xmm5, %xmm0
	ja	.LBB0_109
.Ltmp126:
# %bb.108:                              # %L..inline.79922
	#DEBUG_VALUE: centPerB <- [DW_OP_constu 224, DW_OP_minus] [$rbp+0]
	#DEBUG_VALUE: centMoments <- [DW_OP_constu 128, DW_OP_minus] [$rbp+0]
	#DEBUG_VALUE: sysBoundaryLayer <- [DW_OP_constu 144, DW_OP_minus] [$rbp+0]
	#DEBUG_VALUE: sysBoundaryFlag <- [DW_OP_constu 156, DW_OP_minus] [$rbp+0]
	#DEBUG_VALUE: dMoments <- [DW_OP_constu 200, DW_OP_minus] [$rbp+0]
	#DEBUG_VALUE: dPerB <- [DW_OP_constu 168, DW_OP_minus] [$rbp+0]
	#DEBUG_VALUE: calculateDerivatives:perBGrid <- [DW_OP_constu 104, DW_OP_minus] [$rbp+0]
	#DEBUG_VALUE: calculateDerivatives:momentsGrid <- [DW_OP_constu 120, DW_OP_minus] [$rbp+0]
	#DEBUG_VALUE: calculateDerivatives:dMomentsGrid <- [DW_OP_plus_uconst 16] [$rbp+0]
	#DEBUG_VALUE: calculateDerivatives:technicalGrid <- [DW_OP_plus_uconst 24] [$rbp+0]
	#DEBUG_VALUE: calculateDerivatives:sysBoundaries <- [DW_OP_plus_uconst 32] [$rbp+0]
	#DEBUG_VALUE: calculateDerivatives:RKCase <- [DW_OP_plus_uconst 40] [$rbp+0]
	.loc	1 0 1 is_stmt 0         # fieldsolver/derivatives.cpp:0:1
	vmovsd	48(%r10), %xmm1         # xmm1 = mem[0],zero
	vsubsd	%xmm3, %xmm1, %xmm3
	vsubsd	%xmm1, %xmm4, %xmm1
	vmulsd	%xmm1, %xmm3, %xmm1
	vxorpd	%xmm3, %xmm3, %xmm3
	.loc	1 110 1                 # fieldsolver/derivatives.cpp:110:1
	vmaxsd	%xmm1, %xmm3, %xmm1
	vaddsd	%xmm1, %xmm1, %xmm1
	vdivsd	%xmm2, %xmm1, %xmm1
.Ltmp127:
.LBB0_109:                              # %L..inline.79924
	#DEBUG_VALUE: centPerB <- [DW_OP_constu 224, DW_OP_minus] [$rbp+0]
	#DEBUG_VALUE: centMoments <- [DW_OP_constu 128, DW_OP_minus] [$rbp+0]
	#DEBUG_VALUE: sysBoundaryLayer <- [DW_OP_constu 144, DW_OP_minus] [$rbp+0]
	#DEBUG_VALUE: sysBoundaryFlag <- [DW_OP_constu 156, DW_OP_minus] [$rbp+0]
	#DEBUG_VALUE: dMoments <- [DW_OP_constu 200, DW_OP_minus] [$rbp+0]
	#DEBUG_VALUE: dPerB <- [DW_OP_constu 168, DW_OP_minus] [$rbp+0]
	#DEBUG_VALUE: calculateDerivatives:perBGrid <- [DW_OP_constu 104, DW_OP_minus] [$rbp+0]
	#DEBUG_VALUE: calculateDerivatives:momentsGrid <- [DW_OP_constu 120, DW_OP_minus] [$rbp+0]
	#DEBUG_VALUE: calculateDerivatives:dMomentsGrid <- [DW_OP_plus_uconst 16] [$rbp+0]
	#DEBUG_VALUE: calculateDerivatives:technicalGrid <- [DW_OP_plus_uconst 24] [$rbp+0]
	#DEBUG_VALUE: calculateDerivatives:sysBoundaries <- [DW_OP_plus_uconst 32] [$rbp+0]
	#DEBUG_VALUE: calculateDerivatives:RKCase <- [DW_OP_plus_uconst 40] [$rbp+0]
	.loc	1 111 1 is_stmt 1       # fieldsolver/derivatives.cpp:111:1
	vmovsd	%xmm1, 72(%rdi)
	.loc	1 110 1                 # fieldsolver/derivatives.cpp:110:1
	vmovsd	56(%rax), %xmm3         # xmm3 = mem[0],zero
	vmovsd	56(%rdx,%rcx), %xmm4    # xmm4 = mem[0],zero
	vsubsd	%xmm3, %xmm4, %xmm2
	vandpd	.LCPI0_0(%rip), %xmm2, %xmm5
	vxorpd	%xmm1, %xmm1, %xmm1
	vucomisd	%xmm5, %xmm0
	vxorpd	%xmm5, %xmm5, %xmm5
	ja	.LBB0_111
.Ltmp128:
# %bb.110:                              # %L..inline.80018
	#DEBUG_VALUE: centPerB <- [DW_OP_constu 224, DW_OP_minus] [$rbp+0]
	#DEBUG_VALUE: centMoments <- [DW_OP_constu 128, DW_OP_minus] [$rbp+0]
	#DEBUG_VALUE: sysBoundaryLayer <- [DW_OP_constu 144, DW_OP_minus] [$rbp+0]
	#DEBUG_VALUE: sysBoundaryFlag <- [DW_OP_constu 156, DW_OP_minus] [$rbp+0]
	#DEBUG_VALUE: dMoments <- [DW_OP_constu 200, DW_OP_minus] [$rbp+0]
	#DEBUG_VALUE: dPerB <- [DW_OP_constu 168, DW_OP_minus] [$rbp+0]
	#DEBUG_VALUE: calculateDerivatives:perBGrid <- [DW_OP_constu 104, DW_OP_minus] [$rbp+0]
	#DEBUG_VALUE: calculateDerivatives:momentsGrid <- [DW_OP_constu 120, DW_OP_minus] [$rbp+0]
	#DEBUG_VALUE: calculateDerivatives:dMomentsGrid <- [DW_OP_plus_uconst 16] [$rbp+0]
	#DEBUG_VALUE: calculateDerivatives:technicalGrid <- [DW_OP_plus_uconst 24] [$rbp+0]
	#DEBUG_VALUE: calculateDerivatives:sysBoundaries <- [DW_OP_plus_uconst 32] [$rbp+0]
	#DEBUG_VALUE: calculateDerivatives:RKCase <- [DW_OP_plus_uconst 40] [$rbp+0]
	.loc	1 0 1 is_stmt 0         # fieldsolver/derivatives.cpp:0:1
	vmovsd	56(%r10), %xmm5         # xmm5 = mem[0],zero
	vsubsd	%xmm3, %xmm5, %xmm3
	vsubsd	%xmm5, %xmm4, %xmm4
	vmulsd	%xmm4, %xmm3, %xmm3
	vxorpd	%xmm4, %xmm4, %xmm4
	.loc	1 110 1                 # fieldsolver/derivatives.cpp:110:1
	vmaxsd	%xmm3, %xmm4, %xmm3
	vaddsd	%xmm3, %xmm3, %xmm3
	vdivsd	%xmm2, %xmm3, %xmm5
.Ltmp129:
.LBB0_111:                              # %L..inline.80020
	#DEBUG_VALUE: centPerB <- [DW_OP_constu 224, DW_OP_minus] [$rbp+0]
	#DEBUG_VALUE: centMoments <- [DW_OP_constu 128, DW_OP_minus] [$rbp+0]
	#DEBUG_VALUE: sysBoundaryLayer <- [DW_OP_constu 144, DW_OP_minus] [$rbp+0]
	#DEBUG_VALUE: sysBoundaryFlag <- [DW_OP_constu 156, DW_OP_minus] [$rbp+0]
	#DEBUG_VALUE: dMoments <- [DW_OP_constu 200, DW_OP_minus] [$rbp+0]
	#DEBUG_VALUE: dPerB <- [DW_OP_constu 168, DW_OP_minus] [$rbp+0]
	#DEBUG_VALUE: calculateDerivatives:perBGrid <- [DW_OP_constu 104, DW_OP_minus] [$rbp+0]
	#DEBUG_VALUE: calculateDerivatives:momentsGrid <- [DW_OP_constu 120, DW_OP_minus] [$rbp+0]
	#DEBUG_VALUE: calculateDerivatives:dMomentsGrid <- [DW_OP_plus_uconst 16] [$rbp+0]
	#DEBUG_VALUE: calculateDerivatives:technicalGrid <- [DW_OP_plus_uconst 24] [$rbp+0]
	#DEBUG_VALUE: calculateDerivatives:sysBoundaries <- [DW_OP_plus_uconst 32] [$rbp+0]
	#DEBUG_VALUE: calculateDerivatives:RKCase <- [DW_OP_plus_uconst 40] [$rbp+0]
	.loc	1 111 1 is_stmt 1       # fieldsolver/derivatives.cpp:111:1
	vmovsd	%xmm5, 96(%rdi)
	.loc	1 110 1                 # fieldsolver/derivatives.cpp:110:1
	vmovsd	16(%rax), %xmm3         # xmm3 = mem[0],zero
	vmovsd	16(%rdx,%rcx), %xmm4    # xmm4 = mem[0],zero
	vsubsd	%xmm3, %xmm4, %xmm2
	vandpd	.LCPI0_0(%rip), %xmm2, %xmm5
	vucomisd	%xmm5, %xmm0
	ja	.LBB0_113
.Ltmp130:
# %bb.112:                              # %L..inline.80114
	#DEBUG_VALUE: centPerB <- [DW_OP_constu 224, DW_OP_minus] [$rbp+0]
	#DEBUG_VALUE: centMoments <- [DW_OP_constu 128, DW_OP_minus] [$rbp+0]
	#DEBUG_VALUE: sysBoundaryLayer <- [DW_OP_constu 144, DW_OP_minus] [$rbp+0]
	#DEBUG_VALUE: sysBoundaryFlag <- [DW_OP_constu 156, DW_OP_minus] [$rbp+0]
	#DEBUG_VALUE: dMoments <- [DW_OP_constu 200, DW_OP_minus] [$rbp+0]
	#DEBUG_VALUE: dPerB <- [DW_OP_constu 168, DW_OP_minus] [$rbp+0]
	#DEBUG_VALUE: calculateDerivatives:perBGrid <- [DW_OP_constu 104, DW_OP_minus] [$rbp+0]
	#DEBUG_VALUE: calculateDerivatives:momentsGrid <- [DW_OP_constu 120, DW_OP_minus] [$rbp+0]
	#DEBUG_VALUE: calculateDerivatives:dMomentsGrid <- [DW_OP_plus_uconst 16] [$rbp+0]
	#DEBUG_VALUE: calculateDerivatives:technicalGrid <- [DW_OP_plus_uconst 24] [$rbp+0]
	#DEBUG_VALUE: calculateDerivatives:sysBoundaries <- [DW_OP_plus_uconst 32] [$rbp+0]
	#DEBUG_VALUE: calculateDerivatives:RKCase <- [DW_OP_plus_uconst 40] [$rbp+0]
	.loc	1 0 1 is_stmt 0         # fieldsolver/derivatives.cpp:0:1
	vmovsd	16(%r10), %xmm1         # xmm1 = mem[0],zero
	vsubsd	%xmm3, %xmm1, %xmm3
	vsubsd	%xmm1, %xmm4, %xmm1
	vmulsd	%xmm1, %xmm3, %xmm1
	vxorpd	%xmm3, %xmm3, %xmm3
	.loc	1 110 1                 # fieldsolver/derivatives.cpp:110:1
	vmaxsd	%xmm1, %xmm3, %xmm1
	vaddsd	%xmm1, %xmm1, %xmm1
	vdivsd	%xmm2, %xmm1, %xmm1
.Ltmp131:
.LBB0_113:                              # %L..inline.80116
	#DEBUG_VALUE: centPerB <- [DW_OP_constu 224, DW_OP_minus] [$rbp+0]
	#DEBUG_VALUE: centMoments <- [DW_OP_constu 128, DW_OP_minus] [$rbp+0]
	#DEBUG_VALUE: sysBoundaryLayer <- [DW_OP_constu 144, DW_OP_minus] [$rbp+0]
	#DEBUG_VALUE: sysBoundaryFlag <- [DW_OP_constu 156, DW_OP_minus] [$rbp+0]
	#DEBUG_VALUE: dMoments <- [DW_OP_constu 200, DW_OP_minus] [$rbp+0]
	#DEBUG_VALUE: dPerB <- [DW_OP_constu 168, DW_OP_minus] [$rbp+0]
	#DEBUG_VALUE: calculateDerivatives:perBGrid <- [DW_OP_constu 104, DW_OP_minus] [$rbp+0]
	#DEBUG_VALUE: calculateDerivatives:momentsGrid <- [DW_OP_constu 120, DW_OP_minus] [$rbp+0]
	#DEBUG_VALUE: calculateDerivatives:dMomentsGrid <- [DW_OP_plus_uconst 16] [$rbp+0]
	#DEBUG_VALUE: calculateDerivatives:technicalGrid <- [DW_OP_plus_uconst 24] [$rbp+0]
	#DEBUG_VALUE: calculateDerivatives:sysBoundaries <- [DW_OP_plus_uconst 32] [$rbp+0]
	#DEBUG_VALUE: calculateDerivatives:RKCase <- [DW_OP_plus_uconst 40] [$rbp+0]
	.loc	1 111 1 is_stmt 1       # fieldsolver/derivatives.cpp:111:1
	vmovsd	%xmm1, 120(%rdi)
	.loc	1 110 1                 # fieldsolver/derivatives.cpp:110:1
	vmovsd	24(%rax), %xmm3         # xmm3 = mem[0],zero
	vmovsd	24(%rdx,%rcx), %xmm4    # xmm4 = mem[0],zero
	vsubsd	%xmm3, %xmm4, %xmm2
	vandpd	.LCPI0_0(%rip), %xmm2, %xmm5
	vxorpd	%xmm1, %xmm1, %xmm1
	vucomisd	%xmm5, %xmm0
	vxorpd	%xmm5, %xmm5, %xmm5
	ja	.LBB0_115
.Ltmp132:
# %bb.114:                              # %L..inline.80210
	#DEBUG_VALUE: centPerB <- [DW_OP_constu 224, DW_OP_minus] [$rbp+0]
	#DEBUG_VALUE: centMoments <- [DW_OP_constu 128, DW_OP_minus] [$rbp+0]
	#DEBUG_VALUE: sysBoundaryLayer <- [DW_OP_constu 144, DW_OP_minus] [$rbp+0]
	#DEBUG_VALUE: sysBoundaryFlag <- [DW_OP_constu 156, DW_OP_minus] [$rbp+0]
	#DEBUG_VALUE: dMoments <- [DW_OP_constu 200, DW_OP_minus] [$rbp+0]
	#DEBUG_VALUE: dPerB <- [DW_OP_constu 168, DW_OP_minus] [$rbp+0]
	#DEBUG_VALUE: calculateDerivatives:perBGrid <- [DW_OP_constu 104, DW_OP_minus] [$rbp+0]
	#DEBUG_VALUE: calculateDerivatives:momentsGrid <- [DW_OP_constu 120, DW_OP_minus] [$rbp+0]
	#DEBUG_VALUE: calculateDerivatives:dMomentsGrid <- [DW_OP_plus_uconst 16] [$rbp+0]
	#DEBUG_VALUE: calculateDerivatives:technicalGrid <- [DW_OP_plus_uconst 24] [$rbp+0]
	#DEBUG_VALUE: calculateDerivatives:sysBoundaries <- [DW_OP_plus_uconst 32] [$rbp+0]
	#DEBUG_VALUE: calculateDerivatives:RKCase <- [DW_OP_plus_uconst 40] [$rbp+0]
	.loc	1 0 1 is_stmt 0         # fieldsolver/derivatives.cpp:0:1
	vmovsd	24(%r10), %xmm5         # xmm5 = mem[0],zero
	vsubsd	%xmm3, %xmm5, %xmm3
	vsubsd	%xmm5, %xmm4, %xmm4
	vmulsd	%xmm4, %xmm3, %xmm3
	vxorpd	%xmm4, %xmm4, %xmm4
	.loc	1 110 1                 # fieldsolver/derivatives.cpp:110:1
	vmaxsd	%xmm3, %xmm4, %xmm3
	vaddsd	%xmm3, %xmm3, %xmm3
	vdivsd	%xmm2, %xmm3, %xmm5
.Ltmp133:
.LBB0_115:                              # %L..inline.80212
	#DEBUG_VALUE: centPerB <- [DW_OP_constu 224, DW_OP_minus] [$rbp+0]
	#DEBUG_VALUE: centMoments <- [DW_OP_constu 128, DW_OP_minus] [$rbp+0]
	#DEBUG_VALUE: sysBoundaryLayer <- [DW_OP_constu 144, DW_OP_minus] [$rbp+0]
	#DEBUG_VALUE: sysBoundaryFlag <- [DW_OP_constu 156, DW_OP_minus] [$rbp+0]
	#DEBUG_VALUE: dMoments <- [DW_OP_constu 200, DW_OP_minus] [$rbp+0]
	#DEBUG_VALUE: dPerB <- [DW_OP_constu 168, DW_OP_minus] [$rbp+0]
	#DEBUG_VALUE: calculateDerivatives:perBGrid <- [DW_OP_constu 104, DW_OP_minus] [$rbp+0]
	#DEBUG_VALUE: calculateDerivatives:momentsGrid <- [DW_OP_constu 120, DW_OP_minus] [$rbp+0]
	#DEBUG_VALUE: calculateDerivatives:dMomentsGrid <- [DW_OP_plus_uconst 16] [$rbp+0]
	#DEBUG_VALUE: calculateDerivatives:technicalGrid <- [DW_OP_plus_uconst 24] [$rbp+0]
	#DEBUG_VALUE: calculateDerivatives:sysBoundaries <- [DW_OP_plus_uconst 32] [$rbp+0]
	#DEBUG_VALUE: calculateDerivatives:RKCase <- [DW_OP_plus_uconst 40] [$rbp+0]
	.loc	1 111 1 is_stmt 1       # fieldsolver/derivatives.cpp:111:1
	vmovsd	%xmm5, 144(%rdi)
	.loc	1 110 1                 # fieldsolver/derivatives.cpp:110:1
	vmovsd	32(%rax), %xmm3         # xmm3 = mem[0],zero
	vmovsd	32(%rdx,%rcx), %xmm4    # xmm4 = mem[0],zero
	vsubsd	%xmm3, %xmm4, %xmm2
	vandpd	.LCPI0_0(%rip), %xmm2, %xmm5
	vucomisd	%xmm5, %xmm0
	ja	.LBB0_117
.Ltmp134:
# %bb.116:                              # %L..inline.80306
	#DEBUG_VALUE: centPerB <- [DW_OP_constu 224, DW_OP_minus] [$rbp+0]
	#DEBUG_VALUE: centMoments <- [DW_OP_constu 128, DW_OP_minus] [$rbp+0]
	#DEBUG_VALUE: sysBoundaryLayer <- [DW_OP_constu 144, DW_OP_minus] [$rbp+0]
	#DEBUG_VALUE: sysBoundaryFlag <- [DW_OP_constu 156, DW_OP_minus] [$rbp+0]
	#DEBUG_VALUE: dMoments <- [DW_OP_constu 200, DW_OP_minus] [$rbp+0]
	#DEBUG_VALUE: dPerB <- [DW_OP_constu 168, DW_OP_minus] [$rbp+0]
	#DEBUG_VALUE: calculateDerivatives:perBGrid <- [DW_OP_constu 104, DW_OP_minus] [$rbp+0]
	#DEBUG_VALUE: calculateDerivatives:momentsGrid <- [DW_OP_constu 120, DW_OP_minus] [$rbp+0]
	#DEBUG_VALUE: calculateDerivatives:dMomentsGrid <- [DW_OP_plus_uconst 16] [$rbp+0]
	#DEBUG_VALUE: calculateDerivatives:technicalGrid <- [DW_OP_plus_uconst 24] [$rbp+0]
	#DEBUG_VALUE: calculateDerivatives:sysBoundaries <- [DW_OP_plus_uconst 32] [$rbp+0]
	#DEBUG_VALUE: calculateDerivatives:RKCase <- [DW_OP_plus_uconst 40] [$rbp+0]
	.loc	1 0 1 is_stmt 0         # fieldsolver/derivatives.cpp:0:1
	vmovsd	32(%r10), %xmm1         # xmm1 = mem[0],zero
	vsubsd	%xmm3, %xmm1, %xmm3
	vsubsd	%xmm1, %xmm4, %xmm1
	vmulsd	%xmm1, %xmm3, %xmm1
	vxorpd	%xmm3, %xmm3, %xmm3
	.loc	1 110 1                 # fieldsolver/derivatives.cpp:110:1
	vmaxsd	%xmm1, %xmm3, %xmm1
	vaddsd	%xmm1, %xmm1, %xmm1
	vdivsd	%xmm2, %xmm1, %xmm1
.Ltmp135:
.LBB0_117:                              # %L..inline.80308
	#DEBUG_VALUE: centPerB <- [DW_OP_constu 224, DW_OP_minus] [$rbp+0]
	#DEBUG_VALUE: centMoments <- [DW_OP_constu 128, DW_OP_minus] [$rbp+0]
	#DEBUG_VALUE: sysBoundaryLayer <- [DW_OP_constu 144, DW_OP_minus] [$rbp+0]
	#DEBUG_VALUE: sysBoundaryFlag <- [DW_OP_constu 156, DW_OP_minus] [$rbp+0]
	#DEBUG_VALUE: dMoments <- [DW_OP_constu 200, DW_OP_minus] [$rbp+0]
	#DEBUG_VALUE: dPerB <- [DW_OP_constu 168, DW_OP_minus] [$rbp+0]
	#DEBUG_VALUE: calculateDerivatives:perBGrid <- [DW_OP_constu 104, DW_OP_minus] [$rbp+0]
	#DEBUG_VALUE: calculateDerivatives:momentsGrid <- [DW_OP_constu 120, DW_OP_minus] [$rbp+0]
	#DEBUG_VALUE: calculateDerivatives:dMomentsGrid <- [DW_OP_plus_uconst 16] [$rbp+0]
	#DEBUG_VALUE: calculateDerivatives:technicalGrid <- [DW_OP_plus_uconst 24] [$rbp+0]
	#DEBUG_VALUE: calculateDerivatives:sysBoundaries <- [DW_OP_plus_uconst 32] [$rbp+0]
	#DEBUG_VALUE: calculateDerivatives:RKCase <- [DW_OP_plus_uconst 40] [$rbp+0]
	.loc	1 111 1 is_stmt 1       # fieldsolver/derivatives.cpp:111:1
	vmovsd	%xmm1, 168(%rdi)
	movq	-208(%rbp), %rcx        # 8-byte Reload
	.loc	1 110 1                 # fieldsolver/derivatives.cpp:110:1
	vmovsd	8(%rcx), %xmm3          # xmm3 = mem[0],zero
	vmovsd	8(%r13), %xmm4          # xmm4 = mem[0],zero
	vsubsd	%xmm3, %xmm4, %xmm2
	vandpd	.LCPI0_0(%rip), %xmm2, %xmm5
	vxorpd	%xmm1, %xmm1, %xmm1
	vucomisd	%xmm5, %xmm0
	vxorpd	%xmm5, %xmm5, %xmm5
	movq	-224(%rbp), %rax        # 8-byte Reload
.Ltmp136:
	#DEBUG_VALUE: centPerB <- $rax
	ja	.LBB0_119
.Ltmp137:
# %bb.118:                              # %L..inline.80402
	#DEBUG_VALUE: centPerB <- $rax
	#DEBUG_VALUE: centMoments <- [DW_OP_constu 128, DW_OP_minus] [$rbp+0]
	#DEBUG_VALUE: sysBoundaryLayer <- [DW_OP_constu 144, DW_OP_minus] [$rbp+0]
	#DEBUG_VALUE: sysBoundaryFlag <- [DW_OP_constu 156, DW_OP_minus] [$rbp+0]
	#DEBUG_VALUE: dMoments <- [DW_OP_constu 200, DW_OP_minus] [$rbp+0]
	#DEBUG_VALUE: dPerB <- [DW_OP_constu 168, DW_OP_minus] [$rbp+0]
	#DEBUG_VALUE: calculateDerivatives:perBGrid <- [DW_OP_constu 104, DW_OP_minus] [$rbp+0]
	#DEBUG_VALUE: calculateDerivatives:momentsGrid <- [DW_OP_constu 120, DW_OP_minus] [$rbp+0]
	#DEBUG_VALUE: calculateDerivatives:dMomentsGrid <- [DW_OP_plus_uconst 16] [$rbp+0]
	#DEBUG_VALUE: calculateDerivatives:technicalGrid <- [DW_OP_plus_uconst 24] [$rbp+0]
	#DEBUG_VALUE: calculateDerivatives:sysBoundaries <- [DW_OP_plus_uconst 32] [$rbp+0]
	#DEBUG_VALUE: calculateDerivatives:RKCase <- [DW_OP_plus_uconst 40] [$rbp+0]
	.loc	1 0 1 is_stmt 0         # fieldsolver/derivatives.cpp:0:1
	vmovsd	8(%rax), %xmm5          # xmm5 = mem[0],zero
	vsubsd	%xmm3, %xmm5, %xmm3
	vsubsd	%xmm5, %xmm4, %xmm4
	vmulsd	%xmm4, %xmm3, %xmm3
	vxorpd	%xmm4, %xmm4, %xmm4
	.loc	1 110 1                 # fieldsolver/derivatives.cpp:110:1
	vmaxsd	%xmm3, %xmm4, %xmm3
	vaddsd	%xmm3, %xmm3, %xmm3
	vdivsd	%xmm2, %xmm3, %xmm5
.Ltmp138:
.LBB0_119:                              # %L..inline.80404
	#DEBUG_VALUE: centPerB <- $rax
	#DEBUG_VALUE: centMoments <- [DW_OP_constu 128, DW_OP_minus] [$rbp+0]
	#DEBUG_VALUE: sysBoundaryLayer <- [DW_OP_constu 144, DW_OP_minus] [$rbp+0]
	#DEBUG_VALUE: sysBoundaryFlag <- [DW_OP_constu 156, DW_OP_minus] [$rbp+0]
	#DEBUG_VALUE: dMoments <- [DW_OP_constu 200, DW_OP_minus] [$rbp+0]
	#DEBUG_VALUE: dPerB <- [DW_OP_constu 168, DW_OP_minus] [$rbp+0]
	#DEBUG_VALUE: calculateDerivatives:perBGrid <- [DW_OP_constu 104, DW_OP_minus] [$rbp+0]
	#DEBUG_VALUE: calculateDerivatives:momentsGrid <- [DW_OP_constu 120, DW_OP_minus] [$rbp+0]
	#DEBUG_VALUE: calculateDerivatives:dMomentsGrid <- [DW_OP_plus_uconst 16] [$rbp+0]
	#DEBUG_VALUE: calculateDerivatives:technicalGrid <- [DW_OP_plus_uconst 24] [$rbp+0]
	#DEBUG_VALUE: calculateDerivatives:sysBoundaries <- [DW_OP_plus_uconst 32] [$rbp+0]
	#DEBUG_VALUE: calculateDerivatives:RKCase <- [DW_OP_plus_uconst 40] [$rbp+0]
	.loc	1 111 1 is_stmt 1       # fieldsolver/derivatives.cpp:111:1
	vmovsd	%xmm5, 16(%rbx)
	.loc	1 110 1                 # fieldsolver/derivatives.cpp:110:1
	vmovsd	16(%rcx), %xmm3         # xmm3 = mem[0],zero
	vmovsd	16(%r13), %xmm4         # xmm4 = mem[0],zero
	vsubsd	%xmm3, %xmm4, %xmm2
	vandpd	.LCPI0_0(%rip), %xmm2, %xmm5
	vucomisd	%xmm5, %xmm0
	ja	.LBB0_121
.Ltmp139:
# %bb.120:                              # %L..inline.80498
	#DEBUG_VALUE: centPerB <- $rax
	#DEBUG_VALUE: centMoments <- [DW_OP_constu 128, DW_OP_minus] [$rbp+0]
	#DEBUG_VALUE: sysBoundaryLayer <- [DW_OP_constu 144, DW_OP_minus] [$rbp+0]
	#DEBUG_VALUE: sysBoundaryFlag <- [DW_OP_constu 156, DW_OP_minus] [$rbp+0]
	#DEBUG_VALUE: dMoments <- [DW_OP_constu 200, DW_OP_minus] [$rbp+0]
	#DEBUG_VALUE: dPerB <- [DW_OP_constu 168, DW_OP_minus] [$rbp+0]
	#DEBUG_VALUE: calculateDerivatives:perBGrid <- [DW_OP_constu 104, DW_OP_minus] [$rbp+0]
	#DEBUG_VALUE: calculateDerivatives:momentsGrid <- [DW_OP_constu 120, DW_OP_minus] [$rbp+0]
	#DEBUG_VALUE: calculateDerivatives:dMomentsGrid <- [DW_OP_plus_uconst 16] [$rbp+0]
	#DEBUG_VALUE: calculateDerivatives:technicalGrid <- [DW_OP_plus_uconst 24] [$rbp+0]
	#DEBUG_VALUE: calculateDerivatives:sysBoundaries <- [DW_OP_plus_uconst 32] [$rbp+0]
	#DEBUG_VALUE: calculateDerivatives:RKCase <- [DW_OP_plus_uconst 40] [$rbp+0]
	.loc	1 0 1 is_stmt 0         # fieldsolver/derivatives.cpp:0:1
	vmovsd	16(%rax), %xmm1         # xmm1 = mem[0],zero
	vsubsd	%xmm3, %xmm1, %xmm3
	vsubsd	%xmm1, %xmm4, %xmm1
	vmulsd	%xmm1, %xmm3, %xmm1
	vxorpd	%xmm3, %xmm3, %xmm3
	.loc	1 110 1                 # fieldsolver/derivatives.cpp:110:1
	vmaxsd	%xmm1, %xmm3, %xmm1
	vaddsd	%xmm1, %xmm1, %xmm1
	vdivsd	%xmm2, %xmm1, %xmm1
.Ltmp140:
.LBB0_121:                              # %L..inline.80500
	#DEBUG_VALUE: centPerB <- $rax
	#DEBUG_VALUE: centMoments <- [DW_OP_constu 128, DW_OP_minus] [$rbp+0]
	#DEBUG_VALUE: sysBoundaryLayer <- [DW_OP_constu 144, DW_OP_minus] [$rbp+0]
	#DEBUG_VALUE: sysBoundaryFlag <- [DW_OP_constu 156, DW_OP_minus] [$rbp+0]
	#DEBUG_VALUE: dMoments <- [DW_OP_constu 200, DW_OP_minus] [$rbp+0]
	#DEBUG_VALUE: dPerB <- [DW_OP_constu 168, DW_OP_minus] [$rbp+0]
	#DEBUG_VALUE: calculateDerivatives:perBGrid <- [DW_OP_constu 104, DW_OP_minus] [$rbp+0]
	#DEBUG_VALUE: calculateDerivatives:momentsGrid <- [DW_OP_constu 120, DW_OP_minus] [$rbp+0]
	#DEBUG_VALUE: calculateDerivatives:dMomentsGrid <- [DW_OP_plus_uconst 16] [$rbp+0]
	#DEBUG_VALUE: calculateDerivatives:technicalGrid <- [DW_OP_plus_uconst 24] [$rbp+0]
	#DEBUG_VALUE: calculateDerivatives:sysBoundaries <- [DW_OP_plus_uconst 32] [$rbp+0]
	#DEBUG_VALUE: calculateDerivatives:RKCase <- [DW_OP_plus_uconst 40] [$rbp+0]
	.loc	1 111 1 is_stmt 1       # fieldsolver/derivatives.cpp:111:1
	vmovsd	%xmm1, 32(%rbx)
	.loc	1 82 1                  # fieldsolver/derivatives.cpp:82:1
	cmpl	$1, %r9d
	.loc	1 114 1                 # fieldsolver/derivatives.cpp:114:1
	je	.LBB0_124
.Ltmp141:
# %bb.122:                              # %L..inline.80500
	#DEBUG_VALUE: centPerB <- $rax
	#DEBUG_VALUE: centMoments <- [DW_OP_constu 128, DW_OP_minus] [$rbp+0]
	#DEBUG_VALUE: sysBoundaryLayer <- [DW_OP_constu 144, DW_OP_minus] [$rbp+0]
	#DEBUG_VALUE: sysBoundaryFlag <- [DW_OP_constu 156, DW_OP_minus] [$rbp+0]
	#DEBUG_VALUE: dMoments <- [DW_OP_constu 200, DW_OP_minus] [$rbp+0]
	#DEBUG_VALUE: dPerB <- [DW_OP_constu 168, DW_OP_minus] [$rbp+0]
	#DEBUG_VALUE: calculateDerivatives:perBGrid <- [DW_OP_constu 104, DW_OP_minus] [$rbp+0]
	#DEBUG_VALUE: calculateDerivatives:momentsGrid <- [DW_OP_constu 120, DW_OP_minus] [$rbp+0]
	#DEBUG_VALUE: calculateDerivatives:dMomentsGrid <- [DW_OP_plus_uconst 16] [$rbp+0]
	#DEBUG_VALUE: calculateDerivatives:technicalGrid <- [DW_OP_plus_uconst 24] [$rbp+0]
	#DEBUG_VALUE: calculateDerivatives:sysBoundaries <- [DW_OP_plus_uconst 32] [$rbp+0]
	#DEBUG_VALUE: calculateDerivatives:RKCase <- [DW_OP_plus_uconst 40] [$rbp+0]
	cmpl	$1, _ZN10Parameters11ohmHallTermE(%rip)
	jbe	.LBB0_124
.Ltmp142:
# %bb.123:                              # %L.B0002
	#DEBUG_VALUE: centPerB <- $rax
	#DEBUG_VALUE: centMoments <- [DW_OP_constu 128, DW_OP_minus] [$rbp+0]
	#DEBUG_VALUE: sysBoundaryLayer <- [DW_OP_constu 144, DW_OP_minus] [$rbp+0]
	#DEBUG_VALUE: sysBoundaryFlag <- [DW_OP_constu 156, DW_OP_minus] [$rbp+0]
	#DEBUG_VALUE: dMoments <- [DW_OP_constu 200, DW_OP_minus] [$rbp+0]
	#DEBUG_VALUE: dPerB <- [DW_OP_constu 168, DW_OP_minus] [$rbp+0]
	#DEBUG_VALUE: calculateDerivatives:perBGrid <- [DW_OP_constu 104, DW_OP_minus] [$rbp+0]
	#DEBUG_VALUE: calculateDerivatives:momentsGrid <- [DW_OP_constu 120, DW_OP_minus] [$rbp+0]
	#DEBUG_VALUE: calculateDerivatives:dMomentsGrid <- [DW_OP_plus_uconst 16] [$rbp+0]
	#DEBUG_VALUE: calculateDerivatives:technicalGrid <- [DW_OP_plus_uconst 24] [$rbp+0]
	#DEBUG_VALUE: calculateDerivatives:sysBoundaries <- [DW_OP_plus_uconst 32] [$rbp+0]
	#DEBUG_VALUE: calculateDerivatives:RKCase <- [DW_OP_plus_uconst 40] [$rbp+0]
	.loc	1 200 1                 # fieldsolver/derivatives.cpp:200:1
	vmovsd	8(%r13), %xmm1          # xmm1 = mem[0],zero
	vaddsd	8(%rcx), %xmm1, %xmm1
	vmovsd	8(%rax), %xmm2          # xmm2 = mem[0],zero
	vaddsd	%xmm2, %xmm2, %xmm2
	vsubsd	%xmm2, %xmm1, %xmm1
	vmovsd	%xmm1, 72(%rbx)
	vmovsd	16(%r13), %xmm1         # xmm1 = mem[0],zero
	vaddsd	16(%rcx), %xmm1, %xmm1
	vmovsd	16(%rax), %xmm2         # xmm2 = mem[0],zero
	vaddsd	%xmm2, %xmm2, %xmm2
	vsubsd	%xmm2, %xmm1, %xmm1
	jmp	.LBB0_125
.Ltmp143:
.LBB0_124:                              # %L.B0003
	#DEBUG_VALUE: centPerB <- $rax
	#DEBUG_VALUE: centMoments <- [DW_OP_constu 128, DW_OP_minus] [$rbp+0]
	#DEBUG_VALUE: sysBoundaryLayer <- [DW_OP_constu 144, DW_OP_minus] [$rbp+0]
	#DEBUG_VALUE: sysBoundaryFlag <- [DW_OP_constu 156, DW_OP_minus] [$rbp+0]
	#DEBUG_VALUE: dMoments <- [DW_OP_constu 200, DW_OP_minus] [$rbp+0]
	#DEBUG_VALUE: dPerB <- [DW_OP_constu 168, DW_OP_minus] [$rbp+0]
	#DEBUG_VALUE: calculateDerivatives:perBGrid <- [DW_OP_constu 104, DW_OP_minus] [$rbp+0]
	#DEBUG_VALUE: calculateDerivatives:momentsGrid <- [DW_OP_constu 120, DW_OP_minus] [$rbp+0]
	#DEBUG_VALUE: calculateDerivatives:dMomentsGrid <- [DW_OP_plus_uconst 16] [$rbp+0]
	#DEBUG_VALUE: calculateDerivatives:technicalGrid <- [DW_OP_plus_uconst 24] [$rbp+0]
	#DEBUG_VALUE: calculateDerivatives:sysBoundaries <- [DW_OP_plus_uconst 32] [$rbp+0]
	#DEBUG_VALUE: calculateDerivatives:RKCase <- [DW_OP_plus_uconst 40] [$rbp+0]
	movq	$0, 72(%rbx)
	vxorpd	%xmm1, %xmm1, %xmm1
.Ltmp144:
.LBB0_125:                              # %L.B0015
	#DEBUG_VALUE: centPerB <- $rax
	#DEBUG_VALUE: centMoments <- [DW_OP_constu 128, DW_OP_minus] [$rbp+0]
	#DEBUG_VALUE: sysBoundaryLayer <- [DW_OP_constu 144, DW_OP_minus] [$rbp+0]
	#DEBUG_VALUE: sysBoundaryFlag <- [DW_OP_constu 156, DW_OP_minus] [$rbp+0]
	#DEBUG_VALUE: dMoments <- [DW_OP_constu 200, DW_OP_minus] [$rbp+0]
	#DEBUG_VALUE: dPerB <- [DW_OP_constu 168, DW_OP_minus] [$rbp+0]
	#DEBUG_VALUE: calculateDerivatives:perBGrid <- [DW_OP_constu 104, DW_OP_minus] [$rbp+0]
	#DEBUG_VALUE: calculateDerivatives:momentsGrid <- [DW_OP_constu 120, DW_OP_minus] [$rbp+0]
	#DEBUG_VALUE: calculateDerivatives:dMomentsGrid <- [DW_OP_plus_uconst 16] [$rbp+0]
	#DEBUG_VALUE: calculateDerivatives:technicalGrid <- [DW_OP_plus_uconst 24] [$rbp+0]
	#DEBUG_VALUE: calculateDerivatives:sysBoundaries <- [DW_OP_plus_uconst 32] [$rbp+0]
	#DEBUG_VALUE: calculateDerivatives:RKCase <- [DW_OP_plus_uconst 40] [$rbp+0]
	vmovsd	%xmm1, 96(%rbx)
.Ltmp145:
	.loc	1 133 1                 # fieldsolver/derivatives.cpp:133:1
	leal	-1(%rsi), %r12d
	.loc	1 707 1                 # fieldsolver/derivatives.cpp:707:1
	movl	264(%r11), %ecx
	.loc	1 715 1                 # fieldsolver/derivatives.cpp:715:1
	movl	268(%r11), %eax
.Ltmp146:
	.loc	1 0 1 is_stmt 0         # fieldsolver/derivatives.cpp:0:1
	movl	%ecx, -68(%rbp)         # 4-byte Spill
	.loc	1 707 1 is_stmt 1       # fieldsolver/derivatives.cpp:707:1
	cmpl	%r15d, %ecx
	movl	$-1, %r13d
	movl	$-1, %r8d
	cmovgl	-108(%rbp), %r8d        # 4-byte Folded Reload
	movq	%r15, %r10
	movq	%r11, %r15
	movq	-184(%rbp), %r11        # 8-byte Reload
                                        # kill: def $r11d killed $r11d killed $r11 def $r11
	cmovgl	-132(%rbp), %r11d       # 4-byte Folded Reload
	.loc	1 711 1                 # fieldsolver/derivatives.cpp:711:1
	leal	-3(%r11), %edx
	movl	%r12d, %r14d
	shrl	$31, %r14d
	testl	%r12d, %r12d
	movl	%edx, %ecx
	cmovnsl	%r11d, %ecx
	.loc	1 715 1                 # fieldsolver/derivatives.cpp:715:1
	leal	3(%rcx), %ebx
	movl	%eax, -88(%rbp)         # 4-byte Spill
	cmpl	%eax, %r12d
	movl	$-1, %eax
	cmovll	%r14d, %eax
	cmovll	%ecx, %ebx
	.loc	1 723 1                 # fieldsolver/derivatives.cpp:723:1
	movl	272(%r15), %esi
	xorl	%r9d, %r9d
	movq	-64(%rbp), %rcx         # 8-byte Reload
	movl	%esi, -92(%rbp)         # 4-byte Spill
	cmpl	%ecx, %esi
	setle	%r9b
	cmovgl	-72(%rbp), %r13d        # 4-byte Folded Reload
	.loc	1 719 1                 # fieldsolver/derivatives.cpp:719:1
	addl	-96(%rbp), %r9d         # 4-byte Folded Reload
	.loc	1 723 1                 # fieldsolver/derivatives.cpp:723:1
	addl	%r9d, %ebx
	.loc	1 0 0 is_stmt 0         # fieldsolver/derivatives.cpp:0:0
	movl	%ecx, %edi
	movl	%r12d, %esi
	movl	%r10d, %ecx
	.loc	1 776 1 is_stmt 1       # fieldsolver/derivatives.cpp:776:1
	cmpl	$13, %ebx
	je	.LBB0_130
.Ltmp147:
# %bb.126:                              # %L.B2014
	#DEBUG_VALUE: centMoments <- [DW_OP_constu 128, DW_OP_minus] [$rbp+0]
	#DEBUG_VALUE: sysBoundaryLayer <- [DW_OP_constu 144, DW_OP_minus] [$rbp+0]
	#DEBUG_VALUE: sysBoundaryFlag <- [DW_OP_constu 156, DW_OP_minus] [$rbp+0]
	#DEBUG_VALUE: dMoments <- [DW_OP_constu 200, DW_OP_minus] [$rbp+0]
	#DEBUG_VALUE: dPerB <- [DW_OP_constu 168, DW_OP_minus] [$rbp+0]
	#DEBUG_VALUE: calculateDerivatives:perBGrid <- [DW_OP_constu 104, DW_OP_minus] [$rbp+0]
	#DEBUG_VALUE: calculateDerivatives:momentsGrid <- [DW_OP_constu 120, DW_OP_minus] [$rbp+0]
	#DEBUG_VALUE: calculateDerivatives:dMomentsGrid <- [DW_OP_plus_uconst 16] [$rbp+0]
	#DEBUG_VALUE: calculateDerivatives:technicalGrid <- [DW_OP_plus_uconst 24] [$rbp+0]
	#DEBUG_VALUE: calculateDerivatives:sysBoundaries <- [DW_OP_plus_uconst 32] [$rbp+0]
	#DEBUG_VALUE: calculateDerivatives:RKCase <- [DW_OP_plus_uconst 40] [$rbp+0]
	.loc	1 779 1                 # fieldsolver/derivatives.cpp:779:1
	movslq	%ebx, %rcx
	movl	92(%r15,%rcx,4), %ebx
	cmpl	$-2, %ebx
	jne	.LBB0_128
.Ltmp148:
# %bb.127:
	#DEBUG_VALUE: centMoments <- [DW_OP_constu 128, DW_OP_minus] [$rbp+0]
	#DEBUG_VALUE: sysBoundaryLayer <- [DW_OP_constu 144, DW_OP_minus] [$rbp+0]
	#DEBUG_VALUE: sysBoundaryFlag <- [DW_OP_constu 156, DW_OP_minus] [$rbp+0]
	#DEBUG_VALUE: dMoments <- [DW_OP_constu 200, DW_OP_minus] [$rbp+0]
	#DEBUG_VALUE: dPerB <- [DW_OP_constu 168, DW_OP_minus] [$rbp+0]
	#DEBUG_VALUE: calculateDerivatives:perBGrid <- [DW_OP_constu 104, DW_OP_minus] [$rbp+0]
	#DEBUG_VALUE: calculateDerivatives:momentsGrid <- [DW_OP_constu 120, DW_OP_minus] [$rbp+0]
	#DEBUG_VALUE: calculateDerivatives:dMomentsGrid <- [DW_OP_plus_uconst 16] [$rbp+0]
	#DEBUG_VALUE: calculateDerivatives:technicalGrid <- [DW_OP_plus_uconst 24] [$rbp+0]
	#DEBUG_VALUE: calculateDerivatives:sysBoundaries <- [DW_OP_plus_uconst 32] [$rbp+0]
	#DEBUG_VALUE: calculateDerivatives:RKCase <- [DW_OP_plus_uconst 40] [$rbp+0]
	.loc	1 0 1 is_stmt 0         # fieldsolver/derivatives.cpp:0:1
	xorl	%eax, %eax
	jmp	.LBB0_135
.Ltmp149:
.LBB0_128:                              # %L..inline.80748
	#DEBUG_VALUE: centMoments <- [DW_OP_constu 128, DW_OP_minus] [$rbp+0]
	#DEBUG_VALUE: sysBoundaryLayer <- [DW_OP_constu 144, DW_OP_minus] [$rbp+0]
	#DEBUG_VALUE: sysBoundaryFlag <- [DW_OP_constu 156, DW_OP_minus] [$rbp+0]
	#DEBUG_VALUE: dMoments <- [DW_OP_constu 200, DW_OP_minus] [$rbp+0]
	#DEBUG_VALUE: dPerB <- [DW_OP_constu 168, DW_OP_minus] [$rbp+0]
	#DEBUG_VALUE: calculateDerivatives:perBGrid <- [DW_OP_constu 104, DW_OP_minus] [$rbp+0]
	#DEBUG_VALUE: calculateDerivatives:momentsGrid <- [DW_OP_constu 120, DW_OP_minus] [$rbp+0]
	#DEBUG_VALUE: calculateDerivatives:dMomentsGrid <- [DW_OP_plus_uconst 16] [$rbp+0]
	#DEBUG_VALUE: calculateDerivatives:technicalGrid <- [DW_OP_plus_uconst 24] [$rbp+0]
	#DEBUG_VALUE: calculateDerivatives:sysBoundaries <- [DW_OP_plus_uconst 32] [$rbp+0]
	#DEBUG_VALUE: calculateDerivatives:RKCase <- [DW_OP_plus_uconst 40] [$rbp+0]
	movq	-64(%rbp), %rcx         # 8-byte Reload
	movl	%ecx, %edi
	movl	%r12d, %esi
	movl	%r10d, %ecx
	.loc	1 784 1 is_stmt 1       # fieldsolver/derivatives.cpp:784:1
	cmpl	56(%r15), %ebx
	jne	.LBB0_130
.Ltmp150:
# %bb.129:                              # %L.B2016
	#DEBUG_VALUE: centMoments <- [DW_OP_constu 128, DW_OP_minus] [$rbp+0]
	#DEBUG_VALUE: sysBoundaryLayer <- [DW_OP_constu 144, DW_OP_minus] [$rbp+0]
	#DEBUG_VALUE: sysBoundaryFlag <- [DW_OP_constu 156, DW_OP_minus] [$rbp+0]
	#DEBUG_VALUE: dMoments <- [DW_OP_constu 200, DW_OP_minus] [$rbp+0]
	#DEBUG_VALUE: dPerB <- [DW_OP_constu 168, DW_OP_minus] [$rbp+0]
	#DEBUG_VALUE: calculateDerivatives:perBGrid <- [DW_OP_constu 104, DW_OP_minus] [$rbp+0]
	#DEBUG_VALUE: calculateDerivatives:momentsGrid <- [DW_OP_constu 120, DW_OP_minus] [$rbp+0]
	#DEBUG_VALUE: calculateDerivatives:dMomentsGrid <- [DW_OP_plus_uconst 16] [$rbp+0]
	#DEBUG_VALUE: calculateDerivatives:technicalGrid <- [DW_OP_plus_uconst 24] [$rbp+0]
	#DEBUG_VALUE: calculateDerivatives:sysBoundaries <- [DW_OP_plus_uconst 32] [$rbp+0]
	#DEBUG_VALUE: calculateDerivatives:RKCase <- [DW_OP_plus_uconst 40] [$rbp+0]
	.loc	1 787 1                 # fieldsolver/derivatives.cpp:787:1
	movl	%r8d, %ecx
	imull	-68(%rbp), %ecx         # 4-byte Folded Reload
	addl	%r10d, %ecx
	.loc	1 788 1                 # fieldsolver/derivatives.cpp:788:1
	imull	-88(%rbp), %eax         # 4-byte Folded Reload
	addl	%r12d, %eax
	.loc	1 789 1                 # fieldsolver/derivatives.cpp:789:1
	movl	%r13d, %edi
	imull	-92(%rbp), %edi         # 4-byte Folded Reload
	addl	-64(%rbp), %edi         # 4-byte Folded Reload
	.loc	1 0 0 is_stmt 0         # fieldsolver/derivatives.cpp:0:0
	movl	%eax, %esi
.Ltmp151:
.LBB0_130:                              # %L..inline.80731
	#DEBUG_VALUE: centMoments <- [DW_OP_constu 128, DW_OP_minus] [$rbp+0]
	#DEBUG_VALUE: sysBoundaryLayer <- [DW_OP_constu 144, DW_OP_minus] [$rbp+0]
	#DEBUG_VALUE: sysBoundaryFlag <- [DW_OP_constu 156, DW_OP_minus] [$rbp+0]
	#DEBUG_VALUE: dMoments <- [DW_OP_constu 200, DW_OP_minus] [$rbp+0]
	#DEBUG_VALUE: dPerB <- [DW_OP_constu 168, DW_OP_minus] [$rbp+0]
	#DEBUG_VALUE: calculateDerivatives:perBGrid <- [DW_OP_constu 104, DW_OP_minus] [$rbp+0]
	#DEBUG_VALUE: calculateDerivatives:momentsGrid <- [DW_OP_constu 120, DW_OP_minus] [$rbp+0]
	#DEBUG_VALUE: calculateDerivatives:dMomentsGrid <- [DW_OP_plus_uconst 16] [$rbp+0]
	#DEBUG_VALUE: calculateDerivatives:technicalGrid <- [DW_OP_plus_uconst 24] [$rbp+0]
	#DEBUG_VALUE: calculateDerivatives:sysBoundaries <- [DW_OP_plus_uconst 32] [$rbp+0]
	#DEBUG_VALUE: calculateDerivatives:RKCase <- [DW_OP_plus_uconst 40] [$rbp+0]
	.loc	1 793 1 is_stmt 1       # fieldsolver/derivatives.cpp:793:1
	cmpl	$2, 260(%r15)
	jge	.LBB0_132
.Ltmp152:
# %bb.131:
	#DEBUG_VALUE: centMoments <- [DW_OP_constu 128, DW_OP_minus] [$rbp+0]
	#DEBUG_VALUE: sysBoundaryLayer <- [DW_OP_constu 144, DW_OP_minus] [$rbp+0]
	#DEBUG_VALUE: sysBoundaryFlag <- [DW_OP_constu 156, DW_OP_minus] [$rbp+0]
	#DEBUG_VALUE: dMoments <- [DW_OP_constu 200, DW_OP_minus] [$rbp+0]
	#DEBUG_VALUE: dPerB <- [DW_OP_constu 168, DW_OP_minus] [$rbp+0]
	#DEBUG_VALUE: calculateDerivatives:perBGrid <- [DW_OP_constu 104, DW_OP_minus] [$rbp+0]
	#DEBUG_VALUE: calculateDerivatives:momentsGrid <- [DW_OP_constu 120, DW_OP_minus] [$rbp+0]
	#DEBUG_VALUE: calculateDerivatives:dMomentsGrid <- [DW_OP_plus_uconst 16] [$rbp+0]
	#DEBUG_VALUE: calculateDerivatives:technicalGrid <- [DW_OP_plus_uconst 24] [$rbp+0]
	#DEBUG_VALUE: calculateDerivatives:sysBoundaries <- [DW_OP_plus_uconst 32] [$rbp+0]
	#DEBUG_VALUE: calculateDerivatives:RKCase <- [DW_OP_plus_uconst 40] [$rbp+0]
	.loc	1 0 1 is_stmt 0         # fieldsolver/derivatives.cpp:0:1
	xorl	%eax, %eax
	.loc	1 793 1                 # fieldsolver/derivatives.cpp:793:1
	cmpl	$2, 256(%r15)
	jge	.LBB0_133
	jmp	.LBB0_134
.Ltmp153:
.LBB0_132:                              # %L.B2017
	#DEBUG_VALUE: centMoments <- [DW_OP_constu 128, DW_OP_minus] [$rbp+0]
	#DEBUG_VALUE: sysBoundaryLayer <- [DW_OP_constu 144, DW_OP_minus] [$rbp+0]
	#DEBUG_VALUE: sysBoundaryFlag <- [DW_OP_constu 156, DW_OP_minus] [$rbp+0]
	#DEBUG_VALUE: dMoments <- [DW_OP_constu 200, DW_OP_minus] [$rbp+0]
	#DEBUG_VALUE: dPerB <- [DW_OP_constu 168, DW_OP_minus] [$rbp+0]
	#DEBUG_VALUE: calculateDerivatives:perBGrid <- [DW_OP_constu 104, DW_OP_minus] [$rbp+0]
	#DEBUG_VALUE: calculateDerivatives:momentsGrid <- [DW_OP_constu 120, DW_OP_minus] [$rbp+0]
	#DEBUG_VALUE: calculateDerivatives:dMomentsGrid <- [DW_OP_plus_uconst 16] [$rbp+0]
	#DEBUG_VALUE: calculateDerivatives:technicalGrid <- [DW_OP_plus_uconst 24] [$rbp+0]
	#DEBUG_VALUE: calculateDerivatives:sysBoundaries <- [DW_OP_plus_uconst 32] [$rbp+0]
	#DEBUG_VALUE: calculateDerivatives:RKCase <- [DW_OP_plus_uconst 40] [$rbp+0]
	addl	$2, %edi
	imull	280(%r15), %edi
	imull	276(%r15), %edi
	movslq	%edi, %rax
	cmpl	$2, 256(%r15)
	jl	.LBB0_134
.Ltmp154:
.LBB0_133:                              # %L.B2018
	#DEBUG_VALUE: centMoments <- [DW_OP_constu 128, DW_OP_minus] [$rbp+0]
	#DEBUG_VALUE: sysBoundaryLayer <- [DW_OP_constu 144, DW_OP_minus] [$rbp+0]
	#DEBUG_VALUE: sysBoundaryFlag <- [DW_OP_constu 156, DW_OP_minus] [$rbp+0]
	#DEBUG_VALUE: dMoments <- [DW_OP_constu 200, DW_OP_minus] [$rbp+0]
	#DEBUG_VALUE: dPerB <- [DW_OP_constu 168, DW_OP_minus] [$rbp+0]
	#DEBUG_VALUE: calculateDerivatives:perBGrid <- [DW_OP_constu 104, DW_OP_minus] [$rbp+0]
	#DEBUG_VALUE: calculateDerivatives:momentsGrid <- [DW_OP_constu 120, DW_OP_minus] [$rbp+0]
	#DEBUG_VALUE: calculateDerivatives:dMomentsGrid <- [DW_OP_plus_uconst 16] [$rbp+0]
	#DEBUG_VALUE: calculateDerivatives:technicalGrid <- [DW_OP_plus_uconst 24] [$rbp+0]
	#DEBUG_VALUE: calculateDerivatives:sysBoundaries <- [DW_OP_plus_uconst 32] [$rbp+0]
	#DEBUG_VALUE: calculateDerivatives:RKCase <- [DW_OP_plus_uconst 40] [$rbp+0]
	addl	$2, %esi
	imull	276(%r15), %esi
	movslq	%esi, %rsi
	addq	%rsi, %rax
.Ltmp155:
.LBB0_134:                              # %L..inline.80889
	#DEBUG_VALUE: centMoments <- [DW_OP_constu 128, DW_OP_minus] [$rbp+0]
	#DEBUG_VALUE: sysBoundaryLayer <- [DW_OP_constu 144, DW_OP_minus] [$rbp+0]
	#DEBUG_VALUE: sysBoundaryFlag <- [DW_OP_constu 156, DW_OP_minus] [$rbp+0]
	#DEBUG_VALUE: dMoments <- [DW_OP_constu 200, DW_OP_minus] [$rbp+0]
	#DEBUG_VALUE: dPerB <- [DW_OP_constu 168, DW_OP_minus] [$rbp+0]
	#DEBUG_VALUE: calculateDerivatives:perBGrid <- [DW_OP_constu 104, DW_OP_minus] [$rbp+0]
	#DEBUG_VALUE: calculateDerivatives:momentsGrid <- [DW_OP_constu 120, DW_OP_minus] [$rbp+0]
	#DEBUG_VALUE: calculateDerivatives:dMomentsGrid <- [DW_OP_plus_uconst 16] [$rbp+0]
	#DEBUG_VALUE: calculateDerivatives:technicalGrid <- [DW_OP_plus_uconst 24] [$rbp+0]
	#DEBUG_VALUE: calculateDerivatives:sysBoundaries <- [DW_OP_plus_uconst 32] [$rbp+0]
	#DEBUG_VALUE: calculateDerivatives:RKCase <- [DW_OP_plus_uconst 40] [$rbp+0]
	movslq	%ecx, %rcx
	addq	$2, %rcx
	xorl	%esi, %esi
	cmpl	$2, 252(%r15)
	cmovgeq	%rcx, %rsi
	addq	%rax, %rsi
	.loc	1 795 1 is_stmt 1       # fieldsolver/derivatives.cpp:795:1
	leaq	(%rsi,%rsi,2), %rax
	shlq	$3, %rax
	addq	744(%r15), %rax
.Ltmp156:
.LBB0_135:                              # %L..inline.80935
	#DEBUG_VALUE: centMoments <- [DW_OP_constu 128, DW_OP_minus] [$rbp+0]
	#DEBUG_VALUE: sysBoundaryLayer <- [DW_OP_constu 144, DW_OP_minus] [$rbp+0]
	#DEBUG_VALUE: sysBoundaryFlag <- [DW_OP_constu 156, DW_OP_minus] [$rbp+0]
	#DEBUG_VALUE: dMoments <- [DW_OP_constu 200, DW_OP_minus] [$rbp+0]
	#DEBUG_VALUE: dPerB <- [DW_OP_constu 168, DW_OP_minus] [$rbp+0]
	#DEBUG_VALUE: calculateDerivatives:perBGrid <- [DW_OP_constu 104, DW_OP_minus] [$rbp+0]
	#DEBUG_VALUE: calculateDerivatives:momentsGrid <- [DW_OP_constu 120, DW_OP_minus] [$rbp+0]
	#DEBUG_VALUE: calculateDerivatives:dMomentsGrid <- [DW_OP_plus_uconst 16] [$rbp+0]
	#DEBUG_VALUE: calculateDerivatives:technicalGrid <- [DW_OP_plus_uconst 24] [$rbp+0]
	#DEBUG_VALUE: calculateDerivatives:sysBoundaries <- [DW_OP_plus_uconst 32] [$rbp+0]
	#DEBUG_VALUE: calculateDerivatives:RKCase <- [DW_OP_plus_uconst 40] [$rbp+0]
	.loc	1 0 1 is_stmt 0         # fieldsolver/derivatives.cpp:0:1
	movq	%rax, -176(%rbp)        # 8-byte Spill
.Ltmp157:
	#DEBUG_VALUE: leftPerB <- undef
	movq	-48(%rbp), %rax         # 8-byte Reload
	.loc	1 134 1 is_stmt 1       # fieldsolver/derivatives.cpp:134:1
	leal	1(%rax), %r15d
	.loc	1 711 1                 # fieldsolver/derivatives.cpp:711:1
	movl	%r15d, %ecx
	shrl	$31, %ecx
	testl	%r15d, %r15d
	cmovnsl	%r11d, %edx
	.loc	1 715 1                 # fieldsolver/derivatives.cpp:715:1
	leal	3(%rdx), %eax
	cmpl	-88(%rbp), %r15d        # 4-byte Folded Reload
	movl	$-1, %esi
	movl	%ecx, -152(%rbp)        # 4-byte Spill
	cmovll	%ecx, %esi
	cmovll	%edx, %eax
	.loc	1 723 1                 # fieldsolver/derivatives.cpp:723:1
	addl	%eax, %r9d
	movq	-64(%rbp), %rax         # 8-byte Reload
	.loc	1 0 0 is_stmt 0         # fieldsolver/derivatives.cpp:0:0
	movl	%eax, %edi
	movl	%r15d, %edx
	movq	-56(%rbp), %rax         # 8-byte Reload
                                        # kill: def $eax killed $eax killed $rax
	.loc	1 776 1 is_stmt 1       # fieldsolver/derivatives.cpp:776:1
	cmpl	$13, %r9d
	movq	-104(%rbp), %rcx        # 8-byte Reload
	je	.LBB0_140
.Ltmp158:
# %bb.136:                              # %L.B2025
	#DEBUG_VALUE: centMoments <- [DW_OP_constu 128, DW_OP_minus] [$rbp+0]
	#DEBUG_VALUE: sysBoundaryLayer <- [DW_OP_constu 144, DW_OP_minus] [$rbp+0]
	#DEBUG_VALUE: sysBoundaryFlag <- [DW_OP_constu 156, DW_OP_minus] [$rbp+0]
	#DEBUG_VALUE: dMoments <- [DW_OP_constu 200, DW_OP_minus] [$rbp+0]
	#DEBUG_VALUE: dPerB <- [DW_OP_constu 168, DW_OP_minus] [$rbp+0]
	#DEBUG_VALUE: calculateDerivatives:perBGrid <- [DW_OP_constu 104, DW_OP_minus] [$rbp+0]
	#DEBUG_VALUE: calculateDerivatives:momentsGrid <- [DW_OP_constu 120, DW_OP_minus] [$rbp+0]
	#DEBUG_VALUE: calculateDerivatives:dMomentsGrid <- [DW_OP_plus_uconst 16] [$rbp+0]
	#DEBUG_VALUE: calculateDerivatives:technicalGrid <- [DW_OP_plus_uconst 24] [$rbp+0]
	#DEBUG_VALUE: calculateDerivatives:sysBoundaries <- [DW_OP_plus_uconst 32] [$rbp+0]
	#DEBUG_VALUE: calculateDerivatives:RKCase <- [DW_OP_plus_uconst 40] [$rbp+0]
	.loc	1 779 1                 # fieldsolver/derivatives.cpp:779:1
	movslq	%r9d, %rax
	movl	92(%rcx,%rax,4), %ebx
	cmpl	$-2, %ebx
	jne	.LBB0_138
.Ltmp159:
# %bb.137:
	#DEBUG_VALUE: centMoments <- [DW_OP_constu 128, DW_OP_minus] [$rbp+0]
	#DEBUG_VALUE: sysBoundaryLayer <- [DW_OP_constu 144, DW_OP_minus] [$rbp+0]
	#DEBUG_VALUE: sysBoundaryFlag <- [DW_OP_constu 156, DW_OP_minus] [$rbp+0]
	#DEBUG_VALUE: dMoments <- [DW_OP_constu 200, DW_OP_minus] [$rbp+0]
	#DEBUG_VALUE: dPerB <- [DW_OP_constu 168, DW_OP_minus] [$rbp+0]
	#DEBUG_VALUE: calculateDerivatives:perBGrid <- [DW_OP_constu 104, DW_OP_minus] [$rbp+0]
	#DEBUG_VALUE: calculateDerivatives:momentsGrid <- [DW_OP_constu 120, DW_OP_minus] [$rbp+0]
	#DEBUG_VALUE: calculateDerivatives:dMomentsGrid <- [DW_OP_plus_uconst 16] [$rbp+0]
	#DEBUG_VALUE: calculateDerivatives:technicalGrid <- [DW_OP_plus_uconst 24] [$rbp+0]
	#DEBUG_VALUE: calculateDerivatives:sysBoundaries <- [DW_OP_plus_uconst 32] [$rbp+0]
	#DEBUG_VALUE: calculateDerivatives:RKCase <- [DW_OP_plus_uconst 40] [$rbp+0]
	.loc	1 0 1 is_stmt 0         # fieldsolver/derivatives.cpp:0:1
	xorl	%eax, %eax
	movq	%rax, -88(%rbp)         # 8-byte Spill
	movq	-184(%rbp), %rdi        # 8-byte Reload
	jmp	.LBB0_146
.Ltmp160:
.LBB0_138:                              # %L..inline.81015
	#DEBUG_VALUE: centMoments <- [DW_OP_constu 128, DW_OP_minus] [$rbp+0]
	#DEBUG_VALUE: sysBoundaryLayer <- [DW_OP_constu 144, DW_OP_minus] [$rbp+0]
	#DEBUG_VALUE: sysBoundaryFlag <- [DW_OP_constu 156, DW_OP_minus] [$rbp+0]
	#DEBUG_VALUE: dMoments <- [DW_OP_constu 200, DW_OP_minus] [$rbp+0]
	#DEBUG_VALUE: dPerB <- [DW_OP_constu 168, DW_OP_minus] [$rbp+0]
	#DEBUG_VALUE: calculateDerivatives:perBGrid <- [DW_OP_constu 104, DW_OP_minus] [$rbp+0]
	#DEBUG_VALUE: calculateDerivatives:momentsGrid <- [DW_OP_constu 120, DW_OP_minus] [$rbp+0]
	#DEBUG_VALUE: calculateDerivatives:dMomentsGrid <- [DW_OP_plus_uconst 16] [$rbp+0]
	#DEBUG_VALUE: calculateDerivatives:technicalGrid <- [DW_OP_plus_uconst 24] [$rbp+0]
	#DEBUG_VALUE: calculateDerivatives:sysBoundaries <- [DW_OP_plus_uconst 32] [$rbp+0]
	#DEBUG_VALUE: calculateDerivatives:RKCase <- [DW_OP_plus_uconst 40] [$rbp+0]
	movq	-64(%rbp), %rax         # 8-byte Reload
	movl	%eax, %edi
	movl	%r15d, %edx
	movq	-56(%rbp), %rax         # 8-byte Reload
                                        # kill: def $eax killed $eax killed $rax
	.loc	1 784 1 is_stmt 1       # fieldsolver/derivatives.cpp:784:1
	cmpl	56(%rcx), %ebx
	jne	.LBB0_140
.Ltmp161:
# %bb.139:                              # %L.B2027
	#DEBUG_VALUE: centMoments <- [DW_OP_constu 128, DW_OP_minus] [$rbp+0]
	#DEBUG_VALUE: sysBoundaryLayer <- [DW_OP_constu 144, DW_OP_minus] [$rbp+0]
	#DEBUG_VALUE: sysBoundaryFlag <- [DW_OP_constu 156, DW_OP_minus] [$rbp+0]
	#DEBUG_VALUE: dMoments <- [DW_OP_constu 200, DW_OP_minus] [$rbp+0]
	#DEBUG_VALUE: dPerB <- [DW_OP_constu 168, DW_OP_minus] [$rbp+0]
	#DEBUG_VALUE: calculateDerivatives:perBGrid <- [DW_OP_constu 104, DW_OP_minus] [$rbp+0]
	#DEBUG_VALUE: calculateDerivatives:momentsGrid <- [DW_OP_constu 120, DW_OP_minus] [$rbp+0]
	#DEBUG_VALUE: calculateDerivatives:dMomentsGrid <- [DW_OP_plus_uconst 16] [$rbp+0]
	#DEBUG_VALUE: calculateDerivatives:technicalGrid <- [DW_OP_plus_uconst 24] [$rbp+0]
	#DEBUG_VALUE: calculateDerivatives:sysBoundaries <- [DW_OP_plus_uconst 32] [$rbp+0]
	#DEBUG_VALUE: calculateDerivatives:RKCase <- [DW_OP_plus_uconst 40] [$rbp+0]
	.loc	1 787 1                 # fieldsolver/derivatives.cpp:787:1
	imull	-68(%rbp), %r8d         # 4-byte Folded Reload
	addl	-56(%rbp), %r8d         # 4-byte Folded Reload
	.loc	1 788 1                 # fieldsolver/derivatives.cpp:788:1
	imull	-88(%rbp), %esi         # 4-byte Folded Reload
	addl	%r15d, %esi
	.loc	1 789 1                 # fieldsolver/derivatives.cpp:789:1
	imull	-92(%rbp), %r13d        # 4-byte Folded Reload
	addl	-64(%rbp), %r13d        # 4-byte Folded Reload
	.loc	1 0 0 is_stmt 0         # fieldsolver/derivatives.cpp:0:0
	movl	%r13d, %edi
	movl	%esi, %edx
	movl	%r8d, %eax
.Ltmp162:
.LBB0_140:                              # %L..inline.80998
	#DEBUG_VALUE: centMoments <- [DW_OP_constu 128, DW_OP_minus] [$rbp+0]
	#DEBUG_VALUE: sysBoundaryLayer <- [DW_OP_constu 144, DW_OP_minus] [$rbp+0]
	#DEBUG_VALUE: sysBoundaryFlag <- [DW_OP_constu 156, DW_OP_minus] [$rbp+0]
	#DEBUG_VALUE: dMoments <- [DW_OP_constu 200, DW_OP_minus] [$rbp+0]
	#DEBUG_VALUE: dPerB <- [DW_OP_constu 168, DW_OP_minus] [$rbp+0]
	#DEBUG_VALUE: calculateDerivatives:perBGrid <- [DW_OP_constu 104, DW_OP_minus] [$rbp+0]
	#DEBUG_VALUE: calculateDerivatives:momentsGrid <- [DW_OP_constu 120, DW_OP_minus] [$rbp+0]
	#DEBUG_VALUE: calculateDerivatives:dMomentsGrid <- [DW_OP_plus_uconst 16] [$rbp+0]
	#DEBUG_VALUE: calculateDerivatives:technicalGrid <- [DW_OP_plus_uconst 24] [$rbp+0]
	#DEBUG_VALUE: calculateDerivatives:sysBoundaries <- [DW_OP_plus_uconst 32] [$rbp+0]
	#DEBUG_VALUE: calculateDerivatives:RKCase <- [DW_OP_plus_uconst 40] [$rbp+0]
	.loc	1 793 1 is_stmt 1       # fieldsolver/derivatives.cpp:793:1
	cmpl	$2, 260(%rcx)
	jge	.LBB0_142
.Ltmp163:
# %bb.141:
	#DEBUG_VALUE: centMoments <- [DW_OP_constu 128, DW_OP_minus] [$rbp+0]
	#DEBUG_VALUE: sysBoundaryLayer <- [DW_OP_constu 144, DW_OP_minus] [$rbp+0]
	#DEBUG_VALUE: sysBoundaryFlag <- [DW_OP_constu 156, DW_OP_minus] [$rbp+0]
	#DEBUG_VALUE: dMoments <- [DW_OP_constu 200, DW_OP_minus] [$rbp+0]
	#DEBUG_VALUE: dPerB <- [DW_OP_constu 168, DW_OP_minus] [$rbp+0]
	#DEBUG_VALUE: calculateDerivatives:perBGrid <- [DW_OP_constu 104, DW_OP_minus] [$rbp+0]
	#DEBUG_VALUE: calculateDerivatives:momentsGrid <- [DW_OP_constu 120, DW_OP_minus] [$rbp+0]
	#DEBUG_VALUE: calculateDerivatives:dMomentsGrid <- [DW_OP_plus_uconst 16] [$rbp+0]
	#DEBUG_VALUE: calculateDerivatives:technicalGrid <- [DW_OP_plus_uconst 24] [$rbp+0]
	#DEBUG_VALUE: calculateDerivatives:sysBoundaries <- [DW_OP_plus_uconst 32] [$rbp+0]
	#DEBUG_VALUE: calculateDerivatives:RKCase <- [DW_OP_plus_uconst 40] [$rbp+0]
	.loc	1 0 1 is_stmt 0         # fieldsolver/derivatives.cpp:0:1
	xorl	%esi, %esi
	jmp	.LBB0_143
.Ltmp164:
.LBB0_142:                              # %L.B2028
	#DEBUG_VALUE: centMoments <- [DW_OP_constu 128, DW_OP_minus] [$rbp+0]
	#DEBUG_VALUE: sysBoundaryLayer <- [DW_OP_constu 144, DW_OP_minus] [$rbp+0]
	#DEBUG_VALUE: sysBoundaryFlag <- [DW_OP_constu 156, DW_OP_minus] [$rbp+0]
	#DEBUG_VALUE: dMoments <- [DW_OP_constu 200, DW_OP_minus] [$rbp+0]
	#DEBUG_VALUE: dPerB <- [DW_OP_constu 168, DW_OP_minus] [$rbp+0]
	#DEBUG_VALUE: calculateDerivatives:perBGrid <- [DW_OP_constu 104, DW_OP_minus] [$rbp+0]
	#DEBUG_VALUE: calculateDerivatives:momentsGrid <- [DW_OP_constu 120, DW_OP_minus] [$rbp+0]
	#DEBUG_VALUE: calculateDerivatives:dMomentsGrid <- [DW_OP_plus_uconst 16] [$rbp+0]
	#DEBUG_VALUE: calculateDerivatives:technicalGrid <- [DW_OP_plus_uconst 24] [$rbp+0]
	#DEBUG_VALUE: calculateDerivatives:sysBoundaries <- [DW_OP_plus_uconst 32] [$rbp+0]
	#DEBUG_VALUE: calculateDerivatives:RKCase <- [DW_OP_plus_uconst 40] [$rbp+0]
	.loc	1 793 1                 # fieldsolver/derivatives.cpp:793:1
	addl	$2, %edi
	imull	280(%rcx), %edi
	imull	276(%rcx), %edi
	movslq	%edi, %rsi
.Ltmp165:
.LBB0_143:                              # %L..inline.81107
	#DEBUG_VALUE: centMoments <- [DW_OP_constu 128, DW_OP_minus] [$rbp+0]
	#DEBUG_VALUE: sysBoundaryLayer <- [DW_OP_constu 144, DW_OP_minus] [$rbp+0]
	#DEBUG_VALUE: sysBoundaryFlag <- [DW_OP_constu 156, DW_OP_minus] [$rbp+0]
	#DEBUG_VALUE: dMoments <- [DW_OP_constu 200, DW_OP_minus] [$rbp+0]
	#DEBUG_VALUE: dPerB <- [DW_OP_constu 168, DW_OP_minus] [$rbp+0]
	#DEBUG_VALUE: calculateDerivatives:perBGrid <- [DW_OP_constu 104, DW_OP_minus] [$rbp+0]
	#DEBUG_VALUE: calculateDerivatives:momentsGrid <- [DW_OP_constu 120, DW_OP_minus] [$rbp+0]
	#DEBUG_VALUE: calculateDerivatives:dMomentsGrid <- [DW_OP_plus_uconst 16] [$rbp+0]
	#DEBUG_VALUE: calculateDerivatives:technicalGrid <- [DW_OP_plus_uconst 24] [$rbp+0]
	#DEBUG_VALUE: calculateDerivatives:sysBoundaries <- [DW_OP_plus_uconst 32] [$rbp+0]
	#DEBUG_VALUE: calculateDerivatives:RKCase <- [DW_OP_plus_uconst 40] [$rbp+0]
	.loc	1 0 1                   # fieldsolver/derivatives.cpp:0:1
	movq	-184(%rbp), %rdi        # 8-byte Reload
	.loc	1 793 1                 # fieldsolver/derivatives.cpp:793:1
	cmpl	$2, 256(%rcx)
	jl	.LBB0_145
.Ltmp166:
# %bb.144:                              # %L.B2029
	#DEBUG_VALUE: centMoments <- [DW_OP_constu 128, DW_OP_minus] [$rbp+0]
	#DEBUG_VALUE: sysBoundaryLayer <- [DW_OP_constu 144, DW_OP_minus] [$rbp+0]
	#DEBUG_VALUE: sysBoundaryFlag <- [DW_OP_constu 156, DW_OP_minus] [$rbp+0]
	#DEBUG_VALUE: dMoments <- [DW_OP_constu 200, DW_OP_minus] [$rbp+0]
	#DEBUG_VALUE: dPerB <- [DW_OP_constu 168, DW_OP_minus] [$rbp+0]
	#DEBUG_VALUE: calculateDerivatives:perBGrid <- [DW_OP_constu 104, DW_OP_minus] [$rbp+0]
	#DEBUG_VALUE: calculateDerivatives:momentsGrid <- [DW_OP_constu 120, DW_OP_minus] [$rbp+0]
	#DEBUG_VALUE: calculateDerivatives:dMomentsGrid <- [DW_OP_plus_uconst 16] [$rbp+0]
	#DEBUG_VALUE: calculateDerivatives:technicalGrid <- [DW_OP_plus_uconst 24] [$rbp+0]
	#DEBUG_VALUE: calculateDerivatives:sysBoundaries <- [DW_OP_plus_uconst 32] [$rbp+0]
	#DEBUG_VALUE: calculateDerivatives:RKCase <- [DW_OP_plus_uconst 40] [$rbp+0]
	addl	$2, %edx
	imull	276(%rcx), %edx
	movslq	%edx, %rdx
	addq	%rdx, %rsi
.Ltmp167:
.LBB0_145:                              # %L..inline.81156
	#DEBUG_VALUE: centMoments <- [DW_OP_constu 128, DW_OP_minus] [$rbp+0]
	#DEBUG_VALUE: sysBoundaryLayer <- [DW_OP_constu 144, DW_OP_minus] [$rbp+0]
	#DEBUG_VALUE: sysBoundaryFlag <- [DW_OP_constu 156, DW_OP_minus] [$rbp+0]
	#DEBUG_VALUE: dMoments <- [DW_OP_constu 200, DW_OP_minus] [$rbp+0]
	#DEBUG_VALUE: dPerB <- [DW_OP_constu 168, DW_OP_minus] [$rbp+0]
	#DEBUG_VALUE: calculateDerivatives:perBGrid <- [DW_OP_constu 104, DW_OP_minus] [$rbp+0]
	#DEBUG_VALUE: calculateDerivatives:momentsGrid <- [DW_OP_constu 120, DW_OP_minus] [$rbp+0]
	#DEBUG_VALUE: calculateDerivatives:dMomentsGrid <- [DW_OP_plus_uconst 16] [$rbp+0]
	#DEBUG_VALUE: calculateDerivatives:technicalGrid <- [DW_OP_plus_uconst 24] [$rbp+0]
	#DEBUG_VALUE: calculateDerivatives:sysBoundaries <- [DW_OP_plus_uconst 32] [$rbp+0]
	#DEBUG_VALUE: calculateDerivatives:RKCase <- [DW_OP_plus_uconst 40] [$rbp+0]
	cltq
	addq	$2, %rax
	xorl	%edx, %edx
	cmpl	$2, 252(%rcx)
	cmovgeq	%rax, %rdx
	addq	%rsi, %rdx
	.loc	1 795 1 is_stmt 1       # fieldsolver/derivatives.cpp:795:1
	leaq	(%rdx,%rdx,2), %rax
	shlq	$3, %rax
	addq	744(%rcx), %rax
	movq	%rax, -88(%rbp)         # 8-byte Spill
.Ltmp168:
.LBB0_146:                              # %L..inline.81202
	#DEBUG_VALUE: centMoments <- [DW_OP_constu 128, DW_OP_minus] [$rbp+0]
	#DEBUG_VALUE: sysBoundaryLayer <- [DW_OP_constu 144, DW_OP_minus] [$rbp+0]
	#DEBUG_VALUE: sysBoundaryFlag <- [DW_OP_constu 156, DW_OP_minus] [$rbp+0]
	#DEBUG_VALUE: dMoments <- [DW_OP_constu 200, DW_OP_minus] [$rbp+0]
	#DEBUG_VALUE: dPerB <- [DW_OP_constu 168, DW_OP_minus] [$rbp+0]
	#DEBUG_VALUE: calculateDerivatives:perBGrid <- [DW_OP_constu 104, DW_OP_minus] [$rbp+0]
	#DEBUG_VALUE: calculateDerivatives:momentsGrid <- [DW_OP_constu 120, DW_OP_minus] [$rbp+0]
	#DEBUG_VALUE: calculateDerivatives:dMomentsGrid <- [DW_OP_plus_uconst 16] [$rbp+0]
	#DEBUG_VALUE: calculateDerivatives:technicalGrid <- [DW_OP_plus_uconst 24] [$rbp+0]
	#DEBUG_VALUE: calculateDerivatives:sysBoundaries <- [DW_OP_plus_uconst 32] [$rbp+0]
	#DEBUG_VALUE: calculateDerivatives:RKCase <- [DW_OP_plus_uconst 40] [$rbp+0]
	#DEBUG_VALUE: rghtPerB <- undef
	#DEBUG_VALUE: get: <- [DW_OP_constu 120, DW_OP_minus] [$rbp+0]
	#DEBUG_VALUE:  <- [DW_OP_constu 120, DW_OP_minus] [$rbp+0]
	#DEBUG_VALUE: get:x <- [DW_OP_constu 56, DW_OP_minus] [$rbp+0]
	#DEBUG_VALUE: x <- [DW_OP_constu 56, DW_OP_minus] [$rbp+0]
	#DEBUG_VALUE: get:y <- $r12d
	#DEBUG_VALUE: y <- $r12d
	#DEBUG_VALUE: get:z <- [DW_OP_constu 64, DW_OP_minus] [$rbp+0]
	#DEBUG_VALUE: z <- [DW_OP_constu 64, DW_OP_minus] [$rbp+0]
	#DEBUG_VALUE: isInNeighbourDomain <- [DW_OP_constu 132, DW_OP_minus] [$rbp+0]
	#DEBUG_VALUE: coord_shift <- [DW_OP_constu 108, DW_OP_minus, DW_OP_LLVM_fragment 0 32] [$rbp+0]
	#DEBUG_VALUE: coord_shift <- [DW_OP_LLVM_fragment 32 32] 0
	#DEBUG_VALUE: coord_shift <- [DW_OP_LLVM_fragment 64 32] 0
	.loc	1 0 1 is_stmt 0         # fieldsolver/derivatives.cpp:0:1
	movq	-120(%rbp), %rcx        # 8-byte Reload
.Ltmp169:
	.file	2 "/home/talgat/libs/fsgrid/fsgrid.hpp"
	.loc	2 186 1 is_stmt 1       # /home/talgat/libs/fsgrid/fsgrid.hpp:186:1
	movl	264(%rcx), %eax
.Ltmp170:
	#DEBUG_VALUE: coord_shift <- [DW_OP_LLVM_fragment 32 32] $r12d
	movl	268(%rcx), %r9d
	movq	-56(%rbp), %rsi         # 8-byte Reload
	movl	%eax, -68(%rbp)         # 4-byte Spill
	cmpl	%esi, %eax
	movl	%edi, %edx
	cmovgl	-132(%rbp), %edx        # 4-byte Folded Reload
	movl	$-1, %r13d
	movl	$-1, %r8d
	cmovgl	-108(%rbp), %r8d        # 4-byte Folded Reload
.Ltmp171:
	#DEBUG_VALUE: coord_shift <- [DW_OP_LLVM_fragment 0 32] $r8d
	#DEBUG_VALUE: isInNeighbourDomain <- $edx
	.loc	2 712 1                 # /home/talgat/libs/fsgrid/fsgrid.hpp:712:1
	leal	-3(%rdx), %r11d
.Ltmp172:
	.loc	1 711 1                 # fieldsolver/derivatives.cpp:711:1
	testl	%r12d, %r12d
.Ltmp173:
	.loc	2 711 1 is_stmt 0       # /home/talgat/libs/fsgrid/fsgrid.hpp:711:1
	movl	%r11d, %edi
.Ltmp174:
	#DEBUG_VALUE: coord_shift <- [DW_OP_LLVM_fragment 64 32] 0
	#DEBUG_VALUE: coord_shift <- [DW_OP_LLVM_fragment 32 32] $r12d
	#DEBUG_VALUE: coord_shift <- [DW_OP_LLVM_fragment 0 32] $r8d
	#DEBUG_VALUE: isInNeighbourDomain <- $edx
	#DEBUG_VALUE: z <- [DW_OP_constu 64, DW_OP_minus] [$rbp+0]
	#DEBUG_VALUE: get:z <- [DW_OP_constu 64, DW_OP_minus] [$rbp+0]
	#DEBUG_VALUE: y <- $r12d
	#DEBUG_VALUE: get:y <- $r12d
	#DEBUG_VALUE: x <- [DW_OP_constu 56, DW_OP_minus] [$rbp+0]
	#DEBUG_VALUE: get:x <- [DW_OP_constu 56, DW_OP_minus] [$rbp+0]
	#DEBUG_VALUE:  <- [DW_OP_constu 120, DW_OP_minus] [$rbp+0]
	#DEBUG_VALUE: get: <- [DW_OP_constu 120, DW_OP_minus] [$rbp+0]
	cmovnsl	%edx, %edi
.Ltmp175:
	#DEBUG_VALUE: isInNeighbourDomain <- $edi
	.loc	2 186 1 is_stmt 1       # /home/talgat/libs/fsgrid/fsgrid.hpp:186:1
	leal	3(%rdi), %eax
	cmpl	%r12d, %r9d
	cmovgl	%edi, %eax
	cmovlel	%r13d, %r14d
.Ltmp176:
	#DEBUG_VALUE: coord_shift <- [DW_OP_constu 72, DW_OP_minus, DW_OP_LLVM_fragment 64 32] [$rbp+0]
	#DEBUG_VALUE: isInNeighbourDomain <- undef
	movl	272(%rcx), %ebx
	xorl	%r10d, %r10d
	movq	-64(%rbp), %rdi         # 8-byte Reload
	cmpl	%edi, %ebx
	setle	%r10b
	cmovgl	-72(%rbp), %r13d        # 4-byte Folded Reload
.Ltmp177:
	#DEBUG_VALUE: coord_shift <- [DW_OP_LLVM_fragment 64 32] $r13d
	.loc	2 719 1                 # /home/talgat/libs/fsgrid/fsgrid.hpp:719:1
	addl	-96(%rbp), %r10d        # 4-byte Folded Reload
	.loc	2 186 1                 # /home/talgat/libs/fsgrid/fsgrid.hpp:186:1
	addl	%r10d, %eax
.Ltmp178:
	#DEBUG_VALUE: isInNeighbourDomain <- $eax
	.loc	2 776 1                 # /home/talgat/libs/fsgrid/fsgrid.hpp:776:1
	cmpl	$13, %eax
	jne	.LBB0_148
.Ltmp179:
# %bb.147:
	#DEBUG_VALUE: isInNeighbourDomain <- $eax
	#DEBUG_VALUE: coord_shift <- [DW_OP_LLVM_fragment 64 32] $r13d
	#DEBUG_VALUE: coord_shift <- [DW_OP_LLVM_fragment 0 32] $r8d
	#DEBUG_VALUE: coord_shift <- [DW_OP_LLVM_fragment 32 32] $r12d
	#DEBUG_VALUE: z <- [DW_OP_constu 64, DW_OP_minus] [$rbp+0]
	#DEBUG_VALUE: get:z <- [DW_OP_constu 64, DW_OP_minus] [$rbp+0]
	#DEBUG_VALUE: y <- $r12d
	#DEBUG_VALUE: get:y <- $r12d
	#DEBUG_VALUE: x <- [DW_OP_constu 56, DW_OP_minus] [$rbp+0]
	#DEBUG_VALUE: get:x <- [DW_OP_constu 56, DW_OP_minus] [$rbp+0]
	#DEBUG_VALUE:  <- [DW_OP_constu 120, DW_OP_minus] [$rbp+0]
	#DEBUG_VALUE: get: <- [DW_OP_constu 120, DW_OP_minus] [$rbp+0]
	#DEBUG_VALUE: centMoments <- [DW_OP_constu 128, DW_OP_minus] [$rbp+0]
	#DEBUG_VALUE: sysBoundaryLayer <- [DW_OP_constu 144, DW_OP_minus] [$rbp+0]
	#DEBUG_VALUE: sysBoundaryFlag <- [DW_OP_constu 156, DW_OP_minus] [$rbp+0]
	#DEBUG_VALUE: dMoments <- [DW_OP_constu 200, DW_OP_minus] [$rbp+0]
	#DEBUG_VALUE: dPerB <- [DW_OP_constu 168, DW_OP_minus] [$rbp+0]
	#DEBUG_VALUE: calculateDerivatives:perBGrid <- [DW_OP_constu 104, DW_OP_minus] [$rbp+0]
	#DEBUG_VALUE: calculateDerivatives:momentsGrid <- [DW_OP_constu 120, DW_OP_minus] [$rbp+0]
	#DEBUG_VALUE: calculateDerivatives:dMomentsGrid <- [DW_OP_plus_uconst 16] [$rbp+0]
	#DEBUG_VALUE: calculateDerivatives:technicalGrid <- [DW_OP_plus_uconst 24] [$rbp+0]
	#DEBUG_VALUE: calculateDerivatives:sysBoundaries <- [DW_OP_plus_uconst 32] [$rbp+0]
	#DEBUG_VALUE: calculateDerivatives:RKCase <- [DW_OP_plus_uconst 40] [$rbp+0]
                                        # kill: def $edi killed $edi killed $rdi
                                        # kill: def $esi killed $esi killed $rsi
	.loc	2 0 1 is_stmt 0         # /home/talgat/libs/fsgrid/fsgrid.hpp:0:1
	jmp	.LBB0_153
.Ltmp180:
.LBB0_148:                              # %L.B2774.i
	#DEBUG_VALUE: isInNeighbourDomain <- $eax
	#DEBUG_VALUE: coord_shift <- [DW_OP_LLVM_fragment 64 32] $r13d
	#DEBUG_VALUE: coord_shift <- [DW_OP_LLVM_fragment 0 32] $r8d
	#DEBUG_VALUE: coord_shift <- [DW_OP_LLVM_fragment 32 32] $r12d
	#DEBUG_VALUE: z <- [DW_OP_constu 64, DW_OP_minus] [$rbp+0]
	#DEBUG_VALUE: get:z <- [DW_OP_constu 64, DW_OP_minus] [$rbp+0]
	#DEBUG_VALUE: y <- $r12d
	#DEBUG_VALUE: get:y <- $r12d
	#DEBUG_VALUE: x <- [DW_OP_constu 56, DW_OP_minus] [$rbp+0]
	#DEBUG_VALUE: get:x <- [DW_OP_constu 56, DW_OP_minus] [$rbp+0]
	#DEBUG_VALUE:  <- [DW_OP_constu 120, DW_OP_minus] [$rbp+0]
	#DEBUG_VALUE: get: <- [DW_OP_constu 120, DW_OP_minus] [$rbp+0]
	#DEBUG_VALUE: centMoments <- [DW_OP_constu 128, DW_OP_minus] [$rbp+0]
	#DEBUG_VALUE: sysBoundaryLayer <- [DW_OP_constu 144, DW_OP_minus] [$rbp+0]
	#DEBUG_VALUE: sysBoundaryFlag <- [DW_OP_constu 156, DW_OP_minus] [$rbp+0]
	#DEBUG_VALUE: dMoments <- [DW_OP_constu 200, DW_OP_minus] [$rbp+0]
	#DEBUG_VALUE: dPerB <- [DW_OP_constu 168, DW_OP_minus] [$rbp+0]
	#DEBUG_VALUE: calculateDerivatives:perBGrid <- [DW_OP_constu 104, DW_OP_minus] [$rbp+0]
	#DEBUG_VALUE: calculateDerivatives:momentsGrid <- [DW_OP_constu 120, DW_OP_minus] [$rbp+0]
	#DEBUG_VALUE: calculateDerivatives:dMomentsGrid <- [DW_OP_plus_uconst 16] [$rbp+0]
	#DEBUG_VALUE: calculateDerivatives:technicalGrid <- [DW_OP_plus_uconst 24] [$rbp+0]
	#DEBUG_VALUE: calculateDerivatives:sysBoundaries <- [DW_OP_plus_uconst 32] [$rbp+0]
	#DEBUG_VALUE: calculateDerivatives:RKCase <- [DW_OP_plus_uconst 40] [$rbp+0]
	.loc	2 186 1 is_stmt 1       # /home/talgat/libs/fsgrid/fsgrid.hpp:186:1
	cltq
.Ltmp181:
	movl	92(%rcx,%rax,4), %eax
	cmpl	$-2, %eax
	jne	.LBB0_150
.Ltmp182:
# %bb.149:
	#DEBUG_VALUE: coord_shift <- [DW_OP_LLVM_fragment 64 32] $r13d
	#DEBUG_VALUE: coord_shift <- [DW_OP_LLVM_fragment 0 32] $r8d
	#DEBUG_VALUE: coord_shift <- [DW_OP_LLVM_fragment 32 32] $r12d
	#DEBUG_VALUE: z <- [DW_OP_constu 64, DW_OP_minus] [$rbp+0]
	#DEBUG_VALUE: get:z <- [DW_OP_constu 64, DW_OP_minus] [$rbp+0]
	#DEBUG_VALUE: y <- $r12d
	#DEBUG_VALUE: get:y <- $r12d
	#DEBUG_VALUE: x <- [DW_OP_constu 56, DW_OP_minus] [$rbp+0]
	#DEBUG_VALUE: get:x <- [DW_OP_constu 56, DW_OP_minus] [$rbp+0]
	#DEBUG_VALUE:  <- [DW_OP_constu 120, DW_OP_minus] [$rbp+0]
	#DEBUG_VALUE: get: <- [DW_OP_constu 120, DW_OP_minus] [$rbp+0]
	#DEBUG_VALUE: centMoments <- [DW_OP_constu 128, DW_OP_minus] [$rbp+0]
	#DEBUG_VALUE: sysBoundaryLayer <- [DW_OP_constu 144, DW_OP_minus] [$rbp+0]
	#DEBUG_VALUE: sysBoundaryFlag <- [DW_OP_constu 156, DW_OP_minus] [$rbp+0]
	#DEBUG_VALUE: dMoments <- [DW_OP_constu 200, DW_OP_minus] [$rbp+0]
	#DEBUG_VALUE: dPerB <- [DW_OP_constu 168, DW_OP_minus] [$rbp+0]
	#DEBUG_VALUE: calculateDerivatives:perBGrid <- [DW_OP_constu 104, DW_OP_minus] [$rbp+0]
	#DEBUG_VALUE: calculateDerivatives:momentsGrid <- [DW_OP_constu 120, DW_OP_minus] [$rbp+0]
	#DEBUG_VALUE: calculateDerivatives:dMomentsGrid <- [DW_OP_plus_uconst 16] [$rbp+0]
	#DEBUG_VALUE: calculateDerivatives:technicalGrid <- [DW_OP_plus_uconst 24] [$rbp+0]
	#DEBUG_VALUE: calculateDerivatives:sysBoundaries <- [DW_OP_plus_uconst 32] [$rbp+0]
	#DEBUG_VALUE: calculateDerivatives:RKCase <- [DW_OP_plus_uconst 40] [$rbp+0]
	.loc	2 0 1 is_stmt 0         # /home/talgat/libs/fsgrid/fsgrid.hpp:0:1
	xorl	%eax, %eax
	movq	-64(%rbp), %r12         # 8-byte Reload
.Ltmp183:
	jmp	.LBB0_158
.Ltmp184:
.LBB0_150:                              # %L.B0248.i
	#DEBUG_VALUE: coord_shift <- [DW_OP_LLVM_fragment 64 32] $r13d
	#DEBUG_VALUE: coord_shift <- [DW_OP_LLVM_fragment 0 32] $r8d
	#DEBUG_VALUE: coord_shift <- [DW_OP_LLVM_fragment 32 32] $r12d
	#DEBUG_VALUE: z <- [DW_OP_constu 64, DW_OP_minus] [$rbp+0]
	#DEBUG_VALUE: get:z <- [DW_OP_constu 64, DW_OP_minus] [$rbp+0]
	#DEBUG_VALUE: y <- $r12d
	#DEBUG_VALUE: get:y <- $r12d
	#DEBUG_VALUE: x <- [DW_OP_constu 56, DW_OP_minus] [$rbp+0]
	#DEBUG_VALUE: get:x <- [DW_OP_constu 56, DW_OP_minus] [$rbp+0]
	#DEBUG_VALUE:  <- [DW_OP_constu 120, DW_OP_minus] [$rbp+0]
	#DEBUG_VALUE: get: <- [DW_OP_constu 120, DW_OP_minus] [$rbp+0]
	#DEBUG_VALUE: centMoments <- [DW_OP_constu 128, DW_OP_minus] [$rbp+0]
	#DEBUG_VALUE: sysBoundaryLayer <- [DW_OP_constu 144, DW_OP_minus] [$rbp+0]
	#DEBUG_VALUE: sysBoundaryFlag <- [DW_OP_constu 156, DW_OP_minus] [$rbp+0]
	#DEBUG_VALUE: dMoments <- [DW_OP_constu 200, DW_OP_minus] [$rbp+0]
	#DEBUG_VALUE: dPerB <- [DW_OP_constu 168, DW_OP_minus] [$rbp+0]
	#DEBUG_VALUE: calculateDerivatives:perBGrid <- [DW_OP_constu 104, DW_OP_minus] [$rbp+0]
	#DEBUG_VALUE: calculateDerivatives:momentsGrid <- [DW_OP_constu 120, DW_OP_minus] [$rbp+0]
	#DEBUG_VALUE: calculateDerivatives:dMomentsGrid <- [DW_OP_plus_uconst 16] [$rbp+0]
	#DEBUG_VALUE: calculateDerivatives:technicalGrid <- [DW_OP_plus_uconst 24] [$rbp+0]
	#DEBUG_VALUE: calculateDerivatives:sysBoundaries <- [DW_OP_plus_uconst 32] [$rbp+0]
	#DEBUG_VALUE: calculateDerivatives:RKCase <- [DW_OP_plus_uconst 40] [$rbp+0]
	.loc	2 186 1                 # /home/talgat/libs/fsgrid/fsgrid.hpp:186:1
	cmpl	56(%rcx), %eax
	jne	.LBB0_152
.Ltmp185:
# %bb.151:                              # %L.B2777.i
	#DEBUG_VALUE: coord_shift <- [DW_OP_LLVM_fragment 64 32] $r13d
	#DEBUG_VALUE: coord_shift <- [DW_OP_LLVM_fragment 0 32] $r8d
	#DEBUG_VALUE: coord_shift <- [DW_OP_LLVM_fragment 32 32] $r12d
	#DEBUG_VALUE: z <- [DW_OP_constu 64, DW_OP_minus] [$rbp+0]
	#DEBUG_VALUE: get:z <- [DW_OP_constu 64, DW_OP_minus] [$rbp+0]
	#DEBUG_VALUE: y <- $r12d
	#DEBUG_VALUE: get:y <- $r12d
	#DEBUG_VALUE: x <- [DW_OP_constu 56, DW_OP_minus] [$rbp+0]
	#DEBUG_VALUE: get:x <- [DW_OP_constu 56, DW_OP_minus] [$rbp+0]
	#DEBUG_VALUE:  <- [DW_OP_constu 120, DW_OP_minus] [$rbp+0]
	#DEBUG_VALUE: get: <- [DW_OP_constu 120, DW_OP_minus] [$rbp+0]
	#DEBUG_VALUE: centMoments <- [DW_OP_constu 128, DW_OP_minus] [$rbp+0]
	#DEBUG_VALUE: sysBoundaryLayer <- [DW_OP_constu 144, DW_OP_minus] [$rbp+0]
	#DEBUG_VALUE: sysBoundaryFlag <- [DW_OP_constu 156, DW_OP_minus] [$rbp+0]
	#DEBUG_VALUE: dMoments <- [DW_OP_constu 200, DW_OP_minus] [$rbp+0]
	#DEBUG_VALUE: dPerB <- [DW_OP_constu 168, DW_OP_minus] [$rbp+0]
	#DEBUG_VALUE: calculateDerivatives:perBGrid <- [DW_OP_constu 104, DW_OP_minus] [$rbp+0]
	#DEBUG_VALUE: calculateDerivatives:momentsGrid <- [DW_OP_constu 120, DW_OP_minus] [$rbp+0]
	#DEBUG_VALUE: calculateDerivatives:dMomentsGrid <- [DW_OP_plus_uconst 16] [$rbp+0]
	#DEBUG_VALUE: calculateDerivatives:technicalGrid <- [DW_OP_plus_uconst 24] [$rbp+0]
	#DEBUG_VALUE: calculateDerivatives:sysBoundaries <- [DW_OP_plus_uconst 32] [$rbp+0]
	#DEBUG_VALUE: calculateDerivatives:RKCase <- [DW_OP_plus_uconst 40] [$rbp+0]
	movl	%r8d, %esi
	imull	-68(%rbp), %esi         # 4-byte Folded Reload
	addl	-56(%rbp), %esi         # 4-byte Folded Reload
.Ltmp186:
	#DEBUG_VALUE: x <- $esi
	#DEBUG_VALUE: get:x <- $esi
	imull	%r9d, %r14d
	addl	%r14d, %r12d
.Ltmp187:
	#DEBUG_VALUE: y <- $r12d
	#DEBUG_VALUE: get:y <- $r12d
	movl	%r13d, %edi
	imull	%ebx, %edi
	addl	-64(%rbp), %edi         # 4-byte Folded Reload
.Ltmp188:
	#DEBUG_VALUE: z <- $edi
	#DEBUG_VALUE: get:z <- $edi
	.loc	2 0 1                   # /home/talgat/libs/fsgrid/fsgrid.hpp:0:1
	jmp	.LBB0_153
.Ltmp189:
.LBB0_88:
	#DEBUG_VALUE: centPerB <- [DW_OP_constu 224, DW_OP_minus] [$rbp+0]
	#DEBUG_VALUE: centMoments <- [DW_OP_constu 128, DW_OP_minus] [$rbp+0]
	#DEBUG_VALUE: sysBoundaryLayer <- [DW_OP_constu 144, DW_OP_minus] [$rbp+0]
	#DEBUG_VALUE: sysBoundaryFlag <- [DW_OP_constu 156, DW_OP_minus] [$rbp+0]
	#DEBUG_VALUE: dMoments <- [DW_OP_constu 200, DW_OP_minus] [$rbp+0]
	#DEBUG_VALUE: dPerB <- [DW_OP_constu 168, DW_OP_minus] [$rbp+0]
	#DEBUG_VALUE: calculateDerivatives:perBGrid <- [DW_OP_constu 104, DW_OP_minus] [$rbp+0]
	#DEBUG_VALUE: calculateDerivatives:momentsGrid <- [DW_OP_constu 120, DW_OP_minus] [$rbp+0]
	#DEBUG_VALUE: calculateDerivatives:dMomentsGrid <- [DW_OP_plus_uconst 16] [$rbp+0]
	#DEBUG_VALUE: calculateDerivatives:technicalGrid <- [DW_OP_plus_uconst 24] [$rbp+0]
	#DEBUG_VALUE: calculateDerivatives:sysBoundaries <- [DW_OP_plus_uconst 32] [$rbp+0]
	#DEBUG_VALUE: calculateDerivatives:RKCase <- [DW_OP_plus_uconst 40] [$rbp+0]
	movl	%r8d, %ecx
	movq	-48(%rbp), %rax         # 8-byte Reload
                                        # kill: def $eax killed $eax killed $rax
	.loc	1 793 1 is_stmt 1       # fieldsolver/derivatives.cpp:793:1
	cmpl	$2, 260(%r14)
	jl	.LBB0_89
.Ltmp190:
.LBB0_87:                               # %L.B1972
	#DEBUG_VALUE: centPerB <- [DW_OP_constu 224, DW_OP_minus] [$rbp+0]
	#DEBUG_VALUE: centMoments <- [DW_OP_constu 128, DW_OP_minus] [$rbp+0]
	#DEBUG_VALUE: sysBoundaryLayer <- [DW_OP_constu 144, DW_OP_minus] [$rbp+0]
	#DEBUG_VALUE: sysBoundaryFlag <- [DW_OP_constu 156, DW_OP_minus] [$rbp+0]
	#DEBUG_VALUE: dMoments <- [DW_OP_constu 200, DW_OP_minus] [$rbp+0]
	#DEBUG_VALUE: dPerB <- [DW_OP_constu 168, DW_OP_minus] [$rbp+0]
	#DEBUG_VALUE: calculateDerivatives:perBGrid <- [DW_OP_constu 104, DW_OP_minus] [$rbp+0]
	#DEBUG_VALUE: calculateDerivatives:momentsGrid <- [DW_OP_constu 120, DW_OP_minus] [$rbp+0]
	#DEBUG_VALUE: calculateDerivatives:dMomentsGrid <- [DW_OP_plus_uconst 16] [$rbp+0]
	#DEBUG_VALUE: calculateDerivatives:technicalGrid <- [DW_OP_plus_uconst 24] [$rbp+0]
	#DEBUG_VALUE: calculateDerivatives:sysBoundaries <- [DW_OP_plus_uconst 32] [$rbp+0]
	#DEBUG_VALUE: calculateDerivatives:RKCase <- [DW_OP_plus_uconst 40] [$rbp+0]
	addl	$2, %ecx
	imull	280(%r14), %ecx
	imull	276(%r14), %ecx
	movslq	%ecx, %rcx
	cmpl	$2, 256(%r14)
	jge	.LBB0_90
	jmp	.LBB0_91
.Ltmp191:
.LBB0_152:
	#DEBUG_VALUE: coord_shift <- [DW_OP_LLVM_fragment 64 32] $r13d
	#DEBUG_VALUE: coord_shift <- [DW_OP_LLVM_fragment 0 32] $r8d
	#DEBUG_VALUE: coord_shift <- [DW_OP_LLVM_fragment 32 32] $r12d
	#DEBUG_VALUE: z <- [DW_OP_constu 64, DW_OP_minus] [$rbp+0]
	#DEBUG_VALUE: get:z <- [DW_OP_constu 64, DW_OP_minus] [$rbp+0]
	#DEBUG_VALUE: y <- $r12d
	#DEBUG_VALUE: get:y <- $r12d
	#DEBUG_VALUE: x <- [DW_OP_constu 56, DW_OP_minus] [$rbp+0]
	#DEBUG_VALUE: get:x <- [DW_OP_constu 56, DW_OP_minus] [$rbp+0]
	#DEBUG_VALUE:  <- [DW_OP_constu 120, DW_OP_minus] [$rbp+0]
	#DEBUG_VALUE: get: <- [DW_OP_constu 120, DW_OP_minus] [$rbp+0]
	#DEBUG_VALUE: centMoments <- [DW_OP_constu 128, DW_OP_minus] [$rbp+0]
	#DEBUG_VALUE: sysBoundaryLayer <- [DW_OP_constu 144, DW_OP_minus] [$rbp+0]
	#DEBUG_VALUE: sysBoundaryFlag <- [DW_OP_constu 156, DW_OP_minus] [$rbp+0]
	#DEBUG_VALUE: dMoments <- [DW_OP_constu 200, DW_OP_minus] [$rbp+0]
	#DEBUG_VALUE: dPerB <- [DW_OP_constu 168, DW_OP_minus] [$rbp+0]
	#DEBUG_VALUE: calculateDerivatives:perBGrid <- [DW_OP_constu 104, DW_OP_minus] [$rbp+0]
	#DEBUG_VALUE: calculateDerivatives:momentsGrid <- [DW_OP_constu 120, DW_OP_minus] [$rbp+0]
	#DEBUG_VALUE: calculateDerivatives:dMomentsGrid <- [DW_OP_plus_uconst 16] [$rbp+0]
	#DEBUG_VALUE: calculateDerivatives:technicalGrid <- [DW_OP_plus_uconst 24] [$rbp+0]
	#DEBUG_VALUE: calculateDerivatives:sysBoundaries <- [DW_OP_plus_uconst 32] [$rbp+0]
	#DEBUG_VALUE: calculateDerivatives:RKCase <- [DW_OP_plus_uconst 40] [$rbp+0]
	.loc	1 0 1 is_stmt 0         # fieldsolver/derivatives.cpp:0:1
	movq	-64(%rbp), %rax         # 8-byte Reload
	movl	%eax, %edi
	movq	-56(%rbp), %rax         # 8-byte Reload
	movl	%eax, %esi
.Ltmp192:
.LBB0_153:                              # %L.B0247.i
	#DEBUG_VALUE: coord_shift <- [DW_OP_LLVM_fragment 64 32] $r13d
	#DEBUG_VALUE: coord_shift <- [DW_OP_LLVM_fragment 0 32] $r8d
	#DEBUG_VALUE: y <- $r12d
	#DEBUG_VALUE: get:y <- $r12d
	#DEBUG_VALUE:  <- [DW_OP_constu 120, DW_OP_minus] [$rbp+0]
	#DEBUG_VALUE: get: <- [DW_OP_constu 120, DW_OP_minus] [$rbp+0]
	#DEBUG_VALUE: centMoments <- [DW_OP_constu 128, DW_OP_minus] [$rbp+0]
	#DEBUG_VALUE: sysBoundaryLayer <- [DW_OP_constu 144, DW_OP_minus] [$rbp+0]
	#DEBUG_VALUE: sysBoundaryFlag <- [DW_OP_constu 156, DW_OP_minus] [$rbp+0]
	#DEBUG_VALUE: dMoments <- [DW_OP_constu 200, DW_OP_minus] [$rbp+0]
	#DEBUG_VALUE: dPerB <- [DW_OP_constu 168, DW_OP_minus] [$rbp+0]
	#DEBUG_VALUE: calculateDerivatives:perBGrid <- [DW_OP_constu 104, DW_OP_minus] [$rbp+0]
	#DEBUG_VALUE: calculateDerivatives:momentsGrid <- [DW_OP_constu 120, DW_OP_minus] [$rbp+0]
	#DEBUG_VALUE: calculateDerivatives:dMomentsGrid <- [DW_OP_plus_uconst 16] [$rbp+0]
	#DEBUG_VALUE: calculateDerivatives:technicalGrid <- [DW_OP_plus_uconst 24] [$rbp+0]
	#DEBUG_VALUE: calculateDerivatives:sysBoundaries <- [DW_OP_plus_uconst 32] [$rbp+0]
	#DEBUG_VALUE: calculateDerivatives:RKCase <- [DW_OP_plus_uconst 40] [$rbp+0]
	#DEBUG_VALUE: get:x <- $esi
	#DEBUG_VALUE: x <- $esi
	#DEBUG_VALUE: get:y <- $r12d
	#DEBUG_VALUE: y <- $r12d
	#DEBUG_VALUE: get:z <- $edi
	#DEBUG_VALUE: z <- $edi
	movq	-120(%rbp), %rcx        # 8-byte Reload
.Ltmp193:
	.loc	2 419 1 is_stmt 1       # /home/talgat/libs/fsgrid/fsgrid.hpp:419:1
	cmpl	$2, 260(%rcx)
	jge	.LBB0_155
.Ltmp194:
# %bb.154:
	#DEBUG_VALUE: get:z <- $edi
	#DEBUG_VALUE: z <- $edi
	#DEBUG_VALUE: get:x <- $esi
	#DEBUG_VALUE: x <- $esi
	#DEBUG_VALUE: coord_shift <- [DW_OP_LLVM_fragment 64 32] $r13d
	#DEBUG_VALUE: coord_shift <- [DW_OP_LLVM_fragment 0 32] $r8d
	#DEBUG_VALUE: y <- $r12d
	#DEBUG_VALUE: get:y <- $r12d
	#DEBUG_VALUE:  <- [DW_OP_constu 120, DW_OP_minus] [$rbp+0]
	#DEBUG_VALUE: get: <- [DW_OP_constu 120, DW_OP_minus] [$rbp+0]
	#DEBUG_VALUE: centMoments <- [DW_OP_constu 128, DW_OP_minus] [$rbp+0]
	#DEBUG_VALUE: sysBoundaryLayer <- [DW_OP_constu 144, DW_OP_minus] [$rbp+0]
	#DEBUG_VALUE: sysBoundaryFlag <- [DW_OP_constu 156, DW_OP_minus] [$rbp+0]
	#DEBUG_VALUE: dMoments <- [DW_OP_constu 200, DW_OP_minus] [$rbp+0]
	#DEBUG_VALUE: dPerB <- [DW_OP_constu 168, DW_OP_minus] [$rbp+0]
	#DEBUG_VALUE: calculateDerivatives:perBGrid <- [DW_OP_constu 104, DW_OP_minus] [$rbp+0]
	#DEBUG_VALUE: calculateDerivatives:momentsGrid <- [DW_OP_constu 120, DW_OP_minus] [$rbp+0]
	#DEBUG_VALUE: calculateDerivatives:dMomentsGrid <- [DW_OP_plus_uconst 16] [$rbp+0]
	#DEBUG_VALUE: calculateDerivatives:technicalGrid <- [DW_OP_plus_uconst 24] [$rbp+0]
	#DEBUG_VALUE: calculateDerivatives:sysBoundaries <- [DW_OP_plus_uconst 32] [$rbp+0]
	#DEBUG_VALUE: calculateDerivatives:RKCase <- [DW_OP_plus_uconst 40] [$rbp+0]
	.loc	2 0 1 is_stmt 0         # /home/talgat/libs/fsgrid/fsgrid.hpp:0:1
	xorl	%edi, %edi
.Ltmp195:
	.loc	2 422 1 is_stmt 1       # /home/talgat/libs/fsgrid/fsgrid.hpp:422:1
	cmpl	$2, 256(%rcx)
	jge	.LBB0_156
	jmp	.LBB0_157
.Ltmp196:
.LBB0_155:                              # %L.B2778.i
	#DEBUG_VALUE: get:z <- $edi
	#DEBUG_VALUE: z <- $edi
	#DEBUG_VALUE: get:x <- $esi
	#DEBUG_VALUE: x <- $esi
	#DEBUG_VALUE: coord_shift <- [DW_OP_LLVM_fragment 64 32] $r13d
	#DEBUG_VALUE: coord_shift <- [DW_OP_LLVM_fragment 0 32] $r8d
	#DEBUG_VALUE: y <- $r12d
	#DEBUG_VALUE: get:y <- $r12d
	#DEBUG_VALUE:  <- [DW_OP_constu 120, DW_OP_minus] [$rbp+0]
	#DEBUG_VALUE: get: <- [DW_OP_constu 120, DW_OP_minus] [$rbp+0]
	#DEBUG_VALUE: centMoments <- [DW_OP_constu 128, DW_OP_minus] [$rbp+0]
	#DEBUG_VALUE: sysBoundaryLayer <- [DW_OP_constu 144, DW_OP_minus] [$rbp+0]
	#DEBUG_VALUE: sysBoundaryFlag <- [DW_OP_constu 156, DW_OP_minus] [$rbp+0]
	#DEBUG_VALUE: dMoments <- [DW_OP_constu 200, DW_OP_minus] [$rbp+0]
	#DEBUG_VALUE: dPerB <- [DW_OP_constu 168, DW_OP_minus] [$rbp+0]
	#DEBUG_VALUE: calculateDerivatives:perBGrid <- [DW_OP_constu 104, DW_OP_minus] [$rbp+0]
	#DEBUG_VALUE: calculateDerivatives:momentsGrid <- [DW_OP_constu 120, DW_OP_minus] [$rbp+0]
	#DEBUG_VALUE: calculateDerivatives:dMomentsGrid <- [DW_OP_plus_uconst 16] [$rbp+0]
	#DEBUG_VALUE: calculateDerivatives:technicalGrid <- [DW_OP_plus_uconst 24] [$rbp+0]
	#DEBUG_VALUE: calculateDerivatives:sysBoundaries <- [DW_OP_plus_uconst 32] [$rbp+0]
	#DEBUG_VALUE: calculateDerivatives:RKCase <- [DW_OP_plus_uconst 40] [$rbp+0]
	.loc	2 420 1                 # /home/talgat/libs/fsgrid/fsgrid.hpp:420:1
	addl	$2, %edi
.Ltmp197:
	imull	280(%rcx), %edi
	imull	276(%rcx), %edi
	movslq	%edi, %rdi
	.loc	2 422 1                 # /home/talgat/libs/fsgrid/fsgrid.hpp:422:1
	cmpl	$2, 256(%rcx)
	jl	.LBB0_157
.Ltmp198:
.LBB0_156:                              # %L.B2779.i
	#DEBUG_VALUE: get:x <- $esi
	#DEBUG_VALUE: x <- $esi
	#DEBUG_VALUE: coord_shift <- [DW_OP_LLVM_fragment 64 32] $r13d
	#DEBUG_VALUE: coord_shift <- [DW_OP_LLVM_fragment 0 32] $r8d
	#DEBUG_VALUE: y <- $r12d
	#DEBUG_VALUE: get:y <- $r12d
	#DEBUG_VALUE:  <- [DW_OP_constu 120, DW_OP_minus] [$rbp+0]
	#DEBUG_VALUE: get: <- [DW_OP_constu 120, DW_OP_minus] [$rbp+0]
	#DEBUG_VALUE: centMoments <- [DW_OP_constu 128, DW_OP_minus] [$rbp+0]
	#DEBUG_VALUE: sysBoundaryLayer <- [DW_OP_constu 144, DW_OP_minus] [$rbp+0]
	#DEBUG_VALUE: sysBoundaryFlag <- [DW_OP_constu 156, DW_OP_minus] [$rbp+0]
	#DEBUG_VALUE: dMoments <- [DW_OP_constu 200, DW_OP_minus] [$rbp+0]
	#DEBUG_VALUE: dPerB <- [DW_OP_constu 168, DW_OP_minus] [$rbp+0]
	#DEBUG_VALUE: calculateDerivatives:perBGrid <- [DW_OP_constu 104, DW_OP_minus] [$rbp+0]
	#DEBUG_VALUE: calculateDerivatives:momentsGrid <- [DW_OP_constu 120, DW_OP_minus] [$rbp+0]
	#DEBUG_VALUE: calculateDerivatives:dMomentsGrid <- [DW_OP_plus_uconst 16] [$rbp+0]
	#DEBUG_VALUE: calculateDerivatives:technicalGrid <- [DW_OP_plus_uconst 24] [$rbp+0]
	#DEBUG_VALUE: calculateDerivatives:sysBoundaries <- [DW_OP_plus_uconst 32] [$rbp+0]
	#DEBUG_VALUE: calculateDerivatives:RKCase <- [DW_OP_plus_uconst 40] [$rbp+0]
	.loc	2 423 1                 # /home/talgat/libs/fsgrid/fsgrid.hpp:423:1
	addl	$2, %r12d
.Ltmp199:
	imull	276(%rcx), %r12d
	movslq	%r12d, %rax
	addq	%rax, %rdi
.Ltmp200:
.LBB0_157:                              # %L..inline.97082.i
	#DEBUG_VALUE: get:x <- $esi
	#DEBUG_VALUE: x <- $esi
	#DEBUG_VALUE: coord_shift <- [DW_OP_LLVM_fragment 64 32] $r13d
	#DEBUG_VALUE: coord_shift <- [DW_OP_LLVM_fragment 0 32] $r8d
	#DEBUG_VALUE:  <- [DW_OP_constu 120, DW_OP_minus] [$rbp+0]
	#DEBUG_VALUE: get: <- [DW_OP_constu 120, DW_OP_minus] [$rbp+0]
	#DEBUG_VALUE: centMoments <- [DW_OP_constu 128, DW_OP_minus] [$rbp+0]
	#DEBUG_VALUE: sysBoundaryLayer <- [DW_OP_constu 144, DW_OP_minus] [$rbp+0]
	#DEBUG_VALUE: sysBoundaryFlag <- [DW_OP_constu 156, DW_OP_minus] [$rbp+0]
	#DEBUG_VALUE: dMoments <- [DW_OP_constu 200, DW_OP_minus] [$rbp+0]
	#DEBUG_VALUE: dPerB <- [DW_OP_constu 168, DW_OP_minus] [$rbp+0]
	#DEBUG_VALUE: calculateDerivatives:perBGrid <- [DW_OP_constu 104, DW_OP_minus] [$rbp+0]
	#DEBUG_VALUE: calculateDerivatives:momentsGrid <- [DW_OP_constu 120, DW_OP_minus] [$rbp+0]
	#DEBUG_VALUE: calculateDerivatives:dMomentsGrid <- [DW_OP_plus_uconst 16] [$rbp+0]
	#DEBUG_VALUE: calculateDerivatives:technicalGrid <- [DW_OP_plus_uconst 24] [$rbp+0]
	#DEBUG_VALUE: calculateDerivatives:sysBoundaries <- [DW_OP_plus_uconst 32] [$rbp+0]
	#DEBUG_VALUE: calculateDerivatives:RKCase <- [DW_OP_plus_uconst 40] [$rbp+0]
	.loc	2 0 1 is_stmt 0         # /home/talgat/libs/fsgrid/fsgrid.hpp:0:1
	movq	-64(%rbp), %r12         # 8-byte Reload
	.loc	2 425 1 is_stmt 1       # /home/talgat/libs/fsgrid/fsgrid.hpp:425:1
	movslq	%esi, %rsi
.Ltmp201:
	addq	$2, %rsi
	xorl	%eax, %eax
	cmpl	$2, 252(%rcx)
	cmovgeq	%rsi, %rax
	addq	%rdi, %rax
	.loc	2 1044 1                # /home/talgat/libs/fsgrid/fsgrid.hpp:1044:1
	shlq	$6, %rax
	addq	744(%rcx), %rax
.Ltmp202:
.LBB0_158:                              # %_ZN6FsGridISt5arrayIdLm8EELi2EE3getEiii.exit
	#DEBUG_VALUE: centMoments <- [DW_OP_constu 128, DW_OP_minus] [$rbp+0]
	#DEBUG_VALUE: sysBoundaryLayer <- [DW_OP_constu 144, DW_OP_minus] [$rbp+0]
	#DEBUG_VALUE: sysBoundaryFlag <- [DW_OP_constu 156, DW_OP_minus] [$rbp+0]
	#DEBUG_VALUE: dMoments <- [DW_OP_constu 200, DW_OP_minus] [$rbp+0]
	#DEBUG_VALUE: dPerB <- [DW_OP_constu 168, DW_OP_minus] [$rbp+0]
	#DEBUG_VALUE: calculateDerivatives:perBGrid <- [DW_OP_constu 104, DW_OP_minus] [$rbp+0]
	#DEBUG_VALUE: calculateDerivatives:momentsGrid <- [DW_OP_constu 120, DW_OP_minus] [$rbp+0]
	#DEBUG_VALUE: calculateDerivatives:dMomentsGrid <- [DW_OP_plus_uconst 16] [$rbp+0]
	#DEBUG_VALUE: calculateDerivatives:technicalGrid <- [DW_OP_plus_uconst 24] [$rbp+0]
	#DEBUG_VALUE: calculateDerivatives:sysBoundaries <- [DW_OP_plus_uconst 32] [$rbp+0]
	#DEBUG_VALUE: calculateDerivatives:RKCase <- [DW_OP_plus_uconst 40] [$rbp+0]
	.loc	1 711 1                 # fieldsolver/derivatives.cpp:711:1
	testl	%r15d, %r15d
.Ltmp203:
	#DEBUG_VALUE: coord_shift <- [DW_OP_LLVM_fragment 64 32] 0
	#DEBUG_VALUE: coord_shift <- [DW_OP_LLVM_fragment 32 32] 0
	#DEBUG_VALUE: coord_shift <- [DW_OP_LLVM_fragment 0 32] $r8d
	#DEBUG_VALUE: isInNeighbourDomain <- $edx
	#DEBUG_VALUE: z <- [DW_OP_constu 64, DW_OP_minus] [$rbp+0]
	#DEBUG_VALUE: get:z <- [DW_OP_constu 64, DW_OP_minus] [$rbp+0]
	#DEBUG_VALUE: y <- $r15d
	#DEBUG_VALUE: get:y <- $r15d
	#DEBUG_VALUE: x <- [DW_OP_constu 56, DW_OP_minus] [$rbp+0]
	#DEBUG_VALUE: get:x <- [DW_OP_constu 56, DW_OP_minus] [$rbp+0]
	#DEBUG_VALUE:  <- [DW_OP_constu 120, DW_OP_minus] [$rbp+0]
	#DEBUG_VALUE: get: <- [DW_OP_constu 120, DW_OP_minus] [$rbp+0]
	#DEBUG_VALUE: leftMoments <- undef
	.loc	2 711 1 is_stmt 0       # /home/talgat/libs/fsgrid/fsgrid.hpp:711:1
	cmovnsl	%edx, %r11d
.Ltmp204:
	#DEBUG_VALUE: isInNeighbourDomain <- $r11d
	.loc	2 186 1 is_stmt 1       # /home/talgat/libs/fsgrid/fsgrid.hpp:186:1
	leal	3(%r11), %edi
.Ltmp205:
	#DEBUG_VALUE: coord_shift <- [DW_OP_constu 152, DW_OP_minus, DW_OP_LLVM_fragment 32 32] [$rbp+0]
	cmpl	%r15d, %r9d
	cmovgl	%r11d, %edi
	movl	$-1, %edx
	cmovgl	-152(%rbp), %edx        # 4-byte Folded Reload
.Ltmp206:
	#DEBUG_VALUE: coord_shift <- [DW_OP_LLVM_fragment 32 32] $r15d
	#DEBUG_VALUE: isInNeighbourDomain <- $edi
	addl	%r10d, %edi
.Ltmp207:
	#DEBUG_VALUE: coord_shift <- [DW_OP_constu 64, DW_OP_minus, DW_OP_deref_size 8, DW_OP_constu 31, DW_OP_shr, DW_OP_stack_value, DW_OP_LLVM_fragment 64 32] $rbp
	#DEBUG_VALUE: coord_shift <- [DW_OP_LLVM_fragment 64 32] $r13d
	#DEBUG_VALUE: isInNeighbourDomain <- $edi
	.loc	2 776 1                 # /home/talgat/libs/fsgrid/fsgrid.hpp:776:1
	cmpl	$13, %edi
	jne	.LBB0_160
.Ltmp208:
# %bb.159:
	#DEBUG_VALUE: coord_shift <- [DW_OP_LLVM_fragment 64 32] $r13d
	#DEBUG_VALUE: isInNeighbourDomain <- $edi
	#DEBUG_VALUE: coord_shift <- [DW_OP_LLVM_fragment 32 32] $r15d
	#DEBUG_VALUE: get: <- [DW_OP_constu 120, DW_OP_minus] [$rbp+0]
	#DEBUG_VALUE:  <- [DW_OP_constu 120, DW_OP_minus] [$rbp+0]
	#DEBUG_VALUE: get:x <- [DW_OP_constu 56, DW_OP_minus] [$rbp+0]
	#DEBUG_VALUE: x <- [DW_OP_constu 56, DW_OP_minus] [$rbp+0]
	#DEBUG_VALUE: get:y <- $r15d
	#DEBUG_VALUE: y <- $r15d
	#DEBUG_VALUE: get:z <- [DW_OP_constu 64, DW_OP_minus] [$rbp+0]
	#DEBUG_VALUE: z <- [DW_OP_constu 64, DW_OP_minus] [$rbp+0]
	#DEBUG_VALUE: coord_shift <- [DW_OP_LLVM_fragment 0 32] $r8d
	#DEBUG_VALUE: centMoments <- [DW_OP_constu 128, DW_OP_minus] [$rbp+0]
	#DEBUG_VALUE: sysBoundaryLayer <- [DW_OP_constu 144, DW_OP_minus] [$rbp+0]
	#DEBUG_VALUE: sysBoundaryFlag <- [DW_OP_constu 156, DW_OP_minus] [$rbp+0]
	#DEBUG_VALUE: dMoments <- [DW_OP_constu 200, DW_OP_minus] [$rbp+0]
	#DEBUG_VALUE: dPerB <- [DW_OP_constu 168, DW_OP_minus] [$rbp+0]
	#DEBUG_VALUE: calculateDerivatives:perBGrid <- [DW_OP_constu 104, DW_OP_minus] [$rbp+0]
	#DEBUG_VALUE: calculateDerivatives:momentsGrid <- [DW_OP_constu 120, DW_OP_minus] [$rbp+0]
	#DEBUG_VALUE: calculateDerivatives:dMomentsGrid <- [DW_OP_plus_uconst 16] [$rbp+0]
	#DEBUG_VALUE: calculateDerivatives:technicalGrid <- [DW_OP_plus_uconst 24] [$rbp+0]
	#DEBUG_VALUE: calculateDerivatives:sysBoundaries <- [DW_OP_plus_uconst 32] [$rbp+0]
	#DEBUG_VALUE: calculateDerivatives:RKCase <- [DW_OP_plus_uconst 40] [$rbp+0]
	.loc	2 0 1 is_stmt 0         # /home/talgat/libs/fsgrid/fsgrid.hpp:0:1
	movl	%r12d, %r13d
.Ltmp209:
	movq	-56(%rbp), %r14         # 8-byte Reload
	movl	%r14d, %r8d
.Ltmp210:
	movq	-200(%rbp), %r10        # 8-byte Reload
	jmp	.LBB0_163
.Ltmp211:
.LBB0_160:                              # %L.B2774.i762
	#DEBUG_VALUE: coord_shift <- [DW_OP_LLVM_fragment 64 32] $r13d
	#DEBUG_VALUE: isInNeighbourDomain <- $edi
	#DEBUG_VALUE: coord_shift <- [DW_OP_LLVM_fragment 32 32] $r15d
	#DEBUG_VALUE: get: <- [DW_OP_constu 120, DW_OP_minus] [$rbp+0]
	#DEBUG_VALUE:  <- [DW_OP_constu 120, DW_OP_minus] [$rbp+0]
	#DEBUG_VALUE: get:x <- [DW_OP_constu 56, DW_OP_minus] [$rbp+0]
	#DEBUG_VALUE: x <- [DW_OP_constu 56, DW_OP_minus] [$rbp+0]
	#DEBUG_VALUE: get:y <- $r15d
	#DEBUG_VALUE: y <- $r15d
	#DEBUG_VALUE: get:z <- [DW_OP_constu 64, DW_OP_minus] [$rbp+0]
	#DEBUG_VALUE: z <- [DW_OP_constu 64, DW_OP_minus] [$rbp+0]
	#DEBUG_VALUE: coord_shift <- [DW_OP_LLVM_fragment 0 32] $r8d
	#DEBUG_VALUE: centMoments <- [DW_OP_constu 128, DW_OP_minus] [$rbp+0]
	#DEBUG_VALUE: sysBoundaryLayer <- [DW_OP_constu 144, DW_OP_minus] [$rbp+0]
	#DEBUG_VALUE: sysBoundaryFlag <- [DW_OP_constu 156, DW_OP_minus] [$rbp+0]
	#DEBUG_VALUE: dMoments <- [DW_OP_constu 200, DW_OP_minus] [$rbp+0]
	#DEBUG_VALUE: dPerB <- [DW_OP_constu 168, DW_OP_minus] [$rbp+0]
	#DEBUG_VALUE: calculateDerivatives:perBGrid <- [DW_OP_constu 104, DW_OP_minus] [$rbp+0]
	#DEBUG_VALUE: calculateDerivatives:momentsGrid <- [DW_OP_constu 120, DW_OP_minus] [$rbp+0]
	#DEBUG_VALUE: calculateDerivatives:dMomentsGrid <- [DW_OP_plus_uconst 16] [$rbp+0]
	#DEBUG_VALUE: calculateDerivatives:technicalGrid <- [DW_OP_plus_uconst 24] [$rbp+0]
	#DEBUG_VALUE: calculateDerivatives:sysBoundaries <- [DW_OP_plus_uconst 32] [$rbp+0]
	#DEBUG_VALUE: calculateDerivatives:RKCase <- [DW_OP_plus_uconst 40] [$rbp+0]
	.loc	2 186 1 is_stmt 1       # /home/talgat/libs/fsgrid/fsgrid.hpp:186:1
	movslq	%edi, %rsi
	movl	92(%rcx,%rsi,4), %esi
	cmpl	56(%rcx), %esi
	movq	-56(%rbp), %r14         # 8-byte Reload
	movq	-200(%rbp), %r10        # 8-byte Reload
	jne	.LBB0_162
.Ltmp212:
# %bb.161:                              # %L.B2777.i765
	#DEBUG_VALUE: coord_shift <- [DW_OP_LLVM_fragment 64 32] $r13d
	#DEBUG_VALUE: isInNeighbourDomain <- $edi
	#DEBUG_VALUE: coord_shift <- [DW_OP_LLVM_fragment 32 32] $r15d
	#DEBUG_VALUE: get: <- [DW_OP_constu 120, DW_OP_minus] [$rbp+0]
	#DEBUG_VALUE:  <- [DW_OP_constu 120, DW_OP_minus] [$rbp+0]
	#DEBUG_VALUE: get:x <- [DW_OP_constu 56, DW_OP_minus] [$rbp+0]
	#DEBUG_VALUE: x <- [DW_OP_constu 56, DW_OP_minus] [$rbp+0]
	#DEBUG_VALUE: get:y <- $r15d
	#DEBUG_VALUE: y <- $r15d
	#DEBUG_VALUE: get:z <- [DW_OP_constu 64, DW_OP_minus] [$rbp+0]
	#DEBUG_VALUE: z <- [DW_OP_constu 64, DW_OP_minus] [$rbp+0]
	#DEBUG_VALUE: coord_shift <- [DW_OP_LLVM_fragment 0 32] $r8d
	#DEBUG_VALUE: centMoments <- [DW_OP_constu 128, DW_OP_minus] [$rbp+0]
	#DEBUG_VALUE: sysBoundaryLayer <- [DW_OP_constu 144, DW_OP_minus] [$rbp+0]
	#DEBUG_VALUE: sysBoundaryFlag <- [DW_OP_constu 156, DW_OP_minus] [$rbp+0]
	#DEBUG_VALUE: dMoments <- [DW_OP_constu 200, DW_OP_minus] [$rbp+0]
	#DEBUG_VALUE: dPerB <- [DW_OP_constu 168, DW_OP_minus] [$rbp+0]
	#DEBUG_VALUE: calculateDerivatives:perBGrid <- [DW_OP_constu 104, DW_OP_minus] [$rbp+0]
	#DEBUG_VALUE: calculateDerivatives:momentsGrid <- [DW_OP_constu 120, DW_OP_minus] [$rbp+0]
	#DEBUG_VALUE: calculateDerivatives:dMomentsGrid <- [DW_OP_plus_uconst 16] [$rbp+0]
	#DEBUG_VALUE: calculateDerivatives:technicalGrid <- [DW_OP_plus_uconst 24] [$rbp+0]
	#DEBUG_VALUE: calculateDerivatives:sysBoundaries <- [DW_OP_plus_uconst 32] [$rbp+0]
	#DEBUG_VALUE: calculateDerivatives:RKCase <- [DW_OP_plus_uconst 40] [$rbp+0]
	imull	-68(%rbp), %r8d         # 4-byte Folded Reload
.Ltmp213:
	addl	%r14d, %r8d
.Ltmp214:
	#DEBUG_VALUE: x <- $r8d
	#DEBUG_VALUE: get:x <- $r8d
	imull	%r9d, %edx
	addl	%edx, %r15d
.Ltmp215:
	#DEBUG_VALUE: y <- $r15d
	#DEBUG_VALUE: get:y <- $r15d
	imull	%ebx, %r13d
.Ltmp216:
	addl	%r12d, %r13d
.Ltmp217:
	#DEBUG_VALUE: z <- $r13d
	#DEBUG_VALUE: get:z <- $r13d
	.loc	2 0 1 is_stmt 0         # /home/talgat/libs/fsgrid/fsgrid.hpp:0:1
	jmp	.LBB0_163
.Ltmp218:
.LBB0_162:
	#DEBUG_VALUE: coord_shift <- [DW_OP_LLVM_fragment 64 32] $r13d
	#DEBUG_VALUE: isInNeighbourDomain <- $edi
	#DEBUG_VALUE: coord_shift <- [DW_OP_LLVM_fragment 32 32] $r15d
	#DEBUG_VALUE: get: <- [DW_OP_constu 120, DW_OP_minus] [$rbp+0]
	#DEBUG_VALUE:  <- [DW_OP_constu 120, DW_OP_minus] [$rbp+0]
	#DEBUG_VALUE: get:x <- [DW_OP_constu 56, DW_OP_minus] [$rbp+0]
	#DEBUG_VALUE: x <- [DW_OP_constu 56, DW_OP_minus] [$rbp+0]
	#DEBUG_VALUE: get:y <- $r15d
	#DEBUG_VALUE: y <- $r15d
	#DEBUG_VALUE: get:z <- [DW_OP_constu 64, DW_OP_minus] [$rbp+0]
	#DEBUG_VALUE: z <- [DW_OP_constu 64, DW_OP_minus] [$rbp+0]
	#DEBUG_VALUE: coord_shift <- [DW_OP_LLVM_fragment 0 32] $r8d
	#DEBUG_VALUE: centMoments <- [DW_OP_constu 128, DW_OP_minus] [$rbp+0]
	#DEBUG_VALUE: sysBoundaryLayer <- [DW_OP_constu 144, DW_OP_minus] [$rbp+0]
	#DEBUG_VALUE: sysBoundaryFlag <- [DW_OP_constu 156, DW_OP_minus] [$rbp+0]
	#DEBUG_VALUE: dMoments <- [DW_OP_constu 200, DW_OP_minus] [$rbp+0]
	#DEBUG_VALUE: dPerB <- [DW_OP_constu 168, DW_OP_minus] [$rbp+0]
	#DEBUG_VALUE: calculateDerivatives:perBGrid <- [DW_OP_constu 104, DW_OP_minus] [$rbp+0]
	#DEBUG_VALUE: calculateDerivatives:momentsGrid <- [DW_OP_constu 120, DW_OP_minus] [$rbp+0]
	#DEBUG_VALUE: calculateDerivatives:dMomentsGrid <- [DW_OP_plus_uconst 16] [$rbp+0]
	#DEBUG_VALUE: calculateDerivatives:technicalGrid <- [DW_OP_plus_uconst 24] [$rbp+0]
	#DEBUG_VALUE: calculateDerivatives:sysBoundaries <- [DW_OP_plus_uconst 32] [$rbp+0]
	#DEBUG_VALUE: calculateDerivatives:RKCase <- [DW_OP_plus_uconst 40] [$rbp+0]
	movl	%r12d, %r13d
.Ltmp219:
	movl	%r14d, %r8d
.Ltmp220:
.LBB0_163:                              # %L.B0247.i769
	#DEBUG_VALUE: isInNeighbourDomain <- $edi
	#DEBUG_VALUE: get: <- [DW_OP_constu 120, DW_OP_minus] [$rbp+0]
	#DEBUG_VALUE:  <- [DW_OP_constu 120, DW_OP_minus] [$rbp+0]
	#DEBUG_VALUE: get:y <- $r15d
	#DEBUG_VALUE: y <- $r15d
	#DEBUG_VALUE: centMoments <- [DW_OP_constu 128, DW_OP_minus] [$rbp+0]
	#DEBUG_VALUE: sysBoundaryLayer <- [DW_OP_constu 144, DW_OP_minus] [$rbp+0]
	#DEBUG_VALUE: sysBoundaryFlag <- [DW_OP_constu 156, DW_OP_minus] [$rbp+0]
	#DEBUG_VALUE: dMoments <- [DW_OP_constu 200, DW_OP_minus] [$rbp+0]
	#DEBUG_VALUE: dPerB <- [DW_OP_constu 168, DW_OP_minus] [$rbp+0]
	#DEBUG_VALUE: calculateDerivatives:perBGrid <- [DW_OP_constu 104, DW_OP_minus] [$rbp+0]
	#DEBUG_VALUE: calculateDerivatives:momentsGrid <- [DW_OP_constu 120, DW_OP_minus] [$rbp+0]
	#DEBUG_VALUE: calculateDerivatives:dMomentsGrid <- [DW_OP_plus_uconst 16] [$rbp+0]
	#DEBUG_VALUE: calculateDerivatives:technicalGrid <- [DW_OP_plus_uconst 24] [$rbp+0]
	#DEBUG_VALUE: calculateDerivatives:sysBoundaries <- [DW_OP_plus_uconst 32] [$rbp+0]
	#DEBUG_VALUE: calculateDerivatives:RKCase <- [DW_OP_plus_uconst 40] [$rbp+0]
	#DEBUG_VALUE: get:x <- $r8d
	#DEBUG_VALUE: x <- $r8d
	#DEBUG_VALUE: get:y <- $r15d
	#DEBUG_VALUE: y <- $r15d
	#DEBUG_VALUE: get:z <- $r13d
	#DEBUG_VALUE: z <- $r13d
	movq	-120(%rbp), %rbx        # 8-byte Reload
	.loc	2 419 1 is_stmt 1       # /home/talgat/libs/fsgrid/fsgrid.hpp:419:1
	cmpl	$2, 260(%rbx)
	movq	-168(%rbp), %rdi        # 8-byte Reload
.Ltmp221:
	.loc	2 0 1 is_stmt 0         # /home/talgat/libs/fsgrid/fsgrid.hpp:0:1
	movq	-184(%rbp), %r9         # 8-byte Reload
	.loc	2 419 1                 # /home/talgat/libs/fsgrid/fsgrid.hpp:419:1
	jge	.LBB0_165
.Ltmp222:
# %bb.164:
	#DEBUG_VALUE: get:z <- $r13d
	#DEBUG_VALUE: z <- $r13d
	#DEBUG_VALUE: get:x <- $r8d
	#DEBUG_VALUE: x <- $r8d
	#DEBUG_VALUE: get: <- [DW_OP_constu 120, DW_OP_minus] [$rbp+0]
	#DEBUG_VALUE:  <- [DW_OP_constu 120, DW_OP_minus] [$rbp+0]
	#DEBUG_VALUE: get:y <- $r15d
	#DEBUG_VALUE: y <- $r15d
	#DEBUG_VALUE: centMoments <- [DW_OP_constu 128, DW_OP_minus] [$rbp+0]
	#DEBUG_VALUE: sysBoundaryLayer <- [DW_OP_constu 144, DW_OP_minus] [$rbp+0]
	#DEBUG_VALUE: sysBoundaryFlag <- [DW_OP_constu 156, DW_OP_minus] [$rbp+0]
	#DEBUG_VALUE: dMoments <- [DW_OP_constu 200, DW_OP_minus] [$rbp+0]
	#DEBUG_VALUE: dPerB <- [DW_OP_constu 168, DW_OP_minus] [$rbp+0]
	#DEBUG_VALUE: calculateDerivatives:perBGrid <- [DW_OP_constu 104, DW_OP_minus] [$rbp+0]
	#DEBUG_VALUE: calculateDerivatives:momentsGrid <- [DW_OP_constu 120, DW_OP_minus] [$rbp+0]
	#DEBUG_VALUE: calculateDerivatives:dMomentsGrid <- [DW_OP_plus_uconst 16] [$rbp+0]
	#DEBUG_VALUE: calculateDerivatives:technicalGrid <- [DW_OP_plus_uconst 24] [$rbp+0]
	#DEBUG_VALUE: calculateDerivatives:sysBoundaries <- [DW_OP_plus_uconst 32] [$rbp+0]
	#DEBUG_VALUE: calculateDerivatives:RKCase <- [DW_OP_plus_uconst 40] [$rbp+0]
	.loc	2 0 1                   # /home/talgat/libs/fsgrid/fsgrid.hpp:0:1
	xorl	%edx, %edx
	.loc	2 422 1 is_stmt 1       # /home/talgat/libs/fsgrid/fsgrid.hpp:422:1
	cmpl	$2, 256(%rbx)
	jge	.LBB0_166
	jmp	.LBB0_167
.Ltmp223:
.LBB0_165:                              # %L.B2778.i770
	#DEBUG_VALUE: get:z <- $r13d
	#DEBUG_VALUE: z <- $r13d
	#DEBUG_VALUE: get:x <- $r8d
	#DEBUG_VALUE: x <- $r8d
	#DEBUG_VALUE: get: <- [DW_OP_constu 120, DW_OP_minus] [$rbp+0]
	#DEBUG_VALUE:  <- [DW_OP_constu 120, DW_OP_minus] [$rbp+0]
	#DEBUG_VALUE: get:y <- $r15d
	#DEBUG_VALUE: y <- $r15d
	#DEBUG_VALUE: centMoments <- [DW_OP_constu 128, DW_OP_minus] [$rbp+0]
	#DEBUG_VALUE: sysBoundaryLayer <- [DW_OP_constu 144, DW_OP_minus] [$rbp+0]
	#DEBUG_VALUE: sysBoundaryFlag <- [DW_OP_constu 156, DW_OP_minus] [$rbp+0]
	#DEBUG_VALUE: dMoments <- [DW_OP_constu 200, DW_OP_minus] [$rbp+0]
	#DEBUG_VALUE: dPerB <- [DW_OP_constu 168, DW_OP_minus] [$rbp+0]
	#DEBUG_VALUE: calculateDerivatives:perBGrid <- [DW_OP_constu 104, DW_OP_minus] [$rbp+0]
	#DEBUG_VALUE: calculateDerivatives:momentsGrid <- [DW_OP_constu 120, DW_OP_minus] [$rbp+0]
	#DEBUG_VALUE: calculateDerivatives:dMomentsGrid <- [DW_OP_plus_uconst 16] [$rbp+0]
	#DEBUG_VALUE: calculateDerivatives:technicalGrid <- [DW_OP_plus_uconst 24] [$rbp+0]
	#DEBUG_VALUE: calculateDerivatives:sysBoundaries <- [DW_OP_plus_uconst 32] [$rbp+0]
	#DEBUG_VALUE: calculateDerivatives:RKCase <- [DW_OP_plus_uconst 40] [$rbp+0]
	.loc	2 420 1                 # /home/talgat/libs/fsgrid/fsgrid.hpp:420:1
	addl	$2, %r13d
.Ltmp224:
	imull	280(%rbx), %r13d
	imull	276(%rbx), %r13d
	movslq	%r13d, %rdx
	.loc	2 422 1                 # /home/talgat/libs/fsgrid/fsgrid.hpp:422:1
	cmpl	$2, 256(%rbx)
	jl	.LBB0_167
.Ltmp225:
.LBB0_166:                              # %L.B2779.i773
	#DEBUG_VALUE: get:x <- $r8d
	#DEBUG_VALUE: x <- $r8d
	#DEBUG_VALUE: get: <- [DW_OP_constu 120, DW_OP_minus] [$rbp+0]
	#DEBUG_VALUE:  <- [DW_OP_constu 120, DW_OP_minus] [$rbp+0]
	#DEBUG_VALUE: get:y <- $r15d
	#DEBUG_VALUE: y <- $r15d
	#DEBUG_VALUE: centMoments <- [DW_OP_constu 128, DW_OP_minus] [$rbp+0]
	#DEBUG_VALUE: sysBoundaryLayer <- [DW_OP_constu 144, DW_OP_minus] [$rbp+0]
	#DEBUG_VALUE: sysBoundaryFlag <- [DW_OP_constu 156, DW_OP_minus] [$rbp+0]
	#DEBUG_VALUE: dMoments <- [DW_OP_constu 200, DW_OP_minus] [$rbp+0]
	#DEBUG_VALUE: dPerB <- [DW_OP_constu 168, DW_OP_minus] [$rbp+0]
	#DEBUG_VALUE: calculateDerivatives:perBGrid <- [DW_OP_constu 104, DW_OP_minus] [$rbp+0]
	#DEBUG_VALUE: calculateDerivatives:momentsGrid <- [DW_OP_constu 120, DW_OP_minus] [$rbp+0]
	#DEBUG_VALUE: calculateDerivatives:dMomentsGrid <- [DW_OP_plus_uconst 16] [$rbp+0]
	#DEBUG_VALUE: calculateDerivatives:technicalGrid <- [DW_OP_plus_uconst 24] [$rbp+0]
	#DEBUG_VALUE: calculateDerivatives:sysBoundaries <- [DW_OP_plus_uconst 32] [$rbp+0]
	#DEBUG_VALUE: calculateDerivatives:RKCase <- [DW_OP_plus_uconst 40] [$rbp+0]
	.loc	2 423 1                 # /home/talgat/libs/fsgrid/fsgrid.hpp:423:1
	addl	$2, %r15d
.Ltmp226:
	imull	276(%rbx), %r15d
	movslq	%r15d, %rcx
	addq	%rcx, %rdx
.Ltmp227:
.LBB0_167:                              # %L..inline.97082.i775
	#DEBUG_VALUE: get:x <- $r8d
	#DEBUG_VALUE: x <- $r8d
	#DEBUG_VALUE: get: <- [DW_OP_constu 120, DW_OP_minus] [$rbp+0]
	#DEBUG_VALUE:  <- [DW_OP_constu 120, DW_OP_minus] [$rbp+0]
	#DEBUG_VALUE: centMoments <- [DW_OP_constu 128, DW_OP_minus] [$rbp+0]
	#DEBUG_VALUE: sysBoundaryLayer <- [DW_OP_constu 144, DW_OP_minus] [$rbp+0]
	#DEBUG_VALUE: sysBoundaryFlag <- [DW_OP_constu 156, DW_OP_minus] [$rbp+0]
	#DEBUG_VALUE: dMoments <- [DW_OP_constu 200, DW_OP_minus] [$rbp+0]
	#DEBUG_VALUE: dPerB <- [DW_OP_constu 168, DW_OP_minus] [$rbp+0]
	#DEBUG_VALUE: calculateDerivatives:perBGrid <- [DW_OP_constu 104, DW_OP_minus] [$rbp+0]
	#DEBUG_VALUE: calculateDerivatives:momentsGrid <- [DW_OP_constu 120, DW_OP_minus] [$rbp+0]
	#DEBUG_VALUE: calculateDerivatives:dMomentsGrid <- [DW_OP_plus_uconst 16] [$rbp+0]
	#DEBUG_VALUE: calculateDerivatives:technicalGrid <- [DW_OP_plus_uconst 24] [$rbp+0]
	#DEBUG_VALUE: calculateDerivatives:sysBoundaries <- [DW_OP_plus_uconst 32] [$rbp+0]
	#DEBUG_VALUE: calculateDerivatives:RKCase <- [DW_OP_plus_uconst 40] [$rbp+0]
	.loc	2 0 1 is_stmt 0         # /home/talgat/libs/fsgrid/fsgrid.hpp:0:1
	movl	-144(%rbp), %r11d       # 4-byte Reload
	.loc	2 425 1 is_stmt 1       # /home/talgat/libs/fsgrid/fsgrid.hpp:425:1
	movslq	%r8d, %rsi
	addq	$2, %rsi
	xorl	%ecx, %ecx
	cmpl	$2, 252(%rbx)
	cmovgeq	%rsi, %rcx
	addq	%rdx, %rcx
	.loc	2 1044 1                # /home/talgat/libs/fsgrid/fsgrid.hpp:1044:1
	movq	744(%rbx), %rdx
	shlq	$6, %rcx
.Ltmp228:
	#DEBUG_VALUE: rght <- undef
	#DEBUG_VALUE: limiter:rght <- undef
	#DEBUG_VALUE: left <- $rax
	#DEBUG_VALUE: limiter:left <- $rax
	#DEBUG_VALUE: __n <- 0
	#DEBUG_VALUE: at:__n <- 0
	#DEBUG_VALUE:  <- undef
	#DEBUG_VALUE: at: <- undef
	#DEBUG_VALUE: __n <- 0
	#DEBUG_VALUE: at:__n <- 0
	#DEBUG_VALUE:  <- [DW_OP_constu 128, DW_OP_minus] [$rbp+0]
	#DEBUG_VALUE: at: <- [DW_OP_constu 128, DW_OP_minus] [$rbp+0]
	#DEBUG_VALUE: __n <- 0
	#DEBUG_VALUE: at:__n <- 0
	#DEBUG_VALUE:  <- undef
	#DEBUG_VALUE: at: <- undef
	#DEBUG_VALUE: rghtMoments <- undef
	.file	3 "/home/talgat/vlasiator/fieldsolver/fs_limiters.h"
	.loc	3 84 1                  # fieldsolver/fs_limiters.h:84:1
	vmovsd	(%rax), %xmm3           # xmm3 = mem[0],zero
	vmovsd	(%rdx,%rcx), %xmm4      # xmm4 = mem[0],zero
	.loc	3 86 1                  # fieldsolver/fs_limiters.h:86:1
	vsubsd	%xmm3, %xmm4, %xmm2
	.loc	3 87 1                  # fieldsolver/fs_limiters.h:87:1
	vandpd	.LCPI0_0(%rip), %xmm2, %xmm5
	vxorpd	%xmm1, %xmm1, %xmm1
	vucomisd	%xmm5, %xmm0
.Ltmp229:
	#DEBUG_VALUE: cent <- [DW_OP_constu 128, DW_OP_minus] [$rbp+0]
	#DEBUG_VALUE: limiter:cent <- [DW_OP_constu 128, DW_OP_minus] [$rbp+0]
	.loc	3 0 0 is_stmt 0         # fieldsolver/fs_limiters.h:0:0
	vxorpd	%xmm5, %xmm5, %xmm5
	.loc	3 87 1                  # fieldsolver/fs_limiters.h:87:1
	ja	.LBB0_169
.Ltmp230:
# %bb.168:                              # %L..inline.83447.i1300
	#DEBUG_VALUE: limiter:cent <- [DW_OP_constu 128, DW_OP_minus] [$rbp+0]
	#DEBUG_VALUE: cent <- [DW_OP_constu 128, DW_OP_minus] [$rbp+0]
	#DEBUG_VALUE: limiter:left <- $rax
	#DEBUG_VALUE: left <- $rax
	#DEBUG_VALUE: centMoments <- [DW_OP_constu 128, DW_OP_minus] [$rbp+0]
	#DEBUG_VALUE: sysBoundaryLayer <- [DW_OP_constu 144, DW_OP_minus] [$rbp+0]
	#DEBUG_VALUE: sysBoundaryFlag <- [DW_OP_constu 156, DW_OP_minus] [$rbp+0]
	#DEBUG_VALUE: dMoments <- [DW_OP_constu 200, DW_OP_minus] [$rbp+0]
	#DEBUG_VALUE: dPerB <- [DW_OP_constu 168, DW_OP_minus] [$rbp+0]
	#DEBUG_VALUE: calculateDerivatives:perBGrid <- [DW_OP_constu 104, DW_OP_minus] [$rbp+0]
	#DEBUG_VALUE: calculateDerivatives:momentsGrid <- [DW_OP_constu 120, DW_OP_minus] [$rbp+0]
	#DEBUG_VALUE: calculateDerivatives:dMomentsGrid <- [DW_OP_plus_uconst 16] [$rbp+0]
	#DEBUG_VALUE: calculateDerivatives:technicalGrid <- [DW_OP_plus_uconst 24] [$rbp+0]
	#DEBUG_VALUE: calculateDerivatives:sysBoundaries <- [DW_OP_plus_uconst 32] [$rbp+0]
	#DEBUG_VALUE: calculateDerivatives:RKCase <- [DW_OP_plus_uconst 40] [$rbp+0]
	.loc	3 0 1                   # fieldsolver/fs_limiters.h:0:1
	movq	-128(%rbp), %rsi        # 8-byte Reload
	vmovsd	(%rsi), %xmm5           # xmm5 = mem[0],zero
	vsubsd	%xmm3, %xmm5, %xmm3
	vsubsd	%xmm5, %xmm4, %xmm4
	vmulsd	%xmm4, %xmm3, %xmm3
	vxorpd	%xmm4, %xmm4, %xmm4
	.loc	3 91 1 is_stmt 1        # fieldsolver/fs_limiters.h:91:1
	vmaxsd	%xmm3, %xmm4, %xmm3
	vaddsd	%xmm3, %xmm3, %xmm3
	vdivsd	%xmm2, %xmm3, %xmm5
.Ltmp231:
.LBB0_169:                              # %_Z7limiterIdET_RKS0_S2_S2_.exit1302
	#DEBUG_VALUE: centMoments <- [DW_OP_constu 128, DW_OP_minus] [$rbp+0]
	#DEBUG_VALUE: sysBoundaryLayer <- [DW_OP_constu 144, DW_OP_minus] [$rbp+0]
	#DEBUG_VALUE: sysBoundaryFlag <- [DW_OP_constu 156, DW_OP_minus] [$rbp+0]
	#DEBUG_VALUE: dMoments <- [DW_OP_constu 200, DW_OP_minus] [$rbp+0]
	#DEBUG_VALUE: dPerB <- [DW_OP_constu 168, DW_OP_minus] [$rbp+0]
	#DEBUG_VALUE: calculateDerivatives:perBGrid <- [DW_OP_constu 104, DW_OP_minus] [$rbp+0]
	#DEBUG_VALUE: calculateDerivatives:momentsGrid <- [DW_OP_constu 120, DW_OP_minus] [$rbp+0]
	#DEBUG_VALUE: calculateDerivatives:dMomentsGrid <- [DW_OP_plus_uconst 16] [$rbp+0]
	#DEBUG_VALUE: calculateDerivatives:technicalGrid <- [DW_OP_plus_uconst 24] [$rbp+0]
	#DEBUG_VALUE: calculateDerivatives:sysBoundaries <- [DW_OP_plus_uconst 32] [$rbp+0]
	#DEBUG_VALUE: calculateDerivatives:RKCase <- [DW_OP_plus_uconst 40] [$rbp+0]
	#DEBUG_VALUE: at: <- [DW_OP_constu 200, DW_OP_minus] [$rbp+0]
	#DEBUG_VALUE:  <- [DW_OP_constu 200, DW_OP_minus] [$rbp+0]
	#DEBUG_VALUE: at:__n <- 1
	#DEBUG_VALUE: __n <- 1
	.loc	1 138 1                 # fieldsolver/derivatives.cpp:138:1
	vmovsd	%xmm5, 8(%r10)
.Ltmp232:
	#DEBUG_VALUE: left <- [DW_OP_plus_uconst 8, DW_OP_stack_value] $rax
	#DEBUG_VALUE: limiter:left <- [DW_OP_plus_uconst 8, DW_OP_stack_value] $rax
	#DEBUG_VALUE: __n <- 1
	#DEBUG_VALUE: at:__n <- 1
	#DEBUG_VALUE:  <- undef
	#DEBUG_VALUE: at: <- undef
	#DEBUG_VALUE: __n <- 1
	#DEBUG_VALUE: at:__n <- 1
	#DEBUG_VALUE:  <- [DW_OP_constu 128, DW_OP_minus] [$rbp+0]
	#DEBUG_VALUE: at: <- [DW_OP_constu 128, DW_OP_minus] [$rbp+0]
	#DEBUG_VALUE: __n <- 1
	#DEBUG_VALUE: at:__n <- 1
	#DEBUG_VALUE:  <- undef
	#DEBUG_VALUE: at: <- undef
	.loc	3 84 1                  # fieldsolver/fs_limiters.h:84:1
	vmovsd	8(%rax), %xmm3          # xmm3 = mem[0],zero
	vmovsd	8(%rdx,%rcx), %xmm4     # xmm4 = mem[0],zero
	.loc	3 86 1                  # fieldsolver/fs_limiters.h:86:1
	vsubsd	%xmm3, %xmm4, %xmm2
	.loc	3 87 1                  # fieldsolver/fs_limiters.h:87:1
	vandpd	.LCPI0_0(%rip), %xmm2, %xmm5
	vucomisd	%xmm5, %xmm0
.Ltmp233:
	#DEBUG_VALUE: rght <- [DW_OP_plus_uconst 8, DW_OP_stack_value] undef
	#DEBUG_VALUE: limiter:rght <- [DW_OP_plus_uconst 8, DW_OP_stack_value] undef
	#DEBUG_VALUE: cent <- [DW_OP_constu 128, DW_OP_minus, DW_OP_deref_size 8, DW_OP_plus_uconst 8, DW_OP_stack_value] $rbp
	#DEBUG_VALUE: limiter:cent <- [DW_OP_constu 128, DW_OP_minus, DW_OP_deref_size 8, DW_OP_plus_uconst 8, DW_OP_stack_value] $rbp
	ja	.LBB0_171
.Ltmp234:
# %bb.170:                              # %L..inline.83447.i1336
	#DEBUG_VALUE: limiter:cent <- [DW_OP_constu 128, DW_OP_minus, DW_OP_deref_size 8, DW_OP_plus_uconst 8, DW_OP_stack_value] $rbp
	#DEBUG_VALUE: cent <- [DW_OP_constu 128, DW_OP_minus, DW_OP_deref_size 8, DW_OP_plus_uconst 8, DW_OP_stack_value] $rbp
	#DEBUG_VALUE: limiter:left <- [DW_OP_plus_uconst 8, DW_OP_stack_value] $rax
	#DEBUG_VALUE: left <- [DW_OP_plus_uconst 8, DW_OP_stack_value] $rax
	#DEBUG_VALUE: centMoments <- [DW_OP_constu 128, DW_OP_minus] [$rbp+0]
	#DEBUG_VALUE: sysBoundaryLayer <- [DW_OP_constu 144, DW_OP_minus] [$rbp+0]
	#DEBUG_VALUE: sysBoundaryFlag <- [DW_OP_constu 156, DW_OP_minus] [$rbp+0]
	#DEBUG_VALUE: dMoments <- [DW_OP_constu 200, DW_OP_minus] [$rbp+0]
	#DEBUG_VALUE: dPerB <- [DW_OP_constu 168, DW_OP_minus] [$rbp+0]
	#DEBUG_VALUE: calculateDerivatives:perBGrid <- [DW_OP_constu 104, DW_OP_minus] [$rbp+0]
	#DEBUG_VALUE: calculateDerivatives:momentsGrid <- [DW_OP_constu 120, DW_OP_minus] [$rbp+0]
	#DEBUG_VALUE: calculateDerivatives:dMomentsGrid <- [DW_OP_plus_uconst 16] [$rbp+0]
	#DEBUG_VALUE: calculateDerivatives:technicalGrid <- [DW_OP_plus_uconst 24] [$rbp+0]
	#DEBUG_VALUE: calculateDerivatives:sysBoundaries <- [DW_OP_plus_uconst 32] [$rbp+0]
	#DEBUG_VALUE: calculateDerivatives:RKCase <- [DW_OP_plus_uconst 40] [$rbp+0]
	.loc	3 0 1 is_stmt 0         # fieldsolver/fs_limiters.h:0:1
	movq	-128(%rbp), %rsi        # 8-byte Reload
	vmovsd	8(%rsi), %xmm1          # xmm1 = mem[0],zero
	vsubsd	%xmm3, %xmm1, %xmm3
	vsubsd	%xmm1, %xmm4, %xmm1
	vmulsd	%xmm1, %xmm3, %xmm1
	vxorpd	%xmm3, %xmm3, %xmm3
	.loc	3 91 1 is_stmt 1        # fieldsolver/fs_limiters.h:91:1
	vmaxsd	%xmm1, %xmm3, %xmm1
	vaddsd	%xmm1, %xmm1, %xmm1
	vdivsd	%xmm2, %xmm1, %xmm1
.Ltmp235:
.LBB0_171:                              # %_Z7limiterIdET_RKS0_S2_S2_.exit1338
	#DEBUG_VALUE: centMoments <- [DW_OP_constu 128, DW_OP_minus] [$rbp+0]
	#DEBUG_VALUE: sysBoundaryLayer <- [DW_OP_constu 144, DW_OP_minus] [$rbp+0]
	#DEBUG_VALUE: sysBoundaryFlag <- [DW_OP_constu 156, DW_OP_minus] [$rbp+0]
	#DEBUG_VALUE: dMoments <- [DW_OP_constu 200, DW_OP_minus] [$rbp+0]
	#DEBUG_VALUE: dPerB <- [DW_OP_constu 168, DW_OP_minus] [$rbp+0]
	#DEBUG_VALUE: calculateDerivatives:perBGrid <- [DW_OP_constu 104, DW_OP_minus] [$rbp+0]
	#DEBUG_VALUE: calculateDerivatives:momentsGrid <- [DW_OP_constu 120, DW_OP_minus] [$rbp+0]
	#DEBUG_VALUE: calculateDerivatives:dMomentsGrid <- [DW_OP_plus_uconst 16] [$rbp+0]
	#DEBUG_VALUE: calculateDerivatives:technicalGrid <- [DW_OP_plus_uconst 24] [$rbp+0]
	#DEBUG_VALUE: calculateDerivatives:sysBoundaries <- [DW_OP_plus_uconst 32] [$rbp+0]
	#DEBUG_VALUE: calculateDerivatives:RKCase <- [DW_OP_plus_uconst 40] [$rbp+0]
	#DEBUG_VALUE: at: <- [DW_OP_constu 200, DW_OP_minus] [$rbp+0]
	#DEBUG_VALUE:  <- [DW_OP_constu 200, DW_OP_minus] [$rbp+0]
	#DEBUG_VALUE: at:__n <- 4
	#DEBUG_VALUE: __n <- 4
	.loc	1 139 1                 # fieldsolver/derivatives.cpp:139:1
	vmovsd	%xmm1, 32(%r10)
.Ltmp236:
	#DEBUG_VALUE: left <- [DW_OP_plus_uconst 40, DW_OP_stack_value] $rax
	#DEBUG_VALUE: limiter:left <- [DW_OP_plus_uconst 40, DW_OP_stack_value] $rax
	#DEBUG_VALUE: __n <- 5
	#DEBUG_VALUE: at:__n <- 5
	#DEBUG_VALUE:  <- undef
	#DEBUG_VALUE: at: <- undef
	#DEBUG_VALUE: __n <- 5
	#DEBUG_VALUE: at:__n <- 5
	#DEBUG_VALUE:  <- [DW_OP_constu 128, DW_OP_minus] [$rbp+0]
	#DEBUG_VALUE: at: <- [DW_OP_constu 128, DW_OP_minus] [$rbp+0]
	#DEBUG_VALUE: __n <- 5
	#DEBUG_VALUE: at:__n <- 5
	#DEBUG_VALUE:  <- undef
	#DEBUG_VALUE: at: <- undef
	.loc	3 84 1                  # fieldsolver/fs_limiters.h:84:1
	vmovsd	40(%rax), %xmm3         # xmm3 = mem[0],zero
	vmovsd	40(%rdx,%rcx), %xmm4    # xmm4 = mem[0],zero
	.loc	3 86 1                  # fieldsolver/fs_limiters.h:86:1
	vsubsd	%xmm3, %xmm4, %xmm2
	.loc	3 87 1                  # fieldsolver/fs_limiters.h:87:1
	vandpd	.LCPI0_0(%rip), %xmm2, %xmm5
	vxorpd	%xmm1, %xmm1, %xmm1
	vucomisd	%xmm5, %xmm0
.Ltmp237:
	#DEBUG_VALUE: rght <- [DW_OP_plus_uconst 40, DW_OP_stack_value] undef
	#DEBUG_VALUE: limiter:rght <- [DW_OP_plus_uconst 40, DW_OP_stack_value] undef
	#DEBUG_VALUE: cent <- [DW_OP_constu 128, DW_OP_minus, DW_OP_deref_size 8, DW_OP_plus_uconst 40, DW_OP_stack_value] $rbp
	#DEBUG_VALUE: limiter:cent <- [DW_OP_constu 128, DW_OP_minus, DW_OP_deref_size 8, DW_OP_plus_uconst 40, DW_OP_stack_value] $rbp
	.loc	3 0 0 is_stmt 0         # fieldsolver/fs_limiters.h:0:0
	vxorpd	%xmm5, %xmm5, %xmm5
	.loc	3 87 1                  # fieldsolver/fs_limiters.h:87:1
	ja	.LBB0_173
.Ltmp238:
# %bb.172:                              # %L..inline.83447.i1332
	#DEBUG_VALUE: limiter:cent <- [DW_OP_constu 128, DW_OP_minus, DW_OP_deref_size 8, DW_OP_plus_uconst 40, DW_OP_stack_value] $rbp
	#DEBUG_VALUE: cent <- [DW_OP_constu 128, DW_OP_minus, DW_OP_deref_size 8, DW_OP_plus_uconst 40, DW_OP_stack_value] $rbp
	#DEBUG_VALUE: limiter:left <- [DW_OP_plus_uconst 40, DW_OP_stack_value] $rax
	#DEBUG_VALUE: left <- [DW_OP_plus_uconst 40, DW_OP_stack_value] $rax
	#DEBUG_VALUE: centMoments <- [DW_OP_constu 128, DW_OP_minus] [$rbp+0]
	#DEBUG_VALUE: sysBoundaryLayer <- [DW_OP_constu 144, DW_OP_minus] [$rbp+0]
	#DEBUG_VALUE: sysBoundaryFlag <- [DW_OP_constu 156, DW_OP_minus] [$rbp+0]
	#DEBUG_VALUE: dMoments <- [DW_OP_constu 200, DW_OP_minus] [$rbp+0]
	#DEBUG_VALUE: dPerB <- [DW_OP_constu 168, DW_OP_minus] [$rbp+0]
	#DEBUG_VALUE: calculateDerivatives:perBGrid <- [DW_OP_constu 104, DW_OP_minus] [$rbp+0]
	#DEBUG_VALUE: calculateDerivatives:momentsGrid <- [DW_OP_constu 120, DW_OP_minus] [$rbp+0]
	#DEBUG_VALUE: calculateDerivatives:dMomentsGrid <- [DW_OP_plus_uconst 16] [$rbp+0]
	#DEBUG_VALUE: calculateDerivatives:technicalGrid <- [DW_OP_plus_uconst 24] [$rbp+0]
	#DEBUG_VALUE: calculateDerivatives:sysBoundaries <- [DW_OP_plus_uconst 32] [$rbp+0]
	#DEBUG_VALUE: calculateDerivatives:RKCase <- [DW_OP_plus_uconst 40] [$rbp+0]
	.loc	3 0 1                   # fieldsolver/fs_limiters.h:0:1
	movq	-128(%rbp), %rsi        # 8-byte Reload
	vmovsd	40(%rsi), %xmm5         # xmm5 = mem[0],zero
	vsubsd	%xmm3, %xmm5, %xmm3
	vsubsd	%xmm5, %xmm4, %xmm4
	vmulsd	%xmm4, %xmm3, %xmm3
	vxorpd	%xmm4, %xmm4, %xmm4
	.loc	3 91 1 is_stmt 1        # fieldsolver/fs_limiters.h:91:1
	vmaxsd	%xmm3, %xmm4, %xmm3
	vaddsd	%xmm3, %xmm3, %xmm3
	vdivsd	%xmm2, %xmm3, %xmm5
.Ltmp239:
.LBB0_173:                              # %_Z7limiterIdET_RKS0_S2_S2_.exit1334
	#DEBUG_VALUE: centMoments <- [DW_OP_constu 128, DW_OP_minus] [$rbp+0]
	#DEBUG_VALUE: sysBoundaryLayer <- [DW_OP_constu 144, DW_OP_minus] [$rbp+0]
	#DEBUG_VALUE: sysBoundaryFlag <- [DW_OP_constu 156, DW_OP_minus] [$rbp+0]
	#DEBUG_VALUE: dMoments <- [DW_OP_constu 200, DW_OP_minus] [$rbp+0]
	#DEBUG_VALUE: dPerB <- [DW_OP_constu 168, DW_OP_minus] [$rbp+0]
	#DEBUG_VALUE: calculateDerivatives:perBGrid <- [DW_OP_constu 104, DW_OP_minus] [$rbp+0]
	#DEBUG_VALUE: calculateDerivatives:momentsGrid <- [DW_OP_constu 120, DW_OP_minus] [$rbp+0]
	#DEBUG_VALUE: calculateDerivatives:dMomentsGrid <- [DW_OP_plus_uconst 16] [$rbp+0]
	#DEBUG_VALUE: calculateDerivatives:technicalGrid <- [DW_OP_plus_uconst 24] [$rbp+0]
	#DEBUG_VALUE: calculateDerivatives:sysBoundaries <- [DW_OP_plus_uconst 32] [$rbp+0]
	#DEBUG_VALUE: calculateDerivatives:RKCase <- [DW_OP_plus_uconst 40] [$rbp+0]
	#DEBUG_VALUE: at: <- [DW_OP_constu 200, DW_OP_minus] [$rbp+0]
	#DEBUG_VALUE:  <- [DW_OP_constu 200, DW_OP_minus] [$rbp+0]
	#DEBUG_VALUE: at:__n <- 7
	#DEBUG_VALUE: __n <- 7
	.loc	1 140 1                 # fieldsolver/derivatives.cpp:140:1
	vmovsd	%xmm5, 56(%r10)
.Ltmp240:
	#DEBUG_VALUE: left <- [DW_OP_plus_uconst 48, DW_OP_stack_value] $rax
	#DEBUG_VALUE: limiter:left <- [DW_OP_plus_uconst 48, DW_OP_stack_value] $rax
	#DEBUG_VALUE: __n <- 6
	#DEBUG_VALUE: at:__n <- 6
	#DEBUG_VALUE:  <- undef
	#DEBUG_VALUE: at: <- undef
	#DEBUG_VALUE: __n <- 6
	#DEBUG_VALUE: at:__n <- 6
	#DEBUG_VALUE:  <- [DW_OP_constu 128, DW_OP_minus] [$rbp+0]
	#DEBUG_VALUE: at: <- [DW_OP_constu 128, DW_OP_minus] [$rbp+0]
	#DEBUG_VALUE: __n <- 6
	#DEBUG_VALUE: at:__n <- 6
	#DEBUG_VALUE:  <- undef
	#DEBUG_VALUE: at: <- undef
	.loc	3 84 1                  # fieldsolver/fs_limiters.h:84:1
	vmovsd	48(%rax), %xmm3         # xmm3 = mem[0],zero
	vmovsd	48(%rdx,%rcx), %xmm4    # xmm4 = mem[0],zero
	.loc	3 86 1                  # fieldsolver/fs_limiters.h:86:1
	vsubsd	%xmm3, %xmm4, %xmm2
	.loc	3 87 1                  # fieldsolver/fs_limiters.h:87:1
	vandpd	.LCPI0_0(%rip), %xmm2, %xmm5
	vucomisd	%xmm5, %xmm0
.Ltmp241:
	#DEBUG_VALUE: rght <- [DW_OP_plus_uconst 48, DW_OP_stack_value] undef
	#DEBUG_VALUE: limiter:rght <- [DW_OP_plus_uconst 48, DW_OP_stack_value] undef
	#DEBUG_VALUE: cent <- [DW_OP_constu 128, DW_OP_minus, DW_OP_deref_size 8, DW_OP_plus_uconst 48, DW_OP_stack_value] $rbp
	#DEBUG_VALUE: limiter:cent <- [DW_OP_constu 128, DW_OP_minus, DW_OP_deref_size 8, DW_OP_plus_uconst 48, DW_OP_stack_value] $rbp
	ja	.LBB0_175
.Ltmp242:
# %bb.174:                              # %L..inline.83447.i1328
	#DEBUG_VALUE: limiter:cent <- [DW_OP_constu 128, DW_OP_minus, DW_OP_deref_size 8, DW_OP_plus_uconst 48, DW_OP_stack_value] $rbp
	#DEBUG_VALUE: cent <- [DW_OP_constu 128, DW_OP_minus, DW_OP_deref_size 8, DW_OP_plus_uconst 48, DW_OP_stack_value] $rbp
	#DEBUG_VALUE: limiter:left <- [DW_OP_plus_uconst 48, DW_OP_stack_value] $rax
	#DEBUG_VALUE: left <- [DW_OP_plus_uconst 48, DW_OP_stack_value] $rax
	#DEBUG_VALUE: centMoments <- [DW_OP_constu 128, DW_OP_minus] [$rbp+0]
	#DEBUG_VALUE: sysBoundaryLayer <- [DW_OP_constu 144, DW_OP_minus] [$rbp+0]
	#DEBUG_VALUE: sysBoundaryFlag <- [DW_OP_constu 156, DW_OP_minus] [$rbp+0]
	#DEBUG_VALUE: dMoments <- [DW_OP_constu 200, DW_OP_minus] [$rbp+0]
	#DEBUG_VALUE: dPerB <- [DW_OP_constu 168, DW_OP_minus] [$rbp+0]
	#DEBUG_VALUE: calculateDerivatives:perBGrid <- [DW_OP_constu 104, DW_OP_minus] [$rbp+0]
	#DEBUG_VALUE: calculateDerivatives:momentsGrid <- [DW_OP_constu 120, DW_OP_minus] [$rbp+0]
	#DEBUG_VALUE: calculateDerivatives:dMomentsGrid <- [DW_OP_plus_uconst 16] [$rbp+0]
	#DEBUG_VALUE: calculateDerivatives:technicalGrid <- [DW_OP_plus_uconst 24] [$rbp+0]
	#DEBUG_VALUE: calculateDerivatives:sysBoundaries <- [DW_OP_plus_uconst 32] [$rbp+0]
	#DEBUG_VALUE: calculateDerivatives:RKCase <- [DW_OP_plus_uconst 40] [$rbp+0]
	.loc	3 0 1 is_stmt 0         # fieldsolver/fs_limiters.h:0:1
	movq	-128(%rbp), %rsi        # 8-byte Reload
	vmovsd	48(%rsi), %xmm1         # xmm1 = mem[0],zero
	vsubsd	%xmm3, %xmm1, %xmm3
	vsubsd	%xmm1, %xmm4, %xmm1
	vmulsd	%xmm1, %xmm3, %xmm1
	vxorpd	%xmm3, %xmm3, %xmm3
	.loc	3 91 1 is_stmt 1        # fieldsolver/fs_limiters.h:91:1
	vmaxsd	%xmm1, %xmm3, %xmm1
	vaddsd	%xmm1, %xmm1, %xmm1
	vdivsd	%xmm2, %xmm1, %xmm1
.Ltmp243:
.LBB0_175:                              # %_Z7limiterIdET_RKS0_S2_S2_.exit1330
	#DEBUG_VALUE: centMoments <- [DW_OP_constu 128, DW_OP_minus] [$rbp+0]
	#DEBUG_VALUE: sysBoundaryLayer <- [DW_OP_constu 144, DW_OP_minus] [$rbp+0]
	#DEBUG_VALUE: sysBoundaryFlag <- [DW_OP_constu 156, DW_OP_minus] [$rbp+0]
	#DEBUG_VALUE: dMoments <- [DW_OP_constu 200, DW_OP_minus] [$rbp+0]
	#DEBUG_VALUE: dPerB <- [DW_OP_constu 168, DW_OP_minus] [$rbp+0]
	#DEBUG_VALUE: calculateDerivatives:perBGrid <- [DW_OP_constu 104, DW_OP_minus] [$rbp+0]
	#DEBUG_VALUE: calculateDerivatives:momentsGrid <- [DW_OP_constu 120, DW_OP_minus] [$rbp+0]
	#DEBUG_VALUE: calculateDerivatives:dMomentsGrid <- [DW_OP_plus_uconst 16] [$rbp+0]
	#DEBUG_VALUE: calculateDerivatives:technicalGrid <- [DW_OP_plus_uconst 24] [$rbp+0]
	#DEBUG_VALUE: calculateDerivatives:sysBoundaries <- [DW_OP_plus_uconst 32] [$rbp+0]
	#DEBUG_VALUE: calculateDerivatives:RKCase <- [DW_OP_plus_uconst 40] [$rbp+0]
	#DEBUG_VALUE: at: <- [DW_OP_constu 200, DW_OP_minus] [$rbp+0]
	#DEBUG_VALUE:  <- [DW_OP_constu 200, DW_OP_minus] [$rbp+0]
	#DEBUG_VALUE: at:__n <- 10
	#DEBUG_VALUE: __n <- 10
	.loc	1 141 1                 # fieldsolver/derivatives.cpp:141:1
	vmovsd	%xmm1, 80(%r10)
.Ltmp244:
	#DEBUG_VALUE: left <- [DW_OP_plus_uconst 56, DW_OP_stack_value] $rax
	#DEBUG_VALUE: limiter:left <- [DW_OP_plus_uconst 56, DW_OP_stack_value] $rax
	#DEBUG_VALUE: __n <- 7
	#DEBUG_VALUE: at:__n <- 7
	#DEBUG_VALUE:  <- undef
	#DEBUG_VALUE: at: <- undef
	#DEBUG_VALUE: __n <- 7
	#DEBUG_VALUE: at:__n <- 7
	#DEBUG_VALUE:  <- [DW_OP_constu 128, DW_OP_minus] [$rbp+0]
	#DEBUG_VALUE: at: <- [DW_OP_constu 128, DW_OP_minus] [$rbp+0]
	#DEBUG_VALUE: __n <- 7
	#DEBUG_VALUE: at:__n <- 7
	#DEBUG_VALUE:  <- undef
	#DEBUG_VALUE: at: <- undef
	.loc	3 84 1                  # fieldsolver/fs_limiters.h:84:1
	vmovsd	56(%rax), %xmm3         # xmm3 = mem[0],zero
	vmovsd	56(%rdx,%rcx), %xmm4    # xmm4 = mem[0],zero
	.loc	3 86 1                  # fieldsolver/fs_limiters.h:86:1
	vsubsd	%xmm3, %xmm4, %xmm2
	.loc	3 87 1                  # fieldsolver/fs_limiters.h:87:1
	vandpd	.LCPI0_0(%rip), %xmm2, %xmm5
	vxorpd	%xmm1, %xmm1, %xmm1
