; ModuleID = 'fieldsolver/derivatives.cpp'
target datalayout = "e-p:64:64-i64:64-f80:128-n8:16:32:64-S128"
target triple = "x86_64-pc-linux-gnu"
define internal void @pgCplus_compiled.() noinline {
L.entry:
	ret void
}

%struct._ZNSt12_Vector_baseIP14ompi_request_tSaIS1_EE12_Vector_implE = type <{ %struct._ZNSt12_Vector_baseIP14ompi_request_tSaIS1_EE17_Vector_impl_dataE}> 
%struct._ZSt12_Vector_baseIiSaIiEE = type <{ %struct._ZNSt12_Vector_baseIiSaIiEE12_Vector_implE}> 
%struct._ZSt12_Vector_baseIN7fsgrids9technicalESaIS1_EE = type <{ %struct._ZNSt12_Vector_baseIN7fsgrids9technicalESaIS1_EE12_Vector_implE}> 
%struct._ZNSt7__cxx1110_List_baseIPN3SBC20SysBoundaryConditionESaIS3_EE10_List_implE = type <{ %struct._ZNSt8__detail17_List_node_headerE}> 
%struct._ZNSt12_Vector_baseINSt7__cxx1112basic_stringIcSt11char_traitsIcESaIcEEESaIS5_EE12_Vector_implE = type <{ %struct._ZNSt12_Vector_baseINSt7__cxx1112basic_stringIcSt11char_traitsIcESaIcEEESaIS5_EE17_Vector_impl_dataE}> 
%struct._ZNSt12_Vector_baseINSt7__cxx1112basic_stringIcSt11char_traitsIcESaIcEEESaIS5_EE17_Vector_impl_dataE = type <{ %struct._ZNSt7__cxx1112basic_stringIcSt11char_traitsIcESaIcEEE*, %struct._ZNSt7__cxx1112basic_stringIcSt11char_traitsIcESaIcEEE*, %struct._ZNSt7__cxx1112basic_stringIcSt11char_traitsIcESaIcEEE*}> 
%struct._ZSt12_Vector_baseISt5arrayIdLm8EESaIS1_EE = type <{ %struct._ZNSt12_Vector_baseISt5arrayIdLm8EESaIS1_EE12_Vector_implE}> 
%struct._ZSt13unordered_mapImSt6vectorImSaImEESt4hashImESt8equal_toImESaISt4pairIKmS2_EEE = type <{ %struct._ZSt10_HashtableImSt4pairIKmSt6vectorImSaImEEESaIS5_ENSt8__detail10_Select1stESt8equal_toImESt4hashImENS7_18_Mod_range_hashingENS7_20_Default_ranged_hashENS7_20_Prime_rehash_policyENS7_17_Hashtable_traitsILb0ELb0ELb1EEEE}> 
%struct._ZNSt12_Vector_baseISt5arrayIdLm15EESaIS1_EE12_Vector_implE = type <{ %struct._ZNSt12_Vector_baseISt5arrayIdLm15EESaIS1_EE17_Vector_impl_dataE}> 
%struct._ZSt6vectorIP14ompi_request_tSaIS1_EE = type <{ %struct._ZSt12_Vector_baseIP14ompi_request_tSaIS1_EE}> 
%struct._ZSt5arrayIbLm3EE = type <{ [3 x i8]}> 
%struct._Z6FsGridISt5arrayIdLm24EELi2EE = type <{ double, double, double, %struct._ZSt5arrayIdLm3EE, %struct.ompi_communicator_t*, i32, [4 x i8], %struct._ZSt6vectorIP14ompi_request_tSaIS1_EE, i32, %struct._ZSt5arrayIiLm27EE, %struct._ZSt6vectorIcSaIcEE, %struct._ZSt5arrayIiLm3EE, %struct._ZSt5arrayIiLm3EE, %struct._ZSt5arrayIbLm3EE, i8, %struct._ZSt5arrayIiLm3EE, %struct._ZSt5arrayIiLm3EE, %struct._ZSt5arrayIiLm3EE, %struct._ZSt5arrayIiLm3EE, [4 x i8], %struct.FsGridCouplingInformation*, %struct._ZSt5arrayIP15ompi_datatype_tLm27EE, %struct._ZSt5arrayIP15ompi_datatype_tLm27EE, %struct._ZSt6vectorISt5arrayIdLm24EESaIS1_EE}> 
%struct._ZSt6vectorIiSaIiEE = type <{ %struct._ZSt12_Vector_baseIiSaIiEE}> 
%struct._ZNSt8__detail17_List_node_headerE = type <{ %struct._ZNSt8__detail15_List_node_baseE, i64}> 
%struct._Z6FsGridISt5arrayIdLm15EELi2EE = type <{ double, double, double, %struct._ZSt5arrayIdLm3EE, %struct.ompi_communicator_t*, i32, [4 x i8], %struct._ZSt6vectorIP14ompi_request_tSaIS1_EE, i32, %struct._ZSt5arrayIiLm27EE, %struct._ZSt6vectorIcSaIcEE, %struct._ZSt5arrayIiLm3EE, %struct._ZSt5arrayIiLm3EE, %struct._ZSt5arrayIbLm3EE, i8, %struct._ZSt5arrayIiLm3EE, %struct._ZSt5arrayIiLm3EE, %struct._ZSt5arrayIiLm3EE, %struct._ZSt5arrayIiLm3EE, [4 x i8], %struct.FsGridCouplingInformation*, %struct._ZSt5arrayIP15ompi_datatype_tLm27EE, %struct._ZSt5arrayIP15ompi_datatype_tLm27EE, %struct._ZSt6vectorISt5arrayIdLm15EESaIS1_EE}> 
%struct._ZNSt12_Vector_baseIcSaIcEE12_Vector_implE = type <{ %struct._ZNSt12_Vector_baseIcSaIcEE17_Vector_impl_dataE}> 
%struct._ZSt5arrayIdLm8EE = type <{ [8 x double]}> 
%struct._ZSt6vectorISt5arrayIdLm24EESaIS1_EE = type <{ %struct._ZSt12_Vector_baseISt5arrayIdLm24EESaIS1_EE}> 
%struct._ZNSt8__detail15_Hash_node_baseE = type <{ %struct._ZNSt8__detail15_Hash_node_baseE*}> 
%struct._ZSt6vectorIN7fsgrids9technicalESaIS1_EE = type <{ %struct._ZSt12_Vector_baseIN7fsgrids9technicalESaIS1_EE}> 
%struct.ompi_datatype_t = type opaque
%struct._ZSt5arrayIP15ompi_datatype_tLm27EE = type <{ [27 x %struct.ompi_datatype_t*]}> 
%struct._ZSt12_Vector_baseINSt7__cxx1112basic_stringIcSt11char_traitsIcESaIcEEESaIS5_EE = type <{ %struct._ZNSt12_Vector_baseINSt7__cxx1112basic_stringIcSt11char_traitsIcESaIcEEESaIS5_EE12_Vector_implE}> 
%struct._ZSt12_Vector_baseIcSaIcEE = type <{ %struct._ZNSt12_Vector_baseIcSaIcEE12_Vector_implE}> 
%struct._ZSt6vectorISt5arrayIdLm3EESaIS1_EE = type <{ %struct._ZSt12_Vector_baseISt5arrayIdLm3EESaIS1_EE}> 
%union.__C6 = type <{ [16 x i8]}> 
%struct._ZNSt12_Vector_baseISt5arrayIdLm15EESaIS1_EE17_Vector_impl_dataE = type <{ %struct._ZSt5arrayIdLm15EE*, %struct._ZSt5arrayIdLm15EE*, %struct._ZSt5arrayIdLm15EE*}> 
%struct._ZNSt12_Vector_baseISt5arrayIdLm24EESaIS1_EE12_Vector_implE = type <{ %struct._ZNSt12_Vector_baseISt5arrayIdLm24EESaIS1_EE17_Vector_impl_dataE}> 
%struct._ZNSt12_Vector_baseIiSaIiEE17_Vector_impl_dataE = type <{ i32*, i32*, i32*}> 
%struct._ZNSt7__cxx114listIPN3SBC20SysBoundaryConditionESaIS3_EEE = type <{ %struct._ZNSt7__cxx1110_List_baseIPN3SBC20SysBoundaryConditionESaIS3_EEE}> 
%struct._ZNSt7__cxx1112basic_stringIcSt11char_traitsIcESaIcEE12_Alloc_hiderE = type <{ i8*}> 
%struct._ZNSt12_Vector_baseIcSaIcEE17_Vector_impl_dataE = type <{ i8*, i8*, i8*}> 
%struct._ZSt5arrayIdLm15EE = type <{ [15 x double]}> 
%struct._ZNSt7__cxx1112basic_stringIcSt11char_traitsIcESaIcEEE = type <{ %struct._ZNSt7__cxx1112basic_stringIcSt11char_traitsIcESaIcEE12_Alloc_hiderE, i64, %union.__C6}> 
%struct._ZSt12_Vector_baseISt5arrayIdLm15EESaIS1_EE = type <{ %struct._ZNSt12_Vector_baseISt5arrayIdLm15EESaIS1_EE12_Vector_implE}> 
%struct._ZSt6vectorISt5arrayIdLm8EESaIS1_EE = type <{ %struct._ZSt12_Vector_baseISt5arrayIdLm8EESaIS1_EE}> 
%struct._ZNSt12_Vector_baseIP14ompi_request_tSaIS1_EE17_Vector_impl_dataE = type <{ %struct.ompi_request_t**, %struct.ompi_request_t**, %struct.ompi_request_t**}> 
%struct._ZNSt12_Vector_baseISt5arrayIdLm24EESaIS1_EE17_Vector_impl_dataE = type <{ %struct._ZSt5arrayIdLm24EE*, %struct._ZSt5arrayIdLm24EE*, %struct._ZSt5arrayIdLm24EE*}> 
%struct.SysBoundary = type <{ %struct._ZNSt7__cxx114listIPN3SBC20SysBoundaryConditionESaIS3_EEE, %struct._ZSt3mapIjPN3SBC20SysBoundaryConditionESt4lessIjESaISt4pairIKjS2_EEE, %struct._ZSt6vectorINSt7__cxx1112basic_stringIcSt11char_traitsIcESaIcEEESaIS5_EE, i8, [3 x i8], [4 x i8]}> 
%struct._ZSt6vectorIcSaIcEE = type <{ %struct._ZSt12_Vector_baseIcSaIcEE}> 
%struct._Z6FsGridIN7fsgrids9technicalELi2EE = type <{ double, double, double, %struct._ZSt5arrayIdLm3EE, %struct.ompi_communicator_t*, i32, [4 x i8], %struct._ZSt6vectorIP14ompi_request_tSaIS1_EE, i32, %struct._ZSt5arrayIiLm27EE, %struct._ZSt6vectorIcSaIcEE, %struct._ZSt5arrayIiLm3EE, %struct._ZSt5arrayIiLm3EE, %struct._ZSt5arrayIbLm3EE, i8, %struct._ZSt5arrayIiLm3EE, %struct._ZSt5arrayIiLm3EE, %struct._ZSt5arrayIiLm3EE, %struct._ZSt5arrayIiLm3EE, [4 x i8], %struct.FsGridCouplingInformation*, %struct._ZSt5arrayIP15ompi_datatype_tLm27EE, %struct._ZSt5arrayIP15ompi_datatype_tLm27EE, %struct._ZSt6vectorIN7fsgrids9technicalESaIS1_EE}> 
%struct._ZNSt12_Vector_baseIiSaIiEE12_Vector_implE = type <{ %struct._ZNSt12_Vector_baseIiSaIiEE17_Vector_impl_dataE}> 
%struct._ZSt6vectorINSt7__cxx1112basic_stringIcSt11char_traitsIcESaIcEEESaIS5_EE = type <{ %struct._ZSt12_Vector_baseINSt7__cxx1112basic_stringIcSt11char_traitsIcESaIcEEESaIS5_EE}> 
%struct._ZNSt8__detail20_Prime_rehash_policyE = type <{ float, [4 x i8], i64}> 
%struct._ZSt5arrayIdLm24EE = type <{ [24 x double]}> 
%struct._ZN7fsgrids9technicalE = type <{ i32, i32, double, i32, i32, i32, [4 x i8]}> 
%struct._ZSt12_Vector_baseISt5arrayIdLm3EESaIS1_EE = type <{ %struct._ZNSt12_Vector_baseISt5arrayIdLm3EESaIS1_EE12_Vector_implE}> 
%struct._ZSt5arrayIiLm3EE = type <{ [3 x i32]}> 
%struct._ZNSt12_Vector_baseISt5arrayIdLm8EESaIS1_EE17_Vector_impl_dataE = type <{ %struct._ZSt5arrayIdLm8EE*, %struct._ZSt5arrayIdLm8EE*, %struct._ZSt5arrayIdLm8EE*}> 
%struct._ZSt6vectorISt5arrayIdLm15EESaIS1_EE = type <{ %struct._ZSt12_Vector_baseISt5arrayIdLm15EESaIS1_EE}> 
%struct._ZSt20_Rb_tree_key_compareISt4lessIjEE = type <{ %struct._ZSt4lessIjE}> 
%struct._ZSt5arrayIiLm27EE = type <{ [27 x i32]}> 
%struct._ZNSt12_Vector_baseISt5arrayIdLm3EESaIS1_EE17_Vector_impl_dataE = type <{ %struct._ZSt5arrayIdLm3EE*, %struct._ZSt5arrayIdLm3EE*, %struct._ZSt5arrayIdLm3EE*}> 
%struct._ZSt12_Vector_baseISt5arrayIdLm24EESaIS1_EE = type <{ %struct._ZNSt12_Vector_baseISt5arrayIdLm24EESaIS1_EE12_Vector_implE}> 
%struct.ompi_communicator_t = type opaque
%struct._ZSt10_HashtableImSt4pairIKmSt6vectorImSaImEEESaIS5_ENSt8__detail10_Select1stESt8equal_toImESt4hashImENS7_18_Mod_range_hashingENS7_20_Default_ranged_hashENS7_20_Prime_rehash_policyENS7_17_Hashtable_traitsILb0ELb0ELb1EEEE = type <{ %struct._ZNSt8__detail15_Hash_node_baseE**, i64, %struct._ZNSt8__detail15_Hash_node_baseE, i64, %struct._ZNSt8__detail20_Prime_rehash_policyE, %struct._ZNSt8__detail15_Hash_node_baseE*}> 
%struct._ZNSt8_Rb_treeIjSt4pairIKjPN3SBC20SysBoundaryConditionEESt10_Select1stIS5_ESt4lessIjESaIS5_EE13_Rb_tree_implIS9_Lb1EEE = type <{ %struct._ZSt20_Rb_tree_key_compareISt4lessIjEE, [7 x i8], %struct._ZSt15_Rb_tree_header}> 
%struct._ZNSt12_Vector_baseIN7fsgrids9technicalESaIS1_EE17_Vector_impl_dataE = type <{ %struct._ZN7fsgrids9technicalE*, %struct._ZN7fsgrids9technicalE*, %struct._ZN7fsgrids9technicalE*}> 
%struct._ZSt18_Rb_tree_node_base = type <{ i32, [4 x i8], %struct._ZSt18_Rb_tree_node_base*, %struct._ZSt18_Rb_tree_node_base*, %struct._ZSt18_Rb_tree_node_base*}> 
%struct._ZSt13unordered_mapImSt5arrayIPN12spatial_cell11SpatialCellELm27EESt4hashImESt8equal_toImESaISt4pairIKmS4_EEE = type <{ %struct._ZSt10_HashtableImSt4pairIKmSt5arrayIPN12spatial_cell11SpatialCellELm27EEESaIS7_ENSt8__detail10_Select1stESt8equal_toImESt4hashImENS9_18_Mod_range_hashingENS9_20_Default_ranged_hashENS9_20_Prime_rehash_policyENS9_17_Hashtable_traitsILb0ELb0ELb1EEE}> 
%struct._Z6FsGridISt5arrayIdLm8EELi2EE = type <{ double, double, double, %struct._ZSt5arrayIdLm3EE, %struct.ompi_communicator_t*, i32, [4 x i8], %struct._ZSt6vectorIP14ompi_request_tSaIS1_EE, i32, %struct._ZSt5arrayIiLm27EE, %struct._ZSt6vectorIcSaIcEE, %struct._ZSt5arrayIiLm3EE, %struct._ZSt5arrayIiLm3EE, %struct._ZSt5arrayIbLm3EE, i8, %struct._ZSt5arrayIiLm3EE, %struct._ZSt5arrayIiLm3EE, %struct._ZSt5arrayIiLm3EE, %struct._ZSt5arrayIiLm3EE, [4 x i8], %struct.FsGridCouplingInformation*, %struct._ZSt5arrayIP15ompi_datatype_tLm27EE, %struct._ZSt5arrayIP15ompi_datatype_tLm27EE, %struct._ZSt6vectorISt5arrayIdLm8EESaIS1_EE}> 
%struct._ZSt8_Rb_treeIjSt4pairIKjPN3SBC20SysBoundaryConditionEESt10_Select1stIS5_ESt4lessIjESaIS5_EE = type <{ %struct._ZNSt8_Rb_treeIjSt4pairIKjPN3SBC20SysBoundaryConditionEESt10_Select1stIS5_ESt4lessIjESaIS5_EE13_Rb_tree_implIS9_Lb1EEE}> 
%struct._ZSt4lessIjE = type <{ [1 x i8]}> 
%struct._ZNSt7__cxx1110_List_baseIPN3SBC20SysBoundaryConditionESaIS3_EEE = type <{ %struct._ZNSt7__cxx1110_List_baseIPN3SBC20SysBoundaryConditionESaIS3_EE10_List_implE}> 
%struct._ZSt5arrayIdLm3EE = type <{ [3 x double]}> 
%struct._ZNSt12_Vector_baseISt5arrayIdLm3EESaIS1_EE12_Vector_implE = type <{ %struct._ZNSt12_Vector_baseISt5arrayIdLm3EESaIS1_EE17_Vector_impl_dataE}> 
%struct._ZNSt12_Vector_baseIN7fsgrids9technicalESaIS1_EE12_Vector_implE = type <{ %struct._ZNSt12_Vector_baseIN7fsgrids9technicalESaIS1_EE17_Vector_impl_dataE}> 
%struct._ZSt10_HashtableImSt4pairIKmSt5arrayIPN12spatial_cell11SpatialCellELm27EEESaIS7_ENSt8__detail10_Select1stESt8equal_toImESt4hashImENS9_18_Mod_range_hashingENS9_20_Default_ranged_hashENS9_20_Prime_rehash_policyENS9_17_Hashtable_traitsILb0ELb0ELb1EEE = type <{ %struct._ZNSt8__detail15_Hash_node_baseE**, i64, %struct._ZNSt8__detail15_Hash_node_baseE, i64, %struct._ZNSt8__detail20_Prime_rehash_policyE, %struct._ZNSt8__detail15_Hash_node_baseE*}> 
%struct._Z6FsGridISt5arrayIdLm3EELi2EE = type <{ double, double, double, %struct._ZSt5arrayIdLm3EE, %struct.ompi_communicator_t*, i32, [4 x i8], %struct._ZSt6vectorIP14ompi_request_tSaIS1_EE, i32, %struct._ZSt5arrayIiLm27EE, %struct._ZSt6vectorIcSaIcEE, %struct._ZSt5arrayIiLm3EE, %struct._ZSt5arrayIiLm3EE, %struct._ZSt5arrayIbLm3EE, i8, %struct._ZSt5arrayIiLm3EE, %struct._ZSt5arrayIiLm3EE, %struct._ZSt5arrayIiLm3EE, %struct._ZSt5arrayIiLm3EE, [4 x i8], %struct.FsGridCouplingInformation*, %struct._ZSt5arrayIP15ompi_datatype_tLm27EE, %struct._ZSt5arrayIP15ompi_datatype_tLm27EE, %struct._ZSt6vectorISt5arrayIdLm3EESaIS1_EE}> 
%struct._ZSt3mapIjPN3SBC20SysBoundaryConditionESt4lessIjESaISt4pairIKjS2_EEE = type <{ %struct._ZSt8_Rb_treeIjSt4pairIKjPN3SBC20SysBoundaryConditionEESt10_Select1stIS5_ESt4lessIjESaIS5_EE}> 
%struct.ompi_request_t = type opaque
%struct._ZN3SBC20SysBoundaryConditionE = type <{ i32 (...)* (...)*, i32, i8, [3 x i8], %struct._ZSt13unordered_mapImSt6vectorImSaImEESt4hashImESt8equal_toImESaISt4pairIKmS2_EEE, %struct._ZSt13unordered_mapImSt6vectorImSaImEESt4hashImESt8equal_toImESaISt4pairIKmS2_EEE, %struct._ZSt13unordered_mapImSt5arrayIPN12spatial_cell11SpatialCellELm27EESt4hashImESt8equal_toImESaISt4pairIKmS4_EEE, i8, [7 x i8]}> 
%struct.FsGridCouplingInformation = type <{ %struct._ZSt6vectorIiSaIiEE}> 
%struct._ZSt12_Vector_baseIP14ompi_request_tSaIS1_EE = type <{ %struct._ZNSt12_Vector_baseIP14ompi_request_tSaIS1_EE12_Vector_implE}> 
%struct._ZNSt8__detail15_List_node_baseE = type <{ %struct._ZNSt8__detail15_List_node_baseE*, %struct._ZNSt8__detail15_List_node_baseE*}> 
%struct._ZNSt12_Vector_baseISt5arrayIdLm8EESaIS1_EE12_Vector_implE = type <{ %struct._ZNSt12_Vector_baseISt5arrayIdLm8EESaIS1_EE17_Vector_impl_dataE}> 
%struct._ZSt15_Rb_tree_header = type <{ %struct._ZSt18_Rb_tree_node_base, i64}> 



define void @_Z20calculateDerivativesiiiR6FsGridISt5arrayIdLm3EELi2EERS_IS0_IdLm8EELi2EERS_IS0_IdLm15EELi2EERS_IS0_IdLm24EELi2EERS_IN7fsgrids9technicalELi2EER11SysBoundaryRKi(i32 signext %i.arg, i32 signext %j.arg, i32 signext %k.arg, %struct._Z6FsGridISt5arrayIdLm3EELi2EE* %perBGrid.arg, %struct._Z6FsGridISt5arrayIdLm8EELi2EE* %momentsGrid.arg, %struct._Z6FsGridISt5arrayIdLm15EELi2EE* %dPerBGrid.arg, %struct._Z6FsGridISt5arrayIdLm24EELi2EE* %dMomentsGrid.arg, %struct._Z6FsGridIN7fsgrids9technicalELi2EE* %technicalGrid.arg, %struct.SysBoundary* %sysBoundaries.arg, i32* %RKCase.arg) #0 !dbg !4308 {
L.entry:
	%i.addr = alloca i32, align 4
	%j.addr = alloca i32, align 4
	%k.addr = alloca i32, align 4
	%perBGrid.addr = alloca %struct._Z6FsGridISt5arrayIdLm3EELi2EE*, align 8
	%momentsGrid.addr = alloca %struct._Z6FsGridISt5arrayIdLm8EELi2EE*, align 8
	%dPerBGrid.addr = alloca %struct._Z6FsGridISt5arrayIdLm15EELi2EE*, align 8
	%dMomentsGrid.addr = alloca %struct._Z6FsGridISt5arrayIdLm24EELi2EE*, align 8
	%technicalGrid.addr = alloca %struct._Z6FsGridIN7fsgrids9technicalELi2EE*, align 8
	%sysBoundaries.addr = alloca %struct.SysBoundary*, align 8
	%RKCase.addr = alloca i32*, align 8
	%..inline.addr = alloca %struct._Z6FsGridISt5arrayIdLm15EELi2EE*, align 8
	%..inline.addr.1 = alloca i32, align 4
	%..inline.addr.2 = alloca i32, align 4
	%..inline.addr.3 = alloca i32, align 4
	%..inline.addr.4 = alloca i32, align 4
	%..inline.addr.5 = alloca [3 x i32], align 4
	%..inline.addr.6 = alloca %struct._ZSt5arrayIdLm15EE*, align 8
	%..inline.addr.7 = alloca i64, align 8
	%dPerB.addr = alloca %struct._ZSt5arrayIdLm15EE*, align 8
	%..inline.addr.8 = alloca %struct._Z6FsGridISt5arrayIdLm24EELi2EE*, align 8
	%..inline.addr.9 = alloca i32, align 4
	%..inline.addr.310 = alloca i32, align 4
	%..inline.addr.320 = alloca i32, align 4
	%..inline.addr.330 = alloca i32, align 4
	%..inline.addr.340 = alloca [3 x i32], align 4
	%..inline.addr.350 = alloca %struct._ZSt5arrayIdLm24EE*, align 8
	%..inline.addr.360 = alloca i64, align 8
	%dMoments.addr = alloca %struct._ZSt5arrayIdLm24EE*, align 8
	%..inline.addr.380 = alloca %struct._Z6FsGridIN7fsgrids9technicalELi2EE*, align 8
	%..inline.addr.390 = alloca i32, align 4
	%..inline.addr.400 = alloca i32, align 4
	%..inline.addr.410 = alloca i32, align 4
	%..inline.addr.420 = alloca i32, align 4
	%..inline.addr.430 = alloca [3 x i32], align 4
	%..inline.addr.440 = alloca %struct._ZN7fsgrids9technicalE*, align 8
	%..inline.addr.450 = alloca i64, align 8
	%sysBoundaryFlag.addr = alloca i32, align 4
	%..inline.addr.470 = alloca %struct._Z6FsGridIN7fsgrids9technicalELi2EE*, align 8
	%..inline.addr.480 = alloca i32, align 4
	%..inline.addr.490 = alloca i32, align 4
	%..inline.addr.500 = alloca i32, align 4
	%..inline.addr.510 = alloca i32, align 4
	%..inline.addr.520 = alloca [3 x i32], align 4
	%..inline.addr.530 = alloca %struct._ZN7fsgrids9technicalE*, align 8
	%..inline.addr.540 = alloca i64, align 8
	%sysBoundaryLayer.addr = alloca i32, align 4
	%..inline.addr.560 = alloca %struct._Z6FsGridISt5arrayIdLm8EELi2EE*, align 8
	%..inline.addr.570 = alloca i32, align 4
	%..inline.addr.580 = alloca i32, align 4
	%..inline.addr.590 = alloca i32, align 4
	%..inline.addr.600 = alloca i32, align 4
	%..inline.addr.610 = alloca [3 x i32], align 4
	%..inline.addr.620 = alloca %struct._ZSt5arrayIdLm8EE*, align 8
	%..inline.addr.630 = alloca i64, align 8
	%centMoments.addr = alloca %struct._ZSt5arrayIdLm8EE*, align 8
	%..inline.addr.650 = alloca %struct._Z6FsGridISt5arrayIdLm3EELi2EE*, align 8
	%..inline.addr.660 = alloca i32, align 4
	%..inline.addr.670 = alloca i32, align 4
	%..inline.addr.680 = alloca i32, align 4
	%..inline.addr.690 = alloca i32, align 4
	%..inline.addr.700 = alloca [3 x i32], align 4
	%..inline.addr.710 = alloca %struct._ZSt5arrayIdLm3EE*, align 8
	%..inline.addr.720 = alloca i64, align 8
	%centPerB.addr = alloca %struct._ZSt5arrayIdLm3EE*, align 8
	%..inline.addr.740 = alloca %struct._Z6FsGridISt5arrayIdLm3EELi2EE*, align 8
	%..inline.addr.750 = alloca i32, align 4
	%..inline.addr.760 = alloca i32, align 4
	%..inline.addr.770 = alloca i32, align 4
	%..inline.addr.780 = alloca i32, align 4
	%..inline.addr.790 = alloca [3 x i32], align 4
	%..inline.addr.800 = alloca %struct._ZSt5arrayIdLm3EE*, align 8
	%..inline.addr.810 = alloca i64, align 8
	%leftPerB.addr = alloca %struct._ZSt5arrayIdLm3EE*, align 8
	%..inline.addr.830 = alloca %struct._Z6FsGridISt5arrayIdLm3EELi2EE*, align 8
	%..inline.addr.840 = alloca i32, align 4
	%..inline.addr.850 = alloca i32, align 4
	%..inline.addr.860 = alloca i32, align 4
	%..inline.addr.870 = alloca i32, align 4
	%..inline.addr.880 = alloca [3 x i32], align 4
	%..inline.addr.890 = alloca %struct._ZSt5arrayIdLm3EE*, align 8
	%..inline.addr.900 = alloca i64, align 8
	%rghtPerB.addr = alloca %struct._ZSt5arrayIdLm3EE*, align 8
	%..inline.addr.920 = alloca %struct._Z6FsGridISt5arrayIdLm8EELi2EE*, align 8
	%..inline.addr.930 = alloca i32, align 4
	%..inline.addr.940 = alloca i32, align 4
	%..inline.addr.950 = alloca i32, align 4
	%..inline.addr.960 = alloca i32, align 4
	%..inline.addr.970 = alloca [3 x i32], align 4
	%..inline.addr.980 = alloca %struct._ZSt5arrayIdLm8EE*, align 8
	%..inline.addr.990 = alloca i64, align 8
	%leftMoments.addr = alloca %struct._ZSt5arrayIdLm8EE*, align 8
	%..inline.addr.1010 = alloca %struct._Z6FsGridISt5arrayIdLm8EELi2EE*, align 8
	%..inline.addr.1020 = alloca i32, align 4
	%..inline.addr.1030 = alloca i32, align 4
	%..inline.addr.1040 = alloca i32, align 4
	%..inline.addr.1050 = alloca i32, align 4
	%..inline.addr.1060 = alloca [3 x i32], align 4
	%..inline.addr.1070 = alloca %struct._ZSt5arrayIdLm8EE*, align 8
	%..inline.addr.1080 = alloca i64, align 8
	%rghtMoments.addr = alloca %struct._ZSt5arrayIdLm8EE*, align 8
	%..inline.addr.1100 = alloca double*, align 8
	%..inline.addr.1110 = alloca double*, align 8
	%..inline.addr.1120 = alloca double*, align 8
	%..inline.addr.1130 = alloca double*, align 8
	%..inline.addr.1140 = alloca double, align 8
	%..inline.addr.1150 = alloca double, align 8
	%..inline.addr.1160 = alloca double*, align 8
	%..inline.addr.1170 = alloca double, align 8
	%..inline.addr.1180 = alloca double, align 8
	%..inline.addr.1190 = alloca double*, align 8
	%..inline.addr.1200 = alloca double*, align 8
	%..inline.addr.1210 = alloca double*, align 8
	%..inline.addr.1220 = alloca double*, align 8
	%..inline.addr.1230 = alloca double, align 8
	%..inline.addr.1240 = alloca double, align 8
	%..inline.addr.1250 = alloca double*, align 8
	%..inline.addr.1260 = alloca double, align 8
	%..inline.addr.1270 = alloca double, align 8
	%..inline.addr.1280 = alloca double*, align 8
	%..inline.addr.1290 = alloca double*, align 8
	%..inline.addr.1300 = alloca double*, align 8
	%..inline.addr.1310 = alloca double*, align 8
	%..inline.addr.1320 = alloca double, align 8
	%..inline.addr.1330 = alloca double, align 8
	%..inline.addr.1340 = alloca double*, align 8
	%..inline.addr.1350 = alloca double, align 8
	%..inline.addr.1360 = alloca double, align 8
	%..inline.addr.1370 = alloca double*, align 8
	%..inline.addr.1380 = alloca double*, align 8
	%..inline.addr.1390 = alloca double*, align 8
	%..inline.addr.1400 = alloca double*, align 8
	%..inline.addr.1410 = alloca double, align 8
	%..inline.addr.1420 = alloca double, align 8
	%..inline.addr.1430 = alloca double*, align 8
	%..inline.addr.1440 = alloca double, align 8
	%..inline.addr.1450 = alloca double, align 8
	%..inline.addr.1460 = alloca double*, align 8
	%..inline.addr.1470 = alloca double*, align 8
	%..inline.addr.1480 = alloca double*, align 8
	%..inline.addr.1490 = alloca double*, align 8
	%..inline.addr.1500 = alloca double, align 8
	%..inline.addr.1510 = alloca double, align 8
	%..inline.addr.1520 = alloca double*, align 8
	%..inline.addr.1530 = alloca double, align 8
	%..inline.addr.1540 = alloca double, align 8
	%..inline.addr.1550 = alloca double*, align 8
	%..inline.addr.1560 = alloca double*, align 8
	%..inline.addr.1570 = alloca double*, align 8
	%..inline.addr.1580 = alloca double*, align 8
	%..inline.addr.1590 = alloca double, align 8
	%..inline.addr.1600 = alloca double, align 8
	%..inline.addr.1610 = alloca double*, align 8
	%..inline.addr.1620 = alloca double, align 8
	%..inline.addr.1630 = alloca double, align 8
	%..inline.addr.1640 = alloca double*, align 8
	%..inline.addr.1650 = alloca double*, align 8
	%..inline.addr.1660 = alloca double*, align 8
	%..inline.addr.1670 = alloca double*, align 8
	%..inline.addr.1680 = alloca double, align 8
	%..inline.addr.1690 = alloca double, align 8
	%..inline.addr.1700 = alloca double*, align 8
	%..inline.addr.1710 = alloca double, align 8
	%..inline.addr.1720 = alloca double, align 8
	%..inline.addr.1730 = alloca double*, align 8
	%..inline.addr.1740 = alloca double*, align 8
	%..inline.addr.1750 = alloca double*, align 8
	%..inline.addr.1760 = alloca double*, align 8
	%..inline.addr.1770 = alloca double, align 8
	%..inline.addr.1780 = alloca double, align 8
	%..inline.addr.1790 = alloca double*, align 8
	%..inline.addr.1800 = alloca double, align 8
	%..inline.addr.1810 = alloca double, align 8
	%..inline.addr.1820 = alloca double*, align 8
	%..inline.addr.1830 = alloca double*, align 8
	%..inline.addr.1840 = alloca double*, align 8
	%..inline.addr.1850 = alloca double*, align 8
	%..inline.addr.1860 = alloca double, align 8
	%..inline.addr.1870 = alloca double, align 8
	%..inline.addr.1880 = alloca double*, align 8
	%..inline.addr.1890 = alloca double, align 8
	%..inline.addr.1900 = alloca double, align 8
	%..inline.addr.1910 = alloca double*, align 8
	%..inline.addr.1920 = alloca double*, align 8
	%..inline.addr.1930 = alloca double*, align 8
	%..inline.addr.1940 = alloca double*, align 8
	%..inline.addr.1950 = alloca double, align 8
	%..inline.addr.1960 = alloca double, align 8
	%..inline.addr.1970 = alloca double*, align 8
	%..inline.addr.1980 = alloca double, align 8
	%..inline.addr.1990 = alloca double, align 8
	%_T32656592_51349.addr = alloca i32, align 4
	%.Q0000.addr = alloca %struct._ZN3SBC20SysBoundaryConditionE*, align 8
	%_T32657480_51349.addr = alloca %struct._ZN3SBC20SysBoundaryConditionE*, align 8
	%_T32656888_51349.addr = alloca i32, align 4
	%_T32657184_51349.addr = alloca i32, align 4
	%..inline.addr.2050 = alloca %struct._Z6FsGridISt5arrayIdLm3EELi2EE*, align 8
	%..inline.addr.2060 = alloca i32, align 4
	%..inline.addr.2070 = alloca i32, align 4
	%..inline.addr.2080 = alloca i32, align 4
	%..inline.addr.2090 = alloca i32, align 4
	%..inline.addr.2100 = alloca [3 x i32], align 4
	%..inline.addr.2110 = alloca %struct._ZSt5arrayIdLm3EE*, align 8
	%..inline.addr.2120 = alloca i64, align 8
	%..inline.addr.2130 = alloca %struct._Z6FsGridISt5arrayIdLm3EELi2EE*, align 8
	%..inline.addr.2140 = alloca i32, align 4
	%..inline.addr.2150 = alloca i32, align 4
	%..inline.addr.2160 = alloca i32, align 4
	%..inline.addr.2170 = alloca i32, align 4
	%..inline.addr.2180 = alloca [3 x i32], align 4
	%..inline.addr.2190 = alloca %struct._ZSt5arrayIdLm3EE*, align 8
	%..inline.addr.2200 = alloca i64, align 8
	%.Q0001.addr = alloca %struct._ZSt5arrayIdLm8EE*, align 8
	%.Q0002.addr = alloca %struct._ZSt5arrayIdLm8EE*, align 8
	%.Q0003.addr = alloca double*, align 8
	%.Q0004.addr = alloca double*, align 8
	%.Q0005.addr = alloca double*, align 8
	%.Q0006.addr = alloca double, align 8
	%.Q0007.addr = alloca double*, align 8
	%.Q0008.addr = alloca double*, align 8
	%.Q0009.addr = alloca double*, align 8
	%.Q0010.addr = alloca double*, align 8
	%.Q0011.addr = alloca double, align 8
	%.Q0012.addr = alloca double*, align 8
	%.Q0013.addr = alloca double*, align 8
	%.Q0014.addr = alloca double*, align 8
	%.Q0015.addr = alloca double*, align 8
	%.Q0016.addr = alloca double, align 8
	%.Q0017.addr = alloca double*, align 8
	%.Q0018.addr = alloca double*, align 8
	%.Q0019.addr = alloca double*, align 8
	%.Q0020.addr = alloca double*, align 8
	%.Q0021.addr = alloca double, align 8
	%.Q0022.addr = alloca double*, align 8
	%.Q0023.addr = alloca double*, align 8
	%.Q0024.addr = alloca double*, align 8
	%.Q0025.addr = alloca double*, align 8
	%.Q0026.addr = alloca double, align 8
	%.Q0027.addr = alloca double*, align 8
	%.Q0028.addr = alloca double*, align 8
	%.Q0029.addr = alloca double*, align 8
	%.Q0030.addr = alloca double*, align 8
	%.Q0031.addr = alloca double, align 8
	%.Q0032.addr = alloca double*, align 8
	%.Q0033.addr = alloca double*, align 8
	%.Q0034.addr = alloca double*, align 8
	%.Q0035.addr = alloca double*, align 8
	%.Q0036.addr = alloca double, align 8
	%.Q0037.addr = alloca double*, align 8
	%.Q0038.addr = alloca double*, align 8
	%.Q0039.addr = alloca double*, align 8
	%.Q0040.addr = alloca double*, align 8
	%.Q0041.addr = alloca double, align 8
	%.Q0042.addr = alloca double*, align 8
	%.Q0043.addr = alloca double*, align 8
	%.Q0044.addr = alloca double*, align 8
	%.Q0045.addr = alloca double*, align 8
	%.Q0046.addr = alloca double, align 8
	%.Q0047.addr = alloca double*, align 8
	%.Q0048.addr = alloca double*, align 8
	%.Q0049.addr = alloca double*, align 8
	%.Q0050.addr = alloca double*, align 8
	%.Q0051.addr = alloca double, align 8
	%.Q0052.addr = alloca double*, align 8
	%.Q0053.addr = alloca double*, align 8
	%.Q0054.addr = alloca double*, align 8
	%.Q0055.addr = alloca double*, align 8
	%.Q0056.addr = alloca double*, align 8
	%.Q0057.addr = alloca double*, align 8
	%.Q0058.addr = alloca double*, align 8
	%.Q0059.addr = alloca double*, align 8
	%.Q0060.addr = alloca double*, align 8
	%.Q0061.addr = alloca double*, align 8
	%.Q0062.addr = alloca double*, align 8
	%_T32657776_51349.addr = alloca i32, align 4
	%.Q0063.addr = alloca %struct._ZN3SBC20SysBoundaryConditionE*, align 8
	%_T32658664_51349.addr = alloca %struct._ZN3SBC20SysBoundaryConditionE*, align 8
	%_T32658072_51349.addr = alloca i32, align 4
	%_T32658368_51349.addr = alloca i32, align 4
	%.Q0064.addr = alloca %struct._ZSt5arrayIdLm3EE*, align 8
	%.Q0065.addr = alloca %struct._ZSt5arrayIdLm3EE*, align 8
	%.Q0066.addr = alloca %struct._ZSt5arrayIdLm8EE*, align 8
	%.Q0067.addr = alloca %struct._ZSt5arrayIdLm8EE*, align 8
	%.Q0068.addr = alloca double*, align 8
	%.Q0069.addr = alloca double*, align 8
	%.Q0070.addr = alloca double*, align 8
	%.Q0071.addr = alloca double, align 8
	%.Q0072.addr = alloca double*, align 8
	%.Q0073.addr = alloca double*, align 8
	%.Q0074.addr = alloca double*, align 8
	%.Q0075.addr = alloca double*, align 8
	%.Q0076.addr = alloca double, align 8
	%.Q0077.addr = alloca double*, align 8
	%.Q0078.addr = alloca double*, align 8
	%.Q0079.addr = alloca double*, align 8
	%.Q0080.addr = alloca double*, align 8
	%.Q0081.addr = alloca double, align 8
	%.Q0082.addr = alloca double*, align 8
	%.Q0083.addr = alloca double*, align 8
	%.Q0084.addr = alloca double*, align 8
	%.Q0085.addr = alloca double*, align 8
	%.Q0086.addr = alloca double, align 8
	%.Q0087.addr = alloca double*, align 8
	%.Q0088.addr = alloca double*, align 8
	%.Q0089.addr = alloca double*, align 8
	%.Q0090.addr = alloca double*, align 8
	%.Q0091.addr = alloca double, align 8
	%.Q0092.addr = alloca double*, align 8
	%.Q0093.addr = alloca double*, align 8
	%.Q0094.addr = alloca double*, align 8
	%.Q0095.addr = alloca double*, align 8
	%.Q0096.addr = alloca double, align 8
	%.Q0097.addr = alloca double*, align 8
	%.Q0098.addr = alloca double*, align 8
	%.Q0099.addr = alloca double*, align 8
	%.Q0100.addr = alloca double*, align 8
	%.Q0101.addr = alloca double, align 8
	%.Q0102.addr = alloca double*, align 8
	%.Q0103.addr = alloca double*, align 8
	%.Q0104.addr = alloca double*, align 8
	%.Q0105.addr = alloca double*, align 8
	%.Q0106.addr = alloca double, align 8
	%.Q0107.addr = alloca double*, align 8
	%.Q0108.addr = alloca double*, align 8
	%.Q0109.addr = alloca double*, align 8
	%.Q0110.addr = alloca double*, align 8
	%.Q0111.addr = alloca double, align 8
	%.Q0112.addr = alloca double*, align 8
	%.Q0113.addr = alloca double*, align 8
	%.Q0114.addr = alloca double*, align 8
	%.Q0115.addr = alloca double*, align 8
	%.Q0116.addr = alloca double, align 8
	%.Q0117.addr = alloca double*, align 8
	%.Q0118.addr = alloca double*, align 8
	%.Q0119.addr = alloca double*, align 8
	%.Q0120.addr = alloca double*, align 8
	%.Q0121.addr = alloca double*, align 8
	%.Q0122.addr = alloca double*, align 8
	%.Q0123.addr = alloca double*, align 8
	%.Q0124.addr = alloca double*, align 8
	%.Q0125.addr = alloca double*, align 8
	%.Q0126.addr = alloca double*, align 8
	%.Q0127.addr = alloca double*, align 8
	%_T32658960_51349.addr = alloca i32, align 4
	%.Q0128.addr = alloca %struct._ZN3SBC20SysBoundaryConditionE*, align 8
	%_T32659848_51349.addr = alloca %struct._ZN3SBC20SysBoundaryConditionE*, align 8
	%_T32659256_51349.addr = alloca i32, align 4
	%_T32659552_51349.addr = alloca i32, align 4
	%.Q0129.addr = alloca double*, align 8
	%.Q0130.addr = alloca double*, align 8
	%.Q0131.addr = alloca double*, align 8
	%.Q0132.addr = alloca %struct._ZSt5arrayIdLm3EE*, align 8
	%botLeft.addr = alloca %struct._ZSt5arrayIdLm3EE*, align 8
	%.Q0133.addr = alloca %struct._ZSt5arrayIdLm3EE*, align 8
	%botRght.addr = alloca %struct._ZSt5arrayIdLm3EE*, align 8
	%.Q0134.addr = alloca %struct._ZSt5arrayIdLm3EE*, align 8
	%topLeft.addr = alloca %struct._ZSt5arrayIdLm3EE*, align 8
	%.Q0135.addr = alloca %struct._ZSt5arrayIdLm3EE*, align 8
	%topRght.addr = alloca %struct._ZSt5arrayIdLm3EE*, align 8
	%.Q0136.addr = alloca double*, align 8
	%.Q0137.addr = alloca double*, align 8
	%.Q0138.addr = alloca double*, align 8
	%.Q0139.addr = alloca double*, align 8
	%.Q0140.addr = alloca double*, align 8
	%_T32660144_51349.addr = alloca i32, align 4
	%.Q0141.addr = alloca %struct._ZN3SBC20SysBoundaryConditionE*, align 8
	%_T32661032_51349.addr = alloca %struct._ZN3SBC20SysBoundaryConditionE*, align 8
	%_T32660440_51349.addr = alloca i32, align 4
	%_T32660736_51349.addr = alloca i32, align 4
	%.Q0142.addr = alloca %struct._ZSt5arrayIdLm3EE*, align 8
	%.Q0143.addr = alloca %struct._ZSt5arrayIdLm3EE*, align 8
	%.Q0144.addr = alloca %struct._ZSt5arrayIdLm3EE*, align 8
	%.Q0145.addr = alloca %struct._ZSt5arrayIdLm3EE*, align 8
	%.Q0146.addr = alloca double*, align 8
	%.Q0147.addr = alloca double*, align 8
	%.Q0148.addr = alloca double*, align 8
	%.Q0149.addr = alloca double*, align 8
	%.Q0150.addr = alloca double*, align 8
	%_T32661328_51349.addr = alloca i32, align 4
	%.Q0151.addr = alloca %struct._ZN3SBC20SysBoundaryConditionE*, align 8
	%_T32662216_51349.addr = alloca %struct._ZN3SBC20SysBoundaryConditionE*, align 8
	%_T32661624_51349.addr = alloca i32, align 4
	%_T32661920_51349.addr = alloca i32, align 4
	%.Q0152.addr = alloca %struct._ZSt5arrayIdLm3EE*, align 8
	%.Q0153.addr = alloca %struct._ZSt5arrayIdLm3EE*, align 8
	%.Q0154.addr = alloca %struct._ZSt5arrayIdLm3EE*, align 8
	%.Q0155.addr = alloca %struct._ZSt5arrayIdLm3EE*, align 8
	%.Q0156.addr = alloca double*, align 8
	%.Q0157.addr = alloca double*, align 8
	%.Q0158.addr = alloca double*, align 8
	%.Q0159.addr = alloca double*, align 8
	%.Q0160.addr = alloca double*, align 8
	%_T32662512_51349.addr = alloca i32, align 4
	%.Q0161.addr = alloca %struct._ZN3SBC20SysBoundaryConditionE*, align 8
	%_T32663400_51349.addr = alloca %struct._ZN3SBC20SysBoundaryConditionE*, align 8
	%_T32662808_51349.addr = alloca i32, align 4
	%_T32663104_51349.addr = alloca i32, align 4

	call void @llvm.dbg.declare (metadata i32* %i.addr, metadata !6358, metadata !6359), !dbg !4309
	store i32 %i.arg, i32* %i.addr, align 4, !tbaa !6533
	call void @llvm.dbg.declare (metadata i32* %i.addr, metadata !6360, metadata !6359), !dbg !4309
	call void @llvm.dbg.declare (metadata i32* %j.addr, metadata !6361, metadata !6359), !dbg !4309
	store i32 %j.arg, i32* %j.addr, align 4, !tbaa !6533
	call void @llvm.dbg.declare (metadata i32* %j.addr, metadata !6362, metadata !6359), !dbg !4309
	call void @llvm.dbg.declare (metadata i32* %k.addr, metadata !6363, metadata !6359), !dbg !4309
	store i32 %k.arg, i32* %k.addr, align 4, !tbaa !6533
	call void @llvm.dbg.declare (metadata i32* %k.addr, metadata !6364, metadata !6359), !dbg !4309
	call void @llvm.dbg.declare (metadata %struct._Z6FsGridISt5arrayIdLm3EELi2EE** %perBGrid.addr, metadata !6365, metadata !6359), !dbg !4309
	store %struct._Z6FsGridISt5arrayIdLm3EELi2EE* %perBGrid.arg, %struct._Z6FsGridISt5arrayIdLm3EELi2EE** %perBGrid.addr, align 8, !tbaa !6534
	call void @llvm.dbg.declare (metadata %struct._Z6FsGridISt5arrayIdLm3EELi2EE** %perBGrid.addr, metadata !6366, metadata !6359), !dbg !4309
	call void @llvm.dbg.declare (metadata %struct._Z6FsGridISt5arrayIdLm8EELi2EE** %momentsGrid.addr, metadata !6367, metadata !6359), !dbg !4309
	store %struct._Z6FsGridISt5arrayIdLm8EELi2EE* %momentsGrid.arg, %struct._Z6FsGridISt5arrayIdLm8EELi2EE** %momentsGrid.addr, align 8, !tbaa !6534
	call void @llvm.dbg.declare (metadata %struct._Z6FsGridISt5arrayIdLm8EELi2EE** %momentsGrid.addr, metadata !6368, metadata !6359), !dbg !4309
	call void @llvm.dbg.declare (metadata %struct._Z6FsGridISt5arrayIdLm15EELi2EE** %dPerBGrid.addr, metadata !6369, metadata !6359), !dbg !4309
	store %struct._Z6FsGridISt5arrayIdLm15EELi2EE* %dPerBGrid.arg, %struct._Z6FsGridISt5arrayIdLm15EELi2EE** %dPerBGrid.addr, align 8, !tbaa !6534
	call void @llvm.dbg.declare (metadata %struct._Z6FsGridISt5arrayIdLm15EELi2EE** %dPerBGrid.addr, metadata !6370, metadata !6359), !dbg !4309
	call void @llvm.dbg.declare (metadata %struct._Z6FsGridISt5arrayIdLm24EELi2EE** %dMomentsGrid.addr, metadata !6371, metadata !6359), !dbg !4309
	store %struct._Z6FsGridISt5arrayIdLm24EELi2EE* %dMomentsGrid.arg, %struct._Z6FsGridISt5arrayIdLm24EELi2EE** %dMomentsGrid.addr, align 8, !tbaa !6534
	call void @llvm.dbg.declare (metadata %struct._Z6FsGridISt5arrayIdLm24EELi2EE** %dMomentsGrid.addr, metadata !6372, metadata !6359), !dbg !4309
	call void @llvm.dbg.declare (metadata %struct._Z6FsGridIN7fsgrids9technicalELi2EE** %technicalGrid.addr, metadata !6373, metadata !6359), !dbg !4309
	store %struct._Z6FsGridIN7fsgrids9technicalELi2EE* %technicalGrid.arg, %struct._Z6FsGridIN7fsgrids9technicalELi2EE** %technicalGrid.addr, align 8, !tbaa !6534
	call void @llvm.dbg.declare (metadata %struct._Z6FsGridIN7fsgrids9technicalELi2EE** %technicalGrid.addr, metadata !6374, metadata !6359), !dbg !4309
	call void @llvm.dbg.declare (metadata %struct.SysBoundary** %sysBoundaries.addr, metadata !6375, metadata !6359), !dbg !4309
	store %struct.SysBoundary* %sysBoundaries.arg, %struct.SysBoundary** %sysBoundaries.addr, align 8, !tbaa !6534
	call void @llvm.dbg.declare (metadata %struct.SysBoundary** %sysBoundaries.addr, metadata !6376, metadata !6359), !dbg !4309
	call void @llvm.dbg.declare (metadata i32** %RKCase.addr, metadata !6377, metadata !6359), !dbg !4309
	store i32* %RKCase.arg, i32** %RKCase.addr, align 8, !tbaa !6534
	call void @llvm.dbg.declare (metadata i32** %RKCase.addr, metadata !6378, metadata !6359), !dbg !4309
	%0 = load %struct._Z6FsGridISt5arrayIdLm15EELi2EE*, %struct._Z6FsGridISt5arrayIdLm15EELi2EE** %dPerBGrid.addr, align 8, !tbaa !6534, !dbg !6379
	%1 = bitcast %struct._Z6FsGridISt5arrayIdLm15EELi2EE*  %0 to i8*, !dbg !6379
	%2 = bitcast %struct._Z6FsGridISt5arrayIdLm15EELi2EE** %..inline.addr to i8**, !dbg !6379
	store i8*  %1, i8**  %2, align 8, !tbaa !6534, !dbg !6379
	%3 = load i32, i32* %i.addr, align 4, !tbaa !6536, !dbg !6379
	store i32  %3, i32* %..inline.addr.1, align 4, !tbaa !6536, !dbg !6379
	%4 = load i32, i32* %j.addr, align 4, !tbaa !6536, !dbg !6379
	store i32  %4, i32* %..inline.addr.2, align 4, !tbaa !6536, !dbg !6379
	%5 = load i32, i32* %k.addr, align 4, !tbaa !6536, !dbg !6379
	store i32  %5, i32* %..inline.addr.3, align 4, !tbaa !6536, !dbg !6379
	store i32 13, i32* %..inline.addr.4, align 4, !tbaa !6536, !dbg !6379
	%6 = bitcast [3 x i32]* %..inline.addr.5 to i32*, !dbg !6380
	store i32 0, i32*  %6, align 4, !tbaa !6533, !dbg !6380
	%7 = bitcast [3 x i32]* %..inline.addr.5 to i8*, !dbg !6381
	%8 = getelementptr i8, i8*  %7, i64 4, !dbg !6381
	%9 = bitcast i8*  %8 to i32*, !dbg !6381
	store i32 0, i32*  %9, align 4, !tbaa !6533, !dbg !6381
	%10 = getelementptr i8, i8*  %7, i64 8, !dbg !6381
	%11 = bitcast i8*  %10 to i32*, !dbg !6381
	store i32 0, i32*  %11, align 4, !tbaa !6533, !dbg !6381
	%12 = icmp sge i32  %3, 0, !dbg !6381
	br i1  %12, label %L..inline.76884, label %L.B1874, !dbg !6381
L.B1874:
	store i32 4, i32* %..inline.addr.4, align 4, !tbaa !6536, !dbg !6382
	%13 = bitcast [3 x i32]* %..inline.addr.5 to i32*, !dbg !6383
	store i32 1, i32*  %13, align 4, !tbaa !6533, !dbg !6383
	br label %L..inline.76884
L..inline.76884:
	%14 = load i32, i32* %..inline.addr.1, align 4, !tbaa !6536, !dbg !6384
	%15 = load %struct._Z6FsGridISt5arrayIdLm15EELi2EE*, %struct._Z6FsGridISt5arrayIdLm15EELi2EE** %..inline.addr, align 8, !tbaa !6534, !dbg !6384
	%16 = bitcast %struct._Z6FsGridISt5arrayIdLm15EELi2EE*  %15 to i8*, !dbg !6384
	%17 = getelementptr i8, i8*  %16, i64 264, !dbg !6384
	%18 = bitcast i8*  %17 to i32*, !dbg !6384
	%19 = load i32, i32*  %18, align 4, !tbaa !6533, !dbg !6384
	%20 = icmp slt i32  %14,  %19, !dbg !6384
	br i1  %20, label %L..inline.76902, label %L.B1875, !dbg !6384
L.B1875:
	%21 = load i32, i32* %..inline.addr.4, align 4, !tbaa !6536, !dbg !6384
	%22 = add i32  %21, 9, !dbg !6384
	store i32  %22, i32* %..inline.addr.4, align 4, !tbaa !6536, !dbg !6384
	%23 = bitcast [3 x i32]* %..inline.addr.5 to i32*, !dbg !6385
	store i32 -1, i32*  %23, align 4, !tbaa !6533, !dbg !6385
	br label %L..inline.76902
L..inline.76902:
	%24 = load i32, i32* %..inline.addr.2, align 4, !tbaa !6536, !dbg !6386
	%25 = icmp sge i32  %24, 0, !dbg !6386
	br i1  %25, label %L..inline.76904, label %L.B1876, !dbg !6386
L.B1876:
	%26 = load i32, i32* %..inline.addr.4, align 4, !tbaa !6536, !dbg !6386
	%27 = sub i32  %26, 3, !dbg !6386
	store i32  %27, i32* %..inline.addr.4, align 4, !tbaa !6536, !dbg !6386
	%28 = bitcast [3 x i32]* %..inline.addr.5 to i8*, !dbg !6387
	%29 = getelementptr i8, i8*  %28, i64 4, !dbg !6387
	%30 = bitcast i8*  %29 to i32*, !dbg !6387
	store i32 1, i32*  %30, align 4, !tbaa !6533, !dbg !6387
	br label %L..inline.76904
L..inline.76904:
	%31 = load i32, i32* %..inline.addr.2, align 4, !tbaa !6536, !dbg !6388
	%32 = load %struct._Z6FsGridISt5arrayIdLm15EELi2EE*, %struct._Z6FsGridISt5arrayIdLm15EELi2EE** %..inline.addr, align 8, !tbaa !6534, !dbg !6388
	%33 = bitcast %struct._Z6FsGridISt5arrayIdLm15EELi2EE*  %32 to i8*, !dbg !6388
	%34 = getelementptr i8, i8*  %33, i64 268, !dbg !6388
	%35 = bitcast i8*  %34 to i32*, !dbg !6388
	%36 = load i32, i32*  %35, align 4, !tbaa !6533, !dbg !6388
	%37 = icmp slt i32  %31,  %36, !dbg !6388
	br i1  %37, label %L..inline.76921, label %L.B1877, !dbg !6388
L.B1877:
	%38 = load i32, i32* %..inline.addr.4, align 4, !tbaa !6536, !dbg !6388
	%39 = add i32  %38, 3, !dbg !6388
	store i32  %39, i32* %..inline.addr.4, align 4, !tbaa !6536, !dbg !6388
	%40 = bitcast [3 x i32]* %..inline.addr.5 to i8*, !dbg !6389
	%41 = getelementptr i8, i8*  %40, i64 4, !dbg !6389
	%42 = bitcast i8*  %41 to i32*, !dbg !6389
	store i32 -1, i32*  %42, align 4, !tbaa !6533, !dbg !6389
	br label %L..inline.76921
L..inline.76921:
	%43 = load i32, i32* %..inline.addr.3, align 4, !tbaa !6536, !dbg !6390
	%44 = icmp sge i32  %43, 0, !dbg !6390
	br i1  %44, label %L..inline.76923, label %L.B1878, !dbg !6390
L.B1878:
	%45 = load i32, i32* %..inline.addr.4, align 4, !tbaa !6536, !dbg !6390
	%46 = sub i32  %45, 1, !dbg !6390
	store i32  %46, i32* %..inline.addr.4, align 4, !tbaa !6536, !dbg !6390
	%47 = bitcast [3 x i32]* %..inline.addr.5 to i8*, !dbg !6391
	%48 = getelementptr i8, i8*  %47, i64 8, !dbg !6391
	%49 = bitcast i8*  %48 to i32*, !dbg !6391
	store i32 1, i32*  %49, align 4, !tbaa !6533, !dbg !6391
	br label %L..inline.76923
L..inline.76923:
	%50 = load i32, i32* %..inline.addr.3, align 4, !tbaa !6536, !dbg !6392
	%51 = load %struct._Z6FsGridISt5arrayIdLm15EELi2EE*, %struct._Z6FsGridISt5arrayIdLm15EELi2EE** %..inline.addr, align 8, !tbaa !6534, !dbg !6392
	%52 = bitcast %struct._Z6FsGridISt5arrayIdLm15EELi2EE*  %51 to i8*, !dbg !6392
	%53 = getelementptr i8, i8*  %52, i64 272, !dbg !6392
	%54 = bitcast i8*  %53 to i32*, !dbg !6392
	%55 = load i32, i32*  %54, align 4, !tbaa !6533, !dbg !6392
	%56 = icmp slt i32  %50,  %55, !dbg !6392
	br i1  %56, label %L..inline.76940, label %L.B1879, !dbg !6392
L.B1879:
	%57 = load i32, i32* %..inline.addr.4, align 4, !tbaa !6536, !dbg !6392
	%58 = add i32  %57, 1, !dbg !6392
	store i32  %58, i32* %..inline.addr.4, align 4, !tbaa !6536, !dbg !6392
	%59 = bitcast [3 x i32]* %..inline.addr.5 to i8*, !dbg !6393
	%60 = getelementptr i8, i8*  %59, i64 8, !dbg !6393
	%61 = bitcast i8*  %60 to i32*, !dbg !6393
	store i32 -1, i32*  %61, align 4, !tbaa !6533, !dbg !6393
	br label %L..inline.76940
L..inline.76940:
	%62 = load i32, i32* %..inline.addr.4, align 4, !tbaa !6536, !dbg !6394
	%63 = icmp eq i32  %62, 13, !dbg !6394
	br i1  %63, label %L..inline.76941, label %L.B1880, !dbg !6394
L.B1880:
	%64 = sext i32  %62 to i64, !dbg !6395
	%65 = load %struct._Z6FsGridISt5arrayIdLm15EELi2EE*, %struct._Z6FsGridISt5arrayIdLm15EELi2EE** %..inline.addr, align 8, !tbaa !6534, !dbg !6395
	%66 = bitcast %struct._Z6FsGridISt5arrayIdLm15EELi2EE*  %65 to i8*, !dbg !6395
	%67 = getelementptr i8, i8*  %66, i64 92, !dbg !6395
	%68 = bitcast i8*  %67 to i32*, !dbg !6395
	%69 = getelementptr i32, i32*  %68, i64  %64, !dbg !6395
	%70 = load i32, i32*  %69, align 4, !tbaa !6533, !dbg !6395
	%71 = icmp ne i32  %70, -2, !dbg !6395
	br i1  %71, label %L..inline.76958, label %L.B1881, !dbg !6395
L.B1881:
	%72 = bitcast %struct._ZSt5arrayIdLm15EE** %..inline.addr.6 to i8**, !dbg !6395
	store i8* null, i8**  %72, align 8, !tbaa !6534, !dbg !6395
	br label %L..inline.77145, !dbg !6396
L..inline.76958:
	%73 = load i32, i32* %..inline.addr.4, align 4, !tbaa !6536, !dbg !6397
	%74 = sext i32  %73 to i64, !dbg !6397
	%75 = load %struct._Z6FsGridISt5arrayIdLm15EELi2EE*, %struct._Z6FsGridISt5arrayIdLm15EELi2EE** %..inline.addr, align 8, !tbaa !6534, !dbg !6397
	%76 = bitcast %struct._Z6FsGridISt5arrayIdLm15EELi2EE*  %75 to i8*, !dbg !6397
	%77 = getelementptr i8, i8*  %76, i64 92, !dbg !6397
	%78 = bitcast i8*  %77 to i32*, !dbg !6397
	%79 = getelementptr i32, i32*  %78, i64  %74, !dbg !6397
	%80 = load i32, i32*  %79, align 4, !tbaa !6533, !dbg !6397
	%81 = getelementptr i8, i8*  %76, i64 56, !dbg !6397
	%82 = bitcast i8*  %81 to i32*, !dbg !6397
	%83 = load i32, i32*  %82, align 4, !tbaa !6533, !dbg !6397
	%84 = icmp ne i32  %80,  %83, !dbg !6397
	br i1  %84, label %L..inline.76976, label %L.B1882, !dbg !6397
L.B1882:
	%85 = load i32, i32* %..inline.addr.1, align 4, !tbaa !6536, !dbg !6398
	%86 = bitcast [3 x i32]* %..inline.addr.5 to i32*, !dbg !6398
	%87 = load i32, i32*  %86, align 4, !tbaa !6533, !dbg !6398
	%88 = bitcast %struct._Z6FsGridISt5arrayIdLm15EELi2EE*  %75 to i8*, !dbg !6398
	%89 = getelementptr i8, i8*  %88, i64 264, !dbg !6398
	%90 = bitcast i8*  %89 to i32*, !dbg !6398
	%91 = load i32, i32*  %90, align 4, !tbaa !6533, !dbg !6398
	%92 = mul i32  %87,  %91, !dbg !6398
	%93 = add i32  %85,  %92, !dbg !6398
	store i32  %93, i32* %..inline.addr.1, align 4, !tbaa !6536, !dbg !6398
	%94 = load i32, i32* %..inline.addr.2, align 4, !tbaa !6536, !dbg !6399
	%95 = bitcast [3 x i32]* %..inline.addr.5 to i8*, !dbg !6399
	%96 = getelementptr i8, i8*  %95, i64 4, !dbg !6399
	%97 = bitcast i8*  %96 to i32*, !dbg !6399
	%98 = load i32, i32*  %97, align 4, !tbaa !6533, !dbg !6399
	%99 = getelementptr i8, i8*  %88, i64 268, !dbg !6399
	%100 = bitcast i8*  %99 to i32*, !dbg !6399
	%101 = load i32, i32*  %100, align 4, !tbaa !6533, !dbg !6399
	%102 = mul i32  %98,  %101, !dbg !6399
	%103 = add i32  %94,  %102, !dbg !6399
	store i32  %103, i32* %..inline.addr.2, align 4, !tbaa !6536, !dbg !6399
	%104 = load i32, i32* %..inline.addr.3, align 4, !tbaa !6536, !dbg !6400
	%105 = getelementptr i8, i8*  %95, i64 8, !dbg !6400
	%106 = bitcast i8*  %105 to i32*, !dbg !6400
	%107 = load i32, i32*  %106, align 4, !tbaa !6533, !dbg !6400
	%108 = getelementptr i8, i8*  %88, i64 272, !dbg !6400
	%109 = bitcast i8*  %108 to i32*, !dbg !6400
	%110 = load i32, i32*  %109, align 4, !tbaa !6533, !dbg !6400
	%111 = mul i32  %107,  %110, !dbg !6400
	%112 = add i32  %104,  %111, !dbg !6400
	store i32  %112, i32* %..inline.addr.3, align 4, !tbaa !6536, !dbg !6400
	br label %L..inline.76976
L..inline.76976:
	br label %L..inline.76941
L..inline.76941:
	store i64 0, i64* %..inline.addr.7, align 8, !tbaa !6538, !dbg !6401
	%113 = load %struct._Z6FsGridISt5arrayIdLm15EELi2EE*, %struct._Z6FsGridISt5arrayIdLm15EELi2EE** %..inline.addr, align 8, !tbaa !6534, !dbg !6401
	%114 = bitcast %struct._Z6FsGridISt5arrayIdLm15EELi2EE*  %113 to i8*, !dbg !6401
	%115 = getelementptr i8, i8*  %114, i64 260, !dbg !6401
	%116 = bitcast i8*  %115 to i32*, !dbg !6401
	%117 = load i32, i32*  %116, align 4, !tbaa !6533, !dbg !6401
	%118 = icmp sle i32  %117, 1, !dbg !6401
	br i1  %118, label %L..inline.77050, label %L.B1883, !dbg !6401
L.B1883:
	%119 = load i32, i32* %..inline.addr.3, align 4, !tbaa !6536, !dbg !6401
	%120 = add i32  %119, 2, !dbg !6401
	%121 = bitcast %struct._Z6FsGridISt5arrayIdLm15EELi2EE*  %113 to i8*, !dbg !6401
	%122 = getelementptr i8, i8*  %121, i64 280, !dbg !6401
	%123 = bitcast i8*  %122 to i32*, !dbg !6401
	%124 = load i32, i32*  %123, align 4, !tbaa !6533, !dbg !6401
	%125 = getelementptr i8, i8*  %121, i64 276, !dbg !6401
	%126 = bitcast i8*  %125 to i32*, !dbg !6401
	%127 = load i32, i32*  %126, align 4, !tbaa !6533, !dbg !6401
	%128 = mul i32  %124,  %127, !dbg !6401
	%129 = mul i32  %120,  %128, !dbg !6401
	%130 = sext i32  %129 to i64, !dbg !6401
	store i64  %130, i64* %..inline.addr.7, align 8, !tbaa !6538, !dbg !6401
	br label %L..inline.77050
L..inline.77050:
	%131 = load %struct._Z6FsGridISt5arrayIdLm15EELi2EE*, %struct._Z6FsGridISt5arrayIdLm15EELi2EE** %..inline.addr, align 8, !tbaa !6534, !dbg !6401
	%132 = bitcast %struct._Z6FsGridISt5arrayIdLm15EELi2EE*  %131 to i8*, !dbg !6401
	%133 = getelementptr i8, i8*  %132, i64 256, !dbg !6401
	%134 = bitcast i8*  %133 to i32*, !dbg !6401
	%135 = load i32, i32*  %134, align 4, !tbaa !6533, !dbg !6401
	%136 = icmp sle i32  %135, 1, !dbg !6401
	br i1  %136, label %L..inline.77099, label %L.B1884, !dbg !6401
L.B1884:
	%137 = load i64, i64* %..inline.addr.7, align 8, !tbaa !6538, !dbg !6401
	%138 = bitcast %struct._Z6FsGridISt5arrayIdLm15EELi2EE*  %131 to i8*, !dbg !6401
	%139 = getelementptr i8, i8*  %138, i64 276, !dbg !6401
	%140 = bitcast i8*  %139 to i32*, !dbg !6401
	%141 = load i32, i32*  %140, align 4, !tbaa !6533, !dbg !6401
	%142 = load i32, i32* %..inline.addr.2, align 4, !tbaa !6536, !dbg !6401
	%143 = add i32  %142, 2, !dbg !6401
	%144 = mul i32  %141,  %143, !dbg !6401
	%145 = sext i32  %144 to i64, !dbg !6401
	%146 = add i64  %137,  %145, !dbg !6401
	store i64  %146, i64* %..inline.addr.7, align 8, !tbaa !6538, !dbg !6401
	br label %L..inline.77099
L..inline.77099:
	%147 = load %struct._Z6FsGridISt5arrayIdLm15EELi2EE*, %struct._Z6FsGridISt5arrayIdLm15EELi2EE** %..inline.addr, align 8, !tbaa !6534, !dbg !6401
	%148 = bitcast %struct._Z6FsGridISt5arrayIdLm15EELi2EE*  %147 to i8*, !dbg !6401
	%149 = getelementptr i8, i8*  %148, i64 252, !dbg !6401
	%150 = bitcast i8*  %149 to i32*, !dbg !6401
	%151 = load i32, i32*  %150, align 4, !tbaa !6533, !dbg !6401
	%152 = icmp sle i32  %151, 1, !dbg !6401
	%153 = zext i1  %152 to i32, !dbg !6401
	%154 = trunc i32  %153 to i1, !dbg !6401
	%155 = load i64, i64* %..inline.addr.7, align 8, !tbaa !6538, !dbg !6401
	%156 = load i32, i32* %..inline.addr.1, align 4, !tbaa !6536, !dbg !6401
	%157 = sext i32  %156 to i64, !dbg !6401
	%158 = add i64  %157, 2, !dbg !6401
	%159 = add i64  %155,  %158, !dbg !6401
	%160 = select i1  %154, i64  %155, i64  %159, !dbg !6401
	%161 = getelementptr i8, i8*  %148, i64 744, !dbg !6402
	%162 = bitcast i8*  %161 to i8**, !dbg !6402
	%163 = load i8*, i8**  %162, align 8, !tbaa !6534, !dbg !6402
	%164 = mul i64  %160, 120, !dbg !6402
	%165 = getelementptr i8, i8*  %163, i64  %164, !dbg !6402
	%166 = bitcast %struct._ZSt5arrayIdLm15EE** %..inline.addr.6 to i8**, !dbg !6402
	store i8*  %165, i8**  %166, align 8, !tbaa !6534, !dbg !6402
	br label %L..inline.77145
L..inline.77145:
	%167 = load %struct._ZSt5arrayIdLm15EE*, %struct._ZSt5arrayIdLm15EE** %..inline.addr.6, align 8, !tbaa !6534, !dbg !6403
	%168 = bitcast %struct._ZSt5arrayIdLm15EE*  %167 to i8*, !dbg !6403
	call void @llvm.dbg.declare (metadata %struct._ZSt5arrayIdLm15EE** %dPerB.addr, metadata !6404, metadata !6359), !dbg !4309
	%169 = bitcast %struct._ZSt5arrayIdLm15EE** %dPerB.addr to i8**, !dbg !6403
	store i8*  %168, i8**  %169, align 8, !tbaa !6534, !dbg !6403
	%170 = load %struct._Z6FsGridISt5arrayIdLm24EELi2EE*, %struct._Z6FsGridISt5arrayIdLm24EELi2EE** %dMomentsGrid.addr, align 8, !tbaa !6534, !dbg !6405
	%171 = bitcast %struct._Z6FsGridISt5arrayIdLm24EELi2EE*  %170 to i8*, !dbg !6405
	%172 = bitcast %struct._Z6FsGridISt5arrayIdLm24EELi2EE** %..inline.addr.8 to i8**, !dbg !6405
	store i8*  %171, i8**  %172, align 8, !tbaa !6534, !dbg !6405
	%173 = load i32, i32* %i.addr, align 4, !tbaa !6536, !dbg !6405
	store i32  %173, i32* %..inline.addr.9, align 4, !tbaa !6536, !dbg !6405
	%174 = load i32, i32* %j.addr, align 4, !tbaa !6536, !dbg !6405
	store i32  %174, i32* %..inline.addr.310, align 4, !tbaa !6536, !dbg !6405
	%175 = load i32, i32* %k.addr, align 4, !tbaa !6536, !dbg !6405
	store i32  %175, i32* %..inline.addr.320, align 4, !tbaa !6536, !dbg !6405
	store i32 13, i32* %..inline.addr.330, align 4, !tbaa !6536, !dbg !6405
	%176 = bitcast [3 x i32]* %..inline.addr.340 to i32*, !dbg !6380
	store i32 0, i32*  %176, align 4, !tbaa !6533, !dbg !6380
	%177 = bitcast [3 x i32]* %..inline.addr.340 to i8*, !dbg !6381
	%178 = getelementptr i8, i8*  %177, i64 4, !dbg !6381
	%179 = bitcast i8*  %178 to i32*, !dbg !6381
	store i32 0, i32*  %179, align 4, !tbaa !6533, !dbg !6381
	%180 = getelementptr i8, i8*  %177, i64 8, !dbg !6381
	%181 = bitcast i8*  %180 to i32*, !dbg !6381
	store i32 0, i32*  %181, align 4, !tbaa !6533, !dbg !6381
	%182 = icmp sge i32  %173, 0, !dbg !6381
	br i1  %182, label %L..inline.77151, label %L.B1885, !dbg !6381
L.B1885:
	store i32 4, i32* %..inline.addr.330, align 4, !tbaa !6536, !dbg !6382
	%183 = bitcast [3 x i32]* %..inline.addr.340 to i32*, !dbg !6383
	store i32 1, i32*  %183, align 4, !tbaa !6533, !dbg !6383
	br label %L..inline.77151
L..inline.77151:
	%184 = load i32, i32* %..inline.addr.9, align 4, !tbaa !6536, !dbg !6384
	%185 = load %struct._Z6FsGridISt5arrayIdLm24EELi2EE*, %struct._Z6FsGridISt5arrayIdLm24EELi2EE** %..inline.addr.8, align 8, !tbaa !6534, !dbg !6384
	%186 = bitcast %struct._Z6FsGridISt5arrayIdLm24EELi2EE*  %185 to i8*, !dbg !6384
	%187 = getelementptr i8, i8*  %186, i64 264, !dbg !6384
	%188 = bitcast i8*  %187 to i32*, !dbg !6384
	%189 = load i32, i32*  %188, align 4, !tbaa !6533, !dbg !6384
	%190 = icmp slt i32  %184,  %189, !dbg !6384
	br i1  %190, label %L..inline.77169, label %L.B1886, !dbg !6384
L.B1886:
	%191 = load i32, i32* %..inline.addr.330, align 4, !tbaa !6536, !dbg !6384
	%192 = add i32  %191, 9, !dbg !6384
	store i32  %192, i32* %..inline.addr.330, align 4, !tbaa !6536, !dbg !6384
	%193 = bitcast [3 x i32]* %..inline.addr.340 to i32*, !dbg !6385
	store i32 -1, i32*  %193, align 4, !tbaa !6533, !dbg !6385
	br label %L..inline.77169
L..inline.77169:
	%194 = load i32, i32* %..inline.addr.310, align 4, !tbaa !6536, !dbg !6386
	%195 = icmp sge i32  %194, 0, !dbg !6386
	br i1  %195, label %L..inline.77171, label %L.B1887, !dbg !6386
L.B1887:
	%196 = load i32, i32* %..inline.addr.330, align 4, !tbaa !6536, !dbg !6386
	%197 = sub i32  %196, 3, !dbg !6386
	store i32  %197, i32* %..inline.addr.330, align 4, !tbaa !6536, !dbg !6386
	%198 = bitcast [3 x i32]* %..inline.addr.340 to i8*, !dbg !6387
	%199 = getelementptr i8, i8*  %198, i64 4, !dbg !6387
	%200 = bitcast i8*  %199 to i32*, !dbg !6387
	store i32 1, i32*  %200, align 4, !tbaa !6533, !dbg !6387
	br label %L..inline.77171
L..inline.77171:
	%201 = load i32, i32* %..inline.addr.310, align 4, !tbaa !6536, !dbg !6388
	%202 = load %struct._Z6FsGridISt5arrayIdLm24EELi2EE*, %struct._Z6FsGridISt5arrayIdLm24EELi2EE** %..inline.addr.8, align 8, !tbaa !6534, !dbg !6388
	%203 = bitcast %struct._Z6FsGridISt5arrayIdLm24EELi2EE*  %202 to i8*, !dbg !6388
	%204 = getelementptr i8, i8*  %203, i64 268, !dbg !6388
	%205 = bitcast i8*  %204 to i32*, !dbg !6388
	%206 = load i32, i32*  %205, align 4, !tbaa !6533, !dbg !6388
	%207 = icmp slt i32  %201,  %206, !dbg !6388
	br i1  %207, label %L..inline.77188, label %L.B1888, !dbg !6388
L.B1888:
	%208 = load i32, i32* %..inline.addr.330, align 4, !tbaa !6536, !dbg !6388
	%209 = add i32  %208, 3, !dbg !6388
	store i32  %209, i32* %..inline.addr.330, align 4, !tbaa !6536, !dbg !6388
	%210 = bitcast [3 x i32]* %..inline.addr.340 to i8*, !dbg !6389
	%211 = getelementptr i8, i8*  %210, i64 4, !dbg !6389
	%212 = bitcast i8*  %211 to i32*, !dbg !6389
	store i32 -1, i32*  %212, align 4, !tbaa !6533, !dbg !6389
	br label %L..inline.77188
L..inline.77188:
	%213 = load i32, i32* %..inline.addr.320, align 4, !tbaa !6536, !dbg !6390
	%214 = icmp sge i32  %213, 0, !dbg !6390
	br i1  %214, label %L..inline.77190, label %L.B1889, !dbg !6390
L.B1889:
	%215 = load i32, i32* %..inline.addr.330, align 4, !tbaa !6536, !dbg !6390
	%216 = sub i32  %215, 1, !dbg !6390
	store i32  %216, i32* %..inline.addr.330, align 4, !tbaa !6536, !dbg !6390
	%217 = bitcast [3 x i32]* %..inline.addr.340 to i8*, !dbg !6391
	%218 = getelementptr i8, i8*  %217, i64 8, !dbg !6391
	%219 = bitcast i8*  %218 to i32*, !dbg !6391
	store i32 1, i32*  %219, align 4, !tbaa !6533, !dbg !6391
	br label %L..inline.77190
L..inline.77190:
	%220 = load i32, i32* %..inline.addr.320, align 4, !tbaa !6536, !dbg !6392
	%221 = load %struct._Z6FsGridISt5arrayIdLm24EELi2EE*, %struct._Z6FsGridISt5arrayIdLm24EELi2EE** %..inline.addr.8, align 8, !tbaa !6534, !dbg !6392
	%222 = bitcast %struct._Z6FsGridISt5arrayIdLm24EELi2EE*  %221 to i8*, !dbg !6392
	%223 = getelementptr i8, i8*  %222, i64 272, !dbg !6392
	%224 = bitcast i8*  %223 to i32*, !dbg !6392
	%225 = load i32, i32*  %224, align 4, !tbaa !6533, !dbg !6392
	%226 = icmp slt i32  %220,  %225, !dbg !6392
	br i1  %226, label %L..inline.77207, label %L.B1890, !dbg !6392
L.B1890:
	%227 = load i32, i32* %..inline.addr.330, align 4, !tbaa !6536, !dbg !6392
	%228 = add i32  %227, 1, !dbg !6392
	store i32  %228, i32* %..inline.addr.330, align 4, !tbaa !6536, !dbg !6392
	%229 = bitcast [3 x i32]* %..inline.addr.340 to i8*, !dbg !6393
	%230 = getelementptr i8, i8*  %229, i64 8, !dbg !6393
	%231 = bitcast i8*  %230 to i32*, !dbg !6393
	store i32 -1, i32*  %231, align 4, !tbaa !6533, !dbg !6393
	br label %L..inline.77207
L..inline.77207:
	%232 = load i32, i32* %..inline.addr.330, align 4, !tbaa !6536, !dbg !6394
	%233 = icmp eq i32  %232, 13, !dbg !6394
	br i1  %233, label %L..inline.77208, label %L.B1891, !dbg !6394
L.B1891:
	%234 = sext i32  %232 to i64, !dbg !6395
	%235 = load %struct._Z6FsGridISt5arrayIdLm24EELi2EE*, %struct._Z6FsGridISt5arrayIdLm24EELi2EE** %..inline.addr.8, align 8, !tbaa !6534, !dbg !6395
	%236 = bitcast %struct._Z6FsGridISt5arrayIdLm24EELi2EE*  %235 to i8*, !dbg !6395
	%237 = getelementptr i8, i8*  %236, i64 92, !dbg !6395
	%238 = bitcast i8*  %237 to i32*, !dbg !6395
	%239 = getelementptr i32, i32*  %238, i64  %234, !dbg !6395
	%240 = load i32, i32*  %239, align 4, !tbaa !6533, !dbg !6395
	%241 = icmp ne i32  %240, -2, !dbg !6395
	br i1  %241, label %L..inline.77225, label %L.B1892, !dbg !6395
L.B1892:
	%242 = bitcast %struct._ZSt5arrayIdLm24EE** %..inline.addr.350 to i8**, !dbg !6395
	store i8* null, i8**  %242, align 8, !tbaa !6534, !dbg !6395
	br label %L..inline.77412, !dbg !6396
L..inline.77225:
	%243 = load i32, i32* %..inline.addr.330, align 4, !tbaa !6536, !dbg !6397
	%244 = sext i32  %243 to i64, !dbg !6397
	%245 = load %struct._Z6FsGridISt5arrayIdLm24EELi2EE*, %struct._Z6FsGridISt5arrayIdLm24EELi2EE** %..inline.addr.8, align 8, !tbaa !6534, !dbg !6397
	%246 = bitcast %struct._Z6FsGridISt5arrayIdLm24EELi2EE*  %245 to i8*, !dbg !6397
	%247 = getelementptr i8, i8*  %246, i64 92, !dbg !6397
	%248 = bitcast i8*  %247 to i32*, !dbg !6397
	%249 = getelementptr i32, i32*  %248, i64  %244, !dbg !6397
	%250 = load i32, i32*  %249, align 4, !tbaa !6533, !dbg !6397
	%251 = getelementptr i8, i8*  %246, i64 56, !dbg !6397
	%252 = bitcast i8*  %251 to i32*, !dbg !6397
	%253 = load i32, i32*  %252, align 4, !tbaa !6533, !dbg !6397
	%254 = icmp ne i32  %250,  %253, !dbg !6397
	br i1  %254, label %L..inline.77243, label %L.B1893, !dbg !6397
L.B1893:
	%255 = load i32, i32* %..inline.addr.9, align 4, !tbaa !6536, !dbg !6398
	%256 = bitcast [3 x i32]* %..inline.addr.340 to i32*, !dbg !6398
	%257 = load i32, i32*  %256, align 4, !tbaa !6533, !dbg !6398
	%258 = bitcast %struct._Z6FsGridISt5arrayIdLm24EELi2EE*  %245 to i8*, !dbg !6398
	%259 = getelementptr i8, i8*  %258, i64 264, !dbg !6398
	%260 = bitcast i8*  %259 to i32*, !dbg !6398
	%261 = load i32, i32*  %260, align 4, !tbaa !6533, !dbg !6398
	%262 = mul i32  %257,  %261, !dbg !6398
	%263 = add i32  %255,  %262, !dbg !6398
	store i32  %263, i32* %..inline.addr.9, align 4, !tbaa !6536, !dbg !6398
	%264 = load i32, i32* %..inline.addr.310, align 4, !tbaa !6536, !dbg !6399
	%265 = bitcast [3 x i32]* %..inline.addr.340 to i8*, !dbg !6399
	%266 = getelementptr i8, i8*  %265, i64 4, !dbg !6399
	%267 = bitcast i8*  %266 to i32*, !dbg !6399
	%268 = load i32, i32*  %267, align 4, !tbaa !6533, !dbg !6399
	%269 = getelementptr i8, i8*  %258, i64 268, !dbg !6399
	%270 = bitcast i8*  %269 to i32*, !dbg !6399
	%271 = load i32, i32*  %270, align 4, !tbaa !6533, !dbg !6399
	%272 = mul i32  %268,  %271, !dbg !6399
	%273 = add i32  %264,  %272, !dbg !6399
	store i32  %273, i32* %..inline.addr.310, align 4, !tbaa !6536, !dbg !6399
	%274 = load i32, i32* %..inline.addr.320, align 4, !tbaa !6536, !dbg !6400
	%275 = getelementptr i8, i8*  %265, i64 8, !dbg !6400
	%276 = bitcast i8*  %275 to i32*, !dbg !6400
	%277 = load i32, i32*  %276, align 4, !tbaa !6533, !dbg !6400
	%278 = getelementptr i8, i8*  %258, i64 272, !dbg !6400
	%279 = bitcast i8*  %278 to i32*, !dbg !6400
	%280 = load i32, i32*  %279, align 4, !tbaa !6533, !dbg !6400
	%281 = mul i32  %277,  %280, !dbg !6400
	%282 = add i32  %274,  %281, !dbg !6400
	store i32  %282, i32* %..inline.addr.320, align 4, !tbaa !6536, !dbg !6400
	br label %L..inline.77243
L..inline.77243:
	br label %L..inline.77208
L..inline.77208:
	store i64 0, i64* %..inline.addr.360, align 8, !tbaa !6538, !dbg !6401
	%283 = load %struct._Z6FsGridISt5arrayIdLm24EELi2EE*, %struct._Z6FsGridISt5arrayIdLm24EELi2EE** %..inline.addr.8, align 8, !tbaa !6534, !dbg !6401
	%284 = bitcast %struct._Z6FsGridISt5arrayIdLm24EELi2EE*  %283 to i8*, !dbg !6401
	%285 = getelementptr i8, i8*  %284, i64 260, !dbg !6401
	%286 = bitcast i8*  %285 to i32*, !dbg !6401
	%287 = load i32, i32*  %286, align 4, !tbaa !6533, !dbg !6401
	%288 = icmp sle i32  %287, 1, !dbg !6401
	br i1  %288, label %L..inline.77317, label %L.B1894, !dbg !6401
L.B1894:
	%289 = load i32, i32* %..inline.addr.320, align 4, !tbaa !6536, !dbg !6401
	%290 = add i32  %289, 2, !dbg !6401
	%291 = bitcast %struct._Z6FsGridISt5arrayIdLm24EELi2EE*  %283 to i8*, !dbg !6401
	%292 = getelementptr i8, i8*  %291, i64 280, !dbg !6401
	%293 = bitcast i8*  %292 to i32*, !dbg !6401
	%294 = load i32, i32*  %293, align 4, !tbaa !6533, !dbg !6401
	%295 = getelementptr i8, i8*  %291, i64 276, !dbg !6401
	%296 = bitcast i8*  %295 to i32*, !dbg !6401
	%297 = load i32, i32*  %296, align 4, !tbaa !6533, !dbg !6401
	%298 = mul i32  %294,  %297, !dbg !6401
	%299 = mul i32  %290,  %298, !dbg !6401
	%300 = sext i32  %299 to i64, !dbg !6401
	store i64  %300, i64* %..inline.addr.360, align 8, !tbaa !6538, !dbg !6401
	br label %L..inline.77317
L..inline.77317:
	%301 = load %struct._Z6FsGridISt5arrayIdLm24EELi2EE*, %struct._Z6FsGridISt5arrayIdLm24EELi2EE** %..inline.addr.8, align 8, !tbaa !6534, !dbg !6401
	%302 = bitcast %struct._Z6FsGridISt5arrayIdLm24EELi2EE*  %301 to i8*, !dbg !6401
	%303 = getelementptr i8, i8*  %302, i64 256, !dbg !6401
	%304 = bitcast i8*  %303 to i32*, !dbg !6401
	%305 = load i32, i32*  %304, align 4, !tbaa !6533, !dbg !6401
	%306 = icmp sle i32  %305, 1, !dbg !6401
	br i1  %306, label %L..inline.77366, label %L.B1895, !dbg !6401
L.B1895:
	%307 = load i64, i64* %..inline.addr.360, align 8, !tbaa !6538, !dbg !6401
	%308 = bitcast %struct._Z6FsGridISt5arrayIdLm24EELi2EE*  %301 to i8*, !dbg !6401
	%309 = getelementptr i8, i8*  %308, i64 276, !dbg !6401
	%310 = bitcast i8*  %309 to i32*, !dbg !6401
	%311 = load i32, i32*  %310, align 4, !tbaa !6533, !dbg !6401
	%312 = load i32, i32* %..inline.addr.310, align 4, !tbaa !6536, !dbg !6401
	%313 = add i32  %312, 2, !dbg !6401
	%314 = mul i32  %311,  %313, !dbg !6401
	%315 = sext i32  %314 to i64, !dbg !6401
	%316 = add i64  %307,  %315, !dbg !6401
	store i64  %316, i64* %..inline.addr.360, align 8, !tbaa !6538, !dbg !6401
	br label %L..inline.77366
L..inline.77366:
	%317 = load %struct._Z6FsGridISt5arrayIdLm24EELi2EE*, %struct._Z6FsGridISt5arrayIdLm24EELi2EE** %..inline.addr.8, align 8, !tbaa !6534, !dbg !6401
	%318 = bitcast %struct._Z6FsGridISt5arrayIdLm24EELi2EE*  %317 to i8*, !dbg !6401
	%319 = getelementptr i8, i8*  %318, i64 252, !dbg !6401
	%320 = bitcast i8*  %319 to i32*, !dbg !6401
	%321 = load i32, i32*  %320, align 4, !tbaa !6533, !dbg !6401
	%322 = icmp sle i32  %321, 1, !dbg !6401
	%323 = zext i1  %322 to i32, !dbg !6401
	%324 = trunc i32  %323 to i1, !dbg !6401
	%325 = load i64, i64* %..inline.addr.360, align 8, !tbaa !6538, !dbg !6401
	%326 = load i32, i32* %..inline.addr.9, align 4, !tbaa !6536, !dbg !6401
	%327 = sext i32  %326 to i64, !dbg !6401
	%328 = add i64  %327, 2, !dbg !6401
	%329 = add i64  %325,  %328, !dbg !6401
	%330 = select i1  %324, i64  %325, i64  %329, !dbg !6401
	%331 = getelementptr i8, i8*  %318, i64 744, !dbg !6402
	%332 = bitcast i8*  %331 to i8**, !dbg !6402
	%333 = load i8*, i8**  %332, align 8, !tbaa !6534, !dbg !6402
	%334 = mul i64  %330, 192, !dbg !6402
	%335 = getelementptr i8, i8*  %333, i64  %334, !dbg !6402
	%336 = bitcast %struct._ZSt5arrayIdLm24EE** %..inline.addr.350 to i8**, !dbg !6402
	store i8*  %335, i8**  %336, align 8, !tbaa !6534, !dbg !6402
	br label %L..inline.77412
L..inline.77412:
	%337 = load %struct._ZSt5arrayIdLm24EE*, %struct._ZSt5arrayIdLm24EE** %..inline.addr.350, align 8, !tbaa !6534, !dbg !6403
	%338 = bitcast %struct._ZSt5arrayIdLm24EE*  %337 to i8*, !dbg !6403
	call void @llvm.dbg.declare (metadata %struct._ZSt5arrayIdLm24EE** %dMoments.addr, metadata !6406, metadata !6359), !dbg !4309
	%339 = bitcast %struct._ZSt5arrayIdLm24EE** %dMoments.addr to i8**, !dbg !6403
	store i8*  %338, i8**  %339, align 8, !tbaa !6534, !dbg !6403
	%340 = load %struct._Z6FsGridIN7fsgrids9technicalELi2EE*, %struct._Z6FsGridIN7fsgrids9technicalELi2EE** %technicalGrid.addr, align 8, !tbaa !6534, !dbg !6407
	%341 = bitcast %struct._Z6FsGridIN7fsgrids9technicalELi2EE*  %340 to i8*, !dbg !6407
	%342 = bitcast %struct._Z6FsGridIN7fsgrids9technicalELi2EE** %..inline.addr.380 to i8**, !dbg !6407
	store i8*  %341, i8**  %342, align 8, !tbaa !6534, !dbg !6407
	%343 = load i32, i32* %i.addr, align 4, !tbaa !6536, !dbg !6407
	store i32  %343, i32* %..inline.addr.390, align 4, !tbaa !6536, !dbg !6407
	%344 = load i32, i32* %j.addr, align 4, !tbaa !6536, !dbg !6407
	store i32  %344, i32* %..inline.addr.400, align 4, !tbaa !6536, !dbg !6407
	%345 = load i32, i32* %k.addr, align 4, !tbaa !6536, !dbg !6407
	store i32  %345, i32* %..inline.addr.410, align 4, !tbaa !6536, !dbg !6407
	store i32 13, i32* %..inline.addr.420, align 4, !tbaa !6536, !dbg !6407
	%346 = bitcast [3 x i32]* %..inline.addr.430 to i32*, !dbg !6380
	store i32 0, i32*  %346, align 4, !tbaa !6533, !dbg !6380
	%347 = bitcast [3 x i32]* %..inline.addr.430 to i8*, !dbg !6381
	%348 = getelementptr i8, i8*  %347, i64 4, !dbg !6381
	%349 = bitcast i8*  %348 to i32*, !dbg !6381
	store i32 0, i32*  %349, align 4, !tbaa !6533, !dbg !6381
	%350 = getelementptr i8, i8*  %347, i64 8, !dbg !6381
	%351 = bitcast i8*  %350 to i32*, !dbg !6381
	store i32 0, i32*  %351, align 4, !tbaa !6533, !dbg !6381
	%352 = icmp sge i32  %343, 0, !dbg !6381
	br i1  %352, label %L..inline.77418, label %L.B1896, !dbg !6381
L.B1896:
	store i32 4, i32* %..inline.addr.420, align 4, !tbaa !6536, !dbg !6382
	%353 = bitcast [3 x i32]* %..inline.addr.430 to i32*, !dbg !6383
	store i32 1, i32*  %353, align 4, !tbaa !6533, !dbg !6383
	br label %L..inline.77418
L..inline.77418:
	%354 = load i32, i32* %..inline.addr.390, align 4, !tbaa !6536, !dbg !6384
	%355 = load %struct._Z6FsGridIN7fsgrids9technicalELi2EE*, %struct._Z6FsGridIN7fsgrids9technicalELi2EE** %..inline.addr.380, align 8, !tbaa !6534, !dbg !6384
	%356 = bitcast %struct._Z6FsGridIN7fsgrids9technicalELi2EE*  %355 to i8*, !dbg !6384
	%357 = getelementptr i8, i8*  %356, i64 264, !dbg !6384
	%358 = bitcast i8*  %357 to i32*, !dbg !6384
	%359 = load i32, i32*  %358, align 4, !tbaa !6533, !dbg !6384
	%360 = icmp slt i32  %354,  %359, !dbg !6384
	br i1  %360, label %L..inline.77436, label %L.B1897, !dbg !6384
L.B1897:
	%361 = load i32, i32* %..inline.addr.420, align 4, !tbaa !6536, !dbg !6384
	%362 = add i32  %361, 9, !dbg !6384
	store i32  %362, i32* %..inline.addr.420, align 4, !tbaa !6536, !dbg !6384
	%363 = bitcast [3 x i32]* %..inline.addr.430 to i32*, !dbg !6385
	store i32 -1, i32*  %363, align 4, !tbaa !6533, !dbg !6385
	br label %L..inline.77436
L..inline.77436:
	%364 = load i32, i32* %..inline.addr.400, align 4, !tbaa !6536, !dbg !6386
	%365 = icmp sge i32  %364, 0, !dbg !6386
	br i1  %365, label %L..inline.77438, label %L.B1898, !dbg !6386
L.B1898:
	%366 = load i32, i32* %..inline.addr.420, align 4, !tbaa !6536, !dbg !6386
	%367 = sub i32  %366, 3, !dbg !6386
	store i32  %367, i32* %..inline.addr.420, align 4, !tbaa !6536, !dbg !6386
	%368 = bitcast [3 x i32]* %..inline.addr.430 to i8*, !dbg !6387
	%369 = getelementptr i8, i8*  %368, i64 4, !dbg !6387
	%370 = bitcast i8*  %369 to i32*, !dbg !6387
	store i32 1, i32*  %370, align 4, !tbaa !6533, !dbg !6387
	br label %L..inline.77438
L..inline.77438:
	%371 = load i32, i32* %..inline.addr.400, align 4, !tbaa !6536, !dbg !6388
	%372 = load %struct._Z6FsGridIN7fsgrids9technicalELi2EE*, %struct._Z6FsGridIN7fsgrids9technicalELi2EE** %..inline.addr.380, align 8, !tbaa !6534, !dbg !6388
	%373 = bitcast %struct._Z6FsGridIN7fsgrids9technicalELi2EE*  %372 to i8*, !dbg !6388
	%374 = getelementptr i8, i8*  %373, i64 268, !dbg !6388
	%375 = bitcast i8*  %374 to i32*, !dbg !6388
	%376 = load i32, i32*  %375, align 4, !tbaa !6533, !dbg !6388
	%377 = icmp slt i32  %371,  %376, !dbg !6388
	br i1  %377, label %L..inline.77455, label %L.B1899, !dbg !6388
L.B1899:
	%378 = load i32, i32* %..inline.addr.420, align 4, !tbaa !6536, !dbg !6388
	%379 = add i32  %378, 3, !dbg !6388
	store i32  %379, i32* %..inline.addr.420, align 4, !tbaa !6536, !dbg !6388
	%380 = bitcast [3 x i32]* %..inline.addr.430 to i8*, !dbg !6389
	%381 = getelementptr i8, i8*  %380, i64 4, !dbg !6389
	%382 = bitcast i8*  %381 to i32*, !dbg !6389
	store i32 -1, i32*  %382, align 4, !tbaa !6533, !dbg !6389
	br label %L..inline.77455
L..inline.77455:
	%383 = load i32, i32* %..inline.addr.410, align 4, !tbaa !6536, !dbg !6390
	%384 = icmp sge i32  %383, 0, !dbg !6390
	br i1  %384, label %L..inline.77457, label %L.B1900, !dbg !6390
L.B1900:
	%385 = load i32, i32* %..inline.addr.420, align 4, !tbaa !6536, !dbg !6390
	%386 = sub i32  %385, 1, !dbg !6390
	store i32  %386, i32* %..inline.addr.420, align 4, !tbaa !6536, !dbg !6390
	%387 = bitcast [3 x i32]* %..inline.addr.430 to i8*, !dbg !6391
	%388 = getelementptr i8, i8*  %387, i64 8, !dbg !6391
	%389 = bitcast i8*  %388 to i32*, !dbg !6391
	store i32 1, i32*  %389, align 4, !tbaa !6533, !dbg !6391
	br label %L..inline.77457
L..inline.77457:
	%390 = load i32, i32* %..inline.addr.410, align 4, !tbaa !6536, !dbg !6392
	%391 = load %struct._Z6FsGridIN7fsgrids9technicalELi2EE*, %struct._Z6FsGridIN7fsgrids9technicalELi2EE** %..inline.addr.380, align 8, !tbaa !6534, !dbg !6392
	%392 = bitcast %struct._Z6FsGridIN7fsgrids9technicalELi2EE*  %391 to i8*, !dbg !6392
	%393 = getelementptr i8, i8*  %392, i64 272, !dbg !6392
	%394 = bitcast i8*  %393 to i32*, !dbg !6392
	%395 = load i32, i32*  %394, align 4, !tbaa !6533, !dbg !6392
	%396 = icmp slt i32  %390,  %395, !dbg !6392
	br i1  %396, label %L..inline.77474, label %L.B1901, !dbg !6392
L.B1901:
	%397 = load i32, i32* %..inline.addr.420, align 4, !tbaa !6536, !dbg !6392
	%398 = add i32  %397, 1, !dbg !6392
	store i32  %398, i32* %..inline.addr.420, align 4, !tbaa !6536, !dbg !6392
	%399 = bitcast [3 x i32]* %..inline.addr.430 to i8*, !dbg !6393
	%400 = getelementptr i8, i8*  %399, i64 8, !dbg !6393
	%401 = bitcast i8*  %400 to i32*, !dbg !6393
	store i32 -1, i32*  %401, align 4, !tbaa !6533, !dbg !6393
	br label %L..inline.77474
L..inline.77474:
	%402 = load i32, i32* %..inline.addr.420, align 4, !tbaa !6536, !dbg !6394
	%403 = icmp eq i32  %402, 13, !dbg !6394
	br i1  %403, label %L..inline.77475, label %L.B1902, !dbg !6394
L.B1902:
	%404 = sext i32  %402 to i64, !dbg !6395
	%405 = load %struct._Z6FsGridIN7fsgrids9technicalELi2EE*, %struct._Z6FsGridIN7fsgrids9technicalELi2EE** %..inline.addr.380, align 8, !tbaa !6534, !dbg !6395
	%406 = bitcast %struct._Z6FsGridIN7fsgrids9technicalELi2EE*  %405 to i8*, !dbg !6395
	%407 = getelementptr i8, i8*  %406, i64 92, !dbg !6395
	%408 = bitcast i8*  %407 to i32*, !dbg !6395
	%409 = getelementptr i32, i32*  %408, i64  %404, !dbg !6395
	%410 = load i32, i32*  %409, align 4, !tbaa !6533, !dbg !6395
	%411 = icmp ne i32  %410, -2, !dbg !6395
	br i1  %411, label %L..inline.77492, label %L.B1903, !dbg !6395
L.B1903:
	%412 = bitcast %struct._ZN7fsgrids9technicalE** %..inline.addr.440 to i8**, !dbg !6395
	store i8* null, i8**  %412, align 8, !tbaa !6534, !dbg !6395
	br label %L..inline.77679, !dbg !6396
L..inline.77492:
	%413 = load i32, i32* %..inline.addr.420, align 4, !tbaa !6536, !dbg !6397
	%414 = sext i32  %413 to i64, !dbg !6397
	%415 = load %struct._Z6FsGridIN7fsgrids9technicalELi2EE*, %struct._Z6FsGridIN7fsgrids9technicalELi2EE** %..inline.addr.380, align 8, !tbaa !6534, !dbg !6397
	%416 = bitcast %struct._Z6FsGridIN7fsgrids9technicalELi2EE*  %415 to i8*, !dbg !6397
	%417 = getelementptr i8, i8*  %416, i64 92, !dbg !6397
	%418 = bitcast i8*  %417 to i32*, !dbg !6397
	%419 = getelementptr i32, i32*  %418, i64  %414, !dbg !6397
	%420 = load i32, i32*  %419, align 4, !tbaa !6533, !dbg !6397
	%421 = getelementptr i8, i8*  %416, i64 56, !dbg !6397
	%422 = bitcast i8*  %421 to i32*, !dbg !6397
	%423 = load i32, i32*  %422, align 4, !tbaa !6533, !dbg !6397
	%424 = icmp ne i32  %420,  %423, !dbg !6397
	br i1  %424, label %L..inline.77510, label %L.B1904, !dbg !6397
L.B1904:
	%425 = load i32, i32* %..inline.addr.390, align 4, !tbaa !6536, !dbg !6398
	%426 = bitcast [3 x i32]* %..inline.addr.430 to i32*, !dbg !6398
	%427 = load i32, i32*  %426, align 4, !tbaa !6533, !dbg !6398
	%428 = bitcast %struct._Z6FsGridIN7fsgrids9technicalELi2EE*  %415 to i8*, !dbg !6398
	%429 = getelementptr i8, i8*  %428, i64 264, !dbg !6398
	%430 = bitcast i8*  %429 to i32*, !dbg !6398
	%431 = load i32, i32*  %430, align 4, !tbaa !6533, !dbg !6398
	%432 = mul i32  %427,  %431, !dbg !6398
	%433 = add i32  %425,  %432, !dbg !6398
	store i32  %433, i32* %..inline.addr.390, align 4, !tbaa !6536, !dbg !6398
	%434 = load i32, i32* %..inline.addr.400, align 4, !tbaa !6536, !dbg !6399
	%435 = bitcast [3 x i32]* %..inline.addr.430 to i8*, !dbg !6399
	%436 = getelementptr i8, i8*  %435, i64 4, !dbg !6399
	%437 = bitcast i8*  %436 to i32*, !dbg !6399
	%438 = load i32, i32*  %437, align 4, !tbaa !6533, !dbg !6399
	%439 = getelementptr i8, i8*  %428, i64 268, !dbg !6399
	%440 = bitcast i8*  %439 to i32*, !dbg !6399
	%441 = load i32, i32*  %440, align 4, !tbaa !6533, !dbg !6399
	%442 = mul i32  %438,  %441, !dbg !6399
	%443 = add i32  %434,  %442, !dbg !6399
	store i32  %443, i32* %..inline.addr.400, align 4, !tbaa !6536, !dbg !6399
	%444 = load i32, i32* %..inline.addr.410, align 4, !tbaa !6536, !dbg !6400
	%445 = getelementptr i8, i8*  %435, i64 8, !dbg !6400
	%446 = bitcast i8*  %445 to i32*, !dbg !6400
	%447 = load i32, i32*  %446, align 4, !tbaa !6533, !dbg !6400
	%448 = getelementptr i8, i8*  %428, i64 272, !dbg !6400
	%449 = bitcast i8*  %448 to i32*, !dbg !6400
	%450 = load i32, i32*  %449, align 4, !tbaa !6533, !dbg !6400
	%451 = mul i32  %447,  %450, !dbg !6400
	%452 = add i32  %444,  %451, !dbg !6400
	store i32  %452, i32* %..inline.addr.410, align 4, !tbaa !6536, !dbg !6400
	br label %L..inline.77510
L..inline.77510:
	br label %L..inline.77475
L..inline.77475:
	store i64 0, i64* %..inline.addr.450, align 8, !tbaa !6538, !dbg !6401
	%453 = load %struct._Z6FsGridIN7fsgrids9technicalELi2EE*, %struct._Z6FsGridIN7fsgrids9technicalELi2EE** %..inline.addr.380, align 8, !tbaa !6534, !dbg !6401
	%454 = bitcast %struct._Z6FsGridIN7fsgrids9technicalELi2EE*  %453 to i8*, !dbg !6401
	%455 = getelementptr i8, i8*  %454, i64 260, !dbg !6401
	%456 = bitcast i8*  %455 to i32*, !dbg !6401
	%457 = load i32, i32*  %456, align 4, !tbaa !6533, !dbg !6401
	%458 = icmp sle i32  %457, 1, !dbg !6401
	br i1  %458, label %L..inline.77584, label %L.B1905, !dbg !6401
L.B1905:
	%459 = load i32, i32* %..inline.addr.410, align 4, !tbaa !6536, !dbg !6401
	%460 = add i32  %459, 2, !dbg !6401
	%461 = bitcast %struct._Z6FsGridIN7fsgrids9technicalELi2EE*  %453 to i8*, !dbg !6401
	%462 = getelementptr i8, i8*  %461, i64 280, !dbg !6401
	%463 = bitcast i8*  %462 to i32*, !dbg !6401
	%464 = load i32, i32*  %463, align 4, !tbaa !6533, !dbg !6401
	%465 = getelementptr i8, i8*  %461, i64 276, !dbg !6401
	%466 = bitcast i8*  %465 to i32*, !dbg !6401
	%467 = load i32, i32*  %466, align 4, !tbaa !6533, !dbg !6401
	%468 = mul i32  %464,  %467, !dbg !6401
	%469 = mul i32  %460,  %468, !dbg !6401
	%470 = sext i32  %469 to i64, !dbg !6401
	store i64  %470, i64* %..inline.addr.450, align 8, !tbaa !6538, !dbg !6401
	br label %L..inline.77584
L..inline.77584:
	%471 = load %struct._Z6FsGridIN7fsgrids9technicalELi2EE*, %struct._Z6FsGridIN7fsgrids9technicalELi2EE** %..inline.addr.380, align 8, !tbaa !6534, !dbg !6401
	%472 = bitcast %struct._Z6FsGridIN7fsgrids9technicalELi2EE*  %471 to i8*, !dbg !6401
	%473 = getelementptr i8, i8*  %472, i64 256, !dbg !6401
	%474 = bitcast i8*  %473 to i32*, !dbg !6401
	%475 = load i32, i32*  %474, align 4, !tbaa !6533, !dbg !6401
	%476 = icmp sle i32  %475, 1, !dbg !6401
	br i1  %476, label %L..inline.77633, label %L.B1906, !dbg !6401
L.B1906:
	%477 = load i64, i64* %..inline.addr.450, align 8, !tbaa !6538, !dbg !6401
	%478 = bitcast %struct._Z6FsGridIN7fsgrids9technicalELi2EE*  %471 to i8*, !dbg !6401
	%479 = getelementptr i8, i8*  %478, i64 276, !dbg !6401
	%480 = bitcast i8*  %479 to i32*, !dbg !6401
	%481 = load i32, i32*  %480, align 4, !tbaa !6533, !dbg !6401
	%482 = load i32, i32* %..inline.addr.400, align 4, !tbaa !6536, !dbg !6401
	%483 = add i32  %482, 2, !dbg !6401
	%484 = mul i32  %481,  %483, !dbg !6401
	%485 = sext i32  %484 to i64, !dbg !6401
	%486 = add i64  %477,  %485, !dbg !6401
	store i64  %486, i64* %..inline.addr.450, align 8, !tbaa !6538, !dbg !6401
	br label %L..inline.77633
L..inline.77633:
	%487 = load %struct._Z6FsGridIN7fsgrids9technicalELi2EE*, %struct._Z6FsGridIN7fsgrids9technicalELi2EE** %..inline.addr.380, align 8, !tbaa !6534, !dbg !6401
	%488 = bitcast %struct._Z6FsGridIN7fsgrids9technicalELi2EE*  %487 to i8*, !dbg !6401
	%489 = getelementptr i8, i8*  %488, i64 252, !dbg !6401
	%490 = bitcast i8*  %489 to i32*, !dbg !6401
	%491 = load i32, i32*  %490, align 4, !tbaa !6533, !dbg !6401
	%492 = icmp sle i32  %491, 1, !dbg !6401
	%493 = zext i1  %492 to i32, !dbg !6401
	%494 = trunc i32  %493 to i1, !dbg !6401
	%495 = load i64, i64* %..inline.addr.450, align 8, !tbaa !6538, !dbg !6401
	%496 = load i32, i32* %..inline.addr.390, align 4, !tbaa !6536, !dbg !6401
	%497 = sext i32  %496 to i64, !dbg !6401
	%498 = add i64  %497, 2, !dbg !6401
	%499 = add i64  %495,  %498, !dbg !6401
	%500 = select i1  %494, i64  %495, i64  %499, !dbg !6401
	%501 = getelementptr i8, i8*  %488, i64 744, !dbg !6402
	%502 = bitcast i8*  %501 to i8**, !dbg !6402
	%503 = load i8*, i8**  %502, align 8, !tbaa !6534, !dbg !6402
	%504 = mul i64  %500, 32, !dbg !6402
	%505 = getelementptr i8, i8*  %503, i64  %504, !dbg !6402
	%506 = bitcast %struct._ZN7fsgrids9technicalE** %..inline.addr.440 to i8**, !dbg !6402
	store i8*  %505, i8**  %506, align 8, !tbaa !6534, !dbg !6402
	br label %L..inline.77679
L..inline.77679:
	%507 = load %struct._ZN7fsgrids9technicalE*, %struct._ZN7fsgrids9technicalE** %..inline.addr.440, align 8, !tbaa !6534, !dbg !6403
	%508 = bitcast %struct._ZN7fsgrids9technicalE*  %507 to i32*, !dbg !6403
	%509 = load i32, i32*  %508, align 4, !tbaa !6533, !dbg !6403
	call void @llvm.dbg.declare (metadata i32* %sysBoundaryFlag.addr, metadata !6408, metadata !6359), !dbg !4309
	store i32  %509, i32* %sysBoundaryFlag.addr, align 4, !tbaa !6536, !dbg !6403
	%510 = load %struct._Z6FsGridIN7fsgrids9technicalELi2EE*, %struct._Z6FsGridIN7fsgrids9technicalELi2EE** %technicalGrid.addr, align 8, !tbaa !6534, !dbg !6409
	%511 = bitcast %struct._Z6FsGridIN7fsgrids9technicalELi2EE*  %510 to i8*, !dbg !6409
	%512 = bitcast %struct._Z6FsGridIN7fsgrids9technicalELi2EE** %..inline.addr.470 to i8**, !dbg !6409
	store i8*  %511, i8**  %512, align 8, !tbaa !6534, !dbg !6409
	%513 = load i32, i32* %i.addr, align 4, !tbaa !6536, !dbg !6409
	store i32  %513, i32* %..inline.addr.480, align 4, !tbaa !6536, !dbg !6409
	%514 = load i32, i32* %j.addr, align 4, !tbaa !6536, !dbg !6409
	store i32  %514, i32* %..inline.addr.490, align 4, !tbaa !6536, !dbg !6409
	%515 = load i32, i32* %k.addr, align 4, !tbaa !6536, !dbg !6409
	store i32  %515, i32* %..inline.addr.500, align 4, !tbaa !6536, !dbg !6409
	store i32 13, i32* %..inline.addr.510, align 4, !tbaa !6536, !dbg !6409
	%516 = bitcast [3 x i32]* %..inline.addr.520 to i32*, !dbg !6380
	store i32 0, i32*  %516, align 4, !tbaa !6533, !dbg !6380
	%517 = bitcast [3 x i32]* %..inline.addr.520 to i8*, !dbg !6381
	%518 = getelementptr i8, i8*  %517, i64 4, !dbg !6381
	%519 = bitcast i8*  %518 to i32*, !dbg !6381
	store i32 0, i32*  %519, align 4, !tbaa !6533, !dbg !6381
	%520 = getelementptr i8, i8*  %517, i64 8, !dbg !6381
	%521 = bitcast i8*  %520 to i32*, !dbg !6381
	store i32 0, i32*  %521, align 4, !tbaa !6533, !dbg !6381
	%522 = icmp sge i32  %513, 0, !dbg !6381
	br i1  %522, label %L..inline.77685, label %L.B1907, !dbg !6381
L.B1907:
	store i32 4, i32* %..inline.addr.510, align 4, !tbaa !6536, !dbg !6382
	%523 = bitcast [3 x i32]* %..inline.addr.520 to i32*, !dbg !6383
	store i32 1, i32*  %523, align 4, !tbaa !6533, !dbg !6383
	br label %L..inline.77685
L..inline.77685:
	%524 = load i32, i32* %..inline.addr.480, align 4, !tbaa !6536, !dbg !6384
	%525 = load %struct._Z6FsGridIN7fsgrids9technicalELi2EE*, %struct._Z6FsGridIN7fsgrids9technicalELi2EE** %..inline.addr.470, align 8, !tbaa !6534, !dbg !6384
	%526 = bitcast %struct._Z6FsGridIN7fsgrids9technicalELi2EE*  %525 to i8*, !dbg !6384
	%527 = getelementptr i8, i8*  %526, i64 264, !dbg !6384
	%528 = bitcast i8*  %527 to i32*, !dbg !6384
	%529 = load i32, i32*  %528, align 4, !tbaa !6533, !dbg !6384
	%530 = icmp slt i32  %524,  %529, !dbg !6384
	br i1  %530, label %L..inline.77703, label %L.B1908, !dbg !6384
L.B1908:
	%531 = load i32, i32* %..inline.addr.510, align 4, !tbaa !6536, !dbg !6384
	%532 = add i32  %531, 9, !dbg !6384
	store i32  %532, i32* %..inline.addr.510, align 4, !tbaa !6536, !dbg !6384
	%533 = bitcast [3 x i32]* %..inline.addr.520 to i32*, !dbg !6385
	store i32 -1, i32*  %533, align 4, !tbaa !6533, !dbg !6385
	br label %L..inline.77703
L..inline.77703:
	%534 = load i32, i32* %..inline.addr.490, align 4, !tbaa !6536, !dbg !6386
	%535 = icmp sge i32  %534, 0, !dbg !6386
	br i1  %535, label %L..inline.77705, label %L.B1909, !dbg !6386
L.B1909:
	%536 = load i32, i32* %..inline.addr.510, align 4, !tbaa !6536, !dbg !6386
	%537 = sub i32  %536, 3, !dbg !6386
	store i32  %537, i32* %..inline.addr.510, align 4, !tbaa !6536, !dbg !6386
	%538 = bitcast [3 x i32]* %..inline.addr.520 to i8*, !dbg !6387
	%539 = getelementptr i8, i8*  %538, i64 4, !dbg !6387
	%540 = bitcast i8*  %539 to i32*, !dbg !6387
	store i32 1, i32*  %540, align 4, !tbaa !6533, !dbg !6387
	br label %L..inline.77705
L..inline.77705:
	%541 = load i32, i32* %..inline.addr.490, align 4, !tbaa !6536, !dbg !6388
	%542 = load %struct._Z6FsGridIN7fsgrids9technicalELi2EE*, %struct._Z6FsGridIN7fsgrids9technicalELi2EE** %..inline.addr.470, align 8, !tbaa !6534, !dbg !6388
	%543 = bitcast %struct._Z6FsGridIN7fsgrids9technicalELi2EE*  %542 to i8*, !dbg !6388
	%544 = getelementptr i8, i8*  %543, i64 268, !dbg !6388
	%545 = bitcast i8*  %544 to i32*, !dbg !6388
	%546 = load i32, i32*  %545, align 4, !tbaa !6533, !dbg !6388
	%547 = icmp slt i32  %541,  %546, !dbg !6388
	br i1  %547, label %L..inline.77722, label %L.B1910, !dbg !6388
L.B1910:
	%548 = load i32, i32* %..inline.addr.510, align 4, !tbaa !6536, !dbg !6388
	%549 = add i32  %548, 3, !dbg !6388
	store i32  %549, i32* %..inline.addr.510, align 4, !tbaa !6536, !dbg !6388
	%550 = bitcast [3 x i32]* %..inline.addr.520 to i8*, !dbg !6389
	%551 = getelementptr i8, i8*  %550, i64 4, !dbg !6389
	%552 = bitcast i8*  %551 to i32*, !dbg !6389
	store i32 -1, i32*  %552, align 4, !tbaa !6533, !dbg !6389
	br label %L..inline.77722
L..inline.77722:
	%553 = load i32, i32* %..inline.addr.500, align 4, !tbaa !6536, !dbg !6390
	%554 = icmp sge i32  %553, 0, !dbg !6390
	br i1  %554, label %L..inline.77724, label %L.B1911, !dbg !6390
L.B1911:
	%555 = load i32, i32* %..inline.addr.510, align 4, !tbaa !6536, !dbg !6390
	%556 = sub i32  %555, 1, !dbg !6390
	store i32  %556, i32* %..inline.addr.510, align 4, !tbaa !6536, !dbg !6390
	%557 = bitcast [3 x i32]* %..inline.addr.520 to i8*, !dbg !6391
	%558 = getelementptr i8, i8*  %557, i64 8, !dbg !6391
	%559 = bitcast i8*  %558 to i32*, !dbg !6391
	store i32 1, i32*  %559, align 4, !tbaa !6533, !dbg !6391
	br label %L..inline.77724
L..inline.77724:
	%560 = load i32, i32* %..inline.addr.500, align 4, !tbaa !6536, !dbg !6392
	%561 = load %struct._Z6FsGridIN7fsgrids9technicalELi2EE*, %struct._Z6FsGridIN7fsgrids9technicalELi2EE** %..inline.addr.470, align 8, !tbaa !6534, !dbg !6392
	%562 = bitcast %struct._Z6FsGridIN7fsgrids9technicalELi2EE*  %561 to i8*, !dbg !6392
	%563 = getelementptr i8, i8*  %562, i64 272, !dbg !6392
	%564 = bitcast i8*  %563 to i32*, !dbg !6392
	%565 = load i32, i32*  %564, align 4, !tbaa !6533, !dbg !6392
	%566 = icmp slt i32  %560,  %565, !dbg !6392
	br i1  %566, label %L..inline.77741, label %L.B1912, !dbg !6392
L.B1912:
	%567 = load i32, i32* %..inline.addr.510, align 4, !tbaa !6536, !dbg !6392
	%568 = add i32  %567, 1, !dbg !6392
	store i32  %568, i32* %..inline.addr.510, align 4, !tbaa !6536, !dbg !6392
	%569 = bitcast [3 x i32]* %..inline.addr.520 to i8*, !dbg !6393
	%570 = getelementptr i8, i8*  %569, i64 8, !dbg !6393
	%571 = bitcast i8*  %570 to i32*, !dbg !6393
	store i32 -1, i32*  %571, align 4, !tbaa !6533, !dbg !6393
	br label %L..inline.77741
L..inline.77741:
	%572 = load i32, i32* %..inline.addr.510, align 4, !tbaa !6536, !dbg !6394
	%573 = icmp eq i32  %572, 13, !dbg !6394
	br i1  %573, label %L..inline.77742, label %L.B1913, !dbg !6394
L.B1913:
	%574 = sext i32  %572 to i64, !dbg !6395
	%575 = load %struct._Z6FsGridIN7fsgrids9technicalELi2EE*, %struct._Z6FsGridIN7fsgrids9technicalELi2EE** %..inline.addr.470, align 8, !tbaa !6534, !dbg !6395
	%576 = bitcast %struct._Z6FsGridIN7fsgrids9technicalELi2EE*  %575 to i8*, !dbg !6395
	%577 = getelementptr i8, i8*  %576, i64 92, !dbg !6395
	%578 = bitcast i8*  %577 to i32*, !dbg !6395
	%579 = getelementptr i32, i32*  %578, i64  %574, !dbg !6395
	%580 = load i32, i32*  %579, align 4, !tbaa !6533, !dbg !6395
	%581 = icmp ne i32  %580, -2, !dbg !6395
	br i1  %581, label %L..inline.77759, label %L.B1914, !dbg !6395
L.B1914:
	%582 = bitcast %struct._ZN7fsgrids9technicalE** %..inline.addr.530 to i8**, !dbg !6395
	store i8* null, i8**  %582, align 8, !tbaa !6534, !dbg !6395
	br label %L..inline.77946, !dbg !6396
L..inline.77759:
	%583 = load i32, i32* %..inline.addr.510, align 4, !tbaa !6536, !dbg !6397
	%584 = sext i32  %583 to i64, !dbg !6397
	%585 = load %struct._Z6FsGridIN7fsgrids9technicalELi2EE*, %struct._Z6FsGridIN7fsgrids9technicalELi2EE** %..inline.addr.470, align 8, !tbaa !6534, !dbg !6397
	%586 = bitcast %struct._Z6FsGridIN7fsgrids9technicalELi2EE*  %585 to i8*, !dbg !6397
	%587 = getelementptr i8, i8*  %586, i64 92, !dbg !6397
	%588 = bitcast i8*  %587 to i32*, !dbg !6397
	%589 = getelementptr i32, i32*  %588, i64  %584, !dbg !6397
	%590 = load i32, i32*  %589, align 4, !tbaa !6533, !dbg !6397
	%591 = getelementptr i8, i8*  %586, i64 56, !dbg !6397
	%592 = bitcast i8*  %591 to i32*, !dbg !6397
	%593 = load i32, i32*  %592, align 4, !tbaa !6533, !dbg !6397
	%594 = icmp ne i32  %590,  %593, !dbg !6397
	br i1  %594, label %L..inline.77777, label %L.B1915, !dbg !6397
L.B1915:
	%595 = load i32, i32* %..inline.addr.480, align 4, !tbaa !6536, !dbg !6398
	%596 = bitcast [3 x i32]* %..inline.addr.520 to i32*, !dbg !6398
	%597 = load i32, i32*  %596, align 4, !tbaa !6533, !dbg !6398
	%598 = bitcast %struct._Z6FsGridIN7fsgrids9technicalELi2EE*  %585 to i8*, !dbg !6398
	%599 = getelementptr i8, i8*  %598, i64 264, !dbg !6398
	%600 = bitcast i8*  %599 to i32*, !dbg !6398
	%601 = load i32, i32*  %600, align 4, !tbaa !6533, !dbg !6398
	%602 = mul i32  %597,  %601, !dbg !6398
	%603 = add i32  %595,  %602, !dbg !6398
	store i32  %603, i32* %..inline.addr.480, align 4, !tbaa !6536, !dbg !6398
	%604 = load i32, i32* %..inline.addr.490, align 4, !tbaa !6536, !dbg !6399
	%605 = bitcast [3 x i32]* %..inline.addr.520 to i8*, !dbg !6399
	%606 = getelementptr i8, i8*  %605, i64 4, !dbg !6399
	%607 = bitcast i8*  %606 to i32*, !dbg !6399
	%608 = load i32, i32*  %607, align 4, !tbaa !6533, !dbg !6399
	%609 = getelementptr i8, i8*  %598, i64 268, !dbg !6399
	%610 = bitcast i8*  %609 to i32*, !dbg !6399
	%611 = load i32, i32*  %610, align 4, !tbaa !6533, !dbg !6399
	%612 = mul i32  %608,  %611, !dbg !6399
	%613 = add i32  %604,  %612, !dbg !6399
	store i32  %613, i32* %..inline.addr.490, align 4, !tbaa !6536, !dbg !6399
	%614 = load i32, i32* %..inline.addr.500, align 4, !tbaa !6536, !dbg !6400
	%615 = getelementptr i8, i8*  %605, i64 8, !dbg !6400
	%616 = bitcast i8*  %615 to i32*, !dbg !6400
	%617 = load i32, i32*  %616, align 4, !tbaa !6533, !dbg !6400
	%618 = getelementptr i8, i8*  %598, i64 272, !dbg !6400
	%619 = bitcast i8*  %618 to i32*, !dbg !6400
	%620 = load i32, i32*  %619, align 4, !tbaa !6533, !dbg !6400
	%621 = mul i32  %617,  %620, !dbg !6400
	%622 = add i32  %614,  %621, !dbg !6400
	store i32  %622, i32* %..inline.addr.500, align 4, !tbaa !6536, !dbg !6400
	br label %L..inline.77777
L..inline.77777:
	br label %L..inline.77742
L..inline.77742:
	store i64 0, i64* %..inline.addr.540, align 8, !tbaa !6538, !dbg !6401
	%623 = load %struct._Z6FsGridIN7fsgrids9technicalELi2EE*, %struct._Z6FsGridIN7fsgrids9technicalELi2EE** %..inline.addr.470, align 8, !tbaa !6534, !dbg !6401
	%624 = bitcast %struct._Z6FsGridIN7fsgrids9technicalELi2EE*  %623 to i8*, !dbg !6401
	%625 = getelementptr i8, i8*  %624, i64 260, !dbg !6401
	%626 = bitcast i8*  %625 to i32*, !dbg !6401
	%627 = load i32, i32*  %626, align 4, !tbaa !6533, !dbg !6401
	%628 = icmp sle i32  %627, 1, !dbg !6401
	br i1  %628, label %L..inline.77851, label %L.B1916, !dbg !6401
L.B1916:
	%629 = load i32, i32* %..inline.addr.500, align 4, !tbaa !6536, !dbg !6401
	%630 = add i32  %629, 2, !dbg !6401
	%631 = bitcast %struct._Z6FsGridIN7fsgrids9technicalELi2EE*  %623 to i8*, !dbg !6401
	%632 = getelementptr i8, i8*  %631, i64 280, !dbg !6401
	%633 = bitcast i8*  %632 to i32*, !dbg !6401
	%634 = load i32, i32*  %633, align 4, !tbaa !6533, !dbg !6401
	%635 = getelementptr i8, i8*  %631, i64 276, !dbg !6401
	%636 = bitcast i8*  %635 to i32*, !dbg !6401
	%637 = load i32, i32*  %636, align 4, !tbaa !6533, !dbg !6401
	%638 = mul i32  %634,  %637, !dbg !6401
	%639 = mul i32  %630,  %638, !dbg !6401
	%640 = sext i32  %639 to i64, !dbg !6401
	store i64  %640, i64* %..inline.addr.540, align 8, !tbaa !6538, !dbg !6401
	br label %L..inline.77851
L..inline.77851:
	%641 = load %struct._Z6FsGridIN7fsgrids9technicalELi2EE*, %struct._Z6FsGridIN7fsgrids9technicalELi2EE** %..inline.addr.470, align 8, !tbaa !6534, !dbg !6401
	%642 = bitcast %struct._Z6FsGridIN7fsgrids9technicalELi2EE*  %641 to i8*, !dbg !6401
	%643 = getelementptr i8, i8*  %642, i64 256, !dbg !6401
	%644 = bitcast i8*  %643 to i32*, !dbg !6401
	%645 = load i32, i32*  %644, align 4, !tbaa !6533, !dbg !6401
	%646 = icmp sle i32  %645, 1, !dbg !6401
	br i1  %646, label %L..inline.77900, label %L.B1917, !dbg !6401
L.B1917:
	%647 = load i64, i64* %..inline.addr.540, align 8, !tbaa !6538, !dbg !6401
	%648 = bitcast %struct._Z6FsGridIN7fsgrids9technicalELi2EE*  %641 to i8*, !dbg !6401
	%649 = getelementptr i8, i8*  %648, i64 276, !dbg !6401
	%650 = bitcast i8*  %649 to i32*, !dbg !6401
	%651 = load i32, i32*  %650, align 4, !tbaa !6533, !dbg !6401
	%652 = load i32, i32* %..inline.addr.490, align 4, !tbaa !6536, !dbg !6401
	%653 = add i32  %652, 2, !dbg !6401
	%654 = mul i32  %651,  %653, !dbg !6401
	%655 = sext i32  %654 to i64, !dbg !6401
	%656 = add i64  %647,  %655, !dbg !6401
	store i64  %656, i64* %..inline.addr.540, align 8, !tbaa !6538, !dbg !6401
	br label %L..inline.77900
L..inline.77900:
	%657 = load %struct._Z6FsGridIN7fsgrids9technicalELi2EE*, %struct._Z6FsGridIN7fsgrids9technicalELi2EE** %..inline.addr.470, align 8, !tbaa !6534, !dbg !6401
	%658 = bitcast %struct._Z6FsGridIN7fsgrids9technicalELi2EE*  %657 to i8*, !dbg !6401
	%659 = getelementptr i8, i8*  %658, i64 252, !dbg !6401
	%660 = bitcast i8*  %659 to i32*, !dbg !6401
	%661 = load i32, i32*  %660, align 4, !tbaa !6533, !dbg !6401
	%662 = icmp sle i32  %661, 1, !dbg !6401
	%663 = zext i1  %662 to i32, !dbg !6401
	%664 = trunc i32  %663 to i1, !dbg !6401
	%665 = load i64, i64* %..inline.addr.540, align 8, !tbaa !6538, !dbg !6401
	%666 = load i32, i32* %..inline.addr.480, align 4, !tbaa !6536, !dbg !6401
	%667 = sext i32  %666 to i64, !dbg !6401
	%668 = add i64  %667, 2, !dbg !6401
	%669 = add i64  %665,  %668, !dbg !6401
	%670 = select i1  %664, i64  %665, i64  %669, !dbg !6401
	%671 = getelementptr i8, i8*  %658, i64 744, !dbg !6402
	%672 = bitcast i8*  %671 to i8**, !dbg !6402
	%673 = load i8*, i8**  %672, align 8, !tbaa !6534, !dbg !6402
	%674 = mul i64  %670, 32, !dbg !6402
	%675 = getelementptr i8, i8*  %673, i64  %674, !dbg !6402
	%676 = bitcast %struct._ZN7fsgrids9technicalE** %..inline.addr.530 to i8**, !dbg !6402
	store i8*  %675, i8**  %676, align 8, !tbaa !6534, !dbg !6402
	br label %L..inline.77946
L..inline.77946:
	%677 = load %struct._ZN7fsgrids9technicalE*, %struct._ZN7fsgrids9technicalE** %..inline.addr.530, align 8, !tbaa !6534, !dbg !6403
	%678 = bitcast %struct._ZN7fsgrids9technicalE*  %677 to i8*, !dbg !6403
	%679 = getelementptr i8, i8*  %678, i64 4, !dbg !6403
	%680 = bitcast i8*  %679 to i32*, !dbg !6403
	%681 = load i32, i32*  %680, align 4, !tbaa !6533, !dbg !6403
	call void @llvm.dbg.declare (metadata i32* %sysBoundaryLayer.addr, metadata !6410, metadata !6359), !dbg !4309
	store i32  %681, i32* %sysBoundaryLayer.addr, align 4, !tbaa !6536, !dbg !6403
	%682 = load %struct._Z6FsGridISt5arrayIdLm8EELi2EE*, %struct._Z6FsGridISt5arrayIdLm8EELi2EE** %momentsGrid.addr, align 8, !tbaa !6534, !dbg !6411
	%683 = bitcast %struct._Z6FsGridISt5arrayIdLm8EELi2EE*  %682 to i8*, !dbg !6411
	%684 = bitcast %struct._Z6FsGridISt5arrayIdLm8EELi2EE** %..inline.addr.560 to i8**, !dbg !6411
	store i8*  %683, i8**  %684, align 8, !tbaa !6534, !dbg !6411
	%685 = load i32, i32* %i.addr, align 4, !tbaa !6536, !dbg !6411
	store i32  %685, i32* %..inline.addr.570, align 4, !tbaa !6536, !dbg !6411
	%686 = load i32, i32* %j.addr, align 4, !tbaa !6536, !dbg !6411
	store i32  %686, i32* %..inline.addr.580, align 4, !tbaa !6536, !dbg !6411
	%687 = load i32, i32* %k.addr, align 4, !tbaa !6536, !dbg !6411
	store i32  %687, i32* %..inline.addr.590, align 4, !tbaa !6536, !dbg !6411
	store i32 13, i32* %..inline.addr.600, align 4, !tbaa !6536, !dbg !6411
	%688 = bitcast [3 x i32]* %..inline.addr.610 to i32*, !dbg !6380
	store i32 0, i32*  %688, align 4, !tbaa !6533, !dbg !6380
	%689 = bitcast [3 x i32]* %..inline.addr.610 to i8*, !dbg !6381
	%690 = getelementptr i8, i8*  %689, i64 4, !dbg !6381
	%691 = bitcast i8*  %690 to i32*, !dbg !6381
	store i32 0, i32*  %691, align 4, !tbaa !6533, !dbg !6381
	%692 = getelementptr i8, i8*  %689, i64 8, !dbg !6381
	%693 = bitcast i8*  %692 to i32*, !dbg !6381
	store i32 0, i32*  %693, align 4, !tbaa !6533, !dbg !6381
	%694 = icmp sge i32  %685, 0, !dbg !6381
	br i1  %694, label %L..inline.77952, label %L.B1918, !dbg !6381
L.B1918:
	store i32 4, i32* %..inline.addr.600, align 4, !tbaa !6536, !dbg !6382
	%695 = bitcast [3 x i32]* %..inline.addr.610 to i32*, !dbg !6383
	store i32 1, i32*  %695, align 4, !tbaa !6533, !dbg !6383
	br label %L..inline.77952
L..inline.77952:
	%696 = load i32, i32* %..inline.addr.570, align 4, !tbaa !6536, !dbg !6384
	%697 = load %struct._Z6FsGridISt5arrayIdLm8EELi2EE*, %struct._Z6FsGridISt5arrayIdLm8EELi2EE** %..inline.addr.560, align 8, !tbaa !6534, !dbg !6384
	%698 = bitcast %struct._Z6FsGridISt5arrayIdLm8EELi2EE*  %697 to i8*, !dbg !6384
	%699 = getelementptr i8, i8*  %698, i64 264, !dbg !6384
	%700 = bitcast i8*  %699 to i32*, !dbg !6384
	%701 = load i32, i32*  %700, align 4, !tbaa !6533, !dbg !6384
	%702 = icmp slt i32  %696,  %701, !dbg !6384
	br i1  %702, label %L..inline.77970, label %L.B1919, !dbg !6384
L.B1919:
	%703 = load i32, i32* %..inline.addr.600, align 4, !tbaa !6536, !dbg !6384
	%704 = add i32  %703, 9, !dbg !6384
	store i32  %704, i32* %..inline.addr.600, align 4, !tbaa !6536, !dbg !6384
	%705 = bitcast [3 x i32]* %..inline.addr.610 to i32*, !dbg !6385
	store i32 -1, i32*  %705, align 4, !tbaa !6533, !dbg !6385
	br label %L..inline.77970
L..inline.77970:
	%706 = load i32, i32* %..inline.addr.580, align 4, !tbaa !6536, !dbg !6386
	%707 = icmp sge i32  %706, 0, !dbg !6386
	br i1  %707, label %L..inline.77972, label %L.B1920, !dbg !6386
L.B1920:
	%708 = load i32, i32* %..inline.addr.600, align 4, !tbaa !6536, !dbg !6386
	%709 = sub i32  %708, 3, !dbg !6386
	store i32  %709, i32* %..inline.addr.600, align 4, !tbaa !6536, !dbg !6386
	%710 = bitcast [3 x i32]* %..inline.addr.610 to i8*, !dbg !6387
	%711 = getelementptr i8, i8*  %710, i64 4, !dbg !6387
	%712 = bitcast i8*  %711 to i32*, !dbg !6387
	store i32 1, i32*  %712, align 4, !tbaa !6533, !dbg !6387
	br label %L..inline.77972
L..inline.77972:
	%713 = load i32, i32* %..inline.addr.580, align 4, !tbaa !6536, !dbg !6388
	%714 = load %struct._Z6FsGridISt5arrayIdLm8EELi2EE*, %struct._Z6FsGridISt5arrayIdLm8EELi2EE** %..inline.addr.560, align 8, !tbaa !6534, !dbg !6388
	%715 = bitcast %struct._Z6FsGridISt5arrayIdLm8EELi2EE*  %714 to i8*, !dbg !6388
	%716 = getelementptr i8, i8*  %715, i64 268, !dbg !6388
	%717 = bitcast i8*  %716 to i32*, !dbg !6388
	%718 = load i32, i32*  %717, align 4, !tbaa !6533, !dbg !6388
	%719 = icmp slt i32  %713,  %718, !dbg !6388
	br i1  %719, label %L..inline.77989, label %L.B1921, !dbg !6388
L.B1921:
	%720 = load i32, i32* %..inline.addr.600, align 4, !tbaa !6536, !dbg !6388
	%721 = add i32  %720, 3, !dbg !6388
	store i32  %721, i32* %..inline.addr.600, align 4, !tbaa !6536, !dbg !6388
	%722 = bitcast [3 x i32]* %..inline.addr.610 to i8*, !dbg !6389
	%723 = getelementptr i8, i8*  %722, i64 4, !dbg !6389
	%724 = bitcast i8*  %723 to i32*, !dbg !6389
	store i32 -1, i32*  %724, align 4, !tbaa !6533, !dbg !6389
	br label %L..inline.77989
L..inline.77989:
	%725 = load i32, i32* %..inline.addr.590, align 4, !tbaa !6536, !dbg !6390
	%726 = icmp sge i32  %725, 0, !dbg !6390
	br i1  %726, label %L..inline.77991, label %L.B1922, !dbg !6390
L.B1922:
	%727 = load i32, i32* %..inline.addr.600, align 4, !tbaa !6536, !dbg !6390
	%728 = sub i32  %727, 1, !dbg !6390
	store i32  %728, i32* %..inline.addr.600, align 4, !tbaa !6536, !dbg !6390
	%729 = bitcast [3 x i32]* %..inline.addr.610 to i8*, !dbg !6391
	%730 = getelementptr i8, i8*  %729, i64 8, !dbg !6391
	%731 = bitcast i8*  %730 to i32*, !dbg !6391
	store i32 1, i32*  %731, align 4, !tbaa !6533, !dbg !6391
	br label %L..inline.77991
L..inline.77991:
	%732 = load i32, i32* %..inline.addr.590, align 4, !tbaa !6536, !dbg !6392
	%733 = load %struct._Z6FsGridISt5arrayIdLm8EELi2EE*, %struct._Z6FsGridISt5arrayIdLm8EELi2EE** %..inline.addr.560, align 8, !tbaa !6534, !dbg !6392
	%734 = bitcast %struct._Z6FsGridISt5arrayIdLm8EELi2EE*  %733 to i8*, !dbg !6392
	%735 = getelementptr i8, i8*  %734, i64 272, !dbg !6392
	%736 = bitcast i8*  %735 to i32*, !dbg !6392
	%737 = load i32, i32*  %736, align 4, !tbaa !6533, !dbg !6392
	%738 = icmp slt i32  %732,  %737, !dbg !6392
	br i1  %738, label %L..inline.78008, label %L.B1923, !dbg !6392
L.B1923:
	%739 = load i32, i32* %..inline.addr.600, align 4, !tbaa !6536, !dbg !6392
	%740 = add i32  %739, 1, !dbg !6392
	store i32  %740, i32* %..inline.addr.600, align 4, !tbaa !6536, !dbg !6392
	%741 = bitcast [3 x i32]* %..inline.addr.610 to i8*, !dbg !6393
	%742 = getelementptr i8, i8*  %741, i64 8, !dbg !6393
	%743 = bitcast i8*  %742 to i32*, !dbg !6393
	store i32 -1, i32*  %743, align 4, !tbaa !6533, !dbg !6393
	br label %L..inline.78008
L..inline.78008:
	%744 = load i32, i32* %..inline.addr.600, align 4, !tbaa !6536, !dbg !6394
	%745 = icmp eq i32  %744, 13, !dbg !6394
	br i1  %745, label %L..inline.78009, label %L.B1924, !dbg !6394
L.B1924:
	%746 = sext i32  %744 to i64, !dbg !6395
	%747 = load %struct._Z6FsGridISt5arrayIdLm8EELi2EE*, %struct._Z6FsGridISt5arrayIdLm8EELi2EE** %..inline.addr.560, align 8, !tbaa !6534, !dbg !6395
	%748 = bitcast %struct._Z6FsGridISt5arrayIdLm8EELi2EE*  %747 to i8*, !dbg !6395
	%749 = getelementptr i8, i8*  %748, i64 92, !dbg !6395
	%750 = bitcast i8*  %749 to i32*, !dbg !6395
	%751 = getelementptr i32, i32*  %750, i64  %746, !dbg !6395
	%752 = load i32, i32*  %751, align 4, !tbaa !6533, !dbg !6395
	%753 = icmp ne i32  %752, -2, !dbg !6395
	br i1  %753, label %L..inline.78026, label %L.B1925, !dbg !6395
L.B1925:
	%754 = bitcast %struct._ZSt5arrayIdLm8EE** %..inline.addr.620 to i8**, !dbg !6395
	store i8* null, i8**  %754, align 8, !tbaa !6534, !dbg !6395
	br label %L..inline.78213, !dbg !6396
L..inline.78026:
	%755 = load i32, i32* %..inline.addr.600, align 4, !tbaa !6536, !dbg !6397
	%756 = sext i32  %755 to i64, !dbg !6397
	%757 = load %struct._Z6FsGridISt5arrayIdLm8EELi2EE*, %struct._Z6FsGridISt5arrayIdLm8EELi2EE** %..inline.addr.560, align 8, !tbaa !6534, !dbg !6397
	%758 = bitcast %struct._Z6FsGridISt5arrayIdLm8EELi2EE*  %757 to i8*, !dbg !6397
	%759 = getelementptr i8, i8*  %758, i64 92, !dbg !6397
	%760 = bitcast i8*  %759 to i32*, !dbg !6397
	%761 = getelementptr i32, i32*  %760, i64  %756, !dbg !6397
	%762 = load i32, i32*  %761, align 4, !tbaa !6533, !dbg !6397
	%763 = getelementptr i8, i8*  %758, i64 56, !dbg !6397
	%764 = bitcast i8*  %763 to i32*, !dbg !6397
	%765 = load i32, i32*  %764, align 4, !tbaa !6533, !dbg !6397
	%766 = icmp ne i32  %762,  %765, !dbg !6397
	br i1  %766, label %L..inline.78044, label %L.B1926, !dbg !6397
L.B1926:
	%767 = load i32, i32* %..inline.addr.570, align 4, !tbaa !6536, !dbg !6398
	%768 = bitcast [3 x i32]* %..inline.addr.610 to i32*, !dbg !6398
	%769 = load i32, i32*  %768, align 4, !tbaa !6533, !dbg !6398
	%770 = bitcast %struct._Z6FsGridISt5arrayIdLm8EELi2EE*  %757 to i8*, !dbg !6398
	%771 = getelementptr i8, i8*  %770, i64 264, !dbg !6398
	%772 = bitcast i8*  %771 to i32*, !dbg !6398
	%773 = load i32, i32*  %772, align 4, !tbaa !6533, !dbg !6398
	%774 = mul i32  %769,  %773, !dbg !6398
	%775 = add i32  %767,  %774, !dbg !6398
	store i32  %775, i32* %..inline.addr.570, align 4, !tbaa !6536, !dbg !6398
	%776 = load i32, i32* %..inline.addr.580, align 4, !tbaa !6536, !dbg !6399
	%777 = bitcast [3 x i32]* %..inline.addr.610 to i8*, !dbg !6399
	%778 = getelementptr i8, i8*  %777, i64 4, !dbg !6399
	%779 = bitcast i8*  %778 to i32*, !dbg !6399
	%780 = load i32, i32*  %779, align 4, !tbaa !6533, !dbg !6399
	%781 = getelementptr i8, i8*  %770, i64 268, !dbg !6399
	%782 = bitcast i8*  %781 to i32*, !dbg !6399
	%783 = load i32, i32*  %782, align 4, !tbaa !6533, !dbg !6399
	%784 = mul i32  %780,  %783, !dbg !6399
	%785 = add i32  %776,  %784, !dbg !6399
	store i32  %785, i32* %..inline.addr.580, align 4, !tbaa !6536, !dbg !6399
	%786 = load i32, i32* %..inline.addr.590, align 4, !tbaa !6536, !dbg !6400
	%787 = getelementptr i8, i8*  %777, i64 8, !dbg !6400
	%788 = bitcast i8*  %787 to i32*, !dbg !6400
	%789 = load i32, i32*  %788, align 4, !tbaa !6533, !dbg !6400
	%790 = getelementptr i8, i8*  %770, i64 272, !dbg !6400
	%791 = bitcast i8*  %790 to i32*, !dbg !6400
	%792 = load i32, i32*  %791, align 4, !tbaa !6533, !dbg !6400
	%793 = mul i32  %789,  %792, !dbg !6400
	%794 = add i32  %786,  %793, !dbg !6400
	store i32  %794, i32* %..inline.addr.590, align 4, !tbaa !6536, !dbg !6400
	br label %L..inline.78044
L..inline.78044:
	br label %L..inline.78009
L..inline.78009:
	store i64 0, i64* %..inline.addr.630, align 8, !tbaa !6538, !dbg !6401
	%795 = load %struct._Z6FsGridISt5arrayIdLm8EELi2EE*, %struct._Z6FsGridISt5arrayIdLm8EELi2EE** %..inline.addr.560, align 8, !tbaa !6534, !dbg !6401
	%796 = bitcast %struct._Z6FsGridISt5arrayIdLm8EELi2EE*  %795 to i8*, !dbg !6401
	%797 = getelementptr i8, i8*  %796, i64 260, !dbg !6401
	%798 = bitcast i8*  %797 to i32*, !dbg !6401
	%799 = load i32, i32*  %798, align 4, !tbaa !6533, !dbg !6401
	%800 = icmp sle i32  %799, 1, !dbg !6401
	br i1  %800, label %L..inline.78118, label %L.B1927, !dbg !6401
L.B1927:
	%801 = load i32, i32* %..inline.addr.590, align 4, !tbaa !6536, !dbg !6401
	%802 = add i32  %801, 2, !dbg !6401
	%803 = bitcast %struct._Z6FsGridISt5arrayIdLm8EELi2EE*  %795 to i8*, !dbg !6401
	%804 = getelementptr i8, i8*  %803, i64 280, !dbg !6401
	%805 = bitcast i8*  %804 to i32*, !dbg !6401
	%806 = load i32, i32*  %805, align 4, !tbaa !6533, !dbg !6401
	%807 = getelementptr i8, i8*  %803, i64 276, !dbg !6401
	%808 = bitcast i8*  %807 to i32*, !dbg !6401
	%809 = load i32, i32*  %808, align 4, !tbaa !6533, !dbg !6401
	%810 = mul i32  %806,  %809, !dbg !6401
	%811 = mul i32  %802,  %810, !dbg !6401
	%812 = sext i32  %811 to i64, !dbg !6401
	store i64  %812, i64* %..inline.addr.630, align 8, !tbaa !6538, !dbg !6401
	br label %L..inline.78118
L..inline.78118:
	%813 = load %struct._Z6FsGridISt5arrayIdLm8EELi2EE*, %struct._Z6FsGridISt5arrayIdLm8EELi2EE** %..inline.addr.560, align 8, !tbaa !6534, !dbg !6401
	%814 = bitcast %struct._Z6FsGridISt5arrayIdLm8EELi2EE*  %813 to i8*, !dbg !6401
	%815 = getelementptr i8, i8*  %814, i64 256, !dbg !6401
	%816 = bitcast i8*  %815 to i32*, !dbg !6401
	%817 = load i32, i32*  %816, align 4, !tbaa !6533, !dbg !6401
	%818 = icmp sle i32  %817, 1, !dbg !6401
	br i1  %818, label %L..inline.78167, label %L.B1928, !dbg !6401
L.B1928:
	%819 = load i64, i64* %..inline.addr.630, align 8, !tbaa !6538, !dbg !6401
	%820 = bitcast %struct._Z6FsGridISt5arrayIdLm8EELi2EE*  %813 to i8*, !dbg !6401
	%821 = getelementptr i8, i8*  %820, i64 276, !dbg !6401
	%822 = bitcast i8*  %821 to i32*, !dbg !6401
	%823 = load i32, i32*  %822, align 4, !tbaa !6533, !dbg !6401
	%824 = load i32, i32* %..inline.addr.580, align 4, !tbaa !6536, !dbg !6401
	%825 = add i32  %824, 2, !dbg !6401
	%826 = mul i32  %823,  %825, !dbg !6401
	%827 = sext i32  %826 to i64, !dbg !6401
	%828 = add i64  %819,  %827, !dbg !6401
	store i64  %828, i64* %..inline.addr.630, align 8, !tbaa !6538, !dbg !6401
	br label %L..inline.78167
L..inline.78167:
	%829 = load %struct._Z6FsGridISt5arrayIdLm8EELi2EE*, %struct._Z6FsGridISt5arrayIdLm8EELi2EE** %..inline.addr.560, align 8, !tbaa !6534, !dbg !6401
	%830 = bitcast %struct._Z6FsGridISt5arrayIdLm8EELi2EE*  %829 to i8*, !dbg !6401
	%831 = getelementptr i8, i8*  %830, i64 252, !dbg !6401
	%832 = bitcast i8*  %831 to i32*, !dbg !6401
	%833 = load i32, i32*  %832, align 4, !tbaa !6533, !dbg !6401
	%834 = icmp sle i32  %833, 1, !dbg !6401
	%835 = zext i1  %834 to i32, !dbg !6401
	%836 = trunc i32  %835 to i1, !dbg !6401
	%837 = load i64, i64* %..inline.addr.630, align 8, !tbaa !6538, !dbg !6401
	%838 = load i32, i32* %..inline.addr.570, align 4, !tbaa !6536, !dbg !6401
	%839 = sext i32  %838 to i64, !dbg !6401
	%840 = add i64  %839, 2, !dbg !6401
	%841 = add i64  %837,  %840, !dbg !6401
	%842 = select i1  %836, i64  %837, i64  %841, !dbg !6401
	%843 = getelementptr i8, i8*  %830, i64 744, !dbg !6402
	%844 = bitcast i8*  %843 to i8**, !dbg !6402
	%845 = load i8*, i8**  %844, align 8, !tbaa !6534, !dbg !6402
	%846 = mul i64  %842, 64, !dbg !6402
	%847 = getelementptr i8, i8*  %845, i64  %846, !dbg !6402
	%848 = bitcast %struct._ZSt5arrayIdLm8EE** %..inline.addr.620 to i8**, !dbg !6402
	store i8*  %847, i8**  %848, align 8, !tbaa !6534, !dbg !6402
	br label %L..inline.78213
L..inline.78213:
	%849 = load %struct._ZSt5arrayIdLm8EE*, %struct._ZSt5arrayIdLm8EE** %..inline.addr.620, align 8, !tbaa !6534, !dbg !6403
	%850 = bitcast %struct._ZSt5arrayIdLm8EE*  %849 to i8*, !dbg !6403
	call void @llvm.dbg.declare (metadata %struct._ZSt5arrayIdLm8EE** %centMoments.addr, metadata !6412, metadata !6359), !dbg !4309
	%851 = bitcast %struct._ZSt5arrayIdLm8EE** %centMoments.addr to i8**, !dbg !6403
	store i8*  %850, i8**  %851, align 8, !tbaa !6534, !dbg !6403
	%852 = load %struct._Z6FsGridISt5arrayIdLm3EELi2EE*, %struct._Z6FsGridISt5arrayIdLm3EELi2EE** %perBGrid.addr, align 8, !tbaa !6534, !dbg !6413
	%853 = bitcast %struct._Z6FsGridISt5arrayIdLm3EELi2EE*  %852 to i8*, !dbg !6413
	%854 = bitcast %struct._Z6FsGridISt5arrayIdLm3EELi2EE** %..inline.addr.650 to i8**, !dbg !6413
	store i8*  %853, i8**  %854, align 8, !tbaa !6534, !dbg !6413
	%855 = load i32, i32* %i.addr, align 4, !tbaa !6536, !dbg !6413
	store i32  %855, i32* %..inline.addr.660, align 4, !tbaa !6536, !dbg !6413
	%856 = load i32, i32* %j.addr, align 4, !tbaa !6536, !dbg !6413
	store i32  %856, i32* %..inline.addr.670, align 4, !tbaa !6536, !dbg !6413
	%857 = load i32, i32* %k.addr, align 4, !tbaa !6536, !dbg !6413
	store i32  %857, i32* %..inline.addr.680, align 4, !tbaa !6536, !dbg !6413
	store i32 13, i32* %..inline.addr.690, align 4, !tbaa !6536, !dbg !6413
	%858 = bitcast [3 x i32]* %..inline.addr.700 to i32*, !dbg !6380
	store i32 0, i32*  %858, align 4, !tbaa !6533, !dbg !6380
	%859 = bitcast [3 x i32]* %..inline.addr.700 to i8*, !dbg !6381
	%860 = getelementptr i8, i8*  %859, i64 4, !dbg !6381
	%861 = bitcast i8*  %860 to i32*, !dbg !6381
	store i32 0, i32*  %861, align 4, !tbaa !6533, !dbg !6381
	%862 = getelementptr i8, i8*  %859, i64 8, !dbg !6381
	%863 = bitcast i8*  %862 to i32*, !dbg !6381
	store i32 0, i32*  %863, align 4, !tbaa !6533, !dbg !6381
	%864 = icmp sge i32  %855, 0, !dbg !6381
	br i1  %864, label %L..inline.78219, label %L.B1929, !dbg !6381
L.B1929:
	store i32 4, i32* %..inline.addr.690, align 4, !tbaa !6536, !dbg !6382
	%865 = bitcast [3 x i32]* %..inline.addr.700 to i32*, !dbg !6383
	store i32 1, i32*  %865, align 4, !tbaa !6533, !dbg !6383
	br label %L..inline.78219
L..inline.78219:
	%866 = load i32, i32* %..inline.addr.660, align 4, !tbaa !6536, !dbg !6384
	%867 = load %struct._Z6FsGridISt5arrayIdLm3EELi2EE*, %struct._Z6FsGridISt5arrayIdLm3EELi2EE** %..inline.addr.650, align 8, !tbaa !6534, !dbg !6384
	%868 = bitcast %struct._Z6FsGridISt5arrayIdLm3EELi2EE*  %867 to i8*, !dbg !6384
	%869 = getelementptr i8, i8*  %868, i64 264, !dbg !6384
	%870 = bitcast i8*  %869 to i32*, !dbg !6384
	%871 = load i32, i32*  %870, align 4, !tbaa !6533, !dbg !6384
	%872 = icmp slt i32  %866,  %871, !dbg !6384
	br i1  %872, label %L..inline.78237, label %L.B1930, !dbg !6384
L.B1930:
	%873 = load i32, i32* %..inline.addr.690, align 4, !tbaa !6536, !dbg !6384
	%874 = add i32  %873, 9, !dbg !6384
	store i32  %874, i32* %..inline.addr.690, align 4, !tbaa !6536, !dbg !6384
	%875 = bitcast [3 x i32]* %..inline.addr.700 to i32*, !dbg !6385
	store i32 -1, i32*  %875, align 4, !tbaa !6533, !dbg !6385
	br label %L..inline.78237
L..inline.78237:
	%876 = load i32, i32* %..inline.addr.670, align 4, !tbaa !6536, !dbg !6386
	%877 = icmp sge i32  %876, 0, !dbg !6386
	br i1  %877, label %L..inline.78239, label %L.B1931, !dbg !6386
L.B1931:
	%878 = load i32, i32* %..inline.addr.690, align 4, !tbaa !6536, !dbg !6386
	%879 = sub i32  %878, 3, !dbg !6386
	store i32  %879, i32* %..inline.addr.690, align 4, !tbaa !6536, !dbg !6386
	%880 = bitcast [3 x i32]* %..inline.addr.700 to i8*, !dbg !6387
	%881 = getelementptr i8, i8*  %880, i64 4, !dbg !6387
	%882 = bitcast i8*  %881 to i32*, !dbg !6387
	store i32 1, i32*  %882, align 4, !tbaa !6533, !dbg !6387
	br label %L..inline.78239
L..inline.78239:
	%883 = load i32, i32* %..inline.addr.670, align 4, !tbaa !6536, !dbg !6388
	%884 = load %struct._Z6FsGridISt5arrayIdLm3EELi2EE*, %struct._Z6FsGridISt5arrayIdLm3EELi2EE** %..inline.addr.650, align 8, !tbaa !6534, !dbg !6388
	%885 = bitcast %struct._Z6FsGridISt5arrayIdLm3EELi2EE*  %884 to i8*, !dbg !6388
	%886 = getelementptr i8, i8*  %885, i64 268, !dbg !6388
	%887 = bitcast i8*  %886 to i32*, !dbg !6388
	%888 = load i32, i32*  %887, align 4, !tbaa !6533, !dbg !6388
	%889 = icmp slt i32  %883,  %888, !dbg !6388
	br i1  %889, label %L..inline.78256, label %L.B1932, !dbg !6388
L.B1932:
	%890 = load i32, i32* %..inline.addr.690, align 4, !tbaa !6536, !dbg !6388
	%891 = add i32  %890, 3, !dbg !6388
	store i32  %891, i32* %..inline.addr.690, align 4, !tbaa !6536, !dbg !6388
	%892 = bitcast [3 x i32]* %..inline.addr.700 to i8*, !dbg !6389
	%893 = getelementptr i8, i8*  %892, i64 4, !dbg !6389
	%894 = bitcast i8*  %893 to i32*, !dbg !6389
	store i32 -1, i32*  %894, align 4, !tbaa !6533, !dbg !6389
	br label %L..inline.78256
L..inline.78256:
	%895 = load i32, i32* %..inline.addr.680, align 4, !tbaa !6536, !dbg !6390
	%896 = icmp sge i32  %895, 0, !dbg !6390
	br i1  %896, label %L..inline.78258, label %L.B1933, !dbg !6390
L.B1933:
	%897 = load i32, i32* %..inline.addr.690, align 4, !tbaa !6536, !dbg !6390
	%898 = sub i32  %897, 1, !dbg !6390
	store i32  %898, i32* %..inline.addr.690, align 4, !tbaa !6536, !dbg !6390
	%899 = bitcast [3 x i32]* %..inline.addr.700 to i8*, !dbg !6391
	%900 = getelementptr i8, i8*  %899, i64 8, !dbg !6391
	%901 = bitcast i8*  %900 to i32*, !dbg !6391
	store i32 1, i32*  %901, align 4, !tbaa !6533, !dbg !6391
	br label %L..inline.78258
L..inline.78258:
	%902 = load i32, i32* %..inline.addr.680, align 4, !tbaa !6536, !dbg !6392
	%903 = load %struct._Z6FsGridISt5arrayIdLm3EELi2EE*, %struct._Z6FsGridISt5arrayIdLm3EELi2EE** %..inline.addr.650, align 8, !tbaa !6534, !dbg !6392
	%904 = bitcast %struct._Z6FsGridISt5arrayIdLm3EELi2EE*  %903 to i8*, !dbg !6392
	%905 = getelementptr i8, i8*  %904, i64 272, !dbg !6392
	%906 = bitcast i8*  %905 to i32*, !dbg !6392
	%907 = load i32, i32*  %906, align 4, !tbaa !6533, !dbg !6392
	%908 = icmp slt i32  %902,  %907, !dbg !6392
	br i1  %908, label %L..inline.78275, label %L.B1934, !dbg !6392
L.B1934:
	%909 = load i32, i32* %..inline.addr.690, align 4, !tbaa !6536, !dbg !6392
	%910 = add i32  %909, 1, !dbg !6392
	store i32  %910, i32* %..inline.addr.690, align 4, !tbaa !6536, !dbg !6392
	%911 = bitcast [3 x i32]* %..inline.addr.700 to i8*, !dbg !6393
	%912 = getelementptr i8, i8*  %911, i64 8, !dbg !6393
	%913 = bitcast i8*  %912 to i32*, !dbg !6393
	store i32 -1, i32*  %913, align 4, !tbaa !6533, !dbg !6393
	br label %L..inline.78275
L..inline.78275:
	%914 = load i32, i32* %..inline.addr.690, align 4, !tbaa !6536, !dbg !6394
	%915 = icmp eq i32  %914, 13, !dbg !6394
	br i1  %915, label %L..inline.78276, label %L.B1935, !dbg !6394
L.B1935:
	%916 = sext i32  %914 to i64, !dbg !6395
	%917 = load %struct._Z6FsGridISt5arrayIdLm3EELi2EE*, %struct._Z6FsGridISt5arrayIdLm3EELi2EE** %..inline.addr.650, align 8, !tbaa !6534, !dbg !6395
	%918 = bitcast %struct._Z6FsGridISt5arrayIdLm3EELi2EE*  %917 to i8*, !dbg !6395
	%919 = getelementptr i8, i8*  %918, i64 92, !dbg !6395
	%920 = bitcast i8*  %919 to i32*, !dbg !6395
	%921 = getelementptr i32, i32*  %920, i64  %916, !dbg !6395
	%922 = load i32, i32*  %921, align 4, !tbaa !6533, !dbg !6395
	%923 = icmp ne i32  %922, -2, !dbg !6395
	br i1  %923, label %L..inline.78293, label %L.B1936, !dbg !6395
L.B1936:
	%924 = bitcast %struct._ZSt5arrayIdLm3EE** %..inline.addr.710 to i8**, !dbg !6395
	store i8* null, i8**  %924, align 8, !tbaa !6534, !dbg !6395
	br label %L..inline.78480, !dbg !6396
L..inline.78293:
	%925 = load i32, i32* %..inline.addr.690, align 4, !tbaa !6536, !dbg !6397
	%926 = sext i32  %925 to i64, !dbg !6397
	%927 = load %struct._Z6FsGridISt5arrayIdLm3EELi2EE*, %struct._Z6FsGridISt5arrayIdLm3EELi2EE** %..inline.addr.650, align 8, !tbaa !6534, !dbg !6397
	%928 = bitcast %struct._Z6FsGridISt5arrayIdLm3EELi2EE*  %927 to i8*, !dbg !6397
	%929 = getelementptr i8, i8*  %928, i64 92, !dbg !6397
	%930 = bitcast i8*  %929 to i32*, !dbg !6397
	%931 = getelementptr i32, i32*  %930, i64  %926, !dbg !6397
	%932 = load i32, i32*  %931, align 4, !tbaa !6533, !dbg !6397
	%933 = getelementptr i8, i8*  %928, i64 56, !dbg !6397
	%934 = bitcast i8*  %933 to i32*, !dbg !6397
	%935 = load i32, i32*  %934, align 4, !tbaa !6533, !dbg !6397
	%936 = icmp ne i32  %932,  %935, !dbg !6397
	br i1  %936, label %L..inline.78311, label %L.B1937, !dbg !6397
L.B1937:
	%937 = load i32, i32* %..inline.addr.660, align 4, !tbaa !6536, !dbg !6398
	%938 = bitcast [3 x i32]* %..inline.addr.700 to i32*, !dbg !6398
	%939 = load i32, i32*  %938, align 4, !tbaa !6533, !dbg !6398
	%940 = bitcast %struct._Z6FsGridISt5arrayIdLm3EELi2EE*  %927 to i8*, !dbg !6398
	%941 = getelementptr i8, i8*  %940, i64 264, !dbg !6398
	%942 = bitcast i8*  %941 to i32*, !dbg !6398
	%943 = load i32, i32*  %942, align 4, !tbaa !6533, !dbg !6398
	%944 = mul i32  %939,  %943, !dbg !6398
	%945 = add i32  %937,  %944, !dbg !6398
	store i32  %945, i32* %..inline.addr.660, align 4, !tbaa !6536, !dbg !6398
	%946 = load i32, i32* %..inline.addr.670, align 4, !tbaa !6536, !dbg !6399
	%947 = bitcast [3 x i32]* %..inline.addr.700 to i8*, !dbg !6399
	%948 = getelementptr i8, i8*  %947, i64 4, !dbg !6399
	%949 = bitcast i8*  %948 to i32*, !dbg !6399
	%950 = load i32, i32*  %949, align 4, !tbaa !6533, !dbg !6399
	%951 = getelementptr i8, i8*  %940, i64 268, !dbg !6399
	%952 = bitcast i8*  %951 to i32*, !dbg !6399
	%953 = load i32, i32*  %952, align 4, !tbaa !6533, !dbg !6399
	%954 = mul i32  %950,  %953, !dbg !6399
	%955 = add i32  %946,  %954, !dbg !6399
	store i32  %955, i32* %..inline.addr.670, align 4, !tbaa !6536, !dbg !6399
	%956 = load i32, i32* %..inline.addr.680, align 4, !tbaa !6536, !dbg !6400
	%957 = getelementptr i8, i8*  %947, i64 8, !dbg !6400
	%958 = bitcast i8*  %957 to i32*, !dbg !6400
	%959 = load i32, i32*  %958, align 4, !tbaa !6533, !dbg !6400
	%960 = getelementptr i8, i8*  %940, i64 272, !dbg !6400
	%961 = bitcast i8*  %960 to i32*, !dbg !6400
	%962 = load i32, i32*  %961, align 4, !tbaa !6533, !dbg !6400
	%963 = mul i32  %959,  %962, !dbg !6400
	%964 = add i32  %956,  %963, !dbg !6400
	store i32  %964, i32* %..inline.addr.680, align 4, !tbaa !6536, !dbg !6400
	br label %L..inline.78311
L..inline.78311:
	br label %L..inline.78276
L..inline.78276:
	store i64 0, i64* %..inline.addr.720, align 8, !tbaa !6538, !dbg !6401
	%965 = load %struct._Z6FsGridISt5arrayIdLm3EELi2EE*, %struct._Z6FsGridISt5arrayIdLm3EELi2EE** %..inline.addr.650, align 8, !tbaa !6534, !dbg !6401
	%966 = bitcast %struct._Z6FsGridISt5arrayIdLm3EELi2EE*  %965 to i8*, !dbg !6401
	%967 = getelementptr i8, i8*  %966, i64 260, !dbg !6401
	%968 = bitcast i8*  %967 to i32*, !dbg !6401
	%969 = load i32, i32*  %968, align 4, !tbaa !6533, !dbg !6401
	%970 = icmp sle i32  %969, 1, !dbg !6401
	br i1  %970, label %L..inline.78385, label %L.B1938, !dbg !6401
L.B1938:
	%971 = load i32, i32* %..inline.addr.680, align 4, !tbaa !6536, !dbg !6401
	%972 = add i32  %971, 2, !dbg !6401
	%973 = bitcast %struct._Z6FsGridISt5arrayIdLm3EELi2EE*  %965 to i8*, !dbg !6401
	%974 = getelementptr i8, i8*  %973, i64 280, !dbg !6401
	%975 = bitcast i8*  %974 to i32*, !dbg !6401
	%976 = load i32, i32*  %975, align 4, !tbaa !6533, !dbg !6401
	%977 = getelementptr i8, i8*  %973, i64 276, !dbg !6401
	%978 = bitcast i8*  %977 to i32*, !dbg !6401
	%979 = load i32, i32*  %978, align 4, !tbaa !6533, !dbg !6401
	%980 = mul i32  %976,  %979, !dbg !6401
	%981 = mul i32  %972,  %980, !dbg !6401
	%982 = sext i32  %981 to i64, !dbg !6401
	store i64  %982, i64* %..inline.addr.720, align 8, !tbaa !6538, !dbg !6401
	br label %L..inline.78385
L..inline.78385:
	%983 = load %struct._Z6FsGridISt5arrayIdLm3EELi2EE*, %struct._Z6FsGridISt5arrayIdLm3EELi2EE** %..inline.addr.650, align 8, !tbaa !6534, !dbg !6401
	%984 = bitcast %struct._Z6FsGridISt5arrayIdLm3EELi2EE*  %983 to i8*, !dbg !6401
	%985 = getelementptr i8, i8*  %984, i64 256, !dbg !6401
	%986 = bitcast i8*  %985 to i32*, !dbg !6401
	%987 = load i32, i32*  %986, align 4, !tbaa !6533, !dbg !6401
	%988 = icmp sle i32  %987, 1, !dbg !6401
	br i1  %988, label %L..inline.78434, label %L.B1939, !dbg !6401
L.B1939:
	%989 = load i64, i64* %..inline.addr.720, align 8, !tbaa !6538, !dbg !6401
	%990 = bitcast %struct._Z6FsGridISt5arrayIdLm3EELi2EE*  %983 to i8*, !dbg !6401
	%991 = getelementptr i8, i8*  %990, i64 276, !dbg !6401
	%992 = bitcast i8*  %991 to i32*, !dbg !6401
	%993 = load i32, i32*  %992, align 4, !tbaa !6533, !dbg !6401
	%994 = load i32, i32* %..inline.addr.670, align 4, !tbaa !6536, !dbg !6401
	%995 = add i32  %994, 2, !dbg !6401
	%996 = mul i32  %993,  %995, !dbg !6401
	%997 = sext i32  %996 to i64, !dbg !6401
	%998 = add i64  %989,  %997, !dbg !6401
	store i64  %998, i64* %..inline.addr.720, align 8, !tbaa !6538, !dbg !6401
	br label %L..inline.78434
L..inline.78434:
	%999 = load %struct._Z6FsGridISt5arrayIdLm3EELi2EE*, %struct._Z6FsGridISt5arrayIdLm3EELi2EE** %..inline.addr.650, align 8, !tbaa !6534, !dbg !6401
	%1000 = bitcast %struct._Z6FsGridISt5arrayIdLm3EELi2EE*  %999 to i8*, !dbg !6401
	%1001 = getelementptr i8, i8*  %1000, i64 252, !dbg !6401
	%1002 = bitcast i8*  %1001 to i32*, !dbg !6401
	%1003 = load i32, i32*  %1002, align 4, !tbaa !6533, !dbg !6401
	%1004 = icmp sle i32  %1003, 1, !dbg !6401
	%1005 = zext i1  %1004 to i32, !dbg !6401
	%1006 = trunc i32  %1005 to i1, !dbg !6401
	%1007 = load i64, i64* %..inline.addr.720, align 8, !tbaa !6538, !dbg !6401
	%1008 = load i32, i32* %..inline.addr.660, align 4, !tbaa !6536, !dbg !6401
	%1009 = sext i32  %1008 to i64, !dbg !6401
	%1010 = add i64  %1009, 2, !dbg !6401
	%1011 = add i64  %1007,  %1010, !dbg !6401
	%1012 = select i1  %1006, i64  %1007, i64  %1011, !dbg !6401
	%1013 = getelementptr i8, i8*  %1000, i64 744, !dbg !6402
	%1014 = bitcast i8*  %1013 to i8**, !dbg !6402
	%1015 = load i8*, i8**  %1014, align 8, !tbaa !6534, !dbg !6402
	%1016 = mul i64  %1012, 24, !dbg !6402
	%1017 = getelementptr i8, i8*  %1015, i64  %1016, !dbg !6402
	%1018 = bitcast %struct._ZSt5arrayIdLm3EE** %..inline.addr.710 to i8**, !dbg !6402
	store i8*  %1017, i8**  %1018, align 8, !tbaa !6534, !dbg !6402
	br label %L..inline.78480
L..inline.78480:
	%1019 = load %struct._ZSt5arrayIdLm3EE*, %struct._ZSt5arrayIdLm3EE** %..inline.addr.710, align 8, !tbaa !6534, !dbg !6403
	%1020 = bitcast %struct._ZSt5arrayIdLm3EE*  %1019 to i8*, !dbg !6403
	call void @llvm.dbg.declare (metadata %struct._ZSt5arrayIdLm3EE** %centPerB.addr, metadata !6414, metadata !6359), !dbg !4309
	%1021 = bitcast %struct._ZSt5arrayIdLm3EE** %centPerB.addr to i8**, !dbg !6403
	store i8*  %1020, i8**  %1021, align 8, !tbaa !6534, !dbg !6403
	%1022 = load i32, i32* %sysBoundaryFlag.addr, align 4, !tbaa !6536, !dbg !6415
	%1023 = icmp eq i32  %1022, 1, !dbg !6415
	br i1  %1023, label %L.B0001, label %L.B1940, !dbg !6415
L.B1940:
	%1024 = load i32, i32* %sysBoundaryLayer.addr, align 4, !tbaa !6536, !dbg !6415
	%1025 = icmp ne i32  %1024, 1, !dbg !6415
	br i1  %1025, label %L.B0000, label %L.B0001, !dbg !6415
L.B0001:
	%1026 = load %struct._Z6FsGridISt5arrayIdLm3EELi2EE*, %struct._Z6FsGridISt5arrayIdLm3EELi2EE** %perBGrid.addr, align 8, !tbaa !6534, !dbg !6416
	%1027 = bitcast %struct._Z6FsGridISt5arrayIdLm3EELi2EE*  %1026 to i8*, !dbg !6416
	%1028 = bitcast %struct._Z6FsGridISt5arrayIdLm3EELi2EE** %..inline.addr.740 to i8**, !dbg !6416
	store i8*  %1027, i8**  %1028, align 8, !tbaa !6534, !dbg !6416
	%1029 = load i32, i32* %i.addr, align 4, !tbaa !6536, !dbg !6416
	%1030 = sub i32  %1029, 1, !dbg !6416
	store i32  %1030, i32* %..inline.addr.750, align 4, !tbaa !6536, !dbg !6416
	%1031 = load i32, i32* %j.addr, align 4, !tbaa !6536, !dbg !6416
	store i32  %1031, i32* %..inline.addr.760, align 4, !tbaa !6536, !dbg !6416
	%1032 = load i32, i32* %k.addr, align 4, !tbaa !6536, !dbg !6416
	store i32  %1032, i32* %..inline.addr.770, align 4, !tbaa !6536, !dbg !6416
	store i32 13, i32* %..inline.addr.780, align 4, !tbaa !6536, !dbg !6416
	%1033 = bitcast [3 x i32]* %..inline.addr.790 to i32*, !dbg !6380
	store i32 0, i32*  %1033, align 4, !tbaa !6533, !dbg !6380
	%1034 = bitcast [3 x i32]* %..inline.addr.790 to i8*, !dbg !6381
	%1035 = getelementptr i8, i8*  %1034, i64 4, !dbg !6381
	%1036 = bitcast i8*  %1035 to i32*, !dbg !6381
	store i32 0, i32*  %1036, align 4, !tbaa !6533, !dbg !6381
	%1037 = getelementptr i8, i8*  %1034, i64 8, !dbg !6381
	%1038 = bitcast i8*  %1037 to i32*, !dbg !6381
	store i32 0, i32*  %1038, align 4, !tbaa !6533, !dbg !6381
	%1039 = icmp sge i32  %1030, 0, !dbg !6381
	br i1  %1039, label %L..inline.78486, label %L.B1941, !dbg !6381
L.B1941:
	store i32 4, i32* %..inline.addr.780, align 4, !tbaa !6536, !dbg !6382
	%1040 = bitcast [3 x i32]* %..inline.addr.790 to i32*, !dbg !6383
	store i32 1, i32*  %1040, align 4, !tbaa !6533, !dbg !6383
	br label %L..inline.78486
L..inline.78486:
	%1041 = load i32, i32* %..inline.addr.750, align 4, !tbaa !6536, !dbg !6384
	%1042 = load %struct._Z6FsGridISt5arrayIdLm3EELi2EE*, %struct._Z6FsGridISt5arrayIdLm3EELi2EE** %..inline.addr.740, align 8, !tbaa !6534, !dbg !6384
	%1043 = bitcast %struct._Z6FsGridISt5arrayIdLm3EELi2EE*  %1042 to i8*, !dbg !6384
	%1044 = getelementptr i8, i8*  %1043, i64 264, !dbg !6384
	%1045 = bitcast i8*  %1044 to i32*, !dbg !6384
	%1046 = load i32, i32*  %1045, align 4, !tbaa !6533, !dbg !6384
	%1047 = icmp slt i32  %1041,  %1046, !dbg !6384
	br i1  %1047, label %L..inline.78504, label %L.B1942, !dbg !6384
L.B1942:
	%1048 = load i32, i32* %..inline.addr.780, align 4, !tbaa !6536, !dbg !6384
	%1049 = add i32  %1048, 9, !dbg !6384
	store i32  %1049, i32* %..inline.addr.780, align 4, !tbaa !6536, !dbg !6384
	%1050 = bitcast [3 x i32]* %..inline.addr.790 to i32*, !dbg !6385
	store i32 -1, i32*  %1050, align 4, !tbaa !6533, !dbg !6385
	br label %L..inline.78504
L..inline.78504:
	%1051 = load i32, i32* %..inline.addr.760, align 4, !tbaa !6536, !dbg !6386
	%1052 = icmp sge i32  %1051, 0, !dbg !6386
	br i1  %1052, label %L..inline.78506, label %L.B1943, !dbg !6386
L.B1943:
	%1053 = load i32, i32* %..inline.addr.780, align 4, !tbaa !6536, !dbg !6386
	%1054 = sub i32  %1053, 3, !dbg !6386
	store i32  %1054, i32* %..inline.addr.780, align 4, !tbaa !6536, !dbg !6386
	%1055 = bitcast [3 x i32]* %..inline.addr.790 to i8*, !dbg !6387
	%1056 = getelementptr i8, i8*  %1055, i64 4, !dbg !6387
	%1057 = bitcast i8*  %1056 to i32*, !dbg !6387
	store i32 1, i32*  %1057, align 4, !tbaa !6533, !dbg !6387
	br label %L..inline.78506
L..inline.78506:
	%1058 = load i32, i32* %..inline.addr.760, align 4, !tbaa !6536, !dbg !6388
	%1059 = load %struct._Z6FsGridISt5arrayIdLm3EELi2EE*, %struct._Z6FsGridISt5arrayIdLm3EELi2EE** %..inline.addr.740, align 8, !tbaa !6534, !dbg !6388
	%1060 = bitcast %struct._Z6FsGridISt5arrayIdLm3EELi2EE*  %1059 to i8*, !dbg !6388
	%1061 = getelementptr i8, i8*  %1060, i64 268, !dbg !6388
	%1062 = bitcast i8*  %1061 to i32*, !dbg !6388
	%1063 = load i32, i32*  %1062, align 4, !tbaa !6533, !dbg !6388
	%1064 = icmp slt i32  %1058,  %1063, !dbg !6388
	br i1  %1064, label %L..inline.78523, label %L.B1944, !dbg !6388
L.B1944:
	%1065 = load i32, i32* %..inline.addr.780, align 4, !tbaa !6536, !dbg !6388
	%1066 = add i32  %1065, 3, !dbg !6388
	store i32  %1066, i32* %..inline.addr.780, align 4, !tbaa !6536, !dbg !6388
	%1067 = bitcast [3 x i32]* %..inline.addr.790 to i8*, !dbg !6389
	%1068 = getelementptr i8, i8*  %1067, i64 4, !dbg !6389
	%1069 = bitcast i8*  %1068 to i32*, !dbg !6389
	store i32 -1, i32*  %1069, align 4, !tbaa !6533, !dbg !6389
	br label %L..inline.78523
L..inline.78523:
	%1070 = load i32, i32* %..inline.addr.770, align 4, !tbaa !6536, !dbg !6390
	%1071 = icmp sge i32  %1070, 0, !dbg !6390
	br i1  %1071, label %L..inline.78525, label %L.B1945, !dbg !6390
L.B1945:
	%1072 = load i32, i32* %..inline.addr.780, align 4, !tbaa !6536, !dbg !6390
	%1073 = sub i32  %1072, 1, !dbg !6390
	store i32  %1073, i32* %..inline.addr.780, align 4, !tbaa !6536, !dbg !6390
	%1074 = bitcast [3 x i32]* %..inline.addr.790 to i8*, !dbg !6391
	%1075 = getelementptr i8, i8*  %1074, i64 8, !dbg !6391
	%1076 = bitcast i8*  %1075 to i32*, !dbg !6391
	store i32 1, i32*  %1076, align 4, !tbaa !6533, !dbg !6391
	br label %L..inline.78525
L..inline.78525:
	%1077 = load i32, i32* %..inline.addr.770, align 4, !tbaa !6536, !dbg !6392
	%1078 = load %struct._Z6FsGridISt5arrayIdLm3EELi2EE*, %struct._Z6FsGridISt5arrayIdLm3EELi2EE** %..inline.addr.740, align 8, !tbaa !6534, !dbg !6392
	%1079 = bitcast %struct._Z6FsGridISt5arrayIdLm3EELi2EE*  %1078 to i8*, !dbg !6392
	%1080 = getelementptr i8, i8*  %1079, i64 272, !dbg !6392
	%1081 = bitcast i8*  %1080 to i32*, !dbg !6392
	%1082 = load i32, i32*  %1081, align 4, !tbaa !6533, !dbg !6392
	%1083 = icmp slt i32  %1077,  %1082, !dbg !6392
	br i1  %1083, label %L..inline.78542, label %L.B1946, !dbg !6392
L.B1946:
	%1084 = load i32, i32* %..inline.addr.780, align 4, !tbaa !6536, !dbg !6392
	%1085 = add i32  %1084, 1, !dbg !6392
	store i32  %1085, i32* %..inline.addr.780, align 4, !tbaa !6536, !dbg !6392
	%1086 = bitcast [3 x i32]* %..inline.addr.790 to i8*, !dbg !6393
	%1087 = getelementptr i8, i8*  %1086, i64 8, !dbg !6393
	%1088 = bitcast i8*  %1087 to i32*, !dbg !6393
	store i32 -1, i32*  %1088, align 4, !tbaa !6533, !dbg !6393
	br label %L..inline.78542
L..inline.78542:
	%1089 = load i32, i32* %..inline.addr.780, align 4, !tbaa !6536, !dbg !6394
	%1090 = icmp eq i32  %1089, 13, !dbg !6394
	br i1  %1090, label %L..inline.78543, label %L.B1947, !dbg !6394
L.B1947:
	%1091 = sext i32  %1089 to i64, !dbg !6395
	%1092 = load %struct._Z6FsGridISt5arrayIdLm3EELi2EE*, %struct._Z6FsGridISt5arrayIdLm3EELi2EE** %..inline.addr.740, align 8, !tbaa !6534, !dbg !6395
	%1093 = bitcast %struct._Z6FsGridISt5arrayIdLm3EELi2EE*  %1092 to i8*, !dbg !6395
	%1094 = getelementptr i8, i8*  %1093, i64 92, !dbg !6395
	%1095 = bitcast i8*  %1094 to i32*, !dbg !6395
	%1096 = getelementptr i32, i32*  %1095, i64  %1091, !dbg !6395
	%1097 = load i32, i32*  %1096, align 4, !tbaa !6533, !dbg !6395
	%1098 = icmp ne i32  %1097, -2, !dbg !6395
	br i1  %1098, label %L..inline.78560, label %L.B1948, !dbg !6395
L.B1948:
	%1099 = bitcast %struct._ZSt5arrayIdLm3EE** %..inline.addr.800 to i8**, !dbg !6395
	store i8* null, i8**  %1099, align 8, !tbaa !6534, !dbg !6395
	br label %L..inline.78747, !dbg !6396
L..inline.78560:
	%1100 = load i32, i32* %..inline.addr.780, align 4, !tbaa !6536, !dbg !6397
	%1101 = sext i32  %1100 to i64, !dbg !6397
	%1102 = load %struct._Z6FsGridISt5arrayIdLm3EELi2EE*, %struct._Z6FsGridISt5arrayIdLm3EELi2EE** %..inline.addr.740, align 8, !tbaa !6534, !dbg !6397
	%1103 = bitcast %struct._Z6FsGridISt5arrayIdLm3EELi2EE*  %1102 to i8*, !dbg !6397
	%1104 = getelementptr i8, i8*  %1103, i64 92, !dbg !6397
	%1105 = bitcast i8*  %1104 to i32*, !dbg !6397
	%1106 = getelementptr i32, i32*  %1105, i64  %1101, !dbg !6397
	%1107 = load i32, i32*  %1106, align 4, !tbaa !6533, !dbg !6397
	%1108 = getelementptr i8, i8*  %1103, i64 56, !dbg !6397
	%1109 = bitcast i8*  %1108 to i32*, !dbg !6397
	%1110 = load i32, i32*  %1109, align 4, !tbaa !6533, !dbg !6397
	%1111 = icmp ne i32  %1107,  %1110, !dbg !6397
	br i1  %1111, label %L..inline.78578, label %L.B1949, !dbg !6397
L.B1949:
	%1112 = load i32, i32* %..inline.addr.750, align 4, !tbaa !6536, !dbg !6398
	%1113 = bitcast [3 x i32]* %..inline.addr.790 to i32*, !dbg !6398
	%1114 = load i32, i32*  %1113, align 4, !tbaa !6533, !dbg !6398
	%1115 = bitcast %struct._Z6FsGridISt5arrayIdLm3EELi2EE*  %1102 to i8*, !dbg !6398
	%1116 = getelementptr i8, i8*  %1115, i64 264, !dbg !6398
	%1117 = bitcast i8*  %1116 to i32*, !dbg !6398
	%1118 = load i32, i32*  %1117, align 4, !tbaa !6533, !dbg !6398
	%1119 = mul i32  %1114,  %1118, !dbg !6398
	%1120 = add i32  %1112,  %1119, !dbg !6398
	store i32  %1120, i32* %..inline.addr.750, align 4, !tbaa !6536, !dbg !6398
	%1121 = load i32, i32* %..inline.addr.760, align 4, !tbaa !6536, !dbg !6399
	%1122 = bitcast [3 x i32]* %..inline.addr.790 to i8*, !dbg !6399
	%1123 = getelementptr i8, i8*  %1122, i64 4, !dbg !6399
	%1124 = bitcast i8*  %1123 to i32*, !dbg !6399
	%1125 = load i32, i32*  %1124, align 4, !tbaa !6533, !dbg !6399
	%1126 = getelementptr i8, i8*  %1115, i64 268, !dbg !6399
	%1127 = bitcast i8*  %1126 to i32*, !dbg !6399
	%1128 = load i32, i32*  %1127, align 4, !tbaa !6533, !dbg !6399
	%1129 = mul i32  %1125,  %1128, !dbg !6399
	%1130 = add i32  %1121,  %1129, !dbg !6399
	store i32  %1130, i32* %..inline.addr.760, align 4, !tbaa !6536, !dbg !6399
	%1131 = load i32, i32* %..inline.addr.770, align 4, !tbaa !6536, !dbg !6400
	%1132 = getelementptr i8, i8*  %1122, i64 8, !dbg !6400
	%1133 = bitcast i8*  %1132 to i32*, !dbg !6400
	%1134 = load i32, i32*  %1133, align 4, !tbaa !6533, !dbg !6400
	%1135 = getelementptr i8, i8*  %1115, i64 272, !dbg !6400
	%1136 = bitcast i8*  %1135 to i32*, !dbg !6400
	%1137 = load i32, i32*  %1136, align 4, !tbaa !6533, !dbg !6400
	%1138 = mul i32  %1134,  %1137, !dbg !6400
	%1139 = add i32  %1131,  %1138, !dbg !6400
	store i32  %1139, i32* %..inline.addr.770, align 4, !tbaa !6536, !dbg !6400
	br label %L..inline.78578
L..inline.78578:
	br label %L..inline.78543
L..inline.78543:
	store i64 0, i64* %..inline.addr.810, align 8, !tbaa !6538, !dbg !6401
	%1140 = load %struct._Z6FsGridISt5arrayIdLm3EELi2EE*, %struct._Z6FsGridISt5arrayIdLm3EELi2EE** %..inline.addr.740, align 8, !tbaa !6534, !dbg !6401
	%1141 = bitcast %struct._Z6FsGridISt5arrayIdLm3EELi2EE*  %1140 to i8*, !dbg !6401
	%1142 = getelementptr i8, i8*  %1141, i64 260, !dbg !6401
	%1143 = bitcast i8*  %1142 to i32*, !dbg !6401
	%1144 = load i32, i32*  %1143, align 4, !tbaa !6533, !dbg !6401
	%1145 = icmp sle i32  %1144, 1, !dbg !6401
	br i1  %1145, label %L..inline.78652, label %L.B1950, !dbg !6401
L.B1950:
	%1146 = load i32, i32* %..inline.addr.770, align 4, !tbaa !6536, !dbg !6401
	%1147 = add i32  %1146, 2, !dbg !6401
	%1148 = bitcast %struct._Z6FsGridISt5arrayIdLm3EELi2EE*  %1140 to i8*, !dbg !6401
	%1149 = getelementptr i8, i8*  %1148, i64 280, !dbg !6401
	%1150 = bitcast i8*  %1149 to i32*, !dbg !6401
	%1151 = load i32, i32*  %1150, align 4, !tbaa !6533, !dbg !6401
	%1152 = getelementptr i8, i8*  %1148, i64 276, !dbg !6401
	%1153 = bitcast i8*  %1152 to i32*, !dbg !6401
	%1154 = load i32, i32*  %1153, align 4, !tbaa !6533, !dbg !6401
	%1155 = mul i32  %1151,  %1154, !dbg !6401
	%1156 = mul i32  %1147,  %1155, !dbg !6401
	%1157 = sext i32  %1156 to i64, !dbg !6401
	store i64  %1157, i64* %..inline.addr.810, align 8, !tbaa !6538, !dbg !6401
	br label %L..inline.78652
L..inline.78652:
	%1158 = load %struct._Z6FsGridISt5arrayIdLm3EELi2EE*, %struct._Z6FsGridISt5arrayIdLm3EELi2EE** %..inline.addr.740, align 8, !tbaa !6534, !dbg !6401
	%1159 = bitcast %struct._Z6FsGridISt5arrayIdLm3EELi2EE*  %1158 to i8*, !dbg !6401
	%1160 = getelementptr i8, i8*  %1159, i64 256, !dbg !6401
	%1161 = bitcast i8*  %1160 to i32*, !dbg !6401
	%1162 = load i32, i32*  %1161, align 4, !tbaa !6533, !dbg !6401
	%1163 = icmp sle i32  %1162, 1, !dbg !6401
	br i1  %1163, label %L..inline.78701, label %L.B1951, !dbg !6401
L.B1951:
	%1164 = load i64, i64* %..inline.addr.810, align 8, !tbaa !6538, !dbg !6401
	%1165 = bitcast %struct._Z6FsGridISt5arrayIdLm3EELi2EE*  %1158 to i8*, !dbg !6401
	%1166 = getelementptr i8, i8*  %1165, i64 276, !dbg !6401
	%1167 = bitcast i8*  %1166 to i32*, !dbg !6401
	%1168 = load i32, i32*  %1167, align 4, !tbaa !6533, !dbg !6401
	%1169 = load i32, i32* %..inline.addr.760, align 4, !tbaa !6536, !dbg !6401
	%1170 = add i32  %1169, 2, !dbg !6401
	%1171 = mul i32  %1168,  %1170, !dbg !6401
	%1172 = sext i32  %1171 to i64, !dbg !6401
	%1173 = add i64  %1164,  %1172, !dbg !6401
	store i64  %1173, i64* %..inline.addr.810, align 8, !tbaa !6538, !dbg !6401
	br label %L..inline.78701
L..inline.78701:
	%1174 = load %struct._Z6FsGridISt5arrayIdLm3EELi2EE*, %struct._Z6FsGridISt5arrayIdLm3EELi2EE** %..inline.addr.740, align 8, !tbaa !6534, !dbg !6401
	%1175 = bitcast %struct._Z6FsGridISt5arrayIdLm3EELi2EE*  %1174 to i8*, !dbg !6401
	%1176 = getelementptr i8, i8*  %1175, i64 252, !dbg !6401
	%1177 = bitcast i8*  %1176 to i32*, !dbg !6401
	%1178 = load i32, i32*  %1177, align 4, !tbaa !6533, !dbg !6401
	%1179 = icmp sle i32  %1178, 1, !dbg !6401
	%1180 = zext i1  %1179 to i32, !dbg !6401
	%1181 = trunc i32  %1180 to i1, !dbg !6401
	%1182 = load i64, i64* %..inline.addr.810, align 8, !tbaa !6538, !dbg !6401
	%1183 = load i32, i32* %..inline.addr.750, align 4, !tbaa !6536, !dbg !6401
	%1184 = sext i32  %1183 to i64, !dbg !6401
	%1185 = add i64  %1184, 2, !dbg !6401
	%1186 = add i64  %1182,  %1185, !dbg !6401
	%1187 = select i1  %1181, i64  %1182, i64  %1186, !dbg !6401
	%1188 = getelementptr i8, i8*  %1175, i64 744, !dbg !6402
	%1189 = bitcast i8*  %1188 to i8**, !dbg !6402
	%1190 = load i8*, i8**  %1189, align 8, !tbaa !6534, !dbg !6402
	%1191 = mul i64  %1187, 24, !dbg !6402
	%1192 = getelementptr i8, i8*  %1190, i64  %1191, !dbg !6402
	%1193 = bitcast %struct._ZSt5arrayIdLm3EE** %..inline.addr.800 to i8**, !dbg !6402
	store i8*  %1192, i8**  %1193, align 8, !tbaa !6534, !dbg !6402
	br label %L..inline.78747
L..inline.78747:
	%1194 = load %struct._ZSt5arrayIdLm3EE*, %struct._ZSt5arrayIdLm3EE** %..inline.addr.800, align 8, !tbaa !6534, !dbg !6403
	%1195 = bitcast %struct._ZSt5arrayIdLm3EE*  %1194 to i8*, !dbg !6403
	call void @llvm.dbg.declare (metadata %struct._ZSt5arrayIdLm3EE** %leftPerB.addr, metadata !6417, metadata !6359), !dbg !4309
	%1196 = bitcast %struct._ZSt5arrayIdLm3EE** %leftPerB.addr to i8**, !dbg !6403
	store i8*  %1195, i8**  %1196, align 8, !tbaa !6534, !dbg !6403
	%1197 = load %struct._Z6FsGridISt5arrayIdLm3EELi2EE*, %struct._Z6FsGridISt5arrayIdLm3EELi2EE** %perBGrid.addr, align 8, !tbaa !6534, !dbg !6418
	%1198 = bitcast %struct._Z6FsGridISt5arrayIdLm3EELi2EE*  %1197 to i8*, !dbg !6418
	%1199 = bitcast %struct._Z6FsGridISt5arrayIdLm3EELi2EE** %..inline.addr.830 to i8**, !dbg !6418
	store i8*  %1198, i8**  %1199, align 8, !tbaa !6534, !dbg !6418
	%1200 = load i32, i32* %i.addr, align 4, !tbaa !6536, !dbg !6418
	%1201 = add i32  %1200, 1, !dbg !6418
	store i32  %1201, i32* %..inline.addr.840, align 4, !tbaa !6536, !dbg !6418
	%1202 = load i32, i32* %j.addr, align 4, !tbaa !6536, !dbg !6418
	store i32  %1202, i32* %..inline.addr.850, align 4, !tbaa !6536, !dbg !6418
	%1203 = load i32, i32* %k.addr, align 4, !tbaa !6536, !dbg !6418
	store i32  %1203, i32* %..inline.addr.860, align 4, !tbaa !6536, !dbg !6418
	store i32 13, i32* %..inline.addr.870, align 4, !tbaa !6536, !dbg !6418
	%1204 = bitcast [3 x i32]* %..inline.addr.880 to i32*, !dbg !6380
	store i32 0, i32*  %1204, align 4, !tbaa !6533, !dbg !6380
	%1205 = bitcast [3 x i32]* %..inline.addr.880 to i8*, !dbg !6381
	%1206 = getelementptr i8, i8*  %1205, i64 4, !dbg !6381
	%1207 = bitcast i8*  %1206 to i32*, !dbg !6381
	store i32 0, i32*  %1207, align 4, !tbaa !6533, !dbg !6381
	%1208 = getelementptr i8, i8*  %1205, i64 8, !dbg !6381
	%1209 = bitcast i8*  %1208 to i32*, !dbg !6381
	store i32 0, i32*  %1209, align 4, !tbaa !6533, !dbg !6381
	%1210 = icmp sge i32  %1201, 0, !dbg !6381
	br i1  %1210, label %L..inline.78753, label %L.B1952, !dbg !6381
L.B1952:
	store i32 4, i32* %..inline.addr.870, align 4, !tbaa !6536, !dbg !6382
	%1211 = bitcast [3 x i32]* %..inline.addr.880 to i32*, !dbg !6383
	store i32 1, i32*  %1211, align 4, !tbaa !6533, !dbg !6383
	br label %L..inline.78753
L..inline.78753:
	%1212 = load i32, i32* %..inline.addr.840, align 4, !tbaa !6536, !dbg !6384
	%1213 = load %struct._Z6FsGridISt5arrayIdLm3EELi2EE*, %struct._Z6FsGridISt5arrayIdLm3EELi2EE** %..inline.addr.830, align 8, !tbaa !6534, !dbg !6384
	%1214 = bitcast %struct._Z6FsGridISt5arrayIdLm3EELi2EE*  %1213 to i8*, !dbg !6384
	%1215 = getelementptr i8, i8*  %1214, i64 264, !dbg !6384
	%1216 = bitcast i8*  %1215 to i32*, !dbg !6384
	%1217 = load i32, i32*  %1216, align 4, !tbaa !6533, !dbg !6384
	%1218 = icmp slt i32  %1212,  %1217, !dbg !6384
	br i1  %1218, label %L..inline.78771, label %L.B1953, !dbg !6384
L.B1953:
	%1219 = load i32, i32* %..inline.addr.870, align 4, !tbaa !6536, !dbg !6384
	%1220 = add i32  %1219, 9, !dbg !6384
	store i32  %1220, i32* %..inline.addr.870, align 4, !tbaa !6536, !dbg !6384
	%1221 = bitcast [3 x i32]* %..inline.addr.880 to i32*, !dbg !6385
	store i32 -1, i32*  %1221, align 4, !tbaa !6533, !dbg !6385
	br label %L..inline.78771
L..inline.78771:
	%1222 = load i32, i32* %..inline.addr.850, align 4, !tbaa !6536, !dbg !6386
	%1223 = icmp sge i32  %1222, 0, !dbg !6386
	br i1  %1223, label %L..inline.78773, label %L.B1954, !dbg !6386
L.B1954:
	%1224 = load i32, i32* %..inline.addr.870, align 4, !tbaa !6536, !dbg !6386
	%1225 = sub i32  %1224, 3, !dbg !6386
	store i32  %1225, i32* %..inline.addr.870, align 4, !tbaa !6536, !dbg !6386
	%1226 = bitcast [3 x i32]* %..inline.addr.880 to i8*, !dbg !6387
	%1227 = getelementptr i8, i8*  %1226, i64 4, !dbg !6387
	%1228 = bitcast i8*  %1227 to i32*, !dbg !6387
	store i32 1, i32*  %1228, align 4, !tbaa !6533, !dbg !6387
	br label %L..inline.78773
L..inline.78773:
	%1229 = load i32, i32* %..inline.addr.850, align 4, !tbaa !6536, !dbg !6388
	%1230 = load %struct._Z6FsGridISt5arrayIdLm3EELi2EE*, %struct._Z6FsGridISt5arrayIdLm3EELi2EE** %..inline.addr.830, align 8, !tbaa !6534, !dbg !6388
	%1231 = bitcast %struct._Z6FsGridISt5arrayIdLm3EELi2EE*  %1230 to i8*, !dbg !6388
	%1232 = getelementptr i8, i8*  %1231, i64 268, !dbg !6388
	%1233 = bitcast i8*  %1232 to i32*, !dbg !6388
	%1234 = load i32, i32*  %1233, align 4, !tbaa !6533, !dbg !6388
	%1235 = icmp slt i32  %1229,  %1234, !dbg !6388
	br i1  %1235, label %L..inline.78790, label %L.B1955, !dbg !6388
L.B1955:
	%1236 = load i32, i32* %..inline.addr.870, align 4, !tbaa !6536, !dbg !6388
	%1237 = add i32  %1236, 3, !dbg !6388
	store i32  %1237, i32* %..inline.addr.870, align 4, !tbaa !6536, !dbg !6388
	%1238 = bitcast [3 x i32]* %..inline.addr.880 to i8*, !dbg !6389
	%1239 = getelementptr i8, i8*  %1238, i64 4, !dbg !6389
	%1240 = bitcast i8*  %1239 to i32*, !dbg !6389
	store i32 -1, i32*  %1240, align 4, !tbaa !6533, !dbg !6389
	br label %L..inline.78790
L..inline.78790:
	%1241 = load i32, i32* %..inline.addr.860, align 4, !tbaa !6536, !dbg !6390
	%1242 = icmp sge i32  %1241, 0, !dbg !6390
	br i1  %1242, label %L..inline.78792, label %L.B1956, !dbg !6390
L.B1956:
	%1243 = load i32, i32* %..inline.addr.870, align 4, !tbaa !6536, !dbg !6390
	%1244 = sub i32  %1243, 1, !dbg !6390
	store i32  %1244, i32* %..inline.addr.870, align 4, !tbaa !6536, !dbg !6390
	%1245 = bitcast [3 x i32]* %..inline.addr.880 to i8*, !dbg !6391
	%1246 = getelementptr i8, i8*  %1245, i64 8, !dbg !6391
	%1247 = bitcast i8*  %1246 to i32*, !dbg !6391
	store i32 1, i32*  %1247, align 4, !tbaa !6533, !dbg !6391
	br label %L..inline.78792
L..inline.78792:
	%1248 = load i32, i32* %..inline.addr.860, align 4, !tbaa !6536, !dbg !6392
	%1249 = load %struct._Z6FsGridISt5arrayIdLm3EELi2EE*, %struct._Z6FsGridISt5arrayIdLm3EELi2EE** %..inline.addr.830, align 8, !tbaa !6534, !dbg !6392
	%1250 = bitcast %struct._Z6FsGridISt5arrayIdLm3EELi2EE*  %1249 to i8*, !dbg !6392
	%1251 = getelementptr i8, i8*  %1250, i64 272, !dbg !6392
	%1252 = bitcast i8*  %1251 to i32*, !dbg !6392
	%1253 = load i32, i32*  %1252, align 4, !tbaa !6533, !dbg !6392
	%1254 = icmp slt i32  %1248,  %1253, !dbg !6392
	br i1  %1254, label %L..inline.78809, label %L.B1957, !dbg !6392
L.B1957:
	%1255 = load i32, i32* %..inline.addr.870, align 4, !tbaa !6536, !dbg !6392
	%1256 = add i32  %1255, 1, !dbg !6392
	store i32  %1256, i32* %..inline.addr.870, align 4, !tbaa !6536, !dbg !6392
	%1257 = bitcast [3 x i32]* %..inline.addr.880 to i8*, !dbg !6393
	%1258 = getelementptr i8, i8*  %1257, i64 8, !dbg !6393
	%1259 = bitcast i8*  %1258 to i32*, !dbg !6393
	store i32 -1, i32*  %1259, align 4, !tbaa !6533, !dbg !6393
	br label %L..inline.78809
L..inline.78809:
	%1260 = load i32, i32* %..inline.addr.870, align 4, !tbaa !6536, !dbg !6394
	%1261 = icmp eq i32  %1260, 13, !dbg !6394
	br i1  %1261, label %L..inline.78810, label %L.B1958, !dbg !6394
L.B1958:
	%1262 = sext i32  %1260 to i64, !dbg !6395
	%1263 = load %struct._Z6FsGridISt5arrayIdLm3EELi2EE*, %struct._Z6FsGridISt5arrayIdLm3EELi2EE** %..inline.addr.830, align 8, !tbaa !6534, !dbg !6395
	%1264 = bitcast %struct._Z6FsGridISt5arrayIdLm3EELi2EE*  %1263 to i8*, !dbg !6395
	%1265 = getelementptr i8, i8*  %1264, i64 92, !dbg !6395
	%1266 = bitcast i8*  %1265 to i32*, !dbg !6395
	%1267 = getelementptr i32, i32*  %1266, i64  %1262, !dbg !6395
	%1268 = load i32, i32*  %1267, align 4, !tbaa !6533, !dbg !6395
	%1269 = icmp ne i32  %1268, -2, !dbg !6395
	br i1  %1269, label %L..inline.78827, label %L.B1959, !dbg !6395
L.B1959:
	%1270 = bitcast %struct._ZSt5arrayIdLm3EE** %..inline.addr.890 to i8**, !dbg !6395
	store i8* null, i8**  %1270, align 8, !tbaa !6534, !dbg !6395
	br label %L..inline.79014, !dbg !6396
L..inline.78827:
	%1271 = load i32, i32* %..inline.addr.870, align 4, !tbaa !6536, !dbg !6397
	%1272 = sext i32  %1271 to i64, !dbg !6397
	%1273 = load %struct._Z6FsGridISt5arrayIdLm3EELi2EE*, %struct._Z6FsGridISt5arrayIdLm3EELi2EE** %..inline.addr.830, align 8, !tbaa !6534, !dbg !6397
	%1274 = bitcast %struct._Z6FsGridISt5arrayIdLm3EELi2EE*  %1273 to i8*, !dbg !6397
	%1275 = getelementptr i8, i8*  %1274, i64 92, !dbg !6397
	%1276 = bitcast i8*  %1275 to i32*, !dbg !6397
	%1277 = getelementptr i32, i32*  %1276, i64  %1272, !dbg !6397
	%1278 = load i32, i32*  %1277, align 4, !tbaa !6533, !dbg !6397
	%1279 = getelementptr i8, i8*  %1274, i64 56, !dbg !6397
	%1280 = bitcast i8*  %1279 to i32*, !dbg !6397
	%1281 = load i32, i32*  %1280, align 4, !tbaa !6533, !dbg !6397
	%1282 = icmp ne i32  %1278,  %1281, !dbg !6397
	br i1  %1282, label %L..inline.78845, label %L.B1960, !dbg !6397
L.B1960:
	%1283 = load i32, i32* %..inline.addr.840, align 4, !tbaa !6536, !dbg !6398
	%1284 = bitcast [3 x i32]* %..inline.addr.880 to i32*, !dbg !6398
	%1285 = load i32, i32*  %1284, align 4, !tbaa !6533, !dbg !6398
	%1286 = bitcast %struct._Z6FsGridISt5arrayIdLm3EELi2EE*  %1273 to i8*, !dbg !6398
	%1287 = getelementptr i8, i8*  %1286, i64 264, !dbg !6398
	%1288 = bitcast i8*  %1287 to i32*, !dbg !6398
	%1289 = load i32, i32*  %1288, align 4, !tbaa !6533, !dbg !6398
	%1290 = mul i32  %1285,  %1289, !dbg !6398
	%1291 = add i32  %1283,  %1290, !dbg !6398
	store i32  %1291, i32* %..inline.addr.840, align 4, !tbaa !6536, !dbg !6398
	%1292 = load i32, i32* %..inline.addr.850, align 4, !tbaa !6536, !dbg !6399
	%1293 = bitcast [3 x i32]* %..inline.addr.880 to i8*, !dbg !6399
	%1294 = getelementptr i8, i8*  %1293, i64 4, !dbg !6399
	%1295 = bitcast i8*  %1294 to i32*, !dbg !6399
	%1296 = load i32, i32*  %1295, align 4, !tbaa !6533, !dbg !6399
	%1297 = getelementptr i8, i8*  %1286, i64 268, !dbg !6399
	%1298 = bitcast i8*  %1297 to i32*, !dbg !6399
	%1299 = load i32, i32*  %1298, align 4, !tbaa !6533, !dbg !6399
	%1300 = mul i32  %1296,  %1299, !dbg !6399
	%1301 = add i32  %1292,  %1300, !dbg !6399
	store i32  %1301, i32* %..inline.addr.850, align 4, !tbaa !6536, !dbg !6399
	%1302 = load i32, i32* %..inline.addr.860, align 4, !tbaa !6536, !dbg !6400
	%1303 = getelementptr i8, i8*  %1293, i64 8, !dbg !6400
	%1304 = bitcast i8*  %1303 to i32*, !dbg !6400
	%1305 = load i32, i32*  %1304, align 4, !tbaa !6533, !dbg !6400
	%1306 = getelementptr i8, i8*  %1286, i64 272, !dbg !6400
	%1307 = bitcast i8*  %1306 to i32*, !dbg !6400
	%1308 = load i32, i32*  %1307, align 4, !tbaa !6533, !dbg !6400
	%1309 = mul i32  %1305,  %1308, !dbg !6400
	%1310 = add i32  %1302,  %1309, !dbg !6400
	store i32  %1310, i32* %..inline.addr.860, align 4, !tbaa !6536, !dbg !6400
	br label %L..inline.78845
L..inline.78845:
	br label %L..inline.78810
L..inline.78810:
	store i64 0, i64* %..inline.addr.900, align 8, !tbaa !6538, !dbg !6401
	%1311 = load %struct._Z6FsGridISt5arrayIdLm3EELi2EE*, %struct._Z6FsGridISt5arrayIdLm3EELi2EE** %..inline.addr.830, align 8, !tbaa !6534, !dbg !6401
	%1312 = bitcast %struct._Z6FsGridISt5arrayIdLm3EELi2EE*  %1311 to i8*, !dbg !6401
	%1313 = getelementptr i8, i8*  %1312, i64 260, !dbg !6401
	%1314 = bitcast i8*  %1313 to i32*, !dbg !6401
	%1315 = load i32, i32*  %1314, align 4, !tbaa !6533, !dbg !6401
	%1316 = icmp sle i32  %1315, 1, !dbg !6401
	br i1  %1316, label %L..inline.78919, label %L.B1961, !dbg !6401
L.B1961:
	%1317 = load i32, i32* %..inline.addr.860, align 4, !tbaa !6536, !dbg !6401
	%1318 = add i32  %1317, 2, !dbg !6401
	%1319 = bitcast %struct._Z6FsGridISt5arrayIdLm3EELi2EE*  %1311 to i8*, !dbg !6401
	%1320 = getelementptr i8, i8*  %1319, i64 280, !dbg !6401
	%1321 = bitcast i8*  %1320 to i32*, !dbg !6401
	%1322 = load i32, i32*  %1321, align 4, !tbaa !6533, !dbg !6401
	%1323 = getelementptr i8, i8*  %1319, i64 276, !dbg !6401
	%1324 = bitcast i8*  %1323 to i32*, !dbg !6401
	%1325 = load i32, i32*  %1324, align 4, !tbaa !6533, !dbg !6401
	%1326 = mul i32  %1322,  %1325, !dbg !6401
	%1327 = mul i32  %1318,  %1326, !dbg !6401
	%1328 = sext i32  %1327 to i64, !dbg !6401
	store i64  %1328, i64* %..inline.addr.900, align 8, !tbaa !6538, !dbg !6401
	br label %L..inline.78919
L..inline.78919:
	%1329 = load %struct._Z6FsGridISt5arrayIdLm3EELi2EE*, %struct._Z6FsGridISt5arrayIdLm3EELi2EE** %..inline.addr.830, align 8, !tbaa !6534, !dbg !6401
	%1330 = bitcast %struct._Z6FsGridISt5arrayIdLm3EELi2EE*  %1329 to i8*, !dbg !6401
	%1331 = getelementptr i8, i8*  %1330, i64 256, !dbg !6401
	%1332 = bitcast i8*  %1331 to i32*, !dbg !6401
	%1333 = load i32, i32*  %1332, align 4, !tbaa !6533, !dbg !6401
	%1334 = icmp sle i32  %1333, 1, !dbg !6401
	br i1  %1334, label %L..inline.78968, label %L.B1962, !dbg !6401
L.B1962:
	%1335 = load i64, i64* %..inline.addr.900, align 8, !tbaa !6538, !dbg !6401
	%1336 = bitcast %struct._Z6FsGridISt5arrayIdLm3EELi2EE*  %1329 to i8*, !dbg !6401
	%1337 = getelementptr i8, i8*  %1336, i64 276, !dbg !6401
	%1338 = bitcast i8*  %1337 to i32*, !dbg !6401
	%1339 = load i32, i32*  %1338, align 4, !tbaa !6533, !dbg !6401
	%1340 = load i32, i32* %..inline.addr.850, align 4, !tbaa !6536, !dbg !6401
	%1341 = add i32  %1340, 2, !dbg !6401
	%1342 = mul i32  %1339,  %1341, !dbg !6401
	%1343 = sext i32  %1342 to i64, !dbg !6401
	%1344 = add i64  %1335,  %1343, !dbg !6401
	store i64  %1344, i64* %..inline.addr.900, align 8, !tbaa !6538, !dbg !6401
	br label %L..inline.78968
L..inline.78968:
	%1345 = load %struct._Z6FsGridISt5arrayIdLm3EELi2EE*, %struct._Z6FsGridISt5arrayIdLm3EELi2EE** %..inline.addr.830, align 8, !tbaa !6534, !dbg !6401
	%1346 = bitcast %struct._Z6FsGridISt5arrayIdLm3EELi2EE*  %1345 to i8*, !dbg !6401
	%1347 = getelementptr i8, i8*  %1346, i64 252, !dbg !6401
	%1348 = bitcast i8*  %1347 to i32*, !dbg !6401
	%1349 = load i32, i32*  %1348, align 4, !tbaa !6533, !dbg !6401
	%1350 = icmp sle i32  %1349, 1, !dbg !6401
	%1351 = zext i1  %1350 to i32, !dbg !6401
	%1352 = trunc i32  %1351 to i1, !dbg !6401
	%1353 = load i64, i64* %..inline.addr.900, align 8, !tbaa !6538, !dbg !6401
	%1354 = load i32, i32* %..inline.addr.840, align 4, !tbaa !6536, !dbg !6401
	%1355 = sext i32  %1354 to i64, !dbg !6401
	%1356 = add i64  %1355, 2, !dbg !6401
	%1357 = add i64  %1353,  %1356, !dbg !6401
	%1358 = select i1  %1352, i64  %1353, i64  %1357, !dbg !6401
	%1359 = getelementptr i8, i8*  %1346, i64 744, !dbg !6402
	%1360 = bitcast i8*  %1359 to i8**, !dbg !6402
	%1361 = load i8*, i8**  %1360, align 8, !tbaa !6534, !dbg !6402
	%1362 = mul i64  %1358, 24, !dbg !6402
	%1363 = getelementptr i8, i8*  %1361, i64  %1362, !dbg !6402
	%1364 = bitcast %struct._ZSt5arrayIdLm3EE** %..inline.addr.890 to i8**, !dbg !6402
	store i8*  %1363, i8**  %1364, align 8, !tbaa !6534, !dbg !6402
	br label %L..inline.79014
L..inline.79014:
	%1365 = load %struct._ZSt5arrayIdLm3EE*, %struct._ZSt5arrayIdLm3EE** %..inline.addr.890, align 8, !tbaa !6534, !dbg !6403
	%1366 = bitcast %struct._ZSt5arrayIdLm3EE*  %1365 to i8*, !dbg !6403
	call void @llvm.dbg.declare (metadata %struct._ZSt5arrayIdLm3EE** %rghtPerB.addr, metadata !6419, metadata !6359), !dbg !4309
	%1367 = bitcast %struct._ZSt5arrayIdLm3EE** %rghtPerB.addr to i8**, !dbg !6403
	store i8*  %1366, i8**  %1367, align 8, !tbaa !6534, !dbg !6403
	%1368 = load %struct._Z6FsGridISt5arrayIdLm8EELi2EE*, %struct._Z6FsGridISt5arrayIdLm8EELi2EE** %momentsGrid.addr, align 8, !tbaa !6534, !dbg !6420
	%1369 = bitcast %struct._Z6FsGridISt5arrayIdLm8EELi2EE*  %1368 to i8*, !dbg !6420
	%1370 = bitcast %struct._Z6FsGridISt5arrayIdLm8EELi2EE** %..inline.addr.920 to i8**, !dbg !6420
	store i8*  %1369, i8**  %1370, align 8, !tbaa !6534, !dbg !6420
	%1371 = load i32, i32* %i.addr, align 4, !tbaa !6536, !dbg !6420
	%1372 = sub i32  %1371, 1, !dbg !6420
	store i32  %1372, i32* %..inline.addr.930, align 4, !tbaa !6536, !dbg !6420
	%1373 = load i32, i32* %j.addr, align 4, !tbaa !6536, !dbg !6420
	store i32  %1373, i32* %..inline.addr.940, align 4, !tbaa !6536, !dbg !6420
	%1374 = load i32, i32* %k.addr, align 4, !tbaa !6536, !dbg !6420
	store i32  %1374, i32* %..inline.addr.950, align 4, !tbaa !6536, !dbg !6420
	store i32 13, i32* %..inline.addr.960, align 4, !tbaa !6536, !dbg !6420
	%1375 = bitcast [3 x i32]* %..inline.addr.970 to i32*, !dbg !6380
	store i32 0, i32*  %1375, align 4, !tbaa !6533, !dbg !6380
	%1376 = bitcast [3 x i32]* %..inline.addr.970 to i8*, !dbg !6381
	%1377 = getelementptr i8, i8*  %1376, i64 4, !dbg !6381
	%1378 = bitcast i8*  %1377 to i32*, !dbg !6381
	store i32 0, i32*  %1378, align 4, !tbaa !6533, !dbg !6381
	%1379 = getelementptr i8, i8*  %1376, i64 8, !dbg !6381
	%1380 = bitcast i8*  %1379 to i32*, !dbg !6381
	store i32 0, i32*  %1380, align 4, !tbaa !6533, !dbg !6381
	%1381 = icmp sge i32  %1372, 0, !dbg !6381
	br i1  %1381, label %L..inline.79020, label %L.B1963, !dbg !6381
L.B1963:
	store i32 4, i32* %..inline.addr.960, align 4, !tbaa !6536, !dbg !6382
	%1382 = bitcast [3 x i32]* %..inline.addr.970 to i32*, !dbg !6383
	store i32 1, i32*  %1382, align 4, !tbaa !6533, !dbg !6383
	br label %L..inline.79020
L..inline.79020:
	%1383 = load i32, i32* %..inline.addr.930, align 4, !tbaa !6536, !dbg !6384
	%1384 = load %struct._Z6FsGridISt5arrayIdLm8EELi2EE*, %struct._Z6FsGridISt5arrayIdLm8EELi2EE** %..inline.addr.920, align 8, !tbaa !6534, !dbg !6384
	%1385 = bitcast %struct._Z6FsGridISt5arrayIdLm8EELi2EE*  %1384 to i8*, !dbg !6384
	%1386 = getelementptr i8, i8*  %1385, i64 264, !dbg !6384
	%1387 = bitcast i8*  %1386 to i32*, !dbg !6384
	%1388 = load i32, i32*  %1387, align 4, !tbaa !6533, !dbg !6384
	%1389 = icmp slt i32  %1383,  %1388, !dbg !6384
	br i1  %1389, label %L..inline.79038, label %L.B1964, !dbg !6384
L.B1964:
	%1390 = load i32, i32* %..inline.addr.960, align 4, !tbaa !6536, !dbg !6384
	%1391 = add i32  %1390, 9, !dbg !6384
	store i32  %1391, i32* %..inline.addr.960, align 4, !tbaa !6536, !dbg !6384
	%1392 = bitcast [3 x i32]* %..inline.addr.970 to i32*, !dbg !6385
	store i32 -1, i32*  %1392, align 4, !tbaa !6533, !dbg !6385
	br label %L..inline.79038
L..inline.79038:
	%1393 = load i32, i32* %..inline.addr.940, align 4, !tbaa !6536, !dbg !6386
	%1394 = icmp sge i32  %1393, 0, !dbg !6386
	br i1  %1394, label %L..inline.79040, label %L.B1965, !dbg !6386
L.B1965:
	%1395 = load i32, i32* %..inline.addr.960, align 4, !tbaa !6536, !dbg !6386
	%1396 = sub i32  %1395, 3, !dbg !6386
	store i32  %1396, i32* %..inline.addr.960, align 4, !tbaa !6536, !dbg !6386
	%1397 = bitcast [3 x i32]* %..inline.addr.970 to i8*, !dbg !6387
	%1398 = getelementptr i8, i8*  %1397, i64 4, !dbg !6387
	%1399 = bitcast i8*  %1398 to i32*, !dbg !6387
	store i32 1, i32*  %1399, align 4, !tbaa !6533, !dbg !6387
	br label %L..inline.79040
L..inline.79040:
	%1400 = load i32, i32* %..inline.addr.940, align 4, !tbaa !6536, !dbg !6388
	%1401 = load %struct._Z6FsGridISt5arrayIdLm8EELi2EE*, %struct._Z6FsGridISt5arrayIdLm8EELi2EE** %..inline.addr.920, align 8, !tbaa !6534, !dbg !6388
	%1402 = bitcast %struct._Z6FsGridISt5arrayIdLm8EELi2EE*  %1401 to i8*, !dbg !6388
	%1403 = getelementptr i8, i8*  %1402, i64 268, !dbg !6388
	%1404 = bitcast i8*  %1403 to i32*, !dbg !6388
	%1405 = load i32, i32*  %1404, align 4, !tbaa !6533, !dbg !6388
	%1406 = icmp slt i32  %1400,  %1405, !dbg !6388
	br i1  %1406, label %L..inline.79057, label %L.B1966, !dbg !6388
L.B1966:
	%1407 = load i32, i32* %..inline.addr.960, align 4, !tbaa !6536, !dbg !6388
	%1408 = add i32  %1407, 3, !dbg !6388
	store i32  %1408, i32* %..inline.addr.960, align 4, !tbaa !6536, !dbg !6388
	%1409 = bitcast [3 x i32]* %..inline.addr.970 to i8*, !dbg !6389
	%1410 = getelementptr i8, i8*  %1409, i64 4, !dbg !6389
	%1411 = bitcast i8*  %1410 to i32*, !dbg !6389
	store i32 -1, i32*  %1411, align 4, !tbaa !6533, !dbg !6389
	br label %L..inline.79057
L..inline.79057:
	%1412 = load i32, i32* %..inline.addr.950, align 4, !tbaa !6536, !dbg !6390
	%1413 = icmp sge i32  %1412, 0, !dbg !6390
	br i1  %1413, label %L..inline.79059, label %L.B1967, !dbg !6390
L.B1967:
	%1414 = load i32, i32* %..inline.addr.960, align 4, !tbaa !6536, !dbg !6390
	%1415 = sub i32  %1414, 1, !dbg !6390
	store i32  %1415, i32* %..inline.addr.960, align 4, !tbaa !6536, !dbg !6390
	%1416 = bitcast [3 x i32]* %..inline.addr.970 to i8*, !dbg !6391
	%1417 = getelementptr i8, i8*  %1416, i64 8, !dbg !6391
	%1418 = bitcast i8*  %1417 to i32*, !dbg !6391
	store i32 1, i32*  %1418, align 4, !tbaa !6533, !dbg !6391
	br label %L..inline.79059
L..inline.79059:
	%1419 = load i32, i32* %..inline.addr.950, align 4, !tbaa !6536, !dbg !6392
	%1420 = load %struct._Z6FsGridISt5arrayIdLm8EELi2EE*, %struct._Z6FsGridISt5arrayIdLm8EELi2EE** %..inline.addr.920, align 8, !tbaa !6534, !dbg !6392
	%1421 = bitcast %struct._Z6FsGridISt5arrayIdLm8EELi2EE*  %1420 to i8*, !dbg !6392
	%1422 = getelementptr i8, i8*  %1421, i64 272, !dbg !6392
	%1423 = bitcast i8*  %1422 to i32*, !dbg !6392
	%1424 = load i32, i32*  %1423, align 4, !tbaa !6533, !dbg !6392
	%1425 = icmp slt i32  %1419,  %1424, !dbg !6392
	br i1  %1425, label %L..inline.79076, label %L.B1968, !dbg !6392
L.B1968:
	%1426 = load i32, i32* %..inline.addr.960, align 4, !tbaa !6536, !dbg !6392
	%1427 = add i32  %1426, 1, !dbg !6392
	store i32  %1427, i32* %..inline.addr.960, align 4, !tbaa !6536, !dbg !6392
	%1428 = bitcast [3 x i32]* %..inline.addr.970 to i8*, !dbg !6393
	%1429 = getelementptr i8, i8*  %1428, i64 8, !dbg !6393
	%1430 = bitcast i8*  %1429 to i32*, !dbg !6393
	store i32 -1, i32*  %1430, align 4, !tbaa !6533, !dbg !6393
	br label %L..inline.79076
L..inline.79076:
	%1431 = load i32, i32* %..inline.addr.960, align 4, !tbaa !6536, !dbg !6394
	%1432 = icmp eq i32  %1431, 13, !dbg !6394
	br i1  %1432, label %L..inline.79077, label %L.B1969, !dbg !6394
L.B1969:
	%1433 = sext i32  %1431 to i64, !dbg !6395
	%1434 = load %struct._Z6FsGridISt5arrayIdLm8EELi2EE*, %struct._Z6FsGridISt5arrayIdLm8EELi2EE** %..inline.addr.920, align 8, !tbaa !6534, !dbg !6395
	%1435 = bitcast %struct._Z6FsGridISt5arrayIdLm8EELi2EE*  %1434 to i8*, !dbg !6395
	%1436 = getelementptr i8, i8*  %1435, i64 92, !dbg !6395
	%1437 = bitcast i8*  %1436 to i32*, !dbg !6395
	%1438 = getelementptr i32, i32*  %1437, i64  %1433, !dbg !6395
	%1439 = load i32, i32*  %1438, align 4, !tbaa !6533, !dbg !6395
	%1440 = icmp ne i32  %1439, -2, !dbg !6395
	br i1  %1440, label %L..inline.79094, label %L.B1970, !dbg !6395
L.B1970:
	%1441 = bitcast %struct._ZSt5arrayIdLm8EE** %..inline.addr.980 to i8**, !dbg !6395
	store i8* null, i8**  %1441, align 8, !tbaa !6534, !dbg !6395
	br label %L..inline.79281, !dbg !6396
L..inline.79094:
	%1442 = load i32, i32* %..inline.addr.960, align 4, !tbaa !6536, !dbg !6397
	%1443 = sext i32  %1442 to i64, !dbg !6397
	%1444 = load %struct._Z6FsGridISt5arrayIdLm8EELi2EE*, %struct._Z6FsGridISt5arrayIdLm8EELi2EE** %..inline.addr.920, align 8, !tbaa !6534, !dbg !6397
	%1445 = bitcast %struct._Z6FsGridISt5arrayIdLm8EELi2EE*  %1444 to i8*, !dbg !6397
	%1446 = getelementptr i8, i8*  %1445, i64 92, !dbg !6397
	%1447 = bitcast i8*  %1446 to i32*, !dbg !6397
	%1448 = getelementptr i32, i32*  %1447, i64  %1443, !dbg !6397
	%1449 = load i32, i32*  %1448, align 4, !tbaa !6533, !dbg !6397
	%1450 = getelementptr i8, i8*  %1445, i64 56, !dbg !6397
	%1451 = bitcast i8*  %1450 to i32*, !dbg !6397
	%1452 = load i32, i32*  %1451, align 4, !tbaa !6533, !dbg !6397
	%1453 = icmp ne i32  %1449,  %1452, !dbg !6397
	br i1  %1453, label %L..inline.79112, label %L.B1971, !dbg !6397
L.B1971:
	%1454 = load i32, i32* %..inline.addr.930, align 4, !tbaa !6536, !dbg !6398
	%1455 = bitcast [3 x i32]* %..inline.addr.970 to i32*, !dbg !6398
	%1456 = load i32, i32*  %1455, align 4, !tbaa !6533, !dbg !6398
	%1457 = bitcast %struct._Z6FsGridISt5arrayIdLm8EELi2EE*  %1444 to i8*, !dbg !6398
	%1458 = getelementptr i8, i8*  %1457, i64 264, !dbg !6398
	%1459 = bitcast i8*  %1458 to i32*, !dbg !6398
	%1460 = load i32, i32*  %1459, align 4, !tbaa !6533, !dbg !6398
	%1461 = mul i32  %1456,  %1460, !dbg !6398
	%1462 = add i32  %1454,  %1461, !dbg !6398
	store i32  %1462, i32* %..inline.addr.930, align 4, !tbaa !6536, !dbg !6398
	%1463 = load i32, i32* %..inline.addr.940, align 4, !tbaa !6536, !dbg !6399
	%1464 = bitcast [3 x i32]* %..inline.addr.970 to i8*, !dbg !6399
	%1465 = getelementptr i8, i8*  %1464, i64 4, !dbg !6399
	%1466 = bitcast i8*  %1465 to i32*, !dbg !6399
	%1467 = load i32, i32*  %1466, align 4, !tbaa !6533, !dbg !6399
	%1468 = getelementptr i8, i8*  %1457, i64 268, !dbg !6399
	%1469 = bitcast i8*  %1468 to i32*, !dbg !6399
	%1470 = load i32, i32*  %1469, align 4, !tbaa !6533, !dbg !6399
	%1471 = mul i32  %1467,  %1470, !dbg !6399
	%1472 = add i32  %1463,  %1471, !dbg !6399
	store i32  %1472, i32* %..inline.addr.940, align 4, !tbaa !6536, !dbg !6399
	%1473 = load i32, i32* %..inline.addr.950, align 4, !tbaa !6536, !dbg !6400
	%1474 = getelementptr i8, i8*  %1464, i64 8, !dbg !6400
	%1475 = bitcast i8*  %1474 to i32*, !dbg !6400
	%1476 = load i32, i32*  %1475, align 4, !tbaa !6533, !dbg !6400
	%1477 = getelementptr i8, i8*  %1457, i64 272, !dbg !6400
	%1478 = bitcast i8*  %1477 to i32*, !dbg !6400
	%1479 = load i32, i32*  %1478, align 4, !tbaa !6533, !dbg !6400
	%1480 = mul i32  %1476,  %1479, !dbg !6400
	%1481 = add i32  %1473,  %1480, !dbg !6400
	store i32  %1481, i32* %..inline.addr.950, align 4, !tbaa !6536, !dbg !6400
	br label %L..inline.79112
L..inline.79112:
	br label %L..inline.79077
L..inline.79077:
	store i64 0, i64* %..inline.addr.990, align 8, !tbaa !6538, !dbg !6401
	%1482 = load %struct._Z6FsGridISt5arrayIdLm8EELi2EE*, %struct._Z6FsGridISt5arrayIdLm8EELi2EE** %..inline.addr.920, align 8, !tbaa !6534, !dbg !6401
	%1483 = bitcast %struct._Z6FsGridISt5arrayIdLm8EELi2EE*  %1482 to i8*, !dbg !6401
	%1484 = getelementptr i8, i8*  %1483, i64 260, !dbg !6401
	%1485 = bitcast i8*  %1484 to i32*, !dbg !6401
	%1486 = load i32, i32*  %1485, align 4, !tbaa !6533, !dbg !6401
	%1487 = icmp sle i32  %1486, 1, !dbg !6401
	br i1  %1487, label %L..inline.79186, label %L.B1972, !dbg !6401
L.B1972:
	%1488 = load i32, i32* %..inline.addr.950, align 4, !tbaa !6536, !dbg !6401
	%1489 = add i32  %1488, 2, !dbg !6401
	%1490 = bitcast %struct._Z6FsGridISt5arrayIdLm8EELi2EE*  %1482 to i8*, !dbg !6401
	%1491 = getelementptr i8, i8*  %1490, i64 280, !dbg !6401
	%1492 = bitcast i8*  %1491 to i32*, !dbg !6401
	%1493 = load i32, i32*  %1492, align 4, !tbaa !6533, !dbg !6401
	%1494 = getelementptr i8, i8*  %1490, i64 276, !dbg !6401
	%1495 = bitcast i8*  %1494 to i32*, !dbg !6401
	%1496 = load i32, i32*  %1495, align 4, !tbaa !6533, !dbg !6401
	%1497 = mul i32  %1493,  %1496, !dbg !6401
	%1498 = mul i32  %1489,  %1497, !dbg !6401
	%1499 = sext i32  %1498 to i64, !dbg !6401
	store i64  %1499, i64* %..inline.addr.990, align 8, !tbaa !6538, !dbg !6401
	br label %L..inline.79186
L..inline.79186:
	%1500 = load %struct._Z6FsGridISt5arrayIdLm8EELi2EE*, %struct._Z6FsGridISt5arrayIdLm8EELi2EE** %..inline.addr.920, align 8, !tbaa !6534, !dbg !6401
	%1501 = bitcast %struct._Z6FsGridISt5arrayIdLm8EELi2EE*  %1500 to i8*, !dbg !6401
	%1502 = getelementptr i8, i8*  %1501, i64 256, !dbg !6401
	%1503 = bitcast i8*  %1502 to i32*, !dbg !6401
	%1504 = load i32, i32*  %1503, align 4, !tbaa !6533, !dbg !6401
	%1505 = icmp sle i32  %1504, 1, !dbg !6401
	br i1  %1505, label %L..inline.79235, label %L.B1973, !dbg !6401
L.B1973:
	%1506 = load i64, i64* %..inline.addr.990, align 8, !tbaa !6538, !dbg !6401
	%1507 = bitcast %struct._Z6FsGridISt5arrayIdLm8EELi2EE*  %1500 to i8*, !dbg !6401
	%1508 = getelementptr i8, i8*  %1507, i64 276, !dbg !6401
	%1509 = bitcast i8*  %1508 to i32*, !dbg !6401
	%1510 = load i32, i32*  %1509, align 4, !tbaa !6533, !dbg !6401
	%1511 = load i32, i32* %..inline.addr.940, align 4, !tbaa !6536, !dbg !6401
	%1512 = add i32  %1511, 2, !dbg !6401
	%1513 = mul i32  %1510,  %1512, !dbg !6401
	%1514 = sext i32  %1513 to i64, !dbg !6401
	%1515 = add i64  %1506,  %1514, !dbg !6401
	store i64  %1515, i64* %..inline.addr.990, align 8, !tbaa !6538, !dbg !6401
	br label %L..inline.79235
L..inline.79235:
	%1516 = load %struct._Z6FsGridISt5arrayIdLm8EELi2EE*, %struct._Z6FsGridISt5arrayIdLm8EELi2EE** %..inline.addr.920, align 8, !tbaa !6534, !dbg !6401
	%1517 = bitcast %struct._Z6FsGridISt5arrayIdLm8EELi2EE*  %1516 to i8*, !dbg !6401
	%1518 = getelementptr i8, i8*  %1517, i64 252, !dbg !6401
	%1519 = bitcast i8*  %1518 to i32*, !dbg !6401
	%1520 = load i32, i32*  %1519, align 4, !tbaa !6533, !dbg !6401
	%1521 = icmp sle i32  %1520, 1, !dbg !6401
	%1522 = zext i1  %1521 to i32, !dbg !6401
	%1523 = trunc i32  %1522 to i1, !dbg !6401
	%1524 = load i64, i64* %..inline.addr.990, align 8, !tbaa !6538, !dbg !6401
	%1525 = load i32, i32* %..inline.addr.930, align 4, !tbaa !6536, !dbg !6401
	%1526 = sext i32  %1525 to i64, !dbg !6401
	%1527 = add i64  %1526, 2, !dbg !6401
	%1528 = add i64  %1524,  %1527, !dbg !6401
	%1529 = select i1  %1523, i64  %1524, i64  %1528, !dbg !6401
	%1530 = getelementptr i8, i8*  %1517, i64 744, !dbg !6402
	%1531 = bitcast i8*  %1530 to i8**, !dbg !6402
	%1532 = load i8*, i8**  %1531, align 8, !tbaa !6534, !dbg !6402
	%1533 = mul i64  %1529, 64, !dbg !6402
	%1534 = getelementptr i8, i8*  %1532, i64  %1533, !dbg !6402
	%1535 = bitcast %struct._ZSt5arrayIdLm8EE** %..inline.addr.980 to i8**, !dbg !6402
	store i8*  %1534, i8**  %1535, align 8, !tbaa !6534, !dbg !6402
	br label %L..inline.79281
L..inline.79281:
	%1536 = load %struct._ZSt5arrayIdLm8EE*, %struct._ZSt5arrayIdLm8EE** %..inline.addr.980, align 8, !tbaa !6534, !dbg !6403
	%1537 = bitcast %struct._ZSt5arrayIdLm8EE*  %1536 to i8*, !dbg !6403
	call void @llvm.dbg.declare (metadata %struct._ZSt5arrayIdLm8EE** %leftMoments.addr, metadata !6421, metadata !6359), !dbg !4309
	%1538 = bitcast %struct._ZSt5arrayIdLm8EE** %leftMoments.addr to i8**, !dbg !6403
	store i8*  %1537, i8**  %1538, align 8, !tbaa !6534, !dbg !6403
	%1539 = load %struct._Z6FsGridISt5arrayIdLm8EELi2EE*, %struct._Z6FsGridISt5arrayIdLm8EELi2EE** %momentsGrid.addr, align 8, !tbaa !6534, !dbg !6422
	%1540 = bitcast %struct._Z6FsGridISt5arrayIdLm8EELi2EE*  %1539 to i8*, !dbg !6422
	%1541 = bitcast %struct._Z6FsGridISt5arrayIdLm8EELi2EE** %..inline.addr.1010 to i8**, !dbg !6422
	store i8*  %1540, i8**  %1541, align 8, !tbaa !6534, !dbg !6422
	%1542 = load i32, i32* %i.addr, align 4, !tbaa !6536, !dbg !6422
	%1543 = add i32  %1542, 1, !dbg !6422
	store i32  %1543, i32* %..inline.addr.1020, align 4, !tbaa !6536, !dbg !6422
	%1544 = load i32, i32* %j.addr, align 4, !tbaa !6536, !dbg !6422
	store i32  %1544, i32* %..inline.addr.1030, align 4, !tbaa !6536, !dbg !6422
	%1545 = load i32, i32* %k.addr, align 4, !tbaa !6536, !dbg !6422
	store i32  %1545, i32* %..inline.addr.1040, align 4, !tbaa !6536, !dbg !6422
	store i32 13, i32* %..inline.addr.1050, align 4, !tbaa !6536, !dbg !6422
	%1546 = bitcast [3 x i32]* %..inline.addr.1060 to i32*, !dbg !6380
	store i32 0, i32*  %1546, align 4, !tbaa !6533, !dbg !6380
	%1547 = bitcast [3 x i32]* %..inline.addr.1060 to i8*, !dbg !6381
	%1548 = getelementptr i8, i8*  %1547, i64 4, !dbg !6381
	%1549 = bitcast i8*  %1548 to i32*, !dbg !6381
	store i32 0, i32*  %1549, align 4, !tbaa !6533, !dbg !6381
	%1550 = getelementptr i8, i8*  %1547, i64 8, !dbg !6381
	%1551 = bitcast i8*  %1550 to i32*, !dbg !6381
	store i32 0, i32*  %1551, align 4, !tbaa !6533, !dbg !6381
	%1552 = icmp sge i32  %1543, 0, !dbg !6381
	br i1  %1552, label %L..inline.79287, label %L.B1974, !dbg !6381
L.B1974:
	store i32 4, i32* %..inline.addr.1050, align 4, !tbaa !6536, !dbg !6382
	%1553 = bitcast [3 x i32]* %..inline.addr.1060 to i32*, !dbg !6383
	store i32 1, i32*  %1553, align 4, !tbaa !6533, !dbg !6383
	br label %L..inline.79287
L..inline.79287:
	%1554 = load i32, i32* %..inline.addr.1020, align 4, !tbaa !6536, !dbg !6384
	%1555 = load %struct._Z6FsGridISt5arrayIdLm8EELi2EE*, %struct._Z6FsGridISt5arrayIdLm8EELi2EE** %..inline.addr.1010, align 8, !tbaa !6534, !dbg !6384
	%1556 = bitcast %struct._Z6FsGridISt5arrayIdLm8EELi2EE*  %1555 to i8*, !dbg !6384
	%1557 = getelementptr i8, i8*  %1556, i64 264, !dbg !6384
	%1558 = bitcast i8*  %1557 to i32*, !dbg !6384
	%1559 = load i32, i32*  %1558, align 4, !tbaa !6533, !dbg !6384
	%1560 = icmp slt i32  %1554,  %1559, !dbg !6384
	br i1  %1560, label %L..inline.79305, label %L.B1975, !dbg !6384
L.B1975:
	%1561 = load i32, i32* %..inline.addr.1050, align 4, !tbaa !6536, !dbg !6384
	%1562 = add i32  %1561, 9, !dbg !6384
	store i32  %1562, i32* %..inline.addr.1050, align 4, !tbaa !6536, !dbg !6384
	%1563 = bitcast [3 x i32]* %..inline.addr.1060 to i32*, !dbg !6385
	store i32 -1, i32*  %1563, align 4, !tbaa !6533, !dbg !6385
	br label %L..inline.79305
L..inline.79305:
	%1564 = load i32, i32* %..inline.addr.1030, align 4, !tbaa !6536, !dbg !6386
	%1565 = icmp sge i32  %1564, 0, !dbg !6386
	br i1  %1565, label %L..inline.79307, label %L.B1976, !dbg !6386
L.B1976:
	%1566 = load i32, i32* %..inline.addr.1050, align 4, !tbaa !6536, !dbg !6386
	%1567 = sub i32  %1566, 3, !dbg !6386
	store i32  %1567, i32* %..inline.addr.1050, align 4, !tbaa !6536, !dbg !6386
	%1568 = bitcast [3 x i32]* %..inline.addr.1060 to i8*, !dbg !6387
	%1569 = getelementptr i8, i8*  %1568, i64 4, !dbg !6387
	%1570 = bitcast i8*  %1569 to i32*, !dbg !6387
	store i32 1, i32*  %1570, align 4, !tbaa !6533, !dbg !6387
	br label %L..inline.79307
L..inline.79307:
	%1571 = load i32, i32* %..inline.addr.1030, align 4, !tbaa !6536, !dbg !6388
	%1572 = load %struct._Z6FsGridISt5arrayIdLm8EELi2EE*, %struct._Z6FsGridISt5arrayIdLm8EELi2EE** %..inline.addr.1010, align 8, !tbaa !6534, !dbg !6388
	%1573 = bitcast %struct._Z6FsGridISt5arrayIdLm8EELi2EE*  %1572 to i8*, !dbg !6388
	%1574 = getelementptr i8, i8*  %1573, i64 268, !dbg !6388
	%1575 = bitcast i8*  %1574 to i32*, !dbg !6388
	%1576 = load i32, i32*  %1575, align 4, !tbaa !6533, !dbg !6388
	%1577 = icmp slt i32  %1571,  %1576, !dbg !6388
	br i1  %1577, label %L..inline.79324, label %L.B1977, !dbg !6388
L.B1977:
	%1578 = load i32, i32* %..inline.addr.1050, align 4, !tbaa !6536, !dbg !6388
	%1579 = add i32  %1578, 3, !dbg !6388
	store i32  %1579, i32* %..inline.addr.1050, align 4, !tbaa !6536, !dbg !6388
	%1580 = bitcast [3 x i32]* %..inline.addr.1060 to i8*, !dbg !6389
	%1581 = getelementptr i8, i8*  %1580, i64 4, !dbg !6389
	%1582 = bitcast i8*  %1581 to i32*, !dbg !6389
	store i32 -1, i32*  %1582, align 4, !tbaa !6533, !dbg !6389
	br label %L..inline.79324
L..inline.79324:
	%1583 = load i32, i32* %..inline.addr.1040, align 4, !tbaa !6536, !dbg !6390
	%1584 = icmp sge i32  %1583, 0, !dbg !6390
	br i1  %1584, label %L..inline.79326, label %L.B1978, !dbg !6390
L.B1978:
	%1585 = load i32, i32* %..inline.addr.1050, align 4, !tbaa !6536, !dbg !6390
	%1586 = sub i32  %1585, 1, !dbg !6390
	store i32  %1586, i32* %..inline.addr.1050, align 4, !tbaa !6536, !dbg !6390
	%1587 = bitcast [3 x i32]* %..inline.addr.1060 to i8*, !dbg !6391
	%1588 = getelementptr i8, i8*  %1587, i64 8, !dbg !6391
	%1589 = bitcast i8*  %1588 to i32*, !dbg !6391
	store i32 1, i32*  %1589, align 4, !tbaa !6533, !dbg !6391
	br label %L..inline.79326
L..inline.79326:
	%1590 = load i32, i32* %..inline.addr.1040, align 4, !tbaa !6536, !dbg !6392
	%1591 = load %struct._Z6FsGridISt5arrayIdLm8EELi2EE*, %struct._Z6FsGridISt5arrayIdLm8EELi2EE** %..inline.addr.1010, align 8, !tbaa !6534, !dbg !6392
	%1592 = bitcast %struct._Z6FsGridISt5arrayIdLm8EELi2EE*  %1591 to i8*, !dbg !6392
	%1593 = getelementptr i8, i8*  %1592, i64 272, !dbg !6392
	%1594 = bitcast i8*  %1593 to i32*, !dbg !6392
	%1595 = load i32, i32*  %1594, align 4, !tbaa !6533, !dbg !6392
	%1596 = icmp slt i32  %1590,  %1595, !dbg !6392
	br i1  %1596, label %L..inline.79343, label %L.B1979, !dbg !6392
L.B1979:
	%1597 = load i32, i32* %..inline.addr.1050, align 4, !tbaa !6536, !dbg !6392
	%1598 = add i32  %1597, 1, !dbg !6392
	store i32  %1598, i32* %..inline.addr.1050, align 4, !tbaa !6536, !dbg !6392
	%1599 = bitcast [3 x i32]* %..inline.addr.1060 to i8*, !dbg !6393
	%1600 = getelementptr i8, i8*  %1599, i64 8, !dbg !6393
	%1601 = bitcast i8*  %1600 to i32*, !dbg !6393
	store i32 -1, i32*  %1601, align 4, !tbaa !6533, !dbg !6393
	br label %L..inline.79343
L..inline.79343:
	%1602 = load i32, i32* %..inline.addr.1050, align 4, !tbaa !6536, !dbg !6394
	%1603 = icmp eq i32  %1602, 13, !dbg !6394
	br i1  %1603, label %L..inline.79344, label %L.B1980, !dbg !6394
L.B1980:
	%1604 = sext i32  %1602 to i64, !dbg !6395
	%1605 = load %struct._Z6FsGridISt5arrayIdLm8EELi2EE*, %struct._Z6FsGridISt5arrayIdLm8EELi2EE** %..inline.addr.1010, align 8, !tbaa !6534, !dbg !6395
	%1606 = bitcast %struct._Z6FsGridISt5arrayIdLm8EELi2EE*  %1605 to i8*, !dbg !6395
	%1607 = getelementptr i8, i8*  %1606, i64 92, !dbg !6395
	%1608 = bitcast i8*  %1607 to i32*, !dbg !6395
	%1609 = getelementptr i32, i32*  %1608, i64  %1604, !dbg !6395
	%1610 = load i32, i32*  %1609, align 4, !tbaa !6533, !dbg !6395
	%1611 = icmp ne i32  %1610, -2, !dbg !6395
	br i1  %1611, label %L..inline.79361, label %L.B1981, !dbg !6395
L.B1981:
	%1612 = bitcast %struct._ZSt5arrayIdLm8EE** %..inline.addr.1070 to i8**, !dbg !6395
	store i8* null, i8**  %1612, align 8, !tbaa !6534, !dbg !6395
	br label %L..inline.79548, !dbg !6396
L..inline.79361:
	%1613 = load i32, i32* %..inline.addr.1050, align 4, !tbaa !6536, !dbg !6397
	%1614 = sext i32  %1613 to i64, !dbg !6397
	%1615 = load %struct._Z6FsGridISt5arrayIdLm8EELi2EE*, %struct._Z6FsGridISt5arrayIdLm8EELi2EE** %..inline.addr.1010, align 8, !tbaa !6534, !dbg !6397
	%1616 = bitcast %struct._Z6FsGridISt5arrayIdLm8EELi2EE*  %1615 to i8*, !dbg !6397
	%1617 = getelementptr i8, i8*  %1616, i64 92, !dbg !6397
	%1618 = bitcast i8*  %1617 to i32*, !dbg !6397
	%1619 = getelementptr i32, i32*  %1618, i64  %1614, !dbg !6397
	%1620 = load i32, i32*  %1619, align 4, !tbaa !6533, !dbg !6397
	%1621 = getelementptr i8, i8*  %1616, i64 56, !dbg !6397
	%1622 = bitcast i8*  %1621 to i32*, !dbg !6397
	%1623 = load i32, i32*  %1622, align 4, !tbaa !6533, !dbg !6397
	%1624 = icmp ne i32  %1620,  %1623, !dbg !6397
	br i1  %1624, label %L..inline.79379, label %L.B1982, !dbg !6397
L.B1982:
	%1625 = load i32, i32* %..inline.addr.1020, align 4, !tbaa !6536, !dbg !6398
	%1626 = bitcast [3 x i32]* %..inline.addr.1060 to i32*, !dbg !6398
	%1627 = load i32, i32*  %1626, align 4, !tbaa !6533, !dbg !6398
	%1628 = bitcast %struct._Z6FsGridISt5arrayIdLm8EELi2EE*  %1615 to i8*, !dbg !6398
	%1629 = getelementptr i8, i8*  %1628, i64 264, !dbg !6398
	%1630 = bitcast i8*  %1629 to i32*, !dbg !6398
	%1631 = load i32, i32*  %1630, align 4, !tbaa !6533, !dbg !6398
	%1632 = mul i32  %1627,  %1631, !dbg !6398
	%1633 = add i32  %1625,  %1632, !dbg !6398
	store i32  %1633, i32* %..inline.addr.1020, align 4, !tbaa !6536, !dbg !6398
	%1634 = load i32, i32* %..inline.addr.1030, align 4, !tbaa !6536, !dbg !6399
	%1635 = bitcast [3 x i32]* %..inline.addr.1060 to i8*, !dbg !6399
	%1636 = getelementptr i8, i8*  %1635, i64 4, !dbg !6399
	%1637 = bitcast i8*  %1636 to i32*, !dbg !6399
	%1638 = load i32, i32*  %1637, align 4, !tbaa !6533, !dbg !6399
	%1639 = getelementptr i8, i8*  %1628, i64 268, !dbg !6399
	%1640 = bitcast i8*  %1639 to i32*, !dbg !6399
	%1641 = load i32, i32*  %1640, align 4, !tbaa !6533, !dbg !6399
	%1642 = mul i32  %1638,  %1641, !dbg !6399
	%1643 = add i32  %1634,  %1642, !dbg !6399
	store i32  %1643, i32* %..inline.addr.1030, align 4, !tbaa !6536, !dbg !6399
	%1644 = load i32, i32* %..inline.addr.1040, align 4, !tbaa !6536, !dbg !6400
	%1645 = getelementptr i8, i8*  %1635, i64 8, !dbg !6400
	%1646 = bitcast i8*  %1645 to i32*, !dbg !6400
	%1647 = load i32, i32*  %1646, align 4, !tbaa !6533, !dbg !6400
	%1648 = getelementptr i8, i8*  %1628, i64 272, !dbg !6400
	%1649 = bitcast i8*  %1648 to i32*, !dbg !6400
	%1650 = load i32, i32*  %1649, align 4, !tbaa !6533, !dbg !6400
	%1651 = mul i32  %1647,  %1650, !dbg !6400
	%1652 = add i32  %1644,  %1651, !dbg !6400
	store i32  %1652, i32* %..inline.addr.1040, align 4, !tbaa !6536, !dbg !6400
	br label %L..inline.79379
L..inline.79379:
	br label %L..inline.79344
L..inline.79344:
	store i64 0, i64* %..inline.addr.1080, align 8, !tbaa !6538, !dbg !6401
	%1653 = load %struct._Z6FsGridISt5arrayIdLm8EELi2EE*, %struct._Z6FsGridISt5arrayIdLm8EELi2EE** %..inline.addr.1010, align 8, !tbaa !6534, !dbg !6401
	%1654 = bitcast %struct._Z6FsGridISt5arrayIdLm8EELi2EE*  %1653 to i8*, !dbg !6401
	%1655 = getelementptr i8, i8*  %1654, i64 260, !dbg !6401
	%1656 = bitcast i8*  %1655 to i32*, !dbg !6401
	%1657 = load i32, i32*  %1656, align 4, !tbaa !6533, !dbg !6401
	%1658 = icmp sle i32  %1657, 1, !dbg !6401
	br i1  %1658, label %L..inline.79453, label %L.B1983, !dbg !6401
L.B1983:
	%1659 = load i32, i32* %..inline.addr.1040, align 4, !tbaa !6536, !dbg !6401
	%1660 = add i32  %1659, 2, !dbg !6401
	%1661 = bitcast %struct._Z6FsGridISt5arrayIdLm8EELi2EE*  %1653 to i8*, !dbg !6401
	%1662 = getelementptr i8, i8*  %1661, i64 280, !dbg !6401
	%1663 = bitcast i8*  %1662 to i32*, !dbg !6401
	%1664 = load i32, i32*  %1663, align 4, !tbaa !6533, !dbg !6401
	%1665 = getelementptr i8, i8*  %1661, i64 276, !dbg !6401
	%1666 = bitcast i8*  %1665 to i32*, !dbg !6401
	%1667 = load i32, i32*  %1666, align 4, !tbaa !6533, !dbg !6401
	%1668 = mul i32  %1664,  %1667, !dbg !6401
	%1669 = mul i32  %1660,  %1668, !dbg !6401
	%1670 = sext i32  %1669 to i64, !dbg !6401
	store i64  %1670, i64* %..inline.addr.1080, align 8, !tbaa !6538, !dbg !6401
	br label %L..inline.79453
L..inline.79453:
	%1671 = load %struct._Z6FsGridISt5arrayIdLm8EELi2EE*, %struct._Z6FsGridISt5arrayIdLm8EELi2EE** %..inline.addr.1010, align 8, !tbaa !6534, !dbg !6401
	%1672 = bitcast %struct._Z6FsGridISt5arrayIdLm8EELi2EE*  %1671 to i8*, !dbg !6401
	%1673 = getelementptr i8, i8*  %1672, i64 256, !dbg !6401
	%1674 = bitcast i8*  %1673 to i32*, !dbg !6401
	%1675 = load i32, i32*  %1674, align 4, !tbaa !6533, !dbg !6401
	%1676 = icmp sle i32  %1675, 1, !dbg !6401
	br i1  %1676, label %L..inline.79502, label %L.B1984, !dbg !6401
L.B1984:
	%1677 = load i64, i64* %..inline.addr.1080, align 8, !tbaa !6538, !dbg !6401
	%1678 = bitcast %struct._Z6FsGridISt5arrayIdLm8EELi2EE*  %1671 to i8*, !dbg !6401
	%1679 = getelementptr i8, i8*  %1678, i64 276, !dbg !6401
	%1680 = bitcast i8*  %1679 to i32*, !dbg !6401
	%1681 = load i32, i32*  %1680, align 4, !tbaa !6533, !dbg !6401
	%1682 = load i32, i32* %..inline.addr.1030, align 4, !tbaa !6536, !dbg !6401
	%1683 = add i32  %1682, 2, !dbg !6401
	%1684 = mul i32  %1681,  %1683, !dbg !6401
	%1685 = sext i32  %1684 to i64, !dbg !6401
	%1686 = add i64  %1677,  %1685, !dbg !6401
	store i64  %1686, i64* %..inline.addr.1080, align 8, !tbaa !6538, !dbg !6401
	br label %L..inline.79502
L..inline.79502:
	%1687 = load %struct._Z6FsGridISt5arrayIdLm8EELi2EE*, %struct._Z6FsGridISt5arrayIdLm8EELi2EE** %..inline.addr.1010, align 8, !tbaa !6534, !dbg !6401
	%1688 = bitcast %struct._Z6FsGridISt5arrayIdLm8EELi2EE*  %1687 to i8*, !dbg !6401
	%1689 = getelementptr i8, i8*  %1688, i64 252, !dbg !6401
	%1690 = bitcast i8*  %1689 to i32*, !dbg !6401
	%1691 = load i32, i32*  %1690, align 4, !tbaa !6533, !dbg !6401
	%1692 = icmp sle i32  %1691, 1, !dbg !6401
	%1693 = zext i1  %1692 to i32, !dbg !6401
	%1694 = trunc i32  %1693 to i1, !dbg !6401
	%1695 = load i64, i64* %..inline.addr.1080, align 8, !tbaa !6538, !dbg !6401
	%1696 = load i32, i32* %..inline.addr.1020, align 4, !tbaa !6536, !dbg !6401
	%1697 = sext i32  %1696 to i64, !dbg !6401
	%1698 = add i64  %1697, 2, !dbg !6401
	%1699 = add i64  %1695,  %1698, !dbg !6401
	%1700 = select i1  %1694, i64  %1695, i64  %1699, !dbg !6401
	%1701 = getelementptr i8, i8*  %1688, i64 744, !dbg !6402
	%1702 = bitcast i8*  %1701 to i8**, !dbg !6402
	%1703 = load i8*, i8**  %1702, align 8, !tbaa !6534, !dbg !6402
	%1704 = mul i64  %1700, 64, !dbg !6402
	%1705 = getelementptr i8, i8*  %1703, i64  %1704, !dbg !6402
	%1706 = bitcast %struct._ZSt5arrayIdLm8EE** %..inline.addr.1070 to i8**, !dbg !6402
	store i8*  %1705, i8**  %1706, align 8, !tbaa !6534, !dbg !6402
	br label %L..inline.79548
L..inline.79548:
	%1707 = load %struct._ZSt5arrayIdLm8EE*, %struct._ZSt5arrayIdLm8EE** %..inline.addr.1070, align 8, !tbaa !6534, !dbg !6403
	%1708 = bitcast %struct._ZSt5arrayIdLm8EE*  %1707 to i8*, !dbg !6403
	call void @llvm.dbg.declare (metadata %struct._ZSt5arrayIdLm8EE** %rghtMoments.addr, metadata !6423, metadata !6359), !dbg !4309
	%1709 = bitcast %struct._ZSt5arrayIdLm8EE** %rghtMoments.addr to i8**, !dbg !6403
	store i8*  %1708, i8**  %1709, align 8, !tbaa !6534, !dbg !6403
	%1710 = load %struct._ZSt5arrayIdLm24EE*, %struct._ZSt5arrayIdLm24EE** %dMoments.addr, align 8, !tbaa !6534, !dbg !6424
	%1711 = bitcast %struct._ZSt5arrayIdLm24EE*  %1710 to i8*, !dbg !6424
	%1712 = bitcast double** %..inline.addr.1100 to i8**, !dbg !6424
	store i8*  %1711, i8**  %1712, align 8, !tbaa !6534, !dbg !6424
	%1713 = load %struct._ZSt5arrayIdLm8EE*, %struct._ZSt5arrayIdLm8EE** %leftMoments.addr, align 8, !tbaa !6534, !dbg !6425
	%1714 = bitcast %struct._ZSt5arrayIdLm8EE*  %1713 to i8*, !dbg !6425
	%1715 = bitcast double** %..inline.addr.1110 to i8**, !dbg !6425
	store i8*  %1714, i8**  %1715, align 8, !tbaa !6534, !dbg !6425
	%1716 = load %struct._ZSt5arrayIdLm8EE*, %struct._ZSt5arrayIdLm8EE** %centMoments.addr, align 8, !tbaa !6534, !dbg !6425
	%1717 = bitcast %struct._ZSt5arrayIdLm8EE*  %1716 to i8*, !dbg !6425
	%1718 = bitcast double** %..inline.addr.1120 to i8**, !dbg !6425
	store i8*  %1717, i8**  %1718, align 8, !tbaa !6534, !dbg !6425
	%1719 = load %struct._ZSt5arrayIdLm8EE*, %struct._ZSt5arrayIdLm8EE** %..inline.addr.1070, align 8, !tbaa !6534, !dbg !6425
	%1720 = bitcast %struct._ZSt5arrayIdLm8EE*  %1719 to i8*, !dbg !6425
	%1721 = bitcast double** %..inline.addr.1130 to i8**, !dbg !6425
	store i8*  %1720, i8**  %1721, align 8, !tbaa !6534, !dbg !6425
	store double  0.00000000000000000E+0, double* %..inline.addr.1140, align 8, !tbaa !6540, !dbg !6425
	%1722 = load double*, double** %..inline.addr.1120, align 8, !tbaa !6534, !dbg !6425
	%1723 = load double, double*  %1722, align 8, !tbaa !6533, !dbg !6425
	%1724 = load double*, double** %..inline.addr.1110, align 8, !tbaa !6534, !dbg !6425
	%1725 = load double, double*  %1724, align 8, !tbaa !6533, !dbg !6425
	%1726 = fsub double  %1723,  %1725, !dbg !6425
	%1727 = load double*, double** %..inline.addr.1130, align 8, !tbaa !6534, !dbg !6425
	%1728 = load double, double*  %1727, align 8, !tbaa !6533, !dbg !6425
	%1729 = fsub double  %1728,  %1723, !dbg !6425
	%1730 = fmul double  %1726,  %1729, !dbg !6425
	store double  %1730, double* %..inline.addr.1150, align 8, !tbaa !6540, !dbg !6425
	%1731 = fcmp uge double  %1730,  0.00000000000000000E+0, !dbg !6425
	br i1  %1731, label %L..inline.79630, label %L.B1985, !dbg !6425
L.B1985:
	%1732 = bitcast double* %..inline.addr.1140 to i8*, !dbg !6425
	%1733 = bitcast double** %..inline.addr.1160 to i8**, !dbg !6425
	store i8*  %1732, i8**  %1733, align 8, !tbaa !6534, !dbg !6425
	br label %L..inline.79632, !dbg !6425
L..inline.79630:
	%1734 = bitcast double* %..inline.addr.1150 to i8*, !dbg !6425
	%1735 = bitcast double** %..inline.addr.1160 to i8**, !dbg !6425
	store i8*  %1734, i8**  %1735, align 8, !tbaa !6534, !dbg !6425
	br label %L..inline.79632
L..inline.79632:
	%1736 = load double*, double** %..inline.addr.1130, align 8, !tbaa !6534, !dbg !6425
	%1737 = load double, double*  %1736, align 8, !tbaa !6533, !dbg !6425
	%1738 = load double*, double** %..inline.addr.1110, align 8, !tbaa !6534, !dbg !6425
	%1739 = load double, double*  %1738, align 8, !tbaa !6533, !dbg !6425
	%1740 = fsub double  %1737,  %1739, !dbg !6425
	store double  %1740, double* %..inline.addr.1170, align 8, !tbaa !6540, !dbg !6425
	%1741 = call double @llvm.fabs.f64 (double  %1740), !dbg !6425
	%1742 = fcmp uge double  %1741,  2.22507385850720138E-308, !dbg !6425
	br i1  %1742, label %L..inline.79634, label %L.B1986, !dbg !6425
L.B1986:
	store double  0.00000000000000000E+0, double* %..inline.addr.1180, align 8, !tbaa !6540, !dbg !6425
	br label %L..inline.79636, !dbg !6425
L..inline.79634:
	%1743 = load double*, double** %..inline.addr.1160, align 8, !tbaa !6534, !dbg !6425
	%1744 = load double, double*  %1743, align 8, !tbaa !6533, !dbg !6425
	%1745 = fadd double  %1744,  %1744, !dbg !6425
	%1746 = load double, double* %..inline.addr.1170, align 8, !tbaa !6540, !dbg !6425
	%1747 = fdiv double  %1745,  %1746, !dbg !6425
	store double  %1747, double* %..inline.addr.1180, align 8, !tbaa !6540, !dbg !6425
	br label %L..inline.79636
L..inline.79636:
	%1748 = load double, double* %..inline.addr.1180, align 8, !tbaa !6540, !dbg !6426
	%1749 = load double*, double** %..inline.addr.1100, align 8, !tbaa !6534, !dbg !6426
	store double  %1748, double*  %1749, align 8, !tbaa !6533, !dbg !6426
	%1750 = load %struct._ZSt5arrayIdLm24EE*, %struct._ZSt5arrayIdLm24EE** %dMoments.addr, align 8, !tbaa !6534, !dbg !6424
	%1751 = bitcast %struct._ZSt5arrayIdLm24EE*  %1750 to i8*, !dbg !6424
	%1752 = getelementptr i8, i8*  %1751, i64 24, !dbg !6424
	%1753 = bitcast double** %..inline.addr.1190 to i8**, !dbg !6424
	store i8*  %1752, i8**  %1753, align 8, !tbaa !6534, !dbg !6424
	%1754 = load %struct._ZSt5arrayIdLm8EE*, %struct._ZSt5arrayIdLm8EE** %leftMoments.addr, align 8, !tbaa !6534, !dbg !6425
	%1755 = bitcast %struct._ZSt5arrayIdLm8EE*  %1754 to i8*, !dbg !6425
	%1756 = getelementptr i8, i8*  %1755, i64 8, !dbg !6425
	%1757 = bitcast double** %..inline.addr.1200 to i8**, !dbg !6425
	store i8*  %1756, i8**  %1757, align 8, !tbaa !6534, !dbg !6425
	%1758 = load %struct._ZSt5arrayIdLm8EE*, %struct._ZSt5arrayIdLm8EE** %centMoments.addr, align 8, !tbaa !6534, !dbg !6425
	%1759 = bitcast %struct._ZSt5arrayIdLm8EE*  %1758 to i8*, !dbg !6425
	%1760 = getelementptr i8, i8*  %1759, i64 8, !dbg !6425
	%1761 = bitcast double** %..inline.addr.1210 to i8**, !dbg !6425
	store i8*  %1760, i8**  %1761, align 8, !tbaa !6534, !dbg !6425
	%1762 = load %struct._ZSt5arrayIdLm8EE*, %struct._ZSt5arrayIdLm8EE** %rghtMoments.addr, align 8, !tbaa !6534, !dbg !6425
	%1763 = bitcast %struct._ZSt5arrayIdLm8EE*  %1762 to i8*, !dbg !6425
	%1764 = getelementptr i8, i8*  %1763, i64 8, !dbg !6425
	%1765 = bitcast double** %..inline.addr.1220 to i8**, !dbg !6425
	store i8*  %1764, i8**  %1765, align 8, !tbaa !6534, !dbg !6425
	store double  0.00000000000000000E+0, double* %..inline.addr.1230, align 8, !tbaa !6540, !dbg !6425
	%1766 = load double*, double** %..inline.addr.1210, align 8, !tbaa !6534, !dbg !6425
	%1767 = load double, double*  %1766, align 8, !tbaa !6533, !dbg !6425
	%1768 = load double*, double** %..inline.addr.1200, align 8, !tbaa !6534, !dbg !6425
	%1769 = load double, double*  %1768, align 8, !tbaa !6533, !dbg !6425
	%1770 = fsub double  %1767,  %1769, !dbg !6425
	%1771 = load double*, double** %..inline.addr.1220, align 8, !tbaa !6534, !dbg !6425
	%1772 = load double, double*  %1771, align 8, !tbaa !6533, !dbg !6425
	%1773 = fsub double  %1772,  %1767, !dbg !6425
	%1774 = fmul double  %1770,  %1773, !dbg !6425
	store double  %1774, double* %..inline.addr.1240, align 8, !tbaa !6540, !dbg !6425
	%1775 = fcmp uge double  %1774,  0.00000000000000000E+0, !dbg !6425
	br i1  %1775, label %L..inline.79726, label %L.B1987, !dbg !6425
L.B1987:
	%1776 = bitcast double* %..inline.addr.1230 to i8*, !dbg !6425
	%1777 = bitcast double** %..inline.addr.1250 to i8**, !dbg !6425
	store i8*  %1776, i8**  %1777, align 8, !tbaa !6534, !dbg !6425
	br label %L..inline.79728, !dbg !6425
L..inline.79726:
	%1778 = bitcast double* %..inline.addr.1240 to i8*, !dbg !6425
	%1779 = bitcast double** %..inline.addr.1250 to i8**, !dbg !6425
	store i8*  %1778, i8**  %1779, align 8, !tbaa !6534, !dbg !6425
	br label %L..inline.79728
L..inline.79728:
	%1780 = load double*, double** %..inline.addr.1220, align 8, !tbaa !6534, !dbg !6425
	%1781 = load double, double*  %1780, align 8, !tbaa !6533, !dbg !6425
	%1782 = load double*, double** %..inline.addr.1200, align 8, !tbaa !6534, !dbg !6425
	%1783 = load double, double*  %1782, align 8, !tbaa !6533, !dbg !6425
	%1784 = fsub double  %1781,  %1783, !dbg !6425
	store double  %1784, double* %..inline.addr.1260, align 8, !tbaa !6540, !dbg !6425
	%1785 = call double @llvm.fabs.f64 (double  %1784), !dbg !6425
	%1786 = fcmp uge double  %1785,  2.22507385850720138E-308, !dbg !6425
	br i1  %1786, label %L..inline.79730, label %L.B1988, !dbg !6425
L.B1988:
	store double  0.00000000000000000E+0, double* %..inline.addr.1270, align 8, !tbaa !6540, !dbg !6425
	br label %L..inline.79732, !dbg !6425
L..inline.79730:
	%1787 = load double*, double** %..inline.addr.1250, align 8, !tbaa !6534, !dbg !6425
	%1788 = load double, double*  %1787, align 8, !tbaa !6533, !dbg !6425
	%1789 = fadd double  %1788,  %1788, !dbg !6425
	%1790 = load double, double* %..inline.addr.1260, align 8, !tbaa !6540, !dbg !6425
	%1791 = fdiv double  %1789,  %1790, !dbg !6425
	store double  %1791, double* %..inline.addr.1270, align 8, !tbaa !6540, !dbg !6425
	br label %L..inline.79732
L..inline.79732:
	%1792 = load double, double* %..inline.addr.1270, align 8, !tbaa !6540, !dbg !6426
	%1793 = load double*, double** %..inline.addr.1190, align 8, !tbaa !6534, !dbg !6426
	store double  %1792, double*  %1793, align 8, !tbaa !6533, !dbg !6426
	%1794 = load %struct._ZSt5arrayIdLm24EE*, %struct._ZSt5arrayIdLm24EE** %dMoments.addr, align 8, !tbaa !6534, !dbg !6424
	%1795 = bitcast %struct._ZSt5arrayIdLm24EE*  %1794 to i8*, !dbg !6424
	%1796 = getelementptr i8, i8*  %1795, i64 48, !dbg !6424
	%1797 = bitcast double** %..inline.addr.1280 to i8**, !dbg !6424
	store i8*  %1796, i8**  %1797, align 8, !tbaa !6534, !dbg !6424
	%1798 = load %struct._ZSt5arrayIdLm8EE*, %struct._ZSt5arrayIdLm8EE** %leftMoments.addr, align 8, !tbaa !6534, !dbg !6425
	%1799 = bitcast %struct._ZSt5arrayIdLm8EE*  %1798 to i8*, !dbg !6425
	%1800 = getelementptr i8, i8*  %1799, i64 40, !dbg !6425
	%1801 = bitcast double** %..inline.addr.1290 to i8**, !dbg !6425
	store i8*  %1800, i8**  %1801, align 8, !tbaa !6534, !dbg !6425
	%1802 = load %struct._ZSt5arrayIdLm8EE*, %struct._ZSt5arrayIdLm8EE** %centMoments.addr, align 8, !tbaa !6534, !dbg !6425
	%1803 = bitcast %struct._ZSt5arrayIdLm8EE*  %1802 to i8*, !dbg !6425
	%1804 = getelementptr i8, i8*  %1803, i64 40, !dbg !6425
	%1805 = bitcast double** %..inline.addr.1300 to i8**, !dbg !6425
	store i8*  %1804, i8**  %1805, align 8, !tbaa !6534, !dbg !6425
	%1806 = load %struct._ZSt5arrayIdLm8EE*, %struct._ZSt5arrayIdLm8EE** %rghtMoments.addr, align 8, !tbaa !6534, !dbg !6425
	%1807 = bitcast %struct._ZSt5arrayIdLm8EE*  %1806 to i8*, !dbg !6425
	%1808 = getelementptr i8, i8*  %1807, i64 40, !dbg !6425
	%1809 = bitcast double** %..inline.addr.1310 to i8**, !dbg !6425
	store i8*  %1808, i8**  %1809, align 8, !tbaa !6534, !dbg !6425
	store double  0.00000000000000000E+0, double* %..inline.addr.1320, align 8, !tbaa !6540, !dbg !6425
	%1810 = load double*, double** %..inline.addr.1300, align 8, !tbaa !6534, !dbg !6425
	%1811 = load double, double*  %1810, align 8, !tbaa !6533, !dbg !6425
	%1812 = load double*, double** %..inline.addr.1290, align 8, !tbaa !6534, !dbg !6425
	%1813 = load double, double*  %1812, align 8, !tbaa !6533, !dbg !6425
	%1814 = fsub double  %1811,  %1813, !dbg !6425
	%1815 = load double*, double** %..inline.addr.1310, align 8, !tbaa !6534, !dbg !6425
	%1816 = load double, double*  %1815, align 8, !tbaa !6533, !dbg !6425
	%1817 = fsub double  %1816,  %1811, !dbg !6425
	%1818 = fmul double  %1814,  %1817, !dbg !6425
	store double  %1818, double* %..inline.addr.1330, align 8, !tbaa !6540, !dbg !6425
	%1819 = fcmp uge double  %1818,  0.00000000000000000E+0, !dbg !6425
	br i1  %1819, label %L..inline.79822, label %L.B1989, !dbg !6425
L.B1989:
	%1820 = bitcast double* %..inline.addr.1320 to i8*, !dbg !6425
	%1821 = bitcast double** %..inline.addr.1340 to i8**, !dbg !6425
	store i8*  %1820, i8**  %1821, align 8, !tbaa !6534, !dbg !6425
	br label %L..inline.79824, !dbg !6425
L..inline.79822:
	%1822 = bitcast double* %..inline.addr.1330 to i8*, !dbg !6425
	%1823 = bitcast double** %..inline.addr.1340 to i8**, !dbg !6425
	store i8*  %1822, i8**  %1823, align 8, !tbaa !6534, !dbg !6425
	br label %L..inline.79824
L..inline.79824:
	%1824 = load double*, double** %..inline.addr.1310, align 8, !tbaa !6534, !dbg !6425
	%1825 = load double, double*  %1824, align 8, !tbaa !6533, !dbg !6425
	%1826 = load double*, double** %..inline.addr.1290, align 8, !tbaa !6534, !dbg !6425
	%1827 = load double, double*  %1826, align 8, !tbaa !6533, !dbg !6425
	%1828 = fsub double  %1825,  %1827, !dbg !6425
	store double  %1828, double* %..inline.addr.1350, align 8, !tbaa !6540, !dbg !6425
	%1829 = call double @llvm.fabs.f64 (double  %1828), !dbg !6425
	%1830 = fcmp uge double  %1829,  2.22507385850720138E-308, !dbg !6425
	br i1  %1830, label %L..inline.79826, label %L.B1990, !dbg !6425
L.B1990:
	store double  0.00000000000000000E+0, double* %..inline.addr.1360, align 8, !tbaa !6540, !dbg !6425
	br label %L..inline.79828, !dbg !6425
L..inline.79826:
	%1831 = load double*, double** %..inline.addr.1340, align 8, !tbaa !6534, !dbg !6425
	%1832 = load double, double*  %1831, align 8, !tbaa !6533, !dbg !6425
	%1833 = fadd double  %1832,  %1832, !dbg !6425
	%1834 = load double, double* %..inline.addr.1350, align 8, !tbaa !6540, !dbg !6425
	%1835 = fdiv double  %1833,  %1834, !dbg !6425
	store double  %1835, double* %..inline.addr.1360, align 8, !tbaa !6540, !dbg !6425
	br label %L..inline.79828
L..inline.79828:
	%1836 = load double, double* %..inline.addr.1360, align 8, !tbaa !6540, !dbg !6426
	%1837 = load double*, double** %..inline.addr.1280, align 8, !tbaa !6534, !dbg !6426
	store double  %1836, double*  %1837, align 8, !tbaa !6533, !dbg !6426
	%1838 = load %struct._ZSt5arrayIdLm24EE*, %struct._ZSt5arrayIdLm24EE** %dMoments.addr, align 8, !tbaa !6534, !dbg !6424
	%1839 = bitcast %struct._ZSt5arrayIdLm24EE*  %1838 to i8*, !dbg !6424
	%1840 = getelementptr i8, i8*  %1839, i64 72, !dbg !6424
	%1841 = bitcast double** %..inline.addr.1370 to i8**, !dbg !6424
	store i8*  %1840, i8**  %1841, align 8, !tbaa !6534, !dbg !6424
	%1842 = load %struct._ZSt5arrayIdLm8EE*, %struct._ZSt5arrayIdLm8EE** %leftMoments.addr, align 8, !tbaa !6534, !dbg !6425
	%1843 = bitcast %struct._ZSt5arrayIdLm8EE*  %1842 to i8*, !dbg !6425
	%1844 = getelementptr i8, i8*  %1843, i64 48, !dbg !6425
	%1845 = bitcast double** %..inline.addr.1380 to i8**, !dbg !6425
	store i8*  %1844, i8**  %1845, align 8, !tbaa !6534, !dbg !6425
	%1846 = load %struct._ZSt5arrayIdLm8EE*, %struct._ZSt5arrayIdLm8EE** %centMoments.addr, align 8, !tbaa !6534, !dbg !6425
	%1847 = bitcast %struct._ZSt5arrayIdLm8EE*  %1846 to i8*, !dbg !6425
	%1848 = getelementptr i8, i8*  %1847, i64 48, !dbg !6425
	%1849 = bitcast double** %..inline.addr.1390 to i8**, !dbg !6425
	store i8*  %1848, i8**  %1849, align 8, !tbaa !6534, !dbg !6425
	%1850 = load %struct._ZSt5arrayIdLm8EE*, %struct._ZSt5arrayIdLm8EE** %rghtMoments.addr, align 8, !tbaa !6534, !dbg !6425
	%1851 = bitcast %struct._ZSt5arrayIdLm8EE*  %1850 to i8*, !dbg !6425
	%1852 = getelementptr i8, i8*  %1851, i64 48, !dbg !6425
	%1853 = bitcast double** %..inline.addr.1400 to i8**, !dbg !6425
	store i8*  %1852, i8**  %1853, align 8, !tbaa !6534, !dbg !6425
	store double  0.00000000000000000E+0, double* %..inline.addr.1410, align 8, !tbaa !6540, !dbg !6425
	%1854 = load double*, double** %..inline.addr.1390, align 8, !tbaa !6534, !dbg !6425
	%1855 = load double, double*  %1854, align 8, !tbaa !6533, !dbg !6425
	%1856 = load double*, double** %..inline.addr.1380, align 8, !tbaa !6534, !dbg !6425
	%1857 = load double, double*  %1856, align 8, !tbaa !6533, !dbg !6425
	%1858 = fsub double  %1855,  %1857, !dbg !6425
	%1859 = load double*, double** %..inline.addr.1400, align 8, !tbaa !6534, !dbg !6425
	%1860 = load double, double*  %1859, align 8, !tbaa !6533, !dbg !6425
	%1861 = fsub double  %1860,  %1855, !dbg !6425
	%1862 = fmul double  %1858,  %1861, !dbg !6425
	store double  %1862, double* %..inline.addr.1420, align 8, !tbaa !6540, !dbg !6425
	%1863 = fcmp uge double  %1862,  0.00000000000000000E+0, !dbg !6425
	br i1  %1863, label %L..inline.79918, label %L.B1991, !dbg !6425
L.B1991:
	%1864 = bitcast double* %..inline.addr.1410 to i8*, !dbg !6425
	%1865 = bitcast double** %..inline.addr.1430 to i8**, !dbg !6425
	store i8*  %1864, i8**  %1865, align 8, !tbaa !6534, !dbg !6425
	br label %L..inline.79920, !dbg !6425
L..inline.79918:
	%1866 = bitcast double* %..inline.addr.1420 to i8*, !dbg !6425
	%1867 = bitcast double** %..inline.addr.1430 to i8**, !dbg !6425
	store i8*  %1866, i8**  %1867, align 8, !tbaa !6534, !dbg !6425
	br label %L..inline.79920
L..inline.79920:
	%1868 = load double*, double** %..inline.addr.1400, align 8, !tbaa !6534, !dbg !6425
	%1869 = load double, double*  %1868, align 8, !tbaa !6533, !dbg !6425
	%1870 = load double*, double** %..inline.addr.1380, align 8, !tbaa !6534, !dbg !6425
	%1871 = load double, double*  %1870, align 8, !tbaa !6533, !dbg !6425
	%1872 = fsub double  %1869,  %1871, !dbg !6425
	store double  %1872, double* %..inline.addr.1440, align 8, !tbaa !6540, !dbg !6425
	%1873 = call double @llvm.fabs.f64 (double  %1872), !dbg !6425
	%1874 = fcmp uge double  %1873,  2.22507385850720138E-308, !dbg !6425
	br i1  %1874, label %L..inline.79922, label %L.B1992, !dbg !6425
L.B1992:
	store double  0.00000000000000000E+0, double* %..inline.addr.1450, align 8, !tbaa !6540, !dbg !6425
	br label %L..inline.79924, !dbg !6425
L..inline.79922:
	%1875 = load double*, double** %..inline.addr.1430, align 8, !tbaa !6534, !dbg !6425
	%1876 = load double, double*  %1875, align 8, !tbaa !6533, !dbg !6425
	%1877 = fadd double  %1876,  %1876, !dbg !6425
	%1878 = load double, double* %..inline.addr.1440, align 8, !tbaa !6540, !dbg !6425
	%1879 = fdiv double  %1877,  %1878, !dbg !6425
	store double  %1879, double* %..inline.addr.1450, align 8, !tbaa !6540, !dbg !6425
	br label %L..inline.79924
L..inline.79924:
	%1880 = load double, double* %..inline.addr.1450, align 8, !tbaa !6540, !dbg !6426
	%1881 = load double*, double** %..inline.addr.1370, align 8, !tbaa !6534, !dbg !6426
	store double  %1880, double*  %1881, align 8, !tbaa !6533, !dbg !6426
	%1882 = load %struct._ZSt5arrayIdLm24EE*, %struct._ZSt5arrayIdLm24EE** %dMoments.addr, align 8, !tbaa !6534, !dbg !6424
	%1883 = bitcast %struct._ZSt5arrayIdLm24EE*  %1882 to i8*, !dbg !6424
	%1884 = getelementptr i8, i8*  %1883, i64 96, !dbg !6424
	%1885 = bitcast double** %..inline.addr.1460 to i8**, !dbg !6424
	store i8*  %1884, i8**  %1885, align 8, !tbaa !6534, !dbg !6424
	%1886 = load %struct._ZSt5arrayIdLm8EE*, %struct._ZSt5arrayIdLm8EE** %leftMoments.addr, align 8, !tbaa !6534, !dbg !6425
	%1887 = bitcast %struct._ZSt5arrayIdLm8EE*  %1886 to i8*, !dbg !6425
	%1888 = getelementptr i8, i8*  %1887, i64 56, !dbg !6425
	%1889 = bitcast double** %..inline.addr.1470 to i8**, !dbg !6425
	store i8*  %1888, i8**  %1889, align 8, !tbaa !6534, !dbg !6425
	%1890 = load %struct._ZSt5arrayIdLm8EE*, %struct._ZSt5arrayIdLm8EE** %centMoments.addr, align 8, !tbaa !6534, !dbg !6425
	%1891 = bitcast %struct._ZSt5arrayIdLm8EE*  %1890 to i8*, !dbg !6425
	%1892 = getelementptr i8, i8*  %1891, i64 56, !dbg !6425
	%1893 = bitcast double** %..inline.addr.1480 to i8**, !dbg !6425
	store i8*  %1892, i8**  %1893, align 8, !tbaa !6534, !dbg !6425
	%1894 = load %struct._ZSt5arrayIdLm8EE*, %struct._ZSt5arrayIdLm8EE** %rghtMoments.addr, align 8, !tbaa !6534, !dbg !6425
	%1895 = bitcast %struct._ZSt5arrayIdLm8EE*  %1894 to i8*, !dbg !6425
	%1896 = getelementptr i8, i8*  %1895, i64 56, !dbg !6425
	%1897 = bitcast double** %..inline.addr.1490 to i8**, !dbg !6425
	store i8*  %1896, i8**  %1897, align 8, !tbaa !6534, !dbg !6425
	store double  0.00000000000000000E+0, double* %..inline.addr.1500, align 8, !tbaa !6540, !dbg !6425
	%1898 = load double*, double** %..inline.addr.1480, align 8, !tbaa !6534, !dbg !6425
	%1899 = load double, double*  %1898, align 8, !tbaa !6533, !dbg !6425
	%1900 = load double*, double** %..inline.addr.1470, align 8, !tbaa !6534, !dbg !6425
	%1901 = load double, double*  %1900, align 8, !tbaa !6533, !dbg !6425
	%1902 = fsub double  %1899,  %1901, !dbg !6425
	%1903 = load double*, double** %..inline.addr.1490, align 8, !tbaa !6534, !dbg !6425
	%1904 = load double, double*  %1903, align 8, !tbaa !6533, !dbg !6425
	%1905 = fsub double  %1904,  %1899, !dbg !6425
	%1906 = fmul double  %1902,  %1905, !dbg !6425
	store double  %1906, double* %..inline.addr.1510, align 8, !tbaa !6540, !dbg !6425
	%1907 = fcmp uge double  %1906,  0.00000000000000000E+0, !dbg !6425
	br i1  %1907, label %L..inline.80014, label %L.B1993, !dbg !6425
L.B1993:
	%1908 = bitcast double* %..inline.addr.1500 to i8*, !dbg !6425
	%1909 = bitcast double** %..inline.addr.1520 to i8**, !dbg !6425
	store i8*  %1908, i8**  %1909, align 8, !tbaa !6534, !dbg !6425
	br label %L..inline.80016, !dbg !6425
L..inline.80014:
	%1910 = bitcast double* %..inline.addr.1510 to i8*, !dbg !6425
	%1911 = bitcast double** %..inline.addr.1520 to i8**, !dbg !6425
	store i8*  %1910, i8**  %1911, align 8, !tbaa !6534, !dbg !6425
	br label %L..inline.80016
L..inline.80016:
	%1912 = load double*, double** %..inline.addr.1490, align 8, !tbaa !6534, !dbg !6425
	%1913 = load double, double*  %1912, align 8, !tbaa !6533, !dbg !6425
	%1914 = load double*, double** %..inline.addr.1470, align 8, !tbaa !6534, !dbg !6425
	%1915 = load double, double*  %1914, align 8, !tbaa !6533, !dbg !6425
	%1916 = fsub double  %1913,  %1915, !dbg !6425
	store double  %1916, double* %..inline.addr.1530, align 8, !tbaa !6540, !dbg !6425
	%1917 = call double @llvm.fabs.f64 (double  %1916), !dbg !6425
	%1918 = fcmp uge double  %1917,  2.22507385850720138E-308, !dbg !6425
	br i1  %1918, label %L..inline.80018, label %L.B1994, !dbg !6425
L.B1994:
	store double  0.00000000000000000E+0, double* %..inline.addr.1540, align 8, !tbaa !6540, !dbg !6425
	br label %L..inline.80020, !dbg !6425
L..inline.80018:
	%1919 = load double*, double** %..inline.addr.1520, align 8, !tbaa !6534, !dbg !6425
	%1920 = load double, double*  %1919, align 8, !tbaa !6533, !dbg !6425
	%1921 = fadd double  %1920,  %1920, !dbg !6425
	%1922 = load double, double* %..inline.addr.1530, align 8, !tbaa !6540, !dbg !6425
	%1923 = fdiv double  %1921,  %1922, !dbg !6425
	store double  %1923, double* %..inline.addr.1540, align 8, !tbaa !6540, !dbg !6425
	br label %L..inline.80020
L..inline.80020:
	%1924 = load double, double* %..inline.addr.1540, align 8, !tbaa !6540, !dbg !6426
	%1925 = load double*, double** %..inline.addr.1460, align 8, !tbaa !6534, !dbg !6426
	store double  %1924, double*  %1925, align 8, !tbaa !6533, !dbg !6426
	%1926 = load %struct._ZSt5arrayIdLm24EE*, %struct._ZSt5arrayIdLm24EE** %dMoments.addr, align 8, !tbaa !6534, !dbg !6424
	%1927 = bitcast %struct._ZSt5arrayIdLm24EE*  %1926 to i8*, !dbg !6424
	%1928 = getelementptr i8, i8*  %1927, i64 120, !dbg !6424
	%1929 = bitcast double** %..inline.addr.1550 to i8**, !dbg !6424
	store i8*  %1928, i8**  %1929, align 8, !tbaa !6534, !dbg !6424
	%1930 = load %struct._ZSt5arrayIdLm8EE*, %struct._ZSt5arrayIdLm8EE** %leftMoments.addr, align 8, !tbaa !6534, !dbg !6425
	%1931 = bitcast %struct._ZSt5arrayIdLm8EE*  %1930 to i8*, !dbg !6425
	%1932 = getelementptr i8, i8*  %1931, i64 16, !dbg !6425
	%1933 = bitcast double** %..inline.addr.1560 to i8**, !dbg !6425
	store i8*  %1932, i8**  %1933, align 8, !tbaa !6534, !dbg !6425
	%1934 = load %struct._ZSt5arrayIdLm8EE*, %struct._ZSt5arrayIdLm8EE** %centMoments.addr, align 8, !tbaa !6534, !dbg !6425
	%1935 = bitcast %struct._ZSt5arrayIdLm8EE*  %1934 to i8*, !dbg !6425
	%1936 = getelementptr i8, i8*  %1935, i64 16, !dbg !6425
	%1937 = bitcast double** %..inline.addr.1570 to i8**, !dbg !6425
	store i8*  %1936, i8**  %1937, align 8, !tbaa !6534, !dbg !6425
	%1938 = load %struct._ZSt5arrayIdLm8EE*, %struct._ZSt5arrayIdLm8EE** %rghtMoments.addr, align 8, !tbaa !6534, !dbg !6425
	%1939 = bitcast %struct._ZSt5arrayIdLm8EE*  %1938 to i8*, !dbg !6425
	%1940 = getelementptr i8, i8*  %1939, i64 16, !dbg !6425
	%1941 = bitcast double** %..inline.addr.1580 to i8**, !dbg !6425
	store i8*  %1940, i8**  %1941, align 8, !tbaa !6534, !dbg !6425
	store double  0.00000000000000000E+0, double* %..inline.addr.1590, align 8, !tbaa !6540, !dbg !6425
	%1942 = load double*, double** %..inline.addr.1570, align 8, !tbaa !6534, !dbg !6425
	%1943 = load double, double*  %1942, align 8, !tbaa !6533, !dbg !6425
	%1944 = load double*, double** %..inline.addr.1560, align 8, !tbaa !6534, !dbg !6425
	%1945 = load double, double*  %1944, align 8, !tbaa !6533, !dbg !6425
	%1946 = fsub double  %1943,  %1945, !dbg !6425
	%1947 = load double*, double** %..inline.addr.1580, align 8, !tbaa !6534, !dbg !6425
	%1948 = load double, double*  %1947, align 8, !tbaa !6533, !dbg !6425
	%1949 = fsub double  %1948,  %1943, !dbg !6425
	%1950 = fmul double  %1946,  %1949, !dbg !6425
	store double  %1950, double* %..inline.addr.1600, align 8, !tbaa !6540, !dbg !6425
	%1951 = fcmp uge double  %1950,  0.00000000000000000E+0, !dbg !6425
	br i1  %1951, label %L..inline.80110, label %L.B1995, !dbg !6425
L.B1995:
	%1952 = bitcast double* %..inline.addr.1590 to i8*, !dbg !6425
	%1953 = bitcast double** %..inline.addr.1610 to i8**, !dbg !6425
	store i8*  %1952, i8**  %1953, align 8, !tbaa !6534, !dbg !6425
	br label %L..inline.80112, !dbg !6425
L..inline.80110:
	%1954 = bitcast double* %..inline.addr.1600 to i8*, !dbg !6425
	%1955 = bitcast double** %..inline.addr.1610 to i8**, !dbg !6425
	store i8*  %1954, i8**  %1955, align 8, !tbaa !6534, !dbg !6425
	br label %L..inline.80112
L..inline.80112:
	%1956 = load double*, double** %..inline.addr.1580, align 8, !tbaa !6534, !dbg !6425
	%1957 = load double, double*  %1956, align 8, !tbaa !6533, !dbg !6425
	%1958 = load double*, double** %..inline.addr.1560, align 8, !tbaa !6534, !dbg !6425
	%1959 = load double, double*  %1958, align 8, !tbaa !6533, !dbg !6425
	%1960 = fsub double  %1957,  %1959, !dbg !6425
	store double  %1960, double* %..inline.addr.1620, align 8, !tbaa !6540, !dbg !6425
	%1961 = call double @llvm.fabs.f64 (double  %1960), !dbg !6425
	%1962 = fcmp uge double  %1961,  2.22507385850720138E-308, !dbg !6425
	br i1  %1962, label %L..inline.80114, label %L.B1996, !dbg !6425
L.B1996:
	store double  0.00000000000000000E+0, double* %..inline.addr.1630, align 8, !tbaa !6540, !dbg !6425
	br label %L..inline.80116, !dbg !6425
L..inline.80114:
	%1963 = load double*, double** %..inline.addr.1610, align 8, !tbaa !6534, !dbg !6425
	%1964 = load double, double*  %1963, align 8, !tbaa !6533, !dbg !6425
	%1965 = fadd double  %1964,  %1964, !dbg !6425
	%1966 = load double, double* %..inline.addr.1620, align 8, !tbaa !6540, !dbg !6425
	%1967 = fdiv double  %1965,  %1966, !dbg !6425
	store double  %1967, double* %..inline.addr.1630, align 8, !tbaa !6540, !dbg !6425
	br label %L..inline.80116
L..inline.80116:
	%1968 = load double, double* %..inline.addr.1630, align 8, !tbaa !6540, !dbg !6426
	%1969 = load double*, double** %..inline.addr.1550, align 8, !tbaa !6534, !dbg !6426
	store double  %1968, double*  %1969, align 8, !tbaa !6533, !dbg !6426
	%1970 = load %struct._ZSt5arrayIdLm24EE*, %struct._ZSt5arrayIdLm24EE** %dMoments.addr, align 8, !tbaa !6534, !dbg !6424
	%1971 = bitcast %struct._ZSt5arrayIdLm24EE*  %1970 to i8*, !dbg !6424
	%1972 = getelementptr i8, i8*  %1971, i64 144, !dbg !6424
	%1973 = bitcast double** %..inline.addr.1640 to i8**, !dbg !6424
	store i8*  %1972, i8**  %1973, align 8, !tbaa !6534, !dbg !6424
	%1974 = load %struct._ZSt5arrayIdLm8EE*, %struct._ZSt5arrayIdLm8EE** %leftMoments.addr, align 8, !tbaa !6534, !dbg !6425
	%1975 = bitcast %struct._ZSt5arrayIdLm8EE*  %1974 to i8*, !dbg !6425
	%1976 = getelementptr i8, i8*  %1975, i64 24, !dbg !6425
	%1977 = bitcast double** %..inline.addr.1650 to i8**, !dbg !6425
	store i8*  %1976, i8**  %1977, align 8, !tbaa !6534, !dbg !6425
	%1978 = load %struct._ZSt5arrayIdLm8EE*, %struct._ZSt5arrayIdLm8EE** %centMoments.addr, align 8, !tbaa !6534, !dbg !6425
	%1979 = bitcast %struct._ZSt5arrayIdLm8EE*  %1978 to i8*, !dbg !6425
	%1980 = getelementptr i8, i8*  %1979, i64 24, !dbg !6425
	%1981 = bitcast double** %..inline.addr.1660 to i8**, !dbg !6425
	store i8*  %1980, i8**  %1981, align 8, !tbaa !6534, !dbg !6425
	%1982 = load %struct._ZSt5arrayIdLm8EE*, %struct._ZSt5arrayIdLm8EE** %rghtMoments.addr, align 8, !tbaa !6534, !dbg !6425
	%1983 = bitcast %struct._ZSt5arrayIdLm8EE*  %1982 to i8*, !dbg !6425
	%1984 = getelementptr i8, i8*  %1983, i64 24, !dbg !6425
	%1985 = bitcast double** %..inline.addr.1670 to i8**, !dbg !6425
	store i8*  %1984, i8**  %1985, align 8, !tbaa !6534, !dbg !6425
	store double  0.00000000000000000E+0, double* %..inline.addr.1680, align 8, !tbaa !6540, !dbg !6425
	%1986 = load double*, double** %..inline.addr.1660, align 8, !tbaa !6534, !dbg !6425
	%1987 = load double, double*  %1986, align 8, !tbaa !6533, !dbg !6425
	%1988 = load double*, double** %..inline.addr.1650, align 8, !tbaa !6534, !dbg !6425
	%1989 = load double, double*  %1988, align 8, !tbaa !6533, !dbg !6425
	%1990 = fsub double  %1987,  %1989, !dbg !6425
	%1991 = load double*, double** %..inline.addr.1670, align 8, !tbaa !6534, !dbg !6425
	%1992 = load double, double*  %1991, align 8, !tbaa !6533, !dbg !6425
	%1993 = fsub double  %1992,  %1987, !dbg !6425
	%1994 = fmul double  %1990,  %1993, !dbg !6425
	store double  %1994, double* %..inline.addr.1690, align 8, !tbaa !6540, !dbg !6425
	%1995 = fcmp uge double  %1994,  0.00000000000000000E+0, !dbg !6425
	br i1  %1995, label %L..inline.80206, label %L.B1997, !dbg !6425
L.B1997:
	%1996 = bitcast double* %..inline.addr.1680 to i8*, !dbg !6425
	%1997 = bitcast double** %..inline.addr.1700 to i8**, !dbg !6425
	store i8*  %1996, i8**  %1997, align 8, !tbaa !6534, !dbg !6425
	br label %L..inline.80208, !dbg !6425
L..inline.80206:
	%1998 = bitcast double* %..inline.addr.1690 to i8*, !dbg !6425
	%1999 = bitcast double** %..inline.addr.1700 to i8**, !dbg !6425
	store i8*  %1998, i8**  %1999, align 8, !tbaa !6534, !dbg !6425
	br label %L..inline.80208
L..inline.80208:
	%2000 = load double*, double** %..inline.addr.1670, align 8, !tbaa !6534, !dbg !6425
	%2001 = load double, double*  %2000, align 8, !tbaa !6533, !dbg !6425
	%2002 = load double*, double** %..inline.addr.1650, align 8, !tbaa !6534, !dbg !6425
	%2003 = load double, double*  %2002, align 8, !tbaa !6533, !dbg !6425
	%2004 = fsub double  %2001,  %2003, !dbg !6425
	store double  %2004, double* %..inline.addr.1710, align 8, !tbaa !6540, !dbg !6425
	%2005 = call double @llvm.fabs.f64 (double  %2004), !dbg !6425
	%2006 = fcmp uge double  %2005,  2.22507385850720138E-308, !dbg !6425
	br i1  %2006, label %L..inline.80210, label %L.B1998, !dbg !6425
L.B1998:
	store double  0.00000000000000000E+0, double* %..inline.addr.1720, align 8, !tbaa !6540, !dbg !6425
	br label %L..inline.80212, !dbg !6425
L..inline.80210:
	%2007 = load double*, double** %..inline.addr.1700, align 8, !tbaa !6534, !dbg !6425
	%2008 = load double, double*  %2007, align 8, !tbaa !6533, !dbg !6425
	%2009 = fadd double  %2008,  %2008, !dbg !6425
	%2010 = load double, double* %..inline.addr.1710, align 8, !tbaa !6540, !dbg !6425
	%2011 = fdiv double  %2009,  %2010, !dbg !6425
	store double  %2011, double* %..inline.addr.1720, align 8, !tbaa !6540, !dbg !6425
	br label %L..inline.80212
L..inline.80212:
	%2012 = load double, double* %..inline.addr.1720, align 8, !tbaa !6540, !dbg !6426
	%2013 = load double*, double** %..inline.addr.1640, align 8, !tbaa !6534, !dbg !6426
	store double  %2012, double*  %2013, align 8, !tbaa !6533, !dbg !6426
	%2014 = load %struct._ZSt5arrayIdLm24EE*, %struct._ZSt5arrayIdLm24EE** %dMoments.addr, align 8, !tbaa !6534, !dbg !6424
	%2015 = bitcast %struct._ZSt5arrayIdLm24EE*  %2014 to i8*, !dbg !6424
	%2016 = getelementptr i8, i8*  %2015, i64 168, !dbg !6424
	%2017 = bitcast double** %..inline.addr.1730 to i8**, !dbg !6424
	store i8*  %2016, i8**  %2017, align 8, !tbaa !6534, !dbg !6424
	%2018 = load %struct._ZSt5arrayIdLm8EE*, %struct._ZSt5arrayIdLm8EE** %leftMoments.addr, align 8, !tbaa !6534, !dbg !6425
	%2019 = bitcast %struct._ZSt5arrayIdLm8EE*  %2018 to i8*, !dbg !6425
	%2020 = getelementptr i8, i8*  %2019, i64 32, !dbg !6425
	%2021 = bitcast double** %..inline.addr.1740 to i8**, !dbg !6425
	store i8*  %2020, i8**  %2021, align 8, !tbaa !6534, !dbg !6425
	%2022 = load %struct._ZSt5arrayIdLm8EE*, %struct._ZSt5arrayIdLm8EE** %centMoments.addr, align 8, !tbaa !6534, !dbg !6425
	%2023 = bitcast %struct._ZSt5arrayIdLm8EE*  %2022 to i8*, !dbg !6425
	%2024 = getelementptr i8, i8*  %2023, i64 32, !dbg !6425
	%2025 = bitcast double** %..inline.addr.1750 to i8**, !dbg !6425
	store i8*  %2024, i8**  %2025, align 8, !tbaa !6534, !dbg !6425
	%2026 = load %struct._ZSt5arrayIdLm8EE*, %struct._ZSt5arrayIdLm8EE** %rghtMoments.addr, align 8, !tbaa !6534, !dbg !6425
	%2027 = bitcast %struct._ZSt5arrayIdLm8EE*  %2026 to i8*, !dbg !6425
	%2028 = getelementptr i8, i8*  %2027, i64 32, !dbg !6425
	%2029 = bitcast double** %..inline.addr.1760 to i8**, !dbg !6425
	store i8*  %2028, i8**  %2029, align 8, !tbaa !6534, !dbg !6425
	store double  0.00000000000000000E+0, double* %..inline.addr.1770, align 8, !tbaa !6540, !dbg !6425
	%2030 = load double*, double** %..inline.addr.1750, align 8, !tbaa !6534, !dbg !6425
	%2031 = load double, double*  %2030, align 8, !tbaa !6533, !dbg !6425
	%2032 = load double*, double** %..inline.addr.1740, align 8, !tbaa !6534, !dbg !6425
	%2033 = load double, double*  %2032, align 8, !tbaa !6533, !dbg !6425
	%2034 = fsub double  %2031,  %2033, !dbg !6425
	%2035 = load double*, double** %..inline.addr.1760, align 8, !tbaa !6534, !dbg !6425
	%2036 = load double, double*  %2035, align 8, !tbaa !6533, !dbg !6425
	%2037 = fsub double  %2036,  %2031, !dbg !6425
	%2038 = fmul double  %2034,  %2037, !dbg !6425
	store double  %2038, double* %..inline.addr.1780, align 8, !tbaa !6540, !dbg !6425
	%2039 = fcmp uge double  %2038,  0.00000000000000000E+0, !dbg !6425
	br i1  %2039, label %L..inline.80302, label %L.B1999, !dbg !6425
L.B1999:
	%2040 = bitcast double* %..inline.addr.1770 to i8*, !dbg !6425
	%2041 = bitcast double** %..inline.addr.1790 to i8**, !dbg !6425
	store i8*  %2040, i8**  %2041, align 8, !tbaa !6534, !dbg !6425
	br label %L..inline.80304, !dbg !6425
L..inline.80302:
	%2042 = bitcast double* %..inline.addr.1780 to i8*, !dbg !6425
	%2043 = bitcast double** %..inline.addr.1790 to i8**, !dbg !6425
	store i8*  %2042, i8**  %2043, align 8, !tbaa !6534, !dbg !6425
	br label %L..inline.80304
L..inline.80304:
	%2044 = load double*, double** %..inline.addr.1760, align 8, !tbaa !6534, !dbg !6425
	%2045 = load double, double*  %2044, align 8, !tbaa !6533, !dbg !6425
	%2046 = load double*, double** %..inline.addr.1740, align 8, !tbaa !6534, !dbg !6425
	%2047 = load double, double*  %2046, align 8, !tbaa !6533, !dbg !6425
	%2048 = fsub double  %2045,  %2047, !dbg !6425
	store double  %2048, double* %..inline.addr.1800, align 8, !tbaa !6540, !dbg !6425
	%2049 = call double @llvm.fabs.f64 (double  %2048), !dbg !6425
	%2050 = fcmp uge double  %2049,  2.22507385850720138E-308, !dbg !6425
	br i1  %2050, label %L..inline.80306, label %L.B2000, !dbg !6425
L.B2000:
	store double  0.00000000000000000E+0, double* %..inline.addr.1810, align 8, !tbaa !6540, !dbg !6425
	br label %L..inline.80308, !dbg !6425
L..inline.80306:
	%2051 = load double*, double** %..inline.addr.1790, align 8, !tbaa !6534, !dbg !6425
	%2052 = load double, double*  %2051, align 8, !tbaa !6533, !dbg !6425
	%2053 = fadd double  %2052,  %2052, !dbg !6425
	%2054 = load double, double* %..inline.addr.1800, align 8, !tbaa !6540, !dbg !6425
	%2055 = fdiv double  %2053,  %2054, !dbg !6425
	store double  %2055, double* %..inline.addr.1810, align 8, !tbaa !6540, !dbg !6425
	br label %L..inline.80308
L..inline.80308:
	%2056 = load double, double* %..inline.addr.1810, align 8, !tbaa !6540, !dbg !6426
	%2057 = load double*, double** %..inline.addr.1730, align 8, !tbaa !6534, !dbg !6426
	store double  %2056, double*  %2057, align 8, !tbaa !6533, !dbg !6426
	%2058 = load %struct._ZSt5arrayIdLm15EE*, %struct._ZSt5arrayIdLm15EE** %dPerB.addr, align 8, !tbaa !6534, !dbg !6424
	%2059 = bitcast %struct._ZSt5arrayIdLm15EE*  %2058 to i8*, !dbg !6424
	%2060 = getelementptr i8, i8*  %2059, i64 16, !dbg !6424
	%2061 = bitcast double** %..inline.addr.1820 to i8**, !dbg !6424
	store i8*  %2060, i8**  %2061, align 8, !tbaa !6534, !dbg !6424
	%2062 = load %struct._ZSt5arrayIdLm3EE*, %struct._ZSt5arrayIdLm3EE** %leftPerB.addr, align 8, !tbaa !6534, !dbg !6425
	%2063 = bitcast %struct._ZSt5arrayIdLm3EE*  %2062 to i8*, !dbg !6425
	%2064 = getelementptr i8, i8*  %2063, i64 8, !dbg !6425
	%2065 = bitcast double** %..inline.addr.1830 to i8**, !dbg !6425
	store i8*  %2064, i8**  %2065, align 8, !tbaa !6534, !dbg !6425
	%2066 = load %struct._ZSt5arrayIdLm3EE*, %struct._ZSt5arrayIdLm3EE** %centPerB.addr, align 8, !tbaa !6534, !dbg !6425
	%2067 = bitcast %struct._ZSt5arrayIdLm3EE*  %2066 to i8*, !dbg !6425
	%2068 = getelementptr i8, i8*  %2067, i64 8, !dbg !6425
	%2069 = bitcast double** %..inline.addr.1840 to i8**, !dbg !6425
	store i8*  %2068, i8**  %2069, align 8, !tbaa !6534, !dbg !6425
	%2070 = load %struct._ZSt5arrayIdLm3EE*, %struct._ZSt5arrayIdLm3EE** %rghtPerB.addr, align 8, !tbaa !6534, !dbg !6425
	%2071 = bitcast %struct._ZSt5arrayIdLm3EE*  %2070 to i8*, !dbg !6425
	%2072 = getelementptr i8, i8*  %2071, i64 8, !dbg !6425
	%2073 = bitcast double** %..inline.addr.1850 to i8**, !dbg !6425
	store i8*  %2072, i8**  %2073, align 8, !tbaa !6534, !dbg !6425
	store double  0.00000000000000000E+0, double* %..inline.addr.1860, align 8, !tbaa !6540, !dbg !6425
	%2074 = load double*, double** %..inline.addr.1840, align 8, !tbaa !6534, !dbg !6425
	%2075 = load double, double*  %2074, align 8, !tbaa !6533, !dbg !6425
	%2076 = load double*, double** %..inline.addr.1830, align 8, !tbaa !6534, !dbg !6425
	%2077 = load double, double*  %2076, align 8, !tbaa !6533, !dbg !6425
	%2078 = fsub double  %2075,  %2077, !dbg !6425
	%2079 = load double*, double** %..inline.addr.1850, align 8, !tbaa !6534, !dbg !6425
	%2080 = load double, double*  %2079, align 8, !tbaa !6533, !dbg !6425
	%2081 = fsub double  %2080,  %2075, !dbg !6425
	%2082 = fmul double  %2078,  %2081, !dbg !6425
	store double  %2082, double* %..inline.addr.1870, align 8, !tbaa !6540, !dbg !6425
	%2083 = fcmp uge double  %2082,  0.00000000000000000E+0, !dbg !6425
	br i1  %2083, label %L..inline.80398, label %L.B2001, !dbg !6425
L.B2001:
	%2084 = bitcast double* %..inline.addr.1860 to i8*, !dbg !6425
	%2085 = bitcast double** %..inline.addr.1880 to i8**, !dbg !6425
	store i8*  %2084, i8**  %2085, align 8, !tbaa !6534, !dbg !6425
	br label %L..inline.80400, !dbg !6425
L..inline.80398:
	%2086 = bitcast double* %..inline.addr.1870 to i8*, !dbg !6425
	%2087 = bitcast double** %..inline.addr.1880 to i8**, !dbg !6425
	store i8*  %2086, i8**  %2087, align 8, !tbaa !6534, !dbg !6425
	br label %L..inline.80400
L..inline.80400:
	%2088 = load double*, double** %..inline.addr.1850, align 8, !tbaa !6534, !dbg !6425
	%2089 = load double, double*  %2088, align 8, !tbaa !6533, !dbg !6425
	%2090 = load double*, double** %..inline.addr.1830, align 8, !tbaa !6534, !dbg !6425
	%2091 = load double, double*  %2090, align 8, !tbaa !6533, !dbg !6425
	%2092 = fsub double  %2089,  %2091, !dbg !6425
	store double  %2092, double* %..inline.addr.1890, align 8, !tbaa !6540, !dbg !6425
	%2093 = call double @llvm.fabs.f64 (double  %2092), !dbg !6425
	%2094 = fcmp uge double  %2093,  2.22507385850720138E-308, !dbg !6425
	br i1  %2094, label %L..inline.80402, label %L.B2002, !dbg !6425
L.B2002:
	store double  0.00000000000000000E+0, double* %..inline.addr.1900, align 8, !tbaa !6540, !dbg !6425
	br label %L..inline.80404, !dbg !6425
L..inline.80402:
	%2095 = load double*, double** %..inline.addr.1880, align 8, !tbaa !6534, !dbg !6425
	%2096 = load double, double*  %2095, align 8, !tbaa !6533, !dbg !6425
	%2097 = fadd double  %2096,  %2096, !dbg !6425
	%2098 = load double, double* %..inline.addr.1890, align 8, !tbaa !6540, !dbg !6425
	%2099 = fdiv double  %2097,  %2098, !dbg !6425
	store double  %2099, double* %..inline.addr.1900, align 8, !tbaa !6540, !dbg !6425
	br label %L..inline.80404
L..inline.80404:
	%2100 = load double, double* %..inline.addr.1900, align 8, !tbaa !6540, !dbg !6426
	%2101 = load double*, double** %..inline.addr.1820, align 8, !tbaa !6534, !dbg !6426
	store double  %2100, double*  %2101, align 8, !tbaa !6533, !dbg !6426
	%2102 = load %struct._ZSt5arrayIdLm15EE*, %struct._ZSt5arrayIdLm15EE** %dPerB.addr, align 8, !tbaa !6534, !dbg !6424
	%2103 = bitcast %struct._ZSt5arrayIdLm15EE*  %2102 to i8*, !dbg !6424
	%2104 = getelementptr i8, i8*  %2103, i64 32, !dbg !6424
	%2105 = bitcast double** %..inline.addr.1910 to i8**, !dbg !6424
	store i8*  %2104, i8**  %2105, align 8, !tbaa !6534, !dbg !6424
	%2106 = load %struct._ZSt5arrayIdLm3EE*, %struct._ZSt5arrayIdLm3EE** %leftPerB.addr, align 8, !tbaa !6534, !dbg !6425
	%2107 = bitcast %struct._ZSt5arrayIdLm3EE*  %2106 to i8*, !dbg !6425
	%2108 = getelementptr i8, i8*  %2107, i64 16, !dbg !6425
	%2109 = bitcast double** %..inline.addr.1920 to i8**, !dbg !6425
	store i8*  %2108, i8**  %2109, align 8, !tbaa !6534, !dbg !6425
	%2110 = load %struct._ZSt5arrayIdLm3EE*, %struct._ZSt5arrayIdLm3EE** %centPerB.addr, align 8, !tbaa !6534, !dbg !6425
	%2111 = bitcast %struct._ZSt5arrayIdLm3EE*  %2110 to i8*, !dbg !6425
	%2112 = getelementptr i8, i8*  %2111, i64 16, !dbg !6425
	%2113 = bitcast double** %..inline.addr.1930 to i8**, !dbg !6425
	store i8*  %2112, i8**  %2113, align 8, !tbaa !6534, !dbg !6425
	%2114 = load %struct._ZSt5arrayIdLm3EE*, %struct._ZSt5arrayIdLm3EE** %rghtPerB.addr, align 8, !tbaa !6534, !dbg !6425
	%2115 = bitcast %struct._ZSt5arrayIdLm3EE*  %2114 to i8*, !dbg !6425
	%2116 = getelementptr i8, i8*  %2115, i64 16, !dbg !6425
	%2117 = bitcast double** %..inline.addr.1940 to i8**, !dbg !6425
	store i8*  %2116, i8**  %2117, align 8, !tbaa !6534, !dbg !6425
	store double  0.00000000000000000E+0, double* %..inline.addr.1950, align 8, !tbaa !6540, !dbg !6425
	%2118 = load double*, double** %..inline.addr.1930, align 8, !tbaa !6534, !dbg !6425
	%2119 = load double, double*  %2118, align 8, !tbaa !6533, !dbg !6425
	%2120 = load double*, double** %..inline.addr.1920, align 8, !tbaa !6534, !dbg !6425
	%2121 = load double, double*  %2120, align 8, !tbaa !6533, !dbg !6425
	%2122 = fsub double  %2119,  %2121, !dbg !6425
	%2123 = load double*, double** %..inline.addr.1940, align 8, !tbaa !6534, !dbg !6425
	%2124 = load double, double*  %2123, align 8, !tbaa !6533, !dbg !6425
	%2125 = fsub double  %2124,  %2119, !dbg !6425
	%2126 = fmul double  %2122,  %2125, !dbg !6425
	store double  %2126, double* %..inline.addr.1960, align 8, !tbaa !6540, !dbg !6425
	%2127 = fcmp uge double  %2126,  0.00000000000000000E+0, !dbg !6425
	br i1  %2127, label %L..inline.80494, label %L.B2003, !dbg !6425
L.B2003:
	%2128 = bitcast double* %..inline.addr.1950 to i8*, !dbg !6425
	%2129 = bitcast double** %..inline.addr.1970 to i8**, !dbg !6425
	store i8*  %2128, i8**  %2129, align 8, !tbaa !6534, !dbg !6425
	br label %L..inline.80496, !dbg !6425
L..inline.80494:
	%2130 = bitcast double* %..inline.addr.1960 to i8*, !dbg !6425
	%2131 = bitcast double** %..inline.addr.1970 to i8**, !dbg !6425
	store i8*  %2130, i8**  %2131, align 8, !tbaa !6534, !dbg !6425
	br label %L..inline.80496
L..inline.80496:
	%2132 = load double*, double** %..inline.addr.1940, align 8, !tbaa !6534, !dbg !6425
	%2133 = load double, double*  %2132, align 8, !tbaa !6533, !dbg !6425
	%2134 = load double*, double** %..inline.addr.1920, align 8, !tbaa !6534, !dbg !6425
	%2135 = load double, double*  %2134, align 8, !tbaa !6533, !dbg !6425
	%2136 = fsub double  %2133,  %2135, !dbg !6425
	store double  %2136, double* %..inline.addr.1980, align 8, !tbaa !6540, !dbg !6425
	%2137 = call double @llvm.fabs.f64 (double  %2136), !dbg !6425
	%2138 = fcmp uge double  %2137,  2.22507385850720138E-308, !dbg !6425
	br i1  %2138, label %L..inline.80498, label %L.B2004, !dbg !6425
L.B2004:
	store double  0.00000000000000000E+0, double* %..inline.addr.1990, align 8, !tbaa !6540, !dbg !6425
	br label %L..inline.80500, !dbg !6425
L..inline.80498:
	%2139 = load double*, double** %..inline.addr.1970, align 8, !tbaa !6534, !dbg !6425
	%2140 = load double, double*  %2139, align 8, !tbaa !6533, !dbg !6425
	%2141 = fadd double  %2140,  %2140, !dbg !6425
	%2142 = load double, double* %..inline.addr.1980, align 8, !tbaa !6540, !dbg !6425
	%2143 = fdiv double  %2141,  %2142, !dbg !6425
	store double  %2143, double* %..inline.addr.1990, align 8, !tbaa !6540, !dbg !6425
	br label %L..inline.80500
L..inline.80500:
	%2144 = load double, double* %..inline.addr.1990, align 8, !tbaa !6540, !dbg !6426
	%2145 = load double*, double** %..inline.addr.1910, align 8, !tbaa !6534, !dbg !6426
	store double  %2144, double*  %2145, align 8, !tbaa !6533, !dbg !6426
	%2146 = load i32, i32* @_ZN10Parameters11ohmHallTermE, align 4, !tbaa !6536, !dbg !6427
	%2147 = icmp ult i32  %2146, 2, !dbg !6427
	br i1  %2147, label %L.B0003, label %L.B2005, !dbg !6427
L.B2005:
	%2148 = load i32, i32* %sysBoundaryLayer.addr, align 4, !tbaa !6536, !dbg !6427
	%2149 = icmp ne i32  %2148, 1, !dbg !6427
	br i1  %2149, label %L.B0002, label %L.B0003, !dbg !6427
L.B0003:
	%2150 = load %struct._ZSt5arrayIdLm15EE*, %struct._ZSt5arrayIdLm15EE** %dPerB.addr, align 8, !tbaa !6534, !dbg !6430
	%2151 = bitcast %struct._ZSt5arrayIdLm15EE*  %2150 to i8*, !dbg !6430
	%2152 = getelementptr i8, i8*  %2151, i64 72, !dbg !6430
	%2153 = bitcast i8*  %2152 to double*, !dbg !6430
	store double  0.00000000000000000E+0, double*  %2153, align 8, !tbaa !6533, !dbg !6430
	%2154 = getelementptr i8, i8*  %2151, i64 96, !dbg !6430
	%2155 = bitcast i8*  %2154 to double*, !dbg !6430
	store double  0.00000000000000000E+0, double*  %2155, align 8, !tbaa !6533, !dbg !6430
	br label %L.B0004, !dbg !6431
L.B0002:
	%2156 = load %struct._ZSt5arrayIdLm3EE*, %struct._ZSt5arrayIdLm3EE** %rghtPerB.addr, align 8, !tbaa !6534, !dbg !6430
	%2157 = bitcast %struct._ZSt5arrayIdLm3EE*  %2156 to i8*, !dbg !6430
	%2158 = getelementptr i8, i8*  %2157, i64 8, !dbg !6430
	%2159 = bitcast i8*  %2158 to double*, !dbg !6430
	%2160 = load double, double*  %2159, align 8, !tbaa !6533, !dbg !6430
	%2161 = load %struct._ZSt5arrayIdLm3EE*, %struct._ZSt5arrayIdLm3EE** %leftPerB.addr, align 8, !tbaa !6534, !dbg !6430
	%2162 = bitcast %struct._ZSt5arrayIdLm3EE*  %2161 to i8*, !dbg !6430
	%2163 = getelementptr i8, i8*  %2162, i64 8, !dbg !6430
	%2164 = bitcast i8*  %2163 to double*, !dbg !6430
	%2165 = load double, double*  %2164, align 8, !tbaa !6533, !dbg !6430
	%2166 = fadd double  %2160,  %2165, !dbg !6430
	%2167 = load %struct._ZSt5arrayIdLm3EE*, %struct._ZSt5arrayIdLm3EE** %centPerB.addr, align 8, !tbaa !6534, !dbg !6430
	%2168 = bitcast %struct._ZSt5arrayIdLm3EE*  %2167 to i8*, !dbg !6430
	%2169 = getelementptr i8, i8*  %2168, i64 8, !dbg !6430
	%2170 = bitcast i8*  %2169 to double*, !dbg !6430
	%2171 = load double, double*  %2170, align 8, !tbaa !6533, !dbg !6430
	%2172 = fadd double  %2171,  %2171, !dbg !6430
	%2173 = fsub double  %2166,  %2172, !dbg !6430
	%2174 = load %struct._ZSt5arrayIdLm15EE*, %struct._ZSt5arrayIdLm15EE** %dPerB.addr, align 8, !tbaa !6534, !dbg !6430
	%2175 = bitcast %struct._ZSt5arrayIdLm15EE*  %2174 to i8*, !dbg !6430
	%2176 = getelementptr i8, i8*  %2175, i64 72, !dbg !6430
	%2177 = bitcast i8*  %2176 to double*, !dbg !6430
	store double  %2173, double*  %2177, align 8, !tbaa !6533, !dbg !6430
	%2178 = getelementptr i8, i8*  %2157, i64 16, !dbg !6430
	%2179 = bitcast i8*  %2178 to double*, !dbg !6430
	%2180 = load double, double*  %2179, align 8, !tbaa !6533, !dbg !6430
	%2181 = getelementptr i8, i8*  %2162, i64 16, !dbg !6430
	%2182 = bitcast i8*  %2181 to double*, !dbg !6430
	%2183 = load double, double*  %2182, align 8, !tbaa !6533, !dbg !6430
	%2184 = fadd double  %2180,  %2183, !dbg !6430
	%2185 = getelementptr i8, i8*  %2168, i64 16, !dbg !6430
	%2186 = bitcast i8*  %2185 to double*, !dbg !6430
	%2187 = load double, double*  %2186, align 8, !tbaa !6533, !dbg !6430
	%2188 = fadd double  %2187,  %2187, !dbg !6430
	%2189 = fsub double  %2184,  %2188, !dbg !6430
	%2190 = getelementptr i8, i8*  %2175, i64 96, !dbg !6430
	%2191 = bitcast i8*  %2190 to double*, !dbg !6430
	store double  %2189, double*  %2191, align 8, !tbaa !6533, !dbg !6430
	br label %L.B0005, !dbg !6432
L.B0000:
	%2192 = load i32, i32* %sysBoundaryFlag.addr, align 4, !tbaa !6536, !dbg !6433
	%2193 = icmp ne i32  %2192, 1, !dbg !6433
	br i1  %2193, label %L.B0007, label %L.B2006, !dbg !6433
L.B2006:
	store i32 0, i32* %_T32656592_51349.addr, align 4, !tbaa !6536, !dbg !6434
	%2194 = load %struct._Z6FsGridISt5arrayIdLm15EELi2EE*, %struct._Z6FsGridISt5arrayIdLm15EELi2EE** %dPerBGrid.addr, align 8, !tbaa !6534, !dbg !6434
	%2195 = load %struct._Z6FsGridISt5arrayIdLm24EELi2EE*, %struct._Z6FsGridISt5arrayIdLm24EELi2EE** %dMomentsGrid.addr, align 8, !tbaa !6534, !dbg !6434
	%2196 = load i32, i32* %i.addr, align 4, !tbaa !6536, !dbg !6434
	%2197 = load i32, i32* %j.addr, align 4, !tbaa !6536, !dbg !6434
	%2198 = load i32, i32* %k.addr, align 4, !tbaa !6536, !dbg !6434
	call void  @_ZN3SBC20SysBoundaryCondition24setCellDerivativesToZeroER6FsGridISt5arrayIdLm15EELi2EERS1_IS2_IdLm24EELi2EEiiiRKj (%struct._Z6FsGridISt5arrayIdLm15EELi2EE*  %2194, %struct._Z6FsGridISt5arrayIdLm24EELi2EE*  %2195, i32  %2196, i32  %2197, i32  %2198, i32* %_T32656592_51349.addr), !dbg !6434
	br label %L.B0010, !dbg !6435
L.B0007:
	%2199 = load %struct.SysBoundary*, %struct.SysBoundary** %sysBoundaries.addr, align 8, !tbaa !6534, !dbg !6436
	%2200 = load i32, i32* %sysBoundaryFlag.addr, align 4, !tbaa !6536, !dbg !6436
	%2201 = call %struct._ZN3SBC20SysBoundaryConditionE*  @_ZNK11SysBoundary14getSysBoundaryEj (%struct.SysBoundary*  %2199, i32  %2200), !dbg !6436
	%2202 = bitcast %struct._ZN3SBC20SysBoundaryConditionE*  %2201 to i8*, !dbg !6436
	%2203 = bitcast %struct._ZN3SBC20SysBoundaryConditionE** %.Q0000.addr to i8**, !dbg !6436
	store i8*  %2202, i8**  %2203, align 8, !tbaa !6534, !dbg !6436
	%2204 = load %struct._ZN3SBC20SysBoundaryConditionE*, %struct._ZN3SBC20SysBoundaryConditionE** %.Q0000.addr, align 8, !tbaa !6534, !dbg !6436
	%2205 = bitcast %struct._ZN3SBC20SysBoundaryConditionE*  %2204 to i8*, !dbg !6436
	%2206 = bitcast %struct._ZN3SBC20SysBoundaryConditionE** %_T32657480_51349.addr to i8**, !dbg !6436
	store i8*  %2205, i8**  %2206, align 8, !tbaa !6534, !dbg !6436
	%2207 = load i32*, i32** %RKCase.addr, align 8, !tbaa !6534, !dbg !6436
	%2208 = load i32, i32*  %2207, align 4, !tbaa !6533, !dbg !6436
	store i32  %2208, i32* %_T32656888_51349.addr, align 4, !tbaa !6536, !dbg !6436
	store i32 0, i32* %_T32657184_51349.addr, align 4, !tbaa !6536, !dbg !6436
	%2209 = load %struct._ZN3SBC20SysBoundaryConditionE*, %struct._ZN3SBC20SysBoundaryConditionE** %_T32657480_51349.addr, align 8, !tbaa !6534, !dbg !6436
	%2210 = load %struct._Z6FsGridISt5arrayIdLm15EELi2EE*, %struct._Z6FsGridISt5arrayIdLm15EELi2EE** %dPerBGrid.addr, align 8, !tbaa !6534, !dbg !6436
	%2211 = load %struct._Z6FsGridISt5arrayIdLm24EELi2EE*, %struct._Z6FsGridISt5arrayIdLm24EELi2EE** %dMomentsGrid.addr, align 8, !tbaa !6534, !dbg !6436
	%2212 = load i32, i32* %i.addr, align 4, !tbaa !6536, !dbg !6436
	%2213 = load i32, i32* %j.addr, align 4, !tbaa !6536, !dbg !6436
	%2214 = load i32, i32* %k.addr, align 4, !tbaa !6536, !dbg !6436
	%2215 = bitcast %struct._ZN3SBC20SysBoundaryConditionE*  %2209 to i8**, !dbg !6436
	%2216 = load i8*, i8**  %2215, align 8, !tbaa !6534, !dbg !6436
	%2217 = getelementptr i8, i8*  %2216, i64 80, !dbg !6436
	%2218 = bitcast i8*  %2217 to void (%struct._ZN3SBC20SysBoundaryConditionE*, %struct._Z6FsGridISt5arrayIdLm15EELi2EE*, %struct._Z6FsGridISt5arrayIdLm24EELi2EE*, i32, i32, i32, i32*, i32*)**, !dbg !6436
	%2219 = load void (%struct._ZN3SBC20SysBoundaryConditionE*, %struct._Z6FsGridISt5arrayIdLm15EELi2EE*, %struct._Z6FsGridISt5arrayIdLm24EELi2EE*, i32, i32, i32, i32*, i32*)*, void (%struct._ZN3SBC20SysBoundaryConditionE*, %struct._Z6FsGridISt5arrayIdLm15EELi2EE*, %struct._Z6FsGridISt5arrayIdLm24EELi2EE*, i32, i32, i32, i32*, i32*)**  %2218, align 8, !tbaa !6534, !dbg !6436
	call void  %2219 (%struct._ZN3SBC20SysBoundaryConditionE*  %2209, %struct._Z6FsGridISt5arrayIdLm15EELi2EE*  %2210, %struct._Z6FsGridISt5arrayIdLm24EELi2EE*  %2211, i32  %2212, i32  %2213, i32  %2214, i32* %_T32656888_51349.addr, i32* %_T32657184_51349.addr), !dbg !6436
	br label %L.B0010
L.B0010:
	br label %L.B0004
L.B0004:
	br label %L.B0005
L.B0005:
	%2220 = load i32, i32* %sysBoundaryFlag.addr, align 4, !tbaa !6536, !dbg !6437
	%2221 = icmp eq i32  %2220, 1, !dbg !6437
	br i1  %2221, label %L.B0015, label %L.B2007, !dbg !6437
L.B2007:
	%2222 = load i32, i32* %sysBoundaryLayer.addr, align 4, !tbaa !6536, !dbg !6437
	%2223 = icmp ne i32  %2222, 1, !dbg !6437
	br i1  %2223, label %L.B0014, label %L.B0015, !dbg !6437
L.B0015:
	%2224 = load %struct._Z6FsGridISt5arrayIdLm3EELi2EE*, %struct._Z6FsGridISt5arrayIdLm3EELi2EE** %perBGrid.addr, align 8, !tbaa !6534, !dbg !6438
	%2225 = bitcast %struct._Z6FsGridISt5arrayIdLm3EELi2EE*  %2224 to i8*, !dbg !6438
	%2226 = bitcast %struct._Z6FsGridISt5arrayIdLm3EELi2EE** %..inline.addr.2050 to i8**, !dbg !6438
	store i8*  %2225, i8**  %2226, align 8, !tbaa !6534, !dbg !6438
	%2227 = load i32, i32* %i.addr, align 4, !tbaa !6536, !dbg !6438
	store i32  %2227, i32* %..inline.addr.2060, align 4, !tbaa !6536, !dbg !6438
	%2228 = load i32, i32* %j.addr, align 4, !tbaa !6536, !dbg !6438
	%2229 = sub i32  %2228, 1, !dbg !6438
	store i32  %2229, i32* %..inline.addr.2070, align 4, !tbaa !6536, !dbg !6438
	%2230 = load i32, i32* %k.addr, align 4, !tbaa !6536, !dbg !6438
	store i32  %2230, i32* %..inline.addr.2080, align 4, !tbaa !6536, !dbg !6438
	store i32 13, i32* %..inline.addr.2090, align 4, !tbaa !6536, !dbg !6438
	%2231 = bitcast [3 x i32]* %..inline.addr.2100 to i32*, !dbg !6380
	store i32 0, i32*  %2231, align 4, !tbaa !6533, !dbg !6380
	%2232 = bitcast [3 x i32]* %..inline.addr.2100 to i8*, !dbg !6381
	%2233 = getelementptr i8, i8*  %2232, i64 4, !dbg !6381
	%2234 = bitcast i8*  %2233 to i32*, !dbg !6381
	store i32 0, i32*  %2234, align 4, !tbaa !6533, !dbg !6381
	%2235 = getelementptr i8, i8*  %2232, i64 8, !dbg !6381
	%2236 = bitcast i8*  %2235 to i32*, !dbg !6381
	store i32 0, i32*  %2236, align 4, !tbaa !6533, !dbg !6381
	%2237 = icmp sge i32  %2227, 0, !dbg !6381
	br i1  %2237, label %L..inline.80674, label %L.B2008, !dbg !6381
L.B2008:
	store i32 4, i32* %..inline.addr.2090, align 4, !tbaa !6536, !dbg !6382
	%2238 = bitcast [3 x i32]* %..inline.addr.2100 to i32*, !dbg !6383
	store i32 1, i32*  %2238, align 4, !tbaa !6533, !dbg !6383
	br label %L..inline.80674
L..inline.80674:
	%2239 = load i32, i32* %..inline.addr.2060, align 4, !tbaa !6536, !dbg !6384
	%2240 = load %struct._Z6FsGridISt5arrayIdLm3EELi2EE*, %struct._Z6FsGridISt5arrayIdLm3EELi2EE** %..inline.addr.2050, align 8, !tbaa !6534, !dbg !6384
	%2241 = bitcast %struct._Z6FsGridISt5arrayIdLm3EELi2EE*  %2240 to i8*, !dbg !6384
	%2242 = getelementptr i8, i8*  %2241, i64 264, !dbg !6384
	%2243 = bitcast i8*  %2242 to i32*, !dbg !6384
	%2244 = load i32, i32*  %2243, align 4, !tbaa !6533, !dbg !6384
	%2245 = icmp slt i32  %2239,  %2244, !dbg !6384
	br i1  %2245, label %L..inline.80692, label %L.B2009, !dbg !6384
L.B2009:
	%2246 = load i32, i32* %..inline.addr.2090, align 4, !tbaa !6536, !dbg !6384
	%2247 = add i32  %2246, 9, !dbg !6384
	store i32  %2247, i32* %..inline.addr.2090, align 4, !tbaa !6536, !dbg !6384
	%2248 = bitcast [3 x i32]* %..inline.addr.2100 to i32*, !dbg !6385
	store i32 -1, i32*  %2248, align 4, !tbaa !6533, !dbg !6385
	br label %L..inline.80692
L..inline.80692:
	%2249 = load i32, i32* %..inline.addr.2070, align 4, !tbaa !6536, !dbg !6386
	%2250 = icmp sge i32  %2249, 0, !dbg !6386
	br i1  %2250, label %L..inline.80694, label %L.B2010, !dbg !6386
L.B2010:
	%2251 = load i32, i32* %..inline.addr.2090, align 4, !tbaa !6536, !dbg !6386
	%2252 = sub i32  %2251, 3, !dbg !6386
	store i32  %2252, i32* %..inline.addr.2090, align 4, !tbaa !6536, !dbg !6386
	%2253 = bitcast [3 x i32]* %..inline.addr.2100 to i8*, !dbg !6387
	%2254 = getelementptr i8, i8*  %2253, i64 4, !dbg !6387
	%2255 = bitcast i8*  %2254 to i32*, !dbg !6387
	store i32 1, i32*  %2255, align 4, !tbaa !6533, !dbg !6387
	br label %L..inline.80694
L..inline.80694:
	%2256 = load i32, i32* %..inline.addr.2070, align 4, !tbaa !6536, !dbg !6388
	%2257 = load %struct._Z6FsGridISt5arrayIdLm3EELi2EE*, %struct._Z6FsGridISt5arrayIdLm3EELi2EE** %..inline.addr.2050, align 8, !tbaa !6534, !dbg !6388
	%2258 = bitcast %struct._Z6FsGridISt5arrayIdLm3EELi2EE*  %2257 to i8*, !dbg !6388
	%2259 = getelementptr i8, i8*  %2258, i64 268, !dbg !6388
	%2260 = bitcast i8*  %2259 to i32*, !dbg !6388
	%2261 = load i32, i32*  %2260, align 4, !tbaa !6533, !dbg !6388
	%2262 = icmp slt i32  %2256,  %2261, !dbg !6388
	br i1  %2262, label %L..inline.80711, label %L.B2011, !dbg !6388
L.B2011:
	%2263 = load i32, i32* %..inline.addr.2090, align 4, !tbaa !6536, !dbg !6388
	%2264 = add i32  %2263, 3, !dbg !6388
	store i32  %2264, i32* %..inline.addr.2090, align 4, !tbaa !6536, !dbg !6388
	%2265 = bitcast [3 x i32]* %..inline.addr.2100 to i8*, !dbg !6389
	%2266 = getelementptr i8, i8*  %2265, i64 4, !dbg !6389
	%2267 = bitcast i8*  %2266 to i32*, !dbg !6389
	store i32 -1, i32*  %2267, align 4, !tbaa !6533, !dbg !6389
	br label %L..inline.80711
L..inline.80711:
	%2268 = load i32, i32* %..inline.addr.2080, align 4, !tbaa !6536, !dbg !6390
	%2269 = icmp sge i32  %2268, 0, !dbg !6390
	br i1  %2269, label %L..inline.80713, label %L.B2012, !dbg !6390
L.B2012:
	%2270 = load i32, i32* %..inline.addr.2090, align 4, !tbaa !6536, !dbg !6390
	%2271 = sub i32  %2270, 1, !dbg !6390
	store i32  %2271, i32* %..inline.addr.2090, align 4, !tbaa !6536, !dbg !6390
	%2272 = bitcast [3 x i32]* %..inline.addr.2100 to i8*, !dbg !6391
	%2273 = getelementptr i8, i8*  %2272, i64 8, !dbg !6391
	%2274 = bitcast i8*  %2273 to i32*, !dbg !6391
	store i32 1, i32*  %2274, align 4, !tbaa !6533, !dbg !6391
	br label %L..inline.80713
L..inline.80713:
	%2275 = load i32, i32* %..inline.addr.2080, align 4, !tbaa !6536, !dbg !6392
	%2276 = load %struct._Z6FsGridISt5arrayIdLm3EELi2EE*, %struct._Z6FsGridISt5arrayIdLm3EELi2EE** %..inline.addr.2050, align 8, !tbaa !6534, !dbg !6392
	%2277 = bitcast %struct._Z6FsGridISt5arrayIdLm3EELi2EE*  %2276 to i8*, !dbg !6392
	%2278 = getelementptr i8, i8*  %2277, i64 272, !dbg !6392
	%2279 = bitcast i8*  %2278 to i32*, !dbg !6392
	%2280 = load i32, i32*  %2279, align 4, !tbaa !6533, !dbg !6392
	%2281 = icmp slt i32  %2275,  %2280, !dbg !6392
	br i1  %2281, label %L..inline.80730, label %L.B2013, !dbg !6392
L.B2013:
	%2282 = load i32, i32* %..inline.addr.2090, align 4, !tbaa !6536, !dbg !6392
	%2283 = add i32  %2282, 1, !dbg !6392
	store i32  %2283, i32* %..inline.addr.2090, align 4, !tbaa !6536, !dbg !6392
	%2284 = bitcast [3 x i32]* %..inline.addr.2100 to i8*, !dbg !6393
	%2285 = getelementptr i8, i8*  %2284, i64 8, !dbg !6393
	%2286 = bitcast i8*  %2285 to i32*, !dbg !6393
	store i32 -1, i32*  %2286, align 4, !tbaa !6533, !dbg !6393
	br label %L..inline.80730
L..inline.80730:
	%2287 = load i32, i32* %..inline.addr.2090, align 4, !tbaa !6536, !dbg !6394
	%2288 = icmp eq i32  %2287, 13, !dbg !6394
	br i1  %2288, label %L..inline.80731, label %L.B2014, !dbg !6394
L.B2014:
	%2289 = sext i32  %2287 to i64, !dbg !6395
	%2290 = load %struct._Z6FsGridISt5arrayIdLm3EELi2EE*, %struct._Z6FsGridISt5arrayIdLm3EELi2EE** %..inline.addr.2050, align 8, !tbaa !6534, !dbg !6395
	%2291 = bitcast %struct._Z6FsGridISt5arrayIdLm3EELi2EE*  %2290 to i8*, !dbg !6395
	%2292 = getelementptr i8, i8*  %2291, i64 92, !dbg !6395
	%2293 = bitcast i8*  %2292 to i32*, !dbg !6395
	%2294 = getelementptr i32, i32*  %2293, i64  %2289, !dbg !6395
	%2295 = load i32, i32*  %2294, align 4, !tbaa !6533, !dbg !6395
	%2296 = icmp ne i32  %2295, -2, !dbg !6395
	br i1  %2296, label %L..inline.80748, label %L.B2015, !dbg !6395
L.B2015:
	%2297 = bitcast %struct._ZSt5arrayIdLm3EE** %..inline.addr.2110 to i8**, !dbg !6395
	store i8* null, i8**  %2297, align 8, !tbaa !6534, !dbg !6395
	br label %L..inline.80935, !dbg !6396
L..inline.80748:
	%2298 = load i32, i32* %..inline.addr.2090, align 4, !tbaa !6536, !dbg !6397
	%2299 = sext i32  %2298 to i64, !dbg !6397
	%2300 = load %struct._Z6FsGridISt5arrayIdLm3EELi2EE*, %struct._Z6FsGridISt5arrayIdLm3EELi2EE** %..inline.addr.2050, align 8, !tbaa !6534, !dbg !6397
	%2301 = bitcast %struct._Z6FsGridISt5arrayIdLm3EELi2EE*  %2300 to i8*, !dbg !6397
	%2302 = getelementptr i8, i8*  %2301, i64 92, !dbg !6397
	%2303 = bitcast i8*  %2302 to i32*, !dbg !6397
	%2304 = getelementptr i32, i32*  %2303, i64  %2299, !dbg !6397
	%2305 = load i32, i32*  %2304, align 4, !tbaa !6533, !dbg !6397
	%2306 = getelementptr i8, i8*  %2301, i64 56, !dbg !6397
	%2307 = bitcast i8*  %2306 to i32*, !dbg !6397
	%2308 = load i32, i32*  %2307, align 4, !tbaa !6533, !dbg !6397
	%2309 = icmp ne i32  %2305,  %2308, !dbg !6397
	br i1  %2309, label %L..inline.80766, label %L.B2016, !dbg !6397
L.B2016:
	%2310 = load i32, i32* %..inline.addr.2060, align 4, !tbaa !6536, !dbg !6398
	%2311 = bitcast [3 x i32]* %..inline.addr.2100 to i32*, !dbg !6398
	%2312 = load i32, i32*  %2311, align 4, !tbaa !6533, !dbg !6398
	%2313 = bitcast %struct._Z6FsGridISt5arrayIdLm3EELi2EE*  %2300 to i8*, !dbg !6398
	%2314 = getelementptr i8, i8*  %2313, i64 264, !dbg !6398
	%2315 = bitcast i8*  %2314 to i32*, !dbg !6398
	%2316 = load i32, i32*  %2315, align 4, !tbaa !6533, !dbg !6398
	%2317 = mul i32  %2312,  %2316, !dbg !6398
	%2318 = add i32  %2310,  %2317, !dbg !6398
	store i32  %2318, i32* %..inline.addr.2060, align 4, !tbaa !6536, !dbg !6398
	%2319 = load i32, i32* %..inline.addr.2070, align 4, !tbaa !6536, !dbg !6399
	%2320 = bitcast [3 x i32]* %..inline.addr.2100 to i8*, !dbg !6399
	%2321 = getelementptr i8, i8*  %2320, i64 4, !dbg !6399
	%2322 = bitcast i8*  %2321 to i32*, !dbg !6399
	%2323 = load i32, i32*  %2322, align 4, !tbaa !6533, !dbg !6399
	%2324 = getelementptr i8, i8*  %2313, i64 268, !dbg !6399
	%2325 = bitcast i8*  %2324 to i32*, !dbg !6399
	%2326 = load i32, i32*  %2325, align 4, !tbaa !6533, !dbg !6399
	%2327 = mul i32  %2323,  %2326, !dbg !6399
	%2328 = add i32  %2319,  %2327, !dbg !6399
	store i32  %2328, i32* %..inline.addr.2070, align 4, !tbaa !6536, !dbg !6399
	%2329 = load i32, i32* %..inline.addr.2080, align 4, !tbaa !6536, !dbg !6400
	%2330 = getelementptr i8, i8*  %2320, i64 8, !dbg !6400
	%2331 = bitcast i8*  %2330 to i32*, !dbg !6400
	%2332 = load i32, i32*  %2331, align 4, !tbaa !6533, !dbg !6400
	%2333 = getelementptr i8, i8*  %2313, i64 272, !dbg !6400
	%2334 = bitcast i8*  %2333 to i32*, !dbg !6400
	%2335 = load i32, i32*  %2334, align 4, !tbaa !6533, !dbg !6400
	%2336 = mul i32  %2332,  %2335, !dbg !6400
	%2337 = add i32  %2329,  %2336, !dbg !6400
	store i32  %2337, i32* %..inline.addr.2080, align 4, !tbaa !6536, !dbg !6400
	br label %L..inline.80766
L..inline.80766:
	br label %L..inline.80731
L..inline.80731:
	store i64 0, i64* %..inline.addr.2120, align 8, !tbaa !6538, !dbg !6401
	%2338 = load %struct._Z6FsGridISt5arrayIdLm3EELi2EE*, %struct._Z6FsGridISt5arrayIdLm3EELi2EE** %..inline.addr.2050, align 8, !tbaa !6534, !dbg !6401
	%2339 = bitcast %struct._Z6FsGridISt5arrayIdLm3EELi2EE*  %2338 to i8*, !dbg !6401
	%2340 = getelementptr i8, i8*  %2339, i64 260, !dbg !6401
	%2341 = bitcast i8*  %2340 to i32*, !dbg !6401
	%2342 = load i32, i32*  %2341, align 4, !tbaa !6533, !dbg !6401
	%2343 = icmp sle i32  %2342, 1, !dbg !6401
	br i1  %2343, label %L..inline.80840, label %L.B2017, !dbg !6401
L.B2017:
	%2344 = load i32, i32* %..inline.addr.2080, align 4, !tbaa !6536, !dbg !6401
	%2345 = add i32  %2344, 2, !dbg !6401
	%2346 = bitcast %struct._Z6FsGridISt5arrayIdLm3EELi2EE*  %2338 to i8*, !dbg !6401
	%2347 = getelementptr i8, i8*  %2346, i64 280, !dbg !6401
	%2348 = bitcast i8*  %2347 to i32*, !dbg !6401
	%2349 = load i32, i32*  %2348, align 4, !tbaa !6533, !dbg !6401
	%2350 = getelementptr i8, i8*  %2346, i64 276, !dbg !6401
	%2351 = bitcast i8*  %2350 to i32*, !dbg !6401
	%2352 = load i32, i32*  %2351, align 4, !tbaa !6533, !dbg !6401
	%2353 = mul i32  %2349,  %2352, !dbg !6401
	%2354 = mul i32  %2345,  %2353, !dbg !6401
	%2355 = sext i32  %2354 to i64, !dbg !6401
	store i64  %2355, i64* %..inline.addr.2120, align 8, !tbaa !6538, !dbg !6401
	br label %L..inline.80840
L..inline.80840:
	%2356 = load %struct._Z6FsGridISt5arrayIdLm3EELi2EE*, %struct._Z6FsGridISt5arrayIdLm3EELi2EE** %..inline.addr.2050, align 8, !tbaa !6534, !dbg !6401
	%2357 = bitcast %struct._Z6FsGridISt5arrayIdLm3EELi2EE*  %2356 to i8*, !dbg !6401
	%2358 = getelementptr i8, i8*  %2357, i64 256, !dbg !6401
	%2359 = bitcast i8*  %2358 to i32*, !dbg !6401
	%2360 = load i32, i32*  %2359, align 4, !tbaa !6533, !dbg !6401
	%2361 = icmp sle i32  %2360, 1, !dbg !6401
	br i1  %2361, label %L..inline.80889, label %L.B2018, !dbg !6401
L.B2018:
	%2362 = load i64, i64* %..inline.addr.2120, align 8, !tbaa !6538, !dbg !6401
	%2363 = bitcast %struct._Z6FsGridISt5arrayIdLm3EELi2EE*  %2356 to i8*, !dbg !6401
	%2364 = getelementptr i8, i8*  %2363, i64 276, !dbg !6401
	%2365 = bitcast i8*  %2364 to i32*, !dbg !6401
	%2366 = load i32, i32*  %2365, align 4, !tbaa !6533, !dbg !6401
	%2367 = load i32, i32* %..inline.addr.2070, align 4, !tbaa !6536, !dbg !6401
	%2368 = add i32  %2367, 2, !dbg !6401
	%2369 = mul i32  %2366,  %2368, !dbg !6401
	%2370 = sext i32  %2369 to i64, !dbg !6401
	%2371 = add i64  %2362,  %2370, !dbg !6401
	store i64  %2371, i64* %..inline.addr.2120, align 8, !tbaa !6538, !dbg !6401
	br label %L..inline.80889
L..inline.80889:
	%2372 = load %struct._Z6FsGridISt5arrayIdLm3EELi2EE*, %struct._Z6FsGridISt5arrayIdLm3EELi2EE** %..inline.addr.2050, align 8, !tbaa !6534, !dbg !6401
	%2373 = bitcast %struct._Z6FsGridISt5arrayIdLm3EELi2EE*  %2372 to i8*, !dbg !6401
	%2374 = getelementptr i8, i8*  %2373, i64 252, !dbg !6401
	%2375 = bitcast i8*  %2374 to i32*, !dbg !6401
	%2376 = load i32, i32*  %2375, align 4, !tbaa !6533, !dbg !6401
	%2377 = icmp sle i32  %2376, 1, !dbg !6401
	%2378 = zext i1  %2377 to i32, !dbg !6401
	%2379 = trunc i32  %2378 to i1, !dbg !6401
	%2380 = load i64, i64* %..inline.addr.2120, align 8, !tbaa !6538, !dbg !6401
	%2381 = load i32, i32* %..inline.addr.2060, align 4, !tbaa !6536, !dbg !6401
	%2382 = sext i32  %2381 to i64, !dbg !6401
	%2383 = add i64  %2382, 2, !dbg !6401
	%2384 = add i64  %2380,  %2383, !dbg !6401
	%2385 = select i1  %2379, i64  %2380, i64  %2384, !dbg !6401
	%2386 = getelementptr i8, i8*  %2373, i64 744, !dbg !6402
	%2387 = bitcast i8*  %2386 to i8**, !dbg !6402
	%2388 = load i8*, i8**  %2387, align 8, !tbaa !6534, !dbg !6402
	%2389 = mul i64  %2385, 24, !dbg !6402
	%2390 = getelementptr i8, i8*  %2388, i64  %2389, !dbg !6402
	%2391 = bitcast %struct._ZSt5arrayIdLm3EE** %..inline.addr.2110 to i8**, !dbg !6402
	store i8*  %2390, i8**  %2391, align 8, !tbaa !6534, !dbg !6402
	br label %L..inline.80935
L..inline.80935:
	%2392 = load %struct._ZSt5arrayIdLm3EE*, %struct._ZSt5arrayIdLm3EE** %..inline.addr.2110, align 8, !tbaa !6534, !dbg !6403
	%2393 = bitcast %struct._ZSt5arrayIdLm3EE*  %2392 to i8*, !dbg !6403
	%2394 = bitcast %struct._ZSt5arrayIdLm3EE** %leftPerB.addr to i8**, !dbg !6403
	store i8*  %2393, i8**  %2394, align 8, !tbaa !6534, !dbg !6403
	%2395 = load %struct._Z6FsGridISt5arrayIdLm3EELi2EE*, %struct._Z6FsGridISt5arrayIdLm3EELi2EE** %perBGrid.addr, align 8, !tbaa !6534, !dbg !6439
	%2396 = bitcast %struct._Z6FsGridISt5arrayIdLm3EELi2EE*  %2395 to i8*, !dbg !6439
	%2397 = bitcast %struct._Z6FsGridISt5arrayIdLm3EELi2EE** %..inline.addr.2130 to i8**, !dbg !6439
	store i8*  %2396, i8**  %2397, align 8, !tbaa !6534, !dbg !6439
	%2398 = load i32, i32* %i.addr, align 4, !tbaa !6536, !dbg !6439
	store i32  %2398, i32* %..inline.addr.2140, align 4, !tbaa !6536, !dbg !6439
	%2399 = load i32, i32* %j.addr, align 4, !tbaa !6536, !dbg !6439
	%2400 = add i32  %2399, 1, !dbg !6439
	store i32  %2400, i32* %..inline.addr.2150, align 4, !tbaa !6536, !dbg !6439
	%2401 = load i32, i32* %k.addr, align 4, !tbaa !6536, !dbg !6439
	store i32  %2401, i32* %..inline.addr.2160, align 4, !tbaa !6536, !dbg !6439
	store i32 13, i32* %..inline.addr.2170, align 4, !tbaa !6536, !dbg !6439
	%2402 = bitcast [3 x i32]* %..inline.addr.2180 to i32*, !dbg !6380
	store i32 0, i32*  %2402, align 4, !tbaa !6533, !dbg !6380
	%2403 = bitcast [3 x i32]* %..inline.addr.2180 to i8*, !dbg !6381
	%2404 = getelementptr i8, i8*  %2403, i64 4, !dbg !6381
	%2405 = bitcast i8*  %2404 to i32*, !dbg !6381
	store i32 0, i32*  %2405, align 4, !tbaa !6533, !dbg !6381
	%2406 = getelementptr i8, i8*  %2403, i64 8, !dbg !6381
	%2407 = bitcast i8*  %2406 to i32*, !dbg !6381
	store i32 0, i32*  %2407, align 4, !tbaa !6533, !dbg !6381
	%2408 = icmp sge i32  %2398, 0, !dbg !6381
	br i1  %2408, label %L..inline.80941, label %L.B2019, !dbg !6381
L.B2019:
	store i32 4, i32* %..inline.addr.2170, align 4, !tbaa !6536, !dbg !6382
	%2409 = bitcast [3 x i32]* %..inline.addr.2180 to i32*, !dbg !6383
	store i32 1, i32*  %2409, align 4, !tbaa !6533, !dbg !6383
	br label %L..inline.80941
L..inline.80941:
	%2410 = load i32, i32* %..inline.addr.2140, align 4, !tbaa !6536, !dbg !6384
	%2411 = load %struct._Z6FsGridISt5arrayIdLm3EELi2EE*, %struct._Z6FsGridISt5arrayIdLm3EELi2EE** %..inline.addr.2130, align 8, !tbaa !6534, !dbg !6384
	%2412 = bitcast %struct._Z6FsGridISt5arrayIdLm3EELi2EE*  %2411 to i8*, !dbg !6384
	%2413 = getelementptr i8, i8*  %2412, i64 264, !dbg !6384
	%2414 = bitcast i8*  %2413 to i32*, !dbg !6384
	%2415 = load i32, i32*  %2414, align 4, !tbaa !6533, !dbg !6384
	%2416 = icmp slt i32  %2410,  %2415, !dbg !6384
	br i1  %2416, label %L..inline.80959, label %L.B2020, !dbg !6384
L.B2020:
