; ModuleID = 'projects/Diffusion/Diffusion.cpp'
target datalayout = "e-p:64:64-i64:64-f80:128-n8:16:32:64-S128"
target triple = "x86_64-pc-linux-gnu"
define internal void @pgCplus_compiled.() noinline {
L.entry:
	ret void
}


define linkonce_odr i8* @_ZnwmPv(i64 %_T20584024_52467.arg, i8* %__p.arg) #0 inlinehint !dbg !3987 {
L.entry:
	%_T20584024_52467.addr = alloca i64, align 8
	%__p.addr = alloca i8*, align 8

	call void @llvm.dbg.declare (metadata i64* %_T20584024_52467.addr, metadata !3991, metadata !3992), !dbg !3988
	store i64 %_T20584024_52467.arg, i64* %_T20584024_52467.addr, align 8, !tbaa !3999
	call void @llvm.dbg.declare (metadata i64* %_T20584024_52467.addr, metadata !3993, metadata !3992), !dbg !3988
	call void @llvm.dbg.declare (metadata i8** %__p.addr, metadata !3994, metadata !3992), !dbg !3988
	store i8* %__p.arg, i8** %__p.addr, align 8, !tbaa !4000
	call void @llvm.dbg.declare (metadata i8** %__p.addr, metadata !3995, metadata !3992), !dbg !3988
	%0 = load i8*, i8** %__p.addr, align 8, !tbaa !4000, !dbg !3996
	ret i8*  %0, !dbg !3996
}
define linkonce_odr void @_ZdlPvS_(i8* %_T20584024_52468.arg, i8* %_T20584320_52468.arg) #0 inlinehint !dbg !4004 {
L.entry:
	%_T20584024_52468.addr = alloca i8*, align 8
	%_T20584320_52468.addr = alloca i8*, align 8

	call void @llvm.dbg.declare (metadata i8** %_T20584024_52468.addr, metadata !4008, metadata !3992), !dbg !4005
	store i8* %_T20584024_52468.arg, i8** %_T20584024_52468.addr, align 8, !tbaa !4000
	call void @llvm.dbg.declare (metadata i8** %_T20584024_52468.addr, metadata !4009, metadata !3992), !dbg !4005
	call void @llvm.dbg.declare (metadata i8** %_T20584320_52468.addr, metadata !4010, metadata !3992), !dbg !4005
	store i8* %_T20584320_52468.arg, i8** %_T20584320_52468.addr, align 8, !tbaa !4000
	call void @llvm.dbg.declare (metadata i8** %_T20584320_52468.addr, metadata !4011, metadata !3992), !dbg !4005
	ret void, !dbg !4012
}

%struct.T3DFunction = type <{ i32 (...)* (...)*}> 

define linkonce_odr void @_ZN11T3DFunctionD1Ev(%struct.T3DFunction* %_T20584024_52853.arg) #0 inlinehint !dbg !4018 {
L.entry:
	%_T20584024_52853.addr = alloca %struct.T3DFunction*, align 8

	call void @llvm.dbg.declare (metadata %struct.T3DFunction** %_T20584024_52853.addr, metadata !4022, metadata !3992), !dbg !4019
	store %struct.T3DFunction* %_T20584024_52853.arg, %struct.T3DFunction** %_T20584024_52853.addr, align 8, !tbaa !4000
	call void @llvm.dbg.declare (metadata %struct.T3DFunction** %_T20584024_52853.addr, metadata !4023, metadata !3992), !dbg !4019
	%0 = bitcast [5 x i32 (...)* (...)*]* @_ZTV11T3DFunction to i8*, !dbg !4024
	%1 = getelementptr i8, i8*  %0, i64 16, !dbg !4024
	%2 = load %struct.T3DFunction*, %struct.T3DFunction** %_T20584024_52853.addr, align 8, !tbaa !4000, !dbg !4024
	%3 = bitcast %struct.T3DFunction*  %2 to i8**, !dbg !4024
	store i8*  %1, i8**  %3, align 8, !tbaa !4000, !dbg !4024
	ret void, !dbg !4024
}
define linkonce_odr void @_ZN11T3DFunctionD0Ev(%struct.T3DFunction* %_T20584024_52854.arg) #0 inlinehint !dbg !4029 {
L.entry:
	%_T20584024_52854.addr = alloca %struct.T3DFunction*, align 8

	store %struct.T3DFunction* %_T20584024_52854.arg, %struct.T3DFunction** %_T20584024_52854.addr, align 8, !tbaa !4000
	%0 = bitcast [5 x i32 (...)* (...)*]* @_ZTV11T3DFunction to i8*, !dbg !4037
	%1 = getelementptr i8, i8*  %0, i64 16, !dbg !4037
	%2 = load %struct.T3DFunction*, %struct.T3DFunction** %_T20584024_52854.addr, align 8, !tbaa !4000, !dbg !4037
	%3 = bitcast %struct.T3DFunction*  %2 to i8**, !dbg !4037
	store i8*  %1, i8**  %3, align 8, !tbaa !4000, !dbg !4037
	%4 = bitcast %struct.T3DFunction*  %2 to i8*, !dbg !4037
	call void  @_ZdlPvm (i8*  %4, i64 8) nounwind, !dbg !4037
	ret void, !dbg !4037
}
define linkonce_odr void @_ZN11T3DFunctionD2Ev(%struct.T3DFunction* %_T20584024_52855.arg) #0 inlinehint !dbg !4039 {
L.entry:
	%_T20584024_52855.addr = alloca %struct.T3DFunction*, align 8

	store %struct.T3DFunction* %_T20584024_52855.arg, %struct.T3DFunction** %_T20584024_52855.addr, align 8, !tbaa !4000
	%0 = bitcast [5 x i32 (...)* (...)*]* @_ZTV11T3DFunction to i8*, !dbg !4047
	%1 = getelementptr i8, i8*  %0, i64 16, !dbg !4047
	%2 = load %struct.T3DFunction*, %struct.T3DFunction** %_T20584024_52855.addr, align 8, !tbaa !4000, !dbg !4047
	%3 = bitcast %struct.T3DFunction*  %2 to i8**, !dbg !4047
	store i8*  %1, i8**  %3, align 8, !tbaa !4000, !dbg !4047
	ret void, !dbg !4047
}
define linkonce_odr void @_ZN11T3DFunctionC1Ev(%struct.T3DFunction* %_T20584024_52856.arg) #0 inlinehint !dbg !4049 {
L.entry:
	%_T20584024_52856.addr = alloca %struct.T3DFunction*, align 8

	call void @llvm.dbg.declare (metadata %struct.T3DFunction** %_T20584024_52856.addr, metadata !4053, metadata !3992), !dbg !4050
	store %struct.T3DFunction* %_T20584024_52856.arg, %struct.T3DFunction** %_T20584024_52856.addr, align 8, !tbaa !4000
	call void @llvm.dbg.declare (metadata %struct.T3DFunction** %_T20584024_52856.addr, metadata !4054, metadata !3992), !dbg !4050
	%0 = bitcast [5 x i32 (...)* (...)*]* @_ZTV11T3DFunction to i8*, !dbg !4055
	%1 = getelementptr i8, i8*  %0, i64 16, !dbg !4055
	%2 = load %struct.T3DFunction*, %struct.T3DFunction** %_T20584024_52856.addr, align 8, !tbaa !4000, !dbg !4055
	%3 = bitcast %struct.T3DFunction*  %2 to i8**, !dbg !4055
	store i8*  %1, i8**  %3, align 8, !tbaa !4000, !dbg !4055
	ret void, !dbg !4055
}
define linkonce_odr void @_ZN11T3DFunctionC2Ev(%struct.T3DFunction* %_T20584024_52857.arg) #0 inlinehint !dbg !4057 {
L.entry:
	%_T20584024_52857.addr = alloca %struct.T3DFunction*, align 8

	store %struct.T3DFunction* %_T20584024_52857.arg, %struct.T3DFunction** %_T20584024_52857.addr, align 8, !tbaa !4000
	%0 = bitcast [5 x i32 (...)* (...)*]* @_ZTV11T3DFunction to i8*, !dbg !4065
	%1 = getelementptr i8, i8*  %0, i64 16, !dbg !4065
	%2 = load %struct.T3DFunction*, %struct.T3DFunction** %_T20584024_52857.addr, align 8, !tbaa !4000, !dbg !4065
	%3 = bitcast %struct.T3DFunction*  %2 to i8**, !dbg !4065
	store i8*  %1, i8**  %3, align 8, !tbaa !4000, !dbg !4065
	ret void, !dbg !4065
}

%astruct.dt64 = type <{ i8*, i32}> 
%struct.FieldFunction = type <{ %struct.T3DFunction, i32, i32, i32, [4 x i8]}> 

define linkonce_odr void @_ZN13FieldFunctionC1Ev(%struct.FieldFunction* %_T20584024_52858.arg) #0 inlinehint personality i8* bitcast (i32 (...)* @__gxx_personality_v0 to i8*) !dbg !4072 {
L.entry:
	%_T20584024_52858.addr = alloca %struct.FieldFunction*, align 8

	call void @llvm.dbg.declare (metadata %struct.FieldFunction** %_T20584024_52858.addr, metadata !4128, metadata !3992), !dbg !4073
	store %struct.FieldFunction* %_T20584024_52858.arg, %struct.FieldFunction** %_T20584024_52858.addr, align 8, !tbaa !4000
	call void @llvm.dbg.declare (metadata %struct.FieldFunction** %_T20584024_52858.addr, metadata !4129, metadata !3992), !dbg !4073
	%0 = bitcast [5 x i32 (...)* (...)*]* @_ZTV11T3DFunction to i8*, !dbg !4130
	%1 = getelementptr i8, i8*  %0, i64 16, !dbg !4130
	%2 = load %struct.FieldFunction*, %struct.FieldFunction** %_T20584024_52858.addr, align 8, !tbaa !4000, !dbg !4130
	%3 = bitcast %struct.FieldFunction*  %2 to i8**, !dbg !4130
	store i8*  %1, i8**  %3, align 8, !tbaa !4000, !dbg !4130
	%4 = bitcast [5 x i32 (...)* (...)*]* @_ZTV13FieldFunction to i8*, !dbg !4130
	%5 = getelementptr i8, i8*  %4, i64 16, !dbg !4130
	store i8*  %5, i8**  %3, align 8, !tbaa !4000, !dbg !4130
	%6 = bitcast %struct.FieldFunction*  %2 to i8*, !dbg !4133
	%7 = getelementptr i8, i8*  %6, i64 8, !dbg !4133
	%8 = bitcast i8*  %7 to i32*, !dbg !4133
	store i32 0, i32*  %8, align 4, !tbaa !3999, !dbg !4133
	%9 = getelementptr i8, i8*  %6, i64 12, !dbg !4134
	%10 = bitcast i8*  %9 to i32*, !dbg !4134
	store i32 0, i32*  %10, align 4, !tbaa !3999, !dbg !4134
	%11 = getelementptr i8, i8*  %6, i64 16, !dbg !4135
	%12 = bitcast i8*  %11 to i32*, !dbg !4135
	store i32 0, i32*  %12, align 4, !tbaa !3999, !dbg !4135
	br label %L.R0007, !dbg !4135
L_T20584912_52858:
	%13 = landingpad %astruct.dt64
	cleanup
	br label %L.R0007
L.R0007:
	ret void, !dbg !4136
}
define linkonce_odr void @_ZN13FieldFunctionC2Ev(%struct.FieldFunction* %_T20584024_52859.arg) #0 inlinehint !dbg !4138 {
L.entry:
	%_T20584024_52859.addr = alloca %struct.FieldFunction*, align 8

	store %struct.FieldFunction* %_T20584024_52859.arg, %struct.FieldFunction** %_T20584024_52859.addr, align 8, !tbaa !4000
	%0 = load %struct.FieldFunction*, %struct.FieldFunction** %_T20584024_52859.addr, align 8, !tbaa !4000, !dbg !4142
	call void  @_ZN13FieldFunctionC1Ev (%struct.FieldFunction*  %0), !dbg !4142
	ret void, !dbg !4142
}
define linkonce_odr void @_ZN13FieldFunction12setComponentE10coordinate(%struct.FieldFunction* %_T20584024_52860.arg, i32 zeroext %fComponent.arg) #0 inlinehint !dbg !4146 {
L.entry:
	%_T20584024_52860.addr = alloca %struct.FieldFunction*, align 8
	%fComponent.addr = alloca i32, align 4

	call void @llvm.dbg.declare (metadata %struct.FieldFunction** %_T20584024_52860.addr, metadata !4150, metadata !3992), !dbg !4147
	store %struct.FieldFunction* %_T20584024_52860.arg, %struct.FieldFunction** %_T20584024_52860.addr, align 8, !tbaa !4000
	call void @llvm.dbg.declare (metadata %struct.FieldFunction** %_T20584024_52860.addr, metadata !4151, metadata !3992), !dbg !4147
	call void @llvm.dbg.declare (metadata i32* %fComponent.addr, metadata !4152, metadata !3992), !dbg !4147
	store i32 %fComponent.arg, i32* %fComponent.addr, align 4, !tbaa !3999
	call void @llvm.dbg.declare (metadata i32* %fComponent.addr, metadata !4153, metadata !3992), !dbg !4147
	%0 = load i32, i32* %fComponent.addr, align 4, !tbaa !3999, !dbg !4154
	%1 = load %struct.FieldFunction*, %struct.FieldFunction** %_T20584024_52860.addr, align 8, !tbaa !4000, !dbg !4154
	%2 = bitcast %struct.FieldFunction*  %1 to i8*, !dbg !4154
	%3 = getelementptr i8, i8*  %2, i64 8, !dbg !4154
	%4 = bitcast i8*  %3 to i32*, !dbg !4154
	store i32  %0, i32*  %4, align 4, !tbaa !3999, !dbg !4154
	ret void, !dbg !4154
}
define linkonce_odr void @_ZN13FieldFunction17setDerivComponentE10coordinate(%struct.FieldFunction* %_T20584024_52861.arg, i32 zeroext %dComponent.arg) #0 inlinehint !dbg !4156 {
L.entry:
	%_T20584024_52861.addr = alloca %struct.FieldFunction*, align 8
	%dComponent.addr = alloca i32, align 4

	call void @llvm.dbg.declare (metadata %struct.FieldFunction** %_T20584024_52861.addr, metadata !4160, metadata !3992), !dbg !4157
	store %struct.FieldFunction* %_T20584024_52861.arg, %struct.FieldFunction** %_T20584024_52861.addr, align 8, !tbaa !4000
	call void @llvm.dbg.declare (metadata %struct.FieldFunction** %_T20584024_52861.addr, metadata !4161, metadata !3992), !dbg !4157
	call void @llvm.dbg.declare (metadata i32* %dComponent.addr, metadata !4162, metadata !3992), !dbg !4157
	store i32 %dComponent.arg, i32* %dComponent.addr, align 4, !tbaa !3999
	call void @llvm.dbg.declare (metadata i32* %dComponent.addr, metadata !4163, metadata !3992), !dbg !4157
	%0 = load i32, i32* %dComponent.addr, align 4, !tbaa !3999, !dbg !4164
	%1 = load %struct.FieldFunction*, %struct.FieldFunction** %_T20584024_52861.addr, align 8, !tbaa !4000, !dbg !4164
	%2 = bitcast %struct.FieldFunction*  %1 to i8*, !dbg !4164
	%3 = getelementptr i8, i8*  %2, i64 12, !dbg !4164
	%4 = bitcast i8*  %3 to i32*, !dbg !4164
	store i32  %0, i32*  %4, align 4, !tbaa !3999, !dbg !4164
	ret void, !dbg !4164
}

%struct._ZNSt6locale5facetE = type <{ i32 (...)* (...)*, i32, [4 x i8]}> 
%struct._ZSt8ios_base = type <{ i32 (...)* (...)*, i64, i64, i32, i32, i32, [4 x i8], %struct._ZNSt8ios_base14_Callback_listE*, %struct._ZNSt8ios_base6_WordsE, [8 x %struct._ZNSt8ios_base6_WordsE], i32, [4 x i8], %struct._ZNSt8ios_base6_WordsE*, %struct._ZSt6locale}> 
%struct._ZNSt8ios_base14_Callback_listE = type <{ %struct._ZNSt8ios_base14_Callback_listE*, void (i32, %struct._ZSt8ios_base*, i32)*, i32, i32}> 
%struct._ZNSt6locale5_ImplE = type <{ i32, [4 x i8], %struct._ZNSt6locale5facetE**, i64, %struct._ZNSt6locale5facetE**, i8**}> 
%struct._ZSt5ctypeIcE = type <{ %struct.__SO__NSt6locale5facetE, [4 x i8], %struct.__locale_struct*, i8, [7 x i8], i32*, i32*, i16*, i8, [256 x i8], [256 x i8], i8, [6 x i8]}> 
%struct._ZSt15basic_streambufIcSt11char_traitsIcEE = type <{ i32 (...)* (...)*, i8*, i8*, i8*, i8*, i8*, i8*, %struct._ZSt6locale}> 
%struct._ZNSt8ios_base6_WordsE = type <{ i8*, i64}> 
%struct.__locale_struct = type <{ [13 x %struct.__locale_data*], i16*, i32*, i32*, [13 x i8*]}> 
%struct.__locale_data = type opaque
%struct._ZSt6locale = type <{ %struct._ZNSt6locale5_ImplE*}> 
%struct._ZSt7num_getIcSt19istreambuf_iteratorIcSt11char_traitsIcEEE = type <{ %struct.__SO__NSt6locale5facetE, [4 x i8]}> 
%struct._ZSt9basic_iosIcSt11char_traitsIcEE = type <{ %struct._ZSt8ios_base, %struct._ZSo*, i8, i8, [6 x i8], %struct._ZSt15basic_streambufIcSt11char_traitsIcEE*, %struct._ZSt5ctypeIcE*, %struct._ZSt7num_putIcSt19ostreambuf_iteratorIcSt11char_traitsIcEEE*, %struct._ZSt7num_getIcSt19istreambuf_iteratorIcSt11char_traitsIcEEE*}> 
%struct._ZSo = type <{ i32 (...)* (...)*, %struct._ZSt9basic_iosIcSt11char_traitsIcEE}> 
%struct.__SO__NSt6locale5facetE = type <{ i32 (...)* (...)*, i32}> 
%struct._ZSt7num_putIcSt19ostreambuf_iteratorIcSt11char_traitsIcEEE = type <{ %struct.__SO__NSt6locale5facetE, [4 x i8]}> 

define linkonce_odr void @_ZN13FieldFunction13setDerivativeEj(%struct.FieldFunction* %_T20584208_52862.arg, i32 zeroext %derivative.arg) #0 inlinehint !dbg !4168 {
L.entry:
	%_T20584208_52862.addr = alloca %struct.FieldFunction*, align 8
	%derivative.addr = alloca i32, align 4
	%..inline.addr = alloca %struct._ZSt9basic_iosIcSt11char_traitsIcEE*, align 8
	%..inline.addr.1 = alloca %struct._ZSt9basic_iosIcSt11char_traitsIcEE*, align 8
	%..inline.addr.2 = alloca i32, align 4
	%..inline.addr.3 = alloca i64, align 8
	%.Q0003.addr = alloca %struct._ZSo*, align 8
	%..inline.addr.4 = alloca i32, align 4
	%.Q0004.addr = alloca %struct._ZSo*, align 8
	%..inline.addr.5 = alloca %struct._ZSo*, align 8
	%.Q0005.addr = alloca %struct._ZSo*, align 8

	call void @llvm.dbg.declare (metadata %struct.FieldFunction** %_T20584208_52862.addr, metadata !4200, metadata !3992), !dbg !4169
	store %struct.FieldFunction* %_T20584208_52862.arg, %struct.FieldFunction** %_T20584208_52862.addr, align 8, !tbaa !4000
	call void @llvm.dbg.declare (metadata %struct.FieldFunction** %_T20584208_52862.addr, metadata !4201, metadata !3992), !dbg !4169
	call void @llvm.dbg.declare (metadata i32* %derivative.addr, metadata !4202, metadata !3992), !dbg !4169
	store i32 %derivative.arg, i32* %derivative.addr, align 4, !tbaa !3999
	call void @llvm.dbg.declare (metadata i32* %derivative.addr, metadata !4203, metadata !3992), !dbg !4169
	%0 = load i32, i32* %derivative.addr, align 4, !tbaa !4217, !dbg !4204
	%1 = load %struct.FieldFunction*, %struct.FieldFunction** %_T20584208_52862.addr, align 8, !tbaa !4000, !dbg !4204
	%2 = bitcast %struct.FieldFunction*  %1 to i8*, !dbg !4204
	%3 = getelementptr i8, i8*  %2, i64 16, !dbg !4204
	%4 = bitcast i8*  %3 to i32*, !dbg !4204
	store i32  %0, i32*  %4, align 4, !tbaa !3999, !dbg !4204
	%5 = icmp ule i32  %0, 1, !dbg !4205
	br i1  %5, label %L.B0000, label %L.B0001, !dbg !4205
L.B0001:
	%6 = bitcast [36 x i8]* @.S54380 to i8*, !dbg !4206
	%7 = icmp ne i8*  %6,  null, !dbg !4206
	br i1  %7, label %L..inline.69866, label %L.B1208, !dbg !4206
L.B1208:
	%8 = bitcast %struct._ZSo* @_ZSt4cerr to i8*, !dbg !4207
	%9 = bitcast %struct._ZSo* @_ZSt4cerr to i8**, !dbg !4207
	%10 = load i8*, i8**  %9, align 8, !tbaa !4000, !dbg !4207
	%11 = getelementptr i8, i8*  %10, i64 18446744073709551592, !dbg !4207
	%12 = bitcast i8*  %11 to i64*, !dbg !4207
	%13 = load i64, i64*  %12, align 8, !tbaa !3999, !dbg !4207
	%14 = getelementptr i8, i8*  %8, i64  %13, !dbg !4207
	%15 = bitcast %struct._ZSt9basic_iosIcSt11char_traitsIcEE** %..inline.addr to i8**, !dbg !4207
	store i8*  %14, i8**  %15, align 8, !tbaa !4000, !dbg !4207
	%16 = load %struct._ZSt9basic_iosIcSt11char_traitsIcEE*, %struct._ZSt9basic_iosIcSt11char_traitsIcEE** %..inline.addr, align 8, !tbaa !4000, !dbg !4207
	%17 = bitcast %struct._ZSt9basic_iosIcSt11char_traitsIcEE*  %16 to i8*, !dbg !4207
	%18 = bitcast %struct._ZSt9basic_iosIcSt11char_traitsIcEE** %..inline.addr.1 to i8**, !dbg !4207
	store i8*  %17, i8**  %18, align 8, !tbaa !4000, !dbg !4207
	%19 = load %struct._ZSt9basic_iosIcSt11char_traitsIcEE*, %struct._ZSt9basic_iosIcSt11char_traitsIcEE** %..inline.addr.1, align 8, !tbaa !4000, !dbg !4207
	%20 = bitcast %struct._ZSt9basic_iosIcSt11char_traitsIcEE*  %19 to i8*, !dbg !4207
	%21 = getelementptr i8, i8*  %20, i64 32, !dbg !4207
	%22 = bitcast i8*  %21 to i32*, !dbg !4207
	%23 = load i32, i32*  %22, align 4, !tbaa !3999, !dbg !4207
	%24 = or i32  %23, 1, !dbg !4207
	call void  @_ZNSt9basic_iosIcSt11char_traitsIcEE5clearESt12_Ios_Iostate (%struct._ZSt9basic_iosIcSt11char_traitsIcEE*  %16, i32  %24), !dbg !4207
	br label %L..inline.69887, !dbg !4207
L..inline.69866:
	%25 = bitcast [36 x i8]* @.S54380 to i8*, !dbg !4210
	%26 = call i64  @strlen (i8*  %25) nounwind, !dbg !4210
	%27 = call %struct._ZSo*  @_ZSt16__ostream_insertIcSt11char_traitsIcEERSt13basic_ostreamIT_T0_ES6_PKS3_l (%struct._ZSo* @_ZSt4cerr, i8*  %25, i64  %26), !dbg !4210
	%28 = bitcast %struct._ZSo*  %27 to i8*, !dbg !4210
	%29 = bitcast %struct._ZSo** %.Q0003.addr to i8**, !dbg !4210
	store i8*  %28, i8**  %29, align 8, !tbaa !4000, !dbg !4210
	br label %L..inline.69887
L..inline.69887:
	%30 = load i32, i32* %derivative.addr, align 4, !tbaa !4217, !dbg !4211
	%31 = zext i32  %30 to i64, !dbg !4212
	%32 = call %struct._ZSo*  @_ZNSo9_M_insertImEERSoT_ (%struct._ZSo* @_ZSt4cerr, i64  %31), !dbg !4212
	%33 = bitcast %struct._ZSo*  %32 to i8*, !dbg !4212
	%34 = bitcast %struct._ZSo** %.Q0004.addr to i8**, !dbg !4212
	store i8*  %33, i8**  %34, align 8, !tbaa !4000, !dbg !4212
	%35 = load %struct._ZSo*, %struct._ZSo** %.Q0004.addr, align 8, !tbaa !4000, !dbg !4212
	%36 = bitcast %struct._ZSo*  %35 to i8*, !dbg !4212
	%37 = bitcast %struct._ZSo** %..inline.addr.5 to i8**, !dbg !4212
	store i8*  %36, i8**  %37, align 8, !tbaa !4000, !dbg !4212
	%38 = load %struct._ZSo*, %struct._ZSo** %..inline.addr.5, align 8, !tbaa !4000, !dbg !4213
	%39 = call %struct._ZSo*  @_ZSt4endlIcSt11char_traitsIcEERSt13basic_ostreamIT_T0_ES6_ (%struct._ZSo*  %38), !dbg !4213
	%40 = bitcast %struct._ZSo*  %39 to i8*, !dbg !4213
	%41 = bitcast %struct._ZSo** %.Q0005.addr to i8**, !dbg !4213
	store i8*  %40, i8**  %41, align 8, !tbaa !4000, !dbg !4213
	call void  @exit (i32 1) nounwind noreturn, !dbg !4214
	br label %L.B0002
L.B0002:
	br label %L.B0000
L.B0000:
	ret void, !dbg !4215
}
define linkonce_odr void @_ZN13FieldFunctionD1Ev(%struct.FieldFunction* %_T20584024_52863.arg) #0 inlinehint !dbg !4219 {
L.entry:
	%_T20584024_52863.addr = alloca %struct.FieldFunction*, align 8

	call void @llvm.dbg.declare (metadata %struct.FieldFunction** %_T20584024_52863.addr, metadata !4231, metadata !3992), !dbg !4220
	store %struct.FieldFunction* %_T20584024_52863.arg, %struct.FieldFunction** %_T20584024_52863.addr, align 8, !tbaa !4000
	call void @llvm.dbg.declare (metadata %struct.FieldFunction** %_T20584024_52863.addr, metadata !4232, metadata !3992), !dbg !4220
	%0 = bitcast [5 x i32 (...)* (...)*]* @_ZTV13FieldFunction to i8*, !dbg !4233
	%1 = getelementptr i8, i8*  %0, i64 16, !dbg !4233
	%2 = load %struct.FieldFunction*, %struct.FieldFunction** %_T20584024_52863.addr, align 8, !tbaa !4000, !dbg !4233
	%3 = bitcast %struct.FieldFunction*  %2 to i8**, !dbg !4233
	store i8*  %1, i8**  %3, align 8, !tbaa !4000, !dbg !4233
	%4 = bitcast [5 x i32 (...)* (...)*]* @_ZTV11T3DFunction to i8*, !dbg !4233
	%5 = getelementptr i8, i8*  %4, i64 16, !dbg !4233
	store i8*  %5, i8**  %3, align 8, !tbaa !4000, !dbg !4233
	ret void, !dbg !4234
}
define linkonce_odr void @_ZN13FieldFunctionD0Ev(%struct.FieldFunction* %_T20584024_52864.arg) #0 inlinehint !dbg !4236 {
L.entry:
	%_T20584024_52864.addr = alloca %struct.FieldFunction*, align 8
	%..inline.addr = alloca %struct.FieldFunction*, align 8

	store %struct.FieldFunction* %_T20584024_52864.arg, %struct.FieldFunction** %_T20584024_52864.addr, align 8, !tbaa !4000
	%0 = load %struct.FieldFunction*, %struct.FieldFunction** %_T20584024_52864.addr, align 8, !tbaa !4000, !dbg !4252
	%1 = bitcast %struct.FieldFunction*  %0 to i8*, !dbg !4252
	%2 = bitcast %struct.FieldFunction** %..inline.addr to i8**, !dbg !4252
	store i8*  %1, i8**  %2, align 8, !tbaa !4000, !dbg !4252
	%3 = bitcast [5 x i32 (...)* (...)*]* @_ZTV13FieldFunction to i8*, !dbg !4252
	%4 = getelementptr i8, i8*  %3, i64 16, !dbg !4252
	%5 = load %struct.FieldFunction*, %struct.FieldFunction** %..inline.addr, align 8, !tbaa !4000, !dbg !4252
	%6 = bitcast %struct.FieldFunction*  %5 to i8**, !dbg !4252
	store i8*  %4, i8**  %6, align 8, !tbaa !4000, !dbg !4252
	%7 = bitcast [5 x i32 (...)* (...)*]* @_ZTV11T3DFunction to i8*, !dbg !4252
	%8 = getelementptr i8, i8*  %7, i64 16, !dbg !4252
	store i8*  %8, i8**  %6, align 8, !tbaa !4000, !dbg !4252
	call void  @_ZdlPvm (i8*  %1, i64 24) nounwind, !dbg !4252
	ret void, !dbg !4252
}
define linkonce_odr void @_ZN13FieldFunctionD2Ev(%struct.FieldFunction* %_T20584024_52865.arg) #0 inlinehint !dbg !4254 {
L.entry:
	%_T20584024_52865.addr = alloca %struct.FieldFunction*, align 8
	%..inline.addr = alloca %struct.FieldFunction*, align 8

	store %struct.FieldFunction* %_T20584024_52865.arg, %struct.FieldFunction** %_T20584024_52865.addr, align 8, !tbaa !4000
	%0 = load %struct.FieldFunction*, %struct.FieldFunction** %_T20584024_52865.addr, align 8, !tbaa !4000, !dbg !4270
	%1 = bitcast %struct.FieldFunction*  %0 to i8*, !dbg !4270
	%2 = bitcast %struct.FieldFunction** %..inline.addr to i8**, !dbg !4270
	store i8*  %1, i8**  %2, align 8, !tbaa !4000, !dbg !4270
	%3 = bitcast [5 x i32 (...)* (...)*]* @_ZTV13FieldFunction to i8*, !dbg !4270
	%4 = getelementptr i8, i8*  %3, i64 16, !dbg !4270
	%5 = load %struct.FieldFunction*, %struct.FieldFunction** %..inline.addr, align 8, !tbaa !4000, !dbg !4270
	%6 = bitcast %struct.FieldFunction*  %5 to i8**, !dbg !4270
	store i8*  %4, i8**  %6, align 8, !tbaa !4000, !dbg !4270
	%7 = bitcast [5 x i32 (...)* (...)*]* @_ZTV11T3DFunction to i8*, !dbg !4270
	%8 = getelementptr i8, i8*  %7, i64 16, !dbg !4270
	store i8*  %8, i8**  %6, align 8, !tbaa !4000, !dbg !4270
	ret void, !dbg !4270
}

%struct.ConstantField = type <{ %struct.__SO__13FieldFunction, i8, [3 x i8], [3 x double]}> 
%struct.__SO__13FieldFunction = type <{ %struct.T3DFunction, i32, i32, i32}> 

define linkonce_odr void @_ZN13ConstantFieldC1Ev(%struct.ConstantField* %_T20584208_52866.arg) #0 inlinehint !dbg !4277 {
L.entry:
	%_T20584208_52866.addr = alloca %struct.ConstantField*, align 8
	%..inline.addr = alloca %struct.FieldFunction*, align 8

	call void @llvm.dbg.declare (metadata %struct.ConstantField** %_T20584208_52866.addr, metadata !4285, metadata !3992), !dbg !4278
	store %struct.ConstantField* %_T20584208_52866.arg, %struct.ConstantField** %_T20584208_52866.addr, align 8, !tbaa !4000
	call void @llvm.dbg.declare (metadata %struct.ConstantField** %_T20584208_52866.addr, metadata !4286, metadata !3992), !dbg !4278
	%0 = load %struct.ConstantField*, %struct.ConstantField** %_T20584208_52866.addr, align 8, !tbaa !4000, !dbg !4287
	%1 = bitcast %struct.ConstantField*  %0 to i8*, !dbg !4287
	%2 = bitcast %struct.FieldFunction** %..inline.addr to i8**, !dbg !4287
	store i8*  %1, i8**  %2, align 8, !tbaa !4000, !dbg !4287
	%3 = load %struct.FieldFunction*, %struct.FieldFunction** %..inline.addr, align 8, !tbaa !4000, !dbg !4287
	call void  @_ZN13FieldFunctionC1Ev (%struct.FieldFunction*  %3), !dbg !4287
	%4 = bitcast [5 x i32 (...)* (...)*]* @_ZTV13ConstantField to i8*, !dbg !4287
	%5 = getelementptr i8, i8*  %4, i64 16, !dbg !4287
	%6 = load %struct.ConstantField*, %struct.ConstantField** %_T20584208_52866.addr, align 8, !tbaa !4000, !dbg !4287
	%7 = bitcast %struct.ConstantField*  %6 to i8**, !dbg !4287
	store i8*  %5, i8**  %7, align 8, !tbaa !4000, !dbg !4287
	%8 = bitcast %struct.ConstantField*  %6 to i8*, !dbg !4290
	%9 = getelementptr i8, i8*  %8, i64 20, !dbg !4290
	store i8 0, i8*  %9, align 1, !tbaa !3999, !dbg !4290
	ret void, !dbg !4291
}
define linkonce_odr void @_ZN13ConstantFieldC2Ev(%struct.ConstantField* %_T20584024_52867.arg) #0 inlinehint !dbg !4293 {
L.entry:
	%_T20584024_52867.addr = alloca %struct.ConstantField*, align 8
	%..inline.addr = alloca %struct.ConstantField*, align 8
	%..inline.addr.1 = alloca %struct.FieldFunction*, align 8

	store %struct.ConstantField* %_T20584024_52867.arg, %struct.ConstantField** %_T20584024_52867.addr, align 8, !tbaa !4000
	%0 = load %struct.ConstantField*, %struct.ConstantField** %_T20584024_52867.addr, align 8, !tbaa !4000, !dbg !4305
	%1 = bitcast %struct.ConstantField*  %0 to i8*, !dbg !4305
	%2 = bitcast %struct.ConstantField** %..inline.addr to i8**, !dbg !4305
	store i8*  %1, i8**  %2, align 8, !tbaa !4000, !dbg !4305
	%3 = load %struct.ConstantField*, %struct.ConstantField** %..inline.addr, align 8, !tbaa !4000, !dbg !4306
	%4 = bitcast %struct.ConstantField*  %3 to i8*, !dbg !4306
	%5 = bitcast %struct.FieldFunction** %..inline.addr.1 to i8**, !dbg !4306
	store i8*  %4, i8**  %5, align 8, !tbaa !4000, !dbg !4306
	%6 = load %struct.FieldFunction*, %struct.FieldFunction** %..inline.addr.1, align 8, !tbaa !4000, !dbg !4306
	call void  @_ZN13FieldFunctionC1Ev (%struct.FieldFunction*  %6), !dbg !4306
	%7 = bitcast [5 x i32 (...)* (...)*]* @_ZTV13ConstantField to i8*, !dbg !4306
	%8 = getelementptr i8, i8*  %7, i64 16, !dbg !4306
	%9 = load %struct.ConstantField*, %struct.ConstantField** %..inline.addr, align 8, !tbaa !4000, !dbg !4306
	%10 = bitcast %struct.ConstantField*  %9 to i8**, !dbg !4306
	store i8*  %8, i8**  %10, align 8, !tbaa !4000, !dbg !4306
	%11 = bitcast %struct.ConstantField*  %9 to i8*, !dbg !4306
	%12 = getelementptr i8, i8*  %11, i64 20, !dbg !4306
	store i8 0, i8*  %12, align 1, !tbaa !3999, !dbg !4306
	ret void, !dbg !4305
}
define linkonce_odr void @_ZN13ConstantFieldD1Ev(%struct.ConstantField* %_T20584024_52868.arg) #0 inlinehint !dbg !4308 {
L.entry:
	%_T20584024_52868.addr = alloca %struct.ConstantField*, align 8
	%..inline.addr = alloca %struct.FieldFunction*, align 8

	call void @llvm.dbg.declare (metadata %struct.ConstantField** %_T20584024_52868.addr, metadata !4328, metadata !3992), !dbg !4309
	store %struct.ConstantField* %_T20584024_52868.arg, %struct.ConstantField** %_T20584024_52868.addr, align 8, !tbaa !4000
	call void @llvm.dbg.declare (metadata %struct.ConstantField** %_T20584024_52868.addr, metadata !4329, metadata !3992), !dbg !4309
	%0 = bitcast [5 x i32 (...)* (...)*]* @_ZTV13ConstantField to i8*, !dbg !4330
	%1 = getelementptr i8, i8*  %0, i64 16, !dbg !4330
	%2 = load %struct.ConstantField*, %struct.ConstantField** %_T20584024_52868.addr, align 8, !tbaa !4000, !dbg !4330
	%3 = bitcast %struct.ConstantField*  %2 to i8**, !dbg !4330
	store i8*  %1, i8**  %3, align 8, !tbaa !4000, !dbg !4330
	%4 = bitcast %struct.ConstantField*  %2 to i8*, !dbg !4330
	%5 = bitcast %struct.FieldFunction** %..inline.addr to i8**, !dbg !4330
	store i8*  %4, i8**  %5, align 8, !tbaa !4000, !dbg !4330
	%6 = bitcast [5 x i32 (...)* (...)*]* @_ZTV13FieldFunction to i8*, !dbg !4330
	%7 = getelementptr i8, i8*  %6, i64 16, !dbg !4330
	%8 = load %struct.FieldFunction*, %struct.FieldFunction** %..inline.addr, align 8, !tbaa !4000, !dbg !4330
	%9 = bitcast %struct.FieldFunction*  %8 to i8**, !dbg !4330
	store i8*  %7, i8**  %9, align 8, !tbaa !4000, !dbg !4330
	%10 = bitcast [5 x i32 (...)* (...)*]* @_ZTV11T3DFunction to i8*, !dbg !4330
	%11 = getelementptr i8, i8*  %10, i64 16, !dbg !4330
	store i8*  %11, i8**  %9, align 8, !tbaa !4000, !dbg !4330
	ret void, !dbg !4330
}
define linkonce_odr void @_ZN13ConstantFieldD0Ev(%struct.ConstantField* %_T20584024_52869.arg) #0 inlinehint !dbg !4332 {
L.entry:
	%_T20584024_52869.addr = alloca %struct.ConstantField*, align 8
	%..inline.addr = alloca %struct.ConstantField*, align 8
	%..inline.addr.1 = alloca %struct.FieldFunction*, align 8

	store %struct.ConstantField* %_T20584024_52869.arg, %struct.ConstantField** %_T20584024_52869.addr, align 8, !tbaa !4000
	%0 = load %struct.ConstantField*, %struct.ConstantField** %_T20584024_52869.addr, align 8, !tbaa !4000, !dbg !4356
	%1 = bitcast %struct.ConstantField*  %0 to i8*, !dbg !4356
	%2 = bitcast %struct.ConstantField** %..inline.addr to i8**, !dbg !4356
	store i8*  %1, i8**  %2, align 8, !tbaa !4000, !dbg !4356
	%3 = bitcast [5 x i32 (...)* (...)*]* @_ZTV13ConstantField to i8*, !dbg !4356
	%4 = getelementptr i8, i8*  %3, i64 16, !dbg !4356
	%5 = load %struct.ConstantField*, %struct.ConstantField** %..inline.addr, align 8, !tbaa !4000, !dbg !4356
	%6 = bitcast %struct.ConstantField*  %5 to i8**, !dbg !4356
	store i8*  %4, i8**  %6, align 8, !tbaa !4000, !dbg !4356
	%7 = bitcast %struct.ConstantField*  %5 to i8*, !dbg !4356
	%8 = bitcast %struct.FieldFunction** %..inline.addr.1 to i8**, !dbg !4356
	store i8*  %7, i8**  %8, align 8, !tbaa !4000, !dbg !4356
	%9 = bitcast [5 x i32 (...)* (...)*]* @_ZTV13FieldFunction to i8*, !dbg !4356
	%10 = getelementptr i8, i8*  %9, i64 16, !dbg !4356
	store i8*  %10, i8**  %6, align 8, !tbaa !4000, !dbg !4356
	%11 = bitcast [5 x i32 (...)* (...)*]* @_ZTV11T3DFunction to i8*, !dbg !4356
	%12 = getelementptr i8, i8*  %11, i64 16, !dbg !4356
	%13 = load %struct.FieldFunction*, %struct.FieldFunction** %..inline.addr.1, align 8, !tbaa !4000, !dbg !4356
	%14 = bitcast %struct.FieldFunction*  %13 to i8**, !dbg !4356
	store i8*  %12, i8**  %14, align 8, !tbaa !4000, !dbg !4356
	call void  @_ZdlPvm (i8*  %1, i64 48) nounwind, !dbg !4356
	ret void, !dbg !4356
}
define linkonce_odr void @_ZN13ConstantFieldD2Ev(%struct.ConstantField* %_T20584024_52870.arg) #0 inlinehint !dbg !4358 {
L.entry:
	%_T20584024_52870.addr = alloca %struct.ConstantField*, align 8
	%..inline.addr = alloca %struct.ConstantField*, align 8
	%..inline.addr.1 = alloca %struct.FieldFunction*, align 8

	store %struct.ConstantField* %_T20584024_52870.arg, %struct.ConstantField** %_T20584024_52870.addr, align 8, !tbaa !4000
	%0 = load %struct.ConstantField*, %struct.ConstantField** %_T20584024_52870.addr, align 8, !tbaa !4000, !dbg !4382
	%1 = bitcast %struct.ConstantField*  %0 to i8*, !dbg !4382
	%2 = bitcast %struct.ConstantField** %..inline.addr to i8**, !dbg !4382
	store i8*  %1, i8**  %2, align 8, !tbaa !4000, !dbg !4382
	%3 = bitcast [5 x i32 (...)* (...)*]* @_ZTV13ConstantField to i8*, !dbg !4382
	%4 = getelementptr i8, i8*  %3, i64 16, !dbg !4382
	%5 = load %struct.ConstantField*, %struct.ConstantField** %..inline.addr, align 8, !tbaa !4000, !dbg !4382
	%6 = bitcast %struct.ConstantField*  %5 to i8**, !dbg !4382
	store i8*  %4, i8**  %6, align 8, !tbaa !4000, !dbg !4382
	%7 = bitcast %struct.ConstantField*  %5 to i8*, !dbg !4382
	%8 = bitcast %struct.FieldFunction** %..inline.addr.1 to i8**, !dbg !4382
	store i8*  %7, i8**  %8, align 8, !tbaa !4000, !dbg !4382
	%9 = bitcast [5 x i32 (...)* (...)*]* @_ZTV13FieldFunction to i8*, !dbg !4382
	%10 = getelementptr i8, i8*  %9, i64 16, !dbg !4382
	store i8*  %10, i8**  %6, align 8, !tbaa !4000, !dbg !4382
	%11 = bitcast [5 x i32 (...)* (...)*]* @_ZTV11T3DFunction to i8*, !dbg !4382
	%12 = getelementptr i8, i8*  %11, i64 16, !dbg !4382
	%13 = load %struct.FieldFunction*, %struct.FieldFunction** %..inline.addr.1, align 8, !tbaa !4000, !dbg !4382
	%14 = bitcast %struct.FieldFunction*  %13 to i8**, !dbg !4382
	store i8*  %12, i8**  %14, align 8, !tbaa !4000, !dbg !4382
	ret void, !dbg !4382
}
define linkonce_odr void @_ZNSt11char_traitsIcE6assignERcRKc(i8* %__c1.arg, i8* %__c2.arg) #0 inlinehint !dbg !4389 {
L.entry:
	%__c1.addr = alloca i8*, align 8
	%__c2.addr = alloca i8*, align 8

	call void @llvm.dbg.declare (metadata i8** %__c1.addr, metadata !4393, metadata !3992), !dbg !4390
	store i8* %__c1.arg, i8** %__c1.addr, align 8, !tbaa !4000
	call void @llvm.dbg.declare (metadata i8** %__c1.addr, metadata !4394, metadata !3992), !dbg !4390
	call void @llvm.dbg.declare (metadata i8** %__c2.addr, metadata !4395, metadata !3992), !dbg !4390
	store i8* %__c2.arg, i8** %__c2.addr, align 8, !tbaa !4000
	call void @llvm.dbg.declare (metadata i8** %__c2.addr, metadata !4396, metadata !3992), !dbg !4390
	%0 = load i8*, i8** %__c2.addr, align 8, !tbaa !4000, !dbg !4397
	%1 = load i8, i8*  %0, align 1, !tbaa !3999, !dbg !4397
	%2 = load i8*, i8** %__c1.addr, align 8, !tbaa !4000, !dbg !4397
	store i8  %1, i8*  %2, align 1, !tbaa !3999, !dbg !4397
	ret void, !dbg !4397
}
define linkonce_odr i64 @_ZNSt11char_traitsIcE6lengthEPKc(i8* %__s.arg) #0 inlinehint !dbg !4401 {
L.entry:
	%__s.addr = alloca i8*, align 8

	call void @llvm.dbg.declare (metadata i8** %__s.addr, metadata !4405, metadata !3992), !dbg !4402
	store i8* %__s.arg, i8** %__s.addr, align 8, !tbaa !4000
	call void @llvm.dbg.declare (metadata i8** %__s.addr, metadata !4406, metadata !3992), !dbg !4402
	%0 = load i8*, i8** %__s.addr, align 8, !tbaa !4000, !dbg !4407
	%1 = call i64  @strlen (i8*  %0) nounwind, !dbg !4407
	ret i64  %1, !dbg !4407
}
define linkonce_odr i8* @_ZNSt11char_traitsIcE4copyEPcPKcm(i8* %__s1.arg, i8* %__s2.arg, i64 %__n.arg) #0 inlinehint !dbg !4412 {
L.entry:
	%__s1.addr = alloca i8*, align 8
	%__s2.addr = alloca i8*, align 8
	%__n.addr = alloca i64, align 8

	call void @llvm.dbg.declare (metadata i8** %__s1.addr, metadata !4416, metadata !3992), !dbg !4413
	store i8* %__s1.arg, i8** %__s1.addr, align 8, !tbaa !4000
	call void @llvm.dbg.declare (metadata i8** %__s1.addr, metadata !4417, metadata !3992), !dbg !4413
	call void @llvm.dbg.declare (metadata i8** %__s2.addr, metadata !4418, metadata !3992), !dbg !4413
	store i8* %__s2.arg, i8** %__s2.addr, align 8, !tbaa !4000
	call void @llvm.dbg.declare (metadata i8** %__s2.addr, metadata !4419, metadata !3992), !dbg !4413
	call void @llvm.dbg.declare (metadata i64* %__n.addr, metadata !4420, metadata !3992), !dbg !4413
	store i64 %__n.arg, i64* %__n.addr, align 8, !tbaa !3999
	call void @llvm.dbg.declare (metadata i64* %__n.addr, metadata !4421, metadata !3992), !dbg !4413
	%0 = load i64, i64* %__n.addr, align 8, !tbaa !4427, !dbg !4422
	%1 = icmp ne i64  %0, 0, !dbg !4422
	br i1  %1, label %L.B0004, label %L.B1225, !dbg !4422
L.B1225:
	%2 = load i8*, i8** %__s1.addr, align 8, !tbaa !4000, !dbg !4423
	ret i8*  %2, !dbg !4423
L.B1226:
	br label %L.R0022, !dbg !4423
L.B0004:
	%3 = load i8*, i8** %__s1.addr, align 8, !tbaa !4000, !dbg !4424
	%4 = load i8*, i8** %__s2.addr, align 8, !tbaa !4000, !dbg !4424
	%5 = load i64, i64* %__n.addr, align 8, !tbaa !4427, !dbg !4424
	%6 = call i8*  @memcpy (i8*  %3, i8*  %4, i64  %5) nounwind, !dbg !4424
	ret i8*  %6, !dbg !4424
L.R0022:
	ret i8* null
}

%struct._ZSaIcE = type <{ [1 x i8]}> 

define linkonce_odr void @_ZNSaIcEC1Ev(%struct._ZSaIcE* %_T20584024_52879.arg) #0 inlinehint !dbg !4434 {
L.entry:
	%_T20584024_52879.addr = alloca %struct._ZSaIcE*, align 8

	call void @llvm.dbg.declare (metadata %struct._ZSaIcE** %_T20584024_52879.addr, metadata !4438, metadata !3992), !dbg !4435
	store %struct._ZSaIcE* %_T20584024_52879.arg, %struct._ZSaIcE** %_T20584024_52879.addr, align 8, !tbaa !4000
	call void @llvm.dbg.declare (metadata %struct._ZSaIcE** %_T20584024_52879.addr, metadata !4439, metadata !3992), !dbg !4435
	ret void, !dbg !4440
}
define linkonce_odr void @_ZNSaIcEC2Ev(%struct._ZSaIcE* %_T20584024_52880.arg) #0 inlinehint !dbg !4442 {
L.entry:
	%_T20584024_52880.addr = alloca %struct._ZSaIcE*, align 8

	store %struct._ZSaIcE* %_T20584024_52880.arg, %struct._ZSaIcE** %_T20584024_52880.addr, align 8, !tbaa !4000
	ret void, !dbg !4450
}
define linkonce_odr void @_ZNSaIcEC1ERKS_(%struct._ZSaIcE* %_T20584024_52881.arg, %struct._ZSaIcE* %__a.arg) #0 inlinehint !dbg !4458 {
L.entry:
	%_T20584024_52881.addr = alloca %struct._ZSaIcE*, align 8
	%__a.addr = alloca %struct._ZSaIcE*, align 8

	call void @llvm.dbg.declare (metadata %struct._ZSaIcE** %_T20584024_52881.addr, metadata !4462, metadata !3992), !dbg !4459
	store %struct._ZSaIcE* %_T20584024_52881.arg, %struct._ZSaIcE** %_T20584024_52881.addr, align 8, !tbaa !4000
	call void @llvm.dbg.declare (metadata %struct._ZSaIcE** %_T20584024_52881.addr, metadata !4463, metadata !3992), !dbg !4459
	call void @llvm.dbg.declare (metadata %struct._ZSaIcE** %__a.addr, metadata !4464, metadata !3992), !dbg !4459
	store %struct._ZSaIcE* %__a.arg, %struct._ZSaIcE** %__a.addr, align 8, !tbaa !4000
	call void @llvm.dbg.declare (metadata %struct._ZSaIcE** %__a.addr, metadata !4465, metadata !3992), !dbg !4459
	ret void, !dbg !4466
}
define linkonce_odr void @_ZNSaIcEC2ERKS_(%struct._ZSaIcE* %_T20584024_52882.arg, %struct._ZSaIcE* %_T20584320_52882.arg) #0 inlinehint !dbg !4468 {
L.entry:
	%_T20584024_52882.addr = alloca %struct._ZSaIcE*, align 8
	%_T20584320_52882.addr = alloca %struct._ZSaIcE*, align 8

	store %struct._ZSaIcE* %_T20584024_52882.arg, %struct._ZSaIcE** %_T20584024_52882.addr, align 8, !tbaa !4000
	store %struct._ZSaIcE* %_T20584320_52882.arg, %struct._ZSaIcE** %_T20584320_52882.addr, align 8, !tbaa !4000
	ret void, !dbg !4476
}
define linkonce_odr void @_ZNSaIcED1Ev(%struct._ZSaIcE* %_T20584024_52883.arg) #0 inlinehint !dbg !4478 {
L.entry:
	%_T20584024_52883.addr = alloca %struct._ZSaIcE*, align 8

	call void @llvm.dbg.declare (metadata %struct._ZSaIcE** %_T20584024_52883.addr, metadata !4482, metadata !3992), !dbg !4479
	store %struct._ZSaIcE* %_T20584024_52883.arg, %struct._ZSaIcE** %_T20584024_52883.addr, align 8, !tbaa !4000
	call void @llvm.dbg.declare (metadata %struct._ZSaIcE** %_T20584024_52883.addr, metadata !4483, metadata !3992), !dbg !4479
	ret void, !dbg !4484
}
define linkonce_odr void @_ZNSaIcED2Ev(%struct._ZSaIcE* %_T20584024_52884.arg) #0 inlinehint !dbg !4486 {
L.entry:
	%_T20584024_52884.addr = alloca %struct._ZSaIcE*, align 8

	store %struct._ZSaIcE* %_T20584024_52884.arg, %struct._ZSaIcE** %_T20584024_52884.addr, align 8, !tbaa !4000
	ret void, !dbg !4494
}
define linkonce_odr void @_ZNSt16allocator_traitsISaIcEE10deallocateERS0_Pcm(%struct._ZSaIcE* %__a.arg, i8* %__p.arg, i64 %__n.arg) #0 inlinehint !dbg !4504 {
L.entry:
	%__a.addr = alloca %struct._ZSaIcE*, align 8
	%__p.addr = alloca i8*, align 8
	%__n.addr = alloca i64, align 8
	%..inline.addr = alloca i8*, align 8

	call void @llvm.dbg.declare (metadata %struct._ZSaIcE** %__a.addr, metadata !4512, metadata !3992), !dbg !4505
	store %struct._ZSaIcE* %__a.arg, %struct._ZSaIcE** %__a.addr, align 8, !tbaa !4000
	call void @llvm.dbg.declare (metadata %struct._ZSaIcE** %__a.addr, metadata !4513, metadata !3992), !dbg !4505
	call void @llvm.dbg.declare (metadata i8** %__p.addr, metadata !4514, metadata !3992), !dbg !4505
	store i8* %__p.arg, i8** %__p.addr, align 8, !tbaa !4000
	call void @llvm.dbg.declare (metadata i8** %__p.addr, metadata !4515, metadata !3992), !dbg !4505
	call void @llvm.dbg.declare (metadata i64* %__n.addr, metadata !4516, metadata !3992), !dbg !4505
	store i64 %__n.arg, i64* %__n.addr, align 8, !tbaa !3999
	call void @llvm.dbg.declare (metadata i64* %__n.addr, metadata !4517, metadata !3992), !dbg !4505
	%0 = load i8*, i8** %__p.addr, align 8, !tbaa !4000, !dbg !4518
	call void  @_ZdlPv (i8*  %0) nounwind, !dbg !4519
	ret void, !dbg !4518
}
define linkonce_odr i64 @_ZNSt16allocator_traitsISaIcEE8max_sizeERKS0_(%struct._ZSaIcE* %__a.arg) #0 inlinehint !dbg !4527 {
L.entry:
	%__a.addr = alloca %struct._ZSaIcE*, align 8

	call void @llvm.dbg.declare (metadata %struct._ZSaIcE** %__a.addr, metadata !4535, metadata !3992), !dbg !4528
	store %struct._ZSaIcE* %__a.arg, %struct._ZSaIcE** %__a.addr, align 8, !tbaa !4000
	call void @llvm.dbg.declare (metadata %struct._ZSaIcE** %__a.addr, metadata !4536, metadata !3992), !dbg !4528
	ret i64 -1, !dbg !4537
}
define linkonce_odr void @_ZNSt16allocator_traitsISaIcEE37select_on_container_copy_constructionERKS0_(%struct._ZSaIcE* sret %_T20584024_52892.arg, %struct._ZSaIcE* %__rhs.arg) #0 inlinehint !dbg !4542 {
L.entry:
	%_T20584024_52892.addr = alloca %struct._ZSaIcE*, align 8
	%__rhs.addr = alloca %struct._ZSaIcE*, align 8

	store %struct._ZSaIcE* %_T20584024_52892.arg, %struct._ZSaIcE** %_T20584024_52892.addr, align 8, !tbaa !4000
	call void @llvm.dbg.declare (metadata %struct._ZSaIcE** %__rhs.addr, metadata !4546, metadata !3992), !dbg !4543
	store %struct._ZSaIcE* %__rhs.arg, %struct._ZSaIcE** %__rhs.addr, align 8, !tbaa !4000
	call void @llvm.dbg.declare (metadata %struct._ZSaIcE** %__rhs.addr, metadata !4547, metadata !3992), !dbg !4543
	ret void, !dbg !4548
}
define linkonce_odr signext i8 @_ZNKSt5ctypeIcE5widenEc(%struct._ZSt5ctypeIcE* %_T20584208_52896.arg, i8 signext %__c.arg) #0 inlinehint !dbg !4554 {
L.entry:
	%_T20584208_52896.addr = alloca %struct._ZSt5ctypeIcE*, align 8
	%__c.addr = alloca i8, align 1
	%.Q0006.addr = alloca i32, align 4

	call void @llvm.dbg.declare (metadata %struct._ZSt5ctypeIcE** %_T20584208_52896.addr, metadata !4558, metadata !3992), !dbg !4555
	store %struct._ZSt5ctypeIcE* %_T20584208_52896.arg, %struct._ZSt5ctypeIcE** %_T20584208_52896.addr, align 8, !tbaa !4000
	call void @llvm.dbg.declare (metadata %struct._ZSt5ctypeIcE** %_T20584208_52896.addr, metadata !4559, metadata !3992), !dbg !4555
	call void @llvm.dbg.declare (metadata i8* %__c.addr, metadata !4560, metadata !3992), !dbg !4555
	store i8 %__c.arg, i8* %__c.addr, align 1, !tbaa !3999
	call void @llvm.dbg.declare (metadata i8* %__c.addr, metadata !4561, metadata !3992), !dbg !4555
	%0 = load %struct._ZSt5ctypeIcE*, %struct._ZSt5ctypeIcE** %_T20584208_52896.addr, align 8, !tbaa !4000, !dbg !4562
	%1 = bitcast %struct._ZSt5ctypeIcE*  %0 to i8*, !dbg !4562
	%2 = getelementptr i8, i8*  %1, i64 56, !dbg !4562
	%3 = load i8, i8*  %2, align 1, !tbaa !3999, !dbg !4562
	%4 = sext i8  %3 to i32, !dbg !4562
	%5 = icmp eq i32  %4, 0, !dbg !4562
	br i1  %5, label %L.B0005, label %L.B1237, !dbg !4562
L.B1237:
	%6 = bitcast %struct._ZSt5ctypeIcE*  %0 to i8*, !dbg !4563
	%7 = getelementptr i8, i8*  %6, i64 57, !dbg !4563
	%8 = load i8, i8* %__c.addr, align 1, !tbaa !3999, !dbg !4563
	%9 = sext i8  %8 to i32, !dbg !4563
	%10 = and i32  %9, 255, !dbg !4563
	%11 = sext i32  %10 to i64, !dbg !4563
	%12 = getelementptr i8, i8*  %7, i64  %11, !dbg !4563
	%13 = load i8, i8*  %12, align 1, !tbaa !3999, !dbg !4563
	ret i8  %13, !dbg !4563
L.B1238:
	br label %L.R0032, !dbg !4563
L.B0005:
	%14 = load %struct._ZSt5ctypeIcE*, %struct._ZSt5ctypeIcE** %_T20584208_52896.addr, align 8, !tbaa !4000, !dbg !4564
	call void  @_ZNKSt5ctypeIcE13_M_widen_initEv (%struct._ZSt5ctypeIcE*  %14), !dbg !4564
	%15 = load %struct._ZSt5ctypeIcE*, %struct._ZSt5ctypeIcE** %_T20584208_52896.addr, align 8, !tbaa !4000, !dbg !4565
	%16 = load i8, i8* %__c.addr, align 1, !tbaa !3999, !dbg !4565
	%17 = bitcast %struct._ZSt5ctypeIcE*  %15 to i8**, !dbg !4565
	%18 = load i8*, i8**  %17, align 8, !tbaa !4000, !dbg !4565
	%19 = getelementptr i8, i8*  %18, i64 48, !dbg !4565
	%20 = bitcast i8*  %19 to i8 (%struct._ZSt5ctypeIcE*, i8)**, !dbg !4565
	%21 = load i8 (%struct._ZSt5ctypeIcE*, i8)*, i8 (%struct._ZSt5ctypeIcE*, i8)**  %20, align 8, !tbaa !4000, !dbg !4565
	%22 = call i8  %21 (%struct._ZSt5ctypeIcE*  %15, i8  %16), !dbg !4565
	%23 = sext i8  %22 to i32, !dbg !4565
	store i32  %23, i32* %.Q0006.addr, align 4, !tbaa !4217, !dbg !4565
	%24 = shl i32  %23, 24, !dbg !4565
	%25 = ashr i32  %24, 24, !dbg !4565
	%26 = trunc i32  %25 to i8, !dbg !4565
	ret i8  %26, !dbg !4565
L.R0032:
	ret i8 0
}
define linkonce_odr signext i32 @_ZNKSt9basic_iosIcSt11char_traitsIcEE7rdstateEv(%struct._ZSt9basic_iosIcSt11char_traitsIcEE* %_T20584024_52899.arg) #0 inlinehint !dbg !4573 {
L.entry:
	%_T20584024_52899.addr = alloca %struct._ZSt9basic_iosIcSt11char_traitsIcEE*, align 8

	call void @llvm.dbg.declare (metadata %struct._ZSt9basic_iosIcSt11char_traitsIcEE** %_T20584024_52899.addr, metadata !4577, metadata !3992), !dbg !4574
	store %struct._ZSt9basic_iosIcSt11char_traitsIcEE* %_T20584024_52899.arg, %struct._ZSt9basic_iosIcSt11char_traitsIcEE** %_T20584024_52899.addr, align 8, !tbaa !4000
	call void @llvm.dbg.declare (metadata %struct._ZSt9basic_iosIcSt11char_traitsIcEE** %_T20584024_52899.addr, metadata !4578, metadata !3992), !dbg !4574
	%0 = load %struct._ZSt9basic_iosIcSt11char_traitsIcEE*, %struct._ZSt9basic_iosIcSt11char_traitsIcEE** %_T20584024_52899.addr, align 8, !tbaa !4000, !dbg !4579
	%1 = bitcast %struct._ZSt9basic_iosIcSt11char_traitsIcEE*  %0 to i8*, !dbg !4579
	%2 = getelementptr i8, i8*  %1, i64 32, !dbg !4579
	%3 = bitcast i8*  %2 to i32*, !dbg !4579
	%4 = load i32, i32*  %3, align 4, !tbaa !3999, !dbg !4579
	ret i32  %4, !dbg !4579
}
define linkonce_odr void @_ZNSt9basic_iosIcSt11char_traitsIcEE8setstateESt12_Ios_Iostate(%struct._ZSt9basic_iosIcSt11char_traitsIcEE* %_T20584024_52903.arg, i32 signext %__state.arg) #0 inlinehint !dbg !4583 {
L.entry:
	%_T20584024_52903.addr = alloca %struct._ZSt9basic_iosIcSt11char_traitsIcEE*, align 8
	%__state.addr = alloca i32, align 4
	%..inline.addr = alloca i32, align 4

	call void @llvm.dbg.declare (metadata %struct._ZSt9basic_iosIcSt11char_traitsIcEE** %_T20584024_52903.addr, metadata !4595, metadata !3992), !dbg !4584
	store %struct._ZSt9basic_iosIcSt11char_traitsIcEE* %_T20584024_52903.arg, %struct._ZSt9basic_iosIcSt11char_traitsIcEE** %_T20584024_52903.addr, align 8, !tbaa !4000
	call void @llvm.dbg.declare (metadata %struct._ZSt9basic_iosIcSt11char_traitsIcEE** %_T20584024_52903.addr, metadata !4596, metadata !3992), !dbg !4584
	call void @llvm.dbg.declare (metadata i32* %__state.addr, metadata !4597, metadata !3992), !dbg !4584
	store i32 %__state.arg, i32* %__state.addr, align 4, !tbaa !3999
	call void @llvm.dbg.declare (metadata i32* %__state.addr, metadata !4598, metadata !3992), !dbg !4584
	%0 = load i32, i32* %__state.addr, align 4, !tbaa !3999, !dbg !4599
	%1 = load %struct._ZSt9basic_iosIcSt11char_traitsIcEE*, %struct._ZSt9basic_iosIcSt11char_traitsIcEE** %_T20584024_52903.addr, align 8, !tbaa !4000, !dbg !4599
	%2 = bitcast %struct._ZSt9basic_iosIcSt11char_traitsIcEE*  %1 to i8*, !dbg !4599
	%3 = getelementptr i8, i8*  %2, i64 32, !dbg !4599
	%4 = bitcast i8*  %3 to i32*, !dbg !4599
	%5 = load i32, i32*  %4, align 4, !tbaa !3999, !dbg !4599
	%6 = or i32  %0,  %5, !dbg !4599
	call void  @_ZNSt9basic_iosIcSt11char_traitsIcEE5clearESt12_Ios_Iostate (%struct._ZSt9basic_iosIcSt11char_traitsIcEE*  %1, i32  %6), !dbg !4600
	ret void, !dbg !4599
}
define linkonce_odr signext i8 @_ZNKSt9basic_iosIcSt11char_traitsIcEE5widenEc(%struct._ZSt9basic_iosIcSt11char_traitsIcEE* %_T20584024_52905.arg, i8 signext %__c.arg) #0 inlinehint !dbg !4604 {
L.entry:
	%_T20584024_52905.addr = alloca %struct._ZSt9basic_iosIcSt11char_traitsIcEE*, align 8
	%__c.addr = alloca i8, align 1
	%..inline.addr = alloca %struct._ZSt5ctypeIcE*, align 8
	%..inline.addr.1 = alloca %struct._ZSt5ctypeIcE*, align 8
	%..inline.addr.2 = alloca i8, align 1
	%..inline.addr.3 = alloca i8, align 1
	%.Q0007.addr = alloca i32, align 4

	call void @llvm.dbg.declare (metadata %struct._ZSt9basic_iosIcSt11char_traitsIcEE** %_T20584024_52905.addr, metadata !4616, metadata !3992), !dbg !4605
	store %struct._ZSt9basic_iosIcSt11char_traitsIcEE* %_T20584024_52905.arg, %struct._ZSt9basic_iosIcSt11char_traitsIcEE** %_T20584024_52905.addr, align 8, !tbaa !4000
	call void @llvm.dbg.declare (metadata %struct._ZSt9basic_iosIcSt11char_traitsIcEE** %_T20584024_52905.addr, metadata !4617, metadata !3992), !dbg !4605
	call void @llvm.dbg.declare (metadata i8* %__c.addr, metadata !4618, metadata !3992), !dbg !4605
	store i8 %__c.arg, i8* %__c.addr, align 1, !tbaa !3999
	call void @llvm.dbg.declare (metadata i8* %__c.addr, metadata !4619, metadata !3992), !dbg !4605
	%0 = load %struct._ZSt9basic_iosIcSt11char_traitsIcEE*, %struct._ZSt9basic_iosIcSt11char_traitsIcEE** %_T20584024_52905.addr, align 8, !tbaa !4000, !dbg !4620
	%1 = bitcast %struct._ZSt9basic_iosIcSt11char_traitsIcEE*  %0 to i8*, !dbg !4620
	%2 = getelementptr i8, i8*  %1, i64 240, !dbg !4620
	%3 = bitcast i8*  %2 to i8**, !dbg !4620
	%4 = load i8*, i8**  %3, align 8, !tbaa !4000, !dbg !4620
	%5 = bitcast %struct._ZSt5ctypeIcE** %..inline.addr to i8**, !dbg !4620
	store i8*  %4, i8**  %5, align 8, !tbaa !4000, !dbg !4620
	%6 = load %struct._ZSt5ctypeIcE*, %struct._ZSt5ctypeIcE** %..inline.addr, align 8, !tbaa !4000, !dbg !4620
	%7 = bitcast %struct._ZSt5ctypeIcE*  %6 to i8*, !dbg !4620
	%8 = icmp ne i8*  %7,  null, !dbg !4620
	br i1  %8, label %L..inline.70235, label %L.B1247, !dbg !4620
L.B1247:
	call void  @_ZSt16__throw_bad_castv () noreturn, !dbg !4621
	br label %L..inline.70235
L..inline.70235:
	%9 = load %struct._ZSt5ctypeIcE*, %struct._ZSt5ctypeIcE** %..inline.addr, align 8, !tbaa !4000, !dbg !4622
	%10 = bitcast %struct._ZSt5ctypeIcE*  %9 to i8*, !dbg !4622
	%11 = bitcast %struct._ZSt5ctypeIcE** %..inline.addr.1 to i8**, !dbg !4622
	store i8*  %10, i8**  %11, align 8, !tbaa !4000, !dbg !4622
	%12 = load i8, i8* %__c.addr, align 1, !tbaa !3999, !dbg !4620
	store i8  %12, i8* %..inline.addr.2, align 1, !tbaa !3999, !dbg !4620
	%13 = load %struct._ZSt5ctypeIcE*, %struct._ZSt5ctypeIcE** %..inline.addr.1, align 8, !tbaa !4000, !dbg !4620
	%14 = bitcast %struct._ZSt5ctypeIcE*  %13 to i8*, !dbg !4620
	%15 = getelementptr i8, i8*  %14, i64 56, !dbg !4620
	%16 = load i8, i8*  %15, align 1, !tbaa !3999, !dbg !4620
	%17 = sext i8  %16 to i32, !dbg !4620
	%18 = icmp eq i32  %17, 0, !dbg !4620
	br i1  %18, label %L..inline.70241, label %L.B1248, !dbg !4620
L.B1248:
	%19 = bitcast %struct._ZSt5ctypeIcE*  %13 to i8*, !dbg !4623
	%20 = getelementptr i8, i8*  %19, i64 57, !dbg !4623
	%21 = sext i8  %12 to i32, !dbg !4623
	%22 = and i32  %21, 255, !dbg !4623
	%23 = sext i32  %22 to i64, !dbg !4623
	%24 = getelementptr i8, i8*  %20, i64  %23, !dbg !4623
	%25 = load i8, i8*  %24, align 1, !tbaa !3999, !dbg !4623
	store i8  %25, i8* %..inline.addr.3, align 1, !tbaa !3999, !dbg !4623
	br label %L..inline.70245, !dbg !4624
L..inline.70241:
	%26 = load %struct._ZSt5ctypeIcE*, %struct._ZSt5ctypeIcE** %..inline.addr.1, align 8, !tbaa !4000, !dbg !4625
	call void  @_ZNKSt5ctypeIcE13_M_widen_initEv (%struct._ZSt5ctypeIcE*  %26), !dbg !4625
	%27 = load %struct._ZSt5ctypeIcE*, %struct._ZSt5ctypeIcE** %..inline.addr.1, align 8, !tbaa !4000, !dbg !4626
	%28 = load i8, i8* %..inline.addr.2, align 1, !tbaa !3999, !dbg !4626
	%29 = bitcast %struct._ZSt5ctypeIcE*  %27 to i8**, !dbg !4626
	%30 = load i8*, i8**  %29, align 8, !tbaa !4000, !dbg !4626
	%31 = getelementptr i8, i8*  %30, i64 48, !dbg !4626
	%32 = bitcast i8*  %31 to i8 (%struct._ZSt5ctypeIcE*, i8)**, !dbg !4626
	%33 = load i8 (%struct._ZSt5ctypeIcE*, i8)*, i8 (%struct._ZSt5ctypeIcE*, i8)**  %32, align 8, !tbaa !4000, !dbg !4626
	%34 = call i8  %33 (%struct._ZSt5ctypeIcE*  %27, i8  %28), !dbg !4626
	%35 = sext i8  %34 to i32, !dbg !4626
	store i32  %35, i32* %.Q0007.addr, align 4, !tbaa !4217, !dbg !4626
	%36 = shl i32  %35, 24, !dbg !4626
	%37 = ashr i32  %36, 24, !dbg !4626
	%38 = trunc i32  %37 to i8, !dbg !4626
	store i8  %38, i8* %..inline.addr.3, align 1, !tbaa !3999, !dbg !4626
	br label %L..inline.70245
L..inline.70245:
	%39 = load i8, i8* %..inline.addr.3, align 1, !tbaa !3999, !dbg !4627
	ret i8  %39, !dbg !4627
}
define linkonce_odr %struct._ZSo* @_ZNSolsEPFRSoS_E(%struct._ZSo* %_T20584024_52907.arg, %struct._ZSo* (%struct._ZSo*)* %__pf.arg) #0 inlinehint !dbg !4636 {
L.entry:
	%_T20584024_52907.addr = alloca %struct._ZSo*, align 8
	%__pf.addr = alloca %struct._ZSo* (%struct._ZSo*)*, align 8
	%.Q0008.addr = alloca %struct._ZSo*, align 8

	call void @llvm.dbg.declare (metadata %struct._ZSo** %_T20584024_52907.addr, metadata !4640, metadata !3992), !dbg !4637
	store %struct._ZSo* %_T20584024_52907.arg, %struct._ZSo** %_T20584024_52907.addr, align 8, !tbaa !4000
	call void @llvm.dbg.declare (metadata %struct._ZSo** %_T20584024_52907.addr, metadata !4641, metadata !3992), !dbg !4637
	call void @llvm.dbg.declare (metadata %struct._ZSo* (%struct._ZSo*)** %__pf.addr, metadata !4642, metadata !3992), !dbg !4637
	store %struct._ZSo* (%struct._ZSo*)* %__pf.arg, %struct._ZSo* (%struct._ZSo*)** %__pf.addr, align 8, !tbaa !4000
	call void @llvm.dbg.declare (metadata %struct._ZSo* (%struct._ZSo*)** %__pf.addr, metadata !4643, metadata !3992), !dbg !4637
	%0 = load %struct._ZSo*, %struct._ZSo** %_T20584024_52907.addr, align 8, !tbaa !4000, !dbg !4644
	%1 = load %struct._ZSo* (%struct._ZSo*)*, %struct._ZSo* (%struct._ZSo*)** %__pf.addr, align 8, !tbaa !4000, !dbg !4644
	%2 = call %struct._ZSo*  %1 (%struct._ZSo*  %0), !dbg !4644
	%3 = bitcast %struct._ZSo*  %2 to i8*, !dbg !4644
	%4 = bitcast %struct._ZSo** %.Q0008.addr to i8**, !dbg !4644
	store i8*  %3, i8**  %4, align 8, !tbaa !4000, !dbg !4644
	%5 = load %struct._ZSo*, %struct._ZSo** %.Q0008.addr, align 8, !tbaa !4000, !dbg !4644
	ret %struct._ZSo*  %5, !dbg !4644
}
define linkonce_odr %struct._ZSo* @_ZNSolsEj(%struct._ZSo* %_T20584024_52908.arg, i32 zeroext %__n.arg) #0 inlinehint !dbg !4649 {
L.entry:
	%_T20584024_52908.addr = alloca %struct._ZSo*, align 8
	%__n.addr = alloca i32, align 4
	%.Q0009.addr = alloca %struct._ZSo*, align 8

	call void @llvm.dbg.declare (metadata %struct._ZSo** %_T20584024_52908.addr, metadata !4653, metadata !3992), !dbg !4650
	store %struct._ZSo* %_T20584024_52908.arg, %struct._ZSo** %_T20584024_52908.addr, align 8, !tbaa !4000
	call void @llvm.dbg.declare (metadata %struct._ZSo** %_T20584024_52908.addr, metadata !4654, metadata !3992), !dbg !4650
	call void @llvm.dbg.declare (metadata i32* %__n.addr, metadata !4655, metadata !3992), !dbg !4650
	store i32 %__n.arg, i32* %__n.addr, align 4, !tbaa !3999
	call void @llvm.dbg.declare (metadata i32* %__n.addr, metadata !4656, metadata !3992), !dbg !4650
	%0 = load %struct._ZSo*, %struct._ZSo** %_T20584024_52908.addr, align 8, !tbaa !4000, !dbg !4657
	%1 = load i32, i32* %__n.addr, align 4, !tbaa !4217, !dbg !4657
	%2 = zext i32  %1 to i64, !dbg !4657
	%3 = call %struct._ZSo*  @_ZNSo9_M_insertImEERSoT_ (%struct._ZSo*  %0, i64  %2), !dbg !4657
	%4 = bitcast %struct._ZSo*  %3 to i8*, !dbg !4657
	%5 = bitcast %struct._ZSo** %.Q0009.addr to i8**, !dbg !4657
	store i8*  %4, i8**  %5, align 8, !tbaa !4000, !dbg !4657
	%6 = load %struct._ZSo*, %struct._ZSo** %.Q0009.addr, align 8, !tbaa !4000, !dbg !4657
	ret %struct._ZSo*  %6, !dbg !4657
}
define linkonce_odr void @_ZNSt12_Destroy_auxILb1EE9__destroyIPjEEvT_S3_(i32* %_T20584024_52915.arg, i32* %_T20584320_52915.arg) #0 inlinehint !dbg !4664 {
L.entry:
	%_T20584024_52915.addr = alloca i32*, align 8
	%_T20584320_52915.addr = alloca i32*, align 8

	call void @llvm.dbg.declare (metadata i32** %_T20584024_52915.addr, metadata !4668, metadata !3992), !dbg !4665
	store i32* %_T20584024_52915.arg, i32** %_T20584024_52915.addr, align 8, !tbaa !4000
	call void @llvm.dbg.declare (metadata i32** %_T20584024_52915.addr, metadata !4669, metadata !3992), !dbg !4665
	call void @llvm.dbg.declare (metadata i32** %_T20584320_52915.addr, metadata !4670, metadata !3992), !dbg !4665
	store i32* %_T20584320_52915.arg, i32** %_T20584320_52915.addr, align 8, !tbaa !4000
	call void @llvm.dbg.declare (metadata i32** %_T20584320_52915.addr, metadata !4671, metadata !3992), !dbg !4665
	ret void, !dbg !4672
}
define linkonce_odr void @_ZNSt12_Destroy_auxILb1EE9__destroyIPdEEvT_S3_(double* %_T20584024_52918.arg, double* %_T20584320_52918.arg) #0 inlinehint !dbg !4676 {
L.entry:
	%_T20584024_52918.addr = alloca double*, align 8
	%_T20584320_52918.addr = alloca double*, align 8

	call void @llvm.dbg.declare (metadata double** %_T20584024_52918.addr, metadata !4680, metadata !3992), !dbg !4677
	store double* %_T20584024_52918.arg, double** %_T20584024_52918.addr, align 8, !tbaa !4000
	call void @llvm.dbg.declare (metadata double** %_T20584024_52918.addr, metadata !4681, metadata !3992), !dbg !4677
	call void @llvm.dbg.declare (metadata double** %_T20584320_52918.addr, metadata !4682, metadata !3992), !dbg !4677
	store double* %_T20584320_52918.arg, double** %_T20584320_52918.addr, align 8, !tbaa !4000
	call void @llvm.dbg.declare (metadata double** %_T20584320_52918.addr, metadata !4683, metadata !3992), !dbg !4677
	ret void, !dbg !4684
}

%struct._ZN8projects26DiffusionSpeciesParametersE = type <{ double, double, double, double, i32, i32}> 

define linkonce_odr void @_ZNSt12_Destroy_auxILb1EE9__destroyIPN8projects26DiffusionSpeciesParametersEEEvT_S5_(%struct._ZN8projects26DiffusionSpeciesParametersE* %_T20584024_52921.arg, %struct._ZN8projects26DiffusionSpeciesParametersE* %_T20584320_52921.arg) #0 inlinehint !dbg !4688 {
L.entry:
	%_T20584024_52921.addr = alloca %struct._ZN8projects26DiffusionSpeciesParametersE*, align 8
	%_T20584320_52921.addr = alloca %struct._ZN8projects26DiffusionSpeciesParametersE*, align 8

	call void @llvm.dbg.declare (metadata %struct._ZN8projects26DiffusionSpeciesParametersE** %_T20584024_52921.addr, metadata !4692, metadata !3992), !dbg !4689
	store %struct._ZN8projects26DiffusionSpeciesParametersE* %_T20584024_52921.arg, %struct._ZN8projects26DiffusionSpeciesParametersE** %_T20584024_52921.addr, align 8, !tbaa !4000
	call void @llvm.dbg.declare (metadata %struct._ZN8projects26DiffusionSpeciesParametersE** %_T20584024_52921.addr, metadata !4693, metadata !3992), !dbg !4689
	call void @llvm.dbg.declare (metadata %struct._ZN8projects26DiffusionSpeciesParametersE** %_T20584320_52921.addr, metadata !4694, metadata !3992), !dbg !4689
	store %struct._ZN8projects26DiffusionSpeciesParametersE* %_T20584320_52921.arg, %struct._ZN8projects26DiffusionSpeciesParametersE** %_T20584320_52921.addr, align 8, !tbaa !4000
	call void @llvm.dbg.declare (metadata %struct._ZN8projects26DiffusionSpeciesParametersE** %_T20584320_52921.addr, metadata !4695, metadata !3992), !dbg !4689
	ret void, !dbg !4696
}

%struct._ZSt13move_iteratorIPN8projects26DiffusionSpeciesParametersEE = type <{ %struct._ZN8projects26DiffusionSpeciesParametersE*}> 

define linkonce_odr %struct._ZN8projects26DiffusionSpeciesParametersE* @_ZNSt20__uninitialized_copyILb1EE13__uninit_copyISt13move_iteratorIPN8projects26DiffusionSpeciesParametersEES5_EET0_T_S8_S7_(i64 %__first.coerce, i64 %__last.coerce, %struct._ZN8projects26DiffusionSpeciesParametersE* %__result.arg) #0 inlinehint !dbg !4702 {
L.entry:
	%__first.addr = alloca %struct._ZSt13move_iteratorIPN8projects26DiffusionSpeciesParametersEE, align 8
	%__last.addr = alloca %struct._ZSt13move_iteratorIPN8projects26DiffusionSpeciesParametersEE, align 8
	%__result.addr = alloca %struct._ZN8projects26DiffusionSpeciesParametersE*, align 8
	%..inline.addr = alloca %struct._ZN8projects26DiffusionSpeciesParametersE*, align 8
	%..inline.addr.1 = alloca %struct._ZN8projects26DiffusionSpeciesParametersE*, align 8
	%..inline.addr.2 = alloca i64, align 8

	call void @llvm.dbg.declare (metadata %struct._ZSt13move_iteratorIPN8projects26DiffusionSpeciesParametersEE* %__first.addr, metadata !4762, metadata !3992), !dbg !4703
	%0 = bitcast %struct._ZSt13move_iteratorIPN8projects26DiffusionSpeciesParametersEE* %__first.addr to i64*
	store i64 %__first.coerce, i64*  %0, align 8, !tbaa !3999
	call void @llvm.dbg.declare (metadata %struct._ZSt13move_iteratorIPN8projects26DiffusionSpeciesParametersEE* %__first.addr, metadata !4763, metadata !3992), !dbg !4703
	call void @llvm.dbg.declare (metadata %struct._ZSt13move_iteratorIPN8projects26DiffusionSpeciesParametersEE* %__last.addr, metadata !4764, metadata !3992), !dbg !4703
	%1 = bitcast %struct._ZSt13move_iteratorIPN8projects26DiffusionSpeciesParametersEE* %__last.addr to i64*
	store i64 %__last.coerce, i64*  %1, align 8, !tbaa !3999
	call void @llvm.dbg.declare (metadata %struct._ZSt13move_iteratorIPN8projects26DiffusionSpeciesParametersEE* %__last.addr, metadata !4765, metadata !3992), !dbg !4703
	call void @llvm.dbg.declare (metadata %struct._ZN8projects26DiffusionSpeciesParametersE** %__result.addr, metadata !4766, metadata !3992), !dbg !4703
	store %struct._ZN8projects26DiffusionSpeciesParametersE* %__result.arg, %struct._ZN8projects26DiffusionSpeciesParametersE** %__result.addr, align 8, !tbaa !4000
	call void @llvm.dbg.declare (metadata %struct._ZN8projects26DiffusionSpeciesParametersE** %__result.addr, metadata !4767, metadata !3992), !dbg !4703
	%2 = bitcast %struct._ZSt13move_iteratorIPN8projects26DiffusionSpeciesParametersEE* %__first.addr to i8**, !dbg !4768
	%3 = load i8*, i8**  %2, align 8, !tbaa !4000, !dbg !4768
	%4 = bitcast %struct._ZN8projects26DiffusionSpeciesParametersE** %..inline.addr to i8**, !dbg !4768
	store i8*  %3, i8**  %4, align 8, !tbaa !4000, !dbg !4768
	%5 = load %struct._ZN8projects26DiffusionSpeciesParametersE*, %struct._ZN8projects26DiffusionSpeciesParametersE** %__result.addr, align 8, !tbaa !4000, !dbg !4768
	%6 = bitcast %struct._ZN8projects26DiffusionSpeciesParametersE*  %5 to i8*, !dbg !4768
	%7 = bitcast %struct._ZN8projects26DiffusionSpeciesParametersE** %..inline.addr.1 to i8**, !dbg !4768
	store i8*  %6, i8**  %7, align 8, !tbaa !4000, !dbg !4768
	%8 = bitcast %struct._ZSt13move_iteratorIPN8projects26DiffusionSpeciesParametersEE* %__last.addr to i8**, !dbg !4768
	%9 = load i8*, i8**  %8, align 8, !tbaa !4000, !dbg !4768
	%10 = ptrtoint i8*  %3 to i64, !dbg !4768
	%11 = sub i64 0,  %10, !dbg !4768
	%12 = getelementptr i8, i8*  %9, i64  %11, !dbg !4768
	%13 = ptrtoint i8*  %12 to i64, !dbg !4768
	%14 = sext i64 7378697629483820647 to i128, !dbg !4768
	%15 = sext i64  %13 to i128, !dbg !4768
	%16 = mul i128  %14,  %15, !dbg !4768
	%17 = ashr i128  %16, 64, !dbg !4768
	%18 = trunc i128  %17 to i64, !dbg !4768
	%19 = sext i32 4 to i64, !dbg !4768
	%20 = ashr i64  %18,  %19, !dbg !4768
	%21 = sub i64 0,  %10, !dbg !4768
	%22 = getelementptr i8, i8*  %9, i64  %21, !dbg !4768
	%23 = ptrtoint i8*  %22 to i64, !dbg !4768
	%24 = sext i32 63 to i64, !dbg !4768
	%25 = ashr i64  %23,  %24, !dbg !4768
	%26 = sub i64  %20,  %25, !dbg !4768
	store i64  %26, i64* %..inline.addr.2, align 8, !tbaa !4427, !dbg !4768
	%27 = icmp eq i64  %26, 0, !dbg !4768
	br i1  %27, label %L..inline.70361, label %L.B1251, !dbg !4768
L.B1251:
	%28 = load %struct._ZN8projects26DiffusionSpeciesParametersE*, %struct._ZN8projects26DiffusionSpeciesParametersE** %..inline.addr.1, align 8, !tbaa !4000, !dbg !4768
	%29 = bitcast %struct._ZN8projects26DiffusionSpeciesParametersE*  %28 to i8*, !dbg !4768
	%30 = load %struct._ZN8projects26DiffusionSpeciesParametersE*, %struct._ZN8projects26DiffusionSpeciesParametersE** %..inline.addr, align 8, !tbaa !4000, !dbg !4768
	%31 = bitcast %struct._ZN8projects26DiffusionSpeciesParametersE*  %30 to i8*, !dbg !4768
	%32 = mul i64  %26, 40, !dbg !4768
	%33 = call i8*  @memmove (i8*  %29, i8*  %31, i64  %32) nounwind, !dbg !4768
	br label %L..inline.70361
L..inline.70361:
	%34 = load %struct._ZN8projects26DiffusionSpeciesParametersE*, %struct._ZN8projects26DiffusionSpeciesParametersE** %..inline.addr.1, align 8, !tbaa !4000, !dbg !4769
	%35 = bitcast %struct._ZN8projects26DiffusionSpeciesParametersE*  %34 to i8*, !dbg !4769
	%36 = load i64, i64* %..inline.addr.2, align 8, !tbaa !4427, !dbg !4769
	%37 = mul i64  %36, 40, !dbg !4769
	%38 = getelementptr i8, i8*  %35, i64  %37, !dbg !4769
	%39 = bitcast i8*  %38 to %struct._ZN8projects26DiffusionSpeciesParametersE*, !dbg !4769
	ret %struct._ZN8projects26DiffusionSpeciesParametersE*  %39, !dbg !4769
}

%struct._ZSaIjE = type <{ [1 x i8]}> 

define linkonce_odr void @_ZNSaIjED1Ev(%struct._ZSaIjE* %_T20584024_52925.arg) #0 inlinehint !dbg !4778 {
L.entry:
	%_T20584024_52925.addr = alloca %struct._ZSaIjE*, align 8

	call void @llvm.dbg.declare (metadata %struct._ZSaIjE** %_T20584024_52925.addr, metadata !4782, metadata !3992), !dbg !4779
	store %struct._ZSaIjE* %_T20584024_52925.arg, %struct._ZSaIjE** %_T20584024_52925.addr, align 8, !tbaa !4000
	call void @llvm.dbg.declare (metadata %struct._ZSaIjE** %_T20584024_52925.addr, metadata !4783, metadata !3992), !dbg !4779
	ret void, !dbg !4784
}
define linkonce_odr void @_ZNSaIjED2Ev(%struct._ZSaIjE* %_T20584024_52926.arg) #0 inlinehint !dbg !4786 {
L.entry:
	%_T20584024_52926.addr = alloca %struct._ZSaIjE*, align 8

	store %struct._ZSaIjE* %_T20584024_52926.arg, %struct._ZSaIjE** %_T20584024_52926.addr, align 8, !tbaa !4000
	ret void, !dbg !4794
}
define linkonce_odr void @_ZNSt16allocator_traitsISaIjEE10deallocateERS0_Pjm(%struct._ZSaIjE* %__a.arg, i32* %__p.arg, i64 %__n.arg) #0 inlinehint !dbg !4802 {
L.entry:
	%__a.addr = alloca %struct._ZSaIjE*, align 8
	%__p.addr = alloca i32*, align 8
	%__n.addr = alloca i64, align 8
	%..inline.addr = alloca i32*, align 8

	call void @llvm.dbg.declare (metadata %struct._ZSaIjE** %__a.addr, metadata !4810, metadata !3992), !dbg !4803
	store %struct._ZSaIjE* %__a.arg, %struct._ZSaIjE** %__a.addr, align 8, !tbaa !4000
	call void @llvm.dbg.declare (metadata %struct._ZSaIjE** %__a.addr, metadata !4811, metadata !3992), !dbg !4803
	call void @llvm.dbg.declare (metadata i32** %__p.addr, metadata !4812, metadata !3992), !dbg !4803
	store i32* %__p.arg, i32** %__p.addr, align 8, !tbaa !4000
	call void @llvm.dbg.declare (metadata i32** %__p.addr, metadata !4813, metadata !3992), !dbg !4803
	call void @llvm.dbg.declare (metadata i64* %__n.addr, metadata !4814, metadata !3992), !dbg !4803
	store i64 %__n.arg, i64* %__n.addr, align 8, !tbaa !3999
	call void @llvm.dbg.declare (metadata i64* %__n.addr, metadata !4815, metadata !3992), !dbg !4803
	%0 = load i32*, i32** %__p.addr, align 8, !tbaa !4000, !dbg !4816
	%1 = bitcast i32*  %0 to i8*, !dbg !4816
	%2 = bitcast i32** %..inline.addr to i8**, !dbg !4816
	store i8*  %1, i8**  %2, align 8, !tbaa !4000, !dbg !4816
	%3 = load i32*, i32** %..inline.addr, align 8, !tbaa !4000, !dbg !4817
	%4 = bitcast i32*  %3 to i8*, !dbg !4817
	call void  @_ZdlPv (i8*  %4) nounwind, !dbg !4817
	ret void, !dbg !4816
}

%struct._ZSt12_Vector_baseIjSaIjEE = type <{ %struct._ZNSt12_Vector_baseIjSaIjEE12_Vector_implE}> 
%struct._ZNSt12_Vector_baseIjSaIjEE17_Vector_impl_dataE = type <{ i32*, i32*, i32*}> 
%struct._ZNSt12_Vector_baseIjSaIjEE12_Vector_implE = type <{ %struct._ZNSt12_Vector_baseIjSaIjEE17_Vector_impl_dataE}> 

define linkonce_odr %struct._ZSaIjE* @_ZNSt12_Vector_baseIjSaIjEE19_M_get_Tp_allocatorEv(%struct._ZSt12_Vector_baseIjSaIjEE* %_T20584024_52932.arg) #0 inlinehint !dbg !4825 {
L.entry:
	%_T20584024_52932.addr = alloca %struct._ZSt12_Vector_baseIjSaIjEE*, align 8

	call void @llvm.dbg.declare (metadata %struct._ZSt12_Vector_baseIjSaIjEE** %_T20584024_52932.addr, metadata !4829, metadata !3992), !dbg !4826
	store %struct._ZSt12_Vector_baseIjSaIjEE* %_T20584024_52932.arg, %struct._ZSt12_Vector_baseIjSaIjEE** %_T20584024_52932.addr, align 8, !tbaa !4000
	call void @llvm.dbg.declare (metadata %struct._ZSt12_Vector_baseIjSaIjEE** %_T20584024_52932.addr, metadata !4830, metadata !3992), !dbg !4826
	%0 = load %struct._ZSt12_Vector_baseIjSaIjEE*, %struct._ZSt12_Vector_baseIjSaIjEE** %_T20584024_52932.addr, align 8, !tbaa !4000, !dbg !4831
	%1 = bitcast %struct._ZSt12_Vector_baseIjSaIjEE*  %0 to %struct._ZSaIjE*, !dbg !4831
	ret %struct._ZSaIjE*  %1, !dbg !4831
}
define linkonce_odr void @_ZNSt12_Vector_baseIjSaIjEED1Ev(%struct._ZSt12_Vector_baseIjSaIjEE* %_T20584024_52933.arg) #0 inlinehint !dbg !4835 {
L.entry:
	%_T20584024_52933.addr = alloca %struct._ZSt12_Vector_baseIjSaIjEE*, align 8
	%..inline.addr = alloca i32*, align 8

	call void @llvm.dbg.declare (metadata %struct._ZSt12_Vector_baseIjSaIjEE** %_T20584024_52933.addr, metadata !4863, metadata !3992), !dbg !4836
	store %struct._ZSt12_Vector_baseIjSaIjEE* %_T20584024_52933.arg, %struct._ZSt12_Vector_baseIjSaIjEE** %_T20584024_52933.addr, align 8, !tbaa !4000
	call void @llvm.dbg.declare (metadata %struct._ZSt12_Vector_baseIjSaIjEE** %_T20584024_52933.addr, metadata !4864, metadata !3992), !dbg !4836
	%0 = load %struct._ZSt12_Vector_baseIjSaIjEE*, %struct._ZSt12_Vector_baseIjSaIjEE** %_T20584024_52933.addr, align 8, !tbaa !4000, !dbg !4865
	%1 = bitcast %struct._ZSt12_Vector_baseIjSaIjEE*  %0 to i8**, !dbg !4865
	%2 = load i8*, i8**  %1, align 8, !tbaa !4000, !dbg !4865
	%3 = icmp eq i8*  %2,  null, !dbg !4865
	br i1  %3, label %L..inline.70450, label %L.B1260, !dbg !4865
L.B1260:
	%4 = bitcast %struct._ZSt12_Vector_baseIjSaIjEE*  %0 to i8**, !dbg !4866
	%5 = load i8*, i8**  %4, align 8, !tbaa !4000, !dbg !4866
	%6 = bitcast i32** %..inline.addr to i8**, !dbg !4866
	store i8*  %5, i8**  %6, align 8, !tbaa !4000, !dbg !4866
	%7 = load i32*, i32** %..inline.addr, align 8, !tbaa !4000, !dbg !4866
	%8 = bitcast i32*  %7 to i8*, !dbg !4866
	call void  @_ZdlPv (i8*  %8) nounwind, !dbg !4866
	br label %L..inline.70450
L..inline.70450:
	ret void, !dbg !4867
}
define linkonce_odr void @_ZNSt12_Vector_baseIjSaIjEED2Ev(%struct._ZSt12_Vector_baseIjSaIjEE* %_T20584024_52934.arg) #0 inlinehint !dbg !4869 {
L.entry:
	%_T20584024_52934.addr = alloca %struct._ZSt12_Vector_baseIjSaIjEE*, align 8
	%..inline.addr = alloca %struct._ZSt12_Vector_baseIjSaIjEE*, align 8
	%..inline.addr.1 = alloca i32*, align 8

	store %struct._ZSt12_Vector_baseIjSaIjEE* %_T20584024_52934.arg, %struct._ZSt12_Vector_baseIjSaIjEE** %_T20584024_52934.addr, align 8, !tbaa !4000
	%0 = load %struct._ZSt12_Vector_baseIjSaIjEE*, %struct._ZSt12_Vector_baseIjSaIjEE** %_T20584024_52934.addr, align 8, !tbaa !4000, !dbg !4901
	%1 = bitcast %struct._ZSt12_Vector_baseIjSaIjEE*  %0 to i8*, !dbg !4901
	%2 = bitcast %struct._ZSt12_Vector_baseIjSaIjEE** %..inline.addr to i8**, !dbg !4901
	store i8*  %1, i8**  %2, align 8, !tbaa !4000, !dbg !4901
	%3 = load %struct._ZSt12_Vector_baseIjSaIjEE*, %struct._ZSt12_Vector_baseIjSaIjEE** %..inline.addr, align 8, !tbaa !4000, !dbg !4901
	%4 = bitcast %struct._ZSt12_Vector_baseIjSaIjEE*  %3 to i8**, !dbg !4901
	%5 = load i8*, i8**  %4, align 8, !tbaa !4000, !dbg !4901
	%6 = icmp eq i8*  %5,  null, !dbg !4901
	br i1  %6, label %L..inline.70509, label %L.B1263, !dbg !4901
L.B1263:
	%7 = bitcast %struct._ZSt12_Vector_baseIjSaIjEE*  %3 to i8**, !dbg !4901
	%8 = load i8*, i8**  %7, align 8, !tbaa !4000, !dbg !4901
	%9 = bitcast i32** %..inline.addr.1 to i8**, !dbg !4901
	store i8*  %8, i8**  %9, align 8, !tbaa !4000, !dbg !4901
	%10 = load i32*, i32** %..inline.addr.1, align 8, !tbaa !4000, !dbg !4901
	%11 = bitcast i32*  %10 to i8*, !dbg !4901
	call void  @_ZdlPv (i8*  %11) nounwind, !dbg !4901
	br label %L..inline.70509
L..inline.70509:
	ret void, !dbg !4902
}
define linkonce_odr void @_ZNSt12_Vector_baseIjSaIjEE13_M_deallocateEPjm(%struct._ZSt12_Vector_baseIjSaIjEE* %_T20584024_52937.arg, i32* %__p.arg, i64 %__n.arg) #0 inlinehint !dbg !4906 {
L.entry:
	%_T20584024_52937.addr = alloca %struct._ZSt12_Vector_baseIjSaIjEE*, align 8
	%__p.addr = alloca i32*, align 8
	%__n.addr = alloca i64, align 8
	%..inline.addr = alloca i32*, align 8

	call void @llvm.dbg.declare (metadata %struct._ZSt12_Vector_baseIjSaIjEE** %_T20584024_52937.addr, metadata !4918, metadata !3992), !dbg !4907
	store %struct._ZSt12_Vector_baseIjSaIjEE* %_T20584024_52937.arg, %struct._ZSt12_Vector_baseIjSaIjEE** %_T20584024_52937.addr, align 8, !tbaa !4000
	call void @llvm.dbg.declare (metadata %struct._ZSt12_Vector_baseIjSaIjEE** %_T20584024_52937.addr, metadata !4919, metadata !3992), !dbg !4907
	call void @llvm.dbg.declare (metadata i32** %__p.addr, metadata !4920, metadata !3992), !dbg !4907
	store i32* %__p.arg, i32** %__p.addr, align 8, !tbaa !4000
	call void @llvm.dbg.declare (metadata i32** %__p.addr, metadata !4921, metadata !3992), !dbg !4907
	call void @llvm.dbg.declare (metadata i64* %__n.addr, metadata !4922, metadata !3992), !dbg !4907
	store i64 %__n.arg, i64* %__n.addr, align 8, !tbaa !3999
	call void @llvm.dbg.declare (metadata i64* %__n.addr, metadata !4923, metadata !3992), !dbg !4907
	%0 = load i32*, i32** %__p.addr, align 8, !tbaa !4000, !dbg !4924
	%1 = bitcast i32*  %0 to i8*, !dbg !4924
	%2 = icmp eq i8*  %1,  null, !dbg !4924
	br i1  %2, label %L.B0006, label %L.B1266, !dbg !4924
L.B1266:
	%3 = bitcast i32*  %0 to i8*, !dbg !4925
	%4 = bitcast i32** %..inline.addr to i8**, !dbg !4925
	store i8*  %3, i8**  %4, align 8, !tbaa !4000, !dbg !4925
	%5 = load i32*, i32** %..inline.addr, align 8, !tbaa !4000, !dbg !4925
	%6 = bitcast i32*  %5 to i8*, !dbg !4925
	call void  @_ZdlPv (i8*  %6) nounwind, !dbg !4925
	br label %L.B0006
L.B0006:
	ret void, !dbg !4926
}
define linkonce_odr void @_ZNSt12_Vector_baseIjSaIjEE12_Vector_implD1Ev(%struct._ZNSt12_Vector_baseIjSaIjEE12_Vector_implE* %_T20584024_52938.arg) #0 inlinehint !dbg !4931 {
L.entry:
	%_T20584024_52938.addr = alloca %struct._ZNSt12_Vector_baseIjSaIjEE12_Vector_implE*, align 8

	call void @llvm.dbg.declare (metadata %struct._ZNSt12_Vector_baseIjSaIjEE12_Vector_implE** %_T20584024_52938.addr, metadata !4943, metadata !3992), !dbg !4932
	store %struct._ZNSt12_Vector_baseIjSaIjEE12_Vector_implE* %_T20584024_52938.arg, %struct._ZNSt12_Vector_baseIjSaIjEE12_Vector_implE** %_T20584024_52938.addr, align 8, !tbaa !4000
	call void @llvm.dbg.declare (metadata %struct._ZNSt12_Vector_baseIjSaIjEE12_Vector_implE** %_T20584024_52938.addr, metadata !4944, metadata !3992), !dbg !4932
	ret void, !dbg !4945
}
define linkonce_odr void @_ZNSt12_Vector_baseIjSaIjEE12_Vector_implD2Ev(%struct._ZNSt12_Vector_baseIjSaIjEE12_Vector_implE* %_T20584024_52939.arg) #0 inlinehint !dbg !4947 {
L.entry:
	%_T20584024_52939.addr = alloca %struct._ZNSt12_Vector_baseIjSaIjEE12_Vector_implE*, align 8

	store %struct._ZNSt12_Vector_baseIjSaIjEE12_Vector_implE* %_T20584024_52939.arg, %struct._ZNSt12_Vector_baseIjSaIjEE12_Vector_implE** %_T20584024_52939.addr, align 8, !tbaa !4000
	ret void, !dbg !4963
}

%struct._ZSt6vectorIjSaIjEE = type <{ %struct._ZSt12_Vector_baseIjSaIjEE}> 

define linkonce_odr void @_ZNSt6vectorIjSaIjEED1Ev(%struct._ZSt6vectorIjSaIjEE* %_T20584024_52940.arg) #0 inlinehint !dbg !4967 {
L.entry:
	%_T20584024_52940.addr = alloca %struct._ZSt6vectorIjSaIjEE*, align 8
	%..inline.addr = alloca %struct._ZSt12_Vector_baseIjSaIjEE*, align 8
	%..inline.addr.1 = alloca i32*, align 8

	call void @llvm.dbg.declare (metadata %struct._ZSt6vectorIjSaIjEE** %_T20584024_52940.addr, metadata !5019, metadata !3992), !dbg !4968
	store %struct._ZSt6vectorIjSaIjEE* %_T20584024_52940.arg, %struct._ZSt6vectorIjSaIjEE** %_T20584024_52940.addr, align 8, !tbaa !4000
	call void @llvm.dbg.declare (metadata %struct._ZSt6vectorIjSaIjEE** %_T20584024_52940.addr, metadata !5020, metadata !3992), !dbg !4968
	%0 = load %struct._ZSt6vectorIjSaIjEE*, %struct._ZSt6vectorIjSaIjEE** %_T20584024_52940.addr, align 8, !tbaa !4000, !dbg !5021
	%1 = bitcast %struct._ZSt6vectorIjSaIjEE*  %0 to i8*, !dbg !5021
	%2 = bitcast %struct._ZSt12_Vector_baseIjSaIjEE** %..inline.addr to i8**, !dbg !5021
	store i8*  %1, i8**  %2, align 8, !tbaa !4000, !dbg !5021
	%3 = load %struct._ZSt12_Vector_baseIjSaIjEE*, %struct._ZSt12_Vector_baseIjSaIjEE** %..inline.addr, align 8, !tbaa !4000, !dbg !5022
	%4 = bitcast %struct._ZSt12_Vector_baseIjSaIjEE*  %3 to i8**, !dbg !5022
	%5 = load i8*, i8**  %4, align 8, !tbaa !4000, !dbg !5022
	%6 = icmp eq i8*  %5,  null, !dbg !5022
	br i1  %6, label %L..inline.70660, label %L.B1277, !dbg !5022
L.B1277:
	%7 = bitcast %struct._ZSt12_Vector_baseIjSaIjEE*  %3 to i8**, !dbg !5022
	%8 = load i8*, i8**  %7, align 8, !tbaa !4000, !dbg !5022
	%9 = bitcast i32** %..inline.addr.1 to i8**, !dbg !5022
	store i8*  %8, i8**  %9, align 8, !tbaa !4000, !dbg !5022
	%10 = load i32*, i32** %..inline.addr.1, align 8, !tbaa !4000, !dbg !5022
	%11 = bitcast i32*  %10 to i8*, !dbg !5022
	call void  @_ZdlPv (i8*  %11) nounwind, !dbg !5022
	br label %L..inline.70660
L..inline.70660:
	ret void, !dbg !5021
}
define linkonce_odr void @_ZNSt6vectorIjSaIjEED2Ev(%struct._ZSt6vectorIjSaIjEE* %_T20584024_52941.arg) #0 inlinehint !dbg !5024 {
L.entry:
	%_T20584024_52941.addr = alloca %struct._ZSt6vectorIjSaIjEE*, align 8
	%..inline.addr = alloca %struct._ZSt12_Vector_baseIjSaIjEE*, align 8
	%..inline.addr.1 = alloca i32*, align 8

	store %struct._ZSt6vectorIjSaIjEE* %_T20584024_52941.arg, %struct._ZSt6vectorIjSaIjEE** %_T20584024_52941.addr, align 8, !tbaa !4000
	%0 = load %struct._ZSt6vectorIjSaIjEE*, %struct._ZSt6vectorIjSaIjEE** %_T20584024_52941.addr, align 8, !tbaa !4000, !dbg !5080
	%1 = bitcast %struct._ZSt6vectorIjSaIjEE*  %0 to i8*, !dbg !5080
	%2 = bitcast %struct._ZSt12_Vector_baseIjSaIjEE** %..inline.addr to i8**, !dbg !5080
	store i8*  %1, i8**  %2, align 8, !tbaa !4000, !dbg !5080
	%3 = load %struct._ZSt12_Vector_baseIjSaIjEE*, %struct._ZSt12_Vector_baseIjSaIjEE** %..inline.addr, align 8, !tbaa !4000, !dbg !5080
	%4 = bitcast %struct._ZSt12_Vector_baseIjSaIjEE*  %3 to i8**, !dbg !5080
	%5 = load i8*, i8**  %4, align 8, !tbaa !4000, !dbg !5080
	%6 = icmp eq i8*  %5,  null, !dbg !5080
	br i1  %6, label %L..inline.70764, label %L.B1280, !dbg !5080
L.B1280:
	%7 = bitcast %struct._ZSt12_Vector_baseIjSaIjEE*  %3 to i8**, !dbg !5080
	%8 = load i8*, i8**  %7, align 8, !tbaa !4000, !dbg !5080
	%9 = bitcast i32** %..inline.addr.1 to i8**, !dbg !5080
	store i8*  %8, i8**  %9, align 8, !tbaa !4000, !dbg !5080
	%10 = load i32*, i32** %..inline.addr.1, align 8, !tbaa !4000, !dbg !5080
	%11 = bitcast i32*  %10 to i8*, !dbg !5080
	call void  @_ZdlPv (i8*  %11) nounwind, !dbg !5080
	br label %L..inline.70764
L..inline.70764:
	ret void, !dbg !5080
}

%struct._ZSaIdE = type <{ [1 x i8]}> 

define linkonce_odr void @_ZNSaIdED1Ev(%struct._ZSaIdE* %_T20584024_52942.arg) #0 inlinehint !dbg !5088 {
L.entry:
	%_T20584024_52942.addr = alloca %struct._ZSaIdE*, align 8

	call void @llvm.dbg.declare (metadata %struct._ZSaIdE** %_T20584024_52942.addr, metadata !5092, metadata !3992), !dbg !5089
	store %struct._ZSaIdE* %_T20584024_52942.arg, %struct._ZSaIdE** %_T20584024_52942.addr, align 8, !tbaa !4000
	call void @llvm.dbg.declare (metadata %struct._ZSaIdE** %_T20584024_52942.addr, metadata !5093, metadata !3992), !dbg !5089
	ret void, !dbg !5094
}
define linkonce_odr void @_ZNSaIdED2Ev(%struct._ZSaIdE* %_T20584024_52943.arg) #0 inlinehint !dbg !5096 {
L.entry:
	%_T20584024_52943.addr = alloca %struct._ZSaIdE*, align 8

	store %struct._ZSaIdE* %_T20584024_52943.arg, %struct._ZSaIdE** %_T20584024_52943.addr, align 8, !tbaa !4000
	ret void, !dbg !5104
}
define linkonce_odr void @_ZNSt16allocator_traitsISaIdEE10deallocateERS0_Pdm(%struct._ZSaIdE* %__a.arg, double* %__p.arg, i64 %__n.arg) #0 inlinehint !dbg !5112 {
L.entry:
	%__a.addr = alloca %struct._ZSaIdE*, align 8
	%__p.addr = alloca double*, align 8
	%__n.addr = alloca i64, align 8
	%..inline.addr = alloca double*, align 8

	call void @llvm.dbg.declare (metadata %struct._ZSaIdE** %__a.addr, metadata !5120, metadata !3992), !dbg !5113
	store %struct._ZSaIdE* %__a.arg, %struct._ZSaIdE** %__a.addr, align 8, !tbaa !4000
	call void @llvm.dbg.declare (metadata %struct._ZSaIdE** %__a.addr, metadata !5121, metadata !3992), !dbg !5113
	call void @llvm.dbg.declare (metadata double** %__p.addr, metadata !5122, metadata !3992), !dbg !5113
	store double* %__p.arg, double** %__p.addr, align 8, !tbaa !4000
	call void @llvm.dbg.declare (metadata double** %__p.addr, metadata !5123, metadata !3992), !dbg !5113
	call void @llvm.dbg.declare (metadata i64* %__n.addr, metadata !5124, metadata !3992), !dbg !5113
	store i64 %__n.arg, i64* %__n.addr, align 8, !tbaa !3999
	call void @llvm.dbg.declare (metadata i64* %__n.addr, metadata !5125, metadata !3992), !dbg !5113
	%0 = load double*, double** %__p.addr, align 8, !tbaa !4000, !dbg !5126
	%1 = bitcast double*  %0 to i8*, !dbg !5126
	%2 = bitcast double** %..inline.addr to i8**, !dbg !5126
	store i8*  %1, i8**  %2, align 8, !tbaa !4000, !dbg !5126
	%3 = load double*, double** %..inline.addr, align 8, !tbaa !4000, !dbg !5127
	%4 = bitcast double*  %3 to i8*, !dbg !5127
	call void  @_ZdlPv (i8*  %4) nounwind, !dbg !5127
	ret void, !dbg !5126
}

%struct._ZNSt12_Vector_baseIdSaIdEE17_Vector_impl_dataE = type <{ double*, double*, double*}> 
%struct._ZNSt12_Vector_baseIdSaIdEE12_Vector_implE = type <{ %struct._ZNSt12_Vector_baseIdSaIdEE17_Vector_impl_dataE}> 
%struct._ZSt12_Vector_baseIdSaIdEE = type <{ %struct._ZNSt12_Vector_baseIdSaIdEE12_Vector_implE}> 

define linkonce_odr %struct._ZSaIdE* @_ZNSt12_Vector_baseIdSaIdEE19_M_get_Tp_allocatorEv(%struct._ZSt12_Vector_baseIdSaIdEE* %_T20584024_52949.arg) #0 inlinehint !dbg !5133 {
L.entry:
	%_T20584024_52949.addr = alloca %struct._ZSt12_Vector_baseIdSaIdEE*, align 8

	call void @llvm.dbg.declare (metadata %struct._ZSt12_Vector_baseIdSaIdEE** %_T20584024_52949.addr, metadata !5137, metadata !3992), !dbg !5134
	store %struct._ZSt12_Vector_baseIdSaIdEE* %_T20584024_52949.arg, %struct._ZSt12_Vector_baseIdSaIdEE** %_T20584024_52949.addr, align 8, !tbaa !4000
	call void @llvm.dbg.declare (metadata %struct._ZSt12_Vector_baseIdSaIdEE** %_T20584024_52949.addr, metadata !5138, metadata !3992), !dbg !5134
	%0 = load %struct._ZSt12_Vector_baseIdSaIdEE*, %struct._ZSt12_Vector_baseIdSaIdEE** %_T20584024_52949.addr, align 8, !tbaa !4000, !dbg !5139
	%1 = bitcast %struct._ZSt12_Vector_baseIdSaIdEE*  %0 to %struct._ZSaIdE*, !dbg !5139
	ret %struct._ZSaIdE*  %1, !dbg !5139
}
define linkonce_odr void @_ZNSt12_Vector_baseIdSaIdEED1Ev(%struct._ZSt12_Vector_baseIdSaIdEE* %_T20584024_52950.arg) #0 inlinehint !dbg !5143 {
L.entry:
	%_T20584024_52950.addr = alloca %struct._ZSt12_Vector_baseIdSaIdEE*, align 8
	%..inline.addr = alloca double*, align 8

	call void @llvm.dbg.declare (metadata %struct._ZSt12_Vector_baseIdSaIdEE** %_T20584024_52950.addr, metadata !5171, metadata !3992), !dbg !5144
	store %struct._ZSt12_Vector_baseIdSaIdEE* %_T20584024_52950.arg, %struct._ZSt12_Vector_baseIdSaIdEE** %_T20584024_52950.addr, align 8, !tbaa !4000
	call void @llvm.dbg.declare (metadata %struct._ZSt12_Vector_baseIdSaIdEE** %_T20584024_52950.addr, metadata !5172, metadata !3992), !dbg !5144
	%0 = load %struct._ZSt12_Vector_baseIdSaIdEE*, %struct._ZSt12_Vector_baseIdSaIdEE** %_T20584024_52950.addr, align 8, !tbaa !4000, !dbg !5173
	%1 = bitcast %struct._ZSt12_Vector_baseIdSaIdEE*  %0 to i8**, !dbg !5173
	%2 = load i8*, i8**  %1, align 8, !tbaa !4000, !dbg !5173
	%3 = icmp eq i8*  %2,  null, !dbg !5173
	br i1  %3, label %L..inline.70860, label %L.B1289, !dbg !5173
L.B1289:
	%4 = bitcast %struct._ZSt12_Vector_baseIdSaIdEE*  %0 to i8**, !dbg !5174
	%5 = load i8*, i8**  %4, align 8, !tbaa !4000, !dbg !5174
	%6 = bitcast double** %..inline.addr to i8**, !dbg !5174
	store i8*  %5, i8**  %6, align 8, !tbaa !4000, !dbg !5174
	%7 = load double*, double** %..inline.addr, align 8, !tbaa !4000, !dbg !5174
	%8 = bitcast double*  %7 to i8*, !dbg !5174
	call void  @_ZdlPv (i8*  %8) nounwind, !dbg !5174
	br label %L..inline.70860
L..inline.70860:
	ret void, !dbg !5175
}
define linkonce_odr void @_ZNSt12_Vector_baseIdSaIdEED2Ev(%struct._ZSt12_Vector_baseIdSaIdEE* %_T20584024_52951.arg) #0 inlinehint !dbg !5177 {
L.entry:
	%_T20584024_52951.addr = alloca %struct._ZSt12_Vector_baseIdSaIdEE*, align 8
	%..inline.addr = alloca %struct._ZSt12_Vector_baseIdSaIdEE*, align 8
	%..inline.addr.1 = alloca double*, align 8

	store %struct._ZSt12_Vector_baseIdSaIdEE* %_T20584024_52951.arg, %struct._ZSt12_Vector_baseIdSaIdEE** %_T20584024_52951.addr, align 8, !tbaa !4000
	%0 = load %struct._ZSt12_Vector_baseIdSaIdEE*, %struct._ZSt12_Vector_baseIdSaIdEE** %_T20584024_52951.addr, align 8, !tbaa !4000, !dbg !5209
	%1 = bitcast %struct._ZSt12_Vector_baseIdSaIdEE*  %0 to i8*, !dbg !5209
	%2 = bitcast %struct._ZSt12_Vector_baseIdSaIdEE** %..inline.addr to i8**, !dbg !5209
	store i8*  %1, i8**  %2, align 8, !tbaa !4000, !dbg !5209
	%3 = load %struct._ZSt12_Vector_baseIdSaIdEE*, %struct._ZSt12_Vector_baseIdSaIdEE** %..inline.addr, align 8, !tbaa !4000, !dbg !5209
	%4 = bitcast %struct._ZSt12_Vector_baseIdSaIdEE*  %3 to i8**, !dbg !5209
	%5 = load i8*, i8**  %4, align 8, !tbaa !4000, !dbg !5209
	%6 = icmp eq i8*  %5,  null, !dbg !5209
	br i1  %6, label %L..inline.70921, label %L.B1292, !dbg !5209
L.B1292:
	%7 = bitcast %struct._ZSt12_Vector_baseIdSaIdEE*  %3 to i8**, !dbg !5209
	%8 = load i8*, i8**  %7, align 8, !tbaa !4000, !dbg !5209
	%9 = bitcast double** %..inline.addr.1 to i8**, !dbg !5209
	store i8*  %8, i8**  %9, align 8, !tbaa !4000, !dbg !5209
	%10 = load double*, double** %..inline.addr.1, align 8, !tbaa !4000, !dbg !5209
	%11 = bitcast double*  %10 to i8*, !dbg !5209
	call void  @_ZdlPv (i8*  %11) nounwind, !dbg !5209
	br label %L..inline.70921
L..inline.70921:
	ret void, !dbg !5210
}
define linkonce_odr void @_ZNSt12_Vector_baseIdSaIdEE13_M_deallocateEPdm(%struct._ZSt12_Vector_baseIdSaIdEE* %_T20584024_52954.arg, double* %__p.arg, i64 %__n.arg) #0 inlinehint !dbg !5214 {
L.entry:
	%_T20584024_52954.addr = alloca %struct._ZSt12_Vector_baseIdSaIdEE*, align 8
	%__p.addr = alloca double*, align 8
	%__n.addr = alloca i64, align 8
	%..inline.addr = alloca double*, align 8

	call void @llvm.dbg.declare (metadata %struct._ZSt12_Vector_baseIdSaIdEE** %_T20584024_52954.addr, metadata !5226, metadata !3992), !dbg !5215
	store %struct._ZSt12_Vector_baseIdSaIdEE* %_T20584024_52954.arg, %struct._ZSt12_Vector_baseIdSaIdEE** %_T20584024_52954.addr, align 8, !tbaa !4000
	call void @llvm.dbg.declare (metadata %struct._ZSt12_Vector_baseIdSaIdEE** %_T20584024_52954.addr, metadata !5227, metadata !3992), !dbg !5215
	call void @llvm.dbg.declare (metadata double** %__p.addr, metadata !5228, metadata !3992), !dbg !5215
	store double* %__p.arg, double** %__p.addr, align 8, !tbaa !4000
	call void @llvm.dbg.declare (metadata double** %__p.addr, metadata !5229, metadata !3992), !dbg !5215
	call void @llvm.dbg.declare (metadata i64* %__n.addr, metadata !5230, metadata !3992), !dbg !5215
	store i64 %__n.arg, i64* %__n.addr, align 8, !tbaa !3999
	call void @llvm.dbg.declare (metadata i64* %__n.addr, metadata !5231, metadata !3992), !dbg !5215
	%0 = load double*, double** %__p.addr, align 8, !tbaa !4000, !dbg !5232
	%1 = bitcast double*  %0 to i8*, !dbg !5232
	%2 = icmp eq i8*  %1,  null, !dbg !5232
	br i1  %2, label %L.B0007, label %L.B1295, !dbg !5232
L.B1295:
	%3 = bitcast double*  %0 to i8*, !dbg !5233
	%4 = bitcast double** %..inline.addr to i8**, !dbg !5233
	store i8*  %3, i8**  %4, align 8, !tbaa !4000, !dbg !5233
	%5 = load double*, double** %..inline.addr, align 8, !tbaa !4000, !dbg !5233
	%6 = bitcast double*  %5 to i8*, !dbg !5233
	call void  @_ZdlPv (i8*  %6) nounwind, !dbg !5233
	br label %L.B0007
L.B0007:
	ret void, !dbg !5234
}
define linkonce_odr void @_ZNSt12_Vector_baseIdSaIdEE12_Vector_implD1Ev(%struct._ZNSt12_Vector_baseIdSaIdEE12_Vector_implE* %_T20584024_52955.arg) #0 inlinehint !dbg !5239 {
L.entry:
	%_T20584024_52955.addr = alloca %struct._ZNSt12_Vector_baseIdSaIdEE12_Vector_implE*, align 8

	call void @llvm.dbg.declare (metadata %struct._ZNSt12_Vector_baseIdSaIdEE12_Vector_implE** %_T20584024_52955.addr, metadata !5251, metadata !3992), !dbg !5240
	store %struct._ZNSt12_Vector_baseIdSaIdEE12_Vector_implE* %_T20584024_52955.arg, %struct._ZNSt12_Vector_baseIdSaIdEE12_Vector_implE** %_T20584024_52955.addr, align 8, !tbaa !4000
	call void @llvm.dbg.declare (metadata %struct._ZNSt12_Vector_baseIdSaIdEE12_Vector_implE** %_T20584024_52955.addr, metadata !5252, metadata !3992), !dbg !5240
	ret void, !dbg !5253
}
define linkonce_odr void @_ZNSt12_Vector_baseIdSaIdEE12_Vector_implD2Ev(%struct._ZNSt12_Vector_baseIdSaIdEE12_Vector_implE* %_T20584024_52956.arg) #0 inlinehint !dbg !5255 {
L.entry:
	%_T20584024_52956.addr = alloca %struct._ZNSt12_Vector_baseIdSaIdEE12_Vector_implE*, align 8

	store %struct._ZNSt12_Vector_baseIdSaIdEE12_Vector_implE* %_T20584024_52956.arg, %struct._ZNSt12_Vector_baseIdSaIdEE12_Vector_implE** %_T20584024_52956.addr, align 8, !tbaa !4000
	ret void, !dbg !5271
}

%struct._ZSt6vectorIdSaIdEE = type <{ %struct._ZSt12_Vector_baseIdSaIdEE}> 

define linkonce_odr void @_ZNSt6vectorIdSaIdEED1Ev(%struct._ZSt6vectorIdSaIdEE* %_T20584024_52957.arg) #0 inlinehint !dbg !5276 {
L.entry:
	%_T20584024_52957.addr = alloca %struct._ZSt6vectorIdSaIdEE*, align 8
	%..inline.addr = alloca %struct._ZSt12_Vector_baseIdSaIdEE*, align 8
	%..inline.addr.1 = alloca double*, align 8

	call void @llvm.dbg.declare (metadata %struct._ZSt6vectorIdSaIdEE** %_T20584024_52957.addr, metadata !5328, metadata !3992), !dbg !5277
	store %struct._ZSt6vectorIdSaIdEE* %_T20584024_52957.arg, %struct._ZSt6vectorIdSaIdEE** %_T20584024_52957.addr, align 8, !tbaa !4000
	call void @llvm.dbg.declare (metadata %struct._ZSt6vectorIdSaIdEE** %_T20584024_52957.addr, metadata !5329, metadata !3992), !dbg !5277
	%0 = load %struct._ZSt6vectorIdSaIdEE*, %struct._ZSt6vectorIdSaIdEE** %_T20584024_52957.addr, align 8, !tbaa !4000, !dbg !5330
	%1 = bitcast %struct._ZSt6vectorIdSaIdEE*  %0 to i8*, !dbg !5330
	%2 = bitcast %struct._ZSt12_Vector_baseIdSaIdEE** %..inline.addr to i8**, !dbg !5330
	store i8*  %1, i8**  %2, align 8, !tbaa !4000, !dbg !5330
	%3 = load %struct._ZSt12_Vector_baseIdSaIdEE*, %struct._ZSt12_Vector_baseIdSaIdEE** %..inline.addr, align 8, !tbaa !4000, !dbg !5331
	%4 = bitcast %struct._ZSt12_Vector_baseIdSaIdEE*  %3 to i8**, !dbg !5331
	%5 = load i8*, i8**  %4, align 8, !tbaa !4000, !dbg !5331
	%6 = icmp eq i8*  %5,  null, !dbg !5331
	br i1  %6, label %L..inline.71072, label %L.B1306, !dbg !5331
L.B1306:
	%7 = bitcast %struct._ZSt12_Vector_baseIdSaIdEE*  %3 to i8**, !dbg !5331
	%8 = load i8*, i8**  %7, align 8, !tbaa !4000, !dbg !5331
	%9 = bitcast double** %..inline.addr.1 to i8**, !dbg !5331
	store i8*  %8, i8**  %9, align 8, !tbaa !4000, !dbg !5331
	%10 = load double*, double** %..inline.addr.1, align 8, !tbaa !4000, !dbg !5331
	%11 = bitcast double*  %10 to i8*, !dbg !5331
	call void  @_ZdlPv (i8*  %11) nounwind, !dbg !5331
	br label %L..inline.71072
L..inline.71072:
	ret void, !dbg !5330
}
define linkonce_odr void @_ZNSt6vectorIdSaIdEED2Ev(%struct._ZSt6vectorIdSaIdEE* %_T20584024_52958.arg) #0 inlinehint !dbg !5333 {
L.entry:
	%_T20584024_52958.addr = alloca %struct._ZSt6vectorIdSaIdEE*, align 8
	%..inline.addr = alloca %struct._ZSt12_Vector_baseIdSaIdEE*, align 8
	%..inline.addr.1 = alloca double*, align 8

	store %struct._ZSt6vectorIdSaIdEE* %_T20584024_52958.arg, %struct._ZSt6vectorIdSaIdEE** %_T20584024_52958.addr, align 8, !tbaa !4000
	%0 = load %struct._ZSt6vectorIdSaIdEE*, %struct._ZSt6vectorIdSaIdEE** %_T20584024_52958.addr, align 8, !tbaa !4000, !dbg !5389
	%1 = bitcast %struct._ZSt6vectorIdSaIdEE*  %0 to i8*, !dbg !5389
	%2 = bitcast %struct._ZSt12_Vector_baseIdSaIdEE** %..inline.addr to i8**, !dbg !5389
	store i8*  %1, i8**  %2, align 8, !tbaa !4000, !dbg !5389
	%3 = load %struct._ZSt12_Vector_baseIdSaIdEE*, %struct._ZSt12_Vector_baseIdSaIdEE** %..inline.addr, align 8, !tbaa !4000, !dbg !5389
	%4 = bitcast %struct._ZSt12_Vector_baseIdSaIdEE*  %3 to i8**, !dbg !5389
	%5 = load i8*, i8**  %4, align 8, !tbaa !4000, !dbg !5389
	%6 = icmp eq i8*  %5,  null, !dbg !5389
	br i1  %6, label %L..inline.71176, label %L.B1309, !dbg !5389
L.B1309:
	%7 = bitcast %struct._ZSt12_Vector_baseIdSaIdEE*  %3 to i8**, !dbg !5389
	%8 = load i8*, i8**  %7, align 8, !tbaa !4000, !dbg !5389
	%9 = bitcast double** %..inline.addr.1 to i8**, !dbg !5389
	store i8*  %8, i8**  %9, align 8, !tbaa !4000, !dbg !5389
	%10 = load double*, double** %..inline.addr.1, align 8, !tbaa !4000, !dbg !5389
	%11 = bitcast double*  %10 to i8*, !dbg !5389
	call void  @_ZdlPv (i8*  %11) nounwind, !dbg !5389
	br label %L..inline.71176
L..inline.71176:
	ret void, !dbg !5389
}

%struct._ZSaIN5vmesh14MeshParametersEE = type <{ [1 x i8]}> 

define linkonce_odr void @_ZNSaIN5vmesh14MeshParametersEED1Ev(%struct._ZSaIN5vmesh14MeshParametersEE* %_T20584024_52959.arg) #0 inlinehint !dbg !5397 {
L.entry:
	%_T20584024_52959.addr = alloca %struct._ZSaIN5vmesh14MeshParametersEE*, align 8

	call void @llvm.dbg.declare (metadata %struct._ZSaIN5vmesh14MeshParametersEE** %_T20584024_52959.addr, metadata !5401, metadata !3992), !dbg !5398
	store %struct._ZSaIN5vmesh14MeshParametersEE* %_T20584024_52959.arg, %struct._ZSaIN5vmesh14MeshParametersEE** %_T20584024_52959.addr, align 8, !tbaa !4000
	call void @llvm.dbg.declare (metadata %struct._ZSaIN5vmesh14MeshParametersEE** %_T20584024_52959.addr, metadata !5402, metadata !3992), !dbg !5398
	ret void, !dbg !5403
}
define linkonce_odr void @_ZNSaIN5vmesh14MeshParametersEED2Ev(%struct._ZSaIN5vmesh14MeshParametersEE* %_T20584024_52960.arg) #0 inlinehint !dbg !5405 {
L.entry:
	%_T20584024_52960.addr = alloca %struct._ZSaIN5vmesh14MeshParametersEE*, align 8

	store %struct._ZSaIN5vmesh14MeshParametersEE* %_T20584024_52960.arg, %struct._ZSaIN5vmesh14MeshParametersEE** %_T20584024_52960.addr, align 8, !tbaa !4000
	ret void, !dbg !5413
}

%union.__C6 = type <{ [16 x i8]}> 
%struct._ZNSt7__cxx1112basic_stringIcSt11char_traitsIcESaIcEE12_Alloc_hiderE = type <{ i8*}> 
%struct._ZN5vmesh14MeshParametersE = type <{ %struct._ZNSt7__cxx1112basic_stringIcSt11char_traitsIcESaIcEEE, i32, [4 x i8], [6 x double], [3 x i32], [3 x i32], i8, i8, [6 x i8], [3 x double], [3 x double], [3 x double], [3 x double], [3 x double], %struct._ZSt6vectorIjSaIjEE, %struct._ZSt6vectorIdSaIdEE, %struct._ZSt6vectorIdSaIdEE, %struct._ZSt6vectorIjSaIjEE}> 
%struct._ZNSt7__cxx1112basic_stringIcSt11char_traitsIcESaIcEEE = type <{ %struct._ZNSt7__cxx1112basic_stringIcSt11char_traitsIcESaIcEE12_Alloc_hiderE, i64, %union.__C6}> 

define linkonce_odr void @_ZNSt16allocator_traitsISaIN5vmesh14MeshParametersEEE10deallocateERS2_PS1_m(%struct._ZSaIN5vmesh14MeshParametersEE* %__a.arg, %struct._ZN5vmesh14MeshParametersE* %__p.arg, i64 %__n.arg) #0 inlinehint !dbg !5421 {
L.entry:
	%__a.addr = alloca %struct._ZSaIN5vmesh14MeshParametersEE*, align 8
	%__p.addr = alloca %struct._ZN5vmesh14MeshParametersE*, align 8
	%__n.addr = alloca i64, align 8
	%..inline.addr = alloca %struct._ZN5vmesh14MeshParametersE*, align 8

	call void @llvm.dbg.declare (metadata %struct._ZSaIN5vmesh14MeshParametersEE** %__a.addr, metadata !5429, metadata !3992), !dbg !5422
	store %struct._ZSaIN5vmesh14MeshParametersEE* %__a.arg, %struct._ZSaIN5vmesh14MeshParametersEE** %__a.addr, align 8, !tbaa !4000
	call void @llvm.dbg.declare (metadata %struct._ZSaIN5vmesh14MeshParametersEE** %__a.addr, metadata !5430, metadata !3992), !dbg !5422
	call void @llvm.dbg.declare (metadata %struct._ZN5vmesh14MeshParametersE** %__p.addr, metadata !5431, metadata !3992), !dbg !5422
	store %struct._ZN5vmesh14MeshParametersE* %__p.arg, %struct._ZN5vmesh14MeshParametersE** %__p.addr, align 8, !tbaa !4000
	call void @llvm.dbg.declare (metadata %struct._ZN5vmesh14MeshParametersE** %__p.addr, metadata !5432, metadata !3992), !dbg !5422
	call void @llvm.dbg.declare (metadata i64* %__n.addr, metadata !5433, metadata !3992), !dbg !5422
	store i64 %__n.arg, i64* %__n.addr, align 8, !tbaa !3999
	call void @llvm.dbg.declare (metadata i64* %__n.addr, metadata !5434, metadata !3992), !dbg !5422
	%0 = load %struct._ZN5vmesh14MeshParametersE*, %struct._ZN5vmesh14MeshParametersE** %__p.addr, align 8, !tbaa !4000, !dbg !5435
	%1 = bitcast %struct._ZN5vmesh14MeshParametersE*  %0 to i8*, !dbg !5435
	%2 = bitcast %struct._ZN5vmesh14MeshParametersE** %..inline.addr to i8**, !dbg !5435
	store i8*  %1, i8**  %2, align 8, !tbaa !4000, !dbg !5435
	%3 = load %struct._ZN5vmesh14MeshParametersE*, %struct._ZN5vmesh14MeshParametersE** %..inline.addr, align 8, !tbaa !4000, !dbg !5436
	%4 = bitcast %struct._ZN5vmesh14MeshParametersE*  %3 to i8*, !dbg !5436
	call void  @_ZdlPv (i8*  %4) nounwind, !dbg !5436
	ret void, !dbg !5435
}

%struct._ZSt12_Vector_baseIN5vmesh14MeshParametersESaIS1_EE = type <{ %struct._ZNSt12_Vector_baseIN5vmesh14MeshParametersESaIS1_EE12_Vector_implE}> 
%struct._ZNSt12_Vector_baseIN5vmesh14MeshParametersESaIS1_EE12_Vector_implE = type <{ %struct._ZNSt12_Vector_baseIN5vmesh14MeshParametersESaIS1_EE17_Vector_impl_dataE}> 
%struct._ZNSt12_Vector_baseIN5vmesh14MeshParametersESaIS1_EE17_Vector_impl_dataE = type <{ %struct._ZN5vmesh14MeshParametersE*, %struct._ZN5vmesh14MeshParametersE*, %struct._ZN5vmesh14MeshParametersE*}> 

define linkonce_odr %struct._ZSaIN5vmesh14MeshParametersEE* @_ZNSt12_Vector_baseIN5vmesh14MeshParametersESaIS1_EE19_M_get_Tp_allocatorEv(%struct._ZSt12_Vector_baseIN5vmesh14MeshParametersESaIS1_EE* %_T20584024_52966.arg) #0 inlinehint !dbg !5442 {
L.entry:
	%_T20584024_52966.addr = alloca %struct._ZSt12_Vector_baseIN5vmesh14MeshParametersESaIS1_EE*, align 8

	call void @llvm.dbg.declare (metadata %struct._ZSt12_Vector_baseIN5vmesh14MeshParametersESaIS1_EE** %_T20584024_52966.addr, metadata !5446, metadata !3992), !dbg !5443
	store %struct._ZSt12_Vector_baseIN5vmesh14MeshParametersESaIS1_EE* %_T20584024_52966.arg, %struct._ZSt12_Vector_baseIN5vmesh14MeshParametersESaIS1_EE** %_T20584024_52966.addr, align 8, !tbaa !4000
	call void @llvm.dbg.declare (metadata %struct._ZSt12_Vector_baseIN5vmesh14MeshParametersESaIS1_EE** %_T20584024_52966.addr, metadata !5447, metadata !3992), !dbg !5443
	%0 = load %struct._ZSt12_Vector_baseIN5vmesh14MeshParametersESaIS1_EE*, %struct._ZSt12_Vector_baseIN5vmesh14MeshParametersESaIS1_EE** %_T20584024_52966.addr, align 8, !tbaa !4000, !dbg !5448
	%1 = bitcast %struct._ZSt12_Vector_baseIN5vmesh14MeshParametersESaIS1_EE*  %0 to %struct._ZSaIN5vmesh14MeshParametersEE*, !dbg !5448
	ret %struct._ZSaIN5vmesh14MeshParametersEE*  %1, !dbg !5448
}
define linkonce_odr void @_ZNSt12_Vector_baseIN5vmesh14MeshParametersESaIS1_EEC1Ev(%struct._ZSt12_Vector_baseIN5vmesh14MeshParametersESaIS1_EE* %_T20584024_52967.arg) #0 inlinehint !dbg !5452 {
L.entry:
	%_T20584024_52967.addr = alloca %struct._ZSt12_Vector_baseIN5vmesh14MeshParametersESaIS1_EE*, align 8
	%..inline.addr = alloca %struct._ZNSt12_Vector_baseIN5vmesh14MeshParametersESaIS1_EE17_Vector_impl_dataE*, align 8

	call void @llvm.dbg.declare (metadata %struct._ZSt12_Vector_baseIN5vmesh14MeshParametersESaIS1_EE** %_T20584024_52967.addr, metadata !5468, metadata !3992), !dbg !5453
	store %struct._ZSt12_Vector_baseIN5vmesh14MeshParametersESaIS1_EE* %_T20584024_52967.arg, %struct._ZSt12_Vector_baseIN5vmesh14MeshParametersESaIS1_EE** %_T20584024_52967.addr, align 8, !tbaa !4000
	call void @llvm.dbg.declare (metadata %struct._ZSt12_Vector_baseIN5vmesh14MeshParametersESaIS1_EE** %_T20584024_52967.addr, metadata !5469, metadata !3992), !dbg !5453
	%0 = load %struct._ZSt12_Vector_baseIN5vmesh14MeshParametersESaIS1_EE*, %struct._ZSt12_Vector_baseIN5vmesh14MeshParametersESaIS1_EE** %_T20584024_52967.addr, align 8, !tbaa !4000, !dbg !5470
	%1 = bitcast %struct._ZSt12_Vector_baseIN5vmesh14MeshParametersESaIS1_EE*  %0 to i8*, !dbg !5470
	%2 = bitcast %struct._ZNSt12_Vector_baseIN5vmesh14MeshParametersESaIS1_EE17_Vector_impl_dataE** %..inline.addr to i8**, !dbg !5470
	store i8*  %1, i8**  %2, align 8, !tbaa !4000, !dbg !5470
	%3 = load %struct._ZNSt12_Vector_baseIN5vmesh14MeshParametersESaIS1_EE17_Vector_impl_dataE*, %struct._ZNSt12_Vector_baseIN5vmesh14MeshParametersESaIS1_EE17_Vector_impl_dataE** %..inline.addr, align 8, !tbaa !4000, !dbg !5470
	%4 = bitcast %struct._ZNSt12_Vector_baseIN5vmesh14MeshParametersESaIS1_EE17_Vector_impl_dataE*  %3 to i8**, !dbg !5470
	store i8* null, i8**  %4, align 8, !tbaa !4000, !dbg !5470
	%5 = bitcast %struct._ZNSt12_Vector_baseIN5vmesh14MeshParametersESaIS1_EE17_Vector_impl_dataE*  %3 to i8*, !dbg !5470
	%6 = getelementptr i8, i8*  %5, i64 8, !dbg !5470
	%7 = bitcast i8*  %6 to i8**, !dbg !5470
	store i8* null, i8**  %7, align 8, !tbaa !4000, !dbg !5470
	%8 = getelementptr i8, i8*  %5, i64 16, !dbg !5470
	%9 = bitcast i8*  %8 to i8**, !dbg !5470
	store i8* null, i8**  %9, align 8, !tbaa !4000, !dbg !5470
	ret void, !dbg !5470
}
define linkonce_odr void @_ZNSt12_Vector_baseIN5vmesh14MeshParametersESaIS1_EEC2Ev(%struct._ZSt12_Vector_baseIN5vmesh14MeshParametersESaIS1_EE* %_T20584024_52968.arg) #0 inlinehint !dbg !5472 {
L.entry:
	%_T20584024_52968.addr = alloca %struct._ZSt12_Vector_baseIN5vmesh14MeshParametersESaIS1_EE*, align 8
	%..inline.addr = alloca %struct._ZNSt12_Vector_baseIN5vmesh14MeshParametersESaIS1_EE17_Vector_impl_dataE*, align 8

	store %struct._ZSt12_Vector_baseIN5vmesh14MeshParametersESaIS1_EE* %_T20584024_52968.arg, %struct._ZSt12_Vector_baseIN5vmesh14MeshParametersESaIS1_EE** %_T20584024_52968.addr, align 8, !tbaa !4000
	%0 = load %struct._ZSt12_Vector_baseIN5vmesh14MeshParametersESaIS1_EE*, %struct._ZSt12_Vector_baseIN5vmesh14MeshParametersESaIS1_EE** %_T20584024_52968.addr, align 8, !tbaa !4000, !dbg !5492
	%1 = bitcast %struct._ZSt12_Vector_baseIN5vmesh14MeshParametersESaIS1_EE*  %0 to i8*, !dbg !5492
	%2 = bitcast %struct._ZNSt12_Vector_baseIN5vmesh14MeshParametersESaIS1_EE17_Vector_impl_dataE** %..inline.addr to i8**, !dbg !5492
	store i8*  %1, i8**  %2, align 8, !tbaa !4000, !dbg !5492
	%3 = load %struct._ZNSt12_Vector_baseIN5vmesh14MeshParametersESaIS1_EE17_Vector_impl_dataE*, %struct._ZNSt12_Vector_baseIN5vmesh14MeshParametersESaIS1_EE17_Vector_impl_dataE** %..inline.addr, align 8, !tbaa !4000, !dbg !5492
	%4 = bitcast %struct._ZNSt12_Vector_baseIN5vmesh14MeshParametersESaIS1_EE17_Vector_impl_dataE*  %3 to i8**, !dbg !5492
	store i8* null, i8**  %4, align 8, !tbaa !4000, !dbg !5492
	%5 = bitcast %struct._ZNSt12_Vector_baseIN5vmesh14MeshParametersESaIS1_EE17_Vector_impl_dataE*  %3 to i8*, !dbg !5492
	%6 = getelementptr i8, i8*  %5, i64 8, !dbg !5492
	%7 = bitcast i8*  %6 to i8**, !dbg !5492
	store i8* null, i8**  %7, align 8, !tbaa !4000, !dbg !5492
	%8 = getelementptr i8, i8*  %5, i64 16, !dbg !5492
	%9 = bitcast i8*  %8 to i8**, !dbg !5492
	store i8* null, i8**  %9, align 8, !tbaa !4000, !dbg !5492
	ret void, !dbg !5492
}
define linkonce_odr void @_ZNSt12_Vector_baseIN5vmesh14MeshParametersESaIS1_EED1Ev(%struct._ZSt12_Vector_baseIN5vmesh14MeshParametersESaIS1_EE* %_T20584024_52969.arg) #0 inlinehint !dbg !5494 {
L.entry:
	%_T20584024_52969.addr = alloca %struct._ZSt12_Vector_baseIN5vmesh14MeshParametersESaIS1_EE*, align 8
	%..inline.addr = alloca %struct._ZN5vmesh14MeshParametersE*, align 8

	call void @llvm.dbg.declare (metadata %struct._ZSt12_Vector_baseIN5vmesh14MeshParametersESaIS1_EE** %_T20584024_52969.addr, metadata !5522, metadata !3992), !dbg !5495
	store %struct._ZSt12_Vector_baseIN5vmesh14MeshParametersESaIS1_EE* %_T20584024_52969.arg, %struct._ZSt12_Vector_baseIN5vmesh14MeshParametersESaIS1_EE** %_T20584024_52969.addr, align 8, !tbaa !4000
	call void @llvm.dbg.declare (metadata %struct._ZSt12_Vector_baseIN5vmesh14MeshParametersESaIS1_EE** %_T20584024_52969.addr, metadata !5523, metadata !3992), !dbg !5495
	%0 = load %struct._ZSt12_Vector_baseIN5vmesh14MeshParametersESaIS1_EE*, %struct._ZSt12_Vector_baseIN5vmesh14MeshParametersESaIS1_EE** %_T20584024_52969.addr, align 8, !tbaa !4000, !dbg !5524
	%1 = bitcast %struct._ZSt12_Vector_baseIN5vmesh14MeshParametersESaIS1_EE*  %0 to i8**, !dbg !5524
	%2 = load i8*, i8**  %1, align 8, !tbaa !4000, !dbg !5524
	%3 = icmp eq i8*  %2,  null, !dbg !5524
	br i1  %3, label %L..inline.71320, label %L.B1322, !dbg !5524
L.B1322:
	%4 = bitcast %struct._ZSt12_Vector_baseIN5vmesh14MeshParametersESaIS1_EE*  %0 to i8**, !dbg !5525
	%5 = load i8*, i8**  %4, align 8, !tbaa !4000, !dbg !5525
	%6 = bitcast %struct._ZN5vmesh14MeshParametersE** %..inline.addr to i8**, !dbg !5525
	store i8*  %5, i8**  %6, align 8, !tbaa !4000, !dbg !5525
	%7 = load %struct._ZN5vmesh14MeshParametersE*, %struct._ZN5vmesh14MeshParametersE** %..inline.addr, align 8, !tbaa !4000, !dbg !5525
	%8 = bitcast %struct._ZN5vmesh14MeshParametersE*  %7 to i8*, !dbg !5525
	call void  @_ZdlPv (i8*  %8) nounwind, !dbg !5525
	br label %L..inline.71320
L..inline.71320:
	ret void, !dbg !5526
}
define linkonce_odr void @_ZNSt12_Vector_baseIN5vmesh14MeshParametersESaIS1_EED2Ev(%struct._ZSt12_Vector_baseIN5vmesh14MeshParametersESaIS1_EE* %_T20584024_52970.arg) #0 inlinehint !dbg !5528 {
L.entry:
	%_T20584024_52970.addr = alloca %struct._ZSt12_Vector_baseIN5vmesh14MeshParametersESaIS1_EE*, align 8
	%..inline.addr = alloca %struct._ZSt12_Vector_baseIN5vmesh14MeshParametersESaIS1_EE*, align 8
	%..inline.addr.1 = alloca %struct._ZN5vmesh14MeshParametersE*, align 8

	store %struct._ZSt12_Vector_baseIN5vmesh14MeshParametersESaIS1_EE* %_T20584024_52970.arg, %struct._ZSt12_Vector_baseIN5vmesh14MeshParametersESaIS1_EE** %_T20584024_52970.addr, align 8, !tbaa !4000
	%0 = load %struct._ZSt12_Vector_baseIN5vmesh14MeshParametersESaIS1_EE*, %struct._ZSt12_Vector_baseIN5vmesh14MeshParametersESaIS1_EE** %_T20584024_52970.addr, align 8, !tbaa !4000, !dbg !5560
	%1 = bitcast %struct._ZSt12_Vector_baseIN5vmesh14MeshParametersESaIS1_EE*  %0 to i8*, !dbg !5560
	%2 = bitcast %struct._ZSt12_Vector_baseIN5vmesh14MeshParametersESaIS1_EE** %..inline.addr to i8**, !dbg !5560
	store i8*  %1, i8**  %2, align 8, !tbaa !4000, !dbg !5560
	%3 = load %struct._ZSt12_Vector_baseIN5vmesh14MeshParametersESaIS1_EE*, %struct._ZSt12_Vector_baseIN5vmesh14MeshParametersESaIS1_EE** %..inline.addr, align 8, !tbaa !4000, !dbg !5560
	%4 = bitcast %struct._ZSt12_Vector_baseIN5vmesh14MeshParametersESaIS1_EE*  %3 to i8**, !dbg !5560
	%5 = load i8*, i8**  %4, align 8, !tbaa !4000, !dbg !5560
	%6 = icmp eq i8*  %5,  null, !dbg !5560
	br i1  %6, label %L..inline.71382, label %L.B1325, !dbg !5560
L.B1325:
	%7 = bitcast %struct._ZSt12_Vector_baseIN5vmesh14MeshParametersESaIS1_EE*  %3 to i8**, !dbg !5560
	%8 = load i8*, i8**  %7, align 8, !tbaa !4000, !dbg !5560
	%9 = bitcast %struct._ZN5vmesh14MeshParametersE** %..inline.addr.1 to i8**, !dbg !5560
	store i8*  %8, i8**  %9, align 8, !tbaa !4000, !dbg !5560
	%10 = load %struct._ZN5vmesh14MeshParametersE*, %struct._ZN5vmesh14MeshParametersE** %..inline.addr.1, align 8, !tbaa !4000, !dbg !5560
	%11 = bitcast %struct._ZN5vmesh14MeshParametersE*  %10 to i8*, !dbg !5560
	call void  @_ZdlPv (i8*  %11) nounwind, !dbg !5560
	br label %L..inline.71382
L..inline.71382:
	ret void, !dbg !5561
}
define linkonce_odr void @_ZNSt12_Vector_baseIN5vmesh14MeshParametersESaIS1_EE13_M_deallocateEPS1_m(%struct._ZSt12_Vector_baseIN5vmesh14MeshParametersESaIS1_EE* %_T20584024_52973.arg, %struct._ZN5vmesh14MeshParametersE* %__p.arg, i64 %__n.arg) #0 inlinehint !dbg !5565 {
L.entry:
	%_T20584024_52973.addr = alloca %struct._ZSt12_Vector_baseIN5vmesh14MeshParametersESaIS1_EE*, align 8
	%__p.addr = alloca %struct._ZN5vmesh14MeshParametersE*, align 8
	%__n.addr = alloca i64, align 8
	%..inline.addr = alloca %struct._ZN5vmesh14MeshParametersE*, align 8

	call void @llvm.dbg.declare (metadata %struct._ZSt12_Vector_baseIN5vmesh14MeshParametersESaIS1_EE** %_T20584024_52973.addr, metadata !5577, metadata !3992), !dbg !5566
	store %struct._ZSt12_Vector_baseIN5vmesh14MeshParametersESaIS1_EE* %_T20584024_52973.arg, %struct._ZSt12_Vector_baseIN5vmesh14MeshParametersESaIS1_EE** %_T20584024_52973.addr, align 8, !tbaa !4000
	call void @llvm.dbg.declare (metadata %struct._ZSt12_Vector_baseIN5vmesh14MeshParametersESaIS1_EE** %_T20584024_52973.addr, metadata !5578, metadata !3992), !dbg !5566
	call void @llvm.dbg.declare (metadata %struct._ZN5vmesh14MeshParametersE** %__p.addr, metadata !5579, metadata !3992), !dbg !5566
	store %struct._ZN5vmesh14MeshParametersE* %__p.arg, %struct._ZN5vmesh14MeshParametersE** %__p.addr, align 8, !tbaa !4000
	call void @llvm.dbg.declare (metadata %struct._ZN5vmesh14MeshParametersE** %__p.addr, metadata !5580, metadata !3992), !dbg !5566
	call void @llvm.dbg.declare (metadata i64* %__n.addr, metadata !5581, metadata !3992), !dbg !5566
	store i64 %__n.arg, i64* %__n.addr, align 8, !tbaa !3999
	call void @llvm.dbg.declare (metadata i64* %__n.addr, metadata !5582, metadata !3992), !dbg !5566
	%0 = load %struct._ZN5vmesh14MeshParametersE*, %struct._ZN5vmesh14MeshParametersE** %__p.addr, align 8, !tbaa !4000, !dbg !5583
	%1 = bitcast %struct._ZN5vmesh14MeshParametersE*  %0 to i8*, !dbg !5583
	%2 = icmp eq i8*  %1,  null, !dbg !5583
	br i1  %2, label %L.B0008, label %L.B1328, !dbg !5583
L.B1328:
	%3 = bitcast %struct._ZN5vmesh14MeshParametersE*  %0 to i8*, !dbg !5584
	%4 = bitcast %struct._ZN5vmesh14MeshParametersE** %..inline.addr to i8**, !dbg !5584
	store i8*  %3, i8**  %4, align 8, !tbaa !4000, !dbg !5584
	%5 = load %struct._ZN5vmesh14MeshParametersE*, %struct._ZN5vmesh14MeshParametersE** %..inline.addr, align 8, !tbaa !4000, !dbg !5584
	%6 = bitcast %struct._ZN5vmesh14MeshParametersE*  %5 to i8*, !dbg !5584
	call void  @_ZdlPv (i8*  %6) nounwind, !dbg !5584
	br label %L.B0008
L.B0008:
	ret void, !dbg !5585
}
define linkonce_odr void @_ZNSt12_Vector_baseIN5vmesh14MeshParametersESaIS1_EE17_Vector_impl_dataC1Ev(%struct._ZNSt12_Vector_baseIN5vmesh14MeshParametersESaIS1_EE17_Vector_impl_dataE* %_T20584024_52974.arg) #0 inlinehint !dbg !5590 {
L.entry:
	%_T20584024_52974.addr = alloca %struct._ZNSt12_Vector_baseIN5vmesh14MeshParametersESaIS1_EE17_Vector_impl_dataE*, align 8

	call void @llvm.dbg.declare (metadata %struct._ZNSt12_Vector_baseIN5vmesh14MeshParametersESaIS1_EE17_Vector_impl_dataE** %_T20584024_52974.addr, metadata !5594, metadata !3992), !dbg !5591
	store %struct._ZNSt12_Vector_baseIN5vmesh14MeshParametersESaIS1_EE17_Vector_impl_dataE* %_T20584024_52974.arg, %struct._ZNSt12_Vector_baseIN5vmesh14MeshParametersESaIS1_EE17_Vector_impl_dataE** %_T20584024_52974.addr, align 8, !tbaa !4000
	call void @llvm.dbg.declare (metadata %struct._ZNSt12_Vector_baseIN5vmesh14MeshParametersESaIS1_EE17_Vector_impl_dataE** %_T20584024_52974.addr, metadata !5595, metadata !3992), !dbg !5591
	%0 = load %struct._ZNSt12_Vector_baseIN5vmesh14MeshParametersESaIS1_EE17_Vector_impl_dataE*, %struct._ZNSt12_Vector_baseIN5vmesh14MeshParametersESaIS1_EE17_Vector_impl_dataE** %_T20584024_52974.addr, align 8, !tbaa !4000, !dbg !5596
	%1 = bitcast %struct._ZNSt12_Vector_baseIN5vmesh14MeshParametersESaIS1_EE17_Vector_impl_dataE*  %0 to i8**, !dbg !5596
	store i8* null, i8**  %1, align 8, !tbaa !4000, !dbg !5596
	%2 = bitcast %struct._ZNSt12_Vector_baseIN5vmesh14MeshParametersESaIS1_EE17_Vector_impl_dataE*  %0 to i8*, !dbg !5596
	%3 = getelementptr i8, i8*  %2, i64 8, !dbg !5596
	%4 = bitcast i8*  %3 to i8**, !dbg !5596
	store i8* null, i8**  %4, align 8, !tbaa !4000, !dbg !5596
	%5 = getelementptr i8, i8*  %2, i64 16, !dbg !5596
	%6 = bitcast i8*  %5 to i8**, !dbg !5596
	store i8* null, i8**  %6, align 8, !tbaa !4000, !dbg !5596
	ret void, !dbg !5596
}
define linkonce_odr void @_ZNSt12_Vector_baseIN5vmesh14MeshParametersESaIS1_EE17_Vector_impl_dataC2Ev(%struct._ZNSt12_Vector_baseIN5vmesh14MeshParametersESaIS1_EE17_Vector_impl_dataE* %_T20584024_52975.arg) #0 inlinehint !dbg !5598 {
L.entry:
	%_T20584024_52975.addr = alloca %struct._ZNSt12_Vector_baseIN5vmesh14MeshParametersESaIS1_EE17_Vector_impl_dataE*, align 8
	%..inline.addr = alloca %struct._ZNSt12_Vector_baseIN5vmesh14MeshParametersESaIS1_EE17_Vector_impl_dataE*, align 8

	store %struct._ZNSt12_Vector_baseIN5vmesh14MeshParametersESaIS1_EE17_Vector_impl_dataE* %_T20584024_52975.arg, %struct._ZNSt12_Vector_baseIN5vmesh14MeshParametersESaIS1_EE17_Vector_impl_dataE** %_T20584024_52975.addr, align 8, !tbaa !4000
	%0 = load %struct._ZNSt12_Vector_baseIN5vmesh14MeshParametersESaIS1_EE17_Vector_impl_dataE*, %struct._ZNSt12_Vector_baseIN5vmesh14MeshParametersESaIS1_EE17_Vector_impl_dataE** %_T20584024_52975.addr, align 8, !tbaa !4000, !dbg !5606
	%1 = bitcast %struct._ZNSt12_Vector_baseIN5vmesh14MeshParametersESaIS1_EE17_Vector_impl_dataE*  %0 to i8*, !dbg !5606
	%2 = bitcast %struct._ZNSt12_Vector_baseIN5vmesh14MeshParametersESaIS1_EE17_Vector_impl_dataE** %..inline.addr to i8**, !dbg !5606
	store i8*  %1, i8**  %2, align 8, !tbaa !4000, !dbg !5606
	%3 = load %struct._ZNSt12_Vector_baseIN5vmesh14MeshParametersESaIS1_EE17_Vector_impl_dataE*, %struct._ZNSt12_Vector_baseIN5vmesh14MeshParametersESaIS1_EE17_Vector_impl_dataE** %..inline.addr, align 8, !tbaa !4000, !dbg !5606
	%4 = bitcast %struct._ZNSt12_Vector_baseIN5vmesh14MeshParametersESaIS1_EE17_Vector_impl_dataE*  %3 to i8**, !dbg !5606
	store i8* null, i8**  %4, align 8, !tbaa !4000, !dbg !5606
	%5 = bitcast %struct._ZNSt12_Vector_baseIN5vmesh14MeshParametersESaIS1_EE17_Vector_impl_dataE*  %3 to i8*, !dbg !5606
	%6 = getelementptr i8, i8*  %5, i64 8, !dbg !5606
	%7 = bitcast i8*  %6 to i8**, !dbg !5606
	store i8* null, i8**  %7, align 8, !tbaa !4000, !dbg !5606
	%8 = getelementptr i8, i8*  %5, i64 16, !dbg !5606
	%9 = bitcast i8*  %8 to i8**, !dbg !5606
	store i8* null, i8**  %9, align 8, !tbaa !4000, !dbg !5606
	ret void, !dbg !5606
}
define linkonce_odr void @_ZNSt12_Vector_baseIN5vmesh14MeshParametersESaIS1_EE12_Vector_implC1Ev(%struct._ZNSt12_Vector_baseIN5vmesh14MeshParametersESaIS1_EE12_Vector_implE* %_T20584024_52976.arg) #0 inlinehint !dbg !5611 {
L.entry:
	%_T20584024_52976.addr = alloca %struct._ZNSt12_Vector_baseIN5vmesh14MeshParametersESaIS1_EE12_Vector_implE*, align 8
	%..inline.addr = alloca %struct._ZNSt12_Vector_baseIN5vmesh14MeshParametersESaIS1_EE17_Vector_impl_dataE*, align 8

	call void @llvm.dbg.declare (metadata %struct._ZNSt12_Vector_baseIN5vmesh14MeshParametersESaIS1_EE12_Vector_implE** %_T20584024_52976.addr, metadata !5623, metadata !3992), !dbg !5612
	store %struct._ZNSt12_Vector_baseIN5vmesh14MeshParametersESaIS1_EE12_Vector_implE* %_T20584024_52976.arg, %struct._ZNSt12_Vector_baseIN5vmesh14MeshParametersESaIS1_EE12_Vector_implE** %_T20584024_52976.addr, align 8, !tbaa !4000
	call void @llvm.dbg.declare (metadata %struct._ZNSt12_Vector_baseIN5vmesh14MeshParametersESaIS1_EE12_Vector_implE** %_T20584024_52976.addr, metadata !5624, metadata !3992), !dbg !5612
	%0 = load %struct._ZNSt12_Vector_baseIN5vmesh14MeshParametersESaIS1_EE12_Vector_implE*, %struct._ZNSt12_Vector_baseIN5vmesh14MeshParametersESaIS1_EE12_Vector_implE** %_T20584024_52976.addr, align 8, !tbaa !4000, !dbg !5625
	%1 = bitcast %struct._ZNSt12_Vector_baseIN5vmesh14MeshParametersESaIS1_EE12_Vector_implE*  %0 to i8*, !dbg !5625
	%2 = bitcast %struct._ZNSt12_Vector_baseIN5vmesh14MeshParametersESaIS1_EE17_Vector_impl_dataE** %..inline.addr to i8**, !dbg !5625
	store i8*  %1, i8**  %2, align 8, !tbaa !4000, !dbg !5625
	%3 = load %struct._ZNSt12_Vector_baseIN5vmesh14MeshParametersESaIS1_EE17_Vector_impl_dataE*, %struct._ZNSt12_Vector_baseIN5vmesh14MeshParametersESaIS1_EE17_Vector_impl_dataE** %..inline.addr, align 8, !tbaa !4000, !dbg !5625
	%4 = bitcast %struct._ZNSt12_Vector_baseIN5vmesh14MeshParametersESaIS1_EE17_Vector_impl_dataE*  %3 to i8**, !dbg !5625
	store i8* null, i8**  %4, align 8, !tbaa !4000, !dbg !5625
	%5 = bitcast %struct._ZNSt12_Vector_baseIN5vmesh14MeshParametersESaIS1_EE17_Vector_impl_dataE*  %3 to i8*, !dbg !5626
	%6 = getelementptr i8, i8*  %5, i64 8, !dbg !5626
	%7 = bitcast i8*  %6 to i8**, !dbg !5626
	store i8* null, i8**  %7, align 8, !tbaa !4000, !dbg !5626
	%8 = getelementptr i8, i8*  %5, i64 16, !dbg !5626
	%9 = bitcast i8*  %8 to i8**, !dbg !5626
	store i8* null, i8**  %9, align 8, !tbaa !4000, !dbg !5626
	ret void, !dbg !5625
}
define linkonce_odr void @_ZNSt12_Vector_baseIN5vmesh14MeshParametersESaIS1_EE12_Vector_implC2Ev(%struct._ZNSt12_Vector_baseIN5vmesh14MeshParametersESaIS1_EE12_Vector_implE* %_T20584024_52977.arg) #0 inlinehint !dbg !5628 {
L.entry:
	%_T20584024_52977.addr = alloca %struct._ZNSt12_Vector_baseIN5vmesh14MeshParametersESaIS1_EE12_Vector_implE*, align 8
	%..inline.addr = alloca %struct._ZNSt12_Vector_baseIN5vmesh14MeshParametersESaIS1_EE17_Vector_impl_dataE*, align 8

	store %struct._ZNSt12_Vector_baseIN5vmesh14MeshParametersESaIS1_EE12_Vector_implE* %_T20584024_52977.arg, %struct._ZNSt12_Vector_baseIN5vmesh14MeshParametersESaIS1_EE12_Vector_implE** %_T20584024_52977.addr, align 8, !tbaa !4000
	%0 = load %struct._ZNSt12_Vector_baseIN5vmesh14MeshParametersESaIS1_EE12_Vector_implE*, %struct._ZNSt12_Vector_baseIN5vmesh14MeshParametersESaIS1_EE12_Vector_implE** %_T20584024_52977.addr, align 8, !tbaa !4000, !dbg !5644
	%1 = bitcast %struct._ZNSt12_Vector_baseIN5vmesh14MeshParametersESaIS1_EE12_Vector_implE*  %0 to i8*, !dbg !5644
	%2 = bitcast %struct._ZNSt12_Vector_baseIN5vmesh14MeshParametersESaIS1_EE17_Vector_impl_dataE** %..inline.addr to i8**, !dbg !5644
	store i8*  %1, i8**  %2, align 8, !tbaa !4000, !dbg !5644
	%3 = load %struct._ZNSt12_Vector_baseIN5vmesh14MeshParametersESaIS1_EE17_Vector_impl_dataE*, %struct._ZNSt12_Vector_baseIN5vmesh14MeshParametersESaIS1_EE17_Vector_impl_dataE** %..inline.addr, align 8, !tbaa !4000, !dbg !5644
	%4 = bitcast %struct._ZNSt12_Vector_baseIN5vmesh14MeshParametersESaIS1_EE17_Vector_impl_dataE*  %3 to i8**, !dbg !5644
	store i8* null, i8**  %4, align 8, !tbaa !4000, !dbg !5644
	%5 = bitcast %struct._ZNSt12_Vector_baseIN5vmesh14MeshParametersESaIS1_EE17_Vector_impl_dataE*  %3 to i8*, !dbg !5644
	%6 = getelementptr i8, i8*  %5, i64 8, !dbg !5644
	%7 = bitcast i8*  %6 to i8**, !dbg !5644
	store i8* null, i8**  %7, align 8, !tbaa !4000, !dbg !5644
	%8 = getelementptr i8, i8*  %5, i64 16, !dbg !5644
	%9 = bitcast i8*  %8 to i8**, !dbg !5644
	store i8* null, i8**  %9, align 8, !tbaa !4000, !dbg !5644
	ret void, !dbg !5644
}
define linkonce_odr void @_ZNSt12_Vector_baseIN5vmesh14MeshParametersESaIS1_EE12_Vector_implD1Ev(%struct._ZNSt12_Vector_baseIN5vmesh14MeshParametersESaIS1_EE12_Vector_implE* %_T20584024_52978.arg) #0 inlinehint !dbg !5646 {
L.entry:
	%_T20584024_52978.addr = alloca %struct._ZNSt12_Vector_baseIN5vmesh14MeshParametersESaIS1_EE12_Vector_implE*, align 8

	call void @llvm.dbg.declare (metadata %struct._ZNSt12_Vector_baseIN5vmesh14MeshParametersESaIS1_EE12_Vector_implE** %_T20584024_52978.addr, metadata !5658, metadata !3992), !dbg !5647
	store %struct._ZNSt12_Vector_baseIN5vmesh14MeshParametersESaIS1_EE12_Vector_implE* %_T20584024_52978.arg, %struct._ZNSt12_Vector_baseIN5vmesh14MeshParametersESaIS1_EE12_Vector_implE** %_T20584024_52978.addr, align 8, !tbaa !4000
	call void @llvm.dbg.declare (metadata %struct._ZNSt12_Vector_baseIN5vmesh14MeshParametersESaIS1_EE12_Vector_implE** %_T20584024_52978.addr, metadata !5659, metadata !3992), !dbg !5647
	ret void, !dbg !5660
}
define linkonce_odr void @_ZNSt12_Vector_baseIN5vmesh14MeshParametersESaIS1_EE12_Vector_implD2Ev(%struct._ZNSt12_Vector_baseIN5vmesh14MeshParametersESaIS1_EE12_Vector_implE* %_T20584024_52979.arg) #0 inlinehint !dbg !5662 {
L.entry:
	%_T20584024_52979.addr = alloca %struct._ZNSt12_Vector_baseIN5vmesh14MeshParametersESaIS1_EE12_Vector_implE*, align 8

	store %struct._ZNSt12_Vector_baseIN5vmesh14MeshParametersESaIS1_EE12_Vector_implE* %_T20584024_52979.arg, %struct._ZNSt12_Vector_baseIN5vmesh14MeshParametersESaIS1_EE12_Vector_implE** %_T20584024_52979.addr, align 8, !tbaa !4000
	ret void, !dbg !5678
}

%struct._ZSt6vectorIN5vmesh14MeshParametersESaIS1_EE = type <{ %struct._ZSt12_Vector_baseIN5vmesh14MeshParametersESaIS1_EE}> 

define linkonce_odr void @_ZNSt6vectorIN5vmesh14MeshParametersESaIS1_EEC1Ev(%struct._ZSt6vectorIN5vmesh14MeshParametersESaIS1_EE* %_T20584024_52980.arg) #0 inlinehint !dbg !5683 {
L.entry:
	%_T20584024_52980.addr = alloca %struct._ZSt6vectorIN5vmesh14MeshParametersESaIS1_EE*, align 8
	%..inline.addr = alloca %struct._ZNSt12_Vector_baseIN5vmesh14MeshParametersESaIS1_EE17_Vector_impl_dataE*, align 8

	call void @llvm.dbg.declare (metadata %struct._ZSt6vectorIN5vmesh14MeshParametersESaIS1_EE** %_T20584024_52980.addr, metadata !5707, metadata !3992), !dbg !5684
	store %struct._ZSt6vectorIN5vmesh14MeshParametersESaIS1_EE* %_T20584024_52980.arg, %struct._ZSt6vectorIN5vmesh14MeshParametersESaIS1_EE** %_T20584024_52980.addr, align 8, !tbaa !4000
	call void @llvm.dbg.declare (metadata %struct._ZSt6vectorIN5vmesh14MeshParametersESaIS1_EE** %_T20584024_52980.addr, metadata !5708, metadata !3992), !dbg !5684
	%0 = load %struct._ZSt6vectorIN5vmesh14MeshParametersESaIS1_EE*, %struct._ZSt6vectorIN5vmesh14MeshParametersESaIS1_EE** %_T20584024_52980.addr, align 8, !tbaa !4000, !dbg !5709
	%1 = bitcast %struct._ZSt6vectorIN5vmesh14MeshParametersESaIS1_EE*  %0 to i8*, !dbg !5709
	%2 = bitcast %struct._ZNSt12_Vector_baseIN5vmesh14MeshParametersESaIS1_EE17_Vector_impl_dataE** %..inline.addr to i8**, !dbg !5709
	store i8*  %1, i8**  %2, align 8, !tbaa !4000, !dbg !5709
	%3 = load %struct._ZNSt12_Vector_baseIN5vmesh14MeshParametersESaIS1_EE17_Vector_impl_dataE*, %struct._ZNSt12_Vector_baseIN5vmesh14MeshParametersESaIS1_EE17_Vector_impl_dataE** %..inline.addr, align 8, !tbaa !4000, !dbg !5709
	%4 = bitcast %struct._ZNSt12_Vector_baseIN5vmesh14MeshParametersESaIS1_EE17_Vector_impl_dataE*  %3 to i8**, !dbg !5709
	store i8* null, i8**  %4, align 8, !tbaa !4000, !dbg !5709
	%5 = bitcast %struct._ZNSt12_Vector_baseIN5vmesh14MeshParametersESaIS1_EE17_Vector_impl_dataE*  %3 to i8*, !dbg !5709
	%6 = getelementptr i8, i8*  %5, i64 8, !dbg !5709
	%7 = bitcast i8*  %6 to i8**, !dbg !5709
	store i8* null, i8**  %7, align 8, !tbaa !4000, !dbg !5709
	%8 = getelementptr i8, i8*  %5, i64 16, !dbg !5709
	%9 = bitcast i8*  %8 to i8**, !dbg !5709
	store i8* null, i8**  %9, align 8, !tbaa !4000, !dbg !5709
	ret void, !dbg !5709
}
define linkonce_odr void @_ZNSt6vectorIN5vmesh14MeshParametersESaIS1_EEC2Ev(%struct._ZSt6vectorIN5vmesh14MeshParametersESaIS1_EE* %_T20584024_52981.arg) #0 inlinehint !dbg !5711 {
L.entry:
	%_T20584024_52981.addr = alloca %struct._ZSt6vectorIN5vmesh14MeshParametersESaIS1_EE*, align 8
	%..inline.addr = alloca %struct._ZNSt12_Vector_baseIN5vmesh14MeshParametersESaIS1_EE17_Vector_impl_dataE*, align 8

	store %struct._ZSt6vectorIN5vmesh14MeshParametersESaIS1_EE* %_T20584024_52981.arg, %struct._ZSt6vectorIN5vmesh14MeshParametersESaIS1_EE** %_T20584024_52981.addr, align 8, !tbaa !4000
	%0 = load %struct._ZSt6vectorIN5vmesh14MeshParametersESaIS1_EE*, %struct._ZSt6vectorIN5vmesh14MeshParametersESaIS1_EE** %_T20584024_52981.addr, align 8, !tbaa !4000, !dbg !5739
	%1 = bitcast %struct._ZSt6vectorIN5vmesh14MeshParametersESaIS1_EE*  %0 to i8*, !dbg !5739
	%2 = bitcast %struct._ZNSt12_Vector_baseIN5vmesh14MeshParametersESaIS1_EE17_Vector_impl_dataE** %..inline.addr to i8**, !dbg !5739
	store i8*  %1, i8**  %2, align 8, !tbaa !4000, !dbg !5739
	%3 = load %struct._ZNSt12_Vector_baseIN5vmesh14MeshParametersESaIS1_EE17_Vector_impl_dataE*, %struct._ZNSt12_Vector_baseIN5vmesh14MeshParametersESaIS1_EE17_Vector_impl_dataE** %..inline.addr, align 8, !tbaa !4000, !dbg !5739
	%4 = bitcast %struct._ZNSt12_Vector_baseIN5vmesh14MeshParametersESaIS1_EE17_Vector_impl_dataE*  %3 to i8**, !dbg !5739
	store i8* null, i8**  %4, align 8, !tbaa !4000, !dbg !5739
	%5 = bitcast %struct._ZNSt12_Vector_baseIN5vmesh14MeshParametersESaIS1_EE17_Vector_impl_dataE*  %3 to i8*, !dbg !5739
	%6 = getelementptr i8, i8*  %5, i64 8, !dbg !5739
	%7 = bitcast i8*  %6 to i8**, !dbg !5739
	store i8* null, i8**  %7, align 8, !tbaa !4000, !dbg !5739
	%8 = getelementptr i8, i8*  %5, i64 16, !dbg !5739
	%9 = bitcast i8*  %8 to i8**, !dbg !5739
	store i8* null, i8**  %9, align 8, !tbaa !4000, !dbg !5739
	ret void, !dbg !5739
}
define linkonce_odr void @_ZNSt6vectorIN5vmesh14MeshParametersESaIS1_EED1Ev(%struct._ZSt6vectorIN5vmesh14MeshParametersESaIS1_EE* %_T20584024_52982.arg) #0 inlinehint !dbg !5741 {
L.entry:
	%_T20584024_52982.addr = alloca %struct._ZSt6vectorIN5vmesh14MeshParametersESaIS1_EE*, align 8
	%..inline.addr = alloca %struct._ZN5vmesh14MeshParametersE*, align 8
	%..inline.addr.1 = alloca %struct._ZN5vmesh14MeshParametersE*, align 8
	%.lcr4482945.addr = alloca i8*, align 8
	%..inline.addr.2 = alloca %struct._ZN5vmesh14MeshParametersE*, align 8
	%..inline.addr.3 = alloca %struct._ZSt12_Vector_baseIN5vmesh14MeshParametersESaIS1_EE*, align 8
	%..inline.addr.4 = alloca %struct._ZN5vmesh14MeshParametersE*, align 8

	call void @llvm.dbg.declare (metadata %struct._ZSt6vectorIN5vmesh14MeshParametersESaIS1_EE** %_T20584024_52982.addr, metadata !5801, metadata !3992), !dbg !5742
	store %struct._ZSt6vectorIN5vmesh14MeshParametersESaIS1_EE* %_T20584024_52982.arg, %struct._ZSt6vectorIN5vmesh14MeshParametersESaIS1_EE** %_T20584024_52982.addr, align 8, !tbaa !4000
	call void @llvm.dbg.declare (metadata %struct._ZSt6vectorIN5vmesh14MeshParametersESaIS1_EE** %_T20584024_52982.addr, metadata !5802, metadata !3992), !dbg !5742
	%0 = load %struct._ZSt6vectorIN5vmesh14MeshParametersESaIS1_EE*, %struct._ZSt6vectorIN5vmesh14MeshParametersESaIS1_EE** %_T20584024_52982.addr, align 8, !tbaa !4000, !dbg !5803
	%1 = bitcast %struct._ZSt6vectorIN5vmesh14MeshParametersESaIS1_EE*  %0 to i8**, !dbg !5803
	%2 = load i8*, i8**  %1, align 8, !tbaa !4000, !dbg !5803
	%3 = bitcast %struct._ZN5vmesh14MeshParametersE** %..inline.addr to i8**, !dbg !5803
	store i8*  %2, i8**  %3, align 8, !tbaa !4000, !dbg !5803
	%4 = bitcast %struct._ZSt6vectorIN5vmesh14MeshParametersESaIS1_EE*  %0 to i8*, !dbg !5803
	%5 = getelementptr i8, i8*  %4, i64 8, !dbg !5803
	%6 = bitcast i8*  %5 to i8**, !dbg !5803
	%7 = load i8*, i8**  %6, align 8, !tbaa !4000, !dbg !5803
	%8 = bitcast %struct._ZN5vmesh14MeshParametersE** %..inline.addr.1 to i8**, !dbg !5803
	store i8*  %7, i8**  %8, align 8, !tbaa !4000, !dbg !5803
	%9 = load %struct._ZN5vmesh14MeshParametersE*, %struct._ZN5vmesh14MeshParametersE** %..inline.addr, align 8, !tbaa !4000, !dbg !5803
	%10 = bitcast %struct._ZN5vmesh14MeshParametersE*  %9 to i8*, !dbg !5803
	%11 = load %struct._ZN5vmesh14MeshParametersE*, %struct._ZN5vmesh14MeshParametersE** %..inline.addr.1, align 8, !tbaa !4000, !dbg !5803
	%12 = bitcast %struct._ZN5vmesh14MeshParametersE*  %11 to i8*, !dbg !5803
	%13 = icmp eq i8*  %10,  %12, !dbg !5803
	br i1  %13, label %L..inline.71635, label %L.B1349, !dbg !5803
L.B1349:
	%14 = bitcast %struct._ZN5vmesh14MeshParametersE*  %9 to i8*, !dbg !5803
	%15 = bitcast %struct._ZN5vmesh14MeshParametersE*  %11 to i8*, !dbg !5803
	%16 = ptrtoint i8*  %14 to i64, !dbg !5803
	%17 = sub i64 0,  %16, !dbg !5803
	%18 = getelementptr i8, i8*  %15, i64  %17, !dbg !5803
	%19 = ptrtoint i8*  %18 to i64, !dbg !5803
	%20 = add i64  %19, 335, !dbg !5803
	%21 = sub i64 0,  %16, !dbg !5803
	%22 = getelementptr i8, i8*  %15, i64  %21, !dbg !5803
	%23 = ptrtoint i8*  %22 to i64, !dbg !5803
	%24 = add i64  %23, 335, !dbg !5803
	%25 = sext i64 -4392081922311798003 to i128, !dbg !5803
	%26 = sext i64  %24 to i128, !dbg !5803
	%27 = mul i128  %25,  %26, !dbg !5803
	%28 = ashr i128  %27, 64, !dbg !5803
	%29 = trunc i128  %28 to i64, !dbg !5803
	%30 = add i64  %20,  %29, !dbg !5803
	%31 = sext i32 8 to i64, !dbg !5803
	%32 = ashr i64  %30,  %31, !dbg !5803
	%33 = sub i64 0,  %16, !dbg !5803
	%34 = getelementptr i8, i8*  %15, i64  %33, !dbg !5803
	%35 = ptrtoint i8*  %34 to i64, !dbg !5803
	%36 = add i64  %35, 335, !dbg !5803
	%37 = sext i32 63 to i64, !dbg !5803
	%38 = ashr i64  %36,  %37, !dbg !5803
	%39 = sub i64  %32,  %38, !dbg !5803
	%40 = mul i64  %39, 336, !dbg !5803
	%41 = getelementptr i8, i8*  %14, i64  %40, !dbg !5803
	store i8*  %41, i8** %.lcr4482945.addr, align 8, !tbaa !4000, !dbg !5803
	br label %L..inline.71634
L..inline.71634:
	%42 = load %struct._ZN5vmesh14MeshParametersE*, %struct._ZN5vmesh14MeshParametersE** %..inline.addr, align 8, !tbaa !4000, !dbg !5803
	%43 = bitcast %struct._ZN5vmesh14MeshParametersE*  %42 to i8*, !dbg !5803
	%44 = bitcast %struct._ZN5vmesh14MeshParametersE** %..inline.addr.2 to i8**, !dbg !5803
	store i8*  %43, i8**  %44, align 8, !tbaa !4000, !dbg !5803
	%45 = load %struct._ZN5vmesh14MeshParametersE*, %struct._ZN5vmesh14MeshParametersE** %..inline.addr.2, align 8, !tbaa !4000, !dbg !5803
	call void  @_ZN5vmesh14MeshParametersD1Ev (%struct._ZN5vmesh14MeshParametersE*  %45) nounwind, !dbg !5803
	%46 = load %struct._ZN5vmesh14MeshParametersE*, %struct._ZN5vmesh14MeshParametersE** %..inline.addr, align 8, !tbaa !4000, !dbg !5803
	%47 = bitcast %struct._ZN5vmesh14MeshParametersE*  %46 to i8*, !dbg !5803
	%48 = getelementptr i8, i8*  %47, i64 336, !dbg !5803
	%49 = bitcast %struct._ZN5vmesh14MeshParametersE** %..inline.addr to i8**, !dbg !5803
	store i8*  %48, i8**  %49, align 8, !tbaa !4000, !dbg !5803
	%50 = load %struct._ZN5vmesh14MeshParametersE*, %struct._ZN5vmesh14MeshParametersE** %..inline.addr, align 8, !tbaa !4000, !dbg !5803
	%51 = bitcast %struct._ZN5vmesh14MeshParametersE*  %50 to i8*, !dbg !5803
	%52 = load i8*, i8** %.lcr4482945.addr, align 8, !tbaa !4000, !dbg !5803
	%53 = icmp ult i8*  %51,  %52, !dbg !5803
	br i1  %53, label %L..inline.71634, label %L..inline.71635, !dbg !5803
L..inline.71635:
	%54 = load %struct._ZSt6vectorIN5vmesh14MeshParametersESaIS1_EE*, %struct._ZSt6vectorIN5vmesh14MeshParametersESaIS1_EE** %_T20584024_52982.addr, align 8, !tbaa !4000, !dbg !5804
	%55 = bitcast %struct._ZSt6vectorIN5vmesh14MeshParametersESaIS1_EE*  %54 to i8*, !dbg !5804
	%56 = bitcast %struct._ZSt12_Vector_baseIN5vmesh14MeshParametersESaIS1_EE** %..inline.addr.3 to i8**, !dbg !5804
	store i8*  %55, i8**  %56, align 8, !tbaa !4000, !dbg !5804
	%57 = load %struct._ZSt12_Vector_baseIN5vmesh14MeshParametersESaIS1_EE*, %struct._ZSt12_Vector_baseIN5vmesh14MeshParametersESaIS1_EE** %..inline.addr.3, align 8, !tbaa !4000, !dbg !5805
	%58 = bitcast %struct._ZSt12_Vector_baseIN5vmesh14MeshParametersESaIS1_EE*  %57 to i8**, !dbg !5805
	%59 = load i8*, i8**  %58, align 8, !tbaa !4000, !dbg !5805
	%60 = icmp eq i8*  %59,  null, !dbg !5805
	br i1  %60, label %L..inline.71667, label %L.B1350, !dbg !5805
L.B1350:
	%61 = bitcast %struct._ZSt12_Vector_baseIN5vmesh14MeshParametersESaIS1_EE*  %57 to i8**, !dbg !5805
	%62 = load i8*, i8**  %61, align 8, !tbaa !4000, !dbg !5805
	%63 = bitcast %struct._ZN5vmesh14MeshParametersE** %..inline.addr.4 to i8**, !dbg !5805
	store i8*  %62, i8**  %63, align 8, !tbaa !4000, !dbg !5805
	%64 = load %struct._ZN5vmesh14MeshParametersE*, %struct._ZN5vmesh14MeshParametersE** %..inline.addr.4, align 8, !tbaa !4000, !dbg !5805
	%65 = bitcast %struct._ZN5vmesh14MeshParametersE*  %64 to i8*, !dbg !5805
	call void  @_ZdlPv (i8*  %65) nounwind, !dbg !5805
	br label %L..inline.71667
L..inline.71667:
	ret void, !dbg !5804
}
define linkonce_odr void @_ZNSt6vectorIN5vmesh14MeshParametersESaIS1_EED2Ev(%struct._ZSt6vectorIN5vmesh14MeshParametersESaIS1_EE* %_T20584024_52983.arg) #0 inlinehint !dbg !5807 {
L.entry:
	%_T20584024_52983.addr = alloca %struct._ZSt6vectorIN5vmesh14MeshParametersESaIS1_EE*, align 8
	%..inline.addr = alloca %struct._ZSt6vectorIN5vmesh14MeshParametersESaIS1_EE*, align 8
	%..inline.addr.1 = alloca %struct._ZN5vmesh14MeshParametersE*, align 8
	%..inline.addr.2 = alloca %struct._ZN5vmesh14MeshParametersE*, align 8
	%.lcr4483969.addr = alloca i8*, align 8
	%..inline.addr.3 = alloca %struct._ZN5vmesh14MeshParametersE*, align 8
	%..inline.addr.4 = alloca %struct._ZN5vmesh14MeshParametersE*, align 8

	store %struct._ZSt6vectorIN5vmesh14MeshParametersESaIS1_EE* %_T20584024_52983.arg, %struct._ZSt6vectorIN5vmesh14MeshParametersESaIS1_EE** %_T20584024_52983.addr, align 8, !tbaa !4000
	%0 = load %struct._ZSt6vectorIN5vmesh14MeshParametersESaIS1_EE*, %struct._ZSt6vectorIN5vmesh14MeshParametersESaIS1_EE** %_T20584024_52983.addr, align 8, !tbaa !4000, !dbg !5871
	%1 = bitcast %struct._ZSt6vectorIN5vmesh14MeshParametersESaIS1_EE*  %0 to i8*, !dbg !5871
	%2 = bitcast %struct._ZSt6vectorIN5vmesh14MeshParametersESaIS1_EE** %..inline.addr to i8**, !dbg !5871
	store i8*  %1, i8**  %2, align 8, !tbaa !4000, !dbg !5871
	%3 = load %struct._ZSt6vectorIN5vmesh14MeshParametersESaIS1_EE*, %struct._ZSt6vectorIN5vmesh14MeshParametersESaIS1_EE** %..inline.addr, align 8, !tbaa !4000, !dbg !5872
	%4 = bitcast %struct._ZSt6vectorIN5vmesh14MeshParametersESaIS1_EE*  %3 to i8**, !dbg !5872
	%5 = load i8*, i8**  %4, align 8, !tbaa !4000, !dbg !5872
	%6 = bitcast %struct._ZN5vmesh14MeshParametersE** %..inline.addr.1 to i8**, !dbg !5872
	store i8*  %5, i8**  %6, align 8, !tbaa !4000, !dbg !5872
	%7 = bitcast %struct._ZSt6vectorIN5vmesh14MeshParametersESaIS1_EE*  %3 to i8*, !dbg !5872
	%8 = getelementptr i8, i8*  %7, i64 8, !dbg !5872
	%9 = bitcast i8*  %8 to i8**, !dbg !5872
	%10 = load i8*, i8**  %9, align 8, !tbaa !4000, !dbg !5872
	%11 = bitcast %struct._ZN5vmesh14MeshParametersE** %..inline.addr.2 to i8**, !dbg !5872
	store i8*  %10, i8**  %11, align 8, !tbaa !4000, !dbg !5872
	%12 = load %struct._ZN5vmesh14MeshParametersE*, %struct._ZN5vmesh14MeshParametersE** %..inline.addr.1, align 8, !tbaa !4000, !dbg !5872
	%13 = bitcast %struct._ZN5vmesh14MeshParametersE*  %12 to i8*, !dbg !5872
	%14 = load %struct._ZN5vmesh14MeshParametersE*, %struct._ZN5vmesh14MeshParametersE** %..inline.addr.2, align 8, !tbaa !4000, !dbg !5872
	%15 = bitcast %struct._ZN5vmesh14MeshParametersE*  %14 to i8*, !dbg !5872
	%16 = icmp eq i8*  %13,  %15, !dbg !5872
	br i1  %16, label %L..inline.71766, label %L.B1353, !dbg !5872
L.B1353:
	%17 = bitcast %struct._ZN5vmesh14MeshParametersE*  %12 to i8*, !dbg !5872
	%18 = bitcast %struct._ZN5vmesh14MeshParametersE*  %14 to i8*, !dbg !5872
	%19 = ptrtoint i8*  %17 to i64, !dbg !5872
	%20 = sub i64 0,  %19, !dbg !5872
	%21 = getelementptr i8, i8*  %18, i64  %20, !dbg !5872
	%22 = ptrtoint i8*  %21 to i64, !dbg !5872
	%23 = add i64  %22, 335, !dbg !5872
	%24 = sub i64 0,  %19, !dbg !5872
	%25 = getelementptr i8, i8*  %18, i64  %24, !dbg !5872
	%26 = ptrtoint i8*  %25 to i64, !dbg !5872
	%27 = add i64  %26, 335, !dbg !5872
	%28 = sext i64 -4392081922311798003 to i128, !dbg !5872
	%29 = sext i64  %27 to i128, !dbg !5872
	%30 = mul i128  %28,  %29, !dbg !5872
	%31 = ashr i128  %30, 64, !dbg !5872
	%32 = trunc i128  %31 to i64, !dbg !5872
	%33 = add i64  %23,  %32, !dbg !5872
	%34 = sext i32 8 to i64, !dbg !5872
	%35 = ashr i64  %33,  %34, !dbg !5872
	%36 = sub i64 0,  %19, !dbg !5872
	%37 = getelementptr i8, i8*  %18, i64  %36, !dbg !5872
	%38 = ptrtoint i8*  %37 to i64, !dbg !5872
	%39 = add i64  %38, 335, !dbg !5872
	%40 = sext i32 63 to i64, !dbg !5872
	%41 = ashr i64  %39,  %40, !dbg !5872
	%42 = sub i64  %35,  %41, !dbg !5872
	%43 = mul i64  %42, 336, !dbg !5872
	%44 = getelementptr i8, i8*  %17, i64  %43, !dbg !5872
	store i8*  %44, i8** %.lcr4483969.addr, align 8, !tbaa !4000, !dbg !5872
	br label %L..inline.71765
L..inline.71765:
	%45 = load %struct._ZN5vmesh14MeshParametersE*, %struct._ZN5vmesh14MeshParametersE** %..inline.addr.1, align 8, !tbaa !4000, !dbg !5872
	%46 = bitcast %struct._ZN5vmesh14MeshParametersE*  %45 to i8*, !dbg !5872
	%47 = bitcast %struct._ZN5vmesh14MeshParametersE** %..inline.addr.3 to i8**, !dbg !5872
	store i8*  %46, i8**  %47, align 8, !tbaa !4000, !dbg !5872
	%48 = load %struct._ZN5vmesh14MeshParametersE*, %struct._ZN5vmesh14MeshParametersE** %..inline.addr.3, align 8, !tbaa !4000, !dbg !5872
	call void  @_ZN5vmesh14MeshParametersD1Ev (%struct._ZN5vmesh14MeshParametersE*  %48) nounwind, !dbg !5872
	%49 = load %struct._ZN5vmesh14MeshParametersE*, %struct._ZN5vmesh14MeshParametersE** %..inline.addr.1, align 8, !tbaa !4000, !dbg !5872
	%50 = bitcast %struct._ZN5vmesh14MeshParametersE*  %49 to i8*, !dbg !5872
	%51 = getelementptr i8, i8*  %50, i64 336, !dbg !5872
	%52 = bitcast %struct._ZN5vmesh14MeshParametersE** %..inline.addr.1 to i8**, !dbg !5872
	store i8*  %51, i8**  %52, align 8, !tbaa !4000, !dbg !5872
	%53 = load %struct._ZN5vmesh14MeshParametersE*, %struct._ZN5vmesh14MeshParametersE** %..inline.addr.1, align 8, !tbaa !4000, !dbg !5872
	%54 = bitcast %struct._ZN5vmesh14MeshParametersE*  %53 to i8*, !dbg !5872
	%55 = load i8*, i8** %.lcr4483969.addr, align 8, !tbaa !4000, !dbg !5872
	%56 = icmp ult i8*  %54,  %55, !dbg !5872
	br i1  %56, label %L..inline.71765, label %L..inline.71766, !dbg !5872
L..inline.71766:
	%57 = load %struct._ZSt6vectorIN5vmesh14MeshParametersESaIS1_EE*, %struct._ZSt6vectorIN5vmesh14MeshParametersESaIS1_EE** %..inline.addr, align 8, !tbaa !4000, !dbg !5873
	%58 = bitcast %struct._ZSt6vectorIN5vmesh14MeshParametersESaIS1_EE*  %57 to i8**, !dbg !5873
	%59 = load i8*, i8**  %58, align 8, !tbaa !4000, !dbg !5873
	%60 = icmp eq i8*  %59,  null, !dbg !5873
	br i1  %60, label %L..inline.71796, label %L.B1354, !dbg !5873
L.B1354:
	%61 = bitcast %struct._ZSt6vectorIN5vmesh14MeshParametersESaIS1_EE*  %57 to i8**, !dbg !5873
	%62 = load i8*, i8**  %61, align 8, !tbaa !4000, !dbg !5873
	%63 = bitcast %struct._ZN5vmesh14MeshParametersE** %..inline.addr.4 to i8**, !dbg !5873
	store i8*  %62, i8**  %63, align 8, !tbaa !4000, !dbg !5873
	%64 = load %struct._ZN5vmesh14MeshParametersE*, %struct._ZN5vmesh14MeshParametersE** %..inline.addr.4, align 8, !tbaa !4000, !dbg !5873
	%65 = bitcast %struct._ZN5vmesh14MeshParametersE*  %64 to i8*, !dbg !5873
	call void  @_ZdlPv (i8*  %65) nounwind, !dbg !5873
	br label %L..inline.71796
L..inline.71796:
	ret void, !dbg !5873
}

%struct._ZN7species7SpeciesE = type <{ %struct._ZNSt7__cxx1112basic_stringIcSt11char_traitsIcESaIcEEE, double, double, double, i64, i32, i8, [3 x i8], i32, [4 x i8], double, double, double, double, double, %struct._ZSt5arrayIdLm3EE, double, double, double, double, i32, [4 x i8], double, double, double}> 
%struct._ZSt5arrayIdLm3EE = type <{ [3 x double]}> 
%struct._ZSt12_Vector_baseIN7species7SpeciesESaIS1_EE = type <{ %struct._ZNSt12_Vector_baseIN7species7SpeciesESaIS1_EE12_Vector_implE}> 
%struct._ZNSt12_Vector_baseIN7species7SpeciesESaIS1_EE12_Vector_implE = type <{ %struct._ZNSt12_Vector_baseIN7species7SpeciesESaIS1_EE17_Vector_impl_dataE}> 
%struct._ZSt6vectorIN7species7SpeciesESaIS1_EE = type <{ %struct._ZSt12_Vector_baseIN7species7SpeciesESaIS1_EE}> 
%struct._ZNSt12_Vector_baseIN7species7SpeciesESaIS1_EE17_Vector_impl_dataE = type <{ %struct._ZN7species7SpeciesE*, %struct._ZN7species7SpeciesE*, %struct._ZN7species7SpeciesE*}> 

define linkonce_odr i64 @_ZNKSt6vectorIN7species7SpeciesESaIS1_EE4sizeEv(%struct._ZSt6vectorIN7species7SpeciesESaIS1_EE* %_T20584024_52985.arg) #0 inlinehint !dbg !5878 {
L.entry:
	%_T20584024_52985.addr = alloca %struct._ZSt6vectorIN7species7SpeciesESaIS1_EE*, align 8
	%_T20584912_52985.addr = alloca i64, align 8

	call void @llvm.dbg.declare (metadata %struct._ZSt6vectorIN7species7SpeciesESaIS1_EE** %_T20584024_52985.addr, metadata !5882, metadata !3992), !dbg !5879
	store %struct._ZSt6vectorIN7species7SpeciesESaIS1_EE* %_T20584024_52985.arg, %struct._ZSt6vectorIN7species7SpeciesESaIS1_EE** %_T20584024_52985.addr, align 8, !tbaa !4000
	call void @llvm.dbg.declare (metadata %struct._ZSt6vectorIN7species7SpeciesESaIS1_EE** %_T20584024_52985.addr, metadata !5883, metadata !3992), !dbg !5879
	%0 = load %struct._ZSt6vectorIN7species7SpeciesESaIS1_EE*, %struct._ZSt6vectorIN7species7SpeciesESaIS1_EE** %_T20584024_52985.addr, align 8, !tbaa !4000, !dbg !5884
	%1 = bitcast %struct._ZSt6vectorIN7species7SpeciesESaIS1_EE*  %0 to i8*, !dbg !5884
	%2 = getelementptr i8, i8*  %1, i64 8, !dbg !5884
	%3 = bitcast i8*  %2 to i8**, !dbg !5884
	%4 = load i8*, i8**  %3, align 8, !tbaa !4000, !dbg !5884
	%5 = bitcast %struct._ZSt6vectorIN7species7SpeciesESaIS1_EE*  %0 to i8**, !dbg !5884
	%6 = load i8*, i8**  %5, align 8, !tbaa !4000, !dbg !5884
	%7 = ptrtoint i8*  %6 to i64, !dbg !5884
	%8 = sub i64 0,  %7, !dbg !5884
	%9 = getelementptr i8, i8*  %4, i64  %8, !dbg !5884
	%10 = ptrtoint i8*  %9 to i64, !dbg !5884
	%11 = sext i64 5675921253449092805 to i128, !dbg !5884
	%12 = sext i64  %10 to i128, !dbg !5884
	%13 = mul i128  %11,  %12, !dbg !5884
	%14 = ashr i128  %13, 64, !dbg !5884
	%15 = trunc i128  %14 to i64, !dbg !5884
	%16 = sext i32 6 to i64, !dbg !5884
	%17 = ashr i64  %15,  %16, !dbg !5884
	%18 = sub i64 0,  %7, !dbg !5884
	%19 = getelementptr i8, i8*  %4, i64  %18, !dbg !5884
	%20 = ptrtoint i8*  %19 to i64, !dbg !5884
	%21 = sext i32 63 to i64, !dbg !5884
	%22 = ashr i64  %20,  %21, !dbg !5884
	%23 = sub i64  %17,  %22, !dbg !5884
	ret i64  %23, !dbg !5884
}
define linkonce_odr %struct._ZN7species7SpeciesE* @_ZNSt6vectorIN7species7SpeciesESaIS1_EEixEm(%struct._ZSt6vectorIN7species7SpeciesESaIS1_EE* %_T20584024_52988.arg, i64 %__n.arg) #0 inlinehint !dbg !5888 {
L.entry:
	%_T20584024_52988.addr = alloca %struct._ZSt6vectorIN7species7SpeciesESaIS1_EE*, align 8
	%__n.addr = alloca i64, align 8

	call void @llvm.dbg.declare (metadata %struct._ZSt6vectorIN7species7SpeciesESaIS1_EE** %_T20584024_52988.addr, metadata !5892, metadata !3992), !dbg !5889
	store %struct._ZSt6vectorIN7species7SpeciesESaIS1_EE* %_T20584024_52988.arg, %struct._ZSt6vectorIN7species7SpeciesESaIS1_EE** %_T20584024_52988.addr, align 8, !tbaa !4000
	call void @llvm.dbg.declare (metadata %struct._ZSt6vectorIN7species7SpeciesESaIS1_EE** %_T20584024_52988.addr, metadata !5893, metadata !3992), !dbg !5889
	call void @llvm.dbg.declare (metadata i64* %__n.addr, metadata !5894, metadata !3992), !dbg !5889
	store i64 %__n.arg, i64* %__n.addr, align 8, !tbaa !3999
	call void @llvm.dbg.declare (metadata i64* %__n.addr, metadata !5895, metadata !3992), !dbg !5889
	%0 = load %struct._ZSt6vectorIN7species7SpeciesESaIS1_EE*, %struct._ZSt6vectorIN7species7SpeciesESaIS1_EE** %_T20584024_52988.addr, align 8, !tbaa !4000, !dbg !5896
	%1 = bitcast %struct._ZSt6vectorIN7species7SpeciesESaIS1_EE*  %0 to i8**, !dbg !5896
	%2 = load i8*, i8**  %1, align 8, !tbaa !4000, !dbg !5896
	%3 = load i64, i64* %__n.addr, align 8, !tbaa !4427, !dbg !5896
	%4 = mul i64  %3, 208, !dbg !5896
	%5 = getelementptr i8, i8*  %2, i64  %4, !dbg !5896
	%6 = bitcast i8*  %5 to %struct._ZN7species7SpeciesE*, !dbg !5896
	ret %struct._ZN7species7SpeciesE*  %6, !dbg !5896
}

%struct._ZSaIN8projects26DiffusionSpeciesParametersEE = type <{ [1 x i8]}> 

define linkonce_odr void @_ZNSaIN8projects26DiffusionSpeciesParametersEED1Ev(%struct._ZSaIN8projects26DiffusionSpeciesParametersEE* %_T20584024_52989.arg) #0 inlinehint !dbg !5902 {
L.entry:
	%_T20584024_52989.addr = alloca %struct._ZSaIN8projects26DiffusionSpeciesParametersEE*, align 8

	call void @llvm.dbg.declare (metadata %struct._ZSaIN8projects26DiffusionSpeciesParametersEE** %_T20584024_52989.addr, metadata !5906, metadata !3992), !dbg !5903
	store %struct._ZSaIN8projects26DiffusionSpeciesParametersEE* %_T20584024_52989.arg, %struct._ZSaIN8projects26DiffusionSpeciesParametersEE** %_T20584024_52989.addr, align 8, !tbaa !4000
	call void @llvm.dbg.declare (metadata %struct._ZSaIN8projects26DiffusionSpeciesParametersEE** %_T20584024_52989.addr, metadata !5907, metadata !3992), !dbg !5903
	ret void, !dbg !5908
}
define linkonce_odr void @_ZNSaIN8projects26DiffusionSpeciesParametersEED2Ev(%struct._ZSaIN8projects26DiffusionSpeciesParametersEE* %_T20584024_52990.arg) #0 inlinehint !dbg !5910 {
L.entry:
	%_T20584024_52990.addr = alloca %struct._ZSaIN8projects26DiffusionSpeciesParametersEE*, align 8

	store %struct._ZSaIN8projects26DiffusionSpeciesParametersEE* %_T20584024_52990.arg, %struct._ZSaIN8projects26DiffusionSpeciesParametersEE** %_T20584024_52990.addr, align 8, !tbaa !4000
	ret void, !dbg !5918
}
define linkonce_odr %struct._ZN8projects26DiffusionSpeciesParametersE* @_ZNSt16allocator_traitsISaIN8projects26DiffusionSpeciesParametersEEE8allocateERS2_m(%struct._ZSaIN8projects26DiffusionSpeciesParametersEE* %__a.arg, i64 %__n.arg) #0 inlinehint !dbg !5926 {
L.entry:
	%__a.addr = alloca %struct._ZSaIN8projects26DiffusionSpeciesParametersEE*, align 8
	%__n.addr = alloca i64, align 8
	%..inline.addr = alloca i64, align 8
	%.Q0010.addr = alloca i8*, align 8

	call void @llvm.dbg.declare (metadata %struct._ZSaIN8projects26DiffusionSpeciesParametersEE** %__a.addr, metadata !5938, metadata !3992), !dbg !5927
	store %struct._ZSaIN8projects26DiffusionSpeciesParametersEE* %__a.arg, %struct._ZSaIN8projects26DiffusionSpeciesParametersEE** %__a.addr, align 8, !tbaa !4000
	call void @llvm.dbg.declare (metadata %struct._ZSaIN8projects26DiffusionSpeciesParametersEE** %__a.addr, metadata !5939, metadata !3992), !dbg !5927
	call void @llvm.dbg.declare (metadata i64* %__n.addr, metadata !5940, metadata !3992), !dbg !5927
	store i64 %__n.arg, i64* %__n.addr, align 8, !tbaa !3999
	call void @llvm.dbg.declare (metadata i64* %__n.addr, metadata !5941, metadata !3992), !dbg !5927
	%0 = load i64, i64* %__n.addr, align 8, !tbaa !4427, !dbg !5942
	store i64  %0, i64* %..inline.addr, align 8, !tbaa !4427, !dbg !5942
	%1 = icmp ule i64  %0, 461168601842738790, !dbg !5943
	br i1  %1, label %L..inline.71900, label %L.B1359, !dbg !5943
L.B1359:
	call void  @_ZSt17__throw_bad_allocv () noreturn, !dbg !5944
	br label %L..inline.71900
L..inline.71900:
	%2 = load i64, i64* %..inline.addr, align 8, !tbaa !4427, !dbg !5945
	%3 = mul i64  %2, 40, !dbg !5945
	%4 = call i8*  @_Znwm (i64  %3), !dbg !5945
	store i8*  %4, i8** %.Q0010.addr, align 8, !tbaa !4000, !dbg !5945
	%5 = bitcast i8*  %4 to %struct._ZN8projects26DiffusionSpeciesParametersE*, !dbg !5945
	ret %struct._ZN8projects26DiffusionSpeciesParametersE*  %5, !dbg !5945
}
define linkonce_odr void @_ZNSt16allocator_traitsISaIN8projects26DiffusionSpeciesParametersEEE10deallocateERS2_PS1_m(%struct._ZSaIN8projects26DiffusionSpeciesParametersEE* %__a.arg, %struct._ZN8projects26DiffusionSpeciesParametersE* %__p.arg, i64 %__n.arg) #0 inlinehint !dbg !5949 {
L.entry:
	%__a.addr = alloca %struct._ZSaIN8projects26DiffusionSpeciesParametersEE*, align 8
	%__p.addr = alloca %struct._ZN8projects26DiffusionSpeciesParametersE*, align 8
	%__n.addr = alloca i64, align 8
	%..inline.addr = alloca %struct._ZN8projects26DiffusionSpeciesParametersE*, align 8

	call void @llvm.dbg.declare (metadata %struct._ZSaIN8projects26DiffusionSpeciesParametersEE** %__a.addr, metadata !5957, metadata !3992), !dbg !5950
	store %struct._ZSaIN8projects26DiffusionSpeciesParametersEE* %__a.arg, %struct._ZSaIN8projects26DiffusionSpeciesParametersEE** %__a.addr, align 8, !tbaa !4000
	call void @llvm.dbg.declare (metadata %struct._ZSaIN8projects26DiffusionSpeciesParametersEE** %__a.addr, metadata !5958, metadata !3992), !dbg !5950
	call void @llvm.dbg.declare (metadata %struct._ZN8projects26DiffusionSpeciesParametersE** %__p.addr, metadata !5959, metadata !3992), !dbg !5950
	store %struct._ZN8projects26DiffusionSpeciesParametersE* %__p.arg, %struct._ZN8projects26DiffusionSpeciesParametersE** %__p.addr, align 8, !tbaa !4000
	call void @llvm.dbg.declare (metadata %struct._ZN8projects26DiffusionSpeciesParametersE** %__p.addr, metadata !5960, metadata !3992), !dbg !5950
	call void @llvm.dbg.declare (metadata i64* %__n.addr, metadata !5961, metadata !3992), !dbg !5950
	store i64 %__n.arg, i64* %__n.addr, align 8, !tbaa !3999
	call void @llvm.dbg.declare (metadata i64* %__n.addr, metadata !5962, metadata !3992), !dbg !5950
	%0 = load %struct._ZN8projects26DiffusionSpeciesParametersE*, %struct._ZN8projects26DiffusionSpeciesParametersE** %__p.addr, align 8, !tbaa !4000, !dbg !5963
	%1 = bitcast %struct._ZN8projects26DiffusionSpeciesParametersE*  %0 to i8*, !dbg !5963
	%2 = bitcast %struct._ZN8projects26DiffusionSpeciesParametersE** %..inline.addr to i8**, !dbg !5963
	store i8*  %1, i8**  %2, align 8, !tbaa !4000, !dbg !5963
	%3 = load %struct._ZN8projects26DiffusionSpeciesParametersE*, %struct._ZN8projects26DiffusionSpeciesParametersE** %..inline.addr, align 8, !tbaa !4000, !dbg !5964
	%4 = bitcast %struct._ZN8projects26DiffusionSpeciesParametersE*  %3 to i8*, !dbg !5964
	call void  @_ZdlPv (i8*  %4) nounwind, !dbg !5964
	ret void, !dbg !5963
}
define linkonce_odr i64 @_ZNSt16allocator_traitsISaIN8projects26DiffusionSpeciesParametersEEE8max_sizeERKS2_(%struct._ZSaIN8projects26DiffusionSpeciesParametersEE* %__a.arg) #0 inlinehint !dbg !5972 {
L.entry:
	%__a.addr = alloca %struct._ZSaIN8projects26DiffusionSpeciesParametersEE*, align 8

	call void @llvm.dbg.declare (metadata %struct._ZSaIN8projects26DiffusionSpeciesParametersEE** %__a.addr, metadata !5980, metadata !3992), !dbg !5973
	store %struct._ZSaIN8projects26DiffusionSpeciesParametersEE* %__a.arg, %struct._ZSaIN8projects26DiffusionSpeciesParametersEE** %__a.addr, align 8, !tbaa !4000
	call void @llvm.dbg.declare (metadata %struct._ZSaIN8projects26DiffusionSpeciesParametersEE** %__a.addr, metadata !5981, metadata !3992), !dbg !5973
	ret i64 461168601842738790, !dbg !5982
}
define linkonce_odr void @_ZNSt16allocator_traitsISaIN8projects26DiffusionSpeciesParametersEEE9constructIS1_JRKS1_EEEvRS2_PT_DpOT0_(%struct._ZSaIN8projects26DiffusionSpeciesParametersEE* %__a.arg, %struct._ZN8projects26DiffusionSpeciesParametersE* %__p.arg, %struct._ZN8projects26DiffusionSpeciesParametersE* %__args.arg) #0 inlinehint !dbg !5995 {
L.entry:
	%__a.addr = alloca %struct._ZSaIN8projects26DiffusionSpeciesParametersEE*, align 8
	%__p.addr = alloca %struct._ZN8projects26DiffusionSpeciesParametersE*, align 8
	%__args.addr = alloca %struct._ZN8projects26DiffusionSpeciesParametersE*, align 8
	%..inline.addr = alloca %struct._ZN8projects26DiffusionSpeciesParametersE*, align 8
	%..inline.addr.1 = alloca %struct._ZN8projects26DiffusionSpeciesParametersE*, align 8

	call void @llvm.dbg.declare (metadata %struct._ZSaIN8projects26DiffusionSpeciesParametersEE** %__a.addr, metadata !6015, metadata !3992), !dbg !5996
	store %struct._ZSaIN8projects26DiffusionSpeciesParametersEE* %__a.arg, %struct._ZSaIN8projects26DiffusionSpeciesParametersEE** %__a.addr, align 8, !tbaa !4000
	call void @llvm.dbg.declare (metadata %struct._ZSaIN8projects26DiffusionSpeciesParametersEE** %__a.addr, metadata !6016, metadata !3992), !dbg !5996
	call void @llvm.dbg.declare (metadata %struct._ZN8projects26DiffusionSpeciesParametersE** %__p.addr, metadata !6017, metadata !3992), !dbg !5996
	store %struct._ZN8projects26DiffusionSpeciesParametersE* %__p.arg, %struct._ZN8projects26DiffusionSpeciesParametersE** %__p.addr, align 8, !tbaa !4000
	call void @llvm.dbg.declare (metadata %struct._ZN8projects26DiffusionSpeciesParametersE** %__p.addr, metadata !6018, metadata !3992), !dbg !5996
	call void @llvm.dbg.declare (metadata %struct._ZN8projects26DiffusionSpeciesParametersE** %__args.addr, metadata !6019, metadata !3992), !dbg !5996
	store %struct._ZN8projects26DiffusionSpeciesParametersE* %__args.arg, %struct._ZN8projects26DiffusionSpeciesParametersE** %__args.addr, align 8, !tbaa !4000
	call void @llvm.dbg.declare (metadata %struct._ZN8projects26DiffusionSpeciesParametersE** %__args.addr, metadata !6020, metadata !3992), !dbg !5996
	%0 = load %struct._ZN8projects26DiffusionSpeciesParametersE*, %struct._ZN8projects26DiffusionSpeciesParametersE** %__p.addr, align 8, !tbaa !4000, !dbg !6021
	%1 = bitcast %struct._ZN8projects26DiffusionSpeciesParametersE*  %0 to i8*, !dbg !6021
	%2 = bitcast %struct._ZN8projects26DiffusionSpeciesParametersE** %..inline.addr to i8**, !dbg !6021
	store i8*  %1, i8**  %2, align 8, !tbaa !4000, !dbg !6021
	%3 = load %struct._ZN8projects26DiffusionSpeciesParametersE*, %struct._ZN8projects26DiffusionSpeciesParametersE** %..inline.addr, align 8, !tbaa !4000, !dbg !6021
	%4 = bitcast %struct._ZN8projects26DiffusionSpeciesParametersE*  %3 to i8*, !dbg !6021
	%5 = icmp eq i8*  %4,  null, !dbg !6021
	br i1  %5, label %L..inline.71966, label %L.B1368, !dbg !6021
L.B1368:
	%6 = load %struct._ZN8projects26DiffusionSpeciesParametersE*, %struct._ZN8projects26DiffusionSpeciesParametersE** %__args.addr, align 8, !tbaa !4000, !dbg !6021
	%7 = bitcast %struct._ZN8projects26DiffusionSpeciesParametersE*  %6 to i8*, !dbg !6021
	%8 = bitcast %struct._ZN8projects26DiffusionSpeciesParametersE** %..inline.addr.1 to i8**, !dbg !6021
	store i8*  %7, i8**  %8, align 8, !tbaa !4000, !dbg !6021
	%9 = load %struct._ZN8projects26DiffusionSpeciesParametersE*, %struct._ZN8projects26DiffusionSpeciesParametersE** %..inline.addr.1, align 8, !tbaa !4000, !dbg !6021
	%10 = bitcast %struct._ZN8projects26DiffusionSpeciesParametersE*  %9 to double*, !dbg !6021
	%11 = load double, double*  %10, align 8, !tbaa !3999, !dbg !6021
	%12 = bitcast %struct._ZN8projects26DiffusionSpeciesParametersE*  %3 to double*, !dbg !6021
	store double  %11, double*  %12, align 8, !tbaa !3999, !dbg !6021
	%13 = bitcast double*  %10 to i8*, !dbg !6021
	%14 = getelementptr i8, i8*  %13, i64 8, !dbg !6021
	%15 = bitcast i8*  %14 to double*, !dbg !6021
	%16 = load double, double*  %15, align 8, !tbaa !3999, !dbg !6021
	%17 = bitcast double*  %12 to i8*, !dbg !6021
	%18 = getelementptr i8, i8*  %17, i64 8, !dbg !6021
	%19 = bitcast i8*  %18 to double*, !dbg !6021
	store double  %16, double*  %19, align 8, !tbaa !3999, !dbg !6021
	%20 = getelementptr i8, i8*  %13, i64 16, !dbg !6021
	%21 = bitcast i8*  %20 to double*, !dbg !6021
	%22 = load double, double*  %21, align 8, !tbaa !3999, !dbg !6021
	%23 = getelementptr i8, i8*  %17, i64 16, !dbg !6021
	%24 = bitcast i8*  %23 to double*, !dbg !6021
	store double  %22, double*  %24, align 8, !tbaa !3999, !dbg !6021
	%25 = getelementptr i8, i8*  %13, i64 24, !dbg !6021
	%26 = bitcast i8*  %25 to double*, !dbg !6021
	%27 = load double, double*  %26, align 8, !tbaa !3999, !dbg !6021
	%28 = getelementptr i8, i8*  %17, i64 24, !dbg !6021
	%29 = bitcast i8*  %28 to double*, !dbg !6021
	store double  %27, double*  %29, align 8, !tbaa !3999, !dbg !6021
	%30 = getelementptr i8, i8*  %13, i64 32, !dbg !6021
	%31 = bitcast i8*  %30 to i32*, !dbg !6021
	%32 = load i32, i32*  %31, align 4, !tbaa !3999, !dbg !6021
	%33 = getelementptr i8, i8*  %17, i64 32, !dbg !6021
	%34 = bitcast i8*  %33 to i32*, !dbg !6021
	store i32  %32, i32*  %34, align 4, !tbaa !3999, !dbg !6021
	%35 = getelementptr i8, i8*  %13, i64 36, !dbg !6021
	%36 = bitcast i8*  %35 to i32*, !dbg !6021
	%37 = load i32, i32*  %36, align 4, !tbaa !3999, !dbg !6021
	%38 = getelementptr i8, i8*  %17, i64 36, !dbg !6021
	%39 = bitcast i8*  %38 to i32*, !dbg !6021
	store i32  %37, i32*  %39, align 4, !tbaa !3999, !dbg !6021
	br label %L..inline.71976, !dbg !6021
L..inline.71966:
	br label %L..inline.71976
L..inline.71976:
	ret void, !dbg !6022
}
define linkonce_odr void @_ZNSt16allocator_traitsISaIN8projects26DiffusionSpeciesParametersEEE7destroyIS1_EEvRS2_PT_(%struct._ZSaIN8projects26DiffusionSpeciesParametersEE* %__a.arg, %struct._ZN8projects26DiffusionSpeciesParametersE* %__p.arg) #0 inlinehint !dbg !6026 {
L.entry:
	%__a.addr = alloca %struct._ZSaIN8projects26DiffusionSpeciesParametersEE*, align 8
	%__p.addr = alloca %struct._ZN8projects26DiffusionSpeciesParametersE*, align 8

	call void @llvm.dbg.declare (metadata %struct._ZSaIN8projects26DiffusionSpeciesParametersEE** %__a.addr, metadata !6034, metadata !3992), !dbg !6027
	store %struct._ZSaIN8projects26DiffusionSpeciesParametersEE* %__a.arg, %struct._ZSaIN8projects26DiffusionSpeciesParametersEE** %__a.addr, align 8, !tbaa !4000
	call void @llvm.dbg.declare (metadata %struct._ZSaIN8projects26DiffusionSpeciesParametersEE** %__a.addr, metadata !6035, metadata !3992), !dbg !6027
	call void @llvm.dbg.declare (metadata %struct._ZN8projects26DiffusionSpeciesParametersE** %__p.addr, metadata !6036, metadata !3992), !dbg !6027
	store %struct._ZN8projects26DiffusionSpeciesParametersE* %__p.arg, %struct._ZN8projects26DiffusionSpeciesParametersE** %__p.addr, align 8, !tbaa !4000
	call void @llvm.dbg.declare (metadata %struct._ZN8projects26DiffusionSpeciesParametersE** %__p.addr, metadata !6037, metadata !3992), !dbg !6027
	ret void, !dbg !6038
}

%struct._ZNSt12_Vector_baseIN8projects26DiffusionSpeciesParametersESaIS1_EE12_Vector_implE = type <{ %struct._ZNSt12_Vector_baseIN8projects26DiffusionSpeciesParametersESaIS1_EE17_Vector_impl_dataE}> 
%struct._ZSt12_Vector_baseIN8projects26DiffusionSpeciesParametersESaIS1_EE = type <{ %struct._ZNSt12_Vector_baseIN8projects26DiffusionSpeciesParametersESaIS1_EE12_Vector_implE}> 
%struct._ZNSt12_Vector_baseIN8projects26DiffusionSpeciesParametersESaIS1_EE17_Vector_impl_dataE = type <{ %struct._ZN8projects26DiffusionSpeciesParametersE*, %struct._ZN8projects26DiffusionSpeciesParametersE*, %struct._ZN8projects26DiffusionSpeciesParametersE*}> 

define linkonce_odr %struct._ZSaIN8projects26DiffusionSpeciesParametersEE* @_ZNSt12_Vector_baseIN8projects26DiffusionSpeciesParametersESaIS1_EE19_M_get_Tp_allocatorEv(%struct._ZSt12_Vector_baseIN8projects26DiffusionSpeciesParametersESaIS1_EE* %_T20584024_53003.arg) #0 inlinehint !dbg !6044 {
L.entry:
	%_T20584024_53003.addr = alloca %struct._ZSt12_Vector_baseIN8projects26DiffusionSpeciesParametersESaIS1_EE*, align 8

	call void @llvm.dbg.declare (metadata %struct._ZSt12_Vector_baseIN8projects26DiffusionSpeciesParametersESaIS1_EE** %_T20584024_53003.addr, metadata !6048, metadata !3992), !dbg !6045
	store %struct._ZSt12_Vector_baseIN8projects26DiffusionSpeciesParametersESaIS1_EE* %_T20584024_53003.arg, %struct._ZSt12_Vector_baseIN8projects26DiffusionSpeciesParametersESaIS1_EE** %_T20584024_53003.addr, align 8, !tbaa !4000
	call void @llvm.dbg.declare (metadata %struct._ZSt12_Vector_baseIN8projects26DiffusionSpeciesParametersESaIS1_EE** %_T20584024_53003.addr, metadata !6049, metadata !3992), !dbg !6045
	%0 = load %struct._ZSt12_Vector_baseIN8projects26DiffusionSpeciesParametersESaIS1_EE*, %struct._ZSt12_Vector_baseIN8projects26DiffusionSpeciesParametersESaIS1_EE** %_T20584024_53003.addr, align 8, !tbaa !4000, !dbg !6050
	%1 = bitcast %struct._ZSt12_Vector_baseIN8projects26DiffusionSpeciesParametersESaIS1_EE*  %0 to %struct._ZSaIN8projects26DiffusionSpeciesParametersEE*, !dbg !6050
	ret %struct._ZSaIN8projects26DiffusionSpeciesParametersEE*  %1, !dbg !6050
}
define linkonce_odr %struct._ZSaIN8projects26DiffusionSpeciesParametersEE* @_ZNKSt12_Vector_baseIN8projects26DiffusionSpeciesParametersESaIS1_EE19_M_get_Tp_allocatorEv(%struct._ZSt12_Vector_baseIN8projects26DiffusionSpeciesParametersESaIS1_EE* %_T20584024_53004.arg) #0 inlinehint !dbg !6052 {
L.entry:
	%_T20584024_53004.addr = alloca %struct._ZSt12_Vector_baseIN8projects26DiffusionSpeciesParametersESaIS1_EE*, align 8

	call void @llvm.dbg.declare (metadata %struct._ZSt12_Vector_baseIN8projects26DiffusionSpeciesParametersESaIS1_EE** %_T20584024_53004.addr, metadata !6056, metadata !3992), !dbg !6053
	store %struct._ZSt12_Vector_baseIN8projects26DiffusionSpeciesParametersESaIS1_EE* %_T20584024_53004.arg, %struct._ZSt12_Vector_baseIN8projects26DiffusionSpeciesParametersESaIS1_EE** %_T20584024_53004.addr, align 8, !tbaa !4000
	call void @llvm.dbg.declare (metadata %struct._ZSt12_Vector_baseIN8projects26DiffusionSpeciesParametersESaIS1_EE** %_T20584024_53004.addr, metadata !6057, metadata !3992), !dbg !6053
	%0 = load %struct._ZSt12_Vector_baseIN8projects26DiffusionSpeciesParametersESaIS1_EE*, %struct._ZSt12_Vector_baseIN8projects26DiffusionSpeciesParametersESaIS1_EE** %_T20584024_53004.addr, align 8, !tbaa !4000, !dbg !6058
	%1 = bitcast %struct._ZSt12_Vector_baseIN8projects26DiffusionSpeciesParametersESaIS1_EE*  %0 to %struct._ZSaIN8projects26DiffusionSpeciesParametersEE*, !dbg !6058
	ret %struct._ZSaIN8projects26DiffusionSpeciesParametersEE*  %1, !dbg !6058
}
define linkonce_odr void @_ZNSt12_Vector_baseIN8projects26DiffusionSpeciesParametersESaIS1_EEC1Ev(%struct._ZSt12_Vector_baseIN8projects26DiffusionSpeciesParametersESaIS1_EE* %_T20584024_53005.arg) #0 inlinehint !dbg !6062 {
L.entry:
	%_T20584024_53005.addr = alloca %struct._ZSt12_Vector_baseIN8projects26DiffusionSpeciesParametersESaIS1_EE*, align 8
	%..inline.addr = alloca %struct._ZNSt12_Vector_baseIN8projects26DiffusionSpeciesParametersESaIS1_EE17_Vector_impl_dataE*, align 8

	call void @llvm.dbg.declare (metadata %struct._ZSt12_Vector_baseIN8projects26DiffusionSpeciesParametersESaIS1_EE** %_T20584024_53005.addr, metadata !6078, metadata !3992), !dbg !6063
	store %struct._ZSt12_Vector_baseIN8projects26DiffusionSpeciesParametersESaIS1_EE* %_T20584024_53005.arg, %struct._ZSt12_Vector_baseIN8projects26DiffusionSpeciesParametersESaIS1_EE** %_T20584024_53005.addr, align 8, !tbaa !4000
	call void @llvm.dbg.declare (metadata %struct._ZSt12_Vector_baseIN8projects26DiffusionSpeciesParametersESaIS1_EE** %_T20584024_53005.addr, metadata !6079, metadata !3992), !dbg !6063
	%0 = load %struct._ZSt12_Vector_baseIN8projects26DiffusionSpeciesParametersESaIS1_EE*, %struct._ZSt12_Vector_baseIN8projects26DiffusionSpeciesParametersESaIS1_EE** %_T20584024_53005.addr, align 8, !tbaa !4000, !dbg !6080
	%1 = bitcast %struct._ZSt12_Vector_baseIN8projects26DiffusionSpeciesParametersESaIS1_EE*  %0 to i8*, !dbg !6080
	%2 = bitcast %struct._ZNSt12_Vector_baseIN8projects26DiffusionSpeciesParametersESaIS1_EE17_Vector_impl_dataE** %..inline.addr to i8**, !dbg !6080
	store i8*  %1, i8**  %2, align 8, !tbaa !4000, !dbg !6080
	%3 = load %struct._ZNSt12_Vector_baseIN8projects26DiffusionSpeciesParametersESaIS1_EE17_Vector_impl_dataE*, %struct._ZNSt12_Vector_baseIN8projects26DiffusionSpeciesParametersESaIS1_EE17_Vector_impl_dataE** %..inline.addr, align 8, !tbaa !4000, !dbg !6080
	%4 = bitcast %struct._ZNSt12_Vector_baseIN8projects26DiffusionSpeciesParametersESaIS1_EE17_Vector_impl_dataE*  %3 to i8**, !dbg !6080
	store i8* null, i8**  %4, align 8, !tbaa !4000, !dbg !6080
	%5 = bitcast %struct._ZNSt12_Vector_baseIN8projects26DiffusionSpeciesParametersESaIS1_EE17_Vector_impl_dataE*  %3 to i8*, !dbg !6080
	%6 = getelementptr i8, i8*  %5, i64 8, !dbg !6080
	%7 = bitcast i8*  %6 to i8**, !dbg !6080
	store i8* null, i8**  %7, align 8, !tbaa !4000, !dbg !6080
	%8 = getelementptr i8, i8*  %5, i64 16, !dbg !6080
	%9 = bitcast i8*  %8 to i8**, !dbg !6080
	store i8* null, i8**  %9, align 8, !tbaa !4000, !dbg !6080
	ret void, !dbg !6080
}
define linkonce_odr void @_ZNSt12_Vector_baseIN8projects26DiffusionSpeciesParametersESaIS1_EEC2Ev(%struct._ZSt12_Vector_baseIN8projects26DiffusionSpeciesParametersESaIS1_EE* %_T20584024_53006.arg) #0 inlinehint !dbg !6082 {
L.entry:
	%_T20584024_53006.addr = alloca %struct._ZSt12_Vector_baseIN8projects26DiffusionSpeciesParametersESaIS1_EE*, align 8
	%..inline.addr = alloca %struct._ZNSt12_Vector_baseIN8projects26DiffusionSpeciesParametersESaIS1_EE17_Vector_impl_dataE*, align 8

	store %struct._ZSt12_Vector_baseIN8projects26DiffusionSpeciesParametersESaIS1_EE* %_T20584024_53006.arg, %struct._ZSt12_Vector_baseIN8projects26DiffusionSpeciesParametersESaIS1_EE** %_T20584024_53006.addr, align 8, !tbaa !4000
	%0 = load %struct._ZSt12_Vector_baseIN8projects26DiffusionSpeciesParametersESaIS1_EE*, %struct._ZSt12_Vector_baseIN8projects26DiffusionSpeciesParametersESaIS1_EE** %_T20584024_53006.addr, align 8, !tbaa !4000, !dbg !6102
	%1 = bitcast %struct._ZSt12_Vector_baseIN8projects26DiffusionSpeciesParametersESaIS1_EE*  %0 to i8*, !dbg !6102
	%2 = bitcast %struct._ZNSt12_Vector_baseIN8projects26DiffusionSpeciesParametersESaIS1_EE17_Vector_impl_dataE** %..inline.addr to i8**, !dbg !6102
	store i8*  %1, i8**  %2, align 8, !tbaa !4000, !dbg !6102
	%3 = load %struct._ZNSt12_Vector_baseIN8projects26DiffusionSpeciesParametersESaIS1_EE17_Vector_impl_dataE*, %struct._ZNSt12_Vector_baseIN8projects26DiffusionSpeciesParametersESaIS1_EE17_Vector_impl_dataE** %..inline.addr, align 8, !tbaa !4000, !dbg !6102
	%4 = bitcast %struct._ZNSt12_Vector_baseIN8projects26DiffusionSpeciesParametersESaIS1_EE17_Vector_impl_dataE*  %3 to i8**, !dbg !6102
	store i8* null, i8**  %4, align 8, !tbaa !4000, !dbg !6102
	%5 = bitcast %struct._ZNSt12_Vector_baseIN8projects26DiffusionSpeciesParametersESaIS1_EE17_Vector_impl_dataE*  %3 to i8*, !dbg !6102
	%6 = getelementptr i8, i8*  %5, i64 8, !dbg !6102
	%7 = bitcast i8*  %6 to i8**, !dbg !6102
	store i8* null, i8**  %7, align 8, !tbaa !4000, !dbg !6102
	%8 = getelementptr i8, i8*  %5, i64 16, !dbg !6102
	%9 = bitcast i8*  %8 to i8**, !dbg !6102
	store i8* null, i8**  %9, align 8, !tbaa !4000, !dbg !6102
	ret void, !dbg !6102
}
define linkonce_odr void @_ZNSt12_Vector_baseIN8projects26DiffusionSpeciesParametersESaIS1_EED1Ev(%struct._ZSt12_Vector_baseIN8projects26DiffusionSpeciesParametersESaIS1_EE* %_T20584024_53007.arg) #0 inlinehint !dbg !6104 {
L.entry:
	%_T20584024_53007.addr = alloca %struct._ZSt12_Vector_baseIN8projects26DiffusionSpeciesParametersESaIS1_EE*, align 8
	%..inline.addr = alloca %struct._ZN8projects26DiffusionSpeciesParametersE*, align 8

	call void @llvm.dbg.declare (metadata %struct._ZSt12_Vector_baseIN8projects26DiffusionSpeciesParametersESaIS1_EE** %_T20584024_53007.addr, metadata !6132, metadata !3992), !dbg !6105
	store %struct._ZSt12_Vector_baseIN8projects26DiffusionSpeciesParametersESaIS1_EE* %_T20584024_53007.arg, %struct._ZSt12_Vector_baseIN8projects26DiffusionSpeciesParametersESaIS1_EE** %_T20584024_53007.addr, align 8, !tbaa !4000
	call void @llvm.dbg.declare (metadata %struct._ZSt12_Vector_baseIN8projects26DiffusionSpeciesParametersESaIS1_EE** %_T20584024_53007.addr, metadata !6133, metadata !3992), !dbg !6105
	%0 = load %struct._ZSt12_Vector_baseIN8projects26DiffusionSpeciesParametersESaIS1_EE*, %struct._ZSt12_Vector_baseIN8projects26DiffusionSpeciesParametersESaIS1_EE** %_T20584024_53007.addr, align 8, !tbaa !4000, !dbg !6134
	%1 = bitcast %struct._ZSt12_Vector_baseIN8projects26DiffusionSpeciesParametersESaIS1_EE*  %0 to i8**, !dbg !6134
	%2 = load i8*, i8**  %1, align 8, !tbaa !4000, !dbg !6134
	%3 = icmp eq i8*  %2,  null, !dbg !6134
	br i1  %3, label %L..inline.72074, label %L.B1379, !dbg !6134
L.B1379:
	%4 = bitcast %struct._ZSt12_Vector_baseIN8projects26DiffusionSpeciesParametersESaIS1_EE*  %0 to i8**, !dbg !6135
	%5 = load i8*, i8**  %4, align 8, !tbaa !4000, !dbg !6135
	%6 = bitcast %struct._ZN8projects26DiffusionSpeciesParametersE** %..inline.addr to i8**, !dbg !6135
	store i8*  %5, i8**  %6, align 8, !tbaa !4000, !dbg !6135
	%7 = load %struct._ZN8projects26DiffusionSpeciesParametersE*, %struct._ZN8projects26DiffusionSpeciesParametersE** %..inline.addr, align 8, !tbaa !4000, !dbg !6135
	%8 = bitcast %struct._ZN8projects26DiffusionSpeciesParametersE*  %7 to i8*, !dbg !6135
	call void  @_ZdlPv (i8*  %8) nounwind, !dbg !6135
	br label %L..inline.72074
L..inline.72074:
	ret void, !dbg !6136
}
define linkonce_odr void @_ZNSt12_Vector_baseIN8projects26DiffusionSpeciesParametersESaIS1_EED2Ev(%struct._ZSt12_Vector_baseIN8projects26DiffusionSpeciesParametersESaIS1_EE* %_T20584024_53008.arg) #0 inlinehint !dbg !6138 {
L.entry:
	%_T20584024_53008.addr = alloca %struct._ZSt12_Vector_baseIN8projects26DiffusionSpeciesParametersESaIS1_EE*, align 8
	%..inline.addr = alloca %struct._ZSt12_Vector_baseIN8projects26DiffusionSpeciesParametersESaIS1_EE*, align 8
	%..inline.addr.1 = alloca %struct._ZN8projects26DiffusionSpeciesParametersE*, align 8

	store %struct._ZSt12_Vector_baseIN8projects26DiffusionSpeciesParametersESaIS1_EE* %_T20584024_53008.arg, %struct._ZSt12_Vector_baseIN8projects26DiffusionSpeciesParametersESaIS1_EE** %_T20584024_53008.addr, align 8, !tbaa !4000
	%0 = load %struct._ZSt12_Vector_baseIN8projects26DiffusionSpeciesParametersESaIS1_EE*, %struct._ZSt12_Vector_baseIN8projects26DiffusionSpeciesParametersESaIS1_EE** %_T20584024_53008.addr, align 8, !tbaa !4000, !dbg !6170
	%1 = bitcast %struct._ZSt12_Vector_baseIN8projects26DiffusionSpeciesParametersESaIS1_EE*  %0 to i8*, !dbg !6170
	%2 = bitcast %struct._ZSt12_Vector_baseIN8projects26DiffusionSpeciesParametersESaIS1_EE** %..inline.addr to i8**, !dbg !6170
	store i8*  %1, i8**  %2, align 8, !tbaa !4000, !dbg !6170
	%3 = load %struct._ZSt12_Vector_baseIN8projects26DiffusionSpeciesParametersESaIS1_EE*, %struct._ZSt12_Vector_baseIN8projects26DiffusionSpeciesParametersESaIS1_EE** %..inline.addr, align 8, !tbaa !4000, !dbg !6170
	%4 = bitcast %struct._ZSt12_Vector_baseIN8projects26DiffusionSpeciesParametersESaIS1_EE*  %3 to i8**, !dbg !6170
	%5 = load i8*, i8**  %4, align 8, !tbaa !4000, !dbg !6170
	%6 = icmp eq i8*  %5,  null, !dbg !6170
	br i1  %6, label %L..inline.72133, label %L.B1382, !dbg !6170
L.B1382:
	%7 = bitcast %struct._ZSt12_Vector_baseIN8projects26DiffusionSpeciesParametersESaIS1_EE*  %3 to i8**, !dbg !6170
	%8 = load i8*, i8**  %7, align 8, !tbaa !4000, !dbg !6170
	%9 = bitcast %struct._ZN8projects26DiffusionSpeciesParametersE** %..inline.addr.1 to i8**, !dbg !6170
	store i8*  %8, i8**  %9, align 8, !tbaa !4000, !dbg !6170
	%10 = load %struct._ZN8projects26DiffusionSpeciesParametersE*, %struct._ZN8projects26DiffusionSpeciesParametersE** %..inline.addr.1, align 8, !tbaa !4000, !dbg !6170
	%11 = bitcast %struct._ZN8projects26DiffusionSpeciesParametersE*  %10 to i8*, !dbg !6170
	call void  @_ZdlPv (i8*  %11) nounwind, !dbg !6170
	br label %L..inline.72133
L..inline.72133:
	ret void, !dbg !6171
}
define linkonce_odr %struct._ZN8projects26DiffusionSpeciesParametersE* @_ZNSt12_Vector_baseIN8projects26DiffusionSpeciesParametersESaIS1_EE11_M_allocateEm(%struct._ZSt12_Vector_baseIN8projects26DiffusionSpeciesParametersESaIS1_EE* %_T20584024_53011.arg, i64 %__n.arg) #0 inlinehint !dbg !6175 {
L.entry:
	%_T20584024_53011.addr = alloca %struct._ZSt12_Vector_baseIN8projects26DiffusionSpeciesParametersESaIS1_EE*, align 8
	%__n.addr = alloca i64, align 8
	%..inline.addr = alloca i64, align 8
	%.Q0011.addr = alloca i8*, align 8
	%.I0003.addr = alloca %struct._ZN8projects26DiffusionSpeciesParametersE*, align 8

	call void @llvm.dbg.declare (metadata %struct._ZSt12_Vector_baseIN8projects26DiffusionSpeciesParametersESaIS1_EE** %_T20584024_53011.addr, metadata !6191, metadata !3992), !dbg !6176
	store %struct._ZSt12_Vector_baseIN8projects26DiffusionSpeciesParametersESaIS1_EE* %_T20584024_53011.arg, %struct._ZSt12_Vector_baseIN8projects26DiffusionSpeciesParametersESaIS1_EE** %_T20584024_53011.addr, align 8, !tbaa !4000
	call void @llvm.dbg.declare (metadata %struct._ZSt12_Vector_baseIN8projects26DiffusionSpeciesParametersESaIS1_EE** %_T20584024_53011.addr, metadata !6192, metadata !3992), !dbg !6176
	call void @llvm.dbg.declare (metadata i64* %__n.addr, metadata !6193, metadata !3992), !dbg !6176
	store i64 %__n.arg, i64* %__n.addr, align 8, !tbaa !3999
	call void @llvm.dbg.declare (metadata i64* %__n.addr, metadata !6194, metadata !3992), !dbg !6176
	%0 = load i64, i64* %__n.addr, align 8, !tbaa !4427, !dbg !6195
	%1 = icmp eq i64  %0, 0, !dbg !6195
	br i1  %1, label %L.B0009, label %L.B1385, !dbg !6195
L.B1385:
	store i64  %0, i64* %..inline.addr, align 8, !tbaa !4427, !dbg !6196
	%2 = icmp ule i64  %0, 461168601842738790, !dbg !6196
	br i1  %2, label %L..inline.72199, label %L.B1386, !dbg !6196
L.B1386:
	call void  @_ZSt17__throw_bad_allocv () noreturn, !dbg !6196
	br label %L..inline.72199
L..inline.72199:
	%3 = load i64, i64* %..inline.addr, align 8, !tbaa !4427, !dbg !6196
	%4 = mul i64  %3, 40, !dbg !6196
	%5 = call i8*  @_Znwm (i64  %4), !dbg !6196
	store i8*  %5, i8** %.Q0011.addr, align 8, !tbaa !4000, !dbg !6196
	%6 = bitcast %struct._ZN8projects26DiffusionSpeciesParametersE** %.I0003.addr to i8**, !dbg !6196
	store i8*  %5, i8**  %6, align 8, !tbaa !4000, !dbg !6196
	br label %L.B0010, !dbg !6195
L.B0009:
	%7 = bitcast %struct._ZN8projects26DiffusionSpeciesParametersE** %.I0003.addr to i8**, !dbg !6195
	store i8* null, i8**  %7, align 8, !tbaa !4000, !dbg !6195
	br label %L.B0010
L.B0010:
	%8 = load %struct._ZN8projects26DiffusionSpeciesParametersE*, %struct._ZN8projects26DiffusionSpeciesParametersE** %.I0003.addr, align 8, !tbaa !4000, !dbg !6195
	ret %struct._ZN8projects26DiffusionSpeciesParametersE*  %8, !dbg !6195
}
define linkonce_odr void @_ZNSt12_Vector_baseIN8projects26DiffusionSpeciesParametersESaIS1_EE13_M_deallocateEPS1_m(%struct._ZSt12_Vector_baseIN8projects26DiffusionSpeciesParametersESaIS1_EE* %_T20584024_53014.arg, %struct._ZN8projects26DiffusionSpeciesParametersE* %__p.arg, i64 %__n.arg) #0 inlinehint !dbg !6201 {
L.entry:
	%_T20584024_53014.addr = alloca %struct._ZSt12_Vector_baseIN8projects26DiffusionSpeciesParametersESaIS1_EE*, align 8
	%__p.addr = alloca %struct._ZN8projects26DiffusionSpeciesParametersE*, align 8
	%__n.addr = alloca i64, align 8
	%..inline.addr = alloca %struct._ZN8projects26DiffusionSpeciesParametersE*, align 8

	call void @llvm.dbg.declare (metadata %struct._ZSt12_Vector_baseIN8projects26DiffusionSpeciesParametersESaIS1_EE** %_T20584024_53014.addr, metadata !6213, metadata !3992), !dbg !6202
	store %struct._ZSt12_Vector_baseIN8projects26DiffusionSpeciesParametersESaIS1_EE* %_T20584024_53014.arg, %struct._ZSt12_Vector_baseIN8projects26DiffusionSpeciesParametersESaIS1_EE** %_T20584024_53014.addr, align 8, !tbaa !4000
	call void @llvm.dbg.declare (metadata %struct._ZSt12_Vector_baseIN8projects26DiffusionSpeciesParametersESaIS1_EE** %_T20584024_53014.addr, metadata !6214, metadata !3992), !dbg !6202
	call void @llvm.dbg.declare (metadata %struct._ZN8projects26DiffusionSpeciesParametersE** %__p.addr, metadata !6215, metadata !3992), !dbg !6202
	store %struct._ZN8projects26DiffusionSpeciesParametersE* %__p.arg, %struct._ZN8projects26DiffusionSpeciesParametersE** %__p.addr, align 8, !tbaa !4000
	call void @llvm.dbg.declare (metadata %struct._ZN8projects26DiffusionSpeciesParametersE** %__p.addr, metadata !6216, metadata !3992), !dbg !6202
	call void @llvm.dbg.declare (metadata i64* %__n.addr, metadata !6217, metadata !3992), !dbg !6202
	store i64 %__n.arg, i64* %__n.addr, align 8, !tbaa !3999
	call void @llvm.dbg.declare (metadata i64* %__n.addr, metadata !6218, metadata !3992), !dbg !6202
	%0 = load %struct._ZN8projects26DiffusionSpeciesParametersE*, %struct._ZN8projects26DiffusionSpeciesParametersE** %__p.addr, align 8, !tbaa !4000, !dbg !6219
	%1 = bitcast %struct._ZN8projects26DiffusionSpeciesParametersE*  %0 to i8*, !dbg !6219
	%2 = icmp eq i8*  %1,  null, !dbg !6219
	br i1  %2, label %L.B0011, label %L.B1389, !dbg !6219
L.B1389:
	%3 = bitcast %struct._ZN8projects26DiffusionSpeciesParametersE*  %0 to i8*, !dbg !6220
	%4 = bitcast %struct._ZN8projects26DiffusionSpeciesParametersE** %..inline.addr to i8**, !dbg !6220
	store i8*  %3, i8**  %4, align 8, !tbaa !4000, !dbg !6220
	%5 = load %struct._ZN8projects26DiffusionSpeciesParametersE*, %struct._ZN8projects26DiffusionSpeciesParametersE** %..inline.addr, align 8, !tbaa !4000, !dbg !6220
	%6 = bitcast %struct._ZN8projects26DiffusionSpeciesParametersE*  %5 to i8*, !dbg !6220
	call void  @_ZdlPv (i8*  %6) nounwind, !dbg !6220
	br label %L.B0011
L.B0011:
	ret void, !dbg !6221
}
define linkonce_odr void @_ZNSt12_Vector_baseIN8projects26DiffusionSpeciesParametersESaIS1_EE17_Vector_impl_dataC1Ev(%struct._ZNSt12_Vector_baseIN8projects26DiffusionSpeciesParametersESaIS1_EE17_Vector_impl_dataE* %_T20584024_53015.arg) #0 inlinehint !dbg !6226 {
L.entry:
	%_T20584024_53015.addr = alloca %struct._ZNSt12_Vector_baseIN8projects26DiffusionSpeciesParametersESaIS1_EE17_Vector_impl_dataE*, align 8

	call void @llvm.dbg.declare (metadata %struct._ZNSt12_Vector_baseIN8projects26DiffusionSpeciesParametersESaIS1_EE17_Vector_impl_dataE** %_T20584024_53015.addr, metadata !6230, metadata !3992), !dbg !6227
	store %struct._ZNSt12_Vector_baseIN8projects26DiffusionSpeciesParametersESaIS1_EE17_Vector_impl_dataE* %_T20584024_53015.arg, %struct._ZNSt12_Vector_baseIN8projects26DiffusionSpeciesParametersESaIS1_EE17_Vector_impl_dataE** %_T20584024_53015.addr, align 8, !tbaa !4000
	call void @llvm.dbg.declare (metadata %struct._ZNSt12_Vector_baseIN8projects26DiffusionSpeciesParametersESaIS1_EE17_Vector_impl_dataE** %_T20584024_53015.addr, metadata !6231, metadata !3992), !dbg !6227
	%0 = load %struct._ZNSt12_Vector_baseIN8projects26DiffusionSpeciesParametersESaIS1_EE17_Vector_impl_dataE*, %struct._ZNSt12_Vector_baseIN8projects26DiffusionSpeciesParametersESaIS1_EE17_Vector_impl_dataE** %_T20584024_53015.addr, align 8, !tbaa !4000, !dbg !6232
	%1 = bitcast %struct._ZNSt12_Vector_baseIN8projects26DiffusionSpeciesParametersESaIS1_EE17_Vector_impl_dataE*  %0 to i8**, !dbg !6232
	store i8* null, i8**  %1, align 8, !tbaa !4000, !dbg !6232
	%2 = bitcast %struct._ZNSt12_Vector_baseIN8projects26DiffusionSpeciesParametersESaIS1_EE17_Vector_impl_dataE*  %0 to i8*, !dbg !6232
	%3 = getelementptr i8, i8*  %2, i64 8, !dbg !6232
	%4 = bitcast i8*  %3 to i8**, !dbg !6232
	store i8* null, i8**  %4, align 8, !tbaa !4000, !dbg !6232
	%5 = getelementptr i8, i8*  %2, i64 16, !dbg !6232
	%6 = bitcast i8*  %5 to i8**, !dbg !6232
	store i8* null, i8**  %6, align 8, !tbaa !4000, !dbg !6232
	ret void, !dbg !6232
}
define linkonce_odr void @_ZNSt12_Vector_baseIN8projects26DiffusionSpeciesParametersESaIS1_EE17_Vector_impl_dataC2Ev(%struct._ZNSt12_Vector_baseIN8projects26DiffusionSpeciesParametersESaIS1_EE17_Vector_impl_dataE* %_T20584024_53016.arg) #0 inlinehint !dbg !6234 {
L.entry:
	%_T20584024_53016.addr = alloca %struct._ZNSt12_Vector_baseIN8projects26DiffusionSpeciesParametersESaIS1_EE17_Vector_impl_dataE*, align 8
	%..inline.addr = alloca %struct._ZNSt12_Vector_baseIN8projects26DiffusionSpeciesParametersESaIS1_EE17_Vector_impl_dataE*, align 8

	store %struct._ZNSt12_Vector_baseIN8projects26DiffusionSpeciesParametersESaIS1_EE17_Vector_impl_dataE* %_T20584024_53016.arg, %struct._ZNSt12_Vector_baseIN8projects26DiffusionSpeciesParametersESaIS1_EE17_Vector_impl_dataE** %_T20584024_53016.addr, align 8, !tbaa !4000
	%0 = load %struct._ZNSt12_Vector_baseIN8projects26DiffusionSpeciesParametersESaIS1_EE17_Vector_impl_dataE*, %struct._ZNSt12_Vector_baseIN8projects26DiffusionSpeciesParametersESaIS1_EE17_Vector_impl_dataE** %_T20584024_53016.addr, align 8, !tbaa !4000, !dbg !6242
	%1 = bitcast %struct._ZNSt12_Vector_baseIN8projects26DiffusionSpeciesParametersESaIS1_EE17_Vector_impl_dataE*  %0 to i8*, !dbg !6242
	%2 = bitcast %struct._ZNSt12_Vector_baseIN8projects26DiffusionSpeciesParametersESaIS1_EE17_Vector_impl_dataE** %..inline.addr to i8**, !dbg !6242
	store i8*  %1, i8**  %2, align 8, !tbaa !4000, !dbg !6242
	%3 = load %struct._ZNSt12_Vector_baseIN8projects26DiffusionSpeciesParametersESaIS1_EE17_Vector_impl_dataE*, %struct._ZNSt12_Vector_baseIN8projects26DiffusionSpeciesParametersESaIS1_EE17_Vector_impl_dataE** %..inline.addr, align 8, !tbaa !4000, !dbg !6242
	%4 = bitcast %struct._ZNSt12_Vector_baseIN8projects26DiffusionSpeciesParametersESaIS1_EE17_Vector_impl_dataE*  %3 to i8**, !dbg !6242
	store i8* null, i8**  %4, align 8, !tbaa !4000, !dbg !6242
	%5 = bitcast %struct._ZNSt12_Vector_baseIN8projects26DiffusionSpeciesParametersESaIS1_EE17_Vector_impl_dataE*  %3 to i8*, !dbg !6242
	%6 = getelementptr i8, i8*  %5, i64 8, !dbg !6242
	%7 = bitcast i8*  %6 to i8**, !dbg !6242
	store i8* null, i8**  %7, align 8, !tbaa !4000, !dbg !6242
	%8 = getelementptr i8, i8*  %5, i64 16, !dbg !6242
	%9 = bitcast i8*  %8 to i8**, !dbg !6242
	store i8* null, i8**  %9, align 8, !tbaa !4000, !dbg !6242
	ret void, !dbg !6242
}
define linkonce_odr void @_ZNSt12_Vector_baseIN8projects26DiffusionSpeciesParametersESaIS1_EE12_Vector_implC1Ev(%struct._ZNSt12_Vector_baseIN8projects26DiffusionSpeciesParametersESaIS1_EE12_Vector_implE* %_T20584024_53017.arg) #0 inlinehint !dbg !6247 {
L.entry:
	%_T20584024_53017.addr = alloca %struct._ZNSt12_Vector_baseIN8projects26DiffusionSpeciesParametersESaIS1_EE12_Vector_implE*, align 8
	%..inline.addr = alloca %struct._ZNSt12_Vector_baseIN8projects26DiffusionSpeciesParametersESaIS1_EE17_Vector_impl_dataE*, align 8

	call void @llvm.dbg.declare (metadata %struct._ZNSt12_Vector_baseIN8projects26DiffusionSpeciesParametersESaIS1_EE12_Vector_implE** %_T20584024_53017.addr, metadata !6259, metadata !3992), !dbg !6248
	store %struct._ZNSt12_Vector_baseIN8projects26DiffusionSpeciesParametersESaIS1_EE12_Vector_implE* %_T20584024_53017.arg, %struct._ZNSt12_Vector_baseIN8projects26DiffusionSpeciesParametersESaIS1_EE12_Vector_implE** %_T20584024_53017.addr, align 8, !tbaa !4000
	call void @llvm.dbg.declare (metadata %struct._ZNSt12_Vector_baseIN8projects26DiffusionSpeciesParametersESaIS1_EE12_Vector_implE** %_T20584024_53017.addr, metadata !6260, metadata !3992), !dbg !6248
	%0 = load %struct._ZNSt12_Vector_baseIN8projects26DiffusionSpeciesParametersESaIS1_EE12_Vector_implE*, %struct._ZNSt12_Vector_baseIN8projects26DiffusionSpeciesParametersESaIS1_EE12_Vector_implE** %_T20584024_53017.addr, align 8, !tbaa !4000, !dbg !6261
	%1 = bitcast %struct._ZNSt12_Vector_baseIN8projects26DiffusionSpeciesParametersESaIS1_EE12_Vector_implE*  %0 to i8*, !dbg !6261
	%2 = bitcast %struct._ZNSt12_Vector_baseIN8projects26DiffusionSpeciesParametersESaIS1_EE17_Vector_impl_dataE** %..inline.addr to i8**, !dbg !6261
	store i8*  %1, i8**  %2, align 8, !tbaa !4000, !dbg !6261
	%3 = load %struct._ZNSt12_Vector_baseIN8projects26DiffusionSpeciesParametersESaIS1_EE17_Vector_impl_dataE*, %struct._ZNSt12_Vector_baseIN8projects26DiffusionSpeciesParametersESaIS1_EE17_Vector_impl_dataE** %..inline.addr, align 8, !tbaa !4000, !dbg !6261
	%4 = bitcast %struct._ZNSt12_Vector_baseIN8projects26DiffusionSpeciesParametersESaIS1_EE17_Vector_impl_dataE*  %3 to i8**, !dbg !6261
	store i8* null, i8**  %4, align 8, !tbaa !4000, !dbg !6261
	%5 = bitcast %struct._ZNSt12_Vector_baseIN8projects26DiffusionSpeciesParametersESaIS1_EE17_Vector_impl_dataE*  %3 to i8*, !dbg !6262
	%6 = getelementptr i8, i8*  %5, i64 8, !dbg !6262
	%7 = bitcast i8*  %6 to i8**, !dbg !6262
	store i8* null, i8**  %7, align 8, !tbaa !4000, !dbg !6262
	%8 = getelementptr i8, i8*  %5, i64 16, !dbg !6262
	%9 = bitcast i8*  %8 to i8**, !dbg !6262
	store i8* null, i8**  %9, align 8, !tbaa !4000, !dbg !6262
	ret void, !dbg !6261
}
define linkonce_odr void @_ZNSt12_Vector_baseIN8projects26DiffusionSpeciesParametersESaIS1_EE12_Vector_implC2Ev(%struct._ZNSt12_Vector_baseIN8projects26DiffusionSpeciesParametersESaIS1_EE12_Vector_implE* %_T20584024_53018.arg) #0 inlinehint !dbg !6264 {
L.entry:
	%_T20584024_53018.addr = alloca %struct._ZNSt12_Vector_baseIN8projects26DiffusionSpeciesParametersESaIS1_EE12_Vector_implE*, align 8
	%..inline.addr = alloca %struct._ZNSt12_Vector_baseIN8projects26DiffusionSpeciesParametersESaIS1_EE17_Vector_impl_dataE*, align 8

	store %struct._ZNSt12_Vector_baseIN8projects26DiffusionSpeciesParametersESaIS1_EE12_Vector_implE* %_T20584024_53018.arg, %struct._ZNSt12_Vector_baseIN8projects26DiffusionSpeciesParametersESaIS1_EE12_Vector_implE** %_T20584024_53018.addr, align 8, !tbaa !4000
	%0 = load %struct._ZNSt12_Vector_baseIN8projects26DiffusionSpeciesParametersESaIS1_EE12_Vector_implE*, %struct._ZNSt12_Vector_baseIN8projects26DiffusionSpeciesParametersESaIS1_EE12_Vector_implE** %_T20584024_53018.addr, align 8, !tbaa !4000, !dbg !6280
	%1 = bitcast %struct._ZNSt12_Vector_baseIN8projects26DiffusionSpeciesParametersESaIS1_EE12_Vector_implE*  %0 to i8*, !dbg !6280
	%2 = bitcast %struct._ZNSt12_Vector_baseIN8projects26DiffusionSpeciesParametersESaIS1_EE17_Vector_impl_dataE** %..inline.addr to i8**, !dbg !6280
	store i8*  %1, i8**  %2, align 8, !tbaa !4000, !dbg !6280
	%3 = load %struct._ZNSt12_Vector_baseIN8projects26DiffusionSpeciesParametersESaIS1_EE17_Vector_impl_dataE*, %struct._ZNSt12_Vector_baseIN8projects26DiffusionSpeciesParametersESaIS1_EE17_Vector_impl_dataE** %..inline.addr, align 8, !tbaa !4000, !dbg !6280
	%4 = bitcast %struct._ZNSt12_Vector_baseIN8projects26DiffusionSpeciesParametersESaIS1_EE17_Vector_impl_dataE*  %3 to i8**, !dbg !6280
	store i8* null, i8**  %4, align 8, !tbaa !4000, !dbg !6280
	%5 = bitcast %struct._ZNSt12_Vector_baseIN8projects26DiffusionSpeciesParametersESaIS1_EE17_Vector_impl_dataE*  %3 to i8*, !dbg !6280
	%6 = getelementptr i8, i8*  %5, i64 8, !dbg !6280
	%7 = bitcast i8*  %6 to i8**, !dbg !6280
	store i8* null, i8**  %7, align 8, !tbaa !4000, !dbg !6280
	%8 = getelementptr i8, i8*  %5, i64 16, !dbg !6280
	%9 = bitcast i8*  %8 to i8**, !dbg !6280
	store i8* null, i8**  %9, align 8, !tbaa !4000, !dbg !6280
	ret void, !dbg !6280
}
define linkonce_odr void @_ZNSt12_Vector_baseIN8projects26DiffusionSpeciesParametersESaIS1_EE12_Vector_implD1Ev(%struct._ZNSt12_Vector_baseIN8projects26DiffusionSpeciesParametersESaIS1_EE12_Vector_implE* %_T20584024_53019.arg) #0 inlinehint !dbg !6282 {
L.entry:
	%_T20584024_53019.addr = alloca %struct._ZNSt12_Vector_baseIN8projects26DiffusionSpeciesParametersESaIS1_EE12_Vector_implE*, align 8

	call void @llvm.dbg.declare (metadata %struct._ZNSt12_Vector_baseIN8projects26DiffusionSpeciesParametersESaIS1_EE12_Vector_implE** %_T20584024_53019.addr, metadata !6294, metadata !3992), !dbg !6283
	store %struct._ZNSt12_Vector_baseIN8projects26DiffusionSpeciesParametersESaIS1_EE12_Vector_implE* %_T20584024_53019.arg, %struct._ZNSt12_Vector_baseIN8projects26DiffusionSpeciesParametersESaIS1_EE12_Vector_implE** %_T20584024_53019.addr, align 8, !tbaa !4000
	call void @llvm.dbg.declare (metadata %struct._ZNSt12_Vector_baseIN8projects26DiffusionSpeciesParametersESaIS1_EE12_Vector_implE** %_T20584024_53019.addr, metadata !6295, metadata !3992), !dbg !6283
	ret void, !dbg !6296
}
define linkonce_odr void @_ZNSt12_Vector_baseIN8projects26DiffusionSpeciesParametersESaIS1_EE12_Vector_implD2Ev(%struct._ZNSt12_Vector_baseIN8projects26DiffusionSpeciesParametersESaIS1_EE12_Vector_implE* %_T20584024_53020.arg) #0 inlinehint !dbg !6298 {
L.entry:
	%_T20584024_53020.addr = alloca %struct._ZNSt12_Vector_baseIN8projects26DiffusionSpeciesParametersESaIS1_EE12_Vector_implE*, align 8

	store %struct._ZNSt12_Vector_baseIN8projects26DiffusionSpeciesParametersESaIS1_EE12_Vector_implE* %_T20584024_53020.arg, %struct._ZNSt12_Vector_baseIN8projects26DiffusionSpeciesParametersESaIS1_EE12_Vector_implE** %_T20584024_53020.addr, align 8, !tbaa !4000
	ret void, !dbg !6314
}

%struct._ZSt17integral_constantIbLb1EE = type <{ [1 x i8]}> 

define linkonce_odr %struct._ZN8projects26DiffusionSpeciesParametersE* @_ZNSt6vectorIN8projects26DiffusionSpeciesParametersESaIS1_EE14_S_do_relocateEPS1_S4_S4_RS2_St17integral_constantIbLb1EE(%struct._ZN8projects26DiffusionSpeciesParametersE* %__first.arg, %struct._ZN8projects26DiffusionSpeciesParametersE* %__last.arg, %struct._ZN8projects26DiffusionSpeciesParametersE* %__result.arg, %struct._ZSaIN8projects26DiffusionSpeciesParametersEE* %__alloc.arg, i8 %_T20585208_53027.coerce) #0 inlinehint !dbg !6322 {
L.entry:
	%__first.addr = alloca %struct._ZN8projects26DiffusionSpeciesParametersE*, align 8
	%__last.addr = alloca %struct._ZN8projects26DiffusionSpeciesParametersE*, align 8
	%__result.addr = alloca %struct._ZN8projects26DiffusionSpeciesParametersE*, align 8
	%__alloc.addr = alloca %struct._ZSaIN8projects26DiffusionSpeciesParametersEE*, align 8
	%_T20585208_53027.addr = alloca %struct._ZSt17integral_constantIbLb1EE, align 1
	%..inline.addr = alloca %struct._ZN8projects26DiffusionSpeciesParametersE*, align 8
	%..inline.addr.1 = alloca %struct._ZN8projects26DiffusionSpeciesParametersE*, align 8
	%..inline.addr.2 = alloca i64, align 8

	call void @llvm.dbg.declare (metadata %struct._ZN8projects26DiffusionSpeciesParametersE** %__first.addr, metadata !6346, metadata !3992), !dbg !6323
	store %struct._ZN8projects26DiffusionSpeciesParametersE* %__first.arg, %struct._ZN8projects26DiffusionSpeciesParametersE** %__first.addr, align 8, !tbaa !4000
	call void @llvm.dbg.declare (metadata %struct._ZN8projects26DiffusionSpeciesParametersE** %__first.addr, metadata !6347, metadata !3992), !dbg !6323
	call void @llvm.dbg.declare (metadata %struct._ZN8projects26DiffusionSpeciesParametersE** %__last.addr, metadata !6348, metadata !3992), !dbg !6323
	store %struct._ZN8projects26DiffusionSpeciesParametersE* %__last.arg, %struct._ZN8projects26DiffusionSpeciesParametersE** %__last.addr, align 8, !tbaa !4000
	call void @llvm.dbg.declare (metadata %struct._ZN8projects26DiffusionSpeciesParametersE** %__last.addr, metadata !6349, metadata !3992), !dbg !6323
	call void @llvm.dbg.declare (metadata %struct._ZN8projects26DiffusionSpeciesParametersE** %__result.addr, metadata !6350, metadata !3992), !dbg !6323
	store %struct._ZN8projects26DiffusionSpeciesParametersE* %__result.arg, %struct._ZN8projects26DiffusionSpeciesParametersE** %__result.addr, align 8, !tbaa !4000
	call void @llvm.dbg.declare (metadata %struct._ZN8projects26DiffusionSpeciesParametersE** %__result.addr, metadata !6351, metadata !3992), !dbg !6323
	call void @llvm.dbg.declare (metadata %struct._ZSaIN8projects26DiffusionSpeciesParametersEE** %__alloc.addr, metadata !6352, metadata !3992), !dbg !6323
	store %struct._ZSaIN8projects26DiffusionSpeciesParametersEE* %__alloc.arg, %struct._ZSaIN8projects26DiffusionSpeciesParametersEE** %__alloc.addr, align 8, !tbaa !4000
	call void @llvm.dbg.declare (metadata %struct._ZSaIN8projects26DiffusionSpeciesParametersEE** %__alloc.addr, metadata !6353, metadata !3992), !dbg !6323
	call void @llvm.dbg.declare (metadata %struct._ZSt17integral_constantIbLb1EE* %_T20585208_53027.addr, metadata !6354, metadata !3992), !dbg !6323
	%0 = bitcast %struct._ZSt17integral_constantIbLb1EE* %_T20585208_53027.addr to i8*
	store i8 %_T20585208_53027.coerce, i8*  %0, align 1, !tbaa !3999
	call void @llvm.dbg.declare (metadata %struct._ZSt17integral_constantIbLb1EE* %_T20585208_53027.addr, metadata !6355, metadata !3992), !dbg !6323
	%1 = load %struct._ZN8projects26DiffusionSpeciesParametersE*, %struct._ZN8projects26DiffusionSpeciesParametersE** %__first.addr, align 8, !tbaa !4000, !dbg !6356
	%2 = bitcast %struct._ZN8projects26DiffusionSpeciesParametersE*  %1 to i8*, !dbg !6356
	%3 = bitcast %struct._ZN8projects26DiffusionSpeciesParametersE** %..inline.addr to i8**, !dbg !6356
	store i8*  %2, i8**  %3, align 8, !tbaa !4000, !dbg !6356
	%4 = load %struct._ZN8projects26DiffusionSpeciesParametersE*, %struct._ZN8projects26DiffusionSpeciesParametersE** %__result.addr, align 8, !tbaa !4000, !dbg !6356
	%5 = bitcast %struct._ZN8projects26DiffusionSpeciesParametersE*  %4 to i8*, !dbg !6356
	%6 = bitcast %struct._ZN8projects26DiffusionSpeciesParametersE** %..inline.addr.1 to i8**, !dbg !6356
	store i8*  %5, i8**  %6, align 8, !tbaa !4000, !dbg !6356
	%7 = load %struct._ZN8projects26DiffusionSpeciesParametersE*, %struct._ZN8projects26DiffusionSpeciesParametersE** %__last.addr, align 8, !tbaa !4000, !dbg !6356
	%8 = bitcast %struct._ZN8projects26DiffusionSpeciesParametersE*  %7 to i8*, !dbg !6356
	%9 = ptrtoint i8*  %2 to i64, !dbg !6356
	%10 = sub i64 0,  %9, !dbg !6356
	%11 = getelementptr i8, i8*  %8, i64  %10, !dbg !6356
	%12 = ptrtoint i8*  %11 to i64, !dbg !6356
	%13 = sext i64 7378697629483820647 to i128, !dbg !6356
	%14 = sext i64  %12 to i128, !dbg !6356
	%15 = mul i128  %13,  %14, !dbg !6356
	%16 = ashr i128  %15, 64, !dbg !6356
	%17 = trunc i128  %16 to i64, !dbg !6356
	%18 = sext i32 4 to i64, !dbg !6356
	%19 = ashr i64  %17,  %18, !dbg !6356
	%20 = sub i64 0,  %9, !dbg !6356
	%21 = getelementptr i8, i8*  %8, i64  %20, !dbg !6356
	%22 = ptrtoint i8*  %21 to i64, !dbg !6356
	%23 = sext i32 63 to i64, !dbg !6356
	%24 = ashr i64  %22,  %23, !dbg !6356
	%25 = sub i64  %19,  %24, !dbg !6356
	store i64  %25, i64* %..inline.addr.2, align 8, !tbaa !4427, !dbg !6356
	%26 = icmp sle i64  %25, 0, !dbg !6356
	br i1  %26, label %L..inline.72367, label %L.B1402, !dbg !6356
L.B1402:
	%27 = load %struct._ZN8projects26DiffusionSpeciesParametersE*, %struct._ZN8projects26DiffusionSpeciesParametersE** %..inline.addr.1, align 8, !tbaa !4000, !dbg !6356
	%28 = bitcast %struct._ZN8projects26DiffusionSpeciesParametersE*  %27 to i8*, !dbg !6356
	%29 = load %struct._ZN8projects26DiffusionSpeciesParametersE*, %struct._ZN8projects26DiffusionSpeciesParametersE** %..inline.addr, align 8, !tbaa !4000, !dbg !6356
	%30 = bitcast %struct._ZN8projects26DiffusionSpeciesParametersE*  %29 to i8*, !dbg !6356
	%31 = mul i64  %25, 40, !dbg !6356
	%32 = call i8*  @memmove (i8*  %28, i8*  %30, i64  %31) nounwind, !dbg !6356
	br label %L..inline.72367
L..inline.72367:
	%33 = load %struct._ZN8projects26DiffusionSpeciesParametersE*, %struct._ZN8projects26DiffusionSpeciesParametersE** %..inline.addr.1, align 8, !tbaa !4000, !dbg !6357
	%34 = bitcast %struct._ZN8projects26DiffusionSpeciesParametersE*  %33 to i8*, !dbg !6357
	%35 = load i64, i64* %..inline.addr.2, align 8, !tbaa !4427, !dbg !6357
	%36 = mul i64  %35, 40, !dbg !6357
	%37 = getelementptr i8, i8*  %34, i64  %36, !dbg !6357
	%38 = bitcast i8*  %37 to %struct._ZN8projects26DiffusionSpeciesParametersE*, !dbg !6357
	ret %struct._ZN8projects26DiffusionSpeciesParametersE*  %38, !dbg !6357
}
define linkonce_odr %struct._ZN8projects26DiffusionSpeciesParametersE* @_ZNSt6vectorIN8projects26DiffusionSpeciesParametersESaIS1_EE11_S_relocateEPS1_S4_S4_RS2_(%struct._ZN8projects26DiffusionSpeciesParametersE* %__first.arg, %struct._ZN8projects26DiffusionSpeciesParametersE* %__last.arg, %struct._ZN8projects26DiffusionSpeciesParametersE* %__result.arg, %struct._ZSaIN8projects26DiffusionSpeciesParametersEE* %__alloc.arg) #0 inlinehint !dbg !6362 {
L.entry:
	%__first.addr = alloca %struct._ZN8projects26DiffusionSpeciesParametersE*, align 8
	%__last.addr = alloca %struct._ZN8projects26DiffusionSpeciesParametersE*, align 8
	%__result.addr = alloca %struct._ZN8projects26DiffusionSpeciesParametersE*, align 8
	%__alloc.addr = alloca %struct._ZSaIN8projects26DiffusionSpeciesParametersEE*, align 8
	%.._T20585984_53032.__FILL_CHARARRAY.addr = alloca [1 x i8], align 1
	%..inline.addr = alloca %struct._ZN8projects26DiffusionSpeciesParametersE*, align 8
	%..inline.addr.1 = alloca %struct._ZN8projects26DiffusionSpeciesParametersE*, align 8
	%..inline.addr.2 = alloca %struct._ZN8projects26DiffusionSpeciesParametersE*, align 8
	%....inline.__FILL_CHARARRAY.addr = alloca [1 x i8], align 1
	%..inline.addr.3 = alloca %struct._ZN8projects26DiffusionSpeciesParametersE*, align 8
	%..inline.addr.4 = alloca %struct._ZN8projects26DiffusionSpeciesParametersE*, align 8
	%..inline.addr.5 = alloca i64, align 8

	call void @llvm.dbg.declare (metadata %struct._ZN8projects26DiffusionSpeciesParametersE** %__first.addr, metadata !6390, metadata !3992), !dbg !6363
	store %struct._ZN8projects26DiffusionSpeciesParametersE* %__first.arg, %struct._ZN8projects26DiffusionSpeciesParametersE** %__first.addr, align 8, !tbaa !4000
	call void @llvm.dbg.declare (metadata %struct._ZN8projects26DiffusionSpeciesParametersE** %__first.addr, metadata !6391, metadata !3992), !dbg !6363
	call void @llvm.dbg.declare (metadata %struct._ZN8projects26DiffusionSpeciesParametersE** %__last.addr, metadata !6392, metadata !3992), !dbg !6363
	store %struct._ZN8projects26DiffusionSpeciesParametersE* %__last.arg, %struct._ZN8projects26DiffusionSpeciesParametersE** %__last.addr, align 8, !tbaa !4000
	call void @llvm.dbg.declare (metadata %struct._ZN8projects26DiffusionSpeciesParametersE** %__last.addr, metadata !6393, metadata !3992), !dbg !6363
	call void @llvm.dbg.declare (metadata %struct._ZN8projects26DiffusionSpeciesParametersE** %__result.addr, metadata !6394, metadata !3992), !dbg !6363
	store %struct._ZN8projects26DiffusionSpeciesParametersE* %__result.arg, %struct._ZN8projects26DiffusionSpeciesParametersE** %__result.addr, align 8, !tbaa !4000
	call void @llvm.dbg.declare (metadata %struct._ZN8projects26DiffusionSpeciesParametersE** %__result.addr, metadata !6395, metadata !3992), !dbg !6363
	call void @llvm.dbg.declare (metadata %struct._ZSaIN8projects26DiffusionSpeciesParametersEE** %__alloc.addr, metadata !6396, metadata !3992), !dbg !6363
	store %struct._ZSaIN8projects26DiffusionSpeciesParametersEE* %__alloc.arg, %struct._ZSaIN8projects26DiffusionSpeciesParametersEE** %__alloc.addr, align 8, !tbaa !4000
	call void @llvm.dbg.declare (metadata %struct._ZSaIN8projects26DiffusionSpeciesParametersEE** %__alloc.addr, metadata !6397, metadata !3992), !dbg !6363
	call void @llvm.dbg.declare (metadata [1 x i8]* %.._T20585984_53032.__FILL_CHARARRAY.addr, metadata !6399, metadata !3992), !dbg !6365
	%0 = bitcast [1 x i8]* %.._T20585984_53032.__FILL_CHARARRAY.addr to i8*, !dbg !6398
	store i8 0, i8*  %0, align 1, !tbaa !3999, !dbg !6398
	%1 = load %struct._ZN8projects26DiffusionSpeciesParametersE*, %struct._ZN8projects26DiffusionSpeciesParametersE** %__first.addr, align 8, !tbaa !4000, !dbg !6398
	%2 = bitcast %struct._ZN8projects26DiffusionSpeciesParametersE*  %1 to i8*, !dbg !6398
	%3 = bitcast %struct._ZN8projects26DiffusionSpeciesParametersE** %..inline.addr to i8**, !dbg !6398
	store i8*  %2, i8**  %3, align 8, !tbaa !4000, !dbg !6398
	%4 = load %struct._ZN8projects26DiffusionSpeciesParametersE*, %struct._ZN8projects26DiffusionSpeciesParametersE** %__last.addr, align 8, !tbaa !4000, !dbg !6398
	%5 = bitcast %struct._ZN8projects26DiffusionSpeciesParametersE*  %4 to i8*, !dbg !6398
	%6 = bitcast %struct._ZN8projects26DiffusionSpeciesParametersE** %..inline.addr.1 to i8**, !dbg !6398
	store i8*  %5, i8**  %6, align 8, !tbaa !4000, !dbg !6398
	%7 = load %struct._ZN8projects26DiffusionSpeciesParametersE*, %struct._ZN8projects26DiffusionSpeciesParametersE** %__result.addr, align 8, !tbaa !4000, !dbg !6398
	%8 = bitcast %struct._ZN8projects26DiffusionSpeciesParametersE*  %7 to i8*, !dbg !6398
	%9 = bitcast %struct._ZN8projects26DiffusionSpeciesParametersE** %..inline.addr.2 to i8**, !dbg !6398
	store i8*  %8, i8**  %9, align 8, !tbaa !4000, !dbg !6398
	%10 = zext i8 0 to i32, !dbg !6400
	%11 = trunc i32  %10 to i8, !dbg !6400
	call void @llvm.dbg.declare (metadata [1 x i8]* %....inline.__FILL_CHARARRAY.addr, metadata !6401, metadata !3992), !dbg !6365
	%12 = bitcast [1 x i8]* %....inline.__FILL_CHARARRAY.addr to i8*, !dbg !6400
	store i8  %11, i8*  %12, align 1, !tbaa !3999, !dbg !6400
	%13 = load %struct._ZN8projects26DiffusionSpeciesParametersE*, %struct._ZN8projects26DiffusionSpeciesParametersE** %..inline.addr, align 8, !tbaa !4000, !dbg !6402
	%14 = bitcast %struct._ZN8projects26DiffusionSpeciesParametersE*  %13 to i8*, !dbg !6402
	%15 = bitcast %struct._ZN8projects26DiffusionSpeciesParametersE** %..inline.addr.3 to i8**, !dbg !6402
	store i8*  %14, i8**  %15, align 8, !tbaa !4000, !dbg !6402
	%16 = load %struct._ZN8projects26DiffusionSpeciesParametersE*, %struct._ZN8projects26DiffusionSpeciesParametersE** %..inline.addr.2, align 8, !tbaa !4000, !dbg !6402
	%17 = bitcast %struct._ZN8projects26DiffusionSpeciesParametersE*  %16 to i8*, !dbg !6402
	%18 = bitcast %struct._ZN8projects26DiffusionSpeciesParametersE** %..inline.addr.4 to i8**, !dbg !6402
	store i8*  %17, i8**  %18, align 8, !tbaa !4000, !dbg !6402
	%19 = load %struct._ZN8projects26DiffusionSpeciesParametersE*, %struct._ZN8projects26DiffusionSpeciesParametersE** %..inline.addr.1, align 8, !tbaa !4000, !dbg !6402
	%20 = bitcast %struct._ZN8projects26DiffusionSpeciesParametersE*  %19 to i8*, !dbg !6402
	%21 = ptrtoint i8*  %14 to i64, !dbg !6402
	%22 = sub i64 0,  %21, !dbg !6402
	%23 = getelementptr i8, i8*  %20, i64  %22, !dbg !6402
	%24 = ptrtoint i8*  %23 to i64, !dbg !6402
	%25 = sext i64 7378697629483820647 to i128, !dbg !6402
	%26 = sext i64  %24 to i128, !dbg !6402
	%27 = mul i128  %25,  %26, !dbg !6402
	%28 = ashr i128  %27, 64, !dbg !6402
	%29 = trunc i128  %28 to i64, !dbg !6402
	%30 = sext i32 4 to i64, !dbg !6402
	%31 = ashr i64  %29,  %30, !dbg !6402
	%32 = sub i64 0,  %21, !dbg !6402
	%33 = getelementptr i8, i8*  %20, i64  %32, !dbg !6402
	%34 = ptrtoint i8*  %33 to i64, !dbg !6402
	%35 = sext i32 63 to i64, !dbg !6402
	%36 = ashr i64  %34,  %35, !dbg !6402
	%37 = sub i64  %31,  %36, !dbg !6402
	store i64  %37, i64* %..inline.addr.5, align 8, !tbaa !4427, !dbg !6402
	%38 = icmp sle i64  %37, 0, !dbg !6402
	br i1  %38, label %L..inline.72443, label %L.B1405, !dbg !6402
L.B1405:
	%39 = load %struct._ZN8projects26DiffusionSpeciesParametersE*, %struct._ZN8projects26DiffusionSpeciesParametersE** %..inline.addr.4, align 8, !tbaa !4000, !dbg !6402
	%40 = bitcast %struct._ZN8projects26DiffusionSpeciesParametersE*  %39 to i8*, !dbg !6402
	%41 = load %struct._ZN8projects26DiffusionSpeciesParametersE*, %struct._ZN8projects26DiffusionSpeciesParametersE** %..inline.addr.3, align 8, !tbaa !4000, !dbg !6402
	%42 = bitcast %struct._ZN8projects26DiffusionSpeciesParametersE*  %41 to i8*, !dbg !6402
	%43 = mul i64  %37, 40, !dbg !6402
	%44 = call i8*  @memmove (i8*  %40, i8*  %42, i64  %43) nounwind, !dbg !6402
	br label %L..inline.72443
L..inline.72443:
	%45 = load %struct._ZN8projects26DiffusionSpeciesParametersE*, %struct._ZN8projects26DiffusionSpeciesParametersE** %..inline.addr.4, align 8, !tbaa !4000, !dbg !6398
	%46 = bitcast %struct._ZN8projects26DiffusionSpeciesParametersE*  %45 to i8*, !dbg !6398
	%47 = load i64, i64* %..inline.addr.5, align 8, !tbaa !4427, !dbg !6398
	%48 = mul i64  %47, 40, !dbg !6398
	%49 = getelementptr i8, i8*  %46, i64  %48, !dbg !6398
	%50 = bitcast i8*  %49 to %struct._ZN8projects26DiffusionSpeciesParametersE*, !dbg !6398
	ret %struct._ZN8projects26DiffusionSpeciesParametersE*  %50, !dbg !6398
}

%struct._ZSt6vectorIN8projects26DiffusionSpeciesParametersESaIS1_EE = type <{ %struct._ZSt12_Vector_baseIN8projects26DiffusionSpeciesParametersESaIS1_EE}> 

define linkonce_odr void @_ZNSt6vectorIN8projects26DiffusionSpeciesParametersESaIS1_EEC1Ev(%struct._ZSt6vectorIN8projects26DiffusionSpeciesParametersESaIS1_EE* %_T20584024_53033.arg) #0 inlinehint !dbg !6407 {
L.entry:
	%_T20584024_53033.addr = alloca %struct._ZSt6vectorIN8projects26DiffusionSpeciesParametersESaIS1_EE*, align 8
	%..inline.addr = alloca %struct._ZNSt12_Vector_baseIN8projects26DiffusionSpeciesParametersESaIS1_EE17_Vector_impl_dataE*, align 8

	call void @llvm.dbg.declare (metadata %struct._ZSt6vectorIN8projects26DiffusionSpeciesParametersESaIS1_EE** %_T20584024_53033.addr, metadata !6431, metadata !3992), !dbg !6408
	store %struct._ZSt6vectorIN8projects26DiffusionSpeciesParametersESaIS1_EE* %_T20584024_53033.arg, %struct._ZSt6vectorIN8projects26DiffusionSpeciesParametersESaIS1_EE** %_T20584024_53033.addr, align 8, !tbaa !4000
	call void @llvm.dbg.declare (metadata %struct._ZSt6vectorIN8projects26DiffusionSpeciesParametersESaIS1_EE** %_T20584024_53033.addr, metadata !6432, metadata !3992), !dbg !6408
	%0 = load %struct._ZSt6vectorIN8projects26DiffusionSpeciesParametersESaIS1_EE*, %struct._ZSt6vectorIN8projects26DiffusionSpeciesParametersESaIS1_EE** %_T20584024_53033.addr, align 8, !tbaa !4000, !dbg !6433
	%1 = bitcast %struct._ZSt6vectorIN8projects26DiffusionSpeciesParametersESaIS1_EE*  %0 to i8*, !dbg !6433
	%2 = bitcast %struct._ZNSt12_Vector_baseIN8projects26DiffusionSpeciesParametersESaIS1_EE17_Vector_impl_dataE** %..inline.addr to i8**, !dbg !6433
	store i8*  %1, i8**  %2, align 8, !tbaa !4000, !dbg !6433
	%3 = load %struct._ZNSt12_Vector_baseIN8projects26DiffusionSpeciesParametersESaIS1_EE17_Vector_impl_dataE*, %struct._ZNSt12_Vector_baseIN8projects26DiffusionSpeciesParametersESaIS1_EE17_Vector_impl_dataE** %..inline.addr, align 8, !tbaa !4000, !dbg !6433
	%4 = bitcast %struct._ZNSt12_Vector_baseIN8projects26DiffusionSpeciesParametersESaIS1_EE17_Vector_impl_dataE*  %3 to i8**, !dbg !6433
	store i8* null, i8**  %4, align 8, !tbaa !4000, !dbg !6433
	%5 = bitcast %struct._ZNSt12_Vector_baseIN8projects26DiffusionSpeciesParametersESaIS1_EE17_Vector_impl_dataE*  %3 to i8*, !dbg !6433
	%6 = getelementptr i8, i8*  %5, i64 8, !dbg !6433
	%7 = bitcast i8*  %6 to i8**, !dbg !6433
	store i8* null, i8**  %7, align 8, !tbaa !4000, !dbg !6433
	%8 = getelementptr i8, i8*  %5, i64 16, !dbg !6433
	%9 = bitcast i8*  %8 to i8**, !dbg !6433
	store i8* null, i8**  %9, align 8, !tbaa !4000, !dbg !6433
	ret void, !dbg !6433
}
define linkonce_odr void @_ZNSt6vectorIN8projects26DiffusionSpeciesParametersESaIS1_EEC2Ev(%struct._ZSt6vectorIN8projects26DiffusionSpeciesParametersESaIS1_EE* %_T20584024_53034.arg) #0 inlinehint !dbg !6435 {
L.entry:
	%_T20584024_53034.addr = alloca %struct._ZSt6vectorIN8projects26DiffusionSpeciesParametersESaIS1_EE*, align 8
	%..inline.addr = alloca %struct._ZNSt12_Vector_baseIN8projects26DiffusionSpeciesParametersESaIS1_EE17_Vector_impl_dataE*, align 8

	store %struct._ZSt6vectorIN8projects26DiffusionSpeciesParametersESaIS1_EE* %_T20584024_53034.arg, %struct._ZSt6vectorIN8projects26DiffusionSpeciesParametersESaIS1_EE** %_T20584024_53034.addr, align 8, !tbaa !4000
	%0 = load %struct._ZSt6vectorIN8projects26DiffusionSpeciesParametersESaIS1_EE*, %struct._ZSt6vectorIN8projects26DiffusionSpeciesParametersESaIS1_EE** %_T20584024_53034.addr, align 8, !tbaa !4000, !dbg !6463
	%1 = bitcast %struct._ZSt6vectorIN8projects26DiffusionSpeciesParametersESaIS1_EE*  %0 to i8*, !dbg !6463
	%2 = bitcast %struct._ZNSt12_Vector_baseIN8projects26DiffusionSpeciesParametersESaIS1_EE17_Vector_impl_dataE** %..inline.addr to i8**, !dbg !6463
	store i8*  %1, i8**  %2, align 8, !tbaa !4000, !dbg !6463
	%3 = load %struct._ZNSt12_Vector_baseIN8projects26DiffusionSpeciesParametersESaIS1_EE17_Vector_impl_dataE*, %struct._ZNSt12_Vector_baseIN8projects26DiffusionSpeciesParametersESaIS1_EE17_Vector_impl_dataE** %..inline.addr, align 8, !tbaa !4000, !dbg !6463
	%4 = bitcast %struct._ZNSt12_Vector_baseIN8projects26DiffusionSpeciesParametersESaIS1_EE17_Vector_impl_dataE*  %3 to i8**, !dbg !6463
	store i8* null, i8**  %4, align 8, !tbaa !4000, !dbg !6463
	%5 = bitcast %struct._ZNSt12_Vector_baseIN8projects26DiffusionSpeciesParametersESaIS1_EE17_Vector_impl_dataE*  %3 to i8*, !dbg !6463
	%6 = getelementptr i8, i8*  %5, i64 8, !dbg !6463
	%7 = bitcast i8*  %6 to i8**, !dbg !6463
	store i8* null, i8**  %7, align 8, !tbaa !4000, !dbg !6463
	%8 = getelementptr i8, i8*  %5, i64 16, !dbg !6463
	%9 = bitcast i8*  %8 to i8**, !dbg !6463
	store i8* null, i8**  %9, align 8, !tbaa !4000, !dbg !6463
	ret void, !dbg !6463
}
define linkonce_odr void @_ZNSt6vectorIN8projects26DiffusionSpeciesParametersESaIS1_EED1Ev(%struct._ZSt6vectorIN8projects26DiffusionSpeciesParametersESaIS1_EE* %_T20584024_53035.arg) #0 inlinehint !dbg !6465 {
L.entry:
	%_T20584024_53035.addr = alloca %struct._ZSt6vectorIN8projects26DiffusionSpeciesParametersESaIS1_EE*, align 8
	%..inline.addr = alloca %struct._ZSt12_Vector_baseIN8projects26DiffusionSpeciesParametersESaIS1_EE*, align 8
	%..inline.addr.1 = alloca %struct._ZN8projects26DiffusionSpeciesParametersE*, align 8

	call void @llvm.dbg.declare (metadata %struct._ZSt6vectorIN8projects26DiffusionSpeciesParametersESaIS1_EE** %_T20584024_53035.addr, metadata !6517, metadata !3992), !dbg !6466
	store %struct._ZSt6vectorIN8projects26DiffusionSpeciesParametersESaIS1_EE* %_T20584024_53035.arg, %struct._ZSt6vectorIN8projects26DiffusionSpeciesParametersESaIS1_EE** %_T20584024_53035.addr, align 8, !tbaa !4000
	call void @llvm.dbg.declare (metadata %struct._ZSt6vectorIN8projects26DiffusionSpeciesParametersESaIS1_EE** %_T20584024_53035.addr, metadata !6518, metadata !3992), !dbg !6466
	%0 = load %struct._ZSt6vectorIN8projects26DiffusionSpeciesParametersESaIS1_EE*, %struct._ZSt6vectorIN8projects26DiffusionSpeciesParametersESaIS1_EE** %_T20584024_53035.addr, align 8, !tbaa !4000, !dbg !6519
	%1 = bitcast %struct._ZSt6vectorIN8projects26DiffusionSpeciesParametersESaIS1_EE*  %0 to i8*, !dbg !6519
	%2 = bitcast %struct._ZSt12_Vector_baseIN8projects26DiffusionSpeciesParametersESaIS1_EE** %..inline.addr to i8**, !dbg !6519
	store i8*  %1, i8**  %2, align 8, !tbaa !4000, !dbg !6519
	%3 = load %struct._ZSt12_Vector_baseIN8projects26DiffusionSpeciesParametersESaIS1_EE*, %struct._ZSt12_Vector_baseIN8projects26DiffusionSpeciesParametersESaIS1_EE** %..inline.addr, align 8, !tbaa !4000, !dbg !6520
	%4 = bitcast %struct._ZSt12_Vector_baseIN8projects26DiffusionSpeciesParametersESaIS1_EE*  %3 to i8**, !dbg !6520
	%5 = load i8*, i8**  %4, align 8, !tbaa !4000, !dbg !6520
	%6 = icmp eq i8*  %5,  null, !dbg !6520
	br i1  %6, label %L..inline.72602, label %L.B1416, !dbg !6520
L.B1416:
	%7 = bitcast %struct._ZSt12_Vector_baseIN8projects26DiffusionSpeciesParametersESaIS1_EE*  %3 to i8**, !dbg !6520
	%8 = load i8*, i8**  %7, align 8, !tbaa !4000, !dbg !6520
	%9 = bitcast %struct._ZN8projects26DiffusionSpeciesParametersE** %..inline.addr.1 to i8**, !dbg !6520
	store i8*  %8, i8**  %9, align 8, !tbaa !4000, !dbg !6520
	%10 = load %struct._ZN8projects26DiffusionSpeciesParametersE*, %struct._ZN8projects26DiffusionSpeciesParametersE** %..inline.addr.1, align 8, !tbaa !4000, !dbg !6520
	%11 = bitcast %struct._ZN8projects26DiffusionSpeciesParametersE*  %10 to i8*, !dbg !6520
	call void  @_ZdlPv (i8*  %11) nounwind, !dbg !6520
	br label %L..inline.72602
L..inline.72602:
	ret void, !dbg !6519
}
define linkonce_odr void @_ZNSt6vectorIN8projects26DiffusionSpeciesParametersESaIS1_EED2Ev(%struct._ZSt6vectorIN8projects26DiffusionSpeciesParametersESaIS1_EE* %_T20584024_53036.arg) #0 inlinehint !dbg !6522 {
L.entry:
	%_T20584024_53036.addr = alloca %struct._ZSt6vectorIN8projects26DiffusionSpeciesParametersESaIS1_EE*, align 8
	%..inline.addr = alloca %struct._ZSt12_Vector_baseIN8projects26DiffusionSpeciesParametersESaIS1_EE*, align 8
	%..inline.addr.1 = alloca %struct._ZN8projects26DiffusionSpeciesParametersE*, align 8

	store %struct._ZSt6vectorIN8projects26DiffusionSpeciesParametersESaIS1_EE* %_T20584024_53036.arg, %struct._ZSt6vectorIN8projects26DiffusionSpeciesParametersESaIS1_EE** %_T20584024_53036.addr, align 8, !tbaa !4000
	%0 = load %struct._ZSt6vectorIN8projects26DiffusionSpeciesParametersESaIS1_EE*, %struct._ZSt6vectorIN8projects26DiffusionSpeciesParametersESaIS1_EE** %_T20584024_53036.addr, align 8, !tbaa !4000, !dbg !6578
	%1 = bitcast %struct._ZSt6vectorIN8projects26DiffusionSpeciesParametersESaIS1_EE*  %0 to i8*, !dbg !6578
	%2 = bitcast %struct._ZSt12_Vector_baseIN8projects26DiffusionSpeciesParametersESaIS1_EE** %..inline.addr to i8**, !dbg !6578
	store i8*  %1, i8**  %2, align 8, !tbaa !4000, !dbg !6578
	%3 = load %struct._ZSt12_Vector_baseIN8projects26DiffusionSpeciesParametersESaIS1_EE*, %struct._ZSt12_Vector_baseIN8projects26DiffusionSpeciesParametersESaIS1_EE** %..inline.addr, align 8, !tbaa !4000, !dbg !6578
	%4 = bitcast %struct._ZSt12_Vector_baseIN8projects26DiffusionSpeciesParametersESaIS1_EE*  %3 to i8**, !dbg !6578
	%5 = load i8*, i8**  %4, align 8, !tbaa !4000, !dbg !6578
	%6 = icmp eq i8*  %5,  null, !dbg !6578
	br i1  %6, label %L..inline.72706, label %L.B1419, !dbg !6578
L.B1419:
	%7 = bitcast %struct._ZSt12_Vector_baseIN8projects26DiffusionSpeciesParametersESaIS1_EE*  %3 to i8**, !dbg !6578
	%8 = load i8*, i8**  %7, align 8, !tbaa !4000, !dbg !6578
	%9 = bitcast %struct._ZN8projects26DiffusionSpeciesParametersE** %..inline.addr.1 to i8**, !dbg !6578
	store i8*  %8, i8**  %9, align 8, !tbaa !4000, !dbg !6578
	%10 = load %struct._ZN8projects26DiffusionSpeciesParametersE*, %struct._ZN8projects26DiffusionSpeciesParametersE** %..inline.addr.1, align 8, !tbaa !4000, !dbg !6578
	%11 = bitcast %struct._ZN8projects26DiffusionSpeciesParametersE*  %10 to i8*, !dbg !6578
	call void  @_ZdlPv (i8*  %11) nounwind, !dbg !6578
	br label %L..inline.72706
L..inline.72706:
	ret void, !dbg !6578
}

%struct._ZN9__gnu_cxx17__normal_iteratorIPN8projects26DiffusionSpeciesParametersESt6vectorIS2_SaIS2_EEEE = type <{ %struct._ZN8projects26DiffusionSpeciesParametersE*}> 

define linkonce_odr i64 @_ZNSt6vectorIN8projects26DiffusionSpeciesParametersESaIS1_EE5beginEv(%struct._ZSt6vectorIN8projects26DiffusionSpeciesParametersESaIS1_EE* %_T20584024_53038.arg) #0 inlinehint !dbg !6582 {
L.entry:
	%.X53038.addr = alloca %struct._ZN9__gnu_cxx17__normal_iteratorIPN8projects26DiffusionSpeciesParametersESt6vectorIS2_SaIS2_EEEE, align 8
	%_T20584024_53038.addr = alloca %struct._ZSt6vectorIN8projects26DiffusionSpeciesParametersESaIS1_EE*, align 8

	call void @llvm.dbg.declare (metadata %struct._ZSt6vectorIN8projects26DiffusionSpeciesParametersESaIS1_EE** %_T20584024_53038.addr, metadata !6590, metadata !3992), !dbg !6583
	store %struct._ZSt6vectorIN8projects26DiffusionSpeciesParametersESaIS1_EE* %_T20584024_53038.arg, %struct._ZSt6vectorIN8projects26DiffusionSpeciesParametersESaIS1_EE** %_T20584024_53038.addr, align 8, !tbaa !4000
	call void @llvm.dbg.declare (metadata %struct._ZSt6vectorIN8projects26DiffusionSpeciesParametersESaIS1_EE** %_T20584024_53038.addr, metadata !6591, metadata !3992), !dbg !6583
	%0 = load %struct._ZSt6vectorIN8projects26DiffusionSpeciesParametersESaIS1_EE*, %struct._ZSt6vectorIN8projects26DiffusionSpeciesParametersESaIS1_EE** %_T20584024_53038.addr, align 8, !tbaa !4000, !dbg !6592
	%1 = bitcast %struct._ZSt6vectorIN8projects26DiffusionSpeciesParametersESaIS1_EE*  %0 to i8**, !dbg !6592
	%2 = load i8*, i8**  %1, align 8, !tbaa !4000, !dbg !6592
	%3 = bitcast %struct._ZN9__gnu_cxx17__normal_iteratorIPN8projects26DiffusionSpeciesParametersESt6vectorIS2_SaIS2_EEEE* %.X53038.addr to i8**, !dbg !6592
	store i8*  %2, i8**  %3, align 8, !tbaa !4000, !dbg !6592
	%4 = bitcast %struct._ZN9__gnu_cxx17__normal_iteratorIPN8projects26DiffusionSpeciesParametersESt6vectorIS2_SaIS2_EEEE* %.X53038.addr to i64*, !dbg !6592
	%5 = load i64, i64*  %4, align 8, !tbaa !3999, !dbg !6592
	ret i64  %5, !dbg !6592
}
define linkonce_odr i64 @_ZNSt6vectorIN8projects26DiffusionSpeciesParametersESaIS1_EE3endEv(%struct._ZSt6vectorIN8projects26DiffusionSpeciesParametersESaIS1_EE* %_T20584024_53040.arg) #0 inlinehint !dbg !6594 {
L.entry:
	%.X53040.addr = alloca %struct._ZN9__gnu_cxx17__normal_iteratorIPN8projects26DiffusionSpeciesParametersESt6vectorIS2_SaIS2_EEEE, align 8
	%_T20584024_53040.addr = alloca %struct._ZSt6vectorIN8projects26DiffusionSpeciesParametersESaIS1_EE*, align 8

	call void @llvm.dbg.declare (metadata %struct._ZSt6vectorIN8projects26DiffusionSpeciesParametersESaIS1_EE** %_T20584024_53040.addr, metadata !6602, metadata !3992), !dbg !6595
	store %struct._ZSt6vectorIN8projects26DiffusionSpeciesParametersESaIS1_EE* %_T20584024_53040.arg, %struct._ZSt6vectorIN8projects26DiffusionSpeciesParametersESaIS1_EE** %_T20584024_53040.addr, align 8, !tbaa !4000
	call void @llvm.dbg.declare (metadata %struct._ZSt6vectorIN8projects26DiffusionSpeciesParametersESaIS1_EE** %_T20584024_53040.addr, metadata !6603, metadata !3992), !dbg !6595
	%0 = load %struct._ZSt6vectorIN8projects26DiffusionSpeciesParametersESaIS1_EE*, %struct._ZSt6vectorIN8projects26DiffusionSpeciesParametersESaIS1_EE** %_T20584024_53040.addr, align 8, !tbaa !4000, !dbg !6604
	%1 = bitcast %struct._ZSt6vectorIN8projects26DiffusionSpeciesParametersESaIS1_EE*  %0 to i8*, !dbg !6604
	%2 = getelementptr i8, i8*  %1, i64 8, !dbg !6604
	%3 = bitcast i8*  %2 to i8**, !dbg !6604
	%4 = load i8*, i8**  %3, align 8, !tbaa !4000, !dbg !6604
	%5 = bitcast %struct._ZN9__gnu_cxx17__normal_iteratorIPN8projects26DiffusionSpeciesParametersESt6vectorIS2_SaIS2_EEEE* %.X53040.addr to i8**, !dbg !6604
	store i8*  %4, i8**  %5, align 8, !tbaa !4000, !dbg !6604
	%6 = bitcast %struct._ZN9__gnu_cxx17__normal_iteratorIPN8projects26DiffusionSpeciesParametersESt6vectorIS2_SaIS2_EEEE* %.X53040.addr to i64*, !dbg !6604
	%7 = load i64, i64*  %6, align 8, !tbaa !3999, !dbg !6604
	ret i64  %7, !dbg !6604
}
define linkonce_odr i64 @_ZNKSt6vectorIN8projects26DiffusionSpeciesParametersESaIS1_EE4sizeEv(%struct._ZSt6vectorIN8projects26DiffusionSpeciesParametersESaIS1_EE* %_T20584024_53042.arg) #0 inlinehint !dbg !6608 {
L.entry:
	%_T20584024_53042.addr = alloca %struct._ZSt6vectorIN8projects26DiffusionSpeciesParametersESaIS1_EE*, align 8
	%_T20584912_53042.addr = alloca i64, align 8

	call void @llvm.dbg.declare (metadata %struct._ZSt6vectorIN8projects26DiffusionSpeciesParametersESaIS1_EE** %_T20584024_53042.addr, metadata !6612, metadata !3992), !dbg !6609
	store %struct._ZSt6vectorIN8projects26DiffusionSpeciesParametersESaIS1_EE* %_T20584024_53042.arg, %struct._ZSt6vectorIN8projects26DiffusionSpeciesParametersESaIS1_EE** %_T20584024_53042.addr, align 8, !tbaa !4000
	call void @llvm.dbg.declare (metadata %struct._ZSt6vectorIN8projects26DiffusionSpeciesParametersESaIS1_EE** %_T20584024_53042.addr, metadata !6613, metadata !3992), !dbg !6609
	%0 = load %struct._ZSt6vectorIN8projects26DiffusionSpeciesParametersESaIS1_EE*, %struct._ZSt6vectorIN8projects26DiffusionSpeciesParametersESaIS1_EE** %_T20584024_53042.addr, align 8, !tbaa !4000, !dbg !6614
	%1 = bitcast %struct._ZSt6vectorIN8projects26DiffusionSpeciesParametersESaIS1_EE*  %0 to i8*, !dbg !6614
	%2 = getelementptr i8, i8*  %1, i64 8, !dbg !6614
	%3 = bitcast i8*  %2 to i8**, !dbg !6614
	%4 = load i8*, i8**  %3, align 8, !tbaa !4000, !dbg !6614
	%5 = bitcast %struct._ZSt6vectorIN8projects26DiffusionSpeciesParametersESaIS1_EE*  %0 to i8**, !dbg !6614
	%6 = load i8*, i8**  %5, align 8, !tbaa !4000, !dbg !6614
	%7 = ptrtoint i8*  %6 to i64, !dbg !6614
	%8 = sub i64 0,  %7, !dbg !6614
	%9 = getelementptr i8, i8*  %4, i64  %8, !dbg !6614
	%10 = ptrtoint i8*  %9 to i64, !dbg !6614
	%11 = sext i64 7378697629483820647 to i128, !dbg !6614
	%12 = sext i64  %10 to i128, !dbg !6614
	%13 = mul i128  %11,  %12, !dbg !6614
	%14 = ashr i128  %13, 64, !dbg !6614
	%15 = trunc i128  %14 to i64, !dbg !6614
	%16 = sext i32 4 to i64, !dbg !6614
	%17 = ashr i64  %15,  %16, !dbg !6614
	%18 = sub i64 0,  %7, !dbg !6614
	%19 = getelementptr i8, i8*  %4, i64  %18, !dbg !6614
	%20 = ptrtoint i8*  %19 to i64, !dbg !6614
	%21 = sext i32 63 to i64, !dbg !6614
	%22 = ashr i64  %20,  %21, !dbg !6614
	%23 = sub i64  %17,  %22, !dbg !6614
	ret i64  %23, !dbg !6614
}
define linkonce_odr i64 @_ZNKSt6vectorIN8projects26DiffusionSpeciesParametersESaIS1_EE8max_sizeEv(%struct._ZSt6vectorIN8projects26DiffusionSpeciesParametersESaIS1_EE* %_T20584024_53044.arg) #0 inlinehint !dbg !6616 {
L.entry:
	%_T20584024_53044.addr = alloca %struct._ZSt6vectorIN8projects26DiffusionSpeciesParametersESaIS1_EE*, align 8
	%..inline.addr = alloca %struct._ZSaIN8projects26DiffusionSpeciesParametersEE*, align 8
	%_T20584912_53044.addr = alloca i64, align 8

	call void @llvm.dbg.declare (metadata %struct._ZSt6vectorIN8projects26DiffusionSpeciesParametersESaIS1_EE** %_T20584024_53044.addr, metadata !6624, metadata !3992), !dbg !6617
	store %struct._ZSt6vectorIN8projects26DiffusionSpeciesParametersESaIS1_EE* %_T20584024_53044.arg, %struct._ZSt6vectorIN8projects26DiffusionSpeciesParametersESaIS1_EE** %_T20584024_53044.addr, align 8, !tbaa !4000
	call void @llvm.dbg.declare (metadata %struct._ZSt6vectorIN8projects26DiffusionSpeciesParametersESaIS1_EE** %_T20584024_53044.addr, metadata !6625, metadata !3992), !dbg !6617
	%0 = load %struct._ZSt6vectorIN8projects26DiffusionSpeciesParametersESaIS1_EE*, %struct._ZSt6vectorIN8projects26DiffusionSpeciesParametersESaIS1_EE** %_T20584024_53044.addr, align 8, !tbaa !4000, !dbg !6626
	%1 = bitcast %struct._ZSt6vectorIN8projects26DiffusionSpeciesParametersESaIS1_EE*  %0 to i8*, !dbg !6626
	%2 = bitcast %struct._ZSaIN8projects26DiffusionSpeciesParametersEE** %..inline.addr to i8**, !dbg !6626
	store i8*  %1, i8**  %2, align 8, !tbaa !4000, !dbg !6626
	%3 = load %struct._ZSaIN8projects26DiffusionSpeciesParametersEE*, %struct._ZSaIN8projects26DiffusionSpeciesParametersEE** %..inline.addr, align 8, !tbaa !4000, !dbg !6627
	%4 = call i64  @_ZNSt6vectorIN8projects26DiffusionSpeciesParametersESaIS1_EE11_S_max_sizeERKS2_ (%struct._ZSaIN8projects26DiffusionSpeciesParametersEE*  %3) nounwind, !dbg !6627
	ret i64  %4, !dbg !6626
}
define linkonce_odr %struct._ZN8projects26DiffusionSpeciesParametersE* @_ZNKSt6vectorIN8projects26DiffusionSpeciesParametersESaIS1_EEixEm(%struct._ZSt6vectorIN8projects26DiffusionSpeciesParametersESaIS1_EE* %_T20584024_53047.arg, i64 %__n.arg) #0 inlinehint !dbg !6631 {
L.entry:
	%_T20584024_53047.addr = alloca %struct._ZSt6vectorIN8projects26DiffusionSpeciesParametersESaIS1_EE*, align 8
	%__n.addr = alloca i64, align 8

	call void @llvm.dbg.declare (metadata %struct._ZSt6vectorIN8projects26DiffusionSpeciesParametersESaIS1_EE** %_T20584024_53047.addr, metadata !6635, metadata !3992), !dbg !6632
	store %struct._ZSt6vectorIN8projects26DiffusionSpeciesParametersESaIS1_EE* %_T20584024_53047.arg, %struct._ZSt6vectorIN8projects26DiffusionSpeciesParametersESaIS1_EE** %_T20584024_53047.addr, align 8, !tbaa !4000
	call void @llvm.dbg.declare (metadata %struct._ZSt6vectorIN8projects26DiffusionSpeciesParametersESaIS1_EE** %_T20584024_53047.addr, metadata !6636, metadata !3992), !dbg !6632
	call void @llvm.dbg.declare (metadata i64* %__n.addr, metadata !6637, metadata !3992), !dbg !6632
	store i64 %__n.arg, i64* %__n.addr, align 8, !tbaa !3999
	call void @llvm.dbg.declare (metadata i64* %__n.addr, metadata !6638, metadata !3992), !dbg !6632
	%0 = load %struct._ZSt6vectorIN8projects26DiffusionSpeciesParametersESaIS1_EE*, %struct._ZSt6vectorIN8projects26DiffusionSpeciesParametersESaIS1_EE** %_T20584024_53047.addr, align 8, !tbaa !4000, !dbg !6639
	%1 = bitcast %struct._ZSt6vectorIN8projects26DiffusionSpeciesParametersESaIS1_EE*  %0 to i8**, !dbg !6639
	%2 = load i8*, i8**  %1, align 8, !tbaa !4000, !dbg !6639
	%3 = load i64, i64* %__n.addr, align 8, !tbaa !4427, !dbg !6639
	%4 = mul i64  %3, 40, !dbg !6639
	%5 = getelementptr i8, i8*  %2, i64  %4, !dbg !6639
	%6 = bitcast i8*  %5 to %struct._ZN8projects26DiffusionSpeciesParametersE*, !dbg !6639
	ret %struct._ZN8projects26DiffusionSpeciesParametersE*  %6, !dbg !6639
}
define linkonce_odr void @_ZNSt6vectorIN8projects26DiffusionSpeciesParametersESaIS1_EE9push_backERKS1_(%struct._ZSt6vectorIN8projects26DiffusionSpeciesParametersESaIS1_EE* %_T20584024_53048.arg, %struct._ZN8projects26DiffusionSpeciesParametersE* %__x.arg) #0 inlinehint !dbg !6644 {
L.entry:
	%_T20584024_53048.addr = alloca %struct._ZSt6vectorIN8projects26DiffusionSpeciesParametersESaIS1_EE*, align 8
	%__x.addr = alloca %struct._ZN8projects26DiffusionSpeciesParametersE*, align 8
	%..inline.addr = alloca %struct._ZN8projects26DiffusionSpeciesParametersE*, align 8
	%..inline.addr.1 = alloca %struct._ZN8projects26DiffusionSpeciesParametersE*, align 8
	%..inline.addr.2 = alloca %struct._ZN9__gnu_cxx17__normal_iteratorIPN8projects26DiffusionSpeciesParametersESt6vectorIS2_SaIS2_EEEE, align 8

	call void @llvm.dbg.declare (metadata %struct._ZSt6vectorIN8projects26DiffusionSpeciesParametersESaIS1_EE** %_T20584024_53048.addr, metadata !6676, metadata !3992), !dbg !6645
	store %struct._ZSt6vectorIN8projects26DiffusionSpeciesParametersESaIS1_EE* %_T20584024_53048.arg, %struct._ZSt6vectorIN8projects26DiffusionSpeciesParametersESaIS1_EE** %_T20584024_53048.addr, align 8, !tbaa !4000
	call void @llvm.dbg.declare (metadata %struct._ZSt6vectorIN8projects26DiffusionSpeciesParametersESaIS1_EE** %_T20584024_53048.addr, metadata !6677, metadata !3992), !dbg !6645
	call void @llvm.dbg.declare (metadata %struct._ZN8projects26DiffusionSpeciesParametersE** %__x.addr, metadata !6678, metadata !3992), !dbg !6645
	store %struct._ZN8projects26DiffusionSpeciesParametersE* %__x.arg, %struct._ZN8projects26DiffusionSpeciesParametersE** %__x.addr, align 8, !tbaa !4000
	call void @llvm.dbg.declare (metadata %struct._ZN8projects26DiffusionSpeciesParametersE** %__x.addr, metadata !6679, metadata !3992), !dbg !6645
	%0 = load %struct._ZSt6vectorIN8projects26DiffusionSpeciesParametersESaIS1_EE*, %struct._ZSt6vectorIN8projects26DiffusionSpeciesParametersESaIS1_EE** %_T20584024_53048.addr, align 8, !tbaa !4000, !dbg !6680
	%1 = bitcast %struct._ZSt6vectorIN8projects26DiffusionSpeciesParametersESaIS1_EE*  %0 to i8*, !dbg !6680
	%2 = getelementptr i8, i8*  %1, i64 8, !dbg !6680
	%3 = bitcast i8*  %2 to i8**, !dbg !6680
	%4 = load i8*, i8**  %3, align 8, !tbaa !4000, !dbg !6680
	%5 = getelementptr i8, i8*  %1, i64 16, !dbg !6680
	%6 = bitcast i8*  %5 to i8**, !dbg !6680
	%7 = load i8*, i8**  %6, align 8, !tbaa !4000, !dbg !6680
	%8 = icmp eq i8*  %4,  %7, !dbg !6680
	br i1  %8, label %L.B0012, label %L.B1430, !dbg !6680
L.B1430:
	%9 = bitcast %struct._ZSt6vectorIN8projects26DiffusionSpeciesParametersESaIS1_EE*  %0 to i8*, !dbg !6681
	%10 = getelementptr i8, i8*  %9, i64 8, !dbg !6681
	%11 = bitcast i8*  %10 to i8**, !dbg !6681
	%12 = load i8*, i8**  %11, align 8, !tbaa !4000, !dbg !6681
	%13 = bitcast %struct._ZN8projects26DiffusionSpeciesParametersE** %..inline.addr to i8**, !dbg !6681
	store i8*  %12, i8**  %13, align 8, !tbaa !4000, !dbg !6681
	%14 = load %struct._ZN8projects26DiffusionSpeciesParametersE*, %struct._ZN8projects26DiffusionSpeciesParametersE** %..inline.addr, align 8, !tbaa !4000, !dbg !6681
	%15 = bitcast %struct._ZN8projects26DiffusionSpeciesParametersE*  %14 to i8*, !dbg !6681
	%16 = icmp eq i8*  %15,  null, !dbg !6681
	br i1  %16, label %L..inline.72849, label %L.B1431, !dbg !6681
L.B1431:
	%17 = load %struct._ZN8projects26DiffusionSpeciesParametersE*, %struct._ZN8projects26DiffusionSpeciesParametersE** %__x.addr, align 8, !tbaa !4000, !dbg !6681
	%18 = bitcast %struct._ZN8projects26DiffusionSpeciesParametersE*  %17 to i8*, !dbg !6681
	%19 = bitcast %struct._ZN8projects26DiffusionSpeciesParametersE** %..inline.addr.1 to i8**, !dbg !6681
	store i8*  %18, i8**  %19, align 8, !tbaa !4000, !dbg !6681
	%20 = load %struct._ZN8projects26DiffusionSpeciesParametersE*, %struct._ZN8projects26DiffusionSpeciesParametersE** %..inline.addr.1, align 8, !tbaa !4000, !dbg !6681
	%21 = bitcast %struct._ZN8projects26DiffusionSpeciesParametersE*  %20 to double*, !dbg !6681
	%22 = load double, double*  %21, align 8, !tbaa !3999, !dbg !6681
	%23 = bitcast %struct._ZN8projects26DiffusionSpeciesParametersE*  %14 to double*, !dbg !6681
	store double  %22, double*  %23, align 8, !tbaa !3999, !dbg !6681
	%24 = bitcast double*  %21 to i8*, !dbg !6681
	%25 = getelementptr i8, i8*  %24, i64 8, !dbg !6681
	%26 = bitcast i8*  %25 to double*, !dbg !6681
	%27 = load double, double*  %26, align 8, !tbaa !3999, !dbg !6681
	%28 = bitcast double*  %23 to i8*, !dbg !6681
	%29 = getelementptr i8, i8*  %28, i64 8, !dbg !6681
	%30 = bitcast i8*  %29 to double*, !dbg !6681
	store double  %27, double*  %30, align 8, !tbaa !3999, !dbg !6681
	%31 = getelementptr i8, i8*  %24, i64 16, !dbg !6681
	%32 = bitcast i8*  %31 to double*, !dbg !6681
	%33 = load double, double*  %32, align 8, !tbaa !3999, !dbg !6681
	%34 = getelementptr i8, i8*  %28, i64 16, !dbg !6681
	%35 = bitcast i8*  %34 to double*, !dbg !6681
	store double  %33, double*  %35, align 8, !tbaa !3999, !dbg !6681
	%36 = getelementptr i8, i8*  %24, i64 24, !dbg !6681
	%37 = bitcast i8*  %36 to double*, !dbg !6681
	%38 = load double, double*  %37, align 8, !tbaa !3999, !dbg !6681
	%39 = getelementptr i8, i8*  %28, i64 24, !dbg !6681
	%40 = bitcast i8*  %39 to double*, !dbg !6681
	store double  %38, double*  %40, align 8, !tbaa !3999, !dbg !6681
	%41 = getelementptr i8, i8*  %24, i64 32, !dbg !6681
	%42 = bitcast i8*  %41 to i32*, !dbg !6681
	%43 = load i32, i32*  %42, align 4, !tbaa !3999, !dbg !6681
	%44 = getelementptr i8, i8*  %28, i64 32, !dbg !6681
	%45 = bitcast i8*  %44 to i32*, !dbg !6681
	store i32  %43, i32*  %45, align 4, !tbaa !3999, !dbg !6681
	%46 = getelementptr i8, i8*  %24, i64 36, !dbg !6681
	%47 = bitcast i8*  %46 to i32*, !dbg !6681
	%48 = load i32, i32*  %47, align 4, !tbaa !3999, !dbg !6681
	%49 = getelementptr i8, i8*  %28, i64 36, !dbg !6681
	%50 = bitcast i8*  %49 to i32*, !dbg !6681
	store i32  %48, i32*  %50, align 4, !tbaa !3999, !dbg !6681
	br label %L..inline.72858, !dbg !6681
L..inline.72849:
	br label %L..inline.72858
L..inline.72858:
	%51 = load %struct._ZSt6vectorIN8projects26DiffusionSpeciesParametersESaIS1_EE*, %struct._ZSt6vectorIN8projects26DiffusionSpeciesParametersESaIS1_EE** %_T20584024_53048.addr, align 8, !tbaa !4000, !dbg !6682
	%52 = bitcast %struct._ZSt6vectorIN8projects26DiffusionSpeciesParametersESaIS1_EE*  %51 to i8*, !dbg !6682
	%53 = getelementptr i8, i8*  %52, i64 8, !dbg !6682
	%54 = bitcast i8*  %53 to i8**, !dbg !6682
	%55 = load i8*, i8**  %54, align 8, !tbaa !4000, !dbg !6682
	%56 = getelementptr i8, i8*  %55, i64 40, !dbg !6682
	store i8*  %56, i8**  %54, align 8, !tbaa !4000, !dbg !6682
	br label %L.B0013, !dbg !6683
L.B0012:
	%57 = load %struct._ZSt6vectorIN8projects26DiffusionSpeciesParametersESaIS1_EE*, %struct._ZSt6vectorIN8projects26DiffusionSpeciesParametersESaIS1_EE** %_T20584024_53048.addr, align 8, !tbaa !4000, !dbg !6684
	%58 = bitcast %struct._ZSt6vectorIN8projects26DiffusionSpeciesParametersESaIS1_EE*  %57 to i8*, !dbg !6684
	%59 = getelementptr i8, i8*  %58, i64 8, !dbg !6684
	%60 = bitcast i8*  %59 to i8**, !dbg !6684
	%61 = load i8*, i8**  %60, align 8, !tbaa !4000, !dbg !6684
	%62 = bitcast %struct._ZN9__gnu_cxx17__normal_iteratorIPN8projects26DiffusionSpeciesParametersESt6vectorIS2_SaIS2_EEEE* %..inline.addr.2 to i8**, !dbg !6684
	store i8*  %61, i8**  %62, align 8, !tbaa !4000, !dbg !6684
	%63 = bitcast %struct._ZN9__gnu_cxx17__normal_iteratorIPN8projects26DiffusionSpeciesParametersESt6vectorIS2_SaIS2_EEEE* %..inline.addr.2 to i64*, !dbg !6684
	%64 = load i64, i64*  %63, align 8, !tbaa !3999, !dbg !6684
	%65 = load %struct._ZN8projects26DiffusionSpeciesParametersE*, %struct._ZN8projects26DiffusionSpeciesParametersE** %__x.addr, align 8, !tbaa !4000, !dbg !6684
	call void  @_ZNSt6vectorIN8projects26DiffusionSpeciesParametersESaIS1_EE17_M_realloc_insertIJRKS1_EEEvN9__gnu_cxx17__normal_iteratorIPS1_S3_EEDpOT_ (%struct._ZSt6vectorIN8projects26DiffusionSpeciesParametersESaIS1_EE*  %57, i64  %64, %struct._ZN8projects26DiffusionSpeciesParametersE*  %65), !dbg !6684
	br label %L.B0013
L.B0013:
	ret void, !dbg !6685
}
define linkonce_odr i64 @_ZNKSt6vectorIN8projects26DiffusionSpeciesParametersESaIS1_EE12_M_check_lenEmPKc(%struct._ZSt6vectorIN8projects26DiffusionSpeciesParametersESaIS1_EE* %_T20848328_53051.arg, i64 %__n.arg, i8* %__s.arg) #0 inlinehint !dbg !6689 {
L.entry:
	%_T20848328_53051.addr = alloca %struct._ZSt6vectorIN8projects26DiffusionSpeciesParametersESaIS1_EE*, align 8
	%__n.addr = alloca i64, align 8
	%__s.addr = alloca i8*, align 8
	%..inline.addr = alloca %struct._ZSaIN8projects26DiffusionSpeciesParametersEE*, align 8
	%..inline.addr.1 = alloca i64, align 8
	%..inline.addr.2 = alloca i64, align 8
	%..inline.addr.3 = alloca i64, align 8
	%_T20849808_53051.addr = alloca i64, align 8
	%..inline.addr.4 = alloca i64, align 8
	%..inline.addr.5 = alloca i64*, align 8
	%__len.addr = alloca i64, align 8
	%..inline.addr.6 = alloca i64, align 8
	%..inline.addr.7 = alloca %struct._ZSaIN8projects26DiffusionSpeciesParametersEE*, align 8
	%..inline.addr.8 = alloca i64, align 8
	%..inline.addr.9 = alloca %struct._ZSaIN8projects26DiffusionSpeciesParametersEE*, align 8
	%..inline.addr.180 = alloca i64, align 8
	%.I0007.addr = alloca i64, align 8

	call void @llvm.dbg.declare (metadata %struct._ZSt6vectorIN8projects26DiffusionSpeciesParametersESaIS1_EE** %_T20848328_53051.addr, metadata !6737, metadata !3992), !dbg !6690
	store %struct._ZSt6vectorIN8projects26DiffusionSpeciesParametersESaIS1_EE* %_T20848328_53051.arg, %struct._ZSt6vectorIN8projects26DiffusionSpeciesParametersESaIS1_EE** %_T20848328_53051.addr, align 8, !tbaa !4000
	call void @llvm.dbg.declare (metadata %struct._ZSt6vectorIN8projects26DiffusionSpeciesParametersESaIS1_EE** %_T20848328_53051.addr, metadata !6738, metadata !3992), !dbg !6690
	call void @llvm.dbg.declare (metadata i64* %__n.addr, metadata !6739, metadata !3992), !dbg !6690
	store i64 %__n.arg, i64* %__n.addr, align 8, !tbaa !3999
	call void @llvm.dbg.declare (metadata i64* %__n.addr, metadata !6740, metadata !3992), !dbg !6690
	call void @llvm.dbg.declare (metadata i8** %__s.addr, metadata !6741, metadata !3992), !dbg !6690
	store i8* %__s.arg, i8** %__s.addr, align 8, !tbaa !4000
	call void @llvm.dbg.declare (metadata i8** %__s.addr, metadata !6742, metadata !3992), !dbg !6690
	%0 = load %struct._ZSt6vectorIN8projects26DiffusionSpeciesParametersESaIS1_EE*, %struct._ZSt6vectorIN8projects26DiffusionSpeciesParametersESaIS1_EE** %_T20848328_53051.addr, align 8, !tbaa !4000, !dbg !6743
	%1 = bitcast %struct._ZSt6vectorIN8projects26DiffusionSpeciesParametersESaIS1_EE*  %0 to i8*, !dbg !6743
	%2 = bitcast %struct._ZSaIN8projects26DiffusionSpeciesParametersEE** %..inline.addr to i8**, !dbg !6743
	store i8*  %1, i8**  %2, align 8, !tbaa !4000, !dbg !6743
	%3 = load %struct._ZSaIN8projects26DiffusionSpeciesParametersEE*, %struct._ZSaIN8projects26DiffusionSpeciesParametersEE** %..inline.addr, align 8, !tbaa !4000, !dbg !6743
	%4 = call i64  @_ZNSt6vectorIN8projects26DiffusionSpeciesParametersESaIS1_EE11_S_max_sizeERKS2_ (%struct._ZSaIN8projects26DiffusionSpeciesParametersEE*  %3) nounwind, !dbg !6743
	%5 = load %struct._ZSt6vectorIN8projects26DiffusionSpeciesParametersESaIS1_EE*, %struct._ZSt6vectorIN8projects26DiffusionSpeciesParametersESaIS1_EE** %_T20848328_53051.addr, align 8, !tbaa !4000, !dbg !6744
	%6 = bitcast %struct._ZSt6vectorIN8projects26DiffusionSpeciesParametersESaIS1_EE*  %5 to i8*, !dbg !6744
	%7 = getelementptr i8, i8*  %6, i64 8, !dbg !6744
	%8 = bitcast i8*  %7 to i8**, !dbg !6744
	%9 = load i8*, i8**  %8, align 8, !tbaa !4000, !dbg !6744
	%10 = bitcast %struct._ZSt6vectorIN8projects26DiffusionSpeciesParametersESaIS1_EE*  %5 to i8**, !dbg !6744
	%11 = load i8*, i8**  %10, align 8, !tbaa !4000, !dbg !6744
	%12 = ptrtoint i8*  %11 to i64, !dbg !6744
	%13 = sub i64 0,  %12, !dbg !6744
	%14 = getelementptr i8, i8*  %9, i64  %13, !dbg !6744
	%15 = ptrtoint i8*  %14 to i64, !dbg !6744
	%16 = sext i64 7378697629483820647 to i128, !dbg !6744
	%17 = sext i64  %15 to i128, !dbg !6744
	%18 = mul i128  %16,  %17, !dbg !6744
	%19 = ashr i128  %18, 64, !dbg !6744
	%20 = trunc i128  %19 to i64, !dbg !6744
	%21 = sext i32 4 to i64, !dbg !6744
	%22 = ashr i64  %20,  %21, !dbg !6744
	%23 = sub i64 0,  %12, !dbg !6744
	%24 = getelementptr i8, i8*  %9, i64  %23, !dbg !6744
	%25 = ptrtoint i8*  %24 to i64, !dbg !6744
	%26 = sext i32 63 to i64, !dbg !6744
	%27 = ashr i64  %25,  %26, !dbg !6744
	%28 = sub i64  %22,  %27, !dbg !6744
	%29 = sub i64  %4,  %28, !dbg !6745
	%30 = load i64, i64* %__n.addr, align 8, !tbaa !4427, !dbg !6745
	%31 = icmp uge i64  %29,  %30, !dbg !6745
	br i1  %31, label %L.B0014, label %L.B1448, !dbg !6745
L.B1448:
	%32 = load i8*, i8** %__s.addr, align 8, !tbaa !4000, !dbg !6746
	call void  @_ZSt20__throw_length_errorPKc (i8*  %32) noreturn, !dbg !6746
	br label %L.B0014
L.B0014:
	%33 = load %struct._ZSt6vectorIN8projects26DiffusionSpeciesParametersESaIS1_EE*, %struct._ZSt6vectorIN8projects26DiffusionSpeciesParametersESaIS1_EE** %_T20848328_53051.addr, align 8, !tbaa !4000, !dbg !6747
	%34 = bitcast %struct._ZSt6vectorIN8projects26DiffusionSpeciesParametersESaIS1_EE*  %33 to i8*, !dbg !6747
	%35 = getelementptr i8, i8*  %34, i64 8, !dbg !6747
	%36 = bitcast i8*  %35 to i8**, !dbg !6747
	%37 = load i8*, i8**  %36, align 8, !tbaa !4000, !dbg !6747
	%38 = bitcast %struct._ZSt6vectorIN8projects26DiffusionSpeciesParametersESaIS1_EE*  %33 to i8**, !dbg !6747
	%39 = load i8*, i8**  %38, align 8, !tbaa !4000, !dbg !6747
	%40 = ptrtoint i8*  %39 to i64, !dbg !6747
	%41 = sub i64 0,  %40, !dbg !6747
	%42 = getelementptr i8, i8*  %37, i64  %41, !dbg !6747
	%43 = ptrtoint i8*  %42 to i64, !dbg !6747
	%44 = sext i64 7378697629483820647 to i128, !dbg !6747
	%45 = sext i64  %43 to i128, !dbg !6747
	%46 = mul i128  %44,  %45, !dbg !6747
	%47 = ashr i128  %46, 64, !dbg !6747
	%48 = trunc i128  %47 to i64, !dbg !6747
	%49 = sext i32 4 to i64, !dbg !6747
	%50 = ashr i64  %48,  %49, !dbg !6747
	%51 = sub i64 0,  %40, !dbg !6747
	%52 = getelementptr i8, i8*  %37, i64  %51, !dbg !6747
	%53 = ptrtoint i8*  %52 to i64, !dbg !6747
	%54 = sext i32 63 to i64, !dbg !6747
	%55 = ashr i64  %53,  %54, !dbg !6747
	%56 = sub i64  %50,  %55, !dbg !6747
	store i64  %56, i64* %_T20849808_53051.addr, align 8, !tbaa !4427, !dbg !6745
	%57 = sub i64 0,  %40, !dbg !6747
	%58 = getelementptr i8, i8*  %37, i64  %57, !dbg !6747
	%59 = ptrtoint i8*  %58 to i64, !dbg !6747
	%60 = sext i64 7378697629483820647 to i128, !dbg !6747
	%61 = sext i64  %59 to i128, !dbg !6747
	%62 = mul i128  %60,  %61, !dbg !6747
	%63 = ashr i128  %62, 64, !dbg !6747
	%64 = trunc i128  %63 to i64, !dbg !6747
	%65 = sext i32 4 to i64, !dbg !6747
	%66 = ashr i64  %64,  %65, !dbg !6747
	%67 = sub i64 0,  %40, !dbg !6747
	%68 = getelementptr i8, i8*  %37, i64  %67, !dbg !6747
	%69 = ptrtoint i8*  %68 to i64, !dbg !6747
	%70 = sext i32 63 to i64, !dbg !6747
	%71 = ashr i64  %69,  %70, !dbg !6747
	%72 = sub i64  %66,  %71, !dbg !6747
	store i64  %72, i64* %..inline.addr.4, align 8, !tbaa !4427, !dbg !6747
	%73 = load i64, i64* %__n.addr, align 8, !tbaa !4427, !dbg !6745
	%74 = icmp uge i64  %56,  %73, !dbg !6745
	%75 = zext i1  %74 to i32, !dbg !6745
	%76 = trunc i32  %75 to i1, !dbg !6745
	%77 = bitcast i64* %_T20849808_53051.addr to i8*, !dbg !6745
	%78 = bitcast i64* %__n.addr to i8*, !dbg !6745
	%79 = select i1  %76, i8*  %77, i8*  %78, !dbg !6745
	%80 = bitcast i64** %..inline.addr.5 to i8**, !dbg !6745
	store i8*  %79, i8**  %80, align 8, !tbaa !4000, !dbg !6745
	%81 = load i64*, i64** %..inline.addr.5, align 8, !tbaa !4000, !dbg !6748
	%82 = load i64, i64*  %81, align 8, !tbaa !3999, !dbg !6748
	%83 = add i64  %72,  %82, !dbg !6748
	call void @llvm.dbg.declare (metadata i64* %__len.addr, metadata !6749, metadata !3992), !dbg !6690
	store i64  %83, i64* %__len.addr, align 8, !tbaa !4427, !dbg !6748
	%84 = load %struct._ZSt6vectorIN8projects26DiffusionSpeciesParametersESaIS1_EE*, %struct._ZSt6vectorIN8projects26DiffusionSpeciesParametersESaIS1_EE** %_T20848328_53051.addr, align 8, !tbaa !4000, !dbg !6750
	%85 = bitcast %struct._ZSt6vectorIN8projects26DiffusionSpeciesParametersESaIS1_EE*  %84 to i8*, !dbg !6750
	%86 = getelementptr i8, i8*  %85, i64 8, !dbg !6750
	%87 = bitcast i8*  %86 to i8**, !dbg !6750
	%88 = load i8*, i8**  %87, align 8, !tbaa !4000, !dbg !6750
	%89 = bitcast %struct._ZSt6vectorIN8projects26DiffusionSpeciesParametersESaIS1_EE*  %84 to i8**, !dbg !6750
	%90 = load i8*, i8**  %89, align 8, !tbaa !4000, !dbg !6750
	%91 = ptrtoint i8*  %90 to i64, !dbg !6750
	%92 = sub i64 0,  %91, !dbg !6750
	%93 = getelementptr i8, i8*  %88, i64  %92, !dbg !6750
	%94 = ptrtoint i8*  %93 to i64, !dbg !6750
	%95 = sext i64 7378697629483820647 to i128, !dbg !6750
	%96 = sext i64  %94 to i128, !dbg !6750
	%97 = mul i128  %95,  %96, !dbg !6750
	%98 = ashr i128  %97, 64, !dbg !6750
	%99 = trunc i128  %98 to i64, !dbg !6750
	%100 = sext i32 4 to i64, !dbg !6750
	%101 = ashr i64  %99,  %100, !dbg !6750
	%102 = sub i64 0,  %91, !dbg !6750
	%103 = getelementptr i8, i8*  %88, i64  %102, !dbg !6750
	%104 = ptrtoint i8*  %103 to i64, !dbg !6750
	%105 = sext i32 63 to i64, !dbg !6750
	%106 = ashr i64  %104,  %105, !dbg !6750
	%107 = sub i64  %101,  %106, !dbg !6750
	%108 = load i64, i64* %..inline.addr.4, align 8, !tbaa !4427, !dbg !6745
	%109 = load i64*, i64** %..inline.addr.5, align 8, !tbaa !4000, !dbg !6745
	%110 = load i64, i64*  %109, align 8, !tbaa !3999, !dbg !6745
	%111 = add i64  %108,  %110, !dbg !6745
	%112 = icmp ult i64  %111,  %107, !dbg !6745
	br i1  %112, label %L.B0017, label %L.B1449, !dbg !6745
L.B1449:
	%113 = bitcast %struct._ZSt6vectorIN8projects26DiffusionSpeciesParametersESaIS1_EE*  %84 to i8*, !dbg !6743
	%114 = bitcast %struct._ZSaIN8projects26DiffusionSpeciesParametersEE** %..inline.addr.7 to i8**, !dbg !6743
	store i8*  %113, i8**  %114, align 8, !tbaa !4000, !dbg !6743
	%115 = load %struct._ZSaIN8projects26DiffusionSpeciesParametersEE*, %struct._ZSaIN8projects26DiffusionSpeciesParametersEE** %..inline.addr.7, align 8, !tbaa !4000, !dbg !6743
	%116 = call i64  @_ZNSt6vectorIN8projects26DiffusionSpeciesParametersESaIS1_EE11_S_max_sizeERKS2_ (%struct._ZSaIN8projects26DiffusionSpeciesParametersEE*  %115) nounwind, !dbg !6743
	%117 = load i64, i64* %__len.addr, align 8, !tbaa !4427, !dbg !6743
	%118 = icmp ule i64  %117,  %116, !dbg !6743
	br i1  %118, label %L.B0015, label %L.B0017, !dbg !6743
L.B0017:
	%119 = load %struct._ZSt6vectorIN8projects26DiffusionSpeciesParametersESaIS1_EE*, %struct._ZSt6vectorIN8projects26DiffusionSpeciesParametersESaIS1_EE** %_T20848328_53051.addr, align 8, !tbaa !4000, !dbg !6743
	%120 = bitcast %struct._ZSt6vectorIN8projects26DiffusionSpeciesParametersESaIS1_EE*  %119 to i8*, !dbg !6743
	%121 = bitcast %struct._ZSaIN8projects26DiffusionSpeciesParametersEE** %..inline.addr.9 to i8**, !dbg !6743
	store i8*  %120, i8**  %121, align 8, !tbaa !4000, !dbg !6743
	%122 = load %struct._ZSaIN8projects26DiffusionSpeciesParametersEE*, %struct._ZSaIN8projects26DiffusionSpeciesParametersEE** %..inline.addr.9, align 8, !tbaa !4000, !dbg !6743
	%123 = call i64  @_ZNSt6vectorIN8projects26DiffusionSpeciesParametersESaIS1_EE11_S_max_sizeERKS2_ (%struct._ZSaIN8projects26DiffusionSpeciesParametersEE*  %122) nounwind, !dbg !6743
	store i64  %123, i64* %.I0007.addr, align 8, !tbaa !4427, !dbg !6743
	br label %L.B0016, !dbg !6750
L.B0015:
	%124 = load i64, i64* %__len.addr, align 8, !tbaa !4427, !dbg !6750
	store i64  %124, i64* %.I0007.addr, align 8, !tbaa !4427, !dbg !6750
	br label %L.B0016
L.B0016:
	%125 = load i64, i64* %.I0007.addr, align 8, !tbaa !4427, !dbg !6750
	ret i64  %125, !dbg !6750
}
define linkonce_odr i64 @_ZNSt6vectorIN8projects26DiffusionSpeciesParametersESaIS1_EE11_S_max_sizeERKS2_(%struct._ZSaIN8projects26DiffusionSpeciesParametersEE* %__a.arg) #0 inlinehint personality i8* bitcast (i32 (...)* @__gxx_personality_v0 to i8*) !dbg !6759 {
L.entry:
	%__a.addr = alloca %struct._ZSaIN8projects26DiffusionSpeciesParametersEE*, align 8

	call void @llvm.dbg.declare (metadata %struct._ZSaIN8projects26DiffusionSpeciesParametersEE** %__a.addr, metadata !6775, metadata !3992), !dbg !6760
	store %struct._ZSaIN8projects26DiffusionSpeciesParametersEE* %__a.arg, %struct._ZSaIN8projects26DiffusionSpeciesParametersEE** %__a.addr, align 8, !tbaa !4000
	call void @llvm.dbg.declare (metadata %struct._ZSaIN8projects26DiffusionSpeciesParametersEE** %__a.addr, metadata !6776, metadata !3992), !dbg !6760
	ret i64 230584300921369395, !dbg !6777
L.B1454:
	br label %L.R0119, !dbg !6777
L_T20850104_53053:
	%0 = landingpad %astruct.dt64
	cleanup
	br label %L.R0119
L.R0119:
	ret i64 0
}

%struct._ZN9__gnu_cxx13new_allocatorIN8projects26DiffusionSpeciesParametersEEE = type <{ [1 x i8]}> 

define linkonce_odr void @_ZNSt6vectorIN8projects26DiffusionSpeciesParametersESaIS1_EE17_M_realloc_insertIJRKS1_EEEvN9__gnu_cxx17__normal_iteratorIPS1_S3_EEDpOT_(%struct._ZSt6vectorIN8projects26DiffusionSpeciesParametersESaIS1_EE* %_T20848328_53055.arg, i64 %__position.coerce, %struct._ZN8projects26DiffusionSpeciesParametersE* %__args.arg) #0 inlinehint personality i8* bitcast (i32 (...)* @__gxx_personality_v0 to i8*) !dbg !6784 {
L.entry:
	%_T20848328_53055.addr = alloca %struct._ZSt6vectorIN8projects26DiffusionSpeciesParametersESaIS1_EE*, align 8
	%__position.addr = alloca %struct._ZN9__gnu_cxx17__normal_iteratorIPN8projects26DiffusionSpeciesParametersESt6vectorIS2_SaIS2_EEEE, align 8
	%__args.addr = alloca %struct._ZN8projects26DiffusionSpeciesParametersE*, align 8
	%..inline.addr = alloca %struct._ZSt6vectorIN8projects26DiffusionSpeciesParametersESaIS1_EE*, align 8
	%..inline.addr.1 = alloca i64, align 8
	%..inline.addr.2 = alloca i8*, align 8
	%..inline.addr.3 = alloca %struct._ZSt6vectorIN8projects26DiffusionSpeciesParametersESaIS1_EE*, align 8
	%..inline.addr.4 = alloca %struct._ZSt12_Vector_baseIN8projects26DiffusionSpeciesParametersESaIS1_EE*, align 8
	%..inline.addr.5 = alloca %struct._ZSaIN8projects26DiffusionSpeciesParametersEE*, align 8
	%..inline.addr.6 = alloca i64, align 8
	%..inline.addr.7 = alloca i64, align 8
	%..inline.addr.8 = alloca %struct._ZSt6vectorIN8projects26DiffusionSpeciesParametersESaIS1_EE*, align 8
	%..inline.addr.9 = alloca i64, align 8
	%..inline.addr.160 = alloca i64, align 8
	%..inline.addr.170 = alloca %struct._ZSt6vectorIN8projects26DiffusionSpeciesParametersESaIS1_EE*, align 8
	%..inline.addr.180 = alloca i64, align 8
	%..inline.addr.190 = alloca i64, align 8
	%..inline.addr.200 = alloca i64, align 8
	%..inline.addr.210 = alloca %struct._ZSt6vectorIN8projects26DiffusionSpeciesParametersESaIS1_EE*, align 8
	%..inline.addr.220 = alloca i64, align 8
	%..inline.addr.230 = alloca i64, align 8
	%..inline.addr.240 = alloca i64*, align 8
	%..inline.addr.250 = alloca i64, align 8
	%..inline.addr.260 = alloca %struct._ZSt6vectorIN8projects26DiffusionSpeciesParametersESaIS1_EE*, align 8
	%..inline.addr.270 = alloca i64, align 8
	%..inline.addr.280 = alloca i64, align 8
	%..inline.addr.290 = alloca %struct._ZSt6vectorIN8projects26DiffusionSpeciesParametersESaIS1_EE*, align 8
	%..inline.addr.300 = alloca %struct._ZSt12_Vector_baseIN8projects26DiffusionSpeciesParametersESaIS1_EE*, align 8
	%..inline.addr.310 = alloca %struct._ZSaIN8projects26DiffusionSpeciesParametersEE*, align 8
	%..inline.addr.320 = alloca i64, align 8
	%..inline.addr.330 = alloca i64, align 8
	%..inline.addr.340 = alloca %struct._ZSt6vectorIN8projects26DiffusionSpeciesParametersESaIS1_EE*, align 8
	%..inline.addr.350 = alloca %struct._ZSt12_Vector_baseIN8projects26DiffusionSpeciesParametersESaIS1_EE*, align 8
	%..inline.addr.360 = alloca %struct._ZSaIN8projects26DiffusionSpeciesParametersEE*, align 8
	%..inline.addr.370 = alloca i64, align 8
	%..inline.addr.380 = alloca i64, align 8
	%..inline.addr.390 = alloca i64, align 8
	%..inline.addr.400 = alloca i64, align 8
	%__len.addr = alloca i64, align 8
	%__old_start.addr = alloca %struct._ZN8projects26DiffusionSpeciesParametersE*, align 8
	%__old_finish.addr = alloca %struct._ZN8projects26DiffusionSpeciesParametersE*, align 8
	%..inline.addr.440 = alloca %struct._ZSt6vectorIN8projects26DiffusionSpeciesParametersESaIS1_EE*, align 8
	%..inline.addr.450 = alloca %struct._ZN8projects26DiffusionSpeciesParametersE**, align 8
	%..inline.addr.460 = alloca %struct._ZN9__gnu_cxx17__normal_iteratorIPN8projects26DiffusionSpeciesParametersESt6vectorIS2_SaIS2_EEEE, align 8
	%..inline.addr.470 = alloca %struct._ZN9__gnu_cxx17__normal_iteratorIPN8projects26DiffusionSpeciesParametersESt6vectorIS2_SaIS2_EEEE, align 8
	%_T20850992_53055.addr = alloca %struct._ZN9__gnu_cxx17__normal_iteratorIPN8projects26DiffusionSpeciesParametersESt6vectorIS2_SaIS2_EEEE, align 8
	%..inline.addr.490 = alloca %struct._ZN9__gnu_cxx17__normal_iteratorIPN8projects26DiffusionSpeciesParametersESt6vectorIS2_SaIS2_EEEE*, align 8
	%..inline.addr.500 = alloca %struct._ZN9__gnu_cxx17__normal_iteratorIPN8projects26DiffusionSpeciesParametersESt6vectorIS2_SaIS2_EEEE*, align 8
	%..inline.addr.510 = alloca i64, align 8
	%..inline.addr.520 = alloca i64, align 8
	%__elems_before.addr = alloca i64, align 8
	%..inline.addr.540 = alloca %struct._ZSt12_Vector_baseIN8projects26DiffusionSpeciesParametersESaIS1_EE*, align 8
	%..inline.addr.550 = alloca i64, align 8
	%..inline.addr.560 = alloca %struct._ZSaIN8projects26DiffusionSpeciesParametersEE*, align 8
	%..inline.addr.570 = alloca i64, align 8
	%..inline.addr.580 = alloca %struct._ZN9__gnu_cxx13new_allocatorIN8projects26DiffusionSpeciesParametersEEE*, align 8
	%..inline.addr.590 = alloca i64, align 8
	%..inline.addr.600 = alloca i64, align 8
	%.Q0012.addr = alloca i8*, align 8
	%..inline.addr.620 = alloca %struct._ZN8projects26DiffusionSpeciesParametersE*, align 8
	%__new_start.addr = alloca %struct._ZN8projects26DiffusionSpeciesParametersE*, align 8
	%__new_finish.addr = alloca %struct._ZN8projects26DiffusionSpeciesParametersE*, align 8
	%..inline.addr.650 = alloca %struct._ZN8projects26DiffusionSpeciesParametersE*, align 8
	%..inline.addr.660 = alloca %struct._ZN8projects26DiffusionSpeciesParametersE*, align 8
	%..inline.addr.670 = alloca %struct._ZSaIN8projects26DiffusionSpeciesParametersEE*, align 8
	%..inline.addr.680 = alloca %struct._ZN8projects26DiffusionSpeciesParametersE*, align 8
	%..inline.addr.690 = alloca %struct._ZN8projects26DiffusionSpeciesParametersE*, align 8
	%..inline.addr.700 = alloca %struct._ZN8projects26DiffusionSpeciesParametersE*, align 8
	%..inline.addr.710 = alloca %struct._ZN8projects26DiffusionSpeciesParametersE*, align 8
	%..inline.addr.720 = alloca %struct._ZN8projects26DiffusionSpeciesParametersE*, align 8
	%..inline.addr.730 = alloca %struct._ZN8projects26DiffusionSpeciesParametersE*, align 8
	%..inline.addr.740 = alloca i64, align 8
	%..inline.addr.750 = alloca i8*, align 8
	%..inline.addr.760 = alloca i8*, align 8
	%..inline.addr.770 = alloca i8*, align 8
	%..inline.addr.780 = alloca %struct._ZN8projects26DiffusionSpeciesParametersE*, align 8
	%..inline.addr.790 = alloca %struct._ZN8projects26DiffusionSpeciesParametersE*, align 8
	%..inline.addr.800 = alloca %struct._ZN8projects26DiffusionSpeciesParametersE*, align 8
	%..inline.addr.810 = alloca %struct._ZN8projects26DiffusionSpeciesParametersE*, align 8
	%..inline.addr.820 = alloca %struct._ZSt12_Vector_baseIN8projects26DiffusionSpeciesParametersESaIS1_EE*, align 8
	%..inline.addr.830 = alloca %struct._ZSaIN8projects26DiffusionSpeciesParametersEE*, align 8
	%..inline.addr.840 = alloca %struct._ZN8projects26DiffusionSpeciesParametersE*, align 8
	%..inline.addr.850 = alloca %struct._ZN8projects26DiffusionSpeciesParametersE*, align 8
	%..inline.addr.860 = alloca %struct._ZN8projects26DiffusionSpeciesParametersE*, align 8
	%..inline.addr.870 = alloca %struct._ZSaIN8projects26DiffusionSpeciesParametersEE*, align 8
	%..inline.addr.880 = alloca %struct._ZSt17integral_constantIbLb1EE, align 1
	%..inline.addr.890 = alloca %struct._ZN8projects26DiffusionSpeciesParametersE*, align 8
	%..inline.addr.900 = alloca %struct._ZN8projects26DiffusionSpeciesParametersE*, align 8
	%..inline.addr.910 = alloca %struct._ZN8projects26DiffusionSpeciesParametersE*, align 8
	%..inline.addr.920 = alloca %struct._ZSaIN8projects26DiffusionSpeciesParametersEE*, align 8
	%..inline.addr.930 = alloca %struct._ZSt17integral_constantIbLb1EE, align 1
	%..inline.addr.940 = alloca %struct._ZN8projects26DiffusionSpeciesParametersE*, align 8
	%..inline.addr.950 = alloca %struct._ZN8projects26DiffusionSpeciesParametersE*, align 8
	%..inline.addr.960 = alloca %struct._ZN8projects26DiffusionSpeciesParametersE*, align 8
	%..inline.addr.970 = alloca %struct._ZSaIN8projects26DiffusionSpeciesParametersEE*, align 8
	%..inline.addr.980 = alloca %struct._ZN8projects26DiffusionSpeciesParametersE*, align 8
	%..inline.addr.990 = alloca %struct._ZN8projects26DiffusionSpeciesParametersE*, align 8
	%..inline.addr.1000 = alloca %struct._ZN8projects26DiffusionSpeciesParametersE*, align 8
	%..inline.addr.1010 = alloca %struct._ZN8projects26DiffusionSpeciesParametersE*, align 8
	%..inline.addr.1020 = alloca %struct._ZN8projects26DiffusionSpeciesParametersE*, align 8
	%..inline.addr.1030 = alloca %struct._ZN8projects26DiffusionSpeciesParametersE*, align 8
	%..inline.addr.1040 = alloca %struct._ZN8projects26DiffusionSpeciesParametersE*, align 8
	%..inline.addr.1050 = alloca %struct._ZN8projects26DiffusionSpeciesParametersE*, align 8
	%..inline.addr.1060 = alloca %struct._ZN8projects26DiffusionSpeciesParametersE*, align 8
	%..inline.addr.1070 = alloca i64, align 8
	%..inline.addr.1080 = alloca %struct._ZN8projects26DiffusionSpeciesParametersE*, align 8
	%..inline.addr.1090 = alloca %struct._ZN8projects26DiffusionSpeciesParametersE*, align 8
	%..inline.addr.1100 = alloca %struct._ZN8projects26DiffusionSpeciesParametersE*, align 8
	%..inline.addr.1110 = alloca %struct._ZN8projects26DiffusionSpeciesParametersE*, align 8
	%..inline.addr.1120 = alloca %struct._ZSt12_Vector_baseIN8projects26DiffusionSpeciesParametersESaIS1_EE*, align 8
	%..inline.addr.1130 = alloca %struct._ZSaIN8projects26DiffusionSpeciesParametersEE*, align 8
	%..inline.addr.1140 = alloca %struct._ZN8projects26DiffusionSpeciesParametersE*, align 8
	%..inline.addr.1150 = alloca %struct._ZN8projects26DiffusionSpeciesParametersE*, align 8
