	.text
	.file	"dipole.ll"
	.file	1 "/home/talgat/vlasiator/backgroundfield/dipole.cpp"
	.weak	_ZN11T3DFunctionD1Ev    # -- Begin function _ZN11T3DFunctionD1Ev
	.p2align	4, 0x90
	.type	_ZN11T3DFunctionD1Ev,@function
_ZN11T3DFunctionD1Ev:                   # @_ZN11T3DFunctionD1Ev
.Lfunc_begin0:
	.file	2 "/home/talgat/vlasiator/backgroundfield/functions.hpp"
	.loc	2 31 0                  # backgroundfield/functions.hpp:31:0
	.cfi_startproc
# %bb.0:                                # %L.entry
	#DEBUG_VALUE: ~T3DFunction: <- $rdi
	#DEBUG_VALUE: ~T3DFunction: <- $rdi
	pushq	%rbp
	.cfi_def_cfa_offset 16
	.cfi_offset %rbp, -16
	movq	%rsp, %rbp
	.cfi_def_cfa_register %rbp
.Ltmp0:
	#DEBUG_VALUE:  <- $rdi
	#DEBUG_VALUE:  <- $rdi
	.loc	2 31 1 prologue_end     # backgroundfield/functions.hpp:31:1
	movq	$_ZTV11T3DFunction+16, (%rdi)
	popq	%rbp
	.cfi_def_cfa %rsp, 8
	retq
.Ltmp1:
.Lfunc_end0:
	.size	_ZN11T3DFunctionD1Ev, .Lfunc_end0-_ZN11T3DFunctionD1Ev
	.cfi_endproc
                                        # -- End function
	.weak	_ZN11T3DFunctionD0Ev    # -- Begin function _ZN11T3DFunctionD0Ev
	.p2align	4, 0x90
	.type	_ZN11T3DFunctionD0Ev,@function
_ZN11T3DFunctionD0Ev:                   # @_ZN11T3DFunctionD0Ev
.Lfunc_begin1:
	.loc	1 0 0                   # backgroundfield/dipole.cpp:0:0
	.cfi_startproc
# %bb.0:                                # %L.entry
	pushq	%rbp
	.cfi_def_cfa_offset 16
	.cfi_offset %rbp, -16
	movq	%rsp, %rbp
	.cfi_def_cfa_register %rbp
.Ltmp2:
	.loc	1 31 1 prologue_end     # backgroundfield/dipole.cpp:31:1
	movl	$8, %esi
	popq	%rbp
	.cfi_def_cfa %rsp, 8
	jmp	_ZdlPvm                 # TAILCALL
.Ltmp3:
.Lfunc_end1:
	.size	_ZN11T3DFunctionD0Ev, .Lfunc_end1-_ZN11T3DFunctionD0Ev
	.cfi_endproc
                                        # -- End function
	.weak	_ZN13FieldFunctionD1Ev  # -- Begin function _ZN13FieldFunctionD1Ev
	.p2align	4, 0x90
	.type	_ZN13FieldFunctionD1Ev,@function
_ZN13FieldFunctionD1Ev:                 # @_ZN13FieldFunctionD1Ev
.Lfunc_begin2:
	.file	3 "/home/talgat/vlasiator/backgroundfield/fieldfunction.hpp"
	.loc	3 0 0                   # backgroundfield/fieldfunction.hpp:0:0
	.cfi_startproc
# %bb.0:                                # %L.entry
	#DEBUG_VALUE: ~FieldFunction: <- $rdi
	#DEBUG_VALUE: ~FieldFunction: <- $rdi
	pushq	%rbp
	.cfi_def_cfa_offset 16
	.cfi_offset %rbp, -16
	movq	%rsp, %rbp
	.cfi_def_cfa_register %rbp
.Ltmp4:
	#DEBUG_VALUE:  <- $rdi
	#DEBUG_VALUE:  <- $rdi
	.loc	3 31 1 prologue_end     # backgroundfield/fieldfunction.hpp:31:1
	movq	$_ZTV11T3DFunction+16, (%rdi)
	popq	%rbp
	.cfi_def_cfa %rsp, 8
	retq
.Ltmp5:
.Lfunc_end2:
	.size	_ZN13FieldFunctionD1Ev, .Lfunc_end2-_ZN13FieldFunctionD1Ev
	.cfi_endproc
                                        # -- End function
	.weak	_ZN13FieldFunctionD0Ev  # -- Begin function _ZN13FieldFunctionD0Ev
	.p2align	4, 0x90
	.type	_ZN13FieldFunctionD0Ev,@function
_ZN13FieldFunctionD0Ev:                 # @_ZN13FieldFunctionD0Ev
.Lfunc_begin3:
	.loc	1 0 0                   # backgroundfield/dipole.cpp:0:0
	.cfi_startproc
# %bb.0:                                # %L.entry
	pushq	%rbp
	.cfi_def_cfa_offset 16
	.cfi_offset %rbp, -16
	movq	%rsp, %rbp
	.cfi_def_cfa_register %rbp
.Ltmp6:
	.loc	1 31 1 prologue_end     # backgroundfield/dipole.cpp:31:1
	movl	$24, %esi
	popq	%rbp
	.cfi_def_cfa %rsp, 8
	jmp	_ZdlPvm                 # TAILCALL
.Ltmp7:
.Lfunc_end3:
	.size	_ZN13FieldFunctionD0Ev, .Lfunc_end3-_ZN13FieldFunctionD0Ev
	.cfi_endproc
                                        # -- End function
	.section	.rodata.cst16,"aM",@progbits,16
	.p2align	4               # -- Begin function _ZN6Dipole10initializeEddddd
.LCPI4_0:
	.quad	-9223372036854775808    # double -0
	.quad	-9223372036854775808    # double -0
	.text
	.globl	_ZN6Dipole10initializeEddddd
	.p2align	4, 0x90
	.type	_ZN6Dipole10initializeEddddd,@function
_ZN6Dipole10initializeEddddd:           # @_ZN6Dipole10initializeEddddd
.Lfunc_begin4:
	.loc	1 32 0                  # backgroundfield/dipole.cpp:32:0
	.cfi_startproc
# %bb.0:                                # %L.entry
	#DEBUG_VALUE: initialize: <- $rdi
	#DEBUG_VALUE: initialize:moment <- $xmm0
	#DEBUG_VALUE: initialize:center_x <- $xmm1
	#DEBUG_VALUE: initialize:center_y <- $xmm2
	#DEBUG_VALUE: initialize:center_z <- $xmm3
	#DEBUG_VALUE: initialize:tilt_angle <- $xmm4
	pushq	%rbp
	.cfi_def_cfa_offset 16
	.cfi_offset %rbp, -16
	movq	%rsp, %rbp
	.cfi_def_cfa_register %rbp
	pushq	%rbx
	subq	$40, %rsp
	.cfi_offset %rbx, -24
.Ltmp8:
	#DEBUG_VALUE:  <- $rdi
	#DEBUG_VALUE: moment <- $xmm0
	#DEBUG_VALUE: center_x <- $xmm1
	#DEBUG_VALUE: center_y <- $xmm2
	#DEBUG_VALUE: center_z <- $xmm3
	#DEBUG_VALUE: tilt_angle <- $xmm4
	vmovsd	%xmm3, -40(%rbp)        # 8-byte Spill
	vmovsd	%xmm2, -32(%rbp)        # 8-byte Spill
	vmovsd	%xmm1, -24(%rbp)        # 8-byte Spill
	vmovsd	%xmm0, -16(%rbp)        # 8-byte Spill
	movq	%rdi, %rbx
	#DEBUG_VALUE: tilt_angle <- $xmm4
	#DEBUG_VALUE: initialize:tilt_angle <- $xmm4
.Ltmp9:
	#DEBUG_VALUE: center_z <- [DW_OP_constu 40, DW_OP_minus] [$rbp+0]
	#DEBUG_VALUE: initialize:center_z <- [DW_OP_constu 40, DW_OP_minus] [$rbp+0]
	#DEBUG_VALUE: center_y <- [DW_OP_constu 32, DW_OP_minus] [$rbp+0]
	#DEBUG_VALUE: initialize:center_y <- [DW_OP_constu 32, DW_OP_minus] [$rbp+0]
	#DEBUG_VALUE: center_x <- [DW_OP_constu 24, DW_OP_minus] [$rbp+0]
	#DEBUG_VALUE: initialize:center_x <- [DW_OP_constu 24, DW_OP_minus] [$rbp+0]
	#DEBUG_VALUE: moment <- [DW_OP_constu 16, DW_OP_minus] [$rbp+0]
	#DEBUG_VALUE: initialize:moment <- [DW_OP_constu 16, DW_OP_minus] [$rbp+0]
	#DEBUG_VALUE:  <- $rbx
	#DEBUG_VALUE: initialize: <- $rbx
	.loc	1 33 1 prologue_end     # backgroundfield/dipole.cpp:33:1
	movb	$1, 20(%rdi)
	.loc	1 34 1                  # backgroundfield/dipole.cpp:34:1
	vmovapd	%xmm4, %xmm0
.Ltmp10:
	#DEBUG_VALUE: tilt_angle <- $xmm0
	#DEBUG_VALUE: initialize:tilt_angle <- $xmm0
	callq	__fd_sincos_1
.Ltmp11:
	.loc	1 0 1 is_stmt 0         # backgroundfield/dipole.cpp:0:1
	vmovsd	-16(%rbp), %xmm3        # 8-byte Reload
                                        # xmm3 = mem[0],zero
.Ltmp12:
	#DEBUG_VALUE: moment <- $xmm3
	#DEBUG_VALUE: initialize:moment <- $xmm3
	.loc	1 34 1                  # backgroundfield/dipole.cpp:34:1
	vmulsd	%xmm3, %xmm0, %xmm0
	vmovapd	.LCPI4_0(%rip), %xmm2   # xmm2 = [-0.0E+0,-0.0E+0]
	vxorpd	%xmm2, %xmm0, %xmm0
	vmovlpd	%xmm0, 24(%rbx)
	.loc	1 35 1 is_stmt 1        # backgroundfield/dipole.cpp:35:1
	movq	$0, 32(%rbx)
	.loc	1 36 1                  # backgroundfield/dipole.cpp:36:1
	vmulsd	%xmm3, %xmm1, %xmm0
	vxorpd	%xmm2, %xmm0, %xmm0
	vmovlpd	%xmm0, 40(%rbx)
	vmovsd	-24(%rbp), %xmm0        # 8-byte Reload
                                        # xmm0 = mem[0],zero
.Ltmp13:
	#DEBUG_VALUE: center_x <- $xmm0
	#DEBUG_VALUE: initialize:center_x <- $xmm0
	.loc	1 37 1                  # backgroundfield/dipole.cpp:37:1
	vmovsd	%xmm0, 48(%rbx)
	vmovsd	-32(%rbp), %xmm0        # 8-byte Reload
                                        # xmm0 = mem[0],zero
.Ltmp14:
	#DEBUG_VALUE: center_y <- $xmm0
	#DEBUG_VALUE: initialize:center_y <- $xmm0
	.loc	1 38 1                  # backgroundfield/dipole.cpp:38:1
	vmovsd	%xmm0, 56(%rbx)
	vmovsd	-40(%rbp), %xmm0        # 8-byte Reload
                                        # xmm0 = mem[0],zero
.Ltmp15:
	#DEBUG_VALUE: center_z <- $xmm0
	#DEBUG_VALUE: initialize:center_z <- $xmm0
	.loc	1 39 1                  # backgroundfield/dipole.cpp:39:1
	vmovsd	%xmm0, 64(%rbx)
	.loc	1 40 1                  # backgroundfield/dipole.cpp:40:1
	addq	$40, %rsp
	popq	%rbx
.Ltmp16:
	popq	%rbp
	.cfi_def_cfa %rsp, 8
	retq
.Ltmp17:
.Lfunc_end4:
	.size	_ZN6Dipole10initializeEddddd, .Lfunc_end4-_ZN6Dipole10initializeEddddd
	.cfi_endproc
                                        # -- End function
	.section	.rodata.cst8,"aM",@progbits,8
	.p2align	3               # -- Begin function _ZNK6Dipole4callEddd
.LCPI5_0:
	.quad	4720717001298091704     # double 40592189.439999998
.LCPI5_1:
	.quad	4613937818241073152     # double 3
.LCPI5_2:
	.quad	4617315517961601024     # double 5
.LCPI5_3:
	.quad	4607182418800017408     # double 1
	.text
	.globl	_ZNK6Dipole4callEddd
	.p2align	4, 0x90
	.type	_ZNK6Dipole4callEddd,@function
_ZNK6Dipole4callEddd:                   # @_ZNK6Dipole4callEddd
.Lfunc_begin5:
	.loc	1 45 0                  # backgroundfield/dipole.cpp:45:0
	.cfi_startproc
# %bb.0:                                # %L.entry
	#DEBUG_VALUE: call: <- $rdi
	#DEBUG_VALUE: call:x <- $xmm0
	#DEBUG_VALUE: call:y <- $xmm1
	#DEBUG_VALUE: call:z <- $xmm2
	pushq	%rbp
	.cfi_def_cfa_offset 16
	.cfi_offset %rbp, -16
	movq	%rsp, %rbp
	.cfi_def_cfa_register %rbp
	vmovapd	%xmm0, %xmm3
.Ltmp18:
	#DEBUG_VALUE: z <- undef
	#DEBUG_VALUE: y <- undef
	#DEBUG_VALUE: x <- undef
	vxorpd	%xmm0, %xmm0, %xmm0
.Ltmp19:
	#DEBUG_VALUE:  <- $rdi
	#DEBUG_VALUE: call:z <- $xmm2
	#DEBUG_VALUE: call:y <- $xmm1
	#DEBUG_VALUE: call:x <- $xmm3
	#DEBUG_VALUE: call: <- $rdi
	.loc	1 47 1 prologue_end     # backgroundfield/dipole.cpp:47:1
	cmpb	$0, 20(%rdi)
	je	.LBB5_4
.Ltmp20:
# %bb.1:                                # %L.B0000
	#DEBUG_VALUE: call:x <- $xmm3
	#DEBUG_VALUE:  <- $rdi
	#DEBUG_VALUE: call:z <- $xmm2
	#DEBUG_VALUE: call:y <- $xmm1
	#DEBUG_VALUE: call: <- $rdi
	.loc	1 51 1                  # backgroundfield/dipole.cpp:51:1
	vunpcklpd	%xmm1, %xmm3, %xmm1 # xmm1 = xmm3[0],xmm1[0]
.Ltmp21:
	vsubpd	48(%rdi), %xmm1, %xmm3
.Ltmp22:
	vmovapd	%xmm3, -32(%rbp)
	.loc	1 53 1                  # backgroundfield/dipole.cpp:53:1
	vsubsd	64(%rdi), %xmm2, %xmm4
	vmovsd	%xmm4, -16(%rbp)
	.loc	1 55 1                  # backgroundfield/dipole.cpp:55:1
	vmulsd	%xmm3, %xmm3, %xmm1
	vpermilpd	$1, %xmm3, %xmm5 # xmm5 = xmm3[1,0]
	vfmadd231sd	%xmm5, %xmm5, %xmm1 # xmm1 = (xmm5 * xmm5) + xmm1
	vfmadd231sd	%xmm4, %xmm4, %xmm1 # xmm1 = (xmm4 * xmm4) + xmm1
.Ltmp23:
	#DEBUG_VALUE: r2 <- $xmm1
	.loc	1 0 1 is_stmt 0         # backgroundfield/dipole.cpp:0:1
	vmovsd	.LCPI5_0(%rip), %xmm2   # xmm2 = mem[0],zero
.Ltmp24:
	.loc	1 57 1 is_stmt 1        # backgroundfield/dipole.cpp:57:1
	vucomisd	%xmm1, %xmm2
	ja	.LBB5_4
.Ltmp25:
# %bb.2:                                # %L.B0001
	#DEBUG_VALUE: r2 <- $xmm1
	#DEBUG_VALUE:  <- $rdi
	#DEBUG_VALUE: call: <- $rdi
	.loc	1 61 1                  # backgroundfield/dipole.cpp:61:1
	vsqrtsd	%xmm1, %xmm1, %xmm2
	vmulsd	%xmm1, %xmm1, %xmm6
	vmulsd	%xmm6, %xmm2, %xmm2
.Ltmp26:
	#DEBUG_VALUE: r5 <- $xmm2
	.loc	1 62 1                  # backgroundfield/dipole.cpp:62:1
	vmulsd	24(%rdi), %xmm3, %xmm3
	vfmadd231sd	32(%rdi), %xmm5, %xmm3 # xmm3 = (xmm5 * mem) + xmm3
	vfmadd231sd	40(%rdi), %xmm4, %xmm3 # xmm3 = (xmm4 * mem) + xmm3
.Ltmp27:
	#DEBUG_VALUE: rdotq <- $xmm3
	.loc	1 64 1                  # backgroundfield/dipole.cpp:64:1
	movl	8(%rdi), %eax
	vmovsd	-32(%rbp,%rax,8), %xmm4 # xmm4 = mem[0],zero
	vmulsd	.LCPI5_1(%rip), %xmm4, %xmm6
	.loc	1 66 1                  # backgroundfield/dipole.cpp:66:1
	movl	16(%rdi), %ecx
	.loc	1 64 1                  # backgroundfield/dipole.cpp:64:1
	vmovsd	24(%rdi,%rax,8), %xmm5  # xmm5 = mem[0],zero
	vmulsd	%xmm5, %xmm1, %xmm7
	vfmsub231sd	%xmm6, %xmm3, %xmm7 # xmm7 = (xmm3 * xmm6) - xmm7
	vdivsd	%xmm2, %xmm7, %xmm6
.Ltmp28:
	#DEBUG_VALUE: B <- $xmm6
	.loc	1 66 1                  # backgroundfield/dipole.cpp:66:1
	testl	%ecx, %ecx
	je	.LBB5_3
.Ltmp29:
# %bb.5:                                # %L.B0001
	#DEBUG_VALUE: B <- $xmm6
	#DEBUG_VALUE: rdotq <- $xmm3
	#DEBUG_VALUE: r5 <- $xmm2
	#DEBUG_VALUE: r2 <- $xmm1
	#DEBUG_VALUE:  <- $rdi
	#DEBUG_VALUE: call: <- $rdi
	cmpl	$1, %ecx
	jne	.LBB5_4
.Ltmp30:
# %bb.6:                                # %L.B0044
	#DEBUG_VALUE: B <- $xmm6
	#DEBUG_VALUE: rdotq <- $xmm3
	#DEBUG_VALUE: r5 <- $xmm2
	#DEBUG_VALUE: r2 <- $xmm1
	#DEBUG_VALUE:  <- $rdi
	#DEBUG_VALUE: call: <- $rdi
	.loc	1 78 1                  # backgroundfield/dipole.cpp:78:1
	vmulsd	.LCPI5_2(%rip), %xmm6, %xmm0
	movl	12(%rdi), %ecx
	vmovsd	-32(%rbp,%rcx,8), %xmm6 # xmm6 = mem[0],zero
.Ltmp31:
	.loc	1 0 1 is_stmt 0         # backgroundfield/dipole.cpp:0:1
	vmovsd	.LCPI5_1(%rip), %xmm8   # xmm8 = mem[0],zero
	.loc	1 78 1                  # backgroundfield/dipole.cpp:78:1
	vmulsd	24(%rdi,%rcx,8), %xmm8, %xmm7
	vmulsd	%xmm6, %xmm0, %xmm0
	vaddsd	%xmm5, %xmm5, %xmm5
	vmulsd	%xmm6, %xmm5, %xmm5
	vfmsub231sd	%xmm7, %xmm4, %xmm5 # xmm5 = (xmm4 * xmm7) - xmm5
	vmulsd	%xmm8, %xmm3, %xmm3
.Ltmp32:
	cmpl	%eax, %ecx
	je	.LBB5_7
.Ltmp33:
# %bb.8:                                # %L.B0044
	#DEBUG_VALUE: r5 <- $xmm2
	#DEBUG_VALUE: r2 <- $xmm1
	#DEBUG_VALUE:  <- $rdi
	#DEBUG_VALUE: call: <- $rdi
	.loc	1 0 1                   # backgroundfield/dipole.cpp:0:1
	vxorpd	%xmm4, %xmm4, %xmm4
	jmp	.LBB5_9
.Ltmp34:
.LBB5_3:
	#DEBUG_VALUE: B <- $xmm6
	#DEBUG_VALUE: rdotq <- $xmm3
	#DEBUG_VALUE: r5 <- $xmm2
	#DEBUG_VALUE: r2 <- $xmm1
	#DEBUG_VALUE:  <- $rdi
	#DEBUG_VALUE: call: <- $rdi
	vmovapd	%xmm6, %xmm0
.Ltmp35:
.LBB5_4:                                # %L.B0038
	#DEBUG_VALUE:  <- $rdi
	#DEBUG_VALUE: call: <- $rdi
	.loc	1 48 1 is_stmt 1        # backgroundfield/dipole.cpp:48:1
	popq	%rbp
	.cfi_def_cfa %rsp, 8
	retq
.Ltmp36:
.LBB5_7:
	.cfi_def_cfa %rbp, 16
	#DEBUG_VALUE: r5 <- $xmm2
	#DEBUG_VALUE: r2 <- $xmm1
	#DEBUG_VALUE:  <- $rdi
	#DEBUG_VALUE: call: <- $rdi
	.loc	1 0 1 is_stmt 0         # backgroundfield/dipole.cpp:0:1
	vmovsd	.LCPI5_3(%rip), %xmm4   # xmm4 = mem[0],zero
.Ltmp37:
.LBB5_9:                                # %L.B0044
	#DEBUG_VALUE: r5 <- $xmm2
	#DEBUG_VALUE: r2 <- $xmm1
	#DEBUG_VALUE:  <- $rdi
	#DEBUG_VALUE: call: <- $rdi
	.loc	1 78 1 is_stmt 1        # backgroundfield/dipole.cpp:78:1
	vfmadd213sd	%xmm5, %xmm3, %xmm4 # xmm4 = (xmm3 * xmm4) + xmm5
	vunpcklpd	%xmm0, %xmm4, %xmm0 # xmm0 = xmm4[0],xmm0[0]
	vunpcklpd	%xmm1, %xmm2, %xmm1 # xmm1 = xmm2[0],xmm1[0]
.Ltmp38:
	vdivpd	%xmm1, %xmm0, %xmm0
	vpermilpd	$1, %xmm0, %xmm1 # xmm1 = xmm0[1,0]
	vsubsd	%xmm1, %xmm0, %xmm0
	popq	%rbp
	.cfi_def_cfa %rsp, 8
	retq
.Ltmp39:
.Lfunc_end5:
	.size	_ZNK6Dipole4callEddd, .Lfunc_end5-_ZNK6Dipole4callEddd
	.cfi_endproc
                                        # -- End function
	.weak	_ZN6DipoleD1Ev          # -- Begin function _ZN6DipoleD1Ev
	.p2align	4, 0x90
	.type	_ZN6DipoleD1Ev,@function
_ZN6DipoleD1Ev:                         # @_ZN6DipoleD1Ev
.Lfunc_begin6:
	.file	4 "/home/talgat/vlasiator/backgroundfield/dipole.hpp"
	.loc	4 44 0                  # backgroundfield/dipole.hpp:44:0
	.cfi_startproc
# %bb.0:                                # %L.entry
	#DEBUG_VALUE: ~Dipole: <- $rdi
	#DEBUG_VALUE: ~Dipole: <- $rdi
	pushq	%rbp
	.cfi_def_cfa_offset 16
	.cfi_offset %rbp, -16
	movq	%rsp, %rbp
	.cfi_def_cfa_register %rbp
.Ltmp40:
	#DEBUG_VALUE:  <- $rdi
	#DEBUG_VALUE:  <- $rdi
	.loc	4 44 1 prologue_end     # backgroundfield/dipole.hpp:44:1
	movq	$_ZTV11T3DFunction+16, (%rdi)
	popq	%rbp
	.cfi_def_cfa %rsp, 8
	retq
.Ltmp41:
.Lfunc_end6:
	.size	_ZN6DipoleD1Ev, .Lfunc_end6-_ZN6DipoleD1Ev
	.cfi_endproc
                                        # -- End function
	.weak	_ZN6DipoleD0Ev          # -- Begin function _ZN6DipoleD0Ev
	.p2align	4, 0x90
	.type	_ZN6DipoleD0Ev,@function
_ZN6DipoleD0Ev:                         # @_ZN6DipoleD0Ev
.Lfunc_begin7:
	.loc	1 0 0                   # backgroundfield/dipole.cpp:0:0
	.cfi_startproc
# %bb.0:                                # %L.entry
	pushq	%rbp
	.cfi_def_cfa_offset 16
	.cfi_offset %rbp, -16
	movq	%rsp, %rbp
	.cfi_def_cfa_register %rbp
.Ltmp42:
	.loc	1 44 1 prologue_end     # backgroundfield/dipole.cpp:44:1
	movl	$72, %esi
	popq	%rbp
	.cfi_def_cfa %rsp, 8
	jmp	_ZdlPvm                 # TAILCALL
.Ltmp43:
.Lfunc_end7:
	.size	_ZN6DipoleD0Ev, .Lfunc_end7-_ZN6DipoleD0Ev
	.cfi_endproc
                                        # -- End function
	.globl	__sti___26_backgroundfield_dipole_cpp_41c6b7aa # -- Begin function __sti___26_backgroundfield_dipole_cpp_41c6b7aa
	.p2align	4, 0x90
	.type	__sti___26_backgroundfield_dipole_cpp_41c6b7aa,@function
__sti___26_backgroundfield_dipole_cpp_41c6b7aa: # @__sti___26_backgroundfield_dipole_cpp_41c6b7aa
.Lfunc_begin8:
	.loc	1 0 0                   # backgroundfield/dipole.cpp:0:0
	.cfi_startproc
# %bb.0:                                # %L.entry
	pushq	%rbp
	.cfi_def_cfa_offset 16
	.cfi_offset %rbp, -16
	movq	%rsp, %rbp
	.cfi_def_cfa_register %rbp
.Ltmp44:
	.loc	1 74 1 prologue_end     # backgroundfield/dipole.cpp:74:1
	cmpl	$1, __I___26_backgroundfield_dipole_cpp_41c6b7aa(%rip)
	jne	.LBB8_2
# %bb.1:                                # %L.B0011
	popq	%rbp
	.cfi_def_cfa %rsp, 8
	retq
.LBB8_2:                                # %L.B0052
	.cfi_def_cfa %rbp, 16
	movl	$1, __I___26_backgroundfield_dipole_cpp_41c6b7aa(%rip)
	movl	$_ZN48_INTERNAL_26_backgroundfield_dipole_cpp_41c6b7aaSt8__ioinitE, %edi
	callq	_ZNSt8ios_base4InitC1Ev
	movl	$_ZNSt8ios_base4InitD1Ev, %edi
	movl	$_ZN48_INTERNAL_26_backgroundfield_dipole_cpp_41c6b7aaSt8__ioinitE, %esi
	movl	$__dso_handle, %edx
	popq	%rbp
	.cfi_def_cfa %rsp, 8
	jmp	__cxa_atexit            # TAILCALL
.Ltmp45:
.Lfunc_end8:
	.size	__sti___26_backgroundfield_dipole_cpp_41c6b7aa, .Lfunc_end8-__sti___26_backgroundfield_dipole_cpp_41c6b7aa
	.cfi_endproc
                                        # -- End function
	.type	_ZTV11T3DFunction,@object # @_ZTV11T3DFunction
	.data
	.weak	_ZTV11T3DFunction
	.p2align	4
_ZTV11T3DFunction:
	.quad	0
	.quad	_ZTI11T3DFunction
	.quad	__cxa_pure_virtual
	.quad	_ZN11T3DFunctionD1Ev
	.quad	_ZN11T3DFunctionD0Ev
	.size	_ZTV11T3DFunction, 40

	.type	_ZTV13FieldFunction,@object # @_ZTV13FieldFunction
	.weak	_ZTV13FieldFunction
	.p2align	4
_ZTV13FieldFunction:
	.quad	0
	.quad	_ZTI13FieldFunction
	.quad	__cxa_pure_virtual
	.quad	_ZN13FieldFunctionD1Ev
	.quad	_ZN13FieldFunctionD0Ev
	.size	_ZTV13FieldFunction, 40

	.type	_ZTV6Dipole,@object     # @_ZTV6Dipole
	.weak	_ZTV6Dipole
	.p2align	4
_ZTV6Dipole:
	.quad	0
	.quad	_ZTI6Dipole
	.quad	_ZNK6Dipole4callEddd
	.quad	_ZN6DipoleD1Ev
	.quad	_ZN6DipoleD0Ev
	.size	_ZTV6Dipole, 40

	.type	_ZTI11T3DFunction,@object # @_ZTI11T3DFunction
	.weak	_ZTI11T3DFunction
	.p2align	4
_ZTI11T3DFunction:
	.quad	_ZTVN10__cxxabiv117__class_type_infoE+16
	.quad	_ZTS11T3DFunction
	.size	_ZTI11T3DFunction, 16

	.type	_ZTI13FieldFunction,@object # @_ZTI13FieldFunction
	.weak	_ZTI13FieldFunction
	.p2align	4
_ZTI13FieldFunction:
	.quad	_ZTVN10__cxxabiv120__si_class_type_infoE+16
	.quad	_ZTS13FieldFunction
	.quad	_ZTI11T3DFunction
	.size	_ZTI13FieldFunction, 24

	.type	_ZTI6Dipole,@object     # @_ZTI6Dipole
	.weak	_ZTI6Dipole
	.p2align	4
_ZTI6Dipole:
	.quad	_ZTVN10__cxxabiv120__si_class_type_infoE+16
	.quad	_ZTS6Dipole
	.quad	_ZTI13FieldFunction
	.size	_ZTI6Dipole, 24

	.type	_ZTS11T3DFunction,@object # @_ZTS11T3DFunction
	.weak	_ZTS11T3DFunction
	.p2align	3
_ZTS11T3DFunction:
	.asciz	"11T3DFunction"
	.size	_ZTS11T3DFunction, 14

	.type	_ZTS13FieldFunction,@object # @_ZTS13FieldFunction
	.weak	_ZTS13FieldFunction
	.p2align	4
_ZTS13FieldFunction:
	.asciz	"13FieldFunction"
	.size	_ZTS13FieldFunction, 16

	.type	_ZTS6Dipole,@object     # @_ZTS6Dipole
	.weak	_ZTS6Dipole
	.p2align	3
_ZTS6Dipole:
	.asciz	"6Dipole"
	.size	_ZTS6Dipole, 8

	.type	__I___26_backgroundfield_dipole_cpp_41c6b7aa,@object # @__I___26_backgroundfield_dipole_cpp_41c6b7aa
	.bss
	.globl	__I___26_backgroundfield_dipole_cpp_41c6b7aa
	.p2align	2
__I___26_backgroundfield_dipole_cpp_41c6b7aa:
	.long	0                       # 0x0
	.size	__I___26_backgroundfield_dipole_cpp_41c6b7aa, 4

	.type	_ZN48_INTERNAL_26_backgroundfield_dipole_cpp_41c6b7aaSt8__ioinitE,@object # @_ZN48_INTERNAL_26_backgroundfield_dipole_cpp_41c6b7aaSt8__ioinitE
	.local	_ZN48_INTERNAL_26_backgroundfield_dipole_cpp_41c6b7aaSt8__ioinitE
	.comm	_ZN48_INTERNAL_26_backgroundfield_dipole_cpp_41c6b7aaSt8__ioinitE,1,1
	.section	.init_array,"aw",@init_array
	.p2align	3
	.quad	__sti___26_backgroundfield_dipole_cpp_41c6b7aa
	.section	".note.GNU-stack","",@progbits