; ModuleID = 'projects/Dispersion/Dispersion.cpp'
target datalayout = "e-p:64:64-i64:64-f80:128-n8:16:32:64-S128"
target triple = "x86_64-pc-linux-gnu"
define internal void @pgCplus_compiled.() noinline {
L.entry:
	ret void
}


define linkonce_odr i8* @_ZnwmPv(i64 %_T15493344_53734.arg, i8* %__p.arg) #0 inlinehint !dbg !4800 {
L.entry:
	%_T15493344_53734.addr = alloca i64, align 8
	%__p.addr = alloca i8*, align 8

	call void @llvm.dbg.declare (metadata i64* %_T15493344_53734.addr, metadata !4804, metadata !4805), !dbg !4801
	store i64 %_T15493344_53734.arg, i64* %_T15493344_53734.addr, align 8, !tbaa !4812
	call void @llvm.dbg.declare (metadata i64* %_T15493344_53734.addr, metadata !4806, metadata !4805), !dbg !4801
	call void @llvm.dbg.declare (metadata i8** %__p.addr, metadata !4807, metadata !4805), !dbg !4801
	store i8* %__p.arg, i8** %__p.addr, align 8, !tbaa !4813
	call void @llvm.dbg.declare (metadata i8** %__p.addr, metadata !4808, metadata !4805), !dbg !4801
	%0 = load i8*, i8** %__p.addr, align 8, !tbaa !4813, !dbg !4809
	ret i8*  %0, !dbg !4809
}
define linkonce_odr void @_ZdlPvS_(i8* %_T15493344_53735.arg, i8* %_T15493640_53735.arg) #0 inlinehint !dbg !4817 {
L.entry:
	%_T15493344_53735.addr = alloca i8*, align 8
	%_T15493640_53735.addr = alloca i8*, align 8

	call void @llvm.dbg.declare (metadata i8** %_T15493344_53735.addr, metadata !4821, metadata !4805), !dbg !4818
	store i8* %_T15493344_53735.arg, i8** %_T15493344_53735.addr, align 8, !tbaa !4813
	call void @llvm.dbg.declare (metadata i8** %_T15493344_53735.addr, metadata !4822, metadata !4805), !dbg !4818
	call void @llvm.dbg.declare (metadata i8** %_T15493640_53735.addr, metadata !4823, metadata !4805), !dbg !4818
	store i8* %_T15493640_53735.arg, i8** %_T15493640_53735.addr, align 8, !tbaa !4813
	call void @llvm.dbg.declare (metadata i8** %_T15493640_53735.addr, metadata !4824, metadata !4805), !dbg !4818
	ret void, !dbg !4825
}

%struct.T3DFunction = type <{ i32 (...)* (...)*}> 

define linkonce_odr void @_ZN11T3DFunctionD1Ev(%struct.T3DFunction* %_T15493344_54129.arg) #0 inlinehint !dbg !4831 {
L.entry:
	%_T15493344_54129.addr = alloca %struct.T3DFunction*, align 8

	call void @llvm.dbg.declare (metadata %struct.T3DFunction** %_T15493344_54129.addr, metadata !4835, metadata !4805), !dbg !4832
	store %struct.T3DFunction* %_T15493344_54129.arg, %struct.T3DFunction** %_T15493344_54129.addr, align 8, !tbaa !4813
	call void @llvm.dbg.declare (metadata %struct.T3DFunction** %_T15493344_54129.addr, metadata !4836, metadata !4805), !dbg !4832
	%0 = bitcast [5 x i32 (...)* (...)*]* @_ZTV11T3DFunction to i8*, !dbg !4837
	%1 = getelementptr i8, i8*  %0, i64 16, !dbg !4837
	%2 = load %struct.T3DFunction*, %struct.T3DFunction** %_T15493344_54129.addr, align 8, !tbaa !4813, !dbg !4837
	%3 = bitcast %struct.T3DFunction*  %2 to i8**, !dbg !4837
	store i8*  %1, i8**  %3, align 8, !tbaa !4813, !dbg !4837
	ret void, !dbg !4837
}
define linkonce_odr void @_ZN11T3DFunctionD0Ev(%struct.T3DFunction* %_T15493344_54130.arg) #0 inlinehint !dbg !4842 {
L.entry:
	%_T15493344_54130.addr = alloca %struct.T3DFunction*, align 8

	store %struct.T3DFunction* %_T15493344_54130.arg, %struct.T3DFunction** %_T15493344_54130.addr, align 8, !tbaa !4813
	%0 = bitcast [5 x i32 (...)* (...)*]* @_ZTV11T3DFunction to i8*, !dbg !4850
	%1 = getelementptr i8, i8*  %0, i64 16, !dbg !4850
	%2 = load %struct.T3DFunction*, %struct.T3DFunction** %_T15493344_54130.addr, align 8, !tbaa !4813, !dbg !4850
	%3 = bitcast %struct.T3DFunction*  %2 to i8**, !dbg !4850
	store i8*  %1, i8**  %3, align 8, !tbaa !4813, !dbg !4850
	%4 = bitcast %struct.T3DFunction*  %2 to i8*, !dbg !4850
	call void  @_ZdlPvm (i8*  %4, i64 8) nounwind, !dbg !4850
	ret void, !dbg !4850
}
define linkonce_odr void @_ZN11T3DFunctionD2Ev(%struct.T3DFunction* %_T15493344_54131.arg) #0 inlinehint !dbg !4852 {
L.entry:
	%_T15493344_54131.addr = alloca %struct.T3DFunction*, align 8

	store %struct.T3DFunction* %_T15493344_54131.arg, %struct.T3DFunction** %_T15493344_54131.addr, align 8, !tbaa !4813
	%0 = bitcast [5 x i32 (...)* (...)*]* @_ZTV11T3DFunction to i8*, !dbg !4860
	%1 = getelementptr i8, i8*  %0, i64 16, !dbg !4860
	%2 = load %struct.T3DFunction*, %struct.T3DFunction** %_T15493344_54131.addr, align 8, !tbaa !4813, !dbg !4860
	%3 = bitcast %struct.T3DFunction*  %2 to i8**, !dbg !4860
	store i8*  %1, i8**  %3, align 8, !tbaa !4813, !dbg !4860
	ret void, !dbg !4860
}
define linkonce_odr void @_ZN11T3DFunctionC1Ev(%struct.T3DFunction* %_T15493344_54132.arg) #0 inlinehint !dbg !4862 {
L.entry:
	%_T15493344_54132.addr = alloca %struct.T3DFunction*, align 8

	call void @llvm.dbg.declare (metadata %struct.T3DFunction** %_T15493344_54132.addr, metadata !4866, metadata !4805), !dbg !4863
	store %struct.T3DFunction* %_T15493344_54132.arg, %struct.T3DFunction** %_T15493344_54132.addr, align 8, !tbaa !4813
	call void @llvm.dbg.declare (metadata %struct.T3DFunction** %_T15493344_54132.addr, metadata !4867, metadata !4805), !dbg !4863
	%0 = bitcast [5 x i32 (...)* (...)*]* @_ZTV11T3DFunction to i8*, !dbg !4868
	%1 = getelementptr i8, i8*  %0, i64 16, !dbg !4868
	%2 = load %struct.T3DFunction*, %struct.T3DFunction** %_T15493344_54132.addr, align 8, !tbaa !4813, !dbg !4868
	%3 = bitcast %struct.T3DFunction*  %2 to i8**, !dbg !4868
	store i8*  %1, i8**  %3, align 8, !tbaa !4813, !dbg !4868
	ret void, !dbg !4868
}
define linkonce_odr void @_ZN11T3DFunctionC2Ev(%struct.T3DFunction* %_T15493344_54133.arg) #0 inlinehint !dbg !4870 {
L.entry:
	%_T15493344_54133.addr = alloca %struct.T3DFunction*, align 8

	store %struct.T3DFunction* %_T15493344_54133.arg, %struct.T3DFunction** %_T15493344_54133.addr, align 8, !tbaa !4813
	%0 = bitcast [5 x i32 (...)* (...)*]* @_ZTV11T3DFunction to i8*, !dbg !4878
	%1 = getelementptr i8, i8*  %0, i64 16, !dbg !4878
	%2 = load %struct.T3DFunction*, %struct.T3DFunction** %_T15493344_54133.addr, align 8, !tbaa !4813, !dbg !4878
	%3 = bitcast %struct.T3DFunction*  %2 to i8**, !dbg !4878
	store i8*  %1, i8**  %3, align 8, !tbaa !4813, !dbg !4878
	ret void, !dbg !4878
}

%astruct.dt64 = type <{ i8*, i32}> 
%struct.FieldFunction = type <{ %struct.T3DFunction, i32, i32, i32, [4 x i8]}> 

define linkonce_odr void @_ZN13FieldFunctionC1Ev(%struct.FieldFunction* %_T15493344_54134.arg) #0 inlinehint personality i8* bitcast (i32 (...)* @__gxx_personality_v0 to i8*) !dbg !4885 {
L.entry:
	%_T15493344_54134.addr = alloca %struct.FieldFunction*, align 8

	call void @llvm.dbg.declare (metadata %struct.FieldFunction** %_T15493344_54134.addr, metadata !4941, metadata !4805), !dbg !4886
	store %struct.FieldFunction* %_T15493344_54134.arg, %struct.FieldFunction** %_T15493344_54134.addr, align 8, !tbaa !4813
	call void @llvm.dbg.declare (metadata %struct.FieldFunction** %_T15493344_54134.addr, metadata !4942, metadata !4805), !dbg !4886
	%0 = bitcast [5 x i32 (...)* (...)*]* @_ZTV11T3DFunction to i8*, !dbg !4943
	%1 = getelementptr i8, i8*  %0, i64 16, !dbg !4943
	%2 = load %struct.FieldFunction*, %struct.FieldFunction** %_T15493344_54134.addr, align 8, !tbaa !4813, !dbg !4943
	%3 = bitcast %struct.FieldFunction*  %2 to i8**, !dbg !4943
	store i8*  %1, i8**  %3, align 8, !tbaa !4813, !dbg !4943
	%4 = bitcast [5 x i32 (...)* (...)*]* @_ZTV13FieldFunction to i8*, !dbg !4943
	%5 = getelementptr i8, i8*  %4, i64 16, !dbg !4943
	store i8*  %5, i8**  %3, align 8, !tbaa !4813, !dbg !4943
	%6 = bitcast %struct.FieldFunction*  %2 to i8*, !dbg !4946
	%7 = getelementptr i8, i8*  %6, i64 8, !dbg !4946
	%8 = bitcast i8*  %7 to i32*, !dbg !4946
	store i32 0, i32*  %8, align 4, !tbaa !4812, !dbg !4946
	%9 = getelementptr i8, i8*  %6, i64 12, !dbg !4947
	%10 = bitcast i8*  %9 to i32*, !dbg !4947
	store i32 0, i32*  %10, align 4, !tbaa !4812, !dbg !4947
	%11 = getelementptr i8, i8*  %6, i64 16, !dbg !4948
	%12 = bitcast i8*  %11 to i32*, !dbg !4948
	store i32 0, i32*  %12, align 4, !tbaa !4812, !dbg !4948
	br label %L.R0007, !dbg !4948
L_T15494232_54134:
	%13 = landingpad %astruct.dt64
	cleanup
	br label %L.R0007
L.R0007:
	ret void, !dbg !4949
}
define linkonce_odr void @_ZN13FieldFunctionC2Ev(%struct.FieldFunction* %_T15493344_54135.arg) #0 inlinehint !dbg !4951 {
L.entry:
	%_T15493344_54135.addr = alloca %struct.FieldFunction*, align 8

	store %struct.FieldFunction* %_T15493344_54135.arg, %struct.FieldFunction** %_T15493344_54135.addr, align 8, !tbaa !4813
	%0 = load %struct.FieldFunction*, %struct.FieldFunction** %_T15493344_54135.addr, align 8, !tbaa !4813, !dbg !4955
	call void  @_ZN13FieldFunctionC1Ev (%struct.FieldFunction*  %0), !dbg !4955
	ret void, !dbg !4955
}
define linkonce_odr void @_ZN13FieldFunction12setComponentE10coordinate(%struct.FieldFunction* %_T15493344_54136.arg, i32 zeroext %fComponent.arg) #0 inlinehint !dbg !4959 {
L.entry:
	%_T15493344_54136.addr = alloca %struct.FieldFunction*, align 8
	%fComponent.addr = alloca i32, align 4

	call void @llvm.dbg.declare (metadata %struct.FieldFunction** %_T15493344_54136.addr, metadata !4963, metadata !4805), !dbg !4960
	store %struct.FieldFunction* %_T15493344_54136.arg, %struct.FieldFunction** %_T15493344_54136.addr, align 8, !tbaa !4813
	call void @llvm.dbg.declare (metadata %struct.FieldFunction** %_T15493344_54136.addr, metadata !4964, metadata !4805), !dbg !4960
	call void @llvm.dbg.declare (metadata i32* %fComponent.addr, metadata !4965, metadata !4805), !dbg !4960
	store i32 %fComponent.arg, i32* %fComponent.addr, align 4, !tbaa !4812
	call void @llvm.dbg.declare (metadata i32* %fComponent.addr, metadata !4966, metadata !4805), !dbg !4960
	%0 = load i32, i32* %fComponent.addr, align 4, !tbaa !4812, !dbg !4967
	%1 = load %struct.FieldFunction*, %struct.FieldFunction** %_T15493344_54136.addr, align 8, !tbaa !4813, !dbg !4967
	%2 = bitcast %struct.FieldFunction*  %1 to i8*, !dbg !4967
	%3 = getelementptr i8, i8*  %2, i64 8, !dbg !4967
	%4 = bitcast i8*  %3 to i32*, !dbg !4967
	store i32  %0, i32*  %4, align 4, !tbaa !4812, !dbg !4967
	ret void, !dbg !4967
}
define linkonce_odr void @_ZN13FieldFunction17setDerivComponentE10coordinate(%struct.FieldFunction* %_T15493344_54137.arg, i32 zeroext %dComponent.arg) #0 inlinehint !dbg !4969 {
L.entry:
	%_T15493344_54137.addr = alloca %struct.FieldFunction*, align 8
	%dComponent.addr = alloca i32, align 4

	call void @llvm.dbg.declare (metadata %struct.FieldFunction** %_T15493344_54137.addr, metadata !4973, metadata !4805), !dbg !4970
	store %struct.FieldFunction* %_T15493344_54137.arg, %struct.FieldFunction** %_T15493344_54137.addr, align 8, !tbaa !4813
	call void @llvm.dbg.declare (metadata %struct.FieldFunction** %_T15493344_54137.addr, metadata !4974, metadata !4805), !dbg !4970
	call void @llvm.dbg.declare (metadata i32* %dComponent.addr, metadata !4975, metadata !4805), !dbg !4970
	store i32 %dComponent.arg, i32* %dComponent.addr, align 4, !tbaa !4812
	call void @llvm.dbg.declare (metadata i32* %dComponent.addr, metadata !4976, metadata !4805), !dbg !4970
	%0 = load i32, i32* %dComponent.addr, align 4, !tbaa !4812, !dbg !4977
	%1 = load %struct.FieldFunction*, %struct.FieldFunction** %_T15493344_54137.addr, align 8, !tbaa !4813, !dbg !4977
	%2 = bitcast %struct.FieldFunction*  %1 to i8*, !dbg !4977
	%3 = getelementptr i8, i8*  %2, i64 12, !dbg !4977
	%4 = bitcast i8*  %3 to i32*, !dbg !4977
	store i32  %0, i32*  %4, align 4, !tbaa !4812, !dbg !4977
	ret void, !dbg !4977
}

%struct._ZNSt6locale5_ImplE = type <{ i32, [4 x i8], %struct._ZNSt6locale5facetE**, i64, %struct._ZNSt6locale5facetE**, i8**}> 
%struct._ZSt15basic_streambufIcSt11char_traitsIcEE = type <{ i32 (...)* (...)*, i8*, i8*, i8*, i8*, i8*, i8*, %struct._ZSt6locale}> 
%struct._ZSt9basic_iosIcSt11char_traitsIcEE = type <{ %struct._ZSt8ios_base, %struct._ZSo*, i8, i8, [6 x i8], %struct._ZSt15basic_streambufIcSt11char_traitsIcEE*, %struct._ZSt5ctypeIcE*, %struct._ZSt7num_putIcSt19ostreambuf_iteratorIcSt11char_traitsIcEEE*, %struct._ZSt7num_getIcSt19istreambuf_iteratorIcSt11char_traitsIcEEE*}> 
%struct._ZSo = type <{ i32 (...)* (...)*, %struct._ZSt9basic_iosIcSt11char_traitsIcEE}> 
%struct.__SO__NSt6locale5facetE = type <{ i32 (...)* (...)*, i32}> 
%struct._ZNSt6locale5facetE = type <{ i32 (...)* (...)*, i32, [4 x i8]}> 
%struct._ZSt7num_putIcSt19ostreambuf_iteratorIcSt11char_traitsIcEEE = type <{ %struct.__SO__NSt6locale5facetE, [4 x i8]}> 
%struct._ZSt6locale = type <{ %struct._ZNSt6locale5_ImplE*}> 
%struct._ZSt7num_getIcSt19istreambuf_iteratorIcSt11char_traitsIcEEE = type <{ %struct.__SO__NSt6locale5facetE, [4 x i8]}> 
%struct.__locale_struct = type <{ [13 x %struct.__locale_data*], i16*, i32*, i32*, [13 x i8*]}> 
%struct._ZSt8ios_base = type <{ i32 (...)* (...)*, i64, i64, i32, i32, i32, [4 x i8], %struct._ZNSt8ios_base14_Callback_listE*, %struct._ZNSt8ios_base6_WordsE, [8 x %struct._ZNSt8ios_base6_WordsE], i32, [4 x i8], %struct._ZNSt8ios_base6_WordsE*, %struct._ZSt6locale}> 
%struct._ZSt5ctypeIcE = type <{ %struct.__SO__NSt6locale5facetE, [4 x i8], %struct.__locale_struct*, i8, [7 x i8], i32*, i32*, i16*, i8, [256 x i8], [256 x i8], i8, [6 x i8]}> 
%struct.__locale_data = type opaque
%struct._ZNSt8ios_base14_Callback_listE = type <{ %struct._ZNSt8ios_base14_Callback_listE*, void (i32, %struct._ZSt8ios_base*, i32)*, i32, i32}> 
%struct._ZNSt8ios_base6_WordsE = type <{ i8*, i64}> 

define linkonce_odr void @_ZN13FieldFunction13setDerivativeEj(%struct.FieldFunction* %_T15493528_54138.arg, i32 zeroext %derivative.arg) #0 inlinehint !dbg !4981 {
L.entry:
	%_T15493528_54138.addr = alloca %struct.FieldFunction*, align 8
	%derivative.addr = alloca i32, align 4
	%..inline.addr = alloca %struct._ZSt9basic_iosIcSt11char_traitsIcEE*, align 8
	%..inline.addr.1 = alloca %struct._ZSt9basic_iosIcSt11char_traitsIcEE*, align 8
	%..inline.addr.2 = alloca i32, align 4
	%..inline.addr.3 = alloca i64, align 8
	%.Q0003.addr = alloca %struct._ZSo*, align 8
	%..inline.addr.4 = alloca i32, align 4
	%.Q0004.addr = alloca %struct._ZSo*, align 8
	%..inline.addr.5 = alloca %struct._ZSo*, align 8
	%.Q0005.addr = alloca %struct._ZSo*, align 8

	call void @llvm.dbg.declare (metadata %struct.FieldFunction** %_T15493528_54138.addr, metadata !5013, metadata !4805), !dbg !4982
	store %struct.FieldFunction* %_T15493528_54138.arg, %struct.FieldFunction** %_T15493528_54138.addr, align 8, !tbaa !4813
	call void @llvm.dbg.declare (metadata %struct.FieldFunction** %_T15493528_54138.addr, metadata !5014, metadata !4805), !dbg !4982
	call void @llvm.dbg.declare (metadata i32* %derivative.addr, metadata !5015, metadata !4805), !dbg !4982
	store i32 %derivative.arg, i32* %derivative.addr, align 4, !tbaa !4812
	call void @llvm.dbg.declare (metadata i32* %derivative.addr, metadata !5016, metadata !4805), !dbg !4982
	%0 = load i32, i32* %derivative.addr, align 4, !tbaa !5030, !dbg !5017
	%1 = load %struct.FieldFunction*, %struct.FieldFunction** %_T15493528_54138.addr, align 8, !tbaa !4813, !dbg !5017
	%2 = bitcast %struct.FieldFunction*  %1 to i8*, !dbg !5017
	%3 = getelementptr i8, i8*  %2, i64 16, !dbg !5017
	%4 = bitcast i8*  %3 to i32*, !dbg !5017
	store i32  %0, i32*  %4, align 4, !tbaa !4812, !dbg !5017
	%5 = icmp ule i32  %0, 1, !dbg !5018
	br i1  %5, label %L.B0000, label %L.B0001, !dbg !5018
L.B0001:
	%6 = bitcast [36 x i8]* @.S55868 to i8*, !dbg !5019
	%7 = icmp ne i8*  %6,  null, !dbg !5019
	br i1  %7, label %L..inline.77509, label %L.B1639, !dbg !5019
L.B1639:
	%8 = bitcast %struct._ZSo* @_ZSt4cerr to i8*, !dbg !5020
	%9 = bitcast %struct._ZSo* @_ZSt4cerr to i8**, !dbg !5020
	%10 = load i8*, i8**  %9, align 8, !tbaa !4813, !dbg !5020
	%11 = getelementptr i8, i8*  %10, i64 18446744073709551592, !dbg !5020
	%12 = bitcast i8*  %11 to i64*, !dbg !5020
	%13 = load i64, i64*  %12, align 8, !tbaa !4812, !dbg !5020
	%14 = getelementptr i8, i8*  %8, i64  %13, !dbg !5020
	%15 = bitcast %struct._ZSt9basic_iosIcSt11char_traitsIcEE** %..inline.addr to i8**, !dbg !5020
	store i8*  %14, i8**  %15, align 8, !tbaa !4813, !dbg !5020
	%16 = load %struct._ZSt9basic_iosIcSt11char_traitsIcEE*, %struct._ZSt9basic_iosIcSt11char_traitsIcEE** %..inline.addr, align 8, !tbaa !4813, !dbg !5020
	%17 = bitcast %struct._ZSt9basic_iosIcSt11char_traitsIcEE*  %16 to i8*, !dbg !5020
	%18 = bitcast %struct._ZSt9basic_iosIcSt11char_traitsIcEE** %..inline.addr.1 to i8**, !dbg !5020
	store i8*  %17, i8**  %18, align 8, !tbaa !4813, !dbg !5020
	%19 = load %struct._ZSt9basic_iosIcSt11char_traitsIcEE*, %struct._ZSt9basic_iosIcSt11char_traitsIcEE** %..inline.addr.1, align 8, !tbaa !4813, !dbg !5020
	%20 = bitcast %struct._ZSt9basic_iosIcSt11char_traitsIcEE*  %19 to i8*, !dbg !5020
	%21 = getelementptr i8, i8*  %20, i64 32, !dbg !5020
	%22 = bitcast i8*  %21 to i32*, !dbg !5020
	%23 = load i32, i32*  %22, align 4, !tbaa !4812, !dbg !5020
	%24 = or i32  %23, 1, !dbg !5020
	call void  @_ZNSt9basic_iosIcSt11char_traitsIcEE5clearESt12_Ios_Iostate (%struct._ZSt9basic_iosIcSt11char_traitsIcEE*  %16, i32  %24), !dbg !5020
	br label %L..inline.77530, !dbg !5020
L..inline.77509:
	%25 = bitcast [36 x i8]* @.S55868 to i8*, !dbg !5023
	%26 = call i64  @strlen (i8*  %25) nounwind, !dbg !5023
	%27 = call %struct._ZSo*  @_ZSt16__ostream_insertIcSt11char_traitsIcEERSt13basic_ostreamIT_T0_ES6_PKS3_l (%struct._ZSo* @_ZSt4cerr, i8*  %25, i64  %26), !dbg !5023
	%28 = bitcast %struct._ZSo*  %27 to i8*, !dbg !5023
	%29 = bitcast %struct._ZSo** %.Q0003.addr to i8**, !dbg !5023
	store i8*  %28, i8**  %29, align 8, !tbaa !4813, !dbg !5023
	br label %L..inline.77530
L..inline.77530:
	%30 = load i32, i32* %derivative.addr, align 4, !tbaa !5030, !dbg !5024
	%31 = zext i32  %30 to i64, !dbg !5025
	%32 = call %struct._ZSo*  @_ZNSo9_M_insertImEERSoT_ (%struct._ZSo* @_ZSt4cerr, i64  %31), !dbg !5025
	%33 = bitcast %struct._ZSo*  %32 to i8*, !dbg !5025
	%34 = bitcast %struct._ZSo** %.Q0004.addr to i8**, !dbg !5025
	store i8*  %33, i8**  %34, align 8, !tbaa !4813, !dbg !5025
	%35 = load %struct._ZSo*, %struct._ZSo** %.Q0004.addr, align 8, !tbaa !4813, !dbg !5025
	%36 = bitcast %struct._ZSo*  %35 to i8*, !dbg !5025
	%37 = bitcast %struct._ZSo** %..inline.addr.5 to i8**, !dbg !5025
	store i8*  %36, i8**  %37, align 8, !tbaa !4813, !dbg !5025
	%38 = load %struct._ZSo*, %struct._ZSo** %..inline.addr.5, align 8, !tbaa !4813, !dbg !5026
	%39 = call %struct._ZSo*  @_ZSt4endlIcSt11char_traitsIcEERSt13basic_ostreamIT_T0_ES6_ (%struct._ZSo*  %38), !dbg !5026
	%40 = bitcast %struct._ZSo*  %39 to i8*, !dbg !5026
	%41 = bitcast %struct._ZSo** %.Q0005.addr to i8**, !dbg !5026
	store i8*  %40, i8**  %41, align 8, !tbaa !4813, !dbg !5026
	call void  @exit (i32 1) nounwind noreturn, !dbg !5027
	br label %L.B0002
L.B0002:
	br label %L.B0000
L.B0000:
	ret void, !dbg !5028
}
define linkonce_odr void @_ZN13FieldFunctionD1Ev(%struct.FieldFunction* %_T15493344_54139.arg) #0 inlinehint !dbg !5032 {
L.entry:
	%_T15493344_54139.addr = alloca %struct.FieldFunction*, align 8

	call void @llvm.dbg.declare (metadata %struct.FieldFunction** %_T15493344_54139.addr, metadata !5044, metadata !4805), !dbg !5033
	store %struct.FieldFunction* %_T15493344_54139.arg, %struct.FieldFunction** %_T15493344_54139.addr, align 8, !tbaa !4813
	call void @llvm.dbg.declare (metadata %struct.FieldFunction** %_T15493344_54139.addr, metadata !5045, metadata !4805), !dbg !5033
	%0 = bitcast [5 x i32 (...)* (...)*]* @_ZTV13FieldFunction to i8*, !dbg !5046
	%1 = getelementptr i8, i8*  %0, i64 16, !dbg !5046
	%2 = load %struct.FieldFunction*, %struct.FieldFunction** %_T15493344_54139.addr, align 8, !tbaa !4813, !dbg !5046
	%3 = bitcast %struct.FieldFunction*  %2 to i8**, !dbg !5046
	store i8*  %1, i8**  %3, align 8, !tbaa !4813, !dbg !5046
	%4 = bitcast [5 x i32 (...)* (...)*]* @_ZTV11T3DFunction to i8*, !dbg !5046
	%5 = getelementptr i8, i8*  %4, i64 16, !dbg !5046
	store i8*  %5, i8**  %3, align 8, !tbaa !4813, !dbg !5046
	ret void, !dbg !5047
}
define linkonce_odr void @_ZN13FieldFunctionD0Ev(%struct.FieldFunction* %_T15493344_54140.arg) #0 inlinehint !dbg !5049 {
L.entry:
	%_T15493344_54140.addr = alloca %struct.FieldFunction*, align 8
	%..inline.addr = alloca %struct.FieldFunction*, align 8

	store %struct.FieldFunction* %_T15493344_54140.arg, %struct.FieldFunction** %_T15493344_54140.addr, align 8, !tbaa !4813
	%0 = load %struct.FieldFunction*, %struct.FieldFunction** %_T15493344_54140.addr, align 8, !tbaa !4813, !dbg !5065
	%1 = bitcast %struct.FieldFunction*  %0 to i8*, !dbg !5065
	%2 = bitcast %struct.FieldFunction** %..inline.addr to i8**, !dbg !5065
	store i8*  %1, i8**  %2, align 8, !tbaa !4813, !dbg !5065
	%3 = bitcast [5 x i32 (...)* (...)*]* @_ZTV13FieldFunction to i8*, !dbg !5065
	%4 = getelementptr i8, i8*  %3, i64 16, !dbg !5065
	%5 = load %struct.FieldFunction*, %struct.FieldFunction** %..inline.addr, align 8, !tbaa !4813, !dbg !5065
	%6 = bitcast %struct.FieldFunction*  %5 to i8**, !dbg !5065
	store i8*  %4, i8**  %6, align 8, !tbaa !4813, !dbg !5065
	%7 = bitcast [5 x i32 (...)* (...)*]* @_ZTV11T3DFunction to i8*, !dbg !5065
	%8 = getelementptr i8, i8*  %7, i64 16, !dbg !5065
	store i8*  %8, i8**  %6, align 8, !tbaa !4813, !dbg !5065
	call void  @_ZdlPvm (i8*  %1, i64 24) nounwind, !dbg !5065
	ret void, !dbg !5065
}
define linkonce_odr void @_ZN13FieldFunctionD2Ev(%struct.FieldFunction* %_T15493344_54141.arg) #0 inlinehint !dbg !5067 {
L.entry:
	%_T15493344_54141.addr = alloca %struct.FieldFunction*, align 8
	%..inline.addr = alloca %struct.FieldFunction*, align 8

	store %struct.FieldFunction* %_T15493344_54141.arg, %struct.FieldFunction** %_T15493344_54141.addr, align 8, !tbaa !4813
	%0 = load %struct.FieldFunction*, %struct.FieldFunction** %_T15493344_54141.addr, align 8, !tbaa !4813, !dbg !5083
	%1 = bitcast %struct.FieldFunction*  %0 to i8*, !dbg !5083
	%2 = bitcast %struct.FieldFunction** %..inline.addr to i8**, !dbg !5083
	store i8*  %1, i8**  %2, align 8, !tbaa !4813, !dbg !5083
	%3 = bitcast [5 x i32 (...)* (...)*]* @_ZTV13FieldFunction to i8*, !dbg !5083
	%4 = getelementptr i8, i8*  %3, i64 16, !dbg !5083
	%5 = load %struct.FieldFunction*, %struct.FieldFunction** %..inline.addr, align 8, !tbaa !4813, !dbg !5083
	%6 = bitcast %struct.FieldFunction*  %5 to i8**, !dbg !5083
	store i8*  %4, i8**  %6, align 8, !tbaa !4813, !dbg !5083
	%7 = bitcast [5 x i32 (...)* (...)*]* @_ZTV11T3DFunction to i8*, !dbg !5083
	%8 = getelementptr i8, i8*  %7, i64 16, !dbg !5083
	store i8*  %8, i8**  %6, align 8, !tbaa !4813, !dbg !5083
	ret void, !dbg !5083
}

%struct.ConstantField = type <{ %struct.__SO__13FieldFunction, i8, [3 x i8], [3 x double]}> 
%struct.__SO__13FieldFunction = type <{ %struct.T3DFunction, i32, i32, i32}> 

define linkonce_odr void @_ZN13ConstantFieldC1Ev(%struct.ConstantField* %_T15493528_54142.arg) #0 inlinehint !dbg !5090 {
L.entry:
	%_T15493528_54142.addr = alloca %struct.ConstantField*, align 8
	%..inline.addr = alloca %struct.FieldFunction*, align 8

	call void @llvm.dbg.declare (metadata %struct.ConstantField** %_T15493528_54142.addr, metadata !5098, metadata !4805), !dbg !5091
	store %struct.ConstantField* %_T15493528_54142.arg, %struct.ConstantField** %_T15493528_54142.addr, align 8, !tbaa !4813
	call void @llvm.dbg.declare (metadata %struct.ConstantField** %_T15493528_54142.addr, metadata !5099, metadata !4805), !dbg !5091
	%0 = load %struct.ConstantField*, %struct.ConstantField** %_T15493528_54142.addr, align 8, !tbaa !4813, !dbg !5100
	%1 = bitcast %struct.ConstantField*  %0 to i8*, !dbg !5100
	%2 = bitcast %struct.FieldFunction** %..inline.addr to i8**, !dbg !5100
	store i8*  %1, i8**  %2, align 8, !tbaa !4813, !dbg !5100
	%3 = load %struct.FieldFunction*, %struct.FieldFunction** %..inline.addr, align 8, !tbaa !4813, !dbg !5100
	call void  @_ZN13FieldFunctionC1Ev (%struct.FieldFunction*  %3), !dbg !5100
	%4 = bitcast [5 x i32 (...)* (...)*]* @_ZTV13ConstantField to i8*, !dbg !5100
	%5 = getelementptr i8, i8*  %4, i64 16, !dbg !5100
	%6 = load %struct.ConstantField*, %struct.ConstantField** %_T15493528_54142.addr, align 8, !tbaa !4813, !dbg !5100
	%7 = bitcast %struct.ConstantField*  %6 to i8**, !dbg !5100
	store i8*  %5, i8**  %7, align 8, !tbaa !4813, !dbg !5100
	%8 = bitcast %struct.ConstantField*  %6 to i8*, !dbg !5103
	%9 = getelementptr i8, i8*  %8, i64 20, !dbg !5103
	store i8 0, i8*  %9, align 1, !tbaa !4812, !dbg !5103
	ret void, !dbg !5104
}
define linkonce_odr void @_ZN13ConstantFieldC2Ev(%struct.ConstantField* %_T15493344_54143.arg) #0 inlinehint !dbg !5106 {
L.entry:
	%_T15493344_54143.addr = alloca %struct.ConstantField*, align 8
	%..inline.addr = alloca %struct.ConstantField*, align 8
	%..inline.addr.1 = alloca %struct.FieldFunction*, align 8

	store %struct.ConstantField* %_T15493344_54143.arg, %struct.ConstantField** %_T15493344_54143.addr, align 8, !tbaa !4813
	%0 = load %struct.ConstantField*, %struct.ConstantField** %_T15493344_54143.addr, align 8, !tbaa !4813, !dbg !5118
	%1 = bitcast %struct.ConstantField*  %0 to i8*, !dbg !5118
	%2 = bitcast %struct.ConstantField** %..inline.addr to i8**, !dbg !5118
	store i8*  %1, i8**  %2, align 8, !tbaa !4813, !dbg !5118
	%3 = load %struct.ConstantField*, %struct.ConstantField** %..inline.addr, align 8, !tbaa !4813, !dbg !5119
	%4 = bitcast %struct.ConstantField*  %3 to i8*, !dbg !5119
	%5 = bitcast %struct.FieldFunction** %..inline.addr.1 to i8**, !dbg !5119
	store i8*  %4, i8**  %5, align 8, !tbaa !4813, !dbg !5119
	%6 = load %struct.FieldFunction*, %struct.FieldFunction** %..inline.addr.1, align 8, !tbaa !4813, !dbg !5119
	call void  @_ZN13FieldFunctionC1Ev (%struct.FieldFunction*  %6), !dbg !5119
	%7 = bitcast [5 x i32 (...)* (...)*]* @_ZTV13ConstantField to i8*, !dbg !5119
	%8 = getelementptr i8, i8*  %7, i64 16, !dbg !5119
	%9 = load %struct.ConstantField*, %struct.ConstantField** %..inline.addr, align 8, !tbaa !4813, !dbg !5119
	%10 = bitcast %struct.ConstantField*  %9 to i8**, !dbg !5119
	store i8*  %8, i8**  %10, align 8, !tbaa !4813, !dbg !5119
	%11 = bitcast %struct.ConstantField*  %9 to i8*, !dbg !5119
	%12 = getelementptr i8, i8*  %11, i64 20, !dbg !5119
	store i8 0, i8*  %12, align 1, !tbaa !4812, !dbg !5119
	ret void, !dbg !5118
}
define linkonce_odr void @_ZN13ConstantFieldD1Ev(%struct.ConstantField* %_T15493344_54144.arg) #0 inlinehint !dbg !5121 {
L.entry:
	%_T15493344_54144.addr = alloca %struct.ConstantField*, align 8
	%..inline.addr = alloca %struct.FieldFunction*, align 8

	call void @llvm.dbg.declare (metadata %struct.ConstantField** %_T15493344_54144.addr, metadata !5141, metadata !4805), !dbg !5122
	store %struct.ConstantField* %_T15493344_54144.arg, %struct.ConstantField** %_T15493344_54144.addr, align 8, !tbaa !4813
	call void @llvm.dbg.declare (metadata %struct.ConstantField** %_T15493344_54144.addr, metadata !5142, metadata !4805), !dbg !5122
	%0 = bitcast [5 x i32 (...)* (...)*]* @_ZTV13ConstantField to i8*, !dbg !5143
	%1 = getelementptr i8, i8*  %0, i64 16, !dbg !5143
	%2 = load %struct.ConstantField*, %struct.ConstantField** %_T15493344_54144.addr, align 8, !tbaa !4813, !dbg !5143
	%3 = bitcast %struct.ConstantField*  %2 to i8**, !dbg !5143
	store i8*  %1, i8**  %3, align 8, !tbaa !4813, !dbg !5143
	%4 = bitcast %struct.ConstantField*  %2 to i8*, !dbg !5143
	%5 = bitcast %struct.FieldFunction** %..inline.addr to i8**, !dbg !5143
	store i8*  %4, i8**  %5, align 8, !tbaa !4813, !dbg !5143
	%6 = bitcast [5 x i32 (...)* (...)*]* @_ZTV13FieldFunction to i8*, !dbg !5143
	%7 = getelementptr i8, i8*  %6, i64 16, !dbg !5143
	%8 = load %struct.FieldFunction*, %struct.FieldFunction** %..inline.addr, align 8, !tbaa !4813, !dbg !5143
	%9 = bitcast %struct.FieldFunction*  %8 to i8**, !dbg !5143
	store i8*  %7, i8**  %9, align 8, !tbaa !4813, !dbg !5143
	%10 = bitcast [5 x i32 (...)* (...)*]* @_ZTV11T3DFunction to i8*, !dbg !5143
	%11 = getelementptr i8, i8*  %10, i64 16, !dbg !5143
	store i8*  %11, i8**  %9, align 8, !tbaa !4813, !dbg !5143
	ret void, !dbg !5143
}
define linkonce_odr void @_ZN13ConstantFieldD0Ev(%struct.ConstantField* %_T15493344_54145.arg) #0 inlinehint !dbg !5145 {
L.entry:
	%_T15493344_54145.addr = alloca %struct.ConstantField*, align 8
	%..inline.addr = alloca %struct.ConstantField*, align 8
	%..inline.addr.1 = alloca %struct.FieldFunction*, align 8

	store %struct.ConstantField* %_T15493344_54145.arg, %struct.ConstantField** %_T15493344_54145.addr, align 8, !tbaa !4813
	%0 = load %struct.ConstantField*, %struct.ConstantField** %_T15493344_54145.addr, align 8, !tbaa !4813, !dbg !5169
	%1 = bitcast %struct.ConstantField*  %0 to i8*, !dbg !5169
	%2 = bitcast %struct.ConstantField** %..inline.addr to i8**, !dbg !5169
	store i8*  %1, i8**  %2, align 8, !tbaa !4813, !dbg !5169
	%3 = bitcast [5 x i32 (...)* (...)*]* @_ZTV13ConstantField to i8*, !dbg !5169
	%4 = getelementptr i8, i8*  %3, i64 16, !dbg !5169
	%5 = load %struct.ConstantField*, %struct.ConstantField** %..inline.addr, align 8, !tbaa !4813, !dbg !5169
	%6 = bitcast %struct.ConstantField*  %5 to i8**, !dbg !5169
	store i8*  %4, i8**  %6, align 8, !tbaa !4813, !dbg !5169
	%7 = bitcast %struct.ConstantField*  %5 to i8*, !dbg !5169
	%8 = bitcast %struct.FieldFunction** %..inline.addr.1 to i8**, !dbg !5169
	store i8*  %7, i8**  %8, align 8, !tbaa !4813, !dbg !5169
	%9 = bitcast [5 x i32 (...)* (...)*]* @_ZTV13FieldFunction to i8*, !dbg !5169
	%10 = getelementptr i8, i8*  %9, i64 16, !dbg !5169
	store i8*  %10, i8**  %6, align 8, !tbaa !4813, !dbg !5169
	%11 = bitcast [5 x i32 (...)* (...)*]* @_ZTV11T3DFunction to i8*, !dbg !5169
	%12 = getelementptr i8, i8*  %11, i64 16, !dbg !5169
	%13 = load %struct.FieldFunction*, %struct.FieldFunction** %..inline.addr.1, align 8, !tbaa !4813, !dbg !5169
	%14 = bitcast %struct.FieldFunction*  %13 to i8**, !dbg !5169
	store i8*  %12, i8**  %14, align 8, !tbaa !4813, !dbg !5169
	call void  @_ZdlPvm (i8*  %1, i64 48) nounwind, !dbg !5169
	ret void, !dbg !5169
}
define linkonce_odr void @_ZN13ConstantFieldD2Ev(%struct.ConstantField* %_T15493344_54146.arg) #0 inlinehint !dbg !5171 {
L.entry:
	%_T15493344_54146.addr = alloca %struct.ConstantField*, align 8
	%..inline.addr = alloca %struct.ConstantField*, align 8
	%..inline.addr.1 = alloca %struct.FieldFunction*, align 8

	store %struct.ConstantField* %_T15493344_54146.arg, %struct.ConstantField** %_T15493344_54146.addr, align 8, !tbaa !4813
	%0 = load %struct.ConstantField*, %struct.ConstantField** %_T15493344_54146.addr, align 8, !tbaa !4813, !dbg !5195
	%1 = bitcast %struct.ConstantField*  %0 to i8*, !dbg !5195
	%2 = bitcast %struct.ConstantField** %..inline.addr to i8**, !dbg !5195
	store i8*  %1, i8**  %2, align 8, !tbaa !4813, !dbg !5195
	%3 = bitcast [5 x i32 (...)* (...)*]* @_ZTV13ConstantField to i8*, !dbg !5195
	%4 = getelementptr i8, i8*  %3, i64 16, !dbg !5195
	%5 = load %struct.ConstantField*, %struct.ConstantField** %..inline.addr, align 8, !tbaa !4813, !dbg !5195
	%6 = bitcast %struct.ConstantField*  %5 to i8**, !dbg !5195
	store i8*  %4, i8**  %6, align 8, !tbaa !4813, !dbg !5195
	%7 = bitcast %struct.ConstantField*  %5 to i8*, !dbg !5195
	%8 = bitcast %struct.FieldFunction** %..inline.addr.1 to i8**, !dbg !5195
	store i8*  %7, i8**  %8, align 8, !tbaa !4813, !dbg !5195
	%9 = bitcast [5 x i32 (...)* (...)*]* @_ZTV13FieldFunction to i8*, !dbg !5195
	%10 = getelementptr i8, i8*  %9, i64 16, !dbg !5195
	store i8*  %10, i8**  %6, align 8, !tbaa !4813, !dbg !5195
	%11 = bitcast [5 x i32 (...)* (...)*]* @_ZTV11T3DFunction to i8*, !dbg !5195
	%12 = getelementptr i8, i8*  %11, i64 16, !dbg !5195
	%13 = load %struct.FieldFunction*, %struct.FieldFunction** %..inline.addr.1, align 8, !tbaa !4813, !dbg !5195
	%14 = bitcast %struct.FieldFunction*  %13 to i8**, !dbg !5195
	store i8*  %12, i8**  %14, align 8, !tbaa !4813, !dbg !5195
	ret void, !dbg !5195
}

%struct._ZNSt12_Vector_baseISt5arrayIdLm18EESaIS1_EE17_Vector_impl_dataE = type <{ %struct._ZSt5arrayIdLm18EE*, %struct._ZSt5arrayIdLm18EE*, %struct._ZSt5arrayIdLm18EE*}> 
%struct._ZSt5arrayIiLm27EE = type <{ [27 x i32]}> 
%struct._ZNSt12_Vector_baseIP14ompi_request_tSaIS1_EE12_Vector_implE = type <{ %struct._ZNSt12_Vector_baseIP14ompi_request_tSaIS1_EE17_Vector_impl_dataE}> 
%struct._ZNSt12_Vector_baseIcSaIcEE12_Vector_implE = type <{ %struct._ZNSt12_Vector_baseIcSaIcEE17_Vector_impl_dataE}> 
%struct._ZSt6vectorIiSaIiEE = type <{ %struct._ZSt12_Vector_baseIiSaIiEE}> 
%struct._ZSt12_Vector_baseIiSaIiEE = type <{ %struct._ZNSt12_Vector_baseIiSaIiEE12_Vector_implE}> 
%struct._ZSt5arrayIbLm3EE = type <{ [3 x i8]}> 
%struct.ompi_datatype_t = type opaque
%struct._ZSt6vectorISt5arrayIdLm18EESaIS1_EE = type <{ %struct._ZSt12_Vector_baseISt5arrayIdLm18EESaIS1_EE}> 
%struct._ZSt6vectorIcSaIcEE = type <{ %struct._ZSt12_Vector_baseIcSaIcEE}> 
%struct._ZNSt12_Vector_baseIiSaIiEE12_Vector_implE = type <{ %struct._ZNSt12_Vector_baseIiSaIiEE17_Vector_impl_dataE}> 
%struct._ZSt6vectorIP14ompi_request_tSaIS1_EE = type <{ %struct._ZSt12_Vector_baseIP14ompi_request_tSaIS1_EE}> 
%struct._ZSt5arrayIP15ompi_datatype_tLm27EE = type <{ [27 x %struct.ompi_datatype_t*]}> 
%struct._ZSt5arrayIdLm3EE = type <{ [3 x double]}> 
%struct.ompi_request_t = type opaque
%struct._ZSt12_Vector_baseIP14ompi_request_tSaIS1_EE = type <{ %struct._ZNSt12_Vector_baseIP14ompi_request_tSaIS1_EE12_Vector_implE}> 
%struct._ZNSt12_Vector_baseIP14ompi_request_tSaIS1_EE17_Vector_impl_dataE = type <{ %struct.ompi_request_t**, %struct.ompi_request_t**, %struct.ompi_request_t**}> 
%struct._ZNSt12_Vector_baseIcSaIcEE17_Vector_impl_dataE = type <{ i8*, i8*, i8*}> 
%struct._ZSt5arrayIdLm18EE = type <{ [18 x double]}> 
%struct._ZNSt12_Vector_baseIiSaIiEE17_Vector_impl_dataE = type <{ i32*, i32*, i32*}> 
%struct.FsGridCouplingInformation = type <{ %struct._ZSt6vectorIiSaIiEE}> 
%struct._ZSt12_Vector_baseISt5arrayIdLm18EESaIS1_EE = type <{ %struct._ZNSt12_Vector_baseISt5arrayIdLm18EESaIS1_EE12_Vector_implE}> 
%struct._ZSt5arrayIiLm3EE = type <{ [3 x i32]}> 
%struct._ZSt12_Vector_baseIcSaIcEE = type <{ %struct._ZNSt12_Vector_baseIcSaIcEE12_Vector_implE}> 
%struct._ZNSt12_Vector_baseISt5arrayIdLm18EESaIS1_EE12_Vector_implE = type <{ %struct._ZNSt12_Vector_baseISt5arrayIdLm18EESaIS1_EE17_Vector_impl_dataE}> 
%struct.ompi_communicator_t = type opaque
%struct._Z6FsGridISt5arrayIdLm18EELi2EE = type <{ double, double, double, %struct._ZSt5arrayIdLm3EE, %struct.ompi_communicator_t*, i32, [4 x i8], %struct._ZSt6vectorIP14ompi_request_tSaIS1_EE, i32, %struct._ZSt5arrayIiLm27EE, %struct._ZSt6vectorIcSaIcEE, %struct._ZSt5arrayIiLm3EE, %struct._ZSt5arrayIiLm3EE, %struct._ZSt5arrayIbLm3EE, i8, %struct._ZSt5arrayIiLm3EE, %struct._ZSt5arrayIiLm3EE, %struct._ZSt5arrayIiLm3EE, %struct._ZSt5arrayIiLm3EE, [4 x i8], %struct.FsGridCouplingInformation*, %struct._ZSt5arrayIP15ompi_datatype_tLm27EE, %struct._ZSt5arrayIP15ompi_datatype_tLm27EE, %struct._ZSt6vectorISt5arrayIdLm18EESaIS1_EE}> 

define linkonce_odr %struct._ZSt5arrayIiLm3EE* @_ZN6FsGridISt5arrayIdLm18EELi2EE12getLocalSizeEv(%struct._Z6FsGridISt5arrayIdLm18EELi2EE* %_T15493344_54148.arg) #0 inlinehint !dbg !5202 {
L.entry:
	%_T15493344_54148.addr = alloca %struct._Z6FsGridISt5arrayIdLm18EELi2EE*, align 8

	call void @llvm.dbg.declare (metadata %struct._Z6FsGridISt5arrayIdLm18EELi2EE** %_T15493344_54148.addr, metadata !5206, metadata !4805), !dbg !5203
	store %struct._Z6FsGridISt5arrayIdLm18EELi2EE* %_T15493344_54148.arg, %struct._Z6FsGridISt5arrayIdLm18EELi2EE** %_T15493344_54148.addr, align 8, !tbaa !4813
	call void @llvm.dbg.declare (metadata %struct._Z6FsGridISt5arrayIdLm18EELi2EE** %_T15493344_54148.addr, metadata !5207, metadata !4805), !dbg !5203
	%0 = load %struct._Z6FsGridISt5arrayIdLm18EELi2EE*, %struct._Z6FsGridISt5arrayIdLm18EELi2EE** %_T15493344_54148.addr, align 8, !tbaa !4813, !dbg !5208
	%1 = bitcast %struct._Z6FsGridISt5arrayIdLm18EELi2EE*  %0 to i8*, !dbg !5208
	%2 = getelementptr i8, i8*  %1, i64 264, !dbg !5208
	%3 = bitcast i8*  %2 to %struct._ZSt5arrayIiLm3EE*, !dbg !5208
	ret %struct._ZSt5arrayIiLm3EE*  %3, !dbg !5208
}

%struct._ZNSt12_Vector_baseISt5arrayIdLm3EESaIS1_EE12_Vector_implE = type <{ %struct._ZNSt12_Vector_baseISt5arrayIdLm3EESaIS1_EE17_Vector_impl_dataE}> 
%struct._ZNSt12_Vector_baseISt5arrayIdLm3EESaIS1_EE17_Vector_impl_dataE = type <{ %struct._ZSt5arrayIdLm3EE*, %struct._ZSt5arrayIdLm3EE*, %struct._ZSt5arrayIdLm3EE*}> 
%struct._Z6FsGridISt5arrayIdLm3EELi2EE = type <{ double, double, double, %struct._ZSt5arrayIdLm3EE, %struct.ompi_communicator_t*, i32, [4 x i8], %struct._ZSt6vectorIP14ompi_request_tSaIS1_EE, i32, %struct._ZSt5arrayIiLm27EE, %struct._ZSt6vectorIcSaIcEE, %struct._ZSt5arrayIiLm3EE, %struct._ZSt5arrayIiLm3EE, %struct._ZSt5arrayIbLm3EE, i8, %struct._ZSt5arrayIiLm3EE, %struct._ZSt5arrayIiLm3EE, %struct._ZSt5arrayIiLm3EE, %struct._ZSt5arrayIiLm3EE, [4 x i8], %struct.FsGridCouplingInformation*, %struct._ZSt5arrayIP15ompi_datatype_tLm27EE, %struct._ZSt5arrayIP15ompi_datatype_tLm27EE, %struct._ZSt6vectorISt5arrayIdLm3EESaIS1_EE}> 
%struct._ZSt6vectorISt5arrayIdLm3EESaIS1_EE = type <{ %struct._ZSt12_Vector_baseISt5arrayIdLm3EESaIS1_EE}> 
%struct._ZSt12_Vector_baseISt5arrayIdLm3EESaIS1_EE = type <{ %struct._ZNSt12_Vector_baseISt5arrayIdLm3EESaIS1_EE12_Vector_implE}> 

define linkonce_odr i64 @_ZN6FsGridISt5arrayIdLm3EELi2EE17GlobalIDForCoordsEiii(%struct._Z6FsGridISt5arrayIdLm3EELi2EE* %_T15493344_54150.arg, i32 signext %x.arg, i32 signext %y.arg, i32 signext %z.arg) #0 inlinehint !dbg !5214 {
L.entry:
	%_T15493344_54150.addr = alloca %struct._Z6FsGridISt5arrayIdLm3EELi2EE*, align 8
	%x.addr = alloca i32, align 4
	%y.addr = alloca i32, align 4
	%z.addr = alloca i32, align 4

	call void @llvm.dbg.declare (metadata %struct._Z6FsGridISt5arrayIdLm3EELi2EE** %_T15493344_54150.addr, metadata !5266, metadata !4805), !dbg !5215
	store %struct._Z6FsGridISt5arrayIdLm3EELi2EE* %_T15493344_54150.arg, %struct._Z6FsGridISt5arrayIdLm3EELi2EE** %_T15493344_54150.addr, align 8, !tbaa !4813
	call void @llvm.dbg.declare (metadata %struct._Z6FsGridISt5arrayIdLm3EELi2EE** %_T15493344_54150.addr, metadata !5267, metadata !4805), !dbg !5215
	call void @llvm.dbg.declare (metadata i32* %x.addr, metadata !5268, metadata !4805), !dbg !5215
	store i32 %x.arg, i32* %x.addr, align 4, !tbaa !4812
	call void @llvm.dbg.declare (metadata i32* %x.addr, metadata !5269, metadata !4805), !dbg !5215
	call void @llvm.dbg.declare (metadata i32* %y.addr, metadata !5270, metadata !4805), !dbg !5215
	store i32 %y.arg, i32* %y.addr, align 4, !tbaa !4812
	call void @llvm.dbg.declare (metadata i32* %y.addr, metadata !5271, metadata !4805), !dbg !5215
	call void @llvm.dbg.declare (metadata i32* %z.addr, metadata !5272, metadata !4805), !dbg !5215
	store i32 %z.arg, i32* %z.addr, align 4, !tbaa !4812
	call void @llvm.dbg.declare (metadata i32* %z.addr, metadata !5273, metadata !4805), !dbg !5215
	%0 = load i32, i32* %z.addr, align 4, !tbaa !5030, !dbg !5274
	%1 = load %struct._Z6FsGridISt5arrayIdLm3EELi2EE*, %struct._Z6FsGridISt5arrayIdLm3EELi2EE** %_T15493344_54150.addr, align 8, !tbaa !4813, !dbg !5274
	%2 = bitcast %struct._Z6FsGridISt5arrayIdLm3EELi2EE*  %1 to i8*, !dbg !5274
	%3 = getelementptr i8, i8*  %2, i64 296, !dbg !5274
	%4 = bitcast i8*  %3 to i32*, !dbg !5274
	%5 = load i32, i32*  %4, align 4, !tbaa !4812, !dbg !5274
	%6 = add i32  %0,  %5, !dbg !5274
	%7 = getelementptr i8, i8*  %2, i64 256, !dbg !5274
	%8 = bitcast i8*  %7 to i32*, !dbg !5274
	%9 = load i32, i32*  %8, align 4, !tbaa !4812, !dbg !5274
	%10 = getelementptr i8, i8*  %2, i64 252, !dbg !5274
	%11 = bitcast i8*  %10 to i32*, !dbg !5274
	%12 = load i32, i32*  %11, align 4, !tbaa !4812, !dbg !5274
	%13 = mul i32  %9,  %12, !dbg !5274
	%14 = mul i32  %6,  %13, !dbg !5274
	%15 = load i32, i32* %y.addr, align 4, !tbaa !5030, !dbg !5274
	%16 = getelementptr i8, i8*  %2, i64 292, !dbg !5274
	%17 = bitcast i8*  %16 to i32*, !dbg !5274
	%18 = load i32, i32*  %17, align 4, !tbaa !4812, !dbg !5274
	%19 = add i32  %15,  %18, !dbg !5274
	%20 = mul i32  %12,  %19, !dbg !5274
	%21 = load i32, i32* %x.addr, align 4, !tbaa !5030, !dbg !5274
	%22 = getelementptr i8, i8*  %2, i64 288, !dbg !5274
	%23 = bitcast i8*  %22 to i32*, !dbg !5274
	%24 = load i32, i32*  %23, align 4, !tbaa !4812, !dbg !5274
	%25 = add i32  %21,  %24, !dbg !5274
	%26 = add i32  %20,  %25, !dbg !5274
	%27 = add i32  %14,  %26, !dbg !5274
	%28 = sext i32  %27 to i64, !dbg !5274
	ret i64  %28, !dbg !5274
}
define linkonce_odr i64 @_ZN6FsGridISt5arrayIdLm3EELi2EE16LocalIDForCoordsEiii(%struct._Z6FsGridISt5arrayIdLm3EELi2EE* %_T15760080_54152.arg, i32 signext %x.arg, i32 signext %y.arg, i32 signext %z.arg) #0 inlinehint !dbg !5277 {
L.entry:
	%_T15760080_54152.addr = alloca %struct._Z6FsGridISt5arrayIdLm3EELi2EE*, align 8
	%x.addr = alloca i32, align 4
	%y.addr = alloca i32, align 4
	%z.addr = alloca i32, align 4
	%index.addr = alloca i64, align 8

	call void @llvm.dbg.declare (metadata %struct._Z6FsGridISt5arrayIdLm3EELi2EE** %_T15760080_54152.addr, metadata !5329, metadata !4805), !dbg !5278
	store %struct._Z6FsGridISt5arrayIdLm3EELi2EE* %_T15760080_54152.arg, %struct._Z6FsGridISt5arrayIdLm3EELi2EE** %_T15760080_54152.addr, align 8, !tbaa !4813
	call void @llvm.dbg.declare (metadata %struct._Z6FsGridISt5arrayIdLm3EELi2EE** %_T15760080_54152.addr, metadata !5330, metadata !4805), !dbg !5278
	call void @llvm.dbg.declare (metadata i32* %x.addr, metadata !5331, metadata !4805), !dbg !5278
	store i32 %x.arg, i32* %x.addr, align 4, !tbaa !4812
	call void @llvm.dbg.declare (metadata i32* %x.addr, metadata !5332, metadata !4805), !dbg !5278
	call void @llvm.dbg.declare (metadata i32* %y.addr, metadata !5333, metadata !4805), !dbg !5278
	store i32 %y.arg, i32* %y.addr, align 4, !tbaa !4812
	call void @llvm.dbg.declare (metadata i32* %y.addr, metadata !5334, metadata !4805), !dbg !5278
	call void @llvm.dbg.declare (metadata i32* %z.addr, metadata !5335, metadata !4805), !dbg !5278
	store i32 %z.arg, i32* %z.addr, align 4, !tbaa !4812
	call void @llvm.dbg.declare (metadata i32* %z.addr, metadata !5336, metadata !4805), !dbg !5278
	call void @llvm.dbg.declare (metadata i64* %index.addr, metadata !5338, metadata !4805), !dbg !5278
	store i64 0, i64* %index.addr, align 8, !tbaa !5343, !dbg !5337
	%0 = load %struct._Z6FsGridISt5arrayIdLm3EELi2EE*, %struct._Z6FsGridISt5arrayIdLm3EELi2EE** %_T15760080_54152.addr, align 8, !tbaa !4813, !dbg !5339
	%1 = bitcast %struct._Z6FsGridISt5arrayIdLm3EELi2EE*  %0 to i8*, !dbg !5339
	%2 = getelementptr i8, i8*  %1, i64 260, !dbg !5339
	%3 = bitcast i8*  %2 to i32*, !dbg !5339
	%4 = load i32, i32*  %3, align 4, !tbaa !4812, !dbg !5339
	%5 = icmp sle i32  %4, 1, !dbg !5339
	br i1  %5, label %L.B0004, label %L.B1680, !dbg !5339
L.B1680:
	%6 = load i32, i32* %z.addr, align 4, !tbaa !5030, !dbg !5339
	%7 = add i32  %6, 2, !dbg !5339
	%8 = bitcast %struct._Z6FsGridISt5arrayIdLm3EELi2EE*  %0 to i8*, !dbg !5339
	%9 = getelementptr i8, i8*  %8, i64 280, !dbg !5339
	%10 = bitcast i8*  %9 to i32*, !dbg !5339
	%11 = load i32, i32*  %10, align 4, !tbaa !4812, !dbg !5339
	%12 = getelementptr i8, i8*  %8, i64 276, !dbg !5339
	%13 = bitcast i8*  %12 to i32*, !dbg !5339
	%14 = load i32, i32*  %13, align 4, !tbaa !4812, !dbg !5339
	%15 = mul i32  %11,  %14, !dbg !5339
	%16 = mul i32  %7,  %15, !dbg !5339
	%17 = sext i32  %16 to i64, !dbg !5339
	store i64  %17, i64* %index.addr, align 8, !tbaa !5343, !dbg !5339
	br label %L.B0004
L.B0004:
	%18 = load %struct._Z6FsGridISt5arrayIdLm3EELi2EE*, %struct._Z6FsGridISt5arrayIdLm3EELi2EE** %_T15760080_54152.addr, align 8, !tbaa !4813, !dbg !5339
	%19 = bitcast %struct._Z6FsGridISt5arrayIdLm3EELi2EE*  %18 to i8*, !dbg !5339
	%20 = getelementptr i8, i8*  %19, i64 256, !dbg !5339
	%21 = bitcast i8*  %20 to i32*, !dbg !5339
	%22 = load i32, i32*  %21, align 4, !tbaa !4812, !dbg !5339
	%23 = icmp sle i32  %22, 1, !dbg !5339
	br i1  %23, label %L.B0005, label %L.B1681, !dbg !5339
L.B1681:
	%24 = load i64, i64* %index.addr, align 8, !tbaa !5343, !dbg !5339
	%25 = load i32, i32* %y.addr, align 4, !tbaa !5030, !dbg !5339
	%26 = add i32  %25, 2, !dbg !5339
	%27 = bitcast %struct._Z6FsGridISt5arrayIdLm3EELi2EE*  %18 to i8*, !dbg !5339
	%28 = getelementptr i8, i8*  %27, i64 276, !dbg !5339
	%29 = bitcast i8*  %28 to i32*, !dbg !5339
	%30 = load i32, i32*  %29, align 4, !tbaa !4812, !dbg !5339
	%31 = mul i32  %26,  %30, !dbg !5339
	%32 = sext i32  %31 to i64, !dbg !5339
	%33 = add i64  %24,  %32, !dbg !5339
	store i64  %33, i64* %index.addr, align 8, !tbaa !5343, !dbg !5339
	br label %L.B0005
L.B0005:
	%34 = load %struct._Z6FsGridISt5arrayIdLm3EELi2EE*, %struct._Z6FsGridISt5arrayIdLm3EELi2EE** %_T15760080_54152.addr, align 8, !tbaa !4813, !dbg !5339
	%35 = bitcast %struct._Z6FsGridISt5arrayIdLm3EELi2EE*  %34 to i8*, !dbg !5339
	%36 = getelementptr i8, i8*  %35, i64 252, !dbg !5339
	%37 = bitcast i8*  %36 to i32*, !dbg !5339
	%38 = load i32, i32*  %37, align 4, !tbaa !4812, !dbg !5339
	%39 = icmp sle i32  %38, 1, !dbg !5339
	%40 = zext i1  %39 to i32, !dbg !5339
	%41 = trunc i32  %40 to i1, !dbg !5339
	%42 = load i64, i64* %index.addr, align 8, !tbaa !5343, !dbg !5339
	%43 = load i32, i32* %x.addr, align 4, !tbaa !5030, !dbg !5339
	%44 = sext i32  %43 to i64, !dbg !5339
	%45 = add i64  %44, 2, !dbg !5339
	%46 = add i64  %42,  %45, !dbg !5339
	%47 = select i1  %41, i64  %42, i64  %46, !dbg !5339
	ret i64  %47, !dbg !5340
}
define linkonce_odr %struct._ZSt5arrayIdLm3EE* @_ZN6FsGridISt5arrayIdLm3EELi2EE3getEiii(%struct._Z6FsGridISt5arrayIdLm3EELi2EE* %_T15762440_54153.arg, i32 signext %x.arg, i32 signext %y.arg, i32 signext %z.arg) #0 inlinehint !dbg !5347 {
L.entry:
	%_T15762440_54153.addr = alloca %struct._Z6FsGridISt5arrayIdLm3EELi2EE*, align 8
	%x.addr = alloca i32, align 4
	%y.addr = alloca i32, align 4
	%z.addr = alloca i32, align 4
	%isInNeighbourDomain.addr = alloca i32, align 4
	%coord_shift.addr = alloca [3 x i32], align 4
	%..inline.addr = alloca %struct._Z6FsGridISt5arrayIdLm3EELi2EE*, align 8
	%..inline.addr.1 = alloca i64, align 8

	call void @llvm.dbg.declare (metadata %struct._Z6FsGridISt5arrayIdLm3EELi2EE** %_T15762440_54153.addr, metadata !5471, metadata !4805), !dbg !5348
	store %struct._Z6FsGridISt5arrayIdLm3EELi2EE* %_T15762440_54153.arg, %struct._Z6FsGridISt5arrayIdLm3EELi2EE** %_T15762440_54153.addr, align 8, !tbaa !4813
	call void @llvm.dbg.declare (metadata %struct._Z6FsGridISt5arrayIdLm3EELi2EE** %_T15762440_54153.addr, metadata !5472, metadata !4805), !dbg !5348
	call void @llvm.dbg.declare (metadata i32* %x.addr, metadata !5473, metadata !4805), !dbg !5348
	store i32 %x.arg, i32* %x.addr, align 4, !tbaa !4812
	call void @llvm.dbg.declare (metadata i32* %x.addr, metadata !5474, metadata !4805), !dbg !5348
	call void @llvm.dbg.declare (metadata i32* %y.addr, metadata !5475, metadata !4805), !dbg !5348
	store i32 %y.arg, i32* %y.addr, align 4, !tbaa !4812
	call void @llvm.dbg.declare (metadata i32* %y.addr, metadata !5476, metadata !4805), !dbg !5348
	call void @llvm.dbg.declare (metadata i32* %z.addr, metadata !5477, metadata !4805), !dbg !5348
	store i32 %z.arg, i32* %z.addr, align 4, !tbaa !4812
	call void @llvm.dbg.declare (metadata i32* %z.addr, metadata !5478, metadata !4805), !dbg !5348
	call void @llvm.dbg.declare (metadata i32* %isInNeighbourDomain.addr, metadata !5480, metadata !4805), !dbg !5348
	store i32 13, i32* %isInNeighbourDomain.addr, align 4, !tbaa !5030, !dbg !5479
	call void @llvm.dbg.declare (metadata [3 x i32]* %coord_shift.addr, metadata !5482, metadata !4805), !dbg !5348
	%0 = bitcast [3 x i32]* %coord_shift.addr to i32*, !dbg !5481
	store i32 0, i32*  %0, align 4, !tbaa !4812, !dbg !5481
	%1 = bitcast [3 x i32]* %coord_shift.addr to i8*, !dbg !5481
	%2 = getelementptr i8, i8*  %1, i64 4, !dbg !5481
	%3 = bitcast i8*  %2 to i32*, !dbg !5481
	store i32 0, i32*  %3, align 4, !tbaa !4812, !dbg !5481
	%4 = getelementptr i8, i8*  %1, i64 8, !dbg !5481
	%5 = bitcast i8*  %4 to i32*, !dbg !5481
	store i32 0, i32*  %5, align 4, !tbaa !4812, !dbg !5481
	%6 = load i32, i32* %x.addr, align 4, !tbaa !5030, !dbg !5483
	%7 = icmp sge i32  %6, 0, !dbg !5483
	br i1  %7, label %L.B0007, label %L.B1702, !dbg !5483
L.B1702:
	store i32 4, i32* %isInNeighbourDomain.addr, align 4, !tbaa !5030, !dbg !5484
	%8 = bitcast [3 x i32]* %coord_shift.addr to i32*, !dbg !5485
	store i32 1, i32*  %8, align 4, !tbaa !4812, !dbg !5485
	br label %L.B0007
L.B0007:
	%9 = load i32, i32* %x.addr, align 4, !tbaa !5030, !dbg !5486
	%10 = load %struct._Z6FsGridISt5arrayIdLm3EELi2EE*, %struct._Z6FsGridISt5arrayIdLm3EELi2EE** %_T15762440_54153.addr, align 8, !tbaa !4813, !dbg !5486
	%11 = bitcast %struct._Z6FsGridISt5arrayIdLm3EELi2EE*  %10 to i8*, !dbg !5486
	%12 = getelementptr i8, i8*  %11, i64 264, !dbg !5486
	%13 = bitcast i8*  %12 to i32*, !dbg !5486
	%14 = load i32, i32*  %13, align 4, !tbaa !4812, !dbg !5486
	%15 = icmp slt i32  %9,  %14, !dbg !5486
	br i1  %15, label %L.B0008, label %L.B1703, !dbg !5486
L.B1703:
	%16 = load i32, i32* %isInNeighbourDomain.addr, align 4, !tbaa !5030, !dbg !5487
	%17 = add i32  %16, 9, !dbg !5487
	store i32  %17, i32* %isInNeighbourDomain.addr, align 4, !tbaa !5030, !dbg !5487
	%18 = bitcast [3 x i32]* %coord_shift.addr to i32*, !dbg !5488
	store i32 -1, i32*  %18, align 4, !tbaa !4812, !dbg !5488
	br label %L.B0008
L.B0008:
	%19 = load i32, i32* %y.addr, align 4, !tbaa !5030, !dbg !5489
	%20 = icmp sge i32  %19, 0, !dbg !5489
	br i1  %20, label %L.B0009, label %L.B1704, !dbg !5489
L.B1704:
	%21 = load i32, i32* %isInNeighbourDomain.addr, align 4, !tbaa !5030, !dbg !5490
	%22 = sub i32  %21, 3, !dbg !5490
	store i32  %22, i32* %isInNeighbourDomain.addr, align 4, !tbaa !5030, !dbg !5490
	%23 = bitcast [3 x i32]* %coord_shift.addr to i8*, !dbg !5491
	%24 = getelementptr i8, i8*  %23, i64 4, !dbg !5491
	%25 = bitcast i8*  %24 to i32*, !dbg !5491
	store i32 1, i32*  %25, align 4, !tbaa !4812, !dbg !5491
	br label %L.B0009
L.B0009:
	%26 = load i32, i32* %y.addr, align 4, !tbaa !5030, !dbg !5486
	%27 = load %struct._Z6FsGridISt5arrayIdLm3EELi2EE*, %struct._Z6FsGridISt5arrayIdLm3EELi2EE** %_T15762440_54153.addr, align 8, !tbaa !4813, !dbg !5486
	%28 = bitcast %struct._Z6FsGridISt5arrayIdLm3EELi2EE*  %27 to i8*, !dbg !5486
	%29 = getelementptr i8, i8*  %28, i64 268, !dbg !5486
	%30 = bitcast i8*  %29 to i32*, !dbg !5486
	%31 = load i32, i32*  %30, align 4, !tbaa !4812, !dbg !5486
	%32 = icmp slt i32  %26,  %31, !dbg !5486
	br i1  %32, label %L.B0010, label %L.B1705, !dbg !5486
L.B1705:
	%33 = load i32, i32* %isInNeighbourDomain.addr, align 4, !tbaa !5030, !dbg !5492
	%34 = add i32  %33, 3, !dbg !5492
	store i32  %34, i32* %isInNeighbourDomain.addr, align 4, !tbaa !5030, !dbg !5492
	%35 = bitcast [3 x i32]* %coord_shift.addr to i8*, !dbg !5493
	%36 = getelementptr i8, i8*  %35, i64 4, !dbg !5493
	%37 = bitcast i8*  %36 to i32*, !dbg !5493
	store i32 -1, i32*  %37, align 4, !tbaa !4812, !dbg !5493
	br label %L.B0010
L.B0010:
	%38 = load i32, i32* %z.addr, align 4, !tbaa !5030, !dbg !5494
	%39 = icmp sge i32  %38, 0, !dbg !5494
	br i1  %39, label %L.B0011, label %L.B1706, !dbg !5494
L.B1706:
	%40 = load i32, i32* %isInNeighbourDomain.addr, align 4, !tbaa !5030, !dbg !5495
	%41 = sub i32  %40, 1, !dbg !5495
	store i32  %41, i32* %isInNeighbourDomain.addr, align 4, !tbaa !5030, !dbg !5495
	%42 = bitcast [3 x i32]* %coord_shift.addr to i8*, !dbg !5496
	%43 = getelementptr i8, i8*  %42, i64 8, !dbg !5496
	%44 = bitcast i8*  %43 to i32*, !dbg !5496
	store i32 1, i32*  %44, align 4, !tbaa !4812, !dbg !5496
	br label %L.B0011
L.B0011:
	%45 = load i32, i32* %z.addr, align 4, !tbaa !5030, !dbg !5486
	%46 = load %struct._Z6FsGridISt5arrayIdLm3EELi2EE*, %struct._Z6FsGridISt5arrayIdLm3EELi2EE** %_T15762440_54153.addr, align 8, !tbaa !4813, !dbg !5486
	%47 = bitcast %struct._Z6FsGridISt5arrayIdLm3EELi2EE*  %46 to i8*, !dbg !5486
	%48 = getelementptr i8, i8*  %47, i64 272, !dbg !5486
	%49 = bitcast i8*  %48 to i32*, !dbg !5486
	%50 = load i32, i32*  %49, align 4, !tbaa !4812, !dbg !5486
	%51 = icmp slt i32  %45,  %50, !dbg !5486
	br i1  %51, label %L.B0012, label %L.B1707, !dbg !5486
L.B1707:
	%52 = load i32, i32* %isInNeighbourDomain.addr, align 4, !tbaa !5030, !dbg !5497
	%53 = add i32  %52, 1, !dbg !5497
	store i32  %53, i32* %isInNeighbourDomain.addr, align 4, !tbaa !5030, !dbg !5497
	%54 = bitcast [3 x i32]* %coord_shift.addr to i8*, !dbg !5498
	%55 = getelementptr i8, i8*  %54, i64 8, !dbg !5498
	%56 = bitcast i8*  %55 to i32*, !dbg !5498
	store i32 -1, i32*  %56, align 4, !tbaa !4812, !dbg !5498
	br label %L.B0012
L.B0012:
	%57 = load i32, i32* %isInNeighbourDomain.addr, align 4, !tbaa !5030, !dbg !5499
	%58 = icmp eq i32  %57, 13, !dbg !5499
	br i1  %58, label %L.B0013, label %L.B1708, !dbg !5499
L.B1708:
	%59 = sext i32  %57 to i64, !dbg !5486
	%60 = load %struct._Z6FsGridISt5arrayIdLm3EELi2EE*, %struct._Z6FsGridISt5arrayIdLm3EELi2EE** %_T15762440_54153.addr, align 8, !tbaa !4813, !dbg !5486
	%61 = bitcast %struct._Z6FsGridISt5arrayIdLm3EELi2EE*  %60 to i8*, !dbg !5486
	%62 = getelementptr i8, i8*  %61, i64 92, !dbg !5486
	%63 = bitcast i8*  %62 to i32*, !dbg !5486
	%64 = getelementptr i32, i32*  %63, i64  %59, !dbg !5486
	%65 = load i32, i32*  %64, align 4, !tbaa !4812, !dbg !5486
	%66 = icmp ne i32  %65, -2, !dbg !5486
	br i1  %66, label %L.B0014, label %L.B1709, !dbg !5486
L.B1709:
	ret %struct._ZSt5arrayIdLm3EE*  null, !dbg !5500
L.B1710:
	br label %L.R0023, !dbg !5500
L.B0014:
	%67 = load i32, i32* %isInNeighbourDomain.addr, align 4, !tbaa !5030, !dbg !5486
	%68 = sext i32  %67 to i64, !dbg !5486
	%69 = load %struct._Z6FsGridISt5arrayIdLm3EELi2EE*, %struct._Z6FsGridISt5arrayIdLm3EELi2EE** %_T15762440_54153.addr, align 8, !tbaa !4813, !dbg !5486
	%70 = bitcast %struct._Z6FsGridISt5arrayIdLm3EELi2EE*  %69 to i8*, !dbg !5486
	%71 = getelementptr i8, i8*  %70, i64 92, !dbg !5486
	%72 = bitcast i8*  %71 to i32*, !dbg !5486
	%73 = getelementptr i32, i32*  %72, i64  %68, !dbg !5486
	%74 = load i32, i32*  %73, align 4, !tbaa !4812, !dbg !5486
	%75 = getelementptr i8, i8*  %70, i64 56, !dbg !5486
	%76 = bitcast i8*  %75 to i32*, !dbg !5486
	%77 = load i32, i32*  %76, align 4, !tbaa !4812, !dbg !5486
	%78 = icmp ne i32  %74,  %77, !dbg !5486
	br i1  %78, label %L.B0016, label %L.B1711, !dbg !5486
L.B1711:
	%79 = load i32, i32* %x.addr, align 4, !tbaa !5030, !dbg !5486
	%80 = bitcast [3 x i32]* %coord_shift.addr to i32*, !dbg !5486
	%81 = load i32, i32*  %80, align 4, !tbaa !4812, !dbg !5486
	%82 = bitcast %struct._Z6FsGridISt5arrayIdLm3EELi2EE*  %69 to i8*, !dbg !5486
	%83 = getelementptr i8, i8*  %82, i64 264, !dbg !5486
	%84 = bitcast i8*  %83 to i32*, !dbg !5486
	%85 = load i32, i32*  %84, align 4, !tbaa !4812, !dbg !5486
	%86 = mul i32  %81,  %85, !dbg !5486
	%87 = add i32  %79,  %86, !dbg !5486
	store i32  %87, i32* %x.addr, align 4, !tbaa !5030, !dbg !5486
	%88 = load i32, i32* %y.addr, align 4, !tbaa !5030, !dbg !5486
	%89 = bitcast [3 x i32]* %coord_shift.addr to i8*, !dbg !5486
	%90 = getelementptr i8, i8*  %89, i64 4, !dbg !5486
	%91 = bitcast i8*  %90 to i32*, !dbg !5486
	%92 = load i32, i32*  %91, align 4, !tbaa !4812, !dbg !5486
	%93 = getelementptr i8, i8*  %82, i64 268, !dbg !5486
	%94 = bitcast i8*  %93 to i32*, !dbg !5486
	%95 = load i32, i32*  %94, align 4, !tbaa !4812, !dbg !5486
	%96 = mul i32  %92,  %95, !dbg !5486
	%97 = add i32  %88,  %96, !dbg !5486
	store i32  %97, i32* %y.addr, align 4, !tbaa !5030, !dbg !5486
	%98 = load i32, i32* %z.addr, align 4, !tbaa !5030, !dbg !5486
	%99 = getelementptr i8, i8*  %89, i64 8, !dbg !5486
	%100 = bitcast i8*  %99 to i32*, !dbg !5486
	%101 = load i32, i32*  %100, align 4, !tbaa !4812, !dbg !5486
	%102 = getelementptr i8, i8*  %82, i64 272, !dbg !5486
	%103 = bitcast i8*  %102 to i32*, !dbg !5486
	%104 = load i32, i32*  %103, align 4, !tbaa !4812, !dbg !5486
	%105 = mul i32  %101,  %104, !dbg !5486
	%106 = add i32  %98,  %105, !dbg !5486
	store i32  %106, i32* %z.addr, align 4, !tbaa !5030, !dbg !5486
	br label %L.B0016
L.B0016:
	br label %L.B0013
L.B0013:
	%107 = load %struct._Z6FsGridISt5arrayIdLm3EELi2EE*, %struct._Z6FsGridISt5arrayIdLm3EELi2EE** %_T15762440_54153.addr, align 8, !tbaa !4813, !dbg !5501
	%108 = bitcast %struct._Z6FsGridISt5arrayIdLm3EELi2EE*  %107 to i8*, !dbg !5501
	%109 = bitcast %struct._Z6FsGridISt5arrayIdLm3EELi2EE** %..inline.addr to i8**, !dbg !5501
	store i8*  %108, i8**  %109, align 8, !tbaa !4813, !dbg !5501
	store i64 0, i64* %..inline.addr.1, align 8, !tbaa !5343, !dbg !5501
	%110 = load %struct._Z6FsGridISt5arrayIdLm3EELi2EE*, %struct._Z6FsGridISt5arrayIdLm3EELi2EE** %..inline.addr, align 8, !tbaa !4813, !dbg !5502
	%111 = bitcast %struct._Z6FsGridISt5arrayIdLm3EELi2EE*  %110 to i8*, !dbg !5502
	%112 = getelementptr i8, i8*  %111, i64 260, !dbg !5502
	%113 = bitcast i8*  %112 to i32*, !dbg !5502
	%114 = load i32, i32*  %113, align 4, !tbaa !4812, !dbg !5502
	%115 = icmp sle i32  %114, 1, !dbg !5502
	br i1  %115, label %L..inline.78195, label %L.B1712, !dbg !5502
L.B1712:
	%116 = bitcast %struct._Z6FsGridISt5arrayIdLm3EELi2EE*  %107 to i8*, !dbg !5503
	%117 = getelementptr i8, i8*  %116, i64 280, !dbg !5503
	%118 = bitcast i8*  %117 to i32*, !dbg !5503
	%119 = load i32, i32*  %118, align 4, !tbaa !4812, !dbg !5503
	%120 = getelementptr i8, i8*  %116, i64 276, !dbg !5503
	%121 = bitcast i8*  %120 to i32*, !dbg !5503
	%122 = load i32, i32*  %121, align 4, !tbaa !4812, !dbg !5503
	%123 = mul i32  %119,  %122, !dbg !5503
	%124 = load i32, i32* %z.addr, align 4, !tbaa !5030, !dbg !5503
	%125 = add i32  %124, 2, !dbg !5503
	%126 = mul i32  %123,  %125, !dbg !5503
	%127 = sext i32  %126 to i64, !dbg !5503
	store i64  %127, i64* %..inline.addr.1, align 8, !tbaa !5343, !dbg !5503
	br label %L..inline.78195
L..inline.78195:
	%128 = load %struct._Z6FsGridISt5arrayIdLm3EELi2EE*, %struct._Z6FsGridISt5arrayIdLm3EELi2EE** %..inline.addr, align 8, !tbaa !4813, !dbg !5504
	%129 = bitcast %struct._Z6FsGridISt5arrayIdLm3EELi2EE*  %128 to i8*, !dbg !5504
	%130 = getelementptr i8, i8*  %129, i64 256, !dbg !5504
	%131 = bitcast i8*  %130 to i32*, !dbg !5504
	%132 = load i32, i32*  %131, align 4, !tbaa !4812, !dbg !5504
	%133 = icmp sle i32  %132, 1, !dbg !5504
	br i1  %133, label %L..inline.78245, label %L.B1713, !dbg !5504
L.B1713:
	%134 = load %struct._Z6FsGridISt5arrayIdLm3EELi2EE*, %struct._Z6FsGridISt5arrayIdLm3EELi2EE** %_T15762440_54153.addr, align 8, !tbaa !4813, !dbg !5505
	%135 = bitcast %struct._Z6FsGridISt5arrayIdLm3EELi2EE*  %134 to i8*, !dbg !5505
	%136 = getelementptr i8, i8*  %135, i64 276, !dbg !5505
	%137 = bitcast i8*  %136 to i32*, !dbg !5505
	%138 = load i32, i32*  %137, align 4, !tbaa !4812, !dbg !5505
	%139 = load i32, i32* %y.addr, align 4, !tbaa !5030, !dbg !5505
	%140 = add i32  %139, 2, !dbg !5505
	%141 = mul i32  %138,  %140, !dbg !5505
	%142 = sext i32  %141 to i64, !dbg !5505
	%143 = load i64, i64* %..inline.addr.1, align 8, !tbaa !5343, !dbg !5505
	%144 = add i64  %142,  %143, !dbg !5505
	store i64  %144, i64* %..inline.addr.1, align 8, !tbaa !5343, !dbg !5505
	br label %L..inline.78245
L..inline.78245:
	%145 = load %struct._Z6FsGridISt5arrayIdLm3EELi2EE*, %struct._Z6FsGridISt5arrayIdLm3EELi2EE** %..inline.addr, align 8, !tbaa !4813, !dbg !5506
	%146 = bitcast %struct._Z6FsGridISt5arrayIdLm3EELi2EE*  %145 to i8*, !dbg !5506
	%147 = getelementptr i8, i8*  %146, i64 252, !dbg !5506
	%148 = bitcast i8*  %147 to i32*, !dbg !5506
	%149 = load i32, i32*  %148, align 4, !tbaa !4812, !dbg !5506
	%150 = icmp sle i32  %149, 1, !dbg !5506
	%151 = zext i1  %150 to i32, !dbg !5506
	%152 = trunc i32  %151 to i1, !dbg !5506
	%153 = load i64, i64* %..inline.addr.1, align 8, !tbaa !5343, !dbg !5506
	%154 = load i32, i32* %x.addr, align 4, !tbaa !5030, !dbg !5506
	%155 = sext i32  %154 to i64, !dbg !5506
	%156 = add i64  %155, 2, !dbg !5506
	%157 = add i64  %153,  %156, !dbg !5506
	%158 = select i1  %152, i64  %153, i64  %157, !dbg !5506
	%159 = load %struct._Z6FsGridISt5arrayIdLm3EELi2EE*, %struct._Z6FsGridISt5arrayIdLm3EELi2EE** %_T15762440_54153.addr, align 8, !tbaa !4813, !dbg !5507
	%160 = bitcast %struct._Z6FsGridISt5arrayIdLm3EELi2EE*  %159 to i8*, !dbg !5507
	%161 = getelementptr i8, i8*  %160, i64 744, !dbg !5507
	%162 = bitcast i8*  %161 to i8**, !dbg !5507
	%163 = load i8*, i8**  %162, align 8, !tbaa !4813, !dbg !5507
	%164 = mul i64  %158, 24, !dbg !5507
	%165 = getelementptr i8, i8*  %163, i64  %164, !dbg !5507
	%166 = bitcast i8*  %165 to %struct._ZSt5arrayIdLm3EE*, !dbg !5507
	ret %struct._ZSt5arrayIdLm3EE*  %166, !dbg !5507
L.R0023:
	ret %struct._ZSt5arrayIdLm3EE* null
}
define linkonce_odr void @_ZNSt11char_traitsIcE6assignERcRKc(i8* %__c1.arg, i8* %__c2.arg) #0 inlinehint !dbg !5515 {
L.entry:
	%__c1.addr = alloca i8*, align 8
	%__c2.addr = alloca i8*, align 8

	call void @llvm.dbg.declare (metadata i8** %__c1.addr, metadata !5519, metadata !4805), !dbg !5516
	store i8* %__c1.arg, i8** %__c1.addr, align 8, !tbaa !4813
	call void @llvm.dbg.declare (metadata i8** %__c1.addr, metadata !5520, metadata !4805), !dbg !5516
	call void @llvm.dbg.declare (metadata i8** %__c2.addr, metadata !5521, metadata !4805), !dbg !5516
	store i8* %__c2.arg, i8** %__c2.addr, align 8, !tbaa !4813
	call void @llvm.dbg.declare (metadata i8** %__c2.addr, metadata !5522, metadata !4805), !dbg !5516
	%0 = load i8*, i8** %__c2.addr, align 8, !tbaa !4813, !dbg !5523
	%1 = load i8, i8*  %0, align 1, !tbaa !4812, !dbg !5523
	%2 = load i8*, i8** %__c1.addr, align 8, !tbaa !4813, !dbg !5523
	store i8  %1, i8*  %2, align 1, !tbaa !4812, !dbg !5523
	ret void, !dbg !5523
}
define linkonce_odr i64 @_ZNSt11char_traitsIcE6lengthEPKc(i8* %__s.arg) #0 inlinehint !dbg !5527 {
L.entry:
	%__s.addr = alloca i8*, align 8

	call void @llvm.dbg.declare (metadata i8** %__s.addr, metadata !5531, metadata !4805), !dbg !5528
	store i8* %__s.arg, i8** %__s.addr, align 8, !tbaa !4813
	call void @llvm.dbg.declare (metadata i8** %__s.addr, metadata !5532, metadata !4805), !dbg !5528
	%0 = load i8*, i8** %__s.addr, align 8, !tbaa !4813, !dbg !5533
	%1 = call i64  @strlen (i8*  %0) nounwind, !dbg !5533
	ret i64  %1, !dbg !5533
}
define linkonce_odr i8* @_ZNSt11char_traitsIcE4copyEPcPKcm(i8* %__s1.arg, i8* %__s2.arg, i64 %__n.arg) #0 inlinehint !dbg !5538 {
L.entry:
	%__s1.addr = alloca i8*, align 8
	%__s2.addr = alloca i8*, align 8
	%__n.addr = alloca i64, align 8

	call void @llvm.dbg.declare (metadata i8** %__s1.addr, metadata !5542, metadata !4805), !dbg !5539
	store i8* %__s1.arg, i8** %__s1.addr, align 8, !tbaa !4813
	call void @llvm.dbg.declare (metadata i8** %__s1.addr, metadata !5543, metadata !4805), !dbg !5539
	call void @llvm.dbg.declare (metadata i8** %__s2.addr, metadata !5544, metadata !4805), !dbg !5539
	store i8* %__s2.arg, i8** %__s2.addr, align 8, !tbaa !4813
	call void @llvm.dbg.declare (metadata i8** %__s2.addr, metadata !5545, metadata !4805), !dbg !5539
	call void @llvm.dbg.declare (metadata i64* %__n.addr, metadata !5546, metadata !4805), !dbg !5539
	store i64 %__n.arg, i64* %__n.addr, align 8, !tbaa !4812
	call void @llvm.dbg.declare (metadata i64* %__n.addr, metadata !5547, metadata !4805), !dbg !5539
	%0 = load i64, i64* %__n.addr, align 8, !tbaa !5343, !dbg !5548
	%1 = icmp ne i64  %0, 0, !dbg !5548
	br i1  %1, label %L.B0017, label %L.B1714, !dbg !5548
L.B1714:
	%2 = load i8*, i8** %__s1.addr, align 8, !tbaa !4813, !dbg !5549
	ret i8*  %2, !dbg !5549
L.B1715:
	br label %L.R0026, !dbg !5549
L.B0017:
	%3 = load i8*, i8** %__s1.addr, align 8, !tbaa !4813, !dbg !5550
	%4 = load i8*, i8** %__s2.addr, align 8, !tbaa !4813, !dbg !5550
	%5 = load i64, i64* %__n.addr, align 8, !tbaa !5343, !dbg !5550
	%6 = call i8*  @memcpy (i8*  %3, i8*  %4, i64  %5) nounwind, !dbg !5550
	ret i8*  %6, !dbg !5550
L.R0026:
	ret i8* null
}

%struct._ZSaIcE = type <{ [1 x i8]}> 

define linkonce_odr void @_ZNSaIcEC1Ev(%struct._ZSaIcE* %_T15361704_54161.arg) #0 inlinehint !dbg !5558 {
L.entry:
	%_T15361704_54161.addr = alloca %struct._ZSaIcE*, align 8

	call void @llvm.dbg.declare (metadata %struct._ZSaIcE** %_T15361704_54161.addr, metadata !5562, metadata !4805), !dbg !5559
	store %struct._ZSaIcE* %_T15361704_54161.arg, %struct._ZSaIcE** %_T15361704_54161.addr, align 8, !tbaa !4813
	call void @llvm.dbg.declare (metadata %struct._ZSaIcE** %_T15361704_54161.addr, metadata !5563, metadata !4805), !dbg !5559
	ret void, !dbg !5564
}
define linkonce_odr void @_ZNSaIcEC2Ev(%struct._ZSaIcE* %_T15361704_54162.arg) #0 inlinehint !dbg !5566 {
L.entry:
	%_T15361704_54162.addr = alloca %struct._ZSaIcE*, align 8

	store %struct._ZSaIcE* %_T15361704_54162.arg, %struct._ZSaIcE** %_T15361704_54162.addr, align 8, !tbaa !4813
	ret void, !dbg !5574
}
define linkonce_odr void @_ZNSaIcEC1ERKS_(%struct._ZSaIcE* %_T15361704_54163.arg, %struct._ZSaIcE* %__a.arg) #0 inlinehint !dbg !5582 {
L.entry:
	%_T15361704_54163.addr = alloca %struct._ZSaIcE*, align 8
	%__a.addr = alloca %struct._ZSaIcE*, align 8

	call void @llvm.dbg.declare (metadata %struct._ZSaIcE** %_T15361704_54163.addr, metadata !5586, metadata !4805), !dbg !5583
	store %struct._ZSaIcE* %_T15361704_54163.arg, %struct._ZSaIcE** %_T15361704_54163.addr, align 8, !tbaa !4813
	call void @llvm.dbg.declare (metadata %struct._ZSaIcE** %_T15361704_54163.addr, metadata !5587, metadata !4805), !dbg !5583
	call void @llvm.dbg.declare (metadata %struct._ZSaIcE** %__a.addr, metadata !5588, metadata !4805), !dbg !5583
	store %struct._ZSaIcE* %__a.arg, %struct._ZSaIcE** %__a.addr, align 8, !tbaa !4813
	call void @llvm.dbg.declare (metadata %struct._ZSaIcE** %__a.addr, metadata !5589, metadata !4805), !dbg !5583
	ret void, !dbg !5590
}
define linkonce_odr void @_ZNSaIcEC2ERKS_(%struct._ZSaIcE* %_T15361704_54164.arg, %struct._ZSaIcE* %_T15362000_54164.arg) #0 inlinehint !dbg !5592 {
L.entry:
	%_T15361704_54164.addr = alloca %struct._ZSaIcE*, align 8
	%_T15362000_54164.addr = alloca %struct._ZSaIcE*, align 8

	store %struct._ZSaIcE* %_T15361704_54164.arg, %struct._ZSaIcE** %_T15361704_54164.addr, align 8, !tbaa !4813
	store %struct._ZSaIcE* %_T15362000_54164.arg, %struct._ZSaIcE** %_T15362000_54164.addr, align 8, !tbaa !4813
	ret void, !dbg !5600
}
define linkonce_odr void @_ZNSaIcED1Ev(%struct._ZSaIcE* %_T15361704_54165.arg) #0 inlinehint !dbg !5602 {
L.entry:
	%_T15361704_54165.addr = alloca %struct._ZSaIcE*, align 8

	call void @llvm.dbg.declare (metadata %struct._ZSaIcE** %_T15361704_54165.addr, metadata !5606, metadata !4805), !dbg !5603
	store %struct._ZSaIcE* %_T15361704_54165.arg, %struct._ZSaIcE** %_T15361704_54165.addr, align 8, !tbaa !4813
	call void @llvm.dbg.declare (metadata %struct._ZSaIcE** %_T15361704_54165.addr, metadata !5607, metadata !4805), !dbg !5603
	ret void, !dbg !5608
}
define linkonce_odr void @_ZNSaIcED2Ev(%struct._ZSaIcE* %_T15361704_54166.arg) #0 inlinehint !dbg !5610 {
L.entry:
	%_T15361704_54166.addr = alloca %struct._ZSaIcE*, align 8

	store %struct._ZSaIcE* %_T15361704_54166.arg, %struct._ZSaIcE** %_T15361704_54166.addr, align 8, !tbaa !4813
	ret void, !dbg !5618
}
define linkonce_odr void @_ZNSt16allocator_traitsISaIcEE10deallocateERS0_Pcm(%struct._ZSaIcE* %__a.arg, i8* %__p.arg, i64 %__n.arg) #0 inlinehint !dbg !5628 {
L.entry:
	%__a.addr = alloca %struct._ZSaIcE*, align 8
	%__p.addr = alloca i8*, align 8
	%__n.addr = alloca i64, align 8
	%..inline.addr = alloca i8*, align 8

	call void @llvm.dbg.declare (metadata %struct._ZSaIcE** %__a.addr, metadata !5636, metadata !4805), !dbg !5629
	store %struct._ZSaIcE* %__a.arg, %struct._ZSaIcE** %__a.addr, align 8, !tbaa !4813
	call void @llvm.dbg.declare (metadata %struct._ZSaIcE** %__a.addr, metadata !5637, metadata !4805), !dbg !5629
	call void @llvm.dbg.declare (metadata i8** %__p.addr, metadata !5638, metadata !4805), !dbg !5629
	store i8* %__p.arg, i8** %__p.addr, align 8, !tbaa !4813
	call void @llvm.dbg.declare (metadata i8** %__p.addr, metadata !5639, metadata !4805), !dbg !5629
	call void @llvm.dbg.declare (metadata i64* %__n.addr, metadata !5640, metadata !4805), !dbg !5629
	store i64 %__n.arg, i64* %__n.addr, align 8, !tbaa !4812
	call void @llvm.dbg.declare (metadata i64* %__n.addr, metadata !5641, metadata !4805), !dbg !5629
	%0 = load i8*, i8** %__p.addr, align 8, !tbaa !4813, !dbg !5642
	call void  @_ZdlPv (i8*  %0) nounwind, !dbg !5643
	ret void, !dbg !5642
}
define linkonce_odr i64 @_ZNSt16allocator_traitsISaIcEE8max_sizeERKS0_(%struct._ZSaIcE* %__a.arg) #0 inlinehint !dbg !5651 {
L.entry:
	%__a.addr = alloca %struct._ZSaIcE*, align 8

	call void @llvm.dbg.declare (metadata %struct._ZSaIcE** %__a.addr, metadata !5659, metadata !4805), !dbg !5652
	store %struct._ZSaIcE* %__a.arg, %struct._ZSaIcE** %__a.addr, align 8, !tbaa !4813
	call void @llvm.dbg.declare (metadata %struct._ZSaIcE** %__a.addr, metadata !5660, metadata !4805), !dbg !5652
	ret i64 -1, !dbg !5661
}
define linkonce_odr void @_ZNSt16allocator_traitsISaIcEE37select_on_container_copy_constructionERKS0_(%struct._ZSaIcE* sret %_T15361704_54174.arg, %struct._ZSaIcE* %__rhs.arg) #0 inlinehint !dbg !5666 {
L.entry:
	%_T15361704_54174.addr = alloca %struct._ZSaIcE*, align 8
	%__rhs.addr = alloca %struct._ZSaIcE*, align 8

	store %struct._ZSaIcE* %_T15361704_54174.arg, %struct._ZSaIcE** %_T15361704_54174.addr, align 8, !tbaa !4813
	call void @llvm.dbg.declare (metadata %struct._ZSaIcE** %__rhs.addr, metadata !5670, metadata !4805), !dbg !5667
	store %struct._ZSaIcE* %__rhs.arg, %struct._ZSaIcE** %__rhs.addr, align 8, !tbaa !4813
	call void @llvm.dbg.declare (metadata %struct._ZSaIcE** %__rhs.addr, metadata !5671, metadata !4805), !dbg !5667
	ret void, !dbg !5672
}

%struct._ZSt4hashImE = type <{ [1 x i8]}> 

define linkonce_odr i64 @_ZNKSt4hashImEclEm(%struct._ZSt4hashImE* %_T15361704_54176.arg, i64 %__val.arg) #0 inlinehint !dbg !5679 {
L.entry:
	%_T15361704_54176.addr = alloca %struct._ZSt4hashImE*, align 8
	%__val.addr = alloca i64, align 8

	call void @llvm.dbg.declare (metadata %struct._ZSt4hashImE** %_T15361704_54176.addr, metadata !5683, metadata !4805), !dbg !5680
	store %struct._ZSt4hashImE* %_T15361704_54176.arg, %struct._ZSt4hashImE** %_T15361704_54176.addr, align 8, !tbaa !4813
	call void @llvm.dbg.declare (metadata %struct._ZSt4hashImE** %_T15361704_54176.addr, metadata !5684, metadata !4805), !dbg !5680
	call void @llvm.dbg.declare (metadata i64* %__val.addr, metadata !5685, metadata !4805), !dbg !5680
	store i64 %__val.arg, i64* %__val.addr, align 8, !tbaa !4812
	call void @llvm.dbg.declare (metadata i64* %__val.addr, metadata !5686, metadata !4805), !dbg !5680
	%0 = load i64, i64* %__val.addr, align 8, !tbaa !5343, !dbg !5687
	ret i64  %0, !dbg !5687
}
define linkonce_odr signext i8 @_ZNKSt5ctypeIcE5widenEc(%struct._ZSt5ctypeIcE* %_T15361888_54180.arg, i8 signext %__c.arg) #0 inlinehint !dbg !5693 {
L.entry:
	%_T15361888_54180.addr = alloca %struct._ZSt5ctypeIcE*, align 8
	%__c.addr = alloca i8, align 1
	%.Q0006.addr = alloca i32, align 4

	call void @llvm.dbg.declare (metadata %struct._ZSt5ctypeIcE** %_T15361888_54180.addr, metadata !5697, metadata !4805), !dbg !5694
	store %struct._ZSt5ctypeIcE* %_T15361888_54180.arg, %struct._ZSt5ctypeIcE** %_T15361888_54180.addr, align 8, !tbaa !4813
	call void @llvm.dbg.declare (metadata %struct._ZSt5ctypeIcE** %_T15361888_54180.addr, metadata !5698, metadata !4805), !dbg !5694
	call void @llvm.dbg.declare (metadata i8* %__c.addr, metadata !5699, metadata !4805), !dbg !5694
	store i8 %__c.arg, i8* %__c.addr, align 1, !tbaa !4812
	call void @llvm.dbg.declare (metadata i8* %__c.addr, metadata !5700, metadata !4805), !dbg !5694
	%0 = load %struct._ZSt5ctypeIcE*, %struct._ZSt5ctypeIcE** %_T15361888_54180.addr, align 8, !tbaa !4813, !dbg !5701
	%1 = bitcast %struct._ZSt5ctypeIcE*  %0 to i8*, !dbg !5701
	%2 = getelementptr i8, i8*  %1, i64 56, !dbg !5701
	%3 = load i8, i8*  %2, align 1, !tbaa !4812, !dbg !5701
	%4 = sext i8  %3 to i32, !dbg !5701
	%5 = icmp eq i32  %4, 0, !dbg !5701
	br i1  %5, label %L.B0018, label %L.B1726, !dbg !5701
L.B1726:
	%6 = bitcast %struct._ZSt5ctypeIcE*  %0 to i8*, !dbg !5702
	%7 = getelementptr i8, i8*  %6, i64 57, !dbg !5702
	%8 = load i8, i8* %__c.addr, align 1, !tbaa !4812, !dbg !5702
	%9 = sext i8  %8 to i32, !dbg !5702
	%10 = and i32  %9, 255, !dbg !5702
	%11 = sext i32  %10 to i64, !dbg !5702
	%12 = getelementptr i8, i8*  %7, i64  %11, !dbg !5702
	%13 = load i8, i8*  %12, align 1, !tbaa !4812, !dbg !5702
	ret i8  %13, !dbg !5702
L.B1727:
	br label %L.R0037, !dbg !5702
L.B0018:
	%14 = load %struct._ZSt5ctypeIcE*, %struct._ZSt5ctypeIcE** %_T15361888_54180.addr, align 8, !tbaa !4813, !dbg !5703
	call void  @_ZNKSt5ctypeIcE13_M_widen_initEv (%struct._ZSt5ctypeIcE*  %14), !dbg !5703
	%15 = load %struct._ZSt5ctypeIcE*, %struct._ZSt5ctypeIcE** %_T15361888_54180.addr, align 8, !tbaa !4813, !dbg !5704
	%16 = load i8, i8* %__c.addr, align 1, !tbaa !4812, !dbg !5704
	%17 = bitcast %struct._ZSt5ctypeIcE*  %15 to i8**, !dbg !5704
	%18 = load i8*, i8**  %17, align 8, !tbaa !4813, !dbg !5704
	%19 = getelementptr i8, i8*  %18, i64 48, !dbg !5704
	%20 = bitcast i8*  %19 to i8 (%struct._ZSt5ctypeIcE*, i8)**, !dbg !5704
	%21 = load i8 (%struct._ZSt5ctypeIcE*, i8)*, i8 (%struct._ZSt5ctypeIcE*, i8)**  %20, align 8, !tbaa !4813, !dbg !5704
	%22 = call i8  %21 (%struct._ZSt5ctypeIcE*  %15, i8  %16), !dbg !5704
	%23 = sext i8  %22 to i32, !dbg !5704
	store i32  %23, i32* %.Q0006.addr, align 4, !tbaa !5030, !dbg !5704
	%24 = shl i32  %23, 24, !dbg !5704
	%25 = ashr i32  %24, 24, !dbg !5704
	%26 = trunc i32  %25 to i8, !dbg !5704
	ret i8  %26, !dbg !5704
L.R0037:
	ret i8 0
}
define linkonce_odr signext i32 @_ZNKSt9basic_iosIcSt11char_traitsIcEE7rdstateEv(%struct._ZSt9basic_iosIcSt11char_traitsIcEE* %_T15361704_54183.arg) #0 inlinehint !dbg !5712 {
L.entry:
	%_T15361704_54183.addr = alloca %struct._ZSt9basic_iosIcSt11char_traitsIcEE*, align 8

	call void @llvm.dbg.declare (metadata %struct._ZSt9basic_iosIcSt11char_traitsIcEE** %_T15361704_54183.addr, metadata !5716, metadata !4805), !dbg !5713
	store %struct._ZSt9basic_iosIcSt11char_traitsIcEE* %_T15361704_54183.arg, %struct._ZSt9basic_iosIcSt11char_traitsIcEE** %_T15361704_54183.addr, align 8, !tbaa !4813
	call void @llvm.dbg.declare (metadata %struct._ZSt9basic_iosIcSt11char_traitsIcEE** %_T15361704_54183.addr, metadata !5717, metadata !4805), !dbg !5713
	%0 = load %struct._ZSt9basic_iosIcSt11char_traitsIcEE*, %struct._ZSt9basic_iosIcSt11char_traitsIcEE** %_T15361704_54183.addr, align 8, !tbaa !4813, !dbg !5718
	%1 = bitcast %struct._ZSt9basic_iosIcSt11char_traitsIcEE*  %0 to i8*, !dbg !5718
	%2 = getelementptr i8, i8*  %1, i64 32, !dbg !5718
	%3 = bitcast i8*  %2 to i32*, !dbg !5718
	%4 = load i32, i32*  %3, align 4, !tbaa !4812, !dbg !5718
	ret i32  %4, !dbg !5718
}
define linkonce_odr void @_ZNSt9basic_iosIcSt11char_traitsIcEE8setstateESt12_Ios_Iostate(%struct._ZSt9basic_iosIcSt11char_traitsIcEE* %_T15361704_54187.arg, i32 signext %__state.arg) #0 inlinehint !dbg !5722 {
L.entry:
	%_T15361704_54187.addr = alloca %struct._ZSt9basic_iosIcSt11char_traitsIcEE*, align 8
	%__state.addr = alloca i32, align 4
	%..inline.addr = alloca i32, align 4

	call void @llvm.dbg.declare (metadata %struct._ZSt9basic_iosIcSt11char_traitsIcEE** %_T15361704_54187.addr, metadata !5734, metadata !4805), !dbg !5723
	store %struct._ZSt9basic_iosIcSt11char_traitsIcEE* %_T15361704_54187.arg, %struct._ZSt9basic_iosIcSt11char_traitsIcEE** %_T15361704_54187.addr, align 8, !tbaa !4813
	call void @llvm.dbg.declare (metadata %struct._ZSt9basic_iosIcSt11char_traitsIcEE** %_T15361704_54187.addr, metadata !5735, metadata !4805), !dbg !5723
	call void @llvm.dbg.declare (metadata i32* %__state.addr, metadata !5736, metadata !4805), !dbg !5723
	store i32 %__state.arg, i32* %__state.addr, align 4, !tbaa !4812
	call void @llvm.dbg.declare (metadata i32* %__state.addr, metadata !5737, metadata !4805), !dbg !5723
	%0 = load i32, i32* %__state.addr, align 4, !tbaa !4812, !dbg !5738
	%1 = load %struct._ZSt9basic_iosIcSt11char_traitsIcEE*, %struct._ZSt9basic_iosIcSt11char_traitsIcEE** %_T15361704_54187.addr, align 8, !tbaa !4813, !dbg !5738
	%2 = bitcast %struct._ZSt9basic_iosIcSt11char_traitsIcEE*  %1 to i8*, !dbg !5738
	%3 = getelementptr i8, i8*  %2, i64 32, !dbg !5738
	%4 = bitcast i8*  %3 to i32*, !dbg !5738
	%5 = load i32, i32*  %4, align 4, !tbaa !4812, !dbg !5738
	%6 = or i32  %0,  %5, !dbg !5738
	call void  @_ZNSt9basic_iosIcSt11char_traitsIcEE5clearESt12_Ios_Iostate (%struct._ZSt9basic_iosIcSt11char_traitsIcEE*  %1, i32  %6), !dbg !5739
	ret void, !dbg !5738
}
define linkonce_odr signext i8 @_ZNKSt9basic_iosIcSt11char_traitsIcEE5widenEc(%struct._ZSt9basic_iosIcSt11char_traitsIcEE* %_T15361704_54189.arg, i8 signext %__c.arg) #0 inlinehint !dbg !5743 {
L.entry:
	%_T15361704_54189.addr = alloca %struct._ZSt9basic_iosIcSt11char_traitsIcEE*, align 8
	%__c.addr = alloca i8, align 1
	%..inline.addr = alloca %struct._ZSt5ctypeIcE*, align 8
	%..inline.addr.1 = alloca %struct._ZSt5ctypeIcE*, align 8
	%..inline.addr.2 = alloca i8, align 1
	%..inline.addr.3 = alloca i8, align 1
	%.Q0007.addr = alloca i32, align 4

	call void @llvm.dbg.declare (metadata %struct._ZSt9basic_iosIcSt11char_traitsIcEE** %_T15361704_54189.addr, metadata !5755, metadata !4805), !dbg !5744
	store %struct._ZSt9basic_iosIcSt11char_traitsIcEE* %_T15361704_54189.arg, %struct._ZSt9basic_iosIcSt11char_traitsIcEE** %_T15361704_54189.addr, align 8, !tbaa !4813
	call void @llvm.dbg.declare (metadata %struct._ZSt9basic_iosIcSt11char_traitsIcEE** %_T15361704_54189.addr, metadata !5756, metadata !4805), !dbg !5744
	call void @llvm.dbg.declare (metadata i8* %__c.addr, metadata !5757, metadata !4805), !dbg !5744
	store i8 %__c.arg, i8* %__c.addr, align 1, !tbaa !4812
	call void @llvm.dbg.declare (metadata i8* %__c.addr, metadata !5758, metadata !4805), !dbg !5744
	%0 = load %struct._ZSt9basic_iosIcSt11char_traitsIcEE*, %struct._ZSt9basic_iosIcSt11char_traitsIcEE** %_T15361704_54189.addr, align 8, !tbaa !4813, !dbg !5759
	%1 = bitcast %struct._ZSt9basic_iosIcSt11char_traitsIcEE*  %0 to i8*, !dbg !5759
	%2 = getelementptr i8, i8*  %1, i64 240, !dbg !5759
	%3 = bitcast i8*  %2 to i8**, !dbg !5759
	%4 = load i8*, i8**  %3, align 8, !tbaa !4813, !dbg !5759
	%5 = bitcast %struct._ZSt5ctypeIcE** %..inline.addr to i8**, !dbg !5759
	store i8*  %4, i8**  %5, align 8, !tbaa !4813, !dbg !5759
	%6 = load %struct._ZSt5ctypeIcE*, %struct._ZSt5ctypeIcE** %..inline.addr, align 8, !tbaa !4813, !dbg !5759
	%7 = bitcast %struct._ZSt5ctypeIcE*  %6 to i8*, !dbg !5759
	%8 = icmp ne i8*  %7,  null, !dbg !5759
	br i1  %8, label %L..inline.78540, label %L.B1736, !dbg !5759
L.B1736:
	call void  @_ZSt16__throw_bad_castv () noreturn, !dbg !5760
	br label %L..inline.78540
L..inline.78540:
	%9 = load %struct._ZSt5ctypeIcE*, %struct._ZSt5ctypeIcE** %..inline.addr, align 8, !tbaa !4813, !dbg !5761
	%10 = bitcast %struct._ZSt5ctypeIcE*  %9 to i8*, !dbg !5761
	%11 = bitcast %struct._ZSt5ctypeIcE** %..inline.addr.1 to i8**, !dbg !5761
	store i8*  %10, i8**  %11, align 8, !tbaa !4813, !dbg !5761
	%12 = load i8, i8* %__c.addr, align 1, !tbaa !4812, !dbg !5759
	store i8  %12, i8* %..inline.addr.2, align 1, !tbaa !4812, !dbg !5759
	%13 = load %struct._ZSt5ctypeIcE*, %struct._ZSt5ctypeIcE** %..inline.addr.1, align 8, !tbaa !4813, !dbg !5759
	%14 = bitcast %struct._ZSt5ctypeIcE*  %13 to i8*, !dbg !5759
	%15 = getelementptr i8, i8*  %14, i64 56, !dbg !5759
	%16 = load i8, i8*  %15, align 1, !tbaa !4812, !dbg !5759
	%17 = sext i8  %16 to i32, !dbg !5759
	%18 = icmp eq i32  %17, 0, !dbg !5759
	br i1  %18, label %L..inline.78546, label %L.B1737, !dbg !5759
L.B1737:
	%19 = bitcast %struct._ZSt5ctypeIcE*  %13 to i8*, !dbg !5762
	%20 = getelementptr i8, i8*  %19, i64 57, !dbg !5762
	%21 = sext i8  %12 to i32, !dbg !5762
	%22 = and i32  %21, 255, !dbg !5762
	%23 = sext i32  %22 to i64, !dbg !5762
	%24 = getelementptr i8, i8*  %20, i64  %23, !dbg !5762
	%25 = load i8, i8*  %24, align 1, !tbaa !4812, !dbg !5762
	store i8  %25, i8* %..inline.addr.3, align 1, !tbaa !4812, !dbg !5762
	br label %L..inline.78550, !dbg !5763
L..inline.78546:
	%26 = load %struct._ZSt5ctypeIcE*, %struct._ZSt5ctypeIcE** %..inline.addr.1, align 8, !tbaa !4813, !dbg !5764
	call void  @_ZNKSt5ctypeIcE13_M_widen_initEv (%struct._ZSt5ctypeIcE*  %26), !dbg !5764
	%27 = load %struct._ZSt5ctypeIcE*, %struct._ZSt5ctypeIcE** %..inline.addr.1, align 8, !tbaa !4813, !dbg !5765
	%28 = load i8, i8* %..inline.addr.2, align 1, !tbaa !4812, !dbg !5765
	%29 = bitcast %struct._ZSt5ctypeIcE*  %27 to i8**, !dbg !5765
	%30 = load i8*, i8**  %29, align 8, !tbaa !4813, !dbg !5765
	%31 = getelementptr i8, i8*  %30, i64 48, !dbg !5765
	%32 = bitcast i8*  %31 to i8 (%struct._ZSt5ctypeIcE*, i8)**, !dbg !5765
	%33 = load i8 (%struct._ZSt5ctypeIcE*, i8)*, i8 (%struct._ZSt5ctypeIcE*, i8)**  %32, align 8, !tbaa !4813, !dbg !5765
	%34 = call i8  %33 (%struct._ZSt5ctypeIcE*  %27, i8  %28), !dbg !5765
	%35 = sext i8  %34 to i32, !dbg !5765
	store i32  %35, i32* %.Q0007.addr, align 4, !tbaa !5030, !dbg !5765
	%36 = shl i32  %35, 24, !dbg !5765
	%37 = ashr i32  %36, 24, !dbg !5765
	%38 = trunc i32  %37 to i8, !dbg !5765
	store i8  %38, i8* %..inline.addr.3, align 1, !tbaa !4812, !dbg !5765
	br label %L..inline.78550
L..inline.78550:
	%39 = load i8, i8* %..inline.addr.3, align 1, !tbaa !4812, !dbg !5766
	ret i8  %39, !dbg !5766
}
define linkonce_odr %struct._ZSo* @_ZNSolsEPFRSoS_E(%struct._ZSo* %_T15361704_54191.arg, %struct._ZSo* (%struct._ZSo*)* %__pf.arg) #0 inlinehint !dbg !5775 {
L.entry:
	%_T15361704_54191.addr = alloca %struct._ZSo*, align 8
	%__pf.addr = alloca %struct._ZSo* (%struct._ZSo*)*, align 8
	%.Q0008.addr = alloca %struct._ZSo*, align 8

	call void @llvm.dbg.declare (metadata %struct._ZSo** %_T15361704_54191.addr, metadata !5779, metadata !4805), !dbg !5776
	store %struct._ZSo* %_T15361704_54191.arg, %struct._ZSo** %_T15361704_54191.addr, align 8, !tbaa !4813
	call void @llvm.dbg.declare (metadata %struct._ZSo** %_T15361704_54191.addr, metadata !5780, metadata !4805), !dbg !5776
	call void @llvm.dbg.declare (metadata %struct._ZSo* (%struct._ZSo*)** %__pf.addr, metadata !5781, metadata !4805), !dbg !5776
	store %struct._ZSo* (%struct._ZSo*)* %__pf.arg, %struct._ZSo* (%struct._ZSo*)** %__pf.addr, align 8, !tbaa !4813
	call void @llvm.dbg.declare (metadata %struct._ZSo* (%struct._ZSo*)** %__pf.addr, metadata !5782, metadata !4805), !dbg !5776
	%0 = load %struct._ZSo*, %struct._ZSo** %_T15361704_54191.addr, align 8, !tbaa !4813, !dbg !5783
	%1 = load %struct._ZSo* (%struct._ZSo*)*, %struct._ZSo* (%struct._ZSo*)** %__pf.addr, align 8, !tbaa !4813, !dbg !5783
	%2 = call %struct._ZSo*  %1 (%struct._ZSo*  %0), !dbg !5783
	%3 = bitcast %struct._ZSo*  %2 to i8*, !dbg !5783
	%4 = bitcast %struct._ZSo** %.Q0008.addr to i8**, !dbg !5783
	store i8*  %3, i8**  %4, align 8, !tbaa !4813, !dbg !5783
	%5 = load %struct._ZSo*, %struct._ZSo** %.Q0008.addr, align 8, !tbaa !4813, !dbg !5783
	ret %struct._ZSo*  %5, !dbg !5783
}
define linkonce_odr %struct._ZSo* @_ZNSolsEj(%struct._ZSo* %_T15361704_54192.arg, i32 zeroext %__n.arg) #0 inlinehint !dbg !5788 {
L.entry:
	%_T15361704_54192.addr = alloca %struct._ZSo*, align 8
	%__n.addr = alloca i32, align 4
	%.Q0009.addr = alloca %struct._ZSo*, align 8

	call void @llvm.dbg.declare (metadata %struct._ZSo** %_T15361704_54192.addr, metadata !5792, metadata !4805), !dbg !5789
	store %struct._ZSo* %_T15361704_54192.arg, %struct._ZSo** %_T15361704_54192.addr, align 8, !tbaa !4813
	call void @llvm.dbg.declare (metadata %struct._ZSo** %_T15361704_54192.addr, metadata !5793, metadata !4805), !dbg !5789
	call void @llvm.dbg.declare (metadata i32* %__n.addr, metadata !5794, metadata !4805), !dbg !5789
	store i32 %__n.arg, i32* %__n.addr, align 4, !tbaa !4812
	call void @llvm.dbg.declare (metadata i32* %__n.addr, metadata !5795, metadata !4805), !dbg !5789
	%0 = load %struct._ZSo*, %struct._ZSo** %_T15361704_54192.addr, align 8, !tbaa !4813, !dbg !5796
	%1 = load i32, i32* %__n.addr, align 4, !tbaa !5030, !dbg !5796
	%2 = zext i32  %1 to i64, !dbg !5796
	%3 = call %struct._ZSo*  @_ZNSo9_M_insertImEERSoT_ (%struct._ZSo*  %0, i64  %2), !dbg !5796
	%4 = bitcast %struct._ZSo*  %3 to i8*, !dbg !5796
	%5 = bitcast %struct._ZSo** %.Q0009.addr to i8**, !dbg !5796
	store i8*  %4, i8**  %5, align 8, !tbaa !4813, !dbg !5796
	%6 = load %struct._ZSo*, %struct._ZSo** %.Q0009.addr, align 8, !tbaa !4813, !dbg !5796
	ret %struct._ZSo*  %6, !dbg !5796
}

%struct._ZSt6vectorIN12spatial_cell10PopulationESaIS1_EE = type <{ %struct._ZSt12_Vector_baseIN12spatial_cell10PopulationESaIS1_EE}> 
%struct._ZNSt12_Vector_baseId17aligned_allocatorIdLm6EEE12_Vector_implE = type <{ %struct._ZNSt12_Vector_baseId17aligned_allocatorIdLm6EEE17_Vector_impl_dataE}> 
%struct._ZSt8_Rb_treeIiSt4pairIKiSt3setIiSt4lessIiESaIiEEESt10_Select1stIS7_ES4_SaIS7_EE = type <{ %struct._ZNSt8_Rb_treeIiSt4pairIKiSt3setIiSt4lessIiESaIiEEESt10_Select1stIS7_ES4_SaIS7_EE13_Rb_tree_implIS4_Lb1EEE}> 
%struct._ZSt5arrayIfLm64EE = type <{ [64 x float]}> 
%struct._ZSt6vectorId17aligned_allocatorIdLm6EEE = type <{ %struct._ZSt12_Vector_baseId17aligned_allocatorIdLm6EEE}> 
%struct._ZN12spatial_cell10PopulationE = type <{ double, [3 x double], double, [3 x double], double, [3 x double], [3 x double], [3 x double], [3 x double], double, [2 x double], double, i32, i32, %struct._ZN5vmesh12VelocityMeshIjjEE, %struct._ZN5vmesh22VelocityBlockContainerIjEE}> 
%struct._ZSt4pairIKmN12spatial_cell11SpatialCellEE = type <{ i64, %struct._ZN12spatial_cell11SpatialCellE}> 
%struct._ZSt3mapIiSt3setIiSt4lessIiESaIiEES2_SaISt4pairIKiS4_EEE = type <{ %struct._ZSt8_Rb_treeIiSt4pairIKiSt3setIiSt4lessIiESaIiEEESt10_Select1stIS7_ES4_SaIS7_EE}> 
%struct._ZNSt8__detail15_Hash_node_baseE = type <{ %struct._ZNSt8__detail15_Hash_node_baseE*}> 
%struct._ZSt4lessIiE = type <{ [1 x i8]}> 
%struct._ZSt20_Rb_tree_key_compareISt4lessIiEE = type <{ %struct._ZSt4lessIiE}> 
%struct._ZSt10_HashtableIjSt4pairIKjjESaIS2_ENSt8__detail10_Select1stESt8equal_toIjESt4hashIjENS4_18_Mod_range_hashingENS4_20_Default_ranged_hashENS4_20_Prime_rehash_policyENS4_17_Hashtable_traitsILb0ELb0ELb1EEEE = type <{ %struct._ZNSt8__detail15_Hash_node_baseE**, i64, %struct._ZNSt8__detail15_Hash_node_baseE, i64, %struct._ZNSt8__detail20_Prime_rehash_policyE, %struct._ZNSt8__detail15_Hash_node_baseE*}> 
%struct._ZSt12_Vector_baseIN12spatial_cell10PopulationESaIS1_EE = type <{ %struct._ZNSt12_Vector_baseIN12spatial_cell10PopulationESaIS1_EE12_Vector_implE}> 
%struct._ZSt6vectorIf17aligned_allocatorIfLm64EEE = type <{ %struct._ZSt12_Vector_baseIf17aligned_allocatorIfLm64EEE}> 
%struct._ZNSt12_Vector_baseIf17aligned_allocatorIfLm64EEE12_Vector_implE = type <{ %struct._ZNSt12_Vector_baseIf17aligned_allocatorIfLm64EEE17_Vector_impl_dataE}> 
%struct._ZNSt8_Rb_treeIiSt4pairIKiSt3setIiSt4lessIiESaIiEEESt10_Select1stIS7_ES4_SaIS7_EE13_Rb_tree_implIS4_Lb1EEE = type <{ %struct._ZSt20_Rb_tree_key_compareISt4lessIiEE, [7 x i8], %struct._ZSt15_Rb_tree_header}> 
%struct._ZN5vmesh12VelocityMeshIjjEE = type <{ i64, %struct._ZSt6vectorIjSaIjEE, %struct._ZSt13unordered_mapIjjSt4hashIjESt8equal_toIjESaISt4pairIKjjEEE}> 
%struct._ZSt12_Vector_baseIf17aligned_allocatorIfLm64EEE = type <{ %struct._ZNSt12_Vector_baseIf17aligned_allocatorIfLm64EEE12_Vector_implE}> 
%struct._ZSt12_Vector_baseIjSaIjEE = type <{ %struct._ZNSt12_Vector_baseIjSaIjEE12_Vector_implE}> 
%struct._ZNSt12_Vector_baseIf17aligned_allocatorIfLm64EEE17_Vector_impl_dataE = type <{ float*, float*, float*}> 
%struct._ZSt15_Rb_tree_header = type <{ %struct._ZSt18_Rb_tree_node_base, i64}> 
%struct._ZNSt12_Vector_baseId17aligned_allocatorIdLm6EEE17_Vector_impl_dataE = type <{ double*, double*, double*}> 
%struct._ZNSt12_Vector_baseIN12spatial_cell10PopulationESaIS1_EE12_Vector_implE = type <{ %struct._ZNSt12_Vector_baseIN12spatial_cell10PopulationESaIS1_EE17_Vector_impl_dataE}> 
%struct._ZNSt12_Vector_baseIN12spatial_cell10PopulationESaIS1_EE17_Vector_impl_dataE = type <{ %struct._ZN12spatial_cell10PopulationE*, %struct._ZN12spatial_cell10PopulationE*, %struct._ZN12spatial_cell10PopulationE*}> 
%struct._ZSt5arrayIPfLm8EE = type <{ [8 x float*]}> 
%struct._ZNSt12_Vector_baseIjSaIjEE12_Vector_implE = type <{ %struct._ZNSt12_Vector_baseIjSaIjEE17_Vector_impl_dataE}> 
%struct._ZN12spatial_cell11SpatialCellE = type <{ %struct._ZSt5arrayIdLm6EE, %struct._ZSt5arrayIdLm59EE, %struct._ZSt5arrayIfLm64EE, i64, %struct._ZSt5arrayIPfLm8EE, %struct._ZSt5arrayIjLm8EE, %struct._ZSt3mapIiSt3setIiSt4lessIiESaIiEES2_SaISt4pairIKiS4_EEE, i32, i32, i32, [4 x i8], %struct._ZSt6vectorIjSaIjEE, i32, [4 x i8], %struct._ZSt6vectorIjSaIjEE, i8, i8, [6 x i8], %struct._ZN5vmesh12VelocityMeshIjjEE, %struct._ZN5vmesh22VelocityBlockContainerIjEE, %struct._ZSt6vectorIN12spatial_cell10PopulationESaIS1_EE}> 
%struct._ZSt18_Rb_tree_node_base = type <{ i32, [4 x i8], %struct._ZSt18_Rb_tree_node_base*, %struct._ZSt18_Rb_tree_node_base*, %struct._ZSt18_Rb_tree_node_base*}> 
%struct._ZSt5arrayIjLm8EE = type <{ [8 x i32]}> 
%struct._ZNSt8__detail20_Prime_rehash_policyE = type <{ float, [4 x i8], i64}> 
%struct._ZSt5arrayIdLm6EE = type <{ [6 x double]}> 
%struct._ZNSt12_Vector_baseIjSaIjEE17_Vector_impl_dataE = type <{ i32*, i32*, i32*}> 
%struct._ZSt12_Vector_baseId17aligned_allocatorIdLm6EEE = type <{ %struct._ZNSt12_Vector_baseId17aligned_allocatorIdLm6EEE12_Vector_implE}> 
%struct._ZSt6vectorIjSaIjEE = type <{ %struct._ZSt12_Vector_baseIjSaIjEE}> 
%struct._ZSt13unordered_mapIjjSt4hashIjESt8equal_toIjESaISt4pairIKjjEEE = type <{ %struct._ZSt10_HashtableIjSt4pairIKjjESaIS2_ENSt8__detail10_Select1stESt8equal_toIjESt4hashIjENS4_18_Mod_range_hashingENS4_20_Default_ranged_hashENS4_20_Prime_rehash_policyENS4_17_Hashtable_traitsILb0ELb0ELb1EEEE}> 
%struct._ZSt5arrayIdLm59EE = type <{ [59 x double]}> 
%struct._ZN5vmesh22VelocityBlockContainerIjEE = type <{ %struct._ZSt6vectorIf17aligned_allocatorIfLm64EEE, [64 x float], i32, i32, %struct._ZSt6vectorId17aligned_allocatorIdLm6EEE}> 

define linkonce_odr i64* @_ZNSt10__pair_getILm0EE5__getIKmN12spatial_cell11SpatialCellEEERT_RSt4pairIS5_T0_E(%struct._ZSt4pairIKmN12spatial_cell11SpatialCellEE* %__pair.arg) #0 inlinehint !dbg !5808 {
L.entry:
	%__pair.addr = alloca %struct._ZSt4pairIKmN12spatial_cell11SpatialCellEE*, align 8

	call void @llvm.dbg.declare (metadata %struct._ZSt4pairIKmN12spatial_cell11SpatialCellEE** %__pair.addr, metadata !5812, metadata !4805), !dbg !5809
	store %struct._ZSt4pairIKmN12spatial_cell11SpatialCellEE* %__pair.arg, %struct._ZSt4pairIKmN12spatial_cell11SpatialCellEE** %__pair.addr, align 8, !tbaa !4813
	call void @llvm.dbg.declare (metadata %struct._ZSt4pairIKmN12spatial_cell11SpatialCellEE** %__pair.addr, metadata !5813, metadata !4805), !dbg !5809
	%0 = load %struct._ZSt4pairIKmN12spatial_cell11SpatialCellEE*, %struct._ZSt4pairIKmN12spatial_cell11SpatialCellEE** %__pair.addr, align 8, !tbaa !4813, !dbg !5814
	%1 = bitcast %struct._ZSt4pairIKmN12spatial_cell11SpatialCellEE*  %0 to i64*, !dbg !5814
	ret i64*  %1, !dbg !5814
}
define linkonce_odr i64* @_ZNSt10__pair_getILm0EE11__const_getIKmN12spatial_cell11SpatialCellEEERKT_RKSt4pairIS5_T0_E(%struct._ZSt4pairIKmN12spatial_cell11SpatialCellEE* %__pair.arg) #0 inlinehint !dbg !5823 {
L.entry:
	%__pair.addr = alloca %struct._ZSt4pairIKmN12spatial_cell11SpatialCellEE*, align 8

	call void @llvm.dbg.declare (metadata %struct._ZSt4pairIKmN12spatial_cell11SpatialCellEE** %__pair.addr, metadata !5827, metadata !4805), !dbg !5824
	store %struct._ZSt4pairIKmN12spatial_cell11SpatialCellEE* %__pair.arg, %struct._ZSt4pairIKmN12spatial_cell11SpatialCellEE** %__pair.addr, align 8, !tbaa !4813
	call void @llvm.dbg.declare (metadata %struct._ZSt4pairIKmN12spatial_cell11SpatialCellEE** %__pair.addr, metadata !5828, metadata !4805), !dbg !5824
	%0 = load %struct._ZSt4pairIKmN12spatial_cell11SpatialCellEE*, %struct._ZSt4pairIKmN12spatial_cell11SpatialCellEE** %__pair.addr, align 8, !tbaa !4813, !dbg !5829
	%1 = bitcast %struct._ZSt4pairIKmN12spatial_cell11SpatialCellEE*  %0 to i64*, !dbg !5829
	ret i64*  %1, !dbg !5829
}
define linkonce_odr void @_ZNSt12_Destroy_auxILb1EE9__destroyIPjEEvT_S3_(i32* %_T15361704_54201.arg, i32* %_T15362000_54201.arg) #0 inlinehint !dbg !5835 {
L.entry:
	%_T15361704_54201.addr = alloca i32*, align 8
	%_T15362000_54201.addr = alloca i32*, align 8

	call void @llvm.dbg.declare (metadata i32** %_T15361704_54201.addr, metadata !5839, metadata !4805), !dbg !5836
	store i32* %_T15361704_54201.arg, i32** %_T15361704_54201.addr, align 8, !tbaa !4813
	call void @llvm.dbg.declare (metadata i32** %_T15361704_54201.addr, metadata !5840, metadata !4805), !dbg !5836
	call void @llvm.dbg.declare (metadata i32** %_T15362000_54201.addr, metadata !5841, metadata !4805), !dbg !5836
	store i32* %_T15362000_54201.arg, i32** %_T15362000_54201.addr, align 8, !tbaa !4813
	call void @llvm.dbg.declare (metadata i32** %_T15362000_54201.addr, metadata !5842, metadata !4805), !dbg !5836
	ret void, !dbg !5843
}
define linkonce_odr void @_ZNSt12_Destroy_auxILb1EE9__destroyIPdEEvT_S3_(double* %_T15361704_54204.arg, double* %_T15362000_54204.arg) #0 inlinehint !dbg !5847 {
L.entry:
	%_T15361704_54204.addr = alloca double*, align 8
	%_T15362000_54204.addr = alloca double*, align 8

	call void @llvm.dbg.declare (metadata double** %_T15361704_54204.addr, metadata !5851, metadata !4805), !dbg !5848
	store double* %_T15361704_54204.arg, double** %_T15361704_54204.addr, align 8, !tbaa !4813
	call void @llvm.dbg.declare (metadata double** %_T15361704_54204.addr, metadata !5852, metadata !4805), !dbg !5848
	call void @llvm.dbg.declare (metadata double** %_T15362000_54204.addr, metadata !5853, metadata !4805), !dbg !5848
	store double* %_T15362000_54204.arg, double** %_T15362000_54204.addr, align 8, !tbaa !4813
	call void @llvm.dbg.declare (metadata double** %_T15362000_54204.addr, metadata !5854, metadata !4805), !dbg !5848
	ret void, !dbg !5855
}

%struct._ZN8projects27DispersionSpeciesParametersE = type <{ double, double, double, double, double, double, double, i32, i32}> 

define linkonce_odr void @_ZNSt12_Destroy_auxILb1EE9__destroyIPN8projects27DispersionSpeciesParametersEEEvT_S5_(%struct._ZN8projects27DispersionSpeciesParametersE* %_T15361704_54207.arg, %struct._ZN8projects27DispersionSpeciesParametersE* %_T15362000_54207.arg) #0 inlinehint !dbg !5859 {
L.entry:
	%_T15361704_54207.addr = alloca %struct._ZN8projects27DispersionSpeciesParametersE*, align 8
	%_T15362000_54207.addr = alloca %struct._ZN8projects27DispersionSpeciesParametersE*, align 8

	call void @llvm.dbg.declare (metadata %struct._ZN8projects27DispersionSpeciesParametersE** %_T15361704_54207.addr, metadata !5863, metadata !4805), !dbg !5860
	store %struct._ZN8projects27DispersionSpeciesParametersE* %_T15361704_54207.arg, %struct._ZN8projects27DispersionSpeciesParametersE** %_T15361704_54207.addr, align 8, !tbaa !4813
	call void @llvm.dbg.declare (metadata %struct._ZN8projects27DispersionSpeciesParametersE** %_T15361704_54207.addr, metadata !5864, metadata !4805), !dbg !5860
	call void @llvm.dbg.declare (metadata %struct._ZN8projects27DispersionSpeciesParametersE** %_T15362000_54207.addr, metadata !5865, metadata !4805), !dbg !5860
	store %struct._ZN8projects27DispersionSpeciesParametersE* %_T15362000_54207.arg, %struct._ZN8projects27DispersionSpeciesParametersE** %_T15362000_54207.addr, align 8, !tbaa !4813
	call void @llvm.dbg.declare (metadata %struct._ZN8projects27DispersionSpeciesParametersE** %_T15362000_54207.addr, metadata !5866, metadata !4805), !dbg !5860
	ret void, !dbg !5867
}

%struct._ZSt13move_iteratorIPN8projects27DispersionSpeciesParametersEE = type <{ %struct._ZN8projects27DispersionSpeciesParametersE*}> 

define linkonce_odr %struct._ZN8projects27DispersionSpeciesParametersE* @_ZNSt20__uninitialized_copyILb1EE13__uninit_copyISt13move_iteratorIPN8projects27DispersionSpeciesParametersEES5_EET0_T_S8_S7_(i64 %__first.coerce, i64 %__last.coerce, %struct._ZN8projects27DispersionSpeciesParametersE* %__result.arg) #0 inlinehint !dbg !5873 {
L.entry:
	%__first.addr = alloca %struct._ZSt13move_iteratorIPN8projects27DispersionSpeciesParametersEE, align 8
	%__last.addr = alloca %struct._ZSt13move_iteratorIPN8projects27DispersionSpeciesParametersEE, align 8
	%__result.addr = alloca %struct._ZN8projects27DispersionSpeciesParametersE*, align 8
	%..inline.addr = alloca %struct._ZN8projects27DispersionSpeciesParametersE*, align 8
	%..inline.addr.1 = alloca %struct._ZN8projects27DispersionSpeciesParametersE*, align 8
	%..inline.addr.2 = alloca i64, align 8

	call void @llvm.dbg.declare (metadata %struct._ZSt13move_iteratorIPN8projects27DispersionSpeciesParametersEE* %__first.addr, metadata !5933, metadata !4805), !dbg !5874
	%0 = bitcast %struct._ZSt13move_iteratorIPN8projects27DispersionSpeciesParametersEE* %__first.addr to i64*
	store i64 %__first.coerce, i64*  %0, align 8, !tbaa !4812
	call void @llvm.dbg.declare (metadata %struct._ZSt13move_iteratorIPN8projects27DispersionSpeciesParametersEE* %__first.addr, metadata !5934, metadata !4805), !dbg !5874
	call void @llvm.dbg.declare (metadata %struct._ZSt13move_iteratorIPN8projects27DispersionSpeciesParametersEE* %__last.addr, metadata !5935, metadata !4805), !dbg !5874
	%1 = bitcast %struct._ZSt13move_iteratorIPN8projects27DispersionSpeciesParametersEE* %__last.addr to i64*
	store i64 %__last.coerce, i64*  %1, align 8, !tbaa !4812
	call void @llvm.dbg.declare (metadata %struct._ZSt13move_iteratorIPN8projects27DispersionSpeciesParametersEE* %__last.addr, metadata !5936, metadata !4805), !dbg !5874
	call void @llvm.dbg.declare (metadata %struct._ZN8projects27DispersionSpeciesParametersE** %__result.addr, metadata !5937, metadata !4805), !dbg !5874
	store %struct._ZN8projects27DispersionSpeciesParametersE* %__result.arg, %struct._ZN8projects27DispersionSpeciesParametersE** %__result.addr, align 8, !tbaa !4813
	call void @llvm.dbg.declare (metadata %struct._ZN8projects27DispersionSpeciesParametersE** %__result.addr, metadata !5938, metadata !4805), !dbg !5874
	%2 = bitcast %struct._ZSt13move_iteratorIPN8projects27DispersionSpeciesParametersEE* %__first.addr to i8**, !dbg !5939
	%3 = load i8*, i8**  %2, align 8, !tbaa !4813, !dbg !5939
	%4 = bitcast %struct._ZN8projects27DispersionSpeciesParametersE** %..inline.addr to i8**, !dbg !5939
	store i8*  %3, i8**  %4, align 8, !tbaa !4813, !dbg !5939
	%5 = load %struct._ZN8projects27DispersionSpeciesParametersE*, %struct._ZN8projects27DispersionSpeciesParametersE** %__result.addr, align 8, !tbaa !4813, !dbg !5939
	%6 = bitcast %struct._ZN8projects27DispersionSpeciesParametersE*  %5 to i8*, !dbg !5939
	%7 = bitcast %struct._ZN8projects27DispersionSpeciesParametersE** %..inline.addr.1 to i8**, !dbg !5939
	store i8*  %6, i8**  %7, align 8, !tbaa !4813, !dbg !5939
	%8 = bitcast %struct._ZSt13move_iteratorIPN8projects27DispersionSpeciesParametersEE* %__last.addr to i8**, !dbg !5939
	%9 = load i8*, i8**  %8, align 8, !tbaa !4813, !dbg !5939
	%10 = ptrtoint i8*  %3 to i64, !dbg !5939
	%11 = sub i64 0,  %10, !dbg !5939
	%12 = getelementptr i8, i8*  %9, i64  %11, !dbg !5939
	%13 = ptrtoint i8*  %12 to i64, !dbg !5939
	%14 = sext i32 6 to i64, !dbg !5939
	%15 = ashr i64  %13,  %14, !dbg !5939
	store i64  %15, i64* %..inline.addr.2, align 8, !tbaa !5343, !dbg !5939
	%16 = icmp eq i64  %15, 0, !dbg !5939
	br i1  %16, label %L..inline.78674, label %L.B1740, !dbg !5939
L.B1740:
	%17 = load %struct._ZN8projects27DispersionSpeciesParametersE*, %struct._ZN8projects27DispersionSpeciesParametersE** %..inline.addr.1, align 8, !tbaa !4813, !dbg !5939
	%18 = bitcast %struct._ZN8projects27DispersionSpeciesParametersE*  %17 to i8*, !dbg !5939
	%19 = load %struct._ZN8projects27DispersionSpeciesParametersE*, %struct._ZN8projects27DispersionSpeciesParametersE** %..inline.addr, align 8, !tbaa !4813, !dbg !5939
	%20 = bitcast %struct._ZN8projects27DispersionSpeciesParametersE*  %19 to i8*, !dbg !5939
	%21 = mul i64  %15, 64, !dbg !5939
	%22 = call i8*  @memmove (i8*  %18, i8*  %20, i64  %21) nounwind, !dbg !5939
	br label %L..inline.78674
L..inline.78674:
	%23 = load %struct._ZN8projects27DispersionSpeciesParametersE*, %struct._ZN8projects27DispersionSpeciesParametersE** %..inline.addr.1, align 8, !tbaa !4813, !dbg !5940
	%24 = bitcast %struct._ZN8projects27DispersionSpeciesParametersE*  %23 to i8*, !dbg !5940
	%25 = load i64, i64* %..inline.addr.2, align 8, !tbaa !5343, !dbg !5940
	%26 = mul i64  %25, 64, !dbg !5940
	%27 = getelementptr i8, i8*  %24, i64  %26, !dbg !5940
	%28 = bitcast i8*  %27 to %struct._ZN8projects27DispersionSpeciesParametersE*, !dbg !5940
	ret %struct._ZN8projects27DispersionSpeciesParametersE*  %28, !dbg !5940
}
define linkonce_odr double* @_ZNSt22__uninitialized_fill_nILb1EE15__uninit_fill_nIPdmdEET_S3_T0_RKT1_(double* %__first.arg, i64 %__n.arg, double* %__x.arg) #0 inlinehint !dbg !5946 {
L.entry:
	%__first.addr = alloca double*, align 8
	%__n.addr = alloca i64, align 8
	%__x.addr = alloca double*, align 8
	%..inline.addr = alloca double*, align 8
	%..inline.addr.1 = alloca double, align 8
	%..inline.addr.2 = alloca i64, align 8
	%.ndk0002.addr = alloca i64, align 8
	%.ndk0003.addr = alloca i64, align 8
	%.vv0000.addr = alloca i8*, align 8
	%.r50.0113.addr = alloca <4 x double>, align 8

	call void @llvm.dbg.declare (metadata double** %__first.addr, metadata !5970, metadata !4805), !dbg !5947
	store double* %__first.arg, double** %__first.addr, align 8, !tbaa !4813
	call void @llvm.dbg.declare (metadata double** %__first.addr, metadata !5971, metadata !4805), !dbg !5947
	call void @llvm.dbg.declare (metadata i64* %__n.addr, metadata !5972, metadata !4805), !dbg !5947
	store i64 %__n.arg, i64* %__n.addr, align 8, !tbaa !4812
	call void @llvm.dbg.declare (metadata i64* %__n.addr, metadata !5973, metadata !4805), !dbg !5947
	call void @llvm.dbg.declare (metadata double** %__x.addr, metadata !5974, metadata !4805), !dbg !5947
	store double* %__x.arg, double** %__x.addr, align 8, !tbaa !4813
	call void @llvm.dbg.declare (metadata double** %__x.addr, metadata !5975, metadata !4805), !dbg !5947
	%0 = load double*, double** %__first.addr, align 8, !tbaa !4813, !dbg !5976
	%1 = bitcast double*  %0 to i8*, !dbg !5976
	%2 = bitcast double** %..inline.addr to i8**, !dbg !5976
	store i8*  %1, i8**  %2, align 8, !tbaa !4813, !dbg !5976
	%3 = load double*, double** %__x.addr, align 8, !tbaa !4813, !dbg !5976
	%4 = load double, double*  %3, align 8, !tbaa !4812, !dbg !5976
	store double  %4, double* %..inline.addr.1, align 8, !tbaa !5982, !dbg !5976
	%5 = load i64, i64* %__n.addr, align 8, !tbaa !5343, !dbg !5976
	%6 = icmp eq i64  %5, 0, !dbg !5976
	br i1  %6, label %L..inline.78751, label %L.B1748, !dbg !5976
L.B1748:
	%7 = bitcast double*  %0 to i8*, !dbg !5976
	%8 = mul i64  %5, 8, !dbg !5976
	%9 = getelementptr i8, i8*  %7, i64  %8, !dbg !5976
	%10 = bitcast double** %..inline.addr to i8**, !dbg !5976
	store i8*  %9, i8**  %10, align 8, !tbaa !4813, !dbg !5976
	store i64 0, i64* %.ndk0002.addr, align 8, !tbaa !5984, !dbg !5976
	store i64  %5, i64* %.ndk0003.addr, align 8, !tbaa !5984, !dbg !5976
	%11 = icmp slt i64  %5, 4, !dbg !5976
	br i1  %11, label %L.B1745, label %L.B1749, !dbg !5976
L.B1749:
	%12 = bitcast double*  %0 to i8*, !dbg !5976
	store i8*  %12, i8** %.vv0000.addr, align 8, !tbaa !4813, !dbg !5976
	%13 = sub i64  %5, 3, !dbg !5976
	store i64  %13, i64* %.ndk0003.addr, align 8, !tbaa !5984, !dbg !5976
	%14 = insertelement <4 x double> undef, double  %4, i32 0, !dbg !5976
	%15 = shufflevector <4 x double>  %14, <4 x double> undef, <4 x i32> <i32 0, i32 0, i32 0, i32 0>, !dbg !5976
	store <4 x double>  %15, <4 x double>* %.r50.0113.addr, align 1, !tbaa !4812, !dbg !5976
	br label %L.B1746
L.B1746:
	%16 = load <4 x double>, <4 x double>* %.r50.0113.addr, align 8, !tbaa !4812, !dbg !5976
	%17 = load i8*, i8** %.vv0000.addr, align 8, !tbaa !4813, !dbg !5976
	%18 = bitcast i8*  %17 to <4 x double>*, !dbg !5976
	store <4 x double>  %16, <4 x double>*  %18, align 1, !tbaa !4812, !dbg !5976
	%19 = getelementptr i8, i8*  %17, i64 32, !dbg !5976
	store i8*  %19, i8** %.vv0000.addr, align 8, !tbaa !4813, !dbg !5976
	%20 = load i64, i64* %.ndk0003.addr, align 8, !tbaa !5984, !dbg !5976
	%21 = sub i64  %20, 4, !dbg !5976
	store i64  %21, i64* %.ndk0003.addr, align 8, !tbaa !5984, !dbg !5976
	%22 = icmp sgt i64  %21, 0, !dbg !5976
	br i1  %22, label %L.B1746, label %L.B1750, !dbg !5976
L.B1750:
	%23 = load i64, i64* %.ndk0003.addr, align 8, !tbaa !5984, !dbg !5976
	%24 = add i64  %23, 3, !dbg !5976
	store i64  %24, i64* %.ndk0003.addr, align 8, !tbaa !5984, !dbg !5976
	%25 = icmp eq i64  %24, 0, !dbg !5976
	br i1  %25, label %L.B1747, label %L.B1751, !dbg !5976
L.B1751:
	%26 = load i64, i64* %__n.addr, align 8, !tbaa !5343, !dbg !5976
	%27 = and i64  %26, -4, !dbg !5976
	store i64  %27, i64* %.ndk0002.addr, align 8, !tbaa !5984, !dbg !5976
	br label %L.B1745
L.B1745:
	%28 = load double, double* %..inline.addr.1, align 8, !tbaa !5982, !dbg !5976
	%29 = load i64, i64* %.ndk0002.addr, align 8, !tbaa !5984, !dbg !5976
	%30 = load double*, double** %__first.addr, align 8, !tbaa !4813, !dbg !5976
	%31 = getelementptr double, double*  %30, i64  %29, !dbg !5976
	store double  %28, double*  %31, align 8, !tbaa !4812, !dbg !5976
	%32 = add i64  %29, 1, !dbg !5976
	store i64  %32, i64* %.ndk0002.addr, align 8, !tbaa !5984, !dbg !5976
	%33 = load i64, i64* %.ndk0003.addr, align 8, !tbaa !5984, !dbg !5976
	%34 = sub i64  %33, 1, !dbg !5976
	store i64  %34, i64* %.ndk0003.addr, align 8, !tbaa !5984, !dbg !5976
	%35 = icmp sgt i64  %34, 0, !dbg !5976
	br i1  %35, label %L.B1745, label %L.B1747, !llvm.loop !5977, !dbg !5976
L.B1747:
	br label %L..inline.78751
L..inline.78751:
	%36 = load double*, double** %..inline.addr, align 8, !tbaa !4813, !dbg !5979
	ret double*  %36, !dbg !5979
}

%struct._ZSaIjE = type <{ [1 x i8]}> 

define linkonce_odr void @_ZNSaIjED1Ev(%struct._ZSaIjE* %_T15361704_54215.arg) #0 inlinehint !dbg !5992 {
L.entry:
	%_T15361704_54215.addr = alloca %struct._ZSaIjE*, align 8

	call void @llvm.dbg.declare (metadata %struct._ZSaIjE** %_T15361704_54215.addr, metadata !5996, metadata !4805), !dbg !5993
	store %struct._ZSaIjE* %_T15361704_54215.arg, %struct._ZSaIjE** %_T15361704_54215.addr, align 8, !tbaa !4813
	call void @llvm.dbg.declare (metadata %struct._ZSaIjE** %_T15361704_54215.addr, metadata !5997, metadata !4805), !dbg !5993
	ret void, !dbg !5998
}
define linkonce_odr void @_ZNSaIjED2Ev(%struct._ZSaIjE* %_T15361704_54216.arg) #0 inlinehint !dbg !6000 {
L.entry:
	%_T15361704_54216.addr = alloca %struct._ZSaIjE*, align 8

	store %struct._ZSaIjE* %_T15361704_54216.arg, %struct._ZSaIjE** %_T15361704_54216.addr, align 8, !tbaa !4813
	ret void, !dbg !6008
}
define linkonce_odr void @_ZNSt16allocator_traitsISaIjEE10deallocateERS0_Pjm(%struct._ZSaIjE* %__a.arg, i32* %__p.arg, i64 %__n.arg) #0 inlinehint !dbg !6016 {
L.entry:
	%__a.addr = alloca %struct._ZSaIjE*, align 8
	%__p.addr = alloca i32*, align 8
	%__n.addr = alloca i64, align 8
	%..inline.addr = alloca i32*, align 8

	call void @llvm.dbg.declare (metadata %struct._ZSaIjE** %__a.addr, metadata !6024, metadata !4805), !dbg !6017
	store %struct._ZSaIjE* %__a.arg, %struct._ZSaIjE** %__a.addr, align 8, !tbaa !4813
	call void @llvm.dbg.declare (metadata %struct._ZSaIjE** %__a.addr, metadata !6025, metadata !4805), !dbg !6017
	call void @llvm.dbg.declare (metadata i32** %__p.addr, metadata !6026, metadata !4805), !dbg !6017
	store i32* %__p.arg, i32** %__p.addr, align 8, !tbaa !4813
	call void @llvm.dbg.declare (metadata i32** %__p.addr, metadata !6027, metadata !4805), !dbg !6017
	call void @llvm.dbg.declare (metadata i64* %__n.addr, metadata !6028, metadata !4805), !dbg !6017
	store i64 %__n.arg, i64* %__n.addr, align 8, !tbaa !4812
	call void @llvm.dbg.declare (metadata i64* %__n.addr, metadata !6029, metadata !4805), !dbg !6017
	%0 = load i32*, i32** %__p.addr, align 8, !tbaa !4813, !dbg !6030
	%1 = bitcast i32*  %0 to i8*, !dbg !6030
	%2 = bitcast i32** %..inline.addr to i8**, !dbg !6030
	store i8*  %1, i8**  %2, align 8, !tbaa !4813, !dbg !6030
	%3 = load i32*, i32** %..inline.addr, align 8, !tbaa !4813, !dbg !6031
	%4 = bitcast i32*  %3 to i8*, !dbg !6031
	call void  @_ZdlPv (i8*  %4) nounwind, !dbg !6031
	ret void, !dbg !6030
}
define linkonce_odr %struct._ZSaIjE* @_ZNSt12_Vector_baseIjSaIjEE19_M_get_Tp_allocatorEv(%struct._ZSt12_Vector_baseIjSaIjEE* %_T15361704_54222.arg) #0 inlinehint !dbg !6039 {
L.entry:
	%_T15361704_54222.addr = alloca %struct._ZSt12_Vector_baseIjSaIjEE*, align 8

	call void @llvm.dbg.declare (metadata %struct._ZSt12_Vector_baseIjSaIjEE** %_T15361704_54222.addr, metadata !6043, metadata !4805), !dbg !6040
	store %struct._ZSt12_Vector_baseIjSaIjEE* %_T15361704_54222.arg, %struct._ZSt12_Vector_baseIjSaIjEE** %_T15361704_54222.addr, align 8, !tbaa !4813
	call void @llvm.dbg.declare (metadata %struct._ZSt12_Vector_baseIjSaIjEE** %_T15361704_54222.addr, metadata !6044, metadata !4805), !dbg !6040
	%0 = load %struct._ZSt12_Vector_baseIjSaIjEE*, %struct._ZSt12_Vector_baseIjSaIjEE** %_T15361704_54222.addr, align 8, !tbaa !4813, !dbg !6045
	%1 = bitcast %struct._ZSt12_Vector_baseIjSaIjEE*  %0 to %struct._ZSaIjE*, !dbg !6045
	ret %struct._ZSaIjE*  %1, !dbg !6045
}
define linkonce_odr void @_ZNSt12_Vector_baseIjSaIjEED1Ev(%struct._ZSt12_Vector_baseIjSaIjEE* %_T15361704_54223.arg) #0 inlinehint !dbg !6049 {
L.entry:
	%_T15361704_54223.addr = alloca %struct._ZSt12_Vector_baseIjSaIjEE*, align 8
	%..inline.addr = alloca i32*, align 8

	call void @llvm.dbg.declare (metadata %struct._ZSt12_Vector_baseIjSaIjEE** %_T15361704_54223.addr, metadata !6077, metadata !4805), !dbg !6050
	store %struct._ZSt12_Vector_baseIjSaIjEE* %_T15361704_54223.arg, %struct._ZSt12_Vector_baseIjSaIjEE** %_T15361704_54223.addr, align 8, !tbaa !4813
	call void @llvm.dbg.declare (metadata %struct._ZSt12_Vector_baseIjSaIjEE** %_T15361704_54223.addr, metadata !6078, metadata !4805), !dbg !6050
	%0 = load %struct._ZSt12_Vector_baseIjSaIjEE*, %struct._ZSt12_Vector_baseIjSaIjEE** %_T15361704_54223.addr, align 8, !tbaa !4813, !dbg !6079
	%1 = bitcast %struct._ZSt12_Vector_baseIjSaIjEE*  %0 to i8**, !dbg !6079
	%2 = load i8*, i8**  %1, align 8, !tbaa !4813, !dbg !6079
	%3 = icmp eq i8*  %2,  null, !dbg !6079
	br i1  %3, label %L..inline.78869, label %L.B1760, !dbg !6079
L.B1760:
	%4 = bitcast %struct._ZSt12_Vector_baseIjSaIjEE*  %0 to i8**, !dbg !6080
	%5 = load i8*, i8**  %4, align 8, !tbaa !4813, !dbg !6080
	%6 = bitcast i32** %..inline.addr to i8**, !dbg !6080
	store i8*  %5, i8**  %6, align 8, !tbaa !4813, !dbg !6080
	%7 = load i32*, i32** %..inline.addr, align 8, !tbaa !4813, !dbg !6080
	%8 = bitcast i32*  %7 to i8*, !dbg !6080
	call void  @_ZdlPv (i8*  %8) nounwind, !dbg !6080
	br label %L..inline.78869
L..inline.78869:
	ret void, !dbg !6081
}
define linkonce_odr void @_ZNSt12_Vector_baseIjSaIjEED2Ev(%struct._ZSt12_Vector_baseIjSaIjEE* %_T15361704_54224.arg) #0 inlinehint !dbg !6083 {
L.entry:
	%_T15361704_54224.addr = alloca %struct._ZSt12_Vector_baseIjSaIjEE*, align 8
	%..inline.addr = alloca %struct._ZSt12_Vector_baseIjSaIjEE*, align 8
	%..inline.addr.1 = alloca i32*, align 8

	store %struct._ZSt12_Vector_baseIjSaIjEE* %_T15361704_54224.arg, %struct._ZSt12_Vector_baseIjSaIjEE** %_T15361704_54224.addr, align 8, !tbaa !4813
	%0 = load %struct._ZSt12_Vector_baseIjSaIjEE*, %struct._ZSt12_Vector_baseIjSaIjEE** %_T15361704_54224.addr, align 8, !tbaa !4813, !dbg !6115
	%1 = bitcast %struct._ZSt12_Vector_baseIjSaIjEE*  %0 to i8*, !dbg !6115
	%2 = bitcast %struct._ZSt12_Vector_baseIjSaIjEE** %..inline.addr to i8**, !dbg !6115
	store i8*  %1, i8**  %2, align 8, !tbaa !4813, !dbg !6115
	%3 = load %struct._ZSt12_Vector_baseIjSaIjEE*, %struct._ZSt12_Vector_baseIjSaIjEE** %..inline.addr, align 8, !tbaa !4813, !dbg !6115
	%4 = bitcast %struct._ZSt12_Vector_baseIjSaIjEE*  %3 to i8**, !dbg !6115
	%5 = load i8*, i8**  %4, align 8, !tbaa !4813, !dbg !6115
	%6 = icmp eq i8*  %5,  null, !dbg !6115
	br i1  %6, label %L..inline.78928, label %L.B1763, !dbg !6115
L.B1763:
	%7 = bitcast %struct._ZSt12_Vector_baseIjSaIjEE*  %3 to i8**, !dbg !6115
	%8 = load i8*, i8**  %7, align 8, !tbaa !4813, !dbg !6115
	%9 = bitcast i32** %..inline.addr.1 to i8**, !dbg !6115
	store i8*  %8, i8**  %9, align 8, !tbaa !4813, !dbg !6115
	%10 = load i32*, i32** %..inline.addr.1, align 8, !tbaa !4813, !dbg !6115
	%11 = bitcast i32*  %10 to i8*, !dbg !6115
	call void  @_ZdlPv (i8*  %11) nounwind, !dbg !6115
	br label %L..inline.78928
L..inline.78928:
	ret void, !dbg !6116
}
define linkonce_odr void @_ZNSt12_Vector_baseIjSaIjEE13_M_deallocateEPjm(%struct._ZSt12_Vector_baseIjSaIjEE* %_T15361704_54227.arg, i32* %__p.arg, i64 %__n.arg) #0 inlinehint !dbg !6120 {
L.entry:
	%_T15361704_54227.addr = alloca %struct._ZSt12_Vector_baseIjSaIjEE*, align 8
	%__p.addr = alloca i32*, align 8
	%__n.addr = alloca i64, align 8
	%..inline.addr = alloca i32*, align 8

	call void @llvm.dbg.declare (metadata %struct._ZSt12_Vector_baseIjSaIjEE** %_T15361704_54227.addr, metadata !6132, metadata !4805), !dbg !6121
	store %struct._ZSt12_Vector_baseIjSaIjEE* %_T15361704_54227.arg, %struct._ZSt12_Vector_baseIjSaIjEE** %_T15361704_54227.addr, align 8, !tbaa !4813
	call void @llvm.dbg.declare (metadata %struct._ZSt12_Vector_baseIjSaIjEE** %_T15361704_54227.addr, metadata !6133, metadata !4805), !dbg !6121
	call void @llvm.dbg.declare (metadata i32** %__p.addr, metadata !6134, metadata !4805), !dbg !6121
	store i32* %__p.arg, i32** %__p.addr, align 8, !tbaa !4813
	call void @llvm.dbg.declare (metadata i32** %__p.addr, metadata !6135, metadata !4805), !dbg !6121
	call void @llvm.dbg.declare (metadata i64* %__n.addr, metadata !6136, metadata !4805), !dbg !6121
	store i64 %__n.arg, i64* %__n.addr, align 8, !tbaa !4812
	call void @llvm.dbg.declare (metadata i64* %__n.addr, metadata !6137, metadata !4805), !dbg !6121
	%0 = load i32*, i32** %__p.addr, align 8, !tbaa !4813, !dbg !6138
	%1 = bitcast i32*  %0 to i8*, !dbg !6138
	%2 = icmp eq i8*  %1,  null, !dbg !6138
	br i1  %2, label %L.B0019, label %L.B1766, !dbg !6138
L.B1766:
	%3 = bitcast i32*  %0 to i8*, !dbg !6139
	%4 = bitcast i32** %..inline.addr to i8**, !dbg !6139
	store i8*  %3, i8**  %4, align 8, !tbaa !4813, !dbg !6139
	%5 = load i32*, i32** %..inline.addr, align 8, !tbaa !4813, !dbg !6139
	%6 = bitcast i32*  %5 to i8*, !dbg !6139
	call void  @_ZdlPv (i8*  %6) nounwind, !dbg !6139
	br label %L.B0019
L.B0019:
	ret void, !dbg !6140
}
define linkonce_odr void @_ZNSt12_Vector_baseIjSaIjEE12_Vector_implD1Ev(%struct._ZNSt12_Vector_baseIjSaIjEE12_Vector_implE* %_T15361704_54228.arg) #0 inlinehint !dbg !6145 {
L.entry:
	%_T15361704_54228.addr = alloca %struct._ZNSt12_Vector_baseIjSaIjEE12_Vector_implE*, align 8

	call void @llvm.dbg.declare (metadata %struct._ZNSt12_Vector_baseIjSaIjEE12_Vector_implE** %_T15361704_54228.addr, metadata !6157, metadata !4805), !dbg !6146
	store %struct._ZNSt12_Vector_baseIjSaIjEE12_Vector_implE* %_T15361704_54228.arg, %struct._ZNSt12_Vector_baseIjSaIjEE12_Vector_implE** %_T15361704_54228.addr, align 8, !tbaa !4813
	call void @llvm.dbg.declare (metadata %struct._ZNSt12_Vector_baseIjSaIjEE12_Vector_implE** %_T15361704_54228.addr, metadata !6158, metadata !4805), !dbg !6146
	ret void, !dbg !6159
}
define linkonce_odr void @_ZNSt12_Vector_baseIjSaIjEE12_Vector_implD2Ev(%struct._ZNSt12_Vector_baseIjSaIjEE12_Vector_implE* %_T15361704_54229.arg) #0 inlinehint !dbg !6161 {
L.entry:
	%_T15361704_54229.addr = alloca %struct._ZNSt12_Vector_baseIjSaIjEE12_Vector_implE*, align 8

	store %struct._ZNSt12_Vector_baseIjSaIjEE12_Vector_implE* %_T15361704_54229.arg, %struct._ZNSt12_Vector_baseIjSaIjEE12_Vector_implE** %_T15361704_54229.addr, align 8, !tbaa !4813
	ret void, !dbg !6177
}
define linkonce_odr void @_ZNSt6vectorIjSaIjEED1Ev(%struct._ZSt6vectorIjSaIjEE* %_T15361704_54230.arg) #0 inlinehint !dbg !6181 {
L.entry:
	%_T15361704_54230.addr = alloca %struct._ZSt6vectorIjSaIjEE*, align 8
	%..inline.addr = alloca %struct._ZSt12_Vector_baseIjSaIjEE*, align 8
	%..inline.addr.1 = alloca i32*, align 8

	call void @llvm.dbg.declare (metadata %struct._ZSt6vectorIjSaIjEE** %_T15361704_54230.addr, metadata !6233, metadata !4805), !dbg !6182
	store %struct._ZSt6vectorIjSaIjEE* %_T15361704_54230.arg, %struct._ZSt6vectorIjSaIjEE** %_T15361704_54230.addr, align 8, !tbaa !4813
	call void @llvm.dbg.declare (metadata %struct._ZSt6vectorIjSaIjEE** %_T15361704_54230.addr, metadata !6234, metadata !4805), !dbg !6182
	%0 = load %struct._ZSt6vectorIjSaIjEE*, %struct._ZSt6vectorIjSaIjEE** %_T15361704_54230.addr, align 8, !tbaa !4813, !dbg !6235
	%1 = bitcast %struct._ZSt6vectorIjSaIjEE*  %0 to i8*, !dbg !6235
	%2 = bitcast %struct._ZSt12_Vector_baseIjSaIjEE** %..inline.addr to i8**, !dbg !6235
	store i8*  %1, i8**  %2, align 8, !tbaa !4813, !dbg !6235
	%3 = load %struct._ZSt12_Vector_baseIjSaIjEE*, %struct._ZSt12_Vector_baseIjSaIjEE** %..inline.addr, align 8, !tbaa !4813, !dbg !6236
	%4 = bitcast %struct._ZSt12_Vector_baseIjSaIjEE*  %3 to i8**, !dbg !6236
	%5 = load i8*, i8**  %4, align 8, !tbaa !4813, !dbg !6236
	%6 = icmp eq i8*  %5,  null, !dbg !6236
	br i1  %6, label %L..inline.79079, label %L.B1777, !dbg !6236
L.B1777:
	%7 = bitcast %struct._ZSt12_Vector_baseIjSaIjEE*  %3 to i8**, !dbg !6236
	%8 = load i8*, i8**  %7, align 8, !tbaa !4813, !dbg !6236
	%9 = bitcast i32** %..inline.addr.1 to i8**, !dbg !6236
	store i8*  %8, i8**  %9, align 8, !tbaa !4813, !dbg !6236
	%10 = load i32*, i32** %..inline.addr.1, align 8, !tbaa !4813, !dbg !6236
	%11 = bitcast i32*  %10 to i8*, !dbg !6236
	call void  @_ZdlPv (i8*  %11) nounwind, !dbg !6236
	br label %L..inline.79079
L..inline.79079:
	ret void, !dbg !6235
}
define linkonce_odr void @_ZNSt6vectorIjSaIjEED2Ev(%struct._ZSt6vectorIjSaIjEE* %_T15361704_54231.arg) #0 inlinehint !dbg !6238 {
L.entry:
	%_T15361704_54231.addr = alloca %struct._ZSt6vectorIjSaIjEE*, align 8
	%..inline.addr = alloca %struct._ZSt12_Vector_baseIjSaIjEE*, align 8
	%..inline.addr.1 = alloca i32*, align 8

	store %struct._ZSt6vectorIjSaIjEE* %_T15361704_54231.arg, %struct._ZSt6vectorIjSaIjEE** %_T15361704_54231.addr, align 8, !tbaa !4813
	%0 = load %struct._ZSt6vectorIjSaIjEE*, %struct._ZSt6vectorIjSaIjEE** %_T15361704_54231.addr, align 8, !tbaa !4813, !dbg !6294
	%1 = bitcast %struct._ZSt6vectorIjSaIjEE*  %0 to i8*, !dbg !6294
	%2 = bitcast %struct._ZSt12_Vector_baseIjSaIjEE** %..inline.addr to i8**, !dbg !6294
	store i8*  %1, i8**  %2, align 8, !tbaa !4813, !dbg !6294
	%3 = load %struct._ZSt12_Vector_baseIjSaIjEE*, %struct._ZSt12_Vector_baseIjSaIjEE** %..inline.addr, align 8, !tbaa !4813, !dbg !6294
	%4 = bitcast %struct._ZSt12_Vector_baseIjSaIjEE*  %3 to i8**, !dbg !6294
	%5 = load i8*, i8**  %4, align 8, !tbaa !4813, !dbg !6294
	%6 = icmp eq i8*  %5,  null, !dbg !6294
	br i1  %6, label %L..inline.79183, label %L.B1780, !dbg !6294
L.B1780:
	%7 = bitcast %struct._ZSt12_Vector_baseIjSaIjEE*  %3 to i8**, !dbg !6294
	%8 = load i8*, i8**  %7, align 8, !tbaa !4813, !dbg !6294
	%9 = bitcast i32** %..inline.addr.1 to i8**, !dbg !6294
	store i8*  %8, i8**  %9, align 8, !tbaa !4813, !dbg !6294
	%10 = load i32*, i32** %..inline.addr.1, align 8, !tbaa !4813, !dbg !6294
	%11 = bitcast i32*  %10 to i8*, !dbg !6294
	call void  @_ZdlPv (i8*  %11) nounwind, !dbg !6294
	br label %L..inline.79183
L..inline.79183:
	ret void, !dbg !6294
}

%struct._ZSaIdE = type <{ [1 x i8]}> 

define linkonce_odr void @_ZNSaIdEC1Ev(%struct._ZSaIdE* %_T15361704_54232.arg) #0 inlinehint !dbg !6299 {
L.entry:
	%_T15361704_54232.addr = alloca %struct._ZSaIdE*, align 8

	call void @llvm.dbg.declare (metadata %struct._ZSaIdE** %_T15361704_54232.addr, metadata !6303, metadata !4805), !dbg !6300
	store %struct._ZSaIdE* %_T15361704_54232.arg, %struct._ZSaIdE** %_T15361704_54232.addr, align 8, !tbaa !4813
	call void @llvm.dbg.declare (metadata %struct._ZSaIdE** %_T15361704_54232.addr, metadata !6304, metadata !4805), !dbg !6300
	ret void, !dbg !6305
}
define linkonce_odr void @_ZNSaIdEC2Ev(%struct._ZSaIdE* %_T15361704_54233.arg) #0 inlinehint !dbg !6307 {
L.entry:
	%_T15361704_54233.addr = alloca %struct._ZSaIdE*, align 8

	store %struct._ZSaIdE* %_T15361704_54233.arg, %struct._ZSaIdE** %_T15361704_54233.addr, align 8, !tbaa !4813
	ret void, !dbg !6315
}
define linkonce_odr void @_ZNSaIdED1Ev(%struct._ZSaIdE* %_T15361704_54234.arg) #0 inlinehint !dbg !6317 {
L.entry:
	%_T15361704_54234.addr = alloca %struct._ZSaIdE*, align 8

	call void @llvm.dbg.declare (metadata %struct._ZSaIdE** %_T15361704_54234.addr, metadata !6321, metadata !4805), !dbg !6318
	store %struct._ZSaIdE* %_T15361704_54234.arg, %struct._ZSaIdE** %_T15361704_54234.addr, align 8, !tbaa !4813
	call void @llvm.dbg.declare (metadata %struct._ZSaIdE** %_T15361704_54234.addr, metadata !6322, metadata !4805), !dbg !6318
	ret void, !dbg !6323
}
define linkonce_odr void @_ZNSaIdED2Ev(%struct._ZSaIdE* %_T15361704_54235.arg) #0 inlinehint !dbg !6325 {
L.entry:
	%_T15361704_54235.addr = alloca %struct._ZSaIdE*, align 8

	store %struct._ZSaIdE* %_T15361704_54235.arg, %struct._ZSaIdE** %_T15361704_54235.addr, align 8, !tbaa !4813
	ret void, !dbg !6333
}
define linkonce_odr double* @_ZNSt16allocator_traitsISaIdEE8allocateERS0_m(%struct._ZSaIdE* %__a.arg, i64 %__n.arg) #0 inlinehint !dbg !6341 {
L.entry:
	%__a.addr = alloca %struct._ZSaIdE*, align 8
	%__n.addr = alloca i64, align 8
	%..inline.addr = alloca i64, align 8
	%.Q0010.addr = alloca i8*, align 8

	call void @llvm.dbg.declare (metadata %struct._ZSaIdE** %__a.addr, metadata !6353, metadata !4805), !dbg !6342
	store %struct._ZSaIdE* %__a.arg, %struct._ZSaIdE** %__a.addr, align 8, !tbaa !4813
	call void @llvm.dbg.declare (metadata %struct._ZSaIdE** %__a.addr, metadata !6354, metadata !4805), !dbg !6342
	call void @llvm.dbg.declare (metadata i64* %__n.addr, metadata !6355, metadata !4805), !dbg !6342
	store i64 %__n.arg, i64* %__n.addr, align 8, !tbaa !4812
	call void @llvm.dbg.declare (metadata i64* %__n.addr, metadata !6356, metadata !4805), !dbg !6342
	%0 = load i64, i64* %__n.addr, align 8, !tbaa !5343, !dbg !6357
	store i64  %0, i64* %..inline.addr, align 8, !tbaa !5343, !dbg !6357
	%1 = icmp ule i64  %0, 2305843009213693951, !dbg !6358
	br i1  %1, label %L..inline.79278, label %L.B1787, !dbg !6358
L.B1787:
	call void  @_ZSt17__throw_bad_allocv () noreturn, !dbg !6359
	br label %L..inline.79278
L..inline.79278:
	%2 = load i64, i64* %..inline.addr, align 8, !tbaa !5343, !dbg !6360
	%3 = mul i64  %2, 8, !dbg !6360
	%4 = call i8*  @_Znwm (i64  %3), !dbg !6360
	store i8*  %4, i8** %.Q0010.addr, align 8, !tbaa !4813, !dbg !6360
	%5 = bitcast i8*  %4 to double*, !dbg !6360
	ret double*  %5, !dbg !6360
}
define linkonce_odr void @_ZNSt16allocator_traitsISaIdEE10deallocateERS0_Pdm(%struct._ZSaIdE* %__a.arg, double* %__p.arg, i64 %__n.arg) #0 inlinehint !dbg !6364 {
L.entry:
	%__a.addr = alloca %struct._ZSaIdE*, align 8
	%__p.addr = alloca double*, align 8
	%__n.addr = alloca i64, align 8
	%..inline.addr = alloca double*, align 8

	call void @llvm.dbg.declare (metadata %struct._ZSaIdE** %__a.addr, metadata !6372, metadata !4805), !dbg !6365
	store %struct._ZSaIdE* %__a.arg, %struct._ZSaIdE** %__a.addr, align 8, !tbaa !4813
	call void @llvm.dbg.declare (metadata %struct._ZSaIdE** %__a.addr, metadata !6373, metadata !4805), !dbg !6365
	call void @llvm.dbg.declare (metadata double** %__p.addr, metadata !6374, metadata !4805), !dbg !6365
	store double* %__p.arg, double** %__p.addr, align 8, !tbaa !4813
	call void @llvm.dbg.declare (metadata double** %__p.addr, metadata !6375, metadata !4805), !dbg !6365
	call void @llvm.dbg.declare (metadata i64* %__n.addr, metadata !6376, metadata !4805), !dbg !6365
	store i64 %__n.arg, i64* %__n.addr, align 8, !tbaa !4812
	call void @llvm.dbg.declare (metadata i64* %__n.addr, metadata !6377, metadata !4805), !dbg !6365
	%0 = load double*, double** %__p.addr, align 8, !tbaa !4813, !dbg !6378
	%1 = bitcast double*  %0 to i8*, !dbg !6378
	%2 = bitcast double** %..inline.addr to i8**, !dbg !6378
	store i8*  %1, i8**  %2, align 8, !tbaa !4813, !dbg !6378
	%3 = load double*, double** %..inline.addr, align 8, !tbaa !4813, !dbg !6379
	%4 = bitcast double*  %3 to i8*, !dbg !6379
	call void  @_ZdlPv (i8*  %4) nounwind, !dbg !6379
	ret void, !dbg !6378
}
define linkonce_odr i64 @_ZNSt16allocator_traitsISaIdEE8max_sizeERKS0_(%struct._ZSaIdE* %__a.arg) #0 inlinehint !dbg !6387 {
L.entry:
	%__a.addr = alloca %struct._ZSaIdE*, align 8

	call void @llvm.dbg.declare (metadata %struct._ZSaIdE** %__a.addr, metadata !6395, metadata !4805), !dbg !6388
	store %struct._ZSaIdE* %__a.arg, %struct._ZSaIdE** %__a.addr, align 8, !tbaa !4813
	call void @llvm.dbg.declare (metadata %struct._ZSaIdE** %__a.addr, metadata !6396, metadata !4805), !dbg !6388
	ret i64 2305843009213693951, !dbg !6397
}

%struct._ZSt12_Vector_baseIdSaIdEE = type <{ %struct._ZNSt12_Vector_baseIdSaIdEE12_Vector_implE}> 
%struct._ZNSt12_Vector_baseIdSaIdEE17_Vector_impl_dataE = type <{ double*, double*, double*}> 
%struct._ZNSt12_Vector_baseIdSaIdEE12_Vector_implE = type <{ %struct._ZNSt12_Vector_baseIdSaIdEE17_Vector_impl_dataE}> 

define linkonce_odr %struct._ZSaIdE* @_ZNSt12_Vector_baseIdSaIdEE19_M_get_Tp_allocatorEv(%struct._ZSt12_Vector_baseIdSaIdEE* %_T15361704_54246.arg) #0 inlinehint !dbg !6403 {
L.entry:
	%_T15361704_54246.addr = alloca %struct._ZSt12_Vector_baseIdSaIdEE*, align 8

	call void @llvm.dbg.declare (metadata %struct._ZSt12_Vector_baseIdSaIdEE** %_T15361704_54246.addr, metadata !6407, metadata !4805), !dbg !6404
	store %struct._ZSt12_Vector_baseIdSaIdEE* %_T15361704_54246.arg, %struct._ZSt12_Vector_baseIdSaIdEE** %_T15361704_54246.addr, align 8, !tbaa !4813
	call void @llvm.dbg.declare (metadata %struct._ZSt12_Vector_baseIdSaIdEE** %_T15361704_54246.addr, metadata !6408, metadata !4805), !dbg !6404
	%0 = load %struct._ZSt12_Vector_baseIdSaIdEE*, %struct._ZSt12_Vector_baseIdSaIdEE** %_T15361704_54246.addr, align 8, !tbaa !4813, !dbg !6409
	%1 = bitcast %struct._ZSt12_Vector_baseIdSaIdEE*  %0 to %struct._ZSaIdE*, !dbg !6409
	ret %struct._ZSaIdE*  %1, !dbg !6409
}
define linkonce_odr void @_ZNSt12_Vector_baseIdSaIdEEC1EmRKS0_(%struct._ZSt12_Vector_baseIdSaIdEE* %_T15361704_54248.arg, i64 %__n.arg, %struct._ZSaIdE* %__a.arg) #0 inlinehint personality i8* bitcast (i32 (...)* @__gxx_personality_v0 to i8*) !dbg !6417 {
L.entry:
	%_T15361704_54248.addr = alloca %struct._ZSt12_Vector_baseIdSaIdEE*, align 8
	%__n.addr = alloca i64, align 8
	%__a.addr = alloca %struct._ZSaIdE*, align 8
	%..inline.addr = alloca %struct._ZNSt12_Vector_baseIdSaIdEE17_Vector_impl_dataE*, align 8
	%..inline.addr.1 = alloca %struct._ZSt12_Vector_baseIdSaIdEE*, align 8
	%..inline.addr.2 = alloca i64, align 8
	%..inline.addr.3 = alloca i64, align 8
	%.Q0011.addr = alloca i8*, align 8
	%..inline.addr.4 = alloca double*, align 8
	%__caught_object_address.addr = alloca i8*, align 8
	%__catch_clause_number.addr = alloca i32, align 4

	call void @llvm.dbg.declare (metadata %struct._ZSt12_Vector_baseIdSaIdEE** %_T15361704_54248.addr, metadata !6465, metadata !4805), !dbg !6418
	store %struct._ZSt12_Vector_baseIdSaIdEE* %_T15361704_54248.arg, %struct._ZSt12_Vector_baseIdSaIdEE** %_T15361704_54248.addr, align 8, !tbaa !4813
	call void @llvm.dbg.declare (metadata %struct._ZSt12_Vector_baseIdSaIdEE** %_T15361704_54248.addr, metadata !6466, metadata !4805), !dbg !6418
	call void @llvm.dbg.declare (metadata i64* %__n.addr, metadata !6467, metadata !4805), !dbg !6418
	store i64 %__n.arg, i64* %__n.addr, align 8, !tbaa !4812
	call void @llvm.dbg.declare (metadata i64* %__n.addr, metadata !6468, metadata !4805), !dbg !6418
	call void @llvm.dbg.declare (metadata %struct._ZSaIdE** %__a.addr, metadata !6469, metadata !4805), !dbg !6418
	store %struct._ZSaIdE* %__a.arg, %struct._ZSaIdE** %__a.addr, align 8, !tbaa !4813
	call void @llvm.dbg.declare (metadata %struct._ZSaIdE** %__a.addr, metadata !6470, metadata !4805), !dbg !6418
	%0 = load %struct._ZSt12_Vector_baseIdSaIdEE*, %struct._ZSt12_Vector_baseIdSaIdEE** %_T15361704_54248.addr, align 8, !tbaa !4813, !dbg !6471
	%1 = bitcast %struct._ZSt12_Vector_baseIdSaIdEE*  %0 to i8*, !dbg !6471
	%2 = bitcast %struct._ZNSt12_Vector_baseIdSaIdEE17_Vector_impl_dataE** %..inline.addr to i8**, !dbg !6471
	store i8*  %1, i8**  %2, align 8, !tbaa !4813, !dbg !6471
	%3 = load %struct._ZNSt12_Vector_baseIdSaIdEE17_Vector_impl_dataE*, %struct._ZNSt12_Vector_baseIdSaIdEE17_Vector_impl_dataE** %..inline.addr, align 8, !tbaa !4813, !dbg !6471
	%4 = bitcast %struct._ZNSt12_Vector_baseIdSaIdEE17_Vector_impl_dataE*  %3 to i8**, !dbg !6471
	store i8* null, i8**  %4, align 8, !tbaa !4813, !dbg !6471
	%5 = bitcast %struct._ZNSt12_Vector_baseIdSaIdEE17_Vector_impl_dataE*  %3 to i8*, !dbg !6471
	%6 = getelementptr i8, i8*  %5, i64 8, !dbg !6471
	%7 = bitcast i8*  %6 to i8**, !dbg !6471
	store i8* null, i8**  %7, align 8, !tbaa !4813, !dbg !6471
	%8 = getelementptr i8, i8*  %5, i64 16, !dbg !6471
	%9 = bitcast i8*  %8 to i8**, !dbg !6471
	store i8* null, i8**  %9, align 8, !tbaa !4813, !dbg !6471
	%10 = bitcast %struct._ZSt12_Vector_baseIdSaIdEE** %..inline.addr.1 to i8**, !dbg !6472
	store i8*  %1, i8**  %10, align 8, !tbaa !4813, !dbg !6472
	%11 = load i64, i64* %__n.addr, align 8, !tbaa !5343, !dbg !6472
	store i64  %11, i64* %..inline.addr.2, align 8, !tbaa !5343, !dbg !6472
	%12 = icmp eq i64  %11, 0, !dbg !6473
	br i1  %12, label %L..inline.79353, label %L.B1798, !dbg !6473
L.B1798:
	store i64  %11, i64* %..inline.addr.3, align 8, !tbaa !5343, !dbg !6473
	%13 = icmp ule i64  %11, 2305843009213693951, !dbg !6473
	br i1  %13, label %L..inline.79372, label %L.B1799, !dbg !6473
L.B1799:
	invoke void  @_ZSt17__throw_bad_allocv () noreturn
		to label %L.B1800
		unwind label %L_T15363184_54248, !dbg !6473
L.B1800:
	br label %L..inline.79372
L..inline.79372:
	%14 = load i64, i64* %..inline.addr.3, align 8, !tbaa !5343, !dbg !6473
	%15 = mul i64  %14, 8, !dbg !6473
	%16 = invoke i8*  @_Znwm (i64  %15)
		to label %L.B1801
		unwind label %L_T15363184_54248, !dbg !6473
L.B1801:
	store i8*  %16, i8** %.Q0011.addr, align 8, !tbaa !4813, !dbg !6473
	%17 = bitcast double** %..inline.addr.4 to i8**, !dbg !6473
	store i8*  %16, i8**  %17, align 8, !tbaa !4813, !dbg !6473
	br label %L..inline.79377, !dbg !6473
L..inline.79353:
	%18 = bitcast double** %..inline.addr.4 to i8**, !dbg !6473
	store i8* null, i8**  %18, align 8, !tbaa !4813, !dbg !6473
	br label %L..inline.79377
L..inline.79377:
	%19 = load double*, double** %..inline.addr.4, align 8, !tbaa !4813, !dbg !6473
	%20 = bitcast double*  %19 to i8*, !dbg !6473
	%21 = load %struct._ZSt12_Vector_baseIdSaIdEE*, %struct._ZSt12_Vector_baseIdSaIdEE** %..inline.addr.1, align 8, !tbaa !4813, !dbg !6473
	%22 = bitcast %struct._ZSt12_Vector_baseIdSaIdEE*  %21 to i8**, !dbg !6473
	store i8*  %20, i8**  %22, align 8, !tbaa !4813, !dbg !6473
	%23 = bitcast %struct._ZSt12_Vector_baseIdSaIdEE*  %21 to i8*, !dbg !6473
	%24 = getelementptr i8, i8*  %23, i64 8, !dbg !6473
	%25 = bitcast i8*  %24 to i8**, !dbg !6473
	store i8*  %20, i8**  %25, align 8, !tbaa !4813, !dbg !6473
	%26 = load i64, i64* %..inline.addr.2, align 8, !tbaa !5343, !dbg !6474
	%27 = mul i64  %26, 8, !dbg !6474
	%28 = getelementptr i8, i8*  %20, i64  %27, !dbg !6474
	%29 = getelementptr i8, i8*  %23, i64 16, !dbg !6474
	%30 = bitcast i8*  %29 to i8**, !dbg !6474
	store i8*  %28, i8**  %30, align 8, !tbaa !4813, !dbg !6474
	br label %L.R0069, !dbg !6472
L_T15363184_54248:
	%31 = landingpad %astruct.dt64
	cleanup
	%32 = extractvalue %astruct.dt64  %31, 0, !dbg !6472
	store i8*  %32, i8** %__caught_object_address.addr, align 1, !tbaa !4813, !dbg !6472
	%33 = extractvalue %astruct.dt64  %31, 1, !dbg !6472
	store i32  %33, i32* %__catch_clause_number.addr, align 1, !tbaa !4812, !dbg !6472
	%34 = load i32, i32* %__catch_clause_number.addr, align 4, !tbaa !4812, !dbg !6472
	%35 = load i8*, i8** %__caught_object_address.addr, align 8, !tbaa !4813, !dbg !6472
	%36 = insertvalue %astruct.dt64 undef, i8*  %35, 0, !dbg !6472
	%37 = insertvalue %astruct.dt64  %36, i32  %34, 1, !dbg !6472
	resume %astruct.dt64  %37 , !dbg !6472
L.R0069:
	ret void, !dbg !6472
}
define linkonce_odr void @_ZNSt12_Vector_baseIdSaIdEEC2EmRKS0_(%struct._ZSt12_Vector_baseIdSaIdEE* %_T15361704_54250.arg, i64 %_T15362000_54250.arg, %struct._ZSaIdE* %_T15362296_54250.arg) #0 inlinehint !dbg !6476 {
L.entry:
	%_T15361704_54250.addr = alloca %struct._ZSt12_Vector_baseIdSaIdEE*, align 8
	%_T15362000_54250.addr = alloca i64, align 8
	%_T15362296_54250.addr = alloca %struct._ZSaIdE*, align 8

	store %struct._ZSt12_Vector_baseIdSaIdEE* %_T15361704_54250.arg, %struct._ZSt12_Vector_baseIdSaIdEE** %_T15361704_54250.addr, align 8, !tbaa !4813
	store i64 %_T15362000_54250.arg, i64* %_T15362000_54250.addr, align 8, !tbaa !4812
	store %struct._ZSaIdE* %_T15362296_54250.arg, %struct._ZSaIdE** %_T15362296_54250.addr, align 8, !tbaa !4813
	%0 = load %struct._ZSt12_Vector_baseIdSaIdEE*, %struct._ZSt12_Vector_baseIdSaIdEE** %_T15361704_54250.addr, align 8, !tbaa !4813, !dbg !6480
	%1 = load i64, i64* %_T15362000_54250.addr, align 8, !tbaa !5343, !dbg !6480
	%2 = load %struct._ZSaIdE*, %struct._ZSaIdE** %_T15362296_54250.addr, align 8, !tbaa !4813, !dbg !6480
	call void  @_ZNSt12_Vector_baseIdSaIdEEC1EmRKS0_ (%struct._ZSt12_Vector_baseIdSaIdEE*  %0, i64  %1, %struct._ZSaIdE*  %2), !dbg !6480
	ret void, !dbg !6480
}
define linkonce_odr void @_ZNSt12_Vector_baseIdSaIdEED1Ev(%struct._ZSt12_Vector_baseIdSaIdEE* %_T15361704_54251.arg) #0 inlinehint !dbg !6484 {
L.entry:
	%_T15361704_54251.addr = alloca %struct._ZSt12_Vector_baseIdSaIdEE*, align 8
	%..inline.addr = alloca double*, align 8

	call void @llvm.dbg.declare (metadata %struct._ZSt12_Vector_baseIdSaIdEE** %_T15361704_54251.addr, metadata !6512, metadata !4805), !dbg !6485
	store %struct._ZSt12_Vector_baseIdSaIdEE* %_T15361704_54251.arg, %struct._ZSt12_Vector_baseIdSaIdEE** %_T15361704_54251.addr, align 8, !tbaa !4813
	call void @llvm.dbg.declare (metadata %struct._ZSt12_Vector_baseIdSaIdEE** %_T15361704_54251.addr, metadata !6513, metadata !4805), !dbg !6485
	%0 = load %struct._ZSt12_Vector_baseIdSaIdEE*, %struct._ZSt12_Vector_baseIdSaIdEE** %_T15361704_54251.addr, align 8, !tbaa !4813, !dbg !6514
	%1 = bitcast %struct._ZSt12_Vector_baseIdSaIdEE*  %0 to i8**, !dbg !6514
	%2 = load i8*, i8**  %1, align 8, !tbaa !4813, !dbg !6514
	%3 = icmp eq i8*  %2,  null, !dbg !6514
	br i1  %3, label %L..inline.79436, label %L.B1806, !dbg !6514
L.B1806:
	%4 = bitcast %struct._ZSt12_Vector_baseIdSaIdEE*  %0 to i8**, !dbg !6515
	%5 = load i8*, i8**  %4, align 8, !tbaa !4813, !dbg !6515
	%6 = bitcast double** %..inline.addr to i8**, !dbg !6515
	store i8*  %5, i8**  %6, align 8, !tbaa !4813, !dbg !6515
	%7 = load double*, double** %..inline.addr, align 8, !tbaa !4813, !dbg !6515
	%8 = bitcast double*  %7 to i8*, !dbg !6515
	call void  @_ZdlPv (i8*  %8) nounwind, !dbg !6515
	br label %L..inline.79436
L..inline.79436:
	ret void, !dbg !6516
}
define linkonce_odr void @_ZNSt12_Vector_baseIdSaIdEED2Ev(%struct._ZSt12_Vector_baseIdSaIdEE* %_T15361704_54252.arg) #0 inlinehint !dbg !6518 {
L.entry:
	%_T15361704_54252.addr = alloca %struct._ZSt12_Vector_baseIdSaIdEE*, align 8
	%..inline.addr = alloca %struct._ZSt12_Vector_baseIdSaIdEE*, align 8
	%..inline.addr.1 = alloca double*, align 8

	store %struct._ZSt12_Vector_baseIdSaIdEE* %_T15361704_54252.arg, %struct._ZSt12_Vector_baseIdSaIdEE** %_T15361704_54252.addr, align 8, !tbaa !4813
	%0 = load %struct._ZSt12_Vector_baseIdSaIdEE*, %struct._ZSt12_Vector_baseIdSaIdEE** %_T15361704_54252.addr, align 8, !tbaa !4813, !dbg !6550
	%1 = bitcast %struct._ZSt12_Vector_baseIdSaIdEE*  %0 to i8*, !dbg !6550
	%2 = bitcast %struct._ZSt12_Vector_baseIdSaIdEE** %..inline.addr to i8**, !dbg !6550
	store i8*  %1, i8**  %2, align 8, !tbaa !4813, !dbg !6550
	%3 = load %struct._ZSt12_Vector_baseIdSaIdEE*, %struct._ZSt12_Vector_baseIdSaIdEE** %..inline.addr, align 8, !tbaa !4813, !dbg !6550
	%4 = bitcast %struct._ZSt12_Vector_baseIdSaIdEE*  %3 to i8**, !dbg !6550
	%5 = load i8*, i8**  %4, align 8, !tbaa !4813, !dbg !6550
	%6 = icmp eq i8*  %5,  null, !dbg !6550
	br i1  %6, label %L..inline.79495, label %L.B1809, !dbg !6550
L.B1809:
	%7 = bitcast %struct._ZSt12_Vector_baseIdSaIdEE*  %3 to i8**, !dbg !6550
	%8 = load i8*, i8**  %7, align 8, !tbaa !4813, !dbg !6550
	%9 = bitcast double** %..inline.addr.1 to i8**, !dbg !6550
	store i8*  %8, i8**  %9, align 8, !tbaa !4813, !dbg !6550
	%10 = load double*, double** %..inline.addr.1, align 8, !tbaa !4813, !dbg !6550
	%11 = bitcast double*  %10 to i8*, !dbg !6550
	call void  @_ZdlPv (i8*  %11) nounwind, !dbg !6550
	br label %L..inline.79495
L..inline.79495:
	ret void, !dbg !6551
}
define linkonce_odr double* @_ZNSt12_Vector_baseIdSaIdEE11_M_allocateEm(%struct._ZSt12_Vector_baseIdSaIdEE* %_T15361704_54255.arg, i64 %__n.arg) #0 inlinehint !dbg !6555 {
L.entry:
	%_T15361704_54255.addr = alloca %struct._ZSt12_Vector_baseIdSaIdEE*, align 8
	%__n.addr = alloca i64, align 8
	%..inline.addr = alloca i64, align 8
	%.Q0012.addr = alloca i8*, align 8
	%.I0003.addr = alloca double*, align 8

	call void @llvm.dbg.declare (metadata %struct._ZSt12_Vector_baseIdSaIdEE** %_T15361704_54255.addr, metadata !6571, metadata !4805), !dbg !6556
	store %struct._ZSt12_Vector_baseIdSaIdEE* %_T15361704_54255.arg, %struct._ZSt12_Vector_baseIdSaIdEE** %_T15361704_54255.addr, align 8, !tbaa !4813
	call void @llvm.dbg.declare (metadata %struct._ZSt12_Vector_baseIdSaIdEE** %_T15361704_54255.addr, metadata !6572, metadata !4805), !dbg !6556
	call void @llvm.dbg.declare (metadata i64* %__n.addr, metadata !6573, metadata !4805), !dbg !6556
	store i64 %__n.arg, i64* %__n.addr, align 8, !tbaa !4812
	call void @llvm.dbg.declare (metadata i64* %__n.addr, metadata !6574, metadata !4805), !dbg !6556
	%0 = load i64, i64* %__n.addr, align 8, !tbaa !5343, !dbg !6575
	%1 = icmp eq i64  %0, 0, !dbg !6575
	br i1  %1, label %L.B0020, label %L.B1812, !dbg !6575
L.B1812:
	store i64  %0, i64* %..inline.addr, align 8, !tbaa !5343, !dbg !6576
	%2 = icmp ule i64  %0, 2305843009213693951, !dbg !6576
	br i1  %2, label %L..inline.79561, label %L.B1813, !dbg !6576
L.B1813:
	call void  @_ZSt17__throw_bad_allocv () noreturn, !dbg !6576
	br label %L..inline.79561
L..inline.79561:
	%3 = load i64, i64* %..inline.addr, align 8, !tbaa !5343, !dbg !6576
	%4 = mul i64  %3, 8, !dbg !6576
	%5 = call i8*  @_Znwm (i64  %4), !dbg !6576
	store i8*  %5, i8** %.Q0012.addr, align 8, !tbaa !4813, !dbg !6576
	%6 = bitcast double** %.I0003.addr to i8**, !dbg !6576
	store i8*  %5, i8**  %6, align 8, !tbaa !4813, !dbg !6576
	br label %L.B0021, !dbg !6575
L.B0020:
	%7 = bitcast double** %.I0003.addr to i8**, !dbg !6575
	store i8* null, i8**  %7, align 8, !tbaa !4813, !dbg !6575
	br label %L.B0021
L.B0021:
	%8 = load double*, double** %.I0003.addr, align 8, !tbaa !4813, !dbg !6575
	ret double*  %8, !dbg !6575
}
define linkonce_odr void @_ZNSt12_Vector_baseIdSaIdEE13_M_deallocateEPdm(%struct._ZSt12_Vector_baseIdSaIdEE* %_T15361704_54258.arg, double* %__p.arg, i64 %__n.arg) #0 inlinehint !dbg !6581 {
L.entry:
	%_T15361704_54258.addr = alloca %struct._ZSt12_Vector_baseIdSaIdEE*, align 8
	%__p.addr = alloca double*, align 8
	%__n.addr = alloca i64, align 8
	%..inline.addr = alloca double*, align 8

	call void @llvm.dbg.declare (metadata %struct._ZSt12_Vector_baseIdSaIdEE** %_T15361704_54258.addr, metadata !6593, metadata !4805), !dbg !6582
	store %struct._ZSt12_Vector_baseIdSaIdEE* %_T15361704_54258.arg, %struct._ZSt12_Vector_baseIdSaIdEE** %_T15361704_54258.addr, align 8, !tbaa !4813
	call void @llvm.dbg.declare (metadata %struct._ZSt12_Vector_baseIdSaIdEE** %_T15361704_54258.addr, metadata !6594, metadata !4805), !dbg !6582
	call void @llvm.dbg.declare (metadata double** %__p.addr, metadata !6595, metadata !4805), !dbg !6582
	store double* %__p.arg, double** %__p.addr, align 8, !tbaa !4813
	call void @llvm.dbg.declare (metadata double** %__p.addr, metadata !6596, metadata !4805), !dbg !6582
	call void @llvm.dbg.declare (metadata i64* %__n.addr, metadata !6597, metadata !4805), !dbg !6582
	store i64 %__n.arg, i64* %__n.addr, align 8, !tbaa !4812
	call void @llvm.dbg.declare (metadata i64* %__n.addr, metadata !6598, metadata !4805), !dbg !6582
	%0 = load double*, double** %__p.addr, align 8, !tbaa !4813, !dbg !6599
	%1 = bitcast double*  %0 to i8*, !dbg !6599
	%2 = icmp eq i8*  %1,  null, !dbg !6599
	br i1  %2, label %L.B0022, label %L.B1816, !dbg !6599
L.B1816:
	%3 = bitcast double*  %0 to i8*, !dbg !6600
	%4 = bitcast double** %..inline.addr to i8**, !dbg !6600
	store i8*  %3, i8**  %4, align 8, !tbaa !4813, !dbg !6600
	%5 = load double*, double** %..inline.addr, align 8, !tbaa !4813, !dbg !6600
	%6 = bitcast double*  %5 to i8*, !dbg !6600
	call void  @_ZdlPv (i8*  %6) nounwind, !dbg !6600
	br label %L.B0022
L.B0022:
	ret void, !dbg !6601
}
define linkonce_odr void @_ZNSt12_Vector_baseIdSaIdEE17_M_create_storageEm(%struct._ZSt12_Vector_baseIdSaIdEE* %_T15361704_54260.arg, i64 %__n.arg) #0 inlinehint !dbg !6605 {
L.entry:
	%_T15361704_54260.addr = alloca %struct._ZSt12_Vector_baseIdSaIdEE*, align 8
	%__n.addr = alloca i64, align 8
	%..inline.addr = alloca i64, align 8
	%.Q0013.addr = alloca i8*, align 8
	%..inline.addr.1 = alloca double*, align 8

	call void @llvm.dbg.declare (metadata %struct._ZSt12_Vector_baseIdSaIdEE** %_T15361704_54260.addr, metadata !6625, metadata !4805), !dbg !6606
	store %struct._ZSt12_Vector_baseIdSaIdEE* %_T15361704_54260.arg, %struct._ZSt12_Vector_baseIdSaIdEE** %_T15361704_54260.addr, align 8, !tbaa !4813
	call void @llvm.dbg.declare (metadata %struct._ZSt12_Vector_baseIdSaIdEE** %_T15361704_54260.addr, metadata !6626, metadata !4805), !dbg !6606
	call void @llvm.dbg.declare (metadata i64* %__n.addr, metadata !6627, metadata !4805), !dbg !6606
	store i64 %__n.arg, i64* %__n.addr, align 8, !tbaa !4812
	call void @llvm.dbg.declare (metadata i64* %__n.addr, metadata !6628, metadata !4805), !dbg !6606
	%0 = load i64, i64* %__n.addr, align 8, !tbaa !5343, !dbg !6629
	%1 = icmp eq i64  %0, 0, !dbg !6629
	br i1  %1, label %L..inline.79612, label %L.B1819, !dbg !6629
L.B1819:
	store i64  %0, i64* %..inline.addr, align 8, !tbaa !5343, !dbg !6630
	%2 = icmp ule i64  %0, 2305843009213693951, !dbg !6630
	br i1  %2, label %L..inline.79632, label %L.B1820, !dbg !6630
L.B1820:
	call void  @_ZSt17__throw_bad_allocv () noreturn, !dbg !6630
	br label %L..inline.79632
L..inline.79632:
	%3 = load i64, i64* %..inline.addr, align 8, !tbaa !5343, !dbg !6630
	%4 = mul i64  %3, 8, !dbg !6630
	%5 = call i8*  @_Znwm (i64  %4), !dbg !6630
	store i8*  %5, i8** %.Q0013.addr, align 8, !tbaa !4813, !dbg !6630
	%6 = bitcast double** %..inline.addr.1 to i8**, !dbg !6630
	store i8*  %5, i8**  %6, align 8, !tbaa !4813, !dbg !6630
	br label %L..inline.79637, !dbg !6630
L..inline.79612:
	%7 = bitcast double** %..inline.addr.1 to i8**, !dbg !6630
	store i8* null, i8**  %7, align 8, !tbaa !4813, !dbg !6630
	br label %L..inline.79637
L..inline.79637:
	%8 = load double*, double** %..inline.addr.1, align 8, !tbaa !4813, !dbg !6631
	%9 = bitcast double*  %8 to i8*, !dbg !6631
	%10 = load %struct._ZSt12_Vector_baseIdSaIdEE*, %struct._ZSt12_Vector_baseIdSaIdEE** %_T15361704_54260.addr, align 8, !tbaa !4813, !dbg !6631
	%11 = bitcast %struct._ZSt12_Vector_baseIdSaIdEE*  %10 to i8**, !dbg !6631
	store i8*  %9, i8**  %11, align 8, !tbaa !4813, !dbg !6631
	%12 = bitcast %struct._ZSt12_Vector_baseIdSaIdEE*  %10 to i8*, !dbg !6632
	%13 = getelementptr i8, i8*  %12, i64 8, !dbg !6632
	%14 = bitcast i8*  %13 to i8**, !dbg !6632
	store i8*  %9, i8**  %14, align 8, !tbaa !4813, !dbg !6632
	%15 = load i64, i64* %__n.addr, align 8, !tbaa !5343, !dbg !6633
	%16 = mul i64  %15, 8, !dbg !6633
	%17 = getelementptr i8, i8*  %9, i64  %16, !dbg !6633
	%18 = getelementptr i8, i8*  %12, i64 16, !dbg !6633
	%19 = bitcast i8*  %18 to i8**, !dbg !6633
	store i8*  %17, i8**  %19, align 8, !tbaa !4813, !dbg !6633
	ret void, !dbg !6634
}
define linkonce_odr void @_ZNSt12_Vector_baseIdSaIdEE17_Vector_impl_dataC1Ev(%struct._ZNSt12_Vector_baseIdSaIdEE17_Vector_impl_dataE* %_T15361704_54261.arg) #0 inlinehint !dbg !6639 {
L.entry:
	%_T15361704_54261.addr = alloca %struct._ZNSt12_Vector_baseIdSaIdEE17_Vector_impl_dataE*, align 8

	call void @llvm.dbg.declare (metadata %struct._ZNSt12_Vector_baseIdSaIdEE17_Vector_impl_dataE** %_T15361704_54261.addr, metadata !6643, metadata !4805), !dbg !6640
	store %struct._ZNSt12_Vector_baseIdSaIdEE17_Vector_impl_dataE* %_T15361704_54261.arg, %struct._ZNSt12_Vector_baseIdSaIdEE17_Vector_impl_dataE** %_T15361704_54261.addr, align 8, !tbaa !4813
	call void @llvm.dbg.declare (metadata %struct._ZNSt12_Vector_baseIdSaIdEE17_Vector_impl_dataE** %_T15361704_54261.addr, metadata !6644, metadata !4805), !dbg !6640
	%0 = load %struct._ZNSt12_Vector_baseIdSaIdEE17_Vector_impl_dataE*, %struct._ZNSt12_Vector_baseIdSaIdEE17_Vector_impl_dataE** %_T15361704_54261.addr, align 8, !tbaa !4813, !dbg !6645
	%1 = bitcast %struct._ZNSt12_Vector_baseIdSaIdEE17_Vector_impl_dataE*  %0 to i8**, !dbg !6645
	store i8* null, i8**  %1, align 8, !tbaa !4813, !dbg !6645
	%2 = bitcast %struct._ZNSt12_Vector_baseIdSaIdEE17_Vector_impl_dataE*  %0 to i8*, !dbg !6645
	%3 = getelementptr i8, i8*  %2, i64 8, !dbg !6645
	%4 = bitcast i8*  %3 to i8**, !dbg !6645
	store i8* null, i8**  %4, align 8, !tbaa !4813, !dbg !6645
	%5 = getelementptr i8, i8*  %2, i64 16, !dbg !6645
	%6 = bitcast i8*  %5 to i8**, !dbg !6645
	store i8* null, i8**  %6, align 8, !tbaa !4813, !dbg !6645
	ret void, !dbg !6645
}
define linkonce_odr void @_ZNSt12_Vector_baseIdSaIdEE17_Vector_impl_dataC2Ev(%struct._ZNSt12_Vector_baseIdSaIdEE17_Vector_impl_dataE* %_T15361704_54262.arg) #0 inlinehint !dbg !6647 {
L.entry:
	%_T15361704_54262.addr = alloca %struct._ZNSt12_Vector_baseIdSaIdEE17_Vector_impl_dataE*, align 8
	%..inline.addr = alloca %struct._ZNSt12_Vector_baseIdSaIdEE17_Vector_impl_dataE*, align 8

	store %struct._ZNSt12_Vector_baseIdSaIdEE17_Vector_impl_dataE* %_T15361704_54262.arg, %struct._ZNSt12_Vector_baseIdSaIdEE17_Vector_impl_dataE** %_T15361704_54262.addr, align 8, !tbaa !4813
	%0 = load %struct._ZNSt12_Vector_baseIdSaIdEE17_Vector_impl_dataE*, %struct._ZNSt12_Vector_baseIdSaIdEE17_Vector_impl_dataE** %_T15361704_54262.addr, align 8, !tbaa !4813, !dbg !6655
	%1 = bitcast %struct._ZNSt12_Vector_baseIdSaIdEE17_Vector_impl_dataE*  %0 to i8*, !dbg !6655
	%2 = bitcast %struct._ZNSt12_Vector_baseIdSaIdEE17_Vector_impl_dataE** %..inline.addr to i8**, !dbg !6655
	store i8*  %1, i8**  %2, align 8, !tbaa !4813, !dbg !6655
	%3 = load %struct._ZNSt12_Vector_baseIdSaIdEE17_Vector_impl_dataE*, %struct._ZNSt12_Vector_baseIdSaIdEE17_Vector_impl_dataE** %..inline.addr, align 8, !tbaa !4813, !dbg !6655
	%4 = bitcast %struct._ZNSt12_Vector_baseIdSaIdEE17_Vector_impl_dataE*  %3 to i8**, !dbg !6655
	store i8* null, i8**  %4, align 8, !tbaa !4813, !dbg !6655
	%5 = bitcast %struct._ZNSt12_Vector_baseIdSaIdEE17_Vector_impl_dataE*  %3 to i8*, !dbg !6655
	%6 = getelementptr i8, i8*  %5, i64 8, !dbg !6655
	%7 = bitcast i8*  %6 to i8**, !dbg !6655
	store i8* null, i8**  %7, align 8, !tbaa !4813, !dbg !6655
	%8 = getelementptr i8, i8*  %5, i64 16, !dbg !6655
	%9 = bitcast i8*  %8 to i8**, !dbg !6655
	store i8* null, i8**  %9, align 8, !tbaa !4813, !dbg !6655
	ret void, !dbg !6655
}
define linkonce_odr void @_ZNSt12_Vector_baseIdSaIdEE12_Vector_implC1ERKS0_(%struct._ZNSt12_Vector_baseIdSaIdEE12_Vector_implE* %_T15361704_54263.arg, %struct._ZSaIdE* %__a.arg) #0 inlinehint !dbg !6664 {
L.entry:
	%_T15361704_54263.addr = alloca %struct._ZNSt12_Vector_baseIdSaIdEE12_Vector_implE*, align 8
	%__a.addr = alloca %struct._ZSaIdE*, align 8
	%..inline.addr = alloca %struct._ZNSt12_Vector_baseIdSaIdEE17_Vector_impl_dataE*, align 8

	call void @llvm.dbg.declare (metadata %struct._ZNSt12_Vector_baseIdSaIdEE12_Vector_implE** %_T15361704_54263.addr, metadata !6676, metadata !4805), !dbg !6665
	store %struct._ZNSt12_Vector_baseIdSaIdEE12_Vector_implE* %_T15361704_54263.arg, %struct._ZNSt12_Vector_baseIdSaIdEE12_Vector_implE** %_T15361704_54263.addr, align 8, !tbaa !4813
	call void @llvm.dbg.declare (metadata %struct._ZNSt12_Vector_baseIdSaIdEE12_Vector_implE** %_T15361704_54263.addr, metadata !6677, metadata !4805), !dbg !6665
	call void @llvm.dbg.declare (metadata %struct._ZSaIdE** %__a.addr, metadata !6678, metadata !4805), !dbg !6665
	store %struct._ZSaIdE* %__a.arg, %struct._ZSaIdE** %__a.addr, align 8, !tbaa !4813
	call void @llvm.dbg.declare (metadata %struct._ZSaIdE** %__a.addr, metadata !6679, metadata !4805), !dbg !6665
	%0 = load %struct._ZNSt12_Vector_baseIdSaIdEE12_Vector_implE*, %struct._ZNSt12_Vector_baseIdSaIdEE12_Vector_implE** %_T15361704_54263.addr, align 8, !tbaa !4813, !dbg !6680
	%1 = bitcast %struct._ZNSt12_Vector_baseIdSaIdEE12_Vector_implE*  %0 to i8*, !dbg !6680
	%2 = bitcast %struct._ZNSt12_Vector_baseIdSaIdEE17_Vector_impl_dataE** %..inline.addr to i8**, !dbg !6680
	store i8*  %1, i8**  %2, align 8, !tbaa !4813, !dbg !6680
	%3 = load %struct._ZNSt12_Vector_baseIdSaIdEE17_Vector_impl_dataE*, %struct._ZNSt12_Vector_baseIdSaIdEE17_Vector_impl_dataE** %..inline.addr, align 8, !tbaa !4813, !dbg !6680
	%4 = bitcast %struct._ZNSt12_Vector_baseIdSaIdEE17_Vector_impl_dataE*  %3 to i8**, !dbg !6680
	store i8* null, i8**  %4, align 8, !tbaa !4813, !dbg !6680
	%5 = bitcast %struct._ZNSt12_Vector_baseIdSaIdEE17_Vector_impl_dataE*  %3 to i8*, !dbg !6681
	%6 = getelementptr i8, i8*  %5, i64 8, !dbg !6681
	%7 = bitcast i8*  %6 to i8**, !dbg !6681
	store i8* null, i8**  %7, align 8, !tbaa !4813, !dbg !6681
	%8 = getelementptr i8, i8*  %5, i64 16, !dbg !6681
	%9 = bitcast i8*  %8 to i8**, !dbg !6681
	store i8* null, i8**  %9, align 8, !tbaa !4813, !dbg !6681
	ret void, !dbg !6680
}
define linkonce_odr void @_ZNSt12_Vector_baseIdSaIdEE12_Vector_implC2ERKS0_(%struct._ZNSt12_Vector_baseIdSaIdEE12_Vector_implE* %_T15361704_54264.arg, %struct._ZSaIdE* %_T15362000_54264.arg) #0 inlinehint !dbg !6683 {
L.entry:
	%_T15361704_54264.addr = alloca %struct._ZNSt12_Vector_baseIdSaIdEE12_Vector_implE*, align 8
	%_T15362000_54264.addr = alloca %struct._ZSaIdE*, align 8
	%..inline.addr = alloca %struct._ZNSt12_Vector_baseIdSaIdEE17_Vector_impl_dataE*, align 8

	store %struct._ZNSt12_Vector_baseIdSaIdEE12_Vector_implE* %_T15361704_54264.arg, %struct._ZNSt12_Vector_baseIdSaIdEE12_Vector_implE** %_T15361704_54264.addr, align 8, !tbaa !4813
	store %struct._ZSaIdE* %_T15362000_54264.arg, %struct._ZSaIdE** %_T15362000_54264.addr, align 8, !tbaa !4813
	%0 = load %struct._ZNSt12_Vector_baseIdSaIdEE12_Vector_implE*, %struct._ZNSt12_Vector_baseIdSaIdEE12_Vector_implE** %_T15361704_54264.addr, align 8, !tbaa !4813, !dbg !6699
	%1 = bitcast %struct._ZNSt12_Vector_baseIdSaIdEE12_Vector_implE*  %0 to i8*, !dbg !6699
	%2 = bitcast %struct._ZNSt12_Vector_baseIdSaIdEE17_Vector_impl_dataE** %..inline.addr to i8**, !dbg !6699
	store i8*  %1, i8**  %2, align 8, !tbaa !4813, !dbg !6699
	%3 = load %struct._ZNSt12_Vector_baseIdSaIdEE17_Vector_impl_dataE*, %struct._ZNSt12_Vector_baseIdSaIdEE17_Vector_impl_dataE** %..inline.addr, align 8, !tbaa !4813, !dbg !6699
	%4 = bitcast %struct._ZNSt12_Vector_baseIdSaIdEE17_Vector_impl_dataE*  %3 to i8**, !dbg !6699
	store i8* null, i8**  %4, align 8, !tbaa !4813, !dbg !6699
	%5 = bitcast %struct._ZNSt12_Vector_baseIdSaIdEE17_Vector_impl_dataE*  %3 to i8*, !dbg !6699
	%6 = getelementptr i8, i8*  %5, i64 8, !dbg !6699
	%7 = bitcast i8*  %6 to i8**, !dbg !6699
	store i8* null, i8**  %7, align 8, !tbaa !4813, !dbg !6699
	%8 = getelementptr i8, i8*  %5, i64 16, !dbg !6699
	%9 = bitcast i8*  %8 to i8**, !dbg !6699
	store i8* null, i8**  %9, align 8, !tbaa !4813, !dbg !6699
	ret void, !dbg !6699
}
define linkonce_odr void @_ZNSt12_Vector_baseIdSaIdEE12_Vector_implD1Ev(%struct._ZNSt12_Vector_baseIdSaIdEE12_Vector_implE* %_T15361704_54265.arg) #0 inlinehint !dbg !6703 {
L.entry:
	%_T15361704_54265.addr = alloca %struct._ZNSt12_Vector_baseIdSaIdEE12_Vector_implE*, align 8

	call void @llvm.dbg.declare (metadata %struct._ZNSt12_Vector_baseIdSaIdEE12_Vector_implE** %_T15361704_54265.addr, metadata !6715, metadata !4805), !dbg !6704
	store %struct._ZNSt12_Vector_baseIdSaIdEE12_Vector_implE* %_T15361704_54265.arg, %struct._ZNSt12_Vector_baseIdSaIdEE12_Vector_implE** %_T15361704_54265.addr, align 8, !tbaa !4813
	call void @llvm.dbg.declare (metadata %struct._ZNSt12_Vector_baseIdSaIdEE12_Vector_implE** %_T15361704_54265.addr, metadata !6716, metadata !4805), !dbg !6704
	ret void, !dbg !6717
}
define linkonce_odr void @_ZNSt12_Vector_baseIdSaIdEE12_Vector_implD2Ev(%struct._ZNSt12_Vector_baseIdSaIdEE12_Vector_implE* %_T15361704_54266.arg) #0 inlinehint !dbg !6719 {
L.entry:
	%_T15361704_54266.addr = alloca %struct._ZNSt12_Vector_baseIdSaIdEE12_Vector_implE*, align 8

	store %struct._ZNSt12_Vector_baseIdSaIdEE12_Vector_implE* %_T15361704_54266.arg, %struct._ZNSt12_Vector_baseIdSaIdEE12_Vector_implE** %_T15361704_54266.addr, align 8, !tbaa !4813
	ret void, !dbg !6735
}

%struct._ZSt6vectorIdSaIdEE = type <{ %struct._ZSt12_Vector_baseIdSaIdEE}> 

define linkonce_odr void @_ZNSt6vectorIdSaIdEEC1EmRKdRKS0_(%struct._ZSt6vectorIdSaIdEE* %_T16174264_54268.arg, i64 %__n.arg, double* %__value.arg, %struct._ZSaIdE* %__a.arg) #0 inlinehint !dbg !6744 {
L.entry:
	%_T16174264_54268.addr = alloca %struct._ZSt6vectorIdSaIdEE*, align 8
	%__n.addr = alloca i64, align 8
	%__value.addr = alloca double*, align 8
	%__a.addr = alloca %struct._ZSaIdE*, align 8
	%..inline.addr = alloca i64, align 8
	%..inline.addr.1 = alloca %struct._ZSaIdE, align 1
	%..inline.addr.2 = alloca %struct._ZSt12_Vector_baseIdSaIdEE*, align 8
	%..inline.addr.3 = alloca i64, align 8
	%..inline.addr.4 = alloca %struct._ZSaIdE*, align 8
	%..inline.addr.5 = alloca %struct._ZSt6vectorIdSaIdEE*, align 8
	%..inline.addr.6 = alloca double*, align 8
	%..inline.addr.7 = alloca double, align 8
	%..inline.addr.8 = alloca i64, align 8
	%.ivp0000.addr = alloca i8*, align 8
	%.ndk0006.addr = alloca i64, align 8
	%.ndk0007.addr = alloca i64, align 8
	%.vv0001.addr = alloca i8*, align 8
	%.r83.0137.addr = alloca <4 x double>, align 8

	call void @llvm.dbg.declare (metadata %struct._ZSt6vectorIdSaIdEE** %_T16174264_54268.addr, metadata !6796, metadata !4805), !dbg !6745
	store %struct._ZSt6vectorIdSaIdEE* %_T16174264_54268.arg, %struct._ZSt6vectorIdSaIdEE** %_T16174264_54268.addr, align 8, !tbaa !4813
	call void @llvm.dbg.declare (metadata %struct._ZSt6vectorIdSaIdEE** %_T16174264_54268.addr, metadata !6797, metadata !4805), !dbg !6745
	call void @llvm.dbg.declare (metadata i64* %__n.addr, metadata !6798, metadata !4805), !dbg !6745
	store i64 %__n.arg, i64* %__n.addr, align 8, !tbaa !4812
	call void @llvm.dbg.declare (metadata i64* %__n.addr, metadata !6799, metadata !4805), !dbg !6745
	call void @llvm.dbg.declare (metadata double** %__value.addr, metadata !6800, metadata !4805), !dbg !6745
	store double* %__value.arg, double** %__value.addr, align 8, !tbaa !4813
	call void @llvm.dbg.declare (metadata double** %__value.addr, metadata !6801, metadata !4805), !dbg !6745
	call void @llvm.dbg.declare (metadata %struct._ZSaIdE** %__a.addr, metadata !6802, metadata !4805), !dbg !6745
	store %struct._ZSaIdE* %__a.arg, %struct._ZSaIdE** %__a.addr, align 8, !tbaa !4813
	call void @llvm.dbg.declare (metadata %struct._ZSaIdE** %__a.addr, metadata !6803, metadata !4805), !dbg !6745
	%0 = load i64, i64* %__n.addr, align 8, !tbaa !5343, !dbg !6804
	store i64  %0, i64* %..inline.addr, align 8, !tbaa !5343, !dbg !6804
	%1 = call i64  @_ZNSt6vectorIdSaIdEE11_S_max_sizeERKS0_ (%struct._ZSaIdE* %..inline.addr.1) nounwind, !dbg !6805
	%2 = icmp ule i64  %0,  %1, !dbg !6805
	br i1  %2, label %L..inline.79750, label %L.B1842, !dbg !6805
L.B1842:
	%3 = bitcast [49 x i8]* @.S56459 to i8*, !dbg !6806
	call void  @_ZSt20__throw_length_errorPKc (i8*  %3) noreturn, !dbg !6806
	br label %L..inline.79750
L..inline.79750:
	%4 = load %struct._ZSt6vectorIdSaIdEE*, %struct._ZSt6vectorIdSaIdEE** %_T16174264_54268.addr, align 8, !tbaa !4813, !dbg !6807
	%5 = bitcast %struct._ZSt6vectorIdSaIdEE*  %4 to i8*, !dbg !6807
	%6 = bitcast %struct._ZSt12_Vector_baseIdSaIdEE** %..inline.addr.2 to i8**, !dbg !6807
	store i8*  %5, i8**  %6, align 8, !tbaa !4813, !dbg !6807
	%7 = load i64, i64* %..inline.addr, align 8, !tbaa !5343, !dbg !6804
	%8 = load %struct._ZSaIdE*, %struct._ZSaIdE** %__a.addr, align 8, !tbaa !4813, !dbg !6804
	%9 = bitcast %struct._ZSaIdE*  %8 to i8*, !dbg !6804
	%10 = bitcast %struct._ZSaIdE** %..inline.addr.4 to i8**, !dbg !6804
	store i8*  %9, i8**  %10, align 8, !tbaa !4813, !dbg !6804
	%11 = load %struct._ZSt12_Vector_baseIdSaIdEE*, %struct._ZSt12_Vector_baseIdSaIdEE** %..inline.addr.2, align 8, !tbaa !4813, !dbg !6804
	%12 = load %struct._ZSaIdE*, %struct._ZSaIdE** %..inline.addr.4, align 8, !tbaa !4813, !dbg !6804
	call void  @_ZNSt12_Vector_baseIdSaIdEEC1EmRKS0_ (%struct._ZSt12_Vector_baseIdSaIdEE*  %11, i64  %7, %struct._ZSaIdE*  %12), !dbg !6804
	%13 = load %struct._ZSt6vectorIdSaIdEE*, %struct._ZSt6vectorIdSaIdEE** %_T16174264_54268.addr, align 8, !tbaa !4813, !dbg !6804
	%14 = bitcast %struct._ZSt6vectorIdSaIdEE*  %13 to i8*, !dbg !6804
	%15 = bitcast %struct._ZSt6vectorIdSaIdEE** %..inline.addr.5 to i8**, !dbg !6804
	store i8*  %14, i8**  %15, align 8, !tbaa !4813, !dbg !6804
	%16 = load %struct._ZSt6vectorIdSaIdEE*, %struct._ZSt6vectorIdSaIdEE** %..inline.addr.5, align 8, !tbaa !4813, !dbg !6808
	%17 = bitcast %struct._ZSt6vectorIdSaIdEE*  %16 to i8**, !dbg !6808
	%18 = load i8*, i8**  %17, align 8, !tbaa !4813, !dbg !6808
	%19 = bitcast double** %..inline.addr.6 to i8**, !dbg !6808
	store i8*  %18, i8**  %19, align 8, !tbaa !4813, !dbg !6808
	%20 = load double*, double** %__value.addr, align 8, !tbaa !4813, !dbg !6808
	%21 = load double, double*  %20, align 8, !tbaa !4812, !dbg !6808
	store double  %21, double* %..inline.addr.7, align 8, !tbaa !5982, !dbg !6808
	%22 = load i64, i64* %__n.addr, align 8, !tbaa !5343, !dbg !6808
	%23 = icmp eq i64  %22, 0, !dbg !6808
	br i1  %23, label %L..inline.79820, label %L.B1843, !dbg !6808
L.B1843:
	%24 = load double*, double** %..inline.addr.6, align 8, !tbaa !4813, !dbg !6808
	%25 = bitcast double*  %24 to i8*, !dbg !6808
	store i8*  %25, i8** %.ivp0000.addr, align 8, !tbaa !4813, !dbg !6808
	%26 = mul i64  %22, 8, !dbg !6808
	%27 = getelementptr i8, i8*  %25, i64  %26, !dbg !6808
	%28 = bitcast double** %..inline.addr.6 to i8**, !dbg !6808
	store i8*  %27, i8**  %28, align 8, !tbaa !4813, !dbg !6808
	store i64 0, i64* %.ndk0006.addr, align 8, !tbaa !5984, !dbg !6808
	store i64  %22, i64* %.ndk0007.addr, align 8, !tbaa !5984, !dbg !6808
	%29 = icmp slt i64  %22, 4, !dbg !6808
	br i1  %29, label %L.B1839, label %L.B1844, !dbg !6808
L.B1844:
	store i8*  %25, i8** %.vv0001.addr, align 8, !tbaa !4813, !dbg !6808
	%30 = sub i64  %22, 3, !dbg !6808
	store i64  %30, i64* %.ndk0007.addr, align 8, !tbaa !5984, !dbg !6808
	%31 = insertelement <4 x double> undef, double  %21, i32 0, !dbg !6808
	%32 = shufflevector <4 x double>  %31, <4 x double> undef, <4 x i32> <i32 0, i32 0, i32 0, i32 0>, !dbg !6808
	store <4 x double>  %32, <4 x double>* %.r83.0137.addr, align 1, !tbaa !4812, !dbg !6808
	br label %L.B1840
L.B1840:
	%33 = load <4 x double>, <4 x double>* %.r83.0137.addr, align 8, !tbaa !4812, !dbg !6808
	%34 = load i8*, i8** %.vv0001.addr, align 8, !tbaa !4813, !dbg !6808
	%35 = bitcast i8*  %34 to <4 x double>*, !dbg !6808
	store <4 x double>  %33, <4 x double>*  %35, align 1, !tbaa !4812, !dbg !6808
	%36 = getelementptr i8, i8*  %34, i64 32, !dbg !6808
	store i8*  %36, i8** %.vv0001.addr, align 8, !tbaa !4813, !dbg !6808
	%37 = load i64, i64* %.ndk0007.addr, align 8, !tbaa !5984, !dbg !6808
	%38 = sub i64  %37, 4, !dbg !6808
	store i64  %38, i64* %.ndk0007.addr, align 8, !tbaa !5984, !dbg !6808
	%39 = icmp sgt i64  %38, 0, !dbg !6808
	br i1  %39, label %L.B1840, label %L.B1845, !dbg !6808
L.B1845:
	%40 = load i64, i64* %.ndk0007.addr, align 8, !tbaa !5984, !dbg !6808
	%41 = add i64  %40, 3, !dbg !6808
	store i64  %41, i64* %.ndk0007.addr, align 8, !tbaa !5984, !dbg !6808
	%42 = icmp eq i64  %41, 0, !dbg !6808
	br i1  %42, label %L.B1841, label %L.B1846, !dbg !6808
L.B1846:
	%43 = load i64, i64* %__n.addr, align 8, !tbaa !5343, !dbg !6808
	%44 = and i64  %43, -4, !dbg !6808
	store i64  %44, i64* %.ndk0006.addr, align 8, !tbaa !5984, !dbg !6808
	br label %L.B1839
L.B1839:
	%45 = load double, double* %..inline.addr.7, align 8, !tbaa !5982, !dbg !6808
	%46 = load i64, i64* %.ndk0006.addr, align 8, !tbaa !5984, !dbg !6808
	%47 = load i8*, i8** %.ivp0000.addr, align 8, !tbaa !4813, !dbg !6808
	%48 = bitcast i8*  %47 to double*, !dbg !6808
	%49 = getelementptr double, double*  %48, i64  %46, !dbg !6808
	store double  %45, double*  %49, align 8, !tbaa !4812, !dbg !6808
	%50 = add i64  %46, 1, !dbg !6808
	store i64  %50, i64* %.ndk0006.addr, align 8, !tbaa !5984, !dbg !6808
	%51 = load i64, i64* %.ndk0007.addr, align 8, !tbaa !5984, !dbg !6808
	%52 = sub i64  %51, 1, !dbg !6808
	store i64  %52, i64* %.ndk0007.addr, align 8, !tbaa !5984, !dbg !6808
	%53 = icmp sgt i64  %52, 0, !dbg !6808
	br i1  %53, label %L.B1839, label %L.B1841, !llvm.loop !5977, !dbg !6808
L.B1841:
	br label %L..inline.79820
L..inline.79820:
	%54 = load double*, double** %..inline.addr.6, align 8, !tbaa !4813, !dbg !6808
	%55 = bitcast double*  %54 to i8*, !dbg !6808
	%56 = load %struct._ZSt6vectorIdSaIdEE*, %struct._ZSt6vectorIdSaIdEE** %..inline.addr.5, align 8, !tbaa !4813, !dbg !6808
	%57 = bitcast %struct._ZSt6vectorIdSaIdEE*  %56 to i8*, !dbg !6808
	%58 = getelementptr i8, i8*  %57, i64 8, !dbg !6808
	%59 = bitcast i8*  %58 to i8**, !dbg !6808
	store i8*  %55, i8**  %59, align 8, !tbaa !4813, !dbg !6808
	ret void, !dbg !6804
}
define linkonce_odr void @_ZNSt6vectorIdSaIdEEC2EmRKdRKS0_(%struct._ZSt6vectorIdSaIdEE* %_T16174264_54270.arg, i64 %_T16174560_54270.arg, double* %_T16174856_54270.arg, %struct._ZSaIdE* %_T16175152_54270.arg) #0 inlinehint !dbg !6810 {
L.entry:
	%_T16174264_54270.addr = alloca %struct._ZSt6vectorIdSaIdEE*, align 8
	%_T16174560_54270.addr = alloca i64, align 8
	%_T16174856_54270.addr = alloca double*, align 8
	%_T16175152_54270.addr = alloca %struct._ZSaIdE*, align 8
	%..inline.addr = alloca %struct._ZSt6vectorIdSaIdEE*, align 8
	%..inline.addr.1 = alloca i64, align 8
	%..inline.addr.2 = alloca double*, align 8
	%..inline.addr.3 = alloca %struct._ZSaIdE*, align 8
	%..inline.addr.4 = alloca i64, align 8
	%..inline.addr.5 = alloca %struct._ZSaIdE, align 1
	%..inline.addr.6 = alloca %struct._ZSt12_Vector_baseIdSaIdEE*, align 8
	%..inline.addr.7 = alloca i64, align 8
	%..inline.addr.8 = alloca %struct._ZSaIdE*, align 8
	%..inline.addr.9 = alloca %struct._ZSt6vectorIdSaIdEE*, align 8
	%..inline.addr.180 = alloca double*, align 8
	%..inline.addr.190 = alloca double, align 8
	%..inline.addr.200 = alloca i64, align 8
	%.ivp0001.addr = alloca i8*, align 8
	%.ndk0010.addr = alloca i64, align 8
	%.ndk0011.addr = alloca i64, align 8
	%.vv0002.addr = alloca i8*, align 8
	%.r84.0148.addr = alloca <4 x double>, align 8

	store %struct._ZSt6vectorIdSaIdEE* %_T16174264_54270.arg, %struct._ZSt6vectorIdSaIdEE** %_T16174264_54270.addr, align 8, !tbaa !4813
	store i64 %_T16174560_54270.arg, i64* %_T16174560_54270.addr, align 8, !tbaa !4812
	store double* %_T16174856_54270.arg, double** %_T16174856_54270.addr, align 8, !tbaa !4813
	store %struct._ZSaIdE* %_T16175152_54270.arg, %struct._ZSaIdE** %_T16175152_54270.addr, align 8, !tbaa !4813
	%0 = load %struct._ZSt6vectorIdSaIdEE*, %struct._ZSt6vectorIdSaIdEE** %_T16174264_54270.addr, align 8, !tbaa !4813, !dbg !6866
	%1 = bitcast %struct._ZSt6vectorIdSaIdEE*  %0 to i8*, !dbg !6866
	%2 = bitcast %struct._ZSt6vectorIdSaIdEE** %..inline.addr to i8**, !dbg !6866
	store i8*  %1, i8**  %2, align 8, !tbaa !4813, !dbg !6866
	%3 = load i64, i64* %_T16174560_54270.addr, align 8, !tbaa !5343, !dbg !6866
	store i64  %3, i64* %..inline.addr.1, align 8, !tbaa !5343, !dbg !6866
	%4 = load double*, double** %_T16174856_54270.addr, align 8, !tbaa !4813, !dbg !6866
	%5 = bitcast double*  %4 to i8*, !dbg !6866
	%6 = bitcast double** %..inline.addr.2 to i8**, !dbg !6866
	store i8*  %5, i8**  %6, align 8, !tbaa !4813, !dbg !6866
	%7 = load %struct._ZSaIdE*, %struct._ZSaIdE** %_T16175152_54270.addr, align 8, !tbaa !4813, !dbg !6866
	%8 = bitcast %struct._ZSaIdE*  %7 to i8*, !dbg !6866
	%9 = bitcast %struct._ZSaIdE** %..inline.addr.3 to i8**, !dbg !6866
	store i8*  %8, i8**  %9, align 8, !tbaa !4813, !dbg !6866
	store i64  %3, i64* %..inline.addr.4, align 8, !tbaa !5343, !dbg !6867
	%10 = call i64  @_ZNSt6vectorIdSaIdEE11_S_max_sizeERKS0_ (%struct._ZSaIdE* %..inline.addr.5) nounwind, !dbg !6867
	%11 = icmp ule i64  %3,  %10, !dbg !6867
	br i1  %11, label %L..inline.79949, label %L.B1854, !dbg !6867
L.B1854:
	%12 = bitcast [49 x i8]* @.S56459 to i8*, !dbg !6867
	call void  @_ZSt20__throw_length_errorPKc (i8*  %12) noreturn, !dbg !6867
	br label %L..inline.79949
L..inline.79949:
	%13 = load %struct._ZSt6vectorIdSaIdEE*, %struct._ZSt6vectorIdSaIdEE** %..inline.addr, align 8, !tbaa !4813, !dbg !6867
	%14 = bitcast %struct._ZSt6vectorIdSaIdEE*  %13 to i8*, !dbg !6867
	%15 = bitcast %struct._ZSt12_Vector_baseIdSaIdEE** %..inline.addr.6 to i8**, !dbg !6867
	store i8*  %14, i8**  %15, align 8, !tbaa !4813, !dbg !6867
	%16 = load i64, i64* %..inline.addr.4, align 8, !tbaa !5343, !dbg !6867
	%17 = load %struct._ZSaIdE*, %struct._ZSaIdE** %..inline.addr.3, align 8, !tbaa !4813, !dbg !6867
	%18 = bitcast %struct._ZSaIdE*  %17 to i8*, !dbg !6867
	%19 = bitcast %struct._ZSaIdE** %..inline.addr.8 to i8**, !dbg !6867
	store i8*  %18, i8**  %19, align 8, !tbaa !4813, !dbg !6867
	%20 = load %struct._ZSt12_Vector_baseIdSaIdEE*, %struct._ZSt12_Vector_baseIdSaIdEE** %..inline.addr.6, align 8, !tbaa !4813, !dbg !6867
	%21 = load %struct._ZSaIdE*, %struct._ZSaIdE** %..inline.addr.8, align 8, !tbaa !4813, !dbg !6867
	call void  @_ZNSt12_Vector_baseIdSaIdEEC1EmRKS0_ (%struct._ZSt12_Vector_baseIdSaIdEE*  %20, i64  %16, %struct._ZSaIdE*  %21), !dbg !6867
	%22 = load %struct._ZSt6vectorIdSaIdEE*, %struct._ZSt6vectorIdSaIdEE** %..inline.addr, align 8, !tbaa !4813, !dbg !6867
	%23 = bitcast %struct._ZSt6vectorIdSaIdEE*  %22 to i8*, !dbg !6867
	%24 = bitcast %struct._ZSt6vectorIdSaIdEE** %..inline.addr.9 to i8**, !dbg !6867
	store i8*  %23, i8**  %24, align 8, !tbaa !4813, !dbg !6867
	%25 = bitcast %struct._ZSt6vectorIdSaIdEE*  %22 to i8**, !dbg !6867
	%26 = load i8*, i8**  %25, align 8, !tbaa !4813, !dbg !6867
	%27 = bitcast double** %..inline.addr.180 to i8**, !dbg !6867
	store i8*  %26, i8**  %27, align 8, !tbaa !4813, !dbg !6867
	%28 = load double*, double** %..inline.addr.2, align 8, !tbaa !4813, !dbg !6867
	%29 = load double, double*  %28, align 8, !tbaa !4812, !dbg !6867
	store double  %29, double* %..inline.addr.190, align 8, !tbaa !5982, !dbg !6867
	%30 = load i64, i64* %..inline.addr.1, align 8, !tbaa !5343, !dbg !6867
	%31 = icmp eq i64  %30, 0, !dbg !6867
	br i1  %31, label %L..inline.80019, label %L.B1855, !dbg !6867
L.B1855:
	%32 = load double*, double** %..inline.addr.180, align 8, !tbaa !4813, !dbg !6867
	%33 = bitcast double*  %32 to i8*, !dbg !6867
	store i8*  %33, i8** %.ivp0001.addr, align 8, !tbaa !4813, !dbg !6867
	%34 = load i64, i64* %_T16174560_54270.addr, align 8, !tbaa !5343, !dbg !6867
	%35 = mul i64  %34, 8, !dbg !6867
	%36 = getelementptr i8, i8*  %33, i64  %35, !dbg !6867
	%37 = bitcast double** %..inline.addr.180 to i8**, !dbg !6867
	store i8*  %36, i8**  %37, align 8, !tbaa !4813, !dbg !6867
	store i64 0, i64* %.ndk0010.addr, align 8, !tbaa !5984, !dbg !6867
	store i64  %34, i64* %.ndk0011.addr, align 8, !tbaa !5984, !dbg !6867
	%38 = icmp slt i64  %34, 4, !dbg !6867
	br i1  %38, label %L.B1851, label %L.B1856, !dbg !6867
L.B1856:
	store i8*  %33, i8** %.vv0002.addr, align 8, !tbaa !4813, !dbg !6867
	%39 = sub i64  %34, 3, !dbg !6867
	store i64  %39, i64* %.ndk0011.addr, align 8, !tbaa !5984, !dbg !6867
	%40 = insertelement <4 x double> undef, double  %29, i32 0, !dbg !6867
	%41 = shufflevector <4 x double>  %40, <4 x double> undef, <4 x i32> <i32 0, i32 0, i32 0, i32 0>, !dbg !6867
	store <4 x double>  %41, <4 x double>* %.r84.0148.addr, align 1, !tbaa !4812, !dbg !6867
	br label %L.B1852
L.B1852:
	%42 = load <4 x double>, <4 x double>* %.r84.0148.addr, align 8, !tbaa !4812, !dbg !6867
	%43 = load i8*, i8** %.vv0002.addr, align 8, !tbaa !4813, !dbg !6867
	%44 = bitcast i8*  %43 to <4 x double>*, !dbg !6867
	store <4 x double>  %42, <4 x double>*  %44, align 1, !tbaa !4812, !dbg !6867
	%45 = getelementptr i8, i8*  %43, i64 32, !dbg !6867
	store i8*  %45, i8** %.vv0002.addr, align 8, !tbaa !4813, !dbg !6867
	%46 = load i64, i64* %.ndk0011.addr, align 8, !tbaa !5984, !dbg !6867
	%47 = sub i64  %46, 4, !dbg !6867
	store i64  %47, i64* %.ndk0011.addr, align 8, !tbaa !5984, !dbg !6867
	%48 = icmp sgt i64  %47, 0, !dbg !6867
	br i1  %48, label %L.B1852, label %L.B1857, !dbg !6867
L.B1857:
	%49 = load i64, i64* %.ndk0011.addr, align 8, !tbaa !5984, !dbg !6867
	%50 = add i64  %49, 3, !dbg !6867
	store i64  %50, i64* %.ndk0011.addr, align 8, !tbaa !5984, !dbg !6867
	%51 = icmp eq i64  %50, 0, !dbg !6867
	br i1  %51, label %L.B1853, label %L.B1858, !dbg !6867
L.B1858:
	%52 = load i64, i64* %_T16174560_54270.addr, align 8, !tbaa !5343, !dbg !6867
	%53 = and i64  %52, -4, !dbg !6867
	store i64  %53, i64* %.ndk0010.addr, align 8, !tbaa !5984, !dbg !6867
	br label %L.B1851
L.B1851:
	%54 = load double, double* %..inline.addr.190, align 8, !tbaa !5982, !dbg !6867
	%55 = load i64, i64* %.ndk0010.addr, align 8, !tbaa !5984, !dbg !6867
	%56 = load i8*, i8** %.ivp0001.addr, align 8, !tbaa !4813, !dbg !6867
	%57 = bitcast i8*  %56 to double*, !dbg !6867
	%58 = getelementptr double, double*  %57, i64  %55, !dbg !6867
	store double  %54, double*  %58, align 8, !tbaa !4812, !dbg !6867
	%59 = add i64  %55, 1, !dbg !6867
	store i64  %59, i64* %.ndk0010.addr, align 8, !tbaa !5984, !dbg !6867
	%60 = load i64, i64* %.ndk0011.addr, align 8, !tbaa !5984, !dbg !6867
	%61 = sub i64  %60, 1, !dbg !6867
	store i64  %61, i64* %.ndk0011.addr, align 8, !tbaa !5984, !dbg !6867
	%62 = icmp sgt i64  %61, 0, !dbg !6867
	br i1  %62, label %L.B1851, label %L.B1853, !llvm.loop !5977, !dbg !6867
L.B1853:
	br label %L..inline.80019
L..inline.80019:
	%63 = load double*, double** %..inline.addr.180, align 8, !tbaa !4813, !dbg !6867
	%64 = bitcast double*  %63 to i8*, !dbg !6867
	%65 = load %struct._ZSt6vectorIdSaIdEE*, %struct._ZSt6vectorIdSaIdEE** %..inline.addr.9, align 8, !tbaa !4813, !dbg !6867
	%66 = bitcast %struct._ZSt6vectorIdSaIdEE*  %65 to i8*, !dbg !6867
	%67 = getelementptr i8, i8*  %66, i64 8, !dbg !6867
	%68 = bitcast i8*  %67 to i8**, !dbg !6867
	store i8*  %64, i8**  %68, align 8, !tbaa !4813, !dbg !6867
	ret void, !dbg !6867
}
define linkonce_odr void @_ZNSt6vectorIdSaIdEED1Ev(%struct._ZSt6vectorIdSaIdEE* %_T15361704_54271.arg) #0 inlinehint !dbg !6871 {
L.entry:
	%_T15361704_54271.addr = alloca %struct._ZSt6vectorIdSaIdEE*, align 8
	%..inline.addr = alloca %struct._ZSt12_Vector_baseIdSaIdEE*, align 8
	%..inline.addr.1 = alloca double*, align 8

	call void @llvm.dbg.declare (metadata %struct._ZSt6vectorIdSaIdEE** %_T15361704_54271.addr, metadata !6923, metadata !4805), !dbg !6872
	store %struct._ZSt6vectorIdSaIdEE* %_T15361704_54271.arg, %struct._ZSt6vectorIdSaIdEE** %_T15361704_54271.addr, align 8, !tbaa !4813
	call void @llvm.dbg.declare (metadata %struct._ZSt6vectorIdSaIdEE** %_T15361704_54271.addr, metadata !6924, metadata !4805), !dbg !6872
	%0 = load %struct._ZSt6vectorIdSaIdEE*, %struct._ZSt6vectorIdSaIdEE** %_T15361704_54271.addr, align 8, !tbaa !4813, !dbg !6925
	%1 = bitcast %struct._ZSt6vectorIdSaIdEE*  %0 to i8*, !dbg !6925
	%2 = bitcast %struct._ZSt12_Vector_baseIdSaIdEE** %..inline.addr to i8**, !dbg !6925
	store i8*  %1, i8**  %2, align 8, !tbaa !4813, !dbg !6925
	%3 = load %struct._ZSt12_Vector_baseIdSaIdEE*, %struct._ZSt12_Vector_baseIdSaIdEE** %..inline.addr, align 8, !tbaa !4813, !dbg !6926
	%4 = bitcast %struct._ZSt12_Vector_baseIdSaIdEE*  %3 to i8**, !dbg !6926
	%5 = load i8*, i8**  %4, align 8, !tbaa !4813, !dbg !6926
	%6 = icmp eq i8*  %5,  null, !dbg !6926
	br i1  %6, label %L..inline.80179, label %L.B1865, !dbg !6926
L.B1865:
	%7 = bitcast %struct._ZSt12_Vector_baseIdSaIdEE*  %3 to i8**, !dbg !6926
	%8 = load i8*, i8**  %7, align 8, !tbaa !4813, !dbg !6926
	%9 = bitcast double** %..inline.addr.1 to i8**, !dbg !6926
	store i8*  %8, i8**  %9, align 8, !tbaa !4813, !dbg !6926
	%10 = load double*, double** %..inline.addr.1, align 8, !tbaa !4813, !dbg !6926
	%11 = bitcast double*  %10 to i8*, !dbg !6926
	call void  @_ZdlPv (i8*  %11) nounwind, !dbg !6926
	br label %L..inline.80179
L..inline.80179:
	ret void, !dbg !6925
}
define linkonce_odr void @_ZNSt6vectorIdSaIdEED2Ev(%struct._ZSt6vectorIdSaIdEE* %_T15361704_54272.arg) #0 inlinehint !dbg !6928 {
L.entry:
	%_T15361704_54272.addr = alloca %struct._ZSt6vectorIdSaIdEE*, align 8
	%..inline.addr = alloca %struct._ZSt12_Vector_baseIdSaIdEE*, align 8
	%..inline.addr.1 = alloca double*, align 8

	store %struct._ZSt6vectorIdSaIdEE* %_T15361704_54272.arg, %struct._ZSt6vectorIdSaIdEE** %_T15361704_54272.addr, align 8, !tbaa !4813
	%0 = load %struct._ZSt6vectorIdSaIdEE*, %struct._ZSt6vectorIdSaIdEE** %_T15361704_54272.addr, align 8, !tbaa !4813, !dbg !6984
	%1 = bitcast %struct._ZSt6vectorIdSaIdEE*  %0 to i8*, !dbg !6984
	%2 = bitcast %struct._ZSt12_Vector_baseIdSaIdEE** %..inline.addr to i8**, !dbg !6984
	store i8*  %1, i8**  %2, align 8, !tbaa !4813, !dbg !6984
	%3 = load %struct._ZSt12_Vector_baseIdSaIdEE*, %struct._ZSt12_Vector_baseIdSaIdEE** %..inline.addr, align 8, !tbaa !4813, !dbg !6984
	%4 = bitcast %struct._ZSt12_Vector_baseIdSaIdEE*  %3 to i8**, !dbg !6984
	%5 = load i8*, i8**  %4, align 8, !tbaa !4813, !dbg !6984
	%6 = icmp eq i8*  %5,  null, !dbg !6984
	br i1  %6, label %L..inline.80283, label %L.B1868, !dbg !6984
L.B1868:
	%7 = bitcast %struct._ZSt12_Vector_baseIdSaIdEE*  %3 to i8**, !dbg !6984
	%8 = load i8*, i8**  %7, align 8, !tbaa !4813, !dbg !6984
	%9 = bitcast double** %..inline.addr.1 to i8**, !dbg !6984
	store i8*  %8, i8**  %9, align 8, !tbaa !4813, !dbg !6984
	%10 = load double*, double** %..inline.addr.1, align 8, !tbaa !4813, !dbg !6984
	%11 = bitcast double*  %10 to i8*, !dbg !6984
	call void  @_ZdlPv (i8*  %11) nounwind, !dbg !6984
	br label %L..inline.80283
L..inline.80283:
	ret void, !dbg !6984
}
define linkonce_odr double* @_ZNSt6vectorIdSaIdEEixEm(%struct._ZSt6vectorIdSaIdEE* %_T16174264_54275.arg, i64 %__n.arg) #0 inlinehint !dbg !6988 {
L.entry:
	%_T16174264_54275.addr = alloca %struct._ZSt6vectorIdSaIdEE*, align 8
	%__n.addr = alloca i64, align 8

	call void @llvm.dbg.declare (metadata %struct._ZSt6vectorIdSaIdEE** %_T16174264_54275.addr, metadata !6992, metadata !4805), !dbg !6989
	store %struct._ZSt6vectorIdSaIdEE* %_T16174264_54275.arg, %struct._ZSt6vectorIdSaIdEE** %_T16174264_54275.addr, align 8, !tbaa !4813
	call void @llvm.dbg.declare (metadata %struct._ZSt6vectorIdSaIdEE** %_T16174264_54275.addr, metadata !6993, metadata !4805), !dbg !6989
	call void @llvm.dbg.declare (metadata i64* %__n.addr, metadata !6994, metadata !4805), !dbg !6989
	store i64 %__n.arg, i64* %__n.addr, align 8, !tbaa !4812
	call void @llvm.dbg.declare (metadata i64* %__n.addr, metadata !6995, metadata !4805), !dbg !6989
	%0 = load %struct._ZSt6vectorIdSaIdEE*, %struct._ZSt6vectorIdSaIdEE** %_T16174264_54275.addr, align 8, !tbaa !4813, !dbg !6996
	%1 = bitcast %struct._ZSt6vectorIdSaIdEE*  %0 to i8**, !dbg !6996
	%2 = load i8*, i8**  %1, align 8, !tbaa !4813, !dbg !6996
	%3 = load i64, i64* %__n.addr, align 8, !tbaa !5343, !dbg !6996
	%4 = mul i64  %3, 8, !dbg !6996
	%5 = getelementptr i8, i8*  %2, i64  %4, !dbg !6996
	%6 = bitcast i8*  %5 to double*, !dbg !6996
	ret double*  %6, !dbg !6996
}
define linkonce_odr void @_ZNSt6vectorIdSaIdEE18_M_fill_initializeEmRKd(%struct._ZSt6vectorIdSaIdEE* %_T16174264_54277.arg, i64 %__n.arg, double* %__value.arg) #0 inlinehint !dbg !7001 {
L.entry:
	%_T16174264_54277.addr = alloca %struct._ZSt6vectorIdSaIdEE*, align 8
	%__n.addr = alloca i64, align 8
	%__value.addr = alloca double*, align 8
	%..inline.addr = alloca double*, align 8
	%..inline.addr.1 = alloca double, align 8
	%..inline.addr.2 = alloca i64, align 8
	%.ivp0002.addr = alloca i8*, align 8
	%.ndk0014.addr = alloca i64, align 8
	%.ndk0015.addr = alloca i64, align 8
	%.vv0003.addr = alloca i8*, align 8
	%.r88.0109.addr = alloca <4 x double>, align 8

	call void @llvm.dbg.declare (metadata %struct._ZSt6vectorIdSaIdEE** %_T16174264_54277.addr, metadata !7041, metadata !4805), !dbg !7002
	store %struct._ZSt6vectorIdSaIdEE* %_T16174264_54277.arg, %struct._ZSt6vectorIdSaIdEE** %_T16174264_54277.addr, align 8, !tbaa !4813
	call void @llvm.dbg.declare (metadata %struct._ZSt6vectorIdSaIdEE** %_T16174264_54277.addr, metadata !7042, metadata !4805), !dbg !7002
	call void @llvm.dbg.declare (metadata i64* %__n.addr, metadata !7043, metadata !4805), !dbg !7002
	store i64 %__n.arg, i64* %__n.addr, align 8, !tbaa !4812
	call void @llvm.dbg.declare (metadata i64* %__n.addr, metadata !7044, metadata !4805), !dbg !7002
	call void @llvm.dbg.declare (metadata double** %__value.addr, metadata !7045, metadata !4805), !dbg !7002
	store double* %__value.arg, double** %__value.addr, align 8, !tbaa !4813
	call void @llvm.dbg.declare (metadata double** %__value.addr, metadata !7046, metadata !4805), !dbg !7002
	%0 = load %struct._ZSt6vectorIdSaIdEE*, %struct._ZSt6vectorIdSaIdEE** %_T16174264_54277.addr, align 8, !tbaa !4813, !dbg !7047
	%1 = bitcast %struct._ZSt6vectorIdSaIdEE*  %0 to i8**, !dbg !7047
	%2 = load i8*, i8**  %1, align 8, !tbaa !4813, !dbg !7047
	%3 = bitcast double** %..inline.addr to i8**, !dbg !7047
	store i8*  %2, i8**  %3, align 8, !tbaa !4813, !dbg !7047
	%4 = load double*, double** %__value.addr, align 8, !tbaa !4813, !dbg !7047
	%5 = load double, double*  %4, align 8, !tbaa !4812, !dbg !7047
	store double  %5, double* %..inline.addr.1, align 8, !tbaa !5982, !dbg !7047
	%6 = load i64, i64* %__n.addr, align 8, !tbaa !5343, !dbg !7047
	%7 = icmp eq i64  %6, 0, !dbg !7047
	br i1  %7, label %L..inline.80400, label %L.B1878, !dbg !7047
L.B1878:
	%8 = load double*, double** %..inline.addr, align 8, !tbaa !4813, !dbg !7047
	%9 = bitcast double*  %8 to i8*, !dbg !7047
	store i8*  %9, i8** %.ivp0002.addr, align 8, !tbaa !4813, !dbg !7047
	%10 = mul i64  %6, 8, !dbg !7047
	%11 = getelementptr i8, i8*  %9, i64  %10, !dbg !7047
	%12 = bitcast double** %..inline.addr to i8**, !dbg !7047
	store i8*  %11, i8**  %12, align 8, !tbaa !4813, !dbg !7047
	store i64 0, i64* %.ndk0014.addr, align 8, !tbaa !5984, !dbg !7047
	store i64  %6, i64* %.ndk0015.addr, align 8, !tbaa !5984, !dbg !7047
	%13 = icmp slt i64  %6, 4, !dbg !7047
	br i1  %13, label %L.B1875, label %L.B1879, !dbg !7047
L.B1879:
	store i8*  %9, i8** %.vv0003.addr, align 8, !tbaa !4813, !dbg !7047
	%14 = sub i64  %6, 3, !dbg !7047
	store i64  %14, i64* %.ndk0015.addr, align 8, !tbaa !5984, !dbg !7047
	%15 = insertelement <4 x double> undef, double  %5, i32 0, !dbg !7047
	%16 = shufflevector <4 x double>  %15, <4 x double> undef, <4 x i32> <i32 0, i32 0, i32 0, i32 0>, !dbg !7047
	store <4 x double>  %16, <4 x double>* %.r88.0109.addr, align 1, !tbaa !4812, !dbg !7047
	br label %L.B1876
L.B1876:
	%17 = load <4 x double>, <4 x double>* %.r88.0109.addr, align 8, !tbaa !4812, !dbg !7047
	%18 = load i8*, i8** %.vv0003.addr, align 8, !tbaa !4813, !dbg !7047
	%19 = bitcast i8*  %18 to <4 x double>*, !dbg !7047
	store <4 x double>  %17, <4 x double>*  %19, align 1, !tbaa !4812, !dbg !7047
	%20 = getelementptr i8, i8*  %18, i64 32, !dbg !7047
	store i8*  %20, i8** %.vv0003.addr, align 8, !tbaa !4813, !dbg !7047
	%21 = load i64, i64* %.ndk0015.addr, align 8, !tbaa !5984, !dbg !7047
	%22 = sub i64  %21, 4, !dbg !7047
	store i64  %22, i64* %.ndk0015.addr, align 8, !tbaa !5984, !dbg !7047
	%23 = icmp sgt i64  %22, 0, !dbg !7047
	br i1  %23, label %L.B1876, label %L.B1880, !dbg !7047
L.B1880:
	%24 = load i64, i64* %.ndk0015.addr, align 8, !tbaa !5984, !dbg !7047
	%25 = add i64  %24, 3, !dbg !7047
	store i64  %25, i64* %.ndk0015.addr, align 8, !tbaa !5984, !dbg !7047
	%26 = icmp eq i64  %25, 0, !dbg !7047
	br i1  %26, label %L.B1877, label %L.B1881, !dbg !7047
L.B1881:
	%27 = load i64, i64* %__n.addr, align 8, !tbaa !5343, !dbg !7047
	%28 = and i64  %27, -4, !dbg !7047
	store i64  %28, i64* %.ndk0014.addr, align 8, !tbaa !5984, !dbg !7047
	br label %L.B1875
L.B1875:
	%29 = load double, double* %..inline.addr.1, align 8, !tbaa !5982, !dbg !7047
	%30 = load i64, i64* %.ndk0014.addr, align 8, !tbaa !5984, !dbg !7047
	%31 = load i8*, i8** %.ivp0002.addr, align 8, !tbaa !4813, !dbg !7047
	%32 = bitcast i8*  %31 to double*, !dbg !7047
	%33 = getelementptr double, double*  %32, i64  %30, !dbg !7047
	store double  %29, double*  %33, align 8, !tbaa !4812, !dbg !7047
	%34 = add i64  %30, 1, !dbg !7047
	store i64  %34, i64* %.ndk0014.addr, align 8, !tbaa !5984, !dbg !7047
	%35 = load i64, i64* %.ndk0015.addr, align 8, !tbaa !5984, !dbg !7047
	%36 = sub i64  %35, 1, !dbg !7047
	store i64  %36, i64* %.ndk0015.addr, align 8, !tbaa !5984, !dbg !7047
	%37 = icmp sgt i64  %36, 0, !dbg !7047
	br i1  %37, label %L.B1875, label %L.B1877, !llvm.loop !5977, !dbg !7047
L.B1877:
	br label %L..inline.80400
L..inline.80400:
	%38 = load double*, double** %..inline.addr, align 8, !tbaa !4813, !dbg !7047
	%39 = bitcast double*  %38 to i8*, !dbg !7047
	%40 = load %struct._ZSt6vectorIdSaIdEE*, %struct._ZSt6vectorIdSaIdEE** %_T16174264_54277.addr, align 8, !tbaa !4813, !dbg !7047
	%41 = bitcast %struct._ZSt6vectorIdSaIdEE*  %40 to i8*, !dbg !7047
	%42 = getelementptr i8, i8*  %41, i64 8, !dbg !7047
	%43 = bitcast i8*  %42 to i8**, !dbg !7047
	store i8*  %39, i8**  %43, align 8, !tbaa !4813, !dbg !7047
	ret void, !dbg !7048
}
define linkonce_odr i64 @_ZNSt6vectorIdSaIdEE17_S_check_init_lenEmRKS0_(i64 %__n.arg, %struct._ZSaIdE* %__a.arg) #0 inlinehint !dbg !7052 {
L.entry:
	%__n.addr = alloca i64, align 8
	%__a.addr = alloca %struct._ZSaIdE*, align 8
	%_T16175448_54280.addr = alloca %struct._ZSaIdE, align 1

	call void @llvm.dbg.declare (metadata i64* %__n.addr, metadata !7056, metadata !4805), !dbg !7053
	store i64 %__n.arg, i64* %__n.addr, align 8, !tbaa !4812
	call void @llvm.dbg.declare (metadata i64* %__n.addr, metadata !7057, metadata !4805), !dbg !7053
	call void @llvm.dbg.declare (metadata %struct._ZSaIdE** %__a.addr, metadata !7058, metadata !4805), !dbg !7053
	store %struct._ZSaIdE* %__a.arg, %struct._ZSaIdE** %__a.addr, align 8, !tbaa !4813
	call void @llvm.dbg.declare (metadata %struct._ZSaIdE** %__a.addr, metadata !7059, metadata !4805), !dbg !7053
	%0 = load i64, i64* %__n.addr, align 8, !tbaa !5343, !dbg !7060
	%1 = call i64  @_ZNSt6vectorIdSaIdEE11_S_max_sizeERKS0_ (%struct._ZSaIdE* %_T16175448_54280.addr) nounwind, !dbg !7060
	%2 = icmp ule i64  %0,  %1, !dbg !7060
	br i1  %2, label %L.B0023, label %L.B1882, !dbg !7060
L.B1882:
	%3 = bitcast [49 x i8]* @.S56459 to i8*, !dbg !7061
	call void  @_ZSt20__throw_length_errorPKc (i8*  %3) noreturn, !dbg !7061
	br label %L.B0023
L.B0023:
	%4 = load i64, i64* %__n.addr, align 8, !tbaa !5343, !dbg !7062
	ret i64  %4, !dbg !7062
}
define linkonce_odr i64 @_ZNSt6vectorIdSaIdEE11_S_max_sizeERKS0_(%struct._ZSaIdE* %__a.arg) #0 inlinehint personality i8* bitcast (i32 (...)* @__gxx_personality_v0 to i8*) !dbg !7071 {
L.entry:
	%__a.addr = alloca %struct._ZSaIdE*, align 8

	call void @llvm.dbg.declare (metadata %struct._ZSaIdE** %__a.addr, metadata !7087, metadata !4805), !dbg !7072
	store %struct._ZSaIdE* %__a.arg, %struct._ZSaIdE** %__a.addr, align 8, !tbaa !4813
	call void @llvm.dbg.declare (metadata %struct._ZSaIdE** %__a.addr, metadata !7088, metadata !4805), !dbg !7072
	ret i64 1152921504606846975, !dbg !7089
L.B1887:
	br label %L.R0089, !dbg !7089
L_T16176040_54282:
	%0 = landingpad %astruct.dt64
	cleanup
	br label %L.R0089
L.R0089:
	ret i64 0
}

%struct._ZSaIN5vmesh14MeshParametersEE = type <{ [1 x i8]}> 

define linkonce_odr void @_ZNSaIN5vmesh14MeshParametersEED1Ev(%struct._ZSaIN5vmesh14MeshParametersEE* %_T15361704_54283.arg) #0 inlinehint !dbg !7095 {
L.entry:
	%_T15361704_54283.addr = alloca %struct._ZSaIN5vmesh14MeshParametersEE*, align 8

	call void @llvm.dbg.declare (metadata %struct._ZSaIN5vmesh14MeshParametersEE** %_T15361704_54283.addr, metadata !7099, metadata !4805), !dbg !7096
	store %struct._ZSaIN5vmesh14MeshParametersEE* %_T15361704_54283.arg, %struct._ZSaIN5vmesh14MeshParametersEE** %_T15361704_54283.addr, align 8, !tbaa !4813
	call void @llvm.dbg.declare (metadata %struct._ZSaIN5vmesh14MeshParametersEE** %_T15361704_54283.addr, metadata !7100, metadata !4805), !dbg !7096
	ret void, !dbg !7101
}
define linkonce_odr void @_ZNSaIN5vmesh14MeshParametersEED2Ev(%struct._ZSaIN5vmesh14MeshParametersEE* %_T15361704_54284.arg) #0 inlinehint !dbg !7103 {
L.entry:
	%_T15361704_54284.addr = alloca %struct._ZSaIN5vmesh14MeshParametersEE*, align 8

	store %struct._ZSaIN5vmesh14MeshParametersEE* %_T15361704_54284.arg, %struct._ZSaIN5vmesh14MeshParametersEE** %_T15361704_54284.addr, align 8, !tbaa !4813
	ret void, !dbg !7111
}

%struct._ZNSt7__cxx1112basic_stringIcSt11char_traitsIcESaIcEEE = type <{ %struct._ZNSt7__cxx1112basic_stringIcSt11char_traitsIcESaIcEE12_Alloc_hiderE, i64, %union.__C6}> 
%union.__C6 = type <{ [16 x i8]}> 
%struct._ZN5vmesh14MeshParametersE = type <{ %struct._ZNSt7__cxx1112basic_stringIcSt11char_traitsIcESaIcEEE, i32, [4 x i8], [6 x double], [3 x i32], [3 x i32], i8, i8, [6 x i8], [3 x double], [3 x double], [3 x double], [3 x double], [3 x double], %struct._ZSt6vectorIjSaIjEE, %struct._ZSt6vectorIdSaIdEE, %struct._ZSt6vectorIdSaIdEE, %struct._ZSt6vectorIjSaIjEE}> 
%struct._ZNSt7__cxx1112basic_stringIcSt11char_traitsIcESaIcEE12_Alloc_hiderE = type <{ i8*}> 

define linkonce_odr void @_ZNSt16allocator_traitsISaIN5vmesh14MeshParametersEEE10deallocateERS2_PS1_m(%struct._ZSaIN5vmesh14MeshParametersEE* %__a.arg, %struct._ZN5vmesh14MeshParametersE* %__p.arg, i64 %__n.arg) #0 inlinehint !dbg !7119 {
L.entry:
	%__a.addr = alloca %struct._ZSaIN5vmesh14MeshParametersEE*, align 8
	%__p.addr = alloca %struct._ZN5vmesh14MeshParametersE*, align 8
	%__n.addr = alloca i64, align 8
	%..inline.addr = alloca %struct._ZN5vmesh14MeshParametersE*, align 8

	call void @llvm.dbg.declare (metadata %struct._ZSaIN5vmesh14MeshParametersEE** %__a.addr, metadata !7127, metadata !4805), !dbg !7120
	store %struct._ZSaIN5vmesh14MeshParametersEE* %__a.arg, %struct._ZSaIN5vmesh14MeshParametersEE** %__a.addr, align 8, !tbaa !4813
	call void @llvm.dbg.declare (metadata %struct._ZSaIN5vmesh14MeshParametersEE** %__a.addr, metadata !7128, metadata !4805), !dbg !7120
	call void @llvm.dbg.declare (metadata %struct._ZN5vmesh14MeshParametersE** %__p.addr, metadata !7129, metadata !4805), !dbg !7120
	store %struct._ZN5vmesh14MeshParametersE* %__p.arg, %struct._ZN5vmesh14MeshParametersE** %__p.addr, align 8, !tbaa !4813
	call void @llvm.dbg.declare (metadata %struct._ZN5vmesh14MeshParametersE** %__p.addr, metadata !7130, metadata !4805), !dbg !7120
	call void @llvm.dbg.declare (metadata i64* %__n.addr, metadata !7131, metadata !4805), !dbg !7120
	store i64 %__n.arg, i64* %__n.addr, align 8, !tbaa !4812
	call void @llvm.dbg.declare (metadata i64* %__n.addr, metadata !7132, metadata !4805), !dbg !7120
	%0 = load %struct._ZN5vmesh14MeshParametersE*, %struct._ZN5vmesh14MeshParametersE** %__p.addr, align 8, !tbaa !4813, !dbg !7133
	%1 = bitcast %struct._ZN5vmesh14MeshParametersE*  %0 to i8*, !dbg !7133
	%2 = bitcast %struct._ZN5vmesh14MeshParametersE** %..inline.addr to i8**, !dbg !7133
	store i8*  %1, i8**  %2, align 8, !tbaa !4813, !dbg !7133
	%3 = load %struct._ZN5vmesh14MeshParametersE*, %struct._ZN5vmesh14MeshParametersE** %..inline.addr, align 8, !tbaa !4813, !dbg !7134
	%4 = bitcast %struct._ZN5vmesh14MeshParametersE*  %3 to i8*, !dbg !7134
	call void  @_ZdlPv (i8*  %4) nounwind, !dbg !7134
	ret void, !dbg !7133
}

%struct._ZSt12_Vector_baseIN5vmesh14MeshParametersESaIS1_EE = type <{ %struct._ZNSt12_Vector_baseIN5vmesh14MeshParametersESaIS1_EE12_Vector_implE}> 
%struct._ZNSt12_Vector_baseIN5vmesh14MeshParametersESaIS1_EE17_Vector_impl_dataE = type <{ %struct._ZN5vmesh14MeshParametersE*, %struct._ZN5vmesh14MeshParametersE*, %struct._ZN5vmesh14MeshParametersE*}> 
%struct._ZNSt12_Vector_baseIN5vmesh14MeshParametersESaIS1_EE12_Vector_implE = type <{ %struct._ZNSt12_Vector_baseIN5vmesh14MeshParametersESaIS1_EE17_Vector_impl_dataE}> 

define linkonce_odr %struct._ZSaIN5vmesh14MeshParametersEE* @_ZNSt12_Vector_baseIN5vmesh14MeshParametersESaIS1_EE19_M_get_Tp_allocatorEv(%struct._ZSt12_Vector_baseIN5vmesh14MeshParametersESaIS1_EE* %_T15361704_54290.arg) #0 inlinehint !dbg !7140 {
L.entry:
	%_T15361704_54290.addr = alloca %struct._ZSt12_Vector_baseIN5vmesh14MeshParametersESaIS1_EE*, align 8

	call void @llvm.dbg.declare (metadata %struct._ZSt12_Vector_baseIN5vmesh14MeshParametersESaIS1_EE** %_T15361704_54290.addr, metadata !7144, metadata !4805), !dbg !7141
	store %struct._ZSt12_Vector_baseIN5vmesh14MeshParametersESaIS1_EE* %_T15361704_54290.arg, %struct._ZSt12_Vector_baseIN5vmesh14MeshParametersESaIS1_EE** %_T15361704_54290.addr, align 8, !tbaa !4813
	call void @llvm.dbg.declare (metadata %struct._ZSt12_Vector_baseIN5vmesh14MeshParametersESaIS1_EE** %_T15361704_54290.addr, metadata !7145, metadata !4805), !dbg !7141
	%0 = load %struct._ZSt12_Vector_baseIN5vmesh14MeshParametersESaIS1_EE*, %struct._ZSt12_Vector_baseIN5vmesh14MeshParametersESaIS1_EE** %_T15361704_54290.addr, align 8, !tbaa !4813, !dbg !7146
	%1 = bitcast %struct._ZSt12_Vector_baseIN5vmesh14MeshParametersESaIS1_EE*  %0 to %struct._ZSaIN5vmesh14MeshParametersEE*, !dbg !7146
	ret %struct._ZSaIN5vmesh14MeshParametersEE*  %1, !dbg !7146
}
define linkonce_odr void @_ZNSt12_Vector_baseIN5vmesh14MeshParametersESaIS1_EEC1Ev(%struct._ZSt12_Vector_baseIN5vmesh14MeshParametersESaIS1_EE* %_T15361704_54291.arg) #0 inlinehint !dbg !7150 {
L.entry:
	%_T15361704_54291.addr = alloca %struct._ZSt12_Vector_baseIN5vmesh14MeshParametersESaIS1_EE*, align 8
	%..inline.addr = alloca %struct._ZNSt12_Vector_baseIN5vmesh14MeshParametersESaIS1_EE17_Vector_impl_dataE*, align 8

	call void @llvm.dbg.declare (metadata %struct._ZSt12_Vector_baseIN5vmesh14MeshParametersESaIS1_EE** %_T15361704_54291.addr, metadata !7166, metadata !4805), !dbg !7151
	store %struct._ZSt12_Vector_baseIN5vmesh14MeshParametersESaIS1_EE* %_T15361704_54291.arg, %struct._ZSt12_Vector_baseIN5vmesh14MeshParametersESaIS1_EE** %_T15361704_54291.addr, align 8, !tbaa !4813
	call void @llvm.dbg.declare (metadata %struct._ZSt12_Vector_baseIN5vmesh14MeshParametersESaIS1_EE** %_T15361704_54291.addr, metadata !7167, metadata !4805), !dbg !7151
	%0 = load %struct._ZSt12_Vector_baseIN5vmesh14MeshParametersESaIS1_EE*, %struct._ZSt12_Vector_baseIN5vmesh14MeshParametersESaIS1_EE** %_T15361704_54291.addr, align 8, !tbaa !4813, !dbg !7168
	%1 = bitcast %struct._ZSt12_Vector_baseIN5vmesh14MeshParametersESaIS1_EE*  %0 to i8*, !dbg !7168
	%2 = bitcast %struct._ZNSt12_Vector_baseIN5vmesh14MeshParametersESaIS1_EE17_Vector_impl_dataE** %..inline.addr to i8**, !dbg !7168
	store i8*  %1, i8**  %2, align 8, !tbaa !4813, !dbg !7168
	%3 = load %struct._ZNSt12_Vector_baseIN5vmesh14MeshParametersESaIS1_EE17_Vector_impl_dataE*, %struct._ZNSt12_Vector_baseIN5vmesh14MeshParametersESaIS1_EE17_Vector_impl_dataE** %..inline.addr, align 8, !tbaa !4813, !dbg !7168
	%4 = bitcast %struct._ZNSt12_Vector_baseIN5vmesh14MeshParametersESaIS1_EE17_Vector_impl_dataE*  %3 to i8**, !dbg !7168
	store i8* null, i8**  %4, align 8, !tbaa !4813, !dbg !7168
	%5 = bitcast %struct._ZNSt12_Vector_baseIN5vmesh14MeshParametersESaIS1_EE17_Vector_impl_dataE*  %3 to i8*, !dbg !7168
	%6 = getelementptr i8, i8*  %5, i64 8, !dbg !7168
	%7 = bitcast i8*  %6 to i8**, !dbg !7168
	store i8* null, i8**  %7, align 8, !tbaa !4813, !dbg !7168
	%8 = getelementptr i8, i8*  %5, i64 16, !dbg !7168
	%9 = bitcast i8*  %8 to i8**, !dbg !7168
	store i8* null, i8**  %9, align 8, !tbaa !4813, !dbg !7168
	ret void, !dbg !7168
}
define linkonce_odr void @_ZNSt12_Vector_baseIN5vmesh14MeshParametersESaIS1_EEC2Ev(%struct._ZSt12_Vector_baseIN5vmesh14MeshParametersESaIS1_EE* %_T15361704_54292.arg) #0 inlinehint !dbg !7170 {
L.entry:
	%_T15361704_54292.addr = alloca %struct._ZSt12_Vector_baseIN5vmesh14MeshParametersESaIS1_EE*, align 8
	%..inline.addr = alloca %struct._ZNSt12_Vector_baseIN5vmesh14MeshParametersESaIS1_EE17_Vector_impl_dataE*, align 8

	store %struct._ZSt12_Vector_baseIN5vmesh14MeshParametersESaIS1_EE* %_T15361704_54292.arg, %struct._ZSt12_Vector_baseIN5vmesh14MeshParametersESaIS1_EE** %_T15361704_54292.addr, align 8, !tbaa !4813
	%0 = load %struct._ZSt12_Vector_baseIN5vmesh14MeshParametersESaIS1_EE*, %struct._ZSt12_Vector_baseIN5vmesh14MeshParametersESaIS1_EE** %_T15361704_54292.addr, align 8, !tbaa !4813, !dbg !7190
	%1 = bitcast %struct._ZSt12_Vector_baseIN5vmesh14MeshParametersESaIS1_EE*  %0 to i8*, !dbg !7190
	%2 = bitcast %struct._ZNSt12_Vector_baseIN5vmesh14MeshParametersESaIS1_EE17_Vector_impl_dataE** %..inline.addr to i8**, !dbg !7190
	store i8*  %1, i8**  %2, align 8, !tbaa !4813, !dbg !7190
	%3 = load %struct._ZNSt12_Vector_baseIN5vmesh14MeshParametersESaIS1_EE17_Vector_impl_dataE*, %struct._ZNSt12_Vector_baseIN5vmesh14MeshParametersESaIS1_EE17_Vector_impl_dataE** %..inline.addr, align 8, !tbaa !4813, !dbg !7190
	%4 = bitcast %struct._ZNSt12_Vector_baseIN5vmesh14MeshParametersESaIS1_EE17_Vector_impl_dataE*  %3 to i8**, !dbg !7190
	store i8* null, i8**  %4, align 8, !tbaa !4813, !dbg !7190
	%5 = bitcast %struct._ZNSt12_Vector_baseIN5vmesh14MeshParametersESaIS1_EE17_Vector_impl_dataE*  %3 to i8*, !dbg !7190
	%6 = getelementptr i8, i8*  %5, i64 8, !dbg !7190
	%7 = bitcast i8*  %6 to i8**, !dbg !7190
	store i8* null, i8**  %7, align 8, !tbaa !4813, !dbg !7190
	%8 = getelementptr i8, i8*  %5, i64 16, !dbg !7190
	%9 = bitcast i8*  %8 to i8**, !dbg !7190
	store i8* null, i8**  %9, align 8, !tbaa !4813, !dbg !7190
	ret void, !dbg !7190
}
define linkonce_odr void @_ZNSt12_Vector_baseIN5vmesh14MeshParametersESaIS1_EED1Ev(%struct._ZSt12_Vector_baseIN5vmesh14MeshParametersESaIS1_EE* %_T15361704_54293.arg) #0 inlinehint !dbg !7192 {
L.entry:
	%_T15361704_54293.addr = alloca %struct._ZSt12_Vector_baseIN5vmesh14MeshParametersESaIS1_EE*, align 8
	%..inline.addr = alloca %struct._ZN5vmesh14MeshParametersE*, align 8

	call void @llvm.dbg.declare (metadata %struct._ZSt12_Vector_baseIN5vmesh14MeshParametersESaIS1_EE** %_T15361704_54293.addr, metadata !7220, metadata !4805), !dbg !7193
	store %struct._ZSt12_Vector_baseIN5vmesh14MeshParametersESaIS1_EE* %_T15361704_54293.arg, %struct._ZSt12_Vector_baseIN5vmesh14MeshParametersESaIS1_EE** %_T15361704_54293.addr, align 8, !tbaa !4813
	call void @llvm.dbg.declare (metadata %struct._ZSt12_Vector_baseIN5vmesh14MeshParametersESaIS1_EE** %_T15361704_54293.addr, metadata !7221, metadata !4805), !dbg !7193
	%0 = load %struct._ZSt12_Vector_baseIN5vmesh14MeshParametersESaIS1_EE*, %struct._ZSt12_Vector_baseIN5vmesh14MeshParametersESaIS1_EE** %_T15361704_54293.addr, align 8, !tbaa !4813, !dbg !7222
	%1 = bitcast %struct._ZSt12_Vector_baseIN5vmesh14MeshParametersESaIS1_EE*  %0 to i8**, !dbg !7222
	%2 = load i8*, i8**  %1, align 8, !tbaa !4813, !dbg !7222
	%3 = icmp eq i8*  %2,  null, !dbg !7222
	br i1  %3, label %L..inline.80628, label %L.B1900, !dbg !7222
L.B1900:
	%4 = bitcast %struct._ZSt12_Vector_baseIN5vmesh14MeshParametersESaIS1_EE*  %0 to i8**, !dbg !7223
	%5 = load i8*, i8**  %4, align 8, !tbaa !4813, !dbg !7223
	%6 = bitcast %struct._ZN5vmesh14MeshParametersE** %..inline.addr to i8**, !dbg !7223
	store i8*  %5, i8**  %6, align 8, !tbaa !4813, !dbg !7223
	%7 = load %struct._ZN5vmesh14MeshParametersE*, %struct._ZN5vmesh14MeshParametersE** %..inline.addr, align 8, !tbaa !4813, !dbg !7223
	%8 = bitcast %struct._ZN5vmesh14MeshParametersE*  %7 to i8*, !dbg !7223
	call void  @_ZdlPv (i8*  %8) nounwind, !dbg !7223
	br label %L..inline.80628
L..inline.80628:
	ret void, !dbg !7224
}
define linkonce_odr void @_ZNSt12_Vector_baseIN5vmesh14MeshParametersESaIS1_EED2Ev(%struct._ZSt12_Vector_baseIN5vmesh14MeshParametersESaIS1_EE* %_T15361704_54294.arg) #0 inlinehint !dbg !7226 {
L.entry:
	%_T15361704_54294.addr = alloca %struct._ZSt12_Vector_baseIN5vmesh14MeshParametersESaIS1_EE*, align 8
	%..inline.addr = alloca %struct._ZSt12_Vector_baseIN5vmesh14MeshParametersESaIS1_EE*, align 8
	%..inline.addr.1 = alloca %struct._ZN5vmesh14MeshParametersE*, align 8

	store %struct._ZSt12_Vector_baseIN5vmesh14MeshParametersESaIS1_EE* %_T15361704_54294.arg, %struct._ZSt12_Vector_baseIN5vmesh14MeshParametersESaIS1_EE** %_T15361704_54294.addr, align 8, !tbaa !4813
	%0 = load %struct._ZSt12_Vector_baseIN5vmesh14MeshParametersESaIS1_EE*, %struct._ZSt12_Vector_baseIN5vmesh14MeshParametersESaIS1_EE** %_T15361704_54294.addr, align 8, !tbaa !4813, !dbg !7258
	%1 = bitcast %struct._ZSt12_Vector_baseIN5vmesh14MeshParametersESaIS1_EE*  %0 to i8*, !dbg !7258
	%2 = bitcast %struct._ZSt12_Vector_baseIN5vmesh14MeshParametersESaIS1_EE** %..inline.addr to i8**, !dbg !7258
	store i8*  %1, i8**  %2, align 8, !tbaa !4813, !dbg !7258
	%3 = load %struct._ZSt12_Vector_baseIN5vmesh14MeshParametersESaIS1_EE*, %struct._ZSt12_Vector_baseIN5vmesh14MeshParametersESaIS1_EE** %..inline.addr, align 8, !tbaa !4813, !dbg !7258
	%4 = bitcast %struct._ZSt12_Vector_baseIN5vmesh14MeshParametersESaIS1_EE*  %3 to i8**, !dbg !7258
	%5 = load i8*, i8**  %4, align 8, !tbaa !4813, !dbg !7258
	%6 = icmp eq i8*  %5,  null, !dbg !7258
	br i1  %6, label %L..inline.80691, label %L.B1903, !dbg !7258
L.B1903:
	%7 = bitcast %struct._ZSt12_Vector_baseIN5vmesh14MeshParametersESaIS1_EE*  %3 to i8**, !dbg !7258
	%8 = load i8*, i8**  %7, align 8, !tbaa !4813, !dbg !7258
	%9 = bitcast %struct._ZN5vmesh14MeshParametersE** %..inline.addr.1 to i8**, !dbg !7258
	store i8*  %8, i8**  %9, align 8, !tbaa !4813, !dbg !7258
	%10 = load %struct._ZN5vmesh14MeshParametersE*, %struct._ZN5vmesh14MeshParametersE** %..inline.addr.1, align 8, !tbaa !4813, !dbg !7258
	%11 = bitcast %struct._ZN5vmesh14MeshParametersE*  %10 to i8*, !dbg !7258
	call void  @_ZdlPv (i8*  %11) nounwind, !dbg !7258
	br label %L..inline.80691
L..inline.80691:
	ret void, !dbg !7259
}
define linkonce_odr void @_ZNSt12_Vector_baseIN5vmesh14MeshParametersESaIS1_EE13_M_deallocateEPS1_m(%struct._ZSt12_Vector_baseIN5vmesh14MeshParametersESaIS1_EE* %_T16174264_54297.arg, %struct._ZN5vmesh14MeshParametersE* %__p.arg, i64 %__n.arg) #0 inlinehint !dbg !7263 {
L.entry:
	%_T16174264_54297.addr = alloca %struct._ZSt12_Vector_baseIN5vmesh14MeshParametersESaIS1_EE*, align 8
	%__p.addr = alloca %struct._ZN5vmesh14MeshParametersE*, align 8
	%__n.addr = alloca i64, align 8
	%..inline.addr = alloca %struct._ZN5vmesh14MeshParametersE*, align 8

	call void @llvm.dbg.declare (metadata %struct._ZSt12_Vector_baseIN5vmesh14MeshParametersESaIS1_EE** %_T16174264_54297.addr, metadata !7275, metadata !4805), !dbg !7264
	store %struct._ZSt12_Vector_baseIN5vmesh14MeshParametersESaIS1_EE* %_T16174264_54297.arg, %struct._ZSt12_Vector_baseIN5vmesh14MeshParametersESaIS1_EE** %_T16174264_54297.addr, align 8, !tbaa !4813
	call void @llvm.dbg.declare (metadata %struct._ZSt12_Vector_baseIN5vmesh14MeshParametersESaIS1_EE** %_T16174264_54297.addr, metadata !7276, metadata !4805), !dbg !7264
	call void @llvm.dbg.declare (metadata %struct._ZN5vmesh14MeshParametersE** %__p.addr, metadata !7277, metadata !4805), !dbg !7264
	store %struct._ZN5vmesh14MeshParametersE* %__p.arg, %struct._ZN5vmesh14MeshParametersE** %__p.addr, align 8, !tbaa !4813
	call void @llvm.dbg.declare (metadata %struct._ZN5vmesh14MeshParametersE** %__p.addr, metadata !7278, metadata !4805), !dbg !7264
	call void @llvm.dbg.declare (metadata i64* %__n.addr, metadata !7279, metadata !4805), !dbg !7264
	store i64 %__n.arg, i64* %__n.addr, align 8, !tbaa !4812
	call void @llvm.dbg.declare (metadata i64* %__n.addr, metadata !7280, metadata !4805), !dbg !7264
	%0 = load %struct._ZN5vmesh14MeshParametersE*, %struct._ZN5vmesh14MeshParametersE** %__p.addr, align 8, !tbaa !4813, !dbg !7281
	%1 = bitcast %struct._ZN5vmesh14MeshParametersE*  %0 to i8*, !dbg !7281
	%2 = icmp eq i8*  %1,  null, !dbg !7281
	br i1  %2, label %L.B0024, label %L.B1906, !dbg !7281
L.B1906:
	%3 = bitcast %struct._ZN5vmesh14MeshParametersE*  %0 to i8*, !dbg !7282
	%4 = bitcast %struct._ZN5vmesh14MeshParametersE** %..inline.addr to i8**, !dbg !7282
	store i8*  %3, i8**  %4, align 8, !tbaa !4813, !dbg !7282
	%5 = load %struct._ZN5vmesh14MeshParametersE*, %struct._ZN5vmesh14MeshParametersE** %..inline.addr, align 8, !tbaa !4813, !dbg !7282
	%6 = bitcast %struct._ZN5vmesh14MeshParametersE*  %5 to i8*, !dbg !7282
	call void  @_ZdlPv (i8*  %6) nounwind, !dbg !7282
	br label %L.B0024
L.B0024:
	ret void, !dbg !7283
}
define linkonce_odr void @_ZNSt12_Vector_baseIN5vmesh14MeshParametersESaIS1_EE17_Vector_impl_dataC1Ev(%struct._ZNSt12_Vector_baseIN5vmesh14MeshParametersESaIS1_EE17_Vector_impl_dataE* %_T15361704_54298.arg) #0 inlinehint !dbg !7288 {
L.entry:
	%_T15361704_54298.addr = alloca %struct._ZNSt12_Vector_baseIN5vmesh14MeshParametersESaIS1_EE17_Vector_impl_dataE*, align 8

	call void @llvm.dbg.declare (metadata %struct._ZNSt12_Vector_baseIN5vmesh14MeshParametersESaIS1_EE17_Vector_impl_dataE** %_T15361704_54298.addr, metadata !7292, metadata !4805), !dbg !7289
	store %struct._ZNSt12_Vector_baseIN5vmesh14MeshParametersESaIS1_EE17_Vector_impl_dataE* %_T15361704_54298.arg, %struct._ZNSt12_Vector_baseIN5vmesh14MeshParametersESaIS1_EE17_Vector_impl_dataE** %_T15361704_54298.addr, align 8, !tbaa !4813
	call void @llvm.dbg.declare (metadata %struct._ZNSt12_Vector_baseIN5vmesh14MeshParametersESaIS1_EE17_Vector_impl_dataE** %_T15361704_54298.addr, metadata !7293, metadata !4805), !dbg !7289
	%0 = load %struct._ZNSt12_Vector_baseIN5vmesh14MeshParametersESaIS1_EE17_Vector_impl_dataE*, %struct._ZNSt12_Vector_baseIN5vmesh14MeshParametersESaIS1_EE17_Vector_impl_dataE** %_T15361704_54298.addr, align 8, !tbaa !4813, !dbg !7294
	%1 = bitcast %struct._ZNSt12_Vector_baseIN5vmesh14MeshParametersESaIS1_EE17_Vector_impl_dataE*  %0 to i8**, !dbg !7294
	store i8* null, i8**  %1, align 8, !tbaa !4813, !dbg !7294
	%2 = bitcast %struct._ZNSt12_Vector_baseIN5vmesh14MeshParametersESaIS1_EE17_Vector_impl_dataE*  %0 to i8*, !dbg !7294
	%3 = getelementptr i8, i8*  %2, i64 8, !dbg !7294
	%4 = bitcast i8*  %3 to i8**, !dbg !7294
	store i8* null, i8**  %4, align 8, !tbaa !4813, !dbg !7294
	%5 = getelementptr i8, i8*  %2, i64 16, !dbg !7294
	%6 = bitcast i8*  %5 to i8**, !dbg !7294
	store i8* null, i8**  %6, align 8, !tbaa !4813, !dbg !7294
	ret void, !dbg !7294
}
define linkonce_odr void @_ZNSt12_Vector_baseIN5vmesh14MeshParametersESaIS1_EE17_Vector_impl_dataC2Ev(%struct._ZNSt12_Vector_baseIN5vmesh14MeshParametersESaIS1_EE17_Vector_impl_dataE* %_T15361704_54299.arg) #0 inlinehint !dbg !7296 {
L.entry:
	%_T15361704_54299.addr = alloca %struct._ZNSt12_Vector_baseIN5vmesh14MeshParametersESaIS1_EE17_Vector_impl_dataE*, align 8
	%..inline.addr = alloca %struct._ZNSt12_Vector_baseIN5vmesh14MeshParametersESaIS1_EE17_Vector_impl_dataE*, align 8

	store %struct._ZNSt12_Vector_baseIN5vmesh14MeshParametersESaIS1_EE17_Vector_impl_dataE* %_T15361704_54299.arg, %struct._ZNSt12_Vector_baseIN5vmesh14MeshParametersESaIS1_EE17_Vector_impl_dataE** %_T15361704_54299.addr, align 8, !tbaa !4813
	%0 = load %struct._ZNSt12_Vector_baseIN5vmesh14MeshParametersESaIS1_EE17_Vector_impl_dataE*, %struct._ZNSt12_Vector_baseIN5vmesh14MeshParametersESaIS1_EE17_Vector_impl_dataE** %_T15361704_54299.addr, align 8, !tbaa !4813, !dbg !7304
	%1 = bitcast %struct._ZNSt12_Vector_baseIN5vmesh14MeshParametersESaIS1_EE17_Vector_impl_dataE*  %0 to i8*, !dbg !7304
	%2 = bitcast %struct._ZNSt12_Vector_baseIN5vmesh14MeshParametersESaIS1_EE17_Vector_impl_dataE** %..inline.addr to i8**, !dbg !7304
	store i8*  %1, i8**  %2, align 8, !tbaa !4813, !dbg !7304
	%3 = load %struct._ZNSt12_Vector_baseIN5vmesh14MeshParametersESaIS1_EE17_Vector_impl_dataE*, %struct._ZNSt12_Vector_baseIN5vmesh14MeshParametersESaIS1_EE17_Vector_impl_dataE** %..inline.addr, align 8, !tbaa !4813, !dbg !7304
	%4 = bitcast %struct._ZNSt12_Vector_baseIN5vmesh14MeshParametersESaIS1_EE17_Vector_impl_dataE*  %3 to i8**, !dbg !7304
	store i8* null, i8**  %4, align 8, !tbaa !4813, !dbg !7304
	%5 = bitcast %struct._ZNSt12_Vector_baseIN5vmesh14MeshParametersESaIS1_EE17_Vector_impl_dataE*  %3 to i8*, !dbg !7304
	%6 = getelementptr i8, i8*  %5, i64 8, !dbg !7304
	%7 = bitcast i8*  %6 to i8**, !dbg !7304
	store i8* null, i8**  %7, align 8, !tbaa !4813, !dbg !7304
	%8 = getelementptr i8, i8*  %5, i64 16, !dbg !7304
	%9 = bitcast i8*  %8 to i8**, !dbg !7304
	store i8* null, i8**  %9, align 8, !tbaa !4813, !dbg !7304
	ret void, !dbg !7304
}
define linkonce_odr void @_ZNSt12_Vector_baseIN5vmesh14MeshParametersESaIS1_EE12_Vector_implC1Ev(%struct._ZNSt12_Vector_baseIN5vmesh14MeshParametersESaIS1_EE12_Vector_implE* %_T15361704_54300.arg) #0 inlinehint !dbg !7309 {
L.entry:
	%_T15361704_54300.addr = alloca %struct._ZNSt12_Vector_baseIN5vmesh14MeshParametersESaIS1_EE12_Vector_implE*, align 8
	%..inline.addr = alloca %struct._ZNSt12_Vector_baseIN5vmesh14MeshParametersESaIS1_EE17_Vector_impl_dataE*, align 8

	call void @llvm.dbg.declare (metadata %struct._ZNSt12_Vector_baseIN5vmesh14MeshParametersESaIS1_EE12_Vector_implE** %_T15361704_54300.addr, metadata !7321, metadata !4805), !dbg !7310
	store %struct._ZNSt12_Vector_baseIN5vmesh14MeshParametersESaIS1_EE12_Vector_implE* %_T15361704_54300.arg, %struct._ZNSt12_Vector_baseIN5vmesh14MeshParametersESaIS1_EE12_Vector_implE** %_T15361704_54300.addr, align 8, !tbaa !4813
	call void @llvm.dbg.declare (metadata %struct._ZNSt12_Vector_baseIN5vmesh14MeshParametersESaIS1_EE12_Vector_implE** %_T15361704_54300.addr, metadata !7322, metadata !4805), !dbg !7310
	%0 = load %struct._ZNSt12_Vector_baseIN5vmesh14MeshParametersESaIS1_EE12_Vector_implE*, %struct._ZNSt12_Vector_baseIN5vmesh14MeshParametersESaIS1_EE12_Vector_implE** %_T15361704_54300.addr, align 8, !tbaa !4813, !dbg !7323
	%1 = bitcast %struct._ZNSt12_Vector_baseIN5vmesh14MeshParametersESaIS1_EE12_Vector_implE*  %0 to i8*, !dbg !7323
	%2 = bitcast %struct._ZNSt12_Vector_baseIN5vmesh14MeshParametersESaIS1_EE17_Vector_impl_dataE** %..inline.addr to i8**, !dbg !7323
	store i8*  %1, i8**  %2, align 8, !tbaa !4813, !dbg !7323
	%3 = load %struct._ZNSt12_Vector_baseIN5vmesh14MeshParametersESaIS1_EE17_Vector_impl_dataE*, %struct._ZNSt12_Vector_baseIN5vmesh14MeshParametersESaIS1_EE17_Vector_impl_dataE** %..inline.addr, align 8, !tbaa !4813, !dbg !7323
	%4 = bitcast %struct._ZNSt12_Vector_baseIN5vmesh14MeshParametersESaIS1_EE17_Vector_impl_dataE*  %3 to i8**, !dbg !7323
	store i8* null, i8**  %4, align 8, !tbaa !4813, !dbg !7323
	%5 = bitcast %struct._ZNSt12_Vector_baseIN5vmesh14MeshParametersESaIS1_EE17_Vector_impl_dataE*  %3 to i8*, !dbg !7324
	%6 = getelementptr i8, i8*  %5, i64 8, !dbg !7324
	%7 = bitcast i8*  %6 to i8**, !dbg !7324
	store i8* null, i8**  %7, align 8, !tbaa !4813, !dbg !7324
	%8 = getelementptr i8, i8*  %5, i64 16, !dbg !7324
	%9 = bitcast i8*  %8 to i8**, !dbg !7324
	store i8* null, i8**  %9, align 8, !tbaa !4813, !dbg !7324
	ret void, !dbg !7323
}
define linkonce_odr void @_ZNSt12_Vector_baseIN5vmesh14MeshParametersESaIS1_EE12_Vector_implC2Ev(%struct._ZNSt12_Vector_baseIN5vmesh14MeshParametersESaIS1_EE12_Vector_implE* %_T15361704_54301.arg) #0 inlinehint !dbg !7326 {
L.entry:
	%_T15361704_54301.addr = alloca %struct._ZNSt12_Vector_baseIN5vmesh14MeshParametersESaIS1_EE12_Vector_implE*, align 8
	%..inline.addr = alloca %struct._ZNSt12_Vector_baseIN5vmesh14MeshParametersESaIS1_EE17_Vector_impl_dataE*, align 8

	store %struct._ZNSt12_Vector_baseIN5vmesh14MeshParametersESaIS1_EE12_Vector_implE* %_T15361704_54301.arg, %struct._ZNSt12_Vector_baseIN5vmesh14MeshParametersESaIS1_EE12_Vector_implE** %_T15361704_54301.addr, align 8, !tbaa !4813
	%0 = load %struct._ZNSt12_Vector_baseIN5vmesh14MeshParametersESaIS1_EE12_Vector_implE*, %struct._ZNSt12_Vector_baseIN5vmesh14MeshParametersESaIS1_EE12_Vector_implE** %_T15361704_54301.addr, align 8, !tbaa !4813, !dbg !7342
	%1 = bitcast %struct._ZNSt12_Vector_baseIN5vmesh14MeshParametersESaIS1_EE12_Vector_implE*  %0 to i8*, !dbg !7342
	%2 = bitcast %struct._ZNSt12_Vector_baseIN5vmesh14MeshParametersESaIS1_EE17_Vector_impl_dataE** %..inline.addr to i8**, !dbg !7342
	store i8*  %1, i8**  %2, align 8, !tbaa !4813, !dbg !7342
	%3 = load %struct._ZNSt12_Vector_baseIN5vmesh14MeshParametersESaIS1_EE17_Vector_impl_dataE*, %struct._ZNSt12_Vector_baseIN5vmesh14MeshParametersESaIS1_EE17_Vector_impl_dataE** %..inline.addr, align 8, !tbaa !4813, !dbg !7342
	%4 = bitcast %struct._ZNSt12_Vector_baseIN5vmesh14MeshParametersESaIS1_EE17_Vector_impl_dataE*  %3 to i8**, !dbg !7342
	store i8* null, i8**  %4, align 8, !tbaa !4813, !dbg !7342
	%5 = bitcast %struct._ZNSt12_Vector_baseIN5vmesh14MeshParametersESaIS1_EE17_Vector_impl_dataE*  %3 to i8*, !dbg !7342
	%6 = getelementptr i8, i8*  %5, i64 8, !dbg !7342
	%7 = bitcast i8*  %6 to i8**, !dbg !7342
	store i8* null, i8**  %7, align 8, !tbaa !4813, !dbg !7342
	%8 = getelementptr i8, i8*  %5, i64 16, !dbg !7342
	%9 = bitcast i8*  %8 to i8**, !dbg !7342
	store i8* null, i8**  %9, align 8, !tbaa !4813, !dbg !7342
	ret void, !dbg !7342
}
define linkonce_odr void @_ZNSt12_Vector_baseIN5vmesh14MeshParametersESaIS1_EE12_Vector_implD1Ev(%struct._ZNSt12_Vector_baseIN5vmesh14MeshParametersESaIS1_EE12_Vector_implE* %_T15361704_54302.arg) #0 inlinehint !dbg !7344 {
L.entry:
	%_T15361704_54302.addr = alloca %struct._ZNSt12_Vector_baseIN5vmesh14MeshParametersESaIS1_EE12_Vector_implE*, align 8

	call void @llvm.dbg.declare (metadata %struct._ZNSt12_Vector_baseIN5vmesh14MeshParametersESaIS1_EE12_Vector_implE** %_T15361704_54302.addr, metadata !7356, metadata !4805), !dbg !7345
	store %struct._ZNSt12_Vector_baseIN5vmesh14MeshParametersESaIS1_EE12_Vector_implE* %_T15361704_54302.arg, %struct._ZNSt12_Vector_baseIN5vmesh14MeshParametersESaIS1_EE12_Vector_implE** %_T15361704_54302.addr, align 8, !tbaa !4813
	call void @llvm.dbg.declare (metadata %struct._ZNSt12_Vector_baseIN5vmesh14MeshParametersESaIS1_EE12_Vector_implE** %_T15361704_54302.addr, metadata !7357, metadata !4805), !dbg !7345
	ret void, !dbg !7358
}
define linkonce_odr void @_ZNSt12_Vector_baseIN5vmesh14MeshParametersESaIS1_EE12_Vector_implD2Ev(%struct._ZNSt12_Vector_baseIN5vmesh14MeshParametersESaIS1_EE12_Vector_implE* %_T15361704_54303.arg) #0 inlinehint !dbg !7360 {
L.entry:
	%_T15361704_54303.addr = alloca %struct._ZNSt12_Vector_baseIN5vmesh14MeshParametersESaIS1_EE12_Vector_implE*, align 8

	store %struct._ZNSt12_Vector_baseIN5vmesh14MeshParametersESaIS1_EE12_Vector_implE* %_T15361704_54303.arg, %struct._ZNSt12_Vector_baseIN5vmesh14MeshParametersESaIS1_EE12_Vector_implE** %_T15361704_54303.addr, align 8, !tbaa !4813
	ret void, !dbg !7376
}

%struct._ZSt6vectorIN5vmesh14MeshParametersESaIS1_EE = type <{ %struct._ZSt12_Vector_baseIN5vmesh14MeshParametersESaIS1_EE}> 

define linkonce_odr void @_ZNSt6vectorIN5vmesh14MeshParametersESaIS1_EEC1Ev(%struct._ZSt6vectorIN5vmesh14MeshParametersESaIS1_EE* %_T15361704_54304.arg) #0 inlinehint !dbg !7381 {
L.entry:
	%_T15361704_54304.addr = alloca %struct._ZSt6vectorIN5vmesh14MeshParametersESaIS1_EE*, align 8
	%..inline.addr = alloca %struct._ZNSt12_Vector_baseIN5vmesh14MeshParametersESaIS1_EE17_Vector_impl_dataE*, align 8

	call void @llvm.dbg.declare (metadata %struct._ZSt6vectorIN5vmesh14MeshParametersESaIS1_EE** %_T15361704_54304.addr, metadata !7405, metadata !4805), !dbg !7382
	store %struct._ZSt6vectorIN5vmesh14MeshParametersESaIS1_EE* %_T15361704_54304.arg, %struct._ZSt6vectorIN5vmesh14MeshParametersESaIS1_EE** %_T15361704_54304.addr, align 8, !tbaa !4813
	call void @llvm.dbg.declare (metadata %struct._ZSt6vectorIN5vmesh14MeshParametersESaIS1_EE** %_T15361704_54304.addr, metadata !7406, metadata !4805), !dbg !7382
	%0 = load %struct._ZSt6vectorIN5vmesh14MeshParametersESaIS1_EE*, %struct._ZSt6vectorIN5vmesh14MeshParametersESaIS1_EE** %_T15361704_54304.addr, align 8, !tbaa !4813, !dbg !7407
	%1 = bitcast %struct._ZSt6vectorIN5vmesh14MeshParametersESaIS1_EE*  %0 to i8*, !dbg !7407
	%2 = bitcast %struct._ZNSt12_Vector_baseIN5vmesh14MeshParametersESaIS1_EE17_Vector_impl_dataE** %..inline.addr to i8**, !dbg !7407
	store i8*  %1, i8**  %2, align 8, !tbaa !4813, !dbg !7407
	%3 = load %struct._ZNSt12_Vector_baseIN5vmesh14MeshParametersESaIS1_EE17_Vector_impl_dataE*, %struct._ZNSt12_Vector_baseIN5vmesh14MeshParametersESaIS1_EE17_Vector_impl_dataE** %..inline.addr, align 8, !tbaa !4813, !dbg !7407
	%4 = bitcast %struct._ZNSt12_Vector_baseIN5vmesh14MeshParametersESaIS1_EE17_Vector_impl_dataE*  %3 to i8**, !dbg !7407
	store i8* null, i8**  %4, align 8, !tbaa !4813, !dbg !7407
	%5 = bitcast %struct._ZNSt12_Vector_baseIN5vmesh14MeshParametersESaIS1_EE17_Vector_impl_dataE*  %3 to i8*, !dbg !7407
	%6 = getelementptr i8, i8*  %5, i64 8, !dbg !7407
	%7 = bitcast i8*  %6 to i8**, !dbg !7407
	store i8* null, i8**  %7, align 8, !tbaa !4813, !dbg !7407
	%8 = getelementptr i8, i8*  %5, i64 16, !dbg !7407
	%9 = bitcast i8*  %8 to i8**, !dbg !7407
	store i8* null, i8**  %9, align 8, !tbaa !4813, !dbg !7407
	ret void, !dbg !7407
}
define linkonce_odr void @_ZNSt6vectorIN5vmesh14MeshParametersESaIS1_EEC2Ev(%struct._ZSt6vectorIN5vmesh14MeshParametersESaIS1_EE* %_T15361704_54305.arg) #0 inlinehint !dbg !7409 {
L.entry:
	%_T15361704_54305.addr = alloca %struct._ZSt6vectorIN5vmesh14MeshParametersESaIS1_EE*, align 8
	%..inline.addr = alloca %struct._ZNSt12_Vector_baseIN5vmesh14MeshParametersESaIS1_EE17_Vector_impl_dataE*, align 8

	store %struct._ZSt6vectorIN5vmesh14MeshParametersESaIS1_EE* %_T15361704_54305.arg, %struct._ZSt6vectorIN5vmesh14MeshParametersESaIS1_EE** %_T15361704_54305.addr, align 8, !tbaa !4813
	%0 = load %struct._ZSt6vectorIN5vmesh14MeshParametersESaIS1_EE*, %struct._ZSt6vectorIN5vmesh14MeshParametersESaIS1_EE** %_T15361704_54305.addr, align 8, !tbaa !4813, !dbg !7437
	%1 = bitcast %struct._ZSt6vectorIN5vmesh14MeshParametersESaIS1_EE*  %0 to i8*, !dbg !7437
	%2 = bitcast %struct._ZNSt12_Vector_baseIN5vmesh14MeshParametersESaIS1_EE17_Vector_impl_dataE** %..inline.addr to i8**, !dbg !7437
	store i8*  %1, i8**  %2, align 8, !tbaa !4813, !dbg !7437
	%3 = load %struct._ZNSt12_Vector_baseIN5vmesh14MeshParametersESaIS1_EE17_Vector_impl_dataE*, %struct._ZNSt12_Vector_baseIN5vmesh14MeshParametersESaIS1_EE17_Vector_impl_dataE** %..inline.addr, align 8, !tbaa !4813, !dbg !7437
	%4 = bitcast %struct._ZNSt12_Vector_baseIN5vmesh14MeshParametersESaIS1_EE17_Vector_impl_dataE*  %3 to i8**, !dbg !7437
	store i8* null, i8**  %4, align 8, !tbaa !4813, !dbg !7437
	%5 = bitcast %struct._ZNSt12_Vector_baseIN5vmesh14MeshParametersESaIS1_EE17_Vector_impl_dataE*  %3 to i8*, !dbg !7437
	%6 = getelementptr i8, i8*  %5, i64 8, !dbg !7437
	%7 = bitcast i8*  %6 to i8**, !dbg !7437
	store i8* null, i8**  %7, align 8, !tbaa !4813, !dbg !7437
	%8 = getelementptr i8, i8*  %5, i64 16, !dbg !7437
	%9 = bitcast i8*  %8 to i8**, !dbg !7437
	store i8* null, i8**  %9, align 8, !tbaa !4813, !dbg !7437
	ret void, !dbg !7437
}
define linkonce_odr void @_ZNSt6vectorIN5vmesh14MeshParametersESaIS1_EED1Ev(%struct._ZSt6vectorIN5vmesh14MeshParametersESaIS1_EE* %_T15361704_54306.arg) #0 inlinehint !dbg !7439 {
L.entry:
	%_T15361704_54306.addr = alloca %struct._ZSt6vectorIN5vmesh14MeshParametersESaIS1_EE*, align 8
	%..inline.addr = alloca %struct._ZN5vmesh14MeshParametersE*, align 8
	%..inline.addr.1 = alloca %struct._ZN5vmesh14MeshParametersE*, align 8
	%.lcr44109569.addr = alloca i8*, align 8
	%..inline.addr.2 = alloca %struct._ZN5vmesh14MeshParametersE*, align 8
	%..inline.addr.3 = alloca %struct._ZSt12_Vector_baseIN5vmesh14MeshParametersESaIS1_EE*, align 8
	%..inline.addr.4 = alloca %struct._ZN5vmesh14MeshParametersE*, align 8

	call void @llvm.dbg.declare (metadata %struct._ZSt6vectorIN5vmesh14MeshParametersESaIS1_EE** %_T15361704_54306.addr, metadata !7499, metadata !4805), !dbg !7440
	store %struct._ZSt6vectorIN5vmesh14MeshParametersESaIS1_EE* %_T15361704_54306.arg, %struct._ZSt6vectorIN5vmesh14MeshParametersESaIS1_EE** %_T15361704_54306.addr, align 8, !tbaa !4813
	call void @llvm.dbg.declare (metadata %struct._ZSt6vectorIN5vmesh14MeshParametersESaIS1_EE** %_T15361704_54306.addr, metadata !7500, metadata !4805), !dbg !7440
	%0 = load %struct._ZSt6vectorIN5vmesh14MeshParametersESaIS1_EE*, %struct._ZSt6vectorIN5vmesh14MeshParametersESaIS1_EE** %_T15361704_54306.addr, align 8, !tbaa !4813, !dbg !7501
	%1 = bitcast %struct._ZSt6vectorIN5vmesh14MeshParametersESaIS1_EE*  %0 to i8**, !dbg !7501
	%2 = load i8*, i8**  %1, align 8, !tbaa !4813, !dbg !7501
	%3 = bitcast %struct._ZN5vmesh14MeshParametersE** %..inline.addr to i8**, !dbg !7501
	store i8*  %2, i8**  %3, align 8, !tbaa !4813, !dbg !7501
	%4 = bitcast %struct._ZSt6vectorIN5vmesh14MeshParametersESaIS1_EE*  %0 to i8*, !dbg !7501
	%5 = getelementptr i8, i8*  %4, i64 8, !dbg !7501
	%6 = bitcast i8*  %5 to i8**, !dbg !7501
	%7 = load i8*, i8**  %6, align 8, !tbaa !4813, !dbg !7501
	%8 = bitcast %struct._ZN5vmesh14MeshParametersE** %..inline.addr.1 to i8**, !dbg !7501
	store i8*  %7, i8**  %8, align 8, !tbaa !4813, !dbg !7501
	%9 = load %struct._ZN5vmesh14MeshParametersE*, %struct._ZN5vmesh14MeshParametersE** %..inline.addr, align 8, !tbaa !4813, !dbg !7501
	%10 = bitcast %struct._ZN5vmesh14MeshParametersE*  %9 to i8*, !dbg !7501
	%11 = load %struct._ZN5vmesh14MeshParametersE*, %struct._ZN5vmesh14MeshParametersE** %..inline.addr.1, align 8, !tbaa !4813, !dbg !7501
	%12 = bitcast %struct._ZN5vmesh14MeshParametersE*  %11 to i8*, !dbg !7501
	%13 = icmp eq i8*  %10,  %12, !dbg !7501
	br i1  %13, label %L..inline.80944, label %L.B1927, !dbg !7501
L.B1927:
	%14 = bitcast %struct._ZN5vmesh14MeshParametersE*  %9 to i8*, !dbg !7501
	%15 = bitcast %struct._ZN5vmesh14MeshParametersE*  %11 to i8*, !dbg !7501
	%16 = ptrtoint i8*  %14 to i64, !dbg !7501
	%17 = sub i64 0,  %16, !dbg !7501
	%18 = getelementptr i8, i8*  %15, i64  %17, !dbg !7501
	%19 = ptrtoint i8*  %18 to i64, !dbg !7501
	%20 = add i64  %19, 335, !dbg !7501
	%21 = sub i64 0,  %16, !dbg !7501
	%22 = getelementptr i8, i8*  %15, i64  %21, !dbg !7501
	%23 = ptrtoint i8*  %22 to i64, !dbg !7501
	%24 = add i64  %23, 335, !dbg !7501
	%25 = sext i64 -4392081922311798003 to i128, !dbg !7501
	%26 = sext i64  %24 to i128, !dbg !7501
	%27 = mul i128  %25,  %26, !dbg !7501
	%28 = ashr i128  %27, 64, !dbg !7501
	%29 = trunc i128  %28 to i64, !dbg !7501
	%30 = add i64  %20,  %29, !dbg !7501
	%31 = sext i32 8 to i64, !dbg !7501
	%32 = ashr i64  %30,  %31, !dbg !7501
	%33 = sub i64 0,  %16, !dbg !7501
	%34 = getelementptr i8, i8*  %15, i64  %33, !dbg !7501
	%35 = ptrtoint i8*  %34 to i64, !dbg !7501
	%36 = add i64  %35, 335, !dbg !7501
	%37 = sext i32 63 to i64, !dbg !7501
	%38 = ashr i64  %36,  %37, !dbg !7501
	%39 = sub i64  %32,  %38, !dbg !7501
	%40 = mul i64  %39, 336, !dbg !7501
	%41 = getelementptr i8, i8*  %14, i64  %40, !dbg !7501
	store i8*  %41, i8** %.lcr44109569.addr, align 8, !tbaa !4813, !dbg !7501
	br label %L..inline.80943
L..inline.80943:
	%42 = load %struct._ZN5vmesh14MeshParametersE*, %struct._ZN5vmesh14MeshParametersE** %..inline.addr, align 8, !tbaa !4813, !dbg !7501
	%43 = bitcast %struct._ZN5vmesh14MeshParametersE*  %42 to i8*, !dbg !7501
	%44 = bitcast %struct._ZN5vmesh14MeshParametersE** %..inline.addr.2 to i8**, !dbg !7501
	store i8*  %43, i8**  %44, align 8, !tbaa !4813, !dbg !7501
	%45 = load %struct._ZN5vmesh14MeshParametersE*, %struct._ZN5vmesh14MeshParametersE** %..inline.addr.2, align 8, !tbaa !4813, !dbg !7501
	call void  @_ZN5vmesh14MeshParametersD1Ev (%struct._ZN5vmesh14MeshParametersE*  %45) nounwind, !dbg !7501
	%46 = load %struct._ZN5vmesh14MeshParametersE*, %struct._ZN5vmesh14MeshParametersE** %..inline.addr, align 8, !tbaa !4813, !dbg !7501
	%47 = bitcast %struct._ZN5vmesh14MeshParametersE*  %46 to i8*, !dbg !7501
	%48 = getelementptr i8, i8*  %47, i64 336, !dbg !7501
	%49 = bitcast %struct._ZN5vmesh14MeshParametersE** %..inline.addr to i8**, !dbg !7501
	store i8*  %48, i8**  %49, align 8, !tbaa !4813, !dbg !7501
	%50 = load %struct._ZN5vmesh14MeshParametersE*, %struct._ZN5vmesh14MeshParametersE** %..inline.addr, align 8, !tbaa !4813, !dbg !7501
	%51 = bitcast %struct._ZN5vmesh14MeshParametersE*  %50 to i8*, !dbg !7501
	%52 = load i8*, i8** %.lcr44109569.addr, align 8, !tbaa !4813, !dbg !7501
	%53 = icmp ult i8*  %51,  %52, !dbg !7501
	br i1  %53, label %L..inline.80943, label %L..inline.80944, !dbg !7501
L..inline.80944:
	%54 = load %struct._ZSt6vectorIN5vmesh14MeshParametersESaIS1_EE*, %struct._ZSt6vectorIN5vmesh14MeshParametersESaIS1_EE** %_T15361704_54306.addr, align 8, !tbaa !4813, !dbg !7502
	%55 = bitcast %struct._ZSt6vectorIN5vmesh14MeshParametersESaIS1_EE*  %54 to i8*, !dbg !7502
	%56 = bitcast %struct._ZSt12_Vector_baseIN5vmesh14MeshParametersESaIS1_EE** %..inline.addr.3 to i8**, !dbg !7502
	store i8*  %55, i8**  %56, align 8, !tbaa !4813, !dbg !7502
	%57 = load %struct._ZSt12_Vector_baseIN5vmesh14MeshParametersESaIS1_EE*, %struct._ZSt12_Vector_baseIN5vmesh14MeshParametersESaIS1_EE** %..inline.addr.3, align 8, !tbaa !4813, !dbg !7503
	%58 = bitcast %struct._ZSt12_Vector_baseIN5vmesh14MeshParametersESaIS1_EE*  %57 to i8**, !dbg !7503
	%59 = load i8*, i8**  %58, align 8, !tbaa !4813, !dbg !7503
	%60 = icmp eq i8*  %59,  null, !dbg !7503
	br i1  %60, label %L..inline.80976, label %L.B1928, !dbg !7503
L.B1928:
	%61 = bitcast %struct._ZSt12_Vector_baseIN5vmesh14MeshParametersESaIS1_EE*  %57 to i8**, !dbg !7503
	%62 = load i8*, i8**  %61, align 8, !tbaa !4813, !dbg !7503
	%63 = bitcast %struct._ZN5vmesh14MeshParametersE** %..inline.addr.4 to i8**, !dbg !7503
	store i8*  %62, i8**  %63, align 8, !tbaa !4813, !dbg !7503
	%64 = load %struct._ZN5vmesh14MeshParametersE*, %struct._ZN5vmesh14MeshParametersE** %..inline.addr.4, align 8, !tbaa !4813, !dbg !7503
	%65 = bitcast %struct._ZN5vmesh14MeshParametersE*  %64 to i8*, !dbg !7503
	call void  @_ZdlPv (i8*  %65) nounwind, !dbg !7503
	br label %L..inline.80976
L..inline.80976:
	ret void, !dbg !7502
}
define linkonce_odr void @_ZNSt6vectorIN5vmesh14MeshParametersESaIS1_EED2Ev(%struct._ZSt6vectorIN5vmesh14MeshParametersESaIS1_EE* %_T15361704_54307.arg) #0 inlinehint !dbg !7505 {
L.entry:
	%_T15361704_54307.addr = alloca %struct._ZSt6vectorIN5vmesh14MeshParametersESaIS1_EE*, align 8
	%..inline.addr = alloca %struct._ZSt6vectorIN5vmesh14MeshParametersESaIS1_EE*, align 8
	%..inline.addr.1 = alloca %struct._ZN5vmesh14MeshParametersE*, align 8
	%..inline.addr.2 = alloca %struct._ZN5vmesh14MeshParametersE*, align 8
	%.lcr44110593.addr = alloca i8*, align 8
	%..inline.addr.3 = alloca %struct._ZN5vmesh14MeshParametersE*, align 8
	%..inline.addr.4 = alloca %struct._ZN5vmesh14MeshParametersE*, align 8

	store %struct._ZSt6vectorIN5vmesh14MeshParametersESaIS1_EE* %_T15361704_54307.arg, %struct._ZSt6vectorIN5vmesh14MeshParametersESaIS1_EE** %_T15361704_54307.addr, align 8, !tbaa !4813
	%0 = load %struct._ZSt6vectorIN5vmesh14MeshParametersESaIS1_EE*, %struct._ZSt6vectorIN5vmesh14MeshParametersESaIS1_EE** %_T15361704_54307.addr, align 8, !tbaa !4813, !dbg !7569
	%1 = bitcast %struct._ZSt6vectorIN5vmesh14MeshParametersESaIS1_EE*  %0 to i8*, !dbg !7569
	%2 = bitcast %struct._ZSt6vectorIN5vmesh14MeshParametersESaIS1_EE** %..inline.addr to i8**, !dbg !7569
	store i8*  %1, i8**  %2, align 8, !tbaa !4813, !dbg !7569
	%3 = load %struct._ZSt6vectorIN5vmesh14MeshParametersESaIS1_EE*, %struct._ZSt6vectorIN5vmesh14MeshParametersESaIS1_EE** %..inline.addr, align 8, !tbaa !4813, !dbg !7570
	%4 = bitcast %struct._ZSt6vectorIN5vmesh14MeshParametersESaIS1_EE*  %3 to i8**, !dbg !7570
	%5 = load i8*, i8**  %4, align 8, !tbaa !4813, !dbg !7570
	%6 = bitcast %struct._ZN5vmesh14MeshParametersE** %..inline.addr.1 to i8**, !dbg !7570
	store i8*  %5, i8**  %6, align 8, !tbaa !4813, !dbg !7570
	%7 = bitcast %struct._ZSt6vectorIN5vmesh14MeshParametersESaIS1_EE*  %3 to i8*, !dbg !7570
	%8 = getelementptr i8, i8*  %7, i64 8, !dbg !7570
	%9 = bitcast i8*  %8 to i8**, !dbg !7570
	%10 = load i8*, i8**  %9, align 8, !tbaa !4813, !dbg !7570
	%11 = bitcast %struct._ZN5vmesh14MeshParametersE** %..inline.addr.2 to i8**, !dbg !7570
	store i8*  %10, i8**  %11, align 8, !tbaa !4813, !dbg !7570
	%12 = load %struct._ZN5vmesh14MeshParametersE*, %struct._ZN5vmesh14MeshParametersE** %..inline.addr.1, align 8, !tbaa !4813, !dbg !7570
	%13 = bitcast %struct._ZN5vmesh14MeshParametersE*  %12 to i8*, !dbg !7570
	%14 = load %struct._ZN5vmesh14MeshParametersE*, %struct._ZN5vmesh14MeshParametersE** %..inline.addr.2, align 8, !tbaa !4813, !dbg !7570
	%15 = bitcast %struct._ZN5vmesh14MeshParametersE*  %14 to i8*, !dbg !7570
	%16 = icmp eq i8*  %13,  %15, !dbg !7570
	br i1  %16, label %L..inline.81075, label %L.B1931, !dbg !7570
L.B1931:
	%17 = bitcast %struct._ZN5vmesh14MeshParametersE*  %12 to i8*, !dbg !7570
	%18 = bitcast %struct._ZN5vmesh14MeshParametersE*  %14 to i8*, !dbg !7570
	%19 = ptrtoint i8*  %17 to i64, !dbg !7570
	%20 = sub i64 0,  %19, !dbg !7570
	%21 = getelementptr i8, i8*  %18, i64  %20, !dbg !7570
	%22 = ptrtoint i8*  %21 to i64, !dbg !7570
	%23 = add i64  %22, 335, !dbg !7570
	%24 = sub i64 0,  %19, !dbg !7570
	%25 = getelementptr i8, i8*  %18, i64  %24, !dbg !7570
	%26 = ptrtoint i8*  %25 to i64, !dbg !7570
	%27 = add i64  %26, 335, !dbg !7570
	%28 = sext i64 -4392081922311798003 to i128, !dbg !7570
	%29 = sext i64  %27 to i128, !dbg !7570
	%30 = mul i128  %28,  %29, !dbg !7570
	%31 = ashr i128  %30, 64, !dbg !7570
	%32 = trunc i128  %31 to i64, !dbg !7570
	%33 = add i64  %23,  %32, !dbg !7570
	%34 = sext i32 8 to i64, !dbg !7570
	%35 = ashr i64  %33,  %34, !dbg !7570
	%36 = sub i64 0,  %19, !dbg !7570
	%37 = getelementptr i8, i8*  %18, i64  %36, !dbg !7570
	%38 = ptrtoint i8*  %37 to i64, !dbg !7570
	%39 = add i64  %38, 335, !dbg !7570
	%40 = sext i32 63 to i64, !dbg !7570
	%41 = ashr i64  %39,  %40, !dbg !7570
	%42 = sub i64  %35,  %41, !dbg !7570
	%43 = mul i64  %42, 336, !dbg !7570
	%44 = getelementptr i8, i8*  %17, i64  %43, !dbg !7570
	store i8*  %44, i8** %.lcr44110593.addr, align 8, !tbaa !4813, !dbg !7570
	br label %L..inline.81074
L..inline.81074:
	%45 = load %struct._ZN5vmesh14MeshParametersE*, %struct._ZN5vmesh14MeshParametersE** %..inline.addr.1, align 8, !tbaa !4813, !dbg !7570
	%46 = bitcast %struct._ZN5vmesh14MeshParametersE*  %45 to i8*, !dbg !7570
	%47 = bitcast %struct._ZN5vmesh14MeshParametersE** %..inline.addr.3 to i8**, !dbg !7570
	store i8*  %46, i8**  %47, align 8, !tbaa !4813, !dbg !7570
	%48 = load %struct._ZN5vmesh14MeshParametersE*, %struct._ZN5vmesh14MeshParametersE** %..inline.addr.3, align 8, !tbaa !4813, !dbg !7570
	call void  @_ZN5vmesh14MeshParametersD1Ev (%struct._ZN5vmesh14MeshParametersE*  %48) nounwind, !dbg !7570
	%49 = load %struct._ZN5vmesh14MeshParametersE*, %struct._ZN5vmesh14MeshParametersE** %..inline.addr.1, align 8, !tbaa !4813, !dbg !7570
	%50 = bitcast %struct._ZN5vmesh14MeshParametersE*  %49 to i8*, !dbg !7570
	%51 = getelementptr i8, i8*  %50, i64 336, !dbg !7570
	%52 = bitcast %struct._ZN5vmesh14MeshParametersE** %..inline.addr.1 to i8**, !dbg !7570
	store i8*  %51, i8**  %52, align 8, !tbaa !4813, !dbg !7570
	%53 = load %struct._ZN5vmesh14MeshParametersE*, %struct._ZN5vmesh14MeshParametersE** %..inline.addr.1, align 8, !tbaa !4813, !dbg !7570
	%54 = bitcast %struct._ZN5vmesh14MeshParametersE*  %53 to i8*, !dbg !7570
	%55 = load i8*, i8** %.lcr44110593.addr, align 8, !tbaa !4813, !dbg !7570
	%56 = icmp ult i8*  %54,  %55, !dbg !7570
	br i1  %56, label %L..inline.81074, label %L..inline.81075, !dbg !7570
L..inline.81075:
	%57 = load %struct._ZSt6vectorIN5vmesh14MeshParametersESaIS1_EE*, %struct._ZSt6vectorIN5vmesh14MeshParametersESaIS1_EE** %..inline.addr, align 8, !tbaa !4813, !dbg !7571
	%58 = bitcast %struct._ZSt6vectorIN5vmesh14MeshParametersESaIS1_EE*  %57 to i8**, !dbg !7571
	%59 = load i8*, i8**  %58, align 8, !tbaa !4813, !dbg !7571
	%60 = icmp eq i8*  %59,  null, !dbg !7571
	br i1  %60, label %L..inline.81105, label %L.B1932, !dbg !7571
L.B1932:
	%61 = bitcast %struct._ZSt6vectorIN5vmesh14MeshParametersESaIS1_EE*  %57 to i8**, !dbg !7571
	%62 = load i8*, i8**  %61, align 8, !tbaa !4813, !dbg !7571
	%63 = bitcast %struct._ZN5vmesh14MeshParametersE** %..inline.addr.4 to i8**, !dbg !7571
	store i8*  %62, i8**  %63, align 8, !tbaa !4813, !dbg !7571
	%64 = load %struct._ZN5vmesh14MeshParametersE*, %struct._ZN5vmesh14MeshParametersE** %..inline.addr.4, align 8, !tbaa !4813, !dbg !7571
	%65 = bitcast %struct._ZN5vmesh14MeshParametersE*  %64 to i8*, !dbg !7571
	call void  @_ZdlPv (i8*  %65) nounwind, !dbg !7571
	br label %L..inline.81105
L..inline.81105:
	ret void, !dbg !7571
}
define linkonce_odr %struct._ZN5vmesh14MeshParametersE* @_ZNSt6vectorIN5vmesh14MeshParametersESaIS1_EEixEm(%struct._ZSt6vectorIN5vmesh14MeshParametersESaIS1_EE* %_T16174264_54310.arg, i64 %__n.arg) #0 inlinehint !dbg !7575 {
L.entry:
	%_T16174264_54310.addr = alloca %struct._ZSt6vectorIN5vmesh14MeshParametersESaIS1_EE*, align 8
	%__n.addr = alloca i64, align 8

	call void @llvm.dbg.declare (metadata %struct._ZSt6vectorIN5vmesh14MeshParametersESaIS1_EE** %_T16174264_54310.addr, metadata !7579, metadata !4805), !dbg !7576
	store %struct._ZSt6vectorIN5vmesh14MeshParametersESaIS1_EE* %_T16174264_54310.arg, %struct._ZSt6vectorIN5vmesh14MeshParametersESaIS1_EE** %_T16174264_54310.addr, align 8, !tbaa !4813
	call void @llvm.dbg.declare (metadata %struct._ZSt6vectorIN5vmesh14MeshParametersESaIS1_EE** %_T16174264_54310.addr, metadata !7580, metadata !4805), !dbg !7576
	call void @llvm.dbg.declare (metadata i64* %__n.addr, metadata !7581, metadata !4805), !dbg !7576
	store i64 %__n.arg, i64* %__n.addr, align 8, !tbaa !4812
	call void @llvm.dbg.declare (metadata i64* %__n.addr, metadata !7582, metadata !4805), !dbg !7576
	%0 = load %struct._ZSt6vectorIN5vmesh14MeshParametersESaIS1_EE*, %struct._ZSt6vectorIN5vmesh14MeshParametersESaIS1_EE** %_T16174264_54310.addr, align 8, !tbaa !4813, !dbg !7583
	%1 = bitcast %struct._ZSt6vectorIN5vmesh14MeshParametersESaIS1_EE*  %0 to i8**, !dbg !7583
	%2 = load i8*, i8**  %1, align 8, !tbaa !4813, !dbg !7583
	%3 = load i64, i64* %__n.addr, align 8, !tbaa !5343, !dbg !7583
	%4 = mul i64  %3, 336, !dbg !7583
	%5 = getelementptr i8, i8*  %2, i64  %4, !dbg !7583
	%6 = bitcast i8*  %5 to %struct._ZN5vmesh14MeshParametersE*, !dbg !7583
	ret %struct._ZN5vmesh14MeshParametersE*  %6, !dbg !7583
}

%struct._ZNSt12_Vector_baseImSaImEE12_Vector_implE = type <{ %struct._ZNSt12_Vector_baseImSaImEE17_Vector_impl_dataE}> 
%struct._ZSt6vectorImSaImEE = type <{ %struct._ZSt12_Vector_baseImSaImEE}> 
%struct._ZNSt12_Vector_baseImSaImEE17_Vector_impl_dataE = type <{ i64*, i64*, i64*}> 
%struct._ZSt12_Vector_baseImSaImEE = type <{ %struct._ZNSt12_Vector_baseImSaImEE12_Vector_implE}> 

define linkonce_odr i64 @_ZNKSt6vectorImSaImEE4sizeEv(%struct._ZSt6vectorImSaImEE* %_T15361704_54312.arg) #0 inlinehint !dbg !7588 {
L.entry:
	%_T15361704_54312.addr = alloca %struct._ZSt6vectorImSaImEE*, align 8

	call void @llvm.dbg.declare (metadata %struct._ZSt6vectorImSaImEE** %_T15361704_54312.addr, metadata !7592, metadata !4805), !dbg !7589
	store %struct._ZSt6vectorImSaImEE* %_T15361704_54312.arg, %struct._ZSt6vectorImSaImEE** %_T15361704_54312.addr, align 8, !tbaa !4813
	call void @llvm.dbg.declare (metadata %struct._ZSt6vectorImSaImEE** %_T15361704_54312.addr, metadata !7593, metadata !4805), !dbg !7589
	%0 = load %struct._ZSt6vectorImSaImEE*, %struct._ZSt6vectorImSaImEE** %_T15361704_54312.addr, align 8, !tbaa !4813, !dbg !7594
	%1 = bitcast %struct._ZSt6vectorImSaImEE*  %0 to i8*, !dbg !7594
	%2 = getelementptr i8, i8*  %1, i64 8, !dbg !7594
	%3 = bitcast i8*  %2 to i8**, !dbg !7594
	%4 = load i8*, i8**  %3, align 8, !tbaa !4813, !dbg !7594
	%5 = bitcast %struct._ZSt6vectorImSaImEE*  %0 to i8**, !dbg !7594
	%6 = load i8*, i8**  %5, align 8, !tbaa !4813, !dbg !7594
	%7 = ptrtoint i8*  %6 to i64, !dbg !7594
	%8 = sub i64 0,  %7, !dbg !7594
	%9 = getelementptr i8, i8*  %4, i64  %8, !dbg !7594
	%10 = ptrtoint i8*  %9 to i64, !dbg !7594
	%11 = sext i32 3 to i64, !dbg !7594
	%12 = ashr i64  %10,  %11, !dbg !7594
	ret i64  %12, !dbg !7594
}
define linkonce_odr i64* @_ZNSt6vectorImSaImEEixEm(%struct._ZSt6vectorImSaImEE* %_T16174264_54315.arg, i64 %__n.arg) #0 inlinehint !dbg !7598 {
L.entry:
	%_T16174264_54315.addr = alloca %struct._ZSt6vectorImSaImEE*, align 8
	%__n.addr = alloca i64, align 8

	call void @llvm.dbg.declare (metadata %struct._ZSt6vectorImSaImEE** %_T16174264_54315.addr, metadata !7602, metadata !4805), !dbg !7599
	store %struct._ZSt6vectorImSaImEE* %_T16174264_54315.arg, %struct._ZSt6vectorImSaImEE** %_T16174264_54315.addr, align 8, !tbaa !4813
	call void @llvm.dbg.declare (metadata %struct._ZSt6vectorImSaImEE** %_T16174264_54315.addr, metadata !7603, metadata !4805), !dbg !7599
	call void @llvm.dbg.declare (metadata i64* %__n.addr, metadata !7604, metadata !4805), !dbg !7599
	store i64 %__n.arg, i64* %__n.addr, align 8, !tbaa !4812
	call void @llvm.dbg.declare (metadata i64* %__n.addr, metadata !7605, metadata !4805), !dbg !7599
	%0 = load %struct._ZSt6vectorImSaImEE*, %struct._ZSt6vectorImSaImEE** %_T16174264_54315.addr, align 8, !tbaa !4813, !dbg !7606
	%1 = bitcast %struct._ZSt6vectorImSaImEE*  %0 to i8**, !dbg !7606
	%2 = load i8*, i8**  %1, align 8, !tbaa !4813, !dbg !7606
	%3 = load i64, i64* %__n.addr, align 8, !tbaa !5343, !dbg !7606
	%4 = mul i64  %3, 8, !dbg !7606
	%5 = getelementptr i8, i8*  %2, i64  %4, !dbg !7606
	%6 = bitcast i8*  %5 to i64*, !dbg !7606
	ret i64*  %6, !dbg !7606
}

%struct._ZSt8equal_toImE = type <{ [1 x i8]}> 

define linkonce_odr signext i8 @_ZNKSt8equal_toImEclERKmS2_(%struct._ZSt8equal_toImE* %_T16174264_54316.arg, i64* %__x.arg, i64* %__y.arg) #0 inlinehint !dbg !7615 {
L.entry:
	%_T16174264_54316.addr = alloca %struct._ZSt8equal_toImE*, align 8
	%__x.addr = alloca i64*, align 8
	%__y.addr = alloca i64*, align 8

	call void @llvm.dbg.declare (metadata %struct._ZSt8equal_toImE** %_T16174264_54316.addr, metadata !7619, metadata !4805), !dbg !7616
	store %struct._ZSt8equal_toImE* %_T16174264_54316.arg, %struct._ZSt8equal_toImE** %_T16174264_54316.addr, align 8, !tbaa !4813
	call void @llvm.dbg.declare (metadata %struct._ZSt8equal_toImE** %_T16174264_54316.addr, metadata !7620, metadata !4805), !dbg !7616
	call void @llvm.dbg.declare (metadata i64** %__x.addr, metadata !7621, metadata !4805), !dbg !7616
	store i64* %__x.arg, i64** %__x.addr, align 8, !tbaa !4813
	call void @llvm.dbg.declare (metadata i64** %__x.addr, metadata !7622, metadata !4805), !dbg !7616
	call void @llvm.dbg.declare (metadata i64** %__y.addr, metadata !7623, metadata !4805), !dbg !7616
	store i64* %__y.arg, i64** %__y.addr, align 8, !tbaa !4813
	call void @llvm.dbg.declare (metadata i64** %__y.addr, metadata !7624, metadata !4805), !dbg !7616
	%0 = load i64*, i64** %__x.addr, align 8, !tbaa !4813, !dbg !7625
	%1 = load i64, i64*  %0, align 8, !tbaa !4812, !dbg !7625
	%2 = load i64*, i64** %__y.addr, align 8, !tbaa !4813, !dbg !7625
	%3 = load i64, i64*  %2, align 8, !tbaa !4812, !dbg !7625
	%4 = icmp eq i64  %1,  %3, !dbg !7625
	%5 = zext i1  %4 to i32, !dbg !7625
	%6 = trunc i32  %5 to i8, !dbg !7625
	ret i8  %6, !dbg !7625
}
define linkonce_odr double* @_ZNSt14__array_traitsIdLm3EE6_S_refERA3_Kdm([3 x double]* %__t.arg, i64 %__n.arg) #0 inlinehint !dbg !7632 {
L.entry:
	%__t.addr = alloca [3 x double]*, align 8
	%__n.addr = alloca i64, align 8

	call void @llvm.dbg.declare (metadata [3 x double]** %__t.addr, metadata !7636, metadata !4805), !dbg !7633
	store [3 x double]* %__t.arg, [3 x double]** %__t.addr, align 8, !tbaa !4813
	call void @llvm.dbg.declare (metadata [3 x double]** %__t.addr, metadata !7637, metadata !4805), !dbg !7633
	call void @llvm.dbg.declare (metadata i64* %__n.addr, metadata !7638, metadata !4805), !dbg !7633
	store i64 %__n.arg, i64* %__n.addr, align 8, !tbaa !4812
	call void @llvm.dbg.declare (metadata i64* %__n.addr, metadata !7639, metadata !4805), !dbg !7633
	%0 = load [3 x double]*, [3 x double]** %__t.addr, align 8, !tbaa !4813, !dbg !7640
	%1 = bitcast [3 x double]*  %0 to i8*, !dbg !7640
	%2 = load i64, i64* %__n.addr, align 8, !tbaa !5343, !dbg !7640
	%3 = mul i64  %2, 8, !dbg !7640
	%4 = getelementptr i8, i8*  %1, i64  %3, !dbg !7640
	%5 = bitcast i8*  %4 to double*, !dbg !7640
	ret double*  %5, !dbg !7640
}
define linkonce_odr double* @_ZNSt5arrayIdLm3EE2atEm(%struct._ZSt5arrayIdLm3EE* %_T15361704_54321.arg, i64 %__n.arg) #0 inlinehint !dbg !7644 {
L.entry:
	%_T15361704_54321.addr = alloca %struct._ZSt5arrayIdLm3EE*, align 8
	%__n.addr = alloca i64, align 8

	call void @llvm.dbg.declare (metadata %struct._ZSt5arrayIdLm3EE** %_T15361704_54321.addr, metadata !7652, metadata !4805), !dbg !7645
	store %struct._ZSt5arrayIdLm3EE* %_T15361704_54321.arg, %struct._ZSt5arrayIdLm3EE** %_T15361704_54321.addr, align 8, !tbaa !4813
	call void @llvm.dbg.declare (metadata %struct._ZSt5arrayIdLm3EE** %_T15361704_54321.addr, metadata !7653, metadata !4805), !dbg !7645
	call void @llvm.dbg.declare (metadata i64* %__n.addr, metadata !7654, metadata !4805), !dbg !7645
	store i64 %__n.arg, i64* %__n.addr, align 8, !tbaa !4812
	call void @llvm.dbg.declare (metadata i64* %__n.addr, metadata !7655, metadata !4805), !dbg !7645
	%0 = load i64, i64* %__n.addr, align 8, !tbaa !5343, !dbg !7656
	%1 = icmp ult i64  %0, 3, !dbg !7656
	br i1  %1, label %L.B0025, label %L.B1935, !dbg !7656
L.B1935:
	%2 = bitcast [52 x i8]* @.S56649 to i8*, !dbg !7657
	call void (i8*, ...)  @_ZSt24__throw_out_of_range_fmtPKcz (i8*  %2, i64  %0, i64 3) noreturn, !dbg !7657
	br label %L.B0025
L.B0025:
	%3 = load %struct._ZSt5arrayIdLm3EE*, %struct._ZSt5arrayIdLm3EE** %_T15361704_54321.addr, align 8, !tbaa !4813, !dbg !7658
	%4 = bitcast %struct._ZSt5arrayIdLm3EE*  %3 to i8*, !dbg !7658
	%5 = load i64, i64* %__n.addr, align 8, !tbaa !5343, !dbg !7658
	%6 = mul i64  %5, 8, !dbg !7658
	%7 = getelementptr i8, i8*  %4, i64  %6, !dbg !7658
	%8 = bitcast i8*  %7 to double*, !dbg !7658
	ret double*  %8, !dbg !7658
}
define linkonce_odr double* @_ZNSt14__array_traitsIdLm59EE6_S_refERA59_Kdm([59 x double]* %__t.arg, i64 %__n.arg) #0 inlinehint !dbg !7664 {
L.entry:
	%__t.addr = alloca [59 x double]*, align 8
	%__n.addr = alloca i64, align 8

	call void @llvm.dbg.declare (metadata [59 x double]** %__t.addr, metadata !7668, metadata !4805), !dbg !7665
	store [59 x double]* %__t.arg, [59 x double]** %__t.addr, align 8, !tbaa !4813
	call void @llvm.dbg.declare (metadata [59 x double]** %__t.addr, metadata !7669, metadata !4805), !dbg !7665
	call void @llvm.dbg.declare (metadata i64* %__n.addr, metadata !7670, metadata !4805), !dbg !7665
	store i64 %__n.arg, i64* %__n.addr, align 8, !tbaa !4812
	call void @llvm.dbg.declare (metadata i64* %__n.addr, metadata !7671, metadata !4805), !dbg !7665
	%0 = load [59 x double]*, [59 x double]** %__t.addr, align 8, !tbaa !4813, !dbg !7672
	%1 = bitcast [59 x double]*  %0 to i8*, !dbg !7672
	%2 = load i64, i64* %__n.addr, align 8, !tbaa !5343, !dbg !7672
	%3 = mul i64  %2, 8, !dbg !7672
	%4 = getelementptr i8, i8*  %1, i64  %3, !dbg !7672
	%5 = bitcast i8*  %4 to double*, !dbg !7672
	ret double*  %5, !dbg !7672
}
define linkonce_odr double* @_ZNSt5arrayIdLm59EEixEm(%struct._ZSt5arrayIdLm59EE* %_T16174264_54326.arg, i64 %__n.arg) #0 inlinehint !dbg !7677 {
L.entry:
	%_T16174264_54326.addr = alloca %struct._ZSt5arrayIdLm59EE*, align 8
	%__n.addr = alloca i64, align 8

	call void @llvm.dbg.declare (metadata %struct._ZSt5arrayIdLm59EE** %_T16174264_54326.addr, metadata !7685, metadata !4805), !dbg !7678
	store %struct._ZSt5arrayIdLm59EE* %_T16174264_54326.arg, %struct._ZSt5arrayIdLm59EE** %_T16174264_54326.addr, align 8, !tbaa !4813
	call void @llvm.dbg.declare (metadata %struct._ZSt5arrayIdLm59EE** %_T16174264_54326.addr, metadata !7686, metadata !4805), !dbg !7678
	call void @llvm.dbg.declare (metadata i64* %__n.addr, metadata !7687, metadata !4805), !dbg !7678
	store i64 %__n.arg, i64* %__n.addr, align 8, !tbaa !4812
	call void @llvm.dbg.declare (metadata i64* %__n.addr, metadata !7688, metadata !4805), !dbg !7678
	%0 = load %struct._ZSt5arrayIdLm59EE*, %struct._ZSt5arrayIdLm59EE** %_T16174264_54326.addr, align 8, !tbaa !4813, !dbg !7689
	%1 = bitcast %struct._ZSt5arrayIdLm59EE*  %0 to i8*, !dbg !7689
	%2 = load i64, i64* %__n.addr, align 8, !tbaa !5343, !dbg !7689
	%3 = mul i64  %2, 8, !dbg !7689
	%4 = getelementptr i8, i8*  %1, i64  %3, !dbg !7689
	%5 = bitcast i8*  %4 to double*, !dbg !7689
	ret double*  %5, !dbg !7689
}
define linkonce_odr i32* @_ZNSt14__array_traitsIiLm27EE6_S_refERA27_Kim([27 x i32]* %__t.arg, i64 %__n.arg) #0 inlinehint !dbg !7694 {
L.entry:
	%__t.addr = alloca [27 x i32]*, align 8
	%__n.addr = alloca i64, align 8

	call void @llvm.dbg.declare (metadata [27 x i32]** %__t.addr, metadata !7698, metadata !4805), !dbg !7695
	store [27 x i32]* %__t.arg, [27 x i32]** %__t.addr, align 8, !tbaa !4813
	call void @llvm.dbg.declare (metadata [27 x i32]** %__t.addr, metadata !7699, metadata !4805), !dbg !7695
	call void @llvm.dbg.declare (metadata i64* %__n.addr, metadata !7700, metadata !4805), !dbg !7695
	store i64 %__n.arg, i64* %__n.addr, align 8, !tbaa !4812
	call void @llvm.dbg.declare (metadata i64* %__n.addr, metadata !7701, metadata !4805), !dbg !7695
	%0 = load [27 x i32]*, [27 x i32]** %__t.addr, align 8, !tbaa !4813, !dbg !7702
	%1 = bitcast [27 x i32]*  %0 to i8*, !dbg !7702
	%2 = load i64, i64* %__n.addr, align 8, !tbaa !5343, !dbg !7702
	%3 = mul i64  %2, 4, !dbg !7702
	%4 = getelementptr i8, i8*  %1, i64  %3, !dbg !7702
	%5 = bitcast i8*  %4 to i32*, !dbg !7702
	ret i32*  %5, !dbg !7702
}
define linkonce_odr i32* @_ZNSt5arrayIiLm27EEixEm(%struct._ZSt5arrayIiLm27EE* %_T16174264_54331.arg, i64 %__n.arg) #0 inlinehint !dbg !7707 {
L.entry:
	%_T16174264_54331.addr = alloca %struct._ZSt5arrayIiLm27EE*, align 8
	%__n.addr = alloca i64, align 8

	call void @llvm.dbg.declare (metadata %struct._ZSt5arrayIiLm27EE** %_T16174264_54331.addr, metadata !7715, metadata !4805), !dbg !7708
	store %struct._ZSt5arrayIiLm27EE* %_T16174264_54331.arg, %struct._ZSt5arrayIiLm27EE** %_T16174264_54331.addr, align 8, !tbaa !4813
	call void @llvm.dbg.declare (metadata %struct._ZSt5arrayIiLm27EE** %_T16174264_54331.addr, metadata !7716, metadata !4805), !dbg !7708
	call void @llvm.dbg.declare (metadata i64* %__n.addr, metadata !7717, metadata !4805), !dbg !7708
	store i64 %__n.arg, i64* %__n.addr, align 8, !tbaa !4812
	call void @llvm.dbg.declare (metadata i64* %__n.addr, metadata !7718, metadata !4805), !dbg !7708
	%0 = load %struct._ZSt5arrayIiLm27EE*, %struct._ZSt5arrayIiLm27EE** %_T16174264_54331.addr, align 8, !tbaa !4813, !dbg !7719
	%1 = bitcast %struct._ZSt5arrayIiLm27EE*  %0 to i8*, !dbg !7719
	%2 = load i64, i64* %__n.addr, align 8, !tbaa !5343, !dbg !7719
	%3 = mul i64  %2, 4, !dbg !7719
	%4 = getelementptr i8, i8*  %1, i64  %3, !dbg !7719
	%5 = bitcast i8*  %4 to i32*, !dbg !7719
	ret i32*  %5, !dbg !7719
}
define linkonce_odr i32* @_ZNSt14__array_traitsIiLm3EE6_S_refERA3_Kim([3 x i32]* %__t.arg, i64 %__n.arg) #0 inlinehint !dbg !7724 {
L.entry:
	%__t.addr = alloca [3 x i32]*, align 8
	%__n.addr = alloca i64, align 8

	call void @llvm.dbg.declare (metadata [3 x i32]** %__t.addr, metadata !7728, metadata !4805), !dbg !7725
	store [3 x i32]* %__t.arg, [3 x i32]** %__t.addr, align 8, !tbaa !4813
	call void @llvm.dbg.declare (metadata [3 x i32]** %__t.addr, metadata !7729, metadata !4805), !dbg !7725
	call void @llvm.dbg.declare (metadata i64* %__n.addr, metadata !7730, metadata !4805), !dbg !7725
	store i64 %__n.arg, i64* %__n.addr, align 8, !tbaa !4812
	call void @llvm.dbg.declare (metadata i64* %__n.addr, metadata !7731, metadata !4805), !dbg !7725
	%0 = load [3 x i32]*, [3 x i32]** %__t.addr, align 8, !tbaa !4813, !dbg !7732
	%1 = bitcast [3 x i32]*  %0 to i8*, !dbg !7732
	%2 = load i64, i64* %__n.addr, align 8, !tbaa !5343, !dbg !7732
	%3 = mul i64  %2, 4, !dbg !7732
	%4 = getelementptr i8, i8*  %1, i64  %3, !dbg !7732
	%5 = bitcast i8*  %4 to i32*, !dbg !7732
	ret i32*  %5, !dbg !7732
}
define linkonce_odr i32* @_ZNSt14__array_traitsIiLm3EE6_S_ptrERA3_Ki([3 x i32]* %__t.arg) #0 inlinehint !dbg !7736 {
L.entry:
	%__t.addr = alloca [3 x i32]*, align 8

	call void @llvm.dbg.declare (metadata [3 x i32]** %__t.addr, metadata !7740, metadata !4805), !dbg !7737
	store [3 x i32]* %__t.arg, [3 x i32]** %__t.addr, align 8, !tbaa !4813
	call void @llvm.dbg.declare (metadata [3 x i32]** %__t.addr, metadata !7741, metadata !4805), !dbg !7737
	%0 = load [3 x i32]*, [3 x i32]** %__t.addr, align 8, !tbaa !4813, !dbg !7742
	%1 = bitcast [3 x i32]*  %0 to i32*, !dbg !7742
	ret i32*  %1, !dbg !7742
}
define linkonce_odr i32* @_ZNSt5arrayIiLm3EEixEm(%struct._ZSt5arrayIiLm3EE* %_T16174264_54337.arg, i64 %__n.arg) #0 inlinehint !dbg !7746 {
L.entry:
	%_T16174264_54337.addr = alloca %struct._ZSt5arrayIiLm3EE*, align 8
	%__n.addr = alloca i64, align 8

	call void @llvm.dbg.declare (metadata %struct._ZSt5arrayIiLm3EE** %_T16174264_54337.addr, metadata !7754, metadata !4805), !dbg !7747
	store %struct._ZSt5arrayIiLm3EE* %_T16174264_54337.arg, %struct._ZSt5arrayIiLm3EE** %_T16174264_54337.addr, align 8, !tbaa !4813
	call void @llvm.dbg.declare (metadata %struct._ZSt5arrayIiLm3EE** %_T16174264_54337.addr, metadata !7755, metadata !4805), !dbg !7747
	call void @llvm.dbg.declare (metadata i64* %__n.addr, metadata !7756, metadata !4805), !dbg !7747
	store i64 %__n.arg, i64* %__n.addr, align 8, !tbaa !4812
	call void @llvm.dbg.declare (metadata i64* %__n.addr, metadata !7757, metadata !4805), !dbg !7747
	%0 = load %struct._ZSt5arrayIiLm3EE*, %struct._ZSt5arrayIiLm3EE** %_T16174264_54337.addr, align 8, !tbaa !4813, !dbg !7758
	%1 = bitcast %struct._ZSt5arrayIiLm3EE*  %0 to i8*, !dbg !7758
	%2 = load i64, i64* %__n.addr, align 8, !tbaa !5343, !dbg !7758
	%3 = mul i64  %2, 4, !dbg !7758
	%4 = getelementptr i8, i8*  %1, i64  %3, !dbg !7758
	%5 = bitcast i8*  %4 to i32*, !dbg !7758
	ret i32*  %5, !dbg !7758
}
define linkonce_odr i32* @_ZNSt5arrayIiLm3EE4dataEv(%struct._ZSt5arrayIiLm3EE* %_T15361704_54339.arg) #0 inlinehint !dbg !7762 {
L.entry:
	%_T15361704_54339.addr = alloca %struct._ZSt5arrayIiLm3EE*, align 8

	call void @llvm.dbg.declare (metadata %struct._ZSt5arrayIiLm3EE** %_T15361704_54339.addr, metadata !7770, metadata !4805), !dbg !7763
	store %struct._ZSt5arrayIiLm3EE* %_T15361704_54339.arg, %struct._ZSt5arrayIiLm3EE** %_T15361704_54339.addr, align 8, !tbaa !4813
	call void @llvm.dbg.declare (metadata %struct._ZSt5arrayIiLm3EE** %_T15361704_54339.addr, metadata !7771, metadata !4805), !dbg !7763
	%0 = load %struct._ZSt5arrayIiLm3EE*, %struct._ZSt5arrayIiLm3EE** %_T15361704_54339.addr, align 8, !tbaa !4813, !dbg !7772
	%1 = bitcast %struct._ZSt5arrayIiLm3EE*  %0 to i32*, !dbg !7772
	ret i32*  %1, !dbg !7772
}

%struct._ZSt12_Vector_baseIN7species7SpeciesESaIS1_EE = type <{ %struct._ZNSt12_Vector_baseIN7species7SpeciesESaIS1_EE12_Vector_implE}> 
%struct._ZN7species7SpeciesE = type <{ %struct._ZNSt7__cxx1112basic_stringIcSt11char_traitsIcESaIcEEE, double, double, double, i64, i32, i8, [3 x i8], i32, [4 x i8], double, double, double, double, double, %struct._ZSt5arrayIdLm3EE, double, double, double, double, i32, [4 x i8], double, double, double}> 
%struct._ZNSt12_Vector_baseIN7species7SpeciesESaIS1_EE12_Vector_implE = type <{ %struct._ZNSt12_Vector_baseIN7species7SpeciesESaIS1_EE17_Vector_impl_dataE}> 
%struct._ZNSt12_Vector_baseIN7species7SpeciesESaIS1_EE17_Vector_impl_dataE = type <{ %struct._ZN7species7SpeciesE*, %struct._ZN7species7SpeciesE*, %struct._ZN7species7SpeciesE*}> 
%struct._ZSt6vectorIN7species7SpeciesESaIS1_EE = type <{ %struct._ZSt12_Vector_baseIN7species7SpeciesESaIS1_EE}> 

define linkonce_odr i64 @_ZNKSt6vectorIN7species7SpeciesESaIS1_EE4sizeEv(%struct._ZSt6vectorIN7species7SpeciesESaIS1_EE* %_T15361704_54341.arg) #0 inlinehint !dbg !7777 {
L.entry:
	%_T15361704_54341.addr = alloca %struct._ZSt6vectorIN7species7SpeciesESaIS1_EE*, align 8
	%_T15362592_54341.addr = alloca i64, align 8

	call void @llvm.dbg.declare (metadata %struct._ZSt6vectorIN7species7SpeciesESaIS1_EE** %_T15361704_54341.addr, metadata !7781, metadata !4805), !dbg !7778
	store %struct._ZSt6vectorIN7species7SpeciesESaIS1_EE* %_T15361704_54341.arg, %struct._ZSt6vectorIN7species7SpeciesESaIS1_EE** %_T15361704_54341.addr, align 8, !tbaa !4813
	call void @llvm.dbg.declare (metadata %struct._ZSt6vectorIN7species7SpeciesESaIS1_EE** %_T15361704_54341.addr, metadata !7782, metadata !4805), !dbg !7778
	%0 = load %struct._ZSt6vectorIN7species7SpeciesESaIS1_EE*, %struct._ZSt6vectorIN7species7SpeciesESaIS1_EE** %_T15361704_54341.addr, align 8, !tbaa !4813, !dbg !7783
	%1 = bitcast %struct._ZSt6vectorIN7species7SpeciesESaIS1_EE*  %0 to i8*, !dbg !7783
	%2 = getelementptr i8, i8*  %1, i64 8, !dbg !7783
	%3 = bitcast i8*  %2 to i8**, !dbg !7783
	%4 = load i8*, i8**  %3, align 8, !tbaa !4813, !dbg !7783
	%5 = bitcast %struct._ZSt6vectorIN7species7SpeciesESaIS1_EE*  %0 to i8**, !dbg !7783
	%6 = load i8*, i8**  %5, align 8, !tbaa !4813, !dbg !7783
	%7 = ptrtoint i8*  %6 to i64, !dbg !7783
	%8 = sub i64 0,  %7, !dbg !7783
	%9 = getelementptr i8, i8*  %4, i64  %8, !dbg !7783
	%10 = ptrtoint i8*  %9 to i64, !dbg !7783
	%11 = sext i64 5675921253449092805 to i128, !dbg !7783
	%12 = sext i64  %10 to i128, !dbg !7783
	%13 = mul i128  %11,  %12, !dbg !7783
	%14 = ashr i128  %13, 64, !dbg !7783
	%15 = trunc i128  %14 to i64, !dbg !7783
	%16 = sext i32 6 to i64, !dbg !7783
	%17 = ashr i64  %15,  %16, !dbg !7783
	%18 = sub i64 0,  %7, !dbg !7783
	%19 = getelementptr i8, i8*  %4, i64  %18, !dbg !7783
	%20 = ptrtoint i8*  %19 to i64, !dbg !7783
	%21 = sext i32 63 to i64, !dbg !7783
	%22 = ashr i64  %20,  %21, !dbg !7783
	%23 = sub i64  %17,  %22, !dbg !7783
	ret i64  %23, !dbg !7783
}
define linkonce_odr %struct._ZN7species7SpeciesE* @_ZNSt6vectorIN7species7SpeciesESaIS1_EEixEm(%struct._ZSt6vectorIN7species7SpeciesESaIS1_EE* %_T16174264_54344.arg, i64 %__n.arg) #0 inlinehint !dbg !7787 {
L.entry:
	%_T16174264_54344.addr = alloca %struct._ZSt6vectorIN7species7SpeciesESaIS1_EE*, align 8
	%__n.addr = alloca i64, align 8

