; ModuleID = 'projects/Distributions/Distributions.cpp'
target datalayout = "e-p:64:64-i64:64-f80:128-n8:16:32:64-S128"
target triple = "x86_64-pc-linux-gnu"
define internal void @pgCplus_compiled.() noinline {
L.entry:
	ret void
}


define linkonce_odr i8* @_ZnwmPv(i64 %_T39833128_52647.arg, i8* %__p.arg) #0 inlinehint !dbg !4066 {
L.entry:
	%_T39833128_52647.addr = alloca i64, align 8
	%__p.addr = alloca i8*, align 8

	call void @llvm.dbg.declare (metadata i64* %_T39833128_52647.addr, metadata !4070, metadata !4071), !dbg !4067
	store i64 %_T39833128_52647.arg, i64* %_T39833128_52647.addr, align 8, !tbaa !4078
	call void @llvm.dbg.declare (metadata i64* %_T39833128_52647.addr, metadata !4072, metadata !4071), !dbg !4067
	call void @llvm.dbg.declare (metadata i8** %__p.addr, metadata !4073, metadata !4071), !dbg !4067
	store i8* %__p.arg, i8** %__p.addr, align 8, !tbaa !4079
	call void @llvm.dbg.declare (metadata i8** %__p.addr, metadata !4074, metadata !4071), !dbg !4067
	%0 = load i8*, i8** %__p.addr, align 8, !tbaa !4079, !dbg !4075
	ret i8*  %0, !dbg !4075
}
define linkonce_odr void @_ZdlPvS_(i8* %_T39833128_52648.arg, i8* %_T39833424_52648.arg) #0 inlinehint !dbg !4083 {
L.entry:
	%_T39833128_52648.addr = alloca i8*, align 8
	%_T39833424_52648.addr = alloca i8*, align 8

	call void @llvm.dbg.declare (metadata i8** %_T39833128_52648.addr, metadata !4087, metadata !4071), !dbg !4084
	store i8* %_T39833128_52648.arg, i8** %_T39833128_52648.addr, align 8, !tbaa !4079
	call void @llvm.dbg.declare (metadata i8** %_T39833128_52648.addr, metadata !4088, metadata !4071), !dbg !4084
	call void @llvm.dbg.declare (metadata i8** %_T39833424_52648.addr, metadata !4089, metadata !4071), !dbg !4084
	store i8* %_T39833424_52648.arg, i8** %_T39833424_52648.addr, align 8, !tbaa !4079
	call void @llvm.dbg.declare (metadata i8** %_T39833424_52648.addr, metadata !4090, metadata !4071), !dbg !4084
	ret void, !dbg !4091
}

%struct.T3DFunction = type <{ i32 (...)* (...)*}> 

define linkonce_odr void @_ZN11T3DFunctionD1Ev(%struct.T3DFunction* %_T39833128_53035.arg) #0 inlinehint !dbg !4097 {
L.entry:
	%_T39833128_53035.addr = alloca %struct.T3DFunction*, align 8

	call void @llvm.dbg.declare (metadata %struct.T3DFunction** %_T39833128_53035.addr, metadata !4101, metadata !4071), !dbg !4098
	store %struct.T3DFunction* %_T39833128_53035.arg, %struct.T3DFunction** %_T39833128_53035.addr, align 8, !tbaa !4079
	call void @llvm.dbg.declare (metadata %struct.T3DFunction** %_T39833128_53035.addr, metadata !4102, metadata !4071), !dbg !4098
	%0 = bitcast [5 x i32 (...)* (...)*]* @_ZTV11T3DFunction to i8*, !dbg !4103
	%1 = getelementptr i8, i8*  %0, i64 16, !dbg !4103
	%2 = load %struct.T3DFunction*, %struct.T3DFunction** %_T39833128_53035.addr, align 8, !tbaa !4079, !dbg !4103
	%3 = bitcast %struct.T3DFunction*  %2 to i8**, !dbg !4103
	store i8*  %1, i8**  %3, align 8, !tbaa !4079, !dbg !4103
	ret void, !dbg !4103
}
define linkonce_odr void @_ZN11T3DFunctionD0Ev(%struct.T3DFunction* %_T39833128_53036.arg) #0 inlinehint !dbg !4108 {
L.entry:
	%_T39833128_53036.addr = alloca %struct.T3DFunction*, align 8

	store %struct.T3DFunction* %_T39833128_53036.arg, %struct.T3DFunction** %_T39833128_53036.addr, align 8, !tbaa !4079
	%0 = bitcast [5 x i32 (...)* (...)*]* @_ZTV11T3DFunction to i8*, !dbg !4116
	%1 = getelementptr i8, i8*  %0, i64 16, !dbg !4116
	%2 = load %struct.T3DFunction*, %struct.T3DFunction** %_T39833128_53036.addr, align 8, !tbaa !4079, !dbg !4116
	%3 = bitcast %struct.T3DFunction*  %2 to i8**, !dbg !4116
	store i8*  %1, i8**  %3, align 8, !tbaa !4079, !dbg !4116
	%4 = bitcast %struct.T3DFunction*  %2 to i8*, !dbg !4116
	call void  @_ZdlPvm (i8*  %4, i64 8) nounwind, !dbg !4116
	ret void, !dbg !4116
}
define linkonce_odr void @_ZN11T3DFunctionD2Ev(%struct.T3DFunction* %_T39833128_53037.arg) #0 inlinehint !dbg !4118 {
L.entry:
	%_T39833128_53037.addr = alloca %struct.T3DFunction*, align 8

	store %struct.T3DFunction* %_T39833128_53037.arg, %struct.T3DFunction** %_T39833128_53037.addr, align 8, !tbaa !4079
	%0 = bitcast [5 x i32 (...)* (...)*]* @_ZTV11T3DFunction to i8*, !dbg !4126
	%1 = getelementptr i8, i8*  %0, i64 16, !dbg !4126
	%2 = load %struct.T3DFunction*, %struct.T3DFunction** %_T39833128_53037.addr, align 8, !tbaa !4079, !dbg !4126
	%3 = bitcast %struct.T3DFunction*  %2 to i8**, !dbg !4126
	store i8*  %1, i8**  %3, align 8, !tbaa !4079, !dbg !4126
	ret void, !dbg !4126
}
define linkonce_odr void @_ZN11T3DFunctionC1Ev(%struct.T3DFunction* %_T39833128_53038.arg) #0 inlinehint !dbg !4128 {
L.entry:
	%_T39833128_53038.addr = alloca %struct.T3DFunction*, align 8

	call void @llvm.dbg.declare (metadata %struct.T3DFunction** %_T39833128_53038.addr, metadata !4132, metadata !4071), !dbg !4129
	store %struct.T3DFunction* %_T39833128_53038.arg, %struct.T3DFunction** %_T39833128_53038.addr, align 8, !tbaa !4079
	call void @llvm.dbg.declare (metadata %struct.T3DFunction** %_T39833128_53038.addr, metadata !4133, metadata !4071), !dbg !4129
	%0 = bitcast [5 x i32 (...)* (...)*]* @_ZTV11T3DFunction to i8*, !dbg !4134
	%1 = getelementptr i8, i8*  %0, i64 16, !dbg !4134
	%2 = load %struct.T3DFunction*, %struct.T3DFunction** %_T39833128_53038.addr, align 8, !tbaa !4079, !dbg !4134
	%3 = bitcast %struct.T3DFunction*  %2 to i8**, !dbg !4134
	store i8*  %1, i8**  %3, align 8, !tbaa !4079, !dbg !4134
	ret void, !dbg !4134
}
define linkonce_odr void @_ZN11T3DFunctionC2Ev(%struct.T3DFunction* %_T39833128_53039.arg) #0 inlinehint !dbg !4136 {
L.entry:
	%_T39833128_53039.addr = alloca %struct.T3DFunction*, align 8

	store %struct.T3DFunction* %_T39833128_53039.arg, %struct.T3DFunction** %_T39833128_53039.addr, align 8, !tbaa !4079
	%0 = bitcast [5 x i32 (...)* (...)*]* @_ZTV11T3DFunction to i8*, !dbg !4144
	%1 = getelementptr i8, i8*  %0, i64 16, !dbg !4144
	%2 = load %struct.T3DFunction*, %struct.T3DFunction** %_T39833128_53039.addr, align 8, !tbaa !4079, !dbg !4144
	%3 = bitcast %struct.T3DFunction*  %2 to i8**, !dbg !4144
	store i8*  %1, i8**  %3, align 8, !tbaa !4079, !dbg !4144
	ret void, !dbg !4144
}

%astruct.dt64 = type <{ i8*, i32}> 
%struct.FieldFunction = type <{ %struct.T3DFunction, i32, i32, i32, [4 x i8]}> 

define linkonce_odr void @_ZN13FieldFunctionC1Ev(%struct.FieldFunction* %_T39833128_53040.arg) #0 inlinehint personality i8* bitcast (i32 (...)* @__gxx_personality_v0 to i8*) !dbg !4151 {
L.entry:
	%_T39833128_53040.addr = alloca %struct.FieldFunction*, align 8

	call void @llvm.dbg.declare (metadata %struct.FieldFunction** %_T39833128_53040.addr, metadata !4207, metadata !4071), !dbg !4152
	store %struct.FieldFunction* %_T39833128_53040.arg, %struct.FieldFunction** %_T39833128_53040.addr, align 8, !tbaa !4079
	call void @llvm.dbg.declare (metadata %struct.FieldFunction** %_T39833128_53040.addr, metadata !4208, metadata !4071), !dbg !4152
	%0 = bitcast [5 x i32 (...)* (...)*]* @_ZTV11T3DFunction to i8*, !dbg !4209
	%1 = getelementptr i8, i8*  %0, i64 16, !dbg !4209
	%2 = load %struct.FieldFunction*, %struct.FieldFunction** %_T39833128_53040.addr, align 8, !tbaa !4079, !dbg !4209
	%3 = bitcast %struct.FieldFunction*  %2 to i8**, !dbg !4209
	store i8*  %1, i8**  %3, align 8, !tbaa !4079, !dbg !4209
	%4 = bitcast [5 x i32 (...)* (...)*]* @_ZTV13FieldFunction to i8*, !dbg !4209
	%5 = getelementptr i8, i8*  %4, i64 16, !dbg !4209
	store i8*  %5, i8**  %3, align 8, !tbaa !4079, !dbg !4209
	%6 = bitcast %struct.FieldFunction*  %2 to i8*, !dbg !4212
	%7 = getelementptr i8, i8*  %6, i64 8, !dbg !4212
	%8 = bitcast i8*  %7 to i32*, !dbg !4212
	store i32 0, i32*  %8, align 4, !tbaa !4078, !dbg !4212
	%9 = getelementptr i8, i8*  %6, i64 12, !dbg !4213
	%10 = bitcast i8*  %9 to i32*, !dbg !4213
	store i32 0, i32*  %10, align 4, !tbaa !4078, !dbg !4213
	%11 = getelementptr i8, i8*  %6, i64 16, !dbg !4214
	%12 = bitcast i8*  %11 to i32*, !dbg !4214
	store i32 0, i32*  %12, align 4, !tbaa !4078, !dbg !4214
	br label %L.R0007, !dbg !4214
L_T39834016_53040:
	%13 = landingpad %astruct.dt64
	cleanup
	br label %L.R0007
L.R0007:
	ret void, !dbg !4215
}
define linkonce_odr void @_ZN13FieldFunctionC2Ev(%struct.FieldFunction* %_T39833128_53041.arg) #0 inlinehint !dbg !4217 {
L.entry:
	%_T39833128_53041.addr = alloca %struct.FieldFunction*, align 8

	store %struct.FieldFunction* %_T39833128_53041.arg, %struct.FieldFunction** %_T39833128_53041.addr, align 8, !tbaa !4079
	%0 = load %struct.FieldFunction*, %struct.FieldFunction** %_T39833128_53041.addr, align 8, !tbaa !4079, !dbg !4221
	call void  @_ZN13FieldFunctionC1Ev (%struct.FieldFunction*  %0), !dbg !4221
	ret void, !dbg !4221
}
define linkonce_odr void @_ZN13FieldFunction12setComponentE10coordinate(%struct.FieldFunction* %_T39833128_53042.arg, i32 zeroext %fComponent.arg) #0 inlinehint !dbg !4225 {
L.entry:
	%_T39833128_53042.addr = alloca %struct.FieldFunction*, align 8
	%fComponent.addr = alloca i32, align 4

	call void @llvm.dbg.declare (metadata %struct.FieldFunction** %_T39833128_53042.addr, metadata !4229, metadata !4071), !dbg !4226
	store %struct.FieldFunction* %_T39833128_53042.arg, %struct.FieldFunction** %_T39833128_53042.addr, align 8, !tbaa !4079
	call void @llvm.dbg.declare (metadata %struct.FieldFunction** %_T39833128_53042.addr, metadata !4230, metadata !4071), !dbg !4226
	call void @llvm.dbg.declare (metadata i32* %fComponent.addr, metadata !4231, metadata !4071), !dbg !4226
	store i32 %fComponent.arg, i32* %fComponent.addr, align 4, !tbaa !4078
	call void @llvm.dbg.declare (metadata i32* %fComponent.addr, metadata !4232, metadata !4071), !dbg !4226
	%0 = load i32, i32* %fComponent.addr, align 4, !tbaa !4078, !dbg !4233
	%1 = load %struct.FieldFunction*, %struct.FieldFunction** %_T39833128_53042.addr, align 8, !tbaa !4079, !dbg !4233
	%2 = bitcast %struct.FieldFunction*  %1 to i8*, !dbg !4233
	%3 = getelementptr i8, i8*  %2, i64 8, !dbg !4233
	%4 = bitcast i8*  %3 to i32*, !dbg !4233
	store i32  %0, i32*  %4, align 4, !tbaa !4078, !dbg !4233
	ret void, !dbg !4233
}
define linkonce_odr void @_ZN13FieldFunction17setDerivComponentE10coordinate(%struct.FieldFunction* %_T39833128_53043.arg, i32 zeroext %dComponent.arg) #0 inlinehint !dbg !4235 {
L.entry:
	%_T39833128_53043.addr = alloca %struct.FieldFunction*, align 8
	%dComponent.addr = alloca i32, align 4

	call void @llvm.dbg.declare (metadata %struct.FieldFunction** %_T39833128_53043.addr, metadata !4239, metadata !4071), !dbg !4236
	store %struct.FieldFunction* %_T39833128_53043.arg, %struct.FieldFunction** %_T39833128_53043.addr, align 8, !tbaa !4079
	call void @llvm.dbg.declare (metadata %struct.FieldFunction** %_T39833128_53043.addr, metadata !4240, metadata !4071), !dbg !4236
	call void @llvm.dbg.declare (metadata i32* %dComponent.addr, metadata !4241, metadata !4071), !dbg !4236
	store i32 %dComponent.arg, i32* %dComponent.addr, align 4, !tbaa !4078
	call void @llvm.dbg.declare (metadata i32* %dComponent.addr, metadata !4242, metadata !4071), !dbg !4236
	%0 = load i32, i32* %dComponent.addr, align 4, !tbaa !4078, !dbg !4243
	%1 = load %struct.FieldFunction*, %struct.FieldFunction** %_T39833128_53043.addr, align 8, !tbaa !4079, !dbg !4243
	%2 = bitcast %struct.FieldFunction*  %1 to i8*, !dbg !4243
	%3 = getelementptr i8, i8*  %2, i64 12, !dbg !4243
	%4 = bitcast i8*  %3 to i32*, !dbg !4243
	store i32  %0, i32*  %4, align 4, !tbaa !4078, !dbg !4243
	ret void, !dbg !4243
}

%struct._ZNSt6locale5facetE = type <{ i32 (...)* (...)*, i32, [4 x i8]}> 
%struct._ZSt15basic_streambufIcSt11char_traitsIcEE = type <{ i32 (...)* (...)*, i8*, i8*, i8*, i8*, i8*, i8*, %struct._ZSt6locale}> 
%struct.__locale_data = type opaque
%struct._ZSt7num_putIcSt19ostreambuf_iteratorIcSt11char_traitsIcEEE = type <{ %struct.__SO__NSt6locale5facetE, [4 x i8]}> 
%struct._ZSo = type <{ i32 (...)* (...)*, %struct._ZSt9basic_iosIcSt11char_traitsIcEE}> 
%struct._ZSt6locale = type <{ %struct._ZNSt6locale5_ImplE*}> 
%struct._ZSt9basic_iosIcSt11char_traitsIcEE = type <{ %struct._ZSt8ios_base, %struct._ZSo*, i8, i8, [6 x i8], %struct._ZSt15basic_streambufIcSt11char_traitsIcEE*, %struct._ZSt5ctypeIcE*, %struct._ZSt7num_putIcSt19ostreambuf_iteratorIcSt11char_traitsIcEEE*, %struct._ZSt7num_getIcSt19istreambuf_iteratorIcSt11char_traitsIcEEE*}> 
%struct.__locale_struct = type <{ [13 x %struct.__locale_data*], i16*, i32*, i32*, [13 x i8*]}> 
%struct._ZNSt8ios_base14_Callback_listE = type <{ %struct._ZNSt8ios_base14_Callback_listE*, void (i32, %struct._ZSt8ios_base*, i32)*, i32, i32}> 
%struct.__SO__NSt6locale5facetE = type <{ i32 (...)* (...)*, i32}> 
%struct._ZNSt8ios_base6_WordsE = type <{ i8*, i64}> 
%struct._ZNSt6locale5_ImplE = type <{ i32, [4 x i8], %struct._ZNSt6locale5facetE**, i64, %struct._ZNSt6locale5facetE**, i8**}> 
%struct._ZSt8ios_base = type <{ i32 (...)* (...)*, i64, i64, i32, i32, i32, [4 x i8], %struct._ZNSt8ios_base14_Callback_listE*, %struct._ZNSt8ios_base6_WordsE, [8 x %struct._ZNSt8ios_base6_WordsE], i32, [4 x i8], %struct._ZNSt8ios_base6_WordsE*, %struct._ZSt6locale}> 
%struct._ZSt5ctypeIcE = type <{ %struct.__SO__NSt6locale5facetE, [4 x i8], %struct.__locale_struct*, i8, [7 x i8], i32*, i32*, i16*, i8, [256 x i8], [256 x i8], i8, [6 x i8]}> 
%struct._ZSt7num_getIcSt19istreambuf_iteratorIcSt11char_traitsIcEEE = type <{ %struct.__SO__NSt6locale5facetE, [4 x i8]}> 

define linkonce_odr void @_ZN13FieldFunction13setDerivativeEj(%struct.FieldFunction* %_T39833312_53044.arg, i32 zeroext %derivative.arg) #0 inlinehint !dbg !4247 {
L.entry:
	%_T39833312_53044.addr = alloca %struct.FieldFunction*, align 8
	%derivative.addr = alloca i32, align 4
	%..inline.addr = alloca %struct._ZSt9basic_iosIcSt11char_traitsIcEE*, align 8
	%..inline.addr.1 = alloca %struct._ZSt9basic_iosIcSt11char_traitsIcEE*, align 8
	%..inline.addr.2 = alloca i32, align 4
	%..inline.addr.3 = alloca i64, align 8
	%.Q0003.addr = alloca %struct._ZSo*, align 8
	%..inline.addr.4 = alloca i32, align 4
	%.Q0004.addr = alloca %struct._ZSo*, align 8
	%..inline.addr.5 = alloca %struct._ZSo*, align 8
	%.Q0005.addr = alloca %struct._ZSo*, align 8

	call void @llvm.dbg.declare (metadata %struct.FieldFunction** %_T39833312_53044.addr, metadata !4279, metadata !4071), !dbg !4248
	store %struct.FieldFunction* %_T39833312_53044.arg, %struct.FieldFunction** %_T39833312_53044.addr, align 8, !tbaa !4079
	call void @llvm.dbg.declare (metadata %struct.FieldFunction** %_T39833312_53044.addr, metadata !4280, metadata !4071), !dbg !4248
	call void @llvm.dbg.declare (metadata i32* %derivative.addr, metadata !4281, metadata !4071), !dbg !4248
	store i32 %derivative.arg, i32* %derivative.addr, align 4, !tbaa !4078
	call void @llvm.dbg.declare (metadata i32* %derivative.addr, metadata !4282, metadata !4071), !dbg !4248
	%0 = load i32, i32* %derivative.addr, align 4, !tbaa !4296, !dbg !4283
	%1 = load %struct.FieldFunction*, %struct.FieldFunction** %_T39833312_53044.addr, align 8, !tbaa !4079, !dbg !4283
	%2 = bitcast %struct.FieldFunction*  %1 to i8*, !dbg !4283
	%3 = getelementptr i8, i8*  %2, i64 16, !dbg !4283
	%4 = bitcast i8*  %3 to i32*, !dbg !4283
	store i32  %0, i32*  %4, align 4, !tbaa !4078, !dbg !4283
	%5 = icmp ule i32  %0, 1, !dbg !4284
	br i1  %5, label %L.B0000, label %L.B0001, !dbg !4284
L.B0001:
	%6 = bitcast [36 x i8]* @.S54592 to i8*, !dbg !4285
	%7 = icmp ne i8*  %6,  null, !dbg !4285
	br i1  %7, label %L..inline.72133, label %L.B1333, !dbg !4285
L.B1333:
	%8 = bitcast %struct._ZSo* @_ZSt4cerr to i8*, !dbg !4286
	%9 = bitcast %struct._ZSo* @_ZSt4cerr to i8**, !dbg !4286
	%10 = load i8*, i8**  %9, align 8, !tbaa !4079, !dbg !4286
	%11 = getelementptr i8, i8*  %10, i64 18446744073709551592, !dbg !4286
	%12 = bitcast i8*  %11 to i64*, !dbg !4286
	%13 = load i64, i64*  %12, align 8, !tbaa !4078, !dbg !4286
	%14 = getelementptr i8, i8*  %8, i64  %13, !dbg !4286
	%15 = bitcast %struct._ZSt9basic_iosIcSt11char_traitsIcEE** %..inline.addr to i8**, !dbg !4286
	store i8*  %14, i8**  %15, align 8, !tbaa !4079, !dbg !4286
	%16 = load %struct._ZSt9basic_iosIcSt11char_traitsIcEE*, %struct._ZSt9basic_iosIcSt11char_traitsIcEE** %..inline.addr, align 8, !tbaa !4079, !dbg !4286
	%17 = bitcast %struct._ZSt9basic_iosIcSt11char_traitsIcEE*  %16 to i8*, !dbg !4286
	%18 = bitcast %struct._ZSt9basic_iosIcSt11char_traitsIcEE** %..inline.addr.1 to i8**, !dbg !4286
	store i8*  %17, i8**  %18, align 8, !tbaa !4079, !dbg !4286
	%19 = load %struct._ZSt9basic_iosIcSt11char_traitsIcEE*, %struct._ZSt9basic_iosIcSt11char_traitsIcEE** %..inline.addr.1, align 8, !tbaa !4079, !dbg !4286
	%20 = bitcast %struct._ZSt9basic_iosIcSt11char_traitsIcEE*  %19 to i8*, !dbg !4286
	%21 = getelementptr i8, i8*  %20, i64 32, !dbg !4286
	%22 = bitcast i8*  %21 to i32*, !dbg !4286
	%23 = load i32, i32*  %22, align 4, !tbaa !4078, !dbg !4286
	%24 = or i32  %23, 1, !dbg !4286
	call void  @_ZNSt9basic_iosIcSt11char_traitsIcEE5clearESt12_Ios_Iostate (%struct._ZSt9basic_iosIcSt11char_traitsIcEE*  %16, i32  %24), !dbg !4286
	br label %L..inline.72154, !dbg !4286
L..inline.72133:
	%25 = bitcast [36 x i8]* @.S54592 to i8*, !dbg !4289
	%26 = call i64  @strlen (i8*  %25) nounwind, !dbg !4289
	%27 = call %struct._ZSo*  @_ZSt16__ostream_insertIcSt11char_traitsIcEERSt13basic_ostreamIT_T0_ES6_PKS3_l (%struct._ZSo* @_ZSt4cerr, i8*  %25, i64  %26), !dbg !4289
	%28 = bitcast %struct._ZSo*  %27 to i8*, !dbg !4289
	%29 = bitcast %struct._ZSo** %.Q0003.addr to i8**, !dbg !4289
	store i8*  %28, i8**  %29, align 8, !tbaa !4079, !dbg !4289
	br label %L..inline.72154
L..inline.72154:
	%30 = load i32, i32* %derivative.addr, align 4, !tbaa !4296, !dbg !4290
	%31 = zext i32  %30 to i64, !dbg !4291
	%32 = call %struct._ZSo*  @_ZNSo9_M_insertImEERSoT_ (%struct._ZSo* @_ZSt4cerr, i64  %31), !dbg !4291
	%33 = bitcast %struct._ZSo*  %32 to i8*, !dbg !4291
	%34 = bitcast %struct._ZSo** %.Q0004.addr to i8**, !dbg !4291
	store i8*  %33, i8**  %34, align 8, !tbaa !4079, !dbg !4291
	%35 = load %struct._ZSo*, %struct._ZSo** %.Q0004.addr, align 8, !tbaa !4079, !dbg !4291
	%36 = bitcast %struct._ZSo*  %35 to i8*, !dbg !4291
	%37 = bitcast %struct._ZSo** %..inline.addr.5 to i8**, !dbg !4291
	store i8*  %36, i8**  %37, align 8, !tbaa !4079, !dbg !4291
	%38 = load %struct._ZSo*, %struct._ZSo** %..inline.addr.5, align 8, !tbaa !4079, !dbg !4292
	%39 = call %struct._ZSo*  @_ZSt4endlIcSt11char_traitsIcEERSt13basic_ostreamIT_T0_ES6_ (%struct._ZSo*  %38), !dbg !4292
	%40 = bitcast %struct._ZSo*  %39 to i8*, !dbg !4292
	%41 = bitcast %struct._ZSo** %.Q0005.addr to i8**, !dbg !4292
	store i8*  %40, i8**  %41, align 8, !tbaa !4079, !dbg !4292
	call void  @exit (i32 1) nounwind noreturn, !dbg !4293
	br label %L.B0002
L.B0002:
	br label %L.B0000
L.B0000:
	ret void, !dbg !4294
}
define linkonce_odr void @_ZN13FieldFunctionD1Ev(%struct.FieldFunction* %_T39833128_53045.arg) #0 inlinehint !dbg !4298 {
L.entry:
	%_T39833128_53045.addr = alloca %struct.FieldFunction*, align 8

	call void @llvm.dbg.declare (metadata %struct.FieldFunction** %_T39833128_53045.addr, metadata !4310, metadata !4071), !dbg !4299
	store %struct.FieldFunction* %_T39833128_53045.arg, %struct.FieldFunction** %_T39833128_53045.addr, align 8, !tbaa !4079
	call void @llvm.dbg.declare (metadata %struct.FieldFunction** %_T39833128_53045.addr, metadata !4311, metadata !4071), !dbg !4299
	%0 = bitcast [5 x i32 (...)* (...)*]* @_ZTV13FieldFunction to i8*, !dbg !4312
	%1 = getelementptr i8, i8*  %0, i64 16, !dbg !4312
	%2 = load %struct.FieldFunction*, %struct.FieldFunction** %_T39833128_53045.addr, align 8, !tbaa !4079, !dbg !4312
	%3 = bitcast %struct.FieldFunction*  %2 to i8**, !dbg !4312
	store i8*  %1, i8**  %3, align 8, !tbaa !4079, !dbg !4312
	%4 = bitcast [5 x i32 (...)* (...)*]* @_ZTV11T3DFunction to i8*, !dbg !4312
	%5 = getelementptr i8, i8*  %4, i64 16, !dbg !4312
	store i8*  %5, i8**  %3, align 8, !tbaa !4079, !dbg !4312
	ret void, !dbg !4313
}
define linkonce_odr void @_ZN13FieldFunctionD0Ev(%struct.FieldFunction* %_T39833128_53046.arg) #0 inlinehint !dbg !4315 {
L.entry:
	%_T39833128_53046.addr = alloca %struct.FieldFunction*, align 8
	%..inline.addr = alloca %struct.FieldFunction*, align 8

	store %struct.FieldFunction* %_T39833128_53046.arg, %struct.FieldFunction** %_T39833128_53046.addr, align 8, !tbaa !4079
	%0 = load %struct.FieldFunction*, %struct.FieldFunction** %_T39833128_53046.addr, align 8, !tbaa !4079, !dbg !4331
	%1 = bitcast %struct.FieldFunction*  %0 to i8*, !dbg !4331
	%2 = bitcast %struct.FieldFunction** %..inline.addr to i8**, !dbg !4331
	store i8*  %1, i8**  %2, align 8, !tbaa !4079, !dbg !4331
	%3 = bitcast [5 x i32 (...)* (...)*]* @_ZTV13FieldFunction to i8*, !dbg !4331
	%4 = getelementptr i8, i8*  %3, i64 16, !dbg !4331
	%5 = load %struct.FieldFunction*, %struct.FieldFunction** %..inline.addr, align 8, !tbaa !4079, !dbg !4331
	%6 = bitcast %struct.FieldFunction*  %5 to i8**, !dbg !4331
	store i8*  %4, i8**  %6, align 8, !tbaa !4079, !dbg !4331
	%7 = bitcast [5 x i32 (...)* (...)*]* @_ZTV11T3DFunction to i8*, !dbg !4331
	%8 = getelementptr i8, i8*  %7, i64 16, !dbg !4331
	store i8*  %8, i8**  %6, align 8, !tbaa !4079, !dbg !4331
	call void  @_ZdlPvm (i8*  %1, i64 24) nounwind, !dbg !4331
	ret void, !dbg !4331
}
define linkonce_odr void @_ZN13FieldFunctionD2Ev(%struct.FieldFunction* %_T39833128_53047.arg) #0 inlinehint !dbg !4333 {
L.entry:
	%_T39833128_53047.addr = alloca %struct.FieldFunction*, align 8
	%..inline.addr = alloca %struct.FieldFunction*, align 8

	store %struct.FieldFunction* %_T39833128_53047.arg, %struct.FieldFunction** %_T39833128_53047.addr, align 8, !tbaa !4079
	%0 = load %struct.FieldFunction*, %struct.FieldFunction** %_T39833128_53047.addr, align 8, !tbaa !4079, !dbg !4349
	%1 = bitcast %struct.FieldFunction*  %0 to i8*, !dbg !4349
	%2 = bitcast %struct.FieldFunction** %..inline.addr to i8**, !dbg !4349
	store i8*  %1, i8**  %2, align 8, !tbaa !4079, !dbg !4349
	%3 = bitcast [5 x i32 (...)* (...)*]* @_ZTV13FieldFunction to i8*, !dbg !4349
	%4 = getelementptr i8, i8*  %3, i64 16, !dbg !4349
	%5 = load %struct.FieldFunction*, %struct.FieldFunction** %..inline.addr, align 8, !tbaa !4079, !dbg !4349
	%6 = bitcast %struct.FieldFunction*  %5 to i8**, !dbg !4349
	store i8*  %4, i8**  %6, align 8, !tbaa !4079, !dbg !4349
	%7 = bitcast [5 x i32 (...)* (...)*]* @_ZTV11T3DFunction to i8*, !dbg !4349
	%8 = getelementptr i8, i8*  %7, i64 16, !dbg !4349
	store i8*  %8, i8**  %6, align 8, !tbaa !4079, !dbg !4349
	ret void, !dbg !4349
}

%struct.ConstantField = type <{ %struct.__SO__13FieldFunction, i8, [3 x i8], [3 x double]}> 
%struct.__SO__13FieldFunction = type <{ %struct.T3DFunction, i32, i32, i32}> 

define linkonce_odr void @_ZN13ConstantFieldC1Ev(%struct.ConstantField* %_T39833312_53048.arg) #0 inlinehint !dbg !4356 {
L.entry:
	%_T39833312_53048.addr = alloca %struct.ConstantField*, align 8
	%..inline.addr = alloca %struct.FieldFunction*, align 8

	call void @llvm.dbg.declare (metadata %struct.ConstantField** %_T39833312_53048.addr, metadata !4364, metadata !4071), !dbg !4357
	store %struct.ConstantField* %_T39833312_53048.arg, %struct.ConstantField** %_T39833312_53048.addr, align 8, !tbaa !4079
	call void @llvm.dbg.declare (metadata %struct.ConstantField** %_T39833312_53048.addr, metadata !4365, metadata !4071), !dbg !4357
	%0 = load %struct.ConstantField*, %struct.ConstantField** %_T39833312_53048.addr, align 8, !tbaa !4079, !dbg !4366
	%1 = bitcast %struct.ConstantField*  %0 to i8*, !dbg !4366
	%2 = bitcast %struct.FieldFunction** %..inline.addr to i8**, !dbg !4366
	store i8*  %1, i8**  %2, align 8, !tbaa !4079, !dbg !4366
	%3 = load %struct.FieldFunction*, %struct.FieldFunction** %..inline.addr, align 8, !tbaa !4079, !dbg !4366
	call void  @_ZN13FieldFunctionC1Ev (%struct.FieldFunction*  %3), !dbg !4366
	%4 = bitcast [5 x i32 (...)* (...)*]* @_ZTV13ConstantField to i8*, !dbg !4366
	%5 = getelementptr i8, i8*  %4, i64 16, !dbg !4366
	%6 = load %struct.ConstantField*, %struct.ConstantField** %_T39833312_53048.addr, align 8, !tbaa !4079, !dbg !4366
	%7 = bitcast %struct.ConstantField*  %6 to i8**, !dbg !4366
	store i8*  %5, i8**  %7, align 8, !tbaa !4079, !dbg !4366
	%8 = bitcast %struct.ConstantField*  %6 to i8*, !dbg !4369
	%9 = getelementptr i8, i8*  %8, i64 20, !dbg !4369
	store i8 0, i8*  %9, align 1, !tbaa !4078, !dbg !4369
	ret void, !dbg !4370
}
define linkonce_odr void @_ZN13ConstantFieldC2Ev(%struct.ConstantField* %_T39833128_53049.arg) #0 inlinehint !dbg !4372 {
L.entry:
	%_T39833128_53049.addr = alloca %struct.ConstantField*, align 8
	%..inline.addr = alloca %struct.ConstantField*, align 8
	%..inline.addr.1 = alloca %struct.FieldFunction*, align 8

	store %struct.ConstantField* %_T39833128_53049.arg, %struct.ConstantField** %_T39833128_53049.addr, align 8, !tbaa !4079
	%0 = load %struct.ConstantField*, %struct.ConstantField** %_T39833128_53049.addr, align 8, !tbaa !4079, !dbg !4384
	%1 = bitcast %struct.ConstantField*  %0 to i8*, !dbg !4384
	%2 = bitcast %struct.ConstantField** %..inline.addr to i8**, !dbg !4384
	store i8*  %1, i8**  %2, align 8, !tbaa !4079, !dbg !4384
	%3 = load %struct.ConstantField*, %struct.ConstantField** %..inline.addr, align 8, !tbaa !4079, !dbg !4385
	%4 = bitcast %struct.ConstantField*  %3 to i8*, !dbg !4385
	%5 = bitcast %struct.FieldFunction** %..inline.addr.1 to i8**, !dbg !4385
	store i8*  %4, i8**  %5, align 8, !tbaa !4079, !dbg !4385
	%6 = load %struct.FieldFunction*, %struct.FieldFunction** %..inline.addr.1, align 8, !tbaa !4079, !dbg !4385
	call void  @_ZN13FieldFunctionC1Ev (%struct.FieldFunction*  %6), !dbg !4385
	%7 = bitcast [5 x i32 (...)* (...)*]* @_ZTV13ConstantField to i8*, !dbg !4385
	%8 = getelementptr i8, i8*  %7, i64 16, !dbg !4385
	%9 = load %struct.ConstantField*, %struct.ConstantField** %..inline.addr, align 8, !tbaa !4079, !dbg !4385
	%10 = bitcast %struct.ConstantField*  %9 to i8**, !dbg !4385
	store i8*  %8, i8**  %10, align 8, !tbaa !4079, !dbg !4385
	%11 = bitcast %struct.ConstantField*  %9 to i8*, !dbg !4385
	%12 = getelementptr i8, i8*  %11, i64 20, !dbg !4385
	store i8 0, i8*  %12, align 1, !tbaa !4078, !dbg !4385
	ret void, !dbg !4384
}
define linkonce_odr void @_ZN13ConstantFieldD1Ev(%struct.ConstantField* %_T39833128_53050.arg) #0 inlinehint !dbg !4387 {
L.entry:
	%_T39833128_53050.addr = alloca %struct.ConstantField*, align 8
	%..inline.addr = alloca %struct.FieldFunction*, align 8

	call void @llvm.dbg.declare (metadata %struct.ConstantField** %_T39833128_53050.addr, metadata !4407, metadata !4071), !dbg !4388
	store %struct.ConstantField* %_T39833128_53050.arg, %struct.ConstantField** %_T39833128_53050.addr, align 8, !tbaa !4079
	call void @llvm.dbg.declare (metadata %struct.ConstantField** %_T39833128_53050.addr, metadata !4408, metadata !4071), !dbg !4388
	%0 = bitcast [5 x i32 (...)* (...)*]* @_ZTV13ConstantField to i8*, !dbg !4409
	%1 = getelementptr i8, i8*  %0, i64 16, !dbg !4409
	%2 = load %struct.ConstantField*, %struct.ConstantField** %_T39833128_53050.addr, align 8, !tbaa !4079, !dbg !4409
	%3 = bitcast %struct.ConstantField*  %2 to i8**, !dbg !4409
	store i8*  %1, i8**  %3, align 8, !tbaa !4079, !dbg !4409
	%4 = bitcast %struct.ConstantField*  %2 to i8*, !dbg !4409
	%5 = bitcast %struct.FieldFunction** %..inline.addr to i8**, !dbg !4409
	store i8*  %4, i8**  %5, align 8, !tbaa !4079, !dbg !4409
	%6 = bitcast [5 x i32 (...)* (...)*]* @_ZTV13FieldFunction to i8*, !dbg !4409
	%7 = getelementptr i8, i8*  %6, i64 16, !dbg !4409
	%8 = load %struct.FieldFunction*, %struct.FieldFunction** %..inline.addr, align 8, !tbaa !4079, !dbg !4409
	%9 = bitcast %struct.FieldFunction*  %8 to i8**, !dbg !4409
	store i8*  %7, i8**  %9, align 8, !tbaa !4079, !dbg !4409
	%10 = bitcast [5 x i32 (...)* (...)*]* @_ZTV11T3DFunction to i8*, !dbg !4409
	%11 = getelementptr i8, i8*  %10, i64 16, !dbg !4409
	store i8*  %11, i8**  %9, align 8, !tbaa !4079, !dbg !4409
	ret void, !dbg !4409
}
define linkonce_odr void @_ZN13ConstantFieldD0Ev(%struct.ConstantField* %_T39833128_53051.arg) #0 inlinehint !dbg !4411 {
L.entry:
	%_T39833128_53051.addr = alloca %struct.ConstantField*, align 8
	%..inline.addr = alloca %struct.ConstantField*, align 8
	%..inline.addr.1 = alloca %struct.FieldFunction*, align 8

	store %struct.ConstantField* %_T39833128_53051.arg, %struct.ConstantField** %_T39833128_53051.addr, align 8, !tbaa !4079
	%0 = load %struct.ConstantField*, %struct.ConstantField** %_T39833128_53051.addr, align 8, !tbaa !4079, !dbg !4435
	%1 = bitcast %struct.ConstantField*  %0 to i8*, !dbg !4435
	%2 = bitcast %struct.ConstantField** %..inline.addr to i8**, !dbg !4435
	store i8*  %1, i8**  %2, align 8, !tbaa !4079, !dbg !4435
	%3 = bitcast [5 x i32 (...)* (...)*]* @_ZTV13ConstantField to i8*, !dbg !4435
	%4 = getelementptr i8, i8*  %3, i64 16, !dbg !4435
	%5 = load %struct.ConstantField*, %struct.ConstantField** %..inline.addr, align 8, !tbaa !4079, !dbg !4435
	%6 = bitcast %struct.ConstantField*  %5 to i8**, !dbg !4435
	store i8*  %4, i8**  %6, align 8, !tbaa !4079, !dbg !4435
	%7 = bitcast %struct.ConstantField*  %5 to i8*, !dbg !4435
	%8 = bitcast %struct.FieldFunction** %..inline.addr.1 to i8**, !dbg !4435
	store i8*  %7, i8**  %8, align 8, !tbaa !4079, !dbg !4435
	%9 = bitcast [5 x i32 (...)* (...)*]* @_ZTV13FieldFunction to i8*, !dbg !4435
	%10 = getelementptr i8, i8*  %9, i64 16, !dbg !4435
	store i8*  %10, i8**  %6, align 8, !tbaa !4079, !dbg !4435
	%11 = bitcast [5 x i32 (...)* (...)*]* @_ZTV11T3DFunction to i8*, !dbg !4435
	%12 = getelementptr i8, i8*  %11, i64 16, !dbg !4435
	%13 = load %struct.FieldFunction*, %struct.FieldFunction** %..inline.addr.1, align 8, !tbaa !4079, !dbg !4435
	%14 = bitcast %struct.FieldFunction*  %13 to i8**, !dbg !4435
	store i8*  %12, i8**  %14, align 8, !tbaa !4079, !dbg !4435
	call void  @_ZdlPvm (i8*  %1, i64 48) nounwind, !dbg !4435
	ret void, !dbg !4435
}
define linkonce_odr void @_ZN13ConstantFieldD2Ev(%struct.ConstantField* %_T39833128_53052.arg) #0 inlinehint !dbg !4437 {
L.entry:
	%_T39833128_53052.addr = alloca %struct.ConstantField*, align 8
	%..inline.addr = alloca %struct.ConstantField*, align 8
	%..inline.addr.1 = alloca %struct.FieldFunction*, align 8

	store %struct.ConstantField* %_T39833128_53052.arg, %struct.ConstantField** %_T39833128_53052.addr, align 8, !tbaa !4079
	%0 = load %struct.ConstantField*, %struct.ConstantField** %_T39833128_53052.addr, align 8, !tbaa !4079, !dbg !4461
	%1 = bitcast %struct.ConstantField*  %0 to i8*, !dbg !4461
	%2 = bitcast %struct.ConstantField** %..inline.addr to i8**, !dbg !4461
	store i8*  %1, i8**  %2, align 8, !tbaa !4079, !dbg !4461
	%3 = bitcast [5 x i32 (...)* (...)*]* @_ZTV13ConstantField to i8*, !dbg !4461
	%4 = getelementptr i8, i8*  %3, i64 16, !dbg !4461
	%5 = load %struct.ConstantField*, %struct.ConstantField** %..inline.addr, align 8, !tbaa !4079, !dbg !4461
	%6 = bitcast %struct.ConstantField*  %5 to i8**, !dbg !4461
	store i8*  %4, i8**  %6, align 8, !tbaa !4079, !dbg !4461
	%7 = bitcast %struct.ConstantField*  %5 to i8*, !dbg !4461
	%8 = bitcast %struct.FieldFunction** %..inline.addr.1 to i8**, !dbg !4461
	store i8*  %7, i8**  %8, align 8, !tbaa !4079, !dbg !4461
	%9 = bitcast [5 x i32 (...)* (...)*]* @_ZTV13FieldFunction to i8*, !dbg !4461
	%10 = getelementptr i8, i8*  %9, i64 16, !dbg !4461
	store i8*  %10, i8**  %6, align 8, !tbaa !4079, !dbg !4461
	%11 = bitcast [5 x i32 (...)* (...)*]* @_ZTV11T3DFunction to i8*, !dbg !4461
	%12 = getelementptr i8, i8*  %11, i64 16, !dbg !4461
	%13 = load %struct.FieldFunction*, %struct.FieldFunction** %..inline.addr.1, align 8, !tbaa !4079, !dbg !4461
	%14 = bitcast %struct.FieldFunction*  %13 to i8**, !dbg !4461
	store i8*  %12, i8**  %14, align 8, !tbaa !4079, !dbg !4461
	ret void, !dbg !4461
}

%struct._ZSt5arrayIdLm18EE = type <{ [18 x double]}> 
%struct._ZSt6vectorIiSaIiEE = type <{ %struct._ZSt12_Vector_baseIiSaIiEE}> 
%struct._ZSt12_Vector_baseIcSaIcEE = type <{ %struct._ZNSt12_Vector_baseIcSaIcEE12_Vector_implE}> 
%struct._ZSt6vectorIcSaIcEE = type <{ %struct._ZSt12_Vector_baseIcSaIcEE}> 
%struct.ompi_datatype_t = type opaque
%struct._ZNSt12_Vector_baseISt5arrayIdLm18EESaIS1_EE12_Vector_implE = type <{ %struct._ZNSt12_Vector_baseISt5arrayIdLm18EESaIS1_EE17_Vector_impl_dataE}> 
%struct._ZSt6vectorIP14ompi_request_tSaIS1_EE = type <{ %struct._ZSt12_Vector_baseIP14ompi_request_tSaIS1_EE}> 
%struct._ZSt6vectorISt5arrayIdLm18EESaIS1_EE = type <{ %struct._ZSt12_Vector_baseISt5arrayIdLm18EESaIS1_EE}> 
%struct._ZNSt12_Vector_baseISt5arrayIdLm18EESaIS1_EE17_Vector_impl_dataE = type <{ %struct._ZSt5arrayIdLm18EE*, %struct._ZSt5arrayIdLm18EE*, %struct._ZSt5arrayIdLm18EE*}> 
%struct._ZNSt12_Vector_baseIcSaIcEE17_Vector_impl_dataE = type <{ i8*, i8*, i8*}> 
%struct._ZSt5arrayIbLm3EE = type <{ [3 x i8]}> 
%struct.FsGridCouplingInformation = type <{ %struct._ZSt6vectorIiSaIiEE}> 
%struct._ZSt12_Vector_baseISt5arrayIdLm18EESaIS1_EE = type <{ %struct._ZNSt12_Vector_baseISt5arrayIdLm18EESaIS1_EE12_Vector_implE}> 
%struct.ompi_request_t = type opaque
%struct._Z6FsGridISt5arrayIdLm18EELi2EE = type <{ double, double, double, %struct._ZSt5arrayIdLm3EE, %struct.ompi_communicator_t*, i32, [4 x i8], %struct._ZSt6vectorIP14ompi_request_tSaIS1_EE, i32, %struct._ZSt5arrayIiLm27EE, %struct._ZSt6vectorIcSaIcEE, %struct._ZSt5arrayIiLm3EE, %struct._ZSt5arrayIiLm3EE, %struct._ZSt5arrayIbLm3EE, i8, %struct._ZSt5arrayIiLm3EE, %struct._ZSt5arrayIiLm3EE, %struct._ZSt5arrayIiLm3EE, %struct._ZSt5arrayIiLm3EE, [4 x i8], %struct.FsGridCouplingInformation*, %struct._ZSt5arrayIP15ompi_datatype_tLm27EE, %struct._ZSt5arrayIP15ompi_datatype_tLm27EE, %struct._ZSt6vectorISt5arrayIdLm18EESaIS1_EE}> 
%struct._ZNSt12_Vector_baseIP14ompi_request_tSaIS1_EE12_Vector_implE = type <{ %struct._ZNSt12_Vector_baseIP14ompi_request_tSaIS1_EE17_Vector_impl_dataE}> 
%struct._ZSt5arrayIP15ompi_datatype_tLm27EE = type <{ [27 x %struct.ompi_datatype_t*]}> 
%struct._ZNSt12_Vector_baseIiSaIiEE12_Vector_implE = type <{ %struct._ZNSt12_Vector_baseIiSaIiEE17_Vector_impl_dataE}> 
%struct._ZNSt12_Vector_baseIcSaIcEE12_Vector_implE = type <{ %struct._ZNSt12_Vector_baseIcSaIcEE17_Vector_impl_dataE}> 
%struct._ZSt12_Vector_baseIP14ompi_request_tSaIS1_EE = type <{ %struct._ZNSt12_Vector_baseIP14ompi_request_tSaIS1_EE12_Vector_implE}> 
%struct._ZNSt12_Vector_baseIiSaIiEE17_Vector_impl_dataE = type <{ i32*, i32*, i32*}> 
%struct._ZNSt12_Vector_baseIP14ompi_request_tSaIS1_EE17_Vector_impl_dataE = type <{ %struct.ompi_request_t**, %struct.ompi_request_t**, %struct.ompi_request_t**}> 
%struct._ZSt12_Vector_baseIiSaIiEE = type <{ %struct._ZNSt12_Vector_baseIiSaIiEE12_Vector_implE}> 
%struct._ZSt5arrayIiLm27EE = type <{ [27 x i32]}> 
%struct.ompi_communicator_t = type opaque
%struct._ZSt5arrayIiLm3EE = type <{ [3 x i32]}> 
%struct._ZSt5arrayIdLm3EE = type <{ [3 x double]}> 

define linkonce_odr %struct._ZSt5arrayIiLm3EE* @_ZN6FsGridISt5arrayIdLm18EELi2EE12getLocalSizeEv(%struct._Z6FsGridISt5arrayIdLm18EELi2EE* %_T39833128_53054.arg) #0 inlinehint !dbg !4469 {
L.entry:
	%_T39833128_53054.addr = alloca %struct._Z6FsGridISt5arrayIdLm18EELi2EE*, align 8

	call void @llvm.dbg.declare (metadata %struct._Z6FsGridISt5arrayIdLm18EELi2EE** %_T39833128_53054.addr, metadata !4473, metadata !4071), !dbg !4470
	store %struct._Z6FsGridISt5arrayIdLm18EELi2EE* %_T39833128_53054.arg, %struct._Z6FsGridISt5arrayIdLm18EELi2EE** %_T39833128_53054.addr, align 8, !tbaa !4079
	call void @llvm.dbg.declare (metadata %struct._Z6FsGridISt5arrayIdLm18EELi2EE** %_T39833128_53054.addr, metadata !4474, metadata !4071), !dbg !4470
	%0 = load %struct._Z6FsGridISt5arrayIdLm18EELi2EE*, %struct._Z6FsGridISt5arrayIdLm18EELi2EE** %_T39833128_53054.addr, align 8, !tbaa !4079, !dbg !4475
	%1 = bitcast %struct._Z6FsGridISt5arrayIdLm18EELi2EE*  %0 to i8*, !dbg !4475
	%2 = getelementptr i8, i8*  %1, i64 264, !dbg !4475
	%3 = bitcast i8*  %2 to %struct._ZSt5arrayIiLm3EE*, !dbg !4475
	ret %struct._ZSt5arrayIiLm3EE*  %3, !dbg !4475
}

%struct._ZSt12_Vector_baseISt5arrayIdLm3EESaIS1_EE = type <{ %struct._ZNSt12_Vector_baseISt5arrayIdLm3EESaIS1_EE12_Vector_implE}> 
%struct._Z6FsGridISt5arrayIdLm3EELi2EE = type <{ double, double, double, %struct._ZSt5arrayIdLm3EE, %struct.ompi_communicator_t*, i32, [4 x i8], %struct._ZSt6vectorIP14ompi_request_tSaIS1_EE, i32, %struct._ZSt5arrayIiLm27EE, %struct._ZSt6vectorIcSaIcEE, %struct._ZSt5arrayIiLm3EE, %struct._ZSt5arrayIiLm3EE, %struct._ZSt5arrayIbLm3EE, i8, %struct._ZSt5arrayIiLm3EE, %struct._ZSt5arrayIiLm3EE, %struct._ZSt5arrayIiLm3EE, %struct._ZSt5arrayIiLm3EE, [4 x i8], %struct.FsGridCouplingInformation*, %struct._ZSt5arrayIP15ompi_datatype_tLm27EE, %struct._ZSt5arrayIP15ompi_datatype_tLm27EE, %struct._ZSt6vectorISt5arrayIdLm3EESaIS1_EE}> 
%struct._ZNSt12_Vector_baseISt5arrayIdLm3EESaIS1_EE12_Vector_implE = type <{ %struct._ZNSt12_Vector_baseISt5arrayIdLm3EESaIS1_EE17_Vector_impl_dataE}> 
%struct._ZSt6vectorISt5arrayIdLm3EESaIS1_EE = type <{ %struct._ZSt12_Vector_baseISt5arrayIdLm3EESaIS1_EE}> 
%struct._ZNSt12_Vector_baseISt5arrayIdLm3EESaIS1_EE17_Vector_impl_dataE = type <{ %struct._ZSt5arrayIdLm3EE*, %struct._ZSt5arrayIdLm3EE*, %struct._ZSt5arrayIdLm3EE*}> 

define linkonce_odr i64 @_ZN6FsGridISt5arrayIdLm3EELi2EE17GlobalIDForCoordsEiii(%struct._Z6FsGridISt5arrayIdLm3EELi2EE* %_T39833128_53056.arg, i32 signext %x.arg, i32 signext %y.arg, i32 signext %z.arg) #0 inlinehint !dbg !4481 {
L.entry:
	%_T39833128_53056.addr = alloca %struct._Z6FsGridISt5arrayIdLm3EELi2EE*, align 8
	%x.addr = alloca i32, align 4
	%y.addr = alloca i32, align 4
	%z.addr = alloca i32, align 4

	call void @llvm.dbg.declare (metadata %struct._Z6FsGridISt5arrayIdLm3EELi2EE** %_T39833128_53056.addr, metadata !4533, metadata !4071), !dbg !4482
	store %struct._Z6FsGridISt5arrayIdLm3EELi2EE* %_T39833128_53056.arg, %struct._Z6FsGridISt5arrayIdLm3EELi2EE** %_T39833128_53056.addr, align 8, !tbaa !4079
	call void @llvm.dbg.declare (metadata %struct._Z6FsGridISt5arrayIdLm3EELi2EE** %_T39833128_53056.addr, metadata !4534, metadata !4071), !dbg !4482
	call void @llvm.dbg.declare (metadata i32* %x.addr, metadata !4535, metadata !4071), !dbg !4482
	store i32 %x.arg, i32* %x.addr, align 4, !tbaa !4078
	call void @llvm.dbg.declare (metadata i32* %x.addr, metadata !4536, metadata !4071), !dbg !4482
	call void @llvm.dbg.declare (metadata i32* %y.addr, metadata !4537, metadata !4071), !dbg !4482
	store i32 %y.arg, i32* %y.addr, align 4, !tbaa !4078
	call void @llvm.dbg.declare (metadata i32* %y.addr, metadata !4538, metadata !4071), !dbg !4482
	call void @llvm.dbg.declare (metadata i32* %z.addr, metadata !4539, metadata !4071), !dbg !4482
	store i32 %z.arg, i32* %z.addr, align 4, !tbaa !4078
	call void @llvm.dbg.declare (metadata i32* %z.addr, metadata !4540, metadata !4071), !dbg !4482
	%0 = load i32, i32* %z.addr, align 4, !tbaa !4296, !dbg !4541
	%1 = load %struct._Z6FsGridISt5arrayIdLm3EELi2EE*, %struct._Z6FsGridISt5arrayIdLm3EELi2EE** %_T39833128_53056.addr, align 8, !tbaa !4079, !dbg !4541
	%2 = bitcast %struct._Z6FsGridISt5arrayIdLm3EELi2EE*  %1 to i8*, !dbg !4541
	%3 = getelementptr i8, i8*  %2, i64 296, !dbg !4541
	%4 = bitcast i8*  %3 to i32*, !dbg !4541
	%5 = load i32, i32*  %4, align 4, !tbaa !4078, !dbg !4541
	%6 = add i32  %0,  %5, !dbg !4541
	%7 = getelementptr i8, i8*  %2, i64 256, !dbg !4541
	%8 = bitcast i8*  %7 to i32*, !dbg !4541
	%9 = load i32, i32*  %8, align 4, !tbaa !4078, !dbg !4541
	%10 = getelementptr i8, i8*  %2, i64 252, !dbg !4541
	%11 = bitcast i8*  %10 to i32*, !dbg !4541
	%12 = load i32, i32*  %11, align 4, !tbaa !4078, !dbg !4541
	%13 = mul i32  %9,  %12, !dbg !4541
	%14 = mul i32  %6,  %13, !dbg !4541
	%15 = load i32, i32* %y.addr, align 4, !tbaa !4296, !dbg !4541
	%16 = getelementptr i8, i8*  %2, i64 292, !dbg !4541
	%17 = bitcast i8*  %16 to i32*, !dbg !4541
	%18 = load i32, i32*  %17, align 4, !tbaa !4078, !dbg !4541
	%19 = add i32  %15,  %18, !dbg !4541
	%20 = mul i32  %12,  %19, !dbg !4541
	%21 = load i32, i32* %x.addr, align 4, !tbaa !4296, !dbg !4541
	%22 = getelementptr i8, i8*  %2, i64 288, !dbg !4541
	%23 = bitcast i8*  %22 to i32*, !dbg !4541
	%24 = load i32, i32*  %23, align 4, !tbaa !4078, !dbg !4541
	%25 = add i32  %21,  %24, !dbg !4541
	%26 = add i32  %20,  %25, !dbg !4541
	%27 = add i32  %14,  %26, !dbg !4541
	%28 = sext i32  %27 to i64, !dbg !4541
	ret i64  %28, !dbg !4541
}
define linkonce_odr i64 @_ZN6FsGridISt5arrayIdLm3EELi2EE16LocalIDForCoordsEiii(%struct._Z6FsGridISt5arrayIdLm3EELi2EE* %_T40097704_53058.arg, i32 signext %x.arg, i32 signext %y.arg, i32 signext %z.arg) #0 inlinehint !dbg !4544 {
L.entry:
	%_T40097704_53058.addr = alloca %struct._Z6FsGridISt5arrayIdLm3EELi2EE*, align 8
	%x.addr = alloca i32, align 4
	%y.addr = alloca i32, align 4
	%z.addr = alloca i32, align 4
	%index.addr = alloca i64, align 8

	call void @llvm.dbg.declare (metadata %struct._Z6FsGridISt5arrayIdLm3EELi2EE** %_T40097704_53058.addr, metadata !4596, metadata !4071), !dbg !4545
	store %struct._Z6FsGridISt5arrayIdLm3EELi2EE* %_T40097704_53058.arg, %struct._Z6FsGridISt5arrayIdLm3EELi2EE** %_T40097704_53058.addr, align 8, !tbaa !4079
	call void @llvm.dbg.declare (metadata %struct._Z6FsGridISt5arrayIdLm3EELi2EE** %_T40097704_53058.addr, metadata !4597, metadata !4071), !dbg !4545
	call void @llvm.dbg.declare (metadata i32* %x.addr, metadata !4598, metadata !4071), !dbg !4545
	store i32 %x.arg, i32* %x.addr, align 4, !tbaa !4078
	call void @llvm.dbg.declare (metadata i32* %x.addr, metadata !4599, metadata !4071), !dbg !4545
	call void @llvm.dbg.declare (metadata i32* %y.addr, metadata !4600, metadata !4071), !dbg !4545
	store i32 %y.arg, i32* %y.addr, align 4, !tbaa !4078
	call void @llvm.dbg.declare (metadata i32* %y.addr, metadata !4601, metadata !4071), !dbg !4545
	call void @llvm.dbg.declare (metadata i32* %z.addr, metadata !4602, metadata !4071), !dbg !4545
	store i32 %z.arg, i32* %z.addr, align 4, !tbaa !4078
	call void @llvm.dbg.declare (metadata i32* %z.addr, metadata !4603, metadata !4071), !dbg !4545
	call void @llvm.dbg.declare (metadata i64* %index.addr, metadata !4605, metadata !4071), !dbg !4545
	store i64 0, i64* %index.addr, align 8, !tbaa !4610, !dbg !4604
	%0 = load %struct._Z6FsGridISt5arrayIdLm3EELi2EE*, %struct._Z6FsGridISt5arrayIdLm3EELi2EE** %_T40097704_53058.addr, align 8, !tbaa !4079, !dbg !4606
	%1 = bitcast %struct._Z6FsGridISt5arrayIdLm3EELi2EE*  %0 to i8*, !dbg !4606
	%2 = getelementptr i8, i8*  %1, i64 260, !dbg !4606
	%3 = bitcast i8*  %2 to i32*, !dbg !4606
	%4 = load i32, i32*  %3, align 4, !tbaa !4078, !dbg !4606
	%5 = icmp sle i32  %4, 1, !dbg !4606
	br i1  %5, label %L.B0004, label %L.B1374, !dbg !4606
L.B1374:
	%6 = load i32, i32* %z.addr, align 4, !tbaa !4296, !dbg !4606
	%7 = add i32  %6, 2, !dbg !4606
	%8 = bitcast %struct._Z6FsGridISt5arrayIdLm3EELi2EE*  %0 to i8*, !dbg !4606
	%9 = getelementptr i8, i8*  %8, i64 280, !dbg !4606
	%10 = bitcast i8*  %9 to i32*, !dbg !4606
	%11 = load i32, i32*  %10, align 4, !tbaa !4078, !dbg !4606
	%12 = getelementptr i8, i8*  %8, i64 276, !dbg !4606
	%13 = bitcast i8*  %12 to i32*, !dbg !4606
	%14 = load i32, i32*  %13, align 4, !tbaa !4078, !dbg !4606
	%15 = mul i32  %11,  %14, !dbg !4606
	%16 = mul i32  %7,  %15, !dbg !4606
	%17 = sext i32  %16 to i64, !dbg !4606
	store i64  %17, i64* %index.addr, align 8, !tbaa !4610, !dbg !4606
	br label %L.B0004
L.B0004:
	%18 = load %struct._Z6FsGridISt5arrayIdLm3EELi2EE*, %struct._Z6FsGridISt5arrayIdLm3EELi2EE** %_T40097704_53058.addr, align 8, !tbaa !4079, !dbg !4606
	%19 = bitcast %struct._Z6FsGridISt5arrayIdLm3EELi2EE*  %18 to i8*, !dbg !4606
	%20 = getelementptr i8, i8*  %19, i64 256, !dbg !4606
	%21 = bitcast i8*  %20 to i32*, !dbg !4606
	%22 = load i32, i32*  %21, align 4, !tbaa !4078, !dbg !4606
	%23 = icmp sle i32  %22, 1, !dbg !4606
	br i1  %23, label %L.B0005, label %L.B1375, !dbg !4606
L.B1375:
	%24 = load i64, i64* %index.addr, align 8, !tbaa !4610, !dbg !4606
	%25 = load i32, i32* %y.addr, align 4, !tbaa !4296, !dbg !4606
	%26 = add i32  %25, 2, !dbg !4606
	%27 = bitcast %struct._Z6FsGridISt5arrayIdLm3EELi2EE*  %18 to i8*, !dbg !4606
	%28 = getelementptr i8, i8*  %27, i64 276, !dbg !4606
	%29 = bitcast i8*  %28 to i32*, !dbg !4606
	%30 = load i32, i32*  %29, align 4, !tbaa !4078, !dbg !4606
	%31 = mul i32  %26,  %30, !dbg !4606
	%32 = sext i32  %31 to i64, !dbg !4606
	%33 = add i64  %24,  %32, !dbg !4606
	store i64  %33, i64* %index.addr, align 8, !tbaa !4610, !dbg !4606
	br label %L.B0005
L.B0005:
	%34 = load %struct._Z6FsGridISt5arrayIdLm3EELi2EE*, %struct._Z6FsGridISt5arrayIdLm3EELi2EE** %_T40097704_53058.addr, align 8, !tbaa !4079, !dbg !4606
	%35 = bitcast %struct._Z6FsGridISt5arrayIdLm3EELi2EE*  %34 to i8*, !dbg !4606
	%36 = getelementptr i8, i8*  %35, i64 252, !dbg !4606
	%37 = bitcast i8*  %36 to i32*, !dbg !4606
	%38 = load i32, i32*  %37, align 4, !tbaa !4078, !dbg !4606
	%39 = icmp sle i32  %38, 1, !dbg !4606
	%40 = zext i1  %39 to i32, !dbg !4606
	%41 = trunc i32  %40 to i1, !dbg !4606
	%42 = load i64, i64* %index.addr, align 8, !tbaa !4610, !dbg !4606
	%43 = load i32, i32* %x.addr, align 4, !tbaa !4296, !dbg !4606
	%44 = sext i32  %43 to i64, !dbg !4606
	%45 = add i64  %44, 2, !dbg !4606
	%46 = add i64  %42,  %45, !dbg !4606
	%47 = select i1  %41, i64  %42, i64  %46, !dbg !4606
	ret i64  %47, !dbg !4607
}
define linkonce_odr %struct._ZSt5arrayIdLm3EE* @_ZN6FsGridISt5arrayIdLm3EELi2EE3getEiii(%struct._Z6FsGridISt5arrayIdLm3EELi2EE* %_T40100064_53059.arg, i32 signext %x.arg, i32 signext %y.arg, i32 signext %z.arg) #0 inlinehint !dbg !4614 {
L.entry:
	%_T40100064_53059.addr = alloca %struct._Z6FsGridISt5arrayIdLm3EELi2EE*, align 8
	%x.addr = alloca i32, align 4
	%y.addr = alloca i32, align 4
	%z.addr = alloca i32, align 4
	%isInNeighbourDomain.addr = alloca i32, align 4
	%coord_shift.addr = alloca [3 x i32], align 4
	%..inline.addr = alloca %struct._Z6FsGridISt5arrayIdLm3EELi2EE*, align 8
	%..inline.addr.1 = alloca i64, align 8

	call void @llvm.dbg.declare (metadata %struct._Z6FsGridISt5arrayIdLm3EELi2EE** %_T40100064_53059.addr, metadata !4738, metadata !4071), !dbg !4615
	store %struct._Z6FsGridISt5arrayIdLm3EELi2EE* %_T40100064_53059.arg, %struct._Z6FsGridISt5arrayIdLm3EELi2EE** %_T40100064_53059.addr, align 8, !tbaa !4079
	call void @llvm.dbg.declare (metadata %struct._Z6FsGridISt5arrayIdLm3EELi2EE** %_T40100064_53059.addr, metadata !4739, metadata !4071), !dbg !4615
	call void @llvm.dbg.declare (metadata i32* %x.addr, metadata !4740, metadata !4071), !dbg !4615
	store i32 %x.arg, i32* %x.addr, align 4, !tbaa !4078
	call void @llvm.dbg.declare (metadata i32* %x.addr, metadata !4741, metadata !4071), !dbg !4615
	call void @llvm.dbg.declare (metadata i32* %y.addr, metadata !4742, metadata !4071), !dbg !4615
	store i32 %y.arg, i32* %y.addr, align 4, !tbaa !4078
	call void @llvm.dbg.declare (metadata i32* %y.addr, metadata !4743, metadata !4071), !dbg !4615
	call void @llvm.dbg.declare (metadata i32* %z.addr, metadata !4744, metadata !4071), !dbg !4615
	store i32 %z.arg, i32* %z.addr, align 4, !tbaa !4078
	call void @llvm.dbg.declare (metadata i32* %z.addr, metadata !4745, metadata !4071), !dbg !4615
	call void @llvm.dbg.declare (metadata i32* %isInNeighbourDomain.addr, metadata !4747, metadata !4071), !dbg !4615
	store i32 13, i32* %isInNeighbourDomain.addr, align 4, !tbaa !4296, !dbg !4746
	call void @llvm.dbg.declare (metadata [3 x i32]* %coord_shift.addr, metadata !4749, metadata !4071), !dbg !4615
	%0 = bitcast [3 x i32]* %coord_shift.addr to i32*, !dbg !4748
	store i32 0, i32*  %0, align 4, !tbaa !4078, !dbg !4748
	%1 = bitcast [3 x i32]* %coord_shift.addr to i8*, !dbg !4748
	%2 = getelementptr i8, i8*  %1, i64 4, !dbg !4748
	%3 = bitcast i8*  %2 to i32*, !dbg !4748
	store i32 0, i32*  %3, align 4, !tbaa !4078, !dbg !4748
	%4 = getelementptr i8, i8*  %1, i64 8, !dbg !4748
	%5 = bitcast i8*  %4 to i32*, !dbg !4748
	store i32 0, i32*  %5, align 4, !tbaa !4078, !dbg !4748
	%6 = load i32, i32* %x.addr, align 4, !tbaa !4296, !dbg !4750
	%7 = icmp sge i32  %6, 0, !dbg !4750
	br i1  %7, label %L.B0007, label %L.B1396, !dbg !4750
L.B1396:
	store i32 4, i32* %isInNeighbourDomain.addr, align 4, !tbaa !4296, !dbg !4751
	%8 = bitcast [3 x i32]* %coord_shift.addr to i32*, !dbg !4752
	store i32 1, i32*  %8, align 4, !tbaa !4078, !dbg !4752
	br label %L.B0007
L.B0007:
	%9 = load i32, i32* %x.addr, align 4, !tbaa !4296, !dbg !4753
	%10 = load %struct._Z6FsGridISt5arrayIdLm3EELi2EE*, %struct._Z6FsGridISt5arrayIdLm3EELi2EE** %_T40100064_53059.addr, align 8, !tbaa !4079, !dbg !4753
	%11 = bitcast %struct._Z6FsGridISt5arrayIdLm3EELi2EE*  %10 to i8*, !dbg !4753
	%12 = getelementptr i8, i8*  %11, i64 264, !dbg !4753
	%13 = bitcast i8*  %12 to i32*, !dbg !4753
	%14 = load i32, i32*  %13, align 4, !tbaa !4078, !dbg !4753
	%15 = icmp slt i32  %9,  %14, !dbg !4753
	br i1  %15, label %L.B0008, label %L.B1397, !dbg !4753
L.B1397:
	%16 = load i32, i32* %isInNeighbourDomain.addr, align 4, !tbaa !4296, !dbg !4754
	%17 = add i32  %16, 9, !dbg !4754
	store i32  %17, i32* %isInNeighbourDomain.addr, align 4, !tbaa !4296, !dbg !4754
	%18 = bitcast [3 x i32]* %coord_shift.addr to i32*, !dbg !4755
	store i32 -1, i32*  %18, align 4, !tbaa !4078, !dbg !4755
	br label %L.B0008
L.B0008:
	%19 = load i32, i32* %y.addr, align 4, !tbaa !4296, !dbg !4756
	%20 = icmp sge i32  %19, 0, !dbg !4756
	br i1  %20, label %L.B0009, label %L.B1398, !dbg !4756
L.B1398:
	%21 = load i32, i32* %isInNeighbourDomain.addr, align 4, !tbaa !4296, !dbg !4757
	%22 = sub i32  %21, 3, !dbg !4757
	store i32  %22, i32* %isInNeighbourDomain.addr, align 4, !tbaa !4296, !dbg !4757
	%23 = bitcast [3 x i32]* %coord_shift.addr to i8*, !dbg !4758
	%24 = getelementptr i8, i8*  %23, i64 4, !dbg !4758
	%25 = bitcast i8*  %24 to i32*, !dbg !4758
	store i32 1, i32*  %25, align 4, !tbaa !4078, !dbg !4758
	br label %L.B0009
L.B0009:
	%26 = load i32, i32* %y.addr, align 4, !tbaa !4296, !dbg !4753
	%27 = load %struct._Z6FsGridISt5arrayIdLm3EELi2EE*, %struct._Z6FsGridISt5arrayIdLm3EELi2EE** %_T40100064_53059.addr, align 8, !tbaa !4079, !dbg !4753
	%28 = bitcast %struct._Z6FsGridISt5arrayIdLm3EELi2EE*  %27 to i8*, !dbg !4753
	%29 = getelementptr i8, i8*  %28, i64 268, !dbg !4753
	%30 = bitcast i8*  %29 to i32*, !dbg !4753
	%31 = load i32, i32*  %30, align 4, !tbaa !4078, !dbg !4753
	%32 = icmp slt i32  %26,  %31, !dbg !4753
	br i1  %32, label %L.B0010, label %L.B1399, !dbg !4753
L.B1399:
	%33 = load i32, i32* %isInNeighbourDomain.addr, align 4, !tbaa !4296, !dbg !4759
	%34 = add i32  %33, 3, !dbg !4759
	store i32  %34, i32* %isInNeighbourDomain.addr, align 4, !tbaa !4296, !dbg !4759
	%35 = bitcast [3 x i32]* %coord_shift.addr to i8*, !dbg !4760
	%36 = getelementptr i8, i8*  %35, i64 4, !dbg !4760
	%37 = bitcast i8*  %36 to i32*, !dbg !4760
	store i32 -1, i32*  %37, align 4, !tbaa !4078, !dbg !4760
	br label %L.B0010
L.B0010:
	%38 = load i32, i32* %z.addr, align 4, !tbaa !4296, !dbg !4761
	%39 = icmp sge i32  %38, 0, !dbg !4761
	br i1  %39, label %L.B0011, label %L.B1400, !dbg !4761
L.B1400:
	%40 = load i32, i32* %isInNeighbourDomain.addr, align 4, !tbaa !4296, !dbg !4762
	%41 = sub i32  %40, 1, !dbg !4762
	store i32  %41, i32* %isInNeighbourDomain.addr, align 4, !tbaa !4296, !dbg !4762
	%42 = bitcast [3 x i32]* %coord_shift.addr to i8*, !dbg !4763
	%43 = getelementptr i8, i8*  %42, i64 8, !dbg !4763
	%44 = bitcast i8*  %43 to i32*, !dbg !4763
	store i32 1, i32*  %44, align 4, !tbaa !4078, !dbg !4763
	br label %L.B0011
L.B0011:
	%45 = load i32, i32* %z.addr, align 4, !tbaa !4296, !dbg !4753
	%46 = load %struct._Z6FsGridISt5arrayIdLm3EELi2EE*, %struct._Z6FsGridISt5arrayIdLm3EELi2EE** %_T40100064_53059.addr, align 8, !tbaa !4079, !dbg !4753
	%47 = bitcast %struct._Z6FsGridISt5arrayIdLm3EELi2EE*  %46 to i8*, !dbg !4753
	%48 = getelementptr i8, i8*  %47, i64 272, !dbg !4753
	%49 = bitcast i8*  %48 to i32*, !dbg !4753
	%50 = load i32, i32*  %49, align 4, !tbaa !4078, !dbg !4753
	%51 = icmp slt i32  %45,  %50, !dbg !4753
	br i1  %51, label %L.B0012, label %L.B1401, !dbg !4753
L.B1401:
	%52 = load i32, i32* %isInNeighbourDomain.addr, align 4, !tbaa !4296, !dbg !4764
	%53 = add i32  %52, 1, !dbg !4764
	store i32  %53, i32* %isInNeighbourDomain.addr, align 4, !tbaa !4296, !dbg !4764
	%54 = bitcast [3 x i32]* %coord_shift.addr to i8*, !dbg !4765
	%55 = getelementptr i8, i8*  %54, i64 8, !dbg !4765
	%56 = bitcast i8*  %55 to i32*, !dbg !4765
	store i32 -1, i32*  %56, align 4, !tbaa !4078, !dbg !4765
	br label %L.B0012
L.B0012:
	%57 = load i32, i32* %isInNeighbourDomain.addr, align 4, !tbaa !4296, !dbg !4766
	%58 = icmp eq i32  %57, 13, !dbg !4766
	br i1  %58, label %L.B0013, label %L.B1402, !dbg !4766
L.B1402:
	%59 = sext i32  %57 to i64, !dbg !4753
	%60 = load %struct._Z6FsGridISt5arrayIdLm3EELi2EE*, %struct._Z6FsGridISt5arrayIdLm3EELi2EE** %_T40100064_53059.addr, align 8, !tbaa !4079, !dbg !4753
	%61 = bitcast %struct._Z6FsGridISt5arrayIdLm3EELi2EE*  %60 to i8*, !dbg !4753
	%62 = getelementptr i8, i8*  %61, i64 92, !dbg !4753
	%63 = bitcast i8*  %62 to i32*, !dbg !4753
	%64 = getelementptr i32, i32*  %63, i64  %59, !dbg !4753
	%65 = load i32, i32*  %64, align 4, !tbaa !4078, !dbg !4753
	%66 = icmp ne i32  %65, -2, !dbg !4753
	br i1  %66, label %L.B0014, label %L.B1403, !dbg !4753
L.B1403:
	ret %struct._ZSt5arrayIdLm3EE*  null, !dbg !4767
L.B1404:
	br label %L.R0023, !dbg !4767
L.B0014:
	%67 = load i32, i32* %isInNeighbourDomain.addr, align 4, !tbaa !4296, !dbg !4753
	%68 = sext i32  %67 to i64, !dbg !4753
	%69 = load %struct._Z6FsGridISt5arrayIdLm3EELi2EE*, %struct._Z6FsGridISt5arrayIdLm3EELi2EE** %_T40100064_53059.addr, align 8, !tbaa !4079, !dbg !4753
	%70 = bitcast %struct._Z6FsGridISt5arrayIdLm3EELi2EE*  %69 to i8*, !dbg !4753
	%71 = getelementptr i8, i8*  %70, i64 92, !dbg !4753
	%72 = bitcast i8*  %71 to i32*, !dbg !4753
	%73 = getelementptr i32, i32*  %72, i64  %68, !dbg !4753
	%74 = load i32, i32*  %73, align 4, !tbaa !4078, !dbg !4753
	%75 = getelementptr i8, i8*  %70, i64 56, !dbg !4753
	%76 = bitcast i8*  %75 to i32*, !dbg !4753
	%77 = load i32, i32*  %76, align 4, !tbaa !4078, !dbg !4753
	%78 = icmp ne i32  %74,  %77, !dbg !4753
	br i1  %78, label %L.B0016, label %L.B1405, !dbg !4753
L.B1405:
	%79 = load i32, i32* %x.addr, align 4, !tbaa !4296, !dbg !4753
	%80 = bitcast [3 x i32]* %coord_shift.addr to i32*, !dbg !4753
	%81 = load i32, i32*  %80, align 4, !tbaa !4078, !dbg !4753
	%82 = bitcast %struct._Z6FsGridISt5arrayIdLm3EELi2EE*  %69 to i8*, !dbg !4753
	%83 = getelementptr i8, i8*  %82, i64 264, !dbg !4753
	%84 = bitcast i8*  %83 to i32*, !dbg !4753
	%85 = load i32, i32*  %84, align 4, !tbaa !4078, !dbg !4753
	%86 = mul i32  %81,  %85, !dbg !4753
	%87 = add i32  %79,  %86, !dbg !4753
	store i32  %87, i32* %x.addr, align 4, !tbaa !4296, !dbg !4753
	%88 = load i32, i32* %y.addr, align 4, !tbaa !4296, !dbg !4753
	%89 = bitcast [3 x i32]* %coord_shift.addr to i8*, !dbg !4753
	%90 = getelementptr i8, i8*  %89, i64 4, !dbg !4753
	%91 = bitcast i8*  %90 to i32*, !dbg !4753
	%92 = load i32, i32*  %91, align 4, !tbaa !4078, !dbg !4753
	%93 = getelementptr i8, i8*  %82, i64 268, !dbg !4753
	%94 = bitcast i8*  %93 to i32*, !dbg !4753
	%95 = load i32, i32*  %94, align 4, !tbaa !4078, !dbg !4753
	%96 = mul i32  %92,  %95, !dbg !4753
	%97 = add i32  %88,  %96, !dbg !4753
	store i32  %97, i32* %y.addr, align 4, !tbaa !4296, !dbg !4753
	%98 = load i32, i32* %z.addr, align 4, !tbaa !4296, !dbg !4753
	%99 = getelementptr i8, i8*  %89, i64 8, !dbg !4753
	%100 = bitcast i8*  %99 to i32*, !dbg !4753
	%101 = load i32, i32*  %100, align 4, !tbaa !4078, !dbg !4753
	%102 = getelementptr i8, i8*  %82, i64 272, !dbg !4753
	%103 = bitcast i8*  %102 to i32*, !dbg !4753
	%104 = load i32, i32*  %103, align 4, !tbaa !4078, !dbg !4753
	%105 = mul i32  %101,  %104, !dbg !4753
	%106 = add i32  %98,  %105, !dbg !4753
	store i32  %106, i32* %z.addr, align 4, !tbaa !4296, !dbg !4753
	br label %L.B0016
L.B0016:
	br label %L.B0013
L.B0013:
	%107 = load %struct._Z6FsGridISt5arrayIdLm3EELi2EE*, %struct._Z6FsGridISt5arrayIdLm3EELi2EE** %_T40100064_53059.addr, align 8, !tbaa !4079, !dbg !4768
	%108 = bitcast %struct._Z6FsGridISt5arrayIdLm3EELi2EE*  %107 to i8*, !dbg !4768
	%109 = bitcast %struct._Z6FsGridISt5arrayIdLm3EELi2EE** %..inline.addr to i8**, !dbg !4768
	store i8*  %108, i8**  %109, align 8, !tbaa !4079, !dbg !4768
	store i64 0, i64* %..inline.addr.1, align 8, !tbaa !4610, !dbg !4768
	%110 = load %struct._Z6FsGridISt5arrayIdLm3EELi2EE*, %struct._Z6FsGridISt5arrayIdLm3EELi2EE** %..inline.addr, align 8, !tbaa !4079, !dbg !4769
	%111 = bitcast %struct._Z6FsGridISt5arrayIdLm3EELi2EE*  %110 to i8*, !dbg !4769
	%112 = getelementptr i8, i8*  %111, i64 260, !dbg !4769
	%113 = bitcast i8*  %112 to i32*, !dbg !4769
	%114 = load i32, i32*  %113, align 4, !tbaa !4078, !dbg !4769
	%115 = icmp sle i32  %114, 1, !dbg !4769
	br i1  %115, label %L..inline.72819, label %L.B1406, !dbg !4769
L.B1406:
	%116 = bitcast %struct._Z6FsGridISt5arrayIdLm3EELi2EE*  %107 to i8*, !dbg !4770
	%117 = getelementptr i8, i8*  %116, i64 280, !dbg !4770
	%118 = bitcast i8*  %117 to i32*, !dbg !4770
	%119 = load i32, i32*  %118, align 4, !tbaa !4078, !dbg !4770
	%120 = getelementptr i8, i8*  %116, i64 276, !dbg !4770
	%121 = bitcast i8*  %120 to i32*, !dbg !4770
	%122 = load i32, i32*  %121, align 4, !tbaa !4078, !dbg !4770
	%123 = mul i32  %119,  %122, !dbg !4770
	%124 = load i32, i32* %z.addr, align 4, !tbaa !4296, !dbg !4770
	%125 = add i32  %124, 2, !dbg !4770
	%126 = mul i32  %123,  %125, !dbg !4770
	%127 = sext i32  %126 to i64, !dbg !4770
	store i64  %127, i64* %..inline.addr.1, align 8, !tbaa !4610, !dbg !4770
	br label %L..inline.72819
L..inline.72819:
	%128 = load %struct._Z6FsGridISt5arrayIdLm3EELi2EE*, %struct._Z6FsGridISt5arrayIdLm3EELi2EE** %..inline.addr, align 8, !tbaa !4079, !dbg !4771
	%129 = bitcast %struct._Z6FsGridISt5arrayIdLm3EELi2EE*  %128 to i8*, !dbg !4771
	%130 = getelementptr i8, i8*  %129, i64 256, !dbg !4771
	%131 = bitcast i8*  %130 to i32*, !dbg !4771
	%132 = load i32, i32*  %131, align 4, !tbaa !4078, !dbg !4771
	%133 = icmp sle i32  %132, 1, !dbg !4771
	br i1  %133, label %L..inline.72869, label %L.B1407, !dbg !4771
L.B1407:
	%134 = load %struct._Z6FsGridISt5arrayIdLm3EELi2EE*, %struct._Z6FsGridISt5arrayIdLm3EELi2EE** %_T40100064_53059.addr, align 8, !tbaa !4079, !dbg !4772
	%135 = bitcast %struct._Z6FsGridISt5arrayIdLm3EELi2EE*  %134 to i8*, !dbg !4772
	%136 = getelementptr i8, i8*  %135, i64 276, !dbg !4772
	%137 = bitcast i8*  %136 to i32*, !dbg !4772
	%138 = load i32, i32*  %137, align 4, !tbaa !4078, !dbg !4772
	%139 = load i32, i32* %y.addr, align 4, !tbaa !4296, !dbg !4772
	%140 = add i32  %139, 2, !dbg !4772
	%141 = mul i32  %138,  %140, !dbg !4772
	%142 = sext i32  %141 to i64, !dbg !4772
	%143 = load i64, i64* %..inline.addr.1, align 8, !tbaa !4610, !dbg !4772
	%144 = add i64  %142,  %143, !dbg !4772
	store i64  %144, i64* %..inline.addr.1, align 8, !tbaa !4610, !dbg !4772
	br label %L..inline.72869
L..inline.72869:
	%145 = load %struct._Z6FsGridISt5arrayIdLm3EELi2EE*, %struct._Z6FsGridISt5arrayIdLm3EELi2EE** %..inline.addr, align 8, !tbaa !4079, !dbg !4773
	%146 = bitcast %struct._Z6FsGridISt5arrayIdLm3EELi2EE*  %145 to i8*, !dbg !4773
	%147 = getelementptr i8, i8*  %146, i64 252, !dbg !4773
	%148 = bitcast i8*  %147 to i32*, !dbg !4773
	%149 = load i32, i32*  %148, align 4, !tbaa !4078, !dbg !4773
	%150 = icmp sle i32  %149, 1, !dbg !4773
	%151 = zext i1  %150 to i32, !dbg !4773
	%152 = trunc i32  %151 to i1, !dbg !4773
	%153 = load i64, i64* %..inline.addr.1, align 8, !tbaa !4610, !dbg !4773
	%154 = load i32, i32* %x.addr, align 4, !tbaa !4296, !dbg !4773
	%155 = sext i32  %154 to i64, !dbg !4773
	%156 = add i64  %155, 2, !dbg !4773
	%157 = add i64  %153,  %156, !dbg !4773
	%158 = select i1  %152, i64  %153, i64  %157, !dbg !4773
	%159 = load %struct._Z6FsGridISt5arrayIdLm3EELi2EE*, %struct._Z6FsGridISt5arrayIdLm3EELi2EE** %_T40100064_53059.addr, align 8, !tbaa !4079, !dbg !4774
	%160 = bitcast %struct._Z6FsGridISt5arrayIdLm3EELi2EE*  %159 to i8*, !dbg !4774
	%161 = getelementptr i8, i8*  %160, i64 744, !dbg !4774
	%162 = bitcast i8*  %161 to i8**, !dbg !4774
	%163 = load i8*, i8**  %162, align 8, !tbaa !4079, !dbg !4774
	%164 = mul i64  %158, 24, !dbg !4774
	%165 = getelementptr i8, i8*  %163, i64  %164, !dbg !4774
	%166 = bitcast i8*  %165 to %struct._ZSt5arrayIdLm3EE*, !dbg !4774
	ret %struct._ZSt5arrayIdLm3EE*  %166, !dbg !4774
L.R0023:
	ret %struct._ZSt5arrayIdLm3EE* null
}
define linkonce_odr void @_ZN6FsGridISt5arrayIdLm3EELi2EE17getPhysicalCoordsEiii(%struct._ZSt5arrayIdLm3EE* sret %sretaddr, %struct._Z6FsGridISt5arrayIdLm3EELi2EE* %_T39440608_53060.arg, i32 signext %x.arg, i32 signext %y.arg, i32 signext %z.arg) #0 inlinehint !dbg !4779 {
L.entry:
	%_T39440608_53060.addr = alloca %struct._Z6FsGridISt5arrayIdLm3EELi2EE*, align 8
	%x.addr = alloca i32, align 4
	%y.addr = alloca i32, align 4
	%z.addr = alloca i32, align 4
	%coords.addr = alloca %struct._ZSt5arrayIdLm3EE, align 8
	%_T39442384_53060.addr = alloca %struct._ZSt5arrayIdLm3EE, align 8

	call void @llvm.dbg.declare (metadata %struct._Z6FsGridISt5arrayIdLm3EELi2EE** %_T39440608_53060.addr, metadata !4855, metadata !4071), !dbg !4780
	store %struct._Z6FsGridISt5arrayIdLm3EELi2EE* %_T39440608_53060.arg, %struct._Z6FsGridISt5arrayIdLm3EELi2EE** %_T39440608_53060.addr, align 8, !tbaa !4079
	call void @llvm.dbg.declare (metadata %struct._Z6FsGridISt5arrayIdLm3EELi2EE** %_T39440608_53060.addr, metadata !4856, metadata !4071), !dbg !4780
	call void @llvm.dbg.declare (metadata i32* %x.addr, metadata !4857, metadata !4071), !dbg !4780
	store i32 %x.arg, i32* %x.addr, align 4, !tbaa !4078
	call void @llvm.dbg.declare (metadata i32* %x.addr, metadata !4858, metadata !4071), !dbg !4780
	call void @llvm.dbg.declare (metadata i32* %y.addr, metadata !4859, metadata !4071), !dbg !4780
	store i32 %y.arg, i32* %y.addr, align 4, !tbaa !4078
	call void @llvm.dbg.declare (metadata i32* %y.addr, metadata !4860, metadata !4071), !dbg !4780
	call void @llvm.dbg.declare (metadata i32* %z.addr, metadata !4861, metadata !4071), !dbg !4780
	store i32 %z.arg, i32* %z.addr, align 4, !tbaa !4078
	call void @llvm.dbg.declare (metadata i32* %z.addr, metadata !4862, metadata !4071), !dbg !4780
	%0 = load %struct._Z6FsGridISt5arrayIdLm3EELi2EE*, %struct._Z6FsGridISt5arrayIdLm3EELi2EE** %_T39440608_53060.addr, align 8, !tbaa !4079, !dbg !4863
	%1 = bitcast %struct._Z6FsGridISt5arrayIdLm3EELi2EE*  %0 to double*, !dbg !4863
	%2 = load double, double*  %1, align 8, !tbaa !4078, !dbg !4863
	%3 = load i32, i32* %x.addr, align 4, !tbaa !4296, !dbg !4863
	%4 = bitcast %struct._Z6FsGridISt5arrayIdLm3EELi2EE*  %0 to i8*, !dbg !4863
	%5 = getelementptr i8, i8*  %4, i64 288, !dbg !4863
	%6 = bitcast i8*  %5 to i32*, !dbg !4863
	%7 = load i32, i32*  %6, align 4, !tbaa !4078, !dbg !4863
	%8 = add i32  %3,  %7, !dbg !4863
	%9 = sitofp i32  %8 to double, !dbg !4863
	%10 = getelementptr i8, i8*  %4, i64 24, !dbg !4863
	%11 = bitcast i8*  %10 to double*, !dbg !4863
	%12 = load double, double*  %11, align 8, !tbaa !4078, !dbg !4863
	%13 = call double @llvm.fma.f64 (double  %2, double  %9, double  %12), !dbg !4863
	call void @llvm.dbg.declare (metadata %struct._ZSt5arrayIdLm3EE* %coords.addr, metadata !4864, metadata !4071), !dbg !4780
	%14 = bitcast %struct._ZSt5arrayIdLm3EE* %coords.addr to double*, !dbg !4863
	store double  %13, double*  %14, align 8, !tbaa !4078, !dbg !4863
	%15 = load %struct._Z6FsGridISt5arrayIdLm3EELi2EE*, %struct._Z6FsGridISt5arrayIdLm3EELi2EE** %_T39440608_53060.addr, align 8, !tbaa !4079, !dbg !4863
	%16 = bitcast %struct._Z6FsGridISt5arrayIdLm3EELi2EE*  %15 to i8*, !dbg !4863
	%17 = getelementptr i8, i8*  %16, i64 8, !dbg !4863
	%18 = bitcast i8*  %17 to double*, !dbg !4863
	%19 = load double, double*  %18, align 8, !tbaa !4078, !dbg !4863
	%20 = load i32, i32* %y.addr, align 4, !tbaa !4296, !dbg !4863
	%21 = getelementptr i8, i8*  %16, i64 292, !dbg !4863
	%22 = bitcast i8*  %21 to i32*, !dbg !4863
	%23 = load i32, i32*  %22, align 4, !tbaa !4078, !dbg !4863
	%24 = add i32  %20,  %23, !dbg !4863
	%25 = sitofp i32  %24 to double, !dbg !4863
	%26 = getelementptr i8, i8*  %16, i64 32, !dbg !4863
	%27 = bitcast i8*  %26 to double*, !dbg !4863
	%28 = load double, double*  %27, align 8, !tbaa !4078, !dbg !4863
	%29 = call double @llvm.fma.f64 (double  %19, double  %25, double  %28), !dbg !4863
	%30 = bitcast %struct._ZSt5arrayIdLm3EE* %coords.addr to i8*, !dbg !4863
	%31 = getelementptr i8, i8*  %30, i64 8, !dbg !4863
	%32 = bitcast i8*  %31 to double*, !dbg !4863
	store double  %29, double*  %32, align 8, !tbaa !4078, !dbg !4863
	%33 = getelementptr i8, i8*  %16, i64 16, !dbg !4863
	%34 = bitcast i8*  %33 to double*, !dbg !4863
	%35 = load double, double*  %34, align 8, !tbaa !4078, !dbg !4863
	%36 = load i32, i32* %z.addr, align 4, !tbaa !4296, !dbg !4863
	%37 = getelementptr i8, i8*  %16, i64 296, !dbg !4863
	%38 = bitcast i8*  %37 to i32*, !dbg !4863
	%39 = load i32, i32*  %38, align 4, !tbaa !4078, !dbg !4863
	%40 = add i32  %36,  %39, !dbg !4863
	%41 = sitofp i32  %40 to double, !dbg !4863
	%42 = getelementptr i8, i8*  %16, i64 40, !dbg !4863
	%43 = bitcast i8*  %42 to double*, !dbg !4863
	%44 = load double, double*  %43, align 8, !tbaa !4078, !dbg !4863
	%45 = call double @llvm.fma.f64 (double  %35, double  %41, double  %44), !dbg !4863
	%46 = getelementptr i8, i8*  %30, i64 16, !dbg !4863
	%47 = bitcast i8*  %46 to double*, !dbg !4863
	store double  %45, double*  %47, align 8, !tbaa !4078, !dbg !4863
	%48 = bitcast %struct._ZSt5arrayIdLm3EE* %coords.addr to i64*, !dbg !4865
	%49 = load i64, i64*  %48, align 8, !tbaa !4078, !dbg !4865
	%50 = bitcast %struct._ZSt5arrayIdLm3EE* %_T39442384_53060.addr to i64*, !dbg !4865
	store i64  %49, i64*  %50, align 8, !tbaa !4078, !dbg !4865
	%51 = bitcast i8*  %31 to i64*, !dbg !4865
	%52 = load i64, i64*  %51, align 8, !tbaa !4078, !dbg !4865
	%53 = bitcast %struct._ZSt5arrayIdLm3EE* %_T39442384_53060.addr to i8*, !dbg !4865
	%54 = getelementptr i8, i8*  %53, i64 8, !dbg !4865
	%55 = bitcast i8*  %54 to i64*, !dbg !4865
	store i64  %52, i64*  %55, align 8, !tbaa !4078, !dbg !4865
	%56 = bitcast i8*  %46 to i64*, !dbg !4865
	%57 = load i64, i64*  %56, align 8, !tbaa !4078, !dbg !4865
	%58 = getelementptr i8, i8*  %53, i64 16, !dbg !4865
	%59 = bitcast i8*  %58 to i64*, !dbg !4865
	store i64  %57, i64*  %59, align 8, !tbaa !4078, !dbg !4865
	%60 = load i64, i64*  %50, align 8, !tbaa !4078, !dbg !4865
	%61 = bitcast %struct._ZSt5arrayIdLm3EE* %sretaddr to i64*, !dbg !4865
	store i64  %60, i64*  %61, align 8, !tbaa !4078, !dbg !4865
	%62 = load i64, i64*  %55, align 8, !tbaa !4078, !dbg !4865
	%63 = bitcast %struct._ZSt5arrayIdLm3EE* %sretaddr to i8*, !dbg !4865
	%64 = getelementptr i8, i8*  %63, i64 8, !dbg !4865
	%65 = bitcast i8*  %64 to i64*, !dbg !4865
	store i64  %62, i64*  %65, align 8, !tbaa !4078, !dbg !4865
	%66 = getelementptr i8, i8*  %63, i64 16, !dbg !4865
	%67 = bitcast i8*  %66 to i64*, !dbg !4865
	store i64  %57, i64*  %67, align 8, !tbaa !4078, !dbg !4865
	ret void, !dbg !4865
}
define linkonce_odr void @_ZNSt11char_traitsIcE6assignERcRKc(i8* %__c1.arg, i8* %__c2.arg) #0 inlinehint !dbg !4873 {
L.entry:
	%__c1.addr = alloca i8*, align 8
	%__c2.addr = alloca i8*, align 8

	call void @llvm.dbg.declare (metadata i8** %__c1.addr, metadata !4877, metadata !4071), !dbg !4874
	store i8* %__c1.arg, i8** %__c1.addr, align 8, !tbaa !4079
	call void @llvm.dbg.declare (metadata i8** %__c1.addr, metadata !4878, metadata !4071), !dbg !4874
	call void @llvm.dbg.declare (metadata i8** %__c2.addr, metadata !4879, metadata !4071), !dbg !4874
	store i8* %__c2.arg, i8** %__c2.addr, align 8, !tbaa !4079
	call void @llvm.dbg.declare (metadata i8** %__c2.addr, metadata !4880, metadata !4071), !dbg !4874
	%0 = load i8*, i8** %__c2.addr, align 8, !tbaa !4079, !dbg !4881
	%1 = load i8, i8*  %0, align 1, !tbaa !4078, !dbg !4881
	%2 = load i8*, i8** %__c1.addr, align 8, !tbaa !4079, !dbg !4881
	store i8  %1, i8*  %2, align 1, !tbaa !4078, !dbg !4881
	ret void, !dbg !4881
}
define linkonce_odr i64 @_ZNSt11char_traitsIcE6lengthEPKc(i8* %__s.arg) #0 inlinehint !dbg !4885 {
L.entry:
	%__s.addr = alloca i8*, align 8

	call void @llvm.dbg.declare (metadata i8** %__s.addr, metadata !4889, metadata !4071), !dbg !4886
	store i8* %__s.arg, i8** %__s.addr, align 8, !tbaa !4079
	call void @llvm.dbg.declare (metadata i8** %__s.addr, metadata !4890, metadata !4071), !dbg !4886
	%0 = load i8*, i8** %__s.addr, align 8, !tbaa !4079, !dbg !4891
	%1 = call i64  @strlen (i8*  %0) nounwind, !dbg !4891
	ret i64  %1, !dbg !4891
}
define linkonce_odr i8* @_ZNSt11char_traitsIcE4copyEPcPKcm(i8* %__s1.arg, i8* %__s2.arg, i64 %__n.arg) #0 inlinehint !dbg !4896 {
L.entry:
	%__s1.addr = alloca i8*, align 8
	%__s2.addr = alloca i8*, align 8
	%__n.addr = alloca i64, align 8

	call void @llvm.dbg.declare (metadata i8** %__s1.addr, metadata !4900, metadata !4071), !dbg !4897
	store i8* %__s1.arg, i8** %__s1.addr, align 8, !tbaa !4079
	call void @llvm.dbg.declare (metadata i8** %__s1.addr, metadata !4901, metadata !4071), !dbg !4897
	call void @llvm.dbg.declare (metadata i8** %__s2.addr, metadata !4902, metadata !4071), !dbg !4897
	store i8* %__s2.arg, i8** %__s2.addr, align 8, !tbaa !4079
	call void @llvm.dbg.declare (metadata i8** %__s2.addr, metadata !4903, metadata !4071), !dbg !4897
	call void @llvm.dbg.declare (metadata i64* %__n.addr, metadata !4904, metadata !4071), !dbg !4897
	store i64 %__n.arg, i64* %__n.addr, align 8, !tbaa !4078
	call void @llvm.dbg.declare (metadata i64* %__n.addr, metadata !4905, metadata !4071), !dbg !4897
	%0 = load i64, i64* %__n.addr, align 8, !tbaa !4610, !dbg !4906
	%1 = icmp ne i64  %0, 0, !dbg !4906
	br i1  %1, label %L.B0017, label %L.B1426, !dbg !4906
L.B1426:
	%2 = load i8*, i8** %__s1.addr, align 8, !tbaa !4079, !dbg !4907
	ret i8*  %2, !dbg !4907
L.B1427:
	br label %L.R0027, !dbg !4907
L.B0017:
	%3 = load i8*, i8** %__s1.addr, align 8, !tbaa !4079, !dbg !4908
	%4 = load i8*, i8** %__s2.addr, align 8, !tbaa !4079, !dbg !4908
	%5 = load i64, i64* %__n.addr, align 8, !tbaa !4610, !dbg !4908
	%6 = call i8*  @memcpy (i8*  %3, i8*  %4, i64  %5) nounwind, !dbg !4908
	ret i8*  %6, !dbg !4908
L.R0027:
	ret i8* null
}

%struct._ZSaIcE = type <{ [1 x i8]}> 

define linkonce_odr void @_ZNSaIcEC1Ev(%struct._ZSaIcE* %_T39440608_53068.arg) #0 inlinehint !dbg !4916 {
L.entry:
	%_T39440608_53068.addr = alloca %struct._ZSaIcE*, align 8

	call void @llvm.dbg.declare (metadata %struct._ZSaIcE** %_T39440608_53068.addr, metadata !4920, metadata !4071), !dbg !4917
	store %struct._ZSaIcE* %_T39440608_53068.arg, %struct._ZSaIcE** %_T39440608_53068.addr, align 8, !tbaa !4079
	call void @llvm.dbg.declare (metadata %struct._ZSaIcE** %_T39440608_53068.addr, metadata !4921, metadata !4071), !dbg !4917
	ret void, !dbg !4922
}
define linkonce_odr void @_ZNSaIcEC2Ev(%struct._ZSaIcE* %_T39440608_53069.arg) #0 inlinehint !dbg !4924 {
L.entry:
	%_T39440608_53069.addr = alloca %struct._ZSaIcE*, align 8

	store %struct._ZSaIcE* %_T39440608_53069.arg, %struct._ZSaIcE** %_T39440608_53069.addr, align 8, !tbaa !4079
	ret void, !dbg !4932
}
define linkonce_odr void @_ZNSaIcED1Ev(%struct._ZSaIcE* %_T39440608_53070.arg) #0 inlinehint !dbg !4934 {
L.entry:
	%_T39440608_53070.addr = alloca %struct._ZSaIcE*, align 8

	call void @llvm.dbg.declare (metadata %struct._ZSaIcE** %_T39440608_53070.addr, metadata !4938, metadata !4071), !dbg !4935
	store %struct._ZSaIcE* %_T39440608_53070.arg, %struct._ZSaIcE** %_T39440608_53070.addr, align 8, !tbaa !4079
	call void @llvm.dbg.declare (metadata %struct._ZSaIcE** %_T39440608_53070.addr, metadata !4939, metadata !4071), !dbg !4935
	ret void, !dbg !4940
}
define linkonce_odr void @_ZNSaIcED2Ev(%struct._ZSaIcE* %_T39440608_53071.arg) #0 inlinehint !dbg !4942 {
L.entry:
	%_T39440608_53071.addr = alloca %struct._ZSaIcE*, align 8

	store %struct._ZSaIcE* %_T39440608_53071.arg, %struct._ZSaIcE** %_T39440608_53071.addr, align 8, !tbaa !4079
	ret void, !dbg !4950
}
define linkonce_odr void @_ZNSt16allocator_traitsISaIcEE10deallocateERS0_Pcm(%struct._ZSaIcE* %__a.arg, i8* %__p.arg, i64 %__n.arg) #0 inlinehint !dbg !4960 {
L.entry:
	%__a.addr = alloca %struct._ZSaIcE*, align 8
	%__p.addr = alloca i8*, align 8
	%__n.addr = alloca i64, align 8
	%..inline.addr = alloca i8*, align 8

	call void @llvm.dbg.declare (metadata %struct._ZSaIcE** %__a.addr, metadata !4968, metadata !4071), !dbg !4961
	store %struct._ZSaIcE* %__a.arg, %struct._ZSaIcE** %__a.addr, align 8, !tbaa !4079
	call void @llvm.dbg.declare (metadata %struct._ZSaIcE** %__a.addr, metadata !4969, metadata !4071), !dbg !4961
	call void @llvm.dbg.declare (metadata i8** %__p.addr, metadata !4970, metadata !4071), !dbg !4961
	store i8* %__p.arg, i8** %__p.addr, align 8, !tbaa !4079
	call void @llvm.dbg.declare (metadata i8** %__p.addr, metadata !4971, metadata !4071), !dbg !4961
	call void @llvm.dbg.declare (metadata i64* %__n.addr, metadata !4972, metadata !4071), !dbg !4961
	store i64 %__n.arg, i64* %__n.addr, align 8, !tbaa !4078
	call void @llvm.dbg.declare (metadata i64* %__n.addr, metadata !4973, metadata !4071), !dbg !4961
	%0 = load i8*, i8** %__p.addr, align 8, !tbaa !4079, !dbg !4974
	call void  @_ZdlPv (i8*  %0) nounwind, !dbg !4975
	ret void, !dbg !4974
}
define linkonce_odr signext i8 @_ZNKSt5ctypeIcE5widenEc(%struct._ZSt5ctypeIcE* %_T39440792_53079.arg, i8 signext %__c.arg) #0 inlinehint !dbg !4981 {
L.entry:
	%_T39440792_53079.addr = alloca %struct._ZSt5ctypeIcE*, align 8
	%__c.addr = alloca i8, align 1
	%.Q0006.addr = alloca i32, align 4

	call void @llvm.dbg.declare (metadata %struct._ZSt5ctypeIcE** %_T39440792_53079.addr, metadata !4985, metadata !4071), !dbg !4982
	store %struct._ZSt5ctypeIcE* %_T39440792_53079.arg, %struct._ZSt5ctypeIcE** %_T39440792_53079.addr, align 8, !tbaa !4079
	call void @llvm.dbg.declare (metadata %struct._ZSt5ctypeIcE** %_T39440792_53079.addr, metadata !4986, metadata !4071), !dbg !4982
	call void @llvm.dbg.declare (metadata i8* %__c.addr, metadata !4987, metadata !4071), !dbg !4982
	store i8 %__c.arg, i8* %__c.addr, align 1, !tbaa !4078
	call void @llvm.dbg.declare (metadata i8* %__c.addr, metadata !4988, metadata !4071), !dbg !4982
	%0 = load %struct._ZSt5ctypeIcE*, %struct._ZSt5ctypeIcE** %_T39440792_53079.addr, align 8, !tbaa !4079, !dbg !4989
	%1 = bitcast %struct._ZSt5ctypeIcE*  %0 to i8*, !dbg !4989
	%2 = getelementptr i8, i8*  %1, i64 56, !dbg !4989
	%3 = load i8, i8*  %2, align 1, !tbaa !4078, !dbg !4989
	%4 = sext i8  %3 to i32, !dbg !4989
	%5 = icmp eq i32  %4, 0, !dbg !4989
	br i1  %5, label %L.B0018, label %L.B1434, !dbg !4989
L.B1434:
	%6 = bitcast %struct._ZSt5ctypeIcE*  %0 to i8*, !dbg !4990
	%7 = getelementptr i8, i8*  %6, i64 57, !dbg !4990
	%8 = load i8, i8* %__c.addr, align 1, !tbaa !4078, !dbg !4990
	%9 = sext i8  %8 to i32, !dbg !4990
	%10 = and i32  %9, 255, !dbg !4990
	%11 = sext i32  %10 to i64, !dbg !4990
	%12 = getelementptr i8, i8*  %7, i64  %11, !dbg !4990
	%13 = load i8, i8*  %12, align 1, !tbaa !4078, !dbg !4990
	ret i8  %13, !dbg !4990
L.B1435:
	br label %L.R0033, !dbg !4990
L.B0018:
	%14 = load %struct._ZSt5ctypeIcE*, %struct._ZSt5ctypeIcE** %_T39440792_53079.addr, align 8, !tbaa !4079, !dbg !4991
	call void  @_ZNKSt5ctypeIcE13_M_widen_initEv (%struct._ZSt5ctypeIcE*  %14), !dbg !4991
	%15 = load %struct._ZSt5ctypeIcE*, %struct._ZSt5ctypeIcE** %_T39440792_53079.addr, align 8, !tbaa !4079, !dbg !4992
	%16 = load i8, i8* %__c.addr, align 1, !tbaa !4078, !dbg !4992
	%17 = bitcast %struct._ZSt5ctypeIcE*  %15 to i8**, !dbg !4992
	%18 = load i8*, i8**  %17, align 8, !tbaa !4079, !dbg !4992
	%19 = getelementptr i8, i8*  %18, i64 48, !dbg !4992
	%20 = bitcast i8*  %19 to i8 (%struct._ZSt5ctypeIcE*, i8)**, !dbg !4992
	%21 = load i8 (%struct._ZSt5ctypeIcE*, i8)*, i8 (%struct._ZSt5ctypeIcE*, i8)**  %20, align 8, !tbaa !4079, !dbg !4992
	%22 = call i8  %21 (%struct._ZSt5ctypeIcE*  %15, i8  %16), !dbg !4992
	%23 = sext i8  %22 to i32, !dbg !4992
	store i32  %23, i32* %.Q0006.addr, align 4, !tbaa !4296, !dbg !4992
	%24 = shl i32  %23, 24, !dbg !4992
	%25 = ashr i32  %24, 24, !dbg !4992
	%26 = trunc i32  %25 to i8, !dbg !4992
	ret i8  %26, !dbg !4992
L.R0033:
	ret i8 0
}
define linkonce_odr signext i32 @_ZNKSt9basic_iosIcSt11char_traitsIcEE7rdstateEv(%struct._ZSt9basic_iosIcSt11char_traitsIcEE* %_T39440608_53082.arg) #0 inlinehint !dbg !5000 {
L.entry:
	%_T39440608_53082.addr = alloca %struct._ZSt9basic_iosIcSt11char_traitsIcEE*, align 8

	call void @llvm.dbg.declare (metadata %struct._ZSt9basic_iosIcSt11char_traitsIcEE** %_T39440608_53082.addr, metadata !5004, metadata !4071), !dbg !5001
	store %struct._ZSt9basic_iosIcSt11char_traitsIcEE* %_T39440608_53082.arg, %struct._ZSt9basic_iosIcSt11char_traitsIcEE** %_T39440608_53082.addr, align 8, !tbaa !4079
	call void @llvm.dbg.declare (metadata %struct._ZSt9basic_iosIcSt11char_traitsIcEE** %_T39440608_53082.addr, metadata !5005, metadata !4071), !dbg !5001
	%0 = load %struct._ZSt9basic_iosIcSt11char_traitsIcEE*, %struct._ZSt9basic_iosIcSt11char_traitsIcEE** %_T39440608_53082.addr, align 8, !tbaa !4079, !dbg !5006
	%1 = bitcast %struct._ZSt9basic_iosIcSt11char_traitsIcEE*  %0 to i8*, !dbg !5006
	%2 = getelementptr i8, i8*  %1, i64 32, !dbg !5006
	%3 = bitcast i8*  %2 to i32*, !dbg !5006
	%4 = load i32, i32*  %3, align 4, !tbaa !4078, !dbg !5006
	ret i32  %4, !dbg !5006
}
define linkonce_odr void @_ZNSt9basic_iosIcSt11char_traitsIcEE8setstateESt12_Ios_Iostate(%struct._ZSt9basic_iosIcSt11char_traitsIcEE* %_T39440608_53086.arg, i32 signext %__state.arg) #0 inlinehint !dbg !5010 {
L.entry:
	%_T39440608_53086.addr = alloca %struct._ZSt9basic_iosIcSt11char_traitsIcEE*, align 8
	%__state.addr = alloca i32, align 4
	%..inline.addr = alloca i32, align 4

	call void @llvm.dbg.declare (metadata %struct._ZSt9basic_iosIcSt11char_traitsIcEE** %_T39440608_53086.addr, metadata !5022, metadata !4071), !dbg !5011
	store %struct._ZSt9basic_iosIcSt11char_traitsIcEE* %_T39440608_53086.arg, %struct._ZSt9basic_iosIcSt11char_traitsIcEE** %_T39440608_53086.addr, align 8, !tbaa !4079
	call void @llvm.dbg.declare (metadata %struct._ZSt9basic_iosIcSt11char_traitsIcEE** %_T39440608_53086.addr, metadata !5023, metadata !4071), !dbg !5011
	call void @llvm.dbg.declare (metadata i32* %__state.addr, metadata !5024, metadata !4071), !dbg !5011
	store i32 %__state.arg, i32* %__state.addr, align 4, !tbaa !4078
	call void @llvm.dbg.declare (metadata i32* %__state.addr, metadata !5025, metadata !4071), !dbg !5011
	%0 = load i32, i32* %__state.addr, align 4, !tbaa !4078, !dbg !5026
	%1 = load %struct._ZSt9basic_iosIcSt11char_traitsIcEE*, %struct._ZSt9basic_iosIcSt11char_traitsIcEE** %_T39440608_53086.addr, align 8, !tbaa !4079, !dbg !5026
	%2 = bitcast %struct._ZSt9basic_iosIcSt11char_traitsIcEE*  %1 to i8*, !dbg !5026
	%3 = getelementptr i8, i8*  %2, i64 32, !dbg !5026
	%4 = bitcast i8*  %3 to i32*, !dbg !5026
	%5 = load i32, i32*  %4, align 4, !tbaa !4078, !dbg !5026
	%6 = or i32  %0,  %5, !dbg !5026
	call void  @_ZNSt9basic_iosIcSt11char_traitsIcEE5clearESt12_Ios_Iostate (%struct._ZSt9basic_iosIcSt11char_traitsIcEE*  %1, i32  %6), !dbg !5027
	ret void, !dbg !5026
}
define linkonce_odr signext i8 @_ZNKSt9basic_iosIcSt11char_traitsIcEE5widenEc(%struct._ZSt9basic_iosIcSt11char_traitsIcEE* %_T39440608_53088.arg, i8 signext %__c.arg) #0 inlinehint !dbg !5031 {
L.entry:
	%_T39440608_53088.addr = alloca %struct._ZSt9basic_iosIcSt11char_traitsIcEE*, align 8
	%__c.addr = alloca i8, align 1
	%..inline.addr = alloca %struct._ZSt5ctypeIcE*, align 8
	%..inline.addr.1 = alloca %struct._ZSt5ctypeIcE*, align 8
	%..inline.addr.2 = alloca i8, align 1
	%..inline.addr.3 = alloca i8, align 1
	%.Q0007.addr = alloca i32, align 4

	call void @llvm.dbg.declare (metadata %struct._ZSt9basic_iosIcSt11char_traitsIcEE** %_T39440608_53088.addr, metadata !5043, metadata !4071), !dbg !5032
	store %struct._ZSt9basic_iosIcSt11char_traitsIcEE* %_T39440608_53088.arg, %struct._ZSt9basic_iosIcSt11char_traitsIcEE** %_T39440608_53088.addr, align 8, !tbaa !4079
	call void @llvm.dbg.declare (metadata %struct._ZSt9basic_iosIcSt11char_traitsIcEE** %_T39440608_53088.addr, metadata !5044, metadata !4071), !dbg !5032
	call void @llvm.dbg.declare (metadata i8* %__c.addr, metadata !5045, metadata !4071), !dbg !5032
	store i8 %__c.arg, i8* %__c.addr, align 1, !tbaa !4078
	call void @llvm.dbg.declare (metadata i8* %__c.addr, metadata !5046, metadata !4071), !dbg !5032
	%0 = load %struct._ZSt9basic_iosIcSt11char_traitsIcEE*, %struct._ZSt9basic_iosIcSt11char_traitsIcEE** %_T39440608_53088.addr, align 8, !tbaa !4079, !dbg !5047
	%1 = bitcast %struct._ZSt9basic_iosIcSt11char_traitsIcEE*  %0 to i8*, !dbg !5047
	%2 = getelementptr i8, i8*  %1, i64 240, !dbg !5047
	%3 = bitcast i8*  %2 to i8**, !dbg !5047
	%4 = load i8*, i8**  %3, align 8, !tbaa !4079, !dbg !5047
	%5 = bitcast %struct._ZSt5ctypeIcE** %..inline.addr to i8**, !dbg !5047
	store i8*  %4, i8**  %5, align 8, !tbaa !4079, !dbg !5047
	%6 = load %struct._ZSt5ctypeIcE*, %struct._ZSt5ctypeIcE** %..inline.addr, align 8, !tbaa !4079, !dbg !5047
	%7 = bitcast %struct._ZSt5ctypeIcE*  %6 to i8*, !dbg !5047
	%8 = icmp ne i8*  %7,  null, !dbg !5047
	br i1  %8, label %L..inline.73347, label %L.B1444, !dbg !5047
L.B1444:
	call void  @_ZSt16__throw_bad_castv () noreturn, !dbg !5048
	br label %L..inline.73347
L..inline.73347:
	%9 = load %struct._ZSt5ctypeIcE*, %struct._ZSt5ctypeIcE** %..inline.addr, align 8, !tbaa !4079, !dbg !5049
	%10 = bitcast %struct._ZSt5ctypeIcE*  %9 to i8*, !dbg !5049
	%11 = bitcast %struct._ZSt5ctypeIcE** %..inline.addr.1 to i8**, !dbg !5049
	store i8*  %10, i8**  %11, align 8, !tbaa !4079, !dbg !5049
	%12 = load i8, i8* %__c.addr, align 1, !tbaa !4078, !dbg !5047
	store i8  %12, i8* %..inline.addr.2, align 1, !tbaa !4078, !dbg !5047
	%13 = load %struct._ZSt5ctypeIcE*, %struct._ZSt5ctypeIcE** %..inline.addr.1, align 8, !tbaa !4079, !dbg !5047
	%14 = bitcast %struct._ZSt5ctypeIcE*  %13 to i8*, !dbg !5047
	%15 = getelementptr i8, i8*  %14, i64 56, !dbg !5047
	%16 = load i8, i8*  %15, align 1, !tbaa !4078, !dbg !5047
	%17 = sext i8  %16 to i32, !dbg !5047
	%18 = icmp eq i32  %17, 0, !dbg !5047
	br i1  %18, label %L..inline.73353, label %L.B1445, !dbg !5047
L.B1445:
	%19 = bitcast %struct._ZSt5ctypeIcE*  %13 to i8*, !dbg !5050
	%20 = getelementptr i8, i8*  %19, i64 57, !dbg !5050
	%21 = sext i8  %12 to i32, !dbg !5050
	%22 = and i32  %21, 255, !dbg !5050
	%23 = sext i32  %22 to i64, !dbg !5050
	%24 = getelementptr i8, i8*  %20, i64  %23, !dbg !5050
	%25 = load i8, i8*  %24, align 1, !tbaa !4078, !dbg !5050
	store i8  %25, i8* %..inline.addr.3, align 1, !tbaa !4078, !dbg !5050
	br label %L..inline.73357, !dbg !5051
L..inline.73353:
	%26 = load %struct._ZSt5ctypeIcE*, %struct._ZSt5ctypeIcE** %..inline.addr.1, align 8, !tbaa !4079, !dbg !5052
	call void  @_ZNKSt5ctypeIcE13_M_widen_initEv (%struct._ZSt5ctypeIcE*  %26), !dbg !5052
	%27 = load %struct._ZSt5ctypeIcE*, %struct._ZSt5ctypeIcE** %..inline.addr.1, align 8, !tbaa !4079, !dbg !5053
	%28 = load i8, i8* %..inline.addr.2, align 1, !tbaa !4078, !dbg !5053
	%29 = bitcast %struct._ZSt5ctypeIcE*  %27 to i8**, !dbg !5053
	%30 = load i8*, i8**  %29, align 8, !tbaa !4079, !dbg !5053
	%31 = getelementptr i8, i8*  %30, i64 48, !dbg !5053
	%32 = bitcast i8*  %31 to i8 (%struct._ZSt5ctypeIcE*, i8)**, !dbg !5053
	%33 = load i8 (%struct._ZSt5ctypeIcE*, i8)*, i8 (%struct._ZSt5ctypeIcE*, i8)**  %32, align 8, !tbaa !4079, !dbg !5053
	%34 = call i8  %33 (%struct._ZSt5ctypeIcE*  %27, i8  %28), !dbg !5053
	%35 = sext i8  %34 to i32, !dbg !5053
	store i32  %35, i32* %.Q0007.addr, align 4, !tbaa !4296, !dbg !5053
	%36 = shl i32  %35, 24, !dbg !5053
	%37 = ashr i32  %36, 24, !dbg !5053
	%38 = trunc i32  %37 to i8, !dbg !5053
	store i8  %38, i8* %..inline.addr.3, align 1, !tbaa !4078, !dbg !5053
	br label %L..inline.73357
L..inline.73357:
	%39 = load i8, i8* %..inline.addr.3, align 1, !tbaa !4078, !dbg !5054
	ret i8  %39, !dbg !5054
}
define linkonce_odr %struct._ZSo* @_ZNSolsEPFRSoS_E(%struct._ZSo* %_T39440608_53090.arg, %struct._ZSo* (%struct._ZSo*)* %__pf.arg) #0 inlinehint !dbg !5063 {
L.entry:
	%_T39440608_53090.addr = alloca %struct._ZSo*, align 8
	%__pf.addr = alloca %struct._ZSo* (%struct._ZSo*)*, align 8
	%.Q0008.addr = alloca %struct._ZSo*, align 8

	call void @llvm.dbg.declare (metadata %struct._ZSo** %_T39440608_53090.addr, metadata !5067, metadata !4071), !dbg !5064
	store %struct._ZSo* %_T39440608_53090.arg, %struct._ZSo** %_T39440608_53090.addr, align 8, !tbaa !4079
	call void @llvm.dbg.declare (metadata %struct._ZSo** %_T39440608_53090.addr, metadata !5068, metadata !4071), !dbg !5064
	call void @llvm.dbg.declare (metadata %struct._ZSo* (%struct._ZSo*)** %__pf.addr, metadata !5069, metadata !4071), !dbg !5064
	store %struct._ZSo* (%struct._ZSo*)* %__pf.arg, %struct._ZSo* (%struct._ZSo*)** %__pf.addr, align 8, !tbaa !4079
	call void @llvm.dbg.declare (metadata %struct._ZSo* (%struct._ZSo*)** %__pf.addr, metadata !5070, metadata !4071), !dbg !5064
	%0 = load %struct._ZSo*, %struct._ZSo** %_T39440608_53090.addr, align 8, !tbaa !4079, !dbg !5071
	%1 = load %struct._ZSo* (%struct._ZSo*)*, %struct._ZSo* (%struct._ZSo*)** %__pf.addr, align 8, !tbaa !4079, !dbg !5071
	%2 = call %struct._ZSo*  %1 (%struct._ZSo*  %0), !dbg !5071
	%3 = bitcast %struct._ZSo*  %2 to i8*, !dbg !5071
	%4 = bitcast %struct._ZSo** %.Q0008.addr to i8**, !dbg !5071
	store i8*  %3, i8**  %4, align 8, !tbaa !4079, !dbg !5071
	%5 = load %struct._ZSo*, %struct._ZSo** %.Q0008.addr, align 8, !tbaa !4079, !dbg !5071
	ret %struct._ZSo*  %5, !dbg !5071
}
define linkonce_odr %struct._ZSo* @_ZNSolsEj(%struct._ZSo* %_T39440608_53092.arg, i32 zeroext %__n.arg) #0 inlinehint !dbg !5076 {
L.entry:
	%_T39440608_53092.addr = alloca %struct._ZSo*, align 8
	%__n.addr = alloca i32, align 4
	%.Q0009.addr = alloca %struct._ZSo*, align 8

	call void @llvm.dbg.declare (metadata %struct._ZSo** %_T39440608_53092.addr, metadata !5080, metadata !4071), !dbg !5077
	store %struct._ZSo* %_T39440608_53092.arg, %struct._ZSo** %_T39440608_53092.addr, align 8, !tbaa !4079
	call void @llvm.dbg.declare (metadata %struct._ZSo** %_T39440608_53092.addr, metadata !5081, metadata !4071), !dbg !5077
	call void @llvm.dbg.declare (metadata i32* %__n.addr, metadata !5082, metadata !4071), !dbg !5077
	store i32 %__n.arg, i32* %__n.addr, align 4, !tbaa !4078
	call void @llvm.dbg.declare (metadata i32* %__n.addr, metadata !5083, metadata !4071), !dbg !5077
	%0 = load %struct._ZSo*, %struct._ZSo** %_T39440608_53092.addr, align 8, !tbaa !4079, !dbg !5084
	%1 = load i32, i32* %__n.addr, align 4, !tbaa !4296, !dbg !5084
	%2 = zext i32  %1 to i64, !dbg !5084
	%3 = call %struct._ZSo*  @_ZNSo9_M_insertImEERSoT_ (%struct._ZSo*  %0, i64  %2), !dbg !5084
	%4 = bitcast %struct._ZSo*  %3 to i8*, !dbg !5084
	%5 = bitcast %struct._ZSo** %.Q0009.addr to i8**, !dbg !5084
	store i8*  %4, i8**  %5, align 8, !tbaa !4079, !dbg !5084
	%6 = load %struct._ZSo*, %struct._ZSo** %.Q0009.addr, align 8, !tbaa !4079, !dbg !5084
	ret %struct._ZSo*  %6, !dbg !5084
}
define linkonce_odr void @_ZNSt12_Destroy_auxILb1EE9__destroyIPjEEvT_S3_(i32* %_T39440608_53099.arg, i32* %_T39440904_53099.arg) #0 inlinehint !dbg !5091 {
L.entry:
	%_T39440608_53099.addr = alloca i32*, align 8
	%_T39440904_53099.addr = alloca i32*, align 8

	call void @llvm.dbg.declare (metadata i32** %_T39440608_53099.addr, metadata !5095, metadata !4071), !dbg !5092
	store i32* %_T39440608_53099.arg, i32** %_T39440608_53099.addr, align 8, !tbaa !4079
	call void @llvm.dbg.declare (metadata i32** %_T39440608_53099.addr, metadata !5096, metadata !4071), !dbg !5092
	call void @llvm.dbg.declare (metadata i32** %_T39440904_53099.addr, metadata !5097, metadata !4071), !dbg !5092
	store i32* %_T39440904_53099.arg, i32** %_T39440904_53099.addr, align 8, !tbaa !4079
	call void @llvm.dbg.declare (metadata i32** %_T39440904_53099.addr, metadata !5098, metadata !4071), !dbg !5092
	ret void, !dbg !5099
}
define linkonce_odr void @_ZNSt12_Destroy_auxILb1EE9__destroyIPdEEvT_S3_(double* %_T39440608_53102.arg, double* %_T39440904_53102.arg) #0 inlinehint !dbg !5103 {
L.entry:
	%_T39440608_53102.addr = alloca double*, align 8
	%_T39440904_53102.addr = alloca double*, align 8

	call void @llvm.dbg.declare (metadata double** %_T39440608_53102.addr, metadata !5107, metadata !4071), !dbg !5104
	store double* %_T39440608_53102.arg, double** %_T39440608_53102.addr, align 8, !tbaa !4079
	call void @llvm.dbg.declare (metadata double** %_T39440608_53102.addr, metadata !5108, metadata !4071), !dbg !5104
	call void @llvm.dbg.declare (metadata double** %_T39440904_53102.addr, metadata !5109, metadata !4071), !dbg !5104
	store double* %_T39440904_53102.arg, double** %_T39440904_53102.addr, align 8, !tbaa !4079
	call void @llvm.dbg.declare (metadata double** %_T39440904_53102.addr, metadata !5110, metadata !4071), !dbg !5104
	ret void, !dbg !5111
}
define linkonce_odr void @_ZNSt12_Destroy_auxILb1EE9__destroyIPSt5arrayIdLm3EEEEvT_S5_(%struct._ZSt5arrayIdLm3EE* %_T39440608_53105.arg, %struct._ZSt5arrayIdLm3EE* %_T39440904_53105.arg) #0 inlinehint !dbg !5115 {
L.entry:
	%_T39440608_53105.addr = alloca %struct._ZSt5arrayIdLm3EE*, align 8
	%_T39440904_53105.addr = alloca %struct._ZSt5arrayIdLm3EE*, align 8

	call void @llvm.dbg.declare (metadata %struct._ZSt5arrayIdLm3EE** %_T39440608_53105.addr, metadata !5119, metadata !4071), !dbg !5116
	store %struct._ZSt5arrayIdLm3EE* %_T39440608_53105.arg, %struct._ZSt5arrayIdLm3EE** %_T39440608_53105.addr, align 8, !tbaa !4079
	call void @llvm.dbg.declare (metadata %struct._ZSt5arrayIdLm3EE** %_T39440608_53105.addr, metadata !5120, metadata !4071), !dbg !5116
	call void @llvm.dbg.declare (metadata %struct._ZSt5arrayIdLm3EE** %_T39440904_53105.addr, metadata !5121, metadata !4071), !dbg !5116
	store %struct._ZSt5arrayIdLm3EE* %_T39440904_53105.arg, %struct._ZSt5arrayIdLm3EE** %_T39440904_53105.addr, align 8, !tbaa !4079
	call void @llvm.dbg.declare (metadata %struct._ZSt5arrayIdLm3EE** %_T39440904_53105.addr, metadata !5122, metadata !4071), !dbg !5116
	ret void, !dbg !5123
}

%struct._ZSt13move_iteratorIPSt5arrayIdLm3EEE = type <{ %struct._ZSt5arrayIdLm3EE*}> 

define linkonce_odr %struct._ZSt5arrayIdLm3EE* @_ZNSt20__uninitialized_copyILb1EE13__uninit_copyISt13move_iteratorIPSt5arrayIdLm3EEES5_EET0_T_S8_S7_(i64 %__first.coerce, i64 %__last.coerce, %struct._ZSt5arrayIdLm3EE* %__result.arg) #0 inlinehint !dbg !5129 {
L.entry:
	%__first.addr = alloca %struct._ZSt13move_iteratorIPSt5arrayIdLm3EEE, align 8
	%__last.addr = alloca %struct._ZSt13move_iteratorIPSt5arrayIdLm3EEE, align 8
	%__result.addr = alloca %struct._ZSt5arrayIdLm3EE*, align 8
	%..inline.addr = alloca %struct._ZSt5arrayIdLm3EE*, align 8
	%..inline.addr.1 = alloca %struct._ZSt5arrayIdLm3EE*, align 8
	%..inline.addr.2 = alloca i64, align 8

	call void @llvm.dbg.declare (metadata %struct._ZSt13move_iteratorIPSt5arrayIdLm3EEE* %__first.addr, metadata !5189, metadata !4071), !dbg !5130
	%0 = bitcast %struct._ZSt13move_iteratorIPSt5arrayIdLm3EEE* %__first.addr to i64*
	store i64 %__first.coerce, i64*  %0, align 8, !tbaa !4078
	call void @llvm.dbg.declare (metadata %struct._ZSt13move_iteratorIPSt5arrayIdLm3EEE* %__first.addr, metadata !5190, metadata !4071), !dbg !5130
	call void @llvm.dbg.declare (metadata %struct._ZSt13move_iteratorIPSt5arrayIdLm3EEE* %__last.addr, metadata !5191, metadata !4071), !dbg !5130
	%1 = bitcast %struct._ZSt13move_iteratorIPSt5arrayIdLm3EEE* %__last.addr to i64*
	store i64 %__last.coerce, i64*  %1, align 8, !tbaa !4078
	call void @llvm.dbg.declare (metadata %struct._ZSt13move_iteratorIPSt5arrayIdLm3EEE* %__last.addr, metadata !5192, metadata !4071), !dbg !5130
	call void @llvm.dbg.declare (metadata %struct._ZSt5arrayIdLm3EE** %__result.addr, metadata !5193, metadata !4071), !dbg !5130
	store %struct._ZSt5arrayIdLm3EE* %__result.arg, %struct._ZSt5arrayIdLm3EE** %__result.addr, align 8, !tbaa !4079
	call void @llvm.dbg.declare (metadata %struct._ZSt5arrayIdLm3EE** %__result.addr, metadata !5194, metadata !4071), !dbg !5130
	%2 = bitcast %struct._ZSt13move_iteratorIPSt5arrayIdLm3EEE* %__first.addr to i8**, !dbg !5195
	%3 = load i8*, i8**  %2, align 8, !tbaa !4079, !dbg !5195
	%4 = bitcast %struct._ZSt5arrayIdLm3EE** %..inline.addr to i8**, !dbg !5195
	store i8*  %3, i8**  %4, align 8, !tbaa !4079, !dbg !5195
	%5 = load %struct._ZSt5arrayIdLm3EE*, %struct._ZSt5arrayIdLm3EE** %__result.addr, align 8, !tbaa !4079, !dbg !5195
	%6 = bitcast %struct._ZSt5arrayIdLm3EE*  %5 to i8*, !dbg !5195
	%7 = bitcast %struct._ZSt5arrayIdLm3EE** %..inline.addr.1 to i8**, !dbg !5195
	store i8*  %6, i8**  %7, align 8, !tbaa !4079, !dbg !5195
	%8 = bitcast %struct._ZSt13move_iteratorIPSt5arrayIdLm3EEE* %__last.addr to i8**, !dbg !5195
	%9 = load i8*, i8**  %8, align 8, !tbaa !4079, !dbg !5195
	%10 = ptrtoint i8*  %3 to i64, !dbg !5195
	%11 = sub i64 0,  %10, !dbg !5195
	%12 = getelementptr i8, i8*  %9, i64  %11, !dbg !5195
	%13 = ptrtoint i8*  %12 to i64, !dbg !5195
	%14 = sext i64 3074457345618258603 to i128, !dbg !5195
	%15 = sext i64  %13 to i128, !dbg !5195
	%16 = mul i128  %14,  %15, !dbg !5195
	%17 = ashr i128  %16, 64, !dbg !5195
	%18 = trunc i128  %17 to i64, !dbg !5195
	%19 = sext i32 2 to i64, !dbg !5195
	%20 = ashr i64  %18,  %19, !dbg !5195
	%21 = sub i64 0,  %10, !dbg !5195
	%22 = getelementptr i8, i8*  %9, i64  %21, !dbg !5195
	%23 = ptrtoint i8*  %22 to i64, !dbg !5195
	%24 = sext i32 63 to i64, !dbg !5195
	%25 = ashr i64  %23,  %24, !dbg !5195
	%26 = sub i64  %20,  %25, !dbg !5195
	store i64  %26, i64* %..inline.addr.2, align 8, !tbaa !4610, !dbg !5195
	%27 = icmp eq i64  %26, 0, !dbg !5195
	br i1  %27, label %L..inline.73473, label %L.B1448, !dbg !5195
L.B1448:
	%28 = load %struct._ZSt5arrayIdLm3EE*, %struct._ZSt5arrayIdLm3EE** %..inline.addr.1, align 8, !tbaa !4079, !dbg !5195
	%29 = bitcast %struct._ZSt5arrayIdLm3EE*  %28 to i8*, !dbg !5195
	%30 = load %struct._ZSt5arrayIdLm3EE*, %struct._ZSt5arrayIdLm3EE** %..inline.addr, align 8, !tbaa !4079, !dbg !5195
	%31 = bitcast %struct._ZSt5arrayIdLm3EE*  %30 to i8*, !dbg !5195
	%32 = mul i64  %26, 24, !dbg !5195
	%33 = call i8*  @memmove (i8*  %29, i8*  %31, i64  %32) nounwind, !dbg !5195
	br label %L..inline.73473
L..inline.73473:
	%34 = load %struct._ZSt5arrayIdLm3EE*, %struct._ZSt5arrayIdLm3EE** %..inline.addr.1, align 8, !tbaa !4079, !dbg !5196
	%35 = bitcast %struct._ZSt5arrayIdLm3EE*  %34 to i8*, !dbg !5196
	%36 = load i64, i64* %..inline.addr.2, align 8, !tbaa !4610, !dbg !5196
	%37 = mul i64  %36, 24, !dbg !5196
	%38 = getelementptr i8, i8*  %35, i64  %37, !dbg !5196
	%39 = bitcast i8*  %38 to %struct._ZSt5arrayIdLm3EE*, !dbg !5196
	ret %struct._ZSt5arrayIdLm3EE*  %39, !dbg !5196
}
define linkonce_odr double* @_ZNSt14__array_traitsIdLm3EE6_S_refERA3_Kdm([3 x double]* %__t.arg, i64 %__n.arg) #0 inlinehint !dbg !5204 {
L.entry:
	%__t.addr = alloca [3 x double]*, align 8
	%__n.addr = alloca i64, align 8

	call void @llvm.dbg.declare (metadata [3 x double]** %__t.addr, metadata !5208, metadata !4071), !dbg !5205
	store [3 x double]* %__t.arg, [3 x double]** %__t.addr, align 8, !tbaa !4079
	call void @llvm.dbg.declare (metadata [3 x double]** %__t.addr, metadata !5209, metadata !4071), !dbg !5205
	call void @llvm.dbg.declare (metadata i64* %__n.addr, metadata !5210, metadata !4071), !dbg !5205
	store i64 %__n.arg, i64* %__n.addr, align 8, !tbaa !4078
	call void @llvm.dbg.declare (metadata i64* %__n.addr, metadata !5211, metadata !4071), !dbg !5205
	%0 = load [3 x double]*, [3 x double]** %__t.addr, align 8, !tbaa !4079, !dbg !5212
	%1 = bitcast [3 x double]*  %0 to i8*, !dbg !5212
	%2 = load i64, i64* %__n.addr, align 8, !tbaa !4610, !dbg !5212
	%3 = mul i64  %2, 8, !dbg !5212
	%4 = getelementptr i8, i8*  %1, i64  %3, !dbg !5212
	%5 = bitcast i8*  %4 to double*, !dbg !5212
	ret double*  %5, !dbg !5212
}
define linkonce_odr double* @_ZNSt5arrayIdLm3EEixEm(%struct._ZSt5arrayIdLm3EE* %_T39440608_53113.arg, i64 %__n.arg) #0 inlinehint !dbg !5216 {
L.entry:
	%_T39440608_53113.addr = alloca %struct._ZSt5arrayIdLm3EE*, align 8
	%__n.addr = alloca i64, align 8

	call void @llvm.dbg.declare (metadata %struct._ZSt5arrayIdLm3EE** %_T39440608_53113.addr, metadata !5224, metadata !4071), !dbg !5217
	store %struct._ZSt5arrayIdLm3EE* %_T39440608_53113.arg, %struct._ZSt5arrayIdLm3EE** %_T39440608_53113.addr, align 8, !tbaa !4079
	call void @llvm.dbg.declare (metadata %struct._ZSt5arrayIdLm3EE** %_T39440608_53113.addr, metadata !5225, metadata !4071), !dbg !5217
	call void @llvm.dbg.declare (metadata i64* %__n.addr, metadata !5226, metadata !4071), !dbg !5217
	store i64 %__n.arg, i64* %__n.addr, align 8, !tbaa !4078
	call void @llvm.dbg.declare (metadata i64* %__n.addr, metadata !5227, metadata !4071), !dbg !5217
	%0 = load %struct._ZSt5arrayIdLm3EE*, %struct._ZSt5arrayIdLm3EE** %_T39440608_53113.addr, align 8, !tbaa !4079, !dbg !5228
	%1 = bitcast %struct._ZSt5arrayIdLm3EE*  %0 to i8*, !dbg !5228
	%2 = load i64, i64* %__n.addr, align 8, !tbaa !4610, !dbg !5228
	%3 = mul i64  %2, 8, !dbg !5228
	%4 = getelementptr i8, i8*  %1, i64  %3, !dbg !5228
	%5 = bitcast i8*  %4 to double*, !dbg !5228
	ret double*  %5, !dbg !5228
}
define linkonce_odr double* @_ZNKSt5arrayIdLm3EEixEm(%struct._ZSt5arrayIdLm3EE* %_T39440608_53116.arg, i64 %__n.arg) #0 inlinehint !dbg !5230 {
L.entry:
	%_T39440608_53116.addr = alloca %struct._ZSt5arrayIdLm3EE*, align 8
	%__n.addr = alloca i64, align 8

	call void @llvm.dbg.declare (metadata %struct._ZSt5arrayIdLm3EE** %_T39440608_53116.addr, metadata !5238, metadata !4071), !dbg !5231
	store %struct._ZSt5arrayIdLm3EE* %_T39440608_53116.arg, %struct._ZSt5arrayIdLm3EE** %_T39440608_53116.addr, align 8, !tbaa !4079
	call void @llvm.dbg.declare (metadata %struct._ZSt5arrayIdLm3EE** %_T39440608_53116.addr, metadata !5239, metadata !4071), !dbg !5231
	call void @llvm.dbg.declare (metadata i64* %__n.addr, metadata !5240, metadata !4071), !dbg !5231
	store i64 %__n.arg, i64* %__n.addr, align 8, !tbaa !4078
	call void @llvm.dbg.declare (metadata i64* %__n.addr, metadata !5241, metadata !4071), !dbg !5231
	%0 = load %struct._ZSt5arrayIdLm3EE*, %struct._ZSt5arrayIdLm3EE** %_T39440608_53116.addr, align 8, !tbaa !4079, !dbg !5242
	%1 = bitcast %struct._ZSt5arrayIdLm3EE*  %0 to i8*, !dbg !5242
	%2 = load i64, i64* %__n.addr, align 8, !tbaa !4610, !dbg !5242
	%3 = mul i64  %2, 8, !dbg !5242
	%4 = getelementptr i8, i8*  %1, i64  %3, !dbg !5242
	%5 = bitcast i8*  %4 to double*, !dbg !5242
	ret double*  %5, !dbg !5242
}
define linkonce_odr double* @_ZNSt5arrayIdLm3EE2atEm(%struct._ZSt5arrayIdLm3EE* %_T39440608_53119.arg, i64 %__n.arg) #0 inlinehint !dbg !5244 {
L.entry:
	%_T39440608_53119.addr = alloca %struct._ZSt5arrayIdLm3EE*, align 8
	%__n.addr = alloca i64, align 8

	call void @llvm.dbg.declare (metadata %struct._ZSt5arrayIdLm3EE** %_T39440608_53119.addr, metadata !5252, metadata !4071), !dbg !5245
	store %struct._ZSt5arrayIdLm3EE* %_T39440608_53119.arg, %struct._ZSt5arrayIdLm3EE** %_T39440608_53119.addr, align 8, !tbaa !4079
	call void @llvm.dbg.declare (metadata %struct._ZSt5arrayIdLm3EE** %_T39440608_53119.addr, metadata !5253, metadata !4071), !dbg !5245
	call void @llvm.dbg.declare (metadata i64* %__n.addr, metadata !5254, metadata !4071), !dbg !5245
	store i64 %__n.arg, i64* %__n.addr, align 8, !tbaa !4078
	call void @llvm.dbg.declare (metadata i64* %__n.addr, metadata !5255, metadata !4071), !dbg !5245
	%0 = load i64, i64* %__n.addr, align 8, !tbaa !4610, !dbg !5256
	%1 = icmp ult i64  %0, 3, !dbg !5256
	br i1  %1, label %L.B0019, label %L.B1455, !dbg !5256
L.B1455:
	%2 = bitcast [52 x i8]* @.S54892 to i8*, !dbg !5257
	call void (i8*, ...)  @_ZSt24__throw_out_of_range_fmtPKcz (i8*  %2, i64  %0, i64 3) noreturn, !dbg !5257
	br label %L.B0019
L.B0019:
	%3 = load %struct._ZSt5arrayIdLm3EE*, %struct._ZSt5arrayIdLm3EE** %_T39440608_53119.addr, align 8, !tbaa !4079, !dbg !5258
	%4 = bitcast %struct._ZSt5arrayIdLm3EE*  %3 to i8*, !dbg !5258
	%5 = load i64, i64* %__n.addr, align 8, !tbaa !4610, !dbg !5258
	%6 = mul i64  %5, 8, !dbg !5258
	%7 = getelementptr i8, i8*  %4, i64  %6, !dbg !5258
	%8 = bitcast i8*  %7 to double*, !dbg !5258
	ret double*  %8, !dbg !5258
}
define linkonce_odr i32* @_ZNSt14__array_traitsIiLm27EE6_S_refERA27_Kim([27 x i32]* %__t.arg, i64 %__n.arg) #0 inlinehint !dbg !5264 {
L.entry:
	%__t.addr = alloca [27 x i32]*, align 8
	%__n.addr = alloca i64, align 8

	call void @llvm.dbg.declare (metadata [27 x i32]** %__t.addr, metadata !5268, metadata !4071), !dbg !5265
	store [27 x i32]* %__t.arg, [27 x i32]** %__t.addr, align 8, !tbaa !4079
	call void @llvm.dbg.declare (metadata [27 x i32]** %__t.addr, metadata !5269, metadata !4071), !dbg !5265
	call void @llvm.dbg.declare (metadata i64* %__n.addr, metadata !5270, metadata !4071), !dbg !5265
	store i64 %__n.arg, i64* %__n.addr, align 8, !tbaa !4078
	call void @llvm.dbg.declare (metadata i64* %__n.addr, metadata !5271, metadata !4071), !dbg !5265
	%0 = load [27 x i32]*, [27 x i32]** %__t.addr, align 8, !tbaa !4079, !dbg !5272
	%1 = bitcast [27 x i32]*  %0 to i8*, !dbg !5272
	%2 = load i64, i64* %__n.addr, align 8, !tbaa !4610, !dbg !5272
	%3 = mul i64  %2, 4, !dbg !5272
	%4 = getelementptr i8, i8*  %1, i64  %3, !dbg !5272
	%5 = bitcast i8*  %4 to i32*, !dbg !5272
	ret i32*  %5, !dbg !5272
}
define linkonce_odr i32* @_ZNSt5arrayIiLm27EEixEm(%struct._ZSt5arrayIiLm27EE* %_T39440608_53124.arg, i64 %__n.arg) #0 inlinehint !dbg !5277 {
L.entry:
	%_T39440608_53124.addr = alloca %struct._ZSt5arrayIiLm27EE*, align 8
	%__n.addr = alloca i64, align 8

	call void @llvm.dbg.declare (metadata %struct._ZSt5arrayIiLm27EE** %_T39440608_53124.addr, metadata !5285, metadata !4071), !dbg !5278
	store %struct._ZSt5arrayIiLm27EE* %_T39440608_53124.arg, %struct._ZSt5arrayIiLm27EE** %_T39440608_53124.addr, align 8, !tbaa !4079
	call void @llvm.dbg.declare (metadata %struct._ZSt5arrayIiLm27EE** %_T39440608_53124.addr, metadata !5286, metadata !4071), !dbg !5278
	call void @llvm.dbg.declare (metadata i64* %__n.addr, metadata !5287, metadata !4071), !dbg !5278
	store i64 %__n.arg, i64* %__n.addr, align 8, !tbaa !4078
	call void @llvm.dbg.declare (metadata i64* %__n.addr, metadata !5288, metadata !4071), !dbg !5278
	%0 = load %struct._ZSt5arrayIiLm27EE*, %struct._ZSt5arrayIiLm27EE** %_T39440608_53124.addr, align 8, !tbaa !4079, !dbg !5289
	%1 = bitcast %struct._ZSt5arrayIiLm27EE*  %0 to i8*, !dbg !5289
	%2 = load i64, i64* %__n.addr, align 8, !tbaa !4610, !dbg !5289
	%3 = mul i64  %2, 4, !dbg !5289
	%4 = getelementptr i8, i8*  %1, i64  %3, !dbg !5289
	%5 = bitcast i8*  %4 to i32*, !dbg !5289
	ret i32*  %5, !dbg !5289
}
define linkonce_odr i32* @_ZNSt14__array_traitsIiLm3EE6_S_refERA3_Kim([3 x i32]* %__t.arg, i64 %__n.arg) #0 inlinehint !dbg !5294 {
L.entry:
	%__t.addr = alloca [3 x i32]*, align 8
	%__n.addr = alloca i64, align 8

	call void @llvm.dbg.declare (metadata [3 x i32]** %__t.addr, metadata !5298, metadata !4071), !dbg !5295
	store [3 x i32]* %__t.arg, [3 x i32]** %__t.addr, align 8, !tbaa !4079
	call void @llvm.dbg.declare (metadata [3 x i32]** %__t.addr, metadata !5299, metadata !4071), !dbg !5295
	call void @llvm.dbg.declare (metadata i64* %__n.addr, metadata !5300, metadata !4071), !dbg !5295
	store i64 %__n.arg, i64* %__n.addr, align 8, !tbaa !4078
	call void @llvm.dbg.declare (metadata i64* %__n.addr, metadata !5301, metadata !4071), !dbg !5295
	%0 = load [3 x i32]*, [3 x i32]** %__t.addr, align 8, !tbaa !4079, !dbg !5302
	%1 = bitcast [3 x i32]*  %0 to i8*, !dbg !5302
	%2 = load i64, i64* %__n.addr, align 8, !tbaa !4610, !dbg !5302
	%3 = mul i64  %2, 4, !dbg !5302
	%4 = getelementptr i8, i8*  %1, i64  %3, !dbg !5302
	%5 = bitcast i8*  %4 to i32*, !dbg !5302
	ret i32*  %5, !dbg !5302
}
define linkonce_odr i32* @_ZNSt14__array_traitsIiLm3EE6_S_ptrERA3_Ki([3 x i32]* %__t.arg) #0 inlinehint !dbg !5306 {
L.entry:
	%__t.addr = alloca [3 x i32]*, align 8

	call void @llvm.dbg.declare (metadata [3 x i32]** %__t.addr, metadata !5310, metadata !4071), !dbg !5307
	store [3 x i32]* %__t.arg, [3 x i32]** %__t.addr, align 8, !tbaa !4079
	call void @llvm.dbg.declare (metadata [3 x i32]** %__t.addr, metadata !5311, metadata !4071), !dbg !5307
	%0 = load [3 x i32]*, [3 x i32]** %__t.addr, align 8, !tbaa !4079, !dbg !5312
	%1 = bitcast [3 x i32]*  %0 to i32*, !dbg !5312
	ret i32*  %1, !dbg !5312
}
define linkonce_odr i32* @_ZNSt5arrayIiLm3EEixEm(%struct._ZSt5arrayIiLm3EE* %_T39440608_53131.arg, i64 %__n.arg) #0 inlinehint !dbg !5316 {
L.entry:
	%_T39440608_53131.addr = alloca %struct._ZSt5arrayIiLm3EE*, align 8
	%__n.addr = alloca i64, align 8

	call void @llvm.dbg.declare (metadata %struct._ZSt5arrayIiLm3EE** %_T39440608_53131.addr, metadata !5324, metadata !4071), !dbg !5317
	store %struct._ZSt5arrayIiLm3EE* %_T39440608_53131.arg, %struct._ZSt5arrayIiLm3EE** %_T39440608_53131.addr, align 8, !tbaa !4079
	call void @llvm.dbg.declare (metadata %struct._ZSt5arrayIiLm3EE** %_T39440608_53131.addr, metadata !5325, metadata !4071), !dbg !5317
	call void @llvm.dbg.declare (metadata i64* %__n.addr, metadata !5326, metadata !4071), !dbg !5317
	store i64 %__n.arg, i64* %__n.addr, align 8, !tbaa !4078
	call void @llvm.dbg.declare (metadata i64* %__n.addr, metadata !5327, metadata !4071), !dbg !5317
	%0 = load %struct._ZSt5arrayIiLm3EE*, %struct._ZSt5arrayIiLm3EE** %_T39440608_53131.addr, align 8, !tbaa !4079, !dbg !5328
	%1 = bitcast %struct._ZSt5arrayIiLm3EE*  %0 to i8*, !dbg !5328
	%2 = load i64, i64* %__n.addr, align 8, !tbaa !4610, !dbg !5328
	%3 = mul i64  %2, 4, !dbg !5328
	%4 = getelementptr i8, i8*  %1, i64  %3, !dbg !5328
	%5 = bitcast i8*  %4 to i32*, !dbg !5328
	ret i32*  %5, !dbg !5328
}
define linkonce_odr i32* @_ZNSt5arrayIiLm3EE4dataEv(%struct._ZSt5arrayIiLm3EE* %_T39440608_53133.arg) #0 inlinehint !dbg !5332 {
L.entry:
	%_T39440608_53133.addr = alloca %struct._ZSt5arrayIiLm3EE*, align 8

	call void @llvm.dbg.declare (metadata %struct._ZSt5arrayIiLm3EE** %_T39440608_53133.addr, metadata !5340, metadata !4071), !dbg !5333
	store %struct._ZSt5arrayIiLm3EE* %_T39440608_53133.arg, %struct._ZSt5arrayIiLm3EE** %_T39440608_53133.addr, align 8, !tbaa !4079
	call void @llvm.dbg.declare (metadata %struct._ZSt5arrayIiLm3EE** %_T39440608_53133.addr, metadata !5341, metadata !4071), !dbg !5333
	%0 = load %struct._ZSt5arrayIiLm3EE*, %struct._ZSt5arrayIiLm3EE** %_T39440608_53133.addr, align 8, !tbaa !4079, !dbg !5342
	%1 = bitcast %struct._ZSt5arrayIiLm3EE*  %0 to i32*, !dbg !5342
	ret i32*  %1, !dbg !5342
}

%struct._ZSaIjE = type <{ [1 x i8]}> 

define linkonce_odr void @_ZNSaIjED1Ev(%struct._ZSaIjE* %_T39440608_53134.arg) #0 inlinehint !dbg !5350 {
L.entry:
	%_T39440608_53134.addr = alloca %struct._ZSaIjE*, align 8

	call void @llvm.dbg.declare (metadata %struct._ZSaIjE** %_T39440608_53134.addr, metadata !5354, metadata !4071), !dbg !5351
	store %struct._ZSaIjE* %_T39440608_53134.arg, %struct._ZSaIjE** %_T39440608_53134.addr, align 8, !tbaa !4079
	call void @llvm.dbg.declare (metadata %struct._ZSaIjE** %_T39440608_53134.addr, metadata !5355, metadata !4071), !dbg !5351
	ret void, !dbg !5356
}
define linkonce_odr void @_ZNSaIjED2Ev(%struct._ZSaIjE* %_T39440608_53135.arg) #0 inlinehint !dbg !5358 {
L.entry:
	%_T39440608_53135.addr = alloca %struct._ZSaIjE*, align 8

	store %struct._ZSaIjE* %_T39440608_53135.arg, %struct._ZSaIjE** %_T39440608_53135.addr, align 8, !tbaa !4079
	ret void, !dbg !5366
}
define linkonce_odr void @_ZNSt16allocator_traitsISaIjEE10deallocateERS0_Pjm(%struct._ZSaIjE* %__a.arg, i32* %__p.arg, i64 %__n.arg) #0 inlinehint !dbg !5374 {
L.entry:
	%__a.addr = alloca %struct._ZSaIjE*, align 8
	%__p.addr = alloca i32*, align 8
	%__n.addr = alloca i64, align 8
	%..inline.addr = alloca i32*, align 8

	call void @llvm.dbg.declare (metadata %struct._ZSaIjE** %__a.addr, metadata !5382, metadata !4071), !dbg !5375
	store %struct._ZSaIjE* %__a.arg, %struct._ZSaIjE** %__a.addr, align 8, !tbaa !4079
	call void @llvm.dbg.declare (metadata %struct._ZSaIjE** %__a.addr, metadata !5383, metadata !4071), !dbg !5375
	call void @llvm.dbg.declare (metadata i32** %__p.addr, metadata !5384, metadata !4071), !dbg !5375
	store i32* %__p.arg, i32** %__p.addr, align 8, !tbaa !4079
	call void @llvm.dbg.declare (metadata i32** %__p.addr, metadata !5385, metadata !4071), !dbg !5375
	call void @llvm.dbg.declare (metadata i64* %__n.addr, metadata !5386, metadata !4071), !dbg !5375
	store i64 %__n.arg, i64* %__n.addr, align 8, !tbaa !4078
	call void @llvm.dbg.declare (metadata i64* %__n.addr, metadata !5387, metadata !4071), !dbg !5375
	%0 = load i32*, i32** %__p.addr, align 8, !tbaa !4079, !dbg !5388
	%1 = bitcast i32*  %0 to i8*, !dbg !5388
	%2 = bitcast i32** %..inline.addr to i8**, !dbg !5388
	store i8*  %1, i8**  %2, align 8, !tbaa !4079, !dbg !5388
	%3 = load i32*, i32** %..inline.addr, align 8, !tbaa !4079, !dbg !5389
	%4 = bitcast i32*  %3 to i8*, !dbg !5389
	call void  @_ZdlPv (i8*  %4) nounwind, !dbg !5389
	ret void, !dbg !5388
}

%struct._ZNSt12_Vector_baseIjSaIjEE12_Vector_implE = type <{ %struct._ZNSt12_Vector_baseIjSaIjEE17_Vector_impl_dataE}> 
%struct._ZSt12_Vector_baseIjSaIjEE = type <{ %struct._ZNSt12_Vector_baseIjSaIjEE12_Vector_implE}> 
%struct._ZNSt12_Vector_baseIjSaIjEE17_Vector_impl_dataE = type <{ i32*, i32*, i32*}> 

define linkonce_odr %struct._ZSaIjE* @_ZNSt12_Vector_baseIjSaIjEE19_M_get_Tp_allocatorEv(%struct._ZSt12_Vector_baseIjSaIjEE* %_T39440608_53141.arg) #0 inlinehint !dbg !5397 {
L.entry:
	%_T39440608_53141.addr = alloca %struct._ZSt12_Vector_baseIjSaIjEE*, align 8

	call void @llvm.dbg.declare (metadata %struct._ZSt12_Vector_baseIjSaIjEE** %_T39440608_53141.addr, metadata !5401, metadata !4071), !dbg !5398
	store %struct._ZSt12_Vector_baseIjSaIjEE* %_T39440608_53141.arg, %struct._ZSt12_Vector_baseIjSaIjEE** %_T39440608_53141.addr, align 8, !tbaa !4079
	call void @llvm.dbg.declare (metadata %struct._ZSt12_Vector_baseIjSaIjEE** %_T39440608_53141.addr, metadata !5402, metadata !4071), !dbg !5398
	%0 = load %struct._ZSt12_Vector_baseIjSaIjEE*, %struct._ZSt12_Vector_baseIjSaIjEE** %_T39440608_53141.addr, align 8, !tbaa !4079, !dbg !5403
	%1 = bitcast %struct._ZSt12_Vector_baseIjSaIjEE*  %0 to %struct._ZSaIjE*, !dbg !5403
	ret %struct._ZSaIjE*  %1, !dbg !5403
}
define linkonce_odr void @_ZNSt12_Vector_baseIjSaIjEED1Ev(%struct._ZSt12_Vector_baseIjSaIjEE* %_T39440608_53142.arg) #0 inlinehint !dbg !5407 {
L.entry:
	%_T39440608_53142.addr = alloca %struct._ZSt12_Vector_baseIjSaIjEE*, align 8
	%..inline.addr = alloca i32*, align 8

	call void @llvm.dbg.declare (metadata %struct._ZSt12_Vector_baseIjSaIjEE** %_T39440608_53142.addr, metadata !5435, metadata !4071), !dbg !5408
	store %struct._ZSt12_Vector_baseIjSaIjEE* %_T39440608_53142.arg, %struct._ZSt12_Vector_baseIjSaIjEE** %_T39440608_53142.addr, align 8, !tbaa !4079
	call void @llvm.dbg.declare (metadata %struct._ZSt12_Vector_baseIjSaIjEE** %_T39440608_53142.addr, metadata !5436, metadata !4071), !dbg !5408
	%0 = load %struct._ZSt12_Vector_baseIjSaIjEE*, %struct._ZSt12_Vector_baseIjSaIjEE** %_T39440608_53142.addr, align 8, !tbaa !4079, !dbg !5437
	%1 = bitcast %struct._ZSt12_Vector_baseIjSaIjEE*  %0 to i8**, !dbg !5437
	%2 = load i8*, i8**  %1, align 8, !tbaa !4079, !dbg !5437
	%3 = icmp eq i8*  %2,  null, !dbg !5437
	br i1  %3, label %L..inline.73673, label %L.B1470, !dbg !5437
L.B1470:
	%4 = bitcast %struct._ZSt12_Vector_baseIjSaIjEE*  %0 to i8**, !dbg !5438
	%5 = load i8*, i8**  %4, align 8, !tbaa !4079, !dbg !5438
	%6 = bitcast i32** %..inline.addr to i8**, !dbg !5438
	store i8*  %5, i8**  %6, align 8, !tbaa !4079, !dbg !5438
	%7 = load i32*, i32** %..inline.addr, align 8, !tbaa !4079, !dbg !5438
	%8 = bitcast i32*  %7 to i8*, !dbg !5438
	call void  @_ZdlPv (i8*  %8) nounwind, !dbg !5438
	br label %L..inline.73673
L..inline.73673:
	ret void, !dbg !5439
}
define linkonce_odr void @_ZNSt12_Vector_baseIjSaIjEED2Ev(%struct._ZSt12_Vector_baseIjSaIjEE* %_T39440608_53143.arg) #0 inlinehint !dbg !5441 {
L.entry:
	%_T39440608_53143.addr = alloca %struct._ZSt12_Vector_baseIjSaIjEE*, align 8
	%..inline.addr = alloca %struct._ZSt12_Vector_baseIjSaIjEE*, align 8
	%..inline.addr.1 = alloca i32*, align 8

	store %struct._ZSt12_Vector_baseIjSaIjEE* %_T39440608_53143.arg, %struct._ZSt12_Vector_baseIjSaIjEE** %_T39440608_53143.addr, align 8, !tbaa !4079
	%0 = load %struct._ZSt12_Vector_baseIjSaIjEE*, %struct._ZSt12_Vector_baseIjSaIjEE** %_T39440608_53143.addr, align 8, !tbaa !4079, !dbg !5473
	%1 = bitcast %struct._ZSt12_Vector_baseIjSaIjEE*  %0 to i8*, !dbg !5473
	%2 = bitcast %struct._ZSt12_Vector_baseIjSaIjEE** %..inline.addr to i8**, !dbg !5473
	store i8*  %1, i8**  %2, align 8, !tbaa !4079, !dbg !5473
	%3 = load %struct._ZSt12_Vector_baseIjSaIjEE*, %struct._ZSt12_Vector_baseIjSaIjEE** %..inline.addr, align 8, !tbaa !4079, !dbg !5473
	%4 = bitcast %struct._ZSt12_Vector_baseIjSaIjEE*  %3 to i8**, !dbg !5473
	%5 = load i8*, i8**  %4, align 8, !tbaa !4079, !dbg !5473
	%6 = icmp eq i8*  %5,  null, !dbg !5473
	br i1  %6, label %L..inline.73732, label %L.B1473, !dbg !5473
L.B1473:
	%7 = bitcast %struct._ZSt12_Vector_baseIjSaIjEE*  %3 to i8**, !dbg !5473
	%8 = load i8*, i8**  %7, align 8, !tbaa !4079, !dbg !5473
	%9 = bitcast i32** %..inline.addr.1 to i8**, !dbg !5473
	store i8*  %8, i8**  %9, align 8, !tbaa !4079, !dbg !5473
	%10 = load i32*, i32** %..inline.addr.1, align 8, !tbaa !4079, !dbg !5473
	%11 = bitcast i32*  %10 to i8*, !dbg !5473
	call void  @_ZdlPv (i8*  %11) nounwind, !dbg !5473
	br label %L..inline.73732
L..inline.73732:
	ret void, !dbg !5474
}
define linkonce_odr void @_ZNSt12_Vector_baseIjSaIjEE13_M_deallocateEPjm(%struct._ZSt12_Vector_baseIjSaIjEE* %_T39440608_53146.arg, i32* %__p.arg, i64 %__n.arg) #0 inlinehint !dbg !5478 {
L.entry:
	%_T39440608_53146.addr = alloca %struct._ZSt12_Vector_baseIjSaIjEE*, align 8
	%__p.addr = alloca i32*, align 8
	%__n.addr = alloca i64, align 8
	%..inline.addr = alloca i32*, align 8

	call void @llvm.dbg.declare (metadata %struct._ZSt12_Vector_baseIjSaIjEE** %_T39440608_53146.addr, metadata !5490, metadata !4071), !dbg !5479
	store %struct._ZSt12_Vector_baseIjSaIjEE* %_T39440608_53146.arg, %struct._ZSt12_Vector_baseIjSaIjEE** %_T39440608_53146.addr, align 8, !tbaa !4079
	call void @llvm.dbg.declare (metadata %struct._ZSt12_Vector_baseIjSaIjEE** %_T39440608_53146.addr, metadata !5491, metadata !4071), !dbg !5479
	call void @llvm.dbg.declare (metadata i32** %__p.addr, metadata !5492, metadata !4071), !dbg !5479
	store i32* %__p.arg, i32** %__p.addr, align 8, !tbaa !4079
	call void @llvm.dbg.declare (metadata i32** %__p.addr, metadata !5493, metadata !4071), !dbg !5479
	call void @llvm.dbg.declare (metadata i64* %__n.addr, metadata !5494, metadata !4071), !dbg !5479
	store i64 %__n.arg, i64* %__n.addr, align 8, !tbaa !4078
	call void @llvm.dbg.declare (metadata i64* %__n.addr, metadata !5495, metadata !4071), !dbg !5479
	%0 = load i32*, i32** %__p.addr, align 8, !tbaa !4079, !dbg !5496
	%1 = bitcast i32*  %0 to i8*, !dbg !5496
	%2 = icmp eq i8*  %1,  null, !dbg !5496
	br i1  %2, label %L.B0020, label %L.B1476, !dbg !5496
L.B1476:
	%3 = bitcast i32*  %0 to i8*, !dbg !5497
	%4 = bitcast i32** %..inline.addr to i8**, !dbg !5497
	store i8*  %3, i8**  %4, align 8, !tbaa !4079, !dbg !5497
	%5 = load i32*, i32** %..inline.addr, align 8, !tbaa !4079, !dbg !5497
	%6 = bitcast i32*  %5 to i8*, !dbg !5497
	call void  @_ZdlPv (i8*  %6) nounwind, !dbg !5497
	br label %L.B0020
L.B0020:
	ret void, !dbg !5498
}
define linkonce_odr void @_ZNSt12_Vector_baseIjSaIjEE12_Vector_implD1Ev(%struct._ZNSt12_Vector_baseIjSaIjEE12_Vector_implE* %_T39440608_53147.arg) #0 inlinehint !dbg !5503 {
L.entry:
	%_T39440608_53147.addr = alloca %struct._ZNSt12_Vector_baseIjSaIjEE12_Vector_implE*, align 8

	call void @llvm.dbg.declare (metadata %struct._ZNSt12_Vector_baseIjSaIjEE12_Vector_implE** %_T39440608_53147.addr, metadata !5515, metadata !4071), !dbg !5504
	store %struct._ZNSt12_Vector_baseIjSaIjEE12_Vector_implE* %_T39440608_53147.arg, %struct._ZNSt12_Vector_baseIjSaIjEE12_Vector_implE** %_T39440608_53147.addr, align 8, !tbaa !4079
	call void @llvm.dbg.declare (metadata %struct._ZNSt12_Vector_baseIjSaIjEE12_Vector_implE** %_T39440608_53147.addr, metadata !5516, metadata !4071), !dbg !5504
	ret void, !dbg !5517
}
define linkonce_odr void @_ZNSt12_Vector_baseIjSaIjEE12_Vector_implD2Ev(%struct._ZNSt12_Vector_baseIjSaIjEE12_Vector_implE* %_T39440608_53148.arg) #0 inlinehint !dbg !5519 {
L.entry:
	%_T39440608_53148.addr = alloca %struct._ZNSt12_Vector_baseIjSaIjEE12_Vector_implE*, align 8

	store %struct._ZNSt12_Vector_baseIjSaIjEE12_Vector_implE* %_T39440608_53148.arg, %struct._ZNSt12_Vector_baseIjSaIjEE12_Vector_implE** %_T39440608_53148.addr, align 8, !tbaa !4079
	ret void, !dbg !5535
}

%struct._ZSt6vectorIjSaIjEE = type <{ %struct._ZSt12_Vector_baseIjSaIjEE}> 

define linkonce_odr void @_ZNSt6vectorIjSaIjEED1Ev(%struct._ZSt6vectorIjSaIjEE* %_T39440608_53149.arg) #0 inlinehint !dbg !5539 {
L.entry:
	%_T39440608_53149.addr = alloca %struct._ZSt6vectorIjSaIjEE*, align 8
	%..inline.addr = alloca %struct._ZSt12_Vector_baseIjSaIjEE*, align 8
	%..inline.addr.1 = alloca i32*, align 8

	call void @llvm.dbg.declare (metadata %struct._ZSt6vectorIjSaIjEE** %_T39440608_53149.addr, metadata !5591, metadata !4071), !dbg !5540
	store %struct._ZSt6vectorIjSaIjEE* %_T39440608_53149.arg, %struct._ZSt6vectorIjSaIjEE** %_T39440608_53149.addr, align 8, !tbaa !4079
	call void @llvm.dbg.declare (metadata %struct._ZSt6vectorIjSaIjEE** %_T39440608_53149.addr, metadata !5592, metadata !4071), !dbg !5540
	%0 = load %struct._ZSt6vectorIjSaIjEE*, %struct._ZSt6vectorIjSaIjEE** %_T39440608_53149.addr, align 8, !tbaa !4079, !dbg !5593
	%1 = bitcast %struct._ZSt6vectorIjSaIjEE*  %0 to i8*, !dbg !5593
	%2 = bitcast %struct._ZSt12_Vector_baseIjSaIjEE** %..inline.addr to i8**, !dbg !5593
	store i8*  %1, i8**  %2, align 8, !tbaa !4079, !dbg !5593
	%3 = load %struct._ZSt12_Vector_baseIjSaIjEE*, %struct._ZSt12_Vector_baseIjSaIjEE** %..inline.addr, align 8, !tbaa !4079, !dbg !5594
	%4 = bitcast %struct._ZSt12_Vector_baseIjSaIjEE*  %3 to i8**, !dbg !5594
	%5 = load i8*, i8**  %4, align 8, !tbaa !4079, !dbg !5594
	%6 = icmp eq i8*  %5,  null, !dbg !5594
	br i1  %6, label %L..inline.73883, label %L.B1487, !dbg !5594
L.B1487:
	%7 = bitcast %struct._ZSt12_Vector_baseIjSaIjEE*  %3 to i8**, !dbg !5594
	%8 = load i8*, i8**  %7, align 8, !tbaa !4079, !dbg !5594
	%9 = bitcast i32** %..inline.addr.1 to i8**, !dbg !5594
	store i8*  %8, i8**  %9, align 8, !tbaa !4079, !dbg !5594
	%10 = load i32*, i32** %..inline.addr.1, align 8, !tbaa !4079, !dbg !5594
	%11 = bitcast i32*  %10 to i8*, !dbg !5594
	call void  @_ZdlPv (i8*  %11) nounwind, !dbg !5594
	br label %L..inline.73883
L..inline.73883:
	ret void, !dbg !5593
}
define linkonce_odr void @_ZNSt6vectorIjSaIjEED2Ev(%struct._ZSt6vectorIjSaIjEE* %_T39440608_53150.arg) #0 inlinehint !dbg !5596 {
L.entry:
	%_T39440608_53150.addr = alloca %struct._ZSt6vectorIjSaIjEE*, align 8
	%..inline.addr = alloca %struct._ZSt12_Vector_baseIjSaIjEE*, align 8
	%..inline.addr.1 = alloca i32*, align 8

	store %struct._ZSt6vectorIjSaIjEE* %_T39440608_53150.arg, %struct._ZSt6vectorIjSaIjEE** %_T39440608_53150.addr, align 8, !tbaa !4079
	%0 = load %struct._ZSt6vectorIjSaIjEE*, %struct._ZSt6vectorIjSaIjEE** %_T39440608_53150.addr, align 8, !tbaa !4079, !dbg !5652
	%1 = bitcast %struct._ZSt6vectorIjSaIjEE*  %0 to i8*, !dbg !5652
	%2 = bitcast %struct._ZSt12_Vector_baseIjSaIjEE** %..inline.addr to i8**, !dbg !5652
	store i8*  %1, i8**  %2, align 8, !tbaa !4079, !dbg !5652
	%3 = load %struct._ZSt12_Vector_baseIjSaIjEE*, %struct._ZSt12_Vector_baseIjSaIjEE** %..inline.addr, align 8, !tbaa !4079, !dbg !5652
	%4 = bitcast %struct._ZSt12_Vector_baseIjSaIjEE*  %3 to i8**, !dbg !5652
	%5 = load i8*, i8**  %4, align 8, !tbaa !4079, !dbg !5652
	%6 = icmp eq i8*  %5,  null, !dbg !5652
	br i1  %6, label %L..inline.73987, label %L.B1490, !dbg !5652
L.B1490:
	%7 = bitcast %struct._ZSt12_Vector_baseIjSaIjEE*  %3 to i8**, !dbg !5652
	%8 = load i8*, i8**  %7, align 8, !tbaa !4079, !dbg !5652
	%9 = bitcast i32** %..inline.addr.1 to i8**, !dbg !5652
	store i8*  %8, i8**  %9, align 8, !tbaa !4079, !dbg !5652
	%10 = load i32*, i32** %..inline.addr.1, align 8, !tbaa !4079, !dbg !5652
	%11 = bitcast i32*  %10 to i8*, !dbg !5652
	call void  @_ZdlPv (i8*  %11) nounwind, !dbg !5652
	br label %L..inline.73987
L..inline.73987:
	ret void, !dbg !5652
}

%struct._ZSaIdE = type <{ [1 x i8]}> 

define linkonce_odr void @_ZNSaIdED1Ev(%struct._ZSaIdE* %_T39440608_53151.arg) #0 inlinehint !dbg !5660 {
L.entry:
	%_T39440608_53151.addr = alloca %struct._ZSaIdE*, align 8

	call void @llvm.dbg.declare (metadata %struct._ZSaIdE** %_T39440608_53151.addr, metadata !5664, metadata !4071), !dbg !5661
	store %struct._ZSaIdE* %_T39440608_53151.arg, %struct._ZSaIdE** %_T39440608_53151.addr, align 8, !tbaa !4079
	call void @llvm.dbg.declare (metadata %struct._ZSaIdE** %_T39440608_53151.addr, metadata !5665, metadata !4071), !dbg !5661
	ret void, !dbg !5666
}
define linkonce_odr void @_ZNSaIdED2Ev(%struct._ZSaIdE* %_T39440608_53152.arg) #0 inlinehint !dbg !5668 {
L.entry:
	%_T39440608_53152.addr = alloca %struct._ZSaIdE*, align 8

	store %struct._ZSaIdE* %_T39440608_53152.arg, %struct._ZSaIdE** %_T39440608_53152.addr, align 8, !tbaa !4079
	ret void, !dbg !5676
}
define linkonce_odr void @_ZNSt16allocator_traitsISaIdEE10deallocateERS0_Pdm(%struct._ZSaIdE* %__a.arg, double* %__p.arg, i64 %__n.arg) #0 inlinehint !dbg !5684 {
L.entry:
	%__a.addr = alloca %struct._ZSaIdE*, align 8
	%__p.addr = alloca double*, align 8
	%__n.addr = alloca i64, align 8
	%..inline.addr = alloca double*, align 8

	call void @llvm.dbg.declare (metadata %struct._ZSaIdE** %__a.addr, metadata !5692, metadata !4071), !dbg !5685
	store %struct._ZSaIdE* %__a.arg, %struct._ZSaIdE** %__a.addr, align 8, !tbaa !4079
	call void @llvm.dbg.declare (metadata %struct._ZSaIdE** %__a.addr, metadata !5693, metadata !4071), !dbg !5685
	call void @llvm.dbg.declare (metadata double** %__p.addr, metadata !5694, metadata !4071), !dbg !5685
	store double* %__p.arg, double** %__p.addr, align 8, !tbaa !4079
	call void @llvm.dbg.declare (metadata double** %__p.addr, metadata !5695, metadata !4071), !dbg !5685
	call void @llvm.dbg.declare (metadata i64* %__n.addr, metadata !5696, metadata !4071), !dbg !5685
	store i64 %__n.arg, i64* %__n.addr, align 8, !tbaa !4078
	call void @llvm.dbg.declare (metadata i64* %__n.addr, metadata !5697, metadata !4071), !dbg !5685
	%0 = load double*, double** %__p.addr, align 8, !tbaa !4079, !dbg !5698
	%1 = bitcast double*  %0 to i8*, !dbg !5698
	%2 = bitcast double** %..inline.addr to i8**, !dbg !5698
	store i8*  %1, i8**  %2, align 8, !tbaa !4079, !dbg !5698
	%3 = load double*, double** %..inline.addr, align 8, !tbaa !4079, !dbg !5699
	%4 = bitcast double*  %3 to i8*, !dbg !5699
	call void  @_ZdlPv (i8*  %4) nounwind, !dbg !5699
	ret void, !dbg !5698
}

%struct._ZNSt12_Vector_baseIdSaIdEE12_Vector_implE = type <{ %struct._ZNSt12_Vector_baseIdSaIdEE17_Vector_impl_dataE}> 
%struct._ZNSt12_Vector_baseIdSaIdEE17_Vector_impl_dataE = type <{ double*, double*, double*}> 
%struct._ZSt12_Vector_baseIdSaIdEE = type <{ %struct._ZNSt12_Vector_baseIdSaIdEE12_Vector_implE}> 

define linkonce_odr %struct._ZSaIdE* @_ZNSt12_Vector_baseIdSaIdEE19_M_get_Tp_allocatorEv(%struct._ZSt12_Vector_baseIdSaIdEE* %_T39440608_53158.arg) #0 inlinehint !dbg !5705 {
L.entry:
	%_T39440608_53158.addr = alloca %struct._ZSt12_Vector_baseIdSaIdEE*, align 8

	call void @llvm.dbg.declare (metadata %struct._ZSt12_Vector_baseIdSaIdEE** %_T39440608_53158.addr, metadata !5709, metadata !4071), !dbg !5706
	store %struct._ZSt12_Vector_baseIdSaIdEE* %_T39440608_53158.arg, %struct._ZSt12_Vector_baseIdSaIdEE** %_T39440608_53158.addr, align 8, !tbaa !4079
	call void @llvm.dbg.declare (metadata %struct._ZSt12_Vector_baseIdSaIdEE** %_T39440608_53158.addr, metadata !5710, metadata !4071), !dbg !5706
	%0 = load %struct._ZSt12_Vector_baseIdSaIdEE*, %struct._ZSt12_Vector_baseIdSaIdEE** %_T39440608_53158.addr, align 8, !tbaa !4079, !dbg !5711
	%1 = bitcast %struct._ZSt12_Vector_baseIdSaIdEE*  %0 to %struct._ZSaIdE*, !dbg !5711
	ret %struct._ZSaIdE*  %1, !dbg !5711
}
define linkonce_odr void @_ZNSt12_Vector_baseIdSaIdEED1Ev(%struct._ZSt12_Vector_baseIdSaIdEE* %_T39440608_53159.arg) #0 inlinehint !dbg !5715 {
L.entry:
	%_T39440608_53159.addr = alloca %struct._ZSt12_Vector_baseIdSaIdEE*, align 8
	%..inline.addr = alloca double*, align 8

	call void @llvm.dbg.declare (metadata %struct._ZSt12_Vector_baseIdSaIdEE** %_T39440608_53159.addr, metadata !5743, metadata !4071), !dbg !5716
	store %struct._ZSt12_Vector_baseIdSaIdEE* %_T39440608_53159.arg, %struct._ZSt12_Vector_baseIdSaIdEE** %_T39440608_53159.addr, align 8, !tbaa !4079
	call void @llvm.dbg.declare (metadata %struct._ZSt12_Vector_baseIdSaIdEE** %_T39440608_53159.addr, metadata !5744, metadata !4071), !dbg !5716
	%0 = load %struct._ZSt12_Vector_baseIdSaIdEE*, %struct._ZSt12_Vector_baseIdSaIdEE** %_T39440608_53159.addr, align 8, !tbaa !4079, !dbg !5745
	%1 = bitcast %struct._ZSt12_Vector_baseIdSaIdEE*  %0 to i8**, !dbg !5745
	%2 = load i8*, i8**  %1, align 8, !tbaa !4079, !dbg !5745
	%3 = icmp eq i8*  %2,  null, !dbg !5745
	br i1  %3, label %L..inline.74083, label %L.B1499, !dbg !5745
L.B1499:
	%4 = bitcast %struct._ZSt12_Vector_baseIdSaIdEE*  %0 to i8**, !dbg !5746
	%5 = load i8*, i8**  %4, align 8, !tbaa !4079, !dbg !5746
	%6 = bitcast double** %..inline.addr to i8**, !dbg !5746
	store i8*  %5, i8**  %6, align 8, !tbaa !4079, !dbg !5746
	%7 = load double*, double** %..inline.addr, align 8, !tbaa !4079, !dbg !5746
	%8 = bitcast double*  %7 to i8*, !dbg !5746
	call void  @_ZdlPv (i8*  %8) nounwind, !dbg !5746
	br label %L..inline.74083
L..inline.74083:
	ret void, !dbg !5747
}
define linkonce_odr void @_ZNSt12_Vector_baseIdSaIdEED2Ev(%struct._ZSt12_Vector_baseIdSaIdEE* %_T39440608_53160.arg) #0 inlinehint !dbg !5749 {
L.entry:
	%_T39440608_53160.addr = alloca %struct._ZSt12_Vector_baseIdSaIdEE*, align 8
	%..inline.addr = alloca %struct._ZSt12_Vector_baseIdSaIdEE*, align 8
	%..inline.addr.1 = alloca double*, align 8

	store %struct._ZSt12_Vector_baseIdSaIdEE* %_T39440608_53160.arg, %struct._ZSt12_Vector_baseIdSaIdEE** %_T39440608_53160.addr, align 8, !tbaa !4079
	%0 = load %struct._ZSt12_Vector_baseIdSaIdEE*, %struct._ZSt12_Vector_baseIdSaIdEE** %_T39440608_53160.addr, align 8, !tbaa !4079, !dbg !5781
	%1 = bitcast %struct._ZSt12_Vector_baseIdSaIdEE*  %0 to i8*, !dbg !5781
	%2 = bitcast %struct._ZSt12_Vector_baseIdSaIdEE** %..inline.addr to i8**, !dbg !5781
	store i8*  %1, i8**  %2, align 8, !tbaa !4079, !dbg !5781
	%3 = load %struct._ZSt12_Vector_baseIdSaIdEE*, %struct._ZSt12_Vector_baseIdSaIdEE** %..inline.addr, align 8, !tbaa !4079, !dbg !5781
	%4 = bitcast %struct._ZSt12_Vector_baseIdSaIdEE*  %3 to i8**, !dbg !5781
	%5 = load i8*, i8**  %4, align 8, !tbaa !4079, !dbg !5781
	%6 = icmp eq i8*  %5,  null, !dbg !5781
	br i1  %6, label %L..inline.74143, label %L.B1502, !dbg !5781
L.B1502:
	%7 = bitcast %struct._ZSt12_Vector_baseIdSaIdEE*  %3 to i8**, !dbg !5781
	%8 = load i8*, i8**  %7, align 8, !tbaa !4079, !dbg !5781
	%9 = bitcast double** %..inline.addr.1 to i8**, !dbg !5781
	store i8*  %8, i8**  %9, align 8, !tbaa !4079, !dbg !5781
	%10 = load double*, double** %..inline.addr.1, align 8, !tbaa !4079, !dbg !5781
	%11 = bitcast double*  %10 to i8*, !dbg !5781
	call void  @_ZdlPv (i8*  %11) nounwind, !dbg !5781
	br label %L..inline.74143
L..inline.74143:
	ret void, !dbg !5782
}
define linkonce_odr void @_ZNSt12_Vector_baseIdSaIdEE13_M_deallocateEPdm(%struct._ZSt12_Vector_baseIdSaIdEE* %_T39440608_53163.arg, double* %__p.arg, i64 %__n.arg) #0 inlinehint !dbg !5786 {
L.entry:
	%_T39440608_53163.addr = alloca %struct._ZSt12_Vector_baseIdSaIdEE*, align 8
	%__p.addr = alloca double*, align 8
	%__n.addr = alloca i64, align 8
	%..inline.addr = alloca double*, align 8

	call void @llvm.dbg.declare (metadata %struct._ZSt12_Vector_baseIdSaIdEE** %_T39440608_53163.addr, metadata !5798, metadata !4071), !dbg !5787
	store %struct._ZSt12_Vector_baseIdSaIdEE* %_T39440608_53163.arg, %struct._ZSt12_Vector_baseIdSaIdEE** %_T39440608_53163.addr, align 8, !tbaa !4079
	call void @llvm.dbg.declare (metadata %struct._ZSt12_Vector_baseIdSaIdEE** %_T39440608_53163.addr, metadata !5799, metadata !4071), !dbg !5787
	call void @llvm.dbg.declare (metadata double** %__p.addr, metadata !5800, metadata !4071), !dbg !5787
	store double* %__p.arg, double** %__p.addr, align 8, !tbaa !4079
	call void @llvm.dbg.declare (metadata double** %__p.addr, metadata !5801, metadata !4071), !dbg !5787
	call void @llvm.dbg.declare (metadata i64* %__n.addr, metadata !5802, metadata !4071), !dbg !5787
	store i64 %__n.arg, i64* %__n.addr, align 8, !tbaa !4078
	call void @llvm.dbg.declare (metadata i64* %__n.addr, metadata !5803, metadata !4071), !dbg !5787
	%0 = load double*, double** %__p.addr, align 8, !tbaa !4079, !dbg !5804
	%1 = bitcast double*  %0 to i8*, !dbg !5804
	%2 = icmp eq i8*  %1,  null, !dbg !5804
	br i1  %2, label %L.B0021, label %L.B1505, !dbg !5804
L.B1505:
	%3 = bitcast double*  %0 to i8*, !dbg !5805
	%4 = bitcast double** %..inline.addr to i8**, !dbg !5805
	store i8*  %3, i8**  %4, align 8, !tbaa !4079, !dbg !5805
	%5 = load double*, double** %..inline.addr, align 8, !tbaa !4079, !dbg !5805
	%6 = bitcast double*  %5 to i8*, !dbg !5805
	call void  @_ZdlPv (i8*  %6) nounwind, !dbg !5805
	br label %L.B0021
L.B0021:
	ret void, !dbg !5806
}
define linkonce_odr void @_ZNSt12_Vector_baseIdSaIdEE12_Vector_implD1Ev(%struct._ZNSt12_Vector_baseIdSaIdEE12_Vector_implE* %_T39440608_53164.arg) #0 inlinehint !dbg !5811 {
L.entry:
	%_T39440608_53164.addr = alloca %struct._ZNSt12_Vector_baseIdSaIdEE12_Vector_implE*, align 8

	call void @llvm.dbg.declare (metadata %struct._ZNSt12_Vector_baseIdSaIdEE12_Vector_implE** %_T39440608_53164.addr, metadata !5823, metadata !4071), !dbg !5812
	store %struct._ZNSt12_Vector_baseIdSaIdEE12_Vector_implE* %_T39440608_53164.arg, %struct._ZNSt12_Vector_baseIdSaIdEE12_Vector_implE** %_T39440608_53164.addr, align 8, !tbaa !4079
	call void @llvm.dbg.declare (metadata %struct._ZNSt12_Vector_baseIdSaIdEE12_Vector_implE** %_T39440608_53164.addr, metadata !5824, metadata !4071), !dbg !5812
	ret void, !dbg !5825
}
define linkonce_odr void @_ZNSt12_Vector_baseIdSaIdEE12_Vector_implD2Ev(%struct._ZNSt12_Vector_baseIdSaIdEE12_Vector_implE* %_T39440608_53165.arg) #0 inlinehint !dbg !5827 {
L.entry:
	%_T39440608_53165.addr = alloca %struct._ZNSt12_Vector_baseIdSaIdEE12_Vector_implE*, align 8

	store %struct._ZNSt12_Vector_baseIdSaIdEE12_Vector_implE* %_T39440608_53165.arg, %struct._ZNSt12_Vector_baseIdSaIdEE12_Vector_implE** %_T39440608_53165.addr, align 8, !tbaa !4079
	ret void, !dbg !5843
}

%struct._ZSt6vectorIdSaIdEE = type <{ %struct._ZSt12_Vector_baseIdSaIdEE}> 

define linkonce_odr void @_ZNSt6vectorIdSaIdEED1Ev(%struct._ZSt6vectorIdSaIdEE* %_T39440608_53166.arg) #0 inlinehint !dbg !5848 {
L.entry:
	%_T39440608_53166.addr = alloca %struct._ZSt6vectorIdSaIdEE*, align 8
	%..inline.addr = alloca %struct._ZSt12_Vector_baseIdSaIdEE*, align 8
	%..inline.addr.1 = alloca double*, align 8

	call void @llvm.dbg.declare (metadata %struct._ZSt6vectorIdSaIdEE** %_T39440608_53166.addr, metadata !5900, metadata !4071), !dbg !5849
	store %struct._ZSt6vectorIdSaIdEE* %_T39440608_53166.arg, %struct._ZSt6vectorIdSaIdEE** %_T39440608_53166.addr, align 8, !tbaa !4079
	call void @llvm.dbg.declare (metadata %struct._ZSt6vectorIdSaIdEE** %_T39440608_53166.addr, metadata !5901, metadata !4071), !dbg !5849
	%0 = load %struct._ZSt6vectorIdSaIdEE*, %struct._ZSt6vectorIdSaIdEE** %_T39440608_53166.addr, align 8, !tbaa !4079, !dbg !5902
	%1 = bitcast %struct._ZSt6vectorIdSaIdEE*  %0 to i8*, !dbg !5902
	%2 = bitcast %struct._ZSt12_Vector_baseIdSaIdEE** %..inline.addr to i8**, !dbg !5902
	store i8*  %1, i8**  %2, align 8, !tbaa !4079, !dbg !5902
	%3 = load %struct._ZSt12_Vector_baseIdSaIdEE*, %struct._ZSt12_Vector_baseIdSaIdEE** %..inline.addr, align 8, !tbaa !4079, !dbg !5903
	%4 = bitcast %struct._ZSt12_Vector_baseIdSaIdEE*  %3 to i8**, !dbg !5903
	%5 = load i8*, i8**  %4, align 8, !tbaa !4079, !dbg !5903
	%6 = icmp eq i8*  %5,  null, !dbg !5903
	br i1  %6, label %L..inline.74294, label %L.B1516, !dbg !5903
L.B1516:
	%7 = bitcast %struct._ZSt12_Vector_baseIdSaIdEE*  %3 to i8**, !dbg !5903
	%8 = load i8*, i8**  %7, align 8, !tbaa !4079, !dbg !5903
	%9 = bitcast double** %..inline.addr.1 to i8**, !dbg !5903
	store i8*  %8, i8**  %9, align 8, !tbaa !4079, !dbg !5903
	%10 = load double*, double** %..inline.addr.1, align 8, !tbaa !4079, !dbg !5903
	%11 = bitcast double*  %10 to i8*, !dbg !5903
	call void  @_ZdlPv (i8*  %11) nounwind, !dbg !5903
	br label %L..inline.74294
L..inline.74294:
	ret void, !dbg !5902
}
define linkonce_odr void @_ZNSt6vectorIdSaIdEED2Ev(%struct._ZSt6vectorIdSaIdEE* %_T39440608_53167.arg) #0 inlinehint !dbg !5905 {
L.entry:
	%_T39440608_53167.addr = alloca %struct._ZSt6vectorIdSaIdEE*, align 8
	%..inline.addr = alloca %struct._ZSt12_Vector_baseIdSaIdEE*, align 8
	%..inline.addr.1 = alloca double*, align 8

	store %struct._ZSt6vectorIdSaIdEE* %_T39440608_53167.arg, %struct._ZSt6vectorIdSaIdEE** %_T39440608_53167.addr, align 8, !tbaa !4079
	%0 = load %struct._ZSt6vectorIdSaIdEE*, %struct._ZSt6vectorIdSaIdEE** %_T39440608_53167.addr, align 8, !tbaa !4079, !dbg !5961
	%1 = bitcast %struct._ZSt6vectorIdSaIdEE*  %0 to i8*, !dbg !5961
	%2 = bitcast %struct._ZSt12_Vector_baseIdSaIdEE** %..inline.addr to i8**, !dbg !5961
	store i8*  %1, i8**  %2, align 8, !tbaa !4079, !dbg !5961
	%3 = load %struct._ZSt12_Vector_baseIdSaIdEE*, %struct._ZSt12_Vector_baseIdSaIdEE** %..inline.addr, align 8, !tbaa !4079, !dbg !5961
	%4 = bitcast %struct._ZSt12_Vector_baseIdSaIdEE*  %3 to i8**, !dbg !5961
	%5 = load i8*, i8**  %4, align 8, !tbaa !4079, !dbg !5961
	%6 = icmp eq i8*  %5,  null, !dbg !5961
	br i1  %6, label %L..inline.74398, label %L.B1519, !dbg !5961
L.B1519:
	%7 = bitcast %struct._ZSt12_Vector_baseIdSaIdEE*  %3 to i8**, !dbg !5961
	%8 = load i8*, i8**  %7, align 8, !tbaa !4079, !dbg !5961
	%9 = bitcast double** %..inline.addr.1 to i8**, !dbg !5961
	store i8*  %8, i8**  %9, align 8, !tbaa !4079, !dbg !5961
	%10 = load double*, double** %..inline.addr.1, align 8, !tbaa !4079, !dbg !5961
	%11 = bitcast double*  %10 to i8*, !dbg !5961
	call void  @_ZdlPv (i8*  %11) nounwind, !dbg !5961
	br label %L..inline.74398
L..inline.74398:
	ret void, !dbg !5961
}

%struct._ZSaIN5vmesh14MeshParametersEE = type <{ [1 x i8]}> 

define linkonce_odr void @_ZNSaIN5vmesh14MeshParametersEED1Ev(%struct._ZSaIN5vmesh14MeshParametersEE* %_T39440608_53168.arg) #0 inlinehint !dbg !5969 {
L.entry:
	%_T39440608_53168.addr = alloca %struct._ZSaIN5vmesh14MeshParametersEE*, align 8

	call void @llvm.dbg.declare (metadata %struct._ZSaIN5vmesh14MeshParametersEE** %_T39440608_53168.addr, metadata !5973, metadata !4071), !dbg !5970
	store %struct._ZSaIN5vmesh14MeshParametersEE* %_T39440608_53168.arg, %struct._ZSaIN5vmesh14MeshParametersEE** %_T39440608_53168.addr, align 8, !tbaa !4079
	call void @llvm.dbg.declare (metadata %struct._ZSaIN5vmesh14MeshParametersEE** %_T39440608_53168.addr, metadata !5974, metadata !4071), !dbg !5970
	ret void, !dbg !5975
}
define linkonce_odr void @_ZNSaIN5vmesh14MeshParametersEED2Ev(%struct._ZSaIN5vmesh14MeshParametersEE* %_T39440608_53169.arg) #0 inlinehint !dbg !5977 {
L.entry:
	%_T39440608_53169.addr = alloca %struct._ZSaIN5vmesh14MeshParametersEE*, align 8

	store %struct._ZSaIN5vmesh14MeshParametersEE* %_T39440608_53169.arg, %struct._ZSaIN5vmesh14MeshParametersEE** %_T39440608_53169.addr, align 8, !tbaa !4079
	ret void, !dbg !5985
}

%struct._ZN5vmesh14MeshParametersE = type <{ %struct._ZNSt7__cxx1112basic_stringIcSt11char_traitsIcESaIcEEE, i32, [4 x i8], [6 x double], [3 x i32], [3 x i32], i8, i8, [6 x i8], [3 x double], [3 x double], [3 x double], [3 x double], [3 x double], %struct._ZSt6vectorIjSaIjEE, %struct._ZSt6vectorIdSaIdEE, %struct._ZSt6vectorIdSaIdEE, %struct._ZSt6vectorIjSaIjEE}> 
%struct._ZNSt7__cxx1112basic_stringIcSt11char_traitsIcESaIcEEE = type <{ %struct._ZNSt7__cxx1112basic_stringIcSt11char_traitsIcESaIcEE12_Alloc_hiderE, i64, %union.__C6}> 
%struct._ZNSt7__cxx1112basic_stringIcSt11char_traitsIcESaIcEE12_Alloc_hiderE = type <{ i8*}> 
%union.__C6 = type <{ [16 x i8]}> 

define linkonce_odr void @_ZNSt16allocator_traitsISaIN5vmesh14MeshParametersEEE10deallocateERS2_PS1_m(%struct._ZSaIN5vmesh14MeshParametersEE* %__a.arg, %struct._ZN5vmesh14MeshParametersE* %__p.arg, i64 %__n.arg) #0 inlinehint !dbg !5993 {
L.entry:
	%__a.addr = alloca %struct._ZSaIN5vmesh14MeshParametersEE*, align 8
	%__p.addr = alloca %struct._ZN5vmesh14MeshParametersE*, align 8
	%__n.addr = alloca i64, align 8
	%..inline.addr = alloca %struct._ZN5vmesh14MeshParametersE*, align 8

	call void @llvm.dbg.declare (metadata %struct._ZSaIN5vmesh14MeshParametersEE** %__a.addr, metadata !6001, metadata !4071), !dbg !5994
	store %struct._ZSaIN5vmesh14MeshParametersEE* %__a.arg, %struct._ZSaIN5vmesh14MeshParametersEE** %__a.addr, align 8, !tbaa !4079
	call void @llvm.dbg.declare (metadata %struct._ZSaIN5vmesh14MeshParametersEE** %__a.addr, metadata !6002, metadata !4071), !dbg !5994
	call void @llvm.dbg.declare (metadata %struct._ZN5vmesh14MeshParametersE** %__p.addr, metadata !6003, metadata !4071), !dbg !5994
	store %struct._ZN5vmesh14MeshParametersE* %__p.arg, %struct._ZN5vmesh14MeshParametersE** %__p.addr, align 8, !tbaa !4079
	call void @llvm.dbg.declare (metadata %struct._ZN5vmesh14MeshParametersE** %__p.addr, metadata !6004, metadata !4071), !dbg !5994
	call void @llvm.dbg.declare (metadata i64* %__n.addr, metadata !6005, metadata !4071), !dbg !5994
	store i64 %__n.arg, i64* %__n.addr, align 8, !tbaa !4078
	call void @llvm.dbg.declare (metadata i64* %__n.addr, metadata !6006, metadata !4071), !dbg !5994
	%0 = load %struct._ZN5vmesh14MeshParametersE*, %struct._ZN5vmesh14MeshParametersE** %__p.addr, align 8, !tbaa !4079, !dbg !6007
	%1 = bitcast %struct._ZN5vmesh14MeshParametersE*  %0 to i8*, !dbg !6007
	%2 = bitcast %struct._ZN5vmesh14MeshParametersE** %..inline.addr to i8**, !dbg !6007
	store i8*  %1, i8**  %2, align 8, !tbaa !4079, !dbg !6007
	%3 = load %struct._ZN5vmesh14MeshParametersE*, %struct._ZN5vmesh14MeshParametersE** %..inline.addr, align 8, !tbaa !4079, !dbg !6008
	%4 = bitcast %struct._ZN5vmesh14MeshParametersE*  %3 to i8*, !dbg !6008
	call void  @_ZdlPv (i8*  %4) nounwind, !dbg !6008
	ret void, !dbg !6007
}

%struct._ZNSt12_Vector_baseIN5vmesh14MeshParametersESaIS1_EE12_Vector_implE = type <{ %struct._ZNSt12_Vector_baseIN5vmesh14MeshParametersESaIS1_EE17_Vector_impl_dataE}> 
%struct._ZSt12_Vector_baseIN5vmesh14MeshParametersESaIS1_EE = type <{ %struct._ZNSt12_Vector_baseIN5vmesh14MeshParametersESaIS1_EE12_Vector_implE}> 
%struct._ZNSt12_Vector_baseIN5vmesh14MeshParametersESaIS1_EE17_Vector_impl_dataE = type <{ %struct._ZN5vmesh14MeshParametersE*, %struct._ZN5vmesh14MeshParametersE*, %struct._ZN5vmesh14MeshParametersE*}> 

define linkonce_odr %struct._ZSaIN5vmesh14MeshParametersEE* @_ZNSt12_Vector_baseIN5vmesh14MeshParametersESaIS1_EE19_M_get_Tp_allocatorEv(%struct._ZSt12_Vector_baseIN5vmesh14MeshParametersESaIS1_EE* %_T39440608_53175.arg) #0 inlinehint !dbg !6014 {
L.entry:
	%_T39440608_53175.addr = alloca %struct._ZSt12_Vector_baseIN5vmesh14MeshParametersESaIS1_EE*, align 8

	call void @llvm.dbg.declare (metadata %struct._ZSt12_Vector_baseIN5vmesh14MeshParametersESaIS1_EE** %_T39440608_53175.addr, metadata !6018, metadata !4071), !dbg !6015
	store %struct._ZSt12_Vector_baseIN5vmesh14MeshParametersESaIS1_EE* %_T39440608_53175.arg, %struct._ZSt12_Vector_baseIN5vmesh14MeshParametersESaIS1_EE** %_T39440608_53175.addr, align 8, !tbaa !4079
	call void @llvm.dbg.declare (metadata %struct._ZSt12_Vector_baseIN5vmesh14MeshParametersESaIS1_EE** %_T39440608_53175.addr, metadata !6019, metadata !4071), !dbg !6015
	%0 = load %struct._ZSt12_Vector_baseIN5vmesh14MeshParametersESaIS1_EE*, %struct._ZSt12_Vector_baseIN5vmesh14MeshParametersESaIS1_EE** %_T39440608_53175.addr, align 8, !tbaa !4079, !dbg !6020
	%1 = bitcast %struct._ZSt12_Vector_baseIN5vmesh14MeshParametersESaIS1_EE*  %0 to %struct._ZSaIN5vmesh14MeshParametersEE*, !dbg !6020
	ret %struct._ZSaIN5vmesh14MeshParametersEE*  %1, !dbg !6020
}
define linkonce_odr void @_ZNSt12_Vector_baseIN5vmesh14MeshParametersESaIS1_EEC1Ev(%struct._ZSt12_Vector_baseIN5vmesh14MeshParametersESaIS1_EE* %_T39440608_53176.arg) #0 inlinehint !dbg !6024 {
L.entry:
	%_T39440608_53176.addr = alloca %struct._ZSt12_Vector_baseIN5vmesh14MeshParametersESaIS1_EE*, align 8
	%..inline.addr = alloca %struct._ZNSt12_Vector_baseIN5vmesh14MeshParametersESaIS1_EE17_Vector_impl_dataE*, align 8

	call void @llvm.dbg.declare (metadata %struct._ZSt12_Vector_baseIN5vmesh14MeshParametersESaIS1_EE** %_T39440608_53176.addr, metadata !6040, metadata !4071), !dbg !6025
	store %struct._ZSt12_Vector_baseIN5vmesh14MeshParametersESaIS1_EE* %_T39440608_53176.arg, %struct._ZSt12_Vector_baseIN5vmesh14MeshParametersESaIS1_EE** %_T39440608_53176.addr, align 8, !tbaa !4079
	call void @llvm.dbg.declare (metadata %struct._ZSt12_Vector_baseIN5vmesh14MeshParametersESaIS1_EE** %_T39440608_53176.addr, metadata !6041, metadata !4071), !dbg !6025
	%0 = load %struct._ZSt12_Vector_baseIN5vmesh14MeshParametersESaIS1_EE*, %struct._ZSt12_Vector_baseIN5vmesh14MeshParametersESaIS1_EE** %_T39440608_53176.addr, align 8, !tbaa !4079, !dbg !6042
	%1 = bitcast %struct._ZSt12_Vector_baseIN5vmesh14MeshParametersESaIS1_EE*  %0 to i8*, !dbg !6042
	%2 = bitcast %struct._ZNSt12_Vector_baseIN5vmesh14MeshParametersESaIS1_EE17_Vector_impl_dataE** %..inline.addr to i8**, !dbg !6042
	store i8*  %1, i8**  %2, align 8, !tbaa !4079, !dbg !6042
	%3 = load %struct._ZNSt12_Vector_baseIN5vmesh14MeshParametersESaIS1_EE17_Vector_impl_dataE*, %struct._ZNSt12_Vector_baseIN5vmesh14MeshParametersESaIS1_EE17_Vector_impl_dataE** %..inline.addr, align 8, !tbaa !4079, !dbg !6042
	%4 = bitcast %struct._ZNSt12_Vector_baseIN5vmesh14MeshParametersESaIS1_EE17_Vector_impl_dataE*  %3 to i8**, !dbg !6042
	store i8* null, i8**  %4, align 8, !tbaa !4079, !dbg !6042
	%5 = bitcast %struct._ZNSt12_Vector_baseIN5vmesh14MeshParametersESaIS1_EE17_Vector_impl_dataE*  %3 to i8*, !dbg !6042
	%6 = getelementptr i8, i8*  %5, i64 8, !dbg !6042
	%7 = bitcast i8*  %6 to i8**, !dbg !6042
	store i8* null, i8**  %7, align 8, !tbaa !4079, !dbg !6042
	%8 = getelementptr i8, i8*  %5, i64 16, !dbg !6042
	%9 = bitcast i8*  %8 to i8**, !dbg !6042
	store i8* null, i8**  %9, align 8, !tbaa !4079, !dbg !6042
	ret void, !dbg !6042
}
define linkonce_odr void @_ZNSt12_Vector_baseIN5vmesh14MeshParametersESaIS1_EEC2Ev(%struct._ZSt12_Vector_baseIN5vmesh14MeshParametersESaIS1_EE* %_T39440608_53177.arg) #0 inlinehint !dbg !6044 {
L.entry:
	%_T39440608_53177.addr = alloca %struct._ZSt12_Vector_baseIN5vmesh14MeshParametersESaIS1_EE*, align 8
	%..inline.addr = alloca %struct._ZNSt12_Vector_baseIN5vmesh14MeshParametersESaIS1_EE17_Vector_impl_dataE*, align 8

	store %struct._ZSt12_Vector_baseIN5vmesh14MeshParametersESaIS1_EE* %_T39440608_53177.arg, %struct._ZSt12_Vector_baseIN5vmesh14MeshParametersESaIS1_EE** %_T39440608_53177.addr, align 8, !tbaa !4079
	%0 = load %struct._ZSt12_Vector_baseIN5vmesh14MeshParametersESaIS1_EE*, %struct._ZSt12_Vector_baseIN5vmesh14MeshParametersESaIS1_EE** %_T39440608_53177.addr, align 8, !tbaa !4079, !dbg !6064
	%1 = bitcast %struct._ZSt12_Vector_baseIN5vmesh14MeshParametersESaIS1_EE*  %0 to i8*, !dbg !6064
	%2 = bitcast %struct._ZNSt12_Vector_baseIN5vmesh14MeshParametersESaIS1_EE17_Vector_impl_dataE** %..inline.addr to i8**, !dbg !6064
	store i8*  %1, i8**  %2, align 8, !tbaa !4079, !dbg !6064
	%3 = load %struct._ZNSt12_Vector_baseIN5vmesh14MeshParametersESaIS1_EE17_Vector_impl_dataE*, %struct._ZNSt12_Vector_baseIN5vmesh14MeshParametersESaIS1_EE17_Vector_impl_dataE** %..inline.addr, align 8, !tbaa !4079, !dbg !6064
	%4 = bitcast %struct._ZNSt12_Vector_baseIN5vmesh14MeshParametersESaIS1_EE17_Vector_impl_dataE*  %3 to i8**, !dbg !6064
	store i8* null, i8**  %4, align 8, !tbaa !4079, !dbg !6064
	%5 = bitcast %struct._ZNSt12_Vector_baseIN5vmesh14MeshParametersESaIS1_EE17_Vector_impl_dataE*  %3 to i8*, !dbg !6064
	%6 = getelementptr i8, i8*  %5, i64 8, !dbg !6064
	%7 = bitcast i8*  %6 to i8**, !dbg !6064
	store i8* null, i8**  %7, align 8, !tbaa !4079, !dbg !6064
	%8 = getelementptr i8, i8*  %5, i64 16, !dbg !6064
	%9 = bitcast i8*  %8 to i8**, !dbg !6064
	store i8* null, i8**  %9, align 8, !tbaa !4079, !dbg !6064
	ret void, !dbg !6064
}
define linkonce_odr void @_ZNSt12_Vector_baseIN5vmesh14MeshParametersESaIS1_EED1Ev(%struct._ZSt12_Vector_baseIN5vmesh14MeshParametersESaIS1_EE* %_T39440608_53178.arg) #0 inlinehint !dbg !6066 {
L.entry:
	%_T39440608_53178.addr = alloca %struct._ZSt12_Vector_baseIN5vmesh14MeshParametersESaIS1_EE*, align 8
	%..inline.addr = alloca %struct._ZN5vmesh14MeshParametersE*, align 8

	call void @llvm.dbg.declare (metadata %struct._ZSt12_Vector_baseIN5vmesh14MeshParametersESaIS1_EE** %_T39440608_53178.addr, metadata !6094, metadata !4071), !dbg !6067
	store %struct._ZSt12_Vector_baseIN5vmesh14MeshParametersESaIS1_EE* %_T39440608_53178.arg, %struct._ZSt12_Vector_baseIN5vmesh14MeshParametersESaIS1_EE** %_T39440608_53178.addr, align 8, !tbaa !4079
	call void @llvm.dbg.declare (metadata %struct._ZSt12_Vector_baseIN5vmesh14MeshParametersESaIS1_EE** %_T39440608_53178.addr, metadata !6095, metadata !4071), !dbg !6067
	%0 = load %struct._ZSt12_Vector_baseIN5vmesh14MeshParametersESaIS1_EE*, %struct._ZSt12_Vector_baseIN5vmesh14MeshParametersESaIS1_EE** %_T39440608_53178.addr, align 8, !tbaa !4079, !dbg !6096
	%1 = bitcast %struct._ZSt12_Vector_baseIN5vmesh14MeshParametersESaIS1_EE*  %0 to i8**, !dbg !6096
	%2 = load i8*, i8**  %1, align 8, !tbaa !4079, !dbg !6096
	%3 = icmp eq i8*  %2,  null, !dbg !6096
	br i1  %3, label %L..inline.74542, label %L.B1532, !dbg !6096
L.B1532:
	%4 = bitcast %struct._ZSt12_Vector_baseIN5vmesh14MeshParametersESaIS1_EE*  %0 to i8**, !dbg !6097
	%5 = load i8*, i8**  %4, align 8, !tbaa !4079, !dbg !6097
	%6 = bitcast %struct._ZN5vmesh14MeshParametersE** %..inline.addr to i8**, !dbg !6097
	store i8*  %5, i8**  %6, align 8, !tbaa !4079, !dbg !6097
	%7 = load %struct._ZN5vmesh14MeshParametersE*, %struct._ZN5vmesh14MeshParametersE** %..inline.addr, align 8, !tbaa !4079, !dbg !6097
	%8 = bitcast %struct._ZN5vmesh14MeshParametersE*  %7 to i8*, !dbg !6097
	call void  @_ZdlPv (i8*  %8) nounwind, !dbg !6097
	br label %L..inline.74542
L..inline.74542:
	ret void, !dbg !6098
}
define linkonce_odr void @_ZNSt12_Vector_baseIN5vmesh14MeshParametersESaIS1_EED2Ev(%struct._ZSt12_Vector_baseIN5vmesh14MeshParametersESaIS1_EE* %_T39440608_53179.arg) #0 inlinehint !dbg !6100 {
L.entry:
	%_T39440608_53179.addr = alloca %struct._ZSt12_Vector_baseIN5vmesh14MeshParametersESaIS1_EE*, align 8
	%..inline.addr = alloca %struct._ZSt12_Vector_baseIN5vmesh14MeshParametersESaIS1_EE*, align 8
	%..inline.addr.1 = alloca %struct._ZN5vmesh14MeshParametersE*, align 8

	store %struct._ZSt12_Vector_baseIN5vmesh14MeshParametersESaIS1_EE* %_T39440608_53179.arg, %struct._ZSt12_Vector_baseIN5vmesh14MeshParametersESaIS1_EE** %_T39440608_53179.addr, align 8, !tbaa !4079
	%0 = load %struct._ZSt12_Vector_baseIN5vmesh14MeshParametersESaIS1_EE*, %struct._ZSt12_Vector_baseIN5vmesh14MeshParametersESaIS1_EE** %_T39440608_53179.addr, align 8, !tbaa !4079, !dbg !6132
	%1 = bitcast %struct._ZSt12_Vector_baseIN5vmesh14MeshParametersESaIS1_EE*  %0 to i8*, !dbg !6132
	%2 = bitcast %struct._ZSt12_Vector_baseIN5vmesh14MeshParametersESaIS1_EE** %..inline.addr to i8**, !dbg !6132
	store i8*  %1, i8**  %2, align 8, !tbaa !4079, !dbg !6132
	%3 = load %struct._ZSt12_Vector_baseIN5vmesh14MeshParametersESaIS1_EE*, %struct._ZSt12_Vector_baseIN5vmesh14MeshParametersESaIS1_EE** %..inline.addr, align 8, !tbaa !4079, !dbg !6132
	%4 = bitcast %struct._ZSt12_Vector_baseIN5vmesh14MeshParametersESaIS1_EE*  %3 to i8**, !dbg !6132
	%5 = load i8*, i8**  %4, align 8, !tbaa !4079, !dbg !6132
	%6 = icmp eq i8*  %5,  null, !dbg !6132
	br i1  %6, label %L..inline.74604, label %L.B1535, !dbg !6132
L.B1535:
	%7 = bitcast %struct._ZSt12_Vector_baseIN5vmesh14MeshParametersESaIS1_EE*  %3 to i8**, !dbg !6132
	%8 = load i8*, i8**  %7, align 8, !tbaa !4079, !dbg !6132
	%9 = bitcast %struct._ZN5vmesh14MeshParametersE** %..inline.addr.1 to i8**, !dbg !6132
	store i8*  %8, i8**  %9, align 8, !tbaa !4079, !dbg !6132
	%10 = load %struct._ZN5vmesh14MeshParametersE*, %struct._ZN5vmesh14MeshParametersE** %..inline.addr.1, align 8, !tbaa !4079, !dbg !6132
	%11 = bitcast %struct._ZN5vmesh14MeshParametersE*  %10 to i8*, !dbg !6132
	call void  @_ZdlPv (i8*  %11) nounwind, !dbg !6132
	br label %L..inline.74604
L..inline.74604:
	ret void, !dbg !6133
}
define linkonce_odr void @_ZNSt12_Vector_baseIN5vmesh14MeshParametersESaIS1_EE13_M_deallocateEPS1_m(%struct._ZSt12_Vector_baseIN5vmesh14MeshParametersESaIS1_EE* %_T39440608_53182.arg, %struct._ZN5vmesh14MeshParametersE* %__p.arg, i64 %__n.arg) #0 inlinehint !dbg !6137 {
L.entry:
	%_T39440608_53182.addr = alloca %struct._ZSt12_Vector_baseIN5vmesh14MeshParametersESaIS1_EE*, align 8
	%__p.addr = alloca %struct._ZN5vmesh14MeshParametersE*, align 8
	%__n.addr = alloca i64, align 8
	%..inline.addr = alloca %struct._ZN5vmesh14MeshParametersE*, align 8

	call void @llvm.dbg.declare (metadata %struct._ZSt12_Vector_baseIN5vmesh14MeshParametersESaIS1_EE** %_T39440608_53182.addr, metadata !6149, metadata !4071), !dbg !6138
	store %struct._ZSt12_Vector_baseIN5vmesh14MeshParametersESaIS1_EE* %_T39440608_53182.arg, %struct._ZSt12_Vector_baseIN5vmesh14MeshParametersESaIS1_EE** %_T39440608_53182.addr, align 8, !tbaa !4079
	call void @llvm.dbg.declare (metadata %struct._ZSt12_Vector_baseIN5vmesh14MeshParametersESaIS1_EE** %_T39440608_53182.addr, metadata !6150, metadata !4071), !dbg !6138
	call void @llvm.dbg.declare (metadata %struct._ZN5vmesh14MeshParametersE** %__p.addr, metadata !6151, metadata !4071), !dbg !6138
	store %struct._ZN5vmesh14MeshParametersE* %__p.arg, %struct._ZN5vmesh14MeshParametersE** %__p.addr, align 8, !tbaa !4079
	call void @llvm.dbg.declare (metadata %struct._ZN5vmesh14MeshParametersE** %__p.addr, metadata !6152, metadata !4071), !dbg !6138
	call void @llvm.dbg.declare (metadata i64* %__n.addr, metadata !6153, metadata !4071), !dbg !6138
	store i64 %__n.arg, i64* %__n.addr, align 8, !tbaa !4078
	call void @llvm.dbg.declare (metadata i64* %__n.addr, metadata !6154, metadata !4071), !dbg !6138
	%0 = load %struct._ZN5vmesh14MeshParametersE*, %struct._ZN5vmesh14MeshParametersE** %__p.addr, align 8, !tbaa !4079, !dbg !6155
	%1 = bitcast %struct._ZN5vmesh14MeshParametersE*  %0 to i8*, !dbg !6155
	%2 = icmp eq i8*  %1,  null, !dbg !6155
	br i1  %2, label %L.B0022, label %L.B1538, !dbg !6155
L.B1538:
	%3 = bitcast %struct._ZN5vmesh14MeshParametersE*  %0 to i8*, !dbg !6156
	%4 = bitcast %struct._ZN5vmesh14MeshParametersE** %..inline.addr to i8**, !dbg !6156
	store i8*  %3, i8**  %4, align 8, !tbaa !4079, !dbg !6156
	%5 = load %struct._ZN5vmesh14MeshParametersE*, %struct._ZN5vmesh14MeshParametersE** %..inline.addr, align 8, !tbaa !4079, !dbg !6156
	%6 = bitcast %struct._ZN5vmesh14MeshParametersE*  %5 to i8*, !dbg !6156
	call void  @_ZdlPv (i8*  %6) nounwind, !dbg !6156
	br label %L.B0022
L.B0022:
	ret void, !dbg !6157
}
define linkonce_odr void @_ZNSt12_Vector_baseIN5vmesh14MeshParametersESaIS1_EE17_Vector_impl_dataC1Ev(%struct._ZNSt12_Vector_baseIN5vmesh14MeshParametersESaIS1_EE17_Vector_impl_dataE* %_T39440608_53183.arg) #0 inlinehint !dbg !6162 {
L.entry:
	%_T39440608_53183.addr = alloca %struct._ZNSt12_Vector_baseIN5vmesh14MeshParametersESaIS1_EE17_Vector_impl_dataE*, align 8

	call void @llvm.dbg.declare (metadata %struct._ZNSt12_Vector_baseIN5vmesh14MeshParametersESaIS1_EE17_Vector_impl_dataE** %_T39440608_53183.addr, metadata !6166, metadata !4071), !dbg !6163
	store %struct._ZNSt12_Vector_baseIN5vmesh14MeshParametersESaIS1_EE17_Vector_impl_dataE* %_T39440608_53183.arg, %struct._ZNSt12_Vector_baseIN5vmesh14MeshParametersESaIS1_EE17_Vector_impl_dataE** %_T39440608_53183.addr, align 8, !tbaa !4079
	call void @llvm.dbg.declare (metadata %struct._ZNSt12_Vector_baseIN5vmesh14MeshParametersESaIS1_EE17_Vector_impl_dataE** %_T39440608_53183.addr, metadata !6167, metadata !4071), !dbg !6163
	%0 = load %struct._ZNSt12_Vector_baseIN5vmesh14MeshParametersESaIS1_EE17_Vector_impl_dataE*, %struct._ZNSt12_Vector_baseIN5vmesh14MeshParametersESaIS1_EE17_Vector_impl_dataE** %_T39440608_53183.addr, align 8, !tbaa !4079, !dbg !6168
	%1 = bitcast %struct._ZNSt12_Vector_baseIN5vmesh14MeshParametersESaIS1_EE17_Vector_impl_dataE*  %0 to i8**, !dbg !6168
	store i8* null, i8**  %1, align 8, !tbaa !4079, !dbg !6168
	%2 = bitcast %struct._ZNSt12_Vector_baseIN5vmesh14MeshParametersESaIS1_EE17_Vector_impl_dataE*  %0 to i8*, !dbg !6168
	%3 = getelementptr i8, i8*  %2, i64 8, !dbg !6168
	%4 = bitcast i8*  %3 to i8**, !dbg !6168
	store i8* null, i8**  %4, align 8, !tbaa !4079, !dbg !6168
	%5 = getelementptr i8, i8*  %2, i64 16, !dbg !6168
	%6 = bitcast i8*  %5 to i8**, !dbg !6168
	store i8* null, i8**  %6, align 8, !tbaa !4079, !dbg !6168
	ret void, !dbg !6168
}
define linkonce_odr void @_ZNSt12_Vector_baseIN5vmesh14MeshParametersESaIS1_EE17_Vector_impl_dataC2Ev(%struct._ZNSt12_Vector_baseIN5vmesh14MeshParametersESaIS1_EE17_Vector_impl_dataE* %_T39440608_53184.arg) #0 inlinehint !dbg !6170 {
L.entry:
	%_T39440608_53184.addr = alloca %struct._ZNSt12_Vector_baseIN5vmesh14MeshParametersESaIS1_EE17_Vector_impl_dataE*, align 8
	%..inline.addr = alloca %struct._ZNSt12_Vector_baseIN5vmesh14MeshParametersESaIS1_EE17_Vector_impl_dataE*, align 8

	store %struct._ZNSt12_Vector_baseIN5vmesh14MeshParametersESaIS1_EE17_Vector_impl_dataE* %_T39440608_53184.arg, %struct._ZNSt12_Vector_baseIN5vmesh14MeshParametersESaIS1_EE17_Vector_impl_dataE** %_T39440608_53184.addr, align 8, !tbaa !4079
	%0 = load %struct._ZNSt12_Vector_baseIN5vmesh14MeshParametersESaIS1_EE17_Vector_impl_dataE*, %struct._ZNSt12_Vector_baseIN5vmesh14MeshParametersESaIS1_EE17_Vector_impl_dataE** %_T39440608_53184.addr, align 8, !tbaa !4079, !dbg !6178
	%1 = bitcast %struct._ZNSt12_Vector_baseIN5vmesh14MeshParametersESaIS1_EE17_Vector_impl_dataE*  %0 to i8*, !dbg !6178
	%2 = bitcast %struct._ZNSt12_Vector_baseIN5vmesh14MeshParametersESaIS1_EE17_Vector_impl_dataE** %..inline.addr to i8**, !dbg !6178
	store i8*  %1, i8**  %2, align 8, !tbaa !4079, !dbg !6178
	%3 = load %struct._ZNSt12_Vector_baseIN5vmesh14MeshParametersESaIS1_EE17_Vector_impl_dataE*, %struct._ZNSt12_Vector_baseIN5vmesh14MeshParametersESaIS1_EE17_Vector_impl_dataE** %..inline.addr, align 8, !tbaa !4079, !dbg !6178
	%4 = bitcast %struct._ZNSt12_Vector_baseIN5vmesh14MeshParametersESaIS1_EE17_Vector_impl_dataE*  %3 to i8**, !dbg !6178
	store i8* null, i8**  %4, align 8, !tbaa !4079, !dbg !6178
	%5 = bitcast %struct._ZNSt12_Vector_baseIN5vmesh14MeshParametersESaIS1_EE17_Vector_impl_dataE*  %3 to i8*, !dbg !6178
	%6 = getelementptr i8, i8*  %5, i64 8, !dbg !6178
	%7 = bitcast i8*  %6 to i8**, !dbg !6178
	store i8* null, i8**  %7, align 8, !tbaa !4079, !dbg !6178
	%8 = getelementptr i8, i8*  %5, i64 16, !dbg !6178
	%9 = bitcast i8*  %8 to i8**, !dbg !6178
	store i8* null, i8**  %9, align 8, !tbaa !4079, !dbg !6178
	ret void, !dbg !6178
}
define linkonce_odr void @_ZNSt12_Vector_baseIN5vmesh14MeshParametersESaIS1_EE12_Vector_implC1Ev(%struct._ZNSt12_Vector_baseIN5vmesh14MeshParametersESaIS1_EE12_Vector_implE* %_T39440608_53185.arg) #0 inlinehint !dbg !6183 {
L.entry:
	%_T39440608_53185.addr = alloca %struct._ZNSt12_Vector_baseIN5vmesh14MeshParametersESaIS1_EE12_Vector_implE*, align 8
	%..inline.addr = alloca %struct._ZNSt12_Vector_baseIN5vmesh14MeshParametersESaIS1_EE17_Vector_impl_dataE*, align 8

	call void @llvm.dbg.declare (metadata %struct._ZNSt12_Vector_baseIN5vmesh14MeshParametersESaIS1_EE12_Vector_implE** %_T39440608_53185.addr, metadata !6195, metadata !4071), !dbg !6184
	store %struct._ZNSt12_Vector_baseIN5vmesh14MeshParametersESaIS1_EE12_Vector_implE* %_T39440608_53185.arg, %struct._ZNSt12_Vector_baseIN5vmesh14MeshParametersESaIS1_EE12_Vector_implE** %_T39440608_53185.addr, align 8, !tbaa !4079
	call void @llvm.dbg.declare (metadata %struct._ZNSt12_Vector_baseIN5vmesh14MeshParametersESaIS1_EE12_Vector_implE** %_T39440608_53185.addr, metadata !6196, metadata !4071), !dbg !6184
	%0 = load %struct._ZNSt12_Vector_baseIN5vmesh14MeshParametersESaIS1_EE12_Vector_implE*, %struct._ZNSt12_Vector_baseIN5vmesh14MeshParametersESaIS1_EE12_Vector_implE** %_T39440608_53185.addr, align 8, !tbaa !4079, !dbg !6197
	%1 = bitcast %struct._ZNSt12_Vector_baseIN5vmesh14MeshParametersESaIS1_EE12_Vector_implE*  %0 to i8*, !dbg !6197
	%2 = bitcast %struct._ZNSt12_Vector_baseIN5vmesh14MeshParametersESaIS1_EE17_Vector_impl_dataE** %..inline.addr to i8**, !dbg !6197
	store i8*  %1, i8**  %2, align 8, !tbaa !4079, !dbg !6197
	%3 = load %struct._ZNSt12_Vector_baseIN5vmesh14MeshParametersESaIS1_EE17_Vector_impl_dataE*, %struct._ZNSt12_Vector_baseIN5vmesh14MeshParametersESaIS1_EE17_Vector_impl_dataE** %..inline.addr, align 8, !tbaa !4079, !dbg !6197
	%4 = bitcast %struct._ZNSt12_Vector_baseIN5vmesh14MeshParametersESaIS1_EE17_Vector_impl_dataE*  %3 to i8**, !dbg !6197
	store i8* null, i8**  %4, align 8, !tbaa !4079, !dbg !6197
	%5 = bitcast %struct._ZNSt12_Vector_baseIN5vmesh14MeshParametersESaIS1_EE17_Vector_impl_dataE*  %3 to i8*, !dbg !6198
	%6 = getelementptr i8, i8*  %5, i64 8, !dbg !6198
	%7 = bitcast i8*  %6 to i8**, !dbg !6198
	store i8* null, i8**  %7, align 8, !tbaa !4079, !dbg !6198
	%8 = getelementptr i8, i8*  %5, i64 16, !dbg !6198
	%9 = bitcast i8*  %8 to i8**, !dbg !6198
	store i8* null, i8**  %9, align 8, !tbaa !4079, !dbg !6198
	ret void, !dbg !6197
}
define linkonce_odr void @_ZNSt12_Vector_baseIN5vmesh14MeshParametersESaIS1_EE12_Vector_implC2Ev(%struct._ZNSt12_Vector_baseIN5vmesh14MeshParametersESaIS1_EE12_Vector_implE* %_T39440608_53186.arg) #0 inlinehint !dbg !6200 {
L.entry:
	%_T39440608_53186.addr = alloca %struct._ZNSt12_Vector_baseIN5vmesh14MeshParametersESaIS1_EE12_Vector_implE*, align 8
	%..inline.addr = alloca %struct._ZNSt12_Vector_baseIN5vmesh14MeshParametersESaIS1_EE17_Vector_impl_dataE*, align 8

	store %struct._ZNSt12_Vector_baseIN5vmesh14MeshParametersESaIS1_EE12_Vector_implE* %_T39440608_53186.arg, %struct._ZNSt12_Vector_baseIN5vmesh14MeshParametersESaIS1_EE12_Vector_implE** %_T39440608_53186.addr, align 8, !tbaa !4079
	%0 = load %struct._ZNSt12_Vector_baseIN5vmesh14MeshParametersESaIS1_EE12_Vector_implE*, %struct._ZNSt12_Vector_baseIN5vmesh14MeshParametersESaIS1_EE12_Vector_implE** %_T39440608_53186.addr, align 8, !tbaa !4079, !dbg !6216
	%1 = bitcast %struct._ZNSt12_Vector_baseIN5vmesh14MeshParametersESaIS1_EE12_Vector_implE*  %0 to i8*, !dbg !6216
	%2 = bitcast %struct._ZNSt12_Vector_baseIN5vmesh14MeshParametersESaIS1_EE17_Vector_impl_dataE** %..inline.addr to i8**, !dbg !6216
	store i8*  %1, i8**  %2, align 8, !tbaa !4079, !dbg !6216
	%3 = load %struct._ZNSt12_Vector_baseIN5vmesh14MeshParametersESaIS1_EE17_Vector_impl_dataE*, %struct._ZNSt12_Vector_baseIN5vmesh14MeshParametersESaIS1_EE17_Vector_impl_dataE** %..inline.addr, align 8, !tbaa !4079, !dbg !6216
	%4 = bitcast %struct._ZNSt12_Vector_baseIN5vmesh14MeshParametersESaIS1_EE17_Vector_impl_dataE*  %3 to i8**, !dbg !6216
	store i8* null, i8**  %4, align 8, !tbaa !4079, !dbg !6216
	%5 = bitcast %struct._ZNSt12_Vector_baseIN5vmesh14MeshParametersESaIS1_EE17_Vector_impl_dataE*  %3 to i8*, !dbg !6216
	%6 = getelementptr i8, i8*  %5, i64 8, !dbg !6216
	%7 = bitcast i8*  %6 to i8**, !dbg !6216
	store i8* null, i8**  %7, align 8, !tbaa !4079, !dbg !6216
	%8 = getelementptr i8, i8*  %5, i64 16, !dbg !6216
	%9 = bitcast i8*  %8 to i8**, !dbg !6216
	store i8* null, i8**  %9, align 8, !tbaa !4079, !dbg !6216
	ret void, !dbg !6216
}
define linkonce_odr void @_ZNSt12_Vector_baseIN5vmesh14MeshParametersESaIS1_EE12_Vector_implD1Ev(%struct._ZNSt12_Vector_baseIN5vmesh14MeshParametersESaIS1_EE12_Vector_implE* %_T39440608_53187.arg) #0 inlinehint !dbg !6218 {
L.entry:
	%_T39440608_53187.addr = alloca %struct._ZNSt12_Vector_baseIN5vmesh14MeshParametersESaIS1_EE12_Vector_implE*, align 8

	call void @llvm.dbg.declare (metadata %struct._ZNSt12_Vector_baseIN5vmesh14MeshParametersESaIS1_EE12_Vector_implE** %_T39440608_53187.addr, metadata !6230, metadata !4071), !dbg !6219
	store %struct._ZNSt12_Vector_baseIN5vmesh14MeshParametersESaIS1_EE12_Vector_implE* %_T39440608_53187.arg, %struct._ZNSt12_Vector_baseIN5vmesh14MeshParametersESaIS1_EE12_Vector_implE** %_T39440608_53187.addr, align 8, !tbaa !4079
	call void @llvm.dbg.declare (metadata %struct._ZNSt12_Vector_baseIN5vmesh14MeshParametersESaIS1_EE12_Vector_implE** %_T39440608_53187.addr, metadata !6231, metadata !4071), !dbg !6219
	ret void, !dbg !6232
}
define linkonce_odr void @_ZNSt12_Vector_baseIN5vmesh14MeshParametersESaIS1_EE12_Vector_implD2Ev(%struct._ZNSt12_Vector_baseIN5vmesh14MeshParametersESaIS1_EE12_Vector_implE* %_T39440608_53188.arg) #0 inlinehint !dbg !6234 {
L.entry:
	%_T39440608_53188.addr = alloca %struct._ZNSt12_Vector_baseIN5vmesh14MeshParametersESaIS1_EE12_Vector_implE*, align 8

	store %struct._ZNSt12_Vector_baseIN5vmesh14MeshParametersESaIS1_EE12_Vector_implE* %_T39440608_53188.arg, %struct._ZNSt12_Vector_baseIN5vmesh14MeshParametersESaIS1_EE12_Vector_implE** %_T39440608_53188.addr, align 8, !tbaa !4079
	ret void, !dbg !6250
}

%struct._ZSt6vectorIN5vmesh14MeshParametersESaIS1_EE = type <{ %struct._ZSt12_Vector_baseIN5vmesh14MeshParametersESaIS1_EE}> 

define linkonce_odr void @_ZNSt6vectorIN5vmesh14MeshParametersESaIS1_EEC1Ev(%struct._ZSt6vectorIN5vmesh14MeshParametersESaIS1_EE* %_T39440608_53189.arg) #0 inlinehint !dbg !6255 {
L.entry:
	%_T39440608_53189.addr = alloca %struct._ZSt6vectorIN5vmesh14MeshParametersESaIS1_EE*, align 8
	%..inline.addr = alloca %struct._ZNSt12_Vector_baseIN5vmesh14MeshParametersESaIS1_EE17_Vector_impl_dataE*, align 8

	call void @llvm.dbg.declare (metadata %struct._ZSt6vectorIN5vmesh14MeshParametersESaIS1_EE** %_T39440608_53189.addr, metadata !6279, metadata !4071), !dbg !6256
	store %struct._ZSt6vectorIN5vmesh14MeshParametersESaIS1_EE* %_T39440608_53189.arg, %struct._ZSt6vectorIN5vmesh14MeshParametersESaIS1_EE** %_T39440608_53189.addr, align 8, !tbaa !4079
	call void @llvm.dbg.declare (metadata %struct._ZSt6vectorIN5vmesh14MeshParametersESaIS1_EE** %_T39440608_53189.addr, metadata !6280, metadata !4071), !dbg !6256
	%0 = load %struct._ZSt6vectorIN5vmesh14MeshParametersESaIS1_EE*, %struct._ZSt6vectorIN5vmesh14MeshParametersESaIS1_EE** %_T39440608_53189.addr, align 8, !tbaa !4079, !dbg !6281
	%1 = bitcast %struct._ZSt6vectorIN5vmesh14MeshParametersESaIS1_EE*  %0 to i8*, !dbg !6281
	%2 = bitcast %struct._ZNSt12_Vector_baseIN5vmesh14MeshParametersESaIS1_EE17_Vector_impl_dataE** %..inline.addr to i8**, !dbg !6281
	store i8*  %1, i8**  %2, align 8, !tbaa !4079, !dbg !6281
	%3 = load %struct._ZNSt12_Vector_baseIN5vmesh14MeshParametersESaIS1_EE17_Vector_impl_dataE*, %struct._ZNSt12_Vector_baseIN5vmesh14MeshParametersESaIS1_EE17_Vector_impl_dataE** %..inline.addr, align 8, !tbaa !4079, !dbg !6281
	%4 = bitcast %struct._ZNSt12_Vector_baseIN5vmesh14MeshParametersESaIS1_EE17_Vector_impl_dataE*  %3 to i8**, !dbg !6281
	store i8* null, i8**  %4, align 8, !tbaa !4079, !dbg !6281
	%5 = bitcast %struct._ZNSt12_Vector_baseIN5vmesh14MeshParametersESaIS1_EE17_Vector_impl_dataE*  %3 to i8*, !dbg !6281
	%6 = getelementptr i8, i8*  %5, i64 8, !dbg !6281
	%7 = bitcast i8*  %6 to i8**, !dbg !6281
	store i8* null, i8**  %7, align 8, !tbaa !4079, !dbg !6281
	%8 = getelementptr i8, i8*  %5, i64 16, !dbg !6281
	%9 = bitcast i8*  %8 to i8**, !dbg !6281
	store i8* null, i8**  %9, align 8, !tbaa !4079, !dbg !6281
	ret void, !dbg !6281
}
define linkonce_odr void @_ZNSt6vectorIN5vmesh14MeshParametersESaIS1_EEC2Ev(%struct._ZSt6vectorIN5vmesh14MeshParametersESaIS1_EE* %_T39440608_53190.arg) #0 inlinehint !dbg !6283 {
L.entry:
	%_T39440608_53190.addr = alloca %struct._ZSt6vectorIN5vmesh14MeshParametersESaIS1_EE*, align 8
	%..inline.addr = alloca %struct._ZNSt12_Vector_baseIN5vmesh14MeshParametersESaIS1_EE17_Vector_impl_dataE*, align 8

	store %struct._ZSt6vectorIN5vmesh14MeshParametersESaIS1_EE* %_T39440608_53190.arg, %struct._ZSt6vectorIN5vmesh14MeshParametersESaIS1_EE** %_T39440608_53190.addr, align 8, !tbaa !4079
	%0 = load %struct._ZSt6vectorIN5vmesh14MeshParametersESaIS1_EE*, %struct._ZSt6vectorIN5vmesh14MeshParametersESaIS1_EE** %_T39440608_53190.addr, align 8, !tbaa !4079, !dbg !6311
	%1 = bitcast %struct._ZSt6vectorIN5vmesh14MeshParametersESaIS1_EE*  %0 to i8*, !dbg !6311
	%2 = bitcast %struct._ZNSt12_Vector_baseIN5vmesh14MeshParametersESaIS1_EE17_Vector_impl_dataE** %..inline.addr to i8**, !dbg !6311
	store i8*  %1, i8**  %2, align 8, !tbaa !4079, !dbg !6311
	%3 = load %struct._ZNSt12_Vector_baseIN5vmesh14MeshParametersESaIS1_EE17_Vector_impl_dataE*, %struct._ZNSt12_Vector_baseIN5vmesh14MeshParametersESaIS1_EE17_Vector_impl_dataE** %..inline.addr, align 8, !tbaa !4079, !dbg !6311
	%4 = bitcast %struct._ZNSt12_Vector_baseIN5vmesh14MeshParametersESaIS1_EE17_Vector_impl_dataE*  %3 to i8**, !dbg !6311
	store i8* null, i8**  %4, align 8, !tbaa !4079, !dbg !6311
	%5 = bitcast %struct._ZNSt12_Vector_baseIN5vmesh14MeshParametersESaIS1_EE17_Vector_impl_dataE*  %3 to i8*, !dbg !6311
	%6 = getelementptr i8, i8*  %5, i64 8, !dbg !6311
	%7 = bitcast i8*  %6 to i8**, !dbg !6311
	store i8* null, i8**  %7, align 8, !tbaa !4079, !dbg !6311
	%8 = getelementptr i8, i8*  %5, i64 16, !dbg !6311
	%9 = bitcast i8*  %8 to i8**, !dbg !6311
	store i8* null, i8**  %9, align 8, !tbaa !4079, !dbg !6311
	ret void, !dbg !6311
}
define linkonce_odr void @_ZNSt6vectorIN5vmesh14MeshParametersESaIS1_EED1Ev(%struct._ZSt6vectorIN5vmesh14MeshParametersESaIS1_EE* %_T39440608_53191.arg) #0 inlinehint !dbg !6313 {
L.entry:
	%_T39440608_53191.addr = alloca %struct._ZSt6vectorIN5vmesh14MeshParametersESaIS1_EE*, align 8
	%..inline.addr = alloca %struct._ZN5vmesh14MeshParametersE*, align 8
	%..inline.addr.1 = alloca %struct._ZN5vmesh14MeshParametersE*, align 8
	%.lcr4494209.addr = alloca i8*, align 8
	%..inline.addr.2 = alloca %struct._ZN5vmesh14MeshParametersE*, align 8
	%..inline.addr.3 = alloca %struct._ZSt12_Vector_baseIN5vmesh14MeshParametersESaIS1_EE*, align 8
	%..inline.addr.4 = alloca %struct._ZN5vmesh14MeshParametersE*, align 8

	call void @llvm.dbg.declare (metadata %struct._ZSt6vectorIN5vmesh14MeshParametersESaIS1_EE** %_T39440608_53191.addr, metadata !6373, metadata !4071), !dbg !6314
	store %struct._ZSt6vectorIN5vmesh14MeshParametersESaIS1_EE* %_T39440608_53191.arg, %struct._ZSt6vectorIN5vmesh14MeshParametersESaIS1_EE** %_T39440608_53191.addr, align 8, !tbaa !4079
	call void @llvm.dbg.declare (metadata %struct._ZSt6vectorIN5vmesh14MeshParametersESaIS1_EE** %_T39440608_53191.addr, metadata !6374, metadata !4071), !dbg !6314
	%0 = load %struct._ZSt6vectorIN5vmesh14MeshParametersESaIS1_EE*, %struct._ZSt6vectorIN5vmesh14MeshParametersESaIS1_EE** %_T39440608_53191.addr, align 8, !tbaa !4079, !dbg !6375
	%1 = bitcast %struct._ZSt6vectorIN5vmesh14MeshParametersESaIS1_EE*  %0 to i8**, !dbg !6375
	%2 = load i8*, i8**  %1, align 8, !tbaa !4079, !dbg !6375
	%3 = bitcast %struct._ZN5vmesh14MeshParametersE** %..inline.addr to i8**, !dbg !6375
	store i8*  %2, i8**  %3, align 8, !tbaa !4079, !dbg !6375
	%4 = bitcast %struct._ZSt6vectorIN5vmesh14MeshParametersESaIS1_EE*  %0 to i8*, !dbg !6375
	%5 = getelementptr i8, i8*  %4, i64 8, !dbg !6375
	%6 = bitcast i8*  %5 to i8**, !dbg !6375
	%7 = load i8*, i8**  %6, align 8, !tbaa !4079, !dbg !6375
	%8 = bitcast %struct._ZN5vmesh14MeshParametersE** %..inline.addr.1 to i8**, !dbg !6375
	store i8*  %7, i8**  %8, align 8, !tbaa !4079, !dbg !6375
	%9 = load %struct._ZN5vmesh14MeshParametersE*, %struct._ZN5vmesh14MeshParametersE** %..inline.addr, align 8, !tbaa !4079, !dbg !6375
	%10 = bitcast %struct._ZN5vmesh14MeshParametersE*  %9 to i8*, !dbg !6375
	%11 = load %struct._ZN5vmesh14MeshParametersE*, %struct._ZN5vmesh14MeshParametersE** %..inline.addr.1, align 8, !tbaa !4079, !dbg !6375
	%12 = bitcast %struct._ZN5vmesh14MeshParametersE*  %11 to i8*, !dbg !6375
	%13 = icmp eq i8*  %10,  %12, !dbg !6375
	br i1  %13, label %L..inline.74857, label %L.B1559, !dbg !6375
L.B1559:
	%14 = bitcast %struct._ZN5vmesh14MeshParametersE*  %9 to i8*, !dbg !6375
	%15 = bitcast %struct._ZN5vmesh14MeshParametersE*  %11 to i8*, !dbg !6375
	%16 = ptrtoint i8*  %14 to i64, !dbg !6375
	%17 = sub i64 0,  %16, !dbg !6375
	%18 = getelementptr i8, i8*  %15, i64  %17, !dbg !6375
	%19 = ptrtoint i8*  %18 to i64, !dbg !6375
	%20 = add i64  %19, 335, !dbg !6375
	%21 = sub i64 0,  %16, !dbg !6375
	%22 = getelementptr i8, i8*  %15, i64  %21, !dbg !6375
	%23 = ptrtoint i8*  %22 to i64, !dbg !6375
	%24 = add i64  %23, 335, !dbg !6375
	%25 = sext i64 -4392081922311798003 to i128, !dbg !6375
	%26 = sext i64  %24 to i128, !dbg !6375
	%27 = mul i128  %25,  %26, !dbg !6375
	%28 = ashr i128  %27, 64, !dbg !6375
	%29 = trunc i128  %28 to i64, !dbg !6375
	%30 = add i64  %20,  %29, !dbg !6375
	%31 = sext i32 8 to i64, !dbg !6375
	%32 = ashr i64  %30,  %31, !dbg !6375
	%33 = sub i64 0,  %16, !dbg !6375
	%34 = getelementptr i8, i8*  %15, i64  %33, !dbg !6375
	%35 = ptrtoint i8*  %34 to i64, !dbg !6375
	%36 = add i64  %35, 335, !dbg !6375
	%37 = sext i32 63 to i64, !dbg !6375
	%38 = ashr i64  %36,  %37, !dbg !6375
	%39 = sub i64  %32,  %38, !dbg !6375
	%40 = mul i64  %39, 336, !dbg !6375
	%41 = getelementptr i8, i8*  %14, i64  %40, !dbg !6375
	store i8*  %41, i8** %.lcr4494209.addr, align 8, !tbaa !4079, !dbg !6375
	br label %L..inline.74856
L..inline.74856:
	%42 = load %struct._ZN5vmesh14MeshParametersE*, %struct._ZN5vmesh14MeshParametersE** %..inline.addr, align 8, !tbaa !4079, !dbg !6375
	%43 = bitcast %struct._ZN5vmesh14MeshParametersE*  %42 to i8*, !dbg !6375
	%44 = bitcast %struct._ZN5vmesh14MeshParametersE** %..inline.addr.2 to i8**, !dbg !6375
	store i8*  %43, i8**  %44, align 8, !tbaa !4079, !dbg !6375
	%45 = load %struct._ZN5vmesh14MeshParametersE*, %struct._ZN5vmesh14MeshParametersE** %..inline.addr.2, align 8, !tbaa !4079, !dbg !6375
	call void  @_ZN5vmesh14MeshParametersD1Ev (%struct._ZN5vmesh14MeshParametersE*  %45) nounwind, !dbg !6375
	%46 = load %struct._ZN5vmesh14MeshParametersE*, %struct._ZN5vmesh14MeshParametersE** %..inline.addr, align 8, !tbaa !4079, !dbg !6375
	%47 = bitcast %struct._ZN5vmesh14MeshParametersE*  %46 to i8*, !dbg !6375
	%48 = getelementptr i8, i8*  %47, i64 336, !dbg !6375
	%49 = bitcast %struct._ZN5vmesh14MeshParametersE** %..inline.addr to i8**, !dbg !6375
	store i8*  %48, i8**  %49, align 8, !tbaa !4079, !dbg !6375
	%50 = load %struct._ZN5vmesh14MeshParametersE*, %struct._ZN5vmesh14MeshParametersE** %..inline.addr, align 8, !tbaa !4079, !dbg !6375
	%51 = bitcast %struct._ZN5vmesh14MeshParametersE*  %50 to i8*, !dbg !6375
	%52 = load i8*, i8** %.lcr4494209.addr, align 8, !tbaa !4079, !dbg !6375
	%53 = icmp ult i8*  %51,  %52, !dbg !6375
	br i1  %53, label %L..inline.74856, label %L..inline.74857, !dbg !6375
L..inline.74857:
	%54 = load %struct._ZSt6vectorIN5vmesh14MeshParametersESaIS1_EE*, %struct._ZSt6vectorIN5vmesh14MeshParametersESaIS1_EE** %_T39440608_53191.addr, align 8, !tbaa !4079, !dbg !6376
	%55 = bitcast %struct._ZSt6vectorIN5vmesh14MeshParametersESaIS1_EE*  %54 to i8*, !dbg !6376
	%56 = bitcast %struct._ZSt12_Vector_baseIN5vmesh14MeshParametersESaIS1_EE** %..inline.addr.3 to i8**, !dbg !6376
	store i8*  %55, i8**  %56, align 8, !tbaa !4079, !dbg !6376
	%57 = load %struct._ZSt12_Vector_baseIN5vmesh14MeshParametersESaIS1_EE*, %struct._ZSt12_Vector_baseIN5vmesh14MeshParametersESaIS1_EE** %..inline.addr.3, align 8, !tbaa !4079, !dbg !6377
	%58 = bitcast %struct._ZSt12_Vector_baseIN5vmesh14MeshParametersESaIS1_EE*  %57 to i8**, !dbg !6377
	%59 = load i8*, i8**  %58, align 8, !tbaa !4079, !dbg !6377
	%60 = icmp eq i8*  %59,  null, !dbg !6377
	br i1  %60, label %L..inline.74889, label %L.B1560, !dbg !6377
L.B1560:
	%61 = bitcast %struct._ZSt12_Vector_baseIN5vmesh14MeshParametersESaIS1_EE*  %57 to i8**, !dbg !6377
	%62 = load i8*, i8**  %61, align 8, !tbaa !4079, !dbg !6377
	%63 = bitcast %struct._ZN5vmesh14MeshParametersE** %..inline.addr.4 to i8**, !dbg !6377
	store i8*  %62, i8**  %63, align 8, !tbaa !4079, !dbg !6377
	%64 = load %struct._ZN5vmesh14MeshParametersE*, %struct._ZN5vmesh14MeshParametersE** %..inline.addr.4, align 8, !tbaa !4079, !dbg !6377
	%65 = bitcast %struct._ZN5vmesh14MeshParametersE*  %64 to i8*, !dbg !6377
	call void  @_ZdlPv (i8*  %65) nounwind, !dbg !6377
	br label %L..inline.74889
L..inline.74889:
	ret void, !dbg !6376
}
define linkonce_odr void @_ZNSt6vectorIN5vmesh14MeshParametersESaIS1_EED2Ev(%struct._ZSt6vectorIN5vmesh14MeshParametersESaIS1_EE* %_T39440608_53192.arg) #0 inlinehint !dbg !6379 {
L.entry:
	%_T39440608_53192.addr = alloca %struct._ZSt6vectorIN5vmesh14MeshParametersESaIS1_EE*, align 8
	%..inline.addr = alloca %struct._ZSt6vectorIN5vmesh14MeshParametersESaIS1_EE*, align 8
	%..inline.addr.1 = alloca %struct._ZN5vmesh14MeshParametersE*, align 8
	%..inline.addr.2 = alloca %struct._ZN5vmesh14MeshParametersE*, align 8
	%.lcr4495233.addr = alloca i8*, align 8
	%..inline.addr.3 = alloca %struct._ZN5vmesh14MeshParametersE*, align 8
	%..inline.addr.4 = alloca %struct._ZN5vmesh14MeshParametersE*, align 8

	store %struct._ZSt6vectorIN5vmesh14MeshParametersESaIS1_EE* %_T39440608_53192.arg, %struct._ZSt6vectorIN5vmesh14MeshParametersESaIS1_EE** %_T39440608_53192.addr, align 8, !tbaa !4079
	%0 = load %struct._ZSt6vectorIN5vmesh14MeshParametersESaIS1_EE*, %struct._ZSt6vectorIN5vmesh14MeshParametersESaIS1_EE** %_T39440608_53192.addr, align 8, !tbaa !4079, !dbg !6443
	%1 = bitcast %struct._ZSt6vectorIN5vmesh14MeshParametersESaIS1_EE*  %0 to i8*, !dbg !6443
	%2 = bitcast %struct._ZSt6vectorIN5vmesh14MeshParametersESaIS1_EE** %..inline.addr to i8**, !dbg !6443
	store i8*  %1, i8**  %2, align 8, !tbaa !4079, !dbg !6443
	%3 = load %struct._ZSt6vectorIN5vmesh14MeshParametersESaIS1_EE*, %struct._ZSt6vectorIN5vmesh14MeshParametersESaIS1_EE** %..inline.addr, align 8, !tbaa !4079, !dbg !6444
	%4 = bitcast %struct._ZSt6vectorIN5vmesh14MeshParametersESaIS1_EE*  %3 to i8**, !dbg !6444
	%5 = load i8*, i8**  %4, align 8, !tbaa !4079, !dbg !6444
	%6 = bitcast %struct._ZN5vmesh14MeshParametersE** %..inline.addr.1 to i8**, !dbg !6444
	store i8*  %5, i8**  %6, align 8, !tbaa !4079, !dbg !6444
	%7 = bitcast %struct._ZSt6vectorIN5vmesh14MeshParametersESaIS1_EE*  %3 to i8*, !dbg !6444
	%8 = getelementptr i8, i8*  %7, i64 8, !dbg !6444
	%9 = bitcast i8*  %8 to i8**, !dbg !6444
	%10 = load i8*, i8**  %9, align 8, !tbaa !4079, !dbg !6444
	%11 = bitcast %struct._ZN5vmesh14MeshParametersE** %..inline.addr.2 to i8**, !dbg !6444
	store i8*  %10, i8**  %11, align 8, !tbaa !4079, !dbg !6444
	%12 = load %struct._ZN5vmesh14MeshParametersE*, %struct._ZN5vmesh14MeshParametersE** %..inline.addr.1, align 8, !tbaa !4079, !dbg !6444
	%13 = bitcast %struct._ZN5vmesh14MeshParametersE*  %12 to i8*, !dbg !6444
	%14 = load %struct._ZN5vmesh14MeshParametersE*, %struct._ZN5vmesh14MeshParametersE** %..inline.addr.2, align 8, !tbaa !4079, !dbg !6444
	%15 = bitcast %struct._ZN5vmesh14MeshParametersE*  %14 to i8*, !dbg !6444
	%16 = icmp eq i8*  %13,  %15, !dbg !6444
	br i1  %16, label %L..inline.74988, label %L.B1563, !dbg !6444
L.B1563:
	%17 = bitcast %struct._ZN5vmesh14MeshParametersE*  %12 to i8*, !dbg !6444
	%18 = bitcast %struct._ZN5vmesh14MeshParametersE*  %14 to i8*, !dbg !6444
	%19 = ptrtoint i8*  %17 to i64, !dbg !6444
	%20 = sub i64 0,  %19, !dbg !6444
	%21 = getelementptr i8, i8*  %18, i64  %20, !dbg !6444
	%22 = ptrtoint i8*  %21 to i64, !dbg !6444
	%23 = add i64  %22, 335, !dbg !6444
	%24 = sub i64 0,  %19, !dbg !6444
	%25 = getelementptr i8, i8*  %18, i64  %24, !dbg !6444
	%26 = ptrtoint i8*  %25 to i64, !dbg !6444
	%27 = add i64  %26, 335, !dbg !6444
	%28 = sext i64 -4392081922311798003 to i128, !dbg !6444
	%29 = sext i64  %27 to i128, !dbg !6444
	%30 = mul i128  %28,  %29, !dbg !6444
	%31 = ashr i128  %30, 64, !dbg !6444
	%32 = trunc i128  %31 to i64, !dbg !6444
	%33 = add i64  %23,  %32, !dbg !6444
	%34 = sext i32 8 to i64, !dbg !6444
	%35 = ashr i64  %33,  %34, !dbg !6444
	%36 = sub i64 0,  %19, !dbg !6444
	%37 = getelementptr i8, i8*  %18, i64  %36, !dbg !6444
	%38 = ptrtoint i8*  %37 to i64, !dbg !6444
	%39 = add i64  %38, 335, !dbg !6444
	%40 = sext i32 63 to i64, !dbg !6444
	%41 = ashr i64  %39,  %40, !dbg !6444
	%42 = sub i64  %35,  %41, !dbg !6444
	%43 = mul i64  %42, 336, !dbg !6444
	%44 = getelementptr i8, i8*  %17, i64  %43, !dbg !6444
	store i8*  %44, i8** %.lcr4495233.addr, align 8, !tbaa !4079, !dbg !6444
	br label %L..inline.74987
L..inline.74987:
	%45 = load %struct._ZN5vmesh14MeshParametersE*, %struct._ZN5vmesh14MeshParametersE** %..inline.addr.1, align 8, !tbaa !4079, !dbg !6444
	%46 = bitcast %struct._ZN5vmesh14MeshParametersE*  %45 to i8*, !dbg !6444
	%47 = bitcast %struct._ZN5vmesh14MeshParametersE** %..inline.addr.3 to i8**, !dbg !6444
	store i8*  %46, i8**  %47, align 8, !tbaa !4079, !dbg !6444
	%48 = load %struct._ZN5vmesh14MeshParametersE*, %struct._ZN5vmesh14MeshParametersE** %..inline.addr.3, align 8, !tbaa !4079, !dbg !6444
	call void  @_ZN5vmesh14MeshParametersD1Ev (%struct._ZN5vmesh14MeshParametersE*  %48) nounwind, !dbg !6444
	%49 = load %struct._ZN5vmesh14MeshParametersE*, %struct._ZN5vmesh14MeshParametersE** %..inline.addr.1, align 8, !tbaa !4079, !dbg !6444
	%50 = bitcast %struct._ZN5vmesh14MeshParametersE*  %49 to i8*, !dbg !6444
	%51 = getelementptr i8, i8*  %50, i64 336, !dbg !6444
	%52 = bitcast %struct._ZN5vmesh14MeshParametersE** %..inline.addr.1 to i8**, !dbg !6444
	store i8*  %51, i8**  %52, align 8, !tbaa !4079, !dbg !6444
	%53 = load %struct._ZN5vmesh14MeshParametersE*, %struct._ZN5vmesh14MeshParametersE** %..inline.addr.1, align 8, !tbaa !4079, !dbg !6444
	%54 = bitcast %struct._ZN5vmesh14MeshParametersE*  %53 to i8*, !dbg !6444
	%55 = load i8*, i8** %.lcr4495233.addr, align 8, !tbaa !4079, !dbg !6444
	%56 = icmp ult i8*  %54,  %55, !dbg !6444
	br i1  %56, label %L..inline.74987, label %L..inline.74988, !dbg !6444
L..inline.74988:
	%57 = load %struct._ZSt6vectorIN5vmesh14MeshParametersESaIS1_EE*, %struct._ZSt6vectorIN5vmesh14MeshParametersESaIS1_EE** %..inline.addr, align 8, !tbaa !4079, !dbg !6445
	%58 = bitcast %struct._ZSt6vectorIN5vmesh14MeshParametersESaIS1_EE*  %57 to i8**, !dbg !6445
	%59 = load i8*, i8**  %58, align 8, !tbaa !4079, !dbg !6445
	%60 = icmp eq i8*  %59,  null, !dbg !6445
	br i1  %60, label %L..inline.75018, label %L.B1564, !dbg !6445
L.B1564:
	%61 = bitcast %struct._ZSt6vectorIN5vmesh14MeshParametersESaIS1_EE*  %57 to i8**, !dbg !6445
	%62 = load i8*, i8**  %61, align 8, !tbaa !4079, !dbg !6445
	%63 = bitcast %struct._ZN5vmesh14MeshParametersE** %..inline.addr.4 to i8**, !dbg !6445
	store i8*  %62, i8**  %63, align 8, !tbaa !4079, !dbg !6445
	%64 = load %struct._ZN5vmesh14MeshParametersE*, %struct._ZN5vmesh14MeshParametersE** %..inline.addr.4, align 8, !tbaa !4079, !dbg !6445
	%65 = bitcast %struct._ZN5vmesh14MeshParametersE*  %64 to i8*, !dbg !6445
	call void  @_ZdlPv (i8*  %65) nounwind, !dbg !6445
	br label %L..inline.75018
L..inline.75018:
	ret void, !dbg !6445
}

%struct._ZNSt12_Vector_baseIN7species7SpeciesESaIS1_EE17_Vector_impl_dataE = type <{ %struct._ZN7species7SpeciesE*, %struct._ZN7species7SpeciesE*, %struct._ZN7species7SpeciesE*}> 
%struct._ZSt12_Vector_baseIN7species7SpeciesESaIS1_EE = type <{ %struct._ZNSt12_Vector_baseIN7species7SpeciesESaIS1_EE12_Vector_implE}> 
%struct._ZSt6vectorIN7species7SpeciesESaIS1_EE = type <{ %struct._ZSt12_Vector_baseIN7species7SpeciesESaIS1_EE}> 
%struct._ZN7species7SpeciesE = type <{ %struct._ZNSt7__cxx1112basic_stringIcSt11char_traitsIcESaIcEEE, double, double, double, i64, i32, i8, [3 x i8], i32, [4 x i8], double, double, double, double, double, %struct._ZSt5arrayIdLm3EE, double, double, double, double, i32, [4 x i8], double, double, double}> 
%struct._ZNSt12_Vector_baseIN7species7SpeciesESaIS1_EE12_Vector_implE = type <{ %struct._ZNSt12_Vector_baseIN7species7SpeciesESaIS1_EE17_Vector_impl_dataE}> 

define linkonce_odr i64 @_ZNKSt6vectorIN7species7SpeciesESaIS1_EE4sizeEv(%struct._ZSt6vectorIN7species7SpeciesESaIS1_EE* %_T39440608_53194.arg) #0 inlinehint !dbg !6450 {
L.entry:
	%_T39440608_53194.addr = alloca %struct._ZSt6vectorIN7species7SpeciesESaIS1_EE*, align 8
	%_T39441496_53194.addr = alloca i64, align 8

	call void @llvm.dbg.declare (metadata %struct._ZSt6vectorIN7species7SpeciesESaIS1_EE** %_T39440608_53194.addr, metadata !6454, metadata !4071), !dbg !6451
	store %struct._ZSt6vectorIN7species7SpeciesESaIS1_EE* %_T39440608_53194.arg, %struct._ZSt6vectorIN7species7SpeciesESaIS1_EE** %_T39440608_53194.addr, align 8, !tbaa !4079
	call void @llvm.dbg.declare (metadata %struct._ZSt6vectorIN7species7SpeciesESaIS1_EE** %_T39440608_53194.addr, metadata !6455, metadata !4071), !dbg !6451
	%0 = load %struct._ZSt6vectorIN7species7SpeciesESaIS1_EE*, %struct._ZSt6vectorIN7species7SpeciesESaIS1_EE** %_T39440608_53194.addr, align 8, !tbaa !4079, !dbg !6456
	%1 = bitcast %struct._ZSt6vectorIN7species7SpeciesESaIS1_EE*  %0 to i8*, !dbg !6456
	%2 = getelementptr i8, i8*  %1, i64 8, !dbg !6456
	%3 = bitcast i8*  %2 to i8**, !dbg !6456
	%4 = load i8*, i8**  %3, align 8, !tbaa !4079, !dbg !6456
	%5 = bitcast %struct._ZSt6vectorIN7species7SpeciesESaIS1_EE*  %0 to i8**, !dbg !6456
	%6 = load i8*, i8**  %5, align 8, !tbaa !4079, !dbg !6456
	%7 = ptrtoint i8*  %6 to i64, !dbg !6456
	%8 = sub i64 0,  %7, !dbg !6456
	%9 = getelementptr i8, i8*  %4, i64  %8, !dbg !6456
	%10 = ptrtoint i8*  %9 to i64, !dbg !6456
	%11 = sext i64 5675921253449092805 to i128, !dbg !6456
	%12 = sext i64  %10 to i128, !dbg !6456
	%13 = mul i128  %11,  %12, !dbg !6456
	%14 = ashr i128  %13, 64, !dbg !6456
	%15 = trunc i128  %14 to i64, !dbg !6456
	%16 = sext i32 6 to i64, !dbg !6456
	%17 = ashr i64  %15,  %16, !dbg !6456
	%18 = sub i64 0,  %7, !dbg !6456
	%19 = getelementptr i8, i8*  %4, i64  %18, !dbg !6456
	%20 = ptrtoint i8*  %19 to i64, !dbg !6456
	%21 = sext i32 63 to i64, !dbg !6456
	%22 = ashr i64  %20,  %21, !dbg !6456
	%23 = sub i64  %17,  %22, !dbg !6456
	ret i64  %23, !dbg !6456
}

%struct._ZSt26linear_congruential_engineImLm16807ELm0ELm2147483647EE = type <{ i64}> 

define linkonce_odr void @_ZNSt26linear_congruential_engineImLm16807ELm0ELm2147483647EEC1Ev(%struct._ZSt26linear_congruential_engineImLm16807ELm0ELm2147483647EE* %_T39440792_53195.arg) #0 inlinehint !dbg !6463 {
L.entry:
	%_T39440792_53195.addr = alloca %struct._ZSt26linear_congruential_engineImLm16807ELm0ELm2147483647EE*, align 8
	%..inline.addr = alloca i64, align 8
	%..inline.addr.1 = alloca i64, align 8
	%..inline.addr.2 = alloca i64, align 8

	call void @llvm.dbg.declare (metadata %struct._ZSt26linear_congruential_engineImLm16807ELm0ELm2147483647EE** %_T39440792_53195.addr, metadata !6499, metadata !4071), !dbg !6464
	store %struct._ZSt26linear_congruential_engineImLm16807ELm0ELm2147483647EE* %_T39440792_53195.arg, %struct._ZSt26linear_congruential_engineImLm16807ELm0ELm2147483647EE** %_T39440792_53195.addr, align 8, !tbaa !4079
	call void @llvm.dbg.declare (metadata %struct._ZSt26linear_congruential_engineImLm16807ELm0ELm2147483647EE** %_T39440792_53195.addr, metadata !6500, metadata !4071), !dbg !6464
	%0 = zext i64 8589934597 to i128, !dbg !6501
	%1 = zext i64 0 to i128, !dbg !6501
	%2 = mul i128  %0,  %1, !dbg !6501
	%3 = lshr i128  %2, 64, !dbg !6501
	%4 = trunc i128  %3 to i64, !dbg !6501
	%5 = zext i64 8589934597 to i128, !dbg !6501
	%6 = zext i64 0 to i128, !dbg !6501
	%7 = mul i128  %5,  %6, !dbg !6501
	%8 = lshr i128  %7, 64, !dbg !6501
	%9 = trunc i128  %8 to i64, !dbg !6501
	%10 = sub i64 0,  %9, !dbg !6501
	%11 = sext i32 1 to i64, !dbg !6501
	%12 = lshr i64  %10,  %11, !dbg !6501
	%13 = add i64  %4,  %12, !dbg !6501
	%14 = sext i32 30 to i64, !dbg !6501
	%15 = lshr i64  %13,  %14, !dbg !6501
	%16 = mul i64  %15, -2147483647, !dbg !6501
	%17 = icmp ne i64  %16, 0, !dbg !6501
	br i1  %17, label %L..inline.75119, label %L.B1567, !dbg !6501
L.B1567:
	%18 = zext i64 8589934597 to i128, !dbg !6501
	%19 = zext i64 1 to i128, !dbg !6501
	%20 = mul i128  %18,  %19, !dbg !6501
	%21 = lshr i128  %20, 64, !dbg !6501
	%22 = trunc i128  %21 to i64, !dbg !6501
	%23 = zext i64 8589934597 to i128, !dbg !6501
	%24 = zext i64 1 to i128, !dbg !6501
	%25 = mul i128  %23,  %24, !dbg !6501
	%26 = lshr i128  %25, 64, !dbg !6501
	%27 = trunc i128  %26 to i64, !dbg !6501
	%28 = sub i64 1,  %27, !dbg !6501
	%29 = sext i32 1 to i64, !dbg !6501
	%30 = lshr i64  %28,  %29, !dbg !6501
	%31 = add i64  %22,  %30, !dbg !6501
	%32 = sext i32 30 to i64, !dbg !6501
	%33 = lshr i64  %31,  %32, !dbg !6501
	%34 = mul i64  %33, 2147483647, !dbg !6501
	%35 = sub i64 1,  %34, !dbg !6501
	%36 = icmp ne i64  %35, 0, !dbg !6501
	br i1  %36, label %L..inline.75119, label %L.B1568, !dbg !6501
L.B1568:
	%37 = load %struct._ZSt26linear_congruential_engineImLm16807ELm0ELm2147483647EE*, %struct._ZSt26linear_congruential_engineImLm16807ELm0ELm2147483647EE** %_T39440792_53195.addr, align 8, !tbaa !4079, !dbg !6501
	%38 = bitcast %struct._ZSt26linear_congruential_engineImLm16807ELm0ELm2147483647EE*  %37 to i64*, !dbg !6501
	store i64 1, i64*  %38, align 8, !tbaa !4078, !dbg !6501
	br label %L..inline.75134, !dbg !6501
L..inline.75119:
	%39 = zext i64 8589934597 to i128, !dbg !6501
	%40 = zext i64 1 to i128, !dbg !6501
	%41 = mul i128  %39,  %40, !dbg !6501
	%42 = lshr i128  %41, 64, !dbg !6501
	%43 = trunc i128  %42 to i64, !dbg !6501
	%44 = zext i64 8589934597 to i128, !dbg !6501
	%45 = zext i64 1 to i128, !dbg !6501
	%46 = mul i128  %44,  %45, !dbg !6501
	%47 = lshr i128  %46, 64, !dbg !6501
	%48 = trunc i128  %47 to i64, !dbg !6501
	%49 = sub i64 1,  %48, !dbg !6501
	%50 = sext i32 1 to i64, !dbg !6501
	%51 = lshr i64  %49,  %50, !dbg !6501
	%52 = add i64  %43,  %51, !dbg !6501
	%53 = sext i32 30 to i64, !dbg !6501
	%54 = lshr i64  %52,  %53, !dbg !6501
	%55 = mul i64  %54, 2147483647, !dbg !6501
	%56 = sub i64 1,  %55, !dbg !6501
	%57 = load %struct._ZSt26linear_congruential_engineImLm16807ELm0ELm2147483647EE*, %struct._ZSt26linear_congruential_engineImLm16807ELm0ELm2147483647EE** %_T39440792_53195.addr, align 8, !tbaa !4079, !dbg !6501
	%58 = bitcast %struct._ZSt26linear_congruential_engineImLm16807ELm0ELm2147483647EE*  %57 to i64*, !dbg !6501
	store i64  %56, i64*  %58, align 8, !tbaa !4078, !dbg !6501
	br label %L..inline.75134
L..inline.75134:
	ret void, !dbg !6502
}
define linkonce_odr void @_ZNSt26linear_congruential_engineImLm16807ELm0ELm2147483647EEC2Ev(%struct._ZSt26linear_congruential_engineImLm16807ELm0ELm2147483647EE* %_T39440608_53196.arg) #0 inlinehint !dbg !6504 {
L.entry:
	%_T39440608_53196.addr = alloca %struct._ZSt26linear_congruential_engineImLm16807ELm0ELm2147483647EE*, align 8
	%..inline.addr = alloca i64, align 8
	%..inline.addr.1 = alloca i64, align 8
	%..inline.addr.2 = alloca i64, align 8

	store %struct._ZSt26linear_congruential_engineImLm16807ELm0ELm2147483647EE* %_T39440608_53196.arg, %struct._ZSt26linear_congruential_engineImLm16807ELm0ELm2147483647EE** %_T39440608_53196.addr, align 8, !tbaa !4079
	%0 = zext i64 8589934597 to i128, !dbg !6544
	%1 = zext i64 0 to i128, !dbg !6544
	%2 = mul i128  %0,  %1, !dbg !6544
	%3 = lshr i128  %2, 64, !dbg !6544
	%4 = trunc i128  %3 to i64, !dbg !6544
	%5 = zext i64 8589934597 to i128, !dbg !6544
	%6 = zext i64 0 to i128, !dbg !6544
	%7 = mul i128  %5,  %6, !dbg !6544
	%8 = lshr i128  %7, 64, !dbg !6544
	%9 = trunc i128  %8 to i64, !dbg !6544
	%10 = sub i64 0,  %9, !dbg !6544
	%11 = sext i32 1 to i64, !dbg !6544
	%12 = lshr i64  %10,  %11, !dbg !6544
	%13 = add i64  %4,  %12, !dbg !6544
	%14 = sext i32 30 to i64, !dbg !6544
	%15 = lshr i64  %13,  %14, !dbg !6544
	%16 = mul i64  %15, -2147483647, !dbg !6544
	%17 = icmp ne i64  %16, 0, !dbg !6544
	br i1  %17, label %L..inline.75206, label %L.B1571, !dbg !6544
L.B1571:
	%18 = zext i64 8589934597 to i128, !dbg !6544
	%19 = zext i64 1 to i128, !dbg !6544
	%20 = mul i128  %18,  %19, !dbg !6544
	%21 = lshr i128  %20, 64, !dbg !6544
	%22 = trunc i128  %21 to i64, !dbg !6544
	%23 = zext i64 8589934597 to i128, !dbg !6544
	%24 = zext i64 1 to i128, !dbg !6544
	%25 = mul i128  %23,  %24, !dbg !6544
	%26 = lshr i128  %25, 64, !dbg !6544
	%27 = trunc i128  %26 to i64, !dbg !6544
	%28 = sub i64 1,  %27, !dbg !6544
	%29 = sext i32 1 to i64, !dbg !6544
	%30 = lshr i64  %28,  %29, !dbg !6544
	%31 = add i64  %22,  %30, !dbg !6544
	%32 = sext i32 30 to i64, !dbg !6544
	%33 = lshr i64  %31,  %32, !dbg !6544
	%34 = mul i64  %33, 2147483647, !dbg !6544
	%35 = sub i64 1,  %34, !dbg !6544
	%36 = icmp ne i64  %35, 0, !dbg !6544
	br i1  %36, label %L..inline.75206, label %L.B1572, !dbg !6544
L.B1572:
	%37 = load %struct._ZSt26linear_congruential_engineImLm16807ELm0ELm2147483647EE*, %struct._ZSt26linear_congruential_engineImLm16807ELm0ELm2147483647EE** %_T39440608_53196.addr, align 8, !tbaa !4079, !dbg !6544
	%38 = bitcast %struct._ZSt26linear_congruential_engineImLm16807ELm0ELm2147483647EE*  %37 to i64*, !dbg !6544
	store i64 1, i64*  %38, align 8, !tbaa !4078, !dbg !6544
	br label %L..inline.75221, !dbg !6544
L..inline.75206:
	%39 = zext i64 8589934597 to i128, !dbg !6544
	%40 = zext i64 1 to i128, !dbg !6544
	%41 = mul i128  %39,  %40, !dbg !6544
	%42 = lshr i128  %41, 64, !dbg !6544
	%43 = trunc i128  %42 to i64, !dbg !6544
	%44 = zext i64 8589934597 to i128, !dbg !6544
	%45 = zext i64 1 to i128, !dbg !6544
	%46 = mul i128  %44,  %45, !dbg !6544
	%47 = lshr i128  %46, 64, !dbg !6544
	%48 = trunc i128  %47 to i64, !dbg !6544
	%49 = sub i64 1,  %48, !dbg !6544
	%50 = sext i32 1 to i64, !dbg !6544
	%51 = lshr i64  %49,  %50, !dbg !6544
	%52 = add i64  %43,  %51, !dbg !6544
	%53 = sext i32 30 to i64, !dbg !6544
	%54 = lshr i64  %52,  %53, !dbg !6544
	%55 = mul i64  %54, 2147483647, !dbg !6544
	%56 = sub i64 1,  %55, !dbg !6544
	%57 = load %struct._ZSt26linear_congruential_engineImLm16807ELm0ELm2147483647EE*, %struct._ZSt26linear_congruential_engineImLm16807ELm0ELm2147483647EE** %_T39440608_53196.addr, align 8, !tbaa !4079, !dbg !6544
	%58 = bitcast %struct._ZSt26linear_congruential_engineImLm16807ELm0ELm2147483647EE*  %57 to i64*, !dbg !6544
	store i64  %56, i64*  %58, align 8, !tbaa !4078, !dbg !6544
	br label %L..inline.75221
L..inline.75221:
	ret void, !dbg !6544
}
define linkonce_odr void @_ZNSt26linear_congruential_engineImLm16807ELm0ELm2147483647EEC1Em(%struct._ZSt26linear_congruential_engineImLm16807ELm0ELm2147483647EE* %_T39440608_53198.arg, i64 %__s.arg) #0 inlinehint !dbg !6548 {
L.entry:
	%_T39440608_53198.addr = alloca %struct._ZSt26linear_congruential_engineImLm16807ELm0ELm2147483647EE*, align 8
	%__s.addr = alloca i64, align 8
	%..inline.addr = alloca i64, align 8
	%..inline.addr.1 = alloca i64, align 8
	%..inline.addr.2 = alloca i64, align 8

	call void @llvm.dbg.declare (metadata %struct._ZSt26linear_congruential_engineImLm16807ELm0ELm2147483647EE** %_T39440608_53198.addr, metadata !6580, metadata !4071), !dbg !6549
	store %struct._ZSt26linear_congruential_engineImLm16807ELm0ELm2147483647EE* %_T39440608_53198.arg, %struct._ZSt26linear_congruential_engineImLm16807ELm0ELm2147483647EE** %_T39440608_53198.addr, align 8, !tbaa !4079
	call void @llvm.dbg.declare (metadata %struct._ZSt26linear_congruential_engineImLm16807ELm0ELm2147483647EE** %_T39440608_53198.addr, metadata !6581, metadata !4071), !dbg !6549
	call void @llvm.dbg.declare (metadata i64* %__s.addr, metadata !6582, metadata !4071), !dbg !6549
	store i64 %__s.arg, i64* %__s.addr, align 8, !tbaa !4078
	call void @llvm.dbg.declare (metadata i64* %__s.addr, metadata !6583, metadata !4071), !dbg !6549
	%0 = zext i64 8589934597 to i128, !dbg !6584
	%1 = zext i64 0 to i128, !dbg !6584
	%2 = mul i128  %0,  %1, !dbg !6584
	%3 = lshr i128  %2, 64, !dbg !6584
	%4 = trunc i128  %3 to i64, !dbg !6584
	%5 = zext i64 8589934597 to i128, !dbg !6584
	%6 = zext i64 0 to i128, !dbg !6584
	%7 = mul i128  %5,  %6, !dbg !6584
	%8 = lshr i128  %7, 64, !dbg !6584
	%9 = trunc i128  %8 to i64, !dbg !6584
	%10 = sub i64 0,  %9, !dbg !6584
	%11 = sext i32 1 to i64, !dbg !6584
	%12 = lshr i64  %10,  %11, !dbg !6584
	%13 = add i64  %4,  %12, !dbg !6584
	%14 = sext i32 30 to i64, !dbg !6584
	%15 = lshr i64  %13,  %14, !dbg !6584
	%16 = mul i64  %15, -2147483647, !dbg !6584
	%17 = icmp ne i64  %16, 0, !dbg !6584
	br i1  %17, label %L..inline.75281, label %L.B1575, !dbg !6584
L.B1575:
	%18 = load i64, i64* %__s.addr, align 8, !tbaa !4610, !dbg !6584
	%19 = zext i64 8589934597 to i128, !dbg !6584
	%20 = zext i64  %18 to i128, !dbg !6584
	%21 = mul i128  %19,  %20, !dbg !6584
	%22 = lshr i128  %21, 64, !dbg !6584
	%23 = trunc i128  %22 to i64, !dbg !6584
	%24 = zext i64 8589934597 to i128, !dbg !6584
	%25 = mul i128  %24,  %20, !dbg !6584
	%26 = lshr i128  %25, 64, !dbg !6584
	%27 = trunc i128  %26 to i64, !dbg !6584
	%28 = sub i64  %18,  %27, !dbg !6584
	%29 = sext i32 1 to i64, !dbg !6584
	%30 = lshr i64  %28,  %29, !dbg !6584
	%31 = add i64  %23,  %30, !dbg !6584
	%32 = sext i32 30 to i64, !dbg !6584
	%33 = lshr i64  %31,  %32, !dbg !6584
	%34 = mul i64  %33, 2147483647, !dbg !6584
	%35 = sub i64  %18,  %34, !dbg !6584
	%36 = icmp ne i64  %35, 0, !dbg !6584
	br i1  %36, label %L..inline.75281, label %L.B1576, !dbg !6584
L.B1576:
	%37 = load %struct._ZSt26linear_congruential_engineImLm16807ELm0ELm2147483647EE*, %struct._ZSt26linear_congruential_engineImLm16807ELm0ELm2147483647EE** %_T39440608_53198.addr, align 8, !tbaa !4079, !dbg !6584
	%38 = bitcast %struct._ZSt26linear_congruential_engineImLm16807ELm0ELm2147483647EE*  %37 to i64*, !dbg !6584
	store i64 1, i64*  %38, align 8, !tbaa !4078, !dbg !6584
	br label %L..inline.75298, !dbg !6585
L..inline.75281:
	%39 = load i64, i64* %__s.addr, align 8, !tbaa !4610, !dbg !6586
	%40 = zext i64 8589934597 to i128, !dbg !6586
	%41 = zext i64  %39 to i128, !dbg !6586
	%42 = mul i128  %40,  %41, !dbg !6586
	%43 = lshr i128  %42, 64, !dbg !6586
	%44 = trunc i128  %43 to i64, !dbg !6586
	%45 = zext i64 8589934597 to i128, !dbg !6586
	%46 = mul i128  %45,  %41, !dbg !6586
	%47 = lshr i128  %46, 64, !dbg !6586
	%48 = trunc i128  %47 to i64, !dbg !6586
	%49 = sub i64  %39,  %48, !dbg !6586
	%50 = sext i32 1 to i64, !dbg !6586
	%51 = lshr i64  %49,  %50, !dbg !6586
	%52 = add i64  %44,  %51, !dbg !6586
	%53 = sext i32 30 to i64, !dbg !6586
	%54 = lshr i64  %52,  %53, !dbg !6586
	%55 = mul i64  %54, 2147483647, !dbg !6586
	%56 = sub i64  %39,  %55, !dbg !6586
	%57 = load %struct._ZSt26linear_congruential_engineImLm16807ELm0ELm2147483647EE*, %struct._ZSt26linear_congruential_engineImLm16807ELm0ELm2147483647EE** %_T39440608_53198.addr, align 8, !tbaa !4079, !dbg !6586
	%58 = bitcast %struct._ZSt26linear_congruential_engineImLm16807ELm0ELm2147483647EE*  %57 to i64*, !dbg !6586
	store i64  %56, i64*  %58, align 8, !tbaa !4078, !dbg !6586
	br label %L..inline.75298
L..inline.75298:
	ret void, !dbg !6587
}
define linkonce_odr void @_ZNSt26linear_congruential_engineImLm16807ELm0ELm2147483647EEC2Em(%struct._ZSt26linear_congruential_engineImLm16807ELm0ELm2147483647EE* %_T39440608_53200.arg, i64 %_T39440904_53200.arg) #0 inlinehint !dbg !6589 {
L.entry:
	%_T39440608_53200.addr = alloca %struct._ZSt26linear_congruential_engineImLm16807ELm0ELm2147483647EE*, align 8
	%_T39440904_53200.addr = alloca i64, align 8
	%..inline.addr = alloca i64, align 8
	%..inline.addr.1 = alloca i64, align 8
	%..inline.addr.2 = alloca i64, align 8

	store %struct._ZSt26linear_congruential_engineImLm16807ELm0ELm2147483647EE* %_T39440608_53200.arg, %struct._ZSt26linear_congruential_engineImLm16807ELm0ELm2147483647EE** %_T39440608_53200.addr, align 8, !tbaa !4079
	store i64 %_T39440904_53200.arg, i64* %_T39440904_53200.addr, align 8, !tbaa !4078
	%0 = zext i64 8589934597 to i128, !dbg !6625
	%1 = zext i64 0 to i128, !dbg !6625
	%2 = mul i128  %0,  %1, !dbg !6625
	%3 = lshr i128  %2, 64, !dbg !6625
	%4 = trunc i128  %3 to i64, !dbg !6625
	%5 = zext i64 8589934597 to i128, !dbg !6625
	%6 = zext i64 0 to i128, !dbg !6625
	%7 = mul i128  %5,  %6, !dbg !6625
	%8 = lshr i128  %7, 64, !dbg !6625
	%9 = trunc i128  %8 to i64, !dbg !6625
	%10 = sub i64 0,  %9, !dbg !6625
	%11 = sext i32 1 to i64, !dbg !6625
	%12 = lshr i64  %10,  %11, !dbg !6625
	%13 = add i64  %4,  %12, !dbg !6625
	%14 = sext i32 30 to i64, !dbg !6625
	%15 = lshr i64  %13,  %14, !dbg !6625
	%16 = mul i64  %15, -2147483647, !dbg !6625
	%17 = icmp ne i64  %16, 0, !dbg !6625
	br i1  %17, label %L..inline.75361, label %L.B1579, !dbg !6625
L.B1579:
	%18 = load i64, i64* %_T39440904_53200.addr, align 8, !tbaa !4610, !dbg !6625
	%19 = zext i64 8589934597 to i128, !dbg !6625
	%20 = zext i64  %18 to i128, !dbg !6625
	%21 = mul i128  %19,  %20, !dbg !6625
	%22 = lshr i128  %21, 64, !dbg !6625
	%23 = trunc i128  %22 to i64, !dbg !6625
	%24 = zext i64 8589934597 to i128, !dbg !6625
	%25 = mul i128  %24,  %20, !dbg !6625
	%26 = lshr i128  %25, 64, !dbg !6625
	%27 = trunc i128  %26 to i64, !dbg !6625
	%28 = sub i64  %18,  %27, !dbg !6625
	%29 = sext i32 1 to i64, !dbg !6625
	%30 = lshr i64  %28,  %29, !dbg !6625
	%31 = add i64  %23,  %30, !dbg !6625
	%32 = sext i32 30 to i64, !dbg !6625
	%33 = lshr i64  %31,  %32, !dbg !6625
	%34 = mul i64  %33, 2147483647, !dbg !6625
	%35 = sub i64  %18,  %34, !dbg !6625
	%36 = icmp ne i64  %35, 0, !dbg !6625
	br i1  %36, label %L..inline.75361, label %L.B1580, !dbg !6625
L.B1580:
	%37 = load %struct._ZSt26linear_congruential_engineImLm16807ELm0ELm2147483647EE*, %struct._ZSt26linear_congruential_engineImLm16807ELm0ELm2147483647EE** %_T39440608_53200.addr, align 8, !tbaa !4079, !dbg !6625
	%38 = bitcast %struct._ZSt26linear_congruential_engineImLm16807ELm0ELm2147483647EE*  %37 to i64*, !dbg !6625
	store i64 1, i64*  %38, align 8, !tbaa !4078, !dbg !6625
	br label %L..inline.75376, !dbg !6625
L..inline.75361:
	%39 = load i64, i64* %_T39440904_53200.addr, align 8, !tbaa !4610, !dbg !6625
	%40 = zext i64 8589934597 to i128, !dbg !6625
	%41 = zext i64  %39 to i128, !dbg !6625
	%42 = mul i128  %40,  %41, !dbg !6625
	%43 = lshr i128  %42, 64, !dbg !6625
	%44 = trunc i128  %43 to i64, !dbg !6625
	%45 = zext i64 8589934597 to i128, !dbg !6625
	%46 = mul i128  %45,  %41, !dbg !6625
	%47 = lshr i128  %46, 64, !dbg !6625
	%48 = trunc i128  %47 to i64, !dbg !6625
	%49 = sub i64  %39,  %48, !dbg !6625
	%50 = sext i32 1 to i64, !dbg !6625
	%51 = lshr i64  %49,  %50, !dbg !6625
	%52 = add i64  %44,  %51, !dbg !6625
	%53 = sext i32 30 to i64, !dbg !6625
	%54 = lshr i64  %52,  %53, !dbg !6625
	%55 = mul i64  %54, 2147483647, !dbg !6625
	%56 = sub i64  %39,  %55, !dbg !6625
	%57 = load %struct._ZSt26linear_congruential_engineImLm16807ELm0ELm2147483647EE*, %struct._ZSt26linear_congruential_engineImLm16807ELm0ELm2147483647EE** %_T39440608_53200.addr, align 8, !tbaa !4079, !dbg !6625
	%58 = bitcast %struct._ZSt26linear_congruential_engineImLm16807ELm0ELm2147483647EE*  %57 to i64*, !dbg !6625
	store i64  %56, i64*  %58, align 8, !tbaa !4078, !dbg !6625
	br label %L..inline.75376
L..inline.75376:
	ret void, !dbg !6625
}
define linkonce_odr void @_ZNSt26linear_congruential_engineImLm16807ELm0ELm2147483647EE4seedEm(%struct._ZSt26linear_congruential_engineImLm16807ELm0ELm2147483647EE* %_T39440792_53202.arg, i64 %__s.arg) #0 inlinehint !dbg !6629 {
L.entry:
	%_T39440792_53202.addr = alloca %struct._ZSt26linear_congruential_engineImLm16807ELm0ELm2147483647EE*, align 8
	%__s.addr = alloca i64, align 8
	%..inline.addr = alloca i64, align 8
	%..inline.addr.1 = alloca i64, align 8
	%..inline.addr.2 = alloca i64, align 8

	call void @llvm.dbg.declare (metadata %struct._ZSt26linear_congruential_engineImLm16807ELm0ELm2147483647EE** %_T39440792_53202.addr, metadata !6657, metadata !4071), !dbg !6630
	store %struct._ZSt26linear_congruential_engineImLm16807ELm0ELm2147483647EE* %_T39440792_53202.arg, %struct._ZSt26linear_congruential_engineImLm16807ELm0ELm2147483647EE** %_T39440792_53202.addr, align 8, !tbaa !4079
	call void @llvm.dbg.declare (metadata %struct._ZSt26linear_congruential_engineImLm16807ELm0ELm2147483647EE** %_T39440792_53202.addr, metadata !6658, metadata !4071), !dbg !6630
	call void @llvm.dbg.declare (metadata i64* %__s.addr, metadata !6659, metadata !4071), !dbg !6630
	store i64 %__s.arg, i64* %__s.addr, align 8, !tbaa !4078
	call void @llvm.dbg.declare (metadata i64* %__s.addr, metadata !6660, metadata !4071), !dbg !6630
	%0 = zext i64 8589934597 to i128, !dbg !6661
	%1 = zext i64 0 to i128, !dbg !6661
	%2 = mul i128  %0,  %1, !dbg !6661
	%3 = lshr i128  %2, 64, !dbg !6661
	%4 = trunc i128  %3 to i64, !dbg !6661
	%5 = zext i64 8589934597 to i128, !dbg !6661
	%6 = zext i64 0 to i128, !dbg !6661
	%7 = mul i128  %5,  %6, !dbg !6661
	%8 = lshr i128  %7, 64, !dbg !6661
	%9 = trunc i128  %8 to i64, !dbg !6661
	%10 = sub i64 0,  %9, !dbg !6661
	%11 = sext i32 1 to i64, !dbg !6661
	%12 = lshr i64  %10,  %11, !dbg !6661
	%13 = add i64  %4,  %12, !dbg !6661
	%14 = sext i32 30 to i64, !dbg !6661
	%15 = lshr i64  %13,  %14, !dbg !6661
	%16 = mul i64  %15, -2147483647, !dbg !6661
	%17 = icmp ne i64  %16, 0, !dbg !6661
	br i1  %17, label %L.B0023, label %L.B1587, !dbg !6661
L.B1587:
	%18 = load i64, i64* %__s.addr, align 8, !tbaa !4610, !dbg !6661
	%19 = zext i64 8589934597 to i128, !dbg !6661
	%20 = zext i64  %18 to i128, !dbg !6661
	%21 = mul i128  %19,  %20, !dbg !6661
	%22 = lshr i128  %21, 64, !dbg !6661
	%23 = trunc i128  %22 to i64, !dbg !6661
	%24 = zext i64 8589934597 to i128, !dbg !6661
	%25 = mul i128  %24,  %20, !dbg !6661
	%26 = lshr i128  %25, 64, !dbg !6661
	%27 = trunc i128  %26 to i64, !dbg !6661
	%28 = sub i64  %18,  %27, !dbg !6661
	%29 = sext i32 1 to i64, !dbg !6661
	%30 = lshr i64  %28,  %29, !dbg !6661
	%31 = add i64  %23,  %30, !dbg !6661
	%32 = sext i32 30 to i64, !dbg !6661
	%33 = lshr i64  %31,  %32, !dbg !6661
	%34 = mul i64  %33, 2147483647, !dbg !6661
	%35 = sub i64  %18,  %34, !dbg !6661
	%36 = icmp ne i64  %35, 0, !dbg !6661
	br i1  %36, label %L.B0023, label %L.B1588, !dbg !6661
L.B1588:
	%37 = load %struct._ZSt26linear_congruential_engineImLm16807ELm0ELm2147483647EE*, %struct._ZSt26linear_congruential_engineImLm16807ELm0ELm2147483647EE** %_T39440792_53202.addr, align 8, !tbaa !4079, !dbg !6662
	%38 = bitcast %struct._ZSt26linear_congruential_engineImLm16807ELm0ELm2147483647EE*  %37 to i64*, !dbg !6662
	store i64 1, i64*  %38, align 8, !tbaa !4078, !dbg !6662
	br label %L.B0024, !dbg !6662
L.B0023:
	%39 = load i64, i64* %__s.addr, align 8, !tbaa !4610, !dbg !6661
	%40 = zext i64 8589934597 to i128, !dbg !6661
	%41 = zext i64  %39 to i128, !dbg !6661
	%42 = mul i128  %40,  %41, !dbg !6661
	%43 = lshr i128  %42, 64, !dbg !6661
	%44 = trunc i128  %43 to i64, !dbg !6661
	%45 = zext i64 8589934597 to i128, !dbg !6661
	%46 = mul i128  %45,  %41, !dbg !6661
	%47 = lshr i128  %46, 64, !dbg !6661
	%48 = trunc i128  %47 to i64, !dbg !6661
	%49 = sub i64  %39,  %48, !dbg !6661
	%50 = sext i32 1 to i64, !dbg !6661
	%51 = lshr i64  %49,  %50, !dbg !6661
	%52 = add i64  %44,  %51, !dbg !6661
	%53 = sext i32 30 to i64, !dbg !6661
	%54 = lshr i64  %52,  %53, !dbg !6661
	%55 = mul i64  %54, 2147483647, !dbg !6661
	%56 = sub i64  %39,  %55, !dbg !6661
	%57 = load %struct._ZSt26linear_congruential_engineImLm16807ELm0ELm2147483647EE*, %struct._ZSt26linear_congruential_engineImLm16807ELm0ELm2147483647EE** %_T39440792_53202.addr, align 8, !tbaa !4079, !dbg !6661
	%58 = bitcast %struct._ZSt26linear_congruential_engineImLm16807ELm0ELm2147483647EE*  %57 to i64*, !dbg !6661
	store i64  %56, i64*  %58, align 8, !tbaa !4078, !dbg !6661
	br label %L.B0024
L.B0024:
	ret void, !dbg !6663
}

%struct._ZSaISt5arrayIdLm3EEE = type <{ [1 x i8]}> 

define linkonce_odr void @_ZNSaISt5arrayIdLm3EEED1Ev(%struct._ZSaISt5arrayIdLm3EEE* %_T39440608_53203.arg) #0 inlinehint !dbg !6668 {
L.entry:
	%_T39440608_53203.addr = alloca %struct._ZSaISt5arrayIdLm3EEE*, align 8

	call void @llvm.dbg.declare (metadata %struct._ZSaISt5arrayIdLm3EEE** %_T39440608_53203.addr, metadata !6672, metadata !4071), !dbg !6669
	store %struct._ZSaISt5arrayIdLm3EEE* %_T39440608_53203.arg, %struct._ZSaISt5arrayIdLm3EEE** %_T39440608_53203.addr, align 8, !tbaa !4079
	call void @llvm.dbg.declare (metadata %struct._ZSaISt5arrayIdLm3EEE** %_T39440608_53203.addr, metadata !6673, metadata !4071), !dbg !6669
	ret void, !dbg !6674
}
define linkonce_odr void @_ZNSaISt5arrayIdLm3EEED2Ev(%struct._ZSaISt5arrayIdLm3EEE* %_T39440608_53204.arg) #0 inlinehint !dbg !6676 {
L.entry:
	%_T39440608_53204.addr = alloca %struct._ZSaISt5arrayIdLm3EEE*, align 8

	store %struct._ZSaISt5arrayIdLm3EEE* %_T39440608_53204.arg, %struct._ZSaISt5arrayIdLm3EEE** %_T39440608_53204.addr, align 8, !tbaa !4079
	ret void, !dbg !6684
}
define linkonce_odr %struct._ZSt5arrayIdLm3EE* @_ZNSt16allocator_traitsISaISt5arrayIdLm3EEEE8allocateERS2_m(%struct._ZSaISt5arrayIdLm3EEE* %__a.arg, i64 %__n.arg) #0 inlinehint !dbg !6692 {
L.entry:
	%__a.addr = alloca %struct._ZSaISt5arrayIdLm3EEE*, align 8
	%__n.addr = alloca i64, align 8
	%..inline.addr = alloca i64, align 8
	%.Q0010.addr = alloca i8*, align 8

	call void @llvm.dbg.declare (metadata %struct._ZSaISt5arrayIdLm3EEE** %__a.addr, metadata !6704, metadata !4071), !dbg !6693
	store %struct._ZSaISt5arrayIdLm3EEE* %__a.arg, %struct._ZSaISt5arrayIdLm3EEE** %__a.addr, align 8, !tbaa !4079
	call void @llvm.dbg.declare (metadata %struct._ZSaISt5arrayIdLm3EEE** %__a.addr, metadata !6705, metadata !4071), !dbg !6693
	call void @llvm.dbg.declare (metadata i64* %__n.addr, metadata !6706, metadata !4071), !dbg !6693
	store i64 %__n.arg, i64* %__n.addr, align 8, !tbaa !4078
	call void @llvm.dbg.declare (metadata i64* %__n.addr, metadata !6707, metadata !4071), !dbg !6693
	%0 = load i64, i64* %__n.addr, align 8, !tbaa !4610, !dbg !6708
	store i64  %0, i64* %..inline.addr, align 8, !tbaa !4610, !dbg !6708
	%1 = icmp ule i64  %0, 768614336404564650, !dbg !6709
	br i1  %1, label %L..inline.75503, label %L.B1593, !dbg !6709
L.B1593:
	call void  @_ZSt17__throw_bad_allocv () noreturn, !dbg !6710
	br label %L..inline.75503
L..inline.75503:
	%2 = load i64, i64* %..inline.addr, align 8, !tbaa !4610, !dbg !6711
	%3 = mul i64  %2, 24, !dbg !6711
	%4 = call i8*  @_Znwm (i64  %3), !dbg !6711
	store i8*  %4, i8** %.Q0010.addr, align 8, !tbaa !4079, !dbg !6711
	%5 = bitcast i8*  %4 to %struct._ZSt5arrayIdLm3EE*, !dbg !6711
	ret %struct._ZSt5arrayIdLm3EE*  %5, !dbg !6711
}
define linkonce_odr void @_ZNSt16allocator_traitsISaISt5arrayIdLm3EEEE10deallocateERS2_PS1_m(%struct._ZSaISt5arrayIdLm3EEE* %__a.arg, %struct._ZSt5arrayIdLm3EE* %__p.arg, i64 %__n.arg) #0 inlinehint !dbg !6715 {
L.entry:
	%__a.addr = alloca %struct._ZSaISt5arrayIdLm3EEE*, align 8
	%__p.addr = alloca %struct._ZSt5arrayIdLm3EE*, align 8
	%__n.addr = alloca i64, align 8
	%..inline.addr = alloca %struct._ZSt5arrayIdLm3EE*, align 8

	call void @llvm.dbg.declare (metadata %struct._ZSaISt5arrayIdLm3EEE** %__a.addr, metadata !6723, metadata !4071), !dbg !6716
	store %struct._ZSaISt5arrayIdLm3EEE* %__a.arg, %struct._ZSaISt5arrayIdLm3EEE** %__a.addr, align 8, !tbaa !4079
	call void @llvm.dbg.declare (metadata %struct._ZSaISt5arrayIdLm3EEE** %__a.addr, metadata !6724, metadata !4071), !dbg !6716
	call void @llvm.dbg.declare (metadata %struct._ZSt5arrayIdLm3EE** %__p.addr, metadata !6725, metadata !4071), !dbg !6716
	store %struct._ZSt5arrayIdLm3EE* %__p.arg, %struct._ZSt5arrayIdLm3EE** %__p.addr, align 8, !tbaa !4079
	call void @llvm.dbg.declare (metadata %struct._ZSt5arrayIdLm3EE** %__p.addr, metadata !6726, metadata !4071), !dbg !6716
	call void @llvm.dbg.declare (metadata i64* %__n.addr, metadata !6727, metadata !4071), !dbg !6716
	store i64 %__n.arg, i64* %__n.addr, align 8, !tbaa !4078
	call void @llvm.dbg.declare (metadata i64* %__n.addr, metadata !6728, metadata !4071), !dbg !6716
	%0 = load %struct._ZSt5arrayIdLm3EE*, %struct._ZSt5arrayIdLm3EE** %__p.addr, align 8, !tbaa !4079, !dbg !6729
	%1 = bitcast %struct._ZSt5arrayIdLm3EE*  %0 to i8*, !dbg !6729
	%2 = bitcast %struct._ZSt5arrayIdLm3EE** %..inline.addr to i8**, !dbg !6729
	store i8*  %1, i8**  %2, align 8, !tbaa !4079, !dbg !6729
	%3 = load %struct._ZSt5arrayIdLm3EE*, %struct._ZSt5arrayIdLm3EE** %..inline.addr, align 8, !tbaa !4079, !dbg !6730
	%4 = bitcast %struct._ZSt5arrayIdLm3EE*  %3 to i8*, !dbg !6730
	call void  @_ZdlPv (i8*  %4) nounwind, !dbg !6730
	ret void, !dbg !6729
}
define linkonce_odr i64 @_ZNSt16allocator_traitsISaISt5arrayIdLm3EEEE8max_sizeERKS2_(%struct._ZSaISt5arrayIdLm3EEE* %__a.arg) #0 inlinehint !dbg !6738 {
L.entry:
	%__a.addr = alloca %struct._ZSaISt5arrayIdLm3EEE*, align 8

	call void @llvm.dbg.declare (metadata %struct._ZSaISt5arrayIdLm3EEE** %__a.addr, metadata !6746, metadata !4071), !dbg !6739
	store %struct._ZSaISt5arrayIdLm3EEE* %__a.arg, %struct._ZSaISt5arrayIdLm3EEE** %__a.addr, align 8, !tbaa !4079
	call void @llvm.dbg.declare (metadata %struct._ZSaISt5arrayIdLm3EEE** %__a.addr, metadata !6747, metadata !4071), !dbg !6739
	ret i64 768614336404564650, !dbg !6748
}
define linkonce_odr void @_ZNSt16allocator_traitsISaISt5arrayIdLm3EEEE9constructIS1_JRKS1_EEEvRS2_PT_DpOT0_(%struct._ZSaISt5arrayIdLm3EEE* %__a.arg, %struct._ZSt5arrayIdLm3EE* %__p.arg, %struct._ZSt5arrayIdLm3EE* %__args.arg) #0 inlinehint !dbg !6756 {
L.entry:
	%__a.addr = alloca %struct._ZSaISt5arrayIdLm3EEE*, align 8
	%__p.addr = alloca %struct._ZSt5arrayIdLm3EE*, align 8
	%__args.addr = alloca %struct._ZSt5arrayIdLm3EE*, align 8
	%..inline.addr = alloca %struct._ZSt5arrayIdLm3EE*, align 8
	%..inline.addr.1 = alloca %struct._ZSt5arrayIdLm3EE*, align 8

	call void @llvm.dbg.declare (metadata %struct._ZSaISt5arrayIdLm3EEE** %__a.addr, metadata !6776, metadata !4071), !dbg !6757
	store %struct._ZSaISt5arrayIdLm3EEE* %__a.arg, %struct._ZSaISt5arrayIdLm3EEE** %__a.addr, align 8, !tbaa !4079
	call void @llvm.dbg.declare (metadata %struct._ZSaISt5arrayIdLm3EEE** %__a.addr, metadata !6777, metadata !4071), !dbg !6757
	call void @llvm.dbg.declare (metadata %struct._ZSt5arrayIdLm3EE** %__p.addr, metadata !6778, metadata !4071), !dbg !6757
	store %struct._ZSt5arrayIdLm3EE* %__p.arg, %struct._ZSt5arrayIdLm3EE** %__p.addr, align 8, !tbaa !4079
	call void @llvm.dbg.declare (metadata %struct._ZSt5arrayIdLm3EE** %__p.addr, metadata !6779, metadata !4071), !dbg !6757
	call void @llvm.dbg.declare (metadata %struct._ZSt5arrayIdLm3EE** %__args.addr, metadata !6780, metadata !4071), !dbg !6757
	store %struct._ZSt5arrayIdLm3EE* %__args.arg, %struct._ZSt5arrayIdLm3EE** %__args.addr, align 8, !tbaa !4079
	call void @llvm.dbg.declare (metadata %struct._ZSt5arrayIdLm3EE** %__args.addr, metadata !6781, metadata !4071), !dbg !6757
	%0 = load %struct._ZSt5arrayIdLm3EE*, %struct._ZSt5arrayIdLm3EE** %__p.addr, align 8, !tbaa !4079, !dbg !6782
	%1 = bitcast %struct._ZSt5arrayIdLm3EE*  %0 to i8*, !dbg !6782
	%2 = bitcast %struct._ZSt5arrayIdLm3EE** %..inline.addr to i8**, !dbg !6782
	store i8*  %1, i8**  %2, align 8, !tbaa !4079, !dbg !6782
	%3 = load %struct._ZSt5arrayIdLm3EE*, %struct._ZSt5arrayIdLm3EE** %..inline.addr, align 8, !tbaa !4079, !dbg !6782
	%4 = bitcast %struct._ZSt5arrayIdLm3EE*  %3 to i8*, !dbg !6782
	%5 = icmp eq i8*  %4,  null, !dbg !6782
	br i1  %5, label %L..inline.75569, label %L.B1602, !dbg !6782
L.B1602:
	%6 = load %struct._ZSt5arrayIdLm3EE*, %struct._ZSt5arrayIdLm3EE** %__args.addr, align 8, !tbaa !4079, !dbg !6782
	%7 = bitcast %struct._ZSt5arrayIdLm3EE*  %6 to i8*, !dbg !6782
	%8 = bitcast %struct._ZSt5arrayIdLm3EE** %..inline.addr.1 to i8**, !dbg !6782
	store i8*  %7, i8**  %8, align 8, !tbaa !4079, !dbg !6782
	%9 = load %struct._ZSt5arrayIdLm3EE*, %struct._ZSt5arrayIdLm3EE** %..inline.addr.1, align 8, !tbaa !4079, !dbg !6783
	%10 = bitcast %struct._ZSt5arrayIdLm3EE*  %9 to i64*, !dbg !6783
	%11 = load i64, i64*  %10, align 8, !tbaa !4078, !dbg !6783
	%12 = bitcast %struct._ZSt5arrayIdLm3EE*  %3 to i64*, !dbg !6783
	store i64  %11, i64*  %12, align 8, !tbaa !4078, !dbg !6783
	%13 = bitcast i64*  %10 to i8*, !dbg !6783
	%14 = getelementptr i8, i8*  %13, i64 8, !dbg !6783
	%15 = bitcast i8*  %14 to i64*, !dbg !6783
	%16 = load i64, i64*  %15, align 8, !tbaa !4078, !dbg !6783
	%17 = bitcast i64*  %12 to i8*, !dbg !6783
	%18 = getelementptr i8, i8*  %17, i64 8, !dbg !6783
	%19 = bitcast i8*  %18 to i64*, !dbg !6783
	store i64  %16, i64*  %19, align 8, !tbaa !4078, !dbg !6783
	%20 = getelementptr i8, i8*  %13, i64 16, !dbg !6783
	%21 = bitcast i8*  %20 to i64*, !dbg !6783
	%22 = load i64, i64*  %21, align 8, !tbaa !4078, !dbg !6783
	%23 = getelementptr i8, i8*  %17, i64 16, !dbg !6783
	%24 = bitcast i8*  %23 to i64*, !dbg !6783
	store i64  %22, i64*  %24, align 8, !tbaa !4078, !dbg !6783
	br label %L..inline.75579, !dbg !6782
L..inline.75569:
	br label %L..inline.75579
L..inline.75579:
	ret void, !dbg !6783
}
define linkonce_odr void @_ZNSt16allocator_traitsISaISt5arrayIdLm3EEEE7destroyIS1_EEvRS2_PT_(%struct._ZSaISt5arrayIdLm3EEE* %__a.arg, %struct._ZSt5arrayIdLm3EE* %__p.arg) #0 inlinehint !dbg !6787 {
L.entry:
	%__a.addr = alloca %struct._ZSaISt5arrayIdLm3EEE*, align 8
	%__p.addr = alloca %struct._ZSt5arrayIdLm3EE*, align 8

	call void @llvm.dbg.declare (metadata %struct._ZSaISt5arrayIdLm3EEE** %__a.addr, metadata !6795, metadata !4071), !dbg !6788
	store %struct._ZSaISt5arrayIdLm3EEE* %__a.arg, %struct._ZSaISt5arrayIdLm3EEE** %__a.addr, align 8, !tbaa !4079
	call void @llvm.dbg.declare (metadata %struct._ZSaISt5arrayIdLm3EEE** %__a.addr, metadata !6796, metadata !4071), !dbg !6788
	call void @llvm.dbg.declare (metadata %struct._ZSt5arrayIdLm3EE** %__p.addr, metadata !6797, metadata !4071), !dbg !6788
	store %struct._ZSt5arrayIdLm3EE* %__p.arg, %struct._ZSt5arrayIdLm3EE** %__p.addr, align 8, !tbaa !4079
	call void @llvm.dbg.declare (metadata %struct._ZSt5arrayIdLm3EE** %__p.addr, metadata !6798, metadata !4071), !dbg !6788
	ret void, !dbg !6799
}
define linkonce_odr %struct._ZSaISt5arrayIdLm3EEE* @_ZNSt12_Vector_baseISt5arrayIdLm3EESaIS1_EE19_M_get_Tp_allocatorEv(%struct._ZSt12_Vector_baseISt5arrayIdLm3EESaIS1_EE* %_T39440608_53217.arg) #0 inlinehint !dbg !6805 {
L.entry:
	%_T39440608_53217.addr = alloca %struct._ZSt12_Vector_baseISt5arrayIdLm3EESaIS1_EE*, align 8

	call void @llvm.dbg.declare (metadata %struct._ZSt12_Vector_baseISt5arrayIdLm3EESaIS1_EE** %_T39440608_53217.addr, metadata !6809, metadata !4071), !dbg !6806
	store %struct._ZSt12_Vector_baseISt5arrayIdLm3EESaIS1_EE* %_T39440608_53217.arg, %struct._ZSt12_Vector_baseISt5arrayIdLm3EESaIS1_EE** %_T39440608_53217.addr, align 8, !tbaa !4079
	call void @llvm.dbg.declare (metadata %struct._ZSt12_Vector_baseISt5arrayIdLm3EESaIS1_EE** %_T39440608_53217.addr, metadata !6810, metadata !4071), !dbg !6806
	%0 = load %struct._ZSt12_Vector_baseISt5arrayIdLm3EESaIS1_EE*, %struct._ZSt12_Vector_baseISt5arrayIdLm3EESaIS1_EE** %_T39440608_53217.addr, align 8, !tbaa !4079, !dbg !6811
	%1 = bitcast %struct._ZSt12_Vector_baseISt5arrayIdLm3EESaIS1_EE*  %0 to %struct._ZSaISt5arrayIdLm3EEE*, !dbg !6811
	ret %struct._ZSaISt5arrayIdLm3EEE*  %1, !dbg !6811
}
define linkonce_odr %struct._ZSaISt5arrayIdLm3EEE* @_ZNKSt12_Vector_baseISt5arrayIdLm3EESaIS1_EE19_M_get_Tp_allocatorEv(%struct._ZSt12_Vector_baseISt5arrayIdLm3EESaIS1_EE* %_T39440608_53218.arg) #0 inlinehint !dbg !6813 {
L.entry:
	%_T39440608_53218.addr = alloca %struct._ZSt12_Vector_baseISt5arrayIdLm3EESaIS1_EE*, align 8

	call void @llvm.dbg.declare (metadata %struct._ZSt12_Vector_baseISt5arrayIdLm3EESaIS1_EE** %_T39440608_53218.addr, metadata !6817, metadata !4071), !dbg !6814
	store %struct._ZSt12_Vector_baseISt5arrayIdLm3EESaIS1_EE* %_T39440608_53218.arg, %struct._ZSt12_Vector_baseISt5arrayIdLm3EESaIS1_EE** %_T39440608_53218.addr, align 8, !tbaa !4079
	call void @llvm.dbg.declare (metadata %struct._ZSt12_Vector_baseISt5arrayIdLm3EESaIS1_EE** %_T39440608_53218.addr, metadata !6818, metadata !4071), !dbg !6814
	%0 = load %struct._ZSt12_Vector_baseISt5arrayIdLm3EESaIS1_EE*, %struct._ZSt12_Vector_baseISt5arrayIdLm3EESaIS1_EE** %_T39440608_53218.addr, align 8, !tbaa !4079, !dbg !6819
	%1 = bitcast %struct._ZSt12_Vector_baseISt5arrayIdLm3EESaIS1_EE*  %0 to %struct._ZSaISt5arrayIdLm3EEE*, !dbg !6819
	ret %struct._ZSaISt5arrayIdLm3EEE*  %1, !dbg !6819
}
define linkonce_odr void @_ZNSt12_Vector_baseISt5arrayIdLm3EESaIS1_EEC1Ev(%struct._ZSt12_Vector_baseISt5arrayIdLm3EESaIS1_EE* %_T39440608_53219.arg) #0 inlinehint !dbg !6823 {
L.entry:
	%_T39440608_53219.addr = alloca %struct._ZSt12_Vector_baseISt5arrayIdLm3EESaIS1_EE*, align 8
	%..inline.addr = alloca %struct._ZNSt12_Vector_baseISt5arrayIdLm3EESaIS1_EE17_Vector_impl_dataE*, align 8

	call void @llvm.dbg.declare (metadata %struct._ZSt12_Vector_baseISt5arrayIdLm3EESaIS1_EE** %_T39440608_53219.addr, metadata !6839, metadata !4071), !dbg !6824
	store %struct._ZSt12_Vector_baseISt5arrayIdLm3EESaIS1_EE* %_T39440608_53219.arg, %struct._ZSt12_Vector_baseISt5arrayIdLm3EESaIS1_EE** %_T39440608_53219.addr, align 8, !tbaa !4079
	call void @llvm.dbg.declare (metadata %struct._ZSt12_Vector_baseISt5arrayIdLm3EESaIS1_EE** %_T39440608_53219.addr, metadata !6840, metadata !4071), !dbg !6824
	%0 = load %struct._ZSt12_Vector_baseISt5arrayIdLm3EESaIS1_EE*, %struct._ZSt12_Vector_baseISt5arrayIdLm3EESaIS1_EE** %_T39440608_53219.addr, align 8, !tbaa !4079, !dbg !6841
	%1 = bitcast %struct._ZSt12_Vector_baseISt5arrayIdLm3EESaIS1_EE*  %0 to i8*, !dbg !6841
	%2 = bitcast %struct._ZNSt12_Vector_baseISt5arrayIdLm3EESaIS1_EE17_Vector_impl_dataE** %..inline.addr to i8**, !dbg !6841
	store i8*  %1, i8**  %2, align 8, !tbaa !4079, !dbg !6841
	%3 = load %struct._ZNSt12_Vector_baseISt5arrayIdLm3EESaIS1_EE17_Vector_impl_dataE*, %struct._ZNSt12_Vector_baseISt5arrayIdLm3EESaIS1_EE17_Vector_impl_dataE** %..inline.addr, align 8, !tbaa !4079, !dbg !6841
	%4 = bitcast %struct._ZNSt12_Vector_baseISt5arrayIdLm3EESaIS1_EE17_Vector_impl_dataE*  %3 to i8**, !dbg !6841
	store i8* null, i8**  %4, align 8, !tbaa !4079, !dbg !6841
	%5 = bitcast %struct._ZNSt12_Vector_baseISt5arrayIdLm3EESaIS1_EE17_Vector_impl_dataE*  %3 to i8*, !dbg !6841
	%6 = getelementptr i8, i8*  %5, i64 8, !dbg !6841
	%7 = bitcast i8*  %6 to i8**, !dbg !6841
	store i8* null, i8**  %7, align 8, !tbaa !4079, !dbg !6841
	%8 = getelementptr i8, i8*  %5, i64 16, !dbg !6841
	%9 = bitcast i8*  %8 to i8**, !dbg !6841
	store i8* null, i8**  %9, align 8, !tbaa !4079, !dbg !6841
	ret void, !dbg !6841
}
define linkonce_odr void @_ZNSt12_Vector_baseISt5arrayIdLm3EESaIS1_EEC2Ev(%struct._ZSt12_Vector_baseISt5arrayIdLm3EESaIS1_EE* %_T39440608_53220.arg) #0 inlinehint !dbg !6843 {
L.entry:
	%_T39440608_53220.addr = alloca %struct._ZSt12_Vector_baseISt5arrayIdLm3EESaIS1_EE*, align 8
	%..inline.addr = alloca %struct._ZNSt12_Vector_baseISt5arrayIdLm3EESaIS1_EE17_Vector_impl_dataE*, align 8

	store %struct._ZSt12_Vector_baseISt5arrayIdLm3EESaIS1_EE* %_T39440608_53220.arg, %struct._ZSt12_Vector_baseISt5arrayIdLm3EESaIS1_EE** %_T39440608_53220.addr, align 8, !tbaa !4079
	%0 = load %struct._ZSt12_Vector_baseISt5arrayIdLm3EESaIS1_EE*, %struct._ZSt12_Vector_baseISt5arrayIdLm3EESaIS1_EE** %_T39440608_53220.addr, align 8, !tbaa !4079, !dbg !6863
	%1 = bitcast %struct._ZSt12_Vector_baseISt5arrayIdLm3EESaIS1_EE*  %0 to i8*, !dbg !6863
	%2 = bitcast %struct._ZNSt12_Vector_baseISt5arrayIdLm3EESaIS1_EE17_Vector_impl_dataE** %..inline.addr to i8**, !dbg !6863
	store i8*  %1, i8**  %2, align 8, !tbaa !4079, !dbg !6863
	%3 = load %struct._ZNSt12_Vector_baseISt5arrayIdLm3EESaIS1_EE17_Vector_impl_dataE*, %struct._ZNSt12_Vector_baseISt5arrayIdLm3EESaIS1_EE17_Vector_impl_dataE** %..inline.addr, align 8, !tbaa !4079, !dbg !6863
	%4 = bitcast %struct._ZNSt12_Vector_baseISt5arrayIdLm3EESaIS1_EE17_Vector_impl_dataE*  %3 to i8**, !dbg !6863
	store i8* null, i8**  %4, align 8, !tbaa !4079, !dbg !6863
	%5 = bitcast %struct._ZNSt12_Vector_baseISt5arrayIdLm3EESaIS1_EE17_Vector_impl_dataE*  %3 to i8*, !dbg !6863
	%6 = getelementptr i8, i8*  %5, i64 8, !dbg !6863
	%7 = bitcast i8*  %6 to i8**, !dbg !6863
	store i8* null, i8**  %7, align 8, !tbaa !4079, !dbg !6863
	%8 = getelementptr i8, i8*  %5, i64 16, !dbg !6863
	%9 = bitcast i8*  %8 to i8**, !dbg !6863
	store i8* null, i8**  %9, align 8, !tbaa !4079, !dbg !6863
	ret void, !dbg !6863
}
define linkonce_odr void @_ZNSt12_Vector_baseISt5arrayIdLm3EESaIS1_EED1Ev(%struct._ZSt12_Vector_baseISt5arrayIdLm3EESaIS1_EE* %_T39440608_53221.arg) #0 inlinehint !dbg !6865 {
L.entry:
	%_T39440608_53221.addr = alloca %struct._ZSt12_Vector_baseISt5arrayIdLm3EESaIS1_EE*, align 8
	%..inline.addr = alloca %struct._ZSt5arrayIdLm3EE*, align 8

	call void @llvm.dbg.declare (metadata %struct._ZSt12_Vector_baseISt5arrayIdLm3EESaIS1_EE** %_T39440608_53221.addr, metadata !6893, metadata !4071), !dbg !6866
	store %struct._ZSt12_Vector_baseISt5arrayIdLm3EESaIS1_EE* %_T39440608_53221.arg, %struct._ZSt12_Vector_baseISt5arrayIdLm3EESaIS1_EE** %_T39440608_53221.addr, align 8, !tbaa !4079
	call void @llvm.dbg.declare (metadata %struct._ZSt12_Vector_baseISt5arrayIdLm3EESaIS1_EE** %_T39440608_53221.addr, metadata !6894, metadata !4071), !dbg !6866
	%0 = load %struct._ZSt12_Vector_baseISt5arrayIdLm3EESaIS1_EE*, %struct._ZSt12_Vector_baseISt5arrayIdLm3EESaIS1_EE** %_T39440608_53221.addr, align 8, !tbaa !4079, !dbg !6895
	%1 = bitcast %struct._ZSt12_Vector_baseISt5arrayIdLm3EESaIS1_EE*  %0 to i8**, !dbg !6895
	%2 = load i8*, i8**  %1, align 8, !tbaa !4079, !dbg !6895
	%3 = icmp eq i8*  %2,  null, !dbg !6895
	br i1  %3, label %L..inline.75675, label %L.B1613, !dbg !6895
L.B1613:
	%4 = bitcast %struct._ZSt12_Vector_baseISt5arrayIdLm3EESaIS1_EE*  %0 to i8**, !dbg !6896
	%5 = load i8*, i8**  %4, align 8, !tbaa !4079, !dbg !6896
	%6 = bitcast %struct._ZSt5arrayIdLm3EE** %..inline.addr to i8**, !dbg !6896
	store i8*  %5, i8**  %6, align 8, !tbaa !4079, !dbg !6896
	%7 = load %struct._ZSt5arrayIdLm3EE*, %struct._ZSt5arrayIdLm3EE** %..inline.addr, align 8, !tbaa !4079, !dbg !6896
	%8 = bitcast %struct._ZSt5arrayIdLm3EE*  %7 to i8*, !dbg !6896
	call void  @_ZdlPv (i8*  %8) nounwind, !dbg !6896
	br label %L..inline.75675
L..inline.75675:
	ret void, !dbg !6897
}
define linkonce_odr void @_ZNSt12_Vector_baseISt5arrayIdLm3EESaIS1_EED2Ev(%struct._ZSt12_Vector_baseISt5arrayIdLm3EESaIS1_EE* %_T39440608_53222.arg) #0 inlinehint !dbg !6899 {
L.entry:
	%_T39440608_53222.addr = alloca %struct._ZSt12_Vector_baseISt5arrayIdLm3EESaIS1_EE*, align 8
	%..inline.addr = alloca %struct._ZSt12_Vector_baseISt5arrayIdLm3EESaIS1_EE*, align 8
	%..inline.addr.1 = alloca %struct._ZSt5arrayIdLm3EE*, align 8

	store %struct._ZSt12_Vector_baseISt5arrayIdLm3EESaIS1_EE* %_T39440608_53222.arg, %struct._ZSt12_Vector_baseISt5arrayIdLm3EESaIS1_EE** %_T39440608_53222.addr, align 8, !tbaa !4079
	%0 = load %struct._ZSt12_Vector_baseISt5arrayIdLm3EESaIS1_EE*, %struct._ZSt12_Vector_baseISt5arrayIdLm3EESaIS1_EE** %_T39440608_53222.addr, align 8, !tbaa !4079, !dbg !6931
	%1 = bitcast %struct._ZSt12_Vector_baseISt5arrayIdLm3EESaIS1_EE*  %0 to i8*, !dbg !6931
	%2 = bitcast %struct._ZSt12_Vector_baseISt5arrayIdLm3EESaIS1_EE** %..inline.addr to i8**, !dbg !6931
	store i8*  %1, i8**  %2, align 8, !tbaa !4079, !dbg !6931
	%3 = load %struct._ZSt12_Vector_baseISt5arrayIdLm3EESaIS1_EE*, %struct._ZSt12_Vector_baseISt5arrayIdLm3EESaIS1_EE** %..inline.addr, align 8, !tbaa !4079, !dbg !6931
	%4 = bitcast %struct._ZSt12_Vector_baseISt5arrayIdLm3EESaIS1_EE*  %3 to i8**, !dbg !6931
	%5 = load i8*, i8**  %4, align 8, !tbaa !4079, !dbg !6931
	%6 = icmp eq i8*  %5,  null, !dbg !6931
	br i1  %6, label %L..inline.75734, label %L.B1616, !dbg !6931
L.B1616:
	%7 = bitcast %struct._ZSt12_Vector_baseISt5arrayIdLm3EESaIS1_EE*  %3 to i8**, !dbg !6931
	%8 = load i8*, i8**  %7, align 8, !tbaa !4079, !dbg !6931
	%9 = bitcast %struct._ZSt5arrayIdLm3EE** %..inline.addr.1 to i8**, !dbg !6931
	store i8*  %8, i8**  %9, align 8, !tbaa !4079, !dbg !6931
	%10 = load %struct._ZSt5arrayIdLm3EE*, %struct._ZSt5arrayIdLm3EE** %..inline.addr.1, align 8, !tbaa !4079, !dbg !6931
	%11 = bitcast %struct._ZSt5arrayIdLm3EE*  %10 to i8*, !dbg !6931
	call void  @_ZdlPv (i8*  %11) nounwind, !dbg !6931
	br label %L..inline.75734
L..inline.75734:
	ret void, !dbg !6932
}
define linkonce_odr %struct._ZSt5arrayIdLm3EE* @_ZNSt12_Vector_baseISt5arrayIdLm3EESaIS1_EE11_M_allocateEm(%struct._ZSt12_Vector_baseISt5arrayIdLm3EESaIS1_EE* %_T39440608_53225.arg, i64 %__n.arg) #0 inlinehint !dbg !6936 {
L.entry:
	%_T39440608_53225.addr = alloca %struct._ZSt12_Vector_baseISt5arrayIdLm3EESaIS1_EE*, align 8
	%__n.addr = alloca i64, align 8
	%..inline.addr = alloca i64, align 8
	%.Q0011.addr = alloca i8*, align 8
	%.I0003.addr = alloca %struct._ZSt5arrayIdLm3EE*, align 8

	call void @llvm.dbg.declare (metadata %struct._ZSt12_Vector_baseISt5arrayIdLm3EESaIS1_EE** %_T39440608_53225.addr, metadata !6952, metadata !4071), !dbg !6937
	store %struct._ZSt12_Vector_baseISt5arrayIdLm3EESaIS1_EE* %_T39440608_53225.arg, %struct._ZSt12_Vector_baseISt5arrayIdLm3EESaIS1_EE** %_T39440608_53225.addr, align 8, !tbaa !4079
	call void @llvm.dbg.declare (metadata %struct._ZSt12_Vector_baseISt5arrayIdLm3EESaIS1_EE** %_T39440608_53225.addr, metadata !6953, metadata !4071), !dbg !6937
	call void @llvm.dbg.declare (metadata i64* %__n.addr, metadata !6954, metadata !4071), !dbg !6937
	store i64 %__n.arg, i64* %__n.addr, align 8, !tbaa !4078
	call void @llvm.dbg.declare (metadata i64* %__n.addr, metadata !6955, metadata !4071), !dbg !6937
	%0 = load i64, i64* %__n.addr, align 8, !tbaa !4610, !dbg !6956
	%1 = icmp eq i64  %0, 0, !dbg !6956
	br i1  %1, label %L.B0025, label %L.B1619, !dbg !6956
L.B1619:
	store i64  %0, i64* %..inline.addr, align 8, !tbaa !4610, !dbg !6957
	%2 = icmp ule i64  %0, 768614336404564650, !dbg !6957
	br i1  %2, label %L..inline.75800, label %L.B1620, !dbg !6957
L.B1620:
	call void  @_ZSt17__throw_bad_allocv () noreturn, !dbg !6957
	br label %L..inline.75800
L..inline.75800:
	%3 = load i64, i64* %..inline.addr, align 8, !tbaa !4610, !dbg !6957
	%4 = mul i64  %3, 24, !dbg !6957
	%5 = call i8*  @_Znwm (i64  %4), !dbg !6957
	store i8*  %5, i8** %.Q0011.addr, align 8, !tbaa !4079, !dbg !6957
	%6 = bitcast %struct._ZSt5arrayIdLm3EE** %.I0003.addr to i8**, !dbg !6957
	store i8*  %5, i8**  %6, align 8, !tbaa !4079, !dbg !6957
	br label %L.B0026, !dbg !6956
L.B0025:
	%7 = bitcast %struct._ZSt5arrayIdLm3EE** %.I0003.addr to i8**, !dbg !6956
	store i8* null, i8**  %7, align 8, !tbaa !4079, !dbg !6956
	br label %L.B0026
L.B0026:
	%8 = load %struct._ZSt5arrayIdLm3EE*, %struct._ZSt5arrayIdLm3EE** %.I0003.addr, align 8, !tbaa !4079, !dbg !6956
	ret %struct._ZSt5arrayIdLm3EE*  %8, !dbg !6956
}
define linkonce_odr void @_ZNSt12_Vector_baseISt5arrayIdLm3EESaIS1_EE13_M_deallocateEPS1_m(%struct._ZSt12_Vector_baseISt5arrayIdLm3EESaIS1_EE* %_T39440608_53228.arg, %struct._ZSt5arrayIdLm3EE* %__p.arg, i64 %__n.arg) #0 inlinehint !dbg !6962 {
L.entry:
	%_T39440608_53228.addr = alloca %struct._ZSt12_Vector_baseISt5arrayIdLm3EESaIS1_EE*, align 8
	%__p.addr = alloca %struct._ZSt5arrayIdLm3EE*, align 8
	%__n.addr = alloca i64, align 8
	%..inline.addr = alloca %struct._ZSt5arrayIdLm3EE*, align 8

	call void @llvm.dbg.declare (metadata %struct._ZSt12_Vector_baseISt5arrayIdLm3EESaIS1_EE** %_T39440608_53228.addr, metadata !6974, metadata !4071), !dbg !6963
	store %struct._ZSt12_Vector_baseISt5arrayIdLm3EESaIS1_EE* %_T39440608_53228.arg, %struct._ZSt12_Vector_baseISt5arrayIdLm3EESaIS1_EE** %_T39440608_53228.addr, align 8, !tbaa !4079
	call void @llvm.dbg.declare (metadata %struct._ZSt12_Vector_baseISt5arrayIdLm3EESaIS1_EE** %_T39440608_53228.addr, metadata !6975, metadata !4071), !dbg !6963
	call void @llvm.dbg.declare (metadata %struct._ZSt5arrayIdLm3EE** %__p.addr, metadata !6976, metadata !4071), !dbg !6963
	store %struct._ZSt5arrayIdLm3EE* %__p.arg, %struct._ZSt5arrayIdLm3EE** %__p.addr, align 8, !tbaa !4079
	call void @llvm.dbg.declare (metadata %struct._ZSt5arrayIdLm3EE** %__p.addr, metadata !6977, metadata !4071), !dbg !6963
	call void @llvm.dbg.declare (metadata i64* %__n.addr, metadata !6978, metadata !4071), !dbg !6963
	store i64 %__n.arg, i64* %__n.addr, align 8, !tbaa !4078
	call void @llvm.dbg.declare (metadata i64* %__n.addr, metadata !6979, metadata !4071), !dbg !6963
	%0 = load %struct._ZSt5arrayIdLm3EE*, %struct._ZSt5arrayIdLm3EE** %__p.addr, align 8, !tbaa !4079, !dbg !6980
	%1 = bitcast %struct._ZSt5arrayIdLm3EE*  %0 to i8*, !dbg !6980
	%2 = icmp eq i8*  %1,  null, !dbg !6980
	br i1  %2, label %L.B0027, label %L.B1623, !dbg !6980
L.B1623:
	%3 = bitcast %struct._ZSt5arrayIdLm3EE*  %0 to i8*, !dbg !6981
	%4 = bitcast %struct._ZSt5arrayIdLm3EE** %..inline.addr to i8**, !dbg !6981
	store i8*  %3, i8**  %4, align 8, !tbaa !4079, !dbg !6981
	%5 = load %struct._ZSt5arrayIdLm3EE*, %struct._ZSt5arrayIdLm3EE** %..inline.addr, align 8, !tbaa !4079, !dbg !6981
	%6 = bitcast %struct._ZSt5arrayIdLm3EE*  %5 to i8*, !dbg !6981
	call void  @_ZdlPv (i8*  %6) nounwind, !dbg !6981
	br label %L.B0027
L.B0027:
	ret void, !dbg !6982
}
define linkonce_odr void @_ZNSt12_Vector_baseISt5arrayIdLm3EESaIS1_EE17_Vector_impl_dataC1Ev(%struct._ZNSt12_Vector_baseISt5arrayIdLm3EESaIS1_EE17_Vector_impl_dataE* %_T39440608_53229.arg) #0 inlinehint !dbg !6987 {
L.entry:
	%_T39440608_53229.addr = alloca %struct._ZNSt12_Vector_baseISt5arrayIdLm3EESaIS1_EE17_Vector_impl_dataE*, align 8

	call void @llvm.dbg.declare (metadata %struct._ZNSt12_Vector_baseISt5arrayIdLm3EESaIS1_EE17_Vector_impl_dataE** %_T39440608_53229.addr, metadata !6991, metadata !4071), !dbg !6988
	store %struct._ZNSt12_Vector_baseISt5arrayIdLm3EESaIS1_EE17_Vector_impl_dataE* %_T39440608_53229.arg, %struct._ZNSt12_Vector_baseISt5arrayIdLm3EESaIS1_EE17_Vector_impl_dataE** %_T39440608_53229.addr, align 8, !tbaa !4079
	call void @llvm.dbg.declare (metadata %struct._ZNSt12_Vector_baseISt5arrayIdLm3EESaIS1_EE17_Vector_impl_dataE** %_T39440608_53229.addr, metadata !6992, metadata !4071), !dbg !6988
	%0 = load %struct._ZNSt12_Vector_baseISt5arrayIdLm3EESaIS1_EE17_Vector_impl_dataE*, %struct._ZNSt12_Vector_baseISt5arrayIdLm3EESaIS1_EE17_Vector_impl_dataE** %_T39440608_53229.addr, align 8, !tbaa !4079, !dbg !6993
	%1 = bitcast %struct._ZNSt12_Vector_baseISt5arrayIdLm3EESaIS1_EE17_Vector_impl_dataE*  %0 to i8**, !dbg !6993
	store i8* null, i8**  %1, align 8, !tbaa !4079, !dbg !6993
	%2 = bitcast %struct._ZNSt12_Vector_baseISt5arrayIdLm3EESaIS1_EE17_Vector_impl_dataE*  %0 to i8*, !dbg !6993
	%3 = getelementptr i8, i8*  %2, i64 8, !dbg !6993
	%4 = bitcast i8*  %3 to i8**, !dbg !6993
	store i8* null, i8**  %4, align 8, !tbaa !4079, !dbg !6993
	%5 = getelementptr i8, i8*  %2, i64 16, !dbg !6993
	%6 = bitcast i8*  %5 to i8**, !dbg !6993
	store i8* null, i8**  %6, align 8, !tbaa !4079, !dbg !6993
	ret void, !dbg !6993
}
define linkonce_odr void @_ZNSt12_Vector_baseISt5arrayIdLm3EESaIS1_EE17_Vector_impl_dataC2Ev(%struct._ZNSt12_Vector_baseISt5arrayIdLm3EESaIS1_EE17_Vector_impl_dataE* %_T39440608_53230.arg) #0 inlinehint !dbg !6995 {
L.entry:
	%_T39440608_53230.addr = alloca %struct._ZNSt12_Vector_baseISt5arrayIdLm3EESaIS1_EE17_Vector_impl_dataE*, align 8
	%..inline.addr = alloca %struct._ZNSt12_Vector_baseISt5arrayIdLm3EESaIS1_EE17_Vector_impl_dataE*, align 8

	store %struct._ZNSt12_Vector_baseISt5arrayIdLm3EESaIS1_EE17_Vector_impl_dataE* %_T39440608_53230.arg, %struct._ZNSt12_Vector_baseISt5arrayIdLm3EESaIS1_EE17_Vector_impl_dataE** %_T39440608_53230.addr, align 8, !tbaa !4079
	%0 = load %struct._ZNSt12_Vector_baseISt5arrayIdLm3EESaIS1_EE17_Vector_impl_dataE*, %struct._ZNSt12_Vector_baseISt5arrayIdLm3EESaIS1_EE17_Vector_impl_dataE** %_T39440608_53230.addr, align 8, !tbaa !4079, !dbg !7003
	%1 = bitcast %struct._ZNSt12_Vector_baseISt5arrayIdLm3EESaIS1_EE17_Vector_impl_dataE*  %0 to i8*, !dbg !7003
	%2 = bitcast %struct._ZNSt12_Vector_baseISt5arrayIdLm3EESaIS1_EE17_Vector_impl_dataE** %..inline.addr to i8**, !dbg !7003
	store i8*  %1, i8**  %2, align 8, !tbaa !4079, !dbg !7003
	%3 = load %struct._ZNSt12_Vector_baseISt5arrayIdLm3EESaIS1_EE17_Vector_impl_dataE*, %struct._ZNSt12_Vector_baseISt5arrayIdLm3EESaIS1_EE17_Vector_impl_dataE** %..inline.addr, align 8, !tbaa !4079, !dbg !7003
	%4 = bitcast %struct._ZNSt12_Vector_baseISt5arrayIdLm3EESaIS1_EE17_Vector_impl_dataE*  %3 to i8**, !dbg !7003
	store i8* null, i8**  %4, align 8, !tbaa !4079, !dbg !7003
	%5 = bitcast %struct._ZNSt12_Vector_baseISt5arrayIdLm3EESaIS1_EE17_Vector_impl_dataE*  %3 to i8*, !dbg !7003
	%6 = getelementptr i8, i8*  %5, i64 8, !dbg !7003
	%7 = bitcast i8*  %6 to i8**, !dbg !7003
	store i8* null, i8**  %7, align 8, !tbaa !4079, !dbg !7003
	%8 = getelementptr i8, i8*  %5, i64 16, !dbg !7003
	%9 = bitcast i8*  %8 to i8**, !dbg !7003
	store i8* null, i8**  %9, align 8, !tbaa !4079, !dbg !7003
	ret void, !dbg !7003
}
define linkonce_odr void @_ZNSt12_Vector_baseISt5arrayIdLm3EESaIS1_EE12_Vector_implC1Ev(%struct._ZNSt12_Vector_baseISt5arrayIdLm3EESaIS1_EE12_Vector_implE* %_T39440608_53231.arg) #0 inlinehint !dbg !7008 {
L.entry:
	%_T39440608_53231.addr = alloca %struct._ZNSt12_Vector_baseISt5arrayIdLm3EESaIS1_EE12_Vector_implE*, align 8
	%..inline.addr = alloca %struct._ZNSt12_Vector_baseISt5arrayIdLm3EESaIS1_EE17_Vector_impl_dataE*, align 8

	call void @llvm.dbg.declare (metadata %struct._ZNSt12_Vector_baseISt5arrayIdLm3EESaIS1_EE12_Vector_implE** %_T39440608_53231.addr, metadata !7020, metadata !4071), !dbg !7009
	store %struct._ZNSt12_Vector_baseISt5arrayIdLm3EESaIS1_EE12_Vector_implE* %_T39440608_53231.arg, %struct._ZNSt12_Vector_baseISt5arrayIdLm3EESaIS1_EE12_Vector_implE** %_T39440608_53231.addr, align 8, !tbaa !4079
	call void @llvm.dbg.declare (metadata %struct._ZNSt12_Vector_baseISt5arrayIdLm3EESaIS1_EE12_Vector_implE** %_T39440608_53231.addr, metadata !7021, metadata !4071), !dbg !7009
	%0 = load %struct._ZNSt12_Vector_baseISt5arrayIdLm3EESaIS1_EE12_Vector_implE*, %struct._ZNSt12_Vector_baseISt5arrayIdLm3EESaIS1_EE12_Vector_implE** %_T39440608_53231.addr, align 8, !tbaa !4079, !dbg !7022
	%1 = bitcast %struct._ZNSt12_Vector_baseISt5arrayIdLm3EESaIS1_EE12_Vector_implE*  %0 to i8*, !dbg !7022
	%2 = bitcast %struct._ZNSt12_Vector_baseISt5arrayIdLm3EESaIS1_EE17_Vector_impl_dataE** %..inline.addr to i8**, !dbg !7022
	store i8*  %1, i8**  %2, align 8, !tbaa !4079, !dbg !7022
	%3 = load %struct._ZNSt12_Vector_baseISt5arrayIdLm3EESaIS1_EE17_Vector_impl_dataE*, %struct._ZNSt12_Vector_baseISt5arrayIdLm3EESaIS1_EE17_Vector_impl_dataE** %..inline.addr, align 8, !tbaa !4079, !dbg !7022
	%4 = bitcast %struct._ZNSt12_Vector_baseISt5arrayIdLm3EESaIS1_EE17_Vector_impl_dataE*  %3 to i8**, !dbg !7022
	store i8* null, i8**  %4, align 8, !tbaa !4079, !dbg !7022
	%5 = bitcast %struct._ZNSt12_Vector_baseISt5arrayIdLm3EESaIS1_EE17_Vector_impl_dataE*  %3 to i8*, !dbg !7023
	%6 = getelementptr i8, i8*  %5, i64 8, !dbg !7023
	%7 = bitcast i8*  %6 to i8**, !dbg !7023
	store i8* null, i8**  %7, align 8, !tbaa !4079, !dbg !7023
	%8 = getelementptr i8, i8*  %5, i64 16, !dbg !7023
	%9 = bitcast i8*  %8 to i8**, !dbg !7023
	store i8* null, i8**  %9, align 8, !tbaa !4079, !dbg !7023
	ret void, !dbg !7022
}
define linkonce_odr void @_ZNSt12_Vector_baseISt5arrayIdLm3EESaIS1_EE12_Vector_implC2Ev(%struct._ZNSt12_Vector_baseISt5arrayIdLm3EESaIS1_EE12_Vector_implE* %_T39440608_53232.arg) #0 inlinehint !dbg !7025 {
L.entry:
	%_T39440608_53232.addr = alloca %struct._ZNSt12_Vector_baseISt5arrayIdLm3EESaIS1_EE12_Vector_implE*, align 8
	%..inline.addr = alloca %struct._ZNSt12_Vector_baseISt5arrayIdLm3EESaIS1_EE17_Vector_impl_dataE*, align 8

	store %struct._ZNSt12_Vector_baseISt5arrayIdLm3EESaIS1_EE12_Vector_implE* %_T39440608_53232.arg, %struct._ZNSt12_Vector_baseISt5arrayIdLm3EESaIS1_EE12_Vector_implE** %_T39440608_53232.addr, align 8, !tbaa !4079
	%0 = load %struct._ZNSt12_Vector_baseISt5arrayIdLm3EESaIS1_EE12_Vector_implE*, %struct._ZNSt12_Vector_baseISt5arrayIdLm3EESaIS1_EE12_Vector_implE** %_T39440608_53232.addr, align 8, !tbaa !4079, !dbg !7041
	%1 = bitcast %struct._ZNSt12_Vector_baseISt5arrayIdLm3EESaIS1_EE12_Vector_implE*  %0 to i8*, !dbg !7041
	%2 = bitcast %struct._ZNSt12_Vector_baseISt5arrayIdLm3EESaIS1_EE17_Vector_impl_dataE** %..inline.addr to i8**, !dbg !7041
	store i8*  %1, i8**  %2, align 8, !tbaa !4079, !dbg !7041
	%3 = load %struct._ZNSt12_Vector_baseISt5arrayIdLm3EESaIS1_EE17_Vector_impl_dataE*, %struct._ZNSt12_Vector_baseISt5arrayIdLm3EESaIS1_EE17_Vector_impl_dataE** %..inline.addr, align 8, !tbaa !4079, !dbg !7041
	%4 = bitcast %struct._ZNSt12_Vector_baseISt5arrayIdLm3EESaIS1_EE17_Vector_impl_dataE*  %3 to i8**, !dbg !7041
	store i8* null, i8**  %4, align 8, !tbaa !4079, !dbg !7041
	%5 = bitcast %struct._ZNSt12_Vector_baseISt5arrayIdLm3EESaIS1_EE17_Vector_impl_dataE*  %3 to i8*, !dbg !7041
	%6 = getelementptr i8, i8*  %5, i64 8, !dbg !7041
	%7 = bitcast i8*  %6 to i8**, !dbg !7041
	store i8* null, i8**  %7, align 8, !tbaa !4079, !dbg !7041
	%8 = getelementptr i8, i8*  %5, i64 16, !dbg !7041
	%9 = bitcast i8*  %8 to i8**, !dbg !7041
	store i8* null, i8**  %9, align 8, !tbaa !4079, !dbg !7041
	ret void, !dbg !7041
}
define linkonce_odr void @_ZNSt12_Vector_baseISt5arrayIdLm3EESaIS1_EE12_Vector_implD1Ev(%struct._ZNSt12_Vector_baseISt5arrayIdLm3EESaIS1_EE12_Vector_implE* %_T39440608_53233.arg) #0 inlinehint !dbg !7043 {
L.entry:
	%_T39440608_53233.addr = alloca %struct._ZNSt12_Vector_baseISt5arrayIdLm3EESaIS1_EE12_Vector_implE*, align 8

	call void @llvm.dbg.declare (metadata %struct._ZNSt12_Vector_baseISt5arrayIdLm3EESaIS1_EE12_Vector_implE** %_T39440608_53233.addr, metadata !7055, metadata !4071), !dbg !7044
	store %struct._ZNSt12_Vector_baseISt5arrayIdLm3EESaIS1_EE12_Vector_implE* %_T39440608_53233.arg, %struct._ZNSt12_Vector_baseISt5arrayIdLm3EESaIS1_EE12_Vector_implE** %_T39440608_53233.addr, align 8, !tbaa !4079
	call void @llvm.dbg.declare (metadata %struct._ZNSt12_Vector_baseISt5arrayIdLm3EESaIS1_EE12_Vector_implE** %_T39440608_53233.addr, metadata !7056, metadata !4071), !dbg !7044
	ret void, !dbg !7057
}
define linkonce_odr void @_ZNSt12_Vector_baseISt5arrayIdLm3EESaIS1_EE12_Vector_implD2Ev(%struct._ZNSt12_Vector_baseISt5arrayIdLm3EESaIS1_EE12_Vector_implE* %_T39440608_53234.arg) #0 inlinehint !dbg !7059 {
L.entry:
	%_T39440608_53234.addr = alloca %struct._ZNSt12_Vector_baseISt5arrayIdLm3EESaIS1_EE12_Vector_implE*, align 8

	store %struct._ZNSt12_Vector_baseISt5arrayIdLm3EESaIS1_EE12_Vector_implE* %_T39440608_53234.arg, %struct._ZNSt12_Vector_baseISt5arrayIdLm3EESaIS1_EE12_Vector_implE** %_T39440608_53234.addr, align 8, !tbaa !4079
	ret void, !dbg !7075
}

%struct._ZSt17integral_constantIbLb1EE = type <{ [1 x i8]}> 

define linkonce_odr %struct._ZSt5arrayIdLm3EE* @_ZNSt6vectorISt5arrayIdLm3EESaIS1_EE14_S_do_relocateEPS1_S4_S4_RS2_St17integral_constantIbLb1EE(%struct._ZSt5arrayIdLm3EE* %__first.arg, %struct._ZSt5arrayIdLm3EE* %__last.arg, %struct._ZSt5arrayIdLm3EE* %__result.arg, %struct._ZSaISt5arrayIdLm3EEE* %__alloc.arg, i8 %_T39441792_53241.coerce) #0 inlinehint !dbg !7083 {
L.entry:
	%__first.addr = alloca %struct._ZSt5arrayIdLm3EE*, align 8
	%__last.addr = alloca %struct._ZSt5arrayIdLm3EE*, align 8
	%__result.addr = alloca %struct._ZSt5arrayIdLm3EE*, align 8
	%__alloc.addr = alloca %struct._ZSaISt5arrayIdLm3EEE*, align 8
	%_T39441792_53241.addr = alloca %struct._ZSt17integral_constantIbLb1EE, align 1
	%..inline.addr = alloca %struct._ZSt5arrayIdLm3EE*, align 8
	%..inline.addr.1 = alloca %struct._ZSt5arrayIdLm3EE*, align 8
	%..inline.addr.2 = alloca i64, align 8

	call void @llvm.dbg.declare (metadata %struct._ZSt5arrayIdLm3EE** %__first.addr, metadata !7107, metadata !4071), !dbg !7084
	store %struct._ZSt5arrayIdLm3EE* %__first.arg, %struct._ZSt5arrayIdLm3EE** %__first.addr, align 8, !tbaa !4079
	call void @llvm.dbg.declare (metadata %struct._ZSt5arrayIdLm3EE** %__first.addr, metadata !7108, metadata !4071), !dbg !7084
	call void @llvm.dbg.declare (metadata %struct._ZSt5arrayIdLm3EE** %__last.addr, metadata !7109, metadata !4071), !dbg !7084
	store %struct._ZSt5arrayIdLm3EE* %__last.arg, %struct._ZSt5arrayIdLm3EE** %__last.addr, align 8, !tbaa !4079
	call void @llvm.dbg.declare (metadata %struct._ZSt5arrayIdLm3EE** %__last.addr, metadata !7110, metadata !4071), !dbg !7084
	call void @llvm.dbg.declare (metadata %struct._ZSt5arrayIdLm3EE** %__result.addr, metadata !7111, metadata !4071), !dbg !7084
	store %struct._ZSt5arrayIdLm3EE* %__result.arg, %struct._ZSt5arrayIdLm3EE** %__result.addr, align 8, !tbaa !4079
	call void @llvm.dbg.declare (metadata %struct._ZSt5arrayIdLm3EE** %__result.addr, metadata !7112, metadata !4071), !dbg !7084
	call void @llvm.dbg.declare (metadata %struct._ZSaISt5arrayIdLm3EEE** %__alloc.addr, metadata !7113, metadata !4071), !dbg !7084
	store %struct._ZSaISt5arrayIdLm3EEE* %__alloc.arg, %struct._ZSaISt5arrayIdLm3EEE** %__alloc.addr, align 8, !tbaa !4079
	call void @llvm.dbg.declare (metadata %struct._ZSaISt5arrayIdLm3EEE** %__alloc.addr, metadata !7114, metadata !4071), !dbg !7084
	call void @llvm.dbg.declare (metadata %struct._ZSt17integral_constantIbLb1EE* %_T39441792_53241.addr, metadata !7115, metadata !4071), !dbg !7084
	%0 = bitcast %struct._ZSt17integral_constantIbLb1EE* %_T39441792_53241.addr to i8*
	store i8 %_T39441792_53241.coerce, i8*  %0, align 1, !tbaa !4078
	call void @llvm.dbg.declare (metadata %struct._ZSt17integral_constantIbLb1EE* %_T39441792_53241.addr, metadata !7116, metadata !4071), !dbg !7084
	%1 = load %struct._ZSt5arrayIdLm3EE*, %struct._ZSt5arrayIdLm3EE** %__first.addr, align 8, !tbaa !4079, !dbg !7117
	%2 = bitcast %struct._ZSt5arrayIdLm3EE*  %1 to i8*, !dbg !7117
	%3 = bitcast %struct._ZSt5arrayIdLm3EE** %..inline.addr to i8**, !dbg !7117
	store i8*  %2, i8**  %3, align 8, !tbaa !4079, !dbg !7117
	%4 = load %struct._ZSt5arrayIdLm3EE*, %struct._ZSt5arrayIdLm3EE** %__result.addr, align 8, !tbaa !4079, !dbg !7117
	%5 = bitcast %struct._ZSt5arrayIdLm3EE*  %4 to i8*, !dbg !7117
	%6 = bitcast %struct._ZSt5arrayIdLm3EE** %..inline.addr.1 to i8**, !dbg !7117
	store i8*  %5, i8**  %6, align 8, !tbaa !4079, !dbg !7117
	%7 = load %struct._ZSt5arrayIdLm3EE*, %struct._ZSt5arrayIdLm3EE** %__last.addr, align 8, !tbaa !4079, !dbg !7117
	%8 = bitcast %struct._ZSt5arrayIdLm3EE*  %7 to i8*, !dbg !7117
	%9 = ptrtoint i8*  %2 to i64, !dbg !7117
	%10 = sub i64 0,  %9, !dbg !7117
	%11 = getelementptr i8, i8*  %8, i64  %10, !dbg !7117
	%12 = ptrtoint i8*  %11 to i64, !dbg !7117
	%13 = sext i64 3074457345618258603 to i128, !dbg !7117
	%14 = sext i64  %12 to i128, !dbg !7117
	%15 = mul i128  %13,  %14, !dbg !7117
	%16 = ashr i128  %15, 64, !dbg !7117
	%17 = trunc i128  %16 to i64, !dbg !7117
	%18 = sext i32 2 to i64, !dbg !7117
	%19 = ashr i64  %17,  %18, !dbg !7117
	%20 = sub i64 0,  %9, !dbg !7117
	%21 = getelementptr i8, i8*  %8, i64  %20, !dbg !7117
	%22 = ptrtoint i8*  %21 to i64, !dbg !7117
	%23 = sext i32 63 to i64, !dbg !7117
	%24 = ashr i64  %22,  %23, !dbg !7117
	%25 = sub i64  %19,  %24, !dbg !7117
	store i64  %25, i64* %..inline.addr.2, align 8, !tbaa !4610, !dbg !7117
	%26 = icmp sle i64  %25, 0, !dbg !7117
	br i1  %26, label %L..inline.75968, label %L.B1636, !dbg !7117
L.B1636:
	%27 = load %struct._ZSt5arrayIdLm3EE*, %struct._ZSt5arrayIdLm3EE** %..inline.addr.1, align 8, !tbaa !4079, !dbg !7117
	%28 = bitcast %struct._ZSt5arrayIdLm3EE*  %27 to i8*, !dbg !7117
	%29 = load %struct._ZSt5arrayIdLm3EE*, %struct._ZSt5arrayIdLm3EE** %..inline.addr, align 8, !tbaa !4079, !dbg !7117
	%30 = bitcast %struct._ZSt5arrayIdLm3EE*  %29 to i8*, !dbg !7117
	%31 = mul i64  %25, 24, !dbg !7117
	%32 = call i8*  @memmove (i8*  %28, i8*  %30, i64  %31) nounwind, !dbg !7117
	br label %L..inline.75968
L..inline.75968:
	%33 = load %struct._ZSt5arrayIdLm3EE*, %struct._ZSt5arrayIdLm3EE** %..inline.addr.1, align 8, !tbaa !4079, !dbg !7118
	%34 = bitcast %struct._ZSt5arrayIdLm3EE*  %33 to i8*, !dbg !7118
	%35 = load i64, i64* %..inline.addr.2, align 8, !tbaa !4610, !dbg !7118
	%36 = mul i64  %35, 24, !dbg !7118
	%37 = getelementptr i8, i8*  %34, i64  %36, !dbg !7118
	%38 = bitcast i8*  %37 to %struct._ZSt5arrayIdLm3EE*, !dbg !7118
	ret %struct._ZSt5arrayIdLm3EE*  %38, !dbg !7118
}
define linkonce_odr %struct._ZSt5arrayIdLm3EE* @_ZNSt6vectorISt5arrayIdLm3EESaIS1_EE11_S_relocateEPS1_S4_S4_RS2_(%struct._ZSt5arrayIdLm3EE* %__first.arg, %struct._ZSt5arrayIdLm3EE* %__last.arg, %struct._ZSt5arrayIdLm3EE* %__result.arg, %struct._ZSaISt5arrayIdLm3EEE* %__alloc.arg) #0 inlinehint !dbg !7123 {
L.entry:
	%__first.addr = alloca %struct._ZSt5arrayIdLm3EE*, align 8
	%__last.addr = alloca %struct._ZSt5arrayIdLm3EE*, align 8
	%__result.addr = alloca %struct._ZSt5arrayIdLm3EE*, align 8
	%__alloc.addr = alloca %struct._ZSaISt5arrayIdLm3EEE*, align 8
	%.._T39442568_53246.__FILL_CHARARRAY.addr = alloca [1 x i8], align 1
	%..inline.addr = alloca %struct._ZSt5arrayIdLm3EE*, align 8
	%..inline.addr.1 = alloca %struct._ZSt5arrayIdLm3EE*, align 8
	%..inline.addr.2 = alloca %struct._ZSt5arrayIdLm3EE*, align 8
	%....inline.__FILL_CHARARRAY.addr = alloca [1 x i8], align 1
	%..inline.addr.3 = alloca %struct._ZSt5arrayIdLm3EE*, align 8
	%..inline.addr.4 = alloca %struct._ZSt5arrayIdLm3EE*, align 8
	%..inline.addr.5 = alloca i64, align 8

	call void @llvm.dbg.declare (metadata %struct._ZSt5arrayIdLm3EE** %__first.addr, metadata !7151, metadata !4071), !dbg !7124
	store %struct._ZSt5arrayIdLm3EE* %__first.arg, %struct._ZSt5arrayIdLm3EE** %__first.addr, align 8, !tbaa !4079
	call void @llvm.dbg.declare (metadata %struct._ZSt5arrayIdLm3EE** %__first.addr, metadata !7152, metadata !4071), !dbg !7124
	call void @llvm.dbg.declare (metadata %struct._ZSt5arrayIdLm3EE** %__last.addr, metadata !7153, metadata !4071), !dbg !7124
	store %struct._ZSt5arrayIdLm3EE* %__last.arg, %struct._ZSt5arrayIdLm3EE** %__last.addr, align 8, !tbaa !4079
	call void @llvm.dbg.declare (metadata %struct._ZSt5arrayIdLm3EE** %__last.addr, metadata !7154, metadata !4071), !dbg !7124
	call void @llvm.dbg.declare (metadata %struct._ZSt5arrayIdLm3EE** %__result.addr, metadata !7155, metadata !4071), !dbg !7124
	store %struct._ZSt5arrayIdLm3EE* %__result.arg, %struct._ZSt5arrayIdLm3EE** %__result.addr, align 8, !tbaa !4079
	call void @llvm.dbg.declare (metadata %struct._ZSt5arrayIdLm3EE** %__result.addr, metadata !7156, metadata !4071), !dbg !7124
	call void @llvm.dbg.declare (metadata %struct._ZSaISt5arrayIdLm3EEE** %__alloc.addr, metadata !7157, metadata !4071), !dbg !7124
	store %struct._ZSaISt5arrayIdLm3EEE* %__alloc.arg, %struct._ZSaISt5arrayIdLm3EEE** %__alloc.addr, align 8, !tbaa !4079
	call void @llvm.dbg.declare (metadata %struct._ZSaISt5arrayIdLm3EEE** %__alloc.addr, metadata !7158, metadata !4071), !dbg !7124
	call void @llvm.dbg.declare (metadata [1 x i8]* %.._T39442568_53246.__FILL_CHARARRAY.addr, metadata !7160, metadata !4071), !dbg !7126
	%0 = bitcast [1 x i8]* %.._T39442568_53246.__FILL_CHARARRAY.addr to i8*, !dbg !7159
	store i8 0, i8*  %0, align 1, !tbaa !4078, !dbg !7159
	%1 = load %struct._ZSt5arrayIdLm3EE*, %struct._ZSt5arrayIdLm3EE** %__first.addr, align 8, !tbaa !4079, !dbg !7159
	%2 = bitcast %struct._ZSt5arrayIdLm3EE*  %1 to i8*, !dbg !7159
	%3 = bitcast %struct._ZSt5arrayIdLm3EE** %..inline.addr to i8**, !dbg !7159
	store i8*  %2, i8**  %3, align 8, !tbaa !4079, !dbg !7159
	%4 = load %struct._ZSt5arrayIdLm3EE*, %struct._ZSt5arrayIdLm3EE** %__last.addr, align 8, !tbaa !4079, !dbg !7159
	%5 = bitcast %struct._ZSt5arrayIdLm3EE*  %4 to i8*, !dbg !7159
	%6 = bitcast %struct._ZSt5arrayIdLm3EE** %..inline.addr.1 to i8**, !dbg !7159
	store i8*  %5, i8**  %6, align 8, !tbaa !4079, !dbg !7159
	%7 = load %struct._ZSt5arrayIdLm3EE*, %struct._ZSt5arrayIdLm3EE** %__result.addr, align 8, !tbaa !4079, !dbg !7159
	%8 = bitcast %struct._ZSt5arrayIdLm3EE*  %7 to i8*, !dbg !7159
	%9 = bitcast %struct._ZSt5arrayIdLm3EE** %..inline.addr.2 to i8**, !dbg !7159
	store i8*  %8, i8**  %9, align 8, !tbaa !4079, !dbg !7159
	%10 = zext i8 0 to i32, !dbg !7161
	%11 = trunc i32  %10 to i8, !dbg !7161
	call void @llvm.dbg.declare (metadata [1 x i8]* %....inline.__FILL_CHARARRAY.addr, metadata !7162, metadata !4071), !dbg !7126
	%12 = bitcast [1 x i8]* %....inline.__FILL_CHARARRAY.addr to i8*, !dbg !7161
	store i8  %11, i8*  %12, align 1, !tbaa !4078, !dbg !7161
	%13 = load %struct._ZSt5arrayIdLm3EE*, %struct._ZSt5arrayIdLm3EE** %..inline.addr, align 8, !tbaa !4079, !dbg !7163
	%14 = bitcast %struct._ZSt5arrayIdLm3EE*  %13 to i8*, !dbg !7163
	%15 = bitcast %struct._ZSt5arrayIdLm3EE** %..inline.addr.3 to i8**, !dbg !7163
	store i8*  %14, i8**  %15, align 8, !tbaa !4079, !dbg !7163
	%16 = load %struct._ZSt5arrayIdLm3EE*, %struct._ZSt5arrayIdLm3EE** %..inline.addr.2, align 8, !tbaa !4079, !dbg !7163
	%17 = bitcast %struct._ZSt5arrayIdLm3EE*  %16 to i8*, !dbg !7163
	%18 = bitcast %struct._ZSt5arrayIdLm3EE** %..inline.addr.4 to i8**, !dbg !7163
	store i8*  %17, i8**  %18, align 8, !tbaa !4079, !dbg !7163
	%19 = load %struct._ZSt5arrayIdLm3EE*, %struct._ZSt5arrayIdLm3EE** %..inline.addr.1, align 8, !tbaa !4079, !dbg !7163
	%20 = bitcast %struct._ZSt5arrayIdLm3EE*  %19 to i8*, !dbg !7163
	%21 = ptrtoint i8*  %14 to i64, !dbg !7163
	%22 = sub i64 0,  %21, !dbg !7163
	%23 = getelementptr i8, i8*  %20, i64  %22, !dbg !7163
	%24 = ptrtoint i8*  %23 to i64, !dbg !7163
	%25 = sext i64 3074457345618258603 to i128, !dbg !7163
	%26 = sext i64  %24 to i128, !dbg !7163
	%27 = mul i128  %25,  %26, !dbg !7163
	%28 = ashr i128  %27, 64, !dbg !7163
	%29 = trunc i128  %28 to i64, !dbg !7163
	%30 = sext i32 2 to i64, !dbg !7163
	%31 = ashr i64  %29,  %30, !dbg !7163
	%32 = sub i64 0,  %21, !dbg !7163
	%33 = getelementptr i8, i8*  %20, i64  %32, !dbg !7163
	%34 = ptrtoint i8*  %33 to i64, !dbg !7163
	%35 = sext i32 63 to i64, !dbg !7163
	%36 = ashr i64  %34,  %35, !dbg !7163
	%37 = sub i64  %31,  %36, !dbg !7163
	store i64  %37, i64* %..inline.addr.5, align 8, !tbaa !4610, !dbg !7163
	%38 = icmp sle i64  %37, 0, !dbg !7163
	br i1  %38, label %L..inline.76044, label %L.B1639, !dbg !7163
L.B1639:
	%39 = load %struct._ZSt5arrayIdLm3EE*, %struct._ZSt5arrayIdLm3EE** %..inline.addr.4, align 8, !tbaa !4079, !dbg !7163
	%40 = bitcast %struct._ZSt5arrayIdLm3EE*  %39 to i8*, !dbg !7163
	%41 = load %struct._ZSt5arrayIdLm3EE*, %struct._ZSt5arrayIdLm3EE** %..inline.addr.3, align 8, !tbaa !4079, !dbg !7163
