; ModuleID = 'projects/Firehose/Firehose.cpp'
target datalayout = "e-p:64:64-i64:64-f80:128-n8:16:32:64-S128"
target triple = "x86_64-pc-linux-gnu"
define internal void @pgCplus_compiled.() noinline {
L.entry:
	ret void
}


define linkonce_odr i8* @_ZnwmPv(i64 %_T45627360_51665.arg, i8* %__p.arg) #0 inlinehint !dbg !3965 {
L.entry:
	%_T45627360_51665.addr = alloca i64, align 8
	%__p.addr = alloca i8*, align 8

	call void @llvm.dbg.declare (metadata i64* %_T45627360_51665.addr, metadata !3969, metadata !3970), !dbg !3966
	store i64 %_T45627360_51665.arg, i64* %_T45627360_51665.addr, align 8, !tbaa !3977
	call void @llvm.dbg.declare (metadata i64* %_T45627360_51665.addr, metadata !3971, metadata !3970), !dbg !3966
	call void @llvm.dbg.declare (metadata i8** %__p.addr, metadata !3972, metadata !3970), !dbg !3966
	store i8* %__p.arg, i8** %__p.addr, align 8, !tbaa !3978
	call void @llvm.dbg.declare (metadata i8** %__p.addr, metadata !3973, metadata !3970), !dbg !3966
	%0 = load i8*, i8** %__p.addr, align 8, !tbaa !3978, !dbg !3974
	ret i8*  %0, !dbg !3974
}
define linkonce_odr void @_ZdlPvS_(i8* %_T45627360_51666.arg, i8* %_T45627656_51666.arg) #0 inlinehint !dbg !3982 {
L.entry:
	%_T45627360_51666.addr = alloca i8*, align 8
	%_T45627656_51666.addr = alloca i8*, align 8

	call void @llvm.dbg.declare (metadata i8** %_T45627360_51666.addr, metadata !3986, metadata !3970), !dbg !3983
	store i8* %_T45627360_51666.arg, i8** %_T45627360_51666.addr, align 8, !tbaa !3978
	call void @llvm.dbg.declare (metadata i8** %_T45627360_51666.addr, metadata !3987, metadata !3970), !dbg !3983
	call void @llvm.dbg.declare (metadata i8** %_T45627656_51666.addr, metadata !3988, metadata !3970), !dbg !3983
	store i8* %_T45627656_51666.arg, i8** %_T45627656_51666.addr, align 8, !tbaa !3978
	call void @llvm.dbg.declare (metadata i8** %_T45627656_51666.addr, metadata !3989, metadata !3970), !dbg !3983
	ret void, !dbg !3990
}

%struct.T3DFunction = type <{ i32 (...)* (...)*}> 

define linkonce_odr void @_ZN11T3DFunctionD1Ev(%struct.T3DFunction* %_T45627360_52052.arg) #0 inlinehint !dbg !3996 {
L.entry:
	%_T45627360_52052.addr = alloca %struct.T3DFunction*, align 8

	call void @llvm.dbg.declare (metadata %struct.T3DFunction** %_T45627360_52052.addr, metadata !4000, metadata !3970), !dbg !3997
	store %struct.T3DFunction* %_T45627360_52052.arg, %struct.T3DFunction** %_T45627360_52052.addr, align 8, !tbaa !3978
	call void @llvm.dbg.declare (metadata %struct.T3DFunction** %_T45627360_52052.addr, metadata !4001, metadata !3970), !dbg !3997
	%0 = bitcast [5 x i32 (...)* (...)*]* @_ZTV11T3DFunction to i8*, !dbg !4002
	%1 = getelementptr i8, i8*  %0, i64 16, !dbg !4002
	%2 = load %struct.T3DFunction*, %struct.T3DFunction** %_T45627360_52052.addr, align 8, !tbaa !3978, !dbg !4002
	%3 = bitcast %struct.T3DFunction*  %2 to i8**, !dbg !4002
	store i8*  %1, i8**  %3, align 8, !tbaa !3978, !dbg !4002
	ret void, !dbg !4002
}
define linkonce_odr void @_ZN11T3DFunctionD0Ev(%struct.T3DFunction* %_T45627360_52053.arg) #0 inlinehint !dbg !4007 {
L.entry:
	%_T45627360_52053.addr = alloca %struct.T3DFunction*, align 8

	store %struct.T3DFunction* %_T45627360_52053.arg, %struct.T3DFunction** %_T45627360_52053.addr, align 8, !tbaa !3978
	%0 = bitcast [5 x i32 (...)* (...)*]* @_ZTV11T3DFunction to i8*, !dbg !4015
	%1 = getelementptr i8, i8*  %0, i64 16, !dbg !4015
	%2 = load %struct.T3DFunction*, %struct.T3DFunction** %_T45627360_52053.addr, align 8, !tbaa !3978, !dbg !4015
	%3 = bitcast %struct.T3DFunction*  %2 to i8**, !dbg !4015
	store i8*  %1, i8**  %3, align 8, !tbaa !3978, !dbg !4015
	%4 = bitcast %struct.T3DFunction*  %2 to i8*, !dbg !4015
	call void  @_ZdlPvm (i8*  %4, i64 8) nounwind, !dbg !4015
	ret void, !dbg !4015
}
define linkonce_odr void @_ZN11T3DFunctionD2Ev(%struct.T3DFunction* %_T45627360_52054.arg) #0 inlinehint !dbg !4017 {
L.entry:
	%_T45627360_52054.addr = alloca %struct.T3DFunction*, align 8

	store %struct.T3DFunction* %_T45627360_52054.arg, %struct.T3DFunction** %_T45627360_52054.addr, align 8, !tbaa !3978
	%0 = bitcast [5 x i32 (...)* (...)*]* @_ZTV11T3DFunction to i8*, !dbg !4025
	%1 = getelementptr i8, i8*  %0, i64 16, !dbg !4025
	%2 = load %struct.T3DFunction*, %struct.T3DFunction** %_T45627360_52054.addr, align 8, !tbaa !3978, !dbg !4025
	%3 = bitcast %struct.T3DFunction*  %2 to i8**, !dbg !4025
	store i8*  %1, i8**  %3, align 8, !tbaa !3978, !dbg !4025
	ret void, !dbg !4025
}
define linkonce_odr void @_ZN11T3DFunctionC1Ev(%struct.T3DFunction* %_T45627360_52055.arg) #0 inlinehint !dbg !4027 {
L.entry:
	%_T45627360_52055.addr = alloca %struct.T3DFunction*, align 8

	call void @llvm.dbg.declare (metadata %struct.T3DFunction** %_T45627360_52055.addr, metadata !4031, metadata !3970), !dbg !4028
	store %struct.T3DFunction* %_T45627360_52055.arg, %struct.T3DFunction** %_T45627360_52055.addr, align 8, !tbaa !3978
	call void @llvm.dbg.declare (metadata %struct.T3DFunction** %_T45627360_52055.addr, metadata !4032, metadata !3970), !dbg !4028
	%0 = bitcast [5 x i32 (...)* (...)*]* @_ZTV11T3DFunction to i8*, !dbg !4033
	%1 = getelementptr i8, i8*  %0, i64 16, !dbg !4033
	%2 = load %struct.T3DFunction*, %struct.T3DFunction** %_T45627360_52055.addr, align 8, !tbaa !3978, !dbg !4033
	%3 = bitcast %struct.T3DFunction*  %2 to i8**, !dbg !4033
	store i8*  %1, i8**  %3, align 8, !tbaa !3978, !dbg !4033
	ret void, !dbg !4033
}
define linkonce_odr void @_ZN11T3DFunctionC2Ev(%struct.T3DFunction* %_T45627360_52056.arg) #0 inlinehint !dbg !4035 {
L.entry:
	%_T45627360_52056.addr = alloca %struct.T3DFunction*, align 8

	store %struct.T3DFunction* %_T45627360_52056.arg, %struct.T3DFunction** %_T45627360_52056.addr, align 8, !tbaa !3978
	%0 = bitcast [5 x i32 (...)* (...)*]* @_ZTV11T3DFunction to i8*, !dbg !4043
	%1 = getelementptr i8, i8*  %0, i64 16, !dbg !4043
	%2 = load %struct.T3DFunction*, %struct.T3DFunction** %_T45627360_52056.addr, align 8, !tbaa !3978, !dbg !4043
	%3 = bitcast %struct.T3DFunction*  %2 to i8**, !dbg !4043
	store i8*  %1, i8**  %3, align 8, !tbaa !3978, !dbg !4043
	ret void, !dbg !4043
}

%struct.FieldFunction = type <{ %struct.T3DFunction, i32, i32, i32, [4 x i8]}> 
%astruct.dt64 = type <{ i8*, i32}> 

define linkonce_odr void @_ZN13FieldFunctionC1Ev(%struct.FieldFunction* %_T45627360_52057.arg) #0 inlinehint personality i8* bitcast (i32 (...)* @__gxx_personality_v0 to i8*) !dbg !4050 {
L.entry:
	%_T45627360_52057.addr = alloca %struct.FieldFunction*, align 8

	call void @llvm.dbg.declare (metadata %struct.FieldFunction** %_T45627360_52057.addr, metadata !4106, metadata !3970), !dbg !4051
	store %struct.FieldFunction* %_T45627360_52057.arg, %struct.FieldFunction** %_T45627360_52057.addr, align 8, !tbaa !3978
	call void @llvm.dbg.declare (metadata %struct.FieldFunction** %_T45627360_52057.addr, metadata !4107, metadata !3970), !dbg !4051
	%0 = bitcast [5 x i32 (...)* (...)*]* @_ZTV11T3DFunction to i8*, !dbg !4108
	%1 = getelementptr i8, i8*  %0, i64 16, !dbg !4108
	%2 = load %struct.FieldFunction*, %struct.FieldFunction** %_T45627360_52057.addr, align 8, !tbaa !3978, !dbg !4108
	%3 = bitcast %struct.FieldFunction*  %2 to i8**, !dbg !4108
	store i8*  %1, i8**  %3, align 8, !tbaa !3978, !dbg !4108
	%4 = bitcast [5 x i32 (...)* (...)*]* @_ZTV13FieldFunction to i8*, !dbg !4108
	%5 = getelementptr i8, i8*  %4, i64 16, !dbg !4108
	store i8*  %5, i8**  %3, align 8, !tbaa !3978, !dbg !4108
	%6 = bitcast %struct.FieldFunction*  %2 to i8*, !dbg !4111
	%7 = getelementptr i8, i8*  %6, i64 8, !dbg !4111
	%8 = bitcast i8*  %7 to i32*, !dbg !4111
	store i32 0, i32*  %8, align 4, !tbaa !3977, !dbg !4111
	%9 = getelementptr i8, i8*  %6, i64 12, !dbg !4112
	%10 = bitcast i8*  %9 to i32*, !dbg !4112
	store i32 0, i32*  %10, align 4, !tbaa !3977, !dbg !4112
	%11 = getelementptr i8, i8*  %6, i64 16, !dbg !4113
	%12 = bitcast i8*  %11 to i32*, !dbg !4113
	store i32 0, i32*  %12, align 4, !tbaa !3977, !dbg !4113
	br label %L.R0007, !dbg !4113
L_T45628248_52057:
	%13 = landingpad %astruct.dt64
	cleanup
	br label %L.R0007
L.R0007:
	ret void, !dbg !4114
}
define linkonce_odr void @_ZN13FieldFunctionC2Ev(%struct.FieldFunction* %_T45627360_52058.arg) #0 inlinehint !dbg !4116 {
L.entry:
	%_T45627360_52058.addr = alloca %struct.FieldFunction*, align 8

	store %struct.FieldFunction* %_T45627360_52058.arg, %struct.FieldFunction** %_T45627360_52058.addr, align 8, !tbaa !3978
	%0 = load %struct.FieldFunction*, %struct.FieldFunction** %_T45627360_52058.addr, align 8, !tbaa !3978, !dbg !4120
	call void  @_ZN13FieldFunctionC1Ev (%struct.FieldFunction*  %0), !dbg !4120
	ret void, !dbg !4120
}
define linkonce_odr void @_ZN13FieldFunction12setComponentE10coordinate(%struct.FieldFunction* %_T45627360_52059.arg, i32 zeroext %fComponent.arg) #0 inlinehint !dbg !4124 {
L.entry:
	%_T45627360_52059.addr = alloca %struct.FieldFunction*, align 8
	%fComponent.addr = alloca i32, align 4

	call void @llvm.dbg.declare (metadata %struct.FieldFunction** %_T45627360_52059.addr, metadata !4128, metadata !3970), !dbg !4125
	store %struct.FieldFunction* %_T45627360_52059.arg, %struct.FieldFunction** %_T45627360_52059.addr, align 8, !tbaa !3978
	call void @llvm.dbg.declare (metadata %struct.FieldFunction** %_T45627360_52059.addr, metadata !4129, metadata !3970), !dbg !4125
	call void @llvm.dbg.declare (metadata i32* %fComponent.addr, metadata !4130, metadata !3970), !dbg !4125
	store i32 %fComponent.arg, i32* %fComponent.addr, align 4, !tbaa !3977
	call void @llvm.dbg.declare (metadata i32* %fComponent.addr, metadata !4131, metadata !3970), !dbg !4125
	%0 = load i32, i32* %fComponent.addr, align 4, !tbaa !3977, !dbg !4132
	%1 = load %struct.FieldFunction*, %struct.FieldFunction** %_T45627360_52059.addr, align 8, !tbaa !3978, !dbg !4132
	%2 = bitcast %struct.FieldFunction*  %1 to i8*, !dbg !4132
	%3 = getelementptr i8, i8*  %2, i64 8, !dbg !4132
	%4 = bitcast i8*  %3 to i32*, !dbg !4132
	store i32  %0, i32*  %4, align 4, !tbaa !3977, !dbg !4132
	ret void, !dbg !4132
}
define linkonce_odr void @_ZN13FieldFunction17setDerivComponentE10coordinate(%struct.FieldFunction* %_T45627360_52060.arg, i32 zeroext %dComponent.arg) #0 inlinehint !dbg !4134 {
L.entry:
	%_T45627360_52060.addr = alloca %struct.FieldFunction*, align 8
	%dComponent.addr = alloca i32, align 4

	call void @llvm.dbg.declare (metadata %struct.FieldFunction** %_T45627360_52060.addr, metadata !4138, metadata !3970), !dbg !4135
	store %struct.FieldFunction* %_T45627360_52060.arg, %struct.FieldFunction** %_T45627360_52060.addr, align 8, !tbaa !3978
	call void @llvm.dbg.declare (metadata %struct.FieldFunction** %_T45627360_52060.addr, metadata !4139, metadata !3970), !dbg !4135
	call void @llvm.dbg.declare (metadata i32* %dComponent.addr, metadata !4140, metadata !3970), !dbg !4135
	store i32 %dComponent.arg, i32* %dComponent.addr, align 4, !tbaa !3977
	call void @llvm.dbg.declare (metadata i32* %dComponent.addr, metadata !4141, metadata !3970), !dbg !4135
	%0 = load i32, i32* %dComponent.addr, align 4, !tbaa !3977, !dbg !4142
	%1 = load %struct.FieldFunction*, %struct.FieldFunction** %_T45627360_52060.addr, align 8, !tbaa !3978, !dbg !4142
	%2 = bitcast %struct.FieldFunction*  %1 to i8*, !dbg !4142
	%3 = getelementptr i8, i8*  %2, i64 12, !dbg !4142
	%4 = bitcast i8*  %3 to i32*, !dbg !4142
	store i32  %0, i32*  %4, align 4, !tbaa !3977, !dbg !4142
	ret void, !dbg !4142
}

%struct._ZSt7num_putIcSt19ostreambuf_iteratorIcSt11char_traitsIcEEE = type <{ %struct.__SO__NSt6locale5facetE, [4 x i8]}> 
%struct._ZSt9basic_iosIcSt11char_traitsIcEE = type <{ %struct._ZSt8ios_base, %struct._ZSo*, i8, i8, [6 x i8], %struct._ZSt15basic_streambufIcSt11char_traitsIcEE*, %struct._ZSt5ctypeIcE*, %struct._ZSt7num_putIcSt19ostreambuf_iteratorIcSt11char_traitsIcEEE*, %struct._ZSt7num_getIcSt19istreambuf_iteratorIcSt11char_traitsIcEEE*}> 
%struct.__locale_struct = type <{ [13 x %struct.__locale_data*], i16*, i32*, i32*, [13 x i8*]}> 
%struct._ZNSt6locale5facetE = type <{ i32 (...)* (...)*, i32, [4 x i8]}> 
%struct.__SO__NSt6locale5facetE = type <{ i32 (...)* (...)*, i32}> 
%struct._ZSt7num_getIcSt19istreambuf_iteratorIcSt11char_traitsIcEEE = type <{ %struct.__SO__NSt6locale5facetE, [4 x i8]}> 
%struct._ZNSt8ios_base6_WordsE = type <{ i8*, i64}> 
%struct._ZSt5ctypeIcE = type <{ %struct.__SO__NSt6locale5facetE, [4 x i8], %struct.__locale_struct*, i8, [7 x i8], i32*, i32*, i16*, i8, [256 x i8], [256 x i8], i8, [6 x i8]}> 
%struct._ZNSt8ios_base14_Callback_listE = type <{ %struct._ZNSt8ios_base14_Callback_listE*, void (i32, %struct._ZSt8ios_base*, i32)*, i32, i32}> 
%struct._ZSt15basic_streambufIcSt11char_traitsIcEE = type <{ i32 (...)* (...)*, i8*, i8*, i8*, i8*, i8*, i8*, %struct._ZSt6locale}> 
%struct._ZSo = type <{ i32 (...)* (...)*, %struct._ZSt9basic_iosIcSt11char_traitsIcEE}> 
%struct._ZNSt6locale5_ImplE = type <{ i32, [4 x i8], %struct._ZNSt6locale5facetE**, i64, %struct._ZNSt6locale5facetE**, i8**}> 
%struct._ZSt8ios_base = type <{ i32 (...)* (...)*, i64, i64, i32, i32, i32, [4 x i8], %struct._ZNSt8ios_base14_Callback_listE*, %struct._ZNSt8ios_base6_WordsE, [8 x %struct._ZNSt8ios_base6_WordsE], i32, [4 x i8], %struct._ZNSt8ios_base6_WordsE*, %struct._ZSt6locale}> 
%struct._ZSt6locale = type <{ %struct._ZNSt6locale5_ImplE*}> 
%struct.__locale_data = type opaque

define linkonce_odr void @_ZN13FieldFunction13setDerivativeEj(%struct.FieldFunction* %_T45627544_52061.arg, i32 zeroext %derivative.arg) #0 inlinehint !dbg !4146 {
L.entry:
	%_T45627544_52061.addr = alloca %struct.FieldFunction*, align 8
	%derivative.addr = alloca i32, align 4
	%..inline.addr = alloca %struct._ZSt9basic_iosIcSt11char_traitsIcEE*, align 8
	%..inline.addr.1 = alloca %struct._ZSt9basic_iosIcSt11char_traitsIcEE*, align 8
	%..inline.addr.2 = alloca i32, align 4
	%..inline.addr.3 = alloca i64, align 8
	%.Q0003.addr = alloca %struct._ZSo*, align 8
	%..inline.addr.4 = alloca i32, align 4
	%.Q0004.addr = alloca %struct._ZSo*, align 8
	%..inline.addr.5 = alloca %struct._ZSo*, align 8
	%.Q0005.addr = alloca %struct._ZSo*, align 8

	call void @llvm.dbg.declare (metadata %struct.FieldFunction** %_T45627544_52061.addr, metadata !4178, metadata !3970), !dbg !4147
	store %struct.FieldFunction* %_T45627544_52061.arg, %struct.FieldFunction** %_T45627544_52061.addr, align 8, !tbaa !3978
	call void @llvm.dbg.declare (metadata %struct.FieldFunction** %_T45627544_52061.addr, metadata !4179, metadata !3970), !dbg !4147
	call void @llvm.dbg.declare (metadata i32* %derivative.addr, metadata !4180, metadata !3970), !dbg !4147
	store i32 %derivative.arg, i32* %derivative.addr, align 4, !tbaa !3977
	call void @llvm.dbg.declare (metadata i32* %derivative.addr, metadata !4181, metadata !3970), !dbg !4147
	%0 = load i32, i32* %derivative.addr, align 4, !tbaa !4195, !dbg !4182
	%1 = load %struct.FieldFunction*, %struct.FieldFunction** %_T45627544_52061.addr, align 8, !tbaa !3978, !dbg !4182
	%2 = bitcast %struct.FieldFunction*  %1 to i8*, !dbg !4182
	%3 = getelementptr i8, i8*  %2, i64 16, !dbg !4182
	%4 = bitcast i8*  %3 to i32*, !dbg !4182
	store i32  %0, i32*  %4, align 4, !tbaa !3977, !dbg !4182
	%5 = icmp ule i32  %0, 1, !dbg !4183
	br i1  %5, label %L.B0000, label %L.B0001, !dbg !4183
L.B0001:
	%6 = bitcast [36 x i8]* @.S53584 to i8*, !dbg !4184
	%7 = icmp ne i8*  %6,  null, !dbg !4184
	br i1  %7, label %L..inline.69519, label %L.B1240, !dbg !4184
L.B1240:
	%8 = bitcast %struct._ZSo* @_ZSt4cerr to i8*, !dbg !4185
	%9 = bitcast %struct._ZSo* @_ZSt4cerr to i8**, !dbg !4185
	%10 = load i8*, i8**  %9, align 8, !tbaa !3978, !dbg !4185
	%11 = getelementptr i8, i8*  %10, i64 18446744073709551592, !dbg !4185
	%12 = bitcast i8*  %11 to i64*, !dbg !4185
	%13 = load i64, i64*  %12, align 8, !tbaa !3977, !dbg !4185
	%14 = getelementptr i8, i8*  %8, i64  %13, !dbg !4185
	%15 = bitcast %struct._ZSt9basic_iosIcSt11char_traitsIcEE** %..inline.addr to i8**, !dbg !4185
	store i8*  %14, i8**  %15, align 8, !tbaa !3978, !dbg !4185
	%16 = load %struct._ZSt9basic_iosIcSt11char_traitsIcEE*, %struct._ZSt9basic_iosIcSt11char_traitsIcEE** %..inline.addr, align 8, !tbaa !3978, !dbg !4185
	%17 = bitcast %struct._ZSt9basic_iosIcSt11char_traitsIcEE*  %16 to i8*, !dbg !4185
	%18 = bitcast %struct._ZSt9basic_iosIcSt11char_traitsIcEE** %..inline.addr.1 to i8**, !dbg !4185
	store i8*  %17, i8**  %18, align 8, !tbaa !3978, !dbg !4185
	%19 = load %struct._ZSt9basic_iosIcSt11char_traitsIcEE*, %struct._ZSt9basic_iosIcSt11char_traitsIcEE** %..inline.addr.1, align 8, !tbaa !3978, !dbg !4185
	%20 = bitcast %struct._ZSt9basic_iosIcSt11char_traitsIcEE*  %19 to i8*, !dbg !4185
	%21 = getelementptr i8, i8*  %20, i64 32, !dbg !4185
	%22 = bitcast i8*  %21 to i32*, !dbg !4185
	%23 = load i32, i32*  %22, align 4, !tbaa !3977, !dbg !4185
	%24 = or i32  %23, 1, !dbg !4185
	call void  @_ZNSt9basic_iosIcSt11char_traitsIcEE5clearESt12_Ios_Iostate (%struct._ZSt9basic_iosIcSt11char_traitsIcEE*  %16, i32  %24), !dbg !4185
	br label %L..inline.69540, !dbg !4185
L..inline.69519:
	%25 = bitcast [36 x i8]* @.S53584 to i8*, !dbg !4188
	%26 = call i64  @strlen (i8*  %25) nounwind, !dbg !4188
	%27 = call %struct._ZSo*  @_ZSt16__ostream_insertIcSt11char_traitsIcEERSt13basic_ostreamIT_T0_ES6_PKS3_l (%struct._ZSo* @_ZSt4cerr, i8*  %25, i64  %26), !dbg !4188
	%28 = bitcast %struct._ZSo*  %27 to i8*, !dbg !4188
	%29 = bitcast %struct._ZSo** %.Q0003.addr to i8**, !dbg !4188
	store i8*  %28, i8**  %29, align 8, !tbaa !3978, !dbg !4188
	br label %L..inline.69540
L..inline.69540:
	%30 = load i32, i32* %derivative.addr, align 4, !tbaa !4195, !dbg !4189
	%31 = zext i32  %30 to i64, !dbg !4190
	%32 = call %struct._ZSo*  @_ZNSo9_M_insertImEERSoT_ (%struct._ZSo* @_ZSt4cerr, i64  %31), !dbg !4190
	%33 = bitcast %struct._ZSo*  %32 to i8*, !dbg !4190
	%34 = bitcast %struct._ZSo** %.Q0004.addr to i8**, !dbg !4190
	store i8*  %33, i8**  %34, align 8, !tbaa !3978, !dbg !4190
	%35 = load %struct._ZSo*, %struct._ZSo** %.Q0004.addr, align 8, !tbaa !3978, !dbg !4190
	%36 = bitcast %struct._ZSo*  %35 to i8*, !dbg !4190
	%37 = bitcast %struct._ZSo** %..inline.addr.5 to i8**, !dbg !4190
	store i8*  %36, i8**  %37, align 8, !tbaa !3978, !dbg !4190
	%38 = load %struct._ZSo*, %struct._ZSo** %..inline.addr.5, align 8, !tbaa !3978, !dbg !4191
	%39 = call %struct._ZSo*  @_ZSt4endlIcSt11char_traitsIcEERSt13basic_ostreamIT_T0_ES6_ (%struct._ZSo*  %38), !dbg !4191
	%40 = bitcast %struct._ZSo*  %39 to i8*, !dbg !4191
	%41 = bitcast %struct._ZSo** %.Q0005.addr to i8**, !dbg !4191
	store i8*  %40, i8**  %41, align 8, !tbaa !3978, !dbg !4191
	call void  @exit (i32 1) nounwind noreturn, !dbg !4192
	br label %L.B0002
L.B0002:
	br label %L.B0000
L.B0000:
	ret void, !dbg !4193
}
define linkonce_odr void @_ZN13FieldFunctionD1Ev(%struct.FieldFunction* %_T45627360_52062.arg) #0 inlinehint !dbg !4197 {
L.entry:
	%_T45627360_52062.addr = alloca %struct.FieldFunction*, align 8

	call void @llvm.dbg.declare (metadata %struct.FieldFunction** %_T45627360_52062.addr, metadata !4209, metadata !3970), !dbg !4198
	store %struct.FieldFunction* %_T45627360_52062.arg, %struct.FieldFunction** %_T45627360_52062.addr, align 8, !tbaa !3978
	call void @llvm.dbg.declare (metadata %struct.FieldFunction** %_T45627360_52062.addr, metadata !4210, metadata !3970), !dbg !4198
	%0 = bitcast [5 x i32 (...)* (...)*]* @_ZTV13FieldFunction to i8*, !dbg !4211
	%1 = getelementptr i8, i8*  %0, i64 16, !dbg !4211
	%2 = load %struct.FieldFunction*, %struct.FieldFunction** %_T45627360_52062.addr, align 8, !tbaa !3978, !dbg !4211
	%3 = bitcast %struct.FieldFunction*  %2 to i8**, !dbg !4211
	store i8*  %1, i8**  %3, align 8, !tbaa !3978, !dbg !4211
	%4 = bitcast [5 x i32 (...)* (...)*]* @_ZTV11T3DFunction to i8*, !dbg !4211
	%5 = getelementptr i8, i8*  %4, i64 16, !dbg !4211
	store i8*  %5, i8**  %3, align 8, !tbaa !3978, !dbg !4211
	ret void, !dbg !4212
}
define linkonce_odr void @_ZN13FieldFunctionD0Ev(%struct.FieldFunction* %_T45627360_52063.arg) #0 inlinehint !dbg !4214 {
L.entry:
	%_T45627360_52063.addr = alloca %struct.FieldFunction*, align 8
	%..inline.addr = alloca %struct.FieldFunction*, align 8

	store %struct.FieldFunction* %_T45627360_52063.arg, %struct.FieldFunction** %_T45627360_52063.addr, align 8, !tbaa !3978
	%0 = load %struct.FieldFunction*, %struct.FieldFunction** %_T45627360_52063.addr, align 8, !tbaa !3978, !dbg !4230
	%1 = bitcast %struct.FieldFunction*  %0 to i8*, !dbg !4230
	%2 = bitcast %struct.FieldFunction** %..inline.addr to i8**, !dbg !4230
	store i8*  %1, i8**  %2, align 8, !tbaa !3978, !dbg !4230
	%3 = bitcast [5 x i32 (...)* (...)*]* @_ZTV13FieldFunction to i8*, !dbg !4230
	%4 = getelementptr i8, i8*  %3, i64 16, !dbg !4230
	%5 = load %struct.FieldFunction*, %struct.FieldFunction** %..inline.addr, align 8, !tbaa !3978, !dbg !4230
	%6 = bitcast %struct.FieldFunction*  %5 to i8**, !dbg !4230
	store i8*  %4, i8**  %6, align 8, !tbaa !3978, !dbg !4230
	%7 = bitcast [5 x i32 (...)* (...)*]* @_ZTV11T3DFunction to i8*, !dbg !4230
	%8 = getelementptr i8, i8*  %7, i64 16, !dbg !4230
	store i8*  %8, i8**  %6, align 8, !tbaa !3978, !dbg !4230
	call void  @_ZdlPvm (i8*  %1, i64 24) nounwind, !dbg !4230
	ret void, !dbg !4230
}
define linkonce_odr void @_ZN13FieldFunctionD2Ev(%struct.FieldFunction* %_T45627360_52064.arg) #0 inlinehint !dbg !4232 {
L.entry:
	%_T45627360_52064.addr = alloca %struct.FieldFunction*, align 8
	%..inline.addr = alloca %struct.FieldFunction*, align 8

	store %struct.FieldFunction* %_T45627360_52064.arg, %struct.FieldFunction** %_T45627360_52064.addr, align 8, !tbaa !3978
	%0 = load %struct.FieldFunction*, %struct.FieldFunction** %_T45627360_52064.addr, align 8, !tbaa !3978, !dbg !4248
	%1 = bitcast %struct.FieldFunction*  %0 to i8*, !dbg !4248
	%2 = bitcast %struct.FieldFunction** %..inline.addr to i8**, !dbg !4248
	store i8*  %1, i8**  %2, align 8, !tbaa !3978, !dbg !4248
	%3 = bitcast [5 x i32 (...)* (...)*]* @_ZTV13FieldFunction to i8*, !dbg !4248
	%4 = getelementptr i8, i8*  %3, i64 16, !dbg !4248
	%5 = load %struct.FieldFunction*, %struct.FieldFunction** %..inline.addr, align 8, !tbaa !3978, !dbg !4248
	%6 = bitcast %struct.FieldFunction*  %5 to i8**, !dbg !4248
	store i8*  %4, i8**  %6, align 8, !tbaa !3978, !dbg !4248
	%7 = bitcast [5 x i32 (...)* (...)*]* @_ZTV11T3DFunction to i8*, !dbg !4248
	%8 = getelementptr i8, i8*  %7, i64 16, !dbg !4248
	store i8*  %8, i8**  %6, align 8, !tbaa !3978, !dbg !4248
	ret void, !dbg !4248
}

%struct.ConstantField = type <{ %struct.__SO__13FieldFunction, i8, [3 x i8], [3 x double]}> 
%struct.__SO__13FieldFunction = type <{ %struct.T3DFunction, i32, i32, i32}> 

define linkonce_odr void @_ZN13ConstantFieldC1Ev(%struct.ConstantField* %_T45627544_52065.arg) #0 inlinehint !dbg !4255 {
L.entry:
	%_T45627544_52065.addr = alloca %struct.ConstantField*, align 8
	%..inline.addr = alloca %struct.FieldFunction*, align 8

	call void @llvm.dbg.declare (metadata %struct.ConstantField** %_T45627544_52065.addr, metadata !4263, metadata !3970), !dbg !4256
	store %struct.ConstantField* %_T45627544_52065.arg, %struct.ConstantField** %_T45627544_52065.addr, align 8, !tbaa !3978
	call void @llvm.dbg.declare (metadata %struct.ConstantField** %_T45627544_52065.addr, metadata !4264, metadata !3970), !dbg !4256
	%0 = load %struct.ConstantField*, %struct.ConstantField** %_T45627544_52065.addr, align 8, !tbaa !3978, !dbg !4265
	%1 = bitcast %struct.ConstantField*  %0 to i8*, !dbg !4265
	%2 = bitcast %struct.FieldFunction** %..inline.addr to i8**, !dbg !4265
	store i8*  %1, i8**  %2, align 8, !tbaa !3978, !dbg !4265
	%3 = load %struct.FieldFunction*, %struct.FieldFunction** %..inline.addr, align 8, !tbaa !3978, !dbg !4265
	call void  @_ZN13FieldFunctionC1Ev (%struct.FieldFunction*  %3), !dbg !4265
	%4 = bitcast [5 x i32 (...)* (...)*]* @_ZTV13ConstantField to i8*, !dbg !4265
	%5 = getelementptr i8, i8*  %4, i64 16, !dbg !4265
	%6 = load %struct.ConstantField*, %struct.ConstantField** %_T45627544_52065.addr, align 8, !tbaa !3978, !dbg !4265
	%7 = bitcast %struct.ConstantField*  %6 to i8**, !dbg !4265
	store i8*  %5, i8**  %7, align 8, !tbaa !3978, !dbg !4265
	%8 = bitcast %struct.ConstantField*  %6 to i8*, !dbg !4268
	%9 = getelementptr i8, i8*  %8, i64 20, !dbg !4268
	store i8 0, i8*  %9, align 1, !tbaa !3977, !dbg !4268
	ret void, !dbg !4269
}
define linkonce_odr void @_ZN13ConstantFieldC2Ev(%struct.ConstantField* %_T45627360_52066.arg) #0 inlinehint !dbg !4271 {
L.entry:
	%_T45627360_52066.addr = alloca %struct.ConstantField*, align 8
	%..inline.addr = alloca %struct.ConstantField*, align 8
	%..inline.addr.1 = alloca %struct.FieldFunction*, align 8

	store %struct.ConstantField* %_T45627360_52066.arg, %struct.ConstantField** %_T45627360_52066.addr, align 8, !tbaa !3978
	%0 = load %struct.ConstantField*, %struct.ConstantField** %_T45627360_52066.addr, align 8, !tbaa !3978, !dbg !4283
	%1 = bitcast %struct.ConstantField*  %0 to i8*, !dbg !4283
	%2 = bitcast %struct.ConstantField** %..inline.addr to i8**, !dbg !4283
	store i8*  %1, i8**  %2, align 8, !tbaa !3978, !dbg !4283
	%3 = load %struct.ConstantField*, %struct.ConstantField** %..inline.addr, align 8, !tbaa !3978, !dbg !4284
	%4 = bitcast %struct.ConstantField*  %3 to i8*, !dbg !4284
	%5 = bitcast %struct.FieldFunction** %..inline.addr.1 to i8**, !dbg !4284
	store i8*  %4, i8**  %5, align 8, !tbaa !3978, !dbg !4284
	%6 = load %struct.FieldFunction*, %struct.FieldFunction** %..inline.addr.1, align 8, !tbaa !3978, !dbg !4284
	call void  @_ZN13FieldFunctionC1Ev (%struct.FieldFunction*  %6), !dbg !4284
	%7 = bitcast [5 x i32 (...)* (...)*]* @_ZTV13ConstantField to i8*, !dbg !4284
	%8 = getelementptr i8, i8*  %7, i64 16, !dbg !4284
	%9 = load %struct.ConstantField*, %struct.ConstantField** %..inline.addr, align 8, !tbaa !3978, !dbg !4284
	%10 = bitcast %struct.ConstantField*  %9 to i8**, !dbg !4284
	store i8*  %8, i8**  %10, align 8, !tbaa !3978, !dbg !4284
	%11 = bitcast %struct.ConstantField*  %9 to i8*, !dbg !4284
	%12 = getelementptr i8, i8*  %11, i64 20, !dbg !4284
	store i8 0, i8*  %12, align 1, !tbaa !3977, !dbg !4284
	ret void, !dbg !4283
}
define linkonce_odr void @_ZN13ConstantFieldD1Ev(%struct.ConstantField* %_T45627360_52067.arg) #0 inlinehint !dbg !4286 {
L.entry:
	%_T45627360_52067.addr = alloca %struct.ConstantField*, align 8
	%..inline.addr = alloca %struct.FieldFunction*, align 8

	call void @llvm.dbg.declare (metadata %struct.ConstantField** %_T45627360_52067.addr, metadata !4306, metadata !3970), !dbg !4287
	store %struct.ConstantField* %_T45627360_52067.arg, %struct.ConstantField** %_T45627360_52067.addr, align 8, !tbaa !3978
	call void @llvm.dbg.declare (metadata %struct.ConstantField** %_T45627360_52067.addr, metadata !4307, metadata !3970), !dbg !4287
	%0 = bitcast [5 x i32 (...)* (...)*]* @_ZTV13ConstantField to i8*, !dbg !4308
	%1 = getelementptr i8, i8*  %0, i64 16, !dbg !4308
	%2 = load %struct.ConstantField*, %struct.ConstantField** %_T45627360_52067.addr, align 8, !tbaa !3978, !dbg !4308
	%3 = bitcast %struct.ConstantField*  %2 to i8**, !dbg !4308
	store i8*  %1, i8**  %3, align 8, !tbaa !3978, !dbg !4308
	%4 = bitcast %struct.ConstantField*  %2 to i8*, !dbg !4308
	%5 = bitcast %struct.FieldFunction** %..inline.addr to i8**, !dbg !4308
	store i8*  %4, i8**  %5, align 8, !tbaa !3978, !dbg !4308
	%6 = bitcast [5 x i32 (...)* (...)*]* @_ZTV13FieldFunction to i8*, !dbg !4308
	%7 = getelementptr i8, i8*  %6, i64 16, !dbg !4308
	%8 = load %struct.FieldFunction*, %struct.FieldFunction** %..inline.addr, align 8, !tbaa !3978, !dbg !4308
	%9 = bitcast %struct.FieldFunction*  %8 to i8**, !dbg !4308
	store i8*  %7, i8**  %9, align 8, !tbaa !3978, !dbg !4308
	%10 = bitcast [5 x i32 (...)* (...)*]* @_ZTV11T3DFunction to i8*, !dbg !4308
	%11 = getelementptr i8, i8*  %10, i64 16, !dbg !4308
	store i8*  %11, i8**  %9, align 8, !tbaa !3978, !dbg !4308
	ret void, !dbg !4308
}
define linkonce_odr void @_ZN13ConstantFieldD0Ev(%struct.ConstantField* %_T45627360_52068.arg) #0 inlinehint !dbg !4310 {
L.entry:
	%_T45627360_52068.addr = alloca %struct.ConstantField*, align 8
	%..inline.addr = alloca %struct.ConstantField*, align 8
	%..inline.addr.1 = alloca %struct.FieldFunction*, align 8

	store %struct.ConstantField* %_T45627360_52068.arg, %struct.ConstantField** %_T45627360_52068.addr, align 8, !tbaa !3978
	%0 = load %struct.ConstantField*, %struct.ConstantField** %_T45627360_52068.addr, align 8, !tbaa !3978, !dbg !4334
	%1 = bitcast %struct.ConstantField*  %0 to i8*, !dbg !4334
	%2 = bitcast %struct.ConstantField** %..inline.addr to i8**, !dbg !4334
	store i8*  %1, i8**  %2, align 8, !tbaa !3978, !dbg !4334
	%3 = bitcast [5 x i32 (...)* (...)*]* @_ZTV13ConstantField to i8*, !dbg !4334
	%4 = getelementptr i8, i8*  %3, i64 16, !dbg !4334
	%5 = load %struct.ConstantField*, %struct.ConstantField** %..inline.addr, align 8, !tbaa !3978, !dbg !4334
	%6 = bitcast %struct.ConstantField*  %5 to i8**, !dbg !4334
	store i8*  %4, i8**  %6, align 8, !tbaa !3978, !dbg !4334
	%7 = bitcast %struct.ConstantField*  %5 to i8*, !dbg !4334
	%8 = bitcast %struct.FieldFunction** %..inline.addr.1 to i8**, !dbg !4334
	store i8*  %7, i8**  %8, align 8, !tbaa !3978, !dbg !4334
	%9 = bitcast [5 x i32 (...)* (...)*]* @_ZTV13FieldFunction to i8*, !dbg !4334
	%10 = getelementptr i8, i8*  %9, i64 16, !dbg !4334
	store i8*  %10, i8**  %6, align 8, !tbaa !3978, !dbg !4334
	%11 = bitcast [5 x i32 (...)* (...)*]* @_ZTV11T3DFunction to i8*, !dbg !4334
	%12 = getelementptr i8, i8*  %11, i64 16, !dbg !4334
	%13 = load %struct.FieldFunction*, %struct.FieldFunction** %..inline.addr.1, align 8, !tbaa !3978, !dbg !4334
	%14 = bitcast %struct.FieldFunction*  %13 to i8**, !dbg !4334
	store i8*  %12, i8**  %14, align 8, !tbaa !3978, !dbg !4334
	call void  @_ZdlPvm (i8*  %1, i64 48) nounwind, !dbg !4334
	ret void, !dbg !4334
}
define linkonce_odr void @_ZN13ConstantFieldD2Ev(%struct.ConstantField* %_T45627360_52069.arg) #0 inlinehint !dbg !4336 {
L.entry:
	%_T45627360_52069.addr = alloca %struct.ConstantField*, align 8
	%..inline.addr = alloca %struct.ConstantField*, align 8
	%..inline.addr.1 = alloca %struct.FieldFunction*, align 8

	store %struct.ConstantField* %_T45627360_52069.arg, %struct.ConstantField** %_T45627360_52069.addr, align 8, !tbaa !3978
	%0 = load %struct.ConstantField*, %struct.ConstantField** %_T45627360_52069.addr, align 8, !tbaa !3978, !dbg !4360
	%1 = bitcast %struct.ConstantField*  %0 to i8*, !dbg !4360
	%2 = bitcast %struct.ConstantField** %..inline.addr to i8**, !dbg !4360
	store i8*  %1, i8**  %2, align 8, !tbaa !3978, !dbg !4360
	%3 = bitcast [5 x i32 (...)* (...)*]* @_ZTV13ConstantField to i8*, !dbg !4360
	%4 = getelementptr i8, i8*  %3, i64 16, !dbg !4360
	%5 = load %struct.ConstantField*, %struct.ConstantField** %..inline.addr, align 8, !tbaa !3978, !dbg !4360
	%6 = bitcast %struct.ConstantField*  %5 to i8**, !dbg !4360
	store i8*  %4, i8**  %6, align 8, !tbaa !3978, !dbg !4360
	%7 = bitcast %struct.ConstantField*  %5 to i8*, !dbg !4360
	%8 = bitcast %struct.FieldFunction** %..inline.addr.1 to i8**, !dbg !4360
	store i8*  %7, i8**  %8, align 8, !tbaa !3978, !dbg !4360
	%9 = bitcast [5 x i32 (...)* (...)*]* @_ZTV13FieldFunction to i8*, !dbg !4360
	%10 = getelementptr i8, i8*  %9, i64 16, !dbg !4360
	store i8*  %10, i8**  %6, align 8, !tbaa !3978, !dbg !4360
	%11 = bitcast [5 x i32 (...)* (...)*]* @_ZTV11T3DFunction to i8*, !dbg !4360
	%12 = getelementptr i8, i8*  %11, i64 16, !dbg !4360
	%13 = load %struct.FieldFunction*, %struct.FieldFunction** %..inline.addr.1, align 8, !tbaa !3978, !dbg !4360
	%14 = bitcast %struct.FieldFunction*  %13 to i8**, !dbg !4360
	store i8*  %12, i8**  %14, align 8, !tbaa !3978, !dbg !4360
	ret void, !dbg !4360
}
define linkonce_odr void @_ZNSt11char_traitsIcE6assignERcRKc(i8* %__c1.arg, i8* %__c2.arg) #0 inlinehint !dbg !4367 {
L.entry:
	%__c1.addr = alloca i8*, align 8
	%__c2.addr = alloca i8*, align 8

	call void @llvm.dbg.declare (metadata i8** %__c1.addr, metadata !4371, metadata !3970), !dbg !4368
	store i8* %__c1.arg, i8** %__c1.addr, align 8, !tbaa !3978
	call void @llvm.dbg.declare (metadata i8** %__c1.addr, metadata !4372, metadata !3970), !dbg !4368
	call void @llvm.dbg.declare (metadata i8** %__c2.addr, metadata !4373, metadata !3970), !dbg !4368
	store i8* %__c2.arg, i8** %__c2.addr, align 8, !tbaa !3978
	call void @llvm.dbg.declare (metadata i8** %__c2.addr, metadata !4374, metadata !3970), !dbg !4368
	%0 = load i8*, i8** %__c2.addr, align 8, !tbaa !3978, !dbg !4375
	%1 = load i8, i8*  %0, align 1, !tbaa !3977, !dbg !4375
	%2 = load i8*, i8** %__c1.addr, align 8, !tbaa !3978, !dbg !4375
	store i8  %1, i8*  %2, align 1, !tbaa !3977, !dbg !4375
	ret void, !dbg !4375
}
define linkonce_odr i64 @_ZNSt11char_traitsIcE6lengthEPKc(i8* %__s.arg) #0 inlinehint !dbg !4379 {
L.entry:
	%__s.addr = alloca i8*, align 8

	call void @llvm.dbg.declare (metadata i8** %__s.addr, metadata !4383, metadata !3970), !dbg !4380
	store i8* %__s.arg, i8** %__s.addr, align 8, !tbaa !3978
	call void @llvm.dbg.declare (metadata i8** %__s.addr, metadata !4384, metadata !3970), !dbg !4380
	%0 = load i8*, i8** %__s.addr, align 8, !tbaa !3978, !dbg !4385
	%1 = call i64  @strlen (i8*  %0) nounwind, !dbg !4385
	ret i64  %1, !dbg !4385
}
define linkonce_odr i8* @_ZNSt11char_traitsIcE4copyEPcPKcm(i8* %__s1.arg, i8* %__s2.arg, i64 %__n.arg) #0 inlinehint !dbg !4390 {
L.entry:
	%__s1.addr = alloca i8*, align 8
	%__s2.addr = alloca i8*, align 8
	%__n.addr = alloca i64, align 8

	call void @llvm.dbg.declare (metadata i8** %__s1.addr, metadata !4394, metadata !3970), !dbg !4391
	store i8* %__s1.arg, i8** %__s1.addr, align 8, !tbaa !3978
	call void @llvm.dbg.declare (metadata i8** %__s1.addr, metadata !4395, metadata !3970), !dbg !4391
	call void @llvm.dbg.declare (metadata i8** %__s2.addr, metadata !4396, metadata !3970), !dbg !4391
	store i8* %__s2.arg, i8** %__s2.addr, align 8, !tbaa !3978
	call void @llvm.dbg.declare (metadata i8** %__s2.addr, metadata !4397, metadata !3970), !dbg !4391
	call void @llvm.dbg.declare (metadata i64* %__n.addr, metadata !4398, metadata !3970), !dbg !4391
	store i64 %__n.arg, i64* %__n.addr, align 8, !tbaa !3977
	call void @llvm.dbg.declare (metadata i64* %__n.addr, metadata !4399, metadata !3970), !dbg !4391
	%0 = load i64, i64* %__n.addr, align 8, !tbaa !4405, !dbg !4400
	%1 = icmp ne i64  %0, 0, !dbg !4400
	br i1  %1, label %L.B0004, label %L.B1257, !dbg !4400
L.B1257:
	%2 = load i8*, i8** %__s1.addr, align 8, !tbaa !3978, !dbg !4401
	ret i8*  %2, !dbg !4401
L.B1258:
	br label %L.R0022, !dbg !4401
L.B0004:
	%3 = load i8*, i8** %__s1.addr, align 8, !tbaa !3978, !dbg !4402
	%4 = load i8*, i8** %__s2.addr, align 8, !tbaa !3978, !dbg !4402
	%5 = load i64, i64* %__n.addr, align 8, !tbaa !4405, !dbg !4402
	%6 = call i8*  @memcpy (i8*  %3, i8*  %4, i64  %5) nounwind, !dbg !4402
	ret i8*  %6, !dbg !4402
L.R0022:
	ret i8* null
}

%struct._ZSaIcE = type <{ [1 x i8]}> 

define linkonce_odr void @_ZNSaIcEC1Ev(%struct._ZSaIcE* %_T45627360_52078.arg) #0 inlinehint !dbg !4412 {
L.entry:
	%_T45627360_52078.addr = alloca %struct._ZSaIcE*, align 8

	call void @llvm.dbg.declare (metadata %struct._ZSaIcE** %_T45627360_52078.addr, metadata !4416, metadata !3970), !dbg !4413
	store %struct._ZSaIcE* %_T45627360_52078.arg, %struct._ZSaIcE** %_T45627360_52078.addr, align 8, !tbaa !3978
	call void @llvm.dbg.declare (metadata %struct._ZSaIcE** %_T45627360_52078.addr, metadata !4417, metadata !3970), !dbg !4413
	ret void, !dbg !4418
}
define linkonce_odr void @_ZNSaIcEC2Ev(%struct._ZSaIcE* %_T45627360_52079.arg) #0 inlinehint !dbg !4420 {
L.entry:
	%_T45627360_52079.addr = alloca %struct._ZSaIcE*, align 8

	store %struct._ZSaIcE* %_T45627360_52079.arg, %struct._ZSaIcE** %_T45627360_52079.addr, align 8, !tbaa !3978
	ret void, !dbg !4428
}
define linkonce_odr void @_ZNSaIcEC1ERKS_(%struct._ZSaIcE* %_T45627360_52080.arg, %struct._ZSaIcE* %__a.arg) #0 inlinehint !dbg !4436 {
L.entry:
	%_T45627360_52080.addr = alloca %struct._ZSaIcE*, align 8
	%__a.addr = alloca %struct._ZSaIcE*, align 8

	call void @llvm.dbg.declare (metadata %struct._ZSaIcE** %_T45627360_52080.addr, metadata !4440, metadata !3970), !dbg !4437
	store %struct._ZSaIcE* %_T45627360_52080.arg, %struct._ZSaIcE** %_T45627360_52080.addr, align 8, !tbaa !3978
	call void @llvm.dbg.declare (metadata %struct._ZSaIcE** %_T45627360_52080.addr, metadata !4441, metadata !3970), !dbg !4437
	call void @llvm.dbg.declare (metadata %struct._ZSaIcE** %__a.addr, metadata !4442, metadata !3970), !dbg !4437
	store %struct._ZSaIcE* %__a.arg, %struct._ZSaIcE** %__a.addr, align 8, !tbaa !3978
	call void @llvm.dbg.declare (metadata %struct._ZSaIcE** %__a.addr, metadata !4443, metadata !3970), !dbg !4437
	ret void, !dbg !4444
}
define linkonce_odr void @_ZNSaIcEC2ERKS_(%struct._ZSaIcE* %_T45627360_52081.arg, %struct._ZSaIcE* %_T45627656_52081.arg) #0 inlinehint !dbg !4446 {
L.entry:
	%_T45627360_52081.addr = alloca %struct._ZSaIcE*, align 8
	%_T45627656_52081.addr = alloca %struct._ZSaIcE*, align 8

	store %struct._ZSaIcE* %_T45627360_52081.arg, %struct._ZSaIcE** %_T45627360_52081.addr, align 8, !tbaa !3978
	store %struct._ZSaIcE* %_T45627656_52081.arg, %struct._ZSaIcE** %_T45627656_52081.addr, align 8, !tbaa !3978
	ret void, !dbg !4454
}
define linkonce_odr void @_ZNSaIcED1Ev(%struct._ZSaIcE* %_T45627360_52082.arg) #0 inlinehint !dbg !4456 {
L.entry:
	%_T45627360_52082.addr = alloca %struct._ZSaIcE*, align 8

	call void @llvm.dbg.declare (metadata %struct._ZSaIcE** %_T45627360_52082.addr, metadata !4460, metadata !3970), !dbg !4457
	store %struct._ZSaIcE* %_T45627360_52082.arg, %struct._ZSaIcE** %_T45627360_52082.addr, align 8, !tbaa !3978
	call void @llvm.dbg.declare (metadata %struct._ZSaIcE** %_T45627360_52082.addr, metadata !4461, metadata !3970), !dbg !4457
	ret void, !dbg !4462
}
define linkonce_odr void @_ZNSaIcED2Ev(%struct._ZSaIcE* %_T45627360_52083.arg) #0 inlinehint !dbg !4464 {
L.entry:
	%_T45627360_52083.addr = alloca %struct._ZSaIcE*, align 8

	store %struct._ZSaIcE* %_T45627360_52083.arg, %struct._ZSaIcE** %_T45627360_52083.addr, align 8, !tbaa !3978
	ret void, !dbg !4472
}
define linkonce_odr void @_ZNSt16allocator_traitsISaIcEE10deallocateERS0_Pcm(%struct._ZSaIcE* %__a.arg, i8* %__p.arg, i64 %__n.arg) #0 inlinehint !dbg !4482 {
L.entry:
	%__a.addr = alloca %struct._ZSaIcE*, align 8
	%__p.addr = alloca i8*, align 8
	%__n.addr = alloca i64, align 8
	%..inline.addr = alloca i8*, align 8

	call void @llvm.dbg.declare (metadata %struct._ZSaIcE** %__a.addr, metadata !4490, metadata !3970), !dbg !4483
	store %struct._ZSaIcE* %__a.arg, %struct._ZSaIcE** %__a.addr, align 8, !tbaa !3978
	call void @llvm.dbg.declare (metadata %struct._ZSaIcE** %__a.addr, metadata !4491, metadata !3970), !dbg !4483
	call void @llvm.dbg.declare (metadata i8** %__p.addr, metadata !4492, metadata !3970), !dbg !4483
	store i8* %__p.arg, i8** %__p.addr, align 8, !tbaa !3978
	call void @llvm.dbg.declare (metadata i8** %__p.addr, metadata !4493, metadata !3970), !dbg !4483
	call void @llvm.dbg.declare (metadata i64* %__n.addr, metadata !4494, metadata !3970), !dbg !4483
	store i64 %__n.arg, i64* %__n.addr, align 8, !tbaa !3977
	call void @llvm.dbg.declare (metadata i64* %__n.addr, metadata !4495, metadata !3970), !dbg !4483
	%0 = load i8*, i8** %__p.addr, align 8, !tbaa !3978, !dbg !4496
	call void  @_ZdlPv (i8*  %0) nounwind, !dbg !4497
	ret void, !dbg !4496
}
define linkonce_odr i64 @_ZNSt16allocator_traitsISaIcEE8max_sizeERKS0_(%struct._ZSaIcE* %__a.arg) #0 inlinehint !dbg !4505 {
L.entry:
	%__a.addr = alloca %struct._ZSaIcE*, align 8

	call void @llvm.dbg.declare (metadata %struct._ZSaIcE** %__a.addr, metadata !4513, metadata !3970), !dbg !4506
	store %struct._ZSaIcE* %__a.arg, %struct._ZSaIcE** %__a.addr, align 8, !tbaa !3978
	call void @llvm.dbg.declare (metadata %struct._ZSaIcE** %__a.addr, metadata !4514, metadata !3970), !dbg !4506
	ret i64 -1, !dbg !4515
}
define linkonce_odr void @_ZNSt16allocator_traitsISaIcEE37select_on_container_copy_constructionERKS0_(%struct._ZSaIcE* sret %_T45627360_52091.arg, %struct._ZSaIcE* %__rhs.arg) #0 inlinehint !dbg !4520 {
L.entry:
	%_T45627360_52091.addr = alloca %struct._ZSaIcE*, align 8
	%__rhs.addr = alloca %struct._ZSaIcE*, align 8

	store %struct._ZSaIcE* %_T45627360_52091.arg, %struct._ZSaIcE** %_T45627360_52091.addr, align 8, !tbaa !3978
	call void @llvm.dbg.declare (metadata %struct._ZSaIcE** %__rhs.addr, metadata !4524, metadata !3970), !dbg !4521
	store %struct._ZSaIcE* %__rhs.arg, %struct._ZSaIcE** %__rhs.addr, align 8, !tbaa !3978
	call void @llvm.dbg.declare (metadata %struct._ZSaIcE** %__rhs.addr, metadata !4525, metadata !3970), !dbg !4521
	ret void, !dbg !4526
}
define linkonce_odr signext i8 @_ZNKSt5ctypeIcE5widenEc(%struct._ZSt5ctypeIcE* %_T45627544_52095.arg, i8 signext %__c.arg) #0 inlinehint !dbg !4532 {
L.entry:
	%_T45627544_52095.addr = alloca %struct._ZSt5ctypeIcE*, align 8
	%__c.addr = alloca i8, align 1
	%.Q0006.addr = alloca i32, align 4

	call void @llvm.dbg.declare (metadata %struct._ZSt5ctypeIcE** %_T45627544_52095.addr, metadata !4536, metadata !3970), !dbg !4533
	store %struct._ZSt5ctypeIcE* %_T45627544_52095.arg, %struct._ZSt5ctypeIcE** %_T45627544_52095.addr, align 8, !tbaa !3978
	call void @llvm.dbg.declare (metadata %struct._ZSt5ctypeIcE** %_T45627544_52095.addr, metadata !4537, metadata !3970), !dbg !4533
	call void @llvm.dbg.declare (metadata i8* %__c.addr, metadata !4538, metadata !3970), !dbg !4533
	store i8 %__c.arg, i8* %__c.addr, align 1, !tbaa !3977
	call void @llvm.dbg.declare (metadata i8* %__c.addr, metadata !4539, metadata !3970), !dbg !4533
	%0 = load %struct._ZSt5ctypeIcE*, %struct._ZSt5ctypeIcE** %_T45627544_52095.addr, align 8, !tbaa !3978, !dbg !4540
	%1 = bitcast %struct._ZSt5ctypeIcE*  %0 to i8*, !dbg !4540
	%2 = getelementptr i8, i8*  %1, i64 56, !dbg !4540
	%3 = load i8, i8*  %2, align 1, !tbaa !3977, !dbg !4540
	%4 = sext i8  %3 to i32, !dbg !4540
	%5 = icmp eq i32  %4, 0, !dbg !4540
	br i1  %5, label %L.B0005, label %L.B1269, !dbg !4540
L.B1269:
	%6 = bitcast %struct._ZSt5ctypeIcE*  %0 to i8*, !dbg !4541
	%7 = getelementptr i8, i8*  %6, i64 57, !dbg !4541
	%8 = load i8, i8* %__c.addr, align 1, !tbaa !3977, !dbg !4541
	%9 = sext i8  %8 to i32, !dbg !4541
	%10 = and i32  %9, 255, !dbg !4541
	%11 = sext i32  %10 to i64, !dbg !4541
	%12 = getelementptr i8, i8*  %7, i64  %11, !dbg !4541
	%13 = load i8, i8*  %12, align 1, !tbaa !3977, !dbg !4541
	ret i8  %13, !dbg !4541
L.B1270:
	br label %L.R0032, !dbg !4541
L.B0005:
	%14 = load %struct._ZSt5ctypeIcE*, %struct._ZSt5ctypeIcE** %_T45627544_52095.addr, align 8, !tbaa !3978, !dbg !4542
	call void  @_ZNKSt5ctypeIcE13_M_widen_initEv (%struct._ZSt5ctypeIcE*  %14), !dbg !4542
	%15 = load %struct._ZSt5ctypeIcE*, %struct._ZSt5ctypeIcE** %_T45627544_52095.addr, align 8, !tbaa !3978, !dbg !4543
	%16 = load i8, i8* %__c.addr, align 1, !tbaa !3977, !dbg !4543
	%17 = bitcast %struct._ZSt5ctypeIcE*  %15 to i8**, !dbg !4543
	%18 = load i8*, i8**  %17, align 8, !tbaa !3978, !dbg !4543
	%19 = getelementptr i8, i8*  %18, i64 48, !dbg !4543
	%20 = bitcast i8*  %19 to i8 (%struct._ZSt5ctypeIcE*, i8)**, !dbg !4543
	%21 = load i8 (%struct._ZSt5ctypeIcE*, i8)*, i8 (%struct._ZSt5ctypeIcE*, i8)**  %20, align 8, !tbaa !3978, !dbg !4543
	%22 = call i8  %21 (%struct._ZSt5ctypeIcE*  %15, i8  %16), !dbg !4543
	%23 = sext i8  %22 to i32, !dbg !4543
	store i32  %23, i32* %.Q0006.addr, align 4, !tbaa !4195, !dbg !4543
	%24 = shl i32  %23, 24, !dbg !4543
	%25 = ashr i32  %24, 24, !dbg !4543
	%26 = trunc i32  %25 to i8, !dbg !4543
	ret i8  %26, !dbg !4543
L.R0032:
	ret i8 0
}
define linkonce_odr signext i32 @_ZNKSt9basic_iosIcSt11char_traitsIcEE7rdstateEv(%struct._ZSt9basic_iosIcSt11char_traitsIcEE* %_T45627360_52098.arg) #0 inlinehint !dbg !4551 {
L.entry:
	%_T45627360_52098.addr = alloca %struct._ZSt9basic_iosIcSt11char_traitsIcEE*, align 8

	call void @llvm.dbg.declare (metadata %struct._ZSt9basic_iosIcSt11char_traitsIcEE** %_T45627360_52098.addr, metadata !4555, metadata !3970), !dbg !4552
	store %struct._ZSt9basic_iosIcSt11char_traitsIcEE* %_T45627360_52098.arg, %struct._ZSt9basic_iosIcSt11char_traitsIcEE** %_T45627360_52098.addr, align 8, !tbaa !3978
	call void @llvm.dbg.declare (metadata %struct._ZSt9basic_iosIcSt11char_traitsIcEE** %_T45627360_52098.addr, metadata !4556, metadata !3970), !dbg !4552
	%0 = load %struct._ZSt9basic_iosIcSt11char_traitsIcEE*, %struct._ZSt9basic_iosIcSt11char_traitsIcEE** %_T45627360_52098.addr, align 8, !tbaa !3978, !dbg !4557
	%1 = bitcast %struct._ZSt9basic_iosIcSt11char_traitsIcEE*  %0 to i8*, !dbg !4557
	%2 = getelementptr i8, i8*  %1, i64 32, !dbg !4557
	%3 = bitcast i8*  %2 to i32*, !dbg !4557
	%4 = load i32, i32*  %3, align 4, !tbaa !3977, !dbg !4557
	ret i32  %4, !dbg !4557
}
define linkonce_odr void @_ZNSt9basic_iosIcSt11char_traitsIcEE8setstateESt12_Ios_Iostate(%struct._ZSt9basic_iosIcSt11char_traitsIcEE* %_T45627360_52102.arg, i32 signext %__state.arg) #0 inlinehint !dbg !4561 {
L.entry:
	%_T45627360_52102.addr = alloca %struct._ZSt9basic_iosIcSt11char_traitsIcEE*, align 8
	%__state.addr = alloca i32, align 4
	%..inline.addr = alloca i32, align 4

	call void @llvm.dbg.declare (metadata %struct._ZSt9basic_iosIcSt11char_traitsIcEE** %_T45627360_52102.addr, metadata !4573, metadata !3970), !dbg !4562
	store %struct._ZSt9basic_iosIcSt11char_traitsIcEE* %_T45627360_52102.arg, %struct._ZSt9basic_iosIcSt11char_traitsIcEE** %_T45627360_52102.addr, align 8, !tbaa !3978
	call void @llvm.dbg.declare (metadata %struct._ZSt9basic_iosIcSt11char_traitsIcEE** %_T45627360_52102.addr, metadata !4574, metadata !3970), !dbg !4562
	call void @llvm.dbg.declare (metadata i32* %__state.addr, metadata !4575, metadata !3970), !dbg !4562
	store i32 %__state.arg, i32* %__state.addr, align 4, !tbaa !3977
	call void @llvm.dbg.declare (metadata i32* %__state.addr, metadata !4576, metadata !3970), !dbg !4562
	%0 = load i32, i32* %__state.addr, align 4, !tbaa !3977, !dbg !4577
	%1 = load %struct._ZSt9basic_iosIcSt11char_traitsIcEE*, %struct._ZSt9basic_iosIcSt11char_traitsIcEE** %_T45627360_52102.addr, align 8, !tbaa !3978, !dbg !4577
	%2 = bitcast %struct._ZSt9basic_iosIcSt11char_traitsIcEE*  %1 to i8*, !dbg !4577
	%3 = getelementptr i8, i8*  %2, i64 32, !dbg !4577
	%4 = bitcast i8*  %3 to i32*, !dbg !4577
	%5 = load i32, i32*  %4, align 4, !tbaa !3977, !dbg !4577
	%6 = or i32  %0,  %5, !dbg !4577
	call void  @_ZNSt9basic_iosIcSt11char_traitsIcEE5clearESt12_Ios_Iostate (%struct._ZSt9basic_iosIcSt11char_traitsIcEE*  %1, i32  %6), !dbg !4578
	ret void, !dbg !4577
}
define linkonce_odr signext i8 @_ZNKSt9basic_iosIcSt11char_traitsIcEE5widenEc(%struct._ZSt9basic_iosIcSt11char_traitsIcEE* %_T45627360_52104.arg, i8 signext %__c.arg) #0 inlinehint !dbg !4582 {
L.entry:
	%_T45627360_52104.addr = alloca %struct._ZSt9basic_iosIcSt11char_traitsIcEE*, align 8
	%__c.addr = alloca i8, align 1
	%..inline.addr = alloca %struct._ZSt5ctypeIcE*, align 8
	%..inline.addr.1 = alloca %struct._ZSt5ctypeIcE*, align 8
	%..inline.addr.2 = alloca i8, align 1
	%..inline.addr.3 = alloca i8, align 1
	%.Q0007.addr = alloca i32, align 4

	call void @llvm.dbg.declare (metadata %struct._ZSt9basic_iosIcSt11char_traitsIcEE** %_T45627360_52104.addr, metadata !4594, metadata !3970), !dbg !4583
	store %struct._ZSt9basic_iosIcSt11char_traitsIcEE* %_T45627360_52104.arg, %struct._ZSt9basic_iosIcSt11char_traitsIcEE** %_T45627360_52104.addr, align 8, !tbaa !3978
	call void @llvm.dbg.declare (metadata %struct._ZSt9basic_iosIcSt11char_traitsIcEE** %_T45627360_52104.addr, metadata !4595, metadata !3970), !dbg !4583
	call void @llvm.dbg.declare (metadata i8* %__c.addr, metadata !4596, metadata !3970), !dbg !4583
	store i8 %__c.arg, i8* %__c.addr, align 1, !tbaa !3977
	call void @llvm.dbg.declare (metadata i8* %__c.addr, metadata !4597, metadata !3970), !dbg !4583
	%0 = load %struct._ZSt9basic_iosIcSt11char_traitsIcEE*, %struct._ZSt9basic_iosIcSt11char_traitsIcEE** %_T45627360_52104.addr, align 8, !tbaa !3978, !dbg !4598
	%1 = bitcast %struct._ZSt9basic_iosIcSt11char_traitsIcEE*  %0 to i8*, !dbg !4598
	%2 = getelementptr i8, i8*  %1, i64 240, !dbg !4598
	%3 = bitcast i8*  %2 to i8**, !dbg !4598
	%4 = load i8*, i8**  %3, align 8, !tbaa !3978, !dbg !4598
	%5 = bitcast %struct._ZSt5ctypeIcE** %..inline.addr to i8**, !dbg !4598
	store i8*  %4, i8**  %5, align 8, !tbaa !3978, !dbg !4598
	%6 = load %struct._ZSt5ctypeIcE*, %struct._ZSt5ctypeIcE** %..inline.addr, align 8, !tbaa !3978, !dbg !4598
	%7 = bitcast %struct._ZSt5ctypeIcE*  %6 to i8*, !dbg !4598
	%8 = icmp ne i8*  %7,  null, !dbg !4598
	br i1  %8, label %L..inline.69888, label %L.B1279, !dbg !4598
L.B1279:
	call void  @_ZSt16__throw_bad_castv () noreturn, !dbg !4599
	br label %L..inline.69888
L..inline.69888:
	%9 = load %struct._ZSt5ctypeIcE*, %struct._ZSt5ctypeIcE** %..inline.addr, align 8, !tbaa !3978, !dbg !4600
	%10 = bitcast %struct._ZSt5ctypeIcE*  %9 to i8*, !dbg !4600
	%11 = bitcast %struct._ZSt5ctypeIcE** %..inline.addr.1 to i8**, !dbg !4600
	store i8*  %10, i8**  %11, align 8, !tbaa !3978, !dbg !4600
	%12 = load i8, i8* %__c.addr, align 1, !tbaa !3977, !dbg !4598
	store i8  %12, i8* %..inline.addr.2, align 1, !tbaa !3977, !dbg !4598
	%13 = load %struct._ZSt5ctypeIcE*, %struct._ZSt5ctypeIcE** %..inline.addr.1, align 8, !tbaa !3978, !dbg !4598
	%14 = bitcast %struct._ZSt5ctypeIcE*  %13 to i8*, !dbg !4598
	%15 = getelementptr i8, i8*  %14, i64 56, !dbg !4598
	%16 = load i8, i8*  %15, align 1, !tbaa !3977, !dbg !4598
	%17 = sext i8  %16 to i32, !dbg !4598
	%18 = icmp eq i32  %17, 0, !dbg !4598
	br i1  %18, label %L..inline.69894, label %L.B1280, !dbg !4598
L.B1280:
	%19 = bitcast %struct._ZSt5ctypeIcE*  %13 to i8*, !dbg !4601
	%20 = getelementptr i8, i8*  %19, i64 57, !dbg !4601
	%21 = sext i8  %12 to i32, !dbg !4601
	%22 = and i32  %21, 255, !dbg !4601
	%23 = sext i32  %22 to i64, !dbg !4601
	%24 = getelementptr i8, i8*  %20, i64  %23, !dbg !4601
	%25 = load i8, i8*  %24, align 1, !tbaa !3977, !dbg !4601
	store i8  %25, i8* %..inline.addr.3, align 1, !tbaa !3977, !dbg !4601
	br label %L..inline.69898, !dbg !4602
L..inline.69894:
	%26 = load %struct._ZSt5ctypeIcE*, %struct._ZSt5ctypeIcE** %..inline.addr.1, align 8, !tbaa !3978, !dbg !4603
	call void  @_ZNKSt5ctypeIcE13_M_widen_initEv (%struct._ZSt5ctypeIcE*  %26), !dbg !4603
	%27 = load %struct._ZSt5ctypeIcE*, %struct._ZSt5ctypeIcE** %..inline.addr.1, align 8, !tbaa !3978, !dbg !4604
	%28 = load i8, i8* %..inline.addr.2, align 1, !tbaa !3977, !dbg !4604
	%29 = bitcast %struct._ZSt5ctypeIcE*  %27 to i8**, !dbg !4604
	%30 = load i8*, i8**  %29, align 8, !tbaa !3978, !dbg !4604
	%31 = getelementptr i8, i8*  %30, i64 48, !dbg !4604
	%32 = bitcast i8*  %31 to i8 (%struct._ZSt5ctypeIcE*, i8)**, !dbg !4604
	%33 = load i8 (%struct._ZSt5ctypeIcE*, i8)*, i8 (%struct._ZSt5ctypeIcE*, i8)**  %32, align 8, !tbaa !3978, !dbg !4604
	%34 = call i8  %33 (%struct._ZSt5ctypeIcE*  %27, i8  %28), !dbg !4604
	%35 = sext i8  %34 to i32, !dbg !4604
	store i32  %35, i32* %.Q0007.addr, align 4, !tbaa !4195, !dbg !4604
	%36 = shl i32  %35, 24, !dbg !4604
	%37 = ashr i32  %36, 24, !dbg !4604
	%38 = trunc i32  %37 to i8, !dbg !4604
	store i8  %38, i8* %..inline.addr.3, align 1, !tbaa !3977, !dbg !4604
	br label %L..inline.69898
L..inline.69898:
	%39 = load i8, i8* %..inline.addr.3, align 1, !tbaa !3977, !dbg !4605
	ret i8  %39, !dbg !4605
}
define linkonce_odr %struct._ZSo* @_ZNSolsEPFRSoS_E(%struct._ZSo* %_T45627360_52106.arg, %struct._ZSo* (%struct._ZSo*)* %__pf.arg) #0 inlinehint !dbg !4614 {
L.entry:
	%_T45627360_52106.addr = alloca %struct._ZSo*, align 8
	%__pf.addr = alloca %struct._ZSo* (%struct._ZSo*)*, align 8
	%.Q0008.addr = alloca %struct._ZSo*, align 8

	call void @llvm.dbg.declare (metadata %struct._ZSo** %_T45627360_52106.addr, metadata !4618, metadata !3970), !dbg !4615
	store %struct._ZSo* %_T45627360_52106.arg, %struct._ZSo** %_T45627360_52106.addr, align 8, !tbaa !3978
	call void @llvm.dbg.declare (metadata %struct._ZSo** %_T45627360_52106.addr, metadata !4619, metadata !3970), !dbg !4615
	call void @llvm.dbg.declare (metadata %struct._ZSo* (%struct._ZSo*)** %__pf.addr, metadata !4620, metadata !3970), !dbg !4615
	store %struct._ZSo* (%struct._ZSo*)* %__pf.arg, %struct._ZSo* (%struct._ZSo*)** %__pf.addr, align 8, !tbaa !3978
	call void @llvm.dbg.declare (metadata %struct._ZSo* (%struct._ZSo*)** %__pf.addr, metadata !4621, metadata !3970), !dbg !4615
	%0 = load %struct._ZSo*, %struct._ZSo** %_T45627360_52106.addr, align 8, !tbaa !3978, !dbg !4622
	%1 = load %struct._ZSo* (%struct._ZSo*)*, %struct._ZSo* (%struct._ZSo*)** %__pf.addr, align 8, !tbaa !3978, !dbg !4622
	%2 = call %struct._ZSo*  %1 (%struct._ZSo*  %0), !dbg !4622
	%3 = bitcast %struct._ZSo*  %2 to i8*, !dbg !4622
	%4 = bitcast %struct._ZSo** %.Q0008.addr to i8**, !dbg !4622
	store i8*  %3, i8**  %4, align 8, !tbaa !3978, !dbg !4622
	%5 = load %struct._ZSo*, %struct._ZSo** %.Q0008.addr, align 8, !tbaa !3978, !dbg !4622
	ret %struct._ZSo*  %5, !dbg !4622
}
define linkonce_odr %struct._ZSo* @_ZNSolsEj(%struct._ZSo* %_T45627360_52107.arg, i32 zeroext %__n.arg) #0 inlinehint !dbg !4627 {
L.entry:
	%_T45627360_52107.addr = alloca %struct._ZSo*, align 8
	%__n.addr = alloca i32, align 4
	%.Q0009.addr = alloca %struct._ZSo*, align 8

	call void @llvm.dbg.declare (metadata %struct._ZSo** %_T45627360_52107.addr, metadata !4631, metadata !3970), !dbg !4628
	store %struct._ZSo* %_T45627360_52107.arg, %struct._ZSo** %_T45627360_52107.addr, align 8, !tbaa !3978
	call void @llvm.dbg.declare (metadata %struct._ZSo** %_T45627360_52107.addr, metadata !4632, metadata !3970), !dbg !4628
	call void @llvm.dbg.declare (metadata i32* %__n.addr, metadata !4633, metadata !3970), !dbg !4628
	store i32 %__n.arg, i32* %__n.addr, align 4, !tbaa !3977
	call void @llvm.dbg.declare (metadata i32* %__n.addr, metadata !4634, metadata !3970), !dbg !4628
	%0 = load %struct._ZSo*, %struct._ZSo** %_T45627360_52107.addr, align 8, !tbaa !3978, !dbg !4635
	%1 = load i32, i32* %__n.addr, align 4, !tbaa !4195, !dbg !4635
	%2 = zext i32  %1 to i64, !dbg !4635
	%3 = call %struct._ZSo*  @_ZNSo9_M_insertImEERSoT_ (%struct._ZSo*  %0, i64  %2), !dbg !4635
	%4 = bitcast %struct._ZSo*  %3 to i8*, !dbg !4635
	%5 = bitcast %struct._ZSo** %.Q0009.addr to i8**, !dbg !4635
	store i8*  %4, i8**  %5, align 8, !tbaa !3978, !dbg !4635
	%6 = load %struct._ZSo*, %struct._ZSo** %.Q0009.addr, align 8, !tbaa !3978, !dbg !4635
	ret %struct._ZSo*  %6, !dbg !4635
}
define linkonce_odr void @_ZNSt12_Destroy_auxILb1EE9__destroyIPjEEvT_S3_(i32* %_T45627360_52114.arg, i32* %_T45627656_52114.arg) #0 inlinehint !dbg !4642 {
L.entry:
	%_T45627360_52114.addr = alloca i32*, align 8
	%_T45627656_52114.addr = alloca i32*, align 8

	call void @llvm.dbg.declare (metadata i32** %_T45627360_52114.addr, metadata !4646, metadata !3970), !dbg !4643
	store i32* %_T45627360_52114.arg, i32** %_T45627360_52114.addr, align 8, !tbaa !3978
	call void @llvm.dbg.declare (metadata i32** %_T45627360_52114.addr, metadata !4647, metadata !3970), !dbg !4643
	call void @llvm.dbg.declare (metadata i32** %_T45627656_52114.addr, metadata !4648, metadata !3970), !dbg !4643
	store i32* %_T45627656_52114.arg, i32** %_T45627656_52114.addr, align 8, !tbaa !3978
	call void @llvm.dbg.declare (metadata i32** %_T45627656_52114.addr, metadata !4649, metadata !3970), !dbg !4643
	ret void, !dbg !4650
}
define linkonce_odr void @_ZNSt12_Destroy_auxILb1EE9__destroyIPdEEvT_S3_(double* %_T45627360_52117.arg, double* %_T45627656_52117.arg) #0 inlinehint !dbg !4654 {
L.entry:
	%_T45627360_52117.addr = alloca double*, align 8
	%_T45627656_52117.addr = alloca double*, align 8

	call void @llvm.dbg.declare (metadata double** %_T45627360_52117.addr, metadata !4658, metadata !3970), !dbg !4655
	store double* %_T45627360_52117.arg, double** %_T45627360_52117.addr, align 8, !tbaa !3978
	call void @llvm.dbg.declare (metadata double** %_T45627360_52117.addr, metadata !4659, metadata !3970), !dbg !4655
	call void @llvm.dbg.declare (metadata double** %_T45627656_52117.addr, metadata !4660, metadata !3970), !dbg !4655
	store double* %_T45627656_52117.arg, double** %_T45627656_52117.addr, align 8, !tbaa !3978
	call void @llvm.dbg.declare (metadata double** %_T45627656_52117.addr, metadata !4661, metadata !3970), !dbg !4655
	ret void, !dbg !4662
}

%struct._ZN8projects25FirehoseSpeciesParametersE = type <{ [2 x double], [2 x double], [2 x double], [2 x double], [2 x double], [2 x double], [2 x double], i32, i32}> 

define linkonce_odr void @_ZNSt12_Destroy_auxILb1EE9__destroyIPN8projects25FirehoseSpeciesParametersEEEvT_S5_(%struct._ZN8projects25FirehoseSpeciesParametersE* %_T45627360_52120.arg, %struct._ZN8projects25FirehoseSpeciesParametersE* %_T45627656_52120.arg) #0 inlinehint !dbg !4666 {
L.entry:
	%_T45627360_52120.addr = alloca %struct._ZN8projects25FirehoseSpeciesParametersE*, align 8
	%_T45627656_52120.addr = alloca %struct._ZN8projects25FirehoseSpeciesParametersE*, align 8

	call void @llvm.dbg.declare (metadata %struct._ZN8projects25FirehoseSpeciesParametersE** %_T45627360_52120.addr, metadata !4670, metadata !3970), !dbg !4667
	store %struct._ZN8projects25FirehoseSpeciesParametersE* %_T45627360_52120.arg, %struct._ZN8projects25FirehoseSpeciesParametersE** %_T45627360_52120.addr, align 8, !tbaa !3978
	call void @llvm.dbg.declare (metadata %struct._ZN8projects25FirehoseSpeciesParametersE** %_T45627360_52120.addr, metadata !4671, metadata !3970), !dbg !4667
	call void @llvm.dbg.declare (metadata %struct._ZN8projects25FirehoseSpeciesParametersE** %_T45627656_52120.addr, metadata !4672, metadata !3970), !dbg !4667
	store %struct._ZN8projects25FirehoseSpeciesParametersE* %_T45627656_52120.arg, %struct._ZN8projects25FirehoseSpeciesParametersE** %_T45627656_52120.addr, align 8, !tbaa !3978
	call void @llvm.dbg.declare (metadata %struct._ZN8projects25FirehoseSpeciesParametersE** %_T45627656_52120.addr, metadata !4673, metadata !3970), !dbg !4667
	ret void, !dbg !4674
}

%struct._ZSt13move_iteratorIPN8projects25FirehoseSpeciesParametersEE = type <{ %struct._ZN8projects25FirehoseSpeciesParametersE*}> 

define linkonce_odr %struct._ZN8projects25FirehoseSpeciesParametersE* @_ZNSt20__uninitialized_copyILb1EE13__uninit_copyISt13move_iteratorIPN8projects25FirehoseSpeciesParametersEES5_EET0_T_S8_S7_(i64 %__first.coerce, i64 %__last.coerce, %struct._ZN8projects25FirehoseSpeciesParametersE* %__result.arg) #0 inlinehint !dbg !4680 {
L.entry:
	%__first.addr = alloca %struct._ZSt13move_iteratorIPN8projects25FirehoseSpeciesParametersEE, align 8
	%__last.addr = alloca %struct._ZSt13move_iteratorIPN8projects25FirehoseSpeciesParametersEE, align 8
	%__result.addr = alloca %struct._ZN8projects25FirehoseSpeciesParametersE*, align 8
	%..inline.addr = alloca %struct._ZN8projects25FirehoseSpeciesParametersE*, align 8
	%..inline.addr.1 = alloca %struct._ZN8projects25FirehoseSpeciesParametersE*, align 8
	%..inline.addr.2 = alloca i64, align 8

	call void @llvm.dbg.declare (metadata %struct._ZSt13move_iteratorIPN8projects25FirehoseSpeciesParametersEE* %__first.addr, metadata !4740, metadata !3970), !dbg !4681
	%0 = bitcast %struct._ZSt13move_iteratorIPN8projects25FirehoseSpeciesParametersEE* %__first.addr to i64*
	store i64 %__first.coerce, i64*  %0, align 8, !tbaa !3977
	call void @llvm.dbg.declare (metadata %struct._ZSt13move_iteratorIPN8projects25FirehoseSpeciesParametersEE* %__first.addr, metadata !4741, metadata !3970), !dbg !4681
	call void @llvm.dbg.declare (metadata %struct._ZSt13move_iteratorIPN8projects25FirehoseSpeciesParametersEE* %__last.addr, metadata !4742, metadata !3970), !dbg !4681
	%1 = bitcast %struct._ZSt13move_iteratorIPN8projects25FirehoseSpeciesParametersEE* %__last.addr to i64*
	store i64 %__last.coerce, i64*  %1, align 8, !tbaa !3977
	call void @llvm.dbg.declare (metadata %struct._ZSt13move_iteratorIPN8projects25FirehoseSpeciesParametersEE* %__last.addr, metadata !4743, metadata !3970), !dbg !4681
	call void @llvm.dbg.declare (metadata %struct._ZN8projects25FirehoseSpeciesParametersE** %__result.addr, metadata !4744, metadata !3970), !dbg !4681
	store %struct._ZN8projects25FirehoseSpeciesParametersE* %__result.arg, %struct._ZN8projects25FirehoseSpeciesParametersE** %__result.addr, align 8, !tbaa !3978
	call void @llvm.dbg.declare (metadata %struct._ZN8projects25FirehoseSpeciesParametersE** %__result.addr, metadata !4745, metadata !3970), !dbg !4681
	%2 = bitcast %struct._ZSt13move_iteratorIPN8projects25FirehoseSpeciesParametersEE* %__first.addr to i8**, !dbg !4746
	%3 = load i8*, i8**  %2, align 8, !tbaa !3978, !dbg !4746
	%4 = bitcast %struct._ZN8projects25FirehoseSpeciesParametersE** %..inline.addr to i8**, !dbg !4746
	store i8*  %3, i8**  %4, align 8, !tbaa !3978, !dbg !4746
	%5 = load %struct._ZN8projects25FirehoseSpeciesParametersE*, %struct._ZN8projects25FirehoseSpeciesParametersE** %__result.addr, align 8, !tbaa !3978, !dbg !4746
	%6 = bitcast %struct._ZN8projects25FirehoseSpeciesParametersE*  %5 to i8*, !dbg !4746
	%7 = bitcast %struct._ZN8projects25FirehoseSpeciesParametersE** %..inline.addr.1 to i8**, !dbg !4746
	store i8*  %6, i8**  %7, align 8, !tbaa !3978, !dbg !4746
	%8 = bitcast %struct._ZSt13move_iteratorIPN8projects25FirehoseSpeciesParametersEE* %__last.addr to i8**, !dbg !4746
	%9 = load i8*, i8**  %8, align 8, !tbaa !3978, !dbg !4746
	%10 = ptrtoint i8*  %3 to i64, !dbg !4746
	%11 = sub i64 0,  %10, !dbg !4746
	%12 = getelementptr i8, i8*  %9, i64  %11, !dbg !4746
	%13 = ptrtoint i8*  %12 to i64, !dbg !4746
	%14 = sub i64 0,  %10, !dbg !4746
	%15 = getelementptr i8, i8*  %9, i64  %14, !dbg !4746
	%16 = ptrtoint i8*  %15 to i64, !dbg !4746
	%17 = sext i64 -8608480567731124087 to i128, !dbg !4746
	%18 = sext i64  %16 to i128, !dbg !4746
	%19 = mul i128  %17,  %18, !dbg !4746
	%20 = ashr i128  %19, 64, !dbg !4746
	%21 = trunc i128  %20 to i64, !dbg !4746
	%22 = add i64  %13,  %21, !dbg !4746
	%23 = sext i32 6 to i64, !dbg !4746
	%24 = ashr i64  %22,  %23, !dbg !4746
	%25 = sub i64 0,  %10, !dbg !4746
	%26 = getelementptr i8, i8*  %9, i64  %25, !dbg !4746
	%27 = ptrtoint i8*  %26 to i64, !dbg !4746
	%28 = sext i32 63 to i64, !dbg !4746
	%29 = ashr i64  %27,  %28, !dbg !4746
	%30 = sub i64  %24,  %29, !dbg !4746
	store i64  %30, i64* %..inline.addr.2, align 8, !tbaa !4405, !dbg !4746
	%31 = icmp eq i64  %30, 0, !dbg !4746
	br i1  %31, label %L..inline.70014, label %L.B1283, !dbg !4746
L.B1283:
	%32 = load %struct._ZN8projects25FirehoseSpeciesParametersE*, %struct._ZN8projects25FirehoseSpeciesParametersE** %..inline.addr.1, align 8, !tbaa !3978, !dbg !4746
	%33 = bitcast %struct._ZN8projects25FirehoseSpeciesParametersE*  %32 to i8*, !dbg !4746
	%34 = load %struct._ZN8projects25FirehoseSpeciesParametersE*, %struct._ZN8projects25FirehoseSpeciesParametersE** %..inline.addr, align 8, !tbaa !3978, !dbg !4746
	%35 = bitcast %struct._ZN8projects25FirehoseSpeciesParametersE*  %34 to i8*, !dbg !4746
	%36 = mul i64  %30, 120, !dbg !4746
	%37 = call i8*  @memmove (i8*  %33, i8*  %35, i64  %36) nounwind, !dbg !4746
	br label %L..inline.70014
L..inline.70014:
	%38 = load %struct._ZN8projects25FirehoseSpeciesParametersE*, %struct._ZN8projects25FirehoseSpeciesParametersE** %..inline.addr.1, align 8, !tbaa !3978, !dbg !4747
	%39 = bitcast %struct._ZN8projects25FirehoseSpeciesParametersE*  %38 to i8*, !dbg !4747
	%40 = load i64, i64* %..inline.addr.2, align 8, !tbaa !4405, !dbg !4747
	%41 = mul i64  %40, 120, !dbg !4747
	%42 = getelementptr i8, i8*  %39, i64  %41, !dbg !4747
	%43 = bitcast i8*  %42 to %struct._ZN8projects25FirehoseSpeciesParametersE*, !dbg !4747
	ret %struct._ZN8projects25FirehoseSpeciesParametersE*  %43, !dbg !4747
}

%struct._ZSaIjE = type <{ [1 x i8]}> 

define linkonce_odr void @_ZNSaIjED1Ev(%struct._ZSaIjE* %_T45627360_52124.arg) #0 inlinehint !dbg !4756 {
L.entry:
	%_T45627360_52124.addr = alloca %struct._ZSaIjE*, align 8

	call void @llvm.dbg.declare (metadata %struct._ZSaIjE** %_T45627360_52124.addr, metadata !4760, metadata !3970), !dbg !4757
	store %struct._ZSaIjE* %_T45627360_52124.arg, %struct._ZSaIjE** %_T45627360_52124.addr, align 8, !tbaa !3978
	call void @llvm.dbg.declare (metadata %struct._ZSaIjE** %_T45627360_52124.addr, metadata !4761, metadata !3970), !dbg !4757
	ret void, !dbg !4762
}
define linkonce_odr void @_ZNSaIjED2Ev(%struct._ZSaIjE* %_T45627360_52125.arg) #0 inlinehint !dbg !4764 {
L.entry:
	%_T45627360_52125.addr = alloca %struct._ZSaIjE*, align 8

	store %struct._ZSaIjE* %_T45627360_52125.arg, %struct._ZSaIjE** %_T45627360_52125.addr, align 8, !tbaa !3978
	ret void, !dbg !4772
}
define linkonce_odr void @_ZNSt16allocator_traitsISaIjEE10deallocateERS0_Pjm(%struct._ZSaIjE* %__a.arg, i32* %__p.arg, i64 %__n.arg) #0 inlinehint !dbg !4780 {
L.entry:
	%__a.addr = alloca %struct._ZSaIjE*, align 8
	%__p.addr = alloca i32*, align 8
	%__n.addr = alloca i64, align 8
	%..inline.addr = alloca i32*, align 8

	call void @llvm.dbg.declare (metadata %struct._ZSaIjE** %__a.addr, metadata !4788, metadata !3970), !dbg !4781
	store %struct._ZSaIjE* %__a.arg, %struct._ZSaIjE** %__a.addr, align 8, !tbaa !3978
	call void @llvm.dbg.declare (metadata %struct._ZSaIjE** %__a.addr, metadata !4789, metadata !3970), !dbg !4781
	call void @llvm.dbg.declare (metadata i32** %__p.addr, metadata !4790, metadata !3970), !dbg !4781
	store i32* %__p.arg, i32** %__p.addr, align 8, !tbaa !3978
	call void @llvm.dbg.declare (metadata i32** %__p.addr, metadata !4791, metadata !3970), !dbg !4781
	call void @llvm.dbg.declare (metadata i64* %__n.addr, metadata !4792, metadata !3970), !dbg !4781
	store i64 %__n.arg, i64* %__n.addr, align 8, !tbaa !3977
	call void @llvm.dbg.declare (metadata i64* %__n.addr, metadata !4793, metadata !3970), !dbg !4781
	%0 = load i32*, i32** %__p.addr, align 8, !tbaa !3978, !dbg !4794
	%1 = bitcast i32*  %0 to i8*, !dbg !4794
	%2 = bitcast i32** %..inline.addr to i8**, !dbg !4794
	store i8*  %1, i8**  %2, align 8, !tbaa !3978, !dbg !4794
	%3 = load i32*, i32** %..inline.addr, align 8, !tbaa !3978, !dbg !4795
	%4 = bitcast i32*  %3 to i8*, !dbg !4795
	call void  @_ZdlPv (i8*  %4) nounwind, !dbg !4795
	ret void, !dbg !4794
}

%struct._ZSt12_Vector_baseIjSaIjEE = type <{ %struct._ZNSt12_Vector_baseIjSaIjEE12_Vector_implE}> 
%struct._ZNSt12_Vector_baseIjSaIjEE17_Vector_impl_dataE = type <{ i32*, i32*, i32*}> 
%struct._ZNSt12_Vector_baseIjSaIjEE12_Vector_implE = type <{ %struct._ZNSt12_Vector_baseIjSaIjEE17_Vector_impl_dataE}> 

define linkonce_odr %struct._ZSaIjE* @_ZNSt12_Vector_baseIjSaIjEE19_M_get_Tp_allocatorEv(%struct._ZSt12_Vector_baseIjSaIjEE* %_T45627360_52131.arg) #0 inlinehint !dbg !4803 {
L.entry:
	%_T45627360_52131.addr = alloca %struct._ZSt12_Vector_baseIjSaIjEE*, align 8

	call void @llvm.dbg.declare (metadata %struct._ZSt12_Vector_baseIjSaIjEE** %_T45627360_52131.addr, metadata !4807, metadata !3970), !dbg !4804
	store %struct._ZSt12_Vector_baseIjSaIjEE* %_T45627360_52131.arg, %struct._ZSt12_Vector_baseIjSaIjEE** %_T45627360_52131.addr, align 8, !tbaa !3978
	call void @llvm.dbg.declare (metadata %struct._ZSt12_Vector_baseIjSaIjEE** %_T45627360_52131.addr, metadata !4808, metadata !3970), !dbg !4804
	%0 = load %struct._ZSt12_Vector_baseIjSaIjEE*, %struct._ZSt12_Vector_baseIjSaIjEE** %_T45627360_52131.addr, align 8, !tbaa !3978, !dbg !4809
	%1 = bitcast %struct._ZSt12_Vector_baseIjSaIjEE*  %0 to %struct._ZSaIjE*, !dbg !4809
	ret %struct._ZSaIjE*  %1, !dbg !4809
}
define linkonce_odr void @_ZNSt12_Vector_baseIjSaIjEED1Ev(%struct._ZSt12_Vector_baseIjSaIjEE* %_T45627360_52132.arg) #0 inlinehint !dbg !4813 {
L.entry:
	%_T45627360_52132.addr = alloca %struct._ZSt12_Vector_baseIjSaIjEE*, align 8
	%..inline.addr = alloca i32*, align 8

	call void @llvm.dbg.declare (metadata %struct._ZSt12_Vector_baseIjSaIjEE** %_T45627360_52132.addr, metadata !4841, metadata !3970), !dbg !4814
	store %struct._ZSt12_Vector_baseIjSaIjEE* %_T45627360_52132.arg, %struct._ZSt12_Vector_baseIjSaIjEE** %_T45627360_52132.addr, align 8, !tbaa !3978
	call void @llvm.dbg.declare (metadata %struct._ZSt12_Vector_baseIjSaIjEE** %_T45627360_52132.addr, metadata !4842, metadata !3970), !dbg !4814
	%0 = load %struct._ZSt12_Vector_baseIjSaIjEE*, %struct._ZSt12_Vector_baseIjSaIjEE** %_T45627360_52132.addr, align 8, !tbaa !3978, !dbg !4843
	%1 = bitcast %struct._ZSt12_Vector_baseIjSaIjEE*  %0 to i8**, !dbg !4843
	%2 = load i8*, i8**  %1, align 8, !tbaa !3978, !dbg !4843
	%3 = icmp eq i8*  %2,  null, !dbg !4843
	br i1  %3, label %L..inline.70102, label %L.B1292, !dbg !4843
L.B1292:
	%4 = bitcast %struct._ZSt12_Vector_baseIjSaIjEE*  %0 to i8**, !dbg !4844
	%5 = load i8*, i8**  %4, align 8, !tbaa !3978, !dbg !4844
	%6 = bitcast i32** %..inline.addr to i8**, !dbg !4844
	store i8*  %5, i8**  %6, align 8, !tbaa !3978, !dbg !4844
	%7 = load i32*, i32** %..inline.addr, align 8, !tbaa !3978, !dbg !4844
	%8 = bitcast i32*  %7 to i8*, !dbg !4844
	call void  @_ZdlPv (i8*  %8) nounwind, !dbg !4844
	br label %L..inline.70102
L..inline.70102:
	ret void, !dbg !4845
}
define linkonce_odr void @_ZNSt12_Vector_baseIjSaIjEED2Ev(%struct._ZSt12_Vector_baseIjSaIjEE* %_T45627360_52133.arg) #0 inlinehint !dbg !4847 {
L.entry:
	%_T45627360_52133.addr = alloca %struct._ZSt12_Vector_baseIjSaIjEE*, align 8
	%..inline.addr = alloca %struct._ZSt12_Vector_baseIjSaIjEE*, align 8
	%..inline.addr.1 = alloca i32*, align 8

	store %struct._ZSt12_Vector_baseIjSaIjEE* %_T45627360_52133.arg, %struct._ZSt12_Vector_baseIjSaIjEE** %_T45627360_52133.addr, align 8, !tbaa !3978
	%0 = load %struct._ZSt12_Vector_baseIjSaIjEE*, %struct._ZSt12_Vector_baseIjSaIjEE** %_T45627360_52133.addr, align 8, !tbaa !3978, !dbg !4879
	%1 = bitcast %struct._ZSt12_Vector_baseIjSaIjEE*  %0 to i8*, !dbg !4879
	%2 = bitcast %struct._ZSt12_Vector_baseIjSaIjEE** %..inline.addr to i8**, !dbg !4879
	store i8*  %1, i8**  %2, align 8, !tbaa !3978, !dbg !4879
	%3 = load %struct._ZSt12_Vector_baseIjSaIjEE*, %struct._ZSt12_Vector_baseIjSaIjEE** %..inline.addr, align 8, !tbaa !3978, !dbg !4879
	%4 = bitcast %struct._ZSt12_Vector_baseIjSaIjEE*  %3 to i8**, !dbg !4879
	%5 = load i8*, i8**  %4, align 8, !tbaa !3978, !dbg !4879
	%6 = icmp eq i8*  %5,  null, !dbg !4879
	br i1  %6, label %L..inline.70162, label %L.B1295, !dbg !4879
L.B1295:
	%7 = bitcast %struct._ZSt12_Vector_baseIjSaIjEE*  %3 to i8**, !dbg !4879
	%8 = load i8*, i8**  %7, align 8, !tbaa !3978, !dbg !4879
	%9 = bitcast i32** %..inline.addr.1 to i8**, !dbg !4879
	store i8*  %8, i8**  %9, align 8, !tbaa !3978, !dbg !4879
	%10 = load i32*, i32** %..inline.addr.1, align 8, !tbaa !3978, !dbg !4879
	%11 = bitcast i32*  %10 to i8*, !dbg !4879
	call void  @_ZdlPv (i8*  %11) nounwind, !dbg !4879
	br label %L..inline.70162
L..inline.70162:
	ret void, !dbg !4880
}
define linkonce_odr void @_ZNSt12_Vector_baseIjSaIjEE13_M_deallocateEPjm(%struct._ZSt12_Vector_baseIjSaIjEE* %_T45627360_52136.arg, i32* %__p.arg, i64 %__n.arg) #0 inlinehint !dbg !4884 {
L.entry:
	%_T45627360_52136.addr = alloca %struct._ZSt12_Vector_baseIjSaIjEE*, align 8
	%__p.addr = alloca i32*, align 8
	%__n.addr = alloca i64, align 8
	%..inline.addr = alloca i32*, align 8

	call void @llvm.dbg.declare (metadata %struct._ZSt12_Vector_baseIjSaIjEE** %_T45627360_52136.addr, metadata !4896, metadata !3970), !dbg !4885
	store %struct._ZSt12_Vector_baseIjSaIjEE* %_T45627360_52136.arg, %struct._ZSt12_Vector_baseIjSaIjEE** %_T45627360_52136.addr, align 8, !tbaa !3978
	call void @llvm.dbg.declare (metadata %struct._ZSt12_Vector_baseIjSaIjEE** %_T45627360_52136.addr, metadata !4897, metadata !3970), !dbg !4885
	call void @llvm.dbg.declare (metadata i32** %__p.addr, metadata !4898, metadata !3970), !dbg !4885
	store i32* %__p.arg, i32** %__p.addr, align 8, !tbaa !3978
	call void @llvm.dbg.declare (metadata i32** %__p.addr, metadata !4899, metadata !3970), !dbg !4885
	call void @llvm.dbg.declare (metadata i64* %__n.addr, metadata !4900, metadata !3970), !dbg !4885
	store i64 %__n.arg, i64* %__n.addr, align 8, !tbaa !3977
	call void @llvm.dbg.declare (metadata i64* %__n.addr, metadata !4901, metadata !3970), !dbg !4885
	%0 = load i32*, i32** %__p.addr, align 8, !tbaa !3978, !dbg !4902
	%1 = bitcast i32*  %0 to i8*, !dbg !4902
	%2 = icmp eq i8*  %1,  null, !dbg !4902
	br i1  %2, label %L.B0006, label %L.B1298, !dbg !4902
L.B1298:
	%3 = bitcast i32*  %0 to i8*, !dbg !4903
	%4 = bitcast i32** %..inline.addr to i8**, !dbg !4903
	store i8*  %3, i8**  %4, align 8, !tbaa !3978, !dbg !4903
	%5 = load i32*, i32** %..inline.addr, align 8, !tbaa !3978, !dbg !4903
	%6 = bitcast i32*  %5 to i8*, !dbg !4903
	call void  @_ZdlPv (i8*  %6) nounwind, !dbg !4903
	br label %L.B0006
L.B0006:
	ret void, !dbg !4904
}
define linkonce_odr void @_ZNSt12_Vector_baseIjSaIjEE12_Vector_implD1Ev(%struct._ZNSt12_Vector_baseIjSaIjEE12_Vector_implE* %_T45627360_52137.arg) #0 inlinehint !dbg !4909 {
L.entry:
	%_T45627360_52137.addr = alloca %struct._ZNSt12_Vector_baseIjSaIjEE12_Vector_implE*, align 8

	call void @llvm.dbg.declare (metadata %struct._ZNSt12_Vector_baseIjSaIjEE12_Vector_implE** %_T45627360_52137.addr, metadata !4921, metadata !3970), !dbg !4910
	store %struct._ZNSt12_Vector_baseIjSaIjEE12_Vector_implE* %_T45627360_52137.arg, %struct._ZNSt12_Vector_baseIjSaIjEE12_Vector_implE** %_T45627360_52137.addr, align 8, !tbaa !3978
	call void @llvm.dbg.declare (metadata %struct._ZNSt12_Vector_baseIjSaIjEE12_Vector_implE** %_T45627360_52137.addr, metadata !4922, metadata !3970), !dbg !4910
	ret void, !dbg !4923
}
define linkonce_odr void @_ZNSt12_Vector_baseIjSaIjEE12_Vector_implD2Ev(%struct._ZNSt12_Vector_baseIjSaIjEE12_Vector_implE* %_T45627360_52138.arg) #0 inlinehint !dbg !4925 {
L.entry:
	%_T45627360_52138.addr = alloca %struct._ZNSt12_Vector_baseIjSaIjEE12_Vector_implE*, align 8

	store %struct._ZNSt12_Vector_baseIjSaIjEE12_Vector_implE* %_T45627360_52138.arg, %struct._ZNSt12_Vector_baseIjSaIjEE12_Vector_implE** %_T45627360_52138.addr, align 8, !tbaa !3978
	ret void, !dbg !4941
}

%struct._ZSt6vectorIjSaIjEE = type <{ %struct._ZSt12_Vector_baseIjSaIjEE}> 

define linkonce_odr void @_ZNSt6vectorIjSaIjEED1Ev(%struct._ZSt6vectorIjSaIjEE* %_T45627360_52139.arg) #0 inlinehint !dbg !4945 {
L.entry:
	%_T45627360_52139.addr = alloca %struct._ZSt6vectorIjSaIjEE*, align 8
	%..inline.addr = alloca %struct._ZSt12_Vector_baseIjSaIjEE*, align 8
	%..inline.addr.1 = alloca i32*, align 8

	call void @llvm.dbg.declare (metadata %struct._ZSt6vectorIjSaIjEE** %_T45627360_52139.addr, metadata !4997, metadata !3970), !dbg !4946
	store %struct._ZSt6vectorIjSaIjEE* %_T45627360_52139.arg, %struct._ZSt6vectorIjSaIjEE** %_T45627360_52139.addr, align 8, !tbaa !3978
	call void @llvm.dbg.declare (metadata %struct._ZSt6vectorIjSaIjEE** %_T45627360_52139.addr, metadata !4998, metadata !3970), !dbg !4946
	%0 = load %struct._ZSt6vectorIjSaIjEE*, %struct._ZSt6vectorIjSaIjEE** %_T45627360_52139.addr, align 8, !tbaa !3978, !dbg !4999
	%1 = bitcast %struct._ZSt6vectorIjSaIjEE*  %0 to i8*, !dbg !4999
	%2 = bitcast %struct._ZSt12_Vector_baseIjSaIjEE** %..inline.addr to i8**, !dbg !4999
	store i8*  %1, i8**  %2, align 8, !tbaa !3978, !dbg !4999
	%3 = load %struct._ZSt12_Vector_baseIjSaIjEE*, %struct._ZSt12_Vector_baseIjSaIjEE** %..inline.addr, align 8, !tbaa !3978, !dbg !5000
	%4 = bitcast %struct._ZSt12_Vector_baseIjSaIjEE*  %3 to i8**, !dbg !5000
	%5 = load i8*, i8**  %4, align 8, !tbaa !3978, !dbg !5000
	%6 = icmp eq i8*  %5,  null, !dbg !5000
	br i1  %6, label %L..inline.70313, label %L.B1309, !dbg !5000
L.B1309:
	%7 = bitcast %struct._ZSt12_Vector_baseIjSaIjEE*  %3 to i8**, !dbg !5000
	%8 = load i8*, i8**  %7, align 8, !tbaa !3978, !dbg !5000
	%9 = bitcast i32** %..inline.addr.1 to i8**, !dbg !5000
	store i8*  %8, i8**  %9, align 8, !tbaa !3978, !dbg !5000
	%10 = load i32*, i32** %..inline.addr.1, align 8, !tbaa !3978, !dbg !5000
	%11 = bitcast i32*  %10 to i8*, !dbg !5000
	call void  @_ZdlPv (i8*  %11) nounwind, !dbg !5000
	br label %L..inline.70313
L..inline.70313:
	ret void, !dbg !4999
}
define linkonce_odr void @_ZNSt6vectorIjSaIjEED2Ev(%struct._ZSt6vectorIjSaIjEE* %_T45627360_52140.arg) #0 inlinehint !dbg !5002 {
L.entry:
	%_T45627360_52140.addr = alloca %struct._ZSt6vectorIjSaIjEE*, align 8
	%..inline.addr = alloca %struct._ZSt12_Vector_baseIjSaIjEE*, align 8
	%..inline.addr.1 = alloca i32*, align 8

	store %struct._ZSt6vectorIjSaIjEE* %_T45627360_52140.arg, %struct._ZSt6vectorIjSaIjEE** %_T45627360_52140.addr, align 8, !tbaa !3978
	%0 = load %struct._ZSt6vectorIjSaIjEE*, %struct._ZSt6vectorIjSaIjEE** %_T45627360_52140.addr, align 8, !tbaa !3978, !dbg !5058
	%1 = bitcast %struct._ZSt6vectorIjSaIjEE*  %0 to i8*, !dbg !5058
	%2 = bitcast %struct._ZSt12_Vector_baseIjSaIjEE** %..inline.addr to i8**, !dbg !5058
	store i8*  %1, i8**  %2, align 8, !tbaa !3978, !dbg !5058
	%3 = load %struct._ZSt12_Vector_baseIjSaIjEE*, %struct._ZSt12_Vector_baseIjSaIjEE** %..inline.addr, align 8, !tbaa !3978, !dbg !5058
	%4 = bitcast %struct._ZSt12_Vector_baseIjSaIjEE*  %3 to i8**, !dbg !5058
	%5 = load i8*, i8**  %4, align 8, !tbaa !3978, !dbg !5058
	%6 = icmp eq i8*  %5,  null, !dbg !5058
	br i1  %6, label %L..inline.70417, label %L.B1312, !dbg !5058
L.B1312:
	%7 = bitcast %struct._ZSt12_Vector_baseIjSaIjEE*  %3 to i8**, !dbg !5058
	%8 = load i8*, i8**  %7, align 8, !tbaa !3978, !dbg !5058
	%9 = bitcast i32** %..inline.addr.1 to i8**, !dbg !5058
	store i8*  %8, i8**  %9, align 8, !tbaa !3978, !dbg !5058
	%10 = load i32*, i32** %..inline.addr.1, align 8, !tbaa !3978, !dbg !5058
	%11 = bitcast i32*  %10 to i8*, !dbg !5058
	call void  @_ZdlPv (i8*  %11) nounwind, !dbg !5058
	br label %L..inline.70417
L..inline.70417:
	ret void, !dbg !5058
}

%struct._ZSaIdE = type <{ [1 x i8]}> 

define linkonce_odr void @_ZNSaIdED1Ev(%struct._ZSaIdE* %_T45627360_52141.arg) #0 inlinehint !dbg !5066 {
L.entry:
	%_T45627360_52141.addr = alloca %struct._ZSaIdE*, align 8

	call void @llvm.dbg.declare (metadata %struct._ZSaIdE** %_T45627360_52141.addr, metadata !5070, metadata !3970), !dbg !5067
	store %struct._ZSaIdE* %_T45627360_52141.arg, %struct._ZSaIdE** %_T45627360_52141.addr, align 8, !tbaa !3978
	call void @llvm.dbg.declare (metadata %struct._ZSaIdE** %_T45627360_52141.addr, metadata !5071, metadata !3970), !dbg !5067
	ret void, !dbg !5072
}
define linkonce_odr void @_ZNSaIdED2Ev(%struct._ZSaIdE* %_T45627360_52142.arg) #0 inlinehint !dbg !5074 {
L.entry:
	%_T45627360_52142.addr = alloca %struct._ZSaIdE*, align 8

	store %struct._ZSaIdE* %_T45627360_52142.arg, %struct._ZSaIdE** %_T45627360_52142.addr, align 8, !tbaa !3978
	ret void, !dbg !5082
}
define linkonce_odr void @_ZNSt16allocator_traitsISaIdEE10deallocateERS0_Pdm(%struct._ZSaIdE* %__a.arg, double* %__p.arg, i64 %__n.arg) #0 inlinehint !dbg !5090 {
L.entry:
	%__a.addr = alloca %struct._ZSaIdE*, align 8
	%__p.addr = alloca double*, align 8
	%__n.addr = alloca i64, align 8
	%..inline.addr = alloca double*, align 8

	call void @llvm.dbg.declare (metadata %struct._ZSaIdE** %__a.addr, metadata !5098, metadata !3970), !dbg !5091
	store %struct._ZSaIdE* %__a.arg, %struct._ZSaIdE** %__a.addr, align 8, !tbaa !3978
	call void @llvm.dbg.declare (metadata %struct._ZSaIdE** %__a.addr, metadata !5099, metadata !3970), !dbg !5091
	call void @llvm.dbg.declare (metadata double** %__p.addr, metadata !5100, metadata !3970), !dbg !5091
	store double* %__p.arg, double** %__p.addr, align 8, !tbaa !3978
	call void @llvm.dbg.declare (metadata double** %__p.addr, metadata !5101, metadata !3970), !dbg !5091
	call void @llvm.dbg.declare (metadata i64* %__n.addr, metadata !5102, metadata !3970), !dbg !5091
	store i64 %__n.arg, i64* %__n.addr, align 8, !tbaa !3977
	call void @llvm.dbg.declare (metadata i64* %__n.addr, metadata !5103, metadata !3970), !dbg !5091
	%0 = load double*, double** %__p.addr, align 8, !tbaa !3978, !dbg !5104
	%1 = bitcast double*  %0 to i8*, !dbg !5104
	%2 = bitcast double** %..inline.addr to i8**, !dbg !5104
	store i8*  %1, i8**  %2, align 8, !tbaa !3978, !dbg !5104
	%3 = load double*, double** %..inline.addr, align 8, !tbaa !3978, !dbg !5105
	%4 = bitcast double*  %3 to i8*, !dbg !5105
	call void  @_ZdlPv (i8*  %4) nounwind, !dbg !5105
	ret void, !dbg !5104
}

%struct._ZNSt12_Vector_baseIdSaIdEE17_Vector_impl_dataE = type <{ double*, double*, double*}> 
%struct._ZSt12_Vector_baseIdSaIdEE = type <{ %struct._ZNSt12_Vector_baseIdSaIdEE12_Vector_implE}> 
%struct._ZNSt12_Vector_baseIdSaIdEE12_Vector_implE = type <{ %struct._ZNSt12_Vector_baseIdSaIdEE17_Vector_impl_dataE}> 

define linkonce_odr %struct._ZSaIdE* @_ZNSt12_Vector_baseIdSaIdEE19_M_get_Tp_allocatorEv(%struct._ZSt12_Vector_baseIdSaIdEE* %_T45627360_52148.arg) #0 inlinehint !dbg !5111 {
L.entry:
	%_T45627360_52148.addr = alloca %struct._ZSt12_Vector_baseIdSaIdEE*, align 8

	call void @llvm.dbg.declare (metadata %struct._ZSt12_Vector_baseIdSaIdEE** %_T45627360_52148.addr, metadata !5115, metadata !3970), !dbg !5112
	store %struct._ZSt12_Vector_baseIdSaIdEE* %_T45627360_52148.arg, %struct._ZSt12_Vector_baseIdSaIdEE** %_T45627360_52148.addr, align 8, !tbaa !3978
	call void @llvm.dbg.declare (metadata %struct._ZSt12_Vector_baseIdSaIdEE** %_T45627360_52148.addr, metadata !5116, metadata !3970), !dbg !5112
	%0 = load %struct._ZSt12_Vector_baseIdSaIdEE*, %struct._ZSt12_Vector_baseIdSaIdEE** %_T45627360_52148.addr, align 8, !tbaa !3978, !dbg !5117
	%1 = bitcast %struct._ZSt12_Vector_baseIdSaIdEE*  %0 to %struct._ZSaIdE*, !dbg !5117
	ret %struct._ZSaIdE*  %1, !dbg !5117
}
define linkonce_odr void @_ZNSt12_Vector_baseIdSaIdEED1Ev(%struct._ZSt12_Vector_baseIdSaIdEE* %_T45627360_52149.arg) #0 inlinehint !dbg !5121 {
L.entry:
	%_T45627360_52149.addr = alloca %struct._ZSt12_Vector_baseIdSaIdEE*, align 8
	%..inline.addr = alloca double*, align 8

	call void @llvm.dbg.declare (metadata %struct._ZSt12_Vector_baseIdSaIdEE** %_T45627360_52149.addr, metadata !5149, metadata !3970), !dbg !5122
	store %struct._ZSt12_Vector_baseIdSaIdEE* %_T45627360_52149.arg, %struct._ZSt12_Vector_baseIdSaIdEE** %_T45627360_52149.addr, align 8, !tbaa !3978
	call void @llvm.dbg.declare (metadata %struct._ZSt12_Vector_baseIdSaIdEE** %_T45627360_52149.addr, metadata !5150, metadata !3970), !dbg !5122
	%0 = load %struct._ZSt12_Vector_baseIdSaIdEE*, %struct._ZSt12_Vector_baseIdSaIdEE** %_T45627360_52149.addr, align 8, !tbaa !3978, !dbg !5151
	%1 = bitcast %struct._ZSt12_Vector_baseIdSaIdEE*  %0 to i8**, !dbg !5151
	%2 = load i8*, i8**  %1, align 8, !tbaa !3978, !dbg !5151
	%3 = icmp eq i8*  %2,  null, !dbg !5151
	br i1  %3, label %L..inline.70513, label %L.B1321, !dbg !5151
L.B1321:
	%4 = bitcast %struct._ZSt12_Vector_baseIdSaIdEE*  %0 to i8**, !dbg !5152
	%5 = load i8*, i8**  %4, align 8, !tbaa !3978, !dbg !5152
	%6 = bitcast double** %..inline.addr to i8**, !dbg !5152
	store i8*  %5, i8**  %6, align 8, !tbaa !3978, !dbg !5152
	%7 = load double*, double** %..inline.addr, align 8, !tbaa !3978, !dbg !5152
	%8 = bitcast double*  %7 to i8*, !dbg !5152
	call void  @_ZdlPv (i8*  %8) nounwind, !dbg !5152
	br label %L..inline.70513
L..inline.70513:
	ret void, !dbg !5153
}
define linkonce_odr void @_ZNSt12_Vector_baseIdSaIdEED2Ev(%struct._ZSt12_Vector_baseIdSaIdEE* %_T45627360_52150.arg) #0 inlinehint !dbg !5155 {
L.entry:
	%_T45627360_52150.addr = alloca %struct._ZSt12_Vector_baseIdSaIdEE*, align 8
	%..inline.addr = alloca %struct._ZSt12_Vector_baseIdSaIdEE*, align 8
	%..inline.addr.1 = alloca double*, align 8

	store %struct._ZSt12_Vector_baseIdSaIdEE* %_T45627360_52150.arg, %struct._ZSt12_Vector_baseIdSaIdEE** %_T45627360_52150.addr, align 8, !tbaa !3978
	%0 = load %struct._ZSt12_Vector_baseIdSaIdEE*, %struct._ZSt12_Vector_baseIdSaIdEE** %_T45627360_52150.addr, align 8, !tbaa !3978, !dbg !5187
	%1 = bitcast %struct._ZSt12_Vector_baseIdSaIdEE*  %0 to i8*, !dbg !5187
	%2 = bitcast %struct._ZSt12_Vector_baseIdSaIdEE** %..inline.addr to i8**, !dbg !5187
	store i8*  %1, i8**  %2, align 8, !tbaa !3978, !dbg !5187
	%3 = load %struct._ZSt12_Vector_baseIdSaIdEE*, %struct._ZSt12_Vector_baseIdSaIdEE** %..inline.addr, align 8, !tbaa !3978, !dbg !5187
	%4 = bitcast %struct._ZSt12_Vector_baseIdSaIdEE*  %3 to i8**, !dbg !5187
	%5 = load i8*, i8**  %4, align 8, !tbaa !3978, !dbg !5187
	%6 = icmp eq i8*  %5,  null, !dbg !5187
	br i1  %6, label %L..inline.70574, label %L.B1324, !dbg !5187
L.B1324:
	%7 = bitcast %struct._ZSt12_Vector_baseIdSaIdEE*  %3 to i8**, !dbg !5187
	%8 = load i8*, i8**  %7, align 8, !tbaa !3978, !dbg !5187
	%9 = bitcast double** %..inline.addr.1 to i8**, !dbg !5187
	store i8*  %8, i8**  %9, align 8, !tbaa !3978, !dbg !5187
	%10 = load double*, double** %..inline.addr.1, align 8, !tbaa !3978, !dbg !5187
	%11 = bitcast double*  %10 to i8*, !dbg !5187
	call void  @_ZdlPv (i8*  %11) nounwind, !dbg !5187
	br label %L..inline.70574
L..inline.70574:
	ret void, !dbg !5188
}
define linkonce_odr void @_ZNSt12_Vector_baseIdSaIdEE13_M_deallocateEPdm(%struct._ZSt12_Vector_baseIdSaIdEE* %_T45627360_52153.arg, double* %__p.arg, i64 %__n.arg) #0 inlinehint !dbg !5192 {
L.entry:
	%_T45627360_52153.addr = alloca %struct._ZSt12_Vector_baseIdSaIdEE*, align 8
	%__p.addr = alloca double*, align 8
	%__n.addr = alloca i64, align 8
	%..inline.addr = alloca double*, align 8

	call void @llvm.dbg.declare (metadata %struct._ZSt12_Vector_baseIdSaIdEE** %_T45627360_52153.addr, metadata !5204, metadata !3970), !dbg !5193
	store %struct._ZSt12_Vector_baseIdSaIdEE* %_T45627360_52153.arg, %struct._ZSt12_Vector_baseIdSaIdEE** %_T45627360_52153.addr, align 8, !tbaa !3978
	call void @llvm.dbg.declare (metadata %struct._ZSt12_Vector_baseIdSaIdEE** %_T45627360_52153.addr, metadata !5205, metadata !3970), !dbg !5193
	call void @llvm.dbg.declare (metadata double** %__p.addr, metadata !5206, metadata !3970), !dbg !5193
	store double* %__p.arg, double** %__p.addr, align 8, !tbaa !3978
	call void @llvm.dbg.declare (metadata double** %__p.addr, metadata !5207, metadata !3970), !dbg !5193
	call void @llvm.dbg.declare (metadata i64* %__n.addr, metadata !5208, metadata !3970), !dbg !5193
	store i64 %__n.arg, i64* %__n.addr, align 8, !tbaa !3977
	call void @llvm.dbg.declare (metadata i64* %__n.addr, metadata !5209, metadata !3970), !dbg !5193
	%0 = load double*, double** %__p.addr, align 8, !tbaa !3978, !dbg !5210
	%1 = bitcast double*  %0 to i8*, !dbg !5210
	%2 = icmp eq i8*  %1,  null, !dbg !5210
	br i1  %2, label %L.B0007, label %L.B1327, !dbg !5210
L.B1327:
	%3 = bitcast double*  %0 to i8*, !dbg !5211
	%4 = bitcast double** %..inline.addr to i8**, !dbg !5211
	store i8*  %3, i8**  %4, align 8, !tbaa !3978, !dbg !5211
	%5 = load double*, double** %..inline.addr, align 8, !tbaa !3978, !dbg !5211
	%6 = bitcast double*  %5 to i8*, !dbg !5211
	call void  @_ZdlPv (i8*  %6) nounwind, !dbg !5211
	br label %L.B0007
L.B0007:
	ret void, !dbg !5212
}
define linkonce_odr void @_ZNSt12_Vector_baseIdSaIdEE12_Vector_implD1Ev(%struct._ZNSt12_Vector_baseIdSaIdEE12_Vector_implE* %_T45627360_52154.arg) #0 inlinehint !dbg !5217 {
L.entry:
	%_T45627360_52154.addr = alloca %struct._ZNSt12_Vector_baseIdSaIdEE12_Vector_implE*, align 8

	call void @llvm.dbg.declare (metadata %struct._ZNSt12_Vector_baseIdSaIdEE12_Vector_implE** %_T45627360_52154.addr, metadata !5229, metadata !3970), !dbg !5218
	store %struct._ZNSt12_Vector_baseIdSaIdEE12_Vector_implE* %_T45627360_52154.arg, %struct._ZNSt12_Vector_baseIdSaIdEE12_Vector_implE** %_T45627360_52154.addr, align 8, !tbaa !3978
	call void @llvm.dbg.declare (metadata %struct._ZNSt12_Vector_baseIdSaIdEE12_Vector_implE** %_T45627360_52154.addr, metadata !5230, metadata !3970), !dbg !5218
	ret void, !dbg !5231
}
define linkonce_odr void @_ZNSt12_Vector_baseIdSaIdEE12_Vector_implD2Ev(%struct._ZNSt12_Vector_baseIdSaIdEE12_Vector_implE* %_T45627360_52155.arg) #0 inlinehint !dbg !5233 {
L.entry:
	%_T45627360_52155.addr = alloca %struct._ZNSt12_Vector_baseIdSaIdEE12_Vector_implE*, align 8

	store %struct._ZNSt12_Vector_baseIdSaIdEE12_Vector_implE* %_T45627360_52155.arg, %struct._ZNSt12_Vector_baseIdSaIdEE12_Vector_implE** %_T45627360_52155.addr, align 8, !tbaa !3978
	ret void, !dbg !5249
}

%struct._ZSt6vectorIdSaIdEE = type <{ %struct._ZSt12_Vector_baseIdSaIdEE}> 

define linkonce_odr void @_ZNSt6vectorIdSaIdEED1Ev(%struct._ZSt6vectorIdSaIdEE* %_T45627360_52156.arg) #0 inlinehint !dbg !5254 {
L.entry:
	%_T45627360_52156.addr = alloca %struct._ZSt6vectorIdSaIdEE*, align 8
	%..inline.addr = alloca %struct._ZSt12_Vector_baseIdSaIdEE*, align 8
	%..inline.addr.1 = alloca double*, align 8

	call void @llvm.dbg.declare (metadata %struct._ZSt6vectorIdSaIdEE** %_T45627360_52156.addr, metadata !5306, metadata !3970), !dbg !5255
	store %struct._ZSt6vectorIdSaIdEE* %_T45627360_52156.arg, %struct._ZSt6vectorIdSaIdEE** %_T45627360_52156.addr, align 8, !tbaa !3978
	call void @llvm.dbg.declare (metadata %struct._ZSt6vectorIdSaIdEE** %_T45627360_52156.addr, metadata !5307, metadata !3970), !dbg !5255
	%0 = load %struct._ZSt6vectorIdSaIdEE*, %struct._ZSt6vectorIdSaIdEE** %_T45627360_52156.addr, align 8, !tbaa !3978, !dbg !5308
	%1 = bitcast %struct._ZSt6vectorIdSaIdEE*  %0 to i8*, !dbg !5308
	%2 = bitcast %struct._ZSt12_Vector_baseIdSaIdEE** %..inline.addr to i8**, !dbg !5308
	store i8*  %1, i8**  %2, align 8, !tbaa !3978, !dbg !5308
	%3 = load %struct._ZSt12_Vector_baseIdSaIdEE*, %struct._ZSt12_Vector_baseIdSaIdEE** %..inline.addr, align 8, !tbaa !3978, !dbg !5309
	%4 = bitcast %struct._ZSt12_Vector_baseIdSaIdEE*  %3 to i8**, !dbg !5309
	%5 = load i8*, i8**  %4, align 8, !tbaa !3978, !dbg !5309
	%6 = icmp eq i8*  %5,  null, !dbg !5309
	br i1  %6, label %L..inline.70725, label %L.B1338, !dbg !5309
L.B1338:
	%7 = bitcast %struct._ZSt12_Vector_baseIdSaIdEE*  %3 to i8**, !dbg !5309
	%8 = load i8*, i8**  %7, align 8, !tbaa !3978, !dbg !5309
	%9 = bitcast double** %..inline.addr.1 to i8**, !dbg !5309
	store i8*  %8, i8**  %9, align 8, !tbaa !3978, !dbg !5309
	%10 = load double*, double** %..inline.addr.1, align 8, !tbaa !3978, !dbg !5309
	%11 = bitcast double*  %10 to i8*, !dbg !5309
	call void  @_ZdlPv (i8*  %11) nounwind, !dbg !5309
	br label %L..inline.70725
L..inline.70725:
	ret void, !dbg !5308
}
define linkonce_odr void @_ZNSt6vectorIdSaIdEED2Ev(%struct._ZSt6vectorIdSaIdEE* %_T45627360_52157.arg) #0 inlinehint !dbg !5311 {
L.entry:
	%_T45627360_52157.addr = alloca %struct._ZSt6vectorIdSaIdEE*, align 8
	%..inline.addr = alloca %struct._ZSt12_Vector_baseIdSaIdEE*, align 8
	%..inline.addr.1 = alloca double*, align 8

	store %struct._ZSt6vectorIdSaIdEE* %_T45627360_52157.arg, %struct._ZSt6vectorIdSaIdEE** %_T45627360_52157.addr, align 8, !tbaa !3978
	%0 = load %struct._ZSt6vectorIdSaIdEE*, %struct._ZSt6vectorIdSaIdEE** %_T45627360_52157.addr, align 8, !tbaa !3978, !dbg !5367
	%1 = bitcast %struct._ZSt6vectorIdSaIdEE*  %0 to i8*, !dbg !5367
	%2 = bitcast %struct._ZSt12_Vector_baseIdSaIdEE** %..inline.addr to i8**, !dbg !5367
	store i8*  %1, i8**  %2, align 8, !tbaa !3978, !dbg !5367
	%3 = load %struct._ZSt12_Vector_baseIdSaIdEE*, %struct._ZSt12_Vector_baseIdSaIdEE** %..inline.addr, align 8, !tbaa !3978, !dbg !5367
	%4 = bitcast %struct._ZSt12_Vector_baseIdSaIdEE*  %3 to i8**, !dbg !5367
	%5 = load i8*, i8**  %4, align 8, !tbaa !3978, !dbg !5367
	%6 = icmp eq i8*  %5,  null, !dbg !5367
	br i1  %6, label %L..inline.70829, label %L.B1341, !dbg !5367
L.B1341:
	%7 = bitcast %struct._ZSt12_Vector_baseIdSaIdEE*  %3 to i8**, !dbg !5367
	%8 = load i8*, i8**  %7, align 8, !tbaa !3978, !dbg !5367
	%9 = bitcast double** %..inline.addr.1 to i8**, !dbg !5367
	store i8*  %8, i8**  %9, align 8, !tbaa !3978, !dbg !5367
	%10 = load double*, double** %..inline.addr.1, align 8, !tbaa !3978, !dbg !5367
	%11 = bitcast double*  %10 to i8*, !dbg !5367
	call void  @_ZdlPv (i8*  %11) nounwind, !dbg !5367
	br label %L..inline.70829
L..inline.70829:
	ret void, !dbg !5367
}

%struct._ZSaIN5vmesh14MeshParametersEE = type <{ [1 x i8]}> 

define linkonce_odr void @_ZNSaIN5vmesh14MeshParametersEED1Ev(%struct._ZSaIN5vmesh14MeshParametersEE* %_T45627360_52158.arg) #0 inlinehint !dbg !5375 {
L.entry:
	%_T45627360_52158.addr = alloca %struct._ZSaIN5vmesh14MeshParametersEE*, align 8

	call void @llvm.dbg.declare (metadata %struct._ZSaIN5vmesh14MeshParametersEE** %_T45627360_52158.addr, metadata !5379, metadata !3970), !dbg !5376
	store %struct._ZSaIN5vmesh14MeshParametersEE* %_T45627360_52158.arg, %struct._ZSaIN5vmesh14MeshParametersEE** %_T45627360_52158.addr, align 8, !tbaa !3978
	call void @llvm.dbg.declare (metadata %struct._ZSaIN5vmesh14MeshParametersEE** %_T45627360_52158.addr, metadata !5380, metadata !3970), !dbg !5376
	ret void, !dbg !5381
}
define linkonce_odr void @_ZNSaIN5vmesh14MeshParametersEED2Ev(%struct._ZSaIN5vmesh14MeshParametersEE* %_T45627360_52159.arg) #0 inlinehint !dbg !5383 {
L.entry:
	%_T45627360_52159.addr = alloca %struct._ZSaIN5vmesh14MeshParametersEE*, align 8

	store %struct._ZSaIN5vmesh14MeshParametersEE* %_T45627360_52159.arg, %struct._ZSaIN5vmesh14MeshParametersEE** %_T45627360_52159.addr, align 8, !tbaa !3978
	ret void, !dbg !5391
}

%union.__C6 = type <{ [16 x i8]}> 
%struct._ZNSt7__cxx1112basic_stringIcSt11char_traitsIcESaIcEE12_Alloc_hiderE = type <{ i8*}> 
%struct._ZN5vmesh14MeshParametersE = type <{ %struct._ZNSt7__cxx1112basic_stringIcSt11char_traitsIcESaIcEEE, i32, [4 x i8], [6 x double], [3 x i32], [3 x i32], i8, i8, [6 x i8], [3 x double], [3 x double], [3 x double], [3 x double], [3 x double], %struct._ZSt6vectorIjSaIjEE, %struct._ZSt6vectorIdSaIdEE, %struct._ZSt6vectorIdSaIdEE, %struct._ZSt6vectorIjSaIjEE}> 
%struct._ZNSt7__cxx1112basic_stringIcSt11char_traitsIcESaIcEEE = type <{ %struct._ZNSt7__cxx1112basic_stringIcSt11char_traitsIcESaIcEE12_Alloc_hiderE, i64, %union.__C6}> 

define linkonce_odr void @_ZNSt16allocator_traitsISaIN5vmesh14MeshParametersEEE10deallocateERS2_PS1_m(%struct._ZSaIN5vmesh14MeshParametersEE* %__a.arg, %struct._ZN5vmesh14MeshParametersE* %__p.arg, i64 %__n.arg) #0 inlinehint !dbg !5399 {
L.entry:
	%__a.addr = alloca %struct._ZSaIN5vmesh14MeshParametersEE*, align 8
	%__p.addr = alloca %struct._ZN5vmesh14MeshParametersE*, align 8
	%__n.addr = alloca i64, align 8
	%..inline.addr = alloca %struct._ZN5vmesh14MeshParametersE*, align 8

	call void @llvm.dbg.declare (metadata %struct._ZSaIN5vmesh14MeshParametersEE** %__a.addr, metadata !5407, metadata !3970), !dbg !5400
	store %struct._ZSaIN5vmesh14MeshParametersEE* %__a.arg, %struct._ZSaIN5vmesh14MeshParametersEE** %__a.addr, align 8, !tbaa !3978
	call void @llvm.dbg.declare (metadata %struct._ZSaIN5vmesh14MeshParametersEE** %__a.addr, metadata !5408, metadata !3970), !dbg !5400
	call void @llvm.dbg.declare (metadata %struct._ZN5vmesh14MeshParametersE** %__p.addr, metadata !5409, metadata !3970), !dbg !5400
	store %struct._ZN5vmesh14MeshParametersE* %__p.arg, %struct._ZN5vmesh14MeshParametersE** %__p.addr, align 8, !tbaa !3978
	call void @llvm.dbg.declare (metadata %struct._ZN5vmesh14MeshParametersE** %__p.addr, metadata !5410, metadata !3970), !dbg !5400
	call void @llvm.dbg.declare (metadata i64* %__n.addr, metadata !5411, metadata !3970), !dbg !5400
	store i64 %__n.arg, i64* %__n.addr, align 8, !tbaa !3977
	call void @llvm.dbg.declare (metadata i64* %__n.addr, metadata !5412, metadata !3970), !dbg !5400
	%0 = load %struct._ZN5vmesh14MeshParametersE*, %struct._ZN5vmesh14MeshParametersE** %__p.addr, align 8, !tbaa !3978, !dbg !5413
	%1 = bitcast %struct._ZN5vmesh14MeshParametersE*  %0 to i8*, !dbg !5413
	%2 = bitcast %struct._ZN5vmesh14MeshParametersE** %..inline.addr to i8**, !dbg !5413
	store i8*  %1, i8**  %2, align 8, !tbaa !3978, !dbg !5413
	%3 = load %struct._ZN5vmesh14MeshParametersE*, %struct._ZN5vmesh14MeshParametersE** %..inline.addr, align 8, !tbaa !3978, !dbg !5414
	%4 = bitcast %struct._ZN5vmesh14MeshParametersE*  %3 to i8*, !dbg !5414
	call void  @_ZdlPv (i8*  %4) nounwind, !dbg !5414
	ret void, !dbg !5413
}

%struct._ZNSt12_Vector_baseIN5vmesh14MeshParametersESaIS1_EE17_Vector_impl_dataE = type <{ %struct._ZN5vmesh14MeshParametersE*, %struct._ZN5vmesh14MeshParametersE*, %struct._ZN5vmesh14MeshParametersE*}> 
%struct._ZSt12_Vector_baseIN5vmesh14MeshParametersESaIS1_EE = type <{ %struct._ZNSt12_Vector_baseIN5vmesh14MeshParametersESaIS1_EE12_Vector_implE}> 
%struct._ZNSt12_Vector_baseIN5vmesh14MeshParametersESaIS1_EE12_Vector_implE = type <{ %struct._ZNSt12_Vector_baseIN5vmesh14MeshParametersESaIS1_EE17_Vector_impl_dataE}> 

define linkonce_odr %struct._ZSaIN5vmesh14MeshParametersEE* @_ZNSt12_Vector_baseIN5vmesh14MeshParametersESaIS1_EE19_M_get_Tp_allocatorEv(%struct._ZSt12_Vector_baseIN5vmesh14MeshParametersESaIS1_EE* %_T45627360_52165.arg) #0 inlinehint !dbg !5420 {
L.entry:
	%_T45627360_52165.addr = alloca %struct._ZSt12_Vector_baseIN5vmesh14MeshParametersESaIS1_EE*, align 8

	call void @llvm.dbg.declare (metadata %struct._ZSt12_Vector_baseIN5vmesh14MeshParametersESaIS1_EE** %_T45627360_52165.addr, metadata !5424, metadata !3970), !dbg !5421
	store %struct._ZSt12_Vector_baseIN5vmesh14MeshParametersESaIS1_EE* %_T45627360_52165.arg, %struct._ZSt12_Vector_baseIN5vmesh14MeshParametersESaIS1_EE** %_T45627360_52165.addr, align 8, !tbaa !3978
	call void @llvm.dbg.declare (metadata %struct._ZSt12_Vector_baseIN5vmesh14MeshParametersESaIS1_EE** %_T45627360_52165.addr, metadata !5425, metadata !3970), !dbg !5421
	%0 = load %struct._ZSt12_Vector_baseIN5vmesh14MeshParametersESaIS1_EE*, %struct._ZSt12_Vector_baseIN5vmesh14MeshParametersESaIS1_EE** %_T45627360_52165.addr, align 8, !tbaa !3978, !dbg !5426
	%1 = bitcast %struct._ZSt12_Vector_baseIN5vmesh14MeshParametersESaIS1_EE*  %0 to %struct._ZSaIN5vmesh14MeshParametersEE*, !dbg !5426
	ret %struct._ZSaIN5vmesh14MeshParametersEE*  %1, !dbg !5426
}
define linkonce_odr void @_ZNSt12_Vector_baseIN5vmesh14MeshParametersESaIS1_EEC1Ev(%struct._ZSt12_Vector_baseIN5vmesh14MeshParametersESaIS1_EE* %_T45627360_52166.arg) #0 inlinehint !dbg !5430 {
L.entry:
	%_T45627360_52166.addr = alloca %struct._ZSt12_Vector_baseIN5vmesh14MeshParametersESaIS1_EE*, align 8
	%..inline.addr = alloca %struct._ZNSt12_Vector_baseIN5vmesh14MeshParametersESaIS1_EE17_Vector_impl_dataE*, align 8

	call void @llvm.dbg.declare (metadata %struct._ZSt12_Vector_baseIN5vmesh14MeshParametersESaIS1_EE** %_T45627360_52166.addr, metadata !5446, metadata !3970), !dbg !5431
	store %struct._ZSt12_Vector_baseIN5vmesh14MeshParametersESaIS1_EE* %_T45627360_52166.arg, %struct._ZSt12_Vector_baseIN5vmesh14MeshParametersESaIS1_EE** %_T45627360_52166.addr, align 8, !tbaa !3978
	call void @llvm.dbg.declare (metadata %struct._ZSt12_Vector_baseIN5vmesh14MeshParametersESaIS1_EE** %_T45627360_52166.addr, metadata !5447, metadata !3970), !dbg !5431
	%0 = load %struct._ZSt12_Vector_baseIN5vmesh14MeshParametersESaIS1_EE*, %struct._ZSt12_Vector_baseIN5vmesh14MeshParametersESaIS1_EE** %_T45627360_52166.addr, align 8, !tbaa !3978, !dbg !5448
	%1 = bitcast %struct._ZSt12_Vector_baseIN5vmesh14MeshParametersESaIS1_EE*  %0 to i8*, !dbg !5448
	%2 = bitcast %struct._ZNSt12_Vector_baseIN5vmesh14MeshParametersESaIS1_EE17_Vector_impl_dataE** %..inline.addr to i8**, !dbg !5448
	store i8*  %1, i8**  %2, align 8, !tbaa !3978, !dbg !5448
	%3 = load %struct._ZNSt12_Vector_baseIN5vmesh14MeshParametersESaIS1_EE17_Vector_impl_dataE*, %struct._ZNSt12_Vector_baseIN5vmesh14MeshParametersESaIS1_EE17_Vector_impl_dataE** %..inline.addr, align 8, !tbaa !3978, !dbg !5448
	%4 = bitcast %struct._ZNSt12_Vector_baseIN5vmesh14MeshParametersESaIS1_EE17_Vector_impl_dataE*  %3 to i8**, !dbg !5448
	store i8* null, i8**  %4, align 8, !tbaa !3978, !dbg !5448
	%5 = bitcast %struct._ZNSt12_Vector_baseIN5vmesh14MeshParametersESaIS1_EE17_Vector_impl_dataE*  %3 to i8*, !dbg !5448
	%6 = getelementptr i8, i8*  %5, i64 8, !dbg !5448
	%7 = bitcast i8*  %6 to i8**, !dbg !5448
	store i8* null, i8**  %7, align 8, !tbaa !3978, !dbg !5448
	%8 = getelementptr i8, i8*  %5, i64 16, !dbg !5448
	%9 = bitcast i8*  %8 to i8**, !dbg !5448
	store i8* null, i8**  %9, align 8, !tbaa !3978, !dbg !5448
	ret void, !dbg !5448
}
define linkonce_odr void @_ZNSt12_Vector_baseIN5vmesh14MeshParametersESaIS1_EEC2Ev(%struct._ZSt12_Vector_baseIN5vmesh14MeshParametersESaIS1_EE* %_T45627360_52167.arg) #0 inlinehint !dbg !5450 {
L.entry:
	%_T45627360_52167.addr = alloca %struct._ZSt12_Vector_baseIN5vmesh14MeshParametersESaIS1_EE*, align 8
	%..inline.addr = alloca %struct._ZNSt12_Vector_baseIN5vmesh14MeshParametersESaIS1_EE17_Vector_impl_dataE*, align 8

	store %struct._ZSt12_Vector_baseIN5vmesh14MeshParametersESaIS1_EE* %_T45627360_52167.arg, %struct._ZSt12_Vector_baseIN5vmesh14MeshParametersESaIS1_EE** %_T45627360_52167.addr, align 8, !tbaa !3978
	%0 = load %struct._ZSt12_Vector_baseIN5vmesh14MeshParametersESaIS1_EE*, %struct._ZSt12_Vector_baseIN5vmesh14MeshParametersESaIS1_EE** %_T45627360_52167.addr, align 8, !tbaa !3978, !dbg !5470
	%1 = bitcast %struct._ZSt12_Vector_baseIN5vmesh14MeshParametersESaIS1_EE*  %0 to i8*, !dbg !5470
	%2 = bitcast %struct._ZNSt12_Vector_baseIN5vmesh14MeshParametersESaIS1_EE17_Vector_impl_dataE** %..inline.addr to i8**, !dbg !5470
	store i8*  %1, i8**  %2, align 8, !tbaa !3978, !dbg !5470
	%3 = load %struct._ZNSt12_Vector_baseIN5vmesh14MeshParametersESaIS1_EE17_Vector_impl_dataE*, %struct._ZNSt12_Vector_baseIN5vmesh14MeshParametersESaIS1_EE17_Vector_impl_dataE** %..inline.addr, align 8, !tbaa !3978, !dbg !5470
	%4 = bitcast %struct._ZNSt12_Vector_baseIN5vmesh14MeshParametersESaIS1_EE17_Vector_impl_dataE*  %3 to i8**, !dbg !5470
	store i8* null, i8**  %4, align 8, !tbaa !3978, !dbg !5470
	%5 = bitcast %struct._ZNSt12_Vector_baseIN5vmesh14MeshParametersESaIS1_EE17_Vector_impl_dataE*  %3 to i8*, !dbg !5470
	%6 = getelementptr i8, i8*  %5, i64 8, !dbg !5470
	%7 = bitcast i8*  %6 to i8**, !dbg !5470
	store i8* null, i8**  %7, align 8, !tbaa !3978, !dbg !5470
	%8 = getelementptr i8, i8*  %5, i64 16, !dbg !5470
	%9 = bitcast i8*  %8 to i8**, !dbg !5470
	store i8* null, i8**  %9, align 8, !tbaa !3978, !dbg !5470
	ret void, !dbg !5470
}
define linkonce_odr void @_ZNSt12_Vector_baseIN5vmesh14MeshParametersESaIS1_EED1Ev(%struct._ZSt12_Vector_baseIN5vmesh14MeshParametersESaIS1_EE* %_T45627360_52168.arg) #0 inlinehint !dbg !5472 {
L.entry:
	%_T45627360_52168.addr = alloca %struct._ZSt12_Vector_baseIN5vmesh14MeshParametersESaIS1_EE*, align 8
	%..inline.addr = alloca %struct._ZN5vmesh14MeshParametersE*, align 8

	call void @llvm.dbg.declare (metadata %struct._ZSt12_Vector_baseIN5vmesh14MeshParametersESaIS1_EE** %_T45627360_52168.addr, metadata !5500, metadata !3970), !dbg !5473
	store %struct._ZSt12_Vector_baseIN5vmesh14MeshParametersESaIS1_EE* %_T45627360_52168.arg, %struct._ZSt12_Vector_baseIN5vmesh14MeshParametersESaIS1_EE** %_T45627360_52168.addr, align 8, !tbaa !3978
	call void @llvm.dbg.declare (metadata %struct._ZSt12_Vector_baseIN5vmesh14MeshParametersESaIS1_EE** %_T45627360_52168.addr, metadata !5501, metadata !3970), !dbg !5473
	%0 = load %struct._ZSt12_Vector_baseIN5vmesh14MeshParametersESaIS1_EE*, %struct._ZSt12_Vector_baseIN5vmesh14MeshParametersESaIS1_EE** %_T45627360_52168.addr, align 8, !tbaa !3978, !dbg !5502
	%1 = bitcast %struct._ZSt12_Vector_baseIN5vmesh14MeshParametersESaIS1_EE*  %0 to i8**, !dbg !5502
	%2 = load i8*, i8**  %1, align 8, !tbaa !3978, !dbg !5502
	%3 = icmp eq i8*  %2,  null, !dbg !5502
	br i1  %3, label %L..inline.70973, label %L.B1354, !dbg !5502
L.B1354:
	%4 = bitcast %struct._ZSt12_Vector_baseIN5vmesh14MeshParametersESaIS1_EE*  %0 to i8**, !dbg !5503
	%5 = load i8*, i8**  %4, align 8, !tbaa !3978, !dbg !5503
	%6 = bitcast %struct._ZN5vmesh14MeshParametersE** %..inline.addr to i8**, !dbg !5503
	store i8*  %5, i8**  %6, align 8, !tbaa !3978, !dbg !5503
	%7 = load %struct._ZN5vmesh14MeshParametersE*, %struct._ZN5vmesh14MeshParametersE** %..inline.addr, align 8, !tbaa !3978, !dbg !5503
	%8 = bitcast %struct._ZN5vmesh14MeshParametersE*  %7 to i8*, !dbg !5503
	call void  @_ZdlPv (i8*  %8) nounwind, !dbg !5503
	br label %L..inline.70973
L..inline.70973:
	ret void, !dbg !5504
}
define linkonce_odr void @_ZNSt12_Vector_baseIN5vmesh14MeshParametersESaIS1_EED2Ev(%struct._ZSt12_Vector_baseIN5vmesh14MeshParametersESaIS1_EE* %_T45627360_52169.arg) #0 inlinehint !dbg !5506 {
L.entry:
	%_T45627360_52169.addr = alloca %struct._ZSt12_Vector_baseIN5vmesh14MeshParametersESaIS1_EE*, align 8
	%..inline.addr = alloca %struct._ZSt12_Vector_baseIN5vmesh14MeshParametersESaIS1_EE*, align 8
	%..inline.addr.1 = alloca %struct._ZN5vmesh14MeshParametersE*, align 8

	store %struct._ZSt12_Vector_baseIN5vmesh14MeshParametersESaIS1_EE* %_T45627360_52169.arg, %struct._ZSt12_Vector_baseIN5vmesh14MeshParametersESaIS1_EE** %_T45627360_52169.addr, align 8, !tbaa !3978
	%0 = load %struct._ZSt12_Vector_baseIN5vmesh14MeshParametersESaIS1_EE*, %struct._ZSt12_Vector_baseIN5vmesh14MeshParametersESaIS1_EE** %_T45627360_52169.addr, align 8, !tbaa !3978, !dbg !5538
	%1 = bitcast %struct._ZSt12_Vector_baseIN5vmesh14MeshParametersESaIS1_EE*  %0 to i8*, !dbg !5538
	%2 = bitcast %struct._ZSt12_Vector_baseIN5vmesh14MeshParametersESaIS1_EE** %..inline.addr to i8**, !dbg !5538
	store i8*  %1, i8**  %2, align 8, !tbaa !3978, !dbg !5538
	%3 = load %struct._ZSt12_Vector_baseIN5vmesh14MeshParametersESaIS1_EE*, %struct._ZSt12_Vector_baseIN5vmesh14MeshParametersESaIS1_EE** %..inline.addr, align 8, !tbaa !3978, !dbg !5538
	%4 = bitcast %struct._ZSt12_Vector_baseIN5vmesh14MeshParametersESaIS1_EE*  %3 to i8**, !dbg !5538
	%5 = load i8*, i8**  %4, align 8, !tbaa !3978, !dbg !5538
	%6 = icmp eq i8*  %5,  null, !dbg !5538
	br i1  %6, label %L..inline.71035, label %L.B1357, !dbg !5538
L.B1357:
	%7 = bitcast %struct._ZSt12_Vector_baseIN5vmesh14MeshParametersESaIS1_EE*  %3 to i8**, !dbg !5538
	%8 = load i8*, i8**  %7, align 8, !tbaa !3978, !dbg !5538
	%9 = bitcast %struct._ZN5vmesh14MeshParametersE** %..inline.addr.1 to i8**, !dbg !5538
	store i8*  %8, i8**  %9, align 8, !tbaa !3978, !dbg !5538
	%10 = load %struct._ZN5vmesh14MeshParametersE*, %struct._ZN5vmesh14MeshParametersE** %..inline.addr.1, align 8, !tbaa !3978, !dbg !5538
	%11 = bitcast %struct._ZN5vmesh14MeshParametersE*  %10 to i8*, !dbg !5538
	call void  @_ZdlPv (i8*  %11) nounwind, !dbg !5538
	br label %L..inline.71035
L..inline.71035:
	ret void, !dbg !5539
}
define linkonce_odr void @_ZNSt12_Vector_baseIN5vmesh14MeshParametersESaIS1_EE13_M_deallocateEPS1_m(%struct._ZSt12_Vector_baseIN5vmesh14MeshParametersESaIS1_EE* %_T45627360_52172.arg, %struct._ZN5vmesh14MeshParametersE* %__p.arg, i64 %__n.arg) #0 inlinehint !dbg !5543 {
L.entry:
	%_T45627360_52172.addr = alloca %struct._ZSt12_Vector_baseIN5vmesh14MeshParametersESaIS1_EE*, align 8
	%__p.addr = alloca %struct._ZN5vmesh14MeshParametersE*, align 8
	%__n.addr = alloca i64, align 8
	%..inline.addr = alloca %struct._ZN5vmesh14MeshParametersE*, align 8

	call void @llvm.dbg.declare (metadata %struct._ZSt12_Vector_baseIN5vmesh14MeshParametersESaIS1_EE** %_T45627360_52172.addr, metadata !5555, metadata !3970), !dbg !5544
	store %struct._ZSt12_Vector_baseIN5vmesh14MeshParametersESaIS1_EE* %_T45627360_52172.arg, %struct._ZSt12_Vector_baseIN5vmesh14MeshParametersESaIS1_EE** %_T45627360_52172.addr, align 8, !tbaa !3978
	call void @llvm.dbg.declare (metadata %struct._ZSt12_Vector_baseIN5vmesh14MeshParametersESaIS1_EE** %_T45627360_52172.addr, metadata !5556, metadata !3970), !dbg !5544
	call void @llvm.dbg.declare (metadata %struct._ZN5vmesh14MeshParametersE** %__p.addr, metadata !5557, metadata !3970), !dbg !5544
	store %struct._ZN5vmesh14MeshParametersE* %__p.arg, %struct._ZN5vmesh14MeshParametersE** %__p.addr, align 8, !tbaa !3978
	call void @llvm.dbg.declare (metadata %struct._ZN5vmesh14MeshParametersE** %__p.addr, metadata !5558, metadata !3970), !dbg !5544
	call void @llvm.dbg.declare (metadata i64* %__n.addr, metadata !5559, metadata !3970), !dbg !5544
	store i64 %__n.arg, i64* %__n.addr, align 8, !tbaa !3977
	call void @llvm.dbg.declare (metadata i64* %__n.addr, metadata !5560, metadata !3970), !dbg !5544
	%0 = load %struct._ZN5vmesh14MeshParametersE*, %struct._ZN5vmesh14MeshParametersE** %__p.addr, align 8, !tbaa !3978, !dbg !5561
	%1 = bitcast %struct._ZN5vmesh14MeshParametersE*  %0 to i8*, !dbg !5561
	%2 = icmp eq i8*  %1,  null, !dbg !5561
	br i1  %2, label %L.B0008, label %L.B1360, !dbg !5561
L.B1360:
	%3 = bitcast %struct._ZN5vmesh14MeshParametersE*  %0 to i8*, !dbg !5562
	%4 = bitcast %struct._ZN5vmesh14MeshParametersE** %..inline.addr to i8**, !dbg !5562
	store i8*  %3, i8**  %4, align 8, !tbaa !3978, !dbg !5562
	%5 = load %struct._ZN5vmesh14MeshParametersE*, %struct._ZN5vmesh14MeshParametersE** %..inline.addr, align 8, !tbaa !3978, !dbg !5562
	%6 = bitcast %struct._ZN5vmesh14MeshParametersE*  %5 to i8*, !dbg !5562
	call void  @_ZdlPv (i8*  %6) nounwind, !dbg !5562
	br label %L.B0008
L.B0008:
	ret void, !dbg !5563
}
define linkonce_odr void @_ZNSt12_Vector_baseIN5vmesh14MeshParametersESaIS1_EE17_Vector_impl_dataC1Ev(%struct._ZNSt12_Vector_baseIN5vmesh14MeshParametersESaIS1_EE17_Vector_impl_dataE* %_T45627360_52173.arg) #0 inlinehint !dbg !5568 {
L.entry:
	%_T45627360_52173.addr = alloca %struct._ZNSt12_Vector_baseIN5vmesh14MeshParametersESaIS1_EE17_Vector_impl_dataE*, align 8

	call void @llvm.dbg.declare (metadata %struct._ZNSt12_Vector_baseIN5vmesh14MeshParametersESaIS1_EE17_Vector_impl_dataE** %_T45627360_52173.addr, metadata !5572, metadata !3970), !dbg !5569
	store %struct._ZNSt12_Vector_baseIN5vmesh14MeshParametersESaIS1_EE17_Vector_impl_dataE* %_T45627360_52173.arg, %struct._ZNSt12_Vector_baseIN5vmesh14MeshParametersESaIS1_EE17_Vector_impl_dataE** %_T45627360_52173.addr, align 8, !tbaa !3978
	call void @llvm.dbg.declare (metadata %struct._ZNSt12_Vector_baseIN5vmesh14MeshParametersESaIS1_EE17_Vector_impl_dataE** %_T45627360_52173.addr, metadata !5573, metadata !3970), !dbg !5569
	%0 = load %struct._ZNSt12_Vector_baseIN5vmesh14MeshParametersESaIS1_EE17_Vector_impl_dataE*, %struct._ZNSt12_Vector_baseIN5vmesh14MeshParametersESaIS1_EE17_Vector_impl_dataE** %_T45627360_52173.addr, align 8, !tbaa !3978, !dbg !5574
	%1 = bitcast %struct._ZNSt12_Vector_baseIN5vmesh14MeshParametersESaIS1_EE17_Vector_impl_dataE*  %0 to i8**, !dbg !5574
	store i8* null, i8**  %1, align 8, !tbaa !3978, !dbg !5574
	%2 = bitcast %struct._ZNSt12_Vector_baseIN5vmesh14MeshParametersESaIS1_EE17_Vector_impl_dataE*  %0 to i8*, !dbg !5574
	%3 = getelementptr i8, i8*  %2, i64 8, !dbg !5574
	%4 = bitcast i8*  %3 to i8**, !dbg !5574
	store i8* null, i8**  %4, align 8, !tbaa !3978, !dbg !5574
	%5 = getelementptr i8, i8*  %2, i64 16, !dbg !5574
	%6 = bitcast i8*  %5 to i8**, !dbg !5574
	store i8* null, i8**  %6, align 8, !tbaa !3978, !dbg !5574
	ret void, !dbg !5574
}
define linkonce_odr void @_ZNSt12_Vector_baseIN5vmesh14MeshParametersESaIS1_EE17_Vector_impl_dataC2Ev(%struct._ZNSt12_Vector_baseIN5vmesh14MeshParametersESaIS1_EE17_Vector_impl_dataE* %_T45627360_52174.arg) #0 inlinehint !dbg !5576 {
L.entry:
	%_T45627360_52174.addr = alloca %struct._ZNSt12_Vector_baseIN5vmesh14MeshParametersESaIS1_EE17_Vector_impl_dataE*, align 8
	%..inline.addr = alloca %struct._ZNSt12_Vector_baseIN5vmesh14MeshParametersESaIS1_EE17_Vector_impl_dataE*, align 8

	store %struct._ZNSt12_Vector_baseIN5vmesh14MeshParametersESaIS1_EE17_Vector_impl_dataE* %_T45627360_52174.arg, %struct._ZNSt12_Vector_baseIN5vmesh14MeshParametersESaIS1_EE17_Vector_impl_dataE** %_T45627360_52174.addr, align 8, !tbaa !3978
	%0 = load %struct._ZNSt12_Vector_baseIN5vmesh14MeshParametersESaIS1_EE17_Vector_impl_dataE*, %struct._ZNSt12_Vector_baseIN5vmesh14MeshParametersESaIS1_EE17_Vector_impl_dataE** %_T45627360_52174.addr, align 8, !tbaa !3978, !dbg !5584
	%1 = bitcast %struct._ZNSt12_Vector_baseIN5vmesh14MeshParametersESaIS1_EE17_Vector_impl_dataE*  %0 to i8*, !dbg !5584
	%2 = bitcast %struct._ZNSt12_Vector_baseIN5vmesh14MeshParametersESaIS1_EE17_Vector_impl_dataE** %..inline.addr to i8**, !dbg !5584
	store i8*  %1, i8**  %2, align 8, !tbaa !3978, !dbg !5584
	%3 = load %struct._ZNSt12_Vector_baseIN5vmesh14MeshParametersESaIS1_EE17_Vector_impl_dataE*, %struct._ZNSt12_Vector_baseIN5vmesh14MeshParametersESaIS1_EE17_Vector_impl_dataE** %..inline.addr, align 8, !tbaa !3978, !dbg !5584
	%4 = bitcast %struct._ZNSt12_Vector_baseIN5vmesh14MeshParametersESaIS1_EE17_Vector_impl_dataE*  %3 to i8**, !dbg !5584
	store i8* null, i8**  %4, align 8, !tbaa !3978, !dbg !5584
	%5 = bitcast %struct._ZNSt12_Vector_baseIN5vmesh14MeshParametersESaIS1_EE17_Vector_impl_dataE*  %3 to i8*, !dbg !5584
	%6 = getelementptr i8, i8*  %5, i64 8, !dbg !5584
	%7 = bitcast i8*  %6 to i8**, !dbg !5584
	store i8* null, i8**  %7, align 8, !tbaa !3978, !dbg !5584
	%8 = getelementptr i8, i8*  %5, i64 16, !dbg !5584
	%9 = bitcast i8*  %8 to i8**, !dbg !5584
	store i8* null, i8**  %9, align 8, !tbaa !3978, !dbg !5584
	ret void, !dbg !5584
}
define linkonce_odr void @_ZNSt12_Vector_baseIN5vmesh14MeshParametersESaIS1_EE12_Vector_implC1Ev(%struct._ZNSt12_Vector_baseIN5vmesh14MeshParametersESaIS1_EE12_Vector_implE* %_T45627360_52175.arg) #0 inlinehint !dbg !5589 {
L.entry:
	%_T45627360_52175.addr = alloca %struct._ZNSt12_Vector_baseIN5vmesh14MeshParametersESaIS1_EE12_Vector_implE*, align 8
	%..inline.addr = alloca %struct._ZNSt12_Vector_baseIN5vmesh14MeshParametersESaIS1_EE17_Vector_impl_dataE*, align 8

	call void @llvm.dbg.declare (metadata %struct._ZNSt12_Vector_baseIN5vmesh14MeshParametersESaIS1_EE12_Vector_implE** %_T45627360_52175.addr, metadata !5601, metadata !3970), !dbg !5590
	store %struct._ZNSt12_Vector_baseIN5vmesh14MeshParametersESaIS1_EE12_Vector_implE* %_T45627360_52175.arg, %struct._ZNSt12_Vector_baseIN5vmesh14MeshParametersESaIS1_EE12_Vector_implE** %_T45627360_52175.addr, align 8, !tbaa !3978
	call void @llvm.dbg.declare (metadata %struct._ZNSt12_Vector_baseIN5vmesh14MeshParametersESaIS1_EE12_Vector_implE** %_T45627360_52175.addr, metadata !5602, metadata !3970), !dbg !5590
	%0 = load %struct._ZNSt12_Vector_baseIN5vmesh14MeshParametersESaIS1_EE12_Vector_implE*, %struct._ZNSt12_Vector_baseIN5vmesh14MeshParametersESaIS1_EE12_Vector_implE** %_T45627360_52175.addr, align 8, !tbaa !3978, !dbg !5603
	%1 = bitcast %struct._ZNSt12_Vector_baseIN5vmesh14MeshParametersESaIS1_EE12_Vector_implE*  %0 to i8*, !dbg !5603
	%2 = bitcast %struct._ZNSt12_Vector_baseIN5vmesh14MeshParametersESaIS1_EE17_Vector_impl_dataE** %..inline.addr to i8**, !dbg !5603
	store i8*  %1, i8**  %2, align 8, !tbaa !3978, !dbg !5603
	%3 = load %struct._ZNSt12_Vector_baseIN5vmesh14MeshParametersESaIS1_EE17_Vector_impl_dataE*, %struct._ZNSt12_Vector_baseIN5vmesh14MeshParametersESaIS1_EE17_Vector_impl_dataE** %..inline.addr, align 8, !tbaa !3978, !dbg !5603
	%4 = bitcast %struct._ZNSt12_Vector_baseIN5vmesh14MeshParametersESaIS1_EE17_Vector_impl_dataE*  %3 to i8**, !dbg !5603
	store i8* null, i8**  %4, align 8, !tbaa !3978, !dbg !5603
	%5 = bitcast %struct._ZNSt12_Vector_baseIN5vmesh14MeshParametersESaIS1_EE17_Vector_impl_dataE*  %3 to i8*, !dbg !5604
	%6 = getelementptr i8, i8*  %5, i64 8, !dbg !5604
	%7 = bitcast i8*  %6 to i8**, !dbg !5604
	store i8* null, i8**  %7, align 8, !tbaa !3978, !dbg !5604
	%8 = getelementptr i8, i8*  %5, i64 16, !dbg !5604
	%9 = bitcast i8*  %8 to i8**, !dbg !5604
	store i8* null, i8**  %9, align 8, !tbaa !3978, !dbg !5604
	ret void, !dbg !5603
}
define linkonce_odr void @_ZNSt12_Vector_baseIN5vmesh14MeshParametersESaIS1_EE12_Vector_implC2Ev(%struct._ZNSt12_Vector_baseIN5vmesh14MeshParametersESaIS1_EE12_Vector_implE* %_T45627360_52176.arg) #0 inlinehint !dbg !5606 {
L.entry:
	%_T45627360_52176.addr = alloca %struct._ZNSt12_Vector_baseIN5vmesh14MeshParametersESaIS1_EE12_Vector_implE*, align 8
	%..inline.addr = alloca %struct._ZNSt12_Vector_baseIN5vmesh14MeshParametersESaIS1_EE17_Vector_impl_dataE*, align 8

	store %struct._ZNSt12_Vector_baseIN5vmesh14MeshParametersESaIS1_EE12_Vector_implE* %_T45627360_52176.arg, %struct._ZNSt12_Vector_baseIN5vmesh14MeshParametersESaIS1_EE12_Vector_implE** %_T45627360_52176.addr, align 8, !tbaa !3978
	%0 = load %struct._ZNSt12_Vector_baseIN5vmesh14MeshParametersESaIS1_EE12_Vector_implE*, %struct._ZNSt12_Vector_baseIN5vmesh14MeshParametersESaIS1_EE12_Vector_implE** %_T45627360_52176.addr, align 8, !tbaa !3978, !dbg !5622
	%1 = bitcast %struct._ZNSt12_Vector_baseIN5vmesh14MeshParametersESaIS1_EE12_Vector_implE*  %0 to i8*, !dbg !5622
	%2 = bitcast %struct._ZNSt12_Vector_baseIN5vmesh14MeshParametersESaIS1_EE17_Vector_impl_dataE** %..inline.addr to i8**, !dbg !5622
	store i8*  %1, i8**  %2, align 8, !tbaa !3978, !dbg !5622
	%3 = load %struct._ZNSt12_Vector_baseIN5vmesh14MeshParametersESaIS1_EE17_Vector_impl_dataE*, %struct._ZNSt12_Vector_baseIN5vmesh14MeshParametersESaIS1_EE17_Vector_impl_dataE** %..inline.addr, align 8, !tbaa !3978, !dbg !5622
	%4 = bitcast %struct._ZNSt12_Vector_baseIN5vmesh14MeshParametersESaIS1_EE17_Vector_impl_dataE*  %3 to i8**, !dbg !5622
	store i8* null, i8**  %4, align 8, !tbaa !3978, !dbg !5622
	%5 = bitcast %struct._ZNSt12_Vector_baseIN5vmesh14MeshParametersESaIS1_EE17_Vector_impl_dataE*  %3 to i8*, !dbg !5622
	%6 = getelementptr i8, i8*  %5, i64 8, !dbg !5622
	%7 = bitcast i8*  %6 to i8**, !dbg !5622
	store i8* null, i8**  %7, align 8, !tbaa !3978, !dbg !5622
	%8 = getelementptr i8, i8*  %5, i64 16, !dbg !5622
	%9 = bitcast i8*  %8 to i8**, !dbg !5622
	store i8* null, i8**  %9, align 8, !tbaa !3978, !dbg !5622
	ret void, !dbg !5622
}
define linkonce_odr void @_ZNSt12_Vector_baseIN5vmesh14MeshParametersESaIS1_EE12_Vector_implD1Ev(%struct._ZNSt12_Vector_baseIN5vmesh14MeshParametersESaIS1_EE12_Vector_implE* %_T45627360_52177.arg) #0 inlinehint !dbg !5624 {
L.entry:
	%_T45627360_52177.addr = alloca %struct._ZNSt12_Vector_baseIN5vmesh14MeshParametersESaIS1_EE12_Vector_implE*, align 8

	call void @llvm.dbg.declare (metadata %struct._ZNSt12_Vector_baseIN5vmesh14MeshParametersESaIS1_EE12_Vector_implE** %_T45627360_52177.addr, metadata !5636, metadata !3970), !dbg !5625
	store %struct._ZNSt12_Vector_baseIN5vmesh14MeshParametersESaIS1_EE12_Vector_implE* %_T45627360_52177.arg, %struct._ZNSt12_Vector_baseIN5vmesh14MeshParametersESaIS1_EE12_Vector_implE** %_T45627360_52177.addr, align 8, !tbaa !3978
	call void @llvm.dbg.declare (metadata %struct._ZNSt12_Vector_baseIN5vmesh14MeshParametersESaIS1_EE12_Vector_implE** %_T45627360_52177.addr, metadata !5637, metadata !3970), !dbg !5625
	ret void, !dbg !5638
}
define linkonce_odr void @_ZNSt12_Vector_baseIN5vmesh14MeshParametersESaIS1_EE12_Vector_implD2Ev(%struct._ZNSt12_Vector_baseIN5vmesh14MeshParametersESaIS1_EE12_Vector_implE* %_T45627360_52178.arg) #0 inlinehint !dbg !5640 {
L.entry:
	%_T45627360_52178.addr = alloca %struct._ZNSt12_Vector_baseIN5vmesh14MeshParametersESaIS1_EE12_Vector_implE*, align 8

	store %struct._ZNSt12_Vector_baseIN5vmesh14MeshParametersESaIS1_EE12_Vector_implE* %_T45627360_52178.arg, %struct._ZNSt12_Vector_baseIN5vmesh14MeshParametersESaIS1_EE12_Vector_implE** %_T45627360_52178.addr, align 8, !tbaa !3978
	ret void, !dbg !5656
}

%struct._ZSt6vectorIN5vmesh14MeshParametersESaIS1_EE = type <{ %struct._ZSt12_Vector_baseIN5vmesh14MeshParametersESaIS1_EE}> 

define linkonce_odr void @_ZNSt6vectorIN5vmesh14MeshParametersESaIS1_EEC1Ev(%struct._ZSt6vectorIN5vmesh14MeshParametersESaIS1_EE* %_T45627360_52179.arg) #0 inlinehint !dbg !5661 {
L.entry:
	%_T45627360_52179.addr = alloca %struct._ZSt6vectorIN5vmesh14MeshParametersESaIS1_EE*, align 8
	%..inline.addr = alloca %struct._ZNSt12_Vector_baseIN5vmesh14MeshParametersESaIS1_EE17_Vector_impl_dataE*, align 8

	call void @llvm.dbg.declare (metadata %struct._ZSt6vectorIN5vmesh14MeshParametersESaIS1_EE** %_T45627360_52179.addr, metadata !5685, metadata !3970), !dbg !5662
	store %struct._ZSt6vectorIN5vmesh14MeshParametersESaIS1_EE* %_T45627360_52179.arg, %struct._ZSt6vectorIN5vmesh14MeshParametersESaIS1_EE** %_T45627360_52179.addr, align 8, !tbaa !3978
	call void @llvm.dbg.declare (metadata %struct._ZSt6vectorIN5vmesh14MeshParametersESaIS1_EE** %_T45627360_52179.addr, metadata !5686, metadata !3970), !dbg !5662
	%0 = load %struct._ZSt6vectorIN5vmesh14MeshParametersESaIS1_EE*, %struct._ZSt6vectorIN5vmesh14MeshParametersESaIS1_EE** %_T45627360_52179.addr, align 8, !tbaa !3978, !dbg !5687
	%1 = bitcast %struct._ZSt6vectorIN5vmesh14MeshParametersESaIS1_EE*  %0 to i8*, !dbg !5687
	%2 = bitcast %struct._ZNSt12_Vector_baseIN5vmesh14MeshParametersESaIS1_EE17_Vector_impl_dataE** %..inline.addr to i8**, !dbg !5687
	store i8*  %1, i8**  %2, align 8, !tbaa !3978, !dbg !5687
	%3 = load %struct._ZNSt12_Vector_baseIN5vmesh14MeshParametersESaIS1_EE17_Vector_impl_dataE*, %struct._ZNSt12_Vector_baseIN5vmesh14MeshParametersESaIS1_EE17_Vector_impl_dataE** %..inline.addr, align 8, !tbaa !3978, !dbg !5687
	%4 = bitcast %struct._ZNSt12_Vector_baseIN5vmesh14MeshParametersESaIS1_EE17_Vector_impl_dataE*  %3 to i8**, !dbg !5687
	store i8* null, i8**  %4, align 8, !tbaa !3978, !dbg !5687
	%5 = bitcast %struct._ZNSt12_Vector_baseIN5vmesh14MeshParametersESaIS1_EE17_Vector_impl_dataE*  %3 to i8*, !dbg !5687
	%6 = getelementptr i8, i8*  %5, i64 8, !dbg !5687
	%7 = bitcast i8*  %6 to i8**, !dbg !5687
	store i8* null, i8**  %7, align 8, !tbaa !3978, !dbg !5687
	%8 = getelementptr i8, i8*  %5, i64 16, !dbg !5687
	%9 = bitcast i8*  %8 to i8**, !dbg !5687
	store i8* null, i8**  %9, align 8, !tbaa !3978, !dbg !5687
	ret void, !dbg !5687
}
define linkonce_odr void @_ZNSt6vectorIN5vmesh14MeshParametersESaIS1_EEC2Ev(%struct._ZSt6vectorIN5vmesh14MeshParametersESaIS1_EE* %_T45627360_52180.arg) #0 inlinehint !dbg !5689 {
L.entry:
	%_T45627360_52180.addr = alloca %struct._ZSt6vectorIN5vmesh14MeshParametersESaIS1_EE*, align 8
	%..inline.addr = alloca %struct._ZNSt12_Vector_baseIN5vmesh14MeshParametersESaIS1_EE17_Vector_impl_dataE*, align 8

	store %struct._ZSt6vectorIN5vmesh14MeshParametersESaIS1_EE* %_T45627360_52180.arg, %struct._ZSt6vectorIN5vmesh14MeshParametersESaIS1_EE** %_T45627360_52180.addr, align 8, !tbaa !3978
	%0 = load %struct._ZSt6vectorIN5vmesh14MeshParametersESaIS1_EE*, %struct._ZSt6vectorIN5vmesh14MeshParametersESaIS1_EE** %_T45627360_52180.addr, align 8, !tbaa !3978, !dbg !5717
	%1 = bitcast %struct._ZSt6vectorIN5vmesh14MeshParametersESaIS1_EE*  %0 to i8*, !dbg !5717
	%2 = bitcast %struct._ZNSt12_Vector_baseIN5vmesh14MeshParametersESaIS1_EE17_Vector_impl_dataE** %..inline.addr to i8**, !dbg !5717
	store i8*  %1, i8**  %2, align 8, !tbaa !3978, !dbg !5717
	%3 = load %struct._ZNSt12_Vector_baseIN5vmesh14MeshParametersESaIS1_EE17_Vector_impl_dataE*, %struct._ZNSt12_Vector_baseIN5vmesh14MeshParametersESaIS1_EE17_Vector_impl_dataE** %..inline.addr, align 8, !tbaa !3978, !dbg !5717
	%4 = bitcast %struct._ZNSt12_Vector_baseIN5vmesh14MeshParametersESaIS1_EE17_Vector_impl_dataE*  %3 to i8**, !dbg !5717
	store i8* null, i8**  %4, align 8, !tbaa !3978, !dbg !5717
	%5 = bitcast %struct._ZNSt12_Vector_baseIN5vmesh14MeshParametersESaIS1_EE17_Vector_impl_dataE*  %3 to i8*, !dbg !5717
	%6 = getelementptr i8, i8*  %5, i64 8, !dbg !5717
	%7 = bitcast i8*  %6 to i8**, !dbg !5717
	store i8* null, i8**  %7, align 8, !tbaa !3978, !dbg !5717
	%8 = getelementptr i8, i8*  %5, i64 16, !dbg !5717
	%9 = bitcast i8*  %8 to i8**, !dbg !5717
	store i8* null, i8**  %9, align 8, !tbaa !3978, !dbg !5717
	ret void, !dbg !5717
}
define linkonce_odr void @_ZNSt6vectorIN5vmesh14MeshParametersESaIS1_EED1Ev(%struct._ZSt6vectorIN5vmesh14MeshParametersESaIS1_EE* %_T45627360_52181.arg) #0 inlinehint !dbg !5719 {
L.entry:
	%_T45627360_52181.addr = alloca %struct._ZSt6vectorIN5vmesh14MeshParametersESaIS1_EE*, align 8
	%..inline.addr = alloca %struct._ZN5vmesh14MeshParametersE*, align 8
	%..inline.addr.1 = alloca %struct._ZN5vmesh14MeshParametersE*, align 8
	%.lcr4482945.addr = alloca i8*, align 8
	%..inline.addr.2 = alloca %struct._ZN5vmesh14MeshParametersE*, align 8
	%..inline.addr.3 = alloca %struct._ZSt12_Vector_baseIN5vmesh14MeshParametersESaIS1_EE*, align 8
	%..inline.addr.4 = alloca %struct._ZN5vmesh14MeshParametersE*, align 8

	call void @llvm.dbg.declare (metadata %struct._ZSt6vectorIN5vmesh14MeshParametersESaIS1_EE** %_T45627360_52181.addr, metadata !5779, metadata !3970), !dbg !5720
	store %struct._ZSt6vectorIN5vmesh14MeshParametersESaIS1_EE* %_T45627360_52181.arg, %struct._ZSt6vectorIN5vmesh14MeshParametersESaIS1_EE** %_T45627360_52181.addr, align 8, !tbaa !3978
	call void @llvm.dbg.declare (metadata %struct._ZSt6vectorIN5vmesh14MeshParametersESaIS1_EE** %_T45627360_52181.addr, metadata !5780, metadata !3970), !dbg !5720
	%0 = load %struct._ZSt6vectorIN5vmesh14MeshParametersESaIS1_EE*, %struct._ZSt6vectorIN5vmesh14MeshParametersESaIS1_EE** %_T45627360_52181.addr, align 8, !tbaa !3978, !dbg !5781
	%1 = bitcast %struct._ZSt6vectorIN5vmesh14MeshParametersESaIS1_EE*  %0 to i8**, !dbg !5781
	%2 = load i8*, i8**  %1, align 8, !tbaa !3978, !dbg !5781
	%3 = bitcast %struct._ZN5vmesh14MeshParametersE** %..inline.addr to i8**, !dbg !5781
	store i8*  %2, i8**  %3, align 8, !tbaa !3978, !dbg !5781
	%4 = bitcast %struct._ZSt6vectorIN5vmesh14MeshParametersESaIS1_EE*  %0 to i8*, !dbg !5781
	%5 = getelementptr i8, i8*  %4, i64 8, !dbg !5781
	%6 = bitcast i8*  %5 to i8**, !dbg !5781
	%7 = load i8*, i8**  %6, align 8, !tbaa !3978, !dbg !5781
	%8 = bitcast %struct._ZN5vmesh14MeshParametersE** %..inline.addr.1 to i8**, !dbg !5781
	store i8*  %7, i8**  %8, align 8, !tbaa !3978, !dbg !5781
	%9 = load %struct._ZN5vmesh14MeshParametersE*, %struct._ZN5vmesh14MeshParametersE** %..inline.addr, align 8, !tbaa !3978, !dbg !5781
	%10 = bitcast %struct._ZN5vmesh14MeshParametersE*  %9 to i8*, !dbg !5781
	%11 = load %struct._ZN5vmesh14MeshParametersE*, %struct._ZN5vmesh14MeshParametersE** %..inline.addr.1, align 8, !tbaa !3978, !dbg !5781
	%12 = bitcast %struct._ZN5vmesh14MeshParametersE*  %11 to i8*, !dbg !5781
	%13 = icmp eq i8*  %10,  %12, !dbg !5781
	br i1  %13, label %L..inline.71288, label %L.B1381, !dbg !5781
L.B1381:
	%14 = bitcast %struct._ZN5vmesh14MeshParametersE*  %9 to i8*, !dbg !5781
	%15 = bitcast %struct._ZN5vmesh14MeshParametersE*  %11 to i8*, !dbg !5781
	%16 = ptrtoint i8*  %14 to i64, !dbg !5781
	%17 = sub i64 0,  %16, !dbg !5781
	%18 = getelementptr i8, i8*  %15, i64  %17, !dbg !5781
	%19 = ptrtoint i8*  %18 to i64, !dbg !5781
	%20 = add i64  %19, 335, !dbg !5781
	%21 = sub i64 0,  %16, !dbg !5781
	%22 = getelementptr i8, i8*  %15, i64  %21, !dbg !5781
	%23 = ptrtoint i8*  %22 to i64, !dbg !5781
	%24 = add i64  %23, 335, !dbg !5781
	%25 = sext i64 -4392081922311798003 to i128, !dbg !5781
	%26 = sext i64  %24 to i128, !dbg !5781
	%27 = mul i128  %25,  %26, !dbg !5781
	%28 = ashr i128  %27, 64, !dbg !5781
	%29 = trunc i128  %28 to i64, !dbg !5781
	%30 = add i64  %20,  %29, !dbg !5781
	%31 = sext i32 8 to i64, !dbg !5781
	%32 = ashr i64  %30,  %31, !dbg !5781
	%33 = sub i64 0,  %16, !dbg !5781
	%34 = getelementptr i8, i8*  %15, i64  %33, !dbg !5781
	%35 = ptrtoint i8*  %34 to i64, !dbg !5781
	%36 = add i64  %35, 335, !dbg !5781
	%37 = sext i32 63 to i64, !dbg !5781
	%38 = ashr i64  %36,  %37, !dbg !5781
	%39 = sub i64  %32,  %38, !dbg !5781
	%40 = mul i64  %39, 336, !dbg !5781
	%41 = getelementptr i8, i8*  %14, i64  %40, !dbg !5781
	store i8*  %41, i8** %.lcr4482945.addr, align 8, !tbaa !3978, !dbg !5781
	br label %L..inline.71287
L..inline.71287:
	%42 = load %struct._ZN5vmesh14MeshParametersE*, %struct._ZN5vmesh14MeshParametersE** %..inline.addr, align 8, !tbaa !3978, !dbg !5781
	%43 = bitcast %struct._ZN5vmesh14MeshParametersE*  %42 to i8*, !dbg !5781
	%44 = bitcast %struct._ZN5vmesh14MeshParametersE** %..inline.addr.2 to i8**, !dbg !5781
	store i8*  %43, i8**  %44, align 8, !tbaa !3978, !dbg !5781
	%45 = load %struct._ZN5vmesh14MeshParametersE*, %struct._ZN5vmesh14MeshParametersE** %..inline.addr.2, align 8, !tbaa !3978, !dbg !5781
	call void  @_ZN5vmesh14MeshParametersD1Ev (%struct._ZN5vmesh14MeshParametersE*  %45) nounwind, !dbg !5781
	%46 = load %struct._ZN5vmesh14MeshParametersE*, %struct._ZN5vmesh14MeshParametersE** %..inline.addr, align 8, !tbaa !3978, !dbg !5781
	%47 = bitcast %struct._ZN5vmesh14MeshParametersE*  %46 to i8*, !dbg !5781
	%48 = getelementptr i8, i8*  %47, i64 336, !dbg !5781
	%49 = bitcast %struct._ZN5vmesh14MeshParametersE** %..inline.addr to i8**, !dbg !5781
	store i8*  %48, i8**  %49, align 8, !tbaa !3978, !dbg !5781
	%50 = load %struct._ZN5vmesh14MeshParametersE*, %struct._ZN5vmesh14MeshParametersE** %..inline.addr, align 8, !tbaa !3978, !dbg !5781
	%51 = bitcast %struct._ZN5vmesh14MeshParametersE*  %50 to i8*, !dbg !5781
	%52 = load i8*, i8** %.lcr4482945.addr, align 8, !tbaa !3978, !dbg !5781
	%53 = icmp ult i8*  %51,  %52, !dbg !5781
	br i1  %53, label %L..inline.71287, label %L..inline.71288, !dbg !5781
L..inline.71288:
	%54 = load %struct._ZSt6vectorIN5vmesh14MeshParametersESaIS1_EE*, %struct._ZSt6vectorIN5vmesh14MeshParametersESaIS1_EE** %_T45627360_52181.addr, align 8, !tbaa !3978, !dbg !5782
	%55 = bitcast %struct._ZSt6vectorIN5vmesh14MeshParametersESaIS1_EE*  %54 to i8*, !dbg !5782
	%56 = bitcast %struct._ZSt12_Vector_baseIN5vmesh14MeshParametersESaIS1_EE** %..inline.addr.3 to i8**, !dbg !5782
	store i8*  %55, i8**  %56, align 8, !tbaa !3978, !dbg !5782
	%57 = load %struct._ZSt12_Vector_baseIN5vmesh14MeshParametersESaIS1_EE*, %struct._ZSt12_Vector_baseIN5vmesh14MeshParametersESaIS1_EE** %..inline.addr.3, align 8, !tbaa !3978, !dbg !5783
	%58 = bitcast %struct._ZSt12_Vector_baseIN5vmesh14MeshParametersESaIS1_EE*  %57 to i8**, !dbg !5783
	%59 = load i8*, i8**  %58, align 8, !tbaa !3978, !dbg !5783
	%60 = icmp eq i8*  %59,  null, !dbg !5783
	br i1  %60, label %L..inline.71320, label %L.B1382, !dbg !5783
L.B1382:
	%61 = bitcast %struct._ZSt12_Vector_baseIN5vmesh14MeshParametersESaIS1_EE*  %57 to i8**, !dbg !5783
	%62 = load i8*, i8**  %61, align 8, !tbaa !3978, !dbg !5783
	%63 = bitcast %struct._ZN5vmesh14MeshParametersE** %..inline.addr.4 to i8**, !dbg !5783
	store i8*  %62, i8**  %63, align 8, !tbaa !3978, !dbg !5783
	%64 = load %struct._ZN5vmesh14MeshParametersE*, %struct._ZN5vmesh14MeshParametersE** %..inline.addr.4, align 8, !tbaa !3978, !dbg !5783
	%65 = bitcast %struct._ZN5vmesh14MeshParametersE*  %64 to i8*, !dbg !5783
	call void  @_ZdlPv (i8*  %65) nounwind, !dbg !5783
	br label %L..inline.71320
L..inline.71320:
	ret void, !dbg !5782
}
define linkonce_odr void @_ZNSt6vectorIN5vmesh14MeshParametersESaIS1_EED2Ev(%struct._ZSt6vectorIN5vmesh14MeshParametersESaIS1_EE* %_T45627360_52182.arg) #0 inlinehint !dbg !5785 {
L.entry:
	%_T45627360_52182.addr = alloca %struct._ZSt6vectorIN5vmesh14MeshParametersESaIS1_EE*, align 8
	%..inline.addr = alloca %struct._ZSt6vectorIN5vmesh14MeshParametersESaIS1_EE*, align 8
	%..inline.addr.1 = alloca %struct._ZN5vmesh14MeshParametersE*, align 8
	%..inline.addr.2 = alloca %struct._ZN5vmesh14MeshParametersE*, align 8
	%.lcr4483969.addr = alloca i8*, align 8
	%..inline.addr.3 = alloca %struct._ZN5vmesh14MeshParametersE*, align 8
	%..inline.addr.4 = alloca %struct._ZN5vmesh14MeshParametersE*, align 8

	store %struct._ZSt6vectorIN5vmesh14MeshParametersESaIS1_EE* %_T45627360_52182.arg, %struct._ZSt6vectorIN5vmesh14MeshParametersESaIS1_EE** %_T45627360_52182.addr, align 8, !tbaa !3978
	%0 = load %struct._ZSt6vectorIN5vmesh14MeshParametersESaIS1_EE*, %struct._ZSt6vectorIN5vmesh14MeshParametersESaIS1_EE** %_T45627360_52182.addr, align 8, !tbaa !3978, !dbg !5849
	%1 = bitcast %struct._ZSt6vectorIN5vmesh14MeshParametersESaIS1_EE*  %0 to i8*, !dbg !5849
	%2 = bitcast %struct._ZSt6vectorIN5vmesh14MeshParametersESaIS1_EE** %..inline.addr to i8**, !dbg !5849
	store i8*  %1, i8**  %2, align 8, !tbaa !3978, !dbg !5849
	%3 = load %struct._ZSt6vectorIN5vmesh14MeshParametersESaIS1_EE*, %struct._ZSt6vectorIN5vmesh14MeshParametersESaIS1_EE** %..inline.addr, align 8, !tbaa !3978, !dbg !5850
	%4 = bitcast %struct._ZSt6vectorIN5vmesh14MeshParametersESaIS1_EE*  %3 to i8**, !dbg !5850
	%5 = load i8*, i8**  %4, align 8, !tbaa !3978, !dbg !5850
	%6 = bitcast %struct._ZN5vmesh14MeshParametersE** %..inline.addr.1 to i8**, !dbg !5850
	store i8*  %5, i8**  %6, align 8, !tbaa !3978, !dbg !5850
	%7 = bitcast %struct._ZSt6vectorIN5vmesh14MeshParametersESaIS1_EE*  %3 to i8*, !dbg !5850
	%8 = getelementptr i8, i8*  %7, i64 8, !dbg !5850
	%9 = bitcast i8*  %8 to i8**, !dbg !5850
	%10 = load i8*, i8**  %9, align 8, !tbaa !3978, !dbg !5850
	%11 = bitcast %struct._ZN5vmesh14MeshParametersE** %..inline.addr.2 to i8**, !dbg !5850
	store i8*  %10, i8**  %11, align 8, !tbaa !3978, !dbg !5850
	%12 = load %struct._ZN5vmesh14MeshParametersE*, %struct._ZN5vmesh14MeshParametersE** %..inline.addr.1, align 8, !tbaa !3978, !dbg !5850
	%13 = bitcast %struct._ZN5vmesh14MeshParametersE*  %12 to i8*, !dbg !5850
	%14 = load %struct._ZN5vmesh14MeshParametersE*, %struct._ZN5vmesh14MeshParametersE** %..inline.addr.2, align 8, !tbaa !3978, !dbg !5850
	%15 = bitcast %struct._ZN5vmesh14MeshParametersE*  %14 to i8*, !dbg !5850
	%16 = icmp eq i8*  %13,  %15, !dbg !5850
	br i1  %16, label %L..inline.71419, label %L.B1385, !dbg !5850
L.B1385:
	%17 = bitcast %struct._ZN5vmesh14MeshParametersE*  %12 to i8*, !dbg !5850
	%18 = bitcast %struct._ZN5vmesh14MeshParametersE*  %14 to i8*, !dbg !5850
	%19 = ptrtoint i8*  %17 to i64, !dbg !5850
	%20 = sub i64 0,  %19, !dbg !5850
	%21 = getelementptr i8, i8*  %18, i64  %20, !dbg !5850
	%22 = ptrtoint i8*  %21 to i64, !dbg !5850
	%23 = add i64  %22, 335, !dbg !5850
	%24 = sub i64 0,  %19, !dbg !5850
	%25 = getelementptr i8, i8*  %18, i64  %24, !dbg !5850
	%26 = ptrtoint i8*  %25 to i64, !dbg !5850
	%27 = add i64  %26, 335, !dbg !5850
	%28 = sext i64 -4392081922311798003 to i128, !dbg !5850
	%29 = sext i64  %27 to i128, !dbg !5850
	%30 = mul i128  %28,  %29, !dbg !5850
	%31 = ashr i128  %30, 64, !dbg !5850
	%32 = trunc i128  %31 to i64, !dbg !5850
	%33 = add i64  %23,  %32, !dbg !5850
	%34 = sext i32 8 to i64, !dbg !5850
	%35 = ashr i64  %33,  %34, !dbg !5850
	%36 = sub i64 0,  %19, !dbg !5850
	%37 = getelementptr i8, i8*  %18, i64  %36, !dbg !5850
	%38 = ptrtoint i8*  %37 to i64, !dbg !5850
	%39 = add i64  %38, 335, !dbg !5850
	%40 = sext i32 63 to i64, !dbg !5850
	%41 = ashr i64  %39,  %40, !dbg !5850
	%42 = sub i64  %35,  %41, !dbg !5850
	%43 = mul i64  %42, 336, !dbg !5850
	%44 = getelementptr i8, i8*  %17, i64  %43, !dbg !5850
	store i8*  %44, i8** %.lcr4483969.addr, align 8, !tbaa !3978, !dbg !5850
	br label %L..inline.71418
L..inline.71418:
	%45 = load %struct._ZN5vmesh14MeshParametersE*, %struct._ZN5vmesh14MeshParametersE** %..inline.addr.1, align 8, !tbaa !3978, !dbg !5850
	%46 = bitcast %struct._ZN5vmesh14MeshParametersE*  %45 to i8*, !dbg !5850
	%47 = bitcast %struct._ZN5vmesh14MeshParametersE** %..inline.addr.3 to i8**, !dbg !5850
	store i8*  %46, i8**  %47, align 8, !tbaa !3978, !dbg !5850
	%48 = load %struct._ZN5vmesh14MeshParametersE*, %struct._ZN5vmesh14MeshParametersE** %..inline.addr.3, align 8, !tbaa !3978, !dbg !5850
	call void  @_ZN5vmesh14MeshParametersD1Ev (%struct._ZN5vmesh14MeshParametersE*  %48) nounwind, !dbg !5850
	%49 = load %struct._ZN5vmesh14MeshParametersE*, %struct._ZN5vmesh14MeshParametersE** %..inline.addr.1, align 8, !tbaa !3978, !dbg !5850
	%50 = bitcast %struct._ZN5vmesh14MeshParametersE*  %49 to i8*, !dbg !5850
	%51 = getelementptr i8, i8*  %50, i64 336, !dbg !5850
	%52 = bitcast %struct._ZN5vmesh14MeshParametersE** %..inline.addr.1 to i8**, !dbg !5850
	store i8*  %51, i8**  %52, align 8, !tbaa !3978, !dbg !5850
	%53 = load %struct._ZN5vmesh14MeshParametersE*, %struct._ZN5vmesh14MeshParametersE** %..inline.addr.1, align 8, !tbaa !3978, !dbg !5850
	%54 = bitcast %struct._ZN5vmesh14MeshParametersE*  %53 to i8*, !dbg !5850
	%55 = load i8*, i8** %.lcr4483969.addr, align 8, !tbaa !3978, !dbg !5850
	%56 = icmp ult i8*  %54,  %55, !dbg !5850
	br i1  %56, label %L..inline.71418, label %L..inline.71419, !dbg !5850
L..inline.71419:
	%57 = load %struct._ZSt6vectorIN5vmesh14MeshParametersESaIS1_EE*, %struct._ZSt6vectorIN5vmesh14MeshParametersESaIS1_EE** %..inline.addr, align 8, !tbaa !3978, !dbg !5851
	%58 = bitcast %struct._ZSt6vectorIN5vmesh14MeshParametersESaIS1_EE*  %57 to i8**, !dbg !5851
	%59 = load i8*, i8**  %58, align 8, !tbaa !3978, !dbg !5851
	%60 = icmp eq i8*  %59,  null, !dbg !5851
	br i1  %60, label %L..inline.71449, label %L.B1386, !dbg !5851
L.B1386:
	%61 = bitcast %struct._ZSt6vectorIN5vmesh14MeshParametersESaIS1_EE*  %57 to i8**, !dbg !5851
	%62 = load i8*, i8**  %61, align 8, !tbaa !3978, !dbg !5851
	%63 = bitcast %struct._ZN5vmesh14MeshParametersE** %..inline.addr.4 to i8**, !dbg !5851
	store i8*  %62, i8**  %63, align 8, !tbaa !3978, !dbg !5851
	%64 = load %struct._ZN5vmesh14MeshParametersE*, %struct._ZN5vmesh14MeshParametersE** %..inline.addr.4, align 8, !tbaa !3978, !dbg !5851
	%65 = bitcast %struct._ZN5vmesh14MeshParametersE*  %64 to i8*, !dbg !5851
	call void  @_ZdlPv (i8*  %65) nounwind, !dbg !5851
	br label %L..inline.71449
L..inline.71449:
	ret void, !dbg !5851
}

%struct._ZN7species7SpeciesE = type <{ %struct._ZNSt7__cxx1112basic_stringIcSt11char_traitsIcESaIcEEE, double, double, double, i64, i32, i8, [3 x i8], i32, [4 x i8], double, double, double, double, double, %struct._ZSt5arrayIdLm3EE, double, double, double, double, i32, [4 x i8], double, double, double}> 
%struct._ZSt12_Vector_baseIN7species7SpeciesESaIS1_EE = type <{ %struct._ZNSt12_Vector_baseIN7species7SpeciesESaIS1_EE12_Vector_implE}> 
%struct._ZSt5arrayIdLm3EE = type <{ [3 x double]}> 
%struct._ZNSt12_Vector_baseIN7species7SpeciesESaIS1_EE12_Vector_implE = type <{ %struct._ZNSt12_Vector_baseIN7species7SpeciesESaIS1_EE17_Vector_impl_dataE}> 
%struct._ZNSt12_Vector_baseIN7species7SpeciesESaIS1_EE17_Vector_impl_dataE = type <{ %struct._ZN7species7SpeciesE*, %struct._ZN7species7SpeciesE*, %struct._ZN7species7SpeciesE*}> 
%struct._ZSt6vectorIN7species7SpeciesESaIS1_EE = type <{ %struct._ZSt12_Vector_baseIN7species7SpeciesESaIS1_EE}> 

define linkonce_odr i64 @_ZNKSt6vectorIN7species7SpeciesESaIS1_EE4sizeEv(%struct._ZSt6vectorIN7species7SpeciesESaIS1_EE* %_T45627360_52184.arg) #0 inlinehint !dbg !5856 {
L.entry:
	%_T45627360_52184.addr = alloca %struct._ZSt6vectorIN7species7SpeciesESaIS1_EE*, align 8
	%_T45628248_52184.addr = alloca i64, align 8

	call void @llvm.dbg.declare (metadata %struct._ZSt6vectorIN7species7SpeciesESaIS1_EE** %_T45627360_52184.addr, metadata !5860, metadata !3970), !dbg !5857
	store %struct._ZSt6vectorIN7species7SpeciesESaIS1_EE* %_T45627360_52184.arg, %struct._ZSt6vectorIN7species7SpeciesESaIS1_EE** %_T45627360_52184.addr, align 8, !tbaa !3978
	call void @llvm.dbg.declare (metadata %struct._ZSt6vectorIN7species7SpeciesESaIS1_EE** %_T45627360_52184.addr, metadata !5861, metadata !3970), !dbg !5857
	%0 = load %struct._ZSt6vectorIN7species7SpeciesESaIS1_EE*, %struct._ZSt6vectorIN7species7SpeciesESaIS1_EE** %_T45627360_52184.addr, align 8, !tbaa !3978, !dbg !5862
	%1 = bitcast %struct._ZSt6vectorIN7species7SpeciesESaIS1_EE*  %0 to i8*, !dbg !5862
	%2 = getelementptr i8, i8*  %1, i64 8, !dbg !5862
	%3 = bitcast i8*  %2 to i8**, !dbg !5862
	%4 = load i8*, i8**  %3, align 8, !tbaa !3978, !dbg !5862
	%5 = bitcast %struct._ZSt6vectorIN7species7SpeciesESaIS1_EE*  %0 to i8**, !dbg !5862
	%6 = load i8*, i8**  %5, align 8, !tbaa !3978, !dbg !5862
	%7 = ptrtoint i8*  %6 to i64, !dbg !5862
	%8 = sub i64 0,  %7, !dbg !5862
	%9 = getelementptr i8, i8*  %4, i64  %8, !dbg !5862
	%10 = ptrtoint i8*  %9 to i64, !dbg !5862
	%11 = sext i64 5675921253449092805 to i128, !dbg !5862
	%12 = sext i64  %10 to i128, !dbg !5862
	%13 = mul i128  %11,  %12, !dbg !5862
	%14 = ashr i128  %13, 64, !dbg !5862
	%15 = trunc i128  %14 to i64, !dbg !5862
	%16 = sext i32 6 to i64, !dbg !5862
	%17 = ashr i64  %15,  %16, !dbg !5862
	%18 = sub i64 0,  %7, !dbg !5862
	%19 = getelementptr i8, i8*  %4, i64  %18, !dbg !5862
	%20 = ptrtoint i8*  %19 to i64, !dbg !5862
	%21 = sext i32 63 to i64, !dbg !5862
	%22 = ashr i64  %20,  %21, !dbg !5862
	%23 = sub i64  %17,  %22, !dbg !5862
	ret i64  %23, !dbg !5862
}
define linkonce_odr %struct._ZN7species7SpeciesE* @_ZNSt6vectorIN7species7SpeciesESaIS1_EEixEm(%struct._ZSt6vectorIN7species7SpeciesESaIS1_EE* %_T45627360_52187.arg, i64 %__n.arg) #0 inlinehint !dbg !5866 {
L.entry:
	%_T45627360_52187.addr = alloca %struct._ZSt6vectorIN7species7SpeciesESaIS1_EE*, align 8
	%__n.addr = alloca i64, align 8

	call void @llvm.dbg.declare (metadata %struct._ZSt6vectorIN7species7SpeciesESaIS1_EE** %_T45627360_52187.addr, metadata !5870, metadata !3970), !dbg !5867
	store %struct._ZSt6vectorIN7species7SpeciesESaIS1_EE* %_T45627360_52187.arg, %struct._ZSt6vectorIN7species7SpeciesESaIS1_EE** %_T45627360_52187.addr, align 8, !tbaa !3978
	call void @llvm.dbg.declare (metadata %struct._ZSt6vectorIN7species7SpeciesESaIS1_EE** %_T45627360_52187.addr, metadata !5871, metadata !3970), !dbg !5867
	call void @llvm.dbg.declare (metadata i64* %__n.addr, metadata !5872, metadata !3970), !dbg !5867
	store i64 %__n.arg, i64* %__n.addr, align 8, !tbaa !3977
	call void @llvm.dbg.declare (metadata i64* %__n.addr, metadata !5873, metadata !3970), !dbg !5867
	%0 = load %struct._ZSt6vectorIN7species7SpeciesESaIS1_EE*, %struct._ZSt6vectorIN7species7SpeciesESaIS1_EE** %_T45627360_52187.addr, align 8, !tbaa !3978, !dbg !5874
	%1 = bitcast %struct._ZSt6vectorIN7species7SpeciesESaIS1_EE*  %0 to i8**, !dbg !5874
	%2 = load i8*, i8**  %1, align 8, !tbaa !3978, !dbg !5874
	%3 = load i64, i64* %__n.addr, align 8, !tbaa !4405, !dbg !5874
	%4 = mul i64  %3, 208, !dbg !5874
	%5 = getelementptr i8, i8*  %2, i64  %4, !dbg !5874
	%6 = bitcast i8*  %5 to %struct._ZN7species7SpeciesE*, !dbg !5874
	ret %struct._ZN7species7SpeciesE*  %6, !dbg !5874
}

%struct._ZSaIN8projects25FirehoseSpeciesParametersEE = type <{ [1 x i8]}> 

define linkonce_odr void @_ZNSaIN8projects25FirehoseSpeciesParametersEED1Ev(%struct._ZSaIN8projects25FirehoseSpeciesParametersEE* %_T45627360_52188.arg) #0 inlinehint !dbg !5880 {
L.entry:
	%_T45627360_52188.addr = alloca %struct._ZSaIN8projects25FirehoseSpeciesParametersEE*, align 8

	call void @llvm.dbg.declare (metadata %struct._ZSaIN8projects25FirehoseSpeciesParametersEE** %_T45627360_52188.addr, metadata !5884, metadata !3970), !dbg !5881
	store %struct._ZSaIN8projects25FirehoseSpeciesParametersEE* %_T45627360_52188.arg, %struct._ZSaIN8projects25FirehoseSpeciesParametersEE** %_T45627360_52188.addr, align 8, !tbaa !3978
	call void @llvm.dbg.declare (metadata %struct._ZSaIN8projects25FirehoseSpeciesParametersEE** %_T45627360_52188.addr, metadata !5885, metadata !3970), !dbg !5881
	ret void, !dbg !5886
}
define linkonce_odr void @_ZNSaIN8projects25FirehoseSpeciesParametersEED2Ev(%struct._ZSaIN8projects25FirehoseSpeciesParametersEE* %_T45627360_52189.arg) #0 inlinehint !dbg !5888 {
L.entry:
	%_T45627360_52189.addr = alloca %struct._ZSaIN8projects25FirehoseSpeciesParametersEE*, align 8

	store %struct._ZSaIN8projects25FirehoseSpeciesParametersEE* %_T45627360_52189.arg, %struct._ZSaIN8projects25FirehoseSpeciesParametersEE** %_T45627360_52189.addr, align 8, !tbaa !3978
	ret void, !dbg !5896
}
define linkonce_odr %struct._ZN8projects25FirehoseSpeciesParametersE* @_ZNSt16allocator_traitsISaIN8projects25FirehoseSpeciesParametersEEE8allocateERS2_m(%struct._ZSaIN8projects25FirehoseSpeciesParametersEE* %__a.arg, i64 %__n.arg) #0 inlinehint !dbg !5904 {
L.entry:
	%__a.addr = alloca %struct._ZSaIN8projects25FirehoseSpeciesParametersEE*, align 8
	%__n.addr = alloca i64, align 8
	%..inline.addr = alloca i64, align 8
	%.Q0010.addr = alloca i8*, align 8

	call void @llvm.dbg.declare (metadata %struct._ZSaIN8projects25FirehoseSpeciesParametersEE** %__a.addr, metadata !5916, metadata !3970), !dbg !5905
	store %struct._ZSaIN8projects25FirehoseSpeciesParametersEE* %__a.arg, %struct._ZSaIN8projects25FirehoseSpeciesParametersEE** %__a.addr, align 8, !tbaa !3978
	call void @llvm.dbg.declare (metadata %struct._ZSaIN8projects25FirehoseSpeciesParametersEE** %__a.addr, metadata !5917, metadata !3970), !dbg !5905
	call void @llvm.dbg.declare (metadata i64* %__n.addr, metadata !5918, metadata !3970), !dbg !5905
	store i64 %__n.arg, i64* %__n.addr, align 8, !tbaa !3977
	call void @llvm.dbg.declare (metadata i64* %__n.addr, metadata !5919, metadata !3970), !dbg !5905
	%0 = load i64, i64* %__n.addr, align 8, !tbaa !4405, !dbg !5920
	store i64  %0, i64* %..inline.addr, align 8, !tbaa !4405, !dbg !5920
	%1 = icmp ule i64  %0, 153722867280912930, !dbg !5921
	br i1  %1, label %L..inline.71553, label %L.B1391, !dbg !5921
L.B1391:
	call void  @_ZSt17__throw_bad_allocv () noreturn, !dbg !5922
	br label %L..inline.71553
L..inline.71553:
	%2 = load i64, i64* %..inline.addr, align 8, !tbaa !4405, !dbg !5923
	%3 = mul i64  %2, 120, !dbg !5923
	%4 = call i8*  @_Znwm (i64  %3), !dbg !5923
	store i8*  %4, i8** %.Q0010.addr, align 8, !tbaa !3978, !dbg !5923
	%5 = bitcast i8*  %4 to %struct._ZN8projects25FirehoseSpeciesParametersE*, !dbg !5923
	ret %struct._ZN8projects25FirehoseSpeciesParametersE*  %5, !dbg !5923
}
define linkonce_odr void @_ZNSt16allocator_traitsISaIN8projects25FirehoseSpeciesParametersEEE10deallocateERS2_PS1_m(%struct._ZSaIN8projects25FirehoseSpeciesParametersEE* %__a.arg, %struct._ZN8projects25FirehoseSpeciesParametersE* %__p.arg, i64 %__n.arg) #0 inlinehint !dbg !5927 {
L.entry:
	%__a.addr = alloca %struct._ZSaIN8projects25FirehoseSpeciesParametersEE*, align 8
	%__p.addr = alloca %struct._ZN8projects25FirehoseSpeciesParametersE*, align 8
	%__n.addr = alloca i64, align 8
	%..inline.addr = alloca %struct._ZN8projects25FirehoseSpeciesParametersE*, align 8

	call void @llvm.dbg.declare (metadata %struct._ZSaIN8projects25FirehoseSpeciesParametersEE** %__a.addr, metadata !5935, metadata !3970), !dbg !5928
	store %struct._ZSaIN8projects25FirehoseSpeciesParametersEE* %__a.arg, %struct._ZSaIN8projects25FirehoseSpeciesParametersEE** %__a.addr, align 8, !tbaa !3978
	call void @llvm.dbg.declare (metadata %struct._ZSaIN8projects25FirehoseSpeciesParametersEE** %__a.addr, metadata !5936, metadata !3970), !dbg !5928
	call void @llvm.dbg.declare (metadata %struct._ZN8projects25FirehoseSpeciesParametersE** %__p.addr, metadata !5937, metadata !3970), !dbg !5928
	store %struct._ZN8projects25FirehoseSpeciesParametersE* %__p.arg, %struct._ZN8projects25FirehoseSpeciesParametersE** %__p.addr, align 8, !tbaa !3978
	call void @llvm.dbg.declare (metadata %struct._ZN8projects25FirehoseSpeciesParametersE** %__p.addr, metadata !5938, metadata !3970), !dbg !5928
	call void @llvm.dbg.declare (metadata i64* %__n.addr, metadata !5939, metadata !3970), !dbg !5928
	store i64 %__n.arg, i64* %__n.addr, align 8, !tbaa !3977
	call void @llvm.dbg.declare (metadata i64* %__n.addr, metadata !5940, metadata !3970), !dbg !5928
	%0 = load %struct._ZN8projects25FirehoseSpeciesParametersE*, %struct._ZN8projects25FirehoseSpeciesParametersE** %__p.addr, align 8, !tbaa !3978, !dbg !5941
	%1 = bitcast %struct._ZN8projects25FirehoseSpeciesParametersE*  %0 to i8*, !dbg !5941
	%2 = bitcast %struct._ZN8projects25FirehoseSpeciesParametersE** %..inline.addr to i8**, !dbg !5941
	store i8*  %1, i8**  %2, align 8, !tbaa !3978, !dbg !5941
	%3 = load %struct._ZN8projects25FirehoseSpeciesParametersE*, %struct._ZN8projects25FirehoseSpeciesParametersE** %..inline.addr, align 8, !tbaa !3978, !dbg !5942
	%4 = bitcast %struct._ZN8projects25FirehoseSpeciesParametersE*  %3 to i8*, !dbg !5942
	call void  @_ZdlPv (i8*  %4) nounwind, !dbg !5942
	ret void, !dbg !5941
}
define linkonce_odr i64 @_ZNSt16allocator_traitsISaIN8projects25FirehoseSpeciesParametersEEE8max_sizeERKS2_(%struct._ZSaIN8projects25FirehoseSpeciesParametersEE* %__a.arg) #0 inlinehint !dbg !5950 {
L.entry:
	%__a.addr = alloca %struct._ZSaIN8projects25FirehoseSpeciesParametersEE*, align 8

	call void @llvm.dbg.declare (metadata %struct._ZSaIN8projects25FirehoseSpeciesParametersEE** %__a.addr, metadata !5958, metadata !3970), !dbg !5951
	store %struct._ZSaIN8projects25FirehoseSpeciesParametersEE* %__a.arg, %struct._ZSaIN8projects25FirehoseSpeciesParametersEE** %__a.addr, align 8, !tbaa !3978
	call void @llvm.dbg.declare (metadata %struct._ZSaIN8projects25FirehoseSpeciesParametersEE** %__a.addr, metadata !5959, metadata !3970), !dbg !5951
	ret i64 153722867280912930, !dbg !5960
}
define linkonce_odr void @_ZNSt16allocator_traitsISaIN8projects25FirehoseSpeciesParametersEEE9constructIS1_JRKS1_EEEvRS2_PT_DpOT0_(%struct._ZSaIN8projects25FirehoseSpeciesParametersEE* %__a.arg, %struct._ZN8projects25FirehoseSpeciesParametersE* %__p.arg, %struct._ZN8projects25FirehoseSpeciesParametersE* %__args.arg) #0 inlinehint !dbg !5976 {
L.entry:
	%__a.addr = alloca %struct._ZSaIN8projects25FirehoseSpeciesParametersEE*, align 8
	%__p.addr = alloca %struct._ZN8projects25FirehoseSpeciesParametersE*, align 8
	%__args.addr = alloca %struct._ZN8projects25FirehoseSpeciesParametersE*, align 8

	call void @llvm.dbg.declare (metadata %struct._ZSaIN8projects25FirehoseSpeciesParametersEE** %__a.addr, metadata !5996, metadata !3970), !dbg !5977
	store %struct._ZSaIN8projects25FirehoseSpeciesParametersEE* %__a.arg, %struct._ZSaIN8projects25FirehoseSpeciesParametersEE** %__a.addr, align 8, !tbaa !3978
	call void @llvm.dbg.declare (metadata %struct._ZSaIN8projects25FirehoseSpeciesParametersEE** %__a.addr, metadata !5997, metadata !3970), !dbg !5977
	call void @llvm.dbg.declare (metadata %struct._ZN8projects25FirehoseSpeciesParametersE** %__p.addr, metadata !5998, metadata !3970), !dbg !5977
	store %struct._ZN8projects25FirehoseSpeciesParametersE* %__p.arg, %struct._ZN8projects25FirehoseSpeciesParametersE** %__p.addr, align 8, !tbaa !3978
	call void @llvm.dbg.declare (metadata %struct._ZN8projects25FirehoseSpeciesParametersE** %__p.addr, metadata !5999, metadata !3970), !dbg !5977
	call void @llvm.dbg.declare (metadata %struct._ZN8projects25FirehoseSpeciesParametersE** %__args.addr, metadata !6000, metadata !3970), !dbg !5977
	store %struct._ZN8projects25FirehoseSpeciesParametersE* %__args.arg, %struct._ZN8projects25FirehoseSpeciesParametersE** %__args.addr, align 8, !tbaa !3978
	call void @llvm.dbg.declare (metadata %struct._ZN8projects25FirehoseSpeciesParametersE** %__args.addr, metadata !6001, metadata !3970), !dbg !5977
	%0 = load %struct._ZN8projects25FirehoseSpeciesParametersE*, %struct._ZN8projects25FirehoseSpeciesParametersE** %__p.addr, align 8, !tbaa !3978, !dbg !6002
	%1 = bitcast %struct._ZN8projects25FirehoseSpeciesParametersE*  %0 to i8*, !dbg !6002
	%2 = icmp eq i8*  %1,  null, !dbg !6002
	br i1  %2, label %L..inline.71619, label %L.B1400, !dbg !6002
L.B1400:
	%3 = load %struct._ZN8projects25FirehoseSpeciesParametersE*, %struct._ZN8projects25FirehoseSpeciesParametersE** %__args.addr, align 8, !tbaa !3978, !dbg !6003
	%4 = bitcast %struct._ZN8projects25FirehoseSpeciesParametersE*  %3 to i8*, !dbg !6003
	%5 = bitcast %struct._ZN8projects25FirehoseSpeciesParametersE*  %0 to i8*, !dbg !6003
	call void @llvm.memcpy.p0i8.p0i8.i64 (i8*  %5, i8*  %4, i64 120, i32 8, i1 0), !dbg !6003
	br label %L..inline.71629, !dbg !6002
L..inline.71619:
	br label %L..inline.71629
L..inline.71629:
	ret void, !dbg !6003
}
define linkonce_odr void @_ZNSt16allocator_traitsISaIN8projects25FirehoseSpeciesParametersEEE7destroyIS1_EEvRS2_PT_(%struct._ZSaIN8projects25FirehoseSpeciesParametersEE* %__a.arg, %struct._ZN8projects25FirehoseSpeciesParametersE* %__p.arg) #0 inlinehint !dbg !6007 {
L.entry:
	%__a.addr = alloca %struct._ZSaIN8projects25FirehoseSpeciesParametersEE*, align 8
	%__p.addr = alloca %struct._ZN8projects25FirehoseSpeciesParametersE*, align 8

	call void @llvm.dbg.declare (metadata %struct._ZSaIN8projects25FirehoseSpeciesParametersEE** %__a.addr, metadata !6015, metadata !3970), !dbg !6008
	store %struct._ZSaIN8projects25FirehoseSpeciesParametersEE* %__a.arg, %struct._ZSaIN8projects25FirehoseSpeciesParametersEE** %__a.addr, align 8, !tbaa !3978
	call void @llvm.dbg.declare (metadata %struct._ZSaIN8projects25FirehoseSpeciesParametersEE** %__a.addr, metadata !6016, metadata !3970), !dbg !6008
	call void @llvm.dbg.declare (metadata %struct._ZN8projects25FirehoseSpeciesParametersE** %__p.addr, metadata !6017, metadata !3970), !dbg !6008
	store %struct._ZN8projects25FirehoseSpeciesParametersE* %__p.arg, %struct._ZN8projects25FirehoseSpeciesParametersE** %__p.addr, align 8, !tbaa !3978
	call void @llvm.dbg.declare (metadata %struct._ZN8projects25FirehoseSpeciesParametersE** %__p.addr, metadata !6018, metadata !3970), !dbg !6008
	ret void, !dbg !6019
}

%struct._ZSt12_Vector_baseIN8projects25FirehoseSpeciesParametersESaIS1_EE = type <{ %struct._ZNSt12_Vector_baseIN8projects25FirehoseSpeciesParametersESaIS1_EE12_Vector_implE}> 
%struct._ZNSt12_Vector_baseIN8projects25FirehoseSpeciesParametersESaIS1_EE17_Vector_impl_dataE = type <{ %struct._ZN8projects25FirehoseSpeciesParametersE*, %struct._ZN8projects25FirehoseSpeciesParametersE*, %struct._ZN8projects25FirehoseSpeciesParametersE*}> 
%struct._ZNSt12_Vector_baseIN8projects25FirehoseSpeciesParametersESaIS1_EE12_Vector_implE = type <{ %struct._ZNSt12_Vector_baseIN8projects25FirehoseSpeciesParametersESaIS1_EE17_Vector_impl_dataE}> 

define linkonce_odr %struct._ZSaIN8projects25FirehoseSpeciesParametersEE* @_ZNSt12_Vector_baseIN8projects25FirehoseSpeciesParametersESaIS1_EE19_M_get_Tp_allocatorEv(%struct._ZSt12_Vector_baseIN8projects25FirehoseSpeciesParametersESaIS1_EE* %_T45627360_52202.arg) #0 inlinehint !dbg !6025 {
L.entry:
	%_T45627360_52202.addr = alloca %struct._ZSt12_Vector_baseIN8projects25FirehoseSpeciesParametersESaIS1_EE*, align 8

	call void @llvm.dbg.declare (metadata %struct._ZSt12_Vector_baseIN8projects25FirehoseSpeciesParametersESaIS1_EE** %_T45627360_52202.addr, metadata !6029, metadata !3970), !dbg !6026
	store %struct._ZSt12_Vector_baseIN8projects25FirehoseSpeciesParametersESaIS1_EE* %_T45627360_52202.arg, %struct._ZSt12_Vector_baseIN8projects25FirehoseSpeciesParametersESaIS1_EE** %_T45627360_52202.addr, align 8, !tbaa !3978
	call void @llvm.dbg.declare (metadata %struct._ZSt12_Vector_baseIN8projects25FirehoseSpeciesParametersESaIS1_EE** %_T45627360_52202.addr, metadata !6030, metadata !3970), !dbg !6026
	%0 = load %struct._ZSt12_Vector_baseIN8projects25FirehoseSpeciesParametersESaIS1_EE*, %struct._ZSt12_Vector_baseIN8projects25FirehoseSpeciesParametersESaIS1_EE** %_T45627360_52202.addr, align 8, !tbaa !3978, !dbg !6031
	%1 = bitcast %struct._ZSt12_Vector_baseIN8projects25FirehoseSpeciesParametersESaIS1_EE*  %0 to %struct._ZSaIN8projects25FirehoseSpeciesParametersEE*, !dbg !6031
	ret %struct._ZSaIN8projects25FirehoseSpeciesParametersEE*  %1, !dbg !6031
}
define linkonce_odr %struct._ZSaIN8projects25FirehoseSpeciesParametersEE* @_ZNKSt12_Vector_baseIN8projects25FirehoseSpeciesParametersESaIS1_EE19_M_get_Tp_allocatorEv(%struct._ZSt12_Vector_baseIN8projects25FirehoseSpeciesParametersESaIS1_EE* %_T45627360_52203.arg) #0 inlinehint !dbg !6033 {
L.entry:
	%_T45627360_52203.addr = alloca %struct._ZSt12_Vector_baseIN8projects25FirehoseSpeciesParametersESaIS1_EE*, align 8

	call void @llvm.dbg.declare (metadata %struct._ZSt12_Vector_baseIN8projects25FirehoseSpeciesParametersESaIS1_EE** %_T45627360_52203.addr, metadata !6037, metadata !3970), !dbg !6034
	store %struct._ZSt12_Vector_baseIN8projects25FirehoseSpeciesParametersESaIS1_EE* %_T45627360_52203.arg, %struct._ZSt12_Vector_baseIN8projects25FirehoseSpeciesParametersESaIS1_EE** %_T45627360_52203.addr, align 8, !tbaa !3978
	call void @llvm.dbg.declare (metadata %struct._ZSt12_Vector_baseIN8projects25FirehoseSpeciesParametersESaIS1_EE** %_T45627360_52203.addr, metadata !6038, metadata !3970), !dbg !6034
	%0 = load %struct._ZSt12_Vector_baseIN8projects25FirehoseSpeciesParametersESaIS1_EE*, %struct._ZSt12_Vector_baseIN8projects25FirehoseSpeciesParametersESaIS1_EE** %_T45627360_52203.addr, align 8, !tbaa !3978, !dbg !6039
	%1 = bitcast %struct._ZSt12_Vector_baseIN8projects25FirehoseSpeciesParametersESaIS1_EE*  %0 to %struct._ZSaIN8projects25FirehoseSpeciesParametersEE*, !dbg !6039
	ret %struct._ZSaIN8projects25FirehoseSpeciesParametersEE*  %1, !dbg !6039
}
define linkonce_odr void @_ZNSt12_Vector_baseIN8projects25FirehoseSpeciesParametersESaIS1_EEC1Ev(%struct._ZSt12_Vector_baseIN8projects25FirehoseSpeciesParametersESaIS1_EE* %_T45627360_52204.arg) #0 inlinehint !dbg !6043 {
L.entry:
	%_T45627360_52204.addr = alloca %struct._ZSt12_Vector_baseIN8projects25FirehoseSpeciesParametersESaIS1_EE*, align 8
	%..inline.addr = alloca %struct._ZNSt12_Vector_baseIN8projects25FirehoseSpeciesParametersESaIS1_EE17_Vector_impl_dataE*, align 8

	call void @llvm.dbg.declare (metadata %struct._ZSt12_Vector_baseIN8projects25FirehoseSpeciesParametersESaIS1_EE** %_T45627360_52204.addr, metadata !6059, metadata !3970), !dbg !6044
	store %struct._ZSt12_Vector_baseIN8projects25FirehoseSpeciesParametersESaIS1_EE* %_T45627360_52204.arg, %struct._ZSt12_Vector_baseIN8projects25FirehoseSpeciesParametersESaIS1_EE** %_T45627360_52204.addr, align 8, !tbaa !3978
	call void @llvm.dbg.declare (metadata %struct._ZSt12_Vector_baseIN8projects25FirehoseSpeciesParametersESaIS1_EE** %_T45627360_52204.addr, metadata !6060, metadata !3970), !dbg !6044
	%0 = load %struct._ZSt12_Vector_baseIN8projects25FirehoseSpeciesParametersESaIS1_EE*, %struct._ZSt12_Vector_baseIN8projects25FirehoseSpeciesParametersESaIS1_EE** %_T45627360_52204.addr, align 8, !tbaa !3978, !dbg !6061
	%1 = bitcast %struct._ZSt12_Vector_baseIN8projects25FirehoseSpeciesParametersESaIS1_EE*  %0 to i8*, !dbg !6061
	%2 = bitcast %struct._ZNSt12_Vector_baseIN8projects25FirehoseSpeciesParametersESaIS1_EE17_Vector_impl_dataE** %..inline.addr to i8**, !dbg !6061
	store i8*  %1, i8**  %2, align 8, !tbaa !3978, !dbg !6061
	%3 = load %struct._ZNSt12_Vector_baseIN8projects25FirehoseSpeciesParametersESaIS1_EE17_Vector_impl_dataE*, %struct._ZNSt12_Vector_baseIN8projects25FirehoseSpeciesParametersESaIS1_EE17_Vector_impl_dataE** %..inline.addr, align 8, !tbaa !3978, !dbg !6061
	%4 = bitcast %struct._ZNSt12_Vector_baseIN8projects25FirehoseSpeciesParametersESaIS1_EE17_Vector_impl_dataE*  %3 to i8**, !dbg !6061
	store i8* null, i8**  %4, align 8, !tbaa !3978, !dbg !6061
	%5 = bitcast %struct._ZNSt12_Vector_baseIN8projects25FirehoseSpeciesParametersESaIS1_EE17_Vector_impl_dataE*  %3 to i8*, !dbg !6061
	%6 = getelementptr i8, i8*  %5, i64 8, !dbg !6061
	%7 = bitcast i8*  %6 to i8**, !dbg !6061
	store i8* null, i8**  %7, align 8, !tbaa !3978, !dbg !6061
	%8 = getelementptr i8, i8*  %5, i64 16, !dbg !6061
	%9 = bitcast i8*  %8 to i8**, !dbg !6061
	store i8* null, i8**  %9, align 8, !tbaa !3978, !dbg !6061
	ret void, !dbg !6061
}
define linkonce_odr void @_ZNSt12_Vector_baseIN8projects25FirehoseSpeciesParametersESaIS1_EEC2Ev(%struct._ZSt12_Vector_baseIN8projects25FirehoseSpeciesParametersESaIS1_EE* %_T45627360_52205.arg) #0 inlinehint !dbg !6063 {
L.entry:
	%_T45627360_52205.addr = alloca %struct._ZSt12_Vector_baseIN8projects25FirehoseSpeciesParametersESaIS1_EE*, align 8
	%..inline.addr = alloca %struct._ZNSt12_Vector_baseIN8projects25FirehoseSpeciesParametersESaIS1_EE17_Vector_impl_dataE*, align 8

	store %struct._ZSt12_Vector_baseIN8projects25FirehoseSpeciesParametersESaIS1_EE* %_T45627360_52205.arg, %struct._ZSt12_Vector_baseIN8projects25FirehoseSpeciesParametersESaIS1_EE** %_T45627360_52205.addr, align 8, !tbaa !3978
	%0 = load %struct._ZSt12_Vector_baseIN8projects25FirehoseSpeciesParametersESaIS1_EE*, %struct._ZSt12_Vector_baseIN8projects25FirehoseSpeciesParametersESaIS1_EE** %_T45627360_52205.addr, align 8, !tbaa !3978, !dbg !6083
	%1 = bitcast %struct._ZSt12_Vector_baseIN8projects25FirehoseSpeciesParametersESaIS1_EE*  %0 to i8*, !dbg !6083
	%2 = bitcast %struct._ZNSt12_Vector_baseIN8projects25FirehoseSpeciesParametersESaIS1_EE17_Vector_impl_dataE** %..inline.addr to i8**, !dbg !6083
	store i8*  %1, i8**  %2, align 8, !tbaa !3978, !dbg !6083
	%3 = load %struct._ZNSt12_Vector_baseIN8projects25FirehoseSpeciesParametersESaIS1_EE17_Vector_impl_dataE*, %struct._ZNSt12_Vector_baseIN8projects25FirehoseSpeciesParametersESaIS1_EE17_Vector_impl_dataE** %..inline.addr, align 8, !tbaa !3978, !dbg !6083
	%4 = bitcast %struct._ZNSt12_Vector_baseIN8projects25FirehoseSpeciesParametersESaIS1_EE17_Vector_impl_dataE*  %3 to i8**, !dbg !6083
	store i8* null, i8**  %4, align 8, !tbaa !3978, !dbg !6083
	%5 = bitcast %struct._ZNSt12_Vector_baseIN8projects25FirehoseSpeciesParametersESaIS1_EE17_Vector_impl_dataE*  %3 to i8*, !dbg !6083
	%6 = getelementptr i8, i8*  %5, i64 8, !dbg !6083
	%7 = bitcast i8*  %6 to i8**, !dbg !6083
	store i8* null, i8**  %7, align 8, !tbaa !3978, !dbg !6083
	%8 = getelementptr i8, i8*  %5, i64 16, !dbg !6083
	%9 = bitcast i8*  %8 to i8**, !dbg !6083
	store i8* null, i8**  %9, align 8, !tbaa !3978, !dbg !6083
	ret void, !dbg !6083
}
define linkonce_odr void @_ZNSt12_Vector_baseIN8projects25FirehoseSpeciesParametersESaIS1_EED1Ev(%struct._ZSt12_Vector_baseIN8projects25FirehoseSpeciesParametersESaIS1_EE* %_T45627360_52206.arg) #0 inlinehint !dbg !6085 {
L.entry:
	%_T45627360_52206.addr = alloca %struct._ZSt12_Vector_baseIN8projects25FirehoseSpeciesParametersESaIS1_EE*, align 8
	%..inline.addr = alloca %struct._ZN8projects25FirehoseSpeciesParametersE*, align 8

	call void @llvm.dbg.declare (metadata %struct._ZSt12_Vector_baseIN8projects25FirehoseSpeciesParametersESaIS1_EE** %_T45627360_52206.addr, metadata !6113, metadata !3970), !dbg !6086
	store %struct._ZSt12_Vector_baseIN8projects25FirehoseSpeciesParametersESaIS1_EE* %_T45627360_52206.arg, %struct._ZSt12_Vector_baseIN8projects25FirehoseSpeciesParametersESaIS1_EE** %_T45627360_52206.addr, align 8, !tbaa !3978
	call void @llvm.dbg.declare (metadata %struct._ZSt12_Vector_baseIN8projects25FirehoseSpeciesParametersESaIS1_EE** %_T45627360_52206.addr, metadata !6114, metadata !3970), !dbg !6086
	%0 = load %struct._ZSt12_Vector_baseIN8projects25FirehoseSpeciesParametersESaIS1_EE*, %struct._ZSt12_Vector_baseIN8projects25FirehoseSpeciesParametersESaIS1_EE** %_T45627360_52206.addr, align 8, !tbaa !3978, !dbg !6115
	%1 = bitcast %struct._ZSt12_Vector_baseIN8projects25FirehoseSpeciesParametersESaIS1_EE*  %0 to i8**, !dbg !6115
	%2 = load i8*, i8**  %1, align 8, !tbaa !3978, !dbg !6115
	%3 = icmp eq i8*  %2,  null, !dbg !6115
	br i1  %3, label %L..inline.71726, label %L.B1411, !dbg !6115
L.B1411:
	%4 = bitcast %struct._ZSt12_Vector_baseIN8projects25FirehoseSpeciesParametersESaIS1_EE*  %0 to i8**, !dbg !6116
	%5 = load i8*, i8**  %4, align 8, !tbaa !3978, !dbg !6116
	%6 = bitcast %struct._ZN8projects25FirehoseSpeciesParametersE** %..inline.addr to i8**, !dbg !6116
	store i8*  %5, i8**  %6, align 8, !tbaa !3978, !dbg !6116
	%7 = load %struct._ZN8projects25FirehoseSpeciesParametersE*, %struct._ZN8projects25FirehoseSpeciesParametersE** %..inline.addr, align 8, !tbaa !3978, !dbg !6116
	%8 = bitcast %struct._ZN8projects25FirehoseSpeciesParametersE*  %7 to i8*, !dbg !6116
	call void  @_ZdlPv (i8*  %8) nounwind, !dbg !6116
	br label %L..inline.71726
L..inline.71726:
	ret void, !dbg !6117
}
define linkonce_odr void @_ZNSt12_Vector_baseIN8projects25FirehoseSpeciesParametersESaIS1_EED2Ev(%struct._ZSt12_Vector_baseIN8projects25FirehoseSpeciesParametersESaIS1_EE* %_T45627360_52207.arg) #0 inlinehint !dbg !6119 {
L.entry:
	%_T45627360_52207.addr = alloca %struct._ZSt12_Vector_baseIN8projects25FirehoseSpeciesParametersESaIS1_EE*, align 8
	%..inline.addr = alloca %struct._ZSt12_Vector_baseIN8projects25FirehoseSpeciesParametersESaIS1_EE*, align 8
	%..inline.addr.1 = alloca %struct._ZN8projects25FirehoseSpeciesParametersE*, align 8

	store %struct._ZSt12_Vector_baseIN8projects25FirehoseSpeciesParametersESaIS1_EE* %_T45627360_52207.arg, %struct._ZSt12_Vector_baseIN8projects25FirehoseSpeciesParametersESaIS1_EE** %_T45627360_52207.addr, align 8, !tbaa !3978
	%0 = load %struct._ZSt12_Vector_baseIN8projects25FirehoseSpeciesParametersESaIS1_EE*, %struct._ZSt12_Vector_baseIN8projects25FirehoseSpeciesParametersESaIS1_EE** %_T45627360_52207.addr, align 8, !tbaa !3978, !dbg !6151
	%1 = bitcast %struct._ZSt12_Vector_baseIN8projects25FirehoseSpeciesParametersESaIS1_EE*  %0 to i8*, !dbg !6151
	%2 = bitcast %struct._ZSt12_Vector_baseIN8projects25FirehoseSpeciesParametersESaIS1_EE** %..inline.addr to i8**, !dbg !6151
	store i8*  %1, i8**  %2, align 8, !tbaa !3978, !dbg !6151
	%3 = load %struct._ZSt12_Vector_baseIN8projects25FirehoseSpeciesParametersESaIS1_EE*, %struct._ZSt12_Vector_baseIN8projects25FirehoseSpeciesParametersESaIS1_EE** %..inline.addr, align 8, !tbaa !3978, !dbg !6151
	%4 = bitcast %struct._ZSt12_Vector_baseIN8projects25FirehoseSpeciesParametersESaIS1_EE*  %3 to i8**, !dbg !6151
	%5 = load i8*, i8**  %4, align 8, !tbaa !3978, !dbg !6151
	%6 = icmp eq i8*  %5,  null, !dbg !6151
	br i1  %6, label %L..inline.71785, label %L.B1414, !dbg !6151
L.B1414:
	%7 = bitcast %struct._ZSt12_Vector_baseIN8projects25FirehoseSpeciesParametersESaIS1_EE*  %3 to i8**, !dbg !6151
	%8 = load i8*, i8**  %7, align 8, !tbaa !3978, !dbg !6151
	%9 = bitcast %struct._ZN8projects25FirehoseSpeciesParametersE** %..inline.addr.1 to i8**, !dbg !6151
	store i8*  %8, i8**  %9, align 8, !tbaa !3978, !dbg !6151
	%10 = load %struct._ZN8projects25FirehoseSpeciesParametersE*, %struct._ZN8projects25FirehoseSpeciesParametersE** %..inline.addr.1, align 8, !tbaa !3978, !dbg !6151
	%11 = bitcast %struct._ZN8projects25FirehoseSpeciesParametersE*  %10 to i8*, !dbg !6151
	call void  @_ZdlPv (i8*  %11) nounwind, !dbg !6151
	br label %L..inline.71785
L..inline.71785:
	ret void, !dbg !6152
}
define linkonce_odr %struct._ZN8projects25FirehoseSpeciesParametersE* @_ZNSt12_Vector_baseIN8projects25FirehoseSpeciesParametersESaIS1_EE11_M_allocateEm(%struct._ZSt12_Vector_baseIN8projects25FirehoseSpeciesParametersESaIS1_EE* %_T45627360_52210.arg, i64 %__n.arg) #0 inlinehint !dbg !6156 {
L.entry:
	%_T45627360_52210.addr = alloca %struct._ZSt12_Vector_baseIN8projects25FirehoseSpeciesParametersESaIS1_EE*, align 8
	%__n.addr = alloca i64, align 8
	%..inline.addr = alloca i64, align 8
	%.Q0011.addr = alloca i8*, align 8
	%.I0003.addr = alloca %struct._ZN8projects25FirehoseSpeciesParametersE*, align 8

	call void @llvm.dbg.declare (metadata %struct._ZSt12_Vector_baseIN8projects25FirehoseSpeciesParametersESaIS1_EE** %_T45627360_52210.addr, metadata !6172, metadata !3970), !dbg !6157
	store %struct._ZSt12_Vector_baseIN8projects25FirehoseSpeciesParametersESaIS1_EE* %_T45627360_52210.arg, %struct._ZSt12_Vector_baseIN8projects25FirehoseSpeciesParametersESaIS1_EE** %_T45627360_52210.addr, align 8, !tbaa !3978
	call void @llvm.dbg.declare (metadata %struct._ZSt12_Vector_baseIN8projects25FirehoseSpeciesParametersESaIS1_EE** %_T45627360_52210.addr, metadata !6173, metadata !3970), !dbg !6157
	call void @llvm.dbg.declare (metadata i64* %__n.addr, metadata !6174, metadata !3970), !dbg !6157
	store i64 %__n.arg, i64* %__n.addr, align 8, !tbaa !3977
	call void @llvm.dbg.declare (metadata i64* %__n.addr, metadata !6175, metadata !3970), !dbg !6157
	%0 = load i64, i64* %__n.addr, align 8, !tbaa !4405, !dbg !6176
	%1 = icmp eq i64  %0, 0, !dbg !6176
	br i1  %1, label %L.B0009, label %L.B1417, !dbg !6176
L.B1417:
	store i64  %0, i64* %..inline.addr, align 8, !tbaa !4405, !dbg !6177
	%2 = icmp ule i64  %0, 153722867280912930, !dbg !6177
	br i1  %2, label %L..inline.71851, label %L.B1418, !dbg !6177
L.B1418:
	call void  @_ZSt17__throw_bad_allocv () noreturn, !dbg !6177
	br label %L..inline.71851
L..inline.71851:
	%3 = load i64, i64* %..inline.addr, align 8, !tbaa !4405, !dbg !6177
	%4 = mul i64  %3, 120, !dbg !6177
	%5 = call i8*  @_Znwm (i64  %4), !dbg !6177
	store i8*  %5, i8** %.Q0011.addr, align 8, !tbaa !3978, !dbg !6177
	%6 = bitcast %struct._ZN8projects25FirehoseSpeciesParametersE** %.I0003.addr to i8**, !dbg !6177
	store i8*  %5, i8**  %6, align 8, !tbaa !3978, !dbg !6177
	br label %L.B0010, !dbg !6176
L.B0009:
	%7 = bitcast %struct._ZN8projects25FirehoseSpeciesParametersE** %.I0003.addr to i8**, !dbg !6176
	store i8* null, i8**  %7, align 8, !tbaa !3978, !dbg !6176
	br label %L.B0010
L.B0010:
	%8 = load %struct._ZN8projects25FirehoseSpeciesParametersE*, %struct._ZN8projects25FirehoseSpeciesParametersE** %.I0003.addr, align 8, !tbaa !3978, !dbg !6176
	ret %struct._ZN8projects25FirehoseSpeciesParametersE*  %8, !dbg !6176
}
define linkonce_odr void @_ZNSt12_Vector_baseIN8projects25FirehoseSpeciesParametersESaIS1_EE13_M_deallocateEPS1_m(%struct._ZSt12_Vector_baseIN8projects25FirehoseSpeciesParametersESaIS1_EE* %_T45627360_52213.arg, %struct._ZN8projects25FirehoseSpeciesParametersE* %__p.arg, i64 %__n.arg) #0 inlinehint !dbg !6182 {
L.entry:
	%_T45627360_52213.addr = alloca %struct._ZSt12_Vector_baseIN8projects25FirehoseSpeciesParametersESaIS1_EE*, align 8
	%__p.addr = alloca %struct._ZN8projects25FirehoseSpeciesParametersE*, align 8
	%__n.addr = alloca i64, align 8
	%..inline.addr = alloca %struct._ZN8projects25FirehoseSpeciesParametersE*, align 8

	call void @llvm.dbg.declare (metadata %struct._ZSt12_Vector_baseIN8projects25FirehoseSpeciesParametersESaIS1_EE** %_T45627360_52213.addr, metadata !6194, metadata !3970), !dbg !6183
	store %struct._ZSt12_Vector_baseIN8projects25FirehoseSpeciesParametersESaIS1_EE* %_T45627360_52213.arg, %struct._ZSt12_Vector_baseIN8projects25FirehoseSpeciesParametersESaIS1_EE** %_T45627360_52213.addr, align 8, !tbaa !3978
	call void @llvm.dbg.declare (metadata %struct._ZSt12_Vector_baseIN8projects25FirehoseSpeciesParametersESaIS1_EE** %_T45627360_52213.addr, metadata !6195, metadata !3970), !dbg !6183
	call void @llvm.dbg.declare (metadata %struct._ZN8projects25FirehoseSpeciesParametersE** %__p.addr, metadata !6196, metadata !3970), !dbg !6183
	store %struct._ZN8projects25FirehoseSpeciesParametersE* %__p.arg, %struct._ZN8projects25FirehoseSpeciesParametersE** %__p.addr, align 8, !tbaa !3978
	call void @llvm.dbg.declare (metadata %struct._ZN8projects25FirehoseSpeciesParametersE** %__p.addr, metadata !6197, metadata !3970), !dbg !6183
	call void @llvm.dbg.declare (metadata i64* %__n.addr, metadata !6198, metadata !3970), !dbg !6183
	store i64 %__n.arg, i64* %__n.addr, align 8, !tbaa !3977
	call void @llvm.dbg.declare (metadata i64* %__n.addr, metadata !6199, metadata !3970), !dbg !6183
	%0 = load %struct._ZN8projects25FirehoseSpeciesParametersE*, %struct._ZN8projects25FirehoseSpeciesParametersE** %__p.addr, align 8, !tbaa !3978, !dbg !6200
	%1 = bitcast %struct._ZN8projects25FirehoseSpeciesParametersE*  %0 to i8*, !dbg !6200
	%2 = icmp eq i8*  %1,  null, !dbg !6200
	br i1  %2, label %L.B0011, label %L.B1421, !dbg !6200
L.B1421:
	%3 = bitcast %struct._ZN8projects25FirehoseSpeciesParametersE*  %0 to i8*, !dbg !6201
	%4 = bitcast %struct._ZN8projects25FirehoseSpeciesParametersE** %..inline.addr to i8**, !dbg !6201
	store i8*  %3, i8**  %4, align 8, !tbaa !3978, !dbg !6201
	%5 = load %struct._ZN8projects25FirehoseSpeciesParametersE*, %struct._ZN8projects25FirehoseSpeciesParametersE** %..inline.addr, align 8, !tbaa !3978, !dbg !6201
	%6 = bitcast %struct._ZN8projects25FirehoseSpeciesParametersE*  %5 to i8*, !dbg !6201
	call void  @_ZdlPv (i8*  %6) nounwind, !dbg !6201
	br label %L.B0011
L.B0011:
	ret void, !dbg !6202
}
define linkonce_odr void @_ZNSt12_Vector_baseIN8projects25FirehoseSpeciesParametersESaIS1_EE17_Vector_impl_dataC1Ev(%struct._ZNSt12_Vector_baseIN8projects25FirehoseSpeciesParametersESaIS1_EE17_Vector_impl_dataE* %_T45627360_52214.arg) #0 inlinehint !dbg !6207 {
L.entry:
	%_T45627360_52214.addr = alloca %struct._ZNSt12_Vector_baseIN8projects25FirehoseSpeciesParametersESaIS1_EE17_Vector_impl_dataE*, align 8

	call void @llvm.dbg.declare (metadata %struct._ZNSt12_Vector_baseIN8projects25FirehoseSpeciesParametersESaIS1_EE17_Vector_impl_dataE** %_T45627360_52214.addr, metadata !6211, metadata !3970), !dbg !6208
	store %struct._ZNSt12_Vector_baseIN8projects25FirehoseSpeciesParametersESaIS1_EE17_Vector_impl_dataE* %_T45627360_52214.arg, %struct._ZNSt12_Vector_baseIN8projects25FirehoseSpeciesParametersESaIS1_EE17_Vector_impl_dataE** %_T45627360_52214.addr, align 8, !tbaa !3978
	call void @llvm.dbg.declare (metadata %struct._ZNSt12_Vector_baseIN8projects25FirehoseSpeciesParametersESaIS1_EE17_Vector_impl_dataE** %_T45627360_52214.addr, metadata !6212, metadata !3970), !dbg !6208
	%0 = load %struct._ZNSt12_Vector_baseIN8projects25FirehoseSpeciesParametersESaIS1_EE17_Vector_impl_dataE*, %struct._ZNSt12_Vector_baseIN8projects25FirehoseSpeciesParametersESaIS1_EE17_Vector_impl_dataE** %_T45627360_52214.addr, align 8, !tbaa !3978, !dbg !6213
	%1 = bitcast %struct._ZNSt12_Vector_baseIN8projects25FirehoseSpeciesParametersESaIS1_EE17_Vector_impl_dataE*  %0 to i8**, !dbg !6213
	store i8* null, i8**  %1, align 8, !tbaa !3978, !dbg !6213
	%2 = bitcast %struct._ZNSt12_Vector_baseIN8projects25FirehoseSpeciesParametersESaIS1_EE17_Vector_impl_dataE*  %0 to i8*, !dbg !6213
	%3 = getelementptr i8, i8*  %2, i64 8, !dbg !6213
	%4 = bitcast i8*  %3 to i8**, !dbg !6213
	store i8* null, i8**  %4, align 8, !tbaa !3978, !dbg !6213
	%5 = getelementptr i8, i8*  %2, i64 16, !dbg !6213
	%6 = bitcast i8*  %5 to i8**, !dbg !6213
	store i8* null, i8**  %6, align 8, !tbaa !3978, !dbg !6213
	ret void, !dbg !6213
}
define linkonce_odr void @_ZNSt12_Vector_baseIN8projects25FirehoseSpeciesParametersESaIS1_EE17_Vector_impl_dataC2Ev(%struct._ZNSt12_Vector_baseIN8projects25FirehoseSpeciesParametersESaIS1_EE17_Vector_impl_dataE* %_T45627360_52215.arg) #0 inlinehint !dbg !6215 {
L.entry:
	%_T45627360_52215.addr = alloca %struct._ZNSt12_Vector_baseIN8projects25FirehoseSpeciesParametersESaIS1_EE17_Vector_impl_dataE*, align 8
	%..inline.addr = alloca %struct._ZNSt12_Vector_baseIN8projects25FirehoseSpeciesParametersESaIS1_EE17_Vector_impl_dataE*, align 8

	store %struct._ZNSt12_Vector_baseIN8projects25FirehoseSpeciesParametersESaIS1_EE17_Vector_impl_dataE* %_T45627360_52215.arg, %struct._ZNSt12_Vector_baseIN8projects25FirehoseSpeciesParametersESaIS1_EE17_Vector_impl_dataE** %_T45627360_52215.addr, align 8, !tbaa !3978
	%0 = load %struct._ZNSt12_Vector_baseIN8projects25FirehoseSpeciesParametersESaIS1_EE17_Vector_impl_dataE*, %struct._ZNSt12_Vector_baseIN8projects25FirehoseSpeciesParametersESaIS1_EE17_Vector_impl_dataE** %_T45627360_52215.addr, align 8, !tbaa !3978, !dbg !6223
	%1 = bitcast %struct._ZNSt12_Vector_baseIN8projects25FirehoseSpeciesParametersESaIS1_EE17_Vector_impl_dataE*  %0 to i8*, !dbg !6223
	%2 = bitcast %struct._ZNSt12_Vector_baseIN8projects25FirehoseSpeciesParametersESaIS1_EE17_Vector_impl_dataE** %..inline.addr to i8**, !dbg !6223
	store i8*  %1, i8**  %2, align 8, !tbaa !3978, !dbg !6223
	%3 = load %struct._ZNSt12_Vector_baseIN8projects25FirehoseSpeciesParametersESaIS1_EE17_Vector_impl_dataE*, %struct._ZNSt12_Vector_baseIN8projects25FirehoseSpeciesParametersESaIS1_EE17_Vector_impl_dataE** %..inline.addr, align 8, !tbaa !3978, !dbg !6223
	%4 = bitcast %struct._ZNSt12_Vector_baseIN8projects25FirehoseSpeciesParametersESaIS1_EE17_Vector_impl_dataE*  %3 to i8**, !dbg !6223
	store i8* null, i8**  %4, align 8, !tbaa !3978, !dbg !6223
	%5 = bitcast %struct._ZNSt12_Vector_baseIN8projects25FirehoseSpeciesParametersESaIS1_EE17_Vector_impl_dataE*  %3 to i8*, !dbg !6223
	%6 = getelementptr i8, i8*  %5, i64 8, !dbg !6223
	%7 = bitcast i8*  %6 to i8**, !dbg !6223
	store i8* null, i8**  %7, align 8, !tbaa !3978, !dbg !6223
	%8 = getelementptr i8, i8*  %5, i64 16, !dbg !6223
	%9 = bitcast i8*  %8 to i8**, !dbg !6223
	store i8* null, i8**  %9, align 8, !tbaa !3978, !dbg !6223
	ret void, !dbg !6223
}
define linkonce_odr void @_ZNSt12_Vector_baseIN8projects25FirehoseSpeciesParametersESaIS1_EE12_Vector_implC1Ev(%struct._ZNSt12_Vector_baseIN8projects25FirehoseSpeciesParametersESaIS1_EE12_Vector_implE* %_T45627360_52216.arg) #0 inlinehint !dbg !6228 {
L.entry:
	%_T45627360_52216.addr = alloca %struct._ZNSt12_Vector_baseIN8projects25FirehoseSpeciesParametersESaIS1_EE12_Vector_implE*, align 8
	%..inline.addr = alloca %struct._ZNSt12_Vector_baseIN8projects25FirehoseSpeciesParametersESaIS1_EE17_Vector_impl_dataE*, align 8

	call void @llvm.dbg.declare (metadata %struct._ZNSt12_Vector_baseIN8projects25FirehoseSpeciesParametersESaIS1_EE12_Vector_implE** %_T45627360_52216.addr, metadata !6240, metadata !3970), !dbg !6229
	store %struct._ZNSt12_Vector_baseIN8projects25FirehoseSpeciesParametersESaIS1_EE12_Vector_implE* %_T45627360_52216.arg, %struct._ZNSt12_Vector_baseIN8projects25FirehoseSpeciesParametersESaIS1_EE12_Vector_implE** %_T45627360_52216.addr, align 8, !tbaa !3978
	call void @llvm.dbg.declare (metadata %struct._ZNSt12_Vector_baseIN8projects25FirehoseSpeciesParametersESaIS1_EE12_Vector_implE** %_T45627360_52216.addr, metadata !6241, metadata !3970), !dbg !6229
	%0 = load %struct._ZNSt12_Vector_baseIN8projects25FirehoseSpeciesParametersESaIS1_EE12_Vector_implE*, %struct._ZNSt12_Vector_baseIN8projects25FirehoseSpeciesParametersESaIS1_EE12_Vector_implE** %_T45627360_52216.addr, align 8, !tbaa !3978, !dbg !6242
	%1 = bitcast %struct._ZNSt12_Vector_baseIN8projects25FirehoseSpeciesParametersESaIS1_EE12_Vector_implE*  %0 to i8*, !dbg !6242
	%2 = bitcast %struct._ZNSt12_Vector_baseIN8projects25FirehoseSpeciesParametersESaIS1_EE17_Vector_impl_dataE** %..inline.addr to i8**, !dbg !6242
	store i8*  %1, i8**  %2, align 8, !tbaa !3978, !dbg !6242
	%3 = load %struct._ZNSt12_Vector_baseIN8projects25FirehoseSpeciesParametersESaIS1_EE17_Vector_impl_dataE*, %struct._ZNSt12_Vector_baseIN8projects25FirehoseSpeciesParametersESaIS1_EE17_Vector_impl_dataE** %..inline.addr, align 8, !tbaa !3978, !dbg !6242
	%4 = bitcast %struct._ZNSt12_Vector_baseIN8projects25FirehoseSpeciesParametersESaIS1_EE17_Vector_impl_dataE*  %3 to i8**, !dbg !6242
	store i8* null, i8**  %4, align 8, !tbaa !3978, !dbg !6242
	%5 = bitcast %struct._ZNSt12_Vector_baseIN8projects25FirehoseSpeciesParametersESaIS1_EE17_Vector_impl_dataE*  %3 to i8*, !dbg !6243
	%6 = getelementptr i8, i8*  %5, i64 8, !dbg !6243
	%7 = bitcast i8*  %6 to i8**, !dbg !6243
	store i8* null, i8**  %7, align 8, !tbaa !3978, !dbg !6243
	%8 = getelementptr i8, i8*  %5, i64 16, !dbg !6243
	%9 = bitcast i8*  %8 to i8**, !dbg !6243
	store i8* null, i8**  %9, align 8, !tbaa !3978, !dbg !6243
	ret void, !dbg !6242
}
define linkonce_odr void @_ZNSt12_Vector_baseIN8projects25FirehoseSpeciesParametersESaIS1_EE12_Vector_implC2Ev(%struct._ZNSt12_Vector_baseIN8projects25FirehoseSpeciesParametersESaIS1_EE12_Vector_implE* %_T45627360_52217.arg) #0 inlinehint !dbg !6245 {
L.entry:
	%_T45627360_52217.addr = alloca %struct._ZNSt12_Vector_baseIN8projects25FirehoseSpeciesParametersESaIS1_EE12_Vector_implE*, align 8
	%..inline.addr = alloca %struct._ZNSt12_Vector_baseIN8projects25FirehoseSpeciesParametersESaIS1_EE17_Vector_impl_dataE*, align 8

	store %struct._ZNSt12_Vector_baseIN8projects25FirehoseSpeciesParametersESaIS1_EE12_Vector_implE* %_T45627360_52217.arg, %struct._ZNSt12_Vector_baseIN8projects25FirehoseSpeciesParametersESaIS1_EE12_Vector_implE** %_T45627360_52217.addr, align 8, !tbaa !3978
	%0 = load %struct._ZNSt12_Vector_baseIN8projects25FirehoseSpeciesParametersESaIS1_EE12_Vector_implE*, %struct._ZNSt12_Vector_baseIN8projects25FirehoseSpeciesParametersESaIS1_EE12_Vector_implE** %_T45627360_52217.addr, align 8, !tbaa !3978, !dbg !6261
	%1 = bitcast %struct._ZNSt12_Vector_baseIN8projects25FirehoseSpeciesParametersESaIS1_EE12_Vector_implE*  %0 to i8*, !dbg !6261
	%2 = bitcast %struct._ZNSt12_Vector_baseIN8projects25FirehoseSpeciesParametersESaIS1_EE17_Vector_impl_dataE** %..inline.addr to i8**, !dbg !6261
	store i8*  %1, i8**  %2, align 8, !tbaa !3978, !dbg !6261
	%3 = load %struct._ZNSt12_Vector_baseIN8projects25FirehoseSpeciesParametersESaIS1_EE17_Vector_impl_dataE*, %struct._ZNSt12_Vector_baseIN8projects25FirehoseSpeciesParametersESaIS1_EE17_Vector_impl_dataE** %..inline.addr, align 8, !tbaa !3978, !dbg !6261
	%4 = bitcast %struct._ZNSt12_Vector_baseIN8projects25FirehoseSpeciesParametersESaIS1_EE17_Vector_impl_dataE*  %3 to i8**, !dbg !6261
	store i8* null, i8**  %4, align 8, !tbaa !3978, !dbg !6261
	%5 = bitcast %struct._ZNSt12_Vector_baseIN8projects25FirehoseSpeciesParametersESaIS1_EE17_Vector_impl_dataE*  %3 to i8*, !dbg !6261
	%6 = getelementptr i8, i8*  %5, i64 8, !dbg !6261
	%7 = bitcast i8*  %6 to i8**, !dbg !6261
	store i8* null, i8**  %7, align 8, !tbaa !3978, !dbg !6261
	%8 = getelementptr i8, i8*  %5, i64 16, !dbg !6261
	%9 = bitcast i8*  %8 to i8**, !dbg !6261
	store i8* null, i8**  %9, align 8, !tbaa !3978, !dbg !6261
	ret void, !dbg !6261
}
define linkonce_odr void @_ZNSt12_Vector_baseIN8projects25FirehoseSpeciesParametersESaIS1_EE12_Vector_implD1Ev(%struct._ZNSt12_Vector_baseIN8projects25FirehoseSpeciesParametersESaIS1_EE12_Vector_implE* %_T45627360_52218.arg) #0 inlinehint !dbg !6263 {
L.entry:
	%_T45627360_52218.addr = alloca %struct._ZNSt12_Vector_baseIN8projects25FirehoseSpeciesParametersESaIS1_EE12_Vector_implE*, align 8

	call void @llvm.dbg.declare (metadata %struct._ZNSt12_Vector_baseIN8projects25FirehoseSpeciesParametersESaIS1_EE12_Vector_implE** %_T45627360_52218.addr, metadata !6275, metadata !3970), !dbg !6264
	store %struct._ZNSt12_Vector_baseIN8projects25FirehoseSpeciesParametersESaIS1_EE12_Vector_implE* %_T45627360_52218.arg, %struct._ZNSt12_Vector_baseIN8projects25FirehoseSpeciesParametersESaIS1_EE12_Vector_implE** %_T45627360_52218.addr, align 8, !tbaa !3978
	call void @llvm.dbg.declare (metadata %struct._ZNSt12_Vector_baseIN8projects25FirehoseSpeciesParametersESaIS1_EE12_Vector_implE** %_T45627360_52218.addr, metadata !6276, metadata !3970), !dbg !6264
	ret void, !dbg !6277
}
define linkonce_odr void @_ZNSt12_Vector_baseIN8projects25FirehoseSpeciesParametersESaIS1_EE12_Vector_implD2Ev(%struct._ZNSt12_Vector_baseIN8projects25FirehoseSpeciesParametersESaIS1_EE12_Vector_implE* %_T45627360_52219.arg) #0 inlinehint !dbg !6279 {
L.entry:
	%_T45627360_52219.addr = alloca %struct._ZNSt12_Vector_baseIN8projects25FirehoseSpeciesParametersESaIS1_EE12_Vector_implE*, align 8

	store %struct._ZNSt12_Vector_baseIN8projects25FirehoseSpeciesParametersESaIS1_EE12_Vector_implE* %_T45627360_52219.arg, %struct._ZNSt12_Vector_baseIN8projects25FirehoseSpeciesParametersESaIS1_EE12_Vector_implE** %_T45627360_52219.addr, align 8, !tbaa !3978
	ret void, !dbg !6295
}

%struct._ZSt17integral_constantIbLb1EE = type <{ [1 x i8]}> 

define linkonce_odr %struct._ZN8projects25FirehoseSpeciesParametersE* @_ZNSt6vectorIN8projects25FirehoseSpeciesParametersESaIS1_EE14_S_do_relocateEPS1_S4_S4_RS2_St17integral_constantIbLb1EE(%struct._ZN8projects25FirehoseSpeciesParametersE* %__first.arg, %struct._ZN8projects25FirehoseSpeciesParametersE* %__last.arg, %struct._ZN8projects25FirehoseSpeciesParametersE* %__result.arg, %struct._ZSaIN8projects25FirehoseSpeciesParametersEE* %__alloc.arg, i8 %_T45628544_52226.coerce) #0 inlinehint !dbg !6303 {
L.entry:
	%__first.addr = alloca %struct._ZN8projects25FirehoseSpeciesParametersE*, align 8
	%__last.addr = alloca %struct._ZN8projects25FirehoseSpeciesParametersE*, align 8
	%__result.addr = alloca %struct._ZN8projects25FirehoseSpeciesParametersE*, align 8
	%__alloc.addr = alloca %struct._ZSaIN8projects25FirehoseSpeciesParametersEE*, align 8
	%_T45628544_52226.addr = alloca %struct._ZSt17integral_constantIbLb1EE, align 1
	%..inline.addr = alloca %struct._ZN8projects25FirehoseSpeciesParametersE*, align 8
	%..inline.addr.1 = alloca %struct._ZN8projects25FirehoseSpeciesParametersE*, align 8
	%..inline.addr.2 = alloca i64, align 8

	call void @llvm.dbg.declare (metadata %struct._ZN8projects25FirehoseSpeciesParametersE** %__first.addr, metadata !6327, metadata !3970), !dbg !6304
	store %struct._ZN8projects25FirehoseSpeciesParametersE* %__first.arg, %struct._ZN8projects25FirehoseSpeciesParametersE** %__first.addr, align 8, !tbaa !3978
	call void @llvm.dbg.declare (metadata %struct._ZN8projects25FirehoseSpeciesParametersE** %__first.addr, metadata !6328, metadata !3970), !dbg !6304
	call void @llvm.dbg.declare (metadata %struct._ZN8projects25FirehoseSpeciesParametersE** %__last.addr, metadata !6329, metadata !3970), !dbg !6304
	store %struct._ZN8projects25FirehoseSpeciesParametersE* %__last.arg, %struct._ZN8projects25FirehoseSpeciesParametersE** %__last.addr, align 8, !tbaa !3978
	call void @llvm.dbg.declare (metadata %struct._ZN8projects25FirehoseSpeciesParametersE** %__last.addr, metadata !6330, metadata !3970), !dbg !6304
	call void @llvm.dbg.declare (metadata %struct._ZN8projects25FirehoseSpeciesParametersE** %__result.addr, metadata !6331, metadata !3970), !dbg !6304
	store %struct._ZN8projects25FirehoseSpeciesParametersE* %__result.arg, %struct._ZN8projects25FirehoseSpeciesParametersE** %__result.addr, align 8, !tbaa !3978
	call void @llvm.dbg.declare (metadata %struct._ZN8projects25FirehoseSpeciesParametersE** %__result.addr, metadata !6332, metadata !3970), !dbg !6304
	call void @llvm.dbg.declare (metadata %struct._ZSaIN8projects25FirehoseSpeciesParametersEE** %__alloc.addr, metadata !6333, metadata !3970), !dbg !6304
	store %struct._ZSaIN8projects25FirehoseSpeciesParametersEE* %__alloc.arg, %struct._ZSaIN8projects25FirehoseSpeciesParametersEE** %__alloc.addr, align 8, !tbaa !3978
	call void @llvm.dbg.declare (metadata %struct._ZSaIN8projects25FirehoseSpeciesParametersEE** %__alloc.addr, metadata !6334, metadata !3970), !dbg !6304
	call void @llvm.dbg.declare (metadata %struct._ZSt17integral_constantIbLb1EE* %_T45628544_52226.addr, metadata !6335, metadata !3970), !dbg !6304
	%0 = bitcast %struct._ZSt17integral_constantIbLb1EE* %_T45628544_52226.addr to i8*
	store i8 %_T45628544_52226.coerce, i8*  %0, align 1, !tbaa !3977
	call void @llvm.dbg.declare (metadata %struct._ZSt17integral_constantIbLb1EE* %_T45628544_52226.addr, metadata !6336, metadata !3970), !dbg !6304
	%1 = load %struct._ZN8projects25FirehoseSpeciesParametersE*, %struct._ZN8projects25FirehoseSpeciesParametersE** %__first.addr, align 8, !tbaa !3978, !dbg !6337
	%2 = bitcast %struct._ZN8projects25FirehoseSpeciesParametersE*  %1 to i8*, !dbg !6337
	%3 = bitcast %struct._ZN8projects25FirehoseSpeciesParametersE** %..inline.addr to i8**, !dbg !6337
	store i8*  %2, i8**  %3, align 8, !tbaa !3978, !dbg !6337
	%4 = load %struct._ZN8projects25FirehoseSpeciesParametersE*, %struct._ZN8projects25FirehoseSpeciesParametersE** %__result.addr, align 8, !tbaa !3978, !dbg !6337
	%5 = bitcast %struct._ZN8projects25FirehoseSpeciesParametersE*  %4 to i8*, !dbg !6337
	%6 = bitcast %struct._ZN8projects25FirehoseSpeciesParametersE** %..inline.addr.1 to i8**, !dbg !6337
	store i8*  %5, i8**  %6, align 8, !tbaa !3978, !dbg !6337
	%7 = load %struct._ZN8projects25FirehoseSpeciesParametersE*, %struct._ZN8projects25FirehoseSpeciesParametersE** %__last.addr, align 8, !tbaa !3978, !dbg !6337
	%8 = bitcast %struct._ZN8projects25FirehoseSpeciesParametersE*  %7 to i8*, !dbg !6337
	%9 = ptrtoint i8*  %2 to i64, !dbg !6337
	%10 = sub i64 0,  %9, !dbg !6337
	%11 = getelementptr i8, i8*  %8, i64  %10, !dbg !6337
	%12 = ptrtoint i8*  %11 to i64, !dbg !6337
	%13 = sub i64 0,  %9, !dbg !6337
	%14 = getelementptr i8, i8*  %8, i64  %13, !dbg !6337
	%15 = ptrtoint i8*  %14 to i64, !dbg !6337
	%16 = sext i64 -8608480567731124087 to i128, !dbg !6337
	%17 = sext i64  %15 to i128, !dbg !6337
	%18 = mul i128  %16,  %17, !dbg !6337
	%19 = ashr i128  %18, 64, !dbg !6337
	%20 = trunc i128  %19 to i64, !dbg !6337
	%21 = add i64  %12,  %20, !dbg !6337
	%22 = sext i32 6 to i64, !dbg !6337
	%23 = ashr i64  %21,  %22, !dbg !6337
	%24 = sub i64 0,  %9, !dbg !6337
	%25 = getelementptr i8, i8*  %8, i64  %24, !dbg !6337
	%26 = ptrtoint i8*  %25 to i64, !dbg !6337
	%27 = sext i32 63 to i64, !dbg !6337
	%28 = ashr i64  %26,  %27, !dbg !6337
	%29 = sub i64  %23,  %28, !dbg !6337
	store i64  %29, i64* %..inline.addr.2, align 8, !tbaa !4405, !dbg !6337
	%30 = icmp sle i64  %29, 0, !dbg !6337
	br i1  %30, label %L..inline.72019, label %L.B1434, !dbg !6337
L.B1434:
	%31 = load %struct._ZN8projects25FirehoseSpeciesParametersE*, %struct._ZN8projects25FirehoseSpeciesParametersE** %..inline.addr.1, align 8, !tbaa !3978, !dbg !6337
	%32 = bitcast %struct._ZN8projects25FirehoseSpeciesParametersE*  %31 to i8*, !dbg !6337
	%33 = load %struct._ZN8projects25FirehoseSpeciesParametersE*, %struct._ZN8projects25FirehoseSpeciesParametersE** %..inline.addr, align 8, !tbaa !3978, !dbg !6337
	%34 = bitcast %struct._ZN8projects25FirehoseSpeciesParametersE*  %33 to i8*, !dbg !6337
	%35 = mul i64  %29, 120, !dbg !6337
	%36 = call i8*  @memmove (i8*  %32, i8*  %34, i64  %35) nounwind, !dbg !6337
	br label %L..inline.72019
L..inline.72019:
	%37 = load %struct._ZN8projects25FirehoseSpeciesParametersE*, %struct._ZN8projects25FirehoseSpeciesParametersE** %..inline.addr.1, align 8, !tbaa !3978, !dbg !6338
	%38 = bitcast %struct._ZN8projects25FirehoseSpeciesParametersE*  %37 to i8*, !dbg !6338
	%39 = load i64, i64* %..inline.addr.2, align 8, !tbaa !4405, !dbg !6338
	%40 = mul i64  %39, 120, !dbg !6338
	%41 = getelementptr i8, i8*  %38, i64  %40, !dbg !6338
	%42 = bitcast i8*  %41 to %struct._ZN8projects25FirehoseSpeciesParametersE*, !dbg !6338
	ret %struct._ZN8projects25FirehoseSpeciesParametersE*  %42, !dbg !6338
}
define linkonce_odr %struct._ZN8projects25FirehoseSpeciesParametersE* @_ZNSt6vectorIN8projects25FirehoseSpeciesParametersESaIS1_EE11_S_relocateEPS1_S4_S4_RS2_(%struct._ZN8projects25FirehoseSpeciesParametersE* %__first.arg, %struct._ZN8projects25FirehoseSpeciesParametersE* %__last.arg, %struct._ZN8projects25FirehoseSpeciesParametersE* %__result.arg, %struct._ZSaIN8projects25FirehoseSpeciesParametersEE* %__alloc.arg) #0 inlinehint !dbg !6343 {
L.entry:
	%__first.addr = alloca %struct._ZN8projects25FirehoseSpeciesParametersE*, align 8
	%__last.addr = alloca %struct._ZN8projects25FirehoseSpeciesParametersE*, align 8
	%__result.addr = alloca %struct._ZN8projects25FirehoseSpeciesParametersE*, align 8
	%__alloc.addr = alloca %struct._ZSaIN8projects25FirehoseSpeciesParametersEE*, align 8
	%.._T45629320_52231.__FILL_CHARARRAY.addr = alloca [1 x i8], align 1
	%..inline.addr = alloca %struct._ZN8projects25FirehoseSpeciesParametersE*, align 8
	%..inline.addr.1 = alloca %struct._ZN8projects25FirehoseSpeciesParametersE*, align 8
	%..inline.addr.2 = alloca %struct._ZN8projects25FirehoseSpeciesParametersE*, align 8
	%....inline.__FILL_CHARARRAY.addr = alloca [1 x i8], align 1
	%..inline.addr.3 = alloca %struct._ZN8projects25FirehoseSpeciesParametersE*, align 8
	%..inline.addr.4 = alloca %struct._ZN8projects25FirehoseSpeciesParametersE*, align 8
	%..inline.addr.5 = alloca i64, align 8

	call void @llvm.dbg.declare (metadata %struct._ZN8projects25FirehoseSpeciesParametersE** %__first.addr, metadata !6371, metadata !3970), !dbg !6344
	store %struct._ZN8projects25FirehoseSpeciesParametersE* %__first.arg, %struct._ZN8projects25FirehoseSpeciesParametersE** %__first.addr, align 8, !tbaa !3978
	call void @llvm.dbg.declare (metadata %struct._ZN8projects25FirehoseSpeciesParametersE** %__first.addr, metadata !6372, metadata !3970), !dbg !6344
	call void @llvm.dbg.declare (metadata %struct._ZN8projects25FirehoseSpeciesParametersE** %__last.addr, metadata !6373, metadata !3970), !dbg !6344
	store %struct._ZN8projects25FirehoseSpeciesParametersE* %__last.arg, %struct._ZN8projects25FirehoseSpeciesParametersE** %__last.addr, align 8, !tbaa !3978
	call void @llvm.dbg.declare (metadata %struct._ZN8projects25FirehoseSpeciesParametersE** %__last.addr, metadata !6374, metadata !3970), !dbg !6344
	call void @llvm.dbg.declare (metadata %struct._ZN8projects25FirehoseSpeciesParametersE** %__result.addr, metadata !6375, metadata !3970), !dbg !6344
	store %struct._ZN8projects25FirehoseSpeciesParametersE* %__result.arg, %struct._ZN8projects25FirehoseSpeciesParametersE** %__result.addr, align 8, !tbaa !3978
	call void @llvm.dbg.declare (metadata %struct._ZN8projects25FirehoseSpeciesParametersE** %__result.addr, metadata !6376, metadata !3970), !dbg !6344
	call void @llvm.dbg.declare (metadata %struct._ZSaIN8projects25FirehoseSpeciesParametersEE** %__alloc.addr, metadata !6377, metadata !3970), !dbg !6344
	store %struct._ZSaIN8projects25FirehoseSpeciesParametersEE* %__alloc.arg, %struct._ZSaIN8projects25FirehoseSpeciesParametersEE** %__alloc.addr, align 8, !tbaa !3978
	call void @llvm.dbg.declare (metadata %struct._ZSaIN8projects25FirehoseSpeciesParametersEE** %__alloc.addr, metadata !6378, metadata !3970), !dbg !6344
	call void @llvm.dbg.declare (metadata [1 x i8]* %.._T45629320_52231.__FILL_CHARARRAY.addr, metadata !6380, metadata !3970), !dbg !6346
	%0 = bitcast [1 x i8]* %.._T45629320_52231.__FILL_CHARARRAY.addr to i8*, !dbg !6379
	store i8 0, i8*  %0, align 1, !tbaa !3977, !dbg !6379
	%1 = load %struct._ZN8projects25FirehoseSpeciesParametersE*, %struct._ZN8projects25FirehoseSpeciesParametersE** %__first.addr, align 8, !tbaa !3978, !dbg !6379
	%2 = bitcast %struct._ZN8projects25FirehoseSpeciesParametersE*  %1 to i8*, !dbg !6379
	%3 = bitcast %struct._ZN8projects25FirehoseSpeciesParametersE** %..inline.addr to i8**, !dbg !6379
	store i8*  %2, i8**  %3, align 8, !tbaa !3978, !dbg !6379
	%4 = load %struct._ZN8projects25FirehoseSpeciesParametersE*, %struct._ZN8projects25FirehoseSpeciesParametersE** %__last.addr, align 8, !tbaa !3978, !dbg !6379
	%5 = bitcast %struct._ZN8projects25FirehoseSpeciesParametersE*  %4 to i8*, !dbg !6379
	%6 = bitcast %struct._ZN8projects25FirehoseSpeciesParametersE** %..inline.addr.1 to i8**, !dbg !6379
	store i8*  %5, i8**  %6, align 8, !tbaa !3978, !dbg !6379
	%7 = load %struct._ZN8projects25FirehoseSpeciesParametersE*, %struct._ZN8projects25FirehoseSpeciesParametersE** %__result.addr, align 8, !tbaa !3978, !dbg !6379
	%8 = bitcast %struct._ZN8projects25FirehoseSpeciesParametersE*  %7 to i8*, !dbg !6379
	%9 = bitcast %struct._ZN8projects25FirehoseSpeciesParametersE** %..inline.addr.2 to i8**, !dbg !6379
	store i8*  %8, i8**  %9, align 8, !tbaa !3978, !dbg !6379
	%10 = zext i8 0 to i32, !dbg !6381
	%11 = trunc i32  %10 to i8, !dbg !6381
	call void @llvm.dbg.declare (metadata [1 x i8]* %....inline.__FILL_CHARARRAY.addr, metadata !6382, metadata !3970), !dbg !6346
	%12 = bitcast [1 x i8]* %....inline.__FILL_CHARARRAY.addr to i8*, !dbg !6381
	store i8  %11, i8*  %12, align 1, !tbaa !3977, !dbg !6381
	%13 = load %struct._ZN8projects25FirehoseSpeciesParametersE*, %struct._ZN8projects25FirehoseSpeciesParametersE** %..inline.addr, align 8, !tbaa !3978, !dbg !6383
	%14 = bitcast %struct._ZN8projects25FirehoseSpeciesParametersE*  %13 to i8*, !dbg !6383
	%15 = bitcast %struct._ZN8projects25FirehoseSpeciesParametersE** %..inline.addr.3 to i8**, !dbg !6383
	store i8*  %14, i8**  %15, align 8, !tbaa !3978, !dbg !6383
	%16 = load %struct._ZN8projects25FirehoseSpeciesParametersE*, %struct._ZN8projects25FirehoseSpeciesParametersE** %..inline.addr.2, align 8, !tbaa !3978, !dbg !6383
	%17 = bitcast %struct._ZN8projects25FirehoseSpeciesParametersE*  %16 to i8*, !dbg !6383
	%18 = bitcast %struct._ZN8projects25FirehoseSpeciesParametersE** %..inline.addr.4 to i8**, !dbg !6383
	store i8*  %17, i8**  %18, align 8, !tbaa !3978, !dbg !6383
	%19 = load %struct._ZN8projects25FirehoseSpeciesParametersE*, %struct._ZN8projects25FirehoseSpeciesParametersE** %..inline.addr.1, align 8, !tbaa !3978, !dbg !6383
	%20 = bitcast %struct._ZN8projects25FirehoseSpeciesParametersE*  %19 to i8*, !dbg !6383
	%21 = ptrtoint i8*  %14 to i64, !dbg !6383
	%22 = sub i64 0,  %21, !dbg !6383
	%23 = getelementptr i8, i8*  %20, i64  %22, !dbg !6383
	%24 = ptrtoint i8*  %23 to i64, !dbg !6383
	%25 = sub i64 0,  %21, !dbg !6383
	%26 = getelementptr i8, i8*  %20, i64  %25, !dbg !6383
	%27 = ptrtoint i8*  %26 to i64, !dbg !6383
	%28 = sext i64 -8608480567731124087 to i128, !dbg !6383
	%29 = sext i64  %27 to i128, !dbg !6383
	%30 = mul i128  %28,  %29, !dbg !6383
	%31 = ashr i128  %30, 64, !dbg !6383
	%32 = trunc i128  %31 to i64, !dbg !6383
	%33 = add i64  %24,  %32, !dbg !6383
	%34 = sext i32 6 to i64, !dbg !6383
	%35 = ashr i64  %33,  %34, !dbg !6383
	%36 = sub i64 0,  %21, !dbg !6383
	%37 = getelementptr i8, i8*  %20, i64  %36, !dbg !6383
	%38 = ptrtoint i8*  %37 to i64, !dbg !6383
	%39 = sext i32 63 to i64, !dbg !6383
	%40 = ashr i64  %38,  %39, !dbg !6383
	%41 = sub i64  %35,  %40, !dbg !6383
	store i64  %41, i64* %..inline.addr.5, align 8, !tbaa !4405, !dbg !6383
	%42 = icmp sle i64  %41, 0, !dbg !6383
	br i1  %42, label %L..inline.72095, label %L.B1437, !dbg !6383
L.B1437:
	%43 = load %struct._ZN8projects25FirehoseSpeciesParametersE*, %struct._ZN8projects25FirehoseSpeciesParametersE** %..inline.addr.4, align 8, !tbaa !3978, !dbg !6383
	%44 = bitcast %struct._ZN8projects25FirehoseSpeciesParametersE*  %43 to i8*, !dbg !6383
	%45 = load %struct._ZN8projects25FirehoseSpeciesParametersE*, %struct._ZN8projects25FirehoseSpeciesParametersE** %..inline.addr.3, align 8, !tbaa !3978, !dbg !6383
	%46 = bitcast %struct._ZN8projects25FirehoseSpeciesParametersE*  %45 to i8*, !dbg !6383
	%47 = mul i64  %41, 120, !dbg !6383
	%48 = call i8*  @memmove (i8*  %44, i8*  %46, i64  %47) nounwind, !dbg !6383
	br label %L..inline.72095
L..inline.72095:
	%49 = load %struct._ZN8projects25FirehoseSpeciesParametersE*, %struct._ZN8projects25FirehoseSpeciesParametersE** %..inline.addr.4, align 8, !tbaa !3978, !dbg !6379
	%50 = bitcast %struct._ZN8projects25FirehoseSpeciesParametersE*  %49 to i8*, !dbg !6379
	%51 = load i64, i64* %..inline.addr.5, align 8, !tbaa !4405, !dbg !6379
	%52 = mul i64  %51, 120, !dbg !6379
	%53 = getelementptr i8, i8*  %50, i64  %52, !dbg !6379
	%54 = bitcast i8*  %53 to %struct._ZN8projects25FirehoseSpeciesParametersE*, !dbg !6379
	ret %struct._ZN8projects25FirehoseSpeciesParametersE*  %54, !dbg !6379
}

%struct._ZSt6vectorIN8projects25FirehoseSpeciesParametersESaIS1_EE = type <{ %struct._ZSt12_Vector_baseIN8projects25FirehoseSpeciesParametersESaIS1_EE}> 

define linkonce_odr void @_ZNSt6vectorIN8projects25FirehoseSpeciesParametersESaIS1_EEC1Ev(%struct._ZSt6vectorIN8projects25FirehoseSpeciesParametersESaIS1_EE* %_T45627360_52232.arg) #0 inlinehint !dbg !6388 {
L.entry:
	%_T45627360_52232.addr = alloca %struct._ZSt6vectorIN8projects25FirehoseSpeciesParametersESaIS1_EE*, align 8
	%..inline.addr = alloca %struct._ZNSt12_Vector_baseIN8projects25FirehoseSpeciesParametersESaIS1_EE17_Vector_impl_dataE*, align 8

	call void @llvm.dbg.declare (metadata %struct._ZSt6vectorIN8projects25FirehoseSpeciesParametersESaIS1_EE** %_T45627360_52232.addr, metadata !6412, metadata !3970), !dbg !6389
	store %struct._ZSt6vectorIN8projects25FirehoseSpeciesParametersESaIS1_EE* %_T45627360_52232.arg, %struct._ZSt6vectorIN8projects25FirehoseSpeciesParametersESaIS1_EE** %_T45627360_52232.addr, align 8, !tbaa !3978
	call void @llvm.dbg.declare (metadata %struct._ZSt6vectorIN8projects25FirehoseSpeciesParametersESaIS1_EE** %_T45627360_52232.addr, metadata !6413, metadata !3970), !dbg !6389
	%0 = load %struct._ZSt6vectorIN8projects25FirehoseSpeciesParametersESaIS1_EE*, %struct._ZSt6vectorIN8projects25FirehoseSpeciesParametersESaIS1_EE** %_T45627360_52232.addr, align 8, !tbaa !3978, !dbg !6414
	%1 = bitcast %struct._ZSt6vectorIN8projects25FirehoseSpeciesParametersESaIS1_EE*  %0 to i8*, !dbg !6414
	%2 = bitcast %struct._ZNSt12_Vector_baseIN8projects25FirehoseSpeciesParametersESaIS1_EE17_Vector_impl_dataE** %..inline.addr to i8**, !dbg !6414
	store i8*  %1, i8**  %2, align 8, !tbaa !3978, !dbg !6414
	%3 = load %struct._ZNSt12_Vector_baseIN8projects25FirehoseSpeciesParametersESaIS1_EE17_Vector_impl_dataE*, %struct._ZNSt12_Vector_baseIN8projects25FirehoseSpeciesParametersESaIS1_EE17_Vector_impl_dataE** %..inline.addr, align 8, !tbaa !3978, !dbg !6414
	%4 = bitcast %struct._ZNSt12_Vector_baseIN8projects25FirehoseSpeciesParametersESaIS1_EE17_Vector_impl_dataE*  %3 to i8**, !dbg !6414
	store i8* null, i8**  %4, align 8, !tbaa !3978, !dbg !6414
	%5 = bitcast %struct._ZNSt12_Vector_baseIN8projects25FirehoseSpeciesParametersESaIS1_EE17_Vector_impl_dataE*  %3 to i8*, !dbg !6414
	%6 = getelementptr i8, i8*  %5, i64 8, !dbg !6414
	%7 = bitcast i8*  %6 to i8**, !dbg !6414
	store i8* null, i8**  %7, align 8, !tbaa !3978, !dbg !6414
	%8 = getelementptr i8, i8*  %5, i64 16, !dbg !6414
	%9 = bitcast i8*  %8 to i8**, !dbg !6414
	store i8* null, i8**  %9, align 8, !tbaa !3978, !dbg !6414
	ret void, !dbg !6414
}
define linkonce_odr void @_ZNSt6vectorIN8projects25FirehoseSpeciesParametersESaIS1_EEC2Ev(%struct._ZSt6vectorIN8projects25FirehoseSpeciesParametersESaIS1_EE* %_T45627360_52233.arg) #0 inlinehint !dbg !6416 {
L.entry:
	%_T45627360_52233.addr = alloca %struct._ZSt6vectorIN8projects25FirehoseSpeciesParametersESaIS1_EE*, align 8
	%..inline.addr = alloca %struct._ZNSt12_Vector_baseIN8projects25FirehoseSpeciesParametersESaIS1_EE17_Vector_impl_dataE*, align 8

	store %struct._ZSt6vectorIN8projects25FirehoseSpeciesParametersESaIS1_EE* %_T45627360_52233.arg, %struct._ZSt6vectorIN8projects25FirehoseSpeciesParametersESaIS1_EE** %_T45627360_52233.addr, align 8, !tbaa !3978
	%0 = load %struct._ZSt6vectorIN8projects25FirehoseSpeciesParametersESaIS1_EE*, %struct._ZSt6vectorIN8projects25FirehoseSpeciesParametersESaIS1_EE** %_T45627360_52233.addr, align 8, !tbaa !3978, !dbg !6444
	%1 = bitcast %struct._ZSt6vectorIN8projects25FirehoseSpeciesParametersESaIS1_EE*  %0 to i8*, !dbg !6444
	%2 = bitcast %struct._ZNSt12_Vector_baseIN8projects25FirehoseSpeciesParametersESaIS1_EE17_Vector_impl_dataE** %..inline.addr to i8**, !dbg !6444
	store i8*  %1, i8**  %2, align 8, !tbaa !3978, !dbg !6444
	%3 = load %struct._ZNSt12_Vector_baseIN8projects25FirehoseSpeciesParametersESaIS1_EE17_Vector_impl_dataE*, %struct._ZNSt12_Vector_baseIN8projects25FirehoseSpeciesParametersESaIS1_EE17_Vector_impl_dataE** %..inline.addr, align 8, !tbaa !3978, !dbg !6444
	%4 = bitcast %struct._ZNSt12_Vector_baseIN8projects25FirehoseSpeciesParametersESaIS1_EE17_Vector_impl_dataE*  %3 to i8**, !dbg !6444
	store i8* null, i8**  %4, align 8, !tbaa !3978, !dbg !6444
	%5 = bitcast %struct._ZNSt12_Vector_baseIN8projects25FirehoseSpeciesParametersESaIS1_EE17_Vector_impl_dataE*  %3 to i8*, !dbg !6444
	%6 = getelementptr i8, i8*  %5, i64 8, !dbg !6444
	%7 = bitcast i8*  %6 to i8**, !dbg !6444
	store i8* null, i8**  %7, align 8, !tbaa !3978, !dbg !6444
	%8 = getelementptr i8, i8*  %5, i64 16, !dbg !6444
	%9 = bitcast i8*  %8 to i8**, !dbg !6444
	store i8* null, i8**  %9, align 8, !tbaa !3978, !dbg !6444
	ret void, !dbg !6444
}
define linkonce_odr void @_ZNSt6vectorIN8projects25FirehoseSpeciesParametersESaIS1_EED1Ev(%struct._ZSt6vectorIN8projects25FirehoseSpeciesParametersESaIS1_EE* %_T45627360_52234.arg) #0 inlinehint !dbg !6446 {
L.entry:
	%_T45627360_52234.addr = alloca %struct._ZSt6vectorIN8projects25FirehoseSpeciesParametersESaIS1_EE*, align 8
	%..inline.addr = alloca %struct._ZSt12_Vector_baseIN8projects25FirehoseSpeciesParametersESaIS1_EE*, align 8
	%..inline.addr.1 = alloca %struct._ZN8projects25FirehoseSpeciesParametersE*, align 8

	call void @llvm.dbg.declare (metadata %struct._ZSt6vectorIN8projects25FirehoseSpeciesParametersESaIS1_EE** %_T45627360_52234.addr, metadata !6498, metadata !3970), !dbg !6447
	store %struct._ZSt6vectorIN8projects25FirehoseSpeciesParametersESaIS1_EE* %_T45627360_52234.arg, %struct._ZSt6vectorIN8projects25FirehoseSpeciesParametersESaIS1_EE** %_T45627360_52234.addr, align 8, !tbaa !3978
	call void @llvm.dbg.declare (metadata %struct._ZSt6vectorIN8projects25FirehoseSpeciesParametersESaIS1_EE** %_T45627360_52234.addr, metadata !6499, metadata !3970), !dbg !6447
	%0 = load %struct._ZSt6vectorIN8projects25FirehoseSpeciesParametersESaIS1_EE*, %struct._ZSt6vectorIN8projects25FirehoseSpeciesParametersESaIS1_EE** %_T45627360_52234.addr, align 8, !tbaa !3978, !dbg !6500
	%1 = bitcast %struct._ZSt6vectorIN8projects25FirehoseSpeciesParametersESaIS1_EE*  %0 to i8*, !dbg !6500
	%2 = bitcast %struct._ZSt12_Vector_baseIN8projects25FirehoseSpeciesParametersESaIS1_EE** %..inline.addr to i8**, !dbg !6500
	store i8*  %1, i8**  %2, align 8, !tbaa !3978, !dbg !6500
	%3 = load %struct._ZSt12_Vector_baseIN8projects25FirehoseSpeciesParametersESaIS1_EE*, %struct._ZSt12_Vector_baseIN8projects25FirehoseSpeciesParametersESaIS1_EE** %..inline.addr, align 8, !tbaa !3978, !dbg !6501
	%4 = bitcast %struct._ZSt12_Vector_baseIN8projects25FirehoseSpeciesParametersESaIS1_EE*  %3 to i8**, !dbg !6501
	%5 = load i8*, i8**  %4, align 8, !tbaa !3978, !dbg !6501
	%6 = icmp eq i8*  %5,  null, !dbg !6501
	br i1  %6, label %L..inline.72254, label %L.B1448, !dbg !6501
L.B1448:
	%7 = bitcast %struct._ZSt12_Vector_baseIN8projects25FirehoseSpeciesParametersESaIS1_EE*  %3 to i8**, !dbg !6501
	%8 = load i8*, i8**  %7, align 8, !tbaa !3978, !dbg !6501
	%9 = bitcast %struct._ZN8projects25FirehoseSpeciesParametersE** %..inline.addr.1 to i8**, !dbg !6501
	store i8*  %8, i8**  %9, align 8, !tbaa !3978, !dbg !6501
	%10 = load %struct._ZN8projects25FirehoseSpeciesParametersE*, %struct._ZN8projects25FirehoseSpeciesParametersE** %..inline.addr.1, align 8, !tbaa !3978, !dbg !6501
	%11 = bitcast %struct._ZN8projects25FirehoseSpeciesParametersE*  %10 to i8*, !dbg !6501
	call void  @_ZdlPv (i8*  %11) nounwind, !dbg !6501
	br label %L..inline.72254
L..inline.72254:
	ret void, !dbg !6500
}
define linkonce_odr void @_ZNSt6vectorIN8projects25FirehoseSpeciesParametersESaIS1_EED2Ev(%struct._ZSt6vectorIN8projects25FirehoseSpeciesParametersESaIS1_EE* %_T45627360_52235.arg) #0 inlinehint !dbg !6503 {
L.entry:
	%_T45627360_52235.addr = alloca %struct._ZSt6vectorIN8projects25FirehoseSpeciesParametersESaIS1_EE*, align 8
	%..inline.addr = alloca %struct._ZSt12_Vector_baseIN8projects25FirehoseSpeciesParametersESaIS1_EE*, align 8
	%..inline.addr.1 = alloca %struct._ZN8projects25FirehoseSpeciesParametersE*, align 8

	store %struct._ZSt6vectorIN8projects25FirehoseSpeciesParametersESaIS1_EE* %_T45627360_52235.arg, %struct._ZSt6vectorIN8projects25FirehoseSpeciesParametersESaIS1_EE** %_T45627360_52235.addr, align 8, !tbaa !3978
	%0 = load %struct._ZSt6vectorIN8projects25FirehoseSpeciesParametersESaIS1_EE*, %struct._ZSt6vectorIN8projects25FirehoseSpeciesParametersESaIS1_EE** %_T45627360_52235.addr, align 8, !tbaa !3978, !dbg !6559
	%1 = bitcast %struct._ZSt6vectorIN8projects25FirehoseSpeciesParametersESaIS1_EE*  %0 to i8*, !dbg !6559
	%2 = bitcast %struct._ZSt12_Vector_baseIN8projects25FirehoseSpeciesParametersESaIS1_EE** %..inline.addr to i8**, !dbg !6559
	store i8*  %1, i8**  %2, align 8, !tbaa !3978, !dbg !6559
	%3 = load %struct._ZSt12_Vector_baseIN8projects25FirehoseSpeciesParametersESaIS1_EE*, %struct._ZSt12_Vector_baseIN8projects25FirehoseSpeciesParametersESaIS1_EE** %..inline.addr, align 8, !tbaa !3978, !dbg !6559
	%4 = bitcast %struct._ZSt12_Vector_baseIN8projects25FirehoseSpeciesParametersESaIS1_EE*  %3 to i8**, !dbg !6559
	%5 = load i8*, i8**  %4, align 8, !tbaa !3978, !dbg !6559
	%6 = icmp eq i8*  %5,  null, !dbg !6559
	br i1  %6, label %L..inline.72358, label %L.B1451, !dbg !6559
L.B1451:
	%7 = bitcast %struct._ZSt12_Vector_baseIN8projects25FirehoseSpeciesParametersESaIS1_EE*  %3 to i8**, !dbg !6559
	%8 = load i8*, i8**  %7, align 8, !tbaa !3978, !dbg !6559
	%9 = bitcast %struct._ZN8projects25FirehoseSpeciesParametersE** %..inline.addr.1 to i8**, !dbg !6559
	store i8*  %8, i8**  %9, align 8, !tbaa !3978, !dbg !6559
	%10 = load %struct._ZN8projects25FirehoseSpeciesParametersE*, %struct._ZN8projects25FirehoseSpeciesParametersE** %..inline.addr.1, align 8, !tbaa !3978, !dbg !6559
	%11 = bitcast %struct._ZN8projects25FirehoseSpeciesParametersE*  %10 to i8*, !dbg !6559
	call void  @_ZdlPv (i8*  %11) nounwind, !dbg !6559
	br label %L..inline.72358
L..inline.72358:
	ret void, !dbg !6559
}

%struct._ZN9__gnu_cxx17__normal_iteratorIPN8projects25FirehoseSpeciesParametersESt6vectorIS2_SaIS2_EEEE = type <{ %struct._ZN8projects25FirehoseSpeciesParametersE*}> 

define linkonce_odr i64 @_ZNSt6vectorIN8projects25FirehoseSpeciesParametersESaIS1_EE5beginEv(%struct._ZSt6vectorIN8projects25FirehoseSpeciesParametersESaIS1_EE* %_T45627360_52237.arg) #0 inlinehint !dbg !6563 {
L.entry:
	%.X52237.addr = alloca %struct._ZN9__gnu_cxx17__normal_iteratorIPN8projects25FirehoseSpeciesParametersESt6vectorIS2_SaIS2_EEEE, align 8
	%_T45627360_52237.addr = alloca %struct._ZSt6vectorIN8projects25FirehoseSpeciesParametersESaIS1_EE*, align 8

	call void @llvm.dbg.declare (metadata %struct._ZSt6vectorIN8projects25FirehoseSpeciesParametersESaIS1_EE** %_T45627360_52237.addr, metadata !6571, metadata !3970), !dbg !6564
	store %struct._ZSt6vectorIN8projects25FirehoseSpeciesParametersESaIS1_EE* %_T45627360_52237.arg, %struct._ZSt6vectorIN8projects25FirehoseSpeciesParametersESaIS1_EE** %_T45627360_52237.addr, align 8, !tbaa !3978
	call void @llvm.dbg.declare (metadata %struct._ZSt6vectorIN8projects25FirehoseSpeciesParametersESaIS1_EE** %_T45627360_52237.addr, metadata !6572, metadata !3970), !dbg !6564
	%0 = load %struct._ZSt6vectorIN8projects25FirehoseSpeciesParametersESaIS1_EE*, %struct._ZSt6vectorIN8projects25FirehoseSpeciesParametersESaIS1_EE** %_T45627360_52237.addr, align 8, !tbaa !3978, !dbg !6573
	%1 = bitcast %struct._ZSt6vectorIN8projects25FirehoseSpeciesParametersESaIS1_EE*  %0 to i8**, !dbg !6573
	%2 = load i8*, i8**  %1, align 8, !tbaa !3978, !dbg !6573
	%3 = bitcast %struct._ZN9__gnu_cxx17__normal_iteratorIPN8projects25FirehoseSpeciesParametersESt6vectorIS2_SaIS2_EEEE* %.X52237.addr to i8**, !dbg !6573
	store i8*  %2, i8**  %3, align 8, !tbaa !3978, !dbg !6573
	%4 = bitcast %struct._ZN9__gnu_cxx17__normal_iteratorIPN8projects25FirehoseSpeciesParametersESt6vectorIS2_SaIS2_EEEE* %.X52237.addr to i64*, !dbg !6573
	%5 = load i64, i64*  %4, align 8, !tbaa !3977, !dbg !6573
	ret i64  %5, !dbg !6573
}
define linkonce_odr i64 @_ZNSt6vectorIN8projects25FirehoseSpeciesParametersESaIS1_EE3endEv(%struct._ZSt6vectorIN8projects25FirehoseSpeciesParametersESaIS1_EE* %_T45627360_52239.arg) #0 inlinehint !dbg !6575 {
L.entry:
	%.X52239.addr = alloca %struct._ZN9__gnu_cxx17__normal_iteratorIPN8projects25FirehoseSpeciesParametersESt6vectorIS2_SaIS2_EEEE, align 8
	%_T45627360_52239.addr = alloca %struct._ZSt6vectorIN8projects25FirehoseSpeciesParametersESaIS1_EE*, align 8

	call void @llvm.dbg.declare (metadata %struct._ZSt6vectorIN8projects25FirehoseSpeciesParametersESaIS1_EE** %_T45627360_52239.addr, metadata !6583, metadata !3970), !dbg !6576
	store %struct._ZSt6vectorIN8projects25FirehoseSpeciesParametersESaIS1_EE* %_T45627360_52239.arg, %struct._ZSt6vectorIN8projects25FirehoseSpeciesParametersESaIS1_EE** %_T45627360_52239.addr, align 8, !tbaa !3978
	call void @llvm.dbg.declare (metadata %struct._ZSt6vectorIN8projects25FirehoseSpeciesParametersESaIS1_EE** %_T45627360_52239.addr, metadata !6584, metadata !3970), !dbg !6576
	%0 = load %struct._ZSt6vectorIN8projects25FirehoseSpeciesParametersESaIS1_EE*, %struct._ZSt6vectorIN8projects25FirehoseSpeciesParametersESaIS1_EE** %_T45627360_52239.addr, align 8, !tbaa !3978, !dbg !6585
	%1 = bitcast %struct._ZSt6vectorIN8projects25FirehoseSpeciesParametersESaIS1_EE*  %0 to i8*, !dbg !6585
	%2 = getelementptr i8, i8*  %1, i64 8, !dbg !6585
	%3 = bitcast i8*  %2 to i8**, !dbg !6585
	%4 = load i8*, i8**  %3, align 8, !tbaa !3978, !dbg !6585
	%5 = bitcast %struct._ZN9__gnu_cxx17__normal_iteratorIPN8projects25FirehoseSpeciesParametersESt6vectorIS2_SaIS2_EEEE* %.X52239.addr to i8**, !dbg !6585
	store i8*  %4, i8**  %5, align 8, !tbaa !3978, !dbg !6585
	%6 = bitcast %struct._ZN9__gnu_cxx17__normal_iteratorIPN8projects25FirehoseSpeciesParametersESt6vectorIS2_SaIS2_EEEE* %.X52239.addr to i64*, !dbg !6585
	%7 = load i64, i64*  %6, align 8, !tbaa !3977, !dbg !6585
	ret i64  %7, !dbg !6585
}
define linkonce_odr i64 @_ZNKSt6vectorIN8projects25FirehoseSpeciesParametersESaIS1_EE4sizeEv(%struct._ZSt6vectorIN8projects25FirehoseSpeciesParametersESaIS1_EE* %_T45627360_52241.arg) #0 inlinehint !dbg !6589 {
L.entry:
	%_T45627360_52241.addr = alloca %struct._ZSt6vectorIN8projects25FirehoseSpeciesParametersESaIS1_EE*, align 8
	%_T45628248_52241.addr = alloca i64, align 8

	call void @llvm.dbg.declare (metadata %struct._ZSt6vectorIN8projects25FirehoseSpeciesParametersESaIS1_EE** %_T45627360_52241.addr, metadata !6593, metadata !3970), !dbg !6590
	store %struct._ZSt6vectorIN8projects25FirehoseSpeciesParametersESaIS1_EE* %_T45627360_52241.arg, %struct._ZSt6vectorIN8projects25FirehoseSpeciesParametersESaIS1_EE** %_T45627360_52241.addr, align 8, !tbaa !3978
	call void @llvm.dbg.declare (metadata %struct._ZSt6vectorIN8projects25FirehoseSpeciesParametersESaIS1_EE** %_T45627360_52241.addr, metadata !6594, metadata !3970), !dbg !6590
	%0 = load %struct._ZSt6vectorIN8projects25FirehoseSpeciesParametersESaIS1_EE*, %struct._ZSt6vectorIN8projects25FirehoseSpeciesParametersESaIS1_EE** %_T45627360_52241.addr, align 8, !tbaa !3978, !dbg !6595
	%1 = bitcast %struct._ZSt6vectorIN8projects25FirehoseSpeciesParametersESaIS1_EE*  %0 to i8*, !dbg !6595
	%2 = getelementptr i8, i8*  %1, i64 8, !dbg !6595
	%3 = bitcast i8*  %2 to i8**, !dbg !6595
	%4 = load i8*, i8**  %3, align 8, !tbaa !3978, !dbg !6595
	%5 = bitcast %struct._ZSt6vectorIN8projects25FirehoseSpeciesParametersESaIS1_EE*  %0 to i8**, !dbg !6595
	%6 = load i8*, i8**  %5, align 8, !tbaa !3978, !dbg !6595
	%7 = ptrtoint i8*  %6 to i64, !dbg !6595
	%8 = sub i64 0,  %7, !dbg !6595
	%9 = getelementptr i8, i8*  %4, i64  %8, !dbg !6595
	%10 = ptrtoint i8*  %9 to i64, !dbg !6595
	%11 = sub i64 0,  %7, !dbg !6595
	%12 = getelementptr i8, i8*  %4, i64  %11, !dbg !6595
	%13 = ptrtoint i8*  %12 to i64, !dbg !6595
	%14 = sext i64 -8608480567731124087 to i128, !dbg !6595
	%15 = sext i64  %13 to i128, !dbg !6595
	%16 = mul i128  %14,  %15, !dbg !6595
	%17 = ashr i128  %16, 64, !dbg !6595
	%18 = trunc i128  %17 to i64, !dbg !6595
	%19 = add i64  %10,  %18, !dbg !6595
	%20 = sext i32 6 to i64, !dbg !6595
	%21 = ashr i64  %19,  %20, !dbg !6595
	%22 = sub i64 0,  %7, !dbg !6595
	%23 = getelementptr i8, i8*  %4, i64  %22, !dbg !6595
	%24 = ptrtoint i8*  %23 to i64, !dbg !6595
	%25 = sext i32 63 to i64, !dbg !6595
	%26 = ashr i64  %24,  %25, !dbg !6595
	%27 = sub i64  %21,  %26, !dbg !6595
	ret i64  %27, !dbg !6595
}
define linkonce_odr i64 @_ZNKSt6vectorIN8projects25FirehoseSpeciesParametersESaIS1_EE8max_sizeEv(%struct._ZSt6vectorIN8projects25FirehoseSpeciesParametersESaIS1_EE* %_T45627360_52243.arg) #0 inlinehint !dbg !6597 {
L.entry:
	%_T45627360_52243.addr = alloca %struct._ZSt6vectorIN8projects25FirehoseSpeciesParametersESaIS1_EE*, align 8
	%..inline.addr = alloca %struct._ZSaIN8projects25FirehoseSpeciesParametersEE*, align 8
	%_T45628248_52243.addr = alloca i64, align 8

	call void @llvm.dbg.declare (metadata %struct._ZSt6vectorIN8projects25FirehoseSpeciesParametersESaIS1_EE** %_T45627360_52243.addr, metadata !6605, metadata !3970), !dbg !6598
	store %struct._ZSt6vectorIN8projects25FirehoseSpeciesParametersESaIS1_EE* %_T45627360_52243.arg, %struct._ZSt6vectorIN8projects25FirehoseSpeciesParametersESaIS1_EE** %_T45627360_52243.addr, align 8, !tbaa !3978
	call void @llvm.dbg.declare (metadata %struct._ZSt6vectorIN8projects25FirehoseSpeciesParametersESaIS1_EE** %_T45627360_52243.addr, metadata !6606, metadata !3970), !dbg !6598
	%0 = load %struct._ZSt6vectorIN8projects25FirehoseSpeciesParametersESaIS1_EE*, %struct._ZSt6vectorIN8projects25FirehoseSpeciesParametersESaIS1_EE** %_T45627360_52243.addr, align 8, !tbaa !3978, !dbg !6607
	%1 = bitcast %struct._ZSt6vectorIN8projects25FirehoseSpeciesParametersESaIS1_EE*  %0 to i8*, !dbg !6607
	%2 = bitcast %struct._ZSaIN8projects25FirehoseSpeciesParametersEE** %..inline.addr to i8**, !dbg !6607
	store i8*  %1, i8**  %2, align 8, !tbaa !3978, !dbg !6607
	%3 = load %struct._ZSaIN8projects25FirehoseSpeciesParametersEE*, %struct._ZSaIN8projects25FirehoseSpeciesParametersEE** %..inline.addr, align 8, !tbaa !3978, !dbg !6608
	%4 = call i64  @_ZNSt6vectorIN8projects25FirehoseSpeciesParametersESaIS1_EE11_S_max_sizeERKS2_ (%struct._ZSaIN8projects25FirehoseSpeciesParametersEE*  %3) nounwind, !dbg !6608
	ret i64  %4, !dbg !6607
}
define linkonce_odr %struct._ZN8projects25FirehoseSpeciesParametersE* @_ZNKSt6vectorIN8projects25FirehoseSpeciesParametersESaIS1_EEixEm(%struct._ZSt6vectorIN8projects25FirehoseSpeciesParametersESaIS1_EE* %_T45627360_52246.arg, i64 %__n.arg) #0 inlinehint !dbg !6612 {
L.entry:
	%_T45627360_52246.addr = alloca %struct._ZSt6vectorIN8projects25FirehoseSpeciesParametersESaIS1_EE*, align 8
	%__n.addr = alloca i64, align 8

	call void @llvm.dbg.declare (metadata %struct._ZSt6vectorIN8projects25FirehoseSpeciesParametersESaIS1_EE** %_T45627360_52246.addr, metadata !6616, metadata !3970), !dbg !6613
	store %struct._ZSt6vectorIN8projects25FirehoseSpeciesParametersESaIS1_EE* %_T45627360_52246.arg, %struct._ZSt6vectorIN8projects25FirehoseSpeciesParametersESaIS1_EE** %_T45627360_52246.addr, align 8, !tbaa !3978
	call void @llvm.dbg.declare (metadata %struct._ZSt6vectorIN8projects25FirehoseSpeciesParametersESaIS1_EE** %_T45627360_52246.addr, metadata !6617, metadata !3970), !dbg !6613
	call void @llvm.dbg.declare (metadata i64* %__n.addr, metadata !6618, metadata !3970), !dbg !6613
	store i64 %__n.arg, i64* %__n.addr, align 8, !tbaa !3977
	call void @llvm.dbg.declare (metadata i64* %__n.addr, metadata !6619, metadata !3970), !dbg !6613
	%0 = load %struct._ZSt6vectorIN8projects25FirehoseSpeciesParametersESaIS1_EE*, %struct._ZSt6vectorIN8projects25FirehoseSpeciesParametersESaIS1_EE** %_T45627360_52246.addr, align 8, !tbaa !3978, !dbg !6620
	%1 = bitcast %struct._ZSt6vectorIN8projects25FirehoseSpeciesParametersESaIS1_EE*  %0 to i8**, !dbg !6620
	%2 = load i8*, i8**  %1, align 8, !tbaa !3978, !dbg !6620
	%3 = load i64, i64* %__n.addr, align 8, !tbaa !4405, !dbg !6620
	%4 = mul i64  %3, 120, !dbg !6620
	%5 = getelementptr i8, i8*  %2, i64  %4, !dbg !6620
	%6 = bitcast i8*  %5 to %struct._ZN8projects25FirehoseSpeciesParametersE*, !dbg !6620
	ret %struct._ZN8projects25FirehoseSpeciesParametersE*  %6, !dbg !6620
}
define linkonce_odr void @_ZNSt6vectorIN8projects25FirehoseSpeciesParametersESaIS1_EE9push_backERKS1_(%struct._ZSt6vectorIN8projects25FirehoseSpeciesParametersESaIS1_EE* %_T45627360_52247.arg, %struct._ZN8projects25FirehoseSpeciesParametersE* %__x.arg) #0 inlinehint !dbg !6625 {
L.entry:
	%_T45627360_52247.addr = alloca %struct._ZSt6vectorIN8projects25FirehoseSpeciesParametersESaIS1_EE*, align 8
	%__x.addr = alloca %struct._ZN8projects25FirehoseSpeciesParametersE*, align 8
	%..inline.addr = alloca %struct._ZN9__gnu_cxx17__normal_iteratorIPN8projects25FirehoseSpeciesParametersESt6vectorIS2_SaIS2_EEEE, align 8

	call void @llvm.dbg.declare (metadata %struct._ZSt6vectorIN8projects25FirehoseSpeciesParametersESaIS1_EE** %_T45627360_52247.addr, metadata !6657, metadata !3970), !dbg !6626
	store %struct._ZSt6vectorIN8projects25FirehoseSpeciesParametersESaIS1_EE* %_T45627360_52247.arg, %struct._ZSt6vectorIN8projects25FirehoseSpeciesParametersESaIS1_EE** %_T45627360_52247.addr, align 8, !tbaa !3978
	call void @llvm.dbg.declare (metadata %struct._ZSt6vectorIN8projects25FirehoseSpeciesParametersESaIS1_EE** %_T45627360_52247.addr, metadata !6658, metadata !3970), !dbg !6626
	call void @llvm.dbg.declare (metadata %struct._ZN8projects25FirehoseSpeciesParametersE** %__x.addr, metadata !6659, metadata !3970), !dbg !6626
	store %struct._ZN8projects25FirehoseSpeciesParametersE* %__x.arg, %struct._ZN8projects25FirehoseSpeciesParametersE** %__x.addr, align 8, !tbaa !3978
	call void @llvm.dbg.declare (metadata %struct._ZN8projects25FirehoseSpeciesParametersE** %__x.addr, metadata !6660, metadata !3970), !dbg !6626
	%0 = load %struct._ZSt6vectorIN8projects25FirehoseSpeciesParametersESaIS1_EE*, %struct._ZSt6vectorIN8projects25FirehoseSpeciesParametersESaIS1_EE** %_T45627360_52247.addr, align 8, !tbaa !3978, !dbg !6661
	%1 = bitcast %struct._ZSt6vectorIN8projects25FirehoseSpeciesParametersESaIS1_EE*  %0 to i8*, !dbg !6661
	%2 = getelementptr i8, i8*  %1, i64 8, !dbg !6661
	%3 = bitcast i8*  %2 to i8**, !dbg !6661
	%4 = load i8*, i8**  %3, align 8, !tbaa !3978, !dbg !6661
	%5 = getelementptr i8, i8*  %1, i64 16, !dbg !6661
	%6 = bitcast i8*  %5 to i8**, !dbg !6661
	%7 = load i8*, i8**  %6, align 8, !tbaa !3978, !dbg !6661
	%8 = icmp eq i8*  %4,  %7, !dbg !6661
	br i1  %8, label %L.B0012, label %L.B1462, !dbg !6661
L.B1462:
	%9 = bitcast %struct._ZSt6vectorIN8projects25FirehoseSpeciesParametersESaIS1_EE*  %0 to i8*, !dbg !6662
	%10 = getelementptr i8, i8*  %9, i64 8, !dbg !6662
	%11 = bitcast i8*  %10 to i8**, !dbg !6662
	%12 = load i8*, i8**  %11, align 8, !tbaa !3978, !dbg !6662
	%13 = icmp eq i8*  %12,  null, !dbg !6662
	br i1  %13, label %L..inline.72501, label %L.B1463, !dbg !6662
L.B1463:
	%14 = load %struct._ZN8projects25FirehoseSpeciesParametersE*, %struct._ZN8projects25FirehoseSpeciesParametersE** %__x.addr, align 8, !tbaa !3978, !dbg !6663
	%15 = bitcast %struct._ZN8projects25FirehoseSpeciesParametersE*  %14 to i8*, !dbg !6663
	%16 = bitcast %struct._ZSt6vectorIN8projects25FirehoseSpeciesParametersESaIS1_EE*  %0 to i8*, !dbg !6663
	%17 = getelementptr i8, i8*  %16, i64 8, !dbg !6663
	%18 = bitcast i8*  %17 to i8**, !dbg !6663
	%19 = load i8*, i8**  %18, align 8, !tbaa !3978, !dbg !6663
	call void @llvm.memcpy.p0i8.p0i8.i64 (i8*  %19, i8*  %15, i64 120, i32 8, i1 0), !dbg !6663
	br label %L..inline.72510, !dbg !6662
L..inline.72501:
	br label %L..inline.72510
L..inline.72510:
	%20 = load %struct._ZSt6vectorIN8projects25FirehoseSpeciesParametersESaIS1_EE*, %struct._ZSt6vectorIN8projects25FirehoseSpeciesParametersESaIS1_EE** %_T45627360_52247.addr, align 8, !tbaa !3978, !dbg !6664
	%21 = bitcast %struct._ZSt6vectorIN8projects25FirehoseSpeciesParametersESaIS1_EE*  %20 to i8*, !dbg !6664
	%22 = getelementptr i8, i8*  %21, i64 8, !dbg !6664
	%23 = bitcast i8*  %22 to i8**, !dbg !6664
	%24 = load i8*, i8**  %23, align 8, !tbaa !3978, !dbg !6664
	%25 = getelementptr i8, i8*  %24, i64 120, !dbg !6664
	store i8*  %25, i8**  %23, align 8, !tbaa !3978, !dbg !6664
	br label %L.B0013, !dbg !6665
L.B0012:
	%26 = load %struct._ZSt6vectorIN8projects25FirehoseSpeciesParametersESaIS1_EE*, %struct._ZSt6vectorIN8projects25FirehoseSpeciesParametersESaIS1_EE** %_T45627360_52247.addr, align 8, !tbaa !3978, !dbg !6666
	%27 = bitcast %struct._ZSt6vectorIN8projects25FirehoseSpeciesParametersESaIS1_EE*  %26 to i8*, !dbg !6666
	%28 = getelementptr i8, i8*  %27, i64 8, !dbg !6666
	%29 = bitcast i8*  %28 to i8**, !dbg !6666
	%30 = load i8*, i8**  %29, align 8, !tbaa !3978, !dbg !6666
	%31 = bitcast %struct._ZN9__gnu_cxx17__normal_iteratorIPN8projects25FirehoseSpeciesParametersESt6vectorIS2_SaIS2_EEEE* %..inline.addr to i8**, !dbg !6666
	store i8*  %30, i8**  %31, align 8, !tbaa !3978, !dbg !6666
	%32 = bitcast %struct._ZN9__gnu_cxx17__normal_iteratorIPN8projects25FirehoseSpeciesParametersESt6vectorIS2_SaIS2_EEEE* %..inline.addr to i64*, !dbg !6666
	%33 = load i64, i64*  %32, align 8, !tbaa !3977, !dbg !6666
	%34 = load %struct._ZN8projects25FirehoseSpeciesParametersE*, %struct._ZN8projects25FirehoseSpeciesParametersE** %__x.addr, align 8, !tbaa !3978, !dbg !6666
	call void  @_ZNSt6vectorIN8projects25FirehoseSpeciesParametersESaIS1_EE17_M_realloc_insertIJRKS1_EEEvN9__gnu_cxx17__normal_iteratorIPS1_S3_EEDpOT_ (%struct._ZSt6vectorIN8projects25FirehoseSpeciesParametersESaIS1_EE*  %26, i64  %33, %struct._ZN8projects25FirehoseSpeciesParametersE*  %34), !dbg !6666
	br label %L.B0013
L.B0013:
	ret void, !dbg !6663
}
define linkonce_odr i64 @_ZNKSt6vectorIN8projects25FirehoseSpeciesParametersESaIS1_EE12_M_check_lenEmPKc(%struct._ZSt6vectorIN8projects25FirehoseSpeciesParametersESaIS1_EE* %_T45627360_52250.arg, i64 %__n.arg, i8* %__s.arg) #0 inlinehint !dbg !6670 {
L.entry:
	%_T45627360_52250.addr = alloca %struct._ZSt6vectorIN8projects25FirehoseSpeciesParametersESaIS1_EE*, align 8
	%__n.addr = alloca i64, align 8
	%__s.addr = alloca i8*, align 8
	%..inline.addr = alloca %struct._ZSaIN8projects25FirehoseSpeciesParametersEE*, align 8
	%..inline.addr.1 = alloca i64, align 8
	%..inline.addr.2 = alloca i64, align 8
	%..inline.addr.3 = alloca i64, align 8
	%_T45628840_52250.addr = alloca i64, align 8
	%..inline.addr.4 = alloca i64, align 8
	%..inline.addr.5 = alloca i64*, align 8
	%__len.addr = alloca i64, align 8
	%..inline.addr.6 = alloca i64, align 8
	%..inline.addr.7 = alloca %struct._ZSaIN8projects25FirehoseSpeciesParametersEE*, align 8
	%..inline.addr.8 = alloca i64, align 8
	%..inline.addr.9 = alloca %struct._ZSaIN8projects25FirehoseSpeciesParametersEE*, align 8
	%..inline.addr.180 = alloca i64, align 8
	%.I0007.addr = alloca i64, align 8

	call void @llvm.dbg.declare (metadata %struct._ZSt6vectorIN8projects25FirehoseSpeciesParametersESaIS1_EE** %_T45627360_52250.addr, metadata !6718, metadata !3970), !dbg !6671
	store %struct._ZSt6vectorIN8projects25FirehoseSpeciesParametersESaIS1_EE* %_T45627360_52250.arg, %struct._ZSt6vectorIN8projects25FirehoseSpeciesParametersESaIS1_EE** %_T45627360_52250.addr, align 8, !tbaa !3978
	call void @llvm.dbg.declare (metadata %struct._ZSt6vectorIN8projects25FirehoseSpeciesParametersESaIS1_EE** %_T45627360_52250.addr, metadata !6719, metadata !3970), !dbg !6671
	call void @llvm.dbg.declare (metadata i64* %__n.addr, metadata !6720, metadata !3970), !dbg !6671
	store i64 %__n.arg, i64* %__n.addr, align 8, !tbaa !3977
	call void @llvm.dbg.declare (metadata i64* %__n.addr, metadata !6721, metadata !3970), !dbg !6671
	call void @llvm.dbg.declare (metadata i8** %__s.addr, metadata !6722, metadata !3970), !dbg !6671
	store i8* %__s.arg, i8** %__s.addr, align 8, !tbaa !3978
	call void @llvm.dbg.declare (metadata i8** %__s.addr, metadata !6723, metadata !3970), !dbg !6671
	%0 = load %struct._ZSt6vectorIN8projects25FirehoseSpeciesParametersESaIS1_EE*, %struct._ZSt6vectorIN8projects25FirehoseSpeciesParametersESaIS1_EE** %_T45627360_52250.addr, align 8, !tbaa !3978, !dbg !6724
	%1 = bitcast %struct._ZSt6vectorIN8projects25FirehoseSpeciesParametersESaIS1_EE*  %0 to i8*, !dbg !6724
	%2 = bitcast %struct._ZSaIN8projects25FirehoseSpeciesParametersEE** %..inline.addr to i8**, !dbg !6724
	store i8*  %1, i8**  %2, align 8, !tbaa !3978, !dbg !6724
	%3 = load %struct._ZSaIN8projects25FirehoseSpeciesParametersEE*, %struct._ZSaIN8projects25FirehoseSpeciesParametersEE** %..inline.addr, align 8, !tbaa !3978, !dbg !6724
	%4 = call i64  @_ZNSt6vectorIN8projects25FirehoseSpeciesParametersESaIS1_EE11_S_max_sizeERKS2_ (%struct._ZSaIN8projects25FirehoseSpeciesParametersEE*  %3) nounwind, !dbg !6724
	%5 = load %struct._ZSt6vectorIN8projects25FirehoseSpeciesParametersESaIS1_EE*, %struct._ZSt6vectorIN8projects25FirehoseSpeciesParametersESaIS1_EE** %_T45627360_52250.addr, align 8, !tbaa !3978, !dbg !6725
	%6 = bitcast %struct._ZSt6vectorIN8projects25FirehoseSpeciesParametersESaIS1_EE*  %5 to i8*, !dbg !6725
	%7 = getelementptr i8, i8*  %6, i64 8, !dbg !6725
	%8 = bitcast i8*  %7 to i8**, !dbg !6725
	%9 = load i8*, i8**  %8, align 8, !tbaa !3978, !dbg !6725
	%10 = bitcast %struct._ZSt6vectorIN8projects25FirehoseSpeciesParametersESaIS1_EE*  %5 to i8**, !dbg !6725
	%11 = load i8*, i8**  %10, align 8, !tbaa !3978, !dbg !6725
	%12 = ptrtoint i8*  %11 to i64, !dbg !6725
	%13 = sub i64 0,  %12, !dbg !6725
	%14 = getelementptr i8, i8*  %9, i64  %13, !dbg !6725
	%15 = ptrtoint i8*  %14 to i64, !dbg !6725
	%16 = sub i64 0,  %12, !dbg !6725
	%17 = getelementptr i8, i8*  %9, i64  %16, !dbg !6725
	%18 = ptrtoint i8*  %17 to i64, !dbg !6725
	%19 = sext i64 -8608480567731124087 to i128, !dbg !6725
	%20 = sext i64  %18 to i128, !dbg !6725
	%21 = mul i128  %19,  %20, !dbg !6725
	%22 = ashr i128  %21, 64, !dbg !6725
	%23 = trunc i128  %22 to i64, !dbg !6725
	%24 = add i64  %15,  %23, !dbg !6725
	%25 = sext i32 6 to i64, !dbg !6725
	%26 = ashr i64  %24,  %25, !dbg !6725
	%27 = sub i64 0,  %12, !dbg !6725
	%28 = getelementptr i8, i8*  %9, i64  %27, !dbg !6725
	%29 = ptrtoint i8*  %28 to i64, !dbg !6725
	%30 = sext i32 63 to i64, !dbg !6725
	%31 = ashr i64  %29,  %30, !dbg !6725
	%32 = sub i64  %26,  %31, !dbg !6725
	%33 = sub i64  %4,  %32, !dbg !6726
	%34 = load i64, i64* %__n.addr, align 8, !tbaa !4405, !dbg !6726
	%35 = icmp uge i64  %33,  %34, !dbg !6726
	br i1  %35, label %L.B0014, label %L.B1480, !dbg !6726
L.B1480:
	%36 = load i8*, i8** %__s.addr, align 8, !tbaa !3978, !dbg !6727
	call void  @_ZSt20__throw_length_errorPKc (i8*  %36) noreturn, !dbg !6727
	br label %L.B0014
L.B0014:
	%37 = load %struct._ZSt6vectorIN8projects25FirehoseSpeciesParametersESaIS1_EE*, %struct._ZSt6vectorIN8projects25FirehoseSpeciesParametersESaIS1_EE** %_T45627360_52250.addr, align 8, !tbaa !3978, !dbg !6728
	%38 = bitcast %struct._ZSt6vectorIN8projects25FirehoseSpeciesParametersESaIS1_EE*  %37 to i8*, !dbg !6728
	%39 = getelementptr i8, i8*  %38, i64 8, !dbg !6728
	%40 = bitcast i8*  %39 to i8**, !dbg !6728
	%41 = load i8*, i8**  %40, align 8, !tbaa !3978, !dbg !6728
	%42 = bitcast %struct._ZSt6vectorIN8projects25FirehoseSpeciesParametersESaIS1_EE*  %37 to i8**, !dbg !6728
	%43 = load i8*, i8**  %42, align 8, !tbaa !3978, !dbg !6728
	%44 = ptrtoint i8*  %43 to i64, !dbg !6728
	%45 = sub i64 0,  %44, !dbg !6728
	%46 = getelementptr i8, i8*  %41, i64  %45, !dbg !6728
	%47 = ptrtoint i8*  %46 to i64, !dbg !6728
	%48 = sub i64 0,  %44, !dbg !6728
	%49 = getelementptr i8, i8*  %41, i64  %48, !dbg !6728
	%50 = ptrtoint i8*  %49 to i64, !dbg !6728
	%51 = sext i64 -8608480567731124087 to i128, !dbg !6728
	%52 = sext i64  %50 to i128, !dbg !6728
	%53 = mul i128  %51,  %52, !dbg !6728
	%54 = ashr i128  %53, 64, !dbg !6728
	%55 = trunc i128  %54 to i64, !dbg !6728
	%56 = add i64  %47,  %55, !dbg !6728
	%57 = sext i32 6 to i64, !dbg !6728
	%58 = ashr i64  %56,  %57, !dbg !6728
	%59 = sub i64 0,  %44, !dbg !6728
	%60 = getelementptr i8, i8*  %41, i64  %59, !dbg !6728
	%61 = ptrtoint i8*  %60 to i64, !dbg !6728
	%62 = sext i32 63 to i64, !dbg !6728
	%63 = ashr i64  %61,  %62, !dbg !6728
	%64 = sub i64  %58,  %63, !dbg !6728
	store i64  %64, i64* %_T45628840_52250.addr, align 8, !tbaa !4405, !dbg !6726
	%65 = sub i64 0,  %44, !dbg !6728
	%66 = getelementptr i8, i8*  %41, i64  %65, !dbg !6728
	%67 = ptrtoint i8*  %66 to i64, !dbg !6728
	%68 = sub i64 0,  %44, !dbg !6728
	%69 = getelementptr i8, i8*  %41, i64  %68, !dbg !6728
	%70 = ptrtoint i8*  %69 to i64, !dbg !6728
	%71 = sext i64 -8608480567731124087 to i128, !dbg !6728
	%72 = sext i64  %70 to i128, !dbg !6728
	%73 = mul i128  %71,  %72, !dbg !6728
	%74 = ashr i128  %73, 64, !dbg !6728
	%75 = trunc i128  %74 to i64, !dbg !6728
	%76 = add i64  %67,  %75, !dbg !6728
	%77 = sext i32 6 to i64, !dbg !6728
	%78 = ashr i64  %76,  %77, !dbg !6728
	%79 = sub i64 0,  %44, !dbg !6728
	%80 = getelementptr i8, i8*  %41, i64  %79, !dbg !6728
	%81 = ptrtoint i8*  %80 to i64, !dbg !6728
	%82 = sext i32 63 to i64, !dbg !6728
	%83 = ashr i64  %81,  %82, !dbg !6728
	%84 = sub i64  %78,  %83, !dbg !6728
	store i64  %84, i64* %..inline.addr.4, align 8, !tbaa !4405, !dbg !6728
	%85 = load i64, i64* %__n.addr, align 8, !tbaa !4405, !dbg !6726
	%86 = icmp uge i64  %64,  %85, !dbg !6726
	%87 = zext i1  %86 to i32, !dbg !6726
	%88 = trunc i32  %87 to i1, !dbg !6726
	%89 = bitcast i64* %_T45628840_52250.addr to i8*, !dbg !6726
	%90 = bitcast i64* %__n.addr to i8*, !dbg !6726
	%91 = select i1  %88, i8*  %89, i8*  %90, !dbg !6726
	%92 = bitcast i64** %..inline.addr.5 to i8**, !dbg !6726
	store i8*  %91, i8**  %92, align 8, !tbaa !3978, !dbg !6726
	%93 = load i64*, i64** %..inline.addr.5, align 8, !tbaa !3978, !dbg !6729
	%94 = load i64, i64*  %93, align 8, !tbaa !3977, !dbg !6729
	%95 = add i64  %84,  %94, !dbg !6729
	call void @llvm.dbg.declare (metadata i64* %__len.addr, metadata !6730, metadata !3970), !dbg !6671
	store i64  %95, i64* %__len.addr, align 8, !tbaa !4405, !dbg !6729
	%96 = load %struct._ZSt6vectorIN8projects25FirehoseSpeciesParametersESaIS1_EE*, %struct._ZSt6vectorIN8projects25FirehoseSpeciesParametersESaIS1_EE** %_T45627360_52250.addr, align 8, !tbaa !3978, !dbg !6731
	%97 = bitcast %struct._ZSt6vectorIN8projects25FirehoseSpeciesParametersESaIS1_EE*  %96 to i8*, !dbg !6731
	%98 = getelementptr i8, i8*  %97, i64 8, !dbg !6731
	%99 = bitcast i8*  %98 to i8**, !dbg !6731
	%100 = load i8*, i8**  %99, align 8, !tbaa !3978, !dbg !6731
	%101 = bitcast %struct._ZSt6vectorIN8projects25FirehoseSpeciesParametersESaIS1_EE*  %96 to i8**, !dbg !6731
	%102 = load i8*, i8**  %101, align 8, !tbaa !3978, !dbg !6731
	%103 = ptrtoint i8*  %102 to i64, !dbg !6731
	%104 = sub i64 0,  %103, !dbg !6731
	%105 = getelementptr i8, i8*  %100, i64  %104, !dbg !6731
	%106 = ptrtoint i8*  %105 to i64, !dbg !6731
	%107 = sub i64 0,  %103, !dbg !6731
	%108 = getelementptr i8, i8*  %100, i64  %107, !dbg !6731
	%109 = ptrtoint i8*  %108 to i64, !dbg !6731
	%110 = sext i64 -8608480567731124087 to i128, !dbg !6731
	%111 = sext i64  %109 to i128, !dbg !6731
	%112 = mul i128  %110,  %111, !dbg !6731
	%113 = ashr i128  %112, 64, !dbg !6731
	%114 = trunc i128  %113 to i64, !dbg !6731
	%115 = add i64  %106,  %114, !dbg !6731
	%116 = sext i32 6 to i64, !dbg !6731
	%117 = ashr i64  %115,  %116, !dbg !6731
	%118 = sub i64 0,  %103, !dbg !6731
	%119 = getelementptr i8, i8*  %100, i64  %118, !dbg !6731
	%120 = ptrtoint i8*  %119 to i64, !dbg !6731
	%121 = sext i32 63 to i64, !dbg !6731
	%122 = ashr i64  %120,  %121, !dbg !6731
	%123 = sub i64  %117,  %122, !dbg !6731
	%124 = load i64, i64* %..inline.addr.4, align 8, !tbaa !4405, !dbg !6726
	%125 = load i64*, i64** %..inline.addr.5, align 8, !tbaa !3978, !dbg !6726
	%126 = load i64, i64*  %125, align 8, !tbaa !3977, !dbg !6726
	%127 = add i64  %124,  %126, !dbg !6726
	%128 = icmp ult i64  %127,  %123, !dbg !6726
	br i1  %128, label %L.B0017, label %L.B1481, !dbg !6726
L.B1481:
	%129 = bitcast %struct._ZSt6vectorIN8projects25FirehoseSpeciesParametersESaIS1_EE*  %96 to i8*, !dbg !6724
	%130 = bitcast %struct._ZSaIN8projects25FirehoseSpeciesParametersEE** %..inline.addr.7 to i8**, !dbg !6724
	store i8*  %129, i8**  %130, align 8, !tbaa !3978, !dbg !6724
	%131 = load %struct._ZSaIN8projects25FirehoseSpeciesParametersEE*, %struct._ZSaIN8projects25FirehoseSpeciesParametersEE** %..inline.addr.7, align 8, !tbaa !3978, !dbg !6724
	%132 = call i64  @_ZNSt6vectorIN8projects25FirehoseSpeciesParametersESaIS1_EE11_S_max_sizeERKS2_ (%struct._ZSaIN8projects25FirehoseSpeciesParametersEE*  %131) nounwind, !dbg !6724
	%133 = load i64, i64* %__len.addr, align 8, !tbaa !4405, !dbg !6724
	%134 = icmp ule i64  %133,  %132, !dbg !6724
	br i1  %134, label %L.B0015, label %L.B0017, !dbg !6724
L.B0017:
	%135 = load %struct._ZSt6vectorIN8projects25FirehoseSpeciesParametersESaIS1_EE*, %struct._ZSt6vectorIN8projects25FirehoseSpeciesParametersESaIS1_EE** %_T45627360_52250.addr, align 8, !tbaa !3978, !dbg !6724
	%136 = bitcast %struct._ZSt6vectorIN8projects25FirehoseSpeciesParametersESaIS1_EE*  %135 to i8*, !dbg !6724
	%137 = bitcast %struct._ZSaIN8projects25FirehoseSpeciesParametersEE** %..inline.addr.9 to i8**, !dbg !6724
	store i8*  %136, i8**  %137, align 8, !tbaa !3978, !dbg !6724
	%138 = load %struct._ZSaIN8projects25FirehoseSpeciesParametersEE*, %struct._ZSaIN8projects25FirehoseSpeciesParametersEE** %..inline.addr.9, align 8, !tbaa !3978, !dbg !6724
	%139 = call i64  @_ZNSt6vectorIN8projects25FirehoseSpeciesParametersESaIS1_EE11_S_max_sizeERKS2_ (%struct._ZSaIN8projects25FirehoseSpeciesParametersEE*  %138) nounwind, !dbg !6724
	store i64  %139, i64* %.I0007.addr, align 8, !tbaa !4405, !dbg !6724
	br label %L.B0016, !dbg !6731
L.B0015:
	%140 = load i64, i64* %__len.addr, align 8, !tbaa !4405, !dbg !6731
	store i64  %140, i64* %.I0007.addr, align 8, !tbaa !4405, !dbg !6731
	br label %L.B0016
L.B0016:
	%141 = load i64, i64* %.I0007.addr, align 8, !tbaa !4405, !dbg !6731
	ret i64  %141, !dbg !6731
}
define linkonce_odr i64 @_ZNSt6vectorIN8projects25FirehoseSpeciesParametersESaIS1_EE11_S_max_sizeERKS2_(%struct._ZSaIN8projects25FirehoseSpeciesParametersEE* %__a.arg) #0 inlinehint personality i8* bitcast (i32 (...)* @__gxx_personality_v0 to i8*) !dbg !6740 {
L.entry:
	%__a.addr = alloca %struct._ZSaIN8projects25FirehoseSpeciesParametersEE*, align 8

	call void @llvm.dbg.declare (metadata %struct._ZSaIN8projects25FirehoseSpeciesParametersEE** %__a.addr, metadata !6756, metadata !3970), !dbg !6741
	store %struct._ZSaIN8projects25FirehoseSpeciesParametersEE* %__a.arg, %struct._ZSaIN8projects25FirehoseSpeciesParametersEE** %__a.addr, align 8, !tbaa !3978
	call void @llvm.dbg.declare (metadata %struct._ZSaIN8projects25FirehoseSpeciesParametersEE** %__a.addr, metadata !6757, metadata !3970), !dbg !6741
	ret i64 76861433640456465, !dbg !6758
L.B1486:
	br label %L.R0119, !dbg !6758
L_T45629320_52252:
	%0 = landingpad %astruct.dt64
	cleanup
	br label %L.R0119
L.R0119:
	ret i64 0
}

%struct._ZN9__gnu_cxx13new_allocatorIN8projects25FirehoseSpeciesParametersEEE = type <{ [1 x i8]}> 

define linkonce_odr void @_ZNSt6vectorIN8projects25FirehoseSpeciesParametersESaIS1_EE17_M_realloc_insertIJRKS1_EEEvN9__gnu_cxx17__normal_iteratorIPS1_S3_EEDpOT_(%struct._ZSt6vectorIN8projects25FirehoseSpeciesParametersESaIS1_EE* %_T45627360_52254.arg, i64 %__position.coerce, %struct._ZN8projects25FirehoseSpeciesParametersE* %__args.arg) #0 inlinehint personality i8* bitcast (i32 (...)* @__gxx_personality_v0 to i8*) !dbg !6765 {
L.entry:
	%_T45627360_52254.addr = alloca %struct._ZSt6vectorIN8projects25FirehoseSpeciesParametersESaIS1_EE*, align 8
	%__position.addr = alloca %struct._ZN9__gnu_cxx17__normal_iteratorIPN8projects25FirehoseSpeciesParametersESt6vectorIS2_SaIS2_EEEE, align 8
	%__args.addr = alloca %struct._ZN8projects25FirehoseSpeciesParametersE*, align 8
	%..inline.addr = alloca %struct._ZSt6vectorIN8projects25FirehoseSpeciesParametersESaIS1_EE*, align 8
	%..inline.addr.1 = alloca i64, align 8
	%..inline.addr.2 = alloca i8*, align 8
	%..inline.addr.3 = alloca %struct._ZSt6vectorIN8projects25FirehoseSpeciesParametersESaIS1_EE*, align 8
	%..inline.addr.4 = alloca %struct._ZSt12_Vector_baseIN8projects25FirehoseSpeciesParametersESaIS1_EE*, align 8
	%..inline.addr.5 = alloca %struct._ZSaIN8projects25FirehoseSpeciesParametersEE*, align 8
	%..inline.addr.6 = alloca i64, align 8
	%..inline.addr.7 = alloca i64, align 8
	%..inline.addr.8 = alloca %struct._ZSt6vectorIN8projects25FirehoseSpeciesParametersESaIS1_EE*, align 8
	%..inline.addr.9 = alloca i64, align 8
	%..inline.addr.160 = alloca i64, align 8
	%..inline.addr.170 = alloca %struct._ZSt6vectorIN8projects25FirehoseSpeciesParametersESaIS1_EE*, align 8
	%..inline.addr.180 = alloca i64, align 8
	%..inline.addr.190 = alloca i64, align 8
	%..inline.addr.200 = alloca i64, align 8
	%..inline.addr.210 = alloca %struct._ZSt6vectorIN8projects25FirehoseSpeciesParametersESaIS1_EE*, align 8
	%..inline.addr.220 = alloca i64, align 8
	%..inline.addr.230 = alloca i64, align 8
	%..inline.addr.240 = alloca i64*, align 8
	%..inline.addr.250 = alloca i64, align 8
	%..inline.addr.260 = alloca %struct._ZSt6vectorIN8projects25FirehoseSpeciesParametersESaIS1_EE*, align 8
	%..inline.addr.270 = alloca i64, align 8
	%..inline.addr.280 = alloca i64, align 8
	%..inline.addr.290 = alloca %struct._ZSt6vectorIN8projects25FirehoseSpeciesParametersESaIS1_EE*, align 8
	%..inline.addr.300 = alloca %struct._ZSt12_Vector_baseIN8projects25FirehoseSpeciesParametersESaIS1_EE*, align 8
	%..inline.addr.310 = alloca %struct._ZSaIN8projects25FirehoseSpeciesParametersEE*, align 8
	%..inline.addr.320 = alloca i64, align 8
	%..inline.addr.330 = alloca i64, align 8
	%..inline.addr.340 = alloca %struct._ZSt6vectorIN8projects25FirehoseSpeciesParametersESaIS1_EE*, align 8
	%..inline.addr.350 = alloca %struct._ZSt12_Vector_baseIN8projects25FirehoseSpeciesParametersESaIS1_EE*, align 8
	%..inline.addr.360 = alloca %struct._ZSaIN8projects25FirehoseSpeciesParametersEE*, align 8
	%..inline.addr.370 = alloca i64, align 8
	%..inline.addr.380 = alloca i64, align 8
	%..inline.addr.390 = alloca i64, align 8
	%..inline.addr.400 = alloca i64, align 8
	%__len.addr = alloca i64, align 8
	%__old_start.addr = alloca %struct._ZN8projects25FirehoseSpeciesParametersE*, align 8
	%__old_finish.addr = alloca %struct._ZN8projects25FirehoseSpeciesParametersE*, align 8
	%..inline.addr.440 = alloca %struct._ZSt6vectorIN8projects25FirehoseSpeciesParametersESaIS1_EE*, align 8
	%..inline.addr.450 = alloca %struct._ZN8projects25FirehoseSpeciesParametersE**, align 8
	%..inline.addr.460 = alloca %struct._ZN9__gnu_cxx17__normal_iteratorIPN8projects25FirehoseSpeciesParametersESt6vectorIS2_SaIS2_EEEE, align 8
	%..inline.addr.470 = alloca %struct._ZN9__gnu_cxx17__normal_iteratorIPN8projects25FirehoseSpeciesParametersESt6vectorIS2_SaIS2_EEEE, align 8
	%_T45630024_52254.addr = alloca %struct._ZN9__gnu_cxx17__normal_iteratorIPN8projects25FirehoseSpeciesParametersESt6vectorIS2_SaIS2_EEEE, align 8
	%..inline.addr.490 = alloca %struct._ZN9__gnu_cxx17__normal_iteratorIPN8projects25FirehoseSpeciesParametersESt6vectorIS2_SaIS2_EEEE*, align 8
	%..inline.addr.500 = alloca %struct._ZN9__gnu_cxx17__normal_iteratorIPN8projects25FirehoseSpeciesParametersESt6vectorIS2_SaIS2_EEEE*, align 8
	%..inline.addr.510 = alloca i64, align 8
	%..inline.addr.520 = alloca i64, align 8
	%__elems_before.addr = alloca i64, align 8
	%..inline.addr.540 = alloca %struct._ZSt12_Vector_baseIN8projects25FirehoseSpeciesParametersESaIS1_EE*, align 8
	%..inline.addr.550 = alloca i64, align 8
	%..inline.addr.560 = alloca %struct._ZSaIN8projects25FirehoseSpeciesParametersEE*, align 8
	%..inline.addr.570 = alloca i64, align 8
	%..inline.addr.580 = alloca %struct._ZN9__gnu_cxx13new_allocatorIN8projects25FirehoseSpeciesParametersEEE*, align 8
	%..inline.addr.590 = alloca i64, align 8
	%..inline.addr.600 = alloca i64, align 8
	%.Q0012.addr = alloca i8*, align 8
	%..inline.addr.620 = alloca %struct._ZN8projects25FirehoseSpeciesParametersE*, align 8
	%__new_start.addr = alloca %struct._ZN8projects25FirehoseSpeciesParametersE*, align 8
	%__new_finish.addr = alloca %struct._ZN8projects25FirehoseSpeciesParametersE*, align 8
	%..inline.addr.650 = alloca %struct._ZN8projects25FirehoseSpeciesParametersE*, align 8
	%..inline.addr.660 = alloca %struct._ZN8projects25FirehoseSpeciesParametersE*, align 8
	%..inline.addr.670 = alloca %struct._ZSaIN8projects25FirehoseSpeciesParametersEE*, align 8
	%..inline.addr.680 = alloca %struct._ZN8projects25FirehoseSpeciesParametersE*, align 8
	%..inline.addr.690 = alloca %struct._ZN8projects25FirehoseSpeciesParametersE*, align 8
	%..inline.addr.700 = alloca %struct._ZN8projects25FirehoseSpeciesParametersE*, align 8
	%..inline.addr.710 = alloca %struct._ZN8projects25FirehoseSpeciesParametersE*, align 8
	%..inline.addr.720 = alloca %struct._ZN8projects25FirehoseSpeciesParametersE*, align 8
	%..inline.addr.730 = alloca %struct._ZN8projects25FirehoseSpeciesParametersE*, align 8
	%..inline.addr.740 = alloca i64, align 8
	%..inline.addr.750 = alloca i8*, align 8
	%..inline.addr.760 = alloca i8*, align 8
	%..inline.addr.770 = alloca i8*, align 8
	%..inline.addr.780 = alloca %struct._ZN8projects25FirehoseSpeciesParametersE*, align 8
	%..inline.addr.790 = alloca %struct._ZN8projects25FirehoseSpeciesParametersE*, align 8
	%..inline.addr.800 = alloca %struct._ZN8projects25FirehoseSpeciesParametersE*, align 8
	%..inline.addr.810 = alloca %struct._ZN8projects25FirehoseSpeciesParametersE*, align 8
	%..inline.addr.820 = alloca %struct._ZSt12_Vector_baseIN8projects25FirehoseSpeciesParametersESaIS1_EE*, align 8
	%..inline.addr.830 = alloca %struct._ZSaIN8projects25FirehoseSpeciesParametersEE*, align 8
	%..inline.addr.840 = alloca %struct._ZN8projects25FirehoseSpeciesParametersE*, align 8
	%..inline.addr.850 = alloca %struct._ZN8projects25FirehoseSpeciesParametersE*, align 8
	%..inline.addr.860 = alloca %struct._ZN8projects25FirehoseSpeciesParametersE*, align 8
	%..inline.addr.870 = alloca %struct._ZSaIN8projects25FirehoseSpeciesParametersEE*, align 8
	%..inline.addr.880 = alloca %struct._ZSt17integral_constantIbLb1EE, align 1
	%..inline.addr.890 = alloca %struct._ZN8projects25FirehoseSpeciesParametersE*, align 8
	%..inline.addr.900 = alloca %struct._ZN8projects25FirehoseSpeciesParametersE*, align 8
	%..inline.addr.910 = alloca %struct._ZN8projects25FirehoseSpeciesParametersE*, align 8
	%..inline.addr.920 = alloca %struct._ZSaIN8projects25FirehoseSpeciesParametersEE*, align 8
	%..inline.addr.930 = alloca %struct._ZSt17integral_constantIbLb1EE, align 1
	%..inline.addr.940 = alloca %struct._ZN8projects25FirehoseSpeciesParametersE*, align 8
	%..inline.addr.950 = alloca %struct._ZN8projects25FirehoseSpeciesParametersE*, align 8
	%..inline.addr.960 = alloca %struct._ZN8projects25FirehoseSpeciesParametersE*, align 8
	%..inline.addr.970 = alloca %struct._ZSaIN8projects25FirehoseSpeciesParametersEE*, align 8
	%..inline.addr.980 = alloca %struct._ZN8projects25FirehoseSpeciesParametersE*, align 8
	%..inline.addr.990 = alloca %struct._ZN8projects25FirehoseSpeciesParametersE*, align 8
	%..inline.addr.1000 = alloca %struct._ZN8projects25FirehoseSpeciesParametersE*, align 8
	%..inline.addr.1010 = alloca %struct._ZN8projects25FirehoseSpeciesParametersE*, align 8
	%..inline.addr.1020 = alloca %struct._ZN8projects25FirehoseSpeciesParametersE*, align 8
	%..inline.addr.1030 = alloca %struct._ZN8projects25FirehoseSpeciesParametersE*, align 8
	%..inline.addr.1040 = alloca %struct._ZN8projects25FirehoseSpeciesParametersE*, align 8
	%..inline.addr.1050 = alloca %struct._ZN8projects25FirehoseSpeciesParametersE*, align 8
	%..inline.addr.1060 = alloca %struct._ZN8projects25FirehoseSpeciesParametersE*, align 8
	%..inline.addr.1070 = alloca i64, align 8
	%..inline.addr.1080 = alloca %struct._ZN8projects25FirehoseSpeciesParametersE*, align 8
	%..inline.addr.1090 = alloca %struct._ZN8projects25FirehoseSpeciesParametersE*, align 8
	%..inline.addr.1100 = alloca %struct._ZN8projects25FirehoseSpeciesParametersE*, align 8
	%..inline.addr.1110 = alloca %struct._ZN8projects25FirehoseSpeciesParametersE*, align 8
	%..inline.addr.1120 = alloca %struct._ZSt12_Vector_baseIN8projects25FirehoseSpeciesParametersESaIS1_EE*, align 8
	%..inline.addr.1130 = alloca %struct._ZSaIN8projects25FirehoseSpeciesParametersEE*, align 8
	%..inline.addr.1140 = alloca %struct._ZN8projects25FirehoseSpeciesParametersE*, align 8
	%..inline.addr.1150 = alloca %struct._ZN8projects25FirehoseSpeciesParametersE*, align 8
	%..inline.addr.1160 = alloca %struct._ZN8projects25FirehoseSpeciesParametersE*, align 8
	%..inline.addr.1170 = alloca %struct._ZSaIN8projects25FirehoseSpeciesParametersEE*, align 8
	%..inline.addr.1180 = alloca %struct._ZSt17integral_constantIbLb1EE, align 1
	%..inline.addr.1190 = alloca %struct._ZN8projects25FirehoseSpeciesParametersE*, align 8
	%..inline.addr.1200 = alloca %struct._ZN8projects25FirehoseSpeciesParametersE*, align 8
	%..inline.addr.1210 = alloca %struct._ZN8projects25FirehoseSpeciesParametersE*, align 8
	%..inline.addr.1220 = alloca %struct._ZSaIN8projects25FirehoseSpeciesParametersEE*, align 8
	%..inline.addr.1230 = alloca %struct._ZSt17integral_constantIbLb1EE, align 1
	%..inline.addr.1240 = alloca %struct._ZN8projects25FirehoseSpeciesParametersE*, align 8
	%..inline.addr.1250 = alloca %struct._ZN8projects25FirehoseSpeciesParametersE*, align 8
	%..inline.addr.1260 = alloca %struct._ZN8projects25FirehoseSpeciesParametersE*, align 8
	%..inline.addr.1270 = alloca %struct._ZSaIN8projects25FirehoseSpeciesParametersEE*, align 8
	%..inline.addr.1280 = alloca %struct._ZN8projects25FirehoseSpeciesParametersE*, align 8
	%..inline.addr.1290 = alloca %struct._ZN8projects25FirehoseSpeciesParametersE*, align 8
	%..inline.addr.1300 = alloca %struct._ZN8projects25FirehoseSpeciesParametersE*, align 8
	%..inline.addr.1310 = alloca %struct._ZN8projects25FirehoseSpeciesParametersE*, align 8
	%..inline.addr.1320 = alloca %struct._ZN8projects25FirehoseSpeciesParametersE*, align 8
	%..inline.addr.1330 = alloca %struct._ZN8projects25FirehoseSpeciesParametersE*, align 8
	%..inline.addr.1340 = alloca %struct._ZN8projects25FirehoseSpeciesParametersE*, align 8
	%..inline.addr.1350 = alloca %struct._ZN8projects25FirehoseSpeciesParametersE*, align 8
	%..inline.addr.1360 = alloca %struct._ZN8projects25FirehoseSpeciesParametersE*, align 8
	%..inline.addr.1370 = alloca i64, align 8
	%..inline.addr.1380 = alloca %struct._ZN8projects25FirehoseSpeciesParametersE*, align 8
	%..inline.addr.1390 = alloca %struct._ZN8projects25FirehoseSpeciesParametersE*, align 8
	%..inline.addr.1400 = alloca %struct._ZN8projects25FirehoseSpeciesParametersE*, align 8
	%..inline.addr.1410 = alloca %struct._ZN8projects25FirehoseSpeciesParametersE*, align 8
	%..inline.addr.1420 = alloca %struct._ZSt12_Vector_baseIN8projects25FirehoseSpeciesParametersESaIS1_EE*, align 8
	%..inline.addr.1430 = alloca %struct._ZSaIN8projects25FirehoseSpeciesParametersEE*, align 8
	%..inline.addr.1440 = alloca %struct._ZSt12_Vector_baseIN8projects25FirehoseSpeciesParametersESaIS1_EE*, align 8
	%..inline.addr.1450 = alloca %struct._ZSaIN8projects25FirehoseSpeciesParametersEE*, align 8
	%..inline.addr.1460 = alloca %struct._ZSt12_Vector_baseIN8projects25FirehoseSpeciesParametersESaIS1_EE*, align 8
	%..inline.addr.1470 = alloca %struct._ZSaIN8projects25FirehoseSpeciesParametersEE*, align 8
	%..inline.addr.1480 = alloca %struct._ZN8projects25FirehoseSpeciesParametersE*, align 8
	%..inline.addr.1490 = alloca %struct._ZN8projects25FirehoseSpeciesParametersE*, align 8
	%..inline.addr.1500 = alloca %struct._ZN8projects25FirehoseSpeciesParametersE*, align 8
	%..inline.addr.1510 = alloca %struct._ZN8projects25FirehoseSpeciesParametersE*, align 8
	%..inline.addr.1520 = alloca %struct._ZSt12_Vector_baseIN8projects25FirehoseSpeciesParametersESaIS1_EE*, align 8
	%..inline.addr.1530 = alloca %struct._ZN8projects25FirehoseSpeciesParametersE*, align 8
	%..inline.addr.1540 = alloca i64, align 8
	%..inline.addr.1550 = alloca %struct._ZSaIN8projects25FirehoseSpeciesParametersEE*, align 8
	%..inline.addr.1560 = alloca %struct._ZN8projects25FirehoseSpeciesParametersE*, align 8
	%..inline.addr.1570 = alloca i64, align 8
	%..inline.addr.1580 = alloca %struct._ZN8projects25FirehoseSpeciesParametersE*, align 8
	%__caught_object_address.addr = alloca i8*, align 8
	%__catch_clause_number.addr = alloca i32, align 4
	%..inline.addr.1610 = alloca %struct._ZSaIN8projects25FirehoseSpeciesParametersEE*, align 8
	%..inline.addr.1620 = alloca %struct._ZN8projects25FirehoseSpeciesParametersE*, align 8
	%..inline.addr.1630 = alloca %struct._ZSt12_Vector_baseIN8projects25FirehoseSpeciesParametersESaIS1_EE*, align 8
	%..inline.addr.1640 = alloca %struct._ZSaIN8projects25FirehoseSpeciesParametersEE*, align 8
	%..inline.addr.1650 = alloca %struct._ZN8projects25FirehoseSpeciesParametersE*, align 8
	%..inline.addr.1660 = alloca %struct._ZN8projects25FirehoseSpeciesParametersE*, align 8
	%..inline.addr.1670 = alloca %struct._ZN8projects25FirehoseSpeciesParametersE*, align 8
	%..inline.addr.1680 = alloca %struct._ZN8projects25FirehoseSpeciesParametersE*, align 8
