	.text
	.file	"Firehose.ll"
	.file	1 "/home/talgat/vlasiator/projects/Firehose/Firehose.cpp"
	.weak	_ZN11T3DFunctionD1Ev    # -- Begin function _ZN11T3DFunctionD1Ev
	.p2align	4, 0x90
	.type	_ZN11T3DFunctionD1Ev,@function
_ZN11T3DFunctionD1Ev:                   # @_ZN11T3DFunctionD1Ev
.Lfunc_begin0:
	.file	2 "/home/talgat/vlasiator/projects/Firehose/../../backgroundfield/functions.hpp"
	.loc	2 31 0                  # projects/Firehose/../../backgroundfield/functions.hpp:31:0
	.cfi_startproc
# %bb.0:                                # %L.entry
	#DEBUG_VALUE: ~T3DFunction: <- $rdi
	#DEBUG_VALUE: ~T3DFunction: <- $rdi
	pushq	%rbp
	.cfi_def_cfa_offset 16
	.cfi_offset %rbp, -16
	movq	%rsp, %rbp
	.cfi_def_cfa_register %rbp
.Ltmp0:
	#DEBUG_VALUE:  <- $rdi
	#DEBUG_VALUE:  <- $rdi
	.loc	2 31 1 prologue_end     # projects/Firehose/../../backgroundfield/functions.hpp:31:1
	movq	$_ZTV11T3DFunction+16, (%rdi)
	popq	%rbp
	.cfi_def_cfa %rsp, 8
	retq
.Ltmp1:
.Lfunc_end0:
	.size	_ZN11T3DFunctionD1Ev, .Lfunc_end0-_ZN11T3DFunctionD1Ev
	.cfi_endproc
                                        # -- End function
	.weak	_ZN11T3DFunctionD0Ev    # -- Begin function _ZN11T3DFunctionD0Ev
	.p2align	4, 0x90
	.type	_ZN11T3DFunctionD0Ev,@function
_ZN11T3DFunctionD0Ev:                   # @_ZN11T3DFunctionD0Ev
.Lfunc_begin1:
	.loc	1 0 0                   # projects/Firehose/Firehose.cpp:0:0
	.cfi_startproc
# %bb.0:                                # %L.entry
	pushq	%rbp
	.cfi_def_cfa_offset 16
	.cfi_offset %rbp, -16
	movq	%rsp, %rbp
	.cfi_def_cfa_register %rbp
.Ltmp2:
	.loc	1 31 1 prologue_end     # projects/Firehose/Firehose.cpp:31:1
	movl	$8, %esi
	popq	%rbp
	.cfi_def_cfa %rsp, 8
	jmp	_ZdlPvm                 # TAILCALL
.Ltmp3:
.Lfunc_end1:
	.size	_ZN11T3DFunctionD0Ev, .Lfunc_end1-_ZN11T3DFunctionD0Ev
	.cfi_endproc
                                        # -- End function
	.weak	_ZN13FieldFunctionD1Ev  # -- Begin function _ZN13FieldFunctionD1Ev
	.p2align	4, 0x90
	.type	_ZN13FieldFunctionD1Ev,@function
_ZN13FieldFunctionD1Ev:                 # @_ZN13FieldFunctionD1Ev
.Lfunc_begin2:
	.file	3 "/home/talgat/vlasiator/projects/Firehose/../../backgroundfield/fieldfunction.hpp"
	.loc	3 0 0                   # projects/Firehose/../../backgroundfield/fieldfunction.hpp:0:0
	.cfi_startproc
# %bb.0:                                # %L.entry
	#DEBUG_VALUE: ~FieldFunction: <- $rdi
	#DEBUG_VALUE: ~FieldFunction: <- $rdi
	pushq	%rbp
	.cfi_def_cfa_offset 16
	.cfi_offset %rbp, -16
	movq	%rsp, %rbp
	.cfi_def_cfa_register %rbp
.Ltmp4:
	#DEBUG_VALUE:  <- $rdi
	#DEBUG_VALUE:  <- $rdi
	.loc	3 51 1 prologue_end     # projects/Firehose/../../backgroundfield/fieldfunction.hpp:51:1
	movq	$_ZTV11T3DFunction+16, (%rdi)
	.loc	3 31 1                  # projects/Firehose/../../backgroundfield/fieldfunction.hpp:31:1
	popq	%rbp
	.cfi_def_cfa %rsp, 8
	retq
.Ltmp5:
.Lfunc_end2:
	.size	_ZN13FieldFunctionD1Ev, .Lfunc_end2-_ZN13FieldFunctionD1Ev
	.cfi_endproc
                                        # -- End function
	.weak	_ZN13FieldFunctionD0Ev  # -- Begin function _ZN13FieldFunctionD0Ev
	.p2align	4, 0x90
	.type	_ZN13FieldFunctionD0Ev,@function
_ZN13FieldFunctionD0Ev:                 # @_ZN13FieldFunctionD0Ev
.Lfunc_begin3:
	.loc	1 0 0                   # projects/Firehose/Firehose.cpp:0:0
	.cfi_startproc
# %bb.0:                                # %L.entry
	pushq	%rbp
	.cfi_def_cfa_offset 16
	.cfi_offset %rbp, -16
	movq	%rsp, %rbp
	.cfi_def_cfa_register %rbp
.Ltmp6:
	.loc	1 31 1 prologue_end     # projects/Firehose/Firehose.cpp:31:1
	movl	$24, %esi
	popq	%rbp
	.cfi_def_cfa %rsp, 8
	jmp	_ZdlPvm                 # TAILCALL
.Ltmp7:
.Lfunc_end3:
	.size	_ZN13FieldFunctionD0Ev, .Lfunc_end3-_ZN13FieldFunctionD0Ev
	.cfi_endproc
                                        # -- End function
	.weak	_ZNSt6vectorIN5vmesh14MeshParametersESaIS1_EED1Ev # -- Begin function _ZNSt6vectorIN5vmesh14MeshParametersESaIS1_EED1Ev
	.p2align	4, 0x90
	.type	_ZNSt6vectorIN5vmesh14MeshParametersESaIS1_EED1Ev,@function
_ZNSt6vectorIN5vmesh14MeshParametersESaIS1_EED1Ev: # @_ZNSt6vectorIN5vmesh14MeshParametersESaIS1_EED1Ev
.Lfunc_begin4:
	.file	4 "/usr/include/c++/9/bits/stl_vector.h"
	.loc	4 676 0                 # /usr/include/c++/9/bits/stl_vector.h:676:0
	.cfi_startproc
# %bb.0:                                # %L.entry
	#DEBUG_VALUE: ~vector: <- $rdi
	#DEBUG_VALUE: ~vector: <- $rdi
	pushq	%rbp
	.cfi_def_cfa_offset 16
	.cfi_offset %rbp, -16
	movq	%rsp, %rbp
	.cfi_def_cfa_register %rbp
.Ltmp8:
	pushq	%r15
	pushq	%r14
	pushq	%rbx
	pushq	%rax
	.cfi_offset %rbx, -40
	.cfi_offset %r14, -32
	.cfi_offset %r15, -24
.Ltmp9:
	#DEBUG_VALUE:  <- $rdi
	#DEBUG_VALUE:  <- $rdi
	.loc	4 206 1 prologue_end    # /usr/include/c++/9/bits/stl_vector.h:206:1
	movq	(%rdi), %rbx
	movq	8(%rdi), %rsi
	cmpq	%rsi, %rbx
	je	.LBB4_14
.Ltmp10:
# %bb.1:                                # %L.B1381
	#DEBUG_VALUE:  <- $rdi
	#DEBUG_VALUE: ~vector: <- $rdi
	.loc	4 0 1 is_stmt 0         # /usr/include/c++/9/bits/stl_vector.h:0:1
	movq	%rdi, %r14
.Ltmp11:
	#DEBUG_VALUE: ~vector: <- $r14
	#DEBUG_VALUE:  <- $r14
	.loc	4 206 1                 # /usr/include/c++/9/bits/stl_vector.h:206:1
	subq	%rbx, %rsi
	leaq	335(%rsi), %rcx
	movabsq	$-4392081922311798003, %rdx # imm = 0xC30C30C30C30C30D
	movq	%rcx, %rax
	imulq	%rdx
	leaq	(%rsi,%rdx), %rax
	addq	$335, %rax              # imm = 0x14F
	sarq	$8, %rax
	sarq	$63, %rcx
	subq	%rcx, %rax
	imulq	$336, %rax, %r15        # imm = 0x150
	addq	%rbx, %r15
	jmp	.LBB4_2
.Ltmp12:
	.p2align	4, 0x90
.LBB4_12:                               # %_ZN5vmesh14MeshParametersD1Ev.exit
                                        #   in Loop: Header=BB4_2 Depth=1
	#DEBUG_VALUE:  <- $r14
	#DEBUG_VALUE: ~vector: <- $r14
	addq	$336, %rbx              # imm = 0x150
	cmpq	%r15, %rbx
	jae	.LBB4_13
.Ltmp13:
.LBB4_2:                                # %L..inline.71287
                                        # =>This Inner Loop Header: Depth=1
	#DEBUG_VALUE:  <- $r14
	#DEBUG_VALUE: ~vector: <- $r14
	#DEBUG_VALUE: ~MeshParameters: <- $rbx
	#DEBUG_VALUE:  <- $rbx
	.file	5 "/home/talgat/vlasiator/projects/Firehose/../../velocity_mesh_parameters.h"
	.loc	5 680 1 is_stmt 1       # projects/Firehose/../../velocity_mesh_parameters.h:680:1
	movq	312(%rbx), %rdi
	testq	%rdi, %rdi
	je	.LBB4_4
.Ltmp14:
# %bb.3:                                # %L.B1729.i
                                        #   in Loop: Header=BB4_2 Depth=1
	#DEBUG_VALUE:  <- $rbx
	#DEBUG_VALUE: ~MeshParameters: <- $rbx
	#DEBUG_VALUE:  <- $r14
	#DEBUG_VALUE: ~vector: <- $r14
	callq	_ZdlPv
.Ltmp15:
.LBB4_4:                                # %L..inline.75579.i
                                        #   in Loop: Header=BB4_2 Depth=1
	#DEBUG_VALUE:  <- $rbx
	#DEBUG_VALUE: ~MeshParameters: <- $rbx
	#DEBUG_VALUE:  <- $r14
	#DEBUG_VALUE: ~vector: <- $r14
	movq	288(%rbx), %rdi
	testq	%rdi, %rdi
	je	.LBB4_6
.Ltmp16:
# %bb.5:                                # %L.B1730.i
                                        #   in Loop: Header=BB4_2 Depth=1
	#DEBUG_VALUE:  <- $rbx
	#DEBUG_VALUE: ~MeshParameters: <- $rbx
	#DEBUG_VALUE:  <- $r14
	#DEBUG_VALUE: ~vector: <- $r14
	callq	_ZdlPv
.Ltmp17:
.LBB4_6:                                # %L..inline.75657.i
                                        #   in Loop: Header=BB4_2 Depth=1
	#DEBUG_VALUE:  <- $rbx
	#DEBUG_VALUE: ~MeshParameters: <- $rbx
	#DEBUG_VALUE:  <- $r14
	#DEBUG_VALUE: ~vector: <- $r14
	movq	264(%rbx), %rdi
	testq	%rdi, %rdi
	je	.LBB4_8
.Ltmp18:
# %bb.7:                                # %L.B1731.i
                                        #   in Loop: Header=BB4_2 Depth=1
	#DEBUG_VALUE:  <- $rbx
	#DEBUG_VALUE: ~MeshParameters: <- $rbx
	#DEBUG_VALUE:  <- $r14
	#DEBUG_VALUE: ~vector: <- $r14
	callq	_ZdlPv
.Ltmp19:
.LBB4_8:                                # %L..inline.75735.i
                                        #   in Loop: Header=BB4_2 Depth=1
	#DEBUG_VALUE:  <- $rbx
	#DEBUG_VALUE: ~MeshParameters: <- $rbx
	#DEBUG_VALUE:  <- $r14
	#DEBUG_VALUE: ~vector: <- $r14
	movq	240(%rbx), %rdi
	testq	%rdi, %rdi
	je	.LBB4_10
.Ltmp20:
# %bb.9:                                # %L.B1732.i
                                        #   in Loop: Header=BB4_2 Depth=1
	#DEBUG_VALUE:  <- $rbx
	#DEBUG_VALUE: ~MeshParameters: <- $rbx
	#DEBUG_VALUE:  <- $r14
	#DEBUG_VALUE: ~vector: <- $r14
	callq	_ZdlPv
.Ltmp21:
.LBB4_10:                               # %L..inline.75813.i
                                        #   in Loop: Header=BB4_2 Depth=1
	#DEBUG_VALUE:  <- $rbx
	#DEBUG_VALUE: ~MeshParameters: <- $rbx
	#DEBUG_VALUE:  <- $r14
	#DEBUG_VALUE: ~vector: <- $r14
	.loc	5 658 1                 # projects/Firehose/../../velocity_mesh_parameters.h:658:1
	movq	(%rbx), %rdi
	leaq	16(%rbx), %rax
	cmpq	%rdi, %rax
	je	.LBB4_12
.Ltmp22:
# %bb.11:                               # %L.B1733.i
                                        #   in Loop: Header=BB4_2 Depth=1
	#DEBUG_VALUE:  <- $rbx
	#DEBUG_VALUE: ~MeshParameters: <- $rbx
	#DEBUG_VALUE:  <- $r14
	#DEBUG_VALUE: ~vector: <- $r14
	callq	_ZdlPv
	jmp	.LBB4_12
.Ltmp23:
.LBB4_13:                               # %L..inline.71288thread-pre-split
	#DEBUG_VALUE:  <- $r14
	#DEBUG_VALUE: ~vector: <- $r14
	.loc	4 332 1                 # /usr/include/c++/9/bits/stl_vector.h:332:1
	movq	(%r14), %rbx
.Ltmp24:
.LBB4_14:                               # %L..inline.71288
	testq	%rbx, %rbx
	je	.LBB4_15
# %bb.16:                               # %L.B1382
	movq	%rbx, %rdi
	addq	$8, %rsp
	popq	%rbx
	popq	%r14
	popq	%r15
	popq	%rbp
	.cfi_def_cfa %rsp, 8
	jmp	_ZdlPv                  # TAILCALL
.LBB4_15:                               # %L..inline.71320
	.cfi_def_cfa %rbp, 16
	.loc	4 680 1                 # /usr/include/c++/9/bits/stl_vector.h:680:1
	addq	$8, %rsp
	popq	%rbx
	popq	%r14
	popq	%r15
	popq	%rbp
	.cfi_def_cfa %rsp, 8
	retq
.Ltmp25:
.Lfunc_end4:
	.size	_ZNSt6vectorIN5vmesh14MeshParametersESaIS1_EED1Ev, .Lfunc_end4-_ZNSt6vectorIN5vmesh14MeshParametersESaIS1_EED1Ev
	.cfi_endproc
                                        # -- End function
	.weak	_ZNSt6vectorIN8projects25FirehoseSpeciesParametersESaIS1_EE17_M_realloc_insertIJRKS1_EEEvN9__gnu_cxx17__normal_iteratorIPS1_S3_EEDpOT_ # -- Begin function _ZNSt6vectorIN8projects25FirehoseSpeciesParametersESaIS1_EE17_M_realloc_insertIJRKS1_EEEvN9__gnu_cxx17__normal_iteratorIPS1_S3_EEDpOT_
	.p2align	4, 0x90
	.type	_ZNSt6vectorIN8projects25FirehoseSpeciesParametersESaIS1_EE17_M_realloc_insertIJRKS1_EEEvN9__gnu_cxx17__normal_iteratorIPS1_S3_EEDpOT_,@function
_ZNSt6vectorIN8projects25FirehoseSpeciesParametersESaIS1_EE17_M_realloc_insertIJRKS1_EEEvN9__gnu_cxx17__normal_iteratorIPS1_S3_EEDpOT_: # @_ZNSt6vectorIN8projects25FirehoseSpeciesParametersESaIS1_EE17_M_realloc_insertIJRKS1_EEEvN9__gnu_cxx17__normal_iteratorIPS1_S3_EEDpOT_
.Lfunc_begin5:
	.file	6 "/usr/include/c++/9/bits/vector.tcc"
	.loc	6 434 0                 # /usr/include/c++/9/bits/vector.tcc:434:0
	.cfi_startproc
# %bb.0:                                # %L.entry
	#DEBUG_VALUE: _M_realloc_insert: <- $rdi
	#DEBUG_VALUE: _M_realloc_insert:__position <- $rsi
	#DEBUG_VALUE: _M_realloc_insert:__args <- $rdx
	pushq	%rbp
	.cfi_def_cfa_offset 16
	.cfi_offset %rbp, -16
	movq	%rsp, %rbp
	.cfi_def_cfa_register %rbp
	pushq	%r15
	pushq	%r14
	pushq	%r13
	pushq	%r12
	pushq	%rbx
	subq	$40, %rsp
	.cfi_offset %rbx, -56
	.cfi_offset %r12, -48
	.cfi_offset %r13, -40
	.cfi_offset %r14, -32
	.cfi_offset %r15, -24
	movq	%rdx, %r10
.Ltmp26:
	#DEBUG_VALUE: __args <- undef
	movabsq	$-8608480567731124087, %r14 # imm = 0x8888888888888889
.Ltmp27:
	#DEBUG_VALUE:  <- $rdi
	#DEBUG_VALUE: _M_realloc_insert:__args <- $r10
	#DEBUG_VALUE: _M_realloc_insert:__position <- $rsi
	#DEBUG_VALUE: _M_realloc_insert: <- $rdi
	.loc	6 1755 1 prologue_end   # /usr/include/c++/9/bits/vector.tcc:1755:1
	movq	(%rdi), %rbx
	movq	8(%rdi), %r8
	movq	%r8, %rcx
	subq	%rbx, %rcx
	movq	%rcx, %rax
	imulq	%r14
	movabsq	$76861433640456465, %rax # imm = 0x111111111111111
	addq	%rcx, %rdx
	sarq	$6, %rdx
	sarq	$63, %rcx
	subq	%rcx, %rdx
	cmpq	%rax, %rdx
	je	.LBB5_13
.Ltmp28:
# %bb.1:                                # %L..inline.72737
	#DEBUG_VALUE: _M_realloc_insert:__args <- $r10
	#DEBUG_VALUE:  <- $rdi
	#DEBUG_VALUE: _M_realloc_insert:__position <- $rsi
	#DEBUG_VALUE: _M_realloc_insert: <- $rdi
	.loc	6 0 1 is_stmt 0         # /usr/include/c++/9/bits/vector.tcc:0:1
	movq	$-1, %r9
	.loc	6 1758 1 is_stmt 1      # /usr/include/c++/9/bits/vector.tcc:1758:1
	testq	%rdx, %rdx
	movl	$1, %ecx
	cmovneq	%rdx, %rcx
	leaq	(%rcx,%rdx), %r12
	.loc	6 1759 1                # /usr/include/c++/9/bits/vector.tcc:1759:1
	cmpq	%rax, %r12
	cmovaq	%rax, %r12
	.loc	6 1758 1                # /usr/include/c++/9/bits/vector.tcc:1758:1
	addq	%rdx, %rcx
	.loc	6 1759 1                # /usr/include/c++/9/bits/vector.tcc:1759:1
	cmovbq	%rax, %r12
.Ltmp29:
	#DEBUG_VALUE: __old_finish <- $r8
	#DEBUG_VALUE: __old_start <- $rbx
	#DEBUG_VALUE: __len <- $r12
	.loc	6 0 1 is_stmt 0         # /usr/include/c++/9/bits/vector.tcc:0:1
	movq	%rsi, -64(%rbp)         # 8-byte Spill
.Ltmp30:
	#DEBUG_VALUE: _M_realloc_insert:__position <- [DW_OP_constu 64, DW_OP_minus] [$rbp+0]
	.loc	6 992 1 is_stmt 1       # /usr/include/c++/9/bits/vector.tcc:992:1
	movq	%rsi, %rcx
	movq	%rbx, -72(%rbp)         # 8-byte Spill
.Ltmp31:
	#DEBUG_VALUE: __old_start <- [DW_OP_constu 72, DW_OP_minus] [$rbp+0]
	subq	%rbx, %rcx
	movq	%rcx, %rsi
	imulq	%r9, %rsi
	movq	%rcx, %rax
	mulq	%r14
	addq	%rsi, %rdx
	movq	%rcx, %rax
	sarq	$63, %rax
	movq	%rax, %r13
	imulq	%r14, %r13
	addq	%rdx, %r13
	addq	%rcx, %r13
	sarq	$6, %r13
	subq	%rax, %r13
.Ltmp32:
	#DEBUG_VALUE: __elems_before <- $r13
	.loc	6 440 1                 # /usr/include/c++/9/bits/vector.tcc:440:1
	testq	%r12, %r12
	movq	%rdi, -80(%rbp)         # 8-byte Spill
.Ltmp33:
	#DEBUG_VALUE: _M_realloc_insert: <- [DW_OP_constu 80, DW_OP_minus] [$rbp+0]
	.loc	6 0 1 is_stmt 0         # /usr/include/c++/9/bits/vector.tcc:0:1
	movq	%r8, -56(%rbp)          # 8-byte Spill
.Ltmp34:
	#DEBUG_VALUE: __old_finish <- [DW_OP_constu 56, DW_OP_minus] [$rbp+0]
	.loc	6 440 1                 # /usr/include/c++/9/bits/vector.tcc:440:1
	je	.LBB5_2
.Ltmp35:
# %bb.3:                                # %L..inline.72865
	#DEBUG_VALUE: __old_finish <- [DW_OP_constu 56, DW_OP_minus] [$rbp+0]
	#DEBUG_VALUE: _M_realloc_insert: <- [DW_OP_constu 80, DW_OP_minus] [$rbp+0]
	#DEBUG_VALUE: __elems_before <- $r13
	#DEBUG_VALUE: __old_start <- [DW_OP_constu 72, DW_OP_minus] [$rbp+0]
	#DEBUG_VALUE: _M_realloc_insert:__position <- [DW_OP_constu 64, DW_OP_minus] [$rbp+0]
	#DEBUG_VALUE: __len <- $r12
	#DEBUG_VALUE: _M_realloc_insert:__args <- $r10
	#DEBUG_VALUE:  <- $rdi
	.loc	6 343 1 is_stmt 1       # /usr/include/c++/9/bits/vector.tcc:343:1
	imulq	$120, %r12, %rdi
.Ltmp36:
	.loc	6 0 1 is_stmt 0         # /usr/include/c++/9/bits/vector.tcc:0:1
	movq	%r10, %rbx
.Ltmp37:
	#DEBUG_VALUE: _M_realloc_insert:__args <- $rbx
	.loc	6 343 1                 # /usr/include/c++/9/bits/vector.tcc:343:1
	callq	_Znwm
	movq	%rbx, %r10
	movq	%rax, %rbx
.Ltmp38:
	.loc	6 0 1                   # /usr/include/c++/9/bits/vector.tcc:0:1
	jmp	.LBB5_4
.Ltmp39:
.LBB5_2:
	#DEBUG_VALUE: __old_finish <- [DW_OP_constu 56, DW_OP_minus] [$rbp+0]
	#DEBUG_VALUE: _M_realloc_insert: <- [DW_OP_constu 80, DW_OP_minus] [$rbp+0]
	#DEBUG_VALUE: __elems_before <- $r13
	#DEBUG_VALUE: __old_start <- [DW_OP_constu 72, DW_OP_minus] [$rbp+0]
	#DEBUG_VALUE: _M_realloc_insert:__position <- [DW_OP_constu 64, DW_OP_minus] [$rbp+0]
	#DEBUG_VALUE: __len <- $r12
	#DEBUG_VALUE: _M_realloc_insert:__args <- $r10
	#DEBUG_VALUE:  <- $rdi
	xorl	%ebx, %ebx
.Ltmp40:
.LBB5_4:                                # %L..inline.72866
	#DEBUG_VALUE: __old_finish <- [DW_OP_constu 56, DW_OP_minus] [$rbp+0]
	#DEBUG_VALUE: _M_realloc_insert: <- [DW_OP_constu 80, DW_OP_minus] [$rbp+0]
	#DEBUG_VALUE: __elems_before <- $r13
	#DEBUG_VALUE: __old_start <- [DW_OP_constu 72, DW_OP_minus] [$rbp+0]
	#DEBUG_VALUE: _M_realloc_insert:__position <- [DW_OP_constu 64, DW_OP_minus] [$rbp+0]
	#DEBUG_VALUE: __len <- $r12
	#DEBUG_VALUE: __new_start <- undef
	#DEBUG_VALUE: __new_finish <- $rbx
	.loc	6 449 1 is_stmt 1       # /usr/include/c++/9/bits/vector.tcc:449:1
	imulq	$120, %r13, %rdx
	.loc	6 484 1                 # /usr/include/c++/9/bits/vector.tcc:484:1
	movq	%rbx, %r15
	addq	%rdx, %r15
	je	.LBB5_6
.Ltmp41:
# %bb.5:                                # %L.B1539
	#DEBUG_VALUE: __new_finish <- $rbx
	#DEBUG_VALUE: __old_finish <- [DW_OP_constu 56, DW_OP_minus] [$rbp+0]
	#DEBUG_VALUE: _M_realloc_insert: <- [DW_OP_constu 80, DW_OP_minus] [$rbp+0]
	#DEBUG_VALUE: __elems_before <- $r13
	#DEBUG_VALUE: __old_start <- [DW_OP_constu 72, DW_OP_minus] [$rbp+0]
	#DEBUG_VALUE: _M_realloc_insert:__position <- [DW_OP_constu 64, DW_OP_minus] [$rbp+0]
	#DEBUG_VALUE: __len <- $r12
	.loc	6 505 1                 # /usr/include/c++/9/bits/vector.tcc:505:1
	vmovups	(%r10), %ymm0
	vmovups	32(%r10), %ymm1
	vmovups	64(%r10), %ymm2
	vmovups	88(%r10), %ymm3
	vmovups	%ymm3, 88(%r15)
	vmovups	%ymm2, 64(%r15)
	vmovups	%ymm1, 32(%r15)
	vmovups	%ymm0, (%r15)
.Ltmp42:
.LBB5_6:                                # %L..inline.72914
	#DEBUG_VALUE: __new_finish <- $rbx
	#DEBUG_VALUE: __old_finish <- [DW_OP_constu 56, DW_OP_minus] [$rbp+0]
	#DEBUG_VALUE: _M_realloc_insert: <- [DW_OP_constu 80, DW_OP_minus] [$rbp+0]
	#DEBUG_VALUE: __elems_before <- $r13
	#DEBUG_VALUE: __old_start <- [DW_OP_constu 72, DW_OP_minus] [$rbp+0]
	#DEBUG_VALUE: _M_realloc_insert:__position <- [DW_OP_constu 64, DW_OP_minus] [$rbp+0]
	#DEBUG_VALUE: __len <- $r12
	#DEBUG_VALUE: __new_finish <- 0
	.loc	6 466 1                 # /usr/include/c++/9/bits/vector.tcc:466:1
	testq	%r13, %r13
	movq	-72(%rbp), %r13         # 8-byte Reload
.Ltmp43:
	jle	.LBB5_8
.Ltmp44:
# %bb.7:                                # %L.B1540
	#DEBUG_VALUE: __new_finish <- 0
	#DEBUG_VALUE: __old_finish <- [DW_OP_constu 56, DW_OP_minus] [$rbp+0]
	#DEBUG_VALUE: _M_realloc_insert: <- [DW_OP_constu 80, DW_OP_minus] [$rbp+0]
	#DEBUG_VALUE: __old_start <- [DW_OP_constu 72, DW_OP_minus] [$rbp+0]
	#DEBUG_VALUE: _M_realloc_insert:__position <- [DW_OP_constu 64, DW_OP_minus] [$rbp+0]
	#DEBUG_VALUE: __len <- $r12
	movq	%rbx, %rdi
	movq	%r13, %rsi
	vzeroupper
	callq	memmove
.Ltmp45:
.LBB5_8:                                # %L..inline.72984
	#DEBUG_VALUE: __new_finish <- 0
	#DEBUG_VALUE: __old_finish <- [DW_OP_constu 56, DW_OP_minus] [$rbp+0]
	#DEBUG_VALUE: _M_realloc_insert: <- [DW_OP_constu 80, DW_OP_minus] [$rbp+0]
	#DEBUG_VALUE: __old_start <- [DW_OP_constu 72, DW_OP_minus] [$rbp+0]
	#DEBUG_VALUE: _M_realloc_insert:__position <- [DW_OP_constu 64, DW_OP_minus] [$rbp+0]
	#DEBUG_VALUE: __len <- $r12
	#DEBUG_VALUE: __new_finish <- $r15
	.loc	6 0 1 is_stmt 0         # /usr/include/c++/9/bits/vector.tcc:0:1
	movq	%rbx, -48(%rbp)         # 8-byte Spill
	.loc	6 464 1 is_stmt 1       # /usr/include/c++/9/bits/vector.tcc:464:1
	addq	$120, %r15
.Ltmp46:
	#DEBUG_VALUE: __new_finish <- $r15
	.loc	6 0 1 is_stmt 0         # /usr/include/c++/9/bits/vector.tcc:0:1
	movq	-64(%rbp), %rsi         # 8-byte Reload
.Ltmp47:
	#DEBUG_VALUE: _M_realloc_insert:__position <- $rsi
	movq	-56(%rbp), %rcx         # 8-byte Reload
.Ltmp48:
	#DEBUG_VALUE: __old_finish <- $rcx
	.loc	6 466 1 is_stmt 1       # /usr/include/c++/9/bits/vector.tcc:466:1
	subq	%rsi, %rcx
.Ltmp49:
	.loc	6 0 1 is_stmt 0         # /usr/include/c++/9/bits/vector.tcc:0:1
	movq	$-1, %rdi
	.loc	6 466 1                 # /usr/include/c++/9/bits/vector.tcc:466:1
	imulq	%rcx, %rdi
	movq	%rcx, %rax
	mulq	%r14
	addq	%rdi, %rdx
	movq	%rcx, %rax
	sarq	$63, %rax
	imulq	%rax, %r14
	addq	%rdx, %r14
	addq	%rcx, %r14
	sarq	$6, %r14
	subq	%rax, %r14
	imulq	$120, %r14, %rbx
	testq	%r14, %r14
	jle	.LBB5_10
.Ltmp50:
# %bb.9:                                # %L.B1541
	#DEBUG_VALUE: __new_finish <- $r15
	#DEBUG_VALUE: _M_realloc_insert: <- [DW_OP_constu 80, DW_OP_minus] [$rbp+0]
	#DEBUG_VALUE: __old_start <- [DW_OP_constu 72, DW_OP_minus] [$rbp+0]
	#DEBUG_VALUE: __len <- $r12
	#DEBUG_VALUE: _M_realloc_insert:__position <- $rsi
	movq	%r15, %rdi
	movq	%rbx, %rdx
	vzeroupper
	callq	memmove
.Ltmp51:
.LBB5_10:                               # %L..inline.73062
	#DEBUG_VALUE: __new_finish <- $r15
	#DEBUG_VALUE: _M_realloc_insert: <- [DW_OP_constu 80, DW_OP_minus] [$rbp+0]
	#DEBUG_VALUE: __old_start <- [DW_OP_constu 72, DW_OP_minus] [$rbp+0]
	#DEBUG_VALUE: __len <- $r12
	addq	%rbx, %r15
.Ltmp52:
	#DEBUG_VALUE: __new_finish <- $r15
	.loc	6 500 1 is_stmt 1       # /usr/include/c++/9/bits/vector.tcc:500:1
	testq	%r13, %r13
	je	.LBB5_12
.Ltmp53:
# %bb.11:                               # %L.B1544
	#DEBUG_VALUE: __new_finish <- $r15
	#DEBUG_VALUE: _M_realloc_insert: <- [DW_OP_constu 80, DW_OP_minus] [$rbp+0]
	#DEBUG_VALUE: __old_start <- [DW_OP_constu 72, DW_OP_minus] [$rbp+0]
	#DEBUG_VALUE: __len <- $r12
	.loc	6 351 1                 # /usr/include/c++/9/bits/vector.tcc:351:1
	movq	%r13, %rdi
	vzeroupper
	callq	_ZdlPv
.Ltmp54:
.LBB5_12:                               # %L..inline.73130
	#DEBUG_VALUE: __new_finish <- $r15
	#DEBUG_VALUE: _M_realloc_insert: <- [DW_OP_constu 80, DW_OP_minus] [$rbp+0]
	#DEBUG_VALUE: __old_start <- [DW_OP_constu 72, DW_OP_minus] [$rbp+0]
	#DEBUG_VALUE: __len <- $r12
	.loc	6 0 1 is_stmt 0         # /usr/include/c++/9/bits/vector.tcc:0:1
	movq	-80(%rbp), %rcx         # 8-byte Reload
.Ltmp55:
	#DEBUG_VALUE: _M_realloc_insert: <- $rcx
	movq	-48(%rbp), %rdx         # 8-byte Reload
	.loc	6 502 1 is_stmt 1       # /usr/include/c++/9/bits/vector.tcc:502:1
	movq	%rdx, (%rcx)
	.loc	6 503 1                 # /usr/include/c++/9/bits/vector.tcc:503:1
	movq	%r15, 8(%rcx)
	.loc	6 504 1                 # /usr/include/c++/9/bits/vector.tcc:504:1
	imulq	$120, %r12, %rax
	addq	%rdx, %rax
	movq	%rax, 16(%rcx)
	.loc	6 505 1                 # /usr/include/c++/9/bits/vector.tcc:505:1
	addq	$40, %rsp
	popq	%rbx
	popq	%r12
.Ltmp56:
	popq	%r13
	popq	%r14
	popq	%r15
.Ltmp57:
	popq	%rbp
	.cfi_def_cfa %rsp, 8
	vzeroupper
	retq
.Ltmp58:
.LBB5_13:                               # %L.B1533
	.cfi_def_cfa %rbp, 16
	#DEBUG_VALUE: _M_realloc_insert:__args <- $r10
	#DEBUG_VALUE:  <- $rdi
	#DEBUG_VALUE: _M_realloc_insert:__position <- $rsi
	#DEBUG_VALUE: _M_realloc_insert: <- $rdi
	.loc	6 1756 1                # /usr/include/c++/9/bits/vector.tcc:1756:1
	movl	$.S54367, %edi
.Ltmp59:
	callq	_ZSt20__throw_length_errorPKc
.Ltmp60:
.Lfunc_end5:
	.size	_ZNSt6vectorIN8projects25FirehoseSpeciesParametersESaIS1_EE17_M_realloc_insertIJRKS1_EEEvN9__gnu_cxx17__normal_iteratorIPS1_S3_EEDpOT_, .Lfunc_end5-_ZNSt6vectorIN8projects25FirehoseSpeciesParametersESaIS1_EE17_M_realloc_insertIJRKS1_EEEvN9__gnu_cxx17__normal_iteratorIPS1_S3_EEDpOT_
	.cfi_endproc
                                        # -- End function
	.weak	_ZN3MPI8DatatypeD1Ev    # -- Begin function _ZN3MPI8DatatypeD1Ev
	.p2align	4, 0x90
	.type	_ZN3MPI8DatatypeD1Ev,@function
_ZN3MPI8DatatypeD1Ev:                   # @_ZN3MPI8DatatypeD1Ev
.Lfunc_begin6:
	.file	7 "/usr/lib/x86_64-linux-gnu/openmpi/include/openmpi/ompi/mpi/cxx/datatype.h"
	.loc	7 70 0                  # /usr/lib/x86_64-linux-gnu/openmpi/include/openmpi/ompi/mpi/cxx/datatype.h:70:0
	.cfi_startproc
# %bb.0:                                # %L.entry
	#DEBUG_VALUE: ~Datatype: <- $rdi
	#DEBUG_VALUE: ~Datatype: <- $rdi
	pushq	%rbp
	.cfi_def_cfa_offset 16
	.cfi_offset %rbp, -16
	movq	%rsp, %rbp
	.cfi_def_cfa_register %rbp
.Ltmp61:
	#DEBUG_VALUE:  <- $rdi
	#DEBUG_VALUE:  <- $rdi
	.loc	7 70 1 prologue_end     # /usr/lib/x86_64-linux-gnu/openmpi/include/openmpi/ompi/mpi/cxx/datatype.h:70:1
	movq	$_ZTVN3MPI8DatatypeE+16, (%rdi)
	popq	%rbp
	.cfi_def_cfa %rsp, 8
	retq
.Ltmp62:
.Lfunc_end6:
	.size	_ZN3MPI8DatatypeD1Ev, .Lfunc_end6-_ZN3MPI8DatatypeD1Ev
	.cfi_endproc
                                        # -- End function
	.weak	_ZN3MPI8DatatypeD0Ev    # -- Begin function _ZN3MPI8DatatypeD0Ev
	.p2align	4, 0x90
	.type	_ZN3MPI8DatatypeD0Ev,@function
_ZN3MPI8DatatypeD0Ev:                   # @_ZN3MPI8DatatypeD0Ev
.Lfunc_begin7:
	.loc	1 0 0                   # projects/Firehose/Firehose.cpp:0:0
	.cfi_startproc
# %bb.0:                                # %L.entry
	pushq	%rbp
	.cfi_def_cfa_offset 16
	.cfi_offset %rbp, -16
	movq	%rsp, %rbp
	.cfi_def_cfa_register %rbp
.Ltmp63:
	.loc	1 70 1 prologue_end     # projects/Firehose/Firehose.cpp:70:1
	movl	$16, %esi
	popq	%rbp
	.cfi_def_cfa %rsp, 8
	jmp	_ZdlPvm                 # TAILCALL
.Ltmp64:
.Lfunc_end7:
	.size	_ZN3MPI8DatatypeD0Ev, .Lfunc_end7-_ZN3MPI8DatatypeD0Ev
	.cfi_endproc
                                        # -- End function
	.weak	_ZNK3MPI8Datatype17Create_contiguousEi # -- Begin function _ZNK3MPI8Datatype17Create_contiguousEi
	.p2align	4, 0x90
	.type	_ZNK3MPI8Datatype17Create_contiguousEi,@function
_ZNK3MPI8Datatype17Create_contiguousEi: # @_ZNK3MPI8Datatype17Create_contiguousEi
.Lfunc_begin8:
	.file	8 "/usr/lib/x86_64-linux-gnu/openmpi/include/openmpi/ompi/mpi/cxx/datatype_inln.h"
	.loc	8 30 0                  # /usr/lib/x86_64-linux-gnu/openmpi/include/openmpi/ompi/mpi/cxx/datatype_inln.h:30:0
	.cfi_startproc
# %bb.0:                                # %L.entry
	#DEBUG_VALUE: Create_contiguous: <- $rsi
	#DEBUG_VALUE: Create_contiguous:count <- $edx
	pushq	%rbp
	.cfi_def_cfa_offset 16
	.cfi_offset %rbp, -16
	movq	%rsp, %rbp
	.cfi_def_cfa_register %rbp
	pushq	%rbx
	pushq	%rax
	.cfi_offset %rbx, -24
	movl	%edx, %eax
	movq	%rdi, %rbx
.Ltmp65:
	#DEBUG_VALUE:  <- $rsi
	#DEBUG_VALUE: count <- $eax
	#DEBUG_VALUE: Create_contiguous:count <- $eax
	#DEBUG_VALUE: Create_contiguous: <- $rsi
	.loc	8 32 1 prologue_end     # /usr/lib/x86_64-linux-gnu/openmpi/include/openmpi/ompi/mpi/cxx/datatype_inln.h:32:1
	movq	8(%rsi), %rsi
.Ltmp66:
	#DEBUG_VALUE: newtype <- [DW_OP_constu 16, DW_OP_minus, DW_OP_deref] $rbp
	.loc	8 0 1 is_stmt 0         # /usr/lib/x86_64-linux-gnu/openmpi/include/openmpi/ompi/mpi/cxx/datatype_inln.h:0:1
	leaq	-16(%rbp), %rdx
	.loc	8 32 1                  # /usr/lib/x86_64-linux-gnu/openmpi/include/openmpi/ompi/mpi/cxx/datatype_inln.h:32:1
	movl	%eax, %edi
.Ltmp67:
	#DEBUG_VALUE: Create_contiguous:count <- $edi
	callq	MPI_Type_contiguous
.Ltmp68:
	.loc	8 33 1 is_stmt 1        # /usr/lib/x86_64-linux-gnu/openmpi/include/openmpi/ompi/mpi/cxx/datatype_inln.h:33:1
	movq	-16(%rbp), %rax
.Ltmp69:
	#DEBUG_VALUE: newtype <- undef
	movq	$_ZTVN3MPI8DatatypeE+16, (%rbx)
	.loc	8 72 1                  # /usr/lib/x86_64-linux-gnu/openmpi/include/openmpi/ompi/mpi/cxx/datatype_inln.h:72:1
	movq	%rax, 8(%rbx)
	.loc	8 34 1                  # /usr/lib/x86_64-linux-gnu/openmpi/include/openmpi/ompi/mpi/cxx/datatype_inln.h:34:1
	movq	%rbx, %rax
	addq	$8, %rsp
	popq	%rbx
	popq	%rbp
	.cfi_def_cfa %rsp, 8
	retq
.Ltmp70:
.Lfunc_end8:
	.size	_ZNK3MPI8Datatype17Create_contiguousEi, .Lfunc_end8-_ZNK3MPI8Datatype17Create_contiguousEi
	.cfi_endproc
                                        # -- End function
	.weak	_ZNK3MPI8Datatype13Create_vectorEiii # -- Begin function _ZNK3MPI8Datatype13Create_vectorEiii
	.p2align	4, 0x90
	.type	_ZNK3MPI8Datatype13Create_vectorEiii,@function
_ZNK3MPI8Datatype13Create_vectorEiii:   # @_ZNK3MPI8Datatype13Create_vectorEiii
.Lfunc_begin9:
	.loc	8 39 0                  # /usr/lib/x86_64-linux-gnu/openmpi/include/openmpi/ompi/mpi/cxx/datatype_inln.h:39:0
	.cfi_startproc
# %bb.0:                                # %L.entry
	#DEBUG_VALUE: Create_vector: <- $rsi
	#DEBUG_VALUE: Create_vector:count <- $edx
	#DEBUG_VALUE: Create_vector:blocklength <- $ecx
	#DEBUG_VALUE: Create_vector:stride <- $r8d
	pushq	%rbp
	.cfi_def_cfa_offset 16
	.cfi_offset %rbp, -16
	movq	%rsp, %rbp
	.cfi_def_cfa_register %rbp
	pushq	%rbx
	pushq	%rax
	.cfi_offset %rbx, -24
	movl	%r8d, %r9d
	movq	%rdi, %rbx
.Ltmp71:
	#DEBUG_VALUE:  <- $rsi
	#DEBUG_VALUE: stride <- $r9d
	#DEBUG_VALUE: blocklength <- $ecx
	#DEBUG_VALUE: count <- $edx
	#DEBUG_VALUE: Create_vector:stride <- $r9d
	#DEBUG_VALUE: Create_vector:blocklength <- $ecx
	#DEBUG_VALUE: Create_vector:count <- $edx
	#DEBUG_VALUE: Create_vector: <- $rsi
	.loc	8 41 1 prologue_end     # /usr/lib/x86_64-linux-gnu/openmpi/include/openmpi/ompi/mpi/cxx/datatype_inln.h:41:1
	movq	8(%rsi), %rax
.Ltmp72:
	#DEBUG_VALUE: newtype <- [DW_OP_constu 16, DW_OP_minus, DW_OP_deref] $rbp
	.loc	8 0 1 is_stmt 0         # /usr/lib/x86_64-linux-gnu/openmpi/include/openmpi/ompi/mpi/cxx/datatype_inln.h:0:1
	leaq	-16(%rbp), %r8
	.loc	8 41 1                  # /usr/lib/x86_64-linux-gnu/openmpi/include/openmpi/ompi/mpi/cxx/datatype_inln.h:41:1
	movl	%edx, %edi
.Ltmp73:
	#DEBUG_VALUE: Create_vector:count <- $edi
	movl	%ecx, %esi
.Ltmp74:
	#DEBUG_VALUE: Create_vector:blocklength <- $esi
	movl	%r9d, %edx
.Ltmp75:
	#DEBUG_VALUE: Create_vector:stride <- $edx
	movq	%rax, %rcx
.Ltmp76:
	callq	MPI_Type_vector
.Ltmp77:
	.loc	8 42 1 is_stmt 1        # /usr/lib/x86_64-linux-gnu/openmpi/include/openmpi/ompi/mpi/cxx/datatype_inln.h:42:1
	movq	-16(%rbp), %rax
.Ltmp78:
	#DEBUG_VALUE: newtype <- undef
	movq	$_ZTVN3MPI8DatatypeE+16, (%rbx)
	.loc	8 72 1                  # /usr/lib/x86_64-linux-gnu/openmpi/include/openmpi/ompi/mpi/cxx/datatype_inln.h:72:1
	movq	%rax, 8(%rbx)
	.loc	8 43 1                  # /usr/lib/x86_64-linux-gnu/openmpi/include/openmpi/ompi/mpi/cxx/datatype_inln.h:43:1
	movq	%rbx, %rax
	addq	$8, %rsp
	popq	%rbx
	popq	%rbp
	.cfi_def_cfa %rsp, 8
	retq
.Ltmp79:
.Lfunc_end9:
	.size	_ZNK3MPI8Datatype13Create_vectorEiii, .Lfunc_end9-_ZNK3MPI8Datatype13Create_vectorEiii
	.cfi_endproc
                                        # -- End function
	.weak	_ZNK3MPI8Datatype14Create_indexedEiPKiS2_ # -- Begin function _ZNK3MPI8Datatype14Create_indexedEiPKiS2_
	.p2align	4, 0x90
	.type	_ZNK3MPI8Datatype14Create_indexedEiPKiS2_,@function
_ZNK3MPI8Datatype14Create_indexedEiPKiS2_: # @_ZNK3MPI8Datatype14Create_indexedEiPKiS2_
.Lfunc_begin10:
	.loc	8 49 0                  # /usr/lib/x86_64-linux-gnu/openmpi/include/openmpi/ompi/mpi/cxx/datatype_inln.h:49:0
	.cfi_startproc
# %bb.0:                                # %L.entry
	#DEBUG_VALUE: Create_indexed: <- $rsi
	#DEBUG_VALUE: Create_indexed:count <- $edx
	#DEBUG_VALUE: Create_indexed:array_of_blocklengths <- $rcx
	#DEBUG_VALUE: Create_indexed:array_of_displacements <- $r8
	pushq	%rbp
	.cfi_def_cfa_offset 16
	.cfi_offset %rbp, -16
	movq	%rsp, %rbp
	.cfi_def_cfa_register %rbp
	pushq	%rbx
	pushq	%rax
	.cfi_offset %rbx, -24
	movq	%r8, %r9
	movq	%rdi, %rbx
.Ltmp80:
	#DEBUG_VALUE:  <- $rsi
	#DEBUG_VALUE: array_of_displacements <- $r9
	#DEBUG_VALUE: array_of_blocklengths <- $rcx
	#DEBUG_VALUE: count <- $edx
	#DEBUG_VALUE: Create_indexed:array_of_displacements <- $r9
	#DEBUG_VALUE: Create_indexed:array_of_blocklengths <- $rcx
	#DEBUG_VALUE: Create_indexed:count <- $edx
	#DEBUG_VALUE: Create_indexed: <- $rsi
	.loc	8 51 1 prologue_end     # /usr/lib/x86_64-linux-gnu/openmpi/include/openmpi/ompi/mpi/cxx/datatype_inln.h:51:1
	movq	8(%rsi), %rax
.Ltmp81:
	#DEBUG_VALUE: newtype <- [DW_OP_constu 16, DW_OP_minus, DW_OP_deref] $rbp
	.loc	8 0 1 is_stmt 0         # /usr/lib/x86_64-linux-gnu/openmpi/include/openmpi/ompi/mpi/cxx/datatype_inln.h:0:1
	leaq	-16(%rbp), %r8
	.loc	8 51 1                  # /usr/lib/x86_64-linux-gnu/openmpi/include/openmpi/ompi/mpi/cxx/datatype_inln.h:51:1
	movl	%edx, %edi
.Ltmp82:
	#DEBUG_VALUE: Create_indexed:count <- $edi
	movq	%rcx, %rsi
.Ltmp83:
	#DEBUG_VALUE: Create_indexed:array_of_blocklengths <- $rsi
	movq	%r9, %rdx
.Ltmp84:
	#DEBUG_VALUE: Create_indexed:array_of_displacements <- $rdx
	movq	%rax, %rcx
.Ltmp85:
	callq	MPI_Type_indexed
.Ltmp86:
	.loc	8 53 1 is_stmt 1        # /usr/lib/x86_64-linux-gnu/openmpi/include/openmpi/ompi/mpi/cxx/datatype_inln.h:53:1
	movq	-16(%rbp), %rax
.Ltmp87:
	#DEBUG_VALUE: newtype <- undef
	movq	$_ZTVN3MPI8DatatypeE+16, (%rbx)
	.loc	8 72 1                  # /usr/lib/x86_64-linux-gnu/openmpi/include/openmpi/ompi/mpi/cxx/datatype_inln.h:72:1
	movq	%rax, 8(%rbx)
	.loc	8 54 1                  # /usr/lib/x86_64-linux-gnu/openmpi/include/openmpi/ompi/mpi/cxx/datatype_inln.h:54:1
	movq	%rbx, %rax
	addq	$8, %rsp
	popq	%rbx
	popq	%rbp
	.cfi_def_cfa %rsp, 8
	retq
.Ltmp88:
.Lfunc_end10:
	.size	_ZNK3MPI8Datatype14Create_indexedEiPKiS2_, .Lfunc_end10-_ZNK3MPI8Datatype14Create_indexedEiPKiS2_
	.cfi_endproc
                                        # -- End function
	.weak	_ZNK3MPI8Datatype15Create_hindexedEiPKiPKl # -- Begin function _ZNK3MPI8Datatype15Create_hindexedEiPKiPKl
	.p2align	4, 0x90
	.type	_ZNK3MPI8Datatype15Create_hindexedEiPKiPKl,@function
_ZNK3MPI8Datatype15Create_hindexedEiPKiPKl: # @_ZNK3MPI8Datatype15Create_hindexedEiPKiPKl
.Lfunc_begin11:
	.loc	8 77 0                  # /usr/lib/x86_64-linux-gnu/openmpi/include/openmpi/ompi/mpi/cxx/datatype_inln.h:77:0
	.cfi_startproc
# %bb.0:                                # %L.entry
	#DEBUG_VALUE: Create_hindexed: <- $rsi
	#DEBUG_VALUE: Create_hindexed:count <- $edx
	#DEBUG_VALUE: Create_hindexed:array_of_blocklengths <- $rcx
	#DEBUG_VALUE: Create_hindexed:array_of_displacements <- $r8
	pushq	%rbp
	.cfi_def_cfa_offset 16
	.cfi_offset %rbp, -16
	movq	%rsp, %rbp
	.cfi_def_cfa_register %rbp
	pushq	%rbx
	pushq	%rax
	.cfi_offset %rbx, -24
	movq	%r8, %r9
	movq	%rdi, %rbx
.Ltmp89:
	#DEBUG_VALUE:  <- $rsi
	#DEBUG_VALUE: array_of_displacements <- $r9
	#DEBUG_VALUE: array_of_blocklengths <- $rcx
	#DEBUG_VALUE: count <- $edx
	#DEBUG_VALUE: Create_hindexed:array_of_displacements <- $r9
	#DEBUG_VALUE: Create_hindexed:array_of_blocklengths <- $rcx
	#DEBUG_VALUE: Create_hindexed:count <- $edx
	#DEBUG_VALUE: Create_hindexed: <- $rsi
	.loc	8 79 1 prologue_end     # /usr/lib/x86_64-linux-gnu/openmpi/include/openmpi/ompi/mpi/cxx/datatype_inln.h:79:1
	movq	8(%rsi), %rax
.Ltmp90:
	#DEBUG_VALUE: newtype <- [DW_OP_constu 16, DW_OP_minus, DW_OP_deref] $rbp
	.loc	8 0 1 is_stmt 0         # /usr/lib/x86_64-linux-gnu/openmpi/include/openmpi/ompi/mpi/cxx/datatype_inln.h:0:1
	leaq	-16(%rbp), %r8
	.loc	8 79 1                  # /usr/lib/x86_64-linux-gnu/openmpi/include/openmpi/ompi/mpi/cxx/datatype_inln.h:79:1
	movl	%edx, %edi
.Ltmp91:
	#DEBUG_VALUE: Create_hindexed:count <- $edi
	movq	%rcx, %rsi
.Ltmp92:
	#DEBUG_VALUE: Create_hindexed:array_of_blocklengths <- $rsi
	movq	%r9, %rdx
.Ltmp93:
	#DEBUG_VALUE: Create_hindexed:array_of_displacements <- $rdx
	movq	%rax, %rcx
.Ltmp94:
	callq	MPI_Type_create_hindexed
.Ltmp95:
	.loc	8 82 1 is_stmt 1        # /usr/lib/x86_64-linux-gnu/openmpi/include/openmpi/ompi/mpi/cxx/datatype_inln.h:82:1
	movq	-16(%rbp), %rax
.Ltmp96:
	#DEBUG_VALUE: newtype <- undef
	movq	$_ZTVN3MPI8DatatypeE+16, (%rbx)
	.loc	8 72 1                  # /usr/lib/x86_64-linux-gnu/openmpi/include/openmpi/ompi/mpi/cxx/datatype_inln.h:72:1
	movq	%rax, 8(%rbx)
	.loc	8 83 1                  # /usr/lib/x86_64-linux-gnu/openmpi/include/openmpi/ompi/mpi/cxx/datatype_inln.h:83:1
	movq	%rbx, %rax
	addq	$8, %rsp
	popq	%rbx
	popq	%rbp
	.cfi_def_cfa %rsp, 8
	retq
.Ltmp97:
.Lfunc_end11:
	.size	_ZNK3MPI8Datatype15Create_hindexedEiPKiPKl, .Lfunc_end11-_ZNK3MPI8Datatype15Create_hindexedEiPKiPKl
	.cfi_endproc
                                        # -- End function
	.weak	_ZNK3MPI8Datatype14Create_hvectorEiil # -- Begin function _ZNK3MPI8Datatype14Create_hvectorEiil
	.p2align	4, 0x90
	.type	_ZNK3MPI8Datatype14Create_hvectorEiil,@function
_ZNK3MPI8Datatype14Create_hvectorEiil:  # @_ZNK3MPI8Datatype14Create_hvectorEiil
.Lfunc_begin12:
	.loc	8 88 0                  # /usr/lib/x86_64-linux-gnu/openmpi/include/openmpi/ompi/mpi/cxx/datatype_inln.h:88:0
	.cfi_startproc
# %bb.0:                                # %L.entry
	#DEBUG_VALUE: Create_hvector: <- $rsi
	#DEBUG_VALUE: Create_hvector:count <- $edx
	#DEBUG_VALUE: Create_hvector:blocklength <- $ecx
	#DEBUG_VALUE: Create_hvector:stride <- $r8
	pushq	%rbp
	.cfi_def_cfa_offset 16
	.cfi_offset %rbp, -16
	movq	%rsp, %rbp
	.cfi_def_cfa_register %rbp
	pushq	%rbx
	pushq	%rax
	.cfi_offset %rbx, -24
	movq	%r8, %r9
	movq	%rdi, %rbx
.Ltmp98:
	#DEBUG_VALUE:  <- $rsi
	#DEBUG_VALUE: stride <- $r9
	#DEBUG_VALUE: blocklength <- $ecx
	#DEBUG_VALUE: count <- $edx
	#DEBUG_VALUE: Create_hvector:stride <- $r9
	#DEBUG_VALUE: Create_hvector:blocklength <- $ecx
	#DEBUG_VALUE: Create_hvector:count <- $edx
	#DEBUG_VALUE: Create_hvector: <- $rsi
	.loc	8 90 1 prologue_end     # /usr/lib/x86_64-linux-gnu/openmpi/include/openmpi/ompi/mpi/cxx/datatype_inln.h:90:1
	movq	8(%rsi), %rax
.Ltmp99:
	#DEBUG_VALUE: newtype <- [DW_OP_constu 16, DW_OP_minus, DW_OP_deref] $rbp
	.loc	8 0 1 is_stmt 0         # /usr/lib/x86_64-linux-gnu/openmpi/include/openmpi/ompi/mpi/cxx/datatype_inln.h:0:1
	leaq	-16(%rbp), %r8
	.loc	8 90 1                  # /usr/lib/x86_64-linux-gnu/openmpi/include/openmpi/ompi/mpi/cxx/datatype_inln.h:90:1
	movl	%edx, %edi
.Ltmp100:
	#DEBUG_VALUE: Create_hvector:count <- $edi
	movl	%ecx, %esi
.Ltmp101:
	#DEBUG_VALUE: Create_hvector:blocklength <- $esi
	movq	%r9, %rdx
.Ltmp102:
	#DEBUG_VALUE: Create_hvector:stride <- $rdx
	movq	%rax, %rcx
.Ltmp103:
	callq	MPI_Type_create_hvector
.Ltmp104:
	.loc	8 93 1 is_stmt 1        # /usr/lib/x86_64-linux-gnu/openmpi/include/openmpi/ompi/mpi/cxx/datatype_inln.h:93:1
	movq	-16(%rbp), %rax
.Ltmp105:
	#DEBUG_VALUE: newtype <- undef
	movq	$_ZTVN3MPI8DatatypeE+16, (%rbx)
	.loc	8 72 1                  # /usr/lib/x86_64-linux-gnu/openmpi/include/openmpi/ompi/mpi/cxx/datatype_inln.h:72:1
	movq	%rax, 8(%rbx)
	.loc	8 94 1                  # /usr/lib/x86_64-linux-gnu/openmpi/include/openmpi/ompi/mpi/cxx/datatype_inln.h:94:1
	movq	%rbx, %rax
	addq	$8, %rsp
	popq	%rbx
	popq	%rbp
	.cfi_def_cfa %rsp, 8
	retq
.Ltmp106:
.Lfunc_end12:
	.size	_ZNK3MPI8Datatype14Create_hvectorEiil, .Lfunc_end12-_ZNK3MPI8Datatype14Create_hvectorEiil
	.cfi_endproc
                                        # -- End function
	.weak	_ZNK3MPI8Datatype20Create_indexed_blockEiiPKi # -- Begin function _ZNK3MPI8Datatype20Create_indexed_blockEiiPKi
	.p2align	4, 0x90
	.type	_ZNK3MPI8Datatype20Create_indexed_blockEiiPKi,@function
_ZNK3MPI8Datatype20Create_indexed_blockEiiPKi: # @_ZNK3MPI8Datatype20Create_indexed_blockEiiPKi
.Lfunc_begin13:
	.loc	8 99 0                  # /usr/lib/x86_64-linux-gnu/openmpi/include/openmpi/ompi/mpi/cxx/datatype_inln.h:99:0
	.cfi_startproc
# %bb.0:                                # %L.entry
	#DEBUG_VALUE: Create_indexed_block: <- $rsi
	#DEBUG_VALUE: Create_indexed_block:count <- $edx
	#DEBUG_VALUE: Create_indexed_block:blocklength <- $ecx
	#DEBUG_VALUE: Create_indexed_block:array_of_displacements <- $r8
	pushq	%rbp
	.cfi_def_cfa_offset 16
	.cfi_offset %rbp, -16
	movq	%rsp, %rbp
	.cfi_def_cfa_register %rbp
	pushq	%rbx
	pushq	%rax
	.cfi_offset %rbx, -24
	movq	%r8, %r9
	movq	%rdi, %rbx
.Ltmp107:
	#DEBUG_VALUE:  <- $rsi
	#DEBUG_VALUE: array_of_displacements <- $r9
	#DEBUG_VALUE: blocklength <- $ecx
	#DEBUG_VALUE: count <- $edx
	#DEBUG_VALUE: Create_indexed_block:array_of_displacements <- $r9
	#DEBUG_VALUE: Create_indexed_block:blocklength <- $ecx
	#DEBUG_VALUE: Create_indexed_block:count <- $edx
	#DEBUG_VALUE: Create_indexed_block: <- $rsi
	.loc	8 101 1 prologue_end    # /usr/lib/x86_64-linux-gnu/openmpi/include/openmpi/ompi/mpi/cxx/datatype_inln.h:101:1
	movq	8(%rsi), %rax
.Ltmp108:
	#DEBUG_VALUE: newtype <- [DW_OP_constu 16, DW_OP_minus, DW_OP_deref] $rbp
	.loc	8 0 1 is_stmt 0         # /usr/lib/x86_64-linux-gnu/openmpi/include/openmpi/ompi/mpi/cxx/datatype_inln.h:0:1
	leaq	-16(%rbp), %r8
	.loc	8 101 1                 # /usr/lib/x86_64-linux-gnu/openmpi/include/openmpi/ompi/mpi/cxx/datatype_inln.h:101:1
	movl	%edx, %edi
.Ltmp109:
	#DEBUG_VALUE: Create_indexed_block:count <- $edi
	movl	%ecx, %esi
.Ltmp110:
	#DEBUG_VALUE: Create_indexed_block:blocklength <- $esi
	movq	%r9, %rdx
.Ltmp111:
	#DEBUG_VALUE: Create_indexed_block:array_of_displacements <- $rdx
	movq	%rax, %rcx
.Ltmp112:
	callq	MPI_Type_create_indexed_block
.Ltmp113:
	.loc	8 103 1 is_stmt 1       # /usr/lib/x86_64-linux-gnu/openmpi/include/openmpi/ompi/mpi/cxx/datatype_inln.h:103:1
	movq	-16(%rbp), %rax
.Ltmp114:
	#DEBUG_VALUE: newtype <- undef
	movq	$_ZTVN3MPI8DatatypeE+16, (%rbx)
	.loc	8 72 1                  # /usr/lib/x86_64-linux-gnu/openmpi/include/openmpi/ompi/mpi/cxx/datatype_inln.h:72:1
	movq	%rax, 8(%rbx)
	.loc	8 104 1                 # /usr/lib/x86_64-linux-gnu/openmpi/include/openmpi/ompi/mpi/cxx/datatype_inln.h:104:1
	movq	%rbx, %rax
	addq	$8, %rsp
	popq	%rbx
	popq	%rbp
	.cfi_def_cfa %rsp, 8
	retq
.Ltmp115:
.Lfunc_end13:
	.size	_ZNK3MPI8Datatype20Create_indexed_blockEiiPKi, .Lfunc_end13-_ZNK3MPI8Datatype20Create_indexed_blockEiiPKi
	.cfi_endproc
                                        # -- End function
	.weak	_ZNK3MPI8Datatype14Create_resizedEll # -- Begin function _ZNK3MPI8Datatype14Create_resizedEll
	.p2align	4, 0x90
	.type	_ZNK3MPI8Datatype14Create_resizedEll,@function
_ZNK3MPI8Datatype14Create_resizedEll:   # @_ZNK3MPI8Datatype14Create_resizedEll
.Lfunc_begin14:
	.loc	8 108 0                 # /usr/lib/x86_64-linux-gnu/openmpi/include/openmpi/ompi/mpi/cxx/datatype_inln.h:108:0
	.cfi_startproc
# %bb.0:                                # %L.entry
	#DEBUG_VALUE: Create_resized: <- $rsi
	#DEBUG_VALUE: Create_resized:lb <- $rdx
	#DEBUG_VALUE: Create_resized:extent <- $rcx
	pushq	%rbp
	.cfi_def_cfa_offset 16
	.cfi_offset %rbp, -16
	movq	%rsp, %rbp
	.cfi_def_cfa_register %rbp
	pushq	%rbx
	pushq	%rax
	.cfi_offset %rbx, -24
	movq	%rdi, %rbx
.Ltmp116:
	#DEBUG_VALUE:  <- $rsi
	#DEBUG_VALUE: extent <- $rcx
	#DEBUG_VALUE: lb <- $rdx
	#DEBUG_VALUE: Create_resized:extent <- $rcx
	#DEBUG_VALUE: Create_resized:lb <- $rdx
	#DEBUG_VALUE: Create_resized: <- $rsi
	.loc	8 111 1 prologue_end    # /usr/lib/x86_64-linux-gnu/openmpi/include/openmpi/ompi/mpi/cxx/datatype_inln.h:111:1
	movq	8(%rsi), %rdi
.Ltmp117:
	#DEBUG_VALUE: newtype <- [DW_OP_constu 16, DW_OP_minus, DW_OP_deref] $rbp
	.loc	8 0 1 is_stmt 0         # /usr/lib/x86_64-linux-gnu/openmpi/include/openmpi/ompi/mpi/cxx/datatype_inln.h:0:1
	leaq	-16(%rbp), %rax
	.loc	8 111 1                 # /usr/lib/x86_64-linux-gnu/openmpi/include/openmpi/ompi/mpi/cxx/datatype_inln.h:111:1
	movq	%rdx, %rsi
.Ltmp118:
	#DEBUG_VALUE: Create_resized:lb <- $rsi
	movq	%rcx, %rdx
.Ltmp119:
	#DEBUG_VALUE: Create_resized:extent <- $rdx
	movq	%rax, %rcx
.Ltmp120:
	callq	MPI_Type_create_resized
.Ltmp121:
	.loc	8 112 1 is_stmt 1       # /usr/lib/x86_64-linux-gnu/openmpi/include/openmpi/ompi/mpi/cxx/datatype_inln.h:112:1
	movq	-16(%rbp), %rax
.Ltmp122:
	#DEBUG_VALUE: newtype <- undef
	movq	$_ZTVN3MPI8DatatypeE+16, (%rbx)
	.loc	8 72 1                  # /usr/lib/x86_64-linux-gnu/openmpi/include/openmpi/ompi/mpi/cxx/datatype_inln.h:72:1
	movq	%rax, 8(%rbx)
	.loc	8 113 1                 # /usr/lib/x86_64-linux-gnu/openmpi/include/openmpi/ompi/mpi/cxx/datatype_inln.h:113:1
	movq	%rbx, %rax
	addq	$8, %rsp
	popq	%rbx
	popq	%rbp
	.cfi_def_cfa %rsp, 8
	retq
.Ltmp123:
.Lfunc_end14:
	.size	_ZNK3MPI8Datatype14Create_resizedEll, .Lfunc_end14-_ZNK3MPI8Datatype14Create_resizedEll
	.cfi_endproc
                                        # -- End function
	.weak	_ZNK3MPI8Datatype8Get_sizeEv # -- Begin function _ZNK3MPI8Datatype8Get_sizeEv
	.p2align	4, 0x90
	.type	_ZNK3MPI8Datatype8Get_sizeEv,@function
_ZNK3MPI8Datatype8Get_sizeEv:           # @_ZNK3MPI8Datatype8Get_sizeEv
.Lfunc_begin15:
	.loc	8 117 0                 # /usr/lib/x86_64-linux-gnu/openmpi/include/openmpi/ompi/mpi/cxx/datatype_inln.h:117:0
	.cfi_startproc
# %bb.0:                                # %L.entry
	#DEBUG_VALUE: Get_size: <- $rdi
	#DEBUG_VALUE: Get_size: <- $rdi
	pushq	%rbp
	.cfi_def_cfa_offset 16
	.cfi_offset %rbp, -16
	movq	%rsp, %rbp
	.cfi_def_cfa_register %rbp
	subq	$16, %rsp
.Ltmp124:
	#DEBUG_VALUE:  <- $rdi
	.loc	8 119 1 prologue_end    # /usr/lib/x86_64-linux-gnu/openmpi/include/openmpi/ompi/mpi/cxx/datatype_inln.h:119:1
	movq	8(%rdi), %rdi
.Ltmp125:
	#DEBUG_VALUE: size <- [DW_OP_constu 4, DW_OP_minus, DW_OP_deref] $rbp
	.loc	8 0 1 is_stmt 0         # /usr/lib/x86_64-linux-gnu/openmpi/include/openmpi/ompi/mpi/cxx/datatype_inln.h:0:1
	leaq	-4(%rbp), %rsi
	.loc	8 119 1                 # /usr/lib/x86_64-linux-gnu/openmpi/include/openmpi/ompi/mpi/cxx/datatype_inln.h:119:1
	callq	MPI_Type_size
	.loc	8 120 1 is_stmt 1       # /usr/lib/x86_64-linux-gnu/openmpi/include/openmpi/ompi/mpi/cxx/datatype_inln.h:120:1
	movl	-4(%rbp), %eax
.Ltmp126:
	#DEBUG_VALUE: size <- $eax
	addq	$16, %rsp
	popq	%rbp
	.cfi_def_cfa %rsp, 8
	retq
.Ltmp127:
.Lfunc_end15:
	.size	_ZNK3MPI8Datatype8Get_sizeEv, .Lfunc_end15-_ZNK3MPI8Datatype8Get_sizeEv
	.cfi_endproc
                                        # -- End function
	.weak	_ZNK3MPI8Datatype10Get_extentERlS1_ # -- Begin function _ZNK3MPI8Datatype10Get_extentERlS1_
	.p2align	4, 0x90
	.type	_ZNK3MPI8Datatype10Get_extentERlS1_,@function
_ZNK3MPI8Datatype10Get_extentERlS1_:    # @_ZNK3MPI8Datatype10Get_extentERlS1_
.Lfunc_begin16:
	.loc	8 125 0                 # /usr/lib/x86_64-linux-gnu/openmpi/include/openmpi/ompi/mpi/cxx/datatype_inln.h:125:0
	.cfi_startproc
# %bb.0:                                # %L.entry
	#DEBUG_VALUE: Get_extent: <- $rdi
	#DEBUG_VALUE: Get_extent: <- $rdi
	#DEBUG_VALUE: Get_extent:lb <- $rsi
	#DEBUG_VALUE: Get_extent:lb <- $rsi
	#DEBUG_VALUE: Get_extent:extent <- $rdx
	#DEBUG_VALUE: Get_extent:extent <- $rdx
	pushq	%rbp
	.cfi_def_cfa_offset 16
	.cfi_offset %rbp, -16
	movq	%rsp, %rbp
	.cfi_def_cfa_register %rbp
.Ltmp128:
	#DEBUG_VALUE:  <- $rdi
	#DEBUG_VALUE:  <- $rdi
	#DEBUG_VALUE: lb <- $rsi
	#DEBUG_VALUE: lb <- $rsi
	#DEBUG_VALUE: extent <- $rdx
	#DEBUG_VALUE: extent <- $rdx
	.loc	8 126 1 prologue_end    # /usr/lib/x86_64-linux-gnu/openmpi/include/openmpi/ompi/mpi/cxx/datatype_inln.h:126:1
	movq	8(%rdi), %rdi
.Ltmp129:
	#DEBUG_VALUE: extent <- $rdx
	#DEBUG_VALUE: Get_extent:extent <- $rdx
	#DEBUG_VALUE: lb <- $rsi
	#DEBUG_VALUE: Get_extent:lb <- $rsi
	popq	%rbp
	.cfi_def_cfa %rsp, 8
	jmp	MPI_Type_get_extent     # TAILCALL
.Ltmp130:
.Lfunc_end16:
	.size	_ZNK3MPI8Datatype10Get_extentERlS1_, .Lfunc_end16-_ZNK3MPI8Datatype10Get_extentERlS1_
	.cfi_endproc
                                        # -- End function
	.weak	_ZNK3MPI8Datatype15Get_true_extentERlS1_ # -- Begin function _ZNK3MPI8Datatype15Get_true_extentERlS1_
	.p2align	4, 0x90
	.type	_ZNK3MPI8Datatype15Get_true_extentERlS1_,@function
_ZNK3MPI8Datatype15Get_true_extentERlS1_: # @_ZNK3MPI8Datatype15Get_true_extentERlS1_
.Lfunc_begin17:
	.loc	8 131 0                 # /usr/lib/x86_64-linux-gnu/openmpi/include/openmpi/ompi/mpi/cxx/datatype_inln.h:131:0
	.cfi_startproc
# %bb.0:                                # %L.entry
	#DEBUG_VALUE: Get_true_extent: <- $rdi
	#DEBUG_VALUE: Get_true_extent: <- $rdi
	#DEBUG_VALUE: Get_true_extent:lb <- $rsi
	#DEBUG_VALUE: Get_true_extent:lb <- $rsi
	#DEBUG_VALUE: Get_true_extent:extent <- $rdx
	#DEBUG_VALUE: Get_true_extent:extent <- $rdx
	pushq	%rbp
	.cfi_def_cfa_offset 16
	.cfi_offset %rbp, -16
	movq	%rsp, %rbp
	.cfi_def_cfa_register %rbp
.Ltmp131:
	#DEBUG_VALUE:  <- $rdi
	#DEBUG_VALUE:  <- $rdi
	#DEBUG_VALUE: lb <- $rsi
	#DEBUG_VALUE: lb <- $rsi
	#DEBUG_VALUE: extent <- $rdx
	#DEBUG_VALUE: extent <- $rdx
	.loc	8 132 1 prologue_end    # /usr/lib/x86_64-linux-gnu/openmpi/include/openmpi/ompi/mpi/cxx/datatype_inln.h:132:1
	movq	8(%rdi), %rdi
.Ltmp132:
	#DEBUG_VALUE: extent <- $rdx
	#DEBUG_VALUE: Get_true_extent:extent <- $rdx
	#DEBUG_VALUE: lb <- $rsi
	#DEBUG_VALUE: Get_true_extent:lb <- $rsi
	popq	%rbp
	.cfi_def_cfa %rsp, 8
	jmp	MPI_Type_get_true_extent # TAILCALL
.Ltmp133:
.Lfunc_end17:
	.size	_ZNK3MPI8Datatype15Get_true_extentERlS1_, .Lfunc_end17-_ZNK3MPI8Datatype15Get_true_extentERlS1_
	.cfi_endproc
                                        # -- End function
	.weak	_ZN3MPI8Datatype6CommitEv # -- Begin function _ZN3MPI8Datatype6CommitEv
	.p2align	4, 0x90
	.type	_ZN3MPI8Datatype6CommitEv,@function
_ZN3MPI8Datatype6CommitEv:              # @_ZN3MPI8Datatype6CommitEv
.Lfunc_begin18:
	.loc	8 137 0                 # /usr/lib/x86_64-linux-gnu/openmpi/include/openmpi/ompi/mpi/cxx/datatype_inln.h:137:0
	.cfi_startproc
# %bb.0:                                # %L.entry
	#DEBUG_VALUE: Commit: <- $rdi
	#DEBUG_VALUE: Commit: <- $rdi
	pushq	%rbp
	.cfi_def_cfa_offset 16
	.cfi_offset %rbp, -16
	movq	%rsp, %rbp
	.cfi_def_cfa_register %rbp
.Ltmp134:
	#DEBUG_VALUE:  <- $rdi
	#DEBUG_VALUE:  <- $rdi
	.loc	8 138 1 prologue_end    # /usr/lib/x86_64-linux-gnu/openmpi/include/openmpi/ompi/mpi/cxx/datatype_inln.h:138:1
	addq	$8, %rdi
.Ltmp135:
	popq	%rbp
	.cfi_def_cfa %rsp, 8
	jmp	MPI_Type_commit         # TAILCALL
.Ltmp136:
.Lfunc_end18:
	.size	_ZN3MPI8Datatype6CommitEv, .Lfunc_end18-_ZN3MPI8Datatype6CommitEv
	.cfi_endproc
                                        # -- End function
	.weak	_ZNK3MPI8Datatype4PackEPKviPviRiRKNS_4CommE # -- Begin function _ZNK3MPI8Datatype4PackEPKviPviRiRKNS_4CommE
	.p2align	4, 0x90
	.type	_ZNK3MPI8Datatype4PackEPKviPviRiRKNS_4CommE,@function
_ZNK3MPI8Datatype4PackEPKviPviRiRKNS_4CommE: # @_ZNK3MPI8Datatype4PackEPKviPviRiRKNS_4CommE
.Lfunc_begin19:
	.loc	8 145 0                 # /usr/lib/x86_64-linux-gnu/openmpi/include/openmpi/ompi/mpi/cxx/datatype_inln.h:145:0
	.cfi_startproc
# %bb.0:                                # %L.entry
	#DEBUG_VALUE: Pack: <- $rdi
	#DEBUG_VALUE: Pack:inbuf <- $rsi
	#DEBUG_VALUE: Pack:incount <- $edx
	#DEBUG_VALUE: Pack:outbuf <- $rcx
	#DEBUG_VALUE: Pack:outsize <- $r8d
	#DEBUG_VALUE: Pack:position <- $r9
	pushq	%rbp
	.cfi_def_cfa_offset 16
	.cfi_offset %rbp, -16
	movq	%rsp, %rbp
	.cfi_def_cfa_register %rbp
	subq	$16, %rsp
.Ltmp137:
	#DEBUG_VALUE:  <- $rdi
	#DEBUG_VALUE: inbuf <- $rsi
	#DEBUG_VALUE: incount <- $edx
	#DEBUG_VALUE: outbuf <- $rcx
	#DEBUG_VALUE: outsize <- $r8d
	#DEBUG_VALUE: position <- $r9
	movq	16(%rbp), %r10
.Ltmp138:
	#DEBUG_VALUE: comm <- [DW_OP_plus_uconst 16] [$rbp+0]
	#DEBUG_VALUE: Pack:comm <- [DW_OP_plus_uconst 16] [$rbp+0]
	#DEBUG_VALUE: position <- $r9
	#DEBUG_VALUE: Pack:position <- $r9
	#DEBUG_VALUE: outsize <- $r8d
	#DEBUG_VALUE: Pack:outsize <- $r8d
	#DEBUG_VALUE: outbuf <- $rcx
	#DEBUG_VALUE: Pack:outbuf <- $rcx
	#DEBUG_VALUE: incount <- $edx
	#DEBUG_VALUE: Pack:incount <- $edx
	#DEBUG_VALUE: inbuf <- $rsi
	#DEBUG_VALUE: Pack:inbuf <- $rsi
	#DEBUG_VALUE:  <- $rdi
	#DEBUG_VALUE: Pack: <- $rdi
	.loc	8 80 1 prologue_end     # /usr/lib/x86_64-linux-gnu/openmpi/include/openmpi/ompi/mpi/cxx/datatype_inln.h:80:1
	movq	8(%rdi), %rax
	movq	8(%r10), %rdi
.Ltmp139:
	movq	%rdi, (%rsp)
	movq	%rsi, %rdi
.Ltmp140:
	#DEBUG_VALUE: inbuf <- $rdi
	#DEBUG_VALUE: Pack:inbuf <- $rdi
	movl	%edx, %esi
.Ltmp141:
	#DEBUG_VALUE: incount <- $esi
	#DEBUG_VALUE: Pack:incount <- $esi
	movq	%rax, %rdx
	#DEBUG_VALUE: position <- $r9
	#DEBUG_VALUE: Pack:position <- $r9
	#DEBUG_VALUE: outsize <- $r8d
	#DEBUG_VALUE: Pack:outsize <- $r8d
	#DEBUG_VALUE: outbuf <- $rcx
	#DEBUG_VALUE: Pack:outbuf <- $rcx
	callq	MPI_Pack
.Ltmp142:
	.loc	8 148 1                 # /usr/lib/x86_64-linux-gnu/openmpi/include/openmpi/ompi/mpi/cxx/datatype_inln.h:148:1
	addq	$16, %rsp
	popq	%rbp
	.cfi_def_cfa %rsp, 8
	retq
.Ltmp143:
.Lfunc_end19:
	.size	_ZNK3MPI8Datatype4PackEPKviPviRiRKNS_4CommE, .Lfunc_end19-_ZNK3MPI8Datatype4PackEPKviPviRiRKNS_4CommE
	.cfi_endproc
                                        # -- End function
	.weak	_ZNK3MPI8Datatype6UnpackEPKviPviRiRKNS_4CommE # -- Begin function _ZNK3MPI8Datatype6UnpackEPKviPviRiRKNS_4CommE
	.p2align	4, 0x90
	.type	_ZNK3MPI8Datatype6UnpackEPKviPviRiRKNS_4CommE,@function
_ZNK3MPI8Datatype6UnpackEPKviPviRiRKNS_4CommE: # @_ZNK3MPI8Datatype6UnpackEPKviPviRiRKNS_4CommE
.Lfunc_begin20:
	.loc	8 154 0                 # /usr/lib/x86_64-linux-gnu/openmpi/include/openmpi/ompi/mpi/cxx/datatype_inln.h:154:0
	.cfi_startproc
# %bb.0:                                # %L.entry
	#DEBUG_VALUE: Unpack: <- $rdi
	#DEBUG_VALUE: Unpack:inbuf <- $rsi
	#DEBUG_VALUE: Unpack:insize <- $edx
	#DEBUG_VALUE: Unpack:outbuf <- $rcx
	#DEBUG_VALUE: Unpack:outcount <- $r8d
	#DEBUG_VALUE: Unpack:position <- $r9
	pushq	%rbp
	.cfi_def_cfa_offset 16
	.cfi_offset %rbp, -16
	movq	%rsp, %rbp
	.cfi_def_cfa_register %rbp
	subq	$16, %rsp
.Ltmp144:
	#DEBUG_VALUE:  <- $rdi
	#DEBUG_VALUE: inbuf <- $rsi
	#DEBUG_VALUE: insize <- $edx
	#DEBUG_VALUE: outbuf <- $rcx
	#DEBUG_VALUE: outcount <- $r8d
	#DEBUG_VALUE: position <- $r9
	movq	%r9, %rax
	movq	16(%rbp), %r10
.Ltmp145:
	#DEBUG_VALUE: comm <- [DW_OP_plus_uconst 16] [$rbp+0]
	#DEBUG_VALUE: Unpack:comm <- [DW_OP_plus_uconst 16] [$rbp+0]
	#DEBUG_VALUE: position <- $rax
	#DEBUG_VALUE: Unpack:position <- $rax
	#DEBUG_VALUE: outcount <- $r8d
	#DEBUG_VALUE: Unpack:outcount <- $r8d
	#DEBUG_VALUE: outbuf <- $rcx
	#DEBUG_VALUE: Unpack:outbuf <- $rcx
	#DEBUG_VALUE: insize <- $edx
	#DEBUG_VALUE: Unpack:insize <- $edx
	#DEBUG_VALUE: inbuf <- $rsi
	#DEBUG_VALUE: Unpack:inbuf <- $rsi
	#DEBUG_VALUE:  <- $rdi
	#DEBUG_VALUE: Unpack: <- $rdi
	.loc	8 80 1 prologue_end     # /usr/lib/x86_64-linux-gnu/openmpi/include/openmpi/ompi/mpi/cxx/datatype_inln.h:80:1
	movq	8(%rdi), %r9
	movq	8(%r10), %rdi
.Ltmp146:
	movq	%rdi, (%rsp)
	movq	%rsi, %rdi
.Ltmp147:
	#DEBUG_VALUE: inbuf <- $rdi
	#DEBUG_VALUE: Unpack:inbuf <- $rdi
	movl	%edx, %esi
.Ltmp148:
	#DEBUG_VALUE: insize <- $esi
	#DEBUG_VALUE: Unpack:insize <- $esi
	movq	%rax, %rdx
.Ltmp149:
	#DEBUG_VALUE: position <- $rdx
	#DEBUG_VALUE: Unpack:position <- $rdx
	#DEBUG_VALUE: outcount <- $r8d
	#DEBUG_VALUE: Unpack:outcount <- $r8d
	#DEBUG_VALUE: outbuf <- $rcx
	#DEBUG_VALUE: Unpack:outbuf <- $rcx
	callq	MPI_Unpack
.Ltmp150:
	.loc	8 157 1                 # /usr/lib/x86_64-linux-gnu/openmpi/include/openmpi/ompi/mpi/cxx/datatype_inln.h:157:1
	addq	$16, %rsp
	popq	%rbp
	.cfi_def_cfa %rsp, 8
	retq
.Ltmp151:
.Lfunc_end20:
	.size	_ZNK3MPI8Datatype6UnpackEPKviPviRiRKNS_4CommE, .Lfunc_end20-_ZNK3MPI8Datatype6UnpackEPKviPviRiRKNS_4CommE
	.cfi_endproc
                                        # -- End function
	.weak	_ZNK3MPI8Datatype9Pack_sizeEiRKNS_4CommE # -- Begin function _ZNK3MPI8Datatype9Pack_sizeEiRKNS_4CommE
	.p2align	4, 0x90
	.type	_ZNK3MPI8Datatype9Pack_sizeEiRKNS_4CommE,@function
_ZNK3MPI8Datatype9Pack_sizeEiRKNS_4CommE: # @_ZNK3MPI8Datatype9Pack_sizeEiRKNS_4CommE
.Lfunc_begin21:
	.loc	8 161 0                 # /usr/lib/x86_64-linux-gnu/openmpi/include/openmpi/ompi/mpi/cxx/datatype_inln.h:161:0
	.cfi_startproc
# %bb.0:                                # %L.entry
	#DEBUG_VALUE: Pack_size: <- $rdi
	#DEBUG_VALUE: Pack_size:incount <- $esi
	#DEBUG_VALUE: Pack_size:comm <- $rdx
	pushq	%rbp
	.cfi_def_cfa_offset 16
	.cfi_offset %rbp, -16
	movq	%rsp, %rbp
	.cfi_def_cfa_register %rbp
	subq	$16, %rsp
	movl	%esi, %eax
.Ltmp152:
	#DEBUG_VALUE: comm <- $rdx
	#DEBUG_VALUE: incount <- $eax
	#DEBUG_VALUE:  <- $rdi
	#DEBUG_VALUE: Pack_size:comm <- $rdx
	#DEBUG_VALUE: Pack_size:incount <- $eax
	#DEBUG_VALUE: Pack_size: <- $rdi
	.loc	8 80 1 prologue_end     # /usr/lib/x86_64-linux-gnu/openmpi/include/openmpi/ompi/mpi/cxx/datatype_inln.h:80:1
	movq	8(%rdi), %rsi
	movq	8(%rdx), %rdx
.Ltmp153:
	#DEBUG_VALUE: size <- [DW_OP_constu 4, DW_OP_minus, DW_OP_deref] $rbp
	.loc	8 0 1 is_stmt 0         # /usr/lib/x86_64-linux-gnu/openmpi/include/openmpi/ompi/mpi/cxx/datatype_inln.h:0:1
	leaq	-4(%rbp), %rcx
	.loc	8 80 1                  # /usr/lib/x86_64-linux-gnu/openmpi/include/openmpi/ompi/mpi/cxx/datatype_inln.h:80:1
	movl	%eax, %edi
.Ltmp154:
	#DEBUG_VALUE: Pack_size:incount <- $edi
	callq	MPI_Pack_size
.Ltmp155:
	.loc	8 164 1 is_stmt 1       # /usr/lib/x86_64-linux-gnu/openmpi/include/openmpi/ompi/mpi/cxx/datatype_inln.h:164:1
	movl	-4(%rbp), %eax
.Ltmp156:
	#DEBUG_VALUE: size <- $eax
	addq	$16, %rsp
	popq	%rbp
	.cfi_def_cfa %rsp, 8
	retq
.Ltmp157:
.Lfunc_end21:
	.size	_ZNK3MPI8Datatype9Pack_sizeEiRKNS_4CommE, .Lfunc_end21-_ZNK3MPI8Datatype9Pack_sizeEiRKNS_4CommE
	.cfi_endproc
                                        # -- End function
	.weak	_ZNK3MPI8Datatype13Pack_externalEPKcPKviPvlRl # -- Begin function _ZNK3MPI8Datatype13Pack_externalEPKcPKviPvlRl
	.p2align	4, 0x90
	.type	_ZNK3MPI8Datatype13Pack_externalEPKcPKviPvlRl,@function
_ZNK3MPI8Datatype13Pack_externalEPKcPKviPvlRl: # @_ZNK3MPI8Datatype13Pack_externalEPKcPKviPvlRl
.Lfunc_begin22:
	.loc	8 170 0                 # /usr/lib/x86_64-linux-gnu/openmpi/include/openmpi/ompi/mpi/cxx/datatype_inln.h:170:0
	.cfi_startproc
# %bb.0:                                # %L.entry
	#DEBUG_VALUE: Pack_external: <- $rdi
	#DEBUG_VALUE: Pack_external: <- $rdi
	#DEBUG_VALUE: Pack_external:datarep <- $rsi
	#DEBUG_VALUE: Pack_external:datarep <- $rsi
	#DEBUG_VALUE: Pack_external:inbuf <- $rdx
	#DEBUG_VALUE: Pack_external:inbuf <- $rdx
	#DEBUG_VALUE: Pack_external:incount <- $ecx
	#DEBUG_VALUE: Pack_external:incount <- $ecx
	#DEBUG_VALUE: Pack_external:outbuf <- $r8
	#DEBUG_VALUE: Pack_external:outbuf <- $r8
	#DEBUG_VALUE: Pack_external:outsize <- $r9
	#DEBUG_VALUE: Pack_external:outsize <- $r9
	pushq	%rbp
	.cfi_def_cfa_offset 16
	.cfi_offset %rbp, -16
	movq	%rsp, %rbp
	.cfi_def_cfa_register %rbp
.Ltmp158:
	#DEBUG_VALUE:  <- $rdi
	#DEBUG_VALUE:  <- $rdi
	#DEBUG_VALUE: datarep <- $rsi
	#DEBUG_VALUE: datarep <- $rsi
	#DEBUG_VALUE: inbuf <- $rdx
	#DEBUG_VALUE: inbuf <- $rdx
	#DEBUG_VALUE: incount <- $ecx
	#DEBUG_VALUE: incount <- $ecx
	#DEBUG_VALUE: outbuf <- $r8
	#DEBUG_VALUE: outbuf <- $r8
	#DEBUG_VALUE: outsize <- $r9
	#DEBUG_VALUE: outsize <- $r9
	#DEBUG_VALUE: Pack_external:position <- [DW_OP_plus_uconst 16] [$rbp+0]
	#DEBUG_VALUE: position <- [DW_OP_plus_uconst 16] [$rbp+0]
	.loc	8 171 1 prologue_end    # /usr/lib/x86_64-linux-gnu/openmpi/include/openmpi/ompi/mpi/cxx/datatype_inln.h:171:1
	movq	8(%rdi), %rax
	movq	%rsi, %rdi
.Ltmp159:
	#DEBUG_VALUE: datarep <- $rdi
	#DEBUG_VALUE: Pack_external:datarep <- $rdi
	movq	%rdx, %rsi
.Ltmp160:
	#DEBUG_VALUE: inbuf <- $rsi
	#DEBUG_VALUE: Pack_external:inbuf <- $rsi
	movl	%ecx, %edx
.Ltmp161:
	#DEBUG_VALUE: incount <- $edx
	#DEBUG_VALUE: Pack_external:incount <- $edx
	movq	%rax, %rcx
	#DEBUG_VALUE: outsize <- $r9
	#DEBUG_VALUE: Pack_external:outsize <- $r9
	#DEBUG_VALUE: outbuf <- $r8
	#DEBUG_VALUE: Pack_external:outbuf <- $r8
	popq	%rbp
	.cfi_def_cfa %rsp, 8
	jmp	MPI_Pack_external       # TAILCALL
.Ltmp162:
.Lfunc_end22:
	.size	_ZNK3MPI8Datatype13Pack_externalEPKcPKviPvlRl, .Lfunc_end22-_ZNK3MPI8Datatype13Pack_externalEPKcPKviPvlRl
	.cfi_endproc
                                        # -- End function
	.weak	_ZNK3MPI8Datatype18Pack_external_sizeEPKci # -- Begin function _ZNK3MPI8Datatype18Pack_external_sizeEPKci
	.p2align	4, 0x90
	.type	_ZNK3MPI8Datatype18Pack_external_sizeEPKci,@function
_ZNK3MPI8Datatype18Pack_external_sizeEPKci: # @_ZNK3MPI8Datatype18Pack_external_sizeEPKci
.Lfunc_begin23:
	.loc	8 177 0                 # /usr/lib/x86_64-linux-gnu/openmpi/include/openmpi/ompi/mpi/cxx/datatype_inln.h:177:0
	.cfi_startproc
# %bb.0:                                # %L.entry
	#DEBUG_VALUE: Pack_external_size: <- $rdi
	#DEBUG_VALUE: Pack_external_size: <- $rdi
	#DEBUG_VALUE: Pack_external_size:datarep <- $rsi
	#DEBUG_VALUE: Pack_external_size:datarep <- $rsi
	#DEBUG_VALUE: Pack_external_size:incount <- $edx
	#DEBUG_VALUE: Pack_external_size:incount <- $edx
	pushq	%rbp
	.cfi_def_cfa_offset 16
	.cfi_offset %rbp, -16
	movq	%rsp, %rbp
	.cfi_def_cfa_register %rbp
	subq	$16, %rsp
.Ltmp163:
	#DEBUG_VALUE:  <- $rdi
	#DEBUG_VALUE: datarep <- $rsi
	#DEBUG_VALUE: incount <- $edx
	.loc	8 179 1 prologue_end    # /usr/lib/x86_64-linux-gnu/openmpi/include/openmpi/ompi/mpi/cxx/datatype_inln.h:179:1
	movq	8(%rdi), %rax
.Ltmp164:
	#DEBUG_VALUE: addr <- [DW_OP_constu 8, DW_OP_minus, DW_OP_deref] $rbp
	.loc	8 0 1 is_stmt 0         # /usr/lib/x86_64-linux-gnu/openmpi/include/openmpi/ompi/mpi/cxx/datatype_inln.h:0:1
	leaq	-8(%rbp), %rcx
	.loc	8 179 1                 # /usr/lib/x86_64-linux-gnu/openmpi/include/openmpi/ompi/mpi/cxx/datatype_inln.h:179:1
	movq	%rsi, %rdi
.Ltmp165:
	#DEBUG_VALUE: Pack_external_size:datarep <- $rdi
	movl	%edx, %esi
.Ltmp166:
	#DEBUG_VALUE: Pack_external_size:incount <- $esi
	movq	%rax, %rdx
.Ltmp167:
	callq	MPI_Pack_external_size
.Ltmp168:
	.loc	8 180 1 is_stmt 1       # /usr/lib/x86_64-linux-gnu/openmpi/include/openmpi/ompi/mpi/cxx/datatype_inln.h:180:1
	movq	-8(%rbp), %rax
.Ltmp169:
	#DEBUG_VALUE: addr <- $rax
	addq	$16, %rsp
	popq	%rbp
	.cfi_def_cfa %rsp, 8
	retq
.Ltmp170:
.Lfunc_end23:
	.size	_ZNK3MPI8Datatype18Pack_external_sizeEPKci, .Lfunc_end23-_ZNK3MPI8Datatype18Pack_external_sizeEPKci
	.cfi_endproc
                                        # -- End function
	.weak	_ZNK3MPI8Datatype15Unpack_externalEPKcPKvlRlPvi # -- Begin function _ZNK3MPI8Datatype15Unpack_externalEPKcPKvlRlPvi
	.p2align	4, 0x90
	.type	_ZNK3MPI8Datatype15Unpack_externalEPKcPKvlRlPvi,@function
_ZNK3MPI8Datatype15Unpack_externalEPKcPKvlRlPvi: # @_ZNK3MPI8Datatype15Unpack_externalEPKcPKvlRlPvi
.Lfunc_begin24:
	.loc	8 186 0                 # /usr/lib/x86_64-linux-gnu/openmpi/include/openmpi/ompi/mpi/cxx/datatype_inln.h:186:0
	.cfi_startproc
# %bb.0:                                # %L.entry
	#DEBUG_VALUE: Unpack_external: <- $rdi
	#DEBUG_VALUE: Unpack_external:datarep <- $rsi
	#DEBUG_VALUE: Unpack_external:inbuf <- $rdx
	#DEBUG_VALUE: Unpack_external:insize <- $rcx
	#DEBUG_VALUE: Unpack_external:position <- $r8
	#DEBUG_VALUE: Unpack_external:outbuf <- $r9
	pushq	%rbp
	.cfi_def_cfa_offset 16
	.cfi_offset %rbp, -16
	movq	%rsp, %rbp
	.cfi_def_cfa_register %rbp
	subq	$16, %rsp
.Ltmp171:
	#DEBUG_VALUE:  <- $rdi
	#DEBUG_VALUE: datarep <- $rsi
	#DEBUG_VALUE: inbuf <- $rdx
	#DEBUG_VALUE: insize <- $rcx
	#DEBUG_VALUE: position <- $r8
	#DEBUG_VALUE: outbuf <- $r9
	movq	%r9, %rax
	movl	16(%rbp), %r9d
.Ltmp172:
	#DEBUG_VALUE: outcount <- [DW_OP_plus_uconst 16] [$rbp+0]
	#DEBUG_VALUE: Unpack_external:outcount <- [DW_OP_plus_uconst 16] [$rbp+0]
	#DEBUG_VALUE: outbuf <- $rax
	#DEBUG_VALUE: Unpack_external:outbuf <- $rax
	#DEBUG_VALUE: position <- $r8
	#DEBUG_VALUE: Unpack_external:position <- $r8
	#DEBUG_VALUE: insize <- $rcx
	#DEBUG_VALUE: Unpack_external:insize <- $rcx
	#DEBUG_VALUE: inbuf <- $rdx
	#DEBUG_VALUE: Unpack_external:inbuf <- $rdx
	#DEBUG_VALUE: datarep <- $rsi
	#DEBUG_VALUE: Unpack_external:datarep <- $rsi
	#DEBUG_VALUE:  <- $rdi
	#DEBUG_VALUE: Unpack_external: <- $rdi
	.loc	8 187 1 prologue_end    # /usr/lib/x86_64-linux-gnu/openmpi/include/openmpi/ompi/mpi/cxx/datatype_inln.h:187:1
	movq	8(%rdi), %rdi
.Ltmp173:
	movq	%rdi, (%rsp)
	movq	%rsi, %rdi
.Ltmp174:
	#DEBUG_VALUE: datarep <- $rdi
	#DEBUG_VALUE: Unpack_external:datarep <- $rdi
	movq	%rdx, %rsi
.Ltmp175:
	#DEBUG_VALUE: inbuf <- $rsi
	#DEBUG_VALUE: Unpack_external:inbuf <- $rsi
	movq	%rcx, %rdx
.Ltmp176:
	#DEBUG_VALUE: insize <- $rdx
	#DEBUG_VALUE: Unpack_external:insize <- $rdx
	movq	%r8, %rcx
.Ltmp177:
	#DEBUG_VALUE: position <- $rcx
	#DEBUG_VALUE: Unpack_external:position <- $rcx
	movq	%rax, %r8
.Ltmp178:
	#DEBUG_VALUE: outbuf <- $r8
	#DEBUG_VALUE: Unpack_external:outbuf <- $r8
	callq	MPI_Unpack_external
.Ltmp179:
	.loc	8 189 1                 # /usr/lib/x86_64-linux-gnu/openmpi/include/openmpi/ompi/mpi/cxx/datatype_inln.h:189:1
	addq	$16, %rsp
	popq	%rbp
	.cfi_def_cfa %rsp, 8
	retq
.Ltmp180:
.Lfunc_end24:
	.size	_ZNK3MPI8Datatype15Unpack_externalEPKcPKvlRlPvi, .Lfunc_end24-_ZNK3MPI8Datatype15Unpack_externalEPKcPKvlRlPvi
	.cfi_endproc
                                        # -- End function
	.weak	_ZNK3MPI8Datatype15Create_subarrayEiPKiS2_S2_i # -- Begin function _ZNK3MPI8Datatype15Create_subarrayEiPKiS2_S2_i
	.p2align	4, 0x90
	.type	_ZNK3MPI8Datatype15Create_subarrayEiPKiS2_S2_i,@function
_ZNK3MPI8Datatype15Create_subarrayEiPKiS2_S2_i: # @_ZNK3MPI8Datatype15Create_subarrayEiPKiS2_S2_i
.Lfunc_begin25:
	.loc	8 200 0                 # /usr/lib/x86_64-linux-gnu/openmpi/include/openmpi/ompi/mpi/cxx/datatype_inln.h:200:0
	.cfi_startproc
# %bb.0:                                # %L.entry
	#DEBUG_VALUE: Create_subarray: <- $rsi
	#DEBUG_VALUE: Create_subarray:ndims <- $edx
	#DEBUG_VALUE: Create_subarray:array_of_sizes <- $rcx
	#DEBUG_VALUE: Create_subarray:array_of_subsizes <- $r8
	#DEBUG_VALUE: Create_subarray:array_of_starts <- $r9
	pushq	%rbp
	.cfi_def_cfa_offset 16
	.cfi_offset %rbp, -16
	movq	%rsp, %rbp
	.cfi_def_cfa_register %rbp
	pushq	%rbx
	subq	$24, %rsp
	.cfi_offset %rbx, -24
	movq	%r9, %r10
	movq	%r8, %rax
	movq	%rdi, %rbx
	movl	16(%rbp), %r8d
.Ltmp181:
	#DEBUG_VALUE:  <- $rsi
	#DEBUG_VALUE: order <- $r8d
	#DEBUG_VALUE: array_of_starts <- $r10
	#DEBUG_VALUE: array_of_subsizes <- $rax
	#DEBUG_VALUE: array_of_sizes <- $rcx
	#DEBUG_VALUE: ndims <- $edx
	#DEBUG_VALUE: Create_subarray:order <- [DW_OP_plus_uconst 16] [$rbp+0]
	#DEBUG_VALUE: Create_subarray:array_of_starts <- $r10
	#DEBUG_VALUE: Create_subarray:array_of_subsizes <- $rax
	#DEBUG_VALUE: Create_subarray:array_of_sizes <- $rcx
	#DEBUG_VALUE: Create_subarray:ndims <- $edx
	#DEBUG_VALUE: Create_subarray: <- $rsi
	.loc	8 202 1 prologue_end    # /usr/lib/x86_64-linux-gnu/openmpi/include/openmpi/ompi/mpi/cxx/datatype_inln.h:202:1
	movq	8(%rsi), %r9
.Ltmp182:
	#DEBUG_VALUE: type <- [DW_OP_constu 16, DW_OP_minus, DW_OP_deref] $rbp
	.loc	8 0 1 is_stmt 0         # /usr/lib/x86_64-linux-gnu/openmpi/include/openmpi/ompi/mpi/cxx/datatype_inln.h:0:1
	leaq	-16(%rbp), %rsi
.Ltmp183:
	.loc	8 202 1                 # /usr/lib/x86_64-linux-gnu/openmpi/include/openmpi/ompi/mpi/cxx/datatype_inln.h:202:1
	movq	%rsi, (%rsp)
	movl	%edx, %edi
.Ltmp184:
	#DEBUG_VALUE: Create_subarray:ndims <- $edi
	movq	%rcx, %rsi
.Ltmp185:
	#DEBUG_VALUE: Create_subarray:array_of_sizes <- $rsi
	movq	%rax, %rdx
.Ltmp186:
	#DEBUG_VALUE: Create_subarray:array_of_subsizes <- $rdx
	movq	%r10, %rcx
.Ltmp187:
	#DEBUG_VALUE: Create_subarray:array_of_starts <- $rcx
	callq	MPI_Type_create_subarray
.Ltmp188:
	.loc	8 206 1 is_stmt 1       # /usr/lib/x86_64-linux-gnu/openmpi/include/openmpi/ompi/mpi/cxx/datatype_inln.h:206:1
	movq	-16(%rbp), %rax
.Ltmp189:
	#DEBUG_VALUE: type <- undef
	movq	$_ZTVN3MPI8DatatypeE+16, (%rbx)
	.loc	8 72 1                  # /usr/lib/x86_64-linux-gnu/openmpi/include/openmpi/ompi/mpi/cxx/datatype_inln.h:72:1
	movq	%rax, 8(%rbx)
	.loc	8 207 1                 # /usr/lib/x86_64-linux-gnu/openmpi/include/openmpi/ompi/mpi/cxx/datatype_inln.h:207:1
	movq	%rbx, %rax
	addq	$24, %rsp
	popq	%rbx
	popq	%rbp
	.cfi_def_cfa %rsp, 8
	retq
.Ltmp190:
.Lfunc_end25:
	.size	_ZNK3MPI8Datatype15Create_subarrayEiPKiS2_S2_i, .Lfunc_end25-_ZNK3MPI8Datatype15Create_subarrayEiPKiS2_S2_i
	.cfi_endproc
                                        # -- End function
	.weak	_ZNK3MPI8Datatype13Create_darrayEiiiPKiS2_S2_S2_i # -- Begin function _ZNK3MPI8Datatype13Create_darrayEiiiPKiS2_S2_S2_i
	.p2align	4, 0x90
	.type	_ZNK3MPI8Datatype13Create_darrayEiiiPKiS2_S2_S2_i,@function
_ZNK3MPI8Datatype13Create_darrayEiiiPKiS2_S2_S2_i: # @_ZNK3MPI8Datatype13Create_darrayEiiiPKiS2_S2_S2_i
.Lfunc_begin26:
	.loc	8 214 0                 # /usr/lib/x86_64-linux-gnu/openmpi/include/openmpi/ompi/mpi/cxx/datatype_inln.h:214:0
	.cfi_startproc
# %bb.0:                                # %L.entry
	#DEBUG_VALUE: Create_darray: <- $rsi
	#DEBUG_VALUE: Create_darray:size <- $edx
	#DEBUG_VALUE: Create_darray:rank <- $ecx
	#DEBUG_VALUE: Create_darray:ndims <- $r8d
	#DEBUG_VALUE: Create_darray:array_of_gsizes <- $r9
	pushq	%rbp
	.cfi_def_cfa_offset 16
	.cfi_offset %rbp, -16
	movq	%rsp, %rbp
	.cfi_def_cfa_register %rbp
	pushq	%r15
	pushq	%r14
	pushq	%rbx
	pushq	%rax
	.cfi_offset %rbx, -40
	.cfi_offset %r14, -32
	.cfi_offset %r15, -24
	movq	%r9, %r11
	movl	%r8d, %eax
	movq	%rsi, %r10
	movq	%rdi, %rbx
	movq	16(%rbp), %r8
.Ltmp191:
	movq	24(%rbp), %r9
.Ltmp192:
	#DEBUG_VALUE: array_of_psizes <- undef
	movl	40(%rbp), %r14d
.Ltmp193:
	#DEBUG_VALUE: type <- [DW_OP_constu 32, DW_OP_minus, DW_OP_deref] $rbp
	#DEBUG_VALUE:  <- $r10
	#DEBUG_VALUE: order <- $r14d
	#DEBUG_VALUE: array_of_dargs <- $r9
	#DEBUG_VALUE: array_of_distribs <- $r8
	#DEBUG_VALUE: array_of_gsizes <- $r11
	#DEBUG_VALUE: ndims <- $eax
	#DEBUG_VALUE: rank <- $ecx
	#DEBUG_VALUE: size <- $edx
	#DEBUG_VALUE: Create_darray:order <- [DW_OP_plus_uconst 40] [$rbp+0]
	#DEBUG_VALUE: Create_darray:array_of_psizes <- [DW_OP_plus_uconst 32] [$rbp+0]
	#DEBUG_VALUE: Create_darray:array_of_dargs <- [DW_OP_plus_uconst 24] [$rbp+0]
	#DEBUG_VALUE: Create_darray:array_of_distribs <- [DW_OP_plus_uconst 16] [$rbp+0]
	#DEBUG_VALUE: Create_darray:array_of_gsizes <- $r11
	#DEBUG_VALUE: Create_darray:ndims <- $eax
	#DEBUG_VALUE: Create_darray:rank <- $ecx
	#DEBUG_VALUE: Create_darray:size <- $edx
	#DEBUG_VALUE: Create_darray: <- $r10
	leaq	-32(%rbp), %r15
.Ltmp194:
	.loc	8 216 1 prologue_end    # /usr/lib/x86_64-linux-gnu/openmpi/include/openmpi/ompi/mpi/cxx/datatype_inln.h:216:1
	movl	%edx, %edi
.Ltmp195:
	#DEBUG_VALUE: Create_darray:size <- $edi
	movl	%ecx, %esi
.Ltmp196:
	#DEBUG_VALUE: Create_darray:rank <- $esi
	movl	%eax, %edx
.Ltmp197:
	#DEBUG_VALUE: Create_darray:ndims <- $edx
	movq	%r11, %rcx
.Ltmp198:
	#DEBUG_VALUE: Create_darray:array_of_gsizes <- $rcx
	pushq	%r15
	pushq	8(%r10)
	pushq	%r14
	pushq	32(%rbp)
	callq	MPI_Type_create_darray
.Ltmp199:
	addq	$32, %rsp
	.loc	8 222 1                 # /usr/lib/x86_64-linux-gnu/openmpi/include/openmpi/ompi/mpi/cxx/datatype_inln.h:222:1
	movq	-32(%rbp), %rax
.Ltmp200:
	#DEBUG_VALUE: type <- undef
	movq	$_ZTVN3MPI8DatatypeE+16, (%rbx)
	.loc	8 72 1                  # /usr/lib/x86_64-linux-gnu/openmpi/include/openmpi/ompi/mpi/cxx/datatype_inln.h:72:1
	movq	%rax, 8(%rbx)
	.loc	8 223 1                 # /usr/lib/x86_64-linux-gnu/openmpi/include/openmpi/ompi/mpi/cxx/datatype_inln.h:223:1
	movq	%rbx, %rax
	addq	$8, %rsp
	popq	%rbx
	popq	%r14
.Ltmp201:
	popq	%r15
	popq	%rbp
	.cfi_def_cfa %rsp, 8
	retq
.Ltmp202:
.Lfunc_end26:
	.size	_ZNK3MPI8Datatype13Create_darrayEiiiPKiS2_S2_S2_i, .Lfunc_end26-_ZNK3MPI8Datatype13Create_darrayEiiiPKiS2_S2_S2_i
	.cfi_endproc
                                        # -- End function
	.weak	_ZNK3MPI8Datatype3DupEv # -- Begin function _ZNK3MPI8Datatype3DupEv
	.p2align	4, 0x90
	.type	_ZNK3MPI8Datatype3DupEv,@function
_ZNK3MPI8Datatype3DupEv:                # @_ZNK3MPI8Datatype3DupEv
.Lfunc_begin27:
	.loc	8 264 0                 # /usr/lib/x86_64-linux-gnu/openmpi/include/openmpi/ompi/mpi/cxx/datatype_inln.h:264:0
	.cfi_startproc
# %bb.0:                                # %L.entry
	#DEBUG_VALUE: Dup: <- $rsi
	pushq	%rbp
	.cfi_def_cfa_offset 16
	.cfi_offset %rbp, -16
	movq	%rsp, %rbp
	.cfi_def_cfa_register %rbp
	pushq	%rbx
	pushq	%rax
	.cfi_offset %rbx, -24
	movq	%rdi, %rbx
.Ltmp203:
	#DEBUG_VALUE:  <- $rsi
	#DEBUG_VALUE: Dup: <- $rsi
	.loc	8 266 1 prologue_end    # /usr/lib/x86_64-linux-gnu/openmpi/include/openmpi/ompi/mpi/cxx/datatype_inln.h:266:1
	movq	8(%rsi), %rdi
.Ltmp204:
	#DEBUG_VALUE: type <- [DW_OP_constu 16, DW_OP_minus, DW_OP_deref] $rbp
	.loc	8 0 1 is_stmt 0         # /usr/lib/x86_64-linux-gnu/openmpi/include/openmpi/ompi/mpi/cxx/datatype_inln.h:0:1
	leaq	-16(%rbp), %rsi
.Ltmp205:
	.loc	8 266 1                 # /usr/lib/x86_64-linux-gnu/openmpi/include/openmpi/ompi/mpi/cxx/datatype_inln.h:266:1
	callq	MPI_Type_dup
	.loc	8 267 1 is_stmt 1       # /usr/lib/x86_64-linux-gnu/openmpi/include/openmpi/ompi/mpi/cxx/datatype_inln.h:267:1
	movq	-16(%rbp), %rax
.Ltmp206:
	#DEBUG_VALUE: type <- undef
	movq	$_ZTVN3MPI8DatatypeE+16, (%rbx)
	.loc	8 72 1                  # /usr/lib/x86_64-linux-gnu/openmpi/include/openmpi/ompi/mpi/cxx/datatype_inln.h:72:1
	movq	%rax, 8(%rbx)
	.loc	8 268 1                 # /usr/lib/x86_64-linux-gnu/openmpi/include/openmpi/ompi/mpi/cxx/datatype_inln.h:268:1
	movq	%rbx, %rax
	addq	$8, %rsp
	popq	%rbx
	popq	%rbp
	.cfi_def_cfa %rsp, 8
	retq
.Ltmp207:
.Lfunc_end27:
	.size	_ZNK3MPI8Datatype3DupEv, .Lfunc_end27-_ZNK3MPI8Datatype3DupEv
	.cfi_endproc
                                        # -- End function
	.weak	_ZN3MPI8Datatype11Delete_attrEi # -- Begin function _ZN3MPI8Datatype11Delete_attrEi
	.p2align	4, 0x90
	.type	_ZN3MPI8Datatype11Delete_attrEi,@function
_ZN3MPI8Datatype11Delete_attrEi:        # @_ZN3MPI8Datatype11Delete_attrEi
.Lfunc_begin28:
	.loc	8 333 0                 # /usr/lib/x86_64-linux-gnu/openmpi/include/openmpi/ompi/mpi/cxx/datatype_inln.h:333:0
	.cfi_startproc
# %bb.0:                                # %L.entry
	#DEBUG_VALUE: Delete_attr: <- $rdi
	#DEBUG_VALUE: Delete_attr: <- $rdi
	#DEBUG_VALUE: Delete_attr:type_keyval <- $esi
	#DEBUG_VALUE: Delete_attr:type_keyval <- $esi
	pushq	%rbp
	.cfi_def_cfa_offset 16
	.cfi_offset %rbp, -16
	movq	%rsp, %rbp
	.cfi_def_cfa_register %rbp
.Ltmp208:
	#DEBUG_VALUE:  <- $rdi
	#DEBUG_VALUE:  <- $rdi
	#DEBUG_VALUE: type_keyval <- $esi
	#DEBUG_VALUE: type_keyval <- $esi
	.loc	8 334 1 prologue_end    # /usr/lib/x86_64-linux-gnu/openmpi/include/openmpi/ompi/mpi/cxx/datatype_inln.h:334:1
	movq	8(%rdi), %rdi
.Ltmp209:
	#DEBUG_VALUE: type_keyval <- $esi
	#DEBUG_VALUE: Delete_attr:type_keyval <- $esi
	popq	%rbp
	.cfi_def_cfa %rsp, 8
	jmp	MPI_Type_delete_attr    # TAILCALL
.Ltmp210:
.Lfunc_end28:
	.size	_ZN3MPI8Datatype11Delete_attrEi, .Lfunc_end28-_ZN3MPI8Datatype11Delete_attrEi
	.cfi_endproc
                                        # -- End function
	.weak	_ZNK3MPI8Datatype8Get_attrEiPv # -- Begin function _ZNK3MPI8Datatype8Get_attrEiPv
	.p2align	4, 0x90
	.type	_ZNK3MPI8Datatype8Get_attrEiPv,@function
_ZNK3MPI8Datatype8Get_attrEiPv:         # @_ZNK3MPI8Datatype8Get_attrEiPv
.Lfunc_begin29:
	.loc	8 346 0                 # /usr/lib/x86_64-linux-gnu/openmpi/include/openmpi/ompi/mpi/cxx/datatype_inln.h:346:0
	.cfi_startproc
# %bb.0:                                # %L.entry
	#DEBUG_VALUE: Get_attr: <- $rdi
	#DEBUG_VALUE: Get_attr: <- $rdi
	#DEBUG_VALUE: Get_attr:type_keyval <- $esi
	#DEBUG_VALUE: Get_attr:type_keyval <- $esi
	#DEBUG_VALUE: Get_attr:attribute_val <- $rdx
	#DEBUG_VALUE: Get_attr:attribute_val <- $rdx
	pushq	%rbp
	.cfi_def_cfa_offset 16
	.cfi_offset %rbp, -16
	movq	%rsp, %rbp
	.cfi_def_cfa_register %rbp
	subq	$16, %rsp
.Ltmp211:
	#DEBUG_VALUE:  <- $rdi
	#DEBUG_VALUE: type_keyval <- $esi
	#DEBUG_VALUE: attribute_val <- $rdx
	.loc	8 348 1 prologue_end    # /usr/lib/x86_64-linux-gnu/openmpi/include/openmpi/ompi/mpi/cxx/datatype_inln.h:348:1
	movq	8(%rdi), %rdi
.Ltmp212:
	#DEBUG_VALUE: ret <- [DW_OP_constu 4, DW_OP_minus, DW_OP_deref] $rbp
	.loc	8 0 1 is_stmt 0         # /usr/lib/x86_64-linux-gnu/openmpi/include/openmpi/ompi/mpi/cxx/datatype_inln.h:0:1
	leaq	-4(%rbp), %rcx
	#DEBUG_VALUE: Get_attr:attribute_val <- $rdx
	#DEBUG_VALUE: Get_attr:type_keyval <- $esi
	.loc	8 348 1                 # /usr/lib/x86_64-linux-gnu/openmpi/include/openmpi/ompi/mpi/cxx/datatype_inln.h:348:1
	callq	MPI_Type_get_attr
.Ltmp213:
	#DEBUG_VALUE: ret <- undef
	.loc	8 349 1 is_stmt 1       # /usr/lib/x86_64-linux-gnu/openmpi/include/openmpi/ompi/mpi/cxx/datatype_inln.h:349:1
	cmpl	$0, -4(%rbp)
	setne	%al
	addq	$16, %rsp
	popq	%rbp
	.cfi_def_cfa %rsp, 8
	retq
.Ltmp214:
.Lfunc_end29:
	.size	_ZNK3MPI8Datatype8Get_attrEiPv, .Lfunc_end29-_ZNK3MPI8Datatype8Get_attrEiPv
	.cfi_endproc
                                        # -- End function
	.weak	_ZNK3MPI8Datatype12Get_contentsEiiiPiPlPS0_ # -- Begin function _ZNK3MPI8Datatype12Get_contentsEiiiPiPlPS0_
	.p2align	4, 0x90
	.type	_ZNK3MPI8Datatype12Get_contentsEiiiPiPlPS0_,@function
_ZNK3MPI8Datatype12Get_contentsEiiiPiPlPS0_: # @_ZNK3MPI8Datatype12Get_contentsEiiiPiPlPS0_
.Lfunc_begin30:
	.loc	8 358 0                 # /usr/lib/x86_64-linux-gnu/openmpi/include/openmpi/ompi/mpi/cxx/datatype_inln.h:358:0
	.cfi_startproc
# %bb.0:                                # %L.entry
	#DEBUG_VALUE: Get_contents: <- $rdi
	#DEBUG_VALUE: Get_contents:max_integers <- $esi
	#DEBUG_VALUE: Get_contents:max_addresses <- $edx
	#DEBUG_VALUE: Get_contents:max_datatypes <- $ecx
	#DEBUG_VALUE: Get_contents:array_of_integers <- $r8
	#DEBUG_VALUE: Get_contents:array_of_addresses <- $r9
	pushq	%rbp
	.cfi_def_cfa_offset 16
	.cfi_offset %rbp, -16
	movq	%rsp, %rbp
	.cfi_def_cfa_register %rbp
	pushq	%r15
	pushq	%r14
	pushq	%r13
	pushq	%r12
	pushq	%rbx
	subq	$40, %rsp
	.cfi_offset %rbx, -56
	.cfi_offset %r12, -48
	.cfi_offset %r13, -40
	.cfi_offset %r14, -32
	.cfi_offset %r15, -24
.Ltmp215:
	#DEBUG_VALUE:  <- $rdi
	#DEBUG_VALUE: max_integers <- $esi
	#DEBUG_VALUE: max_addresses <- $edx
	#DEBUG_VALUE: max_datatypes <- $ecx
	#DEBUG_VALUE: array_of_integers <- $r8
	#DEBUG_VALUE: array_of_addresses <- $r9
	movq	%r9, -72(%rbp)          # 8-byte Spill
	movq	%r8, -64(%rbp)          # 8-byte Spill
	movl	%ecx, %r13d
	movl	%edx, -52(%rbp)         # 4-byte Spill
	movl	%esi, %r15d
	movq	%rdi, %r12
	movq	16(%rbp), %rax
	movq	%rax, -48(%rbp)         # 8-byte Spill
.Ltmp216:
	#DEBUG_VALUE: array_of_datatypes <- [DW_OP_plus_uconst 16] [$rbp+0]
	#DEBUG_VALUE: Get_contents:array_of_datatypes <- [DW_OP_plus_uconst 16] [$rbp+0]
	#DEBUG_VALUE: array_of_addresses <- [DW_OP_constu 72, DW_OP_minus] [$rbp+0]
	#DEBUG_VALUE: Get_contents:array_of_addresses <- [DW_OP_constu 72, DW_OP_minus] [$rbp+0]
	#DEBUG_VALUE: array_of_integers <- [DW_OP_constu 64, DW_OP_minus] [$rbp+0]
	#DEBUG_VALUE: Get_contents:array_of_integers <- [DW_OP_constu 64, DW_OP_minus] [$rbp+0]
	#DEBUG_VALUE: max_datatypes <- $r13d
	#DEBUG_VALUE: Get_contents:max_datatypes <- $r13d
	#DEBUG_VALUE: max_addresses <- [DW_OP_constu 52, DW_OP_minus] [$rbp+0]
	#DEBUG_VALUE: Get_contents:max_addresses <- [DW_OP_constu 52, DW_OP_minus] [$rbp+0]
	#DEBUG_VALUE: max_integers <- $r15d
	#DEBUG_VALUE: Get_contents:max_integers <- $r15d
	#DEBUG_VALUE:  <- $r12
	#DEBUG_VALUE: Get_contents: <- $r12
	.loc	8 360 1 prologue_end    # /usr/lib/x86_64-linux-gnu/openmpi/include/openmpi/ompi/mpi/cxx/datatype_inln.h:360:1
	movslq	%ecx, %r14
	leaq	(,%r14,8), %rdi
	callq	_Znam
	movq	%rax, %rbx
.Ltmp217:
	#DEBUG_VALUE: c_datatypes <- $rbx
	.loc	8 362 1                 # /usr/lib/x86_64-linux-gnu/openmpi/include/openmpi/ompi/mpi/cxx/datatype_inln.h:362:1
	movq	8(%r12), %rdi
	movq	%rax, (%rsp)
	movl	%r15d, %esi
.Ltmp218:
	#DEBUG_VALUE: max_integers <- $esi
	#DEBUG_VALUE: Get_contents:max_integers <- $esi
	.loc	8 0 1 is_stmt 0         # /usr/lib/x86_64-linux-gnu/openmpi/include/openmpi/ompi/mpi/cxx/datatype_inln.h:0:1
	movl	-52(%rbp), %edx         # 4-byte Reload
.Ltmp219:
	#DEBUG_VALUE: max_addresses <- $edx
	#DEBUG_VALUE: Get_contents:max_addresses <- $edx
	.loc	8 362 1                 # /usr/lib/x86_64-linux-gnu/openmpi/include/openmpi/ompi/mpi/cxx/datatype_inln.h:362:1
	movl	%r14d, %ecx
	movq	-64(%rbp), %r8          # 8-byte Reload
.Ltmp220:
	#DEBUG_VALUE: array_of_integers <- $r8
	#DEBUG_VALUE: Get_contents:array_of_integers <- $r8
	.loc	8 0 1                   # /usr/lib/x86_64-linux-gnu/openmpi/include/openmpi/ompi/mpi/cxx/datatype_inln.h:0:1
	movq	-72(%rbp), %r9          # 8-byte Reload
.Ltmp221:
	#DEBUG_VALUE: array_of_addresses <- $r9
	#DEBUG_VALUE: Get_contents:array_of_addresses <- $r9
	.loc	8 362 1                 # /usr/lib/x86_64-linux-gnu/openmpi/include/openmpi/ompi/mpi/cxx/datatype_inln.h:362:1
	callq	MPI_Type_get_contents
.Ltmp222:
	#DEBUG_VALUE: max_datatypes <- $r13d
	#DEBUG_VALUE: Get_contents:max_datatypes <- $r13d
	.loc	8 369 1 is_stmt 1       # /usr/lib/x86_64-linux-gnu/openmpi/include/openmpi/ompi/mpi/cxx/datatype_inln.h:369:1
	testl	%r14d, %r14d
	jle	.LBB30_13
.Ltmp223:
# %bb.1:                                # %L.B1776
	#DEBUG_VALUE: c_datatypes <- $rbx
	#DEBUG_VALUE: Get_contents: <- $r12
	#DEBUG_VALUE:  <- $r12
	#DEBUG_VALUE: Get_contents:max_datatypes <- $r13d
	#DEBUG_VALUE: max_datatypes <- $r13d
	#DEBUG_VALUE: Get_contents:array_of_datatypes <- [DW_OP_plus_uconst 16] [$rbp+0]
	#DEBUG_VALUE: array_of_datatypes <- [DW_OP_plus_uconst 16] [$rbp+0]
	.loc	8 0 1 is_stmt 0         # /usr/lib/x86_64-linux-gnu/openmpi/include/openmpi/ompi/mpi/cxx/datatype_inln.h:0:1
	xorl	%eax, %eax
	.loc	8 369 1                 # /usr/lib/x86_64-linux-gnu/openmpi/include/openmpi/ompi/mpi/cxx/datatype_inln.h:369:1
	cmpl	$4, %r13d
	jl	.LBB30_5
.Ltmp224:
# %bb.2:                                # %L.B1777
	#DEBUG_VALUE: c_datatypes <- $rbx
	#DEBUG_VALUE: Get_contents: <- $r12
	#DEBUG_VALUE:  <- $r12
	#DEBUG_VALUE: Get_contents:max_datatypes <- $r13d
	#DEBUG_VALUE: max_datatypes <- $r13d
	#DEBUG_VALUE: Get_contents:array_of_datatypes <- [DW_OP_plus_uconst 16] [$rbp+0]
	#DEBUG_VALUE: array_of_datatypes <- [DW_OP_plus_uconst 16] [$rbp+0]
	movl	%r13d, %ecx
	shrl	$31, %ecx
	addl	%r13d, %ecx
	movl	%ecx, %edx
	sarl	$2, %edx
	andl	$-4, %ecx
	movq	-48(%rbp), %rax         # 8-byte Reload
	leaq	56(%rax), %rsi
	xorl	%eax, %eax
.Ltmp225:
	.p2align	4, 0x90
.LBB30_3:                               # %L.B1770
                                        # =>This Inner Loop Header: Depth=1
	#DEBUG_VALUE: c_datatypes <- $rbx
	#DEBUG_VALUE: Get_contents: <- $r12
	#DEBUG_VALUE:  <- $r12
	#DEBUG_VALUE: Get_contents:max_datatypes <- $r13d
	#DEBUG_VALUE: max_datatypes <- $r13d
	#DEBUG_VALUE: Get_contents:array_of_datatypes <- [DW_OP_plus_uconst 16] [$rbp+0]
	#DEBUG_VALUE: array_of_datatypes <- [DW_OP_plus_uconst 16] [$rbp+0]
	movq	(%rbx,%rax,8), %rdi
	movq	%rdi, -48(%rsi)
	movq	8(%rbx,%rax,8), %rdi
	movq	%rdi, -32(%rsi)
	movq	16(%rbx,%rax,8), %rdi
	movq	%rdi, -16(%rsi)
	movq	24(%rbx,%rax,8), %rdi
	movq	%rdi, (%rsi)
	addq	$4, %rax
	addq	$64, %rsi
	decl	%edx
	jg	.LBB30_3
.Ltmp226:
# %bb.4:                                # %L.B1772.loopexit
	#DEBUG_VALUE: c_datatypes <- $rbx
	#DEBUG_VALUE: Get_contents: <- $r12
	#DEBUG_VALUE:  <- $r12
	#DEBUG_VALUE: Get_contents:max_datatypes <- $r13d
	#DEBUG_VALUE: max_datatypes <- $r13d
	#DEBUG_VALUE: Get_contents:array_of_datatypes <- [DW_OP_plus_uconst 16] [$rbp+0]
	#DEBUG_VALUE: array_of_datatypes <- [DW_OP_plus_uconst 16] [$rbp+0]
	subl	%ecx, %r13d
.Ltmp227:
.LBB30_5:                               # %L.B1772
	#DEBUG_VALUE: c_datatypes <- $rbx
	#DEBUG_VALUE: Get_contents: <- $r12
	#DEBUG_VALUE:  <- $r12
	#DEBUG_VALUE: Get_contents:array_of_datatypes <- [DW_OP_plus_uconst 16] [$rbp+0]
	#DEBUG_VALUE: array_of_datatypes <- [DW_OP_plus_uconst 16] [$rbp+0]
	testl	%r13d, %r13d
	je	.LBB30_13
.Ltmp228:
# %bb.6:                                # %L.B1772
	#DEBUG_VALUE: c_datatypes <- $rbx
	#DEBUG_VALUE: Get_contents: <- $r12
	#DEBUG_VALUE:  <- $r12
	#DEBUG_VALUE: Get_contents:array_of_datatypes <- [DW_OP_plus_uconst 16] [$rbp+0]
	#DEBUG_VALUE: array_of_datatypes <- [DW_OP_plus_uconst 16] [$rbp+0]
	cmpl	$1, %r13d
	je	.LBB30_7
.Ltmp229:
# %bb.8:                                # %L.B1772
	#DEBUG_VALUE: c_datatypes <- $rbx
	#DEBUG_VALUE: Get_contents: <- $r12
	#DEBUG_VALUE:  <- $r12
	#DEBUG_VALUE: Get_contents:array_of_datatypes <- [DW_OP_plus_uconst 16] [$rbp+0]
	#DEBUG_VALUE: array_of_datatypes <- [DW_OP_plus_uconst 16] [$rbp+0]
	cmpl	$2, %r13d
	jne	.LBB30_10
.Ltmp230:
# %bb.9:
	#DEBUG_VALUE: c_datatypes <- $rbx
	#DEBUG_VALUE: Get_contents: <- $r12
	#DEBUG_VALUE:  <- $r12
	#DEBUG_VALUE: Get_contents:array_of_datatypes <- [DW_OP_plus_uconst 16] [$rbp+0]
	#DEBUG_VALUE: array_of_datatypes <- [DW_OP_plus_uconst 16] [$rbp+0]
	.loc	8 0 1                   # /usr/lib/x86_64-linux-gnu/openmpi/include/openmpi/ompi/mpi/cxx/datatype_inln.h:0:1
	movq	-48(%rbp), %rsi         # 8-byte Reload
	jmp	.LBB30_11
.Ltmp231:
.LBB30_7:
	#DEBUG_VALUE: c_datatypes <- $rbx
	#DEBUG_VALUE: Get_contents: <- $r12
	#DEBUG_VALUE:  <- $r12
	#DEBUG_VALUE: Get_contents:array_of_datatypes <- [DW_OP_plus_uconst 16] [$rbp+0]
	#DEBUG_VALUE: array_of_datatypes <- [DW_OP_plus_uconst 16] [$rbp+0]
	movq	-48(%rbp), %rsi         # 8-byte Reload
	jmp	.LBB30_12
.Ltmp232:
.LBB30_10:                              # %L.B1781
	#DEBUG_VALUE: c_datatypes <- $rbx
	#DEBUG_VALUE: Get_contents: <- $r12
	#DEBUG_VALUE:  <- $r12
	#DEBUG_VALUE: Get_contents:array_of_datatypes <- [DW_OP_plus_uconst 16] [$rbp+0]
	#DEBUG_VALUE: array_of_datatypes <- [DW_OP_plus_uconst 16] [$rbp+0]
	.loc	8 369 1                 # /usr/lib/x86_64-linux-gnu/openmpi/include/openmpi/ompi/mpi/cxx/datatype_inln.h:369:1
	cltq
	movq	(%rbx,%rax,8), %rcx
	movq	%rax, %rdx
	shlq	$4, %rdx
	movq	-48(%rbp), %rsi         # 8-byte Reload
	movq	%rcx, 8(%rsi,%rdx)
	incl	%eax
.Ltmp233:
.LBB30_11:                              # %L.B1775
	#DEBUG_VALUE: c_datatypes <- $rbx
	#DEBUG_VALUE: Get_contents: <- $r12
	#DEBUG_VALUE:  <- $r12
	#DEBUG_VALUE: Get_contents:array_of_datatypes <- [DW_OP_plus_uconst 16] [$rbp+0]
	#DEBUG_VALUE: array_of_datatypes <- [DW_OP_plus_uconst 16] [$rbp+0]
	cltq
	movq	(%rbx,%rax,8), %rcx
	movq	%rax, %rdx
	shlq	$4, %rdx
	movq	%rcx, 8(%rsi,%rdx)
	incl	%eax
.Ltmp234:
.LBB30_12:                              # %L.B1774
	#DEBUG_VALUE: c_datatypes <- $rbx
	#DEBUG_VALUE: Get_contents: <- $r12
	#DEBUG_VALUE:  <- $r12
	#DEBUG_VALUE: Get_contents:array_of_datatypes <- [DW_OP_plus_uconst 16] [$rbp+0]
	#DEBUG_VALUE: array_of_datatypes <- [DW_OP_plus_uconst 16] [$rbp+0]
	cltq
	movq	(%rbx,%rax,8), %rcx
	shlq	$4, %rax
	movq	%rcx, 8(%rsi,%rax)
.Ltmp235:
.LBB30_13:                              # %L.B1771
	#DEBUG_VALUE: c_datatypes <- $rbx
	#DEBUG_VALUE: Get_contents: <- $r12
	#DEBUG_VALUE:  <- $r12
	#DEBUG_VALUE: Get_contents:array_of_datatypes <- [DW_OP_plus_uconst 16] [$rbp+0]
	#DEBUG_VALUE: array_of_datatypes <- [DW_OP_plus_uconst 16] [$rbp+0]
	.loc	8 372 1 is_stmt 1       # /usr/lib/x86_64-linux-gnu/openmpi/include/openmpi/ompi/mpi/cxx/datatype_inln.h:372:1
	movq	%rbx, %rdi
	addq	$40, %rsp
	popq	%rbx
.Ltmp236:
	popq	%r12
.Ltmp237:
	popq	%r13
	popq	%r14
	popq	%r15
	popq	%rbp
	.cfi_def_cfa %rsp, 8
	jmp	_ZdaPv                  # TAILCALL
.Ltmp238:
.Lfunc_end30:
	.size	_ZNK3MPI8Datatype12Get_contentsEiiiPiPlPS0_, .Lfunc_end30-_ZNK3MPI8Datatype12Get_contentsEiiiPiPlPS0_
	.cfi_endproc
                                        # -- End function
	.weak	_ZNK3MPI8Datatype12Get_envelopeERiS1_S1_S1_ # -- Begin function _ZNK3MPI8Datatype12Get_envelopeERiS1_S1_S1_
	.p2align	4, 0x90
	.type	_ZNK3MPI8Datatype12Get_envelopeERiS1_S1_S1_,@function
_ZNK3MPI8Datatype12Get_envelopeERiS1_S1_S1_: # @_ZNK3MPI8Datatype12Get_envelopeERiS1_S1_S1_
.Lfunc_begin31:
	.loc	8 378 0                 # /usr/lib/x86_64-linux-gnu/openmpi/include/openmpi/ompi/mpi/cxx/datatype_inln.h:378:0
	.cfi_startproc
# %bb.0:                                # %L.entry
	#DEBUG_VALUE: Get_envelope: <- $rdi
	#DEBUG_VALUE: Get_envelope: <- $rdi
	#DEBUG_VALUE: Get_envelope:num_integers <- $rsi
	#DEBUG_VALUE: Get_envelope:num_integers <- $rsi
	#DEBUG_VALUE: Get_envelope:num_addresses <- $rdx
	#DEBUG_VALUE: Get_envelope:num_addresses <- $rdx
	#DEBUG_VALUE: Get_envelope:num_datatypes <- $rcx
	#DEBUG_VALUE: Get_envelope:num_datatypes <- $rcx
	#DEBUG_VALUE: Get_envelope:combiner <- $r8
	#DEBUG_VALUE: Get_envelope:combiner <- $r8
	pushq	%rbp
	.cfi_def_cfa_offset 16
	.cfi_offset %rbp, -16
	movq	%rsp, %rbp
	.cfi_def_cfa_register %rbp
.Ltmp239:
	#DEBUG_VALUE:  <- $rdi
	#DEBUG_VALUE:  <- $rdi
	#DEBUG_VALUE: num_integers <- $rsi
	#DEBUG_VALUE: num_integers <- $rsi
	#DEBUG_VALUE: num_addresses <- $rdx
	#DEBUG_VALUE: num_addresses <- $rdx
	#DEBUG_VALUE: num_datatypes <- $rcx
	#DEBUG_VALUE: num_datatypes <- $rcx
	#DEBUG_VALUE: combiner <- $r8
	#DEBUG_VALUE: combiner <- $r8
	.loc	8 379 1 prologue_end    # /usr/lib/x86_64-linux-gnu/openmpi/include/openmpi/ompi/mpi/cxx/datatype_inln.h:379:1
	movq	8(%rdi), %rdi
.Ltmp240:
	#DEBUG_VALUE: combiner <- $r8
	#DEBUG_VALUE: Get_envelope:combiner <- $r8
	#DEBUG_VALUE: num_datatypes <- $rcx
	#DEBUG_VALUE: Get_envelope:num_datatypes <- $rcx
	#DEBUG_VALUE: num_addresses <- $rdx
	#DEBUG_VALUE: Get_envelope:num_addresses <- $rdx
	#DEBUG_VALUE: num_integers <- $rsi
	#DEBUG_VALUE: Get_envelope:num_integers <- $rsi
	popq	%rbp
	.cfi_def_cfa %rsp, 8
	jmp	MPI_Type_get_envelope   # TAILCALL
.Ltmp241:
.Lfunc_end31:
	.size	_ZNK3MPI8Datatype12Get_envelopeERiS1_S1_S1_, .Lfunc_end31-_ZNK3MPI8Datatype12Get_envelopeERiS1_S1_S1_
	.cfi_endproc
                                        # -- End function
	.weak	_ZNK3MPI8Datatype8Get_nameEPcRi # -- Begin function _ZNK3MPI8Datatype8Get_nameEPcRi
	.p2align	4, 0x90
	.type	_ZNK3MPI8Datatype8Get_nameEPcRi,@function
_ZNK3MPI8Datatype8Get_nameEPcRi:        # @_ZNK3MPI8Datatype8Get_nameEPcRi
.Lfunc_begin32:
	.loc	8 385 0                 # /usr/lib/x86_64-linux-gnu/openmpi/include/openmpi/ompi/mpi/cxx/datatype_inln.h:385:0
	.cfi_startproc
# %bb.0:                                # %L.entry
	#DEBUG_VALUE: Get_name: <- $rdi
	#DEBUG_VALUE: Get_name: <- $rdi
	#DEBUG_VALUE: Get_name:type_name <- $rsi
	#DEBUG_VALUE: Get_name:type_name <- $rsi
	#DEBUG_VALUE: Get_name:resultlen <- $rdx
	#DEBUG_VALUE: Get_name:resultlen <- $rdx
	pushq	%rbp
	.cfi_def_cfa_offset 16
	.cfi_offset %rbp, -16
	movq	%rsp, %rbp
	.cfi_def_cfa_register %rbp
.Ltmp242:
	#DEBUG_VALUE:  <- $rdi
	#DEBUG_VALUE:  <- $rdi
	#DEBUG_VALUE: type_name <- $rsi
	#DEBUG_VALUE: type_name <- $rsi
	#DEBUG_VALUE: resultlen <- $rdx
	#DEBUG_VALUE: resultlen <- $rdx
	.loc	8 386 1 prologue_end    # /usr/lib/x86_64-linux-gnu/openmpi/include/openmpi/ompi/mpi/cxx/datatype_inln.h:386:1
	movq	8(%rdi), %rdi
.Ltmp243:
	#DEBUG_VALUE: resultlen <- $rdx
	#DEBUG_VALUE: Get_name:resultlen <- $rdx
	#DEBUG_VALUE: type_name <- $rsi
	#DEBUG_VALUE: Get_name:type_name <- $rsi
	popq	%rbp
	.cfi_def_cfa %rsp, 8
	jmp	MPI_Type_get_name       # TAILCALL
.Ltmp244:
.Lfunc_end32:
	.size	_ZNK3MPI8Datatype8Get_nameEPcRi, .Lfunc_end32-_ZNK3MPI8Datatype8Get_nameEPcRi
	.cfi_endproc
                                        # -- End function
	.weak	_ZN3MPI8Datatype8Set_attrEiPKv # -- Begin function _ZN3MPI8Datatype8Set_attrEiPKv
	.p2align	4, 0x90
	.type	_ZN3MPI8Datatype8Set_attrEiPKv,@function
_ZN3MPI8Datatype8Set_attrEiPKv:         # @_ZN3MPI8Datatype8Set_attrEiPKv
.Lfunc_begin33:
	.loc	8 391 0                 # /usr/lib/x86_64-linux-gnu/openmpi/include/openmpi/ompi/mpi/cxx/datatype_inln.h:391:0
	.cfi_startproc
# %bb.0:                                # %L.entry
	#DEBUG_VALUE: Set_attr: <- $rdi
	#DEBUG_VALUE: Set_attr: <- $rdi
	#DEBUG_VALUE: Set_attr:type_keyval <- $esi
	#DEBUG_VALUE: Set_attr:type_keyval <- $esi
	#DEBUG_VALUE: Set_attr:attribute_val <- $rdx
	#DEBUG_VALUE: Set_attr:attribute_val <- $rdx
	pushq	%rbp
	.cfi_def_cfa_offset 16
	.cfi_offset %rbp, -16
	movq	%rsp, %rbp
	.cfi_def_cfa_register %rbp
.Ltmp245:
	#DEBUG_VALUE:  <- $rdi
	#DEBUG_VALUE:  <- $rdi
	#DEBUG_VALUE: type_keyval <- $esi
	#DEBUG_VALUE: type_keyval <- $esi
	#DEBUG_VALUE: attribute_val <- $rdx
	#DEBUG_VALUE: attribute_val <- $rdx
	.loc	8 392 1 prologue_end    # /usr/lib/x86_64-linux-gnu/openmpi/include/openmpi/ompi/mpi/cxx/datatype_inln.h:392:1
	movq	8(%rdi), %rdi
.Ltmp246:
	#DEBUG_VALUE: attribute_val <- $rdx
	#DEBUG_VALUE: Set_attr:attribute_val <- $rdx
	#DEBUG_VALUE: type_keyval <- $esi
	#DEBUG_VALUE: Set_attr:type_keyval <- $esi
	popq	%rbp
	.cfi_def_cfa %rsp, 8
	jmp	MPI_Type_set_attr       # TAILCALL
.Ltmp247:
.Lfunc_end33:
	.size	_ZN3MPI8Datatype8Set_attrEiPKv, .Lfunc_end33-_ZN3MPI8Datatype8Set_attrEiPKv
	.cfi_endproc
                                        # -- End function
	.weak	_ZN3MPI8Datatype8Set_nameEPKc # -- Begin function _ZN3MPI8Datatype8Set_nameEPKc
	.p2align	4, 0x90
	.type	_ZN3MPI8Datatype8Set_nameEPKc,@function
_ZN3MPI8Datatype8Set_nameEPKc:          # @_ZN3MPI8Datatype8Set_nameEPKc
.Lfunc_begin34:
	.loc	8 397 0                 # /usr/lib/x86_64-linux-gnu/openmpi/include/openmpi/ompi/mpi/cxx/datatype_inln.h:397:0
	.cfi_startproc
# %bb.0:                                # %L.entry
	#DEBUG_VALUE: Set_name: <- $rdi
	#DEBUG_VALUE: Set_name: <- $rdi
	#DEBUG_VALUE: Set_name:type_name <- $rsi
	#DEBUG_VALUE: Set_name:type_name <- $rsi
	pushq	%rbp
	.cfi_def_cfa_offset 16
	.cfi_offset %rbp, -16
	movq	%rsp, %rbp
	.cfi_def_cfa_register %rbp
.Ltmp248:
	#DEBUG_VALUE:  <- $rdi
	#DEBUG_VALUE:  <- $rdi
	#DEBUG_VALUE: type_name <- $rsi
	#DEBUG_VALUE: type_name <- $rsi
	.loc	8 398 1 prologue_end    # /usr/lib/x86_64-linux-gnu/openmpi/include/openmpi/ompi/mpi/cxx/datatype_inln.h:398:1
	movq	8(%rdi), %rdi
.Ltmp249:
	#DEBUG_VALUE: type_name <- $rsi
	#DEBUG_VALUE: Set_name:type_name <- $rsi
	popq	%rbp
	.cfi_def_cfa %rsp, 8
	jmp	MPI_Type_set_name       # TAILCALL
.Ltmp250:
.Lfunc_end34:
	.size	_ZN3MPI8Datatype8Set_nameEPKc, .Lfunc_end34-_ZN3MPI8Datatype8Set_nameEPKc
	.cfi_endproc
                                        # -- End function
	.weak	_ZN3MPI2OpD1Ev          # -- Begin function _ZN3MPI2OpD1Ev
	.p2align	4, 0x90
	.type	_ZN3MPI2OpD1Ev,@function
_ZN3MPI2OpD1Ev:                         # @_ZN3MPI2OpD1Ev
.Lfunc_begin35:
	.file	9 "/usr/lib/x86_64-linux-gnu/openmpi/include/openmpi/ompi/mpi/cxx/op_inln.h"
	.loc	9 77 0                  # /usr/lib/x86_64-linux-gnu/openmpi/include/openmpi/ompi/mpi/cxx/op_inln.h:77:0
	.cfi_startproc
# %bb.0:                                # %L.entry
	#DEBUG_VALUE: ~Op: <- $rdi
	#DEBUG_VALUE: ~Op: <- $rdi
	pushq	%rbp
	.cfi_def_cfa_offset 16
	.cfi_offset %rbp, -16
	movq	%rsp, %rbp
	.cfi_def_cfa_register %rbp
.Ltmp251:
	#DEBUG_VALUE:  <- $rdi
	#DEBUG_VALUE:  <- $rdi
	.loc	9 77 1 prologue_end     # /usr/lib/x86_64-linux-gnu/openmpi/include/openmpi/ompi/mpi/cxx/op_inln.h:77:1
	movq	$_ZTVN3MPI2OpE+16, (%rdi)
	.loc	9 82 1                  # /usr/lib/x86_64-linux-gnu/openmpi/include/openmpi/ompi/mpi/cxx/op_inln.h:82:1
	popq	%rbp
	.cfi_def_cfa %rsp, 8
	retq
.Ltmp252:
.Lfunc_end35:
	.size	_ZN3MPI2OpD1Ev, .Lfunc_end35-_ZN3MPI2OpD1Ev
	.cfi_endproc
                                        # -- End function
	.weak	_ZN3MPI2OpD0Ev          # -- Begin function _ZN3MPI2OpD0Ev
	.p2align	4, 0x90
	.type	_ZN3MPI2OpD0Ev,@function
_ZN3MPI2OpD0Ev:                         # @_ZN3MPI2OpD0Ev
.Lfunc_begin36:
	.loc	1 0 0                   # projects/Firehose/Firehose.cpp:0:0
	.cfi_startproc
# %bb.0:                                # %L.entry
	pushq	%rbp
	.cfi_def_cfa_offset 16
	.cfi_offset %rbp, -16
	movq	%rsp, %rbp
	.cfi_def_cfa_register %rbp
.Ltmp253:
	.loc	1 82 1 prologue_end     # projects/Firehose/Firehose.cpp:82:1
	movl	$16, %esi
	popq	%rbp
	.cfi_def_cfa %rsp, 8
	jmp	_ZdlPvm                 # TAILCALL
.Ltmp254:
.Lfunc_end36:
	.size	_ZN3MPI2OpD0Ev, .Lfunc_end36-_ZN3MPI2OpD0Ev
	.cfi_endproc
                                        # -- End function
	.weak	_ZN3MPI2Op4InitEPFvPKvPviRKNS_8DatatypeEEb # -- Begin function _ZN3MPI2Op4InitEPFvPKvPviRKNS_8DatatypeEEb
	.p2align	4, 0x90
	.type	_ZN3MPI2Op4InitEPFvPKvPviRKNS_8DatatypeEEb,@function
_ZN3MPI2Op4InitEPFvPKvPviRKNS_8DatatypeEEb: # @_ZN3MPI2Op4InitEPFvPKvPviRKNS_8DatatypeEEb
.Lfunc_begin37:
	.loc	9 120 0                 # /usr/lib/x86_64-linux-gnu/openmpi/include/openmpi/ompi/mpi/cxx/op_inln.h:120:0
	.cfi_startproc
# %bb.0:                                # %L.entry
	#DEBUG_VALUE: Init: <- $rdi
	#DEBUG_VALUE: Init:func <- $rsi
	#DEBUG_VALUE: Init:commute <- $edx
	pushq	%rbp
	.cfi_def_cfa_offset 16
	.cfi_offset %rbp, -16
	movq	%rsp, %rbp
	.cfi_def_cfa_register %rbp
	pushq	%r14
	pushq	%rbx
	.cfi_offset %rbx, -32
	.cfi_offset %r14, -24
.Ltmp255:
	#DEBUG_VALUE:  <- $rdi
	#DEBUG_VALUE: func <- $rsi
	#DEBUG_VALUE: commute <- $edx
	movq	%rsi, %r14
	movq	%rdi, %rbx
	#DEBUG_VALUE: commute <- $edx
	#DEBUG_VALUE: Init:commute <- $edx
.Ltmp256:
	#DEBUG_VALUE: func <- $r14
	#DEBUG_VALUE: Init:func <- $r14
	#DEBUG_VALUE:  <- $rbx
	#DEBUG_VALUE: Init: <- $rbx
	.loc	9 121 1 prologue_end    # /usr/lib/x86_64-linux-gnu/openmpi/include/openmpi/ompi/mpi/cxx/op_inln.h:121:1
	leaq	8(%rdi), %rax
	movl	$ompi_mpi_cxx_op_intercept, %edi
	movl	%edx, %esi
.Ltmp257:
	#DEBUG_VALUE: commute <- $esi
	#DEBUG_VALUE: Init:commute <- $esi
	movq	%rax, %rdx
	callq	MPI_Op_create
.Ltmp258:
	.loc	9 123 1                 # /usr/lib/x86_64-linux-gnu/openmpi/include/openmpi/ompi/mpi/cxx/op_inln.h:123:1
	movq	8(%rbx), %rdi
	movq	%r14, %rsi
.Ltmp259:
	#DEBUG_VALUE: func <- $rsi
	#DEBUG_VALUE: Init:func <- $rsi
	popq	%rbx
.Ltmp260:
	popq	%r14
	popq	%rbp
	.cfi_def_cfa %rsp, 8
	jmp	ompi_op_set_cxx_callback # TAILCALL
.Ltmp261:
.Lfunc_end37:
	.size	_ZN3MPI2Op4InitEPFvPKvPviRKNS_8DatatypeEEb, .Lfunc_end37-_ZN3MPI2Op4InitEPFvPKvPviRKNS_8DatatypeEEb
	.cfi_endproc
                                        # -- End function
	.weak	_ZN3MPI2Op4FreeEv       # -- Begin function _ZN3MPI2Op4FreeEv
	.p2align	4, 0x90
	.type	_ZN3MPI2Op4FreeEv,@function
_ZN3MPI2Op4FreeEv:                      # @_ZN3MPI2Op4FreeEv
.Lfunc_begin38:
	.loc	9 129 0                 # /usr/lib/x86_64-linux-gnu/openmpi/include/openmpi/ompi/mpi/cxx/op_inln.h:129:0
	.cfi_startproc
# %bb.0:                                # %L.entry
	#DEBUG_VALUE: Free: <- $rdi
	#DEBUG_VALUE: Free: <- $rdi
	pushq	%rbp
	.cfi_def_cfa_offset 16
	.cfi_offset %rbp, -16
	movq	%rsp, %rbp
	.cfi_def_cfa_register %rbp
.Ltmp262:
	#DEBUG_VALUE:  <- $rdi
	#DEBUG_VALUE:  <- $rdi
	.loc	9 130 1 prologue_end    # /usr/lib/x86_64-linux-gnu/openmpi/include/openmpi/ompi/mpi/cxx/op_inln.h:130:1
	addq	$8, %rdi
.Ltmp263:
	popq	%rbp
	.cfi_def_cfa %rsp, 8
	jmp	MPI_Op_free             # TAILCALL
.Ltmp264:
.Lfunc_end38:
	.size	_ZN3MPI2Op4FreeEv, .Lfunc_end38-_ZN3MPI2Op4FreeEv
	.cfi_endproc
                                        # -- End function
	.weak	_ZNK3MPI2Op12Reduce_localEPKvPviRKNS_8DatatypeE # -- Begin function _ZNK3MPI2Op12Reduce_localEPKvPviRKNS_8DatatypeE
	.p2align	4, 0x90
	.type	_ZNK3MPI2Op12Reduce_localEPKvPviRKNS_8DatatypeE,@function
_ZNK3MPI2Op12Reduce_localEPKvPviRKNS_8DatatypeE: # @_ZNK3MPI2Op12Reduce_localEPKvPviRKNS_8DatatypeE
.Lfunc_begin39:
	.loc	9 137 0                 # /usr/lib/x86_64-linux-gnu/openmpi/include/openmpi/ompi/mpi/cxx/op_inln.h:137:0
	.cfi_startproc
# %bb.0:                                # %L.entry
	#DEBUG_VALUE: Reduce_local: <- $rdi
	#DEBUG_VALUE: Reduce_local: <- $rdi
	#DEBUG_VALUE: Reduce_local:inbuf <- $rsi
	#DEBUG_VALUE: Reduce_local:inbuf <- $rsi
	#DEBUG_VALUE: Reduce_local:inoutbuf <- $rdx
	#DEBUG_VALUE: Reduce_local:inoutbuf <- $rdx
	#DEBUG_VALUE: Reduce_local:count <- $ecx
	#DEBUG_VALUE: Reduce_local:count <- $ecx
	#DEBUG_VALUE: Reduce_local:datatype <- $r8
	#DEBUG_VALUE: Reduce_local:datatype <- $r8
	pushq	%rbp
	.cfi_def_cfa_offset 16
	.cfi_offset %rbp, -16
	movq	%rsp, %rbp
	.cfi_def_cfa_register %rbp
.Ltmp265:
	#DEBUG_VALUE:  <- $rdi
	#DEBUG_VALUE:  <- $rdi
	#DEBUG_VALUE: inbuf <- $rsi
	#DEBUG_VALUE: inbuf <- $rsi
	#DEBUG_VALUE: inoutbuf <- $rdx
	#DEBUG_VALUE: inoutbuf <- $rdx
	#DEBUG_VALUE: count <- $ecx
	#DEBUG_VALUE: count <- $ecx
	#DEBUG_VALUE: datatype <- $r8
	#DEBUG_VALUE: datatype <- $r8
	.loc	9 90 1 prologue_end     # /usr/lib/x86_64-linux-gnu/openmpi/include/openmpi/ompi/mpi/cxx/op_inln.h:90:1
	movq	8(%r8), %rax
	movq	8(%rdi), %r8
.Ltmp266:
	movq	%rsi, %rdi
.Ltmp267:
	#DEBUG_VALUE: inbuf <- $rdi
	#DEBUG_VALUE: Reduce_local:inbuf <- $rdi
	movq	%rdx, %rsi
.Ltmp268:
	#DEBUG_VALUE: inoutbuf <- $rsi
	#DEBUG_VALUE: Reduce_local:inoutbuf <- $rsi
	movl	%ecx, %edx
.Ltmp269:
	#DEBUG_VALUE: count <- $edx
	#DEBUG_VALUE: Reduce_local:count <- $edx
	movq	%rax, %rcx
	popq	%rbp
	.cfi_def_cfa %rsp, 8
	jmp	MPI_Reduce_local        # TAILCALL
.Ltmp270:
.Lfunc_end39:
	.size	_ZNK3MPI2Op12Reduce_localEPKvPviRKNS_8DatatypeE, .Lfunc_end39-_ZNK3MPI2Op12Reduce_localEPKvPviRKNS_8DatatypeE
	.cfi_endproc
                                        # -- End function
	.weak	_ZNK3MPI2Op14Is_commutativeEv # -- Begin function _ZNK3MPI2Op14Is_commutativeEv
	.p2align	4, 0x90
	.type	_ZNK3MPI2Op14Is_commutativeEv,@function
_ZNK3MPI2Op14Is_commutativeEv:          # @_ZNK3MPI2Op14Is_commutativeEv
.Lfunc_begin40:
	.loc	9 145 0                 # /usr/lib/x86_64-linux-gnu/openmpi/include/openmpi/ompi/mpi/cxx/op_inln.h:145:0
	.cfi_startproc
# %bb.0:                                # %L.entry
	#DEBUG_VALUE: Is_commutative: <- $rdi
	#DEBUG_VALUE: Is_commutative: <- $rdi
	pushq	%rbp
	.cfi_def_cfa_offset 16
	.cfi_offset %rbp, -16
	movq	%rsp, %rbp
	.cfi_def_cfa_register %rbp
	subq	$16, %rsp
.Ltmp271:
	#DEBUG_VALUE:  <- $rdi
	.loc	9 147 1 prologue_end    # /usr/lib/x86_64-linux-gnu/openmpi/include/openmpi/ompi/mpi/cxx/op_inln.h:147:1
	movq	8(%rdi), %rdi
.Ltmp272:
	#DEBUG_VALUE: commute <- [DW_OP_constu 4, DW_OP_minus, DW_OP_deref] $rbp
	.loc	9 0 1 is_stmt 0         # /usr/lib/x86_64-linux-gnu/openmpi/include/openmpi/ompi/mpi/cxx/op_inln.h:0:1
	leaq	-4(%rbp), %rsi
	.loc	9 147 1                 # /usr/lib/x86_64-linux-gnu/openmpi/include/openmpi/ompi/mpi/cxx/op_inln.h:147:1
	callq	MPI_Op_commutative
.Ltmp273:
	#DEBUG_VALUE: commute <- undef
	.loc	9 148 1 is_stmt 1       # /usr/lib/x86_64-linux-gnu/openmpi/include/openmpi/ompi/mpi/cxx/op_inln.h:148:1
	cmpl	$0, -4(%rbp)
	setne	%al
	addq	$16, %rsp
	popq	%rbp
	.cfi_def_cfa %rsp, 8
	retq
.Ltmp274:
.Lfunc_end40:
	.size	_ZNK3MPI2Op14Is_commutativeEv, .Lfunc_end40-_ZNK3MPI2Op14Is_commutativeEv
	.cfi_endproc
                                        # -- End function
	.weak	_ZN3MPI6StatusD1Ev      # -- Begin function _ZN3MPI6StatusD1Ev
	.p2align	4, 0x90
	.type	_ZN3MPI6StatusD1Ev,@function
_ZN3MPI6StatusD1Ev:                     # @_ZN3MPI6StatusD1Ev
.Lfunc_begin41:
	.file	10 "/usr/lib/x86_64-linux-gnu/openmpi/include/openmpi/ompi/mpi/cxx/status.h"
	.loc	10 64 0                 # /usr/lib/x86_64-linux-gnu/openmpi/include/openmpi/ompi/mpi/cxx/status.h:64:0
	.cfi_startproc
# %bb.0:                                # %L.entry
	#DEBUG_VALUE: ~Status: <- $rdi
	#DEBUG_VALUE: ~Status: <- $rdi
	pushq	%rbp
	.cfi_def_cfa_offset 16
	.cfi_offset %rbp, -16
	movq	%rsp, %rbp
	.cfi_def_cfa_register %rbp
.Ltmp275:
	#DEBUG_VALUE:  <- $rdi
	#DEBUG_VALUE:  <- $rdi
	.loc	10 64 1 prologue_end    # /usr/lib/x86_64-linux-gnu/openmpi/include/openmpi/ompi/mpi/cxx/status.h:64:1
	movq	$_ZTVN3MPI6StatusE+16, (%rdi)
	popq	%rbp
	.cfi_def_cfa %rsp, 8
	retq
.Ltmp276:
.Lfunc_end41:
	.size	_ZN3MPI6StatusD1Ev, .Lfunc_end41-_ZN3MPI6StatusD1Ev
	.cfi_endproc
                                        # -- End function
	.weak	_ZN3MPI6StatusD0Ev      # -- Begin function _ZN3MPI6StatusD0Ev
	.p2align	4, 0x90
	.type	_ZN3MPI6StatusD0Ev,@function
_ZN3MPI6StatusD0Ev:                     # @_ZN3MPI6StatusD0Ev
.Lfunc_begin42:
	.loc	1 0 0                   # projects/Firehose/Firehose.cpp:0:0
	.cfi_startproc
# %bb.0:                                # %L.entry
	pushq	%rbp
	.cfi_def_cfa_offset 16
	.cfi_offset %rbp, -16
	movq	%rsp, %rbp
	.cfi_def_cfa_register %rbp
.Ltmp277:
	.loc	1 64 1 prologue_end     # projects/Firehose/Firehose.cpp:64:1
	movl	$32, %esi
	popq	%rbp
	.cfi_def_cfa %rsp, 8
	jmp	_ZdlPvm                 # TAILCALL
.Ltmp278:
.Lfunc_end42:
	.size	_ZN3MPI6StatusD0Ev, .Lfunc_end42-_ZN3MPI6StatusD0Ev
	.cfi_endproc
                                        # -- End function
	.weak	_ZNK3MPI6Status9Get_countERKNS_8DatatypeE # -- Begin function _ZNK3MPI6Status9Get_countERKNS_8DatatypeE
	.p2align	4, 0x90
	.type	_ZNK3MPI6Status9Get_countERKNS_8DatatypeE,@function
_ZNK3MPI6Status9Get_countERKNS_8DatatypeE: # @_ZNK3MPI6Status9Get_countERKNS_8DatatypeE
.Lfunc_begin43:
	.file	11 "/usr/lib/x86_64-linux-gnu/openmpi/include/openmpi/ompi/mpi/cxx/status_inln.h"
	.loc	11 27 0                 # /usr/lib/x86_64-linux-gnu/openmpi/include/openmpi/ompi/mpi/cxx/status_inln.h:27:0
	.cfi_startproc
# %bb.0:                                # %L.entry
	#DEBUG_VALUE: Get_count: <- $rdi
	#DEBUG_VALUE: Get_count: <- $rdi
	#DEBUG_VALUE: Get_count:datatype <- $rsi
	#DEBUG_VALUE: Get_count:datatype <- $rsi
	pushq	%rbp
	.cfi_def_cfa_offset 16
	.cfi_offset %rbp, -16
	movq	%rsp, %rbp
	.cfi_def_cfa_register %rbp
	subq	$16, %rsp
.Ltmp279:
	#DEBUG_VALUE:  <- $rdi
	#DEBUG_VALUE: datatype <- $rsi
	.loc	11 90 1 prologue_end    # /usr/lib/x86_64-linux-gnu/openmpi/include/openmpi/ompi/mpi/cxx/status_inln.h:90:1
	addq	$8, %rdi
.Ltmp280:
	movq	8(%rsi), %rsi
.Ltmp281:
	#DEBUG_VALUE: count <- [DW_OP_constu 4, DW_OP_minus, DW_OP_deref] $rbp
	.loc	11 0 1 is_stmt 0        # /usr/lib/x86_64-linux-gnu/openmpi/include/openmpi/ompi/mpi/cxx/status_inln.h:0:1
	leaq	-4(%rbp), %rdx
	.loc	11 90 1                 # /usr/lib/x86_64-linux-gnu/openmpi/include/openmpi/ompi/mpi/cxx/status_inln.h:90:1
	callq	MPI_Get_count
	.loc	11 30 1 is_stmt 1       # /usr/lib/x86_64-linux-gnu/openmpi/include/openmpi/ompi/mpi/cxx/status_inln.h:30:1
	movl	-4(%rbp), %eax
.Ltmp282:
	#DEBUG_VALUE: count <- $eax
	addq	$16, %rsp
	popq	%rbp
	.cfi_def_cfa %rsp, 8
	retq
.Ltmp283:
.Lfunc_end43:
	.size	_ZNK3MPI6Status9Get_countERKNS_8DatatypeE, .Lfunc_end43-_ZNK3MPI6Status9Get_countERKNS_8DatatypeE
	.cfi_endproc
                                        # -- End function
	.weak	_ZNK3MPI6Status12Is_cancelledEv # -- Begin function _ZNK3MPI6Status12Is_cancelledEv
	.p2align	4, 0x90
	.type	_ZNK3MPI6Status12Is_cancelledEv,@function
_ZNK3MPI6Status12Is_cancelledEv:        # @_ZNK3MPI6Status12Is_cancelledEv
.Lfunc_begin44:
	.loc	11 35 0                 # /usr/lib/x86_64-linux-gnu/openmpi/include/openmpi/ompi/mpi/cxx/status_inln.h:35:0
	.cfi_startproc
# %bb.0:                                # %L.entry
	#DEBUG_VALUE: Is_cancelled: <- $rdi
	#DEBUG_VALUE: Is_cancelled: <- $rdi
	pushq	%rbp
	.cfi_def_cfa_offset 16
	.cfi_offset %rbp, -16
	movq	%rsp, %rbp
	.cfi_def_cfa_register %rbp
	subq	$16, %rsp
.Ltmp284:
	#DEBUG_VALUE:  <- $rdi
	.loc	11 37 1 prologue_end    # /usr/lib/x86_64-linux-gnu/openmpi/include/openmpi/ompi/mpi/cxx/status_inln.h:37:1
	addq	$8, %rdi
.Ltmp285:
	#DEBUG_VALUE: t <- [DW_OP_constu 4, DW_OP_minus, DW_OP_deref] $rbp
	.loc	11 0 1 is_stmt 0        # /usr/lib/x86_64-linux-gnu/openmpi/include/openmpi/ompi/mpi/cxx/status_inln.h:0:1
	leaq	-4(%rbp), %rsi
	.loc	11 37 1                 # /usr/lib/x86_64-linux-gnu/openmpi/include/openmpi/ompi/mpi/cxx/status_inln.h:37:1
	callq	MPI_Test_cancelled
.Ltmp286:
	#DEBUG_VALUE: t <- undef
	.loc	11 38 1 is_stmt 1       # /usr/lib/x86_64-linux-gnu/openmpi/include/openmpi/ompi/mpi/cxx/status_inln.h:38:1
	cmpl	$0, -4(%rbp)
	setne	%al
	addq	$16, %rsp
	popq	%rbp
	.cfi_def_cfa %rsp, 8
	retq
.Ltmp287:
.Lfunc_end44:
	.size	_ZNK3MPI6Status12Is_cancelledEv, .Lfunc_end44-_ZNK3MPI6Status12Is_cancelledEv
	.cfi_endproc
                                        # -- End function
	.weak	_ZNK3MPI6Status12Get_elementsERKNS_8DatatypeE # -- Begin function _ZNK3MPI6Status12Get_elementsERKNS_8DatatypeE
	.p2align	4, 0x90
	.type	_ZNK3MPI6Status12Get_elementsERKNS_8DatatypeE,@function
_ZNK3MPI6Status12Get_elementsERKNS_8DatatypeE: # @_ZNK3MPI6Status12Get_elementsERKNS_8DatatypeE
.Lfunc_begin45:
	.loc	11 43 0                 # /usr/lib/x86_64-linux-gnu/openmpi/include/openmpi/ompi/mpi/cxx/status_inln.h:43:0
	.cfi_startproc
# %bb.0:                                # %L.entry
	#DEBUG_VALUE: Get_elements: <- $rdi
	#DEBUG_VALUE: Get_elements: <- $rdi
	#DEBUG_VALUE: Get_elements:datatype <- $rsi
	#DEBUG_VALUE: Get_elements:datatype <- $rsi
	pushq	%rbp
	.cfi_def_cfa_offset 16
	.cfi_offset %rbp, -16
	movq	%rsp, %rbp
	.cfi_def_cfa_register %rbp
	subq	$16, %rsp
.Ltmp288:
	#DEBUG_VALUE:  <- $rdi
	#DEBUG_VALUE: datatype <- $rsi
	.loc	11 90 1 prologue_end    # /usr/lib/x86_64-linux-gnu/openmpi/include/openmpi/ompi/mpi/cxx/status_inln.h:90:1
	addq	$8, %rdi
.Ltmp289:
	movq	8(%rsi), %rsi
.Ltmp290:
	#DEBUG_VALUE: count <- [DW_OP_constu 4, DW_OP_minus, DW_OP_deref] $rbp
	.loc	11 0 1 is_stmt 0        # /usr/lib/x86_64-linux-gnu/openmpi/include/openmpi/ompi/mpi/cxx/status_inln.h:0:1
	leaq	-4(%rbp), %rdx
	.loc	11 90 1                 # /usr/lib/x86_64-linux-gnu/openmpi/include/openmpi/ompi/mpi/cxx/status_inln.h:90:1
	callq	MPI_Get_elements
	.loc	11 46 1 is_stmt 1       # /usr/lib/x86_64-linux-gnu/openmpi/include/openmpi/ompi/mpi/cxx/status_inln.h:46:1
	movl	-4(%rbp), %eax
.Ltmp291:
	#DEBUG_VALUE: count <- $eax
	addq	$16, %rsp
	popq	%rbp
	.cfi_def_cfa %rsp, 8
	retq
.Ltmp292:
.Lfunc_end45:
	.size	_ZNK3MPI6Status12Get_elementsERKNS_8DatatypeE, .Lfunc_end45-_ZNK3MPI6Status12Get_elementsERKNS_8DatatypeE
	.cfi_endproc
                                        # -- End function
	.weak	_ZNK3MPI6Status10Get_sourceEv # -- Begin function _ZNK3MPI6Status10Get_sourceEv
	.p2align	4, 0x90
	.type	_ZNK3MPI6Status10Get_sourceEv,@function
_ZNK3MPI6Status10Get_sourceEv:          # @_ZNK3MPI6Status10Get_sourceEv
.Lfunc_begin46:
	.loc	11 54 0                 # /usr/lib/x86_64-linux-gnu/openmpi/include/openmpi/ompi/mpi/cxx/status_inln.h:54:0
	.cfi_startproc
# %bb.0:                                # %L.entry
	#DEBUG_VALUE: Get_source: <- $rdi
	#DEBUG_VALUE: Get_source: <- $rdi
	pushq	%rbp
	.cfi_def_cfa_offset 16
	.cfi_offset %rbp, -16
	movq	%rsp, %rbp
	.cfi_def_cfa_register %rbp
.Ltmp293:
	#DEBUG_VALUE:  <- $rdi
	#DEBUG_VALUE:  <- $rdi
	.loc	11 57 1 prologue_end    # /usr/lib/x86_64-linux-gnu/openmpi/include/openmpi/ompi/mpi/cxx/status_inln.h:57:1
	movl	8(%rdi), %eax
	popq	%rbp
	.cfi_def_cfa %rsp, 8
	retq
.Ltmp294:
.Lfunc_end46:
	.size	_ZNK3MPI6Status10Get_sourceEv, .Lfunc_end46-_ZNK3MPI6Status10Get_sourceEv
	.cfi_endproc
                                        # -- End function
	.weak	_ZN3MPI6Status10Set_sourceEi # -- Begin function _ZN3MPI6Status10Set_sourceEi
	.p2align	4, 0x90
	.type	_ZN3MPI6Status10Set_sourceEi,@function
_ZN3MPI6Status10Set_sourceEi:           # @_ZN3MPI6Status10Set_sourceEi
.Lfunc_begin47:
	.loc	11 62 0                 # /usr/lib/x86_64-linux-gnu/openmpi/include/openmpi/ompi/mpi/cxx/status_inln.h:62:0
	.cfi_startproc
# %bb.0:                                # %L.entry
	#DEBUG_VALUE: Set_source: <- $rdi
	#DEBUG_VALUE: Set_source: <- $rdi
	#DEBUG_VALUE: Set_source:source <- $esi
	#DEBUG_VALUE: Set_source:source <- $esi
	pushq	%rbp
	.cfi_def_cfa_offset 16
	.cfi_offset %rbp, -16
	movq	%rsp, %rbp
	.cfi_def_cfa_register %rbp
.Ltmp295:
	#DEBUG_VALUE:  <- $rdi
	#DEBUG_VALUE:  <- $rdi
	#DEBUG_VALUE: source <- $esi
	#DEBUG_VALUE: source <- $esi
	.loc	11 63 1 prologue_end    # /usr/lib/x86_64-linux-gnu/openmpi/include/openmpi/ompi/mpi/cxx/status_inln.h:63:1
	movl	%esi, 8(%rdi)
	.loc	11 64 1                 # /usr/lib/x86_64-linux-gnu/openmpi/include/openmpi/ompi/mpi/cxx/status_inln.h:64:1
	popq	%rbp
	.cfi_def_cfa %rsp, 8
	retq
.Ltmp296:
.Lfunc_end47:
	.size	_ZN3MPI6Status10Set_sourceEi, .Lfunc_end47-_ZN3MPI6Status10Set_sourceEi
	.cfi_endproc
                                        # -- End function
	.weak	_ZNK3MPI6Status7Get_tagEv # -- Begin function _ZNK3MPI6Status7Get_tagEv
	.p2align	4, 0x90
	.type	_ZNK3MPI6Status7Get_tagEv,@function
_ZNK3MPI6Status7Get_tagEv:              # @_ZNK3MPI6Status7Get_tagEv
.Lfunc_begin48:
	.loc	11 68 0                 # /usr/lib/x86_64-linux-gnu/openmpi/include/openmpi/ompi/mpi/cxx/status_inln.h:68:0
	.cfi_startproc
# %bb.0:                                # %L.entry
	#DEBUG_VALUE: Get_tag: <- $rdi
	#DEBUG_VALUE: Get_tag: <- $rdi
	pushq	%rbp
	.cfi_def_cfa_offset 16
	.cfi_offset %rbp, -16
	movq	%rsp, %rbp
	.cfi_def_cfa_register %rbp
.Ltmp297:
	#DEBUG_VALUE:  <- $rdi
	#DEBUG_VALUE:  <- $rdi
	.loc	11 71 1 prologue_end    # /usr/lib/x86_64-linux-gnu/openmpi/include/openmpi/ompi/mpi/cxx/status_inln.h:71:1
	movl	12(%rdi), %eax
	popq	%rbp
	.cfi_def_cfa %rsp, 8
	retq
.Ltmp298:
.Lfunc_end48:
	.size	_ZNK3MPI6Status7Get_tagEv, .Lfunc_end48-_ZNK3MPI6Status7Get_tagEv
	.cfi_endproc
                                        # -- End function
	.weak	_ZN3MPI6Status7Set_tagEi # -- Begin function _ZN3MPI6Status7Set_tagEi
	.p2align	4, 0x90
	.type	_ZN3MPI6Status7Set_tagEi,@function
_ZN3MPI6Status7Set_tagEi:               # @_ZN3MPI6Status7Set_tagEi
.Lfunc_begin49:
	.loc	11 76 0                 # /usr/lib/x86_64-linux-gnu/openmpi/include/openmpi/ompi/mpi/cxx/status_inln.h:76:0
	.cfi_startproc
# %bb.0:                                # %L.entry
	#DEBUG_VALUE: Set_tag: <- $rdi
	#DEBUG_VALUE: Set_tag: <- $rdi
	#DEBUG_VALUE: Set_tag:tag <- $esi
	#DEBUG_VALUE: Set_tag:tag <- $esi
	pushq	%rbp
	.cfi_def_cfa_offset 16
	.cfi_offset %rbp, -16
	movq	%rsp, %rbp
	.cfi_def_cfa_register %rbp
.Ltmp299:
	#DEBUG_VALUE:  <- $rdi
	#DEBUG_VALUE:  <- $rdi
	#DEBUG_VALUE: tag <- $esi
	#DEBUG_VALUE: tag <- $esi
	.loc	11 77 1 prologue_end    # /usr/lib/x86_64-linux-gnu/openmpi/include/openmpi/ompi/mpi/cxx/status_inln.h:77:1
	movl	%esi, 12(%rdi)
	.loc	11 78 1                 # /usr/lib/x86_64-linux-gnu/openmpi/include/openmpi/ompi/mpi/cxx/status_inln.h:78:1
	popq	%rbp
	.cfi_def_cfa %rsp, 8
	retq
.Ltmp300:
.Lfunc_end49:
	.size	_ZN3MPI6Status7Set_tagEi, .Lfunc_end49-_ZN3MPI6Status7Set_tagEi
	.cfi_endproc
                                        # -- End function
	.weak	_ZNK3MPI6Status9Get_errorEv # -- Begin function _ZNK3MPI6Status9Get_errorEv
	.p2align	4, 0x90
	.type	_ZNK3MPI6Status9Get_errorEv,@function
_ZNK3MPI6Status9Get_errorEv:            # @_ZNK3MPI6Status9Get_errorEv
.Lfunc_begin50:
	.loc	11 82 0                 # /usr/lib/x86_64-linux-gnu/openmpi/include/openmpi/ompi/mpi/cxx/status_inln.h:82:0
	.cfi_startproc
# %bb.0:                                # %L.entry
	#DEBUG_VALUE: Get_error: <- $rdi
	#DEBUG_VALUE: Get_error: <- $rdi
	pushq	%rbp
	.cfi_def_cfa_offset 16
	.cfi_offset %rbp, -16
	movq	%rsp, %rbp
	.cfi_def_cfa_register %rbp
.Ltmp301:
	#DEBUG_VALUE:  <- $rdi
	#DEBUG_VALUE:  <- $rdi
	.loc	11 85 1 prologue_end    # /usr/lib/x86_64-linux-gnu/openmpi/include/openmpi/ompi/mpi/cxx/status_inln.h:85:1
	movl	16(%rdi), %eax
	popq	%rbp
	.cfi_def_cfa %rsp, 8
	retq
.Ltmp302:
.Lfunc_end50:
	.size	_ZNK3MPI6Status9Get_errorEv, .Lfunc_end50-_ZNK3MPI6Status9Get_errorEv
	.cfi_endproc
                                        # -- End function
	.weak	_ZN3MPI6Status9Set_errorEi # -- Begin function _ZN3MPI6Status9Set_errorEi
	.p2align	4, 0x90
	.type	_ZN3MPI6Status9Set_errorEi,@function
_ZN3MPI6Status9Set_errorEi:             # @_ZN3MPI6Status9Set_errorEi
.Lfunc_begin51:
	.loc	11 90 0                 # /usr/lib/x86_64-linux-gnu/openmpi/include/openmpi/ompi/mpi/cxx/status_inln.h:90:0
	.cfi_startproc
# %bb.0:                                # %L.entry
	#DEBUG_VALUE: Set_error: <- $rdi
	#DEBUG_VALUE: Set_error: <- $rdi
	#DEBUG_VALUE: Set_error:error <- $esi
	#DEBUG_VALUE: Set_error:error <- $esi
	pushq	%rbp
	.cfi_def_cfa_offset 16
	.cfi_offset %rbp, -16
	movq	%rsp, %rbp
	.cfi_def_cfa_register %rbp
.Ltmp303:
	#DEBUG_VALUE:  <- $rdi
	#DEBUG_VALUE:  <- $rdi
	#DEBUG_VALUE: error <- $esi
	#DEBUG_VALUE: error <- $esi
	.loc	11 91 1 prologue_end    # /usr/lib/x86_64-linux-gnu/openmpi/include/openmpi/ompi/mpi/cxx/status_inln.h:91:1
	movl	%esi, 16(%rdi)
	.loc	11 92 1                 # /usr/lib/x86_64-linux-gnu/openmpi/include/openmpi/ompi/mpi/cxx/status_inln.h:92:1
	popq	%rbp
	.cfi_def_cfa %rsp, 8
	retq
.Ltmp304:
.Lfunc_end51:
	.size	_ZN3MPI6Status9Set_errorEi, .Lfunc_end51-_ZN3MPI6Status9Set_errorEi
	.cfi_endproc
                                        # -- End function
	.weak	_ZN3MPI6Status12Set_elementsERKNS_8DatatypeEi # -- Begin function _ZN3MPI6Status12Set_elementsERKNS_8DatatypeEi
	.p2align	4, 0x90
	.type	_ZN3MPI6Status12Set_elementsERKNS_8DatatypeEi,@function
_ZN3MPI6Status12Set_elementsERKNS_8DatatypeEi: # @_ZN3MPI6Status12Set_elementsERKNS_8DatatypeEi
.Lfunc_begin52:
	.loc	11 96 0                 # /usr/lib/x86_64-linux-gnu/openmpi/include/openmpi/ompi/mpi/cxx/status_inln.h:96:0
	.cfi_startproc
# %bb.0:                                # %L.entry
	#DEBUG_VALUE: Set_elements: <- $rdi
	#DEBUG_VALUE: Set_elements: <- $rdi
	#DEBUG_VALUE: Set_elements:datatype <- $rsi
	#DEBUG_VALUE: Set_elements:datatype <- $rsi
	#DEBUG_VALUE: Set_elements:count <- $edx
	#DEBUG_VALUE: Set_elements:count <- $edx
	pushq	%rbp
	.cfi_def_cfa_offset 16
	.cfi_offset %rbp, -16
	movq	%rsp, %rbp
	.cfi_def_cfa_register %rbp
.Ltmp305:
	#DEBUG_VALUE:  <- $rdi
	#DEBUG_VALUE:  <- $rdi
	#DEBUG_VALUE: datatype <- $rsi
	#DEBUG_VALUE: datatype <- $rsi
	#DEBUG_VALUE: count <- $edx
	#DEBUG_VALUE: count <- $edx
	.loc	11 90 1 prologue_end    # /usr/lib/x86_64-linux-gnu/openmpi/include/openmpi/ompi/mpi/cxx/status_inln.h:90:1
	addq	$8, %rdi
.Ltmp306:
	movq	8(%rsi), %rsi
.Ltmp307:
	#DEBUG_VALUE: count <- $edx
	#DEBUG_VALUE: Set_elements:count <- $edx
	popq	%rbp
	.cfi_def_cfa %rsp, 8
	jmp	MPI_Status_set_elements # TAILCALL
.Ltmp308:
.Lfunc_end52:
	.size	_ZN3MPI6Status12Set_elementsERKNS_8DatatypeEi, .Lfunc_end52-_ZN3MPI6Status12Set_elementsERKNS_8DatatypeEi
	.cfi_endproc
                                        # -- End function
	.weak	_ZN3MPI6Status13Set_cancelledEb # -- Begin function _ZN3MPI6Status13Set_cancelledEb
	.p2align	4, 0x90
	.type	_ZN3MPI6Status13Set_cancelledEb,@function
_ZN3MPI6Status13Set_cancelledEb:        # @_ZN3MPI6Status13Set_cancelledEb
.Lfunc_begin53:
	.loc	11 102 0                # /usr/lib/x86_64-linux-gnu/openmpi/include/openmpi/ompi/mpi/cxx/status_inln.h:102:0
	.cfi_startproc
# %bb.0:                                # %L.entry
	#DEBUG_VALUE: Set_cancelled: <- $rdi
	#DEBUG_VALUE: Set_cancelled: <- $rdi
	#DEBUG_VALUE: Set_cancelled:flag <- $esi
	#DEBUG_VALUE: Set_cancelled:flag <- $esi
	pushq	%rbp
	.cfi_def_cfa_offset 16
	.cfi_offset %rbp, -16
	movq	%rsp, %rbp
	.cfi_def_cfa_register %rbp
.Ltmp309:
	#DEBUG_VALUE:  <- $rdi
	#DEBUG_VALUE:  <- $rdi
	#DEBUG_VALUE: flag <- $esi
	#DEBUG_VALUE: flag <- $esi
	.loc	11 103 1 prologue_end   # /usr/lib/x86_64-linux-gnu/openmpi/include/openmpi/ompi/mpi/cxx/status_inln.h:103:1
	addq	$8, %rdi
.Ltmp310:
	#DEBUG_VALUE: flag <- $esi
	#DEBUG_VALUE: Set_cancelled:flag <- $esi
	popq	%rbp
	.cfi_def_cfa %rsp, 8
	jmp	MPI_Status_set_cancelled # TAILCALL
.Ltmp311:
.Lfunc_end53:
	.size	_ZN3MPI6Status13Set_cancelledEb, .Lfunc_end53-_ZN3MPI6Status13Set_cancelledEb
	.cfi_endproc
                                        # -- End function
	.weak	_ZN3MPI7RequestD1Ev     # -- Begin function _ZN3MPI7RequestD1Ev
	.p2align	4, 0x90
	.type	_ZN3MPI7RequestD1Ev,@function
_ZN3MPI7RequestD1Ev:                    # @_ZN3MPI7RequestD1Ev
.Lfunc_begin54:
	.file	12 "/usr/lib/x86_64-linux-gnu/openmpi/include/openmpi/ompi/mpi/cxx/request.h"
	.loc	12 61 0                 # /usr/lib/x86_64-linux-gnu/openmpi/include/openmpi/ompi/mpi/cxx/request.h:61:0
	.cfi_startproc
# %bb.0:                                # %L.entry
	#DEBUG_VALUE: ~Request: <- $rdi
	#DEBUG_VALUE: ~Request: <- $rdi
	pushq	%rbp
	.cfi_def_cfa_offset 16
	.cfi_offset %rbp, -16
	movq	%rsp, %rbp
	.cfi_def_cfa_register %rbp
.Ltmp312:
	#DEBUG_VALUE:  <- $rdi
	#DEBUG_VALUE:  <- $rdi
	.loc	12 61 1 prologue_end    # /usr/lib/x86_64-linux-gnu/openmpi/include/openmpi/ompi/mpi/cxx/request.h:61:1
	movq	$_ZTVN3MPI7RequestE+16, (%rdi)
	popq	%rbp
	.cfi_def_cfa %rsp, 8
	retq
.Ltmp313:
.Lfunc_end54:
	.size	_ZN3MPI7RequestD1Ev, .Lfunc_end54-_ZN3MPI7RequestD1Ev
	.cfi_endproc
                                        # -- End function
	.weak	_ZN3MPI7RequestD0Ev     # -- Begin function _ZN3MPI7RequestD0Ev
	.p2align	4, 0x90
	.type	_ZN3MPI7RequestD0Ev,@function
_ZN3MPI7RequestD0Ev:                    # @_ZN3MPI7RequestD0Ev
.Lfunc_begin55:
	.loc	1 0 0                   # projects/Firehose/Firehose.cpp:0:0
	.cfi_startproc
# %bb.0:                                # %L.entry
	pushq	%rbp
	.cfi_def_cfa_offset 16
	.cfi_offset %rbp, -16
	movq	%rsp, %rbp
	.cfi_def_cfa_register %rbp
.Ltmp314:
	.loc	1 61 1 prologue_end     # projects/Firehose/Firehose.cpp:61:1
	movl	$16, %esi
	popq	%rbp
	.cfi_def_cfa %rsp, 8
	jmp	_ZdlPvm                 # TAILCALL
.Ltmp315:
.Lfunc_end55:
	.size	_ZN3MPI7RequestD0Ev, .Lfunc_end55-_ZN3MPI7RequestD0Ev
	.cfi_endproc
                                        # -- End function
	.weak	_ZN3MPI7Request4WaitERNS_6StatusE # -- Begin function _ZN3MPI7Request4WaitERNS_6StatusE
	.p2align	4, 0x90
	.type	_ZN3MPI7Request4WaitERNS_6StatusE,@function
_ZN3MPI7Request4WaitERNS_6StatusE:      # @_ZN3MPI7Request4WaitERNS_6StatusE
.Lfunc_begin56:
	.file	13 "/usr/lib/x86_64-linux-gnu/openmpi/include/openmpi/ompi/mpi/cxx/request_inln.h"
	.loc	13 28 0                 # /usr/lib/x86_64-linux-gnu/openmpi/include/openmpi/ompi/mpi/cxx/request_inln.h:28:0
	.cfi_startproc
# %bb.0:                                # %L.entry
	#DEBUG_VALUE: Wait: <- $rdi
	#DEBUG_VALUE: Wait: <- $rdi
	#DEBUG_VALUE: Wait:status <- $rsi
	#DEBUG_VALUE: Wait:status <- $rsi
	pushq	%rbp
	.cfi_def_cfa_offset 16
	.cfi_offset %rbp, -16
	movq	%rsp, %rbp
	.cfi_def_cfa_register %rbp
.Ltmp316:
	#DEBUG_VALUE:  <- $rdi
	#DEBUG_VALUE:  <- $rdi
	#DEBUG_VALUE: status <- $rsi
	#DEBUG_VALUE: status <- $rsi
	.loc	13 29 1 prologue_end    # /usr/lib/x86_64-linux-gnu/openmpi/include/openmpi/ompi/mpi/cxx/request_inln.h:29:1
	addq	$8, %rdi
.Ltmp317:
	addq	$8, %rsi
.Ltmp318:
	popq	%rbp
	.cfi_def_cfa %rsp, 8
	jmp	MPI_Wait                # TAILCALL
.Ltmp319:
.Lfunc_end56:
	.size	_ZN3MPI7Request4WaitERNS_6StatusE, .Lfunc_end56-_ZN3MPI7Request4WaitERNS_6StatusE
	.cfi_endproc
                                        # -- End function
	.weak	_ZN3MPI7Request4WaitEv  # -- Begin function _ZN3MPI7Request4WaitEv
	.p2align	4, 0x90
	.type	_ZN3MPI7Request4WaitEv,@function
_ZN3MPI7Request4WaitEv:                 # @_ZN3MPI7Request4WaitEv
.Lfunc_begin57:
	.loc	13 34 0                 # /usr/lib/x86_64-linux-gnu/openmpi/include/openmpi/ompi/mpi/cxx/request_inln.h:34:0
	.cfi_startproc
# %bb.0:                                # %L.entry
	#DEBUG_VALUE: Wait: <- $rdi
	#DEBUG_VALUE: Wait: <- $rdi
	pushq	%rbp
	.cfi_def_cfa_offset 16
	.cfi_offset %rbp, -16
	movq	%rsp, %rbp
	.cfi_def_cfa_register %rbp
.Ltmp320:
	#DEBUG_VALUE:  <- $rdi
	#DEBUG_VALUE:  <- $rdi
	.loc	13 35 1 prologue_end    # /usr/lib/x86_64-linux-gnu/openmpi/include/openmpi/ompi/mpi/cxx/request_inln.h:35:1
	addq	$8, %rdi
.Ltmp321:
	xorl	%esi, %esi
	popq	%rbp
	.cfi_def_cfa %rsp, 8
	jmp	MPI_Wait                # TAILCALL
.Ltmp322:
.Lfunc_end57:
	.size	_ZN3MPI7Request4WaitEv, .Lfunc_end57-_ZN3MPI7Request4WaitEv
	.cfi_endproc
                                        # -- End function
	.weak	_ZN3MPI7Request4TestERNS_6StatusE # -- Begin function _ZN3MPI7Request4TestERNS_6StatusE
	.p2align	4, 0x90
	.type	_ZN3MPI7Request4TestERNS_6StatusE,@function
_ZN3MPI7Request4TestERNS_6StatusE:      # @_ZN3MPI7Request4TestERNS_6StatusE
.Lfunc_begin58:
	.loc	13 46 0                 # /usr/lib/x86_64-linux-gnu/openmpi/include/openmpi/ompi/mpi/cxx/request_inln.h:46:0
	.cfi_startproc
# %bb.0:                                # %L.entry
	#DEBUG_VALUE: Test: <- $rdi
	#DEBUG_VALUE: Test: <- $rdi
	#DEBUG_VALUE: Test:status <- $rsi
	#DEBUG_VALUE: Test:status <- $rsi
	pushq	%rbp
	.cfi_def_cfa_offset 16
	.cfi_offset %rbp, -16
	movq	%rsp, %rbp
	.cfi_def_cfa_register %rbp
	subq	$16, %rsp
.Ltmp323:
	#DEBUG_VALUE:  <- $rdi
	#DEBUG_VALUE: status <- $rsi
	.loc	13 48 1 prologue_end    # /usr/lib/x86_64-linux-gnu/openmpi/include/openmpi/ompi/mpi/cxx/request_inln.h:48:1
	addq	$8, %rdi
.Ltmp324:
	leaq	8(%rsi), %rdx
.Ltmp325:
	#DEBUG_VALUE: t <- [DW_OP_constu 4, DW_OP_minus, DW_OP_deref] $rbp
	.loc	13 0 1 is_stmt 0        # /usr/lib/x86_64-linux-gnu/openmpi/include/openmpi/ompi/mpi/cxx/request_inln.h:0:1
	leaq	-4(%rbp), %rsi
.Ltmp326:
	.loc	13 48 1                 # /usr/lib/x86_64-linux-gnu/openmpi/include/openmpi/ompi/mpi/cxx/request_inln.h:48:1
	callq	MPI_Test
.Ltmp327:
	#DEBUG_VALUE: t <- undef
	.loc	13 49 1 is_stmt 1       # /usr/lib/x86_64-linux-gnu/openmpi/include/openmpi/ompi/mpi/cxx/request_inln.h:49:1
	cmpl	$0, -4(%rbp)
	setne	%al
	addq	$16, %rsp
	popq	%rbp
	.cfi_def_cfa %rsp, 8
	retq
.Ltmp328:
.Lfunc_end58:
	.size	_ZN3MPI7Request4TestERNS_6StatusE, .Lfunc_end58-_ZN3MPI7Request4TestERNS_6StatusE
	.cfi_endproc
                                        # -- End function
	.weak	_ZN3MPI7Request4TestEv  # -- Begin function _ZN3MPI7Request4TestEv
	.p2align	4, 0x90
	.type	_ZN3MPI7Request4TestEv,@function
_ZN3MPI7Request4TestEv:                 # @_ZN3MPI7Request4TestEv
.Lfunc_begin59:
	.loc	13 54 0                 # /usr/lib/x86_64-linux-gnu/openmpi/include/openmpi/ompi/mpi/cxx/request_inln.h:54:0
	.cfi_startproc
# %bb.0:                                # %L.entry
	#DEBUG_VALUE: Test: <- $rdi
	#DEBUG_VALUE: Test: <- $rdi
	pushq	%rbp
	.cfi_def_cfa_offset 16
	.cfi_offset %rbp, -16
	movq	%rsp, %rbp
	.cfi_def_cfa_register %rbp
	subq	$16, %rsp
.Ltmp329:
	#DEBUG_VALUE:  <- $rdi
	.loc	13 56 1 prologue_end    # /usr/lib/x86_64-linux-gnu/openmpi/include/openmpi/ompi/mpi/cxx/request_inln.h:56:1
	addq	$8, %rdi
.Ltmp330:
	#DEBUG_VALUE: t <- [DW_OP_constu 4, DW_OP_minus, DW_OP_deref] $rbp
	.loc	13 0 1 is_stmt 0        # /usr/lib/x86_64-linux-gnu/openmpi/include/openmpi/ompi/mpi/cxx/request_inln.h:0:1
	leaq	-4(%rbp), %rsi
	.loc	13 56 1                 # /usr/lib/x86_64-linux-gnu/openmpi/include/openmpi/ompi/mpi/cxx/request_inln.h:56:1
	xorl	%edx, %edx
	callq	MPI_Test
.Ltmp331:
	#DEBUG_VALUE: t <- undef
	.loc	13 57 1 is_stmt 1       # /usr/lib/x86_64-linux-gnu/openmpi/include/openmpi/ompi/mpi/cxx/request_inln.h:57:1
	cmpl	$0, -4(%rbp)
	setne	%al
	addq	$16, %rsp
	popq	%rbp
	.cfi_def_cfa %rsp, 8
	retq
.Ltmp332:
.Lfunc_end59:
	.size	_ZN3MPI7Request4TestEv, .Lfunc_end59-_ZN3MPI7Request4TestEv
	.cfi_endproc
                                        # -- End function
	.weak	_ZN3MPI7Request4FreeEv  # -- Begin function _ZN3MPI7Request4FreeEv
	.p2align	4, 0x90
	.type	_ZN3MPI7Request4FreeEv,@function
_ZN3MPI7Request4FreeEv:                 # @_ZN3MPI7Request4FreeEv
.Lfunc_begin60:
	.loc	13 40 0                 # /usr/lib/x86_64-linux-gnu/openmpi/include/openmpi/ompi/mpi/cxx/request_inln.h:40:0
	.cfi_startproc
# %bb.0:                                # %L.entry
	#DEBUG_VALUE: Free: <- $rdi
	#DEBUG_VALUE: Free: <- $rdi
	pushq	%rbp
	.cfi_def_cfa_offset 16
	.cfi_offset %rbp, -16
	movq	%rsp, %rbp
	.cfi_def_cfa_register %rbp
.Ltmp333:
	#DEBUG_VALUE:  <- $rdi
	#DEBUG_VALUE:  <- $rdi
	.loc	13 41 1 prologue_end    # /usr/lib/x86_64-linux-gnu/openmpi/include/openmpi/ompi/mpi/cxx/request_inln.h:41:1
	addq	$8, %rdi
.Ltmp334:
	popq	%rbp
	.cfi_def_cfa %rsp, 8
	jmp	MPI_Request_free        # TAILCALL
.Ltmp335:
.Lfunc_end60:
	.size	_ZN3MPI7Request4FreeEv, .Lfunc_end60-_ZN3MPI7Request4FreeEv
	.cfi_endproc
                                        # -- End function
	.weak	_ZNK3MPI7Request6CancelEv # -- Begin function _ZNK3MPI7Request6CancelEv
	.p2align	4, 0x90
	.type	_ZNK3MPI7Request6CancelEv,@function
_ZNK3MPI7Request6CancelEv:              # @_ZNK3MPI7Request6CancelEv
.Lfunc_begin61:
	.loc	13 289 0                # /usr/lib/x86_64-linux-gnu/openmpi/include/openmpi/ompi/mpi/cxx/request_inln.h:289:0
	.cfi_startproc
# %bb.0:                                # %L.entry
	#DEBUG_VALUE: Cancel: <- $rdi
	#DEBUG_VALUE: Cancel: <- $rdi
	pushq	%rbp
	.cfi_def_cfa_offset 16
	.cfi_offset %rbp, -16
	movq	%rsp, %rbp
	.cfi_def_cfa_register %rbp
.Ltmp336:
	#DEBUG_VALUE:  <- $rdi
	#DEBUG_VALUE:  <- $rdi
	.loc	13 290 1 prologue_end   # /usr/lib/x86_64-linux-gnu/openmpi/include/openmpi/ompi/mpi/cxx/request_inln.h:290:1
	addq	$8, %rdi
.Ltmp337:
	popq	%rbp
	.cfi_def_cfa %rsp, 8
	jmp	MPI_Cancel              # TAILCALL
.Ltmp338:
.Lfunc_end61:
	.size	_ZNK3MPI7Request6CancelEv, .Lfunc_end61-_ZNK3MPI7Request6CancelEv
	.cfi_endproc
                                        # -- End function
	.weak	_ZNK3MPI7Request10Get_statusERNS_6StatusE # -- Begin function _ZNK3MPI7Request10Get_statusERNS_6StatusE
	.p2align	4, 0x90
	.type	_ZNK3MPI7Request10Get_statusERNS_6StatusE,@function
_ZNK3MPI7Request10Get_statusERNS_6StatusE: # @_ZNK3MPI7Request10Get_statusERNS_6StatusE
.Lfunc_begin62:
	.loc	13 316 0                # /usr/lib/x86_64-linux-gnu/openmpi/include/openmpi/ompi/mpi/cxx/request_inln.h:316:0
	.cfi_startproc
# %bb.0:                                # %L.entry
	#DEBUG_VALUE: Get_status: <- $rdi
	#DEBUG_VALUE: Get_status:status <- $rsi
	pushq	%rbp
	.cfi_def_cfa_offset 16
	.cfi_offset %rbp, -16
	movq	%rsp, %rbp
	.cfi_def_cfa_register %rbp
	pushq	%rbx
	subq	$40, %rsp
	.cfi_offset %rbx, -24
	movq	%rsi, %rbx
.Ltmp339:
	#DEBUG_VALUE: flag <- 0
	#DEBUG_VALUE: status <- undef
	#DEBUG_VALUE:  <- $rdi
	#DEBUG_VALUE: Get_status:status <- $rbx
	#DEBUG_VALUE: Get_status: <- $rdi
	.loc	13 317 1 prologue_end   # /usr/lib/x86_64-linux-gnu/openmpi/include/openmpi/ompi/mpi/cxx/request_inln.h:317:1
	movl	$0, -12(%rbp)
	.loc	13 323 1                # /usr/lib/x86_64-linux-gnu/openmpi/include/openmpi/ompi/mpi/cxx/request_inln.h:323:1
	movq	8(%rdi), %rdi
.Ltmp340:
	#DEBUG_VALUE: flag <- [DW_OP_constu 12, DW_OP_minus, DW_OP_deref] $rbp
	.loc	13 0 1 is_stmt 0        # /usr/lib/x86_64-linux-gnu/openmpi/include/openmpi/ompi/mpi/cxx/request_inln.h:0:1
	leaq	-12(%rbp), %rsi
	leaq	-48(%rbp), %rdx
	.loc	13 323 1                # /usr/lib/x86_64-linux-gnu/openmpi/include/openmpi/ompi/mpi/cxx/request_inln.h:323:1
	callq	MPI_Request_get_status
	.loc	13 324 1 is_stmt 1      # /usr/lib/x86_64-linux-gnu/openmpi/include/openmpi/ompi/mpi/cxx/request_inln.h:324:1
	movl	-12(%rbp), %eax
.Ltmp341:
	#DEBUG_VALUE: flag <- $eax
	testl	%eax, %eax
	je	.LBB62_2
.Ltmp342:
# %bb.1:                                # %L.B1806
	#DEBUG_VALUE: flag <- $eax
	#DEBUG_VALUE: Get_status:status <- $rbx
	.loc	13 325 1                # /usr/lib/x86_64-linux-gnu/openmpi/include/openmpi/ompi/mpi/cxx/request_inln.h:325:1
	vmovaps	-48(%rbp), %xmm0
	vmovups	%xmm0, 8(%rbx)
	movq	-32(%rbp), %rcx
	movq	%rcx, 24(%rbx)
.Ltmp343:
.LBB62_2:                               # %L.B0047
	#DEBUG_VALUE: flag <- $eax
	#DEBUG_VALUE: Get_status:status <- $rbx
	#DEBUG_VALUE: flag <- $eax
	.loc	13 327 1                # /usr/lib/x86_64-linux-gnu/openmpi/include/openmpi/ompi/mpi/cxx/request_inln.h:327:1
	testl	%eax, %eax
	setne	%al
.Ltmp344:
	addq	$40, %rsp
	popq	%rbx
.Ltmp345:
	popq	%rbp
	.cfi_def_cfa %rsp, 8
	retq
.Ltmp346:
.Lfunc_end62:
	.size	_ZNK3MPI7Request10Get_statusERNS_6StatusE, .Lfunc_end62-_ZNK3MPI7Request10Get_statusERNS_6StatusE
	.cfi_endproc
                                        # -- End function
	.weak	_ZNK3MPI7Request10Get_statusEv # -- Begin function _ZNK3MPI7Request10Get_statusEv
	.p2align	4, 0x90
	.type	_ZNK3MPI7Request10Get_statusEv,@function
_ZNK3MPI7Request10Get_statusEv:         # @_ZNK3MPI7Request10Get_statusEv
.Lfunc_begin63:
	.loc	13 331 0                # /usr/lib/x86_64-linux-gnu/openmpi/include/openmpi/ompi/mpi/cxx/request_inln.h:331:0
	.cfi_startproc
# %bb.0:                                # %L.entry
	#DEBUG_VALUE: Get_status: <- $rdi
	#DEBUG_VALUE: Get_status: <- $rdi
	pushq	%rbp
	.cfi_def_cfa_offset 16
	.cfi_offset %rbp, -16
	movq	%rsp, %rbp
	.cfi_def_cfa_register %rbp
	subq	$16, %rsp
.Ltmp347:
	#DEBUG_VALUE:  <- $rdi
	.loc	13 337 1 prologue_end   # /usr/lib/x86_64-linux-gnu/openmpi/include/openmpi/ompi/mpi/cxx/request_inln.h:337:1
	movq	8(%rdi), %rdi
.Ltmp348:
	#DEBUG_VALUE: flag <- [DW_OP_constu 4, DW_OP_minus, DW_OP_deref] $rbp
	.loc	13 0 1 is_stmt 0        # /usr/lib/x86_64-linux-gnu/openmpi/include/openmpi/ompi/mpi/cxx/request_inln.h:0:1
	leaq	-4(%rbp), %rsi
	.loc	13 337 1                # /usr/lib/x86_64-linux-gnu/openmpi/include/openmpi/ompi/mpi/cxx/request_inln.h:337:1
	xorl	%edx, %edx
	callq	MPI_Request_get_status
.Ltmp349:
	#DEBUG_VALUE: flag <- undef
	.loc	13 338 1 is_stmt 1      # /usr/lib/x86_64-linux-gnu/openmpi/include/openmpi/ompi/mpi/cxx/request_inln.h:338:1
	cmpl	$0, -4(%rbp)
	setne	%al
	addq	$16, %rsp
	popq	%rbp
	.cfi_def_cfa %rsp, 8
	retq
.Ltmp350:
.Lfunc_end63:
	.size	_ZNK3MPI7Request10Get_statusEv, .Lfunc_end63-_ZNK3MPI7Request10Get_statusEv
	.cfi_endproc
                                        # -- End function
	.weak	_ZN3MPI8PrequestD1Ev    # -- Begin function _ZN3MPI8PrequestD1Ev
	.p2align	4, 0x90
	.type	_ZN3MPI8PrequestD1Ev,@function
_ZN3MPI8PrequestD1Ev:                   # @_ZN3MPI8PrequestD1Ev
.Lfunc_begin64:
	.loc	12 177 0                # /usr/lib/x86_64-linux-gnu/openmpi/include/openmpi/ompi/mpi/cxx/request.h:177:0
	.cfi_startproc
# %bb.0:                                # %L.entry
	#DEBUG_VALUE: ~Prequest: <- $rdi
	#DEBUG_VALUE: ~Prequest: <- $rdi
	pushq	%rbp
	.cfi_def_cfa_offset 16
	.cfi_offset %rbp, -16
	movq	%rsp, %rbp
	.cfi_def_cfa_register %rbp
.Ltmp351:
	#DEBUG_VALUE:  <- $rdi
	#DEBUG_VALUE:  <- $rdi
	.loc	12 177 1 prologue_end   # /usr/lib/x86_64-linux-gnu/openmpi/include/openmpi/ompi/mpi/cxx/request.h:177:1
	movq	$_ZTVN3MPI7RequestE+16, (%rdi)
	popq	%rbp
	.cfi_def_cfa %rsp, 8
	retq
.Ltmp352:
.Lfunc_end64:
	.size	_ZN3MPI8PrequestD1Ev, .Lfunc_end64-_ZN3MPI8PrequestD1Ev
	.cfi_endproc
                                        # -- End function
	.weak	_ZN3MPI8PrequestD0Ev    # -- Begin function _ZN3MPI8PrequestD0Ev
	.p2align	4, 0x90
	.type	_ZN3MPI8PrequestD0Ev,@function
_ZN3MPI8PrequestD0Ev:                   # @_ZN3MPI8PrequestD0Ev
.Lfunc_begin65:
	.loc	1 0 0                   # projects/Firehose/Firehose.cpp:0:0
	.cfi_startproc
# %bb.0:                                # %L.entry
	pushq	%rbp
	.cfi_def_cfa_offset 16
	.cfi_offset %rbp, -16
	movq	%rsp, %rbp
	.cfi_def_cfa_register %rbp
.Ltmp353:
	.loc	1 177 1 prologue_end    # projects/Firehose/Firehose.cpp:177:1
	movl	$16, %esi
	popq	%rbp
	.cfi_def_cfa %rsp, 8
	jmp	_ZdlPvm                 # TAILCALL
.Ltmp354:
.Lfunc_end65:
	.size	_ZN3MPI8PrequestD0Ev, .Lfunc_end65-_ZN3MPI8PrequestD0Ev
	.cfi_endproc
                                        # -- End function
	.weak	_ZN3MPI8Prequest5StartEv # -- Begin function _ZN3MPI8Prequest5StartEv
	.p2align	4, 0x90
	.type	_ZN3MPI8Prequest5StartEv,@function
_ZN3MPI8Prequest5StartEv:               # @_ZN3MPI8Prequest5StartEv
.Lfunc_begin66:
	.loc	13 295 0                # /usr/lib/x86_64-linux-gnu/openmpi/include/openmpi/ompi/mpi/cxx/request_inln.h:295:0
	.cfi_startproc
# %bb.0:                                # %L.entry
	#DEBUG_VALUE: Start: <- $rdi
	#DEBUG_VALUE: Start: <- $rdi
	pushq	%rbp
	.cfi_def_cfa_offset 16
	.cfi_offset %rbp, -16
	movq	%rsp, %rbp
	.cfi_def_cfa_register %rbp
.Ltmp355:
	#DEBUG_VALUE:  <- $rdi
	#DEBUG_VALUE:  <- $rdi
	.loc	13 296 1 prologue_end   # /usr/lib/x86_64-linux-gnu/openmpi/include/openmpi/ompi/mpi/cxx/request_inln.h:296:1
	addq	$8, %rdi
.Ltmp356:
	popq	%rbp
	.cfi_def_cfa %rsp, 8
	jmp	MPI_Start               # TAILCALL
.Ltmp357:
.Lfunc_end66:
	.size	_ZN3MPI8Prequest5StartEv, .Lfunc_end66-_ZN3MPI8Prequest5StartEv
	.cfi_endproc
                                        # -- End function
	.weak	_ZN3MPI8GrequestD1Ev    # -- Begin function _ZN3MPI8GrequestD1Ev
	.p2align	4, 0x90
	.type	_ZN3MPI8GrequestD1Ev,@function
_ZN3MPI8GrequestD1Ev:                   # @_ZN3MPI8GrequestD1Ev
.Lfunc_begin67:
	.loc	12 209 0                # /usr/lib/x86_64-linux-gnu/openmpi/include/openmpi/ompi/mpi/cxx/request.h:209:0
	.cfi_startproc
# %bb.0:                                # %L.entry
	#DEBUG_VALUE: ~Grequest: <- $rdi
	#DEBUG_VALUE: ~Grequest: <- $rdi
	pushq	%rbp
	.cfi_def_cfa_offset 16
	.cfi_offset %rbp, -16
	movq	%rsp, %rbp
	.cfi_def_cfa_register %rbp
.Ltmp358:
	#DEBUG_VALUE:  <- $rdi
	#DEBUG_VALUE:  <- $rdi
	.loc	12 209 1 prologue_end   # /usr/lib/x86_64-linux-gnu/openmpi/include/openmpi/ompi/mpi/cxx/request.h:209:1
	movq	$_ZTVN3MPI7RequestE+16, (%rdi)
	popq	%rbp
	.cfi_def_cfa %rsp, 8
	retq
.Ltmp359:
.Lfunc_end67:
	.size	_ZN3MPI8GrequestD1Ev, .Lfunc_end67-_ZN3MPI8GrequestD1Ev
	.cfi_endproc
                                        # -- End function
	.weak	_ZN3MPI8GrequestD0Ev    # -- Begin function _ZN3MPI8GrequestD0Ev
	.p2align	4, 0x90
	.type	_ZN3MPI8GrequestD0Ev,@function
_ZN3MPI8GrequestD0Ev:                   # @_ZN3MPI8GrequestD0Ev
.Lfunc_begin68:
	.loc	1 0 0                   # projects/Firehose/Firehose.cpp:0:0
	.cfi_startproc
# %bb.0:                                # %L.entry
	pushq	%rbp
	.cfi_def_cfa_offset 16
	.cfi_offset %rbp, -16
	movq	%rsp, %rbp
	.cfi_def_cfa_register %rbp
.Ltmp360:
	.loc	1 209 1 prologue_end    # projects/Firehose/Firehose.cpp:209:1
	movl	$16, %esi
	popq	%rbp
	.cfi_def_cfa %rsp, 8
	jmp	_ZdlPvm                 # TAILCALL
.Ltmp361:
.Lfunc_end68:
	.size	_ZN3MPI8GrequestD0Ev, .Lfunc_end68-_ZN3MPI8GrequestD0Ev
	.cfi_endproc
                                        # -- End function
	.weak	_ZN3MPI8Grequest8CompleteEv # -- Begin function _ZN3MPI8Grequest8CompleteEv
	.p2align	4, 0x90
	.type	_ZN3MPI8Grequest8CompleteEv,@function
_ZN3MPI8Grequest8CompleteEv:            # @_ZN3MPI8Grequest8CompleteEv
.Lfunc_begin69:
	.loc	13 363 0                # /usr/lib/x86_64-linux-gnu/openmpi/include/openmpi/ompi/mpi/cxx/request_inln.h:363:0
	.cfi_startproc
# %bb.0:                                # %L.entry
	#DEBUG_VALUE: Complete: <- $rdi
	#DEBUG_VALUE: Complete: <- $rdi
	pushq	%rbp
	.cfi_def_cfa_offset 16
	.cfi_offset %rbp, -16
	movq	%rsp, %rbp
	.cfi_def_cfa_register %rbp
.Ltmp362:
	#DEBUG_VALUE:  <- $rdi
	#DEBUG_VALUE:  <- $rdi
	.loc	13 364 1 prologue_end   # /usr/lib/x86_64-linux-gnu/openmpi/include/openmpi/ompi/mpi/cxx/request_inln.h:364:1
	movq	8(%rdi), %rdi
.Ltmp363:
	popq	%rbp
	.cfi_def_cfa %rsp, 8
	jmp	MPI_Grequest_complete   # TAILCALL
.Ltmp364:
.Lfunc_end69:
	.size	_ZN3MPI8Grequest8CompleteEv, .Lfunc_end69-_ZN3MPI8Grequest8CompleteEv
	.cfi_endproc
                                        # -- End function
	.weak	_ZN3MPI5GroupD1Ev       # -- Begin function _ZN3MPI5GroupD1Ev
	.p2align	4, 0x90
	.type	_ZN3MPI5GroupD1Ev,@function
_ZN3MPI5GroupD1Ev:                      # @_ZN3MPI5GroupD1Ev
.Lfunc_begin70:
	.file	14 "/usr/lib/x86_64-linux-gnu/openmpi/include/openmpi/ompi/mpi/cxx/group.h"
	.loc	14 67 0                 # /usr/lib/x86_64-linux-gnu/openmpi/include/openmpi/ompi/mpi/cxx/group.h:67:0
	.cfi_startproc
# %bb.0:                                # %L.entry
	#DEBUG_VALUE: ~Group: <- $rdi
	#DEBUG_VALUE: ~Group: <- $rdi
	pushq	%rbp
	.cfi_def_cfa_offset 16
	.cfi_offset %rbp, -16
	movq	%rsp, %rbp
	.cfi_def_cfa_register %rbp
.Ltmp365:
	#DEBUG_VALUE:  <- $rdi
	#DEBUG_VALUE:  <- $rdi
	.loc	14 67 1 prologue_end    # /usr/lib/x86_64-linux-gnu/openmpi/include/openmpi/ompi/mpi/cxx/group.h:67:1
	movq	$_ZTVN3MPI5GroupE+16, (%rdi)
	popq	%rbp
	.cfi_def_cfa %rsp, 8
	retq
.Ltmp366:
.Lfunc_end70:
	.size	_ZN3MPI5GroupD1Ev, .Lfunc_end70-_ZN3MPI5GroupD1Ev
	.cfi_endproc
                                        # -- End function
	.weak	_ZN3MPI5GroupD0Ev       # -- Begin function _ZN3MPI5GroupD0Ev
	.p2align	4, 0x90
	.type	_ZN3MPI5GroupD0Ev,@function
_ZN3MPI5GroupD0Ev:                      # @_ZN3MPI5GroupD0Ev
.Lfunc_begin71:
	.loc	1 0 0                   # projects/Firehose/Firehose.cpp:0:0
	.cfi_startproc
# %bb.0:                                # %L.entry
	pushq	%rbp
	.cfi_def_cfa_offset 16
	.cfi_offset %rbp, -16
	movq	%rsp, %rbp
	.cfi_def_cfa_register %rbp
.Ltmp367:
	.loc	1 67 1 prologue_end     # projects/Firehose/Firehose.cpp:67:1
	movl	$16, %esi
	popq	%rbp
	.cfi_def_cfa %rsp, 8
	jmp	_ZdlPvm                 # TAILCALL
.Ltmp368:
.Lfunc_end71:
	.size	_ZN3MPI5GroupD0Ev, .Lfunc_end71-_ZN3MPI5GroupD0Ev
	.cfi_endproc
                                        # -- End function
	.weak	_ZNK3MPI5Group8Get_sizeEv # -- Begin function _ZNK3MPI5Group8Get_sizeEv
	.p2align	4, 0x90
	.type	_ZNK3MPI5Group8Get_sizeEv,@function
_ZNK3MPI5Group8Get_sizeEv:              # @_ZNK3MPI5Group8Get_sizeEv
.Lfunc_begin72:
	.file	15 "/usr/lib/x86_64-linux-gnu/openmpi/include/openmpi/ompi/mpi/cxx/group_inln.h"
	.loc	15 27 0                 # /usr/lib/x86_64-linux-gnu/openmpi/include/openmpi/ompi/mpi/cxx/group_inln.h:27:0
	.cfi_startproc
# %bb.0:                                # %L.entry
	#DEBUG_VALUE: Get_size: <- $rdi
	#DEBUG_VALUE: Get_size: <- $rdi
	pushq	%rbp
	.cfi_def_cfa_offset 16
	.cfi_offset %rbp, -16
	movq	%rsp, %rbp
	.cfi_def_cfa_register %rbp
	subq	$16, %rsp
.Ltmp369:
	#DEBUG_VALUE:  <- $rdi
	.loc	15 29 1 prologue_end    # /usr/lib/x86_64-linux-gnu/openmpi/include/openmpi/ompi/mpi/cxx/group_inln.h:29:1
	movq	8(%rdi), %rdi
.Ltmp370:
	#DEBUG_VALUE: size <- [DW_OP_constu 4, DW_OP_minus, DW_OP_deref] $rbp
	.loc	15 0 1 is_stmt 0        # /usr/lib/x86_64-linux-gnu/openmpi/include/openmpi/ompi/mpi/cxx/group_inln.h:0:1
	leaq	-4(%rbp), %rsi
	.loc	15 29 1                 # /usr/lib/x86_64-linux-gnu/openmpi/include/openmpi/ompi/mpi/cxx/group_inln.h:29:1
	callq	MPI_Group_size
	.loc	15 30 1 is_stmt 1       # /usr/lib/x86_64-linux-gnu/openmpi/include/openmpi/ompi/mpi/cxx/group_inln.h:30:1
	movl	-4(%rbp), %eax
.Ltmp371:
	#DEBUG_VALUE: size <- $eax
	addq	$16, %rsp
	popq	%rbp
	.cfi_def_cfa %rsp, 8
	retq
.Ltmp372:
.Lfunc_end72:
	.size	_ZNK3MPI5Group8Get_sizeEv, .Lfunc_end72-_ZNK3MPI5Group8Get_sizeEv
	.cfi_endproc
                                        # -- End function
	.weak	_ZNK3MPI5Group8Get_rankEv # -- Begin function _ZNK3MPI5Group8Get_rankEv
	.p2align	4, 0x90
	.type	_ZNK3MPI5Group8Get_rankEv,@function
_ZNK3MPI5Group8Get_rankEv:              # @_ZNK3MPI5Group8Get_rankEv
.Lfunc_begin73:
	.loc	15 35 0                 # /usr/lib/x86_64-linux-gnu/openmpi/include/openmpi/ompi/mpi/cxx/group_inln.h:35:0
	.cfi_startproc
# %bb.0:                                # %L.entry
	#DEBUG_VALUE: Get_rank: <- $rdi
	#DEBUG_VALUE: Get_rank: <- $rdi
	pushq	%rbp
	.cfi_def_cfa_offset 16
	.cfi_offset %rbp, -16
	movq	%rsp, %rbp
	.cfi_def_cfa_register %rbp
	subq	$16, %rsp
.Ltmp373:
	#DEBUG_VALUE:  <- $rdi
	.loc	15 37 1 prologue_end    # /usr/lib/x86_64-linux-gnu/openmpi/include/openmpi/ompi/mpi/cxx/group_inln.h:37:1
	movq	8(%rdi), %rdi
.Ltmp374:
	#DEBUG_VALUE: myrank <- [DW_OP_constu 4, DW_OP_minus, DW_OP_deref] $rbp
	.loc	15 0 1 is_stmt 0        # /usr/lib/x86_64-linux-gnu/openmpi/include/openmpi/ompi/mpi/cxx/group_inln.h:0:1
	leaq	-4(%rbp), %rsi
	.loc	15 37 1                 # /usr/lib/x86_64-linux-gnu/openmpi/include/openmpi/ompi/mpi/cxx/group_inln.h:37:1
	callq	MPI_Group_rank
	.loc	15 38 1 is_stmt 1       # /usr/lib/x86_64-linux-gnu/openmpi/include/openmpi/ompi/mpi/cxx/group_inln.h:38:1
	movl	-4(%rbp), %eax
.Ltmp375:
	#DEBUG_VALUE: myrank <- $eax
	addq	$16, %rsp
	popq	%rbp
	.cfi_def_cfa %rsp, 8
	retq
.Ltmp376:
.Lfunc_end73:
	.size	_ZNK3MPI5Group8Get_rankEv, .Lfunc_end73-_ZNK3MPI5Group8Get_rankEv
	.cfi_endproc
                                        # -- End function
	.weak	_ZNK3MPI5Group4InclEiPKi # -- Begin function _ZNK3MPI5Group4InclEiPKi
	.p2align	4, 0x90
	.type	_ZNK3MPI5Group4InclEiPKi,@function
_ZNK3MPI5Group4InclEiPKi:               # @_ZNK3MPI5Group4InclEiPKi
.Lfunc_begin74:
	.loc	15 83 0                 # /usr/lib/x86_64-linux-gnu/openmpi/include/openmpi/ompi/mpi/cxx/group_inln.h:83:0
	.cfi_startproc
# %bb.0:                                # %L.entry
	#DEBUG_VALUE: Incl: <- $rsi
	#DEBUG_VALUE: Incl:n <- $edx
	#DEBUG_VALUE: Incl:ranks <- $rcx
	pushq	%rbp
	.cfi_def_cfa_offset 16
	.cfi_offset %rbp, -16
	movq	%rsp, %rbp
	.cfi_def_cfa_register %rbp
	pushq	%rbx
	pushq	%rax
	.cfi_offset %rbx, -24
	movq	%rdi, %rbx
.Ltmp377:
	#DEBUG_VALUE:  <- $rsi
	#DEBUG_VALUE: ranks <- $rcx
	#DEBUG_VALUE: n <- $edx
	#DEBUG_VALUE: Incl:ranks <- $rcx
	#DEBUG_VALUE: Incl:n <- $edx
	#DEBUG_VALUE: Incl: <- $rsi
	.loc	15 85 1 prologue_end    # /usr/lib/x86_64-linux-gnu/openmpi/include/openmpi/ompi/mpi/cxx/group_inln.h:85:1
	movq	8(%rsi), %rdi
.Ltmp378:
	#DEBUG_VALUE: newgroup <- [DW_OP_constu 16, DW_OP_minus, DW_OP_deref] $rbp
	.loc	15 0 1 is_stmt 0        # /usr/lib/x86_64-linux-gnu/openmpi/include/openmpi/ompi/mpi/cxx/group_inln.h:0:1
	leaq	-16(%rbp), %rax
	.loc	15 85 1                 # /usr/lib/x86_64-linux-gnu/openmpi/include/openmpi/ompi/mpi/cxx/group_inln.h:85:1
	movl	%edx, %esi
.Ltmp379:
	#DEBUG_VALUE: Incl:n <- $esi
	movq	%rcx, %rdx
.Ltmp380:
	#DEBUG_VALUE: Incl:ranks <- $rdx
	movq	%rax, %rcx
.Ltmp381:
	callq	MPI_Group_incl
.Ltmp382:
	.loc	15 86 1 is_stmt 1       # /usr/lib/x86_64-linux-gnu/openmpi/include/openmpi/ompi/mpi/cxx/group_inln.h:86:1
	movq	-16(%rbp), %rax
.Ltmp383:
	#DEBUG_VALUE: newgroup <- undef
	movq	$_ZTVN3MPI5GroupE+16, (%rbx)
	.loc	15 62 1                 # /usr/lib/x86_64-linux-gnu/openmpi/include/openmpi/ompi/mpi/cxx/group_inln.h:62:1
	movq	%rax, 8(%rbx)
	.loc	15 87 1                 # /usr/lib/x86_64-linux-gnu/openmpi/include/openmpi/ompi/mpi/cxx/group_inln.h:87:1
	movq	%rbx, %rax
	addq	$8, %rsp
	popq	%rbx
	popq	%rbp
	.cfi_def_cfa %rsp, 8
	retq
.Ltmp384:
.Lfunc_end74:
	.size	_ZNK3MPI5Group4InclEiPKi, .Lfunc_end74-_ZNK3MPI5Group4InclEiPKi
	.cfi_endproc
                                        # -- End function
	.weak	_ZNK3MPI5Group4ExclEiPKi # -- Begin function _ZNK3MPI5Group4ExclEiPKi
	.p2align	4, 0x90
	.type	_ZNK3MPI5Group4ExclEiPKi,@function
_ZNK3MPI5Group4ExclEiPKi:               # @_ZNK3MPI5Group4ExclEiPKi
.Lfunc_begin75:
	.loc	15 91 0                 # /usr/lib/x86_64-linux-gnu/openmpi/include/openmpi/ompi/mpi/cxx/group_inln.h:91:0
	.cfi_startproc
# %bb.0:                                # %L.entry
	#DEBUG_VALUE: Excl: <- $rsi
	#DEBUG_VALUE: Excl:n <- $edx
	#DEBUG_VALUE: Excl:ranks <- $rcx
	pushq	%rbp
	.cfi_def_cfa_offset 16
	.cfi_offset %rbp, -16
	movq	%rsp, %rbp
	.cfi_def_cfa_register %rbp
	pushq	%rbx
	pushq	%rax
	.cfi_offset %rbx, -24
	movq	%rdi, %rbx
.Ltmp385:
	#DEBUG_VALUE:  <- $rsi
	#DEBUG_VALUE: ranks <- $rcx
	#DEBUG_VALUE: n <- $edx
	#DEBUG_VALUE: Excl:ranks <- $rcx
	#DEBUG_VALUE: Excl:n <- $edx
	#DEBUG_VALUE: Excl: <- $rsi
	.loc	15 93 1 prologue_end    # /usr/lib/x86_64-linux-gnu/openmpi/include/openmpi/ompi/mpi/cxx/group_inln.h:93:1
	movq	8(%rsi), %rdi
.Ltmp386:
	#DEBUG_VALUE: newgroup <- [DW_OP_constu 16, DW_OP_minus, DW_OP_deref] $rbp
	.loc	15 0 1 is_stmt 0        # /usr/lib/x86_64-linux-gnu/openmpi/include/openmpi/ompi/mpi/cxx/group_inln.h:0:1
	leaq	-16(%rbp), %rax
	.loc	15 93 1                 # /usr/lib/x86_64-linux-gnu/openmpi/include/openmpi/ompi/mpi/cxx/group_inln.h:93:1
	movl	%edx, %esi
.Ltmp387:
	#DEBUG_VALUE: Excl:n <- $esi
	movq	%rcx, %rdx
.Ltmp388:
	#DEBUG_VALUE: Excl:ranks <- $rdx
	movq	%rax, %rcx
.Ltmp389:
	callq	MPI_Group_excl
.Ltmp390:
	.loc	15 94 1 is_stmt 1       # /usr/lib/x86_64-linux-gnu/openmpi/include/openmpi/ompi/mpi/cxx/group_inln.h:94:1
	movq	-16(%rbp), %rax
.Ltmp391:
	#DEBUG_VALUE: newgroup <- undef
	movq	$_ZTVN3MPI5GroupE+16, (%rbx)
	.loc	15 62 1                 # /usr/lib/x86_64-linux-gnu/openmpi/include/openmpi/ompi/mpi/cxx/group_inln.h:62:1
	movq	%rax, 8(%rbx)
	.loc	15 95 1                 # /usr/lib/x86_64-linux-gnu/openmpi/include/openmpi/ompi/mpi/cxx/group_inln.h:95:1
	movq	%rbx, %rax
	addq	$8, %rsp
	popq	%rbx
	popq	%rbp
	.cfi_def_cfa %rsp, 8
	retq
.Ltmp392:
.Lfunc_end75:
	.size	_ZNK3MPI5Group4ExclEiPKi, .Lfunc_end75-_ZNK3MPI5Group4ExclEiPKi
	.cfi_endproc
                                        # -- End function
	.weak	_ZNK3MPI5Group10Range_inclEiPA3_Ki # -- Begin function _ZNK3MPI5Group10Range_inclEiPA3_Ki
	.p2align	4, 0x90
	.type	_ZNK3MPI5Group10Range_inclEiPA3_Ki,@function
_ZNK3MPI5Group10Range_inclEiPA3_Ki:     # @_ZNK3MPI5Group10Range_inclEiPA3_Ki
.Lfunc_begin76:
	.loc	15 99 0                 # /usr/lib/x86_64-linux-gnu/openmpi/include/openmpi/ompi/mpi/cxx/group_inln.h:99:0
	.cfi_startproc
# %bb.0:                                # %L.entry
	#DEBUG_VALUE: Range_incl: <- $rsi
	#DEBUG_VALUE: Range_incl:n <- $edx
	#DEBUG_VALUE: Range_incl:ranges <- $rcx
	pushq	%rbp
	.cfi_def_cfa_offset 16
	.cfi_offset %rbp, -16
	movq	%rsp, %rbp
	.cfi_def_cfa_register %rbp
	pushq	%rbx
	pushq	%rax
	.cfi_offset %rbx, -24
	movq	%rdi, %rbx
.Ltmp393:
	#DEBUG_VALUE:  <- $rsi
	#DEBUG_VALUE: ranges <- $rcx
	#DEBUG_VALUE: n <- $edx
	#DEBUG_VALUE: Range_incl:ranges <- $rcx
	#DEBUG_VALUE: Range_incl:n <- $edx
	#DEBUG_VALUE: Range_incl: <- $rsi
	.loc	15 101 1 prologue_end   # /usr/lib/x86_64-linux-gnu/openmpi/include/openmpi/ompi/mpi/cxx/group_inln.h:101:1
	movq	8(%rsi), %rdi
.Ltmp394:
	#DEBUG_VALUE: newgroup <- [DW_OP_constu 16, DW_OP_minus, DW_OP_deref] $rbp
	.loc	15 0 1 is_stmt 0        # /usr/lib/x86_64-linux-gnu/openmpi/include/openmpi/ompi/mpi/cxx/group_inln.h:0:1
	leaq	-16(%rbp), %rax
	.loc	15 101 1                # /usr/lib/x86_64-linux-gnu/openmpi/include/openmpi/ompi/mpi/cxx/group_inln.h:101:1
	movl	%edx, %esi
.Ltmp395:
	#DEBUG_VALUE: Range_incl:n <- $esi
	movq	%rcx, %rdx
.Ltmp396:
	#DEBUG_VALUE: Range_incl:ranges <- $rdx
	movq	%rax, %rcx
.Ltmp397:
	callq	MPI_Group_range_incl
.Ltmp398:
	.loc	15 108 1 is_stmt 1      # /usr/lib/x86_64-linux-gnu/openmpi/include/openmpi/ompi/mpi/cxx/group_inln.h:108:1
	movq	-16(%rbp), %rax
.Ltmp399:
	#DEBUG_VALUE: newgroup <- undef
	movq	$_ZTVN3MPI5GroupE+16, (%rbx)
	.loc	15 62 1                 # /usr/lib/x86_64-linux-gnu/openmpi/include/openmpi/ompi/mpi/cxx/group_inln.h:62:1
	movq	%rax, 8(%rbx)
	.loc	15 109 1                # /usr/lib/x86_64-linux-gnu/openmpi/include/openmpi/ompi/mpi/cxx/group_inln.h:109:1
	movq	%rbx, %rax
	addq	$8, %rsp
	popq	%rbx
	popq	%rbp
	.cfi_def_cfa %rsp, 8
	retq
.Ltmp400:
.Lfunc_end76:
	.size	_ZNK3MPI5Group10Range_inclEiPA3_Ki, .Lfunc_end76-_ZNK3MPI5Group10Range_inclEiPA3_Ki
	.cfi_endproc
                                        # -- End function
	.weak	_ZNK3MPI5Group10Range_exclEiPA3_Ki # -- Begin function _ZNK3MPI5Group10Range_exclEiPA3_Ki
	.p2align	4, 0x90
	.type	_ZNK3MPI5Group10Range_exclEiPA3_Ki,@function
_ZNK3MPI5Group10Range_exclEiPA3_Ki:     # @_ZNK3MPI5Group10Range_exclEiPA3_Ki
.Lfunc_begin77:
	.loc	15 113 0                # /usr/lib/x86_64-linux-gnu/openmpi/include/openmpi/ompi/mpi/cxx/group_inln.h:113:0
	.cfi_startproc
# %bb.0:                                # %L.entry
	#DEBUG_VALUE: Range_excl: <- $rsi
	#DEBUG_VALUE: Range_excl:n <- $edx
	#DEBUG_VALUE: Range_excl:ranges <- $rcx
	pushq	%rbp
	.cfi_def_cfa_offset 16
	.cfi_offset %rbp, -16
	movq	%rsp, %rbp
	.cfi_def_cfa_register %rbp
	pushq	%rbx
	pushq	%rax
	.cfi_offset %rbx, -24
	movq	%rdi, %rbx
.Ltmp401:
	#DEBUG_VALUE:  <- $rsi
	#DEBUG_VALUE: ranges <- $rcx
	#DEBUG_VALUE: n <- $edx
	#DEBUG_VALUE: Range_excl:ranges <- $rcx
	#DEBUG_VALUE: Range_excl:n <- $edx
	#DEBUG_VALUE: Range_excl: <- $rsi
	.loc	15 115 1 prologue_end   # /usr/lib/x86_64-linux-gnu/openmpi/include/openmpi/ompi/mpi/cxx/group_inln.h:115:1
	movq	8(%rsi), %rdi
.Ltmp402:
	#DEBUG_VALUE: newgroup <- [DW_OP_constu 16, DW_OP_minus, DW_OP_deref] $rbp
	.loc	15 0 1 is_stmt 0        # /usr/lib/x86_64-linux-gnu/openmpi/include/openmpi/ompi/mpi/cxx/group_inln.h:0:1
	leaq	-16(%rbp), %rax
	.loc	15 115 1                # /usr/lib/x86_64-linux-gnu/openmpi/include/openmpi/ompi/mpi/cxx/group_inln.h:115:1
	movl	%edx, %esi
.Ltmp403:
	#DEBUG_VALUE: Range_excl:n <- $esi
	movq	%rcx, %rdx
.Ltmp404:
	#DEBUG_VALUE: Range_excl:ranges <- $rdx
	movq	%rax, %rcx
.Ltmp405:
	callq	MPI_Group_range_excl
.Ltmp406:
	.loc	15 122 1 is_stmt 1      # /usr/lib/x86_64-linux-gnu/openmpi/include/openmpi/ompi/mpi/cxx/group_inln.h:122:1
	movq	-16(%rbp), %rax
.Ltmp407:
	#DEBUG_VALUE: newgroup <- undef
	movq	$_ZTVN3MPI5GroupE+16, (%rbx)
	.loc	15 62 1                 # /usr/lib/x86_64-linux-gnu/openmpi/include/openmpi/ompi/mpi/cxx/group_inln.h:62:1
	movq	%rax, 8(%rbx)
	.loc	15 123 1                # /usr/lib/x86_64-linux-gnu/openmpi/include/openmpi/ompi/mpi/cxx/group_inln.h:123:1
	movq	%rbx, %rax
	addq	$8, %rsp
	popq	%rbx
	popq	%rbp
	.cfi_def_cfa %rsp, 8
	retq
.Ltmp408:
.Lfunc_end77:
	.size	_ZNK3MPI5Group10Range_exclEiPA3_Ki, .Lfunc_end77-_ZNK3MPI5Group10Range_exclEiPA3_Ki
	.cfi_endproc
                                        # -- End function
	.weak	_ZN3MPI5Group4FreeEv    # -- Begin function _ZN3MPI5Group4FreeEv
	.p2align	4, 0x90
	.type	_ZN3MPI5Group4FreeEv,@function
_ZN3MPI5Group4FreeEv:                   # @_ZN3MPI5Group4FreeEv
.Lfunc_begin78:
	.loc	15 127 0                # /usr/lib/x86_64-linux-gnu/openmpi/include/openmpi/ompi/mpi/cxx/group_inln.h:127:0
	.cfi_startproc
# %bb.0:                                # %L.entry
	#DEBUG_VALUE: Free: <- $rdi
	#DEBUG_VALUE: Free: <- $rdi
	pushq	%rbp
	.cfi_def_cfa_offset 16
	.cfi_offset %rbp, -16
	movq	%rsp, %rbp
	.cfi_def_cfa_register %rbp
.Ltmp409:
	#DEBUG_VALUE:  <- $rdi
	#DEBUG_VALUE:  <- $rdi
	.loc	15 128 1 prologue_end   # /usr/lib/x86_64-linux-gnu/openmpi/include/openmpi/ompi/mpi/cxx/group_inln.h:128:1
	addq	$8, %rdi
.Ltmp410:
	popq	%rbp
	.cfi_def_cfa %rsp, 8
	jmp	MPI_Group_free          # TAILCALL
.Ltmp411:
.Lfunc_end78:
	.size	_ZN3MPI5Group4FreeEv, .Lfunc_end78-_ZN3MPI5Group4FreeEv
	.cfi_endproc
                                        # -- End function
	.weak	_ZN3MPI9Comm_NullD1Ev   # -- Begin function _ZN3MPI9Comm_NullD1Ev
	.p2align	4, 0x90
	.type	_ZN3MPI9Comm_NullD1Ev,@function
_ZN3MPI9Comm_NullD1Ev:                  # @_ZN3MPI9Comm_NullD1Ev
.Lfunc_begin79:
	.file	16 "/usr/lib/x86_64-linux-gnu/openmpi/include/openmpi/ompi/mpi/cxx/comm.h"
	.loc	16 69 0                 # /usr/lib/x86_64-linux-gnu/openmpi/include/openmpi/ompi/mpi/cxx/comm.h:69:0
	.cfi_startproc
# %bb.0:                                # %L.entry
	#DEBUG_VALUE: ~Comm_Null: <- $rdi
	#DEBUG_VALUE: ~Comm_Null: <- $rdi
	pushq	%rbp
	.cfi_def_cfa_offset 16
	.cfi_offset %rbp, -16
	movq	%rsp, %rbp
	.cfi_def_cfa_register %rbp
.Ltmp412:
	#DEBUG_VALUE:  <- $rdi
	#DEBUG_VALUE:  <- $rdi
	.loc	16 69 1 prologue_end    # /usr/lib/x86_64-linux-gnu/openmpi/include/openmpi/ompi/mpi/cxx/comm.h:69:1
	movq	$_ZTVN3MPI9Comm_NullE+16, (%rdi)
	popq	%rbp
	.cfi_def_cfa %rsp, 8
	retq
.Ltmp413:
.Lfunc_end79:
	.size	_ZN3MPI9Comm_NullD1Ev, .Lfunc_end79-_ZN3MPI9Comm_NullD1Ev
	.cfi_endproc
                                        # -- End function
	.weak	_ZN3MPI9Comm_NullD0Ev   # -- Begin function _ZN3MPI9Comm_NullD0Ev
	.p2align	4, 0x90
	.type	_ZN3MPI9Comm_NullD0Ev,@function
_ZN3MPI9Comm_NullD0Ev:                  # @_ZN3MPI9Comm_NullD0Ev
.Lfunc_begin80:
	.loc	1 0 0                   # projects/Firehose/Firehose.cpp:0:0
	.cfi_startproc
# %bb.0:                                # %L.entry
	pushq	%rbp
	.cfi_def_cfa_offset 16
	.cfi_offset %rbp, -16
	movq	%rsp, %rbp
	.cfi_def_cfa_register %rbp
.Ltmp414:
	.loc	1 69 1 prologue_end     # projects/Firehose/Firehose.cpp:69:1
	movl	$16, %esi
	popq	%rbp
	.cfi_def_cfa %rsp, 8
	jmp	_ZdlPvm                 # TAILCALL
.Ltmp415:
.Lfunc_end80:
	.size	_ZN3MPI9Comm_NullD0Ev, .Lfunc_end80-_ZN3MPI9Comm_NullD0Ev
	.cfi_endproc
                                        # -- End function
	.weak	_ZNK3MPI4Comm4SendEPKviRKNS_8DatatypeEii # -- Begin function _ZNK3MPI4Comm4SendEPKviRKNS_8DatatypeEii
	.p2align	4, 0x90
	.type	_ZNK3MPI4Comm4SendEPKviRKNS_8DatatypeEii,@function
_ZNK3MPI4Comm4SendEPKviRKNS_8DatatypeEii: # @_ZNK3MPI4Comm4SendEPKviRKNS_8DatatypeEii
.Lfunc_begin81:
	.file	17 "/usr/lib/x86_64-linux-gnu/openmpi/include/openmpi/ompi/mpi/cxx/comm_inln.h"
	.loc	17 29 0                 # /usr/lib/x86_64-linux-gnu/openmpi/include/openmpi/ompi/mpi/cxx/comm_inln.h:29:0
	.cfi_startproc
# %bb.0:                                # %L.entry
	#DEBUG_VALUE: Send: <- $rdi
	#DEBUG_VALUE: Send:buf <- $rsi
	#DEBUG_VALUE: Send:count <- $edx
	#DEBUG_VALUE: Send:datatype <- $rcx
	#DEBUG_VALUE: Send:dest <- $r8d
	#DEBUG_VALUE: Send:tag <- $r9d
	pushq	%rbp
	.cfi_def_cfa_offset 16
	.cfi_offset %rbp, -16
	movq	%rsp, %rbp
	.cfi_def_cfa_register %rbp
.Ltmp416:
	#DEBUG_VALUE:  <- $rdi
	#DEBUG_VALUE: buf <- $rsi
	#DEBUG_VALUE: count <- $edx
	#DEBUG_VALUE: datatype <- $rcx
	#DEBUG_VALUE: dest <- $r8d
	#DEBUG_VALUE: tag <- $r9d
	movl	%r9d, %r10d
.Ltmp417:
	#DEBUG_VALUE: tag <- $r10d
	#DEBUG_VALUE: Send:tag <- $r10d
	#DEBUG_VALUE: dest <- $r8d
	#DEBUG_VALUE: Send:dest <- $r8d
	#DEBUG_VALUE: datatype <- $rcx
	#DEBUG_VALUE: Send:datatype <- $rcx
	#DEBUG_VALUE: count <- $edx
	#DEBUG_VALUE: Send:count <- $edx
	#DEBUG_VALUE: buf <- $rsi
	#DEBUG_VALUE: Send:buf <- $rsi
	#DEBUG_VALUE:  <- $rdi
	#DEBUG_VALUE: Send: <- $rdi
	.loc	17 90 1 prologue_end    # /usr/lib/x86_64-linux-gnu/openmpi/include/openmpi/ompi/mpi/cxx/comm_inln.h:90:1
	movq	8(%rcx), %rax
	movq	8(%rdi), %r9
	movq	%rsi, %rdi
.Ltmp418:
	#DEBUG_VALUE: buf <- $rdi
	#DEBUG_VALUE: Send:buf <- $rdi
	movl	%edx, %esi
.Ltmp419:
	#DEBUG_VALUE: count <- $esi
	#DEBUG_VALUE: Send:count <- $esi
	movq	%rax, %rdx
	movl	%r8d, %ecx
.Ltmp420:
	#DEBUG_VALUE: dest <- $ecx
	#DEBUG_VALUE: Send:dest <- $ecx
	movl	%r10d, %r8d
.Ltmp421:
	#DEBUG_VALUE: tag <- $r8d
	#DEBUG_VALUE: Send:tag <- $r8d
	popq	%rbp
	.cfi_def_cfa %rsp, 8
	jmp	MPI_Send                # TAILCALL
.Ltmp422:
.Lfunc_end81:
	.size	_ZNK3MPI4Comm4SendEPKviRKNS_8DatatypeEii, .Lfunc_end81-_ZNK3MPI4Comm4SendEPKviRKNS_8DatatypeEii
	.cfi_endproc
                                        # -- End function
	.weak	_ZNK3MPI4Comm4RecvEPviRKNS_8DatatypeEiiRNS_6StatusE # -- Begin function _ZNK3MPI4Comm4RecvEPviRKNS_8DatatypeEiiRNS_6StatusE
	.p2align	4, 0x90
	.type	_ZNK3MPI4Comm4RecvEPviRKNS_8DatatypeEiiRNS_6StatusE,@function
_ZNK3MPI4Comm4RecvEPviRKNS_8DatatypeEiiRNS_6StatusE: # @_ZNK3MPI4Comm4RecvEPviRKNS_8DatatypeEiiRNS_6StatusE
.Lfunc_begin82:
	.loc	17 36 0                 # /usr/lib/x86_64-linux-gnu/openmpi/include/openmpi/ompi/mpi/cxx/comm_inln.h:36:0
	.cfi_startproc
# %bb.0:                                # %L.entry
	#DEBUG_VALUE: Recv: <- $rdi
	#DEBUG_VALUE: Recv:buf <- $rsi
	#DEBUG_VALUE: Recv:count <- $edx
	#DEBUG_VALUE: Recv:datatype <- $rcx
	#DEBUG_VALUE: Recv:source <- $r8d
	#DEBUG_VALUE: Recv:tag <- $r9d
	pushq	%rbp
	.cfi_def_cfa_offset 16
	.cfi_offset %rbp, -16
	movq	%rsp, %rbp
	.cfi_def_cfa_register %rbp
	subq	$16, %rsp
.Ltmp423:
	#DEBUG_VALUE:  <- $rdi
	#DEBUG_VALUE: buf <- $rsi
	#DEBUG_VALUE: count <- $edx
	#DEBUG_VALUE: datatype <- $rcx
	#DEBUG_VALUE: source <- $r8d
	#DEBUG_VALUE: tag <- $r9d
	movl	%r9d, %r10d
	movq	%rsi, %r11
	movq	16(%rbp), %rsi
.Ltmp424:
	#DEBUG_VALUE: status <- [DW_OP_plus_uconst 16] [$rbp+0]
	#DEBUG_VALUE: Recv:status <- [DW_OP_plus_uconst 16] [$rbp+0]
	#DEBUG_VALUE: tag <- $r10d
	#DEBUG_VALUE: Recv:tag <- $r10d
	#DEBUG_VALUE: source <- $r8d
	#DEBUG_VALUE: Recv:source <- $r8d
	#DEBUG_VALUE: datatype <- $rcx
	#DEBUG_VALUE: Recv:datatype <- $rcx
	#DEBUG_VALUE: count <- $edx
	#DEBUG_VALUE: Recv:count <- $edx
	#DEBUG_VALUE: buf <- $r11
	#DEBUG_VALUE: Recv:buf <- $r11
	#DEBUG_VALUE:  <- $rdi
	#DEBUG_VALUE: Recv: <- $rdi
	.loc	17 90 1 prologue_end    # /usr/lib/x86_64-linux-gnu/openmpi/include/openmpi/ompi/mpi/cxx/comm_inln.h:90:1
	movq	8(%rcx), %rax
	movq	8(%rdi), %r9
	addq	$8, %rsi
	movq	%rsi, (%rsp)
	movq	%r11, %rdi
.Ltmp425:
	#DEBUG_VALUE: buf <- $rdi
	#DEBUG_VALUE: Recv:buf <- $rdi
	movl	%edx, %esi
.Ltmp426:
	#DEBUG_VALUE: count <- $esi
	#DEBUG_VALUE: Recv:count <- $esi
	movq	%rax, %rdx
	movl	%r8d, %ecx
.Ltmp427:
	#DEBUG_VALUE: source <- $ecx
	#DEBUG_VALUE: Recv:source <- $ecx
	movl	%r10d, %r8d
.Ltmp428:
	#DEBUG_VALUE: tag <- $r8d
	#DEBUG_VALUE: Recv:tag <- $r8d
	callq	MPI_Recv
.Ltmp429:
	.loc	17 38 1                 # /usr/lib/x86_64-linux-gnu/openmpi/include/openmpi/ompi/mpi/cxx/comm_inln.h:38:1
	addq	$16, %rsp
	popq	%rbp
	.cfi_def_cfa %rsp, 8
	retq
.Ltmp430:
.Lfunc_end82:
	.size	_ZNK3MPI4Comm4RecvEPviRKNS_8DatatypeEiiRNS_6StatusE, .Lfunc_end82-_ZNK3MPI4Comm4RecvEPviRKNS_8DatatypeEiiRNS_6StatusE
	.cfi_endproc
                                        # -- End function
	.weak	_ZNK3MPI4Comm4RecvEPviRKNS_8DatatypeEii # -- Begin function _ZNK3MPI4Comm4RecvEPviRKNS_8DatatypeEii
	.p2align	4, 0x90
	.type	_ZNK3MPI4Comm4RecvEPviRKNS_8DatatypeEii,@function
_ZNK3MPI4Comm4RecvEPviRKNS_8DatatypeEii: # @_ZNK3MPI4Comm4RecvEPviRKNS_8DatatypeEii
.Lfunc_begin83:
	.loc	17 43 0                 # /usr/lib/x86_64-linux-gnu/openmpi/include/openmpi/ompi/mpi/cxx/comm_inln.h:43:0
	.cfi_startproc
# %bb.0:                                # %L.entry
	#DEBUG_VALUE: Recv: <- $rdi
	#DEBUG_VALUE: Recv:buf <- $rsi
	#DEBUG_VALUE: Recv:count <- $edx
	#DEBUG_VALUE: Recv:datatype <- $rcx
	#DEBUG_VALUE: Recv:source <- $r8d
	#DEBUG_VALUE: Recv:tag <- $r9d
	pushq	%rbp
	.cfi_def_cfa_offset 16
	.cfi_offset %rbp, -16
	movq	%rsp, %rbp
	.cfi_def_cfa_register %rbp
	subq	$16, %rsp
.Ltmp431:
	#DEBUG_VALUE:  <- $rdi
	#DEBUG_VALUE: buf <- $rsi
	#DEBUG_VALUE: count <- $edx
	#DEBUG_VALUE: datatype <- $rcx
	#DEBUG_VALUE: source <- $r8d
	#DEBUG_VALUE: tag <- $r9d
	movl	%r9d, %r10d
.Ltmp432:
	#DEBUG_VALUE: tag <- $r10d
	#DEBUG_VALUE: Recv:tag <- $r10d
	#DEBUG_VALUE: source <- $r8d
	#DEBUG_VALUE: Recv:source <- $r8d
	#DEBUG_VALUE: datatype <- $rcx
	#DEBUG_VALUE: Recv:datatype <- $rcx
	#DEBUG_VALUE: count <- $edx
	#DEBUG_VALUE: Recv:count <- $edx
	#DEBUG_VALUE: buf <- $rsi
	#DEBUG_VALUE: Recv:buf <- $rsi
	#DEBUG_VALUE:  <- $rdi
	#DEBUG_VALUE: Recv: <- $rdi
	.loc	17 90 1 prologue_end    # /usr/lib/x86_64-linux-gnu/openmpi/include/openmpi/ompi/mpi/cxx/comm_inln.h:90:1
	movq	8(%rcx), %rax
	movq	8(%rdi), %r9
	movq	$0, (%rsp)
	movq	%rsi, %rdi
.Ltmp433:
	#DEBUG_VALUE: buf <- $rdi
	#DEBUG_VALUE: Recv:buf <- $rdi
	movl	%edx, %esi
.Ltmp434:
	#DEBUG_VALUE: count <- $esi
	#DEBUG_VALUE: Recv:count <- $esi
	movq	%rax, %rdx
	movl	%r8d, %ecx
.Ltmp435:
	#DEBUG_VALUE: source <- $ecx
	#DEBUG_VALUE: Recv:source <- $ecx
	movl	%r10d, %r8d
.Ltmp436:
	#DEBUG_VALUE: tag <- $r8d
	#DEBUG_VALUE: Recv:tag <- $r8d
	callq	MPI_Recv
.Ltmp437:
	.loc	17 46 1                 # /usr/lib/x86_64-linux-gnu/openmpi/include/openmpi/ompi/mpi/cxx/comm_inln.h:46:1
	addq	$16, %rsp
	popq	%rbp
	.cfi_def_cfa %rsp, 8
	retq
.Ltmp438:
.Lfunc_end83:
	.size	_ZNK3MPI4Comm4RecvEPviRKNS_8DatatypeEii, .Lfunc_end83-_ZNK3MPI4Comm4RecvEPviRKNS_8DatatypeEii
	.cfi_endproc
                                        # -- End function
	.weak	_ZNK3MPI4Comm5BsendEPKviRKNS_8DatatypeEii # -- Begin function _ZNK3MPI4Comm5BsendEPKviRKNS_8DatatypeEii
	.p2align	4, 0x90
	.type	_ZNK3MPI4Comm5BsendEPKviRKNS_8DatatypeEii,@function
_ZNK3MPI4Comm5BsendEPKviRKNS_8DatatypeEii: # @_ZNK3MPI4Comm5BsendEPKviRKNS_8DatatypeEii
.Lfunc_begin84:
	.loc	17 51 0                 # /usr/lib/x86_64-linux-gnu/openmpi/include/openmpi/ompi/mpi/cxx/comm_inln.h:51:0
	.cfi_startproc
# %bb.0:                                # %L.entry
	#DEBUG_VALUE: Bsend: <- $rdi
	#DEBUG_VALUE: Bsend:buf <- $rsi
	#DEBUG_VALUE: Bsend:count <- $edx
	#DEBUG_VALUE: Bsend:datatype <- $rcx
	#DEBUG_VALUE: Bsend:dest <- $r8d
	#DEBUG_VALUE: Bsend:tag <- $r9d
	pushq	%rbp
	.cfi_def_cfa_offset 16
	.cfi_offset %rbp, -16
	movq	%rsp, %rbp
	.cfi_def_cfa_register %rbp
.Ltmp439:
	#DEBUG_VALUE:  <- $rdi
	#DEBUG_VALUE: buf <- $rsi
	#DEBUG_VALUE: count <- $edx
	#DEBUG_VALUE: datatype <- $rcx
	#DEBUG_VALUE: dest <- $r8d
	#DEBUG_VALUE: tag <- $r9d
	movl	%r9d, %r10d
.Ltmp440:
	#DEBUG_VALUE: tag <- $r10d
	#DEBUG_VALUE: Bsend:tag <- $r10d
	#DEBUG_VALUE: dest <- $r8d
	#DEBUG_VALUE: Bsend:dest <- $r8d
	#DEBUG_VALUE: datatype <- $rcx
	#DEBUG_VALUE: Bsend:datatype <- $rcx
	#DEBUG_VALUE: count <- $edx
	#DEBUG_VALUE: Bsend:count <- $edx
	#DEBUG_VALUE: buf <- $rsi
	#DEBUG_VALUE: Bsend:buf <- $rsi
	#DEBUG_VALUE:  <- $rdi
	#DEBUG_VALUE: Bsend: <- $rdi
	.loc	17 90 1 prologue_end    # /usr/lib/x86_64-linux-gnu/openmpi/include/openmpi/ompi/mpi/cxx/comm_inln.h:90:1
	movq	8(%rcx), %rax
	movq	8(%rdi), %r9
	movq	%rsi, %rdi
.Ltmp441:
	#DEBUG_VALUE: buf <- $rdi
	#DEBUG_VALUE: Bsend:buf <- $rdi
	movl	%edx, %esi
.Ltmp442:
	#DEBUG_VALUE: count <- $esi
	#DEBUG_VALUE: Bsend:count <- $esi
	movq	%rax, %rdx
	movl	%r8d, %ecx
.Ltmp443:
	#DEBUG_VALUE: dest <- $ecx
	#DEBUG_VALUE: Bsend:dest <- $ecx
	movl	%r10d, %r8d
.Ltmp444:
	#DEBUG_VALUE: tag <- $r8d
	#DEBUG_VALUE: Bsend:tag <- $r8d
	popq	%rbp
	.cfi_def_cfa %rsp, 8
	jmp	MPI_Bsend               # TAILCALL
.Ltmp445:
.Lfunc_end84:
	.size	_ZNK3MPI4Comm5BsendEPKviRKNS_8DatatypeEii, .Lfunc_end84-_ZNK3MPI4Comm5BsendEPKviRKNS_8DatatypeEii
	.cfi_endproc
                                        # -- End function
	.weak	_ZNK3MPI4Comm5SsendEPKviRKNS_8DatatypeEii # -- Begin function _ZNK3MPI4Comm5SsendEPKviRKNS_8DatatypeEii
	.p2align	4, 0x90
	.type	_ZNK3MPI4Comm5SsendEPKviRKNS_8DatatypeEii,@function
_ZNK3MPI4Comm5SsendEPKviRKNS_8DatatypeEii: # @_ZNK3MPI4Comm5SsendEPKviRKNS_8DatatypeEii
.Lfunc_begin85:
	.loc	17 59 0                 # /usr/lib/x86_64-linux-gnu/openmpi/include/openmpi/ompi/mpi/cxx/comm_inln.h:59:0
	.cfi_startproc
# %bb.0:                                # %L.entry
	#DEBUG_VALUE: Ssend: <- $rdi
	#DEBUG_VALUE: Ssend:buf <- $rsi
	#DEBUG_VALUE: Ssend:count <- $edx
	#DEBUG_VALUE: Ssend:datatype <- $rcx
	#DEBUG_VALUE: Ssend:dest <- $r8d
	#DEBUG_VALUE: Ssend:tag <- $r9d
	pushq	%rbp
	.cfi_def_cfa_offset 16
	.cfi_offset %rbp, -16
	movq	%rsp, %rbp
	.cfi_def_cfa_register %rbp
.Ltmp446:
	#DEBUG_VALUE:  <- $rdi
	#DEBUG_VALUE: buf <- $rsi
	#DEBUG_VALUE: count <- $edx
	#DEBUG_VALUE: datatype <- $rcx
	#DEBUG_VALUE: dest <- $r8d
	#DEBUG_VALUE: tag <- $r9d
	movl	%r9d, %r10d
.Ltmp447:
	#DEBUG_VALUE: tag <- $r10d
	#DEBUG_VALUE: Ssend:tag <- $r10d
	#DEBUG_VALUE: dest <- $r8d
	#DEBUG_VALUE: Ssend:dest <- $r8d
	#DEBUG_VALUE: datatype <- $rcx
	#DEBUG_VALUE: Ssend:datatype <- $rcx
	#DEBUG_VALUE: count <- $edx
	#DEBUG_VALUE: Ssend:count <- $edx
	#DEBUG_VALUE: buf <- $rsi
	#DEBUG_VALUE: Ssend:buf <- $rsi
	#DEBUG_VALUE:  <- $rdi
	#DEBUG_VALUE: Ssend: <- $rdi
	.loc	17 90 1 prologue_end    # /usr/lib/x86_64-linux-gnu/openmpi/include/openmpi/ompi/mpi/cxx/comm_inln.h:90:1
	movq	8(%rcx), %rax
	movq	8(%rdi), %r9
	movq	%rsi, %rdi
.Ltmp448:
	#DEBUG_VALUE: buf <- $rdi
	#DEBUG_VALUE: Ssend:buf <- $rdi
	movl	%edx, %esi
.Ltmp449:
	#DEBUG_VALUE: count <- $esi
	#DEBUG_VALUE: Ssend:count <- $esi
	movq	%rax, %rdx
	movl	%r8d, %ecx
.Ltmp450:
	#DEBUG_VALUE: dest <- $ecx
	#DEBUG_VALUE: Ssend:dest <- $ecx
	movl	%r10d, %r8d
.Ltmp451:
	#DEBUG_VALUE: tag <- $r8d
	#DEBUG_VALUE: Ssend:tag <- $r8d
	popq	%rbp
	.cfi_def_cfa %rsp, 8
	jmp	MPI_Ssend               # TAILCALL
.Ltmp452:
.Lfunc_end85:
	.size	_ZNK3MPI4Comm5SsendEPKviRKNS_8DatatypeEii, .Lfunc_end85-_ZNK3MPI4Comm5SsendEPKviRKNS_8DatatypeEii
	.cfi_endproc
                                        # -- End function
	.weak	_ZNK3MPI4Comm5RsendEPKviRKNS_8DatatypeEii # -- Begin function _ZNK3MPI4Comm5RsendEPKviRKNS_8DatatypeEii
	.p2align	4, 0x90
	.type	_ZNK3MPI4Comm5RsendEPKviRKNS_8DatatypeEii,@function
_ZNK3MPI4Comm5RsendEPKviRKNS_8DatatypeEii: # @_ZNK3MPI4Comm5RsendEPKviRKNS_8DatatypeEii
.Lfunc_begin86:
	.loc	17 67 0                 # /usr/lib/x86_64-linux-gnu/openmpi/include/openmpi/ompi/mpi/cxx/comm_inln.h:67:0
	.cfi_startproc
# %bb.0:                                # %L.entry
	#DEBUG_VALUE: Rsend: <- $rdi
	#DEBUG_VALUE: Rsend:buf <- $rsi
	#DEBUG_VALUE: Rsend:count <- $edx
	#DEBUG_VALUE: Rsend:datatype <- $rcx
	#DEBUG_VALUE: Rsend:dest <- $r8d
	#DEBUG_VALUE: Rsend:tag <- $r9d
	pushq	%rbp
	.cfi_def_cfa_offset 16
	.cfi_offset %rbp, -16
	movq	%rsp, %rbp
	.cfi_def_cfa_register %rbp
.Ltmp453:
	#DEBUG_VALUE:  <- $rdi
	#DEBUG_VALUE: buf <- $rsi
	#DEBUG_VALUE: count <- $edx
	#DEBUG_VALUE: datatype <- $rcx
	#DEBUG_VALUE: dest <- $r8d
	#DEBUG_VALUE: tag <- $r9d
	movl	%r9d, %r10d
.Ltmp454:
	#DEBUG_VALUE: tag <- $r10d
	#DEBUG_VALUE: Rsend:tag <- $r10d
	#DEBUG_VALUE: dest <- $r8d
	#DEBUG_VALUE: Rsend:dest <- $r8d
	#DEBUG_VALUE: datatype <- $rcx
	#DEBUG_VALUE: Rsend:datatype <- $rcx
	#DEBUG_VALUE: count <- $edx
	#DEBUG_VALUE: Rsend:count <- $edx
	#DEBUG_VALUE: buf <- $rsi
	#DEBUG_VALUE: Rsend:buf <- $rsi
	#DEBUG_VALUE:  <- $rdi
	#DEBUG_VALUE: Rsend: <- $rdi
	.loc	17 90 1 prologue_end    # /usr/lib/x86_64-linux-gnu/openmpi/include/openmpi/ompi/mpi/cxx/comm_inln.h:90:1
	movq	8(%rcx), %rax
	movq	8(%rdi), %r9
	movq	%rsi, %rdi
.Ltmp455:
	#DEBUG_VALUE: buf <- $rdi
	#DEBUG_VALUE: Rsend:buf <- $rdi
	movl	%edx, %esi
.Ltmp456:
	#DEBUG_VALUE: count <- $esi
	#DEBUG_VALUE: Rsend:count <- $esi
	movq	%rax, %rdx
	movl	%r8d, %ecx
.Ltmp457:
	#DEBUG_VALUE: dest <- $ecx
	#DEBUG_VALUE: Rsend:dest <- $ecx
	movl	%r10d, %r8d
.Ltmp458:
	#DEBUG_VALUE: tag <- $r8d
	#DEBUG_VALUE: Rsend:tag <- $r8d
	popq	%rbp
	.cfi_def_cfa %rsp, 8
	jmp	MPI_Rsend               # TAILCALL
.Ltmp459:
.Lfunc_end86:
	.size	_ZNK3MPI4Comm5RsendEPKviRKNS_8DatatypeEii, .Lfunc_end86-_ZNK3MPI4Comm5RsendEPKviRKNS_8DatatypeEii
	.cfi_endproc
                                        # -- End function
	.weak	_ZNK3MPI4Comm5IsendEPKviRKNS_8DatatypeEii # -- Begin function _ZNK3MPI4Comm5IsendEPKviRKNS_8DatatypeEii
	.p2align	4, 0x90
	.type	_ZNK3MPI4Comm5IsendEPKviRKNS_8DatatypeEii,@function
_ZNK3MPI4Comm5IsendEPKviRKNS_8DatatypeEii: # @_ZNK3MPI4Comm5IsendEPKviRKNS_8DatatypeEii
.Lfunc_begin87:
	.loc	17 75 0                 # /usr/lib/x86_64-linux-gnu/openmpi/include/openmpi/ompi/mpi/cxx/comm_inln.h:75:0
	.cfi_startproc
# %bb.0:                                # %L.entry
	#DEBUG_VALUE: Isend: <- $rsi
	#DEBUG_VALUE: Isend:buf <- $rdx
	#DEBUG_VALUE: Isend:count <- $ecx
	#DEBUG_VALUE: Isend:datatype <- $r8
	#DEBUG_VALUE: Isend:dest <- $r9d
	pushq	%rbp
	.cfi_def_cfa_offset 16
	.cfi_offset %rbp, -16
	movq	%rsp, %rbp
	.cfi_def_cfa_register %rbp
	pushq	%rbx
	subq	$24, %rsp
	.cfi_offset %rbx, -24
	movl	%r9d, %r11d
	movq	%rdx, %rax
	movq	%rdi, %rbx
	movl	16(%rbp), %r10d
.Ltmp460:
	#DEBUG_VALUE: datatype <- $r8
	#DEBUG_VALUE:  <- $rsi
	#DEBUG_VALUE: tag <- $r10d
	#DEBUG_VALUE: dest <- $r11d
	#DEBUG_VALUE: count <- $ecx
	#DEBUG_VALUE: buf <- $rax
	#DEBUG_VALUE: Isend:tag <- [DW_OP_plus_uconst 16] [$rbp+0]
	#DEBUG_VALUE: Isend:dest <- $r11d
	#DEBUG_VALUE: Isend:datatype <- $r8
	#DEBUG_VALUE: Isend:count <- $ecx
	#DEBUG_VALUE: Isend:buf <- $rax
	#DEBUG_VALUE: Isend: <- $rsi
	.loc	17 90 1 prologue_end    # /usr/lib/x86_64-linux-gnu/openmpi/include/openmpi/ompi/mpi/cxx/comm_inln.h:90:1
	movq	8(%r8), %rdx
	movq	8(%rsi), %r9
.Ltmp461:
	#DEBUG_VALUE: request <- [DW_OP_constu 16, DW_OP_minus, DW_OP_deref] $rbp
	.loc	17 0 1 is_stmt 0        # /usr/lib/x86_64-linux-gnu/openmpi/include/openmpi/ompi/mpi/cxx/comm_inln.h:0:1
	leaq	-16(%rbp), %rsi
.Ltmp462:
	.loc	17 90 1                 # /usr/lib/x86_64-linux-gnu/openmpi/include/openmpi/ompi/mpi/cxx/comm_inln.h:90:1
	movq	%rsi, (%rsp)
	movq	%rax, %rdi
.Ltmp463:
	#DEBUG_VALUE: Isend:buf <- $rdi
	movl	%ecx, %esi
.Ltmp464:
	#DEBUG_VALUE: Isend:count <- $esi
	movl	%r11d, %ecx
.Ltmp465:
	#DEBUG_VALUE: Isend:dest <- $ecx
	movl	%r10d, %r8d
.Ltmp466:
	callq	MPI_Isend
.Ltmp467:
	.loc	17 79 1 is_stmt 1       # /usr/lib/x86_64-linux-gnu/openmpi/include/openmpi/ompi/mpi/cxx/comm_inln.h:79:1
	movq	-16(%rbp), %rax
.Ltmp468:
	#DEBUG_VALUE: request <- undef
	movq	$_ZTVN3MPI7RequestE+16, (%rbx)
	.loc	17 62 1                 # /usr/lib/x86_64-linux-gnu/openmpi/include/openmpi/ompi/mpi/cxx/comm_inln.h:62:1
	movq	%rax, 8(%rbx)
	.loc	17 80 1                 # /usr/lib/x86_64-linux-gnu/openmpi/include/openmpi/ompi/mpi/cxx/comm_inln.h:80:1
	movq	%rbx, %rax
	addq	$24, %rsp
	popq	%rbx
	popq	%rbp
	.cfi_def_cfa %rsp, 8
	retq
.Ltmp469:
.Lfunc_end87:
	.size	_ZNK3MPI4Comm5IsendEPKviRKNS_8DatatypeEii, .Lfunc_end87-_ZNK3MPI4Comm5IsendEPKviRKNS_8DatatypeEii
	.cfi_endproc
                                        # -- End function
	.weak	_ZNK3MPI4Comm6IbsendEPKviRKNS_8DatatypeEii # -- Begin function _ZNK3MPI4Comm6IbsendEPKviRKNS_8DatatypeEii
	.p2align	4, 0x90
	.type	_ZNK3MPI4Comm6IbsendEPKviRKNS_8DatatypeEii,@function
_ZNK3MPI4Comm6IbsendEPKviRKNS_8DatatypeEii: # @_ZNK3MPI4Comm6IbsendEPKviRKNS_8DatatypeEii
.Lfunc_begin88:
	.loc	17 85 0                 # /usr/lib/x86_64-linux-gnu/openmpi/include/openmpi/ompi/mpi/cxx/comm_inln.h:85:0
	.cfi_startproc
# %bb.0:                                # %L.entry
	#DEBUG_VALUE: Ibsend: <- $rsi
	#DEBUG_VALUE: Ibsend:buf <- $rdx
	#DEBUG_VALUE: Ibsend:count <- $ecx
	#DEBUG_VALUE: Ibsend:datatype <- $r8
	#DEBUG_VALUE: Ibsend:dest <- $r9d
	pushq	%rbp
	.cfi_def_cfa_offset 16
	.cfi_offset %rbp, -16
	movq	%rsp, %rbp
	.cfi_def_cfa_register %rbp
	pushq	%rbx
	subq	$24, %rsp
	.cfi_offset %rbx, -24
	movl	%r9d, %r11d
	movq	%rdx, %rax
	movq	%rdi, %rbx
	movl	16(%rbp), %r10d
.Ltmp470:
	#DEBUG_VALUE: datatype <- $r8
	#DEBUG_VALUE:  <- $rsi
	#DEBUG_VALUE: tag <- $r10d
	#DEBUG_VALUE: dest <- $r11d
	#DEBUG_VALUE: count <- $ecx
	#DEBUG_VALUE: buf <- $rax
	#DEBUG_VALUE: Ibsend:tag <- [DW_OP_plus_uconst 16] [$rbp+0]
	#DEBUG_VALUE: Ibsend:dest <- $r11d
	#DEBUG_VALUE: Ibsend:datatype <- $r8
	#DEBUG_VALUE: Ibsend:count <- $ecx
	#DEBUG_VALUE: Ibsend:buf <- $rax
	#DEBUG_VALUE: Ibsend: <- $rsi
	.loc	17 90 1 prologue_end    # /usr/lib/x86_64-linux-gnu/openmpi/include/openmpi/ompi/mpi/cxx/comm_inln.h:90:1
	movq	8(%r8), %rdx
	movq	8(%rsi), %r9
.Ltmp471:
	#DEBUG_VALUE: request <- [DW_OP_constu 16, DW_OP_minus, DW_OP_deref] $rbp
	.loc	17 0 1 is_stmt 0        # /usr/lib/x86_64-linux-gnu/openmpi/include/openmpi/ompi/mpi/cxx/comm_inln.h:0:1
	leaq	-16(%rbp), %rsi
.Ltmp472:
	.loc	17 90 1                 # /usr/lib/x86_64-linux-gnu/openmpi/include/openmpi/ompi/mpi/cxx/comm_inln.h:90:1
	movq	%rsi, (%rsp)
	movq	%rax, %rdi
.Ltmp473:
	#DEBUG_VALUE: Ibsend:buf <- $rdi
	movl	%ecx, %esi
.Ltmp474:
	#DEBUG_VALUE: Ibsend:count <- $esi
	movl	%r11d, %ecx
.Ltmp475:
	#DEBUG_VALUE: Ibsend:dest <- $ecx
	movl	%r10d, %r8d
.Ltmp476:
	callq	MPI_Ibsend
.Ltmp477:
	.loc	17 89 1 is_stmt 1       # /usr/lib/x86_64-linux-gnu/openmpi/include/openmpi/ompi/mpi/cxx/comm_inln.h:89:1
	movq	-16(%rbp), %rax
.Ltmp478:
	#DEBUG_VALUE: request <- undef
	movq	$_ZTVN3MPI7RequestE+16, (%rbx)
	.loc	17 62 1                 # /usr/lib/x86_64-linux-gnu/openmpi/include/openmpi/ompi/mpi/cxx/comm_inln.h:62:1
	movq	%rax, 8(%rbx)
	.loc	17 90 1                 # /usr/lib/x86_64-linux-gnu/openmpi/include/openmpi/ompi/mpi/cxx/comm_inln.h:90:1
	movq	%rbx, %rax
	addq	$24, %rsp
	popq	%rbx
	popq	%rbp
	.cfi_def_cfa %rsp, 8
	retq
.Ltmp479:
.Lfunc_end88:
	.size	_ZNK3MPI4Comm6IbsendEPKviRKNS_8DatatypeEii, .Lfunc_end88-_ZNK3MPI4Comm6IbsendEPKviRKNS_8DatatypeEii
	.cfi_endproc
                                        # -- End function
	.weak	_ZNK3MPI4Comm6IssendEPKviRKNS_8DatatypeEii # -- Begin function _ZNK3MPI4Comm6IssendEPKviRKNS_8DatatypeEii
	.p2align	4, 0x90
	.type	_ZNK3MPI4Comm6IssendEPKviRKNS_8DatatypeEii,@function
_ZNK3MPI4Comm6IssendEPKviRKNS_8DatatypeEii: # @_ZNK3MPI4Comm6IssendEPKviRKNS_8DatatypeEii
.Lfunc_begin89:
	.loc	17 95 0                 # /usr/lib/x86_64-linux-gnu/openmpi/include/openmpi/ompi/mpi/cxx/comm_inln.h:95:0
	.cfi_startproc
# %bb.0:                                # %L.entry
	#DEBUG_VALUE: Issend: <- $rsi
	#DEBUG_VALUE: Issend:buf <- $rdx
	#DEBUG_VALUE: Issend:count <- $ecx
	#DEBUG_VALUE: Issend:datatype <- $r8
	#DEBUG_VALUE: Issend:dest <- $r9d
	pushq	%rbp
	.cfi_def_cfa_offset 16
	.cfi_offset %rbp, -16
	movq	%rsp, %rbp
	.cfi_def_cfa_register %rbp
	pushq	%rbx
	subq	$24, %rsp
	.cfi_offset %rbx, -24
	movl	%r9d, %r11d
	movq	%rdx, %rax
	movq	%rdi, %rbx
	movl	16(%rbp), %r10d
.Ltmp480:
	#DEBUG_VALUE: datatype <- $r8
	#DEBUG_VALUE:  <- $rsi
	#DEBUG_VALUE: tag <- $r10d
	#DEBUG_VALUE: dest <- $r11d
	#DEBUG_VALUE: count <- $ecx
	#DEBUG_VALUE: buf <- $rax
	#DEBUG_VALUE: Issend:tag <- [DW_OP_plus_uconst 16] [$rbp+0]
	#DEBUG_VALUE: Issend:dest <- $r11d
	#DEBUG_VALUE: Issend:datatype <- $r8
	#DEBUG_VALUE: Issend:count <- $ecx
	#DEBUG_VALUE: Issend:buf <- $rax
	#DEBUG_VALUE: Issend: <- $rsi
	.loc	17 90 1 prologue_end    # /usr/lib/x86_64-linux-gnu/openmpi/include/openmpi/ompi/mpi/cxx/comm_inln.h:90:1
	movq	8(%r8), %rdx
	movq	8(%rsi), %r9
.Ltmp481:
	#DEBUG_VALUE: request <- [DW_OP_constu 16, DW_OP_minus, DW_OP_deref] $rbp
	.loc	17 0 1 is_stmt 0        # /usr/lib/x86_64-linux-gnu/openmpi/include/openmpi/ompi/mpi/cxx/comm_inln.h:0:1
	leaq	-16(%rbp), %rsi
.Ltmp482:
	.loc	17 90 1                 # /usr/lib/x86_64-linux-gnu/openmpi/include/openmpi/ompi/mpi/cxx/comm_inln.h:90:1
	movq	%rsi, (%rsp)
	movq	%rax, %rdi
.Ltmp483:
	#DEBUG_VALUE: Issend:buf <- $rdi
	movl	%ecx, %esi
.Ltmp484:
	#DEBUG_VALUE: Issend:count <- $esi
	movl	%r11d, %ecx
.Ltmp485:
	#DEBUG_VALUE: Issend:dest <- $ecx
	movl	%r10d, %r8d
.Ltmp486:
	callq	MPI_Issend
.Ltmp487:
	.loc	17 99 1 is_stmt 1       # /usr/lib/x86_64-linux-gnu/openmpi/include/openmpi/ompi/mpi/cxx/comm_inln.h:99:1
	movq	-16(%rbp), %rax
.Ltmp488:
	#DEBUG_VALUE: request <- undef
	movq	$_ZTVN3MPI7RequestE+16, (%rbx)
	.loc	17 62 1                 # /usr/lib/x86_64-linux-gnu/openmpi/include/openmpi/ompi/mpi/cxx/comm_inln.h:62:1
	movq	%rax, 8(%rbx)
	.loc	17 100 1                # /usr/lib/x86_64-linux-gnu/openmpi/include/openmpi/ompi/mpi/cxx/comm_inln.h:100:1
	movq	%rbx, %rax
	addq	$24, %rsp
	popq	%rbx
	popq	%rbp
	.cfi_def_cfa %rsp, 8
	retq
.Ltmp489:
.Lfunc_end89:
	.size	_ZNK3MPI4Comm6IssendEPKviRKNS_8DatatypeEii, .Lfunc_end89-_ZNK3MPI4Comm6IssendEPKviRKNS_8DatatypeEii
	.cfi_endproc
                                        # -- End function
	.weak	_ZNK3MPI4Comm6IrsendEPKviRKNS_8DatatypeEii # -- Begin function _ZNK3MPI4Comm6IrsendEPKviRKNS_8DatatypeEii
	.p2align	4, 0x90
	.type	_ZNK3MPI4Comm6IrsendEPKviRKNS_8DatatypeEii,@function
_ZNK3MPI4Comm6IrsendEPKviRKNS_8DatatypeEii: # @_ZNK3MPI4Comm6IrsendEPKviRKNS_8DatatypeEii
.Lfunc_begin90:
	.loc	17 105 0                # /usr/lib/x86_64-linux-gnu/openmpi/include/openmpi/ompi/mpi/cxx/comm_inln.h:105:0
	.cfi_startproc
# %bb.0:                                # %L.entry
	#DEBUG_VALUE: Irsend: <- $rsi
	#DEBUG_VALUE: Irsend:buf <- $rdx
	#DEBUG_VALUE: Irsend:count <- $ecx
	#DEBUG_VALUE: Irsend:datatype <- $r8
	#DEBUG_VALUE: Irsend:dest <- $r9d
	pushq	%rbp
	.cfi_def_cfa_offset 16
	.cfi_offset %rbp, -16
	movq	%rsp, %rbp
	.cfi_def_cfa_register %rbp
	pushq	%rbx
	subq	$24, %rsp
	.cfi_offset %rbx, -24
	movl	%r9d, %r11d
	movq	%rdx, %rax
	movq	%rdi, %rbx
	movl	16(%rbp), %r10d
.Ltmp490:
	#DEBUG_VALUE: datatype <- $r8
	#DEBUG_VALUE:  <- $rsi
	#DEBUG_VALUE: tag <- $r10d
	#DEBUG_VALUE: dest <- $r11d
	#DEBUG_VALUE: count <- $ecx
	#DEBUG_VALUE: buf <- $rax
	#DEBUG_VALUE: Irsend:tag <- [DW_OP_plus_uconst 16] [$rbp+0]
	#DEBUG_VALUE: Irsend:dest <- $r11d
	#DEBUG_VALUE: Irsend:datatype <- $r8
	#DEBUG_VALUE: Irsend:count <- $ecx
	#DEBUG_VALUE: Irsend:buf <- $rax
	#DEBUG_VALUE: Irsend: <- $rsi
	.loc	17 90 1 prologue_end    # /usr/lib/x86_64-linux-gnu/openmpi/include/openmpi/ompi/mpi/cxx/comm_inln.h:90:1
	movq	8(%r8), %rdx
	movq	8(%rsi), %r9
.Ltmp491:
	#DEBUG_VALUE: request <- [DW_OP_constu 16, DW_OP_minus, DW_OP_deref] $rbp
	.loc	17 0 1 is_stmt 0        # /usr/lib/x86_64-linux-gnu/openmpi/include/openmpi/ompi/mpi/cxx/comm_inln.h:0:1
	leaq	-16(%rbp), %rsi
.Ltmp492:
	.loc	17 90 1                 # /usr/lib/x86_64-linux-gnu/openmpi/include/openmpi/ompi/mpi/cxx/comm_inln.h:90:1
	movq	%rsi, (%rsp)
	movq	%rax, %rdi
.Ltmp493:
	#DEBUG_VALUE: Irsend:buf <- $rdi
	movl	%ecx, %esi
.Ltmp494:
	#DEBUG_VALUE: Irsend:count <- $esi
	movl	%r11d, %ecx
.Ltmp495:
	#DEBUG_VALUE: Irsend:dest <- $ecx
	movl	%r10d, %r8d
.Ltmp496:
	callq	MPI_Irsend
.Ltmp497:
	.loc	17 109 1 is_stmt 1      # /usr/lib/x86_64-linux-gnu/openmpi/include/openmpi/ompi/mpi/cxx/comm_inln.h:109:1
	movq	-16(%rbp), %rax
.Ltmp498:
	#DEBUG_VALUE: request <- undef
	movq	$_ZTVN3MPI7RequestE+16, (%rbx)
	.loc	17 62 1                 # /usr/lib/x86_64-linux-gnu/openmpi/include/openmpi/ompi/mpi/cxx/comm_inln.h:62:1
	movq	%rax, 8(%rbx)
	.loc	17 110 1                # /usr/lib/x86_64-linux-gnu/openmpi/include/openmpi/ompi/mpi/cxx/comm_inln.h:110:1
	movq	%rbx, %rax
	addq	$24, %rsp
	popq	%rbx
	popq	%rbp
	.cfi_def_cfa %rsp, 8
	retq
.Ltmp499:
.Lfunc_end90:
	.size	_ZNK3MPI4Comm6IrsendEPKviRKNS_8DatatypeEii, .Lfunc_end90-_ZNK3MPI4Comm6IrsendEPKviRKNS_8DatatypeEii
	.cfi_endproc
                                        # -- End function
	.weak	_ZNK3MPI4Comm5IrecvEPviRKNS_8DatatypeEii # -- Begin function _ZNK3MPI4Comm5IrecvEPviRKNS_8DatatypeEii
	.p2align	4, 0x90
	.type	_ZNK3MPI4Comm5IrecvEPviRKNS_8DatatypeEii,@function
_ZNK3MPI4Comm5IrecvEPviRKNS_8DatatypeEii: # @_ZNK3MPI4Comm5IrecvEPviRKNS_8DatatypeEii
.Lfunc_begin91:
	.loc	17 115 0                # /usr/lib/x86_64-linux-gnu/openmpi/include/openmpi/ompi/mpi/cxx/comm_inln.h:115:0
	.cfi_startproc
# %bb.0:                                # %L.entry
	#DEBUG_VALUE: Irecv: <- $rsi
	#DEBUG_VALUE: Irecv:buf <- $rdx
	#DEBUG_VALUE: Irecv:count <- $ecx
	#DEBUG_VALUE: Irecv:datatype <- $r8
	#DEBUG_VALUE: Irecv:source <- $r9d
	pushq	%rbp
	.cfi_def_cfa_offset 16
	.cfi_offset %rbp, -16
	movq	%rsp, %rbp
	.cfi_def_cfa_register %rbp
	pushq	%rbx
	subq	$24, %rsp
	.cfi_offset %rbx, -24
	movl	%r9d, %r11d
	movq	%rdx, %rax
	movq	%rdi, %rbx
	movl	16(%rbp), %r10d
.Ltmp500:
	#DEBUG_VALUE: datatype <- $r8
	#DEBUG_VALUE:  <- $rsi
	#DEBUG_VALUE: tag <- $r10d
	#DEBUG_VALUE: source <- $r11d
	#DEBUG_VALUE: count <- $ecx
	#DEBUG_VALUE: buf <- $rax
	#DEBUG_VALUE: Irecv:tag <- [DW_OP_plus_uconst 16] [$rbp+0]
	#DEBUG_VALUE: Irecv:source <- $r11d
	#DEBUG_VALUE: Irecv:datatype <- $r8
	#DEBUG_VALUE: Irecv:count <- $ecx
	#DEBUG_VALUE: Irecv:buf <- $rax
	#DEBUG_VALUE: Irecv: <- $rsi
	.loc	17 90 1 prologue_end    # /usr/lib/x86_64-linux-gnu/openmpi/include/openmpi/ompi/mpi/cxx/comm_inln.h:90:1
	movq	8(%r8), %rdx
	movq	8(%rsi), %r9
.Ltmp501:
	#DEBUG_VALUE: request <- [DW_OP_constu 16, DW_OP_minus, DW_OP_deref] $rbp
	.loc	17 0 1 is_stmt 0        # /usr/lib/x86_64-linux-gnu/openmpi/include/openmpi/ompi/mpi/cxx/comm_inln.h:0:1
	leaq	-16(%rbp), %rsi
.Ltmp502:
	.loc	17 90 1                 # /usr/lib/x86_64-linux-gnu/openmpi/include/openmpi/ompi/mpi/cxx/comm_inln.h:90:1
	movq	%rsi, (%rsp)
	movq	%rax, %rdi
.Ltmp503:
	#DEBUG_VALUE: Irecv:buf <- $rdi
	movl	%ecx, %esi
.Ltmp504:
	#DEBUG_VALUE: Irecv:count <- $esi
	movl	%r11d, %ecx
.Ltmp505:
	#DEBUG_VALUE: Irecv:source <- $ecx
	movl	%r10d, %r8d
.Ltmp506:
	callq	MPI_Irecv
.Ltmp507:
	.loc	17 119 1 is_stmt 1      # /usr/lib/x86_64-linux-gnu/openmpi/include/openmpi/ompi/mpi/cxx/comm_inln.h:119:1
	movq	-16(%rbp), %rax
.Ltmp508:
	#DEBUG_VALUE: request <- undef
	movq	$_ZTVN3MPI7RequestE+16, (%rbx)
	.loc	17 62 1                 # /usr/lib/x86_64-linux-gnu/openmpi/include/openmpi/ompi/mpi/cxx/comm_inln.h:62:1
	movq	%rax, 8(%rbx)
	.loc	17 120 1                # /usr/lib/x86_64-linux-gnu/openmpi/include/openmpi/ompi/mpi/cxx/comm_inln.h:120:1
	movq	%rbx, %rax
	addq	$24, %rsp
	popq	%rbx
	popq	%rbp
	.cfi_def_cfa %rsp, 8
	retq
.Ltmp509:
.Lfunc_end91:
	.size	_ZNK3MPI4Comm5IrecvEPviRKNS_8DatatypeEii, .Lfunc_end91-_ZNK3MPI4Comm5IrecvEPviRKNS_8DatatypeEii
	.cfi_endproc
                                        # -- End function
	.weak	_ZNK3MPI4Comm6IprobeEiiRNS_6StatusE # -- Begin function _ZNK3MPI4Comm6IprobeEiiRNS_6StatusE
	.p2align	4, 0x90
	.type	_ZNK3MPI4Comm6IprobeEiiRNS_6StatusE,@function
_ZNK3MPI4Comm6IprobeEiiRNS_6StatusE:    # @_ZNK3MPI4Comm6IprobeEiiRNS_6StatusE
.Lfunc_begin92:
	.loc	17 125 0                # /usr/lib/x86_64-linux-gnu/openmpi/include/openmpi/ompi/mpi/cxx/comm_inln.h:125:0
	.cfi_startproc
# %bb.0:                                # %L.entry
	#DEBUG_VALUE: Iprobe: <- $rdi
	#DEBUG_VALUE: Iprobe: <- $rdi
	#DEBUG_VALUE: Iprobe:source <- $esi
	#DEBUG_VALUE: Iprobe:source <- $esi
	#DEBUG_VALUE: Iprobe:tag <- $edx
	#DEBUG_VALUE: Iprobe:tag <- $edx
	#DEBUG_VALUE: Iprobe:status <- $rcx
	#DEBUG_VALUE: Iprobe:status <- $rcx
	pushq	%rbp
	.cfi_def_cfa_offset 16
	.cfi_offset %rbp, -16
	movq	%rsp, %rbp
	.cfi_def_cfa_register %rbp
	subq	$16, %rsp
.Ltmp510:
	#DEBUG_VALUE:  <- $rdi
	#DEBUG_VALUE: source <- $esi
	#DEBUG_VALUE: tag <- $edx
	#DEBUG_VALUE: status <- $rcx
	.loc	17 127 1 prologue_end   # /usr/lib/x86_64-linux-gnu/openmpi/include/openmpi/ompi/mpi/cxx/comm_inln.h:127:1
	movq	8(%rdi), %rax
	leaq	8(%rcx), %r8
.Ltmp511:
	#DEBUG_VALUE: t <- [DW_OP_constu 4, DW_OP_minus, DW_OP_deref] $rbp
	.loc	17 0 1 is_stmt 0        # /usr/lib/x86_64-linux-gnu/openmpi/include/openmpi/ompi/mpi/cxx/comm_inln.h:0:1
	leaq	-4(%rbp), %rcx
.Ltmp512:
	.loc	17 127 1                # /usr/lib/x86_64-linux-gnu/openmpi/include/openmpi/ompi/mpi/cxx/comm_inln.h:127:1
	movl	%esi, %edi
.Ltmp513:
	#DEBUG_VALUE: Iprobe:source <- $edi
	movl	%edx, %esi
.Ltmp514:
	#DEBUG_VALUE: Iprobe:tag <- $esi
	movq	%rax, %rdx
.Ltmp515:
	callq	MPI_Iprobe
.Ltmp516:
	#DEBUG_VALUE: t <- undef
	.loc	17 128 1 is_stmt 1      # /usr/lib/x86_64-linux-gnu/openmpi/include/openmpi/ompi/mpi/cxx/comm_inln.h:128:1
	cmpl	$0, -4(%rbp)
	setne	%al
	addq	$16, %rsp
	popq	%rbp
	.cfi_def_cfa %rsp, 8
	retq
.Ltmp517:
.Lfunc_end92:
	.size	_ZNK3MPI4Comm6IprobeEiiRNS_6StatusE, .Lfunc_end92-_ZNK3MPI4Comm6IprobeEiiRNS_6StatusE
	.cfi_endproc
                                        # -- End function
	.weak	_ZNK3MPI4Comm6IprobeEii # -- Begin function _ZNK3MPI4Comm6IprobeEii
	.p2align	4, 0x90
	.type	_ZNK3MPI4Comm6IprobeEii,@function
_ZNK3MPI4Comm6IprobeEii:                # @_ZNK3MPI4Comm6IprobeEii
.Lfunc_begin93:
	.loc	17 133 0                # /usr/lib/x86_64-linux-gnu/openmpi/include/openmpi/ompi/mpi/cxx/comm_inln.h:133:0
	.cfi_startproc
# %bb.0:                                # %L.entry
	#DEBUG_VALUE: Iprobe: <- $rdi
	#DEBUG_VALUE: Iprobe: <- $rdi
	#DEBUG_VALUE: Iprobe:source <- $esi
	#DEBUG_VALUE: Iprobe:source <- $esi
	#DEBUG_VALUE: Iprobe:tag <- $edx
	#DEBUG_VALUE: Iprobe:tag <- $edx
	pushq	%rbp
	.cfi_def_cfa_offset 16
	.cfi_offset %rbp, -16
	movq	%rsp, %rbp
	.cfi_def_cfa_register %rbp
	subq	$16, %rsp
.Ltmp518:
	#DEBUG_VALUE:  <- $rdi
	#DEBUG_VALUE: source <- $esi
	#DEBUG_VALUE: tag <- $edx
	.loc	17 135 1 prologue_end   # /usr/lib/x86_64-linux-gnu/openmpi/include/openmpi/ompi/mpi/cxx/comm_inln.h:135:1
	movq	8(%rdi), %rax
.Ltmp519:
	#DEBUG_VALUE: t <- [DW_OP_constu 4, DW_OP_minus, DW_OP_deref] $rbp
	.loc	17 0 1 is_stmt 0        # /usr/lib/x86_64-linux-gnu/openmpi/include/openmpi/ompi/mpi/cxx/comm_inln.h:0:1
	leaq	-4(%rbp), %rcx
	.loc	17 135 1                # /usr/lib/x86_64-linux-gnu/openmpi/include/openmpi/ompi/mpi/cxx/comm_inln.h:135:1
	movl	%esi, %edi
.Ltmp520:
	#DEBUG_VALUE: Iprobe:source <- $edi
	movl	%edx, %esi
.Ltmp521:
	#DEBUG_VALUE: Iprobe:tag <- $esi
	movq	%rax, %rdx
.Ltmp522:
	xorl	%r8d, %r8d
	callq	MPI_Iprobe
.Ltmp523:
	#DEBUG_VALUE: t <- undef
	.loc	17 136 1 is_stmt 1      # /usr/lib/x86_64-linux-gnu/openmpi/include/openmpi/ompi/mpi/cxx/comm_inln.h:136:1
	cmpl	$0, -4(%rbp)
	setne	%al
	addq	$16, %rsp
	popq	%rbp
	.cfi_def_cfa %rsp, 8
	retq
.Ltmp524:
.Lfunc_end93:
	.size	_ZNK3MPI4Comm6IprobeEii, .Lfunc_end93-_ZNK3MPI4Comm6IprobeEii
	.cfi_endproc
                                        # -- End function
	.weak	_ZNK3MPI4Comm5ProbeEiiRNS_6StatusE # -- Begin function _ZNK3MPI4Comm5ProbeEiiRNS_6StatusE
	.p2align	4, 0x90
	.type	_ZNK3MPI4Comm5ProbeEiiRNS_6StatusE,@function
_ZNK3MPI4Comm5ProbeEiiRNS_6StatusE:     # @_ZNK3MPI4Comm5ProbeEiiRNS_6StatusE
.Lfunc_begin94:
	.loc	17 141 0                # /usr/lib/x86_64-linux-gnu/openmpi/include/openmpi/ompi/mpi/cxx/comm_inln.h:141:0
	.cfi_startproc
# %bb.0:                                # %L.entry
	#DEBUG_VALUE: Probe: <- $rdi
	#DEBUG_VALUE: Probe: <- $rdi
	#DEBUG_VALUE: Probe:source <- $esi
	#DEBUG_VALUE: Probe:source <- $esi
	#DEBUG_VALUE: Probe:tag <- $edx
	#DEBUG_VALUE: Probe:tag <- $edx
	#DEBUG_VALUE: Probe:status <- $rcx
	#DEBUG_VALUE: Probe:status <- $rcx
	pushq	%rbp
	.cfi_def_cfa_offset 16
	.cfi_offset %rbp, -16
	movq	%rsp, %rbp
	.cfi_def_cfa_register %rbp
.Ltmp525:
	#DEBUG_VALUE:  <- $rdi
	#DEBUG_VALUE:  <- $rdi
	#DEBUG_VALUE: source <- $esi
	#DEBUG_VALUE: source <- $esi
	#DEBUG_VALUE: tag <- $edx
	#DEBUG_VALUE: tag <- $edx
	#DEBUG_VALUE: status <- $rcx
	#DEBUG_VALUE: status <- $rcx
	.loc	17 142 1 prologue_end   # /usr/lib/x86_64-linux-gnu/openmpi/include/openmpi/ompi/mpi/cxx/comm_inln.h:142:1
	movq	8(%rdi), %rax
	addq	$8, %rcx
.Ltmp526:
	movl	%esi, %edi
.Ltmp527:
	#DEBUG_VALUE: source <- $edi
	#DEBUG_VALUE: Probe:source <- $edi
	movl	%edx, %esi
.Ltmp528:
	#DEBUG_VALUE: tag <- $esi
	#DEBUG_VALUE: Probe:tag <- $esi
	movq	%rax, %rdx
	popq	%rbp
	.cfi_def_cfa %rsp, 8
	jmp	MPI_Probe               # TAILCALL
.Ltmp529:
.Lfunc_end94:
	.size	_ZNK3MPI4Comm5ProbeEiiRNS_6StatusE, .Lfunc_end94-_ZNK3MPI4Comm5ProbeEiiRNS_6StatusE
	.cfi_endproc
                                        # -- End function
	.weak	_ZNK3MPI4Comm5ProbeEii  # -- Begin function _ZNK3MPI4Comm5ProbeEii
	.p2align	4, 0x90
	.type	_ZNK3MPI4Comm5ProbeEii,@function
_ZNK3MPI4Comm5ProbeEii:                 # @_ZNK3MPI4Comm5ProbeEii
.Lfunc_begin95:
	.loc	17 147 0                # /usr/lib/x86_64-linux-gnu/openmpi/include/openmpi/ompi/mpi/cxx/comm_inln.h:147:0
	.cfi_startproc
# %bb.0:                                # %L.entry
	#DEBUG_VALUE: Probe: <- $rdi
	#DEBUG_VALUE: Probe: <- $rdi
	#DEBUG_VALUE: Probe:source <- $esi
	#DEBUG_VALUE: Probe:source <- $esi
	#DEBUG_VALUE: Probe:tag <- $edx
	#DEBUG_VALUE: Probe:tag <- $edx
	pushq	%rbp
	.cfi_def_cfa_offset 16
	.cfi_offset %rbp, -16
	movq	%rsp, %rbp
	.cfi_def_cfa_register %rbp
.Ltmp530:
	#DEBUG_VALUE:  <- $rdi
	#DEBUG_VALUE:  <- $rdi
	#DEBUG_VALUE: source <- $esi
	#DEBUG_VALUE: source <- $esi
	#DEBUG_VALUE: tag <- $edx
	#DEBUG_VALUE: tag <- $edx
	.loc	17 148 1 prologue_end   # /usr/lib/x86_64-linux-gnu/openmpi/include/openmpi/ompi/mpi/cxx/comm_inln.h:148:1
	movq	8(%rdi), %rax
	movl	%esi, %edi
.Ltmp531:
	#DEBUG_VALUE: source <- $edi
	#DEBUG_VALUE: Probe:source <- $edi
	movl	%edx, %esi
.Ltmp532:
	#DEBUG_VALUE: tag <- $esi
	#DEBUG_VALUE: Probe:tag <- $esi
	movq	%rax, %rdx
	xorl	%ecx, %ecx
	popq	%rbp
	.cfi_def_cfa %rsp, 8
	jmp	MPI_Probe               # TAILCALL
.Ltmp533:
.Lfunc_end95:
	.size	_ZNK3MPI4Comm5ProbeEii, .Lfunc_end95-_ZNK3MPI4Comm5ProbeEii
	.cfi_endproc
                                        # -- End function
	.weak	_ZNK3MPI4Comm9Send_initEPKviRKNS_8DatatypeEii # -- Begin function _ZNK3MPI4Comm9Send_initEPKviRKNS_8DatatypeEii
	.p2align	4, 0x90
	.type	_ZNK3MPI4Comm9Send_initEPKviRKNS_8DatatypeEii,@function
_ZNK3MPI4Comm9Send_initEPKviRKNS_8DatatypeEii: # @_ZNK3MPI4Comm9Send_initEPKviRKNS_8DatatypeEii
.Lfunc_begin96:
	.loc	17 154 0                # /usr/lib/x86_64-linux-gnu/openmpi/include/openmpi/ompi/mpi/cxx/comm_inln.h:154:0
	.cfi_startproc
# %bb.0:                                # %L.entry
	#DEBUG_VALUE: Send_init: <- $rsi
	#DEBUG_VALUE: Send_init:buf <- $rdx
	#DEBUG_VALUE: Send_init:count <- $ecx
	#DEBUG_VALUE: Send_init:datatype <- $r8
	#DEBUG_VALUE: Send_init:dest <- $r9d
	pushq	%rbp
	.cfi_def_cfa_offset 16
	.cfi_offset %rbp, -16
	movq	%rsp, %rbp
	.cfi_def_cfa_register %rbp
	pushq	%rbx
	subq	$24, %rsp
	.cfi_offset %rbx, -24
	movl	%r9d, %r11d
	movq	%rdx, %rax
	movq	%rdi, %rbx
	movl	16(%rbp), %r10d
.Ltmp534:
	#DEBUG_VALUE: datatype <- $r8
	#DEBUG_VALUE:  <- $rsi
	#DEBUG_VALUE: tag <- $r10d
	#DEBUG_VALUE: dest <- $r11d
	#DEBUG_VALUE: count <- $ecx
	#DEBUG_VALUE: buf <- $rax
	#DEBUG_VALUE: Send_init:tag <- [DW_OP_plus_uconst 16] [$rbp+0]
	#DEBUG_VALUE: Send_init:dest <- $r11d
	#DEBUG_VALUE: Send_init:datatype <- $r8
	#DEBUG_VALUE: Send_init:count <- $ecx
	#DEBUG_VALUE: Send_init:buf <- $rax
	#DEBUG_VALUE: Send_init: <- $rsi
	.loc	17 90 1 prologue_end    # /usr/lib/x86_64-linux-gnu/openmpi/include/openmpi/ompi/mpi/cxx/comm_inln.h:90:1
	movq	8(%r8), %rdx
	movq	8(%rsi), %r9
.Ltmp535:
	#DEBUG_VALUE: request <- [DW_OP_constu 16, DW_OP_minus, DW_OP_deref] $rbp
	.loc	17 0 1 is_stmt 0        # /usr/lib/x86_64-linux-gnu/openmpi/include/openmpi/ompi/mpi/cxx/comm_inln.h:0:1
	leaq	-16(%rbp), %rsi
.Ltmp536:
	.loc	17 90 1                 # /usr/lib/x86_64-linux-gnu/openmpi/include/openmpi/ompi/mpi/cxx/comm_inln.h:90:1
	movq	%rsi, (%rsp)
	movq	%rax, %rdi
.Ltmp537:
	#DEBUG_VALUE: Send_init:buf <- $rdi
	movl	%ecx, %esi
.Ltmp538:
	#DEBUG_VALUE: Send_init:count <- $esi
	movl	%r11d, %ecx
.Ltmp539:
	#DEBUG_VALUE: Send_init:dest <- $ecx
	movl	%r10d, %r8d
.Ltmp540:
	callq	MPI_Send_init
.Ltmp541:
	.loc	17 175 1 is_stmt 1      # /usr/lib/x86_64-linux-gnu/openmpi/include/openmpi/ompi/mpi/cxx/comm_inln.h:175:1
	movq	-16(%rbp), %rax
.Ltmp542:
	#DEBUG_VALUE: request <- undef
	movq	%rax, 8(%rbx)
	movq	$_ZTVN3MPI8PrequestE+16, (%rbx)
	.loc	17 159 1                # /usr/lib/x86_64-linux-gnu/openmpi/include/openmpi/ompi/mpi/cxx/comm_inln.h:159:1
	movq	%rbx, %rax
	addq	$24, %rsp
	popq	%rbx
	popq	%rbp
	.cfi_def_cfa %rsp, 8
	retq
.Ltmp543:
.Lfunc_end96:
	.size	_ZNK3MPI4Comm9Send_initEPKviRKNS_8DatatypeEii, .Lfunc_end96-_ZNK3MPI4Comm9Send_initEPKviRKNS_8DatatypeEii
	.cfi_endproc
                                        # -- End function
	.weak	_ZNK3MPI4Comm10Bsend_initEPKviRKNS_8DatatypeEii # -- Begin function _ZNK3MPI4Comm10Bsend_initEPKviRKNS_8DatatypeEii
	.p2align	4, 0x90
	.type	_ZNK3MPI4Comm10Bsend_initEPKviRKNS_8DatatypeEii,@function
_ZNK3MPI4Comm10Bsend_initEPKviRKNS_8DatatypeEii: # @_ZNK3MPI4Comm10Bsend_initEPKviRKNS_8DatatypeEii
.Lfunc_begin97:
	.loc	17 164 0                # /usr/lib/x86_64-linux-gnu/openmpi/include/openmpi/ompi/mpi/cxx/comm_inln.h:164:0
	.cfi_startproc
# %bb.0:                                # %L.entry
	#DEBUG_VALUE: Bsend_init: <- $rsi
	#DEBUG_VALUE: Bsend_init:buf <- $rdx
	#DEBUG_VALUE: Bsend_init:count <- $ecx
	#DEBUG_VALUE: Bsend_init:datatype <- $r8
	#DEBUG_VALUE: Bsend_init:dest <- $r9d
	pushq	%rbp
	.cfi_def_cfa_offset 16
	.cfi_offset %rbp, -16
	movq	%rsp, %rbp
	.cfi_def_cfa_register %rbp
	pushq	%rbx
	subq	$24, %rsp
	.cfi_offset %rbx, -24
	movl	%r9d, %r11d
	movq	%rdx, %rax
	movq	%rdi, %rbx
	movl	16(%rbp), %r10d
.Ltmp544:
	#DEBUG_VALUE: datatype <- $r8
	#DEBUG_VALUE:  <- $rsi
	#DEBUG_VALUE: tag <- $r10d
	#DEBUG_VALUE: dest <- $r11d
	#DEBUG_VALUE: count <- $ecx
	#DEBUG_VALUE: buf <- $rax
	#DEBUG_VALUE: Bsend_init:tag <- [DW_OP_plus_uconst 16] [$rbp+0]
	#DEBUG_VALUE: Bsend_init:dest <- $r11d
	#DEBUG_VALUE: Bsend_init:datatype <- $r8
	#DEBUG_VALUE: Bsend_init:count <- $ecx
	#DEBUG_VALUE: Bsend_init:buf <- $rax
	#DEBUG_VALUE: Bsend_init: <- $rsi
	.loc	17 90 1 prologue_end    # /usr/lib/x86_64-linux-gnu/openmpi/include/openmpi/ompi/mpi/cxx/comm_inln.h:90:1
	movq	8(%r8), %rdx
	movq	8(%rsi), %r9
.Ltmp545:
	#DEBUG_VALUE: request <- [DW_OP_constu 16, DW_OP_minus, DW_OP_deref] $rbp
	.loc	17 0 1 is_stmt 0        # /usr/lib/x86_64-linux-gnu/openmpi/include/openmpi/ompi/mpi/cxx/comm_inln.h:0:1
	leaq	-16(%rbp), %rsi
.Ltmp546:
	.loc	17 90 1                 # /usr/lib/x86_64-linux-gnu/openmpi/include/openmpi/ompi/mpi/cxx/comm_inln.h:90:1
	movq	%rsi, (%rsp)
	movq	%rax, %rdi
.Ltmp547:
	#DEBUG_VALUE: Bsend_init:buf <- $rdi
	movl	%ecx, %esi
.Ltmp548:
	#DEBUG_VALUE: Bsend_init:count <- $esi
	movl	%r11d, %ecx
.Ltmp549:
	#DEBUG_VALUE: Bsend_init:dest <- $ecx
	movl	%r10d, %r8d
.Ltmp550:
	callq	MPI_Bsend_init
.Ltmp551:
	.loc	17 175 1 is_stmt 1      # /usr/lib/x86_64-linux-gnu/openmpi/include/openmpi/ompi/mpi/cxx/comm_inln.h:175:1
	movq	-16(%rbp), %rax
.Ltmp552:
	#DEBUG_VALUE: request <- undef
	movq	%rax, 8(%rbx)
	movq	$_ZTVN3MPI8PrequestE+16, (%rbx)
	.loc	17 169 1                # /usr/lib/x86_64-linux-gnu/openmpi/include/openmpi/ompi/mpi/cxx/comm_inln.h:169:1
	movq	%rbx, %rax
	addq	$24, %rsp
	popq	%rbx
	popq	%rbp
	.cfi_def_cfa %rsp, 8
	retq
.Ltmp553:
.Lfunc_end97:
	.size	_ZNK3MPI4Comm10Bsend_initEPKviRKNS_8DatatypeEii, .Lfunc_end97-_ZNK3MPI4Comm10Bsend_initEPKviRKNS_8DatatypeEii
	.cfi_endproc
                                        # -- End function
	.weak	_ZNK3MPI4Comm10Ssend_initEPKviRKNS_8DatatypeEii # -- Begin function _ZNK3MPI4Comm10Ssend_initEPKviRKNS_8DatatypeEii
	.p2align	4, 0x90
	.type	_ZNK3MPI4Comm10Ssend_initEPKviRKNS_8DatatypeEii,@function
_ZNK3MPI4Comm10Ssend_initEPKviRKNS_8DatatypeEii: # @_ZNK3MPI4Comm10Ssend_initEPKviRKNS_8DatatypeEii
.Lfunc_begin98:
	.loc	17 174 0                # /usr/lib/x86_64-linux-gnu/openmpi/include/openmpi/ompi/mpi/cxx/comm_inln.h:174:0
	.cfi_startproc
# %bb.0:                                # %L.entry
	#DEBUG_VALUE: Ssend_init: <- $rsi
	#DEBUG_VALUE: Ssend_init:buf <- $rdx
	#DEBUG_VALUE: Ssend_init:count <- $ecx
	#DEBUG_VALUE: Ssend_init:datatype <- $r8
	#DEBUG_VALUE: Ssend_init:dest <- $r9d
	pushq	%rbp
	.cfi_def_cfa_offset 16
	.cfi_offset %rbp, -16
	movq	%rsp, %rbp
	.cfi_def_cfa_register %rbp
	pushq	%rbx
	subq	$24, %rsp
	.cfi_offset %rbx, -24
	movl	%r9d, %r11d
	movq	%rdx, %rax
	movq	%rdi, %rbx
	movl	16(%rbp), %r10d
.Ltmp554:
	#DEBUG_VALUE: datatype <- $r8
	#DEBUG_VALUE:  <- $rsi
	#DEBUG_VALUE: tag <- $r10d
	#DEBUG_VALUE: dest <- $r11d
	#DEBUG_VALUE: count <- $ecx
	#DEBUG_VALUE: buf <- $rax
	#DEBUG_VALUE: Ssend_init:tag <- [DW_OP_plus_uconst 16] [$rbp+0]
	#DEBUG_VALUE: Ssend_init:dest <- $r11d
	#DEBUG_VALUE: Ssend_init:datatype <- $r8
	#DEBUG_VALUE: Ssend_init:count <- $ecx
	#DEBUG_VALUE: Ssend_init:buf <- $rax
	#DEBUG_VALUE: Ssend_init: <- $rsi
	.loc	17 90 1 prologue_end    # /usr/lib/x86_64-linux-gnu/openmpi/include/openmpi/ompi/mpi/cxx/comm_inln.h:90:1
	movq	8(%r8), %rdx
	movq	8(%rsi), %r9
.Ltmp555:
	#DEBUG_VALUE: request <- [DW_OP_constu 16, DW_OP_minus, DW_OP_deref] $rbp
	.loc	17 0 1 is_stmt 0        # /usr/lib/x86_64-linux-gnu/openmpi/include/openmpi/ompi/mpi/cxx/comm_inln.h:0:1
	leaq	-16(%rbp), %rsi
.Ltmp556:
	.loc	17 90 1                 # /usr/lib/x86_64-linux-gnu/openmpi/include/openmpi/ompi/mpi/cxx/comm_inln.h:90:1
	movq	%rsi, (%rsp)
	movq	%rax, %rdi
.Ltmp557:
	#DEBUG_VALUE: Ssend_init:buf <- $rdi
	movl	%ecx, %esi
.Ltmp558:
	#DEBUG_VALUE: Ssend_init:count <- $esi
	movl	%r11d, %ecx
.Ltmp559:
	#DEBUG_VALUE: Ssend_init:dest <- $ecx
	movl	%r10d, %r8d
.Ltmp560:
	callq	MPI_Ssend_init
.Ltmp561:
	.loc	17 175 1 is_stmt 1      # /usr/lib/x86_64-linux-gnu/openmpi/include/openmpi/ompi/mpi/cxx/comm_inln.h:175:1
	movq	-16(%rbp), %rax
.Ltmp562:
	#DEBUG_VALUE: request <- undef
	movq	%rax, 8(%rbx)
	movq	$_ZTVN3MPI8PrequestE+16, (%rbx)
	.loc	17 179 1                # /usr/lib/x86_64-linux-gnu/openmpi/include/openmpi/ompi/mpi/cxx/comm_inln.h:179:1
	movq	%rbx, %rax
	addq	$24, %rsp
	popq	%rbx
	popq	%rbp
	.cfi_def_cfa %rsp, 8
	retq
.Ltmp563:
.Lfunc_end98:
	.size	_ZNK3MPI4Comm10Ssend_initEPKviRKNS_8DatatypeEii, .Lfunc_end98-_ZNK3MPI4Comm10Ssend_initEPKviRKNS_8DatatypeEii
	.cfi_endproc
                                        # -- End function
	.weak	_ZNK3MPI4Comm10Rsend_initEPKviRKNS_8DatatypeEii # -- Begin function _ZNK3MPI4Comm10Rsend_initEPKviRKNS_8DatatypeEii
	.p2align	4, 0x90
	.type	_ZNK3MPI4Comm10Rsend_initEPKviRKNS_8DatatypeEii,@function
_ZNK3MPI4Comm10Rsend_initEPKviRKNS_8DatatypeEii: # @_ZNK3MPI4Comm10Rsend_initEPKviRKNS_8DatatypeEii
.Lfunc_begin99:
	.loc	17 184 0                # /usr/lib/x86_64-linux-gnu/openmpi/include/openmpi/ompi/mpi/cxx/comm_inln.h:184:0
	.cfi_startproc
# %bb.0:                                # %L.entry
	#DEBUG_VALUE: Rsend_init: <- $rsi
	#DEBUG_VALUE: Rsend_init:buf <- $rdx
	#DEBUG_VALUE: Rsend_init:count <- $ecx
	#DEBUG_VALUE: Rsend_init:datatype <- $r8
	#DEBUG_VALUE: Rsend_init:dest <- $r9d
	pushq	%rbp
	.cfi_def_cfa_offset 16
	.cfi_offset %rbp, -16
	movq	%rsp, %rbp
	.cfi_def_cfa_register %rbp
	pushq	%rbx
	subq	$24, %rsp
	.cfi_offset %rbx, -24
	movl	%r9d, %r11d
	movq	%rdx, %rax
	movq	%rdi, %rbx
	movl	16(%rbp), %r10d
.Ltmp564:
	#DEBUG_VALUE: datatype <- $r8
	#DEBUG_VALUE:  <- $rsi
	#DEBUG_VALUE: tag <- $r10d
	#DEBUG_VALUE: dest <- $r11d
	#DEBUG_VALUE: count <- $ecx
	#DEBUG_VALUE: buf <- $rax
	#DEBUG_VALUE: Rsend_init:tag <- [DW_OP_plus_uconst 16] [$rbp+0]
	#DEBUG_VALUE: Rsend_init:dest <- $r11d
	#DEBUG_VALUE: Rsend_init:datatype <- $r8
	#DEBUG_VALUE: Rsend_init:count <- $ecx
	#DEBUG_VALUE: Rsend_init:buf <- $rax
	#DEBUG_VALUE: Rsend_init: <- $rsi
	.loc	17 90 1 prologue_end    # /usr/lib/x86_64-linux-gnu/openmpi/include/openmpi/ompi/mpi/cxx/comm_inln.h:90:1
	movq	8(%r8), %rdx
	movq	8(%rsi), %r9
.Ltmp565:
	#DEBUG_VALUE: request <- [DW_OP_constu 16, DW_OP_minus, DW_OP_deref] $rbp
	.loc	17 0 1 is_stmt 0        # /usr/lib/x86_64-linux-gnu/openmpi/include/openmpi/ompi/mpi/cxx/comm_inln.h:0:1
	leaq	-16(%rbp), %rsi
.Ltmp566:
	.loc	17 90 1                 # /usr/lib/x86_64-linux-gnu/openmpi/include/openmpi/ompi/mpi/cxx/comm_inln.h:90:1
	movq	%rsi, (%rsp)
	movq	%rax, %rdi
.Ltmp567:
	#DEBUG_VALUE: Rsend_init:buf <- $rdi
	movl	%ecx, %esi
.Ltmp568:
	#DEBUG_VALUE: Rsend_init:count <- $esi
	movl	%r11d, %ecx
.Ltmp569:
	#DEBUG_VALUE: Rsend_init:dest <- $ecx
	movl	%r10d, %r8d
.Ltmp570:
	callq	MPI_Rsend_init
.Ltmp571:
	.loc	17 175 1 is_stmt 1      # /usr/lib/x86_64-linux-gnu/openmpi/include/openmpi/ompi/mpi/cxx/comm_inln.h:175:1
	movq	-16(%rbp), %rax
.Ltmp572:
	#DEBUG_VALUE: request <- undef
	movq	%rax, 8(%rbx)
	movq	$_ZTVN3MPI8PrequestE+16, (%rbx)
	.loc	17 189 1                # /usr/lib/x86_64-linux-gnu/openmpi/include/openmpi/ompi/mpi/cxx/comm_inln.h:189:1
	movq	%rbx, %rax
	addq	$24, %rsp
	popq	%rbx
	popq	%rbp
	.cfi_def_cfa %rsp, 8
	retq
.Ltmp573:
.Lfunc_end99:
	.size	_ZNK3MPI4Comm10Rsend_initEPKviRKNS_8DatatypeEii, .Lfunc_end99-_ZNK3MPI4Comm10Rsend_initEPKviRKNS_8DatatypeEii
	.cfi_endproc
                                        # -- End function
	.weak	_ZNK3MPI4Comm9Recv_initEPviRKNS_8DatatypeEii # -- Begin function _ZNK3MPI4Comm9Recv_initEPviRKNS_8DatatypeEii
	.p2align	4, 0x90
	.type	_ZNK3MPI4Comm9Recv_initEPviRKNS_8DatatypeEii,@function
_ZNK3MPI4Comm9Recv_initEPviRKNS_8DatatypeEii: # @_ZNK3MPI4Comm9Recv_initEPviRKNS_8DatatypeEii
.Lfunc_begin100:
	.loc	17 194 0                # /usr/lib/x86_64-linux-gnu/openmpi/include/openmpi/ompi/mpi/cxx/comm_inln.h:194:0
	.cfi_startproc
# %bb.0:                                # %L.entry
	#DEBUG_VALUE: Recv_init: <- $rsi
	#DEBUG_VALUE: Recv_init:buf <- $rdx
	#DEBUG_VALUE: Recv_init:count <- $ecx
	#DEBUG_VALUE: Recv_init:datatype <- $r8
	#DEBUG_VALUE: Recv_init:source <- $r9d
	pushq	%rbp
	.cfi_def_cfa_offset 16
	.cfi_offset %rbp, -16
	movq	%rsp, %rbp
	.cfi_def_cfa_register %rbp
	pushq	%rbx
	subq	$24, %rsp
	.cfi_offset %rbx, -24
	movl	%r9d, %r11d
	movq	%rdx, %rax
	movq	%rdi, %rbx
	movl	16(%rbp), %r10d
.Ltmp574:
	#DEBUG_VALUE: datatype <- $r8
	#DEBUG_VALUE:  <- $rsi
	#DEBUG_VALUE: tag <- $r10d
	#DEBUG_VALUE: source <- $r11d
	#DEBUG_VALUE: count <- $ecx
	#DEBUG_VALUE: buf <- $rax
	#DEBUG_VALUE: Recv_init:tag <- [DW_OP_plus_uconst 16] [$rbp+0]
	#DEBUG_VALUE: Recv_init:source <- $r11d
	#DEBUG_VALUE: Recv_init:datatype <- $r8
	#DEBUG_VALUE: Recv_init:count <- $ecx
	#DEBUG_VALUE: Recv_init:buf <- $rax
	#DEBUG_VALUE: Recv_init: <- $rsi
	.loc	17 90 1 prologue_end    # /usr/lib/x86_64-linux-gnu/openmpi/include/openmpi/ompi/mpi/cxx/comm_inln.h:90:1
	movq	8(%r8), %rdx
	movq	8(%rsi), %r9
.Ltmp575:
	#DEBUG_VALUE: request <- [DW_OP_constu 16, DW_OP_minus, DW_OP_deref] $rbp
	.loc	17 0 1 is_stmt 0        # /usr/lib/x86_64-linux-gnu/openmpi/include/openmpi/ompi/mpi/cxx/comm_inln.h:0:1
	leaq	-16(%rbp), %rsi
.Ltmp576:
	.loc	17 90 1                 # /usr/lib/x86_64-linux-gnu/openmpi/include/openmpi/ompi/mpi/cxx/comm_inln.h:90:1
	movq	%rsi, (%rsp)
	movq	%rax, %rdi
.Ltmp577:
	#DEBUG_VALUE: Recv_init:buf <- $rdi
	movl	%ecx, %esi
.Ltmp578:
	#DEBUG_VALUE: Recv_init:count <- $esi
	movl	%r11d, %ecx
.Ltmp579:
	#DEBUG_VALUE: Recv_init:source <- $ecx
	movl	%r10d, %r8d
.Ltmp580:
	callq	MPI_Recv_init
.Ltmp581:
	.loc	17 175 1 is_stmt 1      # /usr/lib/x86_64-linux-gnu/openmpi/include/openmpi/ompi/mpi/cxx/comm_inln.h:175:1
	movq	-16(%rbp), %rax
.Ltmp582:
	#DEBUG_VALUE: request <- undef
	movq	%rax, 8(%rbx)
	movq	$_ZTVN3MPI8PrequestE+16, (%rbx)
	.loc	17 199 1                # /usr/lib/x86_64-linux-gnu/openmpi/include/openmpi/ompi/mpi/cxx/comm_inln.h:199:1
	movq	%rbx, %rax
	addq	$24, %rsp
	popq	%rbx
	popq	%rbp
	.cfi_def_cfa %rsp, 8
	retq
.Ltmp583:
.Lfunc_end100:
	.size	_ZNK3MPI4Comm9Recv_initEPviRKNS_8DatatypeEii, .Lfunc_end100-_ZNK3MPI4Comm9Recv_initEPviRKNS_8DatatypeEii
	.cfi_endproc
                                        # -- End function
	.weak	_ZNK3MPI4Comm8SendrecvEPKviRKNS_8DatatypeEiiPviS5_iiRNS_6StatusE # -- Begin function _ZNK3MPI4Comm8SendrecvEPKviRKNS_8DatatypeEiiPviS5_iiRNS_6StatusE
	.p2align	4, 0x90
	.type	_ZNK3MPI4Comm8SendrecvEPKviRKNS_8DatatypeEiiPviS5_iiRNS_6StatusE,@function
_ZNK3MPI4Comm8SendrecvEPKviRKNS_8DatatypeEiiPviS5_iiRNS_6StatusE: # @_ZNK3MPI4Comm8SendrecvEPKviRKNS_8DatatypeEiiPviS5_iiRNS_6StatusE
.Lfunc_begin101:
	.loc	17 207 0                # /usr/lib/x86_64-linux-gnu/openmpi/include/openmpi/ompi/mpi/cxx/comm_inln.h:207:0
	.cfi_startproc
# %bb.0:                                # %L.entry
	#DEBUG_VALUE: Sendrecv: <- $rdi
	#DEBUG_VALUE: Sendrecv:sendbuf <- $rsi
	#DEBUG_VALUE: Sendrecv:sendcount <- $edx
	#DEBUG_VALUE: Sendrecv:sendtype <- $rcx
	#DEBUG_VALUE: Sendrecv:dest <- $r8d
	#DEBUG_VALUE: Sendrecv:sendtag <- $r9d
	pushq	%rbp
	.cfi_def_cfa_offset 16
	.cfi_offset %rbp, -16
	movq	%rsp, %rbp
	.cfi_def_cfa_register %rbp
	pushq	%r15
	pushq	%r14
	pushq	%r12
	pushq	%rbx
	.cfi_offset %rbx, -48
	.cfi_offset %r12, -40
	.cfi_offset %r14, -32
	.cfi_offset %r15, -24
.Ltmp584:
	#DEBUG_VALUE:  <- $rdi
	#DEBUG_VALUE: sendbuf <- $rsi
	#DEBUG_VALUE: sendcount <- $edx
	#DEBUG_VALUE: sendtype <- $rcx
	#DEBUG_VALUE: dest <- $r8d
	#DEBUG_VALUE: sendtag <- $r9d
	movl	%r9d, %r10d
	movq	%rdi, %rax
	movq	16(%rbp), %r9
.Ltmp585:
	movl	24(%rbp), %r11d
	movl	40(%rbp), %r14d
	movl	48(%rbp), %r15d
	movq	56(%rbp), %rbx
	movq	32(%rbp), %r12
.Ltmp586:
	#DEBUG_VALUE: status <- [DW_OP_plus_uconst 56] [$rbp+0]
	#DEBUG_VALUE: Sendrecv:status <- [DW_OP_plus_uconst 56] [$rbp+0]
	#DEBUG_VALUE: recvtag <- [DW_OP_plus_uconst 48] [$rbp+0]
	#DEBUG_VALUE: Sendrecv:recvtag <- [DW_OP_plus_uconst 48] [$rbp+0]
	#DEBUG_VALUE: source <- [DW_OP_plus_uconst 40] [$rbp+0]
	#DEBUG_VALUE: Sendrecv:source <- [DW_OP_plus_uconst 40] [$rbp+0]
	#DEBUG_VALUE: recvtype <- [DW_OP_plus_uconst 32] [$rbp+0]
	#DEBUG_VALUE: Sendrecv:recvtype <- [DW_OP_plus_uconst 32] [$rbp+0]
	#DEBUG_VALUE: recvcount <- [DW_OP_plus_uconst 24] [$rbp+0]
	#DEBUG_VALUE: Sendrecv:recvcount <- [DW_OP_plus_uconst 24] [$rbp+0]
	#DEBUG_VALUE: recvbuf <- [DW_OP_plus_uconst 16] [$rbp+0]
	#DEBUG_VALUE: Sendrecv:recvbuf <- [DW_OP_plus_uconst 16] [$rbp+0]
	#DEBUG_VALUE: sendtag <- $r10d
	#DEBUG_VALUE: Sendrecv:sendtag <- $r10d
	#DEBUG_VALUE: dest <- $r8d
	#DEBUG_VALUE: Sendrecv:dest <- $r8d
	#DEBUG_VALUE: sendtype <- $rcx
	#DEBUG_VALUE: Sendrecv:sendtype <- $rcx
	#DEBUG_VALUE: sendcount <- $edx
	#DEBUG_VALUE: Sendrecv:sendcount <- $edx
	#DEBUG_VALUE: sendbuf <- $rsi
	#DEBUG_VALUE: Sendrecv:sendbuf <- $rsi
	#DEBUG_VALUE:  <- $rax
	#DEBUG_VALUE: Sendrecv: <- $rax
	.loc	17 90 1 prologue_end    # /usr/lib/x86_64-linux-gnu/openmpi/include/openmpi/ompi/mpi/cxx/comm_inln.h:90:1
	movq	8(%rcx), %rcx
.Ltmp587:
	addq	$8, %rbx
	movq	%rsi, %rdi
.Ltmp588:
	#DEBUG_VALUE: sendbuf <- $rdi
	#DEBUG_VALUE: Sendrecv:sendbuf <- $rdi
	movl	%edx, %esi
.Ltmp589:
	#DEBUG_VALUE: sendcount <- $esi
	#DEBUG_VALUE: Sendrecv:sendcount <- $esi
	movq	%rcx, %rdx
	movl	%r8d, %ecx
.Ltmp590:
	#DEBUG_VALUE: dest <- $ecx
	#DEBUG_VALUE: Sendrecv:dest <- $ecx
	movl	%r10d, %r8d
.Ltmp591:
	#DEBUG_VALUE: sendtag <- $r8d
	#DEBUG_VALUE: Sendrecv:sendtag <- $r8d
	pushq	%rbx
	pushq	8(%rax)
	pushq	%r15
	pushq	%r14
	pushq	8(%r12)
	pushq	%r11
	callq	MPI_Sendrecv
.Ltmp592:
	addq	$48, %rsp
	.loc	17 213 1                # /usr/lib/x86_64-linux-gnu/openmpi/include/openmpi/ompi/mpi/cxx/comm_inln.h:213:1
	popq	%rbx
	popq	%r12
	popq	%r14
	popq	%r15
	popq	%rbp
	.cfi_def_cfa %rsp, 8
	retq
.Ltmp593:
.Lfunc_end101:
	.size	_ZNK3MPI4Comm8SendrecvEPKviRKNS_8DatatypeEiiPviS5_iiRNS_6StatusE, .Lfunc_end101-_ZNK3MPI4Comm8SendrecvEPKviRKNS_8DatatypeEiiPviS5_iiRNS_6StatusE
	.cfi_endproc
                                        # -- End function
	.weak	_ZNK3MPI4Comm8SendrecvEPKviRKNS_8DatatypeEiiPviS5_ii # -- Begin function _ZNK3MPI4Comm8SendrecvEPKviRKNS_8DatatypeEiiPviS5_ii
	.p2align	4, 0x90
	.type	_ZNK3MPI4Comm8SendrecvEPKviRKNS_8DatatypeEiiPviS5_ii,@function
_ZNK3MPI4Comm8SendrecvEPKviRKNS_8DatatypeEiiPviS5_ii: # @_ZNK3MPI4Comm8SendrecvEPKviRKNS_8DatatypeEiiPviS5_ii
.Lfunc_begin102:
	.loc	17 221 0                # /usr/lib/x86_64-linux-gnu/openmpi/include/openmpi/ompi/mpi/cxx/comm_inln.h:221:0
	.cfi_startproc
# %bb.0:                                # %L.entry
	#DEBUG_VALUE: Sendrecv: <- $rdi
	#DEBUG_VALUE: Sendrecv:sendbuf <- $rsi
	#DEBUG_VALUE: Sendrecv:sendcount <- $edx
	#DEBUG_VALUE: Sendrecv:sendtype <- $rcx
	#DEBUG_VALUE: Sendrecv:dest <- $r8d
	#DEBUG_VALUE: Sendrecv:sendtag <- $r9d
	pushq	%rbp
	.cfi_def_cfa_offset 16
	.cfi_offset %rbp, -16
	movq	%rsp, %rbp
	.cfi_def_cfa_register %rbp
	pushq	%r15
	pushq	%r14
	pushq	%rbx
	pushq	%rax
	.cfi_offset %rbx, -40
	.cfi_offset %r14, -32
	.cfi_offset %r15, -24
.Ltmp594:
	#DEBUG_VALUE:  <- $rdi
	#DEBUG_VALUE: sendbuf <- $rsi
	#DEBUG_VALUE: sendcount <- $edx
	#DEBUG_VALUE: sendtype <- $rcx
	#DEBUG_VALUE: dest <- $r8d
	#DEBUG_VALUE: sendtag <- $r9d
	movl	%r9d, %r10d
	movq	%rdi, %rax
	movq	16(%rbp), %r9
.Ltmp595:
	movl	24(%rbp), %r11d
	movl	40(%rbp), %r14d
	movl	48(%rbp), %ebx
	movq	32(%rbp), %r15
.Ltmp596:
	#DEBUG_VALUE: recvtag <- [DW_OP_plus_uconst 48] [$rbp+0]
	#DEBUG_VALUE: Sendrecv:recvtag <- [DW_OP_plus_uconst 48] [$rbp+0]
	#DEBUG_VALUE: source <- [DW_OP_plus_uconst 40] [$rbp+0]
	#DEBUG_VALUE: Sendrecv:source <- [DW_OP_plus_uconst 40] [$rbp+0]
	#DEBUG_VALUE: recvtype <- [DW_OP_plus_uconst 32] [$rbp+0]
	#DEBUG_VALUE: Sendrecv:recvtype <- [DW_OP_plus_uconst 32] [$rbp+0]
	#DEBUG_VALUE: recvcount <- [DW_OP_plus_uconst 24] [$rbp+0]
	#DEBUG_VALUE: Sendrecv:recvcount <- [DW_OP_plus_uconst 24] [$rbp+0]
	#DEBUG_VALUE: recvbuf <- [DW_OP_plus_uconst 16] [$rbp+0]
	#DEBUG_VALUE: Sendrecv:recvbuf <- [DW_OP_plus_uconst 16] [$rbp+0]
	#DEBUG_VALUE: sendtag <- $r10d
	#DEBUG_VALUE: Sendrecv:sendtag <- $r10d
	#DEBUG_VALUE: dest <- $r8d
	#DEBUG_VALUE: Sendrecv:dest <- $r8d
	#DEBUG_VALUE: sendtype <- $rcx
	#DEBUG_VALUE: Sendrecv:sendtype <- $rcx
	#DEBUG_VALUE: sendcount <- $edx
	#DEBUG_VALUE: Sendrecv:sendcount <- $edx
	#DEBUG_VALUE: sendbuf <- $rsi
	#DEBUG_VALUE: Sendrecv:sendbuf <- $rsi
	#DEBUG_VALUE:  <- $rax
	#DEBUG_VALUE: Sendrecv: <- $rax
	.loc	17 90 1 prologue_end    # /usr/lib/x86_64-linux-gnu/openmpi/include/openmpi/ompi/mpi/cxx/comm_inln.h:90:1
	movq	8(%rcx), %rcx
.Ltmp597:
	movq	%rsi, %rdi
.Ltmp598:
	#DEBUG_VALUE: sendbuf <- $rdi
	#DEBUG_VALUE: Sendrecv:sendbuf <- $rdi
	movl	%edx, %esi
.Ltmp599:
	#DEBUG_VALUE: sendcount <- $esi
	#DEBUG_VALUE: Sendrecv:sendcount <- $esi
	movq	%rcx, %rdx
	movl	%r8d, %ecx
.Ltmp600:
	#DEBUG_VALUE: dest <- $ecx
	#DEBUG_VALUE: Sendrecv:dest <- $ecx
	movl	%r10d, %r8d
.Ltmp601:
	#DEBUG_VALUE: sendtag <- $r8d
	#DEBUG_VALUE: Sendrecv:sendtag <- $r8d
	pushq	$0
	pushq	8(%rax)
	pushq	%rbx
	pushq	%r14
	pushq	8(%r15)
	pushq	%r11
	callq	MPI_Sendrecv
.Ltmp602:
	.loc	17 227 1                # /usr/lib/x86_64-linux-gnu/openmpi/include/openmpi/ompi/mpi/cxx/comm_inln.h:227:1
	addq	$56, %rsp
	popq	%rbx
	popq	%r14
	popq	%r15
	popq	%rbp
	.cfi_def_cfa %rsp, 8
	retq
.Ltmp603:
.Lfunc_end102:
	.size	_ZNK3MPI4Comm8SendrecvEPKviRKNS_8DatatypeEiiPviS5_ii, .Lfunc_end102-_ZNK3MPI4Comm8SendrecvEPKviRKNS_8DatatypeEiiPviS5_ii
	.cfi_endproc
                                        # -- End function
	.weak	_ZNK3MPI4Comm16Sendrecv_replaceEPviRKNS_8DatatypeEiiiiRNS_6StatusE # -- Begin function _ZNK3MPI4Comm16Sendrecv_replaceEPviRKNS_8DatatypeEiiiiRNS_6StatusE
	.p2align	4, 0x90
	.type	_ZNK3MPI4Comm16Sendrecv_replaceEPviRKNS_8DatatypeEiiiiRNS_6StatusE,@function
_ZNK3MPI4Comm16Sendrecv_replaceEPviRKNS_8DatatypeEiiiiRNS_6StatusE: # @_ZNK3MPI4Comm16Sendrecv_replaceEPviRKNS_8DatatypeEiiiiRNS_6StatusE
.Lfunc_begin103:
	.loc	17 234 0                # /usr/lib/x86_64-linux-gnu/openmpi/include/openmpi/ompi/mpi/cxx/comm_inln.h:234:0
	.cfi_startproc
# %bb.0:                                # %L.entry
	#DEBUG_VALUE: Sendrecv_replace: <- $rdi
	#DEBUG_VALUE: Sendrecv_replace:buf <- $rsi
	#DEBUG_VALUE: Sendrecv_replace:count <- $edx
	#DEBUG_VALUE: Sendrecv_replace:datatype <- $rcx
	#DEBUG_VALUE: Sendrecv_replace:dest <- $r8d
	#DEBUG_VALUE: Sendrecv_replace:sendtag <- $r9d
	pushq	%rbp
	.cfi_def_cfa_offset 16
	.cfi_offset %rbp, -16
	movq	%rsp, %rbp
	.cfi_def_cfa_register %rbp
	pushq	%rbx
	pushq	%rax
	.cfi_offset %rbx, -24
.Ltmp604:
	#DEBUG_VALUE:  <- $rdi
	#DEBUG_VALUE: buf <- $rsi
	#DEBUG_VALUE: count <- $edx
	#DEBUG_VALUE: datatype <- $rcx
	#DEBUG_VALUE: dest <- $r8d
	#DEBUG_VALUE: sendtag <- $r9d
	movl	%r9d, %r10d
	movq	%rdi, %rax
	movl	16(%rbp), %r9d
.Ltmp605:
	movl	24(%rbp), %r11d
	movq	32(%rbp), %rbx
.Ltmp606:
	#DEBUG_VALUE: status <- [DW_OP_plus_uconst 32] [$rbp+0]
	#DEBUG_VALUE: Sendrecv_replace:status <- [DW_OP_plus_uconst 32] [$rbp+0]
	#DEBUG_VALUE: recvtag <- [DW_OP_plus_uconst 24] [$rbp+0]
	#DEBUG_VALUE: Sendrecv_replace:recvtag <- [DW_OP_plus_uconst 24] [$rbp+0]
	#DEBUG_VALUE: source <- [DW_OP_plus_uconst 16] [$rbp+0]
	#DEBUG_VALUE: Sendrecv_replace:source <- [DW_OP_plus_uconst 16] [$rbp+0]
	#DEBUG_VALUE: sendtag <- $r10d
	#DEBUG_VALUE: Sendrecv_replace:sendtag <- $r10d
	#DEBUG_VALUE: dest <- $r8d
	#DEBUG_VALUE: Sendrecv_replace:dest <- $r8d
	#DEBUG_VALUE: datatype <- $rcx
	#DEBUG_VALUE: Sendrecv_replace:datatype <- $rcx
	#DEBUG_VALUE: count <- $edx
	#DEBUG_VALUE: Sendrecv_replace:count <- $edx
	#DEBUG_VALUE: buf <- $rsi
	#DEBUG_VALUE: Sendrecv_replace:buf <- $rsi
	#DEBUG_VALUE:  <- $rax
	#DEBUG_VALUE: Sendrecv_replace: <- $rax
	.loc	17 90 1 prologue_end    # /usr/lib/x86_64-linux-gnu/openmpi/include/openmpi/ompi/mpi/cxx/comm_inln.h:90:1
	movq	8(%rcx), %rcx
.Ltmp607:
	addq	$8, %rbx
	subq	$8, %rsp
	movq	%rsi, %rdi
.Ltmp608:
	#DEBUG_VALUE: buf <- $rdi
	#DEBUG_VALUE: Sendrecv_replace:buf <- $rdi
	movl	%edx, %esi
.Ltmp609:
	#DEBUG_VALUE: count <- $esi
	#DEBUG_VALUE: Sendrecv_replace:count <- $esi
	movq	%rcx, %rdx
	movl	%r8d, %ecx
.Ltmp610:
	#DEBUG_VALUE: dest <- $ecx
	#DEBUG_VALUE: Sendrecv_replace:dest <- $ecx
	movl	%r10d, %r8d
.Ltmp611:
	#DEBUG_VALUE: sendtag <- $r8d
	#DEBUG_VALUE: Sendrecv_replace:sendtag <- $r8d
	pushq	%rbx
	pushq	8(%rax)
	pushq	%r11
	callq	MPI_Sendrecv_replace
.Ltmp612:
	.loc	17 238 1                # /usr/lib/x86_64-linux-gnu/openmpi/include/openmpi/ompi/mpi/cxx/comm_inln.h:238:1
	addq	$40, %rsp
	popq	%rbx
	popq	%rbp
	.cfi_def_cfa %rsp, 8
	retq
.Ltmp613:
.Lfunc_end103:
	.size	_ZNK3MPI4Comm16Sendrecv_replaceEPviRKNS_8DatatypeEiiiiRNS_6StatusE, .Lfunc_end103-_ZNK3MPI4Comm16Sendrecv_replaceEPviRKNS_8DatatypeEiiiiRNS_6StatusE
	.cfi_endproc
                                        # -- End function
	.weak	_ZNK3MPI4Comm16Sendrecv_replaceEPviRKNS_8DatatypeEiiii # -- Begin function _ZNK3MPI4Comm16Sendrecv_replaceEPviRKNS_8DatatypeEiiii
	.p2align	4, 0x90
	.type	_ZNK3MPI4Comm16Sendrecv_replaceEPviRKNS_8DatatypeEiiii,@function
_ZNK3MPI4Comm16Sendrecv_replaceEPviRKNS_8DatatypeEiiii: # @_ZNK3MPI4Comm16Sendrecv_replaceEPviRKNS_8DatatypeEiiii
.Lfunc_begin104:
	.loc	17 245 0                # /usr/lib/x86_64-linux-gnu/openmpi/include/openmpi/ompi/mpi/cxx/comm_inln.h:245:0
	.cfi_startproc
# %bb.0:                                # %L.entry
	#DEBUG_VALUE: Sendrecv_replace: <- $rdi
	#DEBUG_VALUE: Sendrecv_replace:buf <- $rsi
	#DEBUG_VALUE: Sendrecv_replace:count <- $edx
	#DEBUG_VALUE: Sendrecv_replace:datatype <- $rcx
	#DEBUG_VALUE: Sendrecv_replace:dest <- $r8d
	#DEBUG_VALUE: Sendrecv_replace:sendtag <- $r9d
	pushq	%rbp
	.cfi_def_cfa_offset 16
	.cfi_offset %rbp, -16
	movq	%rsp, %rbp
	.cfi_def_cfa_register %rbp
.Ltmp614:
	#DEBUG_VALUE:  <- $rdi
	#DEBUG_VALUE: buf <- $rsi
	#DEBUG_VALUE: count <- $edx
	#DEBUG_VALUE: datatype <- $rcx
	#DEBUG_VALUE: dest <- $r8d
	#DEBUG_VALUE: sendtag <- $r9d
	movl	%r9d, %r10d
	movq	%rdi, %rax
	movl	16(%rbp), %r9d
.Ltmp615:
	movl	24(%rbp), %r11d
.Ltmp616:
	#DEBUG_VALUE: recvtag <- [DW_OP_plus_uconst 24] [$rbp+0]
	#DEBUG_VALUE: Sendrecv_replace:recvtag <- [DW_OP_plus_uconst 24] [$rbp+0]
	#DEBUG_VALUE: source <- [DW_OP_plus_uconst 16] [$rbp+0]
	#DEBUG_VALUE: Sendrecv_replace:source <- [DW_OP_plus_uconst 16] [$rbp+0]
	#DEBUG_VALUE: sendtag <- $r10d
	#DEBUG_VALUE: Sendrecv_replace:sendtag <- $r10d
	#DEBUG_VALUE: dest <- $r8d
	#DEBUG_VALUE: Sendrecv_replace:dest <- $r8d
	#DEBUG_VALUE: datatype <- $rcx
	#DEBUG_VALUE: Sendrecv_replace:datatype <- $rcx
	#DEBUG_VALUE: count <- $edx
	#DEBUG_VALUE: Sendrecv_replace:count <- $edx
	#DEBUG_VALUE: buf <- $rsi
	#DEBUG_VALUE: Sendrecv_replace:buf <- $rsi
	#DEBUG_VALUE:  <- $rax
	#DEBUG_VALUE: Sendrecv_replace: <- $rax
	.loc	17 90 1 prologue_end    # /usr/lib/x86_64-linux-gnu/openmpi/include/openmpi/ompi/mpi/cxx/comm_inln.h:90:1
	movq	8(%rcx), %rcx
.Ltmp617:
	subq	$8, %rsp
	movq	%rsi, %rdi
.Ltmp618:
	#DEBUG_VALUE: buf <- $rdi
	#DEBUG_VALUE: Sendrecv_replace:buf <- $rdi
	movl	%edx, %esi
.Ltmp619:
	#DEBUG_VALUE: count <- $esi
	#DEBUG_VALUE: Sendrecv_replace:count <- $esi
	movq	%rcx, %rdx
	movl	%r8d, %ecx
.Ltmp620:
	#DEBUG_VALUE: dest <- $ecx
	#DEBUG_VALUE: Sendrecv_replace:dest <- $ecx
	movl	%r10d, %r8d
.Ltmp621:
	#DEBUG_VALUE: sendtag <- $r8d
	#DEBUG_VALUE: Sendrecv_replace:sendtag <- $r8d
	pushq	$0
	pushq	8(%rax)
	pushq	%r11
	callq	MPI_Sendrecv_replace
.Ltmp622:
	addq	$32, %rsp
	.loc	17 249 1                # /usr/lib/x86_64-linux-gnu/openmpi/include/openmpi/ompi/mpi/cxx/comm_inln.h:249:1
	popq	%rbp
	.cfi_def_cfa %rsp, 8
	retq
.Ltmp623:
.Lfunc_end104:
	.size	_ZNK3MPI4Comm16Sendrecv_replaceEPviRKNS_8DatatypeEiiii, .Lfunc_end104-_ZNK3MPI4Comm16Sendrecv_replaceEPviRKNS_8DatatypeEiiii
	.cfi_endproc
                                        # -- End function
	.weak	_ZNK3MPI4Comm9Get_groupEv # -- Begin function _ZNK3MPI4Comm9Get_groupEv
	.p2align	4, 0x90
	.type	_ZNK3MPI4Comm9Get_groupEv,@function
_ZNK3MPI4Comm9Get_groupEv:              # @_ZNK3MPI4Comm9Get_groupEv
.Lfunc_begin105:
	.loc	17 257 0                # /usr/lib/x86_64-linux-gnu/openmpi/include/openmpi/ompi/mpi/cxx/comm_inln.h:257:0
	.cfi_startproc
# %bb.0:                                # %L.entry
	#DEBUG_VALUE: Get_group: <- $rsi
	pushq	%rbp
	.cfi_def_cfa_offset 16
	.cfi_offset %rbp, -16
	movq	%rsp, %rbp
	.cfi_def_cfa_register %rbp
	pushq	%rbx
	pushq	%rax
	.cfi_offset %rbx, -24
	movq	%rdi, %rbx
.Ltmp624:
	#DEBUG_VALUE:  <- $rsi
	#DEBUG_VALUE: Get_group: <- $rsi
	.loc	17 259 1 prologue_end   # /usr/lib/x86_64-linux-gnu/openmpi/include/openmpi/ompi/mpi/cxx/comm_inln.h:259:1
	movq	8(%rsi), %rdi
.Ltmp625:
	#DEBUG_VALUE: group <- [DW_OP_constu 16, DW_OP_minus, DW_OP_deref] $rbp
	.loc	17 0 1 is_stmt 0        # /usr/lib/x86_64-linux-gnu/openmpi/include/openmpi/ompi/mpi/cxx/comm_inln.h:0:1
	leaq	-16(%rbp), %rsi
.Ltmp626:
	.loc	17 259 1                # /usr/lib/x86_64-linux-gnu/openmpi/include/openmpi/ompi/mpi/cxx/comm_inln.h:259:1
	callq	MPI_Comm_group
	.loc	17 260 1 is_stmt 1      # /usr/lib/x86_64-linux-gnu/openmpi/include/openmpi/ompi/mpi/cxx/comm_inln.h:260:1
	movq	-16(%rbp), %rax
.Ltmp627:
	#DEBUG_VALUE: group <- undef
	movq	$_ZTVN3MPI5GroupE+16, (%rbx)
	.loc	17 62 1                 # /usr/lib/x86_64-linux-gnu/openmpi/include/openmpi/ompi/mpi/cxx/comm_inln.h:62:1
	movq	%rax, 8(%rbx)
	.loc	17 261 1                # /usr/lib/x86_64-linux-gnu/openmpi/include/openmpi/ompi/mpi/cxx/comm_inln.h:261:1
	movq	%rbx, %rax
	addq	$8, %rsp
	popq	%rbx
	popq	%rbp
	.cfi_def_cfa %rsp, 8
	retq
.Ltmp628:
.Lfunc_end105:
	.size	_ZNK3MPI4Comm9Get_groupEv, .Lfunc_end105-_ZNK3MPI4Comm9Get_groupEv
	.cfi_endproc
                                        # -- End function
	.weak	_ZNK3MPI4Comm8Get_sizeEv # -- Begin function _ZNK3MPI4Comm8Get_sizeEv
	.p2align	4, 0x90
	.type	_ZNK3MPI4Comm8Get_sizeEv,@function
_ZNK3MPI4Comm8Get_sizeEv:               # @_ZNK3MPI4Comm8Get_sizeEv
.Lfunc_begin106:
	.loc	17 265 0                # /usr/lib/x86_64-linux-gnu/openmpi/include/openmpi/ompi/mpi/cxx/comm_inln.h:265:0
	.cfi_startproc
# %bb.0:                                # %L.entry
	#DEBUG_VALUE: Get_size: <- $rdi
	#DEBUG_VALUE: Get_size: <- $rdi
	pushq	%rbp
	.cfi_def_cfa_offset 16
	.cfi_offset %rbp, -16
	movq	%rsp, %rbp
	.cfi_def_cfa_register %rbp
	subq	$16, %rsp
.Ltmp629:
	#DEBUG_VALUE:  <- $rdi
	.loc	17 267 1 prologue_end   # /usr/lib/x86_64-linux-gnu/openmpi/include/openmpi/ompi/mpi/cxx/comm_inln.h:267:1
	movq	8(%rdi), %rdi
.Ltmp630:
	#DEBUG_VALUE: size <- [DW_OP_constu 4, DW_OP_minus, DW_OP_deref] $rbp
	.loc	17 0 1 is_stmt 0        # /usr/lib/x86_64-linux-gnu/openmpi/include/openmpi/ompi/mpi/cxx/comm_inln.h:0:1
	leaq	-4(%rbp), %rsi
	.loc	17 267 1                # /usr/lib/x86_64-linux-gnu/openmpi/include/openmpi/ompi/mpi/cxx/comm_inln.h:267:1
	callq	MPI_Comm_size
	.loc	17 268 1 is_stmt 1      # /usr/lib/x86_64-linux-gnu/openmpi/include/openmpi/ompi/mpi/cxx/comm_inln.h:268:1
	movl	-4(%rbp), %eax
.Ltmp631:
	#DEBUG_VALUE: size <- $eax
	addq	$16, %rsp
	popq	%rbp
	.cfi_def_cfa %rsp, 8
	retq
.Ltmp632:
.Lfunc_end106:
	.size	_ZNK3MPI4Comm8Get_sizeEv, .Lfunc_end106-_ZNK3MPI4Comm8Get_sizeEv
	.cfi_endproc
                                        # -- End function
	.weak	_ZNK3MPI4Comm8Get_rankEv # -- Begin function _ZNK3MPI4Comm8Get_rankEv
	.p2align	4, 0x90
	.type	_ZNK3MPI4Comm8Get_rankEv,@function
_ZNK3MPI4Comm8Get_rankEv:               # @_ZNK3MPI4Comm8Get_rankEv
.Lfunc_begin107:
	.loc	17 273 0                # /usr/lib/x86_64-linux-gnu/openmpi/include/openmpi/ompi/mpi/cxx/comm_inln.h:273:0
	.cfi_startproc
# %bb.0:                                # %L.entry
	#DEBUG_VALUE: Get_rank: <- $rdi
	#DEBUG_VALUE: Get_rank: <- $rdi
	pushq	%rbp
	.cfi_def_cfa_offset 16
	.cfi_offset %rbp, -16
	movq	%rsp, %rbp
	.cfi_def_cfa_register %rbp
	subq	$16, %rsp
.Ltmp633:
	#DEBUG_VALUE:  <- $rdi
	.loc	17 275 1 prologue_end   # /usr/lib/x86_64-linux-gnu/openmpi/include/openmpi/ompi/mpi/cxx/comm_inln.h:275:1
	movq	8(%rdi), %rdi
.Ltmp634:
	#DEBUG_VALUE: myrank <- [DW_OP_constu 4, DW_OP_minus, DW_OP_deref] $rbp
	.loc	17 0 1 is_stmt 0        # /usr/lib/x86_64-linux-gnu/openmpi/include/openmpi/ompi/mpi/cxx/comm_inln.h:0:1
	leaq	-4(%rbp), %rsi
	.loc	17 275 1                # /usr/lib/x86_64-linux-gnu/openmpi/include/openmpi/ompi/mpi/cxx/comm_inln.h:275:1
	callq	MPI_Comm_rank
	.loc	17 276 1 is_stmt 1      # /usr/lib/x86_64-linux-gnu/openmpi/include/openmpi/ompi/mpi/cxx/comm_inln.h:276:1
	movl	-4(%rbp), %eax
.Ltmp635:
	#DEBUG_VALUE: myrank <- $eax
	addq	$16, %rsp
	popq	%rbp
	.cfi_def_cfa %rsp, 8
	retq
.Ltmp636:
.Lfunc_end107:
	.size	_ZNK3MPI4Comm8Get_rankEv, .Lfunc_end107-_ZNK3MPI4Comm8Get_rankEv
	.cfi_endproc
                                        # -- End function
	.weak	_ZN3MPI4Comm4FreeEv     # -- Begin function _ZN3MPI4Comm4FreeEv
	.p2align	4, 0x90
	.type	_ZN3MPI4Comm4FreeEv,@function
_ZN3MPI4Comm4FreeEv:                    # @_ZN3MPI4Comm4FreeEv
.Lfunc_begin108:
	.loc	17 290 0                # /usr/lib/x86_64-linux-gnu/openmpi/include/openmpi/ompi/mpi/cxx/comm_inln.h:290:0
	.cfi_startproc
# %bb.0:                                # %L.entry
	#DEBUG_VALUE: Free: <- $rdi
	#DEBUG_VALUE: Free: <- $rdi
	pushq	%rbp
	.cfi_def_cfa_offset 16
	.cfi_offset %rbp, -16
	movq	%rsp, %rbp
	.cfi_def_cfa_register %rbp
.Ltmp637:
	#DEBUG_VALUE:  <- $rdi
	#DEBUG_VALUE:  <- $rdi
	.loc	17 291 1 prologue_end   # /usr/lib/x86_64-linux-gnu/openmpi/include/openmpi/ompi/mpi/cxx/comm_inln.h:291:1
	addq	$8, %rdi
.Ltmp638:
	popq	%rbp
	.cfi_def_cfa %rsp, 8
	jmp	MPI_Comm_free           # TAILCALL
.Ltmp639:
.Lfunc_end108:
	.size	_ZN3MPI4Comm4FreeEv, .Lfunc_end108-_ZN3MPI4Comm4FreeEv
	.cfi_endproc
                                        # -- End function
	.weak	_ZNK3MPI4Comm8Is_interEv # -- Begin function _ZNK3MPI4Comm8Is_interEv
	.p2align	4, 0x90
	.type	_ZNK3MPI4Comm8Is_interEv,@function
_ZNK3MPI4Comm8Is_interEv:               # @_ZNK3MPI4Comm8Is_interEv
.Lfunc_begin109:
	.loc	17 296 0                # /usr/lib/x86_64-linux-gnu/openmpi/include/openmpi/ompi/mpi/cxx/comm_inln.h:296:0
	.cfi_startproc
# %bb.0:                                # %L.entry
	#DEBUG_VALUE: Is_inter: <- $rdi
	#DEBUG_VALUE: Is_inter: <- $rdi
	pushq	%rbp
	.cfi_def_cfa_offset 16
	.cfi_offset %rbp, -16
	movq	%rsp, %rbp
	.cfi_def_cfa_register %rbp
	subq	$16, %rsp
.Ltmp640:
	#DEBUG_VALUE:  <- $rdi
	.loc	17 298 1 prologue_end   # /usr/lib/x86_64-linux-gnu/openmpi/include/openmpi/ompi/mpi/cxx/comm_inln.h:298:1
	movq	8(%rdi), %rdi
.Ltmp641:
	#DEBUG_VALUE: t <- [DW_OP_constu 4, DW_OP_minus, DW_OP_deref] $rbp
	.loc	17 0 1 is_stmt 0        # /usr/lib/x86_64-linux-gnu/openmpi/include/openmpi/ompi/mpi/cxx/comm_inln.h:0:1
	leaq	-4(%rbp), %rsi
	.loc	17 298 1                # /usr/lib/x86_64-linux-gnu/openmpi/include/openmpi/ompi/mpi/cxx/comm_inln.h:298:1
	callq	MPI_Comm_test_inter
.Ltmp642:
	#DEBUG_VALUE: t <- undef
	.loc	17 299 1 is_stmt 1      # /usr/lib/x86_64-linux-gnu/openmpi/include/openmpi/ompi/mpi/cxx/comm_inln.h:299:1
	cmpl	$0, -4(%rbp)
	setne	%al
	addq	$16, %rsp
	popq	%rbp
	.cfi_def_cfa %rsp, 8
	retq
.Ltmp643:
.Lfunc_end109:
	.size	_ZNK3MPI4Comm8Is_interEv, .Lfunc_end109-_ZNK3MPI4Comm8Is_interEv
	.cfi_endproc
                                        # -- End function
	.weak	_ZNK3MPI4Comm7BarrierEv # -- Begin function _ZNK3MPI4Comm7BarrierEv
	.p2align	4, 0x90
	.type	_ZNK3MPI4Comm7BarrierEv,@function
_ZNK3MPI4Comm7BarrierEv:                # @_ZNK3MPI4Comm7BarrierEv
.Lfunc_begin110:
	.loc	17 309 0                # /usr/lib/x86_64-linux-gnu/openmpi/include/openmpi/ompi/mpi/cxx/comm_inln.h:309:0
	.cfi_startproc
# %bb.0:                                # %L.entry
	#DEBUG_VALUE: Barrier: <- $rdi
	#DEBUG_VALUE: Barrier: <- $rdi
	pushq	%rbp
	.cfi_def_cfa_offset 16
	.cfi_offset %rbp, -16
	movq	%rsp, %rbp
	.cfi_def_cfa_register %rbp
.Ltmp644:
	#DEBUG_VALUE:  <- $rdi
	#DEBUG_VALUE:  <- $rdi
	.loc	17 310 1 prologue_end   # /usr/lib/x86_64-linux-gnu/openmpi/include/openmpi/ompi/mpi/cxx/comm_inln.h:310:1
	movq	8(%rdi), %rdi
.Ltmp645:
	popq	%rbp
	.cfi_def_cfa %rsp, 8
	jmp	MPI_Barrier             # TAILCALL
.Ltmp646:
.Lfunc_end110:
	.size	_ZNK3MPI4Comm7BarrierEv, .Lfunc_end110-_ZNK3MPI4Comm7BarrierEv
	.cfi_endproc
                                        # -- End function
	.weak	_ZNK3MPI4Comm5BcastEPviRKNS_8DatatypeEi # -- Begin function _ZNK3MPI4Comm5BcastEPviRKNS_8DatatypeEi
	.p2align	4, 0x90
	.type	_ZNK3MPI4Comm5BcastEPviRKNS_8DatatypeEi,@function
_ZNK3MPI4Comm5BcastEPviRKNS_8DatatypeEi: # @_ZNK3MPI4Comm5BcastEPviRKNS_8DatatypeEi
.Lfunc_begin111:
	.loc	17 316 0                # /usr/lib/x86_64-linux-gnu/openmpi/include/openmpi/ompi/mpi/cxx/comm_inln.h:316:0
	.cfi_startproc
# %bb.0:                                # %L.entry
	#DEBUG_VALUE: Bcast: <- $rdi
	#DEBUG_VALUE: Bcast:buffer <- $rsi
	#DEBUG_VALUE: Bcast:count <- $edx
	#DEBUG_VALUE: Bcast:datatype <- $rcx
	#DEBUG_VALUE: Bcast:root <- $r8d
	pushq	%rbp
	.cfi_def_cfa_offset 16
	.cfi_offset %rbp, -16
	movq	%rsp, %rbp
	.cfi_def_cfa_register %rbp
.Ltmp647:
	#DEBUG_VALUE:  <- $rdi
	#DEBUG_VALUE: buffer <- $rsi
	#DEBUG_VALUE: count <- $edx
	#DEBUG_VALUE: datatype <- $rcx
	#DEBUG_VALUE: root <- $r8d
	movl	%r8d, %r9d
.Ltmp648:
	#DEBUG_VALUE: root <- $r9d
	#DEBUG_VALUE: Bcast:root <- $r9d
	#DEBUG_VALUE: datatype <- $rcx
	#DEBUG_VALUE: Bcast:datatype <- $rcx
	#DEBUG_VALUE: count <- $edx
	#DEBUG_VALUE: Bcast:count <- $edx
	#DEBUG_VALUE: buffer <- $rsi
	#DEBUG_VALUE: Bcast:buffer <- $rsi
	#DEBUG_VALUE:  <- $rdi
	#DEBUG_VALUE: Bcast: <- $rdi
	.loc	17 90 1 prologue_end    # /usr/lib/x86_64-linux-gnu/openmpi/include/openmpi/ompi/mpi/cxx/comm_inln.h:90:1
	movq	8(%rcx), %rax
	movq	8(%rdi), %r8
	movq	%rsi, %rdi
.Ltmp649:
	#DEBUG_VALUE: buffer <- $rdi
	#DEBUG_VALUE: Bcast:buffer <- $rdi
	movl	%edx, %esi
.Ltmp650:
	#DEBUG_VALUE: count <- $esi
	#DEBUG_VALUE: Bcast:count <- $esi
	movq	%rax, %rdx
	movl	%r9d, %ecx
.Ltmp651:
	#DEBUG_VALUE: root <- $ecx
	#DEBUG_VALUE: Bcast:root <- $ecx
	popq	%rbp
	.cfi_def_cfa %rsp, 8
	jmp	MPI_Bcast               # TAILCALL
.Ltmp652:
.Lfunc_end111:
	.size	_ZNK3MPI4Comm5BcastEPviRKNS_8DatatypeEi, .Lfunc_end111-_ZNK3MPI4Comm5BcastEPviRKNS_8DatatypeEi
	.cfi_endproc
                                        # -- End function
	.weak	_ZNK3MPI4Comm6GatherEPKviRKNS_8DatatypeEPviS5_i # -- Begin function _ZNK3MPI4Comm6GatherEPKviRKNS_8DatatypeEPviS5_i
	.p2align	4, 0x90
	.type	_ZNK3MPI4Comm6GatherEPKviRKNS_8DatatypeEPviS5_i,@function
_ZNK3MPI4Comm6GatherEPKviRKNS_8DatatypeEPviS5_i: # @_ZNK3MPI4Comm6GatherEPKviRKNS_8DatatypeEPviS5_i
.Lfunc_begin112:
	.loc	17 325 0                # /usr/lib/x86_64-linux-gnu/openmpi/include/openmpi/ompi/mpi/cxx/comm_inln.h:325:0
	.cfi_startproc
# %bb.0:                                # %L.entry
	#DEBUG_VALUE: Gather: <- $rdi
	#DEBUG_VALUE: Gather:sendbuf <- $rsi
	#DEBUG_VALUE: Gather:sendcount <- $edx
	#DEBUG_VALUE: Gather:sendtype <- $rcx
	#DEBUG_VALUE: Gather:recvbuf <- $r8
	#DEBUG_VALUE: Gather:recvcount <- $r9d
	pushq	%rbp
	.cfi_def_cfa_offset 16
	.cfi_offset %rbp, -16
	movq	%rsp, %rbp
	.cfi_def_cfa_register %rbp
.Ltmp653:
	#DEBUG_VALUE:  <- $rdi
	#DEBUG_VALUE: sendbuf <- $rsi
	#DEBUG_VALUE: sendcount <- $edx
	#DEBUG_VALUE: sendtype <- $rcx
	#DEBUG_VALUE: recvbuf <- $r8
	#DEBUG_VALUE: recvcount <- $r9d
	movl	%r9d, %r10d
	movq	%rdi, %rax
	movl	24(%rbp), %r11d
	movq	16(%rbp), %rdi
.Ltmp654:
	#DEBUG_VALUE: root <- [DW_OP_plus_uconst 24] [$rbp+0]
	#DEBUG_VALUE: Gather:root <- [DW_OP_plus_uconst 24] [$rbp+0]
	#DEBUG_VALUE: recvtype <- [DW_OP_plus_uconst 16] [$rbp+0]
	#DEBUG_VALUE: Gather:recvtype <- [DW_OP_plus_uconst 16] [$rbp+0]
	#DEBUG_VALUE: recvcount <- $r10d
	#DEBUG_VALUE: Gather:recvcount <- $r10d
	#DEBUG_VALUE: recvbuf <- $r8
	#DEBUG_VALUE: Gather:recvbuf <- $r8
	#DEBUG_VALUE: sendtype <- $rcx
	#DEBUG_VALUE: Gather:sendtype <- $rcx
	#DEBUG_VALUE: sendcount <- $edx
	#DEBUG_VALUE: Gather:sendcount <- $edx
	#DEBUG_VALUE: sendbuf <- $rsi
	#DEBUG_VALUE: Gather:sendbuf <- $rsi
	#DEBUG_VALUE:  <- $rax
	#DEBUG_VALUE: Gather: <- $rax
	.loc	17 90 1 prologue_end    # /usr/lib/x86_64-linux-gnu/openmpi/include/openmpi/ompi/mpi/cxx/comm_inln.h:90:1
	movq	8(%rcx), %rcx
.Ltmp655:
	movq	8(%rdi), %r9
	movq	%rsi, %rdi
.Ltmp656:
	#DEBUG_VALUE: sendbuf <- $rdi
	#DEBUG_VALUE: Gather:sendbuf <- $rdi
	movl	%edx, %esi
.Ltmp657:
	#DEBUG_VALUE: sendcount <- $esi
	#DEBUG_VALUE: Gather:sendcount <- $esi
	movq	%rcx, %rdx
	movq	%r8, %rcx
.Ltmp658:
	#DEBUG_VALUE: recvbuf <- $rcx
	#DEBUG_VALUE: Gather:recvbuf <- $rcx
	movl	%r10d, %r8d
.Ltmp659:
	#DEBUG_VALUE: recvcount <- $r8d
	#DEBUG_VALUE: Gather:recvcount <- $r8d
	pushq	8(%rax)
	pushq	%r11
	callq	MPI_Gather
.Ltmp660:
	addq	$16, %rsp
	.loc	17 328 1                # /usr/lib/x86_64-linux-gnu/openmpi/include/openmpi/ompi/mpi/cxx/comm_inln.h:328:1
	popq	%rbp
	.cfi_def_cfa %rsp, 8
	retq
.Ltmp661:
.Lfunc_end112:
	.size	_ZNK3MPI4Comm6GatherEPKviRKNS_8DatatypeEPviS5_i, .Lfunc_end112-_ZNK3MPI4Comm6GatherEPKviRKNS_8DatatypeEPviS5_i
	.cfi_endproc
                                        # -- End function
	.weak	_ZNK3MPI4Comm7GathervEPKviRKNS_8DatatypeEPvPKiS8_S5_i # -- Begin function _ZNK3MPI4Comm7GathervEPKviRKNS_8DatatypeEPvPKiS8_S5_i
	.p2align	4, 0x90
	.type	_ZNK3MPI4Comm7GathervEPKviRKNS_8DatatypeEPvPKiS8_S5_i,@function
_ZNK3MPI4Comm7GathervEPKviRKNS_8DatatypeEPvPKiS8_S5_i: # @_ZNK3MPI4Comm7GathervEPKviRKNS_8DatatypeEPvPKiS8_S5_i
.Lfunc_begin113:
	.loc	17 335 0                # /usr/lib/x86_64-linux-gnu/openmpi/include/openmpi/ompi/mpi/cxx/comm_inln.h:335:0
	.cfi_startproc
# %bb.0:                                # %L.entry
	#DEBUG_VALUE: Gatherv: <- $rdi
	#DEBUG_VALUE: Gatherv:sendbuf <- $rsi
	#DEBUG_VALUE: Gatherv:sendcount <- $edx
	#DEBUG_VALUE: Gatherv:sendtype <- $rcx
	#DEBUG_VALUE: Gatherv:recvbuf <- $r8
	#DEBUG_VALUE: Gatherv:recvcounts <- $r9
	pushq	%rbp
	.cfi_def_cfa_offset 16
	.cfi_offset %rbp, -16
	movq	%rsp, %rbp
	.cfi_def_cfa_register %rbp
	pushq	%rbx
	pushq	%rax
	.cfi_offset %rbx, -24
.Ltmp662:
	#DEBUG_VALUE:  <- $rdi
	#DEBUG_VALUE: sendbuf <- $rsi
	#DEBUG_VALUE: sendcount <- $edx
	#DEBUG_VALUE: sendtype <- $rcx
	#DEBUG_VALUE: recvbuf <- $r8
	#DEBUG_VALUE: recvcounts <- $r9
	movq	%r9, %r10
	movq	%rdi, %rax
	movq	16(%rbp), %r9
.Ltmp663:
	movl	32(%rbp), %r11d
	movq	24(%rbp), %rbx
.Ltmp664:
	#DEBUG_VALUE: root <- [DW_OP_plus_uconst 32] [$rbp+0]
	#DEBUG_VALUE: Gatherv:root <- [DW_OP_plus_uconst 32] [$rbp+0]
	#DEBUG_VALUE: recvtype <- [DW_OP_plus_uconst 24] [$rbp+0]
	#DEBUG_VALUE: Gatherv:recvtype <- [DW_OP_plus_uconst 24] [$rbp+0]
	#DEBUG_VALUE: displs <- [DW_OP_plus_uconst 16] [$rbp+0]
	#DEBUG_VALUE: Gatherv:displs <- [DW_OP_plus_uconst 16] [$rbp+0]
	#DEBUG_VALUE: recvcounts <- $r10
	#DEBUG_VALUE: Gatherv:recvcounts <- $r10
	#DEBUG_VALUE: recvbuf <- $r8
	#DEBUG_VALUE: Gatherv:recvbuf <- $r8
	#DEBUG_VALUE: sendtype <- $rcx
	#DEBUG_VALUE: Gatherv:sendtype <- $rcx
	#DEBUG_VALUE: sendcount <- $edx
	#DEBUG_VALUE: Gatherv:sendcount <- $edx
	#DEBUG_VALUE: sendbuf <- $rsi
	#DEBUG_VALUE: Gatherv:sendbuf <- $rsi
	#DEBUG_VALUE:  <- $rax
	#DEBUG_VALUE: Gatherv: <- $rax
	.loc	17 90 1 prologue_end    # /usr/lib/x86_64-linux-gnu/openmpi/include/openmpi/ompi/mpi/cxx/comm_inln.h:90:1
	movq	8(%rcx), %rcx
.Ltmp665:
	subq	$8, %rsp
	movq	%rsi, %rdi
.Ltmp666:
	#DEBUG_VALUE: sendbuf <- $rdi
	#DEBUG_VALUE: Gatherv:sendbuf <- $rdi
	movl	%edx, %esi
.Ltmp667:
	#DEBUG_VALUE: sendcount <- $esi
	#DEBUG_VALUE: Gatherv:sendcount <- $esi
	movq	%rcx, %rdx
	movq	%r8, %rcx
.Ltmp668:
	#DEBUG_VALUE: recvbuf <- $rcx
	#DEBUG_VALUE: Gatherv:recvbuf <- $rcx
	movq	%r10, %r8
.Ltmp669:
	#DEBUG_VALUE: recvcounts <- $r8
	#DEBUG_VALUE: Gatherv:recvcounts <- $r8
	pushq	8(%rax)
	pushq	%r11
	pushq	8(%rbx)
	callq	MPI_Gatherv
.Ltmp670:
	.loc	17 340 1                # /usr/lib/x86_64-linux-gnu/openmpi/include/openmpi/ompi/mpi/cxx/comm_inln.h:340:1
	addq	$40, %rsp
	popq	%rbx
	popq	%rbp
	.cfi_def_cfa %rsp, 8
	retq
.Ltmp671:
.Lfunc_end113:
	.size	_ZNK3MPI4Comm7GathervEPKviRKNS_8DatatypeEPvPKiS8_S5_i, .Lfunc_end113-_ZNK3MPI4Comm7GathervEPKviRKNS_8DatatypeEPvPKiS8_S5_i
	.cfi_endproc
                                        # -- End function
	.weak	_ZNK3MPI4Comm7ScatterEPKviRKNS_8DatatypeEPviS5_i # -- Begin function _ZNK3MPI4Comm7ScatterEPKviRKNS_8DatatypeEPviS5_i
	.p2align	4, 0x90
	.type	_ZNK3MPI4Comm7ScatterEPKviRKNS_8DatatypeEPviS5_i,@function
_ZNK3MPI4Comm7ScatterEPKviRKNS_8DatatypeEPviS5_i: # @_ZNK3MPI4Comm7ScatterEPKviRKNS_8DatatypeEPviS5_i
.Lfunc_begin114:
	.loc	17 347 0                # /usr/lib/x86_64-linux-gnu/openmpi/include/openmpi/ompi/mpi/cxx/comm_inln.h:347:0
	.cfi_startproc
# %bb.0:                                # %L.entry
	#DEBUG_VALUE: Scatter: <- $rdi
	#DEBUG_VALUE: Scatter:sendbuf <- $rsi
	#DEBUG_VALUE: Scatter:sendcount <- $edx
	#DEBUG_VALUE: Scatter:sendtype <- $rcx
	#DEBUG_VALUE: Scatter:recvbuf <- $r8
	#DEBUG_VALUE: Scatter:recvcount <- $r9d
	pushq	%rbp
	.cfi_def_cfa_offset 16
	.cfi_offset %rbp, -16
	movq	%rsp, %rbp
	.cfi_def_cfa_register %rbp
.Ltmp672:
	#DEBUG_VALUE:  <- $rdi
	#DEBUG_VALUE: sendbuf <- $rsi
	#DEBUG_VALUE: sendcount <- $edx
	#DEBUG_VALUE: sendtype <- $rcx
	#DEBUG_VALUE: recvbuf <- $r8
	#DEBUG_VALUE: recvcount <- $r9d
	movl	%r9d, %r10d
	movq	%rdi, %rax
	movl	24(%rbp), %r11d
	movq	16(%rbp), %rdi
.Ltmp673:
	#DEBUG_VALUE: root <- [DW_OP_plus_uconst 24] [$rbp+0]
	#DEBUG_VALUE: Scatter:root <- [DW_OP_plus_uconst 24] [$rbp+0]
	#DEBUG_VALUE: recvtype <- [DW_OP_plus_uconst 16] [$rbp+0]
	#DEBUG_VALUE: Scatter:recvtype <- [DW_OP_plus_uconst 16] [$rbp+0]
	#DEBUG_VALUE: recvcount <- $r10d
	#DEBUG_VALUE: Scatter:recvcount <- $r10d
	#DEBUG_VALUE: recvbuf <- $r8
	#DEBUG_VALUE: Scatter:recvbuf <- $r8
	#DEBUG_VALUE: sendtype <- $rcx
	#DEBUG_VALUE: Scatter:sendtype <- $rcx
	#DEBUG_VALUE: sendcount <- $edx
	#DEBUG_VALUE: Scatter:sendcount <- $edx
	#DEBUG_VALUE: sendbuf <- $rsi
	#DEBUG_VALUE: Scatter:sendbuf <- $rsi
	#DEBUG_VALUE:  <- $rax
	#DEBUG_VALUE: Scatter: <- $rax
	.loc	17 90 1 prologue_end    # /usr/lib/x86_64-linux-gnu/openmpi/include/openmpi/ompi/mpi/cxx/comm_inln.h:90:1
	movq	8(%rcx), %rcx
.Ltmp674:
	movq	8(%rdi), %r9
	movq	%rsi, %rdi
.Ltmp675:
	#DEBUG_VALUE: sendbuf <- $rdi
	#DEBUG_VALUE: Scatter:sendbuf <- $rdi
	movl	%edx, %esi
.Ltmp676:
	#DEBUG_VALUE: sendcount <- $esi
	#DEBUG_VALUE: Scatter:sendcount <- $esi
	movq	%rcx, %rdx
	movq	%r8, %rcx
.Ltmp677:
	#DEBUG_VALUE: recvbuf <- $rcx
	#DEBUG_VALUE: Scatter:recvbuf <- $rcx
	movl	%r10d, %r8d
.Ltmp678:
	#DEBUG_VALUE: recvcount <- $r8d
	#DEBUG_VALUE: Scatter:recvcount <- $r8d
	pushq	8(%rax)
	pushq	%r11
	callq	MPI_Scatter
.Ltmp679:
	addq	$16, %rsp
	.loc	17 350 1                # /usr/lib/x86_64-linux-gnu/openmpi/include/openmpi/ompi/mpi/cxx/comm_inln.h:350:1
	popq	%rbp
	.cfi_def_cfa %rsp, 8
	retq
.Ltmp680:
.Lfunc_end114:
	.size	_ZNK3MPI4Comm7ScatterEPKviRKNS_8DatatypeEPviS5_i, .Lfunc_end114-_ZNK3MPI4Comm7ScatterEPKviRKNS_8DatatypeEPviS5_i
	.cfi_endproc
                                        # -- End function
	.weak	_ZNK3MPI4Comm8ScattervEPKvPKiS4_RKNS_8DatatypeEPviS7_i # -- Begin function _ZNK3MPI4Comm8ScattervEPKvPKiS4_RKNS_8DatatypeEPviS7_i
	.p2align	4, 0x90
	.type	_ZNK3MPI4Comm8ScattervEPKvPKiS4_RKNS_8DatatypeEPviS7_i,@function
_ZNK3MPI4Comm8ScattervEPKvPKiS4_RKNS_8DatatypeEPviS7_i: # @_ZNK3MPI4Comm8ScattervEPKvPKiS4_RKNS_8DatatypeEPviS7_i
.Lfunc_begin115:
	.loc	17 357 0                # /usr/lib/x86_64-linux-gnu/openmpi/include/openmpi/ompi/mpi/cxx/comm_inln.h:357:0
	.cfi_startproc
# %bb.0:                                # %L.entry
	#DEBUG_VALUE: Scatterv: <- $rdi
	#DEBUG_VALUE: Scatterv:sendbuf <- $rsi
	#DEBUG_VALUE: Scatterv:sendcounts <- $rdx
	#DEBUG_VALUE: Scatterv:displs <- $rcx
	#DEBUG_VALUE: Scatterv:sendtype <- $r8
	#DEBUG_VALUE: Scatterv:recvbuf <- $r9
	pushq	%rbp
	.cfi_def_cfa_offset 16
	.cfi_offset %rbp, -16
	movq	%rsp, %rbp
	.cfi_def_cfa_register %rbp
	pushq	%r14
	pushq	%rbx
	.cfi_offset %rbx, -32
	.cfi_offset %r14, -24
.Ltmp681:
	#DEBUG_VALUE:  <- $rdi
	#DEBUG_VALUE: sendbuf <- $rsi
	#DEBUG_VALUE: sendcounts <- $rdx
	#DEBUG_VALUE: displs <- $rcx
	#DEBUG_VALUE: sendtype <- $r8
	#DEBUG_VALUE: recvbuf <- $r9
	movq	%r9, %r10
	movq	%rdi, %r11
	movl	16(%rbp), %r9d
.Ltmp682:
	movl	32(%rbp), %ebx
	movq	24(%rbp), %r14
.Ltmp683:
	#DEBUG_VALUE: root <- [DW_OP_plus_uconst 32] [$rbp+0]
	#DEBUG_VALUE: Scatterv:root <- [DW_OP_plus_uconst 32] [$rbp+0]
	#DEBUG_VALUE: recvtype <- [DW_OP_plus_uconst 24] [$rbp+0]
	#DEBUG_VALUE: Scatterv:recvtype <- [DW_OP_plus_uconst 24] [$rbp+0]
	#DEBUG_VALUE: recvcount <- [DW_OP_plus_uconst 16] [$rbp+0]
	#DEBUG_VALUE: Scatterv:recvcount <- [DW_OP_plus_uconst 16] [$rbp+0]
	#DEBUG_VALUE: recvbuf <- $r10
	#DEBUG_VALUE: Scatterv:recvbuf <- $r10
	#DEBUG_VALUE: sendtype <- $r8
	#DEBUG_VALUE: Scatterv:sendtype <- $r8
	#DEBUG_VALUE: displs <- $rcx
	#DEBUG_VALUE: Scatterv:displs <- $rcx
	#DEBUG_VALUE: sendcounts <- $rdx
	#DEBUG_VALUE: Scatterv:sendcounts <- $rdx
	#DEBUG_VALUE: sendbuf <- $rsi
	#DEBUG_VALUE: Scatterv:sendbuf <- $rsi
	#DEBUG_VALUE:  <- $r11
	#DEBUG_VALUE: Scatterv: <- $r11
	.loc	17 90 1 prologue_end    # /usr/lib/x86_64-linux-gnu/openmpi/include/openmpi/ompi/mpi/cxx/comm_inln.h:90:1
	movq	8(%r8), %rax
	subq	$8, %rsp
	movq	%rsi, %rdi
.Ltmp684:
	#DEBUG_VALUE: sendbuf <- $rdi
	#DEBUG_VALUE: Scatterv:sendbuf <- $rdi
	movq	%rdx, %rsi
.Ltmp685:
	#DEBUG_VALUE: sendcounts <- $rsi
	#DEBUG_VALUE: Scatterv:sendcounts <- $rsi
	movq	%rcx, %rdx
.Ltmp686:
	#DEBUG_VALUE: displs <- $rdx
	#DEBUG_VALUE: Scatterv:displs <- $rdx
	movq	%rax, %rcx
	movq	%r10, %r8
.Ltmp687:
	#DEBUG_VALUE: recvbuf <- $r8
	#DEBUG_VALUE: Scatterv:recvbuf <- $r8
	pushq	8(%r11)
	pushq	%rbx
	pushq	8(%r14)
	callq	MPI_Scatterv
.Ltmp688:
	addq	$32, %rsp
	.loc	17 363 1                # /usr/lib/x86_64-linux-gnu/openmpi/include/openmpi/ompi/mpi/cxx/comm_inln.h:363:1
	popq	%rbx
	popq	%r14
	popq	%rbp
	.cfi_def_cfa %rsp, 8
	retq
.Ltmp689:
.Lfunc_end115:
	.size	_ZNK3MPI4Comm8ScattervEPKvPKiS4_RKNS_8DatatypeEPviS7_i, .Lfunc_end115-_ZNK3MPI4Comm8ScattervEPKvPKiS4_RKNS_8DatatypeEPviS7_i
	.cfi_endproc
                                        # -- End function
	.weak	_ZNK3MPI4Comm9AllgatherEPKviRKNS_8DatatypeEPviS5_ # -- Begin function _ZNK3MPI4Comm9AllgatherEPKviRKNS_8DatatypeEPviS5_
	.p2align	4, 0x90
	.type	_ZNK3MPI4Comm9AllgatherEPKviRKNS_8DatatypeEPviS5_,@function
_ZNK3MPI4Comm9AllgatherEPKviRKNS_8DatatypeEPviS5_: # @_ZNK3MPI4Comm9AllgatherEPKviRKNS_8DatatypeEPviS5_
.Lfunc_begin116:
	.loc	17 369 0                # /usr/lib/x86_64-linux-gnu/openmpi/include/openmpi/ompi/mpi/cxx/comm_inln.h:369:0
	.cfi_startproc
# %bb.0:                                # %L.entry
	#DEBUG_VALUE: Allgather: <- $rdi
	#DEBUG_VALUE: Allgather:sendbuf <- $rsi
	#DEBUG_VALUE: Allgather:sendcount <- $edx
	#DEBUG_VALUE: Allgather:sendtype <- $rcx
	#DEBUG_VALUE: Allgather:recvbuf <- $r8
	#DEBUG_VALUE: Allgather:recvcount <- $r9d
	pushq	%rbp
	.cfi_def_cfa_offset 16
	.cfi_offset %rbp, -16
	movq	%rsp, %rbp
	.cfi_def_cfa_register %rbp
	subq	$16, %rsp
.Ltmp690:
	#DEBUG_VALUE:  <- $rdi
	#DEBUG_VALUE: sendbuf <- $rsi
	#DEBUG_VALUE: sendcount <- $edx
	#DEBUG_VALUE: sendtype <- $rcx
	#DEBUG_VALUE: recvbuf <- $r8
	#DEBUG_VALUE: recvcount <- $r9d
	movl	%r9d, %r10d
	movq	16(%rbp), %r9
.Ltmp691:
	#DEBUG_VALUE: recvtype <- [DW_OP_plus_uconst 16] [$rbp+0]
	#DEBUG_VALUE: Allgather:recvtype <- [DW_OP_plus_uconst 16] [$rbp+0]
	#DEBUG_VALUE: recvcount <- $r10d
	#DEBUG_VALUE: Allgather:recvcount <- $r10d
	#DEBUG_VALUE: recvbuf <- $r8
	#DEBUG_VALUE: Allgather:recvbuf <- $r8
	#DEBUG_VALUE: sendtype <- $rcx
	#DEBUG_VALUE: Allgather:sendtype <- $rcx
	#DEBUG_VALUE: sendcount <- $edx
	#DEBUG_VALUE: Allgather:sendcount <- $edx
	#DEBUG_VALUE: sendbuf <- $rsi
	#DEBUG_VALUE: Allgather:sendbuf <- $rsi
	#DEBUG_VALUE:  <- $rdi
	#DEBUG_VALUE: Allgather: <- $rdi
	.loc	17 90 1 prologue_end    # /usr/lib/x86_64-linux-gnu/openmpi/include/openmpi/ompi/mpi/cxx/comm_inln.h:90:1
	movq	8(%rcx), %rax
	movq	8(%r9), %r9
	movq	8(%rdi), %rcx
.Ltmp692:
	movq	%rcx, (%rsp)
	movq	%rsi, %rdi
.Ltmp693:
	#DEBUG_VALUE: sendbuf <- $rdi
	#DEBUG_VALUE: Allgather:sendbuf <- $rdi
	movl	%edx, %esi
.Ltmp694:
	#DEBUG_VALUE: sendcount <- $esi
	#DEBUG_VALUE: Allgather:sendcount <- $esi
	movq	%rax, %rdx
	movq	%r8, %rcx
.Ltmp695:
	#DEBUG_VALUE: recvbuf <- $rcx
	#DEBUG_VALUE: Allgather:recvbuf <- $rcx
	movl	%r10d, %r8d
.Ltmp696:
	#DEBUG_VALUE: recvcount <- $r8d
	#DEBUG_VALUE: Allgather:recvcount <- $r8d
	callq	MPI_Allgather
.Ltmp697:
	.loc	17 373 1                # /usr/lib/x86_64-linux-gnu/openmpi/include/openmpi/ompi/mpi/cxx/comm_inln.h:373:1
	addq	$16, %rsp
	popq	%rbp
	.cfi_def_cfa %rsp, 8
	retq
.Ltmp698:
.Lfunc_end116:
	.size	_ZNK3MPI4Comm9AllgatherEPKviRKNS_8DatatypeEPviS5_, .Lfunc_end116-_ZNK3MPI4Comm9AllgatherEPKviRKNS_8DatatypeEPviS5_
	.cfi_endproc
                                        # -- End function
	.weak	_ZNK3MPI4Comm10AllgathervEPKviRKNS_8DatatypeEPvPKiS8_S5_ # -- Begin function _ZNK3MPI4Comm10AllgathervEPKviRKNS_8DatatypeEPvPKiS8_S5_
	.p2align	4, 0x90
	.type	_ZNK3MPI4Comm10AllgathervEPKviRKNS_8DatatypeEPvPKiS8_S5_,@function
_ZNK3MPI4Comm10AllgathervEPKviRKNS_8DatatypeEPvPKiS8_S5_: # @_ZNK3MPI4Comm10AllgathervEPKviRKNS_8DatatypeEPvPKiS8_S5_
.Lfunc_begin117:
	.loc	17 380 0                # /usr/lib/x86_64-linux-gnu/openmpi/include/openmpi/ompi/mpi/cxx/comm_inln.h:380:0
	.cfi_startproc
# %bb.0:                                # %L.entry
	#DEBUG_VALUE: Allgatherv: <- $rdi
	#DEBUG_VALUE: Allgatherv:sendbuf <- $rsi
	#DEBUG_VALUE: Allgatherv:sendcount <- $edx
	#DEBUG_VALUE: Allgatherv:sendtype <- $rcx
	#DEBUG_VALUE: Allgatherv:recvbuf <- $r8
	#DEBUG_VALUE: Allgatherv:recvcounts <- $r9
	pushq	%rbp
	.cfi_def_cfa_offset 16
	.cfi_offset %rbp, -16
	movq	%rsp, %rbp
	.cfi_def_cfa_register %rbp
.Ltmp699:
	#DEBUG_VALUE:  <- $rdi
	#DEBUG_VALUE: sendbuf <- $rsi
	#DEBUG_VALUE: sendcount <- $edx
	#DEBUG_VALUE: sendtype <- $rcx
	#DEBUG_VALUE: recvbuf <- $r8
	#DEBUG_VALUE: recvcounts <- $r9
	movq	%r9, %r10
	movq	%rdi, %rax
	movq	16(%rbp), %r9
.Ltmp700:
	movq	24(%rbp), %r11
.Ltmp701:
	#DEBUG_VALUE: recvtype <- [DW_OP_plus_uconst 24] [$rbp+0]
	#DEBUG_VALUE: Allgatherv:recvtype <- [DW_OP_plus_uconst 24] [$rbp+0]
	#DEBUG_VALUE: displs <- [DW_OP_plus_uconst 16] [$rbp+0]
	#DEBUG_VALUE: Allgatherv:displs <- [DW_OP_plus_uconst 16] [$rbp+0]
	#DEBUG_VALUE: recvcounts <- $r10
	#DEBUG_VALUE: Allgatherv:recvcounts <- $r10
	#DEBUG_VALUE: recvbuf <- $r8
	#DEBUG_VALUE: Allgatherv:recvbuf <- $r8
	#DEBUG_VALUE: sendtype <- $rcx
	#DEBUG_VALUE: Allgatherv:sendtype <- $rcx
	#DEBUG_VALUE: sendcount <- $edx
	#DEBUG_VALUE: Allgatherv:sendcount <- $edx
	#DEBUG_VALUE: sendbuf <- $rsi
	#DEBUG_VALUE: Allgatherv:sendbuf <- $rsi
	#DEBUG_VALUE:  <- $rax
	#DEBUG_VALUE: Allgatherv: <- $rax
	.loc	17 90 1 prologue_end    # /usr/lib/x86_64-linux-gnu/openmpi/include/openmpi/ompi/mpi/cxx/comm_inln.h:90:1
	movq	8(%rcx), %rcx
.Ltmp702:
	movq	%rsi, %rdi
.Ltmp703:
	#DEBUG_VALUE: sendbuf <- $rdi
	#DEBUG_VALUE: Allgatherv:sendbuf <- $rdi
	movl	%edx, %esi
.Ltmp704:
	#DEBUG_VALUE: sendcount <- $esi
	#DEBUG_VALUE: Allgatherv:sendcount <- $esi
	movq	%rcx, %rdx
	movq	%r8, %rcx
.Ltmp705:
	#DEBUG_VALUE: recvbuf <- $rcx
	#DEBUG_VALUE: Allgatherv:recvbuf <- $rcx
	movq	%r10, %r8
.Ltmp706:
	#DEBUG_VALUE: recvcounts <- $r8
	#DEBUG_VALUE: Allgatherv:recvcounts <- $r8
	pushq	8(%rax)
	pushq	8(%r11)
	callq	MPI_Allgatherv
.Ltmp707:
	addq	$16, %rsp
	.loc	17 386 1                # /usr/lib/x86_64-linux-gnu/openmpi/include/openmpi/ompi/mpi/cxx/comm_inln.h:386:1
	popq	%rbp
	.cfi_def_cfa %rsp, 8
	retq
.Ltmp708:
.Lfunc_end117:
	.size	_ZNK3MPI4Comm10AllgathervEPKviRKNS_8DatatypeEPvPKiS8_S5_, .Lfunc_end117-_ZNK3MPI4Comm10AllgathervEPKviRKNS_8DatatypeEPvPKiS8_S5_
	.cfi_endproc
                                        # -- End function
	.weak	_ZNK3MPI4Comm8AlltoallEPKviRKNS_8DatatypeEPviS5_ # -- Begin function _ZNK3MPI4Comm8AlltoallEPKviRKNS_8DatatypeEPviS5_
	.p2align	4, 0x90
	.type	_ZNK3MPI4Comm8AlltoallEPKviRKNS_8DatatypeEPviS5_,@function
_ZNK3MPI4Comm8AlltoallEPKviRKNS_8DatatypeEPviS5_: # @_ZNK3MPI4Comm8AlltoallEPKviRKNS_8DatatypeEPviS5_
.Lfunc_begin118:
	.loc	17 392 0                # /usr/lib/x86_64-linux-gnu/openmpi/include/openmpi/ompi/mpi/cxx/comm_inln.h:392:0
	.cfi_startproc
# %bb.0:                                # %L.entry
	#DEBUG_VALUE: Alltoall: <- $rdi
	#DEBUG_VALUE: Alltoall:sendbuf <- $rsi
	#DEBUG_VALUE: Alltoall:sendcount <- $edx
	#DEBUG_VALUE: Alltoall:sendtype <- $rcx
	#DEBUG_VALUE: Alltoall:recvbuf <- $r8
	#DEBUG_VALUE: Alltoall:recvcount <- $r9d
	pushq	%rbp
	.cfi_def_cfa_offset 16
	.cfi_offset %rbp, -16
	movq	%rsp, %rbp
	.cfi_def_cfa_register %rbp
	subq	$16, %rsp
.Ltmp709:
	#DEBUG_VALUE:  <- $rdi
	#DEBUG_VALUE: sendbuf <- $rsi
	#DEBUG_VALUE: sendcount <- $edx
	#DEBUG_VALUE: sendtype <- $rcx
	#DEBUG_VALUE: recvbuf <- $r8
	#DEBUG_VALUE: recvcount <- $r9d
	movl	%r9d, %r10d
	movq	16(%rbp), %r9
.Ltmp710:
	#DEBUG_VALUE: recvtype <- [DW_OP_plus_uconst 16] [$rbp+0]
	#DEBUG_VALUE: Alltoall:recvtype <- [DW_OP_plus_uconst 16] [$rbp+0]
	#DEBUG_VALUE: recvcount <- $r10d
	#DEBUG_VALUE: Alltoall:recvcount <- $r10d
	#DEBUG_VALUE: recvbuf <- $r8
	#DEBUG_VALUE: Alltoall:recvbuf <- $r8
	#DEBUG_VALUE: sendtype <- $rcx
	#DEBUG_VALUE: Alltoall:sendtype <- $rcx
	#DEBUG_VALUE: sendcount <- $edx
	#DEBUG_VALUE: Alltoall:sendcount <- $edx
	#DEBUG_VALUE: sendbuf <- $rsi
	#DEBUG_VALUE: Alltoall:sendbuf <- $rsi
	#DEBUG_VALUE:  <- $rdi
	#DEBUG_VALUE: Alltoall: <- $rdi
	.loc	17 90 1 prologue_end    # /usr/lib/x86_64-linux-gnu/openmpi/include/openmpi/ompi/mpi/cxx/comm_inln.h:90:1
	movq	8(%rcx), %rax
	movq	8(%r9), %r9
	movq	8(%rdi), %rcx
.Ltmp711:
	movq	%rcx, (%rsp)
	movq	%rsi, %rdi
.Ltmp712:
	#DEBUG_VALUE: sendbuf <- $rdi
	#DEBUG_VALUE: Alltoall:sendbuf <- $rdi
	movl	%edx, %esi
.Ltmp713:
	#DEBUG_VALUE: sendcount <- $esi
	#DEBUG_VALUE: Alltoall:sendcount <- $esi
	movq	%rax, %rdx
	movq	%r8, %rcx
.Ltmp714:
	#DEBUG_VALUE: recvbuf <- $rcx
	#DEBUG_VALUE: Alltoall:recvbuf <- $rcx
	movl	%r10d, %r8d
.Ltmp715:
	#DEBUG_VALUE: recvcount <- $r8d
	#DEBUG_VALUE: Alltoall:recvcount <- $r8d
	callq	MPI_Alltoall
.Ltmp716:
	.loc	17 396 1                # /usr/lib/x86_64-linux-gnu/openmpi/include/openmpi/ompi/mpi/cxx/comm_inln.h:396:1
	addq	$16, %rsp
	popq	%rbp
	.cfi_def_cfa %rsp, 8
	retq
.Ltmp717:
.Lfunc_end118:
	.size	_ZNK3MPI4Comm8AlltoallEPKviRKNS_8DatatypeEPviS5_, .Lfunc_end118-_ZNK3MPI4Comm8AlltoallEPKviRKNS_8DatatypeEPviS5_
	.cfi_endproc
                                        # -- End function
	.weak	_ZNK3MPI4Comm9AlltoallvEPKvPKiS4_RKNS_8DatatypeEPvS4_S4_S7_ # -- Begin function _ZNK3MPI4Comm9AlltoallvEPKvPKiS4_RKNS_8DatatypeEPvS4_S4_S7_
	.p2align	4, 0x90
	.type	_ZNK3MPI4Comm9AlltoallvEPKvPKiS4_RKNS_8DatatypeEPvS4_S4_S7_,@function
_ZNK3MPI4Comm9AlltoallvEPKvPKiS4_RKNS_8DatatypeEPvS4_S4_S7_: # @_ZNK3MPI4Comm9AlltoallvEPKvPKiS4_RKNS_8DatatypeEPvS4_S4_S7_
.Lfunc_begin119:
	.loc	17 404 0                # /usr/lib/x86_64-linux-gnu/openmpi/include/openmpi/ompi/mpi/cxx/comm_inln.h:404:0
	.cfi_startproc
# %bb.0:                                # %L.entry
	#DEBUG_VALUE: Alltoallv: <- $rdi
	#DEBUG_VALUE: Alltoallv:sendbuf <- $rsi
	#DEBUG_VALUE: Alltoallv:sendcounts <- $rdx
	#DEBUG_VALUE: Alltoallv:sdispls <- $rcx
	#DEBUG_VALUE: Alltoallv:sendtype <- $r8
	#DEBUG_VALUE: Alltoallv:recvbuf <- $r9
	pushq	%rbp
	.cfi_def_cfa_offset 16
	.cfi_offset %rbp, -16
	movq	%rsp, %rbp
	.cfi_def_cfa_register %rbp
	pushq	%rbx
	pushq	%rax
	.cfi_offset %rbx, -24
.Ltmp718:
	#DEBUG_VALUE:  <- $rdi
	#DEBUG_VALUE: sendbuf <- $rsi
	#DEBUG_VALUE: sendcounts <- $rdx
	#DEBUG_VALUE: sdispls <- $rcx
	#DEBUG_VALUE: sendtype <- $r8
	#DEBUG_VALUE: recvbuf <- $r9
	movq	%r9, %r10
	movq	%rdi, %r11
	movq	16(%rbp), %r9
.Ltmp719:
	movq	32(%rbp), %rbx
.Ltmp720:
	#DEBUG_VALUE: recvtype <- [DW_OP_plus_uconst 32] [$rbp+0]
	#DEBUG_VALUE: Alltoallv:recvtype <- [DW_OP_plus_uconst 32] [$rbp+0]
	#DEBUG_VALUE: rdispls <- [DW_OP_plus_uconst 24] [$rbp+0]
	#DEBUG_VALUE: Alltoallv:rdispls <- [DW_OP_plus_uconst 24] [$rbp+0]
	#DEBUG_VALUE: recvcounts <- [DW_OP_plus_uconst 16] [$rbp+0]
	#DEBUG_VALUE: Alltoallv:recvcounts <- [DW_OP_plus_uconst 16] [$rbp+0]
	#DEBUG_VALUE: recvbuf <- $r10
	#DEBUG_VALUE: Alltoallv:recvbuf <- $r10
	#DEBUG_VALUE: sendtype <- $r8
	#DEBUG_VALUE: Alltoallv:sendtype <- $r8
	#DEBUG_VALUE: sdispls <- $rcx
	#DEBUG_VALUE: Alltoallv:sdispls <- $rcx
	#DEBUG_VALUE: sendcounts <- $rdx
	#DEBUG_VALUE: Alltoallv:sendcounts <- $rdx
	#DEBUG_VALUE: sendbuf <- $rsi
	#DEBUG_VALUE: Alltoallv:sendbuf <- $rsi
	#DEBUG_VALUE:  <- $r11
	#DEBUG_VALUE: Alltoallv: <- $r11
	.loc	17 90 1 prologue_end    # /usr/lib/x86_64-linux-gnu/openmpi/include/openmpi/ompi/mpi/cxx/comm_inln.h:90:1
	movq	8(%r8), %rax
	subq	$8, %rsp
	movq	%rsi, %rdi
.Ltmp721:
	#DEBUG_VALUE: sendbuf <- $rdi
	#DEBUG_VALUE: Alltoallv:sendbuf <- $rdi
	movq	%rdx, %rsi
.Ltmp722:
	#DEBUG_VALUE: sendcounts <- $rsi
	#DEBUG_VALUE: Alltoallv:sendcounts <- $rsi
	movq	%rcx, %rdx
.Ltmp723:
	#DEBUG_VALUE: sdispls <- $rdx
	#DEBUG_VALUE: Alltoallv:sdispls <- $rdx
	movq	%rax, %rcx
	movq	%r10, %r8
.Ltmp724:
	#DEBUG_VALUE: recvbuf <- $r8
	#DEBUG_VALUE: Alltoallv:recvbuf <- $r8
	pushq	8(%r11)
	pushq	8(%rbx)
	pushq	24(%rbp)
	callq	MPI_Alltoallv
.Ltmp725:
	.loc	17 411 1                # /usr/lib/x86_64-linux-gnu/openmpi/include/openmpi/ompi/mpi/cxx/comm_inln.h:411:1
	addq	$40, %rsp
	popq	%rbx
	popq	%rbp
	.cfi_def_cfa %rsp, 8
	retq
.Ltmp726:
.Lfunc_end119:
	.size	_ZNK3MPI4Comm9AlltoallvEPKvPKiS4_RKNS_8DatatypeEPvS4_S4_S7_, .Lfunc_end119-_ZNK3MPI4Comm9AlltoallvEPKvPKiS4_RKNS_8DatatypeEPvS4_S4_S7_
	.cfi_endproc
                                        # -- End function
	.weak	_ZNK3MPI4Comm9AlltoallwEPKvPKiS4_PKNS_8DatatypeEPvS4_S4_S7_ # -- Begin function _ZNK3MPI4Comm9AlltoallwEPKvPKiS4_PKNS_8DatatypeEPvS4_S4_S7_
	.p2align	4, 0x90
	.type	_ZNK3MPI4Comm9AlltoallwEPKvPKiS4_PKNS_8DatatypeEPvS4_S4_S7_,@function
_ZNK3MPI4Comm9AlltoallwEPKvPKiS4_PKNS_8DatatypeEPvS4_S4_S7_: # @_ZNK3MPI4Comm9AlltoallwEPKvPKiS4_PKNS_8DatatypeEPvS4_S4_S7_
.Lfunc_begin120:
	.loc	17 419 0                # /usr/lib/x86_64-linux-gnu/openmpi/include/openmpi/ompi/mpi/cxx/comm_inln.h:419:0
	.cfi_startproc
# %bb.0:                                # %L.entry
	#DEBUG_VALUE: Alltoallw: <- $rdi
	#DEBUG_VALUE: Alltoallw:sendbuf <- $rsi
	#DEBUG_VALUE: Alltoallw:sendcounts <- $rdx
	#DEBUG_VALUE: Alltoallw:sdispls <- $rcx
	#DEBUG_VALUE: Alltoallw:sendtypes <- $r8
	#DEBUG_VALUE: Alltoallw:recvbuf <- $r9
	pushq	%rbp
	.cfi_def_cfa_offset 16
	.cfi_offset %rbp, -16
	movq	%rsp, %rbp
	.cfi_def_cfa_register %rbp
	pushq	%r15
	pushq	%r14
	pushq	%r13
	pushq	%r12
	pushq	%rbx
	subq	$56, %rsp
	.cfi_offset %rbx, -56
	.cfi_offset %r12, -48
	.cfi_offset %r13, -40
	.cfi_offset %r14, -32
	.cfi_offset %r15, -24
.Ltmp727:
	#DEBUG_VALUE:  <- $rdi
	#DEBUG_VALUE: sendbuf <- $rsi
	#DEBUG_VALUE: sendcounts <- $rdx
	#DEBUG_VALUE: sdispls <- $rcx
	#DEBUG_VALUE: sendtypes <- $r8
	#DEBUG_VALUE: recvbuf <- $r9
	movq	%r9, %rbx
	movq	%r8, %r15
	movq	%rcx, -72(%rbp)         # 8-byte Spill
	movq	%rdx, -64(%rbp)         # 8-byte Spill
	movq	%rsi, -48(%rbp)         # 8-byte Spill
	movq	32(%rbp), %r14
	movq	24(%rbp), %rax
	movq	%rax, -80(%rbp)         # 8-byte Spill
	movq	16(%rbp), %rax
	movq	%rax, -56(%rbp)         # 8-byte Spill
.Ltmp728:
	#DEBUG_VALUE: recvtypes <- [DW_OP_plus_uconst 32] [$rbp+0]
	#DEBUG_VALUE: Alltoallw:recvtypes <- [DW_OP_plus_uconst 32] [$rbp+0]
	#DEBUG_VALUE: rdispls <- [DW_OP_plus_uconst 24] [$rbp+0]
	#DEBUG_VALUE: Alltoallw:rdispls <- [DW_OP_plus_uconst 24] [$rbp+0]
	#DEBUG_VALUE: recvcounts <- [DW_OP_plus_uconst 16] [$rbp+0]
	#DEBUG_VALUE: Alltoallw:recvcounts <- [DW_OP_plus_uconst 16] [$rbp+0]
	#DEBUG_VALUE: recvbuf <- $rbx
	#DEBUG_VALUE: Alltoallw:recvbuf <- $rbx
	#DEBUG_VALUE: sendtypes <- $r15
	#DEBUG_VALUE: Alltoallw:sendtypes <- $r15
	#DEBUG_VALUE: sdispls <- [DW_OP_constu 72, DW_OP_minus] [$rbp+0]
	#DEBUG_VALUE: Alltoallw:sdispls <- [DW_OP_constu 72, DW_OP_minus] [$rbp+0]
	#DEBUG_VALUE: sendcounts <- [DW_OP_constu 64, DW_OP_minus] [$rbp+0]
	#DEBUG_VALUE: Alltoallw:sendcounts <- [DW_OP_constu 64, DW_OP_minus] [$rbp+0]
	#DEBUG_VALUE: sendbuf <- [DW_OP_constu 48, DW_OP_minus] [$rbp+0]
	#DEBUG_VALUE: Alltoallw:sendbuf <- [DW_OP_constu 48, DW_OP_minus] [$rbp+0]
	#DEBUG_VALUE:  <- $rdi
	#DEBUG_VALUE: Alltoallw: <- $rdi
	.loc	17 420 1 prologue_end   # /usr/lib/x86_64-linux-gnu/openmpi/include/openmpi/ompi/mpi/cxx/comm_inln.h:420:1
	movq	(%rdi), %rax
	movq	%rdi, -88(%rbp)         # 8-byte Spill
.Ltmp729:
	#DEBUG_VALUE:  <- [DW_OP_constu 88, DW_OP_minus] [$rbp+0]
	#DEBUG_VALUE: Alltoallw: <- [DW_OP_constu 88, DW_OP_minus] [$rbp+0]
