; ModuleID = 'projects/Flowthrough/Flowthrough.cpp'
target datalayout = "e-p:64:64-i64:64-f80:128-n8:16:32:64-S128"
target triple = "x86_64-pc-linux-gnu"
define internal void @pgCplus_compiled.() noinline {
L.entry:
	ret void
}


define linkonce_odr i8* @_ZnwmPv(i64 %_T35351984_52217.arg, i8* %__p.arg) #0 inlinehint !dbg !4101 {
L.entry:
	%_T35351984_52217.addr = alloca i64, align 8
	%__p.addr = alloca i8*, align 8

	call void @llvm.dbg.declare (metadata i64* %_T35351984_52217.addr, metadata !4105, metadata !4106), !dbg !4102
	store i64 %_T35351984_52217.arg, i64* %_T35351984_52217.addr, align 8, !tbaa !4113
	call void @llvm.dbg.declare (metadata i64* %_T35351984_52217.addr, metadata !4107, metadata !4106), !dbg !4102
	call void @llvm.dbg.declare (metadata i8** %__p.addr, metadata !4108, metadata !4106), !dbg !4102
	store i8* %__p.arg, i8** %__p.addr, align 8, !tbaa !4114
	call void @llvm.dbg.declare (metadata i8** %__p.addr, metadata !4109, metadata !4106), !dbg !4102
	%0 = load i8*, i8** %__p.addr, align 8, !tbaa !4114, !dbg !4110
	ret i8*  %0, !dbg !4110
}
define linkonce_odr void @_ZdlPvS_(i8* %_T35351984_52218.arg, i8* %_T35352280_52218.arg) #0 inlinehint !dbg !4118 {
L.entry:
	%_T35351984_52218.addr = alloca i8*, align 8
	%_T35352280_52218.addr = alloca i8*, align 8

	call void @llvm.dbg.declare (metadata i8** %_T35351984_52218.addr, metadata !4122, metadata !4106), !dbg !4119
	store i8* %_T35351984_52218.arg, i8** %_T35351984_52218.addr, align 8, !tbaa !4114
	call void @llvm.dbg.declare (metadata i8** %_T35351984_52218.addr, metadata !4123, metadata !4106), !dbg !4119
	call void @llvm.dbg.declare (metadata i8** %_T35352280_52218.addr, metadata !4124, metadata !4106), !dbg !4119
	store i8* %_T35352280_52218.arg, i8** %_T35352280_52218.addr, align 8, !tbaa !4114
	call void @llvm.dbg.declare (metadata i8** %_T35352280_52218.addr, metadata !4125, metadata !4106), !dbg !4119
	ret void, !dbg !4126
}

%struct.T3DFunction = type <{ i32 (...)* (...)*}> 

define linkonce_odr void @_ZN11T3DFunctionD1Ev(%struct.T3DFunction* %_T35351984_52609.arg) #0 inlinehint !dbg !4132 {
L.entry:
	%_T35351984_52609.addr = alloca %struct.T3DFunction*, align 8

	call void @llvm.dbg.declare (metadata %struct.T3DFunction** %_T35351984_52609.addr, metadata !4136, metadata !4106), !dbg !4133
	store %struct.T3DFunction* %_T35351984_52609.arg, %struct.T3DFunction** %_T35351984_52609.addr, align 8, !tbaa !4114
	call void @llvm.dbg.declare (metadata %struct.T3DFunction** %_T35351984_52609.addr, metadata !4137, metadata !4106), !dbg !4133
	%0 = bitcast [5 x i32 (...)* (...)*]* @_ZTV11T3DFunction to i8*, !dbg !4138
	%1 = getelementptr i8, i8*  %0, i64 16, !dbg !4138
	%2 = load %struct.T3DFunction*, %struct.T3DFunction** %_T35351984_52609.addr, align 8, !tbaa !4114, !dbg !4138
	%3 = bitcast %struct.T3DFunction*  %2 to i8**, !dbg !4138
	store i8*  %1, i8**  %3, align 8, !tbaa !4114, !dbg !4138
	ret void, !dbg !4138
}
define linkonce_odr void @_ZN11T3DFunctionD0Ev(%struct.T3DFunction* %_T35351984_52610.arg) #0 inlinehint !dbg !4143 {
L.entry:
	%_T35351984_52610.addr = alloca %struct.T3DFunction*, align 8

	store %struct.T3DFunction* %_T35351984_52610.arg, %struct.T3DFunction** %_T35351984_52610.addr, align 8, !tbaa !4114
	%0 = bitcast [5 x i32 (...)* (...)*]* @_ZTV11T3DFunction to i8*, !dbg !4151
	%1 = getelementptr i8, i8*  %0, i64 16, !dbg !4151
	%2 = load %struct.T3DFunction*, %struct.T3DFunction** %_T35351984_52610.addr, align 8, !tbaa !4114, !dbg !4151
	%3 = bitcast %struct.T3DFunction*  %2 to i8**, !dbg !4151
	store i8*  %1, i8**  %3, align 8, !tbaa !4114, !dbg !4151
	%4 = bitcast %struct.T3DFunction*  %2 to i8*, !dbg !4151
	call void  @_ZdlPvm (i8*  %4, i64 8) nounwind, !dbg !4151
	ret void, !dbg !4151
}
define linkonce_odr void @_ZN11T3DFunctionD2Ev(%struct.T3DFunction* %_T35351984_52611.arg) #0 inlinehint !dbg !4153 {
L.entry:
	%_T35351984_52611.addr = alloca %struct.T3DFunction*, align 8

	store %struct.T3DFunction* %_T35351984_52611.arg, %struct.T3DFunction** %_T35351984_52611.addr, align 8, !tbaa !4114
	%0 = bitcast [5 x i32 (...)* (...)*]* @_ZTV11T3DFunction to i8*, !dbg !4161
	%1 = getelementptr i8, i8*  %0, i64 16, !dbg !4161
	%2 = load %struct.T3DFunction*, %struct.T3DFunction** %_T35351984_52611.addr, align 8, !tbaa !4114, !dbg !4161
	%3 = bitcast %struct.T3DFunction*  %2 to i8**, !dbg !4161
	store i8*  %1, i8**  %3, align 8, !tbaa !4114, !dbg !4161
	ret void, !dbg !4161
}
define linkonce_odr void @_ZN11T3DFunctionC1Ev(%struct.T3DFunction* %_T35351984_52612.arg) #0 inlinehint !dbg !4163 {
L.entry:
	%_T35351984_52612.addr = alloca %struct.T3DFunction*, align 8

	call void @llvm.dbg.declare (metadata %struct.T3DFunction** %_T35351984_52612.addr, metadata !4167, metadata !4106), !dbg !4164
	store %struct.T3DFunction* %_T35351984_52612.arg, %struct.T3DFunction** %_T35351984_52612.addr, align 8, !tbaa !4114
	call void @llvm.dbg.declare (metadata %struct.T3DFunction** %_T35351984_52612.addr, metadata !4168, metadata !4106), !dbg !4164
	%0 = bitcast [5 x i32 (...)* (...)*]* @_ZTV11T3DFunction to i8*, !dbg !4169
	%1 = getelementptr i8, i8*  %0, i64 16, !dbg !4169
	%2 = load %struct.T3DFunction*, %struct.T3DFunction** %_T35351984_52612.addr, align 8, !tbaa !4114, !dbg !4169
	%3 = bitcast %struct.T3DFunction*  %2 to i8**, !dbg !4169
	store i8*  %1, i8**  %3, align 8, !tbaa !4114, !dbg !4169
	ret void, !dbg !4169
}
define linkonce_odr void @_ZN11T3DFunctionC2Ev(%struct.T3DFunction* %_T35351984_52613.arg) #0 inlinehint !dbg !4171 {
L.entry:
	%_T35351984_52613.addr = alloca %struct.T3DFunction*, align 8

	store %struct.T3DFunction* %_T35351984_52613.arg, %struct.T3DFunction** %_T35351984_52613.addr, align 8, !tbaa !4114
	%0 = bitcast [5 x i32 (...)* (...)*]* @_ZTV11T3DFunction to i8*, !dbg !4179
	%1 = getelementptr i8, i8*  %0, i64 16, !dbg !4179
	%2 = load %struct.T3DFunction*, %struct.T3DFunction** %_T35351984_52613.addr, align 8, !tbaa !4114, !dbg !4179
	%3 = bitcast %struct.T3DFunction*  %2 to i8**, !dbg !4179
	store i8*  %1, i8**  %3, align 8, !tbaa !4114, !dbg !4179
	ret void, !dbg !4179
}

%astruct.dt64 = type <{ i8*, i32}> 
%struct.FieldFunction = type <{ %struct.T3DFunction, i32, i32, i32, [4 x i8]}> 

define linkonce_odr void @_ZN13FieldFunctionC1Ev(%struct.FieldFunction* %_T35351984_52614.arg) #0 inlinehint personality i8* bitcast (i32 (...)* @__gxx_personality_v0 to i8*) !dbg !4186 {
L.entry:
	%_T35351984_52614.addr = alloca %struct.FieldFunction*, align 8

	call void @llvm.dbg.declare (metadata %struct.FieldFunction** %_T35351984_52614.addr, metadata !4242, metadata !4106), !dbg !4187
	store %struct.FieldFunction* %_T35351984_52614.arg, %struct.FieldFunction** %_T35351984_52614.addr, align 8, !tbaa !4114
	call void @llvm.dbg.declare (metadata %struct.FieldFunction** %_T35351984_52614.addr, metadata !4243, metadata !4106), !dbg !4187
	%0 = bitcast [5 x i32 (...)* (...)*]* @_ZTV11T3DFunction to i8*, !dbg !4244
	%1 = getelementptr i8, i8*  %0, i64 16, !dbg !4244
	%2 = load %struct.FieldFunction*, %struct.FieldFunction** %_T35351984_52614.addr, align 8, !tbaa !4114, !dbg !4244
	%3 = bitcast %struct.FieldFunction*  %2 to i8**, !dbg !4244
	store i8*  %1, i8**  %3, align 8, !tbaa !4114, !dbg !4244
	%4 = bitcast [5 x i32 (...)* (...)*]* @_ZTV13FieldFunction to i8*, !dbg !4244
	%5 = getelementptr i8, i8*  %4, i64 16, !dbg !4244
	store i8*  %5, i8**  %3, align 8, !tbaa !4114, !dbg !4244
	%6 = bitcast %struct.FieldFunction*  %2 to i8*, !dbg !4247
	%7 = getelementptr i8, i8*  %6, i64 8, !dbg !4247
	%8 = bitcast i8*  %7 to i32*, !dbg !4247
	store i32 0, i32*  %8, align 4, !tbaa !4113, !dbg !4247
	%9 = getelementptr i8, i8*  %6, i64 12, !dbg !4248
	%10 = bitcast i8*  %9 to i32*, !dbg !4248
	store i32 0, i32*  %10, align 4, !tbaa !4113, !dbg !4248
	%11 = getelementptr i8, i8*  %6, i64 16, !dbg !4249
	%12 = bitcast i8*  %11 to i32*, !dbg !4249
	store i32 0, i32*  %12, align 4, !tbaa !4113, !dbg !4249
	br label %L.R0007, !dbg !4249
L_T35352872_52614:
	%13 = landingpad %astruct.dt64
	cleanup
	br label %L.R0007
L.R0007:
	ret void, !dbg !4250
}
define linkonce_odr void @_ZN13FieldFunctionC2Ev(%struct.FieldFunction* %_T35351984_52615.arg) #0 inlinehint !dbg !4252 {
L.entry:
	%_T35351984_52615.addr = alloca %struct.FieldFunction*, align 8

	store %struct.FieldFunction* %_T35351984_52615.arg, %struct.FieldFunction** %_T35351984_52615.addr, align 8, !tbaa !4114
	%0 = load %struct.FieldFunction*, %struct.FieldFunction** %_T35351984_52615.addr, align 8, !tbaa !4114, !dbg !4256
	call void  @_ZN13FieldFunctionC1Ev (%struct.FieldFunction*  %0), !dbg !4256
	ret void, !dbg !4256
}
define linkonce_odr void @_ZN13FieldFunction12setComponentE10coordinate(%struct.FieldFunction* %_T35351984_52616.arg, i32 zeroext %fComponent.arg) #0 inlinehint !dbg !4260 {
L.entry:
	%_T35351984_52616.addr = alloca %struct.FieldFunction*, align 8
	%fComponent.addr = alloca i32, align 4

	call void @llvm.dbg.declare (metadata %struct.FieldFunction** %_T35351984_52616.addr, metadata !4264, metadata !4106), !dbg !4261
	store %struct.FieldFunction* %_T35351984_52616.arg, %struct.FieldFunction** %_T35351984_52616.addr, align 8, !tbaa !4114
	call void @llvm.dbg.declare (metadata %struct.FieldFunction** %_T35351984_52616.addr, metadata !4265, metadata !4106), !dbg !4261
	call void @llvm.dbg.declare (metadata i32* %fComponent.addr, metadata !4266, metadata !4106), !dbg !4261
	store i32 %fComponent.arg, i32* %fComponent.addr, align 4, !tbaa !4113
	call void @llvm.dbg.declare (metadata i32* %fComponent.addr, metadata !4267, metadata !4106), !dbg !4261
	%0 = load i32, i32* %fComponent.addr, align 4, !tbaa !4113, !dbg !4268
	%1 = load %struct.FieldFunction*, %struct.FieldFunction** %_T35351984_52616.addr, align 8, !tbaa !4114, !dbg !4268
	%2 = bitcast %struct.FieldFunction*  %1 to i8*, !dbg !4268
	%3 = getelementptr i8, i8*  %2, i64 8, !dbg !4268
	%4 = bitcast i8*  %3 to i32*, !dbg !4268
	store i32  %0, i32*  %4, align 4, !tbaa !4113, !dbg !4268
	ret void, !dbg !4268
}
define linkonce_odr void @_ZN13FieldFunction17setDerivComponentE10coordinate(%struct.FieldFunction* %_T35351984_52617.arg, i32 zeroext %dComponent.arg) #0 inlinehint !dbg !4270 {
L.entry:
	%_T35351984_52617.addr = alloca %struct.FieldFunction*, align 8
	%dComponent.addr = alloca i32, align 4

	call void @llvm.dbg.declare (metadata %struct.FieldFunction** %_T35351984_52617.addr, metadata !4274, metadata !4106), !dbg !4271
	store %struct.FieldFunction* %_T35351984_52617.arg, %struct.FieldFunction** %_T35351984_52617.addr, align 8, !tbaa !4114
	call void @llvm.dbg.declare (metadata %struct.FieldFunction** %_T35351984_52617.addr, metadata !4275, metadata !4106), !dbg !4271
	call void @llvm.dbg.declare (metadata i32* %dComponent.addr, metadata !4276, metadata !4106), !dbg !4271
	store i32 %dComponent.arg, i32* %dComponent.addr, align 4, !tbaa !4113
	call void @llvm.dbg.declare (metadata i32* %dComponent.addr, metadata !4277, metadata !4106), !dbg !4271
	%0 = load i32, i32* %dComponent.addr, align 4, !tbaa !4113, !dbg !4278
	%1 = load %struct.FieldFunction*, %struct.FieldFunction** %_T35351984_52617.addr, align 8, !tbaa !4114, !dbg !4278
	%2 = bitcast %struct.FieldFunction*  %1 to i8*, !dbg !4278
	%3 = getelementptr i8, i8*  %2, i64 12, !dbg !4278
	%4 = bitcast i8*  %3 to i32*, !dbg !4278
	store i32  %0, i32*  %4, align 4, !tbaa !4113, !dbg !4278
	ret void, !dbg !4278
}

%struct._ZSt9basic_iosIcSt11char_traitsIcEE = type <{ %struct._ZSt8ios_base, %struct._ZSo*, i8, i8, [6 x i8], %struct._ZSt15basic_streambufIcSt11char_traitsIcEE*, %struct._ZSt5ctypeIcE*, %struct._ZSt7num_putIcSt19ostreambuf_iteratorIcSt11char_traitsIcEEE*, %struct._ZSt7num_getIcSt19istreambuf_iteratorIcSt11char_traitsIcEEE*}> 
%struct.__locale_data = type opaque
%struct._ZNSt8ios_base6_WordsE = type <{ i8*, i64}> 
%struct._ZSt7num_getIcSt19istreambuf_iteratorIcSt11char_traitsIcEEE = type <{ %struct.__SO__NSt6locale5facetE, [4 x i8]}> 
%struct._ZNSt6locale5facetE = type <{ i32 (...)* (...)*, i32, [4 x i8]}> 
%struct._ZNSt6locale5_ImplE = type <{ i32, [4 x i8], %struct._ZNSt6locale5facetE**, i64, %struct._ZNSt6locale5facetE**, i8**}> 
%struct.__SO__NSt6locale5facetE = type <{ i32 (...)* (...)*, i32}> 
%struct.__locale_struct = type <{ [13 x %struct.__locale_data*], i16*, i32*, i32*, [13 x i8*]}> 
%struct._ZSt15basic_streambufIcSt11char_traitsIcEE = type <{ i32 (...)* (...)*, i8*, i8*, i8*, i8*, i8*, i8*, %struct._ZSt6locale}> 
%struct._ZSt5ctypeIcE = type <{ %struct.__SO__NSt6locale5facetE, [4 x i8], %struct.__locale_struct*, i8, [7 x i8], i32*, i32*, i16*, i8, [256 x i8], [256 x i8], i8, [6 x i8]}> 
%struct._ZSt6locale = type <{ %struct._ZNSt6locale5_ImplE*}> 
%struct._ZNSt8ios_base14_Callback_listE = type <{ %struct._ZNSt8ios_base14_Callback_listE*, void (i32, %struct._ZSt8ios_base*, i32)*, i32, i32}> 
%struct._ZSt7num_putIcSt19ostreambuf_iteratorIcSt11char_traitsIcEEE = type <{ %struct.__SO__NSt6locale5facetE, [4 x i8]}> 
%struct._ZSt8ios_base = type <{ i32 (...)* (...)*, i64, i64, i32, i32, i32, [4 x i8], %struct._ZNSt8ios_base14_Callback_listE*, %struct._ZNSt8ios_base6_WordsE, [8 x %struct._ZNSt8ios_base6_WordsE], i32, [4 x i8], %struct._ZNSt8ios_base6_WordsE*, %struct._ZSt6locale}> 
%struct._ZSo = type <{ i32 (...)* (...)*, %struct._ZSt9basic_iosIcSt11char_traitsIcEE}> 

define linkonce_odr void @_ZN13FieldFunction13setDerivativeEj(%struct.FieldFunction* %_T35352168_52618.arg, i32 zeroext %derivative.arg) #0 inlinehint !dbg !4282 {
L.entry:
	%_T35352168_52618.addr = alloca %struct.FieldFunction*, align 8
	%derivative.addr = alloca i32, align 4
	%..inline.addr = alloca %struct._ZSt9basic_iosIcSt11char_traitsIcEE*, align 8
	%..inline.addr.1 = alloca %struct._ZSt9basic_iosIcSt11char_traitsIcEE*, align 8
	%..inline.addr.2 = alloca i32, align 4
	%..inline.addr.3 = alloca i64, align 8
	%.Q0003.addr = alloca %struct._ZSo*, align 8
	%..inline.addr.4 = alloca i32, align 4
	%.Q0004.addr = alloca %struct._ZSo*, align 8
	%..inline.addr.5 = alloca %struct._ZSo*, align 8
	%.Q0005.addr = alloca %struct._ZSo*, align 8

	call void @llvm.dbg.declare (metadata %struct.FieldFunction** %_T35352168_52618.addr, metadata !4314, metadata !4106), !dbg !4283
	store %struct.FieldFunction* %_T35352168_52618.arg, %struct.FieldFunction** %_T35352168_52618.addr, align 8, !tbaa !4114
	call void @llvm.dbg.declare (metadata %struct.FieldFunction** %_T35352168_52618.addr, metadata !4315, metadata !4106), !dbg !4283
	call void @llvm.dbg.declare (metadata i32* %derivative.addr, metadata !4316, metadata !4106), !dbg !4283
	store i32 %derivative.arg, i32* %derivative.addr, align 4, !tbaa !4113
	call void @llvm.dbg.declare (metadata i32* %derivative.addr, metadata !4317, metadata !4106), !dbg !4283
	%0 = load i32, i32* %derivative.addr, align 4, !tbaa !4331, !dbg !4318
	%1 = load %struct.FieldFunction*, %struct.FieldFunction** %_T35352168_52618.addr, align 8, !tbaa !4114, !dbg !4318
	%2 = bitcast %struct.FieldFunction*  %1 to i8*, !dbg !4318
	%3 = getelementptr i8, i8*  %2, i64 16, !dbg !4318
	%4 = bitcast i8*  %3 to i32*, !dbg !4318
	store i32  %0, i32*  %4, align 4, !tbaa !4113, !dbg !4318
	%5 = icmp ule i32  %0, 1, !dbg !4319
	br i1  %5, label %L.B0000, label %L.B0001, !dbg !4319
L.B0001:
	%6 = bitcast [36 x i8]* @.S54294 to i8*, !dbg !4320
	%7 = icmp ne i8*  %6,  null, !dbg !4320
	br i1  %7, label %L..inline.74798, label %L.B1632, !dbg !4320
L.B1632:
	%8 = bitcast %struct._ZSo* @_ZSt4cerr to i8*, !dbg !4321
	%9 = bitcast %struct._ZSo* @_ZSt4cerr to i8**, !dbg !4321
	%10 = load i8*, i8**  %9, align 8, !tbaa !4114, !dbg !4321
	%11 = getelementptr i8, i8*  %10, i64 18446744073709551592, !dbg !4321
	%12 = bitcast i8*  %11 to i64*, !dbg !4321
	%13 = load i64, i64*  %12, align 8, !tbaa !4113, !dbg !4321
	%14 = getelementptr i8, i8*  %8, i64  %13, !dbg !4321
	%15 = bitcast %struct._ZSt9basic_iosIcSt11char_traitsIcEE** %..inline.addr to i8**, !dbg !4321
	store i8*  %14, i8**  %15, align 8, !tbaa !4114, !dbg !4321
	%16 = load %struct._ZSt9basic_iosIcSt11char_traitsIcEE*, %struct._ZSt9basic_iosIcSt11char_traitsIcEE** %..inline.addr, align 8, !tbaa !4114, !dbg !4321
	%17 = bitcast %struct._ZSt9basic_iosIcSt11char_traitsIcEE*  %16 to i8*, !dbg !4321
	%18 = bitcast %struct._ZSt9basic_iosIcSt11char_traitsIcEE** %..inline.addr.1 to i8**, !dbg !4321
	store i8*  %17, i8**  %18, align 8, !tbaa !4114, !dbg !4321
	%19 = load %struct._ZSt9basic_iosIcSt11char_traitsIcEE*, %struct._ZSt9basic_iosIcSt11char_traitsIcEE** %..inline.addr.1, align 8, !tbaa !4114, !dbg !4321
	%20 = bitcast %struct._ZSt9basic_iosIcSt11char_traitsIcEE*  %19 to i8*, !dbg !4321
	%21 = getelementptr i8, i8*  %20, i64 32, !dbg !4321
	%22 = bitcast i8*  %21 to i32*, !dbg !4321
	%23 = load i32, i32*  %22, align 4, !tbaa !4113, !dbg !4321
	%24 = or i32  %23, 1, !dbg !4321
	call void  @_ZNSt9basic_iosIcSt11char_traitsIcEE5clearESt12_Ios_Iostate (%struct._ZSt9basic_iosIcSt11char_traitsIcEE*  %16, i32  %24), !dbg !4321
	br label %L..inline.74819, !dbg !4321
L..inline.74798:
	%25 = bitcast [36 x i8]* @.S54294 to i8*, !dbg !4324
	%26 = call i64  @strlen (i8*  %25) nounwind, !dbg !4324
	%27 = call %struct._ZSo*  @_ZSt16__ostream_insertIcSt11char_traitsIcEERSt13basic_ostreamIT_T0_ES6_PKS3_l (%struct._ZSo* @_ZSt4cerr, i8*  %25, i64  %26), !dbg !4324
	%28 = bitcast %struct._ZSo*  %27 to i8*, !dbg !4324
	%29 = bitcast %struct._ZSo** %.Q0003.addr to i8**, !dbg !4324
	store i8*  %28, i8**  %29, align 8, !tbaa !4114, !dbg !4324
	br label %L..inline.74819
L..inline.74819:
	%30 = load i32, i32* %derivative.addr, align 4, !tbaa !4331, !dbg !4325
	%31 = zext i32  %30 to i64, !dbg !4326
	%32 = call %struct._ZSo*  @_ZNSo9_M_insertImEERSoT_ (%struct._ZSo* @_ZSt4cerr, i64  %31), !dbg !4326
	%33 = bitcast %struct._ZSo*  %32 to i8*, !dbg !4326
	%34 = bitcast %struct._ZSo** %.Q0004.addr to i8**, !dbg !4326
	store i8*  %33, i8**  %34, align 8, !tbaa !4114, !dbg !4326
	%35 = load %struct._ZSo*, %struct._ZSo** %.Q0004.addr, align 8, !tbaa !4114, !dbg !4326
	%36 = bitcast %struct._ZSo*  %35 to i8*, !dbg !4326
	%37 = bitcast %struct._ZSo** %..inline.addr.5 to i8**, !dbg !4326
	store i8*  %36, i8**  %37, align 8, !tbaa !4114, !dbg !4326
	%38 = load %struct._ZSo*, %struct._ZSo** %..inline.addr.5, align 8, !tbaa !4114, !dbg !4327
	%39 = call %struct._ZSo*  @_ZSt4endlIcSt11char_traitsIcEERSt13basic_ostreamIT_T0_ES6_ (%struct._ZSo*  %38), !dbg !4327
	%40 = bitcast %struct._ZSo*  %39 to i8*, !dbg !4327
	%41 = bitcast %struct._ZSo** %.Q0005.addr to i8**, !dbg !4327
	store i8*  %40, i8**  %41, align 8, !tbaa !4114, !dbg !4327
	call void  @exit (i32 1) nounwind noreturn, !dbg !4328
	br label %L.B0002
L.B0002:
	br label %L.B0000
L.B0000:
	ret void, !dbg !4329
}
define linkonce_odr void @_ZN13FieldFunctionD1Ev(%struct.FieldFunction* %_T35351984_52619.arg) #0 inlinehint !dbg !4333 {
L.entry:
	%_T35351984_52619.addr = alloca %struct.FieldFunction*, align 8

	call void @llvm.dbg.declare (metadata %struct.FieldFunction** %_T35351984_52619.addr, metadata !4345, metadata !4106), !dbg !4334
	store %struct.FieldFunction* %_T35351984_52619.arg, %struct.FieldFunction** %_T35351984_52619.addr, align 8, !tbaa !4114
	call void @llvm.dbg.declare (metadata %struct.FieldFunction** %_T35351984_52619.addr, metadata !4346, metadata !4106), !dbg !4334
	%0 = bitcast [5 x i32 (...)* (...)*]* @_ZTV13FieldFunction to i8*, !dbg !4347
	%1 = getelementptr i8, i8*  %0, i64 16, !dbg !4347
	%2 = load %struct.FieldFunction*, %struct.FieldFunction** %_T35351984_52619.addr, align 8, !tbaa !4114, !dbg !4347
	%3 = bitcast %struct.FieldFunction*  %2 to i8**, !dbg !4347
	store i8*  %1, i8**  %3, align 8, !tbaa !4114, !dbg !4347
	%4 = bitcast [5 x i32 (...)* (...)*]* @_ZTV11T3DFunction to i8*, !dbg !4347
	%5 = getelementptr i8, i8*  %4, i64 16, !dbg !4347
	store i8*  %5, i8**  %3, align 8, !tbaa !4114, !dbg !4347
	ret void, !dbg !4348
}
define linkonce_odr void @_ZN13FieldFunctionD0Ev(%struct.FieldFunction* %_T35351984_52620.arg) #0 inlinehint !dbg !4350 {
L.entry:
	%_T35351984_52620.addr = alloca %struct.FieldFunction*, align 8
	%..inline.addr = alloca %struct.FieldFunction*, align 8

	store %struct.FieldFunction* %_T35351984_52620.arg, %struct.FieldFunction** %_T35351984_52620.addr, align 8, !tbaa !4114
	%0 = load %struct.FieldFunction*, %struct.FieldFunction** %_T35351984_52620.addr, align 8, !tbaa !4114, !dbg !4366
	%1 = bitcast %struct.FieldFunction*  %0 to i8*, !dbg !4366
	%2 = bitcast %struct.FieldFunction** %..inline.addr to i8**, !dbg !4366
	store i8*  %1, i8**  %2, align 8, !tbaa !4114, !dbg !4366
	%3 = bitcast [5 x i32 (...)* (...)*]* @_ZTV13FieldFunction to i8*, !dbg !4366
	%4 = getelementptr i8, i8*  %3, i64 16, !dbg !4366
	%5 = load %struct.FieldFunction*, %struct.FieldFunction** %..inline.addr, align 8, !tbaa !4114, !dbg !4366
	%6 = bitcast %struct.FieldFunction*  %5 to i8**, !dbg !4366
	store i8*  %4, i8**  %6, align 8, !tbaa !4114, !dbg !4366
	%7 = bitcast [5 x i32 (...)* (...)*]* @_ZTV11T3DFunction to i8*, !dbg !4366
	%8 = getelementptr i8, i8*  %7, i64 16, !dbg !4366
	store i8*  %8, i8**  %6, align 8, !tbaa !4114, !dbg !4366
	call void  @_ZdlPvm (i8*  %1, i64 24) nounwind, !dbg !4366
	ret void, !dbg !4366
}
define linkonce_odr void @_ZN13FieldFunctionD2Ev(%struct.FieldFunction* %_T35351984_52621.arg) #0 inlinehint !dbg !4368 {
L.entry:
	%_T35351984_52621.addr = alloca %struct.FieldFunction*, align 8
	%..inline.addr = alloca %struct.FieldFunction*, align 8

	store %struct.FieldFunction* %_T35351984_52621.arg, %struct.FieldFunction** %_T35351984_52621.addr, align 8, !tbaa !4114
	%0 = load %struct.FieldFunction*, %struct.FieldFunction** %_T35351984_52621.addr, align 8, !tbaa !4114, !dbg !4384
	%1 = bitcast %struct.FieldFunction*  %0 to i8*, !dbg !4384
	%2 = bitcast %struct.FieldFunction** %..inline.addr to i8**, !dbg !4384
	store i8*  %1, i8**  %2, align 8, !tbaa !4114, !dbg !4384
	%3 = bitcast [5 x i32 (...)* (...)*]* @_ZTV13FieldFunction to i8*, !dbg !4384
	%4 = getelementptr i8, i8*  %3, i64 16, !dbg !4384
	%5 = load %struct.FieldFunction*, %struct.FieldFunction** %..inline.addr, align 8, !tbaa !4114, !dbg !4384
	%6 = bitcast %struct.FieldFunction*  %5 to i8**, !dbg !4384
	store i8*  %4, i8**  %6, align 8, !tbaa !4114, !dbg !4384
	%7 = bitcast [5 x i32 (...)* (...)*]* @_ZTV11T3DFunction to i8*, !dbg !4384
	%8 = getelementptr i8, i8*  %7, i64 16, !dbg !4384
	store i8*  %8, i8**  %6, align 8, !tbaa !4114, !dbg !4384
	ret void, !dbg !4384
}

%struct.__SO__13FieldFunction = type <{ %struct.T3DFunction, i32, i32, i32}> 
%struct.ConstantField = type <{ %struct.__SO__13FieldFunction, i8, [3 x i8], [3 x double]}> 

define linkonce_odr void @_ZN13ConstantFieldC1Ev(%struct.ConstantField* %_T35352168_52622.arg) #0 inlinehint !dbg !4391 {
L.entry:
	%_T35352168_52622.addr = alloca %struct.ConstantField*, align 8
	%..inline.addr = alloca %struct.FieldFunction*, align 8

	call void @llvm.dbg.declare (metadata %struct.ConstantField** %_T35352168_52622.addr, metadata !4399, metadata !4106), !dbg !4392
	store %struct.ConstantField* %_T35352168_52622.arg, %struct.ConstantField** %_T35352168_52622.addr, align 8, !tbaa !4114
	call void @llvm.dbg.declare (metadata %struct.ConstantField** %_T35352168_52622.addr, metadata !4400, metadata !4106), !dbg !4392
	%0 = load %struct.ConstantField*, %struct.ConstantField** %_T35352168_52622.addr, align 8, !tbaa !4114, !dbg !4401
	%1 = bitcast %struct.ConstantField*  %0 to i8*, !dbg !4401
	%2 = bitcast %struct.FieldFunction** %..inline.addr to i8**, !dbg !4401
	store i8*  %1, i8**  %2, align 8, !tbaa !4114, !dbg !4401
	%3 = load %struct.FieldFunction*, %struct.FieldFunction** %..inline.addr, align 8, !tbaa !4114, !dbg !4401
	call void  @_ZN13FieldFunctionC1Ev (%struct.FieldFunction*  %3), !dbg !4401
	%4 = bitcast [5 x i32 (...)* (...)*]* @_ZTV13ConstantField to i8*, !dbg !4401
	%5 = getelementptr i8, i8*  %4, i64 16, !dbg !4401
	%6 = load %struct.ConstantField*, %struct.ConstantField** %_T35352168_52622.addr, align 8, !tbaa !4114, !dbg !4401
	%7 = bitcast %struct.ConstantField*  %6 to i8**, !dbg !4401
	store i8*  %5, i8**  %7, align 8, !tbaa !4114, !dbg !4401
	%8 = bitcast %struct.ConstantField*  %6 to i8*, !dbg !4404
	%9 = getelementptr i8, i8*  %8, i64 20, !dbg !4404
	store i8 0, i8*  %9, align 1, !tbaa !4113, !dbg !4404
	ret void, !dbg !4405
}
define linkonce_odr void @_ZN13ConstantFieldC2Ev(%struct.ConstantField* %_T35351984_52623.arg) #0 inlinehint !dbg !4407 {
L.entry:
	%_T35351984_52623.addr = alloca %struct.ConstantField*, align 8
	%..inline.addr = alloca %struct.ConstantField*, align 8
	%..inline.addr.1 = alloca %struct.FieldFunction*, align 8

	store %struct.ConstantField* %_T35351984_52623.arg, %struct.ConstantField** %_T35351984_52623.addr, align 8, !tbaa !4114
	%0 = load %struct.ConstantField*, %struct.ConstantField** %_T35351984_52623.addr, align 8, !tbaa !4114, !dbg !4419
	%1 = bitcast %struct.ConstantField*  %0 to i8*, !dbg !4419
	%2 = bitcast %struct.ConstantField** %..inline.addr to i8**, !dbg !4419
	store i8*  %1, i8**  %2, align 8, !tbaa !4114, !dbg !4419
	%3 = load %struct.ConstantField*, %struct.ConstantField** %..inline.addr, align 8, !tbaa !4114, !dbg !4420
	%4 = bitcast %struct.ConstantField*  %3 to i8*, !dbg !4420
	%5 = bitcast %struct.FieldFunction** %..inline.addr.1 to i8**, !dbg !4420
	store i8*  %4, i8**  %5, align 8, !tbaa !4114, !dbg !4420
	%6 = load %struct.FieldFunction*, %struct.FieldFunction** %..inline.addr.1, align 8, !tbaa !4114, !dbg !4420
	call void  @_ZN13FieldFunctionC1Ev (%struct.FieldFunction*  %6), !dbg !4420
	%7 = bitcast [5 x i32 (...)* (...)*]* @_ZTV13ConstantField to i8*, !dbg !4420
	%8 = getelementptr i8, i8*  %7, i64 16, !dbg !4420
	%9 = load %struct.ConstantField*, %struct.ConstantField** %..inline.addr, align 8, !tbaa !4114, !dbg !4420
	%10 = bitcast %struct.ConstantField*  %9 to i8**, !dbg !4420
	store i8*  %8, i8**  %10, align 8, !tbaa !4114, !dbg !4420
	%11 = bitcast %struct.ConstantField*  %9 to i8*, !dbg !4420
	%12 = getelementptr i8, i8*  %11, i64 20, !dbg !4420
	store i8 0, i8*  %12, align 1, !tbaa !4113, !dbg !4420
	ret void, !dbg !4419
}
define linkonce_odr void @_ZN13ConstantFieldD1Ev(%struct.ConstantField* %_T35351984_52624.arg) #0 inlinehint !dbg !4422 {
L.entry:
	%_T35351984_52624.addr = alloca %struct.ConstantField*, align 8
	%..inline.addr = alloca %struct.FieldFunction*, align 8

	call void @llvm.dbg.declare (metadata %struct.ConstantField** %_T35351984_52624.addr, metadata !4442, metadata !4106), !dbg !4423
	store %struct.ConstantField* %_T35351984_52624.arg, %struct.ConstantField** %_T35351984_52624.addr, align 8, !tbaa !4114
	call void @llvm.dbg.declare (metadata %struct.ConstantField** %_T35351984_52624.addr, metadata !4443, metadata !4106), !dbg !4423
	%0 = bitcast [5 x i32 (...)* (...)*]* @_ZTV13ConstantField to i8*, !dbg !4444
	%1 = getelementptr i8, i8*  %0, i64 16, !dbg !4444
	%2 = load %struct.ConstantField*, %struct.ConstantField** %_T35351984_52624.addr, align 8, !tbaa !4114, !dbg !4444
	%3 = bitcast %struct.ConstantField*  %2 to i8**, !dbg !4444
	store i8*  %1, i8**  %3, align 8, !tbaa !4114, !dbg !4444
	%4 = bitcast %struct.ConstantField*  %2 to i8*, !dbg !4444
	%5 = bitcast %struct.FieldFunction** %..inline.addr to i8**, !dbg !4444
	store i8*  %4, i8**  %5, align 8, !tbaa !4114, !dbg !4444
	%6 = bitcast [5 x i32 (...)* (...)*]* @_ZTV13FieldFunction to i8*, !dbg !4444
	%7 = getelementptr i8, i8*  %6, i64 16, !dbg !4444
	%8 = load %struct.FieldFunction*, %struct.FieldFunction** %..inline.addr, align 8, !tbaa !4114, !dbg !4444
	%9 = bitcast %struct.FieldFunction*  %8 to i8**, !dbg !4444
	store i8*  %7, i8**  %9, align 8, !tbaa !4114, !dbg !4444
	%10 = bitcast [5 x i32 (...)* (...)*]* @_ZTV11T3DFunction to i8*, !dbg !4444
	%11 = getelementptr i8, i8*  %10, i64 16, !dbg !4444
	store i8*  %11, i8**  %9, align 8, !tbaa !4114, !dbg !4444
	ret void, !dbg !4444
}
define linkonce_odr void @_ZN13ConstantFieldD0Ev(%struct.ConstantField* %_T35351984_52625.arg) #0 inlinehint !dbg !4446 {
L.entry:
	%_T35351984_52625.addr = alloca %struct.ConstantField*, align 8
	%..inline.addr = alloca %struct.ConstantField*, align 8
	%..inline.addr.1 = alloca %struct.FieldFunction*, align 8

	store %struct.ConstantField* %_T35351984_52625.arg, %struct.ConstantField** %_T35351984_52625.addr, align 8, !tbaa !4114
	%0 = load %struct.ConstantField*, %struct.ConstantField** %_T35351984_52625.addr, align 8, !tbaa !4114, !dbg !4470
	%1 = bitcast %struct.ConstantField*  %0 to i8*, !dbg !4470
	%2 = bitcast %struct.ConstantField** %..inline.addr to i8**, !dbg !4470
	store i8*  %1, i8**  %2, align 8, !tbaa !4114, !dbg !4470
	%3 = bitcast [5 x i32 (...)* (...)*]* @_ZTV13ConstantField to i8*, !dbg !4470
	%4 = getelementptr i8, i8*  %3, i64 16, !dbg !4470
	%5 = load %struct.ConstantField*, %struct.ConstantField** %..inline.addr, align 8, !tbaa !4114, !dbg !4470
	%6 = bitcast %struct.ConstantField*  %5 to i8**, !dbg !4470
	store i8*  %4, i8**  %6, align 8, !tbaa !4114, !dbg !4470
	%7 = bitcast %struct.ConstantField*  %5 to i8*, !dbg !4470
	%8 = bitcast %struct.FieldFunction** %..inline.addr.1 to i8**, !dbg !4470
	store i8*  %7, i8**  %8, align 8, !tbaa !4114, !dbg !4470
	%9 = bitcast [5 x i32 (...)* (...)*]* @_ZTV13FieldFunction to i8*, !dbg !4470
	%10 = getelementptr i8, i8*  %9, i64 16, !dbg !4470
	store i8*  %10, i8**  %6, align 8, !tbaa !4114, !dbg !4470
	%11 = bitcast [5 x i32 (...)* (...)*]* @_ZTV11T3DFunction to i8*, !dbg !4470
	%12 = getelementptr i8, i8*  %11, i64 16, !dbg !4470
	%13 = load %struct.FieldFunction*, %struct.FieldFunction** %..inline.addr.1, align 8, !tbaa !4114, !dbg !4470
	%14 = bitcast %struct.FieldFunction*  %13 to i8**, !dbg !4470
	store i8*  %12, i8**  %14, align 8, !tbaa !4114, !dbg !4470
	call void  @_ZdlPvm (i8*  %1, i64 48) nounwind, !dbg !4470
	ret void, !dbg !4470
}
define linkonce_odr void @_ZN13ConstantFieldD2Ev(%struct.ConstantField* %_T35351984_52626.arg) #0 inlinehint !dbg !4472 {
L.entry:
	%_T35351984_52626.addr = alloca %struct.ConstantField*, align 8
	%..inline.addr = alloca %struct.ConstantField*, align 8
	%..inline.addr.1 = alloca %struct.FieldFunction*, align 8

	store %struct.ConstantField* %_T35351984_52626.arg, %struct.ConstantField** %_T35351984_52626.addr, align 8, !tbaa !4114
	%0 = load %struct.ConstantField*, %struct.ConstantField** %_T35351984_52626.addr, align 8, !tbaa !4114, !dbg !4496
	%1 = bitcast %struct.ConstantField*  %0 to i8*, !dbg !4496
	%2 = bitcast %struct.ConstantField** %..inline.addr to i8**, !dbg !4496
	store i8*  %1, i8**  %2, align 8, !tbaa !4114, !dbg !4496
	%3 = bitcast [5 x i32 (...)* (...)*]* @_ZTV13ConstantField to i8*, !dbg !4496
	%4 = getelementptr i8, i8*  %3, i64 16, !dbg !4496
	%5 = load %struct.ConstantField*, %struct.ConstantField** %..inline.addr, align 8, !tbaa !4114, !dbg !4496
	%6 = bitcast %struct.ConstantField*  %5 to i8**, !dbg !4496
	store i8*  %4, i8**  %6, align 8, !tbaa !4114, !dbg !4496
	%7 = bitcast %struct.ConstantField*  %5 to i8*, !dbg !4496
	%8 = bitcast %struct.FieldFunction** %..inline.addr.1 to i8**, !dbg !4496
	store i8*  %7, i8**  %8, align 8, !tbaa !4114, !dbg !4496
	%9 = bitcast [5 x i32 (...)* (...)*]* @_ZTV13FieldFunction to i8*, !dbg !4496
	%10 = getelementptr i8, i8*  %9, i64 16, !dbg !4496
	store i8*  %10, i8**  %6, align 8, !tbaa !4114, !dbg !4496
	%11 = bitcast [5 x i32 (...)* (...)*]* @_ZTV11T3DFunction to i8*, !dbg !4496
	%12 = getelementptr i8, i8*  %11, i64 16, !dbg !4496
	%13 = load %struct.FieldFunction*, %struct.FieldFunction** %..inline.addr.1, align 8, !tbaa !4114, !dbg !4496
	%14 = bitcast %struct.FieldFunction*  %13 to i8**, !dbg !4496
	store i8*  %12, i8**  %14, align 8, !tbaa !4114, !dbg !4496
	ret void, !dbg !4496
}
define linkonce_odr void @_ZNSt11char_traitsIcE6assignERcRKc(i8* %__c1.arg, i8* %__c2.arg) #0 inlinehint !dbg !4503 {
L.entry:
	%__c1.addr = alloca i8*, align 8
	%__c2.addr = alloca i8*, align 8

	call void @llvm.dbg.declare (metadata i8** %__c1.addr, metadata !4507, metadata !4106), !dbg !4504
	store i8* %__c1.arg, i8** %__c1.addr, align 8, !tbaa !4114
	call void @llvm.dbg.declare (metadata i8** %__c1.addr, metadata !4508, metadata !4106), !dbg !4504
	call void @llvm.dbg.declare (metadata i8** %__c2.addr, metadata !4509, metadata !4106), !dbg !4504
	store i8* %__c2.arg, i8** %__c2.addr, align 8, !tbaa !4114
	call void @llvm.dbg.declare (metadata i8** %__c2.addr, metadata !4510, metadata !4106), !dbg !4504
	%0 = load i8*, i8** %__c2.addr, align 8, !tbaa !4114, !dbg !4511
	%1 = load i8, i8*  %0, align 1, !tbaa !4113, !dbg !4511
	%2 = load i8*, i8** %__c1.addr, align 8, !tbaa !4114, !dbg !4511
	store i8  %1, i8*  %2, align 1, !tbaa !4113, !dbg !4511
	ret void, !dbg !4511
}
define linkonce_odr i64 @_ZNSt11char_traitsIcE6lengthEPKc(i8* %__s.arg) #0 inlinehint !dbg !4515 {
L.entry:
	%__s.addr = alloca i8*, align 8

	call void @llvm.dbg.declare (metadata i8** %__s.addr, metadata !4519, metadata !4106), !dbg !4516
	store i8* %__s.arg, i8** %__s.addr, align 8, !tbaa !4114
	call void @llvm.dbg.declare (metadata i8** %__s.addr, metadata !4520, metadata !4106), !dbg !4516
	%0 = load i8*, i8** %__s.addr, align 8, !tbaa !4114, !dbg !4521
	%1 = call i64  @strlen (i8*  %0) nounwind, !dbg !4521
	ret i64  %1, !dbg !4521
}
define linkonce_odr i8* @_ZNSt11char_traitsIcE4copyEPcPKcm(i8* %__s1.arg, i8* %__s2.arg, i64 %__n.arg) #0 inlinehint !dbg !4526 {
L.entry:
	%__s1.addr = alloca i8*, align 8
	%__s2.addr = alloca i8*, align 8
	%__n.addr = alloca i64, align 8

	call void @llvm.dbg.declare (metadata i8** %__s1.addr, metadata !4530, metadata !4106), !dbg !4527
	store i8* %__s1.arg, i8** %__s1.addr, align 8, !tbaa !4114
	call void @llvm.dbg.declare (metadata i8** %__s1.addr, metadata !4531, metadata !4106), !dbg !4527
	call void @llvm.dbg.declare (metadata i8** %__s2.addr, metadata !4532, metadata !4106), !dbg !4527
	store i8* %__s2.arg, i8** %__s2.addr, align 8, !tbaa !4114
	call void @llvm.dbg.declare (metadata i8** %__s2.addr, metadata !4533, metadata !4106), !dbg !4527
	call void @llvm.dbg.declare (metadata i64* %__n.addr, metadata !4534, metadata !4106), !dbg !4527
	store i64 %__n.arg, i64* %__n.addr, align 8, !tbaa !4113
	call void @llvm.dbg.declare (metadata i64* %__n.addr, metadata !4535, metadata !4106), !dbg !4527
	%0 = load i64, i64* %__n.addr, align 8, !tbaa !4541, !dbg !4536
	%1 = icmp ne i64  %0, 0, !dbg !4536
	br i1  %1, label %L.B0004, label %L.B1649, !dbg !4536
L.B1649:
	%2 = load i8*, i8** %__s1.addr, align 8, !tbaa !4114, !dbg !4537
	ret i8*  %2, !dbg !4537
L.B1650:
	br label %L.R0022, !dbg !4537
L.B0004:
	%3 = load i8*, i8** %__s1.addr, align 8, !tbaa !4114, !dbg !4538
	%4 = load i8*, i8** %__s2.addr, align 8, !tbaa !4114, !dbg !4538
	%5 = load i64, i64* %__n.addr, align 8, !tbaa !4541, !dbg !4538
	%6 = call i8*  @memcpy (i8*  %3, i8*  %4, i64  %5) nounwind, !dbg !4538
	ret i8*  %6, !dbg !4538
L.R0022:
	ret i8* null
}

%struct._ZSaIcE = type <{ [1 x i8]}> 

define linkonce_odr void @_ZNSaIcEC1Ev(%struct._ZSaIcE* %_T35351984_52635.arg) #0 inlinehint !dbg !4548 {
L.entry:
	%_T35351984_52635.addr = alloca %struct._ZSaIcE*, align 8

	call void @llvm.dbg.declare (metadata %struct._ZSaIcE** %_T35351984_52635.addr, metadata !4552, metadata !4106), !dbg !4549
	store %struct._ZSaIcE* %_T35351984_52635.arg, %struct._ZSaIcE** %_T35351984_52635.addr, align 8, !tbaa !4114
	call void @llvm.dbg.declare (metadata %struct._ZSaIcE** %_T35351984_52635.addr, metadata !4553, metadata !4106), !dbg !4549
	ret void, !dbg !4554
}
define linkonce_odr void @_ZNSaIcEC2Ev(%struct._ZSaIcE* %_T35351984_52636.arg) #0 inlinehint !dbg !4556 {
L.entry:
	%_T35351984_52636.addr = alloca %struct._ZSaIcE*, align 8

	store %struct._ZSaIcE* %_T35351984_52636.arg, %struct._ZSaIcE** %_T35351984_52636.addr, align 8, !tbaa !4114
	ret void, !dbg !4564
}
define linkonce_odr void @_ZNSaIcEC1ERKS_(%struct._ZSaIcE* %_T35351984_52637.arg, %struct._ZSaIcE* %__a.arg) #0 inlinehint !dbg !4572 {
L.entry:
	%_T35351984_52637.addr = alloca %struct._ZSaIcE*, align 8
	%__a.addr = alloca %struct._ZSaIcE*, align 8

	call void @llvm.dbg.declare (metadata %struct._ZSaIcE** %_T35351984_52637.addr, metadata !4576, metadata !4106), !dbg !4573
	store %struct._ZSaIcE* %_T35351984_52637.arg, %struct._ZSaIcE** %_T35351984_52637.addr, align 8, !tbaa !4114
	call void @llvm.dbg.declare (metadata %struct._ZSaIcE** %_T35351984_52637.addr, metadata !4577, metadata !4106), !dbg !4573
	call void @llvm.dbg.declare (metadata %struct._ZSaIcE** %__a.addr, metadata !4578, metadata !4106), !dbg !4573
	store %struct._ZSaIcE* %__a.arg, %struct._ZSaIcE** %__a.addr, align 8, !tbaa !4114
	call void @llvm.dbg.declare (metadata %struct._ZSaIcE** %__a.addr, metadata !4579, metadata !4106), !dbg !4573
	ret void, !dbg !4580
}
define linkonce_odr void @_ZNSaIcEC2ERKS_(%struct._ZSaIcE* %_T35351984_52638.arg, %struct._ZSaIcE* %_T35352280_52638.arg) #0 inlinehint !dbg !4582 {
L.entry:
	%_T35351984_52638.addr = alloca %struct._ZSaIcE*, align 8
	%_T35352280_52638.addr = alloca %struct._ZSaIcE*, align 8

	store %struct._ZSaIcE* %_T35351984_52638.arg, %struct._ZSaIcE** %_T35351984_52638.addr, align 8, !tbaa !4114
	store %struct._ZSaIcE* %_T35352280_52638.arg, %struct._ZSaIcE** %_T35352280_52638.addr, align 8, !tbaa !4114
	ret void, !dbg !4590
}
define linkonce_odr void @_ZNSaIcED1Ev(%struct._ZSaIcE* %_T35351984_52639.arg) #0 inlinehint !dbg !4592 {
L.entry:
	%_T35351984_52639.addr = alloca %struct._ZSaIcE*, align 8

	call void @llvm.dbg.declare (metadata %struct._ZSaIcE** %_T35351984_52639.addr, metadata !4596, metadata !4106), !dbg !4593
	store %struct._ZSaIcE* %_T35351984_52639.arg, %struct._ZSaIcE** %_T35351984_52639.addr, align 8, !tbaa !4114
	call void @llvm.dbg.declare (metadata %struct._ZSaIcE** %_T35351984_52639.addr, metadata !4597, metadata !4106), !dbg !4593
	ret void, !dbg !4598
}
define linkonce_odr void @_ZNSaIcED2Ev(%struct._ZSaIcE* %_T35351984_52640.arg) #0 inlinehint !dbg !4600 {
L.entry:
	%_T35351984_52640.addr = alloca %struct._ZSaIcE*, align 8

	store %struct._ZSaIcE* %_T35351984_52640.arg, %struct._ZSaIcE** %_T35351984_52640.addr, align 8, !tbaa !4114
	ret void, !dbg !4608
}
define linkonce_odr void @_ZNSt16allocator_traitsISaIcEE10deallocateERS0_Pcm(%struct._ZSaIcE* %__a.arg, i8* %__p.arg, i64 %__n.arg) #0 inlinehint !dbg !4618 {
L.entry:
	%__a.addr = alloca %struct._ZSaIcE*, align 8
	%__p.addr = alloca i8*, align 8
	%__n.addr = alloca i64, align 8
	%..inline.addr = alloca i8*, align 8

	call void @llvm.dbg.declare (metadata %struct._ZSaIcE** %__a.addr, metadata !4626, metadata !4106), !dbg !4619
	store %struct._ZSaIcE* %__a.arg, %struct._ZSaIcE** %__a.addr, align 8, !tbaa !4114
	call void @llvm.dbg.declare (metadata %struct._ZSaIcE** %__a.addr, metadata !4627, metadata !4106), !dbg !4619
	call void @llvm.dbg.declare (metadata i8** %__p.addr, metadata !4628, metadata !4106), !dbg !4619
	store i8* %__p.arg, i8** %__p.addr, align 8, !tbaa !4114
	call void @llvm.dbg.declare (metadata i8** %__p.addr, metadata !4629, metadata !4106), !dbg !4619
	call void @llvm.dbg.declare (metadata i64* %__n.addr, metadata !4630, metadata !4106), !dbg !4619
	store i64 %__n.arg, i64* %__n.addr, align 8, !tbaa !4113
	call void @llvm.dbg.declare (metadata i64* %__n.addr, metadata !4631, metadata !4106), !dbg !4619
	%0 = load i8*, i8** %__p.addr, align 8, !tbaa !4114, !dbg !4632
	call void  @_ZdlPv (i8*  %0) nounwind, !dbg !4633
	ret void, !dbg !4632
}
define linkonce_odr i64 @_ZNSt16allocator_traitsISaIcEE8max_sizeERKS0_(%struct._ZSaIcE* %__a.arg) #0 inlinehint !dbg !4641 {
L.entry:
	%__a.addr = alloca %struct._ZSaIcE*, align 8

	call void @llvm.dbg.declare (metadata %struct._ZSaIcE** %__a.addr, metadata !4649, metadata !4106), !dbg !4642
	store %struct._ZSaIcE* %__a.arg, %struct._ZSaIcE** %__a.addr, align 8, !tbaa !4114
	call void @llvm.dbg.declare (metadata %struct._ZSaIcE** %__a.addr, metadata !4650, metadata !4106), !dbg !4642
	ret i64 -1, !dbg !4651
}
define linkonce_odr void @_ZNSt16allocator_traitsISaIcEE37select_on_container_copy_constructionERKS0_(%struct._ZSaIcE* sret %_T35351984_52648.arg, %struct._ZSaIcE* %__rhs.arg) #0 inlinehint !dbg !4656 {
L.entry:
	%_T35351984_52648.addr = alloca %struct._ZSaIcE*, align 8
	%__rhs.addr = alloca %struct._ZSaIcE*, align 8

	store %struct._ZSaIcE* %_T35351984_52648.arg, %struct._ZSaIcE** %_T35351984_52648.addr, align 8, !tbaa !4114
	call void @llvm.dbg.declare (metadata %struct._ZSaIcE** %__rhs.addr, metadata !4660, metadata !4106), !dbg !4657
	store %struct._ZSaIcE* %__rhs.arg, %struct._ZSaIcE** %__rhs.addr, align 8, !tbaa !4114
	call void @llvm.dbg.declare (metadata %struct._ZSaIcE** %__rhs.addr, metadata !4661, metadata !4106), !dbg !4657
	ret void, !dbg !4662
}
define linkonce_odr signext i8 @_ZNKSt5ctypeIcE5widenEc(%struct._ZSt5ctypeIcE* %_T35352168_52652.arg, i8 signext %__c.arg) #0 inlinehint !dbg !4668 {
L.entry:
	%_T35352168_52652.addr = alloca %struct._ZSt5ctypeIcE*, align 8
	%__c.addr = alloca i8, align 1
	%.Q0006.addr = alloca i32, align 4

	call void @llvm.dbg.declare (metadata %struct._ZSt5ctypeIcE** %_T35352168_52652.addr, metadata !4672, metadata !4106), !dbg !4669
	store %struct._ZSt5ctypeIcE* %_T35352168_52652.arg, %struct._ZSt5ctypeIcE** %_T35352168_52652.addr, align 8, !tbaa !4114
	call void @llvm.dbg.declare (metadata %struct._ZSt5ctypeIcE** %_T35352168_52652.addr, metadata !4673, metadata !4106), !dbg !4669
	call void @llvm.dbg.declare (metadata i8* %__c.addr, metadata !4674, metadata !4106), !dbg !4669
	store i8 %__c.arg, i8* %__c.addr, align 1, !tbaa !4113
	call void @llvm.dbg.declare (metadata i8* %__c.addr, metadata !4675, metadata !4106), !dbg !4669
	%0 = load %struct._ZSt5ctypeIcE*, %struct._ZSt5ctypeIcE** %_T35352168_52652.addr, align 8, !tbaa !4114, !dbg !4676
	%1 = bitcast %struct._ZSt5ctypeIcE*  %0 to i8*, !dbg !4676
	%2 = getelementptr i8, i8*  %1, i64 56, !dbg !4676
	%3 = load i8, i8*  %2, align 1, !tbaa !4113, !dbg !4676
	%4 = sext i8  %3 to i32, !dbg !4676
	%5 = icmp eq i32  %4, 0, !dbg !4676
	br i1  %5, label %L.B0005, label %L.B1661, !dbg !4676
L.B1661:
	%6 = bitcast %struct._ZSt5ctypeIcE*  %0 to i8*, !dbg !4677
	%7 = getelementptr i8, i8*  %6, i64 57, !dbg !4677
	%8 = load i8, i8* %__c.addr, align 1, !tbaa !4113, !dbg !4677
	%9 = sext i8  %8 to i32, !dbg !4677
	%10 = and i32  %9, 255, !dbg !4677
	%11 = sext i32  %10 to i64, !dbg !4677
	%12 = getelementptr i8, i8*  %7, i64  %11, !dbg !4677
	%13 = load i8, i8*  %12, align 1, !tbaa !4113, !dbg !4677
	ret i8  %13, !dbg !4677
L.B1662:
	br label %L.R0032, !dbg !4677
L.B0005:
	%14 = load %struct._ZSt5ctypeIcE*, %struct._ZSt5ctypeIcE** %_T35352168_52652.addr, align 8, !tbaa !4114, !dbg !4678
	call void  @_ZNKSt5ctypeIcE13_M_widen_initEv (%struct._ZSt5ctypeIcE*  %14), !dbg !4678
	%15 = load %struct._ZSt5ctypeIcE*, %struct._ZSt5ctypeIcE** %_T35352168_52652.addr, align 8, !tbaa !4114, !dbg !4679
	%16 = load i8, i8* %__c.addr, align 1, !tbaa !4113, !dbg !4679
	%17 = bitcast %struct._ZSt5ctypeIcE*  %15 to i8**, !dbg !4679
	%18 = load i8*, i8**  %17, align 8, !tbaa !4114, !dbg !4679
	%19 = getelementptr i8, i8*  %18, i64 48, !dbg !4679
	%20 = bitcast i8*  %19 to i8 (%struct._ZSt5ctypeIcE*, i8)**, !dbg !4679
	%21 = load i8 (%struct._ZSt5ctypeIcE*, i8)*, i8 (%struct._ZSt5ctypeIcE*, i8)**  %20, align 8, !tbaa !4114, !dbg !4679
	%22 = call i8  %21 (%struct._ZSt5ctypeIcE*  %15, i8  %16), !dbg !4679
	%23 = sext i8  %22 to i32, !dbg !4679
	store i32  %23, i32* %.Q0006.addr, align 4, !tbaa !4331, !dbg !4679
	%24 = shl i32  %23, 24, !dbg !4679
	%25 = ashr i32  %24, 24, !dbg !4679
	%26 = trunc i32  %25 to i8, !dbg !4679
	ret i8  %26, !dbg !4679
L.R0032:
	ret i8 0
}
define linkonce_odr signext i32 @_ZNKSt9basic_iosIcSt11char_traitsIcEE7rdstateEv(%struct._ZSt9basic_iosIcSt11char_traitsIcEE* %_T35351984_52655.arg) #0 inlinehint !dbg !4687 {
L.entry:
	%_T35351984_52655.addr = alloca %struct._ZSt9basic_iosIcSt11char_traitsIcEE*, align 8

	call void @llvm.dbg.declare (metadata %struct._ZSt9basic_iosIcSt11char_traitsIcEE** %_T35351984_52655.addr, metadata !4691, metadata !4106), !dbg !4688
	store %struct._ZSt9basic_iosIcSt11char_traitsIcEE* %_T35351984_52655.arg, %struct._ZSt9basic_iosIcSt11char_traitsIcEE** %_T35351984_52655.addr, align 8, !tbaa !4114
	call void @llvm.dbg.declare (metadata %struct._ZSt9basic_iosIcSt11char_traitsIcEE** %_T35351984_52655.addr, metadata !4692, metadata !4106), !dbg !4688
	%0 = load %struct._ZSt9basic_iosIcSt11char_traitsIcEE*, %struct._ZSt9basic_iosIcSt11char_traitsIcEE** %_T35351984_52655.addr, align 8, !tbaa !4114, !dbg !4693
	%1 = bitcast %struct._ZSt9basic_iosIcSt11char_traitsIcEE*  %0 to i8*, !dbg !4693
	%2 = getelementptr i8, i8*  %1, i64 32, !dbg !4693
	%3 = bitcast i8*  %2 to i32*, !dbg !4693
	%4 = load i32, i32*  %3, align 4, !tbaa !4113, !dbg !4693
	ret i32  %4, !dbg !4693
}
define linkonce_odr void @_ZNSt9basic_iosIcSt11char_traitsIcEE8setstateESt12_Ios_Iostate(%struct._ZSt9basic_iosIcSt11char_traitsIcEE* %_T35351984_52659.arg, i32 signext %__state.arg) #0 inlinehint !dbg !4697 {
L.entry:
	%_T35351984_52659.addr = alloca %struct._ZSt9basic_iosIcSt11char_traitsIcEE*, align 8
	%__state.addr = alloca i32, align 4
	%..inline.addr = alloca i32, align 4

	call void @llvm.dbg.declare (metadata %struct._ZSt9basic_iosIcSt11char_traitsIcEE** %_T35351984_52659.addr, metadata !4709, metadata !4106), !dbg !4698
	store %struct._ZSt9basic_iosIcSt11char_traitsIcEE* %_T35351984_52659.arg, %struct._ZSt9basic_iosIcSt11char_traitsIcEE** %_T35351984_52659.addr, align 8, !tbaa !4114
	call void @llvm.dbg.declare (metadata %struct._ZSt9basic_iosIcSt11char_traitsIcEE** %_T35351984_52659.addr, metadata !4710, metadata !4106), !dbg !4698
	call void @llvm.dbg.declare (metadata i32* %__state.addr, metadata !4711, metadata !4106), !dbg !4698
	store i32 %__state.arg, i32* %__state.addr, align 4, !tbaa !4113
	call void @llvm.dbg.declare (metadata i32* %__state.addr, metadata !4712, metadata !4106), !dbg !4698
	%0 = load i32, i32* %__state.addr, align 4, !tbaa !4113, !dbg !4713
	%1 = load %struct._ZSt9basic_iosIcSt11char_traitsIcEE*, %struct._ZSt9basic_iosIcSt11char_traitsIcEE** %_T35351984_52659.addr, align 8, !tbaa !4114, !dbg !4713
	%2 = bitcast %struct._ZSt9basic_iosIcSt11char_traitsIcEE*  %1 to i8*, !dbg !4713
	%3 = getelementptr i8, i8*  %2, i64 32, !dbg !4713
	%4 = bitcast i8*  %3 to i32*, !dbg !4713
	%5 = load i32, i32*  %4, align 4, !tbaa !4113, !dbg !4713
	%6 = or i32  %0,  %5, !dbg !4713
	call void  @_ZNSt9basic_iosIcSt11char_traitsIcEE5clearESt12_Ios_Iostate (%struct._ZSt9basic_iosIcSt11char_traitsIcEE*  %1, i32  %6), !dbg !4714
	ret void, !dbg !4713
}
define linkonce_odr signext i8 @_ZNKSt9basic_iosIcSt11char_traitsIcEE5widenEc(%struct._ZSt9basic_iosIcSt11char_traitsIcEE* %_T35351984_52661.arg, i8 signext %__c.arg) #0 inlinehint !dbg !4718 {
L.entry:
	%_T35351984_52661.addr = alloca %struct._ZSt9basic_iosIcSt11char_traitsIcEE*, align 8
	%__c.addr = alloca i8, align 1
	%..inline.addr = alloca %struct._ZSt5ctypeIcE*, align 8
	%..inline.addr.1 = alloca %struct._ZSt5ctypeIcE*, align 8
	%..inline.addr.2 = alloca i8, align 1
	%..inline.addr.3 = alloca i8, align 1
	%.Q0007.addr = alloca i32, align 4

	call void @llvm.dbg.declare (metadata %struct._ZSt9basic_iosIcSt11char_traitsIcEE** %_T35351984_52661.addr, metadata !4730, metadata !4106), !dbg !4719
	store %struct._ZSt9basic_iosIcSt11char_traitsIcEE* %_T35351984_52661.arg, %struct._ZSt9basic_iosIcSt11char_traitsIcEE** %_T35351984_52661.addr, align 8, !tbaa !4114
	call void @llvm.dbg.declare (metadata %struct._ZSt9basic_iosIcSt11char_traitsIcEE** %_T35351984_52661.addr, metadata !4731, metadata !4106), !dbg !4719
	call void @llvm.dbg.declare (metadata i8* %__c.addr, metadata !4732, metadata !4106), !dbg !4719
	store i8 %__c.arg, i8* %__c.addr, align 1, !tbaa !4113
	call void @llvm.dbg.declare (metadata i8* %__c.addr, metadata !4733, metadata !4106), !dbg !4719
	%0 = load %struct._ZSt9basic_iosIcSt11char_traitsIcEE*, %struct._ZSt9basic_iosIcSt11char_traitsIcEE** %_T35351984_52661.addr, align 8, !tbaa !4114, !dbg !4734
	%1 = bitcast %struct._ZSt9basic_iosIcSt11char_traitsIcEE*  %0 to i8*, !dbg !4734
	%2 = getelementptr i8, i8*  %1, i64 240, !dbg !4734
	%3 = bitcast i8*  %2 to i8**, !dbg !4734
	%4 = load i8*, i8**  %3, align 8, !tbaa !4114, !dbg !4734
	%5 = bitcast %struct._ZSt5ctypeIcE** %..inline.addr to i8**, !dbg !4734
	store i8*  %4, i8**  %5, align 8, !tbaa !4114, !dbg !4734
	%6 = load %struct._ZSt5ctypeIcE*, %struct._ZSt5ctypeIcE** %..inline.addr, align 8, !tbaa !4114, !dbg !4734
	%7 = bitcast %struct._ZSt5ctypeIcE*  %6 to i8*, !dbg !4734
	%8 = icmp ne i8*  %7,  null, !dbg !4734
	br i1  %8, label %L..inline.75167, label %L.B1671, !dbg !4734
L.B1671:
	call void  @_ZSt16__throw_bad_castv () noreturn, !dbg !4735
	br label %L..inline.75167
L..inline.75167:
	%9 = load %struct._ZSt5ctypeIcE*, %struct._ZSt5ctypeIcE** %..inline.addr, align 8, !tbaa !4114, !dbg !4736
	%10 = bitcast %struct._ZSt5ctypeIcE*  %9 to i8*, !dbg !4736
	%11 = bitcast %struct._ZSt5ctypeIcE** %..inline.addr.1 to i8**, !dbg !4736
	store i8*  %10, i8**  %11, align 8, !tbaa !4114, !dbg !4736
	%12 = load i8, i8* %__c.addr, align 1, !tbaa !4113, !dbg !4734
	store i8  %12, i8* %..inline.addr.2, align 1, !tbaa !4113, !dbg !4734
	%13 = load %struct._ZSt5ctypeIcE*, %struct._ZSt5ctypeIcE** %..inline.addr.1, align 8, !tbaa !4114, !dbg !4734
	%14 = bitcast %struct._ZSt5ctypeIcE*  %13 to i8*, !dbg !4734
	%15 = getelementptr i8, i8*  %14, i64 56, !dbg !4734
	%16 = load i8, i8*  %15, align 1, !tbaa !4113, !dbg !4734
	%17 = sext i8  %16 to i32, !dbg !4734
	%18 = icmp eq i32  %17, 0, !dbg !4734
	br i1  %18, label %L..inline.75173, label %L.B1672, !dbg !4734
L.B1672:
	%19 = bitcast %struct._ZSt5ctypeIcE*  %13 to i8*, !dbg !4737
	%20 = getelementptr i8, i8*  %19, i64 57, !dbg !4737
	%21 = sext i8  %12 to i32, !dbg !4737
	%22 = and i32  %21, 255, !dbg !4737
	%23 = sext i32  %22 to i64, !dbg !4737
	%24 = getelementptr i8, i8*  %20, i64  %23, !dbg !4737
	%25 = load i8, i8*  %24, align 1, !tbaa !4113, !dbg !4737
	store i8  %25, i8* %..inline.addr.3, align 1, !tbaa !4113, !dbg !4737
	br label %L..inline.75177, !dbg !4738
L..inline.75173:
	%26 = load %struct._ZSt5ctypeIcE*, %struct._ZSt5ctypeIcE** %..inline.addr.1, align 8, !tbaa !4114, !dbg !4739
	call void  @_ZNKSt5ctypeIcE13_M_widen_initEv (%struct._ZSt5ctypeIcE*  %26), !dbg !4739
	%27 = load %struct._ZSt5ctypeIcE*, %struct._ZSt5ctypeIcE** %..inline.addr.1, align 8, !tbaa !4114, !dbg !4740
	%28 = load i8, i8* %..inline.addr.2, align 1, !tbaa !4113, !dbg !4740
	%29 = bitcast %struct._ZSt5ctypeIcE*  %27 to i8**, !dbg !4740
	%30 = load i8*, i8**  %29, align 8, !tbaa !4114, !dbg !4740
	%31 = getelementptr i8, i8*  %30, i64 48, !dbg !4740
	%32 = bitcast i8*  %31 to i8 (%struct._ZSt5ctypeIcE*, i8)**, !dbg !4740
	%33 = load i8 (%struct._ZSt5ctypeIcE*, i8)*, i8 (%struct._ZSt5ctypeIcE*, i8)**  %32, align 8, !tbaa !4114, !dbg !4740
	%34 = call i8  %33 (%struct._ZSt5ctypeIcE*  %27, i8  %28), !dbg !4740
	%35 = sext i8  %34 to i32, !dbg !4740
	store i32  %35, i32* %.Q0007.addr, align 4, !tbaa !4331, !dbg !4740
	%36 = shl i32  %35, 24, !dbg !4740
	%37 = ashr i32  %36, 24, !dbg !4740
	%38 = trunc i32  %37 to i8, !dbg !4740
	store i8  %38, i8* %..inline.addr.3, align 1, !tbaa !4113, !dbg !4740
	br label %L..inline.75177
L..inline.75177:
	%39 = load i8, i8* %..inline.addr.3, align 1, !tbaa !4113, !dbg !4741
	ret i8  %39, !dbg !4741
}
define linkonce_odr %struct._ZSo* @_ZNSolsEPFRSoS_E(%struct._ZSo* %_T35351984_52663.arg, %struct._ZSo* (%struct._ZSo*)* %__pf.arg) #0 inlinehint !dbg !4750 {
L.entry:
	%_T35351984_52663.addr = alloca %struct._ZSo*, align 8
	%__pf.addr = alloca %struct._ZSo* (%struct._ZSo*)*, align 8
	%.Q0008.addr = alloca %struct._ZSo*, align 8

	call void @llvm.dbg.declare (metadata %struct._ZSo** %_T35351984_52663.addr, metadata !4754, metadata !4106), !dbg !4751
	store %struct._ZSo* %_T35351984_52663.arg, %struct._ZSo** %_T35351984_52663.addr, align 8, !tbaa !4114
	call void @llvm.dbg.declare (metadata %struct._ZSo** %_T35351984_52663.addr, metadata !4755, metadata !4106), !dbg !4751
	call void @llvm.dbg.declare (metadata %struct._ZSo* (%struct._ZSo*)** %__pf.addr, metadata !4756, metadata !4106), !dbg !4751
	store %struct._ZSo* (%struct._ZSo*)* %__pf.arg, %struct._ZSo* (%struct._ZSo*)** %__pf.addr, align 8, !tbaa !4114
	call void @llvm.dbg.declare (metadata %struct._ZSo* (%struct._ZSo*)** %__pf.addr, metadata !4757, metadata !4106), !dbg !4751
	%0 = load %struct._ZSo*, %struct._ZSo** %_T35351984_52663.addr, align 8, !tbaa !4114, !dbg !4758
	%1 = load %struct._ZSo* (%struct._ZSo*)*, %struct._ZSo* (%struct._ZSo*)** %__pf.addr, align 8, !tbaa !4114, !dbg !4758
	%2 = call %struct._ZSo*  %1 (%struct._ZSo*  %0), !dbg !4758
	%3 = bitcast %struct._ZSo*  %2 to i8*, !dbg !4758
	%4 = bitcast %struct._ZSo** %.Q0008.addr to i8**, !dbg !4758
	store i8*  %3, i8**  %4, align 8, !tbaa !4114, !dbg !4758
	%5 = load %struct._ZSo*, %struct._ZSo** %.Q0008.addr, align 8, !tbaa !4114, !dbg !4758
	ret %struct._ZSo*  %5, !dbg !4758
}
define linkonce_odr %struct._ZSo* @_ZNSolsEj(%struct._ZSo* %_T35351984_52665.arg, i32 zeroext %__n.arg) #0 inlinehint !dbg !4763 {
L.entry:
	%_T35351984_52665.addr = alloca %struct._ZSo*, align 8
	%__n.addr = alloca i32, align 4
	%.Q0009.addr = alloca %struct._ZSo*, align 8

	call void @llvm.dbg.declare (metadata %struct._ZSo** %_T35351984_52665.addr, metadata !4767, metadata !4106), !dbg !4764
	store %struct._ZSo* %_T35351984_52665.arg, %struct._ZSo** %_T35351984_52665.addr, align 8, !tbaa !4114
	call void @llvm.dbg.declare (metadata %struct._ZSo** %_T35351984_52665.addr, metadata !4768, metadata !4106), !dbg !4764
	call void @llvm.dbg.declare (metadata i32* %__n.addr, metadata !4769, metadata !4106), !dbg !4764
	store i32 %__n.arg, i32* %__n.addr, align 4, !tbaa !4113
	call void @llvm.dbg.declare (metadata i32* %__n.addr, metadata !4770, metadata !4106), !dbg !4764
	%0 = load %struct._ZSo*, %struct._ZSo** %_T35351984_52665.addr, align 8, !tbaa !4114, !dbg !4771
	%1 = load i32, i32* %__n.addr, align 4, !tbaa !4331, !dbg !4771
	%2 = zext i32  %1 to i64, !dbg !4771
	%3 = call %struct._ZSo*  @_ZNSo9_M_insertImEERSoT_ (%struct._ZSo*  %0, i64  %2), !dbg !4771
	%4 = bitcast %struct._ZSo*  %3 to i8*, !dbg !4771
	%5 = bitcast %struct._ZSo** %.Q0009.addr to i8**, !dbg !4771
	store i8*  %4, i8**  %5, align 8, !tbaa !4114, !dbg !4771
	%6 = load %struct._ZSo*, %struct._ZSo** %.Q0009.addr, align 8, !tbaa !4114, !dbg !4771
	ret %struct._ZSo*  %6, !dbg !4771
}
define linkonce_odr void @_ZNSt12_Destroy_auxILb1EE9__destroyIPjEEvT_S3_(i32* %_T35351984_52672.arg, i32* %_T35352280_52672.arg) #0 inlinehint !dbg !4778 {
L.entry:
	%_T35351984_52672.addr = alloca i32*, align 8
	%_T35352280_52672.addr = alloca i32*, align 8

	call void @llvm.dbg.declare (metadata i32** %_T35351984_52672.addr, metadata !4782, metadata !4106), !dbg !4779
	store i32* %_T35351984_52672.arg, i32** %_T35351984_52672.addr, align 8, !tbaa !4114
	call void @llvm.dbg.declare (metadata i32** %_T35351984_52672.addr, metadata !4783, metadata !4106), !dbg !4779
	call void @llvm.dbg.declare (metadata i32** %_T35352280_52672.addr, metadata !4784, metadata !4106), !dbg !4779
	store i32* %_T35352280_52672.arg, i32** %_T35352280_52672.addr, align 8, !tbaa !4114
	call void @llvm.dbg.declare (metadata i32** %_T35352280_52672.addr, metadata !4785, metadata !4106), !dbg !4779
	ret void, !dbg !4786
}
define linkonce_odr void @_ZNSt12_Destroy_auxILb1EE9__destroyIPdEEvT_S3_(double* %_T35351984_52675.arg, double* %_T35352280_52675.arg) #0 inlinehint !dbg !4790 {
L.entry:
	%_T35351984_52675.addr = alloca double*, align 8
	%_T35352280_52675.addr = alloca double*, align 8

	call void @llvm.dbg.declare (metadata double** %_T35351984_52675.addr, metadata !4794, metadata !4106), !dbg !4791
	store double* %_T35351984_52675.arg, double** %_T35351984_52675.addr, align 8, !tbaa !4114
	call void @llvm.dbg.declare (metadata double** %_T35351984_52675.addr, metadata !4795, metadata !4106), !dbg !4791
	call void @llvm.dbg.declare (metadata double** %_T35352280_52675.addr, metadata !4796, metadata !4106), !dbg !4791
	store double* %_T35352280_52675.arg, double** %_T35352280_52675.addr, align 8, !tbaa !4114
	call void @llvm.dbg.declare (metadata double** %_T35352280_52675.addr, metadata !4797, metadata !4106), !dbg !4791
	ret void, !dbg !4798
}

%struct._ZN8projects28FlowthroughSpeciesParametersE = type <{ double, double, [3 x double], i32, i32}> 

define linkonce_odr void @_ZNSt12_Destroy_auxILb1EE9__destroyIPN8projects28FlowthroughSpeciesParametersEEEvT_S5_(%struct._ZN8projects28FlowthroughSpeciesParametersE* %_T35351984_52678.arg, %struct._ZN8projects28FlowthroughSpeciesParametersE* %_T35352280_52678.arg) #0 inlinehint !dbg !4802 {
L.entry:
	%_T35351984_52678.addr = alloca %struct._ZN8projects28FlowthroughSpeciesParametersE*, align 8
	%_T35352280_52678.addr = alloca %struct._ZN8projects28FlowthroughSpeciesParametersE*, align 8

	call void @llvm.dbg.declare (metadata %struct._ZN8projects28FlowthroughSpeciesParametersE** %_T35351984_52678.addr, metadata !4806, metadata !4106), !dbg !4803
	store %struct._ZN8projects28FlowthroughSpeciesParametersE* %_T35351984_52678.arg, %struct._ZN8projects28FlowthroughSpeciesParametersE** %_T35351984_52678.addr, align 8, !tbaa !4114
	call void @llvm.dbg.declare (metadata %struct._ZN8projects28FlowthroughSpeciesParametersE** %_T35351984_52678.addr, metadata !4807, metadata !4106), !dbg !4803
	call void @llvm.dbg.declare (metadata %struct._ZN8projects28FlowthroughSpeciesParametersE** %_T35352280_52678.addr, metadata !4808, metadata !4106), !dbg !4803
	store %struct._ZN8projects28FlowthroughSpeciesParametersE* %_T35352280_52678.arg, %struct._ZN8projects28FlowthroughSpeciesParametersE** %_T35352280_52678.addr, align 8, !tbaa !4114
	call void @llvm.dbg.declare (metadata %struct._ZN8projects28FlowthroughSpeciesParametersE** %_T35352280_52678.addr, metadata !4809, metadata !4106), !dbg !4803
	ret void, !dbg !4810
}

%struct._ZSt5arrayIdLm3EE = type <{ [3 x double]}> 

define linkonce_odr void @_ZNSt12_Destroy_auxILb1EE9__destroyIPSt5arrayIdLm3EEEEvT_S5_(%struct._ZSt5arrayIdLm3EE* %_T35351984_52681.arg, %struct._ZSt5arrayIdLm3EE* %_T35352280_52681.arg) #0 inlinehint !dbg !4814 {
L.entry:
	%_T35351984_52681.addr = alloca %struct._ZSt5arrayIdLm3EE*, align 8
	%_T35352280_52681.addr = alloca %struct._ZSt5arrayIdLm3EE*, align 8

	call void @llvm.dbg.declare (metadata %struct._ZSt5arrayIdLm3EE** %_T35351984_52681.addr, metadata !4818, metadata !4106), !dbg !4815
	store %struct._ZSt5arrayIdLm3EE* %_T35351984_52681.arg, %struct._ZSt5arrayIdLm3EE** %_T35351984_52681.addr, align 8, !tbaa !4114
	call void @llvm.dbg.declare (metadata %struct._ZSt5arrayIdLm3EE** %_T35351984_52681.addr, metadata !4819, metadata !4106), !dbg !4815
	call void @llvm.dbg.declare (metadata %struct._ZSt5arrayIdLm3EE** %_T35352280_52681.addr, metadata !4820, metadata !4106), !dbg !4815
	store %struct._ZSt5arrayIdLm3EE* %_T35352280_52681.arg, %struct._ZSt5arrayIdLm3EE** %_T35352280_52681.addr, align 8, !tbaa !4114
	call void @llvm.dbg.declare (metadata %struct._ZSt5arrayIdLm3EE** %_T35352280_52681.addr, metadata !4821, metadata !4106), !dbg !4815
	ret void, !dbg !4822
}

%struct._ZSt13move_iteratorIPN8projects28FlowthroughSpeciesParametersEE = type <{ %struct._ZN8projects28FlowthroughSpeciesParametersE*}> 

define linkonce_odr %struct._ZN8projects28FlowthroughSpeciesParametersE* @_ZNSt20__uninitialized_copyILb1EE13__uninit_copyISt13move_iteratorIPN8projects28FlowthroughSpeciesParametersEES5_EET0_T_S8_S7_(i64 %__first.coerce, i64 %__last.coerce, %struct._ZN8projects28FlowthroughSpeciesParametersE* %__result.arg) #0 inlinehint !dbg !4828 {
L.entry:
	%__first.addr = alloca %struct._ZSt13move_iteratorIPN8projects28FlowthroughSpeciesParametersEE, align 8
	%__last.addr = alloca %struct._ZSt13move_iteratorIPN8projects28FlowthroughSpeciesParametersEE, align 8
	%__result.addr = alloca %struct._ZN8projects28FlowthroughSpeciesParametersE*, align 8
	%..inline.addr = alloca %struct._ZN8projects28FlowthroughSpeciesParametersE*, align 8
	%..inline.addr.1 = alloca %struct._ZN8projects28FlowthroughSpeciesParametersE*, align 8
	%..inline.addr.2 = alloca i64, align 8

	call void @llvm.dbg.declare (metadata %struct._ZSt13move_iteratorIPN8projects28FlowthroughSpeciesParametersEE* %__first.addr, metadata !4888, metadata !4106), !dbg !4829
	%0 = bitcast %struct._ZSt13move_iteratorIPN8projects28FlowthroughSpeciesParametersEE* %__first.addr to i64*
	store i64 %__first.coerce, i64*  %0, align 8, !tbaa !4113
	call void @llvm.dbg.declare (metadata %struct._ZSt13move_iteratorIPN8projects28FlowthroughSpeciesParametersEE* %__first.addr, metadata !4889, metadata !4106), !dbg !4829
	call void @llvm.dbg.declare (metadata %struct._ZSt13move_iteratorIPN8projects28FlowthroughSpeciesParametersEE* %__last.addr, metadata !4890, metadata !4106), !dbg !4829
	%1 = bitcast %struct._ZSt13move_iteratorIPN8projects28FlowthroughSpeciesParametersEE* %__last.addr to i64*
	store i64 %__last.coerce, i64*  %1, align 8, !tbaa !4113
	call void @llvm.dbg.declare (metadata %struct._ZSt13move_iteratorIPN8projects28FlowthroughSpeciesParametersEE* %__last.addr, metadata !4891, metadata !4106), !dbg !4829
	call void @llvm.dbg.declare (metadata %struct._ZN8projects28FlowthroughSpeciesParametersE** %__result.addr, metadata !4892, metadata !4106), !dbg !4829
	store %struct._ZN8projects28FlowthroughSpeciesParametersE* %__result.arg, %struct._ZN8projects28FlowthroughSpeciesParametersE** %__result.addr, align 8, !tbaa !4114
	call void @llvm.dbg.declare (metadata %struct._ZN8projects28FlowthroughSpeciesParametersE** %__result.addr, metadata !4893, metadata !4106), !dbg !4829
	%2 = bitcast %struct._ZSt13move_iteratorIPN8projects28FlowthroughSpeciesParametersEE* %__first.addr to i8**, !dbg !4894
	%3 = load i8*, i8**  %2, align 8, !tbaa !4114, !dbg !4894
	%4 = bitcast %struct._ZN8projects28FlowthroughSpeciesParametersE** %..inline.addr to i8**, !dbg !4894
	store i8*  %3, i8**  %4, align 8, !tbaa !4114, !dbg !4894
	%5 = load %struct._ZN8projects28FlowthroughSpeciesParametersE*, %struct._ZN8projects28FlowthroughSpeciesParametersE** %__result.addr, align 8, !tbaa !4114, !dbg !4894
	%6 = bitcast %struct._ZN8projects28FlowthroughSpeciesParametersE*  %5 to i8*, !dbg !4894
	%7 = bitcast %struct._ZN8projects28FlowthroughSpeciesParametersE** %..inline.addr.1 to i8**, !dbg !4894
	store i8*  %6, i8**  %7, align 8, !tbaa !4114, !dbg !4894
	%8 = bitcast %struct._ZSt13move_iteratorIPN8projects28FlowthroughSpeciesParametersEE* %__last.addr to i8**, !dbg !4894
	%9 = load i8*, i8**  %8, align 8, !tbaa !4114, !dbg !4894
	%10 = ptrtoint i8*  %3 to i64, !dbg !4894
	%11 = sub i64 0,  %10, !dbg !4894
	%12 = getelementptr i8, i8*  %9, i64  %11, !dbg !4894
	%13 = ptrtoint i8*  %12 to i64, !dbg !4894
	%14 = sext i64 3074457345618258603 to i128, !dbg !4894
	%15 = sext i64  %13 to i128, !dbg !4894
	%16 = mul i128  %14,  %15, !dbg !4894
	%17 = ashr i128  %16, 64, !dbg !4894
	%18 = trunc i128  %17 to i64, !dbg !4894
	%19 = sext i32 3 to i64, !dbg !4894
	%20 = ashr i64  %18,  %19, !dbg !4894
	%21 = sub i64 0,  %10, !dbg !4894
	%22 = getelementptr i8, i8*  %9, i64  %21, !dbg !4894
	%23 = ptrtoint i8*  %22 to i64, !dbg !4894
	%24 = sext i32 63 to i64, !dbg !4894
	%25 = ashr i64  %23,  %24, !dbg !4894
	%26 = sub i64  %20,  %25, !dbg !4894
	store i64  %26, i64* %..inline.addr.2, align 8, !tbaa !4541, !dbg !4894
	%27 = icmp eq i64  %26, 0, !dbg !4894
	br i1  %27, label %L..inline.75295, label %L.B1675, !dbg !4894
L.B1675:
	%28 = load %struct._ZN8projects28FlowthroughSpeciesParametersE*, %struct._ZN8projects28FlowthroughSpeciesParametersE** %..inline.addr.1, align 8, !tbaa !4114, !dbg !4894
	%29 = bitcast %struct._ZN8projects28FlowthroughSpeciesParametersE*  %28 to i8*, !dbg !4894
	%30 = load %struct._ZN8projects28FlowthroughSpeciesParametersE*, %struct._ZN8projects28FlowthroughSpeciesParametersE** %..inline.addr, align 8, !tbaa !4114, !dbg !4894
	%31 = bitcast %struct._ZN8projects28FlowthroughSpeciesParametersE*  %30 to i8*, !dbg !4894
	%32 = mul i64  %26, 48, !dbg !4894
	%33 = call i8*  @memmove (i8*  %29, i8*  %31, i64  %32) nounwind, !dbg !4894
	br label %L..inline.75295
L..inline.75295:
	%34 = load %struct._ZN8projects28FlowthroughSpeciesParametersE*, %struct._ZN8projects28FlowthroughSpeciesParametersE** %..inline.addr.1, align 8, !tbaa !4114, !dbg !4895
	%35 = bitcast %struct._ZN8projects28FlowthroughSpeciesParametersE*  %34 to i8*, !dbg !4895
	%36 = load i64, i64* %..inline.addr.2, align 8, !tbaa !4541, !dbg !4895
	%37 = mul i64  %36, 48, !dbg !4895
	%38 = getelementptr i8, i8*  %35, i64  %37, !dbg !4895
	%39 = bitcast i8*  %38 to %struct._ZN8projects28FlowthroughSpeciesParametersE*, !dbg !4895
	ret %struct._ZN8projects28FlowthroughSpeciesParametersE*  %39, !dbg !4895
}

%struct._ZSt13move_iteratorIPSt5arrayIdLm3EEE = type <{ %struct._ZSt5arrayIdLm3EE*}> 

define linkonce_odr %struct._ZSt5arrayIdLm3EE* @_ZNSt20__uninitialized_copyILb1EE13__uninit_copyISt13move_iteratorIPSt5arrayIdLm3EEES5_EET0_T_S8_S7_(i64 %__first.coerce, i64 %__last.coerce, %struct._ZSt5arrayIdLm3EE* %__result.arg) #0 inlinehint !dbg !4900 {
L.entry:
	%__first.addr = alloca %struct._ZSt13move_iteratorIPSt5arrayIdLm3EEE, align 8
	%__last.addr = alloca %struct._ZSt13move_iteratorIPSt5arrayIdLm3EEE, align 8
	%__result.addr = alloca %struct._ZSt5arrayIdLm3EE*, align 8
	%..inline.addr = alloca %struct._ZSt5arrayIdLm3EE*, align 8
	%..inline.addr.1 = alloca %struct._ZSt5arrayIdLm3EE*, align 8
	%..inline.addr.2 = alloca i64, align 8

	call void @llvm.dbg.declare (metadata %struct._ZSt13move_iteratorIPSt5arrayIdLm3EEE* %__first.addr, metadata !4960, metadata !4106), !dbg !4901
	%0 = bitcast %struct._ZSt13move_iteratorIPSt5arrayIdLm3EEE* %__first.addr to i64*
	store i64 %__first.coerce, i64*  %0, align 8, !tbaa !4113
	call void @llvm.dbg.declare (metadata %struct._ZSt13move_iteratorIPSt5arrayIdLm3EEE* %__first.addr, metadata !4961, metadata !4106), !dbg !4901
	call void @llvm.dbg.declare (metadata %struct._ZSt13move_iteratorIPSt5arrayIdLm3EEE* %__last.addr, metadata !4962, metadata !4106), !dbg !4901
	%1 = bitcast %struct._ZSt13move_iteratorIPSt5arrayIdLm3EEE* %__last.addr to i64*
	store i64 %__last.coerce, i64*  %1, align 8, !tbaa !4113
	call void @llvm.dbg.declare (metadata %struct._ZSt13move_iteratorIPSt5arrayIdLm3EEE* %__last.addr, metadata !4963, metadata !4106), !dbg !4901
	call void @llvm.dbg.declare (metadata %struct._ZSt5arrayIdLm3EE** %__result.addr, metadata !4964, metadata !4106), !dbg !4901
	store %struct._ZSt5arrayIdLm3EE* %__result.arg, %struct._ZSt5arrayIdLm3EE** %__result.addr, align 8, !tbaa !4114
	call void @llvm.dbg.declare (metadata %struct._ZSt5arrayIdLm3EE** %__result.addr, metadata !4965, metadata !4106), !dbg !4901
	%2 = bitcast %struct._ZSt13move_iteratorIPSt5arrayIdLm3EEE* %__first.addr to i8**, !dbg !4966
	%3 = load i8*, i8**  %2, align 8, !tbaa !4114, !dbg !4966
	%4 = bitcast %struct._ZSt5arrayIdLm3EE** %..inline.addr to i8**, !dbg !4966
	store i8*  %3, i8**  %4, align 8, !tbaa !4114, !dbg !4966
	%5 = load %struct._ZSt5arrayIdLm3EE*, %struct._ZSt5arrayIdLm3EE** %__result.addr, align 8, !tbaa !4114, !dbg !4966
	%6 = bitcast %struct._ZSt5arrayIdLm3EE*  %5 to i8*, !dbg !4966
	%7 = bitcast %struct._ZSt5arrayIdLm3EE** %..inline.addr.1 to i8**, !dbg !4966
	store i8*  %6, i8**  %7, align 8, !tbaa !4114, !dbg !4966
	%8 = bitcast %struct._ZSt13move_iteratorIPSt5arrayIdLm3EEE* %__last.addr to i8**, !dbg !4966
	%9 = load i8*, i8**  %8, align 8, !tbaa !4114, !dbg !4966
	%10 = ptrtoint i8*  %3 to i64, !dbg !4966
	%11 = sub i64 0,  %10, !dbg !4966
	%12 = getelementptr i8, i8*  %9, i64  %11, !dbg !4966
	%13 = ptrtoint i8*  %12 to i64, !dbg !4966
	%14 = sext i64 3074457345618258603 to i128, !dbg !4966
	%15 = sext i64  %13 to i128, !dbg !4966
	%16 = mul i128  %14,  %15, !dbg !4966
	%17 = ashr i128  %16, 64, !dbg !4966
	%18 = trunc i128  %17 to i64, !dbg !4966
	%19 = sext i32 2 to i64, !dbg !4966
	%20 = ashr i64  %18,  %19, !dbg !4966
	%21 = sub i64 0,  %10, !dbg !4966
	%22 = getelementptr i8, i8*  %9, i64  %21, !dbg !4966
	%23 = ptrtoint i8*  %22 to i64, !dbg !4966
	%24 = sext i32 63 to i64, !dbg !4966
	%25 = ashr i64  %23,  %24, !dbg !4966
	%26 = sub i64  %20,  %25, !dbg !4966
	store i64  %26, i64* %..inline.addr.2, align 8, !tbaa !4541, !dbg !4966
	%27 = icmp eq i64  %26, 0, !dbg !4966
	br i1  %27, label %L..inline.75433, label %L.B1678, !dbg !4966
L.B1678:
	%28 = load %struct._ZSt5arrayIdLm3EE*, %struct._ZSt5arrayIdLm3EE** %..inline.addr.1, align 8, !tbaa !4114, !dbg !4966
	%29 = bitcast %struct._ZSt5arrayIdLm3EE*  %28 to i8*, !dbg !4966
	%30 = load %struct._ZSt5arrayIdLm3EE*, %struct._ZSt5arrayIdLm3EE** %..inline.addr, align 8, !tbaa !4114, !dbg !4966
	%31 = bitcast %struct._ZSt5arrayIdLm3EE*  %30 to i8*, !dbg !4966
	%32 = mul i64  %26, 24, !dbg !4966
	%33 = call i8*  @memmove (i8*  %29, i8*  %31, i64  %32) nounwind, !dbg !4966
	br label %L..inline.75433
L..inline.75433:
	%34 = load %struct._ZSt5arrayIdLm3EE*, %struct._ZSt5arrayIdLm3EE** %..inline.addr.1, align 8, !tbaa !4114, !dbg !4967
	%35 = bitcast %struct._ZSt5arrayIdLm3EE*  %34 to i8*, !dbg !4967
	%36 = load i64, i64* %..inline.addr.2, align 8, !tbaa !4541, !dbg !4967
	%37 = mul i64  %36, 24, !dbg !4967
	%38 = getelementptr i8, i8*  %35, i64  %37, !dbg !4967
	%39 = bitcast i8*  %38 to %struct._ZSt5arrayIdLm3EE*, !dbg !4967
	ret %struct._ZSt5arrayIdLm3EE*  %39, !dbg !4967
}

%struct._ZSaIjE = type <{ [1 x i8]}> 

define linkonce_odr void @_ZNSaIjED1Ev(%struct._ZSaIjE* %_T35351984_52688.arg) #0 inlinehint !dbg !4976 {
L.entry:
	%_T35351984_52688.addr = alloca %struct._ZSaIjE*, align 8

	call void @llvm.dbg.declare (metadata %struct._ZSaIjE** %_T35351984_52688.addr, metadata !4980, metadata !4106), !dbg !4977
	store %struct._ZSaIjE* %_T35351984_52688.arg, %struct._ZSaIjE** %_T35351984_52688.addr, align 8, !tbaa !4114
	call void @llvm.dbg.declare (metadata %struct._ZSaIjE** %_T35351984_52688.addr, metadata !4981, metadata !4106), !dbg !4977
	ret void, !dbg !4982
}
define linkonce_odr void @_ZNSaIjED2Ev(%struct._ZSaIjE* %_T35351984_52689.arg) #0 inlinehint !dbg !4984 {
L.entry:
	%_T35351984_52689.addr = alloca %struct._ZSaIjE*, align 8

	store %struct._ZSaIjE* %_T35351984_52689.arg, %struct._ZSaIjE** %_T35351984_52689.addr, align 8, !tbaa !4114
	ret void, !dbg !4992
}
define linkonce_odr void @_ZNSt16allocator_traitsISaIjEE10deallocateERS0_Pjm(%struct._ZSaIjE* %__a.arg, i32* %__p.arg, i64 %__n.arg) #0 inlinehint !dbg !5000 {
L.entry:
	%__a.addr = alloca %struct._ZSaIjE*, align 8
	%__p.addr = alloca i32*, align 8
	%__n.addr = alloca i64, align 8
	%..inline.addr = alloca i32*, align 8

	call void @llvm.dbg.declare (metadata %struct._ZSaIjE** %__a.addr, metadata !5008, metadata !4106), !dbg !5001
	store %struct._ZSaIjE* %__a.arg, %struct._ZSaIjE** %__a.addr, align 8, !tbaa !4114
	call void @llvm.dbg.declare (metadata %struct._ZSaIjE** %__a.addr, metadata !5009, metadata !4106), !dbg !5001
	call void @llvm.dbg.declare (metadata i32** %__p.addr, metadata !5010, metadata !4106), !dbg !5001
	store i32* %__p.arg, i32** %__p.addr, align 8, !tbaa !4114
	call void @llvm.dbg.declare (metadata i32** %__p.addr, metadata !5011, metadata !4106), !dbg !5001
	call void @llvm.dbg.declare (metadata i64* %__n.addr, metadata !5012, metadata !4106), !dbg !5001
	store i64 %__n.arg, i64* %__n.addr, align 8, !tbaa !4113
	call void @llvm.dbg.declare (metadata i64* %__n.addr, metadata !5013, metadata !4106), !dbg !5001
	%0 = load i32*, i32** %__p.addr, align 8, !tbaa !4114, !dbg !5014
	%1 = bitcast i32*  %0 to i8*, !dbg !5014
	%2 = bitcast i32** %..inline.addr to i8**, !dbg !5014
	store i8*  %1, i8**  %2, align 8, !tbaa !4114, !dbg !5014
	%3 = load i32*, i32** %..inline.addr, align 8, !tbaa !4114, !dbg !5015
	%4 = bitcast i32*  %3 to i8*, !dbg !5015
	call void  @_ZdlPv (i8*  %4) nounwind, !dbg !5015
	ret void, !dbg !5014
}

%struct._ZNSt12_Vector_baseIjSaIjEE12_Vector_implE = type <{ %struct._ZNSt12_Vector_baseIjSaIjEE17_Vector_impl_dataE}> 
%struct._ZNSt12_Vector_baseIjSaIjEE17_Vector_impl_dataE = type <{ i32*, i32*, i32*}> 
%struct._ZSt12_Vector_baseIjSaIjEE = type <{ %struct._ZNSt12_Vector_baseIjSaIjEE12_Vector_implE}> 

define linkonce_odr %struct._ZSaIjE* @_ZNSt12_Vector_baseIjSaIjEE19_M_get_Tp_allocatorEv(%struct._ZSt12_Vector_baseIjSaIjEE* %_T35351984_52695.arg) #0 inlinehint !dbg !5023 {
L.entry:
	%_T35351984_52695.addr = alloca %struct._ZSt12_Vector_baseIjSaIjEE*, align 8

	call void @llvm.dbg.declare (metadata %struct._ZSt12_Vector_baseIjSaIjEE** %_T35351984_52695.addr, metadata !5027, metadata !4106), !dbg !5024
	store %struct._ZSt12_Vector_baseIjSaIjEE* %_T35351984_52695.arg, %struct._ZSt12_Vector_baseIjSaIjEE** %_T35351984_52695.addr, align 8, !tbaa !4114
	call void @llvm.dbg.declare (metadata %struct._ZSt12_Vector_baseIjSaIjEE** %_T35351984_52695.addr, metadata !5028, metadata !4106), !dbg !5024
	%0 = load %struct._ZSt12_Vector_baseIjSaIjEE*, %struct._ZSt12_Vector_baseIjSaIjEE** %_T35351984_52695.addr, align 8, !tbaa !4114, !dbg !5029
	%1 = bitcast %struct._ZSt12_Vector_baseIjSaIjEE*  %0 to %struct._ZSaIjE*, !dbg !5029
	ret %struct._ZSaIjE*  %1, !dbg !5029
}
define linkonce_odr void @_ZNSt12_Vector_baseIjSaIjEED1Ev(%struct._ZSt12_Vector_baseIjSaIjEE* %_T35351984_52696.arg) #0 inlinehint !dbg !5033 {
L.entry:
	%_T35351984_52696.addr = alloca %struct._ZSt12_Vector_baseIjSaIjEE*, align 8
	%..inline.addr = alloca i32*, align 8

	call void @llvm.dbg.declare (metadata %struct._ZSt12_Vector_baseIjSaIjEE** %_T35351984_52696.addr, metadata !5061, metadata !4106), !dbg !5034
	store %struct._ZSt12_Vector_baseIjSaIjEE* %_T35351984_52696.arg, %struct._ZSt12_Vector_baseIjSaIjEE** %_T35351984_52696.addr, align 8, !tbaa !4114
	call void @llvm.dbg.declare (metadata %struct._ZSt12_Vector_baseIjSaIjEE** %_T35351984_52696.addr, metadata !5062, metadata !4106), !dbg !5034
	%0 = load %struct._ZSt12_Vector_baseIjSaIjEE*, %struct._ZSt12_Vector_baseIjSaIjEE** %_T35351984_52696.addr, align 8, !tbaa !4114, !dbg !5063
	%1 = bitcast %struct._ZSt12_Vector_baseIjSaIjEE*  %0 to i8**, !dbg !5063
	%2 = load i8*, i8**  %1, align 8, !tbaa !4114, !dbg !5063
	%3 = icmp eq i8*  %2,  null, !dbg !5063
	br i1  %3, label %L..inline.75517, label %L.B1687, !dbg !5063
L.B1687:
	%4 = bitcast %struct._ZSt12_Vector_baseIjSaIjEE*  %0 to i8**, !dbg !5064
	%5 = load i8*, i8**  %4, align 8, !tbaa !4114, !dbg !5064
	%6 = bitcast i32** %..inline.addr to i8**, !dbg !5064
	store i8*  %5, i8**  %6, align 8, !tbaa !4114, !dbg !5064
	%7 = load i32*, i32** %..inline.addr, align 8, !tbaa !4114, !dbg !5064
	%8 = bitcast i32*  %7 to i8*, !dbg !5064
	call void  @_ZdlPv (i8*  %8) nounwind, !dbg !5064
	br label %L..inline.75517
L..inline.75517:
	ret void, !dbg !5065
}
define linkonce_odr void @_ZNSt12_Vector_baseIjSaIjEED2Ev(%struct._ZSt12_Vector_baseIjSaIjEE* %_T35351984_52697.arg) #0 inlinehint !dbg !5067 {
L.entry:
	%_T35351984_52697.addr = alloca %struct._ZSt12_Vector_baseIjSaIjEE*, align 8
	%..inline.addr = alloca %struct._ZSt12_Vector_baseIjSaIjEE*, align 8
	%..inline.addr.1 = alloca i32*, align 8

	store %struct._ZSt12_Vector_baseIjSaIjEE* %_T35351984_52697.arg, %struct._ZSt12_Vector_baseIjSaIjEE** %_T35351984_52697.addr, align 8, !tbaa !4114
	%0 = load %struct._ZSt12_Vector_baseIjSaIjEE*, %struct._ZSt12_Vector_baseIjSaIjEE** %_T35351984_52697.addr, align 8, !tbaa !4114, !dbg !5099
	%1 = bitcast %struct._ZSt12_Vector_baseIjSaIjEE*  %0 to i8*, !dbg !5099
	%2 = bitcast %struct._ZSt12_Vector_baseIjSaIjEE** %..inline.addr to i8**, !dbg !5099
	store i8*  %1, i8**  %2, align 8, !tbaa !4114, !dbg !5099
	%3 = load %struct._ZSt12_Vector_baseIjSaIjEE*, %struct._ZSt12_Vector_baseIjSaIjEE** %..inline.addr, align 8, !tbaa !4114, !dbg !5099
	%4 = bitcast %struct._ZSt12_Vector_baseIjSaIjEE*  %3 to i8**, !dbg !5099
	%5 = load i8*, i8**  %4, align 8, !tbaa !4114, !dbg !5099
	%6 = icmp eq i8*  %5,  null, !dbg !5099
	br i1  %6, label %L..inline.75577, label %L.B1690, !dbg !5099
L.B1690:
	%7 = bitcast %struct._ZSt12_Vector_baseIjSaIjEE*  %3 to i8**, !dbg !5099
	%8 = load i8*, i8**  %7, align 8, !tbaa !4114, !dbg !5099
	%9 = bitcast i32** %..inline.addr.1 to i8**, !dbg !5099
	store i8*  %8, i8**  %9, align 8, !tbaa !4114, !dbg !5099
	%10 = load i32*, i32** %..inline.addr.1, align 8, !tbaa !4114, !dbg !5099
	%11 = bitcast i32*  %10 to i8*, !dbg !5099
	call void  @_ZdlPv (i8*  %11) nounwind, !dbg !5099
	br label %L..inline.75577
L..inline.75577:
	ret void, !dbg !5100
}
define linkonce_odr void @_ZNSt12_Vector_baseIjSaIjEE13_M_deallocateEPjm(%struct._ZSt12_Vector_baseIjSaIjEE* %_T35351984_52700.arg, i32* %__p.arg, i64 %__n.arg) #0 inlinehint !dbg !5104 {
L.entry:
	%_T35351984_52700.addr = alloca %struct._ZSt12_Vector_baseIjSaIjEE*, align 8
	%__p.addr = alloca i32*, align 8
	%__n.addr = alloca i64, align 8
	%..inline.addr = alloca i32*, align 8

	call void @llvm.dbg.declare (metadata %struct._ZSt12_Vector_baseIjSaIjEE** %_T35351984_52700.addr, metadata !5116, metadata !4106), !dbg !5105
	store %struct._ZSt12_Vector_baseIjSaIjEE* %_T35351984_52700.arg, %struct._ZSt12_Vector_baseIjSaIjEE** %_T35351984_52700.addr, align 8, !tbaa !4114
	call void @llvm.dbg.declare (metadata %struct._ZSt12_Vector_baseIjSaIjEE** %_T35351984_52700.addr, metadata !5117, metadata !4106), !dbg !5105
	call void @llvm.dbg.declare (metadata i32** %__p.addr, metadata !5118, metadata !4106), !dbg !5105
	store i32* %__p.arg, i32** %__p.addr, align 8, !tbaa !4114
	call void @llvm.dbg.declare (metadata i32** %__p.addr, metadata !5119, metadata !4106), !dbg !5105
	call void @llvm.dbg.declare (metadata i64* %__n.addr, metadata !5120, metadata !4106), !dbg !5105
	store i64 %__n.arg, i64* %__n.addr, align 8, !tbaa !4113
	call void @llvm.dbg.declare (metadata i64* %__n.addr, metadata !5121, metadata !4106), !dbg !5105
	%0 = load i32*, i32** %__p.addr, align 8, !tbaa !4114, !dbg !5122
	%1 = bitcast i32*  %0 to i8*, !dbg !5122
	%2 = icmp eq i8*  %1,  null, !dbg !5122
	br i1  %2, label %L.B0006, label %L.B1693, !dbg !5122
L.B1693:
	%3 = bitcast i32*  %0 to i8*, !dbg !5123
	%4 = bitcast i32** %..inline.addr to i8**, !dbg !5123
	store i8*  %3, i8**  %4, align 8, !tbaa !4114, !dbg !5123
	%5 = load i32*, i32** %..inline.addr, align 8, !tbaa !4114, !dbg !5123
	%6 = bitcast i32*  %5 to i8*, !dbg !5123
	call void  @_ZdlPv (i8*  %6) nounwind, !dbg !5123
	br label %L.B0006
L.B0006:
	ret void, !dbg !5124
}
define linkonce_odr void @_ZNSt12_Vector_baseIjSaIjEE12_Vector_implD1Ev(%struct._ZNSt12_Vector_baseIjSaIjEE12_Vector_implE* %_T35351984_52701.arg) #0 inlinehint !dbg !5129 {
L.entry:
	%_T35351984_52701.addr = alloca %struct._ZNSt12_Vector_baseIjSaIjEE12_Vector_implE*, align 8

	call void @llvm.dbg.declare (metadata %struct._ZNSt12_Vector_baseIjSaIjEE12_Vector_implE** %_T35351984_52701.addr, metadata !5141, metadata !4106), !dbg !5130
	store %struct._ZNSt12_Vector_baseIjSaIjEE12_Vector_implE* %_T35351984_52701.arg, %struct._ZNSt12_Vector_baseIjSaIjEE12_Vector_implE** %_T35351984_52701.addr, align 8, !tbaa !4114
	call void @llvm.dbg.declare (metadata %struct._ZNSt12_Vector_baseIjSaIjEE12_Vector_implE** %_T35351984_52701.addr, metadata !5142, metadata !4106), !dbg !5130
	ret void, !dbg !5143
}
define linkonce_odr void @_ZNSt12_Vector_baseIjSaIjEE12_Vector_implD2Ev(%struct._ZNSt12_Vector_baseIjSaIjEE12_Vector_implE* %_T35351984_52702.arg) #0 inlinehint !dbg !5145 {
L.entry:
	%_T35351984_52702.addr = alloca %struct._ZNSt12_Vector_baseIjSaIjEE12_Vector_implE*, align 8

	store %struct._ZNSt12_Vector_baseIjSaIjEE12_Vector_implE* %_T35351984_52702.arg, %struct._ZNSt12_Vector_baseIjSaIjEE12_Vector_implE** %_T35351984_52702.addr, align 8, !tbaa !4114
	ret void, !dbg !5161
}

%struct._ZSt6vectorIjSaIjEE = type <{ %struct._ZSt12_Vector_baseIjSaIjEE}> 

define linkonce_odr void @_ZNSt6vectorIjSaIjEED1Ev(%struct._ZSt6vectorIjSaIjEE* %_T35351984_52703.arg) #0 inlinehint !dbg !5165 {
L.entry:
	%_T35351984_52703.addr = alloca %struct._ZSt6vectorIjSaIjEE*, align 8
	%..inline.addr = alloca %struct._ZSt12_Vector_baseIjSaIjEE*, align 8
	%..inline.addr.1 = alloca i32*, align 8

	call void @llvm.dbg.declare (metadata %struct._ZSt6vectorIjSaIjEE** %_T35351984_52703.addr, metadata !5217, metadata !4106), !dbg !5166
	store %struct._ZSt6vectorIjSaIjEE* %_T35351984_52703.arg, %struct._ZSt6vectorIjSaIjEE** %_T35351984_52703.addr, align 8, !tbaa !4114
	call void @llvm.dbg.declare (metadata %struct._ZSt6vectorIjSaIjEE** %_T35351984_52703.addr, metadata !5218, metadata !4106), !dbg !5166
	%0 = load %struct._ZSt6vectorIjSaIjEE*, %struct._ZSt6vectorIjSaIjEE** %_T35351984_52703.addr, align 8, !tbaa !4114, !dbg !5219
	%1 = bitcast %struct._ZSt6vectorIjSaIjEE*  %0 to i8*, !dbg !5219
	%2 = bitcast %struct._ZSt12_Vector_baseIjSaIjEE** %..inline.addr to i8**, !dbg !5219
	store i8*  %1, i8**  %2, align 8, !tbaa !4114, !dbg !5219
	%3 = load %struct._ZSt12_Vector_baseIjSaIjEE*, %struct._ZSt12_Vector_baseIjSaIjEE** %..inline.addr, align 8, !tbaa !4114, !dbg !5220
	%4 = bitcast %struct._ZSt12_Vector_baseIjSaIjEE*  %3 to i8**, !dbg !5220
	%5 = load i8*, i8**  %4, align 8, !tbaa !4114, !dbg !5220
	%6 = icmp eq i8*  %5,  null, !dbg !5220
	br i1  %6, label %L..inline.75728, label %L.B1704, !dbg !5220
L.B1704:
	%7 = bitcast %struct._ZSt12_Vector_baseIjSaIjEE*  %3 to i8**, !dbg !5220
	%8 = load i8*, i8**  %7, align 8, !tbaa !4114, !dbg !5220
	%9 = bitcast i32** %..inline.addr.1 to i8**, !dbg !5220
	store i8*  %8, i8**  %9, align 8, !tbaa !4114, !dbg !5220
	%10 = load i32*, i32** %..inline.addr.1, align 8, !tbaa !4114, !dbg !5220
	%11 = bitcast i32*  %10 to i8*, !dbg !5220
	call void  @_ZdlPv (i8*  %11) nounwind, !dbg !5220
	br label %L..inline.75728
L..inline.75728:
	ret void, !dbg !5219
}
define linkonce_odr void @_ZNSt6vectorIjSaIjEED2Ev(%struct._ZSt6vectorIjSaIjEE* %_T35351984_52704.arg) #0 inlinehint !dbg !5222 {
L.entry:
	%_T35351984_52704.addr = alloca %struct._ZSt6vectorIjSaIjEE*, align 8
	%..inline.addr = alloca %struct._ZSt12_Vector_baseIjSaIjEE*, align 8
	%..inline.addr.1 = alloca i32*, align 8

	store %struct._ZSt6vectorIjSaIjEE* %_T35351984_52704.arg, %struct._ZSt6vectorIjSaIjEE** %_T35351984_52704.addr, align 8, !tbaa !4114
	%0 = load %struct._ZSt6vectorIjSaIjEE*, %struct._ZSt6vectorIjSaIjEE** %_T35351984_52704.addr, align 8, !tbaa !4114, !dbg !5278
	%1 = bitcast %struct._ZSt6vectorIjSaIjEE*  %0 to i8*, !dbg !5278
	%2 = bitcast %struct._ZSt12_Vector_baseIjSaIjEE** %..inline.addr to i8**, !dbg !5278
	store i8*  %1, i8**  %2, align 8, !tbaa !4114, !dbg !5278
	%3 = load %struct._ZSt12_Vector_baseIjSaIjEE*, %struct._ZSt12_Vector_baseIjSaIjEE** %..inline.addr, align 8, !tbaa !4114, !dbg !5278
	%4 = bitcast %struct._ZSt12_Vector_baseIjSaIjEE*  %3 to i8**, !dbg !5278
	%5 = load i8*, i8**  %4, align 8, !tbaa !4114, !dbg !5278
	%6 = icmp eq i8*  %5,  null, !dbg !5278
	br i1  %6, label %L..inline.75832, label %L.B1707, !dbg !5278
L.B1707:
	%7 = bitcast %struct._ZSt12_Vector_baseIjSaIjEE*  %3 to i8**, !dbg !5278
	%8 = load i8*, i8**  %7, align 8, !tbaa !4114, !dbg !5278
	%9 = bitcast i32** %..inline.addr.1 to i8**, !dbg !5278
	store i8*  %8, i8**  %9, align 8, !tbaa !4114, !dbg !5278
	%10 = load i32*, i32** %..inline.addr.1, align 8, !tbaa !4114, !dbg !5278
	%11 = bitcast i32*  %10 to i8*, !dbg !5278
	call void  @_ZdlPv (i8*  %11) nounwind, !dbg !5278
	br label %L..inline.75832
L..inline.75832:
	ret void, !dbg !5278
}

%struct._ZSaIdE = type <{ [1 x i8]}> 

define linkonce_odr void @_ZNSaIdED1Ev(%struct._ZSaIdE* %_T35351984_52705.arg) #0 inlinehint !dbg !5286 {
L.entry:
	%_T35351984_52705.addr = alloca %struct._ZSaIdE*, align 8

	call void @llvm.dbg.declare (metadata %struct._ZSaIdE** %_T35351984_52705.addr, metadata !5290, metadata !4106), !dbg !5287
	store %struct._ZSaIdE* %_T35351984_52705.arg, %struct._ZSaIdE** %_T35351984_52705.addr, align 8, !tbaa !4114
	call void @llvm.dbg.declare (metadata %struct._ZSaIdE** %_T35351984_52705.addr, metadata !5291, metadata !4106), !dbg !5287
	ret void, !dbg !5292
}
define linkonce_odr void @_ZNSaIdED2Ev(%struct._ZSaIdE* %_T35351984_52706.arg) #0 inlinehint !dbg !5294 {
L.entry:
	%_T35351984_52706.addr = alloca %struct._ZSaIdE*, align 8

	store %struct._ZSaIdE* %_T35351984_52706.arg, %struct._ZSaIdE** %_T35351984_52706.addr, align 8, !tbaa !4114
	ret void, !dbg !5302
}
define linkonce_odr void @_ZNSt16allocator_traitsISaIdEE10deallocateERS0_Pdm(%struct._ZSaIdE* %__a.arg, double* %__p.arg, i64 %__n.arg) #0 inlinehint !dbg !5310 {
L.entry:
	%__a.addr = alloca %struct._ZSaIdE*, align 8
	%__p.addr = alloca double*, align 8
	%__n.addr = alloca i64, align 8
	%..inline.addr = alloca double*, align 8

	call void @llvm.dbg.declare (metadata %struct._ZSaIdE** %__a.addr, metadata !5318, metadata !4106), !dbg !5311
	store %struct._ZSaIdE* %__a.arg, %struct._ZSaIdE** %__a.addr, align 8, !tbaa !4114
	call void @llvm.dbg.declare (metadata %struct._ZSaIdE** %__a.addr, metadata !5319, metadata !4106), !dbg !5311
	call void @llvm.dbg.declare (metadata double** %__p.addr, metadata !5320, metadata !4106), !dbg !5311
	store double* %__p.arg, double** %__p.addr, align 8, !tbaa !4114
	call void @llvm.dbg.declare (metadata double** %__p.addr, metadata !5321, metadata !4106), !dbg !5311
	call void @llvm.dbg.declare (metadata i64* %__n.addr, metadata !5322, metadata !4106), !dbg !5311
	store i64 %__n.arg, i64* %__n.addr, align 8, !tbaa !4113
	call void @llvm.dbg.declare (metadata i64* %__n.addr, metadata !5323, metadata !4106), !dbg !5311
	%0 = load double*, double** %__p.addr, align 8, !tbaa !4114, !dbg !5324
	%1 = bitcast double*  %0 to i8*, !dbg !5324
	%2 = bitcast double** %..inline.addr to i8**, !dbg !5324
	store i8*  %1, i8**  %2, align 8, !tbaa !4114, !dbg !5324
	%3 = load double*, double** %..inline.addr, align 8, !tbaa !4114, !dbg !5325
	%4 = bitcast double*  %3 to i8*, !dbg !5325
	call void  @_ZdlPv (i8*  %4) nounwind, !dbg !5325
	ret void, !dbg !5324
}

%struct._ZNSt12_Vector_baseIdSaIdEE12_Vector_implE = type <{ %struct._ZNSt12_Vector_baseIdSaIdEE17_Vector_impl_dataE}> 
%struct._ZSt12_Vector_baseIdSaIdEE = type <{ %struct._ZNSt12_Vector_baseIdSaIdEE12_Vector_implE}> 
%struct._ZNSt12_Vector_baseIdSaIdEE17_Vector_impl_dataE = type <{ double*, double*, double*}> 

define linkonce_odr %struct._ZSaIdE* @_ZNSt12_Vector_baseIdSaIdEE19_M_get_Tp_allocatorEv(%struct._ZSt12_Vector_baseIdSaIdEE* %_T35351984_52712.arg) #0 inlinehint !dbg !5331 {
L.entry:
	%_T35351984_52712.addr = alloca %struct._ZSt12_Vector_baseIdSaIdEE*, align 8

	call void @llvm.dbg.declare (metadata %struct._ZSt12_Vector_baseIdSaIdEE** %_T35351984_52712.addr, metadata !5335, metadata !4106), !dbg !5332
	store %struct._ZSt12_Vector_baseIdSaIdEE* %_T35351984_52712.arg, %struct._ZSt12_Vector_baseIdSaIdEE** %_T35351984_52712.addr, align 8, !tbaa !4114
	call void @llvm.dbg.declare (metadata %struct._ZSt12_Vector_baseIdSaIdEE** %_T35351984_52712.addr, metadata !5336, metadata !4106), !dbg !5332
	%0 = load %struct._ZSt12_Vector_baseIdSaIdEE*, %struct._ZSt12_Vector_baseIdSaIdEE** %_T35351984_52712.addr, align 8, !tbaa !4114, !dbg !5337
	%1 = bitcast %struct._ZSt12_Vector_baseIdSaIdEE*  %0 to %struct._ZSaIdE*, !dbg !5337
	ret %struct._ZSaIdE*  %1, !dbg !5337
}
define linkonce_odr void @_ZNSt12_Vector_baseIdSaIdEED1Ev(%struct._ZSt12_Vector_baseIdSaIdEE* %_T35351984_52713.arg) #0 inlinehint !dbg !5341 {
L.entry:
	%_T35351984_52713.addr = alloca %struct._ZSt12_Vector_baseIdSaIdEE*, align 8
	%..inline.addr = alloca double*, align 8

	call void @llvm.dbg.declare (metadata %struct._ZSt12_Vector_baseIdSaIdEE** %_T35351984_52713.addr, metadata !5369, metadata !4106), !dbg !5342
	store %struct._ZSt12_Vector_baseIdSaIdEE* %_T35351984_52713.arg, %struct._ZSt12_Vector_baseIdSaIdEE** %_T35351984_52713.addr, align 8, !tbaa !4114
	call void @llvm.dbg.declare (metadata %struct._ZSt12_Vector_baseIdSaIdEE** %_T35351984_52713.addr, metadata !5370, metadata !4106), !dbg !5342
	%0 = load %struct._ZSt12_Vector_baseIdSaIdEE*, %struct._ZSt12_Vector_baseIdSaIdEE** %_T35351984_52713.addr, align 8, !tbaa !4114, !dbg !5371
	%1 = bitcast %struct._ZSt12_Vector_baseIdSaIdEE*  %0 to i8**, !dbg !5371
	%2 = load i8*, i8**  %1, align 8, !tbaa !4114, !dbg !5371
	%3 = icmp eq i8*  %2,  null, !dbg !5371
	br i1  %3, label %L..inline.75928, label %L.B1716, !dbg !5371
L.B1716:
	%4 = bitcast %struct._ZSt12_Vector_baseIdSaIdEE*  %0 to i8**, !dbg !5372
	%5 = load i8*, i8**  %4, align 8, !tbaa !4114, !dbg !5372
	%6 = bitcast double** %..inline.addr to i8**, !dbg !5372
	store i8*  %5, i8**  %6, align 8, !tbaa !4114, !dbg !5372
	%7 = load double*, double** %..inline.addr, align 8, !tbaa !4114, !dbg !5372
	%8 = bitcast double*  %7 to i8*, !dbg !5372
	call void  @_ZdlPv (i8*  %8) nounwind, !dbg !5372
	br label %L..inline.75928
L..inline.75928:
	ret void, !dbg !5373
}
define linkonce_odr void @_ZNSt12_Vector_baseIdSaIdEED2Ev(%struct._ZSt12_Vector_baseIdSaIdEE* %_T35351984_52714.arg) #0 inlinehint !dbg !5375 {
L.entry:
	%_T35351984_52714.addr = alloca %struct._ZSt12_Vector_baseIdSaIdEE*, align 8
	%..inline.addr = alloca %struct._ZSt12_Vector_baseIdSaIdEE*, align 8
	%..inline.addr.1 = alloca double*, align 8

	store %struct._ZSt12_Vector_baseIdSaIdEE* %_T35351984_52714.arg, %struct._ZSt12_Vector_baseIdSaIdEE** %_T35351984_52714.addr, align 8, !tbaa !4114
	%0 = load %struct._ZSt12_Vector_baseIdSaIdEE*, %struct._ZSt12_Vector_baseIdSaIdEE** %_T35351984_52714.addr, align 8, !tbaa !4114, !dbg !5407
	%1 = bitcast %struct._ZSt12_Vector_baseIdSaIdEE*  %0 to i8*, !dbg !5407
	%2 = bitcast %struct._ZSt12_Vector_baseIdSaIdEE** %..inline.addr to i8**, !dbg !5407
	store i8*  %1, i8**  %2, align 8, !tbaa !4114, !dbg !5407
	%3 = load %struct._ZSt12_Vector_baseIdSaIdEE*, %struct._ZSt12_Vector_baseIdSaIdEE** %..inline.addr, align 8, !tbaa !4114, !dbg !5407
	%4 = bitcast %struct._ZSt12_Vector_baseIdSaIdEE*  %3 to i8**, !dbg !5407
	%5 = load i8*, i8**  %4, align 8, !tbaa !4114, !dbg !5407
	%6 = icmp eq i8*  %5,  null, !dbg !5407
	br i1  %6, label %L..inline.75988, label %L.B1719, !dbg !5407
L.B1719:
	%7 = bitcast %struct._ZSt12_Vector_baseIdSaIdEE*  %3 to i8**, !dbg !5407
	%8 = load i8*, i8**  %7, align 8, !tbaa !4114, !dbg !5407
	%9 = bitcast double** %..inline.addr.1 to i8**, !dbg !5407
	store i8*  %8, i8**  %9, align 8, !tbaa !4114, !dbg !5407
	%10 = load double*, double** %..inline.addr.1, align 8, !tbaa !4114, !dbg !5407
	%11 = bitcast double*  %10 to i8*, !dbg !5407
	call void  @_ZdlPv (i8*  %11) nounwind, !dbg !5407
	br label %L..inline.75988
L..inline.75988:
	ret void, !dbg !5408
}
define linkonce_odr void @_ZNSt12_Vector_baseIdSaIdEE13_M_deallocateEPdm(%struct._ZSt12_Vector_baseIdSaIdEE* %_T35351984_52717.arg, double* %__p.arg, i64 %__n.arg) #0 inlinehint !dbg !5412 {
L.entry:
	%_T35351984_52717.addr = alloca %struct._ZSt12_Vector_baseIdSaIdEE*, align 8
	%__p.addr = alloca double*, align 8
	%__n.addr = alloca i64, align 8
	%..inline.addr = alloca double*, align 8

	call void @llvm.dbg.declare (metadata %struct._ZSt12_Vector_baseIdSaIdEE** %_T35351984_52717.addr, metadata !5424, metadata !4106), !dbg !5413
	store %struct._ZSt12_Vector_baseIdSaIdEE* %_T35351984_52717.arg, %struct._ZSt12_Vector_baseIdSaIdEE** %_T35351984_52717.addr, align 8, !tbaa !4114
	call void @llvm.dbg.declare (metadata %struct._ZSt12_Vector_baseIdSaIdEE** %_T35351984_52717.addr, metadata !5425, metadata !4106), !dbg !5413
	call void @llvm.dbg.declare (metadata double** %__p.addr, metadata !5426, metadata !4106), !dbg !5413
	store double* %__p.arg, double** %__p.addr, align 8, !tbaa !4114
	call void @llvm.dbg.declare (metadata double** %__p.addr, metadata !5427, metadata !4106), !dbg !5413
	call void @llvm.dbg.declare (metadata i64* %__n.addr, metadata !5428, metadata !4106), !dbg !5413
	store i64 %__n.arg, i64* %__n.addr, align 8, !tbaa !4113
	call void @llvm.dbg.declare (metadata i64* %__n.addr, metadata !5429, metadata !4106), !dbg !5413
	%0 = load double*, double** %__p.addr, align 8, !tbaa !4114, !dbg !5430
	%1 = bitcast double*  %0 to i8*, !dbg !5430
	%2 = icmp eq i8*  %1,  null, !dbg !5430
	br i1  %2, label %L.B0007, label %L.B1722, !dbg !5430
L.B1722:
	%3 = bitcast double*  %0 to i8*, !dbg !5431
	%4 = bitcast double** %..inline.addr to i8**, !dbg !5431
	store i8*  %3, i8**  %4, align 8, !tbaa !4114, !dbg !5431
	%5 = load double*, double** %..inline.addr, align 8, !tbaa !4114, !dbg !5431
	%6 = bitcast double*  %5 to i8*, !dbg !5431
	call void  @_ZdlPv (i8*  %6) nounwind, !dbg !5431
	br label %L.B0007
L.B0007:
	ret void, !dbg !5432
}
define linkonce_odr void @_ZNSt12_Vector_baseIdSaIdEE12_Vector_implD1Ev(%struct._ZNSt12_Vector_baseIdSaIdEE12_Vector_implE* %_T35351984_52718.arg) #0 inlinehint !dbg !5437 {
L.entry:
	%_T35351984_52718.addr = alloca %struct._ZNSt12_Vector_baseIdSaIdEE12_Vector_implE*, align 8

	call void @llvm.dbg.declare (metadata %struct._ZNSt12_Vector_baseIdSaIdEE12_Vector_implE** %_T35351984_52718.addr, metadata !5449, metadata !4106), !dbg !5438
	store %struct._ZNSt12_Vector_baseIdSaIdEE12_Vector_implE* %_T35351984_52718.arg, %struct._ZNSt12_Vector_baseIdSaIdEE12_Vector_implE** %_T35351984_52718.addr, align 8, !tbaa !4114
	call void @llvm.dbg.declare (metadata %struct._ZNSt12_Vector_baseIdSaIdEE12_Vector_implE** %_T35351984_52718.addr, metadata !5450, metadata !4106), !dbg !5438
	ret void, !dbg !5451
}
define linkonce_odr void @_ZNSt12_Vector_baseIdSaIdEE12_Vector_implD2Ev(%struct._ZNSt12_Vector_baseIdSaIdEE12_Vector_implE* %_T35351984_52719.arg) #0 inlinehint !dbg !5453 {
L.entry:
	%_T35351984_52719.addr = alloca %struct._ZNSt12_Vector_baseIdSaIdEE12_Vector_implE*, align 8

	store %struct._ZNSt12_Vector_baseIdSaIdEE12_Vector_implE* %_T35351984_52719.arg, %struct._ZNSt12_Vector_baseIdSaIdEE12_Vector_implE** %_T35351984_52719.addr, align 8, !tbaa !4114
	ret void, !dbg !5469
}

%struct._ZSt6vectorIdSaIdEE = type <{ %struct._ZSt12_Vector_baseIdSaIdEE}> 

define linkonce_odr void @_ZNSt6vectorIdSaIdEED1Ev(%struct._ZSt6vectorIdSaIdEE* %_T35351984_52720.arg) #0 inlinehint !dbg !5474 {
L.entry:
	%_T35351984_52720.addr = alloca %struct._ZSt6vectorIdSaIdEE*, align 8
	%..inline.addr = alloca %struct._ZSt12_Vector_baseIdSaIdEE*, align 8
	%..inline.addr.1 = alloca double*, align 8

	call void @llvm.dbg.declare (metadata %struct._ZSt6vectorIdSaIdEE** %_T35351984_52720.addr, metadata !5526, metadata !4106), !dbg !5475
	store %struct._ZSt6vectorIdSaIdEE* %_T35351984_52720.arg, %struct._ZSt6vectorIdSaIdEE** %_T35351984_52720.addr, align 8, !tbaa !4114
	call void @llvm.dbg.declare (metadata %struct._ZSt6vectorIdSaIdEE** %_T35351984_52720.addr, metadata !5527, metadata !4106), !dbg !5475
	%0 = load %struct._ZSt6vectorIdSaIdEE*, %struct._ZSt6vectorIdSaIdEE** %_T35351984_52720.addr, align 8, !tbaa !4114, !dbg !5528
	%1 = bitcast %struct._ZSt6vectorIdSaIdEE*  %0 to i8*, !dbg !5528
	%2 = bitcast %struct._ZSt12_Vector_baseIdSaIdEE** %..inline.addr to i8**, !dbg !5528
	store i8*  %1, i8**  %2, align 8, !tbaa !4114, !dbg !5528
	%3 = load %struct._ZSt12_Vector_baseIdSaIdEE*, %struct._ZSt12_Vector_baseIdSaIdEE** %..inline.addr, align 8, !tbaa !4114, !dbg !5529
	%4 = bitcast %struct._ZSt12_Vector_baseIdSaIdEE*  %3 to i8**, !dbg !5529
	%5 = load i8*, i8**  %4, align 8, !tbaa !4114, !dbg !5529
	%6 = icmp eq i8*  %5,  null, !dbg !5529
	br i1  %6, label %L..inline.76139, label %L.B1733, !dbg !5529
L.B1733:
	%7 = bitcast %struct._ZSt12_Vector_baseIdSaIdEE*  %3 to i8**, !dbg !5529
	%8 = load i8*, i8**  %7, align 8, !tbaa !4114, !dbg !5529
	%9 = bitcast double** %..inline.addr.1 to i8**, !dbg !5529
	store i8*  %8, i8**  %9, align 8, !tbaa !4114, !dbg !5529
	%10 = load double*, double** %..inline.addr.1, align 8, !tbaa !4114, !dbg !5529
	%11 = bitcast double*  %10 to i8*, !dbg !5529
	call void  @_ZdlPv (i8*  %11) nounwind, !dbg !5529
	br label %L..inline.76139
L..inline.76139:
	ret void, !dbg !5528
}
define linkonce_odr void @_ZNSt6vectorIdSaIdEED2Ev(%struct._ZSt6vectorIdSaIdEE* %_T35351984_52721.arg) #0 inlinehint !dbg !5531 {
L.entry:
	%_T35351984_52721.addr = alloca %struct._ZSt6vectorIdSaIdEE*, align 8
	%..inline.addr = alloca %struct._ZSt12_Vector_baseIdSaIdEE*, align 8
	%..inline.addr.1 = alloca double*, align 8

	store %struct._ZSt6vectorIdSaIdEE* %_T35351984_52721.arg, %struct._ZSt6vectorIdSaIdEE** %_T35351984_52721.addr, align 8, !tbaa !4114
	%0 = load %struct._ZSt6vectorIdSaIdEE*, %struct._ZSt6vectorIdSaIdEE** %_T35351984_52721.addr, align 8, !tbaa !4114, !dbg !5587
	%1 = bitcast %struct._ZSt6vectorIdSaIdEE*  %0 to i8*, !dbg !5587
	%2 = bitcast %struct._ZSt12_Vector_baseIdSaIdEE** %..inline.addr to i8**, !dbg !5587
	store i8*  %1, i8**  %2, align 8, !tbaa !4114, !dbg !5587
	%3 = load %struct._ZSt12_Vector_baseIdSaIdEE*, %struct._ZSt12_Vector_baseIdSaIdEE** %..inline.addr, align 8, !tbaa !4114, !dbg !5587
	%4 = bitcast %struct._ZSt12_Vector_baseIdSaIdEE*  %3 to i8**, !dbg !5587
	%5 = load i8*, i8**  %4, align 8, !tbaa !4114, !dbg !5587
	%6 = icmp eq i8*  %5,  null, !dbg !5587
	br i1  %6, label %L..inline.76243, label %L.B1736, !dbg !5587
L.B1736:
	%7 = bitcast %struct._ZSt12_Vector_baseIdSaIdEE*  %3 to i8**, !dbg !5587
	%8 = load i8*, i8**  %7, align 8, !tbaa !4114, !dbg !5587
	%9 = bitcast double** %..inline.addr.1 to i8**, !dbg !5587
	store i8*  %8, i8**  %9, align 8, !tbaa !4114, !dbg !5587
	%10 = load double*, double** %..inline.addr.1, align 8, !tbaa !4114, !dbg !5587
	%11 = bitcast double*  %10 to i8*, !dbg !5587
	call void  @_ZdlPv (i8*  %11) nounwind, !dbg !5587
	br label %L..inline.76243
L..inline.76243:
	ret void, !dbg !5587
}

%struct._ZSaIN5vmesh14MeshParametersEE = type <{ [1 x i8]}> 

define linkonce_odr void @_ZNSaIN5vmesh14MeshParametersEED1Ev(%struct._ZSaIN5vmesh14MeshParametersEE* %_T35351984_52722.arg) #0 inlinehint !dbg !5595 {
L.entry:
	%_T35351984_52722.addr = alloca %struct._ZSaIN5vmesh14MeshParametersEE*, align 8

	call void @llvm.dbg.declare (metadata %struct._ZSaIN5vmesh14MeshParametersEE** %_T35351984_52722.addr, metadata !5599, metadata !4106), !dbg !5596
	store %struct._ZSaIN5vmesh14MeshParametersEE* %_T35351984_52722.arg, %struct._ZSaIN5vmesh14MeshParametersEE** %_T35351984_52722.addr, align 8, !tbaa !4114
	call void @llvm.dbg.declare (metadata %struct._ZSaIN5vmesh14MeshParametersEE** %_T35351984_52722.addr, metadata !5600, metadata !4106), !dbg !5596
	ret void, !dbg !5601
}
define linkonce_odr void @_ZNSaIN5vmesh14MeshParametersEED2Ev(%struct._ZSaIN5vmesh14MeshParametersEE* %_T35351984_52723.arg) #0 inlinehint !dbg !5603 {
L.entry:
	%_T35351984_52723.addr = alloca %struct._ZSaIN5vmesh14MeshParametersEE*, align 8

	store %struct._ZSaIN5vmesh14MeshParametersEE* %_T35351984_52723.arg, %struct._ZSaIN5vmesh14MeshParametersEE** %_T35351984_52723.addr, align 8, !tbaa !4114
	ret void, !dbg !5611
}

%union.__C6 = type <{ [16 x i8]}> 
%struct._ZNSt7__cxx1112basic_stringIcSt11char_traitsIcESaIcEEE = type <{ %struct._ZNSt7__cxx1112basic_stringIcSt11char_traitsIcESaIcEE12_Alloc_hiderE, i64, %union.__C6}> 
%struct._ZNSt7__cxx1112basic_stringIcSt11char_traitsIcESaIcEE12_Alloc_hiderE = type <{ i8*}> 
%struct._ZN5vmesh14MeshParametersE = type <{ %struct._ZNSt7__cxx1112basic_stringIcSt11char_traitsIcESaIcEEE, i32, [4 x i8], [6 x double], [3 x i32], [3 x i32], i8, i8, [6 x i8], [3 x double], [3 x double], [3 x double], [3 x double], [3 x double], %struct._ZSt6vectorIjSaIjEE, %struct._ZSt6vectorIdSaIdEE, %struct._ZSt6vectorIdSaIdEE, %struct._ZSt6vectorIjSaIjEE}> 

define linkonce_odr void @_ZNSt16allocator_traitsISaIN5vmesh14MeshParametersEEE10deallocateERS2_PS1_m(%struct._ZSaIN5vmesh14MeshParametersEE* %__a.arg, %struct._ZN5vmesh14MeshParametersE* %__p.arg, i64 %__n.arg) #0 inlinehint !dbg !5619 {
L.entry:
	%__a.addr = alloca %struct._ZSaIN5vmesh14MeshParametersEE*, align 8
	%__p.addr = alloca %struct._ZN5vmesh14MeshParametersE*, align 8
	%__n.addr = alloca i64, align 8
	%..inline.addr = alloca %struct._ZN5vmesh14MeshParametersE*, align 8

	call void @llvm.dbg.declare (metadata %struct._ZSaIN5vmesh14MeshParametersEE** %__a.addr, metadata !5627, metadata !4106), !dbg !5620
	store %struct._ZSaIN5vmesh14MeshParametersEE* %__a.arg, %struct._ZSaIN5vmesh14MeshParametersEE** %__a.addr, align 8, !tbaa !4114
	call void @llvm.dbg.declare (metadata %struct._ZSaIN5vmesh14MeshParametersEE** %__a.addr, metadata !5628, metadata !4106), !dbg !5620
	call void @llvm.dbg.declare (metadata %struct._ZN5vmesh14MeshParametersE** %__p.addr, metadata !5629, metadata !4106), !dbg !5620
	store %struct._ZN5vmesh14MeshParametersE* %__p.arg, %struct._ZN5vmesh14MeshParametersE** %__p.addr, align 8, !tbaa !4114
	call void @llvm.dbg.declare (metadata %struct._ZN5vmesh14MeshParametersE** %__p.addr, metadata !5630, metadata !4106), !dbg !5620
	call void @llvm.dbg.declare (metadata i64* %__n.addr, metadata !5631, metadata !4106), !dbg !5620
	store i64 %__n.arg, i64* %__n.addr, align 8, !tbaa !4113
	call void @llvm.dbg.declare (metadata i64* %__n.addr, metadata !5632, metadata !4106), !dbg !5620
	%0 = load %struct._ZN5vmesh14MeshParametersE*, %struct._ZN5vmesh14MeshParametersE** %__p.addr, align 8, !tbaa !4114, !dbg !5633
	%1 = bitcast %struct._ZN5vmesh14MeshParametersE*  %0 to i8*, !dbg !5633
	%2 = bitcast %struct._ZN5vmesh14MeshParametersE** %..inline.addr to i8**, !dbg !5633
	store i8*  %1, i8**  %2, align 8, !tbaa !4114, !dbg !5633
	%3 = load %struct._ZN5vmesh14MeshParametersE*, %struct._ZN5vmesh14MeshParametersE** %..inline.addr, align 8, !tbaa !4114, !dbg !5634
	%4 = bitcast %struct._ZN5vmesh14MeshParametersE*  %3 to i8*, !dbg !5634
	call void  @_ZdlPv (i8*  %4) nounwind, !dbg !5634
	ret void, !dbg !5633
}

%struct._ZNSt12_Vector_baseIN5vmesh14MeshParametersESaIS1_EE17_Vector_impl_dataE = type <{ %struct._ZN5vmesh14MeshParametersE*, %struct._ZN5vmesh14MeshParametersE*, %struct._ZN5vmesh14MeshParametersE*}> 
%struct._ZNSt12_Vector_baseIN5vmesh14MeshParametersESaIS1_EE12_Vector_implE = type <{ %struct._ZNSt12_Vector_baseIN5vmesh14MeshParametersESaIS1_EE17_Vector_impl_dataE}> 
%struct._ZSt12_Vector_baseIN5vmesh14MeshParametersESaIS1_EE = type <{ %struct._ZNSt12_Vector_baseIN5vmesh14MeshParametersESaIS1_EE12_Vector_implE}> 

define linkonce_odr %struct._ZSaIN5vmesh14MeshParametersEE* @_ZNSt12_Vector_baseIN5vmesh14MeshParametersESaIS1_EE19_M_get_Tp_allocatorEv(%struct._ZSt12_Vector_baseIN5vmesh14MeshParametersESaIS1_EE* %_T35351984_52729.arg) #0 inlinehint !dbg !5640 {
L.entry:
	%_T35351984_52729.addr = alloca %struct._ZSt12_Vector_baseIN5vmesh14MeshParametersESaIS1_EE*, align 8

	call void @llvm.dbg.declare (metadata %struct._ZSt12_Vector_baseIN5vmesh14MeshParametersESaIS1_EE** %_T35351984_52729.addr, metadata !5644, metadata !4106), !dbg !5641
	store %struct._ZSt12_Vector_baseIN5vmesh14MeshParametersESaIS1_EE* %_T35351984_52729.arg, %struct._ZSt12_Vector_baseIN5vmesh14MeshParametersESaIS1_EE** %_T35351984_52729.addr, align 8, !tbaa !4114
	call void @llvm.dbg.declare (metadata %struct._ZSt12_Vector_baseIN5vmesh14MeshParametersESaIS1_EE** %_T35351984_52729.addr, metadata !5645, metadata !4106), !dbg !5641
	%0 = load %struct._ZSt12_Vector_baseIN5vmesh14MeshParametersESaIS1_EE*, %struct._ZSt12_Vector_baseIN5vmesh14MeshParametersESaIS1_EE** %_T35351984_52729.addr, align 8, !tbaa !4114, !dbg !5646
	%1 = bitcast %struct._ZSt12_Vector_baseIN5vmesh14MeshParametersESaIS1_EE*  %0 to %struct._ZSaIN5vmesh14MeshParametersEE*, !dbg !5646
	ret %struct._ZSaIN5vmesh14MeshParametersEE*  %1, !dbg !5646
}
define linkonce_odr void @_ZNSt12_Vector_baseIN5vmesh14MeshParametersESaIS1_EEC1Ev(%struct._ZSt12_Vector_baseIN5vmesh14MeshParametersESaIS1_EE* %_T35351984_52730.arg) #0 inlinehint !dbg !5650 {
L.entry:
	%_T35351984_52730.addr = alloca %struct._ZSt12_Vector_baseIN5vmesh14MeshParametersESaIS1_EE*, align 8
	%..inline.addr = alloca %struct._ZNSt12_Vector_baseIN5vmesh14MeshParametersESaIS1_EE17_Vector_impl_dataE*, align 8

	call void @llvm.dbg.declare (metadata %struct._ZSt12_Vector_baseIN5vmesh14MeshParametersESaIS1_EE** %_T35351984_52730.addr, metadata !5666, metadata !4106), !dbg !5651
	store %struct._ZSt12_Vector_baseIN5vmesh14MeshParametersESaIS1_EE* %_T35351984_52730.arg, %struct._ZSt12_Vector_baseIN5vmesh14MeshParametersESaIS1_EE** %_T35351984_52730.addr, align 8, !tbaa !4114
	call void @llvm.dbg.declare (metadata %struct._ZSt12_Vector_baseIN5vmesh14MeshParametersESaIS1_EE** %_T35351984_52730.addr, metadata !5667, metadata !4106), !dbg !5651
	%0 = load %struct._ZSt12_Vector_baseIN5vmesh14MeshParametersESaIS1_EE*, %struct._ZSt12_Vector_baseIN5vmesh14MeshParametersESaIS1_EE** %_T35351984_52730.addr, align 8, !tbaa !4114, !dbg !5668
	%1 = bitcast %struct._ZSt12_Vector_baseIN5vmesh14MeshParametersESaIS1_EE*  %0 to i8*, !dbg !5668
	%2 = bitcast %struct._ZNSt12_Vector_baseIN5vmesh14MeshParametersESaIS1_EE17_Vector_impl_dataE** %..inline.addr to i8**, !dbg !5668
	store i8*  %1, i8**  %2, align 8, !tbaa !4114, !dbg !5668
	%3 = load %struct._ZNSt12_Vector_baseIN5vmesh14MeshParametersESaIS1_EE17_Vector_impl_dataE*, %struct._ZNSt12_Vector_baseIN5vmesh14MeshParametersESaIS1_EE17_Vector_impl_dataE** %..inline.addr, align 8, !tbaa !4114, !dbg !5668
	%4 = bitcast %struct._ZNSt12_Vector_baseIN5vmesh14MeshParametersESaIS1_EE17_Vector_impl_dataE*  %3 to i8**, !dbg !5668
	store i8* null, i8**  %4, align 8, !tbaa !4114, !dbg !5668
	%5 = bitcast %struct._ZNSt12_Vector_baseIN5vmesh14MeshParametersESaIS1_EE17_Vector_impl_dataE*  %3 to i8*, !dbg !5668
	%6 = getelementptr i8, i8*  %5, i64 8, !dbg !5668
	%7 = bitcast i8*  %6 to i8**, !dbg !5668
	store i8* null, i8**  %7, align 8, !tbaa !4114, !dbg !5668
	%8 = getelementptr i8, i8*  %5, i64 16, !dbg !5668
	%9 = bitcast i8*  %8 to i8**, !dbg !5668
	store i8* null, i8**  %9, align 8, !tbaa !4114, !dbg !5668
	ret void, !dbg !5668
}
define linkonce_odr void @_ZNSt12_Vector_baseIN5vmesh14MeshParametersESaIS1_EEC2Ev(%struct._ZSt12_Vector_baseIN5vmesh14MeshParametersESaIS1_EE* %_T35351984_52731.arg) #0 inlinehint !dbg !5670 {
L.entry:
	%_T35351984_52731.addr = alloca %struct._ZSt12_Vector_baseIN5vmesh14MeshParametersESaIS1_EE*, align 8
	%..inline.addr = alloca %struct._ZNSt12_Vector_baseIN5vmesh14MeshParametersESaIS1_EE17_Vector_impl_dataE*, align 8

	store %struct._ZSt12_Vector_baseIN5vmesh14MeshParametersESaIS1_EE* %_T35351984_52731.arg, %struct._ZSt12_Vector_baseIN5vmesh14MeshParametersESaIS1_EE** %_T35351984_52731.addr, align 8, !tbaa !4114
	%0 = load %struct._ZSt12_Vector_baseIN5vmesh14MeshParametersESaIS1_EE*, %struct._ZSt12_Vector_baseIN5vmesh14MeshParametersESaIS1_EE** %_T35351984_52731.addr, align 8, !tbaa !4114, !dbg !5690
	%1 = bitcast %struct._ZSt12_Vector_baseIN5vmesh14MeshParametersESaIS1_EE*  %0 to i8*, !dbg !5690
	%2 = bitcast %struct._ZNSt12_Vector_baseIN5vmesh14MeshParametersESaIS1_EE17_Vector_impl_dataE** %..inline.addr to i8**, !dbg !5690
	store i8*  %1, i8**  %2, align 8, !tbaa !4114, !dbg !5690
	%3 = load %struct._ZNSt12_Vector_baseIN5vmesh14MeshParametersESaIS1_EE17_Vector_impl_dataE*, %struct._ZNSt12_Vector_baseIN5vmesh14MeshParametersESaIS1_EE17_Vector_impl_dataE** %..inline.addr, align 8, !tbaa !4114, !dbg !5690
	%4 = bitcast %struct._ZNSt12_Vector_baseIN5vmesh14MeshParametersESaIS1_EE17_Vector_impl_dataE*  %3 to i8**, !dbg !5690
	store i8* null, i8**  %4, align 8, !tbaa !4114, !dbg !5690
	%5 = bitcast %struct._ZNSt12_Vector_baseIN5vmesh14MeshParametersESaIS1_EE17_Vector_impl_dataE*  %3 to i8*, !dbg !5690
	%6 = getelementptr i8, i8*  %5, i64 8, !dbg !5690
	%7 = bitcast i8*  %6 to i8**, !dbg !5690
	store i8* null, i8**  %7, align 8, !tbaa !4114, !dbg !5690
	%8 = getelementptr i8, i8*  %5, i64 16, !dbg !5690
	%9 = bitcast i8*  %8 to i8**, !dbg !5690
	store i8* null, i8**  %9, align 8, !tbaa !4114, !dbg !5690
	ret void, !dbg !5690
}
define linkonce_odr void @_ZNSt12_Vector_baseIN5vmesh14MeshParametersESaIS1_EED1Ev(%struct._ZSt12_Vector_baseIN5vmesh14MeshParametersESaIS1_EE* %_T35351984_52732.arg) #0 inlinehint !dbg !5692 {
L.entry:
	%_T35351984_52732.addr = alloca %struct._ZSt12_Vector_baseIN5vmesh14MeshParametersESaIS1_EE*, align 8
	%..inline.addr = alloca %struct._ZN5vmesh14MeshParametersE*, align 8

	call void @llvm.dbg.declare (metadata %struct._ZSt12_Vector_baseIN5vmesh14MeshParametersESaIS1_EE** %_T35351984_52732.addr, metadata !5720, metadata !4106), !dbg !5693
	store %struct._ZSt12_Vector_baseIN5vmesh14MeshParametersESaIS1_EE* %_T35351984_52732.arg, %struct._ZSt12_Vector_baseIN5vmesh14MeshParametersESaIS1_EE** %_T35351984_52732.addr, align 8, !tbaa !4114
	call void @llvm.dbg.declare (metadata %struct._ZSt12_Vector_baseIN5vmesh14MeshParametersESaIS1_EE** %_T35351984_52732.addr, metadata !5721, metadata !4106), !dbg !5693
	%0 = load %struct._ZSt12_Vector_baseIN5vmesh14MeshParametersESaIS1_EE*, %struct._ZSt12_Vector_baseIN5vmesh14MeshParametersESaIS1_EE** %_T35351984_52732.addr, align 8, !tbaa !4114, !dbg !5722
	%1 = bitcast %struct._ZSt12_Vector_baseIN5vmesh14MeshParametersESaIS1_EE*  %0 to i8**, !dbg !5722
	%2 = load i8*, i8**  %1, align 8, !tbaa !4114, !dbg !5722
	%3 = icmp eq i8*  %2,  null, !dbg !5722
	br i1  %3, label %L..inline.76387, label %L.B1749, !dbg !5722
L.B1749:
	%4 = bitcast %struct._ZSt12_Vector_baseIN5vmesh14MeshParametersESaIS1_EE*  %0 to i8**, !dbg !5723
	%5 = load i8*, i8**  %4, align 8, !tbaa !4114, !dbg !5723
	%6 = bitcast %struct._ZN5vmesh14MeshParametersE** %..inline.addr to i8**, !dbg !5723
	store i8*  %5, i8**  %6, align 8, !tbaa !4114, !dbg !5723
	%7 = load %struct._ZN5vmesh14MeshParametersE*, %struct._ZN5vmesh14MeshParametersE** %..inline.addr, align 8, !tbaa !4114, !dbg !5723
	%8 = bitcast %struct._ZN5vmesh14MeshParametersE*  %7 to i8*, !dbg !5723
	call void  @_ZdlPv (i8*  %8) nounwind, !dbg !5723
	br label %L..inline.76387
L..inline.76387:
	ret void, !dbg !5724
}
define linkonce_odr void @_ZNSt12_Vector_baseIN5vmesh14MeshParametersESaIS1_EED2Ev(%struct._ZSt12_Vector_baseIN5vmesh14MeshParametersESaIS1_EE* %_T35351984_52733.arg) #0 inlinehint !dbg !5726 {
L.entry:
	%_T35351984_52733.addr = alloca %struct._ZSt12_Vector_baseIN5vmesh14MeshParametersESaIS1_EE*, align 8
	%..inline.addr = alloca %struct._ZSt12_Vector_baseIN5vmesh14MeshParametersESaIS1_EE*, align 8
	%..inline.addr.1 = alloca %struct._ZN5vmesh14MeshParametersE*, align 8

	store %struct._ZSt12_Vector_baseIN5vmesh14MeshParametersESaIS1_EE* %_T35351984_52733.arg, %struct._ZSt12_Vector_baseIN5vmesh14MeshParametersESaIS1_EE** %_T35351984_52733.addr, align 8, !tbaa !4114
	%0 = load %struct._ZSt12_Vector_baseIN5vmesh14MeshParametersESaIS1_EE*, %struct._ZSt12_Vector_baseIN5vmesh14MeshParametersESaIS1_EE** %_T35351984_52733.addr, align 8, !tbaa !4114, !dbg !5758
	%1 = bitcast %struct._ZSt12_Vector_baseIN5vmesh14MeshParametersESaIS1_EE*  %0 to i8*, !dbg !5758
	%2 = bitcast %struct._ZSt12_Vector_baseIN5vmesh14MeshParametersESaIS1_EE** %..inline.addr to i8**, !dbg !5758
	store i8*  %1, i8**  %2, align 8, !tbaa !4114, !dbg !5758
	%3 = load %struct._ZSt12_Vector_baseIN5vmesh14MeshParametersESaIS1_EE*, %struct._ZSt12_Vector_baseIN5vmesh14MeshParametersESaIS1_EE** %..inline.addr, align 8, !tbaa !4114, !dbg !5758
	%4 = bitcast %struct._ZSt12_Vector_baseIN5vmesh14MeshParametersESaIS1_EE*  %3 to i8**, !dbg !5758
	%5 = load i8*, i8**  %4, align 8, !tbaa !4114, !dbg !5758
	%6 = icmp eq i8*  %5,  null, !dbg !5758
	br i1  %6, label %L..inline.76449, label %L.B1752, !dbg !5758
L.B1752:
	%7 = bitcast %struct._ZSt12_Vector_baseIN5vmesh14MeshParametersESaIS1_EE*  %3 to i8**, !dbg !5758
	%8 = load i8*, i8**  %7, align 8, !tbaa !4114, !dbg !5758
	%9 = bitcast %struct._ZN5vmesh14MeshParametersE** %..inline.addr.1 to i8**, !dbg !5758
	store i8*  %8, i8**  %9, align 8, !tbaa !4114, !dbg !5758
	%10 = load %struct._ZN5vmesh14MeshParametersE*, %struct._ZN5vmesh14MeshParametersE** %..inline.addr.1, align 8, !tbaa !4114, !dbg !5758
	%11 = bitcast %struct._ZN5vmesh14MeshParametersE*  %10 to i8*, !dbg !5758
	call void  @_ZdlPv (i8*  %11) nounwind, !dbg !5758
	br label %L..inline.76449
L..inline.76449:
	ret void, !dbg !5759
}
define linkonce_odr void @_ZNSt12_Vector_baseIN5vmesh14MeshParametersESaIS1_EE13_M_deallocateEPS1_m(%struct._ZSt12_Vector_baseIN5vmesh14MeshParametersESaIS1_EE* %_T35351984_52736.arg, %struct._ZN5vmesh14MeshParametersE* %__p.arg, i64 %__n.arg) #0 inlinehint !dbg !5763 {
L.entry:
	%_T35351984_52736.addr = alloca %struct._ZSt12_Vector_baseIN5vmesh14MeshParametersESaIS1_EE*, align 8
	%__p.addr = alloca %struct._ZN5vmesh14MeshParametersE*, align 8
	%__n.addr = alloca i64, align 8
	%..inline.addr = alloca %struct._ZN5vmesh14MeshParametersE*, align 8

	call void @llvm.dbg.declare (metadata %struct._ZSt12_Vector_baseIN5vmesh14MeshParametersESaIS1_EE** %_T35351984_52736.addr, metadata !5775, metadata !4106), !dbg !5764
	store %struct._ZSt12_Vector_baseIN5vmesh14MeshParametersESaIS1_EE* %_T35351984_52736.arg, %struct._ZSt12_Vector_baseIN5vmesh14MeshParametersESaIS1_EE** %_T35351984_52736.addr, align 8, !tbaa !4114
	call void @llvm.dbg.declare (metadata %struct._ZSt12_Vector_baseIN5vmesh14MeshParametersESaIS1_EE** %_T35351984_52736.addr, metadata !5776, metadata !4106), !dbg !5764
	call void @llvm.dbg.declare (metadata %struct._ZN5vmesh14MeshParametersE** %__p.addr, metadata !5777, metadata !4106), !dbg !5764
	store %struct._ZN5vmesh14MeshParametersE* %__p.arg, %struct._ZN5vmesh14MeshParametersE** %__p.addr, align 8, !tbaa !4114
	call void @llvm.dbg.declare (metadata %struct._ZN5vmesh14MeshParametersE** %__p.addr, metadata !5778, metadata !4106), !dbg !5764
	call void @llvm.dbg.declare (metadata i64* %__n.addr, metadata !5779, metadata !4106), !dbg !5764
	store i64 %__n.arg, i64* %__n.addr, align 8, !tbaa !4113
	call void @llvm.dbg.declare (metadata i64* %__n.addr, metadata !5780, metadata !4106), !dbg !5764
	%0 = load %struct._ZN5vmesh14MeshParametersE*, %struct._ZN5vmesh14MeshParametersE** %__p.addr, align 8, !tbaa !4114, !dbg !5781
	%1 = bitcast %struct._ZN5vmesh14MeshParametersE*  %0 to i8*, !dbg !5781
	%2 = icmp eq i8*  %1,  null, !dbg !5781
	br i1  %2, label %L.B0008, label %L.B1755, !dbg !5781
L.B1755:
	%3 = bitcast %struct._ZN5vmesh14MeshParametersE*  %0 to i8*, !dbg !5782
	%4 = bitcast %struct._ZN5vmesh14MeshParametersE** %..inline.addr to i8**, !dbg !5782
	store i8*  %3, i8**  %4, align 8, !tbaa !4114, !dbg !5782
	%5 = load %struct._ZN5vmesh14MeshParametersE*, %struct._ZN5vmesh14MeshParametersE** %..inline.addr, align 8, !tbaa !4114, !dbg !5782
	%6 = bitcast %struct._ZN5vmesh14MeshParametersE*  %5 to i8*, !dbg !5782
	call void  @_ZdlPv (i8*  %6) nounwind, !dbg !5782
	br label %L.B0008
L.B0008:
	ret void, !dbg !5783
}
define linkonce_odr void @_ZNSt12_Vector_baseIN5vmesh14MeshParametersESaIS1_EE17_Vector_impl_dataC1Ev(%struct._ZNSt12_Vector_baseIN5vmesh14MeshParametersESaIS1_EE17_Vector_impl_dataE* %_T35351984_52737.arg) #0 inlinehint !dbg !5788 {
L.entry:
	%_T35351984_52737.addr = alloca %struct._ZNSt12_Vector_baseIN5vmesh14MeshParametersESaIS1_EE17_Vector_impl_dataE*, align 8

	call void @llvm.dbg.declare (metadata %struct._ZNSt12_Vector_baseIN5vmesh14MeshParametersESaIS1_EE17_Vector_impl_dataE** %_T35351984_52737.addr, metadata !5792, metadata !4106), !dbg !5789
	store %struct._ZNSt12_Vector_baseIN5vmesh14MeshParametersESaIS1_EE17_Vector_impl_dataE* %_T35351984_52737.arg, %struct._ZNSt12_Vector_baseIN5vmesh14MeshParametersESaIS1_EE17_Vector_impl_dataE** %_T35351984_52737.addr, align 8, !tbaa !4114
	call void @llvm.dbg.declare (metadata %struct._ZNSt12_Vector_baseIN5vmesh14MeshParametersESaIS1_EE17_Vector_impl_dataE** %_T35351984_52737.addr, metadata !5793, metadata !4106), !dbg !5789
	%0 = load %struct._ZNSt12_Vector_baseIN5vmesh14MeshParametersESaIS1_EE17_Vector_impl_dataE*, %struct._ZNSt12_Vector_baseIN5vmesh14MeshParametersESaIS1_EE17_Vector_impl_dataE** %_T35351984_52737.addr, align 8, !tbaa !4114, !dbg !5794
	%1 = bitcast %struct._ZNSt12_Vector_baseIN5vmesh14MeshParametersESaIS1_EE17_Vector_impl_dataE*  %0 to i8**, !dbg !5794
	store i8* null, i8**  %1, align 8, !tbaa !4114, !dbg !5794
	%2 = bitcast %struct._ZNSt12_Vector_baseIN5vmesh14MeshParametersESaIS1_EE17_Vector_impl_dataE*  %0 to i8*, !dbg !5794
	%3 = getelementptr i8, i8*  %2, i64 8, !dbg !5794
	%4 = bitcast i8*  %3 to i8**, !dbg !5794
	store i8* null, i8**  %4, align 8, !tbaa !4114, !dbg !5794
	%5 = getelementptr i8, i8*  %2, i64 16, !dbg !5794
	%6 = bitcast i8*  %5 to i8**, !dbg !5794
	store i8* null, i8**  %6, align 8, !tbaa !4114, !dbg !5794
	ret void, !dbg !5794
}
define linkonce_odr void @_ZNSt12_Vector_baseIN5vmesh14MeshParametersESaIS1_EE17_Vector_impl_dataC2Ev(%struct._ZNSt12_Vector_baseIN5vmesh14MeshParametersESaIS1_EE17_Vector_impl_dataE* %_T35351984_52738.arg) #0 inlinehint !dbg !5796 {
L.entry:
	%_T35351984_52738.addr = alloca %struct._ZNSt12_Vector_baseIN5vmesh14MeshParametersESaIS1_EE17_Vector_impl_dataE*, align 8
	%..inline.addr = alloca %struct._ZNSt12_Vector_baseIN5vmesh14MeshParametersESaIS1_EE17_Vector_impl_dataE*, align 8

	store %struct._ZNSt12_Vector_baseIN5vmesh14MeshParametersESaIS1_EE17_Vector_impl_dataE* %_T35351984_52738.arg, %struct._ZNSt12_Vector_baseIN5vmesh14MeshParametersESaIS1_EE17_Vector_impl_dataE** %_T35351984_52738.addr, align 8, !tbaa !4114
	%0 = load %struct._ZNSt12_Vector_baseIN5vmesh14MeshParametersESaIS1_EE17_Vector_impl_dataE*, %struct._ZNSt12_Vector_baseIN5vmesh14MeshParametersESaIS1_EE17_Vector_impl_dataE** %_T35351984_52738.addr, align 8, !tbaa !4114, !dbg !5804
	%1 = bitcast %struct._ZNSt12_Vector_baseIN5vmesh14MeshParametersESaIS1_EE17_Vector_impl_dataE*  %0 to i8*, !dbg !5804
	%2 = bitcast %struct._ZNSt12_Vector_baseIN5vmesh14MeshParametersESaIS1_EE17_Vector_impl_dataE** %..inline.addr to i8**, !dbg !5804
	store i8*  %1, i8**  %2, align 8, !tbaa !4114, !dbg !5804
	%3 = load %struct._ZNSt12_Vector_baseIN5vmesh14MeshParametersESaIS1_EE17_Vector_impl_dataE*, %struct._ZNSt12_Vector_baseIN5vmesh14MeshParametersESaIS1_EE17_Vector_impl_dataE** %..inline.addr, align 8, !tbaa !4114, !dbg !5804
	%4 = bitcast %struct._ZNSt12_Vector_baseIN5vmesh14MeshParametersESaIS1_EE17_Vector_impl_dataE*  %3 to i8**, !dbg !5804
	store i8* null, i8**  %4, align 8, !tbaa !4114, !dbg !5804
	%5 = bitcast %struct._ZNSt12_Vector_baseIN5vmesh14MeshParametersESaIS1_EE17_Vector_impl_dataE*  %3 to i8*, !dbg !5804
	%6 = getelementptr i8, i8*  %5, i64 8, !dbg !5804
	%7 = bitcast i8*  %6 to i8**, !dbg !5804
	store i8* null, i8**  %7, align 8, !tbaa !4114, !dbg !5804
	%8 = getelementptr i8, i8*  %5, i64 16, !dbg !5804
	%9 = bitcast i8*  %8 to i8**, !dbg !5804
	store i8* null, i8**  %9, align 8, !tbaa !4114, !dbg !5804
	ret void, !dbg !5804
}
define linkonce_odr void @_ZNSt12_Vector_baseIN5vmesh14MeshParametersESaIS1_EE12_Vector_implC1Ev(%struct._ZNSt12_Vector_baseIN5vmesh14MeshParametersESaIS1_EE12_Vector_implE* %_T35351984_52739.arg) #0 inlinehint !dbg !5809 {
L.entry:
	%_T35351984_52739.addr = alloca %struct._ZNSt12_Vector_baseIN5vmesh14MeshParametersESaIS1_EE12_Vector_implE*, align 8
	%..inline.addr = alloca %struct._ZNSt12_Vector_baseIN5vmesh14MeshParametersESaIS1_EE17_Vector_impl_dataE*, align 8

	call void @llvm.dbg.declare (metadata %struct._ZNSt12_Vector_baseIN5vmesh14MeshParametersESaIS1_EE12_Vector_implE** %_T35351984_52739.addr, metadata !5821, metadata !4106), !dbg !5810
	store %struct._ZNSt12_Vector_baseIN5vmesh14MeshParametersESaIS1_EE12_Vector_implE* %_T35351984_52739.arg, %struct._ZNSt12_Vector_baseIN5vmesh14MeshParametersESaIS1_EE12_Vector_implE** %_T35351984_52739.addr, align 8, !tbaa !4114
	call void @llvm.dbg.declare (metadata %struct._ZNSt12_Vector_baseIN5vmesh14MeshParametersESaIS1_EE12_Vector_implE** %_T35351984_52739.addr, metadata !5822, metadata !4106), !dbg !5810
	%0 = load %struct._ZNSt12_Vector_baseIN5vmesh14MeshParametersESaIS1_EE12_Vector_implE*, %struct._ZNSt12_Vector_baseIN5vmesh14MeshParametersESaIS1_EE12_Vector_implE** %_T35351984_52739.addr, align 8, !tbaa !4114, !dbg !5823
	%1 = bitcast %struct._ZNSt12_Vector_baseIN5vmesh14MeshParametersESaIS1_EE12_Vector_implE*  %0 to i8*, !dbg !5823
	%2 = bitcast %struct._ZNSt12_Vector_baseIN5vmesh14MeshParametersESaIS1_EE17_Vector_impl_dataE** %..inline.addr to i8**, !dbg !5823
	store i8*  %1, i8**  %2, align 8, !tbaa !4114, !dbg !5823
	%3 = load %struct._ZNSt12_Vector_baseIN5vmesh14MeshParametersESaIS1_EE17_Vector_impl_dataE*, %struct._ZNSt12_Vector_baseIN5vmesh14MeshParametersESaIS1_EE17_Vector_impl_dataE** %..inline.addr, align 8, !tbaa !4114, !dbg !5823
	%4 = bitcast %struct._ZNSt12_Vector_baseIN5vmesh14MeshParametersESaIS1_EE17_Vector_impl_dataE*  %3 to i8**, !dbg !5823
	store i8* null, i8**  %4, align 8, !tbaa !4114, !dbg !5823
	%5 = bitcast %struct._ZNSt12_Vector_baseIN5vmesh14MeshParametersESaIS1_EE17_Vector_impl_dataE*  %3 to i8*, !dbg !5824
	%6 = getelementptr i8, i8*  %5, i64 8, !dbg !5824
	%7 = bitcast i8*  %6 to i8**, !dbg !5824
	store i8* null, i8**  %7, align 8, !tbaa !4114, !dbg !5824
	%8 = getelementptr i8, i8*  %5, i64 16, !dbg !5824
	%9 = bitcast i8*  %8 to i8**, !dbg !5824
	store i8* null, i8**  %9, align 8, !tbaa !4114, !dbg !5824
	ret void, !dbg !5823
}
define linkonce_odr void @_ZNSt12_Vector_baseIN5vmesh14MeshParametersESaIS1_EE12_Vector_implC2Ev(%struct._ZNSt12_Vector_baseIN5vmesh14MeshParametersESaIS1_EE12_Vector_implE* %_T35351984_52740.arg) #0 inlinehint !dbg !5826 {
L.entry:
	%_T35351984_52740.addr = alloca %struct._ZNSt12_Vector_baseIN5vmesh14MeshParametersESaIS1_EE12_Vector_implE*, align 8
	%..inline.addr = alloca %struct._ZNSt12_Vector_baseIN5vmesh14MeshParametersESaIS1_EE17_Vector_impl_dataE*, align 8

	store %struct._ZNSt12_Vector_baseIN5vmesh14MeshParametersESaIS1_EE12_Vector_implE* %_T35351984_52740.arg, %struct._ZNSt12_Vector_baseIN5vmesh14MeshParametersESaIS1_EE12_Vector_implE** %_T35351984_52740.addr, align 8, !tbaa !4114
	%0 = load %struct._ZNSt12_Vector_baseIN5vmesh14MeshParametersESaIS1_EE12_Vector_implE*, %struct._ZNSt12_Vector_baseIN5vmesh14MeshParametersESaIS1_EE12_Vector_implE** %_T35351984_52740.addr, align 8, !tbaa !4114, !dbg !5842
	%1 = bitcast %struct._ZNSt12_Vector_baseIN5vmesh14MeshParametersESaIS1_EE12_Vector_implE*  %0 to i8*, !dbg !5842
	%2 = bitcast %struct._ZNSt12_Vector_baseIN5vmesh14MeshParametersESaIS1_EE17_Vector_impl_dataE** %..inline.addr to i8**, !dbg !5842
	store i8*  %1, i8**  %2, align 8, !tbaa !4114, !dbg !5842
	%3 = load %struct._ZNSt12_Vector_baseIN5vmesh14MeshParametersESaIS1_EE17_Vector_impl_dataE*, %struct._ZNSt12_Vector_baseIN5vmesh14MeshParametersESaIS1_EE17_Vector_impl_dataE** %..inline.addr, align 8, !tbaa !4114, !dbg !5842
	%4 = bitcast %struct._ZNSt12_Vector_baseIN5vmesh14MeshParametersESaIS1_EE17_Vector_impl_dataE*  %3 to i8**, !dbg !5842
	store i8* null, i8**  %4, align 8, !tbaa !4114, !dbg !5842
	%5 = bitcast %struct._ZNSt12_Vector_baseIN5vmesh14MeshParametersESaIS1_EE17_Vector_impl_dataE*  %3 to i8*, !dbg !5842
	%6 = getelementptr i8, i8*  %5, i64 8, !dbg !5842
	%7 = bitcast i8*  %6 to i8**, !dbg !5842
	store i8* null, i8**  %7, align 8, !tbaa !4114, !dbg !5842
	%8 = getelementptr i8, i8*  %5, i64 16, !dbg !5842
	%9 = bitcast i8*  %8 to i8**, !dbg !5842
	store i8* null, i8**  %9, align 8, !tbaa !4114, !dbg !5842
	ret void, !dbg !5842
}
define linkonce_odr void @_ZNSt12_Vector_baseIN5vmesh14MeshParametersESaIS1_EE12_Vector_implD1Ev(%struct._ZNSt12_Vector_baseIN5vmesh14MeshParametersESaIS1_EE12_Vector_implE* %_T35351984_52741.arg) #0 inlinehint !dbg !5844 {
L.entry:
	%_T35351984_52741.addr = alloca %struct._ZNSt12_Vector_baseIN5vmesh14MeshParametersESaIS1_EE12_Vector_implE*, align 8

	call void @llvm.dbg.declare (metadata %struct._ZNSt12_Vector_baseIN5vmesh14MeshParametersESaIS1_EE12_Vector_implE** %_T35351984_52741.addr, metadata !5856, metadata !4106), !dbg !5845
	store %struct._ZNSt12_Vector_baseIN5vmesh14MeshParametersESaIS1_EE12_Vector_implE* %_T35351984_52741.arg, %struct._ZNSt12_Vector_baseIN5vmesh14MeshParametersESaIS1_EE12_Vector_implE** %_T35351984_52741.addr, align 8, !tbaa !4114
	call void @llvm.dbg.declare (metadata %struct._ZNSt12_Vector_baseIN5vmesh14MeshParametersESaIS1_EE12_Vector_implE** %_T35351984_52741.addr, metadata !5857, metadata !4106), !dbg !5845
	ret void, !dbg !5858
}
define linkonce_odr void @_ZNSt12_Vector_baseIN5vmesh14MeshParametersESaIS1_EE12_Vector_implD2Ev(%struct._ZNSt12_Vector_baseIN5vmesh14MeshParametersESaIS1_EE12_Vector_implE* %_T35351984_52742.arg) #0 inlinehint !dbg !5860 {
L.entry:
	%_T35351984_52742.addr = alloca %struct._ZNSt12_Vector_baseIN5vmesh14MeshParametersESaIS1_EE12_Vector_implE*, align 8

	store %struct._ZNSt12_Vector_baseIN5vmesh14MeshParametersESaIS1_EE12_Vector_implE* %_T35351984_52742.arg, %struct._ZNSt12_Vector_baseIN5vmesh14MeshParametersESaIS1_EE12_Vector_implE** %_T35351984_52742.addr, align 8, !tbaa !4114
	ret void, !dbg !5876
}

%struct._ZSt6vectorIN5vmesh14MeshParametersESaIS1_EE = type <{ %struct._ZSt12_Vector_baseIN5vmesh14MeshParametersESaIS1_EE}> 

define linkonce_odr void @_ZNSt6vectorIN5vmesh14MeshParametersESaIS1_EEC1Ev(%struct._ZSt6vectorIN5vmesh14MeshParametersESaIS1_EE* %_T35351984_52743.arg) #0 inlinehint !dbg !5881 {
L.entry:
	%_T35351984_52743.addr = alloca %struct._ZSt6vectorIN5vmesh14MeshParametersESaIS1_EE*, align 8
	%..inline.addr = alloca %struct._ZNSt12_Vector_baseIN5vmesh14MeshParametersESaIS1_EE17_Vector_impl_dataE*, align 8

	call void @llvm.dbg.declare (metadata %struct._ZSt6vectorIN5vmesh14MeshParametersESaIS1_EE** %_T35351984_52743.addr, metadata !5905, metadata !4106), !dbg !5882
	store %struct._ZSt6vectorIN5vmesh14MeshParametersESaIS1_EE* %_T35351984_52743.arg, %struct._ZSt6vectorIN5vmesh14MeshParametersESaIS1_EE** %_T35351984_52743.addr, align 8, !tbaa !4114
	call void @llvm.dbg.declare (metadata %struct._ZSt6vectorIN5vmesh14MeshParametersESaIS1_EE** %_T35351984_52743.addr, metadata !5906, metadata !4106), !dbg !5882
	%0 = load %struct._ZSt6vectorIN5vmesh14MeshParametersESaIS1_EE*, %struct._ZSt6vectorIN5vmesh14MeshParametersESaIS1_EE** %_T35351984_52743.addr, align 8, !tbaa !4114, !dbg !5907
	%1 = bitcast %struct._ZSt6vectorIN5vmesh14MeshParametersESaIS1_EE*  %0 to i8*, !dbg !5907
	%2 = bitcast %struct._ZNSt12_Vector_baseIN5vmesh14MeshParametersESaIS1_EE17_Vector_impl_dataE** %..inline.addr to i8**, !dbg !5907
	store i8*  %1, i8**  %2, align 8, !tbaa !4114, !dbg !5907
	%3 = load %struct._ZNSt12_Vector_baseIN5vmesh14MeshParametersESaIS1_EE17_Vector_impl_dataE*, %struct._ZNSt12_Vector_baseIN5vmesh14MeshParametersESaIS1_EE17_Vector_impl_dataE** %..inline.addr, align 8, !tbaa !4114, !dbg !5907
	%4 = bitcast %struct._ZNSt12_Vector_baseIN5vmesh14MeshParametersESaIS1_EE17_Vector_impl_dataE*  %3 to i8**, !dbg !5907
	store i8* null, i8**  %4, align 8, !tbaa !4114, !dbg !5907
	%5 = bitcast %struct._ZNSt12_Vector_baseIN5vmesh14MeshParametersESaIS1_EE17_Vector_impl_dataE*  %3 to i8*, !dbg !5907
	%6 = getelementptr i8, i8*  %5, i64 8, !dbg !5907
	%7 = bitcast i8*  %6 to i8**, !dbg !5907
	store i8* null, i8**  %7, align 8, !tbaa !4114, !dbg !5907
	%8 = getelementptr i8, i8*  %5, i64 16, !dbg !5907
	%9 = bitcast i8*  %8 to i8**, !dbg !5907
	store i8* null, i8**  %9, align 8, !tbaa !4114, !dbg !5907
	ret void, !dbg !5907
}
define linkonce_odr void @_ZNSt6vectorIN5vmesh14MeshParametersESaIS1_EEC2Ev(%struct._ZSt6vectorIN5vmesh14MeshParametersESaIS1_EE* %_T35351984_52744.arg) #0 inlinehint !dbg !5909 {
L.entry:
	%_T35351984_52744.addr = alloca %struct._ZSt6vectorIN5vmesh14MeshParametersESaIS1_EE*, align 8
	%..inline.addr = alloca %struct._ZNSt12_Vector_baseIN5vmesh14MeshParametersESaIS1_EE17_Vector_impl_dataE*, align 8

	store %struct._ZSt6vectorIN5vmesh14MeshParametersESaIS1_EE* %_T35351984_52744.arg, %struct._ZSt6vectorIN5vmesh14MeshParametersESaIS1_EE** %_T35351984_52744.addr, align 8, !tbaa !4114
	%0 = load %struct._ZSt6vectorIN5vmesh14MeshParametersESaIS1_EE*, %struct._ZSt6vectorIN5vmesh14MeshParametersESaIS1_EE** %_T35351984_52744.addr, align 8, !tbaa !4114, !dbg !5937
	%1 = bitcast %struct._ZSt6vectorIN5vmesh14MeshParametersESaIS1_EE*  %0 to i8*, !dbg !5937
	%2 = bitcast %struct._ZNSt12_Vector_baseIN5vmesh14MeshParametersESaIS1_EE17_Vector_impl_dataE** %..inline.addr to i8**, !dbg !5937
	store i8*  %1, i8**  %2, align 8, !tbaa !4114, !dbg !5937
	%3 = load %struct._ZNSt12_Vector_baseIN5vmesh14MeshParametersESaIS1_EE17_Vector_impl_dataE*, %struct._ZNSt12_Vector_baseIN5vmesh14MeshParametersESaIS1_EE17_Vector_impl_dataE** %..inline.addr, align 8, !tbaa !4114, !dbg !5937
	%4 = bitcast %struct._ZNSt12_Vector_baseIN5vmesh14MeshParametersESaIS1_EE17_Vector_impl_dataE*  %3 to i8**, !dbg !5937
	store i8* null, i8**  %4, align 8, !tbaa !4114, !dbg !5937
	%5 = bitcast %struct._ZNSt12_Vector_baseIN5vmesh14MeshParametersESaIS1_EE17_Vector_impl_dataE*  %3 to i8*, !dbg !5937
	%6 = getelementptr i8, i8*  %5, i64 8, !dbg !5937
	%7 = bitcast i8*  %6 to i8**, !dbg !5937
	store i8* null, i8**  %7, align 8, !tbaa !4114, !dbg !5937
	%8 = getelementptr i8, i8*  %5, i64 16, !dbg !5937
	%9 = bitcast i8*  %8 to i8**, !dbg !5937
	store i8* null, i8**  %9, align 8, !tbaa !4114, !dbg !5937
	ret void, !dbg !5937
}
define linkonce_odr void @_ZNSt6vectorIN5vmesh14MeshParametersESaIS1_EED1Ev(%struct._ZSt6vectorIN5vmesh14MeshParametersESaIS1_EE* %_T35351984_52745.arg) #0 inlinehint !dbg !5939 {
L.entry:
	%_T35351984_52745.addr = alloca %struct._ZSt6vectorIN5vmesh14MeshParametersESaIS1_EE*, align 8
	%..inline.addr = alloca %struct._ZN5vmesh14MeshParametersE*, align 8
	%..inline.addr.1 = alloca %struct._ZN5vmesh14MeshParametersE*, align 8
	%.lcr4484993.addr = alloca i8*, align 8
	%..inline.addr.2 = alloca %struct._ZN5vmesh14MeshParametersE*, align 8
	%..inline.addr.3 = alloca %struct._ZSt12_Vector_baseIN5vmesh14MeshParametersESaIS1_EE*, align 8
	%..inline.addr.4 = alloca %struct._ZN5vmesh14MeshParametersE*, align 8

	call void @llvm.dbg.declare (metadata %struct._ZSt6vectorIN5vmesh14MeshParametersESaIS1_EE** %_T35351984_52745.addr, metadata !5999, metadata !4106), !dbg !5940
	store %struct._ZSt6vectorIN5vmesh14MeshParametersESaIS1_EE* %_T35351984_52745.arg, %struct._ZSt6vectorIN5vmesh14MeshParametersESaIS1_EE** %_T35351984_52745.addr, align 8, !tbaa !4114
	call void @llvm.dbg.declare (metadata %struct._ZSt6vectorIN5vmesh14MeshParametersESaIS1_EE** %_T35351984_52745.addr, metadata !6000, metadata !4106), !dbg !5940
	%0 = load %struct._ZSt6vectorIN5vmesh14MeshParametersESaIS1_EE*, %struct._ZSt6vectorIN5vmesh14MeshParametersESaIS1_EE** %_T35351984_52745.addr, align 8, !tbaa !4114, !dbg !6001
	%1 = bitcast %struct._ZSt6vectorIN5vmesh14MeshParametersESaIS1_EE*  %0 to i8**, !dbg !6001
	%2 = load i8*, i8**  %1, align 8, !tbaa !4114, !dbg !6001
	%3 = bitcast %struct._ZN5vmesh14MeshParametersE** %..inline.addr to i8**, !dbg !6001
	store i8*  %2, i8**  %3, align 8, !tbaa !4114, !dbg !6001
	%4 = bitcast %struct._ZSt6vectorIN5vmesh14MeshParametersESaIS1_EE*  %0 to i8*, !dbg !6001
	%5 = getelementptr i8, i8*  %4, i64 8, !dbg !6001
	%6 = bitcast i8*  %5 to i8**, !dbg !6001
	%7 = load i8*, i8**  %6, align 8, !tbaa !4114, !dbg !6001
	%8 = bitcast %struct._ZN5vmesh14MeshParametersE** %..inline.addr.1 to i8**, !dbg !6001
	store i8*  %7, i8**  %8, align 8, !tbaa !4114, !dbg !6001
	%9 = load %struct._ZN5vmesh14MeshParametersE*, %struct._ZN5vmesh14MeshParametersE** %..inline.addr, align 8, !tbaa !4114, !dbg !6001
	%10 = bitcast %struct._ZN5vmesh14MeshParametersE*  %9 to i8*, !dbg !6001
	%11 = load %struct._ZN5vmesh14MeshParametersE*, %struct._ZN5vmesh14MeshParametersE** %..inline.addr.1, align 8, !tbaa !4114, !dbg !6001
	%12 = bitcast %struct._ZN5vmesh14MeshParametersE*  %11 to i8*, !dbg !6001
	%13 = icmp eq i8*  %10,  %12, !dbg !6001
	br i1  %13, label %L..inline.76702, label %L.B1776, !dbg !6001
L.B1776:
	%14 = bitcast %struct._ZN5vmesh14MeshParametersE*  %9 to i8*, !dbg !6001
	%15 = bitcast %struct._ZN5vmesh14MeshParametersE*  %11 to i8*, !dbg !6001
	%16 = ptrtoint i8*  %14 to i64, !dbg !6001
	%17 = sub i64 0,  %16, !dbg !6001
	%18 = getelementptr i8, i8*  %15, i64  %17, !dbg !6001
	%19 = ptrtoint i8*  %18 to i64, !dbg !6001
	%20 = add i64  %19, 335, !dbg !6001
	%21 = sub i64 0,  %16, !dbg !6001
	%22 = getelementptr i8, i8*  %15, i64  %21, !dbg !6001
	%23 = ptrtoint i8*  %22 to i64, !dbg !6001
	%24 = add i64  %23, 335, !dbg !6001
	%25 = sext i64 -4392081922311798003 to i128, !dbg !6001
	%26 = sext i64  %24 to i128, !dbg !6001
	%27 = mul i128  %25,  %26, !dbg !6001
	%28 = ashr i128  %27, 64, !dbg !6001
	%29 = trunc i128  %28 to i64, !dbg !6001
	%30 = add i64  %20,  %29, !dbg !6001
	%31 = sext i32 8 to i64, !dbg !6001
	%32 = ashr i64  %30,  %31, !dbg !6001
	%33 = sub i64 0,  %16, !dbg !6001
	%34 = getelementptr i8, i8*  %15, i64  %33, !dbg !6001
	%35 = ptrtoint i8*  %34 to i64, !dbg !6001
	%36 = add i64  %35, 335, !dbg !6001
	%37 = sext i32 63 to i64, !dbg !6001
	%38 = ashr i64  %36,  %37, !dbg !6001
	%39 = sub i64  %32,  %38, !dbg !6001
	%40 = mul i64  %39, 336, !dbg !6001
	%41 = getelementptr i8, i8*  %14, i64  %40, !dbg !6001
	store i8*  %41, i8** %.lcr4484993.addr, align 8, !tbaa !4114, !dbg !6001
	br label %L..inline.76701
L..inline.76701:
	%42 = load %struct._ZN5vmesh14MeshParametersE*, %struct._ZN5vmesh14MeshParametersE** %..inline.addr, align 8, !tbaa !4114, !dbg !6001
	%43 = bitcast %struct._ZN5vmesh14MeshParametersE*  %42 to i8*, !dbg !6001
	%44 = bitcast %struct._ZN5vmesh14MeshParametersE** %..inline.addr.2 to i8**, !dbg !6001
	store i8*  %43, i8**  %44, align 8, !tbaa !4114, !dbg !6001
	%45 = load %struct._ZN5vmesh14MeshParametersE*, %struct._ZN5vmesh14MeshParametersE** %..inline.addr.2, align 8, !tbaa !4114, !dbg !6001
	call void  @_ZN5vmesh14MeshParametersD1Ev (%struct._ZN5vmesh14MeshParametersE*  %45) nounwind, !dbg !6001
	%46 = load %struct._ZN5vmesh14MeshParametersE*, %struct._ZN5vmesh14MeshParametersE** %..inline.addr, align 8, !tbaa !4114, !dbg !6001
	%47 = bitcast %struct._ZN5vmesh14MeshParametersE*  %46 to i8*, !dbg !6001
	%48 = getelementptr i8, i8*  %47, i64 336, !dbg !6001
	%49 = bitcast %struct._ZN5vmesh14MeshParametersE** %..inline.addr to i8**, !dbg !6001
	store i8*  %48, i8**  %49, align 8, !tbaa !4114, !dbg !6001
	%50 = load %struct._ZN5vmesh14MeshParametersE*, %struct._ZN5vmesh14MeshParametersE** %..inline.addr, align 8, !tbaa !4114, !dbg !6001
	%51 = bitcast %struct._ZN5vmesh14MeshParametersE*  %50 to i8*, !dbg !6001
	%52 = load i8*, i8** %.lcr4484993.addr, align 8, !tbaa !4114, !dbg !6001
	%53 = icmp ult i8*  %51,  %52, !dbg !6001
	br i1  %53, label %L..inline.76701, label %L..inline.76702, !dbg !6001
L..inline.76702:
	%54 = load %struct._ZSt6vectorIN5vmesh14MeshParametersESaIS1_EE*, %struct._ZSt6vectorIN5vmesh14MeshParametersESaIS1_EE** %_T35351984_52745.addr, align 8, !tbaa !4114, !dbg !6002
	%55 = bitcast %struct._ZSt6vectorIN5vmesh14MeshParametersESaIS1_EE*  %54 to i8*, !dbg !6002
	%56 = bitcast %struct._ZSt12_Vector_baseIN5vmesh14MeshParametersESaIS1_EE** %..inline.addr.3 to i8**, !dbg !6002
	store i8*  %55, i8**  %56, align 8, !tbaa !4114, !dbg !6002
	%57 = load %struct._ZSt12_Vector_baseIN5vmesh14MeshParametersESaIS1_EE*, %struct._ZSt12_Vector_baseIN5vmesh14MeshParametersESaIS1_EE** %..inline.addr.3, align 8, !tbaa !4114, !dbg !6003
	%58 = bitcast %struct._ZSt12_Vector_baseIN5vmesh14MeshParametersESaIS1_EE*  %57 to i8**, !dbg !6003
	%59 = load i8*, i8**  %58, align 8, !tbaa !4114, !dbg !6003
	%60 = icmp eq i8*  %59,  null, !dbg !6003
	br i1  %60, label %L..inline.76734, label %L.B1777, !dbg !6003
L.B1777:
	%61 = bitcast %struct._ZSt12_Vector_baseIN5vmesh14MeshParametersESaIS1_EE*  %57 to i8**, !dbg !6003
	%62 = load i8*, i8**  %61, align 8, !tbaa !4114, !dbg !6003
	%63 = bitcast %struct._ZN5vmesh14MeshParametersE** %..inline.addr.4 to i8**, !dbg !6003
	store i8*  %62, i8**  %63, align 8, !tbaa !4114, !dbg !6003
	%64 = load %struct._ZN5vmesh14MeshParametersE*, %struct._ZN5vmesh14MeshParametersE** %..inline.addr.4, align 8, !tbaa !4114, !dbg !6003
	%65 = bitcast %struct._ZN5vmesh14MeshParametersE*  %64 to i8*, !dbg !6003
	call void  @_ZdlPv (i8*  %65) nounwind, !dbg !6003
	br label %L..inline.76734
L..inline.76734:
	ret void, !dbg !6002
}
define linkonce_odr void @_ZNSt6vectorIN5vmesh14MeshParametersESaIS1_EED2Ev(%struct._ZSt6vectorIN5vmesh14MeshParametersESaIS1_EE* %_T35351984_52746.arg) #0 inlinehint !dbg !6005 {
L.entry:
	%_T35351984_52746.addr = alloca %struct._ZSt6vectorIN5vmesh14MeshParametersESaIS1_EE*, align 8
	%..inline.addr = alloca %struct._ZSt6vectorIN5vmesh14MeshParametersESaIS1_EE*, align 8
	%..inline.addr.1 = alloca %struct._ZN5vmesh14MeshParametersE*, align 8
	%..inline.addr.2 = alloca %struct._ZN5vmesh14MeshParametersE*, align 8
	%.lcr4486017.addr = alloca i8*, align 8
	%..inline.addr.3 = alloca %struct._ZN5vmesh14MeshParametersE*, align 8
	%..inline.addr.4 = alloca %struct._ZN5vmesh14MeshParametersE*, align 8

	store %struct._ZSt6vectorIN5vmesh14MeshParametersESaIS1_EE* %_T35351984_52746.arg, %struct._ZSt6vectorIN5vmesh14MeshParametersESaIS1_EE** %_T35351984_52746.addr, align 8, !tbaa !4114
	%0 = load %struct._ZSt6vectorIN5vmesh14MeshParametersESaIS1_EE*, %struct._ZSt6vectorIN5vmesh14MeshParametersESaIS1_EE** %_T35351984_52746.addr, align 8, !tbaa !4114, !dbg !6069
	%1 = bitcast %struct._ZSt6vectorIN5vmesh14MeshParametersESaIS1_EE*  %0 to i8*, !dbg !6069
	%2 = bitcast %struct._ZSt6vectorIN5vmesh14MeshParametersESaIS1_EE** %..inline.addr to i8**, !dbg !6069
	store i8*  %1, i8**  %2, align 8, !tbaa !4114, !dbg !6069
	%3 = load %struct._ZSt6vectorIN5vmesh14MeshParametersESaIS1_EE*, %struct._ZSt6vectorIN5vmesh14MeshParametersESaIS1_EE** %..inline.addr, align 8, !tbaa !4114, !dbg !6070
	%4 = bitcast %struct._ZSt6vectorIN5vmesh14MeshParametersESaIS1_EE*  %3 to i8**, !dbg !6070
	%5 = load i8*, i8**  %4, align 8, !tbaa !4114, !dbg !6070
	%6 = bitcast %struct._ZN5vmesh14MeshParametersE** %..inline.addr.1 to i8**, !dbg !6070
	store i8*  %5, i8**  %6, align 8, !tbaa !4114, !dbg !6070
	%7 = bitcast %struct._ZSt6vectorIN5vmesh14MeshParametersESaIS1_EE*  %3 to i8*, !dbg !6070
	%8 = getelementptr i8, i8*  %7, i64 8, !dbg !6070
	%9 = bitcast i8*  %8 to i8**, !dbg !6070
	%10 = load i8*, i8**  %9, align 8, !tbaa !4114, !dbg !6070
	%11 = bitcast %struct._ZN5vmesh14MeshParametersE** %..inline.addr.2 to i8**, !dbg !6070
	store i8*  %10, i8**  %11, align 8, !tbaa !4114, !dbg !6070
	%12 = load %struct._ZN5vmesh14MeshParametersE*, %struct._ZN5vmesh14MeshParametersE** %..inline.addr.1, align 8, !tbaa !4114, !dbg !6070
	%13 = bitcast %struct._ZN5vmesh14MeshParametersE*  %12 to i8*, !dbg !6070
	%14 = load %struct._ZN5vmesh14MeshParametersE*, %struct._ZN5vmesh14MeshParametersE** %..inline.addr.2, align 8, !tbaa !4114, !dbg !6070
	%15 = bitcast %struct._ZN5vmesh14MeshParametersE*  %14 to i8*, !dbg !6070
	%16 = icmp eq i8*  %13,  %15, !dbg !6070
	br i1  %16, label %L..inline.76833, label %L.B1780, !dbg !6070
L.B1780:
	%17 = bitcast %struct._ZN5vmesh14MeshParametersE*  %12 to i8*, !dbg !6070
	%18 = bitcast %struct._ZN5vmesh14MeshParametersE*  %14 to i8*, !dbg !6070
	%19 = ptrtoint i8*  %17 to i64, !dbg !6070
	%20 = sub i64 0,  %19, !dbg !6070
	%21 = getelementptr i8, i8*  %18, i64  %20, !dbg !6070
	%22 = ptrtoint i8*  %21 to i64, !dbg !6070
	%23 = add i64  %22, 335, !dbg !6070
	%24 = sub i64 0,  %19, !dbg !6070
	%25 = getelementptr i8, i8*  %18, i64  %24, !dbg !6070
	%26 = ptrtoint i8*  %25 to i64, !dbg !6070
	%27 = add i64  %26, 335, !dbg !6070
	%28 = sext i64 -4392081922311798003 to i128, !dbg !6070
	%29 = sext i64  %27 to i128, !dbg !6070
	%30 = mul i128  %28,  %29, !dbg !6070
	%31 = ashr i128  %30, 64, !dbg !6070
	%32 = trunc i128  %31 to i64, !dbg !6070
	%33 = add i64  %23,  %32, !dbg !6070
	%34 = sext i32 8 to i64, !dbg !6070
	%35 = ashr i64  %33,  %34, !dbg !6070
	%36 = sub i64 0,  %19, !dbg !6070
	%37 = getelementptr i8, i8*  %18, i64  %36, !dbg !6070
	%38 = ptrtoint i8*  %37 to i64, !dbg !6070
	%39 = add i64  %38, 335, !dbg !6070
	%40 = sext i32 63 to i64, !dbg !6070
	%41 = ashr i64  %39,  %40, !dbg !6070
	%42 = sub i64  %35,  %41, !dbg !6070
	%43 = mul i64  %42, 336, !dbg !6070
	%44 = getelementptr i8, i8*  %17, i64  %43, !dbg !6070
	store i8*  %44, i8** %.lcr4486017.addr, align 8, !tbaa !4114, !dbg !6070
	br label %L..inline.76832
L..inline.76832:
	%45 = load %struct._ZN5vmesh14MeshParametersE*, %struct._ZN5vmesh14MeshParametersE** %..inline.addr.1, align 8, !tbaa !4114, !dbg !6070
	%46 = bitcast %struct._ZN5vmesh14MeshParametersE*  %45 to i8*, !dbg !6070
	%47 = bitcast %struct._ZN5vmesh14MeshParametersE** %..inline.addr.3 to i8**, !dbg !6070
	store i8*  %46, i8**  %47, align 8, !tbaa !4114, !dbg !6070
	%48 = load %struct._ZN5vmesh14MeshParametersE*, %struct._ZN5vmesh14MeshParametersE** %..inline.addr.3, align 8, !tbaa !4114, !dbg !6070
	call void  @_ZN5vmesh14MeshParametersD1Ev (%struct._ZN5vmesh14MeshParametersE*  %48) nounwind, !dbg !6070
	%49 = load %struct._ZN5vmesh14MeshParametersE*, %struct._ZN5vmesh14MeshParametersE** %..inline.addr.1, align 8, !tbaa !4114, !dbg !6070
	%50 = bitcast %struct._ZN5vmesh14MeshParametersE*  %49 to i8*, !dbg !6070
	%51 = getelementptr i8, i8*  %50, i64 336, !dbg !6070
	%52 = bitcast %struct._ZN5vmesh14MeshParametersE** %..inline.addr.1 to i8**, !dbg !6070
	store i8*  %51, i8**  %52, align 8, !tbaa !4114, !dbg !6070
	%53 = load %struct._ZN5vmesh14MeshParametersE*, %struct._ZN5vmesh14MeshParametersE** %..inline.addr.1, align 8, !tbaa !4114, !dbg !6070
	%54 = bitcast %struct._ZN5vmesh14MeshParametersE*  %53 to i8*, !dbg !6070
	%55 = load i8*, i8** %.lcr4486017.addr, align 8, !tbaa !4114, !dbg !6070
	%56 = icmp ult i8*  %54,  %55, !dbg !6070
	br i1  %56, label %L..inline.76832, label %L..inline.76833, !dbg !6070
L..inline.76833:
	%57 = load %struct._ZSt6vectorIN5vmesh14MeshParametersESaIS1_EE*, %struct._ZSt6vectorIN5vmesh14MeshParametersESaIS1_EE** %..inline.addr, align 8, !tbaa !4114, !dbg !6071
	%58 = bitcast %struct._ZSt6vectorIN5vmesh14MeshParametersESaIS1_EE*  %57 to i8**, !dbg !6071
	%59 = load i8*, i8**  %58, align 8, !tbaa !4114, !dbg !6071
	%60 = icmp eq i8*  %59,  null, !dbg !6071
	br i1  %60, label %L..inline.76863, label %L.B1781, !dbg !6071
L.B1781:
	%61 = bitcast %struct._ZSt6vectorIN5vmesh14MeshParametersESaIS1_EE*  %57 to i8**, !dbg !6071
	%62 = load i8*, i8**  %61, align 8, !tbaa !4114, !dbg !6071
	%63 = bitcast %struct._ZN5vmesh14MeshParametersE** %..inline.addr.4 to i8**, !dbg !6071
	store i8*  %62, i8**  %63, align 8, !tbaa !4114, !dbg !6071
	%64 = load %struct._ZN5vmesh14MeshParametersE*, %struct._ZN5vmesh14MeshParametersE** %..inline.addr.4, align 8, !tbaa !4114, !dbg !6071
	%65 = bitcast %struct._ZN5vmesh14MeshParametersE*  %64 to i8*, !dbg !6071
	call void  @_ZdlPv (i8*  %65) nounwind, !dbg !6071
	br label %L..inline.76863
L..inline.76863:
	ret void, !dbg !6071
}

%struct._ZNSt12_Vector_baseIN7species7SpeciesESaIS1_EE12_Vector_implE = type <{ %struct._ZNSt12_Vector_baseIN7species7SpeciesESaIS1_EE17_Vector_impl_dataE}> 
%struct._ZSt6vectorIN7species7SpeciesESaIS1_EE = type <{ %struct._ZSt12_Vector_baseIN7species7SpeciesESaIS1_EE}> 
%struct._ZNSt12_Vector_baseIN7species7SpeciesESaIS1_EE17_Vector_impl_dataE = type <{ %struct._ZN7species7SpeciesE*, %struct._ZN7species7SpeciesE*, %struct._ZN7species7SpeciesE*}> 
%struct._ZN7species7SpeciesE = type <{ %struct._ZNSt7__cxx1112basic_stringIcSt11char_traitsIcESaIcEEE, double, double, double, i64, i32, i8, [3 x i8], i32, [4 x i8], double, double, double, double, double, %struct._ZSt5arrayIdLm3EE, double, double, double, double, i32, [4 x i8], double, double, double}> 
%struct._ZSt12_Vector_baseIN7species7SpeciesESaIS1_EE = type <{ %struct._ZNSt12_Vector_baseIN7species7SpeciesESaIS1_EE12_Vector_implE}> 

define linkonce_odr i64 @_ZNKSt6vectorIN7species7SpeciesESaIS1_EE4sizeEv(%struct._ZSt6vectorIN7species7SpeciesESaIS1_EE* %_T35351984_52748.arg) #0 inlinehint !dbg !6076 {
L.entry:
	%_T35351984_52748.addr = alloca %struct._ZSt6vectorIN7species7SpeciesESaIS1_EE*, align 8
	%_T35352872_52748.addr = alloca i64, align 8

	call void @llvm.dbg.declare (metadata %struct._ZSt6vectorIN7species7SpeciesESaIS1_EE** %_T35351984_52748.addr, metadata !6080, metadata !4106), !dbg !6077
	store %struct._ZSt6vectorIN7species7SpeciesESaIS1_EE* %_T35351984_52748.arg, %struct._ZSt6vectorIN7species7SpeciesESaIS1_EE** %_T35351984_52748.addr, align 8, !tbaa !4114
	call void @llvm.dbg.declare (metadata %struct._ZSt6vectorIN7species7SpeciesESaIS1_EE** %_T35351984_52748.addr, metadata !6081, metadata !4106), !dbg !6077
	%0 = load %struct._ZSt6vectorIN7species7SpeciesESaIS1_EE*, %struct._ZSt6vectorIN7species7SpeciesESaIS1_EE** %_T35351984_52748.addr, align 8, !tbaa !4114, !dbg !6082
	%1 = bitcast %struct._ZSt6vectorIN7species7SpeciesESaIS1_EE*  %0 to i8*, !dbg !6082
	%2 = getelementptr i8, i8*  %1, i64 8, !dbg !6082
	%3 = bitcast i8*  %2 to i8**, !dbg !6082
	%4 = load i8*, i8**  %3, align 8, !tbaa !4114, !dbg !6082
	%5 = bitcast %struct._ZSt6vectorIN7species7SpeciesESaIS1_EE*  %0 to i8**, !dbg !6082
	%6 = load i8*, i8**  %5, align 8, !tbaa !4114, !dbg !6082
	%7 = ptrtoint i8*  %6 to i64, !dbg !6082
	%8 = sub i64 0,  %7, !dbg !6082
	%9 = getelementptr i8, i8*  %4, i64  %8, !dbg !6082
	%10 = ptrtoint i8*  %9 to i64, !dbg !6082
	%11 = sext i64 5675921253449092805 to i128, !dbg !6082
	%12 = sext i64  %10 to i128, !dbg !6082
	%13 = mul i128  %11,  %12, !dbg !6082
	%14 = ashr i128  %13, 64, !dbg !6082
	%15 = trunc i128  %14 to i64, !dbg !6082
	%16 = sext i32 6 to i64, !dbg !6082
	%17 = ashr i64  %15,  %16, !dbg !6082
	%18 = sub i64 0,  %7, !dbg !6082
	%19 = getelementptr i8, i8*  %4, i64  %18, !dbg !6082
	%20 = ptrtoint i8*  %19 to i64, !dbg !6082
	%21 = sext i32 63 to i64, !dbg !6082
	%22 = ashr i64  %20,  %21, !dbg !6082
	%23 = sub i64  %17,  %22, !dbg !6082
	ret i64  %23, !dbg !6082
}
define linkonce_odr %struct._ZN7species7SpeciesE* @_ZNSt6vectorIN7species7SpeciesESaIS1_EEixEm(%struct._ZSt6vectorIN7species7SpeciesESaIS1_EE* %_T35351984_52751.arg, i64 %__n.arg) #0 inlinehint !dbg !6086 {
L.entry:
	%_T35351984_52751.addr = alloca %struct._ZSt6vectorIN7species7SpeciesESaIS1_EE*, align 8
	%__n.addr = alloca i64, align 8

	call void @llvm.dbg.declare (metadata %struct._ZSt6vectorIN7species7SpeciesESaIS1_EE** %_T35351984_52751.addr, metadata !6090, metadata !4106), !dbg !6087
	store %struct._ZSt6vectorIN7species7SpeciesESaIS1_EE* %_T35351984_52751.arg, %struct._ZSt6vectorIN7species7SpeciesESaIS1_EE** %_T35351984_52751.addr, align 8, !tbaa !4114
	call void @llvm.dbg.declare (metadata %struct._ZSt6vectorIN7species7SpeciesESaIS1_EE** %_T35351984_52751.addr, metadata !6091, metadata !4106), !dbg !6087
	call void @llvm.dbg.declare (metadata i64* %__n.addr, metadata !6092, metadata !4106), !dbg !6087
	store i64 %__n.arg, i64* %__n.addr, align 8, !tbaa !4113
	call void @llvm.dbg.declare (metadata i64* %__n.addr, metadata !6093, metadata !4106), !dbg !6087
	%0 = load %struct._ZSt6vectorIN7species7SpeciesESaIS1_EE*, %struct._ZSt6vectorIN7species7SpeciesESaIS1_EE** %_T35351984_52751.addr, align 8, !tbaa !4114, !dbg !6094
	%1 = bitcast %struct._ZSt6vectorIN7species7SpeciesESaIS1_EE*  %0 to i8**, !dbg !6094
	%2 = load i8*, i8**  %1, align 8, !tbaa !4114, !dbg !6094
	%3 = load i64, i64* %__n.addr, align 8, !tbaa !4541, !dbg !6094
	%4 = mul i64  %3, 208, !dbg !6094
	%5 = getelementptr i8, i8*  %2, i64  %4, !dbg !6094
	%6 = bitcast i8*  %5 to %struct._ZN7species7SpeciesE*, !dbg !6094
	ret %struct._ZN7species7SpeciesE*  %6, !dbg !6094
}

%struct._ZSaIN8projects28FlowthroughSpeciesParametersEE = type <{ [1 x i8]}> 

define linkonce_odr void @_ZNSaIN8projects28FlowthroughSpeciesParametersEED1Ev(%struct._ZSaIN8projects28FlowthroughSpeciesParametersEE* %_T35351984_52752.arg) #0 inlinehint !dbg !6100 {
L.entry:
	%_T35351984_52752.addr = alloca %struct._ZSaIN8projects28FlowthroughSpeciesParametersEE*, align 8

	call void @llvm.dbg.declare (metadata %struct._ZSaIN8projects28FlowthroughSpeciesParametersEE** %_T35351984_52752.addr, metadata !6104, metadata !4106), !dbg !6101
	store %struct._ZSaIN8projects28FlowthroughSpeciesParametersEE* %_T35351984_52752.arg, %struct._ZSaIN8projects28FlowthroughSpeciesParametersEE** %_T35351984_52752.addr, align 8, !tbaa !4114
	call void @llvm.dbg.declare (metadata %struct._ZSaIN8projects28FlowthroughSpeciesParametersEE** %_T35351984_52752.addr, metadata !6105, metadata !4106), !dbg !6101
	ret void, !dbg !6106
}
define linkonce_odr void @_ZNSaIN8projects28FlowthroughSpeciesParametersEED2Ev(%struct._ZSaIN8projects28FlowthroughSpeciesParametersEE* %_T35351984_52753.arg) #0 inlinehint !dbg !6108 {
L.entry:
	%_T35351984_52753.addr = alloca %struct._ZSaIN8projects28FlowthroughSpeciesParametersEE*, align 8

	store %struct._ZSaIN8projects28FlowthroughSpeciesParametersEE* %_T35351984_52753.arg, %struct._ZSaIN8projects28FlowthroughSpeciesParametersEE** %_T35351984_52753.addr, align 8, !tbaa !4114
	ret void, !dbg !6116
}
define linkonce_odr %struct._ZN8projects28FlowthroughSpeciesParametersE* @_ZNSt16allocator_traitsISaIN8projects28FlowthroughSpeciesParametersEEE8allocateERS2_m(%struct._ZSaIN8projects28FlowthroughSpeciesParametersEE* %__a.arg, i64 %__n.arg) #0 inlinehint !dbg !6124 {
L.entry:
	%__a.addr = alloca %struct._ZSaIN8projects28FlowthroughSpeciesParametersEE*, align 8
	%__n.addr = alloca i64, align 8
	%..inline.addr = alloca i64, align 8
	%.Q0010.addr = alloca i8*, align 8

	call void @llvm.dbg.declare (metadata %struct._ZSaIN8projects28FlowthroughSpeciesParametersEE** %__a.addr, metadata !6136, metadata !4106), !dbg !6125
	store %struct._ZSaIN8projects28FlowthroughSpeciesParametersEE* %__a.arg, %struct._ZSaIN8projects28FlowthroughSpeciesParametersEE** %__a.addr, align 8, !tbaa !4114
	call void @llvm.dbg.declare (metadata %struct._ZSaIN8projects28FlowthroughSpeciesParametersEE** %__a.addr, metadata !6137, metadata !4106), !dbg !6125
	call void @llvm.dbg.declare (metadata i64* %__n.addr, metadata !6138, metadata !4106), !dbg !6125
	store i64 %__n.arg, i64* %__n.addr, align 8, !tbaa !4113
	call void @llvm.dbg.declare (metadata i64* %__n.addr, metadata !6139, metadata !4106), !dbg !6125
	%0 = load i64, i64* %__n.addr, align 8, !tbaa !4541, !dbg !6140
	store i64  %0, i64* %..inline.addr, align 8, !tbaa !4541, !dbg !6140
	%1 = icmp ule i64  %0, 384307168202282325, !dbg !6141
	br i1  %1, label %L..inline.76967, label %L.B1786, !dbg !6141
L.B1786:
	call void  @_ZSt17__throw_bad_allocv () noreturn, !dbg !6142
	br label %L..inline.76967
L..inline.76967:
	%2 = load i64, i64* %..inline.addr, align 8, !tbaa !4541, !dbg !6143
	%3 = mul i64  %2, 48, !dbg !6143
	%4 = call i8*  @_Znwm (i64  %3), !dbg !6143
	store i8*  %4, i8** %.Q0010.addr, align 8, !tbaa !4114, !dbg !6143
	%5 = bitcast i8*  %4 to %struct._ZN8projects28FlowthroughSpeciesParametersE*, !dbg !6143
	ret %struct._ZN8projects28FlowthroughSpeciesParametersE*  %5, !dbg !6143
}
define linkonce_odr void @_ZNSt16allocator_traitsISaIN8projects28FlowthroughSpeciesParametersEEE10deallocateERS2_PS1_m(%struct._ZSaIN8projects28FlowthroughSpeciesParametersEE* %__a.arg, %struct._ZN8projects28FlowthroughSpeciesParametersE* %__p.arg, i64 %__n.arg) #0 inlinehint !dbg !6147 {
L.entry:
	%__a.addr = alloca %struct._ZSaIN8projects28FlowthroughSpeciesParametersEE*, align 8
	%__p.addr = alloca %struct._ZN8projects28FlowthroughSpeciesParametersE*, align 8
	%__n.addr = alloca i64, align 8
	%..inline.addr = alloca %struct._ZN8projects28FlowthroughSpeciesParametersE*, align 8

	call void @llvm.dbg.declare (metadata %struct._ZSaIN8projects28FlowthroughSpeciesParametersEE** %__a.addr, metadata !6155, metadata !4106), !dbg !6148
	store %struct._ZSaIN8projects28FlowthroughSpeciesParametersEE* %__a.arg, %struct._ZSaIN8projects28FlowthroughSpeciesParametersEE** %__a.addr, align 8, !tbaa !4114
	call void @llvm.dbg.declare (metadata %struct._ZSaIN8projects28FlowthroughSpeciesParametersEE** %__a.addr, metadata !6156, metadata !4106), !dbg !6148
	call void @llvm.dbg.declare (metadata %struct._ZN8projects28FlowthroughSpeciesParametersE** %__p.addr, metadata !6157, metadata !4106), !dbg !6148
	store %struct._ZN8projects28FlowthroughSpeciesParametersE* %__p.arg, %struct._ZN8projects28FlowthroughSpeciesParametersE** %__p.addr, align 8, !tbaa !4114
	call void @llvm.dbg.declare (metadata %struct._ZN8projects28FlowthroughSpeciesParametersE** %__p.addr, metadata !6158, metadata !4106), !dbg !6148
	call void @llvm.dbg.declare (metadata i64* %__n.addr, metadata !6159, metadata !4106), !dbg !6148
	store i64 %__n.arg, i64* %__n.addr, align 8, !tbaa !4113
	call void @llvm.dbg.declare (metadata i64* %__n.addr, metadata !6160, metadata !4106), !dbg !6148
	%0 = load %struct._ZN8projects28FlowthroughSpeciesParametersE*, %struct._ZN8projects28FlowthroughSpeciesParametersE** %__p.addr, align 8, !tbaa !4114, !dbg !6161
	%1 = bitcast %struct._ZN8projects28FlowthroughSpeciesParametersE*  %0 to i8*, !dbg !6161
	%2 = bitcast %struct._ZN8projects28FlowthroughSpeciesParametersE** %..inline.addr to i8**, !dbg !6161
	store i8*  %1, i8**  %2, align 8, !tbaa !4114, !dbg !6161
	%3 = load %struct._ZN8projects28FlowthroughSpeciesParametersE*, %struct._ZN8projects28FlowthroughSpeciesParametersE** %..inline.addr, align 8, !tbaa !4114, !dbg !6162
	%4 = bitcast %struct._ZN8projects28FlowthroughSpeciesParametersE*  %3 to i8*, !dbg !6162
	call void  @_ZdlPv (i8*  %4) nounwind, !dbg !6162
	ret void, !dbg !6161
}
define linkonce_odr i64 @_ZNSt16allocator_traitsISaIN8projects28FlowthroughSpeciesParametersEEE8max_sizeERKS2_(%struct._ZSaIN8projects28FlowthroughSpeciesParametersEE* %__a.arg) #0 inlinehint !dbg !6170 {
L.entry:
	%__a.addr = alloca %struct._ZSaIN8projects28FlowthroughSpeciesParametersEE*, align 8

	call void @llvm.dbg.declare (metadata %struct._ZSaIN8projects28FlowthroughSpeciesParametersEE** %__a.addr, metadata !6178, metadata !4106), !dbg !6171
	store %struct._ZSaIN8projects28FlowthroughSpeciesParametersEE* %__a.arg, %struct._ZSaIN8projects28FlowthroughSpeciesParametersEE** %__a.addr, align 8, !tbaa !4114
	call void @llvm.dbg.declare (metadata %struct._ZSaIN8projects28FlowthroughSpeciesParametersEE** %__a.addr, metadata !6179, metadata !4106), !dbg !6171
	ret i64 384307168202282325, !dbg !6180
}
define linkonce_odr void @_ZNSt16allocator_traitsISaIN8projects28FlowthroughSpeciesParametersEEE9constructIS1_JRKS1_EEEvRS2_PT_DpOT0_(%struct._ZSaIN8projects28FlowthroughSpeciesParametersEE* %__a.arg, %struct._ZN8projects28FlowthroughSpeciesParametersE* %__p.arg, %struct._ZN8projects28FlowthroughSpeciesParametersE* %__args.arg) #0 inlinehint !dbg !6192 {
L.entry:
	%__a.addr = alloca %struct._ZSaIN8projects28FlowthroughSpeciesParametersEE*, align 8
	%__p.addr = alloca %struct._ZN8projects28FlowthroughSpeciesParametersE*, align 8
	%__args.addr = alloca %struct._ZN8projects28FlowthroughSpeciesParametersE*, align 8
	%..inline.addr = alloca %struct._ZN8projects28FlowthroughSpeciesParametersE*, align 8
	%..inline.addr.1 = alloca %struct._ZN8projects28FlowthroughSpeciesParametersE*, align 8

	call void @llvm.dbg.declare (metadata %struct._ZSaIN8projects28FlowthroughSpeciesParametersEE** %__a.addr, metadata !6212, metadata !4106), !dbg !6193
	store %struct._ZSaIN8projects28FlowthroughSpeciesParametersEE* %__a.arg, %struct._ZSaIN8projects28FlowthroughSpeciesParametersEE** %__a.addr, align 8, !tbaa !4114
	call void @llvm.dbg.declare (metadata %struct._ZSaIN8projects28FlowthroughSpeciesParametersEE** %__a.addr, metadata !6213, metadata !4106), !dbg !6193
	call void @llvm.dbg.declare (metadata %struct._ZN8projects28FlowthroughSpeciesParametersE** %__p.addr, metadata !6214, metadata !4106), !dbg !6193
	store %struct._ZN8projects28FlowthroughSpeciesParametersE* %__p.arg, %struct._ZN8projects28FlowthroughSpeciesParametersE** %__p.addr, align 8, !tbaa !4114
	call void @llvm.dbg.declare (metadata %struct._ZN8projects28FlowthroughSpeciesParametersE** %__p.addr, metadata !6215, metadata !4106), !dbg !6193
	call void @llvm.dbg.declare (metadata %struct._ZN8projects28FlowthroughSpeciesParametersE** %__args.addr, metadata !6216, metadata !4106), !dbg !6193
	store %struct._ZN8projects28FlowthroughSpeciesParametersE* %__args.arg, %struct._ZN8projects28FlowthroughSpeciesParametersE** %__args.addr, align 8, !tbaa !4114
	call void @llvm.dbg.declare (metadata %struct._ZN8projects28FlowthroughSpeciesParametersE** %__args.addr, metadata !6217, metadata !4106), !dbg !6193
	%0 = load %struct._ZN8projects28FlowthroughSpeciesParametersE*, %struct._ZN8projects28FlowthroughSpeciesParametersE** %__p.addr, align 8, !tbaa !4114, !dbg !6218
	%1 = bitcast %struct._ZN8projects28FlowthroughSpeciesParametersE*  %0 to i8*, !dbg !6218
	%2 = bitcast %struct._ZN8projects28FlowthroughSpeciesParametersE** %..inline.addr to i8**, !dbg !6218
	store i8*  %1, i8**  %2, align 8, !tbaa !4114, !dbg !6218
	%3 = load %struct._ZN8projects28FlowthroughSpeciesParametersE*, %struct._ZN8projects28FlowthroughSpeciesParametersE** %..inline.addr, align 8, !tbaa !4114, !dbg !6218
	%4 = bitcast %struct._ZN8projects28FlowthroughSpeciesParametersE*  %3 to i8*, !dbg !6218
	%5 = icmp eq i8*  %4,  null, !dbg !6218
	br i1  %5, label %L..inline.77033, label %L.B1795, !dbg !6218
L.B1795:
	%6 = load %struct._ZN8projects28FlowthroughSpeciesParametersE*, %struct._ZN8projects28FlowthroughSpeciesParametersE** %__args.addr, align 8, !tbaa !4114, !dbg !6218
	%7 = bitcast %struct._ZN8projects28FlowthroughSpeciesParametersE*  %6 to i8*, !dbg !6218
	%8 = bitcast %struct._ZN8projects28FlowthroughSpeciesParametersE** %..inline.addr.1 to i8**, !dbg !6218
	store i8*  %7, i8**  %8, align 8, !tbaa !4114, !dbg !6218
	%9 = load %struct._ZN8projects28FlowthroughSpeciesParametersE*, %struct._ZN8projects28FlowthroughSpeciesParametersE** %..inline.addr.1, align 8, !tbaa !4114, !dbg !6219
	%10 = bitcast %struct._ZN8projects28FlowthroughSpeciesParametersE*  %9 to i64*, !dbg !6219
	%11 = load i64, i64*  %10, align 8, !tbaa !4113, !dbg !6219
	%12 = bitcast %struct._ZN8projects28FlowthroughSpeciesParametersE*  %3 to i64*, !dbg !6219
	store i64  %11, i64*  %12, align 8, !tbaa !4113, !dbg !6219
	%13 = bitcast i64*  %10 to i8*, !dbg !6219
	%14 = getelementptr i8, i8*  %13, i64 8, !dbg !6219
	%15 = bitcast i8*  %14 to i64*, !dbg !6219
	%16 = load i64, i64*  %15, align 8, !tbaa !4113, !dbg !6219
	%17 = bitcast i64*  %12 to i8*, !dbg !6219
	%18 = getelementptr i8, i8*  %17, i64 8, !dbg !6219
	%19 = bitcast i8*  %18 to i64*, !dbg !6219
	store i64  %16, i64*  %19, align 8, !tbaa !4113, !dbg !6219
	%20 = getelementptr i8, i8*  %13, i64 16, !dbg !6219
	%21 = bitcast i8*  %20 to i64*, !dbg !6219
	%22 = load i64, i64*  %21, align 8, !tbaa !4113, !dbg !6219
	%23 = getelementptr i8, i8*  %17, i64 16, !dbg !6219
	%24 = bitcast i8*  %23 to i64*, !dbg !6219
	store i64  %22, i64*  %24, align 8, !tbaa !4113, !dbg !6219
	%25 = getelementptr i8, i8*  %13, i64 24, !dbg !6219
	%26 = bitcast i8*  %25 to i64*, !dbg !6219
	%27 = load i64, i64*  %26, align 8, !tbaa !4113, !dbg !6219
	%28 = getelementptr i8, i8*  %17, i64 24, !dbg !6219
	%29 = bitcast i8*  %28 to i64*, !dbg !6219
	store i64  %27, i64*  %29, align 8, !tbaa !4113, !dbg !6219
	%30 = getelementptr i8, i8*  %13, i64 32, !dbg !6219
	%31 = bitcast i8*  %30 to i64*, !dbg !6219
	%32 = load i64, i64*  %31, align 8, !tbaa !4113, !dbg !6219
	%33 = getelementptr i8, i8*  %17, i64 32, !dbg !6219
	%34 = bitcast i8*  %33 to i64*, !dbg !6219
	store i64  %32, i64*  %34, align 8, !tbaa !4113, !dbg !6219
	%35 = getelementptr i8, i8*  %13, i64 40, !dbg !6219
	%36 = bitcast i8*  %35 to i64*, !dbg !6219
	%37 = load i64, i64*  %36, align 8, !tbaa !4113, !dbg !6219
	%38 = getelementptr i8, i8*  %17, i64 40, !dbg !6219
	%39 = bitcast i8*  %38 to i64*, !dbg !6219
	store i64  %37, i64*  %39, align 8, !tbaa !4113, !dbg !6219
	br label %L..inline.77043, !dbg !6218
L..inline.77033:
	br label %L..inline.77043
L..inline.77043:
	ret void, !dbg !6219
}
define linkonce_odr void @_ZNSt16allocator_traitsISaIN8projects28FlowthroughSpeciesParametersEEE7destroyIS1_EEvRS2_PT_(%struct._ZSaIN8projects28FlowthroughSpeciesParametersEE* %__a.arg, %struct._ZN8projects28FlowthroughSpeciesParametersE* %__p.arg) #0 inlinehint !dbg !6223 {
L.entry:
	%__a.addr = alloca %struct._ZSaIN8projects28FlowthroughSpeciesParametersEE*, align 8
	%__p.addr = alloca %struct._ZN8projects28FlowthroughSpeciesParametersE*, align 8

	call void @llvm.dbg.declare (metadata %struct._ZSaIN8projects28FlowthroughSpeciesParametersEE** %__a.addr, metadata !6231, metadata !4106), !dbg !6224
	store %struct._ZSaIN8projects28FlowthroughSpeciesParametersEE* %__a.arg, %struct._ZSaIN8projects28FlowthroughSpeciesParametersEE** %__a.addr, align 8, !tbaa !4114
	call void @llvm.dbg.declare (metadata %struct._ZSaIN8projects28FlowthroughSpeciesParametersEE** %__a.addr, metadata !6232, metadata !4106), !dbg !6224
	call void @llvm.dbg.declare (metadata %struct._ZN8projects28FlowthroughSpeciesParametersE** %__p.addr, metadata !6233, metadata !4106), !dbg !6224
	store %struct._ZN8projects28FlowthroughSpeciesParametersE* %__p.arg, %struct._ZN8projects28FlowthroughSpeciesParametersE** %__p.addr, align 8, !tbaa !4114
	call void @llvm.dbg.declare (metadata %struct._ZN8projects28FlowthroughSpeciesParametersE** %__p.addr, metadata !6234, metadata !4106), !dbg !6224
	ret void, !dbg !6235
}

%struct._ZSt12_Vector_baseIN8projects28FlowthroughSpeciesParametersESaIS1_EE = type <{ %struct._ZNSt12_Vector_baseIN8projects28FlowthroughSpeciesParametersESaIS1_EE12_Vector_implE}> 
%struct._ZNSt12_Vector_baseIN8projects28FlowthroughSpeciesParametersESaIS1_EE17_Vector_impl_dataE = type <{ %struct._ZN8projects28FlowthroughSpeciesParametersE*, %struct._ZN8projects28FlowthroughSpeciesParametersE*, %struct._ZN8projects28FlowthroughSpeciesParametersE*}> 
%struct._ZNSt12_Vector_baseIN8projects28FlowthroughSpeciesParametersESaIS1_EE12_Vector_implE = type <{ %struct._ZNSt12_Vector_baseIN8projects28FlowthroughSpeciesParametersESaIS1_EE17_Vector_impl_dataE}> 

define linkonce_odr %struct._ZSaIN8projects28FlowthroughSpeciesParametersEE* @_ZNSt12_Vector_baseIN8projects28FlowthroughSpeciesParametersESaIS1_EE19_M_get_Tp_allocatorEv(%struct._ZSt12_Vector_baseIN8projects28FlowthroughSpeciesParametersESaIS1_EE* %_T35351984_52766.arg) #0 inlinehint !dbg !6241 {
L.entry:
	%_T35351984_52766.addr = alloca %struct._ZSt12_Vector_baseIN8projects28FlowthroughSpeciesParametersESaIS1_EE*, align 8

	call void @llvm.dbg.declare (metadata %struct._ZSt12_Vector_baseIN8projects28FlowthroughSpeciesParametersESaIS1_EE** %_T35351984_52766.addr, metadata !6245, metadata !4106), !dbg !6242
	store %struct._ZSt12_Vector_baseIN8projects28FlowthroughSpeciesParametersESaIS1_EE* %_T35351984_52766.arg, %struct._ZSt12_Vector_baseIN8projects28FlowthroughSpeciesParametersESaIS1_EE** %_T35351984_52766.addr, align 8, !tbaa !4114
	call void @llvm.dbg.declare (metadata %struct._ZSt12_Vector_baseIN8projects28FlowthroughSpeciesParametersESaIS1_EE** %_T35351984_52766.addr, metadata !6246, metadata !4106), !dbg !6242
	%0 = load %struct._ZSt12_Vector_baseIN8projects28FlowthroughSpeciesParametersESaIS1_EE*, %struct._ZSt12_Vector_baseIN8projects28FlowthroughSpeciesParametersESaIS1_EE** %_T35351984_52766.addr, align 8, !tbaa !4114, !dbg !6247
	%1 = bitcast %struct._ZSt12_Vector_baseIN8projects28FlowthroughSpeciesParametersESaIS1_EE*  %0 to %struct._ZSaIN8projects28FlowthroughSpeciesParametersEE*, !dbg !6247
	ret %struct._ZSaIN8projects28FlowthroughSpeciesParametersEE*  %1, !dbg !6247
}
define linkonce_odr %struct._ZSaIN8projects28FlowthroughSpeciesParametersEE* @_ZNKSt12_Vector_baseIN8projects28FlowthroughSpeciesParametersESaIS1_EE19_M_get_Tp_allocatorEv(%struct._ZSt12_Vector_baseIN8projects28FlowthroughSpeciesParametersESaIS1_EE* %_T35351984_52767.arg) #0 inlinehint !dbg !6249 {
L.entry:
	%_T35351984_52767.addr = alloca %struct._ZSt12_Vector_baseIN8projects28FlowthroughSpeciesParametersESaIS1_EE*, align 8

	call void @llvm.dbg.declare (metadata %struct._ZSt12_Vector_baseIN8projects28FlowthroughSpeciesParametersESaIS1_EE** %_T35351984_52767.addr, metadata !6253, metadata !4106), !dbg !6250
	store %struct._ZSt12_Vector_baseIN8projects28FlowthroughSpeciesParametersESaIS1_EE* %_T35351984_52767.arg, %struct._ZSt12_Vector_baseIN8projects28FlowthroughSpeciesParametersESaIS1_EE** %_T35351984_52767.addr, align 8, !tbaa !4114
	call void @llvm.dbg.declare (metadata %struct._ZSt12_Vector_baseIN8projects28FlowthroughSpeciesParametersESaIS1_EE** %_T35351984_52767.addr, metadata !6254, metadata !4106), !dbg !6250
	%0 = load %struct._ZSt12_Vector_baseIN8projects28FlowthroughSpeciesParametersESaIS1_EE*, %struct._ZSt12_Vector_baseIN8projects28FlowthroughSpeciesParametersESaIS1_EE** %_T35351984_52767.addr, align 8, !tbaa !4114, !dbg !6255
	%1 = bitcast %struct._ZSt12_Vector_baseIN8projects28FlowthroughSpeciesParametersESaIS1_EE*  %0 to %struct._ZSaIN8projects28FlowthroughSpeciesParametersEE*, !dbg !6255
	ret %struct._ZSaIN8projects28FlowthroughSpeciesParametersEE*  %1, !dbg !6255
}
define linkonce_odr void @_ZNSt12_Vector_baseIN8projects28FlowthroughSpeciesParametersESaIS1_EEC1Ev(%struct._ZSt12_Vector_baseIN8projects28FlowthroughSpeciesParametersESaIS1_EE* %_T35351984_52768.arg) #0 inlinehint !dbg !6259 {
L.entry:
	%_T35351984_52768.addr = alloca %struct._ZSt12_Vector_baseIN8projects28FlowthroughSpeciesParametersESaIS1_EE*, align 8
	%..inline.addr = alloca %struct._ZNSt12_Vector_baseIN8projects28FlowthroughSpeciesParametersESaIS1_EE17_Vector_impl_dataE*, align 8

	call void @llvm.dbg.declare (metadata %struct._ZSt12_Vector_baseIN8projects28FlowthroughSpeciesParametersESaIS1_EE** %_T35351984_52768.addr, metadata !6275, metadata !4106), !dbg !6260
	store %struct._ZSt12_Vector_baseIN8projects28FlowthroughSpeciesParametersESaIS1_EE* %_T35351984_52768.arg, %struct._ZSt12_Vector_baseIN8projects28FlowthroughSpeciesParametersESaIS1_EE** %_T35351984_52768.addr, align 8, !tbaa !4114
	call void @llvm.dbg.declare (metadata %struct._ZSt12_Vector_baseIN8projects28FlowthroughSpeciesParametersESaIS1_EE** %_T35351984_52768.addr, metadata !6276, metadata !4106), !dbg !6260
	%0 = load %struct._ZSt12_Vector_baseIN8projects28FlowthroughSpeciesParametersESaIS1_EE*, %struct._ZSt12_Vector_baseIN8projects28FlowthroughSpeciesParametersESaIS1_EE** %_T35351984_52768.addr, align 8, !tbaa !4114, !dbg !6277
	%1 = bitcast %struct._ZSt12_Vector_baseIN8projects28FlowthroughSpeciesParametersESaIS1_EE*  %0 to i8*, !dbg !6277
	%2 = bitcast %struct._ZNSt12_Vector_baseIN8projects28FlowthroughSpeciesParametersESaIS1_EE17_Vector_impl_dataE** %..inline.addr to i8**, !dbg !6277
	store i8*  %1, i8**  %2, align 8, !tbaa !4114, !dbg !6277
	%3 = load %struct._ZNSt12_Vector_baseIN8projects28FlowthroughSpeciesParametersESaIS1_EE17_Vector_impl_dataE*, %struct._ZNSt12_Vector_baseIN8projects28FlowthroughSpeciesParametersESaIS1_EE17_Vector_impl_dataE** %..inline.addr, align 8, !tbaa !4114, !dbg !6277
	%4 = bitcast %struct._ZNSt12_Vector_baseIN8projects28FlowthroughSpeciesParametersESaIS1_EE17_Vector_impl_dataE*  %3 to i8**, !dbg !6277
	store i8* null, i8**  %4, align 8, !tbaa !4114, !dbg !6277
	%5 = bitcast %struct._ZNSt12_Vector_baseIN8projects28FlowthroughSpeciesParametersESaIS1_EE17_Vector_impl_dataE*  %3 to i8*, !dbg !6277
	%6 = getelementptr i8, i8*  %5, i64 8, !dbg !6277
	%7 = bitcast i8*  %6 to i8**, !dbg !6277
	store i8* null, i8**  %7, align 8, !tbaa !4114, !dbg !6277
	%8 = getelementptr i8, i8*  %5, i64 16, !dbg !6277
	%9 = bitcast i8*  %8 to i8**, !dbg !6277
	store i8* null, i8**  %9, align 8, !tbaa !4114, !dbg !6277
	ret void, !dbg !6277
}
define linkonce_odr void @_ZNSt12_Vector_baseIN8projects28FlowthroughSpeciesParametersESaIS1_EEC2Ev(%struct._ZSt12_Vector_baseIN8projects28FlowthroughSpeciesParametersESaIS1_EE* %_T35351984_52769.arg) #0 inlinehint !dbg !6279 {
L.entry:
	%_T35351984_52769.addr = alloca %struct._ZSt12_Vector_baseIN8projects28FlowthroughSpeciesParametersESaIS1_EE*, align 8
	%..inline.addr = alloca %struct._ZNSt12_Vector_baseIN8projects28FlowthroughSpeciesParametersESaIS1_EE17_Vector_impl_dataE*, align 8

	store %struct._ZSt12_Vector_baseIN8projects28FlowthroughSpeciesParametersESaIS1_EE* %_T35351984_52769.arg, %struct._ZSt12_Vector_baseIN8projects28FlowthroughSpeciesParametersESaIS1_EE** %_T35351984_52769.addr, align 8, !tbaa !4114
	%0 = load %struct._ZSt12_Vector_baseIN8projects28FlowthroughSpeciesParametersESaIS1_EE*, %struct._ZSt12_Vector_baseIN8projects28FlowthroughSpeciesParametersESaIS1_EE** %_T35351984_52769.addr, align 8, !tbaa !4114, !dbg !6299
	%1 = bitcast %struct._ZSt12_Vector_baseIN8projects28FlowthroughSpeciesParametersESaIS1_EE*  %0 to i8*, !dbg !6299
	%2 = bitcast %struct._ZNSt12_Vector_baseIN8projects28FlowthroughSpeciesParametersESaIS1_EE17_Vector_impl_dataE** %..inline.addr to i8**, !dbg !6299
	store i8*  %1, i8**  %2, align 8, !tbaa !4114, !dbg !6299
	%3 = load %struct._ZNSt12_Vector_baseIN8projects28FlowthroughSpeciesParametersESaIS1_EE17_Vector_impl_dataE*, %struct._ZNSt12_Vector_baseIN8projects28FlowthroughSpeciesParametersESaIS1_EE17_Vector_impl_dataE** %..inline.addr, align 8, !tbaa !4114, !dbg !6299
	%4 = bitcast %struct._ZNSt12_Vector_baseIN8projects28FlowthroughSpeciesParametersESaIS1_EE17_Vector_impl_dataE*  %3 to i8**, !dbg !6299
	store i8* null, i8**  %4, align 8, !tbaa !4114, !dbg !6299
	%5 = bitcast %struct._ZNSt12_Vector_baseIN8projects28FlowthroughSpeciesParametersESaIS1_EE17_Vector_impl_dataE*  %3 to i8*, !dbg !6299
	%6 = getelementptr i8, i8*  %5, i64 8, !dbg !6299
	%7 = bitcast i8*  %6 to i8**, !dbg !6299
	store i8* null, i8**  %7, align 8, !tbaa !4114, !dbg !6299
	%8 = getelementptr i8, i8*  %5, i64 16, !dbg !6299
	%9 = bitcast i8*  %8 to i8**, !dbg !6299
	store i8* null, i8**  %9, align 8, !tbaa !4114, !dbg !6299
	ret void, !dbg !6299
}
define linkonce_odr void @_ZNSt12_Vector_baseIN8projects28FlowthroughSpeciesParametersESaIS1_EED1Ev(%struct._ZSt12_Vector_baseIN8projects28FlowthroughSpeciesParametersESaIS1_EE* %_T35351984_52770.arg) #0 inlinehint !dbg !6301 {
L.entry:
	%_T35351984_52770.addr = alloca %struct._ZSt12_Vector_baseIN8projects28FlowthroughSpeciesParametersESaIS1_EE*, align 8
	%..inline.addr = alloca %struct._ZN8projects28FlowthroughSpeciesParametersE*, align 8

	call void @llvm.dbg.declare (metadata %struct._ZSt12_Vector_baseIN8projects28FlowthroughSpeciesParametersESaIS1_EE** %_T35351984_52770.addr, metadata !6329, metadata !4106), !dbg !6302
	store %struct._ZSt12_Vector_baseIN8projects28FlowthroughSpeciesParametersESaIS1_EE* %_T35351984_52770.arg, %struct._ZSt12_Vector_baseIN8projects28FlowthroughSpeciesParametersESaIS1_EE** %_T35351984_52770.addr, align 8, !tbaa !4114
	call void @llvm.dbg.declare (metadata %struct._ZSt12_Vector_baseIN8projects28FlowthroughSpeciesParametersESaIS1_EE** %_T35351984_52770.addr, metadata !6330, metadata !4106), !dbg !6302
	%0 = load %struct._ZSt12_Vector_baseIN8projects28FlowthroughSpeciesParametersESaIS1_EE*, %struct._ZSt12_Vector_baseIN8projects28FlowthroughSpeciesParametersESaIS1_EE** %_T35351984_52770.addr, align 8, !tbaa !4114, !dbg !6331
	%1 = bitcast %struct._ZSt12_Vector_baseIN8projects28FlowthroughSpeciesParametersESaIS1_EE*  %0 to i8**, !dbg !6331
	%2 = load i8*, i8**  %1, align 8, !tbaa !4114, !dbg !6331
	%3 = icmp eq i8*  %2,  null, !dbg !6331
	br i1  %3, label %L..inline.77141, label %L.B1806, !dbg !6331
L.B1806:
	%4 = bitcast %struct._ZSt12_Vector_baseIN8projects28FlowthroughSpeciesParametersESaIS1_EE*  %0 to i8**, !dbg !6332
	%5 = load i8*, i8**  %4, align 8, !tbaa !4114, !dbg !6332
	%6 = bitcast %struct._ZN8projects28FlowthroughSpeciesParametersE** %..inline.addr to i8**, !dbg !6332
	store i8*  %5, i8**  %6, align 8, !tbaa !4114, !dbg !6332
	%7 = load %struct._ZN8projects28FlowthroughSpeciesParametersE*, %struct._ZN8projects28FlowthroughSpeciesParametersE** %..inline.addr, align 8, !tbaa !4114, !dbg !6332
	%8 = bitcast %struct._ZN8projects28FlowthroughSpeciesParametersE*  %7 to i8*, !dbg !6332
	call void  @_ZdlPv (i8*  %8) nounwind, !dbg !6332
	br label %L..inline.77141
L..inline.77141:
	ret void, !dbg !6333
}
define linkonce_odr void @_ZNSt12_Vector_baseIN8projects28FlowthroughSpeciesParametersESaIS1_EED2Ev(%struct._ZSt12_Vector_baseIN8projects28FlowthroughSpeciesParametersESaIS1_EE* %_T35351984_52771.arg) #0 inlinehint !dbg !6335 {
L.entry:
	%_T35351984_52771.addr = alloca %struct._ZSt12_Vector_baseIN8projects28FlowthroughSpeciesParametersESaIS1_EE*, align 8
	%..inline.addr = alloca %struct._ZSt12_Vector_baseIN8projects28FlowthroughSpeciesParametersESaIS1_EE*, align 8
	%..inline.addr.1 = alloca %struct._ZN8projects28FlowthroughSpeciesParametersE*, align 8

	store %struct._ZSt12_Vector_baseIN8projects28FlowthroughSpeciesParametersESaIS1_EE* %_T35351984_52771.arg, %struct._ZSt12_Vector_baseIN8projects28FlowthroughSpeciesParametersESaIS1_EE** %_T35351984_52771.addr, align 8, !tbaa !4114
	%0 = load %struct._ZSt12_Vector_baseIN8projects28FlowthroughSpeciesParametersESaIS1_EE*, %struct._ZSt12_Vector_baseIN8projects28FlowthroughSpeciesParametersESaIS1_EE** %_T35351984_52771.addr, align 8, !tbaa !4114, !dbg !6367
	%1 = bitcast %struct._ZSt12_Vector_baseIN8projects28FlowthroughSpeciesParametersESaIS1_EE*  %0 to i8*, !dbg !6367
	%2 = bitcast %struct._ZSt12_Vector_baseIN8projects28FlowthroughSpeciesParametersESaIS1_EE** %..inline.addr to i8**, !dbg !6367
	store i8*  %1, i8**  %2, align 8, !tbaa !4114, !dbg !6367
	%3 = load %struct._ZSt12_Vector_baseIN8projects28FlowthroughSpeciesParametersESaIS1_EE*, %struct._ZSt12_Vector_baseIN8projects28FlowthroughSpeciesParametersESaIS1_EE** %..inline.addr, align 8, !tbaa !4114, !dbg !6367
	%4 = bitcast %struct._ZSt12_Vector_baseIN8projects28FlowthroughSpeciesParametersESaIS1_EE*  %3 to i8**, !dbg !6367
	%5 = load i8*, i8**  %4, align 8, !tbaa !4114, !dbg !6367
	%6 = icmp eq i8*  %5,  null, !dbg !6367
	br i1  %6, label %L..inline.77200, label %L.B1809, !dbg !6367
L.B1809:
	%7 = bitcast %struct._ZSt12_Vector_baseIN8projects28FlowthroughSpeciesParametersESaIS1_EE*  %3 to i8**, !dbg !6367
	%8 = load i8*, i8**  %7, align 8, !tbaa !4114, !dbg !6367
	%9 = bitcast %struct._ZN8projects28FlowthroughSpeciesParametersE** %..inline.addr.1 to i8**, !dbg !6367
	store i8*  %8, i8**  %9, align 8, !tbaa !4114, !dbg !6367
	%10 = load %struct._ZN8projects28FlowthroughSpeciesParametersE*, %struct._ZN8projects28FlowthroughSpeciesParametersE** %..inline.addr.1, align 8, !tbaa !4114, !dbg !6367
	%11 = bitcast %struct._ZN8projects28FlowthroughSpeciesParametersE*  %10 to i8*, !dbg !6367
	call void  @_ZdlPv (i8*  %11) nounwind, !dbg !6367
	br label %L..inline.77200
L..inline.77200:
	ret void, !dbg !6368
}
define linkonce_odr %struct._ZN8projects28FlowthroughSpeciesParametersE* @_ZNSt12_Vector_baseIN8projects28FlowthroughSpeciesParametersESaIS1_EE11_M_allocateEm(%struct._ZSt12_Vector_baseIN8projects28FlowthroughSpeciesParametersESaIS1_EE* %_T35351984_52774.arg, i64 %__n.arg) #0 inlinehint !dbg !6372 {
L.entry:
	%_T35351984_52774.addr = alloca %struct._ZSt12_Vector_baseIN8projects28FlowthroughSpeciesParametersESaIS1_EE*, align 8
	%__n.addr = alloca i64, align 8
	%..inline.addr = alloca i64, align 8
	%.Q0011.addr = alloca i8*, align 8
	%.I0005.addr = alloca %struct._ZN8projects28FlowthroughSpeciesParametersE*, align 8

	call void @llvm.dbg.declare (metadata %struct._ZSt12_Vector_baseIN8projects28FlowthroughSpeciesParametersESaIS1_EE** %_T35351984_52774.addr, metadata !6388, metadata !4106), !dbg !6373
	store %struct._ZSt12_Vector_baseIN8projects28FlowthroughSpeciesParametersESaIS1_EE* %_T35351984_52774.arg, %struct._ZSt12_Vector_baseIN8projects28FlowthroughSpeciesParametersESaIS1_EE** %_T35351984_52774.addr, align 8, !tbaa !4114
	call void @llvm.dbg.declare (metadata %struct._ZSt12_Vector_baseIN8projects28FlowthroughSpeciesParametersESaIS1_EE** %_T35351984_52774.addr, metadata !6389, metadata !4106), !dbg !6373
	call void @llvm.dbg.declare (metadata i64* %__n.addr, metadata !6390, metadata !4106), !dbg !6373
	store i64 %__n.arg, i64* %__n.addr, align 8, !tbaa !4113
	call void @llvm.dbg.declare (metadata i64* %__n.addr, metadata !6391, metadata !4106), !dbg !6373
	%0 = load i64, i64* %__n.addr, align 8, !tbaa !4541, !dbg !6392
	%1 = icmp eq i64  %0, 0, !dbg !6392
	br i1  %1, label %L.B0009, label %L.B1812, !dbg !6392
L.B1812:
	store i64  %0, i64* %..inline.addr, align 8, !tbaa !4541, !dbg !6393
	%2 = icmp ule i64  %0, 384307168202282325, !dbg !6393
	br i1  %2, label %L..inline.77266, label %L.B1813, !dbg !6393
L.B1813:
	call void  @_ZSt17__throw_bad_allocv () noreturn, !dbg !6393
	br label %L..inline.77266
L..inline.77266:
	%3 = load i64, i64* %..inline.addr, align 8, !tbaa !4541, !dbg !6393
	%4 = mul i64  %3, 48, !dbg !6393
	%5 = call i8*  @_Znwm (i64  %4), !dbg !6393
	store i8*  %5, i8** %.Q0011.addr, align 8, !tbaa !4114, !dbg !6393
	%6 = bitcast %struct._ZN8projects28FlowthroughSpeciesParametersE** %.I0005.addr to i8**, !dbg !6393
	store i8*  %5, i8**  %6, align 8, !tbaa !4114, !dbg !6393
	br label %L.B0010, !dbg !6392
L.B0009:
	%7 = bitcast %struct._ZN8projects28FlowthroughSpeciesParametersE** %.I0005.addr to i8**, !dbg !6392
	store i8* null, i8**  %7, align 8, !tbaa !4114, !dbg !6392
	br label %L.B0010
L.B0010:
	%8 = load %struct._ZN8projects28FlowthroughSpeciesParametersE*, %struct._ZN8projects28FlowthroughSpeciesParametersE** %.I0005.addr, align 8, !tbaa !4114, !dbg !6392
	ret %struct._ZN8projects28FlowthroughSpeciesParametersE*  %8, !dbg !6392
}
define linkonce_odr void @_ZNSt12_Vector_baseIN8projects28FlowthroughSpeciesParametersESaIS1_EE13_M_deallocateEPS1_m(%struct._ZSt12_Vector_baseIN8projects28FlowthroughSpeciesParametersESaIS1_EE* %_T35351984_52777.arg, %struct._ZN8projects28FlowthroughSpeciesParametersE* %__p.arg, i64 %__n.arg) #0 inlinehint !dbg !6398 {
L.entry:
	%_T35351984_52777.addr = alloca %struct._ZSt12_Vector_baseIN8projects28FlowthroughSpeciesParametersESaIS1_EE*, align 8
	%__p.addr = alloca %struct._ZN8projects28FlowthroughSpeciesParametersE*, align 8
	%__n.addr = alloca i64, align 8
	%..inline.addr = alloca %struct._ZN8projects28FlowthroughSpeciesParametersE*, align 8

	call void @llvm.dbg.declare (metadata %struct._ZSt12_Vector_baseIN8projects28FlowthroughSpeciesParametersESaIS1_EE** %_T35351984_52777.addr, metadata !6410, metadata !4106), !dbg !6399
	store %struct._ZSt12_Vector_baseIN8projects28FlowthroughSpeciesParametersESaIS1_EE* %_T35351984_52777.arg, %struct._ZSt12_Vector_baseIN8projects28FlowthroughSpeciesParametersESaIS1_EE** %_T35351984_52777.addr, align 8, !tbaa !4114
	call void @llvm.dbg.declare (metadata %struct._ZSt12_Vector_baseIN8projects28FlowthroughSpeciesParametersESaIS1_EE** %_T35351984_52777.addr, metadata !6411, metadata !4106), !dbg !6399
	call void @llvm.dbg.declare (metadata %struct._ZN8projects28FlowthroughSpeciesParametersE** %__p.addr, metadata !6412, metadata !4106), !dbg !6399
	store %struct._ZN8projects28FlowthroughSpeciesParametersE* %__p.arg, %struct._ZN8projects28FlowthroughSpeciesParametersE** %__p.addr, align 8, !tbaa !4114
	call void @llvm.dbg.declare (metadata %struct._ZN8projects28FlowthroughSpeciesParametersE** %__p.addr, metadata !6413, metadata !4106), !dbg !6399
	call void @llvm.dbg.declare (metadata i64* %__n.addr, metadata !6414, metadata !4106), !dbg !6399
	store i64 %__n.arg, i64* %__n.addr, align 8, !tbaa !4113
	call void @llvm.dbg.declare (metadata i64* %__n.addr, metadata !6415, metadata !4106), !dbg !6399
	%0 = load %struct._ZN8projects28FlowthroughSpeciesParametersE*, %struct._ZN8projects28FlowthroughSpeciesParametersE** %__p.addr, align 8, !tbaa !4114, !dbg !6416
	%1 = bitcast %struct._ZN8projects28FlowthroughSpeciesParametersE*  %0 to i8*, !dbg !6416
	%2 = icmp eq i8*  %1,  null, !dbg !6416
	br i1  %2, label %L.B0011, label %L.B1816, !dbg !6416
L.B1816:
	%3 = bitcast %struct._ZN8projects28FlowthroughSpeciesParametersE*  %0 to i8*, !dbg !6417
	%4 = bitcast %struct._ZN8projects28FlowthroughSpeciesParametersE** %..inline.addr to i8**, !dbg !6417
	store i8*  %3, i8**  %4, align 8, !tbaa !4114, !dbg !6417
	%5 = load %struct._ZN8projects28FlowthroughSpeciesParametersE*, %struct._ZN8projects28FlowthroughSpeciesParametersE** %..inline.addr, align 8, !tbaa !4114, !dbg !6417
	%6 = bitcast %struct._ZN8projects28FlowthroughSpeciesParametersE*  %5 to i8*, !dbg !6417
	call void  @_ZdlPv (i8*  %6) nounwind, !dbg !6417
	br label %L.B0011
L.B0011:
	ret void, !dbg !6418
}
define linkonce_odr void @_ZNSt12_Vector_baseIN8projects28FlowthroughSpeciesParametersESaIS1_EE17_Vector_impl_dataC1Ev(%struct._ZNSt12_Vector_baseIN8projects28FlowthroughSpeciesParametersESaIS1_EE17_Vector_impl_dataE* %_T35351984_52778.arg) #0 inlinehint !dbg !6423 {
L.entry:
	%_T35351984_52778.addr = alloca %struct._ZNSt12_Vector_baseIN8projects28FlowthroughSpeciesParametersESaIS1_EE17_Vector_impl_dataE*, align 8

	call void @llvm.dbg.declare (metadata %struct._ZNSt12_Vector_baseIN8projects28FlowthroughSpeciesParametersESaIS1_EE17_Vector_impl_dataE** %_T35351984_52778.addr, metadata !6427, metadata !4106), !dbg !6424
	store %struct._ZNSt12_Vector_baseIN8projects28FlowthroughSpeciesParametersESaIS1_EE17_Vector_impl_dataE* %_T35351984_52778.arg, %struct._ZNSt12_Vector_baseIN8projects28FlowthroughSpeciesParametersESaIS1_EE17_Vector_impl_dataE** %_T35351984_52778.addr, align 8, !tbaa !4114
	call void @llvm.dbg.declare (metadata %struct._ZNSt12_Vector_baseIN8projects28FlowthroughSpeciesParametersESaIS1_EE17_Vector_impl_dataE** %_T35351984_52778.addr, metadata !6428, metadata !4106), !dbg !6424
	%0 = load %struct._ZNSt12_Vector_baseIN8projects28FlowthroughSpeciesParametersESaIS1_EE17_Vector_impl_dataE*, %struct._ZNSt12_Vector_baseIN8projects28FlowthroughSpeciesParametersESaIS1_EE17_Vector_impl_dataE** %_T35351984_52778.addr, align 8, !tbaa !4114, !dbg !6429
	%1 = bitcast %struct._ZNSt12_Vector_baseIN8projects28FlowthroughSpeciesParametersESaIS1_EE17_Vector_impl_dataE*  %0 to i8**, !dbg !6429
	store i8* null, i8**  %1, align 8, !tbaa !4114, !dbg !6429
	%2 = bitcast %struct._ZNSt12_Vector_baseIN8projects28FlowthroughSpeciesParametersESaIS1_EE17_Vector_impl_dataE*  %0 to i8*, !dbg !6429
	%3 = getelementptr i8, i8*  %2, i64 8, !dbg !6429
	%4 = bitcast i8*  %3 to i8**, !dbg !6429
	store i8* null, i8**  %4, align 8, !tbaa !4114, !dbg !6429
	%5 = getelementptr i8, i8*  %2, i64 16, !dbg !6429
	%6 = bitcast i8*  %5 to i8**, !dbg !6429
	store i8* null, i8**  %6, align 8, !tbaa !4114, !dbg !6429
	ret void, !dbg !6429
}
define linkonce_odr void @_ZNSt12_Vector_baseIN8projects28FlowthroughSpeciesParametersESaIS1_EE17_Vector_impl_dataC2Ev(%struct._ZNSt12_Vector_baseIN8projects28FlowthroughSpeciesParametersESaIS1_EE17_Vector_impl_dataE* %_T35351984_52779.arg) #0 inlinehint !dbg !6431 {
L.entry:
	%_T35351984_52779.addr = alloca %struct._ZNSt12_Vector_baseIN8projects28FlowthroughSpeciesParametersESaIS1_EE17_Vector_impl_dataE*, align 8
	%..inline.addr = alloca %struct._ZNSt12_Vector_baseIN8projects28FlowthroughSpeciesParametersESaIS1_EE17_Vector_impl_dataE*, align 8

	store %struct._ZNSt12_Vector_baseIN8projects28FlowthroughSpeciesParametersESaIS1_EE17_Vector_impl_dataE* %_T35351984_52779.arg, %struct._ZNSt12_Vector_baseIN8projects28FlowthroughSpeciesParametersESaIS1_EE17_Vector_impl_dataE** %_T35351984_52779.addr, align 8, !tbaa !4114
	%0 = load %struct._ZNSt12_Vector_baseIN8projects28FlowthroughSpeciesParametersESaIS1_EE17_Vector_impl_dataE*, %struct._ZNSt12_Vector_baseIN8projects28FlowthroughSpeciesParametersESaIS1_EE17_Vector_impl_dataE** %_T35351984_52779.addr, align 8, !tbaa !4114, !dbg !6439
	%1 = bitcast %struct._ZNSt12_Vector_baseIN8projects28FlowthroughSpeciesParametersESaIS1_EE17_Vector_impl_dataE*  %0 to i8*, !dbg !6439
	%2 = bitcast %struct._ZNSt12_Vector_baseIN8projects28FlowthroughSpeciesParametersESaIS1_EE17_Vector_impl_dataE** %..inline.addr to i8**, !dbg !6439
	store i8*  %1, i8**  %2, align 8, !tbaa !4114, !dbg !6439
	%3 = load %struct._ZNSt12_Vector_baseIN8projects28FlowthroughSpeciesParametersESaIS1_EE17_Vector_impl_dataE*, %struct._ZNSt12_Vector_baseIN8projects28FlowthroughSpeciesParametersESaIS1_EE17_Vector_impl_dataE** %..inline.addr, align 8, !tbaa !4114, !dbg !6439
	%4 = bitcast %struct._ZNSt12_Vector_baseIN8projects28FlowthroughSpeciesParametersESaIS1_EE17_Vector_impl_dataE*  %3 to i8**, !dbg !6439
	store i8* null, i8**  %4, align 8, !tbaa !4114, !dbg !6439
	%5 = bitcast %struct._ZNSt12_Vector_baseIN8projects28FlowthroughSpeciesParametersESaIS1_EE17_Vector_impl_dataE*  %3 to i8*, !dbg !6439
	%6 = getelementptr i8, i8*  %5, i64 8, !dbg !6439
	%7 = bitcast i8*  %6 to i8**, !dbg !6439
	store i8* null, i8**  %7, align 8, !tbaa !4114, !dbg !6439
	%8 = getelementptr i8, i8*  %5, i64 16, !dbg !6439
	%9 = bitcast i8*  %8 to i8**, !dbg !6439
	store i8* null, i8**  %9, align 8, !tbaa !4114, !dbg !6439
	ret void, !dbg !6439
}
define linkonce_odr void @_ZNSt12_Vector_baseIN8projects28FlowthroughSpeciesParametersESaIS1_EE12_Vector_implC1Ev(%struct._ZNSt12_Vector_baseIN8projects28FlowthroughSpeciesParametersESaIS1_EE12_Vector_implE* %_T35351984_52780.arg) #0 inlinehint !dbg !6444 {
L.entry:
	%_T35351984_52780.addr = alloca %struct._ZNSt12_Vector_baseIN8projects28FlowthroughSpeciesParametersESaIS1_EE12_Vector_implE*, align 8
	%..inline.addr = alloca %struct._ZNSt12_Vector_baseIN8projects28FlowthroughSpeciesParametersESaIS1_EE17_Vector_impl_dataE*, align 8

	call void @llvm.dbg.declare (metadata %struct._ZNSt12_Vector_baseIN8projects28FlowthroughSpeciesParametersESaIS1_EE12_Vector_implE** %_T35351984_52780.addr, metadata !6456, metadata !4106), !dbg !6445
	store %struct._ZNSt12_Vector_baseIN8projects28FlowthroughSpeciesParametersESaIS1_EE12_Vector_implE* %_T35351984_52780.arg, %struct._ZNSt12_Vector_baseIN8projects28FlowthroughSpeciesParametersESaIS1_EE12_Vector_implE** %_T35351984_52780.addr, align 8, !tbaa !4114
	call void @llvm.dbg.declare (metadata %struct._ZNSt12_Vector_baseIN8projects28FlowthroughSpeciesParametersESaIS1_EE12_Vector_implE** %_T35351984_52780.addr, metadata !6457, metadata !4106), !dbg !6445
	%0 = load %struct._ZNSt12_Vector_baseIN8projects28FlowthroughSpeciesParametersESaIS1_EE12_Vector_implE*, %struct._ZNSt12_Vector_baseIN8projects28FlowthroughSpeciesParametersESaIS1_EE12_Vector_implE** %_T35351984_52780.addr, align 8, !tbaa !4114, !dbg !6458
	%1 = bitcast %struct._ZNSt12_Vector_baseIN8projects28FlowthroughSpeciesParametersESaIS1_EE12_Vector_implE*  %0 to i8*, !dbg !6458
	%2 = bitcast %struct._ZNSt12_Vector_baseIN8projects28FlowthroughSpeciesParametersESaIS1_EE17_Vector_impl_dataE** %..inline.addr to i8**, !dbg !6458
	store i8*  %1, i8**  %2, align 8, !tbaa !4114, !dbg !6458
	%3 = load %struct._ZNSt12_Vector_baseIN8projects28FlowthroughSpeciesParametersESaIS1_EE17_Vector_impl_dataE*, %struct._ZNSt12_Vector_baseIN8projects28FlowthroughSpeciesParametersESaIS1_EE17_Vector_impl_dataE** %..inline.addr, align 8, !tbaa !4114, !dbg !6458
	%4 = bitcast %struct._ZNSt12_Vector_baseIN8projects28FlowthroughSpeciesParametersESaIS1_EE17_Vector_impl_dataE*  %3 to i8**, !dbg !6458
	store i8* null, i8**  %4, align 8, !tbaa !4114, !dbg !6458
	%5 = bitcast %struct._ZNSt12_Vector_baseIN8projects28FlowthroughSpeciesParametersESaIS1_EE17_Vector_impl_dataE*  %3 to i8*, !dbg !6459
	%6 = getelementptr i8, i8*  %5, i64 8, !dbg !6459
	%7 = bitcast i8*  %6 to i8**, !dbg !6459
	store i8* null, i8**  %7, align 8, !tbaa !4114, !dbg !6459
	%8 = getelementptr i8, i8*  %5, i64 16, !dbg !6459
	%9 = bitcast i8*  %8 to i8**, !dbg !6459
	store i8* null, i8**  %9, align 8, !tbaa !4114, !dbg !6459
	ret void, !dbg !6458
}
define linkonce_odr void @_ZNSt12_Vector_baseIN8projects28FlowthroughSpeciesParametersESaIS1_EE12_Vector_implC2Ev(%struct._ZNSt12_Vector_baseIN8projects28FlowthroughSpeciesParametersESaIS1_EE12_Vector_implE* %_T35351984_52781.arg) #0 inlinehint !dbg !6461 {
L.entry:
	%_T35351984_52781.addr = alloca %struct._ZNSt12_Vector_baseIN8projects28FlowthroughSpeciesParametersESaIS1_EE12_Vector_implE*, align 8
	%..inline.addr = alloca %struct._ZNSt12_Vector_baseIN8projects28FlowthroughSpeciesParametersESaIS1_EE17_Vector_impl_dataE*, align 8

	store %struct._ZNSt12_Vector_baseIN8projects28FlowthroughSpeciesParametersESaIS1_EE12_Vector_implE* %_T35351984_52781.arg, %struct._ZNSt12_Vector_baseIN8projects28FlowthroughSpeciesParametersESaIS1_EE12_Vector_implE** %_T35351984_52781.addr, align 8, !tbaa !4114
	%0 = load %struct._ZNSt12_Vector_baseIN8projects28FlowthroughSpeciesParametersESaIS1_EE12_Vector_implE*, %struct._ZNSt12_Vector_baseIN8projects28FlowthroughSpeciesParametersESaIS1_EE12_Vector_implE** %_T35351984_52781.addr, align 8, !tbaa !4114, !dbg !6477
	%1 = bitcast %struct._ZNSt12_Vector_baseIN8projects28FlowthroughSpeciesParametersESaIS1_EE12_Vector_implE*  %0 to i8*, !dbg !6477
	%2 = bitcast %struct._ZNSt12_Vector_baseIN8projects28FlowthroughSpeciesParametersESaIS1_EE17_Vector_impl_dataE** %..inline.addr to i8**, !dbg !6477
	store i8*  %1, i8**  %2, align 8, !tbaa !4114, !dbg !6477
	%3 = load %struct._ZNSt12_Vector_baseIN8projects28FlowthroughSpeciesParametersESaIS1_EE17_Vector_impl_dataE*, %struct._ZNSt12_Vector_baseIN8projects28FlowthroughSpeciesParametersESaIS1_EE17_Vector_impl_dataE** %..inline.addr, align 8, !tbaa !4114, !dbg !6477
	%4 = bitcast %struct._ZNSt12_Vector_baseIN8projects28FlowthroughSpeciesParametersESaIS1_EE17_Vector_impl_dataE*  %3 to i8**, !dbg !6477
	store i8* null, i8**  %4, align 8, !tbaa !4114, !dbg !6477
	%5 = bitcast %struct._ZNSt12_Vector_baseIN8projects28FlowthroughSpeciesParametersESaIS1_EE17_Vector_impl_dataE*  %3 to i8*, !dbg !6477
	%6 = getelementptr i8, i8*  %5, i64 8, !dbg !6477
	%7 = bitcast i8*  %6 to i8**, !dbg !6477
	store i8* null, i8**  %7, align 8, !tbaa !4114, !dbg !6477
	%8 = getelementptr i8, i8*  %5, i64 16, !dbg !6477
	%9 = bitcast i8*  %8 to i8**, !dbg !6477
	store i8* null, i8**  %9, align 8, !tbaa !4114, !dbg !6477
	ret void, !dbg !6477
}
define linkonce_odr void @_ZNSt12_Vector_baseIN8projects28FlowthroughSpeciesParametersESaIS1_EE12_Vector_implD1Ev(%struct._ZNSt12_Vector_baseIN8projects28FlowthroughSpeciesParametersESaIS1_EE12_Vector_implE* %_T35351984_52782.arg) #0 inlinehint !dbg !6479 {
L.entry:
	%_T35351984_52782.addr = alloca %struct._ZNSt12_Vector_baseIN8projects28FlowthroughSpeciesParametersESaIS1_EE12_Vector_implE*, align 8

	call void @llvm.dbg.declare (metadata %struct._ZNSt12_Vector_baseIN8projects28FlowthroughSpeciesParametersESaIS1_EE12_Vector_implE** %_T35351984_52782.addr, metadata !6491, metadata !4106), !dbg !6480
	store %struct._ZNSt12_Vector_baseIN8projects28FlowthroughSpeciesParametersESaIS1_EE12_Vector_implE* %_T35351984_52782.arg, %struct._ZNSt12_Vector_baseIN8projects28FlowthroughSpeciesParametersESaIS1_EE12_Vector_implE** %_T35351984_52782.addr, align 8, !tbaa !4114
	call void @llvm.dbg.declare (metadata %struct._ZNSt12_Vector_baseIN8projects28FlowthroughSpeciesParametersESaIS1_EE12_Vector_implE** %_T35351984_52782.addr, metadata !6492, metadata !4106), !dbg !6480
	ret void, !dbg !6493
}
define linkonce_odr void @_ZNSt12_Vector_baseIN8projects28FlowthroughSpeciesParametersESaIS1_EE12_Vector_implD2Ev(%struct._ZNSt12_Vector_baseIN8projects28FlowthroughSpeciesParametersESaIS1_EE12_Vector_implE* %_T35351984_52783.arg) #0 inlinehint !dbg !6495 {
L.entry:
	%_T35351984_52783.addr = alloca %struct._ZNSt12_Vector_baseIN8projects28FlowthroughSpeciesParametersESaIS1_EE12_Vector_implE*, align 8

	store %struct._ZNSt12_Vector_baseIN8projects28FlowthroughSpeciesParametersESaIS1_EE12_Vector_implE* %_T35351984_52783.arg, %struct._ZNSt12_Vector_baseIN8projects28FlowthroughSpeciesParametersESaIS1_EE12_Vector_implE** %_T35351984_52783.addr, align 8, !tbaa !4114
	ret void, !dbg !6511
}

%struct._ZSt17integral_constantIbLb1EE = type <{ [1 x i8]}> 

define linkonce_odr %struct._ZN8projects28FlowthroughSpeciesParametersE* @_ZNSt6vectorIN8projects28FlowthroughSpeciesParametersESaIS1_EE14_S_do_relocateEPS1_S4_S4_RS2_St17integral_constantIbLb1EE(%struct._ZN8projects28FlowthroughSpeciesParametersE* %__first.arg, %struct._ZN8projects28FlowthroughSpeciesParametersE* %__last.arg, %struct._ZN8projects28FlowthroughSpeciesParametersE* %__result.arg, %struct._ZSaIN8projects28FlowthroughSpeciesParametersEE* %__alloc.arg, i8 %_T35353168_52790.coerce) #0 inlinehint !dbg !6519 {
L.entry:
	%__first.addr = alloca %struct._ZN8projects28FlowthroughSpeciesParametersE*, align 8
	%__last.addr = alloca %struct._ZN8projects28FlowthroughSpeciesParametersE*, align 8
	%__result.addr = alloca %struct._ZN8projects28FlowthroughSpeciesParametersE*, align 8
	%__alloc.addr = alloca %struct._ZSaIN8projects28FlowthroughSpeciesParametersEE*, align 8
	%_T35353168_52790.addr = alloca %struct._ZSt17integral_constantIbLb1EE, align 1
	%..inline.addr = alloca %struct._ZN8projects28FlowthroughSpeciesParametersE*, align 8
	%..inline.addr.1 = alloca %struct._ZN8projects28FlowthroughSpeciesParametersE*, align 8
	%..inline.addr.2 = alloca i64, align 8

	call void @llvm.dbg.declare (metadata %struct._ZN8projects28FlowthroughSpeciesParametersE** %__first.addr, metadata !6543, metadata !4106), !dbg !6520
	store %struct._ZN8projects28FlowthroughSpeciesParametersE* %__first.arg, %struct._ZN8projects28FlowthroughSpeciesParametersE** %__first.addr, align 8, !tbaa !4114
	call void @llvm.dbg.declare (metadata %struct._ZN8projects28FlowthroughSpeciesParametersE** %__first.addr, metadata !6544, metadata !4106), !dbg !6520
	call void @llvm.dbg.declare (metadata %struct._ZN8projects28FlowthroughSpeciesParametersE** %__last.addr, metadata !6545, metadata !4106), !dbg !6520
	store %struct._ZN8projects28FlowthroughSpeciesParametersE* %__last.arg, %struct._ZN8projects28FlowthroughSpeciesParametersE** %__last.addr, align 8, !tbaa !4114
	call void @llvm.dbg.declare (metadata %struct._ZN8projects28FlowthroughSpeciesParametersE** %__last.addr, metadata !6546, metadata !4106), !dbg !6520
	call void @llvm.dbg.declare (metadata %struct._ZN8projects28FlowthroughSpeciesParametersE** %__result.addr, metadata !6547, metadata !4106), !dbg !6520
	store %struct._ZN8projects28FlowthroughSpeciesParametersE* %__result.arg, %struct._ZN8projects28FlowthroughSpeciesParametersE** %__result.addr, align 8, !tbaa !4114
	call void @llvm.dbg.declare (metadata %struct._ZN8projects28FlowthroughSpeciesParametersE** %__result.addr, metadata !6548, metadata !4106), !dbg !6520
	call void @llvm.dbg.declare (metadata %struct._ZSaIN8projects28FlowthroughSpeciesParametersEE** %__alloc.addr, metadata !6549, metadata !4106), !dbg !6520
	store %struct._ZSaIN8projects28FlowthroughSpeciesParametersEE* %__alloc.arg, %struct._ZSaIN8projects28FlowthroughSpeciesParametersEE** %__alloc.addr, align 8, !tbaa !4114
	call void @llvm.dbg.declare (metadata %struct._ZSaIN8projects28FlowthroughSpeciesParametersEE** %__alloc.addr, metadata !6550, metadata !4106), !dbg !6520
	call void @llvm.dbg.declare (metadata %struct._ZSt17integral_constantIbLb1EE* %_T35353168_52790.addr, metadata !6551, metadata !4106), !dbg !6520
	%0 = bitcast %struct._ZSt17integral_constantIbLb1EE* %_T35353168_52790.addr to i8*
	store i8 %_T35353168_52790.coerce, i8*  %0, align 1, !tbaa !4113
	call void @llvm.dbg.declare (metadata %struct._ZSt17integral_constantIbLb1EE* %_T35353168_52790.addr, metadata !6552, metadata !4106), !dbg !6520
	%1 = load %struct._ZN8projects28FlowthroughSpeciesParametersE*, %struct._ZN8projects28FlowthroughSpeciesParametersE** %__first.addr, align 8, !tbaa !4114, !dbg !6553
	%2 = bitcast %struct._ZN8projects28FlowthroughSpeciesParametersE*  %1 to i8*, !dbg !6553
	%3 = bitcast %struct._ZN8projects28FlowthroughSpeciesParametersE** %..inline.addr to i8**, !dbg !6553
	store i8*  %2, i8**  %3, align 8, !tbaa !4114, !dbg !6553
	%4 = load %struct._ZN8projects28FlowthroughSpeciesParametersE*, %struct._ZN8projects28FlowthroughSpeciesParametersE** %__result.addr, align 8, !tbaa !4114, !dbg !6553
	%5 = bitcast %struct._ZN8projects28FlowthroughSpeciesParametersE*  %4 to i8*, !dbg !6553
	%6 = bitcast %struct._ZN8projects28FlowthroughSpeciesParametersE** %..inline.addr.1 to i8**, !dbg !6553
	store i8*  %5, i8**  %6, align 8, !tbaa !4114, !dbg !6553
	%7 = load %struct._ZN8projects28FlowthroughSpeciesParametersE*, %struct._ZN8projects28FlowthroughSpeciesParametersE** %__last.addr, align 8, !tbaa !4114, !dbg !6553
	%8 = bitcast %struct._ZN8projects28FlowthroughSpeciesParametersE*  %7 to i8*, !dbg !6553
	%9 = ptrtoint i8*  %2 to i64, !dbg !6553
	%10 = sub i64 0,  %9, !dbg !6553
	%11 = getelementptr i8, i8*  %8, i64  %10, !dbg !6553
	%12 = ptrtoint i8*  %11 to i64, !dbg !6553
	%13 = sext i64 3074457345618258603 to i128, !dbg !6553
	%14 = sext i64  %12 to i128, !dbg !6553
	%15 = mul i128  %13,  %14, !dbg !6553
	%16 = ashr i128  %15, 64, !dbg !6553
	%17 = trunc i128  %16 to i64, !dbg !6553
	%18 = sext i32 3 to i64, !dbg !6553
	%19 = ashr i64  %17,  %18, !dbg !6553
	%20 = sub i64 0,  %9, !dbg !6553
	%21 = getelementptr i8, i8*  %8, i64  %20, !dbg !6553
	%22 = ptrtoint i8*  %21 to i64, !dbg !6553
	%23 = sext i32 63 to i64, !dbg !6553
	%24 = ashr i64  %22,  %23, !dbg !6553
	%25 = sub i64  %19,  %24, !dbg !6553
	store i64  %25, i64* %..inline.addr.2, align 8, !tbaa !4541, !dbg !6553
	%26 = icmp sle i64  %25, 0, !dbg !6553
	br i1  %26, label %L..inline.77434, label %L.B1829, !dbg !6553
L.B1829:
	%27 = load %struct._ZN8projects28FlowthroughSpeciesParametersE*, %struct._ZN8projects28FlowthroughSpeciesParametersE** %..inline.addr.1, align 8, !tbaa !4114, !dbg !6553
	%28 = bitcast %struct._ZN8projects28FlowthroughSpeciesParametersE*  %27 to i8*, !dbg !6553
	%29 = load %struct._ZN8projects28FlowthroughSpeciesParametersE*, %struct._ZN8projects28FlowthroughSpeciesParametersE** %..inline.addr, align 8, !tbaa !4114, !dbg !6553
	%30 = bitcast %struct._ZN8projects28FlowthroughSpeciesParametersE*  %29 to i8*, !dbg !6553
	%31 = mul i64  %25, 48, !dbg !6553
	%32 = call i8*  @memmove (i8*  %28, i8*  %30, i64  %31) nounwind, !dbg !6553
	br label %L..inline.77434
L..inline.77434:
	%33 = load %struct._ZN8projects28FlowthroughSpeciesParametersE*, %struct._ZN8projects28FlowthroughSpeciesParametersE** %..inline.addr.1, align 8, !tbaa !4114, !dbg !6554
	%34 = bitcast %struct._ZN8projects28FlowthroughSpeciesParametersE*  %33 to i8*, !dbg !6554
	%35 = load i64, i64* %..inline.addr.2, align 8, !tbaa !4541, !dbg !6554
	%36 = mul i64  %35, 48, !dbg !6554
	%37 = getelementptr i8, i8*  %34, i64  %36, !dbg !6554
	%38 = bitcast i8*  %37 to %struct._ZN8projects28FlowthroughSpeciesParametersE*, !dbg !6554
	ret %struct._ZN8projects28FlowthroughSpeciesParametersE*  %38, !dbg !6554
}
define linkonce_odr %struct._ZN8projects28FlowthroughSpeciesParametersE* @_ZNSt6vectorIN8projects28FlowthroughSpeciesParametersESaIS1_EE11_S_relocateEPS1_S4_S4_RS2_(%struct._ZN8projects28FlowthroughSpeciesParametersE* %__first.arg, %struct._ZN8projects28FlowthroughSpeciesParametersE* %__last.arg, %struct._ZN8projects28FlowthroughSpeciesParametersE* %__result.arg, %struct._ZSaIN8projects28FlowthroughSpeciesParametersEE* %__alloc.arg) #0 inlinehint !dbg !6559 {
L.entry:
	%__first.addr = alloca %struct._ZN8projects28FlowthroughSpeciesParametersE*, align 8
	%__last.addr = alloca %struct._ZN8projects28FlowthroughSpeciesParametersE*, align 8
	%__result.addr = alloca %struct._ZN8projects28FlowthroughSpeciesParametersE*, align 8
	%__alloc.addr = alloca %struct._ZSaIN8projects28FlowthroughSpeciesParametersEE*, align 8
	%.._T35353944_52795.__FILL_CHARARRAY.addr = alloca [1 x i8], align 1
	%..inline.addr = alloca %struct._ZN8projects28FlowthroughSpeciesParametersE*, align 8
	%..inline.addr.1 = alloca %struct._ZN8projects28FlowthroughSpeciesParametersE*, align 8
	%..inline.addr.2 = alloca %struct._ZN8projects28FlowthroughSpeciesParametersE*, align 8
	%....inline.__FILL_CHARARRAY.addr = alloca [1 x i8], align 1
	%..inline.addr.3 = alloca %struct._ZN8projects28FlowthroughSpeciesParametersE*, align 8
	%..inline.addr.4 = alloca %struct._ZN8projects28FlowthroughSpeciesParametersE*, align 8
	%..inline.addr.5 = alloca i64, align 8

	call void @llvm.dbg.declare (metadata %struct._ZN8projects28FlowthroughSpeciesParametersE** %__first.addr, metadata !6587, metadata !4106), !dbg !6560
	store %struct._ZN8projects28FlowthroughSpeciesParametersE* %__first.arg, %struct._ZN8projects28FlowthroughSpeciesParametersE** %__first.addr, align 8, !tbaa !4114
	call void @llvm.dbg.declare (metadata %struct._ZN8projects28FlowthroughSpeciesParametersE** %__first.addr, metadata !6588, metadata !4106), !dbg !6560
	call void @llvm.dbg.declare (metadata %struct._ZN8projects28FlowthroughSpeciesParametersE** %__last.addr, metadata !6589, metadata !4106), !dbg !6560
	store %struct._ZN8projects28FlowthroughSpeciesParametersE* %__last.arg, %struct._ZN8projects28FlowthroughSpeciesParametersE** %__last.addr, align 8, !tbaa !4114
	call void @llvm.dbg.declare (metadata %struct._ZN8projects28FlowthroughSpeciesParametersE** %__last.addr, metadata !6590, metadata !4106), !dbg !6560
	call void @llvm.dbg.declare (metadata %struct._ZN8projects28FlowthroughSpeciesParametersE** %__result.addr, metadata !6591, metadata !4106), !dbg !6560
	store %struct._ZN8projects28FlowthroughSpeciesParametersE* %__result.arg, %struct._ZN8projects28FlowthroughSpeciesParametersE** %__result.addr, align 8, !tbaa !4114
	call void @llvm.dbg.declare (metadata %struct._ZN8projects28FlowthroughSpeciesParametersE** %__result.addr, metadata !6592, metadata !4106), !dbg !6560
	call void @llvm.dbg.declare (metadata %struct._ZSaIN8projects28FlowthroughSpeciesParametersEE** %__alloc.addr, metadata !6593, metadata !4106), !dbg !6560
	store %struct._ZSaIN8projects28FlowthroughSpeciesParametersEE* %__alloc.arg, %struct._ZSaIN8projects28FlowthroughSpeciesParametersEE** %__alloc.addr, align 8, !tbaa !4114
	call void @llvm.dbg.declare (metadata %struct._ZSaIN8projects28FlowthroughSpeciesParametersEE** %__alloc.addr, metadata !6594, metadata !4106), !dbg !6560
	call void @llvm.dbg.declare (metadata [1 x i8]* %.._T35353944_52795.__FILL_CHARARRAY.addr, metadata !6596, metadata !4106), !dbg !6562
	%0 = bitcast [1 x i8]* %.._T35353944_52795.__FILL_CHARARRAY.addr to i8*, !dbg !6595
	store i8 0, i8*  %0, align 1, !tbaa !4113, !dbg !6595
	%1 = load %struct._ZN8projects28FlowthroughSpeciesParametersE*, %struct._ZN8projects28FlowthroughSpeciesParametersE** %__first.addr, align 8, !tbaa !4114, !dbg !6595
	%2 = bitcast %struct._ZN8projects28FlowthroughSpeciesParametersE*  %1 to i8*, !dbg !6595
	%3 = bitcast %struct._ZN8projects28FlowthroughSpeciesParametersE** %..inline.addr to i8**, !dbg !6595
	store i8*  %2, i8**  %3, align 8, !tbaa !4114, !dbg !6595
	%4 = load %struct._ZN8projects28FlowthroughSpeciesParametersE*, %struct._ZN8projects28FlowthroughSpeciesParametersE** %__last.addr, align 8, !tbaa !4114, !dbg !6595
	%5 = bitcast %struct._ZN8projects28FlowthroughSpeciesParametersE*  %4 to i8*, !dbg !6595
	%6 = bitcast %struct._ZN8projects28FlowthroughSpeciesParametersE** %..inline.addr.1 to i8**, !dbg !6595
	store i8*  %5, i8**  %6, align 8, !tbaa !4114, !dbg !6595
	%7 = load %struct._ZN8projects28FlowthroughSpeciesParametersE*, %struct._ZN8projects28FlowthroughSpeciesParametersE** %__result.addr, align 8, !tbaa !4114, !dbg !6595
	%8 = bitcast %struct._ZN8projects28FlowthroughSpeciesParametersE*  %7 to i8*, !dbg !6595
	%9 = bitcast %struct._ZN8projects28FlowthroughSpeciesParametersE** %..inline.addr.2 to i8**, !dbg !6595
	store i8*  %8, i8**  %9, align 8, !tbaa !4114, !dbg !6595
	%10 = zext i8 0 to i32, !dbg !6597
	%11 = trunc i32  %10 to i8, !dbg !6597
	call void @llvm.dbg.declare (metadata [1 x i8]* %....inline.__FILL_CHARARRAY.addr, metadata !6598, metadata !4106), !dbg !6562
	%12 = bitcast [1 x i8]* %....inline.__FILL_CHARARRAY.addr to i8*, !dbg !6597
	store i8  %11, i8*  %12, align 1, !tbaa !4113, !dbg !6597
	%13 = load %struct._ZN8projects28FlowthroughSpeciesParametersE*, %struct._ZN8projects28FlowthroughSpeciesParametersE** %..inline.addr, align 8, !tbaa !4114, !dbg !6599
	%14 = bitcast %struct._ZN8projects28FlowthroughSpeciesParametersE*  %13 to i8*, !dbg !6599
	%15 = bitcast %struct._ZN8projects28FlowthroughSpeciesParametersE** %..inline.addr.3 to i8**, !dbg !6599
	store i8*  %14, i8**  %15, align 8, !tbaa !4114, !dbg !6599
	%16 = load %struct._ZN8projects28FlowthroughSpeciesParametersE*, %struct._ZN8projects28FlowthroughSpeciesParametersE** %..inline.addr.2, align 8, !tbaa !4114, !dbg !6599
	%17 = bitcast %struct._ZN8projects28FlowthroughSpeciesParametersE*  %16 to i8*, !dbg !6599
	%18 = bitcast %struct._ZN8projects28FlowthroughSpeciesParametersE** %..inline.addr.4 to i8**, !dbg !6599
	store i8*  %17, i8**  %18, align 8, !tbaa !4114, !dbg !6599
	%19 = load %struct._ZN8projects28FlowthroughSpeciesParametersE*, %struct._ZN8projects28FlowthroughSpeciesParametersE** %..inline.addr.1, align 8, !tbaa !4114, !dbg !6599
	%20 = bitcast %struct._ZN8projects28FlowthroughSpeciesParametersE*  %19 to i8*, !dbg !6599
	%21 = ptrtoint i8*  %14 to i64, !dbg !6599
	%22 = sub i64 0,  %21, !dbg !6599
	%23 = getelementptr i8, i8*  %20, i64  %22, !dbg !6599
	%24 = ptrtoint i8*  %23 to i64, !dbg !6599
	%25 = sext i64 3074457345618258603 to i128, !dbg !6599
	%26 = sext i64  %24 to i128, !dbg !6599
	%27 = mul i128  %25,  %26, !dbg !6599
	%28 = ashr i128  %27, 64, !dbg !6599
	%29 = trunc i128  %28 to i64, !dbg !6599
	%30 = sext i32 3 to i64, !dbg !6599
	%31 = ashr i64  %29,  %30, !dbg !6599
	%32 = sub i64 0,  %21, !dbg !6599
	%33 = getelementptr i8, i8*  %20, i64  %32, !dbg !6599
	%34 = ptrtoint i8*  %33 to i64, !dbg !6599
	%35 = sext i32 63 to i64, !dbg !6599
	%36 = ashr i64  %34,  %35, !dbg !6599
	%37 = sub i64  %31,  %36, !dbg !6599
	store i64  %37, i64* %..inline.addr.5, align 8, !tbaa !4541, !dbg !6599
	%38 = icmp sle i64  %37, 0, !dbg !6599
	br i1  %38, label %L..inline.77510, label %L.B1832, !dbg !6599
L.B1832:
	%39 = load %struct._ZN8projects28FlowthroughSpeciesParametersE*, %struct._ZN8projects28FlowthroughSpeciesParametersE** %..inline.addr.4, align 8, !tbaa !4114, !dbg !6599
	%40 = bitcast %struct._ZN8projects28FlowthroughSpeciesParametersE*  %39 to i8*, !dbg !6599
	%41 = load %struct._ZN8projects28FlowthroughSpeciesParametersE*, %struct._ZN8projects28FlowthroughSpeciesParametersE** %..inline.addr.3, align 8, !tbaa !4114, !dbg !6599
	%42 = bitcast %struct._ZN8projects28FlowthroughSpeciesParametersE*  %41 to i8*, !dbg !6599
	%43 = mul i64  %37, 48, !dbg !6599
	%44 = call i8*  @memmove (i8*  %40, i8*  %42, i64  %43) nounwind, !dbg !6599
	br label %L..inline.77510
L..inline.77510:
	%45 = load %struct._ZN8projects28FlowthroughSpeciesParametersE*, %struct._ZN8projects28FlowthroughSpeciesParametersE** %..inline.addr.4, align 8, !tbaa !4114, !dbg !6595
	%46 = bitcast %struct._ZN8projects28FlowthroughSpeciesParametersE*  %45 to i8*, !dbg !6595
	%47 = load i64, i64* %..inline.addr.5, align 8, !tbaa !4541, !dbg !6595
	%48 = mul i64  %47, 48, !dbg !6595
	%49 = getelementptr i8, i8*  %46, i64  %48, !dbg !6595
	%50 = bitcast i8*  %49 to %struct._ZN8projects28FlowthroughSpeciesParametersE*, !dbg !6595
	ret %struct._ZN8projects28FlowthroughSpeciesParametersE*  %50, !dbg !6595
}

%struct._ZSt6vectorIN8projects28FlowthroughSpeciesParametersESaIS1_EE = type <{ %struct._ZSt12_Vector_baseIN8projects28FlowthroughSpeciesParametersESaIS1_EE}> 

define linkonce_odr void @_ZNSt6vectorIN8projects28FlowthroughSpeciesParametersESaIS1_EEC1Ev(%struct._ZSt6vectorIN8projects28FlowthroughSpeciesParametersESaIS1_EE* %_T35351984_52796.arg) #0 inlinehint !dbg !6604 {
L.entry:
	%_T35351984_52796.addr = alloca %struct._ZSt6vectorIN8projects28FlowthroughSpeciesParametersESaIS1_EE*, align 8
	%..inline.addr = alloca %struct._ZNSt12_Vector_baseIN8projects28FlowthroughSpeciesParametersESaIS1_EE17_Vector_impl_dataE*, align 8

	call void @llvm.dbg.declare (metadata %struct._ZSt6vectorIN8projects28FlowthroughSpeciesParametersESaIS1_EE** %_T35351984_52796.addr, metadata !6628, metadata !4106), !dbg !6605
	store %struct._ZSt6vectorIN8projects28FlowthroughSpeciesParametersESaIS1_EE* %_T35351984_52796.arg, %struct._ZSt6vectorIN8projects28FlowthroughSpeciesParametersESaIS1_EE** %_T35351984_52796.addr, align 8, !tbaa !4114
	call void @llvm.dbg.declare (metadata %struct._ZSt6vectorIN8projects28FlowthroughSpeciesParametersESaIS1_EE** %_T35351984_52796.addr, metadata !6629, metadata !4106), !dbg !6605
	%0 = load %struct._ZSt6vectorIN8projects28FlowthroughSpeciesParametersESaIS1_EE*, %struct._ZSt6vectorIN8projects28FlowthroughSpeciesParametersESaIS1_EE** %_T35351984_52796.addr, align 8, !tbaa !4114, !dbg !6630
	%1 = bitcast %struct._ZSt6vectorIN8projects28FlowthroughSpeciesParametersESaIS1_EE*  %0 to i8*, !dbg !6630
	%2 = bitcast %struct._ZNSt12_Vector_baseIN8projects28FlowthroughSpeciesParametersESaIS1_EE17_Vector_impl_dataE** %..inline.addr to i8**, !dbg !6630
	store i8*  %1, i8**  %2, align 8, !tbaa !4114, !dbg !6630
	%3 = load %struct._ZNSt12_Vector_baseIN8projects28FlowthroughSpeciesParametersESaIS1_EE17_Vector_impl_dataE*, %struct._ZNSt12_Vector_baseIN8projects28FlowthroughSpeciesParametersESaIS1_EE17_Vector_impl_dataE** %..inline.addr, align 8, !tbaa !4114, !dbg !6630
	%4 = bitcast %struct._ZNSt12_Vector_baseIN8projects28FlowthroughSpeciesParametersESaIS1_EE17_Vector_impl_dataE*  %3 to i8**, !dbg !6630
	store i8* null, i8**  %4, align 8, !tbaa !4114, !dbg !6630
	%5 = bitcast %struct._ZNSt12_Vector_baseIN8projects28FlowthroughSpeciesParametersESaIS1_EE17_Vector_impl_dataE*  %3 to i8*, !dbg !6630
	%6 = getelementptr i8, i8*  %5, i64 8, !dbg !6630
	%7 = bitcast i8*  %6 to i8**, !dbg !6630
	store i8* null, i8**  %7, align 8, !tbaa !4114, !dbg !6630
	%8 = getelementptr i8, i8*  %5, i64 16, !dbg !6630
	%9 = bitcast i8*  %8 to i8**, !dbg !6630
	store i8* null, i8**  %9, align 8, !tbaa !4114, !dbg !6630
	ret void, !dbg !6630
}
define linkonce_odr void @_ZNSt6vectorIN8projects28FlowthroughSpeciesParametersESaIS1_EEC2Ev(%struct._ZSt6vectorIN8projects28FlowthroughSpeciesParametersESaIS1_EE* %_T35351984_52797.arg) #0 inlinehint !dbg !6632 {
L.entry:
	%_T35351984_52797.addr = alloca %struct._ZSt6vectorIN8projects28FlowthroughSpeciesParametersESaIS1_EE*, align 8
	%..inline.addr = alloca %struct._ZNSt12_Vector_baseIN8projects28FlowthroughSpeciesParametersESaIS1_EE17_Vector_impl_dataE*, align 8

	store %struct._ZSt6vectorIN8projects28FlowthroughSpeciesParametersESaIS1_EE* %_T35351984_52797.arg, %struct._ZSt6vectorIN8projects28FlowthroughSpeciesParametersESaIS1_EE** %_T35351984_52797.addr, align 8, !tbaa !4114
	%0 = load %struct._ZSt6vectorIN8projects28FlowthroughSpeciesParametersESaIS1_EE*, %struct._ZSt6vectorIN8projects28FlowthroughSpeciesParametersESaIS1_EE** %_T35351984_52797.addr, align 8, !tbaa !4114, !dbg !6660
	%1 = bitcast %struct._ZSt6vectorIN8projects28FlowthroughSpeciesParametersESaIS1_EE*  %0 to i8*, !dbg !6660
	%2 = bitcast %struct._ZNSt12_Vector_baseIN8projects28FlowthroughSpeciesParametersESaIS1_EE17_Vector_impl_dataE** %..inline.addr to i8**, !dbg !6660
	store i8*  %1, i8**  %2, align 8, !tbaa !4114, !dbg !6660
	%3 = load %struct._ZNSt12_Vector_baseIN8projects28FlowthroughSpeciesParametersESaIS1_EE17_Vector_impl_dataE*, %struct._ZNSt12_Vector_baseIN8projects28FlowthroughSpeciesParametersESaIS1_EE17_Vector_impl_dataE** %..inline.addr, align 8, !tbaa !4114, !dbg !6660
	%4 = bitcast %struct._ZNSt12_Vector_baseIN8projects28FlowthroughSpeciesParametersESaIS1_EE17_Vector_impl_dataE*  %3 to i8**, !dbg !6660
	store i8* null, i8**  %4, align 8, !tbaa !4114, !dbg !6660
	%5 = bitcast %struct._ZNSt12_Vector_baseIN8projects28FlowthroughSpeciesParametersESaIS1_EE17_Vector_impl_dataE*  %3 to i8*, !dbg !6660
	%6 = getelementptr i8, i8*  %5, i64 8, !dbg !6660
	%7 = bitcast i8*  %6 to i8**, !dbg !6660
	store i8* null, i8**  %7, align 8, !tbaa !4114, !dbg !6660
	%8 = getelementptr i8, i8*  %5, i64 16, !dbg !6660
	%9 = bitcast i8*  %8 to i8**, !dbg !6660
	store i8* null, i8**  %9, align 8, !tbaa !4114, !dbg !6660
	ret void, !dbg !6660
}
define linkonce_odr void @_ZNSt6vectorIN8projects28FlowthroughSpeciesParametersESaIS1_EED1Ev(%struct._ZSt6vectorIN8projects28FlowthroughSpeciesParametersESaIS1_EE* %_T35351984_52798.arg) #0 inlinehint !dbg !6662 {
L.entry:
	%_T35351984_52798.addr = alloca %struct._ZSt6vectorIN8projects28FlowthroughSpeciesParametersESaIS1_EE*, align 8
	%..inline.addr = alloca %struct._ZSt12_Vector_baseIN8projects28FlowthroughSpeciesParametersESaIS1_EE*, align 8
	%..inline.addr.1 = alloca %struct._ZN8projects28FlowthroughSpeciesParametersE*, align 8

	call void @llvm.dbg.declare (metadata %struct._ZSt6vectorIN8projects28FlowthroughSpeciesParametersESaIS1_EE** %_T35351984_52798.addr, metadata !6714, metadata !4106), !dbg !6663
	store %struct._ZSt6vectorIN8projects28FlowthroughSpeciesParametersESaIS1_EE* %_T35351984_52798.arg, %struct._ZSt6vectorIN8projects28FlowthroughSpeciesParametersESaIS1_EE** %_T35351984_52798.addr, align 8, !tbaa !4114
	call void @llvm.dbg.declare (metadata %struct._ZSt6vectorIN8projects28FlowthroughSpeciesParametersESaIS1_EE** %_T35351984_52798.addr, metadata !6715, metadata !4106), !dbg !6663
	%0 = load %struct._ZSt6vectorIN8projects28FlowthroughSpeciesParametersESaIS1_EE*, %struct._ZSt6vectorIN8projects28FlowthroughSpeciesParametersESaIS1_EE** %_T35351984_52798.addr, align 8, !tbaa !4114, !dbg !6716
	%1 = bitcast %struct._ZSt6vectorIN8projects28FlowthroughSpeciesParametersESaIS1_EE*  %0 to i8*, !dbg !6716
	%2 = bitcast %struct._ZSt12_Vector_baseIN8projects28FlowthroughSpeciesParametersESaIS1_EE** %..inline.addr to i8**, !dbg !6716
	store i8*  %1, i8**  %2, align 8, !tbaa !4114, !dbg !6716
	%3 = load %struct._ZSt12_Vector_baseIN8projects28FlowthroughSpeciesParametersESaIS1_EE*, %struct._ZSt12_Vector_baseIN8projects28FlowthroughSpeciesParametersESaIS1_EE** %..inline.addr, align 8, !tbaa !4114, !dbg !6717
	%4 = bitcast %struct._ZSt12_Vector_baseIN8projects28FlowthroughSpeciesParametersESaIS1_EE*  %3 to i8**, !dbg !6717
	%5 = load i8*, i8**  %4, align 8, !tbaa !4114, !dbg !6717
	%6 = icmp eq i8*  %5,  null, !dbg !6717
	br i1  %6, label %L..inline.77669, label %L.B1843, !dbg !6717
L.B1843:
	%7 = bitcast %struct._ZSt12_Vector_baseIN8projects28FlowthroughSpeciesParametersESaIS1_EE*  %3 to i8**, !dbg !6717
	%8 = load i8*, i8**  %7, align 8, !tbaa !4114, !dbg !6717
	%9 = bitcast %struct._ZN8projects28FlowthroughSpeciesParametersE** %..inline.addr.1 to i8**, !dbg !6717
	store i8*  %8, i8**  %9, align 8, !tbaa !4114, !dbg !6717
	%10 = load %struct._ZN8projects28FlowthroughSpeciesParametersE*, %struct._ZN8projects28FlowthroughSpeciesParametersE** %..inline.addr.1, align 8, !tbaa !4114, !dbg !6717
	%11 = bitcast %struct._ZN8projects28FlowthroughSpeciesParametersE*  %10 to i8*, !dbg !6717
	call void  @_ZdlPv (i8*  %11) nounwind, !dbg !6717
	br label %L..inline.77669
L..inline.77669:
	ret void, !dbg !6716
}
define linkonce_odr void @_ZNSt6vectorIN8projects28FlowthroughSpeciesParametersESaIS1_EED2Ev(%struct._ZSt6vectorIN8projects28FlowthroughSpeciesParametersESaIS1_EE* %_T35351984_52799.arg) #0 inlinehint !dbg !6719 {
L.entry:
	%_T35351984_52799.addr = alloca %struct._ZSt6vectorIN8projects28FlowthroughSpeciesParametersESaIS1_EE*, align 8
	%..inline.addr = alloca %struct._ZSt12_Vector_baseIN8projects28FlowthroughSpeciesParametersESaIS1_EE*, align 8
	%..inline.addr.1 = alloca %struct._ZN8projects28FlowthroughSpeciesParametersE*, align 8

	store %struct._ZSt6vectorIN8projects28FlowthroughSpeciesParametersESaIS1_EE* %_T35351984_52799.arg, %struct._ZSt6vectorIN8projects28FlowthroughSpeciesParametersESaIS1_EE** %_T35351984_52799.addr, align 8, !tbaa !4114
	%0 = load %struct._ZSt6vectorIN8projects28FlowthroughSpeciesParametersESaIS1_EE*, %struct._ZSt6vectorIN8projects28FlowthroughSpeciesParametersESaIS1_EE** %_T35351984_52799.addr, align 8, !tbaa !4114, !dbg !6775
	%1 = bitcast %struct._ZSt6vectorIN8projects28FlowthroughSpeciesParametersESaIS1_EE*  %0 to i8*, !dbg !6775
	%2 = bitcast %struct._ZSt12_Vector_baseIN8projects28FlowthroughSpeciesParametersESaIS1_EE** %..inline.addr to i8**, !dbg !6775
	store i8*  %1, i8**  %2, align 8, !tbaa !4114, !dbg !6775
	%3 = load %struct._ZSt12_Vector_baseIN8projects28FlowthroughSpeciesParametersESaIS1_EE*, %struct._ZSt12_Vector_baseIN8projects28FlowthroughSpeciesParametersESaIS1_EE** %..inline.addr, align 8, !tbaa !4114, !dbg !6775
	%4 = bitcast %struct._ZSt12_Vector_baseIN8projects28FlowthroughSpeciesParametersESaIS1_EE*  %3 to i8**, !dbg !6775
	%5 = load i8*, i8**  %4, align 8, !tbaa !4114, !dbg !6775
	%6 = icmp eq i8*  %5,  null, !dbg !6775
	br i1  %6, label %L..inline.77773, label %L.B1846, !dbg !6775
L.B1846:
	%7 = bitcast %struct._ZSt12_Vector_baseIN8projects28FlowthroughSpeciesParametersESaIS1_EE*  %3 to i8**, !dbg !6775
	%8 = load i8*, i8**  %7, align 8, !tbaa !4114, !dbg !6775
	%9 = bitcast %struct._ZN8projects28FlowthroughSpeciesParametersE** %..inline.addr.1 to i8**, !dbg !6775
	store i8*  %8, i8**  %9, align 8, !tbaa !4114, !dbg !6775
	%10 = load %struct._ZN8projects28FlowthroughSpeciesParametersE*, %struct._ZN8projects28FlowthroughSpeciesParametersE** %..inline.addr.1, align 8, !tbaa !4114, !dbg !6775
	%11 = bitcast %struct._ZN8projects28FlowthroughSpeciesParametersE*  %10 to i8*, !dbg !6775
	call void  @_ZdlPv (i8*  %11) nounwind, !dbg !6775
	br label %L..inline.77773
L..inline.77773:
	ret void, !dbg !6775
}

%struct._ZN9__gnu_cxx17__normal_iteratorIPN8projects28FlowthroughSpeciesParametersESt6vectorIS2_SaIS2_EEEE = type <{ %struct._ZN8projects28FlowthroughSpeciesParametersE*}> 

define linkonce_odr i64 @_ZNSt6vectorIN8projects28FlowthroughSpeciesParametersESaIS1_EE5beginEv(%struct._ZSt6vectorIN8projects28FlowthroughSpeciesParametersESaIS1_EE* %_T35351984_52801.arg) #0 inlinehint !dbg !6779 {
L.entry:
	%.X52801.addr = alloca %struct._ZN9__gnu_cxx17__normal_iteratorIPN8projects28FlowthroughSpeciesParametersESt6vectorIS2_SaIS2_EEEE, align 8
	%_T35351984_52801.addr = alloca %struct._ZSt6vectorIN8projects28FlowthroughSpeciesParametersESaIS1_EE*, align 8

	call void @llvm.dbg.declare (metadata %struct._ZSt6vectorIN8projects28FlowthroughSpeciesParametersESaIS1_EE** %_T35351984_52801.addr, metadata !6787, metadata !4106), !dbg !6780
	store %struct._ZSt6vectorIN8projects28FlowthroughSpeciesParametersESaIS1_EE* %_T35351984_52801.arg, %struct._ZSt6vectorIN8projects28FlowthroughSpeciesParametersESaIS1_EE** %_T35351984_52801.addr, align 8, !tbaa !4114
	call void @llvm.dbg.declare (metadata %struct._ZSt6vectorIN8projects28FlowthroughSpeciesParametersESaIS1_EE** %_T35351984_52801.addr, metadata !6788, metadata !4106), !dbg !6780
	%0 = load %struct._ZSt6vectorIN8projects28FlowthroughSpeciesParametersESaIS1_EE*, %struct._ZSt6vectorIN8projects28FlowthroughSpeciesParametersESaIS1_EE** %_T35351984_52801.addr, align 8, !tbaa !4114, !dbg !6789
	%1 = bitcast %struct._ZSt6vectorIN8projects28FlowthroughSpeciesParametersESaIS1_EE*  %0 to i8**, !dbg !6789
	%2 = load i8*, i8**  %1, align 8, !tbaa !4114, !dbg !6789
	%3 = bitcast %struct._ZN9__gnu_cxx17__normal_iteratorIPN8projects28FlowthroughSpeciesParametersESt6vectorIS2_SaIS2_EEEE* %.X52801.addr to i8**, !dbg !6789
	store i8*  %2, i8**  %3, align 8, !tbaa !4114, !dbg !6789
	%4 = bitcast %struct._ZN9__gnu_cxx17__normal_iteratorIPN8projects28FlowthroughSpeciesParametersESt6vectorIS2_SaIS2_EEEE* %.X52801.addr to i64*, !dbg !6789
	%5 = load i64, i64*  %4, align 8, !tbaa !4113, !dbg !6789
	ret i64  %5, !dbg !6789
}
define linkonce_odr i64 @_ZNSt6vectorIN8projects28FlowthroughSpeciesParametersESaIS1_EE3endEv(%struct._ZSt6vectorIN8projects28FlowthroughSpeciesParametersESaIS1_EE* %_T35351984_52803.arg) #0 inlinehint !dbg !6791 {
L.entry:
	%.X52803.addr = alloca %struct._ZN9__gnu_cxx17__normal_iteratorIPN8projects28FlowthroughSpeciesParametersESt6vectorIS2_SaIS2_EEEE, align 8
	%_T35351984_52803.addr = alloca %struct._ZSt6vectorIN8projects28FlowthroughSpeciesParametersESaIS1_EE*, align 8

	call void @llvm.dbg.declare (metadata %struct._ZSt6vectorIN8projects28FlowthroughSpeciesParametersESaIS1_EE** %_T35351984_52803.addr, metadata !6799, metadata !4106), !dbg !6792
	store %struct._ZSt6vectorIN8projects28FlowthroughSpeciesParametersESaIS1_EE* %_T35351984_52803.arg, %struct._ZSt6vectorIN8projects28FlowthroughSpeciesParametersESaIS1_EE** %_T35351984_52803.addr, align 8, !tbaa !4114
	call void @llvm.dbg.declare (metadata %struct._ZSt6vectorIN8projects28FlowthroughSpeciesParametersESaIS1_EE** %_T35351984_52803.addr, metadata !6800, metadata !4106), !dbg !6792
	%0 = load %struct._ZSt6vectorIN8projects28FlowthroughSpeciesParametersESaIS1_EE*, %struct._ZSt6vectorIN8projects28FlowthroughSpeciesParametersESaIS1_EE** %_T35351984_52803.addr, align 8, !tbaa !4114, !dbg !6801
	%1 = bitcast %struct._ZSt6vectorIN8projects28FlowthroughSpeciesParametersESaIS1_EE*  %0 to i8*, !dbg !6801
	%2 = getelementptr i8, i8*  %1, i64 8, !dbg !6801
	%3 = bitcast i8*  %2 to i8**, !dbg !6801
	%4 = load i8*, i8**  %3, align 8, !tbaa !4114, !dbg !6801
	%5 = bitcast %struct._ZN9__gnu_cxx17__normal_iteratorIPN8projects28FlowthroughSpeciesParametersESt6vectorIS2_SaIS2_EEEE* %.X52803.addr to i8**, !dbg !6801
	store i8*  %4, i8**  %5, align 8, !tbaa !4114, !dbg !6801
	%6 = bitcast %struct._ZN9__gnu_cxx17__normal_iteratorIPN8projects28FlowthroughSpeciesParametersESt6vectorIS2_SaIS2_EEEE* %.X52803.addr to i64*, !dbg !6801
	%7 = load i64, i64*  %6, align 8, !tbaa !4113, !dbg !6801
	ret i64  %7, !dbg !6801
}
define linkonce_odr i64 @_ZNKSt6vectorIN8projects28FlowthroughSpeciesParametersESaIS1_EE4sizeEv(%struct._ZSt6vectorIN8projects28FlowthroughSpeciesParametersESaIS1_EE* %_T35351984_52805.arg) #0 inlinehint !dbg !6805 {
L.entry:
	%_T35351984_52805.addr = alloca %struct._ZSt6vectorIN8projects28FlowthroughSpeciesParametersESaIS1_EE*, align 8
	%_T35352872_52805.addr = alloca i64, align 8

	call void @llvm.dbg.declare (metadata %struct._ZSt6vectorIN8projects28FlowthroughSpeciesParametersESaIS1_EE** %_T35351984_52805.addr, metadata !6809, metadata !4106), !dbg !6806
	store %struct._ZSt6vectorIN8projects28FlowthroughSpeciesParametersESaIS1_EE* %_T35351984_52805.arg, %struct._ZSt6vectorIN8projects28FlowthroughSpeciesParametersESaIS1_EE** %_T35351984_52805.addr, align 8, !tbaa !4114
	call void @llvm.dbg.declare (metadata %struct._ZSt6vectorIN8projects28FlowthroughSpeciesParametersESaIS1_EE** %_T35351984_52805.addr, metadata !6810, metadata !4106), !dbg !6806
	%0 = load %struct._ZSt6vectorIN8projects28FlowthroughSpeciesParametersESaIS1_EE*, %struct._ZSt6vectorIN8projects28FlowthroughSpeciesParametersESaIS1_EE** %_T35351984_52805.addr, align 8, !tbaa !4114, !dbg !6811
	%1 = bitcast %struct._ZSt6vectorIN8projects28FlowthroughSpeciesParametersESaIS1_EE*  %0 to i8*, !dbg !6811
	%2 = getelementptr i8, i8*  %1, i64 8, !dbg !6811
	%3 = bitcast i8*  %2 to i8**, !dbg !6811
	%4 = load i8*, i8**  %3, align 8, !tbaa !4114, !dbg !6811
	%5 = bitcast %struct._ZSt6vectorIN8projects28FlowthroughSpeciesParametersESaIS1_EE*  %0 to i8**, !dbg !6811
	%6 = load i8*, i8**  %5, align 8, !tbaa !4114, !dbg !6811
	%7 = ptrtoint i8*  %6 to i64, !dbg !6811
	%8 = sub i64 0,  %7, !dbg !6811
	%9 = getelementptr i8, i8*  %4, i64  %8, !dbg !6811
	%10 = ptrtoint i8*  %9 to i64, !dbg !6811
	%11 = sext i64 3074457345618258603 to i128, !dbg !6811
	%12 = sext i64  %10 to i128, !dbg !6811
	%13 = mul i128  %11,  %12, !dbg !6811
	%14 = ashr i128  %13, 64, !dbg !6811
	%15 = trunc i128  %14 to i64, !dbg !6811
	%16 = sext i32 3 to i64, !dbg !6811
	%17 = ashr i64  %15,  %16, !dbg !6811
	%18 = sub i64 0,  %7, !dbg !6811
	%19 = getelementptr i8, i8*  %4, i64  %18, !dbg !6811
	%20 = ptrtoint i8*  %19 to i64, !dbg !6811
	%21 = sext i32 63 to i64, !dbg !6811
	%22 = ashr i64  %20,  %21, !dbg !6811
	%23 = sub i64  %17,  %22, !dbg !6811
	ret i64  %23, !dbg !6811
}
define linkonce_odr i64 @_ZNKSt6vectorIN8projects28FlowthroughSpeciesParametersESaIS1_EE8max_sizeEv(%struct._ZSt6vectorIN8projects28FlowthroughSpeciesParametersESaIS1_EE* %_T35351984_52807.arg) #0 inlinehint !dbg !6813 {
L.entry:
	%_T35351984_52807.addr = alloca %struct._ZSt6vectorIN8projects28FlowthroughSpeciesParametersESaIS1_EE*, align 8
	%..inline.addr = alloca %struct._ZSaIN8projects28FlowthroughSpeciesParametersEE*, align 8
	%_T35352872_52807.addr = alloca i64, align 8

	call void @llvm.dbg.declare (metadata %struct._ZSt6vectorIN8projects28FlowthroughSpeciesParametersESaIS1_EE** %_T35351984_52807.addr, metadata !6821, metadata !4106), !dbg !6814
	store %struct._ZSt6vectorIN8projects28FlowthroughSpeciesParametersESaIS1_EE* %_T35351984_52807.arg, %struct._ZSt6vectorIN8projects28FlowthroughSpeciesParametersESaIS1_EE** %_T35351984_52807.addr, align 8, !tbaa !4114
	call void @llvm.dbg.declare (metadata %struct._ZSt6vectorIN8projects28FlowthroughSpeciesParametersESaIS1_EE** %_T35351984_52807.addr, metadata !6822, metadata !4106), !dbg !6814
	%0 = load %struct._ZSt6vectorIN8projects28FlowthroughSpeciesParametersESaIS1_EE*, %struct._ZSt6vectorIN8projects28FlowthroughSpeciesParametersESaIS1_EE** %_T35351984_52807.addr, align 8, !tbaa !4114, !dbg !6823
	%1 = bitcast %struct._ZSt6vectorIN8projects28FlowthroughSpeciesParametersESaIS1_EE*  %0 to i8*, !dbg !6823
	%2 = bitcast %struct._ZSaIN8projects28FlowthroughSpeciesParametersEE** %..inline.addr to i8**, !dbg !6823
	store i8*  %1, i8**  %2, align 8, !tbaa !4114, !dbg !6823
	%3 = load %struct._ZSaIN8projects28FlowthroughSpeciesParametersEE*, %struct._ZSaIN8projects28FlowthroughSpeciesParametersEE** %..inline.addr, align 8, !tbaa !4114, !dbg !6824
	%4 = call i64  @_ZNSt6vectorIN8projects28FlowthroughSpeciesParametersESaIS1_EE11_S_max_sizeERKS2_ (%struct._ZSaIN8projects28FlowthroughSpeciesParametersEE*  %3) nounwind, !dbg !6824
	ret i64  %4, !dbg !6823
}
define linkonce_odr %struct._ZN8projects28FlowthroughSpeciesParametersE* @_ZNKSt6vectorIN8projects28FlowthroughSpeciesParametersESaIS1_EEixEm(%struct._ZSt6vectorIN8projects28FlowthroughSpeciesParametersESaIS1_EE* %_T35351984_52810.arg, i64 %__n.arg) #0 inlinehint !dbg !6828 {
L.entry:
	%_T35351984_52810.addr = alloca %struct._ZSt6vectorIN8projects28FlowthroughSpeciesParametersESaIS1_EE*, align 8
	%__n.addr = alloca i64, align 8

	call void @llvm.dbg.declare (metadata %struct._ZSt6vectorIN8projects28FlowthroughSpeciesParametersESaIS1_EE** %_T35351984_52810.addr, metadata !6832, metadata !4106), !dbg !6829
	store %struct._ZSt6vectorIN8projects28FlowthroughSpeciesParametersESaIS1_EE* %_T35351984_52810.arg, %struct._ZSt6vectorIN8projects28FlowthroughSpeciesParametersESaIS1_EE** %_T35351984_52810.addr, align 8, !tbaa !4114
	call void @llvm.dbg.declare (metadata %struct._ZSt6vectorIN8projects28FlowthroughSpeciesParametersESaIS1_EE** %_T35351984_52810.addr, metadata !6833, metadata !4106), !dbg !6829
	call void @llvm.dbg.declare (metadata i64* %__n.addr, metadata !6834, metadata !4106), !dbg !6829
	store i64 %__n.arg, i64* %__n.addr, align 8, !tbaa !4113
	call void @llvm.dbg.declare (metadata i64* %__n.addr, metadata !6835, metadata !4106), !dbg !6829
	%0 = load %struct._ZSt6vectorIN8projects28FlowthroughSpeciesParametersESaIS1_EE*, %struct._ZSt6vectorIN8projects28FlowthroughSpeciesParametersESaIS1_EE** %_T35351984_52810.addr, align 8, !tbaa !4114, !dbg !6836
	%1 = bitcast %struct._ZSt6vectorIN8projects28FlowthroughSpeciesParametersESaIS1_EE*  %0 to i8**, !dbg !6836
	%2 = load i8*, i8**  %1, align 8, !tbaa !4114, !dbg !6836
	%3 = load i64, i64* %__n.addr, align 8, !tbaa !4541, !dbg !6836
	%4 = mul i64  %3, 48, !dbg !6836
	%5 = getelementptr i8, i8*  %2, i64  %4, !dbg !6836
	%6 = bitcast i8*  %5 to %struct._ZN8projects28FlowthroughSpeciesParametersE*, !dbg !6836
	ret %struct._ZN8projects28FlowthroughSpeciesParametersE*  %6, !dbg !6836
}
define linkonce_odr void @_ZNSt6vectorIN8projects28FlowthroughSpeciesParametersESaIS1_EE9push_backERKS1_(%struct._ZSt6vectorIN8projects28FlowthroughSpeciesParametersESaIS1_EE* %_T35351984_52811.arg, %struct._ZN8projects28FlowthroughSpeciesParametersE* %__x.arg) #0 inlinehint !dbg !6841 {
L.entry:
	%_T35351984_52811.addr = alloca %struct._ZSt6vectorIN8projects28FlowthroughSpeciesParametersESaIS1_EE*, align 8
	%__x.addr = alloca %struct._ZN8projects28FlowthroughSpeciesParametersE*, align 8
	%..inline.addr = alloca %struct._ZN8projects28FlowthroughSpeciesParametersE*, align 8
	%..inline.addr.1 = alloca %struct._ZN8projects28FlowthroughSpeciesParametersE*, align 8
	%..inline.addr.2 = alloca %struct._ZN9__gnu_cxx17__normal_iteratorIPN8projects28FlowthroughSpeciesParametersESt6vectorIS2_SaIS2_EEEE, align 8

	call void @llvm.dbg.declare (metadata %struct._ZSt6vectorIN8projects28FlowthroughSpeciesParametersESaIS1_EE** %_T35351984_52811.addr, metadata !6873, metadata !4106), !dbg !6842
	store %struct._ZSt6vectorIN8projects28FlowthroughSpeciesParametersESaIS1_EE* %_T35351984_52811.arg, %struct._ZSt6vectorIN8projects28FlowthroughSpeciesParametersESaIS1_EE** %_T35351984_52811.addr, align 8, !tbaa !4114
	call void @llvm.dbg.declare (metadata %struct._ZSt6vectorIN8projects28FlowthroughSpeciesParametersESaIS1_EE** %_T35351984_52811.addr, metadata !6874, metadata !4106), !dbg !6842
	call void @llvm.dbg.declare (metadata %struct._ZN8projects28FlowthroughSpeciesParametersE** %__x.addr, metadata !6875, metadata !4106), !dbg !6842
	store %struct._ZN8projects28FlowthroughSpeciesParametersE* %__x.arg, %struct._ZN8projects28FlowthroughSpeciesParametersE** %__x.addr, align 8, !tbaa !4114
	call void @llvm.dbg.declare (metadata %struct._ZN8projects28FlowthroughSpeciesParametersE** %__x.addr, metadata !6876, metadata !4106), !dbg !6842
	%0 = load %struct._ZSt6vectorIN8projects28FlowthroughSpeciesParametersESaIS1_EE*, %struct._ZSt6vectorIN8projects28FlowthroughSpeciesParametersESaIS1_EE** %_T35351984_52811.addr, align 8, !tbaa !4114, !dbg !6877
	%1 = bitcast %struct._ZSt6vectorIN8projects28FlowthroughSpeciesParametersESaIS1_EE*  %0 to i8*, !dbg !6877
	%2 = getelementptr i8, i8*  %1, i64 8, !dbg !6877
	%3 = bitcast i8*  %2 to i8**, !dbg !6877
	%4 = load i8*, i8**  %3, align 8, !tbaa !4114, !dbg !6877
	%5 = getelementptr i8, i8*  %1, i64 16, !dbg !6877
	%6 = bitcast i8*  %5 to i8**, !dbg !6877
	%7 = load i8*, i8**  %6, align 8, !tbaa !4114, !dbg !6877
	%8 = icmp eq i8*  %4,  %7, !dbg !6877
	br i1  %8, label %L.B0012, label %L.B1857, !dbg !6877
L.B1857:
	%9 = bitcast %struct._ZSt6vectorIN8projects28FlowthroughSpeciesParametersESaIS1_EE*  %0 to i8*, !dbg !6878
	%10 = getelementptr i8, i8*  %9, i64 8, !dbg !6878
	%11 = bitcast i8*  %10 to i8**, !dbg !6878
	%12 = load i8*, i8**  %11, align 8, !tbaa !4114, !dbg !6878
	%13 = bitcast %struct._ZN8projects28FlowthroughSpeciesParametersE** %..inline.addr to i8**, !dbg !6878
	store i8*  %12, i8**  %13, align 8, !tbaa !4114, !dbg !6878
	%14 = load %struct._ZN8projects28FlowthroughSpeciesParametersE*, %struct._ZN8projects28FlowthroughSpeciesParametersE** %..inline.addr, align 8, !tbaa !4114, !dbg !6878
	%15 = bitcast %struct._ZN8projects28FlowthroughSpeciesParametersE*  %14 to i8*, !dbg !6878
	%16 = icmp eq i8*  %15,  null, !dbg !6878
	br i1  %16, label %L..inline.77916, label %L.B1858, !dbg !6878
L.B1858:
	%17 = load %struct._ZN8projects28FlowthroughSpeciesParametersE*, %struct._ZN8projects28FlowthroughSpeciesParametersE** %__x.addr, align 8, !tbaa !4114, !dbg !6878
	%18 = bitcast %struct._ZN8projects28FlowthroughSpeciesParametersE*  %17 to i8*, !dbg !6878
	%19 = bitcast %struct._ZN8projects28FlowthroughSpeciesParametersE** %..inline.addr.1 to i8**, !dbg !6878
	store i8*  %18, i8**  %19, align 8, !tbaa !4114, !dbg !6878
	%20 = load %struct._ZN8projects28FlowthroughSpeciesParametersE*, %struct._ZN8projects28FlowthroughSpeciesParametersE** %..inline.addr.1, align 8, !tbaa !4114, !dbg !6879
	%21 = bitcast %struct._ZN8projects28FlowthroughSpeciesParametersE*  %20 to i64*, !dbg !6879
	%22 = load i64, i64*  %21, align 8, !tbaa !4113, !dbg !6879
	%23 = bitcast %struct._ZN8projects28FlowthroughSpeciesParametersE*  %14 to i64*, !dbg !6879
	store i64  %22, i64*  %23, align 8, !tbaa !4113, !dbg !6879
	%24 = bitcast i64*  %21 to i8*, !dbg !6879
	%25 = getelementptr i8, i8*  %24, i64 8, !dbg !6879
	%26 = bitcast i8*  %25 to i64*, !dbg !6879
	%27 = load i64, i64*  %26, align 8, !tbaa !4113, !dbg !6879
	%28 = bitcast i64*  %23 to i8*, !dbg !6879
	%29 = getelementptr i8, i8*  %28, i64 8, !dbg !6879
	%30 = bitcast i8*  %29 to i64*, !dbg !6879
	store i64  %27, i64*  %30, align 8, !tbaa !4113, !dbg !6879
	%31 = getelementptr i8, i8*  %24, i64 16, !dbg !6879
	%32 = bitcast i8*  %31 to i64*, !dbg !6879
	%33 = load i64, i64*  %32, align 8, !tbaa !4113, !dbg !6879
	%34 = getelementptr i8, i8*  %28, i64 16, !dbg !6879
	%35 = bitcast i8*  %34 to i64*, !dbg !6879
	store i64  %33, i64*  %35, align 8, !tbaa !4113, !dbg !6879
	%36 = getelementptr i8, i8*  %24, i64 24, !dbg !6879
	%37 = bitcast i8*  %36 to i64*, !dbg !6879
	%38 = load i64, i64*  %37, align 8, !tbaa !4113, !dbg !6879
	%39 = getelementptr i8, i8*  %28, i64 24, !dbg !6879
	%40 = bitcast i8*  %39 to i64*, !dbg !6879
	store i64  %38, i64*  %40, align 8, !tbaa !4113, !dbg !6879
	%41 = getelementptr i8, i8*  %24, i64 32, !dbg !6879
	%42 = bitcast i8*  %41 to i64*, !dbg !6879
	%43 = load i64, i64*  %42, align 8, !tbaa !4113, !dbg !6879
	%44 = getelementptr i8, i8*  %28, i64 32, !dbg !6879
	%45 = bitcast i8*  %44 to i64*, !dbg !6879
	store i64  %43, i64*  %45, align 8, !tbaa !4113, !dbg !6879
	%46 = getelementptr i8, i8*  %24, i64 40, !dbg !6879
	%47 = bitcast i8*  %46 to i64*, !dbg !6879
	%48 = load i64, i64*  %47, align 8, !tbaa !4113, !dbg !6879
	%49 = getelementptr i8, i8*  %28, i64 40, !dbg !6879
	%50 = bitcast i8*  %49 to i64*, !dbg !6879
	store i64  %48, i64*  %50, align 8, !tbaa !4113, !dbg !6879
	br label %L..inline.77925, !dbg !6878
L..inline.77916:
	br label %L..inline.77925
L..inline.77925:
	%51 = load %struct._ZSt6vectorIN8projects28FlowthroughSpeciesParametersESaIS1_EE*, %struct._ZSt6vectorIN8projects28FlowthroughSpeciesParametersESaIS1_EE** %_T35351984_52811.addr, align 8, !tbaa !4114, !dbg !6880
	%52 = bitcast %struct._ZSt6vectorIN8projects28FlowthroughSpeciesParametersESaIS1_EE*  %51 to i8*, !dbg !6880
	%53 = getelementptr i8, i8*  %52, i64 8, !dbg !6880
	%54 = bitcast i8*  %53 to i8**, !dbg !6880
	%55 = load i8*, i8**  %54, align 8, !tbaa !4114, !dbg !6880
	%56 = getelementptr i8, i8*  %55, i64 48, !dbg !6880
	store i8*  %56, i8**  %54, align 8, !tbaa !4114, !dbg !6880
	br label %L.B0013, !dbg !6881
L.B0012:
	%57 = load %struct._ZSt6vectorIN8projects28FlowthroughSpeciesParametersESaIS1_EE*, %struct._ZSt6vectorIN8projects28FlowthroughSpeciesParametersESaIS1_EE** %_T35351984_52811.addr, align 8, !tbaa !4114, !dbg !6882
	%58 = bitcast %struct._ZSt6vectorIN8projects28FlowthroughSpeciesParametersESaIS1_EE*  %57 to i8*, !dbg !6882
	%59 = getelementptr i8, i8*  %58, i64 8, !dbg !6882
	%60 = bitcast i8*  %59 to i8**, !dbg !6882
	%61 = load i8*, i8**  %60, align 8, !tbaa !4114, !dbg !6882
	%62 = bitcast %struct._ZN9__gnu_cxx17__normal_iteratorIPN8projects28FlowthroughSpeciesParametersESt6vectorIS2_SaIS2_EEEE* %..inline.addr.2 to i8**, !dbg !6882
	store i8*  %61, i8**  %62, align 8, !tbaa !4114, !dbg !6882
	%63 = bitcast %struct._ZN9__gnu_cxx17__normal_iteratorIPN8projects28FlowthroughSpeciesParametersESt6vectorIS2_SaIS2_EEEE* %..inline.addr.2 to i64*, !dbg !6882
	%64 = load i64, i64*  %63, align 8, !tbaa !4113, !dbg !6882
	%65 = load %struct._ZN8projects28FlowthroughSpeciesParametersE*, %struct._ZN8projects28FlowthroughSpeciesParametersE** %__x.addr, align 8, !tbaa !4114, !dbg !6882
	call void  @_ZNSt6vectorIN8projects28FlowthroughSpeciesParametersESaIS1_EE17_M_realloc_insertIJRKS1_EEEvN9__gnu_cxx17__normal_iteratorIPS1_S3_EEDpOT_ (%struct._ZSt6vectorIN8projects28FlowthroughSpeciesParametersESaIS1_EE*  %57, i64  %64, %struct._ZN8projects28FlowthroughSpeciesParametersE*  %65), !dbg !6882
	br label %L.B0013
L.B0013:
	ret void, !dbg !6879
}
define linkonce_odr i64 @_ZNKSt6vectorIN8projects28FlowthroughSpeciesParametersESaIS1_EE12_M_check_lenEmPKc(%struct._ZSt6vectorIN8projects28FlowthroughSpeciesParametersESaIS1_EE* %_T35351984_52814.arg, i64 %__n.arg, i8* %__s.arg) #0 inlinehint !dbg !6886 {
L.entry:
	%_T35351984_52814.addr = alloca %struct._ZSt6vectorIN8projects28FlowthroughSpeciesParametersESaIS1_EE*, align 8
	%__n.addr = alloca i64, align 8
	%__s.addr = alloca i8*, align 8
	%..inline.addr = alloca %struct._ZSaIN8projects28FlowthroughSpeciesParametersEE*, align 8
	%..inline.addr.1 = alloca i64, align 8
	%..inline.addr.2 = alloca i64, align 8
	%..inline.addr.3 = alloca i64, align 8
	%_T35353464_52814.addr = alloca i64, align 8
	%..inline.addr.4 = alloca i64, align 8
	%..inline.addr.5 = alloca i64*, align 8
	%__len.addr = alloca i64, align 8
	%..inline.addr.6 = alloca i64, align 8
	%..inline.addr.7 = alloca %struct._ZSaIN8projects28FlowthroughSpeciesParametersEE*, align 8
	%..inline.addr.8 = alloca i64, align 8
	%..inline.addr.9 = alloca %struct._ZSaIN8projects28FlowthroughSpeciesParametersEE*, align 8
	%..inline.addr.180 = alloca i64, align 8
	%.I0009.addr = alloca i64, align 8

	call void @llvm.dbg.declare (metadata %struct._ZSt6vectorIN8projects28FlowthroughSpeciesParametersESaIS1_EE** %_T35351984_52814.addr, metadata !6934, metadata !4106), !dbg !6887
	store %struct._ZSt6vectorIN8projects28FlowthroughSpeciesParametersESaIS1_EE* %_T35351984_52814.arg, %struct._ZSt6vectorIN8projects28FlowthroughSpeciesParametersESaIS1_EE** %_T35351984_52814.addr, align 8, !tbaa !4114
	call void @llvm.dbg.declare (metadata %struct._ZSt6vectorIN8projects28FlowthroughSpeciesParametersESaIS1_EE** %_T35351984_52814.addr, metadata !6935, metadata !4106), !dbg !6887
	call void @llvm.dbg.declare (metadata i64* %__n.addr, metadata !6936, metadata !4106), !dbg !6887
	store i64 %__n.arg, i64* %__n.addr, align 8, !tbaa !4113
	call void @llvm.dbg.declare (metadata i64* %__n.addr, metadata !6937, metadata !4106), !dbg !6887
	call void @llvm.dbg.declare (metadata i8** %__s.addr, metadata !6938, metadata !4106), !dbg !6887
	store i8* %__s.arg, i8** %__s.addr, align 8, !tbaa !4114
	call void @llvm.dbg.declare (metadata i8** %__s.addr, metadata !6939, metadata !4106), !dbg !6887
	%0 = load %struct._ZSt6vectorIN8projects28FlowthroughSpeciesParametersESaIS1_EE*, %struct._ZSt6vectorIN8projects28FlowthroughSpeciesParametersESaIS1_EE** %_T35351984_52814.addr, align 8, !tbaa !4114, !dbg !6940
	%1 = bitcast %struct._ZSt6vectorIN8projects28FlowthroughSpeciesParametersESaIS1_EE*  %0 to i8*, !dbg !6940
	%2 = bitcast %struct._ZSaIN8projects28FlowthroughSpeciesParametersEE** %..inline.addr to i8**, !dbg !6940
	store i8*  %1, i8**  %2, align 8, !tbaa !4114, !dbg !6940
	%3 = load %struct._ZSaIN8projects28FlowthroughSpeciesParametersEE*, %struct._ZSaIN8projects28FlowthroughSpeciesParametersEE** %..inline.addr, align 8, !tbaa !4114, !dbg !6940
	%4 = call i64  @_ZNSt6vectorIN8projects28FlowthroughSpeciesParametersESaIS1_EE11_S_max_sizeERKS2_ (%struct._ZSaIN8projects28FlowthroughSpeciesParametersEE*  %3) nounwind, !dbg !6940
	%5 = load %struct._ZSt6vectorIN8projects28FlowthroughSpeciesParametersESaIS1_EE*, %struct._ZSt6vectorIN8projects28FlowthroughSpeciesParametersESaIS1_EE** %_T35351984_52814.addr, align 8, !tbaa !4114, !dbg !6941
	%6 = bitcast %struct._ZSt6vectorIN8projects28FlowthroughSpeciesParametersESaIS1_EE*  %5 to i8*, !dbg !6941
	%7 = getelementptr i8, i8*  %6, i64 8, !dbg !6941
	%8 = bitcast i8*  %7 to i8**, !dbg !6941
	%9 = load i8*, i8**  %8, align 8, !tbaa !4114, !dbg !6941
	%10 = bitcast %struct._ZSt6vectorIN8projects28FlowthroughSpeciesParametersESaIS1_EE*  %5 to i8**, !dbg !6941
	%11 = load i8*, i8**  %10, align 8, !tbaa !4114, !dbg !6941
	%12 = ptrtoint i8*  %11 to i64, !dbg !6941
	%13 = sub i64 0,  %12, !dbg !6941
	%14 = getelementptr i8, i8*  %9, i64  %13, !dbg !6941
	%15 = ptrtoint i8*  %14 to i64, !dbg !6941
	%16 = sext i64 3074457345618258603 to i128, !dbg !6941
	%17 = sext i64  %15 to i128, !dbg !6941
	%18 = mul i128  %16,  %17, !dbg !6941
	%19 = ashr i128  %18, 64, !dbg !6941
	%20 = trunc i128  %19 to i64, !dbg !6941
	%21 = sext i32 3 to i64, !dbg !6941
	%22 = ashr i64  %20,  %21, !dbg !6941
	%23 = sub i64 0,  %12, !dbg !6941
	%24 = getelementptr i8, i8*  %9, i64  %23, !dbg !6941
	%25 = ptrtoint i8*  %24 to i64, !dbg !6941
	%26 = sext i32 63 to i64, !dbg !6941
	%27 = ashr i64  %25,  %26, !dbg !6941
	%28 = sub i64  %22,  %27, !dbg !6941
	%29 = sub i64  %4,  %28, !dbg !6942
	%30 = load i64, i64* %__n.addr, align 8, !tbaa !4541, !dbg !6942
	%31 = icmp uge i64  %29,  %30, !dbg !6942
	br i1  %31, label %L.B0014, label %L.B1875, !dbg !6942
L.B1875:
	%32 = load i8*, i8** %__s.addr, align 8, !tbaa !4114, !dbg !6943
	call void  @_ZSt20__throw_length_errorPKc (i8*  %32) noreturn, !dbg !6943
	br label %L.B0014
L.B0014:
	%33 = load %struct._ZSt6vectorIN8projects28FlowthroughSpeciesParametersESaIS1_EE*, %struct._ZSt6vectorIN8projects28FlowthroughSpeciesParametersESaIS1_EE** %_T35351984_52814.addr, align 8, !tbaa !4114, !dbg !6944
	%34 = bitcast %struct._ZSt6vectorIN8projects28FlowthroughSpeciesParametersESaIS1_EE*  %33 to i8*, !dbg !6944
	%35 = getelementptr i8, i8*  %34, i64 8, !dbg !6944
	%36 = bitcast i8*  %35 to i8**, !dbg !6944
	%37 = load i8*, i8**  %36, align 8, !tbaa !4114, !dbg !6944
	%38 = bitcast %struct._ZSt6vectorIN8projects28FlowthroughSpeciesParametersESaIS1_EE*  %33 to i8**, !dbg !6944
	%39 = load i8*, i8**  %38, align 8, !tbaa !4114, !dbg !6944
	%40 = ptrtoint i8*  %39 to i64, !dbg !6944
	%41 = sub i64 0,  %40, !dbg !6944
	%42 = getelementptr i8, i8*  %37, i64  %41, !dbg !6944
	%43 = ptrtoint i8*  %42 to i64, !dbg !6944
	%44 = sext i64 3074457345618258603 to i128, !dbg !6944
	%45 = sext i64  %43 to i128, !dbg !6944
	%46 = mul i128  %44,  %45, !dbg !6944
	%47 = ashr i128  %46, 64, !dbg !6944
	%48 = trunc i128  %47 to i64, !dbg !6944
	%49 = sext i32 3 to i64, !dbg !6944
	%50 = ashr i64  %48,  %49, !dbg !6944
	%51 = sub i64 0,  %40, !dbg !6944
	%52 = getelementptr i8, i8*  %37, i64  %51, !dbg !6944
	%53 = ptrtoint i8*  %52 to i64, !dbg !6944
	%54 = sext i32 63 to i64, !dbg !6944
	%55 = ashr i64  %53,  %54, !dbg !6944
	%56 = sub i64  %50,  %55, !dbg !6944
	store i64  %56, i64* %_T35353464_52814.addr, align 8, !tbaa !4541, !dbg !6942
	%57 = sub i64 0,  %40, !dbg !6944
	%58 = getelementptr i8, i8*  %37, i64  %57, !dbg !6944
	%59 = ptrtoint i8*  %58 to i64, !dbg !6944
	%60 = sext i64 3074457345618258603 to i128, !dbg !6944
	%61 = sext i64  %59 to i128, !dbg !6944
	%62 = mul i128  %60,  %61, !dbg !6944
	%63 = ashr i128  %62, 64, !dbg !6944
	%64 = trunc i128  %63 to i64, !dbg !6944
	%65 = sext i32 3 to i64, !dbg !6944
	%66 = ashr i64  %64,  %65, !dbg !6944
	%67 = sub i64 0,  %40, !dbg !6944
	%68 = getelementptr i8, i8*  %37, i64  %67, !dbg !6944
	%69 = ptrtoint i8*  %68 to i64, !dbg !6944
	%70 = sext i32 63 to i64, !dbg !6944
	%71 = ashr i64  %69,  %70, !dbg !6944
	%72 = sub i64  %66,  %71, !dbg !6944
	store i64  %72, i64* %..inline.addr.4, align 8, !tbaa !4541, !dbg !6944
	%73 = load i64, i64* %__n.addr, align 8, !tbaa !4541, !dbg !6942
	%74 = icmp uge i64  %56,  %73, !dbg !6942
	%75 = zext i1  %74 to i32, !dbg !6942
	%76 = trunc i32  %75 to i1, !dbg !6942
	%77 = bitcast i64* %_T35353464_52814.addr to i8*, !dbg !6942
	%78 = bitcast i64* %__n.addr to i8*, !dbg !6942
	%79 = select i1  %76, i8*  %77, i8*  %78, !dbg !6942
	%80 = bitcast i64** %..inline.addr.5 to i8**, !dbg !6942
	store i8*  %79, i8**  %80, align 8, !tbaa !4114, !dbg !6942
	%81 = load i64*, i64** %..inline.addr.5, align 8, !tbaa !4114, !dbg !6945
	%82 = load i64, i64*  %81, align 8, !tbaa !4113, !dbg !6945
	%83 = add i64  %72,  %82, !dbg !6945
	call void @llvm.dbg.declare (metadata i64* %__len.addr, metadata !6946, metadata !4106), !dbg !6887
	store i64  %83, i64* %__len.addr, align 8, !tbaa !4541, !dbg !6945
	%84 = load %struct._ZSt6vectorIN8projects28FlowthroughSpeciesParametersESaIS1_EE*, %struct._ZSt6vectorIN8projects28FlowthroughSpeciesParametersESaIS1_EE** %_T35351984_52814.addr, align 8, !tbaa !4114, !dbg !6947
	%85 = bitcast %struct._ZSt6vectorIN8projects28FlowthroughSpeciesParametersESaIS1_EE*  %84 to i8*, !dbg !6947
	%86 = getelementptr i8, i8*  %85, i64 8, !dbg !6947
	%87 = bitcast i8*  %86 to i8**, !dbg !6947
	%88 = load i8*, i8**  %87, align 8, !tbaa !4114, !dbg !6947
	%89 = bitcast %struct._ZSt6vectorIN8projects28FlowthroughSpeciesParametersESaIS1_EE*  %84 to i8**, !dbg !6947
	%90 = load i8*, i8**  %89, align 8, !tbaa !4114, !dbg !6947
	%91 = ptrtoint i8*  %90 to i64, !dbg !6947
	%92 = sub i64 0,  %91, !dbg !6947
	%93 = getelementptr i8, i8*  %88, i64  %92, !dbg !6947
	%94 = ptrtoint i8*  %93 to i64, !dbg !6947
	%95 = sext i64 3074457345618258603 to i128, !dbg !6947
	%96 = sext i64  %94 to i128, !dbg !6947
	%97 = mul i128  %95,  %96, !dbg !6947
	%98 = ashr i128  %97, 64, !dbg !6947
	%99 = trunc i128  %98 to i64, !dbg !6947
	%100 = sext i32 3 to i64, !dbg !6947
	%101 = ashr i64  %99,  %100, !dbg !6947
	%102 = sub i64 0,  %91, !dbg !6947
	%103 = getelementptr i8, i8*  %88, i64  %102, !dbg !6947
	%104 = ptrtoint i8*  %103 to i64, !dbg !6947
	%105 = sext i32 63 to i64, !dbg !6947
	%106 = ashr i64  %104,  %105, !dbg !6947
	%107 = sub i64  %101,  %106, !dbg !6947
	%108 = load i64, i64* %..inline.addr.4, align 8, !tbaa !4541, !dbg !6942
	%109 = load i64*, i64** %..inline.addr.5, align 8, !tbaa !4114, !dbg !6942
	%110 = load i64, i64*  %109, align 8, !tbaa !4113, !dbg !6942
	%111 = add i64  %108,  %110, !dbg !6942
	%112 = icmp ult i64  %111,  %107, !dbg !6942
	br i1  %112, label %L.B0017, label %L.B1876, !dbg !6942
L.B1876:
	%113 = bitcast %struct._ZSt6vectorIN8projects28FlowthroughSpeciesParametersESaIS1_EE*  %84 to i8*, !dbg !6940
	%114 = bitcast %struct._ZSaIN8projects28FlowthroughSpeciesParametersEE** %..inline.addr.7 to i8**, !dbg !6940
	store i8*  %113, i8**  %114, align 8, !tbaa !4114, !dbg !6940
	%115 = load %struct._ZSaIN8projects28FlowthroughSpeciesParametersEE*, %struct._ZSaIN8projects28FlowthroughSpeciesParametersEE** %..inline.addr.7, align 8, !tbaa !4114, !dbg !6940
	%116 = call i64  @_ZNSt6vectorIN8projects28FlowthroughSpeciesParametersESaIS1_EE11_S_max_sizeERKS2_ (%struct._ZSaIN8projects28FlowthroughSpeciesParametersEE*  %115) nounwind, !dbg !6940
	%117 = load i64, i64* %__len.addr, align 8, !tbaa !4541, !dbg !6940
	%118 = icmp ule i64  %117,  %116, !dbg !6940
	br i1  %118, label %L.B0015, label %L.B0017, !dbg !6940
L.B0017:
	%119 = load %struct._ZSt6vectorIN8projects28FlowthroughSpeciesParametersESaIS1_EE*, %struct._ZSt6vectorIN8projects28FlowthroughSpeciesParametersESaIS1_EE** %_T35351984_52814.addr, align 8, !tbaa !4114, !dbg !6940
	%120 = bitcast %struct._ZSt6vectorIN8projects28FlowthroughSpeciesParametersESaIS1_EE*  %119 to i8*, !dbg !6940
	%121 = bitcast %struct._ZSaIN8projects28FlowthroughSpeciesParametersEE** %..inline.addr.9 to i8**, !dbg !6940
	store i8*  %120, i8**  %121, align 8, !tbaa !4114, !dbg !6940
	%122 = load %struct._ZSaIN8projects28FlowthroughSpeciesParametersEE*, %struct._ZSaIN8projects28FlowthroughSpeciesParametersEE** %..inline.addr.9, align 8, !tbaa !4114, !dbg !6940
	%123 = call i64  @_ZNSt6vectorIN8projects28FlowthroughSpeciesParametersESaIS1_EE11_S_max_sizeERKS2_ (%struct._ZSaIN8projects28FlowthroughSpeciesParametersEE*  %122) nounwind, !dbg !6940
	store i64  %123, i64* %.I0009.addr, align 8, !tbaa !4541, !dbg !6940
	br label %L.B0016, !dbg !6947
L.B0015:
	%124 = load i64, i64* %__len.addr, align 8, !tbaa !4541, !dbg !6947
	store i64  %124, i64* %.I0009.addr, align 8, !tbaa !4541, !dbg !6947
	br label %L.B0016
L.B0016:
	%125 = load i64, i64* %.I0009.addr, align 8, !tbaa !4541, !dbg !6947
	ret i64  %125, !dbg !6947
}
define linkonce_odr i64 @_ZNSt6vectorIN8projects28FlowthroughSpeciesParametersESaIS1_EE11_S_max_sizeERKS2_(%struct._ZSaIN8projects28FlowthroughSpeciesParametersEE* %__a.arg) #0 inlinehint personality i8* bitcast (i32 (...)* @__gxx_personality_v0 to i8*) !dbg !6956 {
L.entry:
	%__a.addr = alloca %struct._ZSaIN8projects28FlowthroughSpeciesParametersEE*, align 8

	call void @llvm.dbg.declare (metadata %struct._ZSaIN8projects28FlowthroughSpeciesParametersEE** %__a.addr, metadata !6972, metadata !4106), !dbg !6957
	store %struct._ZSaIN8projects28FlowthroughSpeciesParametersEE* %__a.arg, %struct._ZSaIN8projects28FlowthroughSpeciesParametersEE** %__a.addr, align 8, !tbaa !4114
	call void @llvm.dbg.declare (metadata %struct._ZSaIN8projects28FlowthroughSpeciesParametersEE** %__a.addr, metadata !6973, metadata !4106), !dbg !6957
	ret i64 192153584101141162, !dbg !6974
L.B1881:
	br label %L.R0121, !dbg !6974
L_T35353944_52816:
	%0 = landingpad %astruct.dt64
	cleanup
	br label %L.R0121
L.R0121:
	ret i64 0
}

%struct._ZN9__gnu_cxx13new_allocatorIN8projects28FlowthroughSpeciesParametersEEE = type <{ [1 x i8]}> 

define linkonce_odr void @_ZNSt6vectorIN8projects28FlowthroughSpeciesParametersESaIS1_EE17_M_realloc_insertIJRKS1_EEEvN9__gnu_cxx17__normal_iteratorIPS1_S3_EEDpOT_(%struct._ZSt6vectorIN8projects28FlowthroughSpeciesParametersESaIS1_EE* %_T35351984_52818.arg, i64 %__position.coerce, %struct._ZN8projects28FlowthroughSpeciesParametersE* %__args.arg) #0 inlinehint personality i8* bitcast (i32 (...)* @__gxx_personality_v0 to i8*) !dbg !6981 {
L.entry:
	%_T35351984_52818.addr = alloca %struct._ZSt6vectorIN8projects28FlowthroughSpeciesParametersESaIS1_EE*, align 8
	%__position.addr = alloca %struct._ZN9__gnu_cxx17__normal_iteratorIPN8projects28FlowthroughSpeciesParametersESt6vectorIS2_SaIS2_EEEE, align 8
	%__args.addr = alloca %struct._ZN8projects28FlowthroughSpeciesParametersE*, align 8
	%..inline.addr = alloca %struct._ZSt6vectorIN8projects28FlowthroughSpeciesParametersESaIS1_EE*, align 8
	%..inline.addr.1 = alloca i64, align 8
	%..inline.addr.2 = alloca i8*, align 8
	%..inline.addr.3 = alloca %struct._ZSt6vectorIN8projects28FlowthroughSpeciesParametersESaIS1_EE*, align 8
	%..inline.addr.4 = alloca %struct._ZSt12_Vector_baseIN8projects28FlowthroughSpeciesParametersESaIS1_EE*, align 8
	%..inline.addr.5 = alloca %struct._ZSaIN8projects28FlowthroughSpeciesParametersEE*, align 8
	%..inline.addr.6 = alloca i64, align 8
	%..inline.addr.7 = alloca i64, align 8
	%..inline.addr.8 = alloca %struct._ZSt6vectorIN8projects28FlowthroughSpeciesParametersESaIS1_EE*, align 8
	%..inline.addr.9 = alloca i64, align 8
	%..inline.addr.160 = alloca i64, align 8
	%..inline.addr.170 = alloca %struct._ZSt6vectorIN8projects28FlowthroughSpeciesParametersESaIS1_EE*, align 8
	%..inline.addr.180 = alloca i64, align 8
	%..inline.addr.190 = alloca i64, align 8
	%..inline.addr.200 = alloca i64, align 8
	%..inline.addr.210 = alloca %struct._ZSt6vectorIN8projects28FlowthroughSpeciesParametersESaIS1_EE*, align 8
	%..inline.addr.220 = alloca i64, align 8
	%..inline.addr.230 = alloca i64, align 8
	%..inline.addr.240 = alloca i64*, align 8
	%..inline.addr.250 = alloca i64, align 8
	%..inline.addr.260 = alloca %struct._ZSt6vectorIN8projects28FlowthroughSpeciesParametersESaIS1_EE*, align 8
	%..inline.addr.270 = alloca i64, align 8
	%..inline.addr.280 = alloca i64, align 8
	%..inline.addr.290 = alloca %struct._ZSt6vectorIN8projects28FlowthroughSpeciesParametersESaIS1_EE*, align 8
	%..inline.addr.300 = alloca %struct._ZSt12_Vector_baseIN8projects28FlowthroughSpeciesParametersESaIS1_EE*, align 8
