	.text
	.file	"Flowthrough.ll"
	.file	1 "/home/talgat/vlasiator/projects/Flowthrough/Flowthrough.cpp"
	.weak	_ZN11T3DFunctionD1Ev    # -- Begin function _ZN11T3DFunctionD1Ev
	.p2align	4, 0x90
	.type	_ZN11T3DFunctionD1Ev,@function
_ZN11T3DFunctionD1Ev:                   # @_ZN11T3DFunctionD1Ev
.Lfunc_begin0:
	.file	2 "/home/talgat/vlasiator/projects/Flowthrough/../../backgroundfield/functions.hpp"
	.loc	2 31 0                  # projects/Flowthrough/../../backgroundfield/functions.hpp:31:0
	.cfi_startproc
# %bb.0:                                # %L.entry
	#DEBUG_VALUE: ~T3DFunction: <- $rdi
	#DEBUG_VALUE: ~T3DFunction: <- $rdi
	pushq	%rbp
	.cfi_def_cfa_offset 16
	.cfi_offset %rbp, -16
	movq	%rsp, %rbp
	.cfi_def_cfa_register %rbp
.Ltmp0:
	#DEBUG_VALUE:  <- $rdi
	#DEBUG_VALUE:  <- $rdi
	.loc	2 31 1 prologue_end     # projects/Flowthrough/../../backgroundfield/functions.hpp:31:1
	movq	$_ZTV11T3DFunction+16, (%rdi)
	popq	%rbp
	.cfi_def_cfa %rsp, 8
	retq
.Ltmp1:
.Lfunc_end0:
	.size	_ZN11T3DFunctionD1Ev, .Lfunc_end0-_ZN11T3DFunctionD1Ev
	.cfi_endproc
                                        # -- End function
	.weak	_ZN11T3DFunctionD0Ev    # -- Begin function _ZN11T3DFunctionD0Ev
	.p2align	4, 0x90
	.type	_ZN11T3DFunctionD0Ev,@function
_ZN11T3DFunctionD0Ev:                   # @_ZN11T3DFunctionD0Ev
.Lfunc_begin1:
	.loc	1 0 0                   # projects/Flowthrough/Flowthrough.cpp:0:0
	.cfi_startproc
# %bb.0:                                # %L.entry
	pushq	%rbp
	.cfi_def_cfa_offset 16
	.cfi_offset %rbp, -16
	movq	%rsp, %rbp
	.cfi_def_cfa_register %rbp
.Ltmp2:
	.loc	1 31 1 prologue_end     # projects/Flowthrough/Flowthrough.cpp:31:1
	movl	$8, %esi
	popq	%rbp
	.cfi_def_cfa %rsp, 8
	jmp	_ZdlPvm                 # TAILCALL
.Ltmp3:
.Lfunc_end1:
	.size	_ZN11T3DFunctionD0Ev, .Lfunc_end1-_ZN11T3DFunctionD0Ev
	.cfi_endproc
                                        # -- End function
	.weak	_ZN13FieldFunctionD1Ev  # -- Begin function _ZN13FieldFunctionD1Ev
	.p2align	4, 0x90
	.type	_ZN13FieldFunctionD1Ev,@function
_ZN13FieldFunctionD1Ev:                 # @_ZN13FieldFunctionD1Ev
.Lfunc_begin2:
	.file	3 "/home/talgat/vlasiator/projects/Flowthrough/../../backgroundfield/fieldfunction.hpp"
	.loc	3 0 0                   # projects/Flowthrough/../../backgroundfield/fieldfunction.hpp:0:0
	.cfi_startproc
# %bb.0:                                # %L.entry
	#DEBUG_VALUE: ~FieldFunction: <- $rdi
	#DEBUG_VALUE: ~FieldFunction: <- $rdi
	pushq	%rbp
	.cfi_def_cfa_offset 16
	.cfi_offset %rbp, -16
	movq	%rsp, %rbp
	.cfi_def_cfa_register %rbp
.Ltmp4:
	#DEBUG_VALUE:  <- $rdi
	#DEBUG_VALUE:  <- $rdi
	.loc	3 51 1 prologue_end     # projects/Flowthrough/../../backgroundfield/fieldfunction.hpp:51:1
	movq	$_ZTV11T3DFunction+16, (%rdi)
	.loc	3 31 1                  # projects/Flowthrough/../../backgroundfield/fieldfunction.hpp:31:1
	popq	%rbp
	.cfi_def_cfa %rsp, 8
	retq
.Ltmp5:
.Lfunc_end2:
	.size	_ZN13FieldFunctionD1Ev, .Lfunc_end2-_ZN13FieldFunctionD1Ev
	.cfi_endproc
                                        # -- End function
	.weak	_ZN13FieldFunctionD0Ev  # -- Begin function _ZN13FieldFunctionD0Ev
	.p2align	4, 0x90
	.type	_ZN13FieldFunctionD0Ev,@function
_ZN13FieldFunctionD0Ev:                 # @_ZN13FieldFunctionD0Ev
.Lfunc_begin3:
	.loc	1 0 0                   # projects/Flowthrough/Flowthrough.cpp:0:0
	.cfi_startproc
# %bb.0:                                # %L.entry
	pushq	%rbp
	.cfi_def_cfa_offset 16
	.cfi_offset %rbp, -16
	movq	%rsp, %rbp
	.cfi_def_cfa_register %rbp
.Ltmp6:
	.loc	1 31 1 prologue_end     # projects/Flowthrough/Flowthrough.cpp:31:1
	movl	$24, %esi
	popq	%rbp
	.cfi_def_cfa %rsp, 8
	jmp	_ZdlPvm                 # TAILCALL
.Ltmp7:
.Lfunc_end3:
	.size	_ZN13FieldFunctionD0Ev, .Lfunc_end3-_ZN13FieldFunctionD0Ev
	.cfi_endproc
                                        # -- End function
	.weak	_ZNSt6vectorIN5vmesh14MeshParametersESaIS1_EED1Ev # -- Begin function _ZNSt6vectorIN5vmesh14MeshParametersESaIS1_EED1Ev
	.p2align	4, 0x90
	.type	_ZNSt6vectorIN5vmesh14MeshParametersESaIS1_EED1Ev,@function
_ZNSt6vectorIN5vmesh14MeshParametersESaIS1_EED1Ev: # @_ZNSt6vectorIN5vmesh14MeshParametersESaIS1_EED1Ev
.Lfunc_begin4:
	.file	4 "/usr/include/c++/9/bits/stl_vector.h"
	.loc	4 676 0                 # /usr/include/c++/9/bits/stl_vector.h:676:0
	.cfi_startproc
# %bb.0:                                # %L.entry
	#DEBUG_VALUE: ~vector: <- $rdi
	#DEBUG_VALUE: ~vector: <- $rdi
	pushq	%rbp
	.cfi_def_cfa_offset 16
	.cfi_offset %rbp, -16
	movq	%rsp, %rbp
	.cfi_def_cfa_register %rbp
.Ltmp8:
	pushq	%r15
	pushq	%r14
	pushq	%rbx
	pushq	%rax
	.cfi_offset %rbx, -40
	.cfi_offset %r14, -32
	.cfi_offset %r15, -24
.Ltmp9:
	#DEBUG_VALUE:  <- $rdi
	#DEBUG_VALUE:  <- $rdi
	.loc	4 206 1 prologue_end    # /usr/include/c++/9/bits/stl_vector.h:206:1
	movq	(%rdi), %rbx
	movq	8(%rdi), %rsi
	cmpq	%rsi, %rbx
	je	.LBB4_14
.Ltmp10:
# %bb.1:                                # %L.B1776
	#DEBUG_VALUE:  <- $rdi
	#DEBUG_VALUE: ~vector: <- $rdi
	.loc	4 0 1 is_stmt 0         # /usr/include/c++/9/bits/stl_vector.h:0:1
	movq	%rdi, %r14
.Ltmp11:
	#DEBUG_VALUE: ~vector: <- $r14
	#DEBUG_VALUE:  <- $r14
	.loc	4 206 1                 # /usr/include/c++/9/bits/stl_vector.h:206:1
	subq	%rbx, %rsi
	leaq	335(%rsi), %rcx
	movabsq	$-4392081922311798003, %rdx # imm = 0xC30C30C30C30C30D
	movq	%rcx, %rax
	imulq	%rdx
	leaq	(%rsi,%rdx), %rax
	addq	$335, %rax              # imm = 0x14F
	sarq	$8, %rax
	sarq	$63, %rcx
	subq	%rcx, %rax
	imulq	$336, %rax, %r15        # imm = 0x150
	addq	%rbx, %r15
	jmp	.LBB4_2
.Ltmp12:
	.p2align	4, 0x90
.LBB4_12:                               # %_ZN5vmesh14MeshParametersD1Ev.exit
                                        #   in Loop: Header=BB4_2 Depth=1
	#DEBUG_VALUE:  <- $r14
	#DEBUG_VALUE: ~vector: <- $r14
	addq	$336, %rbx              # imm = 0x150
	cmpq	%r15, %rbx
	jae	.LBB4_13
.Ltmp13:
.LBB4_2:                                # %L..inline.76701
                                        # =>This Inner Loop Header: Depth=1
	#DEBUG_VALUE:  <- $r14
	#DEBUG_VALUE: ~vector: <- $r14
	#DEBUG_VALUE: ~MeshParameters: <- $rbx
	#DEBUG_VALUE:  <- $rbx
	.file	5 "/home/talgat/vlasiator/projects/Flowthrough/../../velocity_mesh_parameters.h"
	.loc	5 680 1 is_stmt 1       # projects/Flowthrough/../../velocity_mesh_parameters.h:680:1
	movq	312(%rbx), %rdi
	testq	%rdi, %rdi
	je	.LBB4_4
.Ltmp14:
# %bb.3:                                # %L.B2308.i
                                        #   in Loop: Header=BB4_2 Depth=1
	#DEBUG_VALUE:  <- $rbx
	#DEBUG_VALUE: ~MeshParameters: <- $rbx
	#DEBUG_VALUE:  <- $r14
	#DEBUG_VALUE: ~vector: <- $r14
	callq	_ZdlPv
.Ltmp15:
.LBB4_4:                                # %L..inline.83191.i
                                        #   in Loop: Header=BB4_2 Depth=1
	#DEBUG_VALUE:  <- $rbx
	#DEBUG_VALUE: ~MeshParameters: <- $rbx
	#DEBUG_VALUE:  <- $r14
	#DEBUG_VALUE: ~vector: <- $r14
	movq	288(%rbx), %rdi
	testq	%rdi, %rdi
	je	.LBB4_6
.Ltmp16:
# %bb.5:                                # %L.B2309.i
                                        #   in Loop: Header=BB4_2 Depth=1
	#DEBUG_VALUE:  <- $rbx
	#DEBUG_VALUE: ~MeshParameters: <- $rbx
	#DEBUG_VALUE:  <- $r14
	#DEBUG_VALUE: ~vector: <- $r14
	callq	_ZdlPv
.Ltmp17:
.LBB4_6:                                # %L..inline.83269.i
                                        #   in Loop: Header=BB4_2 Depth=1
	#DEBUG_VALUE:  <- $rbx
	#DEBUG_VALUE: ~MeshParameters: <- $rbx
	#DEBUG_VALUE:  <- $r14
	#DEBUG_VALUE: ~vector: <- $r14
	movq	264(%rbx), %rdi
	testq	%rdi, %rdi
	je	.LBB4_8
.Ltmp18:
# %bb.7:                                # %L.B2310.i
                                        #   in Loop: Header=BB4_2 Depth=1
	#DEBUG_VALUE:  <- $rbx
	#DEBUG_VALUE: ~MeshParameters: <- $rbx
	#DEBUG_VALUE:  <- $r14
	#DEBUG_VALUE: ~vector: <- $r14
	callq	_ZdlPv
.Ltmp19:
.LBB4_8:                                # %L..inline.83347.i
                                        #   in Loop: Header=BB4_2 Depth=1
	#DEBUG_VALUE:  <- $rbx
	#DEBUG_VALUE: ~MeshParameters: <- $rbx
	#DEBUG_VALUE:  <- $r14
	#DEBUG_VALUE: ~vector: <- $r14
	movq	240(%rbx), %rdi
	testq	%rdi, %rdi
	je	.LBB4_10
.Ltmp20:
# %bb.9:                                # %L.B2311.i
                                        #   in Loop: Header=BB4_2 Depth=1
	#DEBUG_VALUE:  <- $rbx
	#DEBUG_VALUE: ~MeshParameters: <- $rbx
	#DEBUG_VALUE:  <- $r14
	#DEBUG_VALUE: ~vector: <- $r14
	callq	_ZdlPv
.Ltmp21:
.LBB4_10:                               # %L..inline.83425.i
                                        #   in Loop: Header=BB4_2 Depth=1
	#DEBUG_VALUE:  <- $rbx
	#DEBUG_VALUE: ~MeshParameters: <- $rbx
	#DEBUG_VALUE:  <- $r14
	#DEBUG_VALUE: ~vector: <- $r14
	.loc	5 658 1                 # projects/Flowthrough/../../velocity_mesh_parameters.h:658:1
	movq	(%rbx), %rdi
	leaq	16(%rbx), %rax
	cmpq	%rdi, %rax
	je	.LBB4_12
.Ltmp22:
# %bb.11:                               # %L.B2312.i
                                        #   in Loop: Header=BB4_2 Depth=1
	#DEBUG_VALUE:  <- $rbx
	#DEBUG_VALUE: ~MeshParameters: <- $rbx
	#DEBUG_VALUE:  <- $r14
	#DEBUG_VALUE: ~vector: <- $r14
	callq	_ZdlPv
	jmp	.LBB4_12
.Ltmp23:
.LBB4_13:                               # %L..inline.76702thread-pre-split
	#DEBUG_VALUE:  <- $r14
	#DEBUG_VALUE: ~vector: <- $r14
	.loc	4 332 1                 # /usr/include/c++/9/bits/stl_vector.h:332:1
	movq	(%r14), %rbx
.Ltmp24:
.LBB4_14:                               # %L..inline.76702
	testq	%rbx, %rbx
	je	.LBB4_15
# %bb.16:                               # %L.B1777
	movq	%rbx, %rdi
	addq	$8, %rsp
	popq	%rbx
	popq	%r14
	popq	%r15
	popq	%rbp
	.cfi_def_cfa %rsp, 8
	jmp	_ZdlPv                  # TAILCALL
.LBB4_15:                               # %L..inline.76734
	.cfi_def_cfa %rbp, 16
	.loc	4 680 1                 # /usr/include/c++/9/bits/stl_vector.h:680:1
	addq	$8, %rsp
	popq	%rbx
	popq	%r14
	popq	%r15
	popq	%rbp
	.cfi_def_cfa %rsp, 8
	retq
.Ltmp25:
.Lfunc_end4:
	.size	_ZNSt6vectorIN5vmesh14MeshParametersESaIS1_EED1Ev, .Lfunc_end4-_ZNSt6vectorIN5vmesh14MeshParametersESaIS1_EED1Ev
	.cfi_endproc
                                        # -- End function
	.weak	_ZNSt6vectorIN8projects28FlowthroughSpeciesParametersESaIS1_EE17_M_realloc_insertIJRKS1_EEEvN9__gnu_cxx17__normal_iteratorIPS1_S3_EEDpOT_ # -- Begin function _ZNSt6vectorIN8projects28FlowthroughSpeciesParametersESaIS1_EE17_M_realloc_insertIJRKS1_EEEvN9__gnu_cxx17__normal_iteratorIPS1_S3_EEDpOT_
	.p2align	4, 0x90
	.type	_ZNSt6vectorIN8projects28FlowthroughSpeciesParametersESaIS1_EE17_M_realloc_insertIJRKS1_EEEvN9__gnu_cxx17__normal_iteratorIPS1_S3_EEDpOT_,@function
_ZNSt6vectorIN8projects28FlowthroughSpeciesParametersESaIS1_EE17_M_realloc_insertIJRKS1_EEEvN9__gnu_cxx17__normal_iteratorIPS1_S3_EEDpOT_: # @_ZNSt6vectorIN8projects28FlowthroughSpeciesParametersESaIS1_EE17_M_realloc_insertIJRKS1_EEEvN9__gnu_cxx17__normal_iteratorIPS1_S3_EEDpOT_
.Lfunc_begin5:
	.file	6 "/usr/include/c++/9/bits/vector.tcc"
	.loc	6 434 0                 # /usr/include/c++/9/bits/vector.tcc:434:0
	.cfi_startproc
# %bb.0:                                # %L.entry
	#DEBUG_VALUE: _M_realloc_insert: <- $rdi
	#DEBUG_VALUE: _M_realloc_insert:__position <- $rsi
	#DEBUG_VALUE: _M_realloc_insert:__args <- $rdx
	pushq	%rbp
	.cfi_def_cfa_offset 16
	.cfi_offset %rbp, -16
	movq	%rsp, %rbp
	.cfi_def_cfa_register %rbp
	pushq	%r15
	pushq	%r14
	pushq	%r13
	pushq	%r12
	pushq	%rbx
	subq	$40, %rsp
	.cfi_offset %rbx, -56
	.cfi_offset %r12, -48
	.cfi_offset %r13, -40
	.cfi_offset %r14, -32
	.cfi_offset %r15, -24
	movq	%rdx, %r10
.Ltmp26:
	#DEBUG_VALUE: __args <- undef
	movabsq	$192153584101141162, %r8 # imm = 0x2AAAAAAAAAAAAAA
.Ltmp27:
	#DEBUG_VALUE:  <- $rdi
	#DEBUG_VALUE: _M_realloc_insert:__args <- $r10
	#DEBUG_VALUE: _M_realloc_insert:__position <- $rsi
	#DEBUG_VALUE: _M_realloc_insert: <- $rdi
	.loc	6 1755 1 prologue_end   # /usr/include/c++/9/bits/vector.tcc:1755:1
	movq	(%rdi), %rbx
	movq	8(%rdi), %r15
	movq	%r15, %rcx
	subq	%rbx, %rcx
	movabsq	$3074457345618258603, %r9 # imm = 0x2AAAAAAAAAAAAAAB
	movq	%rcx, %rax
	imulq	%r9
	sarq	$3, %rdx
	sarq	$63, %rcx
	subq	%rcx, %rdx
	cmpq	%r8, %rdx
	je	.LBB5_13
.Ltmp28:
# %bb.1:                                # %L..inline.78152
	#DEBUG_VALUE: _M_realloc_insert:__args <- $r10
	#DEBUG_VALUE:  <- $rdi
	#DEBUG_VALUE: _M_realloc_insert:__position <- $rsi
	#DEBUG_VALUE: _M_realloc_insert: <- $rdi
	.loc	6 1758 1                # /usr/include/c++/9/bits/vector.tcc:1758:1
	testq	%rdx, %rdx
	movl	$1, %eax
	cmovneq	%rdx, %rax
	leaq	(%rax,%rdx), %r12
	.loc	6 1759 1                # /usr/include/c++/9/bits/vector.tcc:1759:1
	cmpq	%r8, %r12
	cmovaq	%r8, %r12
	.loc	6 1758 1                # /usr/include/c++/9/bits/vector.tcc:1758:1
	addq	%rdx, %rax
	.loc	6 1759 1                # /usr/include/c++/9/bits/vector.tcc:1759:1
	cmovbq	%r8, %r12
.Ltmp29:
	#DEBUG_VALUE: __old_finish <- $r15
	#DEBUG_VALUE: __old_start <- $rbx
	#DEBUG_VALUE: __len <- $r12
	.loc	6 0 1 is_stmt 0         # /usr/include/c++/9/bits/vector.tcc:0:1
	movq	%rsi, -56(%rbp)         # 8-byte Spill
.Ltmp30:
	#DEBUG_VALUE: _M_realloc_insert:__position <- [DW_OP_constu 56, DW_OP_minus] [$rbp+0]
	.loc	6 992 1 is_stmt 1       # /usr/include/c++/9/bits/vector.tcc:992:1
	movq	%rsi, %rcx
	movq	%rbx, -64(%rbp)         # 8-byte Spill
.Ltmp31:
	#DEBUG_VALUE: __old_start <- [DW_OP_constu 64, DW_OP_minus] [$rbp+0]
	subq	%rbx, %rcx
	movq	%rcx, %rax
	imulq	%r9
	movq	%rdx, %r14
	sarq	$3, %r14
	sarq	$63, %rcx
	subq	%rcx, %r14
.Ltmp32:
	#DEBUG_VALUE: __elems_before <- $r14
	.loc	6 440 1                 # /usr/include/c++/9/bits/vector.tcc:440:1
	testq	%r12, %r12
	movq	%rdi, -72(%rbp)         # 8-byte Spill
.Ltmp33:
	#DEBUG_VALUE: _M_realloc_insert: <- [DW_OP_constu 72, DW_OP_minus] [$rbp+0]
	je	.LBB5_2
.Ltmp34:
# %bb.3:                                # %L..inline.78280
	#DEBUG_VALUE: _M_realloc_insert: <- [DW_OP_constu 72, DW_OP_minus] [$rbp+0]
	#DEBUG_VALUE: __elems_before <- $r14
	#DEBUG_VALUE: __old_start <- [DW_OP_constu 64, DW_OP_minus] [$rbp+0]
	#DEBUG_VALUE: _M_realloc_insert:__position <- [DW_OP_constu 56, DW_OP_minus] [$rbp+0]
	#DEBUG_VALUE: __len <- $r12
	#DEBUG_VALUE: __old_finish <- $r15
	#DEBUG_VALUE: _M_realloc_insert:__args <- $r10
	#DEBUG_VALUE:  <- $rdi
	.loc	6 343 1                 # /usr/include/c++/9/bits/vector.tcc:343:1
	movq	%r12, %rax
	shlq	$4, %rax
	leaq	(%rax,%rax,2), %rdi
.Ltmp35:
	.loc	6 0 1 is_stmt 0         # /usr/include/c++/9/bits/vector.tcc:0:1
	movq	%r10, %rbx
.Ltmp36:
	#DEBUG_VALUE: _M_realloc_insert:__args <- $rbx
	.loc	6 343 1                 # /usr/include/c++/9/bits/vector.tcc:343:1
	callq	_Znwm
	movq	%rbx, %r10
	movq	%rax, %r13
	jmp	.LBB5_4
.Ltmp37:
.LBB5_2:
	#DEBUG_VALUE: _M_realloc_insert: <- [DW_OP_constu 72, DW_OP_minus] [$rbp+0]
	#DEBUG_VALUE: __elems_before <- $r14
	#DEBUG_VALUE: __old_start <- [DW_OP_constu 64, DW_OP_minus] [$rbp+0]
	#DEBUG_VALUE: _M_realloc_insert:__position <- [DW_OP_constu 56, DW_OP_minus] [$rbp+0]
	#DEBUG_VALUE: __len <- $r12
	#DEBUG_VALUE: __old_finish <- $r15
	#DEBUG_VALUE: _M_realloc_insert:__args <- $r10
	#DEBUG_VALUE:  <- $rdi
	.loc	6 0 1                   # /usr/include/c++/9/bits/vector.tcc:0:1
	xorl	%r13d, %r13d
.Ltmp38:
.LBB5_4:                                # %L..inline.78281
	#DEBUG_VALUE: _M_realloc_insert: <- [DW_OP_constu 72, DW_OP_minus] [$rbp+0]
	#DEBUG_VALUE: __elems_before <- $r14
	#DEBUG_VALUE: __old_start <- [DW_OP_constu 64, DW_OP_minus] [$rbp+0]
	#DEBUG_VALUE: _M_realloc_insert:__position <- [DW_OP_constu 56, DW_OP_minus] [$rbp+0]
	#DEBUG_VALUE: __len <- $r12
	#DEBUG_VALUE: __old_finish <- $r15
	#DEBUG_VALUE: __new_start <- undef
	#DEBUG_VALUE: __new_finish <- $r13
	.loc	6 449 1 is_stmt 1       # /usr/include/c++/9/bits/vector.tcc:449:1
	movq	%r14, %rcx
	shlq	$4, %rcx
	leaq	(%rcx,%rcx,2), %rdx
	movq	%r13, -48(%rbp)         # 8-byte Spill
.Ltmp39:
	#DEBUG_VALUE: __new_finish <- [DW_OP_constu 48, DW_OP_minus] [$rbp+0]
	.loc	6 484 1                 # /usr/include/c++/9/bits/vector.tcc:484:1
	addq	%rdx, %r13
	je	.LBB5_6
.Ltmp40:
# %bb.5:                                # %L.B1934
	#DEBUG_VALUE: __new_finish <- [DW_OP_constu 48, DW_OP_minus] [$rbp+0]
	#DEBUG_VALUE: _M_realloc_insert: <- [DW_OP_constu 72, DW_OP_minus] [$rbp+0]
	#DEBUG_VALUE: __elems_before <- $r14
	#DEBUG_VALUE: __old_start <- [DW_OP_constu 64, DW_OP_minus] [$rbp+0]
	#DEBUG_VALUE: _M_realloc_insert:__position <- [DW_OP_constu 56, DW_OP_minus] [$rbp+0]
	#DEBUG_VALUE: __len <- $r12
	#DEBUG_VALUE: __old_finish <- $r15
	.loc	6 505 1                 # /usr/include/c++/9/bits/vector.tcc:505:1
	vmovups	(%r10), %ymm0
	vmovups	%ymm0, (%r13)
	vmovups	32(%r10), %xmm0
	vmovups	%xmm0, 32(%r13)
.Ltmp41:
.LBB5_6:                                # %L..inline.78329
	#DEBUG_VALUE: __new_finish <- [DW_OP_constu 48, DW_OP_minus] [$rbp+0]
	#DEBUG_VALUE: _M_realloc_insert: <- [DW_OP_constu 72, DW_OP_minus] [$rbp+0]
	#DEBUG_VALUE: __elems_before <- $r14
	#DEBUG_VALUE: __old_start <- [DW_OP_constu 64, DW_OP_minus] [$rbp+0]
	#DEBUG_VALUE: _M_realloc_insert:__position <- [DW_OP_constu 56, DW_OP_minus] [$rbp+0]
	#DEBUG_VALUE: __len <- $r12
	#DEBUG_VALUE: __old_finish <- $r15
	#DEBUG_VALUE: __new_finish <- 0
	.loc	6 466 1                 # /usr/include/c++/9/bits/vector.tcc:466:1
	testq	%r14, %r14
	movq	-64(%rbp), %r14         # 8-byte Reload
.Ltmp42:
	jle	.LBB5_8
.Ltmp43:
# %bb.7:                                # %L.B1935
	#DEBUG_VALUE: __new_finish <- 0
	#DEBUG_VALUE: _M_realloc_insert: <- [DW_OP_constu 72, DW_OP_minus] [$rbp+0]
	#DEBUG_VALUE: __old_start <- [DW_OP_constu 64, DW_OP_minus] [$rbp+0]
	#DEBUG_VALUE: _M_realloc_insert:__position <- [DW_OP_constu 56, DW_OP_minus] [$rbp+0]
	#DEBUG_VALUE: __len <- $r12
	#DEBUG_VALUE: __old_finish <- $r15
	.loc	6 0 1 is_stmt 0         # /usr/include/c++/9/bits/vector.tcc:0:1
	movq	-48(%rbp), %rdi         # 8-byte Reload
	.loc	6 466 1                 # /usr/include/c++/9/bits/vector.tcc:466:1
	movq	%r14, %rsi
	vzeroupper
	callq	memmove
.Ltmp44:
.LBB5_8:                                # %L..inline.78399
	#DEBUG_VALUE: __new_finish <- 0
	#DEBUG_VALUE: _M_realloc_insert: <- [DW_OP_constu 72, DW_OP_minus] [$rbp+0]
	#DEBUG_VALUE: __old_start <- [DW_OP_constu 64, DW_OP_minus] [$rbp+0]
	#DEBUG_VALUE: _M_realloc_insert:__position <- [DW_OP_constu 56, DW_OP_minus] [$rbp+0]
	#DEBUG_VALUE: __len <- $r12
	#DEBUG_VALUE: __old_finish <- $r15
	#DEBUG_VALUE: __new_finish <- $r13
	.loc	6 464 1 is_stmt 1       # /usr/include/c++/9/bits/vector.tcc:464:1
	addq	$48, %r13
.Ltmp45:
	#DEBUG_VALUE: __new_finish <- $r13
	.loc	6 0 1 is_stmt 0         # /usr/include/c++/9/bits/vector.tcc:0:1
	movq	-56(%rbp), %rsi         # 8-byte Reload
.Ltmp46:
	#DEBUG_VALUE: _M_realloc_insert:__position <- $rsi
	.loc	6 466 1 is_stmt 1       # /usr/include/c++/9/bits/vector.tcc:466:1
	subq	%rsi, %r15
.Ltmp47:
	movq	%r15, %rax
	movabsq	$3074457345618258603, %rcx # imm = 0x2AAAAAAAAAAAAAAB
	imulq	%rcx
	sarq	$3, %rdx
	sarq	$63, %r15
	subq	%r15, %rdx
	movq	%rdx, %rax
	shlq	$4, %rax
	leaq	(%rax,%rax,2), %rbx
	testq	%rdx, %rdx
	jle	.LBB5_10
.Ltmp48:
# %bb.9:                                # %L.B1936
	#DEBUG_VALUE: __new_finish <- $r13
	#DEBUG_VALUE: _M_realloc_insert: <- [DW_OP_constu 72, DW_OP_minus] [$rbp+0]
	#DEBUG_VALUE: __old_start <- [DW_OP_constu 64, DW_OP_minus] [$rbp+0]
	#DEBUG_VALUE: __len <- $r12
	#DEBUG_VALUE: _M_realloc_insert:__position <- $rsi
	movq	%r13, %rdi
	movq	%rbx, %rdx
	vzeroupper
	callq	memmove
.Ltmp49:
.LBB5_10:                               # %L..inline.78477
	#DEBUG_VALUE: __new_finish <- $r13
	#DEBUG_VALUE: _M_realloc_insert: <- [DW_OP_constu 72, DW_OP_minus] [$rbp+0]
	#DEBUG_VALUE: __old_start <- [DW_OP_constu 64, DW_OP_minus] [$rbp+0]
	#DEBUG_VALUE: __len <- $r12
	addq	%rbx, %r13
.Ltmp50:
	#DEBUG_VALUE: __new_finish <- $r13
	.loc	6 500 1                 # /usr/include/c++/9/bits/vector.tcc:500:1
	testq	%r14, %r14
	je	.LBB5_12
.Ltmp51:
# %bb.11:                               # %L.B1939
	#DEBUG_VALUE: __new_finish <- $r13
	#DEBUG_VALUE: _M_realloc_insert: <- [DW_OP_constu 72, DW_OP_minus] [$rbp+0]
	#DEBUG_VALUE: __old_start <- [DW_OP_constu 64, DW_OP_minus] [$rbp+0]
	#DEBUG_VALUE: __len <- $r12
	.loc	6 351 1                 # /usr/include/c++/9/bits/vector.tcc:351:1
	movq	%r14, %rdi
	vzeroupper
	callq	_ZdlPv
.Ltmp52:
.LBB5_12:                               # %L..inline.78545
	#DEBUG_VALUE: __new_finish <- $r13
	#DEBUG_VALUE: _M_realloc_insert: <- [DW_OP_constu 72, DW_OP_minus] [$rbp+0]
	#DEBUG_VALUE: __old_start <- [DW_OP_constu 64, DW_OP_minus] [$rbp+0]
	#DEBUG_VALUE: __len <- $r12
	.loc	6 0 1 is_stmt 0         # /usr/include/c++/9/bits/vector.tcc:0:1
	movq	-72(%rbp), %rcx         # 8-byte Reload
.Ltmp53:
	#DEBUG_VALUE: _M_realloc_insert: <- $rcx
	movq	-48(%rbp), %rdx         # 8-byte Reload
	.loc	6 502 1 is_stmt 1       # /usr/include/c++/9/bits/vector.tcc:502:1
	movq	%rdx, (%rcx)
	.loc	6 503 1                 # /usr/include/c++/9/bits/vector.tcc:503:1
	movq	%r13, 8(%rcx)
	.loc	6 504 1                 # /usr/include/c++/9/bits/vector.tcc:504:1
	leaq	(%r12,%r12,2), %rax
	shlq	$4, %rax
	addq	%rdx, %rax
	movq	%rax, 16(%rcx)
	.loc	6 505 1                 # /usr/include/c++/9/bits/vector.tcc:505:1
	addq	$40, %rsp
	popq	%rbx
	popq	%r12
.Ltmp54:
	popq	%r13
.Ltmp55:
	popq	%r14
	popq	%r15
	popq	%rbp
	.cfi_def_cfa %rsp, 8
	vzeroupper
	retq
.Ltmp56:
.LBB5_13:                               # %L.B1928
	.cfi_def_cfa %rbp, 16
	#DEBUG_VALUE: _M_realloc_insert:__args <- $r10
	#DEBUG_VALUE:  <- $rdi
	#DEBUG_VALUE: _M_realloc_insert:__position <- $rsi
	#DEBUG_VALUE: _M_realloc_insert: <- $rdi
	.loc	6 1756 1                # /usr/include/c++/9/bits/vector.tcc:1756:1
	movl	$.S55095, %edi
.Ltmp57:
	callq	_ZSt20__throw_length_errorPKc
.Ltmp58:
.Lfunc_end5:
	.size	_ZNSt6vectorIN8projects28FlowthroughSpeciesParametersESaIS1_EE17_M_realloc_insertIJRKS1_EEEvN9__gnu_cxx17__normal_iteratorIPS1_S3_EEDpOT_, .Lfunc_end5-_ZNSt6vectorIN8projects28FlowthroughSpeciesParametersESaIS1_EE17_M_realloc_insertIJRKS1_EEEvN9__gnu_cxx17__normal_iteratorIPS1_S3_EEDpOT_
	.cfi_endproc
                                        # -- End function
	.weak	_ZNSt6vectorISt5arrayIdLm3EESaIS1_EE17_M_realloc_insertIJRKS1_EEEvN9__gnu_cxx17__normal_iteratorIPS1_S3_EEDpOT_ # -- Begin function _ZNSt6vectorISt5arrayIdLm3EESaIS1_EE17_M_realloc_insertIJRKS1_EEEvN9__gnu_cxx17__normal_iteratorIPS1_S3_EEDpOT_
	.p2align	4, 0x90
	.type	_ZNSt6vectorISt5arrayIdLm3EESaIS1_EE17_M_realloc_insertIJRKS1_EEEvN9__gnu_cxx17__normal_iteratorIPS1_S3_EEDpOT_,@function
_ZNSt6vectorISt5arrayIdLm3EESaIS1_EE17_M_realloc_insertIJRKS1_EEEvN9__gnu_cxx17__normal_iteratorIPS1_S3_EEDpOT_: # @_ZNSt6vectorISt5arrayIdLm3EESaIS1_EE17_M_realloc_insertIJRKS1_EEEvN9__gnu_cxx17__normal_iteratorIPS1_S3_EEDpOT_
.Lfunc_begin6:
	.loc	6 434 0                 # /usr/include/c++/9/bits/vector.tcc:434:0
	.cfi_startproc
# %bb.0:                                # %L.entry
	#DEBUG_VALUE: _M_realloc_insert: <- $rdi
	#DEBUG_VALUE: _M_realloc_insert:__position <- $rsi
	#DEBUG_VALUE: _M_realloc_insert:__args <- $rdx
	pushq	%rbp
	.cfi_def_cfa_offset 16
	.cfi_offset %rbp, -16
	movq	%rsp, %rbp
	.cfi_def_cfa_register %rbp
	pushq	%r15
	pushq	%r14
	pushq	%r13
	pushq	%r12
	pushq	%rbx
	subq	$40, %rsp
	.cfi_offset %rbx, -56
	.cfi_offset %r12, -48
	.cfi_offset %r13, -40
	.cfi_offset %r14, -32
	.cfi_offset %r15, -24
	movq	%rdx, %r10
.Ltmp59:
	#DEBUG_VALUE: __args <- undef
	movabsq	$384307168202282325, %r8 # imm = 0x555555555555555
.Ltmp60:
	#DEBUG_VALUE:  <- $rdi
	#DEBUG_VALUE: _M_realloc_insert:__args <- $r10
	#DEBUG_VALUE: _M_realloc_insert:__position <- $rsi
	#DEBUG_VALUE: _M_realloc_insert: <- $rdi
	.loc	6 1755 1 prologue_end   # /usr/include/c++/9/bits/vector.tcc:1755:1
	movq	(%rdi), %rbx
	movq	8(%rdi), %r15
	movq	%r15, %rcx
	subq	%rbx, %rcx
	movabsq	$3074457345618258603, %r9 # imm = 0x2AAAAAAAAAAAAAAB
	movq	%rcx, %rax
	imulq	%r9
	sarq	$2, %rdx
	sarq	$63, %rcx
	subq	%rcx, %rdx
	cmpq	%r8, %rdx
	je	.LBB6_13
.Ltmp61:
# %bb.1:                                # %L..inline.80028
	#DEBUG_VALUE: _M_realloc_insert:__args <- $r10
	#DEBUG_VALUE:  <- $rdi
	#DEBUG_VALUE: _M_realloc_insert:__position <- $rsi
	#DEBUG_VALUE: _M_realloc_insert: <- $rdi
	.loc	6 1758 1                # /usr/include/c++/9/bits/vector.tcc:1758:1
	testq	%rdx, %rdx
	movl	$1, %eax
	cmovneq	%rdx, %rax
	leaq	(%rax,%rdx), %r12
	.loc	6 1759 1                # /usr/include/c++/9/bits/vector.tcc:1759:1
	cmpq	%r8, %r12
	cmovaq	%r8, %r12
	.loc	6 1758 1                # /usr/include/c++/9/bits/vector.tcc:1758:1
	addq	%rdx, %rax
	.loc	6 1759 1                # /usr/include/c++/9/bits/vector.tcc:1759:1
	cmovbq	%r8, %r12
.Ltmp62:
	#DEBUG_VALUE: __old_finish <- $r15
	#DEBUG_VALUE: __old_start <- $rbx
	#DEBUG_VALUE: __len <- $r12
	.loc	6 0 1 is_stmt 0         # /usr/include/c++/9/bits/vector.tcc:0:1
	movq	%rsi, -56(%rbp)         # 8-byte Spill
.Ltmp63:
	#DEBUG_VALUE: _M_realloc_insert:__position <- [DW_OP_constu 56, DW_OP_minus] [$rbp+0]
	.loc	6 992 1 is_stmt 1       # /usr/include/c++/9/bits/vector.tcc:992:1
	movq	%rsi, %rcx
	movq	%rbx, -64(%rbp)         # 8-byte Spill
.Ltmp64:
	#DEBUG_VALUE: __old_start <- [DW_OP_constu 64, DW_OP_minus] [$rbp+0]
	subq	%rbx, %rcx
	movq	%rcx, %rax
	imulq	%r9
	movq	%rdx, %r14
	sarq	$2, %r14
	sarq	$63, %rcx
	subq	%rcx, %r14
.Ltmp65:
	#DEBUG_VALUE: __elems_before <- $r14
	.loc	6 440 1                 # /usr/include/c++/9/bits/vector.tcc:440:1
	testq	%r12, %r12
	movq	%rdi, -72(%rbp)         # 8-byte Spill
.Ltmp66:
	#DEBUG_VALUE: _M_realloc_insert: <- [DW_OP_constu 72, DW_OP_minus] [$rbp+0]
	je	.LBB6_2
.Ltmp67:
# %bb.3:                                # %L..inline.80156
	#DEBUG_VALUE: _M_realloc_insert: <- [DW_OP_constu 72, DW_OP_minus] [$rbp+0]
	#DEBUG_VALUE: __elems_before <- $r14
	#DEBUG_VALUE: __old_start <- [DW_OP_constu 64, DW_OP_minus] [$rbp+0]
	#DEBUG_VALUE: _M_realloc_insert:__position <- [DW_OP_constu 56, DW_OP_minus] [$rbp+0]
	#DEBUG_VALUE: __len <- $r12
	#DEBUG_VALUE: __old_finish <- $r15
	#DEBUG_VALUE: _M_realloc_insert:__args <- $r10
	#DEBUG_VALUE:  <- $rdi
	.loc	6 343 1                 # /usr/include/c++/9/bits/vector.tcc:343:1
	leaq	(,%r12,8), %rax
	leaq	(%rax,%rax,2), %rdi
.Ltmp68:
	.loc	6 0 1 is_stmt 0         # /usr/include/c++/9/bits/vector.tcc:0:1
	movq	%r10, %rbx
.Ltmp69:
	#DEBUG_VALUE: _M_realloc_insert:__args <- $rbx
	.loc	6 343 1                 # /usr/include/c++/9/bits/vector.tcc:343:1
	callq	_Znwm
	movq	%rbx, %r10
	movq	%rax, %rbx
.Ltmp70:
	.loc	6 0 1                   # /usr/include/c++/9/bits/vector.tcc:0:1
	jmp	.LBB6_4
.Ltmp71:
.LBB6_2:
	#DEBUG_VALUE: _M_realloc_insert: <- [DW_OP_constu 72, DW_OP_minus] [$rbp+0]
	#DEBUG_VALUE: __elems_before <- $r14
	#DEBUG_VALUE: __old_start <- [DW_OP_constu 64, DW_OP_minus] [$rbp+0]
	#DEBUG_VALUE: _M_realloc_insert:__position <- [DW_OP_constu 56, DW_OP_minus] [$rbp+0]
	#DEBUG_VALUE: __len <- $r12
	#DEBUG_VALUE: __old_finish <- $r15
	#DEBUG_VALUE: _M_realloc_insert:__args <- $r10
	#DEBUG_VALUE:  <- $rdi
	xorl	%ebx, %ebx
.Ltmp72:
.LBB6_4:                                # %L..inline.80157
	#DEBUG_VALUE: _M_realloc_insert: <- [DW_OP_constu 72, DW_OP_minus] [$rbp+0]
	#DEBUG_VALUE: __elems_before <- $r14
	#DEBUG_VALUE: __old_start <- [DW_OP_constu 64, DW_OP_minus] [$rbp+0]
	#DEBUG_VALUE: _M_realloc_insert:__position <- [DW_OP_constu 56, DW_OP_minus] [$rbp+0]
	#DEBUG_VALUE: __len <- $r12
	#DEBUG_VALUE: __old_finish <- $r15
	#DEBUG_VALUE: __new_start <- undef
	#DEBUG_VALUE: __new_finish <- $rbx
	.loc	6 449 1 is_stmt 1       # /usr/include/c++/9/bits/vector.tcc:449:1
	leaq	(,%r14,8), %rax
	leaq	(%rax,%rax,2), %rdx
	.loc	6 484 1                 # /usr/include/c++/9/bits/vector.tcc:484:1
	movq	%rbx, %r13
	addq	%rdx, %r13
	je	.LBB6_6
.Ltmp73:
# %bb.5:                                # %L.B2095
	#DEBUG_VALUE: __new_finish <- $rbx
	#DEBUG_VALUE: _M_realloc_insert: <- [DW_OP_constu 72, DW_OP_minus] [$rbp+0]
	#DEBUG_VALUE: __elems_before <- $r14
	#DEBUG_VALUE: __old_start <- [DW_OP_constu 64, DW_OP_minus] [$rbp+0]
	#DEBUG_VALUE: _M_realloc_insert:__position <- [DW_OP_constu 56, DW_OP_minus] [$rbp+0]
	#DEBUG_VALUE: __len <- $r12
	#DEBUG_VALUE: __old_finish <- $r15
	.loc	6 505 1                 # /usr/include/c++/9/bits/vector.tcc:505:1
	vmovups	(%r10), %xmm0
	vmovups	%xmm0, (%r13)
	movq	16(%r10), %rax
	movq	%rax, 16(%r13)
.Ltmp74:
.LBB6_6:                                # %L..inline.80205
	#DEBUG_VALUE: __new_finish <- $rbx
	#DEBUG_VALUE: _M_realloc_insert: <- [DW_OP_constu 72, DW_OP_minus] [$rbp+0]
	#DEBUG_VALUE: __elems_before <- $r14
	#DEBUG_VALUE: __old_start <- [DW_OP_constu 64, DW_OP_minus] [$rbp+0]
	#DEBUG_VALUE: _M_realloc_insert:__position <- [DW_OP_constu 56, DW_OP_minus] [$rbp+0]
	#DEBUG_VALUE: __len <- $r12
	#DEBUG_VALUE: __old_finish <- $r15
	#DEBUG_VALUE: __new_finish <- 0
	.loc	6 466 1                 # /usr/include/c++/9/bits/vector.tcc:466:1
	testq	%r14, %r14
	movq	-64(%rbp), %r14         # 8-byte Reload
.Ltmp75:
	jle	.LBB6_8
.Ltmp76:
# %bb.7:                                # %L.B2096
	#DEBUG_VALUE: __new_finish <- 0
	#DEBUG_VALUE: _M_realloc_insert: <- [DW_OP_constu 72, DW_OP_minus] [$rbp+0]
	#DEBUG_VALUE: __old_start <- [DW_OP_constu 64, DW_OP_minus] [$rbp+0]
	#DEBUG_VALUE: _M_realloc_insert:__position <- [DW_OP_constu 56, DW_OP_minus] [$rbp+0]
	#DEBUG_VALUE: __len <- $r12
	#DEBUG_VALUE: __old_finish <- $r15
	movq	%rbx, %rdi
	movq	%r14, %rsi
	callq	memmove
.Ltmp77:
.LBB6_8:                                # %L..inline.80275
	#DEBUG_VALUE: __new_finish <- 0
	#DEBUG_VALUE: _M_realloc_insert: <- [DW_OP_constu 72, DW_OP_minus] [$rbp+0]
	#DEBUG_VALUE: __old_start <- [DW_OP_constu 64, DW_OP_minus] [$rbp+0]
	#DEBUG_VALUE: _M_realloc_insert:__position <- [DW_OP_constu 56, DW_OP_minus] [$rbp+0]
	#DEBUG_VALUE: __len <- $r12
	#DEBUG_VALUE: __old_finish <- $r15
	#DEBUG_VALUE: __new_finish <- $r13
	.loc	6 0 1 is_stmt 0         # /usr/include/c++/9/bits/vector.tcc:0:1
	movq	%rbx, -48(%rbp)         # 8-byte Spill
	.loc	6 464 1 is_stmt 1       # /usr/include/c++/9/bits/vector.tcc:464:1
	addq	$24, %r13
.Ltmp78:
	#DEBUG_VALUE: __new_finish <- $r13
	.loc	6 0 1 is_stmt 0         # /usr/include/c++/9/bits/vector.tcc:0:1
	movq	-56(%rbp), %rsi         # 8-byte Reload
.Ltmp79:
	#DEBUG_VALUE: _M_realloc_insert:__position <- $rsi
	.loc	6 466 1 is_stmt 1       # /usr/include/c++/9/bits/vector.tcc:466:1
	subq	%rsi, %r15
.Ltmp80:
	movq	%r15, %rax
	movabsq	$3074457345618258603, %rcx # imm = 0x2AAAAAAAAAAAAAAB
	imulq	%rcx
	sarq	$2, %rdx
	sarq	$63, %r15
	subq	%r15, %rdx
	leaq	(,%rdx,8), %rax
	leaq	(%rax,%rax,2), %rbx
	testq	%rdx, %rdx
	jle	.LBB6_10
.Ltmp81:
# %bb.9:                                # %L.B2097
	#DEBUG_VALUE: __new_finish <- $r13
	#DEBUG_VALUE: _M_realloc_insert: <- [DW_OP_constu 72, DW_OP_minus] [$rbp+0]
	#DEBUG_VALUE: __old_start <- [DW_OP_constu 64, DW_OP_minus] [$rbp+0]
	#DEBUG_VALUE: __len <- $r12
	#DEBUG_VALUE: _M_realloc_insert:__position <- $rsi
	movq	%r13, %rdi
	movq	%rbx, %rdx
	callq	memmove
.Ltmp82:
.LBB6_10:                               # %L..inline.80353
	#DEBUG_VALUE: __new_finish <- $r13
	#DEBUG_VALUE: _M_realloc_insert: <- [DW_OP_constu 72, DW_OP_minus] [$rbp+0]
	#DEBUG_VALUE: __old_start <- [DW_OP_constu 64, DW_OP_minus] [$rbp+0]
	#DEBUG_VALUE: __len <- $r12
	addq	%rbx, %r13
.Ltmp83:
	#DEBUG_VALUE: __new_finish <- $r13
	.loc	6 500 1                 # /usr/include/c++/9/bits/vector.tcc:500:1
	testq	%r14, %r14
	je	.LBB6_12
.Ltmp84:
# %bb.11:                               # %L.B2100
	#DEBUG_VALUE: __new_finish <- $r13
	#DEBUG_VALUE: _M_realloc_insert: <- [DW_OP_constu 72, DW_OP_minus] [$rbp+0]
	#DEBUG_VALUE: __old_start <- [DW_OP_constu 64, DW_OP_minus] [$rbp+0]
	#DEBUG_VALUE: __len <- $r12
	.loc	6 351 1                 # /usr/include/c++/9/bits/vector.tcc:351:1
	movq	%r14, %rdi
	callq	_ZdlPv
.Ltmp85:
.LBB6_12:                               # %L..inline.80421
	#DEBUG_VALUE: __new_finish <- $r13
	#DEBUG_VALUE: _M_realloc_insert: <- [DW_OP_constu 72, DW_OP_minus] [$rbp+0]
	#DEBUG_VALUE: __old_start <- [DW_OP_constu 64, DW_OP_minus] [$rbp+0]
	#DEBUG_VALUE: __len <- $r12
	.loc	6 0 1 is_stmt 0         # /usr/include/c++/9/bits/vector.tcc:0:1
	movq	-72(%rbp), %rcx         # 8-byte Reload
.Ltmp86:
	#DEBUG_VALUE: _M_realloc_insert: <- $rcx
	movq	-48(%rbp), %rdx         # 8-byte Reload
	.loc	6 502 1 is_stmt 1       # /usr/include/c++/9/bits/vector.tcc:502:1
	movq	%rdx, (%rcx)
	.loc	6 503 1                 # /usr/include/c++/9/bits/vector.tcc:503:1
	movq	%r13, 8(%rcx)
	.loc	6 504 1                 # /usr/include/c++/9/bits/vector.tcc:504:1
	leaq	(%r12,%r12,2), %rax
	leaq	(%rdx,%rax,8), %rax
	movq	%rax, 16(%rcx)
	.loc	6 505 1                 # /usr/include/c++/9/bits/vector.tcc:505:1
	addq	$40, %rsp
	popq	%rbx
	popq	%r12
.Ltmp87:
	popq	%r13
.Ltmp88:
	popq	%r14
	popq	%r15
	popq	%rbp
	.cfi_def_cfa %rsp, 8
	retq
.Ltmp89:
.LBB6_13:                               # %L.B2089
	.cfi_def_cfa %rbp, 16
	#DEBUG_VALUE: _M_realloc_insert:__args <- $r10
	#DEBUG_VALUE:  <- $rdi
	#DEBUG_VALUE: _M_realloc_insert:__position <- $rsi
	#DEBUG_VALUE: _M_realloc_insert: <- $rdi
	.loc	6 1756 1                # /usr/include/c++/9/bits/vector.tcc:1756:1
	movl	$.S55095, %edi
.Ltmp90:
	callq	_ZSt20__throw_length_errorPKc
.Ltmp91:
.Lfunc_end6:
	.size	_ZNSt6vectorISt5arrayIdLm3EESaIS1_EE17_M_realloc_insertIJRKS1_EEEvN9__gnu_cxx17__normal_iteratorIPS1_S3_EEDpOT_, .Lfunc_end6-_ZNSt6vectorISt5arrayIdLm3EESaIS1_EE17_M_realloc_insertIJRKS1_EEEvN9__gnu_cxx17__normal_iteratorIPS1_S3_EEDpOT_
	.cfi_endproc
                                        # -- End function
	.weak	_ZN3MPI8DatatypeD1Ev    # -- Begin function _ZN3MPI8DatatypeD1Ev
	.p2align	4, 0x90
	.type	_ZN3MPI8DatatypeD1Ev,@function
_ZN3MPI8DatatypeD1Ev:                   # @_ZN3MPI8DatatypeD1Ev
.Lfunc_begin7:
	.file	7 "/usr/lib/x86_64-linux-gnu/openmpi/include/openmpi/ompi/mpi/cxx/datatype.h"
	.loc	7 70 0                  # /usr/lib/x86_64-linux-gnu/openmpi/include/openmpi/ompi/mpi/cxx/datatype.h:70:0
	.cfi_startproc
# %bb.0:                                # %L.entry
	#DEBUG_VALUE: ~Datatype: <- $rdi
	#DEBUG_VALUE: ~Datatype: <- $rdi
	pushq	%rbp
	.cfi_def_cfa_offset 16
	.cfi_offset %rbp, -16
	movq	%rsp, %rbp
	.cfi_def_cfa_register %rbp
.Ltmp92:
	#DEBUG_VALUE:  <- $rdi
	#DEBUG_VALUE:  <- $rdi
	.loc	7 70 1 prologue_end     # /usr/lib/x86_64-linux-gnu/openmpi/include/openmpi/ompi/mpi/cxx/datatype.h:70:1
	movq	$_ZTVN3MPI8DatatypeE+16, (%rdi)
	popq	%rbp
	.cfi_def_cfa %rsp, 8
	retq
.Ltmp93:
.Lfunc_end7:
	.size	_ZN3MPI8DatatypeD1Ev, .Lfunc_end7-_ZN3MPI8DatatypeD1Ev
	.cfi_endproc
                                        # -- End function
	.weak	_ZN3MPI8DatatypeD0Ev    # -- Begin function _ZN3MPI8DatatypeD0Ev
	.p2align	4, 0x90
	.type	_ZN3MPI8DatatypeD0Ev,@function
_ZN3MPI8DatatypeD0Ev:                   # @_ZN3MPI8DatatypeD0Ev
.Lfunc_begin8:
	.loc	1 0 0                   # projects/Flowthrough/Flowthrough.cpp:0:0
	.cfi_startproc
# %bb.0:                                # %L.entry
	pushq	%rbp
	.cfi_def_cfa_offset 16
	.cfi_offset %rbp, -16
	movq	%rsp, %rbp
	.cfi_def_cfa_register %rbp
.Ltmp94:
	.loc	1 70 1 prologue_end     # projects/Flowthrough/Flowthrough.cpp:70:1
	movl	$16, %esi
	popq	%rbp
	.cfi_def_cfa %rsp, 8
	jmp	_ZdlPvm                 # TAILCALL
.Ltmp95:
.Lfunc_end8:
	.size	_ZN3MPI8DatatypeD0Ev, .Lfunc_end8-_ZN3MPI8DatatypeD0Ev
	.cfi_endproc
                                        # -- End function
	.weak	_ZNK3MPI8Datatype17Create_contiguousEi # -- Begin function _ZNK3MPI8Datatype17Create_contiguousEi
	.p2align	4, 0x90
	.type	_ZNK3MPI8Datatype17Create_contiguousEi,@function
_ZNK3MPI8Datatype17Create_contiguousEi: # @_ZNK3MPI8Datatype17Create_contiguousEi
.Lfunc_begin9:
	.file	8 "/usr/lib/x86_64-linux-gnu/openmpi/include/openmpi/ompi/mpi/cxx/datatype_inln.h"
	.loc	8 30 0                  # /usr/lib/x86_64-linux-gnu/openmpi/include/openmpi/ompi/mpi/cxx/datatype_inln.h:30:0
	.cfi_startproc
# %bb.0:                                # %L.entry
	#DEBUG_VALUE: Create_contiguous: <- $rsi
	#DEBUG_VALUE: Create_contiguous:count <- $edx
	pushq	%rbp
	.cfi_def_cfa_offset 16
	.cfi_offset %rbp, -16
	movq	%rsp, %rbp
	.cfi_def_cfa_register %rbp
	pushq	%rbx
	pushq	%rax
	.cfi_offset %rbx, -24
	movl	%edx, %eax
	movq	%rdi, %rbx
.Ltmp96:
	#DEBUG_VALUE:  <- $rsi
	#DEBUG_VALUE: count <- $eax
	#DEBUG_VALUE: Create_contiguous:count <- $eax
	#DEBUG_VALUE: Create_contiguous: <- $rsi
	.loc	8 32 1 prologue_end     # /usr/lib/x86_64-linux-gnu/openmpi/include/openmpi/ompi/mpi/cxx/datatype_inln.h:32:1
	movq	8(%rsi), %rsi
.Ltmp97:
	#DEBUG_VALUE: newtype <- [DW_OP_constu 16, DW_OP_minus, DW_OP_deref] $rbp
	.loc	8 0 1 is_stmt 0         # /usr/lib/x86_64-linux-gnu/openmpi/include/openmpi/ompi/mpi/cxx/datatype_inln.h:0:1
	leaq	-16(%rbp), %rdx
	.loc	8 32 1                  # /usr/lib/x86_64-linux-gnu/openmpi/include/openmpi/ompi/mpi/cxx/datatype_inln.h:32:1
	movl	%eax, %edi
.Ltmp98:
	#DEBUG_VALUE: Create_contiguous:count <- $edi
	callq	MPI_Type_contiguous
.Ltmp99:
	.loc	8 33 1 is_stmt 1        # /usr/lib/x86_64-linux-gnu/openmpi/include/openmpi/ompi/mpi/cxx/datatype_inln.h:33:1
	movq	-16(%rbp), %rax
.Ltmp100:
	#DEBUG_VALUE: newtype <- undef
	movq	$_ZTVN3MPI8DatatypeE+16, (%rbx)
	.loc	8 72 1                  # /usr/lib/x86_64-linux-gnu/openmpi/include/openmpi/ompi/mpi/cxx/datatype_inln.h:72:1
	movq	%rax, 8(%rbx)
	.loc	8 34 1                  # /usr/lib/x86_64-linux-gnu/openmpi/include/openmpi/ompi/mpi/cxx/datatype_inln.h:34:1
	movq	%rbx, %rax
	addq	$8, %rsp
	popq	%rbx
	popq	%rbp
	.cfi_def_cfa %rsp, 8
	retq
.Ltmp101:
.Lfunc_end9:
	.size	_ZNK3MPI8Datatype17Create_contiguousEi, .Lfunc_end9-_ZNK3MPI8Datatype17Create_contiguousEi
	.cfi_endproc
                                        # -- End function
	.weak	_ZNK3MPI8Datatype13Create_vectorEiii # -- Begin function _ZNK3MPI8Datatype13Create_vectorEiii
	.p2align	4, 0x90
	.type	_ZNK3MPI8Datatype13Create_vectorEiii,@function
_ZNK3MPI8Datatype13Create_vectorEiii:   # @_ZNK3MPI8Datatype13Create_vectorEiii
.Lfunc_begin10:
	.loc	8 39 0                  # /usr/lib/x86_64-linux-gnu/openmpi/include/openmpi/ompi/mpi/cxx/datatype_inln.h:39:0
	.cfi_startproc
# %bb.0:                                # %L.entry
	#DEBUG_VALUE: Create_vector: <- $rsi
	#DEBUG_VALUE: Create_vector:count <- $edx
	#DEBUG_VALUE: Create_vector:blocklength <- $ecx
	#DEBUG_VALUE: Create_vector:stride <- $r8d
	pushq	%rbp
	.cfi_def_cfa_offset 16
	.cfi_offset %rbp, -16
	movq	%rsp, %rbp
	.cfi_def_cfa_register %rbp
	pushq	%rbx
	pushq	%rax
	.cfi_offset %rbx, -24
	movl	%r8d, %r9d
	movq	%rdi, %rbx
.Ltmp102:
	#DEBUG_VALUE:  <- $rsi
	#DEBUG_VALUE: stride <- $r9d
	#DEBUG_VALUE: blocklength <- $ecx
	#DEBUG_VALUE: count <- $edx
	#DEBUG_VALUE: Create_vector:stride <- $r9d
	#DEBUG_VALUE: Create_vector:blocklength <- $ecx
	#DEBUG_VALUE: Create_vector:count <- $edx
	#DEBUG_VALUE: Create_vector: <- $rsi
	.loc	8 41 1 prologue_end     # /usr/lib/x86_64-linux-gnu/openmpi/include/openmpi/ompi/mpi/cxx/datatype_inln.h:41:1
	movq	8(%rsi), %rax
.Ltmp103:
	#DEBUG_VALUE: newtype <- [DW_OP_constu 16, DW_OP_minus, DW_OP_deref] $rbp
	.loc	8 0 1 is_stmt 0         # /usr/lib/x86_64-linux-gnu/openmpi/include/openmpi/ompi/mpi/cxx/datatype_inln.h:0:1
	leaq	-16(%rbp), %r8
	.loc	8 41 1                  # /usr/lib/x86_64-linux-gnu/openmpi/include/openmpi/ompi/mpi/cxx/datatype_inln.h:41:1
	movl	%edx, %edi
.Ltmp104:
	#DEBUG_VALUE: Create_vector:count <- $edi
	movl	%ecx, %esi
.Ltmp105:
	#DEBUG_VALUE: Create_vector:blocklength <- $esi
	movl	%r9d, %edx
.Ltmp106:
	#DEBUG_VALUE: Create_vector:stride <- $edx
	movq	%rax, %rcx
.Ltmp107:
	callq	MPI_Type_vector
.Ltmp108:
	.loc	8 42 1 is_stmt 1        # /usr/lib/x86_64-linux-gnu/openmpi/include/openmpi/ompi/mpi/cxx/datatype_inln.h:42:1
	movq	-16(%rbp), %rax
.Ltmp109:
	#DEBUG_VALUE: newtype <- undef
	movq	$_ZTVN3MPI8DatatypeE+16, (%rbx)
	.loc	8 72 1                  # /usr/lib/x86_64-linux-gnu/openmpi/include/openmpi/ompi/mpi/cxx/datatype_inln.h:72:1
	movq	%rax, 8(%rbx)
	.loc	8 43 1                  # /usr/lib/x86_64-linux-gnu/openmpi/include/openmpi/ompi/mpi/cxx/datatype_inln.h:43:1
	movq	%rbx, %rax
	addq	$8, %rsp
	popq	%rbx
	popq	%rbp
	.cfi_def_cfa %rsp, 8
	retq
.Ltmp110:
.Lfunc_end10:
	.size	_ZNK3MPI8Datatype13Create_vectorEiii, .Lfunc_end10-_ZNK3MPI8Datatype13Create_vectorEiii
	.cfi_endproc
                                        # -- End function
	.weak	_ZNK3MPI8Datatype14Create_indexedEiPKiS2_ # -- Begin function _ZNK3MPI8Datatype14Create_indexedEiPKiS2_
	.p2align	4, 0x90
	.type	_ZNK3MPI8Datatype14Create_indexedEiPKiS2_,@function
_ZNK3MPI8Datatype14Create_indexedEiPKiS2_: # @_ZNK3MPI8Datatype14Create_indexedEiPKiS2_
.Lfunc_begin11:
	.loc	8 49 0                  # /usr/lib/x86_64-linux-gnu/openmpi/include/openmpi/ompi/mpi/cxx/datatype_inln.h:49:0
	.cfi_startproc
# %bb.0:                                # %L.entry
	#DEBUG_VALUE: Create_indexed: <- $rsi
	#DEBUG_VALUE: Create_indexed:count <- $edx
	#DEBUG_VALUE: Create_indexed:array_of_blocklengths <- $rcx
	#DEBUG_VALUE: Create_indexed:array_of_displacements <- $r8
	pushq	%rbp
	.cfi_def_cfa_offset 16
	.cfi_offset %rbp, -16
	movq	%rsp, %rbp
	.cfi_def_cfa_register %rbp
	pushq	%rbx
	pushq	%rax
	.cfi_offset %rbx, -24
	movq	%r8, %r9
	movq	%rdi, %rbx
.Ltmp111:
	#DEBUG_VALUE:  <- $rsi
	#DEBUG_VALUE: array_of_displacements <- $r9
	#DEBUG_VALUE: array_of_blocklengths <- $rcx
	#DEBUG_VALUE: count <- $edx
	#DEBUG_VALUE: Create_indexed:array_of_displacements <- $r9
	#DEBUG_VALUE: Create_indexed:array_of_blocklengths <- $rcx
	#DEBUG_VALUE: Create_indexed:count <- $edx
	#DEBUG_VALUE: Create_indexed: <- $rsi
	.loc	8 51 1 prologue_end     # /usr/lib/x86_64-linux-gnu/openmpi/include/openmpi/ompi/mpi/cxx/datatype_inln.h:51:1
	movq	8(%rsi), %rax
.Ltmp112:
	#DEBUG_VALUE: newtype <- [DW_OP_constu 16, DW_OP_minus, DW_OP_deref] $rbp
	.loc	8 0 1 is_stmt 0         # /usr/lib/x86_64-linux-gnu/openmpi/include/openmpi/ompi/mpi/cxx/datatype_inln.h:0:1
	leaq	-16(%rbp), %r8
	.loc	8 51 1                  # /usr/lib/x86_64-linux-gnu/openmpi/include/openmpi/ompi/mpi/cxx/datatype_inln.h:51:1
	movl	%edx, %edi
.Ltmp113:
	#DEBUG_VALUE: Create_indexed:count <- $edi
	movq	%rcx, %rsi
.Ltmp114:
	#DEBUG_VALUE: Create_indexed:array_of_blocklengths <- $rsi
	movq	%r9, %rdx
.Ltmp115:
	#DEBUG_VALUE: Create_indexed:array_of_displacements <- $rdx
	movq	%rax, %rcx
.Ltmp116:
	callq	MPI_Type_indexed
.Ltmp117:
	.loc	8 53 1 is_stmt 1        # /usr/lib/x86_64-linux-gnu/openmpi/include/openmpi/ompi/mpi/cxx/datatype_inln.h:53:1
	movq	-16(%rbp), %rax
.Ltmp118:
	#DEBUG_VALUE: newtype <- undef
	movq	$_ZTVN3MPI8DatatypeE+16, (%rbx)
	.loc	8 72 1                  # /usr/lib/x86_64-linux-gnu/openmpi/include/openmpi/ompi/mpi/cxx/datatype_inln.h:72:1
	movq	%rax, 8(%rbx)
	.loc	8 54 1                  # /usr/lib/x86_64-linux-gnu/openmpi/include/openmpi/ompi/mpi/cxx/datatype_inln.h:54:1
	movq	%rbx, %rax
	addq	$8, %rsp
	popq	%rbx
	popq	%rbp
	.cfi_def_cfa %rsp, 8
	retq
.Ltmp119:
.Lfunc_end11:
	.size	_ZNK3MPI8Datatype14Create_indexedEiPKiS2_, .Lfunc_end11-_ZNK3MPI8Datatype14Create_indexedEiPKiS2_
	.cfi_endproc
                                        # -- End function
	.weak	_ZNK3MPI8Datatype15Create_hindexedEiPKiPKl # -- Begin function _ZNK3MPI8Datatype15Create_hindexedEiPKiPKl
	.p2align	4, 0x90
	.type	_ZNK3MPI8Datatype15Create_hindexedEiPKiPKl,@function
_ZNK3MPI8Datatype15Create_hindexedEiPKiPKl: # @_ZNK3MPI8Datatype15Create_hindexedEiPKiPKl
.Lfunc_begin12:
	.loc	8 77 0                  # /usr/lib/x86_64-linux-gnu/openmpi/include/openmpi/ompi/mpi/cxx/datatype_inln.h:77:0
	.cfi_startproc
# %bb.0:                                # %L.entry
	#DEBUG_VALUE: Create_hindexed: <- $rsi
	#DEBUG_VALUE: Create_hindexed:count <- $edx
	#DEBUG_VALUE: Create_hindexed:array_of_blocklengths <- $rcx
	#DEBUG_VALUE: Create_hindexed:array_of_displacements <- $r8
	pushq	%rbp
	.cfi_def_cfa_offset 16
	.cfi_offset %rbp, -16
	movq	%rsp, %rbp
	.cfi_def_cfa_register %rbp
	pushq	%rbx
	pushq	%rax
	.cfi_offset %rbx, -24
	movq	%r8, %r9
	movq	%rdi, %rbx
.Ltmp120:
	#DEBUG_VALUE:  <- $rsi
	#DEBUG_VALUE: array_of_displacements <- $r9
	#DEBUG_VALUE: array_of_blocklengths <- $rcx
	#DEBUG_VALUE: count <- $edx
	#DEBUG_VALUE: Create_hindexed:array_of_displacements <- $r9
	#DEBUG_VALUE: Create_hindexed:array_of_blocklengths <- $rcx
	#DEBUG_VALUE: Create_hindexed:count <- $edx
	#DEBUG_VALUE: Create_hindexed: <- $rsi
	.loc	8 79 1 prologue_end     # /usr/lib/x86_64-linux-gnu/openmpi/include/openmpi/ompi/mpi/cxx/datatype_inln.h:79:1
	movq	8(%rsi), %rax
.Ltmp121:
	#DEBUG_VALUE: newtype <- [DW_OP_constu 16, DW_OP_minus, DW_OP_deref] $rbp
	.loc	8 0 1 is_stmt 0         # /usr/lib/x86_64-linux-gnu/openmpi/include/openmpi/ompi/mpi/cxx/datatype_inln.h:0:1
	leaq	-16(%rbp), %r8
	.loc	8 79 1                  # /usr/lib/x86_64-linux-gnu/openmpi/include/openmpi/ompi/mpi/cxx/datatype_inln.h:79:1
	movl	%edx, %edi
.Ltmp122:
	#DEBUG_VALUE: Create_hindexed:count <- $edi
	movq	%rcx, %rsi
.Ltmp123:
	#DEBUG_VALUE: Create_hindexed:array_of_blocklengths <- $rsi
	movq	%r9, %rdx
.Ltmp124:
	#DEBUG_VALUE: Create_hindexed:array_of_displacements <- $rdx
	movq	%rax, %rcx
.Ltmp125:
	callq	MPI_Type_create_hindexed
.Ltmp126:
	.loc	8 82 1 is_stmt 1        # /usr/lib/x86_64-linux-gnu/openmpi/include/openmpi/ompi/mpi/cxx/datatype_inln.h:82:1
	movq	-16(%rbp), %rax
.Ltmp127:
	#DEBUG_VALUE: newtype <- undef
	movq	$_ZTVN3MPI8DatatypeE+16, (%rbx)
	.loc	8 72 1                  # /usr/lib/x86_64-linux-gnu/openmpi/include/openmpi/ompi/mpi/cxx/datatype_inln.h:72:1
	movq	%rax, 8(%rbx)
	.loc	8 83 1                  # /usr/lib/x86_64-linux-gnu/openmpi/include/openmpi/ompi/mpi/cxx/datatype_inln.h:83:1
	movq	%rbx, %rax
	addq	$8, %rsp
	popq	%rbx
	popq	%rbp
	.cfi_def_cfa %rsp, 8
	retq
.Ltmp128:
.Lfunc_end12:
	.size	_ZNK3MPI8Datatype15Create_hindexedEiPKiPKl, .Lfunc_end12-_ZNK3MPI8Datatype15Create_hindexedEiPKiPKl
	.cfi_endproc
                                        # -- End function
	.weak	_ZNK3MPI8Datatype14Create_hvectorEiil # -- Begin function _ZNK3MPI8Datatype14Create_hvectorEiil
	.p2align	4, 0x90
	.type	_ZNK3MPI8Datatype14Create_hvectorEiil,@function
_ZNK3MPI8Datatype14Create_hvectorEiil:  # @_ZNK3MPI8Datatype14Create_hvectorEiil
.Lfunc_begin13:
	.loc	8 88 0                  # /usr/lib/x86_64-linux-gnu/openmpi/include/openmpi/ompi/mpi/cxx/datatype_inln.h:88:0
	.cfi_startproc
# %bb.0:                                # %L.entry
	#DEBUG_VALUE: Create_hvector: <- $rsi
	#DEBUG_VALUE: Create_hvector:count <- $edx
	#DEBUG_VALUE: Create_hvector:blocklength <- $ecx
	#DEBUG_VALUE: Create_hvector:stride <- $r8
	pushq	%rbp
	.cfi_def_cfa_offset 16
	.cfi_offset %rbp, -16
	movq	%rsp, %rbp
	.cfi_def_cfa_register %rbp
	pushq	%rbx
	pushq	%rax
	.cfi_offset %rbx, -24
	movq	%r8, %r9
	movq	%rdi, %rbx
.Ltmp129:
	#DEBUG_VALUE:  <- $rsi
	#DEBUG_VALUE: stride <- $r9
	#DEBUG_VALUE: blocklength <- $ecx
	#DEBUG_VALUE: count <- $edx
	#DEBUG_VALUE: Create_hvector:stride <- $r9
	#DEBUG_VALUE: Create_hvector:blocklength <- $ecx
	#DEBUG_VALUE: Create_hvector:count <- $edx
	#DEBUG_VALUE: Create_hvector: <- $rsi
	.loc	8 90 1 prologue_end     # /usr/lib/x86_64-linux-gnu/openmpi/include/openmpi/ompi/mpi/cxx/datatype_inln.h:90:1
	movq	8(%rsi), %rax
.Ltmp130:
	#DEBUG_VALUE: newtype <- [DW_OP_constu 16, DW_OP_minus, DW_OP_deref] $rbp
	.loc	8 0 1 is_stmt 0         # /usr/lib/x86_64-linux-gnu/openmpi/include/openmpi/ompi/mpi/cxx/datatype_inln.h:0:1
	leaq	-16(%rbp), %r8
	.loc	8 90 1                  # /usr/lib/x86_64-linux-gnu/openmpi/include/openmpi/ompi/mpi/cxx/datatype_inln.h:90:1
	movl	%edx, %edi
.Ltmp131:
	#DEBUG_VALUE: Create_hvector:count <- $edi
	movl	%ecx, %esi
.Ltmp132:
	#DEBUG_VALUE: Create_hvector:blocklength <- $esi
	movq	%r9, %rdx
.Ltmp133:
	#DEBUG_VALUE: Create_hvector:stride <- $rdx
	movq	%rax, %rcx
.Ltmp134:
	callq	MPI_Type_create_hvector
.Ltmp135:
	.loc	8 93 1 is_stmt 1        # /usr/lib/x86_64-linux-gnu/openmpi/include/openmpi/ompi/mpi/cxx/datatype_inln.h:93:1
	movq	-16(%rbp), %rax
.Ltmp136:
	#DEBUG_VALUE: newtype <- undef
	movq	$_ZTVN3MPI8DatatypeE+16, (%rbx)
	.loc	8 72 1                  # /usr/lib/x86_64-linux-gnu/openmpi/include/openmpi/ompi/mpi/cxx/datatype_inln.h:72:1
	movq	%rax, 8(%rbx)
	.loc	8 94 1                  # /usr/lib/x86_64-linux-gnu/openmpi/include/openmpi/ompi/mpi/cxx/datatype_inln.h:94:1
	movq	%rbx, %rax
	addq	$8, %rsp
	popq	%rbx
	popq	%rbp
	.cfi_def_cfa %rsp, 8
	retq
.Ltmp137:
.Lfunc_end13:
	.size	_ZNK3MPI8Datatype14Create_hvectorEiil, .Lfunc_end13-_ZNK3MPI8Datatype14Create_hvectorEiil
	.cfi_endproc
                                        # -- End function
	.weak	_ZNK3MPI8Datatype20Create_indexed_blockEiiPKi # -- Begin function _ZNK3MPI8Datatype20Create_indexed_blockEiiPKi
	.p2align	4, 0x90
	.type	_ZNK3MPI8Datatype20Create_indexed_blockEiiPKi,@function
_ZNK3MPI8Datatype20Create_indexed_blockEiiPKi: # @_ZNK3MPI8Datatype20Create_indexed_blockEiiPKi
.Lfunc_begin14:
	.loc	8 99 0                  # /usr/lib/x86_64-linux-gnu/openmpi/include/openmpi/ompi/mpi/cxx/datatype_inln.h:99:0
	.cfi_startproc
# %bb.0:                                # %L.entry
	#DEBUG_VALUE: Create_indexed_block: <- $rsi
	#DEBUG_VALUE: Create_indexed_block:count <- $edx
	#DEBUG_VALUE: Create_indexed_block:blocklength <- $ecx
	#DEBUG_VALUE: Create_indexed_block:array_of_displacements <- $r8
	pushq	%rbp
	.cfi_def_cfa_offset 16
	.cfi_offset %rbp, -16
	movq	%rsp, %rbp
	.cfi_def_cfa_register %rbp
	pushq	%rbx
	pushq	%rax
	.cfi_offset %rbx, -24
	movq	%r8, %r9
	movq	%rdi, %rbx
.Ltmp138:
	#DEBUG_VALUE:  <- $rsi
	#DEBUG_VALUE: array_of_displacements <- $r9
	#DEBUG_VALUE: blocklength <- $ecx
	#DEBUG_VALUE: count <- $edx
	#DEBUG_VALUE: Create_indexed_block:array_of_displacements <- $r9
	#DEBUG_VALUE: Create_indexed_block:blocklength <- $ecx
	#DEBUG_VALUE: Create_indexed_block:count <- $edx
	#DEBUG_VALUE: Create_indexed_block: <- $rsi
	.loc	8 101 1 prologue_end    # /usr/lib/x86_64-linux-gnu/openmpi/include/openmpi/ompi/mpi/cxx/datatype_inln.h:101:1
	movq	8(%rsi), %rax
.Ltmp139:
	#DEBUG_VALUE: newtype <- [DW_OP_constu 16, DW_OP_minus, DW_OP_deref] $rbp
	.loc	8 0 1 is_stmt 0         # /usr/lib/x86_64-linux-gnu/openmpi/include/openmpi/ompi/mpi/cxx/datatype_inln.h:0:1
	leaq	-16(%rbp), %r8
	.loc	8 101 1                 # /usr/lib/x86_64-linux-gnu/openmpi/include/openmpi/ompi/mpi/cxx/datatype_inln.h:101:1
	movl	%edx, %edi
.Ltmp140:
	#DEBUG_VALUE: Create_indexed_block:count <- $edi
	movl	%ecx, %esi
.Ltmp141:
	#DEBUG_VALUE: Create_indexed_block:blocklength <- $esi
	movq	%r9, %rdx
.Ltmp142:
	#DEBUG_VALUE: Create_indexed_block:array_of_displacements <- $rdx
	movq	%rax, %rcx
.Ltmp143:
	callq	MPI_Type_create_indexed_block
.Ltmp144:
	.loc	8 103 1 is_stmt 1       # /usr/lib/x86_64-linux-gnu/openmpi/include/openmpi/ompi/mpi/cxx/datatype_inln.h:103:1
	movq	-16(%rbp), %rax
.Ltmp145:
	#DEBUG_VALUE: newtype <- undef
	movq	$_ZTVN3MPI8DatatypeE+16, (%rbx)
	.loc	8 72 1                  # /usr/lib/x86_64-linux-gnu/openmpi/include/openmpi/ompi/mpi/cxx/datatype_inln.h:72:1
	movq	%rax, 8(%rbx)
	.loc	8 104 1                 # /usr/lib/x86_64-linux-gnu/openmpi/include/openmpi/ompi/mpi/cxx/datatype_inln.h:104:1
	movq	%rbx, %rax
	addq	$8, %rsp
	popq	%rbx
	popq	%rbp
	.cfi_def_cfa %rsp, 8
	retq
.Ltmp146:
.Lfunc_end14:
	.size	_ZNK3MPI8Datatype20Create_indexed_blockEiiPKi, .Lfunc_end14-_ZNK3MPI8Datatype20Create_indexed_blockEiiPKi
	.cfi_endproc
                                        # -- End function
	.weak	_ZNK3MPI8Datatype14Create_resizedEll # -- Begin function _ZNK3MPI8Datatype14Create_resizedEll
	.p2align	4, 0x90
	.type	_ZNK3MPI8Datatype14Create_resizedEll,@function
_ZNK3MPI8Datatype14Create_resizedEll:   # @_ZNK3MPI8Datatype14Create_resizedEll
.Lfunc_begin15:
	.loc	8 108 0                 # /usr/lib/x86_64-linux-gnu/openmpi/include/openmpi/ompi/mpi/cxx/datatype_inln.h:108:0
	.cfi_startproc
# %bb.0:                                # %L.entry
	#DEBUG_VALUE: Create_resized: <- $rsi
	#DEBUG_VALUE: Create_resized:lb <- $rdx
	#DEBUG_VALUE: Create_resized:extent <- $rcx
	pushq	%rbp
	.cfi_def_cfa_offset 16
	.cfi_offset %rbp, -16
	movq	%rsp, %rbp
	.cfi_def_cfa_register %rbp
	pushq	%rbx
	pushq	%rax
	.cfi_offset %rbx, -24
	movq	%rdi, %rbx
.Ltmp147:
	#DEBUG_VALUE:  <- $rsi
	#DEBUG_VALUE: extent <- $rcx
	#DEBUG_VALUE: lb <- $rdx
	#DEBUG_VALUE: Create_resized:extent <- $rcx
	#DEBUG_VALUE: Create_resized:lb <- $rdx
	#DEBUG_VALUE: Create_resized: <- $rsi
	.loc	8 111 1 prologue_end    # /usr/lib/x86_64-linux-gnu/openmpi/include/openmpi/ompi/mpi/cxx/datatype_inln.h:111:1
	movq	8(%rsi), %rdi
.Ltmp148:
	#DEBUG_VALUE: newtype <- [DW_OP_constu 16, DW_OP_minus, DW_OP_deref] $rbp
	.loc	8 0 1 is_stmt 0         # /usr/lib/x86_64-linux-gnu/openmpi/include/openmpi/ompi/mpi/cxx/datatype_inln.h:0:1
	leaq	-16(%rbp), %rax
	.loc	8 111 1                 # /usr/lib/x86_64-linux-gnu/openmpi/include/openmpi/ompi/mpi/cxx/datatype_inln.h:111:1
	movq	%rdx, %rsi
.Ltmp149:
	#DEBUG_VALUE: Create_resized:lb <- $rsi
	movq	%rcx, %rdx
.Ltmp150:
	#DEBUG_VALUE: Create_resized:extent <- $rdx
	movq	%rax, %rcx
.Ltmp151:
	callq	MPI_Type_create_resized
.Ltmp152:
	.loc	8 112 1 is_stmt 1       # /usr/lib/x86_64-linux-gnu/openmpi/include/openmpi/ompi/mpi/cxx/datatype_inln.h:112:1
	movq	-16(%rbp), %rax
.Ltmp153:
	#DEBUG_VALUE: newtype <- undef
	movq	$_ZTVN3MPI8DatatypeE+16, (%rbx)
	.loc	8 72 1                  # /usr/lib/x86_64-linux-gnu/openmpi/include/openmpi/ompi/mpi/cxx/datatype_inln.h:72:1
	movq	%rax, 8(%rbx)
	.loc	8 113 1                 # /usr/lib/x86_64-linux-gnu/openmpi/include/openmpi/ompi/mpi/cxx/datatype_inln.h:113:1
	movq	%rbx, %rax
	addq	$8, %rsp
	popq	%rbx
	popq	%rbp
	.cfi_def_cfa %rsp, 8
	retq
.Ltmp154:
.Lfunc_end15:
	.size	_ZNK3MPI8Datatype14Create_resizedEll, .Lfunc_end15-_ZNK3MPI8Datatype14Create_resizedEll
	.cfi_endproc
                                        # -- End function
	.weak	_ZNK3MPI8Datatype8Get_sizeEv # -- Begin function _ZNK3MPI8Datatype8Get_sizeEv
	.p2align	4, 0x90
	.type	_ZNK3MPI8Datatype8Get_sizeEv,@function
_ZNK3MPI8Datatype8Get_sizeEv:           # @_ZNK3MPI8Datatype8Get_sizeEv
.Lfunc_begin16:
	.loc	8 117 0                 # /usr/lib/x86_64-linux-gnu/openmpi/include/openmpi/ompi/mpi/cxx/datatype_inln.h:117:0
	.cfi_startproc
# %bb.0:                                # %L.entry
	#DEBUG_VALUE: Get_size: <- $rdi
	#DEBUG_VALUE: Get_size: <- $rdi
	pushq	%rbp
	.cfi_def_cfa_offset 16
	.cfi_offset %rbp, -16
	movq	%rsp, %rbp
	.cfi_def_cfa_register %rbp
	subq	$16, %rsp
.Ltmp155:
	#DEBUG_VALUE:  <- $rdi
	.loc	8 119 1 prologue_end    # /usr/lib/x86_64-linux-gnu/openmpi/include/openmpi/ompi/mpi/cxx/datatype_inln.h:119:1
	movq	8(%rdi), %rdi
.Ltmp156:
	#DEBUG_VALUE: size <- [DW_OP_constu 4, DW_OP_minus, DW_OP_deref] $rbp
	.loc	8 0 1 is_stmt 0         # /usr/lib/x86_64-linux-gnu/openmpi/include/openmpi/ompi/mpi/cxx/datatype_inln.h:0:1
	leaq	-4(%rbp), %rsi
	.loc	8 119 1                 # /usr/lib/x86_64-linux-gnu/openmpi/include/openmpi/ompi/mpi/cxx/datatype_inln.h:119:1
	callq	MPI_Type_size
	.loc	8 120 1 is_stmt 1       # /usr/lib/x86_64-linux-gnu/openmpi/include/openmpi/ompi/mpi/cxx/datatype_inln.h:120:1
	movl	-4(%rbp), %eax
.Ltmp157:
	#DEBUG_VALUE: size <- $eax
	addq	$16, %rsp
	popq	%rbp
	.cfi_def_cfa %rsp, 8
	retq
.Ltmp158:
.Lfunc_end16:
	.size	_ZNK3MPI8Datatype8Get_sizeEv, .Lfunc_end16-_ZNK3MPI8Datatype8Get_sizeEv
	.cfi_endproc
                                        # -- End function
	.weak	_ZNK3MPI8Datatype10Get_extentERlS1_ # -- Begin function _ZNK3MPI8Datatype10Get_extentERlS1_
	.p2align	4, 0x90
	.type	_ZNK3MPI8Datatype10Get_extentERlS1_,@function
_ZNK3MPI8Datatype10Get_extentERlS1_:    # @_ZNK3MPI8Datatype10Get_extentERlS1_
.Lfunc_begin17:
	.loc	8 125 0                 # /usr/lib/x86_64-linux-gnu/openmpi/include/openmpi/ompi/mpi/cxx/datatype_inln.h:125:0
	.cfi_startproc
# %bb.0:                                # %L.entry
	#DEBUG_VALUE: Get_extent: <- $rdi
	#DEBUG_VALUE: Get_extent: <- $rdi
	#DEBUG_VALUE: Get_extent:lb <- $rsi
	#DEBUG_VALUE: Get_extent:lb <- $rsi
	#DEBUG_VALUE: Get_extent:extent <- $rdx
	#DEBUG_VALUE: Get_extent:extent <- $rdx
	pushq	%rbp
	.cfi_def_cfa_offset 16
	.cfi_offset %rbp, -16
	movq	%rsp, %rbp
	.cfi_def_cfa_register %rbp
.Ltmp159:
	#DEBUG_VALUE:  <- $rdi
	#DEBUG_VALUE:  <- $rdi
	#DEBUG_VALUE: lb <- $rsi
	#DEBUG_VALUE: lb <- $rsi
	#DEBUG_VALUE: extent <- $rdx
	#DEBUG_VALUE: extent <- $rdx
	.loc	8 126 1 prologue_end    # /usr/lib/x86_64-linux-gnu/openmpi/include/openmpi/ompi/mpi/cxx/datatype_inln.h:126:1
	movq	8(%rdi), %rdi
.Ltmp160:
	#DEBUG_VALUE: extent <- $rdx
	#DEBUG_VALUE: Get_extent:extent <- $rdx
	#DEBUG_VALUE: lb <- $rsi
	#DEBUG_VALUE: Get_extent:lb <- $rsi
	popq	%rbp
	.cfi_def_cfa %rsp, 8
	jmp	MPI_Type_get_extent     # TAILCALL
.Ltmp161:
.Lfunc_end17:
	.size	_ZNK3MPI8Datatype10Get_extentERlS1_, .Lfunc_end17-_ZNK3MPI8Datatype10Get_extentERlS1_
	.cfi_endproc
                                        # -- End function
	.weak	_ZNK3MPI8Datatype15Get_true_extentERlS1_ # -- Begin function _ZNK3MPI8Datatype15Get_true_extentERlS1_
	.p2align	4, 0x90
	.type	_ZNK3MPI8Datatype15Get_true_extentERlS1_,@function
_ZNK3MPI8Datatype15Get_true_extentERlS1_: # @_ZNK3MPI8Datatype15Get_true_extentERlS1_
.Lfunc_begin18:
	.loc	8 131 0                 # /usr/lib/x86_64-linux-gnu/openmpi/include/openmpi/ompi/mpi/cxx/datatype_inln.h:131:0
	.cfi_startproc
# %bb.0:                                # %L.entry
	#DEBUG_VALUE: Get_true_extent: <- $rdi
	#DEBUG_VALUE: Get_true_extent: <- $rdi
	#DEBUG_VALUE: Get_true_extent:lb <- $rsi
	#DEBUG_VALUE: Get_true_extent:lb <- $rsi
	#DEBUG_VALUE: Get_true_extent:extent <- $rdx
	#DEBUG_VALUE: Get_true_extent:extent <- $rdx
	pushq	%rbp
	.cfi_def_cfa_offset 16
	.cfi_offset %rbp, -16
	movq	%rsp, %rbp
	.cfi_def_cfa_register %rbp
.Ltmp162:
	#DEBUG_VALUE:  <- $rdi
	#DEBUG_VALUE:  <- $rdi
	#DEBUG_VALUE: lb <- $rsi
	#DEBUG_VALUE: lb <- $rsi
	#DEBUG_VALUE: extent <- $rdx
	#DEBUG_VALUE: extent <- $rdx
	.loc	8 132 1 prologue_end    # /usr/lib/x86_64-linux-gnu/openmpi/include/openmpi/ompi/mpi/cxx/datatype_inln.h:132:1
	movq	8(%rdi), %rdi
.Ltmp163:
	#DEBUG_VALUE: extent <- $rdx
	#DEBUG_VALUE: Get_true_extent:extent <- $rdx
	#DEBUG_VALUE: lb <- $rsi
	#DEBUG_VALUE: Get_true_extent:lb <- $rsi
	popq	%rbp
	.cfi_def_cfa %rsp, 8
	jmp	MPI_Type_get_true_extent # TAILCALL
.Ltmp164:
.Lfunc_end18:
	.size	_ZNK3MPI8Datatype15Get_true_extentERlS1_, .Lfunc_end18-_ZNK3MPI8Datatype15Get_true_extentERlS1_
	.cfi_endproc
                                        # -- End function
	.weak	_ZN3MPI8Datatype6CommitEv # -- Begin function _ZN3MPI8Datatype6CommitEv
	.p2align	4, 0x90
	.type	_ZN3MPI8Datatype6CommitEv,@function
_ZN3MPI8Datatype6CommitEv:              # @_ZN3MPI8Datatype6CommitEv
.Lfunc_begin19:
	.loc	8 137 0                 # /usr/lib/x86_64-linux-gnu/openmpi/include/openmpi/ompi/mpi/cxx/datatype_inln.h:137:0
	.cfi_startproc
# %bb.0:                                # %L.entry
	#DEBUG_VALUE: Commit: <- $rdi
	#DEBUG_VALUE: Commit: <- $rdi
	pushq	%rbp
	.cfi_def_cfa_offset 16
	.cfi_offset %rbp, -16
	movq	%rsp, %rbp
	.cfi_def_cfa_register %rbp
.Ltmp165:
	#DEBUG_VALUE:  <- $rdi
	#DEBUG_VALUE:  <- $rdi
	.loc	8 138 1 prologue_end    # /usr/lib/x86_64-linux-gnu/openmpi/include/openmpi/ompi/mpi/cxx/datatype_inln.h:138:1
	addq	$8, %rdi
.Ltmp166:
	popq	%rbp
	.cfi_def_cfa %rsp, 8
	jmp	MPI_Type_commit         # TAILCALL
.Ltmp167:
.Lfunc_end19:
	.size	_ZN3MPI8Datatype6CommitEv, .Lfunc_end19-_ZN3MPI8Datatype6CommitEv
	.cfi_endproc
                                        # -- End function
	.weak	_ZNK3MPI8Datatype4PackEPKviPviRiRKNS_4CommE # -- Begin function _ZNK3MPI8Datatype4PackEPKviPviRiRKNS_4CommE
	.p2align	4, 0x90
	.type	_ZNK3MPI8Datatype4PackEPKviPviRiRKNS_4CommE,@function
_ZNK3MPI8Datatype4PackEPKviPviRiRKNS_4CommE: # @_ZNK3MPI8Datatype4PackEPKviPviRiRKNS_4CommE
.Lfunc_begin20:
	.loc	8 145 0                 # /usr/lib/x86_64-linux-gnu/openmpi/include/openmpi/ompi/mpi/cxx/datatype_inln.h:145:0
	.cfi_startproc
# %bb.0:                                # %L.entry
	#DEBUG_VALUE: Pack: <- $rdi
	#DEBUG_VALUE: Pack:inbuf <- $rsi
	#DEBUG_VALUE: Pack:incount <- $edx
	#DEBUG_VALUE: Pack:outbuf <- $rcx
	#DEBUG_VALUE: Pack:outsize <- $r8d
	#DEBUG_VALUE: Pack:position <- $r9
	pushq	%rbp
	.cfi_def_cfa_offset 16
	.cfi_offset %rbp, -16
	movq	%rsp, %rbp
	.cfi_def_cfa_register %rbp
	subq	$16, %rsp
.Ltmp168:
	#DEBUG_VALUE:  <- $rdi
	#DEBUG_VALUE: inbuf <- $rsi
	#DEBUG_VALUE: incount <- $edx
	#DEBUG_VALUE: outbuf <- $rcx
	#DEBUG_VALUE: outsize <- $r8d
	#DEBUG_VALUE: position <- $r9
	movq	16(%rbp), %r10
.Ltmp169:
	#DEBUG_VALUE: comm <- [DW_OP_plus_uconst 16] [$rbp+0]
	#DEBUG_VALUE: Pack:comm <- [DW_OP_plus_uconst 16] [$rbp+0]
	#DEBUG_VALUE: position <- $r9
	#DEBUG_VALUE: Pack:position <- $r9
	#DEBUG_VALUE: outsize <- $r8d
	#DEBUG_VALUE: Pack:outsize <- $r8d
	#DEBUG_VALUE: outbuf <- $rcx
	#DEBUG_VALUE: Pack:outbuf <- $rcx
	#DEBUG_VALUE: incount <- $edx
	#DEBUG_VALUE: Pack:incount <- $edx
	#DEBUG_VALUE: inbuf <- $rsi
	#DEBUG_VALUE: Pack:inbuf <- $rsi
	#DEBUG_VALUE:  <- $rdi
	#DEBUG_VALUE: Pack: <- $rdi
	.loc	8 80 1 prologue_end     # /usr/lib/x86_64-linux-gnu/openmpi/include/openmpi/ompi/mpi/cxx/datatype_inln.h:80:1
	movq	8(%rdi), %rax
	movq	8(%r10), %rdi
.Ltmp170:
	movq	%rdi, (%rsp)
	movq	%rsi, %rdi
.Ltmp171:
	#DEBUG_VALUE: inbuf <- $rdi
	#DEBUG_VALUE: Pack:inbuf <- $rdi
	movl	%edx, %esi
.Ltmp172:
	#DEBUG_VALUE: incount <- $esi
	#DEBUG_VALUE: Pack:incount <- $esi
	movq	%rax, %rdx
	#DEBUG_VALUE: position <- $r9
	#DEBUG_VALUE: Pack:position <- $r9
	#DEBUG_VALUE: outsize <- $r8d
	#DEBUG_VALUE: Pack:outsize <- $r8d
	#DEBUG_VALUE: outbuf <- $rcx
	#DEBUG_VALUE: Pack:outbuf <- $rcx
	callq	MPI_Pack
.Ltmp173:
	.loc	8 148 1                 # /usr/lib/x86_64-linux-gnu/openmpi/include/openmpi/ompi/mpi/cxx/datatype_inln.h:148:1
	addq	$16, %rsp
	popq	%rbp
	.cfi_def_cfa %rsp, 8
	retq
.Ltmp174:
.Lfunc_end20:
	.size	_ZNK3MPI8Datatype4PackEPKviPviRiRKNS_4CommE, .Lfunc_end20-_ZNK3MPI8Datatype4PackEPKviPviRiRKNS_4CommE
	.cfi_endproc
                                        # -- End function
	.weak	_ZNK3MPI8Datatype6UnpackEPKviPviRiRKNS_4CommE # -- Begin function _ZNK3MPI8Datatype6UnpackEPKviPviRiRKNS_4CommE
	.p2align	4, 0x90
	.type	_ZNK3MPI8Datatype6UnpackEPKviPviRiRKNS_4CommE,@function
_ZNK3MPI8Datatype6UnpackEPKviPviRiRKNS_4CommE: # @_ZNK3MPI8Datatype6UnpackEPKviPviRiRKNS_4CommE
.Lfunc_begin21:
	.loc	8 154 0                 # /usr/lib/x86_64-linux-gnu/openmpi/include/openmpi/ompi/mpi/cxx/datatype_inln.h:154:0
	.cfi_startproc
# %bb.0:                                # %L.entry
	#DEBUG_VALUE: Unpack: <- $rdi
	#DEBUG_VALUE: Unpack:inbuf <- $rsi
	#DEBUG_VALUE: Unpack:insize <- $edx
	#DEBUG_VALUE: Unpack:outbuf <- $rcx
	#DEBUG_VALUE: Unpack:outcount <- $r8d
	#DEBUG_VALUE: Unpack:position <- $r9
	pushq	%rbp
	.cfi_def_cfa_offset 16
	.cfi_offset %rbp, -16
	movq	%rsp, %rbp
	.cfi_def_cfa_register %rbp
	subq	$16, %rsp
.Ltmp175:
	#DEBUG_VALUE:  <- $rdi
	#DEBUG_VALUE: inbuf <- $rsi
	#DEBUG_VALUE: insize <- $edx
	#DEBUG_VALUE: outbuf <- $rcx
	#DEBUG_VALUE: outcount <- $r8d
	#DEBUG_VALUE: position <- $r9
	movq	%r9, %rax
	movq	16(%rbp), %r10
.Ltmp176:
	#DEBUG_VALUE: comm <- [DW_OP_plus_uconst 16] [$rbp+0]
	#DEBUG_VALUE: Unpack:comm <- [DW_OP_plus_uconst 16] [$rbp+0]
	#DEBUG_VALUE: position <- $rax
	#DEBUG_VALUE: Unpack:position <- $rax
	#DEBUG_VALUE: outcount <- $r8d
	#DEBUG_VALUE: Unpack:outcount <- $r8d
	#DEBUG_VALUE: outbuf <- $rcx
	#DEBUG_VALUE: Unpack:outbuf <- $rcx
	#DEBUG_VALUE: insize <- $edx
	#DEBUG_VALUE: Unpack:insize <- $edx
	#DEBUG_VALUE: inbuf <- $rsi
	#DEBUG_VALUE: Unpack:inbuf <- $rsi
	#DEBUG_VALUE:  <- $rdi
	#DEBUG_VALUE: Unpack: <- $rdi
	.loc	8 80 1 prologue_end     # /usr/lib/x86_64-linux-gnu/openmpi/include/openmpi/ompi/mpi/cxx/datatype_inln.h:80:1
	movq	8(%rdi), %r9
	movq	8(%r10), %rdi
.Ltmp177:
	movq	%rdi, (%rsp)
	movq	%rsi, %rdi
.Ltmp178:
	#DEBUG_VALUE: inbuf <- $rdi
	#DEBUG_VALUE: Unpack:inbuf <- $rdi
	movl	%edx, %esi
.Ltmp179:
	#DEBUG_VALUE: insize <- $esi
	#DEBUG_VALUE: Unpack:insize <- $esi
	movq	%rax, %rdx
.Ltmp180:
	#DEBUG_VALUE: position <- $rdx
	#DEBUG_VALUE: Unpack:position <- $rdx
	#DEBUG_VALUE: outcount <- $r8d
	#DEBUG_VALUE: Unpack:outcount <- $r8d
	#DEBUG_VALUE: outbuf <- $rcx
	#DEBUG_VALUE: Unpack:outbuf <- $rcx
	callq	MPI_Unpack
.Ltmp181:
	.loc	8 157 1                 # /usr/lib/x86_64-linux-gnu/openmpi/include/openmpi/ompi/mpi/cxx/datatype_inln.h:157:1
	addq	$16, %rsp
	popq	%rbp
	.cfi_def_cfa %rsp, 8
	retq
.Ltmp182:
.Lfunc_end21:
	.size	_ZNK3MPI8Datatype6UnpackEPKviPviRiRKNS_4CommE, .Lfunc_end21-_ZNK3MPI8Datatype6UnpackEPKviPviRiRKNS_4CommE
	.cfi_endproc
                                        # -- End function
	.weak	_ZNK3MPI8Datatype9Pack_sizeEiRKNS_4CommE # -- Begin function _ZNK3MPI8Datatype9Pack_sizeEiRKNS_4CommE
	.p2align	4, 0x90
	.type	_ZNK3MPI8Datatype9Pack_sizeEiRKNS_4CommE,@function
_ZNK3MPI8Datatype9Pack_sizeEiRKNS_4CommE: # @_ZNK3MPI8Datatype9Pack_sizeEiRKNS_4CommE
.Lfunc_begin22:
	.loc	8 161 0                 # /usr/lib/x86_64-linux-gnu/openmpi/include/openmpi/ompi/mpi/cxx/datatype_inln.h:161:0
	.cfi_startproc
# %bb.0:                                # %L.entry
	#DEBUG_VALUE: Pack_size: <- $rdi
	#DEBUG_VALUE: Pack_size:incount <- $esi
	#DEBUG_VALUE: Pack_size:comm <- $rdx
	pushq	%rbp
	.cfi_def_cfa_offset 16
	.cfi_offset %rbp, -16
	movq	%rsp, %rbp
	.cfi_def_cfa_register %rbp
	subq	$16, %rsp
	movl	%esi, %eax
.Ltmp183:
	#DEBUG_VALUE: comm <- $rdx
	#DEBUG_VALUE: incount <- $eax
	#DEBUG_VALUE:  <- $rdi
	#DEBUG_VALUE: Pack_size:comm <- $rdx
	#DEBUG_VALUE: Pack_size:incount <- $eax
	#DEBUG_VALUE: Pack_size: <- $rdi
	.loc	8 80 1 prologue_end     # /usr/lib/x86_64-linux-gnu/openmpi/include/openmpi/ompi/mpi/cxx/datatype_inln.h:80:1
	movq	8(%rdi), %rsi
	movq	8(%rdx), %rdx
.Ltmp184:
	#DEBUG_VALUE: size <- [DW_OP_constu 4, DW_OP_minus, DW_OP_deref] $rbp
	.loc	8 0 1 is_stmt 0         # /usr/lib/x86_64-linux-gnu/openmpi/include/openmpi/ompi/mpi/cxx/datatype_inln.h:0:1
	leaq	-4(%rbp), %rcx
	.loc	8 80 1                  # /usr/lib/x86_64-linux-gnu/openmpi/include/openmpi/ompi/mpi/cxx/datatype_inln.h:80:1
	movl	%eax, %edi
.Ltmp185:
	#DEBUG_VALUE: Pack_size:incount <- $edi
	callq	MPI_Pack_size
.Ltmp186:
	.loc	8 164 1 is_stmt 1       # /usr/lib/x86_64-linux-gnu/openmpi/include/openmpi/ompi/mpi/cxx/datatype_inln.h:164:1
	movl	-4(%rbp), %eax
.Ltmp187:
	#DEBUG_VALUE: size <- $eax
	addq	$16, %rsp
	popq	%rbp
	.cfi_def_cfa %rsp, 8
	retq
.Ltmp188:
.Lfunc_end22:
	.size	_ZNK3MPI8Datatype9Pack_sizeEiRKNS_4CommE, .Lfunc_end22-_ZNK3MPI8Datatype9Pack_sizeEiRKNS_4CommE
	.cfi_endproc
                                        # -- End function
	.weak	_ZNK3MPI8Datatype13Pack_externalEPKcPKviPvlRl # -- Begin function _ZNK3MPI8Datatype13Pack_externalEPKcPKviPvlRl
	.p2align	4, 0x90
	.type	_ZNK3MPI8Datatype13Pack_externalEPKcPKviPvlRl,@function
_ZNK3MPI8Datatype13Pack_externalEPKcPKviPvlRl: # @_ZNK3MPI8Datatype13Pack_externalEPKcPKviPvlRl
.Lfunc_begin23:
	.loc	8 170 0                 # /usr/lib/x86_64-linux-gnu/openmpi/include/openmpi/ompi/mpi/cxx/datatype_inln.h:170:0
	.cfi_startproc
# %bb.0:                                # %L.entry
	#DEBUG_VALUE: Pack_external: <- $rdi
	#DEBUG_VALUE: Pack_external: <- $rdi
	#DEBUG_VALUE: Pack_external:datarep <- $rsi
	#DEBUG_VALUE: Pack_external:datarep <- $rsi
	#DEBUG_VALUE: Pack_external:inbuf <- $rdx
	#DEBUG_VALUE: Pack_external:inbuf <- $rdx
	#DEBUG_VALUE: Pack_external:incount <- $ecx
	#DEBUG_VALUE: Pack_external:incount <- $ecx
	#DEBUG_VALUE: Pack_external:outbuf <- $r8
	#DEBUG_VALUE: Pack_external:outbuf <- $r8
	#DEBUG_VALUE: Pack_external:outsize <- $r9
	#DEBUG_VALUE: Pack_external:outsize <- $r9
	pushq	%rbp
	.cfi_def_cfa_offset 16
	.cfi_offset %rbp, -16
	movq	%rsp, %rbp
	.cfi_def_cfa_register %rbp
.Ltmp189:
	#DEBUG_VALUE:  <- $rdi
	#DEBUG_VALUE:  <- $rdi
	#DEBUG_VALUE: datarep <- $rsi
	#DEBUG_VALUE: datarep <- $rsi
	#DEBUG_VALUE: inbuf <- $rdx
	#DEBUG_VALUE: inbuf <- $rdx
	#DEBUG_VALUE: incount <- $ecx
	#DEBUG_VALUE: incount <- $ecx
	#DEBUG_VALUE: outbuf <- $r8
	#DEBUG_VALUE: outbuf <- $r8
	#DEBUG_VALUE: outsize <- $r9
	#DEBUG_VALUE: outsize <- $r9
	#DEBUG_VALUE: Pack_external:position <- [DW_OP_plus_uconst 16] [$rbp+0]
	#DEBUG_VALUE: position <- [DW_OP_plus_uconst 16] [$rbp+0]
	.loc	8 171 1 prologue_end    # /usr/lib/x86_64-linux-gnu/openmpi/include/openmpi/ompi/mpi/cxx/datatype_inln.h:171:1
	movq	8(%rdi), %rax
	movq	%rsi, %rdi
.Ltmp190:
	#DEBUG_VALUE: datarep <- $rdi
	#DEBUG_VALUE: Pack_external:datarep <- $rdi
	movq	%rdx, %rsi
.Ltmp191:
	#DEBUG_VALUE: inbuf <- $rsi
	#DEBUG_VALUE: Pack_external:inbuf <- $rsi
	movl	%ecx, %edx
.Ltmp192:
	#DEBUG_VALUE: incount <- $edx
	#DEBUG_VALUE: Pack_external:incount <- $edx
	movq	%rax, %rcx
	#DEBUG_VALUE: outsize <- $r9
	#DEBUG_VALUE: Pack_external:outsize <- $r9
	#DEBUG_VALUE: outbuf <- $r8
	#DEBUG_VALUE: Pack_external:outbuf <- $r8
	popq	%rbp
	.cfi_def_cfa %rsp, 8
	jmp	MPI_Pack_external       # TAILCALL
.Ltmp193:
.Lfunc_end23:
	.size	_ZNK3MPI8Datatype13Pack_externalEPKcPKviPvlRl, .Lfunc_end23-_ZNK3MPI8Datatype13Pack_externalEPKcPKviPvlRl
	.cfi_endproc
                                        # -- End function
	.weak	_ZNK3MPI8Datatype18Pack_external_sizeEPKci # -- Begin function _ZNK3MPI8Datatype18Pack_external_sizeEPKci
	.p2align	4, 0x90
	.type	_ZNK3MPI8Datatype18Pack_external_sizeEPKci,@function
_ZNK3MPI8Datatype18Pack_external_sizeEPKci: # @_ZNK3MPI8Datatype18Pack_external_sizeEPKci
.Lfunc_begin24:
	.loc	8 177 0                 # /usr/lib/x86_64-linux-gnu/openmpi/include/openmpi/ompi/mpi/cxx/datatype_inln.h:177:0
	.cfi_startproc
# %bb.0:                                # %L.entry
	#DEBUG_VALUE: Pack_external_size: <- $rdi
	#DEBUG_VALUE: Pack_external_size: <- $rdi
	#DEBUG_VALUE: Pack_external_size:datarep <- $rsi
	#DEBUG_VALUE: Pack_external_size:datarep <- $rsi
	#DEBUG_VALUE: Pack_external_size:incount <- $edx
	#DEBUG_VALUE: Pack_external_size:incount <- $edx
	pushq	%rbp
	.cfi_def_cfa_offset 16
	.cfi_offset %rbp, -16
	movq	%rsp, %rbp
	.cfi_def_cfa_register %rbp
	subq	$16, %rsp
.Ltmp194:
	#DEBUG_VALUE:  <- $rdi
	#DEBUG_VALUE: datarep <- $rsi
	#DEBUG_VALUE: incount <- $edx
	.loc	8 179 1 prologue_end    # /usr/lib/x86_64-linux-gnu/openmpi/include/openmpi/ompi/mpi/cxx/datatype_inln.h:179:1
	movq	8(%rdi), %rax
.Ltmp195:
	#DEBUG_VALUE: addr <- [DW_OP_constu 8, DW_OP_minus, DW_OP_deref] $rbp
	.loc	8 0 1 is_stmt 0         # /usr/lib/x86_64-linux-gnu/openmpi/include/openmpi/ompi/mpi/cxx/datatype_inln.h:0:1
	leaq	-8(%rbp), %rcx
	.loc	8 179 1                 # /usr/lib/x86_64-linux-gnu/openmpi/include/openmpi/ompi/mpi/cxx/datatype_inln.h:179:1
	movq	%rsi, %rdi
.Ltmp196:
	#DEBUG_VALUE: Pack_external_size:datarep <- $rdi
	movl	%edx, %esi
.Ltmp197:
	#DEBUG_VALUE: Pack_external_size:incount <- $esi
	movq	%rax, %rdx
.Ltmp198:
	callq	MPI_Pack_external_size
.Ltmp199:
	.loc	8 180 1 is_stmt 1       # /usr/lib/x86_64-linux-gnu/openmpi/include/openmpi/ompi/mpi/cxx/datatype_inln.h:180:1
	movq	-8(%rbp), %rax
.Ltmp200:
	#DEBUG_VALUE: addr <- $rax
	addq	$16, %rsp
	popq	%rbp
	.cfi_def_cfa %rsp, 8
	retq
.Ltmp201:
.Lfunc_end24:
	.size	_ZNK3MPI8Datatype18Pack_external_sizeEPKci, .Lfunc_end24-_ZNK3MPI8Datatype18Pack_external_sizeEPKci
	.cfi_endproc
                                        # -- End function
	.weak	_ZNK3MPI8Datatype15Unpack_externalEPKcPKvlRlPvi # -- Begin function _ZNK3MPI8Datatype15Unpack_externalEPKcPKvlRlPvi
	.p2align	4, 0x90
	.type	_ZNK3MPI8Datatype15Unpack_externalEPKcPKvlRlPvi,@function
_ZNK3MPI8Datatype15Unpack_externalEPKcPKvlRlPvi: # @_ZNK3MPI8Datatype15Unpack_externalEPKcPKvlRlPvi
.Lfunc_begin25:
	.loc	8 186 0                 # /usr/lib/x86_64-linux-gnu/openmpi/include/openmpi/ompi/mpi/cxx/datatype_inln.h:186:0
	.cfi_startproc
# %bb.0:                                # %L.entry
	#DEBUG_VALUE: Unpack_external: <- $rdi
	#DEBUG_VALUE: Unpack_external:datarep <- $rsi
	#DEBUG_VALUE: Unpack_external:inbuf <- $rdx
	#DEBUG_VALUE: Unpack_external:insize <- $rcx
	#DEBUG_VALUE: Unpack_external:position <- $r8
	#DEBUG_VALUE: Unpack_external:outbuf <- $r9
	pushq	%rbp
	.cfi_def_cfa_offset 16
	.cfi_offset %rbp, -16
	movq	%rsp, %rbp
	.cfi_def_cfa_register %rbp
	subq	$16, %rsp
.Ltmp202:
	#DEBUG_VALUE:  <- $rdi
	#DEBUG_VALUE: datarep <- $rsi
	#DEBUG_VALUE: inbuf <- $rdx
	#DEBUG_VALUE: insize <- $rcx
	#DEBUG_VALUE: position <- $r8
	#DEBUG_VALUE: outbuf <- $r9
	movq	%r9, %rax
	movl	16(%rbp), %r9d
.Ltmp203:
	#DEBUG_VALUE: outcount <- [DW_OP_plus_uconst 16] [$rbp+0]
	#DEBUG_VALUE: Unpack_external:outcount <- [DW_OP_plus_uconst 16] [$rbp+0]
	#DEBUG_VALUE: outbuf <- $rax
	#DEBUG_VALUE: Unpack_external:outbuf <- $rax
	#DEBUG_VALUE: position <- $r8
	#DEBUG_VALUE: Unpack_external:position <- $r8
	#DEBUG_VALUE: insize <- $rcx
	#DEBUG_VALUE: Unpack_external:insize <- $rcx
	#DEBUG_VALUE: inbuf <- $rdx
	#DEBUG_VALUE: Unpack_external:inbuf <- $rdx
	#DEBUG_VALUE: datarep <- $rsi
	#DEBUG_VALUE: Unpack_external:datarep <- $rsi
	#DEBUG_VALUE:  <- $rdi
	#DEBUG_VALUE: Unpack_external: <- $rdi
	.loc	8 187 1 prologue_end    # /usr/lib/x86_64-linux-gnu/openmpi/include/openmpi/ompi/mpi/cxx/datatype_inln.h:187:1
	movq	8(%rdi), %rdi
.Ltmp204:
	movq	%rdi, (%rsp)
	movq	%rsi, %rdi
.Ltmp205:
	#DEBUG_VALUE: datarep <- $rdi
	#DEBUG_VALUE: Unpack_external:datarep <- $rdi
	movq	%rdx, %rsi
.Ltmp206:
	#DEBUG_VALUE: inbuf <- $rsi
	#DEBUG_VALUE: Unpack_external:inbuf <- $rsi
	movq	%rcx, %rdx
.Ltmp207:
	#DEBUG_VALUE: insize <- $rdx
	#DEBUG_VALUE: Unpack_external:insize <- $rdx
	movq	%r8, %rcx
.Ltmp208:
	#DEBUG_VALUE: position <- $rcx
	#DEBUG_VALUE: Unpack_external:position <- $rcx
	movq	%rax, %r8
.Ltmp209:
	#DEBUG_VALUE: outbuf <- $r8
	#DEBUG_VALUE: Unpack_external:outbuf <- $r8
	callq	MPI_Unpack_external
.Ltmp210:
	.loc	8 189 1                 # /usr/lib/x86_64-linux-gnu/openmpi/include/openmpi/ompi/mpi/cxx/datatype_inln.h:189:1
	addq	$16, %rsp
	popq	%rbp
	.cfi_def_cfa %rsp, 8
	retq
.Ltmp211:
.Lfunc_end25:
	.size	_ZNK3MPI8Datatype15Unpack_externalEPKcPKvlRlPvi, .Lfunc_end25-_ZNK3MPI8Datatype15Unpack_externalEPKcPKvlRlPvi
	.cfi_endproc
                                        # -- End function
	.weak	_ZNK3MPI8Datatype15Create_subarrayEiPKiS2_S2_i # -- Begin function _ZNK3MPI8Datatype15Create_subarrayEiPKiS2_S2_i
	.p2align	4, 0x90
	.type	_ZNK3MPI8Datatype15Create_subarrayEiPKiS2_S2_i,@function
_ZNK3MPI8Datatype15Create_subarrayEiPKiS2_S2_i: # @_ZNK3MPI8Datatype15Create_subarrayEiPKiS2_S2_i
.Lfunc_begin26:
	.loc	8 200 0                 # /usr/lib/x86_64-linux-gnu/openmpi/include/openmpi/ompi/mpi/cxx/datatype_inln.h:200:0
	.cfi_startproc
# %bb.0:                                # %L.entry
	#DEBUG_VALUE: Create_subarray: <- $rsi
	#DEBUG_VALUE: Create_subarray:ndims <- $edx
	#DEBUG_VALUE: Create_subarray:array_of_sizes <- $rcx
	#DEBUG_VALUE: Create_subarray:array_of_subsizes <- $r8
	#DEBUG_VALUE: Create_subarray:array_of_starts <- $r9
	pushq	%rbp
	.cfi_def_cfa_offset 16
	.cfi_offset %rbp, -16
	movq	%rsp, %rbp
	.cfi_def_cfa_register %rbp
	pushq	%rbx
	subq	$24, %rsp
	.cfi_offset %rbx, -24
	movq	%r9, %r10
	movq	%r8, %rax
	movq	%rdi, %rbx
	movl	16(%rbp), %r8d
.Ltmp212:
	#DEBUG_VALUE:  <- $rsi
	#DEBUG_VALUE: order <- $r8d
	#DEBUG_VALUE: array_of_starts <- $r10
	#DEBUG_VALUE: array_of_subsizes <- $rax
	#DEBUG_VALUE: array_of_sizes <- $rcx
	#DEBUG_VALUE: ndims <- $edx
	#DEBUG_VALUE: Create_subarray:order <- [DW_OP_plus_uconst 16] [$rbp+0]
	#DEBUG_VALUE: Create_subarray:array_of_starts <- $r10
	#DEBUG_VALUE: Create_subarray:array_of_subsizes <- $rax
	#DEBUG_VALUE: Create_subarray:array_of_sizes <- $rcx
	#DEBUG_VALUE: Create_subarray:ndims <- $edx
	#DEBUG_VALUE: Create_subarray: <- $rsi
	.loc	8 202 1 prologue_end    # /usr/lib/x86_64-linux-gnu/openmpi/include/openmpi/ompi/mpi/cxx/datatype_inln.h:202:1
	movq	8(%rsi), %r9
.Ltmp213:
	#DEBUG_VALUE: type <- [DW_OP_constu 16, DW_OP_minus, DW_OP_deref] $rbp
	.loc	8 0 1 is_stmt 0         # /usr/lib/x86_64-linux-gnu/openmpi/include/openmpi/ompi/mpi/cxx/datatype_inln.h:0:1
	leaq	-16(%rbp), %rsi
.Ltmp214:
	.loc	8 202 1                 # /usr/lib/x86_64-linux-gnu/openmpi/include/openmpi/ompi/mpi/cxx/datatype_inln.h:202:1
	movq	%rsi, (%rsp)
	movl	%edx, %edi
.Ltmp215:
	#DEBUG_VALUE: Create_subarray:ndims <- $edi
	movq	%rcx, %rsi
.Ltmp216:
	#DEBUG_VALUE: Create_subarray:array_of_sizes <- $rsi
	movq	%rax, %rdx
.Ltmp217:
	#DEBUG_VALUE: Create_subarray:array_of_subsizes <- $rdx
	movq	%r10, %rcx
.Ltmp218:
	#DEBUG_VALUE: Create_subarray:array_of_starts <- $rcx
	callq	MPI_Type_create_subarray
.Ltmp219:
	.loc	8 206 1 is_stmt 1       # /usr/lib/x86_64-linux-gnu/openmpi/include/openmpi/ompi/mpi/cxx/datatype_inln.h:206:1
	movq	-16(%rbp), %rax
.Ltmp220:
	#DEBUG_VALUE: type <- undef
	movq	$_ZTVN3MPI8DatatypeE+16, (%rbx)
	.loc	8 72 1                  # /usr/lib/x86_64-linux-gnu/openmpi/include/openmpi/ompi/mpi/cxx/datatype_inln.h:72:1
	movq	%rax, 8(%rbx)
	.loc	8 207 1                 # /usr/lib/x86_64-linux-gnu/openmpi/include/openmpi/ompi/mpi/cxx/datatype_inln.h:207:1
	movq	%rbx, %rax
	addq	$24, %rsp
	popq	%rbx
	popq	%rbp
	.cfi_def_cfa %rsp, 8
	retq
.Ltmp221:
.Lfunc_end26:
	.size	_ZNK3MPI8Datatype15Create_subarrayEiPKiS2_S2_i, .Lfunc_end26-_ZNK3MPI8Datatype15Create_subarrayEiPKiS2_S2_i
	.cfi_endproc
                                        # -- End function
	.weak	_ZNK3MPI8Datatype13Create_darrayEiiiPKiS2_S2_S2_i # -- Begin function _ZNK3MPI8Datatype13Create_darrayEiiiPKiS2_S2_S2_i
	.p2align	4, 0x90
	.type	_ZNK3MPI8Datatype13Create_darrayEiiiPKiS2_S2_S2_i,@function
_ZNK3MPI8Datatype13Create_darrayEiiiPKiS2_S2_S2_i: # @_ZNK3MPI8Datatype13Create_darrayEiiiPKiS2_S2_S2_i
.Lfunc_begin27:
	.loc	8 214 0                 # /usr/lib/x86_64-linux-gnu/openmpi/include/openmpi/ompi/mpi/cxx/datatype_inln.h:214:0
	.cfi_startproc
# %bb.0:                                # %L.entry
	#DEBUG_VALUE: Create_darray: <- $rsi
	#DEBUG_VALUE: Create_darray:size <- $edx
	#DEBUG_VALUE: Create_darray:rank <- $ecx
	#DEBUG_VALUE: Create_darray:ndims <- $r8d
	#DEBUG_VALUE: Create_darray:array_of_gsizes <- $r9
	pushq	%rbp
	.cfi_def_cfa_offset 16
	.cfi_offset %rbp, -16
	movq	%rsp, %rbp
	.cfi_def_cfa_register %rbp
	pushq	%r15
	pushq	%r14
	pushq	%rbx
	pushq	%rax
	.cfi_offset %rbx, -40
	.cfi_offset %r14, -32
	.cfi_offset %r15, -24
	movq	%r9, %r11
	movl	%r8d, %eax
	movq	%rsi, %r10
	movq	%rdi, %rbx
	movq	16(%rbp), %r8
.Ltmp222:
	movq	24(%rbp), %r9
.Ltmp223:
	#DEBUG_VALUE: array_of_psizes <- undef
	movl	40(%rbp), %r14d
.Ltmp224:
	#DEBUG_VALUE: type <- [DW_OP_constu 32, DW_OP_minus, DW_OP_deref] $rbp
	#DEBUG_VALUE:  <- $r10
	#DEBUG_VALUE: order <- $r14d
	#DEBUG_VALUE: array_of_dargs <- $r9
	#DEBUG_VALUE: array_of_distribs <- $r8
	#DEBUG_VALUE: array_of_gsizes <- $r11
	#DEBUG_VALUE: ndims <- $eax
	#DEBUG_VALUE: rank <- $ecx
	#DEBUG_VALUE: size <- $edx
	#DEBUG_VALUE: Create_darray:order <- [DW_OP_plus_uconst 40] [$rbp+0]
	#DEBUG_VALUE: Create_darray:array_of_psizes <- [DW_OP_plus_uconst 32] [$rbp+0]
	#DEBUG_VALUE: Create_darray:array_of_dargs <- [DW_OP_plus_uconst 24] [$rbp+0]
	#DEBUG_VALUE: Create_darray:array_of_distribs <- [DW_OP_plus_uconst 16] [$rbp+0]
	#DEBUG_VALUE: Create_darray:array_of_gsizes <- $r11
	#DEBUG_VALUE: Create_darray:ndims <- $eax
	#DEBUG_VALUE: Create_darray:rank <- $ecx
	#DEBUG_VALUE: Create_darray:size <- $edx
	#DEBUG_VALUE: Create_darray: <- $r10
	leaq	-32(%rbp), %r15
.Ltmp225:
	.loc	8 216 1 prologue_end    # /usr/lib/x86_64-linux-gnu/openmpi/include/openmpi/ompi/mpi/cxx/datatype_inln.h:216:1
	movl	%edx, %edi
.Ltmp226:
	#DEBUG_VALUE: Create_darray:size <- $edi
	movl	%ecx, %esi
.Ltmp227:
	#DEBUG_VALUE: Create_darray:rank <- $esi
	movl	%eax, %edx
.Ltmp228:
	#DEBUG_VALUE: Create_darray:ndims <- $edx
	movq	%r11, %rcx
.Ltmp229:
	#DEBUG_VALUE: Create_darray:array_of_gsizes <- $rcx
	pushq	%r15
	pushq	8(%r10)
	pushq	%r14
	pushq	32(%rbp)
	callq	MPI_Type_create_darray
.Ltmp230:
	addq	$32, %rsp
	.loc	8 222 1                 # /usr/lib/x86_64-linux-gnu/openmpi/include/openmpi/ompi/mpi/cxx/datatype_inln.h:222:1
	movq	-32(%rbp), %rax
.Ltmp231:
	#DEBUG_VALUE: type <- undef
	movq	$_ZTVN3MPI8DatatypeE+16, (%rbx)
	.loc	8 72 1                  # /usr/lib/x86_64-linux-gnu/openmpi/include/openmpi/ompi/mpi/cxx/datatype_inln.h:72:1
	movq	%rax, 8(%rbx)
	.loc	8 223 1                 # /usr/lib/x86_64-linux-gnu/openmpi/include/openmpi/ompi/mpi/cxx/datatype_inln.h:223:1
	movq	%rbx, %rax
	addq	$8, %rsp
	popq	%rbx
	popq	%r14
.Ltmp232:
	popq	%r15
	popq	%rbp
	.cfi_def_cfa %rsp, 8
	retq
.Ltmp233:
.Lfunc_end27:
	.size	_ZNK3MPI8Datatype13Create_darrayEiiiPKiS2_S2_S2_i, .Lfunc_end27-_ZNK3MPI8Datatype13Create_darrayEiiiPKiS2_S2_S2_i
	.cfi_endproc
                                        # -- End function
	.weak	_ZNK3MPI8Datatype3DupEv # -- Begin function _ZNK3MPI8Datatype3DupEv
	.p2align	4, 0x90
	.type	_ZNK3MPI8Datatype3DupEv,@function
_ZNK3MPI8Datatype3DupEv:                # @_ZNK3MPI8Datatype3DupEv
.Lfunc_begin28:
	.loc	8 264 0                 # /usr/lib/x86_64-linux-gnu/openmpi/include/openmpi/ompi/mpi/cxx/datatype_inln.h:264:0
	.cfi_startproc
# %bb.0:                                # %L.entry
	#DEBUG_VALUE: Dup: <- $rsi
	pushq	%rbp
	.cfi_def_cfa_offset 16
	.cfi_offset %rbp, -16
	movq	%rsp, %rbp
	.cfi_def_cfa_register %rbp
	pushq	%rbx
	pushq	%rax
	.cfi_offset %rbx, -24
	movq	%rdi, %rbx
.Ltmp234:
	#DEBUG_VALUE:  <- $rsi
	#DEBUG_VALUE: Dup: <- $rsi
	.loc	8 266 1 prologue_end    # /usr/lib/x86_64-linux-gnu/openmpi/include/openmpi/ompi/mpi/cxx/datatype_inln.h:266:1
	movq	8(%rsi), %rdi
.Ltmp235:
	#DEBUG_VALUE: type <- [DW_OP_constu 16, DW_OP_minus, DW_OP_deref] $rbp
	.loc	8 0 1 is_stmt 0         # /usr/lib/x86_64-linux-gnu/openmpi/include/openmpi/ompi/mpi/cxx/datatype_inln.h:0:1
	leaq	-16(%rbp), %rsi
.Ltmp236:
	.loc	8 266 1                 # /usr/lib/x86_64-linux-gnu/openmpi/include/openmpi/ompi/mpi/cxx/datatype_inln.h:266:1
	callq	MPI_Type_dup
	.loc	8 267 1 is_stmt 1       # /usr/lib/x86_64-linux-gnu/openmpi/include/openmpi/ompi/mpi/cxx/datatype_inln.h:267:1
	movq	-16(%rbp), %rax
.Ltmp237:
	#DEBUG_VALUE: type <- undef
	movq	$_ZTVN3MPI8DatatypeE+16, (%rbx)
	.loc	8 72 1                  # /usr/lib/x86_64-linux-gnu/openmpi/include/openmpi/ompi/mpi/cxx/datatype_inln.h:72:1
	movq	%rax, 8(%rbx)
	.loc	8 268 1                 # /usr/lib/x86_64-linux-gnu/openmpi/include/openmpi/ompi/mpi/cxx/datatype_inln.h:268:1
	movq	%rbx, %rax
	addq	$8, %rsp
	popq	%rbx
	popq	%rbp
	.cfi_def_cfa %rsp, 8
	retq
.Ltmp238:
.Lfunc_end28:
	.size	_ZNK3MPI8Datatype3DupEv, .Lfunc_end28-_ZNK3MPI8Datatype3DupEv
	.cfi_endproc
                                        # -- End function
	.weak	_ZN3MPI8Datatype11Delete_attrEi # -- Begin function _ZN3MPI8Datatype11Delete_attrEi
	.p2align	4, 0x90
	.type	_ZN3MPI8Datatype11Delete_attrEi,@function
_ZN3MPI8Datatype11Delete_attrEi:        # @_ZN3MPI8Datatype11Delete_attrEi
.Lfunc_begin29:
	.loc	8 333 0                 # /usr/lib/x86_64-linux-gnu/openmpi/include/openmpi/ompi/mpi/cxx/datatype_inln.h:333:0
	.cfi_startproc
# %bb.0:                                # %L.entry
	#DEBUG_VALUE: Delete_attr: <- $rdi
	#DEBUG_VALUE: Delete_attr: <- $rdi
	#DEBUG_VALUE: Delete_attr:type_keyval <- $esi
	#DEBUG_VALUE: Delete_attr:type_keyval <- $esi
	pushq	%rbp
	.cfi_def_cfa_offset 16
	.cfi_offset %rbp, -16
	movq	%rsp, %rbp
	.cfi_def_cfa_register %rbp
.Ltmp239:
	#DEBUG_VALUE:  <- $rdi
	#DEBUG_VALUE:  <- $rdi
	#DEBUG_VALUE: type_keyval <- $esi
	#DEBUG_VALUE: type_keyval <- $esi
	.loc	8 334 1 prologue_end    # /usr/lib/x86_64-linux-gnu/openmpi/include/openmpi/ompi/mpi/cxx/datatype_inln.h:334:1
	movq	8(%rdi), %rdi
.Ltmp240:
	#DEBUG_VALUE: type_keyval <- $esi
	#DEBUG_VALUE: Delete_attr:type_keyval <- $esi
	popq	%rbp
	.cfi_def_cfa %rsp, 8
	jmp	MPI_Type_delete_attr    # TAILCALL
.Ltmp241:
.Lfunc_end29:
	.size	_ZN3MPI8Datatype11Delete_attrEi, .Lfunc_end29-_ZN3MPI8Datatype11Delete_attrEi
	.cfi_endproc
                                        # -- End function
	.weak	_ZNK3MPI8Datatype8Get_attrEiPv # -- Begin function _ZNK3MPI8Datatype8Get_attrEiPv
	.p2align	4, 0x90
	.type	_ZNK3MPI8Datatype8Get_attrEiPv,@function
_ZNK3MPI8Datatype8Get_attrEiPv:         # @_ZNK3MPI8Datatype8Get_attrEiPv
.Lfunc_begin30:
	.loc	8 346 0                 # /usr/lib/x86_64-linux-gnu/openmpi/include/openmpi/ompi/mpi/cxx/datatype_inln.h:346:0
	.cfi_startproc
# %bb.0:                                # %L.entry
	#DEBUG_VALUE: Get_attr: <- $rdi
	#DEBUG_VALUE: Get_attr: <- $rdi
	#DEBUG_VALUE: Get_attr:type_keyval <- $esi
	#DEBUG_VALUE: Get_attr:type_keyval <- $esi
	#DEBUG_VALUE: Get_attr:attribute_val <- $rdx
	#DEBUG_VALUE: Get_attr:attribute_val <- $rdx
	pushq	%rbp
	.cfi_def_cfa_offset 16
	.cfi_offset %rbp, -16
	movq	%rsp, %rbp
	.cfi_def_cfa_register %rbp
	subq	$16, %rsp
.Ltmp242:
	#DEBUG_VALUE:  <- $rdi
	#DEBUG_VALUE: type_keyval <- $esi
	#DEBUG_VALUE: attribute_val <- $rdx
	.loc	8 348 1 prologue_end    # /usr/lib/x86_64-linux-gnu/openmpi/include/openmpi/ompi/mpi/cxx/datatype_inln.h:348:1
	movq	8(%rdi), %rdi
.Ltmp243:
	#DEBUG_VALUE: ret <- [DW_OP_constu 4, DW_OP_minus, DW_OP_deref] $rbp
	.loc	8 0 1 is_stmt 0         # /usr/lib/x86_64-linux-gnu/openmpi/include/openmpi/ompi/mpi/cxx/datatype_inln.h:0:1
	leaq	-4(%rbp), %rcx
	#DEBUG_VALUE: Get_attr:attribute_val <- $rdx
	#DEBUG_VALUE: Get_attr:type_keyval <- $esi
	.loc	8 348 1                 # /usr/lib/x86_64-linux-gnu/openmpi/include/openmpi/ompi/mpi/cxx/datatype_inln.h:348:1
	callq	MPI_Type_get_attr
.Ltmp244:
	#DEBUG_VALUE: ret <- undef
	.loc	8 349 1 is_stmt 1       # /usr/lib/x86_64-linux-gnu/openmpi/include/openmpi/ompi/mpi/cxx/datatype_inln.h:349:1
	cmpl	$0, -4(%rbp)
	setne	%al
	addq	$16, %rsp
	popq	%rbp
	.cfi_def_cfa %rsp, 8
	retq
.Ltmp245:
.Lfunc_end30:
	.size	_ZNK3MPI8Datatype8Get_attrEiPv, .Lfunc_end30-_ZNK3MPI8Datatype8Get_attrEiPv
	.cfi_endproc
                                        # -- End function
	.weak	_ZNK3MPI8Datatype12Get_contentsEiiiPiPlPS0_ # -- Begin function _ZNK3MPI8Datatype12Get_contentsEiiiPiPlPS0_
	.p2align	4, 0x90
	.type	_ZNK3MPI8Datatype12Get_contentsEiiiPiPlPS0_,@function
_ZNK3MPI8Datatype12Get_contentsEiiiPiPlPS0_: # @_ZNK3MPI8Datatype12Get_contentsEiiiPiPlPS0_
.Lfunc_begin31:
	.loc	8 358 0                 # /usr/lib/x86_64-linux-gnu/openmpi/include/openmpi/ompi/mpi/cxx/datatype_inln.h:358:0
	.cfi_startproc
# %bb.0:                                # %L.entry
	#DEBUG_VALUE: Get_contents: <- $rdi
	#DEBUG_VALUE: Get_contents:max_integers <- $esi
	#DEBUG_VALUE: Get_contents:max_addresses <- $edx
	#DEBUG_VALUE: Get_contents:max_datatypes <- $ecx
	#DEBUG_VALUE: Get_contents:array_of_integers <- $r8
	#DEBUG_VALUE: Get_contents:array_of_addresses <- $r9
	pushq	%rbp
	.cfi_def_cfa_offset 16
	.cfi_offset %rbp, -16
	movq	%rsp, %rbp
	.cfi_def_cfa_register %rbp
	pushq	%r15
	pushq	%r14
	pushq	%r13
	pushq	%r12
	pushq	%rbx
	subq	$40, %rsp
	.cfi_offset %rbx, -56
	.cfi_offset %r12, -48
	.cfi_offset %r13, -40
	.cfi_offset %r14, -32
	.cfi_offset %r15, -24
.Ltmp246:
	#DEBUG_VALUE:  <- $rdi
	#DEBUG_VALUE: max_integers <- $esi
	#DEBUG_VALUE: max_addresses <- $edx
	#DEBUG_VALUE: max_datatypes <- $ecx
	#DEBUG_VALUE: array_of_integers <- $r8
	#DEBUG_VALUE: array_of_addresses <- $r9
	movq	%r9, -72(%rbp)          # 8-byte Spill
	movq	%r8, -64(%rbp)          # 8-byte Spill
	movl	%ecx, %r13d
	movl	%edx, -52(%rbp)         # 4-byte Spill
	movl	%esi, %r15d
	movq	%rdi, %r12
	movq	16(%rbp), %rax
	movq	%rax, -48(%rbp)         # 8-byte Spill
.Ltmp247:
	#DEBUG_VALUE: array_of_datatypes <- [DW_OP_plus_uconst 16] [$rbp+0]
	#DEBUG_VALUE: Get_contents:array_of_datatypes <- [DW_OP_plus_uconst 16] [$rbp+0]
	#DEBUG_VALUE: array_of_addresses <- [DW_OP_constu 72, DW_OP_minus] [$rbp+0]
	#DEBUG_VALUE: Get_contents:array_of_addresses <- [DW_OP_constu 72, DW_OP_minus] [$rbp+0]
	#DEBUG_VALUE: array_of_integers <- [DW_OP_constu 64, DW_OP_minus] [$rbp+0]
	#DEBUG_VALUE: Get_contents:array_of_integers <- [DW_OP_constu 64, DW_OP_minus] [$rbp+0]
	#DEBUG_VALUE: max_datatypes <- $r13d
	#DEBUG_VALUE: Get_contents:max_datatypes <- $r13d
	#DEBUG_VALUE: max_addresses <- [DW_OP_constu 52, DW_OP_minus] [$rbp+0]
	#DEBUG_VALUE: Get_contents:max_addresses <- [DW_OP_constu 52, DW_OP_minus] [$rbp+0]
	#DEBUG_VALUE: max_integers <- $r15d
	#DEBUG_VALUE: Get_contents:max_integers <- $r15d
	#DEBUG_VALUE:  <- $r12
	#DEBUG_VALUE: Get_contents: <- $r12
	.loc	8 360 1 prologue_end    # /usr/lib/x86_64-linux-gnu/openmpi/include/openmpi/ompi/mpi/cxx/datatype_inln.h:360:1
	movslq	%ecx, %r14
	leaq	(,%r14,8), %rdi
	callq	_Znam
	movq	%rax, %rbx
.Ltmp248:
	#DEBUG_VALUE: c_datatypes <- $rbx
	.loc	8 362 1                 # /usr/lib/x86_64-linux-gnu/openmpi/include/openmpi/ompi/mpi/cxx/datatype_inln.h:362:1
	movq	8(%r12), %rdi
	movq	%rax, (%rsp)
	movl	%r15d, %esi
.Ltmp249:
	#DEBUG_VALUE: max_integers <- $esi
	#DEBUG_VALUE: Get_contents:max_integers <- $esi
	.loc	8 0 1 is_stmt 0         # /usr/lib/x86_64-linux-gnu/openmpi/include/openmpi/ompi/mpi/cxx/datatype_inln.h:0:1
	movl	-52(%rbp), %edx         # 4-byte Reload
.Ltmp250:
	#DEBUG_VALUE: max_addresses <- $edx
	#DEBUG_VALUE: Get_contents:max_addresses <- $edx
	.loc	8 362 1                 # /usr/lib/x86_64-linux-gnu/openmpi/include/openmpi/ompi/mpi/cxx/datatype_inln.h:362:1
	movl	%r14d, %ecx
	movq	-64(%rbp), %r8          # 8-byte Reload
.Ltmp251:
	#DEBUG_VALUE: array_of_integers <- $r8
	#DEBUG_VALUE: Get_contents:array_of_integers <- $r8
	.loc	8 0 1                   # /usr/lib/x86_64-linux-gnu/openmpi/include/openmpi/ompi/mpi/cxx/datatype_inln.h:0:1
	movq	-72(%rbp), %r9          # 8-byte Reload
.Ltmp252:
	#DEBUG_VALUE: array_of_addresses <- $r9
	#DEBUG_VALUE: Get_contents:array_of_addresses <- $r9
	.loc	8 362 1                 # /usr/lib/x86_64-linux-gnu/openmpi/include/openmpi/ompi/mpi/cxx/datatype_inln.h:362:1
	callq	MPI_Type_get_contents
.Ltmp253:
	#DEBUG_VALUE: max_datatypes <- $r13d
	#DEBUG_VALUE: Get_contents:max_datatypes <- $r13d
	.loc	8 369 1 is_stmt 1       # /usr/lib/x86_64-linux-gnu/openmpi/include/openmpi/ompi/mpi/cxx/datatype_inln.h:369:1
	testl	%r14d, %r14d
	jle	.LBB31_13
.Ltmp254:
# %bb.1:                                # %L.B2355
	#DEBUG_VALUE: c_datatypes <- $rbx
	#DEBUG_VALUE: Get_contents: <- $r12
	#DEBUG_VALUE:  <- $r12
	#DEBUG_VALUE: Get_contents:max_datatypes <- $r13d
	#DEBUG_VALUE: max_datatypes <- $r13d
	#DEBUG_VALUE: Get_contents:array_of_datatypes <- [DW_OP_plus_uconst 16] [$rbp+0]
	#DEBUG_VALUE: array_of_datatypes <- [DW_OP_plus_uconst 16] [$rbp+0]
	.loc	8 0 1 is_stmt 0         # /usr/lib/x86_64-linux-gnu/openmpi/include/openmpi/ompi/mpi/cxx/datatype_inln.h:0:1
	xorl	%eax, %eax
	.loc	8 369 1                 # /usr/lib/x86_64-linux-gnu/openmpi/include/openmpi/ompi/mpi/cxx/datatype_inln.h:369:1
	cmpl	$4, %r13d
	jl	.LBB31_5
.Ltmp255:
# %bb.2:                                # %L.B2356
	#DEBUG_VALUE: c_datatypes <- $rbx
	#DEBUG_VALUE: Get_contents: <- $r12
	#DEBUG_VALUE:  <- $r12
	#DEBUG_VALUE: Get_contents:max_datatypes <- $r13d
	#DEBUG_VALUE: max_datatypes <- $r13d
	#DEBUG_VALUE: Get_contents:array_of_datatypes <- [DW_OP_plus_uconst 16] [$rbp+0]
	#DEBUG_VALUE: array_of_datatypes <- [DW_OP_plus_uconst 16] [$rbp+0]
	movl	%r13d, %ecx
	shrl	$31, %ecx
	addl	%r13d, %ecx
	movl	%ecx, %edx
	sarl	$2, %edx
	andl	$-4, %ecx
	movq	-48(%rbp), %rax         # 8-byte Reload
	leaq	56(%rax), %rsi
	xorl	%eax, %eax
.Ltmp256:
	.p2align	4, 0x90
.LBB31_3:                               # %L.B2349
                                        # =>This Inner Loop Header: Depth=1
	#DEBUG_VALUE: c_datatypes <- $rbx
	#DEBUG_VALUE: Get_contents: <- $r12
	#DEBUG_VALUE:  <- $r12
	#DEBUG_VALUE: Get_contents:max_datatypes <- $r13d
	#DEBUG_VALUE: max_datatypes <- $r13d
	#DEBUG_VALUE: Get_contents:array_of_datatypes <- [DW_OP_plus_uconst 16] [$rbp+0]
	#DEBUG_VALUE: array_of_datatypes <- [DW_OP_plus_uconst 16] [$rbp+0]
	movq	(%rbx,%rax,8), %rdi
	movq	%rdi, -48(%rsi)
	movq	8(%rbx,%rax,8), %rdi
	movq	%rdi, -32(%rsi)
	movq	16(%rbx,%rax,8), %rdi
	movq	%rdi, -16(%rsi)
	movq	24(%rbx,%rax,8), %rdi
	movq	%rdi, (%rsi)
	addq	$4, %rax
	addq	$64, %rsi
	decl	%edx
	jg	.LBB31_3
.Ltmp257:
# %bb.4:                                # %L.B2351.loopexit
	#DEBUG_VALUE: c_datatypes <- $rbx
	#DEBUG_VALUE: Get_contents: <- $r12
	#DEBUG_VALUE:  <- $r12
	#DEBUG_VALUE: Get_contents:max_datatypes <- $r13d
	#DEBUG_VALUE: max_datatypes <- $r13d
	#DEBUG_VALUE: Get_contents:array_of_datatypes <- [DW_OP_plus_uconst 16] [$rbp+0]
	#DEBUG_VALUE: array_of_datatypes <- [DW_OP_plus_uconst 16] [$rbp+0]
	subl	%ecx, %r13d
.Ltmp258:
.LBB31_5:                               # %L.B2351
	#DEBUG_VALUE: c_datatypes <- $rbx
	#DEBUG_VALUE: Get_contents: <- $r12
	#DEBUG_VALUE:  <- $r12
	#DEBUG_VALUE: Get_contents:array_of_datatypes <- [DW_OP_plus_uconst 16] [$rbp+0]
	#DEBUG_VALUE: array_of_datatypes <- [DW_OP_plus_uconst 16] [$rbp+0]
	testl	%r13d, %r13d
	je	.LBB31_13
.Ltmp259:
# %bb.6:                                # %L.B2351
	#DEBUG_VALUE: c_datatypes <- $rbx
	#DEBUG_VALUE: Get_contents: <- $r12
	#DEBUG_VALUE:  <- $r12
	#DEBUG_VALUE: Get_contents:array_of_datatypes <- [DW_OP_plus_uconst 16] [$rbp+0]
	#DEBUG_VALUE: array_of_datatypes <- [DW_OP_plus_uconst 16] [$rbp+0]
	cmpl	$1, %r13d
	je	.LBB31_7
.Ltmp260:
# %bb.8:                                # %L.B2351
	#DEBUG_VALUE: c_datatypes <- $rbx
	#DEBUG_VALUE: Get_contents: <- $r12
	#DEBUG_VALUE:  <- $r12
	#DEBUG_VALUE: Get_contents:array_of_datatypes <- [DW_OP_plus_uconst 16] [$rbp+0]
	#DEBUG_VALUE: array_of_datatypes <- [DW_OP_plus_uconst 16] [$rbp+0]
	cmpl	$2, %r13d
	jne	.LBB31_10
.Ltmp261:
# %bb.9:
	#DEBUG_VALUE: c_datatypes <- $rbx
	#DEBUG_VALUE: Get_contents: <- $r12
	#DEBUG_VALUE:  <- $r12
	#DEBUG_VALUE: Get_contents:array_of_datatypes <- [DW_OP_plus_uconst 16] [$rbp+0]
	#DEBUG_VALUE: array_of_datatypes <- [DW_OP_plus_uconst 16] [$rbp+0]
	.loc	8 0 1                   # /usr/lib/x86_64-linux-gnu/openmpi/include/openmpi/ompi/mpi/cxx/datatype_inln.h:0:1
	movq	-48(%rbp), %rsi         # 8-byte Reload
	jmp	.LBB31_11
.Ltmp262:
.LBB31_7:
	#DEBUG_VALUE: c_datatypes <- $rbx
	#DEBUG_VALUE: Get_contents: <- $r12
	#DEBUG_VALUE:  <- $r12
	#DEBUG_VALUE: Get_contents:array_of_datatypes <- [DW_OP_plus_uconst 16] [$rbp+0]
	#DEBUG_VALUE: array_of_datatypes <- [DW_OP_plus_uconst 16] [$rbp+0]
	movq	-48(%rbp), %rsi         # 8-byte Reload
	jmp	.LBB31_12
.Ltmp263:
.LBB31_10:                              # %L.B2360
	#DEBUG_VALUE: c_datatypes <- $rbx
	#DEBUG_VALUE: Get_contents: <- $r12
	#DEBUG_VALUE:  <- $r12
	#DEBUG_VALUE: Get_contents:array_of_datatypes <- [DW_OP_plus_uconst 16] [$rbp+0]
	#DEBUG_VALUE: array_of_datatypes <- [DW_OP_plus_uconst 16] [$rbp+0]
	.loc	8 369 1                 # /usr/lib/x86_64-linux-gnu/openmpi/include/openmpi/ompi/mpi/cxx/datatype_inln.h:369:1
	cltq
	movq	(%rbx,%rax,8), %rcx
	movq	%rax, %rdx
	shlq	$4, %rdx
	movq	-48(%rbp), %rsi         # 8-byte Reload
	movq	%rcx, 8(%rsi,%rdx)
	incl	%eax
.Ltmp264:
.LBB31_11:                              # %L.B2354
	#DEBUG_VALUE: c_datatypes <- $rbx
	#DEBUG_VALUE: Get_contents: <- $r12
	#DEBUG_VALUE:  <- $r12
	#DEBUG_VALUE: Get_contents:array_of_datatypes <- [DW_OP_plus_uconst 16] [$rbp+0]
	#DEBUG_VALUE: array_of_datatypes <- [DW_OP_plus_uconst 16] [$rbp+0]
	cltq
	movq	(%rbx,%rax,8), %rcx
	movq	%rax, %rdx
	shlq	$4, %rdx
	movq	%rcx, 8(%rsi,%rdx)
	incl	%eax
.Ltmp265:
.LBB31_12:                              # %L.B2353
	#DEBUG_VALUE: c_datatypes <- $rbx
	#DEBUG_VALUE: Get_contents: <- $r12
	#DEBUG_VALUE:  <- $r12
	#DEBUG_VALUE: Get_contents:array_of_datatypes <- [DW_OP_plus_uconst 16] [$rbp+0]
	#DEBUG_VALUE: array_of_datatypes <- [DW_OP_plus_uconst 16] [$rbp+0]
	cltq
	movq	(%rbx,%rax,8), %rcx
	shlq	$4, %rax
	movq	%rcx, 8(%rsi,%rax)
.Ltmp266:
.LBB31_13:                              # %L.B2350
	#DEBUG_VALUE: c_datatypes <- $rbx
	#DEBUG_VALUE: Get_contents: <- $r12
	#DEBUG_VALUE:  <- $r12
	#DEBUG_VALUE: Get_contents:array_of_datatypes <- [DW_OP_plus_uconst 16] [$rbp+0]
	#DEBUG_VALUE: array_of_datatypes <- [DW_OP_plus_uconst 16] [$rbp+0]
	.loc	8 372 1 is_stmt 1       # /usr/lib/x86_64-linux-gnu/openmpi/include/openmpi/ompi/mpi/cxx/datatype_inln.h:372:1
	movq	%rbx, %rdi
	addq	$40, %rsp
	popq	%rbx
.Ltmp267:
	popq	%r12
.Ltmp268:
	popq	%r13
	popq	%r14
	popq	%r15
	popq	%rbp
	.cfi_def_cfa %rsp, 8
	jmp	_ZdaPv                  # TAILCALL
.Ltmp269:
.Lfunc_end31:
	.size	_ZNK3MPI8Datatype12Get_contentsEiiiPiPlPS0_, .Lfunc_end31-_ZNK3MPI8Datatype12Get_contentsEiiiPiPlPS0_
	.cfi_endproc
                                        # -- End function
	.weak	_ZNK3MPI8Datatype12Get_envelopeERiS1_S1_S1_ # -- Begin function _ZNK3MPI8Datatype12Get_envelopeERiS1_S1_S1_
	.p2align	4, 0x90
	.type	_ZNK3MPI8Datatype12Get_envelopeERiS1_S1_S1_,@function
_ZNK3MPI8Datatype12Get_envelopeERiS1_S1_S1_: # @_ZNK3MPI8Datatype12Get_envelopeERiS1_S1_S1_
.Lfunc_begin32:
	.loc	8 378 0                 # /usr/lib/x86_64-linux-gnu/openmpi/include/openmpi/ompi/mpi/cxx/datatype_inln.h:378:0
	.cfi_startproc
# %bb.0:                                # %L.entry
	#DEBUG_VALUE: Get_envelope: <- $rdi
	#DEBUG_VALUE: Get_envelope: <- $rdi
	#DEBUG_VALUE: Get_envelope:num_integers <- $rsi
	#DEBUG_VALUE: Get_envelope:num_integers <- $rsi
	#DEBUG_VALUE: Get_envelope:num_addresses <- $rdx
	#DEBUG_VALUE: Get_envelope:num_addresses <- $rdx
	#DEBUG_VALUE: Get_envelope:num_datatypes <- $rcx
	#DEBUG_VALUE: Get_envelope:num_datatypes <- $rcx
	#DEBUG_VALUE: Get_envelope:combiner <- $r8
	#DEBUG_VALUE: Get_envelope:combiner <- $r8
	pushq	%rbp
	.cfi_def_cfa_offset 16
	.cfi_offset %rbp, -16
	movq	%rsp, %rbp
	.cfi_def_cfa_register %rbp
.Ltmp270:
	#DEBUG_VALUE:  <- $rdi
	#DEBUG_VALUE:  <- $rdi
	#DEBUG_VALUE: num_integers <- $rsi
	#DEBUG_VALUE: num_integers <- $rsi
	#DEBUG_VALUE: num_addresses <- $rdx
	#DEBUG_VALUE: num_addresses <- $rdx
	#DEBUG_VALUE: num_datatypes <- $rcx
	#DEBUG_VALUE: num_datatypes <- $rcx
	#DEBUG_VALUE: combiner <- $r8
	#DEBUG_VALUE: combiner <- $r8
	.loc	8 379 1 prologue_end    # /usr/lib/x86_64-linux-gnu/openmpi/include/openmpi/ompi/mpi/cxx/datatype_inln.h:379:1
	movq	8(%rdi), %rdi
.Ltmp271:
	#DEBUG_VALUE: combiner <- $r8
	#DEBUG_VALUE: Get_envelope:combiner <- $r8
	#DEBUG_VALUE: num_datatypes <- $rcx
	#DEBUG_VALUE: Get_envelope:num_datatypes <- $rcx
	#DEBUG_VALUE: num_addresses <- $rdx
	#DEBUG_VALUE: Get_envelope:num_addresses <- $rdx
	#DEBUG_VALUE: num_integers <- $rsi
	#DEBUG_VALUE: Get_envelope:num_integers <- $rsi
	popq	%rbp
	.cfi_def_cfa %rsp, 8
	jmp	MPI_Type_get_envelope   # TAILCALL
.Ltmp272:
.Lfunc_end32:
	.size	_ZNK3MPI8Datatype12Get_envelopeERiS1_S1_S1_, .Lfunc_end32-_ZNK3MPI8Datatype12Get_envelopeERiS1_S1_S1_
	.cfi_endproc
                                        # -- End function
	.weak	_ZNK3MPI8Datatype8Get_nameEPcRi # -- Begin function _ZNK3MPI8Datatype8Get_nameEPcRi
	.p2align	4, 0x90
	.type	_ZNK3MPI8Datatype8Get_nameEPcRi,@function
_ZNK3MPI8Datatype8Get_nameEPcRi:        # @_ZNK3MPI8Datatype8Get_nameEPcRi
.Lfunc_begin33:
	.loc	8 385 0                 # /usr/lib/x86_64-linux-gnu/openmpi/include/openmpi/ompi/mpi/cxx/datatype_inln.h:385:0
	.cfi_startproc
# %bb.0:                                # %L.entry
	#DEBUG_VALUE: Get_name: <- $rdi
	#DEBUG_VALUE: Get_name: <- $rdi
	#DEBUG_VALUE: Get_name:type_name <- $rsi
	#DEBUG_VALUE: Get_name:type_name <- $rsi
	#DEBUG_VALUE: Get_name:resultlen <- $rdx
	#DEBUG_VALUE: Get_name:resultlen <- $rdx
	pushq	%rbp
	.cfi_def_cfa_offset 16
	.cfi_offset %rbp, -16
	movq	%rsp, %rbp
	.cfi_def_cfa_register %rbp
.Ltmp273:
	#DEBUG_VALUE:  <- $rdi
	#DEBUG_VALUE:  <- $rdi
	#DEBUG_VALUE: type_name <- $rsi
	#DEBUG_VALUE: type_name <- $rsi
	#DEBUG_VALUE: resultlen <- $rdx
	#DEBUG_VALUE: resultlen <- $rdx
	.loc	8 386 1 prologue_end    # /usr/lib/x86_64-linux-gnu/openmpi/include/openmpi/ompi/mpi/cxx/datatype_inln.h:386:1
	movq	8(%rdi), %rdi
.Ltmp274:
	#DEBUG_VALUE: resultlen <- $rdx
	#DEBUG_VALUE: Get_name:resultlen <- $rdx
	#DEBUG_VALUE: type_name <- $rsi
	#DEBUG_VALUE: Get_name:type_name <- $rsi
	popq	%rbp
	.cfi_def_cfa %rsp, 8
	jmp	MPI_Type_get_name       # TAILCALL
.Ltmp275:
.Lfunc_end33:
	.size	_ZNK3MPI8Datatype8Get_nameEPcRi, .Lfunc_end33-_ZNK3MPI8Datatype8Get_nameEPcRi
	.cfi_endproc
                                        # -- End function
	.weak	_ZN3MPI8Datatype8Set_attrEiPKv # -- Begin function _ZN3MPI8Datatype8Set_attrEiPKv
	.p2align	4, 0x90
	.type	_ZN3MPI8Datatype8Set_attrEiPKv,@function
_ZN3MPI8Datatype8Set_attrEiPKv:         # @_ZN3MPI8Datatype8Set_attrEiPKv
.Lfunc_begin34:
	.loc	8 391 0                 # /usr/lib/x86_64-linux-gnu/openmpi/include/openmpi/ompi/mpi/cxx/datatype_inln.h:391:0
	.cfi_startproc
# %bb.0:                                # %L.entry
	#DEBUG_VALUE: Set_attr: <- $rdi
	#DEBUG_VALUE: Set_attr: <- $rdi
	#DEBUG_VALUE: Set_attr:type_keyval <- $esi
	#DEBUG_VALUE: Set_attr:type_keyval <- $esi
	#DEBUG_VALUE: Set_attr:attribute_val <- $rdx
	#DEBUG_VALUE: Set_attr:attribute_val <- $rdx
	pushq	%rbp
	.cfi_def_cfa_offset 16
	.cfi_offset %rbp, -16
	movq	%rsp, %rbp
	.cfi_def_cfa_register %rbp
.Ltmp276:
	#DEBUG_VALUE:  <- $rdi
	#DEBUG_VALUE:  <- $rdi
	#DEBUG_VALUE: type_keyval <- $esi
	#DEBUG_VALUE: type_keyval <- $esi
	#DEBUG_VALUE: attribute_val <- $rdx
	#DEBUG_VALUE: attribute_val <- $rdx
	.loc	8 392 1 prologue_end    # /usr/lib/x86_64-linux-gnu/openmpi/include/openmpi/ompi/mpi/cxx/datatype_inln.h:392:1
	movq	8(%rdi), %rdi
.Ltmp277:
	#DEBUG_VALUE: attribute_val <- $rdx
	#DEBUG_VALUE: Set_attr:attribute_val <- $rdx
	#DEBUG_VALUE: type_keyval <- $esi
	#DEBUG_VALUE: Set_attr:type_keyval <- $esi
	popq	%rbp
	.cfi_def_cfa %rsp, 8
	jmp	MPI_Type_set_attr       # TAILCALL
.Ltmp278:
.Lfunc_end34:
	.size	_ZN3MPI8Datatype8Set_attrEiPKv, .Lfunc_end34-_ZN3MPI8Datatype8Set_attrEiPKv
	.cfi_endproc
                                        # -- End function
	.weak	_ZN3MPI8Datatype8Set_nameEPKc # -- Begin function _ZN3MPI8Datatype8Set_nameEPKc
	.p2align	4, 0x90
	.type	_ZN3MPI8Datatype8Set_nameEPKc,@function
_ZN3MPI8Datatype8Set_nameEPKc:          # @_ZN3MPI8Datatype8Set_nameEPKc
.Lfunc_begin35:
	.loc	8 397 0                 # /usr/lib/x86_64-linux-gnu/openmpi/include/openmpi/ompi/mpi/cxx/datatype_inln.h:397:0
	.cfi_startproc
# %bb.0:                                # %L.entry
	#DEBUG_VALUE: Set_name: <- $rdi
	#DEBUG_VALUE: Set_name: <- $rdi
	#DEBUG_VALUE: Set_name:type_name <- $rsi
	#DEBUG_VALUE: Set_name:type_name <- $rsi
	pushq	%rbp
	.cfi_def_cfa_offset 16
	.cfi_offset %rbp, -16
	movq	%rsp, %rbp
	.cfi_def_cfa_register %rbp
.Ltmp279:
	#DEBUG_VALUE:  <- $rdi
	#DEBUG_VALUE:  <- $rdi
	#DEBUG_VALUE: type_name <- $rsi
	#DEBUG_VALUE: type_name <- $rsi
	.loc	8 398 1 prologue_end    # /usr/lib/x86_64-linux-gnu/openmpi/include/openmpi/ompi/mpi/cxx/datatype_inln.h:398:1
	movq	8(%rdi), %rdi
.Ltmp280:
	#DEBUG_VALUE: type_name <- $rsi
	#DEBUG_VALUE: Set_name:type_name <- $rsi
	popq	%rbp
	.cfi_def_cfa %rsp, 8
	jmp	MPI_Type_set_name       # TAILCALL
.Ltmp281:
.Lfunc_end35:
	.size	_ZN3MPI8Datatype8Set_nameEPKc, .Lfunc_end35-_ZN3MPI8Datatype8Set_nameEPKc
	.cfi_endproc
                                        # -- End function
	.weak	_ZN3MPI2OpD1Ev          # -- Begin function _ZN3MPI2OpD1Ev
	.p2align	4, 0x90
	.type	_ZN3MPI2OpD1Ev,@function
_ZN3MPI2OpD1Ev:                         # @_ZN3MPI2OpD1Ev
.Lfunc_begin36:
	.file	9 "/usr/lib/x86_64-linux-gnu/openmpi/include/openmpi/ompi/mpi/cxx/op_inln.h"
	.loc	9 77 0                  # /usr/lib/x86_64-linux-gnu/openmpi/include/openmpi/ompi/mpi/cxx/op_inln.h:77:0
	.cfi_startproc
# %bb.0:                                # %L.entry
	#DEBUG_VALUE: ~Op: <- $rdi
	#DEBUG_VALUE: ~Op: <- $rdi
	pushq	%rbp
	.cfi_def_cfa_offset 16
	.cfi_offset %rbp, -16
	movq	%rsp, %rbp
	.cfi_def_cfa_register %rbp
.Ltmp282:
	#DEBUG_VALUE:  <- $rdi
	#DEBUG_VALUE:  <- $rdi
	.loc	9 77 1 prologue_end     # /usr/lib/x86_64-linux-gnu/openmpi/include/openmpi/ompi/mpi/cxx/op_inln.h:77:1
	movq	$_ZTVN3MPI2OpE+16, (%rdi)
	.loc	9 82 1                  # /usr/lib/x86_64-linux-gnu/openmpi/include/openmpi/ompi/mpi/cxx/op_inln.h:82:1
	popq	%rbp
	.cfi_def_cfa %rsp, 8
	retq
.Ltmp283:
.Lfunc_end36:
	.size	_ZN3MPI2OpD1Ev, .Lfunc_end36-_ZN3MPI2OpD1Ev
	.cfi_endproc
                                        # -- End function
	.weak	_ZN3MPI2OpD0Ev          # -- Begin function _ZN3MPI2OpD0Ev
	.p2align	4, 0x90
	.type	_ZN3MPI2OpD0Ev,@function
_ZN3MPI2OpD0Ev:                         # @_ZN3MPI2OpD0Ev
.Lfunc_begin37:
	.loc	1 0 0                   # projects/Flowthrough/Flowthrough.cpp:0:0
	.cfi_startproc
# %bb.0:                                # %L.entry
	pushq	%rbp
	.cfi_def_cfa_offset 16
	.cfi_offset %rbp, -16
	movq	%rsp, %rbp
	.cfi_def_cfa_register %rbp
.Ltmp284:
	.loc	1 82 1 prologue_end     # projects/Flowthrough/Flowthrough.cpp:82:1
	movl	$16, %esi
	popq	%rbp
	.cfi_def_cfa %rsp, 8
	jmp	_ZdlPvm                 # TAILCALL
.Ltmp285:
.Lfunc_end37:
	.size	_ZN3MPI2OpD0Ev, .Lfunc_end37-_ZN3MPI2OpD0Ev
	.cfi_endproc
                                        # -- End function
	.weak	_ZN3MPI2Op4InitEPFvPKvPviRKNS_8DatatypeEEb # -- Begin function _ZN3MPI2Op4InitEPFvPKvPviRKNS_8DatatypeEEb
	.p2align	4, 0x90
	.type	_ZN3MPI2Op4InitEPFvPKvPviRKNS_8DatatypeEEb,@function
_ZN3MPI2Op4InitEPFvPKvPviRKNS_8DatatypeEEb: # @_ZN3MPI2Op4InitEPFvPKvPviRKNS_8DatatypeEEb
.Lfunc_begin38:
	.loc	9 120 0                 # /usr/lib/x86_64-linux-gnu/openmpi/include/openmpi/ompi/mpi/cxx/op_inln.h:120:0
	.cfi_startproc
# %bb.0:                                # %L.entry
	#DEBUG_VALUE: Init: <- $rdi
	#DEBUG_VALUE: Init:func <- $rsi
	#DEBUG_VALUE: Init:commute <- $edx
	pushq	%rbp
	.cfi_def_cfa_offset 16
	.cfi_offset %rbp, -16
	movq	%rsp, %rbp
	.cfi_def_cfa_register %rbp
	pushq	%r14
	pushq	%rbx
	.cfi_offset %rbx, -32
	.cfi_offset %r14, -24
.Ltmp286:
	#DEBUG_VALUE:  <- $rdi
	#DEBUG_VALUE: func <- $rsi
	#DEBUG_VALUE: commute <- $edx
	movq	%rsi, %r14
	movq	%rdi, %rbx
	#DEBUG_VALUE: commute <- $edx
	#DEBUG_VALUE: Init:commute <- $edx
.Ltmp287:
	#DEBUG_VALUE: func <- $r14
	#DEBUG_VALUE: Init:func <- $r14
	#DEBUG_VALUE:  <- $rbx
	#DEBUG_VALUE: Init: <- $rbx
	.loc	9 121 1 prologue_end    # /usr/lib/x86_64-linux-gnu/openmpi/include/openmpi/ompi/mpi/cxx/op_inln.h:121:1
	leaq	8(%rdi), %rax
	movl	$ompi_mpi_cxx_op_intercept, %edi
	movl	%edx, %esi
.Ltmp288:
	#DEBUG_VALUE: commute <- $esi
	#DEBUG_VALUE: Init:commute <- $esi
	movq	%rax, %rdx
	callq	MPI_Op_create
.Ltmp289:
	.loc	9 123 1                 # /usr/lib/x86_64-linux-gnu/openmpi/include/openmpi/ompi/mpi/cxx/op_inln.h:123:1
	movq	8(%rbx), %rdi
	movq	%r14, %rsi
.Ltmp290:
	#DEBUG_VALUE: func <- $rsi
	#DEBUG_VALUE: Init:func <- $rsi
	popq	%rbx
.Ltmp291:
	popq	%r14
	popq	%rbp
	.cfi_def_cfa %rsp, 8
	jmp	ompi_op_set_cxx_callback # TAILCALL
.Ltmp292:
.Lfunc_end38:
	.size	_ZN3MPI2Op4InitEPFvPKvPviRKNS_8DatatypeEEb, .Lfunc_end38-_ZN3MPI2Op4InitEPFvPKvPviRKNS_8DatatypeEEb
	.cfi_endproc
                                        # -- End function
	.weak	_ZN3MPI2Op4FreeEv       # -- Begin function _ZN3MPI2Op4FreeEv
	.p2align	4, 0x90
	.type	_ZN3MPI2Op4FreeEv,@function
_ZN3MPI2Op4FreeEv:                      # @_ZN3MPI2Op4FreeEv
.Lfunc_begin39:
	.loc	9 129 0                 # /usr/lib/x86_64-linux-gnu/openmpi/include/openmpi/ompi/mpi/cxx/op_inln.h:129:0
	.cfi_startproc
# %bb.0:                                # %L.entry
	#DEBUG_VALUE: Free: <- $rdi
	#DEBUG_VALUE: Free: <- $rdi
	pushq	%rbp
	.cfi_def_cfa_offset 16
	.cfi_offset %rbp, -16
	movq	%rsp, %rbp
	.cfi_def_cfa_register %rbp
.Ltmp293:
	#DEBUG_VALUE:  <- $rdi
	#DEBUG_VALUE:  <- $rdi
	.loc	9 130 1 prologue_end    # /usr/lib/x86_64-linux-gnu/openmpi/include/openmpi/ompi/mpi/cxx/op_inln.h:130:1
	addq	$8, %rdi
.Ltmp294:
	popq	%rbp
	.cfi_def_cfa %rsp, 8
	jmp	MPI_Op_free             # TAILCALL
.Ltmp295:
.Lfunc_end39:
	.size	_ZN3MPI2Op4FreeEv, .Lfunc_end39-_ZN3MPI2Op4FreeEv
	.cfi_endproc
                                        # -- End function
	.weak	_ZNK3MPI2Op12Reduce_localEPKvPviRKNS_8DatatypeE # -- Begin function _ZNK3MPI2Op12Reduce_localEPKvPviRKNS_8DatatypeE
	.p2align	4, 0x90
	.type	_ZNK3MPI2Op12Reduce_localEPKvPviRKNS_8DatatypeE,@function
_ZNK3MPI2Op12Reduce_localEPKvPviRKNS_8DatatypeE: # @_ZNK3MPI2Op12Reduce_localEPKvPviRKNS_8DatatypeE
.Lfunc_begin40:
	.loc	9 137 0                 # /usr/lib/x86_64-linux-gnu/openmpi/include/openmpi/ompi/mpi/cxx/op_inln.h:137:0
	.cfi_startproc
# %bb.0:                                # %L.entry
	#DEBUG_VALUE: Reduce_local: <- $rdi
	#DEBUG_VALUE: Reduce_local: <- $rdi
	#DEBUG_VALUE: Reduce_local:inbuf <- $rsi
	#DEBUG_VALUE: Reduce_local:inbuf <- $rsi
	#DEBUG_VALUE: Reduce_local:inoutbuf <- $rdx
	#DEBUG_VALUE: Reduce_local:inoutbuf <- $rdx
	#DEBUG_VALUE: Reduce_local:count <- $ecx
	#DEBUG_VALUE: Reduce_local:count <- $ecx
	#DEBUG_VALUE: Reduce_local:datatype <- $r8
	#DEBUG_VALUE: Reduce_local:datatype <- $r8
	pushq	%rbp
	.cfi_def_cfa_offset 16
	.cfi_offset %rbp, -16
	movq	%rsp, %rbp
	.cfi_def_cfa_register %rbp
.Ltmp296:
	#DEBUG_VALUE:  <- $rdi
	#DEBUG_VALUE:  <- $rdi
	#DEBUG_VALUE: inbuf <- $rsi
	#DEBUG_VALUE: inbuf <- $rsi
	#DEBUG_VALUE: inoutbuf <- $rdx
	#DEBUG_VALUE: inoutbuf <- $rdx
	#DEBUG_VALUE: count <- $ecx
	#DEBUG_VALUE: count <- $ecx
	#DEBUG_VALUE: datatype <- $r8
	#DEBUG_VALUE: datatype <- $r8
	.loc	9 90 1 prologue_end     # /usr/lib/x86_64-linux-gnu/openmpi/include/openmpi/ompi/mpi/cxx/op_inln.h:90:1
	movq	8(%r8), %rax
	movq	8(%rdi), %r8
.Ltmp297:
	movq	%rsi, %rdi
.Ltmp298:
	#DEBUG_VALUE: inbuf <- $rdi
	#DEBUG_VALUE: Reduce_local:inbuf <- $rdi
	movq	%rdx, %rsi
.Ltmp299:
	#DEBUG_VALUE: inoutbuf <- $rsi
	#DEBUG_VALUE: Reduce_local:inoutbuf <- $rsi
	movl	%ecx, %edx
.Ltmp300:
	#DEBUG_VALUE: count <- $edx
	#DEBUG_VALUE: Reduce_local:count <- $edx
	movq	%rax, %rcx
	popq	%rbp
	.cfi_def_cfa %rsp, 8
	jmp	MPI_Reduce_local        # TAILCALL
.Ltmp301:
.Lfunc_end40:
	.size	_ZNK3MPI2Op12Reduce_localEPKvPviRKNS_8DatatypeE, .Lfunc_end40-_ZNK3MPI2Op12Reduce_localEPKvPviRKNS_8DatatypeE
	.cfi_endproc
                                        # -- End function
	.weak	_ZNK3MPI2Op14Is_commutativeEv # -- Begin function _ZNK3MPI2Op14Is_commutativeEv
	.p2align	4, 0x90
	.type	_ZNK3MPI2Op14Is_commutativeEv,@function
_ZNK3MPI2Op14Is_commutativeEv:          # @_ZNK3MPI2Op14Is_commutativeEv
.Lfunc_begin41:
	.loc	9 145 0                 # /usr/lib/x86_64-linux-gnu/openmpi/include/openmpi/ompi/mpi/cxx/op_inln.h:145:0
	.cfi_startproc
# %bb.0:                                # %L.entry
	#DEBUG_VALUE: Is_commutative: <- $rdi
	#DEBUG_VALUE: Is_commutative: <- $rdi
	pushq	%rbp
	.cfi_def_cfa_offset 16
	.cfi_offset %rbp, -16
	movq	%rsp, %rbp
	.cfi_def_cfa_register %rbp
	subq	$16, %rsp
.Ltmp302:
	#DEBUG_VALUE:  <- $rdi
	.loc	9 147 1 prologue_end    # /usr/lib/x86_64-linux-gnu/openmpi/include/openmpi/ompi/mpi/cxx/op_inln.h:147:1
	movq	8(%rdi), %rdi
.Ltmp303:
	#DEBUG_VALUE: commute <- [DW_OP_constu 4, DW_OP_minus, DW_OP_deref] $rbp
	.loc	9 0 1 is_stmt 0         # /usr/lib/x86_64-linux-gnu/openmpi/include/openmpi/ompi/mpi/cxx/op_inln.h:0:1
	leaq	-4(%rbp), %rsi
	.loc	9 147 1                 # /usr/lib/x86_64-linux-gnu/openmpi/include/openmpi/ompi/mpi/cxx/op_inln.h:147:1
	callq	MPI_Op_commutative
.Ltmp304:
	#DEBUG_VALUE: commute <- undef
	.loc	9 148 1 is_stmt 1       # /usr/lib/x86_64-linux-gnu/openmpi/include/openmpi/ompi/mpi/cxx/op_inln.h:148:1
	cmpl	$0, -4(%rbp)
	setne	%al
	addq	$16, %rsp
	popq	%rbp
	.cfi_def_cfa %rsp, 8
	retq
.Ltmp305:
.Lfunc_end41:
	.size	_ZNK3MPI2Op14Is_commutativeEv, .Lfunc_end41-_ZNK3MPI2Op14Is_commutativeEv
	.cfi_endproc
                                        # -- End function
	.weak	_ZN3MPI6StatusD1Ev      # -- Begin function _ZN3MPI6StatusD1Ev
	.p2align	4, 0x90
	.type	_ZN3MPI6StatusD1Ev,@function
_ZN3MPI6StatusD1Ev:                     # @_ZN3MPI6StatusD1Ev
.Lfunc_begin42:
	.file	10 "/usr/lib/x86_64-linux-gnu/openmpi/include/openmpi/ompi/mpi/cxx/status.h"
	.loc	10 64 0                 # /usr/lib/x86_64-linux-gnu/openmpi/include/openmpi/ompi/mpi/cxx/status.h:64:0
	.cfi_startproc
# %bb.0:                                # %L.entry
	#DEBUG_VALUE: ~Status: <- $rdi
	#DEBUG_VALUE: ~Status: <- $rdi
	pushq	%rbp
	.cfi_def_cfa_offset 16
	.cfi_offset %rbp, -16
	movq	%rsp, %rbp
	.cfi_def_cfa_register %rbp
.Ltmp306:
	#DEBUG_VALUE:  <- $rdi
	#DEBUG_VALUE:  <- $rdi
	.loc	10 64 1 prologue_end    # /usr/lib/x86_64-linux-gnu/openmpi/include/openmpi/ompi/mpi/cxx/status.h:64:1
	movq	$_ZTVN3MPI6StatusE+16, (%rdi)
	popq	%rbp
	.cfi_def_cfa %rsp, 8
	retq
.Ltmp307:
.Lfunc_end42:
	.size	_ZN3MPI6StatusD1Ev, .Lfunc_end42-_ZN3MPI6StatusD1Ev
	.cfi_endproc
                                        # -- End function
	.weak	_ZN3MPI6StatusD0Ev      # -- Begin function _ZN3MPI6StatusD0Ev
	.p2align	4, 0x90
	.type	_ZN3MPI6StatusD0Ev,@function
_ZN3MPI6StatusD0Ev:                     # @_ZN3MPI6StatusD0Ev
.Lfunc_begin43:
	.loc	1 0 0                   # projects/Flowthrough/Flowthrough.cpp:0:0
	.cfi_startproc
# %bb.0:                                # %L.entry
	pushq	%rbp
	.cfi_def_cfa_offset 16
	.cfi_offset %rbp, -16
	movq	%rsp, %rbp
	.cfi_def_cfa_register %rbp
.Ltmp308:
	.loc	1 64 1 prologue_end     # projects/Flowthrough/Flowthrough.cpp:64:1
	movl	$32, %esi
	popq	%rbp
	.cfi_def_cfa %rsp, 8
	jmp	_ZdlPvm                 # TAILCALL
.Ltmp309:
.Lfunc_end43:
	.size	_ZN3MPI6StatusD0Ev, .Lfunc_end43-_ZN3MPI6StatusD0Ev
	.cfi_endproc
                                        # -- End function
	.weak	_ZNK3MPI6Status9Get_countERKNS_8DatatypeE # -- Begin function _ZNK3MPI6Status9Get_countERKNS_8DatatypeE
	.p2align	4, 0x90
	.type	_ZNK3MPI6Status9Get_countERKNS_8DatatypeE,@function
_ZNK3MPI6Status9Get_countERKNS_8DatatypeE: # @_ZNK3MPI6Status9Get_countERKNS_8DatatypeE
.Lfunc_begin44:
	.file	11 "/usr/lib/x86_64-linux-gnu/openmpi/include/openmpi/ompi/mpi/cxx/status_inln.h"
	.loc	11 27 0                 # /usr/lib/x86_64-linux-gnu/openmpi/include/openmpi/ompi/mpi/cxx/status_inln.h:27:0
	.cfi_startproc
# %bb.0:                                # %L.entry
	#DEBUG_VALUE: Get_count: <- $rdi
	#DEBUG_VALUE: Get_count: <- $rdi
	#DEBUG_VALUE: Get_count:datatype <- $rsi
	#DEBUG_VALUE: Get_count:datatype <- $rsi
	pushq	%rbp
	.cfi_def_cfa_offset 16
	.cfi_offset %rbp, -16
	movq	%rsp, %rbp
	.cfi_def_cfa_register %rbp
	subq	$16, %rsp
.Ltmp310:
	#DEBUG_VALUE:  <- $rdi
	#DEBUG_VALUE: datatype <- $rsi
	.loc	11 90 1 prologue_end    # /usr/lib/x86_64-linux-gnu/openmpi/include/openmpi/ompi/mpi/cxx/status_inln.h:90:1
	addq	$8, %rdi
.Ltmp311:
	movq	8(%rsi), %rsi
.Ltmp312:
	#DEBUG_VALUE: count <- [DW_OP_constu 4, DW_OP_minus, DW_OP_deref] $rbp
	.loc	11 0 1 is_stmt 0        # /usr/lib/x86_64-linux-gnu/openmpi/include/openmpi/ompi/mpi/cxx/status_inln.h:0:1
	leaq	-4(%rbp), %rdx
	.loc	11 90 1                 # /usr/lib/x86_64-linux-gnu/openmpi/include/openmpi/ompi/mpi/cxx/status_inln.h:90:1
	callq	MPI_Get_count
	.loc	11 30 1 is_stmt 1       # /usr/lib/x86_64-linux-gnu/openmpi/include/openmpi/ompi/mpi/cxx/status_inln.h:30:1
	movl	-4(%rbp), %eax
.Ltmp313:
	#DEBUG_VALUE: count <- $eax
	addq	$16, %rsp
	popq	%rbp
	.cfi_def_cfa %rsp, 8
	retq
.Ltmp314:
.Lfunc_end44:
	.size	_ZNK3MPI6Status9Get_countERKNS_8DatatypeE, .Lfunc_end44-_ZNK3MPI6Status9Get_countERKNS_8DatatypeE
	.cfi_endproc
                                        # -- End function
	.weak	_ZNK3MPI6Status12Is_cancelledEv # -- Begin function _ZNK3MPI6Status12Is_cancelledEv
	.p2align	4, 0x90
	.type	_ZNK3MPI6Status12Is_cancelledEv,@function
_ZNK3MPI6Status12Is_cancelledEv:        # @_ZNK3MPI6Status12Is_cancelledEv
.Lfunc_begin45:
	.loc	11 35 0                 # /usr/lib/x86_64-linux-gnu/openmpi/include/openmpi/ompi/mpi/cxx/status_inln.h:35:0
	.cfi_startproc
# %bb.0:                                # %L.entry
	#DEBUG_VALUE: Is_cancelled: <- $rdi
	#DEBUG_VALUE: Is_cancelled: <- $rdi
	pushq	%rbp
	.cfi_def_cfa_offset 16
	.cfi_offset %rbp, -16
	movq	%rsp, %rbp
	.cfi_def_cfa_register %rbp
	subq	$16, %rsp
.Ltmp315:
	#DEBUG_VALUE:  <- $rdi
	.loc	11 37 1 prologue_end    # /usr/lib/x86_64-linux-gnu/openmpi/include/openmpi/ompi/mpi/cxx/status_inln.h:37:1
	addq	$8, %rdi
.Ltmp316:
	#DEBUG_VALUE: t <- [DW_OP_constu 4, DW_OP_minus, DW_OP_deref] $rbp
	.loc	11 0 1 is_stmt 0        # /usr/lib/x86_64-linux-gnu/openmpi/include/openmpi/ompi/mpi/cxx/status_inln.h:0:1
	leaq	-4(%rbp), %rsi
	.loc	11 37 1                 # /usr/lib/x86_64-linux-gnu/openmpi/include/openmpi/ompi/mpi/cxx/status_inln.h:37:1
	callq	MPI_Test_cancelled
.Ltmp317:
	#DEBUG_VALUE: t <- undef
	.loc	11 38 1 is_stmt 1       # /usr/lib/x86_64-linux-gnu/openmpi/include/openmpi/ompi/mpi/cxx/status_inln.h:38:1
	cmpl	$0, -4(%rbp)
	setne	%al
	addq	$16, %rsp
	popq	%rbp
	.cfi_def_cfa %rsp, 8
	retq
.Ltmp318:
.Lfunc_end45:
	.size	_ZNK3MPI6Status12Is_cancelledEv, .Lfunc_end45-_ZNK3MPI6Status12Is_cancelledEv
	.cfi_endproc
                                        # -- End function
	.weak	_ZNK3MPI6Status12Get_elementsERKNS_8DatatypeE # -- Begin function _ZNK3MPI6Status12Get_elementsERKNS_8DatatypeE
	.p2align	4, 0x90
	.type	_ZNK3MPI6Status12Get_elementsERKNS_8DatatypeE,@function
_ZNK3MPI6Status12Get_elementsERKNS_8DatatypeE: # @_ZNK3MPI6Status12Get_elementsERKNS_8DatatypeE
.Lfunc_begin46:
	.loc	11 43 0                 # /usr/lib/x86_64-linux-gnu/openmpi/include/openmpi/ompi/mpi/cxx/status_inln.h:43:0
	.cfi_startproc
# %bb.0:                                # %L.entry
	#DEBUG_VALUE: Get_elements: <- $rdi
	#DEBUG_VALUE: Get_elements: <- $rdi
	#DEBUG_VALUE: Get_elements:datatype <- $rsi
	#DEBUG_VALUE: Get_elements:datatype <- $rsi
	pushq	%rbp
	.cfi_def_cfa_offset 16
	.cfi_offset %rbp, -16
	movq	%rsp, %rbp
	.cfi_def_cfa_register %rbp
	subq	$16, %rsp
.Ltmp319:
	#DEBUG_VALUE:  <- $rdi
	#DEBUG_VALUE: datatype <- $rsi
	.loc	11 90 1 prologue_end    # /usr/lib/x86_64-linux-gnu/openmpi/include/openmpi/ompi/mpi/cxx/status_inln.h:90:1
	addq	$8, %rdi
.Ltmp320:
	movq	8(%rsi), %rsi
.Ltmp321:
	#DEBUG_VALUE: count <- [DW_OP_constu 4, DW_OP_minus, DW_OP_deref] $rbp
	.loc	11 0 1 is_stmt 0        # /usr/lib/x86_64-linux-gnu/openmpi/include/openmpi/ompi/mpi/cxx/status_inln.h:0:1
	leaq	-4(%rbp), %rdx
	.loc	11 90 1                 # /usr/lib/x86_64-linux-gnu/openmpi/include/openmpi/ompi/mpi/cxx/status_inln.h:90:1
	callq	MPI_Get_elements
	.loc	11 46 1 is_stmt 1       # /usr/lib/x86_64-linux-gnu/openmpi/include/openmpi/ompi/mpi/cxx/status_inln.h:46:1
	movl	-4(%rbp), %eax
.Ltmp322:
	#DEBUG_VALUE: count <- $eax
	addq	$16, %rsp
	popq	%rbp
	.cfi_def_cfa %rsp, 8
	retq
.Ltmp323:
.Lfunc_end46:
	.size	_ZNK3MPI6Status12Get_elementsERKNS_8DatatypeE, .Lfunc_end46-_ZNK3MPI6Status12Get_elementsERKNS_8DatatypeE
	.cfi_endproc
                                        # -- End function
	.weak	_ZNK3MPI6Status10Get_sourceEv # -- Begin function _ZNK3MPI6Status10Get_sourceEv
	.p2align	4, 0x90
	.type	_ZNK3MPI6Status10Get_sourceEv,@function
_ZNK3MPI6Status10Get_sourceEv:          # @_ZNK3MPI6Status10Get_sourceEv
.Lfunc_begin47:
	.loc	11 54 0                 # /usr/lib/x86_64-linux-gnu/openmpi/include/openmpi/ompi/mpi/cxx/status_inln.h:54:0
	.cfi_startproc
# %bb.0:                                # %L.entry
	#DEBUG_VALUE: Get_source: <- $rdi
	#DEBUG_VALUE: Get_source: <- $rdi
	pushq	%rbp
	.cfi_def_cfa_offset 16
	.cfi_offset %rbp, -16
	movq	%rsp, %rbp
	.cfi_def_cfa_register %rbp
.Ltmp324:
	#DEBUG_VALUE:  <- $rdi
	#DEBUG_VALUE:  <- $rdi
	.loc	11 57 1 prologue_end    # /usr/lib/x86_64-linux-gnu/openmpi/include/openmpi/ompi/mpi/cxx/status_inln.h:57:1
	movl	8(%rdi), %eax
	popq	%rbp
	.cfi_def_cfa %rsp, 8
	retq
.Ltmp325:
.Lfunc_end47:
	.size	_ZNK3MPI6Status10Get_sourceEv, .Lfunc_end47-_ZNK3MPI6Status10Get_sourceEv
	.cfi_endproc
                                        # -- End function
	.weak	_ZN3MPI6Status10Set_sourceEi # -- Begin function _ZN3MPI6Status10Set_sourceEi
	.p2align	4, 0x90
	.type	_ZN3MPI6Status10Set_sourceEi,@function
_ZN3MPI6Status10Set_sourceEi:           # @_ZN3MPI6Status10Set_sourceEi
.Lfunc_begin48:
	.loc	11 62 0                 # /usr/lib/x86_64-linux-gnu/openmpi/include/openmpi/ompi/mpi/cxx/status_inln.h:62:0
	.cfi_startproc
# %bb.0:                                # %L.entry
	#DEBUG_VALUE: Set_source: <- $rdi
	#DEBUG_VALUE: Set_source: <- $rdi
	#DEBUG_VALUE: Set_source:source <- $esi
	#DEBUG_VALUE: Set_source:source <- $esi
	pushq	%rbp
	.cfi_def_cfa_offset 16
	.cfi_offset %rbp, -16
	movq	%rsp, %rbp
	.cfi_def_cfa_register %rbp
.Ltmp326:
	#DEBUG_VALUE:  <- $rdi
	#DEBUG_VALUE:  <- $rdi
	#DEBUG_VALUE: source <- $esi
	#DEBUG_VALUE: source <- $esi
	.loc	11 63 1 prologue_end    # /usr/lib/x86_64-linux-gnu/openmpi/include/openmpi/ompi/mpi/cxx/status_inln.h:63:1
	movl	%esi, 8(%rdi)
	.loc	11 64 1                 # /usr/lib/x86_64-linux-gnu/openmpi/include/openmpi/ompi/mpi/cxx/status_inln.h:64:1
	popq	%rbp
	.cfi_def_cfa %rsp, 8
	retq
.Ltmp327:
.Lfunc_end48:
	.size	_ZN3MPI6Status10Set_sourceEi, .Lfunc_end48-_ZN3MPI6Status10Set_sourceEi
	.cfi_endproc
                                        # -- End function
	.weak	_ZNK3MPI6Status7Get_tagEv # -- Begin function _ZNK3MPI6Status7Get_tagEv
	.p2align	4, 0x90
	.type	_ZNK3MPI6Status7Get_tagEv,@function
_ZNK3MPI6Status7Get_tagEv:              # @_ZNK3MPI6Status7Get_tagEv
.Lfunc_begin49:
	.loc	11 68 0                 # /usr/lib/x86_64-linux-gnu/openmpi/include/openmpi/ompi/mpi/cxx/status_inln.h:68:0
	.cfi_startproc
# %bb.0:                                # %L.entry
	#DEBUG_VALUE: Get_tag: <- $rdi
	#DEBUG_VALUE: Get_tag: <- $rdi
	pushq	%rbp
	.cfi_def_cfa_offset 16
	.cfi_offset %rbp, -16
	movq	%rsp, %rbp
	.cfi_def_cfa_register %rbp
.Ltmp328:
	#DEBUG_VALUE:  <- $rdi
	#DEBUG_VALUE:  <- $rdi
	.loc	11 71 1 prologue_end    # /usr/lib/x86_64-linux-gnu/openmpi/include/openmpi/ompi/mpi/cxx/status_inln.h:71:1
	movl	12(%rdi), %eax
	popq	%rbp
	.cfi_def_cfa %rsp, 8
	retq
.Ltmp329:
.Lfunc_end49:
	.size	_ZNK3MPI6Status7Get_tagEv, .Lfunc_end49-_ZNK3MPI6Status7Get_tagEv
	.cfi_endproc
                                        # -- End function
	.weak	_ZN3MPI6Status7Set_tagEi # -- Begin function _ZN3MPI6Status7Set_tagEi
	.p2align	4, 0x90
	.type	_ZN3MPI6Status7Set_tagEi,@function
_ZN3MPI6Status7Set_tagEi:               # @_ZN3MPI6Status7Set_tagEi
.Lfunc_begin50:
	.loc	11 76 0                 # /usr/lib/x86_64-linux-gnu/openmpi/include/openmpi/ompi/mpi/cxx/status_inln.h:76:0
	.cfi_startproc
# %bb.0:                                # %L.entry
	#DEBUG_VALUE: Set_tag: <- $rdi
	#DEBUG_VALUE: Set_tag: <- $rdi
	#DEBUG_VALUE: Set_tag:tag <- $esi
	#DEBUG_VALUE: Set_tag:tag <- $esi
	pushq	%rbp
	.cfi_def_cfa_offset 16
	.cfi_offset %rbp, -16
	movq	%rsp, %rbp
	.cfi_def_cfa_register %rbp
.Ltmp330:
	#DEBUG_VALUE:  <- $rdi
	#DEBUG_VALUE:  <- $rdi
	#DEBUG_VALUE: tag <- $esi
	#DEBUG_VALUE: tag <- $esi
	.loc	11 77 1 prologue_end    # /usr/lib/x86_64-linux-gnu/openmpi/include/openmpi/ompi/mpi/cxx/status_inln.h:77:1
	movl	%esi, 12(%rdi)
	.loc	11 78 1                 # /usr/lib/x86_64-linux-gnu/openmpi/include/openmpi/ompi/mpi/cxx/status_inln.h:78:1
	popq	%rbp
	.cfi_def_cfa %rsp, 8
	retq
.Ltmp331:
.Lfunc_end50:
	.size	_ZN3MPI6Status7Set_tagEi, .Lfunc_end50-_ZN3MPI6Status7Set_tagEi
	.cfi_endproc
                                        # -- End function
	.weak	_ZNK3MPI6Status9Get_errorEv # -- Begin function _ZNK3MPI6Status9Get_errorEv
	.p2align	4, 0x90
	.type	_ZNK3MPI6Status9Get_errorEv,@function
_ZNK3MPI6Status9Get_errorEv:            # @_ZNK3MPI6Status9Get_errorEv
.Lfunc_begin51:
	.loc	11 82 0                 # /usr/lib/x86_64-linux-gnu/openmpi/include/openmpi/ompi/mpi/cxx/status_inln.h:82:0
	.cfi_startproc
# %bb.0:                                # %L.entry
	#DEBUG_VALUE: Get_error: <- $rdi
	#DEBUG_VALUE: Get_error: <- $rdi
	pushq	%rbp
	.cfi_def_cfa_offset 16
	.cfi_offset %rbp, -16
	movq	%rsp, %rbp
	.cfi_def_cfa_register %rbp
.Ltmp332:
	#DEBUG_VALUE:  <- $rdi
	#DEBUG_VALUE:  <- $rdi
	.loc	11 85 1 prologue_end    # /usr/lib/x86_64-linux-gnu/openmpi/include/openmpi/ompi/mpi/cxx/status_inln.h:85:1
	movl	16(%rdi), %eax
	popq	%rbp
	.cfi_def_cfa %rsp, 8
	retq
.Ltmp333:
.Lfunc_end51:
	.size	_ZNK3MPI6Status9Get_errorEv, .Lfunc_end51-_ZNK3MPI6Status9Get_errorEv
	.cfi_endproc
                                        # -- End function
	.weak	_ZN3MPI6Status9Set_errorEi # -- Begin function _ZN3MPI6Status9Set_errorEi
	.p2align	4, 0x90
	.type	_ZN3MPI6Status9Set_errorEi,@function
_ZN3MPI6Status9Set_errorEi:             # @_ZN3MPI6Status9Set_errorEi
.Lfunc_begin52:
	.loc	11 90 0                 # /usr/lib/x86_64-linux-gnu/openmpi/include/openmpi/ompi/mpi/cxx/status_inln.h:90:0
	.cfi_startproc
# %bb.0:                                # %L.entry
	#DEBUG_VALUE: Set_error: <- $rdi
	#DEBUG_VALUE: Set_error: <- $rdi
	#DEBUG_VALUE: Set_error:error <- $esi
	#DEBUG_VALUE: Set_error:error <- $esi
	pushq	%rbp
	.cfi_def_cfa_offset 16
	.cfi_offset %rbp, -16
	movq	%rsp, %rbp
	.cfi_def_cfa_register %rbp
.Ltmp334:
	#DEBUG_VALUE:  <- $rdi
	#DEBUG_VALUE:  <- $rdi
	#DEBUG_VALUE: error <- $esi
	#DEBUG_VALUE: error <- $esi
	.loc	11 91 1 prologue_end    # /usr/lib/x86_64-linux-gnu/openmpi/include/openmpi/ompi/mpi/cxx/status_inln.h:91:1
	movl	%esi, 16(%rdi)
	.loc	11 92 1                 # /usr/lib/x86_64-linux-gnu/openmpi/include/openmpi/ompi/mpi/cxx/status_inln.h:92:1
	popq	%rbp
	.cfi_def_cfa %rsp, 8
	retq
.Ltmp335:
.Lfunc_end52:
	.size	_ZN3MPI6Status9Set_errorEi, .Lfunc_end52-_ZN3MPI6Status9Set_errorEi
	.cfi_endproc
                                        # -- End function
	.weak	_ZN3MPI6Status12Set_elementsERKNS_8DatatypeEi # -- Begin function _ZN3MPI6Status12Set_elementsERKNS_8DatatypeEi
	.p2align	4, 0x90
	.type	_ZN3MPI6Status12Set_elementsERKNS_8DatatypeEi,@function
_ZN3MPI6Status12Set_elementsERKNS_8DatatypeEi: # @_ZN3MPI6Status12Set_elementsERKNS_8DatatypeEi
.Lfunc_begin53:
	.loc	11 96 0                 # /usr/lib/x86_64-linux-gnu/openmpi/include/openmpi/ompi/mpi/cxx/status_inln.h:96:0
	.cfi_startproc
# %bb.0:                                # %L.entry
	#DEBUG_VALUE: Set_elements: <- $rdi
	#DEBUG_VALUE: Set_elements: <- $rdi
	#DEBUG_VALUE: Set_elements:datatype <- $rsi
	#DEBUG_VALUE: Set_elements:datatype <- $rsi
	#DEBUG_VALUE: Set_elements:count <- $edx
	#DEBUG_VALUE: Set_elements:count <- $edx
	pushq	%rbp
	.cfi_def_cfa_offset 16
	.cfi_offset %rbp, -16
	movq	%rsp, %rbp
	.cfi_def_cfa_register %rbp
.Ltmp336:
	#DEBUG_VALUE:  <- $rdi
	#DEBUG_VALUE:  <- $rdi
	#DEBUG_VALUE: datatype <- $rsi
	#DEBUG_VALUE: datatype <- $rsi
	#DEBUG_VALUE: count <- $edx
	#DEBUG_VALUE: count <- $edx
	.loc	11 90 1 prologue_end    # /usr/lib/x86_64-linux-gnu/openmpi/include/openmpi/ompi/mpi/cxx/status_inln.h:90:1
	addq	$8, %rdi
.Ltmp337:
	movq	8(%rsi), %rsi
.Ltmp338:
	#DEBUG_VALUE: count <- $edx
	#DEBUG_VALUE: Set_elements:count <- $edx
	popq	%rbp
	.cfi_def_cfa %rsp, 8
	jmp	MPI_Status_set_elements # TAILCALL
.Ltmp339:
.Lfunc_end53:
	.size	_ZN3MPI6Status12Set_elementsERKNS_8DatatypeEi, .Lfunc_end53-_ZN3MPI6Status12Set_elementsERKNS_8DatatypeEi
	.cfi_endproc
                                        # -- End function
	.weak	_ZN3MPI6Status13Set_cancelledEb # -- Begin function _ZN3MPI6Status13Set_cancelledEb
	.p2align	4, 0x90
	.type	_ZN3MPI6Status13Set_cancelledEb,@function
_ZN3MPI6Status13Set_cancelledEb:        # @_ZN3MPI6Status13Set_cancelledEb
.Lfunc_begin54:
	.loc	11 102 0                # /usr/lib/x86_64-linux-gnu/openmpi/include/openmpi/ompi/mpi/cxx/status_inln.h:102:0
	.cfi_startproc
# %bb.0:                                # %L.entry
	#DEBUG_VALUE: Set_cancelled: <- $rdi
	#DEBUG_VALUE: Set_cancelled: <- $rdi
	#DEBUG_VALUE: Set_cancelled:flag <- $esi
	#DEBUG_VALUE: Set_cancelled:flag <- $esi
	pushq	%rbp
	.cfi_def_cfa_offset 16
	.cfi_offset %rbp, -16
	movq	%rsp, %rbp
	.cfi_def_cfa_register %rbp
.Ltmp340:
	#DEBUG_VALUE:  <- $rdi
	#DEBUG_VALUE:  <- $rdi
	#DEBUG_VALUE: flag <- $esi
	#DEBUG_VALUE: flag <- $esi
	.loc	11 103 1 prologue_end   # /usr/lib/x86_64-linux-gnu/openmpi/include/openmpi/ompi/mpi/cxx/status_inln.h:103:1
	addq	$8, %rdi
.Ltmp341:
	#DEBUG_VALUE: flag <- $esi
	#DEBUG_VALUE: Set_cancelled:flag <- $esi
	popq	%rbp
	.cfi_def_cfa %rsp, 8
	jmp	MPI_Status_set_cancelled # TAILCALL
.Ltmp342:
.Lfunc_end54:
	.size	_ZN3MPI6Status13Set_cancelledEb, .Lfunc_end54-_ZN3MPI6Status13Set_cancelledEb
	.cfi_endproc
                                        # -- End function
	.weak	_ZN3MPI7RequestD1Ev     # -- Begin function _ZN3MPI7RequestD1Ev
	.p2align	4, 0x90
	.type	_ZN3MPI7RequestD1Ev,@function
_ZN3MPI7RequestD1Ev:                    # @_ZN3MPI7RequestD1Ev
.Lfunc_begin55:
	.file	12 "/usr/lib/x86_64-linux-gnu/openmpi/include/openmpi/ompi/mpi/cxx/request.h"
	.loc	12 61 0                 # /usr/lib/x86_64-linux-gnu/openmpi/include/openmpi/ompi/mpi/cxx/request.h:61:0
	.cfi_startproc
# %bb.0:                                # %L.entry
	#DEBUG_VALUE: ~Request: <- $rdi
	#DEBUG_VALUE: ~Request: <- $rdi
	pushq	%rbp
	.cfi_def_cfa_offset 16
	.cfi_offset %rbp, -16
	movq	%rsp, %rbp
	.cfi_def_cfa_register %rbp
.Ltmp343:
	#DEBUG_VALUE:  <- $rdi
	#DEBUG_VALUE:  <- $rdi
	.loc	12 61 1 prologue_end    # /usr/lib/x86_64-linux-gnu/openmpi/include/openmpi/ompi/mpi/cxx/request.h:61:1
	movq	$_ZTVN3MPI7RequestE+16, (%rdi)
	popq	%rbp
	.cfi_def_cfa %rsp, 8
	retq
.Ltmp344:
.Lfunc_end55:
	.size	_ZN3MPI7RequestD1Ev, .Lfunc_end55-_ZN3MPI7RequestD1Ev
	.cfi_endproc
                                        # -- End function
	.weak	_ZN3MPI7RequestD0Ev     # -- Begin function _ZN3MPI7RequestD0Ev
	.p2align	4, 0x90
	.type	_ZN3MPI7RequestD0Ev,@function
_ZN3MPI7RequestD0Ev:                    # @_ZN3MPI7RequestD0Ev
.Lfunc_begin56:
	.loc	1 0 0                   # projects/Flowthrough/Flowthrough.cpp:0:0
	.cfi_startproc
# %bb.0:                                # %L.entry
	pushq	%rbp
	.cfi_def_cfa_offset 16
	.cfi_offset %rbp, -16
	movq	%rsp, %rbp
	.cfi_def_cfa_register %rbp
.Ltmp345:
	.loc	1 61 1 prologue_end     # projects/Flowthrough/Flowthrough.cpp:61:1
	movl	$16, %esi
	popq	%rbp
	.cfi_def_cfa %rsp, 8
	jmp	_ZdlPvm                 # TAILCALL
.Ltmp346:
.Lfunc_end56:
	.size	_ZN3MPI7RequestD0Ev, .Lfunc_end56-_ZN3MPI7RequestD0Ev
	.cfi_endproc
                                        # -- End function
	.weak	_ZN3MPI7Request4WaitERNS_6StatusE # -- Begin function _ZN3MPI7Request4WaitERNS_6StatusE
	.p2align	4, 0x90
	.type	_ZN3MPI7Request4WaitERNS_6StatusE,@function
_ZN3MPI7Request4WaitERNS_6StatusE:      # @_ZN3MPI7Request4WaitERNS_6StatusE
.Lfunc_begin57:
	.file	13 "/usr/lib/x86_64-linux-gnu/openmpi/include/openmpi/ompi/mpi/cxx/request_inln.h"
	.loc	13 28 0                 # /usr/lib/x86_64-linux-gnu/openmpi/include/openmpi/ompi/mpi/cxx/request_inln.h:28:0
	.cfi_startproc
# %bb.0:                                # %L.entry
	#DEBUG_VALUE: Wait: <- $rdi
	#DEBUG_VALUE: Wait: <- $rdi
	#DEBUG_VALUE: Wait:status <- $rsi
	#DEBUG_VALUE: Wait:status <- $rsi
	pushq	%rbp
	.cfi_def_cfa_offset 16
	.cfi_offset %rbp, -16
	movq	%rsp, %rbp
	.cfi_def_cfa_register %rbp
.Ltmp347:
	#DEBUG_VALUE:  <- $rdi
	#DEBUG_VALUE:  <- $rdi
	#DEBUG_VALUE: status <- $rsi
	#DEBUG_VALUE: status <- $rsi
	.loc	13 29 1 prologue_end    # /usr/lib/x86_64-linux-gnu/openmpi/include/openmpi/ompi/mpi/cxx/request_inln.h:29:1
	addq	$8, %rdi
.Ltmp348:
	addq	$8, %rsi
.Ltmp349:
	popq	%rbp
	.cfi_def_cfa %rsp, 8
	jmp	MPI_Wait                # TAILCALL
.Ltmp350:
.Lfunc_end57:
	.size	_ZN3MPI7Request4WaitERNS_6StatusE, .Lfunc_end57-_ZN3MPI7Request4WaitERNS_6StatusE
	.cfi_endproc
                                        # -- End function
	.weak	_ZN3MPI7Request4WaitEv  # -- Begin function _ZN3MPI7Request4WaitEv
	.p2align	4, 0x90
	.type	_ZN3MPI7Request4WaitEv,@function
_ZN3MPI7Request4WaitEv:                 # @_ZN3MPI7Request4WaitEv
.Lfunc_begin58:
	.loc	13 34 0                 # /usr/lib/x86_64-linux-gnu/openmpi/include/openmpi/ompi/mpi/cxx/request_inln.h:34:0
	.cfi_startproc
# %bb.0:                                # %L.entry
	#DEBUG_VALUE: Wait: <- $rdi
	#DEBUG_VALUE: Wait: <- $rdi
	pushq	%rbp
	.cfi_def_cfa_offset 16
	.cfi_offset %rbp, -16
	movq	%rsp, %rbp
	.cfi_def_cfa_register %rbp
.Ltmp351:
	#DEBUG_VALUE:  <- $rdi
	#DEBUG_VALUE:  <- $rdi
	.loc	13 35 1 prologue_end    # /usr/lib/x86_64-linux-gnu/openmpi/include/openmpi/ompi/mpi/cxx/request_inln.h:35:1
	addq	$8, %rdi
.Ltmp352:
	xorl	%esi, %esi
	popq	%rbp
	.cfi_def_cfa %rsp, 8
	jmp	MPI_Wait                # TAILCALL
.Ltmp353:
.Lfunc_end58:
	.size	_ZN3MPI7Request4WaitEv, .Lfunc_end58-_ZN3MPI7Request4WaitEv
	.cfi_endproc
                                        # -- End function
	.weak	_ZN3MPI7Request4TestERNS_6StatusE # -- Begin function _ZN3MPI7Request4TestERNS_6StatusE
	.p2align	4, 0x90
	.type	_ZN3MPI7Request4TestERNS_6StatusE,@function
_ZN3MPI7Request4TestERNS_6StatusE:      # @_ZN3MPI7Request4TestERNS_6StatusE
.Lfunc_begin59:
	.loc	13 46 0                 # /usr/lib/x86_64-linux-gnu/openmpi/include/openmpi/ompi/mpi/cxx/request_inln.h:46:0
	.cfi_startproc
# %bb.0:                                # %L.entry
	#DEBUG_VALUE: Test: <- $rdi
	#DEBUG_VALUE: Test: <- $rdi
	#DEBUG_VALUE: Test:status <- $rsi
	#DEBUG_VALUE: Test:status <- $rsi
	pushq	%rbp
	.cfi_def_cfa_offset 16
	.cfi_offset %rbp, -16
	movq	%rsp, %rbp
	.cfi_def_cfa_register %rbp
	subq	$16, %rsp
.Ltmp354:
	#DEBUG_VALUE:  <- $rdi
	#DEBUG_VALUE: status <- $rsi
	.loc	13 48 1 prologue_end    # /usr/lib/x86_64-linux-gnu/openmpi/include/openmpi/ompi/mpi/cxx/request_inln.h:48:1
	addq	$8, %rdi
.Ltmp355:
	leaq	8(%rsi), %rdx
.Ltmp356:
	#DEBUG_VALUE: t <- [DW_OP_constu 4, DW_OP_minus, DW_OP_deref] $rbp
	.loc	13 0 1 is_stmt 0        # /usr/lib/x86_64-linux-gnu/openmpi/include/openmpi/ompi/mpi/cxx/request_inln.h:0:1
	leaq	-4(%rbp), %rsi
.Ltmp357:
	.loc	13 48 1                 # /usr/lib/x86_64-linux-gnu/openmpi/include/openmpi/ompi/mpi/cxx/request_inln.h:48:1
	callq	MPI_Test
.Ltmp358:
	#DEBUG_VALUE: t <- undef
	.loc	13 49 1 is_stmt 1       # /usr/lib/x86_64-linux-gnu/openmpi/include/openmpi/ompi/mpi/cxx/request_inln.h:49:1
	cmpl	$0, -4(%rbp)
	setne	%al
	addq	$16, %rsp
	popq	%rbp
	.cfi_def_cfa %rsp, 8
	retq
.Ltmp359:
.Lfunc_end59:
	.size	_ZN3MPI7Request4TestERNS_6StatusE, .Lfunc_end59-_ZN3MPI7Request4TestERNS_6StatusE
	.cfi_endproc
                                        # -- End function
	.weak	_ZN3MPI7Request4TestEv  # -- Begin function _ZN3MPI7Request4TestEv
	.p2align	4, 0x90
	.type	_ZN3MPI7Request4TestEv,@function
_ZN3MPI7Request4TestEv:                 # @_ZN3MPI7Request4TestEv
.Lfunc_begin60:
	.loc	13 54 0                 # /usr/lib/x86_64-linux-gnu/openmpi/include/openmpi/ompi/mpi/cxx/request_inln.h:54:0
	.cfi_startproc
# %bb.0:                                # %L.entry
	#DEBUG_VALUE: Test: <- $rdi
	#DEBUG_VALUE: Test: <- $rdi
	pushq	%rbp
	.cfi_def_cfa_offset 16
	.cfi_offset %rbp, -16
	movq	%rsp, %rbp
	.cfi_def_cfa_register %rbp
	subq	$16, %rsp
.Ltmp360:
	#DEBUG_VALUE:  <- $rdi
	.loc	13 56 1 prologue_end    # /usr/lib/x86_64-linux-gnu/openmpi/include/openmpi/ompi/mpi/cxx/request_inln.h:56:1
	addq	$8, %rdi
.Ltmp361:
	#DEBUG_VALUE: t <- [DW_OP_constu 4, DW_OP_minus, DW_OP_deref] $rbp
	.loc	13 0 1 is_stmt 0        # /usr/lib/x86_64-linux-gnu/openmpi/include/openmpi/ompi/mpi/cxx/request_inln.h:0:1
	leaq	-4(%rbp), %rsi
	.loc	13 56 1                 # /usr/lib/x86_64-linux-gnu/openmpi/include/openmpi/ompi/mpi/cxx/request_inln.h:56:1
	xorl	%edx, %edx
	callq	MPI_Test
.Ltmp362:
	#DEBUG_VALUE: t <- undef
	.loc	13 57 1 is_stmt 1       # /usr/lib/x86_64-linux-gnu/openmpi/include/openmpi/ompi/mpi/cxx/request_inln.h:57:1
	cmpl	$0, -4(%rbp)
	setne	%al
	addq	$16, %rsp
	popq	%rbp
	.cfi_def_cfa %rsp, 8
	retq
.Ltmp363:
.Lfunc_end60:
	.size	_ZN3MPI7Request4TestEv, .Lfunc_end60-_ZN3MPI7Request4TestEv
	.cfi_endproc
                                        # -- End function
	.weak	_ZN3MPI7Request4FreeEv  # -- Begin function _ZN3MPI7Request4FreeEv
	.p2align	4, 0x90
	.type	_ZN3MPI7Request4FreeEv,@function
_ZN3MPI7Request4FreeEv:                 # @_ZN3MPI7Request4FreeEv
.Lfunc_begin61:
	.loc	13 40 0                 # /usr/lib/x86_64-linux-gnu/openmpi/include/openmpi/ompi/mpi/cxx/request_inln.h:40:0
	.cfi_startproc
# %bb.0:                                # %L.entry
	#DEBUG_VALUE: Free: <- $rdi
	#DEBUG_VALUE: Free: <- $rdi
	pushq	%rbp
	.cfi_def_cfa_offset 16
	.cfi_offset %rbp, -16
	movq	%rsp, %rbp
	.cfi_def_cfa_register %rbp
.Ltmp364:
	#DEBUG_VALUE:  <- $rdi
	#DEBUG_VALUE:  <- $rdi
	.loc	13 41 1 prologue_end    # /usr/lib/x86_64-linux-gnu/openmpi/include/openmpi/ompi/mpi/cxx/request_inln.h:41:1
	addq	$8, %rdi
.Ltmp365:
	popq	%rbp
	.cfi_def_cfa %rsp, 8
	jmp	MPI_Request_free        # TAILCALL
.Ltmp366:
.Lfunc_end61:
	.size	_ZN3MPI7Request4FreeEv, .Lfunc_end61-_ZN3MPI7Request4FreeEv
	.cfi_endproc
                                        # -- End function
	.weak	_ZNK3MPI7Request6CancelEv # -- Begin function _ZNK3MPI7Request6CancelEv
	.p2align	4, 0x90
	.type	_ZNK3MPI7Request6CancelEv,@function
_ZNK3MPI7Request6CancelEv:              # @_ZNK3MPI7Request6CancelEv
.Lfunc_begin62:
	.loc	13 289 0                # /usr/lib/x86_64-linux-gnu/openmpi/include/openmpi/ompi/mpi/cxx/request_inln.h:289:0
	.cfi_startproc
# %bb.0:                                # %L.entry
	#DEBUG_VALUE: Cancel: <- $rdi
	#DEBUG_VALUE: Cancel: <- $rdi
	pushq	%rbp
	.cfi_def_cfa_offset 16
	.cfi_offset %rbp, -16
	movq	%rsp, %rbp
	.cfi_def_cfa_register %rbp
.Ltmp367:
	#DEBUG_VALUE:  <- $rdi
	#DEBUG_VALUE:  <- $rdi
	.loc	13 290 1 prologue_end   # /usr/lib/x86_64-linux-gnu/openmpi/include/openmpi/ompi/mpi/cxx/request_inln.h:290:1
	addq	$8, %rdi
.Ltmp368:
	popq	%rbp
	.cfi_def_cfa %rsp, 8
	jmp	MPI_Cancel              # TAILCALL
.Ltmp369:
.Lfunc_end62:
	.size	_ZNK3MPI7Request6CancelEv, .Lfunc_end62-_ZNK3MPI7Request6CancelEv
	.cfi_endproc
                                        # -- End function
	.weak	_ZNK3MPI7Request10Get_statusERNS_6StatusE # -- Begin function _ZNK3MPI7Request10Get_statusERNS_6StatusE
	.p2align	4, 0x90
	.type	_ZNK3MPI7Request10Get_statusERNS_6StatusE,@function
_ZNK3MPI7Request10Get_statusERNS_6StatusE: # @_ZNK3MPI7Request10Get_statusERNS_6StatusE
.Lfunc_begin63:
	.loc	13 316 0                # /usr/lib/x86_64-linux-gnu/openmpi/include/openmpi/ompi/mpi/cxx/request_inln.h:316:0
	.cfi_startproc
# %bb.0:                                # %L.entry
	#DEBUG_VALUE: Get_status: <- $rdi
	#DEBUG_VALUE: Get_status:status <- $rsi
	pushq	%rbp
	.cfi_def_cfa_offset 16
	.cfi_offset %rbp, -16
	movq	%rsp, %rbp
	.cfi_def_cfa_register %rbp
	pushq	%rbx
	subq	$40, %rsp
	.cfi_offset %rbx, -24
	movq	%rsi, %rbx
.Ltmp370:
	#DEBUG_VALUE: flag <- 0
	#DEBUG_VALUE: status <- undef
	#DEBUG_VALUE:  <- $rdi
	#DEBUG_VALUE: Get_status:status <- $rbx
	#DEBUG_VALUE: Get_status: <- $rdi
	.loc	13 317 1 prologue_end   # /usr/lib/x86_64-linux-gnu/openmpi/include/openmpi/ompi/mpi/cxx/request_inln.h:317:1
	movl	$0, -12(%rbp)
	.loc	13 323 1                # /usr/lib/x86_64-linux-gnu/openmpi/include/openmpi/ompi/mpi/cxx/request_inln.h:323:1
	movq	8(%rdi), %rdi
.Ltmp371:
	#DEBUG_VALUE: flag <- [DW_OP_constu 12, DW_OP_minus, DW_OP_deref] $rbp
	.loc	13 0 1 is_stmt 0        # /usr/lib/x86_64-linux-gnu/openmpi/include/openmpi/ompi/mpi/cxx/request_inln.h:0:1
	leaq	-12(%rbp), %rsi
	leaq	-48(%rbp), %rdx
	.loc	13 323 1                # /usr/lib/x86_64-linux-gnu/openmpi/include/openmpi/ompi/mpi/cxx/request_inln.h:323:1
	callq	MPI_Request_get_status
	.loc	13 324 1 is_stmt 1      # /usr/lib/x86_64-linux-gnu/openmpi/include/openmpi/ompi/mpi/cxx/request_inln.h:324:1
	movl	-12(%rbp), %eax
.Ltmp372:
	#DEBUG_VALUE: flag <- $eax
	testl	%eax, %eax
	je	.LBB63_2
.Ltmp373:
# %bb.1:                                # %L.B2385
	#DEBUG_VALUE: flag <- $eax
	#DEBUG_VALUE: Get_status:status <- $rbx
	.loc	13 325 1                # /usr/lib/x86_64-linux-gnu/openmpi/include/openmpi/ompi/mpi/cxx/request_inln.h:325:1
	vmovaps	-48(%rbp), %xmm0
	vmovups	%xmm0, 8(%rbx)
	movq	-32(%rbp), %rcx
	movq	%rcx, 24(%rbx)
.Ltmp374:
.LBB63_2:                               # %L.B0067
	#DEBUG_VALUE: flag <- $eax
	#DEBUG_VALUE: Get_status:status <- $rbx
	#DEBUG_VALUE: flag <- $eax
	.loc	13 327 1                # /usr/lib/x86_64-linux-gnu/openmpi/include/openmpi/ompi/mpi/cxx/request_inln.h:327:1
	testl	%eax, %eax
	setne	%al
.Ltmp375:
	addq	$40, %rsp
	popq	%rbx
.Ltmp376:
	popq	%rbp
	.cfi_def_cfa %rsp, 8
	retq
.Ltmp377:
.Lfunc_end63:
	.size	_ZNK3MPI7Request10Get_statusERNS_6StatusE, .Lfunc_end63-_ZNK3MPI7Request10Get_statusERNS_6StatusE
	.cfi_endproc
                                        # -- End function
	.weak	_ZNK3MPI7Request10Get_statusEv # -- Begin function _ZNK3MPI7Request10Get_statusEv
	.p2align	4, 0x90
	.type	_ZNK3MPI7Request10Get_statusEv,@function
_ZNK3MPI7Request10Get_statusEv:         # @_ZNK3MPI7Request10Get_statusEv
.Lfunc_begin64:
	.loc	13 331 0                # /usr/lib/x86_64-linux-gnu/openmpi/include/openmpi/ompi/mpi/cxx/request_inln.h:331:0
	.cfi_startproc
# %bb.0:                                # %L.entry
	#DEBUG_VALUE: Get_status: <- $rdi
	#DEBUG_VALUE: Get_status: <- $rdi
	pushq	%rbp
	.cfi_def_cfa_offset 16
	.cfi_offset %rbp, -16
	movq	%rsp, %rbp
	.cfi_def_cfa_register %rbp
	subq	$16, %rsp
.Ltmp378:
	#DEBUG_VALUE:  <- $rdi
	.loc	13 337 1 prologue_end   # /usr/lib/x86_64-linux-gnu/openmpi/include/openmpi/ompi/mpi/cxx/request_inln.h:337:1
	movq	8(%rdi), %rdi
.Ltmp379:
	#DEBUG_VALUE: flag <- [DW_OP_constu 4, DW_OP_minus, DW_OP_deref] $rbp
	.loc	13 0 1 is_stmt 0        # /usr/lib/x86_64-linux-gnu/openmpi/include/openmpi/ompi/mpi/cxx/request_inln.h:0:1
	leaq	-4(%rbp), %rsi
	.loc	13 337 1                # /usr/lib/x86_64-linux-gnu/openmpi/include/openmpi/ompi/mpi/cxx/request_inln.h:337:1
	xorl	%edx, %edx
	callq	MPI_Request_get_status
.Ltmp380:
	#DEBUG_VALUE: flag <- undef
	.loc	13 338 1 is_stmt 1      # /usr/lib/x86_64-linux-gnu/openmpi/include/openmpi/ompi/mpi/cxx/request_inln.h:338:1
	cmpl	$0, -4(%rbp)
	setne	%al
	addq	$16, %rsp
	popq	%rbp
	.cfi_def_cfa %rsp, 8
	retq
.Ltmp381:
.Lfunc_end64:
	.size	_ZNK3MPI7Request10Get_statusEv, .Lfunc_end64-_ZNK3MPI7Request10Get_statusEv
	.cfi_endproc
                                        # -- End function
	.weak	_ZN3MPI8PrequestD1Ev    # -- Begin function _ZN3MPI8PrequestD1Ev
	.p2align	4, 0x90
	.type	_ZN3MPI8PrequestD1Ev,@function
_ZN3MPI8PrequestD1Ev:                   # @_ZN3MPI8PrequestD1Ev
.Lfunc_begin65:
	.loc	12 177 0                # /usr/lib/x86_64-linux-gnu/openmpi/include/openmpi/ompi/mpi/cxx/request.h:177:0
	.cfi_startproc
# %bb.0:                                # %L.entry
	#DEBUG_VALUE: ~Prequest: <- $rdi
	#DEBUG_VALUE: ~Prequest: <- $rdi
	pushq	%rbp
	.cfi_def_cfa_offset 16
	.cfi_offset %rbp, -16
	movq	%rsp, %rbp
	.cfi_def_cfa_register %rbp
.Ltmp382:
	#DEBUG_VALUE:  <- $rdi
	#DEBUG_VALUE:  <- $rdi
	.loc	12 177 1 prologue_end   # /usr/lib/x86_64-linux-gnu/openmpi/include/openmpi/ompi/mpi/cxx/request.h:177:1
	movq	$_ZTVN3MPI7RequestE+16, (%rdi)
	popq	%rbp
	.cfi_def_cfa %rsp, 8
	retq
.Ltmp383:
.Lfunc_end65:
	.size	_ZN3MPI8PrequestD1Ev, .Lfunc_end65-_ZN3MPI8PrequestD1Ev
	.cfi_endproc
                                        # -- End function
	.weak	_ZN3MPI8PrequestD0Ev    # -- Begin function _ZN3MPI8PrequestD0Ev
	.p2align	4, 0x90
	.type	_ZN3MPI8PrequestD0Ev,@function
_ZN3MPI8PrequestD0Ev:                   # @_ZN3MPI8PrequestD0Ev
.Lfunc_begin66:
	.loc	1 0 0                   # projects/Flowthrough/Flowthrough.cpp:0:0
	.cfi_startproc
# %bb.0:                                # %L.entry
	pushq	%rbp
	.cfi_def_cfa_offset 16
	.cfi_offset %rbp, -16
	movq	%rsp, %rbp
	.cfi_def_cfa_register %rbp
.Ltmp384:
	.loc	1 177 1 prologue_end    # projects/Flowthrough/Flowthrough.cpp:177:1
	movl	$16, %esi
	popq	%rbp
	.cfi_def_cfa %rsp, 8
	jmp	_ZdlPvm                 # TAILCALL
.Ltmp385:
.Lfunc_end66:
	.size	_ZN3MPI8PrequestD0Ev, .Lfunc_end66-_ZN3MPI8PrequestD0Ev
	.cfi_endproc
                                        # -- End function
	.weak	_ZN3MPI8Prequest5StartEv # -- Begin function _ZN3MPI8Prequest5StartEv
	.p2align	4, 0x90
	.type	_ZN3MPI8Prequest5StartEv,@function
_ZN3MPI8Prequest5StartEv:               # @_ZN3MPI8Prequest5StartEv
.Lfunc_begin67:
	.loc	13 295 0                # /usr/lib/x86_64-linux-gnu/openmpi/include/openmpi/ompi/mpi/cxx/request_inln.h:295:0
	.cfi_startproc
# %bb.0:                                # %L.entry
	#DEBUG_VALUE: Start: <- $rdi
	#DEBUG_VALUE: Start: <- $rdi
	pushq	%rbp
	.cfi_def_cfa_offset 16
	.cfi_offset %rbp, -16
	movq	%rsp, %rbp
	.cfi_def_cfa_register %rbp
.Ltmp386:
	#DEBUG_VALUE:  <- $rdi
	#DEBUG_VALUE:  <- $rdi
	.loc	13 296 1 prologue_end   # /usr/lib/x86_64-linux-gnu/openmpi/include/openmpi/ompi/mpi/cxx/request_inln.h:296:1
	addq	$8, %rdi
.Ltmp387:
	popq	%rbp
	.cfi_def_cfa %rsp, 8
	jmp	MPI_Start               # TAILCALL
.Ltmp388:
.Lfunc_end67:
	.size	_ZN3MPI8Prequest5StartEv, .Lfunc_end67-_ZN3MPI8Prequest5StartEv
	.cfi_endproc
                                        # -- End function
	.weak	_ZN3MPI8GrequestD1Ev    # -- Begin function _ZN3MPI8GrequestD1Ev
	.p2align	4, 0x90
	.type	_ZN3MPI8GrequestD1Ev,@function
_ZN3MPI8GrequestD1Ev:                   # @_ZN3MPI8GrequestD1Ev
.Lfunc_begin68:
	.loc	12 209 0                # /usr/lib/x86_64-linux-gnu/openmpi/include/openmpi/ompi/mpi/cxx/request.h:209:0
	.cfi_startproc
# %bb.0:                                # %L.entry
	#DEBUG_VALUE: ~Grequest: <- $rdi
	#DEBUG_VALUE: ~Grequest: <- $rdi
	pushq	%rbp
	.cfi_def_cfa_offset 16
	.cfi_offset %rbp, -16
	movq	%rsp, %rbp
	.cfi_def_cfa_register %rbp
.Ltmp389:
	#DEBUG_VALUE:  <- $rdi
	#DEBUG_VALUE:  <- $rdi
	.loc	12 209 1 prologue_end   # /usr/lib/x86_64-linux-gnu/openmpi/include/openmpi/ompi/mpi/cxx/request.h:209:1
	movq	$_ZTVN3MPI7RequestE+16, (%rdi)
	popq	%rbp
	.cfi_def_cfa %rsp, 8
	retq
.Ltmp390:
.Lfunc_end68:
	.size	_ZN3MPI8GrequestD1Ev, .Lfunc_end68-_ZN3MPI8GrequestD1Ev
	.cfi_endproc
                                        # -- End function
	.weak	_ZN3MPI8GrequestD0Ev    # -- Begin function _ZN3MPI8GrequestD0Ev
	.p2align	4, 0x90
	.type	_ZN3MPI8GrequestD0Ev,@function
_ZN3MPI8GrequestD0Ev:                   # @_ZN3MPI8GrequestD0Ev
.Lfunc_begin69:
	.loc	1 0 0                   # projects/Flowthrough/Flowthrough.cpp:0:0
	.cfi_startproc
# %bb.0:                                # %L.entry
	pushq	%rbp
	.cfi_def_cfa_offset 16
	.cfi_offset %rbp, -16
	movq	%rsp, %rbp
	.cfi_def_cfa_register %rbp
.Ltmp391:
	.loc	1 209 1 prologue_end    # projects/Flowthrough/Flowthrough.cpp:209:1
	movl	$16, %esi
	popq	%rbp
	.cfi_def_cfa %rsp, 8
	jmp	_ZdlPvm                 # TAILCALL
.Ltmp392:
.Lfunc_end69:
	.size	_ZN3MPI8GrequestD0Ev, .Lfunc_end69-_ZN3MPI8GrequestD0Ev
	.cfi_endproc
                                        # -- End function
	.weak	_ZN3MPI8Grequest8CompleteEv # -- Begin function _ZN3MPI8Grequest8CompleteEv
	.p2align	4, 0x90
	.type	_ZN3MPI8Grequest8CompleteEv,@function
_ZN3MPI8Grequest8CompleteEv:            # @_ZN3MPI8Grequest8CompleteEv
.Lfunc_begin70:
	.loc	13 363 0                # /usr/lib/x86_64-linux-gnu/openmpi/include/openmpi/ompi/mpi/cxx/request_inln.h:363:0
	.cfi_startproc
# %bb.0:                                # %L.entry
	#DEBUG_VALUE: Complete: <- $rdi
	#DEBUG_VALUE: Complete: <- $rdi
	pushq	%rbp
	.cfi_def_cfa_offset 16
	.cfi_offset %rbp, -16
	movq	%rsp, %rbp
	.cfi_def_cfa_register %rbp
.Ltmp393:
	#DEBUG_VALUE:  <- $rdi
	#DEBUG_VALUE:  <- $rdi
	.loc	13 364 1 prologue_end   # /usr/lib/x86_64-linux-gnu/openmpi/include/openmpi/ompi/mpi/cxx/request_inln.h:364:1
	movq	8(%rdi), %rdi
.Ltmp394:
	popq	%rbp
	.cfi_def_cfa %rsp, 8
	jmp	MPI_Grequest_complete   # TAILCALL
.Ltmp395:
.Lfunc_end70:
	.size	_ZN3MPI8Grequest8CompleteEv, .Lfunc_end70-_ZN3MPI8Grequest8CompleteEv
	.cfi_endproc
                                        # -- End function
	.weak	_ZN3MPI5GroupD1Ev       # -- Begin function _ZN3MPI5GroupD1Ev
	.p2align	4, 0x90
	.type	_ZN3MPI5GroupD1Ev,@function
_ZN3MPI5GroupD1Ev:                      # @_ZN3MPI5GroupD1Ev
.Lfunc_begin71:
	.file	14 "/usr/lib/x86_64-linux-gnu/openmpi/include/openmpi/ompi/mpi/cxx/group.h"
	.loc	14 67 0                 # /usr/lib/x86_64-linux-gnu/openmpi/include/openmpi/ompi/mpi/cxx/group.h:67:0
	.cfi_startproc
# %bb.0:                                # %L.entry
	#DEBUG_VALUE: ~Group: <- $rdi
	#DEBUG_VALUE: ~Group: <- $rdi
	pushq	%rbp
	.cfi_def_cfa_offset 16
	.cfi_offset %rbp, -16
	movq	%rsp, %rbp
	.cfi_def_cfa_register %rbp
.Ltmp396:
	#DEBUG_VALUE:  <- $rdi
	#DEBUG_VALUE:  <- $rdi
	.loc	14 67 1 prologue_end    # /usr/lib/x86_64-linux-gnu/openmpi/include/openmpi/ompi/mpi/cxx/group.h:67:1
	movq	$_ZTVN3MPI5GroupE+16, (%rdi)
	popq	%rbp
	.cfi_def_cfa %rsp, 8
	retq
.Ltmp397:
.Lfunc_end71:
	.size	_ZN3MPI5GroupD1Ev, .Lfunc_end71-_ZN3MPI5GroupD1Ev
	.cfi_endproc
                                        # -- End function
	.weak	_ZN3MPI5GroupD0Ev       # -- Begin function _ZN3MPI5GroupD0Ev
	.p2align	4, 0x90
	.type	_ZN3MPI5GroupD0Ev,@function
_ZN3MPI5GroupD0Ev:                      # @_ZN3MPI5GroupD0Ev
.Lfunc_begin72:
	.loc	1 0 0                   # projects/Flowthrough/Flowthrough.cpp:0:0
	.cfi_startproc
# %bb.0:                                # %L.entry
	pushq	%rbp
	.cfi_def_cfa_offset 16
	.cfi_offset %rbp, -16
	movq	%rsp, %rbp
	.cfi_def_cfa_register %rbp
.Ltmp398:
	.loc	1 67 1 prologue_end     # projects/Flowthrough/Flowthrough.cpp:67:1
	movl	$16, %esi
	popq	%rbp
	.cfi_def_cfa %rsp, 8
	jmp	_ZdlPvm                 # TAILCALL
.Ltmp399:
.Lfunc_end72:
	.size	_ZN3MPI5GroupD0Ev, .Lfunc_end72-_ZN3MPI5GroupD0Ev
	.cfi_endproc
                                        # -- End function
	.weak	_ZNK3MPI5Group8Get_sizeEv # -- Begin function _ZNK3MPI5Group8Get_sizeEv
	.p2align	4, 0x90
	.type	_ZNK3MPI5Group8Get_sizeEv,@function
_ZNK3MPI5Group8Get_sizeEv:              # @_ZNK3MPI5Group8Get_sizeEv
.Lfunc_begin73:
	.file	15 "/usr/lib/x86_64-linux-gnu/openmpi/include/openmpi/ompi/mpi/cxx/group_inln.h"
	.loc	15 27 0                 # /usr/lib/x86_64-linux-gnu/openmpi/include/openmpi/ompi/mpi/cxx/group_inln.h:27:0
	.cfi_startproc
# %bb.0:                                # %L.entry
	#DEBUG_VALUE: Get_size: <- $rdi
	#DEBUG_VALUE: Get_size: <- $rdi
	pushq	%rbp
	.cfi_def_cfa_offset 16
	.cfi_offset %rbp, -16
	movq	%rsp, %rbp
	.cfi_def_cfa_register %rbp
	subq	$16, %rsp
.Ltmp400:
	#DEBUG_VALUE:  <- $rdi
	.loc	15 29 1 prologue_end    # /usr/lib/x86_64-linux-gnu/openmpi/include/openmpi/ompi/mpi/cxx/group_inln.h:29:1
	movq	8(%rdi), %rdi
.Ltmp401:
	#DEBUG_VALUE: size <- [DW_OP_constu 4, DW_OP_minus, DW_OP_deref] $rbp
	.loc	15 0 1 is_stmt 0        # /usr/lib/x86_64-linux-gnu/openmpi/include/openmpi/ompi/mpi/cxx/group_inln.h:0:1
	leaq	-4(%rbp), %rsi
	.loc	15 29 1                 # /usr/lib/x86_64-linux-gnu/openmpi/include/openmpi/ompi/mpi/cxx/group_inln.h:29:1
	callq	MPI_Group_size
	.loc	15 30 1 is_stmt 1       # /usr/lib/x86_64-linux-gnu/openmpi/include/openmpi/ompi/mpi/cxx/group_inln.h:30:1
	movl	-4(%rbp), %eax
.Ltmp402:
	#DEBUG_VALUE: size <- $eax
	addq	$16, %rsp
	popq	%rbp
	.cfi_def_cfa %rsp, 8
	retq
.Ltmp403:
.Lfunc_end73:
	.size	_ZNK3MPI5Group8Get_sizeEv, .Lfunc_end73-_ZNK3MPI5Group8Get_sizeEv
	.cfi_endproc
                                        # -- End function
	.weak	_ZNK3MPI5Group8Get_rankEv # -- Begin function _ZNK3MPI5Group8Get_rankEv
	.p2align	4, 0x90
	.type	_ZNK3MPI5Group8Get_rankEv,@function
_ZNK3MPI5Group8Get_rankEv:              # @_ZNK3MPI5Group8Get_rankEv
.Lfunc_begin74:
	.loc	15 35 0                 # /usr/lib/x86_64-linux-gnu/openmpi/include/openmpi/ompi/mpi/cxx/group_inln.h:35:0
	.cfi_startproc
# %bb.0:                                # %L.entry
	#DEBUG_VALUE: Get_rank: <- $rdi
	#DEBUG_VALUE: Get_rank: <- $rdi
	pushq	%rbp
	.cfi_def_cfa_offset 16
	.cfi_offset %rbp, -16
	movq	%rsp, %rbp
	.cfi_def_cfa_register %rbp
	subq	$16, %rsp
.Ltmp404:
	#DEBUG_VALUE:  <- $rdi
	.loc	15 37 1 prologue_end    # /usr/lib/x86_64-linux-gnu/openmpi/include/openmpi/ompi/mpi/cxx/group_inln.h:37:1
	movq	8(%rdi), %rdi
.Ltmp405:
	#DEBUG_VALUE: myrank <- [DW_OP_constu 4, DW_OP_minus, DW_OP_deref] $rbp
	.loc	15 0 1 is_stmt 0        # /usr/lib/x86_64-linux-gnu/openmpi/include/openmpi/ompi/mpi/cxx/group_inln.h:0:1
	leaq	-4(%rbp), %rsi
	.loc	15 37 1                 # /usr/lib/x86_64-linux-gnu/openmpi/include/openmpi/ompi/mpi/cxx/group_inln.h:37:1
	callq	MPI_Group_rank
	.loc	15 38 1 is_stmt 1       # /usr/lib/x86_64-linux-gnu/openmpi/include/openmpi/ompi/mpi/cxx/group_inln.h:38:1
	movl	-4(%rbp), %eax
.Ltmp406:
	#DEBUG_VALUE: myrank <- $eax
	addq	$16, %rsp
	popq	%rbp
	.cfi_def_cfa %rsp, 8
	retq
.Ltmp407:
.Lfunc_end74:
	.size	_ZNK3MPI5Group8Get_rankEv, .Lfunc_end74-_ZNK3MPI5Group8Get_rankEv
	.cfi_endproc
                                        # -- End function
	.weak	_ZNK3MPI5Group4InclEiPKi # -- Begin function _ZNK3MPI5Group4InclEiPKi
	.p2align	4, 0x90
	.type	_ZNK3MPI5Group4InclEiPKi,@function
_ZNK3MPI5Group4InclEiPKi:               # @_ZNK3MPI5Group4InclEiPKi
.Lfunc_begin75:
	.loc	15 83 0                 # /usr/lib/x86_64-linux-gnu/openmpi/include/openmpi/ompi/mpi/cxx/group_inln.h:83:0
	.cfi_startproc
# %bb.0:                                # %L.entry
	#DEBUG_VALUE: Incl: <- $rsi
	#DEBUG_VALUE: Incl:n <- $edx
	#DEBUG_VALUE: Incl:ranks <- $rcx
	pushq	%rbp
	.cfi_def_cfa_offset 16
	.cfi_offset %rbp, -16
	movq	%rsp, %rbp
	.cfi_def_cfa_register %rbp
	pushq	%rbx
	pushq	%rax
	.cfi_offset %rbx, -24
	movq	%rdi, %rbx
.Ltmp408:
	#DEBUG_VALUE:  <- $rsi
	#DEBUG_VALUE: ranks <- $rcx
	#DEBUG_VALUE: n <- $edx
	#DEBUG_VALUE: Incl:ranks <- $rcx
	#DEBUG_VALUE: Incl:n <- $edx
	#DEBUG_VALUE: Incl: <- $rsi
	.loc	15 85 1 prologue_end    # /usr/lib/x86_64-linux-gnu/openmpi/include/openmpi/ompi/mpi/cxx/group_inln.h:85:1
	movq	8(%rsi), %rdi
.Ltmp409:
	#DEBUG_VALUE: newgroup <- [DW_OP_constu 16, DW_OP_minus, DW_OP_deref] $rbp
	.loc	15 0 1 is_stmt 0        # /usr/lib/x86_64-linux-gnu/openmpi/include/openmpi/ompi/mpi/cxx/group_inln.h:0:1
	leaq	-16(%rbp), %rax
	.loc	15 85 1                 # /usr/lib/x86_64-linux-gnu/openmpi/include/openmpi/ompi/mpi/cxx/group_inln.h:85:1
	movl	%edx, %esi
.Ltmp410:
	#DEBUG_VALUE: Incl:n <- $esi
	movq	%rcx, %rdx
.Ltmp411:
	#DEBUG_VALUE: Incl:ranks <- $rdx
	movq	%rax, %rcx
.Ltmp412:
	callq	MPI_Group_incl
.Ltmp413:
	.loc	15 86 1 is_stmt 1       # /usr/lib/x86_64-linux-gnu/openmpi/include/openmpi/ompi/mpi/cxx/group_inln.h:86:1
	movq	-16(%rbp), %rax
.Ltmp414:
	#DEBUG_VALUE: newgroup <- undef
	movq	$_ZTVN3MPI5GroupE+16, (%rbx)
	.loc	15 62 1                 # /usr/lib/x86_64-linux-gnu/openmpi/include/openmpi/ompi/mpi/cxx/group_inln.h:62:1
	movq	%rax, 8(%rbx)
	.loc	15 87 1                 # /usr/lib/x86_64-linux-gnu/openmpi/include/openmpi/ompi/mpi/cxx/group_inln.h:87:1
	movq	%rbx, %rax
	addq	$8, %rsp
	popq	%rbx
	popq	%rbp
	.cfi_def_cfa %rsp, 8
	retq
.Ltmp415:
.Lfunc_end75:
	.size	_ZNK3MPI5Group4InclEiPKi, .Lfunc_end75-_ZNK3MPI5Group4InclEiPKi
	.cfi_endproc
                                        # -- End function
	.weak	_ZNK3MPI5Group4ExclEiPKi # -- Begin function _ZNK3MPI5Group4ExclEiPKi
	.p2align	4, 0x90
	.type	_ZNK3MPI5Group4ExclEiPKi,@function
_ZNK3MPI5Group4ExclEiPKi:               # @_ZNK3MPI5Group4ExclEiPKi
.Lfunc_begin76:
	.loc	15 91 0                 # /usr/lib/x86_64-linux-gnu/openmpi/include/openmpi/ompi/mpi/cxx/group_inln.h:91:0
	.cfi_startproc
# %bb.0:                                # %L.entry
	#DEBUG_VALUE: Excl: <- $rsi
	#DEBUG_VALUE: Excl:n <- $edx
	#DEBUG_VALUE: Excl:ranks <- $rcx
	pushq	%rbp
	.cfi_def_cfa_offset 16
	.cfi_offset %rbp, -16
	movq	%rsp, %rbp
	.cfi_def_cfa_register %rbp
	pushq	%rbx
	pushq	%rax
	.cfi_offset %rbx, -24
	movq	%rdi, %rbx
.Ltmp416:
	#DEBUG_VALUE:  <- $rsi
	#DEBUG_VALUE: ranks <- $rcx
	#DEBUG_VALUE: n <- $edx
	#DEBUG_VALUE: Excl:ranks <- $rcx
	#DEBUG_VALUE: Excl:n <- $edx
	#DEBUG_VALUE: Excl: <- $rsi
	.loc	15 93 1 prologue_end    # /usr/lib/x86_64-linux-gnu/openmpi/include/openmpi/ompi/mpi/cxx/group_inln.h:93:1
	movq	8(%rsi), %rdi
.Ltmp417:
	#DEBUG_VALUE: newgroup <- [DW_OP_constu 16, DW_OP_minus, DW_OP_deref] $rbp
	.loc	15 0 1 is_stmt 0        # /usr/lib/x86_64-linux-gnu/openmpi/include/openmpi/ompi/mpi/cxx/group_inln.h:0:1
	leaq	-16(%rbp), %rax
	.loc	15 93 1                 # /usr/lib/x86_64-linux-gnu/openmpi/include/openmpi/ompi/mpi/cxx/group_inln.h:93:1
	movl	%edx, %esi
.Ltmp418:
	#DEBUG_VALUE: Excl:n <- $esi
	movq	%rcx, %rdx
.Ltmp419:
	#DEBUG_VALUE: Excl:ranks <- $rdx
	movq	%rax, %rcx
.Ltmp420:
	callq	MPI_Group_excl
.Ltmp421:
	.loc	15 94 1 is_stmt 1       # /usr/lib/x86_64-linux-gnu/openmpi/include/openmpi/ompi/mpi/cxx/group_inln.h:94:1
	movq	-16(%rbp), %rax
.Ltmp422:
	#DEBUG_VALUE: newgroup <- undef
	movq	$_ZTVN3MPI5GroupE+16, (%rbx)
	.loc	15 62 1                 # /usr/lib/x86_64-linux-gnu/openmpi/include/openmpi/ompi/mpi/cxx/group_inln.h:62:1
	movq	%rax, 8(%rbx)
	.loc	15 95 1                 # /usr/lib/x86_64-linux-gnu/openmpi/include/openmpi/ompi/mpi/cxx/group_inln.h:95:1
	movq	%rbx, %rax
	addq	$8, %rsp
	popq	%rbx
	popq	%rbp
	.cfi_def_cfa %rsp, 8
	retq
.Ltmp423:
.Lfunc_end76:
	.size	_ZNK3MPI5Group4ExclEiPKi, .Lfunc_end76-_ZNK3MPI5Group4ExclEiPKi
	.cfi_endproc
                                        # -- End function
	.weak	_ZNK3MPI5Group10Range_inclEiPA3_Ki # -- Begin function _ZNK3MPI5Group10Range_inclEiPA3_Ki
	.p2align	4, 0x90
	.type	_ZNK3MPI5Group10Range_inclEiPA3_Ki,@function
_ZNK3MPI5Group10Range_inclEiPA3_Ki:     # @_ZNK3MPI5Group10Range_inclEiPA3_Ki
.Lfunc_begin77:
	.loc	15 99 0                 # /usr/lib/x86_64-linux-gnu/openmpi/include/openmpi/ompi/mpi/cxx/group_inln.h:99:0
	.cfi_startproc
# %bb.0:                                # %L.entry
	#DEBUG_VALUE: Range_incl: <- $rsi
	#DEBUG_VALUE: Range_incl:n <- $edx
	#DEBUG_VALUE: Range_incl:ranges <- $rcx
	pushq	%rbp
	.cfi_def_cfa_offset 16
	.cfi_offset %rbp, -16
	movq	%rsp, %rbp
	.cfi_def_cfa_register %rbp
	pushq	%rbx
	pushq	%rax
	.cfi_offset %rbx, -24
	movq	%rdi, %rbx
.Ltmp424:
	#DEBUG_VALUE:  <- $rsi
	#DEBUG_VALUE: ranges <- $rcx
	#DEBUG_VALUE: n <- $edx
	#DEBUG_VALUE: Range_incl:ranges <- $rcx
	#DEBUG_VALUE: Range_incl:n <- $edx
	#DEBUG_VALUE: Range_incl: <- $rsi
	.loc	15 101 1 prologue_end   # /usr/lib/x86_64-linux-gnu/openmpi/include/openmpi/ompi/mpi/cxx/group_inln.h:101:1
	movq	8(%rsi), %rdi
.Ltmp425:
	#DEBUG_VALUE: newgroup <- [DW_OP_constu 16, DW_OP_minus, DW_OP_deref] $rbp
	.loc	15 0 1 is_stmt 0        # /usr/lib/x86_64-linux-gnu/openmpi/include/openmpi/ompi/mpi/cxx/group_inln.h:0:1
	leaq	-16(%rbp), %rax
	.loc	15 101 1                # /usr/lib/x86_64-linux-gnu/openmpi/include/openmpi/ompi/mpi/cxx/group_inln.h:101:1
	movl	%edx, %esi
.Ltmp426:
	#DEBUG_VALUE: Range_incl:n <- $esi
	movq	%rcx, %rdx
.Ltmp427:
	#DEBUG_VALUE: Range_incl:ranges <- $rdx
	movq	%rax, %rcx
.Ltmp428:
	callq	MPI_Group_range_incl
.Ltmp429:
	.loc	15 108 1 is_stmt 1      # /usr/lib/x86_64-linux-gnu/openmpi/include/openmpi/ompi/mpi/cxx/group_inln.h:108:1
	movq	-16(%rbp), %rax
.Ltmp430:
	#DEBUG_VALUE: newgroup <- undef
	movq	$_ZTVN3MPI5GroupE+16, (%rbx)
	.loc	15 62 1                 # /usr/lib/x86_64-linux-gnu/openmpi/include/openmpi/ompi/mpi/cxx/group_inln.h:62:1
	movq	%rax, 8(%rbx)
	.loc	15 109 1                # /usr/lib/x86_64-linux-gnu/openmpi/include/openmpi/ompi/mpi/cxx/group_inln.h:109:1
	movq	%rbx, %rax
	addq	$8, %rsp
	popq	%rbx
	popq	%rbp
	.cfi_def_cfa %rsp, 8
	retq
.Ltmp431:
.Lfunc_end77:
	.size	_ZNK3MPI5Group10Range_inclEiPA3_Ki, .Lfunc_end77-_ZNK3MPI5Group10Range_inclEiPA3_Ki
	.cfi_endproc
                                        # -- End function
	.weak	_ZNK3MPI5Group10Range_exclEiPA3_Ki # -- Begin function _ZNK3MPI5Group10Range_exclEiPA3_Ki
	.p2align	4, 0x90
	.type	_ZNK3MPI5Group10Range_exclEiPA3_Ki,@function
_ZNK3MPI5Group10Range_exclEiPA3_Ki:     # @_ZNK3MPI5Group10Range_exclEiPA3_Ki
.Lfunc_begin78:
	.loc	15 113 0                # /usr/lib/x86_64-linux-gnu/openmpi/include/openmpi/ompi/mpi/cxx/group_inln.h:113:0
	.cfi_startproc
# %bb.0:                                # %L.entry
	#DEBUG_VALUE: Range_excl: <- $rsi
	#DEBUG_VALUE: Range_excl:n <- $edx
	#DEBUG_VALUE: Range_excl:ranges <- $rcx
	pushq	%rbp
	.cfi_def_cfa_offset 16
	.cfi_offset %rbp, -16
	movq	%rsp, %rbp
	.cfi_def_cfa_register %rbp
	pushq	%rbx
	pushq	%rax
	.cfi_offset %rbx, -24
	movq	%rdi, %rbx
.Ltmp432:
	#DEBUG_VALUE:  <- $rsi
	#DEBUG_VALUE: ranges <- $rcx
	#DEBUG_VALUE: n <- $edx
	#DEBUG_VALUE: Range_excl:ranges <- $rcx
	#DEBUG_VALUE: Range_excl:n <- $edx
	#DEBUG_VALUE: Range_excl: <- $rsi
	.loc	15 115 1 prologue_end   # /usr/lib/x86_64-linux-gnu/openmpi/include/openmpi/ompi/mpi/cxx/group_inln.h:115:1
	movq	8(%rsi), %rdi
.Ltmp433:
	#DEBUG_VALUE: newgroup <- [DW_OP_constu 16, DW_OP_minus, DW_OP_deref] $rbp
	.loc	15 0 1 is_stmt 0        # /usr/lib/x86_64-linux-gnu/openmpi/include/openmpi/ompi/mpi/cxx/group_inln.h:0:1
	leaq	-16(%rbp), %rax
	.loc	15 115 1                # /usr/lib/x86_64-linux-gnu/openmpi/include/openmpi/ompi/mpi/cxx/group_inln.h:115:1
	movl	%edx, %esi
.Ltmp434:
	#DEBUG_VALUE: Range_excl:n <- $esi
	movq	%rcx, %rdx
.Ltmp435:
	#DEBUG_VALUE: Range_excl:ranges <- $rdx
	movq	%rax, %rcx
.Ltmp436:
	callq	MPI_Group_range_excl
.Ltmp437:
	.loc	15 122 1 is_stmt 1      # /usr/lib/x86_64-linux-gnu/openmpi/include/openmpi/ompi/mpi/cxx/group_inln.h:122:1
	movq	-16(%rbp), %rax
.Ltmp438:
	#DEBUG_VALUE: newgroup <- undef
	movq	$_ZTVN3MPI5GroupE+16, (%rbx)
	.loc	15 62 1                 # /usr/lib/x86_64-linux-gnu/openmpi/include/openmpi/ompi/mpi/cxx/group_inln.h:62:1
	movq	%rax, 8(%rbx)
	.loc	15 123 1                # /usr/lib/x86_64-linux-gnu/openmpi/include/openmpi/ompi/mpi/cxx/group_inln.h:123:1
	movq	%rbx, %rax
	addq	$8, %rsp
	popq	%rbx
	popq	%rbp
	.cfi_def_cfa %rsp, 8
	retq
.Ltmp439:
.Lfunc_end78:
	.size	_ZNK3MPI5Group10Range_exclEiPA3_Ki, .Lfunc_end78-_ZNK3MPI5Group10Range_exclEiPA3_Ki
	.cfi_endproc
                                        # -- End function
	.weak	_ZN3MPI5Group4FreeEv    # -- Begin function _ZN3MPI5Group4FreeEv
	.p2align	4, 0x90
	.type	_ZN3MPI5Group4FreeEv,@function
_ZN3MPI5Group4FreeEv:                   # @_ZN3MPI5Group4FreeEv
.Lfunc_begin79:
	.loc	15 127 0                # /usr/lib/x86_64-linux-gnu/openmpi/include/openmpi/ompi/mpi/cxx/group_inln.h:127:0
	.cfi_startproc
# %bb.0:                                # %L.entry
	#DEBUG_VALUE: Free: <- $rdi
	#DEBUG_VALUE: Free: <- $rdi
	pushq	%rbp
	.cfi_def_cfa_offset 16
	.cfi_offset %rbp, -16
	movq	%rsp, %rbp
	.cfi_def_cfa_register %rbp
.Ltmp440:
	#DEBUG_VALUE:  <- $rdi
	#DEBUG_VALUE:  <- $rdi
	.loc	15 128 1 prologue_end   # /usr/lib/x86_64-linux-gnu/openmpi/include/openmpi/ompi/mpi/cxx/group_inln.h:128:1
	addq	$8, %rdi
.Ltmp441:
	popq	%rbp
	.cfi_def_cfa %rsp, 8
	jmp	MPI_Group_free          # TAILCALL
.Ltmp442:
.Lfunc_end79:
	.size	_ZN3MPI5Group4FreeEv, .Lfunc_end79-_ZN3MPI5Group4FreeEv
	.cfi_endproc
                                        # -- End function
	.weak	_ZN3MPI9Comm_NullD1Ev   # -- Begin function _ZN3MPI9Comm_NullD1Ev
	.p2align	4, 0x90
	.type	_ZN3MPI9Comm_NullD1Ev,@function
_ZN3MPI9Comm_NullD1Ev:                  # @_ZN3MPI9Comm_NullD1Ev
.Lfunc_begin80:
	.file	16 "/usr/lib/x86_64-linux-gnu/openmpi/include/openmpi/ompi/mpi/cxx/comm.h"
	.loc	16 69 0                 # /usr/lib/x86_64-linux-gnu/openmpi/include/openmpi/ompi/mpi/cxx/comm.h:69:0
	.cfi_startproc
# %bb.0:                                # %L.entry
	#DEBUG_VALUE: ~Comm_Null: <- $rdi
	#DEBUG_VALUE: ~Comm_Null: <- $rdi
	pushq	%rbp
	.cfi_def_cfa_offset 16
	.cfi_offset %rbp, -16
	movq	%rsp, %rbp
	.cfi_def_cfa_register %rbp
.Ltmp443:
	#DEBUG_VALUE:  <- $rdi
	#DEBUG_VALUE:  <- $rdi
	.loc	16 69 1 prologue_end    # /usr/lib/x86_64-linux-gnu/openmpi/include/openmpi/ompi/mpi/cxx/comm.h:69:1
	movq	$_ZTVN3MPI9Comm_NullE+16, (%rdi)
	popq	%rbp
	.cfi_def_cfa %rsp, 8
	retq
.Ltmp444:
.Lfunc_end80:
	.size	_ZN3MPI9Comm_NullD1Ev, .Lfunc_end80-_ZN3MPI9Comm_NullD1Ev
	.cfi_endproc
                                        # -- End function
	.weak	_ZN3MPI9Comm_NullD0Ev   # -- Begin function _ZN3MPI9Comm_NullD0Ev
	.p2align	4, 0x90
	.type	_ZN3MPI9Comm_NullD0Ev,@function
_ZN3MPI9Comm_NullD0Ev:                  # @_ZN3MPI9Comm_NullD0Ev
.Lfunc_begin81:
	.loc	1 0 0                   # projects/Flowthrough/Flowthrough.cpp:0:0
	.cfi_startproc
# %bb.0:                                # %L.entry
	pushq	%rbp
	.cfi_def_cfa_offset 16
	.cfi_offset %rbp, -16
	movq	%rsp, %rbp
	.cfi_def_cfa_register %rbp
.Ltmp445:
	.loc	1 69 1 prologue_end     # projects/Flowthrough/Flowthrough.cpp:69:1
	movl	$16, %esi
	popq	%rbp
	.cfi_def_cfa %rsp, 8
	jmp	_ZdlPvm                 # TAILCALL
.Ltmp446:
.Lfunc_end81:
	.size	_ZN3MPI9Comm_NullD0Ev, .Lfunc_end81-_ZN3MPI9Comm_NullD0Ev
	.cfi_endproc
                                        # -- End function
	.weak	_ZNK3MPI4Comm4SendEPKviRKNS_8DatatypeEii # -- Begin function _ZNK3MPI4Comm4SendEPKviRKNS_8DatatypeEii
	.p2align	4, 0x90
	.type	_ZNK3MPI4Comm4SendEPKviRKNS_8DatatypeEii,@function
_ZNK3MPI4Comm4SendEPKviRKNS_8DatatypeEii: # @_ZNK3MPI4Comm4SendEPKviRKNS_8DatatypeEii
.Lfunc_begin82:
	.file	17 "/usr/lib/x86_64-linux-gnu/openmpi/include/openmpi/ompi/mpi/cxx/comm_inln.h"
	.loc	17 29 0                 # /usr/lib/x86_64-linux-gnu/openmpi/include/openmpi/ompi/mpi/cxx/comm_inln.h:29:0
	.cfi_startproc
# %bb.0:                                # %L.entry
	#DEBUG_VALUE: Send: <- $rdi
	#DEBUG_VALUE: Send:buf <- $rsi
	#DEBUG_VALUE: Send:count <- $edx
	#DEBUG_VALUE: Send:datatype <- $rcx
	#DEBUG_VALUE: Send:dest <- $r8d
	#DEBUG_VALUE: Send:tag <- $r9d
	pushq	%rbp
	.cfi_def_cfa_offset 16
	.cfi_offset %rbp, -16
	movq	%rsp, %rbp
	.cfi_def_cfa_register %rbp
.Ltmp447:
	#DEBUG_VALUE:  <- $rdi
	#DEBUG_VALUE: buf <- $rsi
	#DEBUG_VALUE: count <- $edx
	#DEBUG_VALUE: datatype <- $rcx
	#DEBUG_VALUE: dest <- $r8d
	#DEBUG_VALUE: tag <- $r9d
	movl	%r9d, %r10d
.Ltmp448:
	#DEBUG_VALUE: tag <- $r10d
	#DEBUG_VALUE: Send:tag <- $r10d
	#DEBUG_VALUE: dest <- $r8d
	#DEBUG_VALUE: Send:dest <- $r8d
	#DEBUG_VALUE: datatype <- $rcx
	#DEBUG_VALUE: Send:datatype <- $rcx
	#DEBUG_VALUE: count <- $edx
	#DEBUG_VALUE: Send:count <- $edx
	#DEBUG_VALUE: buf <- $rsi
	#DEBUG_VALUE: Send:buf <- $rsi
	#DEBUG_VALUE:  <- $rdi
	#DEBUG_VALUE: Send: <- $rdi
	.loc	17 90 1 prologue_end    # /usr/lib/x86_64-linux-gnu/openmpi/include/openmpi/ompi/mpi/cxx/comm_inln.h:90:1
	movq	8(%rcx), %rax
	movq	8(%rdi), %r9
	movq	%rsi, %rdi
.Ltmp449:
	#DEBUG_VALUE: buf <- $rdi
	#DEBUG_VALUE: Send:buf <- $rdi
	movl	%edx, %esi
.Ltmp450:
	#DEBUG_VALUE: count <- $esi
	#DEBUG_VALUE: Send:count <- $esi
	movq	%rax, %rdx
	movl	%r8d, %ecx
.Ltmp451:
	#DEBUG_VALUE: dest <- $ecx
	#DEBUG_VALUE: Send:dest <- $ecx
	movl	%r10d, %r8d
.Ltmp452:
	#DEBUG_VALUE: tag <- $r8d
	#DEBUG_VALUE: Send:tag <- $r8d
	popq	%rbp
	.cfi_def_cfa %rsp, 8
	jmp	MPI_Send                # TAILCALL
.Ltmp453:
.Lfunc_end82:
	.size	_ZNK3MPI4Comm4SendEPKviRKNS_8DatatypeEii, .Lfunc_end82-_ZNK3MPI4Comm4SendEPKviRKNS_8DatatypeEii
	.cfi_endproc
                                        # -- End function
	.weak	_ZNK3MPI4Comm4RecvEPviRKNS_8DatatypeEiiRNS_6StatusE # -- Begin function _ZNK3MPI4Comm4RecvEPviRKNS_8DatatypeEiiRNS_6StatusE
	.p2align	4, 0x90
	.type	_ZNK3MPI4Comm4RecvEPviRKNS_8DatatypeEiiRNS_6StatusE,@function
_ZNK3MPI4Comm4RecvEPviRKNS_8DatatypeEiiRNS_6StatusE: # @_ZNK3MPI4Comm4RecvEPviRKNS_8DatatypeEiiRNS_6StatusE
.Lfunc_begin83:
	.loc	17 36 0                 # /usr/lib/x86_64-linux-gnu/openmpi/include/openmpi/ompi/mpi/cxx/comm_inln.h:36:0
	.cfi_startproc
# %bb.0:                                # %L.entry
	#DEBUG_VALUE: Recv: <- $rdi
	#DEBUG_VALUE: Recv:buf <- $rsi
	#DEBUG_VALUE: Recv:count <- $edx
	#DEBUG_VALUE: Recv:datatype <- $rcx
	#DEBUG_VALUE: Recv:source <- $r8d
	#DEBUG_VALUE: Recv:tag <- $r9d
	pushq	%rbp
	.cfi_def_cfa_offset 16
	.cfi_offset %rbp, -16
	movq	%rsp, %rbp
	.cfi_def_cfa_register %rbp
	subq	$16, %rsp
.Ltmp454:
	#DEBUG_VALUE:  <- $rdi
	#DEBUG_VALUE: buf <- $rsi
	#DEBUG_VALUE: count <- $edx
	#DEBUG_VALUE: datatype <- $rcx
	#DEBUG_VALUE: source <- $r8d
	#DEBUG_VALUE: tag <- $r9d
	movl	%r9d, %r10d
	movq	%rsi, %r11
	movq	16(%rbp), %rsi
.Ltmp455:
	#DEBUG_VALUE: status <- [DW_OP_plus_uconst 16] [$rbp+0]
	#DEBUG_VALUE: Recv:status <- [DW_OP_plus_uconst 16] [$rbp+0]
	#DEBUG_VALUE: tag <- $r10d
	#DEBUG_VALUE: Recv:tag <- $r10d
	#DEBUG_VALUE: source <- $r8d
	#DEBUG_VALUE: Recv:source <- $r8d
	#DEBUG_VALUE: datatype <- $rcx
	#DEBUG_VALUE: Recv:datatype <- $rcx
	#DEBUG_VALUE: count <- $edx
	#DEBUG_VALUE: Recv:count <- $edx
	#DEBUG_VALUE: buf <- $r11
	#DEBUG_VALUE: Recv:buf <- $r11
	#DEBUG_VALUE:  <- $rdi
	#DEBUG_VALUE: Recv: <- $rdi
	.loc	17 90 1 prologue_end    # /usr/lib/x86_64-linux-gnu/openmpi/include/openmpi/ompi/mpi/cxx/comm_inln.h:90:1
	movq	8(%rcx), %rax
	movq	8(%rdi), %r9
	addq	$8, %rsi
	movq	%rsi, (%rsp)
	movq	%r11, %rdi
.Ltmp456:
	#DEBUG_VALUE: buf <- $rdi
	#DEBUG_VALUE: Recv:buf <- $rdi
	movl	%edx, %esi
.Ltmp457:
	#DEBUG_VALUE: count <- $esi
	#DEBUG_VALUE: Recv:count <- $esi
	movq	%rax, %rdx
	movl	%r8d, %ecx
.Ltmp458:
	#DEBUG_VALUE: source <- $ecx
	#DEBUG_VALUE: Recv:source <- $ecx
	movl	%r10d, %r8d
.Ltmp459:
	#DEBUG_VALUE: tag <- $r8d
	#DEBUG_VALUE: Recv:tag <- $r8d
	callq	MPI_Recv
.Ltmp460:
	.loc	17 38 1                 # /usr/lib/x86_64-linux-gnu/openmpi/include/openmpi/ompi/mpi/cxx/comm_inln.h:38:1
	addq	$16, %rsp
	popq	%rbp
	.cfi_def_cfa %rsp, 8
	retq
.Ltmp461:
.Lfunc_end83:
	.size	_ZNK3MPI4Comm4RecvEPviRKNS_8DatatypeEiiRNS_6StatusE, .Lfunc_end83-_ZNK3MPI4Comm4RecvEPviRKNS_8DatatypeEiiRNS_6StatusE
	.cfi_endproc
                                        # -- End function
	.weak	_ZNK3MPI4Comm4RecvEPviRKNS_8DatatypeEii # -- Begin function _ZNK3MPI4Comm4RecvEPviRKNS_8DatatypeEii
	.p2align	4, 0x90
	.type	_ZNK3MPI4Comm4RecvEPviRKNS_8DatatypeEii,@function
_ZNK3MPI4Comm4RecvEPviRKNS_8DatatypeEii: # @_ZNK3MPI4Comm4RecvEPviRKNS_8DatatypeEii
.Lfunc_begin84:
	.loc	17 43 0                 # /usr/lib/x86_64-linux-gnu/openmpi/include/openmpi/ompi/mpi/cxx/comm_inln.h:43:0
	.cfi_startproc
# %bb.0:                                # %L.entry
	#DEBUG_VALUE: Recv: <- $rdi
	#DEBUG_VALUE: Recv:buf <- $rsi
	#DEBUG_VALUE: Recv:count <- $edx
	#DEBUG_VALUE: Recv:datatype <- $rcx
	#DEBUG_VALUE: Recv:source <- $r8d
	#DEBUG_VALUE: Recv:tag <- $r9d
	pushq	%rbp
	.cfi_def_cfa_offset 16
	.cfi_offset %rbp, -16
	movq	%rsp, %rbp
	.cfi_def_cfa_register %rbp
	subq	$16, %rsp
.Ltmp462:
	#DEBUG_VALUE:  <- $rdi
	#DEBUG_VALUE: buf <- $rsi
	#DEBUG_VALUE: count <- $edx
	#DEBUG_VALUE: datatype <- $rcx
	#DEBUG_VALUE: source <- $r8d
	#DEBUG_VALUE: tag <- $r9d
	movl	%r9d, %r10d
.Ltmp463:
	#DEBUG_VALUE: tag <- $r10d
	#DEBUG_VALUE: Recv:tag <- $r10d
	#DEBUG_VALUE: source <- $r8d
	#DEBUG_VALUE: Recv:source <- $r8d
	#DEBUG_VALUE: datatype <- $rcx
	#DEBUG_VALUE: Recv:datatype <- $rcx
	#DEBUG_VALUE: count <- $edx
	#DEBUG_VALUE: Recv:count <- $edx
	#DEBUG_VALUE: buf <- $rsi
	#DEBUG_VALUE: Recv:buf <- $rsi
	#DEBUG_VALUE:  <- $rdi
	#DEBUG_VALUE: Recv: <- $rdi
	.loc	17 90 1 prologue_end    # /usr/lib/x86_64-linux-gnu/openmpi/include/openmpi/ompi/mpi/cxx/comm_inln.h:90:1
	movq	8(%rcx), %rax
	movq	8(%rdi), %r9
	movq	$0, (%rsp)
	movq	%rsi, %rdi
.Ltmp464:
	#DEBUG_VALUE: buf <- $rdi
	#DEBUG_VALUE: Recv:buf <- $rdi
	movl	%edx, %esi
.Ltmp465:
	#DEBUG_VALUE: count <- $esi
	#DEBUG_VALUE: Recv:count <- $esi
	movq	%rax, %rdx
	movl	%r8d, %ecx
.Ltmp466:
	#DEBUG_VALUE: source <- $ecx
	#DEBUG_VALUE: Recv:source <- $ecx
	movl	%r10d, %r8d
.Ltmp467:
	#DEBUG_VALUE: tag <- $r8d
	#DEBUG_VALUE: Recv:tag <- $r8d
	callq	MPI_Recv
.Ltmp468:
	.loc	17 46 1                 # /usr/lib/x86_64-linux-gnu/openmpi/include/openmpi/ompi/mpi/cxx/comm_inln.h:46:1
	addq	$16, %rsp
	popq	%rbp
	.cfi_def_cfa %rsp, 8
	retq
.Ltmp469:
.Lfunc_end84:
	.size	_ZNK3MPI4Comm4RecvEPviRKNS_8DatatypeEii, .Lfunc_end84-_ZNK3MPI4Comm4RecvEPviRKNS_8DatatypeEii
	.cfi_endproc
                                        # -- End function
	.weak	_ZNK3MPI4Comm5BsendEPKviRKNS_8DatatypeEii # -- Begin function _ZNK3MPI4Comm5BsendEPKviRKNS_8DatatypeEii
	.p2align	4, 0x90
	.type	_ZNK3MPI4Comm5BsendEPKviRKNS_8DatatypeEii,@function
_ZNK3MPI4Comm5BsendEPKviRKNS_8DatatypeEii: # @_ZNK3MPI4Comm5BsendEPKviRKNS_8DatatypeEii
.Lfunc_begin85:
	.loc	17 51 0                 # /usr/lib/x86_64-linux-gnu/openmpi/include/openmpi/ompi/mpi/cxx/comm_inln.h:51:0
	.cfi_startproc
# %bb.0:                                # %L.entry
	#DEBUG_VALUE: Bsend: <- $rdi
	#DEBUG_VALUE: Bsend:buf <- $rsi
	#DEBUG_VALUE: Bsend:count <- $edx
	#DEBUG_VALUE: Bsend:datatype <- $rcx
	#DEBUG_VALUE: Bsend:dest <- $r8d
	#DEBUG_VALUE: Bsend:tag <- $r9d
	pushq	%rbp
	.cfi_def_cfa_offset 16
	.cfi_offset %rbp, -16
	movq	%rsp, %rbp
	.cfi_def_cfa_register %rbp
.Ltmp470:
	#DEBUG_VALUE:  <- $rdi
	#DEBUG_VALUE: buf <- $rsi
	#DEBUG_VALUE: count <- $edx
	#DEBUG_VALUE: datatype <- $rcx
	#DEBUG_VALUE: dest <- $r8d
	#DEBUG_VALUE: tag <- $r9d
	movl	%r9d, %r10d
.Ltmp471:
	#DEBUG_VALUE: tag <- $r10d
	#DEBUG_VALUE: Bsend:tag <- $r10d
	#DEBUG_VALUE: dest <- $r8d
	#DEBUG_VALUE: Bsend:dest <- $r8d
	#DEBUG_VALUE: datatype <- $rcx
	#DEBUG_VALUE: Bsend:datatype <- $rcx
	#DEBUG_VALUE: count <- $edx
	#DEBUG_VALUE: Bsend:count <- $edx
	#DEBUG_VALUE: buf <- $rsi
	#DEBUG_VALUE: Bsend:buf <- $rsi
	#DEBUG_VALUE:  <- $rdi
	#DEBUG_VALUE: Bsend: <- $rdi
	.loc	17 90 1 prologue_end    # /usr/lib/x86_64-linux-gnu/openmpi/include/openmpi/ompi/mpi/cxx/comm_inln.h:90:1
	movq	8(%rcx), %rax
	movq	8(%rdi), %r9
	movq	%rsi, %rdi
.Ltmp472:
	#DEBUG_VALUE: buf <- $rdi
	#DEBUG_VALUE: Bsend:buf <- $rdi
	movl	%edx, %esi
.Ltmp473:
	#DEBUG_VALUE: count <- $esi
	#DEBUG_VALUE: Bsend:count <- $esi
	movq	%rax, %rdx
	movl	%r8d, %ecx
.Ltmp474:
	#DEBUG_VALUE: dest <- $ecx
	#DEBUG_VALUE: Bsend:dest <- $ecx
	movl	%r10d, %r8d
.Ltmp475:
	#DEBUG_VALUE: tag <- $r8d
	#DEBUG_VALUE: Bsend:tag <- $r8d
	popq	%rbp
	.cfi_def_cfa %rsp, 8
	jmp	MPI_Bsend               # TAILCALL
.Ltmp476:
.Lfunc_end85:
	.size	_ZNK3MPI4Comm5BsendEPKviRKNS_8DatatypeEii, .Lfunc_end85-_ZNK3MPI4Comm5BsendEPKviRKNS_8DatatypeEii
	.cfi_endproc
                                        # -- End function
	.weak	_ZNK3MPI4Comm5SsendEPKviRKNS_8DatatypeEii # -- Begin function _ZNK3MPI4Comm5SsendEPKviRKNS_8DatatypeEii
	.p2align	4, 0x90
	.type	_ZNK3MPI4Comm5SsendEPKviRKNS_8DatatypeEii,@function
_ZNK3MPI4Comm5SsendEPKviRKNS_8DatatypeEii: # @_ZNK3MPI4Comm5SsendEPKviRKNS_8DatatypeEii
.Lfunc_begin86:
	.loc	17 59 0                 # /usr/lib/x86_64-linux-gnu/openmpi/include/openmpi/ompi/mpi/cxx/comm_inln.h:59:0
	.cfi_startproc
# %bb.0:                                # %L.entry
	#DEBUG_VALUE: Ssend: <- $rdi
	#DEBUG_VALUE: Ssend:buf <- $rsi
	#DEBUG_VALUE: Ssend:count <- $edx
	#DEBUG_VALUE: Ssend:datatype <- $rcx
	#DEBUG_VALUE: Ssend:dest <- $r8d
	#DEBUG_VALUE: Ssend:tag <- $r9d
	pushq	%rbp
	.cfi_def_cfa_offset 16
	.cfi_offset %rbp, -16
	movq	%rsp, %rbp
	.cfi_def_cfa_register %rbp
.Ltmp477:
	#DEBUG_VALUE:  <- $rdi
	#DEBUG_VALUE: buf <- $rsi
	#DEBUG_VALUE: count <- $edx
	#DEBUG_VALUE: datatype <- $rcx
	#DEBUG_VALUE: dest <- $r8d
	#DEBUG_VALUE: tag <- $r9d
	movl	%r9d, %r10d
.Ltmp478:
	#DEBUG_VALUE: tag <- $r10d
	#DEBUG_VALUE: Ssend:tag <- $r10d
	#DEBUG_VALUE: dest <- $r8d
	#DEBUG_VALUE: Ssend:dest <- $r8d
	#DEBUG_VALUE: datatype <- $rcx
	#DEBUG_VALUE: Ssend:datatype <- $rcx
	#DEBUG_VALUE: count <- $edx
	#DEBUG_VALUE: Ssend:count <- $edx
	#DEBUG_VALUE: buf <- $rsi
	#DEBUG_VALUE: Ssend:buf <- $rsi
	#DEBUG_VALUE:  <- $rdi
	#DEBUG_VALUE: Ssend: <- $rdi
	.loc	17 90 1 prologue_end    # /usr/lib/x86_64-linux-gnu/openmpi/include/openmpi/ompi/mpi/cxx/comm_inln.h:90:1
	movq	8(%rcx), %rax
	movq	8(%rdi), %r9
	movq	%rsi, %rdi
.Ltmp479:
	#DEBUG_VALUE: buf <- $rdi
	#DEBUG_VALUE: Ssend:buf <- $rdi
	movl	%edx, %esi
.Ltmp480:
	#DEBUG_VALUE: count <- $esi
	#DEBUG_VALUE: Ssend:count <- $esi
	movq	%rax, %rdx
	movl	%r8d, %ecx
.Ltmp481:
	#DEBUG_VALUE: dest <- $ecx
	#DEBUG_VALUE: Ssend:dest <- $ecx
	movl	%r10d, %r8d
.Ltmp482:
	#DEBUG_VALUE: tag <- $r8d
	#DEBUG_VALUE: Ssend:tag <- $r8d
	popq	%rbp
	.cfi_def_cfa %rsp, 8
	jmp	MPI_Ssend               # TAILCALL
.Ltmp483:
.Lfunc_end86:
	.size	_ZNK3MPI4Comm5SsendEPKviRKNS_8DatatypeEii, .Lfunc_end86-_ZNK3MPI4Comm5SsendEPKviRKNS_8DatatypeEii
	.cfi_endproc
                                        # -- End function
	.weak	_ZNK3MPI4Comm5RsendEPKviRKNS_8DatatypeEii # -- Begin function _ZNK3MPI4Comm5RsendEPKviRKNS_8DatatypeEii
	.p2align	4, 0x90
	.type	_ZNK3MPI4Comm5RsendEPKviRKNS_8DatatypeEii,@function
_ZNK3MPI4Comm5RsendEPKviRKNS_8DatatypeEii: # @_ZNK3MPI4Comm5RsendEPKviRKNS_8DatatypeEii
.Lfunc_begin87:
	.loc	17 67 0                 # /usr/lib/x86_64-linux-gnu/openmpi/include/openmpi/ompi/mpi/cxx/comm_inln.h:67:0
	.cfi_startproc
# %bb.0:                                # %L.entry
	#DEBUG_VALUE: Rsend: <- $rdi
	#DEBUG_VALUE: Rsend:buf <- $rsi
	#DEBUG_VALUE: Rsend:count <- $edx
	#DEBUG_VALUE: Rsend:datatype <- $rcx
	#DEBUG_VALUE: Rsend:dest <- $r8d
	#DEBUG_VALUE: Rsend:tag <- $r9d
	pushq	%rbp
	.cfi_def_cfa_offset 16
	.cfi_offset %rbp, -16
	movq	%rsp, %rbp
	.cfi_def_cfa_register %rbp
.Ltmp484:
	#DEBUG_VALUE:  <- $rdi
	#DEBUG_VALUE: buf <- $rsi
	#DEBUG_VALUE: count <- $edx
	#DEBUG_VALUE: datatype <- $rcx
	#DEBUG_VALUE: dest <- $r8d
	#DEBUG_VALUE: tag <- $r9d
	movl	%r9d, %r10d
.Ltmp485:
	#DEBUG_VALUE: tag <- $r10d
	#DEBUG_VALUE: Rsend:tag <- $r10d
	#DEBUG_VALUE: dest <- $r8d
	#DEBUG_VALUE: Rsend:dest <- $r8d
	#DEBUG_VALUE: datatype <- $rcx
	#DEBUG_VALUE: Rsend:datatype <- $rcx
	#DEBUG_VALUE: count <- $edx
	#DEBUG_VALUE: Rsend:count <- $edx
	#DEBUG_VALUE: buf <- $rsi
	#DEBUG_VALUE: Rsend:buf <- $rsi
	#DEBUG_VALUE:  <- $rdi
	#DEBUG_VALUE: Rsend: <- $rdi
	.loc	17 90 1 prologue_end    # /usr/lib/x86_64-linux-gnu/openmpi/include/openmpi/ompi/mpi/cxx/comm_inln.h:90:1
	movq	8(%rcx), %rax
	movq	8(%rdi), %r9
	movq	%rsi, %rdi
.Ltmp486:
	#DEBUG_VALUE: buf <- $rdi
	#DEBUG_VALUE: Rsend:buf <- $rdi
	movl	%edx, %esi
.Ltmp487:
	#DEBUG_VALUE: count <- $esi
	#DEBUG_VALUE: Rsend:count <- $esi
	movq	%rax, %rdx
	movl	%r8d, %ecx
.Ltmp488:
	#DEBUG_VALUE: dest <- $ecx
	#DEBUG_VALUE: Rsend:dest <- $ecx
	movl	%r10d, %r8d
.Ltmp489:
	#DEBUG_VALUE: tag <- $r8d
	#DEBUG_VALUE: Rsend:tag <- $r8d
	popq	%rbp
	.cfi_def_cfa %rsp, 8
	jmp	MPI_Rsend               # TAILCALL
.Ltmp490:
.Lfunc_end87:
	.size	_ZNK3MPI4Comm5RsendEPKviRKNS_8DatatypeEii, .Lfunc_end87-_ZNK3MPI4Comm5RsendEPKviRKNS_8DatatypeEii
	.cfi_endproc
                                        # -- End function
	.weak	_ZNK3MPI4Comm5IsendEPKviRKNS_8DatatypeEii # -- Begin function _ZNK3MPI4Comm5IsendEPKviRKNS_8DatatypeEii
	.p2align	4, 0x90
	.type	_ZNK3MPI4Comm5IsendEPKviRKNS_8DatatypeEii,@function
_ZNK3MPI4Comm5IsendEPKviRKNS_8DatatypeEii: # @_ZNK3MPI4Comm5IsendEPKviRKNS_8DatatypeEii
.Lfunc_begin88:
	.loc	17 75 0                 # /usr/lib/x86_64-linux-gnu/openmpi/include/openmpi/ompi/mpi/cxx/comm_inln.h:75:0
	.cfi_startproc
# %bb.0:                                # %L.entry
	#DEBUG_VALUE: Isend: <- $rsi
	#DEBUG_VALUE: Isend:buf <- $rdx
	#DEBUG_VALUE: Isend:count <- $ecx
	#DEBUG_VALUE: Isend:datatype <- $r8
	#DEBUG_VALUE: Isend:dest <- $r9d
	pushq	%rbp
	.cfi_def_cfa_offset 16
	.cfi_offset %rbp, -16
	movq	%rsp, %rbp
	.cfi_def_cfa_register %rbp
	pushq	%rbx
	subq	$24, %rsp
	.cfi_offset %rbx, -24
	movl	%r9d, %r11d
	movq	%rdx, %rax
	movq	%rdi, %rbx
	movl	16(%rbp), %r10d
.Ltmp491:
	#DEBUG_VALUE: datatype <- $r8
	#DEBUG_VALUE:  <- $rsi
	#DEBUG_VALUE: tag <- $r10d
	#DEBUG_VALUE: dest <- $r11d
	#DEBUG_VALUE: count <- $ecx
	#DEBUG_VALUE: buf <- $rax
	#DEBUG_VALUE: Isend:tag <- [DW_OP_plus_uconst 16] [$rbp+0]
	#DEBUG_VALUE: Isend:dest <- $r11d
	#DEBUG_VALUE: Isend:datatype <- $r8
	#DEBUG_VALUE: Isend:count <- $ecx
	#DEBUG_VALUE: Isend:buf <- $rax
	#DEBUG_VALUE: Isend: <- $rsi
	.loc	17 90 1 prologue_end    # /usr/lib/x86_64-linux-gnu/openmpi/include/openmpi/ompi/mpi/cxx/comm_inln.h:90:1
	movq	8(%r8), %rdx
	movq	8(%rsi), %r9
.Ltmp492:
	#DEBUG_VALUE: request <- [DW_OP_constu 16, DW_OP_minus, DW_OP_deref] $rbp
	.loc	17 0 1 is_stmt 0        # /usr/lib/x86_64-linux-gnu/openmpi/include/openmpi/ompi/mpi/cxx/comm_inln.h:0:1
	leaq	-16(%rbp), %rsi
.Ltmp493:
	.loc	17 90 1                 # /usr/lib/x86_64-linux-gnu/openmpi/include/openmpi/ompi/mpi/cxx/comm_inln.h:90:1
	movq	%rsi, (%rsp)
	movq	%rax, %rdi
.Ltmp494:
	#DEBUG_VALUE: Isend:buf <- $rdi
	movl	%ecx, %esi
.Ltmp495:
	#DEBUG_VALUE: Isend:count <- $esi
	movl	%r11d, %ecx
.Ltmp496:
	#DEBUG_VALUE: Isend:dest <- $ecx
	movl	%r10d, %r8d
.Ltmp497:
	callq	MPI_Isend
.Ltmp498:
	.loc	17 79 1 is_stmt 1       # /usr/lib/x86_64-linux-gnu/openmpi/include/openmpi/ompi/mpi/cxx/comm_inln.h:79:1
	movq	-16(%rbp), %rax
.Ltmp499:
	#DEBUG_VALUE: request <- undef
	movq	$_ZTVN3MPI7RequestE+16, (%rbx)
	.loc	17 62 1                 # /usr/lib/x86_64-linux-gnu/openmpi/include/openmpi/ompi/mpi/cxx/comm_inln.h:62:1
	movq	%rax, 8(%rbx)
	.loc	17 80 1                 # /usr/lib/x86_64-linux-gnu/openmpi/include/openmpi/ompi/mpi/cxx/comm_inln.h:80:1
	movq	%rbx, %rax
	addq	$24, %rsp
	popq	%rbx
	popq	%rbp
	.cfi_def_cfa %rsp, 8
	retq
.Ltmp500:
.Lfunc_end88:
	.size	_ZNK3MPI4Comm5IsendEPKviRKNS_8DatatypeEii, .Lfunc_end88-_ZNK3MPI4Comm5IsendEPKviRKNS_8DatatypeEii
	.cfi_endproc
                                        # -- End function
	.weak	_ZNK3MPI4Comm6IbsendEPKviRKNS_8DatatypeEii # -- Begin function _ZNK3MPI4Comm6IbsendEPKviRKNS_8DatatypeEii
	.p2align	4, 0x90
	.type	_ZNK3MPI4Comm6IbsendEPKviRKNS_8DatatypeEii,@function
_ZNK3MPI4Comm6IbsendEPKviRKNS_8DatatypeEii: # @_ZNK3MPI4Comm6IbsendEPKviRKNS_8DatatypeEii
.Lfunc_begin89:
	.loc	17 85 0                 # /usr/lib/x86_64-linux-gnu/openmpi/include/openmpi/ompi/mpi/cxx/comm_inln.h:85:0
	.cfi_startproc
# %bb.0:                                # %L.entry
	#DEBUG_VALUE: Ibsend: <- $rsi
	#DEBUG_VALUE: Ibsend:buf <- $rdx
	#DEBUG_VALUE: Ibsend:count <- $ecx
	#DEBUG_VALUE: Ibsend:datatype <- $r8
	#DEBUG_VALUE: Ibsend:dest <- $r9d
	pushq	%rbp
	.cfi_def_cfa_offset 16
	.cfi_offset %rbp, -16
	movq	%rsp, %rbp
	.cfi_def_cfa_register %rbp
	pushq	%rbx
	subq	$24, %rsp
	.cfi_offset %rbx, -24
	movl	%r9d, %r11d
	movq	%rdx, %rax
	movq	%rdi, %rbx
	movl	16(%rbp), %r10d
.Ltmp501:
	#DEBUG_VALUE: datatype <- $r8
	#DEBUG_VALUE:  <- $rsi
	#DEBUG_VALUE: tag <- $r10d
	#DEBUG_VALUE: dest <- $r11d
	#DEBUG_VALUE: count <- $ecx
	#DEBUG_VALUE: buf <- $rax
	#DEBUG_VALUE: Ibsend:tag <- [DW_OP_plus_uconst 16] [$rbp+0]
	#DEBUG_VALUE: Ibsend:dest <- $r11d
	#DEBUG_VALUE: Ibsend:datatype <- $r8
	#DEBUG_VALUE: Ibsend:count <- $ecx
	#DEBUG_VALUE: Ibsend:buf <- $rax
	#DEBUG_VALUE: Ibsend: <- $rsi
	.loc	17 90 1 prologue_end    # /usr/lib/x86_64-linux-gnu/openmpi/include/openmpi/ompi/mpi/cxx/comm_inln.h:90:1
	movq	8(%r8), %rdx
	movq	8(%rsi), %r9
.Ltmp502:
	#DEBUG_VALUE: request <- [DW_OP_constu 16, DW_OP_minus, DW_OP_deref] $rbp
	.loc	17 0 1 is_stmt 0        # /usr/lib/x86_64-linux-gnu/openmpi/include/openmpi/ompi/mpi/cxx/comm_inln.h:0:1
	leaq	-16(%rbp), %rsi
.Ltmp503:
	.loc	17 90 1                 # /usr/lib/x86_64-linux-gnu/openmpi/include/openmpi/ompi/mpi/cxx/comm_inln.h:90:1
	movq	%rsi, (%rsp)
	movq	%rax, %rdi
.Ltmp504:
	#DEBUG_VALUE: Ibsend:buf <- $rdi
	movl	%ecx, %esi
.Ltmp505:
	#DEBUG_VALUE: Ibsend:count <- $esi
	movl	%r11d, %ecx
.Ltmp506:
	#DEBUG_VALUE: Ibsend:dest <- $ecx
	movl	%r10d, %r8d
.Ltmp507:
	callq	MPI_Ibsend
.Ltmp508:
	.loc	17 89 1 is_stmt 1       # /usr/lib/x86_64-linux-gnu/openmpi/include/openmpi/ompi/mpi/cxx/comm_inln.h:89:1
	movq	-16(%rbp), %rax
.Ltmp509:
	#DEBUG_VALUE: request <- undef
	movq	$_ZTVN3MPI7RequestE+16, (%rbx)
	.loc	17 62 1                 # /usr/lib/x86_64-linux-gnu/openmpi/include/openmpi/ompi/mpi/cxx/comm_inln.h:62:1
	movq	%rax, 8(%rbx)
	.loc	17 90 1                 # /usr/lib/x86_64-linux-gnu/openmpi/include/openmpi/ompi/mpi/cxx/comm_inln.h:90:1
	movq	%rbx, %rax
	addq	$24, %rsp
	popq	%rbx
	popq	%rbp
	.cfi_def_cfa %rsp, 8
	retq
.Ltmp510:
.Lfunc_end89:
	.size	_ZNK3MPI4Comm6IbsendEPKviRKNS_8DatatypeEii, .Lfunc_end89-_ZNK3MPI4Comm6IbsendEPKviRKNS_8DatatypeEii
	.cfi_endproc
                                        # -- End function
	.weak	_ZNK3MPI4Comm6IssendEPKviRKNS_8DatatypeEii # -- Begin function _ZNK3MPI4Comm6IssendEPKviRKNS_8DatatypeEii
	.p2align	4, 0x90
	.type	_ZNK3MPI4Comm6IssendEPKviRKNS_8DatatypeEii,@function
_ZNK3MPI4Comm6IssendEPKviRKNS_8DatatypeEii: # @_ZNK3MPI4Comm6IssendEPKviRKNS_8DatatypeEii
.Lfunc_begin90:
	.loc	17 95 0                 # /usr/lib/x86_64-linux-gnu/openmpi/include/openmpi/ompi/mpi/cxx/comm_inln.h:95:0
	.cfi_startproc
# %bb.0:                                # %L.entry
	#DEBUG_VALUE: Issend: <- $rsi
	#DEBUG_VALUE: Issend:buf <- $rdx
	#DEBUG_VALUE: Issend:count <- $ecx
	#DEBUG_VALUE: Issend:datatype <- $r8
	#DEBUG_VALUE: Issend:dest <- $r9d
	pushq	%rbp
	.cfi_def_cfa_offset 16
	.cfi_offset %rbp, -16
	movq	%rsp, %rbp
	.cfi_def_cfa_register %rbp
	pushq	%rbx
	subq	$24, %rsp
	.cfi_offset %rbx, -24
	movl	%r9d, %r11d
	movq	%rdx, %rax
	movq	%rdi, %rbx
	movl	16(%rbp), %r10d
.Ltmp511:
	#DEBUG_VALUE: datatype <- $r8
	#DEBUG_VALUE:  <- $rsi
	#DEBUG_VALUE: tag <- $r10d
	#DEBUG_VALUE: dest <- $r11d
	#DEBUG_VALUE: count <- $ecx
	#DEBUG_VALUE: buf <- $rax
	#DEBUG_VALUE: Issend:tag <- [DW_OP_plus_uconst 16] [$rbp+0]
	#DEBUG_VALUE: Issend:dest <- $r11d
	#DEBUG_VALUE: Issend:datatype <- $r8
	#DEBUG_VALUE: Issend:count <- $ecx
	#DEBUG_VALUE: Issend:buf <- $rax
	#DEBUG_VALUE: Issend: <- $rsi
	.loc	17 90 1 prologue_end    # /usr/lib/x86_64-linux-gnu/openmpi/include/openmpi/ompi/mpi/cxx/comm_inln.h:90:1
	movq	8(%r8), %rdx
	movq	8(%rsi), %r9
.Ltmp512:
	#DEBUG_VALUE: request <- [DW_OP_constu 16, DW_OP_minus, DW_OP_deref] $rbp
	.loc	17 0 1 is_stmt 0        # /usr/lib/x86_64-linux-gnu/openmpi/include/openmpi/ompi/mpi/cxx/comm_inln.h:0:1
	leaq	-16(%rbp), %rsi
.Ltmp513:
	.loc	17 90 1                 # /usr/lib/x86_64-linux-gnu/openmpi/include/openmpi/ompi/mpi/cxx/comm_inln.h:90:1
	movq	%rsi, (%rsp)
	movq	%rax, %rdi
.Ltmp514:
	#DEBUG_VALUE: Issend:buf <- $rdi
	movl	%ecx, %esi
.Ltmp515:
	#DEBUG_VALUE: Issend:count <- $esi
	movl	%r11d, %ecx
.Ltmp516:
	#DEBUG_VALUE: Issend:dest <- $ecx
	movl	%r10d, %r8d
.Ltmp517:
	callq	MPI_Issend
.Ltmp518:
	.loc	17 99 1 is_stmt 1       # /usr/lib/x86_64-linux-gnu/openmpi/include/openmpi/ompi/mpi/cxx/comm_inln.h:99:1
	movq	-16(%rbp), %rax
.Ltmp519:
	#DEBUG_VALUE: request <- undef
	movq	$_ZTVN3MPI7RequestE+16, (%rbx)
	.loc	17 62 1                 # /usr/lib/x86_64-linux-gnu/openmpi/include/openmpi/ompi/mpi/cxx/comm_inln.h:62:1
	movq	%rax, 8(%rbx)
	.loc	17 100 1                # /usr/lib/x86_64-linux-gnu/openmpi/include/openmpi/ompi/mpi/cxx/comm_inln.h:100:1
	movq	%rbx, %rax
	addq	$24, %rsp
	popq	%rbx
	popq	%rbp
	.cfi_def_cfa %rsp, 8
	retq
.Ltmp520:
.Lfunc_end90:
	.size	_ZNK3MPI4Comm6IssendEPKviRKNS_8DatatypeEii, .Lfunc_end90-_ZNK3MPI4Comm6IssendEPKviRKNS_8DatatypeEii
	.cfi_endproc
                                        # -- End function
	.weak	_ZNK3MPI4Comm6IrsendEPKviRKNS_8DatatypeEii # -- Begin function _ZNK3MPI4Comm6IrsendEPKviRKNS_8DatatypeEii
	.p2align	4, 0x90
	.type	_ZNK3MPI4Comm6IrsendEPKviRKNS_8DatatypeEii,@function
_ZNK3MPI4Comm6IrsendEPKviRKNS_8DatatypeEii: # @_ZNK3MPI4Comm6IrsendEPKviRKNS_8DatatypeEii
.Lfunc_begin91:
	.loc	17 105 0                # /usr/lib/x86_64-linux-gnu/openmpi/include/openmpi/ompi/mpi/cxx/comm_inln.h:105:0
	.cfi_startproc
# %bb.0:                                # %L.entry
	#DEBUG_VALUE: Irsend: <- $rsi
	#DEBUG_VALUE: Irsend:buf <- $rdx
	#DEBUG_VALUE: Irsend:count <- $ecx
	#DEBUG_VALUE: Irsend:datatype <- $r8
	#DEBUG_VALUE: Irsend:dest <- $r9d
	pushq	%rbp
	.cfi_def_cfa_offset 16
	.cfi_offset %rbp, -16
	movq	%rsp, %rbp
	.cfi_def_cfa_register %rbp
	pushq	%rbx
	subq	$24, %rsp
	.cfi_offset %rbx, -24
	movl	%r9d, %r11d
	movq	%rdx, %rax
	movq	%rdi, %rbx
	movl	16(%rbp), %r10d
.Ltmp521:
	#DEBUG_VALUE: datatype <- $r8
	#DEBUG_VALUE:  <- $rsi
	#DEBUG_VALUE: tag <- $r10d
	#DEBUG_VALUE: dest <- $r11d
	#DEBUG_VALUE: count <- $ecx
	#DEBUG_VALUE: buf <- $rax
	#DEBUG_VALUE: Irsend:tag <- [DW_OP_plus_uconst 16] [$rbp+0]
	#DEBUG_VALUE: Irsend:dest <- $r11d
	#DEBUG_VALUE: Irsend:datatype <- $r8
	#DEBUG_VALUE: Irsend:count <- $ecx
	#DEBUG_VALUE: Irsend:buf <- $rax
	#DEBUG_VALUE: Irsend: <- $rsi
	.loc	17 90 1 prologue_end    # /usr/lib/x86_64-linux-gnu/openmpi/include/openmpi/ompi/mpi/cxx/comm_inln.h:90:1
	movq	8(%r8), %rdx
	movq	8(%rsi), %r9
.Ltmp522:
	#DEBUG_VALUE: request <- [DW_OP_constu 16, DW_OP_minus, DW_OP_deref] $rbp
	.loc	17 0 1 is_stmt 0        # /usr/lib/x86_64-linux-gnu/openmpi/include/openmpi/ompi/mpi/cxx/comm_inln.h:0:1
	leaq	-16(%rbp), %rsi
.Ltmp523:
	.loc	17 90 1                 # /usr/lib/x86_64-linux-gnu/openmpi/include/openmpi/ompi/mpi/cxx/comm_inln.h:90:1
	movq	%rsi, (%rsp)
	movq	%rax, %rdi
.Ltmp524:
	#DEBUG_VALUE: Irsend:buf <- $rdi
	movl	%ecx, %esi
.Ltmp525:
	#DEBUG_VALUE: Irsend:count <- $esi
	movl	%r11d, %ecx
.Ltmp526:
	#DEBUG_VALUE: Irsend:dest <- $ecx
	movl	%r10d, %r8d
.Ltmp527:
	callq	MPI_Irsend
.Ltmp528:
	.loc	17 109 1 is_stmt 1      # /usr/lib/x86_64-linux-gnu/openmpi/include/openmpi/ompi/mpi/cxx/comm_inln.h:109:1
	movq	-16(%rbp), %rax
.Ltmp529:
	#DEBUG_VALUE: request <- undef
	movq	$_ZTVN3MPI7RequestE+16, (%rbx)
	.loc	17 62 1                 # /usr/lib/x86_64-linux-gnu/openmpi/include/openmpi/ompi/mpi/cxx/comm_inln.h:62:1
	movq	%rax, 8(%rbx)
	.loc	17 110 1                # /usr/lib/x86_64-linux-gnu/openmpi/include/openmpi/ompi/mpi/cxx/comm_inln.h:110:1
	movq	%rbx, %rax
	addq	$24, %rsp
	popq	%rbx
	popq	%rbp
	.cfi_def_cfa %rsp, 8
	retq
.Ltmp530:
.Lfunc_end91:
	.size	_ZNK3MPI4Comm6IrsendEPKviRKNS_8DatatypeEii, .Lfunc_end91-_ZNK3MPI4Comm6IrsendEPKviRKNS_8DatatypeEii
	.cfi_endproc
                                        # -- End function
	.weak	_ZNK3MPI4Comm5IrecvEPviRKNS_8DatatypeEii # -- Begin function _ZNK3MPI4Comm5IrecvEPviRKNS_8DatatypeEii
	.p2align	4, 0x90
	.type	_ZNK3MPI4Comm5IrecvEPviRKNS_8DatatypeEii,@function
_ZNK3MPI4Comm5IrecvEPviRKNS_8DatatypeEii: # @_ZNK3MPI4Comm5IrecvEPviRKNS_8DatatypeEii
.Lfunc_begin92:
	.loc	17 115 0                # /usr/lib/x86_64-linux-gnu/openmpi/include/openmpi/ompi/mpi/cxx/comm_inln.h:115:0
	.cfi_startproc
# %bb.0:                                # %L.entry
	#DEBUG_VALUE: Irecv: <- $rsi
	#DEBUG_VALUE: Irecv:buf <- $rdx
	#DEBUG_VALUE: Irecv:count <- $ecx
	#DEBUG_VALUE: Irecv:datatype <- $r8
	#DEBUG_VALUE: Irecv:source <- $r9d
	pushq	%rbp
	.cfi_def_cfa_offset 16
	.cfi_offset %rbp, -16
	movq	%rsp, %rbp
	.cfi_def_cfa_register %rbp
	pushq	%rbx
	subq	$24, %rsp
	.cfi_offset %rbx, -24
	movl	%r9d, %r11d
	movq	%rdx, %rax
	movq	%rdi, %rbx
	movl	16(%rbp), %r10d
.Ltmp531:
	#DEBUG_VALUE: datatype <- $r8
	#DEBUG_VALUE:  <- $rsi
	#DEBUG_VALUE: tag <- $r10d
	#DEBUG_VALUE: source <- $r11d
	#DEBUG_VALUE: count <- $ecx
	#DEBUG_VALUE: buf <- $rax
	#DEBUG_VALUE: Irecv:tag <- [DW_OP_plus_uconst 16] [$rbp+0]
	#DEBUG_VALUE: Irecv:source <- $r11d
	#DEBUG_VALUE: Irecv:datatype <- $r8
	#DEBUG_VALUE: Irecv:count <- $ecx
	#DEBUG_VALUE: Irecv:buf <- $rax
	#DEBUG_VALUE: Irecv: <- $rsi
	.loc	17 90 1 prologue_end    # /usr/lib/x86_64-linux-gnu/openmpi/include/openmpi/ompi/mpi/cxx/comm_inln.h:90:1
	movq	8(%r8), %rdx
	movq	8(%rsi), %r9
.Ltmp532:
	#DEBUG_VALUE: request <- [DW_OP_constu 16, DW_OP_minus, DW_OP_deref] $rbp
	.loc	17 0 1 is_stmt 0        # /usr/lib/x86_64-linux-gnu/openmpi/include/openmpi/ompi/mpi/cxx/comm_inln.h:0:1
	leaq	-16(%rbp), %rsi
.Ltmp533:
	.loc	17 90 1                 # /usr/lib/x86_64-linux-gnu/openmpi/include/openmpi/ompi/mpi/cxx/comm_inln.h:90:1
	movq	%rsi, (%rsp)
	movq	%rax, %rdi
.Ltmp534:
	#DEBUG_VALUE: Irecv:buf <- $rdi
	movl	%ecx, %esi
.Ltmp535:
	#DEBUG_VALUE: Irecv:count <- $esi
	movl	%r11d, %ecx
.Ltmp536:
	#DEBUG_VALUE: Irecv:source <- $ecx
	movl	%r10d, %r8d
.Ltmp537:
	callq	MPI_Irecv
.Ltmp538:
	.loc	17 119 1 is_stmt 1      # /usr/lib/x86_64-linux-gnu/openmpi/include/openmpi/ompi/mpi/cxx/comm_inln.h:119:1
	movq	-16(%rbp), %rax
.Ltmp539:
	#DEBUG_VALUE: request <- undef
	movq	$_ZTVN3MPI7RequestE+16, (%rbx)
	.loc	17 62 1                 # /usr/lib/x86_64-linux-gnu/openmpi/include/openmpi/ompi/mpi/cxx/comm_inln.h:62:1
	movq	%rax, 8(%rbx)
	.loc	17 120 1                # /usr/lib/x86_64-linux-gnu/openmpi/include/openmpi/ompi/mpi/cxx/comm_inln.h:120:1
	movq	%rbx, %rax
	addq	$24, %rsp
	popq	%rbx
	popq	%rbp
	.cfi_def_cfa %rsp, 8
	retq
.Ltmp540:
.Lfunc_end92:
	.size	_ZNK3MPI4Comm5IrecvEPviRKNS_8DatatypeEii, .Lfunc_end92-_ZNK3MPI4Comm5IrecvEPviRKNS_8DatatypeEii
	.cfi_endproc
                                        # -- End function
	.weak	_ZNK3MPI4Comm6IprobeEiiRNS_6StatusE # -- Begin function _ZNK3MPI4Comm6IprobeEiiRNS_6StatusE
	.p2align	4, 0x90
	.type	_ZNK3MPI4Comm6IprobeEiiRNS_6StatusE,@function
_ZNK3MPI4Comm6IprobeEiiRNS_6StatusE:    # @_ZNK3MPI4Comm6IprobeEiiRNS_6StatusE
.Lfunc_begin93:
	.loc	17 125 0                # /usr/lib/x86_64-linux-gnu/openmpi/include/openmpi/ompi/mpi/cxx/comm_inln.h:125:0
	.cfi_startproc
# %bb.0:                                # %L.entry
	#DEBUG_VALUE: Iprobe: <- $rdi
	#DEBUG_VALUE: Iprobe: <- $rdi
	#DEBUG_VALUE: Iprobe:source <- $esi
	#DEBUG_VALUE: Iprobe:source <- $esi
	#DEBUG_VALUE: Iprobe:tag <- $edx
	#DEBUG_VALUE: Iprobe:tag <- $edx
	#DEBUG_VALUE: Iprobe:status <- $rcx
	#DEBUG_VALUE: Iprobe:status <- $rcx
	pushq	%rbp
	.cfi_def_cfa_offset 16
	.cfi_offset %rbp, -16
	movq	%rsp, %rbp
	.cfi_def_cfa_register %rbp
	subq	$16, %rsp
.Ltmp541:
	#DEBUG_VALUE:  <- $rdi
	#DEBUG_VALUE: source <- $esi
	#DEBUG_VALUE: tag <- $edx
	#DEBUG_VALUE: status <- $rcx
	.loc	17 127 1 prologue_end   # /usr/lib/x86_64-linux-gnu/openmpi/include/openmpi/ompi/mpi/cxx/comm_inln.h:127:1
	movq	8(%rdi), %rax
	leaq	8(%rcx), %r8
.Ltmp542:
	#DEBUG_VALUE: t <- [DW_OP_constu 4, DW_OP_minus, DW_OP_deref] $rbp
	.loc	17 0 1 is_stmt 0        # /usr/lib/x86_64-linux-gnu/openmpi/include/openmpi/ompi/mpi/cxx/comm_inln.h:0:1
	leaq	-4(%rbp), %rcx
.Ltmp543:
	.loc	17 127 1                # /usr/lib/x86_64-linux-gnu/openmpi/include/openmpi/ompi/mpi/cxx/comm_inln.h:127:1
	movl	%esi, %edi
.Ltmp544:
	#DEBUG_VALUE: Iprobe:source <- $edi
	movl	%edx, %esi
.Ltmp545:
	#DEBUG_VALUE: Iprobe:tag <- $esi
	movq	%rax, %rdx
.Ltmp546:
	callq	MPI_Iprobe
.Ltmp547:
	#DEBUG_VALUE: t <- undef
	.loc	17 128 1 is_stmt 1      # /usr/lib/x86_64-linux-gnu/openmpi/include/openmpi/ompi/mpi/cxx/comm_inln.h:128:1
	cmpl	$0, -4(%rbp)
	setne	%al
	addq	$16, %rsp
	popq	%rbp
	.cfi_def_cfa %rsp, 8
	retq
.Ltmp548:
.Lfunc_end93:
	.size	_ZNK3MPI4Comm6IprobeEiiRNS_6StatusE, .Lfunc_end93-_ZNK3MPI4Comm6IprobeEiiRNS_6StatusE
	.cfi_endproc
                                        # -- End function
	.weak	_ZNK3MPI4Comm6IprobeEii # -- Begin function _ZNK3MPI4Comm6IprobeEii
	.p2align	4, 0x90
	.type	_ZNK3MPI4Comm6IprobeEii,@function
_ZNK3MPI4Comm6IprobeEii:                # @_ZNK3MPI4Comm6IprobeEii
.Lfunc_begin94:
	.loc	17 133 0                # /usr/lib/x86_64-linux-gnu/openmpi/include/openmpi/ompi/mpi/cxx/comm_inln.h:133:0
	.cfi_startproc
# %bb.0:                                # %L.entry
	#DEBUG_VALUE: Iprobe: <- $rdi
	#DEBUG_VALUE: Iprobe: <- $rdi
	#DEBUG_VALUE: Iprobe:source <- $esi
	#DEBUG_VALUE: Iprobe:source <- $esi
	#DEBUG_VALUE: Iprobe:tag <- $edx
	#DEBUG_VALUE: Iprobe:tag <- $edx
	pushq	%rbp
	.cfi_def_cfa_offset 16
	.cfi_offset %rbp, -16
	movq	%rsp, %rbp
	.cfi_def_cfa_register %rbp
	subq	$16, %rsp
.Ltmp549:
	#DEBUG_VALUE:  <- $rdi
	#DEBUG_VALUE: source <- $esi
	#DEBUG_VALUE: tag <- $edx
	.loc	17 135 1 prologue_end   # /usr/lib/x86_64-linux-gnu/openmpi/include/openmpi/ompi/mpi/cxx/comm_inln.h:135:1
	movq	8(%rdi), %rax
.Ltmp550:
	#DEBUG_VALUE: t <- [DW_OP_constu 4, DW_OP_minus, DW_OP_deref] $rbp
	.loc	17 0 1 is_stmt 0        # /usr/lib/x86_64-linux-gnu/openmpi/include/openmpi/ompi/mpi/cxx/comm_inln.h:0:1
	leaq	-4(%rbp), %rcx
	.loc	17 135 1                # /usr/lib/x86_64-linux-gnu/openmpi/include/openmpi/ompi/mpi/cxx/comm_inln.h:135:1
	movl	%esi, %edi
.Ltmp551:
	#DEBUG_VALUE: Iprobe:source <- $edi
	movl	%edx, %esi
.Ltmp552:
	#DEBUG_VALUE: Iprobe:tag <- $esi
	movq	%rax, %rdx
.Ltmp553:
	xorl	%r8d, %r8d
	callq	MPI_Iprobe
.Ltmp554:
	#DEBUG_VALUE: t <- undef
	.loc	17 136 1 is_stmt 1      # /usr/lib/x86_64-linux-gnu/openmpi/include/openmpi/ompi/mpi/cxx/comm_inln.h:136:1
	cmpl	$0, -4(%rbp)
	setne	%al
	addq	$16, %rsp
	popq	%rbp
	.cfi_def_cfa %rsp, 8
	retq
.Ltmp555:
.Lfunc_end94:
	.size	_ZNK3MPI4Comm6IprobeEii, .Lfunc_end94-_ZNK3MPI4Comm6IprobeEii
	.cfi_endproc
                                        # -- End function
	.weak	_ZNK3MPI4Comm5ProbeEiiRNS_6StatusE # -- Begin function _ZNK3MPI4Comm5ProbeEiiRNS_6StatusE
	.p2align	4, 0x90
	.type	_ZNK3MPI4Comm5ProbeEiiRNS_6StatusE,@function
_ZNK3MPI4Comm5ProbeEiiRNS_6StatusE:     # @_ZNK3MPI4Comm5ProbeEiiRNS_6StatusE
.Lfunc_begin95:
	.loc	17 141 0                # /usr/lib/x86_64-linux-gnu/openmpi/include/openmpi/ompi/mpi/cxx/comm_inln.h:141:0
	.cfi_startproc
# %bb.0:                                # %L.entry
	#DEBUG_VALUE: Probe: <- $rdi
	#DEBUG_VALUE: Probe: <- $rdi
	#DEBUG_VALUE: Probe:source <- $esi
	#DEBUG_VALUE: Probe:source <- $esi
	#DEBUG_VALUE: Probe:tag <- $edx
	#DEBUG_VALUE: Probe:tag <- $edx
	#DEBUG_VALUE: Probe:status <- $rcx
	#DEBUG_VALUE: Probe:status <- $rcx
	pushq	%rbp
	.cfi_def_cfa_offset 16
	.cfi_offset %rbp, -16
	movq	%rsp, %rbp
	.cfi_def_cfa_register %rbp
.Ltmp556:
	#DEBUG_VALUE:  <- $rdi
	#DEBUG_VALUE:  <- $rdi
	#DEBUG_VALUE: source <- $esi
	#DEBUG_VALUE: source <- $esi
	#DEBUG_VALUE: tag <- $edx
	#DEBUG_VALUE: tag <- $edx
	#DEBUG_VALUE: status <- $rcx
	#DEBUG_VALUE: status <- $rcx
	.loc	17 142 1 prologue_end   # /usr/lib/x86_64-linux-gnu/openmpi/include/openmpi/ompi/mpi/cxx/comm_inln.h:142:1
	movq	8(%rdi), %rax
	addq	$8, %rcx
.Ltmp557:
	movl	%esi, %edi
.Ltmp558:
	#DEBUG_VALUE: source <- $edi
	#DEBUG_VALUE: Probe:source <- $edi
	movl	%edx, %esi
.Ltmp559:
	#DEBUG_VALUE: tag <- $esi
	#DEBUG_VALUE: Probe:tag <- $esi
	movq	%rax, %rdx
	popq	%rbp
	.cfi_def_cfa %rsp, 8
	jmp	MPI_Probe               # TAILCALL
.Ltmp560:
.Lfunc_end95:
	.size	_ZNK3MPI4Comm5ProbeEiiRNS_6StatusE, .Lfunc_end95-_ZNK3MPI4Comm5ProbeEiiRNS_6StatusE
	.cfi_endproc
                                        # -- End function
	.weak	_ZNK3MPI4Comm5ProbeEii  # -- Begin function _ZNK3MPI4Comm5ProbeEii
	.p2align	4, 0x90
	.type	_ZNK3MPI4Comm5ProbeEii,@function
_ZNK3MPI4Comm5ProbeEii:                 # @_ZNK3MPI4Comm5ProbeEii
.Lfunc_begin96:
	.loc	17 147 0                # /usr/lib/x86_64-linux-gnu/openmpi/include/openmpi/ompi/mpi/cxx/comm_inln.h:147:0
	.cfi_startproc
# %bb.0:                                # %L.entry
	#DEBUG_VALUE: Probe: <- $rdi
	#DEBUG_VALUE: Probe: <- $rdi
	#DEBUG_VALUE: Probe:source <- $esi
	#DEBUG_VALUE: Probe:source <- $esi
	#DEBUG_VALUE: Probe:tag <- $edx
	#DEBUG_VALUE: Probe:tag <- $edx
	pushq	%rbp
	.cfi_def_cfa_offset 16
	.cfi_offset %rbp, -16
	movq	%rsp, %rbp
	.cfi_def_cfa_register %rbp
.Ltmp561:
	#DEBUG_VALUE:  <- $rdi
	#DEBUG_VALUE:  <- $rdi
	#DEBUG_VALUE: source <- $esi
	#DEBUG_VALUE: source <- $esi
	#DEBUG_VALUE: tag <- $edx
	#DEBUG_VALUE: tag <- $edx
	.loc	17 148 1 prologue_end   # /usr/lib/x86_64-linux-gnu/openmpi/include/openmpi/ompi/mpi/cxx/comm_inln.h:148:1
	movq	8(%rdi), %rax
	movl	%esi, %edi
.Ltmp562:
	#DEBUG_VALUE: source <- $edi
	#DEBUG_VALUE: Probe:source <- $edi
	movl	%edx, %esi
.Ltmp563:
	#DEBUG_VALUE: tag <- $esi
	#DEBUG_VALUE: Probe:tag <- $esi
	movq	%rax, %rdx
	xorl	%ecx, %ecx
	popq	%rbp
	.cfi_def_cfa %rsp, 8
	jmp	MPI_Probe               # TAILCALL
.Ltmp564:
.Lfunc_end96:
	.size	_ZNK3MPI4Comm5ProbeEii, .Lfunc_end96-_ZNK3MPI4Comm5ProbeEii
	.cfi_endproc
                                        # -- End function
	.weak	_ZNK3MPI4Comm9Send_initEPKviRKNS_8DatatypeEii # -- Begin function _ZNK3MPI4Comm9Send_initEPKviRKNS_8DatatypeEii
	.p2align	4, 0x90
	.type	_ZNK3MPI4Comm9Send_initEPKviRKNS_8DatatypeEii,@function
_ZNK3MPI4Comm9Send_initEPKviRKNS_8DatatypeEii: # @_ZNK3MPI4Comm9Send_initEPKviRKNS_8DatatypeEii
.Lfunc_begin97:
	.loc	17 154 0                # /usr/lib/x86_64-linux-gnu/openmpi/include/openmpi/ompi/mpi/cxx/comm_inln.h:154:0
	.cfi_startproc
# %bb.0:                                # %L.entry
	#DEBUG_VALUE: Send_init: <- $rsi
	#DEBUG_VALUE: Send_init:buf <- $rdx
	#DEBUG_VALUE: Send_init:count <- $ecx
	#DEBUG_VALUE: Send_init:datatype <- $r8
	#DEBUG_VALUE: Send_init:dest <- $r9d
	pushq	%rbp
	.cfi_def_cfa_offset 16
	.cfi_offset %rbp, -16
	movq	%rsp, %rbp
	.cfi_def_cfa_register %rbp
	pushq	%rbx
	subq	$24, %rsp
	.cfi_offset %rbx, -24
	movl	%r9d, %r11d
	movq	%rdx, %rax
	movq	%rdi, %rbx
	movl	16(%rbp), %r10d
.Ltmp565:
	#DEBUG_VALUE: datatype <- $r8
	#DEBUG_VALUE:  <- $rsi
	#DEBUG_VALUE: tag <- $r10d
	#DEBUG_VALUE: dest <- $r11d
	#DEBUG_VALUE: count <- $ecx
	#DEBUG_VALUE: buf <- $rax
	#DEBUG_VALUE: Send_init:tag <- [DW_OP_plus_uconst 16] [$rbp+0]
	#DEBUG_VALUE: Send_init:dest <- $r11d
	#DEBUG_VALUE: Send_init:datatype <- $r8
	#DEBUG_VALUE: Send_init:count <- $ecx
	#DEBUG_VALUE: Send_init:buf <- $rax
	#DEBUG_VALUE: Send_init: <- $rsi
	.loc	17 90 1 prologue_end    # /usr/lib/x86_64-linux-gnu/openmpi/include/openmpi/ompi/mpi/cxx/comm_inln.h:90:1
	movq	8(%r8), %rdx
	movq	8(%rsi), %r9
.Ltmp566:
	#DEBUG_VALUE: request <- [DW_OP_constu 16, DW_OP_minus, DW_OP_deref] $rbp
	.loc	17 0 1 is_stmt 0        # /usr/lib/x86_64-linux-gnu/openmpi/include/openmpi/ompi/mpi/cxx/comm_inln.h:0:1
	leaq	-16(%rbp), %rsi
.Ltmp567:
	.loc	17 90 1                 # /usr/lib/x86_64-linux-gnu/openmpi/include/openmpi/ompi/mpi/cxx/comm_inln.h:90:1
	movq	%rsi, (%rsp)
	movq	%rax, %rdi
.Ltmp568:
	#DEBUG_VALUE: Send_init:buf <- $rdi
	movl	%ecx, %esi
.Ltmp569:
	#DEBUG_VALUE: Send_init:count <- $esi
	movl	%r11d, %ecx
.Ltmp570:
	#DEBUG_VALUE: Send_init:dest <- $ecx
	movl	%r10d, %r8d
.Ltmp571:
	callq	MPI_Send_init
.Ltmp572:
	.loc	17 175 1 is_stmt 1      # /usr/lib/x86_64-linux-gnu/openmpi/include/openmpi/ompi/mpi/cxx/comm_inln.h:175:1
	movq	-16(%rbp), %rax
.Ltmp573:
	#DEBUG_VALUE: request <- undef
	movq	%rax, 8(%rbx)
	movq	$_ZTVN3MPI8PrequestE+16, (%rbx)
	.loc	17 159 1                # /usr/lib/x86_64-linux-gnu/openmpi/include/openmpi/ompi/mpi/cxx/comm_inln.h:159:1
	movq	%rbx, %rax
	addq	$24, %rsp
	popq	%rbx
	popq	%rbp
	.cfi_def_cfa %rsp, 8
	retq
.Ltmp574:
.Lfunc_end97:
	.size	_ZNK3MPI4Comm9Send_initEPKviRKNS_8DatatypeEii, .Lfunc_end97-_ZNK3MPI4Comm9Send_initEPKviRKNS_8DatatypeEii
	.cfi_endproc
                                        # -- End function
	.weak	_ZNK3MPI4Comm10Bsend_initEPKviRKNS_8DatatypeEii # -- Begin function _ZNK3MPI4Comm10Bsend_initEPKviRKNS_8DatatypeEii
	.p2align	4, 0x90
	.type	_ZNK3MPI4Comm10Bsend_initEPKviRKNS_8DatatypeEii,@function
_ZNK3MPI4Comm10Bsend_initEPKviRKNS_8DatatypeEii: # @_ZNK3MPI4Comm10Bsend_initEPKviRKNS_8DatatypeEii
.Lfunc_begin98:
	.loc	17 164 0                # /usr/lib/x86_64-linux-gnu/openmpi/include/openmpi/ompi/mpi/cxx/comm_inln.h:164:0
	.cfi_startproc
# %bb.0:                                # %L.entry
	#DEBUG_VALUE: Bsend_init: <- $rsi
	#DEBUG_VALUE: Bsend_init:buf <- $rdx
	#DEBUG_VALUE: Bsend_init:count <- $ecx
	#DEBUG_VALUE: Bsend_init:datatype <- $r8
	#DEBUG_VALUE: Bsend_init:dest <- $r9d
	pushq	%rbp
	.cfi_def_cfa_offset 16
	.cfi_offset %rbp, -16
	movq	%rsp, %rbp
	.cfi_def_cfa_register %rbp
	pushq	%rbx
	subq	$24, %rsp
	.cfi_offset %rbx, -24
	movl	%r9d, %r11d
	movq	%rdx, %rax
	movq	%rdi, %rbx
	movl	16(%rbp), %r10d
.Ltmp575:
	#DEBUG_VALUE: datatype <- $r8
	#DEBUG_VALUE:  <- $rsi
	#DEBUG_VALUE: tag <- $r10d
	#DEBUG_VALUE: dest <- $r11d
	#DEBUG_VALUE: count <- $ecx
	#DEBUG_VALUE: buf <- $rax
	#DEBUG_VALUE: Bsend_init:tag <- [DW_OP_plus_uconst 16] [$rbp+0]
	#DEBUG_VALUE: Bsend_init:dest <- $r11d
	#DEBUG_VALUE: Bsend_init:datatype <- $r8
	#DEBUG_VALUE: Bsend_init:count <- $ecx
	#DEBUG_VALUE: Bsend_init:buf <- $rax
	#DEBUG_VALUE: Bsend_init: <- $rsi
	.loc	17 90 1 prologue_end    # /usr/lib/x86_64-linux-gnu/openmpi/include/openmpi/ompi/mpi/cxx/comm_inln.h:90:1
	movq	8(%r8), %rdx
	movq	8(%rsi), %r9
.Ltmp576:
	#DEBUG_VALUE: request <- [DW_OP_constu 16, DW_OP_minus, DW_OP_deref] $rbp
	.loc	17 0 1 is_stmt 0        # /usr/lib/x86_64-linux-gnu/openmpi/include/openmpi/ompi/mpi/cxx/comm_inln.h:0:1
	leaq	-16(%rbp), %rsi
.Ltmp577:
	.loc	17 90 1                 # /usr/lib/x86_64-linux-gnu/openmpi/include/openmpi/ompi/mpi/cxx/comm_inln.h:90:1
	movq	%rsi, (%rsp)
	movq	%rax, %rdi
.Ltmp578:
	#DEBUG_VALUE: Bsend_init:buf <- $rdi
	movl	%ecx, %esi
.Ltmp579:
	#DEBUG_VALUE: Bsend_init:count <- $esi
	movl	%r11d, %ecx
.Ltmp580:
	#DEBUG_VALUE: Bsend_init:dest <- $ecx
	movl	%r10d, %r8d
.Ltmp581:
	callq	MPI_Bsend_init
.Ltmp582:
	.loc	17 175 1 is_stmt 1      # /usr/lib/x86_64-linux-gnu/openmpi/include/openmpi/ompi/mpi/cxx/comm_inln.h:175:1
	movq	-16(%rbp), %rax
.Ltmp583:
	#DEBUG_VALUE: request <- undef
	movq	%rax, 8(%rbx)
	movq	$_ZTVN3MPI8PrequestE+16, (%rbx)
	.loc	17 169 1                # /usr/lib/x86_64-linux-gnu/openmpi/include/openmpi/ompi/mpi/cxx/comm_inln.h:169:1
	movq	%rbx, %rax
	addq	$24, %rsp
	popq	%rbx
	popq	%rbp
	.cfi_def_cfa %rsp, 8
	retq
.Ltmp584:
.Lfunc_end98:
	.size	_ZNK3MPI4Comm10Bsend_initEPKviRKNS_8DatatypeEii, .Lfunc_end98-_ZNK3MPI4Comm10Bsend_initEPKviRKNS_8DatatypeEii
	.cfi_endproc
                                        # -- End function
	.weak	_ZNK3MPI4Comm10Ssend_initEPKviRKNS_8DatatypeEii # -- Begin function _ZNK3MPI4Comm10Ssend_initEPKviRKNS_8DatatypeEii
	.p2align	4, 0x90
	.type	_ZNK3MPI4Comm10Ssend_initEPKviRKNS_8DatatypeEii,@function
_ZNK3MPI4Comm10Ssend_initEPKviRKNS_8DatatypeEii: # @_ZNK3MPI4Comm10Ssend_initEPKviRKNS_8DatatypeEii
.Lfunc_begin99:
	.loc	17 174 0                # /usr/lib/x86_64-linux-gnu/openmpi/include/openmpi/ompi/mpi/cxx/comm_inln.h:174:0
	.cfi_startproc
# %bb.0:                                # %L.entry
	#DEBUG_VALUE: Ssend_init: <- $rsi
	#DEBUG_VALUE: Ssend_init:buf <- $rdx
	#DEBUG_VALUE: Ssend_init:count <- $ecx
	#DEBUG_VALUE: Ssend_init:datatype <- $r8
	#DEBUG_VALUE: Ssend_init:dest <- $r9d
	pushq	%rbp
	.cfi_def_cfa_offset 16
	.cfi_offset %rbp, -16
	movq	%rsp, %rbp
	.cfi_def_cfa_register %rbp
	pushq	%rbx
	subq	$24, %rsp
	.cfi_offset %rbx, -24
	movl	%r9d, %r11d
	movq	%rdx, %rax
	movq	%rdi, %rbx
	movl	16(%rbp), %r10d
.Ltmp585:
	#DEBUG_VALUE: datatype <- $r8
	#DEBUG_VALUE:  <- $rsi
	#DEBUG_VALUE: tag <- $r10d
	#DEBUG_VALUE: dest <- $r11d
	#DEBUG_VALUE: count <- $ecx
	#DEBUG_VALUE: buf <- $rax
	#DEBUG_VALUE: Ssend_init:tag <- [DW_OP_plus_uconst 16] [$rbp+0]
	#DEBUG_VALUE: Ssend_init:dest <- $r11d
	#DEBUG_VALUE: Ssend_init:datatype <- $r8
	#DEBUG_VALUE: Ssend_init:count <- $ecx
	#DEBUG_VALUE: Ssend_init:buf <- $rax
	#DEBUG_VALUE: Ssend_init: <- $rsi
	.loc	17 90 1 prologue_end    # /usr/lib/x86_64-linux-gnu/openmpi/include/openmpi/ompi/mpi/cxx/comm_inln.h:90:1
	movq	8(%r8), %rdx
	movq	8(%rsi), %r9
.Ltmp586:
	#DEBUG_VALUE: request <- [DW_OP_constu 16, DW_OP_minus, DW_OP_deref] $rbp
	.loc	17 0 1 is_stmt 0        # /usr/lib/x86_64-linux-gnu/openmpi/include/openmpi/ompi/mpi/cxx/comm_inln.h:0:1
	leaq	-16(%rbp), %rsi
.Ltmp587:
	.loc	17 90 1                 # /usr/lib/x86_64-linux-gnu/openmpi/include/openmpi/ompi/mpi/cxx/comm_inln.h:90:1
	movq	%rsi, (%rsp)
	movq	%rax, %rdi
.Ltmp588:
	#DEBUG_VALUE: Ssend_init:buf <- $rdi
	movl	%ecx, %esi
.Ltmp589:
	#DEBUG_VALUE: Ssend_init:count <- $esi
	movl	%r11d, %ecx
.Ltmp590:
	#DEBUG_VALUE: Ssend_init:dest <- $ecx
	movl	%r10d, %r8d
.Ltmp591:
	callq	MPI_Ssend_init
.Ltmp592:
	.loc	17 175 1 is_stmt 1      # /usr/lib/x86_64-linux-gnu/openmpi/include/openmpi/ompi/mpi/cxx/comm_inln.h:175:1
	movq	-16(%rbp), %rax
.Ltmp593:
	#DEBUG_VALUE: request <- undef
	movq	%rax, 8(%rbx)
	movq	$_ZTVN3MPI8PrequestE+16, (%rbx)
	.loc	17 179 1                # /usr/lib/x86_64-linux-gnu/openmpi/include/openmpi/ompi/mpi/cxx/comm_inln.h:179:1
	movq	%rbx, %rax
	addq	$24, %rsp
	popq	%rbx
	popq	%rbp
	.cfi_def_cfa %rsp, 8
	retq
.Ltmp594:
.Lfunc_end99:
	.size	_ZNK3MPI4Comm10Ssend_initEPKviRKNS_8DatatypeEii, .Lfunc_end99-_ZNK3MPI4Comm10Ssend_initEPKviRKNS_8DatatypeEii
	.cfi_endproc
                                        # -- End function
	.weak	_ZNK3MPI4Comm10Rsend_initEPKviRKNS_8DatatypeEii # -- Begin function _ZNK3MPI4Comm10Rsend_initEPKviRKNS_8DatatypeEii
	.p2align	4, 0x90
	.type	_ZNK3MPI4Comm10Rsend_initEPKviRKNS_8DatatypeEii,@function
_ZNK3MPI4Comm10Rsend_initEPKviRKNS_8DatatypeEii: # @_ZNK3MPI4Comm10Rsend_initEPKviRKNS_8DatatypeEii
.Lfunc_begin100:
	.loc	17 184 0                # /usr/lib/x86_64-linux-gnu/openmpi/include/openmpi/ompi/mpi/cxx/comm_inln.h:184:0
	.cfi_startproc
# %bb.0:                                # %L.entry
	#DEBUG_VALUE: Rsend_init: <- $rsi
	#DEBUG_VALUE: Rsend_init:buf <- $rdx
	#DEBUG_VALUE: Rsend_init:count <- $ecx
	#DEBUG_VALUE: Rsend_init:datatype <- $r8
	#DEBUG_VALUE: Rsend_init:dest <- $r9d
	pushq	%rbp
	.cfi_def_cfa_offset 16
	.cfi_offset %rbp, -16
	movq	%rsp, %rbp
	.cfi_def_cfa_register %rbp
	pushq	%rbx
	subq	$24, %rsp
	.cfi_offset %rbx, -24
	movl	%r9d, %r11d
	movq	%rdx, %rax
	movq	%rdi, %rbx
	movl	16(%rbp), %r10d
.Ltmp595:
	#DEBUG_VALUE: datatype <- $r8
	#DEBUG_VALUE:  <- $rsi
	#DEBUG_VALUE: tag <- $r10d
	#DEBUG_VALUE: dest <- $r11d
	#DEBUG_VALUE: count <- $ecx
	#DEBUG_VALUE: buf <- $rax
	#DEBUG_VALUE: Rsend_init:tag <- [DW_OP_plus_uconst 16] [$rbp+0]
	#DEBUG_VALUE: Rsend_init:dest <- $r11d
	#DEBUG_VALUE: Rsend_init:datatype <- $r8
	#DEBUG_VALUE: Rsend_init:count <- $ecx
	#DEBUG_VALUE: Rsend_init:buf <- $rax
	#DEBUG_VALUE: Rsend_init: <- $rsi
	.loc	17 90 1 prologue_end    # /usr/lib/x86_64-linux-gnu/openmpi/include/openmpi/ompi/mpi/cxx/comm_inln.h:90:1
	movq	8(%r8), %rdx
	movq	8(%rsi), %r9
.Ltmp596:
	#DEBUG_VALUE: request <- [DW_OP_constu 16, DW_OP_minus, DW_OP_deref] $rbp
	.loc	17 0 1 is_stmt 0        # /usr/lib/x86_64-linux-gnu/openmpi/include/openmpi/ompi/mpi/cxx/comm_inln.h:0:1
	leaq	-16(%rbp), %rsi
.Ltmp597:
	.loc	17 90 1                 # /usr/lib/x86_64-linux-gnu/openmpi/include/openmpi/ompi/mpi/cxx/comm_inln.h:90:1
	movq	%rsi, (%rsp)
	movq	%rax, %rdi
.Ltmp598:
	#DEBUG_VALUE: Rsend_init:buf <- $rdi
	movl	%ecx, %esi
.Ltmp599:
	#DEBUG_VALUE: Rsend_init:count <- $esi
	movl	%r11d, %ecx
.Ltmp600:
	#DEBUG_VALUE: Rsend_init:dest <- $ecx
	movl	%r10d, %r8d
.Ltmp601:
	callq	MPI_Rsend_init
.Ltmp602:
	.loc	17 175 1 is_stmt 1      # /usr/lib/x86_64-linux-gnu/openmpi/include/openmpi/ompi/mpi/cxx/comm_inln.h:175:1
	movq	-16(%rbp), %rax
.Ltmp603:
	#DEBUG_VALUE: request <- undef
	movq	%rax, 8(%rbx)
	movq	$_ZTVN3MPI8PrequestE+16, (%rbx)
	.loc	17 189 1                # /usr/lib/x86_64-linux-gnu/openmpi/include/openmpi/ompi/mpi/cxx/comm_inln.h:189:1
	movq	%rbx, %rax
	addq	$24, %rsp
	popq	%rbx
	popq	%rbp
	.cfi_def_cfa %rsp, 8
	retq
.Ltmp604:
.Lfunc_end100:
	.size	_ZNK3MPI4Comm10Rsend_initEPKviRKNS_8DatatypeEii, .Lfunc_end100-_ZNK3MPI4Comm10Rsend_initEPKviRKNS_8DatatypeEii
	.cfi_endproc
                                        # -- End function
	.weak	_ZNK3MPI4Comm9Recv_initEPviRKNS_8DatatypeEii # -- Begin function _ZNK3MPI4Comm9Recv_initEPviRKNS_8DatatypeEii
	.p2align	4, 0x90
	.type	_ZNK3MPI4Comm9Recv_initEPviRKNS_8DatatypeEii,@function
_ZNK3MPI4Comm9Recv_initEPviRKNS_8DatatypeEii: # @_ZNK3MPI4Comm9Recv_initEPviRKNS_8DatatypeEii
.Lfunc_begin101:
	.loc	17 194 0                # /usr/lib/x86_64-linux-gnu/openmpi/include/openmpi/ompi/mpi/cxx/comm_inln.h:194:0
	.cfi_startproc
# %bb.0:                                # %L.entry
	#DEBUG_VALUE: Recv_init: <- $rsi
	#DEBUG_VALUE: Recv_init:buf <- $rdx
	#DEBUG_VALUE: Recv_init:count <- $ecx
	#DEBUG_VALUE: Recv_init:datatype <- $r8
	#DEBUG_VALUE: Recv_init:source <- $r9d
	pushq	%rbp
	.cfi_def_cfa_offset 16
	.cfi_offset %rbp, -16
	movq	%rsp, %rbp
	.cfi_def_cfa_register %rbp
	pushq	%rbx
	subq	$24, %rsp
	.cfi_offset %rbx, -24
	movl	%r9d, %r11d
	movq	%rdx, %rax
	movq	%rdi, %rbx
	movl	16(%rbp), %r10d
.Ltmp605:
	#DEBUG_VALUE: datatype <- $r8
	#DEBUG_VALUE:  <- $rsi
	#DEBUG_VALUE: tag <- $r10d
	#DEBUG_VALUE: source <- $r11d
	#DEBUG_VALUE: count <- $ecx
	#DEBUG_VALUE: buf <- $rax
	#DEBUG_VALUE: Recv_init:tag <- [DW_OP_plus_uconst 16] [$rbp+0]
	#DEBUG_VALUE: Recv_init:source <- $r11d
	#DEBUG_VALUE: Recv_init:datatype <- $r8
	#DEBUG_VALUE: Recv_init:count <- $ecx
	#DEBUG_VALUE: Recv_init:buf <- $rax
	#DEBUG_VALUE: Recv_init: <- $rsi
	.loc	17 90 1 prologue_end    # /usr/lib/x86_64-linux-gnu/openmpi/include/openmpi/ompi/mpi/cxx/comm_inln.h:90:1
	movq	8(%r8), %rdx
	movq	8(%rsi), %r9
.Ltmp606:
	#DEBUG_VALUE: request <- [DW_OP_constu 16, DW_OP_minus, DW_OP_deref] $rbp
	.loc	17 0 1 is_stmt 0        # /usr/lib/x86_64-linux-gnu/openmpi/include/openmpi/ompi/mpi/cxx/comm_inln.h:0:1
	leaq	-16(%rbp), %rsi
.Ltmp607:
	.loc	17 90 1                 # /usr/lib/x86_64-linux-gnu/openmpi/include/openmpi/ompi/mpi/cxx/comm_inln.h:90:1
	movq	%rsi, (%rsp)
	movq	%rax, %rdi
.Ltmp608:
	#DEBUG_VALUE: Recv_init:buf <- $rdi
	movl	%ecx, %esi
.Ltmp609:
	#DEBUG_VALUE: Recv_init:count <- $esi
	movl	%r11d, %ecx
.Ltmp610:
	#DEBUG_VALUE: Recv_init:source <- $ecx
	movl	%r10d, %r8d
.Ltmp611:
	callq	MPI_Recv_init
.Ltmp612:
	.loc	17 175 1 is_stmt 1      # /usr/lib/x86_64-linux-gnu/openmpi/include/openmpi/ompi/mpi/cxx/comm_inln.h:175:1
	movq	-16(%rbp), %rax
.Ltmp613:
	#DEBUG_VALUE: request <- undef
	movq	%rax, 8(%rbx)
	movq	$_ZTVN3MPI8PrequestE+16, (%rbx)
	.loc	17 199 1                # /usr/lib/x86_64-linux-gnu/openmpi/include/openmpi/ompi/mpi/cxx/comm_inln.h:199:1
	movq	%rbx, %rax
	addq	$24, %rsp
	popq	%rbx
	popq	%rbp
	.cfi_def_cfa %rsp, 8
	retq
.Ltmp614:
.Lfunc_end101:
	.size	_ZNK3MPI4Comm9Recv_initEPviRKNS_8DatatypeEii, .Lfunc_end101-_ZNK3MPI4Comm9Recv_initEPviRKNS_8DatatypeEii
	.cfi_endproc
                                        # -- End function
	.weak	_ZNK3MPI4Comm8SendrecvEPKviRKNS_8DatatypeEiiPviS5_iiRNS_6StatusE # -- Begin function _ZNK3MPI4Comm8SendrecvEPKviRKNS_8DatatypeEiiPviS5_iiRNS_6StatusE
	.p2align	4, 0x90
	.type	_ZNK3MPI4Comm8SendrecvEPKviRKNS_8DatatypeEiiPviS5_iiRNS_6StatusE,@function
_ZNK3MPI4Comm8SendrecvEPKviRKNS_8DatatypeEiiPviS5_iiRNS_6StatusE: # @_ZNK3MPI4Comm8SendrecvEPKviRKNS_8DatatypeEiiPviS5_iiRNS_6StatusE
.Lfunc_begin102:
	.loc	17 207 0                # /usr/lib/x86_64-linux-gnu/openmpi/include/openmpi/ompi/mpi/cxx/comm_inln.h:207:0
	.cfi_startproc
# %bb.0:                                # %L.entry
	#DEBUG_VALUE: Sendrecv: <- $rdi
	#DEBUG_VALUE: Sendrecv:sendbuf <- $rsi
	#DEBUG_VALUE: Sendrecv:sendcount <- $edx
	#DEBUG_VALUE: Sendrecv:sendtype <- $rcx
	#DEBUG_VALUE: Sendrecv:dest <- $r8d
	#DEBUG_VALUE: Sendrecv:sendtag <- $r9d
	pushq	%rbp
	.cfi_def_cfa_offset 16
	.cfi_offset %rbp, -16
	movq	%rsp, %rbp
	.cfi_def_cfa_register %rbp
	pushq	%r15
	pushq	%r14
	pushq	%r12
	pushq	%rbx
	.cfi_offset %rbx, -48
	.cfi_offset %r12, -40
	.cfi_offset %r14, -32
	.cfi_offset %r15, -24
.Ltmp615:
	#DEBUG_VALUE:  <- $rdi
	#DEBUG_VALUE: sendbuf <- $rsi
	#DEBUG_VALUE: sendcount <- $edx
	#DEBUG_VALUE: sendtype <- $rcx
	#DEBUG_VALUE: dest <- $r8d
	#DEBUG_VALUE: sendtag <- $r9d
	movl	%r9d, %r10d
	movq	%rdi, %rax
	movq	16(%rbp), %r9
.Ltmp616:
	movl	24(%rbp), %r11d
	movl	40(%rbp), %r14d
	movl	48(%rbp), %r15d
	movq	56(%rbp), %rbx
	movq	32(%rbp), %r12
.Ltmp617:
	#DEBUG_VALUE: status <- [DW_OP_plus_uconst 56] [$rbp+0]
	#DEBUG_VALUE: Sendrecv:status <- [DW_OP_plus_uconst 56] [$rbp+0]
	#DEBUG_VALUE: recvtag <- [DW_OP_plus_uconst 48] [$rbp+0]
	#DEBUG_VALUE: Sendrecv:recvtag <- [DW_OP_plus_uconst 48] [$rbp+0]
	#DEBUG_VALUE: source <- [DW_OP_plus_uconst 40] [$rbp+0]
	#DEBUG_VALUE: Sendrecv:source <- [DW_OP_plus_uconst 40] [$rbp+0]
	#DEBUG_VALUE: recvtype <- [DW_OP_plus_uconst 32] [$rbp+0]
	#DEBUG_VALUE: Sendrecv:recvtype <- [DW_OP_plus_uconst 32] [$rbp+0]
	#DEBUG_VALUE: recvcount <- [DW_OP_plus_uconst 24] [$rbp+0]
	#DEBUG_VALUE: Sendrecv:recvcount <- [DW_OP_plus_uconst 24] [$rbp+0]
	#DEBUG_VALUE: recvbuf <- [DW_OP_plus_uconst 16] [$rbp+0]
	#DEBUG_VALUE: Sendrecv:recvbuf <- [DW_OP_plus_uconst 16] [$rbp+0]
	#DEBUG_VALUE: sendtag <- $r10d
	#DEBUG_VALUE: Sendrecv:sendtag <- $r10d
	#DEBUG_VALUE: dest <- $r8d
	#DEBUG_VALUE: Sendrecv:dest <- $r8d
	#DEBUG_VALUE: sendtype <- $rcx
	#DEBUG_VALUE: Sendrecv:sendtype <- $rcx
	#DEBUG_VALUE: sendcount <- $edx
	#DEBUG_VALUE: Sendrecv:sendcount <- $edx
	#DEBUG_VALUE: sendbuf <- $rsi
	#DEBUG_VALUE: Sendrecv:sendbuf <- $rsi
	#DEBUG_VALUE:  <- $rax
	#DEBUG_VALUE: Sendrecv: <- $rax
	.loc	17 90 1 prologue_end    # /usr/lib/x86_64-linux-gnu/openmpi/include/openmpi/ompi/mpi/cxx/comm_inln.h:90:1
	movq	8(%rcx), %rcx
.Ltmp618:
	addq	$8, %rbx
	movq	%rsi, %rdi
.Ltmp619:
	#DEBUG_VALUE: sendbuf <- $rdi
	#DEBUG_VALUE: Sendrecv:sendbuf <- $rdi
	movl	%edx, %esi
.Ltmp620:
	#DEBUG_VALUE: sendcount <- $esi
	#DEBUG_VALUE: Sendrecv:sendcount <- $esi
	movq	%rcx, %rdx
	movl	%r8d, %ecx
.Ltmp621:
	#DEBUG_VALUE: dest <- $ecx
	#DEBUG_VALUE: Sendrecv:dest <- $ecx
	movl	%r10d, %r8d
.Ltmp622:
	#DEBUG_VALUE: sendtag <- $r8d
	#DEBUG_VALUE: Sendrecv:sendtag <- $r8d
	pushq	%rbx
	pushq	8(%rax)
	pushq	%r15
	pushq	%r14
	pushq	8(%r12)
	pushq	%r11
	callq	MPI_Sendrecv
.Ltmp623:
	addq	$48, %rsp
	.loc	17 213 1                # /usr/lib/x86_64-linux-gnu/openmpi/include/openmpi/ompi/mpi/cxx/comm_inln.h:213:1
	popq	%rbx
	popq	%r12
	popq	%r14
	popq	%r15
	popq	%rbp
	.cfi_def_cfa %rsp, 8
	retq
.Ltmp624:
.Lfunc_end102:
	.size	_ZNK3MPI4Comm8SendrecvEPKviRKNS_8DatatypeEiiPviS5_iiRNS_6StatusE, .Lfunc_end102-_ZNK3MPI4Comm8SendrecvEPKviRKNS_8DatatypeEiiPviS5_iiRNS_6StatusE
	.cfi_endproc
                                        # -- End function
	.weak	_ZNK3MPI4Comm8SendrecvEPKviRKNS_8DatatypeEiiPviS5_ii # -- Begin function _ZNK3MPI4Comm8SendrecvEPKviRKNS_8DatatypeEiiPviS5_ii
	.p2align	4, 0x90
	.type	_ZNK3MPI4Comm8SendrecvEPKviRKNS_8DatatypeEiiPviS5_ii,@function
_ZNK3MPI4Comm8SendrecvEPKviRKNS_8DatatypeEiiPviS5_ii: # @_ZNK3MPI4Comm8SendrecvEPKviRKNS_8DatatypeEiiPviS5_ii
.Lfunc_begin103:
	.loc	17 221 0                # /usr/lib/x86_64-linux-gnu/openmpi/include/openmpi/ompi/mpi/cxx/comm_inln.h:221:0
	.cfi_startproc
# %bb.0:                                # %L.entry
	#DEBUG_VALUE: Sendrecv: <- $rdi
	#DEBUG_VALUE: Sendrecv:sendbuf <- $rsi
	#DEBUG_VALUE: Sendrecv:sendcount <- $edx
	#DEBUG_VALUE: Sendrecv:sendtype <- $rcx
	#DEBUG_VALUE: Sendrecv:dest <- $r8d
	#DEBUG_VALUE: Sendrecv:sendtag <- $r9d
	pushq	%rbp
	.cfi_def_cfa_offset 16
	.cfi_offset %rbp, -16
	movq	%rsp, %rbp
	.cfi_def_cfa_register %rbp
	pushq	%r15
	pushq	%r14
	pushq	%rbx
	pushq	%rax
	.cfi_offset %rbx, -40
	.cfi_offset %r14, -32
	.cfi_offset %r15, -24
.Ltmp625:
	#DEBUG_VALUE:  <- $rdi
	#DEBUG_VALUE: sendbuf <- $rsi
	#DEBUG_VALUE: sendcount <- $edx
	#DEBUG_VALUE: sendtype <- $rcx
	#DEBUG_VALUE: dest <- $r8d
	#DEBUG_VALUE: sendtag <- $r9d
	movl	%r9d, %r10d
	movq	%rdi, %rax
	movq	16(%rbp), %r9
.Ltmp626:
	movl	24(%rbp), %r11d
	movl	40(%rbp), %r14d
	movl	48(%rbp), %ebx
	movq	32(%rbp), %r15
.Ltmp627:
	#DEBUG_VALUE: recvtag <- [DW_OP_plus_uconst 48] [$rbp+0]
	#DEBUG_VALUE: Sendrecv:recvtag <- [DW_OP_plus_uconst 48] [$rbp+0]
	#DEBUG_VALUE: source <- [DW_OP_plus_uconst 40] [$rbp+0]
	#DEBUG_VALUE: Sendrecv:source <- [DW_OP_plus_uconst 40] [$rbp+0]
	#DEBUG_VALUE: recvtype <- [DW_OP_plus_uconst 32] [$rbp+0]
	#DEBUG_VALUE: Sendrecv:recvtype <- [DW_OP_plus_uconst 32] [$rbp+0]
	#DEBUG_VALUE: recvcount <- [DW_OP_plus_uconst 24] [$rbp+0]
	#DEBUG_VALUE: Sendrecv:recvcount <- [DW_OP_plus_uconst 24] [$rbp+0]
	#DEBUG_VALUE: recvbuf <- [DW_OP_plus_uconst 16] [$rbp+0]
	#DEBUG_VALUE: Sendrecv:recvbuf <- [DW_OP_plus_uconst 16] [$rbp+0]
	#DEBUG_VALUE: sendtag <- $r10d
	#DEBUG_VALUE: Sendrecv:sendtag <- $r10d
	#DEBUG_VALUE: dest <- $r8d
	#DEBUG_VALUE: Sendrecv:dest <- $r8d
	#DEBUG_VALUE: sendtype <- $rcx
	#DEBUG_VALUE: Sendrecv:sendtype <- $rcx
	#DEBUG_VALUE: sendcount <- $edx
	#DEBUG_VALUE: Sendrecv:sendcount <- $edx
	#DEBUG_VALUE: sendbuf <- $rsi
	#DEBUG_VALUE: Sendrecv:sendbuf <- $rsi
	#DEBUG_VALUE:  <- $rax
	#DEBUG_VALUE: Sendrecv: <- $rax
	.loc	17 90 1 prologue_end    # /usr/lib/x86_64-linux-gnu/openmpi/include/openmpi/ompi/mpi/cxx/comm_inln.h:90:1
	movq	8(%rcx), %rcx
.Ltmp628:
	movq	%rsi, %rdi
.Ltmp629:
	#DEBUG_VALUE: sendbuf <- $rdi
	#DEBUG_VALUE: Sendrecv:sendbuf <- $rdi
	movl	%edx, %esi
.Ltmp630:
	#DEBUG_VALUE: sendcount <- $esi
	#DEBUG_VALUE: Sendrecv:sendcount <- $esi
	movq	%rcx, %rdx
	movl	%r8d, %ecx
.Ltmp631:
	#DEBUG_VALUE: dest <- $ecx
	#DEBUG_VALUE: Sendrecv:dest <- $ecx
	movl	%r10d, %r8d
.Ltmp632:
	#DEBUG_VALUE: sendtag <- $r8d
	#DEBUG_VALUE: Sendrecv:sendtag <- $r8d
	pushq	$0
	pushq	8(%rax)
	pushq	%rbx
	pushq	%r14
	pushq	8(%r15)
	pushq	%r11
	callq	MPI_Sendrecv
.Ltmp633:
	.loc	17 227 1                # /usr/lib/x86_64-linux-gnu/openmpi/include/openmpi/ompi/mpi/cxx/comm_inln.h:227:1
	addq	$56, %rsp
	popq	%rbx
	popq	%r14
	popq	%r15
	popq	%rbp
	.cfi_def_cfa %rsp, 8
	retq
.Ltmp634:
.Lfunc_end103:
	.size	_ZNK3MPI4Comm8SendrecvEPKviRKNS_8DatatypeEiiPviS5_ii, .Lfunc_end103-_ZNK3MPI4Comm8SendrecvEPKviRKNS_8DatatypeEiiPviS5_ii
	.cfi_endproc
                                        # -- End function
	.weak	_ZNK3MPI4Comm16Sendrecv_replaceEPviRKNS_8DatatypeEiiiiRNS_6StatusE # -- Begin function _ZNK3MPI4Comm16Sendrecv_replaceEPviRKNS_8DatatypeEiiiiRNS_6StatusE
	.p2align	4, 0x90
	.type	_ZNK3MPI4Comm16Sendrecv_replaceEPviRKNS_8DatatypeEiiiiRNS_6StatusE,@function
_ZNK3MPI4Comm16Sendrecv_replaceEPviRKNS_8DatatypeEiiiiRNS_6StatusE: # @_ZNK3MPI4Comm16Sendrecv_replaceEPviRKNS_8DatatypeEiiiiRNS_6StatusE
.Lfunc_begin104:
	.loc	17 234 0                # /usr/lib/x86_64-linux-gnu/openmpi/include/openmpi/ompi/mpi/cxx/comm_inln.h:234:0
	.cfi_startproc
# %bb.0:                                # %L.entry
	#DEBUG_VALUE: Sendrecv_replace: <- $rdi
	#DEBUG_VALUE: Sendrecv_replace:buf <- $rsi
	#DEBUG_VALUE: Sendrecv_replace:count <- $edx
	#DEBUG_VALUE: Sendrecv_replace:datatype <- $rcx
	#DEBUG_VALUE: Sendrecv_replace:dest <- $r8d
	#DEBUG_VALUE: Sendrecv_replace:sendtag <- $r9d
	pushq	%rbp
	.cfi_def_cfa_offset 16
	.cfi_offset %rbp, -16
	movq	%rsp, %rbp
	.cfi_def_cfa_register %rbp
	pushq	%rbx
	pushq	%rax
	.cfi_offset %rbx, -24
.Ltmp635:
	#DEBUG_VALUE:  <- $rdi
	#DEBUG_VALUE: buf <- $rsi
	#DEBUG_VALUE: count <- $edx
	#DEBUG_VALUE: datatype <- $rcx
	#DEBUG_VALUE: dest <- $r8d
	#DEBUG_VALUE: sendtag <- $r9d
	movl	%r9d, %r10d
	movq	%rdi, %rax
	movl	16(%rbp), %r9d
.Ltmp636:
	movl	24(%rbp), %r11d
	movq	32(%rbp), %rbx
.Ltmp637:
	#DEBUG_VALUE: status <- [DW_OP_plus_uconst 32] [$rbp+0]
	#DEBUG_VALUE: Sendrecv_replace:status <- [DW_OP_plus_uconst 32] [$rbp+0]
	#DEBUG_VALUE: recvtag <- [DW_OP_plus_uconst 24] [$rbp+0]
	#DEBUG_VALUE: Sendrecv_replace:recvtag <- [DW_OP_plus_uconst 24] [$rbp+0]
	#DEBUG_VALUE: source <- [DW_OP_plus_uconst 16] [$rbp+0]
	#DEBUG_VALUE: Sendrecv_replace:source <- [DW_OP_plus_uconst 16] [$rbp+0]
	#DEBUG_VALUE: sendtag <- $r10d
	#DEBUG_VALUE: Sendrecv_replace:sendtag <- $r10d
	#DEBUG_VALUE: dest <- $r8d
	#DEBUG_VALUE: Sendrecv_replace:dest <- $r8d
	#DEBUG_VALUE: datatype <- $rcx
	#DEBUG_VALUE: Sendrecv_replace:datatype <- $rcx
	#DEBUG_VALUE: count <- $edx
	#DEBUG_VALUE: Sendrecv_replace:count <- $edx
	#DEBUG_VALUE: buf <- $rsi
	#DEBUG_VALUE: Sendrecv_replace:buf <- $rsi
	#DEBUG_VALUE:  <- $rax
	#DEBUG_VALUE: Sendrecv_replace: <- $rax
	.loc	17 90 1 prologue_end    # /usr/lib/x86_64-linux-gnu/openmpi/include/openmpi/ompi/mpi/cxx/comm_inln.h:90:1
	movq	8(%rcx), %rcx
.Ltmp638:
	addq	$8, %rbx
	subq	$8, %rsp
	movq	%rsi, %rdi
.Ltmp639:
	#DEBUG_VALUE: buf <- $rdi
	#DEBUG_VALUE: Sendrecv_replace:buf <- $rdi
	movl	%edx, %esi
.Ltmp640:
	#DEBUG_VALUE: count <- $esi
	#DEBUG_VALUE: Sendrecv_replace:count <- $esi
	movq	%rcx, %rdx
	movl	%r8d, %ecx
.Ltmp641:
	#DEBUG_VALUE: dest <- $ecx
	#DEBUG_VALUE: Sendrecv_replace:dest <- $ecx
	movl	%r10d, %r8d
.Ltmp642:
	#DEBUG_VALUE: sendtag <- $r8d
	#DEBUG_VALUE: Sendrecv_replace:sendtag <- $r8d
	pushq	%rbx
	pushq	8(%rax)
	pushq	%r11
	callq	MPI_Sendrecv_replace
.Ltmp643:
	.loc	17 238 1                # /usr/lib/x86_64-linux-gnu/openmpi/include/openmpi/ompi/mpi/cxx/comm_inln.h:238:1
	addq	$40, %rsp
	popq	%rbx
	popq	%rbp
	.cfi_def_cfa %rsp, 8
	retq
.Ltmp644:
.Lfunc_end104:
	.size	_ZNK3MPI4Comm16Sendrecv_replaceEPviRKNS_8DatatypeEiiiiRNS_6StatusE, .Lfunc_end104-_ZNK3MPI4Comm16Sendrecv_replaceEPviRKNS_8DatatypeEiiiiRNS_6StatusE
	.cfi_endproc
                                        # -- End function
	.weak	_ZNK3MPI4Comm16Sendrecv_replaceEPviRKNS_8DatatypeEiiii # -- Begin function _ZNK3MPI4Comm16Sendrecv_replaceEPviRKNS_8DatatypeEiiii
	.p2align	4, 0x90
	.type	_ZNK3MPI4Comm16Sendrecv_replaceEPviRKNS_8DatatypeEiiii,@function
_ZNK3MPI4Comm16Sendrecv_replaceEPviRKNS_8DatatypeEiiii: # @_ZNK3MPI4Comm16Sendrecv_replaceEPviRKNS_8DatatypeEiiii
.Lfunc_begin105:
	.loc	17 245 0                # /usr/lib/x86_64-linux-gnu/openmpi/include/openmpi/ompi/mpi/cxx/comm_inln.h:245:0
	.cfi_startproc
# %bb.0:                                # %L.entry
	#DEBUG_VALUE: Sendrecv_replace: <- $rdi
	#DEBUG_VALUE: Sendrecv_replace:buf <- $rsi
	#DEBUG_VALUE: Sendrecv_replace:count <- $edx
	#DEBUG_VALUE: Sendrecv_replace:datatype <- $rcx
	#DEBUG_VALUE: Sendrecv_replace:dest <- $r8d
	#DEBUG_VALUE: Sendrecv_replace:sendtag <- $r9d
	pushq	%rbp
	.cfi_def_cfa_offset 16
	.cfi_offset %rbp, -16
	movq	%rsp, %rbp
	.cfi_def_cfa_register %rbp
.Ltmp645:
	#DEBUG_VALUE:  <- $rdi
	#DEBUG_VALUE: buf <- $rsi
	#DEBUG_VALUE: count <- $edx
	#DEBUG_VALUE: datatype <- $rcx
	#DEBUG_VALUE: dest <- $r8d
	#DEBUG_VALUE: sendtag <- $r9d
	movl	%r9d, %r10d
	movq	%rdi, %rax
	movl	16(%rbp), %r9d
.Ltmp646:
	movl	24(%rbp), %r11d
.Ltmp647:
	#DEBUG_VALUE: recvtag <- [DW_OP_plus_uconst 24] [$rbp+0]
	#DEBUG_VALUE: Sendrecv_replace:recvtag <- [DW_OP_plus_uconst 24] [$rbp+0]
	#DEBUG_VALUE: source <- [DW_OP_plus_uconst 16] [$rbp+0]
	#DEBUG_VALUE: Sendrecv_replace:source <- [DW_OP_plus_uconst 16] [$rbp+0]
	#DEBUG_VALUE: sendtag <- $r10d
	#DEBUG_VALUE: Sendrecv_replace:sendtag <- $r10d
	#DEBUG_VALUE: dest <- $r8d
	#DEBUG_VALUE: Sendrecv_replace:dest <- $r8d
	#DEBUG_VALUE: datatype <- $rcx
	#DEBUG_VALUE: Sendrecv_replace:datatype <- $rcx
	#DEBUG_VALUE: count <- $edx
	#DEBUG_VALUE: Sendrecv_replace:count <- $edx
	#DEBUG_VALUE: buf <- $rsi
	#DEBUG_VALUE: Sendrecv_replace:buf <- $rsi
	#DEBUG_VALUE:  <- $rax
	#DEBUG_VALUE: Sendrecv_replace: <- $rax
	.loc	17 90 1 prologue_end    # /usr/lib/x86_64-linux-gnu/openmpi/include/openmpi/ompi/mpi/cxx/comm_inln.h:90:1
	movq	8(%rcx), %rcx
.Ltmp648:
	subq	$8, %rsp
	movq	%rsi, %rdi
.Ltmp649:
	#DEBUG_VALUE: buf <- $rdi
	#DEBUG_VALUE: Sendrecv_replace:buf <- $rdi
	movl	%edx, %esi
.Ltmp650:
	#DEBUG_VALUE: count <- $esi
	#DEBUG_VALUE: Sendrecv_replace:count <- $esi
	movq	%rcx, %rdx
	movl	%r8d, %ecx
.Ltmp651:
	#DEBUG_VALUE: dest <- $ecx
	#DEBUG_VALUE: Sendrecv_replace:dest <- $ecx
	movl	%r10d, %r8d
.Ltmp652:
	#DEBUG_VALUE: sendtag <- $r8d
	#DEBUG_VALUE: Sendrecv_replace:sendtag <- $r8d
	pushq	$0
	pushq	8(%rax)
	pushq	%r11
	callq	MPI_Sendrecv_replace
.Ltmp653:
	addq	$32, %rsp
	.loc	17 249 1                # /usr/lib/x86_64-linux-gnu/openmpi/include/openmpi/ompi/mpi/cxx/comm_inln.h:249:1
	popq	%rbp
	.cfi_def_cfa %rsp, 8
	retq
.Ltmp654:
.Lfunc_end105:
	.size	_ZNK3MPI4Comm16Sendrecv_replaceEPviRKNS_8DatatypeEiiii, .Lfunc_end105-_ZNK3MPI4Comm16Sendrecv_replaceEPviRKNS_8DatatypeEiiii
	.cfi_endproc
                                        # -- End function
	.weak	_ZNK3MPI4Comm9Get_groupEv # -- Begin function _ZNK3MPI4Comm9Get_groupEv
	.p2align	4, 0x90
	.type	_ZNK3MPI4Comm9Get_groupEv,@function
_ZNK3MPI4Comm9Get_groupEv:              # @_ZNK3MPI4Comm9Get_groupEv
.Lfunc_begin106:
	.loc	17 257 0                # /usr/lib/x86_64-linux-gnu/openmpi/include/openmpi/ompi/mpi/cxx/comm_inln.h:257:0
	.cfi_startproc
# %bb.0:                                # %L.entry
	#DEBUG_VALUE: Get_group: <- $rsi
	pushq	%rbp
	.cfi_def_cfa_offset 16
	.cfi_offset %rbp, -16
	movq	%rsp, %rbp
	.cfi_def_cfa_register %rbp
	pushq	%rbx
	pushq	%rax
	.cfi_offset %rbx, -24
	movq	%rdi, %rbx
.Ltmp655:
	#DEBUG_VALUE:  <- $rsi
	#DEBUG_VALUE: Get_group: <- $rsi
	.loc	17 259 1 prologue_end   # /usr/lib/x86_64-linux-gnu/openmpi/include/openmpi/ompi/mpi/cxx/comm_inln.h:259:1
	movq	8(%rsi), %rdi
.Ltmp656:
	#DEBUG_VALUE: group <- [DW_OP_constu 16, DW_OP_minus, DW_OP_deref] $rbp
	.loc	17 0 1 is_stmt 0        # /usr/lib/x86_64-linux-gnu/openmpi/include/openmpi/ompi/mpi/cxx/comm_inln.h:0:1
	leaq	-16(%rbp), %rsi
.Ltmp657:
	.loc	17 259 1                # /usr/lib/x86_64-linux-gnu/openmpi/include/openmpi/ompi/mpi/cxx/comm_inln.h:259:1
	callq	MPI_Comm_group
	.loc	17 260 1 is_stmt 1      # /usr/lib/x86_64-linux-gnu/openmpi/include/openmpi/ompi/mpi/cxx/comm_inln.h:260:1
	movq	-16(%rbp), %rax
.Ltmp658:
	#DEBUG_VALUE: group <- undef
	movq	$_ZTVN3MPI5GroupE+16, (%rbx)
	.loc	17 62 1                 # /usr/lib/x86_64-linux-gnu/openmpi/include/openmpi/ompi/mpi/cxx/comm_inln.h:62:1
	movq	%rax, 8(%rbx)
	.loc	17 261 1                # /usr/lib/x86_64-linux-gnu/openmpi/include/openmpi/ompi/mpi/cxx/comm_inln.h:261:1
	movq	%rbx, %rax
	addq	$8, %rsp
	popq	%rbx
	popq	%rbp
	.cfi_def_cfa %rsp, 8
	retq
.Ltmp659:
.Lfunc_end106:
	.size	_ZNK3MPI4Comm9Get_groupEv, .Lfunc_end106-_ZNK3MPI4Comm9Get_groupEv
	.cfi_endproc
                                        # -- End function
	.weak	_ZNK3MPI4Comm8Get_sizeEv # -- Begin function _ZNK3MPI4Comm8Get_sizeEv
	.p2align	4, 0x90
	.type	_ZNK3MPI4Comm8Get_sizeEv,@function
_ZNK3MPI4Comm8Get_sizeEv:               # @_ZNK3MPI4Comm8Get_sizeEv
.Lfunc_begin107:
	.loc	17 265 0                # /usr/lib/x86_64-linux-gnu/openmpi/include/openmpi/ompi/mpi/cxx/comm_inln.h:265:0
	.cfi_startproc
# %bb.0:                                # %L.entry
	#DEBUG_VALUE: Get_size: <- $rdi
	#DEBUG_VALUE: Get_size: <- $rdi
	pushq	%rbp
	.cfi_def_cfa_offset 16
	.cfi_offset %rbp, -16
	movq	%rsp, %rbp
	.cfi_def_cfa_register %rbp
	subq	$16, %rsp
.Ltmp660:
	#DEBUG_VALUE:  <- $rdi
	.loc	17 267 1 prologue_end   # /usr/lib/x86_64-linux-gnu/openmpi/include/openmpi/ompi/mpi/cxx/comm_inln.h:267:1
	movq	8(%rdi), %rdi
.Ltmp661:
	#DEBUG_VALUE: size <- [DW_OP_constu 4, DW_OP_minus, DW_OP_deref] $rbp
	.loc	17 0 1 is_stmt 0        # /usr/lib/x86_64-linux-gnu/openmpi/include/openmpi/ompi/mpi/cxx/comm_inln.h:0:1
	leaq	-4(%rbp), %rsi
	.loc	17 267 1                # /usr/lib/x86_64-linux-gnu/openmpi/include/openmpi/ompi/mpi/cxx/comm_inln.h:267:1
	callq	MPI_Comm_size
	.loc	17 268 1 is_stmt 1      # /usr/lib/x86_64-linux-gnu/openmpi/include/openmpi/ompi/mpi/cxx/comm_inln.h:268:1
	movl	-4(%rbp), %eax
.Ltmp662:
	#DEBUG_VALUE: size <- $eax
	addq	$16, %rsp
	popq	%rbp
	.cfi_def_cfa %rsp, 8
	retq
.Ltmp663:
.Lfunc_end107:
	.size	_ZNK3MPI4Comm8Get_sizeEv, .Lfunc_end107-_ZNK3MPI4Comm8Get_sizeEv
	.cfi_endproc
                                        # -- End function
	.weak	_ZNK3MPI4Comm8Get_rankEv # -- Begin function _ZNK3MPI4Comm8Get_rankEv
	.p2align	4, 0x90
	.type	_ZNK3MPI4Comm8Get_rankEv,@function
_ZNK3MPI4Comm8Get_rankEv:               # @_ZNK3MPI4Comm8Get_rankEv
.Lfunc_begin108:
	.loc	17 273 0                # /usr/lib/x86_64-linux-gnu/openmpi/include/openmpi/ompi/mpi/cxx/comm_inln.h:273:0
	.cfi_startproc
# %bb.0:                                # %L.entry
	#DEBUG_VALUE: Get_rank: <- $rdi
	#DEBUG_VALUE: Get_rank: <- $rdi
	pushq	%rbp
	.cfi_def_cfa_offset 16
	.cfi_offset %rbp, -16
	movq	%rsp, %rbp
	.cfi_def_cfa_register %rbp
	subq	$16, %rsp
.Ltmp664:
	#DEBUG_VALUE:  <- $rdi
	.loc	17 275 1 prologue_end   # /usr/lib/x86_64-linux-gnu/openmpi/include/openmpi/ompi/mpi/cxx/comm_inln.h:275:1
	movq	8(%rdi), %rdi
.Ltmp665:
	#DEBUG_VALUE: myrank <- [DW_OP_constu 4, DW_OP_minus, DW_OP_deref] $rbp
	.loc	17 0 1 is_stmt 0        # /usr/lib/x86_64-linux-gnu/openmpi/include/openmpi/ompi/mpi/cxx/comm_inln.h:0:1
	leaq	-4(%rbp), %rsi
	.loc	17 275 1                # /usr/lib/x86_64-linux-gnu/openmpi/include/openmpi/ompi/mpi/cxx/comm_inln.h:275:1
	callq	MPI_Comm_rank
	.loc	17 276 1 is_stmt 1      # /usr/lib/x86_64-linux-gnu/openmpi/include/openmpi/ompi/mpi/cxx/comm_inln.h:276:1
	movl	-4(%rbp), %eax
.Ltmp666:
	#DEBUG_VALUE: myrank <- $eax
	addq	$16, %rsp
	popq	%rbp
	.cfi_def_cfa %rsp, 8
	retq
.Ltmp667:
.Lfunc_end108:
	.size	_ZNK3MPI4Comm8Get_rankEv, .Lfunc_end108-_ZNK3MPI4Comm8Get_rankEv
	.cfi_endproc
                                        # -- End function
	.weak	_ZN3MPI4Comm4FreeEv     # -- Begin function _ZN3MPI4Comm4FreeEv
	.p2align	4, 0x90
	.type	_ZN3MPI4Comm4FreeEv,@function
_ZN3MPI4Comm4FreeEv:                    # @_ZN3MPI4Comm4FreeEv
.Lfunc_begin109:
	.loc	17 290 0                # /usr/lib/x86_64-linux-gnu/openmpi/include/openmpi/ompi/mpi/cxx/comm_inln.h:290:0
	.cfi_startproc
# %bb.0:                                # %L.entry
	#DEBUG_VALUE: Free: <- $rdi
	#DEBUG_VALUE: Free: <- $rdi
	pushq	%rbp
	.cfi_def_cfa_offset 16
	.cfi_offset %rbp, -16
	movq	%rsp, %rbp
	.cfi_def_cfa_register %rbp
.Ltmp668:
	#DEBUG_VALUE:  <- $rdi
	#DEBUG_VALUE:  <- $rdi
	.loc	17 291 1 prologue_end   # /usr/lib/x86_64-linux-gnu/openmpi/include/openmpi/ompi/mpi/cxx/comm_inln.h:291:1
	addq	$8, %rdi
.Ltmp669:
	popq	%rbp
	.cfi_def_cfa %rsp, 8
	jmp	MPI_Comm_free           # TAILCALL
.Ltmp670:
.Lfunc_end109:
	.size	_ZN3MPI4Comm4FreeEv, .Lfunc_end109-_ZN3MPI4Comm4FreeEv
	.cfi_endproc
                                        # -- End function
	.weak	_ZNK3MPI4Comm8Is_interEv # -- Begin function _ZNK3MPI4Comm8Is_interEv
	.p2align	4, 0x90
	.type	_ZNK3MPI4Comm8Is_interEv,@function
_ZNK3MPI4Comm8Is_interEv:               # @_ZNK3MPI4Comm8Is_interEv
.Lfunc_begin110:
	.loc	17 296 0                # /usr/lib/x86_64-linux-gnu/openmpi/include/openmpi/ompi/mpi/cxx/comm_inln.h:296:0
	.cfi_startproc
# %bb.0:                                # %L.entry
	#DEBUG_VALUE: Is_inter: <- $rdi
	#DEBUG_VALUE: Is_inter: <- $rdi
	pushq	%rbp
	.cfi_def_cfa_offset 16
	.cfi_offset %rbp, -16
	movq	%rsp, %rbp
	.cfi_def_cfa_register %rbp
	subq	$16, %rsp
.Ltmp671:
	#DEBUG_VALUE:  <- $rdi
	.loc	17 298 1 prologue_end   # /usr/lib/x86_64-linux-gnu/openmpi/include/openmpi/ompi/mpi/cxx/comm_inln.h:298:1
	movq	8(%rdi), %rdi
.Ltmp672:
	#DEBUG_VALUE: t <- [DW_OP_constu 4, DW_OP_minus, DW_OP_deref] $rbp
	.loc	17 0 1 is_stmt 0        # /usr/lib/x86_64-linux-gnu/openmpi/include/openmpi/ompi/mpi/cxx/comm_inln.h:0:1
	leaq	-4(%rbp), %rsi
	.loc	17 298 1                # /usr/lib/x86_64-linux-gnu/openmpi/include/openmpi/ompi/mpi/cxx/comm_inln.h:298:1
	callq	MPI_Comm_test_inter
.Ltmp673:
	#DEBUG_VALUE: t <- undef
	.loc	17 299 1 is_stmt 1      # /usr/lib/x86_64-linux-gnu/openmpi/include/openmpi/ompi/mpi/cxx/comm_inln.h:299:1
	cmpl	$0, -4(%rbp)
	setne	%al
	addq	$16, %rsp
	popq	%rbp
	.cfi_def_cfa %rsp, 8
	retq
.Ltmp674:
.Lfunc_end110:
	.size	_ZNK3MPI4Comm8Is_interEv, .Lfunc_end110-_ZNK3MPI4Comm8Is_interEv
	.cfi_endproc
                                        # -- End function
	.weak	_ZNK3MPI4Comm7BarrierEv # -- Begin function _ZNK3MPI4Comm7BarrierEv
	.p2align	4, 0x90
	.type	_ZNK3MPI4Comm7BarrierEv,@function
_ZNK3MPI4Comm7BarrierEv:                # @_ZNK3MPI4Comm7BarrierEv
.Lfunc_begin111:
	.loc	17 309 0                # /usr/lib/x86_64-linux-gnu/openmpi/include/openmpi/ompi/mpi/cxx/comm_inln.h:309:0
	.cfi_startproc
# %bb.0:                                # %L.entry
	#DEBUG_VALUE: Barrier: <- $rdi
	#DEBUG_VALUE: Barrier: <- $rdi
	pushq	%rbp
	.cfi_def_cfa_offset 16
	.cfi_offset %rbp, -16
	movq	%rsp, %rbp
	.cfi_def_cfa_register %rbp
.Ltmp675:
	#DEBUG_VALUE:  <- $rdi
	#DEBUG_VALUE:  <- $rdi
	.loc	17 310 1 prologue_end   # /usr/lib/x86_64-linux-gnu/openmpi/include/openmpi/ompi/mpi/cxx/comm_inln.h:310:1
	movq	8(%rdi), %rdi
.Ltmp676:
	popq	%rbp
	.cfi_def_cfa %rsp, 8
	jmp	MPI_Barrier             # TAILCALL
.Ltmp677:
.Lfunc_end111:
	.size	_ZNK3MPI4Comm7BarrierEv, .Lfunc_end111-_ZNK3MPI4Comm7BarrierEv
	.cfi_endproc
                                        # -- End function
	.weak	_ZNK3MPI4Comm5BcastEPviRKNS_8DatatypeEi # -- Begin function _ZNK3MPI4Comm5BcastEPviRKNS_8DatatypeEi
	.p2align	4, 0x90
	.type	_ZNK3MPI4Comm5BcastEPviRKNS_8DatatypeEi,@function
_ZNK3MPI4Comm5BcastEPviRKNS_8DatatypeEi: # @_ZNK3MPI4Comm5BcastEPviRKNS_8DatatypeEi
.Lfunc_begin112:
	.loc	17 316 0                # /usr/lib/x86_64-linux-gnu/openmpi/include/openmpi/ompi/mpi/cxx/comm_inln.h:316:0
	.cfi_startproc
# %bb.0:                                # %L.entry
	#DEBUG_VALUE: Bcast: <- $rdi
	#DEBUG_VALUE: Bcast:buffer <- $rsi
	#DEBUG_VALUE: Bcast:count <- $edx
	#DEBUG_VALUE: Bcast:datatype <- $rcx
	#DEBUG_VALUE: Bcast:root <- $r8d
	pushq	%rbp
	.cfi_def_cfa_offset 16
	.cfi_offset %rbp, -16
	movq	%rsp, %rbp
	.cfi_def_cfa_register %rbp
.Ltmp678:
	#DEBUG_VALUE:  <- $rdi
	#DEBUG_VALUE: buffer <- $rsi
	#DEBUG_VALUE: count <- $edx
	#DEBUG_VALUE: datatype <- $rcx
	#DEBUG_VALUE: root <- $r8d
	movl	%r8d, %r9d
.Ltmp679:
	#DEBUG_VALUE: root <- $r9d
	#DEBUG_VALUE: Bcast:root <- $r9d
	#DEBUG_VALUE: datatype <- $rcx
	#DEBUG_VALUE: Bcast:datatype <- $rcx
	#DEBUG_VALUE: count <- $edx
	#DEBUG_VALUE: Bcast:count <- $edx
	#DEBUG_VALUE: buffer <- $rsi
	#DEBUG_VALUE: Bcast:buffer <- $rsi
	#DEBUG_VALUE:  <- $rdi
	#DEBUG_VALUE: Bcast: <- $rdi
	.loc	17 90 1 prologue_end    # /usr/lib/x86_64-linux-gnu/openmpi/include/openmpi/ompi/mpi/cxx/comm_inln.h:90:1
	movq	8(%rcx), %rax
	movq	8(%rdi), %r8
	movq	%rsi, %rdi
.Ltmp680:
	#DEBUG_VALUE: buffer <- $rdi
	#DEBUG_VALUE: Bcast:buffer <- $rdi
	movl	%edx, %esi
.Ltmp681:
	#DEBUG_VALUE: count <- $esi
	#DEBUG_VALUE: Bcast:count <- $esi
	movq	%rax, %rdx
	movl	%r9d, %ecx
.Ltmp682:
	#DEBUG_VALUE: root <- $ecx
	#DEBUG_VALUE: Bcast:root <- $ecx
	popq	%rbp
	.cfi_def_cfa %rsp, 8
	jmp	MPI_Bcast               # TAILCALL
.Ltmp683:
.Lfunc_end112:
	.size	_ZNK3MPI4Comm5BcastEPviRKNS_8DatatypeEi, .Lfunc_end112-_ZNK3MPI4Comm5BcastEPviRKNS_8DatatypeEi
	.cfi_endproc
                                        # -- End function
	.weak	_ZNK3MPI4Comm6GatherEPKviRKNS_8DatatypeEPviS5_i # -- Begin function _ZNK3MPI4Comm6GatherEPKviRKNS_8DatatypeEPviS5_i
	.p2align	4, 0x90
	.type	_ZNK3MPI4Comm6GatherEPKviRKNS_8DatatypeEPviS5_i,@function
_ZNK3MPI4Comm6GatherEPKviRKNS_8DatatypeEPviS5_i: # @_ZNK3MPI4Comm6GatherEPKviRKNS_8DatatypeEPviS5_i
.Lfunc_begin113:
	.loc	17 325 0                # /usr/lib/x86_64-linux-gnu/openmpi/include/openmpi/ompi/mpi/cxx/comm_inln.h:325:0
	.cfi_startproc
# %bb.0:                                # %L.entry
	#DEBUG_VALUE: Gather: <- $rdi
	#DEBUG_VALUE: Gather:sendbuf <- $rsi
	#DEBUG_VALUE: Gather:sendcount <- $edx
	#DEBUG_VALUE: Gather:sendtype <- $rcx
	#DEBUG_VALUE: Gather:recvbuf <- $r8
	#DEBUG_VALUE: Gather:recvcount <- $r9d
	pushq	%rbp
	.cfi_def_cfa_offset 16
	.cfi_offset %rbp, -16
	movq	%rsp, %rbp
	.cfi_def_cfa_register %rbp
.Ltmp684:
	#DEBUG_VALUE:  <- $rdi
	#DEBUG_VALUE: sendbuf <- $rsi
	#DEBUG_VALUE: sendcount <- $edx
	#DEBUG_VALUE: sendtype <- $rcx
	#DEBUG_VALUE: recvbuf <- $r8
	#DEBUG_VALUE: recvcount <- $r9d
	movl	%r9d, %r10d
	movq	%rdi, %rax
	movl	24(%rbp), %r11d
	movq	16(%rbp), %rdi
.Ltmp685:
	#DEBUG_VALUE: root <- [DW_OP_plus_uconst 24] [$rbp+0]
	#DEBUG_VALUE: Gather:root <- [DW_OP_plus_uconst 24] [$rbp+0]
	#DEBUG_VALUE: recvtype <- [DW_OP_plus_uconst 16] [$rbp+0]
	#DEBUG_VALUE: Gather:recvtype <- [DW_OP_plus_uconst 16] [$rbp+0]
	#DEBUG_VALUE: recvcount <- $r10d
	#DEBUG_VALUE: Gather:recvcount <- $r10d
	#DEBUG_VALUE: recvbuf <- $r8
	#DEBUG_VALUE: Gather:recvbuf <- $r8
	#DEBUG_VALUE: sendtype <- $rcx
	#DEBUG_VALUE: Gather:sendtype <- $rcx
	#DEBUG_VALUE: sendcount <- $edx
	#DEBUG_VALUE: Gather:sendcount <- $edx
	#DEBUG_VALUE: sendbuf <- $rsi
	#DEBUG_VALUE: Gather:sendbuf <- $rsi
	#DEBUG_VALUE:  <- $rax
	#DEBUG_VALUE: Gather: <- $rax
	.loc	17 90 1 prologue_end    # /usr/lib/x86_64-linux-gnu/openmpi/include/openmpi/ompi/mpi/cxx/comm_inln.h:90:1
	movq	8(%rcx), %rcx
.Ltmp686:
	movq	8(%rdi), %r9
	movq	%rsi, %rdi
.Ltmp687:
	#DEBUG_VALUE: sendbuf <- $rdi
	#DEBUG_VALUE: Gather:sendbuf <- $rdi
	movl	%edx, %esi
.Ltmp688:
	#DEBUG_VALUE: sendcount <- $esi
	#DEBUG_VALUE: Gather:sendcount <- $esi
	movq	%rcx, %rdx
	movq	%r8, %rcx
.Ltmp689:
	#DEBUG_VALUE: recvbuf <- $rcx
	#DEBUG_VALUE: Gather:recvbuf <- $rcx
	movl	%r10d, %r8d
.Ltmp690:
	#DEBUG_VALUE: recvcount <- $r8d
	#DEBUG_VALUE: Gather:recvcount <- $r8d
	pushq	8(%rax)
	pushq	%r11
	callq	MPI_Gather
.Ltmp691:
	addq	$16, %rsp
	.loc	17 328 1                # /usr/lib/x86_64-linux-gnu/openmpi/include/openmpi/ompi/mpi/cxx/comm_inln.h:328:1
	popq	%rbp
	.cfi_def_cfa %rsp, 8
	retq
.Ltmp692:
.Lfunc_end113:
	.size	_ZNK3MPI4Comm6GatherEPKviRKNS_8DatatypeEPviS5_i, .Lfunc_end113-_ZNK3MPI4Comm6GatherEPKviRKNS_8DatatypeEPviS5_i
	.cfi_endproc
                                        # -- End function
	.weak	_ZNK3MPI4Comm7GathervEPKviRKNS_8DatatypeEPvPKiS8_S5_i # -- Begin function _ZNK3MPI4Comm7GathervEPKviRKNS_8DatatypeEPvPKiS8_S5_i
	.p2align	4, 0x90
	.type	_ZNK3MPI4Comm7GathervEPKviRKNS_8DatatypeEPvPKiS8_S5_i,@function
_ZNK3MPI4Comm7GathervEPKviRKNS_8DatatypeEPvPKiS8_S5_i: # @_ZNK3MPI4Comm7GathervEPKviRKNS_8DatatypeEPvPKiS8_S5_i
.Lfunc_begin114:
	.loc	17 335 0                # /usr/lib/x86_64-linux-gnu/openmpi/include/openmpi/ompi/mpi/cxx/comm_inln.h:335:0
	.cfi_startproc
# %bb.0:                                # %L.entry
	#DEBUG_VALUE: Gatherv: <- $rdi
	#DEBUG_VALUE: Gatherv:sendbuf <- $rsi
	#DEBUG_VALUE: Gatherv:sendcount <- $edx
	#DEBUG_VALUE: Gatherv:sendtype <- $rcx
	#DEBUG_VALUE: Gatherv:recvbuf <- $r8
	#DEBUG_VALUE: Gatherv:recvcounts <- $r9
	pushq	%rbp
	.cfi_def_cfa_offset 16
	.cfi_offset %rbp, -16
	movq	%rsp, %rbp
	.cfi_def_cfa_register %rbp
	pushq	%rbx
	pushq	%rax
	.cfi_offset %rbx, -24
.Ltmp693:
	#DEBUG_VALUE:  <- $rdi
	#DEBUG_VALUE: sendbuf <- $rsi
	#DEBUG_VALUE: sendcount <- $edx
	#DEBUG_VALUE: sendtype <- $rcx
	#DEBUG_VALUE: recvbuf <- $r8
	#DEBUG_VALUE: recvcounts <- $r9
	movq	%r9, %r10
	movq	%rdi, %rax
	movq	16(%rbp), %r9
.Ltmp694:
	movl	32(%rbp), %r11d
	movq	24(%rbp), %rbx
.Ltmp695:
	#DEBUG_VALUE: root <- [DW_OP_plus_uconst 32] [$rbp+0]
	#DEBUG_VALUE: Gatherv:root <- [DW_OP_plus_uconst 32] [$rbp+0]
	#DEBUG_VALUE: recvtype <- [DW_OP_plus_uconst 24] [$rbp+0]
	#DEBUG_VALUE: Gatherv:recvtype <- [DW_OP_plus_uconst 24] [$rbp+0]
	#DEBUG_VALUE: displs <- [DW_OP_plus_uconst 16] [$rbp+0]
	#DEBUG_VALUE: Gatherv:displs <- [DW_OP_plus_uconst 16] [$rbp+0]
	#DEBUG_VALUE: recvcounts <- $r10
	#DEBUG_VALUE: Gatherv:recvcounts <- $r10
	#DEBUG_VALUE: recvbuf <- $r8
	#DEBUG_VALUE: Gatherv:recvbuf <- $r8
	#DEBUG_VALUE: sendtype <- $rcx
	#DEBUG_VALUE: Gatherv:sendtype <- $rcx
	#DEBUG_VALUE: sendcount <- $edx
	#DEBUG_VALUE: Gatherv:sendcount <- $edx
	#DEBUG_VALUE: sendbuf <- $rsi
	#DEBUG_VALUE: Gatherv:sendbuf <- $rsi
	#DEBUG_VALUE:  <- $rax
	#DEBUG_VALUE: Gatherv: <- $rax
	.loc	17 90 1 prologue_end    # /usr/lib/x86_64-linux-gnu/openmpi/include/openmpi/ompi/mpi/cxx/comm_inln.h:90:1
	movq	8(%rcx), %rcx
.Ltmp696:
	subq	$8, %rsp
	movq	%rsi, %rdi
.Ltmp697:
	#DEBUG_VALUE: sendbuf <- $rdi
	#DEBUG_VALUE: Gatherv:sendbuf <- $rdi
	movl	%edx, %esi
.Ltmp698:
	#DEBUG_VALUE: sendcount <- $esi
	#DEBUG_VALUE: Gatherv:sendcount <- $esi
	movq	%rcx, %rdx
	movq	%r8, %rcx
.Ltmp699:
	#DEBUG_VALUE: recvbuf <- $rcx
	#DEBUG_VALUE: Gatherv:recvbuf <- $rcx
	movq	%r10, %r8
.Ltmp700:
	#DEBUG_VALUE: recvcounts <- $r8
	#DEBUG_VALUE: Gatherv:recvcounts <- $r8
	pushq	8(%rax)
	pushq	%r11
	pushq	8(%rbx)
	callq	MPI_Gatherv
.Ltmp701:
	.loc	17 340 1                # /usr/lib/x86_64-linux-gnu/openmpi/include/openmpi/ompi/mpi/cxx/comm_inln.h:340:1
	addq	$40, %rsp
	popq	%rbx
	popq	%rbp
	.cfi_def_cfa %rsp, 8
	retq
.Ltmp702:
.Lfunc_end114:
	.size	_ZNK3MPI4Comm7GathervEPKviRKNS_8DatatypeEPvPKiS8_S5_i, .Lfunc_end114-_ZNK3MPI4Comm7GathervEPKviRKNS_8DatatypeEPvPKiS8_S5_i
	.cfi_endproc
                                        # -- End function
	.weak	_ZNK3MPI4Comm7ScatterEPKviRKNS_8DatatypeEPviS5_i # -- Begin function _ZNK3MPI4Comm7ScatterEPKviRKNS_8DatatypeEPviS5_i
	.p2align	4, 0x90
	.type	_ZNK3MPI4Comm7ScatterEPKviRKNS_8DatatypeEPviS5_i,@function
_ZNK3MPI4Comm7ScatterEPKviRKNS_8DatatypeEPviS5_i: # @_ZNK3MPI4Comm7ScatterEPKviRKNS_8DatatypeEPviS5_i
.Lfunc_begin115:
	.loc	17 347 0                # /usr/lib/x86_64-linux-gnu/openmpi/include/openmpi/ompi/mpi/cxx/comm_inln.h:347:0
	.cfi_startproc
# %bb.0:                                # %L.entry
	#DEBUG_VALUE: Scatter: <- $rdi
	#DEBUG_VALUE: Scatter:sendbuf <- $rsi
	#DEBUG_VALUE: Scatter:sendcount <- $edx
	#DEBUG_VALUE: Scatter:sendtype <- $rcx
	#DEBUG_VALUE: Scatter:recvbuf <- $r8
	#DEBUG_VALUE: Scatter:recvcount <- $r9d
	pushq	%rbp
	.cfi_def_cfa_offset 16
	.cfi_offset %rbp, -16
	movq	%rsp, %rbp
	.cfi_def_cfa_register %rbp
.Ltmp703:
	#DEBUG_VALUE:  <- $rdi
	#DEBUG_VALUE: sendbuf <- $rsi
	#DEBUG_VALUE: sendcount <- $edx
	#DEBUG_VALUE: sendtype <- $rcx
	#DEBUG_VALUE: recvbuf <- $r8
	#DEBUG_VALUE: recvcount <- $r9d
	movl	%r9d, %r10d
	movq	%rdi, %rax
	movl	24(%rbp), %r11d
	movq	16(%rbp), %rdi
.Ltmp704:
	#DEBUG_VALUE: root <- [DW_OP_plus_uconst 24] [$rbp+0]
	#DEBUG_VALUE: Scatter:root <- [DW_OP_plus_uconst 24] [$rbp+0]
	#DEBUG_VALUE: recvtype <- [DW_OP_plus_uconst 16] [$rbp+0]
	#DEBUG_VALUE: Scatter:recvtype <- [DW_OP_plus_uconst 16] [$rbp+0]
	#DEBUG_VALUE: recvcount <- $r10d
	#DEBUG_VALUE: Scatter:recvcount <- $r10d
	#DEBUG_VALUE: recvbuf <- $r8
	#DEBUG_VALUE: Scatter:recvbuf <- $r8
	#DEBUG_VALUE: sendtype <- $rcx
	#DEBUG_VALUE: Scatter:sendtype <- $rcx
	#DEBUG_VALUE: sendcount <- $edx
	#DEBUG_VALUE: Scatter:sendcount <- $edx
	#DEBUG_VALUE: sendbuf <- $rsi
	#DEBUG_VALUE: Scatter:sendbuf <- $rsi
	#DEBUG_VALUE:  <- $rax
	#DEBUG_VALUE: Scatter: <- $rax
	.loc	17 90 1 prologue_end    # /usr/lib/x86_64-linux-gnu/openmpi/include/openmpi/ompi/mpi/cxx/comm_inln.h:90:1
	movq	8(%rcx), %rcx
.Ltmp705:
	movq	8(%rdi), %r9
	movq	%rsi, %rdi
.Ltmp706:
	#DEBUG_VALUE: sendbuf <- $rdi
	#DEBUG_VALUE: Scatter:sendbuf <- $rdi
	movl	%edx, %esi
.Ltmp707:
	#DEBUG_VALUE: sendcount <- $esi
	#DEBUG_VALUE: Scatter:sendcount <- $esi
	movq	%rcx, %rdx
	movq	%r8, %rcx
.Ltmp708:
	#DEBUG_VALUE: recvbuf <- $rcx
	#DEBUG_VALUE: Scatter:recvbuf <- $rcx
	movl	%r10d, %r8d
.Ltmp709:
	#DEBUG_VALUE: recvcount <- $r8d
	#DEBUG_VALUE: Scatter:recvcount <- $r8d
	pushq	8(%rax)
	pushq	%r11
	callq	MPI_Scatter
.Ltmp710:
	addq	$16, %rsp
	.loc	17 350 1                # /usr/lib/x86_64-linux-gnu/openmpi/include/openmpi/ompi/mpi/cxx/comm_inln.h:350:1
	popq	%rbp
	.cfi_def_cfa %rsp, 8
	retq
.Ltmp711:
.Lfunc_end115:
	.size	_ZNK3MPI4Comm7ScatterEPKviRKNS_8DatatypeEPviS5_i, .Lfunc_end115-_ZNK3MPI4Comm7ScatterEPKviRKNS_8DatatypeEPviS5_i
	.cfi_endproc
                                        # -- End function
	.weak	_ZNK3MPI4Comm8ScattervEPKvPKiS4_RKNS_8DatatypeEPviS7_i # -- Begin function _ZNK3MPI4Comm8ScattervEPKvPKiS4_RKNS_8DatatypeEPviS7_i
	.p2align	4, 0x90
	.type	_ZNK3MPI4Comm8ScattervEPKvPKiS4_RKNS_8DatatypeEPviS7_i,@function
_ZNK3MPI4Comm8ScattervEPKvPKiS4_RKNS_8DatatypeEPviS7_i: # @_ZNK3MPI4Comm8ScattervEPKvPKiS4_RKNS_8DatatypeEPviS7_i
.Lfunc_begin116:
	.loc	17 357 0                # /usr/lib/x86_64-linux-gnu/openmpi/include/openmpi/ompi/mpi/cxx/comm_inln.h:357:0
	.cfi_startproc
# %bb.0:                                # %L.entry
	#DEBUG_VALUE: Scatterv: <- $rdi
	#DEBUG_VALUE: Scatterv:sendbuf <- $rsi
	#DEBUG_VALUE: Scatterv:sendcounts <- $rdx
	#DEBUG_VALUE: Scatterv:displs <- $rcx
	#DEBUG_VALUE: Scatterv:sendtype <- $r8
	#DEBUG_VALUE: Scatterv:recvbuf <- $r9
	pushq	%rbp
	.cfi_def_cfa_offset 16
	.cfi_offset %rbp, -16
	movq	%rsp, %rbp
	.cfi_def_cfa_register %rbp
	pushq	%r14
	pushq	%rbx
	.cfi_offset %rbx, -32
	.cfi_offset %r14, -24
.Ltmp712:
	#DEBUG_VALUE:  <- $rdi
	#DEBUG_VALUE: sendbuf <- $rsi
	#DEBUG_VALUE: sendcounts <- $rdx
	#DEBUG_VALUE: displs <- $rcx
	#DEBUG_VALUE: sendtype <- $r8
	#DEBUG_VALUE: recvbuf <- $r9
	movq	%r9, %r10
	movq	%rdi, %r11
	movl	16(%rbp), %r9d
.Ltmp713:
	movl	32(%rbp), %ebx
	movq	24(%rbp), %r14
.Ltmp714:
	#DEBUG_VALUE: root <- [DW_OP_plus_uconst 32] [$rbp+0]
	#DEBUG_VALUE: Scatterv:root <- [DW_OP_plus_uconst 32] [$rbp+0]
	#DEBUG_VALUE: recvtype <- [DW_OP_plus_uconst 24] [$rbp+0]
	#DEBUG_VALUE: Scatterv:recvtype <- [DW_OP_plus_uconst 24] [$rbp+0]
	#DEBUG_VALUE: recvcount <- [DW_OP_plus_uconst 16] [$rbp+0]
	#DEBUG_VALUE: Scatterv:recvcount <- [DW_OP_plus_uconst 16] [$rbp+0]
	#DEBUG_VALUE: recvbuf <- $r10
	#DEBUG_VALUE: Scatterv:recvbuf <- $r10
	#DEBUG_VALUE: sendtype <- $r8
	#DEBUG_VALUE: Scatterv:sendtype <- $r8
	#DEBUG_VALUE: displs <- $rcx
	#DEBUG_VALUE: Scatterv:displs <- $rcx
	#DEBUG_VALUE: sendcounts <- $rdx
	#DEBUG_VALUE: Scatterv:sendcounts <- $rdx
	#DEBUG_VALUE: sendbuf <- $rsi
	#DEBUG_VALUE: Scatterv:sendbuf <- $rsi
	#DEBUG_VALUE:  <- $r11
	#DEBUG_VALUE: Scatterv: <- $r11
	.loc	17 90 1 prologue_end    # /usr/lib/x86_64-linux-gnu/openmpi/include/openmpi/ompi/mpi/cxx/comm_inln.h:90:1
	movq	8(%r8), %rax
	subq	$8, %rsp
	movq	%rsi, %rdi
.Ltmp715:
	#DEBUG_VALUE: sendbuf <- $rdi
	#DEBUG_VALUE: Scatterv:sendbuf <- $rdi
	movq	%rdx, %rsi
.Ltmp716:
	#DEBUG_VALUE: sendcounts <- $rsi
	#DEBUG_VALUE: Scatterv:sendcounts <- $rsi
	movq	%rcx, %rdx
.Ltmp717:
	#DEBUG_VALUE: displs <- $rdx
	#DEBUG_VALUE: Scatterv:displs <- $rdx
	movq	%rax, %rcx
	movq	%r10, %r8
.Ltmp718:
	#DEBUG_VALUE: recvbuf <- $r8
	#DEBUG_VALUE: Scatterv:recvbuf <- $r8
	pushq	8(%r11)
	pushq	%rbx
	pushq	8(%r14)
	callq	MPI_Scatterv
.Ltmp719:
	addq	$32, %rsp
	.loc	17 363 1                # /usr/lib/x86_64-linux-gnu/openmpi/include/openmpi/ompi/mpi/cxx/comm_inln.h:363:1
	popq	%rbx
	popq	%r14
	popq	%rbp
	.cfi_def_cfa %rsp, 8
	retq
.Ltmp720:
.Lfunc_end116:
	.size	_ZNK3MPI4Comm8ScattervEPKvPKiS4_RKNS_8DatatypeEPviS7_i, .Lfunc_end116-_ZNK3MPI4Comm8ScattervEPKvPKiS4_RKNS_8DatatypeEPviS7_i
	.cfi_endproc
                                        # -- End function
	.weak	_ZNK3MPI4Comm9AllgatherEPKviRKNS_8DatatypeEPviS5_ # -- Begin function _ZNK3MPI4Comm9AllgatherEPKviRKNS_8DatatypeEPviS5_
	.p2align	4, 0x90
	.type	_ZNK3MPI4Comm9AllgatherEPKviRKNS_8DatatypeEPviS5_,@function
_ZNK3MPI4Comm9AllgatherEPKviRKNS_8DatatypeEPviS5_: # @_ZNK3MPI4Comm9AllgatherEPKviRKNS_8DatatypeEPviS5_
.Lfunc_begin117:
	.loc	17 369 0                # /usr/lib/x86_64-linux-gnu/openmpi/include/openmpi/ompi/mpi/cxx/comm_inln.h:369:0
	.cfi_startproc
# %bb.0:                                # %L.entry
	#DEBUG_VALUE: Allgather: <- $rdi
	#DEBUG_VALUE: Allgather:sendbuf <- $rsi
	#DEBUG_VALUE: Allgather:sendcount <- $edx
	#DEBUG_VALUE: Allgather:sendtype <- $rcx
	#DEBUG_VALUE: Allgather:recvbuf <- $r8
	#DEBUG_VALUE: Allgather:recvcount <- $r9d
	pushq	%rbp
	.cfi_def_cfa_offset 16
	.cfi_offset %rbp, -16
	movq	%rsp, %rbp
	.cfi_def_cfa_register %rbp
	subq	$16, %rsp
.Ltmp721:
	#DEBUG_VALUE:  <- $rdi
	#DEBUG_VALUE: sendbuf <- $rsi
	#DEBUG_VALUE: sendcount <- $edx
	#DEBUG_VALUE: sendtype <- $rcx
	#DEBUG_VALUE: recvbuf <- $r8
	#DEBUG_VALUE: recvcount <- $r9d
	movl	%r9d, %r10d
	movq	16(%rbp), %r9
.Ltmp722:
	#DEBUG_VALUE: recvtype <- [DW_OP_plus_uconst 16] [$rbp+0]
	#DEBUG_VALUE: Allgather:recvtype <- [DW_OP_plus_uconst 16] [$rbp+0]
	#DEBUG_VALUE: recvcount <- $r10d
	#DEBUG_VALUE: Allgather:recvcount <- $r10d
	#DEBUG_VALUE: recvbuf <- $r8
	#DEBUG_VALUE: Allgather:recvbuf <- $r8
	#DEBUG_VALUE: sendtype <- $rcx
	#DEBUG_VALUE: Allgather:sendtype <- $rcx
	#DEBUG_VALUE: sendcount <- $edx
	#DEBUG_VALUE: Allgather:sendcount <- $edx
	#DEBUG_VALUE: sendbuf <- $rsi
	#DEBUG_VALUE: Allgather:sendbuf <- $rsi
	#DEBUG_VALUE:  <- $rdi
	#DEBUG_VALUE: Allgather: <- $rdi
	.loc	17 90 1 prologue_end    # /usr/lib/x86_64-linux-gnu/openmpi/include/openmpi/ompi/mpi/cxx/comm_inln.h:90:1
	movq	8(%rcx), %rax
	movq	8(%r9), %r9
	movq	8(%rdi), %rcx
.Ltmp723:
	movq	%rcx, (%rsp)
	movq	%rsi, %rdi
.Ltmp724:
	#DEBUG_VALUE: sendbuf <- $rdi
	#DEBUG_VALUE: Allgather:sendbuf <- $rdi
	movl	%edx, %esi
.Ltmp725:
	#DEBUG_VALUE: sendcount <- $esi
	#DEBUG_VALUE: Allgather:sendcount <- $esi
	movq	%rax, %rdx
	movq	%r8, %rcx
.Ltmp726:
	#DEBUG_VALUE: recvbuf <- $rcx
	#DEBUG_VALUE: Allgather:recvbuf <- $rcx
	movl	%r10d, %r8d
.Ltmp727:
	#DEBUG_VALUE: recvcount <- $r8d
	#DEBUG_VALUE: Allgather:recvcount <- $r8d
	callq	MPI_Allgather
.Ltmp728:
	.loc	17 373 1                # /usr/lib/x86_64-linux-gnu/openmpi/include/openmpi/ompi/mpi/cxx/comm_inln.h:373:1
	addq	$16, %rsp
	popq	%rbp
	.cfi_def_cfa %rsp, 8
	retq
.Ltmp729:
.Lfunc_end117:
	.size	_ZNK3MPI4Comm9AllgatherEPKviRKNS_8DatatypeEPviS5_, .Lfunc_end117-_ZNK3MPI4Comm9AllgatherEPKviRKNS_8DatatypeEPviS5_
	.cfi_endproc
                                        # -- End function
	.weak	_ZNK3MPI4Comm10AllgathervEPKviRKNS_8DatatypeEPvPKiS8_S5_ # -- Begin function _ZNK3MPI4Comm10AllgathervEPKviRKNS_8DatatypeEPvPKiS8_S5_
	.p2align	4, 0x90
	.type	_ZNK3MPI4Comm10AllgathervEPKviRKNS_8DatatypeEPvPKiS8_S5_,@function
_ZNK3MPI4Comm10AllgathervEPKviRKNS_8DatatypeEPvPKiS8_S5_: # @_ZNK3MPI4Comm10AllgathervEPKviRKNS_8DatatypeEPvPKiS8_S5_
.Lfunc_begin118:
	.loc	17 380 0                # /usr/lib/x86_64-linux-gnu/openmpi/include/openmpi/ompi/mpi/cxx/comm_inln.h:380:0
	.cfi_startproc
# %bb.0:                                # %L.entry
	#DEBUG_VALUE: Allgatherv: <- $rdi
	#DEBUG_VALUE: Allgatherv:sendbuf <- $rsi
	#DEBUG_VALUE: Allgatherv:sendcount <- $edx
	#DEBUG_VALUE: Allgatherv:sendtype <- $rcx
	#DEBUG_VALUE: Allgatherv:recvbuf <- $r8
	#DEBUG_VALUE: Allgatherv:recvcounts <- $r9
	pushq	%rbp
	.cfi_def_cfa_offset 16
	.cfi_offset %rbp, -16
	movq	%rsp, %rbp
