; ModuleID = 'projects/Fluctuations/Fluctuations.cpp'
target datalayout = "e-p:64:64-i64:64-f80:128-n8:16:32:64-S128"
target triple = "x86_64-pc-linux-gnu"
define internal void @pgCplus_compiled.() noinline {
L.entry:
	ret void
}


define linkonce_odr i8* @_ZnwmPv(i64 %_T36925520_53106.arg, i8* %__p.arg) #0 inlinehint !dbg !4314 {
L.entry:
	%_T36925520_53106.addr = alloca i64, align 8
	%__p.addr = alloca i8*, align 8

	call void @llvm.dbg.declare (metadata i64* %_T36925520_53106.addr, metadata !4318, metadata !4319), !dbg !4315
	store i64 %_T36925520_53106.arg, i64* %_T36925520_53106.addr, align 8, !tbaa !4326
	call void @llvm.dbg.declare (metadata i64* %_T36925520_53106.addr, metadata !4320, metadata !4319), !dbg !4315
	call void @llvm.dbg.declare (metadata i8** %__p.addr, metadata !4321, metadata !4319), !dbg !4315
	store i8* %__p.arg, i8** %__p.addr, align 8, !tbaa !4327
	call void @llvm.dbg.declare (metadata i8** %__p.addr, metadata !4322, metadata !4319), !dbg !4315
	%0 = load i8*, i8** %__p.addr, align 8, !tbaa !4327, !dbg !4323
	ret i8*  %0, !dbg !4323
}
define linkonce_odr void @_ZdlPvS_(i8* %_T36925520_53107.arg, i8* %_T36925816_53107.arg) #0 inlinehint !dbg !4331 {
L.entry:
	%_T36925520_53107.addr = alloca i8*, align 8
	%_T36925816_53107.addr = alloca i8*, align 8

	call void @llvm.dbg.declare (metadata i8** %_T36925520_53107.addr, metadata !4335, metadata !4319), !dbg !4332
	store i8* %_T36925520_53107.arg, i8** %_T36925520_53107.addr, align 8, !tbaa !4327
	call void @llvm.dbg.declare (metadata i8** %_T36925520_53107.addr, metadata !4336, metadata !4319), !dbg !4332
	call void @llvm.dbg.declare (metadata i8** %_T36925816_53107.addr, metadata !4337, metadata !4319), !dbg !4332
	store i8* %_T36925816_53107.arg, i8** %_T36925816_53107.addr, align 8, !tbaa !4327
	call void @llvm.dbg.declare (metadata i8** %_T36925816_53107.addr, metadata !4338, metadata !4319), !dbg !4332
	ret void, !dbg !4339
}

%struct.T3DFunction = type <{ i32 (...)* (...)*}> 

define linkonce_odr void @_ZN11T3DFunctionD1Ev(%struct.T3DFunction* %_T36925520_53493.arg) #0 inlinehint !dbg !4345 {
L.entry:
	%_T36925520_53493.addr = alloca %struct.T3DFunction*, align 8

	call void @llvm.dbg.declare (metadata %struct.T3DFunction** %_T36925520_53493.addr, metadata !4349, metadata !4319), !dbg !4346
	store %struct.T3DFunction* %_T36925520_53493.arg, %struct.T3DFunction** %_T36925520_53493.addr, align 8, !tbaa !4327
	call void @llvm.dbg.declare (metadata %struct.T3DFunction** %_T36925520_53493.addr, metadata !4350, metadata !4319), !dbg !4346
	%0 = bitcast [5 x i32 (...)* (...)*]* @_ZTV11T3DFunction to i8*, !dbg !4351
	%1 = getelementptr i8, i8*  %0, i64 16, !dbg !4351
	%2 = load %struct.T3DFunction*, %struct.T3DFunction** %_T36925520_53493.addr, align 8, !tbaa !4327, !dbg !4351
	%3 = bitcast %struct.T3DFunction*  %2 to i8**, !dbg !4351
	store i8*  %1, i8**  %3, align 8, !tbaa !4327, !dbg !4351
	ret void, !dbg !4351
}
define linkonce_odr void @_ZN11T3DFunctionD0Ev(%struct.T3DFunction* %_T36925520_53494.arg) #0 inlinehint !dbg !4356 {
L.entry:
	%_T36925520_53494.addr = alloca %struct.T3DFunction*, align 8

	store %struct.T3DFunction* %_T36925520_53494.arg, %struct.T3DFunction** %_T36925520_53494.addr, align 8, !tbaa !4327
	%0 = bitcast [5 x i32 (...)* (...)*]* @_ZTV11T3DFunction to i8*, !dbg !4364
	%1 = getelementptr i8, i8*  %0, i64 16, !dbg !4364
	%2 = load %struct.T3DFunction*, %struct.T3DFunction** %_T36925520_53494.addr, align 8, !tbaa !4327, !dbg !4364
	%3 = bitcast %struct.T3DFunction*  %2 to i8**, !dbg !4364
	store i8*  %1, i8**  %3, align 8, !tbaa !4327, !dbg !4364
	%4 = bitcast %struct.T3DFunction*  %2 to i8*, !dbg !4364
	call void  @_ZdlPvm (i8*  %4, i64 8) nounwind, !dbg !4364
	ret void, !dbg !4364
}
define linkonce_odr void @_ZN11T3DFunctionD2Ev(%struct.T3DFunction* %_T36925520_53495.arg) #0 inlinehint !dbg !4366 {
L.entry:
	%_T36925520_53495.addr = alloca %struct.T3DFunction*, align 8

	store %struct.T3DFunction* %_T36925520_53495.arg, %struct.T3DFunction** %_T36925520_53495.addr, align 8, !tbaa !4327
	%0 = bitcast [5 x i32 (...)* (...)*]* @_ZTV11T3DFunction to i8*, !dbg !4374
	%1 = getelementptr i8, i8*  %0, i64 16, !dbg !4374
	%2 = load %struct.T3DFunction*, %struct.T3DFunction** %_T36925520_53495.addr, align 8, !tbaa !4327, !dbg !4374
	%3 = bitcast %struct.T3DFunction*  %2 to i8**, !dbg !4374
	store i8*  %1, i8**  %3, align 8, !tbaa !4327, !dbg !4374
	ret void, !dbg !4374
}
define linkonce_odr void @_ZN11T3DFunctionC1Ev(%struct.T3DFunction* %_T36925520_53496.arg) #0 inlinehint !dbg !4376 {
L.entry:
	%_T36925520_53496.addr = alloca %struct.T3DFunction*, align 8

	call void @llvm.dbg.declare (metadata %struct.T3DFunction** %_T36925520_53496.addr, metadata !4380, metadata !4319), !dbg !4377
	store %struct.T3DFunction* %_T36925520_53496.arg, %struct.T3DFunction** %_T36925520_53496.addr, align 8, !tbaa !4327
	call void @llvm.dbg.declare (metadata %struct.T3DFunction** %_T36925520_53496.addr, metadata !4381, metadata !4319), !dbg !4377
	%0 = bitcast [5 x i32 (...)* (...)*]* @_ZTV11T3DFunction to i8*, !dbg !4382
	%1 = getelementptr i8, i8*  %0, i64 16, !dbg !4382
	%2 = load %struct.T3DFunction*, %struct.T3DFunction** %_T36925520_53496.addr, align 8, !tbaa !4327, !dbg !4382
	%3 = bitcast %struct.T3DFunction*  %2 to i8**, !dbg !4382
	store i8*  %1, i8**  %3, align 8, !tbaa !4327, !dbg !4382
	ret void, !dbg !4382
}
define linkonce_odr void @_ZN11T3DFunctionC2Ev(%struct.T3DFunction* %_T36925520_53497.arg) #0 inlinehint !dbg !4384 {
L.entry:
	%_T36925520_53497.addr = alloca %struct.T3DFunction*, align 8

	store %struct.T3DFunction* %_T36925520_53497.arg, %struct.T3DFunction** %_T36925520_53497.addr, align 8, !tbaa !4327
	%0 = bitcast [5 x i32 (...)* (...)*]* @_ZTV11T3DFunction to i8*, !dbg !4392
	%1 = getelementptr i8, i8*  %0, i64 16, !dbg !4392
	%2 = load %struct.T3DFunction*, %struct.T3DFunction** %_T36925520_53497.addr, align 8, !tbaa !4327, !dbg !4392
	%3 = bitcast %struct.T3DFunction*  %2 to i8**, !dbg !4392
	store i8*  %1, i8**  %3, align 8, !tbaa !4327, !dbg !4392
	ret void, !dbg !4392
}

%struct.FieldFunction = type <{ %struct.T3DFunction, i32, i32, i32, [4 x i8]}> 
%astruct.dt64 = type <{ i8*, i32}> 

define linkonce_odr void @_ZN13FieldFunctionC1Ev(%struct.FieldFunction* %_T36925520_53498.arg) #0 inlinehint personality i8* bitcast (i32 (...)* @__gxx_personality_v0 to i8*) !dbg !4399 {
L.entry:
	%_T36925520_53498.addr = alloca %struct.FieldFunction*, align 8

	call void @llvm.dbg.declare (metadata %struct.FieldFunction** %_T36925520_53498.addr, metadata !4455, metadata !4319), !dbg !4400
	store %struct.FieldFunction* %_T36925520_53498.arg, %struct.FieldFunction** %_T36925520_53498.addr, align 8, !tbaa !4327
	call void @llvm.dbg.declare (metadata %struct.FieldFunction** %_T36925520_53498.addr, metadata !4456, metadata !4319), !dbg !4400
	%0 = bitcast [5 x i32 (...)* (...)*]* @_ZTV11T3DFunction to i8*, !dbg !4457
	%1 = getelementptr i8, i8*  %0, i64 16, !dbg !4457
	%2 = load %struct.FieldFunction*, %struct.FieldFunction** %_T36925520_53498.addr, align 8, !tbaa !4327, !dbg !4457
	%3 = bitcast %struct.FieldFunction*  %2 to i8**, !dbg !4457
	store i8*  %1, i8**  %3, align 8, !tbaa !4327, !dbg !4457
	%4 = bitcast [5 x i32 (...)* (...)*]* @_ZTV13FieldFunction to i8*, !dbg !4457
	%5 = getelementptr i8, i8*  %4, i64 16, !dbg !4457
	store i8*  %5, i8**  %3, align 8, !tbaa !4327, !dbg !4457
	%6 = bitcast %struct.FieldFunction*  %2 to i8*, !dbg !4460
	%7 = getelementptr i8, i8*  %6, i64 8, !dbg !4460
	%8 = bitcast i8*  %7 to i32*, !dbg !4460
	store i32 0, i32*  %8, align 4, !tbaa !4326, !dbg !4460
	%9 = getelementptr i8, i8*  %6, i64 12, !dbg !4461
	%10 = bitcast i8*  %9 to i32*, !dbg !4461
	store i32 0, i32*  %10, align 4, !tbaa !4326, !dbg !4461
	%11 = getelementptr i8, i8*  %6, i64 16, !dbg !4462
	%12 = bitcast i8*  %11 to i32*, !dbg !4462
	store i32 0, i32*  %12, align 4, !tbaa !4326, !dbg !4462
	br label %L.R0007, !dbg !4462
L_T36926408_53498:
	%13 = landingpad %astruct.dt64
	cleanup
	br label %L.R0007
L.R0007:
	ret void, !dbg !4463
}
define linkonce_odr void @_ZN13FieldFunctionC2Ev(%struct.FieldFunction* %_T36925520_53499.arg) #0 inlinehint !dbg !4465 {
L.entry:
	%_T36925520_53499.addr = alloca %struct.FieldFunction*, align 8

	store %struct.FieldFunction* %_T36925520_53499.arg, %struct.FieldFunction** %_T36925520_53499.addr, align 8, !tbaa !4327
	%0 = load %struct.FieldFunction*, %struct.FieldFunction** %_T36925520_53499.addr, align 8, !tbaa !4327, !dbg !4469
	call void  @_ZN13FieldFunctionC1Ev (%struct.FieldFunction*  %0), !dbg !4469
	ret void, !dbg !4469
}
define linkonce_odr void @_ZN13FieldFunction12setComponentE10coordinate(%struct.FieldFunction* %_T36925520_53500.arg, i32 zeroext %fComponent.arg) #0 inlinehint !dbg !4473 {
L.entry:
	%_T36925520_53500.addr = alloca %struct.FieldFunction*, align 8
	%fComponent.addr = alloca i32, align 4

	call void @llvm.dbg.declare (metadata %struct.FieldFunction** %_T36925520_53500.addr, metadata !4477, metadata !4319), !dbg !4474
	store %struct.FieldFunction* %_T36925520_53500.arg, %struct.FieldFunction** %_T36925520_53500.addr, align 8, !tbaa !4327
	call void @llvm.dbg.declare (metadata %struct.FieldFunction** %_T36925520_53500.addr, metadata !4478, metadata !4319), !dbg !4474
	call void @llvm.dbg.declare (metadata i32* %fComponent.addr, metadata !4479, metadata !4319), !dbg !4474
	store i32 %fComponent.arg, i32* %fComponent.addr, align 4, !tbaa !4326
	call void @llvm.dbg.declare (metadata i32* %fComponent.addr, metadata !4480, metadata !4319), !dbg !4474
	%0 = load i32, i32* %fComponent.addr, align 4, !tbaa !4326, !dbg !4481
	%1 = load %struct.FieldFunction*, %struct.FieldFunction** %_T36925520_53500.addr, align 8, !tbaa !4327, !dbg !4481
	%2 = bitcast %struct.FieldFunction*  %1 to i8*, !dbg !4481
	%3 = getelementptr i8, i8*  %2, i64 8, !dbg !4481
	%4 = bitcast i8*  %3 to i32*, !dbg !4481
	store i32  %0, i32*  %4, align 4, !tbaa !4326, !dbg !4481
	ret void, !dbg !4481
}
define linkonce_odr void @_ZN13FieldFunction17setDerivComponentE10coordinate(%struct.FieldFunction* %_T36925520_53501.arg, i32 zeroext %dComponent.arg) #0 inlinehint !dbg !4483 {
L.entry:
	%_T36925520_53501.addr = alloca %struct.FieldFunction*, align 8
	%dComponent.addr = alloca i32, align 4

	call void @llvm.dbg.declare (metadata %struct.FieldFunction** %_T36925520_53501.addr, metadata !4487, metadata !4319), !dbg !4484
	store %struct.FieldFunction* %_T36925520_53501.arg, %struct.FieldFunction** %_T36925520_53501.addr, align 8, !tbaa !4327
	call void @llvm.dbg.declare (metadata %struct.FieldFunction** %_T36925520_53501.addr, metadata !4488, metadata !4319), !dbg !4484
	call void @llvm.dbg.declare (metadata i32* %dComponent.addr, metadata !4489, metadata !4319), !dbg !4484
	store i32 %dComponent.arg, i32* %dComponent.addr, align 4, !tbaa !4326
	call void @llvm.dbg.declare (metadata i32* %dComponent.addr, metadata !4490, metadata !4319), !dbg !4484
	%0 = load i32, i32* %dComponent.addr, align 4, !tbaa !4326, !dbg !4491
	%1 = load %struct.FieldFunction*, %struct.FieldFunction** %_T36925520_53501.addr, align 8, !tbaa !4327, !dbg !4491
	%2 = bitcast %struct.FieldFunction*  %1 to i8*, !dbg !4491
	%3 = getelementptr i8, i8*  %2, i64 12, !dbg !4491
	%4 = bitcast i8*  %3 to i32*, !dbg !4491
	store i32  %0, i32*  %4, align 4, !tbaa !4326, !dbg !4491
	ret void, !dbg !4491
}

%struct._ZNSt8ios_base6_WordsE = type <{ i8*, i64}> 
%struct._ZSo = type <{ i32 (...)* (...)*, %struct._ZSt9basic_iosIcSt11char_traitsIcEE}> 
%struct._ZNSt6locale5_ImplE = type <{ i32, [4 x i8], %struct._ZNSt6locale5facetE**, i64, %struct._ZNSt6locale5facetE**, i8**}> 
%struct._ZSt9basic_iosIcSt11char_traitsIcEE = type <{ %struct._ZSt8ios_base, %struct._ZSo*, i8, i8, [6 x i8], %struct._ZSt15basic_streambufIcSt11char_traitsIcEE*, %struct._ZSt5ctypeIcE*, %struct._ZSt7num_putIcSt19ostreambuf_iteratorIcSt11char_traitsIcEEE*, %struct._ZSt7num_getIcSt19istreambuf_iteratorIcSt11char_traitsIcEEE*}> 
%struct.__SO__NSt6locale5facetE = type <{ i32 (...)* (...)*, i32}> 
%struct._ZSt15basic_streambufIcSt11char_traitsIcEE = type <{ i32 (...)* (...)*, i8*, i8*, i8*, i8*, i8*, i8*, %struct._ZSt6locale}> 
%struct._ZSt8ios_base = type <{ i32 (...)* (...)*, i64, i64, i32, i32, i32, [4 x i8], %struct._ZNSt8ios_base14_Callback_listE*, %struct._ZNSt8ios_base6_WordsE, [8 x %struct._ZNSt8ios_base6_WordsE], i32, [4 x i8], %struct._ZNSt8ios_base6_WordsE*, %struct._ZSt6locale}> 
%struct._ZNSt6locale5facetE = type <{ i32 (...)* (...)*, i32, [4 x i8]}> 
%struct._ZSt6locale = type <{ %struct._ZNSt6locale5_ImplE*}> 
%struct._ZSt7num_putIcSt19ostreambuf_iteratorIcSt11char_traitsIcEEE = type <{ %struct.__SO__NSt6locale5facetE, [4 x i8]}> 
%struct._ZSt5ctypeIcE = type <{ %struct.__SO__NSt6locale5facetE, [4 x i8], %struct.__locale_struct*, i8, [7 x i8], i32*, i32*, i16*, i8, [256 x i8], [256 x i8], i8, [6 x i8]}> 
%struct._ZSt7num_getIcSt19istreambuf_iteratorIcSt11char_traitsIcEEE = type <{ %struct.__SO__NSt6locale5facetE, [4 x i8]}> 
%struct.__locale_struct = type <{ [13 x %struct.__locale_data*], i16*, i32*, i32*, [13 x i8*]}> 
%struct.__locale_data = type opaque
%struct._ZNSt8ios_base14_Callback_listE = type <{ %struct._ZNSt8ios_base14_Callback_listE*, void (i32, %struct._ZSt8ios_base*, i32)*, i32, i32}> 

define linkonce_odr void @_ZN13FieldFunction13setDerivativeEj(%struct.FieldFunction* %_T36925704_53502.arg, i32 zeroext %derivative.arg) #0 inlinehint !dbg !4495 {
L.entry:
	%_T36925704_53502.addr = alloca %struct.FieldFunction*, align 8
	%derivative.addr = alloca i32, align 4
	%..inline.addr = alloca %struct._ZSt9basic_iosIcSt11char_traitsIcEE*, align 8
	%..inline.addr.1 = alloca %struct._ZSt9basic_iosIcSt11char_traitsIcEE*, align 8
	%..inline.addr.2 = alloca i32, align 4
	%..inline.addr.3 = alloca i64, align 8
	%.Q0003.addr = alloca %struct._ZSo*, align 8
	%..inline.addr.4 = alloca i32, align 4
	%.Q0004.addr = alloca %struct._ZSo*, align 8
	%..inline.addr.5 = alloca %struct._ZSo*, align 8
	%.Q0005.addr = alloca %struct._ZSo*, align 8

	call void @llvm.dbg.declare (metadata %struct.FieldFunction** %_T36925704_53502.addr, metadata !4527, metadata !4319), !dbg !4496
	store %struct.FieldFunction* %_T36925704_53502.arg, %struct.FieldFunction** %_T36925704_53502.addr, align 8, !tbaa !4327
	call void @llvm.dbg.declare (metadata %struct.FieldFunction** %_T36925704_53502.addr, metadata !4528, metadata !4319), !dbg !4496
	call void @llvm.dbg.declare (metadata i32* %derivative.addr, metadata !4529, metadata !4319), !dbg !4496
	store i32 %derivative.arg, i32* %derivative.addr, align 4, !tbaa !4326
	call void @llvm.dbg.declare (metadata i32* %derivative.addr, metadata !4530, metadata !4319), !dbg !4496
	%0 = load i32, i32* %derivative.addr, align 4, !tbaa !4544, !dbg !4531
	%1 = load %struct.FieldFunction*, %struct.FieldFunction** %_T36925704_53502.addr, align 8, !tbaa !4327, !dbg !4531
	%2 = bitcast %struct.FieldFunction*  %1 to i8*, !dbg !4531
	%3 = getelementptr i8, i8*  %2, i64 16, !dbg !4531
	%4 = bitcast i8*  %3 to i32*, !dbg !4531
	store i32  %0, i32*  %4, align 4, !tbaa !4326, !dbg !4531
	%5 = icmp ule i32  %0, 1, !dbg !4532
	br i1  %5, label %L.B0000, label %L.B0001, !dbg !4532
L.B0001:
	%6 = bitcast [36 x i8]* @.S55244 to i8*, !dbg !4533
	%7 = icmp ne i8*  %6,  null, !dbg !4533
	br i1  %7, label %L..inline.75801, label %L.B1599, !dbg !4533
L.B1599:
	%8 = bitcast %struct._ZSo* @_ZSt4cerr to i8*, !dbg !4534
	%9 = bitcast %struct._ZSo* @_ZSt4cerr to i8**, !dbg !4534
	%10 = load i8*, i8**  %9, align 8, !tbaa !4327, !dbg !4534
	%11 = getelementptr i8, i8*  %10, i64 18446744073709551592, !dbg !4534
	%12 = bitcast i8*  %11 to i64*, !dbg !4534
	%13 = load i64, i64*  %12, align 8, !tbaa !4326, !dbg !4534
	%14 = getelementptr i8, i8*  %8, i64  %13, !dbg !4534
	%15 = bitcast %struct._ZSt9basic_iosIcSt11char_traitsIcEE** %..inline.addr to i8**, !dbg !4534
	store i8*  %14, i8**  %15, align 8, !tbaa !4327, !dbg !4534
	%16 = load %struct._ZSt9basic_iosIcSt11char_traitsIcEE*, %struct._ZSt9basic_iosIcSt11char_traitsIcEE** %..inline.addr, align 8, !tbaa !4327, !dbg !4534
	%17 = bitcast %struct._ZSt9basic_iosIcSt11char_traitsIcEE*  %16 to i8*, !dbg !4534
	%18 = bitcast %struct._ZSt9basic_iosIcSt11char_traitsIcEE** %..inline.addr.1 to i8**, !dbg !4534
	store i8*  %17, i8**  %18, align 8, !tbaa !4327, !dbg !4534
	%19 = load %struct._ZSt9basic_iosIcSt11char_traitsIcEE*, %struct._ZSt9basic_iosIcSt11char_traitsIcEE** %..inline.addr.1, align 8, !tbaa !4327, !dbg !4534
	%20 = bitcast %struct._ZSt9basic_iosIcSt11char_traitsIcEE*  %19 to i8*, !dbg !4534
	%21 = getelementptr i8, i8*  %20, i64 32, !dbg !4534
	%22 = bitcast i8*  %21 to i32*, !dbg !4534
	%23 = load i32, i32*  %22, align 4, !tbaa !4326, !dbg !4534
	%24 = or i32  %23, 1, !dbg !4534
	call void  @_ZNSt9basic_iosIcSt11char_traitsIcEE5clearESt12_Ios_Iostate (%struct._ZSt9basic_iosIcSt11char_traitsIcEE*  %16, i32  %24), !dbg !4534
	br label %L..inline.75822, !dbg !4534
L..inline.75801:
	%25 = bitcast [36 x i8]* @.S55244 to i8*, !dbg !4537
	%26 = call i64  @strlen (i8*  %25) nounwind, !dbg !4537
	%27 = call %struct._ZSo*  @_ZSt16__ostream_insertIcSt11char_traitsIcEERSt13basic_ostreamIT_T0_ES6_PKS3_l (%struct._ZSo* @_ZSt4cerr, i8*  %25, i64  %26), !dbg !4537
	%28 = bitcast %struct._ZSo*  %27 to i8*, !dbg !4537
	%29 = bitcast %struct._ZSo** %.Q0003.addr to i8**, !dbg !4537
	store i8*  %28, i8**  %29, align 8, !tbaa !4327, !dbg !4537
	br label %L..inline.75822
L..inline.75822:
	%30 = load i32, i32* %derivative.addr, align 4, !tbaa !4544, !dbg !4538
	%31 = zext i32  %30 to i64, !dbg !4539
	%32 = call %struct._ZSo*  @_ZNSo9_M_insertImEERSoT_ (%struct._ZSo* @_ZSt4cerr, i64  %31), !dbg !4539
	%33 = bitcast %struct._ZSo*  %32 to i8*, !dbg !4539
	%34 = bitcast %struct._ZSo** %.Q0004.addr to i8**, !dbg !4539
	store i8*  %33, i8**  %34, align 8, !tbaa !4327, !dbg !4539
	%35 = load %struct._ZSo*, %struct._ZSo** %.Q0004.addr, align 8, !tbaa !4327, !dbg !4539
	%36 = bitcast %struct._ZSo*  %35 to i8*, !dbg !4539
	%37 = bitcast %struct._ZSo** %..inline.addr.5 to i8**, !dbg !4539
	store i8*  %36, i8**  %37, align 8, !tbaa !4327, !dbg !4539
	%38 = load %struct._ZSo*, %struct._ZSo** %..inline.addr.5, align 8, !tbaa !4327, !dbg !4540
	%39 = call %struct._ZSo*  @_ZSt4endlIcSt11char_traitsIcEERSt13basic_ostreamIT_T0_ES6_ (%struct._ZSo*  %38), !dbg !4540
	%40 = bitcast %struct._ZSo*  %39 to i8*, !dbg !4540
	%41 = bitcast %struct._ZSo** %.Q0005.addr to i8**, !dbg !4540
	store i8*  %40, i8**  %41, align 8, !tbaa !4327, !dbg !4540
	call void  @exit (i32 1) nounwind noreturn, !dbg !4541
	br label %L.B0002
L.B0002:
	br label %L.B0000
L.B0000:
	ret void, !dbg !4542
}
define linkonce_odr void @_ZN13FieldFunctionD1Ev(%struct.FieldFunction* %_T36925520_53503.arg) #0 inlinehint !dbg !4546 {
L.entry:
	%_T36925520_53503.addr = alloca %struct.FieldFunction*, align 8

	call void @llvm.dbg.declare (metadata %struct.FieldFunction** %_T36925520_53503.addr, metadata !4558, metadata !4319), !dbg !4547
	store %struct.FieldFunction* %_T36925520_53503.arg, %struct.FieldFunction** %_T36925520_53503.addr, align 8, !tbaa !4327
	call void @llvm.dbg.declare (metadata %struct.FieldFunction** %_T36925520_53503.addr, metadata !4559, metadata !4319), !dbg !4547
	%0 = bitcast [5 x i32 (...)* (...)*]* @_ZTV13FieldFunction to i8*, !dbg !4560
	%1 = getelementptr i8, i8*  %0, i64 16, !dbg !4560
	%2 = load %struct.FieldFunction*, %struct.FieldFunction** %_T36925520_53503.addr, align 8, !tbaa !4327, !dbg !4560
	%3 = bitcast %struct.FieldFunction*  %2 to i8**, !dbg !4560
	store i8*  %1, i8**  %3, align 8, !tbaa !4327, !dbg !4560
	%4 = bitcast [5 x i32 (...)* (...)*]* @_ZTV11T3DFunction to i8*, !dbg !4560
	%5 = getelementptr i8, i8*  %4, i64 16, !dbg !4560
	store i8*  %5, i8**  %3, align 8, !tbaa !4327, !dbg !4560
	ret void, !dbg !4561
}
define linkonce_odr void @_ZN13FieldFunctionD0Ev(%struct.FieldFunction* %_T36925520_53504.arg) #0 inlinehint !dbg !4563 {
L.entry:
	%_T36925520_53504.addr = alloca %struct.FieldFunction*, align 8
	%..inline.addr = alloca %struct.FieldFunction*, align 8

	store %struct.FieldFunction* %_T36925520_53504.arg, %struct.FieldFunction** %_T36925520_53504.addr, align 8, !tbaa !4327
	%0 = load %struct.FieldFunction*, %struct.FieldFunction** %_T36925520_53504.addr, align 8, !tbaa !4327, !dbg !4579
	%1 = bitcast %struct.FieldFunction*  %0 to i8*, !dbg !4579
	%2 = bitcast %struct.FieldFunction** %..inline.addr to i8**, !dbg !4579
	store i8*  %1, i8**  %2, align 8, !tbaa !4327, !dbg !4579
	%3 = bitcast [5 x i32 (...)* (...)*]* @_ZTV13FieldFunction to i8*, !dbg !4579
	%4 = getelementptr i8, i8*  %3, i64 16, !dbg !4579
	%5 = load %struct.FieldFunction*, %struct.FieldFunction** %..inline.addr, align 8, !tbaa !4327, !dbg !4579
	%6 = bitcast %struct.FieldFunction*  %5 to i8**, !dbg !4579
	store i8*  %4, i8**  %6, align 8, !tbaa !4327, !dbg !4579
	%7 = bitcast [5 x i32 (...)* (...)*]* @_ZTV11T3DFunction to i8*, !dbg !4579
	%8 = getelementptr i8, i8*  %7, i64 16, !dbg !4579
	store i8*  %8, i8**  %6, align 8, !tbaa !4327, !dbg !4579
	call void  @_ZdlPvm (i8*  %1, i64 24) nounwind, !dbg !4579
	ret void, !dbg !4579
}
define linkonce_odr void @_ZN13FieldFunctionD2Ev(%struct.FieldFunction* %_T36925520_53505.arg) #0 inlinehint !dbg !4581 {
L.entry:
	%_T36925520_53505.addr = alloca %struct.FieldFunction*, align 8
	%..inline.addr = alloca %struct.FieldFunction*, align 8

	store %struct.FieldFunction* %_T36925520_53505.arg, %struct.FieldFunction** %_T36925520_53505.addr, align 8, !tbaa !4327
	%0 = load %struct.FieldFunction*, %struct.FieldFunction** %_T36925520_53505.addr, align 8, !tbaa !4327, !dbg !4597
	%1 = bitcast %struct.FieldFunction*  %0 to i8*, !dbg !4597
	%2 = bitcast %struct.FieldFunction** %..inline.addr to i8**, !dbg !4597
	store i8*  %1, i8**  %2, align 8, !tbaa !4327, !dbg !4597
	%3 = bitcast [5 x i32 (...)* (...)*]* @_ZTV13FieldFunction to i8*, !dbg !4597
	%4 = getelementptr i8, i8*  %3, i64 16, !dbg !4597
	%5 = load %struct.FieldFunction*, %struct.FieldFunction** %..inline.addr, align 8, !tbaa !4327, !dbg !4597
	%6 = bitcast %struct.FieldFunction*  %5 to i8**, !dbg !4597
	store i8*  %4, i8**  %6, align 8, !tbaa !4327, !dbg !4597
	%7 = bitcast [5 x i32 (...)* (...)*]* @_ZTV11T3DFunction to i8*, !dbg !4597
	%8 = getelementptr i8, i8*  %7, i64 16, !dbg !4597
	store i8*  %8, i8**  %6, align 8, !tbaa !4327, !dbg !4597
	ret void, !dbg !4597
}

%struct.ConstantField = type <{ %struct.__SO__13FieldFunction, i8, [3 x i8], [3 x double]}> 
%struct.__SO__13FieldFunction = type <{ %struct.T3DFunction, i32, i32, i32}> 

define linkonce_odr void @_ZN13ConstantFieldC1Ev(%struct.ConstantField* %_T36925704_53506.arg) #0 inlinehint !dbg !4604 {
L.entry:
	%_T36925704_53506.addr = alloca %struct.ConstantField*, align 8
	%..inline.addr = alloca %struct.FieldFunction*, align 8

	call void @llvm.dbg.declare (metadata %struct.ConstantField** %_T36925704_53506.addr, metadata !4612, metadata !4319), !dbg !4605
	store %struct.ConstantField* %_T36925704_53506.arg, %struct.ConstantField** %_T36925704_53506.addr, align 8, !tbaa !4327
	call void @llvm.dbg.declare (metadata %struct.ConstantField** %_T36925704_53506.addr, metadata !4613, metadata !4319), !dbg !4605
	%0 = load %struct.ConstantField*, %struct.ConstantField** %_T36925704_53506.addr, align 8, !tbaa !4327, !dbg !4614
	%1 = bitcast %struct.ConstantField*  %0 to i8*, !dbg !4614
	%2 = bitcast %struct.FieldFunction** %..inline.addr to i8**, !dbg !4614
	store i8*  %1, i8**  %2, align 8, !tbaa !4327, !dbg !4614
	%3 = load %struct.FieldFunction*, %struct.FieldFunction** %..inline.addr, align 8, !tbaa !4327, !dbg !4614
	call void  @_ZN13FieldFunctionC1Ev (%struct.FieldFunction*  %3), !dbg !4614
	%4 = bitcast [5 x i32 (...)* (...)*]* @_ZTV13ConstantField to i8*, !dbg !4614
	%5 = getelementptr i8, i8*  %4, i64 16, !dbg !4614
	%6 = load %struct.ConstantField*, %struct.ConstantField** %_T36925704_53506.addr, align 8, !tbaa !4327, !dbg !4614
	%7 = bitcast %struct.ConstantField*  %6 to i8**, !dbg !4614
	store i8*  %5, i8**  %7, align 8, !tbaa !4327, !dbg !4614
	%8 = bitcast %struct.ConstantField*  %6 to i8*, !dbg !4617
	%9 = getelementptr i8, i8*  %8, i64 20, !dbg !4617
	store i8 0, i8*  %9, align 1, !tbaa !4326, !dbg !4617
	ret void, !dbg !4618
}
define linkonce_odr void @_ZN13ConstantFieldC2Ev(%struct.ConstantField* %_T36925520_53507.arg) #0 inlinehint !dbg !4620 {
L.entry:
	%_T36925520_53507.addr = alloca %struct.ConstantField*, align 8
	%..inline.addr = alloca %struct.ConstantField*, align 8
	%..inline.addr.1 = alloca %struct.FieldFunction*, align 8

	store %struct.ConstantField* %_T36925520_53507.arg, %struct.ConstantField** %_T36925520_53507.addr, align 8, !tbaa !4327
	%0 = load %struct.ConstantField*, %struct.ConstantField** %_T36925520_53507.addr, align 8, !tbaa !4327, !dbg !4632
	%1 = bitcast %struct.ConstantField*  %0 to i8*, !dbg !4632
	%2 = bitcast %struct.ConstantField** %..inline.addr to i8**, !dbg !4632
	store i8*  %1, i8**  %2, align 8, !tbaa !4327, !dbg !4632
	%3 = load %struct.ConstantField*, %struct.ConstantField** %..inline.addr, align 8, !tbaa !4327, !dbg !4633
	%4 = bitcast %struct.ConstantField*  %3 to i8*, !dbg !4633
	%5 = bitcast %struct.FieldFunction** %..inline.addr.1 to i8**, !dbg !4633
	store i8*  %4, i8**  %5, align 8, !tbaa !4327, !dbg !4633
	%6 = load %struct.FieldFunction*, %struct.FieldFunction** %..inline.addr.1, align 8, !tbaa !4327, !dbg !4633
	call void  @_ZN13FieldFunctionC1Ev (%struct.FieldFunction*  %6), !dbg !4633
	%7 = bitcast [5 x i32 (...)* (...)*]* @_ZTV13ConstantField to i8*, !dbg !4633
	%8 = getelementptr i8, i8*  %7, i64 16, !dbg !4633
	%9 = load %struct.ConstantField*, %struct.ConstantField** %..inline.addr, align 8, !tbaa !4327, !dbg !4633
	%10 = bitcast %struct.ConstantField*  %9 to i8**, !dbg !4633
	store i8*  %8, i8**  %10, align 8, !tbaa !4327, !dbg !4633
	%11 = bitcast %struct.ConstantField*  %9 to i8*, !dbg !4633
	%12 = getelementptr i8, i8*  %11, i64 20, !dbg !4633
	store i8 0, i8*  %12, align 1, !tbaa !4326, !dbg !4633
	ret void, !dbg !4632
}
define linkonce_odr void @_ZN13ConstantFieldD1Ev(%struct.ConstantField* %_T36925520_53508.arg) #0 inlinehint !dbg !4635 {
L.entry:
	%_T36925520_53508.addr = alloca %struct.ConstantField*, align 8
	%..inline.addr = alloca %struct.FieldFunction*, align 8

	call void @llvm.dbg.declare (metadata %struct.ConstantField** %_T36925520_53508.addr, metadata !4655, metadata !4319), !dbg !4636
	store %struct.ConstantField* %_T36925520_53508.arg, %struct.ConstantField** %_T36925520_53508.addr, align 8, !tbaa !4327
	call void @llvm.dbg.declare (metadata %struct.ConstantField** %_T36925520_53508.addr, metadata !4656, metadata !4319), !dbg !4636
	%0 = bitcast [5 x i32 (...)* (...)*]* @_ZTV13ConstantField to i8*, !dbg !4657
	%1 = getelementptr i8, i8*  %0, i64 16, !dbg !4657
	%2 = load %struct.ConstantField*, %struct.ConstantField** %_T36925520_53508.addr, align 8, !tbaa !4327, !dbg !4657
	%3 = bitcast %struct.ConstantField*  %2 to i8**, !dbg !4657
	store i8*  %1, i8**  %3, align 8, !tbaa !4327, !dbg !4657
	%4 = bitcast %struct.ConstantField*  %2 to i8*, !dbg !4657
	%5 = bitcast %struct.FieldFunction** %..inline.addr to i8**, !dbg !4657
	store i8*  %4, i8**  %5, align 8, !tbaa !4327, !dbg !4657
	%6 = bitcast [5 x i32 (...)* (...)*]* @_ZTV13FieldFunction to i8*, !dbg !4657
	%7 = getelementptr i8, i8*  %6, i64 16, !dbg !4657
	%8 = load %struct.FieldFunction*, %struct.FieldFunction** %..inline.addr, align 8, !tbaa !4327, !dbg !4657
	%9 = bitcast %struct.FieldFunction*  %8 to i8**, !dbg !4657
	store i8*  %7, i8**  %9, align 8, !tbaa !4327, !dbg !4657
	%10 = bitcast [5 x i32 (...)* (...)*]* @_ZTV11T3DFunction to i8*, !dbg !4657
	%11 = getelementptr i8, i8*  %10, i64 16, !dbg !4657
	store i8*  %11, i8**  %9, align 8, !tbaa !4327, !dbg !4657
	ret void, !dbg !4657
}
define linkonce_odr void @_ZN13ConstantFieldD0Ev(%struct.ConstantField* %_T36925520_53509.arg) #0 inlinehint !dbg !4659 {
L.entry:
	%_T36925520_53509.addr = alloca %struct.ConstantField*, align 8
	%..inline.addr = alloca %struct.ConstantField*, align 8
	%..inline.addr.1 = alloca %struct.FieldFunction*, align 8

	store %struct.ConstantField* %_T36925520_53509.arg, %struct.ConstantField** %_T36925520_53509.addr, align 8, !tbaa !4327
	%0 = load %struct.ConstantField*, %struct.ConstantField** %_T36925520_53509.addr, align 8, !tbaa !4327, !dbg !4683
	%1 = bitcast %struct.ConstantField*  %0 to i8*, !dbg !4683
	%2 = bitcast %struct.ConstantField** %..inline.addr to i8**, !dbg !4683
	store i8*  %1, i8**  %2, align 8, !tbaa !4327, !dbg !4683
	%3 = bitcast [5 x i32 (...)* (...)*]* @_ZTV13ConstantField to i8*, !dbg !4683
	%4 = getelementptr i8, i8*  %3, i64 16, !dbg !4683
	%5 = load %struct.ConstantField*, %struct.ConstantField** %..inline.addr, align 8, !tbaa !4327, !dbg !4683
	%6 = bitcast %struct.ConstantField*  %5 to i8**, !dbg !4683
	store i8*  %4, i8**  %6, align 8, !tbaa !4327, !dbg !4683
	%7 = bitcast %struct.ConstantField*  %5 to i8*, !dbg !4683
	%8 = bitcast %struct.FieldFunction** %..inline.addr.1 to i8**, !dbg !4683
	store i8*  %7, i8**  %8, align 8, !tbaa !4327, !dbg !4683
	%9 = bitcast [5 x i32 (...)* (...)*]* @_ZTV13FieldFunction to i8*, !dbg !4683
	%10 = getelementptr i8, i8*  %9, i64 16, !dbg !4683
	store i8*  %10, i8**  %6, align 8, !tbaa !4327, !dbg !4683
	%11 = bitcast [5 x i32 (...)* (...)*]* @_ZTV11T3DFunction to i8*, !dbg !4683
	%12 = getelementptr i8, i8*  %11, i64 16, !dbg !4683
	%13 = load %struct.FieldFunction*, %struct.FieldFunction** %..inline.addr.1, align 8, !tbaa !4327, !dbg !4683
	%14 = bitcast %struct.FieldFunction*  %13 to i8**, !dbg !4683
	store i8*  %12, i8**  %14, align 8, !tbaa !4327, !dbg !4683
	call void  @_ZdlPvm (i8*  %1, i64 48) nounwind, !dbg !4683
	ret void, !dbg !4683
}
define linkonce_odr void @_ZN13ConstantFieldD2Ev(%struct.ConstantField* %_T36925520_53510.arg) #0 inlinehint !dbg !4685 {
L.entry:
	%_T36925520_53510.addr = alloca %struct.ConstantField*, align 8
	%..inline.addr = alloca %struct.ConstantField*, align 8
	%..inline.addr.1 = alloca %struct.FieldFunction*, align 8

	store %struct.ConstantField* %_T36925520_53510.arg, %struct.ConstantField** %_T36925520_53510.addr, align 8, !tbaa !4327
	%0 = load %struct.ConstantField*, %struct.ConstantField** %_T36925520_53510.addr, align 8, !tbaa !4327, !dbg !4709
	%1 = bitcast %struct.ConstantField*  %0 to i8*, !dbg !4709
	%2 = bitcast %struct.ConstantField** %..inline.addr to i8**, !dbg !4709
	store i8*  %1, i8**  %2, align 8, !tbaa !4327, !dbg !4709
	%3 = bitcast [5 x i32 (...)* (...)*]* @_ZTV13ConstantField to i8*, !dbg !4709
	%4 = getelementptr i8, i8*  %3, i64 16, !dbg !4709
	%5 = load %struct.ConstantField*, %struct.ConstantField** %..inline.addr, align 8, !tbaa !4327, !dbg !4709
	%6 = bitcast %struct.ConstantField*  %5 to i8**, !dbg !4709
	store i8*  %4, i8**  %6, align 8, !tbaa !4327, !dbg !4709
	%7 = bitcast %struct.ConstantField*  %5 to i8*, !dbg !4709
	%8 = bitcast %struct.FieldFunction** %..inline.addr.1 to i8**, !dbg !4709
	store i8*  %7, i8**  %8, align 8, !tbaa !4327, !dbg !4709
	%9 = bitcast [5 x i32 (...)* (...)*]* @_ZTV13FieldFunction to i8*, !dbg !4709
	%10 = getelementptr i8, i8*  %9, i64 16, !dbg !4709
	store i8*  %10, i8**  %6, align 8, !tbaa !4327, !dbg !4709
	%11 = bitcast [5 x i32 (...)* (...)*]* @_ZTV11T3DFunction to i8*, !dbg !4709
	%12 = getelementptr i8, i8*  %11, i64 16, !dbg !4709
	%13 = load %struct.FieldFunction*, %struct.FieldFunction** %..inline.addr.1, align 8, !tbaa !4327, !dbg !4709
	%14 = bitcast %struct.FieldFunction*  %13 to i8**, !dbg !4709
	store i8*  %12, i8**  %14, align 8, !tbaa !4327, !dbg !4709
	ret void, !dbg !4709
}

%struct._ZSt12_Vector_baseISt5arrayIdLm18EESaIS1_EE = type <{ %struct._ZNSt12_Vector_baseISt5arrayIdLm18EESaIS1_EE12_Vector_implE}> 
%struct._ZSt12_Vector_baseIiSaIiEE = type <{ %struct._ZNSt12_Vector_baseIiSaIiEE12_Vector_implE}> 
%struct._ZSt6vectorIiSaIiEE = type <{ %struct._ZSt12_Vector_baseIiSaIiEE}> 
%struct._Z6FsGridISt5arrayIdLm18EELi2EE = type <{ double, double, double, %struct._ZSt5arrayIdLm3EE, %struct.ompi_communicator_t*, i32, [4 x i8], %struct._ZSt6vectorIP14ompi_request_tSaIS1_EE, i32, %struct._ZSt5arrayIiLm27EE, %struct._ZSt6vectorIcSaIcEE, %struct._ZSt5arrayIiLm3EE, %struct._ZSt5arrayIiLm3EE, %struct._ZSt5arrayIbLm3EE, i8, %struct._ZSt5arrayIiLm3EE, %struct._ZSt5arrayIiLm3EE, %struct._ZSt5arrayIiLm3EE, %struct._ZSt5arrayIiLm3EE, [4 x i8], %struct.FsGridCouplingInformation*, %struct._ZSt5arrayIP15ompi_datatype_tLm27EE, %struct._ZSt5arrayIP15ompi_datatype_tLm27EE, %struct._ZSt6vectorISt5arrayIdLm18EESaIS1_EE}> 
%struct._ZSt12_Vector_baseIcSaIcEE = type <{ %struct._ZNSt12_Vector_baseIcSaIcEE12_Vector_implE}> 
%struct._ZNSt12_Vector_baseIcSaIcEE17_Vector_impl_dataE = type <{ i8*, i8*, i8*}> 
%struct.ompi_datatype_t = type opaque
%struct._ZNSt12_Vector_baseISt5arrayIdLm18EESaIS1_EE12_Vector_implE = type <{ %struct._ZNSt12_Vector_baseISt5arrayIdLm18EESaIS1_EE17_Vector_impl_dataE}> 
%struct._ZSt12_Vector_baseIP14ompi_request_tSaIS1_EE = type <{ %struct._ZNSt12_Vector_baseIP14ompi_request_tSaIS1_EE12_Vector_implE}> 
%struct._ZSt5arrayIiLm3EE = type <{ [3 x i32]}> 
%struct._ZNSt12_Vector_baseIiSaIiEE12_Vector_implE = type <{ %struct._ZNSt12_Vector_baseIiSaIiEE17_Vector_impl_dataE}> 
%struct._ZSt6vectorIP14ompi_request_tSaIS1_EE = type <{ %struct._ZSt12_Vector_baseIP14ompi_request_tSaIS1_EE}> 
%struct._ZNSt12_Vector_baseIcSaIcEE12_Vector_implE = type <{ %struct._ZNSt12_Vector_baseIcSaIcEE17_Vector_impl_dataE}> 
%struct._ZSt6vectorIcSaIcEE = type <{ %struct._ZSt12_Vector_baseIcSaIcEE}> 
%struct.ompi_request_t = type opaque
%struct.FsGridCouplingInformation = type <{ %struct._ZSt6vectorIiSaIiEE}> 
%struct._ZSt6vectorISt5arrayIdLm18EESaIS1_EE = type <{ %struct._ZSt12_Vector_baseISt5arrayIdLm18EESaIS1_EE}> 
%struct._ZSt5arrayIdLm18EE = type <{ [18 x double]}> 
%struct._ZSt5arrayIdLm3EE = type <{ [3 x double]}> 
%struct._ZNSt12_Vector_baseIP14ompi_request_tSaIS1_EE17_Vector_impl_dataE = type <{ %struct.ompi_request_t**, %struct.ompi_request_t**, %struct.ompi_request_t**}> 
%struct._ZSt5arrayIP15ompi_datatype_tLm27EE = type <{ [27 x %struct.ompi_datatype_t*]}> 
%struct.ompi_communicator_t = type opaque
%struct._ZNSt12_Vector_baseIP14ompi_request_tSaIS1_EE12_Vector_implE = type <{ %struct._ZNSt12_Vector_baseIP14ompi_request_tSaIS1_EE17_Vector_impl_dataE}> 
%struct._ZNSt12_Vector_baseIiSaIiEE17_Vector_impl_dataE = type <{ i32*, i32*, i32*}> 
%struct._ZNSt12_Vector_baseISt5arrayIdLm18EESaIS1_EE17_Vector_impl_dataE = type <{ %struct._ZSt5arrayIdLm18EE*, %struct._ZSt5arrayIdLm18EE*, %struct._ZSt5arrayIdLm18EE*}> 
%struct._ZSt5arrayIbLm3EE = type <{ [3 x i8]}> 
%struct._ZSt5arrayIiLm27EE = type <{ [27 x i32]}> 

define linkonce_odr %struct._ZSt5arrayIiLm3EE* @_ZN6FsGridISt5arrayIdLm18EELi2EE12getLocalSizeEv(%struct._Z6FsGridISt5arrayIdLm18EELi2EE* %_T36925520_53512.arg) #0 inlinehint !dbg !4717 {
L.entry:
	%_T36925520_53512.addr = alloca %struct._Z6FsGridISt5arrayIdLm18EELi2EE*, align 8

	call void @llvm.dbg.declare (metadata %struct._Z6FsGridISt5arrayIdLm18EELi2EE** %_T36925520_53512.addr, metadata !4721, metadata !4319), !dbg !4718
	store %struct._Z6FsGridISt5arrayIdLm18EELi2EE* %_T36925520_53512.arg, %struct._Z6FsGridISt5arrayIdLm18EELi2EE** %_T36925520_53512.addr, align 8, !tbaa !4327
	call void @llvm.dbg.declare (metadata %struct._Z6FsGridISt5arrayIdLm18EELi2EE** %_T36925520_53512.addr, metadata !4722, metadata !4319), !dbg !4718
	%0 = load %struct._Z6FsGridISt5arrayIdLm18EELi2EE*, %struct._Z6FsGridISt5arrayIdLm18EELi2EE** %_T36925520_53512.addr, align 8, !tbaa !4327, !dbg !4723
	%1 = bitcast %struct._Z6FsGridISt5arrayIdLm18EELi2EE*  %0 to i8*, !dbg !4723
	%2 = getelementptr i8, i8*  %1, i64 264, !dbg !4723
	%3 = bitcast i8*  %2 to %struct._ZSt5arrayIiLm3EE*, !dbg !4723
	ret %struct._ZSt5arrayIiLm3EE*  %3, !dbg !4723
}

%struct._ZNSt12_Vector_baseISt5arrayIdLm3EESaIS1_EE17_Vector_impl_dataE = type <{ %struct._ZSt5arrayIdLm3EE*, %struct._ZSt5arrayIdLm3EE*, %struct._ZSt5arrayIdLm3EE*}> 
%struct._ZSt6vectorISt5arrayIdLm3EESaIS1_EE = type <{ %struct._ZSt12_Vector_baseISt5arrayIdLm3EESaIS1_EE}> 
%struct._ZSt12_Vector_baseISt5arrayIdLm3EESaIS1_EE = type <{ %struct._ZNSt12_Vector_baseISt5arrayIdLm3EESaIS1_EE12_Vector_implE}> 
%struct._ZNSt12_Vector_baseISt5arrayIdLm3EESaIS1_EE12_Vector_implE = type <{ %struct._ZNSt12_Vector_baseISt5arrayIdLm3EESaIS1_EE17_Vector_impl_dataE}> 
%struct._Z6FsGridISt5arrayIdLm3EELi2EE = type <{ double, double, double, %struct._ZSt5arrayIdLm3EE, %struct.ompi_communicator_t*, i32, [4 x i8], %struct._ZSt6vectorIP14ompi_request_tSaIS1_EE, i32, %struct._ZSt5arrayIiLm27EE, %struct._ZSt6vectorIcSaIcEE, %struct._ZSt5arrayIiLm3EE, %struct._ZSt5arrayIiLm3EE, %struct._ZSt5arrayIbLm3EE, i8, %struct._ZSt5arrayIiLm3EE, %struct._ZSt5arrayIiLm3EE, %struct._ZSt5arrayIiLm3EE, %struct._ZSt5arrayIiLm3EE, [4 x i8], %struct.FsGridCouplingInformation*, %struct._ZSt5arrayIP15ompi_datatype_tLm27EE, %struct._ZSt5arrayIP15ompi_datatype_tLm27EE, %struct._ZSt6vectorISt5arrayIdLm3EESaIS1_EE}> 

define linkonce_odr i64 @_ZN6FsGridISt5arrayIdLm3EELi2EE17GlobalIDForCoordsEiii(%struct._Z6FsGridISt5arrayIdLm3EELi2EE* %_T36925520_53514.arg, i32 signext %x.arg, i32 signext %y.arg, i32 signext %z.arg) #0 inlinehint !dbg !4729 {
L.entry:
	%_T36925520_53514.addr = alloca %struct._Z6FsGridISt5arrayIdLm3EELi2EE*, align 8
	%x.addr = alloca i32, align 4
	%y.addr = alloca i32, align 4
	%z.addr = alloca i32, align 4

	call void @llvm.dbg.declare (metadata %struct._Z6FsGridISt5arrayIdLm3EELi2EE** %_T36925520_53514.addr, metadata !4781, metadata !4319), !dbg !4730
	store %struct._Z6FsGridISt5arrayIdLm3EELi2EE* %_T36925520_53514.arg, %struct._Z6FsGridISt5arrayIdLm3EELi2EE** %_T36925520_53514.addr, align 8, !tbaa !4327
	call void @llvm.dbg.declare (metadata %struct._Z6FsGridISt5arrayIdLm3EELi2EE** %_T36925520_53514.addr, metadata !4782, metadata !4319), !dbg !4730
	call void @llvm.dbg.declare (metadata i32* %x.addr, metadata !4783, metadata !4319), !dbg !4730
	store i32 %x.arg, i32* %x.addr, align 4, !tbaa !4326
	call void @llvm.dbg.declare (metadata i32* %x.addr, metadata !4784, metadata !4319), !dbg !4730
	call void @llvm.dbg.declare (metadata i32* %y.addr, metadata !4785, metadata !4319), !dbg !4730
	store i32 %y.arg, i32* %y.addr, align 4, !tbaa !4326
	call void @llvm.dbg.declare (metadata i32* %y.addr, metadata !4786, metadata !4319), !dbg !4730
	call void @llvm.dbg.declare (metadata i32* %z.addr, metadata !4787, metadata !4319), !dbg !4730
	store i32 %z.arg, i32* %z.addr, align 4, !tbaa !4326
	call void @llvm.dbg.declare (metadata i32* %z.addr, metadata !4788, metadata !4319), !dbg !4730
	%0 = load i32, i32* %z.addr, align 4, !tbaa !4544, !dbg !4789
	%1 = load %struct._Z6FsGridISt5arrayIdLm3EELi2EE*, %struct._Z6FsGridISt5arrayIdLm3EELi2EE** %_T36925520_53514.addr, align 8, !tbaa !4327, !dbg !4789
	%2 = bitcast %struct._Z6FsGridISt5arrayIdLm3EELi2EE*  %1 to i8*, !dbg !4789
	%3 = getelementptr i8, i8*  %2, i64 296, !dbg !4789
	%4 = bitcast i8*  %3 to i32*, !dbg !4789
	%5 = load i32, i32*  %4, align 4, !tbaa !4326, !dbg !4789
	%6 = add i32  %0,  %5, !dbg !4789
	%7 = getelementptr i8, i8*  %2, i64 256, !dbg !4789
	%8 = bitcast i8*  %7 to i32*, !dbg !4789
	%9 = load i32, i32*  %8, align 4, !tbaa !4326, !dbg !4789
	%10 = getelementptr i8, i8*  %2, i64 252, !dbg !4789
	%11 = bitcast i8*  %10 to i32*, !dbg !4789
	%12 = load i32, i32*  %11, align 4, !tbaa !4326, !dbg !4789
	%13 = mul i32  %9,  %12, !dbg !4789
	%14 = mul i32  %6,  %13, !dbg !4789
	%15 = load i32, i32* %y.addr, align 4, !tbaa !4544, !dbg !4789
	%16 = getelementptr i8, i8*  %2, i64 292, !dbg !4789
	%17 = bitcast i8*  %16 to i32*, !dbg !4789
	%18 = load i32, i32*  %17, align 4, !tbaa !4326, !dbg !4789
	%19 = add i32  %15,  %18, !dbg !4789
	%20 = mul i32  %12,  %19, !dbg !4789
	%21 = load i32, i32* %x.addr, align 4, !tbaa !4544, !dbg !4789
	%22 = getelementptr i8, i8*  %2, i64 288, !dbg !4789
	%23 = bitcast i8*  %22 to i32*, !dbg !4789
	%24 = load i32, i32*  %23, align 4, !tbaa !4326, !dbg !4789
	%25 = add i32  %21,  %24, !dbg !4789
	%26 = add i32  %20,  %25, !dbg !4789
	%27 = add i32  %14,  %26, !dbg !4789
	%28 = sext i32  %27 to i64, !dbg !4789
	ret i64  %28, !dbg !4789
}
define linkonce_odr i64 @_ZN6FsGridISt5arrayIdLm3EELi2EE16LocalIDForCoordsEiii(%struct._Z6FsGridISt5arrayIdLm3EELi2EE* %_T37190088_53516.arg, i32 signext %x.arg, i32 signext %y.arg, i32 signext %z.arg) #0 inlinehint !dbg !4792 {
L.entry:
	%_T37190088_53516.addr = alloca %struct._Z6FsGridISt5arrayIdLm3EELi2EE*, align 8
	%x.addr = alloca i32, align 4
	%y.addr = alloca i32, align 4
	%z.addr = alloca i32, align 4
	%index.addr = alloca i64, align 8

	call void @llvm.dbg.declare (metadata %struct._Z6FsGridISt5arrayIdLm3EELi2EE** %_T37190088_53516.addr, metadata !4844, metadata !4319), !dbg !4793
	store %struct._Z6FsGridISt5arrayIdLm3EELi2EE* %_T37190088_53516.arg, %struct._Z6FsGridISt5arrayIdLm3EELi2EE** %_T37190088_53516.addr, align 8, !tbaa !4327
	call void @llvm.dbg.declare (metadata %struct._Z6FsGridISt5arrayIdLm3EELi2EE** %_T37190088_53516.addr, metadata !4845, metadata !4319), !dbg !4793
	call void @llvm.dbg.declare (metadata i32* %x.addr, metadata !4846, metadata !4319), !dbg !4793
	store i32 %x.arg, i32* %x.addr, align 4, !tbaa !4326
	call void @llvm.dbg.declare (metadata i32* %x.addr, metadata !4847, metadata !4319), !dbg !4793
	call void @llvm.dbg.declare (metadata i32* %y.addr, metadata !4848, metadata !4319), !dbg !4793
	store i32 %y.arg, i32* %y.addr, align 4, !tbaa !4326
	call void @llvm.dbg.declare (metadata i32* %y.addr, metadata !4849, metadata !4319), !dbg !4793
	call void @llvm.dbg.declare (metadata i32* %z.addr, metadata !4850, metadata !4319), !dbg !4793
	store i32 %z.arg, i32* %z.addr, align 4, !tbaa !4326
	call void @llvm.dbg.declare (metadata i32* %z.addr, metadata !4851, metadata !4319), !dbg !4793
	call void @llvm.dbg.declare (metadata i64* %index.addr, metadata !4853, metadata !4319), !dbg !4793
	store i64 0, i64* %index.addr, align 8, !tbaa !4858, !dbg !4852
	%0 = load %struct._Z6FsGridISt5arrayIdLm3EELi2EE*, %struct._Z6FsGridISt5arrayIdLm3EELi2EE** %_T37190088_53516.addr, align 8, !tbaa !4327, !dbg !4854
	%1 = bitcast %struct._Z6FsGridISt5arrayIdLm3EELi2EE*  %0 to i8*, !dbg !4854
	%2 = getelementptr i8, i8*  %1, i64 260, !dbg !4854
	%3 = bitcast i8*  %2 to i32*, !dbg !4854
	%4 = load i32, i32*  %3, align 4, !tbaa !4326, !dbg !4854
	%5 = icmp sle i32  %4, 1, !dbg !4854
	br i1  %5, label %L.B0004, label %L.B1640, !dbg !4854
L.B1640:
	%6 = load i32, i32* %z.addr, align 4, !tbaa !4544, !dbg !4854
	%7 = add i32  %6, 2, !dbg !4854
	%8 = bitcast %struct._Z6FsGridISt5arrayIdLm3EELi2EE*  %0 to i8*, !dbg !4854
	%9 = getelementptr i8, i8*  %8, i64 280, !dbg !4854
	%10 = bitcast i8*  %9 to i32*, !dbg !4854
	%11 = load i32, i32*  %10, align 4, !tbaa !4326, !dbg !4854
	%12 = getelementptr i8, i8*  %8, i64 276, !dbg !4854
	%13 = bitcast i8*  %12 to i32*, !dbg !4854
	%14 = load i32, i32*  %13, align 4, !tbaa !4326, !dbg !4854
	%15 = mul i32  %11,  %14, !dbg !4854
	%16 = mul i32  %7,  %15, !dbg !4854
	%17 = sext i32  %16 to i64, !dbg !4854
	store i64  %17, i64* %index.addr, align 8, !tbaa !4858, !dbg !4854
	br label %L.B0004
L.B0004:
	%18 = load %struct._Z6FsGridISt5arrayIdLm3EELi2EE*, %struct._Z6FsGridISt5arrayIdLm3EELi2EE** %_T37190088_53516.addr, align 8, !tbaa !4327, !dbg !4854
	%19 = bitcast %struct._Z6FsGridISt5arrayIdLm3EELi2EE*  %18 to i8*, !dbg !4854
	%20 = getelementptr i8, i8*  %19, i64 256, !dbg !4854
	%21 = bitcast i8*  %20 to i32*, !dbg !4854
	%22 = load i32, i32*  %21, align 4, !tbaa !4326, !dbg !4854
	%23 = icmp sle i32  %22, 1, !dbg !4854
	br i1  %23, label %L.B0005, label %L.B1641, !dbg !4854
L.B1641:
	%24 = load i64, i64* %index.addr, align 8, !tbaa !4858, !dbg !4854
	%25 = load i32, i32* %y.addr, align 4, !tbaa !4544, !dbg !4854
	%26 = add i32  %25, 2, !dbg !4854
	%27 = bitcast %struct._Z6FsGridISt5arrayIdLm3EELi2EE*  %18 to i8*, !dbg !4854
	%28 = getelementptr i8, i8*  %27, i64 276, !dbg !4854
	%29 = bitcast i8*  %28 to i32*, !dbg !4854
	%30 = load i32, i32*  %29, align 4, !tbaa !4326, !dbg !4854
	%31 = mul i32  %26,  %30, !dbg !4854
	%32 = sext i32  %31 to i64, !dbg !4854
	%33 = add i64  %24,  %32, !dbg !4854
	store i64  %33, i64* %index.addr, align 8, !tbaa !4858, !dbg !4854
	br label %L.B0005
L.B0005:
	%34 = load %struct._Z6FsGridISt5arrayIdLm3EELi2EE*, %struct._Z6FsGridISt5arrayIdLm3EELi2EE** %_T37190088_53516.addr, align 8, !tbaa !4327, !dbg !4854
	%35 = bitcast %struct._Z6FsGridISt5arrayIdLm3EELi2EE*  %34 to i8*, !dbg !4854
	%36 = getelementptr i8, i8*  %35, i64 252, !dbg !4854
	%37 = bitcast i8*  %36 to i32*, !dbg !4854
	%38 = load i32, i32*  %37, align 4, !tbaa !4326, !dbg !4854
	%39 = icmp sle i32  %38, 1, !dbg !4854
	%40 = zext i1  %39 to i32, !dbg !4854
	%41 = trunc i32  %40 to i1, !dbg !4854
	%42 = load i64, i64* %index.addr, align 8, !tbaa !4858, !dbg !4854
	%43 = load i32, i32* %x.addr, align 4, !tbaa !4544, !dbg !4854
	%44 = sext i32  %43 to i64, !dbg !4854
	%45 = add i64  %44, 2, !dbg !4854
	%46 = add i64  %42,  %45, !dbg !4854
	%47 = select i1  %41, i64  %42, i64  %46, !dbg !4854
	ret i64  %47, !dbg !4855
}
define linkonce_odr %struct._ZSt5arrayIdLm3EE* @_ZN6FsGridISt5arrayIdLm3EELi2EE3getEiii(%struct._Z6FsGridISt5arrayIdLm3EELi2EE* %_T36535232_53517.arg, i32 signext %x.arg, i32 signext %y.arg, i32 signext %z.arg) #0 inlinehint !dbg !4862 {
L.entry:
	%_T36535232_53517.addr = alloca %struct._Z6FsGridISt5arrayIdLm3EELi2EE*, align 8
	%x.addr = alloca i32, align 4
	%y.addr = alloca i32, align 4
	%z.addr = alloca i32, align 4
	%isInNeighbourDomain.addr = alloca i32, align 4
	%coord_shift.addr = alloca [3 x i32], align 4
	%..inline.addr = alloca %struct._Z6FsGridISt5arrayIdLm3EELi2EE*, align 8
	%..inline.addr.1 = alloca i64, align 8

	call void @llvm.dbg.declare (metadata %struct._Z6FsGridISt5arrayIdLm3EELi2EE** %_T36535232_53517.addr, metadata !4986, metadata !4319), !dbg !4863
	store %struct._Z6FsGridISt5arrayIdLm3EELi2EE* %_T36535232_53517.arg, %struct._Z6FsGridISt5arrayIdLm3EELi2EE** %_T36535232_53517.addr, align 8, !tbaa !4327
	call void @llvm.dbg.declare (metadata %struct._Z6FsGridISt5arrayIdLm3EELi2EE** %_T36535232_53517.addr, metadata !4987, metadata !4319), !dbg !4863
	call void @llvm.dbg.declare (metadata i32* %x.addr, metadata !4988, metadata !4319), !dbg !4863
	store i32 %x.arg, i32* %x.addr, align 4, !tbaa !4326
	call void @llvm.dbg.declare (metadata i32* %x.addr, metadata !4989, metadata !4319), !dbg !4863
	call void @llvm.dbg.declare (metadata i32* %y.addr, metadata !4990, metadata !4319), !dbg !4863
	store i32 %y.arg, i32* %y.addr, align 4, !tbaa !4326
	call void @llvm.dbg.declare (metadata i32* %y.addr, metadata !4991, metadata !4319), !dbg !4863
	call void @llvm.dbg.declare (metadata i32* %z.addr, metadata !4992, metadata !4319), !dbg !4863
	store i32 %z.arg, i32* %z.addr, align 4, !tbaa !4326
	call void @llvm.dbg.declare (metadata i32* %z.addr, metadata !4993, metadata !4319), !dbg !4863
	call void @llvm.dbg.declare (metadata i32* %isInNeighbourDomain.addr, metadata !4995, metadata !4319), !dbg !4863
	store i32 13, i32* %isInNeighbourDomain.addr, align 4, !tbaa !4544, !dbg !4994
	call void @llvm.dbg.declare (metadata [3 x i32]* %coord_shift.addr, metadata !4997, metadata !4319), !dbg !4863
	%0 = bitcast [3 x i32]* %coord_shift.addr to i32*, !dbg !4996
	store i32 0, i32*  %0, align 4, !tbaa !4326, !dbg !4996
	%1 = bitcast [3 x i32]* %coord_shift.addr to i8*, !dbg !4996
	%2 = getelementptr i8, i8*  %1, i64 4, !dbg !4996
	%3 = bitcast i8*  %2 to i32*, !dbg !4996
	store i32 0, i32*  %3, align 4, !tbaa !4326, !dbg !4996
	%4 = getelementptr i8, i8*  %1, i64 8, !dbg !4996
	%5 = bitcast i8*  %4 to i32*, !dbg !4996
	store i32 0, i32*  %5, align 4, !tbaa !4326, !dbg !4996
	%6 = load i32, i32* %x.addr, align 4, !tbaa !4544, !dbg !4998
	%7 = icmp sge i32  %6, 0, !dbg !4998
	br i1  %7, label %L.B0007, label %L.B1662, !dbg !4998
L.B1662:
	store i32 4, i32* %isInNeighbourDomain.addr, align 4, !tbaa !4544, !dbg !4999
	%8 = bitcast [3 x i32]* %coord_shift.addr to i32*, !dbg !5000
	store i32 1, i32*  %8, align 4, !tbaa !4326, !dbg !5000
	br label %L.B0007
L.B0007:
	%9 = load i32, i32* %x.addr, align 4, !tbaa !4544, !dbg !5001
	%10 = load %struct._Z6FsGridISt5arrayIdLm3EELi2EE*, %struct._Z6FsGridISt5arrayIdLm3EELi2EE** %_T36535232_53517.addr, align 8, !tbaa !4327, !dbg !5001
	%11 = bitcast %struct._Z6FsGridISt5arrayIdLm3EELi2EE*  %10 to i8*, !dbg !5001
	%12 = getelementptr i8, i8*  %11, i64 264, !dbg !5001
	%13 = bitcast i8*  %12 to i32*, !dbg !5001
	%14 = load i32, i32*  %13, align 4, !tbaa !4326, !dbg !5001
	%15 = icmp slt i32  %9,  %14, !dbg !5001
	br i1  %15, label %L.B0008, label %L.B1663, !dbg !5001
L.B1663:
	%16 = load i32, i32* %isInNeighbourDomain.addr, align 4, !tbaa !4544, !dbg !5002
	%17 = add i32  %16, 9, !dbg !5002
	store i32  %17, i32* %isInNeighbourDomain.addr, align 4, !tbaa !4544, !dbg !5002
	%18 = bitcast [3 x i32]* %coord_shift.addr to i32*, !dbg !5003
	store i32 -1, i32*  %18, align 4, !tbaa !4326, !dbg !5003
	br label %L.B0008
L.B0008:
	%19 = load i32, i32* %y.addr, align 4, !tbaa !4544, !dbg !5004
	%20 = icmp sge i32  %19, 0, !dbg !5004
	br i1  %20, label %L.B0009, label %L.B1664, !dbg !5004
L.B1664:
	%21 = load i32, i32* %isInNeighbourDomain.addr, align 4, !tbaa !4544, !dbg !5005
	%22 = sub i32  %21, 3, !dbg !5005
	store i32  %22, i32* %isInNeighbourDomain.addr, align 4, !tbaa !4544, !dbg !5005
	%23 = bitcast [3 x i32]* %coord_shift.addr to i8*, !dbg !5006
	%24 = getelementptr i8, i8*  %23, i64 4, !dbg !5006
	%25 = bitcast i8*  %24 to i32*, !dbg !5006
	store i32 1, i32*  %25, align 4, !tbaa !4326, !dbg !5006
	br label %L.B0009
L.B0009:
	%26 = load i32, i32* %y.addr, align 4, !tbaa !4544, !dbg !5001
	%27 = load %struct._Z6FsGridISt5arrayIdLm3EELi2EE*, %struct._Z6FsGridISt5arrayIdLm3EELi2EE** %_T36535232_53517.addr, align 8, !tbaa !4327, !dbg !5001
	%28 = bitcast %struct._Z6FsGridISt5arrayIdLm3EELi2EE*  %27 to i8*, !dbg !5001
	%29 = getelementptr i8, i8*  %28, i64 268, !dbg !5001
	%30 = bitcast i8*  %29 to i32*, !dbg !5001
	%31 = load i32, i32*  %30, align 4, !tbaa !4326, !dbg !5001
	%32 = icmp slt i32  %26,  %31, !dbg !5001
	br i1  %32, label %L.B0010, label %L.B1665, !dbg !5001
L.B1665:
	%33 = load i32, i32* %isInNeighbourDomain.addr, align 4, !tbaa !4544, !dbg !5007
	%34 = add i32  %33, 3, !dbg !5007
	store i32  %34, i32* %isInNeighbourDomain.addr, align 4, !tbaa !4544, !dbg !5007
	%35 = bitcast [3 x i32]* %coord_shift.addr to i8*, !dbg !5008
	%36 = getelementptr i8, i8*  %35, i64 4, !dbg !5008
	%37 = bitcast i8*  %36 to i32*, !dbg !5008
	store i32 -1, i32*  %37, align 4, !tbaa !4326, !dbg !5008
	br label %L.B0010
L.B0010:
	%38 = load i32, i32* %z.addr, align 4, !tbaa !4544, !dbg !5009
	%39 = icmp sge i32  %38, 0, !dbg !5009
	br i1  %39, label %L.B0011, label %L.B1666, !dbg !5009
L.B1666:
	%40 = load i32, i32* %isInNeighbourDomain.addr, align 4, !tbaa !4544, !dbg !5010
	%41 = sub i32  %40, 1, !dbg !5010
	store i32  %41, i32* %isInNeighbourDomain.addr, align 4, !tbaa !4544, !dbg !5010
	%42 = bitcast [3 x i32]* %coord_shift.addr to i8*, !dbg !5011
	%43 = getelementptr i8, i8*  %42, i64 8, !dbg !5011
	%44 = bitcast i8*  %43 to i32*, !dbg !5011
	store i32 1, i32*  %44, align 4, !tbaa !4326, !dbg !5011
	br label %L.B0011
L.B0011:
	%45 = load i32, i32* %z.addr, align 4, !tbaa !4544, !dbg !5001
	%46 = load %struct._Z6FsGridISt5arrayIdLm3EELi2EE*, %struct._Z6FsGridISt5arrayIdLm3EELi2EE** %_T36535232_53517.addr, align 8, !tbaa !4327, !dbg !5001
	%47 = bitcast %struct._Z6FsGridISt5arrayIdLm3EELi2EE*  %46 to i8*, !dbg !5001
	%48 = getelementptr i8, i8*  %47, i64 272, !dbg !5001
	%49 = bitcast i8*  %48 to i32*, !dbg !5001
	%50 = load i32, i32*  %49, align 4, !tbaa !4326, !dbg !5001
	%51 = icmp slt i32  %45,  %50, !dbg !5001
	br i1  %51, label %L.B0012, label %L.B1667, !dbg !5001
L.B1667:
	%52 = load i32, i32* %isInNeighbourDomain.addr, align 4, !tbaa !4544, !dbg !5012
	%53 = add i32  %52, 1, !dbg !5012
	store i32  %53, i32* %isInNeighbourDomain.addr, align 4, !tbaa !4544, !dbg !5012
	%54 = bitcast [3 x i32]* %coord_shift.addr to i8*, !dbg !5013
	%55 = getelementptr i8, i8*  %54, i64 8, !dbg !5013
	%56 = bitcast i8*  %55 to i32*, !dbg !5013
	store i32 -1, i32*  %56, align 4, !tbaa !4326, !dbg !5013
	br label %L.B0012
L.B0012:
	%57 = load i32, i32* %isInNeighbourDomain.addr, align 4, !tbaa !4544, !dbg !5014
	%58 = icmp eq i32  %57, 13, !dbg !5014
	br i1  %58, label %L.B0013, label %L.B1668, !dbg !5014
L.B1668:
	%59 = sext i32  %57 to i64, !dbg !5001
	%60 = load %struct._Z6FsGridISt5arrayIdLm3EELi2EE*, %struct._Z6FsGridISt5arrayIdLm3EELi2EE** %_T36535232_53517.addr, align 8, !tbaa !4327, !dbg !5001
	%61 = bitcast %struct._Z6FsGridISt5arrayIdLm3EELi2EE*  %60 to i8*, !dbg !5001
	%62 = getelementptr i8, i8*  %61, i64 92, !dbg !5001
	%63 = bitcast i8*  %62 to i32*, !dbg !5001
	%64 = getelementptr i32, i32*  %63, i64  %59, !dbg !5001
	%65 = load i32, i32*  %64, align 4, !tbaa !4326, !dbg !5001
	%66 = icmp ne i32  %65, -2, !dbg !5001
	br i1  %66, label %L.B0014, label %L.B1669, !dbg !5001
L.B1669:
	ret %struct._ZSt5arrayIdLm3EE*  null, !dbg !5015
L.B1670:
	br label %L.R0023, !dbg !5015
L.B0014:
	%67 = load i32, i32* %isInNeighbourDomain.addr, align 4, !tbaa !4544, !dbg !5001
	%68 = sext i32  %67 to i64, !dbg !5001
	%69 = load %struct._Z6FsGridISt5arrayIdLm3EELi2EE*, %struct._Z6FsGridISt5arrayIdLm3EELi2EE** %_T36535232_53517.addr, align 8, !tbaa !4327, !dbg !5001
	%70 = bitcast %struct._Z6FsGridISt5arrayIdLm3EELi2EE*  %69 to i8*, !dbg !5001
	%71 = getelementptr i8, i8*  %70, i64 92, !dbg !5001
	%72 = bitcast i8*  %71 to i32*, !dbg !5001
	%73 = getelementptr i32, i32*  %72, i64  %68, !dbg !5001
	%74 = load i32, i32*  %73, align 4, !tbaa !4326, !dbg !5001
	%75 = getelementptr i8, i8*  %70, i64 56, !dbg !5001
	%76 = bitcast i8*  %75 to i32*, !dbg !5001
	%77 = load i32, i32*  %76, align 4, !tbaa !4326, !dbg !5001
	%78 = icmp ne i32  %74,  %77, !dbg !5001
	br i1  %78, label %L.B0016, label %L.B1671, !dbg !5001
L.B1671:
	%79 = load i32, i32* %x.addr, align 4, !tbaa !4544, !dbg !5001
	%80 = bitcast [3 x i32]* %coord_shift.addr to i32*, !dbg !5001
	%81 = load i32, i32*  %80, align 4, !tbaa !4326, !dbg !5001
	%82 = bitcast %struct._Z6FsGridISt5arrayIdLm3EELi2EE*  %69 to i8*, !dbg !5001
	%83 = getelementptr i8, i8*  %82, i64 264, !dbg !5001
	%84 = bitcast i8*  %83 to i32*, !dbg !5001
	%85 = load i32, i32*  %84, align 4, !tbaa !4326, !dbg !5001
	%86 = mul i32  %81,  %85, !dbg !5001
	%87 = add i32  %79,  %86, !dbg !5001
	store i32  %87, i32* %x.addr, align 4, !tbaa !4544, !dbg !5001
	%88 = load i32, i32* %y.addr, align 4, !tbaa !4544, !dbg !5001
	%89 = bitcast [3 x i32]* %coord_shift.addr to i8*, !dbg !5001
	%90 = getelementptr i8, i8*  %89, i64 4, !dbg !5001
	%91 = bitcast i8*  %90 to i32*, !dbg !5001
	%92 = load i32, i32*  %91, align 4, !tbaa !4326, !dbg !5001
	%93 = getelementptr i8, i8*  %82, i64 268, !dbg !5001
	%94 = bitcast i8*  %93 to i32*, !dbg !5001
	%95 = load i32, i32*  %94, align 4, !tbaa !4326, !dbg !5001
	%96 = mul i32  %92,  %95, !dbg !5001
	%97 = add i32  %88,  %96, !dbg !5001
	store i32  %97, i32* %y.addr, align 4, !tbaa !4544, !dbg !5001
	%98 = load i32, i32* %z.addr, align 4, !tbaa !4544, !dbg !5001
	%99 = getelementptr i8, i8*  %89, i64 8, !dbg !5001
	%100 = bitcast i8*  %99 to i32*, !dbg !5001
	%101 = load i32, i32*  %100, align 4, !tbaa !4326, !dbg !5001
	%102 = getelementptr i8, i8*  %82, i64 272, !dbg !5001
	%103 = bitcast i8*  %102 to i32*, !dbg !5001
	%104 = load i32, i32*  %103, align 4, !tbaa !4326, !dbg !5001
	%105 = mul i32  %101,  %104, !dbg !5001
	%106 = add i32  %98,  %105, !dbg !5001
	store i32  %106, i32* %z.addr, align 4, !tbaa !4544, !dbg !5001
	br label %L.B0016
L.B0016:
	br label %L.B0013
L.B0013:
	%107 = load %struct._Z6FsGridISt5arrayIdLm3EELi2EE*, %struct._Z6FsGridISt5arrayIdLm3EELi2EE** %_T36535232_53517.addr, align 8, !tbaa !4327, !dbg !5016
	%108 = bitcast %struct._Z6FsGridISt5arrayIdLm3EELi2EE*  %107 to i8*, !dbg !5016
	%109 = bitcast %struct._Z6FsGridISt5arrayIdLm3EELi2EE** %..inline.addr to i8**, !dbg !5016
	store i8*  %108, i8**  %109, align 8, !tbaa !4327, !dbg !5016
	store i64 0, i64* %..inline.addr.1, align 8, !tbaa !4858, !dbg !5016
	%110 = load %struct._Z6FsGridISt5arrayIdLm3EELi2EE*, %struct._Z6FsGridISt5arrayIdLm3EELi2EE** %..inline.addr, align 8, !tbaa !4327, !dbg !5017
	%111 = bitcast %struct._Z6FsGridISt5arrayIdLm3EELi2EE*  %110 to i8*, !dbg !5017
	%112 = getelementptr i8, i8*  %111, i64 260, !dbg !5017
	%113 = bitcast i8*  %112 to i32*, !dbg !5017
	%114 = load i32, i32*  %113, align 4, !tbaa !4326, !dbg !5017
	%115 = icmp sle i32  %114, 1, !dbg !5017
	br i1  %115, label %L..inline.76487, label %L.B1672, !dbg !5017
L.B1672:
	%116 = bitcast %struct._Z6FsGridISt5arrayIdLm3EELi2EE*  %107 to i8*, !dbg !5018
	%117 = getelementptr i8, i8*  %116, i64 280, !dbg !5018
	%118 = bitcast i8*  %117 to i32*, !dbg !5018
	%119 = load i32, i32*  %118, align 4, !tbaa !4326, !dbg !5018
	%120 = getelementptr i8, i8*  %116, i64 276, !dbg !5018
	%121 = bitcast i8*  %120 to i32*, !dbg !5018
	%122 = load i32, i32*  %121, align 4, !tbaa !4326, !dbg !5018
	%123 = mul i32  %119,  %122, !dbg !5018
	%124 = load i32, i32* %z.addr, align 4, !tbaa !4544, !dbg !5018
	%125 = add i32  %124, 2, !dbg !5018
	%126 = mul i32  %123,  %125, !dbg !5018
	%127 = sext i32  %126 to i64, !dbg !5018
	store i64  %127, i64* %..inline.addr.1, align 8, !tbaa !4858, !dbg !5018
	br label %L..inline.76487
L..inline.76487:
	%128 = load %struct._Z6FsGridISt5arrayIdLm3EELi2EE*, %struct._Z6FsGridISt5arrayIdLm3EELi2EE** %..inline.addr, align 8, !tbaa !4327, !dbg !5019
	%129 = bitcast %struct._Z6FsGridISt5arrayIdLm3EELi2EE*  %128 to i8*, !dbg !5019
	%130 = getelementptr i8, i8*  %129, i64 256, !dbg !5019
	%131 = bitcast i8*  %130 to i32*, !dbg !5019
	%132 = load i32, i32*  %131, align 4, !tbaa !4326, !dbg !5019
	%133 = icmp sle i32  %132, 1, !dbg !5019
	br i1  %133, label %L..inline.76537, label %L.B1673, !dbg !5019
L.B1673:
	%134 = load %struct._Z6FsGridISt5arrayIdLm3EELi2EE*, %struct._Z6FsGridISt5arrayIdLm3EELi2EE** %_T36535232_53517.addr, align 8, !tbaa !4327, !dbg !5020
	%135 = bitcast %struct._Z6FsGridISt5arrayIdLm3EELi2EE*  %134 to i8*, !dbg !5020
	%136 = getelementptr i8, i8*  %135, i64 276, !dbg !5020
	%137 = bitcast i8*  %136 to i32*, !dbg !5020
	%138 = load i32, i32*  %137, align 4, !tbaa !4326, !dbg !5020
	%139 = load i32, i32* %y.addr, align 4, !tbaa !4544, !dbg !5020
	%140 = add i32  %139, 2, !dbg !5020
	%141 = mul i32  %138,  %140, !dbg !5020
	%142 = sext i32  %141 to i64, !dbg !5020
	%143 = load i64, i64* %..inline.addr.1, align 8, !tbaa !4858, !dbg !5020
	%144 = add i64  %142,  %143, !dbg !5020
	store i64  %144, i64* %..inline.addr.1, align 8, !tbaa !4858, !dbg !5020
	br label %L..inline.76537
L..inline.76537:
	%145 = load %struct._Z6FsGridISt5arrayIdLm3EELi2EE*, %struct._Z6FsGridISt5arrayIdLm3EELi2EE** %..inline.addr, align 8, !tbaa !4327, !dbg !5021
	%146 = bitcast %struct._Z6FsGridISt5arrayIdLm3EELi2EE*  %145 to i8*, !dbg !5021
	%147 = getelementptr i8, i8*  %146, i64 252, !dbg !5021
	%148 = bitcast i8*  %147 to i32*, !dbg !5021
	%149 = load i32, i32*  %148, align 4, !tbaa !4326, !dbg !5021
	%150 = icmp sle i32  %149, 1, !dbg !5021
	%151 = zext i1  %150 to i32, !dbg !5021
	%152 = trunc i32  %151 to i1, !dbg !5021
	%153 = load i64, i64* %..inline.addr.1, align 8, !tbaa !4858, !dbg !5021
	%154 = load i32, i32* %x.addr, align 4, !tbaa !4544, !dbg !5021
	%155 = sext i32  %154 to i64, !dbg !5021
	%156 = add i64  %155, 2, !dbg !5021
	%157 = add i64  %153,  %156, !dbg !5021
	%158 = select i1  %152, i64  %153, i64  %157, !dbg !5021
	%159 = load %struct._Z6FsGridISt5arrayIdLm3EELi2EE*, %struct._Z6FsGridISt5arrayIdLm3EELi2EE** %_T36535232_53517.addr, align 8, !tbaa !4327, !dbg !5022
	%160 = bitcast %struct._Z6FsGridISt5arrayIdLm3EELi2EE*  %159 to i8*, !dbg !5022
	%161 = getelementptr i8, i8*  %160, i64 744, !dbg !5022
	%162 = bitcast i8*  %161 to i8**, !dbg !5022
	%163 = load i8*, i8**  %162, align 8, !tbaa !4327, !dbg !5022
	%164 = mul i64  %158, 24, !dbg !5022
	%165 = getelementptr i8, i8*  %163, i64  %164, !dbg !5022
	%166 = bitcast i8*  %165 to %struct._ZSt5arrayIdLm3EE*, !dbg !5022
	ret %struct._ZSt5arrayIdLm3EE*  %166, !dbg !5022
L.R0023:
	ret %struct._ZSt5arrayIdLm3EE* null
}
define linkonce_odr void @_ZNSt11char_traitsIcE6assignERcRKc(i8* %__c1.arg, i8* %__c2.arg) #0 inlinehint !dbg !5030 {
L.entry:
	%__c1.addr = alloca i8*, align 8
	%__c2.addr = alloca i8*, align 8

	call void @llvm.dbg.declare (metadata i8** %__c1.addr, metadata !5034, metadata !4319), !dbg !5031
	store i8* %__c1.arg, i8** %__c1.addr, align 8, !tbaa !4327
	call void @llvm.dbg.declare (metadata i8** %__c1.addr, metadata !5035, metadata !4319), !dbg !5031
	call void @llvm.dbg.declare (metadata i8** %__c2.addr, metadata !5036, metadata !4319), !dbg !5031
	store i8* %__c2.arg, i8** %__c2.addr, align 8, !tbaa !4327
	call void @llvm.dbg.declare (metadata i8** %__c2.addr, metadata !5037, metadata !4319), !dbg !5031
	%0 = load i8*, i8** %__c2.addr, align 8, !tbaa !4327, !dbg !5038
	%1 = load i8, i8*  %0, align 1, !tbaa !4326, !dbg !5038
	%2 = load i8*, i8** %__c1.addr, align 8, !tbaa !4327, !dbg !5038
	store i8  %1, i8*  %2, align 1, !tbaa !4326, !dbg !5038
	ret void, !dbg !5038
}
define linkonce_odr i64 @_ZNSt11char_traitsIcE6lengthEPKc(i8* %__s.arg) #0 inlinehint !dbg !5042 {
L.entry:
	%__s.addr = alloca i8*, align 8

	call void @llvm.dbg.declare (metadata i8** %__s.addr, metadata !5046, metadata !4319), !dbg !5043
	store i8* %__s.arg, i8** %__s.addr, align 8, !tbaa !4327
	call void @llvm.dbg.declare (metadata i8** %__s.addr, metadata !5047, metadata !4319), !dbg !5043
	%0 = load i8*, i8** %__s.addr, align 8, !tbaa !4327, !dbg !5048
	%1 = call i64  @strlen (i8*  %0) nounwind, !dbg !5048
	ret i64  %1, !dbg !5048
}
define linkonce_odr i8* @_ZNSt11char_traitsIcE4copyEPcPKcm(i8* %__s1.arg, i8* %__s2.arg, i64 %__n.arg) #0 inlinehint !dbg !5053 {
L.entry:
	%__s1.addr = alloca i8*, align 8
	%__s2.addr = alloca i8*, align 8
	%__n.addr = alloca i64, align 8

	call void @llvm.dbg.declare (metadata i8** %__s1.addr, metadata !5057, metadata !4319), !dbg !5054
	store i8* %__s1.arg, i8** %__s1.addr, align 8, !tbaa !4327
	call void @llvm.dbg.declare (metadata i8** %__s1.addr, metadata !5058, metadata !4319), !dbg !5054
	call void @llvm.dbg.declare (metadata i8** %__s2.addr, metadata !5059, metadata !4319), !dbg !5054
	store i8* %__s2.arg, i8** %__s2.addr, align 8, !tbaa !4327
	call void @llvm.dbg.declare (metadata i8** %__s2.addr, metadata !5060, metadata !4319), !dbg !5054
	call void @llvm.dbg.declare (metadata i64* %__n.addr, metadata !5061, metadata !4319), !dbg !5054
	store i64 %__n.arg, i64* %__n.addr, align 8, !tbaa !4326
	call void @llvm.dbg.declare (metadata i64* %__n.addr, metadata !5062, metadata !4319), !dbg !5054
	%0 = load i64, i64* %__n.addr, align 8, !tbaa !4858, !dbg !5063
	%1 = icmp ne i64  %0, 0, !dbg !5063
	br i1  %1, label %L.B0017, label %L.B1674, !dbg !5063
L.B1674:
	%2 = load i8*, i8** %__s1.addr, align 8, !tbaa !4327, !dbg !5064
	ret i8*  %2, !dbg !5064
L.B1675:
	br label %L.R0026, !dbg !5064
L.B0017:
	%3 = load i8*, i8** %__s1.addr, align 8, !tbaa !4327, !dbg !5065
	%4 = load i8*, i8** %__s2.addr, align 8, !tbaa !4327, !dbg !5065
	%5 = load i64, i64* %__n.addr, align 8, !tbaa !4858, !dbg !5065
	%6 = call i8*  @memcpy (i8*  %3, i8*  %4, i64  %5) nounwind, !dbg !5065
	ret i8*  %6, !dbg !5065
L.R0026:
	ret i8* null
}

%struct._ZSaIcE = type <{ [1 x i8]}> 

define linkonce_odr void @_ZNSaIcEC1Ev(%struct._ZSaIcE* %_T36530264_53525.arg) #0 inlinehint !dbg !5073 {
L.entry:
	%_T36530264_53525.addr = alloca %struct._ZSaIcE*, align 8

	call void @llvm.dbg.declare (metadata %struct._ZSaIcE** %_T36530264_53525.addr, metadata !5077, metadata !4319), !dbg !5074
	store %struct._ZSaIcE* %_T36530264_53525.arg, %struct._ZSaIcE** %_T36530264_53525.addr, align 8, !tbaa !4327
	call void @llvm.dbg.declare (metadata %struct._ZSaIcE** %_T36530264_53525.addr, metadata !5078, metadata !4319), !dbg !5074
	ret void, !dbg !5079
}
define linkonce_odr void @_ZNSaIcEC2Ev(%struct._ZSaIcE* %_T36530264_53526.arg) #0 inlinehint !dbg !5081 {
L.entry:
	%_T36530264_53526.addr = alloca %struct._ZSaIcE*, align 8

	store %struct._ZSaIcE* %_T36530264_53526.arg, %struct._ZSaIcE** %_T36530264_53526.addr, align 8, !tbaa !4327
	ret void, !dbg !5089
}
define linkonce_odr void @_ZNSaIcEC1ERKS_(%struct._ZSaIcE* %_T36530264_53527.arg, %struct._ZSaIcE* %__a.arg) #0 inlinehint !dbg !5097 {
L.entry:
	%_T36530264_53527.addr = alloca %struct._ZSaIcE*, align 8
	%__a.addr = alloca %struct._ZSaIcE*, align 8

	call void @llvm.dbg.declare (metadata %struct._ZSaIcE** %_T36530264_53527.addr, metadata !5101, metadata !4319), !dbg !5098
	store %struct._ZSaIcE* %_T36530264_53527.arg, %struct._ZSaIcE** %_T36530264_53527.addr, align 8, !tbaa !4327
	call void @llvm.dbg.declare (metadata %struct._ZSaIcE** %_T36530264_53527.addr, metadata !5102, metadata !4319), !dbg !5098
	call void @llvm.dbg.declare (metadata %struct._ZSaIcE** %__a.addr, metadata !5103, metadata !4319), !dbg !5098
	store %struct._ZSaIcE* %__a.arg, %struct._ZSaIcE** %__a.addr, align 8, !tbaa !4327
	call void @llvm.dbg.declare (metadata %struct._ZSaIcE** %__a.addr, metadata !5104, metadata !4319), !dbg !5098
	ret void, !dbg !5105
}
define linkonce_odr void @_ZNSaIcEC2ERKS_(%struct._ZSaIcE* %_T36530264_53528.arg, %struct._ZSaIcE* %_T36530560_53528.arg) #0 inlinehint !dbg !5107 {
L.entry:
	%_T36530264_53528.addr = alloca %struct._ZSaIcE*, align 8
	%_T36530560_53528.addr = alloca %struct._ZSaIcE*, align 8

	store %struct._ZSaIcE* %_T36530264_53528.arg, %struct._ZSaIcE** %_T36530264_53528.addr, align 8, !tbaa !4327
	store %struct._ZSaIcE* %_T36530560_53528.arg, %struct._ZSaIcE** %_T36530560_53528.addr, align 8, !tbaa !4327
	ret void, !dbg !5115
}
define linkonce_odr void @_ZNSaIcED1Ev(%struct._ZSaIcE* %_T36530264_53529.arg) #0 inlinehint !dbg !5117 {
L.entry:
	%_T36530264_53529.addr = alloca %struct._ZSaIcE*, align 8

	call void @llvm.dbg.declare (metadata %struct._ZSaIcE** %_T36530264_53529.addr, metadata !5121, metadata !4319), !dbg !5118
	store %struct._ZSaIcE* %_T36530264_53529.arg, %struct._ZSaIcE** %_T36530264_53529.addr, align 8, !tbaa !4327
	call void @llvm.dbg.declare (metadata %struct._ZSaIcE** %_T36530264_53529.addr, metadata !5122, metadata !4319), !dbg !5118
	ret void, !dbg !5123
}
define linkonce_odr void @_ZNSaIcED2Ev(%struct._ZSaIcE* %_T36530264_53530.arg) #0 inlinehint !dbg !5125 {
L.entry:
	%_T36530264_53530.addr = alloca %struct._ZSaIcE*, align 8

	store %struct._ZSaIcE* %_T36530264_53530.arg, %struct._ZSaIcE** %_T36530264_53530.addr, align 8, !tbaa !4327
	ret void, !dbg !5133
}
define linkonce_odr void @_ZNSt16allocator_traitsISaIcEE10deallocateERS0_Pcm(%struct._ZSaIcE* %__a.arg, i8* %__p.arg, i64 %__n.arg) #0 inlinehint !dbg !5143 {
L.entry:
	%__a.addr = alloca %struct._ZSaIcE*, align 8
	%__p.addr = alloca i8*, align 8
	%__n.addr = alloca i64, align 8
	%..inline.addr = alloca i8*, align 8

	call void @llvm.dbg.declare (metadata %struct._ZSaIcE** %__a.addr, metadata !5151, metadata !4319), !dbg !5144
	store %struct._ZSaIcE* %__a.arg, %struct._ZSaIcE** %__a.addr, align 8, !tbaa !4327
	call void @llvm.dbg.declare (metadata %struct._ZSaIcE** %__a.addr, metadata !5152, metadata !4319), !dbg !5144
	call void @llvm.dbg.declare (metadata i8** %__p.addr, metadata !5153, metadata !4319), !dbg !5144
	store i8* %__p.arg, i8** %__p.addr, align 8, !tbaa !4327
	call void @llvm.dbg.declare (metadata i8** %__p.addr, metadata !5154, metadata !4319), !dbg !5144
	call void @llvm.dbg.declare (metadata i64* %__n.addr, metadata !5155, metadata !4319), !dbg !5144
	store i64 %__n.arg, i64* %__n.addr, align 8, !tbaa !4326
	call void @llvm.dbg.declare (metadata i64* %__n.addr, metadata !5156, metadata !4319), !dbg !5144
	%0 = load i8*, i8** %__p.addr, align 8, !tbaa !4327, !dbg !5157
	call void  @_ZdlPv (i8*  %0) nounwind, !dbg !5158
	ret void, !dbg !5157
}
define linkonce_odr i64 @_ZNSt16allocator_traitsISaIcEE8max_sizeERKS0_(%struct._ZSaIcE* %__a.arg) #0 inlinehint !dbg !5166 {
L.entry:
	%__a.addr = alloca %struct._ZSaIcE*, align 8

	call void @llvm.dbg.declare (metadata %struct._ZSaIcE** %__a.addr, metadata !5174, metadata !4319), !dbg !5167
	store %struct._ZSaIcE* %__a.arg, %struct._ZSaIcE** %__a.addr, align 8, !tbaa !4327
	call void @llvm.dbg.declare (metadata %struct._ZSaIcE** %__a.addr, metadata !5175, metadata !4319), !dbg !5167
	ret i64 -1, !dbg !5176
}
define linkonce_odr void @_ZNSt16allocator_traitsISaIcEE37select_on_container_copy_constructionERKS0_(%struct._ZSaIcE* sret %_T36530264_53538.arg, %struct._ZSaIcE* %__rhs.arg) #0 inlinehint !dbg !5181 {
L.entry:
	%_T36530264_53538.addr = alloca %struct._ZSaIcE*, align 8
	%__rhs.addr = alloca %struct._ZSaIcE*, align 8

	store %struct._ZSaIcE* %_T36530264_53538.arg, %struct._ZSaIcE** %_T36530264_53538.addr, align 8, !tbaa !4327
	call void @llvm.dbg.declare (metadata %struct._ZSaIcE** %__rhs.addr, metadata !5185, metadata !4319), !dbg !5182
	store %struct._ZSaIcE* %__rhs.arg, %struct._ZSaIcE** %__rhs.addr, align 8, !tbaa !4327
	call void @llvm.dbg.declare (metadata %struct._ZSaIcE** %__rhs.addr, metadata !5186, metadata !4319), !dbg !5182
	ret void, !dbg !5187
}
define linkonce_odr signext i8 @_ZNKSt5ctypeIcE5widenEc(%struct._ZSt5ctypeIcE* %_T36530448_53542.arg, i8 signext %__c.arg) #0 inlinehint !dbg !5193 {
L.entry:
	%_T36530448_53542.addr = alloca %struct._ZSt5ctypeIcE*, align 8
	%__c.addr = alloca i8, align 1
	%.Q0006.addr = alloca i32, align 4

	call void @llvm.dbg.declare (metadata %struct._ZSt5ctypeIcE** %_T36530448_53542.addr, metadata !5197, metadata !4319), !dbg !5194
	store %struct._ZSt5ctypeIcE* %_T36530448_53542.arg, %struct._ZSt5ctypeIcE** %_T36530448_53542.addr, align 8, !tbaa !4327
	call void @llvm.dbg.declare (metadata %struct._ZSt5ctypeIcE** %_T36530448_53542.addr, metadata !5198, metadata !4319), !dbg !5194
	call void @llvm.dbg.declare (metadata i8* %__c.addr, metadata !5199, metadata !4319), !dbg !5194
	store i8 %__c.arg, i8* %__c.addr, align 1, !tbaa !4326
	call void @llvm.dbg.declare (metadata i8* %__c.addr, metadata !5200, metadata !4319), !dbg !5194
	%0 = load %struct._ZSt5ctypeIcE*, %struct._ZSt5ctypeIcE** %_T36530448_53542.addr, align 8, !tbaa !4327, !dbg !5201
	%1 = bitcast %struct._ZSt5ctypeIcE*  %0 to i8*, !dbg !5201
	%2 = getelementptr i8, i8*  %1, i64 56, !dbg !5201
	%3 = load i8, i8*  %2, align 1, !tbaa !4326, !dbg !5201
	%4 = sext i8  %3 to i32, !dbg !5201
	%5 = icmp eq i32  %4, 0, !dbg !5201
	br i1  %5, label %L.B0018, label %L.B1686, !dbg !5201
L.B1686:
	%6 = bitcast %struct._ZSt5ctypeIcE*  %0 to i8*, !dbg !5202
	%7 = getelementptr i8, i8*  %6, i64 57, !dbg !5202
	%8 = load i8, i8* %__c.addr, align 1, !tbaa !4326, !dbg !5202
	%9 = sext i8  %8 to i32, !dbg !5202
	%10 = and i32  %9, 255, !dbg !5202
	%11 = sext i32  %10 to i64, !dbg !5202
	%12 = getelementptr i8, i8*  %7, i64  %11, !dbg !5202
	%13 = load i8, i8*  %12, align 1, !tbaa !4326, !dbg !5202
	ret i8  %13, !dbg !5202
L.B1687:
	br label %L.R0036, !dbg !5202
L.B0018:
	%14 = load %struct._ZSt5ctypeIcE*, %struct._ZSt5ctypeIcE** %_T36530448_53542.addr, align 8, !tbaa !4327, !dbg !5203
	call void  @_ZNKSt5ctypeIcE13_M_widen_initEv (%struct._ZSt5ctypeIcE*  %14), !dbg !5203
	%15 = load %struct._ZSt5ctypeIcE*, %struct._ZSt5ctypeIcE** %_T36530448_53542.addr, align 8, !tbaa !4327, !dbg !5204
	%16 = load i8, i8* %__c.addr, align 1, !tbaa !4326, !dbg !5204
	%17 = bitcast %struct._ZSt5ctypeIcE*  %15 to i8**, !dbg !5204
	%18 = load i8*, i8**  %17, align 8, !tbaa !4327, !dbg !5204
	%19 = getelementptr i8, i8*  %18, i64 48, !dbg !5204
	%20 = bitcast i8*  %19 to i8 (%struct._ZSt5ctypeIcE*, i8)**, !dbg !5204
	%21 = load i8 (%struct._ZSt5ctypeIcE*, i8)*, i8 (%struct._ZSt5ctypeIcE*, i8)**  %20, align 8, !tbaa !4327, !dbg !5204
	%22 = call i8  %21 (%struct._ZSt5ctypeIcE*  %15, i8  %16), !dbg !5204
	%23 = sext i8  %22 to i32, !dbg !5204
	store i32  %23, i32* %.Q0006.addr, align 4, !tbaa !4544, !dbg !5204
	%24 = shl i32  %23, 24, !dbg !5204
	%25 = ashr i32  %24, 24, !dbg !5204
	%26 = trunc i32  %25 to i8, !dbg !5204
	ret i8  %26, !dbg !5204
L.R0036:
	ret i8 0
}
define linkonce_odr signext i32 @_ZNKSt9basic_iosIcSt11char_traitsIcEE7rdstateEv(%struct._ZSt9basic_iosIcSt11char_traitsIcEE* %_T36530264_53545.arg) #0 inlinehint !dbg !5212 {
L.entry:
	%_T36530264_53545.addr = alloca %struct._ZSt9basic_iosIcSt11char_traitsIcEE*, align 8

	call void @llvm.dbg.declare (metadata %struct._ZSt9basic_iosIcSt11char_traitsIcEE** %_T36530264_53545.addr, metadata !5216, metadata !4319), !dbg !5213
	store %struct._ZSt9basic_iosIcSt11char_traitsIcEE* %_T36530264_53545.arg, %struct._ZSt9basic_iosIcSt11char_traitsIcEE** %_T36530264_53545.addr, align 8, !tbaa !4327
	call void @llvm.dbg.declare (metadata %struct._ZSt9basic_iosIcSt11char_traitsIcEE** %_T36530264_53545.addr, metadata !5217, metadata !4319), !dbg !5213
	%0 = load %struct._ZSt9basic_iosIcSt11char_traitsIcEE*, %struct._ZSt9basic_iosIcSt11char_traitsIcEE** %_T36530264_53545.addr, align 8, !tbaa !4327, !dbg !5218
	%1 = bitcast %struct._ZSt9basic_iosIcSt11char_traitsIcEE*  %0 to i8*, !dbg !5218
	%2 = getelementptr i8, i8*  %1, i64 32, !dbg !5218
	%3 = bitcast i8*  %2 to i32*, !dbg !5218
	%4 = load i32, i32*  %3, align 4, !tbaa !4326, !dbg !5218
	ret i32  %4, !dbg !5218
}
define linkonce_odr void @_ZNSt9basic_iosIcSt11char_traitsIcEE8setstateESt12_Ios_Iostate(%struct._ZSt9basic_iosIcSt11char_traitsIcEE* %_T36530264_53549.arg, i32 signext %__state.arg) #0 inlinehint !dbg !5222 {
L.entry:
	%_T36530264_53549.addr = alloca %struct._ZSt9basic_iosIcSt11char_traitsIcEE*, align 8
	%__state.addr = alloca i32, align 4
	%..inline.addr = alloca i32, align 4

	call void @llvm.dbg.declare (metadata %struct._ZSt9basic_iosIcSt11char_traitsIcEE** %_T36530264_53549.addr, metadata !5234, metadata !4319), !dbg !5223
	store %struct._ZSt9basic_iosIcSt11char_traitsIcEE* %_T36530264_53549.arg, %struct._ZSt9basic_iosIcSt11char_traitsIcEE** %_T36530264_53549.addr, align 8, !tbaa !4327
	call void @llvm.dbg.declare (metadata %struct._ZSt9basic_iosIcSt11char_traitsIcEE** %_T36530264_53549.addr, metadata !5235, metadata !4319), !dbg !5223
	call void @llvm.dbg.declare (metadata i32* %__state.addr, metadata !5236, metadata !4319), !dbg !5223
	store i32 %__state.arg, i32* %__state.addr, align 4, !tbaa !4326
	call void @llvm.dbg.declare (metadata i32* %__state.addr, metadata !5237, metadata !4319), !dbg !5223
	%0 = load i32, i32* %__state.addr, align 4, !tbaa !4326, !dbg !5238
	%1 = load %struct._ZSt9basic_iosIcSt11char_traitsIcEE*, %struct._ZSt9basic_iosIcSt11char_traitsIcEE** %_T36530264_53549.addr, align 8, !tbaa !4327, !dbg !5238
	%2 = bitcast %struct._ZSt9basic_iosIcSt11char_traitsIcEE*  %1 to i8*, !dbg !5238
	%3 = getelementptr i8, i8*  %2, i64 32, !dbg !5238
	%4 = bitcast i8*  %3 to i32*, !dbg !5238
	%5 = load i32, i32*  %4, align 4, !tbaa !4326, !dbg !5238
	%6 = or i32  %0,  %5, !dbg !5238
	call void  @_ZNSt9basic_iosIcSt11char_traitsIcEE5clearESt12_Ios_Iostate (%struct._ZSt9basic_iosIcSt11char_traitsIcEE*  %1, i32  %6), !dbg !5239
	ret void, !dbg !5238
}
define linkonce_odr signext i8 @_ZNKSt9basic_iosIcSt11char_traitsIcEE5widenEc(%struct._ZSt9basic_iosIcSt11char_traitsIcEE* %_T36530264_53551.arg, i8 signext %__c.arg) #0 inlinehint !dbg !5243 {
L.entry:
	%_T36530264_53551.addr = alloca %struct._ZSt9basic_iosIcSt11char_traitsIcEE*, align 8
	%__c.addr = alloca i8, align 1
	%..inline.addr = alloca %struct._ZSt5ctypeIcE*, align 8
	%..inline.addr.1 = alloca %struct._ZSt5ctypeIcE*, align 8
	%..inline.addr.2 = alloca i8, align 1
	%..inline.addr.3 = alloca i8, align 1
	%.Q0007.addr = alloca i32, align 4

	call void @llvm.dbg.declare (metadata %struct._ZSt9basic_iosIcSt11char_traitsIcEE** %_T36530264_53551.addr, metadata !5255, metadata !4319), !dbg !5244
	store %struct._ZSt9basic_iosIcSt11char_traitsIcEE* %_T36530264_53551.arg, %struct._ZSt9basic_iosIcSt11char_traitsIcEE** %_T36530264_53551.addr, align 8, !tbaa !4327
	call void @llvm.dbg.declare (metadata %struct._ZSt9basic_iosIcSt11char_traitsIcEE** %_T36530264_53551.addr, metadata !5256, metadata !4319), !dbg !5244
	call void @llvm.dbg.declare (metadata i8* %__c.addr, metadata !5257, metadata !4319), !dbg !5244
	store i8 %__c.arg, i8* %__c.addr, align 1, !tbaa !4326
	call void @llvm.dbg.declare (metadata i8* %__c.addr, metadata !5258, metadata !4319), !dbg !5244
	%0 = load %struct._ZSt9basic_iosIcSt11char_traitsIcEE*, %struct._ZSt9basic_iosIcSt11char_traitsIcEE** %_T36530264_53551.addr, align 8, !tbaa !4327, !dbg !5259
	%1 = bitcast %struct._ZSt9basic_iosIcSt11char_traitsIcEE*  %0 to i8*, !dbg !5259
	%2 = getelementptr i8, i8*  %1, i64 240, !dbg !5259
	%3 = bitcast i8*  %2 to i8**, !dbg !5259
	%4 = load i8*, i8**  %3, align 8, !tbaa !4327, !dbg !5259
	%5 = bitcast %struct._ZSt5ctypeIcE** %..inline.addr to i8**, !dbg !5259
	store i8*  %4, i8**  %5, align 8, !tbaa !4327, !dbg !5259
	%6 = load %struct._ZSt5ctypeIcE*, %struct._ZSt5ctypeIcE** %..inline.addr, align 8, !tbaa !4327, !dbg !5259
	%7 = bitcast %struct._ZSt5ctypeIcE*  %6 to i8*, !dbg !5259
	%8 = icmp ne i8*  %7,  null, !dbg !5259
	br i1  %8, label %L..inline.76827, label %L.B1696, !dbg !5259
L.B1696:
	call void  @_ZSt16__throw_bad_castv () noreturn, !dbg !5260
	br label %L..inline.76827
L..inline.76827:
	%9 = load %struct._ZSt5ctypeIcE*, %struct._ZSt5ctypeIcE** %..inline.addr, align 8, !tbaa !4327, !dbg !5261
	%10 = bitcast %struct._ZSt5ctypeIcE*  %9 to i8*, !dbg !5261
	%11 = bitcast %struct._ZSt5ctypeIcE** %..inline.addr.1 to i8**, !dbg !5261
	store i8*  %10, i8**  %11, align 8, !tbaa !4327, !dbg !5261
	%12 = load i8, i8* %__c.addr, align 1, !tbaa !4326, !dbg !5259
	store i8  %12, i8* %..inline.addr.2, align 1, !tbaa !4326, !dbg !5259
	%13 = load %struct._ZSt5ctypeIcE*, %struct._ZSt5ctypeIcE** %..inline.addr.1, align 8, !tbaa !4327, !dbg !5259
	%14 = bitcast %struct._ZSt5ctypeIcE*  %13 to i8*, !dbg !5259
	%15 = getelementptr i8, i8*  %14, i64 56, !dbg !5259
	%16 = load i8, i8*  %15, align 1, !tbaa !4326, !dbg !5259
	%17 = sext i8  %16 to i32, !dbg !5259
	%18 = icmp eq i32  %17, 0, !dbg !5259
	br i1  %18, label %L..inline.76833, label %L.B1697, !dbg !5259
L.B1697:
	%19 = bitcast %struct._ZSt5ctypeIcE*  %13 to i8*, !dbg !5262
	%20 = getelementptr i8, i8*  %19, i64 57, !dbg !5262
	%21 = sext i8  %12 to i32, !dbg !5262
	%22 = and i32  %21, 255, !dbg !5262
	%23 = sext i32  %22 to i64, !dbg !5262
	%24 = getelementptr i8, i8*  %20, i64  %23, !dbg !5262
	%25 = load i8, i8*  %24, align 1, !tbaa !4326, !dbg !5262
	store i8  %25, i8* %..inline.addr.3, align 1, !tbaa !4326, !dbg !5262
	br label %L..inline.76837, !dbg !5263
L..inline.76833:
	%26 = load %struct._ZSt5ctypeIcE*, %struct._ZSt5ctypeIcE** %..inline.addr.1, align 8, !tbaa !4327, !dbg !5264
	call void  @_ZNKSt5ctypeIcE13_M_widen_initEv (%struct._ZSt5ctypeIcE*  %26), !dbg !5264
	%27 = load %struct._ZSt5ctypeIcE*, %struct._ZSt5ctypeIcE** %..inline.addr.1, align 8, !tbaa !4327, !dbg !5265
	%28 = load i8, i8* %..inline.addr.2, align 1, !tbaa !4326, !dbg !5265
	%29 = bitcast %struct._ZSt5ctypeIcE*  %27 to i8**, !dbg !5265
	%30 = load i8*, i8**  %29, align 8, !tbaa !4327, !dbg !5265
	%31 = getelementptr i8, i8*  %30, i64 48, !dbg !5265
	%32 = bitcast i8*  %31 to i8 (%struct._ZSt5ctypeIcE*, i8)**, !dbg !5265
	%33 = load i8 (%struct._ZSt5ctypeIcE*, i8)*, i8 (%struct._ZSt5ctypeIcE*, i8)**  %32, align 8, !tbaa !4327, !dbg !5265
	%34 = call i8  %33 (%struct._ZSt5ctypeIcE*  %27, i8  %28), !dbg !5265
	%35 = sext i8  %34 to i32, !dbg !5265
	store i32  %35, i32* %.Q0007.addr, align 4, !tbaa !4544, !dbg !5265
	%36 = shl i32  %35, 24, !dbg !5265
	%37 = ashr i32  %36, 24, !dbg !5265
	%38 = trunc i32  %37 to i8, !dbg !5265
	store i8  %38, i8* %..inline.addr.3, align 1, !tbaa !4326, !dbg !5265
	br label %L..inline.76837
L..inline.76837:
	%39 = load i8, i8* %..inline.addr.3, align 1, !tbaa !4326, !dbg !5266
	ret i8  %39, !dbg !5266
}
define linkonce_odr %struct._ZSo* @_ZNSolsEPFRSoS_E(%struct._ZSo* %_T36530264_53553.arg, %struct._ZSo* (%struct._ZSo*)* %__pf.arg) #0 inlinehint !dbg !5275 {
L.entry:
	%_T36530264_53553.addr = alloca %struct._ZSo*, align 8
	%__pf.addr = alloca %struct._ZSo* (%struct._ZSo*)*, align 8
	%.Q0008.addr = alloca %struct._ZSo*, align 8

	call void @llvm.dbg.declare (metadata %struct._ZSo** %_T36530264_53553.addr, metadata !5279, metadata !4319), !dbg !5276
	store %struct._ZSo* %_T36530264_53553.arg, %struct._ZSo** %_T36530264_53553.addr, align 8, !tbaa !4327
	call void @llvm.dbg.declare (metadata %struct._ZSo** %_T36530264_53553.addr, metadata !5280, metadata !4319), !dbg !5276
	call void @llvm.dbg.declare (metadata %struct._ZSo* (%struct._ZSo*)** %__pf.addr, metadata !5281, metadata !4319), !dbg !5276
	store %struct._ZSo* (%struct._ZSo*)* %__pf.arg, %struct._ZSo* (%struct._ZSo*)** %__pf.addr, align 8, !tbaa !4327
	call void @llvm.dbg.declare (metadata %struct._ZSo* (%struct._ZSo*)** %__pf.addr, metadata !5282, metadata !4319), !dbg !5276
	%0 = load %struct._ZSo*, %struct._ZSo** %_T36530264_53553.addr, align 8, !tbaa !4327, !dbg !5283
	%1 = load %struct._ZSo* (%struct._ZSo*)*, %struct._ZSo* (%struct._ZSo*)** %__pf.addr, align 8, !tbaa !4327, !dbg !5283
	%2 = call %struct._ZSo*  %1 (%struct._ZSo*  %0), !dbg !5283
	%3 = bitcast %struct._ZSo*  %2 to i8*, !dbg !5283
	%4 = bitcast %struct._ZSo** %.Q0008.addr to i8**, !dbg !5283
	store i8*  %3, i8**  %4, align 8, !tbaa !4327, !dbg !5283
	%5 = load %struct._ZSo*, %struct._ZSo** %.Q0008.addr, align 8, !tbaa !4327, !dbg !5283
	ret %struct._ZSo*  %5, !dbg !5283
}
define linkonce_odr %struct._ZSo* @_ZNSolsEj(%struct._ZSo* %_T36530264_53554.arg, i32 zeroext %__n.arg) #0 inlinehint !dbg !5288 {
L.entry:
	%_T36530264_53554.addr = alloca %struct._ZSo*, align 8
	%__n.addr = alloca i32, align 4
	%.Q0009.addr = alloca %struct._ZSo*, align 8

	call void @llvm.dbg.declare (metadata %struct._ZSo** %_T36530264_53554.addr, metadata !5292, metadata !4319), !dbg !5289
	store %struct._ZSo* %_T36530264_53554.arg, %struct._ZSo** %_T36530264_53554.addr, align 8, !tbaa !4327
	call void @llvm.dbg.declare (metadata %struct._ZSo** %_T36530264_53554.addr, metadata !5293, metadata !4319), !dbg !5289
	call void @llvm.dbg.declare (metadata i32* %__n.addr, metadata !5294, metadata !4319), !dbg !5289
	store i32 %__n.arg, i32* %__n.addr, align 4, !tbaa !4326
	call void @llvm.dbg.declare (metadata i32* %__n.addr, metadata !5295, metadata !4319), !dbg !5289
	%0 = load %struct._ZSo*, %struct._ZSo** %_T36530264_53554.addr, align 8, !tbaa !4327, !dbg !5296
	%1 = load i32, i32* %__n.addr, align 4, !tbaa !4544, !dbg !5296
	%2 = zext i32  %1 to i64, !dbg !5296
	%3 = call %struct._ZSo*  @_ZNSo9_M_insertImEERSoT_ (%struct._ZSo*  %0, i64  %2), !dbg !5296
	%4 = bitcast %struct._ZSo*  %3 to i8*, !dbg !5296
	%5 = bitcast %struct._ZSo** %.Q0009.addr to i8**, !dbg !5296
	store i8*  %4, i8**  %5, align 8, !tbaa !4327, !dbg !5296
	%6 = load %struct._ZSo*, %struct._ZSo** %.Q0009.addr, align 8, !tbaa !4327, !dbg !5296
	ret %struct._ZSo*  %6, !dbg !5296
}
define linkonce_odr void @_ZNSt12_Destroy_auxILb1EE9__destroyIPjEEvT_S3_(i32* %_T36530264_53561.arg, i32* %_T36530560_53561.arg) #0 inlinehint !dbg !5303 {
L.entry:
	%_T36530264_53561.addr = alloca i32*, align 8
	%_T36530560_53561.addr = alloca i32*, align 8

	call void @llvm.dbg.declare (metadata i32** %_T36530264_53561.addr, metadata !5307, metadata !4319), !dbg !5304
	store i32* %_T36530264_53561.arg, i32** %_T36530264_53561.addr, align 8, !tbaa !4327
	call void @llvm.dbg.declare (metadata i32** %_T36530264_53561.addr, metadata !5308, metadata !4319), !dbg !5304
	call void @llvm.dbg.declare (metadata i32** %_T36530560_53561.addr, metadata !5309, metadata !4319), !dbg !5304
	store i32* %_T36530560_53561.arg, i32** %_T36530560_53561.addr, align 8, !tbaa !4327
	call void @llvm.dbg.declare (metadata i32** %_T36530560_53561.addr, metadata !5310, metadata !4319), !dbg !5304
	ret void, !dbg !5311
}
define linkonce_odr void @_ZNSt12_Destroy_auxILb1EE9__destroyIPdEEvT_S3_(double* %_T36530264_53564.arg, double* %_T36530560_53564.arg) #0 inlinehint !dbg !5315 {
L.entry:
	%_T36530264_53564.addr = alloca double*, align 8
	%_T36530560_53564.addr = alloca double*, align 8

	call void @llvm.dbg.declare (metadata double** %_T36530264_53564.addr, metadata !5319, metadata !4319), !dbg !5316
	store double* %_T36530264_53564.arg, double** %_T36530264_53564.addr, align 8, !tbaa !4327
	call void @llvm.dbg.declare (metadata double** %_T36530264_53564.addr, metadata !5320, metadata !4319), !dbg !5316
	call void @llvm.dbg.declare (metadata double** %_T36530560_53564.addr, metadata !5321, metadata !4319), !dbg !5316
	store double* %_T36530560_53564.arg, double** %_T36530560_53564.addr, align 8, !tbaa !4327
	call void @llvm.dbg.declare (metadata double** %_T36530560_53564.addr, metadata !5322, metadata !4319), !dbg !5316
	ret void, !dbg !5323
}

%struct._ZN8projects29FluctuationsSpeciesParametersE = type <{ double, double, double, double, double, i32, i32}> 

define linkonce_odr void @_ZNSt12_Destroy_auxILb1EE9__destroyIPN8projects29FluctuationsSpeciesParametersEEEvT_S5_(%struct._ZN8projects29FluctuationsSpeciesParametersE* %_T36530264_53567.arg, %struct._ZN8projects29FluctuationsSpeciesParametersE* %_T36530560_53567.arg) #0 inlinehint !dbg !5327 {
L.entry:
	%_T36530264_53567.addr = alloca %struct._ZN8projects29FluctuationsSpeciesParametersE*, align 8
	%_T36530560_53567.addr = alloca %struct._ZN8projects29FluctuationsSpeciesParametersE*, align 8

	call void @llvm.dbg.declare (metadata %struct._ZN8projects29FluctuationsSpeciesParametersE** %_T36530264_53567.addr, metadata !5331, metadata !4319), !dbg !5328
	store %struct._ZN8projects29FluctuationsSpeciesParametersE* %_T36530264_53567.arg, %struct._ZN8projects29FluctuationsSpeciesParametersE** %_T36530264_53567.addr, align 8, !tbaa !4327
	call void @llvm.dbg.declare (metadata %struct._ZN8projects29FluctuationsSpeciesParametersE** %_T36530264_53567.addr, metadata !5332, metadata !4319), !dbg !5328
	call void @llvm.dbg.declare (metadata %struct._ZN8projects29FluctuationsSpeciesParametersE** %_T36530560_53567.addr, metadata !5333, metadata !4319), !dbg !5328
	store %struct._ZN8projects29FluctuationsSpeciesParametersE* %_T36530560_53567.arg, %struct._ZN8projects29FluctuationsSpeciesParametersE** %_T36530560_53567.addr, align 8, !tbaa !4327
	call void @llvm.dbg.declare (metadata %struct._ZN8projects29FluctuationsSpeciesParametersE** %_T36530560_53567.addr, metadata !5334, metadata !4319), !dbg !5328
	ret void, !dbg !5335
}
define linkonce_odr void @_ZNSt12_Destroy_auxILb1EE9__destroyIPSt5arrayIdLm3EEEEvT_S5_(%struct._ZSt5arrayIdLm3EE* %_T36530264_53570.arg, %struct._ZSt5arrayIdLm3EE* %_T36530560_53570.arg) #0 inlinehint !dbg !5339 {
L.entry:
	%_T36530264_53570.addr = alloca %struct._ZSt5arrayIdLm3EE*, align 8
	%_T36530560_53570.addr = alloca %struct._ZSt5arrayIdLm3EE*, align 8

	call void @llvm.dbg.declare (metadata %struct._ZSt5arrayIdLm3EE** %_T36530264_53570.addr, metadata !5343, metadata !4319), !dbg !5340
	store %struct._ZSt5arrayIdLm3EE* %_T36530264_53570.arg, %struct._ZSt5arrayIdLm3EE** %_T36530264_53570.addr, align 8, !tbaa !4327
	call void @llvm.dbg.declare (metadata %struct._ZSt5arrayIdLm3EE** %_T36530264_53570.addr, metadata !5344, metadata !4319), !dbg !5340
	call void @llvm.dbg.declare (metadata %struct._ZSt5arrayIdLm3EE** %_T36530560_53570.addr, metadata !5345, metadata !4319), !dbg !5340
	store %struct._ZSt5arrayIdLm3EE* %_T36530560_53570.arg, %struct._ZSt5arrayIdLm3EE** %_T36530560_53570.addr, align 8, !tbaa !4327
	call void @llvm.dbg.declare (metadata %struct._ZSt5arrayIdLm3EE** %_T36530560_53570.addr, metadata !5346, metadata !4319), !dbg !5340
	ret void, !dbg !5347
}

%struct._ZSt13move_iteratorIPN8projects29FluctuationsSpeciesParametersEE = type <{ %struct._ZN8projects29FluctuationsSpeciesParametersE*}> 

define linkonce_odr %struct._ZN8projects29FluctuationsSpeciesParametersE* @_ZNSt20__uninitialized_copyILb1EE13__uninit_copyISt13move_iteratorIPN8projects29FluctuationsSpeciesParametersEES5_EET0_T_S8_S7_(i64 %__first.coerce, i64 %__last.coerce, %struct._ZN8projects29FluctuationsSpeciesParametersE* %__result.arg) #0 inlinehint !dbg !5353 {
L.entry:
	%__first.addr = alloca %struct._ZSt13move_iteratorIPN8projects29FluctuationsSpeciesParametersEE, align 8
	%__last.addr = alloca %struct._ZSt13move_iteratorIPN8projects29FluctuationsSpeciesParametersEE, align 8
	%__result.addr = alloca %struct._ZN8projects29FluctuationsSpeciesParametersE*, align 8
	%..inline.addr = alloca %struct._ZN8projects29FluctuationsSpeciesParametersE*, align 8
	%..inline.addr.1 = alloca %struct._ZN8projects29FluctuationsSpeciesParametersE*, align 8
	%..inline.addr.2 = alloca i64, align 8

	call void @llvm.dbg.declare (metadata %struct._ZSt13move_iteratorIPN8projects29FluctuationsSpeciesParametersEE* %__first.addr, metadata !5413, metadata !4319), !dbg !5354
	%0 = bitcast %struct._ZSt13move_iteratorIPN8projects29FluctuationsSpeciesParametersEE* %__first.addr to i64*
	store i64 %__first.coerce, i64*  %0, align 8, !tbaa !4326
	call void @llvm.dbg.declare (metadata %struct._ZSt13move_iteratorIPN8projects29FluctuationsSpeciesParametersEE* %__first.addr, metadata !5414, metadata !4319), !dbg !5354
	call void @llvm.dbg.declare (metadata %struct._ZSt13move_iteratorIPN8projects29FluctuationsSpeciesParametersEE* %__last.addr, metadata !5415, metadata !4319), !dbg !5354
	%1 = bitcast %struct._ZSt13move_iteratorIPN8projects29FluctuationsSpeciesParametersEE* %__last.addr to i64*
	store i64 %__last.coerce, i64*  %1, align 8, !tbaa !4326
	call void @llvm.dbg.declare (metadata %struct._ZSt13move_iteratorIPN8projects29FluctuationsSpeciesParametersEE* %__last.addr, metadata !5416, metadata !4319), !dbg !5354
	call void @llvm.dbg.declare (metadata %struct._ZN8projects29FluctuationsSpeciesParametersE** %__result.addr, metadata !5417, metadata !4319), !dbg !5354
	store %struct._ZN8projects29FluctuationsSpeciesParametersE* %__result.arg, %struct._ZN8projects29FluctuationsSpeciesParametersE** %__result.addr, align 8, !tbaa !4327
	call void @llvm.dbg.declare (metadata %struct._ZN8projects29FluctuationsSpeciesParametersE** %__result.addr, metadata !5418, metadata !4319), !dbg !5354
	%2 = bitcast %struct._ZSt13move_iteratorIPN8projects29FluctuationsSpeciesParametersEE* %__first.addr to i8**, !dbg !5419
	%3 = load i8*, i8**  %2, align 8, !tbaa !4327, !dbg !5419
	%4 = bitcast %struct._ZN8projects29FluctuationsSpeciesParametersE** %..inline.addr to i8**, !dbg !5419
	store i8*  %3, i8**  %4, align 8, !tbaa !4327, !dbg !5419
	%5 = load %struct._ZN8projects29FluctuationsSpeciesParametersE*, %struct._ZN8projects29FluctuationsSpeciesParametersE** %__result.addr, align 8, !tbaa !4327, !dbg !5419
	%6 = bitcast %struct._ZN8projects29FluctuationsSpeciesParametersE*  %5 to i8*, !dbg !5419
	%7 = bitcast %struct._ZN8projects29FluctuationsSpeciesParametersE** %..inline.addr.1 to i8**, !dbg !5419
	store i8*  %6, i8**  %7, align 8, !tbaa !4327, !dbg !5419
	%8 = bitcast %struct._ZSt13move_iteratorIPN8projects29FluctuationsSpeciesParametersEE* %__last.addr to i8**, !dbg !5419
	%9 = load i8*, i8**  %8, align 8, !tbaa !4327, !dbg !5419
	%10 = ptrtoint i8*  %3 to i64, !dbg !5419
	%11 = sub i64 0,  %10, !dbg !5419
	%12 = getelementptr i8, i8*  %9, i64  %11, !dbg !5419
	%13 = ptrtoint i8*  %12 to i64, !dbg !5419
	%14 = sext i64 3074457345618258603 to i128, !dbg !5419
	%15 = sext i64  %13 to i128, !dbg !5419
	%16 = mul i128  %14,  %15, !dbg !5419
	%17 = ashr i128  %16, 64, !dbg !5419
	%18 = trunc i128  %17 to i64, !dbg !5419
	%19 = sext i32 3 to i64, !dbg !5419
	%20 = ashr i64  %18,  %19, !dbg !5419
	%21 = sub i64 0,  %10, !dbg !5419
	%22 = getelementptr i8, i8*  %9, i64  %21, !dbg !5419
	%23 = ptrtoint i8*  %22 to i64, !dbg !5419
	%24 = sext i32 63 to i64, !dbg !5419
	%25 = ashr i64  %23,  %24, !dbg !5419
	%26 = sub i64  %20,  %25, !dbg !5419
	store i64  %26, i64* %..inline.addr.2, align 8, !tbaa !4858, !dbg !5419
	%27 = icmp eq i64  %26, 0, !dbg !5419
	br i1  %27, label %L..inline.76955, label %L.B1700, !dbg !5419
L.B1700:
	%28 = load %struct._ZN8projects29FluctuationsSpeciesParametersE*, %struct._ZN8projects29FluctuationsSpeciesParametersE** %..inline.addr.1, align 8, !tbaa !4327, !dbg !5419
	%29 = bitcast %struct._ZN8projects29FluctuationsSpeciesParametersE*  %28 to i8*, !dbg !5419
	%30 = load %struct._ZN8projects29FluctuationsSpeciesParametersE*, %struct._ZN8projects29FluctuationsSpeciesParametersE** %..inline.addr, align 8, !tbaa !4327, !dbg !5419
	%31 = bitcast %struct._ZN8projects29FluctuationsSpeciesParametersE*  %30 to i8*, !dbg !5419
	%32 = mul i64  %26, 48, !dbg !5419
	%33 = call i8*  @memmove (i8*  %29, i8*  %31, i64  %32) nounwind, !dbg !5419
	br label %L..inline.76955
L..inline.76955:
	%34 = load %struct._ZN8projects29FluctuationsSpeciesParametersE*, %struct._ZN8projects29FluctuationsSpeciesParametersE** %..inline.addr.1, align 8, !tbaa !4327, !dbg !5420
	%35 = bitcast %struct._ZN8projects29FluctuationsSpeciesParametersE*  %34 to i8*, !dbg !5420
	%36 = load i64, i64* %..inline.addr.2, align 8, !tbaa !4858, !dbg !5420
	%37 = mul i64  %36, 48, !dbg !5420
	%38 = getelementptr i8, i8*  %35, i64  %37, !dbg !5420
	%39 = bitcast i8*  %38 to %struct._ZN8projects29FluctuationsSpeciesParametersE*, !dbg !5420
	ret %struct._ZN8projects29FluctuationsSpeciesParametersE*  %39, !dbg !5420
}

%struct._ZSt13move_iteratorIPSt5arrayIdLm3EEE = type <{ %struct._ZSt5arrayIdLm3EE*}> 

define linkonce_odr %struct._ZSt5arrayIdLm3EE* @_ZNSt20__uninitialized_copyILb1EE13__uninit_copyISt13move_iteratorIPSt5arrayIdLm3EEES5_EET0_T_S8_S7_(i64 %__first.coerce, i64 %__last.coerce, %struct._ZSt5arrayIdLm3EE* %__result.arg) #0 inlinehint !dbg !5425 {
L.entry:
	%__first.addr = alloca %struct._ZSt13move_iteratorIPSt5arrayIdLm3EEE, align 8
	%__last.addr = alloca %struct._ZSt13move_iteratorIPSt5arrayIdLm3EEE, align 8
	%__result.addr = alloca %struct._ZSt5arrayIdLm3EE*, align 8
	%..inline.addr = alloca %struct._ZSt5arrayIdLm3EE*, align 8
	%..inline.addr.1 = alloca %struct._ZSt5arrayIdLm3EE*, align 8
	%..inline.addr.2 = alloca i64, align 8

	call void @llvm.dbg.declare (metadata %struct._ZSt13move_iteratorIPSt5arrayIdLm3EEE* %__first.addr, metadata !5485, metadata !4319), !dbg !5426
	%0 = bitcast %struct._ZSt13move_iteratorIPSt5arrayIdLm3EEE* %__first.addr to i64*
	store i64 %__first.coerce, i64*  %0, align 8, !tbaa !4326
	call void @llvm.dbg.declare (metadata %struct._ZSt13move_iteratorIPSt5arrayIdLm3EEE* %__first.addr, metadata !5486, metadata !4319), !dbg !5426
	call void @llvm.dbg.declare (metadata %struct._ZSt13move_iteratorIPSt5arrayIdLm3EEE* %__last.addr, metadata !5487, metadata !4319), !dbg !5426
	%1 = bitcast %struct._ZSt13move_iteratorIPSt5arrayIdLm3EEE* %__last.addr to i64*
	store i64 %__last.coerce, i64*  %1, align 8, !tbaa !4326
	call void @llvm.dbg.declare (metadata %struct._ZSt13move_iteratorIPSt5arrayIdLm3EEE* %__last.addr, metadata !5488, metadata !4319), !dbg !5426
	call void @llvm.dbg.declare (metadata %struct._ZSt5arrayIdLm3EE** %__result.addr, metadata !5489, metadata !4319), !dbg !5426
	store %struct._ZSt5arrayIdLm3EE* %__result.arg, %struct._ZSt5arrayIdLm3EE** %__result.addr, align 8, !tbaa !4327
	call void @llvm.dbg.declare (metadata %struct._ZSt5arrayIdLm3EE** %__result.addr, metadata !5490, metadata !4319), !dbg !5426
	%2 = bitcast %struct._ZSt13move_iteratorIPSt5arrayIdLm3EEE* %__first.addr to i8**, !dbg !5491
	%3 = load i8*, i8**  %2, align 8, !tbaa !4327, !dbg !5491
	%4 = bitcast %struct._ZSt5arrayIdLm3EE** %..inline.addr to i8**, !dbg !5491
	store i8*  %3, i8**  %4, align 8, !tbaa !4327, !dbg !5491
	%5 = load %struct._ZSt5arrayIdLm3EE*, %struct._ZSt5arrayIdLm3EE** %__result.addr, align 8, !tbaa !4327, !dbg !5491
	%6 = bitcast %struct._ZSt5arrayIdLm3EE*  %5 to i8*, !dbg !5491
	%7 = bitcast %struct._ZSt5arrayIdLm3EE** %..inline.addr.1 to i8**, !dbg !5491
	store i8*  %6, i8**  %7, align 8, !tbaa !4327, !dbg !5491
	%8 = bitcast %struct._ZSt13move_iteratorIPSt5arrayIdLm3EEE* %__last.addr to i8**, !dbg !5491
	%9 = load i8*, i8**  %8, align 8, !tbaa !4327, !dbg !5491
	%10 = ptrtoint i8*  %3 to i64, !dbg !5491
	%11 = sub i64 0,  %10, !dbg !5491
	%12 = getelementptr i8, i8*  %9, i64  %11, !dbg !5491
	%13 = ptrtoint i8*  %12 to i64, !dbg !5491
	%14 = sext i64 3074457345618258603 to i128, !dbg !5491
	%15 = sext i64  %13 to i128, !dbg !5491
	%16 = mul i128  %14,  %15, !dbg !5491
	%17 = ashr i128  %16, 64, !dbg !5491
	%18 = trunc i128  %17 to i64, !dbg !5491
	%19 = sext i32 2 to i64, !dbg !5491
	%20 = ashr i64  %18,  %19, !dbg !5491
	%21 = sub i64 0,  %10, !dbg !5491
	%22 = getelementptr i8, i8*  %9, i64  %21, !dbg !5491
	%23 = ptrtoint i8*  %22 to i64, !dbg !5491
	%24 = sext i32 63 to i64, !dbg !5491
	%25 = ashr i64  %23,  %24, !dbg !5491
	%26 = sub i64  %20,  %25, !dbg !5491
	store i64  %26, i64* %..inline.addr.2, align 8, !tbaa !4858, !dbg !5491
	%27 = icmp eq i64  %26, 0, !dbg !5491
	br i1  %27, label %L..inline.77092, label %L.B1703, !dbg !5491
L.B1703:
	%28 = load %struct._ZSt5arrayIdLm3EE*, %struct._ZSt5arrayIdLm3EE** %..inline.addr.1, align 8, !tbaa !4327, !dbg !5491
	%29 = bitcast %struct._ZSt5arrayIdLm3EE*  %28 to i8*, !dbg !5491
	%30 = load %struct._ZSt5arrayIdLm3EE*, %struct._ZSt5arrayIdLm3EE** %..inline.addr, align 8, !tbaa !4327, !dbg !5491
	%31 = bitcast %struct._ZSt5arrayIdLm3EE*  %30 to i8*, !dbg !5491
	%32 = mul i64  %26, 24, !dbg !5491
	%33 = call i8*  @memmove (i8*  %29, i8*  %31, i64  %32) nounwind, !dbg !5491
	br label %L..inline.77092
L..inline.77092:
	%34 = load %struct._ZSt5arrayIdLm3EE*, %struct._ZSt5arrayIdLm3EE** %..inline.addr.1, align 8, !tbaa !4327, !dbg !5492
	%35 = bitcast %struct._ZSt5arrayIdLm3EE*  %34 to i8*, !dbg !5492
	%36 = load i64, i64* %..inline.addr.2, align 8, !tbaa !4858, !dbg !5492
	%37 = mul i64  %36, 24, !dbg !5492
	%38 = getelementptr i8, i8*  %35, i64  %37, !dbg !5492
	%39 = bitcast i8*  %38 to %struct._ZSt5arrayIdLm3EE*, !dbg !5492
	ret %struct._ZSt5arrayIdLm3EE*  %39, !dbg !5492
}

%struct._ZSaIjE = type <{ [1 x i8]}> 

define linkonce_odr void @_ZNSaIjED1Ev(%struct._ZSaIjE* %_T36530264_53577.arg) #0 inlinehint !dbg !5501 {
L.entry:
	%_T36530264_53577.addr = alloca %struct._ZSaIjE*, align 8

	call void @llvm.dbg.declare (metadata %struct._ZSaIjE** %_T36530264_53577.addr, metadata !5505, metadata !4319), !dbg !5502
	store %struct._ZSaIjE* %_T36530264_53577.arg, %struct._ZSaIjE** %_T36530264_53577.addr, align 8, !tbaa !4327
	call void @llvm.dbg.declare (metadata %struct._ZSaIjE** %_T36530264_53577.addr, metadata !5506, metadata !4319), !dbg !5502
	ret void, !dbg !5507
}
define linkonce_odr void @_ZNSaIjED2Ev(%struct._ZSaIjE* %_T36530264_53578.arg) #0 inlinehint !dbg !5509 {
L.entry:
	%_T36530264_53578.addr = alloca %struct._ZSaIjE*, align 8

	store %struct._ZSaIjE* %_T36530264_53578.arg, %struct._ZSaIjE** %_T36530264_53578.addr, align 8, !tbaa !4327
	ret void, !dbg !5517
}
define linkonce_odr void @_ZNSt16allocator_traitsISaIjEE10deallocateERS0_Pjm(%struct._ZSaIjE* %__a.arg, i32* %__p.arg, i64 %__n.arg) #0 inlinehint !dbg !5525 {
L.entry:
	%__a.addr = alloca %struct._ZSaIjE*, align 8
	%__p.addr = alloca i32*, align 8
	%__n.addr = alloca i64, align 8
	%..inline.addr = alloca i32*, align 8

	call void @llvm.dbg.declare (metadata %struct._ZSaIjE** %__a.addr, metadata !5533, metadata !4319), !dbg !5526
	store %struct._ZSaIjE* %__a.arg, %struct._ZSaIjE** %__a.addr, align 8, !tbaa !4327
	call void @llvm.dbg.declare (metadata %struct._ZSaIjE** %__a.addr, metadata !5534, metadata !4319), !dbg !5526
	call void @llvm.dbg.declare (metadata i32** %__p.addr, metadata !5535, metadata !4319), !dbg !5526
	store i32* %__p.arg, i32** %__p.addr, align 8, !tbaa !4327
	call void @llvm.dbg.declare (metadata i32** %__p.addr, metadata !5536, metadata !4319), !dbg !5526
	call void @llvm.dbg.declare (metadata i64* %__n.addr, metadata !5537, metadata !4319), !dbg !5526
	store i64 %__n.arg, i64* %__n.addr, align 8, !tbaa !4326
	call void @llvm.dbg.declare (metadata i64* %__n.addr, metadata !5538, metadata !4319), !dbg !5526
	%0 = load i32*, i32** %__p.addr, align 8, !tbaa !4327, !dbg !5539
	%1 = bitcast i32*  %0 to i8*, !dbg !5539
	%2 = bitcast i32** %..inline.addr to i8**, !dbg !5539
	store i8*  %1, i8**  %2, align 8, !tbaa !4327, !dbg !5539
	%3 = load i32*, i32** %..inline.addr, align 8, !tbaa !4327, !dbg !5540
	%4 = bitcast i32*  %3 to i8*, !dbg !5540
	call void  @_ZdlPv (i8*  %4) nounwind, !dbg !5540
	ret void, !dbg !5539
}

%struct._ZNSt12_Vector_baseIjSaIjEE12_Vector_implE = type <{ %struct._ZNSt12_Vector_baseIjSaIjEE17_Vector_impl_dataE}> 
%struct._ZNSt12_Vector_baseIjSaIjEE17_Vector_impl_dataE = type <{ i32*, i32*, i32*}> 
%struct._ZSt12_Vector_baseIjSaIjEE = type <{ %struct._ZNSt12_Vector_baseIjSaIjEE12_Vector_implE}> 

define linkonce_odr %struct._ZSaIjE* @_ZNSt12_Vector_baseIjSaIjEE19_M_get_Tp_allocatorEv(%struct._ZSt12_Vector_baseIjSaIjEE* %_T36530264_53584.arg) #0 inlinehint !dbg !5548 {
L.entry:
	%_T36530264_53584.addr = alloca %struct._ZSt12_Vector_baseIjSaIjEE*, align 8

	call void @llvm.dbg.declare (metadata %struct._ZSt12_Vector_baseIjSaIjEE** %_T36530264_53584.addr, metadata !5552, metadata !4319), !dbg !5549
	store %struct._ZSt12_Vector_baseIjSaIjEE* %_T36530264_53584.arg, %struct._ZSt12_Vector_baseIjSaIjEE** %_T36530264_53584.addr, align 8, !tbaa !4327
	call void @llvm.dbg.declare (metadata %struct._ZSt12_Vector_baseIjSaIjEE** %_T36530264_53584.addr, metadata !5553, metadata !4319), !dbg !5549
	%0 = load %struct._ZSt12_Vector_baseIjSaIjEE*, %struct._ZSt12_Vector_baseIjSaIjEE** %_T36530264_53584.addr, align 8, !tbaa !4327, !dbg !5554
	%1 = bitcast %struct._ZSt12_Vector_baseIjSaIjEE*  %0 to %struct._ZSaIjE*, !dbg !5554
	ret %struct._ZSaIjE*  %1, !dbg !5554
}
define linkonce_odr void @_ZNSt12_Vector_baseIjSaIjEED1Ev(%struct._ZSt12_Vector_baseIjSaIjEE* %_T36530264_53585.arg) #0 inlinehint !dbg !5558 {
L.entry:
	%_T36530264_53585.addr = alloca %struct._ZSt12_Vector_baseIjSaIjEE*, align 8
	%..inline.addr = alloca i32*, align 8

	call void @llvm.dbg.declare (metadata %struct._ZSt12_Vector_baseIjSaIjEE** %_T36530264_53585.addr, metadata !5586, metadata !4319), !dbg !5559
	store %struct._ZSt12_Vector_baseIjSaIjEE* %_T36530264_53585.arg, %struct._ZSt12_Vector_baseIjSaIjEE** %_T36530264_53585.addr, align 8, !tbaa !4327
	call void @llvm.dbg.declare (metadata %struct._ZSt12_Vector_baseIjSaIjEE** %_T36530264_53585.addr, metadata !5587, metadata !4319), !dbg !5559
	%0 = load %struct._ZSt12_Vector_baseIjSaIjEE*, %struct._ZSt12_Vector_baseIjSaIjEE** %_T36530264_53585.addr, align 8, !tbaa !4327, !dbg !5588
	%1 = bitcast %struct._ZSt12_Vector_baseIjSaIjEE*  %0 to i8**, !dbg !5588
	%2 = load i8*, i8**  %1, align 8, !tbaa !4327, !dbg !5588
	%3 = icmp eq i8*  %2,  null, !dbg !5588
	br i1  %3, label %L..inline.77176, label %L.B1712, !dbg !5588
L.B1712:
	%4 = bitcast %struct._ZSt12_Vector_baseIjSaIjEE*  %0 to i8**, !dbg !5589
	%5 = load i8*, i8**  %4, align 8, !tbaa !4327, !dbg !5589
	%6 = bitcast i32** %..inline.addr to i8**, !dbg !5589
	store i8*  %5, i8**  %6, align 8, !tbaa !4327, !dbg !5589
	%7 = load i32*, i32** %..inline.addr, align 8, !tbaa !4327, !dbg !5589
	%8 = bitcast i32*  %7 to i8*, !dbg !5589
	call void  @_ZdlPv (i8*  %8) nounwind, !dbg !5589
	br label %L..inline.77176
L..inline.77176:
	ret void, !dbg !5590
}
define linkonce_odr void @_ZNSt12_Vector_baseIjSaIjEED2Ev(%struct._ZSt12_Vector_baseIjSaIjEE* %_T36530264_53586.arg) #0 inlinehint !dbg !5592 {
L.entry:
	%_T36530264_53586.addr = alloca %struct._ZSt12_Vector_baseIjSaIjEE*, align 8
	%..inline.addr = alloca %struct._ZSt12_Vector_baseIjSaIjEE*, align 8
	%..inline.addr.1 = alloca i32*, align 8

	store %struct._ZSt12_Vector_baseIjSaIjEE* %_T36530264_53586.arg, %struct._ZSt12_Vector_baseIjSaIjEE** %_T36530264_53586.addr, align 8, !tbaa !4327
	%0 = load %struct._ZSt12_Vector_baseIjSaIjEE*, %struct._ZSt12_Vector_baseIjSaIjEE** %_T36530264_53586.addr, align 8, !tbaa !4327, !dbg !5624
	%1 = bitcast %struct._ZSt12_Vector_baseIjSaIjEE*  %0 to i8*, !dbg !5624
	%2 = bitcast %struct._ZSt12_Vector_baseIjSaIjEE** %..inline.addr to i8**, !dbg !5624
	store i8*  %1, i8**  %2, align 8, !tbaa !4327, !dbg !5624
	%3 = load %struct._ZSt12_Vector_baseIjSaIjEE*, %struct._ZSt12_Vector_baseIjSaIjEE** %..inline.addr, align 8, !tbaa !4327, !dbg !5624
	%4 = bitcast %struct._ZSt12_Vector_baseIjSaIjEE*  %3 to i8**, !dbg !5624
	%5 = load i8*, i8**  %4, align 8, !tbaa !4327, !dbg !5624
	%6 = icmp eq i8*  %5,  null, !dbg !5624
	br i1  %6, label %L..inline.77235, label %L.B1715, !dbg !5624
L.B1715:
	%7 = bitcast %struct._ZSt12_Vector_baseIjSaIjEE*  %3 to i8**, !dbg !5624
	%8 = load i8*, i8**  %7, align 8, !tbaa !4327, !dbg !5624
	%9 = bitcast i32** %..inline.addr.1 to i8**, !dbg !5624
	store i8*  %8, i8**  %9, align 8, !tbaa !4327, !dbg !5624
	%10 = load i32*, i32** %..inline.addr.1, align 8, !tbaa !4327, !dbg !5624
	%11 = bitcast i32*  %10 to i8*, !dbg !5624
	call void  @_ZdlPv (i8*  %11) nounwind, !dbg !5624
	br label %L..inline.77235
L..inline.77235:
	ret void, !dbg !5625
}
define linkonce_odr void @_ZNSt12_Vector_baseIjSaIjEE13_M_deallocateEPjm(%struct._ZSt12_Vector_baseIjSaIjEE* %_T36530264_53589.arg, i32* %__p.arg, i64 %__n.arg) #0 inlinehint !dbg !5629 {
L.entry:
	%_T36530264_53589.addr = alloca %struct._ZSt12_Vector_baseIjSaIjEE*, align 8
	%__p.addr = alloca i32*, align 8
	%__n.addr = alloca i64, align 8
	%..inline.addr = alloca i32*, align 8

	call void @llvm.dbg.declare (metadata %struct._ZSt12_Vector_baseIjSaIjEE** %_T36530264_53589.addr, metadata !5641, metadata !4319), !dbg !5630
	store %struct._ZSt12_Vector_baseIjSaIjEE* %_T36530264_53589.arg, %struct._ZSt12_Vector_baseIjSaIjEE** %_T36530264_53589.addr, align 8, !tbaa !4327
	call void @llvm.dbg.declare (metadata %struct._ZSt12_Vector_baseIjSaIjEE** %_T36530264_53589.addr, metadata !5642, metadata !4319), !dbg !5630
	call void @llvm.dbg.declare (metadata i32** %__p.addr, metadata !5643, metadata !4319), !dbg !5630
	store i32* %__p.arg, i32** %__p.addr, align 8, !tbaa !4327
	call void @llvm.dbg.declare (metadata i32** %__p.addr, metadata !5644, metadata !4319), !dbg !5630
	call void @llvm.dbg.declare (metadata i64* %__n.addr, metadata !5645, metadata !4319), !dbg !5630
	store i64 %__n.arg, i64* %__n.addr, align 8, !tbaa !4326
	call void @llvm.dbg.declare (metadata i64* %__n.addr, metadata !5646, metadata !4319), !dbg !5630
	%0 = load i32*, i32** %__p.addr, align 8, !tbaa !4327, !dbg !5647
	%1 = bitcast i32*  %0 to i8*, !dbg !5647
	%2 = icmp eq i8*  %1,  null, !dbg !5647
	br i1  %2, label %L.B0019, label %L.B1718, !dbg !5647
L.B1718:
	%3 = bitcast i32*  %0 to i8*, !dbg !5648
	%4 = bitcast i32** %..inline.addr to i8**, !dbg !5648
	store i8*  %3, i8**  %4, align 8, !tbaa !4327, !dbg !5648
	%5 = load i32*, i32** %..inline.addr, align 8, !tbaa !4327, !dbg !5648
	%6 = bitcast i32*  %5 to i8*, !dbg !5648
	call void  @_ZdlPv (i8*  %6) nounwind, !dbg !5648
	br label %L.B0019
L.B0019:
	ret void, !dbg !5649
}
define linkonce_odr void @_ZNSt12_Vector_baseIjSaIjEE12_Vector_implD1Ev(%struct._ZNSt12_Vector_baseIjSaIjEE12_Vector_implE* %_T36530264_53590.arg) #0 inlinehint !dbg !5654 {
L.entry:
	%_T36530264_53590.addr = alloca %struct._ZNSt12_Vector_baseIjSaIjEE12_Vector_implE*, align 8

	call void @llvm.dbg.declare (metadata %struct._ZNSt12_Vector_baseIjSaIjEE12_Vector_implE** %_T36530264_53590.addr, metadata !5666, metadata !4319), !dbg !5655
	store %struct._ZNSt12_Vector_baseIjSaIjEE12_Vector_implE* %_T36530264_53590.arg, %struct._ZNSt12_Vector_baseIjSaIjEE12_Vector_implE** %_T36530264_53590.addr, align 8, !tbaa !4327
	call void @llvm.dbg.declare (metadata %struct._ZNSt12_Vector_baseIjSaIjEE12_Vector_implE** %_T36530264_53590.addr, metadata !5667, metadata !4319), !dbg !5655
	ret void, !dbg !5668
}
define linkonce_odr void @_ZNSt12_Vector_baseIjSaIjEE12_Vector_implD2Ev(%struct._ZNSt12_Vector_baseIjSaIjEE12_Vector_implE* %_T36530264_53591.arg) #0 inlinehint !dbg !5670 {
L.entry:
	%_T36530264_53591.addr = alloca %struct._ZNSt12_Vector_baseIjSaIjEE12_Vector_implE*, align 8

	store %struct._ZNSt12_Vector_baseIjSaIjEE12_Vector_implE* %_T36530264_53591.arg, %struct._ZNSt12_Vector_baseIjSaIjEE12_Vector_implE** %_T36530264_53591.addr, align 8, !tbaa !4327
	ret void, !dbg !5686
}

%struct._ZSt6vectorIjSaIjEE = type <{ %struct._ZSt12_Vector_baseIjSaIjEE}> 

define linkonce_odr void @_ZNSt6vectorIjSaIjEED1Ev(%struct._ZSt6vectorIjSaIjEE* %_T36530264_53592.arg) #0 inlinehint !dbg !5690 {
L.entry:
	%_T36530264_53592.addr = alloca %struct._ZSt6vectorIjSaIjEE*, align 8
	%..inline.addr = alloca %struct._ZSt12_Vector_baseIjSaIjEE*, align 8
	%..inline.addr.1 = alloca i32*, align 8

	call void @llvm.dbg.declare (metadata %struct._ZSt6vectorIjSaIjEE** %_T36530264_53592.addr, metadata !5742, metadata !4319), !dbg !5691
	store %struct._ZSt6vectorIjSaIjEE* %_T36530264_53592.arg, %struct._ZSt6vectorIjSaIjEE** %_T36530264_53592.addr, align 8, !tbaa !4327
	call void @llvm.dbg.declare (metadata %struct._ZSt6vectorIjSaIjEE** %_T36530264_53592.addr, metadata !5743, metadata !4319), !dbg !5691
	%0 = load %struct._ZSt6vectorIjSaIjEE*, %struct._ZSt6vectorIjSaIjEE** %_T36530264_53592.addr, align 8, !tbaa !4327, !dbg !5744
	%1 = bitcast %struct._ZSt6vectorIjSaIjEE*  %0 to i8*, !dbg !5744
	%2 = bitcast %struct._ZSt12_Vector_baseIjSaIjEE** %..inline.addr to i8**, !dbg !5744
	store i8*  %1, i8**  %2, align 8, !tbaa !4327, !dbg !5744
	%3 = load %struct._ZSt12_Vector_baseIjSaIjEE*, %struct._ZSt12_Vector_baseIjSaIjEE** %..inline.addr, align 8, !tbaa !4327, !dbg !5745
	%4 = bitcast %struct._ZSt12_Vector_baseIjSaIjEE*  %3 to i8**, !dbg !5745
	%5 = load i8*, i8**  %4, align 8, !tbaa !4327, !dbg !5745
	%6 = icmp eq i8*  %5,  null, !dbg !5745
	br i1  %6, label %L..inline.77386, label %L.B1729, !dbg !5745
L.B1729:
	%7 = bitcast %struct._ZSt12_Vector_baseIjSaIjEE*  %3 to i8**, !dbg !5745
	%8 = load i8*, i8**  %7, align 8, !tbaa !4327, !dbg !5745
	%9 = bitcast i32** %..inline.addr.1 to i8**, !dbg !5745
	store i8*  %8, i8**  %9, align 8, !tbaa !4327, !dbg !5745
	%10 = load i32*, i32** %..inline.addr.1, align 8, !tbaa !4327, !dbg !5745
	%11 = bitcast i32*  %10 to i8*, !dbg !5745
	call void  @_ZdlPv (i8*  %11) nounwind, !dbg !5745
	br label %L..inline.77386
L..inline.77386:
	ret void, !dbg !5744
}
define linkonce_odr void @_ZNSt6vectorIjSaIjEED2Ev(%struct._ZSt6vectorIjSaIjEE* %_T36530264_53593.arg) #0 inlinehint !dbg !5747 {
L.entry:
	%_T36530264_53593.addr = alloca %struct._ZSt6vectorIjSaIjEE*, align 8
	%..inline.addr = alloca %struct._ZSt12_Vector_baseIjSaIjEE*, align 8
	%..inline.addr.1 = alloca i32*, align 8

	store %struct._ZSt6vectorIjSaIjEE* %_T36530264_53593.arg, %struct._ZSt6vectorIjSaIjEE** %_T36530264_53593.addr, align 8, !tbaa !4327
	%0 = load %struct._ZSt6vectorIjSaIjEE*, %struct._ZSt6vectorIjSaIjEE** %_T36530264_53593.addr, align 8, !tbaa !4327, !dbg !5803
	%1 = bitcast %struct._ZSt6vectorIjSaIjEE*  %0 to i8*, !dbg !5803
	%2 = bitcast %struct._ZSt12_Vector_baseIjSaIjEE** %..inline.addr to i8**, !dbg !5803
	store i8*  %1, i8**  %2, align 8, !tbaa !4327, !dbg !5803
	%3 = load %struct._ZSt12_Vector_baseIjSaIjEE*, %struct._ZSt12_Vector_baseIjSaIjEE** %..inline.addr, align 8, !tbaa !4327, !dbg !5803
	%4 = bitcast %struct._ZSt12_Vector_baseIjSaIjEE*  %3 to i8**, !dbg !5803
	%5 = load i8*, i8**  %4, align 8, !tbaa !4327, !dbg !5803
	%6 = icmp eq i8*  %5,  null, !dbg !5803
	br i1  %6, label %L..inline.77490, label %L.B1732, !dbg !5803
L.B1732:
	%7 = bitcast %struct._ZSt12_Vector_baseIjSaIjEE*  %3 to i8**, !dbg !5803
	%8 = load i8*, i8**  %7, align 8, !tbaa !4327, !dbg !5803
	%9 = bitcast i32** %..inline.addr.1 to i8**, !dbg !5803
	store i8*  %8, i8**  %9, align 8, !tbaa !4327, !dbg !5803
	%10 = load i32*, i32** %..inline.addr.1, align 8, !tbaa !4327, !dbg !5803
	%11 = bitcast i32*  %10 to i8*, !dbg !5803
	call void  @_ZdlPv (i8*  %11) nounwind, !dbg !5803
	br label %L..inline.77490
L..inline.77490:
	ret void, !dbg !5803
}

%struct._ZSaIdE = type <{ [1 x i8]}> 

define linkonce_odr void @_ZNSaIdED1Ev(%struct._ZSaIdE* %_T36530264_53594.arg) #0 inlinehint !dbg !5811 {
L.entry:
	%_T36530264_53594.addr = alloca %struct._ZSaIdE*, align 8

	call void @llvm.dbg.declare (metadata %struct._ZSaIdE** %_T36530264_53594.addr, metadata !5815, metadata !4319), !dbg !5812
	store %struct._ZSaIdE* %_T36530264_53594.arg, %struct._ZSaIdE** %_T36530264_53594.addr, align 8, !tbaa !4327
	call void @llvm.dbg.declare (metadata %struct._ZSaIdE** %_T36530264_53594.addr, metadata !5816, metadata !4319), !dbg !5812
	ret void, !dbg !5817
}
define linkonce_odr void @_ZNSaIdED2Ev(%struct._ZSaIdE* %_T36530264_53595.arg) #0 inlinehint !dbg !5819 {
L.entry:
	%_T36530264_53595.addr = alloca %struct._ZSaIdE*, align 8

	store %struct._ZSaIdE* %_T36530264_53595.arg, %struct._ZSaIdE** %_T36530264_53595.addr, align 8, !tbaa !4327
	ret void, !dbg !5827
}
define linkonce_odr void @_ZNSt16allocator_traitsISaIdEE10deallocateERS0_Pdm(%struct._ZSaIdE* %__a.arg, double* %__p.arg, i64 %__n.arg) #0 inlinehint !dbg !5835 {
L.entry:
	%__a.addr = alloca %struct._ZSaIdE*, align 8
	%__p.addr = alloca double*, align 8
	%__n.addr = alloca i64, align 8
	%..inline.addr = alloca double*, align 8

	call void @llvm.dbg.declare (metadata %struct._ZSaIdE** %__a.addr, metadata !5843, metadata !4319), !dbg !5836
	store %struct._ZSaIdE* %__a.arg, %struct._ZSaIdE** %__a.addr, align 8, !tbaa !4327
	call void @llvm.dbg.declare (metadata %struct._ZSaIdE** %__a.addr, metadata !5844, metadata !4319), !dbg !5836
	call void @llvm.dbg.declare (metadata double** %__p.addr, metadata !5845, metadata !4319), !dbg !5836
	store double* %__p.arg, double** %__p.addr, align 8, !tbaa !4327
	call void @llvm.dbg.declare (metadata double** %__p.addr, metadata !5846, metadata !4319), !dbg !5836
	call void @llvm.dbg.declare (metadata i64* %__n.addr, metadata !5847, metadata !4319), !dbg !5836
	store i64 %__n.arg, i64* %__n.addr, align 8, !tbaa !4326
	call void @llvm.dbg.declare (metadata i64* %__n.addr, metadata !5848, metadata !4319), !dbg !5836
	%0 = load double*, double** %__p.addr, align 8, !tbaa !4327, !dbg !5849
	%1 = bitcast double*  %0 to i8*, !dbg !5849
	%2 = bitcast double** %..inline.addr to i8**, !dbg !5849
	store i8*  %1, i8**  %2, align 8, !tbaa !4327, !dbg !5849
	%3 = load double*, double** %..inline.addr, align 8, !tbaa !4327, !dbg !5850
	%4 = bitcast double*  %3 to i8*, !dbg !5850
	call void  @_ZdlPv (i8*  %4) nounwind, !dbg !5850
	ret void, !dbg !5849
}

%struct._ZSt12_Vector_baseIdSaIdEE = type <{ %struct._ZNSt12_Vector_baseIdSaIdEE12_Vector_implE}> 
%struct._ZNSt12_Vector_baseIdSaIdEE12_Vector_implE = type <{ %struct._ZNSt12_Vector_baseIdSaIdEE17_Vector_impl_dataE}> 
%struct._ZNSt12_Vector_baseIdSaIdEE17_Vector_impl_dataE = type <{ double*, double*, double*}> 

define linkonce_odr %struct._ZSaIdE* @_ZNSt12_Vector_baseIdSaIdEE19_M_get_Tp_allocatorEv(%struct._ZSt12_Vector_baseIdSaIdEE* %_T36530264_53601.arg) #0 inlinehint !dbg !5856 {
L.entry:
	%_T36530264_53601.addr = alloca %struct._ZSt12_Vector_baseIdSaIdEE*, align 8

	call void @llvm.dbg.declare (metadata %struct._ZSt12_Vector_baseIdSaIdEE** %_T36530264_53601.addr, metadata !5860, metadata !4319), !dbg !5857
	store %struct._ZSt12_Vector_baseIdSaIdEE* %_T36530264_53601.arg, %struct._ZSt12_Vector_baseIdSaIdEE** %_T36530264_53601.addr, align 8, !tbaa !4327
	call void @llvm.dbg.declare (metadata %struct._ZSt12_Vector_baseIdSaIdEE** %_T36530264_53601.addr, metadata !5861, metadata !4319), !dbg !5857
	%0 = load %struct._ZSt12_Vector_baseIdSaIdEE*, %struct._ZSt12_Vector_baseIdSaIdEE** %_T36530264_53601.addr, align 8, !tbaa !4327, !dbg !5862
	%1 = bitcast %struct._ZSt12_Vector_baseIdSaIdEE*  %0 to %struct._ZSaIdE*, !dbg !5862
	ret %struct._ZSaIdE*  %1, !dbg !5862
}
define linkonce_odr void @_ZNSt12_Vector_baseIdSaIdEED1Ev(%struct._ZSt12_Vector_baseIdSaIdEE* %_T36530264_53602.arg) #0 inlinehint !dbg !5866 {
L.entry:
	%_T36530264_53602.addr = alloca %struct._ZSt12_Vector_baseIdSaIdEE*, align 8
	%..inline.addr = alloca double*, align 8

	call void @llvm.dbg.declare (metadata %struct._ZSt12_Vector_baseIdSaIdEE** %_T36530264_53602.addr, metadata !5894, metadata !4319), !dbg !5867
	store %struct._ZSt12_Vector_baseIdSaIdEE* %_T36530264_53602.arg, %struct._ZSt12_Vector_baseIdSaIdEE** %_T36530264_53602.addr, align 8, !tbaa !4327
	call void @llvm.dbg.declare (metadata %struct._ZSt12_Vector_baseIdSaIdEE** %_T36530264_53602.addr, metadata !5895, metadata !4319), !dbg !5867
	%0 = load %struct._ZSt12_Vector_baseIdSaIdEE*, %struct._ZSt12_Vector_baseIdSaIdEE** %_T36530264_53602.addr, align 8, !tbaa !4327, !dbg !5896
	%1 = bitcast %struct._ZSt12_Vector_baseIdSaIdEE*  %0 to i8**, !dbg !5896
	%2 = load i8*, i8**  %1, align 8, !tbaa !4327, !dbg !5896
	%3 = icmp eq i8*  %2,  null, !dbg !5896
	br i1  %3, label %L..inline.77586, label %L.B1741, !dbg !5896
L.B1741:
	%4 = bitcast %struct._ZSt12_Vector_baseIdSaIdEE*  %0 to i8**, !dbg !5897
	%5 = load i8*, i8**  %4, align 8, !tbaa !4327, !dbg !5897
	%6 = bitcast double** %..inline.addr to i8**, !dbg !5897
	store i8*  %5, i8**  %6, align 8, !tbaa !4327, !dbg !5897
	%7 = load double*, double** %..inline.addr, align 8, !tbaa !4327, !dbg !5897
	%8 = bitcast double*  %7 to i8*, !dbg !5897
	call void  @_ZdlPv (i8*  %8) nounwind, !dbg !5897
	br label %L..inline.77586
L..inline.77586:
	ret void, !dbg !5898
}
define linkonce_odr void @_ZNSt12_Vector_baseIdSaIdEED2Ev(%struct._ZSt12_Vector_baseIdSaIdEE* %_T36530264_53603.arg) #0 inlinehint !dbg !5900 {
L.entry:
	%_T36530264_53603.addr = alloca %struct._ZSt12_Vector_baseIdSaIdEE*, align 8
	%..inline.addr = alloca %struct._ZSt12_Vector_baseIdSaIdEE*, align 8
	%..inline.addr.1 = alloca double*, align 8

	store %struct._ZSt12_Vector_baseIdSaIdEE* %_T36530264_53603.arg, %struct._ZSt12_Vector_baseIdSaIdEE** %_T36530264_53603.addr, align 8, !tbaa !4327
	%0 = load %struct._ZSt12_Vector_baseIdSaIdEE*, %struct._ZSt12_Vector_baseIdSaIdEE** %_T36530264_53603.addr, align 8, !tbaa !4327, !dbg !5932
	%1 = bitcast %struct._ZSt12_Vector_baseIdSaIdEE*  %0 to i8*, !dbg !5932
	%2 = bitcast %struct._ZSt12_Vector_baseIdSaIdEE** %..inline.addr to i8**, !dbg !5932
	store i8*  %1, i8**  %2, align 8, !tbaa !4327, !dbg !5932
	%3 = load %struct._ZSt12_Vector_baseIdSaIdEE*, %struct._ZSt12_Vector_baseIdSaIdEE** %..inline.addr, align 8, !tbaa !4327, !dbg !5932
	%4 = bitcast %struct._ZSt12_Vector_baseIdSaIdEE*  %3 to i8**, !dbg !5932
	%5 = load i8*, i8**  %4, align 8, !tbaa !4327, !dbg !5932
	%6 = icmp eq i8*  %5,  null, !dbg !5932
	br i1  %6, label %L..inline.77646, label %L.B1744, !dbg !5932
L.B1744:
	%7 = bitcast %struct._ZSt12_Vector_baseIdSaIdEE*  %3 to i8**, !dbg !5932
	%8 = load i8*, i8**  %7, align 8, !tbaa !4327, !dbg !5932
	%9 = bitcast double** %..inline.addr.1 to i8**, !dbg !5932
	store i8*  %8, i8**  %9, align 8, !tbaa !4327, !dbg !5932
	%10 = load double*, double** %..inline.addr.1, align 8, !tbaa !4327, !dbg !5932
	%11 = bitcast double*  %10 to i8*, !dbg !5932
	call void  @_ZdlPv (i8*  %11) nounwind, !dbg !5932
	br label %L..inline.77646
L..inline.77646:
	ret void, !dbg !5933
}
define linkonce_odr void @_ZNSt12_Vector_baseIdSaIdEE13_M_deallocateEPdm(%struct._ZSt12_Vector_baseIdSaIdEE* %_T36530264_53606.arg, double* %__p.arg, i64 %__n.arg) #0 inlinehint !dbg !5937 {
L.entry:
	%_T36530264_53606.addr = alloca %struct._ZSt12_Vector_baseIdSaIdEE*, align 8
	%__p.addr = alloca double*, align 8
	%__n.addr = alloca i64, align 8
	%..inline.addr = alloca double*, align 8

	call void @llvm.dbg.declare (metadata %struct._ZSt12_Vector_baseIdSaIdEE** %_T36530264_53606.addr, metadata !5949, metadata !4319), !dbg !5938
	store %struct._ZSt12_Vector_baseIdSaIdEE* %_T36530264_53606.arg, %struct._ZSt12_Vector_baseIdSaIdEE** %_T36530264_53606.addr, align 8, !tbaa !4327
	call void @llvm.dbg.declare (metadata %struct._ZSt12_Vector_baseIdSaIdEE** %_T36530264_53606.addr, metadata !5950, metadata !4319), !dbg !5938
	call void @llvm.dbg.declare (metadata double** %__p.addr, metadata !5951, metadata !4319), !dbg !5938
	store double* %__p.arg, double** %__p.addr, align 8, !tbaa !4327
	call void @llvm.dbg.declare (metadata double** %__p.addr, metadata !5952, metadata !4319), !dbg !5938
	call void @llvm.dbg.declare (metadata i64* %__n.addr, metadata !5953, metadata !4319), !dbg !5938
	store i64 %__n.arg, i64* %__n.addr, align 8, !tbaa !4326
	call void @llvm.dbg.declare (metadata i64* %__n.addr, metadata !5954, metadata !4319), !dbg !5938
	%0 = load double*, double** %__p.addr, align 8, !tbaa !4327, !dbg !5955
	%1 = bitcast double*  %0 to i8*, !dbg !5955
	%2 = icmp eq i8*  %1,  null, !dbg !5955
	br i1  %2, label %L.B0020, label %L.B1747, !dbg !5955
L.B1747:
	%3 = bitcast double*  %0 to i8*, !dbg !5956
	%4 = bitcast double** %..inline.addr to i8**, !dbg !5956
	store i8*  %3, i8**  %4, align 8, !tbaa !4327, !dbg !5956
	%5 = load double*, double** %..inline.addr, align 8, !tbaa !4327, !dbg !5956
	%6 = bitcast double*  %5 to i8*, !dbg !5956
	call void  @_ZdlPv (i8*  %6) nounwind, !dbg !5956
	br label %L.B0020
L.B0020:
	ret void, !dbg !5957
}
define linkonce_odr void @_ZNSt12_Vector_baseIdSaIdEE12_Vector_implD1Ev(%struct._ZNSt12_Vector_baseIdSaIdEE12_Vector_implE* %_T36530264_53607.arg) #0 inlinehint !dbg !5962 {
L.entry:
	%_T36530264_53607.addr = alloca %struct._ZNSt12_Vector_baseIdSaIdEE12_Vector_implE*, align 8

	call void @llvm.dbg.declare (metadata %struct._ZNSt12_Vector_baseIdSaIdEE12_Vector_implE** %_T36530264_53607.addr, metadata !5974, metadata !4319), !dbg !5963
	store %struct._ZNSt12_Vector_baseIdSaIdEE12_Vector_implE* %_T36530264_53607.arg, %struct._ZNSt12_Vector_baseIdSaIdEE12_Vector_implE** %_T36530264_53607.addr, align 8, !tbaa !4327
	call void @llvm.dbg.declare (metadata %struct._ZNSt12_Vector_baseIdSaIdEE12_Vector_implE** %_T36530264_53607.addr, metadata !5975, metadata !4319), !dbg !5963
	ret void, !dbg !5976
}
define linkonce_odr void @_ZNSt12_Vector_baseIdSaIdEE12_Vector_implD2Ev(%struct._ZNSt12_Vector_baseIdSaIdEE12_Vector_implE* %_T36530264_53608.arg) #0 inlinehint !dbg !5978 {
L.entry:
	%_T36530264_53608.addr = alloca %struct._ZNSt12_Vector_baseIdSaIdEE12_Vector_implE*, align 8

	store %struct._ZNSt12_Vector_baseIdSaIdEE12_Vector_implE* %_T36530264_53608.arg, %struct._ZNSt12_Vector_baseIdSaIdEE12_Vector_implE** %_T36530264_53608.addr, align 8, !tbaa !4327
	ret void, !dbg !5994
}

%struct._ZSt6vectorIdSaIdEE = type <{ %struct._ZSt12_Vector_baseIdSaIdEE}> 

define linkonce_odr void @_ZNSt6vectorIdSaIdEED1Ev(%struct._ZSt6vectorIdSaIdEE* %_T36530264_53609.arg) #0 inlinehint !dbg !5999 {
L.entry:
	%_T36530264_53609.addr = alloca %struct._ZSt6vectorIdSaIdEE*, align 8
	%..inline.addr = alloca %struct._ZSt12_Vector_baseIdSaIdEE*, align 8
	%..inline.addr.1 = alloca double*, align 8

	call void @llvm.dbg.declare (metadata %struct._ZSt6vectorIdSaIdEE** %_T36530264_53609.addr, metadata !6051, metadata !4319), !dbg !6000
	store %struct._ZSt6vectorIdSaIdEE* %_T36530264_53609.arg, %struct._ZSt6vectorIdSaIdEE** %_T36530264_53609.addr, align 8, !tbaa !4327
	call void @llvm.dbg.declare (metadata %struct._ZSt6vectorIdSaIdEE** %_T36530264_53609.addr, metadata !6052, metadata !4319), !dbg !6000
	%0 = load %struct._ZSt6vectorIdSaIdEE*, %struct._ZSt6vectorIdSaIdEE** %_T36530264_53609.addr, align 8, !tbaa !4327, !dbg !6053
	%1 = bitcast %struct._ZSt6vectorIdSaIdEE*  %0 to i8*, !dbg !6053
	%2 = bitcast %struct._ZSt12_Vector_baseIdSaIdEE** %..inline.addr to i8**, !dbg !6053
	store i8*  %1, i8**  %2, align 8, !tbaa !4327, !dbg !6053
	%3 = load %struct._ZSt12_Vector_baseIdSaIdEE*, %struct._ZSt12_Vector_baseIdSaIdEE** %..inline.addr, align 8, !tbaa !4327, !dbg !6054
	%4 = bitcast %struct._ZSt12_Vector_baseIdSaIdEE*  %3 to i8**, !dbg !6054
	%5 = load i8*, i8**  %4, align 8, !tbaa !4327, !dbg !6054
	%6 = icmp eq i8*  %5,  null, !dbg !6054
	br i1  %6, label %L..inline.77797, label %L.B1758, !dbg !6054
L.B1758:
	%7 = bitcast %struct._ZSt12_Vector_baseIdSaIdEE*  %3 to i8**, !dbg !6054
	%8 = load i8*, i8**  %7, align 8, !tbaa !4327, !dbg !6054
	%9 = bitcast double** %..inline.addr.1 to i8**, !dbg !6054
	store i8*  %8, i8**  %9, align 8, !tbaa !4327, !dbg !6054
	%10 = load double*, double** %..inline.addr.1, align 8, !tbaa !4327, !dbg !6054
	%11 = bitcast double*  %10 to i8*, !dbg !6054
	call void  @_ZdlPv (i8*  %11) nounwind, !dbg !6054
	br label %L..inline.77797
L..inline.77797:
	ret void, !dbg !6053
}
define linkonce_odr void @_ZNSt6vectorIdSaIdEED2Ev(%struct._ZSt6vectorIdSaIdEE* %_T36530264_53610.arg) #0 inlinehint !dbg !6056 {
L.entry:
	%_T36530264_53610.addr = alloca %struct._ZSt6vectorIdSaIdEE*, align 8
	%..inline.addr = alloca %struct._ZSt12_Vector_baseIdSaIdEE*, align 8
	%..inline.addr.1 = alloca double*, align 8

	store %struct._ZSt6vectorIdSaIdEE* %_T36530264_53610.arg, %struct._ZSt6vectorIdSaIdEE** %_T36530264_53610.addr, align 8, !tbaa !4327
	%0 = load %struct._ZSt6vectorIdSaIdEE*, %struct._ZSt6vectorIdSaIdEE** %_T36530264_53610.addr, align 8, !tbaa !4327, !dbg !6112
	%1 = bitcast %struct._ZSt6vectorIdSaIdEE*  %0 to i8*, !dbg !6112
	%2 = bitcast %struct._ZSt12_Vector_baseIdSaIdEE** %..inline.addr to i8**, !dbg !6112
	store i8*  %1, i8**  %2, align 8, !tbaa !4327, !dbg !6112
	%3 = load %struct._ZSt12_Vector_baseIdSaIdEE*, %struct._ZSt12_Vector_baseIdSaIdEE** %..inline.addr, align 8, !tbaa !4327, !dbg !6112
	%4 = bitcast %struct._ZSt12_Vector_baseIdSaIdEE*  %3 to i8**, !dbg !6112
	%5 = load i8*, i8**  %4, align 8, !tbaa !4327, !dbg !6112
	%6 = icmp eq i8*  %5,  null, !dbg !6112
	br i1  %6, label %L..inline.77901, label %L.B1761, !dbg !6112
L.B1761:
	%7 = bitcast %struct._ZSt12_Vector_baseIdSaIdEE*  %3 to i8**, !dbg !6112
	%8 = load i8*, i8**  %7, align 8, !tbaa !4327, !dbg !6112
	%9 = bitcast double** %..inline.addr.1 to i8**, !dbg !6112
	store i8*  %8, i8**  %9, align 8, !tbaa !4327, !dbg !6112
	%10 = load double*, double** %..inline.addr.1, align 8, !tbaa !4327, !dbg !6112
	%11 = bitcast double*  %10 to i8*, !dbg !6112
	call void  @_ZdlPv (i8*  %11) nounwind, !dbg !6112
	br label %L..inline.77901
L..inline.77901:
	ret void, !dbg !6112
}

%struct._ZSaIN5vmesh14MeshParametersEE = type <{ [1 x i8]}> 

define linkonce_odr void @_ZNSaIN5vmesh14MeshParametersEED1Ev(%struct._ZSaIN5vmesh14MeshParametersEE* %_T36530264_53611.arg) #0 inlinehint !dbg !6117 {
L.entry:
	%_T36530264_53611.addr = alloca %struct._ZSaIN5vmesh14MeshParametersEE*, align 8

	call void @llvm.dbg.declare (metadata %struct._ZSaIN5vmesh14MeshParametersEE** %_T36530264_53611.addr, metadata !6121, metadata !4319), !dbg !6118
	store %struct._ZSaIN5vmesh14MeshParametersEE* %_T36530264_53611.arg, %struct._ZSaIN5vmesh14MeshParametersEE** %_T36530264_53611.addr, align 8, !tbaa !4327
	call void @llvm.dbg.declare (metadata %struct._ZSaIN5vmesh14MeshParametersEE** %_T36530264_53611.addr, metadata !6122, metadata !4319), !dbg !6118
	ret void, !dbg !6123
}
define linkonce_odr void @_ZNSaIN5vmesh14MeshParametersEED2Ev(%struct._ZSaIN5vmesh14MeshParametersEE* %_T36530264_53612.arg) #0 inlinehint !dbg !6125 {
L.entry:
	%_T36530264_53612.addr = alloca %struct._ZSaIN5vmesh14MeshParametersEE*, align 8

	store %struct._ZSaIN5vmesh14MeshParametersEE* %_T36530264_53612.arg, %struct._ZSaIN5vmesh14MeshParametersEE** %_T36530264_53612.addr, align 8, !tbaa !4327
	ret void, !dbg !6133
}

%struct._ZN5vmesh14MeshParametersE = type <{ %struct._ZNSt7__cxx1112basic_stringIcSt11char_traitsIcESaIcEEE, i32, [4 x i8], [6 x double], [3 x i32], [3 x i32], i8, i8, [6 x i8], [3 x double], [3 x double], [3 x double], [3 x double], [3 x double], %struct._ZSt6vectorIjSaIjEE, %struct._ZSt6vectorIdSaIdEE, %struct._ZSt6vectorIdSaIdEE, %struct._ZSt6vectorIjSaIjEE}> 
%union.__C6 = type <{ [16 x i8]}> 
%struct._ZNSt7__cxx1112basic_stringIcSt11char_traitsIcESaIcEEE = type <{ %struct._ZNSt7__cxx1112basic_stringIcSt11char_traitsIcESaIcEE12_Alloc_hiderE, i64, %union.__C6}> 
%struct._ZNSt7__cxx1112basic_stringIcSt11char_traitsIcESaIcEE12_Alloc_hiderE = type <{ i8*}> 

define linkonce_odr void @_ZNSt16allocator_traitsISaIN5vmesh14MeshParametersEEE10deallocateERS2_PS1_m(%struct._ZSaIN5vmesh14MeshParametersEE* %__a.arg, %struct._ZN5vmesh14MeshParametersE* %__p.arg, i64 %__n.arg) #0 inlinehint !dbg !6141 {
L.entry:
	%__a.addr = alloca %struct._ZSaIN5vmesh14MeshParametersEE*, align 8
	%__p.addr = alloca %struct._ZN5vmesh14MeshParametersE*, align 8
	%__n.addr = alloca i64, align 8
	%..inline.addr = alloca %struct._ZN5vmesh14MeshParametersE*, align 8

	call void @llvm.dbg.declare (metadata %struct._ZSaIN5vmesh14MeshParametersEE** %__a.addr, metadata !6149, metadata !4319), !dbg !6142
	store %struct._ZSaIN5vmesh14MeshParametersEE* %__a.arg, %struct._ZSaIN5vmesh14MeshParametersEE** %__a.addr, align 8, !tbaa !4327
	call void @llvm.dbg.declare (metadata %struct._ZSaIN5vmesh14MeshParametersEE** %__a.addr, metadata !6150, metadata !4319), !dbg !6142
	call void @llvm.dbg.declare (metadata %struct._ZN5vmesh14MeshParametersE** %__p.addr, metadata !6151, metadata !4319), !dbg !6142
	store %struct._ZN5vmesh14MeshParametersE* %__p.arg, %struct._ZN5vmesh14MeshParametersE** %__p.addr, align 8, !tbaa !4327
	call void @llvm.dbg.declare (metadata %struct._ZN5vmesh14MeshParametersE** %__p.addr, metadata !6152, metadata !4319), !dbg !6142
	call void @llvm.dbg.declare (metadata i64* %__n.addr, metadata !6153, metadata !4319), !dbg !6142
	store i64 %__n.arg, i64* %__n.addr, align 8, !tbaa !4326
	call void @llvm.dbg.declare (metadata i64* %__n.addr, metadata !6154, metadata !4319), !dbg !6142
	%0 = load %struct._ZN5vmesh14MeshParametersE*, %struct._ZN5vmesh14MeshParametersE** %__p.addr, align 8, !tbaa !4327, !dbg !6155
	%1 = bitcast %struct._ZN5vmesh14MeshParametersE*  %0 to i8*, !dbg !6155
	%2 = bitcast %struct._ZN5vmesh14MeshParametersE** %..inline.addr to i8**, !dbg !6155
	store i8*  %1, i8**  %2, align 8, !tbaa !4327, !dbg !6155
	%3 = load %struct._ZN5vmesh14MeshParametersE*, %struct._ZN5vmesh14MeshParametersE** %..inline.addr, align 8, !tbaa !4327, !dbg !6156
	%4 = bitcast %struct._ZN5vmesh14MeshParametersE*  %3 to i8*, !dbg !6156
	call void  @_ZdlPv (i8*  %4) nounwind, !dbg !6156
	ret void, !dbg !6155
}

%struct._ZNSt12_Vector_baseIN5vmesh14MeshParametersESaIS1_EE17_Vector_impl_dataE = type <{ %struct._ZN5vmesh14MeshParametersE*, %struct._ZN5vmesh14MeshParametersE*, %struct._ZN5vmesh14MeshParametersE*}> 
%struct._ZSt12_Vector_baseIN5vmesh14MeshParametersESaIS1_EE = type <{ %struct._ZNSt12_Vector_baseIN5vmesh14MeshParametersESaIS1_EE12_Vector_implE}> 
%struct._ZNSt12_Vector_baseIN5vmesh14MeshParametersESaIS1_EE12_Vector_implE = type <{ %struct._ZNSt12_Vector_baseIN5vmesh14MeshParametersESaIS1_EE17_Vector_impl_dataE}> 

define linkonce_odr %struct._ZSaIN5vmesh14MeshParametersEE* @_ZNSt12_Vector_baseIN5vmesh14MeshParametersESaIS1_EE19_M_get_Tp_allocatorEv(%struct._ZSt12_Vector_baseIN5vmesh14MeshParametersESaIS1_EE* %_T36530264_53618.arg) #0 inlinehint !dbg !6162 {
L.entry:
	%_T36530264_53618.addr = alloca %struct._ZSt12_Vector_baseIN5vmesh14MeshParametersESaIS1_EE*, align 8

	call void @llvm.dbg.declare (metadata %struct._ZSt12_Vector_baseIN5vmesh14MeshParametersESaIS1_EE** %_T36530264_53618.addr, metadata !6166, metadata !4319), !dbg !6163
	store %struct._ZSt12_Vector_baseIN5vmesh14MeshParametersESaIS1_EE* %_T36530264_53618.arg, %struct._ZSt12_Vector_baseIN5vmesh14MeshParametersESaIS1_EE** %_T36530264_53618.addr, align 8, !tbaa !4327
	call void @llvm.dbg.declare (metadata %struct._ZSt12_Vector_baseIN5vmesh14MeshParametersESaIS1_EE** %_T36530264_53618.addr, metadata !6167, metadata !4319), !dbg !6163
	%0 = load %struct._ZSt12_Vector_baseIN5vmesh14MeshParametersESaIS1_EE*, %struct._ZSt12_Vector_baseIN5vmesh14MeshParametersESaIS1_EE** %_T36530264_53618.addr, align 8, !tbaa !4327, !dbg !6168
	%1 = bitcast %struct._ZSt12_Vector_baseIN5vmesh14MeshParametersESaIS1_EE*  %0 to %struct._ZSaIN5vmesh14MeshParametersEE*, !dbg !6168
	ret %struct._ZSaIN5vmesh14MeshParametersEE*  %1, !dbg !6168
}
define linkonce_odr void @_ZNSt12_Vector_baseIN5vmesh14MeshParametersESaIS1_EEC1Ev(%struct._ZSt12_Vector_baseIN5vmesh14MeshParametersESaIS1_EE* %_T36530264_53619.arg) #0 inlinehint !dbg !6172 {
L.entry:
	%_T36530264_53619.addr = alloca %struct._ZSt12_Vector_baseIN5vmesh14MeshParametersESaIS1_EE*, align 8
	%..inline.addr = alloca %struct._ZNSt12_Vector_baseIN5vmesh14MeshParametersESaIS1_EE17_Vector_impl_dataE*, align 8

	call void @llvm.dbg.declare (metadata %struct._ZSt12_Vector_baseIN5vmesh14MeshParametersESaIS1_EE** %_T36530264_53619.addr, metadata !6188, metadata !4319), !dbg !6173
	store %struct._ZSt12_Vector_baseIN5vmesh14MeshParametersESaIS1_EE* %_T36530264_53619.arg, %struct._ZSt12_Vector_baseIN5vmesh14MeshParametersESaIS1_EE** %_T36530264_53619.addr, align 8, !tbaa !4327
	call void @llvm.dbg.declare (metadata %struct._ZSt12_Vector_baseIN5vmesh14MeshParametersESaIS1_EE** %_T36530264_53619.addr, metadata !6189, metadata !4319), !dbg !6173
	%0 = load %struct._ZSt12_Vector_baseIN5vmesh14MeshParametersESaIS1_EE*, %struct._ZSt12_Vector_baseIN5vmesh14MeshParametersESaIS1_EE** %_T36530264_53619.addr, align 8, !tbaa !4327, !dbg !6190
	%1 = bitcast %struct._ZSt12_Vector_baseIN5vmesh14MeshParametersESaIS1_EE*  %0 to i8*, !dbg !6190
	%2 = bitcast %struct._ZNSt12_Vector_baseIN5vmesh14MeshParametersESaIS1_EE17_Vector_impl_dataE** %..inline.addr to i8**, !dbg !6190
	store i8*  %1, i8**  %2, align 8, !tbaa !4327, !dbg !6190
	%3 = load %struct._ZNSt12_Vector_baseIN5vmesh14MeshParametersESaIS1_EE17_Vector_impl_dataE*, %struct._ZNSt12_Vector_baseIN5vmesh14MeshParametersESaIS1_EE17_Vector_impl_dataE** %..inline.addr, align 8, !tbaa !4327, !dbg !6190
	%4 = bitcast %struct._ZNSt12_Vector_baseIN5vmesh14MeshParametersESaIS1_EE17_Vector_impl_dataE*  %3 to i8**, !dbg !6190
	store i8* null, i8**  %4, align 8, !tbaa !4327, !dbg !6190
	%5 = bitcast %struct._ZNSt12_Vector_baseIN5vmesh14MeshParametersESaIS1_EE17_Vector_impl_dataE*  %3 to i8*, !dbg !6190
	%6 = getelementptr i8, i8*  %5, i64 8, !dbg !6190
	%7 = bitcast i8*  %6 to i8**, !dbg !6190
	store i8* null, i8**  %7, align 8, !tbaa !4327, !dbg !6190
	%8 = getelementptr i8, i8*  %5, i64 16, !dbg !6190
	%9 = bitcast i8*  %8 to i8**, !dbg !6190
	store i8* null, i8**  %9, align 8, !tbaa !4327, !dbg !6190
	ret void, !dbg !6190
}
define linkonce_odr void @_ZNSt12_Vector_baseIN5vmesh14MeshParametersESaIS1_EEC2Ev(%struct._ZSt12_Vector_baseIN5vmesh14MeshParametersESaIS1_EE* %_T36530264_53620.arg) #0 inlinehint !dbg !6192 {
L.entry:
	%_T36530264_53620.addr = alloca %struct._ZSt12_Vector_baseIN5vmesh14MeshParametersESaIS1_EE*, align 8
	%..inline.addr = alloca %struct._ZNSt12_Vector_baseIN5vmesh14MeshParametersESaIS1_EE17_Vector_impl_dataE*, align 8

	store %struct._ZSt12_Vector_baseIN5vmesh14MeshParametersESaIS1_EE* %_T36530264_53620.arg, %struct._ZSt12_Vector_baseIN5vmesh14MeshParametersESaIS1_EE** %_T36530264_53620.addr, align 8, !tbaa !4327
	%0 = load %struct._ZSt12_Vector_baseIN5vmesh14MeshParametersESaIS1_EE*, %struct._ZSt12_Vector_baseIN5vmesh14MeshParametersESaIS1_EE** %_T36530264_53620.addr, align 8, !tbaa !4327, !dbg !6212
	%1 = bitcast %struct._ZSt12_Vector_baseIN5vmesh14MeshParametersESaIS1_EE*  %0 to i8*, !dbg !6212
	%2 = bitcast %struct._ZNSt12_Vector_baseIN5vmesh14MeshParametersESaIS1_EE17_Vector_impl_dataE** %..inline.addr to i8**, !dbg !6212
	store i8*  %1, i8**  %2, align 8, !tbaa !4327, !dbg !6212
	%3 = load %struct._ZNSt12_Vector_baseIN5vmesh14MeshParametersESaIS1_EE17_Vector_impl_dataE*, %struct._ZNSt12_Vector_baseIN5vmesh14MeshParametersESaIS1_EE17_Vector_impl_dataE** %..inline.addr, align 8, !tbaa !4327, !dbg !6212
	%4 = bitcast %struct._ZNSt12_Vector_baseIN5vmesh14MeshParametersESaIS1_EE17_Vector_impl_dataE*  %3 to i8**, !dbg !6212
	store i8* null, i8**  %4, align 8, !tbaa !4327, !dbg !6212
	%5 = bitcast %struct._ZNSt12_Vector_baseIN5vmesh14MeshParametersESaIS1_EE17_Vector_impl_dataE*  %3 to i8*, !dbg !6212
	%6 = getelementptr i8, i8*  %5, i64 8, !dbg !6212
	%7 = bitcast i8*  %6 to i8**, !dbg !6212
	store i8* null, i8**  %7, align 8, !tbaa !4327, !dbg !6212
	%8 = getelementptr i8, i8*  %5, i64 16, !dbg !6212
	%9 = bitcast i8*  %8 to i8**, !dbg !6212
	store i8* null, i8**  %9, align 8, !tbaa !4327, !dbg !6212
	ret void, !dbg !6212
}
define linkonce_odr void @_ZNSt12_Vector_baseIN5vmesh14MeshParametersESaIS1_EED1Ev(%struct._ZSt12_Vector_baseIN5vmesh14MeshParametersESaIS1_EE* %_T36530264_53621.arg) #0 inlinehint !dbg !6214 {
L.entry:
	%_T36530264_53621.addr = alloca %struct._ZSt12_Vector_baseIN5vmesh14MeshParametersESaIS1_EE*, align 8
	%..inline.addr = alloca %struct._ZN5vmesh14MeshParametersE*, align 8

	call void @llvm.dbg.declare (metadata %struct._ZSt12_Vector_baseIN5vmesh14MeshParametersESaIS1_EE** %_T36530264_53621.addr, metadata !6242, metadata !4319), !dbg !6215
	store %struct._ZSt12_Vector_baseIN5vmesh14MeshParametersESaIS1_EE* %_T36530264_53621.arg, %struct._ZSt12_Vector_baseIN5vmesh14MeshParametersESaIS1_EE** %_T36530264_53621.addr, align 8, !tbaa !4327
	call void @llvm.dbg.declare (metadata %struct._ZSt12_Vector_baseIN5vmesh14MeshParametersESaIS1_EE** %_T36530264_53621.addr, metadata !6243, metadata !4319), !dbg !6215
	%0 = load %struct._ZSt12_Vector_baseIN5vmesh14MeshParametersESaIS1_EE*, %struct._ZSt12_Vector_baseIN5vmesh14MeshParametersESaIS1_EE** %_T36530264_53621.addr, align 8, !tbaa !4327, !dbg !6244
	%1 = bitcast %struct._ZSt12_Vector_baseIN5vmesh14MeshParametersESaIS1_EE*  %0 to i8**, !dbg !6244
	%2 = load i8*, i8**  %1, align 8, !tbaa !4327, !dbg !6244
	%3 = icmp eq i8*  %2,  null, !dbg !6244
	br i1  %3, label %L..inline.78045, label %L.B1774, !dbg !6244
L.B1774:
	%4 = bitcast %struct._ZSt12_Vector_baseIN5vmesh14MeshParametersESaIS1_EE*  %0 to i8**, !dbg !6245
	%5 = load i8*, i8**  %4, align 8, !tbaa !4327, !dbg !6245
	%6 = bitcast %struct._ZN5vmesh14MeshParametersE** %..inline.addr to i8**, !dbg !6245
	store i8*  %5, i8**  %6, align 8, !tbaa !4327, !dbg !6245
	%7 = load %struct._ZN5vmesh14MeshParametersE*, %struct._ZN5vmesh14MeshParametersE** %..inline.addr, align 8, !tbaa !4327, !dbg !6245
	%8 = bitcast %struct._ZN5vmesh14MeshParametersE*  %7 to i8*, !dbg !6245
	call void  @_ZdlPv (i8*  %8) nounwind, !dbg !6245
	br label %L..inline.78045
L..inline.78045:
	ret void, !dbg !6246
}
define linkonce_odr void @_ZNSt12_Vector_baseIN5vmesh14MeshParametersESaIS1_EED2Ev(%struct._ZSt12_Vector_baseIN5vmesh14MeshParametersESaIS1_EE* %_T36530264_53622.arg) #0 inlinehint !dbg !6248 {
L.entry:
	%_T36530264_53622.addr = alloca %struct._ZSt12_Vector_baseIN5vmesh14MeshParametersESaIS1_EE*, align 8
	%..inline.addr = alloca %struct._ZSt12_Vector_baseIN5vmesh14MeshParametersESaIS1_EE*, align 8
	%..inline.addr.1 = alloca %struct._ZN5vmesh14MeshParametersE*, align 8

	store %struct._ZSt12_Vector_baseIN5vmesh14MeshParametersESaIS1_EE* %_T36530264_53622.arg, %struct._ZSt12_Vector_baseIN5vmesh14MeshParametersESaIS1_EE** %_T36530264_53622.addr, align 8, !tbaa !4327
	%0 = load %struct._ZSt12_Vector_baseIN5vmesh14MeshParametersESaIS1_EE*, %struct._ZSt12_Vector_baseIN5vmesh14MeshParametersESaIS1_EE** %_T36530264_53622.addr, align 8, !tbaa !4327, !dbg !6280
	%1 = bitcast %struct._ZSt12_Vector_baseIN5vmesh14MeshParametersESaIS1_EE*  %0 to i8*, !dbg !6280
	%2 = bitcast %struct._ZSt12_Vector_baseIN5vmesh14MeshParametersESaIS1_EE** %..inline.addr to i8**, !dbg !6280
	store i8*  %1, i8**  %2, align 8, !tbaa !4327, !dbg !6280
	%3 = load %struct._ZSt12_Vector_baseIN5vmesh14MeshParametersESaIS1_EE*, %struct._ZSt12_Vector_baseIN5vmesh14MeshParametersESaIS1_EE** %..inline.addr, align 8, !tbaa !4327, !dbg !6280
	%4 = bitcast %struct._ZSt12_Vector_baseIN5vmesh14MeshParametersESaIS1_EE*  %3 to i8**, !dbg !6280
	%5 = load i8*, i8**  %4, align 8, !tbaa !4327, !dbg !6280
	%6 = icmp eq i8*  %5,  null, !dbg !6280
	br i1  %6, label %L..inline.78107, label %L.B1777, !dbg !6280
L.B1777:
	%7 = bitcast %struct._ZSt12_Vector_baseIN5vmesh14MeshParametersESaIS1_EE*  %3 to i8**, !dbg !6280
	%8 = load i8*, i8**  %7, align 8, !tbaa !4327, !dbg !6280
	%9 = bitcast %struct._ZN5vmesh14MeshParametersE** %..inline.addr.1 to i8**, !dbg !6280
	store i8*  %8, i8**  %9, align 8, !tbaa !4327, !dbg !6280
	%10 = load %struct._ZN5vmesh14MeshParametersE*, %struct._ZN5vmesh14MeshParametersE** %..inline.addr.1, align 8, !tbaa !4327, !dbg !6280
	%11 = bitcast %struct._ZN5vmesh14MeshParametersE*  %10 to i8*, !dbg !6280
	call void  @_ZdlPv (i8*  %11) nounwind, !dbg !6280
	br label %L..inline.78107
L..inline.78107:
	ret void, !dbg !6281
}
define linkonce_odr void @_ZNSt12_Vector_baseIN5vmesh14MeshParametersESaIS1_EE13_M_deallocateEPS1_m(%struct._ZSt12_Vector_baseIN5vmesh14MeshParametersESaIS1_EE* %_T36530264_53625.arg, %struct._ZN5vmesh14MeshParametersE* %__p.arg, i64 %__n.arg) #0 inlinehint !dbg !6285 {
L.entry:
	%_T36530264_53625.addr = alloca %struct._ZSt12_Vector_baseIN5vmesh14MeshParametersESaIS1_EE*, align 8
	%__p.addr = alloca %struct._ZN5vmesh14MeshParametersE*, align 8
	%__n.addr = alloca i64, align 8
	%..inline.addr = alloca %struct._ZN5vmesh14MeshParametersE*, align 8

	call void @llvm.dbg.declare (metadata %struct._ZSt12_Vector_baseIN5vmesh14MeshParametersESaIS1_EE** %_T36530264_53625.addr, metadata !6297, metadata !4319), !dbg !6286
	store %struct._ZSt12_Vector_baseIN5vmesh14MeshParametersESaIS1_EE* %_T36530264_53625.arg, %struct._ZSt12_Vector_baseIN5vmesh14MeshParametersESaIS1_EE** %_T36530264_53625.addr, align 8, !tbaa !4327
	call void @llvm.dbg.declare (metadata %struct._ZSt12_Vector_baseIN5vmesh14MeshParametersESaIS1_EE** %_T36530264_53625.addr, metadata !6298, metadata !4319), !dbg !6286
	call void @llvm.dbg.declare (metadata %struct._ZN5vmesh14MeshParametersE** %__p.addr, metadata !6299, metadata !4319), !dbg !6286
	store %struct._ZN5vmesh14MeshParametersE* %__p.arg, %struct._ZN5vmesh14MeshParametersE** %__p.addr, align 8, !tbaa !4327
	call void @llvm.dbg.declare (metadata %struct._ZN5vmesh14MeshParametersE** %__p.addr, metadata !6300, metadata !4319), !dbg !6286
	call void @llvm.dbg.declare (metadata i64* %__n.addr, metadata !6301, metadata !4319), !dbg !6286
	store i64 %__n.arg, i64* %__n.addr, align 8, !tbaa !4326
	call void @llvm.dbg.declare (metadata i64* %__n.addr, metadata !6302, metadata !4319), !dbg !6286
	%0 = load %struct._ZN5vmesh14MeshParametersE*, %struct._ZN5vmesh14MeshParametersE** %__p.addr, align 8, !tbaa !4327, !dbg !6303
	%1 = bitcast %struct._ZN5vmesh14MeshParametersE*  %0 to i8*, !dbg !6303
	%2 = icmp eq i8*  %1,  null, !dbg !6303
	br i1  %2, label %L.B0021, label %L.B1780, !dbg !6303
L.B1780:
	%3 = bitcast %struct._ZN5vmesh14MeshParametersE*  %0 to i8*, !dbg !6304
	%4 = bitcast %struct._ZN5vmesh14MeshParametersE** %..inline.addr to i8**, !dbg !6304
	store i8*  %3, i8**  %4, align 8, !tbaa !4327, !dbg !6304
	%5 = load %struct._ZN5vmesh14MeshParametersE*, %struct._ZN5vmesh14MeshParametersE** %..inline.addr, align 8, !tbaa !4327, !dbg !6304
	%6 = bitcast %struct._ZN5vmesh14MeshParametersE*  %5 to i8*, !dbg !6304
	call void  @_ZdlPv (i8*  %6) nounwind, !dbg !6304
	br label %L.B0021
L.B0021:
	ret void, !dbg !6305
}
define linkonce_odr void @_ZNSt12_Vector_baseIN5vmesh14MeshParametersESaIS1_EE17_Vector_impl_dataC1Ev(%struct._ZNSt12_Vector_baseIN5vmesh14MeshParametersESaIS1_EE17_Vector_impl_dataE* %_T36530264_53626.arg) #0 inlinehint !dbg !6310 {
L.entry:
	%_T36530264_53626.addr = alloca %struct._ZNSt12_Vector_baseIN5vmesh14MeshParametersESaIS1_EE17_Vector_impl_dataE*, align 8

	call void @llvm.dbg.declare (metadata %struct._ZNSt12_Vector_baseIN5vmesh14MeshParametersESaIS1_EE17_Vector_impl_dataE** %_T36530264_53626.addr, metadata !6314, metadata !4319), !dbg !6311
	store %struct._ZNSt12_Vector_baseIN5vmesh14MeshParametersESaIS1_EE17_Vector_impl_dataE* %_T36530264_53626.arg, %struct._ZNSt12_Vector_baseIN5vmesh14MeshParametersESaIS1_EE17_Vector_impl_dataE** %_T36530264_53626.addr, align 8, !tbaa !4327
	call void @llvm.dbg.declare (metadata %struct._ZNSt12_Vector_baseIN5vmesh14MeshParametersESaIS1_EE17_Vector_impl_dataE** %_T36530264_53626.addr, metadata !6315, metadata !4319), !dbg !6311
	%0 = load %struct._ZNSt12_Vector_baseIN5vmesh14MeshParametersESaIS1_EE17_Vector_impl_dataE*, %struct._ZNSt12_Vector_baseIN5vmesh14MeshParametersESaIS1_EE17_Vector_impl_dataE** %_T36530264_53626.addr, align 8, !tbaa !4327, !dbg !6316
	%1 = bitcast %struct._ZNSt12_Vector_baseIN5vmesh14MeshParametersESaIS1_EE17_Vector_impl_dataE*  %0 to i8**, !dbg !6316
	store i8* null, i8**  %1, align 8, !tbaa !4327, !dbg !6316
	%2 = bitcast %struct._ZNSt12_Vector_baseIN5vmesh14MeshParametersESaIS1_EE17_Vector_impl_dataE*  %0 to i8*, !dbg !6316
	%3 = getelementptr i8, i8*  %2, i64 8, !dbg !6316
	%4 = bitcast i8*  %3 to i8**, !dbg !6316
	store i8* null, i8**  %4, align 8, !tbaa !4327, !dbg !6316
	%5 = getelementptr i8, i8*  %2, i64 16, !dbg !6316
	%6 = bitcast i8*  %5 to i8**, !dbg !6316
	store i8* null, i8**  %6, align 8, !tbaa !4327, !dbg !6316
	ret void, !dbg !6316
}
define linkonce_odr void @_ZNSt12_Vector_baseIN5vmesh14MeshParametersESaIS1_EE17_Vector_impl_dataC2Ev(%struct._ZNSt12_Vector_baseIN5vmesh14MeshParametersESaIS1_EE17_Vector_impl_dataE* %_T36530264_53627.arg) #0 inlinehint !dbg !6318 {
L.entry:
	%_T36530264_53627.addr = alloca %struct._ZNSt12_Vector_baseIN5vmesh14MeshParametersESaIS1_EE17_Vector_impl_dataE*, align 8
	%..inline.addr = alloca %struct._ZNSt12_Vector_baseIN5vmesh14MeshParametersESaIS1_EE17_Vector_impl_dataE*, align 8

	store %struct._ZNSt12_Vector_baseIN5vmesh14MeshParametersESaIS1_EE17_Vector_impl_dataE* %_T36530264_53627.arg, %struct._ZNSt12_Vector_baseIN5vmesh14MeshParametersESaIS1_EE17_Vector_impl_dataE** %_T36530264_53627.addr, align 8, !tbaa !4327
	%0 = load %struct._ZNSt12_Vector_baseIN5vmesh14MeshParametersESaIS1_EE17_Vector_impl_dataE*, %struct._ZNSt12_Vector_baseIN5vmesh14MeshParametersESaIS1_EE17_Vector_impl_dataE** %_T36530264_53627.addr, align 8, !tbaa !4327, !dbg !6326
	%1 = bitcast %struct._ZNSt12_Vector_baseIN5vmesh14MeshParametersESaIS1_EE17_Vector_impl_dataE*  %0 to i8*, !dbg !6326
	%2 = bitcast %struct._ZNSt12_Vector_baseIN5vmesh14MeshParametersESaIS1_EE17_Vector_impl_dataE** %..inline.addr to i8**, !dbg !6326
	store i8*  %1, i8**  %2, align 8, !tbaa !4327, !dbg !6326
	%3 = load %struct._ZNSt12_Vector_baseIN5vmesh14MeshParametersESaIS1_EE17_Vector_impl_dataE*, %struct._ZNSt12_Vector_baseIN5vmesh14MeshParametersESaIS1_EE17_Vector_impl_dataE** %..inline.addr, align 8, !tbaa !4327, !dbg !6326
	%4 = bitcast %struct._ZNSt12_Vector_baseIN5vmesh14MeshParametersESaIS1_EE17_Vector_impl_dataE*  %3 to i8**, !dbg !6326
	store i8* null, i8**  %4, align 8, !tbaa !4327, !dbg !6326
	%5 = bitcast %struct._ZNSt12_Vector_baseIN5vmesh14MeshParametersESaIS1_EE17_Vector_impl_dataE*  %3 to i8*, !dbg !6326
	%6 = getelementptr i8, i8*  %5, i64 8, !dbg !6326
	%7 = bitcast i8*  %6 to i8**, !dbg !6326
	store i8* null, i8**  %7, align 8, !tbaa !4327, !dbg !6326
	%8 = getelementptr i8, i8*  %5, i64 16, !dbg !6326
	%9 = bitcast i8*  %8 to i8**, !dbg !6326
	store i8* null, i8**  %9, align 8, !tbaa !4327, !dbg !6326
	ret void, !dbg !6326
}
define linkonce_odr void @_ZNSt12_Vector_baseIN5vmesh14MeshParametersESaIS1_EE12_Vector_implC1Ev(%struct._ZNSt12_Vector_baseIN5vmesh14MeshParametersESaIS1_EE12_Vector_implE* %_T36530264_53628.arg) #0 inlinehint !dbg !6331 {
L.entry:
	%_T36530264_53628.addr = alloca %struct._ZNSt12_Vector_baseIN5vmesh14MeshParametersESaIS1_EE12_Vector_implE*, align 8
	%..inline.addr = alloca %struct._ZNSt12_Vector_baseIN5vmesh14MeshParametersESaIS1_EE17_Vector_impl_dataE*, align 8

	call void @llvm.dbg.declare (metadata %struct._ZNSt12_Vector_baseIN5vmesh14MeshParametersESaIS1_EE12_Vector_implE** %_T36530264_53628.addr, metadata !6343, metadata !4319), !dbg !6332
	store %struct._ZNSt12_Vector_baseIN5vmesh14MeshParametersESaIS1_EE12_Vector_implE* %_T36530264_53628.arg, %struct._ZNSt12_Vector_baseIN5vmesh14MeshParametersESaIS1_EE12_Vector_implE** %_T36530264_53628.addr, align 8, !tbaa !4327
	call void @llvm.dbg.declare (metadata %struct._ZNSt12_Vector_baseIN5vmesh14MeshParametersESaIS1_EE12_Vector_implE** %_T36530264_53628.addr, metadata !6344, metadata !4319), !dbg !6332
	%0 = load %struct._ZNSt12_Vector_baseIN5vmesh14MeshParametersESaIS1_EE12_Vector_implE*, %struct._ZNSt12_Vector_baseIN5vmesh14MeshParametersESaIS1_EE12_Vector_implE** %_T36530264_53628.addr, align 8, !tbaa !4327, !dbg !6345
	%1 = bitcast %struct._ZNSt12_Vector_baseIN5vmesh14MeshParametersESaIS1_EE12_Vector_implE*  %0 to i8*, !dbg !6345
	%2 = bitcast %struct._ZNSt12_Vector_baseIN5vmesh14MeshParametersESaIS1_EE17_Vector_impl_dataE** %..inline.addr to i8**, !dbg !6345
	store i8*  %1, i8**  %2, align 8, !tbaa !4327, !dbg !6345
	%3 = load %struct._ZNSt12_Vector_baseIN5vmesh14MeshParametersESaIS1_EE17_Vector_impl_dataE*, %struct._ZNSt12_Vector_baseIN5vmesh14MeshParametersESaIS1_EE17_Vector_impl_dataE** %..inline.addr, align 8, !tbaa !4327, !dbg !6345
	%4 = bitcast %struct._ZNSt12_Vector_baseIN5vmesh14MeshParametersESaIS1_EE17_Vector_impl_dataE*  %3 to i8**, !dbg !6345
	store i8* null, i8**  %4, align 8, !tbaa !4327, !dbg !6345
	%5 = bitcast %struct._ZNSt12_Vector_baseIN5vmesh14MeshParametersESaIS1_EE17_Vector_impl_dataE*  %3 to i8*, !dbg !6346
	%6 = getelementptr i8, i8*  %5, i64 8, !dbg !6346
	%7 = bitcast i8*  %6 to i8**, !dbg !6346
	store i8* null, i8**  %7, align 8, !tbaa !4327, !dbg !6346
	%8 = getelementptr i8, i8*  %5, i64 16, !dbg !6346
	%9 = bitcast i8*  %8 to i8**, !dbg !6346
	store i8* null, i8**  %9, align 8, !tbaa !4327, !dbg !6346
	ret void, !dbg !6345
}
define linkonce_odr void @_ZNSt12_Vector_baseIN5vmesh14MeshParametersESaIS1_EE12_Vector_implC2Ev(%struct._ZNSt12_Vector_baseIN5vmesh14MeshParametersESaIS1_EE12_Vector_implE* %_T36530264_53629.arg) #0 inlinehint !dbg !6348 {
L.entry:
	%_T36530264_53629.addr = alloca %struct._ZNSt12_Vector_baseIN5vmesh14MeshParametersESaIS1_EE12_Vector_implE*, align 8
	%..inline.addr = alloca %struct._ZNSt12_Vector_baseIN5vmesh14MeshParametersESaIS1_EE17_Vector_impl_dataE*, align 8

	store %struct._ZNSt12_Vector_baseIN5vmesh14MeshParametersESaIS1_EE12_Vector_implE* %_T36530264_53629.arg, %struct._ZNSt12_Vector_baseIN5vmesh14MeshParametersESaIS1_EE12_Vector_implE** %_T36530264_53629.addr, align 8, !tbaa !4327
	%0 = load %struct._ZNSt12_Vector_baseIN5vmesh14MeshParametersESaIS1_EE12_Vector_implE*, %struct._ZNSt12_Vector_baseIN5vmesh14MeshParametersESaIS1_EE12_Vector_implE** %_T36530264_53629.addr, align 8, !tbaa !4327, !dbg !6364
	%1 = bitcast %struct._ZNSt12_Vector_baseIN5vmesh14MeshParametersESaIS1_EE12_Vector_implE*  %0 to i8*, !dbg !6364
	%2 = bitcast %struct._ZNSt12_Vector_baseIN5vmesh14MeshParametersESaIS1_EE17_Vector_impl_dataE** %..inline.addr to i8**, !dbg !6364
	store i8*  %1, i8**  %2, align 8, !tbaa !4327, !dbg !6364
	%3 = load %struct._ZNSt12_Vector_baseIN5vmesh14MeshParametersESaIS1_EE17_Vector_impl_dataE*, %struct._ZNSt12_Vector_baseIN5vmesh14MeshParametersESaIS1_EE17_Vector_impl_dataE** %..inline.addr, align 8, !tbaa !4327, !dbg !6364
	%4 = bitcast %struct._ZNSt12_Vector_baseIN5vmesh14MeshParametersESaIS1_EE17_Vector_impl_dataE*  %3 to i8**, !dbg !6364
	store i8* null, i8**  %4, align 8, !tbaa !4327, !dbg !6364
	%5 = bitcast %struct._ZNSt12_Vector_baseIN5vmesh14MeshParametersESaIS1_EE17_Vector_impl_dataE*  %3 to i8*, !dbg !6364
	%6 = getelementptr i8, i8*  %5, i64 8, !dbg !6364
	%7 = bitcast i8*  %6 to i8**, !dbg !6364
	store i8* null, i8**  %7, align 8, !tbaa !4327, !dbg !6364
	%8 = getelementptr i8, i8*  %5, i64 16, !dbg !6364
	%9 = bitcast i8*  %8 to i8**, !dbg !6364
	store i8* null, i8**  %9, align 8, !tbaa !4327, !dbg !6364
	ret void, !dbg !6364
}
define linkonce_odr void @_ZNSt12_Vector_baseIN5vmesh14MeshParametersESaIS1_EE12_Vector_implD1Ev(%struct._ZNSt12_Vector_baseIN5vmesh14MeshParametersESaIS1_EE12_Vector_implE* %_T36530264_53630.arg) #0 inlinehint !dbg !6366 {
L.entry:
	%_T36530264_53630.addr = alloca %struct._ZNSt12_Vector_baseIN5vmesh14MeshParametersESaIS1_EE12_Vector_implE*, align 8

	call void @llvm.dbg.declare (metadata %struct._ZNSt12_Vector_baseIN5vmesh14MeshParametersESaIS1_EE12_Vector_implE** %_T36530264_53630.addr, metadata !6378, metadata !4319), !dbg !6367
	store %struct._ZNSt12_Vector_baseIN5vmesh14MeshParametersESaIS1_EE12_Vector_implE* %_T36530264_53630.arg, %struct._ZNSt12_Vector_baseIN5vmesh14MeshParametersESaIS1_EE12_Vector_implE** %_T36530264_53630.addr, align 8, !tbaa !4327
	call void @llvm.dbg.declare (metadata %struct._ZNSt12_Vector_baseIN5vmesh14MeshParametersESaIS1_EE12_Vector_implE** %_T36530264_53630.addr, metadata !6379, metadata !4319), !dbg !6367
	ret void, !dbg !6380
}
define linkonce_odr void @_ZNSt12_Vector_baseIN5vmesh14MeshParametersESaIS1_EE12_Vector_implD2Ev(%struct._ZNSt12_Vector_baseIN5vmesh14MeshParametersESaIS1_EE12_Vector_implE* %_T36530264_53631.arg) #0 inlinehint !dbg !6382 {
L.entry:
	%_T36530264_53631.addr = alloca %struct._ZNSt12_Vector_baseIN5vmesh14MeshParametersESaIS1_EE12_Vector_implE*, align 8

	store %struct._ZNSt12_Vector_baseIN5vmesh14MeshParametersESaIS1_EE12_Vector_implE* %_T36530264_53631.arg, %struct._ZNSt12_Vector_baseIN5vmesh14MeshParametersESaIS1_EE12_Vector_implE** %_T36530264_53631.addr, align 8, !tbaa !4327
	ret void, !dbg !6398
}

%struct._ZSt6vectorIN5vmesh14MeshParametersESaIS1_EE = type <{ %struct._ZSt12_Vector_baseIN5vmesh14MeshParametersESaIS1_EE}> 

define linkonce_odr void @_ZNSt6vectorIN5vmesh14MeshParametersESaIS1_EEC1Ev(%struct._ZSt6vectorIN5vmesh14MeshParametersESaIS1_EE* %_T36530264_53632.arg) #0 inlinehint !dbg !6403 {
L.entry:
	%_T36530264_53632.addr = alloca %struct._ZSt6vectorIN5vmesh14MeshParametersESaIS1_EE*, align 8
	%..inline.addr = alloca %struct._ZNSt12_Vector_baseIN5vmesh14MeshParametersESaIS1_EE17_Vector_impl_dataE*, align 8

	call void @llvm.dbg.declare (metadata %struct._ZSt6vectorIN5vmesh14MeshParametersESaIS1_EE** %_T36530264_53632.addr, metadata !6427, metadata !4319), !dbg !6404
	store %struct._ZSt6vectorIN5vmesh14MeshParametersESaIS1_EE* %_T36530264_53632.arg, %struct._ZSt6vectorIN5vmesh14MeshParametersESaIS1_EE** %_T36530264_53632.addr, align 8, !tbaa !4327
	call void @llvm.dbg.declare (metadata %struct._ZSt6vectorIN5vmesh14MeshParametersESaIS1_EE** %_T36530264_53632.addr, metadata !6428, metadata !4319), !dbg !6404
	%0 = load %struct._ZSt6vectorIN5vmesh14MeshParametersESaIS1_EE*, %struct._ZSt6vectorIN5vmesh14MeshParametersESaIS1_EE** %_T36530264_53632.addr, align 8, !tbaa !4327, !dbg !6429
	%1 = bitcast %struct._ZSt6vectorIN5vmesh14MeshParametersESaIS1_EE*  %0 to i8*, !dbg !6429
	%2 = bitcast %struct._ZNSt12_Vector_baseIN5vmesh14MeshParametersESaIS1_EE17_Vector_impl_dataE** %..inline.addr to i8**, !dbg !6429
	store i8*  %1, i8**  %2, align 8, !tbaa !4327, !dbg !6429
	%3 = load %struct._ZNSt12_Vector_baseIN5vmesh14MeshParametersESaIS1_EE17_Vector_impl_dataE*, %struct._ZNSt12_Vector_baseIN5vmesh14MeshParametersESaIS1_EE17_Vector_impl_dataE** %..inline.addr, align 8, !tbaa !4327, !dbg !6429
	%4 = bitcast %struct._ZNSt12_Vector_baseIN5vmesh14MeshParametersESaIS1_EE17_Vector_impl_dataE*  %3 to i8**, !dbg !6429
	store i8* null, i8**  %4, align 8, !tbaa !4327, !dbg !6429
	%5 = bitcast %struct._ZNSt12_Vector_baseIN5vmesh14MeshParametersESaIS1_EE17_Vector_impl_dataE*  %3 to i8*, !dbg !6429
	%6 = getelementptr i8, i8*  %5, i64 8, !dbg !6429
	%7 = bitcast i8*  %6 to i8**, !dbg !6429
	store i8* null, i8**  %7, align 8, !tbaa !4327, !dbg !6429
	%8 = getelementptr i8, i8*  %5, i64 16, !dbg !6429
	%9 = bitcast i8*  %8 to i8**, !dbg !6429
	store i8* null, i8**  %9, align 8, !tbaa !4327, !dbg !6429
	ret void, !dbg !6429
}
define linkonce_odr void @_ZNSt6vectorIN5vmesh14MeshParametersESaIS1_EEC2Ev(%struct._ZSt6vectorIN5vmesh14MeshParametersESaIS1_EE* %_T36530264_53633.arg) #0 inlinehint !dbg !6431 {
L.entry:
	%_T36530264_53633.addr = alloca %struct._ZSt6vectorIN5vmesh14MeshParametersESaIS1_EE*, align 8
	%..inline.addr = alloca %struct._ZNSt12_Vector_baseIN5vmesh14MeshParametersESaIS1_EE17_Vector_impl_dataE*, align 8

	store %struct._ZSt6vectorIN5vmesh14MeshParametersESaIS1_EE* %_T36530264_53633.arg, %struct._ZSt6vectorIN5vmesh14MeshParametersESaIS1_EE** %_T36530264_53633.addr, align 8, !tbaa !4327
	%0 = load %struct._ZSt6vectorIN5vmesh14MeshParametersESaIS1_EE*, %struct._ZSt6vectorIN5vmesh14MeshParametersESaIS1_EE** %_T36530264_53633.addr, align 8, !tbaa !4327, !dbg !6459
	%1 = bitcast %struct._ZSt6vectorIN5vmesh14MeshParametersESaIS1_EE*  %0 to i8*, !dbg !6459
	%2 = bitcast %struct._ZNSt12_Vector_baseIN5vmesh14MeshParametersESaIS1_EE17_Vector_impl_dataE** %..inline.addr to i8**, !dbg !6459
	store i8*  %1, i8**  %2, align 8, !tbaa !4327, !dbg !6459
	%3 = load %struct._ZNSt12_Vector_baseIN5vmesh14MeshParametersESaIS1_EE17_Vector_impl_dataE*, %struct._ZNSt12_Vector_baseIN5vmesh14MeshParametersESaIS1_EE17_Vector_impl_dataE** %..inline.addr, align 8, !tbaa !4327, !dbg !6459
	%4 = bitcast %struct._ZNSt12_Vector_baseIN5vmesh14MeshParametersESaIS1_EE17_Vector_impl_dataE*  %3 to i8**, !dbg !6459
	store i8* null, i8**  %4, align 8, !tbaa !4327, !dbg !6459
	%5 = bitcast %struct._ZNSt12_Vector_baseIN5vmesh14MeshParametersESaIS1_EE17_Vector_impl_dataE*  %3 to i8*, !dbg !6459
	%6 = getelementptr i8, i8*  %5, i64 8, !dbg !6459
	%7 = bitcast i8*  %6 to i8**, !dbg !6459
	store i8* null, i8**  %7, align 8, !tbaa !4327, !dbg !6459
	%8 = getelementptr i8, i8*  %5, i64 16, !dbg !6459
	%9 = bitcast i8*  %8 to i8**, !dbg !6459
	store i8* null, i8**  %9, align 8, !tbaa !4327, !dbg !6459
	ret void, !dbg !6459
}
define linkonce_odr void @_ZNSt6vectorIN5vmesh14MeshParametersESaIS1_EED1Ev(%struct._ZSt6vectorIN5vmesh14MeshParametersESaIS1_EE* %_T36530264_53634.arg) #0 inlinehint !dbg !6461 {
L.entry:
	%_T36530264_53634.addr = alloca %struct._ZSt6vectorIN5vmesh14MeshParametersESaIS1_EE*, align 8
	%..inline.addr = alloca %struct._ZN5vmesh14MeshParametersE*, align 8
	%..inline.addr.1 = alloca %struct._ZN5vmesh14MeshParametersE*, align 8
	%.lcr4489089.addr = alloca i8*, align 8
	%..inline.addr.2 = alloca %struct._ZN5vmesh14MeshParametersE*, align 8
	%..inline.addr.3 = alloca %struct._ZSt12_Vector_baseIN5vmesh14MeshParametersESaIS1_EE*, align 8
	%..inline.addr.4 = alloca %struct._ZN5vmesh14MeshParametersE*, align 8

	call void @llvm.dbg.declare (metadata %struct._ZSt6vectorIN5vmesh14MeshParametersESaIS1_EE** %_T36530264_53634.addr, metadata !6521, metadata !4319), !dbg !6462
	store %struct._ZSt6vectorIN5vmesh14MeshParametersESaIS1_EE* %_T36530264_53634.arg, %struct._ZSt6vectorIN5vmesh14MeshParametersESaIS1_EE** %_T36530264_53634.addr, align 8, !tbaa !4327
	call void @llvm.dbg.declare (metadata %struct._ZSt6vectorIN5vmesh14MeshParametersESaIS1_EE** %_T36530264_53634.addr, metadata !6522, metadata !4319), !dbg !6462
	%0 = load %struct._ZSt6vectorIN5vmesh14MeshParametersESaIS1_EE*, %struct._ZSt6vectorIN5vmesh14MeshParametersESaIS1_EE** %_T36530264_53634.addr, align 8, !tbaa !4327, !dbg !6523
	%1 = bitcast %struct._ZSt6vectorIN5vmesh14MeshParametersESaIS1_EE*  %0 to i8**, !dbg !6523
	%2 = load i8*, i8**  %1, align 8, !tbaa !4327, !dbg !6523
	%3 = bitcast %struct._ZN5vmesh14MeshParametersE** %..inline.addr to i8**, !dbg !6523
	store i8*  %2, i8**  %3, align 8, !tbaa !4327, !dbg !6523
	%4 = bitcast %struct._ZSt6vectorIN5vmesh14MeshParametersESaIS1_EE*  %0 to i8*, !dbg !6523
	%5 = getelementptr i8, i8*  %4, i64 8, !dbg !6523
	%6 = bitcast i8*  %5 to i8**, !dbg !6523
	%7 = load i8*, i8**  %6, align 8, !tbaa !4327, !dbg !6523
	%8 = bitcast %struct._ZN5vmesh14MeshParametersE** %..inline.addr.1 to i8**, !dbg !6523
	store i8*  %7, i8**  %8, align 8, !tbaa !4327, !dbg !6523
	%9 = load %struct._ZN5vmesh14MeshParametersE*, %struct._ZN5vmesh14MeshParametersE** %..inline.addr, align 8, !tbaa !4327, !dbg !6523
	%10 = bitcast %struct._ZN5vmesh14MeshParametersE*  %9 to i8*, !dbg !6523
	%11 = load %struct._ZN5vmesh14MeshParametersE*, %struct._ZN5vmesh14MeshParametersE** %..inline.addr.1, align 8, !tbaa !4327, !dbg !6523
	%12 = bitcast %struct._ZN5vmesh14MeshParametersE*  %11 to i8*, !dbg !6523
	%13 = icmp eq i8*  %10,  %12, !dbg !6523
	br i1  %13, label %L..inline.78360, label %L.B1801, !dbg !6523
L.B1801:
	%14 = bitcast %struct._ZN5vmesh14MeshParametersE*  %9 to i8*, !dbg !6523
	%15 = bitcast %struct._ZN5vmesh14MeshParametersE*  %11 to i8*, !dbg !6523
	%16 = ptrtoint i8*  %14 to i64, !dbg !6523
	%17 = sub i64 0,  %16, !dbg !6523
	%18 = getelementptr i8, i8*  %15, i64  %17, !dbg !6523
	%19 = ptrtoint i8*  %18 to i64, !dbg !6523
	%20 = add i64  %19, 335, !dbg !6523
	%21 = sub i64 0,  %16, !dbg !6523
	%22 = getelementptr i8, i8*  %15, i64  %21, !dbg !6523
	%23 = ptrtoint i8*  %22 to i64, !dbg !6523
	%24 = add i64  %23, 335, !dbg !6523
	%25 = sext i64 -4392081922311798003 to i128, !dbg !6523
	%26 = sext i64  %24 to i128, !dbg !6523
	%27 = mul i128  %25,  %26, !dbg !6523
	%28 = ashr i128  %27, 64, !dbg !6523
	%29 = trunc i128  %28 to i64, !dbg !6523
	%30 = add i64  %20,  %29, !dbg !6523
	%31 = sext i32 8 to i64, !dbg !6523
	%32 = ashr i64  %30,  %31, !dbg !6523
	%33 = sub i64 0,  %16, !dbg !6523
	%34 = getelementptr i8, i8*  %15, i64  %33, !dbg !6523
	%35 = ptrtoint i8*  %34 to i64, !dbg !6523
	%36 = add i64  %35, 335, !dbg !6523
	%37 = sext i32 63 to i64, !dbg !6523
	%38 = ashr i64  %36,  %37, !dbg !6523
	%39 = sub i64  %32,  %38, !dbg !6523
	%40 = mul i64  %39, 336, !dbg !6523
	%41 = getelementptr i8, i8*  %14, i64  %40, !dbg !6523
	store i8*  %41, i8** %.lcr4489089.addr, align 8, !tbaa !4327, !dbg !6523
	br label %L..inline.78359
L..inline.78359:
	%42 = load %struct._ZN5vmesh14MeshParametersE*, %struct._ZN5vmesh14MeshParametersE** %..inline.addr, align 8, !tbaa !4327, !dbg !6523
	%43 = bitcast %struct._ZN5vmesh14MeshParametersE*  %42 to i8*, !dbg !6523
	%44 = bitcast %struct._ZN5vmesh14MeshParametersE** %..inline.addr.2 to i8**, !dbg !6523
	store i8*  %43, i8**  %44, align 8, !tbaa !4327, !dbg !6523
	%45 = load %struct._ZN5vmesh14MeshParametersE*, %struct._ZN5vmesh14MeshParametersE** %..inline.addr.2, align 8, !tbaa !4327, !dbg !6523
	call void  @_ZN5vmesh14MeshParametersD1Ev (%struct._ZN5vmesh14MeshParametersE*  %45) nounwind, !dbg !6523
	%46 = load %struct._ZN5vmesh14MeshParametersE*, %struct._ZN5vmesh14MeshParametersE** %..inline.addr, align 8, !tbaa !4327, !dbg !6523
	%47 = bitcast %struct._ZN5vmesh14MeshParametersE*  %46 to i8*, !dbg !6523
	%48 = getelementptr i8, i8*  %47, i64 336, !dbg !6523
	%49 = bitcast %struct._ZN5vmesh14MeshParametersE** %..inline.addr to i8**, !dbg !6523
	store i8*  %48, i8**  %49, align 8, !tbaa !4327, !dbg !6523
	%50 = load %struct._ZN5vmesh14MeshParametersE*, %struct._ZN5vmesh14MeshParametersE** %..inline.addr, align 8, !tbaa !4327, !dbg !6523
	%51 = bitcast %struct._ZN5vmesh14MeshParametersE*  %50 to i8*, !dbg !6523
	%52 = load i8*, i8** %.lcr4489089.addr, align 8, !tbaa !4327, !dbg !6523
	%53 = icmp ult i8*  %51,  %52, !dbg !6523
	br i1  %53, label %L..inline.78359, label %L..inline.78360, !dbg !6523
L..inline.78360:
	%54 = load %struct._ZSt6vectorIN5vmesh14MeshParametersESaIS1_EE*, %struct._ZSt6vectorIN5vmesh14MeshParametersESaIS1_EE** %_T36530264_53634.addr, align 8, !tbaa !4327, !dbg !6524
	%55 = bitcast %struct._ZSt6vectorIN5vmesh14MeshParametersESaIS1_EE*  %54 to i8*, !dbg !6524
	%56 = bitcast %struct._ZSt12_Vector_baseIN5vmesh14MeshParametersESaIS1_EE** %..inline.addr.3 to i8**, !dbg !6524
	store i8*  %55, i8**  %56, align 8, !tbaa !4327, !dbg !6524
	%57 = load %struct._ZSt12_Vector_baseIN5vmesh14MeshParametersESaIS1_EE*, %struct._ZSt12_Vector_baseIN5vmesh14MeshParametersESaIS1_EE** %..inline.addr.3, align 8, !tbaa !4327, !dbg !6525
	%58 = bitcast %struct._ZSt12_Vector_baseIN5vmesh14MeshParametersESaIS1_EE*  %57 to i8**, !dbg !6525
	%59 = load i8*, i8**  %58, align 8, !tbaa !4327, !dbg !6525
	%60 = icmp eq i8*  %59,  null, !dbg !6525
	br i1  %60, label %L..inline.78392, label %L.B1802, !dbg !6525
L.B1802:
	%61 = bitcast %struct._ZSt12_Vector_baseIN5vmesh14MeshParametersESaIS1_EE*  %57 to i8**, !dbg !6525
	%62 = load i8*, i8**  %61, align 8, !tbaa !4327, !dbg !6525
	%63 = bitcast %struct._ZN5vmesh14MeshParametersE** %..inline.addr.4 to i8**, !dbg !6525
	store i8*  %62, i8**  %63, align 8, !tbaa !4327, !dbg !6525
	%64 = load %struct._ZN5vmesh14MeshParametersE*, %struct._ZN5vmesh14MeshParametersE** %..inline.addr.4, align 8, !tbaa !4327, !dbg !6525
	%65 = bitcast %struct._ZN5vmesh14MeshParametersE*  %64 to i8*, !dbg !6525
	call void  @_ZdlPv (i8*  %65) nounwind, !dbg !6525
	br label %L..inline.78392
L..inline.78392:
	ret void, !dbg !6524
}
define linkonce_odr void @_ZNSt6vectorIN5vmesh14MeshParametersESaIS1_EED2Ev(%struct._ZSt6vectorIN5vmesh14MeshParametersESaIS1_EE* %_T36530264_53635.arg) #0 inlinehint !dbg !6527 {
L.entry:
	%_T36530264_53635.addr = alloca %struct._ZSt6vectorIN5vmesh14MeshParametersESaIS1_EE*, align 8
	%..inline.addr = alloca %struct._ZSt6vectorIN5vmesh14MeshParametersESaIS1_EE*, align 8
	%..inline.addr.1 = alloca %struct._ZN5vmesh14MeshParametersE*, align 8
	%..inline.addr.2 = alloca %struct._ZN5vmesh14MeshParametersE*, align 8
	%.lcr4490113.addr = alloca i8*, align 8
	%..inline.addr.3 = alloca %struct._ZN5vmesh14MeshParametersE*, align 8
	%..inline.addr.4 = alloca %struct._ZN5vmesh14MeshParametersE*, align 8

	store %struct._ZSt6vectorIN5vmesh14MeshParametersESaIS1_EE* %_T36530264_53635.arg, %struct._ZSt6vectorIN5vmesh14MeshParametersESaIS1_EE** %_T36530264_53635.addr, align 8, !tbaa !4327
	%0 = load %struct._ZSt6vectorIN5vmesh14MeshParametersESaIS1_EE*, %struct._ZSt6vectorIN5vmesh14MeshParametersESaIS1_EE** %_T36530264_53635.addr, align 8, !tbaa !4327, !dbg !6591
	%1 = bitcast %struct._ZSt6vectorIN5vmesh14MeshParametersESaIS1_EE*  %0 to i8*, !dbg !6591
	%2 = bitcast %struct._ZSt6vectorIN5vmesh14MeshParametersESaIS1_EE** %..inline.addr to i8**, !dbg !6591
	store i8*  %1, i8**  %2, align 8, !tbaa !4327, !dbg !6591
	%3 = load %struct._ZSt6vectorIN5vmesh14MeshParametersESaIS1_EE*, %struct._ZSt6vectorIN5vmesh14MeshParametersESaIS1_EE** %..inline.addr, align 8, !tbaa !4327, !dbg !6592
	%4 = bitcast %struct._ZSt6vectorIN5vmesh14MeshParametersESaIS1_EE*  %3 to i8**, !dbg !6592
	%5 = load i8*, i8**  %4, align 8, !tbaa !4327, !dbg !6592
	%6 = bitcast %struct._ZN5vmesh14MeshParametersE** %..inline.addr.1 to i8**, !dbg !6592
	store i8*  %5, i8**  %6, align 8, !tbaa !4327, !dbg !6592
	%7 = bitcast %struct._ZSt6vectorIN5vmesh14MeshParametersESaIS1_EE*  %3 to i8*, !dbg !6592
	%8 = getelementptr i8, i8*  %7, i64 8, !dbg !6592
	%9 = bitcast i8*  %8 to i8**, !dbg !6592
	%10 = load i8*, i8**  %9, align 8, !tbaa !4327, !dbg !6592
	%11 = bitcast %struct._ZN5vmesh14MeshParametersE** %..inline.addr.2 to i8**, !dbg !6592
	store i8*  %10, i8**  %11, align 8, !tbaa !4327, !dbg !6592
	%12 = load %struct._ZN5vmesh14MeshParametersE*, %struct._ZN5vmesh14MeshParametersE** %..inline.addr.1, align 8, !tbaa !4327, !dbg !6592
	%13 = bitcast %struct._ZN5vmesh14MeshParametersE*  %12 to i8*, !dbg !6592
	%14 = load %struct._ZN5vmesh14MeshParametersE*, %struct._ZN5vmesh14MeshParametersE** %..inline.addr.2, align 8, !tbaa !4327, !dbg !6592
	%15 = bitcast %struct._ZN5vmesh14MeshParametersE*  %14 to i8*, !dbg !6592
	%16 = icmp eq i8*  %13,  %15, !dbg !6592
	br i1  %16, label %L..inline.78491, label %L.B1805, !dbg !6592
L.B1805:
	%17 = bitcast %struct._ZN5vmesh14MeshParametersE*  %12 to i8*, !dbg !6592
	%18 = bitcast %struct._ZN5vmesh14MeshParametersE*  %14 to i8*, !dbg !6592
	%19 = ptrtoint i8*  %17 to i64, !dbg !6592
	%20 = sub i64 0,  %19, !dbg !6592
	%21 = getelementptr i8, i8*  %18, i64  %20, !dbg !6592
	%22 = ptrtoint i8*  %21 to i64, !dbg !6592
	%23 = add i64  %22, 335, !dbg !6592
	%24 = sub i64 0,  %19, !dbg !6592
	%25 = getelementptr i8, i8*  %18, i64  %24, !dbg !6592
	%26 = ptrtoint i8*  %25 to i64, !dbg !6592
	%27 = add i64  %26, 335, !dbg !6592
	%28 = sext i64 -4392081922311798003 to i128, !dbg !6592
	%29 = sext i64  %27 to i128, !dbg !6592
	%30 = mul i128  %28,  %29, !dbg !6592
	%31 = ashr i128  %30, 64, !dbg !6592
	%32 = trunc i128  %31 to i64, !dbg !6592
	%33 = add i64  %23,  %32, !dbg !6592
	%34 = sext i32 8 to i64, !dbg !6592
	%35 = ashr i64  %33,  %34, !dbg !6592
	%36 = sub i64 0,  %19, !dbg !6592
	%37 = getelementptr i8, i8*  %18, i64  %36, !dbg !6592
	%38 = ptrtoint i8*  %37 to i64, !dbg !6592
	%39 = add i64  %38, 335, !dbg !6592
	%40 = sext i32 63 to i64, !dbg !6592
	%41 = ashr i64  %39,  %40, !dbg !6592
	%42 = sub i64  %35,  %41, !dbg !6592
	%43 = mul i64  %42, 336, !dbg !6592
	%44 = getelementptr i8, i8*  %17, i64  %43, !dbg !6592
	store i8*  %44, i8** %.lcr4490113.addr, align 8, !tbaa !4327, !dbg !6592
	br label %L..inline.78490
L..inline.78490:
	%45 = load %struct._ZN5vmesh14MeshParametersE*, %struct._ZN5vmesh14MeshParametersE** %..inline.addr.1, align 8, !tbaa !4327, !dbg !6592
	%46 = bitcast %struct._ZN5vmesh14MeshParametersE*  %45 to i8*, !dbg !6592
	%47 = bitcast %struct._ZN5vmesh14MeshParametersE** %..inline.addr.3 to i8**, !dbg !6592
	store i8*  %46, i8**  %47, align 8, !tbaa !4327, !dbg !6592
	%48 = load %struct._ZN5vmesh14MeshParametersE*, %struct._ZN5vmesh14MeshParametersE** %..inline.addr.3, align 8, !tbaa !4327, !dbg !6592
	call void  @_ZN5vmesh14MeshParametersD1Ev (%struct._ZN5vmesh14MeshParametersE*  %48) nounwind, !dbg !6592
	%49 = load %struct._ZN5vmesh14MeshParametersE*, %struct._ZN5vmesh14MeshParametersE** %..inline.addr.1, align 8, !tbaa !4327, !dbg !6592
	%50 = bitcast %struct._ZN5vmesh14MeshParametersE*  %49 to i8*, !dbg !6592
	%51 = getelementptr i8, i8*  %50, i64 336, !dbg !6592
	%52 = bitcast %struct._ZN5vmesh14MeshParametersE** %..inline.addr.1 to i8**, !dbg !6592
	store i8*  %51, i8**  %52, align 8, !tbaa !4327, !dbg !6592
	%53 = load %struct._ZN5vmesh14MeshParametersE*, %struct._ZN5vmesh14MeshParametersE** %..inline.addr.1, align 8, !tbaa !4327, !dbg !6592
	%54 = bitcast %struct._ZN5vmesh14MeshParametersE*  %53 to i8*, !dbg !6592
	%55 = load i8*, i8** %.lcr4490113.addr, align 8, !tbaa !4327, !dbg !6592
	%56 = icmp ult i8*  %54,  %55, !dbg !6592
	br i1  %56, label %L..inline.78490, label %L..inline.78491, !dbg !6592
L..inline.78491:
	%57 = load %struct._ZSt6vectorIN5vmesh14MeshParametersESaIS1_EE*, %struct._ZSt6vectorIN5vmesh14MeshParametersESaIS1_EE** %..inline.addr, align 8, !tbaa !4327, !dbg !6593
	%58 = bitcast %struct._ZSt6vectorIN5vmesh14MeshParametersESaIS1_EE*  %57 to i8**, !dbg !6593
	%59 = load i8*, i8**  %58, align 8, !tbaa !4327, !dbg !6593
	%60 = icmp eq i8*  %59,  null, !dbg !6593
	br i1  %60, label %L..inline.78521, label %L.B1806, !dbg !6593
L.B1806:
	%61 = bitcast %struct._ZSt6vectorIN5vmesh14MeshParametersESaIS1_EE*  %57 to i8**, !dbg !6593
	%62 = load i8*, i8**  %61, align 8, !tbaa !4327, !dbg !6593
	%63 = bitcast %struct._ZN5vmesh14MeshParametersE** %..inline.addr.4 to i8**, !dbg !6593
	store i8*  %62, i8**  %63, align 8, !tbaa !4327, !dbg !6593
	%64 = load %struct._ZN5vmesh14MeshParametersE*, %struct._ZN5vmesh14MeshParametersE** %..inline.addr.4, align 8, !tbaa !4327, !dbg !6593
	%65 = bitcast %struct._ZN5vmesh14MeshParametersE*  %64 to i8*, !dbg !6593
	call void  @_ZdlPv (i8*  %65) nounwind, !dbg !6593
	br label %L..inline.78521
L..inline.78521:
	ret void, !dbg !6593
}
define linkonce_odr %struct._ZN5vmesh14MeshParametersE* @_ZNSt6vectorIN5vmesh14MeshParametersESaIS1_EEixEm(%struct._ZSt6vectorIN5vmesh14MeshParametersESaIS1_EE* %_T36530264_53638.arg, i64 %__n.arg) #0 inlinehint !dbg !6597 {
L.entry:
	%_T36530264_53638.addr = alloca %struct._ZSt6vectorIN5vmesh14MeshParametersESaIS1_EE*, align 8
	%__n.addr = alloca i64, align 8

	call void @llvm.dbg.declare (metadata %struct._ZSt6vectorIN5vmesh14MeshParametersESaIS1_EE** %_T36530264_53638.addr, metadata !6601, metadata !4319), !dbg !6598
	store %struct._ZSt6vectorIN5vmesh14MeshParametersESaIS1_EE* %_T36530264_53638.arg, %struct._ZSt6vectorIN5vmesh14MeshParametersESaIS1_EE** %_T36530264_53638.addr, align 8, !tbaa !4327
	call void @llvm.dbg.declare (metadata %struct._ZSt6vectorIN5vmesh14MeshParametersESaIS1_EE** %_T36530264_53638.addr, metadata !6602, metadata !4319), !dbg !6598
	call void @llvm.dbg.declare (metadata i64* %__n.addr, metadata !6603, metadata !4319), !dbg !6598
	store i64 %__n.arg, i64* %__n.addr, align 8, !tbaa !4326
	call void @llvm.dbg.declare (metadata i64* %__n.addr, metadata !6604, metadata !4319), !dbg !6598
	%0 = load %struct._ZSt6vectorIN5vmesh14MeshParametersESaIS1_EE*, %struct._ZSt6vectorIN5vmesh14MeshParametersESaIS1_EE** %_T36530264_53638.addr, align 8, !tbaa !4327, !dbg !6605
	%1 = bitcast %struct._ZSt6vectorIN5vmesh14MeshParametersESaIS1_EE*  %0 to i8**, !dbg !6605
	%2 = load i8*, i8**  %1, align 8, !tbaa !4327, !dbg !6605
	%3 = load i64, i64* %__n.addr, align 8, !tbaa !4858, !dbg !6605
	%4 = mul i64  %3, 336, !dbg !6605
	%5 = getelementptr i8, i8*  %2, i64  %4, !dbg !6605
	%6 = bitcast i8*  %5 to %struct._ZN5vmesh14MeshParametersE*, !dbg !6605
	ret %struct._ZN5vmesh14MeshParametersE*  %6, !dbg !6605
}
define linkonce_odr double* @_ZNSt14__array_traitsIdLm3EE6_S_refERA3_Kdm([3 x double]* %__t.arg, i64 %__n.arg) #0 inlinehint !dbg !6613 {
L.entry:
	%__t.addr = alloca [3 x double]*, align 8
	%__n.addr = alloca i64, align 8

	call void @llvm.dbg.declare (metadata [3 x double]** %__t.addr, metadata !6617, metadata !4319), !dbg !6614
	store [3 x double]* %__t.arg, [3 x double]** %__t.addr, align 8, !tbaa !4327
	call void @llvm.dbg.declare (metadata [3 x double]** %__t.addr, metadata !6618, metadata !4319), !dbg !6614
	call void @llvm.dbg.declare (metadata i64* %__n.addr, metadata !6619, metadata !4319), !dbg !6614
	store i64 %__n.arg, i64* %__n.addr, align 8, !tbaa !4326
	call void @llvm.dbg.declare (metadata i64* %__n.addr, metadata !6620, metadata !4319), !dbg !6614
	%0 = load [3 x double]*, [3 x double]** %__t.addr, align 8, !tbaa !4327, !dbg !6621
	%1 = bitcast [3 x double]*  %0 to i8*, !dbg !6621
	%2 = load i64, i64* %__n.addr, align 8, !tbaa !4858, !dbg !6621
	%3 = mul i64  %2, 8, !dbg !6621
	%4 = getelementptr i8, i8*  %1, i64  %3, !dbg !6621
	%5 = bitcast i8*  %4 to double*, !dbg !6621
	ret double*  %5, !dbg !6621
}
define linkonce_odr double* @_ZNSt5arrayIdLm3EE2atEm(%struct._ZSt5arrayIdLm3EE* %_T36530264_53643.arg, i64 %__n.arg) #0 inlinehint !dbg !6625 {
L.entry:
	%_T36530264_53643.addr = alloca %struct._ZSt5arrayIdLm3EE*, align 8
	%__n.addr = alloca i64, align 8

	call void @llvm.dbg.declare (metadata %struct._ZSt5arrayIdLm3EE** %_T36530264_53643.addr, metadata !6633, metadata !4319), !dbg !6626
	store %struct._ZSt5arrayIdLm3EE* %_T36530264_53643.arg, %struct._ZSt5arrayIdLm3EE** %_T36530264_53643.addr, align 8, !tbaa !4327
	call void @llvm.dbg.declare (metadata %struct._ZSt5arrayIdLm3EE** %_T36530264_53643.addr, metadata !6634, metadata !4319), !dbg !6626
	call void @llvm.dbg.declare (metadata i64* %__n.addr, metadata !6635, metadata !4319), !dbg !6626
	store i64 %__n.arg, i64* %__n.addr, align 8, !tbaa !4326
	call void @llvm.dbg.declare (metadata i64* %__n.addr, metadata !6636, metadata !4319), !dbg !6626
	%0 = load i64, i64* %__n.addr, align 8, !tbaa !4858, !dbg !6637
	%1 = icmp ult i64  %0, 3, !dbg !6637
	br i1  %1, label %L.B0022, label %L.B1809, !dbg !6637
L.B1809:
	%2 = bitcast [52 x i8]* @.S55825 to i8*, !dbg !6638
	call void (i8*, ...)  @_ZSt24__throw_out_of_range_fmtPKcz (i8*  %2, i64  %0, i64 3) noreturn, !dbg !6638
	br label %L.B0022
L.B0022:
	%3 = load %struct._ZSt5arrayIdLm3EE*, %struct._ZSt5arrayIdLm3EE** %_T36530264_53643.addr, align 8, !tbaa !4327, !dbg !6639
	%4 = bitcast %struct._ZSt5arrayIdLm3EE*  %3 to i8*, !dbg !6639
	%5 = load i64, i64* %__n.addr, align 8, !tbaa !4858, !dbg !6639
	%6 = mul i64  %5, 8, !dbg !6639
	%7 = getelementptr i8, i8*  %4, i64  %6, !dbg !6639
	%8 = bitcast i8*  %7 to double*, !dbg !6639
	ret double*  %8, !dbg !6639
}
define linkonce_odr double* @_ZNSt14__array_traitsIdLm59EE6_S_ptrERA59_Kd([59 x double]* %__t.arg) #0 inlinehint !dbg !6645 {
L.entry:
	%__t.addr = alloca [59 x double]*, align 8

	call void @llvm.dbg.declare (metadata [59 x double]** %__t.addr, metadata !6649, metadata !4319), !dbg !6646
	store [59 x double]* %__t.arg, [59 x double]** %__t.addr, align 8, !tbaa !4327
	call void @llvm.dbg.declare (metadata [59 x double]** %__t.addr, metadata !6650, metadata !4319), !dbg !6646
	%0 = load [59 x double]*, [59 x double]** %__t.addr, align 8, !tbaa !4327, !dbg !6651
	%1 = bitcast [59 x double]*  %0 to double*, !dbg !6651
	ret double*  %1, !dbg !6651
}

%struct._ZSt5arrayIdLm59EE = type <{ [59 x double]}> 

define linkonce_odr double* @_ZNSt5arrayIdLm59EE4dataEv(%struct._ZSt5arrayIdLm59EE* %_T36530264_53646.arg) #0 inlinehint !dbg !6656 {
L.entry:
	%_T36530264_53646.addr = alloca %struct._ZSt5arrayIdLm59EE*, align 8

	call void @llvm.dbg.declare (metadata %struct._ZSt5arrayIdLm59EE** %_T36530264_53646.addr, metadata !6664, metadata !4319), !dbg !6657
	store %struct._ZSt5arrayIdLm59EE* %_T36530264_53646.arg, %struct._ZSt5arrayIdLm59EE** %_T36530264_53646.addr, align 8, !tbaa !4327
	call void @llvm.dbg.declare (metadata %struct._ZSt5arrayIdLm59EE** %_T36530264_53646.addr, metadata !6665, metadata !4319), !dbg !6657
	%0 = load %struct._ZSt5arrayIdLm59EE*, %struct._ZSt5arrayIdLm59EE** %_T36530264_53646.addr, align 8, !tbaa !4327, !dbg !6666
	%1 = bitcast %struct._ZSt5arrayIdLm59EE*  %0 to double*, !dbg !6666
	ret double*  %1, !dbg !6666
}
define linkonce_odr i32* @_ZNSt14__array_traitsIiLm27EE6_S_refERA27_Kim([27 x i32]* %__t.arg, i64 %__n.arg) #0 inlinehint !dbg !6671 {
L.entry:
	%__t.addr = alloca [27 x i32]*, align 8
	%__n.addr = alloca i64, align 8

	call void @llvm.dbg.declare (metadata [27 x i32]** %__t.addr, metadata !6675, metadata !4319), !dbg !6672
	store [27 x i32]* %__t.arg, [27 x i32]** %__t.addr, align 8, !tbaa !4327
	call void @llvm.dbg.declare (metadata [27 x i32]** %__t.addr, metadata !6676, metadata !4319), !dbg !6672
	call void @llvm.dbg.declare (metadata i64* %__n.addr, metadata !6677, metadata !4319), !dbg !6672
	store i64 %__n.arg, i64* %__n.addr, align 8, !tbaa !4326
	call void @llvm.dbg.declare (metadata i64* %__n.addr, metadata !6678, metadata !4319), !dbg !6672
	%0 = load [27 x i32]*, [27 x i32]** %__t.addr, align 8, !tbaa !4327, !dbg !6679
	%1 = bitcast [27 x i32]*  %0 to i8*, !dbg !6679
	%2 = load i64, i64* %__n.addr, align 8, !tbaa !4858, !dbg !6679
	%3 = mul i64  %2, 4, !dbg !6679
	%4 = getelementptr i8, i8*  %1, i64  %3, !dbg !6679
	%5 = bitcast i8*  %4 to i32*, !dbg !6679
	ret i32*  %5, !dbg !6679
}
define linkonce_odr i32* @_ZNSt5arrayIiLm27EEixEm(%struct._ZSt5arrayIiLm27EE* %_T36530264_53651.arg, i64 %__n.arg) #0 inlinehint !dbg !6684 {
L.entry:
	%_T36530264_53651.addr = alloca %struct._ZSt5arrayIiLm27EE*, align 8
	%__n.addr = alloca i64, align 8

	call void @llvm.dbg.declare (metadata %struct._ZSt5arrayIiLm27EE** %_T36530264_53651.addr, metadata !6692, metadata !4319), !dbg !6685
	store %struct._ZSt5arrayIiLm27EE* %_T36530264_53651.arg, %struct._ZSt5arrayIiLm27EE** %_T36530264_53651.addr, align 8, !tbaa !4327
	call void @llvm.dbg.declare (metadata %struct._ZSt5arrayIiLm27EE** %_T36530264_53651.addr, metadata !6693, metadata !4319), !dbg !6685
	call void @llvm.dbg.declare (metadata i64* %__n.addr, metadata !6694, metadata !4319), !dbg !6685
	store i64 %__n.arg, i64* %__n.addr, align 8, !tbaa !4326
	call void @llvm.dbg.declare (metadata i64* %__n.addr, metadata !6695, metadata !4319), !dbg !6685
	%0 = load %struct._ZSt5arrayIiLm27EE*, %struct._ZSt5arrayIiLm27EE** %_T36530264_53651.addr, align 8, !tbaa !4327, !dbg !6696
	%1 = bitcast %struct._ZSt5arrayIiLm27EE*  %0 to i8*, !dbg !6696
	%2 = load i64, i64* %__n.addr, align 8, !tbaa !4858, !dbg !6696
	%3 = mul i64  %2, 4, !dbg !6696
	%4 = getelementptr i8, i8*  %1, i64  %3, !dbg !6696
	%5 = bitcast i8*  %4 to i32*, !dbg !6696
	ret i32*  %5, !dbg !6696
}
define linkonce_odr i32* @_ZNSt14__array_traitsIiLm3EE6_S_refERA3_Kim([3 x i32]* %__t.arg, i64 %__n.arg) #0 inlinehint !dbg !6701 {
L.entry:
	%__t.addr = alloca [3 x i32]*, align 8
	%__n.addr = alloca i64, align 8

	call void @llvm.dbg.declare (metadata [3 x i32]** %__t.addr, metadata !6705, metadata !4319), !dbg !6702
	store [3 x i32]* %__t.arg, [3 x i32]** %__t.addr, align 8, !tbaa !4327
	call void @llvm.dbg.declare (metadata [3 x i32]** %__t.addr, metadata !6706, metadata !4319), !dbg !6702
	call void @llvm.dbg.declare (metadata i64* %__n.addr, metadata !6707, metadata !4319), !dbg !6702
	store i64 %__n.arg, i64* %__n.addr, align 8, !tbaa !4326
	call void @llvm.dbg.declare (metadata i64* %__n.addr, metadata !6708, metadata !4319), !dbg !6702
	%0 = load [3 x i32]*, [3 x i32]** %__t.addr, align 8, !tbaa !4327, !dbg !6709
	%1 = bitcast [3 x i32]*  %0 to i8*, !dbg !6709
	%2 = load i64, i64* %__n.addr, align 8, !tbaa !4858, !dbg !6709
	%3 = mul i64  %2, 4, !dbg !6709
	%4 = getelementptr i8, i8*  %1, i64  %3, !dbg !6709
	%5 = bitcast i8*  %4 to i32*, !dbg !6709
	ret i32*  %5, !dbg !6709
}
define linkonce_odr i32* @_ZNSt14__array_traitsIiLm3EE6_S_ptrERA3_Ki([3 x i32]* %__t.arg) #0 inlinehint !dbg !6713 {
L.entry:
	%__t.addr = alloca [3 x i32]*, align 8

	call void @llvm.dbg.declare (metadata [3 x i32]** %__t.addr, metadata !6717, metadata !4319), !dbg !6714
	store [3 x i32]* %__t.arg, [3 x i32]** %__t.addr, align 8, !tbaa !4327
	call void @llvm.dbg.declare (metadata [3 x i32]** %__t.addr, metadata !6718, metadata !4319), !dbg !6714
	%0 = load [3 x i32]*, [3 x i32]** %__t.addr, align 8, !tbaa !4327, !dbg !6719
	%1 = bitcast [3 x i32]*  %0 to i32*, !dbg !6719
	ret i32*  %1, !dbg !6719
}
define linkonce_odr i32* @_ZNSt5arrayIiLm3EEixEm(%struct._ZSt5arrayIiLm3EE* %_T36530264_53657.arg, i64 %__n.arg) #0 inlinehint !dbg !6723 {
L.entry:
	%_T36530264_53657.addr = alloca %struct._ZSt5arrayIiLm3EE*, align 8
	%__n.addr = alloca i64, align 8

	call void @llvm.dbg.declare (metadata %struct._ZSt5arrayIiLm3EE** %_T36530264_53657.addr, metadata !6731, metadata !4319), !dbg !6724
	store %struct._ZSt5arrayIiLm3EE* %_T36530264_53657.arg, %struct._ZSt5arrayIiLm3EE** %_T36530264_53657.addr, align 8, !tbaa !4327
	call void @llvm.dbg.declare (metadata %struct._ZSt5arrayIiLm3EE** %_T36530264_53657.addr, metadata !6732, metadata !4319), !dbg !6724
	call void @llvm.dbg.declare (metadata i64* %__n.addr, metadata !6733, metadata !4319), !dbg !6724
	store i64 %__n.arg, i64* %__n.addr, align 8, !tbaa !4326
	call void @llvm.dbg.declare (metadata i64* %__n.addr, metadata !6734, metadata !4319), !dbg !6724
	%0 = load %struct._ZSt5arrayIiLm3EE*, %struct._ZSt5arrayIiLm3EE** %_T36530264_53657.addr, align 8, !tbaa !4327, !dbg !6735
	%1 = bitcast %struct._ZSt5arrayIiLm3EE*  %0 to i8*, !dbg !6735
	%2 = load i64, i64* %__n.addr, align 8, !tbaa !4858, !dbg !6735
	%3 = mul i64  %2, 4, !dbg !6735
	%4 = getelementptr i8, i8*  %1, i64  %3, !dbg !6735
	%5 = bitcast i8*  %4 to i32*, !dbg !6735
	ret i32*  %5, !dbg !6735
}
define linkonce_odr i32* @_ZNSt5arrayIiLm3EE4dataEv(%struct._ZSt5arrayIiLm3EE* %_T36530264_53659.arg) #0 inlinehint !dbg !6739 {
L.entry:
	%_T36530264_53659.addr = alloca %struct._ZSt5arrayIiLm3EE*, align 8

	call void @llvm.dbg.declare (metadata %struct._ZSt5arrayIiLm3EE** %_T36530264_53659.addr, metadata !6747, metadata !4319), !dbg !6740
	store %struct._ZSt5arrayIiLm3EE* %_T36530264_53659.arg, %struct._ZSt5arrayIiLm3EE** %_T36530264_53659.addr, align 8, !tbaa !4327
	call void @llvm.dbg.declare (metadata %struct._ZSt5arrayIiLm3EE** %_T36530264_53659.addr, metadata !6748, metadata !4319), !dbg !6740
	%0 = load %struct._ZSt5arrayIiLm3EE*, %struct._ZSt5arrayIiLm3EE** %_T36530264_53659.addr, align 8, !tbaa !4327, !dbg !6749
	%1 = bitcast %struct._ZSt5arrayIiLm3EE*  %0 to i32*, !dbg !6749
	ret i32*  %1, !dbg !6749
}

%struct._ZNSt12_Vector_baseIN7species7SpeciesESaIS1_EE12_Vector_implE = type <{ %struct._ZNSt12_Vector_baseIN7species7SpeciesESaIS1_EE17_Vector_impl_dataE}> 
%struct._ZN7species7SpeciesE = type <{ %struct._ZNSt7__cxx1112basic_stringIcSt11char_traitsIcESaIcEEE, double, double, double, i64, i32, i8, [3 x i8], i32, [4 x i8], double, double, double, double, double, %struct._ZSt5arrayIdLm3EE, double, double, double, double, i32, [4 x i8], double, double, double}> 
%struct._ZSt6vectorIN7species7SpeciesESaIS1_EE = type <{ %struct._ZSt12_Vector_baseIN7species7SpeciesESaIS1_EE}> 
%struct._ZSt12_Vector_baseIN7species7SpeciesESaIS1_EE = type <{ %struct._ZNSt12_Vector_baseIN7species7SpeciesESaIS1_EE12_Vector_implE}> 
%struct._ZNSt12_Vector_baseIN7species7SpeciesESaIS1_EE17_Vector_impl_dataE = type <{ %struct._ZN7species7SpeciesE*, %struct._ZN7species7SpeciesE*, %struct._ZN7species7SpeciesE*}> 

define linkonce_odr i64 @_ZNKSt6vectorIN7species7SpeciesESaIS1_EE4sizeEv(%struct._ZSt6vectorIN7species7SpeciesESaIS1_EE* %_T36530264_53661.arg) #0 inlinehint !dbg !6754 {
L.entry:
	%_T36530264_53661.addr = alloca %struct._ZSt6vectorIN7species7SpeciesESaIS1_EE*, align 8
	%_T36531152_53661.addr = alloca i64, align 8

	call void @llvm.dbg.declare (metadata %struct._ZSt6vectorIN7species7SpeciesESaIS1_EE** %_T36530264_53661.addr, metadata !6758, metadata !4319), !dbg !6755
	store %struct._ZSt6vectorIN7species7SpeciesESaIS1_EE* %_T36530264_53661.arg, %struct._ZSt6vectorIN7species7SpeciesESaIS1_EE** %_T36530264_53661.addr, align 8, !tbaa !4327
	call void @llvm.dbg.declare (metadata %struct._ZSt6vectorIN7species7SpeciesESaIS1_EE** %_T36530264_53661.addr, metadata !6759, metadata !4319), !dbg !6755
	%0 = load %struct._ZSt6vectorIN7species7SpeciesESaIS1_EE*, %struct._ZSt6vectorIN7species7SpeciesESaIS1_EE** %_T36530264_53661.addr, align 8, !tbaa !4327, !dbg !6760
	%1 = bitcast %struct._ZSt6vectorIN7species7SpeciesESaIS1_EE*  %0 to i8*, !dbg !6760
	%2 = getelementptr i8, i8*  %1, i64 8, !dbg !6760
	%3 = bitcast i8*  %2 to i8**, !dbg !6760
	%4 = load i8*, i8**  %3, align 8, !tbaa !4327, !dbg !6760
	%5 = bitcast %struct._ZSt6vectorIN7species7SpeciesESaIS1_EE*  %0 to i8**, !dbg !6760
	%6 = load i8*, i8**  %5, align 8, !tbaa !4327, !dbg !6760
	%7 = ptrtoint i8*  %6 to i64, !dbg !6760
	%8 = sub i64 0,  %7, !dbg !6760
	%9 = getelementptr i8, i8*  %4, i64  %8, !dbg !6760
	%10 = ptrtoint i8*  %9 to i64, !dbg !6760
	%11 = sext i64 5675921253449092805 to i128, !dbg !6760
	%12 = sext i64  %10 to i128, !dbg !6760
	%13 = mul i128  %11,  %12, !dbg !6760
	%14 = ashr i128  %13, 64, !dbg !6760
	%15 = trunc i128  %14 to i64, !dbg !6760
	%16 = sext i32 6 to i64, !dbg !6760
	%17 = ashr i64  %15,  %16, !dbg !6760
	%18 = sub i64 0,  %7, !dbg !6760
	%19 = getelementptr i8, i8*  %4, i64  %18, !dbg !6760
	%20 = ptrtoint i8*  %19 to i64, !dbg !6760
	%21 = sext i32 63 to i64, !dbg !6760
	%22 = ashr i64  %20,  %21, !dbg !6760
	%23 = sub i64  %17,  %22, !dbg !6760
	ret i64  %23, !dbg !6760
}
define linkonce_odr %struct._ZN7species7SpeciesE* @_ZNSt6vectorIN7species7SpeciesESaIS1_EEixEm(%struct._ZSt6vectorIN7species7SpeciesESaIS1_EE* %_T36530264_53664.arg, i64 %__n.arg) #0 inlinehint !dbg !6764 {
L.entry:
	%_T36530264_53664.addr = alloca %struct._ZSt6vectorIN7species7SpeciesESaIS1_EE*, align 8
	%__n.addr = alloca i64, align 8

	call void @llvm.dbg.declare (metadata %struct._ZSt6vectorIN7species7SpeciesESaIS1_EE** %_T36530264_53664.addr, metadata !6768, metadata !4319), !dbg !6765
	store %struct._ZSt6vectorIN7species7SpeciesESaIS1_EE* %_T36530264_53664.arg, %struct._ZSt6vectorIN7species7SpeciesESaIS1_EE** %_T36530264_53664.addr, align 8, !tbaa !4327
	call void @llvm.dbg.declare (metadata %struct._ZSt6vectorIN7species7SpeciesESaIS1_EE** %_T36530264_53664.addr, metadata !6769, metadata !4319), !dbg !6765
	call void @llvm.dbg.declare (metadata i64* %__n.addr, metadata !6770, metadata !4319), !dbg !6765
	store i64 %__n.arg, i64* %__n.addr, align 8, !tbaa !4326
	call void @llvm.dbg.declare (metadata i64* %__n.addr, metadata !6771, metadata !4319), !dbg !6765
	%0 = load %struct._ZSt6vectorIN7species7SpeciesESaIS1_EE*, %struct._ZSt6vectorIN7species7SpeciesESaIS1_EE** %_T36530264_53664.addr, align 8, !tbaa !4327, !dbg !6772
	%1 = bitcast %struct._ZSt6vectorIN7species7SpeciesESaIS1_EE*  %0 to i8**, !dbg !6772
	%2 = load i8*, i8**  %1, align 8, !tbaa !4327, !dbg !6772
	%3 = load i64, i64* %__n.addr, align 8, !tbaa !4858, !dbg !6772
	%4 = mul i64  %3, 208, !dbg !6772
	%5 = getelementptr i8, i8*  %2, i64  %4, !dbg !6772
	%6 = bitcast i8*  %5 to %struct._ZN7species7SpeciesE*, !dbg !6772
	ret %struct._ZN7species7SpeciesE*  %6, !dbg !6772
}

%struct._ZSaIN8projects29FluctuationsSpeciesParametersEE = type <{ [1 x i8]}> 

define linkonce_odr void @_ZNSaIN8projects29FluctuationsSpeciesParametersEED1Ev(%struct._ZSaIN8projects29FluctuationsSpeciesParametersEE* %_T36530264_53665.arg) #0 inlinehint !dbg !6778 {
L.entry:
	%_T36530264_53665.addr = alloca %struct._ZSaIN8projects29FluctuationsSpeciesParametersEE*, align 8

	call void @llvm.dbg.declare (metadata %struct._ZSaIN8projects29FluctuationsSpeciesParametersEE** %_T36530264_53665.addr, metadata !6782, metadata !4319), !dbg !6779
	store %struct._ZSaIN8projects29FluctuationsSpeciesParametersEE* %_T36530264_53665.arg, %struct._ZSaIN8projects29FluctuationsSpeciesParametersEE** %_T36530264_53665.addr, align 8, !tbaa !4327
	call void @llvm.dbg.declare (metadata %struct._ZSaIN8projects29FluctuationsSpeciesParametersEE** %_T36530264_53665.addr, metadata !6783, metadata !4319), !dbg !6779
	ret void, !dbg !6784
}
define linkonce_odr void @_ZNSaIN8projects29FluctuationsSpeciesParametersEED2Ev(%struct._ZSaIN8projects29FluctuationsSpeciesParametersEE* %_T36530264_53666.arg) #0 inlinehint !dbg !6786 {
L.entry:
	%_T36530264_53666.addr = alloca %struct._ZSaIN8projects29FluctuationsSpeciesParametersEE*, align 8

	store %struct._ZSaIN8projects29FluctuationsSpeciesParametersEE* %_T36530264_53666.arg, %struct._ZSaIN8projects29FluctuationsSpeciesParametersEE** %_T36530264_53666.addr, align 8, !tbaa !4327
	ret void, !dbg !6794
}
define linkonce_odr %struct._ZN8projects29FluctuationsSpeciesParametersE* @_ZNSt16allocator_traitsISaIN8projects29FluctuationsSpeciesParametersEEE8allocateERS2_m(%struct._ZSaIN8projects29FluctuationsSpeciesParametersEE* %__a.arg, i64 %__n.arg) #0 inlinehint !dbg !6802 {
L.entry:
	%__a.addr = alloca %struct._ZSaIN8projects29FluctuationsSpeciesParametersEE*, align 8
	%__n.addr = alloca i64, align 8
	%..inline.addr = alloca i64, align 8
	%.Q0010.addr = alloca i8*, align 8

	call void @llvm.dbg.declare (metadata %struct._ZSaIN8projects29FluctuationsSpeciesParametersEE** %__a.addr, metadata !6814, metadata !4319), !dbg !6803
	store %struct._ZSaIN8projects29FluctuationsSpeciesParametersEE* %__a.arg, %struct._ZSaIN8projects29FluctuationsSpeciesParametersEE** %__a.addr, align 8, !tbaa !4327
	call void @llvm.dbg.declare (metadata %struct._ZSaIN8projects29FluctuationsSpeciesParametersEE** %__a.addr, metadata !6815, metadata !4319), !dbg !6803
	call void @llvm.dbg.declare (metadata i64* %__n.addr, metadata !6816, metadata !4319), !dbg !6803
	store i64 %__n.arg, i64* %__n.addr, align 8, !tbaa !4326
	call void @llvm.dbg.declare (metadata i64* %__n.addr, metadata !6817, metadata !4319), !dbg !6803
	%0 = load i64, i64* %__n.addr, align 8, !tbaa !4858, !dbg !6818
	store i64  %0, i64* %..inline.addr, align 8, !tbaa !4858, !dbg !6818
	%1 = icmp ule i64  %0, 384307168202282325, !dbg !6819
	br i1  %1, label %L..inline.78728, label %L.B1822, !dbg !6819
L.B1822:
	call void  @_ZSt17__throw_bad_allocv () noreturn, !dbg !6820
	br label %L..inline.78728
L..inline.78728:
	%2 = load i64, i64* %..inline.addr, align 8, !tbaa !4858, !dbg !6821
	%3 = mul i64  %2, 48, !dbg !6821
	%4 = call i8*  @_Znwm (i64  %3), !dbg !6821
	store i8*  %4, i8** %.Q0010.addr, align 8, !tbaa !4327, !dbg !6821
	%5 = bitcast i8*  %4 to %struct._ZN8projects29FluctuationsSpeciesParametersE*, !dbg !6821
	ret %struct._ZN8projects29FluctuationsSpeciesParametersE*  %5, !dbg !6821
}
define linkonce_odr void @_ZNSt16allocator_traitsISaIN8projects29FluctuationsSpeciesParametersEEE10deallocateERS2_PS1_m(%struct._ZSaIN8projects29FluctuationsSpeciesParametersEE* %__a.arg, %struct._ZN8projects29FluctuationsSpeciesParametersE* %__p.arg, i64 %__n.arg) #0 inlinehint !dbg !6825 {
L.entry:
	%__a.addr = alloca %struct._ZSaIN8projects29FluctuationsSpeciesParametersEE*, align 8
	%__p.addr = alloca %struct._ZN8projects29FluctuationsSpeciesParametersE*, align 8
	%__n.addr = alloca i64, align 8
	%..inline.addr = alloca %struct._ZN8projects29FluctuationsSpeciesParametersE*, align 8

	call void @llvm.dbg.declare (metadata %struct._ZSaIN8projects29FluctuationsSpeciesParametersEE** %__a.addr, metadata !6833, metadata !4319), !dbg !6826
	store %struct._ZSaIN8projects29FluctuationsSpeciesParametersEE* %__a.arg, %struct._ZSaIN8projects29FluctuationsSpeciesParametersEE** %__a.addr, align 8, !tbaa !4327
	call void @llvm.dbg.declare (metadata %struct._ZSaIN8projects29FluctuationsSpeciesParametersEE** %__a.addr, metadata !6834, metadata !4319), !dbg !6826
	call void @llvm.dbg.declare (metadata %struct._ZN8projects29FluctuationsSpeciesParametersE** %__p.addr, metadata !6835, metadata !4319), !dbg !6826
	store %struct._ZN8projects29FluctuationsSpeciesParametersE* %__p.arg, %struct._ZN8projects29FluctuationsSpeciesParametersE** %__p.addr, align 8, !tbaa !4327
	call void @llvm.dbg.declare (metadata %struct._ZN8projects29FluctuationsSpeciesParametersE** %__p.addr, metadata !6836, metadata !4319), !dbg !6826
	call void @llvm.dbg.declare (metadata i64* %__n.addr, metadata !6837, metadata !4319), !dbg !6826
	store i64 %__n.arg, i64* %__n.addr, align 8, !tbaa !4326
	call void @llvm.dbg.declare (metadata i64* %__n.addr, metadata !6838, metadata !4319), !dbg !6826
	%0 = load %struct._ZN8projects29FluctuationsSpeciesParametersE*, %struct._ZN8projects29FluctuationsSpeciesParametersE** %__p.addr, align 8, !tbaa !4327, !dbg !6839
	%1 = bitcast %struct._ZN8projects29FluctuationsSpeciesParametersE*  %0 to i8*, !dbg !6839
	%2 = bitcast %struct._ZN8projects29FluctuationsSpeciesParametersE** %..inline.addr to i8**, !dbg !6839
	store i8*  %1, i8**  %2, align 8, !tbaa !4327, !dbg !6839
	%3 = load %struct._ZN8projects29FluctuationsSpeciesParametersE*, %struct._ZN8projects29FluctuationsSpeciesParametersE** %..inline.addr, align 8, !tbaa !4327, !dbg !6840
	%4 = bitcast %struct._ZN8projects29FluctuationsSpeciesParametersE*  %3 to i8*, !dbg !6840
	call void  @_ZdlPv (i8*  %4) nounwind, !dbg !6840
	ret void, !dbg !6839
}
define linkonce_odr i64 @_ZNSt16allocator_traitsISaIN8projects29FluctuationsSpeciesParametersEEE8max_sizeERKS2_(%struct._ZSaIN8projects29FluctuationsSpeciesParametersEE* %__a.arg) #0 inlinehint !dbg !6848 {
L.entry:
	%__a.addr = alloca %struct._ZSaIN8projects29FluctuationsSpeciesParametersEE*, align 8

	call void @llvm.dbg.declare (metadata %struct._ZSaIN8projects29FluctuationsSpeciesParametersEE** %__a.addr, metadata !6856, metadata !4319), !dbg !6849
	store %struct._ZSaIN8projects29FluctuationsSpeciesParametersEE* %__a.arg, %struct._ZSaIN8projects29FluctuationsSpeciesParametersEE** %__a.addr, align 8, !tbaa !4327
	call void @llvm.dbg.declare (metadata %struct._ZSaIN8projects29FluctuationsSpeciesParametersEE** %__a.addr, metadata !6857, metadata !4319), !dbg !6849
	ret i64 384307168202282325, !dbg !6858
}
define linkonce_odr void @_ZNSt16allocator_traitsISaIN8projects29FluctuationsSpeciesParametersEEE9constructIS1_JRKS1_EEEvRS2_PT_DpOT0_(%struct._ZSaIN8projects29FluctuationsSpeciesParametersEE* %__a.arg, %struct._ZN8projects29FluctuationsSpeciesParametersE* %__p.arg, %struct._ZN8projects29FluctuationsSpeciesParametersE* %__args.arg) #0 inlinehint !dbg !6872 {
L.entry:
	%__a.addr = alloca %struct._ZSaIN8projects29FluctuationsSpeciesParametersEE*, align 8
	%__p.addr = alloca %struct._ZN8projects29FluctuationsSpeciesParametersE*, align 8
	%__args.addr = alloca %struct._ZN8projects29FluctuationsSpeciesParametersE*, align 8
	%..inline.addr = alloca %struct._ZN8projects29FluctuationsSpeciesParametersE*, align 8
	%..inline.addr.1 = alloca %struct._ZN8projects29FluctuationsSpeciesParametersE*, align 8

	call void @llvm.dbg.declare (metadata %struct._ZSaIN8projects29FluctuationsSpeciesParametersEE** %__a.addr, metadata !6892, metadata !4319), !dbg !6873
	store %struct._ZSaIN8projects29FluctuationsSpeciesParametersEE* %__a.arg, %struct._ZSaIN8projects29FluctuationsSpeciesParametersEE** %__a.addr, align 8, !tbaa !4327
	call void @llvm.dbg.declare (metadata %struct._ZSaIN8projects29FluctuationsSpeciesParametersEE** %__a.addr, metadata !6893, metadata !4319), !dbg !6873
	call void @llvm.dbg.declare (metadata %struct._ZN8projects29FluctuationsSpeciesParametersE** %__p.addr, metadata !6894, metadata !4319), !dbg !6873
	store %struct._ZN8projects29FluctuationsSpeciesParametersE* %__p.arg, %struct._ZN8projects29FluctuationsSpeciesParametersE** %__p.addr, align 8, !tbaa !4327
	call void @llvm.dbg.declare (metadata %struct._ZN8projects29FluctuationsSpeciesParametersE** %__p.addr, metadata !6895, metadata !4319), !dbg !6873
	call void @llvm.dbg.declare (metadata %struct._ZN8projects29FluctuationsSpeciesParametersE** %__args.addr, metadata !6896, metadata !4319), !dbg !6873
	store %struct._ZN8projects29FluctuationsSpeciesParametersE* %__args.arg, %struct._ZN8projects29FluctuationsSpeciesParametersE** %__args.addr, align 8, !tbaa !4327
	call void @llvm.dbg.declare (metadata %struct._ZN8projects29FluctuationsSpeciesParametersE** %__args.addr, metadata !6897, metadata !4319), !dbg !6873
	%0 = load %struct._ZN8projects29FluctuationsSpeciesParametersE*, %struct._ZN8projects29FluctuationsSpeciesParametersE** %__p.addr, align 8, !tbaa !4327, !dbg !6898
	%1 = bitcast %struct._ZN8projects29FluctuationsSpeciesParametersE*  %0 to i8*, !dbg !6898
	%2 = bitcast %struct._ZN8projects29FluctuationsSpeciesParametersE** %..inline.addr to i8**, !dbg !6898
	store i8*  %1, i8**  %2, align 8, !tbaa !4327, !dbg !6898
	%3 = load %struct._ZN8projects29FluctuationsSpeciesParametersE*, %struct._ZN8projects29FluctuationsSpeciesParametersE** %..inline.addr, align 8, !tbaa !4327, !dbg !6898
	%4 = bitcast %struct._ZN8projects29FluctuationsSpeciesParametersE*  %3 to i8*, !dbg !6898
	%5 = icmp eq i8*  %4,  null, !dbg !6898
	br i1  %5, label %L..inline.78794, label %L.B1831, !dbg !6898
L.B1831:
	%6 = load %struct._ZN8projects29FluctuationsSpeciesParametersE*, %struct._ZN8projects29FluctuationsSpeciesParametersE** %__args.addr, align 8, !tbaa !4327, !dbg !6898
	%7 = bitcast %struct._ZN8projects29FluctuationsSpeciesParametersE*  %6 to i8*, !dbg !6898
	%8 = bitcast %struct._ZN8projects29FluctuationsSpeciesParametersE** %..inline.addr.1 to i8**, !dbg !6898
	store i8*  %7, i8**  %8, align 8, !tbaa !4327, !dbg !6898
	%9 = load %struct._ZN8projects29FluctuationsSpeciesParametersE*, %struct._ZN8projects29FluctuationsSpeciesParametersE** %..inline.addr.1, align 8, !tbaa !4327, !dbg !6898
	%10 = bitcast %struct._ZN8projects29FluctuationsSpeciesParametersE*  %9 to double*, !dbg !6898
	%11 = load double, double*  %10, align 8, !tbaa !4326, !dbg !6898
	%12 = bitcast %struct._ZN8projects29FluctuationsSpeciesParametersE*  %3 to double*, !dbg !6898
	store double  %11, double*  %12, align 8, !tbaa !4326, !dbg !6898
	%13 = bitcast double*  %10 to i8*, !dbg !6898
	%14 = getelementptr i8, i8*  %13, i64 8, !dbg !6898
	%15 = bitcast i8*  %14 to double*, !dbg !6898
	%16 = load double, double*  %15, align 8, !tbaa !4326, !dbg !6898
	%17 = bitcast double*  %12 to i8*, !dbg !6898
	%18 = getelementptr i8, i8*  %17, i64 8, !dbg !6898
	%19 = bitcast i8*  %18 to double*, !dbg !6898
	store double  %16, double*  %19, align 8, !tbaa !4326, !dbg !6898
	%20 = getelementptr i8, i8*  %13, i64 16, !dbg !6898
	%21 = bitcast i8*  %20 to double*, !dbg !6898
	%22 = load double, double*  %21, align 8, !tbaa !4326, !dbg !6898
	%23 = getelementptr i8, i8*  %17, i64 16, !dbg !6898
	%24 = bitcast i8*  %23 to double*, !dbg !6898
	store double  %22, double*  %24, align 8, !tbaa !4326, !dbg !6898
	%25 = getelementptr i8, i8*  %13, i64 24, !dbg !6898
	%26 = bitcast i8*  %25 to double*, !dbg !6898
	%27 = load double, double*  %26, align 8, !tbaa !4326, !dbg !6898
	%28 = getelementptr i8, i8*  %17, i64 24, !dbg !6898
	%29 = bitcast i8*  %28 to double*, !dbg !6898
	store double  %27, double*  %29, align 8, !tbaa !4326, !dbg !6898
	%30 = getelementptr i8, i8*  %13, i64 32, !dbg !6898
	%31 = bitcast i8*  %30 to double*, !dbg !6898
	%32 = load double, double*  %31, align 8, !tbaa !4326, !dbg !6898
	%33 = getelementptr i8, i8*  %17, i64 32, !dbg !6898
	%34 = bitcast i8*  %33 to double*, !dbg !6898
	store double  %32, double*  %34, align 8, !tbaa !4326, !dbg !6898
	%35 = getelementptr i8, i8*  %13, i64 40, !dbg !6898
	%36 = bitcast i8*  %35 to i32*, !dbg !6898
	%37 = load i32, i32*  %36, align 4, !tbaa !4326, !dbg !6898
	%38 = getelementptr i8, i8*  %17, i64 40, !dbg !6898
	%39 = bitcast i8*  %38 to i32*, !dbg !6898
	store i32  %37, i32*  %39, align 4, !tbaa !4326, !dbg !6898
	%40 = getelementptr i8, i8*  %13, i64 44, !dbg !6898
	%41 = bitcast i8*  %40 to i32*, !dbg !6898
	%42 = load i32, i32*  %41, align 4, !tbaa !4326, !dbg !6898
	%43 = getelementptr i8, i8*  %17, i64 44, !dbg !6898
	%44 = bitcast i8*  %43 to i32*, !dbg !6898
	store i32  %42, i32*  %44, align 4, !tbaa !4326, !dbg !6898
	br label %L..inline.78804, !dbg !6898
L..inline.78794:
	br label %L..inline.78804
L..inline.78804:
	ret void, !dbg !6899
}
define linkonce_odr void @_ZNSt16allocator_traitsISaIN8projects29FluctuationsSpeciesParametersEEE7destroyIS1_EEvRS2_PT_(%struct._ZSaIN8projects29FluctuationsSpeciesParametersEE* %__a.arg, %struct._ZN8projects29FluctuationsSpeciesParametersE* %__p.arg) #0 inlinehint !dbg !6903 {
L.entry:
	%__a.addr = alloca %struct._ZSaIN8projects29FluctuationsSpeciesParametersEE*, align 8
	%__p.addr = alloca %struct._ZN8projects29FluctuationsSpeciesParametersE*, align 8

	call void @llvm.dbg.declare (metadata %struct._ZSaIN8projects29FluctuationsSpeciesParametersEE** %__a.addr, metadata !6911, metadata !4319), !dbg !6904
	store %struct._ZSaIN8projects29FluctuationsSpeciesParametersEE* %__a.arg, %struct._ZSaIN8projects29FluctuationsSpeciesParametersEE** %__a.addr, align 8, !tbaa !4327
	call void @llvm.dbg.declare (metadata %struct._ZSaIN8projects29FluctuationsSpeciesParametersEE** %__a.addr, metadata !6912, metadata !4319), !dbg !6904
	call void @llvm.dbg.declare (metadata %struct._ZN8projects29FluctuationsSpeciesParametersE** %__p.addr, metadata !6913, metadata !4319), !dbg !6904
	store %struct._ZN8projects29FluctuationsSpeciesParametersE* %__p.arg, %struct._ZN8projects29FluctuationsSpeciesParametersE** %__p.addr, align 8, !tbaa !4327
	call void @llvm.dbg.declare (metadata %struct._ZN8projects29FluctuationsSpeciesParametersE** %__p.addr, metadata !6914, metadata !4319), !dbg !6904
	ret void, !dbg !6915
}

%struct._ZSt12_Vector_baseIN8projects29FluctuationsSpeciesParametersESaIS1_EE = type <{ %struct._ZNSt12_Vector_baseIN8projects29FluctuationsSpeciesParametersESaIS1_EE12_Vector_implE}> 
%struct._ZNSt12_Vector_baseIN8projects29FluctuationsSpeciesParametersESaIS1_EE12_Vector_implE = type <{ %struct._ZNSt12_Vector_baseIN8projects29FluctuationsSpeciesParametersESaIS1_EE17_Vector_impl_dataE}> 
%struct._ZNSt12_Vector_baseIN8projects29FluctuationsSpeciesParametersESaIS1_EE17_Vector_impl_dataE = type <{ %struct._ZN8projects29FluctuationsSpeciesParametersE*, %struct._ZN8projects29FluctuationsSpeciesParametersE*, %struct._ZN8projects29FluctuationsSpeciesParametersE*}> 

define linkonce_odr %struct._ZSaIN8projects29FluctuationsSpeciesParametersEE* @_ZNSt12_Vector_baseIN8projects29FluctuationsSpeciesParametersESaIS1_EE19_M_get_Tp_allocatorEv(%struct._ZSt12_Vector_baseIN8projects29FluctuationsSpeciesParametersESaIS1_EE* %_T36530264_53679.arg) #0 inlinehint !dbg !6921 {
L.entry:
	%_T36530264_53679.addr = alloca %struct._ZSt12_Vector_baseIN8projects29FluctuationsSpeciesParametersESaIS1_EE*, align 8

	call void @llvm.dbg.declare (metadata %struct._ZSt12_Vector_baseIN8projects29FluctuationsSpeciesParametersESaIS1_EE** %_T36530264_53679.addr, metadata !6925, metadata !4319), !dbg !6922
	store %struct._ZSt12_Vector_baseIN8projects29FluctuationsSpeciesParametersESaIS1_EE* %_T36530264_53679.arg, %struct._ZSt12_Vector_baseIN8projects29FluctuationsSpeciesParametersESaIS1_EE** %_T36530264_53679.addr, align 8, !tbaa !4327
	call void @llvm.dbg.declare (metadata %struct._ZSt12_Vector_baseIN8projects29FluctuationsSpeciesParametersESaIS1_EE** %_T36530264_53679.addr, metadata !6926, metadata !4319), !dbg !6922
	%0 = load %struct._ZSt12_Vector_baseIN8projects29FluctuationsSpeciesParametersESaIS1_EE*, %struct._ZSt12_Vector_baseIN8projects29FluctuationsSpeciesParametersESaIS1_EE** %_T36530264_53679.addr, align 8, !tbaa !4327, !dbg !6927
	%1 = bitcast %struct._ZSt12_Vector_baseIN8projects29FluctuationsSpeciesParametersESaIS1_EE*  %0 to %struct._ZSaIN8projects29FluctuationsSpeciesParametersEE*, !dbg !6927
	ret %struct._ZSaIN8projects29FluctuationsSpeciesParametersEE*  %1, !dbg !6927
}
define linkonce_odr %struct._ZSaIN8projects29FluctuationsSpeciesParametersEE* @_ZNKSt12_Vector_baseIN8projects29FluctuationsSpeciesParametersESaIS1_EE19_M_get_Tp_allocatorEv(%struct._ZSt12_Vector_baseIN8projects29FluctuationsSpeciesParametersESaIS1_EE* %_T36530264_53680.arg) #0 inlinehint !dbg !6929 {
L.entry:
	%_T36530264_53680.addr = alloca %struct._ZSt12_Vector_baseIN8projects29FluctuationsSpeciesParametersESaIS1_EE*, align 8

	call void @llvm.dbg.declare (metadata %struct._ZSt12_Vector_baseIN8projects29FluctuationsSpeciesParametersESaIS1_EE** %_T36530264_53680.addr, metadata !6933, metadata !4319), !dbg !6930
	store %struct._ZSt12_Vector_baseIN8projects29FluctuationsSpeciesParametersESaIS1_EE* %_T36530264_53680.arg, %struct._ZSt12_Vector_baseIN8projects29FluctuationsSpeciesParametersESaIS1_EE** %_T36530264_53680.addr, align 8, !tbaa !4327
	call void @llvm.dbg.declare (metadata %struct._ZSt12_Vector_baseIN8projects29FluctuationsSpeciesParametersESaIS1_EE** %_T36530264_53680.addr, metadata !6934, metadata !4319), !dbg !6930
	%0 = load %struct._ZSt12_Vector_baseIN8projects29FluctuationsSpeciesParametersESaIS1_EE*, %struct._ZSt12_Vector_baseIN8projects29FluctuationsSpeciesParametersESaIS1_EE** %_T36530264_53680.addr, align 8, !tbaa !4327, !dbg !6935
	%1 = bitcast %struct._ZSt12_Vector_baseIN8projects29FluctuationsSpeciesParametersESaIS1_EE*  %0 to %struct._ZSaIN8projects29FluctuationsSpeciesParametersEE*, !dbg !6935
	ret %struct._ZSaIN8projects29FluctuationsSpeciesParametersEE*  %1, !dbg !6935
}
define linkonce_odr void @_ZNSt12_Vector_baseIN8projects29FluctuationsSpeciesParametersESaIS1_EEC1Ev(%struct._ZSt12_Vector_baseIN8projects29FluctuationsSpeciesParametersESaIS1_EE* %_T36530264_53681.arg) #0 inlinehint !dbg !6939 {
L.entry:
	%_T36530264_53681.addr = alloca %struct._ZSt12_Vector_baseIN8projects29FluctuationsSpeciesParametersESaIS1_EE*, align 8
	%..inline.addr = alloca %struct._ZNSt12_Vector_baseIN8projects29FluctuationsSpeciesParametersESaIS1_EE17_Vector_impl_dataE*, align 8

	call void @llvm.dbg.declare (metadata %struct._ZSt12_Vector_baseIN8projects29FluctuationsSpeciesParametersESaIS1_EE** %_T36530264_53681.addr, metadata !6955, metadata !4319), !dbg !6940
	store %struct._ZSt12_Vector_baseIN8projects29FluctuationsSpeciesParametersESaIS1_EE* %_T36530264_53681.arg, %struct._ZSt12_Vector_baseIN8projects29FluctuationsSpeciesParametersESaIS1_EE** %_T36530264_53681.addr, align 8, !tbaa !4327
	call void @llvm.dbg.declare (metadata %struct._ZSt12_Vector_baseIN8projects29FluctuationsSpeciesParametersESaIS1_EE** %_T36530264_53681.addr, metadata !6956, metadata !4319), !dbg !6940
	%0 = load %struct._ZSt12_Vector_baseIN8projects29FluctuationsSpeciesParametersESaIS1_EE*, %struct._ZSt12_Vector_baseIN8projects29FluctuationsSpeciesParametersESaIS1_EE** %_T36530264_53681.addr, align 8, !tbaa !4327, !dbg !6957
	%1 = bitcast %struct._ZSt12_Vector_baseIN8projects29FluctuationsSpeciesParametersESaIS1_EE*  %0 to i8*, !dbg !6957
	%2 = bitcast %struct._ZNSt12_Vector_baseIN8projects29FluctuationsSpeciesParametersESaIS1_EE17_Vector_impl_dataE** %..inline.addr to i8**, !dbg !6957
	store i8*  %1, i8**  %2, align 8, !tbaa !4327, !dbg !6957
	%3 = load %struct._ZNSt12_Vector_baseIN8projects29FluctuationsSpeciesParametersESaIS1_EE17_Vector_impl_dataE*, %struct._ZNSt12_Vector_baseIN8projects29FluctuationsSpeciesParametersESaIS1_EE17_Vector_impl_dataE** %..inline.addr, align 8, !tbaa !4327, !dbg !6957
	%4 = bitcast %struct._ZNSt12_Vector_baseIN8projects29FluctuationsSpeciesParametersESaIS1_EE17_Vector_impl_dataE*  %3 to i8**, !dbg !6957
	store i8* null, i8**  %4, align 8, !tbaa !4327, !dbg !6957
	%5 = bitcast %struct._ZNSt12_Vector_baseIN8projects29FluctuationsSpeciesParametersESaIS1_EE17_Vector_impl_dataE*  %3 to i8*, !dbg !6957
	%6 = getelementptr i8, i8*  %5, i64 8, !dbg !6957
	%7 = bitcast i8*  %6 to i8**, !dbg !6957
	store i8* null, i8**  %7, align 8, !tbaa !4327, !dbg !6957
	%8 = getelementptr i8, i8*  %5, i64 16, !dbg !6957
	%9 = bitcast i8*  %8 to i8**, !dbg !6957
	store i8* null, i8**  %9, align 8, !tbaa !4327, !dbg !6957
	ret void, !dbg !6957
}
define linkonce_odr void @_ZNSt12_Vector_baseIN8projects29FluctuationsSpeciesParametersESaIS1_EEC2Ev(%struct._ZSt12_Vector_baseIN8projects29FluctuationsSpeciesParametersESaIS1_EE* %_T36530264_53682.arg) #0 inlinehint !dbg !6959 {
L.entry:
	%_T36530264_53682.addr = alloca %struct._ZSt12_Vector_baseIN8projects29FluctuationsSpeciesParametersESaIS1_EE*, align 8
	%..inline.addr = alloca %struct._ZNSt12_Vector_baseIN8projects29FluctuationsSpeciesParametersESaIS1_EE17_Vector_impl_dataE*, align 8

	store %struct._ZSt12_Vector_baseIN8projects29FluctuationsSpeciesParametersESaIS1_EE* %_T36530264_53682.arg, %struct._ZSt12_Vector_baseIN8projects29FluctuationsSpeciesParametersESaIS1_EE** %_T36530264_53682.addr, align 8, !tbaa !4327
	%0 = load %struct._ZSt12_Vector_baseIN8projects29FluctuationsSpeciesParametersESaIS1_EE*, %struct._ZSt12_Vector_baseIN8projects29FluctuationsSpeciesParametersESaIS1_EE** %_T36530264_53682.addr, align 8, !tbaa !4327, !dbg !6979
	%1 = bitcast %struct._ZSt12_Vector_baseIN8projects29FluctuationsSpeciesParametersESaIS1_EE*  %0 to i8*, !dbg !6979
	%2 = bitcast %struct._ZNSt12_Vector_baseIN8projects29FluctuationsSpeciesParametersESaIS1_EE17_Vector_impl_dataE** %..inline.addr to i8**, !dbg !6979
	store i8*  %1, i8**  %2, align 8, !tbaa !4327, !dbg !6979
	%3 = load %struct._ZNSt12_Vector_baseIN8projects29FluctuationsSpeciesParametersESaIS1_EE17_Vector_impl_dataE*, %struct._ZNSt12_Vector_baseIN8projects29FluctuationsSpeciesParametersESaIS1_EE17_Vector_impl_dataE** %..inline.addr, align 8, !tbaa !4327, !dbg !6979
	%4 = bitcast %struct._ZNSt12_Vector_baseIN8projects29FluctuationsSpeciesParametersESaIS1_EE17_Vector_impl_dataE*  %3 to i8**, !dbg !6979
	store i8* null, i8**  %4, align 8, !tbaa !4327, !dbg !6979
	%5 = bitcast %struct._ZNSt12_Vector_baseIN8projects29FluctuationsSpeciesParametersESaIS1_EE17_Vector_impl_dataE*  %3 to i8*, !dbg !6979
	%6 = getelementptr i8, i8*  %5, i64 8, !dbg !6979
	%7 = bitcast i8*  %6 to i8**, !dbg !6979
	store i8* null, i8**  %7, align 8, !tbaa !4327, !dbg !6979
	%8 = getelementptr i8, i8*  %5, i64 16, !dbg !6979
	%9 = bitcast i8*  %8 to i8**, !dbg !6979
	store i8* null, i8**  %9, align 8, !tbaa !4327, !dbg !6979
	ret void, !dbg !6979
}
define linkonce_odr void @_ZNSt12_Vector_baseIN8projects29FluctuationsSpeciesParametersESaIS1_EED1Ev(%struct._ZSt12_Vector_baseIN8projects29FluctuationsSpeciesParametersESaIS1_EE* %_T36530264_53683.arg) #0 inlinehint !dbg !6981 {
L.entry:
	%_T36530264_53683.addr = alloca %struct._ZSt12_Vector_baseIN8projects29FluctuationsSpeciesParametersESaIS1_EE*, align 8
	%..inline.addr = alloca %struct._ZN8projects29FluctuationsSpeciesParametersE*, align 8

	call void @llvm.dbg.declare (metadata %struct._ZSt12_Vector_baseIN8projects29FluctuationsSpeciesParametersESaIS1_EE** %_T36530264_53683.addr, metadata !7009, metadata !4319), !dbg !6982
	store %struct._ZSt12_Vector_baseIN8projects29FluctuationsSpeciesParametersESaIS1_EE* %_T36530264_53683.arg, %struct._ZSt12_Vector_baseIN8projects29FluctuationsSpeciesParametersESaIS1_EE** %_T36530264_53683.addr, align 8, !tbaa !4327
	call void @llvm.dbg.declare (metadata %struct._ZSt12_Vector_baseIN8projects29FluctuationsSpeciesParametersESaIS1_EE** %_T36530264_53683.addr, metadata !7010, metadata !4319), !dbg !6982
	%0 = load %struct._ZSt12_Vector_baseIN8projects29FluctuationsSpeciesParametersESaIS1_EE*, %struct._ZSt12_Vector_baseIN8projects29FluctuationsSpeciesParametersESaIS1_EE** %_T36530264_53683.addr, align 8, !tbaa !4327, !dbg !7011
	%1 = bitcast %struct._ZSt12_Vector_baseIN8projects29FluctuationsSpeciesParametersESaIS1_EE*  %0 to i8**, !dbg !7011
	%2 = load i8*, i8**  %1, align 8, !tbaa !4327, !dbg !7011
	%3 = icmp eq i8*  %2,  null, !dbg !7011
	br i1  %3, label %L..inline.78903, label %L.B1842, !dbg !7011
L.B1842:
	%4 = bitcast %struct._ZSt12_Vector_baseIN8projects29FluctuationsSpeciesParametersESaIS1_EE*  %0 to i8**, !dbg !7012
	%5 = load i8*, i8**  %4, align 8, !tbaa !4327, !dbg !7012
	%6 = bitcast %struct._ZN8projects29FluctuationsSpeciesParametersE** %..inline.addr to i8**, !dbg !7012
	store i8*  %5, i8**  %6, align 8, !tbaa !4327, !dbg !7012
	%7 = load %struct._ZN8projects29FluctuationsSpeciesParametersE*, %struct._ZN8projects29FluctuationsSpeciesParametersE** %..inline.addr, align 8, !tbaa !4327, !dbg !7012
	%8 = bitcast %struct._ZN8projects29FluctuationsSpeciesParametersE*  %7 to i8*, !dbg !7012
	call void  @_ZdlPv (i8*  %8) nounwind, !dbg !7012
	br label %L..inline.78903
L..inline.78903:
	ret void, !dbg !7013
}
define linkonce_odr void @_ZNSt12_Vector_baseIN8projects29FluctuationsSpeciesParametersESaIS1_EED2Ev(%struct._ZSt12_Vector_baseIN8projects29FluctuationsSpeciesParametersESaIS1_EE* %_T36530264_53684.arg) #0 inlinehint !dbg !7015 {
L.entry:
	%_T36530264_53684.addr = alloca %struct._ZSt12_Vector_baseIN8projects29FluctuationsSpeciesParametersESaIS1_EE*, align 8
	%..inline.addr = alloca %struct._ZSt12_Vector_baseIN8projects29FluctuationsSpeciesParametersESaIS1_EE*, align 8
	%..inline.addr.1 = alloca %struct._ZN8projects29FluctuationsSpeciesParametersE*, align 8

	store %struct._ZSt12_Vector_baseIN8projects29FluctuationsSpeciesParametersESaIS1_EE* %_T36530264_53684.arg, %struct._ZSt12_Vector_baseIN8projects29FluctuationsSpeciesParametersESaIS1_EE** %_T36530264_53684.addr, align 8, !tbaa !4327
	%0 = load %struct._ZSt12_Vector_baseIN8projects29FluctuationsSpeciesParametersESaIS1_EE*, %struct._ZSt12_Vector_baseIN8projects29FluctuationsSpeciesParametersESaIS1_EE** %_T36530264_53684.addr, align 8, !tbaa !4327, !dbg !7047
	%1 = bitcast %struct._ZSt12_Vector_baseIN8projects29FluctuationsSpeciesParametersESaIS1_EE*  %0 to i8*, !dbg !7047
	%2 = bitcast %struct._ZSt12_Vector_baseIN8projects29FluctuationsSpeciesParametersESaIS1_EE** %..inline.addr to i8**, !dbg !7047
	store i8*  %1, i8**  %2, align 8, !tbaa !4327, !dbg !7047
	%3 = load %struct._ZSt12_Vector_baseIN8projects29FluctuationsSpeciesParametersESaIS1_EE*, %struct._ZSt12_Vector_baseIN8projects29FluctuationsSpeciesParametersESaIS1_EE** %..inline.addr, align 8, !tbaa !4327, !dbg !7047
	%4 = bitcast %struct._ZSt12_Vector_baseIN8projects29FluctuationsSpeciesParametersESaIS1_EE*  %3 to i8**, !dbg !7047
	%5 = load i8*, i8**  %4, align 8, !tbaa !4327, !dbg !7047
	%6 = icmp eq i8*  %5,  null, !dbg !7047
	br i1  %6, label %L..inline.78962, label %L.B1845, !dbg !7047
L.B1845:
	%7 = bitcast %struct._ZSt12_Vector_baseIN8projects29FluctuationsSpeciesParametersESaIS1_EE*  %3 to i8**, !dbg !7047
	%8 = load i8*, i8**  %7, align 8, !tbaa !4327, !dbg !7047
	%9 = bitcast %struct._ZN8projects29FluctuationsSpeciesParametersE** %..inline.addr.1 to i8**, !dbg !7047
	store i8*  %8, i8**  %9, align 8, !tbaa !4327, !dbg !7047
	%10 = load %struct._ZN8projects29FluctuationsSpeciesParametersE*, %struct._ZN8projects29FluctuationsSpeciesParametersE** %..inline.addr.1, align 8, !tbaa !4327, !dbg !7047
	%11 = bitcast %struct._ZN8projects29FluctuationsSpeciesParametersE*  %10 to i8*, !dbg !7047
	call void  @_ZdlPv (i8*  %11) nounwind, !dbg !7047
	br label %L..inline.78962
L..inline.78962:
	ret void, !dbg !7048
}
define linkonce_odr %struct._ZN8projects29FluctuationsSpeciesParametersE* @_ZNSt12_Vector_baseIN8projects29FluctuationsSpeciesParametersESaIS1_EE11_M_allocateEm(%struct._ZSt12_Vector_baseIN8projects29FluctuationsSpeciesParametersESaIS1_EE* %_T36530264_53687.arg, i64 %__n.arg) #0 inlinehint !dbg !7052 {
L.entry:
	%_T36530264_53687.addr = alloca %struct._ZSt12_Vector_baseIN8projects29FluctuationsSpeciesParametersESaIS1_EE*, align 8
	%__n.addr = alloca i64, align 8
	%..inline.addr = alloca i64, align 8
	%.Q0011.addr = alloca i8*, align 8
	%.I0005.addr = alloca %struct._ZN8projects29FluctuationsSpeciesParametersE*, align 8

	call void @llvm.dbg.declare (metadata %struct._ZSt12_Vector_baseIN8projects29FluctuationsSpeciesParametersESaIS1_EE** %_T36530264_53687.addr, metadata !7068, metadata !4319), !dbg !7053
	store %struct._ZSt12_Vector_baseIN8projects29FluctuationsSpeciesParametersESaIS1_EE* %_T36530264_53687.arg, %struct._ZSt12_Vector_baseIN8projects29FluctuationsSpeciesParametersESaIS1_EE** %_T36530264_53687.addr, align 8, !tbaa !4327
	call void @llvm.dbg.declare (metadata %struct._ZSt12_Vector_baseIN8projects29FluctuationsSpeciesParametersESaIS1_EE** %_T36530264_53687.addr, metadata !7069, metadata !4319), !dbg !7053
	call void @llvm.dbg.declare (metadata i64* %__n.addr, metadata !7070, metadata !4319), !dbg !7053
	store i64 %__n.arg, i64* %__n.addr, align 8, !tbaa !4326
	call void @llvm.dbg.declare (metadata i64* %__n.addr, metadata !7071, metadata !4319), !dbg !7053
	%0 = load i64, i64* %__n.addr, align 8, !tbaa !4858, !dbg !7072
	%1 = icmp eq i64  %0, 0, !dbg !7072
	br i1  %1, label %L.B0023, label %L.B1848, !dbg !7072
L.B1848:
	store i64  %0, i64* %..inline.addr, align 8, !tbaa !4858, !dbg !7073
	%2 = icmp ule i64  %0, 384307168202282325, !dbg !7073
	br i1  %2, label %L..inline.79028, label %L.B1849, !dbg !7073
L.B1849:
	call void  @_ZSt17__throw_bad_allocv () noreturn, !dbg !7073
	br label %L..inline.79028
L..inline.79028:
	%3 = load i64, i64* %..inline.addr, align 8, !tbaa !4858, !dbg !7073
	%4 = mul i64  %3, 48, !dbg !7073
	%5 = call i8*  @_Znwm (i64  %4), !dbg !7073
	store i8*  %5, i8** %.Q0011.addr, align 8, !tbaa !4327, !dbg !7073
	%6 = bitcast %struct._ZN8projects29FluctuationsSpeciesParametersE** %.I0005.addr to i8**, !dbg !7073
	store i8*  %5, i8**  %6, align 8, !tbaa !4327, !dbg !7073
	br label %L.B0024, !dbg !7072
L.B0023:
	%7 = bitcast %struct._ZN8projects29FluctuationsSpeciesParametersE** %.I0005.addr to i8**, !dbg !7072
	store i8* null, i8**  %7, align 8, !tbaa !4327, !dbg !7072
	br label %L.B0024
L.B0024:
	%8 = load %struct._ZN8projects29FluctuationsSpeciesParametersE*, %struct._ZN8projects29FluctuationsSpeciesParametersE** %.I0005.addr, align 8, !tbaa !4327, !dbg !7072
	ret %struct._ZN8projects29FluctuationsSpeciesParametersE*  %8, !dbg !7072
}
define linkonce_odr void @_ZNSt12_Vector_baseIN8projects29FluctuationsSpeciesParametersESaIS1_EE13_M_deallocateEPS1_m(%struct._ZSt12_Vector_baseIN8projects29FluctuationsSpeciesParametersESaIS1_EE* %_T36530264_53690.arg, %struct._ZN8projects29FluctuationsSpeciesParametersE* %__p.arg, i64 %__n.arg) #0 inlinehint !dbg !7078 {
L.entry:
	%_T36530264_53690.addr = alloca %struct._ZSt12_Vector_baseIN8projects29FluctuationsSpeciesParametersESaIS1_EE*, align 8
	%__p.addr = alloca %struct._ZN8projects29FluctuationsSpeciesParametersE*, align 8
	%__n.addr = alloca i64, align 8
	%..inline.addr = alloca %struct._ZN8projects29FluctuationsSpeciesParametersE*, align 8

	call void @llvm.dbg.declare (metadata %struct._ZSt12_Vector_baseIN8projects29FluctuationsSpeciesParametersESaIS1_EE** %_T36530264_53690.addr, metadata !7090, metadata !4319), !dbg !7079
	store %struct._ZSt12_Vector_baseIN8projects29FluctuationsSpeciesParametersESaIS1_EE* %_T36530264_53690.arg, %struct._ZSt12_Vector_baseIN8projects29FluctuationsSpeciesParametersESaIS1_EE** %_T36530264_53690.addr, align 8, !tbaa !4327
	call void @llvm.dbg.declare (metadata %struct._ZSt12_Vector_baseIN8projects29FluctuationsSpeciesParametersESaIS1_EE** %_T36530264_53690.addr, metadata !7091, metadata !4319), !dbg !7079
	call void @llvm.dbg.declare (metadata %struct._ZN8projects29FluctuationsSpeciesParametersE** %__p.addr, metadata !7092, metadata !4319), !dbg !7079
	store %struct._ZN8projects29FluctuationsSpeciesParametersE* %__p.arg, %struct._ZN8projects29FluctuationsSpeciesParametersE** %__p.addr, align 8, !tbaa !4327
	call void @llvm.dbg.declare (metadata %struct._ZN8projects29FluctuationsSpeciesParametersE** %__p.addr, metadata !7093, metadata !4319), !dbg !7079
	call void @llvm.dbg.declare (metadata i64* %__n.addr, metadata !7094, metadata !4319), !dbg !7079
	store i64 %__n.arg, i64* %__n.addr, align 8, !tbaa !4326
	call void @llvm.dbg.declare (metadata i64* %__n.addr, metadata !7095, metadata !4319), !dbg !7079
	%0 = load %struct._ZN8projects29FluctuationsSpeciesParametersE*, %struct._ZN8projects29FluctuationsSpeciesParametersE** %__p.addr, align 8, !tbaa !4327, !dbg !7096
	%1 = bitcast %struct._ZN8projects29FluctuationsSpeciesParametersE*  %0 to i8*, !dbg !7096
	%2 = icmp eq i8*  %1,  null, !dbg !7096
	br i1  %2, label %L.B0025, label %L.B1852, !dbg !7096
L.B1852:
	%3 = bitcast %struct._ZN8projects29FluctuationsSpeciesParametersE*  %0 to i8*, !dbg !7097
	%4 = bitcast %struct._ZN8projects29FluctuationsSpeciesParametersE** %..inline.addr to i8**, !dbg !7097
	store i8*  %3, i8**  %4, align 8, !tbaa !4327, !dbg !7097
	%5 = load %struct._ZN8projects29FluctuationsSpeciesParametersE*, %struct._ZN8projects29FluctuationsSpeciesParametersE** %..inline.addr, align 8, !tbaa !4327, !dbg !7097
	%6 = bitcast %struct._ZN8projects29FluctuationsSpeciesParametersE*  %5 to i8*, !dbg !7097
	call void  @_ZdlPv (i8*  %6) nounwind, !dbg !7097
	br label %L.B0025
L.B0025:
	ret void, !dbg !7098
}
define linkonce_odr void @_ZNSt12_Vector_baseIN8projects29FluctuationsSpeciesParametersESaIS1_EE17_Vector_impl_dataC1Ev(%struct._ZNSt12_Vector_baseIN8projects29FluctuationsSpeciesParametersESaIS1_EE17_Vector_impl_dataE* %_T36530264_53691.arg) #0 inlinehint !dbg !7103 {
L.entry:
	%_T36530264_53691.addr = alloca %struct._ZNSt12_Vector_baseIN8projects29FluctuationsSpeciesParametersESaIS1_EE17_Vector_impl_dataE*, align 8

	call void @llvm.dbg.declare (metadata %struct._ZNSt12_Vector_baseIN8projects29FluctuationsSpeciesParametersESaIS1_EE17_Vector_impl_dataE** %_T36530264_53691.addr, metadata !7107, metadata !4319), !dbg !7104
	store %struct._ZNSt12_Vector_baseIN8projects29FluctuationsSpeciesParametersESaIS1_EE17_Vector_impl_dataE* %_T36530264_53691.arg, %struct._ZNSt12_Vector_baseIN8projects29FluctuationsSpeciesParametersESaIS1_EE17_Vector_impl_dataE** %_T36530264_53691.addr, align 8, !tbaa !4327
	call void @llvm.dbg.declare (metadata %struct._ZNSt12_Vector_baseIN8projects29FluctuationsSpeciesParametersESaIS1_EE17_Vector_impl_dataE** %_T36530264_53691.addr, metadata !7108, metadata !4319), !dbg !7104
	%0 = load %struct._ZNSt12_Vector_baseIN8projects29FluctuationsSpeciesParametersESaIS1_EE17_Vector_impl_dataE*, %struct._ZNSt12_Vector_baseIN8projects29FluctuationsSpeciesParametersESaIS1_EE17_Vector_impl_dataE** %_T36530264_53691.addr, align 8, !tbaa !4327, !dbg !7109
	%1 = bitcast %struct._ZNSt12_Vector_baseIN8projects29FluctuationsSpeciesParametersESaIS1_EE17_Vector_impl_dataE*  %0 to i8**, !dbg !7109
	store i8* null, i8**  %1, align 8, !tbaa !4327, !dbg !7109
	%2 = bitcast %struct._ZNSt12_Vector_baseIN8projects29FluctuationsSpeciesParametersESaIS1_EE17_Vector_impl_dataE*  %0 to i8*, !dbg !7109
	%3 = getelementptr i8, i8*  %2, i64 8, !dbg !7109
	%4 = bitcast i8*  %3 to i8**, !dbg !7109
	store i8* null, i8**  %4, align 8, !tbaa !4327, !dbg !7109
	%5 = getelementptr i8, i8*  %2, i64 16, !dbg !7109
	%6 = bitcast i8*  %5 to i8**, !dbg !7109
	store i8* null, i8**  %6, align 8, !tbaa !4327, !dbg !7109
	ret void, !dbg !7109
}
define linkonce_odr void @_ZNSt12_Vector_baseIN8projects29FluctuationsSpeciesParametersESaIS1_EE17_Vector_impl_dataC2Ev(%struct._ZNSt12_Vector_baseIN8projects29FluctuationsSpeciesParametersESaIS1_EE17_Vector_impl_dataE* %_T36530264_53692.arg) #0 inlinehint !dbg !7111 {
L.entry:
	%_T36530264_53692.addr = alloca %struct._ZNSt12_Vector_baseIN8projects29FluctuationsSpeciesParametersESaIS1_EE17_Vector_impl_dataE*, align 8
	%..inline.addr = alloca %struct._ZNSt12_Vector_baseIN8projects29FluctuationsSpeciesParametersESaIS1_EE17_Vector_impl_dataE*, align 8

	store %struct._ZNSt12_Vector_baseIN8projects29FluctuationsSpeciesParametersESaIS1_EE17_Vector_impl_dataE* %_T36530264_53692.arg, %struct._ZNSt12_Vector_baseIN8projects29FluctuationsSpeciesParametersESaIS1_EE17_Vector_impl_dataE** %_T36530264_53692.addr, align 8, !tbaa !4327
	%0 = load %struct._ZNSt12_Vector_baseIN8projects29FluctuationsSpeciesParametersESaIS1_EE17_Vector_impl_dataE*, %struct._ZNSt12_Vector_baseIN8projects29FluctuationsSpeciesParametersESaIS1_EE17_Vector_impl_dataE** %_T36530264_53692.addr, align 8, !tbaa !4327, !dbg !7119
	%1 = bitcast %struct._ZNSt12_Vector_baseIN8projects29FluctuationsSpeciesParametersESaIS1_EE17_Vector_impl_dataE*  %0 to i8*, !dbg !7119
	%2 = bitcast %struct._ZNSt12_Vector_baseIN8projects29FluctuationsSpeciesParametersESaIS1_EE17_Vector_impl_dataE** %..inline.addr to i8**, !dbg !7119
	store i8*  %1, i8**  %2, align 8, !tbaa !4327, !dbg !7119
	%3 = load %struct._ZNSt12_Vector_baseIN8projects29FluctuationsSpeciesParametersESaIS1_EE17_Vector_impl_dataE*, %struct._ZNSt12_Vector_baseIN8projects29FluctuationsSpeciesParametersESaIS1_EE17_Vector_impl_dataE** %..inline.addr, align 8, !tbaa !4327, !dbg !7119
	%4 = bitcast %struct._ZNSt12_Vector_baseIN8projects29FluctuationsSpeciesParametersESaIS1_EE17_Vector_impl_dataE*  %3 to i8**, !dbg !7119
	store i8* null, i8**  %4, align 8, !tbaa !4327, !dbg !7119
	%5 = bitcast %struct._ZNSt12_Vector_baseIN8projects29FluctuationsSpeciesParametersESaIS1_EE17_Vector_impl_dataE*  %3 to i8*, !dbg !7119
	%6 = getelementptr i8, i8*  %5, i64 8, !dbg !7119
	%7 = bitcast i8*  %6 to i8**, !dbg !7119
	store i8* null, i8**  %7, align 8, !tbaa !4327, !dbg !7119
	%8 = getelementptr i8, i8*  %5, i64 16, !dbg !7119
	%9 = bitcast i8*  %8 to i8**, !dbg !7119
	store i8* null, i8**  %9, align 8, !tbaa !4327, !dbg !7119
	ret void, !dbg !7119
}
define linkonce_odr void @_ZNSt12_Vector_baseIN8projects29FluctuationsSpeciesParametersESaIS1_EE12_Vector_implC1Ev(%struct._ZNSt12_Vector_baseIN8projects29FluctuationsSpeciesParametersESaIS1_EE12_Vector_implE* %_T36530264_53693.arg) #0 inlinehint !dbg !7124 {
L.entry:
	%_T36530264_53693.addr = alloca %struct._ZNSt12_Vector_baseIN8projects29FluctuationsSpeciesParametersESaIS1_EE12_Vector_implE*, align 8
	%..inline.addr = alloca %struct._ZNSt12_Vector_baseIN8projects29FluctuationsSpeciesParametersESaIS1_EE17_Vector_impl_dataE*, align 8

	call void @llvm.dbg.declare (metadata %struct._ZNSt12_Vector_baseIN8projects29FluctuationsSpeciesParametersESaIS1_EE12_Vector_implE** %_T36530264_53693.addr, metadata !7136, metadata !4319), !dbg !7125
	store %struct._ZNSt12_Vector_baseIN8projects29FluctuationsSpeciesParametersESaIS1_EE12_Vector_implE* %_T36530264_53693.arg, %struct._ZNSt12_Vector_baseIN8projects29FluctuationsSpeciesParametersESaIS1_EE12_Vector_implE** %_T36530264_53693.addr, align 8, !tbaa !4327
	call void @llvm.dbg.declare (metadata %struct._ZNSt12_Vector_baseIN8projects29FluctuationsSpeciesParametersESaIS1_EE12_Vector_implE** %_T36530264_53693.addr, metadata !7137, metadata !4319), !dbg !7125
	%0 = load %struct._ZNSt12_Vector_baseIN8projects29FluctuationsSpeciesParametersESaIS1_EE12_Vector_implE*, %struct._ZNSt12_Vector_baseIN8projects29FluctuationsSpeciesParametersESaIS1_EE12_Vector_implE** %_T36530264_53693.addr, align 8, !tbaa !4327, !dbg !7138
	%1 = bitcast %struct._ZNSt12_Vector_baseIN8projects29FluctuationsSpeciesParametersESaIS1_EE12_Vector_implE*  %0 to i8*, !dbg !7138
	%2 = bitcast %struct._ZNSt12_Vector_baseIN8projects29FluctuationsSpeciesParametersESaIS1_EE17_Vector_impl_dataE** %..inline.addr to i8**, !dbg !7138
	store i8*  %1, i8**  %2, align 8, !tbaa !4327, !dbg !7138
	%3 = load %struct._ZNSt12_Vector_baseIN8projects29FluctuationsSpeciesParametersESaIS1_EE17_Vector_impl_dataE*, %struct._ZNSt12_Vector_baseIN8projects29FluctuationsSpeciesParametersESaIS1_EE17_Vector_impl_dataE** %..inline.addr, align 8, !tbaa !4327, !dbg !7138
	%4 = bitcast %struct._ZNSt12_Vector_baseIN8projects29FluctuationsSpeciesParametersESaIS1_EE17_Vector_impl_dataE*  %3 to i8**, !dbg !7138
	store i8* null, i8**  %4, align 8, !tbaa !4327, !dbg !7138
	%5 = bitcast %struct._ZNSt12_Vector_baseIN8projects29FluctuationsSpeciesParametersESaIS1_EE17_Vector_impl_dataE*  %3 to i8*, !dbg !7139
	%6 = getelementptr i8, i8*  %5, i64 8, !dbg !7139
	%7 = bitcast i8*  %6 to i8**, !dbg !7139
	store i8* null, i8**  %7, align 8, !tbaa !4327, !dbg !7139
	%8 = getelementptr i8, i8*  %5, i64 16, !dbg !7139
	%9 = bitcast i8*  %8 to i8**, !dbg !7139
	store i8* null, i8**  %9, align 8, !tbaa !4327, !dbg !7139
	ret void, !dbg !7138
}
define linkonce_odr void @_ZNSt12_Vector_baseIN8projects29FluctuationsSpeciesParametersESaIS1_EE12_Vector_implC2Ev(%struct._ZNSt12_Vector_baseIN8projects29FluctuationsSpeciesParametersESaIS1_EE12_Vector_implE* %_T36530264_53694.arg) #0 inlinehint !dbg !7141 {
L.entry:
	%_T36530264_53694.addr = alloca %struct._ZNSt12_Vector_baseIN8projects29FluctuationsSpeciesParametersESaIS1_EE12_Vector_implE*, align 8
	%..inline.addr = alloca %struct._ZNSt12_Vector_baseIN8projects29FluctuationsSpeciesParametersESaIS1_EE17_Vector_impl_dataE*, align 8

	store %struct._ZNSt12_Vector_baseIN8projects29FluctuationsSpeciesParametersESaIS1_EE12_Vector_implE* %_T36530264_53694.arg, %struct._ZNSt12_Vector_baseIN8projects29FluctuationsSpeciesParametersESaIS1_EE12_Vector_implE** %_T36530264_53694.addr, align 8, !tbaa !4327
	%0 = load %struct._ZNSt12_Vector_baseIN8projects29FluctuationsSpeciesParametersESaIS1_EE12_Vector_implE*, %struct._ZNSt12_Vector_baseIN8projects29FluctuationsSpeciesParametersESaIS1_EE12_Vector_implE** %_T36530264_53694.addr, align 8, !tbaa !4327, !dbg !7157
	%1 = bitcast %struct._ZNSt12_Vector_baseIN8projects29FluctuationsSpeciesParametersESaIS1_EE12_Vector_implE*  %0 to i8*, !dbg !7157
	%2 = bitcast %struct._ZNSt12_Vector_baseIN8projects29FluctuationsSpeciesParametersESaIS1_EE17_Vector_impl_dataE** %..inline.addr to i8**, !dbg !7157
	store i8*  %1, i8**  %2, align 8, !tbaa !4327, !dbg !7157
	%3 = load %struct._ZNSt12_Vector_baseIN8projects29FluctuationsSpeciesParametersESaIS1_EE17_Vector_impl_dataE*, %struct._ZNSt12_Vector_baseIN8projects29FluctuationsSpeciesParametersESaIS1_EE17_Vector_impl_dataE** %..inline.addr, align 8, !tbaa !4327, !dbg !7157
	%4 = bitcast %struct._ZNSt12_Vector_baseIN8projects29FluctuationsSpeciesParametersESaIS1_EE17_Vector_impl_dataE*  %3 to i8**, !dbg !7157
	store i8* null, i8**  %4, align 8, !tbaa !4327, !dbg !7157
	%5 = bitcast %struct._ZNSt12_Vector_baseIN8projects29FluctuationsSpeciesParametersESaIS1_EE17_Vector_impl_dataE*  %3 to i8*, !dbg !7157
	%6 = getelementptr i8, i8*  %5, i64 8, !dbg !7157
	%7 = bitcast i8*  %6 to i8**, !dbg !7157
	store i8* null, i8**  %7, align 8, !tbaa !4327, !dbg !7157
	%8 = getelementptr i8, i8*  %5, i64 16, !dbg !7157
	%9 = bitcast i8*  %8 to i8**, !dbg !7157
	store i8* null, i8**  %9, align 8, !tbaa !4327, !dbg !7157
	ret void, !dbg !7157
}
define linkonce_odr void @_ZNSt12_Vector_baseIN8projects29FluctuationsSpeciesParametersESaIS1_EE12_Vector_implD1Ev(%struct._ZNSt12_Vector_baseIN8projects29FluctuationsSpeciesParametersESaIS1_EE12_Vector_implE* %_T36530264_53695.arg) #0 inlinehint !dbg !7159 {
L.entry:
	%_T36530264_53695.addr = alloca %struct._ZNSt12_Vector_baseIN8projects29FluctuationsSpeciesParametersESaIS1_EE12_Vector_implE*, align 8

	call void @llvm.dbg.declare (metadata %struct._ZNSt12_Vector_baseIN8projects29FluctuationsSpeciesParametersESaIS1_EE12_Vector_implE** %_T36530264_53695.addr, metadata !7171, metadata !4319), !dbg !7160
	store %struct._ZNSt12_Vector_baseIN8projects29FluctuationsSpeciesParametersESaIS1_EE12_Vector_implE* %_T36530264_53695.arg, %struct._ZNSt12_Vector_baseIN8projects29FluctuationsSpeciesParametersESaIS1_EE12_Vector_implE** %_T36530264_53695.addr, align 8, !tbaa !4327
	call void @llvm.dbg.declare (metadata %struct._ZNSt12_Vector_baseIN8projects29FluctuationsSpeciesParametersESaIS1_EE12_Vector_implE** %_T36530264_53695.addr, metadata !7172, metadata !4319), !dbg !7160
	ret void, !dbg !7173
}
define linkonce_odr void @_ZNSt12_Vector_baseIN8projects29FluctuationsSpeciesParametersESaIS1_EE12_Vector_implD2Ev(%struct._ZNSt12_Vector_baseIN8projects29FluctuationsSpeciesParametersESaIS1_EE12_Vector_implE* %_T36530264_53696.arg) #0 inlinehint !dbg !7175 {
L.entry:
	%_T36530264_53696.addr = alloca %struct._ZNSt12_Vector_baseIN8projects29FluctuationsSpeciesParametersESaIS1_EE12_Vector_implE*, align 8

	store %struct._ZNSt12_Vector_baseIN8projects29FluctuationsSpeciesParametersESaIS1_EE12_Vector_implE* %_T36530264_53696.arg, %struct._ZNSt12_Vector_baseIN8projects29FluctuationsSpeciesParametersESaIS1_EE12_Vector_implE** %_T36530264_53696.addr, align 8, !tbaa !4327
	ret void, !dbg !7191
}

%struct._ZSt17integral_constantIbLb1EE = type <{ [1 x i8]}> 

define linkonce_odr %struct._ZN8projects29FluctuationsSpeciesParametersE* @_ZNSt6vectorIN8projects29FluctuationsSpeciesParametersESaIS1_EE14_S_do_relocateEPS1_S4_S4_RS2_St17integral_constantIbLb1EE(%struct._ZN8projects29FluctuationsSpeciesParametersE* %__first.arg, %struct._ZN8projects29FluctuationsSpeciesParametersE* %__last.arg, %struct._ZN8projects29FluctuationsSpeciesParametersE* %__result.arg, %struct._ZSaIN8projects29FluctuationsSpeciesParametersEE* %__alloc.arg, i8 %_T36531448_53703.coerce) #0 inlinehint !dbg !7199 {
L.entry:
	%__first.addr = alloca %struct._ZN8projects29FluctuationsSpeciesParametersE*, align 8
	%__last.addr = alloca %struct._ZN8projects29FluctuationsSpeciesParametersE*, align 8
	%__result.addr = alloca %struct._ZN8projects29FluctuationsSpeciesParametersE*, align 8
	%__alloc.addr = alloca %struct._ZSaIN8projects29FluctuationsSpeciesParametersEE*, align 8
	%_T36531448_53703.addr = alloca %struct._ZSt17integral_constantIbLb1EE, align 1
	%..inline.addr = alloca %struct._ZN8projects29FluctuationsSpeciesParametersE*, align 8
	%..inline.addr.1 = alloca %struct._ZN8projects29FluctuationsSpeciesParametersE*, align 8
	%..inline.addr.2 = alloca i64, align 8

	call void @llvm.dbg.declare (metadata %struct._ZN8projects29FluctuationsSpeciesParametersE** %__first.addr, metadata !7223, metadata !4319), !dbg !7200
	store %struct._ZN8projects29FluctuationsSpeciesParametersE* %__first.arg, %struct._ZN8projects29FluctuationsSpeciesParametersE** %__first.addr, align 8, !tbaa !4327
	call void @llvm.dbg.declare (metadata %struct._ZN8projects29FluctuationsSpeciesParametersE** %__first.addr, metadata !7224, metadata !4319), !dbg !7200
	call void @llvm.dbg.declare (metadata %struct._ZN8projects29FluctuationsSpeciesParametersE** %__last.addr, metadata !7225, metadata !4319), !dbg !7200
	store %struct._ZN8projects29FluctuationsSpeciesParametersE* %__last.arg, %struct._ZN8projects29FluctuationsSpeciesParametersE** %__last.addr, align 8, !tbaa !4327
	call void @llvm.dbg.declare (metadata %struct._ZN8projects29FluctuationsSpeciesParametersE** %__last.addr, metadata !7226, metadata !4319), !dbg !7200
	call void @llvm.dbg.declare (metadata %struct._ZN8projects29FluctuationsSpeciesParametersE** %__result.addr, metadata !7227, metadata !4319), !dbg !7200
	store %struct._ZN8projects29FluctuationsSpeciesParametersE* %__result.arg, %struct._ZN8projects29FluctuationsSpeciesParametersE** %__result.addr, align 8, !tbaa !4327
	call void @llvm.dbg.declare (metadata %struct._ZN8projects29FluctuationsSpeciesParametersE** %__result.addr, metadata !7228, metadata !4319), !dbg !7200
	call void @llvm.dbg.declare (metadata %struct._ZSaIN8projects29FluctuationsSpeciesParametersEE** %__alloc.addr, metadata !7229, metadata !4319), !dbg !7200
	store %struct._ZSaIN8projects29FluctuationsSpeciesParametersEE* %__alloc.arg, %struct._ZSaIN8projects29FluctuationsSpeciesParametersEE** %__alloc.addr, align 8, !tbaa !4327
	call void @llvm.dbg.declare (metadata %struct._ZSaIN8projects29FluctuationsSpeciesParametersEE** %__alloc.addr, metadata !7230, metadata !4319), !dbg !7200
	call void @llvm.dbg.declare (metadata %struct._ZSt17integral_constantIbLb1EE* %_T36531448_53703.addr, metadata !7231, metadata !4319), !dbg !7200
	%0 = bitcast %struct._ZSt17integral_constantIbLb1EE* %_T36531448_53703.addr to i8*
	store i8 %_T36531448_53703.coerce, i8*  %0, align 1, !tbaa !4326
	call void @llvm.dbg.declare (metadata %struct._ZSt17integral_constantIbLb1EE* %_T36531448_53703.addr, metadata !7232, metadata !4319), !dbg !7200
	%1 = load %struct._ZN8projects29FluctuationsSpeciesParametersE*, %struct._ZN8projects29FluctuationsSpeciesParametersE** %__first.addr, align 8, !tbaa !4327, !dbg !7233
	%2 = bitcast %struct._ZN8projects29FluctuationsSpeciesParametersE*  %1 to i8*, !dbg !7233
	%3 = bitcast %struct._ZN8projects29FluctuationsSpeciesParametersE** %..inline.addr to i8**, !dbg !7233
	store i8*  %2, i8**  %3, align 8, !tbaa !4327, !dbg !7233
	%4 = load %struct._ZN8projects29FluctuationsSpeciesParametersE*, %struct._ZN8projects29FluctuationsSpeciesParametersE** %__result.addr, align 8, !tbaa !4327, !dbg !7233
	%5 = bitcast %struct._ZN8projects29FluctuationsSpeciesParametersE*  %4 to i8*, !dbg !7233
	%6 = bitcast %struct._ZN8projects29FluctuationsSpeciesParametersE** %..inline.addr.1 to i8**, !dbg !7233
	store i8*  %5, i8**  %6, align 8, !tbaa !4327, !dbg !7233
	%7 = load %struct._ZN8projects29FluctuationsSpeciesParametersE*, %struct._ZN8projects29FluctuationsSpeciesParametersE** %__last.addr, align 8, !tbaa !4327, !dbg !7233
	%8 = bitcast %struct._ZN8projects29FluctuationsSpeciesParametersE*  %7 to i8*, !dbg !7233
	%9 = ptrtoint i8*  %2 to i64, !dbg !7233
	%10 = sub i64 0,  %9, !dbg !7233
	%11 = getelementptr i8, i8*  %8, i64  %10, !dbg !7233
	%12 = ptrtoint i8*  %11 to i64, !dbg !7233
	%13 = sext i64 3074457345618258603 to i128, !dbg !7233
	%14 = sext i64  %12 to i128, !dbg !7233
	%15 = mul i128  %13,  %14, !dbg !7233
	%16 = ashr i128  %15, 64, !dbg !7233
	%17 = trunc i128  %16 to i64, !dbg !7233
	%18 = sext i32 3 to i64, !dbg !7233
	%19 = ashr i64  %17,  %18, !dbg !7233
	%20 = sub i64 0,  %9, !dbg !7233
	%21 = getelementptr i8, i8*  %8, i64  %20, !dbg !7233
	%22 = ptrtoint i8*  %21 to i64, !dbg !7233
	%23 = sext i32 63 to i64, !dbg !7233
	%24 = ashr i64  %22,  %23, !dbg !7233
	%25 = sub i64  %19,  %24, !dbg !7233
	store i64  %25, i64* %..inline.addr.2, align 8, !tbaa !4858, !dbg !7233
	%26 = icmp sle i64  %25, 0, !dbg !7233
	br i1  %26, label %L..inline.79196, label %L.B1865, !dbg !7233
L.B1865:
	%27 = load %struct._ZN8projects29FluctuationsSpeciesParametersE*, %struct._ZN8projects29FluctuationsSpeciesParametersE** %..inline.addr.1, align 8, !tbaa !4327, !dbg !7233
	%28 = bitcast %struct._ZN8projects29FluctuationsSpeciesParametersE*  %27 to i8*, !dbg !7233
	%29 = load %struct._ZN8projects29FluctuationsSpeciesParametersE*, %struct._ZN8projects29FluctuationsSpeciesParametersE** %..inline.addr, align 8, !tbaa !4327, !dbg !7233
	%30 = bitcast %struct._ZN8projects29FluctuationsSpeciesParametersE*  %29 to i8*, !dbg !7233
	%31 = mul i64  %25, 48, !dbg !7233
	%32 = call i8*  @memmove (i8*  %28, i8*  %30, i64  %31) nounwind, !dbg !7233
	br label %L..inline.79196
L..inline.79196:
	%33 = load %struct._ZN8projects29FluctuationsSpeciesParametersE*, %struct._ZN8projects29FluctuationsSpeciesParametersE** %..inline.addr.1, align 8, !tbaa !4327, !dbg !7234
	%34 = bitcast %struct._ZN8projects29FluctuationsSpeciesParametersE*  %33 to i8*, !dbg !7234
	%35 = load i64, i64* %..inline.addr.2, align 8, !tbaa !4858, !dbg !7234
	%36 = mul i64  %35, 48, !dbg !7234
	%37 = getelementptr i8, i8*  %34, i64  %36, !dbg !7234
	%38 = bitcast i8*  %37 to %struct._ZN8projects29FluctuationsSpeciesParametersE*, !dbg !7234
	ret %struct._ZN8projects29FluctuationsSpeciesParametersE*  %38, !dbg !7234
}
define linkonce_odr %struct._ZN8projects29FluctuationsSpeciesParametersE* @_ZNSt6vectorIN8projects29FluctuationsSpeciesParametersESaIS1_EE11_S_relocateEPS1_S4_S4_RS2_(%struct._ZN8projects29FluctuationsSpeciesParametersE* %__first.arg, %struct._ZN8projects29FluctuationsSpeciesParametersE* %__last.arg, %struct._ZN8projects29FluctuationsSpeciesParametersE* %__result.arg, %struct._ZSaIN8projects29FluctuationsSpeciesParametersEE* %__alloc.arg) #0 inlinehint !dbg !7239 {
L.entry:
	%__first.addr = alloca %struct._ZN8projects29FluctuationsSpeciesParametersE*, align 8
	%__last.addr = alloca %struct._ZN8projects29FluctuationsSpeciesParametersE*, align 8
	%__result.addr = alloca %struct._ZN8projects29FluctuationsSpeciesParametersE*, align 8
	%__alloc.addr = alloca %struct._ZSaIN8projects29FluctuationsSpeciesParametersEE*, align 8
	%.._T36532224_53708.__FILL_CHARARRAY.addr = alloca [1 x i8], align 1
	%..inline.addr = alloca %struct._ZN8projects29FluctuationsSpeciesParametersE*, align 8
	%..inline.addr.1 = alloca %struct._ZN8projects29FluctuationsSpeciesParametersE*, align 8
	%..inline.addr.2 = alloca %struct._ZN8projects29FluctuationsSpeciesParametersE*, align 8
	%....inline.__FILL_CHARARRAY.addr = alloca [1 x i8], align 1
	%..inline.addr.3 = alloca %struct._ZN8projects29FluctuationsSpeciesParametersE*, align 8
	%..inline.addr.4 = alloca %struct._ZN8projects29FluctuationsSpeciesParametersE*, align 8
	%..inline.addr.5 = alloca i64, align 8

	call void @llvm.dbg.declare (metadata %struct._ZN8projects29FluctuationsSpeciesParametersE** %__first.addr, metadata !7267, metadata !4319), !dbg !7240
	store %struct._ZN8projects29FluctuationsSpeciesParametersE* %__first.arg, %struct._ZN8projects29FluctuationsSpeciesParametersE** %__first.addr, align 8, !tbaa !4327
	call void @llvm.dbg.declare (metadata %struct._ZN8projects29FluctuationsSpeciesParametersE** %__first.addr, metadata !7268, metadata !4319), !dbg !7240
	call void @llvm.dbg.declare (metadata %struct._ZN8projects29FluctuationsSpeciesParametersE** %__last.addr, metadata !7269, metadata !4319), !dbg !7240
	store %struct._ZN8projects29FluctuationsSpeciesParametersE* %__last.arg, %struct._ZN8projects29FluctuationsSpeciesParametersE** %__last.addr, align 8, !tbaa !4327
	call void @llvm.dbg.declare (metadata %struct._ZN8projects29FluctuationsSpeciesParametersE** %__last.addr, metadata !7270, metadata !4319), !dbg !7240
	call void @llvm.dbg.declare (metadata %struct._ZN8projects29FluctuationsSpeciesParametersE** %__result.addr, metadata !7271, metadata !4319), !dbg !7240
	store %struct._ZN8projects29FluctuationsSpeciesParametersE* %__result.arg, %struct._ZN8projects29FluctuationsSpeciesParametersE** %__result.addr, align 8, !tbaa !4327
	call void @llvm.dbg.declare (metadata %struct._ZN8projects29FluctuationsSpeciesParametersE** %__result.addr, metadata !7272, metadata !4319), !dbg !7240
	call void @llvm.dbg.declare (metadata %struct._ZSaIN8projects29FluctuationsSpeciesParametersEE** %__alloc.addr, metadata !7273, metadata !4319), !dbg !7240
	store %struct._ZSaIN8projects29FluctuationsSpeciesParametersEE* %__alloc.arg, %struct._ZSaIN8projects29FluctuationsSpeciesParametersEE** %__alloc.addr, align 8, !tbaa !4327
	call void @llvm.dbg.declare (metadata %struct._ZSaIN8projects29FluctuationsSpeciesParametersEE** %__alloc.addr, metadata !7274, metadata !4319), !dbg !7240
	call void @llvm.dbg.declare (metadata [1 x i8]* %.._T36532224_53708.__FILL_CHARARRAY.addr, metadata !7276, metadata !4319), !dbg !7242
	%0 = bitcast [1 x i8]* %.._T36532224_53708.__FILL_CHARARRAY.addr to i8*, !dbg !7275
	store i8 0, i8*  %0, align 1, !tbaa !4326, !dbg !7275
	%1 = load %struct._ZN8projects29FluctuationsSpeciesParametersE*, %struct._ZN8projects29FluctuationsSpeciesParametersE** %__first.addr, align 8, !tbaa !4327, !dbg !7275
	%2 = bitcast %struct._ZN8projects29FluctuationsSpeciesParametersE*  %1 to i8*, !dbg !7275
	%3 = bitcast %struct._ZN8projects29FluctuationsSpeciesParametersE** %..inline.addr to i8**, !dbg !7275
	store i8*  %2, i8**  %3, align 8, !tbaa !4327, !dbg !7275
	%4 = load %struct._ZN8projects29FluctuationsSpeciesParametersE*, %struct._ZN8projects29FluctuationsSpeciesParametersE** %__last.addr, align 8, !tbaa !4327, !dbg !7275
	%5 = bitcast %struct._ZN8projects29FluctuationsSpeciesParametersE*  %4 to i8*, !dbg !7275
	%6 = bitcast %struct._ZN8projects29FluctuationsSpeciesParametersE** %..inline.addr.1 to i8**, !dbg !7275
	store i8*  %5, i8**  %6, align 8, !tbaa !4327, !dbg !7275
	%7 = load %struct._ZN8projects29FluctuationsSpeciesParametersE*, %struct._ZN8projects29FluctuationsSpeciesParametersE** %__result.addr, align 8, !tbaa !4327, !dbg !7275
	%8 = bitcast %struct._ZN8projects29FluctuationsSpeciesParametersE*  %7 to i8*, !dbg !7275
	%9 = bitcast %struct._ZN8projects29FluctuationsSpeciesParametersE** %..inline.addr.2 to i8**, !dbg !7275
	store i8*  %8, i8**  %9, align 8, !tbaa !4327, !dbg !7275
	%10 = zext i8 0 to i32, !dbg !7277
	%11 = trunc i32  %10 to i8, !dbg !7277
	call void @llvm.dbg.declare (metadata [1 x i8]* %....inline.__FILL_CHARARRAY.addr, metadata !7278, metadata !4319), !dbg !7242
	%12 = bitcast [1 x i8]* %....inline.__FILL_CHARARRAY.addr to i8*, !dbg !7277
	store i8  %11, i8*  %12, align 1, !tbaa !4326, !dbg !7277
	%13 = load %struct._ZN8projects29FluctuationsSpeciesParametersE*, %struct._ZN8projects29FluctuationsSpeciesParametersE** %..inline.addr, align 8, !tbaa !4327, !dbg !7279
	%14 = bitcast %struct._ZN8projects29FluctuationsSpeciesParametersE*  %13 to i8*, !dbg !7279
	%15 = bitcast %struct._ZN8projects29FluctuationsSpeciesParametersE** %..inline.addr.3 to i8**, !dbg !7279
	store i8*  %14, i8**  %15, align 8, !tbaa !4327, !dbg !7279
	%16 = load %struct._ZN8projects29FluctuationsSpeciesParametersE*, %struct._ZN8projects29FluctuationsSpeciesParametersE** %..inline.addr.2, align 8, !tbaa !4327, !dbg !7279
	%17 = bitcast %struct._ZN8projects29FluctuationsSpeciesParametersE*  %16 to i8*, !dbg !7279
	%18 = bitcast %struct._ZN8projects29FluctuationsSpeciesParametersE** %..inline.addr.4 to i8**, !dbg !7279
	store i8*  %17, i8**  %18, align 8, !tbaa !4327, !dbg !7279
	%19 = load %struct._ZN8projects29FluctuationsSpeciesParametersE*, %struct._ZN8projects29FluctuationsSpeciesParametersE** %..inline.addr.1, align 8, !tbaa !4327, !dbg !7279
	%20 = bitcast %struct._ZN8projects29FluctuationsSpeciesParametersE*  %19 to i8*, !dbg !7279
	%21 = ptrtoint i8*  %14 to i64, !dbg !7279
	%22 = sub i64 0,  %21, !dbg !7279
	%23 = getelementptr i8, i8*  %20, i64  %22, !dbg !7279
	%24 = ptrtoint i8*  %23 to i64, !dbg !7279
	%25 = sext i64 3074457345618258603 to i128, !dbg !7279
	%26 = sext i64  %24 to i128, !dbg !7279
	%27 = mul i128  %25,  %26, !dbg !7279
	%28 = ashr i128  %27, 64, !dbg !7279
	%29 = trunc i128  %28 to i64, !dbg !7279
	%30 = sext i32 3 to i64, !dbg !7279
	%31 = ashr i64  %29,  %30, !dbg !7279
	%32 = sub i64 0,  %21, !dbg !7279
	%33 = getelementptr i8, i8*  %20, i64  %32, !dbg !7279
	%34 = ptrtoint i8*  %33 to i64, !dbg !7279
	%35 = sext i32 63 to i64, !dbg !7279
	%36 = ashr i64  %34,  %35, !dbg !7279
	%37 = sub i64  %31,  %36, !dbg !7279
	store i64  %37, i64* %..inline.addr.5, align 8, !tbaa !4858, !dbg !7279
	%38 = icmp sle i64  %37, 0, !dbg !7279
	br i1  %38, label %L..inline.79272, label %L.B1868, !dbg !7279
L.B1868:
	%39 = load %struct._ZN8projects29FluctuationsSpeciesParametersE*, %struct._ZN8projects29FluctuationsSpeciesParametersE** %..inline.addr.4, align 8, !tbaa !4327, !dbg !7279
	%40 = bitcast %struct._ZN8projects29FluctuationsSpeciesParametersE*  %39 to i8*, !dbg !7279
	%41 = load %struct._ZN8projects29FluctuationsSpeciesParametersE*, %struct._ZN8projects29FluctuationsSpeciesParametersE** %..inline.addr.3, align 8, !tbaa !4327, !dbg !7279
	%42 = bitcast %struct._ZN8projects29FluctuationsSpeciesParametersE*  %41 to i8*, !dbg !7279
	%43 = mul i64  %37, 48, !dbg !7279
	%44 = call i8*  @memmove (i8*  %40, i8*  %42, i64  %43) nounwind, !dbg !7279
	br label %L..inline.79272
L..inline.79272:
	%45 = load %struct._ZN8projects29FluctuationsSpeciesParametersE*, %struct._ZN8projects29FluctuationsSpeciesParametersE** %..inline.addr.4, align 8, !tbaa !4327, !dbg !7275
	%46 = bitcast %struct._ZN8projects29FluctuationsSpeciesParametersE*  %45 to i8*, !dbg !7275
	%47 = load i64, i64* %..inline.addr.5, align 8, !tbaa !4858, !dbg !7275
	%48 = mul i64  %47, 48, !dbg !7275
	%49 = getelementptr i8, i8*  %46, i64  %48, !dbg !7275
	%50 = bitcast i8*  %49 to %struct._ZN8projects29FluctuationsSpeciesParametersE*, !dbg !7275
	ret %struct._ZN8projects29FluctuationsSpeciesParametersE*  %50, !dbg !7275
}

%struct._ZSt6vectorIN8projects29FluctuationsSpeciesParametersESaIS1_EE = type <{ %struct._ZSt12_Vector_baseIN8projects29FluctuationsSpeciesParametersESaIS1_EE}> 

define linkonce_odr void @_ZNSt6vectorIN8projects29FluctuationsSpeciesParametersESaIS1_EEC1Ev(%struct._ZSt6vectorIN8projects29FluctuationsSpeciesParametersESaIS1_EE* %_T36530264_53709.arg) #0 inlinehint !dbg !7284 {
L.entry:
	%_T36530264_53709.addr = alloca %struct._ZSt6vectorIN8projects29FluctuationsSpeciesParametersESaIS1_EE*, align 8
	%..inline.addr = alloca %struct._ZNSt12_Vector_baseIN8projects29FluctuationsSpeciesParametersESaIS1_EE17_Vector_impl_dataE*, align 8

	call void @llvm.dbg.declare (metadata %struct._ZSt6vectorIN8projects29FluctuationsSpeciesParametersESaIS1_EE** %_T36530264_53709.addr, metadata !7308, metadata !4319), !dbg !7285
	store %struct._ZSt6vectorIN8projects29FluctuationsSpeciesParametersESaIS1_EE* %_T36530264_53709.arg, %struct._ZSt6vectorIN8projects29FluctuationsSpeciesParametersESaIS1_EE** %_T36530264_53709.addr, align 8, !tbaa !4327
	call void @llvm.dbg.declare (metadata %struct._ZSt6vectorIN8projects29FluctuationsSpeciesParametersESaIS1_EE** %_T36530264_53709.addr, metadata !7309, metadata !4319), !dbg !7285
	%0 = load %struct._ZSt6vectorIN8projects29FluctuationsSpeciesParametersESaIS1_EE*, %struct._ZSt6vectorIN8projects29FluctuationsSpeciesParametersESaIS1_EE** %_T36530264_53709.addr, align 8, !tbaa !4327, !dbg !7310
	%1 = bitcast %struct._ZSt6vectorIN8projects29FluctuationsSpeciesParametersESaIS1_EE*  %0 to i8*, !dbg !7310
	%2 = bitcast %struct._ZNSt12_Vector_baseIN8projects29FluctuationsSpeciesParametersESaIS1_EE17_Vector_impl_dataE** %..inline.addr to i8**, !dbg !7310
	store i8*  %1, i8**  %2, align 8, !tbaa !4327, !dbg !7310
