; ModuleID = 'backgroundfield/integratefunction.cpp'
target datalayout = "e-p:64:64-i64:64-f80:128-n8:16:32:64-S128"
target triple = "x86_64-pc-linux-gnu"
define internal void @pgCplus_compiled.() noinline {
L.entry:
	ret void
}

%struct._ZSt9basic_iosIcSt11char_traitsIcEE = type <{ %struct._ZSt8ios_base, %struct._ZSo*, i8, i8, [6 x i8], %struct._ZSt15basic_streambufIcSt11char_traitsIcEE*, %struct._ZSt5ctypeIcE*, %struct._ZSt7num_putIcSt19ostreambuf_iteratorIcSt11char_traitsIcEEE*, %struct._ZSt7num_getIcSt19istreambuf_iteratorIcSt11char_traitsIcEEE*}> 
%struct._ZNSt8ios_base14_Callback_listE = type <{ %struct._ZNSt8ios_base14_Callback_listE*, void (i32, %struct._ZSt8ios_base*, i32)*, i32, i32}> 
%struct._ZSt8ios_base = type <{ i32 (...)* (...)*, i64, i64, i32, i32, i32, [4 x i8], %struct._ZNSt8ios_base14_Callback_listE*, %struct._ZNSt8ios_base6_WordsE, [8 x %struct._ZNSt8ios_base6_WordsE], i32, [4 x i8], %struct._ZNSt8ios_base6_WordsE*, %struct._ZSt6locale}> 
%struct._ZNSt8ios_base6_WordsE = type <{ i8*, i64}> 
%struct.__locale_struct = type <{ [13 x %struct.__locale_data*], i16*, i32*, i32*, [13 x i8*]}> 
%struct._ZNSt6locale5facetE = type <{ i32 (...)* (...)*, i32, [4 x i8]}> 
%struct._ZSt15basic_streambufIcSt11char_traitsIcEE = type <{ i32 (...)* (...)*, i8*, i8*, i8*, i8*, i8*, i8*, %struct._ZSt6locale}> 
%struct._ZNSt6locale5_ImplE = type <{ i32, [4 x i8], %struct._ZNSt6locale5facetE**, i64, %struct._ZNSt6locale5facetE**, i8**}> 
%struct.T3DFunction = type <{ i32 (...)* (...)*}> 
%struct.__SO__NSt6locale5facetE = type <{ i32 (...)* (...)*, i32}> 
%struct.T3D_fix23 = type <{ %struct.T1DFunction, %struct.T3DFunction*, double, double}> 
%struct._ZSt5ctypeIcE = type <{ %struct.__SO__NSt6locale5facetE, [4 x i8], %struct.__locale_struct*, i8, [7 x i8], i32*, i32*, i16*, i8, [256 x i8], [256 x i8], i8, [6 x i8]}> 
%struct.T3D_fix12 = type <{ %struct.T1DFunction, %struct.T3DFunction*, double, double}> 
%struct._ZSo = type <{ i32 (...)* (...)*, %struct._ZSt9basic_iosIcSt11char_traitsIcEE}> 
%struct.__locale_data = type opaque
%struct.T3D_fix13 = type <{ %struct.T1DFunction, %struct.T3DFunction*, double, double}> 
%struct._ZSt6locale = type <{ %struct._ZNSt6locale5_ImplE*}> 
%struct._ZSt7num_putIcSt19ostreambuf_iteratorIcSt11char_traitsIcEEE = type <{ %struct.__SO__NSt6locale5facetE, [4 x i8]}> 
%struct._ZSt7num_getIcSt19istreambuf_iteratorIcSt11char_traitsIcEEE = type <{ %struct.__SO__NSt6locale5facetE, [4 x i8]}> 
%struct.T1DFunction = type <{ i32 (...)* (...)*}> 
%astruct.dt64 = type <{ i8*, i32}> 



define double @_Z11lineAverageRK11T3DFunction10coordinatedPKdd(%struct.T3DFunction* %f1.arg, i32 zeroext %line.arg, double %accuracy.arg, double* %r1.arg, double %L.arg) #0 personality i8* bitcast (i32 (...)* @__gxx_personality_v0 to i8*) !dbg !1410 {
L.entry:
	%f1.addr = alloca %struct.T3DFunction*, align 8
	%line.addr = alloca i32, align 4
	%accuracy.addr = alloca double, align 8
	%r1.addr = alloca double*, align 8
	%L.addr = alloca double, align 8
	%norm.addr = alloca double, align 8
	%acc.addr = alloca double, align 8
	%a.addr = alloca double, align 8
	%b.addr = alloca double, align 8
	%.D0000.addr = alloca i32, align 4
	%..inline.addr = alloca %struct.T3DFunction*, align 8
	%..inline.addr.1 = alloca double, align 8
	%..inline.addr.2 = alloca double, align 8
	%f.addr = alloca %struct.T3D_fix12, align 8
	%.Q0002.addr = alloca double, align 8
	%value.addr = alloca double, align 8
	%..inline.addr.3 = alloca %struct._ZSt9basic_iosIcSt11char_traitsIcEE*, align 8
	%..inline.addr.4 = alloca %struct._ZSt9basic_iosIcSt11char_traitsIcEE*, align 8
	%..inline.addr.5 = alloca i32, align 4
	%..inline.addr.6 = alloca %struct.T3DFunction*, align 8
	%..inline.addr.7 = alloca double, align 8
	%..inline.addr.8 = alloca double, align 8
	%f.addr.1 = alloca %struct.T3D_fix23, align 8
	%.Q0000.addr = alloca double, align 8
	%..inline.addr.9 = alloca %struct.T3DFunction*, align 8
	%..inline.addr.300 = alloca double, align 8
	%..inline.addr.310 = alloca double, align 8
	%f.addr.2 = alloca %struct.T3D_fix13, align 8
	%.Q0001.addr = alloca double, align 8
	%..inline.addr.340 = alloca i64, align 8
	%.Q0003.addr = alloca %struct._ZSo*, align 8
	%__caught_object_address.addr = alloca i8*, align 8
	%__catch_clause_number.addr = alloca i32, align 4

	call void @llvm.dbg.declare (metadata %struct.T3DFunction** %f1.addr, metadata !1552, metadata !1553), !dbg !1411
	store %struct.T3DFunction* %f1.arg, %struct.T3DFunction** %f1.addr, align 8, !tbaa !1615
	call void @llvm.dbg.declare (metadata %struct.T3DFunction** %f1.addr, metadata !1554, metadata !1553), !dbg !1411
	call void @llvm.dbg.declare (metadata i32* %line.addr, metadata !1555, metadata !1553), !dbg !1411
	store i32 %line.arg, i32* %line.addr, align 4, !tbaa !1616
	call void @llvm.dbg.declare (metadata i32* %line.addr, metadata !1556, metadata !1553), !dbg !1411
	call void @llvm.dbg.declare (metadata double* %accuracy.addr, metadata !1557, metadata !1553), !dbg !1411
	store double %accuracy.arg, double* %accuracy.addr, align 8, !tbaa !1616
	call void @llvm.dbg.declare (metadata double* %accuracy.addr, metadata !1558, metadata !1553), !dbg !1411
	call void @llvm.dbg.declare (metadata double** %r1.addr, metadata !1559, metadata !1553), !dbg !1411
	store double* %r1.arg, double** %r1.addr, align 8, !tbaa !1615
	call void @llvm.dbg.declare (metadata double** %r1.addr, metadata !1560, metadata !1553), !dbg !1411
	call void @llvm.dbg.declare (metadata double* %L.addr, metadata !1561, metadata !1553), !dbg !1411
	store double %L.arg, double* %L.addr, align 8, !tbaa !1616
	call void @llvm.dbg.declare (metadata double* %L.addr, metadata !1562, metadata !1553), !dbg !1411
	%0 = load double, double* %L.addr, align 8, !tbaa !1618, !dbg !1563
	%1 = fdiv double  1.00000000000000000E+0,  %0, !dbg !1563
	call void @llvm.dbg.declare (metadata double* %norm.addr, metadata !1564, metadata !1553), !dbg !1415
	store double  %1, double* %norm.addr, align 8, !tbaa !1618, !dbg !1563
	%2 = load double, double* %L.addr, align 8, !tbaa !1618, !dbg !1565
	%3 = load double, double* %accuracy.addr, align 8, !tbaa !1618, !dbg !1565
	%4 = fmul double  %2,  %3, !dbg !1565
	call void @llvm.dbg.declare (metadata double* %acc.addr, metadata !1566, metadata !1553), !dbg !1415
	store double  %4, double* %acc.addr, align 8, !tbaa !1618, !dbg !1565
	%5 = load i32, i32* %line.addr, align 4, !tbaa !1616, !dbg !1567
	%6 = zext i32  %5 to i64, !dbg !1567
	%7 = load double*, double** %r1.addr, align 8, !tbaa !1615, !dbg !1567
	%8 = getelementptr double, double*  %7, i64  %6, !dbg !1567
	%9 = load double, double*  %8, align 8, !tbaa !1616, !dbg !1567
	call void @llvm.dbg.declare (metadata double* %a.addr, metadata !1568, metadata !1553), !dbg !1415
	store double  %9, double* %a.addr, align 8, !tbaa !1618, !dbg !1567
	%10 = load double, double* %L.addr, align 8, !tbaa !1618, !dbg !1569
	%11 = load i32, i32* %line.addr, align 4, !tbaa !1616, !dbg !1569
	%12 = zext i32  %11 to i64, !dbg !1569
	%13 = load double*, double** %r1.addr, align 8, !tbaa !1615, !dbg !1569
	%14 = getelementptr double, double*  %13, i64  %12, !dbg !1569
	%15 = load double, double*  %14, align 8, !tbaa !1616, !dbg !1569
	%16 = fadd double  %10,  %15, !dbg !1569
	call void @llvm.dbg.declare (metadata double* %b.addr, metadata !1570, metadata !1553), !dbg !1415
	store double  %16, double* %b.addr, align 8, !tbaa !1618, !dbg !1569
	%17 = load i32, i32* %line.addr, align 4, !tbaa !1616, !dbg !1571
	store i32  %17, i32* %.D0000.addr, align 4, !tbaa !1620, !dbg !1571
	%18 = icmp eq i32  %17, 0, !dbg !1571
	br i1  %18, label %L.B0002, label %L.B0175, !dbg !1571
L.B0175:
	%19 = icmp eq i32  %17, 1, !dbg !1571
	br i1  %19, label %L.B0005, label %L.B0176, !dbg !1571
L.B0176:
	%20 = icmp ne i32  %17, 2, !dbg !1571
	br i1  %20, label %L.B0011, label %L.B0008, !dbg !1571
L.B0008:
	%21 = load %struct.T3DFunction*, %struct.T3DFunction** %f1.addr, align 8, !tbaa !1615, !dbg !1572
	%22 = bitcast %struct.T3DFunction*  %21 to i8*, !dbg !1572
	%23 = bitcast %struct.T3DFunction** %..inline.addr to i8**, !dbg !1572
	store i8*  %22, i8**  %23, align 8, !tbaa !1615, !dbg !1572
	%24 = load double*, double** %r1.addr, align 8, !tbaa !1615, !dbg !1572
	%25 = load double, double*  %24, align 8, !tbaa !1616, !dbg !1572
	store double  %25, double* %..inline.addr.1, align 8, !tbaa !1618, !dbg !1572
	%26 = bitcast double*  %24 to i8*, !dbg !1572
	%27 = getelementptr i8, i8*  %26, i64 8, !dbg !1572
	%28 = bitcast i8*  %27 to double*, !dbg !1572
	%29 = load double, double*  %28, align 8, !tbaa !1616, !dbg !1572
	store double  %29, double* %..inline.addr.2, align 8, !tbaa !1618, !dbg !1572
	%30 = bitcast [5 x i32 (...)* (...)*]* @_ZTV11T1DFunction to i8*, !dbg !1573
	%31 = getelementptr i8, i8*  %30, i64 16, !dbg !1573
	call void @llvm.dbg.declare (metadata %struct.T3D_fix12* %f.addr, metadata !1579, metadata !1553), !dbg !1423
	%32 = bitcast %struct.T3D_fix12* %f.addr to i8**, !dbg !1573
	store i8*  %31, i8**  %32, align 8, !tbaa !1615, !dbg !1573
	%33 = bitcast [5 x i32 (...)* (...)*]* @_ZTV9T3D_fix12 to i8*, !dbg !1573
	%34 = getelementptr i8, i8*  %33, i64 16, !dbg !1573
	store i8*  %34, i8**  %32, align 8, !tbaa !1615, !dbg !1573
	%35 = load %struct.T3DFunction*, %struct.T3DFunction** %..inline.addr, align 8, !tbaa !1615, !dbg !1573
	%36 = bitcast %struct.T3DFunction*  %35 to i8*, !dbg !1573
	%37 = bitcast %struct.T3D_fix12* %f.addr to i8*, !dbg !1573
	%38 = getelementptr i8, i8*  %37, i64 8, !dbg !1573
	%39 = bitcast i8*  %38 to i8**, !dbg !1573
	store i8*  %36, i8**  %39, align 8, !tbaa !1615, !dbg !1573
	%40 = load double, double* %..inline.addr.1, align 8, !tbaa !1618, !dbg !1573
	%41 = getelementptr i8, i8*  %37, i64 16, !dbg !1573
	%42 = bitcast i8*  %41 to double*, !dbg !1573
	store double  %40, double*  %42, align 8, !tbaa !1616, !dbg !1573
	%43 = load double, double* %..inline.addr.2, align 8, !tbaa !1618, !dbg !1573
	%44 = getelementptr i8, i8*  %37, i64 24, !dbg !1573
	%45 = bitcast i8*  %44 to double*, !dbg !1573
	store double  %43, double*  %45, align 8, !tbaa !1616, !dbg !1573
	%46 = bitcast %struct.T3D_fix12* %f.addr to %struct.T1DFunction*, !dbg !1582
	%47 = load double, double* %a.addr, align 8, !tbaa !1618, !dbg !1582
	%48 = load double, double* %b.addr, align 8, !tbaa !1618, !dbg !1582
	%49 = load double, double* %acc.addr, align 8, !tbaa !1618, !dbg !1582
	%50 = invoke double  @_Z7RombergRK11T1DFunctionddd (%struct.T1DFunction*  %46, double  %47, double  %48, double  %49)
		to label %L.B0177
		unwind label %L_T15899160_8084, !dbg !1582
L.B0177:
	store double  %50, double* %.Q0002.addr, align 8, !tbaa !1618, !dbg !1582
	%51 = load double, double* %norm.addr, align 8, !tbaa !1618, !dbg !1582
	%52 = fmul double  %51,  %50, !dbg !1582
	call void @llvm.dbg.declare (metadata double* %value.addr, metadata !1583, metadata !1553), !dbg !1411
	store double  %52, double* %value.addr, align 8, !tbaa !1618, !dbg !1582
	%53 = getelementptr i8, i8*  %33, i64 16, !dbg !1584
	store i8*  %53, i8**  %32, align 8, !tbaa !1615, !dbg !1584
	%54 = getelementptr i8, i8*  %30, i64 16, !dbg !1585
	store i8*  %54, i8**  %32, align 8, !tbaa !1615, !dbg !1585
	br label %L_T15899640_8084, !dbg !1586
L.B0011:
	%55 = bitcast [25 x i8]* @.S08448 to i8*, !dbg !1587
	%56 = icmp ne i8*  %55,  null, !dbg !1587
	br i1  %56, label %L..inline.9786, label %L.B0178, !dbg !1587
L.B0178:
	%57 = bitcast %struct._ZSo* @_ZSt4cerr to i8*, !dbg !1588
	%58 = bitcast %struct._ZSo* @_ZSt4cerr to i8**, !dbg !1588
	%59 = load i8*, i8**  %58, align 8, !tbaa !1615, !dbg !1588
	%60 = getelementptr i8, i8*  %59, i64 18446744073709551592, !dbg !1588
	%61 = bitcast i8*  %60 to i64*, !dbg !1588
	%62 = load i64, i64*  %61, align 8, !tbaa !1616, !dbg !1588
	%63 = getelementptr i8, i8*  %57, i64  %62, !dbg !1588
	%64 = bitcast %struct._ZSt9basic_iosIcSt11char_traitsIcEE** %..inline.addr.3 to i8**, !dbg !1588
	store i8*  %63, i8**  %64, align 8, !tbaa !1615, !dbg !1588
	%65 = load %struct._ZSt9basic_iosIcSt11char_traitsIcEE*, %struct._ZSt9basic_iosIcSt11char_traitsIcEE** %..inline.addr.3, align 8, !tbaa !1615, !dbg !1588
	%66 = bitcast %struct._ZSt9basic_iosIcSt11char_traitsIcEE*  %65 to i8*, !dbg !1588
	%67 = bitcast %struct._ZSt9basic_iosIcSt11char_traitsIcEE** %..inline.addr.4 to i8**, !dbg !1588
	store i8*  %66, i8**  %67, align 8, !tbaa !1615, !dbg !1588
	%68 = load %struct._ZSt9basic_iosIcSt11char_traitsIcEE*, %struct._ZSt9basic_iosIcSt11char_traitsIcEE** %..inline.addr.4, align 8, !tbaa !1615, !dbg !1588
	%69 = bitcast %struct._ZSt9basic_iosIcSt11char_traitsIcEE*  %68 to i8*, !dbg !1588
	%70 = getelementptr i8, i8*  %69, i64 32, !dbg !1588
	%71 = bitcast i8*  %70 to i32*, !dbg !1588
	%72 = load i32, i32*  %71, align 4, !tbaa !1616, !dbg !1588
	%73 = or i32  %72, 1, !dbg !1588
	call void  @_ZNSt9basic_iosIcSt11char_traitsIcEE5clearESt12_Ios_Iostate (%struct._ZSt9basic_iosIcSt11char_traitsIcEE*  %65, i32  %73), !dbg !1588
	br label %L..inline.9807, !dbg !1588
L.B0002:
	%74 = load %struct.T3DFunction*, %struct.T3DFunction** %f1.addr, align 8, !tbaa !1615, !dbg !1591
	%75 = bitcast %struct.T3DFunction*  %74 to i8*, !dbg !1591
	%76 = bitcast %struct.T3DFunction** %..inline.addr.6 to i8**, !dbg !1591
	store i8*  %75, i8**  %76, align 8, !tbaa !1615, !dbg !1591
	%77 = load double*, double** %r1.addr, align 8, !tbaa !1615, !dbg !1591
	%78 = bitcast double*  %77 to i8*, !dbg !1591
	%79 = getelementptr i8, i8*  %78, i64 8, !dbg !1591
	%80 = bitcast i8*  %79 to double*, !dbg !1591
	%81 = load double, double*  %80, align 8, !tbaa !1616, !dbg !1591
	store double  %81, double* %..inline.addr.7, align 8, !tbaa !1618, !dbg !1591
	%82 = getelementptr i8, i8*  %78, i64 16, !dbg !1591
	%83 = bitcast i8*  %82 to double*, !dbg !1591
	%84 = load double, double*  %83, align 8, !tbaa !1616, !dbg !1591
	store double  %84, double* %..inline.addr.8, align 8, !tbaa !1618, !dbg !1591
	%85 = bitcast [5 x i32 (...)* (...)*]* @_ZTV11T1DFunction to i8*, !dbg !1592
	%86 = getelementptr i8, i8*  %85, i64 16, !dbg !1592
	call void @llvm.dbg.declare (metadata %struct.T3D_fix23* %f.addr.1, metadata !1593, metadata !1553), !dbg !1419
	%87 = bitcast %struct.T3D_fix23* %f.addr.1 to i8**, !dbg !1592
	store i8*  %86, i8**  %87, align 8, !tbaa !1615, !dbg !1592
	%88 = bitcast [5 x i32 (...)* (...)*]* @_ZTV9T3D_fix23 to i8*, !dbg !1592
	%89 = getelementptr i8, i8*  %88, i64 16, !dbg !1592
	store i8*  %89, i8**  %87, align 8, !tbaa !1615, !dbg !1592
	%90 = load %struct.T3DFunction*, %struct.T3DFunction** %..inline.addr.6, align 8, !tbaa !1615, !dbg !1592
	%91 = bitcast %struct.T3DFunction*  %90 to i8*, !dbg !1592
	%92 = bitcast %struct.T3D_fix23* %f.addr.1 to i8*, !dbg !1592
	%93 = getelementptr i8, i8*  %92, i64 8, !dbg !1592
	%94 = bitcast i8*  %93 to i8**, !dbg !1592
	store i8*  %91, i8**  %94, align 8, !tbaa !1615, !dbg !1592
	%95 = load double, double* %..inline.addr.7, align 8, !tbaa !1618, !dbg !1592
	%96 = getelementptr i8, i8*  %92, i64 16, !dbg !1592
	%97 = bitcast i8*  %96 to double*, !dbg !1592
	store double  %95, double*  %97, align 8, !tbaa !1616, !dbg !1592
	%98 = load double, double* %..inline.addr.8, align 8, !tbaa !1618, !dbg !1592
	%99 = getelementptr i8, i8*  %92, i64 24, !dbg !1592
	%100 = bitcast i8*  %99 to double*, !dbg !1592
	store double  %98, double*  %100, align 8, !tbaa !1616, !dbg !1592
	%101 = bitcast %struct.T3D_fix23* %f.addr.1 to %struct.T1DFunction*, !dbg !1596
	%102 = load double, double* %a.addr, align 8, !tbaa !1618, !dbg !1596
	%103 = load double, double* %b.addr, align 8, !tbaa !1618, !dbg !1596
	%104 = load double, double* %acc.addr, align 8, !tbaa !1618, !dbg !1596
	%105 = invoke double  @_Z7RombergRK11T1DFunctionddd (%struct.T1DFunction*  %101, double  %102, double  %103, double  %104)
		to label %L.B0179
		unwind label %L_T15898680_8084, !dbg !1596
L.B0179:
	store double  %105, double* %.Q0000.addr, align 8, !tbaa !1618, !dbg !1596
	%106 = load double, double* %norm.addr, align 8, !tbaa !1618, !dbg !1596
	%107 = fmul double  %106,  %105, !dbg !1596
	store double  %107, double* %value.addr, align 8, !tbaa !1618, !dbg !1596
	%108 = getelementptr i8, i8*  %88, i64 16, !dbg !1597
	store i8*  %108, i8**  %87, align 8, !tbaa !1615, !dbg !1597
	%109 = getelementptr i8, i8*  %85, i64 16, !dbg !1598
	store i8*  %109, i8**  %87, align 8, !tbaa !1615, !dbg !1598
	br label %L_T15899640_8084, !dbg !1599
L.B0005:
	%110 = load %struct.T3DFunction*, %struct.T3DFunction** %f1.addr, align 8, !tbaa !1615, !dbg !1600
	%111 = bitcast %struct.T3DFunction*  %110 to i8*, !dbg !1600
	%112 = bitcast %struct.T3DFunction** %..inline.addr.9 to i8**, !dbg !1600
	store i8*  %111, i8**  %112, align 8, !tbaa !1615, !dbg !1600
	%113 = load double*, double** %r1.addr, align 8, !tbaa !1615, !dbg !1600
	%114 = load double, double*  %113, align 8, !tbaa !1616, !dbg !1600
	store double  %114, double* %..inline.addr.300, align 8, !tbaa !1618, !dbg !1600
	%115 = bitcast double*  %113 to i8*, !dbg !1600
	%116 = getelementptr i8, i8*  %115, i64 16, !dbg !1600
	%117 = bitcast i8*  %116 to double*, !dbg !1600
	%118 = load double, double*  %117, align 8, !tbaa !1616, !dbg !1600
	store double  %118, double* %..inline.addr.310, align 8, !tbaa !1618, !dbg !1600
	%119 = bitcast [5 x i32 (...)* (...)*]* @_ZTV11T1DFunction to i8*, !dbg !1601
	%120 = getelementptr i8, i8*  %119, i64 16, !dbg !1601
	call void @llvm.dbg.declare (metadata %struct.T3D_fix13* %f.addr.2, metadata !1602, metadata !1553), !dbg !1421
	%121 = bitcast %struct.T3D_fix13* %f.addr.2 to i8**, !dbg !1601
	store i8*  %120, i8**  %121, align 8, !tbaa !1615, !dbg !1601
	%122 = bitcast [5 x i32 (...)* (...)*]* @_ZTV9T3D_fix13 to i8*, !dbg !1601
	%123 = getelementptr i8, i8*  %122, i64 16, !dbg !1601
	store i8*  %123, i8**  %121, align 8, !tbaa !1615, !dbg !1601
	%124 = load %struct.T3DFunction*, %struct.T3DFunction** %..inline.addr.9, align 8, !tbaa !1615, !dbg !1601
	%125 = bitcast %struct.T3DFunction*  %124 to i8*, !dbg !1601
	%126 = bitcast %struct.T3D_fix13* %f.addr.2 to i8*, !dbg !1601
	%127 = getelementptr i8, i8*  %126, i64 8, !dbg !1601
	%128 = bitcast i8*  %127 to i8**, !dbg !1601
	store i8*  %125, i8**  %128, align 8, !tbaa !1615, !dbg !1601
	%129 = load double, double* %..inline.addr.300, align 8, !tbaa !1618, !dbg !1601
	%130 = getelementptr i8, i8*  %126, i64 16, !dbg !1601
	%131 = bitcast i8*  %130 to double*, !dbg !1601
	store double  %129, double*  %131, align 8, !tbaa !1616, !dbg !1601
	%132 = load double, double* %..inline.addr.310, align 8, !tbaa !1618, !dbg !1601
	%133 = getelementptr i8, i8*  %126, i64 24, !dbg !1601
	%134 = bitcast i8*  %133 to double*, !dbg !1601
	store double  %132, double*  %134, align 8, !tbaa !1616, !dbg !1601
	%135 = bitcast %struct.T3D_fix13* %f.addr.2 to %struct.T1DFunction*, !dbg !1605
	%136 = load double, double* %a.addr, align 8, !tbaa !1618, !dbg !1605
	%137 = load double, double* %b.addr, align 8, !tbaa !1618, !dbg !1605
	%138 = load double, double* %acc.addr, align 8, !tbaa !1618, !dbg !1605
	%139 = invoke double  @_Z7RombergRK11T1DFunctionddd (%struct.T1DFunction*  %135, double  %136, double  %137, double  %138)
		to label %L.B0180
		unwind label %L_T15898920_8084, !dbg !1605
L.B0180:
	store double  %139, double* %.Q0001.addr, align 8, !tbaa !1618, !dbg !1605
	%140 = load double, double* %norm.addr, align 8, !tbaa !1618, !dbg !1605
	%141 = fmul double  %140,  %139, !dbg !1605
	store double  %141, double* %value.addr, align 8, !tbaa !1618, !dbg !1605
	%142 = getelementptr i8, i8*  %122, i64 16, !dbg !1606
	store i8*  %142, i8**  %121, align 8, !tbaa !1615, !dbg !1606
	%143 = getelementptr i8, i8*  %119, i64 16, !dbg !1607
	store i8*  %143, i8**  %121, align 8, !tbaa !1615, !dbg !1607
	br label %L_T15899640_8084, !dbg !1608
L..inline.9786:
	%144 = bitcast [25 x i8]* @.S08448 to i8*, !dbg !1609
	%145 = call i64  @strlen (i8*  %144) nounwind, !dbg !1609
	%146 = call %struct._ZSo*  @_ZSt16__ostream_insertIcSt11char_traitsIcEERSt13basic_ostreamIT_T0_ES6_PKS3_l (%struct._ZSo* @_ZSt4cerr, i8*  %144, i64  %145), !dbg !1609
	%147 = bitcast %struct._ZSo*  %146 to i8*, !dbg !1609
	%148 = bitcast %struct._ZSo** %.Q0003.addr to i8**, !dbg !1609
	store i8*  %147, i8**  %148, align 8, !tbaa !1615, !dbg !1609
	br label %L..inline.9807
L..inline.9807:
	store double  0.00000000000000000E+0, double* %value.addr, align 8, !tbaa !1618, !dbg !1610
	br label %L_T15899640_8084
L_T15899640_8084:
	%149 = load double, double* %value.addr, align 8, !tbaa !1618, !dbg !1611
	ret double  %149, !dbg !1611
L.B0181:
	br label %L.R0000, !dbg !1611
L_T15898680_8084:
	%150 = landingpad %astruct.dt64
	cleanup
	%151 = extractvalue %astruct.dt64  %150, 0, !dbg !1611
	store i8*  %151, i8** %__caught_object_address.addr, align 1, !tbaa !1615, !dbg !1611
	%152 = extractvalue %astruct.dt64  %150, 1, !dbg !1611
	store i32  %152, i32* %__catch_clause_number.addr, align 1, !tbaa !1616, !dbg !1611
	%153 = bitcast [5 x i32 (...)* (...)*]* @_ZTV9T3D_fix23 to i8*, !dbg !1611
	%154 = getelementptr i8, i8*  %153, i64 16, !dbg !1611
	%155 = bitcast %struct.T3D_fix23* %f.addr.1 to i8**, !dbg !1611
	store i8*  %154, i8**  %155, align 8, !tbaa !1615, !dbg !1611
	%156 = bitcast [5 x i32 (...)* (...)*]* @_ZTV11T1DFunction to i8*, !dbg !1598
	%157 = getelementptr i8, i8*  %156, i64 16, !dbg !1598
	store i8*  %157, i8**  %155, align 8, !tbaa !1615, !dbg !1598
	%158 = load i32, i32* %__catch_clause_number.addr, align 4, !tbaa !1616, !dbg !1611
	%159 = load i8*, i8** %__caught_object_address.addr, align 8, !tbaa !1615, !dbg !1611
	%160 = insertvalue %astruct.dt64 undef, i8*  %159, 0, !dbg !1611
	%161 = insertvalue %astruct.dt64  %160, i32  %158, 1, !dbg !1611
	resume %astruct.dt64  %161 , !dbg !1611
L_T15898920_8084:
	%162 = landingpad %astruct.dt64
	cleanup
	%163 = extractvalue %astruct.dt64  %162, 0, !dbg !1611
	store i8*  %163, i8** %__caught_object_address.addr, align 1, !tbaa !1615, !dbg !1611
	%164 = extractvalue %astruct.dt64  %162, 1, !dbg !1611
	store i32  %164, i32* %__catch_clause_number.addr, align 1, !tbaa !1616, !dbg !1611
	%165 = bitcast [5 x i32 (...)* (...)*]* @_ZTV9T3D_fix13 to i8*, !dbg !1611
	%166 = getelementptr i8, i8*  %165, i64 16, !dbg !1611
	%167 = bitcast %struct.T3D_fix13* %f.addr.2 to i8**, !dbg !1611
	store i8*  %166, i8**  %167, align 8, !tbaa !1615, !dbg !1611
	%168 = bitcast [5 x i32 (...)* (...)*]* @_ZTV11T1DFunction to i8*, !dbg !1607
	%169 = getelementptr i8, i8*  %168, i64 16, !dbg !1607
	store i8*  %169, i8**  %167, align 8, !tbaa !1615, !dbg !1607
	%170 = load i32, i32* %__catch_clause_number.addr, align 4, !tbaa !1616, !dbg !1611
	%171 = load i8*, i8** %__caught_object_address.addr, align 8, !tbaa !1615, !dbg !1611
	%172 = insertvalue %astruct.dt64 undef, i8*  %171, 0, !dbg !1611
	%173 = insertvalue %astruct.dt64  %172, i32  %170, 1, !dbg !1611
	resume %astruct.dt64  %173 , !dbg !1611
L_T15899160_8084:
	%174 = landingpad %astruct.dt64
	cleanup
	%175 = extractvalue %astruct.dt64  %174, 0, !dbg !1611
	store i8*  %175, i8** %__caught_object_address.addr, align 1, !tbaa !1615, !dbg !1611
	%176 = extractvalue %astruct.dt64  %174, 1, !dbg !1611
	store i32  %176, i32* %__catch_clause_number.addr, align 1, !tbaa !1616, !dbg !1611
	%177 = bitcast [5 x i32 (...)* (...)*]* @_ZTV9T3D_fix12 to i8*, !dbg !1611
	%178 = getelementptr i8, i8*  %177, i64 16, !dbg !1611
	%179 = bitcast %struct.T3D_fix12* %f.addr to i8**, !dbg !1611
	store i8*  %178, i8**  %179, align 8, !tbaa !1615, !dbg !1611
	%180 = bitcast [5 x i32 (...)* (...)*]* @_ZTV11T1DFunction to i8*, !dbg !1585
	%181 = getelementptr i8, i8*  %180, i64 16, !dbg !1585
	store i8*  %181, i8**  %179, align 8, !tbaa !1615, !dbg !1585
	%182 = load i32, i32* %__catch_clause_number.addr, align 4, !tbaa !1616, !dbg !1611
	%183 = load i8*, i8** %__caught_object_address.addr, align 8, !tbaa !1615, !dbg !1611
	%184 = insertvalue %astruct.dt64 undef, i8*  %183, 0, !dbg !1611
	%185 = insertvalue %astruct.dt64  %184, i32  %182, 1, !dbg !1611
	resume %astruct.dt64  %185 , !dbg !1611
L.R0000:
	ret double 0.0
}

%struct.T3D_fix2 = type <{ %struct.T2DFunction, %struct.T3DFunction*, double}> 
%struct.T3D_fix3 = type <{ %struct.T2DFunction, %struct.T3DFunction*, double}> 
%struct.T3D_fix1 = type <{ %struct.T2DFunction, %struct.T3DFunction*, double}> 
%struct.T2DFunction = type <{ i32 (...)* (...)*}> 

define double @_Z14surfaceAverageRK11T3DFunction10coordinatedPKddd(%struct.T3DFunction* %f1.arg, i32 zeroext %face.arg, double %accuracy.arg, double* %r1.arg, double %L1.arg, double %L2.arg) #0 personality i8* bitcast (i32 (...)* @__gxx_personality_v0 to i8*) !dbg !1624 {
L.entry:
	%f1.addr = alloca %struct.T3DFunction*, align 8
	%face.addr = alloca i32, align 4
	%accuracy.addr = alloca double, align 8
	%r1.addr = alloca double*, align 8
	%L1.addr = alloca double, align 8
	%L2.addr = alloca double, align 8
	%acc.addr = alloca double, align 8
	%norm.addr = alloca double, align 8
	%.D0001.addr = alloca i32, align 4
	%..inline.addr = alloca %struct.T3DFunction*, align 8
	%..inline.addr.1 = alloca double, align 8
	%f.addr = alloca %struct.T3D_fix3, align 8
	%.Q0006.addr = alloca double, align 8
	%value.addr = alloca double, align 8
	%..inline.addr.2 = alloca %struct._ZSt9basic_iosIcSt11char_traitsIcEE*, align 8
	%..inline.addr.3 = alloca %struct._ZSt9basic_iosIcSt11char_traitsIcEE*, align 8
	%..inline.addr.4 = alloca i32, align 4
	%..inline.addr.5 = alloca %struct.T3DFunction*, align 8
	%..inline.addr.6 = alloca double, align 8
	%f.addr.1 = alloca %struct.T3D_fix1, align 8
	%.Q0004.addr = alloca double, align 8
	%..inline.addr.7 = alloca %struct.T3DFunction*, align 8
	%..inline.addr.8 = alloca double, align 8
	%f.addr.2 = alloca %struct.T3D_fix2, align 8
	%.Q0005.addr = alloca double, align 8
	%..inline.addr.9 = alloca i64, align 8
	%.Q0007.addr = alloca %struct._ZSo*, align 8
	%__caught_object_address.addr = alloca i8*, align 8
	%__catch_clause_number.addr = alloca i32, align 4

	call void @llvm.dbg.declare (metadata %struct.T3DFunction** %f1.addr, metadata !1766, metadata !1553), !dbg !1625
	store %struct.T3DFunction* %f1.arg, %struct.T3DFunction** %f1.addr, align 8, !tbaa !1615
	call void @llvm.dbg.declare (metadata %struct.T3DFunction** %f1.addr, metadata !1767, metadata !1553), !dbg !1625
	call void @llvm.dbg.declare (metadata i32* %face.addr, metadata !1768, metadata !1553), !dbg !1625
	store i32 %face.arg, i32* %face.addr, align 4, !tbaa !1616
	call void @llvm.dbg.declare (metadata i32* %face.addr, metadata !1769, metadata !1553), !dbg !1625
	call void @llvm.dbg.declare (metadata double* %accuracy.addr, metadata !1770, metadata !1553), !dbg !1625
	store double %accuracy.arg, double* %accuracy.addr, align 8, !tbaa !1616
	call void @llvm.dbg.declare (metadata double* %accuracy.addr, metadata !1771, metadata !1553), !dbg !1625
	call void @llvm.dbg.declare (metadata double** %r1.addr, metadata !1772, metadata !1553), !dbg !1625
	store double* %r1.arg, double** %r1.addr, align 8, !tbaa !1615
	call void @llvm.dbg.declare (metadata double** %r1.addr, metadata !1773, metadata !1553), !dbg !1625
	call void @llvm.dbg.declare (metadata double* %L1.addr, metadata !1774, metadata !1553), !dbg !1625
	store double %L1.arg, double* %L1.addr, align 8, !tbaa !1616
	call void @llvm.dbg.declare (metadata double* %L1.addr, metadata !1775, metadata !1553), !dbg !1625
	call void @llvm.dbg.declare (metadata double* %L2.addr, metadata !1776, metadata !1553), !dbg !1625
	store double %L2.arg, double* %L2.addr, align 8, !tbaa !1616
	call void @llvm.dbg.declare (metadata double* %L2.addr, metadata !1777, metadata !1553), !dbg !1625
	%0 = load double, double* %L2.addr, align 8, !tbaa !1618, !dbg !1778
	%1 = load double, double* %L1.addr, align 8, !tbaa !1618, !dbg !1778
	%2 = load double, double* %accuracy.addr, align 8, !tbaa !1618, !dbg !1778
	%3 = fmul double  %1,  %2, !dbg !1778
	%4 = fmul double  %0,  %3, !dbg !1778
	call void @llvm.dbg.declare (metadata double* %acc.addr, metadata !1779, metadata !1553), !dbg !1629
	store double  %4, double* %acc.addr, align 8, !tbaa !1618, !dbg !1778
	%5 = load double, double* %L2.addr, align 8, !tbaa !1618, !dbg !1780
	%6 = load double, double* %L1.addr, align 8, !tbaa !1618, !dbg !1780
	%7 = fmul double  %5,  %6, !dbg !1780
	%8 = fdiv double  1.00000000000000000E+0,  %7, !dbg !1780
	call void @llvm.dbg.declare (metadata double* %norm.addr, metadata !1781, metadata !1553), !dbg !1629
	store double  %8, double* %norm.addr, align 8, !tbaa !1618, !dbg !1780
	%9 = load i32, i32* %face.addr, align 4, !tbaa !1616, !dbg !1782
	store i32  %9, i32* %.D0001.addr, align 4, !tbaa !1620, !dbg !1782
	%10 = icmp eq i32  %9, 0, !dbg !1782
	br i1  %10, label %L.B0017, label %L.B0202, !dbg !1782
L.B0202:
	%11 = icmp eq i32  %9, 1, !dbg !1782
	br i1  %11, label %L.B0020, label %L.B0203, !dbg !1782
L.B0203:
	%12 = icmp ne i32  %9, 2, !dbg !1782
	br i1  %12, label %L.B0026, label %L.B0023, !dbg !1782
L.B0023:
	%13 = load %struct.T3DFunction*, %struct.T3DFunction** %f1.addr, align 8, !tbaa !1615, !dbg !1783
	%14 = bitcast %struct.T3DFunction*  %13 to i8*, !dbg !1783
	%15 = bitcast %struct.T3DFunction** %..inline.addr to i8**, !dbg !1783
	store i8*  %14, i8**  %15, align 8, !tbaa !1615, !dbg !1783
	%16 = load double*, double** %r1.addr, align 8, !tbaa !1615, !dbg !1783
	%17 = bitcast double*  %16 to i8*, !dbg !1783
	%18 = getelementptr i8, i8*  %17, i64 16, !dbg !1783
	%19 = bitcast i8*  %18 to double*, !dbg !1783
	%20 = load double, double*  %19, align 8, !tbaa !1616, !dbg !1783
	store double  %20, double* %..inline.addr.1, align 8, !tbaa !1618, !dbg !1783
	%21 = bitcast [5 x i32 (...)* (...)*]* @_ZTV11T2DFunction to i8*, !dbg !1784
	%22 = getelementptr i8, i8*  %21, i64 16, !dbg !1784
	call void @llvm.dbg.declare (metadata %struct.T3D_fix3* %f.addr, metadata !1787, metadata !1553), !dbg !1637
	%23 = bitcast %struct.T3D_fix3* %f.addr to i8**, !dbg !1784
	store i8*  %22, i8**  %23, align 8, !tbaa !1615, !dbg !1784
	%24 = bitcast [5 x i32 (...)* (...)*]* @_ZTV8T3D_fix3 to i8*, !dbg !1784
	%25 = getelementptr i8, i8*  %24, i64 16, !dbg !1784
	store i8*  %25, i8**  %23, align 8, !tbaa !1615, !dbg !1784
	%26 = load %struct.T3DFunction*, %struct.T3DFunction** %..inline.addr, align 8, !tbaa !1615, !dbg !1784
	%27 = bitcast %struct.T3DFunction*  %26 to i8*, !dbg !1784
	%28 = bitcast %struct.T3D_fix3* %f.addr to i8*, !dbg !1784
	%29 = getelementptr i8, i8*  %28, i64 8, !dbg !1784
	%30 = bitcast i8*  %29 to i8**, !dbg !1784
	store i8*  %27, i8**  %30, align 8, !tbaa !1615, !dbg !1784
	%31 = load double, double* %..inline.addr.1, align 8, !tbaa !1618, !dbg !1784
	%32 = getelementptr i8, i8*  %28, i64 16, !dbg !1784
	%33 = bitcast i8*  %32 to double*, !dbg !1784
	store double  %31, double*  %33, align 8, !tbaa !1616, !dbg !1784
	%34 = bitcast %struct.T3D_fix3* %f.addr to %struct.T2DFunction*, !dbg !1790
	%35 = load double*, double** %r1.addr, align 8, !tbaa !1615, !dbg !1790
	%36 = load double, double*  %35, align 8, !tbaa !1616, !dbg !1790
	%37 = load double, double* %L1.addr, align 8, !tbaa !1618, !dbg !1790
	%38 = fadd double  %37,  %36, !dbg !1790
	%39 = bitcast double*  %35 to i8*, !dbg !1790
	%40 = getelementptr i8, i8*  %39, i64 8, !dbg !1790
	%41 = bitcast i8*  %40 to double*, !dbg !1790
	%42 = load double, double*  %41, align 8, !tbaa !1616, !dbg !1790
	%43 = load double, double* %L2.addr, align 8, !tbaa !1618, !dbg !1790
	%44 = fadd double  %43,  %42, !dbg !1790
	%45 = load double, double* %acc.addr, align 8, !tbaa !1618, !dbg !1790
	%46 = invoke double  @_Z7RombergRK11T2DFunctionddddd (%struct.T2DFunction*  %34, double  %36, double  %38, double  %42, double  %44, double  %45)
		to label %L.B0204
		unwind label %L_T15732472_8085, !dbg !1790
L.B0204:
	store double  %46, double* %.Q0006.addr, align 8, !tbaa !1618, !dbg !1790
	%47 = load double, double* %norm.addr, align 8, !tbaa !1618, !dbg !1790
	%48 = fmul double  %47,  %46, !dbg !1790
	call void @llvm.dbg.declare (metadata double* %value.addr, metadata !1791, metadata !1553), !dbg !1625
	store double  %48, double* %value.addr, align 8, !tbaa !1618, !dbg !1790
	%49 = getelementptr i8, i8*  %24, i64 16, !dbg !1792
	store i8*  %49, i8**  %23, align 8, !tbaa !1615, !dbg !1792
	%50 = getelementptr i8, i8*  %21, i64 16, !dbg !1793
	store i8*  %50, i8**  %23, align 8, !tbaa !1615, !dbg !1793
	br label %L_T15732952_8085, !dbg !1794
L.B0026:
	%51 = bitcast [28 x i8]* @.S08496 to i8*, !dbg !1795
	%52 = icmp ne i8*  %51,  null, !dbg !1795
	br i1  %52, label %L..inline.10054, label %L.B0205, !dbg !1795
L.B0205:
	%53 = bitcast %struct._ZSo* @_ZSt4cerr to i8*, !dbg !1796
	%54 = bitcast %struct._ZSo* @_ZSt4cerr to i8**, !dbg !1796
	%55 = load i8*, i8**  %54, align 8, !tbaa !1615, !dbg !1796
	%56 = getelementptr i8, i8*  %55, i64 18446744073709551592, !dbg !1796
	%57 = bitcast i8*  %56 to i64*, !dbg !1796
	%58 = load i64, i64*  %57, align 8, !tbaa !1616, !dbg !1796
	%59 = getelementptr i8, i8*  %53, i64  %58, !dbg !1796
	%60 = bitcast %struct._ZSt9basic_iosIcSt11char_traitsIcEE** %..inline.addr.2 to i8**, !dbg !1796
	store i8*  %59, i8**  %60, align 8, !tbaa !1615, !dbg !1796
	%61 = load %struct._ZSt9basic_iosIcSt11char_traitsIcEE*, %struct._ZSt9basic_iosIcSt11char_traitsIcEE** %..inline.addr.2, align 8, !tbaa !1615, !dbg !1796
	%62 = bitcast %struct._ZSt9basic_iosIcSt11char_traitsIcEE*  %61 to i8*, !dbg !1796
	%63 = bitcast %struct._ZSt9basic_iosIcSt11char_traitsIcEE** %..inline.addr.3 to i8**, !dbg !1796
	store i8*  %62, i8**  %63, align 8, !tbaa !1615, !dbg !1796
	%64 = load %struct._ZSt9basic_iosIcSt11char_traitsIcEE*, %struct._ZSt9basic_iosIcSt11char_traitsIcEE** %..inline.addr.3, align 8, !tbaa !1615, !dbg !1796
	%65 = bitcast %struct._ZSt9basic_iosIcSt11char_traitsIcEE*  %64 to i8*, !dbg !1796
	%66 = getelementptr i8, i8*  %65, i64 32, !dbg !1796
	%67 = bitcast i8*  %66 to i32*, !dbg !1796
	%68 = load i32, i32*  %67, align 4, !tbaa !1616, !dbg !1796
	%69 = or i32  %68, 1, !dbg !1796
	call void  @_ZNSt9basic_iosIcSt11char_traitsIcEE5clearESt12_Ios_Iostate (%struct._ZSt9basic_iosIcSt11char_traitsIcEE*  %61, i32  %69), !dbg !1796
	br label %L..inline.10075, !dbg !1796
L.B0017:
	%70 = load %struct.T3DFunction*, %struct.T3DFunction** %f1.addr, align 8, !tbaa !1615, !dbg !1797
	%71 = bitcast %struct.T3DFunction*  %70 to i8*, !dbg !1797
	%72 = bitcast %struct.T3DFunction** %..inline.addr.5 to i8**, !dbg !1797
	store i8*  %71, i8**  %72, align 8, !tbaa !1615, !dbg !1797
	%73 = load double*, double** %r1.addr, align 8, !tbaa !1615, !dbg !1797
	%74 = load double, double*  %73, align 8, !tbaa !1616, !dbg !1797
	store double  %74, double* %..inline.addr.6, align 8, !tbaa !1618, !dbg !1797
	%75 = bitcast [5 x i32 (...)* (...)*]* @_ZTV11T2DFunction to i8*, !dbg !1798
	%76 = getelementptr i8, i8*  %75, i64 16, !dbg !1798
	call void @llvm.dbg.declare (metadata %struct.T3D_fix1* %f.addr.1, metadata !1799, metadata !1553), !dbg !1633
	%77 = bitcast %struct.T3D_fix1* %f.addr.1 to i8**, !dbg !1798
	store i8*  %76, i8**  %77, align 8, !tbaa !1615, !dbg !1798
	%78 = bitcast [5 x i32 (...)* (...)*]* @_ZTV8T3D_fix1 to i8*, !dbg !1798
	%79 = getelementptr i8, i8*  %78, i64 16, !dbg !1798
	store i8*  %79, i8**  %77, align 8, !tbaa !1615, !dbg !1798
	%80 = load %struct.T3DFunction*, %struct.T3DFunction** %..inline.addr.5, align 8, !tbaa !1615, !dbg !1798
	%81 = bitcast %struct.T3DFunction*  %80 to i8*, !dbg !1798
	%82 = bitcast %struct.T3D_fix1* %f.addr.1 to i8*, !dbg !1798
	%83 = getelementptr i8, i8*  %82, i64 8, !dbg !1798
	%84 = bitcast i8*  %83 to i8**, !dbg !1798
	store i8*  %81, i8**  %84, align 8, !tbaa !1615, !dbg !1798
	%85 = load double, double* %..inline.addr.6, align 8, !tbaa !1618, !dbg !1798
	%86 = getelementptr i8, i8*  %82, i64 16, !dbg !1798
	%87 = bitcast i8*  %86 to double*, !dbg !1798
	store double  %85, double*  %87, align 8, !tbaa !1616, !dbg !1798
	%88 = bitcast %struct.T3D_fix1* %f.addr.1 to %struct.T2DFunction*, !dbg !1802
	%89 = load double*, double** %r1.addr, align 8, !tbaa !1615, !dbg !1802
	%90 = bitcast double*  %89 to i8*, !dbg !1802
	%91 = getelementptr i8, i8*  %90, i64 8, !dbg !1802
	%92 = bitcast i8*  %91 to double*, !dbg !1802
	%93 = load double, double*  %92, align 8, !tbaa !1616, !dbg !1802
	%94 = load double, double* %L1.addr, align 8, !tbaa !1618, !dbg !1802
	%95 = fadd double  %94,  %93, !dbg !1802
	%96 = getelementptr i8, i8*  %90, i64 16, !dbg !1802
	%97 = bitcast i8*  %96 to double*, !dbg !1802
	%98 = load double, double*  %97, align 8, !tbaa !1616, !dbg !1802
	%99 = load double, double* %L2.addr, align 8, !tbaa !1618, !dbg !1802
	%100 = fadd double  %99,  %98, !dbg !1802
	%101 = load double, double* %acc.addr, align 8, !tbaa !1618, !dbg !1802
	%102 = invoke double  @_Z7RombergRK11T2DFunctionddddd (%struct.T2DFunction*  %88, double  %93, double  %95, double  %98, double  %100, double  %101)
		to label %L.B0206
		unwind label %L_T15731992_8085, !dbg !1802
L.B0206:
	store double  %102, double* %.Q0004.addr, align 8, !tbaa !1618, !dbg !1802
	%103 = load double, double* %norm.addr, align 8, !tbaa !1618, !dbg !1802
	%104 = fmul double  %103,  %102, !dbg !1802
	store double  %104, double* %value.addr, align 8, !tbaa !1618, !dbg !1802
	%105 = getelementptr i8, i8*  %78, i64 16, !dbg !1803
	store i8*  %105, i8**  %77, align 8, !tbaa !1615, !dbg !1803
	%106 = getelementptr i8, i8*  %75, i64 16, !dbg !1804
	store i8*  %106, i8**  %77, align 8, !tbaa !1615, !dbg !1804
	br label %L_T15732952_8085, !dbg !1805
L.B0020:
	%107 = load %struct.T3DFunction*, %struct.T3DFunction** %f1.addr, align 8, !tbaa !1615, !dbg !1806
	%108 = bitcast %struct.T3DFunction*  %107 to i8*, !dbg !1806
	%109 = bitcast %struct.T3DFunction** %..inline.addr.7 to i8**, !dbg !1806
	store i8*  %108, i8**  %109, align 8, !tbaa !1615, !dbg !1806
	%110 = load double*, double** %r1.addr, align 8, !tbaa !1615, !dbg !1806
	%111 = bitcast double*  %110 to i8*, !dbg !1806
	%112 = getelementptr i8, i8*  %111, i64 8, !dbg !1806
	%113 = bitcast i8*  %112 to double*, !dbg !1806
	%114 = load double, double*  %113, align 8, !tbaa !1616, !dbg !1806
	store double  %114, double* %..inline.addr.8, align 8, !tbaa !1618, !dbg !1806
	%115 = bitcast [5 x i32 (...)* (...)*]* @_ZTV11T2DFunction to i8*, !dbg !1807
	%116 = getelementptr i8, i8*  %115, i64 16, !dbg !1807
	call void @llvm.dbg.declare (metadata %struct.T3D_fix2* %f.addr.2, metadata !1808, metadata !1553), !dbg !1635
	%117 = bitcast %struct.T3D_fix2* %f.addr.2 to i8**, !dbg !1807
	store i8*  %116, i8**  %117, align 8, !tbaa !1615, !dbg !1807
	%118 = bitcast [5 x i32 (...)* (...)*]* @_ZTV8T3D_fix2 to i8*, !dbg !1807
	%119 = getelementptr i8, i8*  %118, i64 16, !dbg !1807
	store i8*  %119, i8**  %117, align 8, !tbaa !1615, !dbg !1807
	%120 = load %struct.T3DFunction*, %struct.T3DFunction** %..inline.addr.7, align 8, !tbaa !1615, !dbg !1807
	%121 = bitcast %struct.T3DFunction*  %120 to i8*, !dbg !1807
	%122 = bitcast %struct.T3D_fix2* %f.addr.2 to i8*, !dbg !1807
	%123 = getelementptr i8, i8*  %122, i64 8, !dbg !1807
	%124 = bitcast i8*  %123 to i8**, !dbg !1807
	store i8*  %121, i8**  %124, align 8, !tbaa !1615, !dbg !1807
	%125 = load double, double* %..inline.addr.8, align 8, !tbaa !1618, !dbg !1807
	%126 = getelementptr i8, i8*  %122, i64 16, !dbg !1807
	%127 = bitcast i8*  %126 to double*, !dbg !1807
	store double  %125, double*  %127, align 8, !tbaa !1616, !dbg !1807
	%128 = bitcast %struct.T3D_fix2* %f.addr.2 to %struct.T2DFunction*, !dbg !1811
	%129 = load double*, double** %r1.addr, align 8, !tbaa !1615, !dbg !1811
	%130 = load double, double*  %129, align 8, !tbaa !1616, !dbg !1811
	%131 = load double, double* %L1.addr, align 8, !tbaa !1618, !dbg !1811
	%132 = fadd double  %131,  %130, !dbg !1811
	%133 = bitcast double*  %129 to i8*, !dbg !1811
	%134 = getelementptr i8, i8*  %133, i64 16, !dbg !1811
	%135 = bitcast i8*  %134 to double*, !dbg !1811
	%136 = load double, double*  %135, align 8, !tbaa !1616, !dbg !1811
	%137 = load double, double* %L2.addr, align 8, !tbaa !1618, !dbg !1811
	%138 = fadd double  %137,  %136, !dbg !1811
	%139 = load double, double* %acc.addr, align 8, !tbaa !1618, !dbg !1811
	%140 = invoke double  @_Z7RombergRK11T2DFunctionddddd (%struct.T2DFunction*  %128, double  %130, double  %132, double  %136, double  %138, double  %139)
		to label %L.B0207
		unwind label %L_T15732232_8085, !dbg !1811
L.B0207:
	store double  %140, double* %.Q0005.addr, align 8, !tbaa !1618, !dbg !1811
	%141 = load double, double* %norm.addr, align 8, !tbaa !1618, !dbg !1811
	%142 = fmul double  %141,  %140, !dbg !1811
	store double  %142, double* %value.addr, align 8, !tbaa !1618, !dbg !1811
	%143 = getelementptr i8, i8*  %118, i64 16, !dbg !1812
	store i8*  %143, i8**  %117, align 8, !tbaa !1615, !dbg !1812
	%144 = getelementptr i8, i8*  %115, i64 16, !dbg !1813
	store i8*  %144, i8**  %117, align 8, !tbaa !1615, !dbg !1813
	br label %L_T15732952_8085, !dbg !1814
L..inline.10054:
	%145 = bitcast [28 x i8]* @.S08496 to i8*, !dbg !1815
	%146 = call i64  @strlen (i8*  %145) nounwind, !dbg !1815
	%147 = call %struct._ZSo*  @_ZSt16__ostream_insertIcSt11char_traitsIcEERSt13basic_ostreamIT_T0_ES6_PKS3_l (%struct._ZSo* @_ZSt4cerr, i8*  %145, i64  %146), !dbg !1815
	%148 = bitcast %struct._ZSo*  %147 to i8*, !dbg !1815
	%149 = bitcast %struct._ZSo** %.Q0007.addr to i8**, !dbg !1815
	store i8*  %148, i8**  %149, align 8, !tbaa !1615, !dbg !1815
	br label %L..inline.10075
L..inline.10075:
	call void  @exit (i32 1) nounwind noreturn, !dbg !1816
	br label %L_T15732952_8085
L_T15732952_8085:
	%150 = load double, double* %value.addr, align 8, !tbaa !1618, !dbg !1817
	ret double  %150, !dbg !1817
L.B0208:
	br label %L.R0001, !dbg !1817
L_T15731992_8085:
	%151 = landingpad %astruct.dt64
	cleanup
	%152 = extractvalue %astruct.dt64  %151, 0, !dbg !1817
	store i8*  %152, i8** %__caught_object_address.addr, align 1, !tbaa !1615, !dbg !1817
	%153 = extractvalue %astruct.dt64  %151, 1, !dbg !1817
	store i32  %153, i32* %__catch_clause_number.addr, align 1, !tbaa !1616, !dbg !1817
	%154 = bitcast [5 x i32 (...)* (...)*]* @_ZTV8T3D_fix1 to i8*, !dbg !1817
	%155 = getelementptr i8, i8*  %154, i64 16, !dbg !1817
	%156 = bitcast %struct.T3D_fix1* %f.addr.1 to i8**, !dbg !1817
	store i8*  %155, i8**  %156, align 8, !tbaa !1615, !dbg !1817
	%157 = bitcast [5 x i32 (...)* (...)*]* @_ZTV11T2DFunction to i8*, !dbg !1804
	%158 = getelementptr i8, i8*  %157, i64 16, !dbg !1804
	store i8*  %158, i8**  %156, align 8, !tbaa !1615, !dbg !1804
	%159 = load i32, i32* %__catch_clause_number.addr, align 4, !tbaa !1616, !dbg !1817
	%160 = load i8*, i8** %__caught_object_address.addr, align 8, !tbaa !1615, !dbg !1817
	%161 = insertvalue %astruct.dt64 undef, i8*  %160, 0, !dbg !1817
	%162 = insertvalue %astruct.dt64  %161, i32  %159, 1, !dbg !1817
	resume %astruct.dt64  %162 , !dbg !1817
L_T15732232_8085:
	%163 = landingpad %astruct.dt64
	cleanup
	%164 = extractvalue %astruct.dt64  %163, 0, !dbg !1817
	store i8*  %164, i8** %__caught_object_address.addr, align 1, !tbaa !1615, !dbg !1817
	%165 = extractvalue %astruct.dt64  %163, 1, !dbg !1817
	store i32  %165, i32* %__catch_clause_number.addr, align 1, !tbaa !1616, !dbg !1817
	%166 = bitcast [5 x i32 (...)* (...)*]* @_ZTV8T3D_fix2 to i8*, !dbg !1817
	%167 = getelementptr i8, i8*  %166, i64 16, !dbg !1817
	%168 = bitcast %struct.T3D_fix2* %f.addr.2 to i8**, !dbg !1817
	store i8*  %167, i8**  %168, align 8, !tbaa !1615, !dbg !1817
	%169 = bitcast [5 x i32 (...)* (...)*]* @_ZTV11T2DFunction to i8*, !dbg !1813
	%170 = getelementptr i8, i8*  %169, i64 16, !dbg !1813
	store i8*  %170, i8**  %168, align 8, !tbaa !1615, !dbg !1813
	%171 = load i32, i32* %__catch_clause_number.addr, align 4, !tbaa !1616, !dbg !1817
	%172 = load i8*, i8** %__caught_object_address.addr, align 8, !tbaa !1615, !dbg !1817
	%173 = insertvalue %astruct.dt64 undef, i8*  %172, 0, !dbg !1817
	%174 = insertvalue %astruct.dt64  %173, i32  %171, 1, !dbg !1817
	resume %astruct.dt64  %174 , !dbg !1817
L_T15732472_8085:
	%175 = landingpad %astruct.dt64
	cleanup
	%176 = extractvalue %astruct.dt64  %175, 0, !dbg !1817
	store i8*  %176, i8** %__caught_object_address.addr, align 1, !tbaa !1615, !dbg !1817
	%177 = extractvalue %astruct.dt64  %175, 1, !dbg !1817
	store i32  %177, i32* %__catch_clause_number.addr, align 1, !tbaa !1616, !dbg !1817
	%178 = bitcast [5 x i32 (...)* (...)*]* @_ZTV8T3D_fix3 to i8*, !dbg !1817
	%179 = getelementptr i8, i8*  %178, i64 16, !dbg !1817
	%180 = bitcast %struct.T3D_fix3* %f.addr to i8**, !dbg !1817
	store i8*  %179, i8**  %180, align 8, !tbaa !1615, !dbg !1817
	%181 = bitcast [5 x i32 (...)* (...)*]* @_ZTV11T2DFunction to i8*, !dbg !1793
	%182 = getelementptr i8, i8*  %181, i64 16, !dbg !1793
	store i8*  %182, i8**  %180, align 8, !tbaa !1615, !dbg !1793
	%183 = load i32, i32* %__catch_clause_number.addr, align 4, !tbaa !1616, !dbg !1817
	%184 = load i8*, i8** %__caught_object_address.addr, align 8, !tbaa !1615, !dbg !1817
	%185 = insertvalue %astruct.dt64 undef, i8*  %184, 0, !dbg !1817
	%186 = insertvalue %astruct.dt64  %185, i32  %183, 1, !dbg !1817
	resume %astruct.dt64  %186 , !dbg !1817
L.R0001:
	ret double 0.0
}
define double @_Z13volumeAverageRK11T3DFunctiondPKdS3_(%struct.T3DFunction* %f1.arg, double %accuracy.arg, double* %r1.arg, double* %r2.arg) #0 !dbg !1822 {
L.entry:
	%f1.addr = alloca %struct.T3DFunction*, align 8
	%accuracy.addr = alloca double, align 8
	%r1.addr = alloca double*, align 8
	%r2.addr = alloca double*, align 8
	%acc.addr = alloca double, align 8
	%norm.addr = alloca double, align 8
	%.Q0008.addr = alloca double, align 8
	%value.addr = alloca double, align 8

	call void @llvm.dbg.declare (metadata %struct.T3DFunction** %f1.addr, metadata !1828, metadata !1553), !dbg !1823
	store %struct.T3DFunction* %f1.arg, %struct.T3DFunction** %f1.addr, align 8, !tbaa !1615
	call void @llvm.dbg.declare (metadata %struct.T3DFunction** %f1.addr, metadata !1829, metadata !1553), !dbg !1823
	call void @llvm.dbg.declare (metadata double* %accuracy.addr, metadata !1830, metadata !1553), !dbg !1823
	store double %accuracy.arg, double* %accuracy.addr, align 8, !tbaa !1616
	call void @llvm.dbg.declare (metadata double* %accuracy.addr, metadata !1831, metadata !1553), !dbg !1823
	call void @llvm.dbg.declare (metadata double** %r1.addr, metadata !1832, metadata !1553), !dbg !1823
	store double* %r1.arg, double** %r1.addr, align 8, !tbaa !1615
	call void @llvm.dbg.declare (metadata double** %r1.addr, metadata !1833, metadata !1553), !dbg !1823
	call void @llvm.dbg.declare (metadata double** %r2.addr, metadata !1834, metadata !1553), !dbg !1823
	store double* %r2.arg, double** %r2.addr, align 8, !tbaa !1615
	call void @llvm.dbg.declare (metadata double** %r2.addr, metadata !1835, metadata !1553), !dbg !1823
	%0 = load double*, double** %r2.addr, align 8, !tbaa !1615, !dbg !1836
	%1 = bitcast double*  %0 to i8*, !dbg !1836
	%2 = getelementptr i8, i8*  %1, i64 16, !dbg !1836
	%3 = bitcast i8*  %2 to double*, !dbg !1836
	%4 = load double, double*  %3, align 8, !tbaa !1616, !dbg !1836
	%5 = load double*, double** %r1.addr, align 8, !tbaa !1615, !dbg !1836
	%6 = bitcast double*  %5 to i8*, !dbg !1836
	%7 = getelementptr i8, i8*  %6, i64 16, !dbg !1836
	%8 = bitcast i8*  %7 to double*, !dbg !1836
	%9 = load double, double*  %8, align 8, !tbaa !1616, !dbg !1836
	%10 = fsub double  %4,  %9, !dbg !1836
	%11 = getelementptr i8, i8*  %1, i64 8, !dbg !1836
	%12 = bitcast i8*  %11 to double*, !dbg !1836
	%13 = load double, double*  %12, align 8, !tbaa !1616, !dbg !1836
	%14 = getelementptr i8, i8*  %6, i64 8, !dbg !1836
	%15 = bitcast i8*  %14 to double*, !dbg !1836
	%16 = load double, double*  %15, align 8, !tbaa !1616, !dbg !1836
	%17 = fsub double  %13,  %16, !dbg !1836
	%18 = load double, double* %accuracy.addr, align 8, !tbaa !1618, !dbg !1836
	%19 = load double, double*  %0, align 8, !tbaa !1616, !dbg !1836
	%20 = load double, double*  %5, align 8, !tbaa !1616, !dbg !1836
	%21 = fsub double  %19,  %20, !dbg !1836
	%22 = fmul double  %18,  %21, !dbg !1836
	%23 = fmul double  %17,  %22, !dbg !1836
	%24 = fmul double  %10,  %23, !dbg !1836
	call void @llvm.dbg.declare (metadata double* %acc.addr, metadata !1837, metadata !1553), !dbg !1827
	store double  %24, double* %acc.addr, align 8, !tbaa !1618, !dbg !1836
	%25 = load double*, double** %r2.addr, align 8, !tbaa !1615, !dbg !1838
	%26 = bitcast double*  %25 to i8*, !dbg !1838
	%27 = getelementptr i8, i8*  %26, i64 16, !dbg !1838
	%28 = bitcast i8*  %27 to double*, !dbg !1838
	%29 = load double, double*  %28, align 8, !tbaa !1616, !dbg !1838
	%30 = load double*, double** %r1.addr, align 8, !tbaa !1615, !dbg !1838
	%31 = bitcast double*  %30 to i8*, !dbg !1838
	%32 = getelementptr i8, i8*  %31, i64 16, !dbg !1838
	%33 = bitcast i8*  %32 to double*, !dbg !1838
	%34 = load double, double*  %33, align 8, !tbaa !1616, !dbg !1838
	%35 = fsub double  %29,  %34, !dbg !1838
	%36 = getelementptr i8, i8*  %26, i64 8, !dbg !1838
	%37 = bitcast i8*  %36 to double*, !dbg !1838
	%38 = load double, double*  %37, align 8, !tbaa !1616, !dbg !1838
	%39 = getelementptr i8, i8*  %31, i64 8, !dbg !1838
	%40 = bitcast i8*  %39 to double*, !dbg !1838
	%41 = load double, double*  %40, align 8, !tbaa !1616, !dbg !1838
	%42 = fsub double  %38,  %41, !dbg !1838
	%43 = load double, double*  %25, align 8, !tbaa !1616, !dbg !1838
	%44 = load double, double*  %30, align 8, !tbaa !1616, !dbg !1838
	%45 = fsub double  %43,  %44, !dbg !1838
	%46 = fmul double  %42,  %45, !dbg !1838
	%47 = fmul double  %35,  %46, !dbg !1838
	%48 = fdiv double  1.00000000000000000E+0,  %47, !dbg !1838
	call void @llvm.dbg.declare (metadata double* %norm.addr, metadata !1839, metadata !1553), !dbg !1827
	store double  %48, double* %norm.addr, align 8, !tbaa !1618, !dbg !1838
	%49 = load %struct.T3DFunction*, %struct.T3DFunction** %f1.addr, align 8, !tbaa !1615, !dbg !1840
	%50 = load double*, double** %r1.addr, align 8, !tbaa !1615, !dbg !1840
	%51 = load double, double*  %50, align 8, !tbaa !1616, !dbg !1840
	%52 = load double*, double** %r2.addr, align 8, !tbaa !1615, !dbg !1840
	%53 = load double, double*  %52, align 8, !tbaa !1616, !dbg !1840
	%54 = bitcast double*  %50 to i8*, !dbg !1840
	%55 = getelementptr i8, i8*  %54, i64 8, !dbg !1840
	%56 = bitcast i8*  %55 to double*, !dbg !1840
	%57 = load double, double*  %56, align 8, !tbaa !1616, !dbg !1840
	%58 = bitcast double*  %52 to i8*, !dbg !1840
	%59 = getelementptr i8, i8*  %58, i64 8, !dbg !1840
	%60 = bitcast i8*  %59 to double*, !dbg !1840
	%61 = load double, double*  %60, align 8, !tbaa !1616, !dbg !1840
	%62 = getelementptr i8, i8*  %54, i64 16, !dbg !1840
	%63 = bitcast i8*  %62 to double*, !dbg !1840
	%64 = load double, double*  %63, align 8, !tbaa !1616, !dbg !1840
	%65 = getelementptr i8, i8*  %58, i64 16, !dbg !1840
	%66 = bitcast i8*  %65 to double*, !dbg !1840
	%67 = load double, double*  %66, align 8, !tbaa !1616, !dbg !1840
	%68 = load double, double* %acc.addr, align 8, !tbaa !1618, !dbg !1840
	%69 = call double  @_Z7RombergRK11T3DFunctionddddddd (%struct.T3DFunction*  %49, double  %51, double  %53, double  %57, double  %61, double  %64, double  %67, double  %68), !dbg !1840
	%70 = load double, double* %norm.addr, align 8, !tbaa !1618, !dbg !1840
	%71 = fmul double  %70,  %69, !dbg !1840
	call void @llvm.dbg.declare (metadata double* %value.addr, metadata !1841, metadata !1553), !dbg !1823
	ret double  %71, !dbg !1842
}
define linkonce_odr void @_ZN11T1DFunctionD1Ev(%struct.T1DFunction* %_T15727552_8088.arg) #0 inlinehint !dbg !1850 {
L.entry:
	%_T15727552_8088.addr = alloca %struct.T1DFunction*, align 8

	call void @llvm.dbg.declare (metadata %struct.T1DFunction** %_T15727552_8088.addr, metadata !1854, metadata !1553), !dbg !1851
	store %struct.T1DFunction* %_T15727552_8088.arg, %struct.T1DFunction** %_T15727552_8088.addr, align 8, !tbaa !1615
	call void @llvm.dbg.declare (metadata %struct.T1DFunction** %_T15727552_8088.addr, metadata !1855, metadata !1553), !dbg !1851
	%0 = bitcast [5 x i32 (...)* (...)*]* @_ZTV11T1DFunction to i8*, !dbg !1856
	%1 = getelementptr i8, i8*  %0, i64 16, !dbg !1856
	%2 = load %struct.T1DFunction*, %struct.T1DFunction** %_T15727552_8088.addr, align 8, !tbaa !1615, !dbg !1856
	%3 = bitcast %struct.T1DFunction*  %2 to i8**, !dbg !1856
	store i8*  %1, i8**  %3, align 8, !tbaa !1615, !dbg !1856
	ret void, !dbg !1856
}
define linkonce_odr void @_ZN11T1DFunctionD0Ev(%struct.T1DFunction* %_T15727552_8089.arg) #0 inlinehint !dbg !1858 {
L.entry:
	%_T15727552_8089.addr = alloca %struct.T1DFunction*, align 8

	store %struct.T1DFunction* %_T15727552_8089.arg, %struct.T1DFunction** %_T15727552_8089.addr, align 8, !tbaa !1615
	%0 = bitcast [5 x i32 (...)* (...)*]* @_ZTV11T1DFunction to i8*, !dbg !1866
	%1 = getelementptr i8, i8*  %0, i64 16, !dbg !1866
	%2 = load %struct.T1DFunction*, %struct.T1DFunction** %_T15727552_8089.addr, align 8, !tbaa !1615, !dbg !1866
	%3 = bitcast %struct.T1DFunction*  %2 to i8**, !dbg !1866
	store i8*  %1, i8**  %3, align 8, !tbaa !1615, !dbg !1866
	%4 = bitcast %struct.T1DFunction*  %2 to i8*, !dbg !1866
	call void  @_ZdlPvm (i8*  %4, i64 8) nounwind, !dbg !1866
	ret void, !dbg !1866
}
define linkonce_odr void @_ZN11T1DFunctionD2Ev(%struct.T1DFunction* %_T15727552_8090.arg) #0 inlinehint !dbg !1868 {
L.entry:
	%_T15727552_8090.addr = alloca %struct.T1DFunction*, align 8

	store %struct.T1DFunction* %_T15727552_8090.arg, %struct.T1DFunction** %_T15727552_8090.addr, align 8, !tbaa !1615
	%0 = bitcast [5 x i32 (...)* (...)*]* @_ZTV11T1DFunction to i8*, !dbg !1876
	%1 = getelementptr i8, i8*  %0, i64 16, !dbg !1876
	%2 = load %struct.T1DFunction*, %struct.T1DFunction** %_T15727552_8090.addr, align 8, !tbaa !1615, !dbg !1876
	%3 = bitcast %struct.T1DFunction*  %2 to i8**, !dbg !1876
	store i8*  %1, i8**  %3, align 8, !tbaa !1615, !dbg !1876
	ret void, !dbg !1876
}
define linkonce_odr void @_ZN11T1DFunctionC1Ev(%struct.T1DFunction* %_T15727552_8091.arg) #0 inlinehint !dbg !1878 {
L.entry:
	%_T15727552_8091.addr = alloca %struct.T1DFunction*, align 8

	call void @llvm.dbg.declare (metadata %struct.T1DFunction** %_T15727552_8091.addr, metadata !1882, metadata !1553), !dbg !1879
	store %struct.T1DFunction* %_T15727552_8091.arg, %struct.T1DFunction** %_T15727552_8091.addr, align 8, !tbaa !1615
	call void @llvm.dbg.declare (metadata %struct.T1DFunction** %_T15727552_8091.addr, metadata !1883, metadata !1553), !dbg !1879
	%0 = bitcast [5 x i32 (...)* (...)*]* @_ZTV11T1DFunction to i8*, !dbg !1884
	%1 = getelementptr i8, i8*  %0, i64 16, !dbg !1884
	%2 = load %struct.T1DFunction*, %struct.T1DFunction** %_T15727552_8091.addr, align 8, !tbaa !1615, !dbg !1884
	%3 = bitcast %struct.T1DFunction*  %2 to i8**, !dbg !1884
	store i8*  %1, i8**  %3, align 8, !tbaa !1615, !dbg !1884
	ret void, !dbg !1884
}
define linkonce_odr void @_ZN11T1DFunctionC2Ev(%struct.T1DFunction* %_T15727552_8092.arg) #0 inlinehint !dbg !1886 {
L.entry:
	%_T15727552_8092.addr = alloca %struct.T1DFunction*, align 8

	store %struct.T1DFunction* %_T15727552_8092.arg, %struct.T1DFunction** %_T15727552_8092.addr, align 8, !tbaa !1615
	%0 = bitcast [5 x i32 (...)* (...)*]* @_ZTV11T1DFunction to i8*, !dbg !1894
	%1 = getelementptr i8, i8*  %0, i64 16, !dbg !1894
	%2 = load %struct.T1DFunction*, %struct.T1DFunction** %_T15727552_8092.addr, align 8, !tbaa !1615, !dbg !1894
	%3 = bitcast %struct.T1DFunction*  %2 to i8**, !dbg !1894
	store i8*  %1, i8**  %3, align 8, !tbaa !1615, !dbg !1894
	ret void, !dbg !1894
}
define linkonce_odr void @_ZN11T2DFunctionD1Ev(%struct.T2DFunction* %_T15727552_8093.arg) #0 inlinehint !dbg !1898 {
L.entry:
	%_T15727552_8093.addr = alloca %struct.T2DFunction*, align 8

	call void @llvm.dbg.declare (metadata %struct.T2DFunction** %_T15727552_8093.addr, metadata !1902, metadata !1553), !dbg !1899
	store %struct.T2DFunction* %_T15727552_8093.arg, %struct.T2DFunction** %_T15727552_8093.addr, align 8, !tbaa !1615
	call void @llvm.dbg.declare (metadata %struct.T2DFunction** %_T15727552_8093.addr, metadata !1903, metadata !1553), !dbg !1899
	%0 = bitcast [5 x i32 (...)* (...)*]* @_ZTV11T2DFunction to i8*, !dbg !1904
	%1 = getelementptr i8, i8*  %0, i64 16, !dbg !1904
	%2 = load %struct.T2DFunction*, %struct.T2DFunction** %_T15727552_8093.addr, align 8, !tbaa !1615, !dbg !1904
	%3 = bitcast %struct.T2DFunction*  %2 to i8**, !dbg !1904
	store i8*  %1, i8**  %3, align 8, !tbaa !1615, !dbg !1904
	ret void, !dbg !1904
}
define linkonce_odr void @_ZN11T2DFunctionD0Ev(%struct.T2DFunction* %_T15727552_8094.arg) #0 inlinehint !dbg !1906 {
L.entry:
	%_T15727552_8094.addr = alloca %struct.T2DFunction*, align 8

	store %struct.T2DFunction* %_T15727552_8094.arg, %struct.T2DFunction** %_T15727552_8094.addr, align 8, !tbaa !1615
	%0 = bitcast [5 x i32 (...)* (...)*]* @_ZTV11T2DFunction to i8*, !dbg !1914
	%1 = getelementptr i8, i8*  %0, i64 16, !dbg !1914
	%2 = load %struct.T2DFunction*, %struct.T2DFunction** %_T15727552_8094.addr, align 8, !tbaa !1615, !dbg !1914
	%3 = bitcast %struct.T2DFunction*  %2 to i8**, !dbg !1914
	store i8*  %1, i8**  %3, align 8, !tbaa !1615, !dbg !1914
	%4 = bitcast %struct.T2DFunction*  %2 to i8*, !dbg !1914
	call void  @_ZdlPvm (i8*  %4, i64 8) nounwind, !dbg !1914
	ret void, !dbg !1914
}
define linkonce_odr void @_ZN11T2DFunctionD2Ev(%struct.T2DFunction* %_T15727552_8095.arg) #0 inlinehint !dbg !1916 {
L.entry:
	%_T15727552_8095.addr = alloca %struct.T2DFunction*, align 8

	store %struct.T2DFunction* %_T15727552_8095.arg, %struct.T2DFunction** %_T15727552_8095.addr, align 8, !tbaa !1615
	%0 = bitcast [5 x i32 (...)* (...)*]* @_ZTV11T2DFunction to i8*, !dbg !1924
	%1 = getelementptr i8, i8*  %0, i64 16, !dbg !1924
	%2 = load %struct.T2DFunction*, %struct.T2DFunction** %_T15727552_8095.addr, align 8, !tbaa !1615, !dbg !1924
	%3 = bitcast %struct.T2DFunction*  %2 to i8**, !dbg !1924
	store i8*  %1, i8**  %3, align 8, !tbaa !1615, !dbg !1924
	ret void, !dbg !1924
}
define linkonce_odr void @_ZN11T2DFunctionC1Ev(%struct.T2DFunction* %_T15727552_8096.arg) #0 inlinehint !dbg !1926 {
L.entry:
	%_T15727552_8096.addr = alloca %struct.T2DFunction*, align 8

	call void @llvm.dbg.declare (metadata %struct.T2DFunction** %_T15727552_8096.addr, metadata !1930, metadata !1553), !dbg !1927
	store %struct.T2DFunction* %_T15727552_8096.arg, %struct.T2DFunction** %_T15727552_8096.addr, align 8, !tbaa !1615
	call void @llvm.dbg.declare (metadata %struct.T2DFunction** %_T15727552_8096.addr, metadata !1931, metadata !1553), !dbg !1927
	%0 = bitcast [5 x i32 (...)* (...)*]* @_ZTV11T2DFunction to i8*, !dbg !1932
	%1 = getelementptr i8, i8*  %0, i64 16, !dbg !1932
	%2 = load %struct.T2DFunction*, %struct.T2DFunction** %_T15727552_8096.addr, align 8, !tbaa !1615, !dbg !1932
	%3 = bitcast %struct.T2DFunction*  %2 to i8**, !dbg !1932
	store i8*  %1, i8**  %3, align 8, !tbaa !1615, !dbg !1932
	ret void, !dbg !1932
}
define linkonce_odr void @_ZN11T2DFunctionC2Ev(%struct.T2DFunction* %_T15727552_8097.arg) #0 inlinehint !dbg !1934 {
L.entry:
	%_T15727552_8097.addr = alloca %struct.T2DFunction*, align 8

	store %struct.T2DFunction* %_T15727552_8097.arg, %struct.T2DFunction** %_T15727552_8097.addr, align 8, !tbaa !1615
	%0 = bitcast [5 x i32 (...)* (...)*]* @_ZTV11T2DFunction to i8*, !dbg !1942
	%1 = getelementptr i8, i8*  %0, i64 16, !dbg !1942
	%2 = load %struct.T2DFunction*, %struct.T2DFunction** %_T15727552_8097.addr, align 8, !tbaa !1615, !dbg !1942
	%3 = bitcast %struct.T2DFunction*  %2 to i8**, !dbg !1942
	store i8*  %1, i8**  %3, align 8, !tbaa !1615, !dbg !1942
	ret void, !dbg !1942
}
define linkonce_odr void @_ZN8T3D_fix1C1ERK11T3DFunctiond(%struct.T3D_fix1* %_T15727552_8098.arg, %struct.T3DFunction* %f1.arg, double %x1.arg) #0 inlinehint !dbg !1946 {
L.entry:
	%_T15727552_8098.addr = alloca %struct.T3D_fix1*, align 8
	%f1.addr = alloca %struct.T3DFunction*, align 8
	%x1.addr = alloca double, align 8

	call void @llvm.dbg.declare (metadata %struct.T3D_fix1** %_T15727552_8098.addr, metadata !1958, metadata !1553), !dbg !1947
	store %struct.T3D_fix1* %_T15727552_8098.arg, %struct.T3D_fix1** %_T15727552_8098.addr, align 8, !tbaa !1615
	call void @llvm.dbg.declare (metadata %struct.T3D_fix1** %_T15727552_8098.addr, metadata !1959, metadata !1553), !dbg !1947
	call void @llvm.dbg.declare (metadata %struct.T3DFunction** %f1.addr, metadata !1960, metadata !1553), !dbg !1947
	store %struct.T3DFunction* %f1.arg, %struct.T3DFunction** %f1.addr, align 8, !tbaa !1615
	call void @llvm.dbg.declare (metadata %struct.T3DFunction** %f1.addr, metadata !1961, metadata !1553), !dbg !1947
	call void @llvm.dbg.declare (metadata double* %x1.addr, metadata !1962, metadata !1553), !dbg !1947
	store double %x1.arg, double* %x1.addr, align 8, !tbaa !1616
	call void @llvm.dbg.declare (metadata double* %x1.addr, metadata !1963, metadata !1553), !dbg !1947
	%0 = bitcast [5 x i32 (...)* (...)*]* @_ZTV11T2DFunction to i8*, !dbg !1964
	%1 = getelementptr i8, i8*  %0, i64 16, !dbg !1964
	%2 = load %struct.T3D_fix1*, %struct.T3D_fix1** %_T15727552_8098.addr, align 8, !tbaa !1615, !dbg !1964
	%3 = bitcast %struct.T3D_fix1*  %2 to i8**, !dbg !1964
	store i8*  %1, i8**  %3, align 8, !tbaa !1615, !dbg !1964
	%4 = bitcast [5 x i32 (...)* (...)*]* @_ZTV8T3D_fix1 to i8*, !dbg !1964
	%5 = getelementptr i8, i8*  %4, i64 16, !dbg !1964
	store i8*  %5, i8**  %3, align 8, !tbaa !1615, !dbg !1964
	%6 = load %struct.T3DFunction*, %struct.T3DFunction** %f1.addr, align 8, !tbaa !1615, !dbg !1964
	%7 = bitcast %struct.T3DFunction*  %6 to i8*, !dbg !1964
	%8 = bitcast %struct.T3D_fix1*  %2 to i8*, !dbg !1964
	%9 = getelementptr i8, i8*  %8, i64 8, !dbg !1964
	%10 = bitcast i8*  %9 to i8**, !dbg !1964
	store i8*  %7, i8**  %10, align 8, !tbaa !1615, !dbg !1964
	%11 = load double, double* %x1.addr, align 8, !tbaa !1618, !dbg !1964
	%12 = getelementptr i8, i8*  %8, i64 16, !dbg !1964
	%13 = bitcast i8*  %12 to double*, !dbg !1964
	store double  %11, double*  %13, align 8, !tbaa !1616, !dbg !1964
	ret void, !dbg !1964
}
define linkonce_odr void @_ZN8T3D_fix1C2ERK11T3DFunctiond(%struct.T3D_fix1* %_T15727552_8099.arg, %struct.T3DFunction* %_T15727848_8099.arg, double %_T15728144_8099.arg) #0 inlinehint !dbg !1966 {
L.entry:
	%_T15727552_8099.addr = alloca %struct.T3D_fix1*, align 8
	%_T15727848_8099.addr = alloca %struct.T3DFunction*, align 8
	%_T15728144_8099.addr = alloca double, align 8
	%..inline.addr = alloca %struct.T3D_fix1*, align 8
	%..inline.addr.1 = alloca %struct.T3DFunction*, align 8
	%..inline.addr.2 = alloca double, align 8

	store %struct.T3D_fix1* %_T15727552_8099.arg, %struct.T3D_fix1** %_T15727552_8099.addr, align 8, !tbaa !1615
	store %struct.T3DFunction* %_T15727848_8099.arg, %struct.T3DFunction** %_T15727848_8099.addr, align 8, !tbaa !1615
	store double %_T15728144_8099.arg, double* %_T15728144_8099.addr, align 8, !tbaa !1616
	%0 = load %struct.T3D_fix1*, %struct.T3D_fix1** %_T15727552_8099.addr, align 8, !tbaa !1615, !dbg !1982
	%1 = bitcast %struct.T3D_fix1*  %0 to i8*, !dbg !1982
	%2 = bitcast %struct.T3D_fix1** %..inline.addr to i8**, !dbg !1982
	store i8*  %1, i8**  %2, align 8, !tbaa !1615, !dbg !1982
	%3 = load %struct.T3DFunction*, %struct.T3DFunction** %_T15727848_8099.addr, align 8, !tbaa !1615, !dbg !1982
	%4 = bitcast %struct.T3DFunction*  %3 to i8*, !dbg !1982
	%5 = bitcast %struct.T3DFunction** %..inline.addr.1 to i8**, !dbg !1982
	store i8*  %4, i8**  %5, align 8, !tbaa !1615, !dbg !1982
	%6 = load double, double* %_T15728144_8099.addr, align 8, !tbaa !1618, !dbg !1982
	%7 = bitcast [5 x i32 (...)* (...)*]* @_ZTV11T2DFunction to i8*, !dbg !1982
	%8 = getelementptr i8, i8*  %7, i64 16, !dbg !1982
	%9 = bitcast %struct.T3D_fix1*  %0 to i8**, !dbg !1982
	store i8*  %8, i8**  %9, align 8, !tbaa !1615, !dbg !1982
	%10 = bitcast [5 x i32 (...)* (...)*]* @_ZTV8T3D_fix1 to i8*, !dbg !1982
	%11 = getelementptr i8, i8*  %10, i64 16, !dbg !1982
	%12 = load %struct.T3D_fix1*, %struct.T3D_fix1** %..inline.addr, align 8, !tbaa !1615, !dbg !1982
	%13 = bitcast %struct.T3D_fix1*  %12 to i8**, !dbg !1982
	store i8*  %11, i8**  %13, align 8, !tbaa !1615, !dbg !1982
	%14 = load %struct.T3DFunction*, %struct.T3DFunction** %..inline.addr.1, align 8, !tbaa !1615, !dbg !1982
	%15 = bitcast %struct.T3DFunction*  %14 to i8*, !dbg !1982
	%16 = bitcast %struct.T3D_fix1*  %12 to i8*, !dbg !1982
	%17 = getelementptr i8, i8*  %16, i64 8, !dbg !1982
	%18 = bitcast i8*  %17 to i8**, !dbg !1982
	store i8*  %15, i8**  %18, align 8, !tbaa !1615, !dbg !1982
	%19 = getelementptr i8, i8*  %16, i64 16, !dbg !1982
	%20 = bitcast i8*  %19 to double*, !dbg !1982
	store double  %6, double*  %20, align 8, !tbaa !1616, !dbg !1982
	ret void, !dbg !1982
}
define linkonce_odr double @_ZNK8T3D_fix14callEdd(%struct.T3D_fix1* %_T15727736_8100.arg, double %y.arg, double %z.arg) #0 inlinehint !dbg !1984 {
L.entry:
	%_T15727736_8100.addr = alloca %struct.T3D_fix1*, align 8
	%y.addr = alloca double, align 8
	%z.addr = alloca double, align 8
	%.Q0009.addr = alloca double, align 8

	call void @llvm.dbg.declare (metadata %struct.T3D_fix1** %_T15727736_8100.addr, metadata !1988, metadata !1553), !dbg !1985
	store %struct.T3D_fix1* %_T15727736_8100.arg, %struct.T3D_fix1** %_T15727736_8100.addr, align 8, !tbaa !1615
	call void @llvm.dbg.declare (metadata %struct.T3D_fix1** %_T15727736_8100.addr, metadata !1989, metadata !1553), !dbg !1985
	call void @llvm.dbg.declare (metadata double* %y.addr, metadata !1990, metadata !1553), !dbg !1985
	store double %y.arg, double* %y.addr, align 8, !tbaa !1616
	call void @llvm.dbg.declare (metadata double* %y.addr, metadata !1991, metadata !1553), !dbg !1985
	call void @llvm.dbg.declare (metadata double* %z.addr, metadata !1992, metadata !1553), !dbg !1985
	store double %z.arg, double* %z.addr, align 8, !tbaa !1616
	call void @llvm.dbg.declare (metadata double* %z.addr, metadata !1993, metadata !1553), !dbg !1985
	%0 = load %struct.T3D_fix1*, %struct.T3D_fix1** %_T15727736_8100.addr, align 8, !tbaa !1615, !dbg !1994
	%1 = bitcast %struct.T3D_fix1*  %0 to i8*, !dbg !1994
	%2 = getelementptr i8, i8*  %1, i64 8, !dbg !1994
	%3 = bitcast i8*  %2 to %struct.T3DFunction**, !dbg !1994
	%4 = load %struct.T3DFunction*, %struct.T3DFunction**  %3, align 8, !tbaa !1615, !dbg !1994
	%5 = getelementptr i8, i8*  %1, i64 16, !dbg !1994
	%6 = bitcast i8*  %5 to double*, !dbg !1994
	%7 = load double, double*  %6, align 8, !tbaa !1616, !dbg !1994
	%8 = load double, double* %y.addr, align 8, !tbaa !1618, !dbg !1994
	%9 = load double, double* %z.addr, align 8, !tbaa !1618, !dbg !1994
	%10 = bitcast i8*  %2 to double (%struct.T3DFunction*, double, double, double)****, !dbg !1994
	%11 = load double (%struct.T3DFunction*, double, double, double)***, double (%struct.T3DFunction*, double, double, double)****  %10, align 8, !tbaa !1615, !dbg !1994
	%12 = load double (%struct.T3DFunction*, double, double, double)**, double (%struct.T3DFunction*, double, double, double)***  %11, align 8, !tbaa !1615, !dbg !1994
	%13 = load double (%struct.T3DFunction*, double, double, double)*, double (%struct.T3DFunction*, double, double, double)**  %12, align 8, !tbaa !1615, !dbg !1994
	%14 = call double  %13 (%struct.T3DFunction*  %4, double  %7, double  %8, double  %9), !dbg !1994
	ret double  %14, !dbg !1994
}
define linkonce_odr void @_ZN8T3D_fix1D1Ev(%struct.T3D_fix1* %_T15727552_8101.arg) #0 inlinehint !dbg !1998 {
L.entry:
	%_T15727552_8101.addr = alloca %struct.T3D_fix1*, align 8

	call void @llvm.dbg.declare (metadata %struct.T3D_fix1** %_T15727552_8101.addr, metadata !2010, metadata !1553), !dbg !1999
	store %struct.T3D_fix1* %_T15727552_8101.arg, %struct.T3D_fix1** %_T15727552_8101.addr, align 8, !tbaa !1615
	call void @llvm.dbg.declare (metadata %struct.T3D_fix1** %_T15727552_8101.addr, metadata !2011, metadata !1553), !dbg !1999
	%0 = bitcast [5 x i32 (...)* (...)*]* @_ZTV8T3D_fix1 to i8*, !dbg !2012
	%1 = getelementptr i8, i8*  %0, i64 16, !dbg !2012
	%2 = load %struct.T3D_fix1*, %struct.T3D_fix1** %_T15727552_8101.addr, align 8, !tbaa !1615, !dbg !2012
	%3 = bitcast %struct.T3D_fix1*  %2 to i8**, !dbg !2012
	store i8*  %1, i8**  %3, align 8, !tbaa !1615, !dbg !2012
	%4 = bitcast [5 x i32 (...)* (...)*]* @_ZTV11T2DFunction to i8*, !dbg !2012
	%5 = getelementptr i8, i8*  %4, i64 16, !dbg !2012
	store i8*  %5, i8**  %3, align 8, !tbaa !1615, !dbg !2012
	ret void, !dbg !2012
}
define linkonce_odr void @_ZN8T3D_fix1D0Ev(%struct.T3D_fix1* %_T15727552_8102.arg) #0 inlinehint !dbg !2014 {
L.entry:
	%_T15727552_8102.addr = alloca %struct.T3D_fix1*, align 8
	%..inline.addr = alloca %struct.T3D_fix1*, align 8

	store %struct.T3D_fix1* %_T15727552_8102.arg, %struct.T3D_fix1** %_T15727552_8102.addr, align 8, !tbaa !1615
	%0 = load %struct.T3D_fix1*, %struct.T3D_fix1** %_T15727552_8102.addr, align 8, !tbaa !1615, !dbg !2030
	%1 = bitcast %struct.T3D_fix1*  %0 to i8*, !dbg !2030
	%2 = bitcast %struct.T3D_fix1** %..inline.addr to i8**, !dbg !2030
	store i8*  %1, i8**  %2, align 8, !tbaa !1615, !dbg !2030
	%3 = bitcast [5 x i32 (...)* (...)*]* @_ZTV8T3D_fix1 to i8*, !dbg !2030
	%4 = getelementptr i8, i8*  %3, i64 16, !dbg !2030
	%5 = load %struct.T3D_fix1*, %struct.T3D_fix1** %..inline.addr, align 8, !tbaa !1615, !dbg !2030
	%6 = bitcast %struct.T3D_fix1*  %5 to i8**, !dbg !2030
	store i8*  %4, i8**  %6, align 8, !tbaa !1615, !dbg !2030
	%7 = bitcast [5 x i32 (...)* (...)*]* @_ZTV11T2DFunction to i8*, !dbg !2030
	%8 = getelementptr i8, i8*  %7, i64 16, !dbg !2030
	store i8*  %8, i8**  %6, align 8, !tbaa !1615, !dbg !2030
	call void  @_ZdlPvm (i8*  %1, i64 24) nounwind, !dbg !2030
	ret void, !dbg !2030
}
define linkonce_odr void @_ZN8T3D_fix1D2Ev(%struct.T3D_fix1* %_T15727552_8103.arg) #0 inlinehint !dbg !2032 {
L.entry:
	%_T15727552_8103.addr = alloca %struct.T3D_fix1*, align 8
	%..inline.addr = alloca %struct.T3D_fix1*, align 8

	store %struct.T3D_fix1* %_T15727552_8103.arg, %struct.T3D_fix1** %_T15727552_8103.addr, align 8, !tbaa !1615
	%0 = load %struct.T3D_fix1*, %struct.T3D_fix1** %_T15727552_8103.addr, align 8, !tbaa !1615, !dbg !2048
	%1 = bitcast %struct.T3D_fix1*  %0 to i8*, !dbg !2048
	%2 = bitcast %struct.T3D_fix1** %..inline.addr to i8**, !dbg !2048
	store i8*  %1, i8**  %2, align 8, !tbaa !1615, !dbg !2048
	%3 = bitcast [5 x i32 (...)* (...)*]* @_ZTV8T3D_fix1 to i8*, !dbg !2048
	%4 = getelementptr i8, i8*  %3, i64 16, !dbg !2048
	%5 = load %struct.T3D_fix1*, %struct.T3D_fix1** %..inline.addr, align 8, !tbaa !1615, !dbg !2048
	%6 = bitcast %struct.T3D_fix1*  %5 to i8**, !dbg !2048
	store i8*  %4, i8**  %6, align 8, !tbaa !1615, !dbg !2048
	%7 = bitcast [5 x i32 (...)* (...)*]* @_ZTV11T2DFunction to i8*, !dbg !2048
	%8 = getelementptr i8, i8*  %7, i64 16, !dbg !2048
	store i8*  %8, i8**  %6, align 8, !tbaa !1615, !dbg !2048
	ret void, !dbg !2048
}
define linkonce_odr void @_ZN8T3D_fix2C1ERK11T3DFunctiond(%struct.T3D_fix2* %_T15727552_8104.arg, %struct.T3DFunction* %f1.arg, double %y1.arg) #0 inlinehint !dbg !2052 {
L.entry:
	%_T15727552_8104.addr = alloca %struct.T3D_fix2*, align 8
	%f1.addr = alloca %struct.T3DFunction*, align 8
	%y1.addr = alloca double, align 8

	call void @llvm.dbg.declare (metadata %struct.T3D_fix2** %_T15727552_8104.addr, metadata !2064, metadata !1553), !dbg !2053
	store %struct.T3D_fix2* %_T15727552_8104.arg, %struct.T3D_fix2** %_T15727552_8104.addr, align 8, !tbaa !1615
	call void @llvm.dbg.declare (metadata %struct.T3D_fix2** %_T15727552_8104.addr, metadata !2065, metadata !1553), !dbg !2053
	call void @llvm.dbg.declare (metadata %struct.T3DFunction** %f1.addr, metadata !2066, metadata !1553), !dbg !2053
	store %struct.T3DFunction* %f1.arg, %struct.T3DFunction** %f1.addr, align 8, !tbaa !1615
	call void @llvm.dbg.declare (metadata %struct.T3DFunction** %f1.addr, metadata !2067, metadata !1553), !dbg !2053
	call void @llvm.dbg.declare (metadata double* %y1.addr, metadata !2068, metadata !1553), !dbg !2053
	store double %y1.arg, double* %y1.addr, align 8, !tbaa !1616
	call void @llvm.dbg.declare (metadata double* %y1.addr, metadata !2069, metadata !1553), !dbg !2053
	%0 = bitcast [5 x i32 (...)* (...)*]* @_ZTV11T2DFunction to i8*, !dbg !2070
	%1 = getelementptr i8, i8*  %0, i64 16, !dbg !2070
	%2 = load %struct.T3D_fix2*, %struct.T3D_fix2** %_T15727552_8104.addr, align 8, !tbaa !1615, !dbg !2070
	%3 = bitcast %struct.T3D_fix2*  %2 to i8**, !dbg !2070
	store i8*  %1, i8**  %3, align 8, !tbaa !1615, !dbg !2070
	%4 = bitcast [5 x i32 (...)* (...)*]* @_ZTV8T3D_fix2 to i8*, !dbg !2070
	%5 = getelementptr i8, i8*  %4, i64 16, !dbg !2070
	store i8*  %5, i8**  %3, align 8, !tbaa !1615, !dbg !2070
	%6 = load %struct.T3DFunction*, %struct.T3DFunction** %f1.addr, align 8, !tbaa !1615, !dbg !2070
	%7 = bitcast %struct.T3DFunction*  %6 to i8*, !dbg !2070
	%8 = bitcast %struct.T3D_fix2*  %2 to i8*, !dbg !2070
	%9 = getelementptr i8, i8*  %8, i64 8, !dbg !2070
	%10 = bitcast i8*  %9 to i8**, !dbg !2070
	store i8*  %7, i8**  %10, align 8, !tbaa !1615, !dbg !2070
	%11 = load double, double* %y1.addr, align 8, !tbaa !1618, !dbg !2070
	%12 = getelementptr i8, i8*  %8, i64 16, !dbg !2070
	%13 = bitcast i8*  %12 to double*, !dbg !2070
	store double  %11, double*  %13, align 8, !tbaa !1616, !dbg !2070
	ret void, !dbg !2070
}
define linkonce_odr void @_ZN8T3D_fix2C2ERK11T3DFunctiond(%struct.T3D_fix2* %_T15727552_8105.arg, %struct.T3DFunction* %_T15727848_8105.arg, double %_T15728144_8105.arg) #0 inlinehint !dbg !2072 {
L.entry:
	%_T15727552_8105.addr = alloca %struct.T3D_fix2*, align 8
	%_T15727848_8105.addr = alloca %struct.T3DFunction*, align 8
	%_T15728144_8105.addr = alloca double, align 8
	%..inline.addr = alloca %struct.T3D_fix2*, align 8
	%..inline.addr.1 = alloca %struct.T3DFunction*, align 8
	%..inline.addr.2 = alloca double, align 8

	store %struct.T3D_fix2* %_T15727552_8105.arg, %struct.T3D_fix2** %_T15727552_8105.addr, align 8, !tbaa !1615
	store %struct.T3DFunction* %_T15727848_8105.arg, %struct.T3DFunction** %_T15727848_8105.addr, align 8, !tbaa !1615
	store double %_T15728144_8105.arg, double* %_T15728144_8105.addr, align 8, !tbaa !1616
	%0 = load %struct.T3D_fix2*, %struct.T3D_fix2** %_T15727552_8105.addr, align 8, !tbaa !1615, !dbg !2088
	%1 = bitcast %struct.T3D_fix2*  %0 to i8*, !dbg !2088
	%2 = bitcast %struct.T3D_fix2** %..inline.addr to i8**, !dbg !2088
	store i8*  %1, i8**  %2, align 8, !tbaa !1615, !dbg !2088
	%3 = load %struct.T3DFunction*, %struct.T3DFunction** %_T15727848_8105.addr, align 8, !tbaa !1615, !dbg !2088
	%4 = bitcast %struct.T3DFunction*  %3 to i8*, !dbg !2088
	%5 = bitcast %struct.T3DFunction** %..inline.addr.1 to i8**, !dbg !2088
	store i8*  %4, i8**  %5, align 8, !tbaa !1615, !dbg !2088
	%6 = load double, double* %_T15728144_8105.addr, align 8, !tbaa !1618, !dbg !2088
	%7 = bitcast [5 x i32 (...)* (...)*]* @_ZTV11T2DFunction to i8*, !dbg !2088
	%8 = getelementptr i8, i8*  %7, i64 16, !dbg !2088
	%9 = bitcast %struct.T3D_fix2*  %0 to i8**, !dbg !2088
	store i8*  %8, i8**  %9, align 8, !tbaa !1615, !dbg !2088
	%10 = bitcast [5 x i32 (...)* (...)*]* @_ZTV8T3D_fix2 to i8*, !dbg !2088
	%11 = getelementptr i8, i8*  %10, i64 16, !dbg !2088
	%12 = load %struct.T3D_fix2*, %struct.T3D_fix2** %..inline.addr, align 8, !tbaa !1615, !dbg !2088
	%13 = bitcast %struct.T3D_fix2*  %12 to i8**, !dbg !2088
	store i8*  %11, i8**  %13, align 8, !tbaa !1615, !dbg !2088
	%14 = load %struct.T3DFunction*, %struct.T3DFunction** %..inline.addr.1, align 8, !tbaa !1615, !dbg !2088
	%15 = bitcast %struct.T3DFunction*  %14 to i8*, !dbg !2088
	%16 = bitcast %struct.T3D_fix2*  %12 to i8*, !dbg !2088
	%17 = getelementptr i8, i8*  %16, i64 8, !dbg !2088
	%18 = bitcast i8*  %17 to i8**, !dbg !2088
	store i8*  %15, i8**  %18, align 8, !tbaa !1615, !dbg !2088
	%19 = getelementptr i8, i8*  %16, i64 16, !dbg !2088
	%20 = bitcast i8*  %19 to double*, !dbg !2088
	store double  %6, double*  %20, align 8, !tbaa !1616, !dbg !2088
	ret void, !dbg !2088
}
define linkonce_odr double @_ZNK8T3D_fix24callEdd(%struct.T3D_fix2* %_T15727736_8106.arg, double %x.arg, double %z.arg) #0 inlinehint !dbg !2090 {
L.entry:
	%_T15727736_8106.addr = alloca %struct.T3D_fix2*, align 8
	%x.addr = alloca double, align 8
	%z.addr = alloca double, align 8
	%.Q0010.addr = alloca double, align 8

	call void @llvm.dbg.declare (metadata %struct.T3D_fix2** %_T15727736_8106.addr, metadata !2094, metadata !1553), !dbg !2091
	store %struct.T3D_fix2* %_T15727736_8106.arg, %struct.T3D_fix2** %_T15727736_8106.addr, align 8, !tbaa !1615
	call void @llvm.dbg.declare (metadata %struct.T3D_fix2** %_T15727736_8106.addr, metadata !2095, metadata !1553), !dbg !2091
	call void @llvm.dbg.declare (metadata double* %x.addr, metadata !2096, metadata !1553), !dbg !2091
	store double %x.arg, double* %x.addr, align 8, !tbaa !1616
	call void @llvm.dbg.declare (metadata double* %x.addr, metadata !2097, metadata !1553), !dbg !2091
	call void @llvm.dbg.declare (metadata double* %z.addr, metadata !2098, metadata !1553), !dbg !2091
	store double %z.arg, double* %z.addr, align 8, !tbaa !1616
	call void @llvm.dbg.declare (metadata double* %z.addr, metadata !2099, metadata !1553), !dbg !2091
	%0 = load %struct.T3D_fix2*, %struct.T3D_fix2** %_T15727736_8106.addr, align 8, !tbaa !1615, !dbg !2100
	%1 = bitcast %struct.T3D_fix2*  %0 to i8*, !dbg !2100
	%2 = getelementptr i8, i8*  %1, i64 8, !dbg !2100
	%3 = bitcast i8*  %2 to %struct.T3DFunction**, !dbg !2100
	%4 = load %struct.T3DFunction*, %struct.T3DFunction**  %3, align 8, !tbaa !1615, !dbg !2100
	%5 = load double, double* %x.addr, align 8, !tbaa !1618, !dbg !2100
	%6 = getelementptr i8, i8*  %1, i64 16, !dbg !2100
	%7 = bitcast i8*  %6 to double*, !dbg !2100
	%8 = load double, double*  %7, align 8, !tbaa !1616, !dbg !2100
	%9 = load double, double* %z.addr, align 8, !tbaa !1618, !dbg !2100
	%10 = bitcast i8*  %2 to double (%struct.T3DFunction*, double, double, double)****, !dbg !2100
	%11 = load double (%struct.T3DFunction*, double, double, double)***, double (%struct.T3DFunction*, double, double, double)****  %10, align 8, !tbaa !1615, !dbg !2100
	%12 = load double (%struct.T3DFunction*, double, double, double)**, double (%struct.T3DFunction*, double, double, double)***  %11, align 8, !tbaa !1615, !dbg !2100
	%13 = load double (%struct.T3DFunction*, double, double, double)*, double (%struct.T3DFunction*, double, double, double)**  %12, align 8, !tbaa !1615, !dbg !2100
	%14 = call double  %13 (%struct.T3DFunction*  %4, double  %5, double  %8, double  %9), !dbg !2100
	ret double  %14, !dbg !2100
}
define linkonce_odr void @_ZN8T3D_fix2D1Ev(%struct.T3D_fix2* %_T15727552_8107.arg) #0 inlinehint !dbg !2104 {
L.entry:
	%_T15727552_8107.addr = alloca %struct.T3D_fix2*, align 8

	call void @llvm.dbg.declare (metadata %struct.T3D_fix2** %_T15727552_8107.addr, metadata !2116, metadata !1553), !dbg !2105
	store %struct.T3D_fix2* %_T15727552_8107.arg, %struct.T3D_fix2** %_T15727552_8107.addr, align 8, !tbaa !1615
	call void @llvm.dbg.declare (metadata %struct.T3D_fix2** %_T15727552_8107.addr, metadata !2117, metadata !1553), !dbg !2105
	%0 = bitcast [5 x i32 (...)* (...)*]* @_ZTV8T3D_fix2 to i8*, !dbg !2118
	%1 = getelementptr i8, i8*  %0, i64 16, !dbg !2118
	%2 = load %struct.T3D_fix2*, %struct.T3D_fix2** %_T15727552_8107.addr, align 8, !tbaa !1615, !dbg !2118
	%3 = bitcast %struct.T3D_fix2*  %2 to i8**, !dbg !2118
	store i8*  %1, i8**  %3, align 8, !tbaa !1615, !dbg !2118
	%4 = bitcast [5 x i32 (...)* (...)*]* @_ZTV11T2DFunction to i8*, !dbg !2118
	%5 = getelementptr i8, i8*  %4, i64 16, !dbg !2118
	store i8*  %5, i8**  %3, align 8, !tbaa !1615, !dbg !2118
	ret void, !dbg !2118
}
define linkonce_odr void @_ZN8T3D_fix2D0Ev(%struct.T3D_fix2* %_T15727552_8108.arg) #0 inlinehint !dbg !2120 {
L.entry:
	%_T15727552_8108.addr = alloca %struct.T3D_fix2*, align 8
	%..inline.addr = alloca %struct.T3D_fix2*, align 8

	store %struct.T3D_fix2* %_T15727552_8108.arg, %struct.T3D_fix2** %_T15727552_8108.addr, align 8, !tbaa !1615
	%0 = load %struct.T3D_fix2*, %struct.T3D_fix2** %_T15727552_8108.addr, align 8, !tbaa !1615, !dbg !2136
	%1 = bitcast %struct.T3D_fix2*  %0 to i8*, !dbg !2136
	%2 = bitcast %struct.T3D_fix2** %..inline.addr to i8**, !dbg !2136
	store i8*  %1, i8**  %2, align 8, !tbaa !1615, !dbg !2136
	%3 = bitcast [5 x i32 (...)* (...)*]* @_ZTV8T3D_fix2 to i8*, !dbg !2136
	%4 = getelementptr i8, i8*  %3, i64 16, !dbg !2136
	%5 = load %struct.T3D_fix2*, %struct.T3D_fix2** %..inline.addr, align 8, !tbaa !1615, !dbg !2136
	%6 = bitcast %struct.T3D_fix2*  %5 to i8**, !dbg !2136
	store i8*  %4, i8**  %6, align 8, !tbaa !1615, !dbg !2136
	%7 = bitcast [5 x i32 (...)* (...)*]* @_ZTV11T2DFunction to i8*, !dbg !2136
	%8 = getelementptr i8, i8*  %7, i64 16, !dbg !2136
	store i8*  %8, i8**  %6, align 8, !tbaa !1615, !dbg !2136
	call void  @_ZdlPvm (i8*  %1, i64 24) nounwind, !dbg !2136
	ret void, !dbg !2136
}
define linkonce_odr void @_ZN8T3D_fix2D2Ev(%struct.T3D_fix2* %_T15727552_8109.arg) #0 inlinehint !dbg !2138 {
L.entry:
	%_T15727552_8109.addr = alloca %struct.T3D_fix2*, align 8
	%..inline.addr = alloca %struct.T3D_fix2*, align 8

	store %struct.T3D_fix2* %_T15727552_8109.arg, %struct.T3D_fix2** %_T15727552_8109.addr, align 8, !tbaa !1615
	%0 = load %struct.T3D_fix2*, %struct.T3D_fix2** %_T15727552_8109.addr, align 8, !tbaa !1615, !dbg !2154
	%1 = bitcast %struct.T3D_fix2*  %0 to i8*, !dbg !2154
	%2 = bitcast %struct.T3D_fix2** %..inline.addr to i8**, !dbg !2154
	store i8*  %1, i8**  %2, align 8, !tbaa !1615, !dbg !2154
	%3 = bitcast [5 x i32 (...)* (...)*]* @_ZTV8T3D_fix2 to i8*, !dbg !2154
	%4 = getelementptr i8, i8*  %3, i64 16, !dbg !2154
	%5 = load %struct.T3D_fix2*, %struct.T3D_fix2** %..inline.addr, align 8, !tbaa !1615, !dbg !2154
	%6 = bitcast %struct.T3D_fix2*  %5 to i8**, !dbg !2154
	store i8*  %4, i8**  %6, align 8, !tbaa !1615, !dbg !2154
	%7 = bitcast [5 x i32 (...)* (...)*]* @_ZTV11T2DFunction to i8*, !dbg !2154
	%8 = getelementptr i8, i8*  %7, i64 16, !dbg !2154
	store i8*  %8, i8**  %6, align 8, !tbaa !1615, !dbg !2154
	ret void, !dbg !2154
}
define linkonce_odr void @_ZN8T3D_fix3C1ERK11T3DFunctiond(%struct.T3D_fix3* %_T15727552_8110.arg, %struct.T3DFunction* %f1.arg, double %z1.arg) #0 inlinehint !dbg !2158 {
L.entry:
	%_T15727552_8110.addr = alloca %struct.T3D_fix3*, align 8
	%f1.addr = alloca %struct.T3DFunction*, align 8
	%z1.addr = alloca double, align 8

	call void @llvm.dbg.declare (metadata %struct.T3D_fix3** %_T15727552_8110.addr, metadata !2170, metadata !1553), !dbg !2159
	store %struct.T3D_fix3* %_T15727552_8110.arg, %struct.T3D_fix3** %_T15727552_8110.addr, align 8, !tbaa !1615
	call void @llvm.dbg.declare (metadata %struct.T3D_fix3** %_T15727552_8110.addr, metadata !2171, metadata !1553), !dbg !2159
	call void @llvm.dbg.declare (metadata %struct.T3DFunction** %f1.addr, metadata !2172, metadata !1553), !dbg !2159
	store %struct.T3DFunction* %f1.arg, %struct.T3DFunction** %f1.addr, align 8, !tbaa !1615
	call void @llvm.dbg.declare (metadata %struct.T3DFunction** %f1.addr, metadata !2173, metadata !1553), !dbg !2159
	call void @llvm.dbg.declare (metadata double* %z1.addr, metadata !2174, metadata !1553), !dbg !2159
	store double %z1.arg, double* %z1.addr, align 8, !tbaa !1616
	call void @llvm.dbg.declare (metadata double* %z1.addr, metadata !2175, metadata !1553), !dbg !2159
	%0 = bitcast [5 x i32 (...)* (...)*]* @_ZTV11T2DFunction to i8*, !dbg !2176
	%1 = getelementptr i8, i8*  %0, i64 16, !dbg !2176
	%2 = load %struct.T3D_fix3*, %struct.T3D_fix3** %_T15727552_8110.addr, align 8, !tbaa !1615, !dbg !2176
	%3 = bitcast %struct.T3D_fix3*  %2 to i8**, !dbg !2176
	store i8*  %1, i8**  %3, align 8, !tbaa !1615, !dbg !2176
	%4 = bitcast [5 x i32 (...)* (...)*]* @_ZTV8T3D_fix3 to i8*, !dbg !2176
	%5 = getelementptr i8, i8*  %4, i64 16, !dbg !2176
	store i8*  %5, i8**  %3, align 8, !tbaa !1615, !dbg !2176
	%6 = load %struct.T3DFunction*, %struct.T3DFunction** %f1.addr, align 8, !tbaa !1615, !dbg !2176
	%7 = bitcast %struct.T3DFunction*  %6 to i8*, !dbg !2176
	%8 = bitcast %struct.T3D_fix3*  %2 to i8*, !dbg !2176
	%9 = getelementptr i8, i8*  %8, i64 8, !dbg !2176
	%10 = bitcast i8*  %9 to i8**, !dbg !2176
	store i8*  %7, i8**  %10, align 8, !tbaa !1615, !dbg !2176
	%11 = load double, double* %z1.addr, align 8, !tbaa !1618, !dbg !2176
	%12 = getelementptr i8, i8*  %8, i64 16, !dbg !2176
	%13 = bitcast i8*  %12 to double*, !dbg !2176
	store double  %11, double*  %13, align 8, !tbaa !1616, !dbg !2176
	ret void, !dbg !2176
}
define linkonce_odr void @_ZN8T3D_fix3C2ERK11T3DFunctiond(%struct.T3D_fix3* %_T15727552_8111.arg, %struct.T3DFunction* %_T15727848_8111.arg, double %_T15728144_8111.arg) #0 inlinehint !dbg !2178 {
L.entry:
	%_T15727552_8111.addr = alloca %struct.T3D_fix3*, align 8
	%_T15727848_8111.addr = alloca %struct.T3DFunction*, align 8
	%_T15728144_8111.addr = alloca double, align 8
	%..inline.addr = alloca %struct.T3D_fix3*, align 8
	%..inline.addr.1 = alloca %struct.T3DFunction*, align 8
	%..inline.addr.2 = alloca double, align 8

	store %struct.T3D_fix3* %_T15727552_8111.arg, %struct.T3D_fix3** %_T15727552_8111.addr, align 8, !tbaa !1615
	store %struct.T3DFunction* %_T15727848_8111.arg, %struct.T3DFunction** %_T15727848_8111.addr, align 8, !tbaa !1615
	store double %_T15728144_8111.arg, double* %_T15728144_8111.addr, align 8, !tbaa !1616
	%0 = load %struct.T3D_fix3*, %struct.T3D_fix3** %_T15727552_8111.addr, align 8, !tbaa !1615, !dbg !2194
	%1 = bitcast %struct.T3D_fix3*  %0 to i8*, !dbg !2194
	%2 = bitcast %struct.T3D_fix3** %..inline.addr to i8**, !dbg !2194
	store i8*  %1, i8**  %2, align 8, !tbaa !1615, !dbg !2194
	%3 = load %struct.T3DFunction*, %struct.T3DFunction** %_T15727848_8111.addr, align 8, !tbaa !1615, !dbg !2194
	%4 = bitcast %struct.T3DFunction*  %3 to i8*, !dbg !2194
	%5 = bitcast %struct.T3DFunction** %..inline.addr.1 to i8**, !dbg !2194
	store i8*  %4, i8**  %5, align 8, !tbaa !1615, !dbg !2194
	%6 = load double, double* %_T15728144_8111.addr, align 8, !tbaa !1618, !dbg !2194
	%7 = bitcast [5 x i32 (...)* (...)*]* @_ZTV11T2DFunction to i8*, !dbg !2194
	%8 = getelementptr i8, i8*  %7, i64 16, !dbg !2194
	%9 = bitcast %struct.T3D_fix3*  %0 to i8**, !dbg !2194
	store i8*  %8, i8**  %9, align 8, !tbaa !1615, !dbg !2194
	%10 = bitcast [5 x i32 (...)* (...)*]* @_ZTV8T3D_fix3 to i8*, !dbg !2194
	%11 = getelementptr i8, i8*  %10, i64 16, !dbg !2194
	%12 = load %struct.T3D_fix3*, %struct.T3D_fix3** %..inline.addr, align 8, !tbaa !1615, !dbg !2194
	%13 = bitcast %struct.T3D_fix3*  %12 to i8**, !dbg !2194
	store i8*  %11, i8**  %13, align 8, !tbaa !1615, !dbg !2194
	%14 = load %struct.T3DFunction*, %struct.T3DFunction** %..inline.addr.1, align 8, !tbaa !1615, !dbg !2194
	%15 = bitcast %struct.T3DFunction*  %14 to i8*, !dbg !2194
	%16 = bitcast %struct.T3D_fix3*  %12 to i8*, !dbg !2194
	%17 = getelementptr i8, i8*  %16, i64 8, !dbg !2194
	%18 = bitcast i8*  %17 to i8**, !dbg !2194
	store i8*  %15, i8**  %18, align 8, !tbaa !1615, !dbg !2194
	%19 = getelementptr i8, i8*  %16, i64 16, !dbg !2194
	%20 = bitcast i8*  %19 to double*, !dbg !2194
	store double  %6, double*  %20, align 8, !tbaa !1616, !dbg !2194
	ret void, !dbg !2194
}
define linkonce_odr double @_ZNK8T3D_fix34callEdd(%struct.T3D_fix3* %_T15727736_8112.arg, double %x.arg, double %y.arg) #0 inlinehint !dbg !2196 {
L.entry:
	%_T15727736_8112.addr = alloca %struct.T3D_fix3*, align 8
	%x.addr = alloca double, align 8
	%y.addr = alloca double, align 8
	%.Q0011.addr = alloca double, align 8

	call void @llvm.dbg.declare (metadata %struct.T3D_fix3** %_T15727736_8112.addr, metadata !2200, metadata !1553), !dbg !2197
	store %struct.T3D_fix3* %_T15727736_8112.arg, %struct.T3D_fix3** %_T15727736_8112.addr, align 8, !tbaa !1615
	call void @llvm.dbg.declare (metadata %struct.T3D_fix3** %_T15727736_8112.addr, metadata !2201, metadata !1553), !dbg !2197
	call void @llvm.dbg.declare (metadata double* %x.addr, metadata !2202, metadata !1553), !dbg !2197
	store double %x.arg, double* %x.addr, align 8, !tbaa !1616
	call void @llvm.dbg.declare (metadata double* %x.addr, metadata !2203, metadata !1553), !dbg !2197
	call void @llvm.dbg.declare (metadata double* %y.addr, metadata !2204, metadata !1553), !dbg !2197
	store double %y.arg, double* %y.addr, align 8, !tbaa !1616
	call void @llvm.dbg.declare (metadata double* %y.addr, metadata !2205, metadata !1553), !dbg !2197
	%0 = load %struct.T3D_fix3*, %struct.T3D_fix3** %_T15727736_8112.addr, align 8, !tbaa !1615, !dbg !2206
	%1 = bitcast %struct.T3D_fix3*  %0 to i8*, !dbg !2206
	%2 = getelementptr i8, i8*  %1, i64 8, !dbg !2206
	%3 = bitcast i8*  %2 to %struct.T3DFunction**, !dbg !2206
	%4 = load %struct.T3DFunction*, %struct.T3DFunction**  %3, align 8, !tbaa !1615, !dbg !2206
	%5 = load double, double* %x.addr, align 8, !tbaa !1618, !dbg !2206
	%6 = load double, double* %y.addr, align 8, !tbaa !1618, !dbg !2206
	%7 = getelementptr i8, i8*  %1, i64 16, !dbg !2206
	%8 = bitcast i8*  %7 to double*, !dbg !2206
	%9 = load double, double*  %8, align 8, !tbaa !1616, !dbg !2206
	%10 = bitcast i8*  %2 to double (%struct.T3DFunction*, double, double, double)****, !dbg !2206
	%11 = load double (%struct.T3DFunction*, double, double, double)***, double (%struct.T3DFunction*, double, double, double)****  %10, align 8, !tbaa !1615, !dbg !2206
	%12 = load double (%struct.T3DFunction*, double, double, double)**, double (%struct.T3DFunction*, double, double, double)***  %11, align 8, !tbaa !1615, !dbg !2206
	%13 = load double (%struct.T3DFunction*, double, double, double)*, double (%struct.T3DFunction*, double, double, double)**  %12, align 8, !tbaa !1615, !dbg !2206
	%14 = call double  %13 (%struct.T3DFunction*  %4, double  %5, double  %6, double  %9), !dbg !2206
	ret double  %14, !dbg !2206
}
define linkonce_odr void @_ZN8T3D_fix3D1Ev(%struct.T3D_fix3* %_T15727552_8113.arg) #0 inlinehint !dbg !2210 {
L.entry:
	%_T15727552_8113.addr = alloca %struct.T3D_fix3*, align 8

	call void @llvm.dbg.declare (metadata %struct.T3D_fix3** %_T15727552_8113.addr, metadata !2222, metadata !1553), !dbg !2211
	store %struct.T3D_fix3* %_T15727552_8113.arg, %struct.T3D_fix3** %_T15727552_8113.addr, align 8, !tbaa !1615
	call void @llvm.dbg.declare (metadata %struct.T3D_fix3** %_T15727552_8113.addr, metadata !2223, metadata !1553), !dbg !2211
	%0 = bitcast [5 x i32 (...)* (...)*]* @_ZTV8T3D_fix3 to i8*, !dbg !2224
	%1 = getelementptr i8, i8*  %0, i64 16, !dbg !2224
	%2 = load %struct.T3D_fix3*, %struct.T3D_fix3** %_T15727552_8113.addr, align 8, !tbaa !1615, !dbg !2224
	%3 = bitcast %struct.T3D_fix3*  %2 to i8**, !dbg !2224
	store i8*  %1, i8**  %3, align 8, !tbaa !1615, !dbg !2224
	%4 = bitcast [5 x i32 (...)* (...)*]* @_ZTV11T2DFunction to i8*, !dbg !2224
	%5 = getelementptr i8, i8*  %4, i64 16, !dbg !2224
	store i8*  %5, i8**  %3, align 8, !tbaa !1615, !dbg !2224
	ret void, !dbg !2224
}
define linkonce_odr void @_ZN8T3D_fix3D0Ev(%struct.T3D_fix3* %_T15727552_8114.arg) #0 inlinehint !dbg !2226 {
L.entry:
	%_T15727552_8114.addr = alloca %struct.T3D_fix3*, align 8
	%..inline.addr = alloca %struct.T3D_fix3*, align 8

	store %struct.T3D_fix3* %_T15727552_8114.arg, %struct.T3D_fix3** %_T15727552_8114.addr, align 8, !tbaa !1615
	%0 = load %struct.T3D_fix3*, %struct.T3D_fix3** %_T15727552_8114.addr, align 8, !tbaa !1615, !dbg !2242
	%1 = bitcast %struct.T3D_fix3*  %0 to i8*, !dbg !2242
	%2 = bitcast %struct.T3D_fix3** %..inline.addr to i8**, !dbg !2242
	store i8*  %1, i8**  %2, align 8, !tbaa !1615, !dbg !2242
	%3 = bitcast [5 x i32 (...)* (...)*]* @_ZTV8T3D_fix3 to i8*, !dbg !2242
	%4 = getelementptr i8, i8*  %3, i64 16, !dbg !2242
	%5 = load %struct.T3D_fix3*, %struct.T3D_fix3** %..inline.addr, align 8, !tbaa !1615, !dbg !2242
	%6 = bitcast %struct.T3D_fix3*  %5 to i8**, !dbg !2242
	store i8*  %4, i8**  %6, align 8, !tbaa !1615, !dbg !2242
	%7 = bitcast [5 x i32 (...)* (...)*]* @_ZTV11T2DFunction to i8*, !dbg !2242
	%8 = getelementptr i8, i8*  %7, i64 16, !dbg !2242
	store i8*  %8, i8**  %6, align 8, !tbaa !1615, !dbg !2242
	call void  @_ZdlPvm (i8*  %1, i64 24) nounwind, !dbg !2242
	ret void, !dbg !2242
}
define linkonce_odr void @_ZN8T3D_fix3D2Ev(%struct.T3D_fix3* %_T15727552_8115.arg) #0 inlinehint !dbg !2244 {
L.entry:
	%_T15727552_8115.addr = alloca %struct.T3D_fix3*, align 8
	%..inline.addr = alloca %struct.T3D_fix3*, align 8

	store %struct.T3D_fix3* %_T15727552_8115.arg, %struct.T3D_fix3** %_T15727552_8115.addr, align 8, !tbaa !1615
	%0 = load %struct.T3D_fix3*, %struct.T3D_fix3** %_T15727552_8115.addr, align 8, !tbaa !1615, !dbg !2260
	%1 = bitcast %struct.T3D_fix3*  %0 to i8*, !dbg !2260
	%2 = bitcast %struct.T3D_fix3** %..inline.addr to i8**, !dbg !2260
	store i8*  %1, i8**  %2, align 8, !tbaa !1615, !dbg !2260
	%3 = bitcast [5 x i32 (...)* (...)*]* @_ZTV8T3D_fix3 to i8*, !dbg !2260
	%4 = getelementptr i8, i8*  %3, i64 16, !dbg !2260
	%5 = load %struct.T3D_fix3*, %struct.T3D_fix3** %..inline.addr, align 8, !tbaa !1615, !dbg !2260
	%6 = bitcast %struct.T3D_fix3*  %5 to i8**, !dbg !2260
	store i8*  %4, i8**  %6, align 8, !tbaa !1615, !dbg !2260
	%7 = bitcast [5 x i32 (...)* (...)*]* @_ZTV11T2DFunction to i8*, !dbg !2260
	%8 = getelementptr i8, i8*  %7, i64 16, !dbg !2260
	store i8*  %8, i8**  %6, align 8, !tbaa !1615, !dbg !2260
	ret void, !dbg !2260
}
define linkonce_odr void @_ZN9T3D_fix12C1ERK11T3DFunctiondd(%struct.T3D_fix12* %_T15727552_8116.arg, %struct.T3DFunction* %f1.arg, double %x1.arg, double %y1.arg) #0 inlinehint !dbg !2264 {
L.entry:
	%_T15727552_8116.addr = alloca %struct.T3D_fix12*, align 8
	%f1.addr = alloca %struct.T3DFunction*, align 8
	%x1.addr = alloca double, align 8
	%y1.addr = alloca double, align 8

	call void @llvm.dbg.declare (metadata %struct.T3D_fix12** %_T15727552_8116.addr, metadata !2276, metadata !1553), !dbg !2265
	store %struct.T3D_fix12* %_T15727552_8116.arg, %struct.T3D_fix12** %_T15727552_8116.addr, align 8, !tbaa !1615
	call void @llvm.dbg.declare (metadata %struct.T3D_fix12** %_T15727552_8116.addr, metadata !2277, metadata !1553), !dbg !2265
	call void @llvm.dbg.declare (metadata %struct.T3DFunction** %f1.addr, metadata !2278, metadata !1553), !dbg !2265
	store %struct.T3DFunction* %f1.arg, %struct.T3DFunction** %f1.addr, align 8, !tbaa !1615
	call void @llvm.dbg.declare (metadata %struct.T3DFunction** %f1.addr, metadata !2279, metadata !1553), !dbg !2265
	call void @llvm.dbg.declare (metadata double* %x1.addr, metadata !2280, metadata !1553), !dbg !2265
	store double %x1.arg, double* %x1.addr, align 8, !tbaa !1616
	call void @llvm.dbg.declare (metadata double* %x1.addr, metadata !2281, metadata !1553), !dbg !2265
	call void @llvm.dbg.declare (metadata double* %y1.addr, metadata !2282, metadata !1553), !dbg !2265
	store double %y1.arg, double* %y1.addr, align 8, !tbaa !1616
	call void @llvm.dbg.declare (metadata double* %y1.addr, metadata !2283, metadata !1553), !dbg !2265
	%0 = bitcast [5 x i32 (...)* (...)*]* @_ZTV11T1DFunction to i8*, !dbg !2284
	%1 = getelementptr i8, i8*  %0, i64 16, !dbg !2284
	%2 = load %struct.T3D_fix12*, %struct.T3D_fix12** %_T15727552_8116.addr, align 8, !tbaa !1615, !dbg !2284
	%3 = bitcast %struct.T3D_fix12*  %2 to i8**, !dbg !2284
	store i8*  %1, i8**  %3, align 8, !tbaa !1615, !dbg !2284
	%4 = bitcast [5 x i32 (...)* (...)*]* @_ZTV9T3D_fix12 to i8*, !dbg !2284
	%5 = getelementptr i8, i8*  %4, i64 16, !dbg !2284
	store i8*  %5, i8**  %3, align 8, !tbaa !1615, !dbg !2284
	%6 = load %struct.T3DFunction*, %struct.T3DFunction** %f1.addr, align 8, !tbaa !1615, !dbg !2284
	%7 = bitcast %struct.T3DFunction*  %6 to i8*, !dbg !2284
	%8 = bitcast %struct.T3D_fix12*  %2 to i8*, !dbg !2284
	%9 = getelementptr i8, i8*  %8, i64 8, !dbg !2284
	%10 = bitcast i8*  %9 to i8**, !dbg !2284
	store i8*  %7, i8**  %10, align 8, !tbaa !1615, !dbg !2284
	%11 = load double, double* %x1.addr, align 8, !tbaa !1618, !dbg !2284
	%12 = getelementptr i8, i8*  %8, i64 16, !dbg !2284
	%13 = bitcast i8*  %12 to double*, !dbg !2284
	store double  %11, double*  %13, align 8, !tbaa !1616, !dbg !2284
	%14 = load double, double* %y1.addr, align 8, !tbaa !1618, !dbg !2284
	%15 = getelementptr i8, i8*  %8, i64 24, !dbg !2284
	%16 = bitcast i8*  %15 to double*, !dbg !2284
	store double  %14, double*  %16, align 8, !tbaa !1616, !dbg !2284
	ret void, !dbg !2284
}
define linkonce_odr void @_ZN9T3D_fix12C2ERK11T3DFunctiondd(%struct.T3D_fix12* %_T15727552_8117.arg, %struct.T3DFunction* %_T15727848_8117.arg, double %_T15728144_8117.arg, double %_T15728440_8117.arg) #0 inlinehint !dbg !2286 {
L.entry:
	%_T15727552_8117.addr = alloca %struct.T3D_fix12*, align 8
	%_T15727848_8117.addr = alloca %struct.T3DFunction*, align 8
	%_T15728144_8117.addr = alloca double, align 8
	%_T15728440_8117.addr = alloca double, align 8
	%..inline.addr = alloca %struct.T3D_fix12*, align 8
	%..inline.addr.1 = alloca %struct.T3DFunction*, align 8
	%..inline.addr.2 = alloca double, align 8
	%..inline.addr.3 = alloca double, align 8

	store %struct.T3D_fix12* %_T15727552_8117.arg, %struct.T3D_fix12** %_T15727552_8117.addr, align 8, !tbaa !1615
	store %struct.T3DFunction* %_T15727848_8117.arg, %struct.T3DFunction** %_T15727848_8117.addr, align 8, !tbaa !1615
	store double %_T15728144_8117.arg, double* %_T15728144_8117.addr, align 8, !tbaa !1616
	store double %_T15728440_8117.arg, double* %_T15728440_8117.addr, align 8, !tbaa !1616
	%0 = load %struct.T3D_fix12*, %struct.T3D_fix12** %_T15727552_8117.addr, align 8, !tbaa !1615, !dbg !2302
	%1 = bitcast %struct.T3D_fix12*  %0 to i8*, !dbg !2302
	%2 = bitcast %struct.T3D_fix12** %..inline.addr to i8**, !dbg !2302
	store i8*  %1, i8**  %2, align 8, !tbaa !1615, !dbg !2302
	%3 = load %struct.T3DFunction*, %struct.T3DFunction** %_T15727848_8117.addr, align 8, !tbaa !1615, !dbg !2302
	%4 = bitcast %struct.T3DFunction*  %3 to i8*, !dbg !2302
	%5 = bitcast %struct.T3DFunction** %..inline.addr.1 to i8**, !dbg !2302
	store i8*  %4, i8**  %5, align 8, !tbaa !1615, !dbg !2302
	%6 = load double, double* %_T15728144_8117.addr, align 8, !tbaa !1618, !dbg !2302
	%7 = load double, double* %_T15728440_8117.addr, align 8, !tbaa !1618, !dbg !2302
	%8 = bitcast [5 x i32 (...)* (...)*]* @_ZTV11T1DFunction to i8*, !dbg !2302
	%9 = getelementptr i8, i8*  %8, i64 16, !dbg !2302
	%10 = bitcast %struct.T3D_fix12*  %0 to i8**, !dbg !2302
	store i8*  %9, i8**  %10, align 8, !tbaa !1615, !dbg !2302
	%11 = bitcast [5 x i32 (...)* (...)*]* @_ZTV9T3D_fix12 to i8*, !dbg !2302
	%12 = getelementptr i8, i8*  %11, i64 16, !dbg !2302
	%13 = load %struct.T3D_fix12*, %struct.T3D_fix12** %..inline.addr, align 8, !tbaa !1615, !dbg !2302
	%14 = bitcast %struct.T3D_fix12*  %13 to i8**, !dbg !2302
	store i8*  %12, i8**  %14, align 8, !tbaa !1615, !dbg !2302
	%15 = load %struct.T3DFunction*, %struct.T3DFunction** %..inline.addr.1, align 8, !tbaa !1615, !dbg !2302
	%16 = bitcast %struct.T3DFunction*  %15 to i8*, !dbg !2302
	%17 = bitcast %struct.T3D_fix12*  %13 to i8*, !dbg !2302
	%18 = getelementptr i8, i8*  %17, i64 8, !dbg !2302
	%19 = bitcast i8*  %18 to i8**, !dbg !2302
	store i8*  %16, i8**  %19, align 8, !tbaa !1615, !dbg !2302
	%20 = getelementptr i8, i8*  %17, i64 16, !dbg !2302
	%21 = bitcast i8*  %20 to double*, !dbg !2302
	store double  %6, double*  %21, align 8, !tbaa !1616, !dbg !2302
	%22 = getelementptr i8, i8*  %17, i64 24, !dbg !2302
	%23 = bitcast i8*  %22 to double*, !dbg !2302
	store double  %7, double*  %23, align 8, !tbaa !1616, !dbg !2302
	ret void, !dbg !2302
}
define linkonce_odr double @_ZNK9T3D_fix124callEd(%struct.T3D_fix12* %_T15727736_8118.arg, double %z.arg) #0 inlinehint !dbg !2304 {
L.entry:
	%_T15727736_8118.addr = alloca %struct.T3D_fix12*, align 8
	%z.addr = alloca double, align 8
	%.Q0012.addr = alloca double, align 8

	call void @llvm.dbg.declare (metadata %struct.T3D_fix12** %_T15727736_8118.addr, metadata !2308, metadata !1553), !dbg !2305
	store %struct.T3D_fix12* %_T15727736_8118.arg, %struct.T3D_fix12** %_T15727736_8118.addr, align 8, !tbaa !1615
	call void @llvm.dbg.declare (metadata %struct.T3D_fix12** %_T15727736_8118.addr, metadata !2309, metadata !1553), !dbg !2305
	call void @llvm.dbg.declare (metadata double* %z.addr, metadata !2310, metadata !1553), !dbg !2305
	store double %z.arg, double* %z.addr, align 8, !tbaa !1616
	call void @llvm.dbg.declare (metadata double* %z.addr, metadata !2311, metadata !1553), !dbg !2305
	%0 = load %struct.T3D_fix12*, %struct.T3D_fix12** %_T15727736_8118.addr, align 8, !tbaa !1615, !dbg !2312
	%1 = bitcast %struct.T3D_fix12*  %0 to i8*, !dbg !2312
	%2 = getelementptr i8, i8*  %1, i64 8, !dbg !2312
	%3 = bitcast i8*  %2 to %struct.T3DFunction**, !dbg !2312
	%4 = load %struct.T3DFunction*, %struct.T3DFunction**  %3, align 8, !tbaa !1615, !dbg !2312
	%5 = getelementptr i8, i8*  %1, i64 16, !dbg !2312
	%6 = bitcast i8*  %5 to double*, !dbg !2312
	%7 = load double, double*  %6, align 8, !tbaa !1616, !dbg !2312
	%8 = getelementptr i8, i8*  %1, i64 24, !dbg !2312
	%9 = bitcast i8*  %8 to double*, !dbg !2312
	%10 = load double, double*  %9, align 8, !tbaa !1616, !dbg !2312
	%11 = load double, double* %z.addr, align 8, !tbaa !1618, !dbg !2312
	%12 = bitcast i8*  %2 to double (%struct.T3DFunction*, double, double, double)****, !dbg !2312
	%13 = load double (%struct.T3DFunction*, double, double, double)***, double (%struct.T3DFunction*, double, double, double)****  %12, align 8, !tbaa !1615, !dbg !2312
	%14 = load double (%struct.T3DFunction*, double, double, double)**, double (%struct.T3DFunction*, double, double, double)***  %13, align 8, !tbaa !1615, !dbg !2312
	%15 = load double (%struct.T3DFunction*, double, double, double)*, double (%struct.T3DFunction*, double, double, double)**  %14, align 8, !tbaa !1615, !dbg !2312
	%16 = call double  %15 (%struct.T3DFunction*  %4, double  %7, double  %10, double  %11), !dbg !2312
	ret double  %16, !dbg !2312
}
define linkonce_odr void @_ZN9T3D_fix12D1Ev(%struct.T3D_fix12* %_T15727552_8119.arg) #0 inlinehint !dbg !2316 {
L.entry:
	%_T15727552_8119.addr = alloca %struct.T3D_fix12*, align 8

	call void @llvm.dbg.declare (metadata %struct.T3D_fix12** %_T15727552_8119.addr, metadata !2328, metadata !1553), !dbg !2317
	store %struct.T3D_fix12* %_T15727552_8119.arg, %struct.T3D_fix12** %_T15727552_8119.addr, align 8, !tbaa !1615
	call void @llvm.dbg.declare (metadata %struct.T3D_fix12** %_T15727552_8119.addr, metadata !2329, metadata !1553), !dbg !2317
	%0 = bitcast [5 x i32 (...)* (...)*]* @_ZTV9T3D_fix12 to i8*, !dbg !2330
	%1 = getelementptr i8, i8*  %0, i64 16, !dbg !2330
	%2 = load %struct.T3D_fix12*, %struct.T3D_fix12** %_T15727552_8119.addr, align 8, !tbaa !1615, !dbg !2330
	%3 = bitcast %struct.T3D_fix12*  %2 to i8**, !dbg !2330
	store i8*  %1, i8**  %3, align 8, !tbaa !1615, !dbg !2330
	%4 = bitcast [5 x i32 (...)* (...)*]* @_ZTV11T1DFunction to i8*, !dbg !2330
	%5 = getelementptr i8, i8*  %4, i64 16, !dbg !2330
	store i8*  %5, i8**  %3, align 8, !tbaa !1615, !dbg !2330
	ret void, !dbg !2330
}
define linkonce_odr void @_ZN9T3D_fix12D0Ev(%struct.T3D_fix12* %_T15727552_8120.arg) #0 inlinehint !dbg !2332 {
L.entry:
	%_T15727552_8120.addr = alloca %struct.T3D_fix12*, align 8
	%..inline.addr = alloca %struct.T3D_fix12*, align 8

	store %struct.T3D_fix12* %_T15727552_8120.arg, %struct.T3D_fix12** %_T15727552_8120.addr, align 8, !tbaa !1615
	%0 = load %struct.T3D_fix12*, %struct.T3D_fix12** %_T15727552_8120.addr, align 8, !tbaa !1615, !dbg !2348
	%1 = bitcast %struct.T3D_fix12*  %0 to i8*, !dbg !2348
	%2 = bitcast %struct.T3D_fix12** %..inline.addr to i8**, !dbg !2348
	store i8*  %1, i8**  %2, align 8, !tbaa !1615, !dbg !2348
	%3 = bitcast [5 x i32 (...)* (...)*]* @_ZTV9T3D_fix12 to i8*, !dbg !2348
	%4 = getelementptr i8, i8*  %3, i64 16, !dbg !2348
	%5 = load %struct.T3D_fix12*, %struct.T3D_fix12** %..inline.addr, align 8, !tbaa !1615, !dbg !2348
	%6 = bitcast %struct.T3D_fix12*  %5 to i8**, !dbg !2348
	store i8*  %4, i8**  %6, align 8, !tbaa !1615, !dbg !2348
	%7 = bitcast [5 x i32 (...)* (...)*]* @_ZTV11T1DFunction to i8*, !dbg !2348
	%8 = getelementptr i8, i8*  %7, i64 16, !dbg !2348
	store i8*  %8, i8**  %6, align 8, !tbaa !1615, !dbg !2348
	call void  @_ZdlPvm (i8*  %1, i64 32) nounwind, !dbg !2348
	ret void, !dbg !2348
}
define linkonce_odr void @_ZN9T3D_fix12D2Ev(%struct.T3D_fix12* %_T15727552_8121.arg) #0 inlinehint !dbg !2350 {
L.entry:
	%_T15727552_8121.addr = alloca %struct.T3D_fix12*, align 8
	%..inline.addr = alloca %struct.T3D_fix12*, align 8

	store %struct.T3D_fix12* %_T15727552_8121.arg, %struct.T3D_fix12** %_T15727552_8121.addr, align 8, !tbaa !1615
	%0 = load %struct.T3D_fix12*, %struct.T3D_fix12** %_T15727552_8121.addr, align 8, !tbaa !1615, !dbg !2366
	%1 = bitcast %struct.T3D_fix12*  %0 to i8*, !dbg !2366
	%2 = bitcast %struct.T3D_fix12** %..inline.addr to i8**, !dbg !2366
	store i8*  %1, i8**  %2, align 8, !tbaa !1615, !dbg !2366
	%3 = bitcast [5 x i32 (...)* (...)*]* @_ZTV9T3D_fix12 to i8*, !dbg !2366
	%4 = getelementptr i8, i8*  %3, i64 16, !dbg !2366
	%5 = load %struct.T3D_fix12*, %struct.T3D_fix12** %..inline.addr, align 8, !tbaa !1615, !dbg !2366
	%6 = bitcast %struct.T3D_fix12*  %5 to i8**, !dbg !2366
	store i8*  %4, i8**  %6, align 8, !tbaa !1615, !dbg !2366
	%7 = bitcast [5 x i32 (...)* (...)*]* @_ZTV11T1DFunction to i8*, !dbg !2366
	%8 = getelementptr i8, i8*  %7, i64 16, !dbg !2366
	store i8*  %8, i8**  %6, align 8, !tbaa !1615, !dbg !2366
	ret void, !dbg !2366
}
define linkonce_odr void @_ZN9T3D_fix13C1ERK11T3DFunctiondd(%struct.T3D_fix13* %_T15893992_8122.arg, %struct.T3DFunction* %f1.arg, double %x1.arg, double %z1.arg) #0 inlinehint !dbg !2370 {
L.entry:
	%_T15893992_8122.addr = alloca %struct.T3D_fix13*, align 8
	%f1.addr = alloca %struct.T3DFunction*, align 8
	%x1.addr = alloca double, align 8
	%z1.addr = alloca double, align 8

	call void @llvm.dbg.declare (metadata %struct.T3D_fix13** %_T15893992_8122.addr, metadata !2382, metadata !1553), !dbg !2371
	store %struct.T3D_fix13* %_T15893992_8122.arg, %struct.T3D_fix13** %_T15893992_8122.addr, align 8, !tbaa !1615
	call void @llvm.dbg.declare (metadata %struct.T3D_fix13** %_T15893992_8122.addr, metadata !2383, metadata !1553), !dbg !2371
	call void @llvm.dbg.declare (metadata %struct.T3DFunction** %f1.addr, metadata !2384, metadata !1553), !dbg !2371
	store %struct.T3DFunction* %f1.arg, %struct.T3DFunction** %f1.addr, align 8, !tbaa !1615
	call void @llvm.dbg.declare (metadata %struct.T3DFunction** %f1.addr, metadata !2385, metadata !1553), !dbg !2371
	call void @llvm.dbg.declare (metadata double* %x1.addr, metadata !2386, metadata !1553), !dbg !2371
	store double %x1.arg, double* %x1.addr, align 8, !tbaa !1616
	call void @llvm.dbg.declare (metadata double* %x1.addr, metadata !2387, metadata !1553), !dbg !2371
	call void @llvm.dbg.declare (metadata double* %z1.addr, metadata !2388, metadata !1553), !dbg !2371
	store double %z1.arg, double* %z1.addr, align 8, !tbaa !1616
	call void @llvm.dbg.declare (metadata double* %z1.addr, metadata !2389, metadata !1553), !dbg !2371
	%0 = bitcast [5 x i32 (...)* (...)*]* @_ZTV11T1DFunction to i8*, !dbg !2390
	%1 = getelementptr i8, i8*  %0, i64 16, !dbg !2390
	%2 = load %struct.T3D_fix13*, %struct.T3D_fix13** %_T15893992_8122.addr, align 8, !tbaa !1615, !dbg !2390
	%3 = bitcast %struct.T3D_fix13*  %2 to i8**, !dbg !2390
	store i8*  %1, i8**  %3, align 8, !tbaa !1615, !dbg !2390
	%4 = bitcast [5 x i32 (...)* (...)*]* @_ZTV9T3D_fix13 to i8*, !dbg !2390
	%5 = getelementptr i8, i8*  %4, i64 16, !dbg !2390
	store i8*  %5, i8**  %3, align 8, !tbaa !1615, !dbg !2390
	%6 = load %struct.T3DFunction*, %struct.T3DFunction** %f1.addr, align 8, !tbaa !1615, !dbg !2390
	%7 = bitcast %struct.T3DFunction*  %6 to i8*, !dbg !2390
	%8 = bitcast %struct.T3D_fix13*  %2 to i8*, !dbg !2390
	%9 = getelementptr i8, i8*  %8, i64 8, !dbg !2390
	%10 = bitcast i8*  %9 to i8**, !dbg !2390
	store i8*  %7, i8**  %10, align 8, !tbaa !1615, !dbg !2390
	%11 = load double, double* %x1.addr, align 8, !tbaa !1618, !dbg !2390
	%12 = getelementptr i8, i8*  %8, i64 16, !dbg !2390
	%13 = bitcast i8*  %12 to double*, !dbg !2390
	store double  %11, double*  %13, align 8, !tbaa !1616, !dbg !2390
	%14 = load double, double* %z1.addr, align 8, !tbaa !1618, !dbg !2390
	%15 = getelementptr i8, i8*  %8, i64 24, !dbg !2390
	%16 = bitcast i8*  %15 to double*, !dbg !2390
	store double  %14, double*  %16, align 8, !tbaa !1616, !dbg !2390
	ret void, !dbg !2390
}
define linkonce_odr void @_ZN9T3D_fix13C2ERK11T3DFunctiondd(%struct.T3D_fix13* %_T15893992_8123.arg, %struct.T3DFunction* %_T15894288_8123.arg, double %_T15894584_8123.arg, double %_T15894880_8123.arg) #0 inlinehint !dbg !2392 {
L.entry:
	%_T15893992_8123.addr = alloca %struct.T3D_fix13*, align 8
	%_T15894288_8123.addr = alloca %struct.T3DFunction*, align 8
	%_T15894584_8123.addr = alloca double, align 8
	%_T15894880_8123.addr = alloca double, align 8
	%..inline.addr = alloca %struct.T3D_fix13*, align 8
	%..inline.addr.1 = alloca %struct.T3DFunction*, align 8
	%..inline.addr.2 = alloca double, align 8
	%..inline.addr.3 = alloca double, align 8

	store %struct.T3D_fix13* %_T15893992_8123.arg, %struct.T3D_fix13** %_T15893992_8123.addr, align 8, !tbaa !1615
	store %struct.T3DFunction* %_T15894288_8123.arg, %struct.T3DFunction** %_T15894288_8123.addr, align 8, !tbaa !1615
	store double %_T15894584_8123.arg, double* %_T15894584_8123.addr, align 8, !tbaa !1616
	store double %_T15894880_8123.arg, double* %_T15894880_8123.addr, align 8, !tbaa !1616
	%0 = load %struct.T3D_fix13*, %struct.T3D_fix13** %_T15893992_8123.addr, align 8, !tbaa !1615, !dbg !2408
	%1 = bitcast %struct.T3D_fix13*  %0 to i8*, !dbg !2408
	%2 = bitcast %struct.T3D_fix13** %..inline.addr to i8**, !dbg !2408
	store i8*  %1, i8**  %2, align 8, !tbaa !1615, !dbg !2408
	%3 = load %struct.T3DFunction*, %struct.T3DFunction** %_T15894288_8123.addr, align 8, !tbaa !1615, !dbg !2408
	%4 = bitcast %struct.T3DFunction*  %3 to i8*, !dbg !2408
	%5 = bitcast %struct.T3DFunction** %..inline.addr.1 to i8**, !dbg !2408
	store i8*  %4, i8**  %5, align 8, !tbaa !1615, !dbg !2408
	%6 = load double, double* %_T15894584_8123.addr, align 8, !tbaa !1618, !dbg !2408
	%7 = load double, double* %_T15894880_8123.addr, align 8, !tbaa !1618, !dbg !2408
	%8 = bitcast [5 x i32 (...)* (...)*]* @_ZTV11T1DFunction to i8*, !dbg !2408
	%9 = getelementptr i8, i8*  %8, i64 16, !dbg !2408
	%10 = bitcast %struct.T3D_fix13*  %0 to i8**, !dbg !2408
	store i8*  %9, i8**  %10, align 8, !tbaa !1615, !dbg !2408
	%11 = bitcast [5 x i32 (...)* (...)*]* @_ZTV9T3D_fix13 to i8*, !dbg !2408
	%12 = getelementptr i8, i8*  %11, i64 16, !dbg !2408
	%13 = load %struct.T3D_fix13*, %struct.T3D_fix13** %..inline.addr, align 8, !tbaa !1615, !dbg !2408
	%14 = bitcast %struct.T3D_fix13*  %13 to i8**, !dbg !2408
	store i8*  %12, i8**  %14, align 8, !tbaa !1615, !dbg !2408
	%15 = load %struct.T3DFunction*, %struct.T3DFunction** %..inline.addr.1, align 8, !tbaa !1615, !dbg !2408
	%16 = bitcast %struct.T3DFunction*  %15 to i8*, !dbg !2408
	%17 = bitcast %struct.T3D_fix13*  %13 to i8*, !dbg !2408
	%18 = getelementptr i8, i8*  %17, i64 8, !dbg !2408
	%19 = bitcast i8*  %18 to i8**, !dbg !2408
	store i8*  %16, i8**  %19, align 8, !tbaa !1615, !dbg !2408
	%20 = getelementptr i8, i8*  %17, i64 16, !dbg !2408
	%21 = bitcast i8*  %20 to double*, !dbg !2408
	store double  %6, double*  %21, align 8, !tbaa !1616, !dbg !2408
	%22 = getelementptr i8, i8*  %17, i64 24, !dbg !2408
	%23 = bitcast i8*  %22 to double*, !dbg !2408
	store double  %7, double*  %23, align 8, !tbaa !1616, !dbg !2408
	ret void, !dbg !2408
}
define linkonce_odr double @_ZNK9T3D_fix134callEd(%struct.T3D_fix13* %_T15727736_8124.arg, double %y.arg) #0 inlinehint !dbg !2410 {
L.entry:
	%_T15727736_8124.addr = alloca %struct.T3D_fix13*, align 8
	%y.addr = alloca double, align 8
	%.Q0013.addr = alloca double, align 8

	call void @llvm.dbg.declare (metadata %struct.T3D_fix13** %_T15727736_8124.addr, metadata !2414, metadata !1553), !dbg !2411
	store %struct.T3D_fix13* %_T15727736_8124.arg, %struct.T3D_fix13** %_T15727736_8124.addr, align 8, !tbaa !1615
	call void @llvm.dbg.declare (metadata %struct.T3D_fix13** %_T15727736_8124.addr, metadata !2415, metadata !1553), !dbg !2411
	call void @llvm.dbg.declare (metadata double* %y.addr, metadata !2416, metadata !1553), !dbg !2411
	store double %y.arg, double* %y.addr, align 8, !tbaa !1616
	call void @llvm.dbg.declare (metadata double* %y.addr, metadata !2417, metadata !1553), !dbg !2411
	%0 = load %struct.T3D_fix13*, %struct.T3D_fix13** %_T15727736_8124.addr, align 8, !tbaa !1615, !dbg !2418
	%1 = bitcast %struct.T3D_fix13*  %0 to i8*, !dbg !2418
	%2 = getelementptr i8, i8*  %1, i64 8, !dbg !2418
	%3 = bitcast i8*  %2 to %struct.T3DFunction**, !dbg !2418
	%4 = load %struct.T3DFunction*, %struct.T3DFunction**  %3, align 8, !tbaa !1615, !dbg !2418
	%5 = getelementptr i8, i8*  %1, i64 16, !dbg !2418
	%6 = bitcast i8*  %5 to double*, !dbg !2418
	%7 = load double, double*  %6, align 8, !tbaa !1616, !dbg !2418
	%8 = load double, double* %y.addr, align 8, !tbaa !1618, !dbg !2418
	%9 = getelementptr i8, i8*  %1, i64 24, !dbg !2418
	%10 = bitcast i8*  %9 to double*, !dbg !2418
	%11 = load double, double*  %10, align 8, !tbaa !1616, !dbg !2418
	%12 = bitcast i8*  %2 to double (%struct.T3DFunction*, double, double, double)****, !dbg !2418
	%13 = load double (%struct.T3DFunction*, double, double, double)***, double (%struct.T3DFunction*, double, double, double)****  %12, align 8, !tbaa !1615, !dbg !2418
	%14 = load double (%struct.T3DFunction*, double, double, double)**, double (%struct.T3DFunction*, double, double, double)***  %13, align 8, !tbaa !1615, !dbg !2418
	%15 = load double (%struct.T3DFunction*, double, double, double)*, double (%struct.T3DFunction*, double, double, double)**  %14, align 8, !tbaa !1615, !dbg !2418
	%16 = call double  %15 (%struct.T3DFunction*  %4, double  %7, double  %8, double  %11), !dbg !2418
	ret double  %16, !dbg !2418
}
define linkonce_odr void @_ZN9T3D_fix13D1Ev(%struct.T3D_fix13* %_T15727552_8125.arg) #0 inlinehint !dbg !2422 {
L.entry:
	%_T15727552_8125.addr = alloca %struct.T3D_fix13*, align 8

	call void @llvm.dbg.declare (metadata %struct.T3D_fix13** %_T15727552_8125.addr, metadata !2434, metadata !1553), !dbg !2423
	store %struct.T3D_fix13* %_T15727552_8125.arg, %struct.T3D_fix13** %_T15727552_8125.addr, align 8, !tbaa !1615
	call void @llvm.dbg.declare (metadata %struct.T3D_fix13** %_T15727552_8125.addr, metadata !2435, metadata !1553), !dbg !2423
	%0 = bitcast [5 x i32 (...)* (...)*]* @_ZTV9T3D_fix13 to i8*, !dbg !2436
	%1 = getelementptr i8, i8*  %0, i64 16, !dbg !2436
	%2 = load %struct.T3D_fix13*, %struct.T3D_fix13** %_T15727552_8125.addr, align 8, !tbaa !1615, !dbg !2436
	%3 = bitcast %struct.T3D_fix13*  %2 to i8**, !dbg !2436
	store i8*  %1, i8**  %3, align 8, !tbaa !1615, !dbg !2436
	%4 = bitcast [5 x i32 (...)* (...)*]* @_ZTV11T1DFunction to i8*, !dbg !2436
	%5 = getelementptr i8, i8*  %4, i64 16, !dbg !2436
	store i8*  %5, i8**  %3, align 8, !tbaa !1615, !dbg !2436
	ret void, !dbg !2436
}
define linkonce_odr void @_ZN9T3D_fix13D0Ev(%struct.T3D_fix13* %_T15727552_8126.arg) #0 inlinehint !dbg !2438 {
L.entry:
	%_T15727552_8126.addr = alloca %struct.T3D_fix13*, align 8
	%..inline.addr = alloca %struct.T3D_fix13*, align 8

	store %struct.T3D_fix13* %_T15727552_8126.arg, %struct.T3D_fix13** %_T15727552_8126.addr, align 8, !tbaa !1615
	%0 = load %struct.T3D_fix13*, %struct.T3D_fix13** %_T15727552_8126.addr, align 8, !tbaa !1615, !dbg !2454
	%1 = bitcast %struct.T3D_fix13*  %0 to i8*, !dbg !2454
	%2 = bitcast %struct.T3D_fix13** %..inline.addr to i8**, !dbg !2454
	store i8*  %1, i8**  %2, align 8, !tbaa !1615, !dbg !2454
	%3 = bitcast [5 x i32 (...)* (...)*]* @_ZTV9T3D_fix13 to i8*, !dbg !2454
	%4 = getelementptr i8, i8*  %3, i64 16, !dbg !2454
	%5 = load %struct.T3D_fix13*, %struct.T3D_fix13** %..inline.addr, align 8, !tbaa !1615, !dbg !2454
	%6 = bitcast %struct.T3D_fix13*  %5 to i8**, !dbg !2454
	store i8*  %4, i8**  %6, align 8, !tbaa !1615, !dbg !2454
	%7 = bitcast [5 x i32 (...)* (...)*]* @_ZTV11T1DFunction to i8*, !dbg !2454
	%8 = getelementptr i8, i8*  %7, i64 16, !dbg !2454
	store i8*  %8, i8**  %6, align 8, !tbaa !1615, !dbg !2454
	call void  @_ZdlPvm (i8*  %1, i64 32) nounwind, !dbg !2454
	ret void, !dbg !2454
}
define linkonce_odr void @_ZN9T3D_fix13D2Ev(%struct.T3D_fix13* %_T15727552_8127.arg) #0 inlinehint !dbg !2456 {
L.entry:
	%_T15727552_8127.addr = alloca %struct.T3D_fix13*, align 8
	%..inline.addr = alloca %struct.T3D_fix13*, align 8

	store %struct.T3D_fix13* %_T15727552_8127.arg, %struct.T3D_fix13** %_T15727552_8127.addr, align 8, !tbaa !1615
	%0 = load %struct.T3D_fix13*, %struct.T3D_fix13** %_T15727552_8127.addr, align 8, !tbaa !1615, !dbg !2472
	%1 = bitcast %struct.T3D_fix13*  %0 to i8*, !dbg !2472
	%2 = bitcast %struct.T3D_fix13** %..inline.addr to i8**, !dbg !2472
	store i8*  %1, i8**  %2, align 8, !tbaa !1615, !dbg !2472
	%3 = bitcast [5 x i32 (...)* (...)*]* @_ZTV9T3D_fix13 to i8*, !dbg !2472
	%4 = getelementptr i8, i8*  %3, i64 16, !dbg !2472
	%5 = load %struct.T3D_fix13*, %struct.T3D_fix13** %..inline.addr, align 8, !tbaa !1615, !dbg !2472
	%6 = bitcast %struct.T3D_fix13*  %5 to i8**, !dbg !2472
	store i8*  %4, i8**  %6, align 8, !tbaa !1615, !dbg !2472
	%7 = bitcast [5 x i32 (...)* (...)*]* @_ZTV11T1DFunction to i8*, !dbg !2472
	%8 = getelementptr i8, i8*  %7, i64 16, !dbg !2472
	store i8*  %8, i8**  %6, align 8, !tbaa !1615, !dbg !2472
	ret void, !dbg !2472
}
define linkonce_odr void @_ZN9T3D_fix23C1ERK11T3DFunctiondd(%struct.T3D_fix23* %_T15893992_8128.arg, %struct.T3DFunction* %f1.arg, double %y1.arg, double %z1.arg) #0 inlinehint !dbg !2476 {
L.entry:
	%_T15893992_8128.addr = alloca %struct.T3D_fix23*, align 8
	%f1.addr = alloca %struct.T3DFunction*, align 8
	%y1.addr = alloca double, align 8
	%z1.addr = alloca double, align 8

	call void @llvm.dbg.declare (metadata %struct.T3D_fix23** %_T15893992_8128.addr, metadata !2488, metadata !1553), !dbg !2477
	store %struct.T3D_fix23* %_T15893992_8128.arg, %struct.T3D_fix23** %_T15893992_8128.addr, align 8, !tbaa !1615
	call void @llvm.dbg.declare (metadata %struct.T3D_fix23** %_T15893992_8128.addr, metadata !2489, metadata !1553), !dbg !2477
	call void @llvm.dbg.declare (metadata %struct.T3DFunction** %f1.addr, metadata !2490, metadata !1553), !dbg !2477
	store %struct.T3DFunction* %f1.arg, %struct.T3DFunction** %f1.addr, align 8, !tbaa !1615
	call void @llvm.dbg.declare (metadata %struct.T3DFunction** %f1.addr, metadata !2491, metadata !1553), !dbg !2477
	call void @llvm.dbg.declare (metadata double* %y1.addr, metadata !2492, metadata !1553), !dbg !2477
	store double %y1.arg, double* %y1.addr, align 8, !tbaa !1616
	call void @llvm.dbg.declare (metadata double* %y1.addr, metadata !2493, metadata !1553), !dbg !2477
	call void @llvm.dbg.declare (metadata double* %z1.addr, metadata !2494, metadata !1553), !dbg !2477
	store double %z1.arg, double* %z1.addr, align 8, !tbaa !1616
	call void @llvm.dbg.declare (metadata double* %z1.addr, metadata !2495, metadata !1553), !dbg !2477
	%0 = bitcast [5 x i32 (...)* (...)*]* @_ZTV11T1DFunction to i8*, !dbg !2496
	%1 = getelementptr i8, i8*  %0, i64 16, !dbg !2496
	%2 = load %struct.T3D_fix23*, %struct.T3D_fix23** %_T15893992_8128.addr, align 8, !tbaa !1615, !dbg !2496
	%3 = bitcast %struct.T3D_fix23*  %2 to i8**, !dbg !2496
	store i8*  %1, i8**  %3, align 8, !tbaa !1615, !dbg !2496
	%4 = bitcast [5 x i32 (...)* (...)*]* @_ZTV9T3D_fix23 to i8*, !dbg !2496
	%5 = getelementptr i8, i8*  %4, i64 16, !dbg !2496
	store i8*  %5, i8**  %3, align 8, !tbaa !1615, !dbg !2496
	%6 = load %struct.T3DFunction*, %struct.T3DFunction** %f1.addr, align 8, !tbaa !1615, !dbg !2496
	%7 = bitcast %struct.T3DFunction*  %6 to i8*, !dbg !2496
	%8 = bitcast %struct.T3D_fix23*  %2 to i8*, !dbg !2496
	%9 = getelementptr i8, i8*  %8, i64 8, !dbg !2496
	%10 = bitcast i8*  %9 to i8**, !dbg !2496
	store i8*  %7, i8**  %10, align 8, !tbaa !1615, !dbg !2496
	%11 = load double, double* %y1.addr, align 8, !tbaa !1618, !dbg !2496
	%12 = getelementptr i8, i8*  %8, i64 16, !dbg !2496
	%13 = bitcast i8*  %12 to double*, !dbg !2496
	store double  %11, double*  %13, align 8, !tbaa !1616, !dbg !2496
	%14 = load double, double* %z1.addr, align 8, !tbaa !1618, !dbg !2496
	%15 = getelementptr i8, i8*  %8, i64 24, !dbg !2496
	%16 = bitcast i8*  %15 to double*, !dbg !2496
	store double  %14, double*  %16, align 8, !tbaa !1616, !dbg !2496
	ret void, !dbg !2496
}
define linkonce_odr void @_ZN9T3D_fix23C2ERK11T3DFunctiondd(%struct.T3D_fix23* %_T15893992_8129.arg, %struct.T3DFunction* %_T15894288_8129.arg, double %_T15894584_8129.arg, double %_T15894880_8129.arg) #0 inlinehint !dbg !2498 {
L.entry:
	%_T15893992_8129.addr = alloca %struct.T3D_fix23*, align 8
	%_T15894288_8129.addr = alloca %struct.T3DFunction*, align 8
	%_T15894584_8129.addr = alloca double, align 8
	%_T15894880_8129.addr = alloca double, align 8
	%..inline.addr = alloca %struct.T3D_fix23*, align 8
	%..inline.addr.1 = alloca %struct.T3DFunction*, align 8
	%..inline.addr.2 = alloca double, align 8
	%..inline.addr.3 = alloca double, align 8

	store %struct.T3D_fix23* %_T15893992_8129.arg, %struct.T3D_fix23** %_T15893992_8129.addr, align 8, !tbaa !1615
	store %struct.T3DFunction* %_T15894288_8129.arg, %struct.T3DFunction** %_T15894288_8129.addr, align 8, !tbaa !1615
	store double %_T15894584_8129.arg, double* %_T15894584_8129.addr, align 8, !tbaa !1616
	store double %_T15894880_8129.arg, double* %_T15894880_8129.addr, align 8, !tbaa !1616
	%0 = load %struct.T3D_fix23*, %struct.T3D_fix23** %_T15893992_8129.addr, align 8, !tbaa !1615, !dbg !2514
	%1 = bitcast %struct.T3D_fix23*  %0 to i8*, !dbg !2514
	%2 = bitcast %struct.T3D_fix23** %..inline.addr to i8**, !dbg !2514
	store i8*  %1, i8**  %2, align 8, !tbaa !1615, !dbg !2514
	%3 = load %struct.T3DFunction*, %struct.T3DFunction** %_T15894288_8129.addr, align 8, !tbaa !1615, !dbg !2514
	%4 = bitcast %struct.T3DFunction*  %3 to i8*, !dbg !2514
	%5 = bitcast %struct.T3DFunction** %..inline.addr.1 to i8**, !dbg !2514
	store i8*  %4, i8**  %5, align 8, !tbaa !1615, !dbg !2514
	%6 = load double, double* %_T15894584_8129.addr, align 8, !tbaa !1618, !dbg !2514
	%7 = load double, double* %_T15894880_8129.addr, align 8, !tbaa !1618, !dbg !2514
	%8 = bitcast [5 x i32 (...)* (...)*]* @_ZTV11T1DFunction to i8*, !dbg !2514
	%9 = getelementptr i8, i8*  %8, i64 16, !dbg !2514
	%10 = bitcast %struct.T3D_fix23*  %0 to i8**, !dbg !2514
	store i8*  %9, i8**  %10, align 8, !tbaa !1615, !dbg !2514
	%11 = bitcast [5 x i32 (...)* (...)*]* @_ZTV9T3D_fix23 to i8*, !dbg !2514
	%12 = getelementptr i8, i8*  %11, i64 16, !dbg !2514
	%13 = load %struct.T3D_fix23*, %struct.T3D_fix23** %..inline.addr, align 8, !tbaa !1615, !dbg !2514
	%14 = bitcast %struct.T3D_fix23*  %13 to i8**, !dbg !2514
	store i8*  %12, i8**  %14, align 8, !tbaa !1615, !dbg !2514
	%15 = load %struct.T3DFunction*, %struct.T3DFunction** %..inline.addr.1, align 8, !tbaa !1615, !dbg !2514
	%16 = bitcast %struct.T3DFunction*  %15 to i8*, !dbg !2514
	%17 = bitcast %struct.T3D_fix23*  %13 to i8*, !dbg !2514
	%18 = getelementptr i8, i8*  %17, i64 8, !dbg !2514
	%19 = bitcast i8*  %18 to i8**, !dbg !2514
	store i8*  %16, i8**  %19, align 8, !tbaa !1615, !dbg !2514
	%20 = getelementptr i8, i8*  %17, i64 16, !dbg !2514
	%21 = bitcast i8*  %20 to double*, !dbg !2514
	store double  %6, double*  %21, align 8, !tbaa !1616, !dbg !2514
	%22 = getelementptr i8, i8*  %17, i64 24, !dbg !2514
	%23 = bitcast i8*  %22 to double*, !dbg !2514
	store double  %7, double*  %23, align 8, !tbaa !1616, !dbg !2514
	ret void, !dbg !2514
}
define linkonce_odr double @_ZNK9T3D_fix234callEd(%struct.T3D_fix23* %_T15727736_8130.arg, double %x.arg) #0 inlinehint !dbg !2516 {
L.entry:
	%_T15727736_8130.addr = alloca %struct.T3D_fix23*, align 8
	%x.addr = alloca double, align 8
	%.Q0014.addr = alloca double, align 8

	call void @llvm.dbg.declare (metadata %struct.T3D_fix23** %_T15727736_8130.addr, metadata !2520, metadata !1553), !dbg !2517
	store %struct.T3D_fix23* %_T15727736_8130.arg, %struct.T3D_fix23** %_T15727736_8130.addr, align 8, !tbaa !1615
	call void @llvm.dbg.declare (metadata %struct.T3D_fix23** %_T15727736_8130.addr, metadata !2521, metadata !1553), !dbg !2517
	call void @llvm.dbg.declare (metadata double* %x.addr, metadata !2522, metadata !1553), !dbg !2517
	store double %x.arg, double* %x.addr, align 8, !tbaa !1616
	call void @llvm.dbg.declare (metadata double* %x.addr, metadata !2523, metadata !1553), !dbg !2517
	%0 = load %struct.T3D_fix23*, %struct.T3D_fix23** %_T15727736_8130.addr, align 8, !tbaa !1615, !dbg !2524
	%1 = bitcast %struct.T3D_fix23*  %0 to i8*, !dbg !2524
	%2 = getelementptr i8, i8*  %1, i64 8, !dbg !2524
	%3 = bitcast i8*  %2 to %struct.T3DFunction**, !dbg !2524
	%4 = load %struct.T3DFunction*, %struct.T3DFunction**  %3, align 8, !tbaa !1615, !dbg !2524
	%5 = load double, double* %x.addr, align 8, !tbaa !1618, !dbg !2524
	%6 = getelementptr i8, i8*  %1, i64 16, !dbg !2524
	%7 = bitcast i8*  %6 to double*, !dbg !2524
	%8 = load double, double*  %7, align 8, !tbaa !1616, !dbg !2524
	%9 = getelementptr i8, i8*  %1, i64 24, !dbg !2524
	%10 = bitcast i8*  %9 to double*, !dbg !2524
	%11 = load double, double*  %10, align 8, !tbaa !1616, !dbg !2524
	%12 = bitcast i8*  %2 to double (%struct.T3DFunction*, double, double, double)****, !dbg !2524
	%13 = load double (%struct.T3DFunction*, double, double, double)***, double (%struct.T3DFunction*, double, double, double)****  %12, align 8, !tbaa !1615, !dbg !2524
	%14 = load double (%struct.T3DFunction*, double, double, double)**, double (%struct.T3DFunction*, double, double, double)***  %13, align 8, !tbaa !1615, !dbg !2524
	%15 = load double (%struct.T3DFunction*, double, double, double)*, double (%struct.T3DFunction*, double, double, double)**  %14, align 8, !tbaa !1615, !dbg !2524
	%16 = call double  %15 (%struct.T3DFunction*  %4, double  %5, double  %8, double  %11), !dbg !2524
	ret double  %16, !dbg !2524
}
define linkonce_odr void @_ZN9T3D_fix23D1Ev(%struct.T3D_fix23* %_T15727552_8131.arg) #0 inlinehint !dbg !2528 {
L.entry:
	%_T15727552_8131.addr = alloca %struct.T3D_fix23*, align 8

	call void @llvm.dbg.declare (metadata %struct.T3D_fix23** %_T15727552_8131.addr, metadata !2540, metadata !1553), !dbg !2529
	store %struct.T3D_fix23* %_T15727552_8131.arg, %struct.T3D_fix23** %_T15727552_8131.addr, align 8, !tbaa !1615
	call void @llvm.dbg.declare (metadata %struct.T3D_fix23** %_T15727552_8131.addr, metadata !2541, metadata !1553), !dbg !2529
	%0 = bitcast [5 x i32 (...)* (...)*]* @_ZTV9T3D_fix23 to i8*, !dbg !2542
	%1 = getelementptr i8, i8*  %0, i64 16, !dbg !2542
	%2 = load %struct.T3D_fix23*, %struct.T3D_fix23** %_T15727552_8131.addr, align 8, !tbaa !1615, !dbg !2542
	%3 = bitcast %struct.T3D_fix23*  %2 to i8**, !dbg !2542
	store i8*  %1, i8**  %3, align 8, !tbaa !1615, !dbg !2542
	%4 = bitcast [5 x i32 (...)* (...)*]* @_ZTV11T1DFunction to i8*, !dbg !2542
	%5 = getelementptr i8, i8*  %4, i64 16, !dbg !2542
	store i8*  %5, i8**  %3, align 8, !tbaa !1615, !dbg !2542
	ret void, !dbg !2542
}
define linkonce_odr void @_ZN9T3D_fix23D0Ev(%struct.T3D_fix23* %_T15727552_8132.arg) #0 inlinehint !dbg !2544 {
L.entry:
	%_T15727552_8132.addr = alloca %struct.T3D_fix23*, align 8
	%..inline.addr = alloca %struct.T3D_fix23*, align 8

	store %struct.T3D_fix23* %_T15727552_8132.arg, %struct.T3D_fix23** %_T15727552_8132.addr, align 8, !tbaa !1615
	%0 = load %struct.T3D_fix23*, %struct.T3D_fix23** %_T15727552_8132.addr, align 8, !tbaa !1615, !dbg !2560
	%1 = bitcast %struct.T3D_fix23*  %0 to i8*, !dbg !2560
	%2 = bitcast %struct.T3D_fix23** %..inline.addr to i8**, !dbg !2560
	store i8*  %1, i8**  %2, align 8, !tbaa !1615, !dbg !2560
	%3 = bitcast [5 x i32 (...)* (...)*]* @_ZTV9T3D_fix23 to i8*, !dbg !2560
	%4 = getelementptr i8, i8*  %3, i64 16, !dbg !2560
	%5 = load %struct.T3D_fix23*, %struct.T3D_fix23** %..inline.addr, align 8, !tbaa !1615, !dbg !2560
	%6 = bitcast %struct.T3D_fix23*  %5 to i8**, !dbg !2560
	store i8*  %4, i8**  %6, align 8, !tbaa !1615, !dbg !2560
	%7 = bitcast [5 x i32 (...)* (...)*]* @_ZTV11T1DFunction to i8*, !dbg !2560
	%8 = getelementptr i8, i8*  %7, i64 16, !dbg !2560
	store i8*  %8, i8**  %6, align 8, !tbaa !1615, !dbg !2560
	call void  @_ZdlPvm (i8*  %1, i64 32) nounwind, !dbg !2560
	ret void, !dbg !2560
}
define linkonce_odr void @_ZN9T3D_fix23D2Ev(%struct.T3D_fix23* %_T15727552_8133.arg) #0 inlinehint !dbg !2562 {
L.entry:
	%_T15727552_8133.addr = alloca %struct.T3D_fix23*, align 8
	%..inline.addr = alloca %struct.T3D_fix23*, align 8

	store %struct.T3D_fix23* %_T15727552_8133.arg, %struct.T3D_fix23** %_T15727552_8133.addr, align 8, !tbaa !1615
	%0 = load %struct.T3D_fix23*, %struct.T3D_fix23** %_T15727552_8133.addr, align 8, !tbaa !1615, !dbg !2578
	%1 = bitcast %struct.T3D_fix23*  %0 to i8*, !dbg !2578
	%2 = bitcast %struct.T3D_fix23** %..inline.addr to i8**, !dbg !2578
	store i8*  %1, i8**  %2, align 8, !tbaa !1615, !dbg !2578
	%3 = bitcast [5 x i32 (...)* (...)*]* @_ZTV9T3D_fix23 to i8*, !dbg !2578
	%4 = getelementptr i8, i8*  %3, i64 16, !dbg !2578
	%5 = load %struct.T3D_fix23*, %struct.T3D_fix23** %..inline.addr, align 8, !tbaa !1615, !dbg !2578
	%6 = bitcast %struct.T3D_fix23*  %5 to i8**, !dbg !2578
	store i8*  %4, i8**  %6, align 8, !tbaa !1615, !dbg !2578
	%7 = bitcast [5 x i32 (...)* (...)*]* @_ZTV11T1DFunction to i8*, !dbg !2578
	%8 = getelementptr i8, i8*  %7, i64 16, !dbg !2578
	store i8*  %8, i8**  %6, align 8, !tbaa !1615, !dbg !2578
	ret void, !dbg !2578
}
define linkonce_odr i64 @_ZNSt11char_traitsIcE6lengthEPKc(i8* %__s.arg) #0 inlinehint !dbg !2584 {
L.entry:
	%__s.addr = alloca i8*, align 8

	call void @llvm.dbg.declare (metadata i8** %__s.addr, metadata !2588, metadata !1553), !dbg !2585
	store i8* %__s.arg, i8** %__s.addr, align 8, !tbaa !1615
	call void @llvm.dbg.declare (metadata i8** %__s.addr, metadata !2589, metadata !1553), !dbg !2585
	%0 = load i8*, i8** %__s.addr, align 8, !tbaa !1615, !dbg !2590
	%1 = call i64  @strlen (i8*  %0) nounwind, !dbg !2590
	ret i64  %1, !dbg !2590
}
define linkonce_odr signext i32 @_ZNKSt9basic_iosIcSt11char_traitsIcEE7rdstateEv(%struct._ZSt9basic_iosIcSt11char_traitsIcEE* %_T15727552_8139.arg) #0 inlinehint !dbg !2598 {
L.entry:
	%_T15727552_8139.addr = alloca %struct._ZSt9basic_iosIcSt11char_traitsIcEE*, align 8

	call void @llvm.dbg.declare (metadata %struct._ZSt9basic_iosIcSt11char_traitsIcEE** %_T15727552_8139.addr, metadata !2602, metadata !1553), !dbg !2599
	store %struct._ZSt9basic_iosIcSt11char_traitsIcEE* %_T15727552_8139.arg, %struct._ZSt9basic_iosIcSt11char_traitsIcEE** %_T15727552_8139.addr, align 8, !tbaa !1615
	call void @llvm.dbg.declare (metadata %struct._ZSt9basic_iosIcSt11char_traitsIcEE** %_T15727552_8139.addr, metadata !2603, metadata !1553), !dbg !2599
	%0 = load %struct._ZSt9basic_iosIcSt11char_traitsIcEE*, %struct._ZSt9basic_iosIcSt11char_traitsIcEE** %_T15727552_8139.addr, align 8, !tbaa !1615, !dbg !2604
	%1 = bitcast %struct._ZSt9basic_iosIcSt11char_traitsIcEE*  %0 to i8*, !dbg !2604
	%2 = getelementptr i8, i8*  %1, i64 32, !dbg !2604
	%3 = bitcast i8*  %2 to i32*, !dbg !2604
	%4 = load i32, i32*  %3, align 4, !tbaa !1616, !dbg !2604
	ret i32  %4, !dbg !2604
}
define linkonce_odr void @_ZNSt9basic_iosIcSt11char_traitsIcEE8setstateESt12_Ios_Iostate(%struct._ZSt9basic_iosIcSt11char_traitsIcEE* %_T15727552_8143.arg, i32 signext %__state.arg) #0 inlinehint !dbg !2608 {
L.entry:
	%_T15727552_8143.addr = alloca %struct._ZSt9basic_iosIcSt11char_traitsIcEE*, align 8
	%__state.addr = alloca i32, align 4
	%..inline.addr = alloca i32, align 4

	call void @llvm.dbg.declare (metadata %struct._ZSt9basic_iosIcSt11char_traitsIcEE** %_T15727552_8143.addr, metadata !2620, metadata !1553), !dbg !2609
	store %struct._ZSt9basic_iosIcSt11char_traitsIcEE* %_T15727552_8143.arg, %struct._ZSt9basic_iosIcSt11char_traitsIcEE** %_T15727552_8143.addr, align 8, !tbaa !1615
	call void @llvm.dbg.declare (metadata %struct._ZSt9basic_iosIcSt11char_traitsIcEE** %_T15727552_8143.addr, metadata !2621, metadata !1553), !dbg !2609
	call void @llvm.dbg.declare (metadata i32* %__state.addr, metadata !2622, metadata !1553), !dbg !2609
	store i32 %__state.arg, i32* %__state.addr, align 4, !tbaa !1616
	call void @llvm.dbg.declare (metadata i32* %__state.addr, metadata !2623, metadata !1553), !dbg !2609
	%0 = load i32, i32* %__state.addr, align 4, !tbaa !1616, !dbg !2624
	%1 = load %struct._ZSt9basic_iosIcSt11char_traitsIcEE*, %struct._ZSt9basic_iosIcSt11char_traitsIcEE** %_T15727552_8143.addr, align 8, !tbaa !1615, !dbg !2624
	%2 = bitcast %struct._ZSt9basic_iosIcSt11char_traitsIcEE*  %1 to i8*, !dbg !2624
	%3 = getelementptr i8, i8*  %2, i64 32, !dbg !2624
	%4 = bitcast i8*  %3 to i32*, !dbg !2624
	%5 = load i32, i32*  %4, align 4, !tbaa !1616, !dbg !2624
	%6 = or i32  %0,  %5, !dbg !2624
	call void  @_ZNSt9basic_iosIcSt11char_traitsIcEE5clearESt12_Ios_Iostate (%struct._ZSt9basic_iosIcSt11char_traitsIcEE*  %1, i32  %6), !dbg !2625
	ret void, !dbg !2624
}
define linkonce_odr signext i32 @_ZStorSt12_Ios_IostateS_(i32 signext %__a.arg, i32 signext %__b.arg) #0 inlinehint !dbg !2631 {
L.entry:
	%__a.addr = alloca i32, align 4
	%__b.addr = alloca i32, align 4

	call void @llvm.dbg.declare (metadata i32* %__a.addr, metadata !2635, metadata !1553), !dbg !2632
	store i32 %__a.arg, i32* %__a.addr, align 4, !tbaa !1616
	call void @llvm.dbg.declare (metadata i32* %__a.addr, metadata !2636, metadata !1553), !dbg !2632
	call void @llvm.dbg.declare (metadata i32* %__b.addr, metadata !2637, metadata !1553), !dbg !2632
	store i32 %__b.arg, i32* %__b.addr, align 4, !tbaa !1616
	call void @llvm.dbg.declare (metadata i32* %__b.addr, metadata !2638, metadata !1553), !dbg !2632
	%0 = load i32, i32* %__b.addr, align 4, !tbaa !1616, !dbg !2639
	%1 = load i32, i32* %__a.addr, align 4, !tbaa !1616, !dbg !2639
	%2 = or i32  %0,  %1, !dbg !2639
	ret i32  %2, !dbg !2639
}
define linkonce_odr %struct._ZSo* @_ZStlsISt11char_traitsIcEERSt13basic_ostreamIcT_ES5_PKc(%struct._ZSo* %__out.arg, i8* %__s.arg) #0 inlinehint !dbg !2650 {
L.entry:
	%__out.addr = alloca %struct._ZSo*, align 8
	%__s.addr = alloca i8*, align 8
	%..inline.addr = alloca %struct._ZSt9basic_iosIcSt11char_traitsIcEE*, align 8
	%..inline.addr.1 = alloca %struct._ZSt9basic_iosIcSt11char_traitsIcEE*, align 8
	%..inline.addr.2 = alloca i32, align 4
	%..inline.addr.3 = alloca i8*, align 8
	%..inline.addr.4 = alloca i64, align 8
	%.Q0015.addr = alloca %struct._ZSo*, align 8

	call void @llvm.dbg.declare (metadata %struct._ZSo** %__out.addr, metadata !2670, metadata !1553), !dbg !2651
	store %struct._ZSo* %__out.arg, %struct._ZSo** %__out.addr, align 8, !tbaa !1615
	call void @llvm.dbg.declare (metadata %struct._ZSo** %__out.addr, metadata !2671, metadata !1553), !dbg !2651
	call void @llvm.dbg.declare (metadata i8** %__s.addr, metadata !2672, metadata !1553), !dbg !2651
	store i8* %__s.arg, i8** %__s.addr, align 8, !tbaa !1615
	call void @llvm.dbg.declare (metadata i8** %__s.addr, metadata !2673, metadata !1553), !dbg !2651
	%0 = load i8*, i8** %__s.addr, align 8, !tbaa !1615, !dbg !2674
	%1 = icmp ne i8*  %0,  null, !dbg !2674
	br i1  %1, label %L.B0032, label %L.B0289, !dbg !2674
L.B0289:
	%2 = load %struct._ZSo*, %struct._ZSo** %__out.addr, align 8, !tbaa !1615, !dbg !2675
	%3 = bitcast %struct._ZSo*  %2 to i8*, !dbg !2675
	%4 = bitcast %struct._ZSo*  %2 to i8**, !dbg !2675
	%5 = load i8*, i8**  %4, align 8, !tbaa !1615, !dbg !2675
	%6 = getelementptr i8, i8*  %5, i64 18446744073709551592, !dbg !2675
	%7 = bitcast i8*  %6 to i64*, !dbg !2675
	%8 = load i64, i64*  %7, align 8, !tbaa !1616, !dbg !2675
	%9 = getelementptr i8, i8*  %3, i64  %8, !dbg !2675
	%10 = bitcast %struct._ZSt9basic_iosIcSt11char_traitsIcEE** %..inline.addr to i8**, !dbg !2675
	store i8*  %9, i8**  %10, align 8, !tbaa !1615, !dbg !2675
	%11 = load %struct._ZSt9basic_iosIcSt11char_traitsIcEE*, %struct._ZSt9basic_iosIcSt11char_traitsIcEE** %..inline.addr, align 8, !tbaa !1615, !dbg !2676
	%12 = bitcast %struct._ZSt9basic_iosIcSt11char_traitsIcEE*  %11 to i8*, !dbg !2676
	%13 = bitcast %struct._ZSt9basic_iosIcSt11char_traitsIcEE** %..inline.addr.1 to i8**, !dbg !2676
	store i8*  %12, i8**  %13, align 8, !tbaa !1615, !dbg !2676
	%14 = load %struct._ZSt9basic_iosIcSt11char_traitsIcEE*, %struct._ZSt9basic_iosIcSt11char_traitsIcEE** %..inline.addr.1, align 8, !tbaa !1615, !dbg !2676
	%15 = bitcast %struct._ZSt9basic_iosIcSt11char_traitsIcEE*  %14 to i8*, !dbg !2676
	%16 = getelementptr i8, i8*  %15, i64 32, !dbg !2676
	%17 = bitcast i8*  %16 to i32*, !dbg !2676
	%18 = load i32, i32*  %17, align 4, !tbaa !1616, !dbg !2676
	%19 = or i32  %18, 1, !dbg !2676
	call void  @_ZNSt9basic_iosIcSt11char_traitsIcEE5clearESt12_Ios_Iostate (%struct._ZSt9basic_iosIcSt11char_traitsIcEE*  %11, i32  %19), !dbg !2676
	br label %L.B0033, !dbg !2675
L.B0032:
	%20 = load i8*, i8** %__s.addr, align 8, !tbaa !1615, !dbg !2677
	%21 = call i64  @strlen (i8*  %20) nounwind, !dbg !2678
	%22 = load %struct._ZSo*, %struct._ZSo** %__out.addr, align 8, !tbaa !1615, !dbg !2679
	%23 = load i8*, i8** %__s.addr, align 8, !tbaa !1615, !dbg !2679
	%24 = call %struct._ZSo*  @_ZSt16__ostream_insertIcSt11char_traitsIcEERSt13basic_ostreamIT_T0_ES6_PKS3_l (%struct._ZSo*  %22, i8*  %23, i64  %21), !dbg !2679
	%25 = bitcast %struct._ZSo*  %24 to i8*, !dbg !2679
	%26 = bitcast %struct._ZSo** %.Q0015.addr to i8**, !dbg !2679
	store i8*  %25, i8**  %26, align 8, !tbaa !1615, !dbg !2679
	br label %L.B0033
L.B0033:
	%27 = load %struct._ZSo*, %struct._ZSo** %__out.addr, align 8, !tbaa !1615, !dbg !2680
	ret %struct._ZSo*  %27, !dbg !2680
}

%struct._ZNSt8ios_base4InitE = type <{ [1 x i8]}> 

define void @__sti___37_backgroundfield_integratefunction_cpp_f19cb1ee() #0 inlinehint !dbg !2683 {
L.entry:

	%0 = load i32, i32* @__I___37_backgroundfield_integratefunction_cpp_f19cb1ee, align 4, !tbaa !1620, !dbg !2687
	%1 = icmp eq i32  %0, 1, !dbg !2687
	br i1  %1, label %L.B0034, label %L.B0290, !dbg !2687
L.B0290:
	store i32 1, i32* @__I___37_backgroundfield_integratefunction_cpp_f19cb1ee, align 4, !tbaa !1620, !dbg !2687
	call void  @_ZNSt8ios_base4InitC1Ev (%struct._ZNSt8ios_base4InitE* @_ZN59_INTERNAL_37_backgroundfield_integratefunction_cpp_f19cb1eeSt8__ioinitE) nounwind, !dbg !2687
	%2 = bitcast void (%struct._ZNSt8ios_base4InitE*)* @_ZNSt8ios_base4InitD1Ev to void (i8*)*, !dbg !2687
	%3 = bitcast %struct._ZNSt8ios_base4InitE* @_ZN59_INTERNAL_37_backgroundfield_integratefunction_cpp_f19cb1eeSt8__ioinitE to i8*, !dbg !2687
	%4 = bitcast i8** @__dso_handle to i8*, !dbg !2687
	%5 = call i32  @__cxa_atexit (void (i8*)*  %2, i8*  %3, i8*  %4) nounwind, !dbg !2687
	br label %L.B0034
L.B0034:
	ret void, !dbg !2687
}
@WID = internal global i32 4, align 4, !dbg !2698
@WID2 = internal global i32 16, align 4, !dbg !2700
@WID3 = internal global i32 64, align 4, !dbg !2702
@_ZTV11T1DFunction = weak unnamed_addr global [5 x i32 (...)* (...)*]  [ i32 (...)* (...)*  null, i32 (...)* (...)*  bitcast (%struct.__class_type_info* @_ZTI11T1DFunction to i32 (...)* (...)*), i32 (...)* (...)*  bitcast (void ()* @__cxa_pure_virtual to i32 (...)* (...)*), i32 (...)* (...)*  bitcast (void (%struct.T1DFunction*)* @_ZN11T1DFunctionD1Ev to i32 (...)* (...)*), i32 (...)* (...)*  bitcast (void (%struct.T1DFunction*)* @_ZN11T1DFunctionD0Ev to i32 (...)* (...)*) ], align 16, !dbg !1578

%struct.__EDG_type_info = type <{ i32 (...)* (...)*, i8*}> 
%struct.__class_type_info = type <{ %struct.__EDG_type_info}> 

@_ZTV11T2DFunction = weak unnamed_addr global [5 x i32 (...)* (...)*]  [ i32 (...)* (...)*  null, i32 (...)* (...)*  bitcast (%struct.__class_type_info* @_ZTI11T2DFunction to i32 (...)* (...)*), i32 (...)* (...)*  bitcast (void ()* @__cxa_pure_virtual to i32 (...)* (...)*), i32 (...)* (...)*  bitcast (void (%struct.T2DFunction*)* @_ZN11T2DFunctionD1Ev to i32 (...)* (...)*), i32 (...)* (...)*  bitcast (void (%struct.T2DFunction*)* @_ZN11T2DFunctionD0Ev to i32 (...)* (...)*) ], align 16, !dbg !1786
@_ZTV8T3D_fix1 = weak unnamed_addr global [5 x i32 (...)* (...)*]  [ i32 (...)* (...)*  null, i32 (...)* (...)*  bitcast (%struct.__si_class_type_info* @_ZTI8T3D_fix1 to i32 (...)* (...)*), i32 (...)* (...)*  bitcast (double (%struct.T3D_fix1*, double, double)* @_ZNK8T3D_fix14callEdd to i32 (...)* (...)*), i32 (...)* (...)*  bitcast (void (%struct.T3D_fix1*)* @_ZN8T3D_fix1D1Ev to i32 (...)* (...)*), i32 (...)* (...)*  bitcast (void (%struct.T3D_fix1*)* @_ZN8T3D_fix1D0Ev to i32 (...)* (...)*) ], align 16, !dbg !1801

%struct.__si_class_type_info = type <{ %struct.__class_type_info, %struct.__class_type_info*}> 

@_ZTV8T3D_fix2 = weak unnamed_addr global [5 x i32 (...)* (...)*]  [ i32 (...)* (...)*  null, i32 (...)* (...)*  bitcast (%struct.__si_class_type_info* @_ZTI8T3D_fix2 to i32 (...)* (...)*), i32 (...)* (...)*  bitcast (double (%struct.T3D_fix2*, double, double)* @_ZNK8T3D_fix24callEdd to i32 (...)* (...)*), i32 (...)* (...)*  bitcast (void (%struct.T3D_fix2*)* @_ZN8T3D_fix2D1Ev to i32 (...)* (...)*), i32 (...)* (...)*  bitcast (void (%struct.T3D_fix2*)* @_ZN8T3D_fix2D0Ev to i32 (...)* (...)*) ], align 16, !dbg !1810
@_ZTV8T3D_fix3 = weak unnamed_addr global [5 x i32 (...)* (...)*]  [ i32 (...)* (...)*  null, i32 (...)* (...)*  bitcast (%struct.__si_class_type_info* @_ZTI8T3D_fix3 to i32 (...)* (...)*), i32 (...)* (...)*  bitcast (double (%struct.T3D_fix3*, double, double)* @_ZNK8T3D_fix34callEdd to i32 (...)* (...)*), i32 (...)* (...)*  bitcast (void (%struct.T3D_fix3*)* @_ZN8T3D_fix3D1Ev to i32 (...)* (...)*), i32 (...)* (...)*  bitcast (void (%struct.T3D_fix3*)* @_ZN8T3D_fix3D0Ev to i32 (...)* (...)*) ], align 16, !dbg !1789
@_ZTV9T3D_fix12 = weak unnamed_addr global [5 x i32 (...)* (...)*]  [ i32 (...)* (...)*  null, i32 (...)* (...)*  bitcast (%struct.__si_class_type_info* @_ZTI9T3D_fix12 to i32 (...)* (...)*), i32 (...)* (...)*  bitcast (double (%struct.T3D_fix12*, double)* @_ZNK9T3D_fix124callEd to i32 (...)* (...)*), i32 (...)* (...)*  bitcast (void (%struct.T3D_fix12*)* @_ZN9T3D_fix12D1Ev to i32 (...)* (...)*), i32 (...)* (...)*  bitcast (void (%struct.T3D_fix12*)* @_ZN9T3D_fix12D0Ev to i32 (...)* (...)*) ], align 16, !dbg !1581
@_ZTV9T3D_fix13 = weak unnamed_addr global [5 x i32 (...)* (...)*]  [ i32 (...)* (...)*  null, i32 (...)* (...)*  bitcast (%struct.__si_class_type_info* @_ZTI9T3D_fix13 to i32 (...)* (...)*), i32 (...)* (...)*  bitcast (double (%struct.T3D_fix13*, double)* @_ZNK9T3D_fix134callEd to i32 (...)* (...)*), i32 (...)* (...)*  bitcast (void (%struct.T3D_fix13*)* @_ZN9T3D_fix13D1Ev to i32 (...)* (...)*), i32 (...)* (...)*  bitcast (void (%struct.T3D_fix13*)* @_ZN9T3D_fix13D0Ev to i32 (...)* (...)*) ], align 16, !dbg !1604
@_ZTV9T3D_fix23 = weak unnamed_addr global [5 x i32 (...)* (...)*]  [ i32 (...)* (...)*  null, i32 (...)* (...)*  bitcast (%struct.__si_class_type_info* @_ZTI9T3D_fix23 to i32 (...)* (...)*), i32 (...)* (...)*  bitcast (double (%struct.T3D_fix23*, double)* @_ZNK9T3D_fix234callEd to i32 (...)* (...)*), i32 (...)* (...)*  bitcast (void (%struct.T3D_fix23*)* @_ZN9T3D_fix23D1Ev to i32 (...)* (...)*), i32 (...)* (...)*  bitcast (void (%struct.T3D_fix23*)* @_ZN9T3D_fix23D0Ev to i32 (...)* (...)*) ], align 16, !dbg !1595
@_ZTI11T1DFunction = weak unnamed_addr global %struct.__class_type_info  <{ %struct.__EDG_type_info  <{ i32 (...)* (...)*  bitcast (i8* getelementptr(i8, i8* bitcast([0 x i32 (...)* (...)*]* @_ZTVN10__cxxabiv117__class_type_infoE to i8*), i32 16) to i32 (...)* (...)*), i8*  getelementptr(i8, i8* bitcast([14 x i8]* @_ZTS11T1DFunction to i8*), i32 0) }> }>, align 16, !dbg !2704
@_ZTI11T2DFunction = weak unnamed_addr global %struct.__class_type_info  <{ %struct.__EDG_type_info  <{ i32 (...)* (...)*  bitcast (i8* getelementptr(i8, i8* bitcast([0 x i32 (...)* (...)*]* @_ZTVN10__cxxabiv117__class_type_infoE to i8*), i32 16) to i32 (...)* (...)*), i8*  getelementptr(i8, i8* bitcast([14 x i8]* @_ZTS11T2DFunction to i8*), i32 0) }> }>, align 16, !dbg !2706
@_ZTI8T3D_fix1 = weak unnamed_addr global %struct.__si_class_type_info  <{ %struct.__class_type_info  <{ %struct.__EDG_type_info  <{ i32 (...)* (...)*  bitcast (i8* getelementptr(i8, i8* bitcast([0 x i32 (...)* (...)*]* @_ZTVN10__cxxabiv120__si_class_type_infoE to i8*), i32 16) to i32 (...)* (...)*), i8*  getelementptr(i8, i8* bitcast([10 x i8]* @_ZTS8T3D_fix1 to i8*), i32 0) }> }>, %struct.__class_type_info*  @_ZTI11T2DFunction }>, align 16, !dbg !2708
@_ZTI8T3D_fix2 = weak unnamed_addr global %struct.__si_class_type_info  <{ %struct.__class_type_info  <{ %struct.__EDG_type_info  <{ i32 (...)* (...)*  bitcast (i8* getelementptr(i8, i8* bitcast([0 x i32 (...)* (...)*]* @_ZTVN10__cxxabiv120__si_class_type_infoE to i8*), i32 16) to i32 (...)* (...)*), i8*  getelementptr(i8, i8* bitcast([10 x i8]* @_ZTS8T3D_fix2 to i8*), i32 0) }> }>, %struct.__class_type_info*  @_ZTI11T2DFunction }>, align 16, !dbg !2710
@_ZTI8T3D_fix3 = weak unnamed_addr global %struct.__si_class_type_info  <{ %struct.__class_type_info  <{ %struct.__EDG_type_info  <{ i32 (...)* (...)*  bitcast (i8* getelementptr(i8, i8* bitcast([0 x i32 (...)* (...)*]* @_ZTVN10__cxxabiv120__si_class_type_infoE to i8*), i32 16) to i32 (...)* (...)*), i8*  getelementptr(i8, i8* bitcast([10 x i8]* @_ZTS8T3D_fix3 to i8*), i32 0) }> }>, %struct.__class_type_info*  @_ZTI11T2DFunction }>, align 16, !dbg !2712
@_ZTI9T3D_fix12 = weak unnamed_addr global %struct.__si_class_type_info  <{ %struct.__class_type_info  <{ %struct.__EDG_type_info  <{ i32 (...)* (...)*  bitcast (i8* getelementptr(i8, i8* bitcast([0 x i32 (...)* (...)*]* @_ZTVN10__cxxabiv120__si_class_type_infoE to i8*), i32 16) to i32 (...)* (...)*), i8*  getelementptr(i8, i8* bitcast([11 x i8]* @_ZTS9T3D_fix12 to i8*), i32 0) }> }>, %struct.__class_type_info*  @_ZTI11T1DFunction }>, align 16, !dbg !2714
@_ZTI9T3D_fix13 = weak unnamed_addr global %struct.__si_class_type_info  <{ %struct.__class_type_info  <{ %struct.__EDG_type_info  <{ i32 (...)* (...)*  bitcast (i8* getelementptr(i8, i8* bitcast([0 x i32 (...)* (...)*]* @_ZTVN10__cxxabiv120__si_class_type_infoE to i8*), i32 16) to i32 (...)* (...)*), i8*  getelementptr(i8, i8* bitcast([11 x i8]* @_ZTS9T3D_fix13 to i8*), i32 0) }> }>, %struct.__class_type_info*  @_ZTI11T1DFunction }>, align 16, !dbg !2716
@_ZTI9T3D_fix23 = weak unnamed_addr global %struct.__si_class_type_info  <{ %struct.__class_type_info  <{ %struct.__EDG_type_info  <{ i32 (...)* (...)*  bitcast (i8* getelementptr(i8, i8* bitcast([0 x i32 (...)* (...)*]* @_ZTVN10__cxxabiv120__si_class_type_infoE to i8*), i32 16) to i32 (...)* (...)*), i8*  getelementptr(i8, i8* bitcast([11 x i8]* @_ZTS9T3D_fix23 to i8*), i32 0) }> }>, %struct.__class_type_info*  @_ZTI11T1DFunction }>, align 16, !dbg !2718
@_ZTS11T1DFunction = weak unnamed_addr global [14 x i8]  c"11T1DFunction\00", align 8, !dbg !2726
@_ZTS11T2DFunction = weak unnamed_addr global [14 x i8]  c"11T2DFunction\00", align 8, !dbg !2728
@_ZTS8T3D_fix1 = weak unnamed_addr global [10 x i8]  c"8T3D_fix1\00", align 8, !dbg !2735
@_ZTS8T3D_fix2 = weak unnamed_addr global [10 x i8]  c"8T3D_fix2\00", align 8, !dbg !2737
@_ZTS8T3D_fix3 = weak unnamed_addr global [10 x i8]  c"8T3D_fix3\00", align 8, !dbg !2739
@_ZTS9T3D_fix12 = weak unnamed_addr global [11 x i8]  c"9T3D_fix12\00", align 8, !dbg !2744
@_ZTS9T3D_fix13 = weak unnamed_addr global [11 x i8]  c"9T3D_fix13\00", align 8, !dbg !2746
@_ZTS9T3D_fix23 = weak unnamed_addr global [11 x i8]  c"9T3D_fix23\00", align 8, !dbg !2748
@_ZN59_INTERNAL_37_backgroundfield_integratefunction_cpp_f19cb1ee5vmesh15INVALID_LOCALIDE = internal global i32 -1, align 4, !dbg !2750
@__I___37_backgroundfield_integratefunction_cpp_f19cb1ee = global i32 0, align 4, !dbg !2689
@_ZN59_INTERNAL_37_backgroundfield_integratefunction_cpp_f19cb1eeSt8__ioinitE = internal global %struct._ZNSt8ios_base4InitE zeroinitializer , align 1, !dbg !2694
@__dso_handle = external global i8*, align 8
@_ZSt4cerr = external global %struct._ZSo, align 8
@_ZTVN10__cxxabiv120__si_class_type_infoE = external global [0 x i32 (...)* (...)*], align 8
@_ZTVN10__cxxabiv117__class_type_infoE = external global [0 x i32 (...)* (...)*], align 8
@.S08496 = internal constant [28 x i8] [i8 42,i8 42,i8 42,i8 32,i8 83,i8 117,i8 114,i8 102,i8 97,i8 99,i8 101,i8 65,i8 118,i8 101,i8 114,i8 97,i8 103,i8 101,i8 32,i8 32,i8 105,i8 115,i8 32,i8 98,i8 97,i8 100,i8 10,i8 0], align 1
@.S08448 = internal constant [25 x i8] [i8 42,i8 42,i8 42,i8 32,i8 108,i8 105,i8 110,i8 101,i8 65,i8 118,i8 101,i8 114,i8 97,i8 103,i8 101,i8 32,i8 32,i8 105,i8 115,i8 32,i8 98,i8 97,i8 100,i8 10,i8 0], align 1
@llvm.global_ctors = appending global [1 x { i32, void ()*, i8* }][{ i32, void ()*, i8* } { i32 65535, void ()* @__sti___37_backgroundfield_integratefunction_cpp_f19cb1ee, i8* null }]
attributes #0 = { "frame-pointer"="all" }

declare void @__cxa_pure_virtual() #0
declare signext i32 @__cxa_atexit(void (i8*)*, i8*, i8*) #0
declare void @_ZNSt8ios_base4InitD1Ev(%struct._ZNSt8ios_base4InitE*) #0
declare void @_ZNSt8ios_base4InitC1Ev(%struct._ZNSt8ios_base4InitE*) #0
declare void @_ZdlPvm(i8*, i64) #0
declare double @_Z7RombergRK11T3DFunctionddddddd(%struct.T3DFunction*, double, double, double, double, double, double, double) #0
declare void @exit(i32 signext) #0
declare double @_Z7RombergRK11T2DFunctionddddd(%struct.T2DFunction*, double, double, double, double, double) #0
declare %struct._ZSo* @_ZSt16__ostream_insertIcSt11char_traitsIcEERSt13basic_ostreamIT_T0_ES6_PKS3_l(%struct._ZSo*, i8*, i64) #0
declare i64 @strlen(i8*) #0
declare void @_ZNSt9basic_iosIcSt11char_traitsIcEE5clearESt12_Ios_Iostate(%struct._ZSt9basic_iosIcSt11char_traitsIcEE*, i32 signext) #0
declare double @_Z7RombergRK11T1DFunctionddd(%struct.T1DFunction*, double, double, double) #0
declare void @llvm.dbg.declare(metadata, metadata, metadata)
declare i32 @__gxx_personality_v0(...)

; Named metadata
!llvm.module.flags = !{ !1, !2 }
!llvm.dbg.cu = !{ !10 }

; Metadata
!1 = !{ i32 2, !"Dwarf Version", i32 2 }
!2 = !{ i32 2, !"Debug Info Version", i32 3 }
!3 = !DIFile(filename: "backgroundfield/integratefunction.cpp", directory: "/home/talgat/vlasiator")
; !4 = !DIFile(tag: DW_TAG_file_type, pair: !3)
!4 = !{ i32 41, !3 }
!5 = !{  }
!6 = !{  }
!7 = !{ !1410, !1624, !1822, !1850, !1858, !1868, !1878, !1886, !1898, !1906, !1916, !1926, !1934, !1946, !1966, !1984, !1998, !2014, !2032, !2052, !2072, !2090, !2104, !2120, !2138, !2158, !2178, !2196, !2210, !2226, !2244, !2264, !2286, !2304, !2316, !2332, !2350, !2370, !2392, !2410, !2422, !2438, !2456, !2476, !2498, !2516, !2528, !2544, !2562, !2584, !2598, !2608, !2631, !2650, !2683 }
!8 = !{ !1578, !1581, !1590, !1595, !1604, !1786, !1789, !1801, !1810, !2689, !2694, !2696, !2698, !2700, !2702, !2704, !2706, !2708, !2710, !2712, !2714, !2716, !2718, !2721, !2726, !2728, !2730, !2735, !2737, !2739, !2744, !2746, !2748, !2750 }
!9 = !{  }
!10 = distinct !DICompileUnit(file: !3, language: DW_LANG_C_plus_plus, producer: " NVC++ 21.2-0", enums: !5, retainedTypes: !6, globals: !8, emissionKind: FullDebug, imports: !9)
!11 = !DINamespace(scope: !10, name: "std")
!12 = !DINamespace(scope: !11, name: "__cxx11")
!13 = !DINamespace(scope: !11, name: "__exception_ptr")
!14 = !{ !18 }
!15 = !DICompositeType(tag: DW_TAG_class_type, file: !3, scope: !13, name: "exception_ptr", line: 1, size: 64, align: 64, elements: !14, runtimeLang: DW_LANG_C_plus_plus)
!16 = !DIBasicType(tag: DW_TAG_unspecified_type, name: "void")
!17 = !DIDerivedType(tag: DW_TAG_pointer_type, size: 64, align: 64, baseType: !16)
!18 = !DIDerivedType(tag: DW_TAG_member, file: !3, scope: !15, name: "_M_exception_object", line: 1, size: 64, align: 64, baseType: !17)
!19 = !DINamespace(scope: !11, name: "__swappable_details")
!20 = !{  }
!21 = !DICompositeType(tag: DW_TAG_structure_type, file: !3, scope: !19, name: "__do_is_swappable_impl", line: 1, size: 8, align: 8, elements: !20, runtimeLang: DW_LANG_C_plus_plus)
!22 = !{  }
!23 = !DICompositeType(tag: DW_TAG_structure_type, file: !3, scope: !19, name: "__do_is_nothrow_swappable_impl", line: 1, size: 8, align: 8, elements: !22, runtimeLang: DW_LANG_C_plus_plus)
!24 = !DINamespace(scope: !11, name: "__swappable_with_details")
!25 = !{  }
!26 = !DICompositeType(tag: DW_TAG_structure_type, file: !3, scope: !24, name: "__do_is_swappable_with_impl", line: 1, size: 8, align: 8, elements: !25, runtimeLang: DW_LANG_C_plus_plus)
!27 = !{  }
!28 = !DICompositeType(tag: DW_TAG_structure_type, file: !3, scope: !24, name: "__do_is_nothrow_swappable_with_impl", line: 1, size: 8, align: 8, elements: !27, runtimeLang: DW_LANG_C_plus_plus)
!29 = !DINamespace(scope: !11, name: "__debug")
!30 = !DIBasicType(tag: DW_TAG_base_type, name: "unsigned long", size: 64, align: 64, encoding: DW_ATE_unsigned)
!31 = !DIDerivedType(tag: DW_TAG_typedef, file: !3, scope: !11, name: "size_t", line: 1, size: 64, align: 64, baseType: !30)
!32 = !DIBasicType(tag: DW_TAG_base_type, name: "long", size: 64, align: 64, encoding: DW_ATE_signed)
!33 = !DIDerivedType(tag: DW_TAG_typedef, file: !3, scope: !11, name: "ptrdiff_t", line: 1, size: 64, align: 64, baseType: !32)
!34 = !DIDerivedType(tag: DW_TAG_typedef, file: !3, scope: !11, name: "nullptr_t", line: 1, size: 64, align: 64, baseType: !17)
!35 = !{  }
!36 = !DICompositeType(tag: DW_TAG_structure_type, file: !3, scope: !11, name: "__true_type", line: 1, size: 8, align: 8, elements: !35, runtimeLang: DW_LANG_C_plus_plus)
!37 = !{  }
!38 = !DICompositeType(tag: DW_TAG_structure_type, file: !3, scope: !11, name: "__false_type", line: 1, size: 8, align: 8, elements: !37, runtimeLang: DW_LANG_C_plus_plus)
!39 = !{ !46, !47, !55 }
!40 = !DICompositeType(tag: DW_TAG_structure_type, file: !3, name: "_ZNSt7__cxx1112basic_stringIcSt11char_traitsIcESaIcEEE", size: 256, align: 64, elements: !39)
!41 = !{ !45 }
!42 = !DICompositeType(tag: DW_TAG_structure_type, file: !3, name: "_ZNSt7__cxx1112basic_stringIcSt11char_traitsIcESaIcEE12_Alloc_hiderE", size: 64, align: 64, elements: !41)
!43 = !DIBasicType(tag: DW_TAG_base_type, name: "signed char", size: 8, align: 8, encoding: DW_ATE_signed_char)
!44 = !DIDerivedType(tag: DW_TAG_pointer_type, size: 64, align: 64, baseType: !43)
!45 = !DIDerivedType(tag: DW_TAG_member, file: !3, scope: !42, name: "_M_p", size: 64, align: 64, baseType: !44)
!46 = !DIDerivedType(tag: DW_TAG_member, file: !3, scope: !40, name: "_M_dataplus", size: 64, align: 64, baseType: !42)
!47 = !DIDerivedType(tag: DW_TAG_member, file: !3, scope: !40, name: "_M_string_length", size: 64, align: 64, offset: 64, baseType: !30)
!48 = !{ !53, !54 }
!49 = !DICompositeType(tag: DW_TAG_union_type, file: !3, name: "__C5", size: 128, align: 64, elements: !48)
!50 = !DISubrange(count: 16)
!51 = !{ !50 }
!52 = !DICompositeType(tag: DW_TAG_array_type, size: 128, align: 8, baseType: !43, elements: !51)
!53 = !DIDerivedType(tag: DW_TAG_member, file: !3, scope: !49, name: "_M_local_buf", size: 128, align: 8, baseType: !52)
!54 = !DIDerivedType(tag: DW_TAG_member, file: !3, scope: !49, name: "_M_allocated_capacity", size: 64, align: 64, baseType: !30)
!55 = !DIDerivedType(tag: DW_TAG_member, file: !3, scope: !40, size: 128, align: 64, offset: 128, baseType: !49)
!56 = !DIDerivedType(tag: DW_TAG_typedef, file: !3, scope: !11, name: "string", line: 1, size: 256, align: 64, baseType: !40)
!57 = !{ !64, !65, !73 }
!58 = !DICompositeType(tag: DW_TAG_structure_type, file: !3, name: "_ZNSt7__cxx1112basic_stringIwSt11char_traitsIwESaIwEEE", size: 256, align: 64, elements: !57)
!59 = !{ !63 }
!60 = !DICompositeType(tag: DW_TAG_structure_type, file: !3, name: "_ZNSt7__cxx1112basic_stringIwSt11char_traitsIwESaIwEE12_Alloc_hiderE", size: 64, align: 64, elements: !59)
!61 = !DIBasicType(tag: DW_TAG_base_type, name: "int", size: 32, align: 32, encoding: DW_ATE_signed)
!62 = !DIDerivedType(tag: DW_TAG_pointer_type, size: 64, align: 64, baseType: !61)
!63 = !DIDerivedType(tag: DW_TAG_member, file: !3, scope: !60, name: "_M_p", size: 64, align: 64, baseType: !62)
!64 = !DIDerivedType(tag: DW_TAG_member, file: !3, scope: !58, name: "_M_dataplus", size: 64, align: 64, baseType: !60)
!65 = !DIDerivedType(tag: DW_TAG_member, file: !3, scope: !58, name: "_M_string_length", size: 64, align: 64, offset: 64, baseType: !30)
!66 = !{ !71, !72 }
!67 = !DICompositeType(tag: DW_TAG_union_type, file: !3, name: "__C6", size: 128, align: 64, elements: !66)
!68 = !DISubrange(count: 4)
!69 = !{ !68 }
!70 = !DICompositeType(tag: DW_TAG_array_type, size: 128, align: 32, baseType: !61, elements: !69)
!71 = !DIDerivedType(tag: DW_TAG_member, file: !3, scope: !67, name: "_M_local_buf", size: 128, align: 32, baseType: !70)
!72 = !DIDerivedType(tag: DW_TAG_member, file: !3, scope: !67, name: "_M_allocated_capacity", size: 64, align: 64, baseType: !30)
!73 = !DIDerivedType(tag: DW_TAG_member, file: !3, scope: !58, size: 128, align: 64, offset: 128, baseType: !67)
!74 = !DIDerivedType(tag: DW_TAG_typedef, file: !3, scope: !11, name: "wstring", line: 1, size: 256, align: 64, baseType: !58)
!75 = !{ !82, !83, !91 }
!76 = !DICompositeType(tag: DW_TAG_structure_type, file: !3, name: "_ZNSt7__cxx1112basic_stringIDsSt11char_traitsIDsESaIDsEEE", size: 256, align: 64, elements: !75)
!77 = !{ !81 }
!78 = !DICompositeType(tag: DW_TAG_structure_type, file: !3, name: "_ZNSt7__cxx1112basic_stringIDsSt11char_traitsIDsESaIDsEE12_Alloc_hiderE", size: 64, align: 64, elements: !77)
!79 = !DIBasicType(tag: DW_TAG_base_type, name: "unsigned short", size: 16, align: 16, encoding: DW_ATE_unsigned)
!80 = !DIDerivedType(tag: DW_TAG_pointer_type, size: 64, align: 64, baseType: !79)
!81 = !DIDerivedType(tag: DW_TAG_member, file: !3, scope: !78, name: "_M_p", size: 64, align: 64, baseType: !80)
!82 = !DIDerivedType(tag: DW_TAG_member, file: !3, scope: !76, name: "_M_dataplus", size: 64, align: 64, baseType: !78)
!83 = !DIDerivedType(tag: DW_TAG_member, file: !3, scope: !76, name: "_M_string_length", size: 64, align: 64, offset: 64, baseType: !30)
!84 = !{ !89, !90 }
!85 = !DICompositeType(tag: DW_TAG_union_type, file: !3, name: "__C7", size: 128, align: 64, elements: !84)
!86 = !DISubrange(count: 8)
!87 = !{ !86 }
!88 = !DICompositeType(tag: DW_TAG_array_type, size: 128, align: 16, baseType: !79, elements: !87)
!89 = !DIDerivedType(tag: DW_TAG_member, file: !3, scope: !85, name: "_M_local_buf", size: 128, align: 16, baseType: !88)
!90 = !DIDerivedType(tag: DW_TAG_member, file: !3, scope: !85, name: "_M_allocated_capacity", size: 64, align: 64, baseType: !30)
!91 = !DIDerivedType(tag: DW_TAG_member, file: !3, scope: !76, size: 128, align: 64, offset: 128, baseType: !85)
!92 = !DIDerivedType(tag: DW_TAG_typedef, file: !3, scope: !11, name: "u16string", line: 1, size: 256, align: 64, baseType: !76)
!93 = !{ !100, !101, !107 }
!94 = !DICompositeType(tag: DW_TAG_structure_type, file: !3, name: "_ZNSt7__cxx1112basic_stringIDiSt11char_traitsIDiESaIDiEEE", size: 256, align: 64, elements: !93)
!95 = !{ !99 }
!96 = !DICompositeType(tag: DW_TAG_structure_type, file: !3, name: "_ZNSt7__cxx1112basic_stringIDiSt11char_traitsIDiESaIDiEE12_Alloc_hiderE", size: 64, align: 64, elements: !95)
!97 = !DIBasicType(tag: DW_TAG_base_type, name: "unsigned", size: 32, align: 32, encoding: DW_ATE_unsigned)
!98 = !DIDerivedType(tag: DW_TAG_pointer_type, size: 64, align: 64, baseType: !97)
!99 = !DIDerivedType(tag: DW_TAG_member, file: !3, scope: !96, name: "_M_p", size: 64, align: 64, baseType: !98)
!100 = !DIDerivedType(tag: DW_TAG_member, file: !3, scope: !94, name: "_M_dataplus", size: 64, align: 64, baseType: !96)
!101 = !DIDerivedType(tag: DW_TAG_member, file: !3, scope: !94, name: "_M_string_length", size: 64, align: 64, offset: 64, baseType: !30)
!102 = !{ !105, !106 }
!103 = !DICompositeType(tag: DW_TAG_union_type, file: !3, name: "__C8", size: 128, align: 64, elements: !102)
!104 = !DICompositeType(tag: DW_TAG_array_type, size: 128, align: 32, baseType: !97, elements: !69)
!105 = !DIDerivedType(tag: DW_TAG_member, file: !3, scope: !103, name: "_M_local_buf", size: 128, align: 32, baseType: !104)
!106 = !DIDerivedType(tag: DW_TAG_member, file: !3, scope: !103, name: "_M_allocated_capacity", size: 64, align: 64, baseType: !30)
!107 = !DIDerivedType(tag: DW_TAG_member, file: !3, scope: !94, size: 128, align: 64, offset: 128, baseType: !103)
!108 = !DIDerivedType(tag: DW_TAG_typedef, file: !3, scope: !11, name: "u32string", line: 1, size: 256, align: 64, baseType: !94)
!109 = !DIDerivedType(tag: DW_TAG_typedef, file: !3, scope: !11, name: "streamoff", line: 1, size: 64, align: 64, baseType: !32)
!110 = !DIDerivedType(tag: DW_TAG_typedef, file: !3, scope: !11, name: "streamsize", line: 1, size: 64, align: 64, baseType: !32)
!111 = !{  }
!112 = !DICompositeType(tag: DW_TAG_structure_type, file: !3, name: "_ZSt4fposI11__mbstate_tE", align: 8, elements: !111)
!113 = !DIDerivedType(tag: DW_TAG_typedef, file: !3, scope: !11, name: "streampos", line: 1, align: 8, baseType: !112)
!114 = !DIDerivedType(tag: DW_TAG_typedef, file: !3, scope: !11, name: "wstreampos", line: 1, align: 8, baseType: !112)
!115 = !DIDerivedType(tag: DW_TAG_typedef, file: !3, scope: !11, name: "u16streampos", line: 1, align: 8, baseType: !112)
!116 = !DIDerivedType(tag: DW_TAG_typedef, file: !3, scope: !11, name: "u32streampos", line: 1, align: 8, baseType: !112)
!117 = !{ !211, !217, !218, !219, !231, !267, !272, !277 }
!118 = !DICompositeType(tag: DW_TAG_structure_type, file: !3, name: "_ZSt9basic_iosIcSt11char_traitsIcEE", size: 2112, align: 64, elements: !117)
!119 = !{ !127, !128, !129, !153, !163, !164, !181, !186, !188, !189, !191, !210 }
!120 = !DICompositeType(tag: DW_TAG_structure_type, file: !3, name: "_ZSt8ios_base", size: 1728, align: 64, elements: !119)
!121 = !{ !61 }
!122 = !DISubroutineType(types: !121)
!123 = !DIDerivedType(tag: DW_TAG_pointer_type, size: 64, align: 64, baseType: !122)
!124 = !{ !123 }
!125 = !DISubroutineType(types: !124)
!126 = !DIDerivedType(tag: DW_TAG_pointer_type, size: 64, align: 64, baseType: !125)
!127 = !DIDerivedType(tag: DW_TAG_member, file: !3, scope: !120, name: "__vptr", size: 64, align: 64, baseType: !126)
!128 = !DIDerivedType(tag: DW_TAG_member, file: !3, scope: !120, name: "_M_precision", size: 64, align: 64, offset: 64, baseType: !32)
!129 = !DIDerivedType(tag: DW_TAG_member, file: !3, scope: !120, name: "_M_width", size: 64, align: 64, offset: 128, baseType: !32)
!130 = !DIEnumerator(name: "_ZSt19_S_ios_fmtflags_min", value: -2147483648)
!131 = !DIEnumerator(name: "_ZSt19_S_ios_fmtflags_max", value: 2147483647)
!132 = !DIEnumerator(name: "_ZSt19_S_ios_fmtflags_end", value: 65536)
!133 = !DIEnumerator(name: "_ZSt13_S_floatfield", value: 260)
!134 = !DIEnumerator(name: "_ZSt12_S_basefield", value: 74)
!135 = !DIEnumerator(name: "_ZSt14_S_adjustfield", value: 176)
!136 = !DIEnumerator(name: "_ZSt12_S_uppercase", value: 16384)
!137 = !DIEnumerator(name: "_ZSt10_S_unitbuf", value: 8192)
!138 = !DIEnumerator(name: "_ZSt9_S_skipws", value: 4096)
!139 = !DIEnumerator(name: "_ZSt10_S_showpos", value: 2048)
!140 = !DIEnumerator(name: "_ZSt12_S_showpoint", value: 1024)
!141 = !DIEnumerator(name: "_ZSt11_S_showbase", value: 512)
!142 = !DIEnumerator(name: "_ZSt13_S_scientific", value: 256)
!143 = !DIEnumerator(name: "_ZSt8_S_right", value: 128)
!144 = !DIEnumerator(name: "_ZSt6_S_oct", value: 64)
!145 = !DIEnumerator(name: "_ZSt7_S_left", value: 32)
!146 = !DIEnumerator(name: "_ZSt11_S_internal", value: 16)
!147 = !DIEnumerator(name: "_ZSt6_S_hex", value: 8)
!148 = !DIEnumerator(name: "_ZSt8_S_fixed", value: 4)
!149 = !DIEnumerator(name: "_ZSt6_S_dec", value: 2)
!150 = !DIEnumerator(name: "_ZSt12_S_boolalpha", value: 1)
!151 = !{ !150, !149, !148, !147, !146, !145, !144, !143, !142, !141, !140, !139, !138, !137, !136, !135, !134, !133, !132, !131, !130 }
!152 = !DICompositeType(tag: DW_TAG_enumeration_type, file: !3, name: "_ZSt13_Ios_Fmtflags", size: 32, align: 32, elements: !151)
!153 = !DIDerivedType(tag: DW_TAG_member, file: !3, scope: !120, name: "_M_flags", size: 32, align: 32, offset: 192, baseType: !152)
!154 = !DIEnumerator(name: "_ZSt18_S_ios_iostate_min", value: -2147483648)
!155 = !DIEnumerator(name: "_ZSt18_S_ios_iostate_max", value: 2147483647)
!156 = !DIEnumerator(name: "_ZSt18_S_ios_iostate_end", value: 65536)
!157 = !DIEnumerator(name: "_ZSt10_S_failbit", value: 4)
!158 = !DIEnumerator(name: "_ZSt9_S_eofbit", value: 2)
!159 = !DIEnumerator(name: "_ZSt9_S_badbit", value: 1)
!160 = !DIEnumerator(name: "_ZSt10_S_goodbit", value: 0)
!161 = !{ !160, !159, !158, !157, !156, !155, !154 }
!162 = !DICompositeType(tag: DW_TAG_enumeration_type, file: !3, name: "_ZSt12_Ios_Iostate", size: 32, align: 32, elements: !161)
!163 = !DIDerivedType(tag: DW_TAG_member, file: !3, scope: !120, name: "_M_exception", size: 32, align: 32, offset: 224, baseType: !162)
!164 = !DIDerivedType(tag: DW_TAG_member, file: !3, scope: !120, name: "_M_streambuf_state", size: 32, align: 32, offset: 256, baseType: !162)
!165 = !{ !168, !178, !179, !180 }
!166 = !DICompositeType(tag: DW_TAG_structure_type, file: !3, name: "_ZNSt8ios_base14_Callback_listE", size: 192, align: 64, elements: !165)
!167 = !DIDerivedType(tag: DW_TAG_pointer_type, size: 64, align: 64, baseType: !166)
!168 = !DIDerivedType(tag: DW_TAG_member, file: !3, scope: !166, name: "_M_next", size: 64, align: 64, baseType: !167)
!169 = !DIEnumerator(name: "_ZNSt8ios_base13copyfmt_eventE", value: 2)
!170 = !DIEnumerator(name: "_ZNSt8ios_base11imbue_eventE", value: 1)
!171 = !DIEnumerator(name: "_ZNSt8ios_base11erase_eventE", value: 0)
!172 = !{ !171, !170, !169 }
!173 = !DICompositeType(tag: DW_TAG_enumeration_type, file: !3, name: "_ZNSt8ios_base5eventE", size: 32, align: 32, elements: !172)
!174 = !DIDerivedType(tag: DW_TAG_pointer_type, size: 64, align: 64, baseType: !120)
!175 = !{ null, !173, !174, !61 }
!176 = !DISubroutineType(types: !175)
!177 = !DIDerivedType(tag: DW_TAG_pointer_type, size: 64, align: 64, baseType: !176)
!178 = !DIDerivedType(tag: DW_TAG_member, file: !3, scope: !166, name: "_M_fn", size: 64, align: 64, offset: 64, baseType: !177)
!179 = !DIDerivedType(tag: DW_TAG_member, file: !3, scope: !166, name: "_M_index", size: 32, align: 32, offset: 128, baseType: !61)
!180 = !DIDerivedType(tag: DW_TAG_member, file: !3, scope: !166, name: "_M_refcount", size: 32, align: 32, offset: 160, baseType: !61)
!181 = !DIDerivedType(tag: DW_TAG_member, file: !3, scope: !120, name: "_M_callbacks", size: 64, align: 64, offset: 320, baseType: !167)
!182 = !{ !184, !185 }
!183 = !DICompositeType(tag: DW_TAG_structure_type, file: !3, name: "_ZNSt8ios_base6_WordsE", size: 128, align: 64, elements: !182)
!184 = !DIDerivedType(tag: DW_TAG_member, file: !3, scope: !183, name: "_M_pword", size: 64, align: 64, baseType: !17)
!185 = !DIDerivedType(tag: DW_TAG_member, file: !3, scope: !183, name: "_M_iword", size: 64, align: 64, offset: 64, baseType: !32)
!186 = !DIDerivedType(tag: DW_TAG_member, file: !3, scope: !120, name: "_M_word_zero", size: 128, align: 64, offset: 384, baseType: !183)
!187 = !DICompositeType(tag: DW_TAG_array_type, size: 1024, align: 64, baseType: !183, elements: !87)
!188 = !DIDerivedType(tag: DW_TAG_member, file: !3, scope: !120, name: "_M_local_word", size: 1024, align: 64, offset: 512, baseType: !187)
!189 = !DIDerivedType(tag: DW_TAG_member, file: !3, scope: !120, name: "_M_word_size", size: 32, align: 32, offset: 1536, baseType: !61)
!190 = !DIDerivedType(tag: DW_TAG_pointer_type, size: 64, align: 64, baseType: !183)
!191 = !DIDerivedType(tag: DW_TAG_member, file: !3, scope: !120, name: "_M_word", size: 64, align: 64, offset: 1600, baseType: !190)
!192 = !{ !209 }
!193 = !DICompositeType(tag: DW_TAG_structure_type, file: !3, name: "_ZSt6locale", size: 64, align: 64, elements: !192)
!194 = !{ !196, !203, !204, !205, !207 }
!195 = !DICompositeType(tag: DW_TAG_structure_type, file: !3, name: "_ZNSt6locale5_ImplE", size: 320, align: 64, elements: !194)
!196 = !DIDerivedType(tag: DW_TAG_member, file: !3, scope: !195, name: "_M_refcount", size: 32, align: 32, baseType: !61)
!197 = !{ !199, !200 }
!198 = !DICompositeType(tag: DW_TAG_structure_type, file: !3, name: "_ZNSt6locale5facetE", size: 128, align: 64, elements: !197)
!199 = !DIDerivedType(tag: DW_TAG_member, file: !3, scope: !198, name: "__vptr", size: 64, align: 64, baseType: !126)
!200 = !DIDerivedType(tag: DW_TAG_member, file: !3, scope: !198, name: "_M_refcount", size: 32, align: 32, offset: 64, baseType: !61)
!201 = !DIDerivedType(tag: DW_TAG_pointer_type, size: 64, align: 64, baseType: !198)
!202 = !DIDerivedType(tag: DW_TAG_pointer_type, size: 64, align: 64, baseType: !201)
!203 = !DIDerivedType(tag: DW_TAG_member, file: !3, scope: !195, name: "_M_facets", size: 64, align: 64, offset: 64, baseType: !202)
!204 = !DIDerivedType(tag: DW_TAG_member, file: !3, scope: !195, name: "_M_facets_size", size: 64, align: 64, offset: 128, baseType: !30)
!205 = !DIDerivedType(tag: DW_TAG_member, file: !3, scope: !195, name: "_M_caches", size: 64, align: 64, offset: 192, baseType: !202)
!206 = !DIDerivedType(tag: DW_TAG_pointer_type, size: 64, align: 64, baseType: !44)
!207 = !DIDerivedType(tag: DW_TAG_member, file: !3, scope: !195, name: "_M_names", size: 64, align: 64, offset: 256, baseType: !206)
!208 = !DIDerivedType(tag: DW_TAG_pointer_type, size: 64, align: 64, baseType: !195)
!209 = !DIDerivedType(tag: DW_TAG_member, file: !3, scope: !193, name: "_M_impl", size: 64, align: 64, baseType: !208)
!210 = !DIDerivedType(tag: DW_TAG_member, file: !3, scope: !120, name: "_M_ios_locale", size: 64, align: 64, offset: 1664, baseType: !193)
!211 = !DIDerivedType(tag: DW_TAG_member, file: !3, scope: !118, name: "__b_St8ios_base", size: 1728, align: 64, baseType: !120)
!212 = !{ !214, !215 }
!213 = !DICompositeType(tag: DW_TAG_structure_type, file: !3, name: "_ZSo", size: 2176, align: 64, elements: !212)
!214 = !DIDerivedType(tag: DW_TAG_member, file: !3, scope: !213, name: "__vptr", size: 64, align: 64, baseType: !126)
!215 = !DIDerivedType(tag: DW_TAG_member, file: !3, scope: !213, name: "__v_St9basic_iosIcSt11char_traitsIcEE", size: 2112, align: 64, offset: 64, baseType: !118)
!216 = !DIDerivedType(tag: DW_TAG_pointer_type, size: 64, align: 64, baseType: !213)
!217 = !DIDerivedType(tag: DW_TAG_member, file: !3, scope: !118, name: "_M_tie", size: 64, align: 64, offset: 1728, baseType: !216)
!218 = !DIDerivedType(tag: DW_TAG_member, file: !3, scope: !118, name: "_M_fill", size: 8, align: 8, offset: 1792, baseType: !43)
!219 = !DIDerivedType(tag: DW_TAG_member, file: !3, scope: !118, name: "_M_fill_init", size: 8, align: 8, offset: 1800, baseType: !43)
!220 = !{ !222, !223, !224, !225, !226, !227, !228, !229 }
!221 = !DICompositeType(tag: DW_TAG_structure_type, file: !3, name: "_ZSt15basic_streambufIcSt11char_traitsIcEE", size: 512, align: 64, elements: !220)
!222 = !DIDerivedType(tag: DW_TAG_member, file: !3, scope: !221, name: "__vptr", size: 64, align: 64, baseType: !126)
!223 = !DIDerivedType(tag: DW_TAG_member, file: !3, scope: !221, name: "_M_in_beg", size: 64, align: 64, offset: 64, baseType: !44)
!224 = !DIDerivedType(tag: DW_TAG_member, file: !3, scope: !221, name: "_M_in_cur", size: 64, align: 64, offset: 128, baseType: !44)
!225 = !DIDerivedType(tag: DW_TAG_member, file: !3, scope: !221, name: "_M_in_end", size: 64, align: 64, offset: 192, baseType: !44)
!226 = !DIDerivedType(tag: DW_TAG_member, file: !3, scope: !221, name: "_M_out_beg", size: 64, align: 64, offset: 256, baseType: !44)
!227 = !DIDerivedType(tag: DW_TAG_member, file: !3, scope: !221, name: "_M_out_cur", size: 64, align: 64, offset: 320, baseType: !44)
!228 = !DIDerivedType(tag: DW_TAG_member, file: !3, scope: !221, name: "_M_out_end", size: 64, align: 64, offset: 384, baseType: !44)
!229 = !DIDerivedType(tag: DW_TAG_member, file: !3, scope: !221, name: "_M_buf_locale", size: 64, align: 64, offset: 448, baseType: !193)
!230 = !DIDerivedType(tag: DW_TAG_pointer_type, size: 64, align: 64, baseType: !221)
!231 = !DIDerivedType(tag: DW_TAG_member, file: !3, scope: !118, name: "_M_streambuf", size: 64, align: 64, offset: 1856, baseType: !230)
!232 = !{ !238, !254, !255, !256, !257, !258, !259, !263, !264, !265 }
!233 = !DICompositeType(tag: DW_TAG_structure_type, file: !3, name: "_ZSt5ctypeIcE", size: 4608, align: 64, elements: !232)
!234 = !{ !236, !237 }
!235 = !DICompositeType(tag: DW_TAG_structure_type, file: !3, name: "__SO__NSt6locale5facetE", size: 96, align: 64, elements: !234)
!236 = !DIDerivedType(tag: DW_TAG_member, file: !3, scope: !235, name: "__vptr", size: 64, align: 64, baseType: !126)
!237 = !DIDerivedType(tag: DW_TAG_member, file: !3, scope: !235, name: "_M_refcount", size: 32, align: 32, offset: 64, baseType: !61)
!238 = !DIDerivedType(tag: DW_TAG_member, file: !3, scope: !233, name: "__b_NSt6locale5facetE", size: 96, align: 64, baseType: !235)
!239 = !{ !247, !248, !249, !250, !252 }
!240 = !DICompositeType(tag: DW_TAG_structure_type, file: !3, name: "__locale_struct", size: 1856, align: 64, elements: !239)
!241 = !DISubrange(count: 13)
!242 = !{  }
!243 = !DICompositeType(tag: DW_TAG_structure_type, file: !3, name: "__locale_data", align: 8, elements: !242)
!244 = !DIDerivedType(tag: DW_TAG_pointer_type, size: 64, align: 64, baseType: !243)
!245 = !{ !241 }
!246 = !DICompositeType(tag: DW_TAG_array_type, size: 832, align: 64, baseType: !244, elements: !245)
!247 = !DIDerivedType(tag: DW_TAG_member, file: !3, scope: !240, name: "__locales", size: 832, align: 64, baseType: !246)
!248 = !DIDerivedType(tag: DW_TAG_member, file: !3, scope: !240, name: "__ctype_b", size: 64, align: 64, offset: 832, baseType: !80)
!249 = !DIDerivedType(tag: DW_TAG_member, file: !3, scope: !240, name: "__ctype_tolower", size: 64, align: 64, offset: 896, baseType: !62)
!250 = !DIDerivedType(tag: DW_TAG_member, file: !3, scope: !240, name: "__ctype_toupper", size: 64, align: 64, offset: 960, baseType: !62)
!251 = !DICompositeType(tag: DW_TAG_array_type, size: 832, align: 64, baseType: !44, elements: !245)
!252 = !DIDerivedType(tag: DW_TAG_member, file: !3, scope: !240, name: "__names", size: 832, align: 64, offset: 1024, baseType: !251)
!253 = !DIDerivedType(tag: DW_TAG_pointer_type, size: 64, align: 64, baseType: !240)
!254 = !DIDerivedType(tag: DW_TAG_member, file: !3, scope: !233, name: "_M_c_locale_ctype", size: 64, align: 64, offset: 128, baseType: !253)
!255 = !DIDerivedType(tag: DW_TAG_member, file: !3, scope: !233, name: "_M_del", size: 8, align: 8, offset: 192, baseType: !43)
!256 = !DIDerivedType(tag: DW_TAG_member, file: !3, scope: !233, name: "_M_toupper", size: 64, align: 64, offset: 256, baseType: !62)
!257 = !DIDerivedType(tag: DW_TAG_member, file: !3, scope: !233, name: "_M_tolower", size: 64, align: 64, offset: 320, baseType: !62)
!258 = !DIDerivedType(tag: DW_TAG_member, file: !3, scope: !233, name: "_M_table", size: 64, align: 64, offset: 384, baseType: !80)
!259 = !DIDerivedType(tag: DW_TAG_member, file: !3, scope: !233, name: "_M_widen_ok", size: 8, align: 8, offset: 448, baseType: !43)
!260 = !DISubrange(count: 256)
!261 = !{ !260 }
!262 = !DICompositeType(tag: DW_TAG_array_type, size: 2048, align: 8, baseType: !43, elements: !261)
!263 = !DIDerivedType(tag: DW_TAG_member, file: !3, scope: !233, name: "_M_widen", size: 2048, align: 8, offset: 456, baseType: !262)
!264 = !DIDerivedType(tag: DW_TAG_member, file: !3, scope: !233, name: "_M_narrow", size: 2048, align: 8, offset: 2504, baseType: !262)
!265 = !DIDerivedType(tag: DW_TAG_member, file: !3, scope: !233, name: "_M_narrow_ok", size: 8, align: 8, offset: 4552, baseType: !43)
!266 = !DIDerivedType(tag: DW_TAG_pointer_type, size: 64, align: 64, baseType: !233)
!267 = !DIDerivedType(tag: DW_TAG_member, file: !3, scope: !118, name: "_M_ctype", size: 64, align: 64, offset: 1920, baseType: !266)
!268 = !{ !270 }
!269 = !DICompositeType(tag: DW_TAG_structure_type, file: !3, name: "_ZSt7num_putIcSt19ostreambuf_iteratorIcSt11char_traitsIcEEE", size: 128, align: 64, elements: !268)
!270 = !DIDerivedType(tag: DW_TAG_member, file: !3, scope: !269, name: "__b_NSt6locale5facetE", size: 96, align: 64, baseType: !235)
!271 = !DIDerivedType(tag: DW_TAG_pointer_type, size: 64, align: 64, baseType: !269)
!272 = !DIDerivedType(tag: DW_TAG_member, file: !3, scope: !118, name: "_M_num_put", size: 64, align: 64, offset: 1984, baseType: !271)
!273 = !{ !275 }
!274 = !DICompositeType(tag: DW_TAG_structure_type, file: !3, name: "_ZSt7num_getIcSt19istreambuf_iteratorIcSt11char_traitsIcEEE", size: 128, align: 64, elements: !273)
!275 = !DIDerivedType(tag: DW_TAG_member, file: !3, scope: !274, name: "__b_NSt6locale5facetE", size: 96, align: 64, baseType: !235)
!276 = !DIDerivedType(tag: DW_TAG_pointer_type, size: 64, align: 64, baseType: !274)
!277 = !DIDerivedType(tag: DW_TAG_member, file: !3, scope: !118, name: "_M_num_get", size: 64, align: 64, offset: 2048, baseType: !276)
!278 = !DIDerivedType(tag: DW_TAG_typedef, file: !3, scope: !11, name: "ios", line: 1, size: 2112, align: 64, baseType: !118)
!279 = !{ !281, !282, !283 }
!280 = !DICompositeType(tag: DW_TAG_structure_type, file: !3, name: "_ZSi", size: 2240, align: 64, elements: !279)
!281 = !DIDerivedType(tag: DW_TAG_member, file: !3, scope: !280, name: "__vptr", size: 64, align: 64, baseType: !126)
!282 = !DIDerivedType(tag: DW_TAG_member, file: !3, scope: !280, name: "_M_gcount", size: 64, align: 64, offset: 64, baseType: !32)
!283 = !DIDerivedType(tag: DW_TAG_member, file: !3, scope: !280, name: "__v_St9basic_iosIcSt11char_traitsIcEE", size: 2112, align: 64, offset: 128, baseType: !118)
!284 = !DIDerivedType(tag: DW_TAG_typedef, file: !3, scope: !11, name: "istream", line: 1, size: 2240, align: 64, baseType: !280)
!285 = !DIDerivedType(tag: DW_TAG_typedef, file: !3, scope: !11, name: "ostream", line: 1, size: 2176, align: 64, baseType: !213)
!286 = !{ !288, !289, !343 }
!287 = !DICompositeType(tag: DW_TAG_structure_type, file: !3, name: "_ZSt13basic_istreamIwSt11char_traitsIwEE", size: 2240, align: 64, elements: !286)
!288 = !DIDerivedType(tag: DW_TAG_member, file: !3, scope: !287, name: "__vptr", size: 64, align: 64, baseType: !126)
!289 = !DIDerivedType(tag: DW_TAG_member, file: !3, scope: !287, name: "_M_gcount", size: 64, align: 64, offset: 64, baseType: !32)
!290 = !{ !292, !298, !299, !300, !312, !332, !337, !342 }
!291 = !DICompositeType(tag: DW_TAG_structure_type, file: !3, name: "_ZSt9basic_iosIwSt11char_traitsIwEE", size: 2112, align: 64, elements: !290)
!292 = !DIDerivedType(tag: DW_TAG_member, file: !3, scope: !291, name: "__b_St8ios_base", size: 1728, align: 64, baseType: !120)
!293 = !{ !295, !296 }
!294 = !DICompositeType(tag: DW_TAG_structure_type, file: !3, name: "_ZSt13basic_ostreamIwSt11char_traitsIwEE", size: 2176, align: 64, elements: !293)
!295 = !DIDerivedType(tag: DW_TAG_member, file: !3, scope: !294, name: "__vptr", size: 64, align: 64, baseType: !126)
!296 = !DIDerivedType(tag: DW_TAG_member, file: !3, scope: !294, name: "__v_St9basic_iosIwSt11char_traitsIwEE", size: 2112, align: 64, offset: 64, baseType: !291)
!297 = !DIDerivedType(tag: DW_TAG_pointer_type, size: 64, align: 64, baseType: !294)
!298 = !DIDerivedType(tag: DW_TAG_member, file: !3, scope: !291, name: "_M_tie", size: 64, align: 64, offset: 1728, baseType: !297)
!299 = !DIDerivedType(tag: DW_TAG_member, file: !3, scope: !291, name: "_M_fill", size: 32, align: 32, offset: 1792, baseType: !61)
!300 = !DIDerivedType(tag: DW_TAG_member, file: !3, scope: !291, name: "_M_fill_init", size: 8, align: 8, offset: 1824, baseType: !43)
!301 = !{ !303, !304, !305, !306, !307, !308, !309, !310 }
!302 = !DICompositeType(tag: DW_TAG_structure_type, file: !3, name: "_ZSt15basic_streambufIwSt11char_traitsIwEE", size: 512, align: 64, elements: !301)
!303 = !DIDerivedType(tag: DW_TAG_member, file: !3, scope: !302, name: "__vptr", size: 64, align: 64, baseType: !126)
!304 = !DIDerivedType(tag: DW_TAG_member, file: !3, scope: !302, name: "_M_in_beg", size: 64, align: 64, offset: 64, baseType: !62)
!305 = !DIDerivedType(tag: DW_TAG_member, file: !3, scope: !302, name: "_M_in_cur", size: 64, align: 64, offset: 128, baseType: !62)
!306 = !DIDerivedType(tag: DW_TAG_member, file: !3, scope: !302, name: "_M_in_end", size: 64, align: 64, offset: 192, baseType: !62)
!307 = !DIDerivedType(tag: DW_TAG_member, file: !3, scope: !302, name: "_M_out_beg", size: 64, align: 64, offset: 256, baseType: !62)
!308 = !DIDerivedType(tag: DW_TAG_member, file: !3, scope: !302, name: "_M_out_cur", size: 64, align: 64, offset: 320, baseType: !62)
!309 = !DIDerivedType(tag: DW_TAG_member, file: !3, scope: !302, name: "_M_out_end", size: 64, align: 64, offset: 384, baseType: !62)
!310 = !DIDerivedType(tag: DW_TAG_member, file: !3, scope: !302, name: "_M_buf_locale", size: 64, align: 64, offset: 448, baseType: !193)
!311 = !DIDerivedType(tag: DW_TAG_pointer_type, size: 64, align: 64, baseType: !302)
!312 = !DIDerivedType(tag: DW_TAG_member, file: !3, scope: !291, name: "_M_streambuf", size: 64, align: 64, offset: 1856, baseType: !311)
!313 = !{ !318, !319, !320, !324, !326, !328, !330 }
!314 = !DICompositeType(tag: DW_TAG_structure_type, file: !3, name: "_ZSt5ctypeIwE", size: 10752, align: 64, elements: !313)
!315 = !{ !317 }
!316 = !DICompositeType(tag: DW_TAG_structure_type, file: !3, name: "__SO__St21__ctype_abstract_baseIwE", size: 96, align: 64, elements: !315)
!317 = !DIDerivedType(tag: DW_TAG_member, file: !3, scope: !316, name: "__b_NSt6locale5facetE", size: 96, align: 64, baseType: !235)
!318 = !DIDerivedType(tag: DW_TAG_member, file: !3, scope: !314, name: "__b_St21__ctype_abstract_baseIwE", size: 96, align: 64, baseType: !316)
!319 = !DIDerivedType(tag: DW_TAG_member, file: !3, scope: !314, name: "_M_c_locale_ctype", size: 64, align: 64, offset: 128, baseType: !253)
!320 = !DIDerivedType(tag: DW_TAG_member, file: !3, scope: !314, name: "_M_narrow_ok", size: 8, align: 8, offset: 192, baseType: !43)
!321 = !DISubrange(count: 128)
!322 = !{ !321 }
!323 = !DICompositeType(tag: DW_TAG_array_type, size: 1024, align: 8, baseType: !43, elements: !322)
!324 = !DIDerivedType(tag: DW_TAG_member, file: !3, scope: !314, name: "_M_narrow", size: 1024, align: 8, offset: 200, baseType: !323)
!325 = !DICompositeType(tag: DW_TAG_array_type, size: 8192, align: 32, baseType: !97, elements: !261)
!326 = !DIDerivedType(tag: DW_TAG_member, file: !3, scope: !314, name: "_M_widen", size: 8192, align: 32, offset: 1248, baseType: !325)
!327 = !DICompositeType(tag: DW_TAG_array_type, size: 256, align: 16, baseType: !79, elements: !51)
!328 = !DIDerivedType(tag: DW_TAG_member, file: !3, scope: !314, name: "_M_bit", size: 256, align: 16, offset: 9440, baseType: !327)
!329 = !DICompositeType(tag: DW_TAG_array_type, size: 1024, align: 64, baseType: !30, elements: !51)
!330 = !DIDerivedType(tag: DW_TAG_member, file: !3, scope: !314, name: "_M_wmask", size: 1024, align: 64, offset: 9728, baseType: !329)
!331 = !DIDerivedType(tag: DW_TAG_pointer_type, size: 64, align: 64, baseType: !314)
!332 = !DIDerivedType(tag: DW_TAG_member, file: !3, scope: !291, name: "_M_ctype", size: 64, align: 64, offset: 1920, baseType: !331)
!333 = !{ !335 }
!334 = !DICompositeType(tag: DW_TAG_structure_type, file: !3, name: "_ZSt7num_putIwSt19ostreambuf_iteratorIwSt11char_traitsIwEEE", size: 128, align: 64, elements: !333)
!335 = !DIDerivedType(tag: DW_TAG_member, file: !3, scope: !334, name: "__b_NSt6locale5facetE", size: 96, align: 64, baseType: !235)
!336 = !DIDerivedType(tag: DW_TAG_pointer_type, size: 64, align: 64, baseType: !334)
!337 = !DIDerivedType(tag: DW_TAG_member, file: !3, scope: !291, name: "_M_num_put", size: 64, align: 64, offset: 1984, baseType: !336)
!338 = !{ !340 }
!339 = !DICompositeType(tag: DW_TAG_structure_type, file: !3, name: "_ZSt7num_getIwSt19istreambuf_iteratorIwSt11char_traitsIwEEE", size: 128, align: 64, elements: !338)
!340 = !DIDerivedType(tag: DW_TAG_member, file: !3, scope: !339, name: "__b_NSt6locale5facetE", size: 96, align: 64, baseType: !235)
!341 = !DIDerivedType(tag: DW_TAG_pointer_type, size: 64, align: 64, baseType: !339)
!342 = !DIDerivedType(tag: DW_TAG_member, file: !3, scope: !291, name: "_M_num_get", size: 64, align: 64, offset: 2048, baseType: !341)
!343 = !DIDerivedType(tag: DW_TAG_member, file: !3, scope: !287, name: "__v_St9basic_iosIwSt11char_traitsIwEE", size: 2112, align: 64, offset: 128, baseType: !291)
!344 = !DIDerivedType(tag: DW_TAG_typedef, file: !3, scope: !11, name: "wistream", line: 1, size: 2240, align: 64, baseType: !287)
!345 = !DIDerivedType(tag: DW_TAG_typedef, file: !3, scope: !11, name: "wostream", line: 1, size: 2176, align: 64, baseType: !294)
!346 = !{  }
!347 = !DICompositeType(tag: DW_TAG_class_type, file: !3, scope: !11, name: "exception", line: 1, size: 64, align: 64, elements: !346, runtimeLang: DW_LANG_C_plus_plus)
!348 = !{ !350 }
!349 = !DICompositeType(tag: DW_TAG_class_type, file: !3, scope: !11, name: "bad_exception", line: 1, size: 64, align: 64, elements: !348, runtimeLang: DW_LANG_C_plus_plus)
!350 = !DIDerivedType(tag: DW_TAG_inheritance, file: !3, scope: !349, name: "exception", line: 1, size: 64, align: 64, baseType: !347)
!351 = !{ null }
!352 = !DISubroutineType(types: !351)
!353 = !DIDerivedType(tag: DW_TAG_pointer_type, size: 64, align: 64, baseType: !352)
!354 = !DIDerivedType(tag: DW_TAG_typedef, file: !3, scope: !11, name: "terminate_handler", line: 1, size: 64, align: 64, baseType: !353)
!355 = !DIDerivedType(tag: DW_TAG_typedef, file: !3, scope: !11, name: "unexpected_handler", line: 1, size: 64, align: 64, baseType: !353)
!356 = !{ !358 }
!357 = !DICompositeType(tag: DW_TAG_class_type, file: !3, scope: !11, name: "type_info", line: 1, size: 128, align: 64, elements: !356, runtimeLang: DW_LANG_C_plus_plus)
!358 = !DIDerivedType(tag: DW_TAG_member, file: !3, scope: !357, name: "__name", line: 1, size: 64, align: 64, offset: 64, baseType: !44)
!359 = !{ !361 }
!360 = !DICompositeType(tag: DW_TAG_class_type, file: !3, scope: !11, name: "bad_cast", line: 1, size: 64, align: 64, elements: !359, runtimeLang: DW_LANG_C_plus_plus)
!361 = !DIDerivedType(tag: DW_TAG_inheritance, file: !3, scope: !360, name: "exception", line: 1, size: 64, align: 64, baseType: !347)
!362 = !{ !364 }
!363 = !DICompositeType(tag: DW_TAG_class_type, file: !3, scope: !11, name: "bad_typeid", line: 1, size: 64, align: 64, elements: !362, runtimeLang: DW_LANG_C_plus_plus)
!364 = !DIDerivedType(tag: DW_TAG_inheritance, file: !3, scope: !363, name: "exception", line: 1, size: 64, align: 64, baseType: !347)
!365 = !{ !367 }
!366 = !DICompositeType(tag: DW_TAG_class_type, file: !3, scope: !11, name: "bad_alloc", line: 1, size: 64, align: 64, elements: !365, runtimeLang: DW_LANG_C_plus_plus)
!367 = !DIDerivedType(tag: DW_TAG_inheritance, file: !3, scope: !366, name: "exception", line: 1, size: 64, align: 64, baseType: !347)
!368 = !{ !370 }
!369 = !DICompositeType(tag: DW_TAG_class_type, file: !3, scope: !11, name: "bad_array_new_length", line: 1, size: 64, align: 64, elements: !368, runtimeLang: DW_LANG_C_plus_plus)
!370 = !DIDerivedType(tag: DW_TAG_inheritance, file: !3, scope: !369, name: "bad_alloc", line: 1, size: 64, align: 64, baseType: !366)
!371 = !{  }
!372 = !DICompositeType(tag: DW_TAG_structure_type, file: !3, scope: !11, name: "nothrow_t", line: 1, size: 8, align: 8, elements: !371, runtimeLang: DW_LANG_C_plus_plus)
!373 = !DIDerivedType(tag: DW_TAG_typedef, file: !3, scope: !11, name: "new_handler", line: 1, size: 64, align: 64, baseType: !353)
!374 = !{ !379 }
!375 = !DICompositeType(tag: DW_TAG_structure_type, file: !3, name: "_ZSt17integral_constantIbLb1EE", size: 8, align: 8, elements: !374)
!376 = !DISubrange(count: 0)
!377 = !{ !376 }
!378 = !DICompositeType(tag: DW_TAG_array_type, size: 8, align: 8, baseType: !43, elements: !377)
!379 = !DIDerivedType(tag: DW_TAG_member, file: !3, scope: !375, size: 8, align: 8, baseType: !378)
!380 = !DIDerivedType(tag: DW_TAG_typedef, file: !3, scope: !11, name: "true_type", line: 1, size: 8, align: 8, baseType: !375)
!381 = !{ !383 }
!382 = !DICompositeType(tag: DW_TAG_structure_type, file: !3, name: "_ZSt17integral_constantIbLb0EE", size: 8, align: 8, elements: !381)
!383 = !DIDerivedType(tag: DW_TAG_member, file: !3, scope: !382, size: 8, align: 8, baseType: !378)
!384 = !DIDerivedType(tag: DW_TAG_typedef, file: !3, scope: !11, name: "false_type", line: 1, size: 8, align: 8, baseType: !382)
!385 = !{  }
!386 = !DICompositeType(tag: DW_TAG_structure_type, file: !3, scope: !11, name: "__failure_type", line: 1, size: 8, align: 8, elements: !385, runtimeLang: DW_LANG_C_plus_plus)
!387 = !{  }
!388 = !DICompositeType(tag: DW_TAG_structure_type, file: !3, scope: !11, name: "__do_is_destructible_impl", line: 1, size: 8, align: 8, elements: !387, runtimeLang: DW_LANG_C_plus_plus)
!389 = !{  }
!390 = !DICompositeType(tag: DW_TAG_structure_type, file: !3, scope: !11, name: "__do_is_nt_destructible_impl", line: 1, size: 8, align: 8, elements: !389, runtimeLang: DW_LANG_C_plus_plus)
!391 = !{  }
!392 = !DICompositeType(tag: DW_TAG_structure_type, file: !3, scope: !11, name: "__do_is_implicitly_default_constructible_impl", line: 1, size: 8, align: 8, elements: !391, runtimeLang: DW_LANG_C_plus_plus)
!393 = !{  }
!394 = !DICompositeType(tag: DW_TAG_class_type, file: !3, scope: !11, name: "__make_unsigned_selector_base", line: 1, size: 8, align: 8, elements: !393, runtimeLang: DW_LANG_C_plus_plus)
!395 = !{  }
!396 = !DICompositeType(tag: DW_TAG_structure_type, file: !3, scope: !11, name: "__do_common_type_impl", line: 1, size: 8, align: 8, elements: !395, runtimeLang: DW_LANG_C_plus_plus)
!397 = !{  }
!398 = !DICompositeType(tag: DW_TAG_structure_type, file: !3, scope: !11, name: "__do_member_type_wrapper", line: 1, size: 8, align: 8, elements: !397, runtimeLang: DW_LANG_C_plus_plus)
!399 = !{  }
!400 = !DICompositeType(tag: DW_TAG_structure_type, file: !3, scope: !11, name: "__invoke_memfun_ref", line: 1, size: 8, align: 8, elements: !399, runtimeLang: DW_LANG_C_plus_plus)
!401 = !{  }
!402 = !DICompositeType(tag: DW_TAG_structure_type, file: !3, scope: !11, name: "__invoke_memfun_deref", line: 1, size: 8, align: 8, elements: !401, runtimeLang: DW_LANG_C_plus_plus)
!403 = !{  }
!404 = !DICompositeType(tag: DW_TAG_structure_type, file: !3, scope: !11, name: "__invoke_memobj_ref", line: 1, size: 8, align: 8, elements: !403, runtimeLang: DW_LANG_C_plus_plus)
!405 = !{  }
!406 = !DICompositeType(tag: DW_TAG_structure_type, file: !3, scope: !11, name: "__invoke_memobj_deref", line: 1, size: 8, align: 8, elements: !405, runtimeLang: DW_LANG_C_plus_plus)
!407 = !{  }
!408 = !DICompositeType(tag: DW_TAG_structure_type, file: !3, scope: !11, name: "__invoke_other", line: 1, size: 8, align: 8, elements: !407, runtimeLang: DW_LANG_C_plus_plus)
!409 = !{  }
!410 = !DICompositeType(tag: DW_TAG_structure_type, file: !3, scope: !11, name: "__result_of_memfun_ref_impl", line: 1, size: 8, align: 8, elements: !409, runtimeLang: DW_LANG_C_plus_plus)
!411 = !{  }
!412 = !DICompositeType(tag: DW_TAG_structure_type, file: !3, scope: !11, name: "__result_of_memfun_deref_impl", line: 1, size: 8, align: 8, elements: !411, runtimeLang: DW_LANG_C_plus_plus)
!413 = !{  }
!414 = !DICompositeType(tag: DW_TAG_structure_type, file: !3, scope: !11, name: "__result_of_memobj_ref_impl", line: 1, size: 8, align: 8, elements: !413, runtimeLang: DW_LANG_C_plus_plus)
!415 = !{  }
!416 = !DICompositeType(tag: DW_TAG_structure_type, file: !3, scope: !11, name: "__result_of_memobj_deref_impl", line: 1, size: 8, align: 8, elements: !415, runtimeLang: DW_LANG_C_plus_plus)
!417 = !{  }
!418 = !DICompositeType(tag: DW_TAG_structure_type, file: !3, scope: !11, name: "__result_of_other_impl", line: 1, size: 8, align: 8, elements: !417, runtimeLang: DW_LANG_C_plus_plus)
!419 = !{  }
!420 = !DICompositeType(tag: DW_TAG_structure_type, file: !3, scope: !11, name: "__nonesuch", line: 1, size: 8, align: 8, elements: !419, runtimeLang: DW_LANG_C_plus_plus)
!421 = !{ !423 }
!422 = !DICompositeType(tag: DW_TAG_class_type, file: !3, scope: !11, name: "nested_exception", line: 1, size: 128, align: 64, elements: !421, runtimeLang: DW_LANG_C_plus_plus)
!423 = !DIDerivedType(tag: DW_TAG_member, file: !3, scope: !422, name: "_M_ptr", line: 1, size: 64, align: 64, offset: 64, baseType: !15)
!424 = !{  }
!425 = !DICompositeType(tag: DW_TAG_structure_type, file: !3, scope: !11, name: "piecewise_construct_t", line: 1, size: 8, align: 8, elements: !424, runtimeLang: DW_LANG_C_plus_plus)
!426 = !{ !428 }
!427 = !DICompositeType(tag: DW_TAG_structure_type, file: !3, scope: !11, name: "__nonesuch_no_braces", line: 1, size: 8, align: 8, elements: !426, runtimeLang: DW_LANG_C_plus_plus)
!428 = !DIDerivedType(tag: DW_TAG_inheritance, file: !3, scope: !427, name: "__nonesuch", line: 1, size: 8, align: 8, baseType: !420)
!429 = !{  }
!430 = !DICompositeType(tag: DW_TAG_structure_type, file: !3, scope: !11, name: "input_iterator_tag", line: 1, size: 8, align: 8, elements: !429, runtimeLang: DW_LANG_C_plus_plus)
!431 = !{  }
!432 = !DICompositeType(tag: DW_TAG_structure_type, file: !3, scope: !11, name: "output_iterator_tag", line: 1, size: 8, align: 8, elements: !431, runtimeLang: DW_LANG_C_plus_plus)
!433 = !{ !435 }
!434 = !DICompositeType(tag: DW_TAG_structure_type, file: !3, scope: !11, name: "forward_iterator_tag", line: 1, size: 8, align: 8, elements: !433, runtimeLang: DW_LANG_C_plus_plus)
!435 = !DIDerivedType(tag: DW_TAG_inheritance, file: !3, scope: !434, name: "input_iterator_tag", line: 1, size: 8, align: 8, baseType: !430)
!436 = !{ !438 }
!437 = !DICompositeType(tag: DW_TAG_structure_type, file: !3, scope: !11, name: "bidirectional_iterator_tag", line: 1, size: 8, align: 8, elements: !436, runtimeLang: DW_LANG_C_plus_plus)
!438 = !DIDerivedType(tag: DW_TAG_inheritance, file: !3, scope: !437, name: "forward_iterator_tag", line: 1, size: 8, align: 8, baseType: !434)
!439 = !{ !441 }
!440 = !DICompositeType(tag: DW_TAG_structure_type, file: !3, scope: !11, name: "random_access_iterator_tag", line: 1, size: 8, align: 8, elements: !439, runtimeLang: DW_LANG_C_plus_plus)
!441 = !DIDerivedType(tag: DW_TAG_inheritance, file: !3, scope: !440, name: "bidirectional_iterator_tag", line: 1, size: 8, align: 8, baseType: !437)
!442 = !{  }
!443 = !DICompositeType(tag: DW_TAG_class_type, file: !3, scope: !11, name: "__undefined", line: 1, align: 8, elements: !442, runtimeLang: DW_LANG_C_plus_plus)
!444 = !{  }
!445 = !DICompositeType(tag: DW_TAG_structure_type, file: !3, scope: !11, name: "char_traits", line: 1, size: 8, align: 8, elements: !444, runtimeLang: DW_LANG_C_plus_plus)
!446 = !DIDerivedType(tag: DW_TAG_typedef, file: !3, scope: !445, name: "char_type", line: 1, size: 8, align: 8, baseType: !43)
!447 = !DIDerivedType(tag: DW_TAG_typedef, file: !3, scope: !445, name: "int_type", line: 1, size: 32, align: 32, baseType: !61)
!448 = !DIDerivedType(tag: DW_TAG_typedef, file: !3, scope: !445, name: "pos_type", line: 1, align: 8, baseType: !112)
!449 = !DIDerivedType(tag: DW_TAG_typedef, file: !3, scope: !445, name: "off_type", line: 1, size: 64, align: 64, baseType: !32)
!450 = !DIDerivedType(tag: DW_TAG_typedef, file: !3, scope: !11, name: "__c_locale", line: 1, size: 64, align: 64, baseType: !253)
!451 = !{  }
!452 = !DICompositeType(tag: DW_TAG_structure_type, file: !3, scope: !11, name: "__is_transparent", line: 1, align: 8, elements: !451, runtimeLang: DW_LANG_C_plus_plus)
!453 = !{  }
!454 = !DICompositeType(tag: DW_TAG_structure_type, file: !3, scope: !11, name: "__allocator_traits_base", line: 1, size: 8, align: 8, elements: !453, runtimeLang: DW_LANG_C_plus_plus)
!455 = !{  }
!456 = !DICompositeType(tag: DW_TAG_structure_type, file: !3, scope: !11, name: "_Hash_impl", line: 1, size: 8, align: 8, elements: !455, runtimeLang: DW_LANG_C_plus_plus)
!457 = !{  }
!458 = !DICompositeType(tag: DW_TAG_structure_type, file: !3, scope: !11, name: "_Fnv_hash_impl", line: 1, size: 8, align: 8, elements: !457, runtimeLang: DW_LANG_C_plus_plus)
!459 = !{ !461, !462, !463, !464, !465, !466, !467, !468, !469, !470, !471, !472, !473, !474, !475, !476, !477, !478, !479, !480, !481, !482, !483, !484, !485, !486, !487, !488, !489, !490, !491, !492, !493, !494, !495, !496, !497, !498, !499, !500, !501, !502, !503, !504, !505, !506, !507, !508, !509, !510, !511, !512, !513, !514, !515, !516, !517, !518, !519, !520, !521, !522, !523, !524, !525, !526, !527, !528, !529, !530, !531, !532, !533, !534, !535, !536, !537, !538 }
!460 = !DICompositeType(tag: DW_TAG_enumeration_type, file: !3, scope: !11, name: "errc", line: 1, size: 32, align: 32, elements: !459, runtimeLang: DW_LANG_C_plus_plus)
!461 = !DIEnumerator(name: "_ZNSt4errc19wrong_protocol_typeE", value: 91)
!462 = !DIEnumerator(name: "_ZNSt4errc15value_too_largeE", value: 75)
!463 = !DIEnumerator(name: "_ZNSt4errc29too_many_symbolic_link_levelsE", value: 40)
!464 = !DIEnumerator(name: "_ZNSt4errc14too_many_linksE", value: 31)
!465 = !DIEnumerator(name: "_ZNSt4errc19too_many_files_openE", value: 24)
!466 = !DIEnumerator(name: "_ZNSt4errc29too_many_files_open_in_systemE", value: 23)
!467 = !DIEnumerator(name: "_ZNSt4errc9timed_outE", value: 110)
!468 = !DIEnumerator(name: "_ZNSt4errc14text_file_busyE", value: 26)
!469 = !DIEnumerator(name: "_ZNSt4errc14stream_timeoutE", value: 62)
!470 = !DIEnumerator(name: "_ZNSt4errc21state_not_recoverableE", value: 131)
!471 = !DIEnumerator(name: "_ZNSt4errc19result_out_of_rangeE", value: 34)
!472 = !DIEnumerator(name: "_ZNSt4errc30resource_unavailable_try_againE", value: 11)
!473 = !DIEnumerator(name: "_ZNSt4errc29resource_deadlock_would_occurE", value: 35)
!474 = !DIEnumerator(name: "_ZNSt4errc21read_only_file_systemE", value: 30)
!475 = !DIEnumerator(name: "_ZNSt4errc22protocol_not_supportedE", value: 93)
!476 = !DIEnumerator(name: "_ZNSt4errc14protocol_errorE", value: 71)
!477 = !DIEnumerator(name: "_ZNSt4errc17permission_deniedE", value: 13)
!478 = !DIEnumerator(name: "_ZNSt4errc10owner_deadE", value: 130)
!479 = !DIEnumerator(name: "_ZNSt4errc21operation_would_blockE", value: 11)
!480 = !DIEnumerator(name: "_ZNSt4errc23operation_not_supportedE", value: 95)
!481 = !DIEnumerator(name: "_ZNSt4errc23operation_not_permittedE", value: 1)
!482 = !DIEnumerator(name: "_ZNSt4errc21operation_in_progressE", value: 115)
!483 = !DIEnumerator(name: "_ZNSt4errc18operation_canceledE", value: 125)
!484 = !DIEnumerator(name: "_ZNSt4errc13not_supportedE", value: 95)
!485 = !DIEnumerator(name: "_ZNSt4errc17not_enough_memoryE", value: 12)
!486 = !DIEnumerator(name: "_ZNSt4errc13not_connectedE", value: 107)
!487 = !DIEnumerator(name: "_ZNSt4errc12not_a_streamE", value: 60)
!488 = !DIEnumerator(name: "_ZNSt4errc12not_a_socketE", value: 88)
!489 = !DIEnumerator(name: "_ZNSt4errc15not_a_directoryE", value: 20)
!490 = !DIEnumerator(name: "_ZNSt4errc15no_such_processE", value: 3)
!491 = !DIEnumerator(name: "_ZNSt4errc25no_such_file_or_directoryE", value: 2)
!492 = !DIEnumerator(name: "_ZNSt4errc14no_such_deviceE", value: 19)
!493 = !DIEnumerator(name: "_ZNSt4errc25no_such_device_or_addressE", value: 6)
!494 = !DIEnumerator(name: "_ZNSt4errc19no_stream_resourcesE", value: 63)
!495 = !DIEnumerator(name: "_ZNSt4errc18no_space_on_deviceE", value: 28)
!496 = !DIEnumerator(name: "_ZNSt4errc18no_protocol_optionE", value: 92)
!497 = !DIEnumerator(name: "_ZNSt4errc10no_messageE", value: 42)
!498 = !DIEnumerator(name: "_ZNSt4errc20no_message_availableE", value: 61)
!499 = !DIEnumerator(name: "_ZNSt4errc17no_lock_availableE", value: 37)
!500 = !DIEnumerator(name: "_ZNSt4errc7no_linkE", value: 67)
!501 = !DIEnumerator(name: "_ZNSt4errc16no_child_processE", value: 10)
!502 = !DIEnumerator(name: "_ZNSt4errc15no_buffer_spaceE", value: 105)
!503 = !DIEnumerator(name: "_ZNSt4errc19network_unreachableE", value: 101)
!504 = !DIEnumerator(name: "_ZNSt4errc13network_resetE", value: 102)
!505 = !DIEnumerator(name: "_ZNSt4errc12network_downE", value: 100)
!506 = !DIEnumerator(name: "_ZNSt4errc12message_sizeE", value: 90)
!507 = !DIEnumerator(name: "_ZNSt4errc14is_a_directoryE", value: 21)
!508 = !DIEnumerator(name: "_ZNSt4errc8io_errorE", value: 5)
!509 = !DIEnumerator(name: "_ZNSt4errc12invalid_seekE", value: 29)
!510 = !DIEnumerator(name: "_ZNSt4errc16invalid_argumentE", value: 22)
!511 = !DIEnumerator(name: "_ZNSt4errc11interruptedE", value: 4)
!512 = !DIEnumerator(name: "_ZNSt4errc34inappropriate_io_control_operationE", value: 25)
!513 = !DIEnumerator(name: "_ZNSt4errc21illegal_byte_sequenceE", value: 84)
!514 = !DIEnumerator(name: "_ZNSt4errc18identifier_removedE", value: 43)
!515 = !DIEnumerator(name: "_ZNSt4errc16host_unreachableE", value: 113)
!516 = !DIEnumerator(name: "_ZNSt4errc22function_not_supportedE", value: 38)
!517 = !DIEnumerator(name: "_ZNSt4errc17filename_too_longE", value: 36)
!518 = !DIEnumerator(name: "_ZNSt4errc14file_too_largeE", value: 27)
!519 = !DIEnumerator(name: "_ZNSt4errc11file_existsE", value: 17)
!520 = !DIEnumerator(name: "_ZNSt4errc23executable_format_errorE", value: 8)
!521 = !DIEnumerator(name: "_ZNSt4errc19directory_not_emptyE", value: 39)
!522 = !DIEnumerator(name: "_ZNSt4errc23device_or_resource_busyE", value: 16)
!523 = !DIEnumerator(name: "_ZNSt4errc28destination_address_requiredE", value: 89)
!524 = !DIEnumerator(name: "_ZNSt4errc17cross_device_linkE", value: 18)
!525 = !DIEnumerator(name: "_ZNSt4errc16connection_resetE", value: 104)
!526 = !DIEnumerator(name: "_ZNSt4errc18connection_refusedE", value: 111)
!527 = !DIEnumerator(name: "_ZNSt4errc30connection_already_in_progressE", value: 114)
!528 = !DIEnumerator(name: "_ZNSt4errc18connection_abortedE", value: 103)
!529 = !DIEnumerator(name: "_ZNSt4errc11broken_pipeE", value: 32)
!530 = !DIEnumerator(name: "_ZNSt4errc11bad_messageE", value: 74)
!531 = !DIEnumerator(name: "_ZNSt4errc19bad_file_descriptorE", value: 9)
!532 = !DIEnumerator(name: "_ZNSt4errc11bad_addressE", value: 14)
!533 = !DIEnumerator(name: "_ZNSt4errc22argument_out_of_domainE", value: 33)
!534 = !DIEnumerator(name: "_ZNSt4errc22argument_list_too_longE", value: 7)
!535 = !DIEnumerator(name: "_ZNSt4errc17already_connectedE", value: 106)
!536 = !DIEnumerator(name: "_ZNSt4errc21address_not_availableE", value: 99)
!537 = !DIEnumerator(name: "_ZNSt4errc14address_in_useE", value: 98)
!538 = !DIEnumerator(name: "_ZNSt4errc28address_family_not_supportedE", value: 97)
!539 = !{ !546 }
!540 = !DICompositeType(tag: DW_TAG_structure_type, file: !3, scope: !11, name: "__cow_string", line: 1, size: 64, align: 64, elements: !539, runtimeLang: DW_LANG_C_plus_plus)
!541 = !{ !543, !545 }
!542 = !DICompositeType(tag: DW_TAG_union_type, file: !3, scope: !540, line: 1, size: 64, align: 64, elements: !541, runtimeLang: DW_LANG_C_plus_plus)
!543 = !DIDerivedType(tag: DW_TAG_member, file: !3, scope: !542, name: "_M_p", line: 1, size: 64, align: 64, baseType: !44)
!544 = !DICompositeType(tag: DW_TAG_array_type, size: 64, align: 8, baseType: !43, elements: !87)
!545 = !DIDerivedType(tag: DW_TAG_member, file: !3, scope: !542, name: "_M_bytes", line: 1, size: 64, align: 8, baseType: !544)
!546 = !DIDerivedType(tag: DW_TAG_member, file: !3, scope: !540, line: 1, size: 64, align: 64, baseType: !542)
!547 = !{ !549, !550 }
!548 = !DICompositeType(tag: DW_TAG_class_type, file: !3, scope: !11, name: "logic_error", line: 1, size: 128, align: 64, elements: !547, runtimeLang: DW_LANG_C_plus_plus)
!549 = !DIDerivedType(tag: DW_TAG_inheritance, file: !3, scope: !548, name: "exception", line: 1, size: 64, align: 64, baseType: !347)
!550 = !DIDerivedType(tag: DW_TAG_member, file: !3, scope: !548, name: "_M_msg", line: 1, size: 64, align: 64, offset: 64, baseType: !540)
!551 = !{ !553 }
!552 = !DICompositeType(tag: DW_TAG_class_type, file: !3, scope: !11, name: "domain_error", line: 1, size: 128, align: 64, elements: !551, runtimeLang: DW_LANG_C_plus_plus)
!553 = !DIDerivedType(tag: DW_TAG_inheritance, file: !3, scope: !552, name: "logic_error", line: 1, size: 128, align: 64, baseType: !548)
!554 = !{ !556 }
!555 = !DICompositeType(tag: DW_TAG_class_type, file: !3, scope: !11, name: "invalid_argument", line: 1, size: 128, align: 64, elements: !554, runtimeLang: DW_LANG_C_plus_plus)
!556 = !DIDerivedType(tag: DW_TAG_inheritance, file: !3, scope: !555, name: "logic_error", line: 1, size: 128, align: 64, baseType: !548)
!557 = !{ !559 }
!558 = !DICompositeType(tag: DW_TAG_class_type, file: !3, scope: !11, name: "length_error", line: 1, size: 128, align: 64, elements: !557, runtimeLang: DW_LANG_C_plus_plus)
!559 = !DIDerivedType(tag: DW_TAG_inheritance, file: !3, scope: !558, name: "logic_error", line: 1, size: 128, align: 64, baseType: !548)
!560 = !{ !562 }
!561 = !DICompositeType(tag: DW_TAG_class_type, file: !3, scope: !11, name: "out_of_range", line: 1, size: 128, align: 64, elements: !560, runtimeLang: DW_LANG_C_plus_plus)
!562 = !DIDerivedType(tag: DW_TAG_inheritance, file: !3, scope: !561, name: "logic_error", line: 1, size: 128, align: 64, baseType: !548)
!563 = !{ !565, !566 }
!564 = !DICompositeType(tag: DW_TAG_class_type, file: !3, scope: !11, name: "runtime_error", line: 1, size: 128, align: 64, elements: !563, runtimeLang: DW_LANG_C_plus_plus)
!565 = !DIDerivedType(tag: DW_TAG_inheritance, file: !3, scope: !564, name: "exception", line: 1, size: 64, align: 64, baseType: !347)
!566 = !DIDerivedType(tag: DW_TAG_member, file: !3, scope: !564, name: "_M_msg", line: 1, size: 64, align: 64, offset: 64, baseType: !540)
!567 = !{ !569 }
!568 = !DICompositeType(tag: DW_TAG_class_type, file: !3, scope: !11, name: "range_error", line: 1, size: 128, align: 64, elements: !567, runtimeLang: DW_LANG_C_plus_plus)
!569 = !DIDerivedType(tag: DW_TAG_inheritance, file: !3, scope: !568, name: "runtime_error", line: 1, size: 128, align: 64, baseType: !564)
!570 = !{ !572 }
!571 = !DICompositeType(tag: DW_TAG_class_type, file: !3, scope: !11, name: "overflow_error", line: 1, size: 128, align: 64, elements: !570, runtimeLang: DW_LANG_C_plus_plus)
!572 = !DIDerivedType(tag: DW_TAG_inheritance, file: !3, scope: !571, name: "runtime_error", line: 1, size: 128, align: 64, baseType: !564)
!573 = !{ !575 }
!574 = !DICompositeType(tag: DW_TAG_class_type, file: !3, scope: !11, name: "underflow_error", line: 1, size: 128, align: 64, elements: !573, runtimeLang: DW_LANG_C_plus_plus)
!575 = !DIDerivedType(tag: DW_TAG_inheritance, file: !3, scope: !574, name: "runtime_error", line: 1, size: 128, align: 64, baseType: !564)
!576 = !{ !578, !583 }
!577 = !DICompositeType(tag: DW_TAG_structure_type, file: !3, scope: !11, name: "error_code", line: 1, size: 128, align: 64, elements: !576, runtimeLang: DW_LANG_C_plus_plus)
!578 = !DIDerivedType(tag: DW_TAG_member, file: !3, scope: !577, name: "_M_value", line: 1, size: 32, align: 32, baseType: !61)
!579 = !{ !581 }
!580 = !DICompositeType(tag: DW_TAG_structure_type, file: !3, name: "_ZNSt3_V214error_categoryE", size: 64, align: 64, elements: !579)
!581 = !DIDerivedType(tag: DW_TAG_member, file: !3, scope: !580, name: "__vptr", size: 64, align: 64, baseType: !126)
!582 = !DIDerivedType(tag: DW_TAG_pointer_type, size: 64, align: 64, baseType: !580)
!583 = !DIDerivedType(tag: DW_TAG_member, file: !3, scope: !577, name: "_M_cat", line: 1, size: 64, align: 64, offset: 64, baseType: !582)
!584 = !{ !586, !587 }
!585 = !DICompositeType(tag: DW_TAG_structure_type, file: !3, scope: !11, name: "error_condition", line: 1, size: 128, align: 64, elements: !584, runtimeLang: DW_LANG_C_plus_plus)
!586 = !DIDerivedType(tag: DW_TAG_member, file: !3, scope: !585, name: "_M_value", line: 1, size: 32, align: 32, baseType: !61)
!587 = !DIDerivedType(tag: DW_TAG_member, file: !3, scope: !585, name: "_M_cat", line: 1, size: 64, align: 64, offset: 64, baseType: !582)
!588 = !{ !590, !591 }
!589 = !DICompositeType(tag: DW_TAG_class_type, file: !3, scope: !11, name: "system_error", line: 1, size: 256, align: 64, elements: !588, runtimeLang: DW_LANG_C_plus_plus)
!590 = !DIDerivedType(tag: DW_TAG_inheritance, file: !3, scope: !589, name: "runtime_error", line: 1, size: 128, align: 64, baseType: !564)
!591 = !DIDerivedType(tag: DW_TAG_member, file: !3, scope: !589, name: "_M_code", line: 1, size: 128, align: 64, offset: 128, baseType: !577)
!592 = !{ !594, !595, !596, !597, !598, !599, !600, !601, !602 }
!593 = !DICompositeType(tag: DW_TAG_enumeration_type, file: !3, scope: !11, name: "_Ios_Openmode", line: 1, size: 32, align: 32, elements: !592, runtimeLang: DW_LANG_C_plus_plus)
!594 = !DIEnumerator(name: "_S_app", value: 1)
!595 = !DIEnumerator(name: "_S_ate", value: 2)
!596 = !DIEnumerator(name: "_S_bin", value: 4)
!597 = !DIEnumerator(name: "_S_in", value: 8)
!598 = !DIEnumerator(name: "_S_out", value: 16)
!599 = !DIEnumerator(name: "_S_trunc", value: 32)
!600 = !DIEnumerator(name: "_S_ios_openmode_end", value: 65536)
!601 = !DIEnumerator(name: "_S_ios_openmode_max", value: 2147483647)
!602 = !DIEnumerator(name: "_S_ios_openmode_min", value: -2147483648)
!603 = !{ !605, !606, !607, !608 }
!604 = !DICompositeType(tag: DW_TAG_enumeration_type, file: !3, scope: !11, name: "_Ios_Seekdir", line: 1, size: 32, align: 32, elements: !603, runtimeLang: DW_LANG_C_plus_plus)
!605 = !DIEnumerator(name: "_S_beg", value: 0)
!606 = !DIEnumerator(name: "_S_cur", value: 1)
!607 = !DIEnumerator(name: "_S_end", value: 2)
!608 = !DIEnumerator(name: "_S_ios_seekdir_end", value: 65536)
!609 = !{ !611 }
!610 = !DICompositeType(tag: DW_TAG_enumeration_type, file: !3, scope: !11, name: "io_errc", line: 1, size: 32, align: 32, elements: !609, runtimeLang: DW_LANG_C_plus_plus)
!611 = !DIEnumerator(name: "_ZNSt7io_errc6streamE", value: 1)
!612 = !{  }
!613 = !DICompositeType(tag: DW_TAG_structure_type, file: !3, scope: !11, name: "ctype_base", line: 1, size: 8, align: 8, elements: !612, runtimeLang: DW_LANG_C_plus_plus)
!614 = !DIDerivedType(tag: DW_TAG_typedef, file: !3, scope: !613, name: "__to_type", line: 1, size: 64, align: 64, baseType: !62)
!615 = !DIDerivedType(tag: DW_TAG_typedef, file: !3, scope: !613, name: "mask", line: 1, size: 16, align: 16, baseType: !79)
!616 = !{  }
!617 = !DICompositeType(tag: DW_TAG_class_type, file: !3, scope: !11, name: "__num_base", line: 1, size: 8, align: 8, elements: !616, runtimeLang: DW_LANG_C_plus_plus)
!618 = !{ !620, !621, !622, !623, !624 }
!619 = !DICompositeType(tag: DW_TAG_enumeration_type, file: !3, scope: !11, name: "float_round_style", line: 1, size: 32, align: 32, elements: !618, runtimeLang: DW_LANG_C_plus_plus)
!620 = !DIEnumerator(name: "round_indeterminate", value: -1)
!621 = !DIEnumerator(name: "round_toward_zero", value: 0)
!622 = !DIEnumerator(name: "round_to_nearest", value: 1)
!623 = !DIEnumerator(name: "round_toward_infinity", value: 2)
!624 = !DIEnumerator(name: "round_toward_neg_infinity", value: 3)
!625 = !{ !627, !628, !629 }
!626 = !DICompositeType(tag: DW_TAG_enumeration_type, file: !3, scope: !11, name: "float_denorm_style", line: 1, size: 32, align: 32, elements: !625, runtimeLang: DW_LANG_C_plus_plus)
!627 = !DIEnumerator(name: "denorm_indeterminate", value: -1)
!628 = !DIEnumerator(name: "denorm_absent", value: 0)
!629 = !DIEnumerator(name: "denorm_present", value: 1)
!630 = !{  }
!631 = !DICompositeType(tag: DW_TAG_structure_type, file: !3, scope: !11, name: "__numeric_limits_base", line: 1, size: 8, align: 8, elements: !630, runtimeLang: DW_LANG_C_plus_plus)
!632 = !DIDerivedType(tag: DW_TAG_typedef, file: !3, scope: !11, name: "_Bit_type", line: 1, size: 64, align: 64, baseType: !30)
!633 = !{ !636, !637 }
!634 = !DICompositeType(tag: DW_TAG_structure_type, file: !3, scope: !11, name: "_Bit_reference", line: 1, size: 128, align: 64, elements: !633, runtimeLang: DW_LANG_C_plus_plus)
!635 = !DIDerivedType(tag: DW_TAG_pointer_type, size: 64, align: 64, baseType: !30)
!636 = !DIDerivedType(tag: DW_TAG_member, file: !3, scope: !634, name: "_M_p", line: 1, size: 64, align: 64, baseType: !635)
!637 = !DIDerivedType(tag: DW_TAG_member, file: !3, scope: !634, name: "_M_mask", line: 1, size: 64, align: 64, offset: 64, baseType: !30)
!638 = !{ !640, !641 }
!639 = !DICompositeType(tag: DW_TAG_structure_type, file: !3, scope: !11, name: "_Bit_iterator_base", line: 1, size: 128, align: 64, elements: !638, runtimeLang: DW_LANG_C_plus_plus)
!640 = !DIDerivedType(tag: DW_TAG_member, file: !3, scope: !639, name: "_M_p", line: 1, size: 64, align: 64, baseType: !635)
!641 = !DIDerivedType(tag: DW_TAG_member, file: !3, scope: !639, name: "_M_offset", line: 1, size: 32, align: 32, offset: 64, baseType: !97)
!642 = !{ !646 }
!643 = !DICompositeType(tag: DW_TAG_structure_type, file: !3, scope: !11, name: "_Bit_iterator", line: 1, size: 128, align: 64, elements: !642, runtimeLang: DW_LANG_C_plus_plus)
!644 = !DIDerivedType(tag: DW_TAG_typedef, file: !3, scope: !643, name: "reference", line: 1, size: 128, align: 64, baseType: !634)
!645 = !DIDerivedType(tag: DW_TAG_typedef, file: !3, scope: !643, name: "iterator", line: 1, size: 128, align: 64, baseType: !643)
!646 = !DIDerivedType(tag: DW_TAG_inheritance, file: !3, scope: !643, name: "_Bit_iterator_base", line: 1, size: 128, align: 64, baseType: !639)
!647 = !{ !652 }
!648 = !DICompositeType(tag: DW_TAG_structure_type, file: !3, scope: !11, name: "_Bit_const_iterator", line: 1, size: 128, align: 64, elements: !647, runtimeLang: DW_LANG_C_plus_plus)
!649 = !DIDerivedType(tag: DW_TAG_typedef, file: !3, scope: !648, name: "reference", line: 1, size: 8, align: 8, baseType: !43)
!650 = !DIDerivedType(tag: DW_TAG_typedef, file: !3, scope: !648, name: "const_reference", line: 1, size: 8, align: 8, baseType: !43)
!651 = !DIDerivedType(tag: DW_TAG_typedef, file: !3, scope: !648, name: "const_iterator", line: 1, size: 128, align: 64, baseType: !648)
!652 = !DIDerivedType(tag: DW_TAG_inheritance, file: !3, scope: !648, name: "_Bit_iterator_base", line: 1, size: 128, align: 64, baseType: !639)
!653 = !DINamespace(scope: !10, name: "__cxxabiv1")
!654 = !{  }
!655 = !DICompositeType(tag: DW_TAG_structure_type, file: !3, scope: !653, name: "__cxa_refcounted_exception", line: 1, align: 8, elements: !654, runtimeLang: DW_LANG_C_plus_plus)
!656 = !{  }
!657 = !DICompositeType(tag: DW_TAG_class_type, file: !3, scope: !653, name: "__class_type_info", line: 1, align: 8, elements: !656, runtimeLang: DW_LANG_C_plus_plus)
!658 = !{  }
!659 = !DICompositeType(tag: DW_TAG_class_type, file: !3, scope: !653, name: "__forced_unwind", line: 1, size: 64, align: 64, elements: !658, runtimeLang: DW_LANG_C_plus_plus)
!660 = !DINamespace(scope: !10, name: "__gnu_cxx")
!661 = !{  }
!662 = !DICompositeType(tag: DW_TAG_structure_type, file: !3, scope: !10, line: 1, size: 128, align: 64, elements: !661, runtimeLang: DW_LANG_C_plus_plus)
!663 = !{  }
!664 = !DICompositeType(tag: DW_TAG_structure_type, file: !3, scope: !10, name: "__class_type_info", line: 1, size: 128, align: 64, elements: !663, runtimeLang: DW_LANG_C_plus_plus)
!665 = !{  }
!666 = !DICompositeType(tag: DW_TAG_structure_type, file: !3, scope: !10, name: "__EDG_type_info", line: 1, size: 128, align: 64, elements: !665, runtimeLang: DW_LANG_C_plus_plus)
!667 = !{  }
!668 = !DICompositeType(tag: DW_TAG_structure_type, file: !3, scope: !10, name: "__pbase_type_info", line: 1, size: 256, align: 64, elements: !667, runtimeLang: DW_LANG_C_plus_plus)
!669 = !{  }
!670 = !DICompositeType(tag: DW_TAG_structure_type, file: !3, scope: !10, name: "__pointer_to_member_type_info", line: 1, size: 320, align: 64, elements: !669, runtimeLang: DW_LANG_C_plus_plus)
!671 = !{  }
!672 = !DICompositeType(tag: DW_TAG_structure_type, file: !3, scope: !10, name: "__pointer_type_info", line: 1, size: 256, align: 64, elements: !671, runtimeLang: DW_LANG_C_plus_plus)
!673 = !{  }
!674 = !DICompositeType(tag: DW_TAG_structure_type, file: !3, scope: !10, name: "__vmi_class_type_info", line: 1, size: 448, align: 64, elements: !673, runtimeLang: DW_LANG_C_plus_plus)
!675 = !{  }
!676 = !DICompositeType(tag: DW_TAG_structure_type, file: !3, scope: !10, name: "__si_class_type_info", line: 1, size: 192, align: 64, elements: !675, runtimeLang: DW_LANG_C_plus_plus)
!677 = !{  }
!678 = !DICompositeType(tag: DW_TAG_structure_type, file: !3, scope: !10, name: "__function_type_info", line: 1, size: 128, align: 64, elements: !677, runtimeLang: DW_LANG_C_plus_plus)
!679 = !{  }
!680 = !DICompositeType(tag: DW_TAG_structure_type, file: !3, scope: !10, name: "__array_type_info", line: 1, size: 128, align: 64, elements: !679, runtimeLang: DW_LANG_C_plus_plus)
!681 = !{  }
!682 = !DICompositeType(tag: DW_TAG_structure_type, file: !3, scope: !10, name: "__enum_type_info", line: 1, size: 128, align: 64, elements: !681, runtimeLang: DW_LANG_C_plus_plus)
!683 = !{  }
!684 = !DICompositeType(tag: DW_TAG_structure_type, file: !3, scope: !10, name: "__fundamental_type_info", line: 1, size: 128, align: 64, elements: !683, runtimeLang: DW_LANG_C_plus_plus)
!685 = !DIBasicType(tag: DW_TAG_base_type, name: "__float128", size: 128, align: 128, encoding: DW_ATE_float)
!686 = !DIDerivedType(tag: DW_TAG_typedef, file: !3, scope: !10, name: "__float128", line: 1, size: 128, align: 128, baseType: !685)
!687 = !{ !689, !690, !691, !692 }
!688 = !DICompositeType(tag: DW_TAG_structure_type, file: !3, scope: !10, name: "__va_list_tag", line: 1, size: 192, align: 64, elements: !687, runtimeLang: DW_LANG_C_plus_plus)
!689 = !DIDerivedType(tag: DW_TAG_member, file: !3, scope: !688, name: "gp_offset", line: 1, size: 32, align: 32, baseType: !97)
!690 = !DIDerivedType(tag: DW_TAG_member, file: !3, scope: !688, name: "fp_offset", line: 1, size: 32, align: 32, offset: 32, baseType: !97)
!691 = !DIDerivedType(tag: DW_TAG_member, file: !3, scope: !688, name: "overflow_arg_area", line: 1, size: 64, align: 64, offset: 64, baseType: !44)
!692 = !DIDerivedType(tag: DW_TAG_member, file: !3, scope: !688, name: "reg_save_area", line: 1, size: 64, align: 64, offset: 128, baseType: !44)
!693 = !DICompositeType(tag: DW_TAG_array_type, size: 192, align: 64, baseType: !688, elements: !377)
!694 = !DIDerivedType(tag: DW_TAG_typedef, file: !3, scope: !10, name: "__pgi_va_list", line: 1, size: 192, align: 64, baseType: !693)
!695 = !DIDerivedType(tag: DW_TAG_typedef, file: !3, scope: !10, name: "__locale_t", line: 1, size: 64, align: 64, baseType: !253)
!696 = !DIDerivedType(tag: DW_TAG_typedef, file: !3, scope: !10, name: "locale_t", line: 1, size: 64, align: 64, baseType: !253)
!697 = !{ !699, !700, !701 }
!698 = !DICompositeType(tag: DW_TAG_enumeration_type, file: !3, scope: !10, name: "idtype_t", line: 1, size: 32, align: 32, elements: !697, runtimeLang: DW_LANG_C_plus_plus)
!699 = !DIEnumerator(name: "P_ALL", value: 0)
!700 = !DIEnumerator(name: "P_PID", value: 1)
!701 = !DIEnumerator(name: "P_PGID", value: 2)
!702 = !DIDerivedType(tag: DW_TAG_typedef, file: !3, scope: !10, name: "_Float128", line: 1, size: 128, align: 128, baseType: !685)
!703 = !DIBasicType(tag: DW_TAG_base_type, name: "float", size: 32, align: 32, encoding: DW_ATE_float)
!704 = !DIDerivedType(tag: DW_TAG_typedef, file: !3, scope: !10, name: "_Float32", line: 1, size: 32, align: 32, baseType: !703)
!705 = !DIBasicType(tag: DW_TAG_base_type, name: "double", size: 64, align: 64, encoding: DW_ATE_float)
!706 = !DIDerivedType(tag: DW_TAG_typedef, file: !3, scope: !10, name: "_Float64", line: 1, size: 64, align: 64, baseType: !705)
!707 = !DIDerivedType(tag: DW_TAG_typedef, file: !3, scope: !10, name: "_Float32x", line: 1, size: 64, align: 64, baseType: !705)
!708 = !DIBasicType(tag: DW_TAG_base_type, name: "80-bit extended precision", size: 128, align: 128, encoding: DW_ATE_signed)
!709 = !DIDerivedType(tag: DW_TAG_typedef, file: !3, scope: !10, name: "_Float64x", line: 1, size: 128, align: 128, baseType: !708)
!710 = !{ !712, !713 }
!711 = !DICompositeType(tag: DW_TAG_structure_type, file: !3, scope: !10, name: "div_t", line: 1, size: 64, align: 32, elements: !710, runtimeLang: DW_LANG_C_plus_plus)
!712 = !DIDerivedType(tag: DW_TAG_member, file: !3, scope: !711, name: "quot", line: 1, size: 32, align: 32, baseType: !61)
!713 = !DIDerivedType(tag: DW_TAG_member, file: !3, scope: !711, name: "rem", line: 1, size: 32, align: 32, offset: 32, baseType: !61)
!714 = !DIDerivedType(tag: DW_TAG_typedef, file: !3, scope: !10, name: "div_t", line: 1, size: 64, align: 32, baseType: !711)
!715 = !{ !717, !718 }
!716 = !DICompositeType(tag: DW_TAG_structure_type, file: !3, scope: !10, name: "ldiv_t", line: 1, size: 128, align: 64, elements: !715, runtimeLang: DW_LANG_C_plus_plus)
!717 = !DIDerivedType(tag: DW_TAG_member, file: !3, scope: !716, name: "quot", line: 1, size: 64, align: 64, baseType: !32)
!718 = !DIDerivedType(tag: DW_TAG_member, file: !3, scope: !716, name: "rem", line: 1, size: 64, align: 64, offset: 64, baseType: !32)
!719 = !DIDerivedType(tag: DW_TAG_typedef, file: !3, scope: !10, name: "ldiv_t", line: 1, size: 128, align: 64, baseType: !716)
!720 = !{ !723, !724 }
!721 = !DICompositeType(tag: DW_TAG_structure_type, file: !3, scope: !10, name: "lldiv_t", line: 1, size: 128, align: 64, elements: !720, runtimeLang: DW_LANG_C_plus_plus)
!722 = !DIBasicType(tag: DW_TAG_base_type, name: "long long", size: 64, align: 64, encoding: DW_ATE_signed)
!723 = !DIDerivedType(tag: DW_TAG_member, file: !3, scope: !721, name: "quot", line: 1, size: 64, align: 64, baseType: !722)
!724 = !DIDerivedType(tag: DW_TAG_member, file: !3, scope: !721, name: "rem", line: 1, size: 64, align: 64, offset: 64, baseType: !722)
!725 = !DIDerivedType(tag: DW_TAG_typedef, file: !3, scope: !10, name: "lldiv_t", line: 1, size: 128, align: 64, baseType: !721)
!726 = !DIBasicType(tag: DW_TAG_base_type, name: "unsigned char", size: 8, align: 8, encoding: DW_ATE_unsigned_char)
!727 = !DIDerivedType(tag: DW_TAG_typedef, file: !3, scope: !10, name: "__u_char", line: 1, size: 8, align: 8, baseType: !726)
!728 = !DIDerivedType(tag: DW_TAG_typedef, file: !3, scope: !10, name: "__u_short", line: 1, size: 16, align: 16, baseType: !79)
!729 = !DIDerivedType(tag: DW_TAG_typedef, file: !3, scope: !10, name: "__u_int", line: 1, size: 32, align: 32, baseType: !97)
!730 = !DIDerivedType(tag: DW_TAG_typedef, file: !3, scope: !10, name: "__u_long", line: 1, size: 64, align: 64, baseType: !30)
!731 = !DIDerivedType(tag: DW_TAG_typedef, file: !3, scope: !10, name: "__int8_t", line: 1, size: 8, align: 8, baseType: !43)
!732 = !DIDerivedType(tag: DW_TAG_typedef, file: !3, scope: !10, name: "__uint8_t", line: 1, size: 8, align: 8, baseType: !726)
!733 = !DIBasicType(tag: DW_TAG_base_type, name: "short", size: 16, align: 16, encoding: DW_ATE_signed)
!734 = !DIDerivedType(tag: DW_TAG_typedef, file: !3, scope: !10, name: "__int16_t", line: 1, size: 16, align: 16, baseType: !733)
!735 = !DIDerivedType(tag: DW_TAG_typedef, file: !3, scope: !10, name: "__uint16_t", line: 1, size: 16, align: 16, baseType: !79)
!736 = !DIDerivedType(tag: DW_TAG_typedef, file: !3, scope: !10, name: "__int32_t", line: 1, size: 32, align: 32, baseType: !61)
!737 = !DIDerivedType(tag: DW_TAG_typedef, file: !3, scope: !10, name: "__uint32_t", line: 1, size: 32, align: 32, baseType: !97)
!738 = !DIDerivedType(tag: DW_TAG_typedef, file: !3, scope: !10, name: "__int64_t", line: 1, size: 64, align: 64, baseType: !32)
!739 = !DIDerivedType(tag: DW_TAG_typedef, file: !3, scope: !10, name: "__uint64_t", line: 1, size: 64, align: 64, baseType: !30)
!740 = !DIDerivedType(tag: DW_TAG_typedef, file: !3, scope: !10, name: "__int_least8_t", line: 1, size: 8, align: 8, baseType: !43)
!741 = !DIDerivedType(tag: DW_TAG_typedef, file: !3, scope: !10, name: "__uint_least8_t", line: 1, size: 8, align: 8, baseType: !726)
!742 = !DIDerivedType(tag: DW_TAG_typedef, file: !3, scope: !10, name: "__int_least16_t", line: 1, size: 16, align: 16, baseType: !733)
!743 = !DIDerivedType(tag: DW_TAG_typedef, file: !3, scope: !10, name: "__uint_least16_t", line: 1, size: 16, align: 16, baseType: !79)
!744 = !DIDerivedType(tag: DW_TAG_typedef, file: !3, scope: !10, name: "__int_least32_t", line: 1, size: 32, align: 32, baseType: !61)
!745 = !DIDerivedType(tag: DW_TAG_typedef, file: !3, scope: !10, name: "__uint_least32_t", line: 1, size: 32, align: 32, baseType: !97)
!746 = !DIDerivedType(tag: DW_TAG_typedef, file: !3, scope: !10, name: "__int_least64_t", line: 1, size: 64, align: 64, baseType: !32)
!747 = !DIDerivedType(tag: DW_TAG_typedef, file: !3, scope: !10, name: "__uint_least64_t", line: 1, size: 64, align: 64, baseType: !30)
!748 = !DIDerivedType(tag: DW_TAG_typedef, file: !3, scope: !10, name: "__quad_t", line: 1, size: 64, align: 64, baseType: !32)
!749 = !DIDerivedType(tag: DW_TAG_typedef, file: !3, scope: !10, name: "__u_quad_t", line: 1, size: 64, align: 64, baseType: !30)
!750 = !DIDerivedType(tag: DW_TAG_typedef, file: !3, scope: !10, name: "__intmax_t", line: 1, size: 64, align: 64, baseType: !32)
!751 = !DIDerivedType(tag: DW_TAG_typedef, file: !3, scope: !10, name: "__uintmax_t", line: 1, size: 64, align: 64, baseType: !30)
!752 = !DIDerivedType(tag: DW_TAG_typedef, file: !3, scope: !10, name: "__dev_t", line: 1, size: 64, align: 64, baseType: !30)
!753 = !DIDerivedType(tag: DW_TAG_typedef, file: !3, scope: !10, name: "__uid_t", line: 1, size: 32, align: 32, baseType: !97)
!754 = !DIDerivedType(tag: DW_TAG_typedef, file: !3, scope: !10, name: "__gid_t", line: 1, size: 32, align: 32, baseType: !97)
!755 = !DIDerivedType(tag: DW_TAG_typedef, file: !3, scope: !10, name: "__ino_t", line: 1, size: 64, align: 64, baseType: !30)
!756 = !DIDerivedType(tag: DW_TAG_typedef, file: !3, scope: !10, name: "__ino64_t", line: 1, size: 64, align: 64, baseType: !30)
!757 = !DIDerivedType(tag: DW_TAG_typedef, file: !3, scope: !10, name: "__mode_t", line: 1, size: 32, align: 32, baseType: !97)
!758 = !DIDerivedType(tag: DW_TAG_typedef, file: !3, scope: !10, name: "__nlink_t", line: 1, size: 64, align: 64, baseType: !30)
!759 = !DIDerivedType(tag: DW_TAG_typedef, file: !3, scope: !10, name: "__off_t", line: 1, size: 64, align: 64, baseType: !32)
!760 = !DIDerivedType(tag: DW_TAG_typedef, file: !3, scope: !10, name: "__pid_t", line: 1, size: 32, align: 32, baseType: !61)
!761 = !{ !766 }
!762 = !DICompositeType(tag: DW_TAG_structure_type, file: !3, scope: !10, name: "__fsid_t", line: 1, size: 64, align: 32, elements: !761, runtimeLang: DW_LANG_C_plus_plus)
!763 = !DISubrange(count: 2)
!764 = !{ !763 }
!765 = !DICompositeType(tag: DW_TAG_array_type, size: 64, align: 32, baseType: !61, elements: !764)
!766 = !DIDerivedType(tag: DW_TAG_member, file: !3, scope: !762, name: "__val", line: 1, size: 64, align: 32, baseType: !765)
!767 = !DIDerivedType(tag: DW_TAG_typedef, file: !3, scope: !10, name: "__fsid_t", line: 1, size: 64, align: 32, baseType: !762)
!768 = !DIDerivedType(tag: DW_TAG_typedef, file: !3, scope: !10, name: "__clock_t", line: 1, size: 64, align: 64, baseType: !32)
!769 = !DIDerivedType(tag: DW_TAG_typedef, file: !3, scope: !10, name: "__rlim_t", line: 1, size: 64, align: 64, baseType: !30)
!770 = !DIDerivedType(tag: DW_TAG_typedef, file: !3, scope: !10, name: "__rlim64_t", line: 1, size: 64, align: 64, baseType: !30)
!771 = !DIDerivedType(tag: DW_TAG_typedef, file: !3, scope: !10, name: "__id_t", line: 1, size: 32, align: 32, baseType: !97)
!772 = !DIDerivedType(tag: DW_TAG_typedef, file: !3, scope: !10, name: "__time_t", line: 1, size: 64, align: 64, baseType: !32)
!773 = !DIDerivedType(tag: DW_TAG_typedef, file: !3, scope: !10, name: "__useconds_t", line: 1, size: 32, align: 32, baseType: !97)
!774 = !DIDerivedType(tag: DW_TAG_typedef, file: !3, scope: !10, name: "__suseconds_t", line: 1, size: 64, align: 64, baseType: !32)
!775 = !DIDerivedType(tag: DW_TAG_typedef, file: !3, scope: !10, name: "__daddr_t", line: 1, size: 32, align: 32, baseType: !61)
!776 = !DIDerivedType(tag: DW_TAG_typedef, file: !3, scope: !10, name: "__key_t", line: 1, size: 32, align: 32, baseType: !61)
!777 = !DIDerivedType(tag: DW_TAG_typedef, file: !3, scope: !10, name: "__clockid_t", line: 1, size: 32, align: 32, baseType: !61)
!778 = !DIDerivedType(tag: DW_TAG_typedef, file: !3, scope: !10, name: "__timer_t", line: 1, size: 64, align: 64, baseType: !17)
!779 = !DIDerivedType(tag: DW_TAG_typedef, file: !3, scope: !10, name: "__blksize_t", line: 1, size: 64, align: 64, baseType: !32)
!780 = !DIDerivedType(tag: DW_TAG_typedef, file: !3, scope: !10, name: "__blkcnt_t", line: 1, size: 64, align: 64, baseType: !32)
!781 = !DIDerivedType(tag: DW_TAG_typedef, file: !3, scope: !10, name: "__blkcnt64_t", line: 1, size: 64, align: 64, baseType: !32)
!782 = !DIDerivedType(tag: DW_TAG_typedef, file: !3, scope: !10, name: "__fsblkcnt_t", line: 1, size: 64, align: 64, baseType: !30)
!783 = !DIDerivedType(tag: DW_TAG_typedef, file: !3, scope: !10, name: "__fsblkcnt64_t", line: 1, size: 64, align: 64, baseType: !30)
!784 = !DIDerivedType(tag: DW_TAG_typedef, file: !3, scope: !10, name: "__fsfilcnt_t", line: 1, size: 64, align: 64, baseType: !30)
!785 = !DIDerivedType(tag: DW_TAG_typedef, file: !3, scope: !10, name: "__fsfilcnt64_t", line: 1, size: 64, align: 64, baseType: !30)
!786 = !DIDerivedType(tag: DW_TAG_typedef, file: !3, scope: !10, name: "__fsword_t", line: 1, size: 64, align: 64, baseType: !32)
!787 = !DIDerivedType(tag: DW_TAG_typedef, file: !3, scope: !10, name: "__syscall_slong_t", line: 1, size: 64, align: 64, baseType: !32)
!788 = !DIDerivedType(tag: DW_TAG_typedef, file: !3, scope: !10, name: "__syscall_ulong_t", line: 1, size: 64, align: 64, baseType: !30)
!789 = !DIDerivedType(tag: DW_TAG_typedef, file: !3, scope: !10, name: "__loff_t", line: 1, size: 64, align: 64, baseType: !32)
!790 = !DIDerivedType(tag: DW_TAG_typedef, file: !3, scope: !10, name: "__caddr_t", line: 1, size: 64, align: 64, baseType: !44)
!791 = !DIDerivedType(tag: DW_TAG_typedef, file: !3, scope: !10, name: "__intptr_t", line: 1, size: 64, align: 64, baseType: !32)
!792 = !DIDerivedType(tag: DW_TAG_typedef, file: !3, scope: !10, name: "__socklen_t", line: 1, size: 32, align: 32, baseType: !97)
!793 = !DIDerivedType(tag: DW_TAG_typedef, file: !3, scope: !10, name: "__sig_atomic_t", line: 1, size: 32, align: 32, baseType: !61)
!794 = !DIDerivedType(tag: DW_TAG_typedef, file: !3, scope: !10, name: "pid_t", line: 1, size: 32, align: 32, baseType: !61)
!795 = !DIDerivedType(tag: DW_TAG_typedef, file: !3, scope: !10, name: "clock_t", line: 1, size: 64, align: 64, baseType: !32)
!796 = !DIDerivedType(tag: DW_TAG_typedef, file: !3, scope: !10, name: "clockid_t", line: 1, size: 32, align: 32, baseType: !61)
!797 = !DIDerivedType(tag: DW_TAG_typedef, file: !3, scope: !10, name: "time_t", line: 1, size: 64, align: 64, baseType: !32)
!798 = !DIDerivedType(tag: DW_TAG_typedef, file: !3, scope: !10, name: "timer_t", line: 1, size: 64, align: 64, baseType: !17)
!799 = !DIDerivedType(tag: DW_TAG_typedef, file: !3, scope: !10, name: "ulong", line: 1, size: 64, align: 64, baseType: !30)
!800 = !DIDerivedType(tag: DW_TAG_typedef, file: !3, scope: !10, name: "uint", line: 1, size: 32, align: 32, baseType: !97)
!801 = !DIDerivedType(tag: DW_TAG_typedef, file: !3, scope: !10, name: "int32_t", line: 1, size: 32, align: 32, baseType: !61)
!802 = !DIDerivedType(tag: DW_TAG_typedef, file: !3, scope: !10, name: "register_t", line: 1, size: 64, align: 64, baseType: !32)
!803 = !{ !805 }
!804 = !DICompositeType(tag: DW_TAG_structure_type, file: !3, scope: !10, name: "__sigset_t", line: 1, size: 1024, align: 64, elements: !803, runtimeLang: DW_LANG_C_plus_plus)
!805 = !DIDerivedType(tag: DW_TAG_member, file: !3, scope: !804, name: "__val", line: 1, size: 1024, align: 64, baseType: !329)
!806 = !DIDerivedType(tag: DW_TAG_typedef, file: !3, scope: !10, name: "__sigset_t", line: 1, size: 1024, align: 64, baseType: !804)
!807 = !{ !809, !810 }
!808 = !DICompositeType(tag: DW_TAG_structure_type, file: !3, scope: !10, name: "timeval", line: 1, size: 128, align: 64, elements: !807, runtimeLang: DW_LANG_C_plus_plus)
!809 = !DIDerivedType(tag: DW_TAG_member, file: !3, scope: !808, name: "tv_sec", line: 1, size: 64, align: 64, baseType: !32)
!810 = !DIDerivedType(tag: DW_TAG_member, file: !3, scope: !808, name: "tv_usec", line: 1, size: 64, align: 64, offset: 64, baseType: !32)
!811 = !{ !813, !814 }
!812 = !DICompositeType(tag: DW_TAG_structure_type, file: !3, scope: !10, name: "timespec", line: 1, size: 128, align: 64, elements: !811, runtimeLang: DW_LANG_C_plus_plus)
!813 = !DIDerivedType(tag: DW_TAG_member, file: !3, scope: !812, name: "tv_sec", line: 1, size: 64, align: 64, baseType: !32)
!814 = !DIDerivedType(tag: DW_TAG_member, file: !3, scope: !812, name: "tv_nsec", line: 1, size: 64, align: 64, offset: 64, baseType: !32)
!815 = !DIDerivedType(tag: DW_TAG_typedef, file: !3, scope: !10, name: "__fd_mask", line: 1, size: 64, align: 64, baseType: !32)
!816 = !{ !819 }
!817 = !DICompositeType(tag: DW_TAG_structure_type, file: !3, scope: !10, name: "fd_set", line: 1, size: 1024, align: 64, elements: !816, runtimeLang: DW_LANG_C_plus_plus)
!818 = !DICompositeType(tag: DW_TAG_array_type, size: 1024, align: 64, baseType: !32, elements: !51)
!819 = !DIDerivedType(tag: DW_TAG_member, file: !3, scope: !817, name: "fds_bits", line: 1, size: 1024, align: 64, baseType: !818)
!820 = !DIDerivedType(tag: DW_TAG_typedef, file: !3, scope: !10, name: "fd_set", line: 1, size: 1024, align: 64, baseType: !817)
!821 = !{ !824, !825 }
!822 = !DICompositeType(tag: DW_TAG_structure_type, file: !3, scope: !10, name: "__pthread_internal_list", line: 1, size: 128, align: 64, elements: !821, runtimeLang: DW_LANG_C_plus_plus)
!823 = !DIDerivedType(tag: DW_TAG_pointer_type, size: 64, align: 64, baseType: !822)
!824 = !DIDerivedType(tag: DW_TAG_member, file: !3, scope: !822, name: "__prev", line: 1, size: 64, align: 64, baseType: !823)
!825 = !DIDerivedType(tag: DW_TAG_member, file: !3, scope: !822, name: "__next", line: 1, size: 64, align: 64, offset: 64, baseType: !823)
!826 = !DIDerivedType(tag: DW_TAG_typedef, file: !3, scope: !10, name: "__pthread_list_t", line: 1, size: 128, align: 64, baseType: !822)
!827 = !{ !830 }
!828 = !DICompositeType(tag: DW_TAG_structure_type, file: !3, scope: !10, name: "__pthread_internal_slist", line: 1, size: 64, align: 64, elements: !827, runtimeLang: DW_LANG_C_plus_plus)
!829 = !DIDerivedType(tag: DW_TAG_pointer_type, size: 64, align: 64, baseType: !828)
!830 = !DIDerivedType(tag: DW_TAG_member, file: !3, scope: !828, name: "__next", line: 1, size: 64, align: 64, baseType: !829)
!831 = !{ !833, !834, !835, !836, !837, !838, !839, !840 }
!832 = !DICompositeType(tag: DW_TAG_structure_type, file: !3, scope: !10, name: "__pthread_mutex_s", line: 1, size: 320, align: 64, elements: !831, runtimeLang: DW_LANG_C_plus_plus)
!833 = !DIDerivedType(tag: DW_TAG_member, file: !3, scope: !832, name: "__lock", line: 1, size: 32, align: 32, baseType: !61)
!834 = !DIDerivedType(tag: DW_TAG_member, file: !3, scope: !832, name: "__count", line: 1, size: 32, align: 32, offset: 32, baseType: !97)
!835 = !DIDerivedType(tag: DW_TAG_member, file: !3, scope: !832, name: "__owner", line: 1, size: 32, align: 32, offset: 64, baseType: !61)
!836 = !DIDerivedType(tag: DW_TAG_member, file: !3, scope: !832, name: "__nusers", line: 1, size: 32, align: 32, offset: 96, baseType: !97)
!837 = !DIDerivedType(tag: DW_TAG_member, file: !3, scope: !832, name: "__kind", line: 1, size: 32, align: 32, offset: 128, baseType: !61)
!838 = !DIDerivedType(tag: DW_TAG_member, file: !3, scope: !832, name: "__spins", line: 1, size: 16, align: 16, offset: 160, baseType: !733)
!839 = !DIDerivedType(tag: DW_TAG_member, file: !3, scope: !832, name: "__elision", line: 1, size: 16, align: 16, offset: 176, baseType: !733)
!840 = !DIDerivedType(tag: DW_TAG_member, file: !3, scope: !832, name: "__list", line: 1, size: 128, align: 64, offset: 192, baseType: !822)
!841 = !{ !843, !844, !845, !846, !847, !848, !849, !850, !851, !855, !856, !857 }
!842 = !DICompositeType(tag: DW_TAG_structure_type, file: !3, scope: !10, name: "__pthread_rwlock_arch_t", line: 1, size: 448, align: 64, elements: !841, runtimeLang: DW_LANG_C_plus_plus)
!843 = !DIDerivedType(tag: DW_TAG_member, file: !3, scope: !842, name: "__readers", line: 1, size: 32, align: 32, baseType: !97)
!844 = !DIDerivedType(tag: DW_TAG_member, file: !3, scope: !842, name: "__writers", line: 1, size: 32, align: 32, offset: 32, baseType: !97)
!845 = !DIDerivedType(tag: DW_TAG_member, file: !3, scope: !842, name: "__wrphase_futex", line: 1, size: 32, align: 32, offset: 64, baseType: !97)
!846 = !DIDerivedType(tag: DW_TAG_member, file: !3, scope: !842, name: "__writers_futex", line: 1, size: 32, align: 32, offset: 96, baseType: !97)
!847 = !DIDerivedType(tag: DW_TAG_member, file: !3, scope: !842, name: "__pad3", line: 1, size: 32, align: 32, offset: 128, baseType: !97)
!848 = !DIDerivedType(tag: DW_TAG_member, file: !3, scope: !842, name: "__pad4", line: 1, size: 32, align: 32, offset: 160, baseType: !97)
!849 = !DIDerivedType(tag: DW_TAG_member, file: !3, scope: !842, name: "__cur_writer", line: 1, size: 32, align: 32, offset: 192, baseType: !61)
!850 = !DIDerivedType(tag: DW_TAG_member, file: !3, scope: !842, name: "__shared", line: 1, size: 32, align: 32, offset: 224, baseType: !61)
!851 = !DIDerivedType(tag: DW_TAG_member, file: !3, scope: !842, name: "__rwelision", line: 1, size: 8, align: 8, offset: 256, baseType: !43)
!852 = !DISubrange(count: 7)
!853 = !{ !852 }
!854 = !DICompositeType(tag: DW_TAG_array_type, size: 56, align: 8, baseType: !726, elements: !853)
!855 = !DIDerivedType(tag: DW_TAG_member, file: !3, scope: !842, name: "__pad1", line: 1, size: 56, align: 8, offset: 264, baseType: !854)
!856 = !DIDerivedType(tag: DW_TAG_member, file: !3, scope: !842, name: "__pad2", line: 1, size: 64, align: 64, offset: 320, baseType: !30)
!857 = !DIDerivedType(tag: DW_TAG_member, file: !3, scope: !842, name: "__flags", line: 1, size: 32, align: 32, offset: 384, baseType: !97)
!858 = !{ !877, !877, !879, !880, !881, !882, !883 }
!859 = !DICompositeType(tag: DW_TAG_structure_type, file: !3, scope: !10, name: "__pthread_cond_s", line: 1, size: 384, align: 64, elements: !858, runtimeLang: DW_LANG_C_plus_plus)
!860 = !{ !867, !868 }
!861 = !DICompositeType(tag: DW_TAG_union_type, file: !3, scope: !859, line: 1, size: 64, align: 64, elements: !860, runtimeLang: DW_LANG_C_plus_plus)
!862 = !{ !864, !865 }
!863 = !DICompositeType(tag: DW_TAG_structure_type, file: !3, scope: !861, name: "_ZN16__pthread_cond_s4__C2Ut_E", line: 1, size: 64, align: 32, elements: !862, runtimeLang: DW_LANG_C_plus_plus)
!864 = !DIDerivedType(tag: DW_TAG_member, file: !3, scope: !863, name: "__low", line: 1, size: 32, align: 32, baseType: !97)
!865 = !DIDerivedType(tag: DW_TAG_member, file: !3, scope: !863, name: "__high", line: 1, size: 32, align: 32, offset: 32, baseType: !97)
!866 = !DIBasicType(tag: DW_TAG_base_type, name: "unsigned long long", size: 64, align: 64, encoding: DW_ATE_unsigned)
!867 = !DIDerivedType(tag: DW_TAG_member, file: !3, scope: !861, name: "__wseq", line: 1, size: 64, align: 64, baseType: !866)
!868 = !DIDerivedType(tag: DW_TAG_member, file: !3, scope: !861, name: "__wseq32", line: 1, size: 64, align: 32, baseType: !863)
!869 = !{ !875, !876 }
!870 = !DICompositeType(tag: DW_TAG_union_type, file: !3, scope: !859, line: 1, size: 64, align: 64, elements: !869, runtimeLang: DW_LANG_C_plus_plus)
!871 = !{ !873, !874 }
!872 = !DICompositeType(tag: DW_TAG_structure_type, file: !3, scope: !870, name: "_ZN16__pthread_cond_s4__C3Ut_E", line: 1, size: 64, align: 32, elements: !871, runtimeLang: DW_LANG_C_plus_plus)
!873 = !DIDerivedType(tag: DW_TAG_member, file: !3, scope: !872, name: "__low", line: 1, size: 32, align: 32, baseType: !97)
!874 = !DIDerivedType(tag: DW_TAG_member, file: !3, scope: !872, name: "__high", line: 1, size: 32, align: 32, offset: 32, baseType: !97)
!875 = !DIDerivedType(tag: DW_TAG_member, file: !3, scope: !870, name: "__g1_start", line: 1, size: 64, align: 64, baseType: !866)
!876 = !DIDerivedType(tag: DW_TAG_member, file: !3, scope: !870, name: "__g1_start32", line: 1, size: 64, align: 32, baseType: !872)
!877 = !DIDerivedType(tag: DW_TAG_member, file: !3, scope: !859, line: 1, size: 64, align: 64, baseType: !861)
!878 = !DICompositeType(tag: DW_TAG_array_type, size: 64, align: 32, baseType: !97, elements: !764)
!879 = !DIDerivedType(tag: DW_TAG_member, file: !3, scope: !859, name: "__g_refs", line: 1, size: 64, align: 32, offset: 128, baseType: !878)
!880 = !DIDerivedType(tag: DW_TAG_member, file: !3, scope: !859, name: "__g_size", line: 1, size: 64, align: 32, offset: 192, baseType: !878)
!881 = !DIDerivedType(tag: DW_TAG_member, file: !3, scope: !859, name: "__g1_orig_size", line: 1, size: 32, align: 32, offset: 256, baseType: !97)
!882 = !DIDerivedType(tag: DW_TAG_member, file: !3, scope: !859, name: "__wrefs", line: 1, size: 32, align: 32, offset: 288, baseType: !97)
!883 = !DIDerivedType(tag: DW_TAG_member, file: !3, scope: !859, name: "__g_signals", line: 1, size: 64, align: 32, offset: 320, baseType: !878)
!884 = !DIDerivedType(tag: DW_TAG_typedef, file: !3, scope: !10, name: "pthread_t", line: 1, size: 64, align: 64, baseType: !30)
!885 = !{ !888, !889 }
!886 = !DICompositeType(tag: DW_TAG_union_type, file: !3, scope: !10, name: "pthread_mutexattr_t", line: 1, size: 32, align: 32, elements: !885, runtimeLang: DW_LANG_C_plus_plus)
!887 = !DICompositeType(tag: DW_TAG_array_type, size: 32, align: 8, baseType: !43, elements: !69)
!888 = !DIDerivedType(tag: DW_TAG_member, file: !3, scope: !886, name: "__size", line: 1, size: 32, align: 8, baseType: !887)
!889 = !DIDerivedType(tag: DW_TAG_member, file: !3, scope: !886, name: "__align", line: 1, size: 32, align: 32, baseType: !61)
!890 = !DIDerivedType(tag: DW_TAG_typedef, file: !3, scope: !10, name: "pthread_mutexattr_t", line: 1, size: 32, align: 32, baseType: !886)
!891 = !{ !893, !894 }
!892 = !DICompositeType(tag: DW_TAG_union_type, file: !3, scope: !10, name: "pthread_condattr_t", line: 1, size: 32, align: 32, elements: !891, runtimeLang: DW_LANG_C_plus_plus)
!893 = !DIDerivedType(tag: DW_TAG_member, file: !3, scope: !892, name: "__size", line: 1, size: 32, align: 8, baseType: !887)
!894 = !DIDerivedType(tag: DW_TAG_member, file: !3, scope: !892, name: "__align", line: 1, size: 32, align: 32, baseType: !61)
!895 = !DIDerivedType(tag: DW_TAG_typedef, file: !3, scope: !10, name: "pthread_condattr_t", line: 1, size: 32, align: 32, baseType: !892)
!896 = !DIDerivedType(tag: DW_TAG_typedef, file: !3, scope: !10, name: "pthread_key_t", line: 1, size: 32, align: 32, baseType: !97)
!897 = !DIDerivedType(tag: DW_TAG_typedef, file: !3, scope: !10, name: "pthread_once_t", line: 1, size: 32, align: 32, baseType: !61)
!898 = !{ !903, !904 }
!899 = !DICompositeType(tag: DW_TAG_union_type, file: !3, scope: !10, name: "pthread_attr_t", line: 1, size: 448, align: 64, elements: !898, runtimeLang: DW_LANG_C_plus_plus)
!900 = !DISubrange(count: 56)
!901 = !{ !900 }
!902 = !DICompositeType(tag: DW_TAG_array_type, size: 448, align: 8, baseType: !43, elements: !901)
!903 = !DIDerivedType(tag: DW_TAG_member, file: !3, scope: !899, name: "__size", line: 1, size: 448, align: 8, baseType: !902)
!904 = !DIDerivedType(tag: DW_TAG_member, file: !3, scope: !899, name: "__align", line: 1, size: 64, align: 64, baseType: !32)
!905 = !DIDerivedType(tag: DW_TAG_typedef, file: !3, scope: !10, name: "pthread_attr_t", line: 1, size: 448, align: 64, baseType: !899)
!906 = !{ !908, !912, !913 }
!907 = !DICompositeType(tag: DW_TAG_union_type, file: !3, scope: !10, name: "pthread_mutex_t", line: 1, size: 320, align: 64, elements: !906, runtimeLang: DW_LANG_C_plus_plus)
!908 = !DIDerivedType(tag: DW_TAG_member, file: !3, scope: !907, name: "__data", line: 1, size: 320, align: 64, baseType: !832)
!909 = !DISubrange(count: 40)
!910 = !{ !909 }
!911 = !DICompositeType(tag: DW_TAG_array_type, size: 320, align: 8, baseType: !43, elements: !910)
!912 = !DIDerivedType(tag: DW_TAG_member, file: !3, scope: !907, name: "__size", line: 1, size: 320, align: 8, baseType: !911)
!913 = !DIDerivedType(tag: DW_TAG_member, file: !3, scope: !907, name: "__align", line: 1, size: 64, align: 64, baseType: !32)
!914 = !DIDerivedType(tag: DW_TAG_typedef, file: !3, scope: !10, name: "pthread_mutex_t", line: 1, size: 320, align: 64, baseType: !907)
!915 = !{ !917, !921, !922 }
!916 = !DICompositeType(tag: DW_TAG_union_type, file: !3, scope: !10, name: "pthread_cond_t", line: 1, size: 384, align: 64, elements: !915, runtimeLang: DW_LANG_C_plus_plus)
!917 = !DIDerivedType(tag: DW_TAG_member, file: !3, scope: !916, name: "__data", line: 1, size: 384, align: 64, baseType: !859)
!918 = !DISubrange(count: 48)
!919 = !{ !918 }
!920 = !DICompositeType(tag: DW_TAG_array_type, size: 384, align: 8, baseType: !43, elements: !919)
!921 = !DIDerivedType(tag: DW_TAG_member, file: !3, scope: !916, name: "__size", line: 1, size: 384, align: 8, baseType: !920)
!922 = !DIDerivedType(tag: DW_TAG_member, file: !3, scope: !916, name: "__align", line: 1, size: 64, align: 64, baseType: !722)
!923 = !DIDerivedType(tag: DW_TAG_typedef, file: !3, scope: !10, name: "pthread_cond_t", line: 1, size: 384, align: 64, baseType: !916)
!924 = !{ !926, !927, !928 }
!925 = !DICompositeType(tag: DW_TAG_union_type, file: !3, scope: !10, name: "pthread_rwlock_t", line: 1, size: 448, align: 64, elements: !924, runtimeLang: DW_LANG_C_plus_plus)
!926 = !DIDerivedType(tag: DW_TAG_member, file: !3, scope: !925, name: "__data", line: 1, size: 448, align: 64, baseType: !842)
!927 = !DIDerivedType(tag: DW_TAG_member, file: !3, scope: !925, name: "__size", line: 1, size: 448, align: 8, baseType: !902)
!928 = !DIDerivedType(tag: DW_TAG_member, file: !3, scope: !925, name: "__align", line: 1, size: 64, align: 64, baseType: !32)
!929 = !DIDerivedType(tag: DW_TAG_typedef, file: !3, scope: !10, name: "pthread_rwlock_t", line: 1, size: 448, align: 64, baseType: !925)
!930 = !{ !932, !933 }
!931 = !DICompositeType(tag: DW_TAG_union_type, file: !3, scope: !10, name: "pthread_rwlockattr_t", line: 1, size: 64, align: 64, elements: !930, runtimeLang: DW_LANG_C_plus_plus)
!932 = !DIDerivedType(tag: DW_TAG_member, file: !3, scope: !931, name: "__size", line: 1, size: 64, align: 8, baseType: !544)
!933 = !DIDerivedType(tag: DW_TAG_member, file: !3, scope: !931, name: "__align", line: 1, size: 64, align: 64, baseType: !32)
!934 = !DIDerivedType(tag: DW_TAG_typedef, file: !3, scope: !10, name: "pthread_rwlockattr_t", line: 1, size: 64, align: 64, baseType: !931)
!935 = !DIDerivedType(tag: DW_TAG_typedef, file: !3, scope: !10, name: "pthread_spinlock_t", line: 1, size: 32, align: 32, baseType: !61)
!936 = !{ !941, !942 }
!937 = !DICompositeType(tag: DW_TAG_union_type, file: !3, scope: !10, name: "pthread_barrier_t", line: 1, size: 256, align: 64, elements: !936, runtimeLang: DW_LANG_C_plus_plus)
!938 = !DISubrange(count: 32)
!939 = !{ !938 }
!940 = !DICompositeType(tag: DW_TAG_array_type, size: 256, align: 8, baseType: !43, elements: !939)
!941 = !DIDerivedType(tag: DW_TAG_member, file: !3, scope: !937, name: "__size", line: 1, size: 256, align: 8, baseType: !940)
!942 = !DIDerivedType(tag: DW_TAG_member, file: !3, scope: !937, name: "__align", line: 1, size: 64, align: 64, baseType: !32)
!943 = !DIDerivedType(tag: DW_TAG_typedef, file: !3, scope: !10, name: "pthread_barrier_t", line: 1, size: 256, align: 64, baseType: !937)
!944 = !{ !946, !947 }
!945 = !DICompositeType(tag: DW_TAG_union_type, file: !3, scope: !10, name: "pthread_barrierattr_t", line: 1, size: 32, align: 32, elements: !944, runtimeLang: DW_LANG_C_plus_plus)
!946 = !DIDerivedType(tag: DW_TAG_member, file: !3, scope: !945, name: "__size", line: 1, size: 32, align: 8, baseType: !887)
!947 = !DIDerivedType(tag: DW_TAG_member, file: !3, scope: !945, name: "__align", line: 1, size: 32, align: 32, baseType: !61)
!948 = !DIDerivedType(tag: DW_TAG_typedef, file: !3, scope: !10, name: "pthread_barrierattr_t", line: 1, size: 32, align: 32, baseType: !945)
!949 = !{ !951, !952, !953, !954, !955, !956, !957 }
!950 = !DICompositeType(tag: DW_TAG_structure_type, file: !3, scope: !10, name: "random_data", line: 1, size: 384, align: 64, elements: !949, runtimeLang: DW_LANG_C_plus_plus)
!951 = !DIDerivedType(tag: DW_TAG_member, file: !3, scope: !950, name: "fptr", line: 1, size: 64, align: 64, baseType: !62)
!952 = !DIDerivedType(tag: DW_TAG_member, file: !3, scope: !950, name: "rptr", line: 1, size: 64, align: 64, offset: 64, baseType: !62)
!953 = !DIDerivedType(tag: DW_TAG_member, file: !3, scope: !950, name: "state", line: 1, size: 64, align: 64, offset: 128, baseType: !62)
!954 = !DIDerivedType(tag: DW_TAG_member, file: !3, scope: !950, name: "rand_type", line: 1, size: 32, align: 32, offset: 192, baseType: !61)
!955 = !DIDerivedType(tag: DW_TAG_member, file: !3, scope: !950, name: "rand_deg", line: 1, size: 32, align: 32, offset: 224, baseType: !61)
!956 = !DIDerivedType(tag: DW_TAG_member, file: !3, scope: !950, name: "rand_sep", line: 1, size: 32, align: 32, offset: 256, baseType: !61)
!957 = !DIDerivedType(tag: DW_TAG_member, file: !3, scope: !950, name: "end_ptr", line: 1, size: 64, align: 64, offset: 320, baseType: !62)
!958 = !{ !963, !964, !965, !966, !967 }
!959 = !DICompositeType(tag: DW_TAG_structure_type, file: !3, scope: !10, name: "drand48_data", line: 1, size: 192, align: 64, elements: !958, runtimeLang: DW_LANG_C_plus_plus)
!960 = !DISubrange(count: 3)
!961 = !{ !960 }
!962 = !DICompositeType(tag: DW_TAG_array_type, size: 48, align: 16, baseType: !79, elements: !961)
!963 = !DIDerivedType(tag: DW_TAG_member, file: !3, scope: !959, name: "__x", line: 1, size: 48, align: 16, baseType: !962)
!964 = !DIDerivedType(tag: DW_TAG_member, file: !3, scope: !959, name: "__old_x", line: 1, size: 48, align: 16, offset: 48, baseType: !962)
!965 = !DIDerivedType(tag: DW_TAG_member, file: !3, scope: !959, name: "__c", line: 1, size: 16, align: 16, offset: 96, baseType: !79)
!966 = !DIDerivedType(tag: DW_TAG_member, file: !3, scope: !959, name: "__init", line: 1, size: 16, align: 16, offset: 112, baseType: !79)
!967 = !DIDerivedType(tag: DW_TAG_member, file: !3, scope: !959, name: "__a", line: 1, size: 64, align: 64, offset: 128, baseType: !866)
!968 = !{ !61, !17, !17 }
!969 = !DISubroutineType(types: !968)
