	.text
	.file	"integratefunction.ll"
	.file	1 "/home/talgat/vlasiator/backgroundfield/integratefunction.cpp"
	.section	.rodata.cst8,"aM",@progbits,8
	.p2align	3               # -- Begin function _Z11lineAverageRK11T3DFunction10coordinatedPKdd
.LCPI0_0:
	.quad	4607182418800017408     # double 1
	.text
	.globl	_Z11lineAverageRK11T3DFunction10coordinatedPKdd
	.p2align	4, 0x90
	.type	_Z11lineAverageRK11T3DFunction10coordinatedPKdd,@function
_Z11lineAverageRK11T3DFunction10coordinatedPKdd: # @_Z11lineAverageRK11T3DFunction10coordinatedPKdd
.Lfunc_begin0:
	.loc	1 43 0                  # backgroundfield/integratefunction.cpp:43:0
	.cfi_startproc
# %bb.0:                                # %L.entry
	#DEBUG_VALUE: lineAverage:f1 <- $rdi
	#DEBUG_VALUE: lineAverage:line <- $esi
	#DEBUG_VALUE: lineAverage:accuracy <- $xmm0
	#DEBUG_VALUE: lineAverage:r1 <- $rdx
	#DEBUG_VALUE: lineAverage:L <- $xmm1
	pushq	%rbp
	.cfi_def_cfa_offset 16
	.cfi_offset %rbp, -16
	movq	%rsp, %rbp
	.cfi_def_cfa_register %rbp
	subq	$112, %rsp
.Ltmp0:
	#DEBUG_VALUE: f1 <- undef
	vmovsd	.LCPI0_0(%rip), %xmm2   # xmm2 = mem[0],zero
.Ltmp1:
	#DEBUG_VALUE: L <- $xmm1
	#DEBUG_VALUE: r1 <- $rdx
	#DEBUG_VALUE: accuracy <- $xmm0
	#DEBUG_VALUE: line <- $esi
	#DEBUG_VALUE: lineAverage:L <- $xmm1
	#DEBUG_VALUE: lineAverage:r1 <- $rdx
	#DEBUG_VALUE: lineAverage:accuracy <- $xmm0
	#DEBUG_VALUE: lineAverage:line <- $esi
	#DEBUG_VALUE: lineAverage:f1 <- $rdi
	.loc	1 48 1 prologue_end     # backgroundfield/integratefunction.cpp:48:1
	vdivsd	%xmm1, %xmm2, %xmm3
.Ltmp2:
	#DEBUG_VALUE: norm <- $xmm3
	.loc	1 49 1                  # backgroundfield/integratefunction.cpp:49:1
	vmulsd	%xmm1, %xmm0, %xmm2
.Ltmp3:
	#DEBUG_VALUE: acc <- $xmm2
	.loc	1 50 1                  # backgroundfield/integratefunction.cpp:50:1
	movl	%esi, %eax
	vmovsd	(%rdx,%rax,8), %xmm0    # xmm0 = mem[0],zero
.Ltmp4:
	#DEBUG_VALUE: a <- $xmm0
	.loc	1 51 1                  # backgroundfield/integratefunction.cpp:51:1
	vaddsd	%xmm1, %xmm0, %xmm1
.Ltmp5:
	#DEBUG_VALUE: b <- $xmm1
	.loc	1 53 1                  # backgroundfield/integratefunction.cpp:53:1
	testl	%esi, %esi
	je	.LBB0_4
.Ltmp6:
# %bb.1:                                # %L.entry
	#DEBUG_VALUE: b <- $xmm1
	#DEBUG_VALUE: a <- $xmm0
	#DEBUG_VALUE: acc <- $xmm2
	#DEBUG_VALUE: norm <- $xmm3
	#DEBUG_VALUE: line <- $esi
	#DEBUG_VALUE: r1 <- $rdx
	#DEBUG_VALUE: lineAverage:r1 <- $rdx
	#DEBUG_VALUE: lineAverage:line <- $esi
	#DEBUG_VALUE: lineAverage:f1 <- $rdi
	cmpl	$1, %esi
	je	.LBB0_5
.Ltmp7:
# %bb.2:                                # %L.entry
	#DEBUG_VALUE: b <- $xmm1
	#DEBUG_VALUE: a <- $xmm0
	#DEBUG_VALUE: acc <- $xmm2
	#DEBUG_VALUE: norm <- $xmm3
	#DEBUG_VALUE: line <- $esi
	#DEBUG_VALUE: r1 <- $rdx
	#DEBUG_VALUE: lineAverage:r1 <- $rdx
	#DEBUG_VALUE: lineAverage:line <- $esi
	#DEBUG_VALUE: lineAverage:f1 <- $rdi
	cmpl	$2, %esi
	jne	.LBB0_6
.Ltmp8:
# %bb.3:                                # %L.B0008
	#DEBUG_VALUE: b <- $xmm1
	#DEBUG_VALUE: a <- $xmm0
	#DEBUG_VALUE: acc <- $xmm2
	#DEBUG_VALUE: norm <- $xmm3
	#DEBUG_VALUE: line <- $esi
	#DEBUG_VALUE: r1 <- $rdx
	#DEBUG_VALUE: lineAverage:r1 <- $rdx
	#DEBUG_VALUE: lineAverage:line <- $esi
	#DEBUG_VALUE: lineAverage:f1 <- $rdi
	.loc	1 0 1 is_stmt 0         # backgroundfield/integratefunction.cpp:0:1
	vmovsd	%xmm3, -8(%rbp)         # 8-byte Spill
.Ltmp9:
	#DEBUG_VALUE: norm <- [DW_OP_constu 8, DW_OP_minus] [$rbp+0]
	.loc	1 68 1 is_stmt 1        # backgroundfield/integratefunction.cpp:68:1
	vmovupd	(%rdx), %xmm3
.Ltmp10:
	.loc	1 94 1                  # backgroundfield/integratefunction.cpp:94:1
	movq	$_ZTV9T3D_fix12+16, -104(%rbp)
	movq	%rdi, -96(%rbp)
	vmovupd	%xmm3, -88(%rbp)
	leaq	-104(%rbp), %rdi
.Ltmp11:
	.loc	1 69 1                  # backgroundfield/integratefunction.cpp:69:1
	callq	_Z7RombergRK11T1DFunctionddd
.Ltmp12:
	vmulsd	-8(%rbp), %xmm0, %xmm0  # 8-byte Folded Reload
.Ltmp13:
	#DEBUG_VALUE: value <- $xmm0
	.loc	1 96 1                  # backgroundfield/integratefunction.cpp:96:1
	movq	$_ZTV11T1DFunction+16, -104(%rbp)
	jmp	.LBB0_7
.Ltmp14:
.LBB0_4:                                # %L.B0002
	#DEBUG_VALUE: b <- $xmm1
	#DEBUG_VALUE: a <- $xmm0
	#DEBUG_VALUE: acc <- $xmm2
	#DEBUG_VALUE: norm <- $xmm3
	#DEBUG_VALUE: line <- $esi
	#DEBUG_VALUE: r1 <- $rdx
	#DEBUG_VALUE: lineAverage:r1 <- $rdx
	#DEBUG_VALUE: lineAverage:line <- $esi
	#DEBUG_VALUE: lineAverage:f1 <- $rdi
	.loc	1 0 1 is_stmt 0         # backgroundfield/integratefunction.cpp:0:1
	vmovsd	%xmm3, -8(%rbp)         # 8-byte Spill
.Ltmp15:
	#DEBUG_VALUE: norm <- [DW_OP_constu 8, DW_OP_minus] [$rbp+0]
	.loc	1 56 1 is_stmt 1        # backgroundfield/integratefunction.cpp:56:1
	vmovupd	8(%rdx), %xmm3
.Ltmp16:
	.loc	1 114 1                 # backgroundfield/integratefunction.cpp:114:1
	movq	$_ZTV9T3D_fix23+16, -72(%rbp)
	movq	%rdi, -64(%rbp)
	vmovupd	%xmm3, -56(%rbp)
	leaq	-72(%rbp), %rdi
.Ltmp17:
	.loc	1 57 1                  # backgroundfield/integratefunction.cpp:57:1
	callq	_Z7RombergRK11T1DFunctionddd
.Ltmp18:
	vmulsd	-8(%rbp), %xmm0, %xmm0  # 8-byte Folded Reload
.Ltmp19:
	#DEBUG_VALUE: value <- $xmm0
	.loc	1 116 1                 # backgroundfield/integratefunction.cpp:116:1
	movq	$_ZTV11T1DFunction+16, -72(%rbp)
	jmp	.LBB0_7
.Ltmp20:
.LBB0_5:                                # %L.B0005
	#DEBUG_VALUE: b <- $xmm1
	#DEBUG_VALUE: a <- $xmm0
	#DEBUG_VALUE: acc <- $xmm2
	#DEBUG_VALUE: norm <- $xmm3
	#DEBUG_VALUE: line <- $esi
	#DEBUG_VALUE: r1 <- $rdx
	#DEBUG_VALUE: lineAverage:r1 <- $rdx
	#DEBUG_VALUE: lineAverage:line <- $esi
	#DEBUG_VALUE: lineAverage:f1 <- $rdi
	.loc	1 62 1                  # backgroundfield/integratefunction.cpp:62:1
	movq	(%rdx), %rax
	movq	16(%rdx), %rcx
.Ltmp21:
	.loc	1 104 1                 # backgroundfield/integratefunction.cpp:104:1
	movq	$_ZTV9T3D_fix13+16, -40(%rbp)
	movq	%rdi, -32(%rbp)
	movq	%rax, -24(%rbp)
	movq	%rcx, -16(%rbp)
	leaq	-40(%rbp), %rdi
.Ltmp22:
	.loc	1 0 1 is_stmt 0         # backgroundfield/integratefunction.cpp:0:1
	vmovsd	%xmm3, -8(%rbp)         # 8-byte Spill
.Ltmp23:
	#DEBUG_VALUE: norm <- [DW_OP_constu 8, DW_OP_minus] [$rbp+0]
	.loc	1 63 1 is_stmt 1        # backgroundfield/integratefunction.cpp:63:1
	callq	_Z7RombergRK11T1DFunctionddd
.Ltmp24:
	vmulsd	-8(%rbp), %xmm0, %xmm0  # 8-byte Folded Reload
.Ltmp25:
	#DEBUG_VALUE: value <- $xmm0
	.loc	1 106 1                 # backgroundfield/integratefunction.cpp:106:1
	movq	$_ZTV11T1DFunction+16, -40(%rbp)
	jmp	.LBB0_7
.Ltmp26:
.LBB0_6:                                # %L..inline.9786
	#DEBUG_VALUE: line <- $esi
	#DEBUG_VALUE: r1 <- $rdx
	#DEBUG_VALUE: lineAverage:r1 <- $rdx
	#DEBUG_VALUE: lineAverage:line <- $esi
	#DEBUG_VALUE: lineAverage:f1 <- $rdi
	.loc	1 570 1                 # backgroundfield/integratefunction.cpp:570:1
	movl	$_ZSt4cerr, %edi
.Ltmp27:
	movl	$.S08448, %esi
.Ltmp28:
	movl	$24, %edx
.Ltmp29:
	callq	_ZSt16__ostream_insertIcSt11char_traitsIcEERSt13basic_ostreamIT_T0_ES6_PKS3_l
	vxorpd	%xmm0, %xmm0, %xmm0
.Ltmp30:
	#DEBUG_VALUE: value <- 0.000000e+00
.LBB0_7:                                # %L_T31759352_8084
	#DEBUG_VALUE: value <- $xmm0
	.loc	1 78 1                  # backgroundfield/integratefunction.cpp:78:1
	addq	$112, %rsp
	popq	%rbp
	.cfi_def_cfa %rsp, 8
	retq
.Ltmp31:
.Lfunc_end0:
	.size	_Z11lineAverageRK11T3DFunction10coordinatedPKdd, .Lfunc_end0-_Z11lineAverageRK11T3DFunction10coordinatedPKdd
	.cfi_endproc
                                        # -- End function
	.section	.rodata.cst8,"aM",@progbits,8
	.p2align	3               # -- Begin function _Z14surfaceAverageRK11T3DFunction10coordinatedPKddd
.LCPI1_0:
	.quad	4607182418800017408     # double 1
	.text
	.globl	_Z14surfaceAverageRK11T3DFunction10coordinatedPKddd
	.p2align	4, 0x90
	.type	_Z14surfaceAverageRK11T3DFunction10coordinatedPKddd,@function
_Z14surfaceAverageRK11T3DFunction10coordinatedPKddd: # @_Z14surfaceAverageRK11T3DFunction10coordinatedPKddd
.Lfunc_begin1:
	.loc	1 88 0                  # backgroundfield/integratefunction.cpp:88:0
	.cfi_startproc
# %bb.0:                                # %L.entry
	#DEBUG_VALUE: surfaceAverage:f1 <- $rdi
	#DEBUG_VALUE: surfaceAverage:face <- $esi
	#DEBUG_VALUE: surfaceAverage:accuracy <- $xmm0
	#DEBUG_VALUE: surfaceAverage:r1 <- $rdx
	#DEBUG_VALUE: surfaceAverage:L1 <- $xmm1
	#DEBUG_VALUE: surfaceAverage:L2 <- $xmm2
	pushq	%rbp
	.cfi_def_cfa_offset 16
	.cfi_offset %rbp, -16
	movq	%rsp, %rbp
	.cfi_def_cfa_register %rbp
	subq	$96, %rsp
	vmovapd	%xmm2, %xmm3
.Ltmp32:
	#DEBUG_VALUE: L2 <- $xmm3
	#DEBUG_VALUE: L1 <- $xmm1
	#DEBUG_VALUE: r1 <- undef
	#DEBUG_VALUE: accuracy <- $xmm0
	#DEBUG_VALUE: face <- $esi
	#DEBUG_VALUE: f1 <- undef
	#DEBUG_VALUE: surfaceAverage:L2 <- $xmm3
	#DEBUG_VALUE: surfaceAverage:L1 <- $xmm1
	#DEBUG_VALUE: surfaceAverage:r1 <- $rdx
	#DEBUG_VALUE: surfaceAverage:accuracy <- $xmm0
	#DEBUG_VALUE: surfaceAverage:face <- $esi
	#DEBUG_VALUE: surfaceAverage:f1 <- $rdi
	.loc	1 92 1 prologue_end     # backgroundfield/integratefunction.cpp:92:1
	vmulsd	%xmm1, %xmm0, %xmm0
.Ltmp33:
	vmulsd	%xmm2, %xmm0, %xmm4
.Ltmp34:
	#DEBUG_VALUE: norm <- undef
	#DEBUG_VALUE: acc <- $xmm4
	.loc	1 94 1                  # backgroundfield/integratefunction.cpp:94:1
	testl	%esi, %esi
	vmovsd	%xmm1, -16(%rbp)        # 8-byte Spill
	vmovsd	%xmm2, -8(%rbp)         # 8-byte Spill
	je	.LBB1_6
.Ltmp35:
# %bb.1:                                # %L.entry
	#DEBUG_VALUE: acc <- $xmm4
	#DEBUG_VALUE: surfaceAverage:L2 <- $xmm3
	#DEBUG_VALUE: face <- $esi
	#DEBUG_VALUE: L1 <- $xmm1
	#DEBUG_VALUE: L2 <- $xmm3
	#DEBUG_VALUE: surfaceAverage:L1 <- $xmm1
	#DEBUG_VALUE: surfaceAverage:r1 <- $rdx
	#DEBUG_VALUE: surfaceAverage:face <- $esi
	#DEBUG_VALUE: surfaceAverage:f1 <- $rdi
	cmpl	$1, %esi
	je	.LBB1_4
.Ltmp36:
# %bb.2:                                # %L.entry
	#DEBUG_VALUE: acc <- $xmm4
	#DEBUG_VALUE: surfaceAverage:L2 <- $xmm3
	#DEBUG_VALUE: face <- $esi
	#DEBUG_VALUE: L1 <- $xmm1
	#DEBUG_VALUE: L2 <- $xmm3
	#DEBUG_VALUE: surfaceAverage:L1 <- $xmm1
	#DEBUG_VALUE: surfaceAverage:r1 <- $rdx
	#DEBUG_VALUE: surfaceAverage:face <- $esi
	#DEBUG_VALUE: surfaceAverage:f1 <- $rdi
	cmpl	$2, %esi
	jne	.LBB1_5
.Ltmp37:
# %bb.3:                                # %L.B0023
	#DEBUG_VALUE: acc <- $xmm4
	#DEBUG_VALUE: surfaceAverage:L2 <- $xmm3
	#DEBUG_VALUE: face <- $esi
	#DEBUG_VALUE: L1 <- $xmm1
	#DEBUG_VALUE: L2 <- $xmm3
	#DEBUG_VALUE: surfaceAverage:L1 <- $xmm1
	#DEBUG_VALUE: surfaceAverage:r1 <- $rdx
	#DEBUG_VALUE: surfaceAverage:face <- $esi
	#DEBUG_VALUE: surfaceAverage:f1 <- $rdi
	.loc	1 109 1                 # backgroundfield/integratefunction.cpp:109:1
	movq	16(%rdx), %rax
.Ltmp38:
	.loc	1 82 1                  # backgroundfield/integratefunction.cpp:82:1
	movq	$_ZTV8T3D_fix3+16, -88(%rbp)
	movq	%rdi, -80(%rbp)
	movq	%rax, -72(%rbp)
.Ltmp39:
	.loc	1 110 1                 # backgroundfield/integratefunction.cpp:110:1
	vmovsd	(%rdx), %xmm0           # xmm0 = mem[0],zero
	vmovsd	8(%rdx), %xmm2          # xmm2 = mem[0],zero
	vaddsd	%xmm1, %xmm0, %xmm1
.Ltmp40:
	vaddsd	%xmm3, %xmm2, %xmm3
.Ltmp41:
	.loc	1 0 1 is_stmt 0         # backgroundfield/integratefunction.cpp:0:1
	leaq	-88(%rbp), %rdi
.Ltmp42:
	.loc	1 110 1                 # backgroundfield/integratefunction.cpp:110:1
	callq	_Z7RombergRK11T2DFunctionddddd
.Ltmp43:
	#DEBUG_VALUE: value <- undef
	.loc	1 84 1 is_stmt 1        # backgroundfield/integratefunction.cpp:84:1
	movq	$_ZTV11T2DFunction+16, -88(%rbp)
	jmp	.LBB1_7
.Ltmp44:
.LBB1_4:                                # %L.B0020
	#DEBUG_VALUE: acc <- $xmm4
	#DEBUG_VALUE: surfaceAverage:L2 <- $xmm3
	#DEBUG_VALUE: face <- $esi
	#DEBUG_VALUE: L1 <- $xmm1
	#DEBUG_VALUE: L2 <- $xmm3
	#DEBUG_VALUE: surfaceAverage:L1 <- $xmm1
	#DEBUG_VALUE: surfaceAverage:r1 <- $rdx
	#DEBUG_VALUE: surfaceAverage:face <- $esi
	#DEBUG_VALUE: surfaceAverage:f1 <- $rdi
	.loc	1 103 1                 # backgroundfield/integratefunction.cpp:103:1
	movq	8(%rdx), %rax
.Ltmp45:
	.loc	1 72 1                  # backgroundfield/integratefunction.cpp:72:1
	movq	$_ZTV8T3D_fix2+16, -40(%rbp)
	movq	%rdi, -32(%rbp)
	movq	%rax, -24(%rbp)
.Ltmp46:
	.loc	1 104 1                 # backgroundfield/integratefunction.cpp:104:1
	vmovsd	(%rdx), %xmm0           # xmm0 = mem[0],zero
	vmovsd	16(%rdx), %xmm2         # xmm2 = mem[0],zero
	vaddsd	%xmm1, %xmm0, %xmm1
.Ltmp47:
	vaddsd	%xmm3, %xmm2, %xmm3
.Ltmp48:
	.loc	1 0 1 is_stmt 0         # backgroundfield/integratefunction.cpp:0:1
	leaq	-40(%rbp), %rdi
.Ltmp49:
	.loc	1 104 1                 # backgroundfield/integratefunction.cpp:104:1
	callq	_Z7RombergRK11T2DFunctionddddd
.Ltmp50:
	#DEBUG_VALUE: value <- undef
	.loc	1 74 1 is_stmt 1        # backgroundfield/integratefunction.cpp:74:1
	movq	$_ZTV11T2DFunction+16, -40(%rbp)
	jmp	.LBB1_7
.Ltmp51:
.LBB1_6:                                # %L.B0017
	#DEBUG_VALUE: acc <- $xmm4
	#DEBUG_VALUE: surfaceAverage:L2 <- $xmm3
	#DEBUG_VALUE: face <- $esi
	#DEBUG_VALUE: L1 <- $xmm1
	#DEBUG_VALUE: L2 <- $xmm3
	#DEBUG_VALUE: surfaceAverage:L1 <- $xmm1
	#DEBUG_VALUE: surfaceAverage:r1 <- $rdx
	#DEBUG_VALUE: surfaceAverage:face <- $esi
	#DEBUG_VALUE: surfaceAverage:f1 <- $rdi
	.loc	1 97 1                  # backgroundfield/integratefunction.cpp:97:1
	movq	(%rdx), %rax
.Ltmp52:
	.loc	1 62 1                  # backgroundfield/integratefunction.cpp:62:1
	movq	$_ZTV8T3D_fix1+16, -64(%rbp)
	movq	%rdi, -56(%rbp)
	movq	%rax, -48(%rbp)
.Ltmp53:
	.loc	1 98 1                  # backgroundfield/integratefunction.cpp:98:1
	vmovsd	8(%rdx), %xmm0          # xmm0 = mem[0],zero
	vmovsd	16(%rdx), %xmm2         # xmm2 = mem[0],zero
	vaddsd	%xmm1, %xmm0, %xmm1
.Ltmp54:
	vaddsd	%xmm3, %xmm2, %xmm3
.Ltmp55:
	.loc	1 0 1 is_stmt 0         # backgroundfield/integratefunction.cpp:0:1
	leaq	-64(%rbp), %rdi
.Ltmp56:
	.loc	1 98 1                  # backgroundfield/integratefunction.cpp:98:1
	callq	_Z7RombergRK11T2DFunctionddddd
.Ltmp57:
	#DEBUG_VALUE: value <- undef
	.loc	1 64 1 is_stmt 1        # backgroundfield/integratefunction.cpp:64:1
	movq	$_ZTV11T2DFunction+16, -64(%rbp)
.Ltmp58:
.LBB1_7:                                # %L_T31592664_8085
	.loc	1 0 1 is_stmt 0         # backgroundfield/integratefunction.cpp:0:1
	vmovsd	-8(%rbp), %xmm1         # 8-byte Reload
                                        # xmm1 = mem[0],zero
	vmulsd	-16(%rbp), %xmm1, %xmm1 # 8-byte Folded Reload
	vmovsd	.LCPI1_0(%rip), %xmm2   # xmm2 = mem[0],zero
.Ltmp59:
	vdivsd	%xmm1, %xmm2, %xmm1
.Ltmp60:
	#DEBUG_VALUE: norm <- $xmm1
	vmulsd	%xmm0, %xmm1, %xmm0
.Ltmp61:
	#DEBUG_VALUE: value <- $xmm0
	.loc	1 119 1 is_stmt 1       # backgroundfield/integratefunction.cpp:119:1
	addq	$96, %rsp
	popq	%rbp
	.cfi_def_cfa %rsp, 8
	retq
.Ltmp62:
.LBB1_5:                                # %L..inline.10054
	.cfi_def_cfa %rbp, 16
	#DEBUG_VALUE: acc <- $xmm4
	#DEBUG_VALUE: surfaceAverage:L2 <- $xmm3
	#DEBUG_VALUE: face <- $esi
	#DEBUG_VALUE: L1 <- $xmm1
	#DEBUG_VALUE: L2 <- $xmm3
	#DEBUG_VALUE: surfaceAverage:L1 <- $xmm1
	#DEBUG_VALUE: surfaceAverage:r1 <- $rdx
	#DEBUG_VALUE: surfaceAverage:face <- $esi
	#DEBUG_VALUE: surfaceAverage:f1 <- $rdi
	.loc	1 570 1                 # backgroundfield/integratefunction.cpp:570:1
	movl	$_ZSt4cerr, %edi
.Ltmp63:
	movl	$.S08496, %esi
.Ltmp64:
	movl	$27, %edx
.Ltmp65:
	callq	_ZSt16__ostream_insertIcSt11char_traitsIcEERSt13basic_ostreamIT_T0_ES6_PKS3_l
.Ltmp66:
	.loc	1 115 1                 # backgroundfield/integratefunction.cpp:115:1
	movl	$1, %edi
	callq	exit
.Ltmp67:
.Lfunc_end1:
	.size	_Z14surfaceAverageRK11T3DFunction10coordinatedPKddd, .Lfunc_end1-_Z14surfaceAverageRK11T3DFunction10coordinatedPKddd
	.cfi_endproc
                                        # -- End function
	.section	.rodata.cst8,"aM",@progbits,8
	.p2align	3               # -- Begin function _Z13volumeAverageRK11T3DFunctiondPKdS3_
.LCPI2_0:
	.quad	4607182418800017408     # double 1
	.text
	.globl	_Z13volumeAverageRK11T3DFunctiondPKdS3_
	.p2align	4, 0x90
	.type	_Z13volumeAverageRK11T3DFunctiondPKdS3_,@function
_Z13volumeAverageRK11T3DFunctiondPKdS3_: # @_Z13volumeAverageRK11T3DFunctiondPKdS3_
.Lfunc_begin2:
	.loc	1 128 0                 # backgroundfield/integratefunction.cpp:128:0
	.cfi_startproc
# %bb.0:                                # %L.entry
	#DEBUG_VALUE: volumeAverage:f1 <- $rdi
	#DEBUG_VALUE: volumeAverage:f1 <- $rdi
	#DEBUG_VALUE: volumeAverage:accuracy <- $xmm0
	#DEBUG_VALUE: volumeAverage:accuracy <- $xmm0
	#DEBUG_VALUE: volumeAverage:r1 <- $rsi
	#DEBUG_VALUE: volumeAverage:r1 <- $rsi
	#DEBUG_VALUE: volumeAverage:r2 <- $rdx
	#DEBUG_VALUE: volumeAverage:r2 <- $rdx
	pushq	%rbp
	.cfi_def_cfa_offset 16
	.cfi_offset %rbp, -16
	movq	%rsp, %rbp
	.cfi_def_cfa_register %rbp
	subq	$16, %rsp
.Ltmp68:
	#DEBUG_VALUE: f1 <- $rdi
	#DEBUG_VALUE: f1 <- $rdi
	#DEBUG_VALUE: accuracy <- $xmm0
	#DEBUG_VALUE: accuracy <- $xmm0
	#DEBUG_VALUE: r1 <- $rsi
	#DEBUG_VALUE: r1 <- $rsi
	#DEBUG_VALUE: r2 <- $rdx
	#DEBUG_VALUE: r2 <- $rdx
	.loc	1 132 1 prologue_end    # backgroundfield/integratefunction.cpp:132:1
	vmovsd	16(%rdx), %xmm5         # xmm5 = mem[0],zero
	vmovsd	16(%rsi), %xmm4         # xmm4 = mem[0],zero
	vsubsd	%xmm4, %xmm5, %xmm9
	vmovsd	(%rdx), %xmm1           # xmm1 = mem[0],zero
	vmovsd	8(%rdx), %xmm3          # xmm3 = mem[0],zero
	vmovsd	(%rsi), %xmm8           # xmm8 = mem[0],zero
	vmovsd	8(%rsi), %xmm2          # xmm2 = mem[0],zero
	vsubsd	%xmm2, %xmm3, %xmm10
	vsubsd	%xmm8, %xmm1, %xmm7
	vmulsd	%xmm0, %xmm7, %xmm0
.Ltmp69:
	vmulsd	%xmm0, %xmm10, %xmm0
	vmulsd	%xmm0, %xmm9, %xmm6
.Ltmp70:
	#DEBUG_VALUE: acc <- $xmm6
	.loc	1 133 1                 # backgroundfield/integratefunction.cpp:133:1
	vmulsd	%xmm7, %xmm10, %xmm0
	vmulsd	%xmm0, %xmm9, %xmm0
	vmovsd	.LCPI2_0(%rip), %xmm7   # xmm7 = mem[0],zero
	vdivsd	%xmm0, %xmm7, %xmm0
.Ltmp71:
	#DEBUG_VALUE: norm <- $xmm0
	.loc	1 0 1 is_stmt 0         # backgroundfield/integratefunction.cpp:0:1
	vmovsd	%xmm0, -8(%rbp)         # 8-byte Spill
.Ltmp72:
	#DEBUG_VALUE: norm <- [DW_OP_constu 8, DW_OP_minus] [$rbp+0]
	#DEBUG_VALUE: norm <- [DW_OP_constu 8, DW_OP_minus] [$rbp+0]
	#DEBUG_VALUE: f1 <- $rdi
	#DEBUG_VALUE: volumeAverage:f1 <- $rdi
	.loc	1 134 1 is_stmt 1       # backgroundfield/integratefunction.cpp:134:1
	vmovapd	%xmm8, %xmm0
	callq	_Z7RombergRK11T3DFunctionddddddd
.Ltmp73:
	vmulsd	-8(%rbp), %xmm0, %xmm0  # 8-byte Folded Reload
.Ltmp74:
	.loc	1 136 1                 # backgroundfield/integratefunction.cpp:136:1
	addq	$16, %rsp
	popq	%rbp
	.cfi_def_cfa %rsp, 8
	retq
.Ltmp75:
.Lfunc_end2:
	.size	_Z13volumeAverageRK11T3DFunctiondPKdS3_, .Lfunc_end2-_Z13volumeAverageRK11T3DFunctiondPKdS3_
	.cfi_endproc
                                        # -- End function
	.weak	_ZN11T1DFunctionD1Ev    # -- Begin function _ZN11T1DFunctionD1Ev
	.p2align	4, 0x90
	.type	_ZN11T1DFunctionD1Ev,@function
_ZN11T1DFunctionD1Ev:                   # @_ZN11T1DFunctionD1Ev
.Lfunc_begin3:
	.file	2 "/home/talgat/vlasiator/backgroundfield/functions.hpp"
	.loc	2 29 0                  # backgroundfield/functions.hpp:29:0
	.cfi_startproc
# %bb.0:                                # %L.entry
	#DEBUG_VALUE: ~T1DFunction: <- $rdi
	#DEBUG_VALUE: ~T1DFunction: <- $rdi
	pushq	%rbp
	.cfi_def_cfa_offset 16
	.cfi_offset %rbp, -16
	movq	%rsp, %rbp
	.cfi_def_cfa_register %rbp
.Ltmp76:
	#DEBUG_VALUE:  <- $rdi
	#DEBUG_VALUE:  <- $rdi
	.loc	2 29 1 prologue_end     # backgroundfield/functions.hpp:29:1
	movq	$_ZTV11T1DFunction+16, (%rdi)
	popq	%rbp
	.cfi_def_cfa %rsp, 8
	retq
.Ltmp77:
.Lfunc_end3:
	.size	_ZN11T1DFunctionD1Ev, .Lfunc_end3-_ZN11T1DFunctionD1Ev
	.cfi_endproc
                                        # -- End function
	.weak	_ZN11T1DFunctionD0Ev    # -- Begin function _ZN11T1DFunctionD0Ev
	.p2align	4, 0x90
	.type	_ZN11T1DFunctionD0Ev,@function
_ZN11T1DFunctionD0Ev:                   # @_ZN11T1DFunctionD0Ev
.Lfunc_begin4:
	.loc	1 0 0                   # backgroundfield/integratefunction.cpp:0:0
	.cfi_startproc
# %bb.0:                                # %L.entry
	pushq	%rbp
	.cfi_def_cfa_offset 16
	.cfi_offset %rbp, -16
	movq	%rsp, %rbp
	.cfi_def_cfa_register %rbp
.Ltmp78:
	.loc	1 29 1 prologue_end     # backgroundfield/integratefunction.cpp:29:1
	movl	$8, %esi
	popq	%rbp
	.cfi_def_cfa %rsp, 8
	jmp	_ZdlPvm                 # TAILCALL
.Ltmp79:
.Lfunc_end4:
	.size	_ZN11T1DFunctionD0Ev, .Lfunc_end4-_ZN11T1DFunctionD0Ev
	.cfi_endproc
                                        # -- End function
	.weak	_ZN11T2DFunctionD1Ev    # -- Begin function _ZN11T2DFunctionD1Ev
	.p2align	4, 0x90
	.type	_ZN11T2DFunctionD1Ev,@function
_ZN11T2DFunctionD1Ev:                   # @_ZN11T2DFunctionD1Ev
.Lfunc_begin5:
	.loc	2 30 0                  # backgroundfield/functions.hpp:30:0
	.cfi_startproc
# %bb.0:                                # %L.entry
	#DEBUG_VALUE: ~T2DFunction: <- $rdi
	#DEBUG_VALUE: ~T2DFunction: <- $rdi
	pushq	%rbp
	.cfi_def_cfa_offset 16
	.cfi_offset %rbp, -16
	movq	%rsp, %rbp
	.cfi_def_cfa_register %rbp
.Ltmp80:
	#DEBUG_VALUE:  <- $rdi
	#DEBUG_VALUE:  <- $rdi
	.loc	2 30 1 prologue_end     # backgroundfield/functions.hpp:30:1
	movq	$_ZTV11T2DFunction+16, (%rdi)
	popq	%rbp
	.cfi_def_cfa %rsp, 8
	retq
.Ltmp81:
.Lfunc_end5:
	.size	_ZN11T2DFunctionD1Ev, .Lfunc_end5-_ZN11T2DFunctionD1Ev
	.cfi_endproc
                                        # -- End function
	.weak	_ZN11T2DFunctionD0Ev    # -- Begin function _ZN11T2DFunctionD0Ev
	.p2align	4, 0x90
	.type	_ZN11T2DFunctionD0Ev,@function
_ZN11T2DFunctionD0Ev:                   # @_ZN11T2DFunctionD0Ev
.Lfunc_begin6:
	.loc	1 0 0                   # backgroundfield/integratefunction.cpp:0:0
	.cfi_startproc
# %bb.0:                                # %L.entry
	pushq	%rbp
	.cfi_def_cfa_offset 16
	.cfi_offset %rbp, -16
	movq	%rsp, %rbp
	.cfi_def_cfa_register %rbp
.Ltmp82:
	.loc	1 30 1 prologue_end     # backgroundfield/integratefunction.cpp:30:1
	movl	$8, %esi
	popq	%rbp
	.cfi_def_cfa %rsp, 8
	jmp	_ZdlPvm                 # TAILCALL
.Ltmp83:
.Lfunc_end6:
	.size	_ZN11T2DFunctionD0Ev, .Lfunc_end6-_ZN11T2DFunctionD0Ev
	.cfi_endproc
                                        # -- End function
	.weak	_ZNK8T3D_fix14callEdd   # -- Begin function _ZNK8T3D_fix14callEdd
	.p2align	4, 0x90
	.type	_ZNK8T3D_fix14callEdd,@function
_ZNK8T3D_fix14callEdd:                  # @_ZNK8T3D_fix14callEdd
.Lfunc_begin7:
	.loc	2 63 0                  # backgroundfield/functions.hpp:63:0
	.cfi_startproc
# %bb.0:                                # %L.entry
	#DEBUG_VALUE: call: <- $rdi
	#DEBUG_VALUE: call:y <- $xmm0
	#DEBUG_VALUE: call:z <- $xmm1
	pushq	%rbp
	.cfi_def_cfa_offset 16
	.cfi_offset %rbp, -16
	movq	%rsp, %rbp
	.cfi_def_cfa_register %rbp
.Ltmp84:
	#DEBUG_VALUE:  <- $rdi
	#DEBUG_VALUE: y <- $xmm0
	#DEBUG_VALUE: z <- $xmm1
	vmovaps	%xmm1, %xmm2
	vmovaps	%xmm0, %xmm1
.Ltmp85:
	#DEBUG_VALUE: z <- $xmm2
	#DEBUG_VALUE: call:z <- $xmm2
	#DEBUG_VALUE: y <- $xmm1
	#DEBUG_VALUE: call:y <- $xmm1
	#DEBUG_VALUE:  <- $rdi
	#DEBUG_VALUE: call: <- $rdi
	.loc	2 63 1 prologue_end     # backgroundfield/functions.hpp:63:1
	movq	8(%rdi), %rax
	vmovsd	16(%rdi), %xmm0         # xmm0 = mem[0],zero
	movq	(%rax), %rcx
	movq	(%rcx), %rcx
	movq	%rax, %rdi
.Ltmp86:
	#DEBUG_VALUE: z <- $xmm2
	#DEBUG_VALUE: call:z <- $xmm2
	#DEBUG_VALUE: y <- $xmm1
	#DEBUG_VALUE: call:y <- $xmm1
	popq	%rbp
	.cfi_def_cfa %rsp, 8
	jmpq	*%rcx                   # TAILCALL
.Ltmp87:
.Lfunc_end7:
	.size	_ZNK8T3D_fix14callEdd, .Lfunc_end7-_ZNK8T3D_fix14callEdd
	.cfi_endproc
                                        # -- End function
	.weak	_ZN8T3D_fix1D1Ev        # -- Begin function _ZN8T3D_fix1D1Ev
	.p2align	4, 0x90
	.type	_ZN8T3D_fix1D1Ev,@function
_ZN8T3D_fix1D1Ev:                       # @_ZN8T3D_fix1D1Ev
.Lfunc_begin8:
	.loc	2 64 0                  # backgroundfield/functions.hpp:64:0
	.cfi_startproc
# %bb.0:                                # %L.entry
	#DEBUG_VALUE: ~T3D_fix1: <- $rdi
	#DEBUG_VALUE: ~T3D_fix1: <- $rdi
	pushq	%rbp
	.cfi_def_cfa_offset 16
	.cfi_offset %rbp, -16
	movq	%rsp, %rbp
	.cfi_def_cfa_register %rbp
.Ltmp88:
	#DEBUG_VALUE:  <- $rdi
	#DEBUG_VALUE:  <- $rdi
	.loc	2 64 1 prologue_end     # backgroundfield/functions.hpp:64:1
	movq	$_ZTV11T2DFunction+16, (%rdi)
	popq	%rbp
	.cfi_def_cfa %rsp, 8
	retq
.Ltmp89:
.Lfunc_end8:
	.size	_ZN8T3D_fix1D1Ev, .Lfunc_end8-_ZN8T3D_fix1D1Ev
	.cfi_endproc
                                        # -- End function
	.weak	_ZN8T3D_fix1D0Ev        # -- Begin function _ZN8T3D_fix1D0Ev
	.p2align	4, 0x90
	.type	_ZN8T3D_fix1D0Ev,@function
_ZN8T3D_fix1D0Ev:                       # @_ZN8T3D_fix1D0Ev
.Lfunc_begin9:
	.loc	1 0 0                   # backgroundfield/integratefunction.cpp:0:0
	.cfi_startproc
# %bb.0:                                # %L.entry
	pushq	%rbp
	.cfi_def_cfa_offset 16
	.cfi_offset %rbp, -16
	movq	%rsp, %rbp
	.cfi_def_cfa_register %rbp
.Ltmp90:
	.loc	1 64 1 prologue_end     # backgroundfield/integratefunction.cpp:64:1
	movl	$24, %esi
	popq	%rbp
	.cfi_def_cfa %rsp, 8
	jmp	_ZdlPvm                 # TAILCALL
.Ltmp91:
.Lfunc_end9:
	.size	_ZN8T3D_fix1D0Ev, .Lfunc_end9-_ZN8T3D_fix1D0Ev
	.cfi_endproc
                                        # -- End function
	.weak	_ZNK8T3D_fix24callEdd   # -- Begin function _ZNK8T3D_fix24callEdd
	.p2align	4, 0x90
	.type	_ZNK8T3D_fix24callEdd,@function
_ZNK8T3D_fix24callEdd:                  # @_ZNK8T3D_fix24callEdd
.Lfunc_begin10:
	.loc	2 73 0                  # backgroundfield/functions.hpp:73:0
	.cfi_startproc
# %bb.0:                                # %L.entry
	#DEBUG_VALUE: call: <- $rdi
	#DEBUG_VALUE: call:x <- $xmm0
	#DEBUG_VALUE: call:z <- $xmm1
	pushq	%rbp
	.cfi_def_cfa_offset 16
	.cfi_offset %rbp, -16
	movq	%rsp, %rbp
	.cfi_def_cfa_register %rbp
.Ltmp92:
	#DEBUG_VALUE:  <- $rdi
	#DEBUG_VALUE: x <- $xmm0
	#DEBUG_VALUE: z <- $xmm1
	vmovaps	%xmm1, %xmm2
.Ltmp93:
	#DEBUG_VALUE: z <- $xmm2
	#DEBUG_VALUE: call:z <- $xmm2
	#DEBUG_VALUE: x <- $xmm0
	#DEBUG_VALUE: call:x <- $xmm0
	#DEBUG_VALUE:  <- $rdi
	#DEBUG_VALUE: call: <- $rdi
	.loc	2 73 1 prologue_end     # backgroundfield/functions.hpp:73:1
	movq	8(%rdi), %rax
	vmovsd	16(%rdi), %xmm1         # xmm1 = mem[0],zero
	movq	(%rax), %rcx
	movq	(%rcx), %rcx
	movq	%rax, %rdi
.Ltmp94:
	#DEBUG_VALUE: z <- $xmm2
	#DEBUG_VALUE: call:z <- $xmm2
	#DEBUG_VALUE: x <- $xmm0
	#DEBUG_VALUE: call:x <- $xmm0
	popq	%rbp
	.cfi_def_cfa %rsp, 8
	jmpq	*%rcx                   # TAILCALL
.Ltmp95:
.Lfunc_end10:
	.size	_ZNK8T3D_fix24callEdd, .Lfunc_end10-_ZNK8T3D_fix24callEdd
	.cfi_endproc
                                        # -- End function
	.weak	_ZN8T3D_fix2D1Ev        # -- Begin function _ZN8T3D_fix2D1Ev
	.p2align	4, 0x90
	.type	_ZN8T3D_fix2D1Ev,@function
_ZN8T3D_fix2D1Ev:                       # @_ZN8T3D_fix2D1Ev
.Lfunc_begin11:
	.loc	2 74 0                  # backgroundfield/functions.hpp:74:0
	.cfi_startproc
# %bb.0:                                # %L.entry
	#DEBUG_VALUE: ~T3D_fix2: <- $rdi
	#DEBUG_VALUE: ~T3D_fix2: <- $rdi
	pushq	%rbp
	.cfi_def_cfa_offset 16
	.cfi_offset %rbp, -16
	movq	%rsp, %rbp
	.cfi_def_cfa_register %rbp
.Ltmp96:
	#DEBUG_VALUE:  <- $rdi
	#DEBUG_VALUE:  <- $rdi
	.loc	2 74 1 prologue_end     # backgroundfield/functions.hpp:74:1
	movq	$_ZTV11T2DFunction+16, (%rdi)
	popq	%rbp
	.cfi_def_cfa %rsp, 8
	retq
.Ltmp97:
.Lfunc_end11:
	.size	_ZN8T3D_fix2D1Ev, .Lfunc_end11-_ZN8T3D_fix2D1Ev
	.cfi_endproc
                                        # -- End function
	.weak	_ZN8T3D_fix2D0Ev        # -- Begin function _ZN8T3D_fix2D0Ev
	.p2align	4, 0x90
	.type	_ZN8T3D_fix2D0Ev,@function
_ZN8T3D_fix2D0Ev:                       # @_ZN8T3D_fix2D0Ev
.Lfunc_begin12:
	.loc	1 0 0                   # backgroundfield/integratefunction.cpp:0:0
	.cfi_startproc
# %bb.0:                                # %L.entry
	pushq	%rbp
	.cfi_def_cfa_offset 16
	.cfi_offset %rbp, -16
	movq	%rsp, %rbp
	.cfi_def_cfa_register %rbp
.Ltmp98:
	.loc	1 74 1 prologue_end     # backgroundfield/integratefunction.cpp:74:1
	movl	$24, %esi
	popq	%rbp
	.cfi_def_cfa %rsp, 8
	jmp	_ZdlPvm                 # TAILCALL
.Ltmp99:
.Lfunc_end12:
	.size	_ZN8T3D_fix2D0Ev, .Lfunc_end12-_ZN8T3D_fix2D0Ev
	.cfi_endproc
                                        # -- End function
	.weak	_ZNK8T3D_fix34callEdd   # -- Begin function _ZNK8T3D_fix34callEdd
	.p2align	4, 0x90
	.type	_ZNK8T3D_fix34callEdd,@function
_ZNK8T3D_fix34callEdd:                  # @_ZNK8T3D_fix34callEdd
.Lfunc_begin13:
	.loc	2 83 0                  # backgroundfield/functions.hpp:83:0
	.cfi_startproc
# %bb.0:                                # %L.entry
	#DEBUG_VALUE: call: <- $rdi
	#DEBUG_VALUE: call: <- $rdi
	#DEBUG_VALUE: call:x <- $xmm0
	#DEBUG_VALUE: call:x <- $xmm0
	#DEBUG_VALUE: call:y <- $xmm1
	#DEBUG_VALUE: call:y <- $xmm1
	pushq	%rbp
	.cfi_def_cfa_offset 16
	.cfi_offset %rbp, -16
	movq	%rsp, %rbp
	.cfi_def_cfa_register %rbp
.Ltmp100:
	#DEBUG_VALUE:  <- $rdi
	#DEBUG_VALUE:  <- $rdi
	#DEBUG_VALUE: x <- $xmm0
	#DEBUG_VALUE: x <- $xmm0
	#DEBUG_VALUE: y <- $xmm1
	#DEBUG_VALUE: y <- $xmm1
	.loc	2 83 1 prologue_end     # backgroundfield/functions.hpp:83:1
	movq	8(%rdi), %rax
	vmovsd	16(%rdi), %xmm2         # xmm2 = mem[0],zero
	movq	(%rax), %rcx
	movq	(%rcx), %rcx
	movq	%rax, %rdi
.Ltmp101:
	#DEBUG_VALUE: y <- $xmm1
	#DEBUG_VALUE: call:y <- $xmm1
	#DEBUG_VALUE: x <- $xmm0
	#DEBUG_VALUE: call:x <- $xmm0
	popq	%rbp
	.cfi_def_cfa %rsp, 8
	jmpq	*%rcx                   # TAILCALL
.Ltmp102:
.Lfunc_end13:
	.size	_ZNK8T3D_fix34callEdd, .Lfunc_end13-_ZNK8T3D_fix34callEdd
	.cfi_endproc
                                        # -- End function
	.weak	_ZN8T3D_fix3D1Ev        # -- Begin function _ZN8T3D_fix3D1Ev
	.p2align	4, 0x90
	.type	_ZN8T3D_fix3D1Ev,@function
_ZN8T3D_fix3D1Ev:                       # @_ZN8T3D_fix3D1Ev
.Lfunc_begin14:
	.loc	2 84 0                  # backgroundfield/functions.hpp:84:0
	.cfi_startproc
# %bb.0:                                # %L.entry
	#DEBUG_VALUE: ~T3D_fix3: <- $rdi
	#DEBUG_VALUE: ~T3D_fix3: <- $rdi
	pushq	%rbp
	.cfi_def_cfa_offset 16
	.cfi_offset %rbp, -16
	movq	%rsp, %rbp
	.cfi_def_cfa_register %rbp
.Ltmp103:
	#DEBUG_VALUE:  <- $rdi
	#DEBUG_VALUE:  <- $rdi
	.loc	2 84 1 prologue_end     # backgroundfield/functions.hpp:84:1
	movq	$_ZTV11T2DFunction+16, (%rdi)
	popq	%rbp
	.cfi_def_cfa %rsp, 8
	retq
.Ltmp104:
.Lfunc_end14:
	.size	_ZN8T3D_fix3D1Ev, .Lfunc_end14-_ZN8T3D_fix3D1Ev
	.cfi_endproc
                                        # -- End function
	.weak	_ZN8T3D_fix3D0Ev        # -- Begin function _ZN8T3D_fix3D0Ev
	.p2align	4, 0x90
	.type	_ZN8T3D_fix3D0Ev,@function
_ZN8T3D_fix3D0Ev:                       # @_ZN8T3D_fix3D0Ev
.Lfunc_begin15:
	.loc	1 0 0                   # backgroundfield/integratefunction.cpp:0:0
	.cfi_startproc
# %bb.0:                                # %L.entry
	pushq	%rbp
	.cfi_def_cfa_offset 16
	.cfi_offset %rbp, -16
	movq	%rsp, %rbp
	.cfi_def_cfa_register %rbp
.Ltmp105:
	.loc	1 84 1 prologue_end     # backgroundfield/integratefunction.cpp:84:1
	movl	$24, %esi
	popq	%rbp
	.cfi_def_cfa %rsp, 8
	jmp	_ZdlPvm                 # TAILCALL
.Ltmp106:
.Lfunc_end15:
	.size	_ZN8T3D_fix3D0Ev, .Lfunc_end15-_ZN8T3D_fix3D0Ev
	.cfi_endproc
                                        # -- End function
	.weak	_ZNK9T3D_fix124callEd   # -- Begin function _ZNK9T3D_fix124callEd
	.p2align	4, 0x90
	.type	_ZNK9T3D_fix124callEd,@function
_ZNK9T3D_fix124callEd:                  # @_ZNK9T3D_fix124callEd
.Lfunc_begin16:
	.loc	2 95 0                  # backgroundfield/functions.hpp:95:0
	.cfi_startproc
# %bb.0:                                # %L.entry
	#DEBUG_VALUE: call: <- $rdi
	#DEBUG_VALUE: call:z <- $xmm0
	pushq	%rbp
	.cfi_def_cfa_offset 16
	.cfi_offset %rbp, -16
	movq	%rsp, %rbp
	.cfi_def_cfa_register %rbp
.Ltmp107:
	#DEBUG_VALUE:  <- $rdi
	#DEBUG_VALUE: z <- $xmm0
	vmovaps	%xmm0, %xmm2
.Ltmp108:
	#DEBUG_VALUE: z <- $xmm2
	#DEBUG_VALUE: call:z <- $xmm2
	#DEBUG_VALUE:  <- $rdi
	#DEBUG_VALUE: call: <- $rdi
	.loc	2 95 1 prologue_end     # backgroundfield/functions.hpp:95:1
	movq	8(%rdi), %rax
	vmovsd	16(%rdi), %xmm0         # xmm0 = mem[0],zero
	vmovsd	24(%rdi), %xmm1         # xmm1 = mem[0],zero
	movq	(%rax), %rcx
	movq	(%rcx), %rcx
	movq	%rax, %rdi
.Ltmp109:
	#DEBUG_VALUE: z <- $xmm2
	#DEBUG_VALUE: call:z <- $xmm2
	popq	%rbp
	.cfi_def_cfa %rsp, 8
	jmpq	*%rcx                   # TAILCALL
.Ltmp110:
.Lfunc_end16:
	.size	_ZNK9T3D_fix124callEd, .Lfunc_end16-_ZNK9T3D_fix124callEd
	.cfi_endproc
                                        # -- End function
	.weak	_ZN9T3D_fix12D1Ev       # -- Begin function _ZN9T3D_fix12D1Ev
	.p2align	4, 0x90
	.type	_ZN9T3D_fix12D1Ev,@function
_ZN9T3D_fix12D1Ev:                      # @_ZN9T3D_fix12D1Ev
.Lfunc_begin17:
	.loc	2 96 0                  # backgroundfield/functions.hpp:96:0
	.cfi_startproc
# %bb.0:                                # %L.entry
	#DEBUG_VALUE: ~T3D_fix12: <- $rdi
	#DEBUG_VALUE: ~T3D_fix12: <- $rdi
	pushq	%rbp
	.cfi_def_cfa_offset 16
	.cfi_offset %rbp, -16
	movq	%rsp, %rbp
	.cfi_def_cfa_register %rbp
.Ltmp111:
	#DEBUG_VALUE:  <- $rdi
	#DEBUG_VALUE:  <- $rdi
	.loc	2 96 1 prologue_end     # backgroundfield/functions.hpp:96:1
	movq	$_ZTV11T1DFunction+16, (%rdi)
	popq	%rbp
	.cfi_def_cfa %rsp, 8
	retq
.Ltmp112:
.Lfunc_end17:
	.size	_ZN9T3D_fix12D1Ev, .Lfunc_end17-_ZN9T3D_fix12D1Ev
	.cfi_endproc
                                        # -- End function
	.weak	_ZN9T3D_fix12D0Ev       # -- Begin function _ZN9T3D_fix12D0Ev
	.p2align	4, 0x90
	.type	_ZN9T3D_fix12D0Ev,@function
_ZN9T3D_fix12D0Ev:                      # @_ZN9T3D_fix12D0Ev
.Lfunc_begin18:
	.loc	1 0 0                   # backgroundfield/integratefunction.cpp:0:0
	.cfi_startproc
# %bb.0:                                # %L.entry
	pushq	%rbp
	.cfi_def_cfa_offset 16
	.cfi_offset %rbp, -16
	movq	%rsp, %rbp
	.cfi_def_cfa_register %rbp
.Ltmp113:
	.loc	1 96 1 prologue_end     # backgroundfield/integratefunction.cpp:96:1
	movl	$32, %esi
	popq	%rbp
	.cfi_def_cfa %rsp, 8
	jmp	_ZdlPvm                 # TAILCALL
.Ltmp114:
.Lfunc_end18:
	.size	_ZN9T3D_fix12D0Ev, .Lfunc_end18-_ZN9T3D_fix12D0Ev
	.cfi_endproc
                                        # -- End function
	.weak	_ZNK9T3D_fix134callEd   # -- Begin function _ZNK9T3D_fix134callEd
	.p2align	4, 0x90
	.type	_ZNK9T3D_fix134callEd,@function
_ZNK9T3D_fix134callEd:                  # @_ZNK9T3D_fix134callEd
.Lfunc_begin19:
	.loc	2 105 0                 # backgroundfield/functions.hpp:105:0
	.cfi_startproc
# %bb.0:                                # %L.entry
	#DEBUG_VALUE: call: <- $rdi
	#DEBUG_VALUE: call:y <- $xmm0
	pushq	%rbp
	.cfi_def_cfa_offset 16
	.cfi_offset %rbp, -16
	movq	%rsp, %rbp
	.cfi_def_cfa_register %rbp
.Ltmp115:
	#DEBUG_VALUE:  <- $rdi
	#DEBUG_VALUE: y <- $xmm0
	vmovaps	%xmm0, %xmm1
.Ltmp116:
	#DEBUG_VALUE: y <- $xmm1
	#DEBUG_VALUE: call:y <- $xmm1
	#DEBUG_VALUE:  <- $rdi
	#DEBUG_VALUE: call: <- $rdi
	.loc	2 105 1 prologue_end    # backgroundfield/functions.hpp:105:1
	movq	8(%rdi), %rax
	vmovsd	16(%rdi), %xmm0         # xmm0 = mem[0],zero
	vmovsd	24(%rdi), %xmm2         # xmm2 = mem[0],zero
	movq	(%rax), %rcx
	movq	(%rcx), %rcx
	movq	%rax, %rdi
.Ltmp117:
	#DEBUG_VALUE: y <- $xmm1
	#DEBUG_VALUE: call:y <- $xmm1
	popq	%rbp
	.cfi_def_cfa %rsp, 8
	jmpq	*%rcx                   # TAILCALL
.Ltmp118:
.Lfunc_end19:
	.size	_ZNK9T3D_fix134callEd, .Lfunc_end19-_ZNK9T3D_fix134callEd
	.cfi_endproc
                                        # -- End function
	.weak	_ZN9T3D_fix13D1Ev       # -- Begin function _ZN9T3D_fix13D1Ev
	.p2align	4, 0x90
	.type	_ZN9T3D_fix13D1Ev,@function
_ZN9T3D_fix13D1Ev:                      # @_ZN9T3D_fix13D1Ev
.Lfunc_begin20:
	.loc	2 106 0                 # backgroundfield/functions.hpp:106:0
	.cfi_startproc
# %bb.0:                                # %L.entry
	#DEBUG_VALUE: ~T3D_fix13: <- $rdi
	#DEBUG_VALUE: ~T3D_fix13: <- $rdi
	pushq	%rbp
	.cfi_def_cfa_offset 16
	.cfi_offset %rbp, -16
	movq	%rsp, %rbp
	.cfi_def_cfa_register %rbp
.Ltmp119:
	#DEBUG_VALUE:  <- $rdi
	#DEBUG_VALUE:  <- $rdi
	.loc	2 106 1 prologue_end    # backgroundfield/functions.hpp:106:1
	movq	$_ZTV11T1DFunction+16, (%rdi)
	popq	%rbp
	.cfi_def_cfa %rsp, 8
	retq
.Ltmp120:
.Lfunc_end20:
	.size	_ZN9T3D_fix13D1Ev, .Lfunc_end20-_ZN9T3D_fix13D1Ev
	.cfi_endproc
                                        # -- End function
	.weak	_ZN9T3D_fix13D0Ev       # -- Begin function _ZN9T3D_fix13D0Ev
	.p2align	4, 0x90
	.type	_ZN9T3D_fix13D0Ev,@function
_ZN9T3D_fix13D0Ev:                      # @_ZN9T3D_fix13D0Ev
.Lfunc_begin21:
	.loc	1 0 0                   # backgroundfield/integratefunction.cpp:0:0
	.cfi_startproc
# %bb.0:                                # %L.entry
	pushq	%rbp
	.cfi_def_cfa_offset 16
	.cfi_offset %rbp, -16
	movq	%rsp, %rbp
	.cfi_def_cfa_register %rbp
.Ltmp121:
	.loc	1 106 1 prologue_end    # backgroundfield/integratefunction.cpp:106:1
	movl	$32, %esi
	popq	%rbp
	.cfi_def_cfa %rsp, 8
	jmp	_ZdlPvm                 # TAILCALL
.Ltmp122:
.Lfunc_end21:
	.size	_ZN9T3D_fix13D0Ev, .Lfunc_end21-_ZN9T3D_fix13D0Ev
	.cfi_endproc
                                        # -- End function
	.weak	_ZNK9T3D_fix234callEd   # -- Begin function _ZNK9T3D_fix234callEd
	.p2align	4, 0x90
	.type	_ZNK9T3D_fix234callEd,@function
_ZNK9T3D_fix234callEd:                  # @_ZNK9T3D_fix234callEd
.Lfunc_begin22:
	.loc	2 115 0                 # backgroundfield/functions.hpp:115:0
	.cfi_startproc
# %bb.0:                                # %L.entry
	#DEBUG_VALUE: call: <- $rdi
	#DEBUG_VALUE: call: <- $rdi
	#DEBUG_VALUE: call:x <- $xmm0
	#DEBUG_VALUE: call:x <- $xmm0
	pushq	%rbp
	.cfi_def_cfa_offset 16
	.cfi_offset %rbp, -16
	movq	%rsp, %rbp
	.cfi_def_cfa_register %rbp
.Ltmp123:
	#DEBUG_VALUE:  <- $rdi
	#DEBUG_VALUE:  <- $rdi
	#DEBUG_VALUE: x <- $xmm0
	#DEBUG_VALUE: x <- $xmm0
	.loc	2 115 1 prologue_end    # backgroundfield/functions.hpp:115:1
	movq	8(%rdi), %rax
	vmovsd	16(%rdi), %xmm1         # xmm1 = mem[0],zero
	vmovsd	24(%rdi), %xmm2         # xmm2 = mem[0],zero
	movq	(%rax), %rcx
	movq	(%rcx), %rcx
	movq	%rax, %rdi
.Ltmp124:
	#DEBUG_VALUE: x <- $xmm0
	#DEBUG_VALUE: call:x <- $xmm0
	popq	%rbp
	.cfi_def_cfa %rsp, 8
	jmpq	*%rcx                   # TAILCALL
.Ltmp125:
.Lfunc_end22:
	.size	_ZNK9T3D_fix234callEd, .Lfunc_end22-_ZNK9T3D_fix234callEd
	.cfi_endproc
                                        # -- End function
	.weak	_ZN9T3D_fix23D1Ev       # -- Begin function _ZN9T3D_fix23D1Ev
	.p2align	4, 0x90
	.type	_ZN9T3D_fix23D1Ev,@function
_ZN9T3D_fix23D1Ev:                      # @_ZN9T3D_fix23D1Ev
.Lfunc_begin23:
	.loc	2 116 0                 # backgroundfield/functions.hpp:116:0
	.cfi_startproc
# %bb.0:                                # %L.entry
	#DEBUG_VALUE: ~T3D_fix23: <- $rdi
	#DEBUG_VALUE: ~T3D_fix23: <- $rdi
	pushq	%rbp
	.cfi_def_cfa_offset 16
	.cfi_offset %rbp, -16
	movq	%rsp, %rbp
	.cfi_def_cfa_register %rbp
.Ltmp126:
	#DEBUG_VALUE:  <- $rdi
	#DEBUG_VALUE:  <- $rdi
	.loc	2 116 1 prologue_end    # backgroundfield/functions.hpp:116:1
	movq	$_ZTV11T1DFunction+16, (%rdi)
	popq	%rbp
	.cfi_def_cfa %rsp, 8
	retq
.Ltmp127:
.Lfunc_end23:
	.size	_ZN9T3D_fix23D1Ev, .Lfunc_end23-_ZN9T3D_fix23D1Ev
	.cfi_endproc
                                        # -- End function
	.weak	_ZN9T3D_fix23D0Ev       # -- Begin function _ZN9T3D_fix23D0Ev
	.p2align	4, 0x90
	.type	_ZN9T3D_fix23D0Ev,@function
_ZN9T3D_fix23D0Ev:                      # @_ZN9T3D_fix23D0Ev
.Lfunc_begin24:
	.loc	1 0 0                   # backgroundfield/integratefunction.cpp:0:0
	.cfi_startproc
# %bb.0:                                # %L.entry
	pushq	%rbp
	.cfi_def_cfa_offset 16
	.cfi_offset %rbp, -16
	movq	%rsp, %rbp
	.cfi_def_cfa_register %rbp
.Ltmp128:
	.loc	1 116 1 prologue_end    # backgroundfield/integratefunction.cpp:116:1
	movl	$32, %esi
	popq	%rbp
	.cfi_def_cfa %rsp, 8
	jmp	_ZdlPvm                 # TAILCALL
.Ltmp129:
.Lfunc_end24:
	.size	_ZN9T3D_fix23D0Ev, .Lfunc_end24-_ZN9T3D_fix23D0Ev
	.cfi_endproc
                                        # -- End function
	.globl	__sti___37_backgroundfield_integratefunction_cpp_f19cb1ee # -- Begin function __sti___37_backgroundfield_integratefunction_cpp_f19cb1ee
	.p2align	4, 0x90
	.type	__sti___37_backgroundfield_integratefunction_cpp_f19cb1ee,@function
__sti___37_backgroundfield_integratefunction_cpp_f19cb1ee: # @__sti___37_backgroundfield_integratefunction_cpp_f19cb1ee
.Lfunc_begin25:
	.loc	1 0 0                   # backgroundfield/integratefunction.cpp:0:0
	.cfi_startproc
# %bb.0:                                # %L.entry
	pushq	%rbp
	.cfi_def_cfa_offset 16
	.cfi_offset %rbp, -16
	movq	%rsp, %rbp
	.cfi_def_cfa_register %rbp
.Ltmp130:
	.loc	1 74 1 prologue_end     # backgroundfield/integratefunction.cpp:74:1
	cmpl	$1, __I___37_backgroundfield_integratefunction_cpp_f19cb1ee(%rip)
	jne	.LBB25_2
# %bb.1:                                # %L.B0034
	popq	%rbp
	.cfi_def_cfa %rsp, 8
	retq
.LBB25_2:                               # %L.B0290
	.cfi_def_cfa %rbp, 16
	movl	$1, __I___37_backgroundfield_integratefunction_cpp_f19cb1ee(%rip)
	movl	$_ZN59_INTERNAL_37_backgroundfield_integratefunction_cpp_f19cb1eeSt8__ioinitE, %edi
	callq	_ZNSt8ios_base4InitC1Ev
	movl	$_ZNSt8ios_base4InitD1Ev, %edi
	movl	$_ZN59_INTERNAL_37_backgroundfield_integratefunction_cpp_f19cb1eeSt8__ioinitE, %esi
	movl	$__dso_handle, %edx
	popq	%rbp
	.cfi_def_cfa %rsp, 8
	jmp	__cxa_atexit            # TAILCALL
.Ltmp131:
.Lfunc_end25:
	.size	__sti___37_backgroundfield_integratefunction_cpp_f19cb1ee, .Lfunc_end25-__sti___37_backgroundfield_integratefunction_cpp_f19cb1ee
	.cfi_endproc
                                        # -- End function
	.type	_ZTV11T1DFunction,@object # @_ZTV11T1DFunction
	.data
	.weak	_ZTV11T1DFunction
	.p2align	4
_ZTV11T1DFunction:
	.quad	0
	.quad	_ZTI11T1DFunction
	.quad	__cxa_pure_virtual
	.quad	_ZN11T1DFunctionD1Ev
	.quad	_ZN11T1DFunctionD0Ev
	.size	_ZTV11T1DFunction, 40

	.type	_ZTV11T2DFunction,@object # @_ZTV11T2DFunction
	.weak	_ZTV11T2DFunction
	.p2align	4
_ZTV11T2DFunction:
	.quad	0
	.quad	_ZTI11T2DFunction
	.quad	__cxa_pure_virtual
	.quad	_ZN11T2DFunctionD1Ev
	.quad	_ZN11T2DFunctionD0Ev
	.size	_ZTV11T2DFunction, 40

	.type	_ZTV8T3D_fix1,@object   # @_ZTV8T3D_fix1
	.weak	_ZTV8T3D_fix1
	.p2align	4
_ZTV8T3D_fix1:
	.quad	0
	.quad	_ZTI8T3D_fix1
	.quad	_ZNK8T3D_fix14callEdd
	.quad	_ZN8T3D_fix1D1Ev
	.quad	_ZN8T3D_fix1D0Ev
	.size	_ZTV8T3D_fix1, 40

	.type	_ZTV8T3D_fix2,@object   # @_ZTV8T3D_fix2
	.weak	_ZTV8T3D_fix2
	.p2align	4
_ZTV8T3D_fix2:
	.quad	0
	.quad	_ZTI8T3D_fix2
	.quad	_ZNK8T3D_fix24callEdd
	.quad	_ZN8T3D_fix2D1Ev
	.quad	_ZN8T3D_fix2D0Ev
	.size	_ZTV8T3D_fix2, 40

	.type	_ZTV8T3D_fix3,@object   # @_ZTV8T3D_fix3
	.weak	_ZTV8T3D_fix3
	.p2align	4
_ZTV8T3D_fix3:
	.quad	0
	.quad	_ZTI8T3D_fix3
	.quad	_ZNK8T3D_fix34callEdd
	.quad	_ZN8T3D_fix3D1Ev
	.quad	_ZN8T3D_fix3D0Ev
	.size	_ZTV8T3D_fix3, 40

	.type	_ZTV9T3D_fix12,@object  # @_ZTV9T3D_fix12
	.weak	_ZTV9T3D_fix12
	.p2align	4
_ZTV9T3D_fix12:
	.quad	0
	.quad	_ZTI9T3D_fix12
	.quad	_ZNK9T3D_fix124callEd
	.quad	_ZN9T3D_fix12D1Ev
	.quad	_ZN9T3D_fix12D0Ev
	.size	_ZTV9T3D_fix12, 40

	.type	_ZTV9T3D_fix13,@object  # @_ZTV9T3D_fix13
	.weak	_ZTV9T3D_fix13
	.p2align	4
_ZTV9T3D_fix13:
	.quad	0
	.quad	_ZTI9T3D_fix13
	.quad	_ZNK9T3D_fix134callEd
	.quad	_ZN9T3D_fix13D1Ev
	.quad	_ZN9T3D_fix13D0Ev
	.size	_ZTV9T3D_fix13, 40

	.type	_ZTV9T3D_fix23,@object  # @_ZTV9T3D_fix23
	.weak	_ZTV9T3D_fix23
	.p2align	4
_ZTV9T3D_fix23:
	.quad	0
	.quad	_ZTI9T3D_fix23
	.quad	_ZNK9T3D_fix234callEd
	.quad	_ZN9T3D_fix23D1Ev
	.quad	_ZN9T3D_fix23D0Ev
	.size	_ZTV9T3D_fix23, 40

	.type	_ZTI11T1DFunction,@object # @_ZTI11T1DFunction
	.weak	_ZTI11T1DFunction
	.p2align	4
_ZTI11T1DFunction:
	.quad	_ZTVN10__cxxabiv117__class_type_infoE+16
	.quad	_ZTS11T1DFunction
	.size	_ZTI11T1DFunction, 16

	.type	_ZTI11T2DFunction,@object # @_ZTI11T2DFunction
	.weak	_ZTI11T2DFunction
	.p2align	4
_ZTI11T2DFunction:
	.quad	_ZTVN10__cxxabiv117__class_type_infoE+16
	.quad	_ZTS11T2DFunction
	.size	_ZTI11T2DFunction, 16

	.type	_ZTI8T3D_fix1,@object   # @_ZTI8T3D_fix1
	.weak	_ZTI8T3D_fix1
	.p2align	4
_ZTI8T3D_fix1:
	.quad	_ZTVN10__cxxabiv120__si_class_type_infoE+16
	.quad	_ZTS8T3D_fix1
	.quad	_ZTI11T2DFunction
	.size	_ZTI8T3D_fix1, 24

	.type	_ZTI8T3D_fix2,@object   # @_ZTI8T3D_fix2
	.weak	_ZTI8T3D_fix2
	.p2align	4
_ZTI8T3D_fix2:
	.quad	_ZTVN10__cxxabiv120__si_class_type_infoE+16
	.quad	_ZTS8T3D_fix2
	.quad	_ZTI11T2DFunction
	.size	_ZTI8T3D_fix2, 24

	.type	_ZTI8T3D_fix3,@object   # @_ZTI8T3D_fix3
	.weak	_ZTI8T3D_fix3
	.p2align	4
_ZTI8T3D_fix3:
	.quad	_ZTVN10__cxxabiv120__si_class_type_infoE+16
	.quad	_ZTS8T3D_fix3
	.quad	_ZTI11T2DFunction
	.size	_ZTI8T3D_fix3, 24

	.type	_ZTI9T3D_fix12,@object  # @_ZTI9T3D_fix12
	.weak	_ZTI9T3D_fix12
	.p2align	4
_ZTI9T3D_fix12:
	.quad	_ZTVN10__cxxabiv120__si_class_type_infoE+16
	.quad	_ZTS9T3D_fix12
	.quad	_ZTI11T1DFunction
	.size	_ZTI9T3D_fix12, 24

	.type	_ZTI9T3D_fix13,@object  # @_ZTI9T3D_fix13
	.weak	_ZTI9T3D_fix13
	.p2align	4
_ZTI9T3D_fix13:
	.quad	_ZTVN10__cxxabiv120__si_class_type_infoE+16
	.quad	_ZTS9T3D_fix13
	.quad	_ZTI11T1DFunction
	.size	_ZTI9T3D_fix13, 24

	.type	_ZTI9T3D_fix23,@object  # @_ZTI9T3D_fix23
	.weak	_ZTI9T3D_fix23
	.p2align	4
_ZTI9T3D_fix23:
	.quad	_ZTVN10__cxxabiv120__si_class_type_infoE+16
	.quad	_ZTS9T3D_fix23
	.quad	_ZTI11T1DFunction
	.size	_ZTI9T3D_fix23, 24

	.type	_ZTS11T1DFunction,@object # @_ZTS11T1DFunction
	.weak	_ZTS11T1DFunction
	.p2align	3
_ZTS11T1DFunction:
	.asciz	"11T1DFunction"
	.size	_ZTS11T1DFunction, 14

	.type	_ZTS11T2DFunction,@object # @_ZTS11T2DFunction
	.weak	_ZTS11T2DFunction
	.p2align	3
_ZTS11T2DFunction:
	.asciz	"11T2DFunction"
	.size	_ZTS11T2DFunction, 14

	.type	_ZTS8T3D_fix1,@object   # @_ZTS8T3D_fix1
	.weak	_ZTS8T3D_fix1
	.p2align	3
_ZTS8T3D_fix1:
	.asciz	"8T3D_fix1"
	.size	_ZTS8T3D_fix1, 10

	.type	_ZTS8T3D_fix2,@object   # @_ZTS8T3D_fix2
	.weak	_ZTS8T3D_fix2
	.p2align	3
_ZTS8T3D_fix2:
	.asciz	"8T3D_fix2"
	.size	_ZTS8T3D_fix2, 10

	.type	_ZTS8T3D_fix3,@object   # @_ZTS8T3D_fix3
	.weak	_ZTS8T3D_fix3
	.p2align	3
_ZTS8T3D_fix3:
	.asciz	"8T3D_fix3"
	.size	_ZTS8T3D_fix3, 10

	.type	_ZTS9T3D_fix12,@object  # @_ZTS9T3D_fix12
	.weak	_ZTS9T3D_fix12
	.p2align	3
_ZTS9T3D_fix12:
	.asciz	"9T3D_fix12"
	.size	_ZTS9T3D_fix12, 11

	.type	_ZTS9T3D_fix13,@object  # @_ZTS9T3D_fix13
	.weak	_ZTS9T3D_fix13
	.p2align	3
_ZTS9T3D_fix13:
	.asciz	"9T3D_fix13"
	.size	_ZTS9T3D_fix13, 11

	.type	_ZTS9T3D_fix23,@object  # @_ZTS9T3D_fix23
	.weak	_ZTS9T3D_fix23
	.p2align	3
_ZTS9T3D_fix23:
	.asciz	"9T3D_fix23"
	.size	_ZTS9T3D_fix23, 11

	.type	__I___37_backgroundfield_integratefunction_cpp_f19cb1ee,@object # @__I___37_backgroundfield_integratefunction_cpp_f19cb1ee
	.bss
	.globl	__I___37_backgroundfield_integratefunction_cpp_f19cb1ee
	.p2align	2
__I___37_backgroundfield_integratefunction_cpp_f19cb1ee:
	.long	0                       # 0x0
	.size	__I___37_backgroundfield_integratefunction_cpp_f19cb1ee, 4

	.type	_ZN59_INTERNAL_37_backgroundfield_integratefunction_cpp_f19cb1eeSt8__ioinitE,@object # @_ZN59_INTERNAL_37_backgroundfield_integratefunction_cpp_f19cb1eeSt8__ioinitE
	.local	_ZN59_INTERNAL_37_backgroundfield_integratefunction_cpp_f19cb1eeSt8__ioinitE
	.comm	_ZN59_INTERNAL_37_backgroundfield_integratefunction_cpp_f19cb1eeSt8__ioinitE,1,1
	.type	.S08496,@object         # @.S08496
	.section	.rodata,"a",@progbits
.S08496:
	.asciz	"*** SurfaceAverage  is bad\n"
	.size	.S08496, 28

	.type	.S08448,@object         # @.S08448
.S08448:
	.asciz	"*** lineAverage  is bad\n"
	.size	.S08448, 25

	.section	.init_array,"aw",@init_array
	.p2align	3
	.quad	__sti___37_backgroundfield_integratefunction_cpp_f19cb1ee
	.section	".note.GNU-stack","",@progbits