; ModuleID = 'projects/KHB/KHB.cpp'
target datalayout = "e-p:64:64-i64:64-f80:128-n8:16:32:64-S128"
target triple = "x86_64-pc-linux-gnu"
define internal void @pgCplus_compiled.() noinline {
L.entry:
	ret void
}

%struct._ZSt6vectorISt5arrayIdLm3EESaIS1_EE = type <{ %struct._ZSt12_Vector_baseISt5arrayIdLm3EESaIS1_EE}> 
%struct.ompi_request_t = type opaque
%struct._ZSt5arrayIP15ompi_datatype_tLm27EE = type <{ [27 x %struct.ompi_datatype_t*]}> 
%struct._Z6FsGridISt5arrayIdLm3EELi2EE = type <{ double, double, double, %struct._ZSt5arrayIdLm3EE, %struct.ompi_communicator_t*, i32, [4 x i8], %struct._ZSt6vectorIP14ompi_request_tSaIS1_EE, i32, %struct._ZSt5arrayIiLm27EE, %struct._ZSt6vectorIcSaIcEE, %struct._ZSt5arrayIiLm3EE, %struct._ZSt5arrayIiLm3EE, %struct._ZSt5arrayIbLm3EE, i8, %struct._ZSt5arrayIiLm3EE, %struct._ZSt5arrayIiLm3EE, %struct._ZSt5arrayIiLm3EE, %struct._ZSt5arrayIiLm3EE, [4 x i8], %struct.FsGridCouplingInformation*, %struct._ZSt5arrayIP15ompi_datatype_tLm27EE, %struct._ZSt5arrayIP15ompi_datatype_tLm27EE, %struct._ZSt6vectorISt5arrayIdLm3EESaIS1_EE}> 
%struct._ZSt12_Vector_baseISt5arrayIdLm3EESaIS1_EE = type <{ %struct._ZNSt12_Vector_baseISt5arrayIdLm3EESaIS1_EE12_Vector_implE}> 
%struct._ZNSt12_Vector_baseIcSaIcEE17_Vector_impl_dataE = type <{ i8*, i8*, i8*}> 
%struct._ZSt6vectorIiSaIiEE = type <{ %struct._ZSt12_Vector_baseIiSaIiEE}> 
%struct._ZSt12_Vector_baseIP14ompi_request_tSaIS1_EE = type <{ %struct._ZNSt12_Vector_baseIP14ompi_request_tSaIS1_EE12_Vector_implE}> 
%struct.ompi_communicator_t = type opaque
%struct._ZSt5arrayIdLm3EE = type <{ [3 x double]}> 
%struct._ZNSt12_Vector_baseISt5arrayIdLm3EESaIS1_EE17_Vector_impl_dataE = type <{ %struct._ZSt5arrayIdLm3EE*, %struct._ZSt5arrayIdLm3EE*, %struct._ZSt5arrayIdLm3EE*}> 
%struct._ZNSt12_Vector_baseIcSaIcEE12_Vector_implE = type <{ %struct._ZNSt12_Vector_baseIcSaIcEE17_Vector_impl_dataE}> 
%struct._ZNSt12_Vector_baseIP14ompi_request_tSaIS1_EE12_Vector_implE = type <{ %struct._ZNSt12_Vector_baseIP14ompi_request_tSaIS1_EE17_Vector_impl_dataE}> 
%struct._ZNSt12_Vector_baseIiSaIiEE12_Vector_implE = type <{ %struct._ZNSt12_Vector_baseIiSaIiEE17_Vector_impl_dataE}> 
%struct._ZSt12_Vector_baseIcSaIcEE = type <{ %struct._ZNSt12_Vector_baseIcSaIcEE12_Vector_implE}> 
%struct.FsGridCouplingInformation = type <{ %struct._ZSt6vectorIiSaIiEE}> 
%struct._ZNSt12_Vector_baseIP14ompi_request_tSaIS1_EE17_Vector_impl_dataE = type <{ %struct.ompi_request_t**, %struct.ompi_request_t**, %struct.ompi_request_t**}> 
%struct._ZSt5arrayIiLm27EE = type <{ [27 x i32]}> 
%struct._ZSt6vectorIcSaIcEE = type <{ %struct._ZSt12_Vector_baseIcSaIcEE}> 
%struct._ZSt5arrayIbLm3EE = type <{ [3 x i8]}> 
%struct._ZNSt12_Vector_baseIiSaIiEE17_Vector_impl_dataE = type <{ i32*, i32*, i32*}> 
%struct._ZSt5arrayIiLm3EE = type <{ [3 x i32]}> 
%struct._ZSt6vectorIP14ompi_request_tSaIS1_EE = type <{ %struct._ZSt12_Vector_baseIP14ompi_request_tSaIS1_EE}> 
%struct.ompi_datatype_t = type opaque
%struct._ZSt12_Vector_baseIiSaIiEE = type <{ %struct._ZNSt12_Vector_baseIiSaIiEE12_Vector_implE}> 
%struct._ZNSt12_Vector_baseISt5arrayIdLm3EESaIS1_EE12_Vector_implE = type <{ %struct._ZNSt12_Vector_baseISt5arrayIdLm3EESaIS1_EE17_Vector_impl_dataE}> 



define linkonce_odr i64 @_ZN6FsGridISt5arrayIdLm3EELi2EE16LocalIDForCoordsEiii(%struct._Z6FsGridISt5arrayIdLm3EELi2EE* %_T45785368_51716.arg, i32 signext %x.arg, i32 signext %y.arg, i32 signext %z.arg) #0 inlinehint !dbg !3964 {
L.entry:
	%_T45785368_51716.addr = alloca %struct._Z6FsGridISt5arrayIdLm3EELi2EE*, align 8
	%x.addr = alloca i32, align 4
	%y.addr = alloca i32, align 4
	%z.addr = alloca i32, align 4
	%index.addr = alloca i64, align 8

	call void @llvm.dbg.declare (metadata %struct._Z6FsGridISt5arrayIdLm3EELi2EE** %_T45785368_51716.addr, metadata !4016, metadata !4017), !dbg !3965
	store %struct._Z6FsGridISt5arrayIdLm3EELi2EE* %_T45785368_51716.arg, %struct._Z6FsGridISt5arrayIdLm3EELi2EE** %_T45785368_51716.addr, align 8, !tbaa !4032
	call void @llvm.dbg.declare (metadata %struct._Z6FsGridISt5arrayIdLm3EELi2EE** %_T45785368_51716.addr, metadata !4018, metadata !4017), !dbg !3965
	call void @llvm.dbg.declare (metadata i32* %x.addr, metadata !4019, metadata !4017), !dbg !3965
	store i32 %x.arg, i32* %x.addr, align 4, !tbaa !4033
	call void @llvm.dbg.declare (metadata i32* %x.addr, metadata !4020, metadata !4017), !dbg !3965
	call void @llvm.dbg.declare (metadata i32* %y.addr, metadata !4021, metadata !4017), !dbg !3965
	store i32 %y.arg, i32* %y.addr, align 4, !tbaa !4033
	call void @llvm.dbg.declare (metadata i32* %y.addr, metadata !4022, metadata !4017), !dbg !3965
	call void @llvm.dbg.declare (metadata i32* %z.addr, metadata !4023, metadata !4017), !dbg !3965
	store i32 %z.arg, i32* %z.addr, align 4, !tbaa !4033
	call void @llvm.dbg.declare (metadata i32* %z.addr, metadata !4024, metadata !4017), !dbg !3965
	call void @llvm.dbg.declare (metadata i64* %index.addr, metadata !4026, metadata !4017), !dbg !3965
	store i64 0, i64* %index.addr, align 8, !tbaa !4035, !dbg !4025
	%0 = load %struct._Z6FsGridISt5arrayIdLm3EELi2EE*, %struct._Z6FsGridISt5arrayIdLm3EELi2EE** %_T45785368_51716.addr, align 8, !tbaa !4032, !dbg !4027
	%1 = bitcast %struct._Z6FsGridISt5arrayIdLm3EELi2EE*  %0 to i8*, !dbg !4027
	%2 = getelementptr i8, i8*  %1, i64 260, !dbg !4027
	%3 = bitcast i8*  %2 to i32*, !dbg !4027
	%4 = load i32, i32*  %3, align 4, !tbaa !4033, !dbg !4027
	%5 = icmp sle i32  %4, 1, !dbg !4027
	br i1  %5, label %L.B0000, label %L.B1093, !dbg !4027
L.B1093:
	%6 = load i32, i32* %z.addr, align 4, !tbaa !4037, !dbg !4027
	%7 = add i32  %6, 2, !dbg !4027
	%8 = bitcast %struct._Z6FsGridISt5arrayIdLm3EELi2EE*  %0 to i8*, !dbg !4027
	%9 = getelementptr i8, i8*  %8, i64 280, !dbg !4027
	%10 = bitcast i8*  %9 to i32*, !dbg !4027
	%11 = load i32, i32*  %10, align 4, !tbaa !4033, !dbg !4027
	%12 = getelementptr i8, i8*  %8, i64 276, !dbg !4027
	%13 = bitcast i8*  %12 to i32*, !dbg !4027
	%14 = load i32, i32*  %13, align 4, !tbaa !4033, !dbg !4027
	%15 = mul i32  %11,  %14, !dbg !4027
	%16 = mul i32  %7,  %15, !dbg !4027
	%17 = sext i32  %16 to i64, !dbg !4027
	store i64  %17, i64* %index.addr, align 8, !tbaa !4035, !dbg !4027
	br label %L.B0000
L.B0000:
	%18 = load %struct._Z6FsGridISt5arrayIdLm3EELi2EE*, %struct._Z6FsGridISt5arrayIdLm3EELi2EE** %_T45785368_51716.addr, align 8, !tbaa !4032, !dbg !4027
	%19 = bitcast %struct._Z6FsGridISt5arrayIdLm3EELi2EE*  %18 to i8*, !dbg !4027
	%20 = getelementptr i8, i8*  %19, i64 256, !dbg !4027
	%21 = bitcast i8*  %20 to i32*, !dbg !4027
	%22 = load i32, i32*  %21, align 4, !tbaa !4033, !dbg !4027
	%23 = icmp sle i32  %22, 1, !dbg !4027
	br i1  %23, label %L.B0001, label %L.B1094, !dbg !4027
L.B1094:
	%24 = load i64, i64* %index.addr, align 8, !tbaa !4035, !dbg !4027
	%25 = load i32, i32* %y.addr, align 4, !tbaa !4037, !dbg !4027
	%26 = add i32  %25, 2, !dbg !4027
	%27 = bitcast %struct._Z6FsGridISt5arrayIdLm3EELi2EE*  %18 to i8*, !dbg !4027
	%28 = getelementptr i8, i8*  %27, i64 276, !dbg !4027
	%29 = bitcast i8*  %28 to i32*, !dbg !4027
	%30 = load i32, i32*  %29, align 4, !tbaa !4033, !dbg !4027
	%31 = mul i32  %26,  %30, !dbg !4027
	%32 = sext i32  %31 to i64, !dbg !4027
	%33 = add i64  %24,  %32, !dbg !4027
	store i64  %33, i64* %index.addr, align 8, !tbaa !4035, !dbg !4027
	br label %L.B0001
L.B0001:
	%34 = load %struct._Z6FsGridISt5arrayIdLm3EELi2EE*, %struct._Z6FsGridISt5arrayIdLm3EELi2EE** %_T45785368_51716.addr, align 8, !tbaa !4032, !dbg !4027
	%35 = bitcast %struct._Z6FsGridISt5arrayIdLm3EELi2EE*  %34 to i8*, !dbg !4027
	%36 = getelementptr i8, i8*  %35, i64 252, !dbg !4027
	%37 = bitcast i8*  %36 to i32*, !dbg !4027
	%38 = load i32, i32*  %37, align 4, !tbaa !4033, !dbg !4027
	%39 = icmp sle i32  %38, 1, !dbg !4027
	%40 = zext i1  %39 to i32, !dbg !4027
	%41 = trunc i32  %40 to i1, !dbg !4027
	%42 = load i64, i64* %index.addr, align 8, !tbaa !4035, !dbg !4027
	%43 = load i32, i32* %x.addr, align 4, !tbaa !4037, !dbg !4027
	%44 = sext i32  %43 to i64, !dbg !4027
	%45 = add i64  %44, 2, !dbg !4027
	%46 = add i64  %42,  %45, !dbg !4027
	%47 = select i1  %41, i64  %42, i64  %46, !dbg !4027
	ret i64  %47, !dbg !4028
}
define linkonce_odr %struct._ZSt5arrayIiLm3EE* @_ZN6FsGridISt5arrayIdLm3EELi2EE12getLocalSizeEv(%struct._Z6FsGridISt5arrayIdLm3EELi2EE* %_T45784080_51717.arg) #0 inlinehint !dbg !4042 {
L.entry:
	%_T45784080_51717.addr = alloca %struct._Z6FsGridISt5arrayIdLm3EELi2EE*, align 8

	call void @llvm.dbg.declare (metadata %struct._Z6FsGridISt5arrayIdLm3EELi2EE** %_T45784080_51717.addr, metadata !4046, metadata !4017), !dbg !4043
	store %struct._Z6FsGridISt5arrayIdLm3EELi2EE* %_T45784080_51717.arg, %struct._Z6FsGridISt5arrayIdLm3EELi2EE** %_T45784080_51717.addr, align 8, !tbaa !4032
	call void @llvm.dbg.declare (metadata %struct._Z6FsGridISt5arrayIdLm3EELi2EE** %_T45784080_51717.addr, metadata !4047, metadata !4017), !dbg !4043
	%0 = load %struct._Z6FsGridISt5arrayIdLm3EELi2EE*, %struct._Z6FsGridISt5arrayIdLm3EELi2EE** %_T45784080_51717.addr, align 8, !tbaa !4032, !dbg !4048
	%1 = bitcast %struct._Z6FsGridISt5arrayIdLm3EELi2EE*  %0 to i8*, !dbg !4048
	%2 = getelementptr i8, i8*  %1, i64 264, !dbg !4048
	%3 = bitcast i8*  %2 to %struct._ZSt5arrayIiLm3EE*, !dbg !4048
	ret %struct._ZSt5arrayIiLm3EE*  %3, !dbg !4048
}
define linkonce_odr %struct._ZSt5arrayIdLm3EE* @_ZN6FsGridISt5arrayIdLm3EELi2EE3getEiii(%struct._Z6FsGridISt5arrayIdLm3EELi2EE* %_T45446592_51718.arg, i32 signext %x.arg, i32 signext %y.arg, i32 signext %z.arg) #0 inlinehint !dbg !4053 {
L.entry:
	%_T45446592_51718.addr = alloca %struct._Z6FsGridISt5arrayIdLm3EELi2EE*, align 8
	%x.addr = alloca i32, align 4
	%y.addr = alloca i32, align 4
	%z.addr = alloca i32, align 4
	%isInNeighbourDomain.addr = alloca i32, align 4
	%coord_shift.addr = alloca [3 x i32], align 4
	%..inline.addr = alloca %struct._Z6FsGridISt5arrayIdLm3EELi2EE*, align 8
	%..inline.addr.1 = alloca i64, align 8

	call void @llvm.dbg.declare (metadata %struct._Z6FsGridISt5arrayIdLm3EELi2EE** %_T45446592_51718.addr, metadata !4177, metadata !4017), !dbg !4054
	store %struct._Z6FsGridISt5arrayIdLm3EELi2EE* %_T45446592_51718.arg, %struct._Z6FsGridISt5arrayIdLm3EELi2EE** %_T45446592_51718.addr, align 8, !tbaa !4032
	call void @llvm.dbg.declare (metadata %struct._Z6FsGridISt5arrayIdLm3EELi2EE** %_T45446592_51718.addr, metadata !4178, metadata !4017), !dbg !4054
	call void @llvm.dbg.declare (metadata i32* %x.addr, metadata !4179, metadata !4017), !dbg !4054
	store i32 %x.arg, i32* %x.addr, align 4, !tbaa !4033
	call void @llvm.dbg.declare (metadata i32* %x.addr, metadata !4180, metadata !4017), !dbg !4054
	call void @llvm.dbg.declare (metadata i32* %y.addr, metadata !4181, metadata !4017), !dbg !4054
	store i32 %y.arg, i32* %y.addr, align 4, !tbaa !4033
	call void @llvm.dbg.declare (metadata i32* %y.addr, metadata !4182, metadata !4017), !dbg !4054
	call void @llvm.dbg.declare (metadata i32* %z.addr, metadata !4183, metadata !4017), !dbg !4054
	store i32 %z.arg, i32* %z.addr, align 4, !tbaa !4033
	call void @llvm.dbg.declare (metadata i32* %z.addr, metadata !4184, metadata !4017), !dbg !4054
	call void @llvm.dbg.declare (metadata i32* %isInNeighbourDomain.addr, metadata !4186, metadata !4017), !dbg !4054
	store i32 13, i32* %isInNeighbourDomain.addr, align 4, !tbaa !4037, !dbg !4185
	call void @llvm.dbg.declare (metadata [3 x i32]* %coord_shift.addr, metadata !4188, metadata !4017), !dbg !4054
	%0 = bitcast [3 x i32]* %coord_shift.addr to i32*, !dbg !4187
	store i32 0, i32*  %0, align 4, !tbaa !4033, !dbg !4187
	%1 = bitcast [3 x i32]* %coord_shift.addr to i8*, !dbg !4187
	%2 = getelementptr i8, i8*  %1, i64 4, !dbg !4187
	%3 = bitcast i8*  %2 to i32*, !dbg !4187
	store i32 0, i32*  %3, align 4, !tbaa !4033, !dbg !4187
	%4 = getelementptr i8, i8*  %1, i64 8, !dbg !4187
	%5 = bitcast i8*  %4 to i32*, !dbg !4187
	store i32 0, i32*  %5, align 4, !tbaa !4033, !dbg !4187
	%6 = load i32, i32* %x.addr, align 4, !tbaa !4037, !dbg !4189
	%7 = icmp sge i32  %6, 0, !dbg !4189
	br i1  %7, label %L.B0003, label %L.B1115, !dbg !4189
L.B1115:
	store i32 4, i32* %isInNeighbourDomain.addr, align 4, !tbaa !4037, !dbg !4190
	%8 = bitcast [3 x i32]* %coord_shift.addr to i32*, !dbg !4191
	store i32 1, i32*  %8, align 4, !tbaa !4033, !dbg !4191
	br label %L.B0003
L.B0003:
	%9 = load i32, i32* %x.addr, align 4, !tbaa !4037, !dbg !4192
	%10 = load %struct._Z6FsGridISt5arrayIdLm3EELi2EE*, %struct._Z6FsGridISt5arrayIdLm3EELi2EE** %_T45446592_51718.addr, align 8, !tbaa !4032, !dbg !4192
	%11 = bitcast %struct._Z6FsGridISt5arrayIdLm3EELi2EE*  %10 to i8*, !dbg !4192
	%12 = getelementptr i8, i8*  %11, i64 264, !dbg !4192
	%13 = bitcast i8*  %12 to i32*, !dbg !4192
	%14 = load i32, i32*  %13, align 4, !tbaa !4033, !dbg !4192
	%15 = icmp slt i32  %9,  %14, !dbg !4192
	br i1  %15, label %L.B0004, label %L.B1116, !dbg !4192
L.B1116:
	%16 = load i32, i32* %isInNeighbourDomain.addr, align 4, !tbaa !4037, !dbg !4193
	%17 = add i32  %16, 9, !dbg !4193
	store i32  %17, i32* %isInNeighbourDomain.addr, align 4, !tbaa !4037, !dbg !4193
	%18 = bitcast [3 x i32]* %coord_shift.addr to i32*, !dbg !4194
	store i32 -1, i32*  %18, align 4, !tbaa !4033, !dbg !4194
	br label %L.B0004
L.B0004:
	%19 = load i32, i32* %y.addr, align 4, !tbaa !4037, !dbg !4195
	%20 = icmp sge i32  %19, 0, !dbg !4195
	br i1  %20, label %L.B0005, label %L.B1117, !dbg !4195
L.B1117:
	%21 = load i32, i32* %isInNeighbourDomain.addr, align 4, !tbaa !4037, !dbg !4196
	%22 = sub i32  %21, 3, !dbg !4196
	store i32  %22, i32* %isInNeighbourDomain.addr, align 4, !tbaa !4037, !dbg !4196
	%23 = bitcast [3 x i32]* %coord_shift.addr to i8*, !dbg !4197
	%24 = getelementptr i8, i8*  %23, i64 4, !dbg !4197
	%25 = bitcast i8*  %24 to i32*, !dbg !4197
	store i32 1, i32*  %25, align 4, !tbaa !4033, !dbg !4197
	br label %L.B0005
L.B0005:
	%26 = load i32, i32* %y.addr, align 4, !tbaa !4037, !dbg !4192
	%27 = load %struct._Z6FsGridISt5arrayIdLm3EELi2EE*, %struct._Z6FsGridISt5arrayIdLm3EELi2EE** %_T45446592_51718.addr, align 8, !tbaa !4032, !dbg !4192
	%28 = bitcast %struct._Z6FsGridISt5arrayIdLm3EELi2EE*  %27 to i8*, !dbg !4192
	%29 = getelementptr i8, i8*  %28, i64 268, !dbg !4192
	%30 = bitcast i8*  %29 to i32*, !dbg !4192
	%31 = load i32, i32*  %30, align 4, !tbaa !4033, !dbg !4192
	%32 = icmp slt i32  %26,  %31, !dbg !4192
	br i1  %32, label %L.B0006, label %L.B1118, !dbg !4192
L.B1118:
	%33 = load i32, i32* %isInNeighbourDomain.addr, align 4, !tbaa !4037, !dbg !4198
	%34 = add i32  %33, 3, !dbg !4198
	store i32  %34, i32* %isInNeighbourDomain.addr, align 4, !tbaa !4037, !dbg !4198
	%35 = bitcast [3 x i32]* %coord_shift.addr to i8*, !dbg !4199
	%36 = getelementptr i8, i8*  %35, i64 4, !dbg !4199
	%37 = bitcast i8*  %36 to i32*, !dbg !4199
	store i32 -1, i32*  %37, align 4, !tbaa !4033, !dbg !4199
	br label %L.B0006
L.B0006:
	%38 = load i32, i32* %z.addr, align 4, !tbaa !4037, !dbg !4200
	%39 = icmp sge i32  %38, 0, !dbg !4200
	br i1  %39, label %L.B0007, label %L.B1119, !dbg !4200
L.B1119:
	%40 = load i32, i32* %isInNeighbourDomain.addr, align 4, !tbaa !4037, !dbg !4201
	%41 = sub i32  %40, 1, !dbg !4201
	store i32  %41, i32* %isInNeighbourDomain.addr, align 4, !tbaa !4037, !dbg !4201
	%42 = bitcast [3 x i32]* %coord_shift.addr to i8*, !dbg !4202
	%43 = getelementptr i8, i8*  %42, i64 8, !dbg !4202
	%44 = bitcast i8*  %43 to i32*, !dbg !4202
	store i32 1, i32*  %44, align 4, !tbaa !4033, !dbg !4202
	br label %L.B0007
L.B0007:
	%45 = load i32, i32* %z.addr, align 4, !tbaa !4037, !dbg !4192
	%46 = load %struct._Z6FsGridISt5arrayIdLm3EELi2EE*, %struct._Z6FsGridISt5arrayIdLm3EELi2EE** %_T45446592_51718.addr, align 8, !tbaa !4032, !dbg !4192
	%47 = bitcast %struct._Z6FsGridISt5arrayIdLm3EELi2EE*  %46 to i8*, !dbg !4192
	%48 = getelementptr i8, i8*  %47, i64 272, !dbg !4192
	%49 = bitcast i8*  %48 to i32*, !dbg !4192
	%50 = load i32, i32*  %49, align 4, !tbaa !4033, !dbg !4192
	%51 = icmp slt i32  %45,  %50, !dbg !4192
	br i1  %51, label %L.B0008, label %L.B1120, !dbg !4192
L.B1120:
	%52 = load i32, i32* %isInNeighbourDomain.addr, align 4, !tbaa !4037, !dbg !4203
	%53 = add i32  %52, 1, !dbg !4203
	store i32  %53, i32* %isInNeighbourDomain.addr, align 4, !tbaa !4037, !dbg !4203
	%54 = bitcast [3 x i32]* %coord_shift.addr to i8*, !dbg !4204
	%55 = getelementptr i8, i8*  %54, i64 8, !dbg !4204
	%56 = bitcast i8*  %55 to i32*, !dbg !4204
	store i32 -1, i32*  %56, align 4, !tbaa !4033, !dbg !4204
	br label %L.B0008
L.B0008:
	%57 = load i32, i32* %isInNeighbourDomain.addr, align 4, !tbaa !4037, !dbg !4205
	%58 = icmp eq i32  %57, 13, !dbg !4205
	br i1  %58, label %L.B0009, label %L.B1121, !dbg !4205
L.B1121:
	%59 = sext i32  %57 to i64, !dbg !4192
	%60 = load %struct._Z6FsGridISt5arrayIdLm3EELi2EE*, %struct._Z6FsGridISt5arrayIdLm3EELi2EE** %_T45446592_51718.addr, align 8, !tbaa !4032, !dbg !4192
	%61 = bitcast %struct._Z6FsGridISt5arrayIdLm3EELi2EE*  %60 to i8*, !dbg !4192
	%62 = getelementptr i8, i8*  %61, i64 92, !dbg !4192
	%63 = bitcast i8*  %62 to i32*, !dbg !4192
	%64 = getelementptr i32, i32*  %63, i64  %59, !dbg !4192
	%65 = load i32, i32*  %64, align 4, !tbaa !4033, !dbg !4192
	%66 = icmp ne i32  %65, -2, !dbg !4192
	br i1  %66, label %L.B0010, label %L.B1122, !dbg !4192
L.B1122:
	ret %struct._ZSt5arrayIdLm3EE*  null, !dbg !4206
L.B1123:
	br label %L.R0002, !dbg !4206
L.B0010:
	%67 = load i32, i32* %isInNeighbourDomain.addr, align 4, !tbaa !4037, !dbg !4192
	%68 = sext i32  %67 to i64, !dbg !4192
	%69 = load %struct._Z6FsGridISt5arrayIdLm3EELi2EE*, %struct._Z6FsGridISt5arrayIdLm3EELi2EE** %_T45446592_51718.addr, align 8, !tbaa !4032, !dbg !4192
	%70 = bitcast %struct._Z6FsGridISt5arrayIdLm3EELi2EE*  %69 to i8*, !dbg !4192
	%71 = getelementptr i8, i8*  %70, i64 92, !dbg !4192
	%72 = bitcast i8*  %71 to i32*, !dbg !4192
	%73 = getelementptr i32, i32*  %72, i64  %68, !dbg !4192
	%74 = load i32, i32*  %73, align 4, !tbaa !4033, !dbg !4192
	%75 = getelementptr i8, i8*  %70, i64 56, !dbg !4192
	%76 = bitcast i8*  %75 to i32*, !dbg !4192
	%77 = load i32, i32*  %76, align 4, !tbaa !4033, !dbg !4192
	%78 = icmp ne i32  %74,  %77, !dbg !4192
	br i1  %78, label %L.B0012, label %L.B1124, !dbg !4192
L.B1124:
	%79 = load i32, i32* %x.addr, align 4, !tbaa !4037, !dbg !4192
	%80 = bitcast [3 x i32]* %coord_shift.addr to i32*, !dbg !4192
	%81 = load i32, i32*  %80, align 4, !tbaa !4033, !dbg !4192
	%82 = bitcast %struct._Z6FsGridISt5arrayIdLm3EELi2EE*  %69 to i8*, !dbg !4192
	%83 = getelementptr i8, i8*  %82, i64 264, !dbg !4192
	%84 = bitcast i8*  %83 to i32*, !dbg !4192
	%85 = load i32, i32*  %84, align 4, !tbaa !4033, !dbg !4192
	%86 = mul i32  %81,  %85, !dbg !4192
	%87 = add i32  %79,  %86, !dbg !4192
	store i32  %87, i32* %x.addr, align 4, !tbaa !4037, !dbg !4192
	%88 = load i32, i32* %y.addr, align 4, !tbaa !4037, !dbg !4192
	%89 = bitcast [3 x i32]* %coord_shift.addr to i8*, !dbg !4192
	%90 = getelementptr i8, i8*  %89, i64 4, !dbg !4192
	%91 = bitcast i8*  %90 to i32*, !dbg !4192
	%92 = load i32, i32*  %91, align 4, !tbaa !4033, !dbg !4192
	%93 = getelementptr i8, i8*  %82, i64 268, !dbg !4192
	%94 = bitcast i8*  %93 to i32*, !dbg !4192
	%95 = load i32, i32*  %94, align 4, !tbaa !4033, !dbg !4192
	%96 = mul i32  %92,  %95, !dbg !4192
	%97 = add i32  %88,  %96, !dbg !4192
	store i32  %97, i32* %y.addr, align 4, !tbaa !4037, !dbg !4192
	%98 = load i32, i32* %z.addr, align 4, !tbaa !4037, !dbg !4192
	%99 = getelementptr i8, i8*  %89, i64 8, !dbg !4192
	%100 = bitcast i8*  %99 to i32*, !dbg !4192
	%101 = load i32, i32*  %100, align 4, !tbaa !4033, !dbg !4192
	%102 = getelementptr i8, i8*  %82, i64 272, !dbg !4192
	%103 = bitcast i8*  %102 to i32*, !dbg !4192
	%104 = load i32, i32*  %103, align 4, !tbaa !4033, !dbg !4192
	%105 = mul i32  %101,  %104, !dbg !4192
	%106 = add i32  %98,  %105, !dbg !4192
	store i32  %106, i32* %z.addr, align 4, !tbaa !4037, !dbg !4192
	br label %L.B0012
L.B0012:
	br label %L.B0009
L.B0009:
	%107 = load %struct._Z6FsGridISt5arrayIdLm3EELi2EE*, %struct._Z6FsGridISt5arrayIdLm3EELi2EE** %_T45446592_51718.addr, align 8, !tbaa !4032, !dbg !4207
	%108 = bitcast %struct._Z6FsGridISt5arrayIdLm3EELi2EE*  %107 to i8*, !dbg !4207
	%109 = bitcast %struct._Z6FsGridISt5arrayIdLm3EELi2EE** %..inline.addr to i8**, !dbg !4207
	store i8*  %108, i8**  %109, align 8, !tbaa !4032, !dbg !4207
	store i64 0, i64* %..inline.addr.1, align 8, !tbaa !4035, !dbg !4207
	%110 = load %struct._Z6FsGridISt5arrayIdLm3EELi2EE*, %struct._Z6FsGridISt5arrayIdLm3EELi2EE** %..inline.addr, align 8, !tbaa !4032, !dbg !4208
	%111 = bitcast %struct._Z6FsGridISt5arrayIdLm3EELi2EE*  %110 to i8*, !dbg !4208
	%112 = getelementptr i8, i8*  %111, i64 260, !dbg !4208
	%113 = bitcast i8*  %112 to i32*, !dbg !4208
	%114 = load i32, i32*  %113, align 4, !tbaa !4033, !dbg !4208
	%115 = icmp sle i32  %114, 1, !dbg !4208
	br i1  %115, label %L..inline.67197, label %L.B1125, !dbg !4208
L.B1125:
	%116 = bitcast %struct._Z6FsGridISt5arrayIdLm3EELi2EE*  %107 to i8*, !dbg !4209
	%117 = getelementptr i8, i8*  %116, i64 280, !dbg !4209
	%118 = bitcast i8*  %117 to i32*, !dbg !4209
	%119 = load i32, i32*  %118, align 4, !tbaa !4033, !dbg !4209
	%120 = getelementptr i8, i8*  %116, i64 276, !dbg !4209
	%121 = bitcast i8*  %120 to i32*, !dbg !4209
	%122 = load i32, i32*  %121, align 4, !tbaa !4033, !dbg !4209
	%123 = mul i32  %119,  %122, !dbg !4209
	%124 = load i32, i32* %z.addr, align 4, !tbaa !4037, !dbg !4209
	%125 = add i32  %124, 2, !dbg !4209
	%126 = mul i32  %123,  %125, !dbg !4209
	%127 = sext i32  %126 to i64, !dbg !4209
	store i64  %127, i64* %..inline.addr.1, align 8, !tbaa !4035, !dbg !4209
	br label %L..inline.67197
L..inline.67197:
	%128 = load %struct._Z6FsGridISt5arrayIdLm3EELi2EE*, %struct._Z6FsGridISt5arrayIdLm3EELi2EE** %..inline.addr, align 8, !tbaa !4032, !dbg !4210
	%129 = bitcast %struct._Z6FsGridISt5arrayIdLm3EELi2EE*  %128 to i8*, !dbg !4210
	%130 = getelementptr i8, i8*  %129, i64 256, !dbg !4210
	%131 = bitcast i8*  %130 to i32*, !dbg !4210
	%132 = load i32, i32*  %131, align 4, !tbaa !4033, !dbg !4210
	%133 = icmp sle i32  %132, 1, !dbg !4210
	br i1  %133, label %L..inline.67247, label %L.B1126, !dbg !4210
L.B1126:
	%134 = load %struct._Z6FsGridISt5arrayIdLm3EELi2EE*, %struct._Z6FsGridISt5arrayIdLm3EELi2EE** %_T45446592_51718.addr, align 8, !tbaa !4032, !dbg !4211
	%135 = bitcast %struct._Z6FsGridISt5arrayIdLm3EELi2EE*  %134 to i8*, !dbg !4211
	%136 = getelementptr i8, i8*  %135, i64 276, !dbg !4211
	%137 = bitcast i8*  %136 to i32*, !dbg !4211
	%138 = load i32, i32*  %137, align 4, !tbaa !4033, !dbg !4211
	%139 = load i32, i32* %y.addr, align 4, !tbaa !4037, !dbg !4211
	%140 = add i32  %139, 2, !dbg !4211
	%141 = mul i32  %138,  %140, !dbg !4211
	%142 = sext i32  %141 to i64, !dbg !4211
	%143 = load i64, i64* %..inline.addr.1, align 8, !tbaa !4035, !dbg !4211
	%144 = add i64  %142,  %143, !dbg !4211
	store i64  %144, i64* %..inline.addr.1, align 8, !tbaa !4035, !dbg !4211
	br label %L..inline.67247
L..inline.67247:
	%145 = load %struct._Z6FsGridISt5arrayIdLm3EELi2EE*, %struct._Z6FsGridISt5arrayIdLm3EELi2EE** %..inline.addr, align 8, !tbaa !4032, !dbg !4212
	%146 = bitcast %struct._Z6FsGridISt5arrayIdLm3EELi2EE*  %145 to i8*, !dbg !4212
	%147 = getelementptr i8, i8*  %146, i64 252, !dbg !4212
	%148 = bitcast i8*  %147 to i32*, !dbg !4212
	%149 = load i32, i32*  %148, align 4, !tbaa !4033, !dbg !4212
	%150 = icmp sle i32  %149, 1, !dbg !4212
	%151 = zext i1  %150 to i32, !dbg !4212
	%152 = trunc i32  %151 to i1, !dbg !4212
	%153 = load i64, i64* %..inline.addr.1, align 8, !tbaa !4035, !dbg !4212
	%154 = load i32, i32* %x.addr, align 4, !tbaa !4037, !dbg !4212
	%155 = sext i32  %154 to i64, !dbg !4212
	%156 = add i64  %155, 2, !dbg !4212
	%157 = add i64  %153,  %156, !dbg !4212
	%158 = select i1  %152, i64  %153, i64  %157, !dbg !4212
	%159 = load %struct._Z6FsGridISt5arrayIdLm3EELi2EE*, %struct._Z6FsGridISt5arrayIdLm3EELi2EE** %_T45446592_51718.addr, align 8, !tbaa !4032, !dbg !4213
	%160 = bitcast %struct._Z6FsGridISt5arrayIdLm3EELi2EE*  %159 to i8*, !dbg !4213
	%161 = getelementptr i8, i8*  %160, i64 744, !dbg !4213
	%162 = bitcast i8*  %161 to i8**, !dbg !4213
	%163 = load i8*, i8**  %162, align 8, !tbaa !4032, !dbg !4213
	%164 = mul i64  %158, 24, !dbg !4213
	%165 = getelementptr i8, i8*  %163, i64  %164, !dbg !4213
	%166 = bitcast i8*  %165 to %struct._ZSt5arrayIdLm3EE*, !dbg !4213
	ret %struct._ZSt5arrayIdLm3EE*  %166, !dbg !4213
L.R0002:
	ret %struct._ZSt5arrayIdLm3EE* null
}
define linkonce_odr void @_ZN6FsGridISt5arrayIdLm3EELi2EE17getPhysicalCoordsEiii(%struct._ZSt5arrayIdLm3EE* sret %sretaddr, %struct._Z6FsGridISt5arrayIdLm3EELi2EE* %_T45441624_51719.arg, i32 signext %x.arg, i32 signext %y.arg, i32 signext %z.arg) #0 inlinehint !dbg !4218 {
L.entry:
	%_T45441624_51719.addr = alloca %struct._Z6FsGridISt5arrayIdLm3EELi2EE*, align 8
	%x.addr = alloca i32, align 4
	%y.addr = alloca i32, align 4
	%z.addr = alloca i32, align 4
	%coords.addr = alloca %struct._ZSt5arrayIdLm3EE, align 8
	%_T45443400_51719.addr = alloca %struct._ZSt5arrayIdLm3EE, align 8

	call void @llvm.dbg.declare (metadata %struct._Z6FsGridISt5arrayIdLm3EELi2EE** %_T45441624_51719.addr, metadata !4294, metadata !4017), !dbg !4219
	store %struct._Z6FsGridISt5arrayIdLm3EELi2EE* %_T45441624_51719.arg, %struct._Z6FsGridISt5arrayIdLm3EELi2EE** %_T45441624_51719.addr, align 8, !tbaa !4032
	call void @llvm.dbg.declare (metadata %struct._Z6FsGridISt5arrayIdLm3EELi2EE** %_T45441624_51719.addr, metadata !4295, metadata !4017), !dbg !4219
	call void @llvm.dbg.declare (metadata i32* %x.addr, metadata !4296, metadata !4017), !dbg !4219
	store i32 %x.arg, i32* %x.addr, align 4, !tbaa !4033
	call void @llvm.dbg.declare (metadata i32* %x.addr, metadata !4297, metadata !4017), !dbg !4219
	call void @llvm.dbg.declare (metadata i32* %y.addr, metadata !4298, metadata !4017), !dbg !4219
	store i32 %y.arg, i32* %y.addr, align 4, !tbaa !4033
	call void @llvm.dbg.declare (metadata i32* %y.addr, metadata !4299, metadata !4017), !dbg !4219
	call void @llvm.dbg.declare (metadata i32* %z.addr, metadata !4300, metadata !4017), !dbg !4219
	store i32 %z.arg, i32* %z.addr, align 4, !tbaa !4033
	call void @llvm.dbg.declare (metadata i32* %z.addr, metadata !4301, metadata !4017), !dbg !4219
	%0 = load %struct._Z6FsGridISt5arrayIdLm3EELi2EE*, %struct._Z6FsGridISt5arrayIdLm3EELi2EE** %_T45441624_51719.addr, align 8, !tbaa !4032, !dbg !4302
	%1 = bitcast %struct._Z6FsGridISt5arrayIdLm3EELi2EE*  %0 to double*, !dbg !4302
	%2 = load double, double*  %1, align 8, !tbaa !4033, !dbg !4302
	%3 = load i32, i32* %x.addr, align 4, !tbaa !4037, !dbg !4302
	%4 = bitcast %struct._Z6FsGridISt5arrayIdLm3EELi2EE*  %0 to i8*, !dbg !4302
	%5 = getelementptr i8, i8*  %4, i64 288, !dbg !4302
	%6 = bitcast i8*  %5 to i32*, !dbg !4302
	%7 = load i32, i32*  %6, align 4, !tbaa !4033, !dbg !4302
	%8 = add i32  %3,  %7, !dbg !4302
	%9 = sitofp i32  %8 to double, !dbg !4302
	%10 = getelementptr i8, i8*  %4, i64 24, !dbg !4302
	%11 = bitcast i8*  %10 to double*, !dbg !4302
	%12 = load double, double*  %11, align 8, !tbaa !4033, !dbg !4302
	%13 = call double @llvm.fma.f64 (double  %2, double  %9, double  %12), !dbg !4302
	call void @llvm.dbg.declare (metadata %struct._ZSt5arrayIdLm3EE* %coords.addr, metadata !4303, metadata !4017), !dbg !4219
	%14 = bitcast %struct._ZSt5arrayIdLm3EE* %coords.addr to double*, !dbg !4302
	store double  %13, double*  %14, align 8, !tbaa !4033, !dbg !4302
	%15 = load %struct._Z6FsGridISt5arrayIdLm3EELi2EE*, %struct._Z6FsGridISt5arrayIdLm3EELi2EE** %_T45441624_51719.addr, align 8, !tbaa !4032, !dbg !4302
	%16 = bitcast %struct._Z6FsGridISt5arrayIdLm3EELi2EE*  %15 to i8*, !dbg !4302
	%17 = getelementptr i8, i8*  %16, i64 8, !dbg !4302
	%18 = bitcast i8*  %17 to double*, !dbg !4302
	%19 = load double, double*  %18, align 8, !tbaa !4033, !dbg !4302
	%20 = load i32, i32* %y.addr, align 4, !tbaa !4037, !dbg !4302
	%21 = getelementptr i8, i8*  %16, i64 292, !dbg !4302
	%22 = bitcast i8*  %21 to i32*, !dbg !4302
	%23 = load i32, i32*  %22, align 4, !tbaa !4033, !dbg !4302
	%24 = add i32  %20,  %23, !dbg !4302
	%25 = sitofp i32  %24 to double, !dbg !4302
	%26 = getelementptr i8, i8*  %16, i64 32, !dbg !4302
	%27 = bitcast i8*  %26 to double*, !dbg !4302
	%28 = load double, double*  %27, align 8, !tbaa !4033, !dbg !4302
	%29 = call double @llvm.fma.f64 (double  %19, double  %25, double  %28), !dbg !4302
	%30 = bitcast %struct._ZSt5arrayIdLm3EE* %coords.addr to i8*, !dbg !4302
	%31 = getelementptr i8, i8*  %30, i64 8, !dbg !4302
	%32 = bitcast i8*  %31 to double*, !dbg !4302
	store double  %29, double*  %32, align 8, !tbaa !4033, !dbg !4302
	%33 = getelementptr i8, i8*  %16, i64 16, !dbg !4302
	%34 = bitcast i8*  %33 to double*, !dbg !4302
	%35 = load double, double*  %34, align 8, !tbaa !4033, !dbg !4302
	%36 = load i32, i32* %z.addr, align 4, !tbaa !4037, !dbg !4302
	%37 = getelementptr i8, i8*  %16, i64 296, !dbg !4302
	%38 = bitcast i8*  %37 to i32*, !dbg !4302
	%39 = load i32, i32*  %38, align 4, !tbaa !4033, !dbg !4302
	%40 = add i32  %36,  %39, !dbg !4302
	%41 = sitofp i32  %40 to double, !dbg !4302
	%42 = getelementptr i8, i8*  %16, i64 40, !dbg !4302
	%43 = bitcast i8*  %42 to double*, !dbg !4302
	%44 = load double, double*  %43, align 8, !tbaa !4033, !dbg !4302
	%45 = call double @llvm.fma.f64 (double  %35, double  %41, double  %44), !dbg !4302
	%46 = getelementptr i8, i8*  %30, i64 16, !dbg !4302
	%47 = bitcast i8*  %46 to double*, !dbg !4302
	store double  %45, double*  %47, align 8, !tbaa !4033, !dbg !4302
	%48 = bitcast %struct._ZSt5arrayIdLm3EE* %coords.addr to i64*, !dbg !4304
	%49 = load i64, i64*  %48, align 8, !tbaa !4033, !dbg !4304
	%50 = bitcast %struct._ZSt5arrayIdLm3EE* %_T45443400_51719.addr to i64*, !dbg !4304
	store i64  %49, i64*  %50, align 8, !tbaa !4033, !dbg !4304
	%51 = bitcast i8*  %31 to i64*, !dbg !4304
	%52 = load i64, i64*  %51, align 8, !tbaa !4033, !dbg !4304
	%53 = bitcast %struct._ZSt5arrayIdLm3EE* %_T45443400_51719.addr to i8*, !dbg !4304
	%54 = getelementptr i8, i8*  %53, i64 8, !dbg !4304
	%55 = bitcast i8*  %54 to i64*, !dbg !4304
	store i64  %52, i64*  %55, align 8, !tbaa !4033, !dbg !4304
	%56 = bitcast i8*  %46 to i64*, !dbg !4304
	%57 = load i64, i64*  %56, align 8, !tbaa !4033, !dbg !4304
	%58 = getelementptr i8, i8*  %53, i64 16, !dbg !4304
	%59 = bitcast i8*  %58 to i64*, !dbg !4304
	store i64  %57, i64*  %59, align 8, !tbaa !4033, !dbg !4304
	%60 = load i64, i64*  %50, align 8, !tbaa !4033, !dbg !4304
	%61 = bitcast %struct._ZSt5arrayIdLm3EE* %sretaddr to i64*, !dbg !4304
	store i64  %60, i64*  %61, align 8, !tbaa !4033, !dbg !4304
	%62 = load i64, i64*  %55, align 8, !tbaa !4033, !dbg !4304
	%63 = bitcast %struct._ZSt5arrayIdLm3EE* %sretaddr to i8*, !dbg !4304
	%64 = getelementptr i8, i8*  %63, i64 8, !dbg !4304
	%65 = bitcast i8*  %64 to i64*, !dbg !4304
	store i64  %62, i64*  %65, align 8, !tbaa !4033, !dbg !4304
	%66 = getelementptr i8, i8*  %63, i64 16, !dbg !4304
	%67 = bitcast i8*  %66 to i64*, !dbg !4304
	store i64  %57, i64*  %67, align 8, !tbaa !4033, !dbg !4304
	ret void, !dbg !4304
}
define linkonce_odr void @_ZNSt11char_traitsIcE6assignERcRKc(i8* %__c1.arg, i8* %__c2.arg) #0 inlinehint !dbg !4312 {
L.entry:
	%__c1.addr = alloca i8*, align 8
	%__c2.addr = alloca i8*, align 8

	call void @llvm.dbg.declare (metadata i8** %__c1.addr, metadata !4316, metadata !4017), !dbg !4313
	store i8* %__c1.arg, i8** %__c1.addr, align 8, !tbaa !4032
	call void @llvm.dbg.declare (metadata i8** %__c1.addr, metadata !4317, metadata !4017), !dbg !4313
	call void @llvm.dbg.declare (metadata i8** %__c2.addr, metadata !4318, metadata !4017), !dbg !4313
	store i8* %__c2.arg, i8** %__c2.addr, align 8, !tbaa !4032
	call void @llvm.dbg.declare (metadata i8** %__c2.addr, metadata !4319, metadata !4017), !dbg !4313
	%0 = load i8*, i8** %__c2.addr, align 8, !tbaa !4032, !dbg !4320
	%1 = load i8, i8*  %0, align 1, !tbaa !4033, !dbg !4320
	%2 = load i8*, i8** %__c1.addr, align 8, !tbaa !4032, !dbg !4320
	store i8  %1, i8*  %2, align 1, !tbaa !4033, !dbg !4320
	ret void, !dbg !4320
}
define linkonce_odr i64 @_ZNSt11char_traitsIcE6lengthEPKc(i8* %__s.arg) #0 inlinehint !dbg !4324 {
L.entry:
	%__s.addr = alloca i8*, align 8

	call void @llvm.dbg.declare (metadata i8** %__s.addr, metadata !4328, metadata !4017), !dbg !4325
	store i8* %__s.arg, i8** %__s.addr, align 8, !tbaa !4032
	call void @llvm.dbg.declare (metadata i8** %__s.addr, metadata !4329, metadata !4017), !dbg !4325
	%0 = load i8*, i8** %__s.addr, align 8, !tbaa !4032, !dbg !4330
	%1 = call i64  @strlen (i8*  %0) nounwind, !dbg !4330
	ret i64  %1, !dbg !4330
}
define linkonce_odr i8* @_ZNSt11char_traitsIcE4copyEPcPKcm(i8* %__s1.arg, i8* %__s2.arg, i64 %__n.arg) #0 inlinehint !dbg !4335 {
L.entry:
	%__s1.addr = alloca i8*, align 8
	%__s2.addr = alloca i8*, align 8
	%__n.addr = alloca i64, align 8

	call void @llvm.dbg.declare (metadata i8** %__s1.addr, metadata !4339, metadata !4017), !dbg !4336
	store i8* %__s1.arg, i8** %__s1.addr, align 8, !tbaa !4032
	call void @llvm.dbg.declare (metadata i8** %__s1.addr, metadata !4340, metadata !4017), !dbg !4336
	call void @llvm.dbg.declare (metadata i8** %__s2.addr, metadata !4341, metadata !4017), !dbg !4336
	store i8* %__s2.arg, i8** %__s2.addr, align 8, !tbaa !4032
	call void @llvm.dbg.declare (metadata i8** %__s2.addr, metadata !4342, metadata !4017), !dbg !4336
	call void @llvm.dbg.declare (metadata i64* %__n.addr, metadata !4343, metadata !4017), !dbg !4336
	store i64 %__n.arg, i64* %__n.addr, align 8, !tbaa !4033
	call void @llvm.dbg.declare (metadata i64* %__n.addr, metadata !4344, metadata !4017), !dbg !4336
	%0 = load i64, i64* %__n.addr, align 8, !tbaa !4035, !dbg !4345
	%1 = icmp ne i64  %0, 0, !dbg !4345
	br i1  %1, label %L.B0013, label %L.B1145, !dbg !4345
L.B1145:
	%2 = load i8*, i8** %__s1.addr, align 8, !tbaa !4032, !dbg !4346
	ret i8*  %2, !dbg !4346
L.B1146:
	br label %L.R0006, !dbg !4346
L.B0013:
	%3 = load i8*, i8** %__s1.addr, align 8, !tbaa !4032, !dbg !4347
	%4 = load i8*, i8** %__s2.addr, align 8, !tbaa !4032, !dbg !4347
	%5 = load i64, i64* %__n.addr, align 8, !tbaa !4035, !dbg !4347
	%6 = call i8*  @memcpy (i8*  %3, i8*  %4, i64  %5) nounwind, !dbg !4347
	ret i8*  %6, !dbg !4347
L.R0006:
	ret i8* null
}

%struct._ZSaIcE = type <{ [1 x i8]}> 

define linkonce_odr void @_ZNSaIcEC1Ev(%struct._ZSaIcE* %_T45441624_51727.arg) #0 inlinehint !dbg !4355 {
L.entry:
	%_T45441624_51727.addr = alloca %struct._ZSaIcE*, align 8

	call void @llvm.dbg.declare (metadata %struct._ZSaIcE** %_T45441624_51727.addr, metadata !4359, metadata !4017), !dbg !4356
	store %struct._ZSaIcE* %_T45441624_51727.arg, %struct._ZSaIcE** %_T45441624_51727.addr, align 8, !tbaa !4032
	call void @llvm.dbg.declare (metadata %struct._ZSaIcE** %_T45441624_51727.addr, metadata !4360, metadata !4017), !dbg !4356
	ret void, !dbg !4361
}
define linkonce_odr void @_ZNSaIcEC2Ev(%struct._ZSaIcE* %_T45441624_51728.arg) #0 inlinehint !dbg !4363 {
L.entry:
	%_T45441624_51728.addr = alloca %struct._ZSaIcE*, align 8

	store %struct._ZSaIcE* %_T45441624_51728.arg, %struct._ZSaIcE** %_T45441624_51728.addr, align 8, !tbaa !4032
	ret void, !dbg !4371
}
define linkonce_odr void @_ZNSaIcED1Ev(%struct._ZSaIcE* %_T45441624_51729.arg) #0 inlinehint !dbg !4373 {
L.entry:
	%_T45441624_51729.addr = alloca %struct._ZSaIcE*, align 8

	call void @llvm.dbg.declare (metadata %struct._ZSaIcE** %_T45441624_51729.addr, metadata !4377, metadata !4017), !dbg !4374
	store %struct._ZSaIcE* %_T45441624_51729.arg, %struct._ZSaIcE** %_T45441624_51729.addr, align 8, !tbaa !4032
	call void @llvm.dbg.declare (metadata %struct._ZSaIcE** %_T45441624_51729.addr, metadata !4378, metadata !4017), !dbg !4374
	ret void, !dbg !4379
}
define linkonce_odr void @_ZNSaIcED2Ev(%struct._ZSaIcE* %_T45441624_51730.arg) #0 inlinehint !dbg !4381 {
L.entry:
	%_T45441624_51730.addr = alloca %struct._ZSaIcE*, align 8

	store %struct._ZSaIcE* %_T45441624_51730.arg, %struct._ZSaIcE** %_T45441624_51730.addr, align 8, !tbaa !4032
	ret void, !dbg !4389
}
define linkonce_odr void @_ZNSt16allocator_traitsISaIcEE10deallocateERS0_Pcm(%struct._ZSaIcE* %__a.arg, i8* %__p.arg, i64 %__n.arg) #0 inlinehint !dbg !4399 {
L.entry:
	%__a.addr = alloca %struct._ZSaIcE*, align 8
	%__p.addr = alloca i8*, align 8
	%__n.addr = alloca i64, align 8
	%..inline.addr = alloca i8*, align 8

	call void @llvm.dbg.declare (metadata %struct._ZSaIcE** %__a.addr, metadata !4407, metadata !4017), !dbg !4400
	store %struct._ZSaIcE* %__a.arg, %struct._ZSaIcE** %__a.addr, align 8, !tbaa !4032
	call void @llvm.dbg.declare (metadata %struct._ZSaIcE** %__a.addr, metadata !4408, metadata !4017), !dbg !4400
	call void @llvm.dbg.declare (metadata i8** %__p.addr, metadata !4409, metadata !4017), !dbg !4400
	store i8* %__p.arg, i8** %__p.addr, align 8, !tbaa !4032
	call void @llvm.dbg.declare (metadata i8** %__p.addr, metadata !4410, metadata !4017), !dbg !4400
	call void @llvm.dbg.declare (metadata i64* %__n.addr, metadata !4411, metadata !4017), !dbg !4400
	store i64 %__n.arg, i64* %__n.addr, align 8, !tbaa !4033
	call void @llvm.dbg.declare (metadata i64* %__n.addr, metadata !4412, metadata !4017), !dbg !4400
	%0 = load i8*, i8** %__p.addr, align 8, !tbaa !4032, !dbg !4413
	call void  @_ZdlPv (i8*  %0) nounwind, !dbg !4414
	ret void, !dbg !4413
}

%struct.__locale_struct = type <{ [13 x %struct.__locale_data*], i16*, i32*, i32*, [13 x i8*]}> 
%struct.__locale_data = type opaque
%struct.__SO__NSt6locale5facetE = type <{ i32 (...)* (...)*, i32}> 
%struct._ZSt5ctypeIcE = type <{ %struct.__SO__NSt6locale5facetE, [4 x i8], %struct.__locale_struct*, i8, [7 x i8], i32*, i32*, i16*, i8, [256 x i8], [256 x i8], i8, [6 x i8]}> 

define linkonce_odr signext i8 @_ZNKSt5ctypeIcE5widenEc(%struct._ZSt5ctypeIcE* %_T45441808_51738.arg, i8 signext %__c.arg) #0 inlinehint !dbg !4420 {
L.entry:
	%_T45441808_51738.addr = alloca %struct._ZSt5ctypeIcE*, align 8
	%__c.addr = alloca i8, align 1
	%.Q0000.addr = alloca i32, align 4

	call void @llvm.dbg.declare (metadata %struct._ZSt5ctypeIcE** %_T45441808_51738.addr, metadata !4424, metadata !4017), !dbg !4421
	store %struct._ZSt5ctypeIcE* %_T45441808_51738.arg, %struct._ZSt5ctypeIcE** %_T45441808_51738.addr, align 8, !tbaa !4032
	call void @llvm.dbg.declare (metadata %struct._ZSt5ctypeIcE** %_T45441808_51738.addr, metadata !4425, metadata !4017), !dbg !4421
	call void @llvm.dbg.declare (metadata i8* %__c.addr, metadata !4426, metadata !4017), !dbg !4421
	store i8 %__c.arg, i8* %__c.addr, align 1, !tbaa !4033
	call void @llvm.dbg.declare (metadata i8* %__c.addr, metadata !4427, metadata !4017), !dbg !4421
	%0 = load %struct._ZSt5ctypeIcE*, %struct._ZSt5ctypeIcE** %_T45441808_51738.addr, align 8, !tbaa !4032, !dbg !4428
	%1 = bitcast %struct._ZSt5ctypeIcE*  %0 to i8*, !dbg !4428
	%2 = getelementptr i8, i8*  %1, i64 56, !dbg !4428
	%3 = load i8, i8*  %2, align 1, !tbaa !4033, !dbg !4428
	%4 = sext i8  %3 to i32, !dbg !4428
	%5 = icmp eq i32  %4, 0, !dbg !4428
	br i1  %5, label %L.B0014, label %L.B1153, !dbg !4428
L.B1153:
	%6 = bitcast %struct._ZSt5ctypeIcE*  %0 to i8*, !dbg !4429
	%7 = getelementptr i8, i8*  %6, i64 57, !dbg !4429
	%8 = load i8, i8* %__c.addr, align 1, !tbaa !4033, !dbg !4429
	%9 = sext i8  %8 to i32, !dbg !4429
	%10 = and i32  %9, 255, !dbg !4429
	%11 = sext i32  %10 to i64, !dbg !4429
	%12 = getelementptr i8, i8*  %7, i64  %11, !dbg !4429
	%13 = load i8, i8*  %12, align 1, !tbaa !4033, !dbg !4429
	ret i8  %13, !dbg !4429
L.B1154:
	br label %L.R0012, !dbg !4429
L.B0014:
	%14 = load %struct._ZSt5ctypeIcE*, %struct._ZSt5ctypeIcE** %_T45441808_51738.addr, align 8, !tbaa !4032, !dbg !4430
	call void  @_ZNKSt5ctypeIcE13_M_widen_initEv (%struct._ZSt5ctypeIcE*  %14), !dbg !4430
	%15 = load %struct._ZSt5ctypeIcE*, %struct._ZSt5ctypeIcE** %_T45441808_51738.addr, align 8, !tbaa !4032, !dbg !4431
	%16 = load i8, i8* %__c.addr, align 1, !tbaa !4033, !dbg !4431
	%17 = bitcast %struct._ZSt5ctypeIcE*  %15 to i8**, !dbg !4431
	%18 = load i8*, i8**  %17, align 8, !tbaa !4032, !dbg !4431
	%19 = getelementptr i8, i8*  %18, i64 48, !dbg !4431
	%20 = bitcast i8*  %19 to i8 (%struct._ZSt5ctypeIcE*, i8)**, !dbg !4431
	%21 = load i8 (%struct._ZSt5ctypeIcE*, i8)*, i8 (%struct._ZSt5ctypeIcE*, i8)**  %20, align 8, !tbaa !4032, !dbg !4431
	%22 = call i8  %21 (%struct._ZSt5ctypeIcE*  %15, i8  %16), !dbg !4431
	%23 = sext i8  %22 to i32, !dbg !4431
	store i32  %23, i32* %.Q0000.addr, align 4, !tbaa !4037, !dbg !4431
	%24 = shl i32  %23, 24, !dbg !4431
	%25 = ashr i32  %24, 24, !dbg !4431
	%26 = trunc i32  %25 to i8, !dbg !4431
	ret i8  %26, !dbg !4431
L.R0012:
	ret i8 0
}

%struct._ZSt7num_putIcSt19ostreambuf_iteratorIcSt11char_traitsIcEEE = type <{ %struct.__SO__NSt6locale5facetE, [4 x i8]}> 
%struct._ZSo = type <{ i32 (...)* (...)*, %struct._ZSt9basic_iosIcSt11char_traitsIcEE}> 
%struct._ZSt8ios_base = type <{ i32 (...)* (...)*, i64, i64, i32, i32, i32, [4 x i8], %struct._ZNSt8ios_base14_Callback_listE*, %struct._ZNSt8ios_base6_WordsE, [8 x %struct._ZNSt8ios_base6_WordsE], i32, [4 x i8], %struct._ZNSt8ios_base6_WordsE*, %struct._ZSt6locale}> 
%struct._ZSt9basic_iosIcSt11char_traitsIcEE = type <{ %struct._ZSt8ios_base, %struct._ZSo*, i8, i8, [6 x i8], %struct._ZSt15basic_streambufIcSt11char_traitsIcEE*, %struct._ZSt5ctypeIcE*, %struct._ZSt7num_putIcSt19ostreambuf_iteratorIcSt11char_traitsIcEEE*, %struct._ZSt7num_getIcSt19istreambuf_iteratorIcSt11char_traitsIcEEE*}> 
%struct._ZNSt6locale5_ImplE = type <{ i32, [4 x i8], %struct._ZNSt6locale5facetE**, i64, %struct._ZNSt6locale5facetE**, i8**}> 
%struct._ZNSt8ios_base14_Callback_listE = type <{ %struct._ZNSt8ios_base14_Callback_listE*, void (i32, %struct._ZSt8ios_base*, i32)*, i32, i32}> 
%struct._ZSt7num_getIcSt19istreambuf_iteratorIcSt11char_traitsIcEEE = type <{ %struct.__SO__NSt6locale5facetE, [4 x i8]}> 
%struct._ZNSt8ios_base6_WordsE = type <{ i8*, i64}> 
%struct._ZSt6locale = type <{ %struct._ZNSt6locale5_ImplE*}> 
%struct._ZNSt6locale5facetE = type <{ i32 (...)* (...)*, i32, [4 x i8]}> 
%struct._ZSt15basic_streambufIcSt11char_traitsIcEE = type <{ i32 (...)* (...)*, i8*, i8*, i8*, i8*, i8*, i8*, %struct._ZSt6locale}> 

define linkonce_odr signext i32 @_ZNKSt9basic_iosIcSt11char_traitsIcEE7rdstateEv(%struct._ZSt9basic_iosIcSt11char_traitsIcEE* %_T45441624_51741.arg) #0 inlinehint !dbg !4439 {
L.entry:
	%_T45441624_51741.addr = alloca %struct._ZSt9basic_iosIcSt11char_traitsIcEE*, align 8

	call void @llvm.dbg.declare (metadata %struct._ZSt9basic_iosIcSt11char_traitsIcEE** %_T45441624_51741.addr, metadata !4443, metadata !4017), !dbg !4440
	store %struct._ZSt9basic_iosIcSt11char_traitsIcEE* %_T45441624_51741.arg, %struct._ZSt9basic_iosIcSt11char_traitsIcEE** %_T45441624_51741.addr, align 8, !tbaa !4032
	call void @llvm.dbg.declare (metadata %struct._ZSt9basic_iosIcSt11char_traitsIcEE** %_T45441624_51741.addr, metadata !4444, metadata !4017), !dbg !4440
	%0 = load %struct._ZSt9basic_iosIcSt11char_traitsIcEE*, %struct._ZSt9basic_iosIcSt11char_traitsIcEE** %_T45441624_51741.addr, align 8, !tbaa !4032, !dbg !4445
	%1 = bitcast %struct._ZSt9basic_iosIcSt11char_traitsIcEE*  %0 to i8*, !dbg !4445
	%2 = getelementptr i8, i8*  %1, i64 32, !dbg !4445
	%3 = bitcast i8*  %2 to i32*, !dbg !4445
	%4 = load i32, i32*  %3, align 4, !tbaa !4033, !dbg !4445
	ret i32  %4, !dbg !4445
}
define linkonce_odr void @_ZNSt9basic_iosIcSt11char_traitsIcEE8setstateESt12_Ios_Iostate(%struct._ZSt9basic_iosIcSt11char_traitsIcEE* %_T45441624_51745.arg, i32 signext %__state.arg) #0 inlinehint !dbg !4449 {
L.entry:
	%_T45441624_51745.addr = alloca %struct._ZSt9basic_iosIcSt11char_traitsIcEE*, align 8
	%__state.addr = alloca i32, align 4
	%..inline.addr = alloca i32, align 4

	call void @llvm.dbg.declare (metadata %struct._ZSt9basic_iosIcSt11char_traitsIcEE** %_T45441624_51745.addr, metadata !4461, metadata !4017), !dbg !4450
	store %struct._ZSt9basic_iosIcSt11char_traitsIcEE* %_T45441624_51745.arg, %struct._ZSt9basic_iosIcSt11char_traitsIcEE** %_T45441624_51745.addr, align 8, !tbaa !4032
	call void @llvm.dbg.declare (metadata %struct._ZSt9basic_iosIcSt11char_traitsIcEE** %_T45441624_51745.addr, metadata !4462, metadata !4017), !dbg !4450
	call void @llvm.dbg.declare (metadata i32* %__state.addr, metadata !4463, metadata !4017), !dbg !4450
	store i32 %__state.arg, i32* %__state.addr, align 4, !tbaa !4033
	call void @llvm.dbg.declare (metadata i32* %__state.addr, metadata !4464, metadata !4017), !dbg !4450
	%0 = load i32, i32* %__state.addr, align 4, !tbaa !4033, !dbg !4465
	%1 = load %struct._ZSt9basic_iosIcSt11char_traitsIcEE*, %struct._ZSt9basic_iosIcSt11char_traitsIcEE** %_T45441624_51745.addr, align 8, !tbaa !4032, !dbg !4465
	%2 = bitcast %struct._ZSt9basic_iosIcSt11char_traitsIcEE*  %1 to i8*, !dbg !4465
	%3 = getelementptr i8, i8*  %2, i64 32, !dbg !4465
	%4 = bitcast i8*  %3 to i32*, !dbg !4465
	%5 = load i32, i32*  %4, align 4, !tbaa !4033, !dbg !4465
	%6 = or i32  %0,  %5, !dbg !4465
	call void  @_ZNSt9basic_iosIcSt11char_traitsIcEE5clearESt12_Ios_Iostate (%struct._ZSt9basic_iosIcSt11char_traitsIcEE*  %1, i32  %6), !dbg !4466
	ret void, !dbg !4465
}
define linkonce_odr signext i8 @_ZNKSt9basic_iosIcSt11char_traitsIcEE5widenEc(%struct._ZSt9basic_iosIcSt11char_traitsIcEE* %_T45441624_51747.arg, i8 signext %__c.arg) #0 inlinehint !dbg !4470 {
L.entry:
	%_T45441624_51747.addr = alloca %struct._ZSt9basic_iosIcSt11char_traitsIcEE*, align 8
	%__c.addr = alloca i8, align 1
	%..inline.addr = alloca %struct._ZSt5ctypeIcE*, align 8
	%..inline.addr.1 = alloca %struct._ZSt5ctypeIcE*, align 8
	%..inline.addr.2 = alloca i8, align 1
	%..inline.addr.3 = alloca i8, align 1
	%.Q0001.addr = alloca i32, align 4

	call void @llvm.dbg.declare (metadata %struct._ZSt9basic_iosIcSt11char_traitsIcEE** %_T45441624_51747.addr, metadata !4482, metadata !4017), !dbg !4471
	store %struct._ZSt9basic_iosIcSt11char_traitsIcEE* %_T45441624_51747.arg, %struct._ZSt9basic_iosIcSt11char_traitsIcEE** %_T45441624_51747.addr, align 8, !tbaa !4032
	call void @llvm.dbg.declare (metadata %struct._ZSt9basic_iosIcSt11char_traitsIcEE** %_T45441624_51747.addr, metadata !4483, metadata !4017), !dbg !4471
	call void @llvm.dbg.declare (metadata i8* %__c.addr, metadata !4484, metadata !4017), !dbg !4471
	store i8 %__c.arg, i8* %__c.addr, align 1, !tbaa !4033
	call void @llvm.dbg.declare (metadata i8* %__c.addr, metadata !4485, metadata !4017), !dbg !4471
	%0 = load %struct._ZSt9basic_iosIcSt11char_traitsIcEE*, %struct._ZSt9basic_iosIcSt11char_traitsIcEE** %_T45441624_51747.addr, align 8, !tbaa !4032, !dbg !4486
	%1 = bitcast %struct._ZSt9basic_iosIcSt11char_traitsIcEE*  %0 to i8*, !dbg !4486
	%2 = getelementptr i8, i8*  %1, i64 240, !dbg !4486
	%3 = bitcast i8*  %2 to i8**, !dbg !4486
	%4 = load i8*, i8**  %3, align 8, !tbaa !4032, !dbg !4486
	%5 = bitcast %struct._ZSt5ctypeIcE** %..inline.addr to i8**, !dbg !4486
	store i8*  %4, i8**  %5, align 8, !tbaa !4032, !dbg !4486
	%6 = load %struct._ZSt5ctypeIcE*, %struct._ZSt5ctypeIcE** %..inline.addr, align 8, !tbaa !4032, !dbg !4486
	%7 = bitcast %struct._ZSt5ctypeIcE*  %6 to i8*, !dbg !4486
	%8 = icmp ne i8*  %7,  null, !dbg !4486
	br i1  %8, label %L..inline.67732, label %L.B1163, !dbg !4486
L.B1163:
	call void  @_ZSt16__throw_bad_castv () noreturn, !dbg !4487
	br label %L..inline.67732
L..inline.67732:
	%9 = load %struct._ZSt5ctypeIcE*, %struct._ZSt5ctypeIcE** %..inline.addr, align 8, !tbaa !4032, !dbg !4488
	%10 = bitcast %struct._ZSt5ctypeIcE*  %9 to i8*, !dbg !4488
	%11 = bitcast %struct._ZSt5ctypeIcE** %..inline.addr.1 to i8**, !dbg !4488
	store i8*  %10, i8**  %11, align 8, !tbaa !4032, !dbg !4488
	%12 = load i8, i8* %__c.addr, align 1, !tbaa !4033, !dbg !4486
	store i8  %12, i8* %..inline.addr.2, align 1, !tbaa !4033, !dbg !4486
	%13 = load %struct._ZSt5ctypeIcE*, %struct._ZSt5ctypeIcE** %..inline.addr.1, align 8, !tbaa !4032, !dbg !4486
	%14 = bitcast %struct._ZSt5ctypeIcE*  %13 to i8*, !dbg !4486
	%15 = getelementptr i8, i8*  %14, i64 56, !dbg !4486
	%16 = load i8, i8*  %15, align 1, !tbaa !4033, !dbg !4486
	%17 = sext i8  %16 to i32, !dbg !4486
	%18 = icmp eq i32  %17, 0, !dbg !4486
	br i1  %18, label %L..inline.67738, label %L.B1164, !dbg !4486
L.B1164:
	%19 = bitcast %struct._ZSt5ctypeIcE*  %13 to i8*, !dbg !4489
	%20 = getelementptr i8, i8*  %19, i64 57, !dbg !4489
	%21 = sext i8  %12 to i32, !dbg !4489
	%22 = and i32  %21, 255, !dbg !4489
	%23 = sext i32  %22 to i64, !dbg !4489
	%24 = getelementptr i8, i8*  %20, i64  %23, !dbg !4489
	%25 = load i8, i8*  %24, align 1, !tbaa !4033, !dbg !4489
	store i8  %25, i8* %..inline.addr.3, align 1, !tbaa !4033, !dbg !4489
	br label %L..inline.67742, !dbg !4490
L..inline.67738:
	%26 = load %struct._ZSt5ctypeIcE*, %struct._ZSt5ctypeIcE** %..inline.addr.1, align 8, !tbaa !4032, !dbg !4491
	call void  @_ZNKSt5ctypeIcE13_M_widen_initEv (%struct._ZSt5ctypeIcE*  %26), !dbg !4491
	%27 = load %struct._ZSt5ctypeIcE*, %struct._ZSt5ctypeIcE** %..inline.addr.1, align 8, !tbaa !4032, !dbg !4492
	%28 = load i8, i8* %..inline.addr.2, align 1, !tbaa !4033, !dbg !4492
	%29 = bitcast %struct._ZSt5ctypeIcE*  %27 to i8**, !dbg !4492
	%30 = load i8*, i8**  %29, align 8, !tbaa !4032, !dbg !4492
	%31 = getelementptr i8, i8*  %30, i64 48, !dbg !4492
	%32 = bitcast i8*  %31 to i8 (%struct._ZSt5ctypeIcE*, i8)**, !dbg !4492
	%33 = load i8 (%struct._ZSt5ctypeIcE*, i8)*, i8 (%struct._ZSt5ctypeIcE*, i8)**  %32, align 8, !tbaa !4032, !dbg !4492
	%34 = call i8  %33 (%struct._ZSt5ctypeIcE*  %27, i8  %28), !dbg !4492
	%35 = sext i8  %34 to i32, !dbg !4492
	store i32  %35, i32* %.Q0001.addr, align 4, !tbaa !4037, !dbg !4492
	%36 = shl i32  %35, 24, !dbg !4492
	%37 = ashr i32  %36, 24, !dbg !4492
	%38 = trunc i32  %37 to i8, !dbg !4492
	store i8  %38, i8* %..inline.addr.3, align 1, !tbaa !4033, !dbg !4492
	br label %L..inline.67742
L..inline.67742:
	%39 = load i8, i8* %..inline.addr.3, align 1, !tbaa !4033, !dbg !4493
	ret i8  %39, !dbg !4493
}
define linkonce_odr %struct._ZSo* @_ZNSolsEPFRSoS_E(%struct._ZSo* %_T45441624_51749.arg, %struct._ZSo* (%struct._ZSo*)* %__pf.arg) #0 inlinehint !dbg !4502 {
L.entry:
	%_T45441624_51749.addr = alloca %struct._ZSo*, align 8
	%__pf.addr = alloca %struct._ZSo* (%struct._ZSo*)*, align 8
	%.Q0002.addr = alloca %struct._ZSo*, align 8

	call void @llvm.dbg.declare (metadata %struct._ZSo** %_T45441624_51749.addr, metadata !4506, metadata !4017), !dbg !4503
	store %struct._ZSo* %_T45441624_51749.arg, %struct._ZSo** %_T45441624_51749.addr, align 8, !tbaa !4032
	call void @llvm.dbg.declare (metadata %struct._ZSo** %_T45441624_51749.addr, metadata !4507, metadata !4017), !dbg !4503
	call void @llvm.dbg.declare (metadata %struct._ZSo* (%struct._ZSo*)** %__pf.addr, metadata !4508, metadata !4017), !dbg !4503
	store %struct._ZSo* (%struct._ZSo*)* %__pf.arg, %struct._ZSo* (%struct._ZSo*)** %__pf.addr, align 8, !tbaa !4032
	call void @llvm.dbg.declare (metadata %struct._ZSo* (%struct._ZSo*)** %__pf.addr, metadata !4509, metadata !4017), !dbg !4503
	%0 = load %struct._ZSo*, %struct._ZSo** %_T45441624_51749.addr, align 8, !tbaa !4032, !dbg !4510
	%1 = load %struct._ZSo* (%struct._ZSo*)*, %struct._ZSo* (%struct._ZSo*)** %__pf.addr, align 8, !tbaa !4032, !dbg !4510
	%2 = call %struct._ZSo*  %1 (%struct._ZSo*  %0), !dbg !4510
	%3 = bitcast %struct._ZSo*  %2 to i8*, !dbg !4510
	%4 = bitcast %struct._ZSo** %.Q0002.addr to i8**, !dbg !4510
	store i8*  %3, i8**  %4, align 8, !tbaa !4032, !dbg !4510
	%5 = load %struct._ZSo*, %struct._ZSo** %.Q0002.addr, align 8, !tbaa !4032, !dbg !4510
	ret %struct._ZSo*  %5, !dbg !4510
}
define linkonce_odr void @_ZNSt12_Destroy_auxILb1EE9__destroyIPjEEvT_S3_(i32* %_T45441624_51756.arg, i32* %_T45441920_51756.arg) #0 inlinehint !dbg !4517 {
L.entry:
	%_T45441624_51756.addr = alloca i32*, align 8
	%_T45441920_51756.addr = alloca i32*, align 8

	call void @llvm.dbg.declare (metadata i32** %_T45441624_51756.addr, metadata !4521, metadata !4017), !dbg !4518
	store i32* %_T45441624_51756.arg, i32** %_T45441624_51756.addr, align 8, !tbaa !4032
	call void @llvm.dbg.declare (metadata i32** %_T45441624_51756.addr, metadata !4522, metadata !4017), !dbg !4518
	call void @llvm.dbg.declare (metadata i32** %_T45441920_51756.addr, metadata !4523, metadata !4017), !dbg !4518
	store i32* %_T45441920_51756.arg, i32** %_T45441920_51756.addr, align 8, !tbaa !4032
	call void @llvm.dbg.declare (metadata i32** %_T45441920_51756.addr, metadata !4524, metadata !4017), !dbg !4518
	ret void, !dbg !4525
}
define linkonce_odr void @_ZNSt12_Destroy_auxILb1EE9__destroyIPdEEvT_S3_(double* %_T45441624_51759.arg, double* %_T45441920_51759.arg) #0 inlinehint !dbg !4529 {
L.entry:
	%_T45441624_51759.addr = alloca double*, align 8
	%_T45441920_51759.addr = alloca double*, align 8

	call void @llvm.dbg.declare (metadata double** %_T45441624_51759.addr, metadata !4533, metadata !4017), !dbg !4530
	store double* %_T45441624_51759.arg, double** %_T45441624_51759.addr, align 8, !tbaa !4032
	call void @llvm.dbg.declare (metadata double** %_T45441624_51759.addr, metadata !4534, metadata !4017), !dbg !4530
	call void @llvm.dbg.declare (metadata double** %_T45441920_51759.addr, metadata !4535, metadata !4017), !dbg !4530
	store double* %_T45441920_51759.arg, double** %_T45441920_51759.addr, align 8, !tbaa !4032
	call void @llvm.dbg.declare (metadata double** %_T45441920_51759.addr, metadata !4536, metadata !4017), !dbg !4530
	ret void, !dbg !4537
}
define linkonce_odr double* @_ZNSt14__array_traitsIdLm3EE6_S_refERA3_Kdm([3 x double]* %__t.arg, i64 %__n.arg) #0 inlinehint !dbg !4544 {
L.entry:
	%__t.addr = alloca [3 x double]*, align 8
	%__n.addr = alloca i64, align 8

	call void @llvm.dbg.declare (metadata [3 x double]** %__t.addr, metadata !4548, metadata !4017), !dbg !4545
	store [3 x double]* %__t.arg, [3 x double]** %__t.addr, align 8, !tbaa !4032
	call void @llvm.dbg.declare (metadata [3 x double]** %__t.addr, metadata !4549, metadata !4017), !dbg !4545
	call void @llvm.dbg.declare (metadata i64* %__n.addr, metadata !4550, metadata !4017), !dbg !4545
	store i64 %__n.arg, i64* %__n.addr, align 8, !tbaa !4033
	call void @llvm.dbg.declare (metadata i64* %__n.addr, metadata !4551, metadata !4017), !dbg !4545
	%0 = load [3 x double]*, [3 x double]** %__t.addr, align 8, !tbaa !4032, !dbg !4552
	%1 = bitcast [3 x double]*  %0 to i8*, !dbg !4552
	%2 = load i64, i64* %__n.addr, align 8, !tbaa !4035, !dbg !4552
	%3 = mul i64  %2, 8, !dbg !4552
	%4 = getelementptr i8, i8*  %1, i64  %3, !dbg !4552
	%5 = bitcast i8*  %4 to double*, !dbg !4552
	ret double*  %5, !dbg !4552
}
define linkonce_odr double* @_ZNSt5arrayIdLm3EEixEm(%struct._ZSt5arrayIdLm3EE* %_T45441624_51764.arg, i64 %__n.arg) #0 inlinehint !dbg !4556 {
L.entry:
	%_T45441624_51764.addr = alloca %struct._ZSt5arrayIdLm3EE*, align 8
	%__n.addr = alloca i64, align 8

	call void @llvm.dbg.declare (metadata %struct._ZSt5arrayIdLm3EE** %_T45441624_51764.addr, metadata !4564, metadata !4017), !dbg !4557
	store %struct._ZSt5arrayIdLm3EE* %_T45441624_51764.arg, %struct._ZSt5arrayIdLm3EE** %_T45441624_51764.addr, align 8, !tbaa !4032
	call void @llvm.dbg.declare (metadata %struct._ZSt5arrayIdLm3EE** %_T45441624_51764.addr, metadata !4565, metadata !4017), !dbg !4557
	call void @llvm.dbg.declare (metadata i64* %__n.addr, metadata !4566, metadata !4017), !dbg !4557
	store i64 %__n.arg, i64* %__n.addr, align 8, !tbaa !4033
	call void @llvm.dbg.declare (metadata i64* %__n.addr, metadata !4567, metadata !4017), !dbg !4557
	%0 = load %struct._ZSt5arrayIdLm3EE*, %struct._ZSt5arrayIdLm3EE** %_T45441624_51764.addr, align 8, !tbaa !4032, !dbg !4568
	%1 = bitcast %struct._ZSt5arrayIdLm3EE*  %0 to i8*, !dbg !4568
	%2 = load i64, i64* %__n.addr, align 8, !tbaa !4035, !dbg !4568
	%3 = mul i64  %2, 8, !dbg !4568
	%4 = getelementptr i8, i8*  %1, i64  %3, !dbg !4568
	%5 = bitcast i8*  %4 to double*, !dbg !4568
	ret double*  %5, !dbg !4568
}
define linkonce_odr double* @_ZNKSt5arrayIdLm3EEixEm(%struct._ZSt5arrayIdLm3EE* %_T45441624_51767.arg, i64 %__n.arg) #0 inlinehint !dbg !4570 {
L.entry:
	%_T45441624_51767.addr = alloca %struct._ZSt5arrayIdLm3EE*, align 8
	%__n.addr = alloca i64, align 8

	call void @llvm.dbg.declare (metadata %struct._ZSt5arrayIdLm3EE** %_T45441624_51767.addr, metadata !4578, metadata !4017), !dbg !4571
	store %struct._ZSt5arrayIdLm3EE* %_T45441624_51767.arg, %struct._ZSt5arrayIdLm3EE** %_T45441624_51767.addr, align 8, !tbaa !4032
	call void @llvm.dbg.declare (metadata %struct._ZSt5arrayIdLm3EE** %_T45441624_51767.addr, metadata !4579, metadata !4017), !dbg !4571
	call void @llvm.dbg.declare (metadata i64* %__n.addr, metadata !4580, metadata !4017), !dbg !4571
	store i64 %__n.arg, i64* %__n.addr, align 8, !tbaa !4033
	call void @llvm.dbg.declare (metadata i64* %__n.addr, metadata !4581, metadata !4017), !dbg !4571
	%0 = load %struct._ZSt5arrayIdLm3EE*, %struct._ZSt5arrayIdLm3EE** %_T45441624_51767.addr, align 8, !tbaa !4032, !dbg !4582
	%1 = bitcast %struct._ZSt5arrayIdLm3EE*  %0 to i8*, !dbg !4582
	%2 = load i64, i64* %__n.addr, align 8, !tbaa !4035, !dbg !4582
	%3 = mul i64  %2, 8, !dbg !4582
	%4 = getelementptr i8, i8*  %1, i64  %3, !dbg !4582
	%5 = bitcast i8*  %4 to double*, !dbg !4582
	ret double*  %5, !dbg !4582
}
define linkonce_odr double* @_ZNSt5arrayIdLm3EE2atEm(%struct._ZSt5arrayIdLm3EE* %_T45441624_51770.arg, i64 %__n.arg) #0 inlinehint !dbg !4584 {
L.entry:
	%_T45441624_51770.addr = alloca %struct._ZSt5arrayIdLm3EE*, align 8
	%__n.addr = alloca i64, align 8

	call void @llvm.dbg.declare (metadata %struct._ZSt5arrayIdLm3EE** %_T45441624_51770.addr, metadata !4592, metadata !4017), !dbg !4585
	store %struct._ZSt5arrayIdLm3EE* %_T45441624_51770.arg, %struct._ZSt5arrayIdLm3EE** %_T45441624_51770.addr, align 8, !tbaa !4032
	call void @llvm.dbg.declare (metadata %struct._ZSt5arrayIdLm3EE** %_T45441624_51770.addr, metadata !4593, metadata !4017), !dbg !4585
	call void @llvm.dbg.declare (metadata i64* %__n.addr, metadata !4594, metadata !4017), !dbg !4585
	store i64 %__n.arg, i64* %__n.addr, align 8, !tbaa !4033
	call void @llvm.dbg.declare (metadata i64* %__n.addr, metadata !4595, metadata !4017), !dbg !4585
	%0 = load i64, i64* %__n.addr, align 8, !tbaa !4035, !dbg !4596
	%1 = icmp ult i64  %0, 3, !dbg !4596
	br i1  %1, label %L.B0015, label %L.B1171, !dbg !4596
L.B1171:
	%2 = bitcast [52 x i8]* @.S53184 to i8*, !dbg !4597
	call void (i8*, ...)  @_ZSt24__throw_out_of_range_fmtPKcz (i8*  %2, i64  %0, i64 3) noreturn, !dbg !4597
	br label %L.B0015
L.B0015:
	%3 = load %struct._ZSt5arrayIdLm3EE*, %struct._ZSt5arrayIdLm3EE** %_T45441624_51770.addr, align 8, !tbaa !4032, !dbg !4598
	%4 = bitcast %struct._ZSt5arrayIdLm3EE*  %3 to i8*, !dbg !4598
	%5 = load i64, i64* %__n.addr, align 8, !tbaa !4035, !dbg !4598
	%6 = mul i64  %5, 8, !dbg !4598
	%7 = getelementptr i8, i8*  %4, i64  %6, !dbg !4598
	%8 = bitcast i8*  %7 to double*, !dbg !4598
	ret double*  %8, !dbg !4598
}
define linkonce_odr i32* @_ZNSt14__array_traitsIiLm27EE6_S_refERA27_Kim([27 x i32]* %__t.arg, i64 %__n.arg) #0 inlinehint !dbg !4604 {
L.entry:
	%__t.addr = alloca [27 x i32]*, align 8
	%__n.addr = alloca i64, align 8

	call void @llvm.dbg.declare (metadata [27 x i32]** %__t.addr, metadata !4608, metadata !4017), !dbg !4605
	store [27 x i32]* %__t.arg, [27 x i32]** %__t.addr, align 8, !tbaa !4032
	call void @llvm.dbg.declare (metadata [27 x i32]** %__t.addr, metadata !4609, metadata !4017), !dbg !4605
	call void @llvm.dbg.declare (metadata i64* %__n.addr, metadata !4610, metadata !4017), !dbg !4605
	store i64 %__n.arg, i64* %__n.addr, align 8, !tbaa !4033
	call void @llvm.dbg.declare (metadata i64* %__n.addr, metadata !4611, metadata !4017), !dbg !4605
	%0 = load [27 x i32]*, [27 x i32]** %__t.addr, align 8, !tbaa !4032, !dbg !4612
	%1 = bitcast [27 x i32]*  %0 to i8*, !dbg !4612
	%2 = load i64, i64* %__n.addr, align 8, !tbaa !4035, !dbg !4612
	%3 = mul i64  %2, 4, !dbg !4612
	%4 = getelementptr i8, i8*  %1, i64  %3, !dbg !4612
	%5 = bitcast i8*  %4 to i32*, !dbg !4612
	ret i32*  %5, !dbg !4612
}
define linkonce_odr i32* @_ZNSt5arrayIiLm27EEixEm(%struct._ZSt5arrayIiLm27EE* %_T45441624_51775.arg, i64 %__n.arg) #0 inlinehint !dbg !4617 {
L.entry:
	%_T45441624_51775.addr = alloca %struct._ZSt5arrayIiLm27EE*, align 8
	%__n.addr = alloca i64, align 8

	call void @llvm.dbg.declare (metadata %struct._ZSt5arrayIiLm27EE** %_T45441624_51775.addr, metadata !4625, metadata !4017), !dbg !4618
	store %struct._ZSt5arrayIiLm27EE* %_T45441624_51775.arg, %struct._ZSt5arrayIiLm27EE** %_T45441624_51775.addr, align 8, !tbaa !4032
	call void @llvm.dbg.declare (metadata %struct._ZSt5arrayIiLm27EE** %_T45441624_51775.addr, metadata !4626, metadata !4017), !dbg !4618
	call void @llvm.dbg.declare (metadata i64* %__n.addr, metadata !4627, metadata !4017), !dbg !4618
	store i64 %__n.arg, i64* %__n.addr, align 8, !tbaa !4033
	call void @llvm.dbg.declare (metadata i64* %__n.addr, metadata !4628, metadata !4017), !dbg !4618
	%0 = load %struct._ZSt5arrayIiLm27EE*, %struct._ZSt5arrayIiLm27EE** %_T45441624_51775.addr, align 8, !tbaa !4032, !dbg !4629
	%1 = bitcast %struct._ZSt5arrayIiLm27EE*  %0 to i8*, !dbg !4629
	%2 = load i64, i64* %__n.addr, align 8, !tbaa !4035, !dbg !4629
	%3 = mul i64  %2, 4, !dbg !4629
	%4 = getelementptr i8, i8*  %1, i64  %3, !dbg !4629
	%5 = bitcast i8*  %4 to i32*, !dbg !4629
	ret i32*  %5, !dbg !4629
}
define linkonce_odr i32* @_ZNSt14__array_traitsIiLm3EE6_S_refERA3_Kim([3 x i32]* %__t.arg, i64 %__n.arg) #0 inlinehint !dbg !4634 {
L.entry:
	%__t.addr = alloca [3 x i32]*, align 8
	%__n.addr = alloca i64, align 8

	call void @llvm.dbg.declare (metadata [3 x i32]** %__t.addr, metadata !4638, metadata !4017), !dbg !4635
	store [3 x i32]* %__t.arg, [3 x i32]** %__t.addr, align 8, !tbaa !4032
	call void @llvm.dbg.declare (metadata [3 x i32]** %__t.addr, metadata !4639, metadata !4017), !dbg !4635
	call void @llvm.dbg.declare (metadata i64* %__n.addr, metadata !4640, metadata !4017), !dbg !4635
	store i64 %__n.arg, i64* %__n.addr, align 8, !tbaa !4033
	call void @llvm.dbg.declare (metadata i64* %__n.addr, metadata !4641, metadata !4017), !dbg !4635
	%0 = load [3 x i32]*, [3 x i32]** %__t.addr, align 8, !tbaa !4032, !dbg !4642
	%1 = bitcast [3 x i32]*  %0 to i8*, !dbg !4642
	%2 = load i64, i64* %__n.addr, align 8, !tbaa !4035, !dbg !4642
	%3 = mul i64  %2, 4, !dbg !4642
	%4 = getelementptr i8, i8*  %1, i64  %3, !dbg !4642
	%5 = bitcast i8*  %4 to i32*, !dbg !4642
	ret i32*  %5, !dbg !4642
}
define linkonce_odr i32* @_ZNSt14__array_traitsIiLm3EE6_S_ptrERA3_Ki([3 x i32]* %__t.arg) #0 inlinehint !dbg !4646 {
L.entry:
	%__t.addr = alloca [3 x i32]*, align 8

	call void @llvm.dbg.declare (metadata [3 x i32]** %__t.addr, metadata !4650, metadata !4017), !dbg !4647
	store [3 x i32]* %__t.arg, [3 x i32]** %__t.addr, align 8, !tbaa !4032
	call void @llvm.dbg.declare (metadata [3 x i32]** %__t.addr, metadata !4651, metadata !4017), !dbg !4647
	%0 = load [3 x i32]*, [3 x i32]** %__t.addr, align 8, !tbaa !4032, !dbg !4652
	%1 = bitcast [3 x i32]*  %0 to i32*, !dbg !4652
	ret i32*  %1, !dbg !4652
}
define linkonce_odr i32* @_ZNSt5arrayIiLm3EEixEm(%struct._ZSt5arrayIiLm3EE* %_T45441624_51782.arg, i64 %__n.arg) #0 inlinehint !dbg !4656 {
L.entry:
	%_T45441624_51782.addr = alloca %struct._ZSt5arrayIiLm3EE*, align 8
	%__n.addr = alloca i64, align 8

	call void @llvm.dbg.declare (metadata %struct._ZSt5arrayIiLm3EE** %_T45441624_51782.addr, metadata !4664, metadata !4017), !dbg !4657
	store %struct._ZSt5arrayIiLm3EE* %_T45441624_51782.arg, %struct._ZSt5arrayIiLm3EE** %_T45441624_51782.addr, align 8, !tbaa !4032
	call void @llvm.dbg.declare (metadata %struct._ZSt5arrayIiLm3EE** %_T45441624_51782.addr, metadata !4665, metadata !4017), !dbg !4657
	call void @llvm.dbg.declare (metadata i64* %__n.addr, metadata !4666, metadata !4017), !dbg !4657
	store i64 %__n.arg, i64* %__n.addr, align 8, !tbaa !4033
	call void @llvm.dbg.declare (metadata i64* %__n.addr, metadata !4667, metadata !4017), !dbg !4657
	%0 = load %struct._ZSt5arrayIiLm3EE*, %struct._ZSt5arrayIiLm3EE** %_T45441624_51782.addr, align 8, !tbaa !4032, !dbg !4668
	%1 = bitcast %struct._ZSt5arrayIiLm3EE*  %0 to i8*, !dbg !4668
	%2 = load i64, i64* %__n.addr, align 8, !tbaa !4035, !dbg !4668
	%3 = mul i64  %2, 4, !dbg !4668
	%4 = getelementptr i8, i8*  %1, i64  %3, !dbg !4668
	%5 = bitcast i8*  %4 to i32*, !dbg !4668
	ret i32*  %5, !dbg !4668
}
define linkonce_odr i32* @_ZNSt5arrayIiLm3EE4dataEv(%struct._ZSt5arrayIiLm3EE* %_T45441624_51784.arg) #0 inlinehint !dbg !4672 {
L.entry:
	%_T45441624_51784.addr = alloca %struct._ZSt5arrayIiLm3EE*, align 8

	call void @llvm.dbg.declare (metadata %struct._ZSt5arrayIiLm3EE** %_T45441624_51784.addr, metadata !4680, metadata !4017), !dbg !4673
	store %struct._ZSt5arrayIiLm3EE* %_T45441624_51784.arg, %struct._ZSt5arrayIiLm3EE** %_T45441624_51784.addr, align 8, !tbaa !4032
	call void @llvm.dbg.declare (metadata %struct._ZSt5arrayIiLm3EE** %_T45441624_51784.addr, metadata !4681, metadata !4017), !dbg !4673
	%0 = load %struct._ZSt5arrayIiLm3EE*, %struct._ZSt5arrayIiLm3EE** %_T45441624_51784.addr, align 8, !tbaa !4032, !dbg !4682
	%1 = bitcast %struct._ZSt5arrayIiLm3EE*  %0 to i32*, !dbg !4682
	ret i32*  %1, !dbg !4682
}

%struct._ZSaIjE = type <{ [1 x i8]}> 

define linkonce_odr void @_ZNSaIjED1Ev(%struct._ZSaIjE* %_T45441624_51785.arg) #0 inlinehint !dbg !4690 {
L.entry:
	%_T45441624_51785.addr = alloca %struct._ZSaIjE*, align 8

	call void @llvm.dbg.declare (metadata %struct._ZSaIjE** %_T45441624_51785.addr, metadata !4694, metadata !4017), !dbg !4691
	store %struct._ZSaIjE* %_T45441624_51785.arg, %struct._ZSaIjE** %_T45441624_51785.addr, align 8, !tbaa !4032
	call void @llvm.dbg.declare (metadata %struct._ZSaIjE** %_T45441624_51785.addr, metadata !4695, metadata !4017), !dbg !4691
	ret void, !dbg !4696
}
define linkonce_odr void @_ZNSaIjED2Ev(%struct._ZSaIjE* %_T45441624_51786.arg) #0 inlinehint !dbg !4698 {
L.entry:
	%_T45441624_51786.addr = alloca %struct._ZSaIjE*, align 8

	store %struct._ZSaIjE* %_T45441624_51786.arg, %struct._ZSaIjE** %_T45441624_51786.addr, align 8, !tbaa !4032
	ret void, !dbg !4706
}
define linkonce_odr void @_ZNSt16allocator_traitsISaIjEE10deallocateERS0_Pjm(%struct._ZSaIjE* %__a.arg, i32* %__p.arg, i64 %__n.arg) #0 inlinehint !dbg !4714 {
L.entry:
	%__a.addr = alloca %struct._ZSaIjE*, align 8
	%__p.addr = alloca i32*, align 8
	%__n.addr = alloca i64, align 8
	%..inline.addr = alloca i32*, align 8

	call void @llvm.dbg.declare (metadata %struct._ZSaIjE** %__a.addr, metadata !4722, metadata !4017), !dbg !4715
	store %struct._ZSaIjE* %__a.arg, %struct._ZSaIjE** %__a.addr, align 8, !tbaa !4032
	call void @llvm.dbg.declare (metadata %struct._ZSaIjE** %__a.addr, metadata !4723, metadata !4017), !dbg !4715
	call void @llvm.dbg.declare (metadata i32** %__p.addr, metadata !4724, metadata !4017), !dbg !4715
	store i32* %__p.arg, i32** %__p.addr, align 8, !tbaa !4032
	call void @llvm.dbg.declare (metadata i32** %__p.addr, metadata !4725, metadata !4017), !dbg !4715
	call void @llvm.dbg.declare (metadata i64* %__n.addr, metadata !4726, metadata !4017), !dbg !4715
	store i64 %__n.arg, i64* %__n.addr, align 8, !tbaa !4033
	call void @llvm.dbg.declare (metadata i64* %__n.addr, metadata !4727, metadata !4017), !dbg !4715
	%0 = load i32*, i32** %__p.addr, align 8, !tbaa !4032, !dbg !4728
	%1 = bitcast i32*  %0 to i8*, !dbg !4728
	%2 = bitcast i32** %..inline.addr to i8**, !dbg !4728
	store i8*  %1, i8**  %2, align 8, !tbaa !4032, !dbg !4728
	%3 = load i32*, i32** %..inline.addr, align 8, !tbaa !4032, !dbg !4729
	%4 = bitcast i32*  %3 to i8*, !dbg !4729
	call void  @_ZdlPv (i8*  %4) nounwind, !dbg !4729
	ret void, !dbg !4728
}

%struct._ZSt12_Vector_baseIjSaIjEE = type <{ %struct._ZNSt12_Vector_baseIjSaIjEE12_Vector_implE}> 
%struct._ZNSt12_Vector_baseIjSaIjEE12_Vector_implE = type <{ %struct._ZNSt12_Vector_baseIjSaIjEE17_Vector_impl_dataE}> 
%struct._ZNSt12_Vector_baseIjSaIjEE17_Vector_impl_dataE = type <{ i32*, i32*, i32*}> 

define linkonce_odr %struct._ZSaIjE* @_ZNSt12_Vector_baseIjSaIjEE19_M_get_Tp_allocatorEv(%struct._ZSt12_Vector_baseIjSaIjEE* %_T45441624_51792.arg) #0 inlinehint !dbg !4737 {
L.entry:
	%_T45441624_51792.addr = alloca %struct._ZSt12_Vector_baseIjSaIjEE*, align 8

	call void @llvm.dbg.declare (metadata %struct._ZSt12_Vector_baseIjSaIjEE** %_T45441624_51792.addr, metadata !4741, metadata !4017), !dbg !4738
	store %struct._ZSt12_Vector_baseIjSaIjEE* %_T45441624_51792.arg, %struct._ZSt12_Vector_baseIjSaIjEE** %_T45441624_51792.addr, align 8, !tbaa !4032
	call void @llvm.dbg.declare (metadata %struct._ZSt12_Vector_baseIjSaIjEE** %_T45441624_51792.addr, metadata !4742, metadata !4017), !dbg !4738
	%0 = load %struct._ZSt12_Vector_baseIjSaIjEE*, %struct._ZSt12_Vector_baseIjSaIjEE** %_T45441624_51792.addr, align 8, !tbaa !4032, !dbg !4743
	%1 = bitcast %struct._ZSt12_Vector_baseIjSaIjEE*  %0 to %struct._ZSaIjE*, !dbg !4743
	ret %struct._ZSaIjE*  %1, !dbg !4743
}
define linkonce_odr void @_ZNSt12_Vector_baseIjSaIjEED1Ev(%struct._ZSt12_Vector_baseIjSaIjEE* %_T45441624_51793.arg) #0 inlinehint !dbg !4747 {
L.entry:
	%_T45441624_51793.addr = alloca %struct._ZSt12_Vector_baseIjSaIjEE*, align 8
	%..inline.addr = alloca i32*, align 8

	call void @llvm.dbg.declare (metadata %struct._ZSt12_Vector_baseIjSaIjEE** %_T45441624_51793.addr, metadata !4775, metadata !4017), !dbg !4748
	store %struct._ZSt12_Vector_baseIjSaIjEE* %_T45441624_51793.arg, %struct._ZSt12_Vector_baseIjSaIjEE** %_T45441624_51793.addr, align 8, !tbaa !4032
	call void @llvm.dbg.declare (metadata %struct._ZSt12_Vector_baseIjSaIjEE** %_T45441624_51793.addr, metadata !4776, metadata !4017), !dbg !4748
	%0 = load %struct._ZSt12_Vector_baseIjSaIjEE*, %struct._ZSt12_Vector_baseIjSaIjEE** %_T45441624_51793.addr, align 8, !tbaa !4032, !dbg !4777
	%1 = bitcast %struct._ZSt12_Vector_baseIjSaIjEE*  %0 to i8**, !dbg !4777
	%2 = load i8*, i8**  %1, align 8, !tbaa !4032, !dbg !4777
	%3 = icmp eq i8*  %2,  null, !dbg !4777
	br i1  %3, label %L..inline.67914, label %L.B1186, !dbg !4777
L.B1186:
	%4 = bitcast %struct._ZSt12_Vector_baseIjSaIjEE*  %0 to i8**, !dbg !4778
	%5 = load i8*, i8**  %4, align 8, !tbaa !4032, !dbg !4778
	%6 = bitcast i32** %..inline.addr to i8**, !dbg !4778
	store i8*  %5, i8**  %6, align 8, !tbaa !4032, !dbg !4778
	%7 = load i32*, i32** %..inline.addr, align 8, !tbaa !4032, !dbg !4778
	%8 = bitcast i32*  %7 to i8*, !dbg !4778
	call void  @_ZdlPv (i8*  %8) nounwind, !dbg !4778
	br label %L..inline.67914
L..inline.67914:
	ret void, !dbg !4779
}
define linkonce_odr void @_ZNSt12_Vector_baseIjSaIjEED2Ev(%struct._ZSt12_Vector_baseIjSaIjEE* %_T45441624_51794.arg) #0 inlinehint !dbg !4781 {
L.entry:
	%_T45441624_51794.addr = alloca %struct._ZSt12_Vector_baseIjSaIjEE*, align 8
	%..inline.addr = alloca %struct._ZSt12_Vector_baseIjSaIjEE*, align 8
	%..inline.addr.1 = alloca i32*, align 8

	store %struct._ZSt12_Vector_baseIjSaIjEE* %_T45441624_51794.arg, %struct._ZSt12_Vector_baseIjSaIjEE** %_T45441624_51794.addr, align 8, !tbaa !4032
	%0 = load %struct._ZSt12_Vector_baseIjSaIjEE*, %struct._ZSt12_Vector_baseIjSaIjEE** %_T45441624_51794.addr, align 8, !tbaa !4032, !dbg !4813
	%1 = bitcast %struct._ZSt12_Vector_baseIjSaIjEE*  %0 to i8*, !dbg !4813
	%2 = bitcast %struct._ZSt12_Vector_baseIjSaIjEE** %..inline.addr to i8**, !dbg !4813
	store i8*  %1, i8**  %2, align 8, !tbaa !4032, !dbg !4813
	%3 = load %struct._ZSt12_Vector_baseIjSaIjEE*, %struct._ZSt12_Vector_baseIjSaIjEE** %..inline.addr, align 8, !tbaa !4032, !dbg !4813
	%4 = bitcast %struct._ZSt12_Vector_baseIjSaIjEE*  %3 to i8**, !dbg !4813
	%5 = load i8*, i8**  %4, align 8, !tbaa !4032, !dbg !4813
	%6 = icmp eq i8*  %5,  null, !dbg !4813
	br i1  %6, label %L..inline.67973, label %L.B1189, !dbg !4813
L.B1189:
	%7 = bitcast %struct._ZSt12_Vector_baseIjSaIjEE*  %3 to i8**, !dbg !4813
	%8 = load i8*, i8**  %7, align 8, !tbaa !4032, !dbg !4813
	%9 = bitcast i32** %..inline.addr.1 to i8**, !dbg !4813
	store i8*  %8, i8**  %9, align 8, !tbaa !4032, !dbg !4813
	%10 = load i32*, i32** %..inline.addr.1, align 8, !tbaa !4032, !dbg !4813
	%11 = bitcast i32*  %10 to i8*, !dbg !4813
	call void  @_ZdlPv (i8*  %11) nounwind, !dbg !4813
	br label %L..inline.67973
L..inline.67973:
	ret void, !dbg !4814
}
define linkonce_odr void @_ZNSt12_Vector_baseIjSaIjEE13_M_deallocateEPjm(%struct._ZSt12_Vector_baseIjSaIjEE* %_T45441624_51797.arg, i32* %__p.arg, i64 %__n.arg) #0 inlinehint !dbg !4818 {
L.entry:
	%_T45441624_51797.addr = alloca %struct._ZSt12_Vector_baseIjSaIjEE*, align 8
	%__p.addr = alloca i32*, align 8
	%__n.addr = alloca i64, align 8
	%..inline.addr = alloca i32*, align 8

	call void @llvm.dbg.declare (metadata %struct._ZSt12_Vector_baseIjSaIjEE** %_T45441624_51797.addr, metadata !4830, metadata !4017), !dbg !4819
	store %struct._ZSt12_Vector_baseIjSaIjEE* %_T45441624_51797.arg, %struct._ZSt12_Vector_baseIjSaIjEE** %_T45441624_51797.addr, align 8, !tbaa !4032
	call void @llvm.dbg.declare (metadata %struct._ZSt12_Vector_baseIjSaIjEE** %_T45441624_51797.addr, metadata !4831, metadata !4017), !dbg !4819
	call void @llvm.dbg.declare (metadata i32** %__p.addr, metadata !4832, metadata !4017), !dbg !4819
	store i32* %__p.arg, i32** %__p.addr, align 8, !tbaa !4032
	call void @llvm.dbg.declare (metadata i32** %__p.addr, metadata !4833, metadata !4017), !dbg !4819
	call void @llvm.dbg.declare (metadata i64* %__n.addr, metadata !4834, metadata !4017), !dbg !4819
	store i64 %__n.arg, i64* %__n.addr, align 8, !tbaa !4033
	call void @llvm.dbg.declare (metadata i64* %__n.addr, metadata !4835, metadata !4017), !dbg !4819
	%0 = load i32*, i32** %__p.addr, align 8, !tbaa !4032, !dbg !4836
	%1 = bitcast i32*  %0 to i8*, !dbg !4836
	%2 = icmp eq i8*  %1,  null, !dbg !4836
	br i1  %2, label %L.B0016, label %L.B1192, !dbg !4836
L.B1192:
	%3 = bitcast i32*  %0 to i8*, !dbg !4837
	%4 = bitcast i32** %..inline.addr to i8**, !dbg !4837
	store i8*  %3, i8**  %4, align 8, !tbaa !4032, !dbg !4837
	%5 = load i32*, i32** %..inline.addr, align 8, !tbaa !4032, !dbg !4837
	%6 = bitcast i32*  %5 to i8*, !dbg !4837
	call void  @_ZdlPv (i8*  %6) nounwind, !dbg !4837
	br label %L.B0016
L.B0016:
	ret void, !dbg !4838
}
define linkonce_odr void @_ZNSt12_Vector_baseIjSaIjEE12_Vector_implD1Ev(%struct._ZNSt12_Vector_baseIjSaIjEE12_Vector_implE* %_T45441624_51798.arg) #0 inlinehint !dbg !4843 {
L.entry:
	%_T45441624_51798.addr = alloca %struct._ZNSt12_Vector_baseIjSaIjEE12_Vector_implE*, align 8

	call void @llvm.dbg.declare (metadata %struct._ZNSt12_Vector_baseIjSaIjEE12_Vector_implE** %_T45441624_51798.addr, metadata !4855, metadata !4017), !dbg !4844
	store %struct._ZNSt12_Vector_baseIjSaIjEE12_Vector_implE* %_T45441624_51798.arg, %struct._ZNSt12_Vector_baseIjSaIjEE12_Vector_implE** %_T45441624_51798.addr, align 8, !tbaa !4032
	call void @llvm.dbg.declare (metadata %struct._ZNSt12_Vector_baseIjSaIjEE12_Vector_implE** %_T45441624_51798.addr, metadata !4856, metadata !4017), !dbg !4844
	ret void, !dbg !4857
}
define linkonce_odr void @_ZNSt12_Vector_baseIjSaIjEE12_Vector_implD2Ev(%struct._ZNSt12_Vector_baseIjSaIjEE12_Vector_implE* %_T45441624_51799.arg) #0 inlinehint !dbg !4859 {
L.entry:
	%_T45441624_51799.addr = alloca %struct._ZNSt12_Vector_baseIjSaIjEE12_Vector_implE*, align 8

	store %struct._ZNSt12_Vector_baseIjSaIjEE12_Vector_implE* %_T45441624_51799.arg, %struct._ZNSt12_Vector_baseIjSaIjEE12_Vector_implE** %_T45441624_51799.addr, align 8, !tbaa !4032
	ret void, !dbg !4875
}

%struct._ZSt6vectorIjSaIjEE = type <{ %struct._ZSt12_Vector_baseIjSaIjEE}> 

define linkonce_odr void @_ZNSt6vectorIjSaIjEED1Ev(%struct._ZSt6vectorIjSaIjEE* %_T45441624_51800.arg) #0 inlinehint !dbg !4879 {
L.entry:
	%_T45441624_51800.addr = alloca %struct._ZSt6vectorIjSaIjEE*, align 8
	%..inline.addr = alloca %struct._ZSt12_Vector_baseIjSaIjEE*, align 8
	%..inline.addr.1 = alloca i32*, align 8

	call void @llvm.dbg.declare (metadata %struct._ZSt6vectorIjSaIjEE** %_T45441624_51800.addr, metadata !4931, metadata !4017), !dbg !4880
	store %struct._ZSt6vectorIjSaIjEE* %_T45441624_51800.arg, %struct._ZSt6vectorIjSaIjEE** %_T45441624_51800.addr, align 8, !tbaa !4032
	call void @llvm.dbg.declare (metadata %struct._ZSt6vectorIjSaIjEE** %_T45441624_51800.addr, metadata !4932, metadata !4017), !dbg !4880
	%0 = load %struct._ZSt6vectorIjSaIjEE*, %struct._ZSt6vectorIjSaIjEE** %_T45441624_51800.addr, align 8, !tbaa !4032, !dbg !4933
	%1 = bitcast %struct._ZSt6vectorIjSaIjEE*  %0 to i8*, !dbg !4933
	%2 = bitcast %struct._ZSt12_Vector_baseIjSaIjEE** %..inline.addr to i8**, !dbg !4933
	store i8*  %1, i8**  %2, align 8, !tbaa !4032, !dbg !4933
	%3 = load %struct._ZSt12_Vector_baseIjSaIjEE*, %struct._ZSt12_Vector_baseIjSaIjEE** %..inline.addr, align 8, !tbaa !4032, !dbg !4934
	%4 = bitcast %struct._ZSt12_Vector_baseIjSaIjEE*  %3 to i8**, !dbg !4934
	%5 = load i8*, i8**  %4, align 8, !tbaa !4032, !dbg !4934
	%6 = icmp eq i8*  %5,  null, !dbg !4934
	br i1  %6, label %L..inline.68124, label %L.B1203, !dbg !4934
L.B1203:
	%7 = bitcast %struct._ZSt12_Vector_baseIjSaIjEE*  %3 to i8**, !dbg !4934
	%8 = load i8*, i8**  %7, align 8, !tbaa !4032, !dbg !4934
	%9 = bitcast i32** %..inline.addr.1 to i8**, !dbg !4934
	store i8*  %8, i8**  %9, align 8, !tbaa !4032, !dbg !4934
	%10 = load i32*, i32** %..inline.addr.1, align 8, !tbaa !4032, !dbg !4934
	%11 = bitcast i32*  %10 to i8*, !dbg !4934
	call void  @_ZdlPv (i8*  %11) nounwind, !dbg !4934
	br label %L..inline.68124
L..inline.68124:
	ret void, !dbg !4933
}
define linkonce_odr void @_ZNSt6vectorIjSaIjEED2Ev(%struct._ZSt6vectorIjSaIjEE* %_T45441624_51801.arg) #0 inlinehint !dbg !4936 {
L.entry:
	%_T45441624_51801.addr = alloca %struct._ZSt6vectorIjSaIjEE*, align 8
	%..inline.addr = alloca %struct._ZSt12_Vector_baseIjSaIjEE*, align 8
	%..inline.addr.1 = alloca i32*, align 8

	store %struct._ZSt6vectorIjSaIjEE* %_T45441624_51801.arg, %struct._ZSt6vectorIjSaIjEE** %_T45441624_51801.addr, align 8, !tbaa !4032
	%0 = load %struct._ZSt6vectorIjSaIjEE*, %struct._ZSt6vectorIjSaIjEE** %_T45441624_51801.addr, align 8, !tbaa !4032, !dbg !4992
	%1 = bitcast %struct._ZSt6vectorIjSaIjEE*  %0 to i8*, !dbg !4992
	%2 = bitcast %struct._ZSt12_Vector_baseIjSaIjEE** %..inline.addr to i8**, !dbg !4992
	store i8*  %1, i8**  %2, align 8, !tbaa !4032, !dbg !4992
	%3 = load %struct._ZSt12_Vector_baseIjSaIjEE*, %struct._ZSt12_Vector_baseIjSaIjEE** %..inline.addr, align 8, !tbaa !4032, !dbg !4992
	%4 = bitcast %struct._ZSt12_Vector_baseIjSaIjEE*  %3 to i8**, !dbg !4992
	%5 = load i8*, i8**  %4, align 8, !tbaa !4032, !dbg !4992
	%6 = icmp eq i8*  %5,  null, !dbg !4992
	br i1  %6, label %L..inline.68228, label %L.B1206, !dbg !4992
L.B1206:
	%7 = bitcast %struct._ZSt12_Vector_baseIjSaIjEE*  %3 to i8**, !dbg !4992
	%8 = load i8*, i8**  %7, align 8, !tbaa !4032, !dbg !4992
	%9 = bitcast i32** %..inline.addr.1 to i8**, !dbg !4992
	store i8*  %8, i8**  %9, align 8, !tbaa !4032, !dbg !4992
	%10 = load i32*, i32** %..inline.addr.1, align 8, !tbaa !4032, !dbg !4992
	%11 = bitcast i32*  %10 to i8*, !dbg !4992
	call void  @_ZdlPv (i8*  %11) nounwind, !dbg !4992
	br label %L..inline.68228
L..inline.68228:
	ret void, !dbg !4992
}

%struct._ZSaIdE = type <{ [1 x i8]}> 

define linkonce_odr void @_ZNSaIdED1Ev(%struct._ZSaIdE* %_T45441624_51802.arg) #0 inlinehint !dbg !5000 {
L.entry:
	%_T45441624_51802.addr = alloca %struct._ZSaIdE*, align 8

	call void @llvm.dbg.declare (metadata %struct._ZSaIdE** %_T45441624_51802.addr, metadata !5004, metadata !4017), !dbg !5001
	store %struct._ZSaIdE* %_T45441624_51802.arg, %struct._ZSaIdE** %_T45441624_51802.addr, align 8, !tbaa !4032
	call void @llvm.dbg.declare (metadata %struct._ZSaIdE** %_T45441624_51802.addr, metadata !5005, metadata !4017), !dbg !5001
	ret void, !dbg !5006
}
define linkonce_odr void @_ZNSaIdED2Ev(%struct._ZSaIdE* %_T45441624_51803.arg) #0 inlinehint !dbg !5008 {
L.entry:
	%_T45441624_51803.addr = alloca %struct._ZSaIdE*, align 8

	store %struct._ZSaIdE* %_T45441624_51803.arg, %struct._ZSaIdE** %_T45441624_51803.addr, align 8, !tbaa !4032
	ret void, !dbg !5016
}
define linkonce_odr void @_ZNSt16allocator_traitsISaIdEE10deallocateERS0_Pdm(%struct._ZSaIdE* %__a.arg, double* %__p.arg, i64 %__n.arg) #0 inlinehint !dbg !5024 {
L.entry:
	%__a.addr = alloca %struct._ZSaIdE*, align 8
	%__p.addr = alloca double*, align 8
	%__n.addr = alloca i64, align 8
	%..inline.addr = alloca double*, align 8

	call void @llvm.dbg.declare (metadata %struct._ZSaIdE** %__a.addr, metadata !5032, metadata !4017), !dbg !5025
	store %struct._ZSaIdE* %__a.arg, %struct._ZSaIdE** %__a.addr, align 8, !tbaa !4032
	call void @llvm.dbg.declare (metadata %struct._ZSaIdE** %__a.addr, metadata !5033, metadata !4017), !dbg !5025
	call void @llvm.dbg.declare (metadata double** %__p.addr, metadata !5034, metadata !4017), !dbg !5025
	store double* %__p.arg, double** %__p.addr, align 8, !tbaa !4032
	call void @llvm.dbg.declare (metadata double** %__p.addr, metadata !5035, metadata !4017), !dbg !5025
	call void @llvm.dbg.declare (metadata i64* %__n.addr, metadata !5036, metadata !4017), !dbg !5025
	store i64 %__n.arg, i64* %__n.addr, align 8, !tbaa !4033
	call void @llvm.dbg.declare (metadata i64* %__n.addr, metadata !5037, metadata !4017), !dbg !5025
	%0 = load double*, double** %__p.addr, align 8, !tbaa !4032, !dbg !5038
	%1 = bitcast double*  %0 to i8*, !dbg !5038
	%2 = bitcast double** %..inline.addr to i8**, !dbg !5038
	store i8*  %1, i8**  %2, align 8, !tbaa !4032, !dbg !5038
	%3 = load double*, double** %..inline.addr, align 8, !tbaa !4032, !dbg !5039
	%4 = bitcast double*  %3 to i8*, !dbg !5039
	call void  @_ZdlPv (i8*  %4) nounwind, !dbg !5039
	ret void, !dbg !5038
}

%struct._ZSt12_Vector_baseIdSaIdEE = type <{ %struct._ZNSt12_Vector_baseIdSaIdEE12_Vector_implE}> 
%struct._ZNSt12_Vector_baseIdSaIdEE12_Vector_implE = type <{ %struct._ZNSt12_Vector_baseIdSaIdEE17_Vector_impl_dataE}> 
%struct._ZNSt12_Vector_baseIdSaIdEE17_Vector_impl_dataE = type <{ double*, double*, double*}> 

define linkonce_odr %struct._ZSaIdE* @_ZNSt12_Vector_baseIdSaIdEE19_M_get_Tp_allocatorEv(%struct._ZSt12_Vector_baseIdSaIdEE* %_T45441624_51809.arg) #0 inlinehint !dbg !5045 {
L.entry:
	%_T45441624_51809.addr = alloca %struct._ZSt12_Vector_baseIdSaIdEE*, align 8

	call void @llvm.dbg.declare (metadata %struct._ZSt12_Vector_baseIdSaIdEE** %_T45441624_51809.addr, metadata !5049, metadata !4017), !dbg !5046
	store %struct._ZSt12_Vector_baseIdSaIdEE* %_T45441624_51809.arg, %struct._ZSt12_Vector_baseIdSaIdEE** %_T45441624_51809.addr, align 8, !tbaa !4032
	call void @llvm.dbg.declare (metadata %struct._ZSt12_Vector_baseIdSaIdEE** %_T45441624_51809.addr, metadata !5050, metadata !4017), !dbg !5046
	%0 = load %struct._ZSt12_Vector_baseIdSaIdEE*, %struct._ZSt12_Vector_baseIdSaIdEE** %_T45441624_51809.addr, align 8, !tbaa !4032, !dbg !5051
	%1 = bitcast %struct._ZSt12_Vector_baseIdSaIdEE*  %0 to %struct._ZSaIdE*, !dbg !5051
	ret %struct._ZSaIdE*  %1, !dbg !5051
}
define linkonce_odr void @_ZNSt12_Vector_baseIdSaIdEED1Ev(%struct._ZSt12_Vector_baseIdSaIdEE* %_T45441624_51810.arg) #0 inlinehint !dbg !5055 {
L.entry:
	%_T45441624_51810.addr = alloca %struct._ZSt12_Vector_baseIdSaIdEE*, align 8
	%..inline.addr = alloca double*, align 8

	call void @llvm.dbg.declare (metadata %struct._ZSt12_Vector_baseIdSaIdEE** %_T45441624_51810.addr, metadata !5083, metadata !4017), !dbg !5056
	store %struct._ZSt12_Vector_baseIdSaIdEE* %_T45441624_51810.arg, %struct._ZSt12_Vector_baseIdSaIdEE** %_T45441624_51810.addr, align 8, !tbaa !4032
	call void @llvm.dbg.declare (metadata %struct._ZSt12_Vector_baseIdSaIdEE** %_T45441624_51810.addr, metadata !5084, metadata !4017), !dbg !5056
	%0 = load %struct._ZSt12_Vector_baseIdSaIdEE*, %struct._ZSt12_Vector_baseIdSaIdEE** %_T45441624_51810.addr, align 8, !tbaa !4032, !dbg !5085
	%1 = bitcast %struct._ZSt12_Vector_baseIdSaIdEE*  %0 to i8**, !dbg !5085
	%2 = load i8*, i8**  %1, align 8, !tbaa !4032, !dbg !5085
	%3 = icmp eq i8*  %2,  null, !dbg !5085
	br i1  %3, label %L..inline.68324, label %L.B1215, !dbg !5085
L.B1215:
	%4 = bitcast %struct._ZSt12_Vector_baseIdSaIdEE*  %0 to i8**, !dbg !5086
	%5 = load i8*, i8**  %4, align 8, !tbaa !4032, !dbg !5086
	%6 = bitcast double** %..inline.addr to i8**, !dbg !5086
	store i8*  %5, i8**  %6, align 8, !tbaa !4032, !dbg !5086
	%7 = load double*, double** %..inline.addr, align 8, !tbaa !4032, !dbg !5086
	%8 = bitcast double*  %7 to i8*, !dbg !5086
	call void  @_ZdlPv (i8*  %8) nounwind, !dbg !5086
	br label %L..inline.68324
L..inline.68324:
	ret void, !dbg !5087
}
define linkonce_odr void @_ZNSt12_Vector_baseIdSaIdEED2Ev(%struct._ZSt12_Vector_baseIdSaIdEE* %_T45441624_51811.arg) #0 inlinehint !dbg !5089 {
L.entry:
	%_T45441624_51811.addr = alloca %struct._ZSt12_Vector_baseIdSaIdEE*, align 8
	%..inline.addr = alloca %struct._ZSt12_Vector_baseIdSaIdEE*, align 8
	%..inline.addr.1 = alloca double*, align 8

	store %struct._ZSt12_Vector_baseIdSaIdEE* %_T45441624_51811.arg, %struct._ZSt12_Vector_baseIdSaIdEE** %_T45441624_51811.addr, align 8, !tbaa !4032
	%0 = load %struct._ZSt12_Vector_baseIdSaIdEE*, %struct._ZSt12_Vector_baseIdSaIdEE** %_T45441624_51811.addr, align 8, !tbaa !4032, !dbg !5121
	%1 = bitcast %struct._ZSt12_Vector_baseIdSaIdEE*  %0 to i8*, !dbg !5121
	%2 = bitcast %struct._ZSt12_Vector_baseIdSaIdEE** %..inline.addr to i8**, !dbg !5121
	store i8*  %1, i8**  %2, align 8, !tbaa !4032, !dbg !5121
	%3 = load %struct._ZSt12_Vector_baseIdSaIdEE*, %struct._ZSt12_Vector_baseIdSaIdEE** %..inline.addr, align 8, !tbaa !4032, !dbg !5121
	%4 = bitcast %struct._ZSt12_Vector_baseIdSaIdEE*  %3 to i8**, !dbg !5121
	%5 = load i8*, i8**  %4, align 8, !tbaa !4032, !dbg !5121
	%6 = icmp eq i8*  %5,  null, !dbg !5121
	br i1  %6, label %L..inline.68384, label %L.B1218, !dbg !5121
L.B1218:
	%7 = bitcast %struct._ZSt12_Vector_baseIdSaIdEE*  %3 to i8**, !dbg !5121
	%8 = load i8*, i8**  %7, align 8, !tbaa !4032, !dbg !5121
	%9 = bitcast double** %..inline.addr.1 to i8**, !dbg !5121
	store i8*  %8, i8**  %9, align 8, !tbaa !4032, !dbg !5121
	%10 = load double*, double** %..inline.addr.1, align 8, !tbaa !4032, !dbg !5121
	%11 = bitcast double*  %10 to i8*, !dbg !5121
	call void  @_ZdlPv (i8*  %11) nounwind, !dbg !5121
	br label %L..inline.68384
L..inline.68384:
	ret void, !dbg !5122
}
define linkonce_odr void @_ZNSt12_Vector_baseIdSaIdEE13_M_deallocateEPdm(%struct._ZSt12_Vector_baseIdSaIdEE* %_T45441624_51814.arg, double* %__p.arg, i64 %__n.arg) #0 inlinehint !dbg !5126 {
L.entry:
	%_T45441624_51814.addr = alloca %struct._ZSt12_Vector_baseIdSaIdEE*, align 8
	%__p.addr = alloca double*, align 8
	%__n.addr = alloca i64, align 8
	%..inline.addr = alloca double*, align 8

	call void @llvm.dbg.declare (metadata %struct._ZSt12_Vector_baseIdSaIdEE** %_T45441624_51814.addr, metadata !5138, metadata !4017), !dbg !5127
	store %struct._ZSt12_Vector_baseIdSaIdEE* %_T45441624_51814.arg, %struct._ZSt12_Vector_baseIdSaIdEE** %_T45441624_51814.addr, align 8, !tbaa !4032
	call void @llvm.dbg.declare (metadata %struct._ZSt12_Vector_baseIdSaIdEE** %_T45441624_51814.addr, metadata !5139, metadata !4017), !dbg !5127
	call void @llvm.dbg.declare (metadata double** %__p.addr, metadata !5140, metadata !4017), !dbg !5127
	store double* %__p.arg, double** %__p.addr, align 8, !tbaa !4032
	call void @llvm.dbg.declare (metadata double** %__p.addr, metadata !5141, metadata !4017), !dbg !5127
	call void @llvm.dbg.declare (metadata i64* %__n.addr, metadata !5142, metadata !4017), !dbg !5127
	store i64 %__n.arg, i64* %__n.addr, align 8, !tbaa !4033
	call void @llvm.dbg.declare (metadata i64* %__n.addr, metadata !5143, metadata !4017), !dbg !5127
	%0 = load double*, double** %__p.addr, align 8, !tbaa !4032, !dbg !5144
	%1 = bitcast double*  %0 to i8*, !dbg !5144
	%2 = icmp eq i8*  %1,  null, !dbg !5144
	br i1  %2, label %L.B0017, label %L.B1221, !dbg !5144
L.B1221:
	%3 = bitcast double*  %0 to i8*, !dbg !5145
	%4 = bitcast double** %..inline.addr to i8**, !dbg !5145
	store i8*  %3, i8**  %4, align 8, !tbaa !4032, !dbg !5145
	%5 = load double*, double** %..inline.addr, align 8, !tbaa !4032, !dbg !5145
	%6 = bitcast double*  %5 to i8*, !dbg !5145
	call void  @_ZdlPv (i8*  %6) nounwind, !dbg !5145
	br label %L.B0017
L.B0017:
	ret void, !dbg !5146
}
define linkonce_odr void @_ZNSt12_Vector_baseIdSaIdEE12_Vector_implD1Ev(%struct._ZNSt12_Vector_baseIdSaIdEE12_Vector_implE* %_T45441624_51815.arg) #0 inlinehint !dbg !5151 {
L.entry:
	%_T45441624_51815.addr = alloca %struct._ZNSt12_Vector_baseIdSaIdEE12_Vector_implE*, align 8

	call void @llvm.dbg.declare (metadata %struct._ZNSt12_Vector_baseIdSaIdEE12_Vector_implE** %_T45441624_51815.addr, metadata !5163, metadata !4017), !dbg !5152
	store %struct._ZNSt12_Vector_baseIdSaIdEE12_Vector_implE* %_T45441624_51815.arg, %struct._ZNSt12_Vector_baseIdSaIdEE12_Vector_implE** %_T45441624_51815.addr, align 8, !tbaa !4032
	call void @llvm.dbg.declare (metadata %struct._ZNSt12_Vector_baseIdSaIdEE12_Vector_implE** %_T45441624_51815.addr, metadata !5164, metadata !4017), !dbg !5152
	ret void, !dbg !5165
}
define linkonce_odr void @_ZNSt12_Vector_baseIdSaIdEE12_Vector_implD2Ev(%struct._ZNSt12_Vector_baseIdSaIdEE12_Vector_implE* %_T45441624_51816.arg) #0 inlinehint !dbg !5167 {
L.entry:
	%_T45441624_51816.addr = alloca %struct._ZNSt12_Vector_baseIdSaIdEE12_Vector_implE*, align 8

	store %struct._ZNSt12_Vector_baseIdSaIdEE12_Vector_implE* %_T45441624_51816.arg, %struct._ZNSt12_Vector_baseIdSaIdEE12_Vector_implE** %_T45441624_51816.addr, align 8, !tbaa !4032
	ret void, !dbg !5183
}

%struct._ZSt6vectorIdSaIdEE = type <{ %struct._ZSt12_Vector_baseIdSaIdEE}> 

define linkonce_odr void @_ZNSt6vectorIdSaIdEED1Ev(%struct._ZSt6vectorIdSaIdEE* %_T45441624_51817.arg) #0 inlinehint !dbg !5188 {
L.entry:
	%_T45441624_51817.addr = alloca %struct._ZSt6vectorIdSaIdEE*, align 8
	%..inline.addr = alloca %struct._ZSt12_Vector_baseIdSaIdEE*, align 8
	%..inline.addr.1 = alloca double*, align 8

	call void @llvm.dbg.declare (metadata %struct._ZSt6vectorIdSaIdEE** %_T45441624_51817.addr, metadata !5240, metadata !4017), !dbg !5189
	store %struct._ZSt6vectorIdSaIdEE* %_T45441624_51817.arg, %struct._ZSt6vectorIdSaIdEE** %_T45441624_51817.addr, align 8, !tbaa !4032
	call void @llvm.dbg.declare (metadata %struct._ZSt6vectorIdSaIdEE** %_T45441624_51817.addr, metadata !5241, metadata !4017), !dbg !5189
	%0 = load %struct._ZSt6vectorIdSaIdEE*, %struct._ZSt6vectorIdSaIdEE** %_T45441624_51817.addr, align 8, !tbaa !4032, !dbg !5242
	%1 = bitcast %struct._ZSt6vectorIdSaIdEE*  %0 to i8*, !dbg !5242
	%2 = bitcast %struct._ZSt12_Vector_baseIdSaIdEE** %..inline.addr to i8**, !dbg !5242
	store i8*  %1, i8**  %2, align 8, !tbaa !4032, !dbg !5242
	%3 = load %struct._ZSt12_Vector_baseIdSaIdEE*, %struct._ZSt12_Vector_baseIdSaIdEE** %..inline.addr, align 8, !tbaa !4032, !dbg !5243
	%4 = bitcast %struct._ZSt12_Vector_baseIdSaIdEE*  %3 to i8**, !dbg !5243
	%5 = load i8*, i8**  %4, align 8, !tbaa !4032, !dbg !5243
	%6 = icmp eq i8*  %5,  null, !dbg !5243
	br i1  %6, label %L..inline.68535, label %L.B1232, !dbg !5243
L.B1232:
	%7 = bitcast %struct._ZSt12_Vector_baseIdSaIdEE*  %3 to i8**, !dbg !5243
	%8 = load i8*, i8**  %7, align 8, !tbaa !4032, !dbg !5243
	%9 = bitcast double** %..inline.addr.1 to i8**, !dbg !5243
	store i8*  %8, i8**  %9, align 8, !tbaa !4032, !dbg !5243
	%10 = load double*, double** %..inline.addr.1, align 8, !tbaa !4032, !dbg !5243
	%11 = bitcast double*  %10 to i8*, !dbg !5243
	call void  @_ZdlPv (i8*  %11) nounwind, !dbg !5243
	br label %L..inline.68535
L..inline.68535:
	ret void, !dbg !5242
}
define linkonce_odr void @_ZNSt6vectorIdSaIdEED2Ev(%struct._ZSt6vectorIdSaIdEE* %_T45441624_51818.arg) #0 inlinehint !dbg !5245 {
L.entry:
	%_T45441624_51818.addr = alloca %struct._ZSt6vectorIdSaIdEE*, align 8
	%..inline.addr = alloca %struct._ZSt12_Vector_baseIdSaIdEE*, align 8
	%..inline.addr.1 = alloca double*, align 8

	store %struct._ZSt6vectorIdSaIdEE* %_T45441624_51818.arg, %struct._ZSt6vectorIdSaIdEE** %_T45441624_51818.addr, align 8, !tbaa !4032
	%0 = load %struct._ZSt6vectorIdSaIdEE*, %struct._ZSt6vectorIdSaIdEE** %_T45441624_51818.addr, align 8, !tbaa !4032, !dbg !5301
	%1 = bitcast %struct._ZSt6vectorIdSaIdEE*  %0 to i8*, !dbg !5301
	%2 = bitcast %struct._ZSt12_Vector_baseIdSaIdEE** %..inline.addr to i8**, !dbg !5301
	store i8*  %1, i8**  %2, align 8, !tbaa !4032, !dbg !5301
	%3 = load %struct._ZSt12_Vector_baseIdSaIdEE*, %struct._ZSt12_Vector_baseIdSaIdEE** %..inline.addr, align 8, !tbaa !4032, !dbg !5301
	%4 = bitcast %struct._ZSt12_Vector_baseIdSaIdEE*  %3 to i8**, !dbg !5301
	%5 = load i8*, i8**  %4, align 8, !tbaa !4032, !dbg !5301
	%6 = icmp eq i8*  %5,  null, !dbg !5301
	br i1  %6, label %L..inline.68639, label %L.B1235, !dbg !5301
L.B1235:
	%7 = bitcast %struct._ZSt12_Vector_baseIdSaIdEE*  %3 to i8**, !dbg !5301
	%8 = load i8*, i8**  %7, align 8, !tbaa !4032, !dbg !5301
	%9 = bitcast double** %..inline.addr.1 to i8**, !dbg !5301
	store i8*  %8, i8**  %9, align 8, !tbaa !4032, !dbg !5301
	%10 = load double*, double** %..inline.addr.1, align 8, !tbaa !4032, !dbg !5301
	%11 = bitcast double*  %10 to i8*, !dbg !5301
	call void  @_ZdlPv (i8*  %11) nounwind, !dbg !5301
	br label %L..inline.68639
L..inline.68639:
	ret void, !dbg !5301
}

%struct._ZSaIN5vmesh14MeshParametersEE = type <{ [1 x i8]}> 

define linkonce_odr void @_ZNSaIN5vmesh14MeshParametersEED1Ev(%struct._ZSaIN5vmesh14MeshParametersEE* %_T45441624_51819.arg) #0 inlinehint !dbg !5309 {
L.entry:
	%_T45441624_51819.addr = alloca %struct._ZSaIN5vmesh14MeshParametersEE*, align 8

	call void @llvm.dbg.declare (metadata %struct._ZSaIN5vmesh14MeshParametersEE** %_T45441624_51819.addr, metadata !5313, metadata !4017), !dbg !5310
	store %struct._ZSaIN5vmesh14MeshParametersEE* %_T45441624_51819.arg, %struct._ZSaIN5vmesh14MeshParametersEE** %_T45441624_51819.addr, align 8, !tbaa !4032
	call void @llvm.dbg.declare (metadata %struct._ZSaIN5vmesh14MeshParametersEE** %_T45441624_51819.addr, metadata !5314, metadata !4017), !dbg !5310
	ret void, !dbg !5315
}
define linkonce_odr void @_ZNSaIN5vmesh14MeshParametersEED2Ev(%struct._ZSaIN5vmesh14MeshParametersEE* %_T45441624_51820.arg) #0 inlinehint !dbg !5317 {
L.entry:
	%_T45441624_51820.addr = alloca %struct._ZSaIN5vmesh14MeshParametersEE*, align 8

	store %struct._ZSaIN5vmesh14MeshParametersEE* %_T45441624_51820.arg, %struct._ZSaIN5vmesh14MeshParametersEE** %_T45441624_51820.addr, align 8, !tbaa !4032
	ret void, !dbg !5325
}

%struct._ZNSt7__cxx1112basic_stringIcSt11char_traitsIcESaIcEEE = type <{ %struct._ZNSt7__cxx1112basic_stringIcSt11char_traitsIcESaIcEE12_Alloc_hiderE, i64, %union.__C6}> 
%union.__C6 = type <{ [16 x i8]}> 
%struct._ZN5vmesh14MeshParametersE = type <{ %struct._ZNSt7__cxx1112basic_stringIcSt11char_traitsIcESaIcEEE, i32, [4 x i8], [6 x double], [3 x i32], [3 x i32], i8, i8, [6 x i8], [3 x double], [3 x double], [3 x double], [3 x double], [3 x double], %struct._ZSt6vectorIjSaIjEE, %struct._ZSt6vectorIdSaIdEE, %struct._ZSt6vectorIdSaIdEE, %struct._ZSt6vectorIjSaIjEE}> 
%struct._ZNSt7__cxx1112basic_stringIcSt11char_traitsIcESaIcEE12_Alloc_hiderE = type <{ i8*}> 

define linkonce_odr void @_ZNSt16allocator_traitsISaIN5vmesh14MeshParametersEEE10deallocateERS2_PS1_m(%struct._ZSaIN5vmesh14MeshParametersEE* %__a.arg, %struct._ZN5vmesh14MeshParametersE* %__p.arg, i64 %__n.arg) #0 inlinehint !dbg !5333 {
L.entry:
	%__a.addr = alloca %struct._ZSaIN5vmesh14MeshParametersEE*, align 8
	%__p.addr = alloca %struct._ZN5vmesh14MeshParametersE*, align 8
	%__n.addr = alloca i64, align 8
	%..inline.addr = alloca %struct._ZN5vmesh14MeshParametersE*, align 8

	call void @llvm.dbg.declare (metadata %struct._ZSaIN5vmesh14MeshParametersEE** %__a.addr, metadata !5341, metadata !4017), !dbg !5334
	store %struct._ZSaIN5vmesh14MeshParametersEE* %__a.arg, %struct._ZSaIN5vmesh14MeshParametersEE** %__a.addr, align 8, !tbaa !4032
	call void @llvm.dbg.declare (metadata %struct._ZSaIN5vmesh14MeshParametersEE** %__a.addr, metadata !5342, metadata !4017), !dbg !5334
	call void @llvm.dbg.declare (metadata %struct._ZN5vmesh14MeshParametersE** %__p.addr, metadata !5343, metadata !4017), !dbg !5334
	store %struct._ZN5vmesh14MeshParametersE* %__p.arg, %struct._ZN5vmesh14MeshParametersE** %__p.addr, align 8, !tbaa !4032
	call void @llvm.dbg.declare (metadata %struct._ZN5vmesh14MeshParametersE** %__p.addr, metadata !5344, metadata !4017), !dbg !5334
	call void @llvm.dbg.declare (metadata i64* %__n.addr, metadata !5345, metadata !4017), !dbg !5334
	store i64 %__n.arg, i64* %__n.addr, align 8, !tbaa !4033
	call void @llvm.dbg.declare (metadata i64* %__n.addr, metadata !5346, metadata !4017), !dbg !5334
	%0 = load %struct._ZN5vmesh14MeshParametersE*, %struct._ZN5vmesh14MeshParametersE** %__p.addr, align 8, !tbaa !4032, !dbg !5347
	%1 = bitcast %struct._ZN5vmesh14MeshParametersE*  %0 to i8*, !dbg !5347
	%2 = bitcast %struct._ZN5vmesh14MeshParametersE** %..inline.addr to i8**, !dbg !5347
	store i8*  %1, i8**  %2, align 8, !tbaa !4032, !dbg !5347
	%3 = load %struct._ZN5vmesh14MeshParametersE*, %struct._ZN5vmesh14MeshParametersE** %..inline.addr, align 8, !tbaa !4032, !dbg !5348
	%4 = bitcast %struct._ZN5vmesh14MeshParametersE*  %3 to i8*, !dbg !5348
	call void  @_ZdlPv (i8*  %4) nounwind, !dbg !5348
	ret void, !dbg !5347
}

%struct._ZSt12_Vector_baseIN5vmesh14MeshParametersESaIS1_EE = type <{ %struct._ZNSt12_Vector_baseIN5vmesh14MeshParametersESaIS1_EE12_Vector_implE}> 
%struct._ZNSt12_Vector_baseIN5vmesh14MeshParametersESaIS1_EE17_Vector_impl_dataE = type <{ %struct._ZN5vmesh14MeshParametersE*, %struct._ZN5vmesh14MeshParametersE*, %struct._ZN5vmesh14MeshParametersE*}> 
%struct._ZNSt12_Vector_baseIN5vmesh14MeshParametersESaIS1_EE12_Vector_implE = type <{ %struct._ZNSt12_Vector_baseIN5vmesh14MeshParametersESaIS1_EE17_Vector_impl_dataE}> 

define linkonce_odr %struct._ZSaIN5vmesh14MeshParametersEE* @_ZNSt12_Vector_baseIN5vmesh14MeshParametersESaIS1_EE19_M_get_Tp_allocatorEv(%struct._ZSt12_Vector_baseIN5vmesh14MeshParametersESaIS1_EE* %_T45441624_51826.arg) #0 inlinehint !dbg !5354 {
L.entry:
	%_T45441624_51826.addr = alloca %struct._ZSt12_Vector_baseIN5vmesh14MeshParametersESaIS1_EE*, align 8

	call void @llvm.dbg.declare (metadata %struct._ZSt12_Vector_baseIN5vmesh14MeshParametersESaIS1_EE** %_T45441624_51826.addr, metadata !5358, metadata !4017), !dbg !5355
	store %struct._ZSt12_Vector_baseIN5vmesh14MeshParametersESaIS1_EE* %_T45441624_51826.arg, %struct._ZSt12_Vector_baseIN5vmesh14MeshParametersESaIS1_EE** %_T45441624_51826.addr, align 8, !tbaa !4032
	call void @llvm.dbg.declare (metadata %struct._ZSt12_Vector_baseIN5vmesh14MeshParametersESaIS1_EE** %_T45441624_51826.addr, metadata !5359, metadata !4017), !dbg !5355
	%0 = load %struct._ZSt12_Vector_baseIN5vmesh14MeshParametersESaIS1_EE*, %struct._ZSt12_Vector_baseIN5vmesh14MeshParametersESaIS1_EE** %_T45441624_51826.addr, align 8, !tbaa !4032, !dbg !5360
	%1 = bitcast %struct._ZSt12_Vector_baseIN5vmesh14MeshParametersESaIS1_EE*  %0 to %struct._ZSaIN5vmesh14MeshParametersEE*, !dbg !5360
	ret %struct._ZSaIN5vmesh14MeshParametersEE*  %1, !dbg !5360
}
define linkonce_odr void @_ZNSt12_Vector_baseIN5vmesh14MeshParametersESaIS1_EEC1Ev(%struct._ZSt12_Vector_baseIN5vmesh14MeshParametersESaIS1_EE* %_T45441624_51827.arg) #0 inlinehint !dbg !5364 {
L.entry:
	%_T45441624_51827.addr = alloca %struct._ZSt12_Vector_baseIN5vmesh14MeshParametersESaIS1_EE*, align 8
	%..inline.addr = alloca %struct._ZNSt12_Vector_baseIN5vmesh14MeshParametersESaIS1_EE17_Vector_impl_dataE*, align 8

	call void @llvm.dbg.declare (metadata %struct._ZSt12_Vector_baseIN5vmesh14MeshParametersESaIS1_EE** %_T45441624_51827.addr, metadata !5380, metadata !4017), !dbg !5365
	store %struct._ZSt12_Vector_baseIN5vmesh14MeshParametersESaIS1_EE* %_T45441624_51827.arg, %struct._ZSt12_Vector_baseIN5vmesh14MeshParametersESaIS1_EE** %_T45441624_51827.addr, align 8, !tbaa !4032
	call void @llvm.dbg.declare (metadata %struct._ZSt12_Vector_baseIN5vmesh14MeshParametersESaIS1_EE** %_T45441624_51827.addr, metadata !5381, metadata !4017), !dbg !5365
	%0 = load %struct._ZSt12_Vector_baseIN5vmesh14MeshParametersESaIS1_EE*, %struct._ZSt12_Vector_baseIN5vmesh14MeshParametersESaIS1_EE** %_T45441624_51827.addr, align 8, !tbaa !4032, !dbg !5382
	%1 = bitcast %struct._ZSt12_Vector_baseIN5vmesh14MeshParametersESaIS1_EE*  %0 to i8*, !dbg !5382
	%2 = bitcast %struct._ZNSt12_Vector_baseIN5vmesh14MeshParametersESaIS1_EE17_Vector_impl_dataE** %..inline.addr to i8**, !dbg !5382
	store i8*  %1, i8**  %2, align 8, !tbaa !4032, !dbg !5382
	%3 = load %struct._ZNSt12_Vector_baseIN5vmesh14MeshParametersESaIS1_EE17_Vector_impl_dataE*, %struct._ZNSt12_Vector_baseIN5vmesh14MeshParametersESaIS1_EE17_Vector_impl_dataE** %..inline.addr, align 8, !tbaa !4032, !dbg !5382
	%4 = bitcast %struct._ZNSt12_Vector_baseIN5vmesh14MeshParametersESaIS1_EE17_Vector_impl_dataE*  %3 to i8**, !dbg !5382
	store i8* null, i8**  %4, align 8, !tbaa !4032, !dbg !5382
	%5 = bitcast %struct._ZNSt12_Vector_baseIN5vmesh14MeshParametersESaIS1_EE17_Vector_impl_dataE*  %3 to i8*, !dbg !5382
	%6 = getelementptr i8, i8*  %5, i64 8, !dbg !5382
	%7 = bitcast i8*  %6 to i8**, !dbg !5382
	store i8* null, i8**  %7, align 8, !tbaa !4032, !dbg !5382
	%8 = getelementptr i8, i8*  %5, i64 16, !dbg !5382
	%9 = bitcast i8*  %8 to i8**, !dbg !5382
	store i8* null, i8**  %9, align 8, !tbaa !4032, !dbg !5382
	ret void, !dbg !5382
}
define linkonce_odr void @_ZNSt12_Vector_baseIN5vmesh14MeshParametersESaIS1_EEC2Ev(%struct._ZSt12_Vector_baseIN5vmesh14MeshParametersESaIS1_EE* %_T45441624_51828.arg) #0 inlinehint !dbg !5384 {
L.entry:
	%_T45441624_51828.addr = alloca %struct._ZSt12_Vector_baseIN5vmesh14MeshParametersESaIS1_EE*, align 8
	%..inline.addr = alloca %struct._ZNSt12_Vector_baseIN5vmesh14MeshParametersESaIS1_EE17_Vector_impl_dataE*, align 8

	store %struct._ZSt12_Vector_baseIN5vmesh14MeshParametersESaIS1_EE* %_T45441624_51828.arg, %struct._ZSt12_Vector_baseIN5vmesh14MeshParametersESaIS1_EE** %_T45441624_51828.addr, align 8, !tbaa !4032
	%0 = load %struct._ZSt12_Vector_baseIN5vmesh14MeshParametersESaIS1_EE*, %struct._ZSt12_Vector_baseIN5vmesh14MeshParametersESaIS1_EE** %_T45441624_51828.addr, align 8, !tbaa !4032, !dbg !5404
	%1 = bitcast %struct._ZSt12_Vector_baseIN5vmesh14MeshParametersESaIS1_EE*  %0 to i8*, !dbg !5404
	%2 = bitcast %struct._ZNSt12_Vector_baseIN5vmesh14MeshParametersESaIS1_EE17_Vector_impl_dataE** %..inline.addr to i8**, !dbg !5404
	store i8*  %1, i8**  %2, align 8, !tbaa !4032, !dbg !5404
	%3 = load %struct._ZNSt12_Vector_baseIN5vmesh14MeshParametersESaIS1_EE17_Vector_impl_dataE*, %struct._ZNSt12_Vector_baseIN5vmesh14MeshParametersESaIS1_EE17_Vector_impl_dataE** %..inline.addr, align 8, !tbaa !4032, !dbg !5404
	%4 = bitcast %struct._ZNSt12_Vector_baseIN5vmesh14MeshParametersESaIS1_EE17_Vector_impl_dataE*  %3 to i8**, !dbg !5404
	store i8* null, i8**  %4, align 8, !tbaa !4032, !dbg !5404
	%5 = bitcast %struct._ZNSt12_Vector_baseIN5vmesh14MeshParametersESaIS1_EE17_Vector_impl_dataE*  %3 to i8*, !dbg !5404
	%6 = getelementptr i8, i8*  %5, i64 8, !dbg !5404
	%7 = bitcast i8*  %6 to i8**, !dbg !5404
	store i8* null, i8**  %7, align 8, !tbaa !4032, !dbg !5404
	%8 = getelementptr i8, i8*  %5, i64 16, !dbg !5404
	%9 = bitcast i8*  %8 to i8**, !dbg !5404
	store i8* null, i8**  %9, align 8, !tbaa !4032, !dbg !5404
	ret void, !dbg !5404
}
define linkonce_odr void @_ZNSt12_Vector_baseIN5vmesh14MeshParametersESaIS1_EED1Ev(%struct._ZSt12_Vector_baseIN5vmesh14MeshParametersESaIS1_EE* %_T45441624_51829.arg) #0 inlinehint !dbg !5406 {
L.entry:
	%_T45441624_51829.addr = alloca %struct._ZSt12_Vector_baseIN5vmesh14MeshParametersESaIS1_EE*, align 8
	%..inline.addr = alloca %struct._ZN5vmesh14MeshParametersE*, align 8

	call void @llvm.dbg.declare (metadata %struct._ZSt12_Vector_baseIN5vmesh14MeshParametersESaIS1_EE** %_T45441624_51829.addr, metadata !5434, metadata !4017), !dbg !5407
	store %struct._ZSt12_Vector_baseIN5vmesh14MeshParametersESaIS1_EE* %_T45441624_51829.arg, %struct._ZSt12_Vector_baseIN5vmesh14MeshParametersESaIS1_EE** %_T45441624_51829.addr, align 8, !tbaa !4032
	call void @llvm.dbg.declare (metadata %struct._ZSt12_Vector_baseIN5vmesh14MeshParametersESaIS1_EE** %_T45441624_51829.addr, metadata !5435, metadata !4017), !dbg !5407
	%0 = load %struct._ZSt12_Vector_baseIN5vmesh14MeshParametersESaIS1_EE*, %struct._ZSt12_Vector_baseIN5vmesh14MeshParametersESaIS1_EE** %_T45441624_51829.addr, align 8, !tbaa !4032, !dbg !5436
	%1 = bitcast %struct._ZSt12_Vector_baseIN5vmesh14MeshParametersESaIS1_EE*  %0 to i8**, !dbg !5436
	%2 = load i8*, i8**  %1, align 8, !tbaa !4032, !dbg !5436
	%3 = icmp eq i8*  %2,  null, !dbg !5436
	br i1  %3, label %L..inline.68783, label %L.B1248, !dbg !5436
L.B1248:
	%4 = bitcast %struct._ZSt12_Vector_baseIN5vmesh14MeshParametersESaIS1_EE*  %0 to i8**, !dbg !5437
	%5 = load i8*, i8**  %4, align 8, !tbaa !4032, !dbg !5437
	%6 = bitcast %struct._ZN5vmesh14MeshParametersE** %..inline.addr to i8**, !dbg !5437
	store i8*  %5, i8**  %6, align 8, !tbaa !4032, !dbg !5437
	%7 = load %struct._ZN5vmesh14MeshParametersE*, %struct._ZN5vmesh14MeshParametersE** %..inline.addr, align 8, !tbaa !4032, !dbg !5437
	%8 = bitcast %struct._ZN5vmesh14MeshParametersE*  %7 to i8*, !dbg !5437
	call void  @_ZdlPv (i8*  %8) nounwind, !dbg !5437
	br label %L..inline.68783
L..inline.68783:
	ret void, !dbg !5438
}
define linkonce_odr void @_ZNSt12_Vector_baseIN5vmesh14MeshParametersESaIS1_EED2Ev(%struct._ZSt12_Vector_baseIN5vmesh14MeshParametersESaIS1_EE* %_T45441624_51830.arg) #0 inlinehint !dbg !5440 {
L.entry:
	%_T45441624_51830.addr = alloca %struct._ZSt12_Vector_baseIN5vmesh14MeshParametersESaIS1_EE*, align 8
	%..inline.addr = alloca %struct._ZSt12_Vector_baseIN5vmesh14MeshParametersESaIS1_EE*, align 8
	%..inline.addr.1 = alloca %struct._ZN5vmesh14MeshParametersE*, align 8

	store %struct._ZSt12_Vector_baseIN5vmesh14MeshParametersESaIS1_EE* %_T45441624_51830.arg, %struct._ZSt12_Vector_baseIN5vmesh14MeshParametersESaIS1_EE** %_T45441624_51830.addr, align 8, !tbaa !4032
	%0 = load %struct._ZSt12_Vector_baseIN5vmesh14MeshParametersESaIS1_EE*, %struct._ZSt12_Vector_baseIN5vmesh14MeshParametersESaIS1_EE** %_T45441624_51830.addr, align 8, !tbaa !4032, !dbg !5472
	%1 = bitcast %struct._ZSt12_Vector_baseIN5vmesh14MeshParametersESaIS1_EE*  %0 to i8*, !dbg !5472
	%2 = bitcast %struct._ZSt12_Vector_baseIN5vmesh14MeshParametersESaIS1_EE** %..inline.addr to i8**, !dbg !5472
	store i8*  %1, i8**  %2, align 8, !tbaa !4032, !dbg !5472
	%3 = load %struct._ZSt12_Vector_baseIN5vmesh14MeshParametersESaIS1_EE*, %struct._ZSt12_Vector_baseIN5vmesh14MeshParametersESaIS1_EE** %..inline.addr, align 8, !tbaa !4032, !dbg !5472
	%4 = bitcast %struct._ZSt12_Vector_baseIN5vmesh14MeshParametersESaIS1_EE*  %3 to i8**, !dbg !5472
	%5 = load i8*, i8**  %4, align 8, !tbaa !4032, !dbg !5472
	%6 = icmp eq i8*  %5,  null, !dbg !5472
	br i1  %6, label %L..inline.68846, label %L.B1251, !dbg !5472
L.B1251:
	%7 = bitcast %struct._ZSt12_Vector_baseIN5vmesh14MeshParametersESaIS1_EE*  %3 to i8**, !dbg !5472
	%8 = load i8*, i8**  %7, align 8, !tbaa !4032, !dbg !5472
	%9 = bitcast %struct._ZN5vmesh14MeshParametersE** %..inline.addr.1 to i8**, !dbg !5472
	store i8*  %8, i8**  %9, align 8, !tbaa !4032, !dbg !5472
	%10 = load %struct._ZN5vmesh14MeshParametersE*, %struct._ZN5vmesh14MeshParametersE** %..inline.addr.1, align 8, !tbaa !4032, !dbg !5472
	%11 = bitcast %struct._ZN5vmesh14MeshParametersE*  %10 to i8*, !dbg !5472
	call void  @_ZdlPv (i8*  %11) nounwind, !dbg !5472
	br label %L..inline.68846
L..inline.68846:
	ret void, !dbg !5473
}
define linkonce_odr void @_ZNSt12_Vector_baseIN5vmesh14MeshParametersESaIS1_EE13_M_deallocateEPS1_m(%struct._ZSt12_Vector_baseIN5vmesh14MeshParametersESaIS1_EE* %_T45441624_51833.arg, %struct._ZN5vmesh14MeshParametersE* %__p.arg, i64 %__n.arg) #0 inlinehint !dbg !5477 {
L.entry:
	%_T45441624_51833.addr = alloca %struct._ZSt12_Vector_baseIN5vmesh14MeshParametersESaIS1_EE*, align 8
	%__p.addr = alloca %struct._ZN5vmesh14MeshParametersE*, align 8
	%__n.addr = alloca i64, align 8
	%..inline.addr = alloca %struct._ZN5vmesh14MeshParametersE*, align 8

	call void @llvm.dbg.declare (metadata %struct._ZSt12_Vector_baseIN5vmesh14MeshParametersESaIS1_EE** %_T45441624_51833.addr, metadata !5489, metadata !4017), !dbg !5478
	store %struct._ZSt12_Vector_baseIN5vmesh14MeshParametersESaIS1_EE* %_T45441624_51833.arg, %struct._ZSt12_Vector_baseIN5vmesh14MeshParametersESaIS1_EE** %_T45441624_51833.addr, align 8, !tbaa !4032
	call void @llvm.dbg.declare (metadata %struct._ZSt12_Vector_baseIN5vmesh14MeshParametersESaIS1_EE** %_T45441624_51833.addr, metadata !5490, metadata !4017), !dbg !5478
	call void @llvm.dbg.declare (metadata %struct._ZN5vmesh14MeshParametersE** %__p.addr, metadata !5491, metadata !4017), !dbg !5478
	store %struct._ZN5vmesh14MeshParametersE* %__p.arg, %struct._ZN5vmesh14MeshParametersE** %__p.addr, align 8, !tbaa !4032
	call void @llvm.dbg.declare (metadata %struct._ZN5vmesh14MeshParametersE** %__p.addr, metadata !5492, metadata !4017), !dbg !5478
	call void @llvm.dbg.declare (metadata i64* %__n.addr, metadata !5493, metadata !4017), !dbg !5478
	store i64 %__n.arg, i64* %__n.addr, align 8, !tbaa !4033
	call void @llvm.dbg.declare (metadata i64* %__n.addr, metadata !5494, metadata !4017), !dbg !5478
	%0 = load %struct._ZN5vmesh14MeshParametersE*, %struct._ZN5vmesh14MeshParametersE** %__p.addr, align 8, !tbaa !4032, !dbg !5495
	%1 = bitcast %struct._ZN5vmesh14MeshParametersE*  %0 to i8*, !dbg !5495
	%2 = icmp eq i8*  %1,  null, !dbg !5495
	br i1  %2, label %L.B0018, label %L.B1254, !dbg !5495
L.B1254:
	%3 = bitcast %struct._ZN5vmesh14MeshParametersE*  %0 to i8*, !dbg !5496
	%4 = bitcast %struct._ZN5vmesh14MeshParametersE** %..inline.addr to i8**, !dbg !5496
	store i8*  %3, i8**  %4, align 8, !tbaa !4032, !dbg !5496
	%5 = load %struct._ZN5vmesh14MeshParametersE*, %struct._ZN5vmesh14MeshParametersE** %..inline.addr, align 8, !tbaa !4032, !dbg !5496
	%6 = bitcast %struct._ZN5vmesh14MeshParametersE*  %5 to i8*, !dbg !5496
	call void  @_ZdlPv (i8*  %6) nounwind, !dbg !5496
	br label %L.B0018
L.B0018:
	ret void, !dbg !5497
}
define linkonce_odr void @_ZNSt12_Vector_baseIN5vmesh14MeshParametersESaIS1_EE17_Vector_impl_dataC1Ev(%struct._ZNSt12_Vector_baseIN5vmesh14MeshParametersESaIS1_EE17_Vector_impl_dataE* %_T45441624_51834.arg) #0 inlinehint !dbg !5502 {
L.entry:
	%_T45441624_51834.addr = alloca %struct._ZNSt12_Vector_baseIN5vmesh14MeshParametersESaIS1_EE17_Vector_impl_dataE*, align 8

	call void @llvm.dbg.declare (metadata %struct._ZNSt12_Vector_baseIN5vmesh14MeshParametersESaIS1_EE17_Vector_impl_dataE** %_T45441624_51834.addr, metadata !5506, metadata !4017), !dbg !5503
	store %struct._ZNSt12_Vector_baseIN5vmesh14MeshParametersESaIS1_EE17_Vector_impl_dataE* %_T45441624_51834.arg, %struct._ZNSt12_Vector_baseIN5vmesh14MeshParametersESaIS1_EE17_Vector_impl_dataE** %_T45441624_51834.addr, align 8, !tbaa !4032
	call void @llvm.dbg.declare (metadata %struct._ZNSt12_Vector_baseIN5vmesh14MeshParametersESaIS1_EE17_Vector_impl_dataE** %_T45441624_51834.addr, metadata !5507, metadata !4017), !dbg !5503
	%0 = load %struct._ZNSt12_Vector_baseIN5vmesh14MeshParametersESaIS1_EE17_Vector_impl_dataE*, %struct._ZNSt12_Vector_baseIN5vmesh14MeshParametersESaIS1_EE17_Vector_impl_dataE** %_T45441624_51834.addr, align 8, !tbaa !4032, !dbg !5508
	%1 = bitcast %struct._ZNSt12_Vector_baseIN5vmesh14MeshParametersESaIS1_EE17_Vector_impl_dataE*  %0 to i8**, !dbg !5508
	store i8* null, i8**  %1, align 8, !tbaa !4032, !dbg !5508
	%2 = bitcast %struct._ZNSt12_Vector_baseIN5vmesh14MeshParametersESaIS1_EE17_Vector_impl_dataE*  %0 to i8*, !dbg !5508
	%3 = getelementptr i8, i8*  %2, i64 8, !dbg !5508
	%4 = bitcast i8*  %3 to i8**, !dbg !5508
	store i8* null, i8**  %4, align 8, !tbaa !4032, !dbg !5508
	%5 = getelementptr i8, i8*  %2, i64 16, !dbg !5508
	%6 = bitcast i8*  %5 to i8**, !dbg !5508
	store i8* null, i8**  %6, align 8, !tbaa !4032, !dbg !5508
	ret void, !dbg !5508
}
define linkonce_odr void @_ZNSt12_Vector_baseIN5vmesh14MeshParametersESaIS1_EE17_Vector_impl_dataC2Ev(%struct._ZNSt12_Vector_baseIN5vmesh14MeshParametersESaIS1_EE17_Vector_impl_dataE* %_T45441624_51835.arg) #0 inlinehint !dbg !5510 {
L.entry:
	%_T45441624_51835.addr = alloca %struct._ZNSt12_Vector_baseIN5vmesh14MeshParametersESaIS1_EE17_Vector_impl_dataE*, align 8
	%..inline.addr = alloca %struct._ZNSt12_Vector_baseIN5vmesh14MeshParametersESaIS1_EE17_Vector_impl_dataE*, align 8

	store %struct._ZNSt12_Vector_baseIN5vmesh14MeshParametersESaIS1_EE17_Vector_impl_dataE* %_T45441624_51835.arg, %struct._ZNSt12_Vector_baseIN5vmesh14MeshParametersESaIS1_EE17_Vector_impl_dataE** %_T45441624_51835.addr, align 8, !tbaa !4032
	%0 = load %struct._ZNSt12_Vector_baseIN5vmesh14MeshParametersESaIS1_EE17_Vector_impl_dataE*, %struct._ZNSt12_Vector_baseIN5vmesh14MeshParametersESaIS1_EE17_Vector_impl_dataE** %_T45441624_51835.addr, align 8, !tbaa !4032, !dbg !5518
	%1 = bitcast %struct._ZNSt12_Vector_baseIN5vmesh14MeshParametersESaIS1_EE17_Vector_impl_dataE*  %0 to i8*, !dbg !5518
	%2 = bitcast %struct._ZNSt12_Vector_baseIN5vmesh14MeshParametersESaIS1_EE17_Vector_impl_dataE** %..inline.addr to i8**, !dbg !5518
	store i8*  %1, i8**  %2, align 8, !tbaa !4032, !dbg !5518
	%3 = load %struct._ZNSt12_Vector_baseIN5vmesh14MeshParametersESaIS1_EE17_Vector_impl_dataE*, %struct._ZNSt12_Vector_baseIN5vmesh14MeshParametersESaIS1_EE17_Vector_impl_dataE** %..inline.addr, align 8, !tbaa !4032, !dbg !5518
	%4 = bitcast %struct._ZNSt12_Vector_baseIN5vmesh14MeshParametersESaIS1_EE17_Vector_impl_dataE*  %3 to i8**, !dbg !5518
	store i8* null, i8**  %4, align 8, !tbaa !4032, !dbg !5518
	%5 = bitcast %struct._ZNSt12_Vector_baseIN5vmesh14MeshParametersESaIS1_EE17_Vector_impl_dataE*  %3 to i8*, !dbg !5518
	%6 = getelementptr i8, i8*  %5, i64 8, !dbg !5518
	%7 = bitcast i8*  %6 to i8**, !dbg !5518
	store i8* null, i8**  %7, align 8, !tbaa !4032, !dbg !5518
	%8 = getelementptr i8, i8*  %5, i64 16, !dbg !5518
	%9 = bitcast i8*  %8 to i8**, !dbg !5518
	store i8* null, i8**  %9, align 8, !tbaa !4032, !dbg !5518
	ret void, !dbg !5518
}
define linkonce_odr void @_ZNSt12_Vector_baseIN5vmesh14MeshParametersESaIS1_EE12_Vector_implC1Ev(%struct._ZNSt12_Vector_baseIN5vmesh14MeshParametersESaIS1_EE12_Vector_implE* %_T45441624_51836.arg) #0 inlinehint !dbg !5523 {
L.entry:
	%_T45441624_51836.addr = alloca %struct._ZNSt12_Vector_baseIN5vmesh14MeshParametersESaIS1_EE12_Vector_implE*, align 8
	%..inline.addr = alloca %struct._ZNSt12_Vector_baseIN5vmesh14MeshParametersESaIS1_EE17_Vector_impl_dataE*, align 8

	call void @llvm.dbg.declare (metadata %struct._ZNSt12_Vector_baseIN5vmesh14MeshParametersESaIS1_EE12_Vector_implE** %_T45441624_51836.addr, metadata !5535, metadata !4017), !dbg !5524
	store %struct._ZNSt12_Vector_baseIN5vmesh14MeshParametersESaIS1_EE12_Vector_implE* %_T45441624_51836.arg, %struct._ZNSt12_Vector_baseIN5vmesh14MeshParametersESaIS1_EE12_Vector_implE** %_T45441624_51836.addr, align 8, !tbaa !4032
	call void @llvm.dbg.declare (metadata %struct._ZNSt12_Vector_baseIN5vmesh14MeshParametersESaIS1_EE12_Vector_implE** %_T45441624_51836.addr, metadata !5536, metadata !4017), !dbg !5524
	%0 = load %struct._ZNSt12_Vector_baseIN5vmesh14MeshParametersESaIS1_EE12_Vector_implE*, %struct._ZNSt12_Vector_baseIN5vmesh14MeshParametersESaIS1_EE12_Vector_implE** %_T45441624_51836.addr, align 8, !tbaa !4032, !dbg !5537
	%1 = bitcast %struct._ZNSt12_Vector_baseIN5vmesh14MeshParametersESaIS1_EE12_Vector_implE*  %0 to i8*, !dbg !5537
	%2 = bitcast %struct._ZNSt12_Vector_baseIN5vmesh14MeshParametersESaIS1_EE17_Vector_impl_dataE** %..inline.addr to i8**, !dbg !5537
	store i8*  %1, i8**  %2, align 8, !tbaa !4032, !dbg !5537
	%3 = load %struct._ZNSt12_Vector_baseIN5vmesh14MeshParametersESaIS1_EE17_Vector_impl_dataE*, %struct._ZNSt12_Vector_baseIN5vmesh14MeshParametersESaIS1_EE17_Vector_impl_dataE** %..inline.addr, align 8, !tbaa !4032, !dbg !5537
	%4 = bitcast %struct._ZNSt12_Vector_baseIN5vmesh14MeshParametersESaIS1_EE17_Vector_impl_dataE*  %3 to i8**, !dbg !5537
	store i8* null, i8**  %4, align 8, !tbaa !4032, !dbg !5537
	%5 = bitcast %struct._ZNSt12_Vector_baseIN5vmesh14MeshParametersESaIS1_EE17_Vector_impl_dataE*  %3 to i8*, !dbg !5538
	%6 = getelementptr i8, i8*  %5, i64 8, !dbg !5538
	%7 = bitcast i8*  %6 to i8**, !dbg !5538
	store i8* null, i8**  %7, align 8, !tbaa !4032, !dbg !5538
	%8 = getelementptr i8, i8*  %5, i64 16, !dbg !5538
	%9 = bitcast i8*  %8 to i8**, !dbg !5538
	store i8* null, i8**  %9, align 8, !tbaa !4032, !dbg !5538
	ret void, !dbg !5537
}
define linkonce_odr void @_ZNSt12_Vector_baseIN5vmesh14MeshParametersESaIS1_EE12_Vector_implC2Ev(%struct._ZNSt12_Vector_baseIN5vmesh14MeshParametersESaIS1_EE12_Vector_implE* %_T45441624_51837.arg) #0 inlinehint !dbg !5540 {
L.entry:
	%_T45441624_51837.addr = alloca %struct._ZNSt12_Vector_baseIN5vmesh14MeshParametersESaIS1_EE12_Vector_implE*, align 8
	%..inline.addr = alloca %struct._ZNSt12_Vector_baseIN5vmesh14MeshParametersESaIS1_EE17_Vector_impl_dataE*, align 8

	store %struct._ZNSt12_Vector_baseIN5vmesh14MeshParametersESaIS1_EE12_Vector_implE* %_T45441624_51837.arg, %struct._ZNSt12_Vector_baseIN5vmesh14MeshParametersESaIS1_EE12_Vector_implE** %_T45441624_51837.addr, align 8, !tbaa !4032
	%0 = load %struct._ZNSt12_Vector_baseIN5vmesh14MeshParametersESaIS1_EE12_Vector_implE*, %struct._ZNSt12_Vector_baseIN5vmesh14MeshParametersESaIS1_EE12_Vector_implE** %_T45441624_51837.addr, align 8, !tbaa !4032, !dbg !5556
	%1 = bitcast %struct._ZNSt12_Vector_baseIN5vmesh14MeshParametersESaIS1_EE12_Vector_implE*  %0 to i8*, !dbg !5556
	%2 = bitcast %struct._ZNSt12_Vector_baseIN5vmesh14MeshParametersESaIS1_EE17_Vector_impl_dataE** %..inline.addr to i8**, !dbg !5556
	store i8*  %1, i8**  %2, align 8, !tbaa !4032, !dbg !5556
	%3 = load %struct._ZNSt12_Vector_baseIN5vmesh14MeshParametersESaIS1_EE17_Vector_impl_dataE*, %struct._ZNSt12_Vector_baseIN5vmesh14MeshParametersESaIS1_EE17_Vector_impl_dataE** %..inline.addr, align 8, !tbaa !4032, !dbg !5556
	%4 = bitcast %struct._ZNSt12_Vector_baseIN5vmesh14MeshParametersESaIS1_EE17_Vector_impl_dataE*  %3 to i8**, !dbg !5556
	store i8* null, i8**  %4, align 8, !tbaa !4032, !dbg !5556
	%5 = bitcast %struct._ZNSt12_Vector_baseIN5vmesh14MeshParametersESaIS1_EE17_Vector_impl_dataE*  %3 to i8*, !dbg !5556
	%6 = getelementptr i8, i8*  %5, i64 8, !dbg !5556
	%7 = bitcast i8*  %6 to i8**, !dbg !5556
	store i8* null, i8**  %7, align 8, !tbaa !4032, !dbg !5556
	%8 = getelementptr i8, i8*  %5, i64 16, !dbg !5556
	%9 = bitcast i8*  %8 to i8**, !dbg !5556
	store i8* null, i8**  %9, align 8, !tbaa !4032, !dbg !5556
	ret void, !dbg !5556
}
define linkonce_odr void @_ZNSt12_Vector_baseIN5vmesh14MeshParametersESaIS1_EE12_Vector_implD1Ev(%struct._ZNSt12_Vector_baseIN5vmesh14MeshParametersESaIS1_EE12_Vector_implE* %_T45441624_51838.arg) #0 inlinehint !dbg !5558 {
L.entry:
	%_T45441624_51838.addr = alloca %struct._ZNSt12_Vector_baseIN5vmesh14MeshParametersESaIS1_EE12_Vector_implE*, align 8

	call void @llvm.dbg.declare (metadata %struct._ZNSt12_Vector_baseIN5vmesh14MeshParametersESaIS1_EE12_Vector_implE** %_T45441624_51838.addr, metadata !5570, metadata !4017), !dbg !5559
	store %struct._ZNSt12_Vector_baseIN5vmesh14MeshParametersESaIS1_EE12_Vector_implE* %_T45441624_51838.arg, %struct._ZNSt12_Vector_baseIN5vmesh14MeshParametersESaIS1_EE12_Vector_implE** %_T45441624_51838.addr, align 8, !tbaa !4032
	call void @llvm.dbg.declare (metadata %struct._ZNSt12_Vector_baseIN5vmesh14MeshParametersESaIS1_EE12_Vector_implE** %_T45441624_51838.addr, metadata !5571, metadata !4017), !dbg !5559
	ret void, !dbg !5572
}
define linkonce_odr void @_ZNSt12_Vector_baseIN5vmesh14MeshParametersESaIS1_EE12_Vector_implD2Ev(%struct._ZNSt12_Vector_baseIN5vmesh14MeshParametersESaIS1_EE12_Vector_implE* %_T45441624_51839.arg) #0 inlinehint !dbg !5574 {
L.entry:
	%_T45441624_51839.addr = alloca %struct._ZNSt12_Vector_baseIN5vmesh14MeshParametersESaIS1_EE12_Vector_implE*, align 8

	store %struct._ZNSt12_Vector_baseIN5vmesh14MeshParametersESaIS1_EE12_Vector_implE* %_T45441624_51839.arg, %struct._ZNSt12_Vector_baseIN5vmesh14MeshParametersESaIS1_EE12_Vector_implE** %_T45441624_51839.addr, align 8, !tbaa !4032
	ret void, !dbg !5590
}

%struct._ZSt6vectorIN5vmesh14MeshParametersESaIS1_EE = type <{ %struct._ZSt12_Vector_baseIN5vmesh14MeshParametersESaIS1_EE}> 

define linkonce_odr void @_ZNSt6vectorIN5vmesh14MeshParametersESaIS1_EEC1Ev(%struct._ZSt6vectorIN5vmesh14MeshParametersESaIS1_EE* %_T45441624_51840.arg) #0 inlinehint !dbg !5595 {
L.entry:
	%_T45441624_51840.addr = alloca %struct._ZSt6vectorIN5vmesh14MeshParametersESaIS1_EE*, align 8
	%..inline.addr = alloca %struct._ZNSt12_Vector_baseIN5vmesh14MeshParametersESaIS1_EE17_Vector_impl_dataE*, align 8

	call void @llvm.dbg.declare (metadata %struct._ZSt6vectorIN5vmesh14MeshParametersESaIS1_EE** %_T45441624_51840.addr, metadata !5619, metadata !4017), !dbg !5596
	store %struct._ZSt6vectorIN5vmesh14MeshParametersESaIS1_EE* %_T45441624_51840.arg, %struct._ZSt6vectorIN5vmesh14MeshParametersESaIS1_EE** %_T45441624_51840.addr, align 8, !tbaa !4032
	call void @llvm.dbg.declare (metadata %struct._ZSt6vectorIN5vmesh14MeshParametersESaIS1_EE** %_T45441624_51840.addr, metadata !5620, metadata !4017), !dbg !5596
	%0 = load %struct._ZSt6vectorIN5vmesh14MeshParametersESaIS1_EE*, %struct._ZSt6vectorIN5vmesh14MeshParametersESaIS1_EE** %_T45441624_51840.addr, align 8, !tbaa !4032, !dbg !5621
	%1 = bitcast %struct._ZSt6vectorIN5vmesh14MeshParametersESaIS1_EE*  %0 to i8*, !dbg !5621
	%2 = bitcast %struct._ZNSt12_Vector_baseIN5vmesh14MeshParametersESaIS1_EE17_Vector_impl_dataE** %..inline.addr to i8**, !dbg !5621
	store i8*  %1, i8**  %2, align 8, !tbaa !4032, !dbg !5621
	%3 = load %struct._ZNSt12_Vector_baseIN5vmesh14MeshParametersESaIS1_EE17_Vector_impl_dataE*, %struct._ZNSt12_Vector_baseIN5vmesh14MeshParametersESaIS1_EE17_Vector_impl_dataE** %..inline.addr, align 8, !tbaa !4032, !dbg !5621
	%4 = bitcast %struct._ZNSt12_Vector_baseIN5vmesh14MeshParametersESaIS1_EE17_Vector_impl_dataE*  %3 to i8**, !dbg !5621
	store i8* null, i8**  %4, align 8, !tbaa !4032, !dbg !5621
	%5 = bitcast %struct._ZNSt12_Vector_baseIN5vmesh14MeshParametersESaIS1_EE17_Vector_impl_dataE*  %3 to i8*, !dbg !5621
	%6 = getelementptr i8, i8*  %5, i64 8, !dbg !5621
	%7 = bitcast i8*  %6 to i8**, !dbg !5621
	store i8* null, i8**  %7, align 8, !tbaa !4032, !dbg !5621
	%8 = getelementptr i8, i8*  %5, i64 16, !dbg !5621
	%9 = bitcast i8*  %8 to i8**, !dbg !5621
	store i8* null, i8**  %9, align 8, !tbaa !4032, !dbg !5621
	ret void, !dbg !5621
}
define linkonce_odr void @_ZNSt6vectorIN5vmesh14MeshParametersESaIS1_EEC2Ev(%struct._ZSt6vectorIN5vmesh14MeshParametersESaIS1_EE* %_T45441624_51841.arg) #0 inlinehint !dbg !5623 {
L.entry:
	%_T45441624_51841.addr = alloca %struct._ZSt6vectorIN5vmesh14MeshParametersESaIS1_EE*, align 8
	%..inline.addr = alloca %struct._ZNSt12_Vector_baseIN5vmesh14MeshParametersESaIS1_EE17_Vector_impl_dataE*, align 8

	store %struct._ZSt6vectorIN5vmesh14MeshParametersESaIS1_EE* %_T45441624_51841.arg, %struct._ZSt6vectorIN5vmesh14MeshParametersESaIS1_EE** %_T45441624_51841.addr, align 8, !tbaa !4032
	%0 = load %struct._ZSt6vectorIN5vmesh14MeshParametersESaIS1_EE*, %struct._ZSt6vectorIN5vmesh14MeshParametersESaIS1_EE** %_T45441624_51841.addr, align 8, !tbaa !4032, !dbg !5651
	%1 = bitcast %struct._ZSt6vectorIN5vmesh14MeshParametersESaIS1_EE*  %0 to i8*, !dbg !5651
	%2 = bitcast %struct._ZNSt12_Vector_baseIN5vmesh14MeshParametersESaIS1_EE17_Vector_impl_dataE** %..inline.addr to i8**, !dbg !5651
	store i8*  %1, i8**  %2, align 8, !tbaa !4032, !dbg !5651
	%3 = load %struct._ZNSt12_Vector_baseIN5vmesh14MeshParametersESaIS1_EE17_Vector_impl_dataE*, %struct._ZNSt12_Vector_baseIN5vmesh14MeshParametersESaIS1_EE17_Vector_impl_dataE** %..inline.addr, align 8, !tbaa !4032, !dbg !5651
	%4 = bitcast %struct._ZNSt12_Vector_baseIN5vmesh14MeshParametersESaIS1_EE17_Vector_impl_dataE*  %3 to i8**, !dbg !5651
	store i8* null, i8**  %4, align 8, !tbaa !4032, !dbg !5651
	%5 = bitcast %struct._ZNSt12_Vector_baseIN5vmesh14MeshParametersESaIS1_EE17_Vector_impl_dataE*  %3 to i8*, !dbg !5651
	%6 = getelementptr i8, i8*  %5, i64 8, !dbg !5651
	%7 = bitcast i8*  %6 to i8**, !dbg !5651
	store i8* null, i8**  %7, align 8, !tbaa !4032, !dbg !5651
	%8 = getelementptr i8, i8*  %5, i64 16, !dbg !5651
	%9 = bitcast i8*  %8 to i8**, !dbg !5651
	store i8* null, i8**  %9, align 8, !tbaa !4032, !dbg !5651
	ret void, !dbg !5651
}
define linkonce_odr void @_ZNSt6vectorIN5vmesh14MeshParametersESaIS1_EED1Ev(%struct._ZSt6vectorIN5vmesh14MeshParametersESaIS1_EE* %_T45441624_51842.arg) #0 inlinehint !dbg !5653 {
L.entry:
	%_T45441624_51842.addr = alloca %struct._ZSt6vectorIN5vmesh14MeshParametersESaIS1_EE*, align 8
	%..inline.addr = alloca %struct._ZN5vmesh14MeshParametersE*, align 8
	%..inline.addr.1 = alloca %struct._ZN5vmesh14MeshParametersE*, align 8
	%.lcr4469633.addr = alloca i8*, align 8
	%..inline.addr.2 = alloca %struct._ZN5vmesh14MeshParametersE*, align 8
	%..inline.addr.3 = alloca %struct._ZSt12_Vector_baseIN5vmesh14MeshParametersESaIS1_EE*, align 8
	%..inline.addr.4 = alloca %struct._ZN5vmesh14MeshParametersE*, align 8

	call void @llvm.dbg.declare (metadata %struct._ZSt6vectorIN5vmesh14MeshParametersESaIS1_EE** %_T45441624_51842.addr, metadata !5713, metadata !4017), !dbg !5654
	store %struct._ZSt6vectorIN5vmesh14MeshParametersESaIS1_EE* %_T45441624_51842.arg, %struct._ZSt6vectorIN5vmesh14MeshParametersESaIS1_EE** %_T45441624_51842.addr, align 8, !tbaa !4032
	call void @llvm.dbg.declare (metadata %struct._ZSt6vectorIN5vmesh14MeshParametersESaIS1_EE** %_T45441624_51842.addr, metadata !5714, metadata !4017), !dbg !5654
	%0 = load %struct._ZSt6vectorIN5vmesh14MeshParametersESaIS1_EE*, %struct._ZSt6vectorIN5vmesh14MeshParametersESaIS1_EE** %_T45441624_51842.addr, align 8, !tbaa !4032, !dbg !5715
	%1 = bitcast %struct._ZSt6vectorIN5vmesh14MeshParametersESaIS1_EE*  %0 to i8**, !dbg !5715
	%2 = load i8*, i8**  %1, align 8, !tbaa !4032, !dbg !5715
	%3 = bitcast %struct._ZN5vmesh14MeshParametersE** %..inline.addr to i8**, !dbg !5715
	store i8*  %2, i8**  %3, align 8, !tbaa !4032, !dbg !5715
	%4 = bitcast %struct._ZSt6vectorIN5vmesh14MeshParametersESaIS1_EE*  %0 to i8*, !dbg !5715
	%5 = getelementptr i8, i8*  %4, i64 8, !dbg !5715
	%6 = bitcast i8*  %5 to i8**, !dbg !5715
	%7 = load i8*, i8**  %6, align 8, !tbaa !4032, !dbg !5715
	%8 = bitcast %struct._ZN5vmesh14MeshParametersE** %..inline.addr.1 to i8**, !dbg !5715
	store i8*  %7, i8**  %8, align 8, !tbaa !4032, !dbg !5715
	%9 = load %struct._ZN5vmesh14MeshParametersE*, %struct._ZN5vmesh14MeshParametersE** %..inline.addr, align 8, !tbaa !4032, !dbg !5715
	%10 = bitcast %struct._ZN5vmesh14MeshParametersE*  %9 to i8*, !dbg !5715
	%11 = load %struct._ZN5vmesh14MeshParametersE*, %struct._ZN5vmesh14MeshParametersE** %..inline.addr.1, align 8, !tbaa !4032, !dbg !5715
	%12 = bitcast %struct._ZN5vmesh14MeshParametersE*  %11 to i8*, !dbg !5715
	%13 = icmp eq i8*  %10,  %12, !dbg !5715
	br i1  %13, label %L..inline.69099, label %L.B1275, !dbg !5715
L.B1275:
	%14 = bitcast %struct._ZN5vmesh14MeshParametersE*  %9 to i8*, !dbg !5715
	%15 = bitcast %struct._ZN5vmesh14MeshParametersE*  %11 to i8*, !dbg !5715
	%16 = ptrtoint i8*  %14 to i64, !dbg !5715
	%17 = sub i64 0,  %16, !dbg !5715
	%18 = getelementptr i8, i8*  %15, i64  %17, !dbg !5715
	%19 = ptrtoint i8*  %18 to i64, !dbg !5715
	%20 = add i64  %19, 335, !dbg !5715
	%21 = sub i64 0,  %16, !dbg !5715
	%22 = getelementptr i8, i8*  %15, i64  %21, !dbg !5715
	%23 = ptrtoint i8*  %22 to i64, !dbg !5715
	%24 = add i64  %23, 335, !dbg !5715
	%25 = sext i64 -4392081922311798003 to i128, !dbg !5715
	%26 = sext i64  %24 to i128, !dbg !5715
	%27 = mul i128  %25,  %26, !dbg !5715
	%28 = ashr i128  %27, 64, !dbg !5715
	%29 = trunc i128  %28 to i64, !dbg !5715
	%30 = add i64  %20,  %29, !dbg !5715
	%31 = sext i32 8 to i64, !dbg !5715
	%32 = ashr i64  %30,  %31, !dbg !5715
	%33 = sub i64 0,  %16, !dbg !5715
	%34 = getelementptr i8, i8*  %15, i64  %33, !dbg !5715
	%35 = ptrtoint i8*  %34 to i64, !dbg !5715
	%36 = add i64  %35, 335, !dbg !5715
	%37 = sext i32 63 to i64, !dbg !5715
	%38 = ashr i64  %36,  %37, !dbg !5715
	%39 = sub i64  %32,  %38, !dbg !5715
	%40 = mul i64  %39, 336, !dbg !5715
	%41 = getelementptr i8, i8*  %14, i64  %40, !dbg !5715
	store i8*  %41, i8** %.lcr4469633.addr, align 8, !tbaa !4032, !dbg !5715
	br label %L..inline.69098
L..inline.69098:
	%42 = load %struct._ZN5vmesh14MeshParametersE*, %struct._ZN5vmesh14MeshParametersE** %..inline.addr, align 8, !tbaa !4032, !dbg !5715
	%43 = bitcast %struct._ZN5vmesh14MeshParametersE*  %42 to i8*, !dbg !5715
	%44 = bitcast %struct._ZN5vmesh14MeshParametersE** %..inline.addr.2 to i8**, !dbg !5715
	store i8*  %43, i8**  %44, align 8, !tbaa !4032, !dbg !5715
	%45 = load %struct._ZN5vmesh14MeshParametersE*, %struct._ZN5vmesh14MeshParametersE** %..inline.addr.2, align 8, !tbaa !4032, !dbg !5715
	call void  @_ZN5vmesh14MeshParametersD1Ev (%struct._ZN5vmesh14MeshParametersE*  %45) nounwind, !dbg !5715
	%46 = load %struct._ZN5vmesh14MeshParametersE*, %struct._ZN5vmesh14MeshParametersE** %..inline.addr, align 8, !tbaa !4032, !dbg !5715
	%47 = bitcast %struct._ZN5vmesh14MeshParametersE*  %46 to i8*, !dbg !5715
	%48 = getelementptr i8, i8*  %47, i64 336, !dbg !5715
	%49 = bitcast %struct._ZN5vmesh14MeshParametersE** %..inline.addr to i8**, !dbg !5715
	store i8*  %48, i8**  %49, align 8, !tbaa !4032, !dbg !5715
	%50 = load %struct._ZN5vmesh14MeshParametersE*, %struct._ZN5vmesh14MeshParametersE** %..inline.addr, align 8, !tbaa !4032, !dbg !5715
	%51 = bitcast %struct._ZN5vmesh14MeshParametersE*  %50 to i8*, !dbg !5715
	%52 = load i8*, i8** %.lcr4469633.addr, align 8, !tbaa !4032, !dbg !5715
	%53 = icmp ult i8*  %51,  %52, !dbg !5715
	br i1  %53, label %L..inline.69098, label %L..inline.69099, !dbg !5715
L..inline.69099:
	%54 = load %struct._ZSt6vectorIN5vmesh14MeshParametersESaIS1_EE*, %struct._ZSt6vectorIN5vmesh14MeshParametersESaIS1_EE** %_T45441624_51842.addr, align 8, !tbaa !4032, !dbg !5716
	%55 = bitcast %struct._ZSt6vectorIN5vmesh14MeshParametersESaIS1_EE*  %54 to i8*, !dbg !5716
	%56 = bitcast %struct._ZSt12_Vector_baseIN5vmesh14MeshParametersESaIS1_EE** %..inline.addr.3 to i8**, !dbg !5716
	store i8*  %55, i8**  %56, align 8, !tbaa !4032, !dbg !5716
	%57 = load %struct._ZSt12_Vector_baseIN5vmesh14MeshParametersESaIS1_EE*, %struct._ZSt12_Vector_baseIN5vmesh14MeshParametersESaIS1_EE** %..inline.addr.3, align 8, !tbaa !4032, !dbg !5717
	%58 = bitcast %struct._ZSt12_Vector_baseIN5vmesh14MeshParametersESaIS1_EE*  %57 to i8**, !dbg !5717
	%59 = load i8*, i8**  %58, align 8, !tbaa !4032, !dbg !5717
	%60 = icmp eq i8*  %59,  null, !dbg !5717
	br i1  %60, label %L..inline.69131, label %L.B1276, !dbg !5717
L.B1276:
	%61 = bitcast %struct._ZSt12_Vector_baseIN5vmesh14MeshParametersESaIS1_EE*  %57 to i8**, !dbg !5717
	%62 = load i8*, i8**  %61, align 8, !tbaa !4032, !dbg !5717
	%63 = bitcast %struct._ZN5vmesh14MeshParametersE** %..inline.addr.4 to i8**, !dbg !5717
	store i8*  %62, i8**  %63, align 8, !tbaa !4032, !dbg !5717
	%64 = load %struct._ZN5vmesh14MeshParametersE*, %struct._ZN5vmesh14MeshParametersE** %..inline.addr.4, align 8, !tbaa !4032, !dbg !5717
	%65 = bitcast %struct._ZN5vmesh14MeshParametersE*  %64 to i8*, !dbg !5717
	call void  @_ZdlPv (i8*  %65) nounwind, !dbg !5717
	br label %L..inline.69131
L..inline.69131:
	ret void, !dbg !5716
}
define linkonce_odr void @_ZNSt6vectorIN5vmesh14MeshParametersESaIS1_EED2Ev(%struct._ZSt6vectorIN5vmesh14MeshParametersESaIS1_EE* %_T45441624_51843.arg) #0 inlinehint !dbg !5719 {
L.entry:
	%_T45441624_51843.addr = alloca %struct._ZSt6vectorIN5vmesh14MeshParametersESaIS1_EE*, align 8
	%..inline.addr = alloca %struct._ZSt6vectorIN5vmesh14MeshParametersESaIS1_EE*, align 8
	%..inline.addr.1 = alloca %struct._ZN5vmesh14MeshParametersE*, align 8
	%..inline.addr.2 = alloca %struct._ZN5vmesh14MeshParametersE*, align 8
	%.lcr4470657.addr = alloca i8*, align 8
	%..inline.addr.3 = alloca %struct._ZN5vmesh14MeshParametersE*, align 8
	%..inline.addr.4 = alloca %struct._ZN5vmesh14MeshParametersE*, align 8

	store %struct._ZSt6vectorIN5vmesh14MeshParametersESaIS1_EE* %_T45441624_51843.arg, %struct._ZSt6vectorIN5vmesh14MeshParametersESaIS1_EE** %_T45441624_51843.addr, align 8, !tbaa !4032
	%0 = load %struct._ZSt6vectorIN5vmesh14MeshParametersESaIS1_EE*, %struct._ZSt6vectorIN5vmesh14MeshParametersESaIS1_EE** %_T45441624_51843.addr, align 8, !tbaa !4032, !dbg !5783
	%1 = bitcast %struct._ZSt6vectorIN5vmesh14MeshParametersESaIS1_EE*  %0 to i8*, !dbg !5783
	%2 = bitcast %struct._ZSt6vectorIN5vmesh14MeshParametersESaIS1_EE** %..inline.addr to i8**, !dbg !5783
	store i8*  %1, i8**  %2, align 8, !tbaa !4032, !dbg !5783
	%3 = load %struct._ZSt6vectorIN5vmesh14MeshParametersESaIS1_EE*, %struct._ZSt6vectorIN5vmesh14MeshParametersESaIS1_EE** %..inline.addr, align 8, !tbaa !4032, !dbg !5784
	%4 = bitcast %struct._ZSt6vectorIN5vmesh14MeshParametersESaIS1_EE*  %3 to i8**, !dbg !5784
	%5 = load i8*, i8**  %4, align 8, !tbaa !4032, !dbg !5784
	%6 = bitcast %struct._ZN5vmesh14MeshParametersE** %..inline.addr.1 to i8**, !dbg !5784
	store i8*  %5, i8**  %6, align 8, !tbaa !4032, !dbg !5784
	%7 = bitcast %struct._ZSt6vectorIN5vmesh14MeshParametersESaIS1_EE*  %3 to i8*, !dbg !5784
	%8 = getelementptr i8, i8*  %7, i64 8, !dbg !5784
	%9 = bitcast i8*  %8 to i8**, !dbg !5784
	%10 = load i8*, i8**  %9, align 8, !tbaa !4032, !dbg !5784
	%11 = bitcast %struct._ZN5vmesh14MeshParametersE** %..inline.addr.2 to i8**, !dbg !5784
	store i8*  %10, i8**  %11, align 8, !tbaa !4032, !dbg !5784
	%12 = load %struct._ZN5vmesh14MeshParametersE*, %struct._ZN5vmesh14MeshParametersE** %..inline.addr.1, align 8, !tbaa !4032, !dbg !5784
	%13 = bitcast %struct._ZN5vmesh14MeshParametersE*  %12 to i8*, !dbg !5784
	%14 = load %struct._ZN5vmesh14MeshParametersE*, %struct._ZN5vmesh14MeshParametersE** %..inline.addr.2, align 8, !tbaa !4032, !dbg !5784
	%15 = bitcast %struct._ZN5vmesh14MeshParametersE*  %14 to i8*, !dbg !5784
	%16 = icmp eq i8*  %13,  %15, !dbg !5784
	br i1  %16, label %L..inline.69230, label %L.B1279, !dbg !5784
L.B1279:
	%17 = bitcast %struct._ZN5vmesh14MeshParametersE*  %12 to i8*, !dbg !5784
	%18 = bitcast %struct._ZN5vmesh14MeshParametersE*  %14 to i8*, !dbg !5784
	%19 = ptrtoint i8*  %17 to i64, !dbg !5784
	%20 = sub i64 0,  %19, !dbg !5784
	%21 = getelementptr i8, i8*  %18, i64  %20, !dbg !5784
	%22 = ptrtoint i8*  %21 to i64, !dbg !5784
	%23 = add i64  %22, 335, !dbg !5784
	%24 = sub i64 0,  %19, !dbg !5784
	%25 = getelementptr i8, i8*  %18, i64  %24, !dbg !5784
	%26 = ptrtoint i8*  %25 to i64, !dbg !5784
	%27 = add i64  %26, 335, !dbg !5784
	%28 = sext i64 -4392081922311798003 to i128, !dbg !5784
	%29 = sext i64  %27 to i128, !dbg !5784
	%30 = mul i128  %28,  %29, !dbg !5784
	%31 = ashr i128  %30, 64, !dbg !5784
	%32 = trunc i128  %31 to i64, !dbg !5784
	%33 = add i64  %23,  %32, !dbg !5784
	%34 = sext i32 8 to i64, !dbg !5784
	%35 = ashr i64  %33,  %34, !dbg !5784
	%36 = sub i64 0,  %19, !dbg !5784
	%37 = getelementptr i8, i8*  %18, i64  %36, !dbg !5784
	%38 = ptrtoint i8*  %37 to i64, !dbg !5784
	%39 = add i64  %38, 335, !dbg !5784
	%40 = sext i32 63 to i64, !dbg !5784
	%41 = ashr i64  %39,  %40, !dbg !5784
	%42 = sub i64  %35,  %41, !dbg !5784
	%43 = mul i64  %42, 336, !dbg !5784
	%44 = getelementptr i8, i8*  %17, i64  %43, !dbg !5784
	store i8*  %44, i8** %.lcr4470657.addr, align 8, !tbaa !4032, !dbg !5784
	br label %L..inline.69229
L..inline.69229:
	%45 = load %struct._ZN5vmesh14MeshParametersE*, %struct._ZN5vmesh14MeshParametersE** %..inline.addr.1, align 8, !tbaa !4032, !dbg !5784
	%46 = bitcast %struct._ZN5vmesh14MeshParametersE*  %45 to i8*, !dbg !5784
	%47 = bitcast %struct._ZN5vmesh14MeshParametersE** %..inline.addr.3 to i8**, !dbg !5784
	store i8*  %46, i8**  %47, align 8, !tbaa !4032, !dbg !5784
	%48 = load %struct._ZN5vmesh14MeshParametersE*, %struct._ZN5vmesh14MeshParametersE** %..inline.addr.3, align 8, !tbaa !4032, !dbg !5784
	call void  @_ZN5vmesh14MeshParametersD1Ev (%struct._ZN5vmesh14MeshParametersE*  %48) nounwind, !dbg !5784
	%49 = load %struct._ZN5vmesh14MeshParametersE*, %struct._ZN5vmesh14MeshParametersE** %..inline.addr.1, align 8, !tbaa !4032, !dbg !5784
	%50 = bitcast %struct._ZN5vmesh14MeshParametersE*  %49 to i8*, !dbg !5784
	%51 = getelementptr i8, i8*  %50, i64 336, !dbg !5784
	%52 = bitcast %struct._ZN5vmesh14MeshParametersE** %..inline.addr.1 to i8**, !dbg !5784
	store i8*  %51, i8**  %52, align 8, !tbaa !4032, !dbg !5784
	%53 = load %struct._ZN5vmesh14MeshParametersE*, %struct._ZN5vmesh14MeshParametersE** %..inline.addr.1, align 8, !tbaa !4032, !dbg !5784
	%54 = bitcast %struct._ZN5vmesh14MeshParametersE*  %53 to i8*, !dbg !5784
	%55 = load i8*, i8** %.lcr4470657.addr, align 8, !tbaa !4032, !dbg !5784
	%56 = icmp ult i8*  %54,  %55, !dbg !5784
	br i1  %56, label %L..inline.69229, label %L..inline.69230, !dbg !5784
L..inline.69230:
	%57 = load %struct._ZSt6vectorIN5vmesh14MeshParametersESaIS1_EE*, %struct._ZSt6vectorIN5vmesh14MeshParametersESaIS1_EE** %..inline.addr, align 8, !tbaa !4032, !dbg !5785
	%58 = bitcast %struct._ZSt6vectorIN5vmesh14MeshParametersESaIS1_EE*  %57 to i8**, !dbg !5785
	%59 = load i8*, i8**  %58, align 8, !tbaa !4032, !dbg !5785
	%60 = icmp eq i8*  %59,  null, !dbg !5785
	br i1  %60, label %L..inline.69260, label %L.B1280, !dbg !5785
L.B1280:
	%61 = bitcast %struct._ZSt6vectorIN5vmesh14MeshParametersESaIS1_EE*  %57 to i8**, !dbg !5785
	%62 = load i8*, i8**  %61, align 8, !tbaa !4032, !dbg !5785
	%63 = bitcast %struct._ZN5vmesh14MeshParametersE** %..inline.addr.4 to i8**, !dbg !5785
	store i8*  %62, i8**  %63, align 8, !tbaa !4032, !dbg !5785
	%64 = load %struct._ZN5vmesh14MeshParametersE*, %struct._ZN5vmesh14MeshParametersE** %..inline.addr.4, align 8, !tbaa !4032, !dbg !5785
	%65 = bitcast %struct._ZN5vmesh14MeshParametersE*  %64 to i8*, !dbg !5785
	call void  @_ZdlPv (i8*  %65) nounwind, !dbg !5785
	br label %L..inline.69260
L..inline.69260:
	ret void, !dbg !5785
}

%struct._ZN7species7SpeciesE = type <{ %struct._ZNSt7__cxx1112basic_stringIcSt11char_traitsIcESaIcEEE, double, double, double, i64, i32, i8, [3 x i8], i32, [4 x i8], double, double, double, double, double, %struct._ZSt5arrayIdLm3EE, double, double, double, double, i32, [4 x i8], double, double, double}> 
%struct._ZSt6vectorIN7species7SpeciesESaIS1_EE = type <{ %struct._ZSt12_Vector_baseIN7species7SpeciesESaIS1_EE}> 
%struct._ZNSt12_Vector_baseIN7species7SpeciesESaIS1_EE12_Vector_implE = type <{ %struct._ZNSt12_Vector_baseIN7species7SpeciesESaIS1_EE17_Vector_impl_dataE}> 
%struct._ZSt12_Vector_baseIN7species7SpeciesESaIS1_EE = type <{ %struct._ZNSt12_Vector_baseIN7species7SpeciesESaIS1_EE12_Vector_implE}> 
%struct._ZNSt12_Vector_baseIN7species7SpeciesESaIS1_EE17_Vector_impl_dataE = type <{ %struct._ZN7species7SpeciesE*, %struct._ZN7species7SpeciesE*, %struct._ZN7species7SpeciesE*}> 

define linkonce_odr i64 @_ZNKSt6vectorIN7species7SpeciesESaIS1_EE4sizeEv(%struct._ZSt6vectorIN7species7SpeciesESaIS1_EE* %_T45441624_51845.arg) #0 inlinehint !dbg !5790 {
L.entry:
	%_T45441624_51845.addr = alloca %struct._ZSt6vectorIN7species7SpeciesESaIS1_EE*, align 8
	%_T45442512_51845.addr = alloca i64, align 8

	call void @llvm.dbg.declare (metadata %struct._ZSt6vectorIN7species7SpeciesESaIS1_EE** %_T45441624_51845.addr, metadata !5794, metadata !4017), !dbg !5791
	store %struct._ZSt6vectorIN7species7SpeciesESaIS1_EE* %_T45441624_51845.arg, %struct._ZSt6vectorIN7species7SpeciesESaIS1_EE** %_T45441624_51845.addr, align 8, !tbaa !4032
	call void @llvm.dbg.declare (metadata %struct._ZSt6vectorIN7species7SpeciesESaIS1_EE** %_T45441624_51845.addr, metadata !5795, metadata !4017), !dbg !5791
	%0 = load %struct._ZSt6vectorIN7species7SpeciesESaIS1_EE*, %struct._ZSt6vectorIN7species7SpeciesESaIS1_EE** %_T45441624_51845.addr, align 8, !tbaa !4032, !dbg !5796
	%1 = bitcast %struct._ZSt6vectorIN7species7SpeciesESaIS1_EE*  %0 to i8*, !dbg !5796
	%2 = getelementptr i8, i8*  %1, i64 8, !dbg !5796
	%3 = bitcast i8*  %2 to i8**, !dbg !5796
	%4 = load i8*, i8**  %3, align 8, !tbaa !4032, !dbg !5796
	%5 = bitcast %struct._ZSt6vectorIN7species7SpeciesESaIS1_EE*  %0 to i8**, !dbg !5796
	%6 = load i8*, i8**  %5, align 8, !tbaa !4032, !dbg !5796
	%7 = ptrtoint i8*  %6 to i64, !dbg !5796
	%8 = sub i64 0,  %7, !dbg !5796
	%9 = getelementptr i8, i8*  %4, i64  %8, !dbg !5796
	%10 = ptrtoint i8*  %9 to i64, !dbg !5796
	%11 = sext i64 5675921253449092805 to i128, !dbg !5796
	%12 = sext i64  %10 to i128, !dbg !5796
	%13 = mul i128  %11,  %12, !dbg !5796
	%14 = ashr i128  %13, 64, !dbg !5796
	%15 = trunc i128  %14 to i64, !dbg !5796
	%16 = sext i32 6 to i64, !dbg !5796
	%17 = ashr i64  %15,  %16, !dbg !5796
	%18 = sub i64 0,  %7, !dbg !5796
	%19 = getelementptr i8, i8*  %4, i64  %18, !dbg !5796
	%20 = ptrtoint i8*  %19 to i64, !dbg !5796
	%21 = sext i32 63 to i64, !dbg !5796
	%22 = ashr i64  %20,  %21, !dbg !5796
	%23 = sub i64  %17,  %22, !dbg !5796
	ret i64  %23, !dbg !5796
}
define linkonce_odr %struct._ZN7species7SpeciesE* @_ZNSt6vectorIN7species7SpeciesESaIS1_EEixEm(%struct._ZSt6vectorIN7species7SpeciesESaIS1_EE* %_T45441624_51848.arg, i64 %__n.arg) #0 inlinehint !dbg !5800 {
L.entry:
	%_T45441624_51848.addr = alloca %struct._ZSt6vectorIN7species7SpeciesESaIS1_EE*, align 8
	%__n.addr = alloca i64, align 8

	call void @llvm.dbg.declare (metadata %struct._ZSt6vectorIN7species7SpeciesESaIS1_EE** %_T45441624_51848.addr, metadata !5804, metadata !4017), !dbg !5801
	store %struct._ZSt6vectorIN7species7SpeciesESaIS1_EE* %_T45441624_51848.arg, %struct._ZSt6vectorIN7species7SpeciesESaIS1_EE** %_T45441624_51848.addr, align 8, !tbaa !4032
	call void @llvm.dbg.declare (metadata %struct._ZSt6vectorIN7species7SpeciesESaIS1_EE** %_T45441624_51848.addr, metadata !5805, metadata !4017), !dbg !5801
	call void @llvm.dbg.declare (metadata i64* %__n.addr, metadata !5806, metadata !4017), !dbg !5801
	store i64 %__n.arg, i64* %__n.addr, align 8, !tbaa !4033
	call void @llvm.dbg.declare (metadata i64* %__n.addr, metadata !5807, metadata !4017), !dbg !5801
	%0 = load %struct._ZSt6vectorIN7species7SpeciesESaIS1_EE*, %struct._ZSt6vectorIN7species7SpeciesESaIS1_EE** %_T45441624_51848.addr, align 8, !tbaa !4032, !dbg !5808
	%1 = bitcast %struct._ZSt6vectorIN7species7SpeciesESaIS1_EE*  %0 to i8**, !dbg !5808
	%2 = load i8*, i8**  %1, align 8, !tbaa !4032, !dbg !5808
	%3 = load i64, i64* %__n.addr, align 8, !tbaa !4035, !dbg !5808
	%4 = mul i64  %3, 208, !dbg !5808
	%5 = getelementptr i8, i8*  %2, i64  %4, !dbg !5808
	%6 = bitcast i8*  %5 to %struct._ZN7species7SpeciesE*, !dbg !5808
	ret %struct._ZN7species7SpeciesE*  %6, !dbg !5808
}
define linkonce_odr %struct._ZSt5arrayIdLm3EE* @_ZNSt6vectorISt5arrayIdLm3EESaIS1_EEixEm(%struct._ZSt6vectorISt5arrayIdLm3EESaIS1_EE* %_T45441624_51851.arg, i64 %__n.arg) #0 inlinehint !dbg !5814 {
L.entry:
	%_T45441624_51851.addr = alloca %struct._ZSt6vectorISt5arrayIdLm3EESaIS1_EE*, align 8
	%__n.addr = alloca i64, align 8

	call void @llvm.dbg.declare (metadata %struct._ZSt6vectorISt5arrayIdLm3EESaIS1_EE** %_T45441624_51851.addr, metadata !5818, metadata !4017), !dbg !5815
	store %struct._ZSt6vectorISt5arrayIdLm3EESaIS1_EE* %_T45441624_51851.arg, %struct._ZSt6vectorISt5arrayIdLm3EESaIS1_EE** %_T45441624_51851.addr, align 8, !tbaa !4032
	call void @llvm.dbg.declare (metadata %struct._ZSt6vectorISt5arrayIdLm3EESaIS1_EE** %_T45441624_51851.addr, metadata !5819, metadata !4017), !dbg !5815
	call void @llvm.dbg.declare (metadata i64* %__n.addr, metadata !5820, metadata !4017), !dbg !5815
	store i64 %__n.arg, i64* %__n.addr, align 8, !tbaa !4033
	call void @llvm.dbg.declare (metadata i64* %__n.addr, metadata !5821, metadata !4017), !dbg !5815
	%0 = load %struct._ZSt6vectorISt5arrayIdLm3EESaIS1_EE*, %struct._ZSt6vectorISt5arrayIdLm3EESaIS1_EE** %_T45441624_51851.addr, align 8, !tbaa !4032, !dbg !5822
	%1 = bitcast %struct._ZSt6vectorISt5arrayIdLm3EESaIS1_EE*  %0 to i8**, !dbg !5822
	%2 = load i8*, i8**  %1, align 8, !tbaa !4032, !dbg !5822
	%3 = load i64, i64* %__n.addr, align 8, !tbaa !4035, !dbg !5822
	%4 = mul i64  %3, 24, !dbg !5822
	%5 = getelementptr i8, i8*  %2, i64  %4, !dbg !5822
	%6 = bitcast i8*  %5 to %struct._ZSt5arrayIdLm3EE*, !dbg !5822
	ret %struct._ZSt5arrayIdLm3EE*  %6, !dbg !5822
}
define linkonce_odr i8* @_ZNSt14pointer_traitsIPcE10pointer_toERc(i8* %__r.arg) #0 inlinehint !dbg !5829 {
L.entry:
	%__r.addr = alloca i8*, align 8

	call void @llvm.dbg.declare (metadata i8** %__r.addr, metadata !5841, metadata !4017), !dbg !5830
	store i8* %__r.arg, i8** %__r.addr, align 8, !tbaa !4032
	call void @llvm.dbg.declare (metadata i8** %__r.addr, metadata !5842, metadata !4017), !dbg !5830
	%0 = load i8*, i8** %__r.addr, align 8, !tbaa !4032, !dbg !5843
	ret i8*  %0, !dbg !5843
}
define linkonce_odr i8* @_ZNSt14pointer_traitsIPKcE10pointer_toERS0_(i8* %__r.arg) #0 inlinehint !dbg !5845 {
L.entry:
	%__r.addr = alloca i8*, align 8

	call void @llvm.dbg.declare (metadata i8** %__r.addr, metadata !5857, metadata !4017), !dbg !5846
	store i8* %__r.arg, i8** %__r.addr, align 8, !tbaa !4032
	call void @llvm.dbg.declare (metadata i8** %__r.addr, metadata !5858, metadata !4017), !dbg !5846
	%0 = load i8*, i8** %__r.addr, align 8, !tbaa !4032, !dbg !5859
	ret i8*  %0, !dbg !5859
}
define linkonce_odr void @_ZNSt12_Destroy_auxILb0EE9__destroyIPN5vmesh14MeshParametersEEEvT_S5_(%struct._ZN5vmesh14MeshParametersE* %__first.arg, %struct._ZN5vmesh14MeshParametersE* %__last.arg) #0 inlinehint !dbg !5863 {
L.entry:
	%__first.addr = alloca %struct._ZN5vmesh14MeshParametersE*, align 8
	%__last.addr = alloca %struct._ZN5vmesh14MeshParametersE*, align 8
	%.lcr4476801.addr = alloca i8*, align 8
	%..inline.addr = alloca %struct._ZN5vmesh14MeshParametersE*, align 8

	call void @llvm.dbg.declare (metadata %struct._ZN5vmesh14MeshParametersE** %__first.addr, metadata !5875, metadata !4017), !dbg !5864
	store %struct._ZN5vmesh14MeshParametersE* %__first.arg, %struct._ZN5vmesh14MeshParametersE** %__first.addr, align 8, !tbaa !4032
	call void @llvm.dbg.declare (metadata %struct._ZN5vmesh14MeshParametersE** %__first.addr, metadata !5876, metadata !4017), !dbg !5864
	call void @llvm.dbg.declare (metadata %struct._ZN5vmesh14MeshParametersE** %__last.addr, metadata !5877, metadata !4017), !dbg !5864
	store %struct._ZN5vmesh14MeshParametersE* %__last.arg, %struct._ZN5vmesh14MeshParametersE** %__last.addr, align 8, !tbaa !4032
	call void @llvm.dbg.declare (metadata %struct._ZN5vmesh14MeshParametersE** %__last.addr, metadata !5878, metadata !4017), !dbg !5864
	%0 = load %struct._ZN5vmesh14MeshParametersE*, %struct._ZN5vmesh14MeshParametersE** %__first.addr, align 8, !tbaa !4032, !dbg !5879
	%1 = bitcast %struct._ZN5vmesh14MeshParametersE*  %0 to i8*, !dbg !5879
	%2 = load %struct._ZN5vmesh14MeshParametersE*, %struct._ZN5vmesh14MeshParametersE** %__last.addr, align 8, !tbaa !4032, !dbg !5879
	%3 = bitcast %struct._ZN5vmesh14MeshParametersE*  %2 to i8*, !dbg !5879
	%4 = icmp eq i8*  %1,  %3, !dbg !5879
	br i1  %4, label %L.B0020, label %L.B1289, !dbg !5879
L.B1289:
	%5 = bitcast %struct._ZN5vmesh14MeshParametersE*  %0 to i8*, !dbg !5879
	%6 = bitcast %struct._ZN5vmesh14MeshParametersE*  %2 to i8*, !dbg !5879
	%7 = ptrtoint i8*  %5 to i64, !dbg !5879
	%8 = sub i64 0,  %7, !dbg !5879
	%9 = getelementptr i8, i8*  %6, i64  %8, !dbg !5879
	%10 = ptrtoint i8*  %9 to i64, !dbg !5879
	%11 = add i64  %10, 335, !dbg !5879
	%12 = sub i64 0,  %7, !dbg !5879
	%13 = getelementptr i8, i8*  %6, i64  %12, !dbg !5879
	%14 = ptrtoint i8*  %13 to i64, !dbg !5879
	%15 = add i64  %14, 335, !dbg !5879
	%16 = sext i64 -4392081922311798003 to i128, !dbg !5879
	%17 = sext i64  %15 to i128, !dbg !5879
	%18 = mul i128  %16,  %17, !dbg !5879
	%19 = ashr i128  %18, 64, !dbg !5879
	%20 = trunc i128  %19 to i64, !dbg !5879
	%21 = add i64  %11,  %20, !dbg !5879
	%22 = sext i32 8 to i64, !dbg !5879
	%23 = ashr i64  %21,  %22, !dbg !5879
	%24 = sub i64 0,  %7, !dbg !5879
	%25 = getelementptr i8, i8*  %6, i64  %24, !dbg !5879
	%26 = ptrtoint i8*  %25 to i64, !dbg !5879
	%27 = add i64  %26, 335, !dbg !5879
	%28 = sext i32 63 to i64, !dbg !5879
	%29 = ashr i64  %27,  %28, !dbg !5879
	%30 = sub i64  %23,  %29, !dbg !5879
	%31 = mul i64  %30, 336, !dbg !5879
	%32 = getelementptr i8, i8*  %5, i64  %31, !dbg !5879
	store i8*  %32, i8** %.lcr4476801.addr, align 8, !tbaa !4032, !dbg !5879
	br label %L.B0019
L.B0019:
	%33 = load %struct._ZN5vmesh14MeshParametersE*, %struct._ZN5vmesh14MeshParametersE** %__first.addr, align 8, !tbaa !4032, !dbg !5880
	%34 = bitcast %struct._ZN5vmesh14MeshParametersE*  %33 to i8*, !dbg !5880
	%35 = bitcast %struct._ZN5vmesh14MeshParametersE** %..inline.addr to i8**, !dbg !5880
	store i8*  %34, i8**  %35, align 8, !tbaa !4032, !dbg !5880
	%36 = load %struct._ZN5vmesh14MeshParametersE*, %struct._ZN5vmesh14MeshParametersE** %..inline.addr, align 8, !tbaa !4032, !dbg !5881
	call void  @_ZN5vmesh14MeshParametersD1Ev (%struct._ZN5vmesh14MeshParametersE*  %36) nounwind, !dbg !5881
	%37 = load %struct._ZN5vmesh14MeshParametersE*, %struct._ZN5vmesh14MeshParametersE** %__first.addr, align 8, !tbaa !4032, !dbg !5882
	%38 = bitcast %struct._ZN5vmesh14MeshParametersE*  %37 to i8*, !dbg !5882
	%39 = getelementptr i8, i8*  %38, i64 336, !dbg !5882
	%40 = bitcast %struct._ZN5vmesh14MeshParametersE** %__first.addr to i8**, !dbg !5882
	store i8*  %39, i8**  %40, align 8, !tbaa !4032, !dbg !5882
	%41 = load %struct._ZN5vmesh14MeshParametersE*, %struct._ZN5vmesh14MeshParametersE** %__first.addr, align 8, !tbaa !4032, !dbg !5882
	%42 = bitcast %struct._ZN5vmesh14MeshParametersE*  %41 to i8*, !dbg !5882
	%43 = load i8*, i8** %.lcr4476801.addr, align 8, !tbaa !4032, !dbg !5882
	%44 = icmp ult i8*  %42,  %43, !dbg !5882
	br i1  %44, label %L.B0019, label %L.B0020, !dbg !5882
L.B0020:
	ret void, !dbg !5883
}
define linkonce_odr void @_ZNSt7__cxx1112basic_stringIcSt11char_traitsIcESaIcEE7_M_dataEPc(%struct._ZNSt7__cxx1112basic_stringIcSt11char_traitsIcESaIcEEE* %_T45441624_51862.arg, i8* %__p.arg) #0 inlinehint !dbg !5890 {
L.entry:
	%_T45441624_51862.addr = alloca %struct._ZNSt7__cxx1112basic_stringIcSt11char_traitsIcESaIcEEE*, align 8
	%__p.addr = alloca i8*, align 8

	call void @llvm.dbg.declare (metadata %struct._ZNSt7__cxx1112basic_stringIcSt11char_traitsIcESaIcEEE** %_T45441624_51862.addr, metadata !5894, metadata !4017), !dbg !5891
	store %struct._ZNSt7__cxx1112basic_stringIcSt11char_traitsIcESaIcEEE* %_T45441624_51862.arg, %struct._ZNSt7__cxx1112basic_stringIcSt11char_traitsIcESaIcEEE** %_T45441624_51862.addr, align 8, !tbaa !4032
	call void @llvm.dbg.declare (metadata %struct._ZNSt7__cxx1112basic_stringIcSt11char_traitsIcESaIcEEE** %_T45441624_51862.addr, metadata !5895, metadata !4017), !dbg !5891
	call void @llvm.dbg.declare (metadata i8** %__p.addr, metadata !5896, metadata !4017), !dbg !5891
	store i8* %__p.arg, i8** %__p.addr, align 8, !tbaa !4032
	call void @llvm.dbg.declare (metadata i8** %__p.addr, metadata !5897, metadata !4017), !dbg !5891
	%0 = load i8*, i8** %__p.addr, align 8, !tbaa !4032, !dbg !5898
	%1 = load %struct._ZNSt7__cxx1112basic_stringIcSt11char_traitsIcESaIcEEE*, %struct._ZNSt7__cxx1112basic_stringIcSt11char_traitsIcESaIcEEE** %_T45441624_51862.addr, align 8, !tbaa !4032, !dbg !5898
	%2 = bitcast %struct._ZNSt7__cxx1112basic_stringIcSt11char_traitsIcESaIcEEE*  %1 to i8**, !dbg !5898
	store i8*  %0, i8**  %2, align 8, !tbaa !4032, !dbg !5898
	ret void, !dbg !5898
}
define linkonce_odr void @_ZNSt7__cxx1112basic_stringIcSt11char_traitsIcESaIcEE9_M_lengthEm(%struct._ZNSt7__cxx1112basic_stringIcSt11char_traitsIcESaIcEEE* %_T45441624_51864.arg, i64 %__length.arg) #0 inlinehint !dbg !5902 {
L.entry:
	%_T45441624_51864.addr = alloca %struct._ZNSt7__cxx1112basic_stringIcSt11char_traitsIcESaIcEEE*, align 8
	%__length.addr = alloca i64, align 8

	call void @llvm.dbg.declare (metadata %struct._ZNSt7__cxx1112basic_stringIcSt11char_traitsIcESaIcEEE** %_T45441624_51864.addr, metadata !5906, metadata !4017), !dbg !5903
	store %struct._ZNSt7__cxx1112basic_stringIcSt11char_traitsIcESaIcEEE* %_T45441624_51864.arg, %struct._ZNSt7__cxx1112basic_stringIcSt11char_traitsIcESaIcEEE** %_T45441624_51864.addr, align 8, !tbaa !4032
	call void @llvm.dbg.declare (metadata %struct._ZNSt7__cxx1112basic_stringIcSt11char_traitsIcESaIcEEE** %_T45441624_51864.addr, metadata !5907, metadata !4017), !dbg !5903
	call void @llvm.dbg.declare (metadata i64* %__length.addr, metadata !5908, metadata !4017), !dbg !5903
	store i64 %__length.arg, i64* %__length.addr, align 8, !tbaa !4033
	call void @llvm.dbg.declare (metadata i64* %__length.addr, metadata !5909, metadata !4017), !dbg !5903
	%0 = load i64, i64* %__length.addr, align 8, !tbaa !4035, !dbg !5910
	%1 = load %struct._ZNSt7__cxx1112basic_stringIcSt11char_traitsIcESaIcEEE*, %struct._ZNSt7__cxx1112basic_stringIcSt11char_traitsIcESaIcEEE** %_T45441624_51864.addr, align 8, !tbaa !4032, !dbg !5910
	%2 = bitcast %struct._ZNSt7__cxx1112basic_stringIcSt11char_traitsIcESaIcEEE*  %1 to i8*, !dbg !5910
	%3 = getelementptr i8, i8*  %2, i64 8, !dbg !5910
	%4 = bitcast i8*  %3 to i64*, !dbg !5910
	store i64  %0, i64*  %4, align 8, !tbaa !4033, !dbg !5910
	ret void, !dbg !5910
}
define linkonce_odr i8* @_ZNKSt7__cxx1112basic_stringIcSt11char_traitsIcESaIcEE7_M_dataEv(%struct._ZNSt7__cxx1112basic_stringIcSt11char_traitsIcESaIcEEE* %_T45441624_51866.arg) #0 inlinehint !dbg !5914 {
L.entry:
	%_T45441624_51866.addr = alloca %struct._ZNSt7__cxx1112basic_stringIcSt11char_traitsIcESaIcEEE*, align 8

	call void @llvm.dbg.declare (metadata %struct._ZNSt7__cxx1112basic_stringIcSt11char_traitsIcESaIcEEE** %_T45441624_51866.addr, metadata !5918, metadata !4017), !dbg !5915
	store %struct._ZNSt7__cxx1112basic_stringIcSt11char_traitsIcESaIcEEE* %_T45441624_51866.arg, %struct._ZNSt7__cxx1112basic_stringIcSt11char_traitsIcESaIcEEE** %_T45441624_51866.addr, align 8, !tbaa !4032
	call void @llvm.dbg.declare (metadata %struct._ZNSt7__cxx1112basic_stringIcSt11char_traitsIcESaIcEEE** %_T45441624_51866.addr, metadata !5919, metadata !4017), !dbg !5915
	%0 = load %struct._ZNSt7__cxx1112basic_stringIcSt11char_traitsIcESaIcEEE*, %struct._ZNSt7__cxx1112basic_stringIcSt11char_traitsIcESaIcEEE** %_T45441624_51866.addr, align 8, !tbaa !4032, !dbg !5920
	%1 = bitcast %struct._ZNSt7__cxx1112basic_stringIcSt11char_traitsIcESaIcEEE*  %0 to i8**, !dbg !5920
	%2 = load i8*, i8**  %1, align 8, !tbaa !4032, !dbg !5920
	ret i8*  %2, !dbg !5920
}
define linkonce_odr i8* @_ZNSt7__cxx1112basic_stringIcSt11char_traitsIcESaIcEE13_M_local_dataEv(%struct._ZNSt7__cxx1112basic_stringIcSt11char_traitsIcESaIcEEE* %_T45441624_51868.arg) #0 inlinehint !dbg !5922 {
L.entry:
	%_T45441624_51868.addr = alloca %struct._ZNSt7__cxx1112basic_stringIcSt11char_traitsIcESaIcEEE*, align 8

	call void @llvm.dbg.declare (metadata %struct._ZNSt7__cxx1112basic_stringIcSt11char_traitsIcESaIcEEE** %_T45441624_51868.addr, metadata !5938, metadata !4017), !dbg !5923
	store %struct._ZNSt7__cxx1112basic_stringIcSt11char_traitsIcESaIcEEE* %_T45441624_51868.arg, %struct._ZNSt7__cxx1112basic_stringIcSt11char_traitsIcESaIcEEE** %_T45441624_51868.addr, align 8, !tbaa !4032
	call void @llvm.dbg.declare (metadata %struct._ZNSt7__cxx1112basic_stringIcSt11char_traitsIcESaIcEEE** %_T45441624_51868.addr, metadata !5939, metadata !4017), !dbg !5923
	%0 = load %struct._ZNSt7__cxx1112basic_stringIcSt11char_traitsIcESaIcEEE*, %struct._ZNSt7__cxx1112basic_stringIcSt11char_traitsIcESaIcEEE** %_T45441624_51868.addr, align 8, !tbaa !4032, !dbg !5940
	%1 = bitcast %struct._ZNSt7__cxx1112basic_stringIcSt11char_traitsIcESaIcEEE*  %0 to i8*, !dbg !5940
	%2 = getelementptr i8, i8*  %1, i64 16, !dbg !5940
	ret i8*  %2, !dbg !5940
}
define linkonce_odr i8* @_ZNKSt7__cxx1112basic_stringIcSt11char_traitsIcESaIcEE13_M_local_dataEv(%struct._ZNSt7__cxx1112basic_stringIcSt11char_traitsIcESaIcEEE* %_T45441624_51870.arg) #0 inlinehint !dbg !5943 {
L.entry:
	%_T45441624_51870.addr = alloca %struct._ZNSt7__cxx1112basic_stringIcSt11char_traitsIcESaIcEEE*, align 8

	call void @llvm.dbg.declare (metadata %struct._ZNSt7__cxx1112basic_stringIcSt11char_traitsIcESaIcEEE** %_T45441624_51870.addr, metadata !5959, metadata !4017), !dbg !5944
	store %struct._ZNSt7__cxx1112basic_stringIcSt11char_traitsIcESaIcEEE* %_T45441624_51870.arg, %struct._ZNSt7__cxx1112basic_stringIcSt11char_traitsIcESaIcEEE** %_T45441624_51870.addr, align 8, !tbaa !4032
	call void @llvm.dbg.declare (metadata %struct._ZNSt7__cxx1112basic_stringIcSt11char_traitsIcESaIcEEE** %_T45441624_51870.addr, metadata !5960, metadata !4017), !dbg !5944
	%0 = load %struct._ZNSt7__cxx1112basic_stringIcSt11char_traitsIcESaIcEEE*, %struct._ZNSt7__cxx1112basic_stringIcSt11char_traitsIcESaIcEEE** %_T45441624_51870.addr, align 8, !tbaa !4032, !dbg !5961
	%1 = bitcast %struct._ZNSt7__cxx1112basic_stringIcSt11char_traitsIcESaIcEEE*  %0 to i8*, !dbg !5961
	%2 = getelementptr i8, i8*  %1, i64 16, !dbg !5961
	ret i8*  %2, !dbg !5961
}
define linkonce_odr void @_ZNSt7__cxx1112basic_stringIcSt11char_traitsIcESaIcEE11_M_capacityEm(%struct._ZNSt7__cxx1112basic_stringIcSt11char_traitsIcESaIcEEE* %_T45441624_51872.arg, i64 %__capacity.arg) #0 inlinehint !dbg !5964 {
L.entry:
	%_T45441624_51872.addr = alloca %struct._ZNSt7__cxx1112basic_stringIcSt11char_traitsIcESaIcEEE*, align 8
	%__capacity.addr = alloca i64, align 8

	call void @llvm.dbg.declare (metadata %struct._ZNSt7__cxx1112basic_stringIcSt11char_traitsIcESaIcEEE** %_T45441624_51872.addr, metadata !5968, metadata !4017), !dbg !5965
	store %struct._ZNSt7__cxx1112basic_stringIcSt11char_traitsIcESaIcEEE* %_T45441624_51872.arg, %struct._ZNSt7__cxx1112basic_stringIcSt11char_traitsIcESaIcEEE** %_T45441624_51872.addr, align 8, !tbaa !4032
	call void @llvm.dbg.declare (metadata %struct._ZNSt7__cxx1112basic_stringIcSt11char_traitsIcESaIcEEE** %_T45441624_51872.addr, metadata !5969, metadata !4017), !dbg !5965
	call void @llvm.dbg.declare (metadata i64* %__capacity.addr, metadata !5970, metadata !4017), !dbg !5965
	store i64 %__capacity.arg, i64* %__capacity.addr, align 8, !tbaa !4033
	call void @llvm.dbg.declare (metadata i64* %__capacity.addr, metadata !5971, metadata !4017), !dbg !5965
	%0 = load i64, i64* %__capacity.addr, align 8, !tbaa !4035, !dbg !5972
	%1 = load %struct._ZNSt7__cxx1112basic_stringIcSt11char_traitsIcESaIcEEE*, %struct._ZNSt7__cxx1112basic_stringIcSt11char_traitsIcESaIcEEE** %_T45441624_51872.addr, align 8, !tbaa !4032, !dbg !5972
	%2 = bitcast %struct._ZNSt7__cxx1112basic_stringIcSt11char_traitsIcESaIcEEE*  %1 to i8*, !dbg !5972
	%3 = getelementptr i8, i8*  %2, i64 16, !dbg !5972
	%4 = bitcast i8*  %3 to i64*, !dbg !5972
	store i64  %0, i64*  %4, align 8, !tbaa !4033, !dbg !5972
	ret void, !dbg !5972
}
define linkonce_odr void @_ZNSt7__cxx1112basic_stringIcSt11char_traitsIcESaIcEE13_M_set_lengthEm(%struct._ZNSt7__cxx1112basic_stringIcSt11char_traitsIcESaIcEEE* %_T45441624_51874.arg, i64 %__n.arg) #0 inlinehint !dbg !5974 {
L.entry:
	%_T45441624_51874.addr = alloca %struct._ZNSt7__cxx1112basic_stringIcSt11char_traitsIcESaIcEEE*, align 8
	%__n.addr = alloca i64, align 8
	%..inline.addr = alloca i8*, align 8

	call void @llvm.dbg.declare (metadata %struct._ZNSt7__cxx1112basic_stringIcSt11char_traitsIcESaIcEEE** %_T45441624_51874.addr, metadata !5990, metadata !4017), !dbg !5975
	store %struct._ZNSt7__cxx1112basic_stringIcSt11char_traitsIcESaIcEEE* %_T45441624_51874.arg, %struct._ZNSt7__cxx1112basic_stringIcSt11char_traitsIcESaIcEEE** %_T45441624_51874.addr, align 8, !tbaa !4032
	call void @llvm.dbg.declare (metadata %struct._ZNSt7__cxx1112basic_stringIcSt11char_traitsIcESaIcEEE** %_T45441624_51874.addr, metadata !5991, metadata !4017), !dbg !5975
	call void @llvm.dbg.declare (metadata i64* %__n.addr, metadata !5992, metadata !4017), !dbg !5975
	store i64 %__n.arg, i64* %__n.addr, align 8, !tbaa !4033
	call void @llvm.dbg.declare (metadata i64* %__n.addr, metadata !5993, metadata !4017), !dbg !5975
	%0 = load i64, i64* %__n.addr, align 8, !tbaa !4035, !dbg !5994
	%1 = load %struct._ZNSt7__cxx1112basic_stringIcSt11char_traitsIcESaIcEEE*, %struct._ZNSt7__cxx1112basic_stringIcSt11char_traitsIcESaIcEEE** %_T45441624_51874.addr, align 8, !tbaa !4032, !dbg !5994
	%2 = bitcast %struct._ZNSt7__cxx1112basic_stringIcSt11char_traitsIcESaIcEEE*  %1 to i8*, !dbg !5994
	%3 = getelementptr i8, i8*  %2, i64 8, !dbg !5994
	%4 = bitcast i8*  %3 to i64*, !dbg !5994
	store i64  %0, i64*  %4, align 8, !tbaa !4033, !dbg !5994
	%5 = bitcast %struct._ZNSt7__cxx1112basic_stringIcSt11char_traitsIcESaIcEEE*  %1 to i8**, !dbg !5995
	%6 = load i8*, i8**  %5, align 8, !tbaa !4032, !dbg !5995
	%7 = getelementptr i8, i8*  %6, i64  %0, !dbg !5995
	store i8 0, i8*  %7, align 1, !tbaa !4033, !dbg !5996
	ret void, !dbg !5997
}
define linkonce_odr signext i8 @_ZNKSt7__cxx1112basic_stringIcSt11char_traitsIcESaIcEE11_M_is_localEv(%struct._ZNSt7__cxx1112basic_stringIcSt11char_traitsIcESaIcEEE* %_T45441624_51875.arg) #0 inlinehint !dbg !6001 {
L.entry:
	%_T45441624_51875.addr = alloca %struct._ZNSt7__cxx1112basic_stringIcSt11char_traitsIcESaIcEEE*, align 8

	call void @llvm.dbg.declare (metadata %struct._ZNSt7__cxx1112basic_stringIcSt11char_traitsIcESaIcEEE** %_T45441624_51875.addr, metadata !6025, metadata !4017), !dbg !6002
	store %struct._ZNSt7__cxx1112basic_stringIcSt11char_traitsIcESaIcEEE* %_T45441624_51875.arg, %struct._ZNSt7__cxx1112basic_stringIcSt11char_traitsIcESaIcEEE** %_T45441624_51875.addr, align 8, !tbaa !4032
	call void @llvm.dbg.declare (metadata %struct._ZNSt7__cxx1112basic_stringIcSt11char_traitsIcESaIcEEE** %_T45441624_51875.addr, metadata !6026, metadata !4017), !dbg !6002
	%0 = load %struct._ZNSt7__cxx1112basic_stringIcSt11char_traitsIcESaIcEEE*, %struct._ZNSt7__cxx1112basic_stringIcSt11char_traitsIcESaIcEEE** %_T45441624_51875.addr, align 8, !tbaa !4032, !dbg !6027
	%1 = bitcast %struct._ZNSt7__cxx1112basic_stringIcSt11char_traitsIcESaIcEEE*  %0 to i8**, !dbg !6027
	%2 = load i8*, i8**  %1, align 8, !tbaa !4032, !dbg !6027
	%3 = bitcast %struct._ZNSt7__cxx1112basic_stringIcSt11char_traitsIcESaIcEEE*  %0 to i8*, !dbg !6027
	%4 = getelementptr i8, i8*  %3, i64 16, !dbg !6027
	%5 = icmp eq i8*  %2,  %4, !dbg !6027
	%6 = zext i1  %5 to i32, !dbg !6027
	%7 = trunc i32  %6 to i8, !dbg !6027
	ret i8  %7, !dbg !6027
}
define linkonce_odr void @_ZNSt7__cxx1112basic_stringIcSt11char_traitsIcESaIcEE10_M_disposeEv(%struct._ZNSt7__cxx1112basic_stringIcSt11char_traitsIcESaIcEEE* %_T45441624_51880.arg) #0 inlinehint !dbg !6032 {
L.entry:
	%_T45441624_51880.addr = alloca %struct._ZNSt7__cxx1112basic_stringIcSt11char_traitsIcESaIcEEE*, align 8
	%..inline.addr = alloca i8*, align 8

	call void @llvm.dbg.declare (metadata %struct._ZNSt7__cxx1112basic_stringIcSt11char_traitsIcESaIcEEE** %_T45441624_51880.addr, metadata !6080, metadata !4017), !dbg !6033
	store %struct._ZNSt7__cxx1112basic_stringIcSt11char_traitsIcESaIcEEE* %_T45441624_51880.arg, %struct._ZNSt7__cxx1112basic_stringIcSt11char_traitsIcESaIcEEE** %_T45441624_51880.addr, align 8, !tbaa !4032
	call void @llvm.dbg.declare (metadata %struct._ZNSt7__cxx1112basic_stringIcSt11char_traitsIcESaIcEEE** %_T45441624_51880.addr, metadata !6081, metadata !4017), !dbg !6033
	%0 = load %struct._ZNSt7__cxx1112basic_stringIcSt11char_traitsIcESaIcEEE*, %struct._ZNSt7__cxx1112basic_stringIcSt11char_traitsIcESaIcEEE** %_T45441624_51880.addr, align 8, !tbaa !4032, !dbg !6082
	%1 = bitcast %struct._ZNSt7__cxx1112basic_stringIcSt11char_traitsIcESaIcEEE*  %0 to i8**, !dbg !6082
	%2 = load i8*, i8**  %1, align 8, !tbaa !4032, !dbg !6082
	%3 = bitcast %struct._ZNSt7__cxx1112basic_stringIcSt11char_traitsIcESaIcEEE*  %0 to i8*, !dbg !6082
	%4 = getelementptr i8, i8*  %3, i64 16, !dbg !6082
	%5 = icmp eq i8*  %2,  %4, !dbg !6082
	br i1  %5, label %L.B0021, label %L.B1308, !dbg !6082
L.B1308:
	%6 = bitcast %struct._ZNSt7__cxx1112basic_stringIcSt11char_traitsIcESaIcEEE*  %0 to i8**, !dbg !6083
	%7 = load i8*, i8**  %6, align 8, !tbaa !4032, !dbg !6083
	call void  @_ZdlPv (i8*  %7) nounwind, !dbg !6083
	br label %L.B0021
L.B0021:
	ret void, !dbg !6084
}
define linkonce_odr void @_ZNSt7__cxx1112basic_stringIcSt11char_traitsIcESaIcEE10_M_destroyEm(%struct._ZNSt7__cxx1112basic_stringIcSt11char_traitsIcESaIcEEE* %_T45441624_51882.arg, i64 %__size.arg) #0 inlinehint !dbg !6086 {
L.entry:
	%_T45441624_51882.addr = alloca %struct._ZNSt7__cxx1112basic_stringIcSt11char_traitsIcESaIcEEE*, align 8
	%__size.addr = alloca i64, align 8
	%..inline.addr = alloca i8*, align 8

	call void @llvm.dbg.declare (metadata %struct._ZNSt7__cxx1112basic_stringIcSt11char_traitsIcESaIcEEE** %_T45441624_51882.addr, metadata !6106, metadata !4017), !dbg !6087
	store %struct._ZNSt7__cxx1112basic_stringIcSt11char_traitsIcESaIcEEE* %_T45441624_51882.arg, %struct._ZNSt7__cxx1112basic_stringIcSt11char_traitsIcESaIcEEE** %_T45441624_51882.addr, align 8, !tbaa !4032
	call void @llvm.dbg.declare (metadata %struct._ZNSt7__cxx1112basic_stringIcSt11char_traitsIcESaIcEEE** %_T45441624_51882.addr, metadata !6107, metadata !4017), !dbg !6087
	call void @llvm.dbg.declare (metadata i64* %__size.addr, metadata !6108, metadata !4017), !dbg !6087
	store i64 %__size.arg, i64* %__size.addr, align 8, !tbaa !4033
	call void @llvm.dbg.declare (metadata i64* %__size.addr, metadata !6109, metadata !4017), !dbg !6087
	%0 = load %struct._ZNSt7__cxx1112basic_stringIcSt11char_traitsIcESaIcEEE*, %struct._ZNSt7__cxx1112basic_stringIcSt11char_traitsIcESaIcEEE** %_T45441624_51882.addr, align 8, !tbaa !4032, !dbg !6110
	%1 = bitcast %struct._ZNSt7__cxx1112basic_stringIcSt11char_traitsIcESaIcEEE*  %0 to i8**, !dbg !6110
	%2 = load i8*, i8**  %1, align 8, !tbaa !4032, !dbg !6110
	call void  @_ZdlPv (i8*  %2) nounwind, !dbg !6110
	ret void, !dbg !6111
}
define linkonce_odr %struct._ZSaIcE* @_ZNSt7__cxx1112basic_stringIcSt11char_traitsIcESaIcEE16_M_get_allocatorEv(%struct._ZNSt7__cxx1112basic_stringIcSt11char_traitsIcESaIcEEE* %_T45441624_51884.arg) #0 inlinehint !dbg !6116 {
L.entry:
	%_T45441624_51884.addr = alloca %struct._ZNSt7__cxx1112basic_stringIcSt11char_traitsIcESaIcEEE*, align 8

	call void @llvm.dbg.declare (metadata %struct._ZNSt7__cxx1112basic_stringIcSt11char_traitsIcESaIcEEE** %_T45441624_51884.addr, metadata !6120, metadata !4017), !dbg !6117
	store %struct._ZNSt7__cxx1112basic_stringIcSt11char_traitsIcESaIcEEE* %_T45441624_51884.arg, %struct._ZNSt7__cxx1112basic_stringIcSt11char_traitsIcESaIcEEE** %_T45441624_51884.addr, align 8, !tbaa !4032
	call void @llvm.dbg.declare (metadata %struct._ZNSt7__cxx1112basic_stringIcSt11char_traitsIcESaIcEEE** %_T45441624_51884.addr, metadata !6121, metadata !4017), !dbg !6117
	%0 = load %struct._ZNSt7__cxx1112basic_stringIcSt11char_traitsIcESaIcEEE*, %struct._ZNSt7__cxx1112basic_stringIcSt11char_traitsIcESaIcEEE** %_T45441624_51884.addr, align 8, !tbaa !4032, !dbg !6122
	%1 = bitcast %struct._ZNSt7__cxx1112basic_stringIcSt11char_traitsIcESaIcEEE*  %0 to %struct._ZSaIcE*, !dbg !6122
	ret %struct._ZSaIcE*  %1, !dbg !6122
}
define linkonce_odr void @_ZNSt7__cxx1112basic_stringIcSt11char_traitsIcESaIcEE7_S_copyEPcPKcm(i8* %__d.arg, i8* %__s.arg, i64 %__n.arg) #0 inlinehint !dbg !6126 {
L.entry:
	%__d.addr = alloca i8*, align 8
	%__s.addr = alloca i8*, align 8
	%__n.addr = alloca i64, align 8
	%..inline.addr = alloca i8*, align 8
	%..inline.addr.1 = alloca i8*, align 8
	%..inline.addr.2 = alloca i64, align 8
	%..inline.addr.3 = alloca i8*, align 8

	call void @llvm.dbg.declare (metadata i8** %__d.addr, metadata !6138, metadata !4017), !dbg !6127
	store i8* %__d.arg, i8** %__d.addr, align 8, !tbaa !4032
	call void @llvm.dbg.declare (metadata i8** %__d.addr, metadata !6139, metadata !4017), !dbg !6127
	call void @llvm.dbg.declare (metadata i8** %__s.addr, metadata !6140, metadata !4017), !dbg !6127
	store i8* %__s.arg, i8** %__s.addr, align 8, !tbaa !4032
	call void @llvm.dbg.declare (metadata i8** %__s.addr, metadata !6141, metadata !4017), !dbg !6127
	call void @llvm.dbg.declare (metadata i64* %__n.addr, metadata !6142, metadata !4017), !dbg !6127
	store i64 %__n.arg, i64* %__n.addr, align 8, !tbaa !4033
	call void @llvm.dbg.declare (metadata i64* %__n.addr, metadata !6143, metadata !4017), !dbg !6127
	%0 = load i64, i64* %__n.addr, align 8, !tbaa !4035, !dbg !6144
	%1 = icmp ne i64  %0, 1, !dbg !6144
	br i1  %1, label %L.B0022, label %L.B1319, !dbg !6144
L.B1319:
	%2 = load i8*, i8** %__s.addr, align 8, !tbaa !4032, !dbg !6145
	%3 = load i8, i8*  %2, align 1, !tbaa !4033, !dbg !6145
	%4 = load i8*, i8** %__d.addr, align 8, !tbaa !4032, !dbg !6145
	store i8  %3, i8*  %4, align 1, !tbaa !4033, !dbg !6145
	br label %L.B0023, !dbg !6145
L.B0022:
	%5 = load i8*, i8** %__d.addr, align 8, !tbaa !4032, !dbg !6146
	store i8*  %5, i8** %..inline.addr, align 8, !tbaa !4032, !dbg !6146
	%6 = load i8*, i8** %__s.addr, align 8, !tbaa !4032, !dbg !6146
	store i8*  %6, i8** %..inline.addr.1, align 8, !tbaa !4032, !dbg !6146
	%7 = load i64, i64* %__n.addr, align 8, !tbaa !4035, !dbg !6146
	store i64  %7, i64* %..inline.addr.2, align 8, !tbaa !4035, !dbg !6146
	%8 = icmp ne i64  %7, 0, !dbg !6146
	br i1  %8, label %L..inline.69707, label %L.B1320, !dbg !6146
L.B1320:
	br label %L..inline.69712, !dbg !6147
L..inline.69707:
	%9 = load i8*, i8** %..inline.addr, align 8, !tbaa !4032, !dbg !6148
	%10 = load i8*, i8** %..inline.addr.1, align 8, !tbaa !4032, !dbg !6148
	%11 = load i64, i64* %..inline.addr.2, align 8, !tbaa !4035, !dbg !6148
	%12 = call i8*  @memcpy (i8*  %9, i8*  %10, i64  %11) nounwind, !dbg !6148
	store i8*  %12, i8** %..inline.addr.3, align 8, !tbaa !4032, !dbg !6148
	br label %L..inline.69712
L..inline.69712:
	br label %L.B0023
L.B0023:
	ret void, !dbg !6149
}
define linkonce_odr void @_ZNSt7__cxx1112basic_stringIcSt11char_traitsIcESaIcEE13_S_copy_charsEPcPKcS7_(i8* %__p.arg, i8* %__k1.arg, i8* %__k2.arg) #0 inlinehint !dbg !6153 {
L.entry:
	%__p.addr = alloca i8*, align 8
	%__k1.addr = alloca i8*, align 8
	%__k2.addr = alloca i8*, align 8
	%..inline.addr = alloca i64, align 8
	%..inline.addr.1 = alloca i8*, align 8
	%..inline.addr.2 = alloca i8*, align 8
	%..inline.addr.3 = alloca i64, align 8
	%..inline.addr.4 = alloca i8*, align 8

	call void @llvm.dbg.declare (metadata i8** %__p.addr, metadata !6169, metadata !4017), !dbg !6154
	store i8* %__p.arg, i8** %__p.addr, align 8, !tbaa !4032
	call void @llvm.dbg.declare (metadata i8** %__p.addr, metadata !6170, metadata !4017), !dbg !6154
	call void @llvm.dbg.declare (metadata i8** %__k1.addr, metadata !6171, metadata !4017), !dbg !6154
	store i8* %__k1.arg, i8** %__k1.addr, align 8, !tbaa !4032
	call void @llvm.dbg.declare (metadata i8** %__k1.addr, metadata !6172, metadata !4017), !dbg !6154
	call void @llvm.dbg.declare (metadata i8** %__k2.addr, metadata !6173, metadata !4017), !dbg !6154
	store i8* %__k2.arg, i8** %__k2.addr, align 8, !tbaa !4032
	call void @llvm.dbg.declare (metadata i8** %__k2.addr, metadata !6174, metadata !4017), !dbg !6154
	%0 = load i8*, i8** %__k2.addr, align 8, !tbaa !4032, !dbg !6175
	%1 = load i8*, i8** %__k1.addr, align 8, !tbaa !4032, !dbg !6175
	%2 = ptrtoint i8*  %1 to i64, !dbg !6175
	%3 = sub i64 0,  %2, !dbg !6175
	%4 = getelementptr i8, i8*  %0, i64  %3, !dbg !6175
	%5 = ptrtoint i8*  %4 to i64, !dbg !6175
	store i64  %5, i64* %..inline.addr, align 8, !tbaa !4035, !dbg !6175
	%6 = icmp ne i64  %5, 1, !dbg !6175
	br i1  %6, label %L..inline.69729, label %L.B1323, !dbg !6175
L.B1323:
	%7 = load i8, i8*  %1, align 1, !tbaa !4033, !dbg !6176
	%8 = load i8*, i8** %__p.addr, align 8, !tbaa !4032, !dbg !6176
	store i8  %7, i8*  %8, align 1, !tbaa !4033, !dbg !6176
	br label %L..inline.69738, !dbg !6176
L..inline.69729:
	%9 = load i8*, i8** %__p.addr, align 8, !tbaa !4032, !dbg !6177
	store i8*  %9, i8** %..inline.addr.1, align 8, !tbaa !4032, !dbg !6177
	%10 = load i8*, i8** %__k1.addr, align 8, !tbaa !4032, !dbg !6177
	store i8*  %10, i8** %..inline.addr.2, align 8, !tbaa !4032, !dbg !6177
	%11 = load i64, i64* %..inline.addr, align 8, !tbaa !4035, !dbg !6177
	store i64  %11, i64* %..inline.addr.3, align 8, !tbaa !4035, !dbg !6177
	%12 = icmp ne i64  %11, 0, !dbg !6177
	br i1  %12, label %L..inline.69745, label %L.B1324, !dbg !6177
L.B1324:
	br label %L..inline.69747, !dbg !6177
L..inline.69745:
	%13 = load i8*, i8** %..inline.addr.1, align 8, !tbaa !4032, !dbg !6177
	%14 = load i8*, i8** %..inline.addr.2, align 8, !tbaa !4032, !dbg !6177
	%15 = load i64, i64* %..inline.addr.3, align 8, !tbaa !4035, !dbg !6177
	%16 = call i8*  @memcpy (i8*  %13, i8*  %14, i64  %15) nounwind, !dbg !6177
	store i8*  %16, i8** %..inline.addr.4, align 8, !tbaa !4032, !dbg !6177
	br label %L..inline.69747
L..inline.69747:
	br label %L..inline.69738
L..inline.69738:
	ret void, !dbg !6175
}

%struct._ZSt26random_access_iterator_tag = type <{ [1 x i8]}> 

define linkonce_odr void @_ZNSt7__cxx1112basic_stringIcSt11char_traitsIcESaIcEEC1EPKcRKS3_(%struct._ZNSt7__cxx1112basic_stringIcSt11char_traitsIcESaIcEEE* %_T45441808_51888.arg, i8* %__s.arg, %struct._ZSaIcE* %__a.arg) #0 inlinehint !dbg !6185 {
L.entry:
	%_T45441808_51888.addr = alloca %struct._ZNSt7__cxx1112basic_stringIcSt11char_traitsIcESaIcEEE*, align 8
	%__s.addr = alloca i8*, align 8
	%__a.addr = alloca %struct._ZSaIcE*, align 8
	%..inline.addr = alloca i8*, align 8
	%..inline.addr.1 = alloca i64, align 8
	%.I0000.addr = alloca i8*, align 8
	%..inline.addr.2 = alloca %struct._ZNSt7__cxx1112basic_stringIcSt11char_traitsIcESaIcEEE*, align 8
	%..inline.addr.3 = alloca i8*, align 8
	%..inline.addr.4 = alloca i8*, align 8
	%....inline.__FILL_CHARARRAY.addr = alloca [1 x i8], align 1
	%....inline.__FILL_CHARARRAY.addr.1 = alloca [1 x i8], align 1
	%..inline.addr.5 = alloca %struct._ZSt26random_access_iterator_tag, align 1

	call void @llvm.dbg.declare (metadata %struct._ZNSt7__cxx1112basic_stringIcSt11char_traitsIcESaIcEEE** %_T45441808_51888.addr, metadata !6221, metadata !4017), !dbg !6186
	store %struct._ZNSt7__cxx1112basic_stringIcSt11char_traitsIcESaIcEEE* %_T45441808_51888.arg, %struct._ZNSt7__cxx1112basic_stringIcSt11char_traitsIcESaIcEEE** %_T45441808_51888.addr, align 8, !tbaa !4032
	call void @llvm.dbg.declare (metadata %struct._ZNSt7__cxx1112basic_stringIcSt11char_traitsIcESaIcEEE** %_T45441808_51888.addr, metadata !6222, metadata !4017), !dbg !6186
	call void @llvm.dbg.declare (metadata i8** %__s.addr, metadata !6223, metadata !4017), !dbg !6186
	store i8* %__s.arg, i8** %__s.addr, align 8, !tbaa !4032
	call void @llvm.dbg.declare (metadata i8** %__s.addr, metadata !6224, metadata !4017), !dbg !6186
	call void @llvm.dbg.declare (metadata %struct._ZSaIcE** %__a.addr, metadata !6225, metadata !4017), !dbg !6186
	store %struct._ZSaIcE* %__a.arg, %struct._ZSaIcE** %__a.addr, align 8, !tbaa !4032
	call void @llvm.dbg.declare (metadata %struct._ZSaIcE** %__a.addr, metadata !6226, metadata !4017), !dbg !6186
	%0 = load %struct._ZNSt7__cxx1112basic_stringIcSt11char_traitsIcESaIcEEE*, %struct._ZNSt7__cxx1112basic_stringIcSt11char_traitsIcESaIcEEE** %_T45441808_51888.addr, align 8, !tbaa !4032, !dbg !6227
	%1 = bitcast %struct._ZNSt7__cxx1112basic_stringIcSt11char_traitsIcESaIcEEE*  %0 to i8*, !dbg !6227
	%2 = getelementptr i8, i8*  %1, i64 16, !dbg !6227
	%3 = bitcast %struct._ZNSt7__cxx1112basic_stringIcSt11char_traitsIcESaIcEEE*  %0 to i8**, !dbg !6227
	store i8*  %2, i8**  %3, align 8, !tbaa !4032, !dbg !6227
	%4 = load i8*, i8** %__s.addr, align 8, !tbaa !4032, !dbg !6227
	%5 = icmp eq i8*  %4,  null, !dbg !6227
	br i1  %5, label %L.B0024, label %L.B1333, !dbg !6227
L.B1333:
	%6 = call i64  @strlen (i8*  %4) nounwind, !dbg !6228
	%7 = load i8*, i8** %__s.addr, align 8, !tbaa !4032, !dbg !6229
	%8 = getelementptr i8, i8*  %7, i64  %6, !dbg !6229
	store i8*  %8, i8** %.I0000.addr, align 8, !tbaa !4032, !dbg !6229
	br label %L.B0025, !dbg !6227
L.B0024:
	%9 = load i8*, i8** %__s.addr, align 8, !tbaa !4032, !dbg !6227
	%10 = getelementptr i8, i8*  %9, i64 18446744073709551615, !dbg !6227
	store i8*  %10, i8** %.I0000.addr, align 8, !tbaa !4032, !dbg !6227
	br label %L.B0025
L.B0025:
	%11 = load %struct._ZNSt7__cxx1112basic_stringIcSt11char_traitsIcESaIcEEE*, %struct._ZNSt7__cxx1112basic_stringIcSt11char_traitsIcESaIcEEE** %_T45441808_51888.addr, align 8, !tbaa !4032, !dbg !6230
	%12 = bitcast %struct._ZNSt7__cxx1112basic_stringIcSt11char_traitsIcESaIcEEE*  %11 to i8*, !dbg !6230
	%13 = bitcast %struct._ZNSt7__cxx1112basic_stringIcSt11char_traitsIcESaIcEEE** %..inline.addr.2 to i8**, !dbg !6230
	store i8*  %12, i8**  %13, align 8, !tbaa !4032, !dbg !6230
	%14 = load i8*, i8** %__s.addr, align 8, !tbaa !4032, !dbg !6230
	store i8*  %14, i8** %..inline.addr.3, align 8, !tbaa !4032, !dbg !6230
	%15 = load i8*, i8** %.I0000.addr, align 8, !tbaa !4032, !dbg !6230
	store i8*  %15, i8** %..inline.addr.4, align 8, !tbaa !4032, !dbg !6230
	call void @llvm.dbg.declare (metadata [1 x i8]* %....inline.__FILL_CHARARRAY.addr, metadata !6231, metadata !4017), !dbg !6188
	%16 = bitcast [1 x i8]* %....inline.__FILL_CHARARRAY.addr to i8*, !dbg !6227
	%17 = load i8, i8*  %16, align 1, !tbaa !4033, !dbg !6227
	%18 = zext i8  %17 to i32, !dbg !6227
	%19 = trunc i32  %18 to i8, !dbg !6227
	call void @llvm.dbg.declare (metadata [1 x i8]* %....inline.__FILL_CHARARRAY.addr.1, metadata !6231, metadata !4017), !dbg !6188
	%20 = bitcast [1 x i8]* %....inline.__FILL_CHARARRAY.addr.1 to i8*, !dbg !6227
	store i8  %19, i8*  %20, align 1, !tbaa !4033, !dbg !6227
	%21 = load %struct._ZNSt7__cxx1112basic_stringIcSt11char_traitsIcESaIcEEE*, %struct._ZNSt7__cxx1112basic_stringIcSt11char_traitsIcESaIcEEE** %..inline.addr.2, align 8, !tbaa !4032, !dbg !6230
	%22 = load i8*, i8** %..inline.addr.3, align 8, !tbaa !4032, !dbg !6230
	%23 = load i8*, i8** %..inline.addr.4, align 8, !tbaa !4032, !dbg !6230
	%24 = bitcast %struct._ZSt26random_access_iterator_tag* %..inline.addr.5 to i8*, !dbg !6230
	%25 = load i8, i8*  %24, align 1, !tbaa !4033, !dbg !6230
	call void  @_ZNSt7__cxx1112basic_stringIcSt11char_traitsIcESaIcEE12_M_constructIPKcEEvT_S8_St20forward_iterator_tag (%struct._ZNSt7__cxx1112basic_stringIcSt11char_traitsIcESaIcEEE*  %21, i8*  %22, i8*  %23, i8  %25), !dbg !6230
	ret void, !dbg !6227
}
define linkonce_odr void @_ZNSt7__cxx1112basic_stringIcSt11char_traitsIcESaIcEEC2EPKcRKS3_(%struct._ZNSt7__cxx1112basic_stringIcSt11char_traitsIcESaIcEEE* %_T45441624_51889.arg, i8* %_T45441920_51889.arg, %struct._ZSaIcE* %_T45442216_51889.arg) #0 inlinehint !dbg !6233 {
L.entry:
	%_T45441624_51889.addr = alloca %struct._ZNSt7__cxx1112basic_stringIcSt11char_traitsIcESaIcEEE*, align 8
	%_T45441920_51889.addr = alloca i8*, align 8
	%_T45442216_51889.addr = alloca %struct._ZSaIcE*, align 8
	%..inline.addr = alloca %struct._ZNSt7__cxx1112basic_stringIcSt11char_traitsIcESaIcEEE*, align 8
	%..inline.addr.1 = alloca i8*, align 8
	%..inline.addr.2 = alloca i8*, align 8
	%..inline.addr.3 = alloca i64, align 8
	%..inline.addr.4 = alloca i8*, align 8
	%..inline.addr.5 = alloca %struct._ZNSt7__cxx1112basic_stringIcSt11char_traitsIcESaIcEEE*, align 8
	%..inline.addr.6 = alloca i8*, align 8
	%..inline.addr.7 = alloca i8*, align 8
	%....inline.__FILL_CHARARRAY.addr = alloca [1 x i8], align 1
	%....inline.__FILL_CHARARRAY.addr.1 = alloca [1 x i8], align 1
	%..inline.addr.8 = alloca %struct._ZSt26random_access_iterator_tag, align 1

	store %struct._ZNSt7__cxx1112basic_stringIcSt11char_traitsIcESaIcEEE* %_T45441624_51889.arg, %struct._ZNSt7__cxx1112basic_stringIcSt11char_traitsIcESaIcEEE** %_T45441624_51889.addr, align 8, !tbaa !4032
	store i8* %_T45441920_51889.arg, i8** %_T45441920_51889.addr, align 8, !tbaa !4032
	store %struct._ZSaIcE* %_T45442216_51889.arg, %struct._ZSaIcE** %_T45442216_51889.addr, align 8, !tbaa !4032
	%0 = load %struct._ZNSt7__cxx1112basic_stringIcSt11char_traitsIcESaIcEEE*, %struct._ZNSt7__cxx1112basic_stringIcSt11char_traitsIcESaIcEEE** %_T45441624_51889.addr, align 8, !tbaa !4032, !dbg !6273
	%1 = bitcast %struct._ZNSt7__cxx1112basic_stringIcSt11char_traitsIcESaIcEEE*  %0 to i8*, !dbg !6273
	%2 = bitcast %struct._ZNSt7__cxx1112basic_stringIcSt11char_traitsIcESaIcEEE** %..inline.addr to i8**, !dbg !6273
	store i8*  %1, i8**  %2, align 8, !tbaa !4032, !dbg !6273
	%3 = load i8*, i8** %_T45441920_51889.addr, align 8, !tbaa !4032, !dbg !6273
	store i8*  %3, i8** %..inline.addr.1, align 8, !tbaa !4032, !dbg !6273
	%4 = getelementptr i8, i8*  %1, i64 16, !dbg !6273
	%5 = bitcast %struct._ZNSt7__cxx1112basic_stringIcSt11char_traitsIcESaIcEEE*  %0 to i8**, !dbg !6273
	store i8*  %4, i8**  %5, align 8, !tbaa !4032, !dbg !6273
	%6 = icmp eq i8*  %3,  null, !dbg !6273
	br i1  %6, label %L..inline.69899, label %L.B1336, !dbg !6273
L.B1336:
	%7 = call i64  @strlen (i8*  %3) nounwind, !dbg !6273
	%8 = load i8*, i8** %..inline.addr.1, align 8, !tbaa !4032, !dbg !6273
	%9 = getelementptr i8, i8*  %8, i64  %7, !dbg !6273
	store i8*  %9, i8** %..inline.addr.4, align 8, !tbaa !4032, !dbg !6273
	br label %L..inline.69907, !dbg !6273
L..inline.69899:
	%10 = load i8*, i8** %..inline.addr.1, align 8, !tbaa !4032, !dbg !6273
	%11 = getelementptr i8, i8*  %10, i64 18446744073709551615, !dbg !6273
	store i8*  %11, i8** %..inline.addr.4, align 8, !tbaa !4032, !dbg !6273
	br label %L..inline.69907
L..inline.69907:
	%12 = load %struct._ZNSt7__cxx1112basic_stringIcSt11char_traitsIcESaIcEEE*, %struct._ZNSt7__cxx1112basic_stringIcSt11char_traitsIcESaIcEEE** %..inline.addr, align 8, !tbaa !4032, !dbg !6273
	%13 = bitcast %struct._ZNSt7__cxx1112basic_stringIcSt11char_traitsIcESaIcEEE*  %12 to i8*, !dbg !6273
	%14 = bitcast %struct._ZNSt7__cxx1112basic_stringIcSt11char_traitsIcESaIcEEE** %..inline.addr.5 to i8**, !dbg !6273
	store i8*  %13, i8**  %14, align 8, !tbaa !4032, !dbg !6273
	%15 = load i8*, i8** %..inline.addr.1, align 8, !tbaa !4032, !dbg !6273
	store i8*  %15, i8** %..inline.addr.6, align 8, !tbaa !4032, !dbg !6273
	%16 = load i8*, i8** %..inline.addr.4, align 8, !tbaa !4032, !dbg !6273
	store i8*  %16, i8** %..inline.addr.7, align 8, !tbaa !4032, !dbg !6273
	call void @llvm.dbg.declare (metadata [1 x i8]* %....inline.__FILL_CHARARRAY.addr, metadata !6274, metadata !4017), !dbg !6236
	%17 = bitcast [1 x i8]* %....inline.__FILL_CHARARRAY.addr to i8*, !dbg !6273
	%18 = load i8, i8*  %17, align 1, !tbaa !4033, !dbg !6273
	%19 = zext i8  %18 to i32, !dbg !6273
	%20 = trunc i32  %19 to i8, !dbg !6273
	call void @llvm.dbg.declare (metadata [1 x i8]* %....inline.__FILL_CHARARRAY.addr.1, metadata !6274, metadata !4017), !dbg !6236
	%21 = bitcast [1 x i8]* %....inline.__FILL_CHARARRAY.addr.1 to i8*, !dbg !6273
	store i8  %20, i8*  %21, align 1, !tbaa !4033, !dbg !6273
	%22 = load %struct._ZNSt7__cxx1112basic_stringIcSt11char_traitsIcESaIcEEE*, %struct._ZNSt7__cxx1112basic_stringIcSt11char_traitsIcESaIcEEE** %..inline.addr.5, align 8, !tbaa !4032, !dbg !6273
	%23 = load i8*, i8** %..inline.addr.6, align 8, !tbaa !4032, !dbg !6273
	%24 = load i8*, i8** %..inline.addr.7, align 8, !tbaa !4032, !dbg !6273
	%25 = bitcast %struct._ZSt26random_access_iterator_tag* %..inline.addr.8 to i8*, !dbg !6273
	%26 = load i8, i8*  %25, align 1, !tbaa !4033, !dbg !6273
	call void  @_ZNSt7__cxx1112basic_stringIcSt11char_traitsIcESaIcEE12_M_constructIPKcEEvT_S8_St20forward_iterator_tag (%struct._ZNSt7__cxx1112basic_stringIcSt11char_traitsIcESaIcEEE*  %22, i8*  %23, i8*  %24, i8  %26), !dbg !6273
	ret void, !dbg !6273
}
define linkonce_odr void @_ZNSt7__cxx1112basic_stringIcSt11char_traitsIcESaIcEED1Ev(%struct._ZNSt7__cxx1112basic_stringIcSt11char_traitsIcESaIcEEE* %_T45441624_51890.arg) #0 inlinehint !dbg !6276 {
L.entry:
	%_T45441624_51890.addr = alloca %struct._ZNSt7__cxx1112basic_stringIcSt11char_traitsIcESaIcEEE*, align 8
	%..inline.addr = alloca i8*, align 8

	call void @llvm.dbg.declare (metadata %struct._ZNSt7__cxx1112basic_stringIcSt11char_traitsIcESaIcEEE** %_T45441624_51890.addr, metadata !6328, metadata !4017), !dbg !6277
	store %struct._ZNSt7__cxx1112basic_stringIcSt11char_traitsIcESaIcEEE* %_T45441624_51890.arg, %struct._ZNSt7__cxx1112basic_stringIcSt11char_traitsIcESaIcEEE** %_T45441624_51890.addr, align 8, !tbaa !4032
	call void @llvm.dbg.declare (metadata %struct._ZNSt7__cxx1112basic_stringIcSt11char_traitsIcESaIcEEE** %_T45441624_51890.addr, metadata !6329, metadata !4017), !dbg !6277
	%0 = load %struct._ZNSt7__cxx1112basic_stringIcSt11char_traitsIcESaIcEEE*, %struct._ZNSt7__cxx1112basic_stringIcSt11char_traitsIcESaIcEEE** %_T45441624_51890.addr, align 8, !tbaa !4032, !dbg !6330
	%1 = bitcast %struct._ZNSt7__cxx1112basic_stringIcSt11char_traitsIcESaIcEEE*  %0 to i8**, !dbg !6330
	%2 = load i8*, i8**  %1, align 8, !tbaa !4032, !dbg !6330
	%3 = bitcast %struct._ZNSt7__cxx1112basic_stringIcSt11char_traitsIcESaIcEEE*  %0 to i8*, !dbg !6330
	%4 = getelementptr i8, i8*  %3, i64 16, !dbg !6330
	%5 = icmp eq i8*  %2,  %4, !dbg !6330
	br i1  %5, label %L..inline.70006, label %L.B1339, !dbg !6330
L.B1339:
	%6 = bitcast %struct._ZNSt7__cxx1112basic_stringIcSt11char_traitsIcESaIcEEE*  %0 to i8**, !dbg !6331
	%7 = load i8*, i8**  %6, align 8, !tbaa !4032, !dbg !6331
	call void  @_ZdlPv (i8*  %7) nounwind, !dbg !6331
	br label %L..inline.70006
L..inline.70006:
	ret void, !dbg !6332
}
define linkonce_odr void @_ZNSt7__cxx1112basic_stringIcSt11char_traitsIcESaIcEED2Ev(%struct._ZNSt7__cxx1112basic_stringIcSt11char_traitsIcESaIcEEE* %_T45441624_51891.arg) #0 inlinehint !dbg !6334 {
L.entry:
	%_T45441624_51891.addr = alloca %struct._ZNSt7__cxx1112basic_stringIcSt11char_traitsIcESaIcEEE*, align 8
	%..inline.addr = alloca i8*, align 8

	store %struct._ZNSt7__cxx1112basic_stringIcSt11char_traitsIcESaIcEEE* %_T45441624_51891.arg, %struct._ZNSt7__cxx1112basic_stringIcSt11char_traitsIcESaIcEEE** %_T45441624_51891.addr, align 8, !tbaa !4032
	%0 = load %struct._ZNSt7__cxx1112basic_stringIcSt11char_traitsIcESaIcEEE*, %struct._ZNSt7__cxx1112basic_stringIcSt11char_traitsIcESaIcEEE** %_T45441624_51891.addr, align 8, !tbaa !4032, !dbg !6390
	%1 = bitcast %struct._ZNSt7__cxx1112basic_stringIcSt11char_traitsIcESaIcEEE*  %0 to i8**, !dbg !6390
	%2 = load i8*, i8**  %1, align 8, !tbaa !4032, !dbg !6390
	%3 = bitcast %struct._ZNSt7__cxx1112basic_stringIcSt11char_traitsIcESaIcEEE*  %0 to i8*, !dbg !6390
	%4 = getelementptr i8, i8*  %3, i64 16, !dbg !6390
	%5 = icmp eq i8*  %2,  %4, !dbg !6390
	br i1  %5, label %L..inline.70112, label %L.B1342, !dbg !6390
L.B1342:
	%6 = bitcast %struct._ZNSt7__cxx1112basic_stringIcSt11char_traitsIcESaIcEEE*  %0 to i8**, !dbg !6390
	%7 = load i8*, i8**  %6, align 8, !tbaa !4032, !dbg !6390
	call void  @_ZdlPv (i8*  %7) nounwind, !dbg !6390
	br label %L..inline.70112
L..inline.70112:
	ret void, !dbg !6390
}
define linkonce_odr void @_ZNSt7__cxx1112basic_stringIcSt11char_traitsIcESaIcEE12_M_constructIPKcEEvT_S8_(%struct._ZNSt7__cxx1112basic_stringIcSt11char_traitsIcESaIcEEE* %_T45441624_51892.arg, i8* %__beg.arg, i8* %__end.arg) #0 inlinehint !dbg !6394 {
L.entry:
	%_T45441624_51892.addr = alloca %struct._ZNSt7__cxx1112basic_stringIcSt11char_traitsIcESaIcEEE*, align 8
	%__beg.addr = alloca i8*, align 8
	%__end.addr = alloca i8*, align 8
	%..inline.addr = alloca %struct._ZNSt7__cxx1112basic_stringIcSt11char_traitsIcESaIcEEE*, align 8
	%..inline.addr.1 = alloca i8*, align 8
	%..inline.addr.2 = alloca i8*, align 8
	%.._T45443104_51892.__FILL_CHARARRAY.addr = alloca [1 x i8], align 1
	%....inline.__FILL_CHARARRAY.addr = alloca [1 x i8], align 1
	%..inline.addr.3 = alloca %struct._ZSt26random_access_iterator_tag, align 1

	call void @llvm.dbg.declare (metadata %struct._ZNSt7__cxx1112basic_stringIcSt11char_traitsIcESaIcEEE** %_T45441624_51892.addr, metadata !6402, metadata !4017), !dbg !6395
	store %struct._ZNSt7__cxx1112basic_stringIcSt11char_traitsIcESaIcEEE* %_T45441624_51892.arg, %struct._ZNSt7__cxx1112basic_stringIcSt11char_traitsIcESaIcEEE** %_T45441624_51892.addr, align 8, !tbaa !4032
	call void @llvm.dbg.declare (metadata %struct._ZNSt7__cxx1112basic_stringIcSt11char_traitsIcESaIcEEE** %_T45441624_51892.addr, metadata !6403, metadata !4017), !dbg !6395
	call void @llvm.dbg.declare (metadata i8** %__beg.addr, metadata !6404, metadata !4017), !dbg !6395
	store i8* %__beg.arg, i8** %__beg.addr, align 8, !tbaa !4032
	call void @llvm.dbg.declare (metadata i8** %__beg.addr, metadata !6405, metadata !4017), !dbg !6395
	call void @llvm.dbg.declare (metadata i8** %__end.addr, metadata !6406, metadata !4017), !dbg !6395
	store i8* %__end.arg, i8** %__end.addr, align 8, !tbaa !4032
	call void @llvm.dbg.declare (metadata i8** %__end.addr, metadata !6407, metadata !4017), !dbg !6395
	%0 = load %struct._ZNSt7__cxx1112basic_stringIcSt11char_traitsIcESaIcEEE*, %struct._ZNSt7__cxx1112basic_stringIcSt11char_traitsIcESaIcEEE** %_T45441624_51892.addr, align 8, !tbaa !4032, !dbg !6408
	%1 = bitcast %struct._ZNSt7__cxx1112basic_stringIcSt11char_traitsIcESaIcEEE*  %0 to i8*, !dbg !6408
	%2 = bitcast %struct._ZNSt7__cxx1112basic_stringIcSt11char_traitsIcESaIcEEE** %..inline.addr to i8**, !dbg !6408
	store i8*  %1, i8**  %2, align 8, !tbaa !4032, !dbg !6408
	%3 = load i8*, i8** %__beg.addr, align 8, !tbaa !4032, !dbg !6408
	store i8*  %3, i8** %..inline.addr.1, align 8, !tbaa !4032, !dbg !6408
	%4 = load i8*, i8** %__end.addr, align 8, !tbaa !4032, !dbg !6408
	store i8*  %4, i8** %..inline.addr.2, align 8, !tbaa !4032, !dbg !6408
	call void @llvm.dbg.declare (metadata [1 x i8]* %.._T45443104_51892.__FILL_CHARARRAY.addr, metadata !6410, metadata !4017), !dbg !6397
	%5 = bitcast [1 x i8]* %.._T45443104_51892.__FILL_CHARARRAY.addr to i8*, !dbg !6409
	%6 = load i8, i8*  %5, align 1, !tbaa !4033, !dbg !6409
	%7 = zext i8  %6 to i32, !dbg !6409
	%8 = trunc i32  %7 to i8, !dbg !6409
	call void @llvm.dbg.declare (metadata [1 x i8]* %....inline.__FILL_CHARARRAY.addr, metadata !6411, metadata !4017), !dbg !6397
	%9 = bitcast [1 x i8]* %....inline.__FILL_CHARARRAY.addr to i8*, !dbg !6409
	store i8  %8, i8*  %9, align 1, !tbaa !4033, !dbg !6409
	%10 = load %struct._ZNSt7__cxx1112basic_stringIcSt11char_traitsIcESaIcEEE*, %struct._ZNSt7__cxx1112basic_stringIcSt11char_traitsIcESaIcEEE** %..inline.addr, align 8, !tbaa !4032, !dbg !6412
	%11 = load i8*, i8** %..inline.addr.1, align 8, !tbaa !4032, !dbg !6412
	%12 = load i8*, i8** %..inline.addr.2, align 8, !tbaa !4032, !dbg !6412
	%13 = bitcast %struct._ZSt26random_access_iterator_tag* %..inline.addr.3 to i8*, !dbg !6412
	%14 = load i8, i8*  %13, align 1, !tbaa !4033, !dbg !6412
	call void  @_ZNSt7__cxx1112basic_stringIcSt11char_traitsIcESaIcEE12_M_constructIPKcEEvT_S8_St20forward_iterator_tag (%struct._ZNSt7__cxx1112basic_stringIcSt11char_traitsIcESaIcEEE*  %10, i8*  %11, i8*  %12, i8  %14), !dbg !6412
	ret void, !dbg !6409
}

%struct._ZSt12__false_type = type <{ [1 x i8]}> 

define linkonce_odr void @_ZNSt7__cxx1112basic_stringIcSt11char_traitsIcESaIcEE16_M_construct_auxIPKcEEvT_S8_St12__false_type(%struct._ZNSt7__cxx1112basic_stringIcSt11char_traitsIcESaIcEEE* %_T45441624_51893.arg, i8* %__beg.arg, i8* %__end.arg, i8 %_T45442512_51893.coerce) #0 inlinehint !dbg !6416 {
L.entry:
	%_T45441624_51893.addr = alloca %struct._ZNSt7__cxx1112basic_stringIcSt11char_traitsIcESaIcEEE*, align 8
	%__beg.addr = alloca i8*, align 8
	%__end.addr = alloca i8*, align 8
	%_T45442512_51893.addr = alloca %struct._ZSt12__false_type, align 1
	%_T45443400_51893.addr = alloca %struct._ZSt26random_access_iterator_tag, align 1

	call void @llvm.dbg.declare (metadata %struct._ZNSt7__cxx1112basic_stringIcSt11char_traitsIcESaIcEEE** %_T45441624_51893.addr, metadata !6420, metadata !4017), !dbg !6417
	store %struct._ZNSt7__cxx1112basic_stringIcSt11char_traitsIcESaIcEEE* %_T45441624_51893.arg, %struct._ZNSt7__cxx1112basic_stringIcSt11char_traitsIcESaIcEEE** %_T45441624_51893.addr, align 8, !tbaa !4032
	call void @llvm.dbg.declare (metadata %struct._ZNSt7__cxx1112basic_stringIcSt11char_traitsIcESaIcEEE** %_T45441624_51893.addr, metadata !6421, metadata !4017), !dbg !6417
	call void @llvm.dbg.declare (metadata i8** %__beg.addr, metadata !6422, metadata !4017), !dbg !6417
	store i8* %__beg.arg, i8** %__beg.addr, align 8, !tbaa !4032
	call void @llvm.dbg.declare (metadata i8** %__beg.addr, metadata !6423, metadata !4017), !dbg !6417
	call void @llvm.dbg.declare (metadata i8** %__end.addr, metadata !6424, metadata !4017), !dbg !6417
	store i8* %__end.arg, i8** %__end.addr, align 8, !tbaa !4032
	call void @llvm.dbg.declare (metadata i8** %__end.addr, metadata !6425, metadata !4017), !dbg !6417
	call void @llvm.dbg.declare (metadata %struct._ZSt12__false_type* %_T45442512_51893.addr, metadata !6426, metadata !4017), !dbg !6417
	%0 = bitcast %struct._ZSt12__false_type* %_T45442512_51893.addr to i8*
	store i8 %_T45442512_51893.coerce, i8*  %0, align 1, !tbaa !4033
	call void @llvm.dbg.declare (metadata %struct._ZSt12__false_type* %_T45442512_51893.addr, metadata !6427, metadata !4017), !dbg !6417
	%1 = load %struct._ZNSt7__cxx1112basic_stringIcSt11char_traitsIcESaIcEEE*, %struct._ZNSt7__cxx1112basic_stringIcSt11char_traitsIcESaIcEEE** %_T45441624_51893.addr, align 8, !tbaa !4032, !dbg !6428
	%2 = load i8*, i8** %__beg.addr, align 8, !tbaa !4032, !dbg !6428
	%3 = load i8*, i8** %__end.addr, align 8, !tbaa !4032, !dbg !6428
	%4 = bitcast %struct._ZSt26random_access_iterator_tag* %_T45443400_51893.addr to i8*, !dbg !6428
	%5 = load i8, i8*  %4, align 1, !tbaa !4033, !dbg !6428
	call void  @_ZNSt7__cxx1112basic_stringIcSt11char_traitsIcESaIcEE12_M_constructIPKcEEvT_S8_St20forward_iterator_tag (%struct._ZNSt7__cxx1112basic_stringIcSt11char_traitsIcESaIcEEE*  %1, i8*  %2, i8*  %3, i8  %5), !dbg !6428
	ret void, !dbg !6429
}

%astruct.dt64 = type <{ i8*, i32}> 
%struct._ZSt20forward_iterator_tag = type <{ [1 x i8]}> 

define linkonce_odr void @_ZNSt7__cxx1112basic_stringIcSt11char_traitsIcESaIcEE12_M_constructIPKcEEvT_S8_St20forward_iterator_tag(%struct._ZNSt7__cxx1112basic_stringIcSt11char_traitsIcESaIcEEE* %_T45441624_51894.arg, i8* %__beg.arg, i8* %__end.arg, i8 %_T45442512_51894.coerce) #0 inlinehint personality i8* bitcast (i32 (...)* @__gxx_personality_v0 to i8*) !dbg !6435 {
L.entry:
	%_T45441624_51894.addr = alloca %struct._ZNSt7__cxx1112basic_stringIcSt11char_traitsIcESaIcEEE*, align 8
	%__beg.addr = alloca i8*, align 8
	%__end.addr = alloca i8*, align 8
	%_T45442512_51894.addr = alloca %struct._ZSt20forward_iterator_tag, align 1
	%..inline.addr = alloca i8*, align 8
	%..inline.addr.1 = alloca i8, align 1
	%..inline.addr.2 = alloca i8*, align 8
	%..inline.addr.3 = alloca i8*, align 8
	%..inline.addr.4 = alloca %struct._ZSt26random_access_iterator_tag, align 1
	%..inline.addr.5 = alloca i8*, align 8
	%..inline.addr.6 = alloca i8*, align 8
	%..inline.addr.7 = alloca %struct._ZSt26random_access_iterator_tag, align 1
	%..inline.addr.8 = alloca i64, align 8
	%..inline.addr.9 = alloca i64, align 8
	%__dnew.addr = alloca i64, align 8
	%..inline.addr.190 = alloca %struct._ZNSt7__cxx1112basic_stringIcSt11char_traitsIcESaIcEEE*, align 8
	%.Q0003.addr = alloca i8*, align 8
	%..inline.addr.210 = alloca i8*, align 8
	%..inline.addr.220 = alloca %struct._ZNSt7__cxx1112basic_stringIcSt11char_traitsIcESaIcEEE*, align 8
	%..inline.addr.230 = alloca i64, align 8
	%..inline.addr.240 = alloca %struct._ZNSt7__cxx1112basic_stringIcSt11char_traitsIcESaIcEEE*, align 8
	%..inline.addr.250 = alloca i8*, align 8
	%..inline.addr.260 = alloca i8*, align 8
	%..inline.addr.270 = alloca i8*, align 8
	%..inline.addr.280 = alloca i8*, align 8
	%..inline.addr.290 = alloca i8*, align 8
	%..inline.addr.300 = alloca i64, align 8
	%..inline.addr.310 = alloca i8*, align 8
	%..inline.addr.320 = alloca i8*, align 8
	%..inline.addr.330 = alloca i8*, align 8
	%..inline.addr.340 = alloca i8*, align 8
	%..inline.addr.350 = alloca i64, align 8
	%..inline.addr.360 = alloca i8*, align 8
	%..inline.addr.370 = alloca %struct._ZNSt7__cxx1112basic_stringIcSt11char_traitsIcESaIcEEE*, align 8
	%..inline.addr.380 = alloca i64, align 8
	%..inline.addr.390 = alloca %struct._ZNSt7__cxx1112basic_stringIcSt11char_traitsIcESaIcEEE*, align 8
	%..inline.addr.400 = alloca i64, align 8
	%..inline.addr.410 = alloca i8, align 1
	%..inline.addr.420 = alloca %struct._ZNSt7__cxx1112basic_stringIcSt11char_traitsIcESaIcEEE*, align 8
	%..inline.addr.430 = alloca i8*, align 8
	%__caught_object_address.addr = alloca i8*, align 8
	%__catch_clause_number.addr = alloca i32, align 4
	%..inline.addr.460 = alloca %struct._ZNSt7__cxx1112basic_stringIcSt11char_traitsIcESaIcEEE*, align 8
	%..inline.addr.470 = alloca %struct._ZNSt7__cxx1112basic_stringIcSt11char_traitsIcESaIcEEE*, align 8
	%..inline.addr.480 = alloca %struct._ZNSt7__cxx1112basic_stringIcSt11char_traitsIcESaIcEEE*, align 8
	%..inline.addr.490 = alloca %struct._ZNSt7__cxx1112basic_stringIcSt11char_traitsIcESaIcEEE*, align 8
	%..inline.addr.500 = alloca i8*, align 8
	%..inline.addr.510 = alloca i8*, align 8
	%..inline.addr.520 = alloca i8*, align 8
	%..inline.addr.530 = alloca i8*, align 8
	%..inline.addr.540 = alloca i8*, align 8
	%..inline.addr.550 = alloca i8*, align 8
	%..inline.addr.560 = alloca i8, align 1
	%..inline.addr.570 = alloca %struct._ZNSt7__cxx1112basic_stringIcSt11char_traitsIcESaIcEEE*, align 8
	%..inline.addr.580 = alloca i64, align 8
	%..inline.addr.590 = alloca %struct._ZNSt7__cxx1112basic_stringIcSt11char_traitsIcESaIcEEE*, align 8
	%..inline.addr.600 = alloca %struct._ZNSt7__cxx1112basic_stringIcSt11char_traitsIcESaIcEEE*, align 8
	%..inline.addr.610 = alloca %struct._ZSaIcE*, align 8
	%..inline.addr.620 = alloca i8*, align 8
	%..inline.addr.630 = alloca i64, align 8
	%..inline.addr.640 = alloca i8*, align 8

	call void @llvm.dbg.declare (metadata %struct._ZNSt7__cxx1112basic_stringIcSt11char_traitsIcESaIcEEE** %_T45441624_51894.addr, metadata !6545, metadata !4017), !dbg !6436
	store %struct._ZNSt7__cxx1112basic_stringIcSt11char_traitsIcESaIcEEE* %_T45441624_51894.arg, %struct._ZNSt7__cxx1112basic_stringIcSt11char_traitsIcESaIcEEE** %_T45441624_51894.addr, align 8
	call void @llvm.dbg.declare (metadata %struct._ZNSt7__cxx1112basic_stringIcSt11char_traitsIcESaIcEEE** %_T45441624_51894.addr, metadata !6546, metadata !4017), !dbg !6436
	call void @llvm.dbg.declare (metadata i8** %__beg.addr, metadata !6547, metadata !4017), !dbg !6436
	store i8* %__beg.arg, i8** %__beg.addr, align 8
	call void @llvm.dbg.declare (metadata i8** %__beg.addr, metadata !6548, metadata !4017), !dbg !6436
	call void @llvm.dbg.declare (metadata i8** %__end.addr, metadata !6549, metadata !4017), !dbg !6436
	store i8* %__end.arg, i8** %__end.addr, align 8
	call void @llvm.dbg.declare (metadata i8** %__end.addr, metadata !6550, metadata !4017), !dbg !6436
	call void @llvm.dbg.declare (metadata %struct._ZSt20forward_iterator_tag* %_T45442512_51894.addr, metadata !6551, metadata !4017), !dbg !6436
	%0 = bitcast %struct._ZSt20forward_iterator_tag* %_T45442512_51894.addr to i8*
	store i8 %_T45442512_51894.coerce, i8*  %0, align 1
	call void @llvm.dbg.declare (metadata %struct._ZSt20forward_iterator_tag* %_T45442512_51894.addr, metadata !6552, metadata !4017), !dbg !6436
	%1 = load i8*, i8** %__beg.addr, align 8, !dbg !6553
	store i8*  %1, i8** %..inline.addr, align 8, !dbg !6553
	%2 = icmp eq i8*  %1,  null, !dbg !6553
	%3 = zext i1  %2 to i32, !dbg !6553
	%4 = shl i32  %3, 24, !dbg !6553
	%5 = ashr i32  %4, 24, !dbg !6553
	%6 = trunc i32  %5 to i8, !dbg !6553
	store i8  %6, i8* %..inline.addr.1, align 1, !dbg !6553
	%7 = sext i8  %6 to i32, !dbg !6554
	%8 = icmp eq i32  %7, 0, !dbg !6554
	br i1  %8, label %L.B0026, label %L.B1361, !dbg !6554
L.B1361:
	%9 = load i8*, i8** %__beg.addr, align 8, !dbg !6553
	%10 = load i8*, i8** %__end.addr, align 8, !dbg !6553
	%11 = icmp eq i8*  %9,  %10, !dbg !6553
	br i1  %11, label %L.B0026, label %L.B1362, !dbg !6553
L.B1362:
	%12 = bitcast [42 x i8]* @.S53707 to i8*, !dbg !6555
	call void  @_ZSt19__throw_logic_errorPKc (i8*  %12) noreturn, !dbg !6555
	br label %L.B0026
L.B0026:
	%13 = load i8*, i8** %__beg.addr, align 8, !dbg !6556
	store i8*  %13, i8** %..inline.addr.2, align 8, !dbg !6556
	%14 = load i8*, i8** %__end.addr, align 8, !dbg !6556
	store i8*  %14, i8** %..inline.addr.3, align 8, !dbg !6556
	%15 = bitcast %struct._ZSt26random_access_iterator_tag* %..inline.addr.4 to i8*, !dbg !6556
	store i8 0, i8*  %15, align 1, !dbg !6556
	store i8*  %13, i8** %..inline.addr.5, align 8, !dbg !6557
	store i8*  %14, i8** %..inline.addr.6, align 8, !dbg !6557
	%16 = zext i8 0 to i32, !dbg !6558
	%17 = trunc i32  %16 to i8, !dbg !6558
	%18 = bitcast %struct._ZSt26random_access_iterator_tag* %..inline.addr.7 to i8*, !dbg !6558
	store i8  %17, i8*  %18, align 1, !dbg !6558
	%19 = ptrtoint i8*  %13 to i64, !dbg !6557
	%20 = sub i64 0,  %19, !dbg !6557
	%21 = getelementptr i8, i8*  %14, i64  %20, !dbg !6557
	%22 = ptrtoint i8*  %21 to i64, !dbg !6557
	store i64  %22, i64* %..inline.addr.8, align 8, !dbg !6557
	store i64  %22, i64* %..inline.addr.9, align 8, !dbg !6557
	br label %L..inline.70229, !dbg !6557
L..inline.70229:
	%23 = load i64, i64* %..inline.addr.9, align 8, !dbg !6559
	call void @llvm.dbg.declare (metadata i64* %__dnew.addr, metadata !6560, metadata !4017), !dbg !6436
	store i64  %23, i64* %__dnew.addr, align 8, !dbg !6559
	%24 = icmp ule i64  %23, 15, !dbg !6561
	br i1  %24, label %L.B0027, label %L.B1363, !dbg !6561
L.B1363:
	%25 = load %struct._ZNSt7__cxx1112basic_stringIcSt11char_traitsIcESaIcEEE*, %struct._ZNSt7__cxx1112basic_stringIcSt11char_traitsIcESaIcEEE** %_T45441624_51894.addr, align 8, !dbg !6562
	%26 = bitcast %struct._ZNSt7__cxx1112basic_stringIcSt11char_traitsIcESaIcEEE*  %25 to i8*, !dbg !6562
	%27 = bitcast %struct._ZNSt7__cxx1112basic_stringIcSt11char_traitsIcESaIcEEE** %..inline.addr.190 to i8**, !dbg !6562
	store i8*  %26, i8**  %27, align 8, !dbg !6562
	%28 = call i8*  @_ZNSt7__cxx1112basic_stringIcSt11char_traitsIcESaIcEE9_M_createERmm (%struct._ZNSt7__cxx1112basic_stringIcSt11char_traitsIcESaIcEEE*  %25, i64* %__dnew.addr, i64 0), !dbg !6562
	store i8*  %28, i8** %.Q0003.addr, align 8, !dbg !6562
	%29 = load i8*, i8** %.Q0003.addr, align 8, !dbg !6562
	store i8*  %29, i8** %..inline.addr.210, align 8, !dbg !6562
	%30 = load %struct._ZNSt7__cxx1112basic_stringIcSt11char_traitsIcESaIcEEE*, %struct._ZNSt7__cxx1112basic_stringIcSt11char_traitsIcESaIcEEE** %..inline.addr.190, align 8, !dbg !6562
	%31 = bitcast %struct._ZNSt7__cxx1112basic_stringIcSt11char_traitsIcESaIcEEE*  %30 to i8**, !dbg !6562
	store i8*  %29, i8**  %31, align 8, !dbg !6562
	%32 = load %struct._ZNSt7__cxx1112basic_stringIcSt11char_traitsIcESaIcEEE*, %struct._ZNSt7__cxx1112basic_stringIcSt11char_traitsIcESaIcEEE** %_T45441624_51894.addr, align 8, !dbg !6563
	%33 = bitcast %struct._ZNSt7__cxx1112basic_stringIcSt11char_traitsIcESaIcEEE*  %32 to i8*, !dbg !6563
	%34 = bitcast %struct._ZNSt7__cxx1112basic_stringIcSt11char_traitsIcESaIcEEE** %..inline.addr.220 to i8**, !dbg !6563
	store i8*  %33, i8**  %34, align 8, !dbg !6563
	%35 = load i64, i64* %__dnew.addr, align 8, !dbg !6563
	store i64  %35, i64* %..inline.addr.230, align 8, !dbg !6563
	%36 = load %struct._ZNSt7__cxx1112basic_stringIcSt11char_traitsIcESaIcEEE*, %struct._ZNSt7__cxx1112basic_stringIcSt11char_traitsIcESaIcEEE** %..inline.addr.220, align 8, !dbg !6563
	%37 = bitcast %struct._ZNSt7__cxx1112basic_stringIcSt11char_traitsIcESaIcEEE*  %36 to i8*, !dbg !6563
	%38 = getelementptr i8, i8*  %37, i64 16, !dbg !6563
	%39 = bitcast i8*  %38 to i64*, !dbg !6563
	store i64  %35, i64*  %39, align 8, !dbg !6563
	br label %L.B0027
L.B0027:
	%40 = load %struct._ZNSt7__cxx1112basic_stringIcSt11char_traitsIcESaIcEEE*, %struct._ZNSt7__cxx1112basic_stringIcSt11char_traitsIcESaIcEEE** %_T45441624_51894.addr, align 8, !dbg !6564
	%41 = bitcast %struct._ZNSt7__cxx1112basic_stringIcSt11char_traitsIcESaIcEEE*  %40 to i8*, !dbg !6564
	%42 = bitcast %struct._ZNSt7__cxx1112basic_stringIcSt11char_traitsIcESaIcEEE** %..inline.addr.240 to i8**, !dbg !6564
	store i8*  %41, i8**  %42, align 8, !dbg !6564
	%43 = load %struct._ZNSt7__cxx1112basic_stringIcSt11char_traitsIcESaIcEEE*, %struct._ZNSt7__cxx1112basic_stringIcSt11char_traitsIcESaIcEEE** %..inline.addr.240, align 8, !dbg !6565
	%44 = bitcast %struct._ZNSt7__cxx1112basic_stringIcSt11char_traitsIcESaIcEEE*  %43 to i8**, !dbg !6565
	%45 = load i8*, i8**  %44, align 8, !dbg !6565
	store i8*  %45, i8** %..inline.addr.250, align 8, !dbg !6565
	%46 = load i8*, i8** %__beg.addr, align 8, !dbg !6564
	store i8*  %46, i8** %..inline.addr.260, align 8, !dbg !6564
	%47 = load i8*, i8** %__end.addr, align 8, !dbg !6564
	store i8*  %47, i8** %..inline.addr.270, align 8, !dbg !6564
	store i8*  %45, i8** %..inline.addr.280, align 8, !dbg !6566
	store i8*  %46, i8** %..inline.addr.290, align 8, !dbg !6566
	%48 = ptrtoint i8*  %46 to i64, !dbg !6566
	%49 = sub i64 0,  %48, !dbg !6566
	%50 = getelementptr i8, i8*  %47, i64  %49, !dbg !6566
	%51 = ptrtoint i8*  %50 to i64, !dbg !6566
	store i64  %51, i64* %..inline.addr.300, align 8, !dbg !6566
	%52 = icmp ne i64  %51, 1, !dbg !6566
	br i1  %52, label %L..inline.70258, label %L.B1364, !dbg !6566
L.B1364:
	%53 = load i8*, i8** %..inline.addr.280, align 8, !dbg !6566
	store i8*  %53, i8** %..inline.addr.310, align 8, !dbg !6566
	%54 = load i8*, i8** %..inline.addr.290, align 8, !dbg !6566
	store i8*  %54, i8** %..inline.addr.320, align 8, !dbg !6566
	%55 = load i8, i8*  %54, align 1, !dbg !6566
	store i8  %55, i8*  %53, align 1, !dbg !6566
	br label %L..inline.70265, !dbg !6566
L..inline.70258:
	%56 = load i8*, i8** %..inline.addr.280, align 8, !dbg !6566
	store i8*  %56, i8** %..inline.addr.330, align 8, !dbg !6566
	%57 = load i8*, i8** %..inline.addr.290, align 8, !dbg !6566
	store i8*  %57, i8** %..inline.addr.340, align 8, !dbg !6566
	%58 = load i64, i64* %..inline.addr.300, align 8, !dbg !6566
	store i64  %58, i64* %..inline.addr.350, align 8, !dbg !6566
	%59 = icmp ne i64  %58, 0, !dbg !6566
	br i1  %59, label %L..inline.70272, label %L.B1365, !dbg !6566
L.B1365:
	%60 = load i8*, i8** %..inline.addr.330, align 8, !dbg !6566
	store i8*  %60, i8** %..inline.addr.360, align 8, !dbg !6566
	br label %L..inline.70274, !dbg !6566
L..inline.70272:
	%61 = load i8*, i8** %..inline.addr.330, align 8, !dbg !6566
	%62 = load i8*, i8** %..inline.addr.340, align 8, !dbg !6566
	%63 = load i64, i64* %..inline.addr.350, align 8, !dbg !6566
	%64 = call i8*  @memcpy (i8*  %61, i8*  %62, i64  %63) nounwind, !dbg !6566
	store i8*  %64, i8** %..inline.addr.360, align 8, !dbg !6566
	br label %L..inline.70274
L..inline.70274:
	br label %L..inline.70265
L..inline.70265:
	br label %L_T45443936_51894
L_T45443936_51894:
	%65 = load %struct._ZNSt7__cxx1112basic_stringIcSt11char_traitsIcESaIcEEE*, %struct._ZNSt7__cxx1112basic_stringIcSt11char_traitsIcESaIcEEE** %_T45441624_51894.addr, align 8, !dbg !6567
	%66 = bitcast %struct._ZNSt7__cxx1112basic_stringIcSt11char_traitsIcESaIcEEE*  %65 to i8*, !dbg !6567
	%67 = bitcast %struct._ZNSt7__cxx1112basic_stringIcSt11char_traitsIcESaIcEEE** %..inline.addr.370 to i8**, !dbg !6567
	store i8*  %66, i8**  %67, align 8, !dbg !6567
	%68 = load i64, i64* %__dnew.addr, align 8, !dbg !6567
	store i64  %68, i64* %..inline.addr.380, align 8, !dbg !6567
	%69 = load %struct._ZNSt7__cxx1112basic_stringIcSt11char_traitsIcESaIcEEE*, %struct._ZNSt7__cxx1112basic_stringIcSt11char_traitsIcESaIcEEE** %..inline.addr.370, align 8, !dbg !6568
	%70 = bitcast %struct._ZNSt7__cxx1112basic_stringIcSt11char_traitsIcESaIcEEE*  %69 to i8*, !dbg !6568
	%71 = bitcast %struct._ZNSt7__cxx1112basic_stringIcSt11char_traitsIcESaIcEEE** %..inline.addr.390 to i8**, !dbg !6568
	store i8*  %70, i8**  %71, align 8, !dbg !6568
	store i64  %68, i64* %..inline.addr.400, align 8, !dbg !6568
	%72 = load %struct._ZNSt7__cxx1112basic_stringIcSt11char_traitsIcESaIcEEE*, %struct._ZNSt7__cxx1112basic_stringIcSt11char_traitsIcESaIcEEE** %..inline.addr.390, align 8, !dbg !6568
	%73 = bitcast %struct._ZNSt7__cxx1112basic_stringIcSt11char_traitsIcESaIcEEE*  %72 to i8*, !dbg !6568
	%74 = getelementptr i8, i8*  %73, i64 8, !dbg !6568
	%75 = bitcast i8*  %74 to i64*, !dbg !6568
	store i64  %68, i64*  %75, align 8, !dbg !6568
	store i8 0, i8* %..inline.addr.410, align 1, !dbg !6568
	%76 = bitcast %struct._ZNSt7__cxx1112basic_stringIcSt11char_traitsIcESaIcEEE** %..inline.addr.420 to i8**, !dbg !6561
	store i8*  %70, i8**  %76, align 8, !dbg !6561
	%77 = load %struct._ZNSt7__cxx1112basic_stringIcSt11char_traitsIcESaIcEEE*, %struct._ZNSt7__cxx1112basic_stringIcSt11char_traitsIcESaIcEEE** %..inline.addr.420, align 8, !dbg !6561
	%78 = bitcast %struct._ZNSt7__cxx1112basic_stringIcSt11char_traitsIcESaIcEEE*  %77 to i8**, !dbg !6561
	%79 = load i8*, i8**  %78, align 8, !dbg !6561
	%80 = getelementptr i8, i8*  %79, i64  %68, !dbg !6561
	store i8*  %80, i8** %..inline.addr.430, align 8, !dbg !6561
	store i8 0, i8*  %80, align 1, !dbg !6561
	br label %L.R0095, !dbg !6567
L_T45443696_51894:
	%81 = landingpad %astruct.dt64
	catch i8*  null 
	%82 = extractvalue %astruct.dt64  %81, 0, !dbg !6567
	store i8*  %82, i8** %__caught_object_address.addr, align 1, !dbg !6567
	%83 = extractvalue %astruct.dt64  %81, 1, !dbg !6567
	store i32  %83, i32* %__catch_clause_number.addr, align 1, !dbg !6567
	%84 = load i8*, i8** %__caught_object_address.addr, align 8, !dbg !6569
	%85 = call i8*  @__cxa_begin_catch (i8*  %84) nounwind, !dbg !6569
	%86 = load %struct._ZNSt7__cxx1112basic_stringIcSt11char_traitsIcESaIcEEE*, %struct._ZNSt7__cxx1112basic_stringIcSt11char_traitsIcESaIcEEE** %_T45441624_51894.addr, align 8, !dbg !6570
	%87 = bitcast %struct._ZNSt7__cxx1112basic_stringIcSt11char_traitsIcESaIcEEE*  %86 to i8*, !dbg !6570
	%88 = bitcast %struct._ZNSt7__cxx1112basic_stringIcSt11char_traitsIcESaIcEEE** %..inline.addr.460 to i8**, !dbg !6570
	store i8*  %87, i8**  %88, align 8, !dbg !6570
	%89 = load %struct._ZNSt7__cxx1112basic_stringIcSt11char_traitsIcESaIcEEE*, %struct._ZNSt7__cxx1112basic_stringIcSt11char_traitsIcESaIcEEE** %..inline.addr.460, align 8, !dbg !6571
	%90 = bitcast %struct._ZNSt7__cxx1112basic_stringIcSt11char_traitsIcESaIcEEE*  %89 to i8*, !dbg !6571
	%91 = bitcast %struct._ZNSt7__cxx1112basic_stringIcSt11char_traitsIcESaIcEEE** %..inline.addr.470 to i8**, !dbg !6571
	store i8*  %90, i8**  %91, align 8, !dbg !6571
	%92 = load %struct._ZNSt7__cxx1112basic_stringIcSt11char_traitsIcESaIcEEE*, %struct._ZNSt7__cxx1112basic_stringIcSt11char_traitsIcESaIcEEE** %..inline.addr.470, align 8, !dbg !6571
	%93 = bitcast %struct._ZNSt7__cxx1112basic_stringIcSt11char_traitsIcESaIcEEE*  %92 to i8*, !dbg !6571
	%94 = bitcast %struct._ZNSt7__cxx1112basic_stringIcSt11char_traitsIcESaIcEEE** %..inline.addr.480 to i8**, !dbg !6571
	store i8*  %93, i8**  %94, align 8, !dbg !6571
	%95 = bitcast %struct._ZNSt7__cxx1112basic_stringIcSt11char_traitsIcESaIcEEE** %..inline.addr.490 to i8**, !dbg !6571
	store i8*  %93, i8**  %95, align 8, !dbg !6571
	%96 = load %struct._ZNSt7__cxx1112basic_stringIcSt11char_traitsIcESaIcEEE*, %struct._ZNSt7__cxx1112basic_stringIcSt11char_traitsIcESaIcEEE** %..inline.addr.490, align 8, !dbg !6571
	%97 = bitcast %struct._ZNSt7__cxx1112basic_stringIcSt11char_traitsIcESaIcEEE*  %96 to i8*, !dbg !6571
	%98 = getelementptr i8, i8*  %97, i64 16, !dbg !6571
	store i8*  %98, i8** %..inline.addr.500, align 8, !dbg !6571
	store i8*  %98, i8** %..inline.addr.510, align 8, !dbg !6571
	store i8*  %98, i8** %..inline.addr.520, align 8, !dbg !6571
	store i8*  %98, i8** %..inline.addr.530, align 8, !dbg !6571
	store i8*  %98, i8** %..inline.addr.540, align 8, !dbg !6571
	store i8*  %98, i8** %..inline.addr.550, align 8, !dbg !6571
	br label %L..inline.70343, !dbg !6571
L..inline.70343:
	%99 = load %struct._ZNSt7__cxx1112basic_stringIcSt11char_traitsIcESaIcEEE*, %struct._ZNSt7__cxx1112basic_stringIcSt11char_traitsIcESaIcEEE** %..inline.addr.480, align 8, !dbg !6571
	%100 = bitcast %struct._ZNSt7__cxx1112basic_stringIcSt11char_traitsIcESaIcEEE*  %99 to i8**, !dbg !6571
	%101 = load i8*, i8**  %100, align 8, !dbg !6571
	%102 = load i8*, i8** %..inline.addr.550, align 8, !dbg !6571
	%103 = icmp eq i8*  %101,  %102, !dbg !6571
	%104 = zext i1  %103 to i32, !dbg !6571
	%105 = trunc i32  %104 to i8, !dbg !6571
	store i8  %105, i8* %..inline.addr.560, align 1, !dbg !6571
	br label %L..inline.70345, !dbg !6571
L..inline.70345:
	%106 = load i8, i8* %..inline.addr.560, align 1, !dbg !6571
	%107 = sext i8  %106 to i32, !dbg !6571
	%108 = icmp ne i32  %107, 0, !dbg !6571
	br i1  %108, label %L..inline.70346, label %L.B1366, !dbg !6571
L.B1366:
	%109 = load %struct._ZNSt7__cxx1112basic_stringIcSt11char_traitsIcESaIcEEE*, %struct._ZNSt7__cxx1112basic_stringIcSt11char_traitsIcESaIcEEE** %..inline.addr.460, align 8, !dbg !6567
	%110 = bitcast %struct._ZNSt7__cxx1112basic_stringIcSt11char_traitsIcESaIcEEE*  %109 to i8*, !dbg !6567
	%111 = bitcast %struct._ZNSt7__cxx1112basic_stringIcSt11char_traitsIcESaIcEEE** %..inline.addr.570 to i8**, !dbg !6567
	store i8*  %110, i8**  %111, align 8, !dbg !6567
	%112 = getelementptr i8, i8*  %110, i64 16, !dbg !6567
	%113 = bitcast i8*  %112 to i64*, !dbg !6567
	%114 = load i64, i64*  %113, align 8, !dbg !6567
	store i64  %114, i64* %..inline.addr.580, align 8, !dbg !6567
	%115 = load %struct._ZNSt7__cxx1112basic_stringIcSt11char_traitsIcESaIcEEE*, %struct._ZNSt7__cxx1112basic_stringIcSt11char_traitsIcESaIcEEE** %..inline.addr.570, align 8, !dbg !6567
	%116 = bitcast %struct._ZNSt7__cxx1112basic_stringIcSt11char_traitsIcESaIcEEE*  %115 to i8*, !dbg !6567
	%117 = bitcast %struct._ZNSt7__cxx1112basic_stringIcSt11char_traitsIcESaIcEEE** %..inline.addr.590 to i8**, !dbg !6567
	store i8*  %116, i8**  %117, align 8, !dbg !6567
	%118 = bitcast %struct._ZNSt7__cxx1112basic_stringIcSt11char_traitsIcESaIcEEE** %..inline.addr.600 to i8**, !dbg !6567
	store i8*  %116, i8**  %118, align 8, !dbg !6567
	%119 = load %struct._ZNSt7__cxx1112basic_stringIcSt11char_traitsIcESaIcEEE*, %struct._ZNSt7__cxx1112basic_stringIcSt11char_traitsIcESaIcEEE** %..inline.addr.590, align 8, !dbg !6567
	%120 = bitcast %struct._ZNSt7__cxx1112basic_stringIcSt11char_traitsIcESaIcEEE*  %119 to i8*, !dbg !6567
	%121 = bitcast %struct._ZSaIcE** %..inline.addr.610 to i8**, !dbg !6567
	store i8*  %120, i8**  %121, align 8, !dbg !6567
	%122 = load %struct._ZNSt7__cxx1112basic_stringIcSt11char_traitsIcESaIcEEE*, %struct._ZNSt7__cxx1112basic_stringIcSt11char_traitsIcESaIcEEE** %..inline.addr.600, align 8, !dbg !6567
	%123 = bitcast %struct._ZNSt7__cxx1112basic_stringIcSt11char_traitsIcESaIcEEE*  %122 to i8**, !dbg !6567
	%124 = load i8*, i8**  %123, align 8, !dbg !6567
	store i8*  %124, i8** %..inline.addr.620, align 8, !dbg !6567
	%125 = add i64  %114, 1, !dbg !6567
	store i64  %125, i64* %..inline.addr.630, align 8, !dbg !6567
	store i8*  %124, i8** %..inline.addr.640, align 8, !dbg !6567
	call void  @_ZdlPv (i8*  %124) nounwind, !dbg !6567
	br label %L..inline.70346
L..inline.70346:
	invoke void  @__cxa_rethrow () noreturn
		to label %L.B1367
		unwind label %L_T45444056_51894, !dbg !6572
L.B1367:
	br label %L_T45443936_51894, !dbg !6572
L_T45444056_51894:
	%126 = landingpad %astruct.dt64
	cleanup
	%127 = extractvalue %astruct.dt64  %126, 0, !dbg !6573
	store i8*  %127, i8** %__caught_object_address.addr, align 1, !dbg !6573
	%128 = extractvalue %astruct.dt64  %126, 1, !dbg !6573
	store i32  %128, i32* %__catch_clause_number.addr, align 1, !dbg !6573
	call void  @__cxa_end_catch () nounwind, !dbg !6573
	%129 = load i32, i32* %__catch_clause_number.addr, align 4, !dbg !6573
	%130 = load i8*, i8** %__caught_object_address.addr, align 8, !dbg !6573
	%131 = insertvalue %astruct.dt64 undef, i8*  %130, 0, !dbg !6573
	%132 = insertvalue %astruct.dt64  %131, i32  %129, 1, !dbg !6573
	resume %astruct.dt64  %132 , !dbg !6573
L.R0095:
	ret void, !dbg !6558
}
define linkonce_odr void @_ZNSt7__cxx1112basic_stringIcSt11char_traitsIcESaIcEE12_Alloc_hiderC1EPcRKS3_(%struct._ZNSt7__cxx1112basic_stringIcSt11char_traitsIcESaIcEE12_Alloc_hiderE* %_T45441624_51896.arg, i8* %__dat.arg, %struct._ZSaIcE* %__a.arg) #0 inlinehint !dbg !6578 {
L.entry:
	%_T45441624_51896.addr = alloca %struct._ZNSt7__cxx1112basic_stringIcSt11char_traitsIcESaIcEE12_Alloc_hiderE*, align 8
	%__dat.addr = alloca i8*, align 8
	%__a.addr = alloca %struct._ZSaIcE*, align 8

	call void @llvm.dbg.declare (metadata %struct._ZNSt7__cxx1112basic_stringIcSt11char_traitsIcESaIcEE12_Alloc_hiderE** %_T45441624_51896.addr, metadata !6582, metadata !4017), !dbg !6579
	store %struct._ZNSt7__cxx1112basic_stringIcSt11char_traitsIcESaIcEE12_Alloc_hiderE* %_T45441624_51896.arg, %struct._ZNSt7__cxx1112basic_stringIcSt11char_traitsIcESaIcEE12_Alloc_hiderE** %_T45441624_51896.addr, align 8, !tbaa !4032
	call void @llvm.dbg.declare (metadata %struct._ZNSt7__cxx1112basic_stringIcSt11char_traitsIcESaIcEE12_Alloc_hiderE** %_T45441624_51896.addr, metadata !6583, metadata !4017), !dbg !6579
	call void @llvm.dbg.declare (metadata i8** %__dat.addr, metadata !6584, metadata !4017), !dbg !6579
	store i8* %__dat.arg, i8** %__dat.addr, align 8, !tbaa !4032
	call void @llvm.dbg.declare (metadata i8** %__dat.addr, metadata !6585, metadata !4017), !dbg !6579
	call void @llvm.dbg.declare (metadata %struct._ZSaIcE** %__a.addr, metadata !6586, metadata !4017), !dbg !6579
	store %struct._ZSaIcE* %__a.arg, %struct._ZSaIcE** %__a.addr, align 8, !tbaa !4032
	call void @llvm.dbg.declare (metadata %struct._ZSaIcE** %__a.addr, metadata !6587, metadata !4017), !dbg !6579
	%0 = load i8*, i8** %__dat.addr, align 8, !tbaa !4032, !dbg !6588
	%1 = load %struct._ZNSt7__cxx1112basic_stringIcSt11char_traitsIcESaIcEE12_Alloc_hiderE*, %struct._ZNSt7__cxx1112basic_stringIcSt11char_traitsIcESaIcEE12_Alloc_hiderE** %_T45441624_51896.addr, align 8, !tbaa !4032, !dbg !6588
	%2 = bitcast %struct._ZNSt7__cxx1112basic_stringIcSt11char_traitsIcESaIcEE12_Alloc_hiderE*  %1 to i8**, !dbg !6588
	store i8*  %0, i8**  %2, align 8, !tbaa !4032, !dbg !6588
	ret void, !dbg !6588
}
define linkonce_odr void @_ZNSt7__cxx1112basic_stringIcSt11char_traitsIcESaIcEE12_Alloc_hiderC2EPcRKS3_(%struct._ZNSt7__cxx1112basic_stringIcSt11char_traitsIcESaIcEE12_Alloc_hiderE* %_T45441624_51898.arg, i8* %_T45441920_51898.arg, %struct._ZSaIcE* %_T45442216_51898.arg) #0 inlinehint !dbg !6590 {
L.entry:
	%_T45441624_51898.addr = alloca %struct._ZNSt7__cxx1112basic_stringIcSt11char_traitsIcESaIcEE12_Alloc_hiderE*, align 8
	%_T45441920_51898.addr = alloca i8*, align 8
	%_T45442216_51898.addr = alloca %struct._ZSaIcE*, align 8

	store %struct._ZNSt7__cxx1112basic_stringIcSt11char_traitsIcESaIcEE12_Alloc_hiderE* %_T45441624_51898.arg, %struct._ZNSt7__cxx1112basic_stringIcSt11char_traitsIcESaIcEE12_Alloc_hiderE** %_T45441624_51898.addr, align 8, !tbaa !4032
	store i8* %_T45441920_51898.arg, i8** %_T45441920_51898.addr, align 8, !tbaa !4032
	store %struct._ZSaIcE* %_T45442216_51898.arg, %struct._ZSaIcE** %_T45442216_51898.addr, align 8, !tbaa !4032
	%0 = load i8*, i8** %_T45441920_51898.addr, align 8, !tbaa !4032, !dbg !6598
	%1 = load %struct._ZNSt7__cxx1112basic_stringIcSt11char_traitsIcESaIcEE12_Alloc_hiderE*, %struct._ZNSt7__cxx1112basic_stringIcSt11char_traitsIcESaIcEE12_Alloc_hiderE** %_T45441624_51898.addr, align 8, !tbaa !4032, !dbg !6598
	%2 = bitcast %struct._ZNSt7__cxx1112basic_stringIcSt11char_traitsIcESaIcEE12_Alloc_hiderE*  %1 to i8**, !dbg !6598
	store i8*  %0, i8**  %2, align 8, !tbaa !4032, !dbg !6598
	ret void, !dbg !6598
}

%struct._ZN9__gnu_cxx13new_allocatorIcEE = type <{ [1 x i8]}> 

define linkonce_odr void @_ZN9__gnu_cxx13new_allocatorIcE10deallocateEPcm(%struct._ZN9__gnu_cxx13new_allocatorIcEE* %_T45441624_51901.arg, i8* %__p.arg, i64 %_T45442216_51901.arg) #0 inlinehint !dbg !6605 {
L.entry:
	%_T45441624_51901.addr = alloca %struct._ZN9__gnu_cxx13new_allocatorIcEE*, align 8
	%__p.addr = alloca i8*, align 8
	%_T45442216_51901.addr = alloca i64, align 8

	call void @llvm.dbg.declare (metadata %struct._ZN9__gnu_cxx13new_allocatorIcEE** %_T45441624_51901.addr, metadata !6609, metadata !4017), !dbg !6606
	store %struct._ZN9__gnu_cxx13new_allocatorIcEE* %_T45441624_51901.arg, %struct._ZN9__gnu_cxx13new_allocatorIcEE** %_T45441624_51901.addr, align 8, !tbaa !4032
	call void @llvm.dbg.declare (metadata %struct._ZN9__gnu_cxx13new_allocatorIcEE** %_T45441624_51901.addr, metadata !6610, metadata !4017), !dbg !6606
	call void @llvm.dbg.declare (metadata i8** %__p.addr, metadata !6611, metadata !4017), !dbg !6606
	store i8* %__p.arg, i8** %__p.addr, align 8, !tbaa !4032
	call void @llvm.dbg.declare (metadata i8** %__p.addr, metadata !6612, metadata !4017), !dbg !6606
	call void @llvm.dbg.declare (metadata i64* %_T45442216_51901.addr, metadata !6613, metadata !4017), !dbg !6606
	store i64 %_T45442216_51901.arg, i64* %_T45442216_51901.addr, align 8, !tbaa !4033
	call void @llvm.dbg.declare (metadata i64* %_T45442216_51901.addr, metadata !6614, metadata !4017), !dbg !6606
	%0 = load i8*, i8** %__p.addr, align 8, !tbaa !4032, !dbg !6615
	call void  @_ZdlPv (i8*  %0) nounwind, !dbg !6615
	ret void, !dbg !6616
}

%struct._ZN9__gnu_cxx13new_allocatorIjEE = type <{ [1 x i8]}> 

define linkonce_odr void @_ZN9__gnu_cxx13new_allocatorIjE10deallocateEPjm(%struct._ZN9__gnu_cxx13new_allocatorIjEE* %_T45441624_51904.arg, i32* %__p.arg, i64 %_T45442216_51904.arg) #0 inlinehint !dbg !6624 {
L.entry:
	%_T45441624_51904.addr = alloca %struct._ZN9__gnu_cxx13new_allocatorIjEE*, align 8
	%__p.addr = alloca i32*, align 8
	%_T45442216_51904.addr = alloca i64, align 8

	call void @llvm.dbg.declare (metadata %struct._ZN9__gnu_cxx13new_allocatorIjEE** %_T45441624_51904.addr, metadata !6628, metadata !4017), !dbg !6625
	store %struct._ZN9__gnu_cxx13new_allocatorIjEE* %_T45441624_51904.arg, %struct._ZN9__gnu_cxx13new_allocatorIjEE** %_T45441624_51904.addr, align 8, !tbaa !4032
	call void @llvm.dbg.declare (metadata %struct._ZN9__gnu_cxx13new_allocatorIjEE** %_T45441624_51904.addr, metadata !6629, metadata !4017), !dbg !6625
	call void @llvm.dbg.declare (metadata i32** %__p.addr, metadata !6630, metadata !4017), !dbg !6625
	store i32* %__p.arg, i32** %__p.addr, align 8, !tbaa !4032
	call void @llvm.dbg.declare (metadata i32** %__p.addr, metadata !6631, metadata !4017), !dbg !6625
	call void @llvm.dbg.declare (metadata i64* %_T45442216_51904.addr, metadata !6632, metadata !4017), !dbg !6625
	store i64 %_T45442216_51904.arg, i64* %_T45442216_51904.addr, align 8, !tbaa !4033
	call void @llvm.dbg.declare (metadata i64* %_T45442216_51904.addr, metadata !6633, metadata !4017), !dbg !6625
	%0 = load i32*, i32** %__p.addr, align 8, !tbaa !4032, !dbg !6634
	%1 = bitcast i32*  %0 to i8*, !dbg !6634
	call void  @_ZdlPv (i8*  %1) nounwind, !dbg !6634
	ret void, !dbg !6635
}

%struct._ZN9__gnu_cxx13new_allocatorIdEE = type <{ [1 x i8]}> 

define linkonce_odr void @_ZN9__gnu_cxx13new_allocatorIdE10deallocateEPdm(%struct._ZN9__gnu_cxx13new_allocatorIdEE* %_T45441624_51907.arg, double* %__p.arg, i64 %_T45442216_51907.arg) #0 inlinehint !dbg !6643 {
L.entry:
	%_T45441624_51907.addr = alloca %struct._ZN9__gnu_cxx13new_allocatorIdEE*, align 8
	%__p.addr = alloca double*, align 8
	%_T45442216_51907.addr = alloca i64, align 8

	call void @llvm.dbg.declare (metadata %struct._ZN9__gnu_cxx13new_allocatorIdEE** %_T45441624_51907.addr, metadata !6647, metadata !4017), !dbg !6644
	store %struct._ZN9__gnu_cxx13new_allocatorIdEE* %_T45441624_51907.arg, %struct._ZN9__gnu_cxx13new_allocatorIdEE** %_T45441624_51907.addr, align 8, !tbaa !4032
	call void @llvm.dbg.declare (metadata %struct._ZN9__gnu_cxx13new_allocatorIdEE** %_T45441624_51907.addr, metadata !6648, metadata !4017), !dbg !6644
	call void @llvm.dbg.declare (metadata double** %__p.addr, metadata !6649, metadata !4017), !dbg !6644
	store double* %__p.arg, double** %__p.addr, align 8, !tbaa !4032
	call void @llvm.dbg.declare (metadata double** %__p.addr, metadata !6650, metadata !4017), !dbg !6644
	call void @llvm.dbg.declare (metadata i64* %_T45442216_51907.addr, metadata !6651, metadata !4017), !dbg !6644
	store i64 %_T45442216_51907.arg, i64* %_T45442216_51907.addr, align 8, !tbaa !4033
	call void @llvm.dbg.declare (metadata i64* %_T45442216_51907.addr, metadata !6652, metadata !4017), !dbg !6644
	%0 = load double*, double** %__p.addr, align 8, !tbaa !4032, !dbg !6653
	%1 = bitcast double*  %0 to i8*, !dbg !6653
	call void  @_ZdlPv (i8*  %1) nounwind, !dbg !6653
	ret void, !dbg !6654
}

%struct._ZN9__gnu_cxx13new_allocatorIN5vmesh14MeshParametersEEE = type <{ [1 x i8]}> 

define linkonce_odr void @_ZN9__gnu_cxx13new_allocatorIN5vmesh14MeshParametersEE10deallocateEPS2_m(%struct._ZN9__gnu_cxx13new_allocatorIN5vmesh14MeshParametersEEE* %_T45441624_51910.arg, %struct._ZN5vmesh14MeshParametersE* %__p.arg, i64 %_T45442216_51910.arg) #0 inlinehint !dbg !6662 {
L.entry:
	%_T45441624_51910.addr = alloca %struct._ZN9__gnu_cxx13new_allocatorIN5vmesh14MeshParametersEEE*, align 8
	%__p.addr = alloca %struct._ZN5vmesh14MeshParametersE*, align 8
	%_T45442216_51910.addr = alloca i64, align 8

	call void @llvm.dbg.declare (metadata %struct._ZN9__gnu_cxx13new_allocatorIN5vmesh14MeshParametersEEE** %_T45441624_51910.addr, metadata !6666, metadata !4017), !dbg !6663
	store %struct._ZN9__gnu_cxx13new_allocatorIN5vmesh14MeshParametersEEE* %_T45441624_51910.arg, %struct._ZN9__gnu_cxx13new_allocatorIN5vmesh14MeshParametersEEE** %_T45441624_51910.addr, align 8, !tbaa !4032
	call void @llvm.dbg.declare (metadata %struct._ZN9__gnu_cxx13new_allocatorIN5vmesh14MeshParametersEEE** %_T45441624_51910.addr, metadata !6667, metadata !4017), !dbg !6663
	call void @llvm.dbg.declare (metadata %struct._ZN5vmesh14MeshParametersE** %__p.addr, metadata !6668, metadata !4017), !dbg !6663
	store %struct._ZN5vmesh14MeshParametersE* %__p.arg, %struct._ZN5vmesh14MeshParametersE** %__p.addr, align 8, !tbaa !4032
	call void @llvm.dbg.declare (metadata %struct._ZN5vmesh14MeshParametersE** %__p.addr, metadata !6669, metadata !4017), !dbg !6663
	call void @llvm.dbg.declare (metadata i64* %_T45442216_51910.addr, metadata !6670, metadata !4017), !dbg !6663
	store i64 %_T45442216_51910.arg, i64* %_T45442216_51910.addr, align 8, !tbaa !4033
	call void @llvm.dbg.declare (metadata i64* %_T45442216_51910.addr, metadata !6671, metadata !4017), !dbg !6663
	%0 = load %struct._ZN5vmesh14MeshParametersE*, %struct._ZN5vmesh14MeshParametersE** %__p.addr, align 8, !tbaa !4032, !dbg !6672
	%1 = bitcast %struct._ZN5vmesh14MeshParametersE*  %0 to i8*, !dbg !6672
	call void  @_ZdlPv (i8*  %1) nounwind, !dbg !6672
	ret void, !dbg !6673
}
define linkonce_odr void @_ZN5vmesh14MeshParametersD1Ev(%struct._ZN5vmesh14MeshParametersE* %_T45441624_51911.arg) #0 inlinehint !dbg !6679 {
L.entry:
	%_T45441624_51911.addr = alloca %struct._ZN5vmesh14MeshParametersE*, align 8
	%..inline.addr = alloca %struct._ZSt12_Vector_baseIjSaIjEE*, align 8
	%..inline.addr.1 = alloca i32*, align 8
	%..inline.addr.2 = alloca %struct._ZSt12_Vector_baseIdSaIdEE*, align 8
	%..inline.addr.3 = alloca double*, align 8
	%..inline.addr.4 = alloca %struct._ZSt12_Vector_baseIdSaIdEE*, align 8
	%..inline.addr.5 = alloca double*, align 8
	%..inline.addr.6 = alloca %struct._ZSt12_Vector_baseIjSaIjEE*, align 8
	%..inline.addr.7 = alloca i32*, align 8
	%..inline.addr.8 = alloca i8*, align 8

	call void @llvm.dbg.declare (metadata %struct._ZN5vmesh14MeshParametersE** %_T45441624_51911.addr, metadata !6943, metadata !4017), !dbg !6680
	store %struct._ZN5vmesh14MeshParametersE* %_T45441624_51911.arg, %struct._ZN5vmesh14MeshParametersE** %_T45441624_51911.addr, align 8, !tbaa !4032
	call void @llvm.dbg.declare (metadata %struct._ZN5vmesh14MeshParametersE** %_T45441624_51911.addr, metadata !6944, metadata !4017), !dbg !6680
	%0 = load %struct._ZN5vmesh14MeshParametersE*, %struct._ZN5vmesh14MeshParametersE** %_T45441624_51911.addr, align 8, !tbaa !4032, !dbg !6945
	%1 = bitcast %struct._ZN5vmesh14MeshParametersE*  %0 to i8*, !dbg !6945
	%2 = getelementptr i8, i8*  %1, i64 312, !dbg !6945
	%3 = bitcast %struct._ZSt12_Vector_baseIjSaIjEE** %..inline.addr to i8**, !dbg !6945
	store i8*  %2, i8**  %3, align 8, !tbaa !4032, !dbg !6945
	%4 = load %struct._ZSt12_Vector_baseIjSaIjEE*, %struct._ZSt12_Vector_baseIjSaIjEE** %..inline.addr, align 8, !tbaa !4032, !dbg !6945
	%5 = bitcast %struct._ZSt12_Vector_baseIjSaIjEE*  %4 to i8**, !dbg !6945
	%6 = load i8*, i8**  %5, align 8, !tbaa !4032, !dbg !6945
	%7 = icmp eq i8*  %6,  null, !dbg !6945
	br i1  %7, label %L..inline.70531, label %L.B1380, !dbg !6945
L.B1380:
	%8 = bitcast %struct._ZSt12_Vector_baseIjSaIjEE*  %4 to i8**, !dbg !6945
	%9 = load i8*, i8**  %8, align 8, !tbaa !4032, !dbg !6945
	%10 = bitcast i32** %..inline.addr.1 to i8**, !dbg !6945
	store i8*  %9, i8**  %10, align 8, !tbaa !4032, !dbg !6945
	%11 = load i32*, i32** %..inline.addr.1, align 8, !tbaa !4032, !dbg !6945
	%12 = bitcast i32*  %11 to i8*, !dbg !6945
	call void  @_ZdlPv (i8*  %12) nounwind, !dbg !6945
	br label %L..inline.70531
L..inline.70531:
	%13 = load %struct._ZN5vmesh14MeshParametersE*, %struct._ZN5vmesh14MeshParametersE** %_T45441624_51911.addr, align 8, !tbaa !4032, !dbg !6945
	%14 = bitcast %struct._ZN5vmesh14MeshParametersE*  %13 to i8*, !dbg !6945
	%15 = getelementptr i8, i8*  %14, i64 288, !dbg !6945
	%16 = bitcast %struct._ZSt12_Vector_baseIdSaIdEE** %..inline.addr.2 to i8**, !dbg !6945
	store i8*  %15, i8**  %16, align 8, !tbaa !4032, !dbg !6945
	%17 = load %struct._ZSt12_Vector_baseIdSaIdEE*, %struct._ZSt12_Vector_baseIdSaIdEE** %..inline.addr.2, align 8, !tbaa !4032, !dbg !6945
	%18 = bitcast %struct._ZSt12_Vector_baseIdSaIdEE*  %17 to i8**, !dbg !6945
	%19 = load i8*, i8**  %18, align 8, !tbaa !4032, !dbg !6945
	%20 = icmp eq i8*  %19,  null, !dbg !6945
	br i1  %20, label %L..inline.70609, label %L.B1381, !dbg !6945
L.B1381:
	%21 = bitcast %struct._ZSt12_Vector_baseIdSaIdEE*  %17 to i8**, !dbg !6945
	%22 = load i8*, i8**  %21, align 8, !tbaa !4032, !dbg !6945
	%23 = bitcast double** %..inline.addr.3 to i8**, !dbg !6945
	store i8*  %22, i8**  %23, align 8, !tbaa !4032, !dbg !6945
	%24 = load double*, double** %..inline.addr.3, align 8, !tbaa !4032, !dbg !6945
	%25 = bitcast double*  %24 to i8*, !dbg !6945
	call void  @_ZdlPv (i8*  %25) nounwind, !dbg !6945
	br label %L..inline.70609
L..inline.70609:
	%26 = load %struct._ZN5vmesh14MeshParametersE*, %struct._ZN5vmesh14MeshParametersE** %_T45441624_51911.addr, align 8, !tbaa !4032, !dbg !6945
	%27 = bitcast %struct._ZN5vmesh14MeshParametersE*  %26 to i8*, !dbg !6945
	%28 = getelementptr i8, i8*  %27, i64 264, !dbg !6945
	%29 = bitcast %struct._ZSt12_Vector_baseIdSaIdEE** %..inline.addr.4 to i8**, !dbg !6945
	store i8*  %28, i8**  %29, align 8, !tbaa !4032, !dbg !6945
	%30 = load %struct._ZSt12_Vector_baseIdSaIdEE*, %struct._ZSt12_Vector_baseIdSaIdEE** %..inline.addr.4, align 8, !tbaa !4032, !dbg !6945
	%31 = bitcast %struct._ZSt12_Vector_baseIdSaIdEE*  %30 to i8**, !dbg !6945
	%32 = load i8*, i8**  %31, align 8, !tbaa !4032, !dbg !6945
	%33 = icmp eq i8*  %32,  null, !dbg !6945
	br i1  %33, label %L..inline.70687, label %L.B1382, !dbg !6945
L.B1382:
	%34 = bitcast %struct._ZSt12_Vector_baseIdSaIdEE*  %30 to i8**, !dbg !6945
	%35 = load i8*, i8**  %34, align 8, !tbaa !4032, !dbg !6945
	%36 = bitcast double** %..inline.addr.5 to i8**, !dbg !6945
	store i8*  %35, i8**  %36, align 8, !tbaa !4032, !dbg !6945
	%37 = load double*, double** %..inline.addr.5, align 8, !tbaa !4032, !dbg !6945
	%38 = bitcast double*  %37 to i8*, !dbg !6945
	call void  @_ZdlPv (i8*  %38) nounwind, !dbg !6945
	br label %L..inline.70687
L..inline.70687:
	%39 = load %struct._ZN5vmesh14MeshParametersE*, %struct._ZN5vmesh14MeshParametersE** %_T45441624_51911.addr, align 8, !tbaa !4032, !dbg !6945
	%40 = bitcast %struct._ZN5vmesh14MeshParametersE*  %39 to i8*, !dbg !6945
	%41 = getelementptr i8, i8*  %40, i64 240, !dbg !6945
	%42 = bitcast %struct._ZSt12_Vector_baseIjSaIjEE** %..inline.addr.6 to i8**, !dbg !6945
	store i8*  %41, i8**  %42, align 8, !tbaa !4032, !dbg !6945
	%43 = load %struct._ZSt12_Vector_baseIjSaIjEE*, %struct._ZSt12_Vector_baseIjSaIjEE** %..inline.addr.6, align 8, !tbaa !4032, !dbg !6945
	%44 = bitcast %struct._ZSt12_Vector_baseIjSaIjEE*  %43 to i8**, !dbg !6945
	%45 = load i8*, i8**  %44, align 8, !tbaa !4032, !dbg !6945
	%46 = icmp eq i8*  %45,  null, !dbg !6945
	br i1  %46, label %L..inline.70765, label %L.B1383, !dbg !6945
L.B1383:
	%47 = bitcast %struct._ZSt12_Vector_baseIjSaIjEE*  %43 to i8**, !dbg !6945
	%48 = load i8*, i8**  %47, align 8, !tbaa !4032, !dbg !6945
	%49 = bitcast i32** %..inline.addr.7 to i8**, !dbg !6945
	store i8*  %48, i8**  %49, align 8, !tbaa !4032, !dbg !6945
	%50 = load i32*, i32** %..inline.addr.7, align 8, !tbaa !4032, !dbg !6945
	%51 = bitcast i32*  %50 to i8*, !dbg !6945
	call void  @_ZdlPv (i8*  %51) nounwind, !dbg !6945
	br label %L..inline.70765
L..inline.70765:
	%52 = load %struct._ZN5vmesh14MeshParametersE*, %struct._ZN5vmesh14MeshParametersE** %_T45441624_51911.addr, align 8, !tbaa !4032, !dbg !6946
	%53 = bitcast %struct._ZN5vmesh14MeshParametersE*  %52 to i8**, !dbg !6946
	%54 = load i8*, i8**  %53, align 8, !tbaa !4032, !dbg !6946
	%55 = bitcast %struct._ZN5vmesh14MeshParametersE*  %52 to i8*, !dbg !6946
	%56 = getelementptr i8, i8*  %55, i64 16, !dbg !6946
	%57 = icmp eq i8*  %54,  %56, !dbg !6946
	br i1  %57, label %L..inline.70846, label %L.B1384, !dbg !6946
L.B1384:
	%58 = bitcast %struct._ZN5vmesh14MeshParametersE*  %52 to i8**, !dbg !6946
	%59 = load i8*, i8**  %58, align 8, !tbaa !4032, !dbg !6946
	call void  @_ZdlPv (i8*  %59) nounwind, !dbg !6946
	br label %L..inline.70846
L..inline.70846:
	ret void, !dbg !6946
}
define linkonce_odr void @_ZN5vmesh14MeshParametersD2Ev(%struct._ZN5vmesh14MeshParametersE* %_T45441624_51912.arg) #0 inlinehint !dbg !6948 {
L.entry:
	%_T45441624_51912.addr = alloca %struct._ZN5vmesh14MeshParametersE*, align 8

	store %struct._ZN5vmesh14MeshParametersE* %_T45441624_51912.arg, %struct._ZN5vmesh14MeshParametersE** %_T45441624_51912.addr, align 8, !tbaa !4032
	%0 = load %struct._ZN5vmesh14MeshParametersE*, %struct._ZN5vmesh14MeshParametersE** %_T45441624_51912.addr, align 8, !tbaa !4032, !dbg !6952
	call void  @_ZN5vmesh14MeshParametersD1Ev (%struct._ZN5vmesh14MeshParametersE*  %0) nounwind, !dbg !6952
	ret void, !dbg !6952
}

%struct._ZN3MPI8DatatypeE = type <{ i32 (...)* (...)*, %struct.ompi_datatype_t*}> 

define linkonce_odr void @_ZN3MPI8DatatypeD1Ev(%struct._ZN3MPI8DatatypeE* %_T45441624_51913.arg) #0 inlinehint !dbg !6956 {
L.entry:
	%_T45441624_51913.addr = alloca %struct._ZN3MPI8DatatypeE*, align 8

	call void @llvm.dbg.declare (metadata %struct._ZN3MPI8DatatypeE** %_T45441624_51913.addr, metadata !6960, metadata !4017), !dbg !6957
	store %struct._ZN3MPI8DatatypeE* %_T45441624_51913.arg, %struct._ZN3MPI8DatatypeE** %_T45441624_51913.addr, align 8, !tbaa !4032
	call void @llvm.dbg.declare (metadata %struct._ZN3MPI8DatatypeE** %_T45441624_51913.addr, metadata !6961, metadata !4017), !dbg !6957
	%0 = bitcast [32 x i32 (...)* (...)*]* @_ZTVN3MPI8DatatypeE to i8*, !dbg !6962
	%1 = getelementptr i8, i8*  %0, i64 16, !dbg !6962
	%2 = load %struct._ZN3MPI8DatatypeE*, %struct._ZN3MPI8DatatypeE** %_T45441624_51913.addr, align 8, !tbaa !4032, !dbg !6962
	%3 = bitcast %struct._ZN3MPI8DatatypeE*  %2 to i8**, !dbg !6962
	store i8*  %1, i8**  %3, align 8, !tbaa !4032, !dbg !6962
	ret void, !dbg !6962
}
define linkonce_odr void @_ZN3MPI8DatatypeD0Ev(%struct._ZN3MPI8DatatypeE* %_T45441624_51914.arg) #0 inlinehint !dbg !6967 {
L.entry:
	%_T45441624_51914.addr = alloca %struct._ZN3MPI8DatatypeE*, align 8

	store %struct._ZN3MPI8DatatypeE* %_T45441624_51914.arg, %struct._ZN3MPI8DatatypeE** %_T45441624_51914.addr, align 8, !tbaa !4032
	%0 = bitcast [32 x i32 (...)* (...)*]* @_ZTVN3MPI8DatatypeE to i8*, !dbg !6975
	%1 = getelementptr i8, i8*  %0, i64 16, !dbg !6975
	%2 = load %struct._ZN3MPI8DatatypeE*, %struct._ZN3MPI8DatatypeE** %_T45441624_51914.addr, align 8, !tbaa !4032, !dbg !6975
	%3 = bitcast %struct._ZN3MPI8DatatypeE*  %2 to i8**, !dbg !6975
	store i8*  %1, i8**  %3, align 8, !tbaa !4032, !dbg !6975
	%4 = bitcast %struct._ZN3MPI8DatatypeE*  %2 to i8*, !dbg !6975
	call void  @_ZdlPvm (i8*  %4, i64 16) nounwind, !dbg !6975
	ret void, !dbg !6975
}
define linkonce_odr void @_ZN3MPI8DatatypeD2Ev(%struct._ZN3MPI8DatatypeE* %_T45441624_51915.arg) #0 inlinehint !dbg !6977 {
L.entry:
	%_T45441624_51915.addr = alloca %struct._ZN3MPI8DatatypeE*, align 8

	store %struct._ZN3MPI8DatatypeE* %_T45441624_51915.arg, %struct._ZN3MPI8DatatypeE** %_T45441624_51915.addr, align 8, !tbaa !4032
	%0 = bitcast [32 x i32 (...)* (...)*]* @_ZTVN3MPI8DatatypeE to i8*, !dbg !6985
	%1 = getelementptr i8, i8*  %0, i64 16, !dbg !6985
	%2 = load %struct._ZN3MPI8DatatypeE*, %struct._ZN3MPI8DatatypeE** %_T45441624_51915.addr, align 8, !tbaa !4032, !dbg !6985
	%3 = bitcast %struct._ZN3MPI8DatatypeE*  %2 to i8**, !dbg !6985
	store i8*  %1, i8**  %3, align 8, !tbaa !4032, !dbg !6985
	ret void, !dbg !6985
}
define linkonce_odr void @_ZN3MPI8DatatypeC1EP15ompi_datatype_t(%struct._ZN3MPI8DatatypeE* %_T45441624_51917.arg, %struct.ompi_datatype_t* %i.arg) #0 inlinehint !dbg !6989 {
L.entry:
	%_T45441624_51917.addr = alloca %struct._ZN3MPI8DatatypeE*, align 8
	%i.addr = alloca %struct.ompi_datatype_t*, align 8

	call void @llvm.dbg.declare (metadata %struct._ZN3MPI8DatatypeE** %_T45441624_51917.addr, metadata !6993, metadata !4017), !dbg !6990
	store %struct._ZN3MPI8DatatypeE* %_T45441624_51917.arg, %struct._ZN3MPI8DatatypeE** %_T45441624_51917.addr, align 8, !tbaa !4032
	call void @llvm.dbg.declare (metadata %struct._ZN3MPI8DatatypeE** %_T45441624_51917.addr, metadata !6994, metadata !4017), !dbg !6990
	call void @llvm.dbg.declare (metadata %struct.ompi_datatype_t** %i.addr, metadata !6995, metadata !4017), !dbg !6990
	store %struct.ompi_datatype_t* %i.arg, %struct.ompi_datatype_t** %i.addr, align 8, !tbaa !4032
	call void @llvm.dbg.declare (metadata %struct.ompi_datatype_t** %i.addr, metadata !6996, metadata !4017), !dbg !6990
	%0 = bitcast [32 x i32 (...)* (...)*]* @_ZTVN3MPI8DatatypeE to i8*, !dbg !6997
	%1 = getelementptr i8, i8*  %0, i64 16, !dbg !6997
	%2 = load %struct._ZN3MPI8DatatypeE*, %struct._ZN3MPI8DatatypeE** %_T45441624_51917.addr, align 8, !tbaa !4032, !dbg !6997
	%3 = bitcast %struct._ZN3MPI8DatatypeE*  %2 to i8**, !dbg !6997
	store i8*  %1, i8**  %3, align 8, !tbaa !4032, !dbg !6997
	%4 = load %struct.ompi_datatype_t*, %struct.ompi_datatype_t** %i.addr, align 8, !tbaa !4032, !dbg !6997
	%5 = bitcast %struct.ompi_datatype_t*  %4 to i8*, !dbg !6997
	%6 = bitcast %struct._ZN3MPI8DatatypeE*  %2 to i8*, !dbg !6997
	%7 = getelementptr i8, i8*  %6, i64 8, !dbg !6997
	%8 = bitcast i8*  %7 to i8**, !dbg !6997
	store i8*  %5, i8**  %8, align 8, !tbaa !4032, !dbg !6997
	ret void, !dbg !6997
}
define linkonce_odr void @_ZN3MPI8DatatypeC2EP15ompi_datatype_t(%struct._ZN3MPI8DatatypeE* %_T45441624_51919.arg, %struct.ompi_datatype_t* %_T45441920_51919.arg) #0 inlinehint !dbg !6999 {
L.entry:
	%_T45441624_51919.addr = alloca %struct._ZN3MPI8DatatypeE*, align 8
	%_T45441920_51919.addr = alloca %struct.ompi_datatype_t*, align 8
	%..inline.addr = alloca %struct._ZN3MPI8DatatypeE*, align 8
	%..inline.addr.1 = alloca %struct.ompi_datatype_t*, align 8

	store %struct._ZN3MPI8DatatypeE* %_T45441624_51919.arg, %struct._ZN3MPI8DatatypeE** %_T45441624_51919.addr, align 8, !tbaa !4032
	store %struct.ompi_datatype_t* %_T45441920_51919.arg, %struct.ompi_datatype_t** %_T45441920_51919.addr, align 8, !tbaa !4032
	%0 = load %struct._ZN3MPI8DatatypeE*, %struct._ZN3MPI8DatatypeE** %_T45441624_51919.addr, align 8, !tbaa !4032, !dbg !7007
	%1 = bitcast %struct._ZN3MPI8DatatypeE*  %0 to i8*, !dbg !7007
	%2 = bitcast %struct._ZN3MPI8DatatypeE** %..inline.addr to i8**, !dbg !7007
	store i8*  %1, i8**  %2, align 8, !tbaa !4032, !dbg !7007
	%3 = load %struct.ompi_datatype_t*, %struct.ompi_datatype_t** %_T45441920_51919.addr, align 8, !tbaa !4032, !dbg !7007
	%4 = bitcast %struct.ompi_datatype_t*  %3 to i8*, !dbg !7007
	%5 = bitcast %struct.ompi_datatype_t** %..inline.addr.1 to i8**, !dbg !7007
	store i8*  %4, i8**  %5, align 8, !tbaa !4032, !dbg !7007
	%6 = bitcast [32 x i32 (...)* (...)*]* @_ZTVN3MPI8DatatypeE to i8*, !dbg !7007
	%7 = getelementptr i8, i8*  %6, i64 16, !dbg !7007
	%8 = load %struct._ZN3MPI8DatatypeE*, %struct._ZN3MPI8DatatypeE** %..inline.addr, align 8, !tbaa !4032, !dbg !7007
	%9 = bitcast %struct._ZN3MPI8DatatypeE*  %8 to i8**, !dbg !7007
	store i8*  %7, i8**  %9, align 8, !tbaa !4032, !dbg !7007
	%10 = load %struct.ompi_datatype_t*, %struct.ompi_datatype_t** %..inline.addr.1, align 8, !tbaa !4032, !dbg !7007
	%11 = bitcast %struct.ompi_datatype_t*  %10 to i8*, !dbg !7007
	%12 = bitcast %struct._ZN3MPI8DatatypeE*  %8 to i8*, !dbg !7007
	%13 = getelementptr i8, i8*  %12, i64 8, !dbg !7007
	%14 = bitcast i8*  %13 to i8**, !dbg !7007
	store i8*  %11, i8**  %14, align 8, !tbaa !4032, !dbg !7007
	ret void, !dbg !7007
}
define linkonce_odr %struct._ZN3MPI8DatatypeE* @_ZN3MPI8DatatypeaSERKP15ompi_datatype_t(%struct._ZN3MPI8DatatypeE* %_T45441624_51920.arg, %struct.ompi_datatype_t** %i.arg) #0 inlinehint !dbg !7015 {
L.entry:
	%_T45441624_51920.addr = alloca %struct._ZN3MPI8DatatypeE*, align 8
	%i.addr = alloca %struct.ompi_datatype_t**, align 8

	call void @llvm.dbg.declare (metadata %struct._ZN3MPI8DatatypeE** %_T45441624_51920.addr, metadata !7019, metadata !4017), !dbg !7016
	store %struct._ZN3MPI8DatatypeE* %_T45441624_51920.arg, %struct._ZN3MPI8DatatypeE** %_T45441624_51920.addr, align 8, !tbaa !4032
	call void @llvm.dbg.declare (metadata %struct._ZN3MPI8DatatypeE** %_T45441624_51920.addr, metadata !7020, metadata !4017), !dbg !7016
	call void @llvm.dbg.declare (metadata %struct.ompi_datatype_t*** %i.addr, metadata !7021, metadata !4017), !dbg !7016
	store %struct.ompi_datatype_t** %i.arg, %struct.ompi_datatype_t*** %i.addr, align 8, !tbaa !4032
	call void @llvm.dbg.declare (metadata %struct.ompi_datatype_t*** %i.addr, metadata !7022, metadata !4017), !dbg !7016
	%0 = load %struct.ompi_datatype_t**, %struct.ompi_datatype_t*** %i.addr, align 8, !tbaa !4032, !dbg !7023
	%1 = bitcast %struct.ompi_datatype_t**  %0 to i8**, !dbg !7023
	%2 = load i8*, i8**  %1, align 8, !tbaa !4032, !dbg !7023
	%3 = load %struct._ZN3MPI8DatatypeE*, %struct._ZN3MPI8DatatypeE** %_T45441624_51920.addr, align 8, !tbaa !4032, !dbg !7023
	%4 = bitcast %struct._ZN3MPI8DatatypeE*  %3 to i8*, !dbg !7023
	%5 = getelementptr i8, i8*  %4, i64 8, !dbg !7023
	%6 = bitcast i8*  %5 to i8**, !dbg !7023
	store i8*  %2, i8**  %6, align 8, !tbaa !4032, !dbg !7023
	ret %struct._ZN3MPI8DatatypeE*  %3, !dbg !7023
}
define linkonce_odr %struct.ompi_datatype_t* @_ZNK3MPI8DatatypecvP15ompi_datatype_tEv(%struct._ZN3MPI8DatatypeE* %_T45441624_51922.arg) #0 inlinehint !dbg !7027 {
L.entry:
	%_T45441624_51922.addr = alloca %struct._ZN3MPI8DatatypeE*, align 8

	call void @llvm.dbg.declare (metadata %struct._ZN3MPI8DatatypeE** %_T45441624_51922.addr, metadata !7031, metadata !4017), !dbg !7028
	store %struct._ZN3MPI8DatatypeE* %_T45441624_51922.arg, %struct._ZN3MPI8DatatypeE** %_T45441624_51922.addr, align 8, !tbaa !4032
	call void @llvm.dbg.declare (metadata %struct._ZN3MPI8DatatypeE** %_T45441624_51922.addr, metadata !7032, metadata !4017), !dbg !7028
	%0 = load %struct._ZN3MPI8DatatypeE*, %struct._ZN3MPI8DatatypeE** %_T45441624_51922.addr, align 8, !tbaa !4032, !dbg !7033
	%1 = bitcast %struct._ZN3MPI8DatatypeE*  %0 to i8*, !dbg !7033
	%2 = getelementptr i8, i8*  %1, i64 8, !dbg !7033
	%3 = bitcast i8*  %2 to %struct.ompi_datatype_t**, !dbg !7033
	%4 = load %struct.ompi_datatype_t*, %struct.ompi_datatype_t**  %3, align 8, !tbaa !4032, !dbg !7033
	ret %struct.ompi_datatype_t*  %4, !dbg !7033
}
define linkonce_odr void @_ZNK3MPI8Datatype17Create_contiguousEi(%struct._ZN3MPI8DatatypeE* sret %_T45441624_51923.arg, %struct._ZN3MPI8DatatypeE* %_T45441920_51923.arg, i32 signext %count.arg) #0 inlinehint !dbg !7037 {
L.entry:
	%_T45441624_51923.addr = alloca %struct._ZN3MPI8DatatypeE*, align 8
	%_T45441920_51923.addr = alloca %struct._ZN3MPI8DatatypeE*, align 8
	%count.addr = alloca i32, align 4
	%newtype.addr = alloca %struct.ompi_datatype_t*, align 8
	%..inline.addr = alloca %struct._ZN3MPI8DatatypeE*, align 8
	%..inline.addr.1 = alloca %struct.ompi_datatype_t*, align 8

	store %struct._ZN3MPI8DatatypeE* %_T45441624_51923.arg, %struct._ZN3MPI8DatatypeE** %_T45441624_51923.addr, align 8, !tbaa !4032
	call void @llvm.dbg.declare (metadata %struct._ZN3MPI8DatatypeE** %_T45441920_51923.addr, metadata !7045, metadata !4017), !dbg !7038
	store %struct._ZN3MPI8DatatypeE* %_T45441920_51923.arg, %struct._ZN3MPI8DatatypeE** %_T45441920_51923.addr, align 8, !tbaa !4032
	call void @llvm.dbg.declare (metadata %struct._ZN3MPI8DatatypeE** %_T45441920_51923.addr, metadata !7046, metadata !4017), !dbg !7038
	call void @llvm.dbg.declare (metadata i32* %count.addr, metadata !7047, metadata !4017), !dbg !7038
	store i32 %count.arg, i32* %count.addr, align 4, !tbaa !4033
	call void @llvm.dbg.declare (metadata i32* %count.addr, metadata !7048, metadata !4017), !dbg !7038
	%0 = load i32, i32* %count.addr, align 4, !tbaa !4037, !dbg !7049
	%1 = load %struct._ZN3MPI8DatatypeE*, %struct._ZN3MPI8DatatypeE** %_T45441920_51923.addr, align 8, !tbaa !4032, !dbg !7049
	%2 = bitcast %struct._ZN3MPI8DatatypeE*  %1 to i8*, !dbg !7049
	%3 = getelementptr i8, i8*  %2, i64 8, !dbg !7049
	%4 = bitcast i8*  %3 to %struct.ompi_datatype_t**, !dbg !7049
	%5 = load %struct.ompi_datatype_t*, %struct.ompi_datatype_t**  %4, align 8, !tbaa !4032, !dbg !7049
	call void @llvm.dbg.declare (metadata %struct.ompi_datatype_t** %newtype.addr, metadata !7050, metadata !4017), !dbg !7038
	%6 = call i32  @MPI_Type_contiguous (i32  %0, %struct.ompi_datatype_t*  %5, %struct.ompi_datatype_t** %newtype.addr) nounwind, !dbg !7049
	%7 = load %struct._ZN3MPI8DatatypeE*, %struct._ZN3MPI8DatatypeE** %_T45441624_51923.addr, align 8, !tbaa !4032, !dbg !7051
	%8 = bitcast %struct._ZN3MPI8DatatypeE*  %7 to i8*, !dbg !7051
	%9 = bitcast %struct._ZN3MPI8DatatypeE** %..inline.addr to i8**, !dbg !7051
	store i8*  %8, i8**  %9, align 8, !tbaa !4032, !dbg !7051
	%10 = load %struct.ompi_datatype_t*, %struct.ompi_datatype_t** %newtype.addr, align 8, !tbaa !4032, !dbg !7051
	%11 = bitcast %struct.ompi_datatype_t*  %10 to i8*, !dbg !7051
	%12 = bitcast %struct.ompi_datatype_t** %..inline.addr.1 to i8**, !dbg !7051
	store i8*  %11, i8**  %12, align 8, !tbaa !4032, !dbg !7051
	%13 = bitcast [32 x i32 (...)* (...)*]* @_ZTVN3MPI8DatatypeE to i8*, !dbg !7051
	%14 = getelementptr i8, i8*  %13, i64 16, !dbg !7051
	%15 = load %struct._ZN3MPI8DatatypeE*, %struct._ZN3MPI8DatatypeE** %..inline.addr, align 8, !tbaa !4032, !dbg !7051
	%16 = bitcast %struct._ZN3MPI8DatatypeE*  %15 to i8**, !dbg !7051
	store i8*  %14, i8**  %16, align 8, !tbaa !4032, !dbg !7051
	%17 = load %struct.ompi_datatype_t*, %struct.ompi_datatype_t** %..inline.addr.1, align 8, !tbaa !4032, !dbg !7052
	%18 = bitcast %struct.ompi_datatype_t*  %17 to i8*, !dbg !7052
	%19 = bitcast %struct._ZN3MPI8DatatypeE*  %15 to i8*, !dbg !7052
	%20 = getelementptr i8, i8*  %19, i64 8, !dbg !7052
	%21 = bitcast i8*  %20 to i8**, !dbg !7052
	store i8*  %18, i8**  %21, align 8, !tbaa !4032, !dbg !7052
	ret void, !dbg !7053
}
define linkonce_odr void @_ZNK3MPI8Datatype13Create_vectorEiii(%struct._ZN3MPI8DatatypeE* sret %_T45441624_51924.arg, %struct._ZN3MPI8DatatypeE* %_T45441920_51924.arg, i32 signext %count.arg, i32 signext %blocklength.arg, i32 signext %stride.arg) #0 inlinehint !dbg !7055 {
L.entry:
	%_T45441624_51924.addr = alloca %struct._ZN3MPI8DatatypeE*, align 8
	%_T45441920_51924.addr = alloca %struct._ZN3MPI8DatatypeE*, align 8
	%count.addr = alloca i32, align 4
	%blocklength.addr = alloca i32, align 4
	%stride.addr = alloca i32, align 4
	%newtype.addr = alloca %struct.ompi_datatype_t*, align 8
	%..inline.addr = alloca %struct._ZN3MPI8DatatypeE*, align 8
	%..inline.addr.1 = alloca %struct.ompi_datatype_t*, align 8

	store %struct._ZN3MPI8DatatypeE* %_T45441624_51924.arg, %struct._ZN3MPI8DatatypeE** %_T45441624_51924.addr, align 8, !tbaa !4032
	call void @llvm.dbg.declare (metadata %struct._ZN3MPI8DatatypeE** %_T45441920_51924.addr, metadata !7063, metadata !4017), !dbg !7056
	store %struct._ZN3MPI8DatatypeE* %_T45441920_51924.arg, %struct._ZN3MPI8DatatypeE** %_T45441920_51924.addr, align 8, !tbaa !4032
	call void @llvm.dbg.declare (metadata %struct._ZN3MPI8DatatypeE** %_T45441920_51924.addr, metadata !7064, metadata !4017), !dbg !7056
	call void @llvm.dbg.declare (metadata i32* %count.addr, metadata !7065, metadata !4017), !dbg !7056
	store i32 %count.arg, i32* %count.addr, align 4, !tbaa !4033
	call void @llvm.dbg.declare (metadata i32* %count.addr, metadata !7066, metadata !4017), !dbg !7056
	call void @llvm.dbg.declare (metadata i32* %blocklength.addr, metadata !7067, metadata !4017), !dbg !7056
	store i32 %blocklength.arg, i32* %blocklength.addr, align 4, !tbaa !4033
	call void @llvm.dbg.declare (metadata i32* %blocklength.addr, metadata !7068, metadata !4017), !dbg !7056
	call void @llvm.dbg.declare (metadata i32* %stride.addr, metadata !7069, metadata !4017), !dbg !7056
	store i32 %stride.arg, i32* %stride.addr, align 4, !tbaa !4033
	call void @llvm.dbg.declare (metadata i32* %stride.addr, metadata !7070, metadata !4017), !dbg !7056
	%0 = load i32, i32* %count.addr, align 4, !tbaa !4037, !dbg !7071
	%1 = load i32, i32* %blocklength.addr, align 4, !tbaa !4037, !dbg !7071
	%2 = load i32, i32* %stride.addr, align 4, !tbaa !4037, !dbg !7071
	%3 = load %struct._ZN3MPI8DatatypeE*, %struct._ZN3MPI8DatatypeE** %_T45441920_51924.addr, align 8, !tbaa !4032, !dbg !7071
	%4 = bitcast %struct._ZN3MPI8DatatypeE*  %3 to i8*, !dbg !7071
	%5 = getelementptr i8, i8*  %4, i64 8, !dbg !7071
	%6 = bitcast i8*  %5 to %struct.ompi_datatype_t**, !dbg !7071
	%7 = load %struct.ompi_datatype_t*, %struct.ompi_datatype_t**  %6, align 8, !tbaa !4032, !dbg !7071
	call void @llvm.dbg.declare (metadata %struct.ompi_datatype_t** %newtype.addr, metadata !7072, metadata !4017), !dbg !7056
	%8 = call i32  @MPI_Type_vector (i32  %0, i32  %1, i32  %2, %struct.ompi_datatype_t*  %7, %struct.ompi_datatype_t** %newtype.addr) nounwind, !dbg !7071
