; ModuleID = 'projects/Larmor/Larmor.cpp'
target datalayout = "e-p:64:64-i64:64-f80:128-n8:16:32:64-S128"
target triple = "x86_64-pc-linux-gnu"
define internal void @pgCplus_compiled.() noinline {
L.entry:
	ret void
}

%struct.T3DFunction = type <{ i32 (...)* (...)*}> 



define linkonce_odr void @_ZN11T3DFunctionD1Ev(%struct.T3DFunction* %_T23532632_52355.arg) #0 inlinehint !dbg !3891 {
L.entry:
	%_T23532632_52355.addr = alloca %struct.T3DFunction*, align 8

	call void @llvm.dbg.declare (metadata %struct.T3DFunction** %_T23532632_52355.addr, metadata !3895, metadata !3896), !dbg !3892
	store %struct.T3DFunction* %_T23532632_52355.arg, %struct.T3DFunction** %_T23532632_52355.addr, align 8, !tbaa !3904
	call void @llvm.dbg.declare (metadata %struct.T3DFunction** %_T23532632_52355.addr, metadata !3897, metadata !3896), !dbg !3892
	%0 = bitcast [5 x i32 (...)* (...)*]* @_ZTV11T3DFunction to i8*, !dbg !3898
	%1 = getelementptr i8, i8*  %0, i64 16, !dbg !3898
	%2 = load %struct.T3DFunction*, %struct.T3DFunction** %_T23532632_52355.addr, align 8, !tbaa !3904, !dbg !3898
	%3 = bitcast %struct.T3DFunction*  %2 to i8**, !dbg !3898
	store i8*  %1, i8**  %3, align 8, !tbaa !3904, !dbg !3898
	ret void, !dbg !3898
}
define linkonce_odr void @_ZN11T3DFunctionD0Ev(%struct.T3DFunction* %_T23532632_52356.arg) #0 inlinehint !dbg !3906 {
L.entry:
	%_T23532632_52356.addr = alloca %struct.T3DFunction*, align 8

	store %struct.T3DFunction* %_T23532632_52356.arg, %struct.T3DFunction** %_T23532632_52356.addr, align 8, !tbaa !3904
	%0 = bitcast [5 x i32 (...)* (...)*]* @_ZTV11T3DFunction to i8*, !dbg !3914
	%1 = getelementptr i8, i8*  %0, i64 16, !dbg !3914
	%2 = load %struct.T3DFunction*, %struct.T3DFunction** %_T23532632_52356.addr, align 8, !tbaa !3904, !dbg !3914
	%3 = bitcast %struct.T3DFunction*  %2 to i8**, !dbg !3914
	store i8*  %1, i8**  %3, align 8, !tbaa !3904, !dbg !3914
	%4 = bitcast %struct.T3DFunction*  %2 to i8*, !dbg !3914
	call void  @_ZdlPvm (i8*  %4, i64 8) nounwind, !dbg !3914
	ret void, !dbg !3914
}
define linkonce_odr void @_ZN11T3DFunctionD2Ev(%struct.T3DFunction* %_T23532632_52357.arg) #0 inlinehint !dbg !3916 {
L.entry:
	%_T23532632_52357.addr = alloca %struct.T3DFunction*, align 8

	store %struct.T3DFunction* %_T23532632_52357.arg, %struct.T3DFunction** %_T23532632_52357.addr, align 8, !tbaa !3904
	%0 = bitcast [5 x i32 (...)* (...)*]* @_ZTV11T3DFunction to i8*, !dbg !3924
	%1 = getelementptr i8, i8*  %0, i64 16, !dbg !3924
	%2 = load %struct.T3DFunction*, %struct.T3DFunction** %_T23532632_52357.addr, align 8, !tbaa !3904, !dbg !3924
	%3 = bitcast %struct.T3DFunction*  %2 to i8**, !dbg !3924
	store i8*  %1, i8**  %3, align 8, !tbaa !3904, !dbg !3924
	ret void, !dbg !3924
}
define linkonce_odr void @_ZN11T3DFunctionC1Ev(%struct.T3DFunction* %_T23532632_52358.arg) #0 inlinehint !dbg !3926 {
L.entry:
	%_T23532632_52358.addr = alloca %struct.T3DFunction*, align 8

	call void @llvm.dbg.declare (metadata %struct.T3DFunction** %_T23532632_52358.addr, metadata !3930, metadata !3896), !dbg !3927
	store %struct.T3DFunction* %_T23532632_52358.arg, %struct.T3DFunction** %_T23532632_52358.addr, align 8, !tbaa !3904
	call void @llvm.dbg.declare (metadata %struct.T3DFunction** %_T23532632_52358.addr, metadata !3931, metadata !3896), !dbg !3927
	%0 = bitcast [5 x i32 (...)* (...)*]* @_ZTV11T3DFunction to i8*, !dbg !3932
	%1 = getelementptr i8, i8*  %0, i64 16, !dbg !3932
	%2 = load %struct.T3DFunction*, %struct.T3DFunction** %_T23532632_52358.addr, align 8, !tbaa !3904, !dbg !3932
	%3 = bitcast %struct.T3DFunction*  %2 to i8**, !dbg !3932
	store i8*  %1, i8**  %3, align 8, !tbaa !3904, !dbg !3932
	ret void, !dbg !3932
}
define linkonce_odr void @_ZN11T3DFunctionC2Ev(%struct.T3DFunction* %_T23532632_52359.arg) #0 inlinehint !dbg !3934 {
L.entry:
	%_T23532632_52359.addr = alloca %struct.T3DFunction*, align 8

	store %struct.T3DFunction* %_T23532632_52359.arg, %struct.T3DFunction** %_T23532632_52359.addr, align 8, !tbaa !3904
	%0 = bitcast [5 x i32 (...)* (...)*]* @_ZTV11T3DFunction to i8*, !dbg !3942
	%1 = getelementptr i8, i8*  %0, i64 16, !dbg !3942
	%2 = load %struct.T3DFunction*, %struct.T3DFunction** %_T23532632_52359.addr, align 8, !tbaa !3904, !dbg !3942
	%3 = bitcast %struct.T3DFunction*  %2 to i8**, !dbg !3942
	store i8*  %1, i8**  %3, align 8, !tbaa !3904, !dbg !3942
	ret void, !dbg !3942
}

%astruct.dt64 = type <{ i8*, i32}> 
%struct.FieldFunction = type <{ %struct.T3DFunction, i32, i32, i32, [4 x i8]}> 

define linkonce_odr void @_ZN13FieldFunctionC1Ev(%struct.FieldFunction* %_T23532632_52360.arg) #0 inlinehint personality i8* bitcast (i32 (...)* @__gxx_personality_v0 to i8*) !dbg !3949 {
L.entry:
	%_T23532632_52360.addr = alloca %struct.FieldFunction*, align 8

	call void @llvm.dbg.declare (metadata %struct.FieldFunction** %_T23532632_52360.addr, metadata !4005, metadata !3896), !dbg !3950
	store %struct.FieldFunction* %_T23532632_52360.arg, %struct.FieldFunction** %_T23532632_52360.addr, align 8, !tbaa !3904
	call void @llvm.dbg.declare (metadata %struct.FieldFunction** %_T23532632_52360.addr, metadata !4006, metadata !3896), !dbg !3950
	%0 = bitcast [5 x i32 (...)* (...)*]* @_ZTV11T3DFunction to i8*, !dbg !4007
	%1 = getelementptr i8, i8*  %0, i64 16, !dbg !4007
	%2 = load %struct.FieldFunction*, %struct.FieldFunction** %_T23532632_52360.addr, align 8, !tbaa !3904, !dbg !4007
	%3 = bitcast %struct.FieldFunction*  %2 to i8**, !dbg !4007
	store i8*  %1, i8**  %3, align 8, !tbaa !3904, !dbg !4007
	%4 = bitcast [5 x i32 (...)* (...)*]* @_ZTV13FieldFunction to i8*, !dbg !4007
	%5 = getelementptr i8, i8*  %4, i64 16, !dbg !4007
	store i8*  %5, i8**  %3, align 8, !tbaa !3904, !dbg !4007
	%6 = bitcast %struct.FieldFunction*  %2 to i8*, !dbg !4010
	%7 = getelementptr i8, i8*  %6, i64 8, !dbg !4010
	%8 = bitcast i8*  %7 to i32*, !dbg !4010
	store i32 0, i32*  %8, align 4, !tbaa !4014, !dbg !4010
	%9 = getelementptr i8, i8*  %6, i64 12, !dbg !4011
	%10 = bitcast i8*  %9 to i32*, !dbg !4011
	store i32 0, i32*  %10, align 4, !tbaa !4014, !dbg !4011
	%11 = getelementptr i8, i8*  %6, i64 16, !dbg !4012
	%12 = bitcast i8*  %11 to i32*, !dbg !4012
	store i32 0, i32*  %12, align 4, !tbaa !4014, !dbg !4012
	br label %L.R0005, !dbg !4012
L_T23533520_52360:
	%13 = landingpad %astruct.dt64
	cleanup
	br label %L.R0005
L.R0005:
	ret void, !dbg !4013
}
define linkonce_odr void @_ZN13FieldFunctionC2Ev(%struct.FieldFunction* %_T23532632_52361.arg) #0 inlinehint !dbg !4016 {
L.entry:
	%_T23532632_52361.addr = alloca %struct.FieldFunction*, align 8

	store %struct.FieldFunction* %_T23532632_52361.arg, %struct.FieldFunction** %_T23532632_52361.addr, align 8, !tbaa !3904
	%0 = load %struct.FieldFunction*, %struct.FieldFunction** %_T23532632_52361.addr, align 8, !tbaa !3904, !dbg !4020
	call void  @_ZN13FieldFunctionC1Ev (%struct.FieldFunction*  %0), !dbg !4020
	ret void, !dbg !4020
}
define linkonce_odr void @_ZN13FieldFunction12setComponentE10coordinate(%struct.FieldFunction* %_T23532632_52362.arg, i32 zeroext %fComponent.arg) #0 inlinehint !dbg !4024 {
L.entry:
	%_T23532632_52362.addr = alloca %struct.FieldFunction*, align 8
	%fComponent.addr = alloca i32, align 4

	call void @llvm.dbg.declare (metadata %struct.FieldFunction** %_T23532632_52362.addr, metadata !4028, metadata !3896), !dbg !4025
	store %struct.FieldFunction* %_T23532632_52362.arg, %struct.FieldFunction** %_T23532632_52362.addr, align 8, !tbaa !3904
	call void @llvm.dbg.declare (metadata %struct.FieldFunction** %_T23532632_52362.addr, metadata !4029, metadata !3896), !dbg !4025
	call void @llvm.dbg.declare (metadata i32* %fComponent.addr, metadata !4030, metadata !3896), !dbg !4025
	store i32 %fComponent.arg, i32* %fComponent.addr, align 4, !tbaa !4014
	call void @llvm.dbg.declare (metadata i32* %fComponent.addr, metadata !4031, metadata !3896), !dbg !4025
	%0 = load i32, i32* %fComponent.addr, align 4, !tbaa !4014, !dbg !4032
	%1 = load %struct.FieldFunction*, %struct.FieldFunction** %_T23532632_52362.addr, align 8, !tbaa !3904, !dbg !4032
	%2 = bitcast %struct.FieldFunction*  %1 to i8*, !dbg !4032
	%3 = getelementptr i8, i8*  %2, i64 8, !dbg !4032
	%4 = bitcast i8*  %3 to i32*, !dbg !4032
	store i32  %0, i32*  %4, align 4, !tbaa !4014, !dbg !4032
	ret void, !dbg !4032
}
define linkonce_odr void @_ZN13FieldFunction17setDerivComponentE10coordinate(%struct.FieldFunction* %_T23532632_52363.arg, i32 zeroext %dComponent.arg) #0 inlinehint !dbg !4034 {
L.entry:
	%_T23532632_52363.addr = alloca %struct.FieldFunction*, align 8
	%dComponent.addr = alloca i32, align 4

	call void @llvm.dbg.declare (metadata %struct.FieldFunction** %_T23532632_52363.addr, metadata !4038, metadata !3896), !dbg !4035
	store %struct.FieldFunction* %_T23532632_52363.arg, %struct.FieldFunction** %_T23532632_52363.addr, align 8, !tbaa !3904
	call void @llvm.dbg.declare (metadata %struct.FieldFunction** %_T23532632_52363.addr, metadata !4039, metadata !3896), !dbg !4035
	call void @llvm.dbg.declare (metadata i32* %dComponent.addr, metadata !4040, metadata !3896), !dbg !4035
	store i32 %dComponent.arg, i32* %dComponent.addr, align 4, !tbaa !4014
	call void @llvm.dbg.declare (metadata i32* %dComponent.addr, metadata !4041, metadata !3896), !dbg !4035
	%0 = load i32, i32* %dComponent.addr, align 4, !tbaa !4014, !dbg !4042
	%1 = load %struct.FieldFunction*, %struct.FieldFunction** %_T23532632_52363.addr, align 8, !tbaa !3904, !dbg !4042
	%2 = bitcast %struct.FieldFunction*  %1 to i8*, !dbg !4042
	%3 = getelementptr i8, i8*  %2, i64 12, !dbg !4042
	%4 = bitcast i8*  %3 to i32*, !dbg !4042
	store i32  %0, i32*  %4, align 4, !tbaa !4014, !dbg !4042
	ret void, !dbg !4042
}

%struct._ZSt7num_putIcSt19ostreambuf_iteratorIcSt11char_traitsIcEEE = type <{ %struct.__SO__NSt6locale5facetE, [4 x i8]}> 
%struct._ZSt8ios_base = type <{ i32 (...)* (...)*, i64, i64, i32, i32, i32, [4 x i8], %struct._ZNSt8ios_base14_Callback_listE*, %struct._ZNSt8ios_base6_WordsE, [8 x %struct._ZNSt8ios_base6_WordsE], i32, [4 x i8], %struct._ZNSt8ios_base6_WordsE*, %struct._ZSt6locale}> 
%struct._ZSt5ctypeIcE = type <{ %struct.__SO__NSt6locale5facetE, [4 x i8], %struct.__locale_struct*, i8, [7 x i8], i32*, i32*, i16*, i8, [256 x i8], [256 x i8], i8, [6 x i8]}> 
%struct._ZNSt6locale5facetE = type <{ i32 (...)* (...)*, i32, [4 x i8]}> 
%struct._ZSt9basic_iosIcSt11char_traitsIcEE = type <{ %struct._ZSt8ios_base, %struct._ZSo*, i8, i8, [6 x i8], %struct._ZSt15basic_streambufIcSt11char_traitsIcEE*, %struct._ZSt5ctypeIcE*, %struct._ZSt7num_putIcSt19ostreambuf_iteratorIcSt11char_traitsIcEEE*, %struct._ZSt7num_getIcSt19istreambuf_iteratorIcSt11char_traitsIcEEE*}> 
%struct._ZNSt8ios_base14_Callback_listE = type <{ %struct._ZNSt8ios_base14_Callback_listE*, void (i32, %struct._ZSt8ios_base*, i32)*, i32, i32}> 
%struct._ZNSt8ios_base6_WordsE = type <{ i8*, i64}> 
%struct._ZSo = type <{ i32 (...)* (...)*, %struct._ZSt9basic_iosIcSt11char_traitsIcEE}> 
%struct.__locale_data = type opaque
%struct._ZNSt6locale5_ImplE = type <{ i32, [4 x i8], %struct._ZNSt6locale5facetE**, i64, %struct._ZNSt6locale5facetE**, i8**}> 
%struct._ZSt15basic_streambufIcSt11char_traitsIcEE = type <{ i32 (...)* (...)*, i8*, i8*, i8*, i8*, i8*, i8*, %struct._ZSt6locale}> 
%struct._ZSt7num_getIcSt19istreambuf_iteratorIcSt11char_traitsIcEEE = type <{ %struct.__SO__NSt6locale5facetE, [4 x i8]}> 
%struct._ZSt6locale = type <{ %struct._ZNSt6locale5_ImplE*}> 
%struct.__SO__NSt6locale5facetE = type <{ i32 (...)* (...)*, i32}> 
%struct.__locale_struct = type <{ [13 x %struct.__locale_data*], i16*, i32*, i32*, [13 x i8*]}> 

define linkonce_odr void @_ZN13FieldFunction13setDerivativeEj(%struct.FieldFunction* %_T23532816_52364.arg, i32 zeroext %derivative.arg) #0 inlinehint !dbg !4046 {
L.entry:
	%_T23532816_52364.addr = alloca %struct.FieldFunction*, align 8
	%derivative.addr = alloca i32, align 4
	%..inline.addr = alloca %struct._ZSt9basic_iosIcSt11char_traitsIcEE*, align 8
	%..inline.addr.1 = alloca %struct._ZSt9basic_iosIcSt11char_traitsIcEE*, align 8
	%..inline.addr.2 = alloca i32, align 4
	%..inline.addr.3 = alloca i64, align 8
	%.Q0003.addr = alloca %struct._ZSo*, align 8
	%..inline.addr.4 = alloca i32, align 4
	%.Q0004.addr = alloca %struct._ZSo*, align 8
	%..inline.addr.5 = alloca %struct._ZSo*, align 8
	%.Q0005.addr = alloca %struct._ZSo*, align 8

	call void @llvm.dbg.declare (metadata %struct.FieldFunction** %_T23532816_52364.addr, metadata !4078, metadata !3896), !dbg !4047
	store %struct.FieldFunction* %_T23532816_52364.arg, %struct.FieldFunction** %_T23532816_52364.addr, align 8, !tbaa !3904
	call void @llvm.dbg.declare (metadata %struct.FieldFunction** %_T23532816_52364.addr, metadata !4079, metadata !3896), !dbg !4047
	call void @llvm.dbg.declare (metadata i32* %derivative.addr, metadata !4080, metadata !3896), !dbg !4047
	store i32 %derivative.arg, i32* %derivative.addr, align 4, !tbaa !4014
	call void @llvm.dbg.declare (metadata i32* %derivative.addr, metadata !4081, metadata !3896), !dbg !4047
	%0 = load i32, i32* %derivative.addr, align 4, !tbaa !4095, !dbg !4082
	%1 = load %struct.FieldFunction*, %struct.FieldFunction** %_T23532816_52364.addr, align 8, !tbaa !3904, !dbg !4082
	%2 = bitcast %struct.FieldFunction*  %1 to i8*, !dbg !4082
	%3 = getelementptr i8, i8*  %2, i64 16, !dbg !4082
	%4 = bitcast i8*  %3 to i32*, !dbg !4082
	store i32  %0, i32*  %4, align 4, !tbaa !4014, !dbg !4082
	%5 = icmp ule i32  %0, 1, !dbg !4083
	br i1  %5, label %L.B0000, label %L.B0001, !dbg !4083
L.B0001:
	%6 = bitcast [36 x i8]* @.S53678 to i8*, !dbg !4084
	%7 = icmp ne i8*  %6,  null, !dbg !4084
	br i1  %7, label %L..inline.66229, label %L.B0983, !dbg !4084
L.B0983:
	%8 = bitcast %struct._ZSo* @_ZSt4cerr to i8*, !dbg !4085
	%9 = bitcast %struct._ZSo* @_ZSt4cerr to i8**, !dbg !4085
	%10 = load i8*, i8**  %9, align 8, !tbaa !3904, !dbg !4085
	%11 = getelementptr i8, i8*  %10, i64 18446744073709551592, !dbg !4085
	%12 = bitcast i8*  %11 to i64*, !dbg !4085
	%13 = load i64, i64*  %12, align 8, !tbaa !4014, !dbg !4085
	%14 = getelementptr i8, i8*  %8, i64  %13, !dbg !4085
	%15 = bitcast %struct._ZSt9basic_iosIcSt11char_traitsIcEE** %..inline.addr to i8**, !dbg !4085
	store i8*  %14, i8**  %15, align 8, !tbaa !3904, !dbg !4085
	%16 = load %struct._ZSt9basic_iosIcSt11char_traitsIcEE*, %struct._ZSt9basic_iosIcSt11char_traitsIcEE** %..inline.addr, align 8, !tbaa !3904, !dbg !4085
	%17 = bitcast %struct._ZSt9basic_iosIcSt11char_traitsIcEE*  %16 to i8*, !dbg !4085
	%18 = bitcast %struct._ZSt9basic_iosIcSt11char_traitsIcEE** %..inline.addr.1 to i8**, !dbg !4085
	store i8*  %17, i8**  %18, align 8, !tbaa !3904, !dbg !4085
	%19 = load %struct._ZSt9basic_iosIcSt11char_traitsIcEE*, %struct._ZSt9basic_iosIcSt11char_traitsIcEE** %..inline.addr.1, align 8, !tbaa !3904, !dbg !4085
	%20 = bitcast %struct._ZSt9basic_iosIcSt11char_traitsIcEE*  %19 to i8*, !dbg !4085
	%21 = getelementptr i8, i8*  %20, i64 32, !dbg !4085
	%22 = bitcast i8*  %21 to i32*, !dbg !4085
	%23 = load i32, i32*  %22, align 4, !tbaa !4014, !dbg !4085
	%24 = or i32  %23, 1, !dbg !4085
	call void  @_ZNSt9basic_iosIcSt11char_traitsIcEE5clearESt12_Ios_Iostate (%struct._ZSt9basic_iosIcSt11char_traitsIcEE*  %16, i32  %24), !dbg !4085
	br label %L..inline.66250, !dbg !4085
L..inline.66229:
	%25 = bitcast [36 x i8]* @.S53678 to i8*, !dbg !4088
	%26 = call i64  @strlen (i8*  %25) nounwind, !dbg !4088
	%27 = call %struct._ZSo*  @_ZSt16__ostream_insertIcSt11char_traitsIcEERSt13basic_ostreamIT_T0_ES6_PKS3_l (%struct._ZSo* @_ZSt4cerr, i8*  %25, i64  %26), !dbg !4088
	%28 = bitcast %struct._ZSo*  %27 to i8*, !dbg !4088
	%29 = bitcast %struct._ZSo** %.Q0003.addr to i8**, !dbg !4088
	store i8*  %28, i8**  %29, align 8, !tbaa !3904, !dbg !4088
	br label %L..inline.66250
L..inline.66250:
	%30 = load i32, i32* %derivative.addr, align 4, !tbaa !4095, !dbg !4089
	%31 = zext i32  %30 to i64, !dbg !4090
	%32 = call %struct._ZSo*  @_ZNSo9_M_insertImEERSoT_ (%struct._ZSo* @_ZSt4cerr, i64  %31), !dbg !4090
	%33 = bitcast %struct._ZSo*  %32 to i8*, !dbg !4090
	%34 = bitcast %struct._ZSo** %.Q0004.addr to i8**, !dbg !4090
	store i8*  %33, i8**  %34, align 8, !tbaa !3904, !dbg !4090
	%35 = load %struct._ZSo*, %struct._ZSo** %.Q0004.addr, align 8, !tbaa !3904, !dbg !4090
	%36 = bitcast %struct._ZSo*  %35 to i8*, !dbg !4090
	%37 = bitcast %struct._ZSo** %..inline.addr.5 to i8**, !dbg !4090
	store i8*  %36, i8**  %37, align 8, !tbaa !3904, !dbg !4090
	%38 = load %struct._ZSo*, %struct._ZSo** %..inline.addr.5, align 8, !tbaa !3904, !dbg !4091
	%39 = call %struct._ZSo*  @_ZSt4endlIcSt11char_traitsIcEERSt13basic_ostreamIT_T0_ES6_ (%struct._ZSo*  %38), !dbg !4091
	%40 = bitcast %struct._ZSo*  %39 to i8*, !dbg !4091
	%41 = bitcast %struct._ZSo** %.Q0005.addr to i8**, !dbg !4091
	store i8*  %40, i8**  %41, align 8, !tbaa !3904, !dbg !4091
	call void  @exit (i32 1) nounwind noreturn, !dbg !4092
	br label %L.B0002
L.B0002:
	br label %L.B0000
L.B0000:
	ret void, !dbg !4093
}
define linkonce_odr void @_ZN13FieldFunctionD1Ev(%struct.FieldFunction* %_T23532632_52365.arg) #0 inlinehint !dbg !4097 {
L.entry:
	%_T23532632_52365.addr = alloca %struct.FieldFunction*, align 8

	call void @llvm.dbg.declare (metadata %struct.FieldFunction** %_T23532632_52365.addr, metadata !4109, metadata !3896), !dbg !4098
	store %struct.FieldFunction* %_T23532632_52365.arg, %struct.FieldFunction** %_T23532632_52365.addr, align 8, !tbaa !3904
	call void @llvm.dbg.declare (metadata %struct.FieldFunction** %_T23532632_52365.addr, metadata !4110, metadata !3896), !dbg !4098
	%0 = bitcast [5 x i32 (...)* (...)*]* @_ZTV13FieldFunction to i8*, !dbg !4111
	%1 = getelementptr i8, i8*  %0, i64 16, !dbg !4111
	%2 = load %struct.FieldFunction*, %struct.FieldFunction** %_T23532632_52365.addr, align 8, !tbaa !3904, !dbg !4111
	%3 = bitcast %struct.FieldFunction*  %2 to i8**, !dbg !4111
	store i8*  %1, i8**  %3, align 8, !tbaa !3904, !dbg !4111
	%4 = bitcast [5 x i32 (...)* (...)*]* @_ZTV11T3DFunction to i8*, !dbg !4111
	%5 = getelementptr i8, i8*  %4, i64 16, !dbg !4111
	store i8*  %5, i8**  %3, align 8, !tbaa !3904, !dbg !4111
	ret void, !dbg !4112
}
define linkonce_odr void @_ZN13FieldFunctionD0Ev(%struct.FieldFunction* %_T23532632_52366.arg) #0 inlinehint !dbg !4114 {
L.entry:
	%_T23532632_52366.addr = alloca %struct.FieldFunction*, align 8
	%..inline.addr = alloca %struct.FieldFunction*, align 8

	store %struct.FieldFunction* %_T23532632_52366.arg, %struct.FieldFunction** %_T23532632_52366.addr, align 8, !tbaa !3904
	%0 = load %struct.FieldFunction*, %struct.FieldFunction** %_T23532632_52366.addr, align 8, !tbaa !3904, !dbg !4130
	%1 = bitcast %struct.FieldFunction*  %0 to i8*, !dbg !4130
	%2 = bitcast %struct.FieldFunction** %..inline.addr to i8**, !dbg !4130
	store i8*  %1, i8**  %2, align 8, !tbaa !3904, !dbg !4130
	%3 = bitcast [5 x i32 (...)* (...)*]* @_ZTV13FieldFunction to i8*, !dbg !4130
	%4 = getelementptr i8, i8*  %3, i64 16, !dbg !4130
	%5 = load %struct.FieldFunction*, %struct.FieldFunction** %..inline.addr, align 8, !tbaa !3904, !dbg !4130
	%6 = bitcast %struct.FieldFunction*  %5 to i8**, !dbg !4130
	store i8*  %4, i8**  %6, align 8, !tbaa !3904, !dbg !4130
	%7 = bitcast [5 x i32 (...)* (...)*]* @_ZTV11T3DFunction to i8*, !dbg !4130
	%8 = getelementptr i8, i8*  %7, i64 16, !dbg !4130
	store i8*  %8, i8**  %6, align 8, !tbaa !3904, !dbg !4130
	call void  @_ZdlPvm (i8*  %1, i64 24) nounwind, !dbg !4130
	ret void, !dbg !4130
}
define linkonce_odr void @_ZN13FieldFunctionD2Ev(%struct.FieldFunction* %_T23532632_52367.arg) #0 inlinehint !dbg !4132 {
L.entry:
	%_T23532632_52367.addr = alloca %struct.FieldFunction*, align 8
	%..inline.addr = alloca %struct.FieldFunction*, align 8

	store %struct.FieldFunction* %_T23532632_52367.arg, %struct.FieldFunction** %_T23532632_52367.addr, align 8, !tbaa !3904
	%0 = load %struct.FieldFunction*, %struct.FieldFunction** %_T23532632_52367.addr, align 8, !tbaa !3904, !dbg !4148
	%1 = bitcast %struct.FieldFunction*  %0 to i8*, !dbg !4148
	%2 = bitcast %struct.FieldFunction** %..inline.addr to i8**, !dbg !4148
	store i8*  %1, i8**  %2, align 8, !tbaa !3904, !dbg !4148
	%3 = bitcast [5 x i32 (...)* (...)*]* @_ZTV13FieldFunction to i8*, !dbg !4148
	%4 = getelementptr i8, i8*  %3, i64 16, !dbg !4148
	%5 = load %struct.FieldFunction*, %struct.FieldFunction** %..inline.addr, align 8, !tbaa !3904, !dbg !4148
	%6 = bitcast %struct.FieldFunction*  %5 to i8**, !dbg !4148
	store i8*  %4, i8**  %6, align 8, !tbaa !3904, !dbg !4148
	%7 = bitcast [5 x i32 (...)* (...)*]* @_ZTV11T3DFunction to i8*, !dbg !4148
	%8 = getelementptr i8, i8*  %7, i64 16, !dbg !4148
	store i8*  %8, i8**  %6, align 8, !tbaa !3904, !dbg !4148
	ret void, !dbg !4148
}

%struct.__SO__13FieldFunction = type <{ %struct.T3DFunction, i32, i32, i32}> 
%struct.ConstantField = type <{ %struct.__SO__13FieldFunction, i8, [3 x i8], [3 x double]}> 

define linkonce_odr void @_ZN13ConstantFieldC1Ev(%struct.ConstantField* %_T23532816_52368.arg) #0 inlinehint !dbg !4155 {
L.entry:
	%_T23532816_52368.addr = alloca %struct.ConstantField*, align 8
	%..inline.addr = alloca %struct.FieldFunction*, align 8

	call void @llvm.dbg.declare (metadata %struct.ConstantField** %_T23532816_52368.addr, metadata !4163, metadata !3896), !dbg !4156
	store %struct.ConstantField* %_T23532816_52368.arg, %struct.ConstantField** %_T23532816_52368.addr, align 8, !tbaa !3904
	call void @llvm.dbg.declare (metadata %struct.ConstantField** %_T23532816_52368.addr, metadata !4164, metadata !3896), !dbg !4156
	%0 = load %struct.ConstantField*, %struct.ConstantField** %_T23532816_52368.addr, align 8, !tbaa !3904, !dbg !4165
	%1 = bitcast %struct.ConstantField*  %0 to i8*, !dbg !4165
	%2 = bitcast %struct.FieldFunction** %..inline.addr to i8**, !dbg !4165
	store i8*  %1, i8**  %2, align 8, !tbaa !3904, !dbg !4165
	%3 = load %struct.FieldFunction*, %struct.FieldFunction** %..inline.addr, align 8, !tbaa !3904, !dbg !4165
	call void  @_ZN13FieldFunctionC1Ev (%struct.FieldFunction*  %3), !dbg !4165
	%4 = bitcast [5 x i32 (...)* (...)*]* @_ZTV13ConstantField to i8*, !dbg !4165
	%5 = getelementptr i8, i8*  %4, i64 16, !dbg !4165
	%6 = load %struct.ConstantField*, %struct.ConstantField** %_T23532816_52368.addr, align 8, !tbaa !3904, !dbg !4165
	%7 = bitcast %struct.ConstantField*  %6 to i8**, !dbg !4165
	store i8*  %5, i8**  %7, align 8, !tbaa !3904, !dbg !4165
	%8 = bitcast %struct.ConstantField*  %6 to i8*, !dbg !4168
	%9 = getelementptr i8, i8*  %8, i64 20, !dbg !4168
	store i8 0, i8*  %9, align 1, !tbaa !4014, !dbg !4168
	ret void, !dbg !4169
}
define linkonce_odr void @_ZN13ConstantFieldC2Ev(%struct.ConstantField* %_T23532632_52369.arg) #0 inlinehint !dbg !4171 {
L.entry:
	%_T23532632_52369.addr = alloca %struct.ConstantField*, align 8
	%..inline.addr = alloca %struct.ConstantField*, align 8
	%..inline.addr.1 = alloca %struct.FieldFunction*, align 8

	store %struct.ConstantField* %_T23532632_52369.arg, %struct.ConstantField** %_T23532632_52369.addr, align 8, !tbaa !3904
	%0 = load %struct.ConstantField*, %struct.ConstantField** %_T23532632_52369.addr, align 8, !tbaa !3904, !dbg !4183
	%1 = bitcast %struct.ConstantField*  %0 to i8*, !dbg !4183
	%2 = bitcast %struct.ConstantField** %..inline.addr to i8**, !dbg !4183
	store i8*  %1, i8**  %2, align 8, !tbaa !3904, !dbg !4183
	%3 = load %struct.ConstantField*, %struct.ConstantField** %..inline.addr, align 8, !tbaa !3904, !dbg !4184
	%4 = bitcast %struct.ConstantField*  %3 to i8*, !dbg !4184
	%5 = bitcast %struct.FieldFunction** %..inline.addr.1 to i8**, !dbg !4184
	store i8*  %4, i8**  %5, align 8, !tbaa !3904, !dbg !4184
	%6 = load %struct.FieldFunction*, %struct.FieldFunction** %..inline.addr.1, align 8, !tbaa !3904, !dbg !4184
	call void  @_ZN13FieldFunctionC1Ev (%struct.FieldFunction*  %6), !dbg !4184
	%7 = bitcast [5 x i32 (...)* (...)*]* @_ZTV13ConstantField to i8*, !dbg !4184
	%8 = getelementptr i8, i8*  %7, i64 16, !dbg !4184
	%9 = load %struct.ConstantField*, %struct.ConstantField** %..inline.addr, align 8, !tbaa !3904, !dbg !4184
	%10 = bitcast %struct.ConstantField*  %9 to i8**, !dbg !4184
	store i8*  %8, i8**  %10, align 8, !tbaa !3904, !dbg !4184
	%11 = bitcast %struct.ConstantField*  %9 to i8*, !dbg !4184
	%12 = getelementptr i8, i8*  %11, i64 20, !dbg !4184
	store i8 0, i8*  %12, align 1, !tbaa !4014, !dbg !4184
	ret void, !dbg !4183
}
define linkonce_odr void @_ZN13ConstantFieldD1Ev(%struct.ConstantField* %_T23532632_52370.arg) #0 inlinehint !dbg !4186 {
L.entry:
	%_T23532632_52370.addr = alloca %struct.ConstantField*, align 8
	%..inline.addr = alloca %struct.FieldFunction*, align 8

	call void @llvm.dbg.declare (metadata %struct.ConstantField** %_T23532632_52370.addr, metadata !4206, metadata !3896), !dbg !4187
	store %struct.ConstantField* %_T23532632_52370.arg, %struct.ConstantField** %_T23532632_52370.addr, align 8, !tbaa !3904
	call void @llvm.dbg.declare (metadata %struct.ConstantField** %_T23532632_52370.addr, metadata !4207, metadata !3896), !dbg !4187
	%0 = bitcast [5 x i32 (...)* (...)*]* @_ZTV13ConstantField to i8*, !dbg !4208
	%1 = getelementptr i8, i8*  %0, i64 16, !dbg !4208
	%2 = load %struct.ConstantField*, %struct.ConstantField** %_T23532632_52370.addr, align 8, !tbaa !3904, !dbg !4208
	%3 = bitcast %struct.ConstantField*  %2 to i8**, !dbg !4208
	store i8*  %1, i8**  %3, align 8, !tbaa !3904, !dbg !4208
	%4 = bitcast %struct.ConstantField*  %2 to i8*, !dbg !4208
	%5 = bitcast %struct.FieldFunction** %..inline.addr to i8**, !dbg !4208
	store i8*  %4, i8**  %5, align 8, !tbaa !3904, !dbg !4208
	%6 = bitcast [5 x i32 (...)* (...)*]* @_ZTV13FieldFunction to i8*, !dbg !4208
	%7 = getelementptr i8, i8*  %6, i64 16, !dbg !4208
	%8 = load %struct.FieldFunction*, %struct.FieldFunction** %..inline.addr, align 8, !tbaa !3904, !dbg !4208
	%9 = bitcast %struct.FieldFunction*  %8 to i8**, !dbg !4208
	store i8*  %7, i8**  %9, align 8, !tbaa !3904, !dbg !4208
	%10 = bitcast [5 x i32 (...)* (...)*]* @_ZTV11T3DFunction to i8*, !dbg !4208
	%11 = getelementptr i8, i8*  %10, i64 16, !dbg !4208
	store i8*  %11, i8**  %9, align 8, !tbaa !3904, !dbg !4208
	ret void, !dbg !4208
}
define linkonce_odr void @_ZN13ConstantFieldD0Ev(%struct.ConstantField* %_T23532632_52371.arg) #0 inlinehint !dbg !4210 {
L.entry:
	%_T23532632_52371.addr = alloca %struct.ConstantField*, align 8
	%..inline.addr = alloca %struct.ConstantField*, align 8
	%..inline.addr.1 = alloca %struct.FieldFunction*, align 8

	store %struct.ConstantField* %_T23532632_52371.arg, %struct.ConstantField** %_T23532632_52371.addr, align 8, !tbaa !3904
	%0 = load %struct.ConstantField*, %struct.ConstantField** %_T23532632_52371.addr, align 8, !tbaa !3904, !dbg !4234
	%1 = bitcast %struct.ConstantField*  %0 to i8*, !dbg !4234
	%2 = bitcast %struct.ConstantField** %..inline.addr to i8**, !dbg !4234
	store i8*  %1, i8**  %2, align 8, !tbaa !3904, !dbg !4234
	%3 = bitcast [5 x i32 (...)* (...)*]* @_ZTV13ConstantField to i8*, !dbg !4234
	%4 = getelementptr i8, i8*  %3, i64 16, !dbg !4234
	%5 = load %struct.ConstantField*, %struct.ConstantField** %..inline.addr, align 8, !tbaa !3904, !dbg !4234
	%6 = bitcast %struct.ConstantField*  %5 to i8**, !dbg !4234
	store i8*  %4, i8**  %6, align 8, !tbaa !3904, !dbg !4234
	%7 = bitcast %struct.ConstantField*  %5 to i8*, !dbg !4234
	%8 = bitcast %struct.FieldFunction** %..inline.addr.1 to i8**, !dbg !4234
	store i8*  %7, i8**  %8, align 8, !tbaa !3904, !dbg !4234
	%9 = bitcast [5 x i32 (...)* (...)*]* @_ZTV13FieldFunction to i8*, !dbg !4234
	%10 = getelementptr i8, i8*  %9, i64 16, !dbg !4234
	store i8*  %10, i8**  %6, align 8, !tbaa !3904, !dbg !4234
	%11 = bitcast [5 x i32 (...)* (...)*]* @_ZTV11T3DFunction to i8*, !dbg !4234
	%12 = getelementptr i8, i8*  %11, i64 16, !dbg !4234
	%13 = load %struct.FieldFunction*, %struct.FieldFunction** %..inline.addr.1, align 8, !tbaa !3904, !dbg !4234
	%14 = bitcast %struct.FieldFunction*  %13 to i8**, !dbg !4234
	store i8*  %12, i8**  %14, align 8, !tbaa !3904, !dbg !4234
	call void  @_ZdlPvm (i8*  %1, i64 48) nounwind, !dbg !4234
	ret void, !dbg !4234
}
define linkonce_odr void @_ZN13ConstantFieldD2Ev(%struct.ConstantField* %_T23532632_52372.arg) #0 inlinehint !dbg !4236 {
L.entry:
	%_T23532632_52372.addr = alloca %struct.ConstantField*, align 8
	%..inline.addr = alloca %struct.ConstantField*, align 8
	%..inline.addr.1 = alloca %struct.FieldFunction*, align 8

	store %struct.ConstantField* %_T23532632_52372.arg, %struct.ConstantField** %_T23532632_52372.addr, align 8, !tbaa !3904
	%0 = load %struct.ConstantField*, %struct.ConstantField** %_T23532632_52372.addr, align 8, !tbaa !3904, !dbg !4260
	%1 = bitcast %struct.ConstantField*  %0 to i8*, !dbg !4260
	%2 = bitcast %struct.ConstantField** %..inline.addr to i8**, !dbg !4260
	store i8*  %1, i8**  %2, align 8, !tbaa !3904, !dbg !4260
	%3 = bitcast [5 x i32 (...)* (...)*]* @_ZTV13ConstantField to i8*, !dbg !4260
	%4 = getelementptr i8, i8*  %3, i64 16, !dbg !4260
	%5 = load %struct.ConstantField*, %struct.ConstantField** %..inline.addr, align 8, !tbaa !3904, !dbg !4260
	%6 = bitcast %struct.ConstantField*  %5 to i8**, !dbg !4260
	store i8*  %4, i8**  %6, align 8, !tbaa !3904, !dbg !4260
	%7 = bitcast %struct.ConstantField*  %5 to i8*, !dbg !4260
	%8 = bitcast %struct.FieldFunction** %..inline.addr.1 to i8**, !dbg !4260
	store i8*  %7, i8**  %8, align 8, !tbaa !3904, !dbg !4260
	%9 = bitcast [5 x i32 (...)* (...)*]* @_ZTV13FieldFunction to i8*, !dbg !4260
	%10 = getelementptr i8, i8*  %9, i64 16, !dbg !4260
	store i8*  %10, i8**  %6, align 8, !tbaa !3904, !dbg !4260
	%11 = bitcast [5 x i32 (...)* (...)*]* @_ZTV11T3DFunction to i8*, !dbg !4260
	%12 = getelementptr i8, i8*  %11, i64 16, !dbg !4260
	%13 = load %struct.FieldFunction*, %struct.FieldFunction** %..inline.addr.1, align 8, !tbaa !3904, !dbg !4260
	%14 = bitcast %struct.FieldFunction*  %13 to i8**, !dbg !4260
	store i8*  %12, i8**  %14, align 8, !tbaa !3904, !dbg !4260
	ret void, !dbg !4260
}
define linkonce_odr void @_ZNSt11char_traitsIcE6assignERcRKc(i8* %__c1.arg, i8* %__c2.arg) #0 inlinehint !dbg !4267 {
L.entry:
	%__c1.addr = alloca i8*, align 8
	%__c2.addr = alloca i8*, align 8

	call void @llvm.dbg.declare (metadata i8** %__c1.addr, metadata !4271, metadata !3896), !dbg !4268
	store i8* %__c1.arg, i8** %__c1.addr, align 8, !tbaa !3904
	call void @llvm.dbg.declare (metadata i8** %__c1.addr, metadata !4272, metadata !3896), !dbg !4268
	call void @llvm.dbg.declare (metadata i8** %__c2.addr, metadata !4273, metadata !3896), !dbg !4268
	store i8* %__c2.arg, i8** %__c2.addr, align 8, !tbaa !3904
	call void @llvm.dbg.declare (metadata i8** %__c2.addr, metadata !4274, metadata !3896), !dbg !4268
	%0 = load i8*, i8** %__c2.addr, align 8, !tbaa !3904, !dbg !4275
	%1 = load i8, i8*  %0, align 1, !tbaa !4014, !dbg !4275
	%2 = load i8*, i8** %__c1.addr, align 8, !tbaa !3904, !dbg !4275
	store i8  %1, i8*  %2, align 1, !tbaa !4014, !dbg !4275
	ret void, !dbg !4275
}
define linkonce_odr i64 @_ZNSt11char_traitsIcE6lengthEPKc(i8* %__s.arg) #0 inlinehint !dbg !4279 {
L.entry:
	%__s.addr = alloca i8*, align 8

	call void @llvm.dbg.declare (metadata i8** %__s.addr, metadata !4283, metadata !3896), !dbg !4280
	store i8* %__s.arg, i8** %__s.addr, align 8, !tbaa !3904
	call void @llvm.dbg.declare (metadata i8** %__s.addr, metadata !4284, metadata !3896), !dbg !4280
	%0 = load i8*, i8** %__s.addr, align 8, !tbaa !3904, !dbg !4285
	%1 = call i64  @strlen (i8*  %0) nounwind, !dbg !4285
	ret i64  %1, !dbg !4285
}
define linkonce_odr i8* @_ZNSt11char_traitsIcE4copyEPcPKcm(i8* %__s1.arg, i8* %__s2.arg, i64 %__n.arg) #0 inlinehint !dbg !4290 {
L.entry:
	%__s1.addr = alloca i8*, align 8
	%__s2.addr = alloca i8*, align 8
	%__n.addr = alloca i64, align 8

	call void @llvm.dbg.declare (metadata i8** %__s1.addr, metadata !4294, metadata !3896), !dbg !4291
	store i8* %__s1.arg, i8** %__s1.addr, align 8, !tbaa !3904
	call void @llvm.dbg.declare (metadata i8** %__s1.addr, metadata !4295, metadata !3896), !dbg !4291
	call void @llvm.dbg.declare (metadata i8** %__s2.addr, metadata !4296, metadata !3896), !dbg !4291
	store i8* %__s2.arg, i8** %__s2.addr, align 8, !tbaa !3904
	call void @llvm.dbg.declare (metadata i8** %__s2.addr, metadata !4297, metadata !3896), !dbg !4291
	call void @llvm.dbg.declare (metadata i64* %__n.addr, metadata !4298, metadata !3896), !dbg !4291
	store i64 %__n.arg, i64* %__n.addr, align 8, !tbaa !4014
	call void @llvm.dbg.declare (metadata i64* %__n.addr, metadata !4299, metadata !3896), !dbg !4291
	%0 = load i64, i64* %__n.addr, align 8, !tbaa !4305, !dbg !4300
	%1 = icmp ne i64  %0, 0, !dbg !4300
	br i1  %1, label %L.B0004, label %L.B1000, !dbg !4300
L.B1000:
	%2 = load i8*, i8** %__s1.addr, align 8, !tbaa !3904, !dbg !4301
	ret i8*  %2, !dbg !4301
L.B1001:
	br label %L.R0020, !dbg !4301
L.B0004:
	%3 = load i8*, i8** %__s1.addr, align 8, !tbaa !3904, !dbg !4302
	%4 = load i8*, i8** %__s2.addr, align 8, !tbaa !3904, !dbg !4302
	%5 = load i64, i64* %__n.addr, align 8, !tbaa !4305, !dbg !4302
	%6 = call i8*  @memcpy (i8*  %3, i8*  %4, i64  %5) nounwind, !dbg !4302
	ret i8*  %6, !dbg !4302
L.R0020:
	ret i8* null
}

%struct._ZSaIcE = type <{ [1 x i8]}> 

define linkonce_odr void @_ZNSaIcEC1Ev(%struct._ZSaIcE* %_T23532632_52381.arg) #0 inlinehint !dbg !4312 {
L.entry:
	%_T23532632_52381.addr = alloca %struct._ZSaIcE*, align 8

	call void @llvm.dbg.declare (metadata %struct._ZSaIcE** %_T23532632_52381.addr, metadata !4316, metadata !3896), !dbg !4313
	store %struct._ZSaIcE* %_T23532632_52381.arg, %struct._ZSaIcE** %_T23532632_52381.addr, align 8, !tbaa !3904
	call void @llvm.dbg.declare (metadata %struct._ZSaIcE** %_T23532632_52381.addr, metadata !4317, metadata !3896), !dbg !4313
	ret void, !dbg !4318
}
define linkonce_odr void @_ZNSaIcEC2Ev(%struct._ZSaIcE* %_T23532632_52382.arg) #0 inlinehint !dbg !4320 {
L.entry:
	%_T23532632_52382.addr = alloca %struct._ZSaIcE*, align 8

	store %struct._ZSaIcE* %_T23532632_52382.arg, %struct._ZSaIcE** %_T23532632_52382.addr, align 8, !tbaa !3904
	ret void, !dbg !4328
}
define linkonce_odr void @_ZNSaIcED1Ev(%struct._ZSaIcE* %_T23532632_52383.arg) #0 inlinehint !dbg !4330 {
L.entry:
	%_T23532632_52383.addr = alloca %struct._ZSaIcE*, align 8

	call void @llvm.dbg.declare (metadata %struct._ZSaIcE** %_T23532632_52383.addr, metadata !4334, metadata !3896), !dbg !4331
	store %struct._ZSaIcE* %_T23532632_52383.arg, %struct._ZSaIcE** %_T23532632_52383.addr, align 8, !tbaa !3904
	call void @llvm.dbg.declare (metadata %struct._ZSaIcE** %_T23532632_52383.addr, metadata !4335, metadata !3896), !dbg !4331
	ret void, !dbg !4336
}
define linkonce_odr void @_ZNSaIcED2Ev(%struct._ZSaIcE* %_T23532632_52384.arg) #0 inlinehint !dbg !4338 {
L.entry:
	%_T23532632_52384.addr = alloca %struct._ZSaIcE*, align 8

	store %struct._ZSaIcE* %_T23532632_52384.arg, %struct._ZSaIcE** %_T23532632_52384.addr, align 8, !tbaa !3904
	ret void, !dbg !4346
}
define linkonce_odr void @_ZNSt16allocator_traitsISaIcEE10deallocateERS0_Pcm(%struct._ZSaIcE* %__a.arg, i8* %__p.arg, i64 %__n.arg) #0 inlinehint !dbg !4356 {
L.entry:
	%__a.addr = alloca %struct._ZSaIcE*, align 8
	%__p.addr = alloca i8*, align 8
	%__n.addr = alloca i64, align 8
	%..inline.addr = alloca i8*, align 8

	call void @llvm.dbg.declare (metadata %struct._ZSaIcE** %__a.addr, metadata !4364, metadata !3896), !dbg !4357
	store %struct._ZSaIcE* %__a.arg, %struct._ZSaIcE** %__a.addr, align 8, !tbaa !3904
	call void @llvm.dbg.declare (metadata %struct._ZSaIcE** %__a.addr, metadata !4365, metadata !3896), !dbg !4357
	call void @llvm.dbg.declare (metadata i8** %__p.addr, metadata !4366, metadata !3896), !dbg !4357
	store i8* %__p.arg, i8** %__p.addr, align 8, !tbaa !3904
	call void @llvm.dbg.declare (metadata i8** %__p.addr, metadata !4367, metadata !3896), !dbg !4357
	call void @llvm.dbg.declare (metadata i64* %__n.addr, metadata !4368, metadata !3896), !dbg !4357
	store i64 %__n.arg, i64* %__n.addr, align 8, !tbaa !4014
	call void @llvm.dbg.declare (metadata i64* %__n.addr, metadata !4369, metadata !3896), !dbg !4357
	%0 = load i8*, i8** %__p.addr, align 8, !tbaa !3904, !dbg !4370
	call void  @_ZdlPv (i8*  %0) nounwind, !dbg !4371
	ret void, !dbg !4370
}
define linkonce_odr signext i8 @_ZNKSt5ctypeIcE5widenEc(%struct._ZSt5ctypeIcE* %_T23532816_52392.arg, i8 signext %__c.arg) #0 inlinehint !dbg !4377 {
L.entry:
	%_T23532816_52392.addr = alloca %struct._ZSt5ctypeIcE*, align 8
	%__c.addr = alloca i8, align 1
	%.Q0006.addr = alloca i32, align 4

	call void @llvm.dbg.declare (metadata %struct._ZSt5ctypeIcE** %_T23532816_52392.addr, metadata !4381, metadata !3896), !dbg !4378
	store %struct._ZSt5ctypeIcE* %_T23532816_52392.arg, %struct._ZSt5ctypeIcE** %_T23532816_52392.addr, align 8, !tbaa !3904
	call void @llvm.dbg.declare (metadata %struct._ZSt5ctypeIcE** %_T23532816_52392.addr, metadata !4382, metadata !3896), !dbg !4378
	call void @llvm.dbg.declare (metadata i8* %__c.addr, metadata !4383, metadata !3896), !dbg !4378
	store i8 %__c.arg, i8* %__c.addr, align 1, !tbaa !4014
	call void @llvm.dbg.declare (metadata i8* %__c.addr, metadata !4384, metadata !3896), !dbg !4378
	%0 = load %struct._ZSt5ctypeIcE*, %struct._ZSt5ctypeIcE** %_T23532816_52392.addr, align 8, !tbaa !3904, !dbg !4385
	%1 = bitcast %struct._ZSt5ctypeIcE*  %0 to i8*, !dbg !4385
	%2 = getelementptr i8, i8*  %1, i64 56, !dbg !4385
	%3 = load i8, i8*  %2, align 1, !tbaa !4014, !dbg !4385
	%4 = sext i8  %3 to i32, !dbg !4385
	%5 = icmp eq i32  %4, 0, !dbg !4385
	br i1  %5, label %L.B0005, label %L.B1008, !dbg !4385
L.B1008:
	%6 = bitcast %struct._ZSt5ctypeIcE*  %0 to i8*, !dbg !4386
	%7 = getelementptr i8, i8*  %6, i64 57, !dbg !4386
	%8 = load i8, i8* %__c.addr, align 1, !tbaa !4014, !dbg !4386
	%9 = sext i8  %8 to i32, !dbg !4386
	%10 = and i32  %9, 255, !dbg !4386
	%11 = sext i32  %10 to i64, !dbg !4386
	%12 = getelementptr i8, i8*  %7, i64  %11, !dbg !4386
	%13 = load i8, i8*  %12, align 1, !tbaa !4014, !dbg !4386
	ret i8  %13, !dbg !4386
L.B1009:
	br label %L.R0026, !dbg !4386
L.B0005:
	%14 = load %struct._ZSt5ctypeIcE*, %struct._ZSt5ctypeIcE** %_T23532816_52392.addr, align 8, !tbaa !3904, !dbg !4387
	call void  @_ZNKSt5ctypeIcE13_M_widen_initEv (%struct._ZSt5ctypeIcE*  %14), !dbg !4387
	%15 = load %struct._ZSt5ctypeIcE*, %struct._ZSt5ctypeIcE** %_T23532816_52392.addr, align 8, !tbaa !3904, !dbg !4388
	%16 = load i8, i8* %__c.addr, align 1, !tbaa !4014, !dbg !4388
	%17 = bitcast %struct._ZSt5ctypeIcE*  %15 to i8**, !dbg !4388
	%18 = load i8*, i8**  %17, align 8, !tbaa !3904, !dbg !4388
	%19 = getelementptr i8, i8*  %18, i64 48, !dbg !4388
	%20 = bitcast i8*  %19 to i8 (%struct._ZSt5ctypeIcE*, i8)**, !dbg !4388
	%21 = load i8 (%struct._ZSt5ctypeIcE*, i8)*, i8 (%struct._ZSt5ctypeIcE*, i8)**  %20, align 8, !tbaa !3904, !dbg !4388
	%22 = call i8  %21 (%struct._ZSt5ctypeIcE*  %15, i8  %16), !dbg !4388
	%23 = sext i8  %22 to i32, !dbg !4388
	store i32  %23, i32* %.Q0006.addr, align 4, !tbaa !4095, !dbg !4388
	%24 = shl i32  %23, 24, !dbg !4388
	%25 = ashr i32  %24, 24, !dbg !4388
	%26 = trunc i32  %25 to i8, !dbg !4388
	ret i8  %26, !dbg !4388
L.R0026:
	ret i8 0
}
define linkonce_odr signext i32 @_ZNKSt9basic_iosIcSt11char_traitsIcEE7rdstateEv(%struct._ZSt9basic_iosIcSt11char_traitsIcEE* %_T23532632_52395.arg) #0 inlinehint !dbg !4396 {
L.entry:
	%_T23532632_52395.addr = alloca %struct._ZSt9basic_iosIcSt11char_traitsIcEE*, align 8

	call void @llvm.dbg.declare (metadata %struct._ZSt9basic_iosIcSt11char_traitsIcEE** %_T23532632_52395.addr, metadata !4400, metadata !3896), !dbg !4397
	store %struct._ZSt9basic_iosIcSt11char_traitsIcEE* %_T23532632_52395.arg, %struct._ZSt9basic_iosIcSt11char_traitsIcEE** %_T23532632_52395.addr, align 8, !tbaa !3904
	call void @llvm.dbg.declare (metadata %struct._ZSt9basic_iosIcSt11char_traitsIcEE** %_T23532632_52395.addr, metadata !4401, metadata !3896), !dbg !4397
	%0 = load %struct._ZSt9basic_iosIcSt11char_traitsIcEE*, %struct._ZSt9basic_iosIcSt11char_traitsIcEE** %_T23532632_52395.addr, align 8, !tbaa !3904, !dbg !4402
	%1 = bitcast %struct._ZSt9basic_iosIcSt11char_traitsIcEE*  %0 to i8*, !dbg !4402
	%2 = getelementptr i8, i8*  %1, i64 32, !dbg !4402
	%3 = bitcast i8*  %2 to i32*, !dbg !4402
	%4 = load i32, i32*  %3, align 4, !tbaa !4014, !dbg !4402
	ret i32  %4, !dbg !4402
}
define linkonce_odr void @_ZNSt9basic_iosIcSt11char_traitsIcEE8setstateESt12_Ios_Iostate(%struct._ZSt9basic_iosIcSt11char_traitsIcEE* %_T23532632_52399.arg, i32 signext %__state.arg) #0 inlinehint !dbg !4406 {
L.entry:
	%_T23532632_52399.addr = alloca %struct._ZSt9basic_iosIcSt11char_traitsIcEE*, align 8
	%__state.addr = alloca i32, align 4
	%..inline.addr = alloca i32, align 4

	call void @llvm.dbg.declare (metadata %struct._ZSt9basic_iosIcSt11char_traitsIcEE** %_T23532632_52399.addr, metadata !4418, metadata !3896), !dbg !4407
	store %struct._ZSt9basic_iosIcSt11char_traitsIcEE* %_T23532632_52399.arg, %struct._ZSt9basic_iosIcSt11char_traitsIcEE** %_T23532632_52399.addr, align 8, !tbaa !3904
	call void @llvm.dbg.declare (metadata %struct._ZSt9basic_iosIcSt11char_traitsIcEE** %_T23532632_52399.addr, metadata !4419, metadata !3896), !dbg !4407
	call void @llvm.dbg.declare (metadata i32* %__state.addr, metadata !4420, metadata !3896), !dbg !4407
	store i32 %__state.arg, i32* %__state.addr, align 4, !tbaa !4014
	call void @llvm.dbg.declare (metadata i32* %__state.addr, metadata !4421, metadata !3896), !dbg !4407
	%0 = load i32, i32* %__state.addr, align 4, !tbaa !4014, !dbg !4422
	%1 = load %struct._ZSt9basic_iosIcSt11char_traitsIcEE*, %struct._ZSt9basic_iosIcSt11char_traitsIcEE** %_T23532632_52399.addr, align 8, !tbaa !3904, !dbg !4422
	%2 = bitcast %struct._ZSt9basic_iosIcSt11char_traitsIcEE*  %1 to i8*, !dbg !4422
	%3 = getelementptr i8, i8*  %2, i64 32, !dbg !4422
	%4 = bitcast i8*  %3 to i32*, !dbg !4422
	%5 = load i32, i32*  %4, align 4, !tbaa !4014, !dbg !4422
	%6 = or i32  %0,  %5, !dbg !4422
	call void  @_ZNSt9basic_iosIcSt11char_traitsIcEE5clearESt12_Ios_Iostate (%struct._ZSt9basic_iosIcSt11char_traitsIcEE*  %1, i32  %6), !dbg !4423
	ret void, !dbg !4422
}
define linkonce_odr signext i8 @_ZNKSt9basic_iosIcSt11char_traitsIcEE5widenEc(%struct._ZSt9basic_iosIcSt11char_traitsIcEE* %_T23532632_52401.arg, i8 signext %__c.arg) #0 inlinehint !dbg !4427 {
L.entry:
	%_T23532632_52401.addr = alloca %struct._ZSt9basic_iosIcSt11char_traitsIcEE*, align 8
	%__c.addr = alloca i8, align 1
	%..inline.addr = alloca %struct._ZSt5ctypeIcE*, align 8
	%..inline.addr.1 = alloca %struct._ZSt5ctypeIcE*, align 8
	%..inline.addr.2 = alloca i8, align 1
	%..inline.addr.3 = alloca i8, align 1
	%.Q0007.addr = alloca i32, align 4

	call void @llvm.dbg.declare (metadata %struct._ZSt9basic_iosIcSt11char_traitsIcEE** %_T23532632_52401.addr, metadata !4439, metadata !3896), !dbg !4428
	store %struct._ZSt9basic_iosIcSt11char_traitsIcEE* %_T23532632_52401.arg, %struct._ZSt9basic_iosIcSt11char_traitsIcEE** %_T23532632_52401.addr, align 8, !tbaa !3904
	call void @llvm.dbg.declare (metadata %struct._ZSt9basic_iosIcSt11char_traitsIcEE** %_T23532632_52401.addr, metadata !4440, metadata !3896), !dbg !4428
	call void @llvm.dbg.declare (metadata i8* %__c.addr, metadata !4441, metadata !3896), !dbg !4428
	store i8 %__c.arg, i8* %__c.addr, align 1, !tbaa !4014
	call void @llvm.dbg.declare (metadata i8* %__c.addr, metadata !4442, metadata !3896), !dbg !4428
	%0 = load %struct._ZSt9basic_iosIcSt11char_traitsIcEE*, %struct._ZSt9basic_iosIcSt11char_traitsIcEE** %_T23532632_52401.addr, align 8, !tbaa !3904, !dbg !4443
	%1 = bitcast %struct._ZSt9basic_iosIcSt11char_traitsIcEE*  %0 to i8*, !dbg !4443
	%2 = getelementptr i8, i8*  %1, i64 240, !dbg !4443
	%3 = bitcast i8*  %2 to i8**, !dbg !4443
	%4 = load i8*, i8**  %3, align 8, !tbaa !3904, !dbg !4443
	%5 = bitcast %struct._ZSt5ctypeIcE** %..inline.addr to i8**, !dbg !4443
	store i8*  %4, i8**  %5, align 8, !tbaa !3904, !dbg !4443
	%6 = load %struct._ZSt5ctypeIcE*, %struct._ZSt5ctypeIcE** %..inline.addr, align 8, !tbaa !3904, !dbg !4443
	%7 = bitcast %struct._ZSt5ctypeIcE*  %6 to i8*, !dbg !4443
	%8 = icmp ne i8*  %7,  null, !dbg !4443
	br i1  %8, label %L..inline.66570, label %L.B1018, !dbg !4443
L.B1018:
	call void  @_ZSt16__throw_bad_castv () noreturn, !dbg !4444
	br label %L..inline.66570
L..inline.66570:
	%9 = load %struct._ZSt5ctypeIcE*, %struct._ZSt5ctypeIcE** %..inline.addr, align 8, !tbaa !3904, !dbg !4445
	%10 = bitcast %struct._ZSt5ctypeIcE*  %9 to i8*, !dbg !4445
	%11 = bitcast %struct._ZSt5ctypeIcE** %..inline.addr.1 to i8**, !dbg !4445
	store i8*  %10, i8**  %11, align 8, !tbaa !3904, !dbg !4445
	%12 = load i8, i8* %__c.addr, align 1, !tbaa !4014, !dbg !4443
	store i8  %12, i8* %..inline.addr.2, align 1, !tbaa !4014, !dbg !4443
	%13 = load %struct._ZSt5ctypeIcE*, %struct._ZSt5ctypeIcE** %..inline.addr.1, align 8, !tbaa !3904, !dbg !4443
	%14 = bitcast %struct._ZSt5ctypeIcE*  %13 to i8*, !dbg !4443
	%15 = getelementptr i8, i8*  %14, i64 56, !dbg !4443
	%16 = load i8, i8*  %15, align 1, !tbaa !4014, !dbg !4443
	%17 = sext i8  %16 to i32, !dbg !4443
	%18 = icmp eq i32  %17, 0, !dbg !4443
	br i1  %18, label %L..inline.66576, label %L.B1019, !dbg !4443
L.B1019:
	%19 = bitcast %struct._ZSt5ctypeIcE*  %13 to i8*, !dbg !4446
	%20 = getelementptr i8, i8*  %19, i64 57, !dbg !4446
	%21 = sext i8  %12 to i32, !dbg !4446
	%22 = and i32  %21, 255, !dbg !4446
	%23 = sext i32  %22 to i64, !dbg !4446
	%24 = getelementptr i8, i8*  %20, i64  %23, !dbg !4446
	%25 = load i8, i8*  %24, align 1, !tbaa !4014, !dbg !4446
	store i8  %25, i8* %..inline.addr.3, align 1, !tbaa !4014, !dbg !4446
	br label %L..inline.66580, !dbg !4447
L..inline.66576:
	%26 = load %struct._ZSt5ctypeIcE*, %struct._ZSt5ctypeIcE** %..inline.addr.1, align 8, !tbaa !3904, !dbg !4448
	call void  @_ZNKSt5ctypeIcE13_M_widen_initEv (%struct._ZSt5ctypeIcE*  %26), !dbg !4448
	%27 = load %struct._ZSt5ctypeIcE*, %struct._ZSt5ctypeIcE** %..inline.addr.1, align 8, !tbaa !3904, !dbg !4449
	%28 = load i8, i8* %..inline.addr.2, align 1, !tbaa !4014, !dbg !4449
	%29 = bitcast %struct._ZSt5ctypeIcE*  %27 to i8**, !dbg !4449
	%30 = load i8*, i8**  %29, align 8, !tbaa !3904, !dbg !4449
	%31 = getelementptr i8, i8*  %30, i64 48, !dbg !4449
	%32 = bitcast i8*  %31 to i8 (%struct._ZSt5ctypeIcE*, i8)**, !dbg !4449
	%33 = load i8 (%struct._ZSt5ctypeIcE*, i8)*, i8 (%struct._ZSt5ctypeIcE*, i8)**  %32, align 8, !tbaa !3904, !dbg !4449
	%34 = call i8  %33 (%struct._ZSt5ctypeIcE*  %27, i8  %28), !dbg !4449
	%35 = sext i8  %34 to i32, !dbg !4449
	store i32  %35, i32* %.Q0007.addr, align 4, !tbaa !4095, !dbg !4449
	%36 = shl i32  %35, 24, !dbg !4449
	%37 = ashr i32  %36, 24, !dbg !4449
	%38 = trunc i32  %37 to i8, !dbg !4449
	store i8  %38, i8* %..inline.addr.3, align 1, !tbaa !4014, !dbg !4449
	br label %L..inline.66580
L..inline.66580:
	%39 = load i8, i8* %..inline.addr.3, align 1, !tbaa !4014, !dbg !4450
	ret i8  %39, !dbg !4450
}
define linkonce_odr %struct._ZSo* @_ZNSolsEPFRSoS_E(%struct._ZSo* %_T23532632_52403.arg, %struct._ZSo* (%struct._ZSo*)* %__pf.arg) #0 inlinehint !dbg !4459 {
L.entry:
	%_T23532632_52403.addr = alloca %struct._ZSo*, align 8
	%__pf.addr = alloca %struct._ZSo* (%struct._ZSo*)*, align 8
	%.Q0008.addr = alloca %struct._ZSo*, align 8

	call void @llvm.dbg.declare (metadata %struct._ZSo** %_T23532632_52403.addr, metadata !4463, metadata !3896), !dbg !4460
	store %struct._ZSo* %_T23532632_52403.arg, %struct._ZSo** %_T23532632_52403.addr, align 8, !tbaa !3904
	call void @llvm.dbg.declare (metadata %struct._ZSo** %_T23532632_52403.addr, metadata !4464, metadata !3896), !dbg !4460
	call void @llvm.dbg.declare (metadata %struct._ZSo* (%struct._ZSo*)** %__pf.addr, metadata !4465, metadata !3896), !dbg !4460
	store %struct._ZSo* (%struct._ZSo*)* %__pf.arg, %struct._ZSo* (%struct._ZSo*)** %__pf.addr, align 8, !tbaa !3904
	call void @llvm.dbg.declare (metadata %struct._ZSo* (%struct._ZSo*)** %__pf.addr, metadata !4466, metadata !3896), !dbg !4460
	%0 = load %struct._ZSo*, %struct._ZSo** %_T23532632_52403.addr, align 8, !tbaa !3904, !dbg !4467
	%1 = load %struct._ZSo* (%struct._ZSo*)*, %struct._ZSo* (%struct._ZSo*)** %__pf.addr, align 8, !tbaa !3904, !dbg !4467
	%2 = call %struct._ZSo*  %1 (%struct._ZSo*  %0), !dbg !4467
	%3 = bitcast %struct._ZSo*  %2 to i8*, !dbg !4467
	%4 = bitcast %struct._ZSo** %.Q0008.addr to i8**, !dbg !4467
	store i8*  %3, i8**  %4, align 8, !tbaa !3904, !dbg !4467
	%5 = load %struct._ZSo*, %struct._ZSo** %.Q0008.addr, align 8, !tbaa !3904, !dbg !4467
	ret %struct._ZSo*  %5, !dbg !4467
}
define linkonce_odr %struct._ZSo* @_ZNSolsEj(%struct._ZSo* %_T23532632_52405.arg, i32 zeroext %__n.arg) #0 inlinehint !dbg !4472 {
L.entry:
	%_T23532632_52405.addr = alloca %struct._ZSo*, align 8
	%__n.addr = alloca i32, align 4
	%.Q0009.addr = alloca %struct._ZSo*, align 8

	call void @llvm.dbg.declare (metadata %struct._ZSo** %_T23532632_52405.addr, metadata !4476, metadata !3896), !dbg !4473
	store %struct._ZSo* %_T23532632_52405.arg, %struct._ZSo** %_T23532632_52405.addr, align 8, !tbaa !3904
	call void @llvm.dbg.declare (metadata %struct._ZSo** %_T23532632_52405.addr, metadata !4477, metadata !3896), !dbg !4473
	call void @llvm.dbg.declare (metadata i32* %__n.addr, metadata !4478, metadata !3896), !dbg !4473
	store i32 %__n.arg, i32* %__n.addr, align 4, !tbaa !4014
	call void @llvm.dbg.declare (metadata i32* %__n.addr, metadata !4479, metadata !3896), !dbg !4473
	%0 = load %struct._ZSo*, %struct._ZSo** %_T23532632_52405.addr, align 8, !tbaa !3904, !dbg !4480
	%1 = load i32, i32* %__n.addr, align 4, !tbaa !4095, !dbg !4480
	%2 = zext i32  %1 to i64, !dbg !4480
	%3 = call %struct._ZSo*  @_ZNSo9_M_insertImEERSoT_ (%struct._ZSo*  %0, i64  %2), !dbg !4480
	%4 = bitcast %struct._ZSo*  %3 to i8*, !dbg !4480
	%5 = bitcast %struct._ZSo** %.Q0009.addr to i8**, !dbg !4480
	store i8*  %4, i8**  %5, align 8, !tbaa !3904, !dbg !4480
	%6 = load %struct._ZSo*, %struct._ZSo** %.Q0009.addr, align 8, !tbaa !3904, !dbg !4480
	ret %struct._ZSo*  %6, !dbg !4480
}
define linkonce_odr void @_ZNSt12_Destroy_auxILb1EE9__destroyIPjEEvT_S3_(i32* %_T23532632_52412.arg, i32* %_T23532928_52412.arg) #0 inlinehint !dbg !4487 {
L.entry:
	%_T23532632_52412.addr = alloca i32*, align 8
	%_T23532928_52412.addr = alloca i32*, align 8

	call void @llvm.dbg.declare (metadata i32** %_T23532632_52412.addr, metadata !4491, metadata !3896), !dbg !4488
	store i32* %_T23532632_52412.arg, i32** %_T23532632_52412.addr, align 8, !tbaa !3904
	call void @llvm.dbg.declare (metadata i32** %_T23532632_52412.addr, metadata !4492, metadata !3896), !dbg !4488
	call void @llvm.dbg.declare (metadata i32** %_T23532928_52412.addr, metadata !4493, metadata !3896), !dbg !4488
	store i32* %_T23532928_52412.arg, i32** %_T23532928_52412.addr, align 8, !tbaa !3904
	call void @llvm.dbg.declare (metadata i32** %_T23532928_52412.addr, metadata !4494, metadata !3896), !dbg !4488
	ret void, !dbg !4495
}
define linkonce_odr void @_ZNSt12_Destroy_auxILb1EE9__destroyIPdEEvT_S3_(double* %_T23532632_52415.arg, double* %_T23532928_52415.arg) #0 inlinehint !dbg !4499 {
L.entry:
	%_T23532632_52415.addr = alloca double*, align 8
	%_T23532928_52415.addr = alloca double*, align 8

	call void @llvm.dbg.declare (metadata double** %_T23532632_52415.addr, metadata !4503, metadata !3896), !dbg !4500
	store double* %_T23532632_52415.arg, double** %_T23532632_52415.addr, align 8, !tbaa !3904
	call void @llvm.dbg.declare (metadata double** %_T23532632_52415.addr, metadata !4504, metadata !3896), !dbg !4500
	call void @llvm.dbg.declare (metadata double** %_T23532928_52415.addr, metadata !4505, metadata !3896), !dbg !4500
	store double* %_T23532928_52415.arg, double** %_T23532928_52415.addr, align 8, !tbaa !3904
	call void @llvm.dbg.declare (metadata double** %_T23532928_52415.addr, metadata !4506, metadata !3896), !dbg !4500
	ret void, !dbg !4507
}

%struct._ZSaIjE = type <{ [1 x i8]}> 

define linkonce_odr void @_ZNSaIjED1Ev(%struct._ZSaIjE* %_T23532632_52416.arg) #0 inlinehint !dbg !4515 {
L.entry:
	%_T23532632_52416.addr = alloca %struct._ZSaIjE*, align 8

	call void @llvm.dbg.declare (metadata %struct._ZSaIjE** %_T23532632_52416.addr, metadata !4519, metadata !3896), !dbg !4516
	store %struct._ZSaIjE* %_T23532632_52416.arg, %struct._ZSaIjE** %_T23532632_52416.addr, align 8, !tbaa !3904
	call void @llvm.dbg.declare (metadata %struct._ZSaIjE** %_T23532632_52416.addr, metadata !4520, metadata !3896), !dbg !4516
	ret void, !dbg !4521
}
define linkonce_odr void @_ZNSaIjED2Ev(%struct._ZSaIjE* %_T23532632_52417.arg) #0 inlinehint !dbg !4523 {
L.entry:
	%_T23532632_52417.addr = alloca %struct._ZSaIjE*, align 8

	store %struct._ZSaIjE* %_T23532632_52417.arg, %struct._ZSaIjE** %_T23532632_52417.addr, align 8, !tbaa !3904
	ret void, !dbg !4531
}
define linkonce_odr void @_ZNSt16allocator_traitsISaIjEE10deallocateERS0_Pjm(%struct._ZSaIjE* %__a.arg, i32* %__p.arg, i64 %__n.arg) #0 inlinehint !dbg !4539 {
L.entry:
	%__a.addr = alloca %struct._ZSaIjE*, align 8
	%__p.addr = alloca i32*, align 8
	%__n.addr = alloca i64, align 8
	%..inline.addr = alloca i32*, align 8

	call void @llvm.dbg.declare (metadata %struct._ZSaIjE** %__a.addr, metadata !4547, metadata !3896), !dbg !4540
	store %struct._ZSaIjE* %__a.arg, %struct._ZSaIjE** %__a.addr, align 8, !tbaa !3904
	call void @llvm.dbg.declare (metadata %struct._ZSaIjE** %__a.addr, metadata !4548, metadata !3896), !dbg !4540
	call void @llvm.dbg.declare (metadata i32** %__p.addr, metadata !4549, metadata !3896), !dbg !4540
	store i32* %__p.arg, i32** %__p.addr, align 8, !tbaa !3904
	call void @llvm.dbg.declare (metadata i32** %__p.addr, metadata !4550, metadata !3896), !dbg !4540
	call void @llvm.dbg.declare (metadata i64* %__n.addr, metadata !4551, metadata !3896), !dbg !4540
	store i64 %__n.arg, i64* %__n.addr, align 8, !tbaa !4014
	call void @llvm.dbg.declare (metadata i64* %__n.addr, metadata !4552, metadata !3896), !dbg !4540
	%0 = load i32*, i32** %__p.addr, align 8, !tbaa !3904, !dbg !4553
	%1 = bitcast i32*  %0 to i8*, !dbg !4553
	%2 = bitcast i32** %..inline.addr to i8**, !dbg !4553
	store i8*  %1, i8**  %2, align 8, !tbaa !3904, !dbg !4553
	%3 = load i32*, i32** %..inline.addr, align 8, !tbaa !3904, !dbg !4554
	%4 = bitcast i32*  %3 to i8*, !dbg !4554
	call void  @_ZdlPv (i8*  %4) nounwind, !dbg !4554
	ret void, !dbg !4553
}

%struct._ZNSt12_Vector_baseIjSaIjEE17_Vector_impl_dataE = type <{ i32*, i32*, i32*}> 
%struct._ZSt12_Vector_baseIjSaIjEE = type <{ %struct._ZNSt12_Vector_baseIjSaIjEE12_Vector_implE}> 
%struct._ZNSt12_Vector_baseIjSaIjEE12_Vector_implE = type <{ %struct._ZNSt12_Vector_baseIjSaIjEE17_Vector_impl_dataE}> 

define linkonce_odr %struct._ZSaIjE* @_ZNSt12_Vector_baseIjSaIjEE19_M_get_Tp_allocatorEv(%struct._ZSt12_Vector_baseIjSaIjEE* %_T23532632_52423.arg) #0 inlinehint !dbg !4562 {
L.entry:
	%_T23532632_52423.addr = alloca %struct._ZSt12_Vector_baseIjSaIjEE*, align 8

	call void @llvm.dbg.declare (metadata %struct._ZSt12_Vector_baseIjSaIjEE** %_T23532632_52423.addr, metadata !4566, metadata !3896), !dbg !4563
	store %struct._ZSt12_Vector_baseIjSaIjEE* %_T23532632_52423.arg, %struct._ZSt12_Vector_baseIjSaIjEE** %_T23532632_52423.addr, align 8, !tbaa !3904
	call void @llvm.dbg.declare (metadata %struct._ZSt12_Vector_baseIjSaIjEE** %_T23532632_52423.addr, metadata !4567, metadata !3896), !dbg !4563
	%0 = load %struct._ZSt12_Vector_baseIjSaIjEE*, %struct._ZSt12_Vector_baseIjSaIjEE** %_T23532632_52423.addr, align 8, !tbaa !3904, !dbg !4568
	%1 = bitcast %struct._ZSt12_Vector_baseIjSaIjEE*  %0 to %struct._ZSaIjE*, !dbg !4568
	ret %struct._ZSaIjE*  %1, !dbg !4568
}
define linkonce_odr void @_ZNSt12_Vector_baseIjSaIjEED1Ev(%struct._ZSt12_Vector_baseIjSaIjEE* %_T23532632_52424.arg) #0 inlinehint !dbg !4572 {
L.entry:
	%_T23532632_52424.addr = alloca %struct._ZSt12_Vector_baseIjSaIjEE*, align 8
	%..inline.addr = alloca i32*, align 8

	call void @llvm.dbg.declare (metadata %struct._ZSt12_Vector_baseIjSaIjEE** %_T23532632_52424.addr, metadata !4600, metadata !3896), !dbg !4573
	store %struct._ZSt12_Vector_baseIjSaIjEE* %_T23532632_52424.arg, %struct._ZSt12_Vector_baseIjSaIjEE** %_T23532632_52424.addr, align 8, !tbaa !3904
	call void @llvm.dbg.declare (metadata %struct._ZSt12_Vector_baseIjSaIjEE** %_T23532632_52424.addr, metadata !4601, metadata !3896), !dbg !4573
	%0 = load %struct._ZSt12_Vector_baseIjSaIjEE*, %struct._ZSt12_Vector_baseIjSaIjEE** %_T23532632_52424.addr, align 8, !tbaa !3904, !dbg !4602
	%1 = bitcast %struct._ZSt12_Vector_baseIjSaIjEE*  %0 to i8**, !dbg !4602
	%2 = load i8*, i8**  %1, align 8, !tbaa !3904, !dbg !4602
	%3 = icmp eq i8*  %2,  null, !dbg !4602
	br i1  %3, label %L..inline.66645, label %L.B1028, !dbg !4602
L.B1028:
	%4 = bitcast %struct._ZSt12_Vector_baseIjSaIjEE*  %0 to i8**, !dbg !4603
	%5 = load i8*, i8**  %4, align 8, !tbaa !3904, !dbg !4603
	%6 = bitcast i32** %..inline.addr to i8**, !dbg !4603
	store i8*  %5, i8**  %6, align 8, !tbaa !3904, !dbg !4603
	%7 = load i32*, i32** %..inline.addr, align 8, !tbaa !3904, !dbg !4603
	%8 = bitcast i32*  %7 to i8*, !dbg !4603
	call void  @_ZdlPv (i8*  %8) nounwind, !dbg !4603
	br label %L..inline.66645
L..inline.66645:
	ret void, !dbg !4604
}
define linkonce_odr void @_ZNSt12_Vector_baseIjSaIjEED2Ev(%struct._ZSt12_Vector_baseIjSaIjEE* %_T23532632_52425.arg) #0 inlinehint !dbg !4606 {
L.entry:
	%_T23532632_52425.addr = alloca %struct._ZSt12_Vector_baseIjSaIjEE*, align 8
	%..inline.addr = alloca %struct._ZSt12_Vector_baseIjSaIjEE*, align 8
	%..inline.addr.1 = alloca i32*, align 8

	store %struct._ZSt12_Vector_baseIjSaIjEE* %_T23532632_52425.arg, %struct._ZSt12_Vector_baseIjSaIjEE** %_T23532632_52425.addr, align 8, !tbaa !3904
	%0 = load %struct._ZSt12_Vector_baseIjSaIjEE*, %struct._ZSt12_Vector_baseIjSaIjEE** %_T23532632_52425.addr, align 8, !tbaa !3904, !dbg !4638
	%1 = bitcast %struct._ZSt12_Vector_baseIjSaIjEE*  %0 to i8*, !dbg !4638
	%2 = bitcast %struct._ZSt12_Vector_baseIjSaIjEE** %..inline.addr to i8**, !dbg !4638
	store i8*  %1, i8**  %2, align 8, !tbaa !3904, !dbg !4638
	%3 = load %struct._ZSt12_Vector_baseIjSaIjEE*, %struct._ZSt12_Vector_baseIjSaIjEE** %..inline.addr, align 8, !tbaa !3904, !dbg !4638
	%4 = bitcast %struct._ZSt12_Vector_baseIjSaIjEE*  %3 to i8**, !dbg !4638
	%5 = load i8*, i8**  %4, align 8, !tbaa !3904, !dbg !4638
	%6 = icmp eq i8*  %5,  null, !dbg !4638
	br i1  %6, label %L..inline.66705, label %L.B1031, !dbg !4638
L.B1031:
	%7 = bitcast %struct._ZSt12_Vector_baseIjSaIjEE*  %3 to i8**, !dbg !4638
	%8 = load i8*, i8**  %7, align 8, !tbaa !3904, !dbg !4638
	%9 = bitcast i32** %..inline.addr.1 to i8**, !dbg !4638
	store i8*  %8, i8**  %9, align 8, !tbaa !3904, !dbg !4638
	%10 = load i32*, i32** %..inline.addr.1, align 8, !tbaa !3904, !dbg !4638
	%11 = bitcast i32*  %10 to i8*, !dbg !4638
	call void  @_ZdlPv (i8*  %11) nounwind, !dbg !4638
	br label %L..inline.66705
L..inline.66705:
	ret void, !dbg !4639
}
define linkonce_odr void @_ZNSt12_Vector_baseIjSaIjEE13_M_deallocateEPjm(%struct._ZSt12_Vector_baseIjSaIjEE* %_T23532632_52428.arg, i32* %__p.arg, i64 %__n.arg) #0 inlinehint !dbg !4643 {
L.entry:
	%_T23532632_52428.addr = alloca %struct._ZSt12_Vector_baseIjSaIjEE*, align 8
	%__p.addr = alloca i32*, align 8
	%__n.addr = alloca i64, align 8
	%..inline.addr = alloca i32*, align 8

	call void @llvm.dbg.declare (metadata %struct._ZSt12_Vector_baseIjSaIjEE** %_T23532632_52428.addr, metadata !4655, metadata !3896), !dbg !4644
	store %struct._ZSt12_Vector_baseIjSaIjEE* %_T23532632_52428.arg, %struct._ZSt12_Vector_baseIjSaIjEE** %_T23532632_52428.addr, align 8, !tbaa !3904
	call void @llvm.dbg.declare (metadata %struct._ZSt12_Vector_baseIjSaIjEE** %_T23532632_52428.addr, metadata !4656, metadata !3896), !dbg !4644
	call void @llvm.dbg.declare (metadata i32** %__p.addr, metadata !4657, metadata !3896), !dbg !4644
	store i32* %__p.arg, i32** %__p.addr, align 8, !tbaa !3904
	call void @llvm.dbg.declare (metadata i32** %__p.addr, metadata !4658, metadata !3896), !dbg !4644
	call void @llvm.dbg.declare (metadata i64* %__n.addr, metadata !4659, metadata !3896), !dbg !4644
	store i64 %__n.arg, i64* %__n.addr, align 8, !tbaa !4014
	call void @llvm.dbg.declare (metadata i64* %__n.addr, metadata !4660, metadata !3896), !dbg !4644
	%0 = load i32*, i32** %__p.addr, align 8, !tbaa !3904, !dbg !4661
	%1 = bitcast i32*  %0 to i8*, !dbg !4661
	%2 = icmp eq i8*  %1,  null, !dbg !4661
	br i1  %2, label %L.B0006, label %L.B1034, !dbg !4661
L.B1034:
	%3 = bitcast i32*  %0 to i8*, !dbg !4662
	%4 = bitcast i32** %..inline.addr to i8**, !dbg !4662
	store i8*  %3, i8**  %4, align 8, !tbaa !3904, !dbg !4662
	%5 = load i32*, i32** %..inline.addr, align 8, !tbaa !3904, !dbg !4662
	%6 = bitcast i32*  %5 to i8*, !dbg !4662
	call void  @_ZdlPv (i8*  %6) nounwind, !dbg !4662
	br label %L.B0006
L.B0006:
	ret void, !dbg !4663
}
define linkonce_odr void @_ZNSt12_Vector_baseIjSaIjEE12_Vector_implD1Ev(%struct._ZNSt12_Vector_baseIjSaIjEE12_Vector_implE* %_T23532632_52429.arg) #0 inlinehint !dbg !4668 {
L.entry:
	%_T23532632_52429.addr = alloca %struct._ZNSt12_Vector_baseIjSaIjEE12_Vector_implE*, align 8

	call void @llvm.dbg.declare (metadata %struct._ZNSt12_Vector_baseIjSaIjEE12_Vector_implE** %_T23532632_52429.addr, metadata !4680, metadata !3896), !dbg !4669
	store %struct._ZNSt12_Vector_baseIjSaIjEE12_Vector_implE* %_T23532632_52429.arg, %struct._ZNSt12_Vector_baseIjSaIjEE12_Vector_implE** %_T23532632_52429.addr, align 8, !tbaa !3904
	call void @llvm.dbg.declare (metadata %struct._ZNSt12_Vector_baseIjSaIjEE12_Vector_implE** %_T23532632_52429.addr, metadata !4681, metadata !3896), !dbg !4669
	ret void, !dbg !4682
}
define linkonce_odr void @_ZNSt12_Vector_baseIjSaIjEE12_Vector_implD2Ev(%struct._ZNSt12_Vector_baseIjSaIjEE12_Vector_implE* %_T23532632_52430.arg) #0 inlinehint !dbg !4684 {
L.entry:
	%_T23532632_52430.addr = alloca %struct._ZNSt12_Vector_baseIjSaIjEE12_Vector_implE*, align 8

	store %struct._ZNSt12_Vector_baseIjSaIjEE12_Vector_implE* %_T23532632_52430.arg, %struct._ZNSt12_Vector_baseIjSaIjEE12_Vector_implE** %_T23532632_52430.addr, align 8, !tbaa !3904
	ret void, !dbg !4700
}

%struct._ZSt6vectorIjSaIjEE = type <{ %struct._ZSt12_Vector_baseIjSaIjEE}> 

define linkonce_odr void @_ZNSt6vectorIjSaIjEED1Ev(%struct._ZSt6vectorIjSaIjEE* %_T23532632_52431.arg) #0 inlinehint !dbg !4704 {
L.entry:
	%_T23532632_52431.addr = alloca %struct._ZSt6vectorIjSaIjEE*, align 8
	%..inline.addr = alloca %struct._ZSt12_Vector_baseIjSaIjEE*, align 8
	%..inline.addr.1 = alloca i32*, align 8

	call void @llvm.dbg.declare (metadata %struct._ZSt6vectorIjSaIjEE** %_T23532632_52431.addr, metadata !4756, metadata !3896), !dbg !4705
	store %struct._ZSt6vectorIjSaIjEE* %_T23532632_52431.arg, %struct._ZSt6vectorIjSaIjEE** %_T23532632_52431.addr, align 8, !tbaa !3904
	call void @llvm.dbg.declare (metadata %struct._ZSt6vectorIjSaIjEE** %_T23532632_52431.addr, metadata !4757, metadata !3896), !dbg !4705
	%0 = load %struct._ZSt6vectorIjSaIjEE*, %struct._ZSt6vectorIjSaIjEE** %_T23532632_52431.addr, align 8, !tbaa !3904, !dbg !4758
	%1 = bitcast %struct._ZSt6vectorIjSaIjEE*  %0 to i8*, !dbg !4758
	%2 = bitcast %struct._ZSt12_Vector_baseIjSaIjEE** %..inline.addr to i8**, !dbg !4758
	store i8*  %1, i8**  %2, align 8, !tbaa !3904, !dbg !4758
	%3 = load %struct._ZSt12_Vector_baseIjSaIjEE*, %struct._ZSt12_Vector_baseIjSaIjEE** %..inline.addr, align 8, !tbaa !3904, !dbg !4759
	%4 = bitcast %struct._ZSt12_Vector_baseIjSaIjEE*  %3 to i8**, !dbg !4759
	%5 = load i8*, i8**  %4, align 8, !tbaa !3904, !dbg !4759
	%6 = icmp eq i8*  %5,  null, !dbg !4759
	br i1  %6, label %L..inline.66856, label %L.B1045, !dbg !4759
L.B1045:
	%7 = bitcast %struct._ZSt12_Vector_baseIjSaIjEE*  %3 to i8**, !dbg !4759
	%8 = load i8*, i8**  %7, align 8, !tbaa !3904, !dbg !4759
	%9 = bitcast i32** %..inline.addr.1 to i8**, !dbg !4759
	store i8*  %8, i8**  %9, align 8, !tbaa !3904, !dbg !4759
	%10 = load i32*, i32** %..inline.addr.1, align 8, !tbaa !3904, !dbg !4759
	%11 = bitcast i32*  %10 to i8*, !dbg !4759
	call void  @_ZdlPv (i8*  %11) nounwind, !dbg !4759
	br label %L..inline.66856
L..inline.66856:
	ret void, !dbg !4758
}
define linkonce_odr void @_ZNSt6vectorIjSaIjEED2Ev(%struct._ZSt6vectorIjSaIjEE* %_T23532632_52432.arg) #0 inlinehint !dbg !4761 {
L.entry:
	%_T23532632_52432.addr = alloca %struct._ZSt6vectorIjSaIjEE*, align 8
	%..inline.addr = alloca %struct._ZSt12_Vector_baseIjSaIjEE*, align 8
	%..inline.addr.1 = alloca i32*, align 8

	store %struct._ZSt6vectorIjSaIjEE* %_T23532632_52432.arg, %struct._ZSt6vectorIjSaIjEE** %_T23532632_52432.addr, align 8, !tbaa !3904
	%0 = load %struct._ZSt6vectorIjSaIjEE*, %struct._ZSt6vectorIjSaIjEE** %_T23532632_52432.addr, align 8, !tbaa !3904, !dbg !4817
	%1 = bitcast %struct._ZSt6vectorIjSaIjEE*  %0 to i8*, !dbg !4817
	%2 = bitcast %struct._ZSt12_Vector_baseIjSaIjEE** %..inline.addr to i8**, !dbg !4817
	store i8*  %1, i8**  %2, align 8, !tbaa !3904, !dbg !4817
	%3 = load %struct._ZSt12_Vector_baseIjSaIjEE*, %struct._ZSt12_Vector_baseIjSaIjEE** %..inline.addr, align 8, !tbaa !3904, !dbg !4817
	%4 = bitcast %struct._ZSt12_Vector_baseIjSaIjEE*  %3 to i8**, !dbg !4817
	%5 = load i8*, i8**  %4, align 8, !tbaa !3904, !dbg !4817
	%6 = icmp eq i8*  %5,  null, !dbg !4817
	br i1  %6, label %L..inline.66960, label %L.B1048, !dbg !4817
L.B1048:
	%7 = bitcast %struct._ZSt12_Vector_baseIjSaIjEE*  %3 to i8**, !dbg !4817
	%8 = load i8*, i8**  %7, align 8, !tbaa !3904, !dbg !4817
	%9 = bitcast i32** %..inline.addr.1 to i8**, !dbg !4817
	store i8*  %8, i8**  %9, align 8, !tbaa !3904, !dbg !4817
	%10 = load i32*, i32** %..inline.addr.1, align 8, !tbaa !3904, !dbg !4817
	%11 = bitcast i32*  %10 to i8*, !dbg !4817
	call void  @_ZdlPv (i8*  %11) nounwind, !dbg !4817
	br label %L..inline.66960
L..inline.66960:
	ret void, !dbg !4817
}

%struct._ZSaIdE = type <{ [1 x i8]}> 

define linkonce_odr void @_ZNSaIdED1Ev(%struct._ZSaIdE* %_T23532632_52433.arg) #0 inlinehint !dbg !4825 {
L.entry:
	%_T23532632_52433.addr = alloca %struct._ZSaIdE*, align 8

	call void @llvm.dbg.declare (metadata %struct._ZSaIdE** %_T23532632_52433.addr, metadata !4829, metadata !3896), !dbg !4826
	store %struct._ZSaIdE* %_T23532632_52433.arg, %struct._ZSaIdE** %_T23532632_52433.addr, align 8, !tbaa !3904
	call void @llvm.dbg.declare (metadata %struct._ZSaIdE** %_T23532632_52433.addr, metadata !4830, metadata !3896), !dbg !4826
	ret void, !dbg !4831
}
define linkonce_odr void @_ZNSaIdED2Ev(%struct._ZSaIdE* %_T23532632_52434.arg) #0 inlinehint !dbg !4833 {
L.entry:
	%_T23532632_52434.addr = alloca %struct._ZSaIdE*, align 8

	store %struct._ZSaIdE* %_T23532632_52434.arg, %struct._ZSaIdE** %_T23532632_52434.addr, align 8, !tbaa !3904
	ret void, !dbg !4841
}
define linkonce_odr void @_ZNSt16allocator_traitsISaIdEE10deallocateERS0_Pdm(%struct._ZSaIdE* %__a.arg, double* %__p.arg, i64 %__n.arg) #0 inlinehint !dbg !4849 {
L.entry:
	%__a.addr = alloca %struct._ZSaIdE*, align 8
	%__p.addr = alloca double*, align 8
	%__n.addr = alloca i64, align 8
	%..inline.addr = alloca double*, align 8

	call void @llvm.dbg.declare (metadata %struct._ZSaIdE** %__a.addr, metadata !4857, metadata !3896), !dbg !4850
	store %struct._ZSaIdE* %__a.arg, %struct._ZSaIdE** %__a.addr, align 8, !tbaa !3904
	call void @llvm.dbg.declare (metadata %struct._ZSaIdE** %__a.addr, metadata !4858, metadata !3896), !dbg !4850
	call void @llvm.dbg.declare (metadata double** %__p.addr, metadata !4859, metadata !3896), !dbg !4850
	store double* %__p.arg, double** %__p.addr, align 8, !tbaa !3904
	call void @llvm.dbg.declare (metadata double** %__p.addr, metadata !4860, metadata !3896), !dbg !4850
	call void @llvm.dbg.declare (metadata i64* %__n.addr, metadata !4861, metadata !3896), !dbg !4850
	store i64 %__n.arg, i64* %__n.addr, align 8, !tbaa !4014
	call void @llvm.dbg.declare (metadata i64* %__n.addr, metadata !4862, metadata !3896), !dbg !4850
	%0 = load double*, double** %__p.addr, align 8, !tbaa !3904, !dbg !4863
	%1 = bitcast double*  %0 to i8*, !dbg !4863
	%2 = bitcast double** %..inline.addr to i8**, !dbg !4863
	store i8*  %1, i8**  %2, align 8, !tbaa !3904, !dbg !4863
	%3 = load double*, double** %..inline.addr, align 8, !tbaa !3904, !dbg !4864
	%4 = bitcast double*  %3 to i8*, !dbg !4864
	call void  @_ZdlPv (i8*  %4) nounwind, !dbg !4864
	ret void, !dbg !4863
}

%struct._ZSt12_Vector_baseIdSaIdEE = type <{ %struct._ZNSt12_Vector_baseIdSaIdEE12_Vector_implE}> 
%struct._ZNSt12_Vector_baseIdSaIdEE17_Vector_impl_dataE = type <{ double*, double*, double*}> 
%struct._ZNSt12_Vector_baseIdSaIdEE12_Vector_implE = type <{ %struct._ZNSt12_Vector_baseIdSaIdEE17_Vector_impl_dataE}> 

define linkonce_odr %struct._ZSaIdE* @_ZNSt12_Vector_baseIdSaIdEE19_M_get_Tp_allocatorEv(%struct._ZSt12_Vector_baseIdSaIdEE* %_T23532632_52440.arg) #0 inlinehint !dbg !4870 {
L.entry:
	%_T23532632_52440.addr = alloca %struct._ZSt12_Vector_baseIdSaIdEE*, align 8

	call void @llvm.dbg.declare (metadata %struct._ZSt12_Vector_baseIdSaIdEE** %_T23532632_52440.addr, metadata !4874, metadata !3896), !dbg !4871
	store %struct._ZSt12_Vector_baseIdSaIdEE* %_T23532632_52440.arg, %struct._ZSt12_Vector_baseIdSaIdEE** %_T23532632_52440.addr, align 8, !tbaa !3904
	call void @llvm.dbg.declare (metadata %struct._ZSt12_Vector_baseIdSaIdEE** %_T23532632_52440.addr, metadata !4875, metadata !3896), !dbg !4871
	%0 = load %struct._ZSt12_Vector_baseIdSaIdEE*, %struct._ZSt12_Vector_baseIdSaIdEE** %_T23532632_52440.addr, align 8, !tbaa !3904, !dbg !4876
	%1 = bitcast %struct._ZSt12_Vector_baseIdSaIdEE*  %0 to %struct._ZSaIdE*, !dbg !4876
	ret %struct._ZSaIdE*  %1, !dbg !4876
}
define linkonce_odr void @_ZNSt12_Vector_baseIdSaIdEED1Ev(%struct._ZSt12_Vector_baseIdSaIdEE* %_T23532632_52441.arg) #0 inlinehint !dbg !4880 {
L.entry:
	%_T23532632_52441.addr = alloca %struct._ZSt12_Vector_baseIdSaIdEE*, align 8
	%..inline.addr = alloca double*, align 8

	call void @llvm.dbg.declare (metadata %struct._ZSt12_Vector_baseIdSaIdEE** %_T23532632_52441.addr, metadata !4908, metadata !3896), !dbg !4881
	store %struct._ZSt12_Vector_baseIdSaIdEE* %_T23532632_52441.arg, %struct._ZSt12_Vector_baseIdSaIdEE** %_T23532632_52441.addr, align 8, !tbaa !3904
	call void @llvm.dbg.declare (metadata %struct._ZSt12_Vector_baseIdSaIdEE** %_T23532632_52441.addr, metadata !4909, metadata !3896), !dbg !4881
	%0 = load %struct._ZSt12_Vector_baseIdSaIdEE*, %struct._ZSt12_Vector_baseIdSaIdEE** %_T23532632_52441.addr, align 8, !tbaa !3904, !dbg !4910
	%1 = bitcast %struct._ZSt12_Vector_baseIdSaIdEE*  %0 to i8**, !dbg !4910
	%2 = load i8*, i8**  %1, align 8, !tbaa !3904, !dbg !4910
	%3 = icmp eq i8*  %2,  null, !dbg !4910
	br i1  %3, label %L..inline.67056, label %L.B1057, !dbg !4910
L.B1057:
	%4 = bitcast %struct._ZSt12_Vector_baseIdSaIdEE*  %0 to i8**, !dbg !4911
	%5 = load i8*, i8**  %4, align 8, !tbaa !3904, !dbg !4911
	%6 = bitcast double** %..inline.addr to i8**, !dbg !4911
	store i8*  %5, i8**  %6, align 8, !tbaa !3904, !dbg !4911
	%7 = load double*, double** %..inline.addr, align 8, !tbaa !3904, !dbg !4911
	%8 = bitcast double*  %7 to i8*, !dbg !4911
	call void  @_ZdlPv (i8*  %8) nounwind, !dbg !4911
	br label %L..inline.67056
L..inline.67056:
	ret void, !dbg !4912
}
define linkonce_odr void @_ZNSt12_Vector_baseIdSaIdEED2Ev(%struct._ZSt12_Vector_baseIdSaIdEE* %_T23532632_52442.arg) #0 inlinehint !dbg !4914 {
L.entry:
	%_T23532632_52442.addr = alloca %struct._ZSt12_Vector_baseIdSaIdEE*, align 8
	%..inline.addr = alloca %struct._ZSt12_Vector_baseIdSaIdEE*, align 8
	%..inline.addr.1 = alloca double*, align 8

	store %struct._ZSt12_Vector_baseIdSaIdEE* %_T23532632_52442.arg, %struct._ZSt12_Vector_baseIdSaIdEE** %_T23532632_52442.addr, align 8, !tbaa !3904
	%0 = load %struct._ZSt12_Vector_baseIdSaIdEE*, %struct._ZSt12_Vector_baseIdSaIdEE** %_T23532632_52442.addr, align 8, !tbaa !3904, !dbg !4946
	%1 = bitcast %struct._ZSt12_Vector_baseIdSaIdEE*  %0 to i8*, !dbg !4946
	%2 = bitcast %struct._ZSt12_Vector_baseIdSaIdEE** %..inline.addr to i8**, !dbg !4946
	store i8*  %1, i8**  %2, align 8, !tbaa !3904, !dbg !4946
	%3 = load %struct._ZSt12_Vector_baseIdSaIdEE*, %struct._ZSt12_Vector_baseIdSaIdEE** %..inline.addr, align 8, !tbaa !3904, !dbg !4946
	%4 = bitcast %struct._ZSt12_Vector_baseIdSaIdEE*  %3 to i8**, !dbg !4946
	%5 = load i8*, i8**  %4, align 8, !tbaa !3904, !dbg !4946
	%6 = icmp eq i8*  %5,  null, !dbg !4946
	br i1  %6, label %L..inline.67117, label %L.B1060, !dbg !4946
L.B1060:
	%7 = bitcast %struct._ZSt12_Vector_baseIdSaIdEE*  %3 to i8**, !dbg !4946
	%8 = load i8*, i8**  %7, align 8, !tbaa !3904, !dbg !4946
	%9 = bitcast double** %..inline.addr.1 to i8**, !dbg !4946
	store i8*  %8, i8**  %9, align 8, !tbaa !3904, !dbg !4946
	%10 = load double*, double** %..inline.addr.1, align 8, !tbaa !3904, !dbg !4946
	%11 = bitcast double*  %10 to i8*, !dbg !4946
	call void  @_ZdlPv (i8*  %11) nounwind, !dbg !4946
	br label %L..inline.67117
L..inline.67117:
	ret void, !dbg !4947
}
define linkonce_odr void @_ZNSt12_Vector_baseIdSaIdEE13_M_deallocateEPdm(%struct._ZSt12_Vector_baseIdSaIdEE* %_T23532632_52445.arg, double* %__p.arg, i64 %__n.arg) #0 inlinehint !dbg !4951 {
L.entry:
	%_T23532632_52445.addr = alloca %struct._ZSt12_Vector_baseIdSaIdEE*, align 8
	%__p.addr = alloca double*, align 8
	%__n.addr = alloca i64, align 8
	%..inline.addr = alloca double*, align 8

	call void @llvm.dbg.declare (metadata %struct._ZSt12_Vector_baseIdSaIdEE** %_T23532632_52445.addr, metadata !4963, metadata !3896), !dbg !4952
	store %struct._ZSt12_Vector_baseIdSaIdEE* %_T23532632_52445.arg, %struct._ZSt12_Vector_baseIdSaIdEE** %_T23532632_52445.addr, align 8, !tbaa !3904
	call void @llvm.dbg.declare (metadata %struct._ZSt12_Vector_baseIdSaIdEE** %_T23532632_52445.addr, metadata !4964, metadata !3896), !dbg !4952
	call void @llvm.dbg.declare (metadata double** %__p.addr, metadata !4965, metadata !3896), !dbg !4952
	store double* %__p.arg, double** %__p.addr, align 8, !tbaa !3904
	call void @llvm.dbg.declare (metadata double** %__p.addr, metadata !4966, metadata !3896), !dbg !4952
	call void @llvm.dbg.declare (metadata i64* %__n.addr, metadata !4967, metadata !3896), !dbg !4952
	store i64 %__n.arg, i64* %__n.addr, align 8, !tbaa !4014
	call void @llvm.dbg.declare (metadata i64* %__n.addr, metadata !4968, metadata !3896), !dbg !4952
	%0 = load double*, double** %__p.addr, align 8, !tbaa !3904, !dbg !4969
	%1 = bitcast double*  %0 to i8*, !dbg !4969
	%2 = icmp eq i8*  %1,  null, !dbg !4969
	br i1  %2, label %L.B0007, label %L.B1063, !dbg !4969
L.B1063:
	%3 = bitcast double*  %0 to i8*, !dbg !4970
	%4 = bitcast double** %..inline.addr to i8**, !dbg !4970
	store i8*  %3, i8**  %4, align 8, !tbaa !3904, !dbg !4970
	%5 = load double*, double** %..inline.addr, align 8, !tbaa !3904, !dbg !4970
	%6 = bitcast double*  %5 to i8*, !dbg !4970
	call void  @_ZdlPv (i8*  %6) nounwind, !dbg !4970
	br label %L.B0007
L.B0007:
	ret void, !dbg !4971
}
define linkonce_odr void @_ZNSt12_Vector_baseIdSaIdEE12_Vector_implD1Ev(%struct._ZNSt12_Vector_baseIdSaIdEE12_Vector_implE* %_T23532632_52446.arg) #0 inlinehint !dbg !4976 {
L.entry:
	%_T23532632_52446.addr = alloca %struct._ZNSt12_Vector_baseIdSaIdEE12_Vector_implE*, align 8

	call void @llvm.dbg.declare (metadata %struct._ZNSt12_Vector_baseIdSaIdEE12_Vector_implE** %_T23532632_52446.addr, metadata !4988, metadata !3896), !dbg !4977
	store %struct._ZNSt12_Vector_baseIdSaIdEE12_Vector_implE* %_T23532632_52446.arg, %struct._ZNSt12_Vector_baseIdSaIdEE12_Vector_implE** %_T23532632_52446.addr, align 8, !tbaa !3904
	call void @llvm.dbg.declare (metadata %struct._ZNSt12_Vector_baseIdSaIdEE12_Vector_implE** %_T23532632_52446.addr, metadata !4989, metadata !3896), !dbg !4977
	ret void, !dbg !4990
}
define linkonce_odr void @_ZNSt12_Vector_baseIdSaIdEE12_Vector_implD2Ev(%struct._ZNSt12_Vector_baseIdSaIdEE12_Vector_implE* %_T23532632_52447.arg) #0 inlinehint !dbg !4992 {
L.entry:
	%_T23532632_52447.addr = alloca %struct._ZNSt12_Vector_baseIdSaIdEE12_Vector_implE*, align 8

	store %struct._ZNSt12_Vector_baseIdSaIdEE12_Vector_implE* %_T23532632_52447.arg, %struct._ZNSt12_Vector_baseIdSaIdEE12_Vector_implE** %_T23532632_52447.addr, align 8, !tbaa !3904
	ret void, !dbg !5008
}

%struct._ZSt6vectorIdSaIdEE = type <{ %struct._ZSt12_Vector_baseIdSaIdEE}> 

define linkonce_odr void @_ZNSt6vectorIdSaIdEED1Ev(%struct._ZSt6vectorIdSaIdEE* %_T23532632_52448.arg) #0 inlinehint !dbg !5013 {
L.entry:
	%_T23532632_52448.addr = alloca %struct._ZSt6vectorIdSaIdEE*, align 8
	%..inline.addr = alloca %struct._ZSt12_Vector_baseIdSaIdEE*, align 8
	%..inline.addr.1 = alloca double*, align 8

	call void @llvm.dbg.declare (metadata %struct._ZSt6vectorIdSaIdEE** %_T23532632_52448.addr, metadata !5065, metadata !3896), !dbg !5014
	store %struct._ZSt6vectorIdSaIdEE* %_T23532632_52448.arg, %struct._ZSt6vectorIdSaIdEE** %_T23532632_52448.addr, align 8, !tbaa !3904
	call void @llvm.dbg.declare (metadata %struct._ZSt6vectorIdSaIdEE** %_T23532632_52448.addr, metadata !5066, metadata !3896), !dbg !5014
	%0 = load %struct._ZSt6vectorIdSaIdEE*, %struct._ZSt6vectorIdSaIdEE** %_T23532632_52448.addr, align 8, !tbaa !3904, !dbg !5067
	%1 = bitcast %struct._ZSt6vectorIdSaIdEE*  %0 to i8*, !dbg !5067
	%2 = bitcast %struct._ZSt12_Vector_baseIdSaIdEE** %..inline.addr to i8**, !dbg !5067
	store i8*  %1, i8**  %2, align 8, !tbaa !3904, !dbg !5067
	%3 = load %struct._ZSt12_Vector_baseIdSaIdEE*, %struct._ZSt12_Vector_baseIdSaIdEE** %..inline.addr, align 8, !tbaa !3904, !dbg !5068
	%4 = bitcast %struct._ZSt12_Vector_baseIdSaIdEE*  %3 to i8**, !dbg !5068
	%5 = load i8*, i8**  %4, align 8, !tbaa !3904, !dbg !5068
	%6 = icmp eq i8*  %5,  null, !dbg !5068
	br i1  %6, label %L..inline.67268, label %L.B1074, !dbg !5068
L.B1074:
	%7 = bitcast %struct._ZSt12_Vector_baseIdSaIdEE*  %3 to i8**, !dbg !5068
	%8 = load i8*, i8**  %7, align 8, !tbaa !3904, !dbg !5068
	%9 = bitcast double** %..inline.addr.1 to i8**, !dbg !5068
	store i8*  %8, i8**  %9, align 8, !tbaa !3904, !dbg !5068
	%10 = load double*, double** %..inline.addr.1, align 8, !tbaa !3904, !dbg !5068
	%11 = bitcast double*  %10 to i8*, !dbg !5068
	call void  @_ZdlPv (i8*  %11) nounwind, !dbg !5068
	br label %L..inline.67268
L..inline.67268:
	ret void, !dbg !5067
}
define linkonce_odr void @_ZNSt6vectorIdSaIdEED2Ev(%struct._ZSt6vectorIdSaIdEE* %_T23532632_52449.arg) #0 inlinehint !dbg !5070 {
L.entry:
	%_T23532632_52449.addr = alloca %struct._ZSt6vectorIdSaIdEE*, align 8
	%..inline.addr = alloca %struct._ZSt12_Vector_baseIdSaIdEE*, align 8
	%..inline.addr.1 = alloca double*, align 8

	store %struct._ZSt6vectorIdSaIdEE* %_T23532632_52449.arg, %struct._ZSt6vectorIdSaIdEE** %_T23532632_52449.addr, align 8, !tbaa !3904
	%0 = load %struct._ZSt6vectorIdSaIdEE*, %struct._ZSt6vectorIdSaIdEE** %_T23532632_52449.addr, align 8, !tbaa !3904, !dbg !5126
	%1 = bitcast %struct._ZSt6vectorIdSaIdEE*  %0 to i8*, !dbg !5126
	%2 = bitcast %struct._ZSt12_Vector_baseIdSaIdEE** %..inline.addr to i8**, !dbg !5126
	store i8*  %1, i8**  %2, align 8, !tbaa !3904, !dbg !5126
	%3 = load %struct._ZSt12_Vector_baseIdSaIdEE*, %struct._ZSt12_Vector_baseIdSaIdEE** %..inline.addr, align 8, !tbaa !3904, !dbg !5126
	%4 = bitcast %struct._ZSt12_Vector_baseIdSaIdEE*  %3 to i8**, !dbg !5126
	%5 = load i8*, i8**  %4, align 8, !tbaa !3904, !dbg !5126
	%6 = icmp eq i8*  %5,  null, !dbg !5126
	br i1  %6, label %L..inline.67372, label %L.B1077, !dbg !5126
L.B1077:
	%7 = bitcast %struct._ZSt12_Vector_baseIdSaIdEE*  %3 to i8**, !dbg !5126
	%8 = load i8*, i8**  %7, align 8, !tbaa !3904, !dbg !5126
	%9 = bitcast double** %..inline.addr.1 to i8**, !dbg !5126
	store i8*  %8, i8**  %9, align 8, !tbaa !3904, !dbg !5126
	%10 = load double*, double** %..inline.addr.1, align 8, !tbaa !3904, !dbg !5126
	%11 = bitcast double*  %10 to i8*, !dbg !5126
	call void  @_ZdlPv (i8*  %11) nounwind, !dbg !5126
	br label %L..inline.67372
L..inline.67372:
	ret void, !dbg !5126
}

%struct._ZSaIN5vmesh14MeshParametersEE = type <{ [1 x i8]}> 

define linkonce_odr void @_ZNSaIN5vmesh14MeshParametersEED1Ev(%struct._ZSaIN5vmesh14MeshParametersEE* %_T23532632_52450.arg) #0 inlinehint !dbg !5131 {
L.entry:
	%_T23532632_52450.addr = alloca %struct._ZSaIN5vmesh14MeshParametersEE*, align 8

	call void @llvm.dbg.declare (metadata %struct._ZSaIN5vmesh14MeshParametersEE** %_T23532632_52450.addr, metadata !5135, metadata !3896), !dbg !5132
	store %struct._ZSaIN5vmesh14MeshParametersEE* %_T23532632_52450.arg, %struct._ZSaIN5vmesh14MeshParametersEE** %_T23532632_52450.addr, align 8, !tbaa !3904
	call void @llvm.dbg.declare (metadata %struct._ZSaIN5vmesh14MeshParametersEE** %_T23532632_52450.addr, metadata !5136, metadata !3896), !dbg !5132
	ret void, !dbg !5137
}
define linkonce_odr void @_ZNSaIN5vmesh14MeshParametersEED2Ev(%struct._ZSaIN5vmesh14MeshParametersEE* %_T23532632_52451.arg) #0 inlinehint !dbg !5139 {
L.entry:
	%_T23532632_52451.addr = alloca %struct._ZSaIN5vmesh14MeshParametersEE*, align 8

	store %struct._ZSaIN5vmesh14MeshParametersEE* %_T23532632_52451.arg, %struct._ZSaIN5vmesh14MeshParametersEE** %_T23532632_52451.addr, align 8, !tbaa !3904
	ret void, !dbg !5147
}

%struct._ZNSt7__cxx1112basic_stringIcSt11char_traitsIcESaIcEEE = type <{ %struct._ZNSt7__cxx1112basic_stringIcSt11char_traitsIcESaIcEE12_Alloc_hiderE, i64, %union.__C6}> 
%struct._ZN5vmesh14MeshParametersE = type <{ %struct._ZNSt7__cxx1112basic_stringIcSt11char_traitsIcESaIcEEE, i32, [4 x i8], [6 x double], [3 x i32], [3 x i32], i8, i8, [6 x i8], [3 x double], [3 x double], [3 x double], [3 x double], [3 x double], %struct._ZSt6vectorIjSaIjEE, %struct._ZSt6vectorIdSaIdEE, %struct._ZSt6vectorIdSaIdEE, %struct._ZSt6vectorIjSaIjEE}> 
%union.__C6 = type <{ [16 x i8]}> 
%struct._ZNSt7__cxx1112basic_stringIcSt11char_traitsIcESaIcEE12_Alloc_hiderE = type <{ i8*}> 

define linkonce_odr void @_ZNSt16allocator_traitsISaIN5vmesh14MeshParametersEEE10deallocateERS2_PS1_m(%struct._ZSaIN5vmesh14MeshParametersEE* %__a.arg, %struct._ZN5vmesh14MeshParametersE* %__p.arg, i64 %__n.arg) #0 inlinehint !dbg !5155 {
L.entry:
	%__a.addr = alloca %struct._ZSaIN5vmesh14MeshParametersEE*, align 8
	%__p.addr = alloca %struct._ZN5vmesh14MeshParametersE*, align 8
	%__n.addr = alloca i64, align 8
	%..inline.addr = alloca %struct._ZN5vmesh14MeshParametersE*, align 8

	call void @llvm.dbg.declare (metadata %struct._ZSaIN5vmesh14MeshParametersEE** %__a.addr, metadata !5163, metadata !3896), !dbg !5156
	store %struct._ZSaIN5vmesh14MeshParametersEE* %__a.arg, %struct._ZSaIN5vmesh14MeshParametersEE** %__a.addr, align 8, !tbaa !3904
	call void @llvm.dbg.declare (metadata %struct._ZSaIN5vmesh14MeshParametersEE** %__a.addr, metadata !5164, metadata !3896), !dbg !5156
	call void @llvm.dbg.declare (metadata %struct._ZN5vmesh14MeshParametersE** %__p.addr, metadata !5165, metadata !3896), !dbg !5156
	store %struct._ZN5vmesh14MeshParametersE* %__p.arg, %struct._ZN5vmesh14MeshParametersE** %__p.addr, align 8, !tbaa !3904
	call void @llvm.dbg.declare (metadata %struct._ZN5vmesh14MeshParametersE** %__p.addr, metadata !5166, metadata !3896), !dbg !5156
	call void @llvm.dbg.declare (metadata i64* %__n.addr, metadata !5167, metadata !3896), !dbg !5156
	store i64 %__n.arg, i64* %__n.addr, align 8, !tbaa !4014
	call void @llvm.dbg.declare (metadata i64* %__n.addr, metadata !5168, metadata !3896), !dbg !5156
	%0 = load %struct._ZN5vmesh14MeshParametersE*, %struct._ZN5vmesh14MeshParametersE** %__p.addr, align 8, !tbaa !3904, !dbg !5169
	%1 = bitcast %struct._ZN5vmesh14MeshParametersE*  %0 to i8*, !dbg !5169
	%2 = bitcast %struct._ZN5vmesh14MeshParametersE** %..inline.addr to i8**, !dbg !5169
	store i8*  %1, i8**  %2, align 8, !tbaa !3904, !dbg !5169
	%3 = load %struct._ZN5vmesh14MeshParametersE*, %struct._ZN5vmesh14MeshParametersE** %..inline.addr, align 8, !tbaa !3904, !dbg !5170
	%4 = bitcast %struct._ZN5vmesh14MeshParametersE*  %3 to i8*, !dbg !5170
	call void  @_ZdlPv (i8*  %4) nounwind, !dbg !5170
	ret void, !dbg !5169
}

%struct._ZNSt12_Vector_baseIN5vmesh14MeshParametersESaIS1_EE12_Vector_implE = type <{ %struct._ZNSt12_Vector_baseIN5vmesh14MeshParametersESaIS1_EE17_Vector_impl_dataE}> 
%struct._ZNSt12_Vector_baseIN5vmesh14MeshParametersESaIS1_EE17_Vector_impl_dataE = type <{ %struct._ZN5vmesh14MeshParametersE*, %struct._ZN5vmesh14MeshParametersE*, %struct._ZN5vmesh14MeshParametersE*}> 
%struct._ZSt12_Vector_baseIN5vmesh14MeshParametersESaIS1_EE = type <{ %struct._ZNSt12_Vector_baseIN5vmesh14MeshParametersESaIS1_EE12_Vector_implE}> 

define linkonce_odr %struct._ZSaIN5vmesh14MeshParametersEE* @_ZNSt12_Vector_baseIN5vmesh14MeshParametersESaIS1_EE19_M_get_Tp_allocatorEv(%struct._ZSt12_Vector_baseIN5vmesh14MeshParametersESaIS1_EE* %_T23532632_52457.arg) #0 inlinehint !dbg !5176 {
L.entry:
	%_T23532632_52457.addr = alloca %struct._ZSt12_Vector_baseIN5vmesh14MeshParametersESaIS1_EE*, align 8

	call void @llvm.dbg.declare (metadata %struct._ZSt12_Vector_baseIN5vmesh14MeshParametersESaIS1_EE** %_T23532632_52457.addr, metadata !5180, metadata !3896), !dbg !5177
	store %struct._ZSt12_Vector_baseIN5vmesh14MeshParametersESaIS1_EE* %_T23532632_52457.arg, %struct._ZSt12_Vector_baseIN5vmesh14MeshParametersESaIS1_EE** %_T23532632_52457.addr, align 8, !tbaa !3904
	call void @llvm.dbg.declare (metadata %struct._ZSt12_Vector_baseIN5vmesh14MeshParametersESaIS1_EE** %_T23532632_52457.addr, metadata !5181, metadata !3896), !dbg !5177
	%0 = load %struct._ZSt12_Vector_baseIN5vmesh14MeshParametersESaIS1_EE*, %struct._ZSt12_Vector_baseIN5vmesh14MeshParametersESaIS1_EE** %_T23532632_52457.addr, align 8, !tbaa !3904, !dbg !5182
	%1 = bitcast %struct._ZSt12_Vector_baseIN5vmesh14MeshParametersESaIS1_EE*  %0 to %struct._ZSaIN5vmesh14MeshParametersEE*, !dbg !5182
	ret %struct._ZSaIN5vmesh14MeshParametersEE*  %1, !dbg !5182
}
define linkonce_odr void @_ZNSt12_Vector_baseIN5vmesh14MeshParametersESaIS1_EEC1Ev(%struct._ZSt12_Vector_baseIN5vmesh14MeshParametersESaIS1_EE* %_T23532632_52458.arg) #0 inlinehint !dbg !5186 {
L.entry:
	%_T23532632_52458.addr = alloca %struct._ZSt12_Vector_baseIN5vmesh14MeshParametersESaIS1_EE*, align 8
	%..inline.addr = alloca %struct._ZNSt12_Vector_baseIN5vmesh14MeshParametersESaIS1_EE17_Vector_impl_dataE*, align 8

	call void @llvm.dbg.declare (metadata %struct._ZSt12_Vector_baseIN5vmesh14MeshParametersESaIS1_EE** %_T23532632_52458.addr, metadata !5202, metadata !3896), !dbg !5187
	store %struct._ZSt12_Vector_baseIN5vmesh14MeshParametersESaIS1_EE* %_T23532632_52458.arg, %struct._ZSt12_Vector_baseIN5vmesh14MeshParametersESaIS1_EE** %_T23532632_52458.addr, align 8, !tbaa !3904
	call void @llvm.dbg.declare (metadata %struct._ZSt12_Vector_baseIN5vmesh14MeshParametersESaIS1_EE** %_T23532632_52458.addr, metadata !5203, metadata !3896), !dbg !5187
	%0 = load %struct._ZSt12_Vector_baseIN5vmesh14MeshParametersESaIS1_EE*, %struct._ZSt12_Vector_baseIN5vmesh14MeshParametersESaIS1_EE** %_T23532632_52458.addr, align 8, !tbaa !3904, !dbg !5204
	%1 = bitcast %struct._ZSt12_Vector_baseIN5vmesh14MeshParametersESaIS1_EE*  %0 to i8*, !dbg !5204
	%2 = bitcast %struct._ZNSt12_Vector_baseIN5vmesh14MeshParametersESaIS1_EE17_Vector_impl_dataE** %..inline.addr to i8**, !dbg !5204
	store i8*  %1, i8**  %2, align 8, !tbaa !3904, !dbg !5204
	%3 = load %struct._ZNSt12_Vector_baseIN5vmesh14MeshParametersESaIS1_EE17_Vector_impl_dataE*, %struct._ZNSt12_Vector_baseIN5vmesh14MeshParametersESaIS1_EE17_Vector_impl_dataE** %..inline.addr, align 8, !tbaa !3904, !dbg !5204
	%4 = bitcast %struct._ZNSt12_Vector_baseIN5vmesh14MeshParametersESaIS1_EE17_Vector_impl_dataE*  %3 to i8**, !dbg !5204
	store i8* null, i8**  %4, align 8, !tbaa !3904, !dbg !5204
	%5 = bitcast %struct._ZNSt12_Vector_baseIN5vmesh14MeshParametersESaIS1_EE17_Vector_impl_dataE*  %3 to i8*, !dbg !5204
	%6 = getelementptr i8, i8*  %5, i64 8, !dbg !5204
	%7 = bitcast i8*  %6 to i8**, !dbg !5204
	store i8* null, i8**  %7, align 8, !tbaa !3904, !dbg !5204
	%8 = getelementptr i8, i8*  %5, i64 16, !dbg !5204
	%9 = bitcast i8*  %8 to i8**, !dbg !5204
	store i8* null, i8**  %9, align 8, !tbaa !3904, !dbg !5204
	ret void, !dbg !5204
}
define linkonce_odr void @_ZNSt12_Vector_baseIN5vmesh14MeshParametersESaIS1_EEC2Ev(%struct._ZSt12_Vector_baseIN5vmesh14MeshParametersESaIS1_EE* %_T23532632_52459.arg) #0 inlinehint !dbg !5206 {
L.entry:
	%_T23532632_52459.addr = alloca %struct._ZSt12_Vector_baseIN5vmesh14MeshParametersESaIS1_EE*, align 8
	%..inline.addr = alloca %struct._ZNSt12_Vector_baseIN5vmesh14MeshParametersESaIS1_EE17_Vector_impl_dataE*, align 8

	store %struct._ZSt12_Vector_baseIN5vmesh14MeshParametersESaIS1_EE* %_T23532632_52459.arg, %struct._ZSt12_Vector_baseIN5vmesh14MeshParametersESaIS1_EE** %_T23532632_52459.addr, align 8, !tbaa !3904
	%0 = load %struct._ZSt12_Vector_baseIN5vmesh14MeshParametersESaIS1_EE*, %struct._ZSt12_Vector_baseIN5vmesh14MeshParametersESaIS1_EE** %_T23532632_52459.addr, align 8, !tbaa !3904, !dbg !5226
	%1 = bitcast %struct._ZSt12_Vector_baseIN5vmesh14MeshParametersESaIS1_EE*  %0 to i8*, !dbg !5226
	%2 = bitcast %struct._ZNSt12_Vector_baseIN5vmesh14MeshParametersESaIS1_EE17_Vector_impl_dataE** %..inline.addr to i8**, !dbg !5226
	store i8*  %1, i8**  %2, align 8, !tbaa !3904, !dbg !5226
	%3 = load %struct._ZNSt12_Vector_baseIN5vmesh14MeshParametersESaIS1_EE17_Vector_impl_dataE*, %struct._ZNSt12_Vector_baseIN5vmesh14MeshParametersESaIS1_EE17_Vector_impl_dataE** %..inline.addr, align 8, !tbaa !3904, !dbg !5226
	%4 = bitcast %struct._ZNSt12_Vector_baseIN5vmesh14MeshParametersESaIS1_EE17_Vector_impl_dataE*  %3 to i8**, !dbg !5226
	store i8* null, i8**  %4, align 8, !tbaa !3904, !dbg !5226
	%5 = bitcast %struct._ZNSt12_Vector_baseIN5vmesh14MeshParametersESaIS1_EE17_Vector_impl_dataE*  %3 to i8*, !dbg !5226
	%6 = getelementptr i8, i8*  %5, i64 8, !dbg !5226
	%7 = bitcast i8*  %6 to i8**, !dbg !5226
	store i8* null, i8**  %7, align 8, !tbaa !3904, !dbg !5226
	%8 = getelementptr i8, i8*  %5, i64 16, !dbg !5226
	%9 = bitcast i8*  %8 to i8**, !dbg !5226
	store i8* null, i8**  %9, align 8, !tbaa !3904, !dbg !5226
	ret void, !dbg !5226
}
define linkonce_odr void @_ZNSt12_Vector_baseIN5vmesh14MeshParametersESaIS1_EED1Ev(%struct._ZSt12_Vector_baseIN5vmesh14MeshParametersESaIS1_EE* %_T23532632_52460.arg) #0 inlinehint !dbg !5228 {
L.entry:
	%_T23532632_52460.addr = alloca %struct._ZSt12_Vector_baseIN5vmesh14MeshParametersESaIS1_EE*, align 8
	%..inline.addr = alloca %struct._ZN5vmesh14MeshParametersE*, align 8

	call void @llvm.dbg.declare (metadata %struct._ZSt12_Vector_baseIN5vmesh14MeshParametersESaIS1_EE** %_T23532632_52460.addr, metadata !5256, metadata !3896), !dbg !5229
	store %struct._ZSt12_Vector_baseIN5vmesh14MeshParametersESaIS1_EE* %_T23532632_52460.arg, %struct._ZSt12_Vector_baseIN5vmesh14MeshParametersESaIS1_EE** %_T23532632_52460.addr, align 8, !tbaa !3904
	call void @llvm.dbg.declare (metadata %struct._ZSt12_Vector_baseIN5vmesh14MeshParametersESaIS1_EE** %_T23532632_52460.addr, metadata !5257, metadata !3896), !dbg !5229
	%0 = load %struct._ZSt12_Vector_baseIN5vmesh14MeshParametersESaIS1_EE*, %struct._ZSt12_Vector_baseIN5vmesh14MeshParametersESaIS1_EE** %_T23532632_52460.addr, align 8, !tbaa !3904, !dbg !5258
	%1 = bitcast %struct._ZSt12_Vector_baseIN5vmesh14MeshParametersESaIS1_EE*  %0 to i8**, !dbg !5258
	%2 = load i8*, i8**  %1, align 8, !tbaa !3904, !dbg !5258
	%3 = icmp eq i8*  %2,  null, !dbg !5258
	br i1  %3, label %L..inline.67516, label %L.B1090, !dbg !5258
L.B1090:
	%4 = bitcast %struct._ZSt12_Vector_baseIN5vmesh14MeshParametersESaIS1_EE*  %0 to i8**, !dbg !5259
	%5 = load i8*, i8**  %4, align 8, !tbaa !3904, !dbg !5259
	%6 = bitcast %struct._ZN5vmesh14MeshParametersE** %..inline.addr to i8**, !dbg !5259
	store i8*  %5, i8**  %6, align 8, !tbaa !3904, !dbg !5259
	%7 = load %struct._ZN5vmesh14MeshParametersE*, %struct._ZN5vmesh14MeshParametersE** %..inline.addr, align 8, !tbaa !3904, !dbg !5259
	%8 = bitcast %struct._ZN5vmesh14MeshParametersE*  %7 to i8*, !dbg !5259
	call void  @_ZdlPv (i8*  %8) nounwind, !dbg !5259
	br label %L..inline.67516
L..inline.67516:
	ret void, !dbg !5260
}
define linkonce_odr void @_ZNSt12_Vector_baseIN5vmesh14MeshParametersESaIS1_EED2Ev(%struct._ZSt12_Vector_baseIN5vmesh14MeshParametersESaIS1_EE* %_T23532632_52461.arg) #0 inlinehint !dbg !5262 {
L.entry:
	%_T23532632_52461.addr = alloca %struct._ZSt12_Vector_baseIN5vmesh14MeshParametersESaIS1_EE*, align 8
	%..inline.addr = alloca %struct._ZSt12_Vector_baseIN5vmesh14MeshParametersESaIS1_EE*, align 8
	%..inline.addr.1 = alloca %struct._ZN5vmesh14MeshParametersE*, align 8

	store %struct._ZSt12_Vector_baseIN5vmesh14MeshParametersESaIS1_EE* %_T23532632_52461.arg, %struct._ZSt12_Vector_baseIN5vmesh14MeshParametersESaIS1_EE** %_T23532632_52461.addr, align 8, !tbaa !3904
	%0 = load %struct._ZSt12_Vector_baseIN5vmesh14MeshParametersESaIS1_EE*, %struct._ZSt12_Vector_baseIN5vmesh14MeshParametersESaIS1_EE** %_T23532632_52461.addr, align 8, !tbaa !3904, !dbg !5294
	%1 = bitcast %struct._ZSt12_Vector_baseIN5vmesh14MeshParametersESaIS1_EE*  %0 to i8*, !dbg !5294
	%2 = bitcast %struct._ZSt12_Vector_baseIN5vmesh14MeshParametersESaIS1_EE** %..inline.addr to i8**, !dbg !5294
	store i8*  %1, i8**  %2, align 8, !tbaa !3904, !dbg !5294
	%3 = load %struct._ZSt12_Vector_baseIN5vmesh14MeshParametersESaIS1_EE*, %struct._ZSt12_Vector_baseIN5vmesh14MeshParametersESaIS1_EE** %..inline.addr, align 8, !tbaa !3904, !dbg !5294
	%4 = bitcast %struct._ZSt12_Vector_baseIN5vmesh14MeshParametersESaIS1_EE*  %3 to i8**, !dbg !5294
	%5 = load i8*, i8**  %4, align 8, !tbaa !3904, !dbg !5294
	%6 = icmp eq i8*  %5,  null, !dbg !5294
	br i1  %6, label %L..inline.67579, label %L.B1093, !dbg !5294
L.B1093:
	%7 = bitcast %struct._ZSt12_Vector_baseIN5vmesh14MeshParametersESaIS1_EE*  %3 to i8**, !dbg !5294
	%8 = load i8*, i8**  %7, align 8, !tbaa !3904, !dbg !5294
	%9 = bitcast %struct._ZN5vmesh14MeshParametersE** %..inline.addr.1 to i8**, !dbg !5294
	store i8*  %8, i8**  %9, align 8, !tbaa !3904, !dbg !5294
	%10 = load %struct._ZN5vmesh14MeshParametersE*, %struct._ZN5vmesh14MeshParametersE** %..inline.addr.1, align 8, !tbaa !3904, !dbg !5294
	%11 = bitcast %struct._ZN5vmesh14MeshParametersE*  %10 to i8*, !dbg !5294
	call void  @_ZdlPv (i8*  %11) nounwind, !dbg !5294
	br label %L..inline.67579
L..inline.67579:
	ret void, !dbg !5295
}
define linkonce_odr void @_ZNSt12_Vector_baseIN5vmesh14MeshParametersESaIS1_EE13_M_deallocateEPS1_m(%struct._ZSt12_Vector_baseIN5vmesh14MeshParametersESaIS1_EE* %_T23532632_52464.arg, %struct._ZN5vmesh14MeshParametersE* %__p.arg, i64 %__n.arg) #0 inlinehint !dbg !5299 {
L.entry:
	%_T23532632_52464.addr = alloca %struct._ZSt12_Vector_baseIN5vmesh14MeshParametersESaIS1_EE*, align 8
	%__p.addr = alloca %struct._ZN5vmesh14MeshParametersE*, align 8
	%__n.addr = alloca i64, align 8
	%..inline.addr = alloca %struct._ZN5vmesh14MeshParametersE*, align 8

	call void @llvm.dbg.declare (metadata %struct._ZSt12_Vector_baseIN5vmesh14MeshParametersESaIS1_EE** %_T23532632_52464.addr, metadata !5311, metadata !3896), !dbg !5300
	store %struct._ZSt12_Vector_baseIN5vmesh14MeshParametersESaIS1_EE* %_T23532632_52464.arg, %struct._ZSt12_Vector_baseIN5vmesh14MeshParametersESaIS1_EE** %_T23532632_52464.addr, align 8, !tbaa !3904
	call void @llvm.dbg.declare (metadata %struct._ZSt12_Vector_baseIN5vmesh14MeshParametersESaIS1_EE** %_T23532632_52464.addr, metadata !5312, metadata !3896), !dbg !5300
	call void @llvm.dbg.declare (metadata %struct._ZN5vmesh14MeshParametersE** %__p.addr, metadata !5313, metadata !3896), !dbg !5300
	store %struct._ZN5vmesh14MeshParametersE* %__p.arg, %struct._ZN5vmesh14MeshParametersE** %__p.addr, align 8, !tbaa !3904
	call void @llvm.dbg.declare (metadata %struct._ZN5vmesh14MeshParametersE** %__p.addr, metadata !5314, metadata !3896), !dbg !5300
	call void @llvm.dbg.declare (metadata i64* %__n.addr, metadata !5315, metadata !3896), !dbg !5300
	store i64 %__n.arg, i64* %__n.addr, align 8, !tbaa !4014
	call void @llvm.dbg.declare (metadata i64* %__n.addr, metadata !5316, metadata !3896), !dbg !5300
	%0 = load %struct._ZN5vmesh14MeshParametersE*, %struct._ZN5vmesh14MeshParametersE** %__p.addr, align 8, !tbaa !3904, !dbg !5317
	%1 = bitcast %struct._ZN5vmesh14MeshParametersE*  %0 to i8*, !dbg !5317
	%2 = icmp eq i8*  %1,  null, !dbg !5317
	br i1  %2, label %L.B0008, label %L.B1096, !dbg !5317
L.B1096:
	%3 = bitcast %struct._ZN5vmesh14MeshParametersE*  %0 to i8*, !dbg !5318
	%4 = bitcast %struct._ZN5vmesh14MeshParametersE** %..inline.addr to i8**, !dbg !5318
	store i8*  %3, i8**  %4, align 8, !tbaa !3904, !dbg !5318
	%5 = load %struct._ZN5vmesh14MeshParametersE*, %struct._ZN5vmesh14MeshParametersE** %..inline.addr, align 8, !tbaa !3904, !dbg !5318
	%6 = bitcast %struct._ZN5vmesh14MeshParametersE*  %5 to i8*, !dbg !5318
	call void  @_ZdlPv (i8*  %6) nounwind, !dbg !5318
	br label %L.B0008
L.B0008:
	ret void, !dbg !5319
}
define linkonce_odr void @_ZNSt12_Vector_baseIN5vmesh14MeshParametersESaIS1_EE17_Vector_impl_dataC1Ev(%struct._ZNSt12_Vector_baseIN5vmesh14MeshParametersESaIS1_EE17_Vector_impl_dataE* %_T23532632_52465.arg) #0 inlinehint !dbg !5324 {
L.entry:
	%_T23532632_52465.addr = alloca %struct._ZNSt12_Vector_baseIN5vmesh14MeshParametersESaIS1_EE17_Vector_impl_dataE*, align 8

	call void @llvm.dbg.declare (metadata %struct._ZNSt12_Vector_baseIN5vmesh14MeshParametersESaIS1_EE17_Vector_impl_dataE** %_T23532632_52465.addr, metadata !5328, metadata !3896), !dbg !5325
	store %struct._ZNSt12_Vector_baseIN5vmesh14MeshParametersESaIS1_EE17_Vector_impl_dataE* %_T23532632_52465.arg, %struct._ZNSt12_Vector_baseIN5vmesh14MeshParametersESaIS1_EE17_Vector_impl_dataE** %_T23532632_52465.addr, align 8, !tbaa !3904
	call void @llvm.dbg.declare (metadata %struct._ZNSt12_Vector_baseIN5vmesh14MeshParametersESaIS1_EE17_Vector_impl_dataE** %_T23532632_52465.addr, metadata !5329, metadata !3896), !dbg !5325
	%0 = load %struct._ZNSt12_Vector_baseIN5vmesh14MeshParametersESaIS1_EE17_Vector_impl_dataE*, %struct._ZNSt12_Vector_baseIN5vmesh14MeshParametersESaIS1_EE17_Vector_impl_dataE** %_T23532632_52465.addr, align 8, !tbaa !3904, !dbg !5330
	%1 = bitcast %struct._ZNSt12_Vector_baseIN5vmesh14MeshParametersESaIS1_EE17_Vector_impl_dataE*  %0 to i8**, !dbg !5330
	store i8* null, i8**  %1, align 8, !tbaa !3904, !dbg !5330
	%2 = bitcast %struct._ZNSt12_Vector_baseIN5vmesh14MeshParametersESaIS1_EE17_Vector_impl_dataE*  %0 to i8*, !dbg !5330
	%3 = getelementptr i8, i8*  %2, i64 8, !dbg !5330
	%4 = bitcast i8*  %3 to i8**, !dbg !5330
	store i8* null, i8**  %4, align 8, !tbaa !3904, !dbg !5330
	%5 = getelementptr i8, i8*  %2, i64 16, !dbg !5330
	%6 = bitcast i8*  %5 to i8**, !dbg !5330
	store i8* null, i8**  %6, align 8, !tbaa !3904, !dbg !5330
	ret void, !dbg !5330
}
define linkonce_odr void @_ZNSt12_Vector_baseIN5vmesh14MeshParametersESaIS1_EE17_Vector_impl_dataC2Ev(%struct._ZNSt12_Vector_baseIN5vmesh14MeshParametersESaIS1_EE17_Vector_impl_dataE* %_T23532632_52466.arg) #0 inlinehint !dbg !5332 {
L.entry:
	%_T23532632_52466.addr = alloca %struct._ZNSt12_Vector_baseIN5vmesh14MeshParametersESaIS1_EE17_Vector_impl_dataE*, align 8
	%..inline.addr = alloca %struct._ZNSt12_Vector_baseIN5vmesh14MeshParametersESaIS1_EE17_Vector_impl_dataE*, align 8

	store %struct._ZNSt12_Vector_baseIN5vmesh14MeshParametersESaIS1_EE17_Vector_impl_dataE* %_T23532632_52466.arg, %struct._ZNSt12_Vector_baseIN5vmesh14MeshParametersESaIS1_EE17_Vector_impl_dataE** %_T23532632_52466.addr, align 8, !tbaa !3904
	%0 = load %struct._ZNSt12_Vector_baseIN5vmesh14MeshParametersESaIS1_EE17_Vector_impl_dataE*, %struct._ZNSt12_Vector_baseIN5vmesh14MeshParametersESaIS1_EE17_Vector_impl_dataE** %_T23532632_52466.addr, align 8, !tbaa !3904, !dbg !5340
	%1 = bitcast %struct._ZNSt12_Vector_baseIN5vmesh14MeshParametersESaIS1_EE17_Vector_impl_dataE*  %0 to i8*, !dbg !5340
	%2 = bitcast %struct._ZNSt12_Vector_baseIN5vmesh14MeshParametersESaIS1_EE17_Vector_impl_dataE** %..inline.addr to i8**, !dbg !5340
	store i8*  %1, i8**  %2, align 8, !tbaa !3904, !dbg !5340
	%3 = load %struct._ZNSt12_Vector_baseIN5vmesh14MeshParametersESaIS1_EE17_Vector_impl_dataE*, %struct._ZNSt12_Vector_baseIN5vmesh14MeshParametersESaIS1_EE17_Vector_impl_dataE** %..inline.addr, align 8, !tbaa !3904, !dbg !5340
	%4 = bitcast %struct._ZNSt12_Vector_baseIN5vmesh14MeshParametersESaIS1_EE17_Vector_impl_dataE*  %3 to i8**, !dbg !5340
	store i8* null, i8**  %4, align 8, !tbaa !3904, !dbg !5340
	%5 = bitcast %struct._ZNSt12_Vector_baseIN5vmesh14MeshParametersESaIS1_EE17_Vector_impl_dataE*  %3 to i8*, !dbg !5340
	%6 = getelementptr i8, i8*  %5, i64 8, !dbg !5340
	%7 = bitcast i8*  %6 to i8**, !dbg !5340
	store i8* null, i8**  %7, align 8, !tbaa !3904, !dbg !5340
	%8 = getelementptr i8, i8*  %5, i64 16, !dbg !5340
	%9 = bitcast i8*  %8 to i8**, !dbg !5340
	store i8* null, i8**  %9, align 8, !tbaa !3904, !dbg !5340
	ret void, !dbg !5340
}
define linkonce_odr void @_ZNSt12_Vector_baseIN5vmesh14MeshParametersESaIS1_EE12_Vector_implC1Ev(%struct._ZNSt12_Vector_baseIN5vmesh14MeshParametersESaIS1_EE12_Vector_implE* %_T23532632_52467.arg) #0 inlinehint !dbg !5345 {
L.entry:
	%_T23532632_52467.addr = alloca %struct._ZNSt12_Vector_baseIN5vmesh14MeshParametersESaIS1_EE12_Vector_implE*, align 8
	%..inline.addr = alloca %struct._ZNSt12_Vector_baseIN5vmesh14MeshParametersESaIS1_EE17_Vector_impl_dataE*, align 8

	call void @llvm.dbg.declare (metadata %struct._ZNSt12_Vector_baseIN5vmesh14MeshParametersESaIS1_EE12_Vector_implE** %_T23532632_52467.addr, metadata !5357, metadata !3896), !dbg !5346
	store %struct._ZNSt12_Vector_baseIN5vmesh14MeshParametersESaIS1_EE12_Vector_implE* %_T23532632_52467.arg, %struct._ZNSt12_Vector_baseIN5vmesh14MeshParametersESaIS1_EE12_Vector_implE** %_T23532632_52467.addr, align 8, !tbaa !3904
	call void @llvm.dbg.declare (metadata %struct._ZNSt12_Vector_baseIN5vmesh14MeshParametersESaIS1_EE12_Vector_implE** %_T23532632_52467.addr, metadata !5358, metadata !3896), !dbg !5346
	%0 = load %struct._ZNSt12_Vector_baseIN5vmesh14MeshParametersESaIS1_EE12_Vector_implE*, %struct._ZNSt12_Vector_baseIN5vmesh14MeshParametersESaIS1_EE12_Vector_implE** %_T23532632_52467.addr, align 8, !tbaa !3904, !dbg !5359
	%1 = bitcast %struct._ZNSt12_Vector_baseIN5vmesh14MeshParametersESaIS1_EE12_Vector_implE*  %0 to i8*, !dbg !5359
	%2 = bitcast %struct._ZNSt12_Vector_baseIN5vmesh14MeshParametersESaIS1_EE17_Vector_impl_dataE** %..inline.addr to i8**, !dbg !5359
	store i8*  %1, i8**  %2, align 8, !tbaa !3904, !dbg !5359
	%3 = load %struct._ZNSt12_Vector_baseIN5vmesh14MeshParametersESaIS1_EE17_Vector_impl_dataE*, %struct._ZNSt12_Vector_baseIN5vmesh14MeshParametersESaIS1_EE17_Vector_impl_dataE** %..inline.addr, align 8, !tbaa !3904, !dbg !5359
	%4 = bitcast %struct._ZNSt12_Vector_baseIN5vmesh14MeshParametersESaIS1_EE17_Vector_impl_dataE*  %3 to i8**, !dbg !5359
	store i8* null, i8**  %4, align 8, !tbaa !3904, !dbg !5359
	%5 = bitcast %struct._ZNSt12_Vector_baseIN5vmesh14MeshParametersESaIS1_EE17_Vector_impl_dataE*  %3 to i8*, !dbg !5360
	%6 = getelementptr i8, i8*  %5, i64 8, !dbg !5360
	%7 = bitcast i8*  %6 to i8**, !dbg !5360
	store i8* null, i8**  %7, align 8, !tbaa !3904, !dbg !5360
	%8 = getelementptr i8, i8*  %5, i64 16, !dbg !5360
	%9 = bitcast i8*  %8 to i8**, !dbg !5360
	store i8* null, i8**  %9, align 8, !tbaa !3904, !dbg !5360
	ret void, !dbg !5359
}
define linkonce_odr void @_ZNSt12_Vector_baseIN5vmesh14MeshParametersESaIS1_EE12_Vector_implC2Ev(%struct._ZNSt12_Vector_baseIN5vmesh14MeshParametersESaIS1_EE12_Vector_implE* %_T23532632_52468.arg) #0 inlinehint !dbg !5362 {
L.entry:
	%_T23532632_52468.addr = alloca %struct._ZNSt12_Vector_baseIN5vmesh14MeshParametersESaIS1_EE12_Vector_implE*, align 8
	%..inline.addr = alloca %struct._ZNSt12_Vector_baseIN5vmesh14MeshParametersESaIS1_EE17_Vector_impl_dataE*, align 8

	store %struct._ZNSt12_Vector_baseIN5vmesh14MeshParametersESaIS1_EE12_Vector_implE* %_T23532632_52468.arg, %struct._ZNSt12_Vector_baseIN5vmesh14MeshParametersESaIS1_EE12_Vector_implE** %_T23532632_52468.addr, align 8, !tbaa !3904
	%0 = load %struct._ZNSt12_Vector_baseIN5vmesh14MeshParametersESaIS1_EE12_Vector_implE*, %struct._ZNSt12_Vector_baseIN5vmesh14MeshParametersESaIS1_EE12_Vector_implE** %_T23532632_52468.addr, align 8, !tbaa !3904, !dbg !5378
	%1 = bitcast %struct._ZNSt12_Vector_baseIN5vmesh14MeshParametersESaIS1_EE12_Vector_implE*  %0 to i8*, !dbg !5378
	%2 = bitcast %struct._ZNSt12_Vector_baseIN5vmesh14MeshParametersESaIS1_EE17_Vector_impl_dataE** %..inline.addr to i8**, !dbg !5378
	store i8*  %1, i8**  %2, align 8, !tbaa !3904, !dbg !5378
	%3 = load %struct._ZNSt12_Vector_baseIN5vmesh14MeshParametersESaIS1_EE17_Vector_impl_dataE*, %struct._ZNSt12_Vector_baseIN5vmesh14MeshParametersESaIS1_EE17_Vector_impl_dataE** %..inline.addr, align 8, !tbaa !3904, !dbg !5378
	%4 = bitcast %struct._ZNSt12_Vector_baseIN5vmesh14MeshParametersESaIS1_EE17_Vector_impl_dataE*  %3 to i8**, !dbg !5378
	store i8* null, i8**  %4, align 8, !tbaa !3904, !dbg !5378
	%5 = bitcast %struct._ZNSt12_Vector_baseIN5vmesh14MeshParametersESaIS1_EE17_Vector_impl_dataE*  %3 to i8*, !dbg !5378
	%6 = getelementptr i8, i8*  %5, i64 8, !dbg !5378
	%7 = bitcast i8*  %6 to i8**, !dbg !5378
	store i8* null, i8**  %7, align 8, !tbaa !3904, !dbg !5378
	%8 = getelementptr i8, i8*  %5, i64 16, !dbg !5378
	%9 = bitcast i8*  %8 to i8**, !dbg !5378
	store i8* null, i8**  %9, align 8, !tbaa !3904, !dbg !5378
	ret void, !dbg !5378
}
define linkonce_odr void @_ZNSt12_Vector_baseIN5vmesh14MeshParametersESaIS1_EE12_Vector_implD1Ev(%struct._ZNSt12_Vector_baseIN5vmesh14MeshParametersESaIS1_EE12_Vector_implE* %_T23532632_52469.arg) #0 inlinehint !dbg !5380 {
L.entry:
	%_T23532632_52469.addr = alloca %struct._ZNSt12_Vector_baseIN5vmesh14MeshParametersESaIS1_EE12_Vector_implE*, align 8

	call void @llvm.dbg.declare (metadata %struct._ZNSt12_Vector_baseIN5vmesh14MeshParametersESaIS1_EE12_Vector_implE** %_T23532632_52469.addr, metadata !5392, metadata !3896), !dbg !5381
	store %struct._ZNSt12_Vector_baseIN5vmesh14MeshParametersESaIS1_EE12_Vector_implE* %_T23532632_52469.arg, %struct._ZNSt12_Vector_baseIN5vmesh14MeshParametersESaIS1_EE12_Vector_implE** %_T23532632_52469.addr, align 8, !tbaa !3904
	call void @llvm.dbg.declare (metadata %struct._ZNSt12_Vector_baseIN5vmesh14MeshParametersESaIS1_EE12_Vector_implE** %_T23532632_52469.addr, metadata !5393, metadata !3896), !dbg !5381
	ret void, !dbg !5394
}
define linkonce_odr void @_ZNSt12_Vector_baseIN5vmesh14MeshParametersESaIS1_EE12_Vector_implD2Ev(%struct._ZNSt12_Vector_baseIN5vmesh14MeshParametersESaIS1_EE12_Vector_implE* %_T23532632_52470.arg) #0 inlinehint !dbg !5396 {
L.entry:
	%_T23532632_52470.addr = alloca %struct._ZNSt12_Vector_baseIN5vmesh14MeshParametersESaIS1_EE12_Vector_implE*, align 8

	store %struct._ZNSt12_Vector_baseIN5vmesh14MeshParametersESaIS1_EE12_Vector_implE* %_T23532632_52470.arg, %struct._ZNSt12_Vector_baseIN5vmesh14MeshParametersESaIS1_EE12_Vector_implE** %_T23532632_52470.addr, align 8, !tbaa !3904
	ret void, !dbg !5412
}

%struct._ZSt6vectorIN5vmesh14MeshParametersESaIS1_EE = type <{ %struct._ZSt12_Vector_baseIN5vmesh14MeshParametersESaIS1_EE}> 

define linkonce_odr void @_ZNSt6vectorIN5vmesh14MeshParametersESaIS1_EEC1Ev(%struct._ZSt6vectorIN5vmesh14MeshParametersESaIS1_EE* %_T23532632_52471.arg) #0 inlinehint !dbg !5417 {
L.entry:
	%_T23532632_52471.addr = alloca %struct._ZSt6vectorIN5vmesh14MeshParametersESaIS1_EE*, align 8
	%..inline.addr = alloca %struct._ZNSt12_Vector_baseIN5vmesh14MeshParametersESaIS1_EE17_Vector_impl_dataE*, align 8

	call void @llvm.dbg.declare (metadata %struct._ZSt6vectorIN5vmesh14MeshParametersESaIS1_EE** %_T23532632_52471.addr, metadata !5441, metadata !3896), !dbg !5418
	store %struct._ZSt6vectorIN5vmesh14MeshParametersESaIS1_EE* %_T23532632_52471.arg, %struct._ZSt6vectorIN5vmesh14MeshParametersESaIS1_EE** %_T23532632_52471.addr, align 8, !tbaa !3904
	call void @llvm.dbg.declare (metadata %struct._ZSt6vectorIN5vmesh14MeshParametersESaIS1_EE** %_T23532632_52471.addr, metadata !5442, metadata !3896), !dbg !5418
	%0 = load %struct._ZSt6vectorIN5vmesh14MeshParametersESaIS1_EE*, %struct._ZSt6vectorIN5vmesh14MeshParametersESaIS1_EE** %_T23532632_52471.addr, align 8, !tbaa !3904, !dbg !5443
	%1 = bitcast %struct._ZSt6vectorIN5vmesh14MeshParametersESaIS1_EE*  %0 to i8*, !dbg !5443
	%2 = bitcast %struct._ZNSt12_Vector_baseIN5vmesh14MeshParametersESaIS1_EE17_Vector_impl_dataE** %..inline.addr to i8**, !dbg !5443
	store i8*  %1, i8**  %2, align 8, !tbaa !3904, !dbg !5443
	%3 = load %struct._ZNSt12_Vector_baseIN5vmesh14MeshParametersESaIS1_EE17_Vector_impl_dataE*, %struct._ZNSt12_Vector_baseIN5vmesh14MeshParametersESaIS1_EE17_Vector_impl_dataE** %..inline.addr, align 8, !tbaa !3904, !dbg !5443
	%4 = bitcast %struct._ZNSt12_Vector_baseIN5vmesh14MeshParametersESaIS1_EE17_Vector_impl_dataE*  %3 to i8**, !dbg !5443
	store i8* null, i8**  %4, align 8, !tbaa !3904, !dbg !5443
	%5 = bitcast %struct._ZNSt12_Vector_baseIN5vmesh14MeshParametersESaIS1_EE17_Vector_impl_dataE*  %3 to i8*, !dbg !5443
	%6 = getelementptr i8, i8*  %5, i64 8, !dbg !5443
	%7 = bitcast i8*  %6 to i8**, !dbg !5443
	store i8* null, i8**  %7, align 8, !tbaa !3904, !dbg !5443
	%8 = getelementptr i8, i8*  %5, i64 16, !dbg !5443
	%9 = bitcast i8*  %8 to i8**, !dbg !5443
	store i8* null, i8**  %9, align 8, !tbaa !3904, !dbg !5443
	ret void, !dbg !5443
}
define linkonce_odr void @_ZNSt6vectorIN5vmesh14MeshParametersESaIS1_EEC2Ev(%struct._ZSt6vectorIN5vmesh14MeshParametersESaIS1_EE* %_T23532632_52472.arg) #0 inlinehint !dbg !5445 {
L.entry:
	%_T23532632_52472.addr = alloca %struct._ZSt6vectorIN5vmesh14MeshParametersESaIS1_EE*, align 8
	%..inline.addr = alloca %struct._ZNSt12_Vector_baseIN5vmesh14MeshParametersESaIS1_EE17_Vector_impl_dataE*, align 8

	store %struct._ZSt6vectorIN5vmesh14MeshParametersESaIS1_EE* %_T23532632_52472.arg, %struct._ZSt6vectorIN5vmesh14MeshParametersESaIS1_EE** %_T23532632_52472.addr, align 8, !tbaa !3904
	%0 = load %struct._ZSt6vectorIN5vmesh14MeshParametersESaIS1_EE*, %struct._ZSt6vectorIN5vmesh14MeshParametersESaIS1_EE** %_T23532632_52472.addr, align 8, !tbaa !3904, !dbg !5473
	%1 = bitcast %struct._ZSt6vectorIN5vmesh14MeshParametersESaIS1_EE*  %0 to i8*, !dbg !5473
	%2 = bitcast %struct._ZNSt12_Vector_baseIN5vmesh14MeshParametersESaIS1_EE17_Vector_impl_dataE** %..inline.addr to i8**, !dbg !5473
	store i8*  %1, i8**  %2, align 8, !tbaa !3904, !dbg !5473
	%3 = load %struct._ZNSt12_Vector_baseIN5vmesh14MeshParametersESaIS1_EE17_Vector_impl_dataE*, %struct._ZNSt12_Vector_baseIN5vmesh14MeshParametersESaIS1_EE17_Vector_impl_dataE** %..inline.addr, align 8, !tbaa !3904, !dbg !5473
	%4 = bitcast %struct._ZNSt12_Vector_baseIN5vmesh14MeshParametersESaIS1_EE17_Vector_impl_dataE*  %3 to i8**, !dbg !5473
	store i8* null, i8**  %4, align 8, !tbaa !3904, !dbg !5473
	%5 = bitcast %struct._ZNSt12_Vector_baseIN5vmesh14MeshParametersESaIS1_EE17_Vector_impl_dataE*  %3 to i8*, !dbg !5473
	%6 = getelementptr i8, i8*  %5, i64 8, !dbg !5473
	%7 = bitcast i8*  %6 to i8**, !dbg !5473
	store i8* null, i8**  %7, align 8, !tbaa !3904, !dbg !5473
	%8 = getelementptr i8, i8*  %5, i64 16, !dbg !5473
	%9 = bitcast i8*  %8 to i8**, !dbg !5473
	store i8* null, i8**  %9, align 8, !tbaa !3904, !dbg !5473
	ret void, !dbg !5473
}
define linkonce_odr void @_ZNSt6vectorIN5vmesh14MeshParametersESaIS1_EED1Ev(%struct._ZSt6vectorIN5vmesh14MeshParametersESaIS1_EE* %_T23532632_52473.arg) #0 inlinehint !dbg !5475 {
L.entry:
	%_T23532632_52473.addr = alloca %struct._ZSt6vectorIN5vmesh14MeshParametersESaIS1_EE*, align 8
	%..inline.addr = alloca %struct._ZN5vmesh14MeshParametersE*, align 8
	%..inline.addr.1 = alloca %struct._ZN5vmesh14MeshParametersE*, align 8
	%.lcr4474753.addr = alloca i8*, align 8
	%..inline.addr.2 = alloca %struct._ZN5vmesh14MeshParametersE*, align 8
	%..inline.addr.3 = alloca %struct._ZSt12_Vector_baseIN5vmesh14MeshParametersESaIS1_EE*, align 8
	%..inline.addr.4 = alloca %struct._ZN5vmesh14MeshParametersE*, align 8

	call void @llvm.dbg.declare (metadata %struct._ZSt6vectorIN5vmesh14MeshParametersESaIS1_EE** %_T23532632_52473.addr, metadata !5535, metadata !3896), !dbg !5476
	store %struct._ZSt6vectorIN5vmesh14MeshParametersESaIS1_EE* %_T23532632_52473.arg, %struct._ZSt6vectorIN5vmesh14MeshParametersESaIS1_EE** %_T23532632_52473.addr, align 8, !tbaa !3904
	call void @llvm.dbg.declare (metadata %struct._ZSt6vectorIN5vmesh14MeshParametersESaIS1_EE** %_T23532632_52473.addr, metadata !5536, metadata !3896), !dbg !5476
	%0 = load %struct._ZSt6vectorIN5vmesh14MeshParametersESaIS1_EE*, %struct._ZSt6vectorIN5vmesh14MeshParametersESaIS1_EE** %_T23532632_52473.addr, align 8, !tbaa !3904, !dbg !5537
	%1 = bitcast %struct._ZSt6vectorIN5vmesh14MeshParametersESaIS1_EE*  %0 to i8**, !dbg !5537
	%2 = load i8*, i8**  %1, align 8, !tbaa !3904, !dbg !5537
	%3 = bitcast %struct._ZN5vmesh14MeshParametersE** %..inline.addr to i8**, !dbg !5537
	store i8*  %2, i8**  %3, align 8, !tbaa !3904, !dbg !5537
	%4 = bitcast %struct._ZSt6vectorIN5vmesh14MeshParametersESaIS1_EE*  %0 to i8*, !dbg !5537
	%5 = getelementptr i8, i8*  %4, i64 8, !dbg !5537
	%6 = bitcast i8*  %5 to i8**, !dbg !5537
	%7 = load i8*, i8**  %6, align 8, !tbaa !3904, !dbg !5537
	%8 = bitcast %struct._ZN5vmesh14MeshParametersE** %..inline.addr.1 to i8**, !dbg !5537
	store i8*  %7, i8**  %8, align 8, !tbaa !3904, !dbg !5537
	%9 = load %struct._ZN5vmesh14MeshParametersE*, %struct._ZN5vmesh14MeshParametersE** %..inline.addr, align 8, !tbaa !3904, !dbg !5537
	%10 = bitcast %struct._ZN5vmesh14MeshParametersE*  %9 to i8*, !dbg !5537
	%11 = load %struct._ZN5vmesh14MeshParametersE*, %struct._ZN5vmesh14MeshParametersE** %..inline.addr.1, align 8, !tbaa !3904, !dbg !5537
	%12 = bitcast %struct._ZN5vmesh14MeshParametersE*  %11 to i8*, !dbg !5537
	%13 = icmp eq i8*  %10,  %12, !dbg !5537
	br i1  %13, label %L..inline.67832, label %L.B1117, !dbg !5537
L.B1117:
	%14 = bitcast %struct._ZN5vmesh14MeshParametersE*  %9 to i8*, !dbg !5537
	%15 = bitcast %struct._ZN5vmesh14MeshParametersE*  %11 to i8*, !dbg !5537
	%16 = ptrtoint i8*  %14 to i64, !dbg !5537
	%17 = sub i64 0,  %16, !dbg !5537
	%18 = getelementptr i8, i8*  %15, i64  %17, !dbg !5537
	%19 = ptrtoint i8*  %18 to i64, !dbg !5537
	%20 = add i64  %19, 335, !dbg !5537
	%21 = sub i64 0,  %16, !dbg !5537
	%22 = getelementptr i8, i8*  %15, i64  %21, !dbg !5537
	%23 = ptrtoint i8*  %22 to i64, !dbg !5537
	%24 = add i64  %23, 335, !dbg !5537
	%25 = sext i64 -4392081922311798003 to i128, !dbg !5537
	%26 = sext i64  %24 to i128, !dbg !5537
	%27 = mul i128  %25,  %26, !dbg !5537
	%28 = ashr i128  %27, 64, !dbg !5537
	%29 = trunc i128  %28 to i64, !dbg !5537
	%30 = add i64  %20,  %29, !dbg !5537
	%31 = sext i32 8 to i64, !dbg !5537
	%32 = ashr i64  %30,  %31, !dbg !5537
	%33 = sub i64 0,  %16, !dbg !5537
	%34 = getelementptr i8, i8*  %15, i64  %33, !dbg !5537
	%35 = ptrtoint i8*  %34 to i64, !dbg !5537
	%36 = add i64  %35, 335, !dbg !5537
	%37 = sext i32 63 to i64, !dbg !5537
	%38 = ashr i64  %36,  %37, !dbg !5537
	%39 = sub i64  %32,  %38, !dbg !5537
	%40 = mul i64  %39, 336, !dbg !5537
	%41 = getelementptr i8, i8*  %14, i64  %40, !dbg !5537
	store i8*  %41, i8** %.lcr4474753.addr, align 8, !tbaa !3904, !dbg !5537
	br label %L..inline.67831
L..inline.67831:
	%42 = load %struct._ZN5vmesh14MeshParametersE*, %struct._ZN5vmesh14MeshParametersE** %..inline.addr, align 8, !tbaa !3904, !dbg !5537
	%43 = bitcast %struct._ZN5vmesh14MeshParametersE*  %42 to i8*, !dbg !5537
	%44 = bitcast %struct._ZN5vmesh14MeshParametersE** %..inline.addr.2 to i8**, !dbg !5537
	store i8*  %43, i8**  %44, align 8, !tbaa !3904, !dbg !5537
	%45 = load %struct._ZN5vmesh14MeshParametersE*, %struct._ZN5vmesh14MeshParametersE** %..inline.addr.2, align 8, !tbaa !3904, !dbg !5537
	call void  @_ZN5vmesh14MeshParametersD1Ev (%struct._ZN5vmesh14MeshParametersE*  %45) nounwind, !dbg !5537
	%46 = load %struct._ZN5vmesh14MeshParametersE*, %struct._ZN5vmesh14MeshParametersE** %..inline.addr, align 8, !tbaa !3904, !dbg !5537
	%47 = bitcast %struct._ZN5vmesh14MeshParametersE*  %46 to i8*, !dbg !5537
	%48 = getelementptr i8, i8*  %47, i64 336, !dbg !5537
	%49 = bitcast %struct._ZN5vmesh14MeshParametersE** %..inline.addr to i8**, !dbg !5537
	store i8*  %48, i8**  %49, align 8, !tbaa !3904, !dbg !5537
	%50 = load %struct._ZN5vmesh14MeshParametersE*, %struct._ZN5vmesh14MeshParametersE** %..inline.addr, align 8, !tbaa !3904, !dbg !5537
	%51 = bitcast %struct._ZN5vmesh14MeshParametersE*  %50 to i8*, !dbg !5537
	%52 = load i8*, i8** %.lcr4474753.addr, align 8, !tbaa !3904, !dbg !5537
	%53 = icmp ult i8*  %51,  %52, !dbg !5537
	br i1  %53, label %L..inline.67831, label %L..inline.67832, !dbg !5537
L..inline.67832:
	%54 = load %struct._ZSt6vectorIN5vmesh14MeshParametersESaIS1_EE*, %struct._ZSt6vectorIN5vmesh14MeshParametersESaIS1_EE** %_T23532632_52473.addr, align 8, !tbaa !3904, !dbg !5538
	%55 = bitcast %struct._ZSt6vectorIN5vmesh14MeshParametersESaIS1_EE*  %54 to i8*, !dbg !5538
	%56 = bitcast %struct._ZSt12_Vector_baseIN5vmesh14MeshParametersESaIS1_EE** %..inline.addr.3 to i8**, !dbg !5538
	store i8*  %55, i8**  %56, align 8, !tbaa !3904, !dbg !5538
	%57 = load %struct._ZSt12_Vector_baseIN5vmesh14MeshParametersESaIS1_EE*, %struct._ZSt12_Vector_baseIN5vmesh14MeshParametersESaIS1_EE** %..inline.addr.3, align 8, !tbaa !3904, !dbg !5539
	%58 = bitcast %struct._ZSt12_Vector_baseIN5vmesh14MeshParametersESaIS1_EE*  %57 to i8**, !dbg !5539
	%59 = load i8*, i8**  %58, align 8, !tbaa !3904, !dbg !5539
	%60 = icmp eq i8*  %59,  null, !dbg !5539
	br i1  %60, label %L..inline.67864, label %L.B1118, !dbg !5539
L.B1118:
	%61 = bitcast %struct._ZSt12_Vector_baseIN5vmesh14MeshParametersESaIS1_EE*  %57 to i8**, !dbg !5539
	%62 = load i8*, i8**  %61, align 8, !tbaa !3904, !dbg !5539
	%63 = bitcast %struct._ZN5vmesh14MeshParametersE** %..inline.addr.4 to i8**, !dbg !5539
	store i8*  %62, i8**  %63, align 8, !tbaa !3904, !dbg !5539
	%64 = load %struct._ZN5vmesh14MeshParametersE*, %struct._ZN5vmesh14MeshParametersE** %..inline.addr.4, align 8, !tbaa !3904, !dbg !5539
	%65 = bitcast %struct._ZN5vmesh14MeshParametersE*  %64 to i8*, !dbg !5539
	call void  @_ZdlPv (i8*  %65) nounwind, !dbg !5539
	br label %L..inline.67864
L..inline.67864:
	ret void, !dbg !5538
}
define linkonce_odr void @_ZNSt6vectorIN5vmesh14MeshParametersESaIS1_EED2Ev(%struct._ZSt6vectorIN5vmesh14MeshParametersESaIS1_EE* %_T23532632_52474.arg) #0 inlinehint !dbg !5541 {
L.entry:
	%_T23532632_52474.addr = alloca %struct._ZSt6vectorIN5vmesh14MeshParametersESaIS1_EE*, align 8
	%..inline.addr = alloca %struct._ZSt6vectorIN5vmesh14MeshParametersESaIS1_EE*, align 8
	%..inline.addr.1 = alloca %struct._ZN5vmesh14MeshParametersE*, align 8
	%..inline.addr.2 = alloca %struct._ZN5vmesh14MeshParametersE*, align 8
	%.lcr4475777.addr = alloca i8*, align 8
	%..inline.addr.3 = alloca %struct._ZN5vmesh14MeshParametersE*, align 8
	%..inline.addr.4 = alloca %struct._ZN5vmesh14MeshParametersE*, align 8

	store %struct._ZSt6vectorIN5vmesh14MeshParametersESaIS1_EE* %_T23532632_52474.arg, %struct._ZSt6vectorIN5vmesh14MeshParametersESaIS1_EE** %_T23532632_52474.addr, align 8, !tbaa !3904
	%0 = load %struct._ZSt6vectorIN5vmesh14MeshParametersESaIS1_EE*, %struct._ZSt6vectorIN5vmesh14MeshParametersESaIS1_EE** %_T23532632_52474.addr, align 8, !tbaa !3904, !dbg !5605
	%1 = bitcast %struct._ZSt6vectorIN5vmesh14MeshParametersESaIS1_EE*  %0 to i8*, !dbg !5605
	%2 = bitcast %struct._ZSt6vectorIN5vmesh14MeshParametersESaIS1_EE** %..inline.addr to i8**, !dbg !5605
	store i8*  %1, i8**  %2, align 8, !tbaa !3904, !dbg !5605
	%3 = load %struct._ZSt6vectorIN5vmesh14MeshParametersESaIS1_EE*, %struct._ZSt6vectorIN5vmesh14MeshParametersESaIS1_EE** %..inline.addr, align 8, !tbaa !3904, !dbg !5606
	%4 = bitcast %struct._ZSt6vectorIN5vmesh14MeshParametersESaIS1_EE*  %3 to i8**, !dbg !5606
	%5 = load i8*, i8**  %4, align 8, !tbaa !3904, !dbg !5606
	%6 = bitcast %struct._ZN5vmesh14MeshParametersE** %..inline.addr.1 to i8**, !dbg !5606
	store i8*  %5, i8**  %6, align 8, !tbaa !3904, !dbg !5606
	%7 = bitcast %struct._ZSt6vectorIN5vmesh14MeshParametersESaIS1_EE*  %3 to i8*, !dbg !5606
	%8 = getelementptr i8, i8*  %7, i64 8, !dbg !5606
	%9 = bitcast i8*  %8 to i8**, !dbg !5606
	%10 = load i8*, i8**  %9, align 8, !tbaa !3904, !dbg !5606
	%11 = bitcast %struct._ZN5vmesh14MeshParametersE** %..inline.addr.2 to i8**, !dbg !5606
	store i8*  %10, i8**  %11, align 8, !tbaa !3904, !dbg !5606
	%12 = load %struct._ZN5vmesh14MeshParametersE*, %struct._ZN5vmesh14MeshParametersE** %..inline.addr.1, align 8, !tbaa !3904, !dbg !5606
	%13 = bitcast %struct._ZN5vmesh14MeshParametersE*  %12 to i8*, !dbg !5606
	%14 = load %struct._ZN5vmesh14MeshParametersE*, %struct._ZN5vmesh14MeshParametersE** %..inline.addr.2, align 8, !tbaa !3904, !dbg !5606
	%15 = bitcast %struct._ZN5vmesh14MeshParametersE*  %14 to i8*, !dbg !5606
	%16 = icmp eq i8*  %13,  %15, !dbg !5606
	br i1  %16, label %L..inline.67963, label %L.B1121, !dbg !5606
L.B1121:
	%17 = bitcast %struct._ZN5vmesh14MeshParametersE*  %12 to i8*, !dbg !5606
	%18 = bitcast %struct._ZN5vmesh14MeshParametersE*  %14 to i8*, !dbg !5606
	%19 = ptrtoint i8*  %17 to i64, !dbg !5606
	%20 = sub i64 0,  %19, !dbg !5606
	%21 = getelementptr i8, i8*  %18, i64  %20, !dbg !5606
	%22 = ptrtoint i8*  %21 to i64, !dbg !5606
	%23 = add i64  %22, 335, !dbg !5606
	%24 = sub i64 0,  %19, !dbg !5606
	%25 = getelementptr i8, i8*  %18, i64  %24, !dbg !5606
	%26 = ptrtoint i8*  %25 to i64, !dbg !5606
	%27 = add i64  %26, 335, !dbg !5606
	%28 = sext i64 -4392081922311798003 to i128, !dbg !5606
	%29 = sext i64  %27 to i128, !dbg !5606
	%30 = mul i128  %28,  %29, !dbg !5606
	%31 = ashr i128  %30, 64, !dbg !5606
	%32 = trunc i128  %31 to i64, !dbg !5606
	%33 = add i64  %23,  %32, !dbg !5606
	%34 = sext i32 8 to i64, !dbg !5606
	%35 = ashr i64  %33,  %34, !dbg !5606
	%36 = sub i64 0,  %19, !dbg !5606
	%37 = getelementptr i8, i8*  %18, i64  %36, !dbg !5606
	%38 = ptrtoint i8*  %37 to i64, !dbg !5606
	%39 = add i64  %38, 335, !dbg !5606
	%40 = sext i32 63 to i64, !dbg !5606
	%41 = ashr i64  %39,  %40, !dbg !5606
	%42 = sub i64  %35,  %41, !dbg !5606
	%43 = mul i64  %42, 336, !dbg !5606
	%44 = getelementptr i8, i8*  %17, i64  %43, !dbg !5606
	store i8*  %44, i8** %.lcr4475777.addr, align 8, !tbaa !3904, !dbg !5606
	br label %L..inline.67962
L..inline.67962:
	%45 = load %struct._ZN5vmesh14MeshParametersE*, %struct._ZN5vmesh14MeshParametersE** %..inline.addr.1, align 8, !tbaa !3904, !dbg !5606
	%46 = bitcast %struct._ZN5vmesh14MeshParametersE*  %45 to i8*, !dbg !5606
	%47 = bitcast %struct._ZN5vmesh14MeshParametersE** %..inline.addr.3 to i8**, !dbg !5606
	store i8*  %46, i8**  %47, align 8, !tbaa !3904, !dbg !5606
	%48 = load %struct._ZN5vmesh14MeshParametersE*, %struct._ZN5vmesh14MeshParametersE** %..inline.addr.3, align 8, !tbaa !3904, !dbg !5606
	call void  @_ZN5vmesh14MeshParametersD1Ev (%struct._ZN5vmesh14MeshParametersE*  %48) nounwind, !dbg !5606
	%49 = load %struct._ZN5vmesh14MeshParametersE*, %struct._ZN5vmesh14MeshParametersE** %..inline.addr.1, align 8, !tbaa !3904, !dbg !5606
	%50 = bitcast %struct._ZN5vmesh14MeshParametersE*  %49 to i8*, !dbg !5606
	%51 = getelementptr i8, i8*  %50, i64 336, !dbg !5606
	%52 = bitcast %struct._ZN5vmesh14MeshParametersE** %..inline.addr.1 to i8**, !dbg !5606
	store i8*  %51, i8**  %52, align 8, !tbaa !3904, !dbg !5606
	%53 = load %struct._ZN5vmesh14MeshParametersE*, %struct._ZN5vmesh14MeshParametersE** %..inline.addr.1, align 8, !tbaa !3904, !dbg !5606
	%54 = bitcast %struct._ZN5vmesh14MeshParametersE*  %53 to i8*, !dbg !5606
	%55 = load i8*, i8** %.lcr4475777.addr, align 8, !tbaa !3904, !dbg !5606
	%56 = icmp ult i8*  %54,  %55, !dbg !5606
	br i1  %56, label %L..inline.67962, label %L..inline.67963, !dbg !5606
L..inline.67963:
	%57 = load %struct._ZSt6vectorIN5vmesh14MeshParametersESaIS1_EE*, %struct._ZSt6vectorIN5vmesh14MeshParametersESaIS1_EE** %..inline.addr, align 8, !tbaa !3904, !dbg !5607
	%58 = bitcast %struct._ZSt6vectorIN5vmesh14MeshParametersESaIS1_EE*  %57 to i8**, !dbg !5607
	%59 = load i8*, i8**  %58, align 8, !tbaa !3904, !dbg !5607
	%60 = icmp eq i8*  %59,  null, !dbg !5607
	br i1  %60, label %L..inline.67993, label %L.B1122, !dbg !5607
L.B1122:
	%61 = bitcast %struct._ZSt6vectorIN5vmesh14MeshParametersESaIS1_EE*  %57 to i8**, !dbg !5607
	%62 = load i8*, i8**  %61, align 8, !tbaa !3904, !dbg !5607
	%63 = bitcast %struct._ZN5vmesh14MeshParametersE** %..inline.addr.4 to i8**, !dbg !5607
	store i8*  %62, i8**  %63, align 8, !tbaa !3904, !dbg !5607
	%64 = load %struct._ZN5vmesh14MeshParametersE*, %struct._ZN5vmesh14MeshParametersE** %..inline.addr.4, align 8, !tbaa !3904, !dbg !5607
	%65 = bitcast %struct._ZN5vmesh14MeshParametersE*  %64 to i8*, !dbg !5607
	call void  @_ZdlPv (i8*  %65) nounwind, !dbg !5607
	br label %L..inline.67993
L..inline.67993:
	ret void, !dbg !5607
}
define linkonce_odr %struct._ZN5vmesh14MeshParametersE* @_ZNSt6vectorIN5vmesh14MeshParametersESaIS1_EEixEm(%struct._ZSt6vectorIN5vmesh14MeshParametersESaIS1_EE* %_T23532632_52477.arg, i64 %__n.arg) #0 inlinehint !dbg !5611 {
L.entry:
	%_T23532632_52477.addr = alloca %struct._ZSt6vectorIN5vmesh14MeshParametersESaIS1_EE*, align 8
	%__n.addr = alloca i64, align 8

	call void @llvm.dbg.declare (metadata %struct._ZSt6vectorIN5vmesh14MeshParametersESaIS1_EE** %_T23532632_52477.addr, metadata !5615, metadata !3896), !dbg !5612
	store %struct._ZSt6vectorIN5vmesh14MeshParametersESaIS1_EE* %_T23532632_52477.arg, %struct._ZSt6vectorIN5vmesh14MeshParametersESaIS1_EE** %_T23532632_52477.addr, align 8, !tbaa !3904
	call void @llvm.dbg.declare (metadata %struct._ZSt6vectorIN5vmesh14MeshParametersESaIS1_EE** %_T23532632_52477.addr, metadata !5616, metadata !3896), !dbg !5612
	call void @llvm.dbg.declare (metadata i64* %__n.addr, metadata !5617, metadata !3896), !dbg !5612
	store i64 %__n.arg, i64* %__n.addr, align 8, !tbaa !4014
	call void @llvm.dbg.declare (metadata i64* %__n.addr, metadata !5618, metadata !3896), !dbg !5612
	%0 = load %struct._ZSt6vectorIN5vmesh14MeshParametersESaIS1_EE*, %struct._ZSt6vectorIN5vmesh14MeshParametersESaIS1_EE** %_T23532632_52477.addr, align 8, !tbaa !3904, !dbg !5619
	%1 = bitcast %struct._ZSt6vectorIN5vmesh14MeshParametersESaIS1_EE*  %0 to i8**, !dbg !5619
	%2 = load i8*, i8**  %1, align 8, !tbaa !3904, !dbg !5619
	%3 = load i64, i64* %__n.addr, align 8, !tbaa !4305, !dbg !5619
	%4 = mul i64  %3, 336, !dbg !5619
	%5 = getelementptr i8, i8*  %2, i64  %4, !dbg !5619
	%6 = bitcast i8*  %5 to %struct._ZN5vmesh14MeshParametersE*, !dbg !5619
	ret %struct._ZN5vmesh14MeshParametersE*  %6, !dbg !5619
}

%struct._ZSt12_Vector_baseIN7species7SpeciesESaIS1_EE = type <{ %struct._ZNSt12_Vector_baseIN7species7SpeciesESaIS1_EE12_Vector_implE}> 
%struct._ZSt6vectorIN7species7SpeciesESaIS1_EE = type <{ %struct._ZSt12_Vector_baseIN7species7SpeciesESaIS1_EE}> 
%struct._ZN7species7SpeciesE = type <{ %struct._ZNSt7__cxx1112basic_stringIcSt11char_traitsIcESaIcEEE, double, double, double, i64, i32, i8, [3 x i8], i32, [4 x i8], double, double, double, double, double, %struct._ZSt5arrayIdLm3EE, double, double, double, double, i32, [4 x i8], double, double, double}> 
%struct._ZSt5arrayIdLm3EE = type <{ [3 x double]}> 
%struct._ZNSt12_Vector_baseIN7species7SpeciesESaIS1_EE12_Vector_implE = type <{ %struct._ZNSt12_Vector_baseIN7species7SpeciesESaIS1_EE17_Vector_impl_dataE}> 
%struct._ZNSt12_Vector_baseIN7species7SpeciesESaIS1_EE17_Vector_impl_dataE = type <{ %struct._ZN7species7SpeciesE*, %struct._ZN7species7SpeciesE*, %struct._ZN7species7SpeciesE*}> 

define linkonce_odr i64 @_ZNKSt6vectorIN7species7SpeciesESaIS1_EE4sizeEv(%struct._ZSt6vectorIN7species7SpeciesESaIS1_EE* %_T23532632_52479.arg) #0 inlinehint !dbg !5625 {
L.entry:
	%_T23532632_52479.addr = alloca %struct._ZSt6vectorIN7species7SpeciesESaIS1_EE*, align 8
	%_T23533520_52479.addr = alloca i64, align 8

	call void @llvm.dbg.declare (metadata %struct._ZSt6vectorIN7species7SpeciesESaIS1_EE** %_T23532632_52479.addr, metadata !5629, metadata !3896), !dbg !5626
	store %struct._ZSt6vectorIN7species7SpeciesESaIS1_EE* %_T23532632_52479.arg, %struct._ZSt6vectorIN7species7SpeciesESaIS1_EE** %_T23532632_52479.addr, align 8, !tbaa !3904
	call void @llvm.dbg.declare (metadata %struct._ZSt6vectorIN7species7SpeciesESaIS1_EE** %_T23532632_52479.addr, metadata !5630, metadata !3896), !dbg !5626
	%0 = load %struct._ZSt6vectorIN7species7SpeciesESaIS1_EE*, %struct._ZSt6vectorIN7species7SpeciesESaIS1_EE** %_T23532632_52479.addr, align 8, !tbaa !3904, !dbg !5631
	%1 = bitcast %struct._ZSt6vectorIN7species7SpeciesESaIS1_EE*  %0 to i8*, !dbg !5631
	%2 = getelementptr i8, i8*  %1, i64 8, !dbg !5631
	%3 = bitcast i8*  %2 to i8**, !dbg !5631
	%4 = load i8*, i8**  %3, align 8, !tbaa !3904, !dbg !5631
	%5 = bitcast %struct._ZSt6vectorIN7species7SpeciesESaIS1_EE*  %0 to i8**, !dbg !5631
	%6 = load i8*, i8**  %5, align 8, !tbaa !3904, !dbg !5631
	%7 = ptrtoint i8*  %6 to i64, !dbg !5631
	%8 = sub i64 0,  %7, !dbg !5631
	%9 = getelementptr i8, i8*  %4, i64  %8, !dbg !5631
	%10 = ptrtoint i8*  %9 to i64, !dbg !5631
	%11 = sext i64 5675921253449092805 to i128, !dbg !5631
	%12 = sext i64  %10 to i128, !dbg !5631
	%13 = mul i128  %11,  %12, !dbg !5631
	%14 = ashr i128  %13, 64, !dbg !5631
	%15 = trunc i128  %14 to i64, !dbg !5631
	%16 = sext i32 6 to i64, !dbg !5631
	%17 = ashr i64  %15,  %16, !dbg !5631
	%18 = sub i64 0,  %7, !dbg !5631
	%19 = getelementptr i8, i8*  %4, i64  %18, !dbg !5631
	%20 = ptrtoint i8*  %19 to i64, !dbg !5631
	%21 = sext i32 63 to i64, !dbg !5631
	%22 = ashr i64  %20,  %21, !dbg !5631
	%23 = sub i64  %17,  %22, !dbg !5631
	ret i64  %23, !dbg !5631
}
define linkonce_odr %struct._ZN7species7SpeciesE* @_ZNSt6vectorIN7species7SpeciesESaIS1_EEixEm(%struct._ZSt6vectorIN7species7SpeciesESaIS1_EE* %_T23532632_52482.arg, i64 %__n.arg) #0 inlinehint !dbg !5635 {
L.entry:
	%_T23532632_52482.addr = alloca %struct._ZSt6vectorIN7species7SpeciesESaIS1_EE*, align 8
	%__n.addr = alloca i64, align 8

	call void @llvm.dbg.declare (metadata %struct._ZSt6vectorIN7species7SpeciesESaIS1_EE** %_T23532632_52482.addr, metadata !5639, metadata !3896), !dbg !5636
	store %struct._ZSt6vectorIN7species7SpeciesESaIS1_EE* %_T23532632_52482.arg, %struct._ZSt6vectorIN7species7SpeciesESaIS1_EE** %_T23532632_52482.addr, align 8, !tbaa !3904
	call void @llvm.dbg.declare (metadata %struct._ZSt6vectorIN7species7SpeciesESaIS1_EE** %_T23532632_52482.addr, metadata !5640, metadata !3896), !dbg !5636
	call void @llvm.dbg.declare (metadata i64* %__n.addr, metadata !5641, metadata !3896), !dbg !5636
	store i64 %__n.arg, i64* %__n.addr, align 8, !tbaa !4014
	call void @llvm.dbg.declare (metadata i64* %__n.addr, metadata !5642, metadata !3896), !dbg !5636
	%0 = load %struct._ZSt6vectorIN7species7SpeciesESaIS1_EE*, %struct._ZSt6vectorIN7species7SpeciesESaIS1_EE** %_T23532632_52482.addr, align 8, !tbaa !3904, !dbg !5643
	%1 = bitcast %struct._ZSt6vectorIN7species7SpeciesESaIS1_EE*  %0 to i8**, !dbg !5643
	%2 = load i8*, i8**  %1, align 8, !tbaa !3904, !dbg !5643
	%3 = load i64, i64* %__n.addr, align 8, !tbaa !4305, !dbg !5643
	%4 = mul i64  %3, 208, !dbg !5643
	%5 = getelementptr i8, i8*  %2, i64  %4, !dbg !5643
	%6 = bitcast i8*  %5 to %struct._ZN7species7SpeciesE*, !dbg !5643
	ret %struct._ZN7species7SpeciesE*  %6, !dbg !5643
}
define linkonce_odr i8* @_ZNSt14pointer_traitsIPcE10pointer_toERc(i8* %__r.arg) #0 inlinehint !dbg !5650 {
L.entry:
	%__r.addr = alloca i8*, align 8

	call void @llvm.dbg.declare (metadata i8** %__r.addr, metadata !5662, metadata !3896), !dbg !5651
	store i8* %__r.arg, i8** %__r.addr, align 8, !tbaa !3904
	call void @llvm.dbg.declare (metadata i8** %__r.addr, metadata !5663, metadata !3896), !dbg !5651
	%0 = load i8*, i8** %__r.addr, align 8, !tbaa !3904, !dbg !5664
	ret i8*  %0, !dbg !5664
}
define linkonce_odr i8* @_ZNSt14pointer_traitsIPKcE10pointer_toERS0_(i8* %__r.arg) #0 inlinehint !dbg !5666 {
L.entry:
	%__r.addr = alloca i8*, align 8

	call void @llvm.dbg.declare (metadata i8** %__r.addr, metadata !5678, metadata !3896), !dbg !5667
	store i8* %__r.arg, i8** %__r.addr, align 8, !tbaa !3904
	call void @llvm.dbg.declare (metadata i8** %__r.addr, metadata !5679, metadata !3896), !dbg !5667
	%0 = load i8*, i8** %__r.addr, align 8, !tbaa !3904, !dbg !5680
	ret i8*  %0, !dbg !5680
}
define linkonce_odr void @_ZNSt12_Destroy_auxILb0EE9__destroyIPN5vmesh14MeshParametersEEEvT_S5_(%struct._ZN5vmesh14MeshParametersE* %__first.arg, %struct._ZN5vmesh14MeshParametersE* %__last.arg) #0 inlinehint !dbg !5684 {
L.entry:
	%__first.addr = alloca %struct._ZN5vmesh14MeshParametersE*, align 8
	%__last.addr = alloca %struct._ZN5vmesh14MeshParametersE*, align 8
	%.lcr4481921.addr = alloca i8*, align 8
	%..inline.addr = alloca %struct._ZN5vmesh14MeshParametersE*, align 8

	call void @llvm.dbg.declare (metadata %struct._ZN5vmesh14MeshParametersE** %__first.addr, metadata !5696, metadata !3896), !dbg !5685
	store %struct._ZN5vmesh14MeshParametersE* %__first.arg, %struct._ZN5vmesh14MeshParametersE** %__first.addr, align 8, !tbaa !3904
	call void @llvm.dbg.declare (metadata %struct._ZN5vmesh14MeshParametersE** %__first.addr, metadata !5697, metadata !3896), !dbg !5685
	call void @llvm.dbg.declare (metadata %struct._ZN5vmesh14MeshParametersE** %__last.addr, metadata !5698, metadata !3896), !dbg !5685
	store %struct._ZN5vmesh14MeshParametersE* %__last.arg, %struct._ZN5vmesh14MeshParametersE** %__last.addr, align 8, !tbaa !3904
	call void @llvm.dbg.declare (metadata %struct._ZN5vmesh14MeshParametersE** %__last.addr, metadata !5699, metadata !3896), !dbg !5685
	%0 = load %struct._ZN5vmesh14MeshParametersE*, %struct._ZN5vmesh14MeshParametersE** %__first.addr, align 8, !tbaa !3904, !dbg !5700
	%1 = bitcast %struct._ZN5vmesh14MeshParametersE*  %0 to i8*, !dbg !5700
	%2 = load %struct._ZN5vmesh14MeshParametersE*, %struct._ZN5vmesh14MeshParametersE** %__last.addr, align 8, !tbaa !3904, !dbg !5700
	%3 = bitcast %struct._ZN5vmesh14MeshParametersE*  %2 to i8*, !dbg !5700
	%4 = icmp eq i8*  %1,  %3, !dbg !5700
	br i1  %4, label %L.B0010, label %L.B1131, !dbg !5700
L.B1131:
	%5 = bitcast %struct._ZN5vmesh14MeshParametersE*  %0 to i8*, !dbg !5700
	%6 = bitcast %struct._ZN5vmesh14MeshParametersE*  %2 to i8*, !dbg !5700
	%7 = ptrtoint i8*  %5 to i64, !dbg !5700
	%8 = sub i64 0,  %7, !dbg !5700
	%9 = getelementptr i8, i8*  %6, i64  %8, !dbg !5700
	%10 = ptrtoint i8*  %9 to i64, !dbg !5700
	%11 = add i64  %10, 335, !dbg !5700
	%12 = sub i64 0,  %7, !dbg !5700
	%13 = getelementptr i8, i8*  %6, i64  %12, !dbg !5700
	%14 = ptrtoint i8*  %13 to i64, !dbg !5700
	%15 = add i64  %14, 335, !dbg !5700
	%16 = sext i64 -4392081922311798003 to i128, !dbg !5700
	%17 = sext i64  %15 to i128, !dbg !5700
	%18 = mul i128  %16,  %17, !dbg !5700
	%19 = ashr i128  %18, 64, !dbg !5700
	%20 = trunc i128  %19 to i64, !dbg !5700
	%21 = add i64  %11,  %20, !dbg !5700
	%22 = sext i32 8 to i64, !dbg !5700
	%23 = ashr i64  %21,  %22, !dbg !5700
	%24 = sub i64 0,  %7, !dbg !5700
	%25 = getelementptr i8, i8*  %6, i64  %24, !dbg !5700
	%26 = ptrtoint i8*  %25 to i64, !dbg !5700
	%27 = add i64  %26, 335, !dbg !5700
	%28 = sext i32 63 to i64, !dbg !5700
	%29 = ashr i64  %27,  %28, !dbg !5700
	%30 = sub i64  %23,  %29, !dbg !5700
	%31 = mul i64  %30, 336, !dbg !5700
	%32 = getelementptr i8, i8*  %5, i64  %31, !dbg !5700
	store i8*  %32, i8** %.lcr4481921.addr, align 8, !tbaa !3904, !dbg !5700
	br label %L.B0009
L.B0009:
	%33 = load %struct._ZN5vmesh14MeshParametersE*, %struct._ZN5vmesh14MeshParametersE** %__first.addr, align 8, !tbaa !3904, !dbg !5701
	%34 = bitcast %struct._ZN5vmesh14MeshParametersE*  %33 to i8*, !dbg !5701
	%35 = bitcast %struct._ZN5vmesh14MeshParametersE** %..inline.addr to i8**, !dbg !5701
	store i8*  %34, i8**  %35, align 8, !tbaa !3904, !dbg !5701
	%36 = load %struct._ZN5vmesh14MeshParametersE*, %struct._ZN5vmesh14MeshParametersE** %..inline.addr, align 8, !tbaa !3904, !dbg !5702
	call void  @_ZN5vmesh14MeshParametersD1Ev (%struct._ZN5vmesh14MeshParametersE*  %36) nounwind, !dbg !5702
	%37 = load %struct._ZN5vmesh14MeshParametersE*, %struct._ZN5vmesh14MeshParametersE** %__first.addr, align 8, !tbaa !3904, !dbg !5703
	%38 = bitcast %struct._ZN5vmesh14MeshParametersE*  %37 to i8*, !dbg !5703
	%39 = getelementptr i8, i8*  %38, i64 336, !dbg !5703
	%40 = bitcast %struct._ZN5vmesh14MeshParametersE** %__first.addr to i8**, !dbg !5703
	store i8*  %39, i8**  %40, align 8, !tbaa !3904, !dbg !5703
	%41 = load %struct._ZN5vmesh14MeshParametersE*, %struct._ZN5vmesh14MeshParametersE** %__first.addr, align 8, !tbaa !3904, !dbg !5703
	%42 = bitcast %struct._ZN5vmesh14MeshParametersE*  %41 to i8*, !dbg !5703
	%43 = load i8*, i8** %.lcr4481921.addr, align 8, !tbaa !3904, !dbg !5703
	%44 = icmp ult i8*  %42,  %43, !dbg !5703
	br i1  %44, label %L.B0009, label %L.B0010, !dbg !5703
L.B0010:
	ret void, !dbg !5704
}
define linkonce_odr void @_ZNSt7__cxx1112basic_stringIcSt11char_traitsIcESaIcEE7_M_dataEPc(%struct._ZNSt7__cxx1112basic_stringIcSt11char_traitsIcESaIcEEE* %_T23532632_52493.arg, i8* %__p.arg) #0 inlinehint !dbg !5711 {
L.entry:
	%_T23532632_52493.addr = alloca %struct._ZNSt7__cxx1112basic_stringIcSt11char_traitsIcESaIcEEE*, align 8
	%__p.addr = alloca i8*, align 8

	call void @llvm.dbg.declare (metadata %struct._ZNSt7__cxx1112basic_stringIcSt11char_traitsIcESaIcEEE** %_T23532632_52493.addr, metadata !5715, metadata !3896), !dbg !5712
	store %struct._ZNSt7__cxx1112basic_stringIcSt11char_traitsIcESaIcEEE* %_T23532632_52493.arg, %struct._ZNSt7__cxx1112basic_stringIcSt11char_traitsIcESaIcEEE** %_T23532632_52493.addr, align 8, !tbaa !3904
	call void @llvm.dbg.declare (metadata %struct._ZNSt7__cxx1112basic_stringIcSt11char_traitsIcESaIcEEE** %_T23532632_52493.addr, metadata !5716, metadata !3896), !dbg !5712
	call void @llvm.dbg.declare (metadata i8** %__p.addr, metadata !5717, metadata !3896), !dbg !5712
	store i8* %__p.arg, i8** %__p.addr, align 8, !tbaa !3904
	call void @llvm.dbg.declare (metadata i8** %__p.addr, metadata !5718, metadata !3896), !dbg !5712
	%0 = load i8*, i8** %__p.addr, align 8, !tbaa !3904, !dbg !5719
	%1 = load %struct._ZNSt7__cxx1112basic_stringIcSt11char_traitsIcESaIcEEE*, %struct._ZNSt7__cxx1112basic_stringIcSt11char_traitsIcESaIcEEE** %_T23532632_52493.addr, align 8, !tbaa !3904, !dbg !5719
	%2 = bitcast %struct._ZNSt7__cxx1112basic_stringIcSt11char_traitsIcESaIcEEE*  %1 to i8**, !dbg !5719
	store i8*  %0, i8**  %2, align 8, !tbaa !3904, !dbg !5719
	ret void, !dbg !5719
}
define linkonce_odr void @_ZNSt7__cxx1112basic_stringIcSt11char_traitsIcESaIcEE9_M_lengthEm(%struct._ZNSt7__cxx1112basic_stringIcSt11char_traitsIcESaIcEEE* %_T23532632_52495.arg, i64 %__length.arg) #0 inlinehint !dbg !5723 {
L.entry:
	%_T23532632_52495.addr = alloca %struct._ZNSt7__cxx1112basic_stringIcSt11char_traitsIcESaIcEEE*, align 8
	%__length.addr = alloca i64, align 8

	call void @llvm.dbg.declare (metadata %struct._ZNSt7__cxx1112basic_stringIcSt11char_traitsIcESaIcEEE** %_T23532632_52495.addr, metadata !5727, metadata !3896), !dbg !5724
	store %struct._ZNSt7__cxx1112basic_stringIcSt11char_traitsIcESaIcEEE* %_T23532632_52495.arg, %struct._ZNSt7__cxx1112basic_stringIcSt11char_traitsIcESaIcEEE** %_T23532632_52495.addr, align 8, !tbaa !3904
	call void @llvm.dbg.declare (metadata %struct._ZNSt7__cxx1112basic_stringIcSt11char_traitsIcESaIcEEE** %_T23532632_52495.addr, metadata !5728, metadata !3896), !dbg !5724
	call void @llvm.dbg.declare (metadata i64* %__length.addr, metadata !5729, metadata !3896), !dbg !5724
	store i64 %__length.arg, i64* %__length.addr, align 8, !tbaa !4014
	call void @llvm.dbg.declare (metadata i64* %__length.addr, metadata !5730, metadata !3896), !dbg !5724
	%0 = load i64, i64* %__length.addr, align 8, !tbaa !4305, !dbg !5731
	%1 = load %struct._ZNSt7__cxx1112basic_stringIcSt11char_traitsIcESaIcEEE*, %struct._ZNSt7__cxx1112basic_stringIcSt11char_traitsIcESaIcEEE** %_T23532632_52495.addr, align 8, !tbaa !3904, !dbg !5731
	%2 = bitcast %struct._ZNSt7__cxx1112basic_stringIcSt11char_traitsIcESaIcEEE*  %1 to i8*, !dbg !5731
	%3 = getelementptr i8, i8*  %2, i64 8, !dbg !5731
	%4 = bitcast i8*  %3 to i64*, !dbg !5731
	store i64  %0, i64*  %4, align 8, !tbaa !4014, !dbg !5731
	ret void, !dbg !5731
}
define linkonce_odr i8* @_ZNKSt7__cxx1112basic_stringIcSt11char_traitsIcESaIcEE7_M_dataEv(%struct._ZNSt7__cxx1112basic_stringIcSt11char_traitsIcESaIcEEE* %_T23532632_52497.arg) #0 inlinehint !dbg !5735 {
L.entry:
	%_T23532632_52497.addr = alloca %struct._ZNSt7__cxx1112basic_stringIcSt11char_traitsIcESaIcEEE*, align 8

	call void @llvm.dbg.declare (metadata %struct._ZNSt7__cxx1112basic_stringIcSt11char_traitsIcESaIcEEE** %_T23532632_52497.addr, metadata !5739, metadata !3896), !dbg !5736
	store %struct._ZNSt7__cxx1112basic_stringIcSt11char_traitsIcESaIcEEE* %_T23532632_52497.arg, %struct._ZNSt7__cxx1112basic_stringIcSt11char_traitsIcESaIcEEE** %_T23532632_52497.addr, align 8, !tbaa !3904
	call void @llvm.dbg.declare (metadata %struct._ZNSt7__cxx1112basic_stringIcSt11char_traitsIcESaIcEEE** %_T23532632_52497.addr, metadata !5740, metadata !3896), !dbg !5736
	%0 = load %struct._ZNSt7__cxx1112basic_stringIcSt11char_traitsIcESaIcEEE*, %struct._ZNSt7__cxx1112basic_stringIcSt11char_traitsIcESaIcEEE** %_T23532632_52497.addr, align 8, !tbaa !3904, !dbg !5741
	%1 = bitcast %struct._ZNSt7__cxx1112basic_stringIcSt11char_traitsIcESaIcEEE*  %0 to i8**, !dbg !5741
	%2 = load i8*, i8**  %1, align 8, !tbaa !3904, !dbg !5741
	ret i8*  %2, !dbg !5741
}
define linkonce_odr i8* @_ZNSt7__cxx1112basic_stringIcSt11char_traitsIcESaIcEE13_M_local_dataEv(%struct._ZNSt7__cxx1112basic_stringIcSt11char_traitsIcESaIcEEE* %_T23532632_52499.arg) #0 inlinehint !dbg !5743 {
L.entry:
	%_T23532632_52499.addr = alloca %struct._ZNSt7__cxx1112basic_stringIcSt11char_traitsIcESaIcEEE*, align 8

	call void @llvm.dbg.declare (metadata %struct._ZNSt7__cxx1112basic_stringIcSt11char_traitsIcESaIcEEE** %_T23532632_52499.addr, metadata !5759, metadata !3896), !dbg !5744
	store %struct._ZNSt7__cxx1112basic_stringIcSt11char_traitsIcESaIcEEE* %_T23532632_52499.arg, %struct._ZNSt7__cxx1112basic_stringIcSt11char_traitsIcESaIcEEE** %_T23532632_52499.addr, align 8, !tbaa !3904
	call void @llvm.dbg.declare (metadata %struct._ZNSt7__cxx1112basic_stringIcSt11char_traitsIcESaIcEEE** %_T23532632_52499.addr, metadata !5760, metadata !3896), !dbg !5744
	%0 = load %struct._ZNSt7__cxx1112basic_stringIcSt11char_traitsIcESaIcEEE*, %struct._ZNSt7__cxx1112basic_stringIcSt11char_traitsIcESaIcEEE** %_T23532632_52499.addr, align 8, !tbaa !3904, !dbg !5761
	%1 = bitcast %struct._ZNSt7__cxx1112basic_stringIcSt11char_traitsIcESaIcEEE*  %0 to i8*, !dbg !5761
	%2 = getelementptr i8, i8*  %1, i64 16, !dbg !5761
	ret i8*  %2, !dbg !5761
}
define linkonce_odr i8* @_ZNKSt7__cxx1112basic_stringIcSt11char_traitsIcESaIcEE13_M_local_dataEv(%struct._ZNSt7__cxx1112basic_stringIcSt11char_traitsIcESaIcEEE* %_T23532632_52501.arg) #0 inlinehint !dbg !5764 {
L.entry:
	%_T23532632_52501.addr = alloca %struct._ZNSt7__cxx1112basic_stringIcSt11char_traitsIcESaIcEEE*, align 8

	call void @llvm.dbg.declare (metadata %struct._ZNSt7__cxx1112basic_stringIcSt11char_traitsIcESaIcEEE** %_T23532632_52501.addr, metadata !5780, metadata !3896), !dbg !5765
	store %struct._ZNSt7__cxx1112basic_stringIcSt11char_traitsIcESaIcEEE* %_T23532632_52501.arg, %struct._ZNSt7__cxx1112basic_stringIcSt11char_traitsIcESaIcEEE** %_T23532632_52501.addr, align 8, !tbaa !3904
	call void @llvm.dbg.declare (metadata %struct._ZNSt7__cxx1112basic_stringIcSt11char_traitsIcESaIcEEE** %_T23532632_52501.addr, metadata !5781, metadata !3896), !dbg !5765
	%0 = load %struct._ZNSt7__cxx1112basic_stringIcSt11char_traitsIcESaIcEEE*, %struct._ZNSt7__cxx1112basic_stringIcSt11char_traitsIcESaIcEEE** %_T23532632_52501.addr, align 8, !tbaa !3904, !dbg !5782
	%1 = bitcast %struct._ZNSt7__cxx1112basic_stringIcSt11char_traitsIcESaIcEEE*  %0 to i8*, !dbg !5782
	%2 = getelementptr i8, i8*  %1, i64 16, !dbg !5782
	ret i8*  %2, !dbg !5782
}
define linkonce_odr void @_ZNSt7__cxx1112basic_stringIcSt11char_traitsIcESaIcEE11_M_capacityEm(%struct._ZNSt7__cxx1112basic_stringIcSt11char_traitsIcESaIcEEE* %_T23532632_52503.arg, i64 %__capacity.arg) #0 inlinehint !dbg !5785 {
L.entry:
	%_T23532632_52503.addr = alloca %struct._ZNSt7__cxx1112basic_stringIcSt11char_traitsIcESaIcEEE*, align 8
	%__capacity.addr = alloca i64, align 8

	call void @llvm.dbg.declare (metadata %struct._ZNSt7__cxx1112basic_stringIcSt11char_traitsIcESaIcEEE** %_T23532632_52503.addr, metadata !5789, metadata !3896), !dbg !5786
	store %struct._ZNSt7__cxx1112basic_stringIcSt11char_traitsIcESaIcEEE* %_T23532632_52503.arg, %struct._ZNSt7__cxx1112basic_stringIcSt11char_traitsIcESaIcEEE** %_T23532632_52503.addr, align 8, !tbaa !3904
	call void @llvm.dbg.declare (metadata %struct._ZNSt7__cxx1112basic_stringIcSt11char_traitsIcESaIcEEE** %_T23532632_52503.addr, metadata !5790, metadata !3896), !dbg !5786
	call void @llvm.dbg.declare (metadata i64* %__capacity.addr, metadata !5791, metadata !3896), !dbg !5786
	store i64 %__capacity.arg, i64* %__capacity.addr, align 8, !tbaa !4014
	call void @llvm.dbg.declare (metadata i64* %__capacity.addr, metadata !5792, metadata !3896), !dbg !5786
	%0 = load i64, i64* %__capacity.addr, align 8, !tbaa !4305, !dbg !5793
	%1 = load %struct._ZNSt7__cxx1112basic_stringIcSt11char_traitsIcESaIcEEE*, %struct._ZNSt7__cxx1112basic_stringIcSt11char_traitsIcESaIcEEE** %_T23532632_52503.addr, align 8, !tbaa !3904, !dbg !5793
	%2 = bitcast %struct._ZNSt7__cxx1112basic_stringIcSt11char_traitsIcESaIcEEE*  %1 to i8*, !dbg !5793
	%3 = getelementptr i8, i8*  %2, i64 16, !dbg !5793
	%4 = bitcast i8*  %3 to i64*, !dbg !5793
	store i64  %0, i64*  %4, align 8, !tbaa !4014, !dbg !5793
	ret void, !dbg !5793
}
define linkonce_odr void @_ZNSt7__cxx1112basic_stringIcSt11char_traitsIcESaIcEE13_M_set_lengthEm(%struct._ZNSt7__cxx1112basic_stringIcSt11char_traitsIcESaIcEEE* %_T23532632_52505.arg, i64 %__n.arg) #0 inlinehint !dbg !5795 {
L.entry:
	%_T23532632_52505.addr = alloca %struct._ZNSt7__cxx1112basic_stringIcSt11char_traitsIcESaIcEEE*, align 8
	%__n.addr = alloca i64, align 8
	%..inline.addr = alloca i8*, align 8

	call void @llvm.dbg.declare (metadata %struct._ZNSt7__cxx1112basic_stringIcSt11char_traitsIcESaIcEEE** %_T23532632_52505.addr, metadata !5811, metadata !3896), !dbg !5796
	store %struct._ZNSt7__cxx1112basic_stringIcSt11char_traitsIcESaIcEEE* %_T23532632_52505.arg, %struct._ZNSt7__cxx1112basic_stringIcSt11char_traitsIcESaIcEEE** %_T23532632_52505.addr, align 8, !tbaa !3904
	call void @llvm.dbg.declare (metadata %struct._ZNSt7__cxx1112basic_stringIcSt11char_traitsIcESaIcEEE** %_T23532632_52505.addr, metadata !5812, metadata !3896), !dbg !5796
	call void @llvm.dbg.declare (metadata i64* %__n.addr, metadata !5813, metadata !3896), !dbg !5796
	store i64 %__n.arg, i64* %__n.addr, align 8, !tbaa !4014
	call void @llvm.dbg.declare (metadata i64* %__n.addr, metadata !5814, metadata !3896), !dbg !5796
	%0 = load i64, i64* %__n.addr, align 8, !tbaa !4305, !dbg !5815
	%1 = load %struct._ZNSt7__cxx1112basic_stringIcSt11char_traitsIcESaIcEEE*, %struct._ZNSt7__cxx1112basic_stringIcSt11char_traitsIcESaIcEEE** %_T23532632_52505.addr, align 8, !tbaa !3904, !dbg !5815
	%2 = bitcast %struct._ZNSt7__cxx1112basic_stringIcSt11char_traitsIcESaIcEEE*  %1 to i8*, !dbg !5815
	%3 = getelementptr i8, i8*  %2, i64 8, !dbg !5815
	%4 = bitcast i8*  %3 to i64*, !dbg !5815
	store i64  %0, i64*  %4, align 8, !tbaa !4014, !dbg !5815
	%5 = bitcast %struct._ZNSt7__cxx1112basic_stringIcSt11char_traitsIcESaIcEEE*  %1 to i8**, !dbg !5816
	%6 = load i8*, i8**  %5, align 8, !tbaa !3904, !dbg !5816
	%7 = getelementptr i8, i8*  %6, i64  %0, !dbg !5816
	store i8 0, i8*  %7, align 1, !tbaa !4014, !dbg !5817
	ret void, !dbg !5818
}
define linkonce_odr signext i8 @_ZNKSt7__cxx1112basic_stringIcSt11char_traitsIcESaIcEE11_M_is_localEv(%struct._ZNSt7__cxx1112basic_stringIcSt11char_traitsIcESaIcEEE* %_T23532632_52506.arg) #0 inlinehint !dbg !5822 {
L.entry:
	%_T23532632_52506.addr = alloca %struct._ZNSt7__cxx1112basic_stringIcSt11char_traitsIcESaIcEEE*, align 8

	call void @llvm.dbg.declare (metadata %struct._ZNSt7__cxx1112basic_stringIcSt11char_traitsIcESaIcEEE** %_T23532632_52506.addr, metadata !5846, metadata !3896), !dbg !5823
	store %struct._ZNSt7__cxx1112basic_stringIcSt11char_traitsIcESaIcEEE* %_T23532632_52506.arg, %struct._ZNSt7__cxx1112basic_stringIcSt11char_traitsIcESaIcEEE** %_T23532632_52506.addr, align 8, !tbaa !3904
	call void @llvm.dbg.declare (metadata %struct._ZNSt7__cxx1112basic_stringIcSt11char_traitsIcESaIcEEE** %_T23532632_52506.addr, metadata !5847, metadata !3896), !dbg !5823
	%0 = load %struct._ZNSt7__cxx1112basic_stringIcSt11char_traitsIcESaIcEEE*, %struct._ZNSt7__cxx1112basic_stringIcSt11char_traitsIcESaIcEEE** %_T23532632_52506.addr, align 8, !tbaa !3904, !dbg !5848
	%1 = bitcast %struct._ZNSt7__cxx1112basic_stringIcSt11char_traitsIcESaIcEEE*  %0 to i8**, !dbg !5848
	%2 = load i8*, i8**  %1, align 8, !tbaa !3904, !dbg !5848
	%3 = bitcast %struct._ZNSt7__cxx1112basic_stringIcSt11char_traitsIcESaIcEEE*  %0 to i8*, !dbg !5848
	%4 = getelementptr i8, i8*  %3, i64 16, !dbg !5848
	%5 = icmp eq i8*  %2,  %4, !dbg !5848
	%6 = zext i1  %5 to i32, !dbg !5848
	%7 = trunc i32  %6 to i8, !dbg !5848
	ret i8  %7, !dbg !5848
}
define linkonce_odr void @_ZNSt7__cxx1112basic_stringIcSt11char_traitsIcESaIcEE10_M_disposeEv(%struct._ZNSt7__cxx1112basic_stringIcSt11char_traitsIcESaIcEEE* %_T23532632_52511.arg) #0 inlinehint !dbg !5853 {
L.entry:
	%_T23532632_52511.addr = alloca %struct._ZNSt7__cxx1112basic_stringIcSt11char_traitsIcESaIcEEE*, align 8
	%..inline.addr = alloca i8*, align 8

	call void @llvm.dbg.declare (metadata %struct._ZNSt7__cxx1112basic_stringIcSt11char_traitsIcESaIcEEE** %_T23532632_52511.addr, metadata !5901, metadata !3896), !dbg !5854
	store %struct._ZNSt7__cxx1112basic_stringIcSt11char_traitsIcESaIcEEE* %_T23532632_52511.arg, %struct._ZNSt7__cxx1112basic_stringIcSt11char_traitsIcESaIcEEE** %_T23532632_52511.addr, align 8, !tbaa !3904
	call void @llvm.dbg.declare (metadata %struct._ZNSt7__cxx1112basic_stringIcSt11char_traitsIcESaIcEEE** %_T23532632_52511.addr, metadata !5902, metadata !3896), !dbg !5854
	%0 = load %struct._ZNSt7__cxx1112basic_stringIcSt11char_traitsIcESaIcEEE*, %struct._ZNSt7__cxx1112basic_stringIcSt11char_traitsIcESaIcEEE** %_T23532632_52511.addr, align 8, !tbaa !3904, !dbg !5903
	%1 = bitcast %struct._ZNSt7__cxx1112basic_stringIcSt11char_traitsIcESaIcEEE*  %0 to i8**, !dbg !5903
	%2 = load i8*, i8**  %1, align 8, !tbaa !3904, !dbg !5903
	%3 = bitcast %struct._ZNSt7__cxx1112basic_stringIcSt11char_traitsIcESaIcEEE*  %0 to i8*, !dbg !5903
	%4 = getelementptr i8, i8*  %3, i64 16, !dbg !5903
	%5 = icmp eq i8*  %2,  %4, !dbg !5903
	br i1  %5, label %L.B0011, label %L.B1150, !dbg !5903
L.B1150:
	%6 = bitcast %struct._ZNSt7__cxx1112basic_stringIcSt11char_traitsIcESaIcEEE*  %0 to i8**, !dbg !5904
	%7 = load i8*, i8**  %6, align 8, !tbaa !3904, !dbg !5904
	call void  @_ZdlPv (i8*  %7) nounwind, !dbg !5904
	br label %L.B0011
L.B0011:
	ret void, !dbg !5905
}
define linkonce_odr void @_ZNSt7__cxx1112basic_stringIcSt11char_traitsIcESaIcEE10_M_destroyEm(%struct._ZNSt7__cxx1112basic_stringIcSt11char_traitsIcESaIcEEE* %_T23532632_52513.arg, i64 %__size.arg) #0 inlinehint !dbg !5907 {
L.entry:
	%_T23532632_52513.addr = alloca %struct._ZNSt7__cxx1112basic_stringIcSt11char_traitsIcESaIcEEE*, align 8
	%__size.addr = alloca i64, align 8
	%..inline.addr = alloca i8*, align 8

	call void @llvm.dbg.declare (metadata %struct._ZNSt7__cxx1112basic_stringIcSt11char_traitsIcESaIcEEE** %_T23532632_52513.addr, metadata !5927, metadata !3896), !dbg !5908
	store %struct._ZNSt7__cxx1112basic_stringIcSt11char_traitsIcESaIcEEE* %_T23532632_52513.arg, %struct._ZNSt7__cxx1112basic_stringIcSt11char_traitsIcESaIcEEE** %_T23532632_52513.addr, align 8, !tbaa !3904
	call void @llvm.dbg.declare (metadata %struct._ZNSt7__cxx1112basic_stringIcSt11char_traitsIcESaIcEEE** %_T23532632_52513.addr, metadata !5928, metadata !3896), !dbg !5908
	call void @llvm.dbg.declare (metadata i64* %__size.addr, metadata !5929, metadata !3896), !dbg !5908
	store i64 %__size.arg, i64* %__size.addr, align 8, !tbaa !4014
	call void @llvm.dbg.declare (metadata i64* %__size.addr, metadata !5930, metadata !3896), !dbg !5908
	%0 = load %struct._ZNSt7__cxx1112basic_stringIcSt11char_traitsIcESaIcEEE*, %struct._ZNSt7__cxx1112basic_stringIcSt11char_traitsIcESaIcEEE** %_T23532632_52513.addr, align 8, !tbaa !3904, !dbg !5931
	%1 = bitcast %struct._ZNSt7__cxx1112basic_stringIcSt11char_traitsIcESaIcEEE*  %0 to i8**, !dbg !5931
	%2 = load i8*, i8**  %1, align 8, !tbaa !3904, !dbg !5931
	call void  @_ZdlPv (i8*  %2) nounwind, !dbg !5931
	ret void, !dbg !5932
}
define linkonce_odr %struct._ZSaIcE* @_ZNSt7__cxx1112basic_stringIcSt11char_traitsIcESaIcEE16_M_get_allocatorEv(%struct._ZNSt7__cxx1112basic_stringIcSt11char_traitsIcESaIcEEE* %_T23532632_52515.arg) #0 inlinehint !dbg !5937 {
L.entry:
	%_T23532632_52515.addr = alloca %struct._ZNSt7__cxx1112basic_stringIcSt11char_traitsIcESaIcEEE*, align 8

	call void @llvm.dbg.declare (metadata %struct._ZNSt7__cxx1112basic_stringIcSt11char_traitsIcESaIcEEE** %_T23532632_52515.addr, metadata !5941, metadata !3896), !dbg !5938
	store %struct._ZNSt7__cxx1112basic_stringIcSt11char_traitsIcESaIcEEE* %_T23532632_52515.arg, %struct._ZNSt7__cxx1112basic_stringIcSt11char_traitsIcESaIcEEE** %_T23532632_52515.addr, align 8, !tbaa !3904
	call void @llvm.dbg.declare (metadata %struct._ZNSt7__cxx1112basic_stringIcSt11char_traitsIcESaIcEEE** %_T23532632_52515.addr, metadata !5942, metadata !3896), !dbg !5938
	%0 = load %struct._ZNSt7__cxx1112basic_stringIcSt11char_traitsIcESaIcEEE*, %struct._ZNSt7__cxx1112basic_stringIcSt11char_traitsIcESaIcEEE** %_T23532632_52515.addr, align 8, !tbaa !3904, !dbg !5943
	%1 = bitcast %struct._ZNSt7__cxx1112basic_stringIcSt11char_traitsIcESaIcEEE*  %0 to %struct._ZSaIcE*, !dbg !5943
	ret %struct._ZSaIcE*  %1, !dbg !5943
}
define linkonce_odr void @_ZNSt7__cxx1112basic_stringIcSt11char_traitsIcESaIcEE7_S_copyEPcPKcm(i8* %__d.arg, i8* %__s.arg, i64 %__n.arg) #0 inlinehint !dbg !5947 {
L.entry:
	%__d.addr = alloca i8*, align 8
	%__s.addr = alloca i8*, align 8
	%__n.addr = alloca i64, align 8
	%..inline.addr = alloca i8*, align 8
	%..inline.addr.1 = alloca i8*, align 8
	%..inline.addr.2 = alloca i64, align 8
	%..inline.addr.3 = alloca i8*, align 8

	call void @llvm.dbg.declare (metadata i8** %__d.addr, metadata !5959, metadata !3896), !dbg !5948
	store i8* %__d.arg, i8** %__d.addr, align 8, !tbaa !3904
	call void @llvm.dbg.declare (metadata i8** %__d.addr, metadata !5960, metadata !3896), !dbg !5948
	call void @llvm.dbg.declare (metadata i8** %__s.addr, metadata !5961, metadata !3896), !dbg !5948
	store i8* %__s.arg, i8** %__s.addr, align 8, !tbaa !3904
	call void @llvm.dbg.declare (metadata i8** %__s.addr, metadata !5962, metadata !3896), !dbg !5948
	call void @llvm.dbg.declare (metadata i64* %__n.addr, metadata !5963, metadata !3896), !dbg !5948
	store i64 %__n.arg, i64* %__n.addr, align 8, !tbaa !4014
	call void @llvm.dbg.declare (metadata i64* %__n.addr, metadata !5964, metadata !3896), !dbg !5948
	%0 = load i64, i64* %__n.addr, align 8, !tbaa !4305, !dbg !5965
	%1 = icmp ne i64  %0, 1, !dbg !5965
	br i1  %1, label %L.B0012, label %L.B1161, !dbg !5965
L.B1161:
	%2 = load i8*, i8** %__s.addr, align 8, !tbaa !3904, !dbg !5966
	%3 = load i8, i8*  %2, align 1, !tbaa !4014, !dbg !5966
	%4 = load i8*, i8** %__d.addr, align 8, !tbaa !3904, !dbg !5966
	store i8  %3, i8*  %4, align 1, !tbaa !4014, !dbg !5966
	br label %L.B0013, !dbg !5966
L.B0012:
	%5 = load i8*, i8** %__d.addr, align 8, !tbaa !3904, !dbg !5967
	store i8*  %5, i8** %..inline.addr, align 8, !tbaa !3904, !dbg !5967
	%6 = load i8*, i8** %__s.addr, align 8, !tbaa !3904, !dbg !5967
	store i8*  %6, i8** %..inline.addr.1, align 8, !tbaa !3904, !dbg !5967
	%7 = load i64, i64* %__n.addr, align 8, !tbaa !4305, !dbg !5967
	store i64  %7, i64* %..inline.addr.2, align 8, !tbaa !4305, !dbg !5967
	%8 = icmp ne i64  %7, 0, !dbg !5967
	br i1  %8, label %L..inline.68440, label %L.B1162, !dbg !5967
L.B1162:
	br label %L..inline.68445, !dbg !5968
L..inline.68440:
	%9 = load i8*, i8** %..inline.addr, align 8, !tbaa !3904, !dbg !5969
	%10 = load i8*, i8** %..inline.addr.1, align 8, !tbaa !3904, !dbg !5969
	%11 = load i64, i64* %..inline.addr.2, align 8, !tbaa !4305, !dbg !5969
	%12 = call i8*  @memcpy (i8*  %9, i8*  %10, i64  %11) nounwind, !dbg !5969
	store i8*  %12, i8** %..inline.addr.3, align 8, !tbaa !3904, !dbg !5969
	br label %L..inline.68445
L..inline.68445:
	br label %L.B0013
L.B0013:
	ret void, !dbg !5970
}
define linkonce_odr void @_ZNSt7__cxx1112basic_stringIcSt11char_traitsIcESaIcEE13_S_copy_charsEPcPKcS7_(i8* %__p.arg, i8* %__k1.arg, i8* %__k2.arg) #0 inlinehint !dbg !5974 {
L.entry:
	%__p.addr = alloca i8*, align 8
	%__k1.addr = alloca i8*, align 8
	%__k2.addr = alloca i8*, align 8
	%..inline.addr = alloca i64, align 8
	%..inline.addr.1 = alloca i8*, align 8
	%..inline.addr.2 = alloca i8*, align 8
	%..inline.addr.3 = alloca i64, align 8
	%..inline.addr.4 = alloca i8*, align 8

	call void @llvm.dbg.declare (metadata i8** %__p.addr, metadata !5990, metadata !3896), !dbg !5975
	store i8* %__p.arg, i8** %__p.addr, align 8, !tbaa !3904
	call void @llvm.dbg.declare (metadata i8** %__p.addr, metadata !5991, metadata !3896), !dbg !5975
	call void @llvm.dbg.declare (metadata i8** %__k1.addr, metadata !5992, metadata !3896), !dbg !5975
	store i8* %__k1.arg, i8** %__k1.addr, align 8, !tbaa !3904
	call void @llvm.dbg.declare (metadata i8** %__k1.addr, metadata !5993, metadata !3896), !dbg !5975
	call void @llvm.dbg.declare (metadata i8** %__k2.addr, metadata !5994, metadata !3896), !dbg !5975
	store i8* %__k2.arg, i8** %__k2.addr, align 8, !tbaa !3904
	call void @llvm.dbg.declare (metadata i8** %__k2.addr, metadata !5995, metadata !3896), !dbg !5975
	%0 = load i8*, i8** %__k2.addr, align 8, !tbaa !3904, !dbg !5996
	%1 = load i8*, i8** %__k1.addr, align 8, !tbaa !3904, !dbg !5996
	%2 = ptrtoint i8*  %1 to i64, !dbg !5996
	%3 = sub i64 0,  %2, !dbg !5996
	%4 = getelementptr i8, i8*  %0, i64  %3, !dbg !5996
	%5 = ptrtoint i8*  %4 to i64, !dbg !5996
	store i64  %5, i64* %..inline.addr, align 8, !tbaa !4305, !dbg !5996
	%6 = icmp ne i64  %5, 1, !dbg !5996
	br i1  %6, label %L..inline.68462, label %L.B1165, !dbg !5996
L.B1165:
	%7 = load i8, i8*  %1, align 1, !tbaa !4014, !dbg !5997
	%8 = load i8*, i8** %__p.addr, align 8, !tbaa !3904, !dbg !5997
	store i8  %7, i8*  %8, align 1, !tbaa !4014, !dbg !5997
	br label %L..inline.68471, !dbg !5997
L..inline.68462:
	%9 = load i8*, i8** %__p.addr, align 8, !tbaa !3904, !dbg !5998
	store i8*  %9, i8** %..inline.addr.1, align 8, !tbaa !3904, !dbg !5998
	%10 = load i8*, i8** %__k1.addr, align 8, !tbaa !3904, !dbg !5998
	store i8*  %10, i8** %..inline.addr.2, align 8, !tbaa !3904, !dbg !5998
	%11 = load i64, i64* %..inline.addr, align 8, !tbaa !4305, !dbg !5998
	store i64  %11, i64* %..inline.addr.3, align 8, !tbaa !4305, !dbg !5998
	%12 = icmp ne i64  %11, 0, !dbg !5998
	br i1  %12, label %L..inline.68478, label %L.B1166, !dbg !5998
L.B1166:
	br label %L..inline.68480, !dbg !5998
L..inline.68478:
	%13 = load i8*, i8** %..inline.addr.1, align 8, !tbaa !3904, !dbg !5998
	%14 = load i8*, i8** %..inline.addr.2, align 8, !tbaa !3904, !dbg !5998
	%15 = load i64, i64* %..inline.addr.3, align 8, !tbaa !4305, !dbg !5998
	%16 = call i8*  @memcpy (i8*  %13, i8*  %14, i64  %15) nounwind, !dbg !5998
	store i8*  %16, i8** %..inline.addr.4, align 8, !tbaa !3904, !dbg !5998
	br label %L..inline.68480
L..inline.68480:
	br label %L..inline.68471
L..inline.68471:
	ret void, !dbg !5996
}

%struct._ZSt26random_access_iterator_tag = type <{ [1 x i8]}> 

define linkonce_odr void @_ZNSt7__cxx1112basic_stringIcSt11char_traitsIcESaIcEEC1EPKcRKS3_(%struct._ZNSt7__cxx1112basic_stringIcSt11char_traitsIcESaIcEEE* %_T23532816_52519.arg, i8* %__s.arg, %struct._ZSaIcE* %__a.arg) #0 inlinehint !dbg !6006 {
L.entry:
	%_T23532816_52519.addr = alloca %struct._ZNSt7__cxx1112basic_stringIcSt11char_traitsIcESaIcEEE*, align 8
	%__s.addr = alloca i8*, align 8
	%__a.addr = alloca %struct._ZSaIcE*, align 8
	%..inline.addr = alloca i8*, align 8
	%..inline.addr.1 = alloca i64, align 8
	%.I0001.addr = alloca i8*, align 8
	%..inline.addr.2 = alloca %struct._ZNSt7__cxx1112basic_stringIcSt11char_traitsIcESaIcEEE*, align 8
	%..inline.addr.3 = alloca i8*, align 8
	%..inline.addr.4 = alloca i8*, align 8
	%....inline.__FILL_CHARARRAY.addr = alloca [1 x i8], align 1
	%....inline.__FILL_CHARARRAY.addr.1 = alloca [1 x i8], align 1
	%..inline.addr.5 = alloca %struct._ZSt26random_access_iterator_tag, align 1

	call void @llvm.dbg.declare (metadata %struct._ZNSt7__cxx1112basic_stringIcSt11char_traitsIcESaIcEEE** %_T23532816_52519.addr, metadata !6042, metadata !3896), !dbg !6007
	store %struct._ZNSt7__cxx1112basic_stringIcSt11char_traitsIcESaIcEEE* %_T23532816_52519.arg, %struct._ZNSt7__cxx1112basic_stringIcSt11char_traitsIcESaIcEEE** %_T23532816_52519.addr, align 8, !tbaa !3904
	call void @llvm.dbg.declare (metadata %struct._ZNSt7__cxx1112basic_stringIcSt11char_traitsIcESaIcEEE** %_T23532816_52519.addr, metadata !6043, metadata !3896), !dbg !6007
	call void @llvm.dbg.declare (metadata i8** %__s.addr, metadata !6044, metadata !3896), !dbg !6007
	store i8* %__s.arg, i8** %__s.addr, align 8, !tbaa !3904
	call void @llvm.dbg.declare (metadata i8** %__s.addr, metadata !6045, metadata !3896), !dbg !6007
	call void @llvm.dbg.declare (metadata %struct._ZSaIcE** %__a.addr, metadata !6046, metadata !3896), !dbg !6007
	store %struct._ZSaIcE* %__a.arg, %struct._ZSaIcE** %__a.addr, align 8, !tbaa !3904
	call void @llvm.dbg.declare (metadata %struct._ZSaIcE** %__a.addr, metadata !6047, metadata !3896), !dbg !6007
	%0 = load %struct._ZNSt7__cxx1112basic_stringIcSt11char_traitsIcESaIcEEE*, %struct._ZNSt7__cxx1112basic_stringIcSt11char_traitsIcESaIcEEE** %_T23532816_52519.addr, align 8, !tbaa !3904, !dbg !6048
	%1 = bitcast %struct._ZNSt7__cxx1112basic_stringIcSt11char_traitsIcESaIcEEE*  %0 to i8*, !dbg !6048
	%2 = getelementptr i8, i8*  %1, i64 16, !dbg !6048
	%3 = bitcast %struct._ZNSt7__cxx1112basic_stringIcSt11char_traitsIcESaIcEEE*  %0 to i8**, !dbg !6048
	store i8*  %2, i8**  %3, align 8, !tbaa !3904, !dbg !6048
	%4 = load i8*, i8** %__s.addr, align 8, !tbaa !3904, !dbg !6048
	%5 = icmp eq i8*  %4,  null, !dbg !6048
	br i1  %5, label %L.B0014, label %L.B1175, !dbg !6048
L.B1175:
	%6 = call i64  @strlen (i8*  %4) nounwind, !dbg !6049
	%7 = load i8*, i8** %__s.addr, align 8, !tbaa !3904, !dbg !6050
	%8 = getelementptr i8, i8*  %7, i64  %6, !dbg !6050
	store i8*  %8, i8** %.I0001.addr, align 8, !tbaa !3904, !dbg !6050
	br label %L.B0015, !dbg !6048
L.B0014:
	%9 = load i8*, i8** %__s.addr, align 8, !tbaa !3904, !dbg !6048
	%10 = getelementptr i8, i8*  %9, i64 18446744073709551615, !dbg !6048
	store i8*  %10, i8** %.I0001.addr, align 8, !tbaa !3904, !dbg !6048
	br label %L.B0015
L.B0015:
	%11 = load %struct._ZNSt7__cxx1112basic_stringIcSt11char_traitsIcESaIcEEE*, %struct._ZNSt7__cxx1112basic_stringIcSt11char_traitsIcESaIcEEE** %_T23532816_52519.addr, align 8, !tbaa !3904, !dbg !6051
	%12 = bitcast %struct._ZNSt7__cxx1112basic_stringIcSt11char_traitsIcESaIcEEE*  %11 to i8*, !dbg !6051
	%13 = bitcast %struct._ZNSt7__cxx1112basic_stringIcSt11char_traitsIcESaIcEEE** %..inline.addr.2 to i8**, !dbg !6051
	store i8*  %12, i8**  %13, align 8, !tbaa !3904, !dbg !6051
	%14 = load i8*, i8** %__s.addr, align 8, !tbaa !3904, !dbg !6051
	store i8*  %14, i8** %..inline.addr.3, align 8, !tbaa !3904, !dbg !6051
	%15 = load i8*, i8** %.I0001.addr, align 8, !tbaa !3904, !dbg !6051
	store i8*  %15, i8** %..inline.addr.4, align 8, !tbaa !3904, !dbg !6051
	call void @llvm.dbg.declare (metadata [1 x i8]* %....inline.__FILL_CHARARRAY.addr, metadata !6052, metadata !3896), !dbg !6009
	%16 = bitcast [1 x i8]* %....inline.__FILL_CHARARRAY.addr to i8*, !dbg !6048
	%17 = load i8, i8*  %16, align 1, !tbaa !4014, !dbg !6048
	%18 = zext i8  %17 to i32, !dbg !6048
	%19 = trunc i32  %18 to i8, !dbg !6048
	call void @llvm.dbg.declare (metadata [1 x i8]* %....inline.__FILL_CHARARRAY.addr.1, metadata !6052, metadata !3896), !dbg !6009
	%20 = bitcast [1 x i8]* %....inline.__FILL_CHARARRAY.addr.1 to i8*, !dbg !6048
	store i8  %19, i8*  %20, align 1, !tbaa !4014, !dbg !6048
	%21 = load %struct._ZNSt7__cxx1112basic_stringIcSt11char_traitsIcESaIcEEE*, %struct._ZNSt7__cxx1112basic_stringIcSt11char_traitsIcESaIcEEE** %..inline.addr.2, align 8, !tbaa !3904, !dbg !6051
	%22 = load i8*, i8** %..inline.addr.3, align 8, !tbaa !3904, !dbg !6051
	%23 = load i8*, i8** %..inline.addr.4, align 8, !tbaa !3904, !dbg !6051
	%24 = bitcast %struct._ZSt26random_access_iterator_tag* %..inline.addr.5 to i8*, !dbg !6051
	%25 = load i8, i8*  %24, align 1, !tbaa !4014, !dbg !6051
	call void  @_ZNSt7__cxx1112basic_stringIcSt11char_traitsIcESaIcEE12_M_constructIPKcEEvT_S8_St20forward_iterator_tag (%struct._ZNSt7__cxx1112basic_stringIcSt11char_traitsIcESaIcEEE*  %21, i8*  %22, i8*  %23, i8  %25), !dbg !6051
	ret void, !dbg !6048
}
define linkonce_odr void @_ZNSt7__cxx1112basic_stringIcSt11char_traitsIcESaIcEEC2EPKcRKS3_(%struct._ZNSt7__cxx1112basic_stringIcSt11char_traitsIcESaIcEEE* %_T23532632_52520.arg, i8* %_T23532928_52520.arg, %struct._ZSaIcE* %_T23533224_52520.arg) #0 inlinehint !dbg !6054 {
L.entry:
	%_T23532632_52520.addr = alloca %struct._ZNSt7__cxx1112basic_stringIcSt11char_traitsIcESaIcEEE*, align 8
	%_T23532928_52520.addr = alloca i8*, align 8
	%_T23533224_52520.addr = alloca %struct._ZSaIcE*, align 8
	%..inline.addr = alloca %struct._ZNSt7__cxx1112basic_stringIcSt11char_traitsIcESaIcEEE*, align 8
	%..inline.addr.1 = alloca i8*, align 8
	%..inline.addr.2 = alloca i8*, align 8
	%..inline.addr.3 = alloca i64, align 8
	%..inline.addr.4 = alloca i8*, align 8
	%..inline.addr.5 = alloca %struct._ZNSt7__cxx1112basic_stringIcSt11char_traitsIcESaIcEEE*, align 8
	%..inline.addr.6 = alloca i8*, align 8
	%..inline.addr.7 = alloca i8*, align 8
	%....inline.__FILL_CHARARRAY.addr = alloca [1 x i8], align 1
	%....inline.__FILL_CHARARRAY.addr.1 = alloca [1 x i8], align 1
	%..inline.addr.8 = alloca %struct._ZSt26random_access_iterator_tag, align 1

	store %struct._ZNSt7__cxx1112basic_stringIcSt11char_traitsIcESaIcEEE* %_T23532632_52520.arg, %struct._ZNSt7__cxx1112basic_stringIcSt11char_traitsIcESaIcEEE** %_T23532632_52520.addr, align 8, !tbaa !3904
	store i8* %_T23532928_52520.arg, i8** %_T23532928_52520.addr, align 8, !tbaa !3904
	store %struct._ZSaIcE* %_T23533224_52520.arg, %struct._ZSaIcE** %_T23533224_52520.addr, align 8, !tbaa !3904
	%0 = load %struct._ZNSt7__cxx1112basic_stringIcSt11char_traitsIcESaIcEEE*, %struct._ZNSt7__cxx1112basic_stringIcSt11char_traitsIcESaIcEEE** %_T23532632_52520.addr, align 8, !tbaa !3904, !dbg !6094
	%1 = bitcast %struct._ZNSt7__cxx1112basic_stringIcSt11char_traitsIcESaIcEEE*  %0 to i8*, !dbg !6094
	%2 = bitcast %struct._ZNSt7__cxx1112basic_stringIcSt11char_traitsIcESaIcEEE** %..inline.addr to i8**, !dbg !6094
	store i8*  %1, i8**  %2, align 8, !tbaa !3904, !dbg !6094
	%3 = load i8*, i8** %_T23532928_52520.addr, align 8, !tbaa !3904, !dbg !6094
	store i8*  %3, i8** %..inline.addr.1, align 8, !tbaa !3904, !dbg !6094
	%4 = getelementptr i8, i8*  %1, i64 16, !dbg !6094
	%5 = bitcast %struct._ZNSt7__cxx1112basic_stringIcSt11char_traitsIcESaIcEEE*  %0 to i8**, !dbg !6094
	store i8*  %4, i8**  %5, align 8, !tbaa !3904, !dbg !6094
	%6 = icmp eq i8*  %3,  null, !dbg !6094
	br i1  %6, label %L..inline.68632, label %L.B1178, !dbg !6094
L.B1178:
	%7 = call i64  @strlen (i8*  %3) nounwind, !dbg !6094
	%8 = load i8*, i8** %..inline.addr.1, align 8, !tbaa !3904, !dbg !6094
	%9 = getelementptr i8, i8*  %8, i64  %7, !dbg !6094
	store i8*  %9, i8** %..inline.addr.4, align 8, !tbaa !3904, !dbg !6094
	br label %L..inline.68640, !dbg !6094
L..inline.68632:
	%10 = load i8*, i8** %..inline.addr.1, align 8, !tbaa !3904, !dbg !6094
	%11 = getelementptr i8, i8*  %10, i64 18446744073709551615, !dbg !6094
	store i8*  %11, i8** %..inline.addr.4, align 8, !tbaa !3904, !dbg !6094
	br label %L..inline.68640
L..inline.68640:
	%12 = load %struct._ZNSt7__cxx1112basic_stringIcSt11char_traitsIcESaIcEEE*, %struct._ZNSt7__cxx1112basic_stringIcSt11char_traitsIcESaIcEEE** %..inline.addr, align 8, !tbaa !3904, !dbg !6094
	%13 = bitcast %struct._ZNSt7__cxx1112basic_stringIcSt11char_traitsIcESaIcEEE*  %12 to i8*, !dbg !6094
	%14 = bitcast %struct._ZNSt7__cxx1112basic_stringIcSt11char_traitsIcESaIcEEE** %..inline.addr.5 to i8**, !dbg !6094
	store i8*  %13, i8**  %14, align 8, !tbaa !3904, !dbg !6094
	%15 = load i8*, i8** %..inline.addr.1, align 8, !tbaa !3904, !dbg !6094
	store i8*  %15, i8** %..inline.addr.6, align 8, !tbaa !3904, !dbg !6094
	%16 = load i8*, i8** %..inline.addr.4, align 8, !tbaa !3904, !dbg !6094
	store i8*  %16, i8** %..inline.addr.7, align 8, !tbaa !3904, !dbg !6094
	call void @llvm.dbg.declare (metadata [1 x i8]* %....inline.__FILL_CHARARRAY.addr, metadata !6095, metadata !3896), !dbg !6057
	%17 = bitcast [1 x i8]* %....inline.__FILL_CHARARRAY.addr to i8*, !dbg !6094
	%18 = load i8, i8*  %17, align 1, !tbaa !4014, !dbg !6094
	%19 = zext i8  %18 to i32, !dbg !6094
	%20 = trunc i32  %19 to i8, !dbg !6094
	call void @llvm.dbg.declare (metadata [1 x i8]* %....inline.__FILL_CHARARRAY.addr.1, metadata !6095, metadata !3896), !dbg !6057
	%21 = bitcast [1 x i8]* %....inline.__FILL_CHARARRAY.addr.1 to i8*, !dbg !6094
	store i8  %20, i8*  %21, align 1, !tbaa !4014, !dbg !6094
	%22 = load %struct._ZNSt7__cxx1112basic_stringIcSt11char_traitsIcESaIcEEE*, %struct._ZNSt7__cxx1112basic_stringIcSt11char_traitsIcESaIcEEE** %..inline.addr.5, align 8, !tbaa !3904, !dbg !6094
	%23 = load i8*, i8** %..inline.addr.6, align 8, !tbaa !3904, !dbg !6094
	%24 = load i8*, i8** %..inline.addr.7, align 8, !tbaa !3904, !dbg !6094
	%25 = bitcast %struct._ZSt26random_access_iterator_tag* %..inline.addr.8 to i8*, !dbg !6094
	%26 = load i8, i8*  %25, align 1, !tbaa !4014, !dbg !6094
	call void  @_ZNSt7__cxx1112basic_stringIcSt11char_traitsIcESaIcEE12_M_constructIPKcEEvT_S8_St20forward_iterator_tag (%struct._ZNSt7__cxx1112basic_stringIcSt11char_traitsIcESaIcEEE*  %22, i8*  %23, i8*  %24, i8  %26), !dbg !6094
	ret void, !dbg !6094
}
define linkonce_odr void @_ZNSt7__cxx1112basic_stringIcSt11char_traitsIcESaIcEED1Ev(%struct._ZNSt7__cxx1112basic_stringIcSt11char_traitsIcESaIcEEE* %_T23532632_52521.arg) #0 inlinehint !dbg !6097 {
L.entry:
	%_T23532632_52521.addr = alloca %struct._ZNSt7__cxx1112basic_stringIcSt11char_traitsIcESaIcEEE*, align 8
	%..inline.addr = alloca i8*, align 8

	call void @llvm.dbg.declare (metadata %struct._ZNSt7__cxx1112basic_stringIcSt11char_traitsIcESaIcEEE** %_T23532632_52521.addr, metadata !6149, metadata !3896), !dbg !6098
	store %struct._ZNSt7__cxx1112basic_stringIcSt11char_traitsIcESaIcEEE* %_T23532632_52521.arg, %struct._ZNSt7__cxx1112basic_stringIcSt11char_traitsIcESaIcEEE** %_T23532632_52521.addr, align 8, !tbaa !3904
	call void @llvm.dbg.declare (metadata %struct._ZNSt7__cxx1112basic_stringIcSt11char_traitsIcESaIcEEE** %_T23532632_52521.addr, metadata !6150, metadata !3896), !dbg !6098
	%0 = load %struct._ZNSt7__cxx1112basic_stringIcSt11char_traitsIcESaIcEEE*, %struct._ZNSt7__cxx1112basic_stringIcSt11char_traitsIcESaIcEEE** %_T23532632_52521.addr, align 8, !tbaa !3904, !dbg !6151
	%1 = bitcast %struct._ZNSt7__cxx1112basic_stringIcSt11char_traitsIcESaIcEEE*  %0 to i8**, !dbg !6151
	%2 = load i8*, i8**  %1, align 8, !tbaa !3904, !dbg !6151
	%3 = bitcast %struct._ZNSt7__cxx1112basic_stringIcSt11char_traitsIcESaIcEEE*  %0 to i8*, !dbg !6151
	%4 = getelementptr i8, i8*  %3, i64 16, !dbg !6151
	%5 = icmp eq i8*  %2,  %4, !dbg !6151
	br i1  %5, label %L..inline.68739, label %L.B1181, !dbg !6151
L.B1181:
	%6 = bitcast %struct._ZNSt7__cxx1112basic_stringIcSt11char_traitsIcESaIcEEE*  %0 to i8**, !dbg !6152
	%7 = load i8*, i8**  %6, align 8, !tbaa !3904, !dbg !6152
	call void  @_ZdlPv (i8*  %7) nounwind, !dbg !6152
	br label %L..inline.68739
L..inline.68739:
	ret void, !dbg !6153
}
define linkonce_odr void @_ZNSt7__cxx1112basic_stringIcSt11char_traitsIcESaIcEED2Ev(%struct._ZNSt7__cxx1112basic_stringIcSt11char_traitsIcESaIcEEE* %_T23532632_52522.arg) #0 inlinehint !dbg !6155 {
L.entry:
	%_T23532632_52522.addr = alloca %struct._ZNSt7__cxx1112basic_stringIcSt11char_traitsIcESaIcEEE*, align 8
	%..inline.addr = alloca i8*, align 8

	store %struct._ZNSt7__cxx1112basic_stringIcSt11char_traitsIcESaIcEEE* %_T23532632_52522.arg, %struct._ZNSt7__cxx1112basic_stringIcSt11char_traitsIcESaIcEEE** %_T23532632_52522.addr, align 8, !tbaa !3904
	%0 = load %struct._ZNSt7__cxx1112basic_stringIcSt11char_traitsIcESaIcEEE*, %struct._ZNSt7__cxx1112basic_stringIcSt11char_traitsIcESaIcEEE** %_T23532632_52522.addr, align 8, !tbaa !3904, !dbg !6211
	%1 = bitcast %struct._ZNSt7__cxx1112basic_stringIcSt11char_traitsIcESaIcEEE*  %0 to i8**, !dbg !6211
	%2 = load i8*, i8**  %1, align 8, !tbaa !3904, !dbg !6211
	%3 = bitcast %struct._ZNSt7__cxx1112basic_stringIcSt11char_traitsIcESaIcEEE*  %0 to i8*, !dbg !6211
	%4 = getelementptr i8, i8*  %3, i64 16, !dbg !6211
	%5 = icmp eq i8*  %2,  %4, !dbg !6211
	br i1  %5, label %L..inline.68845, label %L.B1184, !dbg !6211
L.B1184:
	%6 = bitcast %struct._ZNSt7__cxx1112basic_stringIcSt11char_traitsIcESaIcEEE*  %0 to i8**, !dbg !6211
	%7 = load i8*, i8**  %6, align 8, !tbaa !3904, !dbg !6211
	call void  @_ZdlPv (i8*  %7) nounwind, !dbg !6211
	br label %L..inline.68845
L..inline.68845:
	ret void, !dbg !6211
}
define linkonce_odr void @_ZNSt7__cxx1112basic_stringIcSt11char_traitsIcESaIcEE12_M_constructIPKcEEvT_S8_(%struct._ZNSt7__cxx1112basic_stringIcSt11char_traitsIcESaIcEEE* %_T23532632_52523.arg, i8* %__beg.arg, i8* %__end.arg) #0 inlinehint !dbg !6215 {
L.entry:
	%_T23532632_52523.addr = alloca %struct._ZNSt7__cxx1112basic_stringIcSt11char_traitsIcESaIcEEE*, align 8
	%__beg.addr = alloca i8*, align 8
	%__end.addr = alloca i8*, align 8
	%..inline.addr = alloca %struct._ZNSt7__cxx1112basic_stringIcSt11char_traitsIcESaIcEEE*, align 8
	%..inline.addr.1 = alloca i8*, align 8
	%..inline.addr.2 = alloca i8*, align 8
	%.._T23534112_52523.__FILL_CHARARRAY.addr = alloca [1 x i8], align 1
	%....inline.__FILL_CHARARRAY.addr = alloca [1 x i8], align 1
	%..inline.addr.3 = alloca %struct._ZSt26random_access_iterator_tag, align 1

	call void @llvm.dbg.declare (metadata %struct._ZNSt7__cxx1112basic_stringIcSt11char_traitsIcESaIcEEE** %_T23532632_52523.addr, metadata !6223, metadata !3896), !dbg !6216
	store %struct._ZNSt7__cxx1112basic_stringIcSt11char_traitsIcESaIcEEE* %_T23532632_52523.arg, %struct._ZNSt7__cxx1112basic_stringIcSt11char_traitsIcESaIcEEE** %_T23532632_52523.addr, align 8, !tbaa !3904
	call void @llvm.dbg.declare (metadata %struct._ZNSt7__cxx1112basic_stringIcSt11char_traitsIcESaIcEEE** %_T23532632_52523.addr, metadata !6224, metadata !3896), !dbg !6216
	call void @llvm.dbg.declare (metadata i8** %__beg.addr, metadata !6225, metadata !3896), !dbg !6216
	store i8* %__beg.arg, i8** %__beg.addr, align 8, !tbaa !3904
	call void @llvm.dbg.declare (metadata i8** %__beg.addr, metadata !6226, metadata !3896), !dbg !6216
	call void @llvm.dbg.declare (metadata i8** %__end.addr, metadata !6227, metadata !3896), !dbg !6216
	store i8* %__end.arg, i8** %__end.addr, align 8, !tbaa !3904
	call void @llvm.dbg.declare (metadata i8** %__end.addr, metadata !6228, metadata !3896), !dbg !6216
	%0 = load %struct._ZNSt7__cxx1112basic_stringIcSt11char_traitsIcESaIcEEE*, %struct._ZNSt7__cxx1112basic_stringIcSt11char_traitsIcESaIcEEE** %_T23532632_52523.addr, align 8, !tbaa !3904, !dbg !6229
	%1 = bitcast %struct._ZNSt7__cxx1112basic_stringIcSt11char_traitsIcESaIcEEE*  %0 to i8*, !dbg !6229
	%2 = bitcast %struct._ZNSt7__cxx1112basic_stringIcSt11char_traitsIcESaIcEEE** %..inline.addr to i8**, !dbg !6229
	store i8*  %1, i8**  %2, align 8, !tbaa !3904, !dbg !6229
	%3 = load i8*, i8** %__beg.addr, align 8, !tbaa !3904, !dbg !6229
	store i8*  %3, i8** %..inline.addr.1, align 8, !tbaa !3904, !dbg !6229
	%4 = load i8*, i8** %__end.addr, align 8, !tbaa !3904, !dbg !6229
	store i8*  %4, i8** %..inline.addr.2, align 8, !tbaa !3904, !dbg !6229
	call void @llvm.dbg.declare (metadata [1 x i8]* %.._T23534112_52523.__FILL_CHARARRAY.addr, metadata !6231, metadata !3896), !dbg !6218
	%5 = bitcast [1 x i8]* %.._T23534112_52523.__FILL_CHARARRAY.addr to i8*, !dbg !6230
	%6 = load i8, i8*  %5, align 1, !tbaa !4014, !dbg !6230
	%7 = zext i8  %6 to i32, !dbg !6230
	%8 = trunc i32  %7 to i8, !dbg !6230
	call void @llvm.dbg.declare (metadata [1 x i8]* %....inline.__FILL_CHARARRAY.addr, metadata !6232, metadata !3896), !dbg !6218
	%9 = bitcast [1 x i8]* %....inline.__FILL_CHARARRAY.addr to i8*, !dbg !6230
	store i8  %8, i8*  %9, align 1, !tbaa !4014, !dbg !6230
	%10 = load %struct._ZNSt7__cxx1112basic_stringIcSt11char_traitsIcESaIcEEE*, %struct._ZNSt7__cxx1112basic_stringIcSt11char_traitsIcESaIcEEE** %..inline.addr, align 8, !tbaa !3904, !dbg !6233
	%11 = load i8*, i8** %..inline.addr.1, align 8, !tbaa !3904, !dbg !6233
	%12 = load i8*, i8** %..inline.addr.2, align 8, !tbaa !3904, !dbg !6233
	%13 = bitcast %struct._ZSt26random_access_iterator_tag* %..inline.addr.3 to i8*, !dbg !6233
	%14 = load i8, i8*  %13, align 1, !tbaa !4014, !dbg !6233
	call void  @_ZNSt7__cxx1112basic_stringIcSt11char_traitsIcESaIcEE12_M_constructIPKcEEvT_S8_St20forward_iterator_tag (%struct._ZNSt7__cxx1112basic_stringIcSt11char_traitsIcESaIcEEE*  %10, i8*  %11, i8*  %12, i8  %14), !dbg !6233
	ret void, !dbg !6230
}

%struct._ZSt12__false_type = type <{ [1 x i8]}> 

define linkonce_odr void @_ZNSt7__cxx1112basic_stringIcSt11char_traitsIcESaIcEE16_M_construct_auxIPKcEEvT_S8_St12__false_type(%struct._ZNSt7__cxx1112basic_stringIcSt11char_traitsIcESaIcEEE* %_T23532632_52524.arg, i8* %__beg.arg, i8* %__end.arg, i8 %_T23533520_52524.coerce) #0 inlinehint !dbg !6237 {
L.entry:
	%_T23532632_52524.addr = alloca %struct._ZNSt7__cxx1112basic_stringIcSt11char_traitsIcESaIcEEE*, align 8
	%__beg.addr = alloca i8*, align 8
	%__end.addr = alloca i8*, align 8
	%_T23533520_52524.addr = alloca %struct._ZSt12__false_type, align 1
	%_T23534408_52524.addr = alloca %struct._ZSt26random_access_iterator_tag, align 1

	call void @llvm.dbg.declare (metadata %struct._ZNSt7__cxx1112basic_stringIcSt11char_traitsIcESaIcEEE** %_T23532632_52524.addr, metadata !6241, metadata !3896), !dbg !6238
	store %struct._ZNSt7__cxx1112basic_stringIcSt11char_traitsIcESaIcEEE* %_T23532632_52524.arg, %struct._ZNSt7__cxx1112basic_stringIcSt11char_traitsIcESaIcEEE** %_T23532632_52524.addr, align 8, !tbaa !3904
	call void @llvm.dbg.declare (metadata %struct._ZNSt7__cxx1112basic_stringIcSt11char_traitsIcESaIcEEE** %_T23532632_52524.addr, metadata !6242, metadata !3896), !dbg !6238
	call void @llvm.dbg.declare (metadata i8** %__beg.addr, metadata !6243, metadata !3896), !dbg !6238
	store i8* %__beg.arg, i8** %__beg.addr, align 8, !tbaa !3904
	call void @llvm.dbg.declare (metadata i8** %__beg.addr, metadata !6244, metadata !3896), !dbg !6238
	call void @llvm.dbg.declare (metadata i8** %__end.addr, metadata !6245, metadata !3896), !dbg !6238
	store i8* %__end.arg, i8** %__end.addr, align 8, !tbaa !3904
	call void @llvm.dbg.declare (metadata i8** %__end.addr, metadata !6246, metadata !3896), !dbg !6238
	call void @llvm.dbg.declare (metadata %struct._ZSt12__false_type* %_T23533520_52524.addr, metadata !6247, metadata !3896), !dbg !6238
	%0 = bitcast %struct._ZSt12__false_type* %_T23533520_52524.addr to i8*
	store i8 %_T23533520_52524.coerce, i8*  %0, align 1, !tbaa !4014
	call void @llvm.dbg.declare (metadata %struct._ZSt12__false_type* %_T23533520_52524.addr, metadata !6248, metadata !3896), !dbg !6238
	%1 = load %struct._ZNSt7__cxx1112basic_stringIcSt11char_traitsIcESaIcEEE*, %struct._ZNSt7__cxx1112basic_stringIcSt11char_traitsIcESaIcEEE** %_T23532632_52524.addr, align 8, !tbaa !3904, !dbg !6249
	%2 = load i8*, i8** %__beg.addr, align 8, !tbaa !3904, !dbg !6249
	%3 = load i8*, i8** %__end.addr, align 8, !tbaa !3904, !dbg !6249
	%4 = bitcast %struct._ZSt26random_access_iterator_tag* %_T23534408_52524.addr to i8*, !dbg !6249
	%5 = load i8, i8*  %4, align 1, !tbaa !4014, !dbg !6249
	call void  @_ZNSt7__cxx1112basic_stringIcSt11char_traitsIcESaIcEE12_M_constructIPKcEEvT_S8_St20forward_iterator_tag (%struct._ZNSt7__cxx1112basic_stringIcSt11char_traitsIcESaIcEEE*  %1, i8*  %2, i8*  %3, i8  %5), !dbg !6249
	ret void, !dbg !6250
}

%struct._ZSt20forward_iterator_tag = type <{ [1 x i8]}> 

define linkonce_odr void @_ZNSt7__cxx1112basic_stringIcSt11char_traitsIcESaIcEE12_M_constructIPKcEEvT_S8_St20forward_iterator_tag(%struct._ZNSt7__cxx1112basic_stringIcSt11char_traitsIcESaIcEEE* %_T23532632_52525.arg, i8* %__beg.arg, i8* %__end.arg, i8 %_T23533520_52525.coerce) #0 inlinehint personality i8* bitcast (i32 (...)* @__gxx_personality_v0 to i8*) !dbg !6256 {
L.entry:
	%_T23532632_52525.addr = alloca %struct._ZNSt7__cxx1112basic_stringIcSt11char_traitsIcESaIcEEE*, align 8
	%__beg.addr = alloca i8*, align 8
	%__end.addr = alloca i8*, align 8
	%_T23533520_52525.addr = alloca %struct._ZSt20forward_iterator_tag, align 1
	%..inline.addr = alloca i8*, align 8
	%..inline.addr.1 = alloca i8, align 1
	%..inline.addr.2 = alloca i8*, align 8
	%..inline.addr.3 = alloca i8*, align 8
	%..inline.addr.4 = alloca %struct._ZSt26random_access_iterator_tag, align 1
	%..inline.addr.5 = alloca i8*, align 8
	%..inline.addr.6 = alloca i8*, align 8
	%..inline.addr.7 = alloca %struct._ZSt26random_access_iterator_tag, align 1
	%..inline.addr.8 = alloca i64, align 8
	%..inline.addr.9 = alloca i64, align 8
	%__dnew.addr = alloca i64, align 8
	%..inline.addr.190 = alloca %struct._ZNSt7__cxx1112basic_stringIcSt11char_traitsIcESaIcEEE*, align 8
	%.Q0010.addr = alloca i8*, align 8
	%..inline.addr.210 = alloca i8*, align 8
	%..inline.addr.220 = alloca %struct._ZNSt7__cxx1112basic_stringIcSt11char_traitsIcESaIcEEE*, align 8
	%..inline.addr.230 = alloca i64, align 8
	%..inline.addr.240 = alloca %struct._ZNSt7__cxx1112basic_stringIcSt11char_traitsIcESaIcEEE*, align 8
	%..inline.addr.250 = alloca i8*, align 8
	%..inline.addr.260 = alloca i8*, align 8
	%..inline.addr.270 = alloca i8*, align 8
	%..inline.addr.280 = alloca i8*, align 8
	%..inline.addr.290 = alloca i8*, align 8
	%..inline.addr.300 = alloca i64, align 8
	%..inline.addr.310 = alloca i8*, align 8
	%..inline.addr.320 = alloca i8*, align 8
	%..inline.addr.330 = alloca i8*, align 8
	%..inline.addr.340 = alloca i8*, align 8
	%..inline.addr.350 = alloca i64, align 8
	%..inline.addr.360 = alloca i8*, align 8
	%..inline.addr.370 = alloca %struct._ZNSt7__cxx1112basic_stringIcSt11char_traitsIcESaIcEEE*, align 8
	%..inline.addr.380 = alloca i64, align 8
	%..inline.addr.390 = alloca %struct._ZNSt7__cxx1112basic_stringIcSt11char_traitsIcESaIcEEE*, align 8
	%..inline.addr.400 = alloca i64, align 8
	%..inline.addr.410 = alloca i8, align 1
	%..inline.addr.420 = alloca %struct._ZNSt7__cxx1112basic_stringIcSt11char_traitsIcESaIcEEE*, align 8
	%..inline.addr.430 = alloca i8*, align 8
	%__caught_object_address.addr = alloca i8*, align 8
	%__catch_clause_number.addr = alloca i32, align 4
	%..inline.addr.460 = alloca %struct._ZNSt7__cxx1112basic_stringIcSt11char_traitsIcESaIcEEE*, align 8
	%..inline.addr.470 = alloca %struct._ZNSt7__cxx1112basic_stringIcSt11char_traitsIcESaIcEEE*, align 8
	%..inline.addr.480 = alloca %struct._ZNSt7__cxx1112basic_stringIcSt11char_traitsIcESaIcEEE*, align 8
	%..inline.addr.490 = alloca %struct._ZNSt7__cxx1112basic_stringIcSt11char_traitsIcESaIcEEE*, align 8
	%..inline.addr.500 = alloca i8*, align 8
	%..inline.addr.510 = alloca i8*, align 8
	%..inline.addr.520 = alloca i8*, align 8
	%..inline.addr.530 = alloca i8*, align 8
	%..inline.addr.540 = alloca i8*, align 8
	%..inline.addr.550 = alloca i8*, align 8
	%..inline.addr.560 = alloca i8, align 1
	%..inline.addr.570 = alloca %struct._ZNSt7__cxx1112basic_stringIcSt11char_traitsIcESaIcEEE*, align 8
	%..inline.addr.580 = alloca i64, align 8
	%..inline.addr.590 = alloca %struct._ZNSt7__cxx1112basic_stringIcSt11char_traitsIcESaIcEEE*, align 8
	%..inline.addr.600 = alloca %struct._ZNSt7__cxx1112basic_stringIcSt11char_traitsIcESaIcEEE*, align 8
	%..inline.addr.610 = alloca %struct._ZSaIcE*, align 8
	%..inline.addr.620 = alloca i8*, align 8
	%..inline.addr.630 = alloca i64, align 8
	%..inline.addr.640 = alloca i8*, align 8

	call void @llvm.dbg.declare (metadata %struct._ZNSt7__cxx1112basic_stringIcSt11char_traitsIcESaIcEEE** %_T23532632_52525.addr, metadata !6366, metadata !3896), !dbg !6257
	store %struct._ZNSt7__cxx1112basic_stringIcSt11char_traitsIcESaIcEEE* %_T23532632_52525.arg, %struct._ZNSt7__cxx1112basic_stringIcSt11char_traitsIcESaIcEEE** %_T23532632_52525.addr, align 8
	call void @llvm.dbg.declare (metadata %struct._ZNSt7__cxx1112basic_stringIcSt11char_traitsIcESaIcEEE** %_T23532632_52525.addr, metadata !6367, metadata !3896), !dbg !6257
	call void @llvm.dbg.declare (metadata i8** %__beg.addr, metadata !6368, metadata !3896), !dbg !6257
	store i8* %__beg.arg, i8** %__beg.addr, align 8
	call void @llvm.dbg.declare (metadata i8** %__beg.addr, metadata !6369, metadata !3896), !dbg !6257
	call void @llvm.dbg.declare (metadata i8** %__end.addr, metadata !6370, metadata !3896), !dbg !6257
	store i8* %__end.arg, i8** %__end.addr, align 8
	call void @llvm.dbg.declare (metadata i8** %__end.addr, metadata !6371, metadata !3896), !dbg !6257
	call void @llvm.dbg.declare (metadata %struct._ZSt20forward_iterator_tag* %_T23533520_52525.addr, metadata !6372, metadata !3896), !dbg !6257
	%0 = bitcast %struct._ZSt20forward_iterator_tag* %_T23533520_52525.addr to i8*
	store i8 %_T23533520_52525.coerce, i8*  %0, align 1
	call void @llvm.dbg.declare (metadata %struct._ZSt20forward_iterator_tag* %_T23533520_52525.addr, metadata !6373, metadata !3896), !dbg !6257
	%1 = load i8*, i8** %__beg.addr, align 8, !dbg !6374
	store i8*  %1, i8** %..inline.addr, align 8, !dbg !6374
	%2 = icmp eq i8*  %1,  null, !dbg !6374
	%3 = zext i1  %2 to i32, !dbg !6374
	%4 = shl i32  %3, 24, !dbg !6374
	%5 = ashr i32  %4, 24, !dbg !6374
	%6 = trunc i32  %5 to i8, !dbg !6374
	store i8  %6, i8* %..inline.addr.1, align 1, !dbg !6374
	%7 = sext i8  %6 to i32, !dbg !6375
	%8 = icmp eq i32  %7, 0, !dbg !6375
	br i1  %8, label %L.B0016, label %L.B1203, !dbg !6375
L.B1203:
	%9 = load i8*, i8** %__beg.addr, align 8, !dbg !6374
	%10 = load i8*, i8** %__end.addr, align 8, !dbg !6374
	%11 = icmp eq i8*  %9,  %10, !dbg !6374
	br i1  %11, label %L.B0016, label %L.B1204, !dbg !6374
L.B1204:
	%12 = bitcast [42 x i8]* @.S54300 to i8*, !dbg !6376
	call void  @_ZSt19__throw_logic_errorPKc (i8*  %12) noreturn, !dbg !6376
	br label %L.B0016
L.B0016:
	%13 = load i8*, i8** %__beg.addr, align 8, !dbg !6377
	store i8*  %13, i8** %..inline.addr.2, align 8, !dbg !6377
	%14 = load i8*, i8** %__end.addr, align 8, !dbg !6377
	store i8*  %14, i8** %..inline.addr.3, align 8, !dbg !6377
	%15 = bitcast %struct._ZSt26random_access_iterator_tag* %..inline.addr.4 to i8*, !dbg !6377
	store i8 0, i8*  %15, align 1, !dbg !6377
	store i8*  %13, i8** %..inline.addr.5, align 8, !dbg !6378
	store i8*  %14, i8** %..inline.addr.6, align 8, !dbg !6378
	%16 = zext i8 0 to i32, !dbg !6379
	%17 = trunc i32  %16 to i8, !dbg !6379
	%18 = bitcast %struct._ZSt26random_access_iterator_tag* %..inline.addr.7 to i8*, !dbg !6379
	store i8  %17, i8*  %18, align 1, !dbg !6379
	%19 = ptrtoint i8*  %13 to i64, !dbg !6378
	%20 = sub i64 0,  %19, !dbg !6378
	%21 = getelementptr i8, i8*  %14, i64  %20, !dbg !6378
	%22 = ptrtoint i8*  %21 to i64, !dbg !6378
	store i64  %22, i64* %..inline.addr.8, align 8, !dbg !6378
	store i64  %22, i64* %..inline.addr.9, align 8, !dbg !6378
	br label %L..inline.68962, !dbg !6378
L..inline.68962:
	%23 = load i64, i64* %..inline.addr.9, align 8, !dbg !6380
	call void @llvm.dbg.declare (metadata i64* %__dnew.addr, metadata !6381, metadata !3896), !dbg !6257
	store i64  %23, i64* %__dnew.addr, align 8, !dbg !6380
	%24 = icmp ule i64  %23, 15, !dbg !6382
	br i1  %24, label %L.B0017, label %L.B1205, !dbg !6382
L.B1205:
	%25 = load %struct._ZNSt7__cxx1112basic_stringIcSt11char_traitsIcESaIcEEE*, %struct._ZNSt7__cxx1112basic_stringIcSt11char_traitsIcESaIcEEE** %_T23532632_52525.addr, align 8, !dbg !6383
	%26 = bitcast %struct._ZNSt7__cxx1112basic_stringIcSt11char_traitsIcESaIcEEE*  %25 to i8*, !dbg !6383
	%27 = bitcast %struct._ZNSt7__cxx1112basic_stringIcSt11char_traitsIcESaIcEEE** %..inline.addr.190 to i8**, !dbg !6383
	store i8*  %26, i8**  %27, align 8, !dbg !6383
	%28 = call i8*  @_ZNSt7__cxx1112basic_stringIcSt11char_traitsIcESaIcEE9_M_createERmm (%struct._ZNSt7__cxx1112basic_stringIcSt11char_traitsIcESaIcEEE*  %25, i64* %__dnew.addr, i64 0), !dbg !6383
	store i8*  %28, i8** %.Q0010.addr, align 8, !dbg !6383
	%29 = load i8*, i8** %.Q0010.addr, align 8, !dbg !6383
	store i8*  %29, i8** %..inline.addr.210, align 8, !dbg !6383
	%30 = load %struct._ZNSt7__cxx1112basic_stringIcSt11char_traitsIcESaIcEEE*, %struct._ZNSt7__cxx1112basic_stringIcSt11char_traitsIcESaIcEEE** %..inline.addr.190, align 8, !dbg !6383
	%31 = bitcast %struct._ZNSt7__cxx1112basic_stringIcSt11char_traitsIcESaIcEEE*  %30 to i8**, !dbg !6383
	store i8*  %29, i8**  %31, align 8, !dbg !6383
	%32 = load %struct._ZNSt7__cxx1112basic_stringIcSt11char_traitsIcESaIcEEE*, %struct._ZNSt7__cxx1112basic_stringIcSt11char_traitsIcESaIcEEE** %_T23532632_52525.addr, align 8, !dbg !6384
	%33 = bitcast %struct._ZNSt7__cxx1112basic_stringIcSt11char_traitsIcESaIcEEE*  %32 to i8*, !dbg !6384
	%34 = bitcast %struct._ZNSt7__cxx1112basic_stringIcSt11char_traitsIcESaIcEEE** %..inline.addr.220 to i8**, !dbg !6384
	store i8*  %33, i8**  %34, align 8, !dbg !6384
	%35 = load i64, i64* %__dnew.addr, align 8, !dbg !6384
	store i64  %35, i64* %..inline.addr.230, align 8, !dbg !6384
	%36 = load %struct._ZNSt7__cxx1112basic_stringIcSt11char_traitsIcESaIcEEE*, %struct._ZNSt7__cxx1112basic_stringIcSt11char_traitsIcESaIcEEE** %..inline.addr.220, align 8, !dbg !6384
	%37 = bitcast %struct._ZNSt7__cxx1112basic_stringIcSt11char_traitsIcESaIcEEE*  %36 to i8*, !dbg !6384
	%38 = getelementptr i8, i8*  %37, i64 16, !dbg !6384
	%39 = bitcast i8*  %38 to i64*, !dbg !6384
	store i64  %35, i64*  %39, align 8, !dbg !6384
	br label %L.B0017
L.B0017:
	%40 = load %struct._ZNSt7__cxx1112basic_stringIcSt11char_traitsIcESaIcEEE*, %struct._ZNSt7__cxx1112basic_stringIcSt11char_traitsIcESaIcEEE** %_T23532632_52525.addr, align 8, !dbg !6385
	%41 = bitcast %struct._ZNSt7__cxx1112basic_stringIcSt11char_traitsIcESaIcEEE*  %40 to i8*, !dbg !6385
	%42 = bitcast %struct._ZNSt7__cxx1112basic_stringIcSt11char_traitsIcESaIcEEE** %..inline.addr.240 to i8**, !dbg !6385
	store i8*  %41, i8**  %42, align 8, !dbg !6385
	%43 = load %struct._ZNSt7__cxx1112basic_stringIcSt11char_traitsIcESaIcEEE*, %struct._ZNSt7__cxx1112basic_stringIcSt11char_traitsIcESaIcEEE** %..inline.addr.240, align 8, !dbg !6386
	%44 = bitcast %struct._ZNSt7__cxx1112basic_stringIcSt11char_traitsIcESaIcEEE*  %43 to i8**, !dbg !6386
	%45 = load i8*, i8**  %44, align 8, !dbg !6386
	store i8*  %45, i8** %..inline.addr.250, align 8, !dbg !6386
	%46 = load i8*, i8** %__beg.addr, align 8, !dbg !6385
	store i8*  %46, i8** %..inline.addr.260, align 8, !dbg !6385
	%47 = load i8*, i8** %__end.addr, align 8, !dbg !6385
	store i8*  %47, i8** %..inline.addr.270, align 8, !dbg !6385
	store i8*  %45, i8** %..inline.addr.280, align 8, !dbg !6387
	store i8*  %46, i8** %..inline.addr.290, align 8, !dbg !6387
	%48 = ptrtoint i8*  %46 to i64, !dbg !6387
	%49 = sub i64 0,  %48, !dbg !6387
	%50 = getelementptr i8, i8*  %47, i64  %49, !dbg !6387
	%51 = ptrtoint i8*  %50 to i64, !dbg !6387
	store i64  %51, i64* %..inline.addr.300, align 8, !dbg !6387
	%52 = icmp ne i64  %51, 1, !dbg !6387
	br i1  %52, label %L..inline.68991, label %L.B1206, !dbg !6387
L.B1206:
	%53 = load i8*, i8** %..inline.addr.280, align 8, !dbg !6387
	store i8*  %53, i8** %..inline.addr.310, align 8, !dbg !6387
	%54 = load i8*, i8** %..inline.addr.290, align 8, !dbg !6387
	store i8*  %54, i8** %..inline.addr.320, align 8, !dbg !6387
	%55 = load i8, i8*  %54, align 1, !dbg !6387
	store i8  %55, i8*  %53, align 1, !dbg !6387
	br label %L..inline.68998, !dbg !6387
L..inline.68991:
	%56 = load i8*, i8** %..inline.addr.280, align 8, !dbg !6387
	store i8*  %56, i8** %..inline.addr.330, align 8, !dbg !6387
	%57 = load i8*, i8** %..inline.addr.290, align 8, !dbg !6387
	store i8*  %57, i8** %..inline.addr.340, align 8, !dbg !6387
	%58 = load i64, i64* %..inline.addr.300, align 8, !dbg !6387
	store i64  %58, i64* %..inline.addr.350, align 8, !dbg !6387
	%59 = icmp ne i64  %58, 0, !dbg !6387
	br i1  %59, label %L..inline.69005, label %L.B1207, !dbg !6387
L.B1207:
	%60 = load i8*, i8** %..inline.addr.330, align 8, !dbg !6387
	store i8*  %60, i8** %..inline.addr.360, align 8, !dbg !6387
	br label %L..inline.69007, !dbg !6387
L..inline.69005:
	%61 = load i8*, i8** %..inline.addr.330, align 8, !dbg !6387
	%62 = load i8*, i8** %..inline.addr.340, align 8, !dbg !6387
	%63 = load i64, i64* %..inline.addr.350, align 8, !dbg !6387
	%64 = call i8*  @memcpy (i8*  %61, i8*  %62, i64  %63) nounwind, !dbg !6387
	store i8*  %64, i8** %..inline.addr.360, align 8, !dbg !6387
	br label %L..inline.69007
L..inline.69007:
	br label %L..inline.68998
L..inline.68998:
	br label %L_T23534944_52525
L_T23534944_52525:
	%65 = load %struct._ZNSt7__cxx1112basic_stringIcSt11char_traitsIcESaIcEEE*, %struct._ZNSt7__cxx1112basic_stringIcSt11char_traitsIcESaIcEEE** %_T23532632_52525.addr, align 8, !dbg !6388
	%66 = bitcast %struct._ZNSt7__cxx1112basic_stringIcSt11char_traitsIcESaIcEEE*  %65 to i8*, !dbg !6388
	%67 = bitcast %struct._ZNSt7__cxx1112basic_stringIcSt11char_traitsIcESaIcEEE** %..inline.addr.370 to i8**, !dbg !6388
	store i8*  %66, i8**  %67, align 8, !dbg !6388
	%68 = load i64, i64* %__dnew.addr, align 8, !dbg !6388
	store i64  %68, i64* %..inline.addr.380, align 8, !dbg !6388
	%69 = load %struct._ZNSt7__cxx1112basic_stringIcSt11char_traitsIcESaIcEEE*, %struct._ZNSt7__cxx1112basic_stringIcSt11char_traitsIcESaIcEEE** %..inline.addr.370, align 8, !dbg !6389
	%70 = bitcast %struct._ZNSt7__cxx1112basic_stringIcSt11char_traitsIcESaIcEEE*  %69 to i8*, !dbg !6389
	%71 = bitcast %struct._ZNSt7__cxx1112basic_stringIcSt11char_traitsIcESaIcEEE** %..inline.addr.390 to i8**, !dbg !6389
	store i8*  %70, i8**  %71, align 8, !dbg !6389
	store i64  %68, i64* %..inline.addr.400, align 8, !dbg !6389
	%72 = load %struct._ZNSt7__cxx1112basic_stringIcSt11char_traitsIcESaIcEEE*, %struct._ZNSt7__cxx1112basic_stringIcSt11char_traitsIcESaIcEEE** %..inline.addr.390, align 8, !dbg !6389
	%73 = bitcast %struct._ZNSt7__cxx1112basic_stringIcSt11char_traitsIcESaIcEEE*  %72 to i8*, !dbg !6389
	%74 = getelementptr i8, i8*  %73, i64 8, !dbg !6389
	%75 = bitcast i8*  %74 to i64*, !dbg !6389
	store i64  %68, i64*  %75, align 8, !dbg !6389
	store i8 0, i8* %..inline.addr.410, align 1, !dbg !6389
	%76 = bitcast %struct._ZNSt7__cxx1112basic_stringIcSt11char_traitsIcESaIcEEE** %..inline.addr.420 to i8**, !dbg !6382
	store i8*  %70, i8**  %76, align 8, !dbg !6382
	%77 = load %struct._ZNSt7__cxx1112basic_stringIcSt11char_traitsIcESaIcEEE*, %struct._ZNSt7__cxx1112basic_stringIcSt11char_traitsIcESaIcEEE** %..inline.addr.420, align 8, !dbg !6382
	%78 = bitcast %struct._ZNSt7__cxx1112basic_stringIcSt11char_traitsIcESaIcEEE*  %77 to i8**, !dbg !6382
	%79 = load i8*, i8**  %78, align 8, !dbg !6382
	%80 = getelementptr i8, i8*  %79, i64  %68, !dbg !6382
	store i8*  %80, i8** %..inline.addr.430, align 8, !dbg !6382
	store i8 0, i8*  %80, align 1, !dbg !6382
	br label %L.R0100, !dbg !6388
L_T23534704_52525:
	%81 = landingpad %astruct.dt64
	catch i8*  null 
	%82 = extractvalue %astruct.dt64  %81, 0, !dbg !6388
	store i8*  %82, i8** %__caught_object_address.addr, align 1, !dbg !6388
	%83 = extractvalue %astruct.dt64  %81, 1, !dbg !6388
	store i32  %83, i32* %__catch_clause_number.addr, align 1, !dbg !6388
	%84 = load i8*, i8** %__caught_object_address.addr, align 8, !dbg !6390
	%85 = call i8*  @__cxa_begin_catch (i8*  %84) nounwind, !dbg !6390
	%86 = load %struct._ZNSt7__cxx1112basic_stringIcSt11char_traitsIcESaIcEEE*, %struct._ZNSt7__cxx1112basic_stringIcSt11char_traitsIcESaIcEEE** %_T23532632_52525.addr, align 8, !dbg !6391
	%87 = bitcast %struct._ZNSt7__cxx1112basic_stringIcSt11char_traitsIcESaIcEEE*  %86 to i8*, !dbg !6391
	%88 = bitcast %struct._ZNSt7__cxx1112basic_stringIcSt11char_traitsIcESaIcEEE** %..inline.addr.460 to i8**, !dbg !6391
	store i8*  %87, i8**  %88, align 8, !dbg !6391
	%89 = load %struct._ZNSt7__cxx1112basic_stringIcSt11char_traitsIcESaIcEEE*, %struct._ZNSt7__cxx1112basic_stringIcSt11char_traitsIcESaIcEEE** %..inline.addr.460, align 8, !dbg !6392
	%90 = bitcast %struct._ZNSt7__cxx1112basic_stringIcSt11char_traitsIcESaIcEEE*  %89 to i8*, !dbg !6392
	%91 = bitcast %struct._ZNSt7__cxx1112basic_stringIcSt11char_traitsIcESaIcEEE** %..inline.addr.470 to i8**, !dbg !6392
	store i8*  %90, i8**  %91, align 8, !dbg !6392
	%92 = load %struct._ZNSt7__cxx1112basic_stringIcSt11char_traitsIcESaIcEEE*, %struct._ZNSt7__cxx1112basic_stringIcSt11char_traitsIcESaIcEEE** %..inline.addr.470, align 8, !dbg !6392
	%93 = bitcast %struct._ZNSt7__cxx1112basic_stringIcSt11char_traitsIcESaIcEEE*  %92 to i8*, !dbg !6392
	%94 = bitcast %struct._ZNSt7__cxx1112basic_stringIcSt11char_traitsIcESaIcEEE** %..inline.addr.480 to i8**, !dbg !6392
	store i8*  %93, i8**  %94, align 8, !dbg !6392
	%95 = bitcast %struct._ZNSt7__cxx1112basic_stringIcSt11char_traitsIcESaIcEEE** %..inline.addr.490 to i8**, !dbg !6392
	store i8*  %93, i8**  %95, align 8, !dbg !6392
	%96 = load %struct._ZNSt7__cxx1112basic_stringIcSt11char_traitsIcESaIcEEE*, %struct._ZNSt7__cxx1112basic_stringIcSt11char_traitsIcESaIcEEE** %..inline.addr.490, align 8, !dbg !6392
	%97 = bitcast %struct._ZNSt7__cxx1112basic_stringIcSt11char_traitsIcESaIcEEE*  %96 to i8*, !dbg !6392
	%98 = getelementptr i8, i8*  %97, i64 16, !dbg !6392
	store i8*  %98, i8** %..inline.addr.500, align 8, !dbg !6392
	store i8*  %98, i8** %..inline.addr.510, align 8, !dbg !6392
	store i8*  %98, i8** %..inline.addr.520, align 8, !dbg !6392
	store i8*  %98, i8** %..inline.addr.530, align 8, !dbg !6392
	store i8*  %98, i8** %..inline.addr.540, align 8, !dbg !6392
	store i8*  %98, i8** %..inline.addr.550, align 8, !dbg !6392
	br label %L..inline.69076, !dbg !6392
L..inline.69076:
	%99 = load %struct._ZNSt7__cxx1112basic_stringIcSt11char_traitsIcESaIcEEE*, %struct._ZNSt7__cxx1112basic_stringIcSt11char_traitsIcESaIcEEE** %..inline.addr.480, align 8, !dbg !6392
	%100 = bitcast %struct._ZNSt7__cxx1112basic_stringIcSt11char_traitsIcESaIcEEE*  %99 to i8**, !dbg !6392
	%101 = load i8*, i8**  %100, align 8, !dbg !6392
	%102 = load i8*, i8** %..inline.addr.550, align 8, !dbg !6392
	%103 = icmp eq i8*  %101,  %102, !dbg !6392
	%104 = zext i1  %103 to i32, !dbg !6392
	%105 = trunc i32  %104 to i8, !dbg !6392
	store i8  %105, i8* %..inline.addr.560, align 1, !dbg !6392
	br label %L..inline.69078, !dbg !6392
L..inline.69078:
	%106 = load i8, i8* %..inline.addr.560, align 1, !dbg !6392
	%107 = sext i8  %106 to i32, !dbg !6392
	%108 = icmp ne i32  %107, 0, !dbg !6392
	br i1  %108, label %L..inline.69079, label %L.B1208, !dbg !6392
L.B1208:
	%109 = load %struct._ZNSt7__cxx1112basic_stringIcSt11char_traitsIcESaIcEEE*, %struct._ZNSt7__cxx1112basic_stringIcSt11char_traitsIcESaIcEEE** %..inline.addr.460, align 8, !dbg !6388
	%110 = bitcast %struct._ZNSt7__cxx1112basic_stringIcSt11char_traitsIcESaIcEEE*  %109 to i8*, !dbg !6388
	%111 = bitcast %struct._ZNSt7__cxx1112basic_stringIcSt11char_traitsIcESaIcEEE** %..inline.addr.570 to i8**, !dbg !6388
	store i8*  %110, i8**  %111, align 8, !dbg !6388
	%112 = getelementptr i8, i8*  %110, i64 16, !dbg !6388
	%113 = bitcast i8*  %112 to i64*, !dbg !6388
	%114 = load i64, i64*  %113, align 8, !dbg !6388
	store i64  %114, i64* %..inline.addr.580, align 8, !dbg !6388
	%115 = load %struct._ZNSt7__cxx1112basic_stringIcSt11char_traitsIcESaIcEEE*, %struct._ZNSt7__cxx1112basic_stringIcSt11char_traitsIcESaIcEEE** %..inline.addr.570, align 8, !dbg !6388
	%116 = bitcast %struct._ZNSt7__cxx1112basic_stringIcSt11char_traitsIcESaIcEEE*  %115 to i8*, !dbg !6388
	%117 = bitcast %struct._ZNSt7__cxx1112basic_stringIcSt11char_traitsIcESaIcEEE** %..inline.addr.590 to i8**, !dbg !6388
	store i8*  %116, i8**  %117, align 8, !dbg !6388
	%118 = bitcast %struct._ZNSt7__cxx1112basic_stringIcSt11char_traitsIcESaIcEEE** %..inline.addr.600 to i8**, !dbg !6388
	store i8*  %116, i8**  %118, align 8, !dbg !6388
	%119 = load %struct._ZNSt7__cxx1112basic_stringIcSt11char_traitsIcESaIcEEE*, %struct._ZNSt7__cxx1112basic_stringIcSt11char_traitsIcESaIcEEE** %..inline.addr.590, align 8, !dbg !6388
	%120 = bitcast %struct._ZNSt7__cxx1112basic_stringIcSt11char_traitsIcESaIcEEE*  %119 to i8*, !dbg !6388
	%121 = bitcast %struct._ZSaIcE** %..inline.addr.610 to i8**, !dbg !6388
	store i8*  %120, i8**  %121, align 8, !dbg !6388
	%122 = load %struct._ZNSt7__cxx1112basic_stringIcSt11char_traitsIcESaIcEEE*, %struct._ZNSt7__cxx1112basic_stringIcSt11char_traitsIcESaIcEEE** %..inline.addr.600, align 8, !dbg !6388
	%123 = bitcast %struct._ZNSt7__cxx1112basic_stringIcSt11char_traitsIcESaIcEEE*  %122 to i8**, !dbg !6388
	%124 = load i8*, i8**  %123, align 8, !dbg !6388
	store i8*  %124, i8** %..inline.addr.620, align 8, !dbg !6388
	%125 = add i64  %114, 1, !dbg !6388
	store i64  %125, i64* %..inline.addr.630, align 8, !dbg !6388
	store i8*  %124, i8** %..inline.addr.640, align 8, !dbg !6388
	call void  @_ZdlPv (i8*  %124) nounwind, !dbg !6388
	br label %L..inline.69079
L..inline.69079:
	invoke void  @__cxa_rethrow () noreturn
		to label %L.B1209
		unwind label %L_T23535064_52525, !dbg !6393
L.B1209:
	br label %L_T23534944_52525, !dbg !6393
L_T23535064_52525:
	%126 = landingpad %astruct.dt64
	cleanup
	%127 = extractvalue %astruct.dt64  %126, 0, !dbg !6394
	store i8*  %127, i8** %__caught_object_address.addr, align 1, !dbg !6394
	%128 = extractvalue %astruct.dt64  %126, 1, !dbg !6394
	store i32  %128, i32* %__catch_clause_number.addr, align 1, !dbg !6394
	call void  @__cxa_end_catch () nounwind, !dbg !6394
	%129 = load i32, i32* %__catch_clause_number.addr, align 4, !dbg !6394
	%130 = load i8*, i8** %__caught_object_address.addr, align 8, !dbg !6394
	%131 = insertvalue %astruct.dt64 undef, i8*  %130, 0, !dbg !6394
	%132 = insertvalue %astruct.dt64  %131, i32  %129, 1, !dbg !6394
	resume %astruct.dt64  %132 , !dbg !6394
L.R0100:
	ret void, !dbg !6379
}
define linkonce_odr void @_ZNSt7__cxx1112basic_stringIcSt11char_traitsIcESaIcEE12_Alloc_hiderC1EPcRKS3_(%struct._ZNSt7__cxx1112basic_stringIcSt11char_traitsIcESaIcEE12_Alloc_hiderE* %_T23532632_52527.arg, i8* %__dat.arg, %struct._ZSaIcE* %__a.arg) #0 inlinehint !dbg !6399 {
L.entry:
	%_T23532632_52527.addr = alloca %struct._ZNSt7__cxx1112basic_stringIcSt11char_traitsIcESaIcEE12_Alloc_hiderE*, align 8
	%__dat.addr = alloca i8*, align 8
	%__a.addr = alloca %struct._ZSaIcE*, align 8

	call void @llvm.dbg.declare (metadata %struct._ZNSt7__cxx1112basic_stringIcSt11char_traitsIcESaIcEE12_Alloc_hiderE** %_T23532632_52527.addr, metadata !6403, metadata !3896), !dbg !6400
	store %struct._ZNSt7__cxx1112basic_stringIcSt11char_traitsIcESaIcEE12_Alloc_hiderE* %_T23532632_52527.arg, %struct._ZNSt7__cxx1112basic_stringIcSt11char_traitsIcESaIcEE12_Alloc_hiderE** %_T23532632_52527.addr, align 8, !tbaa !3904
	call void @llvm.dbg.declare (metadata %struct._ZNSt7__cxx1112basic_stringIcSt11char_traitsIcESaIcEE12_Alloc_hiderE** %_T23532632_52527.addr, metadata !6404, metadata !3896), !dbg !6400
	call void @llvm.dbg.declare (metadata i8** %__dat.addr, metadata !6405, metadata !3896), !dbg !6400
	store i8* %__dat.arg, i8** %__dat.addr, align 8, !tbaa !3904
	call void @llvm.dbg.declare (metadata i8** %__dat.addr, metadata !6406, metadata !3896), !dbg !6400
	call void @llvm.dbg.declare (metadata %struct._ZSaIcE** %__a.addr, metadata !6407, metadata !3896), !dbg !6400
	store %struct._ZSaIcE* %__a.arg, %struct._ZSaIcE** %__a.addr, align 8, !tbaa !3904
	call void @llvm.dbg.declare (metadata %struct._ZSaIcE** %__a.addr, metadata !6408, metadata !3896), !dbg !6400
	%0 = load i8*, i8** %__dat.addr, align 8, !tbaa !3904, !dbg !6409
	%1 = load %struct._ZNSt7__cxx1112basic_stringIcSt11char_traitsIcESaIcEE12_Alloc_hiderE*, %struct._ZNSt7__cxx1112basic_stringIcSt11char_traitsIcESaIcEE12_Alloc_hiderE** %_T23532632_52527.addr, align 8, !tbaa !3904, !dbg !6409
	%2 = bitcast %struct._ZNSt7__cxx1112basic_stringIcSt11char_traitsIcESaIcEE12_Alloc_hiderE*  %1 to i8**, !dbg !6409
	store i8*  %0, i8**  %2, align 8, !tbaa !3904, !dbg !6409
	ret void, !dbg !6409
}
define linkonce_odr void @_ZNSt7__cxx1112basic_stringIcSt11char_traitsIcESaIcEE12_Alloc_hiderC2EPcRKS3_(%struct._ZNSt7__cxx1112basic_stringIcSt11char_traitsIcESaIcEE12_Alloc_hiderE* %_T23532632_52529.arg, i8* %_T23532928_52529.arg, %struct._ZSaIcE* %_T23533224_52529.arg) #0 inlinehint !dbg !6411 {
L.entry:
	%_T23532632_52529.addr = alloca %struct._ZNSt7__cxx1112basic_stringIcSt11char_traitsIcESaIcEE12_Alloc_hiderE*, align 8
	%_T23532928_52529.addr = alloca i8*, align 8
	%_T23533224_52529.addr = alloca %struct._ZSaIcE*, align 8

	store %struct._ZNSt7__cxx1112basic_stringIcSt11char_traitsIcESaIcEE12_Alloc_hiderE* %_T23532632_52529.arg, %struct._ZNSt7__cxx1112basic_stringIcSt11char_traitsIcESaIcEE12_Alloc_hiderE** %_T23532632_52529.addr, align 8, !tbaa !3904
	store i8* %_T23532928_52529.arg, i8** %_T23532928_52529.addr, align 8, !tbaa !3904
	store %struct._ZSaIcE* %_T23533224_52529.arg, %struct._ZSaIcE** %_T23533224_52529.addr, align 8, !tbaa !3904
	%0 = load i8*, i8** %_T23532928_52529.addr, align 8, !tbaa !3904, !dbg !6419
	%1 = load %struct._ZNSt7__cxx1112basic_stringIcSt11char_traitsIcESaIcEE12_Alloc_hiderE*, %struct._ZNSt7__cxx1112basic_stringIcSt11char_traitsIcESaIcEE12_Alloc_hiderE** %_T23532632_52529.addr, align 8, !tbaa !3904, !dbg !6419
	%2 = bitcast %struct._ZNSt7__cxx1112basic_stringIcSt11char_traitsIcESaIcEE12_Alloc_hiderE*  %1 to i8**, !dbg !6419
	store i8*  %0, i8**  %2, align 8, !tbaa !3904, !dbg !6419
	ret void, !dbg !6419
}

%struct._ZN9__gnu_cxx13new_allocatorIcEE = type <{ [1 x i8]}> 

define linkonce_odr void @_ZN9__gnu_cxx13new_allocatorIcE10deallocateEPcm(%struct._ZN9__gnu_cxx13new_allocatorIcEE* %_T23532632_52532.arg, i8* %__p.arg, i64 %_T23533224_52532.arg) #0 inlinehint !dbg !6426 {
L.entry:
	%_T23532632_52532.addr = alloca %struct._ZN9__gnu_cxx13new_allocatorIcEE*, align 8
	%__p.addr = alloca i8*, align 8
	%_T23533224_52532.addr = alloca i64, align 8

	call void @llvm.dbg.declare (metadata %struct._ZN9__gnu_cxx13new_allocatorIcEE** %_T23532632_52532.addr, metadata !6430, metadata !3896), !dbg !6427
	store %struct._ZN9__gnu_cxx13new_allocatorIcEE* %_T23532632_52532.arg, %struct._ZN9__gnu_cxx13new_allocatorIcEE** %_T23532632_52532.addr, align 8, !tbaa !3904
	call void @llvm.dbg.declare (metadata %struct._ZN9__gnu_cxx13new_allocatorIcEE** %_T23532632_52532.addr, metadata !6431, metadata !3896), !dbg !6427
	call void @llvm.dbg.declare (metadata i8** %__p.addr, metadata !6432, metadata !3896), !dbg !6427
	store i8* %__p.arg, i8** %__p.addr, align 8, !tbaa !3904
	call void @llvm.dbg.declare (metadata i8** %__p.addr, metadata !6433, metadata !3896), !dbg !6427
	call void @llvm.dbg.declare (metadata i64* %_T23533224_52532.addr, metadata !6434, metadata !3896), !dbg !6427
	store i64 %_T23533224_52532.arg, i64* %_T23533224_52532.addr, align 8, !tbaa !4014
	call void @llvm.dbg.declare (metadata i64* %_T23533224_52532.addr, metadata !6435, metadata !3896), !dbg !6427
	%0 = load i8*, i8** %__p.addr, align 8, !tbaa !3904, !dbg !6436
	call void  @_ZdlPv (i8*  %0) nounwind, !dbg !6436
	ret void, !dbg !6437
}

%struct._ZN9__gnu_cxx13new_allocatorIjEE = type <{ [1 x i8]}> 

define linkonce_odr void @_ZN9__gnu_cxx13new_allocatorIjE10deallocateEPjm(%struct._ZN9__gnu_cxx13new_allocatorIjEE* %_T23532632_52535.arg, i32* %__p.arg, i64 %_T23533224_52535.arg) #0 inlinehint !dbg !6445 {
L.entry:
	%_T23532632_52535.addr = alloca %struct._ZN9__gnu_cxx13new_allocatorIjEE*, align 8
	%__p.addr = alloca i32*, align 8
	%_T23533224_52535.addr = alloca i64, align 8

	call void @llvm.dbg.declare (metadata %struct._ZN9__gnu_cxx13new_allocatorIjEE** %_T23532632_52535.addr, metadata !6449, metadata !3896), !dbg !6446
	store %struct._ZN9__gnu_cxx13new_allocatorIjEE* %_T23532632_52535.arg, %struct._ZN9__gnu_cxx13new_allocatorIjEE** %_T23532632_52535.addr, align 8, !tbaa !3904
	call void @llvm.dbg.declare (metadata %struct._ZN9__gnu_cxx13new_allocatorIjEE** %_T23532632_52535.addr, metadata !6450, metadata !3896), !dbg !6446
	call void @llvm.dbg.declare (metadata i32** %__p.addr, metadata !6451, metadata !3896), !dbg !6446
	store i32* %__p.arg, i32** %__p.addr, align 8, !tbaa !3904
	call void @llvm.dbg.declare (metadata i32** %__p.addr, metadata !6452, metadata !3896), !dbg !6446
	call void @llvm.dbg.declare (metadata i64* %_T23533224_52535.addr, metadata !6453, metadata !3896), !dbg !6446
	store i64 %_T23533224_52535.arg, i64* %_T23533224_52535.addr, align 8, !tbaa !4014
	call void @llvm.dbg.declare (metadata i64* %_T23533224_52535.addr, metadata !6454, metadata !3896), !dbg !6446
	%0 = load i32*, i32** %__p.addr, align 8, !tbaa !3904, !dbg !6455
	%1 = bitcast i32*  %0 to i8*, !dbg !6455
	call void  @_ZdlPv (i8*  %1) nounwind, !dbg !6455
	ret void, !dbg !6456
}

%struct._ZN9__gnu_cxx13new_allocatorIdEE = type <{ [1 x i8]}> 

define linkonce_odr void @_ZN9__gnu_cxx13new_allocatorIdE10deallocateEPdm(%struct._ZN9__gnu_cxx13new_allocatorIdEE* %_T23532632_52538.arg, double* %__p.arg, i64 %_T23533224_52538.arg) #0 inlinehint !dbg !6464 {
L.entry:
	%_T23532632_52538.addr = alloca %struct._ZN9__gnu_cxx13new_allocatorIdEE*, align 8
	%__p.addr = alloca double*, align 8
	%_T23533224_52538.addr = alloca i64, align 8

	call void @llvm.dbg.declare (metadata %struct._ZN9__gnu_cxx13new_allocatorIdEE** %_T23532632_52538.addr, metadata !6468, metadata !3896), !dbg !6465
	store %struct._ZN9__gnu_cxx13new_allocatorIdEE* %_T23532632_52538.arg, %struct._ZN9__gnu_cxx13new_allocatorIdEE** %_T23532632_52538.addr, align 8, !tbaa !3904
	call void @llvm.dbg.declare (metadata %struct._ZN9__gnu_cxx13new_allocatorIdEE** %_T23532632_52538.addr, metadata !6469, metadata !3896), !dbg !6465
	call void @llvm.dbg.declare (metadata double** %__p.addr, metadata !6470, metadata !3896), !dbg !6465
	store double* %__p.arg, double** %__p.addr, align 8, !tbaa !3904
	call void @llvm.dbg.declare (metadata double** %__p.addr, metadata !6471, metadata !3896), !dbg !6465
	call void @llvm.dbg.declare (metadata i64* %_T23533224_52538.addr, metadata !6472, metadata !3896), !dbg !6465
	store i64 %_T23533224_52538.arg, i64* %_T23533224_52538.addr, align 8, !tbaa !4014
	call void @llvm.dbg.declare (metadata i64* %_T23533224_52538.addr, metadata !6473, metadata !3896), !dbg !6465
	%0 = load double*, double** %__p.addr, align 8, !tbaa !3904, !dbg !6474
	%1 = bitcast double*  %0 to i8*, !dbg !6474
	call void  @_ZdlPv (i8*  %1) nounwind, !dbg !6474
	ret void, !dbg !6475
}

%struct._ZN9__gnu_cxx13new_allocatorIN5vmesh14MeshParametersEEE = type <{ [1 x i8]}> 

define linkonce_odr void @_ZN9__gnu_cxx13new_allocatorIN5vmesh14MeshParametersEE10deallocateEPS2_m(%struct._ZN9__gnu_cxx13new_allocatorIN5vmesh14MeshParametersEEE* %_T23532632_52541.arg, %struct._ZN5vmesh14MeshParametersE* %__p.arg, i64 %_T23533224_52541.arg) #0 inlinehint !dbg !6483 {
L.entry:
	%_T23532632_52541.addr = alloca %struct._ZN9__gnu_cxx13new_allocatorIN5vmesh14MeshParametersEEE*, align 8
	%__p.addr = alloca %struct._ZN5vmesh14MeshParametersE*, align 8
	%_T23533224_52541.addr = alloca i64, align 8

	call void @llvm.dbg.declare (metadata %struct._ZN9__gnu_cxx13new_allocatorIN5vmesh14MeshParametersEEE** %_T23532632_52541.addr, metadata !6487, metadata !3896), !dbg !6484
	store %struct._ZN9__gnu_cxx13new_allocatorIN5vmesh14MeshParametersEEE* %_T23532632_52541.arg, %struct._ZN9__gnu_cxx13new_allocatorIN5vmesh14MeshParametersEEE** %_T23532632_52541.addr, align 8, !tbaa !3904
	call void @llvm.dbg.declare (metadata %struct._ZN9__gnu_cxx13new_allocatorIN5vmesh14MeshParametersEEE** %_T23532632_52541.addr, metadata !6488, metadata !3896), !dbg !6484
	call void @llvm.dbg.declare (metadata %struct._ZN5vmesh14MeshParametersE** %__p.addr, metadata !6489, metadata !3896), !dbg !6484
	store %struct._ZN5vmesh14MeshParametersE* %__p.arg, %struct._ZN5vmesh14MeshParametersE** %__p.addr, align 8, !tbaa !3904
	call void @llvm.dbg.declare (metadata %struct._ZN5vmesh14MeshParametersE** %__p.addr, metadata !6490, metadata !3896), !dbg !6484
	call void @llvm.dbg.declare (metadata i64* %_T23533224_52541.addr, metadata !6491, metadata !3896), !dbg !6484
	store i64 %_T23533224_52541.arg, i64* %_T23533224_52541.addr, align 8, !tbaa !4014
	call void @llvm.dbg.declare (metadata i64* %_T23533224_52541.addr, metadata !6492, metadata !3896), !dbg !6484
	%0 = load %struct._ZN5vmesh14MeshParametersE*, %struct._ZN5vmesh14MeshParametersE** %__p.addr, align 8, !tbaa !3904, !dbg !6493
	%1 = bitcast %struct._ZN5vmesh14MeshParametersE*  %0 to i8*, !dbg !6493
	call void  @_ZdlPv (i8*  %1) nounwind, !dbg !6493
	ret void, !dbg !6494
}
define linkonce_odr void @_ZN5vmesh14MeshParametersD1Ev(%struct._ZN5vmesh14MeshParametersE* %_T23532632_52542.arg) #0 inlinehint !dbg !6500 {
L.entry:
	%_T23532632_52542.addr = alloca %struct._ZN5vmesh14MeshParametersE*, align 8
	%..inline.addr = alloca %struct._ZSt12_Vector_baseIjSaIjEE*, align 8
	%..inline.addr.1 = alloca i32*, align 8
	%..inline.addr.2 = alloca %struct._ZSt12_Vector_baseIdSaIdEE*, align 8
	%..inline.addr.3 = alloca double*, align 8
	%..inline.addr.4 = alloca %struct._ZSt12_Vector_baseIdSaIdEE*, align 8
	%..inline.addr.5 = alloca double*, align 8
	%..inline.addr.6 = alloca %struct._ZSt12_Vector_baseIjSaIjEE*, align 8
	%..inline.addr.7 = alloca i32*, align 8
	%..inline.addr.8 = alloca i8*, align 8

	call void @llvm.dbg.declare (metadata %struct._ZN5vmesh14MeshParametersE** %_T23532632_52542.addr, metadata !6764, metadata !3896), !dbg !6501
	store %struct._ZN5vmesh14MeshParametersE* %_T23532632_52542.arg, %struct._ZN5vmesh14MeshParametersE** %_T23532632_52542.addr, align 8, !tbaa !3904
	call void @llvm.dbg.declare (metadata %struct._ZN5vmesh14MeshParametersE** %_T23532632_52542.addr, metadata !6765, metadata !3896), !dbg !6501
	%0 = load %struct._ZN5vmesh14MeshParametersE*, %struct._ZN5vmesh14MeshParametersE** %_T23532632_52542.addr, align 8, !tbaa !3904, !dbg !6766
	%1 = bitcast %struct._ZN5vmesh14MeshParametersE*  %0 to i8*, !dbg !6766
	%2 = getelementptr i8, i8*  %1, i64 312, !dbg !6766
	%3 = bitcast %struct._ZSt12_Vector_baseIjSaIjEE** %..inline.addr to i8**, !dbg !6766
	store i8*  %2, i8**  %3, align 8, !tbaa !3904, !dbg !6766
	%4 = load %struct._ZSt12_Vector_baseIjSaIjEE*, %struct._ZSt12_Vector_baseIjSaIjEE** %..inline.addr, align 8, !tbaa !3904, !dbg !6766
	%5 = bitcast %struct._ZSt12_Vector_baseIjSaIjEE*  %4 to i8**, !dbg !6766
	%6 = load i8*, i8**  %5, align 8, !tbaa !3904, !dbg !6766
	%7 = icmp eq i8*  %6,  null, !dbg !6766
	br i1  %7, label %L..inline.69264, label %L.B1222, !dbg !6766
L.B1222:
	%8 = bitcast %struct._ZSt12_Vector_baseIjSaIjEE*  %4 to i8**, !dbg !6766
	%9 = load i8*, i8**  %8, align 8, !tbaa !3904, !dbg !6766
	%10 = bitcast i32** %..inline.addr.1 to i8**, !dbg !6766
	store i8*  %9, i8**  %10, align 8, !tbaa !3904, !dbg !6766
	%11 = load i32*, i32** %..inline.addr.1, align 8, !tbaa !3904, !dbg !6766
	%12 = bitcast i32*  %11 to i8*, !dbg !6766
	call void  @_ZdlPv (i8*  %12) nounwind, !dbg !6766
	br label %L..inline.69264
L..inline.69264:
	%13 = load %struct._ZN5vmesh14MeshParametersE*, %struct._ZN5vmesh14MeshParametersE** %_T23532632_52542.addr, align 8, !tbaa !3904, !dbg !6766
	%14 = bitcast %struct._ZN5vmesh14MeshParametersE*  %13 to i8*, !dbg !6766
	%15 = getelementptr i8, i8*  %14, i64 288, !dbg !6766
	%16 = bitcast %struct._ZSt12_Vector_baseIdSaIdEE** %..inline.addr.2 to i8**, !dbg !6766
	store i8*  %15, i8**  %16, align 8, !tbaa !3904, !dbg !6766
	%17 = load %struct._ZSt12_Vector_baseIdSaIdEE*, %struct._ZSt12_Vector_baseIdSaIdEE** %..inline.addr.2, align 8, !tbaa !3904, !dbg !6766
	%18 = bitcast %struct._ZSt12_Vector_baseIdSaIdEE*  %17 to i8**, !dbg !6766
	%19 = load i8*, i8**  %18, align 8, !tbaa !3904, !dbg !6766
	%20 = icmp eq i8*  %19,  null, !dbg !6766
	br i1  %20, label %L..inline.69342, label %L.B1223, !dbg !6766
L.B1223:
	%21 = bitcast %struct._ZSt12_Vector_baseIdSaIdEE*  %17 to i8**, !dbg !6766
	%22 = load i8*, i8**  %21, align 8, !tbaa !3904, !dbg !6766
	%23 = bitcast double** %..inline.addr.3 to i8**, !dbg !6766
	store i8*  %22, i8**  %23, align 8, !tbaa !3904, !dbg !6766
	%24 = load double*, double** %..inline.addr.3, align 8, !tbaa !3904, !dbg !6766
	%25 = bitcast double*  %24 to i8*, !dbg !6766
	call void  @_ZdlPv (i8*  %25) nounwind, !dbg !6766
	br label %L..inline.69342
L..inline.69342:
	%26 = load %struct._ZN5vmesh14MeshParametersE*, %struct._ZN5vmesh14MeshParametersE** %_T23532632_52542.addr, align 8, !tbaa !3904, !dbg !6766
	%27 = bitcast %struct._ZN5vmesh14MeshParametersE*  %26 to i8*, !dbg !6766
	%28 = getelementptr i8, i8*  %27, i64 264, !dbg !6766
	%29 = bitcast %struct._ZSt12_Vector_baseIdSaIdEE** %..inline.addr.4 to i8**, !dbg !6766
	store i8*  %28, i8**  %29, align 8, !tbaa !3904, !dbg !6766
	%30 = load %struct._ZSt12_Vector_baseIdSaIdEE*, %struct._ZSt12_Vector_baseIdSaIdEE** %..inline.addr.4, align 8, !tbaa !3904, !dbg !6766
	%31 = bitcast %struct._ZSt12_Vector_baseIdSaIdEE*  %30 to i8**, !dbg !6766
	%32 = load i8*, i8**  %31, align 8, !tbaa !3904, !dbg !6766
	%33 = icmp eq i8*  %32,  null, !dbg !6766
	br i1  %33, label %L..inline.69420, label %L.B1224, !dbg !6766
L.B1224:
	%34 = bitcast %struct._ZSt12_Vector_baseIdSaIdEE*  %30 to i8**, !dbg !6766
	%35 = load i8*, i8**  %34, align 8, !tbaa !3904, !dbg !6766
	%36 = bitcast double** %..inline.addr.5 to i8**, !dbg !6766
	store i8*  %35, i8**  %36, align 8, !tbaa !3904, !dbg !6766
	%37 = load double*, double** %..inline.addr.5, align 8, !tbaa !3904, !dbg !6766
	%38 = bitcast double*  %37 to i8*, !dbg !6766
	call void  @_ZdlPv (i8*  %38) nounwind, !dbg !6766
	br label %L..inline.69420
L..inline.69420:
	%39 = load %struct._ZN5vmesh14MeshParametersE*, %struct._ZN5vmesh14MeshParametersE** %_T23532632_52542.addr, align 8, !tbaa !3904, !dbg !6766
	%40 = bitcast %struct._ZN5vmesh14MeshParametersE*  %39 to i8*, !dbg !6766
	%41 = getelementptr i8, i8*  %40, i64 240, !dbg !6766
	%42 = bitcast %struct._ZSt12_Vector_baseIjSaIjEE** %..inline.addr.6 to i8**, !dbg !6766
	store i8*  %41, i8**  %42, align 8, !tbaa !3904, !dbg !6766
	%43 = load %struct._ZSt12_Vector_baseIjSaIjEE*, %struct._ZSt12_Vector_baseIjSaIjEE** %..inline.addr.6, align 8, !tbaa !3904, !dbg !6766
	%44 = bitcast %struct._ZSt12_Vector_baseIjSaIjEE*  %43 to i8**, !dbg !6766
	%45 = load i8*, i8**  %44, align 8, !tbaa !3904, !dbg !6766
	%46 = icmp eq i8*  %45,  null, !dbg !6766
	br i1  %46, label %L..inline.69498, label %L.B1225, !dbg !6766
L.B1225:
	%47 = bitcast %struct._ZSt12_Vector_baseIjSaIjEE*  %43 to i8**, !dbg !6766
	%48 = load i8*, i8**  %47, align 8, !tbaa !3904, !dbg !6766
	%49 = bitcast i32** %..inline.addr.7 to i8**, !dbg !6766
	store i8*  %48, i8**  %49, align 8, !tbaa !3904, !dbg !6766
	%50 = load i32*, i32** %..inline.addr.7, align 8, !tbaa !3904, !dbg !6766
	%51 = bitcast i32*  %50 to i8*, !dbg !6766
	call void  @_ZdlPv (i8*  %51) nounwind, !dbg !6766
	br label %L..inline.69498
L..inline.69498:
	%52 = load %struct._ZN5vmesh14MeshParametersE*, %struct._ZN5vmesh14MeshParametersE** %_T23532632_52542.addr, align 8, !tbaa !3904, !dbg !6767
	%53 = bitcast %struct._ZN5vmesh14MeshParametersE*  %52 to i8**, !dbg !6767
	%54 = load i8*, i8**  %53, align 8, !tbaa !3904, !dbg !6767
	%55 = bitcast %struct._ZN5vmesh14MeshParametersE*  %52 to i8*, !dbg !6767
	%56 = getelementptr i8, i8*  %55, i64 16, !dbg !6767
	%57 = icmp eq i8*  %54,  %56, !dbg !6767
	br i1  %57, label %L..inline.69579, label %L.B1226, !dbg !6767
L.B1226:
	%58 = bitcast %struct._ZN5vmesh14MeshParametersE*  %52 to i8**, !dbg !6767
	%59 = load i8*, i8**  %58, align 8, !tbaa !3904, !dbg !6767
	call void  @_ZdlPv (i8*  %59) nounwind, !dbg !6767
	br label %L..inline.69579
L..inline.69579:
	ret void, !dbg !6767
}
define linkonce_odr void @_ZN5vmesh14MeshParametersD2Ev(%struct._ZN5vmesh14MeshParametersE* %_T23532632_52543.arg) #0 inlinehint !dbg !6769 {
L.entry:
	%_T23532632_52543.addr = alloca %struct._ZN5vmesh14MeshParametersE*, align 8

	store %struct._ZN5vmesh14MeshParametersE* %_T23532632_52543.arg, %struct._ZN5vmesh14MeshParametersE** %_T23532632_52543.addr, align 8, !tbaa !3904
	%0 = load %struct._ZN5vmesh14MeshParametersE*, %struct._ZN5vmesh14MeshParametersE** %_T23532632_52543.addr, align 8, !tbaa !3904, !dbg !6773
	call void  @_ZN5vmesh14MeshParametersD1Ev (%struct._ZN5vmesh14MeshParametersE*  %0) nounwind, !dbg !6773
	ret void, !dbg !6773
}

%struct._ZN3MPI8DatatypeE = type <{ i32 (...)* (...)*, %struct.ompi_datatype_t*}> 
%struct.ompi_datatype_t = type opaque

define linkonce_odr void @_ZN3MPI8DatatypeD1Ev(%struct._ZN3MPI8DatatypeE* %_T23532632_52544.arg) #0 inlinehint !dbg !6777 {
L.entry:
	%_T23532632_52544.addr = alloca %struct._ZN3MPI8DatatypeE*, align 8

	call void @llvm.dbg.declare (metadata %struct._ZN3MPI8DatatypeE** %_T23532632_52544.addr, metadata !6781, metadata !3896), !dbg !6778
	store %struct._ZN3MPI8DatatypeE* %_T23532632_52544.arg, %struct._ZN3MPI8DatatypeE** %_T23532632_52544.addr, align 8, !tbaa !3904
	call void @llvm.dbg.declare (metadata %struct._ZN3MPI8DatatypeE** %_T23532632_52544.addr, metadata !6782, metadata !3896), !dbg !6778
	%0 = bitcast [32 x i32 (...)* (...)*]* @_ZTVN3MPI8DatatypeE to i8*, !dbg !6783
	%1 = getelementptr i8, i8*  %0, i64 16, !dbg !6783
	%2 = load %struct._ZN3MPI8DatatypeE*, %struct._ZN3MPI8DatatypeE** %_T23532632_52544.addr, align 8, !tbaa !3904, !dbg !6783
	%3 = bitcast %struct._ZN3MPI8DatatypeE*  %2 to i8**, !dbg !6783
	store i8*  %1, i8**  %3, align 8, !tbaa !3904, !dbg !6783
	ret void, !dbg !6783
}
define linkonce_odr void @_ZN3MPI8DatatypeD0Ev(%struct._ZN3MPI8DatatypeE* %_T23532632_52545.arg) #0 inlinehint !dbg !6788 {
L.entry:
	%_T23532632_52545.addr = alloca %struct._ZN3MPI8DatatypeE*, align 8

	store %struct._ZN3MPI8DatatypeE* %_T23532632_52545.arg, %struct._ZN3MPI8DatatypeE** %_T23532632_52545.addr, align 8, !tbaa !3904
	%0 = bitcast [32 x i32 (...)* (...)*]* @_ZTVN3MPI8DatatypeE to i8*, !dbg !6796
	%1 = getelementptr i8, i8*  %0, i64 16, !dbg !6796
	%2 = load %struct._ZN3MPI8DatatypeE*, %struct._ZN3MPI8DatatypeE** %_T23532632_52545.addr, align 8, !tbaa !3904, !dbg !6796
	%3 = bitcast %struct._ZN3MPI8DatatypeE*  %2 to i8**, !dbg !6796
	store i8*  %1, i8**  %3, align 8, !tbaa !3904, !dbg !6796
	%4 = bitcast %struct._ZN3MPI8DatatypeE*  %2 to i8*, !dbg !6796
	call void  @_ZdlPvm (i8*  %4, i64 16) nounwind, !dbg !6796
	ret void, !dbg !6796
}
define linkonce_odr void @_ZN3MPI8DatatypeD2Ev(%struct._ZN3MPI8DatatypeE* %_T23532632_52546.arg) #0 inlinehint !dbg !6798 {
L.entry:
	%_T23532632_52546.addr = alloca %struct._ZN3MPI8DatatypeE*, align 8

	store %struct._ZN3MPI8DatatypeE* %_T23532632_52546.arg, %struct._ZN3MPI8DatatypeE** %_T23532632_52546.addr, align 8, !tbaa !3904
	%0 = bitcast [32 x i32 (...)* (...)*]* @_ZTVN3MPI8DatatypeE to i8*, !dbg !6806
	%1 = getelementptr i8, i8*  %0, i64 16, !dbg !6806
	%2 = load %struct._ZN3MPI8DatatypeE*, %struct._ZN3MPI8DatatypeE** %_T23532632_52546.addr, align 8, !tbaa !3904, !dbg !6806
	%3 = bitcast %struct._ZN3MPI8DatatypeE*  %2 to i8**, !dbg !6806
	store i8*  %1, i8**  %3, align 8, !tbaa !3904, !dbg !6806
	ret void, !dbg !6806
}
define linkonce_odr void @_ZN3MPI8DatatypeC1EP15ompi_datatype_t(%struct._ZN3MPI8DatatypeE* %_T23532632_52548.arg, %struct.ompi_datatype_t* %i.arg) #0 inlinehint !dbg !6810 {
L.entry:
	%_T23532632_52548.addr = alloca %struct._ZN3MPI8DatatypeE*, align 8
	%i.addr = alloca %struct.ompi_datatype_t*, align 8

	call void @llvm.dbg.declare (metadata %struct._ZN3MPI8DatatypeE** %_T23532632_52548.addr, metadata !6814, metadata !3896), !dbg !6811
	store %struct._ZN3MPI8DatatypeE* %_T23532632_52548.arg, %struct._ZN3MPI8DatatypeE** %_T23532632_52548.addr, align 8, !tbaa !3904
	call void @llvm.dbg.declare (metadata %struct._ZN3MPI8DatatypeE** %_T23532632_52548.addr, metadata !6815, metadata !3896), !dbg !6811
	call void @llvm.dbg.declare (metadata %struct.ompi_datatype_t** %i.addr, metadata !6816, metadata !3896), !dbg !6811
	store %struct.ompi_datatype_t* %i.arg, %struct.ompi_datatype_t** %i.addr, align 8, !tbaa !3904
	call void @llvm.dbg.declare (metadata %struct.ompi_datatype_t** %i.addr, metadata !6817, metadata !3896), !dbg !6811
	%0 = bitcast [32 x i32 (...)* (...)*]* @_ZTVN3MPI8DatatypeE to i8*, !dbg !6818
	%1 = getelementptr i8, i8*  %0, i64 16, !dbg !6818
	%2 = load %struct._ZN3MPI8DatatypeE*, %struct._ZN3MPI8DatatypeE** %_T23532632_52548.addr, align 8, !tbaa !3904, !dbg !6818
	%3 = bitcast %struct._ZN3MPI8DatatypeE*  %2 to i8**, !dbg !6818
	store i8*  %1, i8**  %3, align 8, !tbaa !3904, !dbg !6818
	%4 = load %struct.ompi_datatype_t*, %struct.ompi_datatype_t** %i.addr, align 8, !tbaa !3904, !dbg !6818
	%5 = bitcast %struct.ompi_datatype_t*  %4 to i8*, !dbg !6818
	%6 = bitcast %struct._ZN3MPI8DatatypeE*  %2 to i8*, !dbg !6818
	%7 = getelementptr i8, i8*  %6, i64 8, !dbg !6818
	%8 = bitcast i8*  %7 to i8**, !dbg !6818
	store i8*  %5, i8**  %8, align 8, !tbaa !3904, !dbg !6818
	ret void, !dbg !6818
}
define linkonce_odr void @_ZN3MPI8DatatypeC2EP15ompi_datatype_t(%struct._ZN3MPI8DatatypeE* %_T23532632_52550.arg, %struct.ompi_datatype_t* %_T23532928_52550.arg) #0 inlinehint !dbg !6820 {
L.entry:
	%_T23532632_52550.addr = alloca %struct._ZN3MPI8DatatypeE*, align 8
	%_T23532928_52550.addr = alloca %struct.ompi_datatype_t*, align 8
	%..inline.addr = alloca %struct._ZN3MPI8DatatypeE*, align 8
	%..inline.addr.1 = alloca %struct.ompi_datatype_t*, align 8

	store %struct._ZN3MPI8DatatypeE* %_T23532632_52550.arg, %struct._ZN3MPI8DatatypeE** %_T23532632_52550.addr, align 8, !tbaa !3904
	store %struct.ompi_datatype_t* %_T23532928_52550.arg, %struct.ompi_datatype_t** %_T23532928_52550.addr, align 8, !tbaa !3904
	%0 = load %struct._ZN3MPI8DatatypeE*, %struct._ZN3MPI8DatatypeE** %_T23532632_52550.addr, align 8, !tbaa !3904, !dbg !6828
	%1 = bitcast %struct._ZN3MPI8DatatypeE*  %0 to i8*, !dbg !6828
	%2 = bitcast %struct._ZN3MPI8DatatypeE** %..inline.addr to i8**, !dbg !6828
	store i8*  %1, i8**  %2, align 8, !tbaa !3904, !dbg !6828
	%3 = load %struct.ompi_datatype_t*, %struct.ompi_datatype_t** %_T23532928_52550.addr, align 8, !tbaa !3904, !dbg !6828
	%4 = bitcast %struct.ompi_datatype_t*  %3 to i8*, !dbg !6828
	%5 = bitcast %struct.ompi_datatype_t** %..inline.addr.1 to i8**, !dbg !6828
	store i8*  %4, i8**  %5, align 8, !tbaa !3904, !dbg !6828
	%6 = bitcast [32 x i32 (...)* (...)*]* @_ZTVN3MPI8DatatypeE to i8*, !dbg !6828
	%7 = getelementptr i8, i8*  %6, i64 16, !dbg !6828
	%8 = load %struct._ZN3MPI8DatatypeE*, %struct._ZN3MPI8DatatypeE** %..inline.addr, align 8, !tbaa !3904, !dbg !6828
	%9 = bitcast %struct._ZN3MPI8DatatypeE*  %8 to i8**, !dbg !6828
	store i8*  %7, i8**  %9, align 8, !tbaa !3904, !dbg !6828
	%10 = load %struct.ompi_datatype_t*, %struct.ompi_datatype_t** %..inline.addr.1, align 8, !tbaa !3904, !dbg !6828
	%11 = bitcast %struct.ompi_datatype_t*  %10 to i8*, !dbg !6828
	%12 = bitcast %struct._ZN3MPI8DatatypeE*  %8 to i8*, !dbg !6828
	%13 = getelementptr i8, i8*  %12, i64 8, !dbg !6828
	%14 = bitcast i8*  %13 to i8**, !dbg !6828
	store i8*  %11, i8**  %14, align 8, !tbaa !3904, !dbg !6828
	ret void, !dbg !6828
}
define linkonce_odr %struct._ZN3MPI8DatatypeE* @_ZN3MPI8DatatypeaSERKP15ompi_datatype_t(%struct._ZN3MPI8DatatypeE* %_T23532632_52551.arg, %struct.ompi_datatype_t** %i.arg) #0 inlinehint !dbg !6836 {
L.entry:
	%_T23532632_52551.addr = alloca %struct._ZN3MPI8DatatypeE*, align 8
	%i.addr = alloca %struct.ompi_datatype_t**, align 8

	call void @llvm.dbg.declare (metadata %struct._ZN3MPI8DatatypeE** %_T23532632_52551.addr, metadata !6840, metadata !3896), !dbg !6837
	store %struct._ZN3MPI8DatatypeE* %_T23532632_52551.arg, %struct._ZN3MPI8DatatypeE** %_T23532632_52551.addr, align 8, !tbaa !3904
	call void @llvm.dbg.declare (metadata %struct._ZN3MPI8DatatypeE** %_T23532632_52551.addr, metadata !6841, metadata !3896), !dbg !6837
	call void @llvm.dbg.declare (metadata %struct.ompi_datatype_t*** %i.addr, metadata !6842, metadata !3896), !dbg !6837
	store %struct.ompi_datatype_t** %i.arg, %struct.ompi_datatype_t*** %i.addr, align 8, !tbaa !3904
	call void @llvm.dbg.declare (metadata %struct.ompi_datatype_t*** %i.addr, metadata !6843, metadata !3896), !dbg !6837
	%0 = load %struct.ompi_datatype_t**, %struct.ompi_datatype_t*** %i.addr, align 8, !tbaa !3904, !dbg !6844
	%1 = bitcast %struct.ompi_datatype_t**  %0 to i8**, !dbg !6844
	%2 = load i8*, i8**  %1, align 8, !tbaa !3904, !dbg !6844
	%3 = load %struct._ZN3MPI8DatatypeE*, %struct._ZN3MPI8DatatypeE** %_T23532632_52551.addr, align 8, !tbaa !3904, !dbg !6844
	%4 = bitcast %struct._ZN3MPI8DatatypeE*  %3 to i8*, !dbg !6844
	%5 = getelementptr i8, i8*  %4, i64 8, !dbg !6844
	%6 = bitcast i8*  %5 to i8**, !dbg !6844
	store i8*  %2, i8**  %6, align 8, !tbaa !3904, !dbg !6844
	ret %struct._ZN3MPI8DatatypeE*  %3, !dbg !6844
}
define linkonce_odr %struct.ompi_datatype_t* @_ZNK3MPI8DatatypecvP15ompi_datatype_tEv(%struct._ZN3MPI8DatatypeE* %_T23532632_52553.arg) #0 inlinehint !dbg !6848 {
L.entry:
	%_T23532632_52553.addr = alloca %struct._ZN3MPI8DatatypeE*, align 8

	call void @llvm.dbg.declare (metadata %struct._ZN3MPI8DatatypeE** %_T23532632_52553.addr, metadata !6852, metadata !3896), !dbg !6849
	store %struct._ZN3MPI8DatatypeE* %_T23532632_52553.arg, %struct._ZN3MPI8DatatypeE** %_T23532632_52553.addr, align 8, !tbaa !3904
	call void @llvm.dbg.declare (metadata %struct._ZN3MPI8DatatypeE** %_T23532632_52553.addr, metadata !6853, metadata !3896), !dbg !6849
	%0 = load %struct._ZN3MPI8DatatypeE*, %struct._ZN3MPI8DatatypeE** %_T23532632_52553.addr, align 8, !tbaa !3904, !dbg !6854
	%1 = bitcast %struct._ZN3MPI8DatatypeE*  %0 to i8*, !dbg !6854
	%2 = getelementptr i8, i8*  %1, i64 8, !dbg !6854
	%3 = bitcast i8*  %2 to %struct.ompi_datatype_t**, !dbg !6854
	%4 = load %struct.ompi_datatype_t*, %struct.ompi_datatype_t**  %3, align 8, !tbaa !3904, !dbg !6854
	ret %struct.ompi_datatype_t*  %4, !dbg !6854
}
define linkonce_odr void @_ZNK3MPI8Datatype17Create_contiguousEi(%struct._ZN3MPI8DatatypeE* sret %_T23532632_52554.arg, %struct._ZN3MPI8DatatypeE* %_T23532928_52554.arg, i32 signext %count.arg) #0 inlinehint !dbg !6858 {
L.entry:
	%_T23532632_52554.addr = alloca %struct._ZN3MPI8DatatypeE*, align 8
	%_T23532928_52554.addr = alloca %struct._ZN3MPI8DatatypeE*, align 8
	%count.addr = alloca i32, align 4
	%newtype.addr = alloca %struct.ompi_datatype_t*, align 8
	%..inline.addr = alloca %struct._ZN3MPI8DatatypeE*, align 8
	%..inline.addr.1 = alloca %struct.ompi_datatype_t*, align 8

	store %struct._ZN3MPI8DatatypeE* %_T23532632_52554.arg, %struct._ZN3MPI8DatatypeE** %_T23532632_52554.addr, align 8, !tbaa !3904
	call void @llvm.dbg.declare (metadata %struct._ZN3MPI8DatatypeE** %_T23532928_52554.addr, metadata !6866, metadata !3896), !dbg !6859
	store %struct._ZN3MPI8DatatypeE* %_T23532928_52554.arg, %struct._ZN3MPI8DatatypeE** %_T23532928_52554.addr, align 8, !tbaa !3904
	call void @llvm.dbg.declare (metadata %struct._ZN3MPI8DatatypeE** %_T23532928_52554.addr, metadata !6867, metadata !3896), !dbg !6859
	call void @llvm.dbg.declare (metadata i32* %count.addr, metadata !6868, metadata !3896), !dbg !6859
	store i32 %count.arg, i32* %count.addr, align 4, !tbaa !4014
	call void @llvm.dbg.declare (metadata i32* %count.addr, metadata !6869, metadata !3896), !dbg !6859
	%0 = load i32, i32* %count.addr, align 4, !tbaa !4095, !dbg !6870
	%1 = load %struct._ZN3MPI8DatatypeE*, %struct._ZN3MPI8DatatypeE** %_T23532928_52554.addr, align 8, !tbaa !3904, !dbg !6870
	%2 = bitcast %struct._ZN3MPI8DatatypeE*  %1 to i8*, !dbg !6870
	%3 = getelementptr i8, i8*  %2, i64 8, !dbg !6870
	%4 = bitcast i8*  %3 to %struct.ompi_datatype_t**, !dbg !6870
	%5 = load %struct.ompi_datatype_t*, %struct.ompi_datatype_t**  %4, align 8, !tbaa !3904, !dbg !6870
	call void @llvm.dbg.declare (metadata %struct.ompi_datatype_t** %newtype.addr, metadata !6871, metadata !3896), !dbg !6859
	%6 = call i32  @MPI_Type_contiguous (i32  %0, %struct.ompi_datatype_t*  %5, %struct.ompi_datatype_t** %newtype.addr) nounwind, !dbg !6870
	%7 = load %struct._ZN3MPI8DatatypeE*, %struct._ZN3MPI8DatatypeE** %_T23532632_52554.addr, align 8, !tbaa !3904, !dbg !6872
	%8 = bitcast %struct._ZN3MPI8DatatypeE*  %7 to i8*, !dbg !6872
	%9 = bitcast %struct._ZN3MPI8DatatypeE** %..inline.addr to i8**, !dbg !6872
	store i8*  %8, i8**  %9, align 8, !tbaa !3904, !dbg !6872
	%10 = load %struct.ompi_datatype_t*, %struct.ompi_datatype_t** %newtype.addr, align 8, !tbaa !3904, !dbg !6872
	%11 = bitcast %struct.ompi_datatype_t*  %10 to i8*, !dbg !6872
	%12 = bitcast %struct.ompi_datatype_t** %..inline.addr.1 to i8**, !dbg !6872
	store i8*  %11, i8**  %12, align 8, !tbaa !3904, !dbg !6872
	%13 = bitcast [32 x i32 (...)* (...)*]* @_ZTVN3MPI8DatatypeE to i8*, !dbg !6872
	%14 = getelementptr i8, i8*  %13, i64 16, !dbg !6872
	%15 = load %struct._ZN3MPI8DatatypeE*, %struct._ZN3MPI8DatatypeE** %..inline.addr, align 8, !tbaa !3904, !dbg !6872
	%16 = bitcast %struct._ZN3MPI8DatatypeE*  %15 to i8**, !dbg !6872
	store i8*  %14, i8**  %16, align 8, !tbaa !3904, !dbg !6872
	%17 = load %struct.ompi_datatype_t*, %struct.ompi_datatype_t** %..inline.addr.1, align 8, !tbaa !3904, !dbg !6873
	%18 = bitcast %struct.ompi_datatype_t*  %17 to i8*, !dbg !6873
	%19 = bitcast %struct._ZN3MPI8DatatypeE*  %15 to i8*, !dbg !6873
	%20 = getelementptr i8, i8*  %19, i64 8, !dbg !6873
	%21 = bitcast i8*  %20 to i8**, !dbg !6873
	store i8*  %18, i8**  %21, align 8, !tbaa !3904, !dbg !6873
	ret void, !dbg !6874
}
define linkonce_odr void @_ZNK3MPI8Datatype13Create_vectorEiii(%struct._ZN3MPI8DatatypeE* sret %_T23532632_52555.arg, %struct._ZN3MPI8DatatypeE* %_T23532928_52555.arg, i32 signext %count.arg, i32 signext %blocklength.arg, i32 signext %stride.arg) #0 inlinehint !dbg !6876 {
L.entry:
	%_T23532632_52555.addr = alloca %struct._ZN3MPI8DatatypeE*, align 8
	%_T23532928_52555.addr = alloca %struct._ZN3MPI8DatatypeE*, align 8
	%count.addr = alloca i32, align 4
	%blocklength.addr = alloca i32, align 4
	%stride.addr = alloca i32, align 4
	%newtype.addr = alloca %struct.ompi_datatype_t*, align 8
	%..inline.addr = alloca %struct._ZN3MPI8DatatypeE*, align 8
	%..inline.addr.1 = alloca %struct.ompi_datatype_t*, align 8

	store %struct._ZN3MPI8DatatypeE* %_T23532632_52555.arg, %struct._ZN3MPI8DatatypeE** %_T23532632_52555.addr, align 8, !tbaa !3904
	call void @llvm.dbg.declare (metadata %struct._ZN3MPI8DatatypeE** %_T23532928_52555.addr, metadata !6884, metadata !3896), !dbg !6877
	store %struct._ZN3MPI8DatatypeE* %_T23532928_52555.arg, %struct._ZN3MPI8DatatypeE** %_T23532928_52555.addr, align 8, !tbaa !3904
	call void @llvm.dbg.declare (metadata %struct._ZN3MPI8DatatypeE** %_T23532928_52555.addr, metadata !6885, metadata !3896), !dbg !6877
	call void @llvm.dbg.declare (metadata i32* %count.addr, metadata !6886, metadata !3896), !dbg !6877
	store i32 %count.arg, i32* %count.addr, align 4, !tbaa !4014
	call void @llvm.dbg.declare (metadata i32* %count.addr, metadata !6887, metadata !3896), !dbg !6877
	call void @llvm.dbg.declare (metadata i32* %blocklength.addr, metadata !6888, metadata !3896), !dbg !6877
	store i32 %blocklength.arg, i32* %blocklength.addr, align 4, !tbaa !4014
	call void @llvm.dbg.declare (metadata i32* %blocklength.addr, metadata !6889, metadata !3896), !dbg !6877
	call void @llvm.dbg.declare (metadata i32* %stride.addr, metadata !6890, metadata !3896), !dbg !6877
	store i32 %stride.arg, i32* %stride.addr, align 4, !tbaa !4014
	call void @llvm.dbg.declare (metadata i32* %stride.addr, metadata !6891, metadata !3896), !dbg !6877
	%0 = load i32, i32* %count.addr, align 4, !tbaa !4095, !dbg !6892
	%1 = load i32, i32* %blocklength.addr, align 4, !tbaa !4095, !dbg !6892
	%2 = load i32, i32* %stride.addr, align 4, !tbaa !4095, !dbg !6892
	%3 = load %struct._ZN3MPI8DatatypeE*, %struct._ZN3MPI8DatatypeE** %_T23532928_52555.addr, align 8, !tbaa !3904, !dbg !6892
	%4 = bitcast %struct._ZN3MPI8DatatypeE*  %3 to i8*, !dbg !6892
	%5 = getelementptr i8, i8*  %4, i64 8, !dbg !6892
	%6 = bitcast i8*  %5 to %struct.ompi_datatype_t**, !dbg !6892
	%7 = load %struct.ompi_datatype_t*, %struct.ompi_datatype_t**  %6, align 8, !tbaa !3904, !dbg !6892
	call void @llvm.dbg.declare (metadata %struct.ompi_datatype_t** %newtype.addr, metadata !6893, metadata !3896), !dbg !6877
	%8 = call i32  @MPI_Type_vector (i32  %0, i32  %1, i32  %2, %struct.ompi_datatype_t*  %7, %struct.ompi_datatype_t** %newtype.addr) nounwind, !dbg !6892
	%9 = load %struct._ZN3MPI8DatatypeE*, %struct._ZN3MPI8DatatypeE** %_T23532632_52555.addr, align 8, !tbaa !3904, !dbg !6894
	%10 = bitcast %struct._ZN3MPI8DatatypeE*  %9 to i8*, !dbg !6894
	%11 = bitcast %struct._ZN3MPI8DatatypeE** %..inline.addr to i8**, !dbg !6894
	store i8*  %10, i8**  %11, align 8, !tbaa !3904, !dbg !6894
	%12 = load %struct.ompi_datatype_t*, %struct.ompi_datatype_t** %newtype.addr, align 8, !tbaa !3904, !dbg !6894
	%13 = bitcast %struct.ompi_datatype_t*  %12 to i8*, !dbg !6894
	%14 = bitcast %struct.ompi_datatype_t** %..inline.addr.1 to i8**, !dbg !6894
	store i8*  %13, i8**  %14, align 8, !tbaa !3904, !dbg !6894
	%15 = bitcast [32 x i32 (...)* (...)*]* @_ZTVN3MPI8DatatypeE to i8*, !dbg !6894
	%16 = getelementptr i8, i8*  %15, i64 16, !dbg !6894
	%17 = load %struct._ZN3MPI8DatatypeE*, %struct._ZN3MPI8DatatypeE** %..inline.addr, align 8, !tbaa !3904, !dbg !6894
	%18 = bitcast %struct._ZN3MPI8DatatypeE*  %17 to i8**, !dbg !6894
	store i8*  %16, i8**  %18, align 8, !tbaa !3904, !dbg !6894
	%19 = load %struct.ompi_datatype_t*, %struct.ompi_datatype_t** %..inline.addr.1, align 8, !tbaa !3904, !dbg !6895
	%20 = bitcast %struct.ompi_datatype_t*  %19 to i8*, !dbg !6895
	%21 = bitcast %struct._ZN3MPI8DatatypeE*  %17 to i8*, !dbg !6895
	%22 = getelementptr i8, i8*  %21, i64 8, !dbg !6895
	%23 = bitcast i8*  %22 to i8**, !dbg !6895
	store i8*  %20, i8**  %23, align 8, !tbaa !3904, !dbg !6895
	ret void, !dbg !6896
}
define linkonce_odr void @_ZNK3MPI8Datatype14Create_indexedEiPKiS2_(%struct._ZN3MPI8DatatypeE* sret %_T23532632_52556.arg, %struct._ZN3MPI8DatatypeE* %_T23532928_52556.arg, i32 signext %count.arg, i32* %array_of_blocklengths.arg, i32* %array_of_displacements.arg) #0 inlinehint !dbg !6898 {
L.entry:
	%_T23532632_52556.addr = alloca %struct._ZN3MPI8DatatypeE*, align 8
	%_T23532928_52556.addr = alloca %struct._ZN3MPI8DatatypeE*, align 8
	%count.addr = alloca i32, align 4
	%array_of_blocklengths.addr = alloca i32*, align 8
	%array_of_displacements.addr = alloca i32*, align 8
	%newtype.addr = alloca %struct.ompi_datatype_t*, align 8
	%..inline.addr = alloca %struct._ZN3MPI8DatatypeE*, align 8
	%..inline.addr.1 = alloca %struct.ompi_datatype_t*, align 8

	store %struct._ZN3MPI8DatatypeE* %_T23532632_52556.arg, %struct._ZN3MPI8DatatypeE** %_T23532632_52556.addr, align 8, !tbaa !3904
	call void @llvm.dbg.declare (metadata %struct._ZN3MPI8DatatypeE** %_T23532928_52556.addr, metadata !6906, metadata !3896), !dbg !6899
	store %struct._ZN3MPI8DatatypeE* %_T23532928_52556.arg, %struct._ZN3MPI8DatatypeE** %_T23532928_52556.addr, align 8, !tbaa !3904
	call void @llvm.dbg.declare (metadata %struct._ZN3MPI8DatatypeE** %_T23532928_52556.addr, metadata !6907, metadata !3896), !dbg !6899
	call void @llvm.dbg.declare (metadata i32* %count.addr, metadata !6908, metadata !3896), !dbg !6899
	store i32 %count.arg, i32* %count.addr, align 4, !tbaa !4014
	call void @llvm.dbg.declare (metadata i32* %count.addr, metadata !6909, metadata !3896), !dbg !6899
	call void @llvm.dbg.declare (metadata i32** %array_of_blocklengths.addr, metadata !6910, metadata !3896), !dbg !6899
	store i32* %array_of_blocklengths.arg, i32** %array_of_blocklengths.addr, align 8, !tbaa !3904
	call void @llvm.dbg.declare (metadata i32** %array_of_blocklengths.addr, metadata !6911, metadata !3896), !dbg !6899
	call void @llvm.dbg.declare (metadata i32** %array_of_displacements.addr, metadata !6912, metadata !3896), !dbg !6899
	store i32* %array_of_displacements.arg, i32** %array_of_displacements.addr, align 8, !tbaa !3904
	call void @llvm.dbg.declare (metadata i32** %array_of_displacements.addr, metadata !6913, metadata !3896), !dbg !6899
	%0 = load i32, i32* %count.addr, align 4, !tbaa !4095, !dbg !6914
	%1 = load i32*, i32** %array_of_blocklengths.addr, align 8, !tbaa !3904, !dbg !6914
	%2 = load i32*, i32** %array_of_displacements.addr, align 8, !tbaa !3904, !dbg !6914
	%3 = load %struct._ZN3MPI8DatatypeE*, %struct._ZN3MPI8DatatypeE** %_T23532928_52556.addr, align 8, !tbaa !3904, !dbg !6914
	%4 = bitcast %struct._ZN3MPI8DatatypeE*  %3 to i8*, !dbg !6914
	%5 = getelementptr i8, i8*  %4, i64 8, !dbg !6914
	%6 = bitcast i8*  %5 to %struct.ompi_datatype_t**, !dbg !6914
	%7 = load %struct.ompi_datatype_t*, %struct.ompi_datatype_t**  %6, align 8, !tbaa !3904, !dbg !6914
	call void @llvm.dbg.declare (metadata %struct.ompi_datatype_t** %newtype.addr, metadata !6915, metadata !3896), !dbg !6899
	%8 = call i32  @MPI_Type_indexed (i32  %0, i32*  %1, i32*  %2, %struct.ompi_datatype_t*  %7, %struct.ompi_datatype_t** %newtype.addr) nounwind, !dbg !6914
	%9 = load %struct._ZN3MPI8DatatypeE*, %struct._ZN3MPI8DatatypeE** %_T23532632_52556.addr, align 8, !tbaa !3904, !dbg !6916
	%10 = bitcast %struct._ZN3MPI8DatatypeE*  %9 to i8*, !dbg !6916
	%11 = bitcast %struct._ZN3MPI8DatatypeE** %..inline.addr to i8**, !dbg !6916
	store i8*  %10, i8**  %11, align 8, !tbaa !3904, !dbg !6916
	%12 = load %struct.ompi_datatype_t*, %struct.ompi_datatype_t** %newtype.addr, align 8, !tbaa !3904, !dbg !6916
	%13 = bitcast %struct.ompi_datatype_t*  %12 to i8*, !dbg !6916
	%14 = bitcast %struct.ompi_datatype_t** %..inline.addr.1 to i8**, !dbg !6916
	store i8*  %13, i8**  %14, align 8, !tbaa !3904, !dbg !6916
	%15 = bitcast [32 x i32 (...)* (...)*]* @_ZTVN3MPI8DatatypeE to i8*, !dbg !6916
	%16 = getelementptr i8, i8*  %15, i64 16, !dbg !6916
	%17 = load %struct._ZN3MPI8DatatypeE*, %struct._ZN3MPI8DatatypeE** %..inline.addr, align 8, !tbaa !3904, !dbg !6916
	%18 = bitcast %struct._ZN3MPI8DatatypeE*  %17 to i8**, !dbg !6916
	store i8*  %16, i8**  %18, align 8, !tbaa !3904, !dbg !6916
	%19 = load %struct.ompi_datatype_t*, %struct.ompi_datatype_t** %..inline.addr.1, align 8, !tbaa !3904, !dbg !6917
	%20 = bitcast %struct.ompi_datatype_t*  %19 to i8*, !dbg !6917
	%21 = bitcast %struct._ZN3MPI8DatatypeE*  %17 to i8*, !dbg !6917
	%22 = getelementptr i8, i8*  %21, i64 8, !dbg !6917
	%23 = bitcast i8*  %22 to i8**, !dbg !6917
	store i8*  %20, i8**  %23, align 8, !tbaa !3904, !dbg !6917
	ret void, !dbg !6918
}
define linkonce_odr void @_ZNK3MPI8Datatype15Create_hindexedEiPKiPKl(%struct._ZN3MPI8DatatypeE* sret %_T23532632_52557.arg, %struct._ZN3MPI8DatatypeE* %_T23532928_52557.arg, i32 signext %count.arg, i32* %array_of_blocklengths.arg, i64* %array_of_displacements.arg) #0 inlinehint !dbg !6920 {
L.entry:
	%_T23532632_52557.addr = alloca %struct._ZN3MPI8DatatypeE*, align 8
	%_T23532928_52557.addr = alloca %struct._ZN3MPI8DatatypeE*, align 8
	%count.addr = alloca i32, align 4
	%array_of_blocklengths.addr = alloca i32*, align 8
	%array_of_displacements.addr = alloca i64*, align 8
	%newtype.addr = alloca %struct.ompi_datatype_t*, align 8
	%..inline.addr = alloca %struct._ZN3MPI8DatatypeE*, align 8
	%..inline.addr.1 = alloca %struct.ompi_datatype_t*, align 8

	store %struct._ZN3MPI8DatatypeE* %_T23532632_52557.arg, %struct._ZN3MPI8DatatypeE** %_T23532632_52557.addr, align 8, !tbaa !3904
	call void @llvm.dbg.declare (metadata %struct._ZN3MPI8DatatypeE** %_T23532928_52557.addr, metadata !6928, metadata !3896), !dbg !6921
	store %struct._ZN3MPI8DatatypeE* %_T23532928_52557.arg, %struct._ZN3MPI8DatatypeE** %_T23532928_52557.addr, align 8, !tbaa !3904
	call void @llvm.dbg.declare (metadata %struct._ZN3MPI8DatatypeE** %_T23532928_52557.addr, metadata !6929, metadata !3896), !dbg !6921
	call void @llvm.dbg.declare (metadata i32* %count.addr, metadata !6930, metadata !3896), !dbg !6921
	store i32 %count.arg, i32* %count.addr, align 4, !tbaa !4014
	call void @llvm.dbg.declare (metadata i32* %count.addr, metadata !6931, metadata !3896), !dbg !6921
	call void @llvm.dbg.declare (metadata i32** %array_of_blocklengths.addr, metadata !6932, metadata !3896), !dbg !6921
	store i32* %array_of_blocklengths.arg, i32** %array_of_blocklengths.addr, align 8, !tbaa !3904
	call void @llvm.dbg.declare (metadata i32** %array_of_blocklengths.addr, metadata !6933, metadata !3896), !dbg !6921
	call void @llvm.dbg.declare (metadata i64** %array_of_displacements.addr, metadata !6934, metadata !3896), !dbg !6921
	store i64* %array_of_displacements.arg, i64** %array_of_displacements.addr, align 8, !tbaa !3904
	call void @llvm.dbg.declare (metadata i64** %array_of_displacements.addr, metadata !6935, metadata !3896), !dbg !6921
	%0 = load i32, i32* %count.addr, align 4, !tbaa !4095, !dbg !6936
	%1 = load i32*, i32** %array_of_blocklengths.addr, align 8, !tbaa !3904, !dbg !6936
	%2 = load i64*, i64** %array_of_displacements.addr, align 8, !tbaa !3904, !dbg !6936
	%3 = load %struct._ZN3MPI8DatatypeE*, %struct._ZN3MPI8DatatypeE** %_T23532928_52557.addr, align 8, !tbaa !3904, !dbg !6936
	%4 = bitcast %struct._ZN3MPI8DatatypeE*  %3 to i8*, !dbg !6936
	%5 = getelementptr i8, i8*  %4, i64 8, !dbg !6936
	%6 = bitcast i8*  %5 to %struct.ompi_datatype_t**, !dbg !6936
	%7 = load %struct.ompi_datatype_t*, %struct.ompi_datatype_t**  %6, align 8, !tbaa !3904, !dbg !6936
	call void @llvm.dbg.declare (metadata %struct.ompi_datatype_t** %newtype.addr, metadata !6937, metadata !3896), !dbg !6921
	%8 = call i32  @MPI_Type_create_hindexed (i32  %0, i32*  %1, i64*  %2, %struct.ompi_datatype_t*  %7, %struct.ompi_datatype_t** %newtype.addr) nounwind, !dbg !6936
	%9 = load %struct._ZN3MPI8DatatypeE*, %struct._ZN3MPI8DatatypeE** %_T23532632_52557.addr, align 8, !tbaa !3904, !dbg !6938
	%10 = bitcast %struct._ZN3MPI8DatatypeE*  %9 to i8*, !dbg !6938
	%11 = bitcast %struct._ZN3MPI8DatatypeE** %..inline.addr to i8**, !dbg !6938
	store i8*  %10, i8**  %11, align 8, !tbaa !3904, !dbg !6938
	%12 = load %struct.ompi_datatype_t*, %struct.ompi_datatype_t** %newtype.addr, align 8, !tbaa !3904, !dbg !6938
	%13 = bitcast %struct.ompi_datatype_t*  %12 to i8*, !dbg !6938
	%14 = bitcast %struct.ompi_datatype_t** %..inline.addr.1 to i8**, !dbg !6938
	store i8*  %13, i8**  %14, align 8, !tbaa !3904, !dbg !6938
	%15 = bitcast [32 x i32 (...)* (...)*]* @_ZTVN3MPI8DatatypeE to i8*, !dbg !6938
	%16 = getelementptr i8, i8*  %15, i64 16, !dbg !6938
	%17 = load %struct._ZN3MPI8DatatypeE*, %struct._ZN3MPI8DatatypeE** %..inline.addr, align 8, !tbaa !3904, !dbg !6938
	%18 = bitcast %struct._ZN3MPI8DatatypeE*  %17 to i8**, !dbg !6938
	store i8*  %16, i8**  %18, align 8, !tbaa !3904, !dbg !6938
	%19 = load %struct.ompi_datatype_t*, %struct.ompi_datatype_t** %..inline.addr.1, align 8, !tbaa !3904, !dbg !6939
	%20 = bitcast %struct.ompi_datatype_t*  %19 to i8*, !dbg !6939
	%21 = bitcast %struct._ZN3MPI8DatatypeE*  %17 to i8*, !dbg !6939
	%22 = getelementptr i8, i8*  %21, i64 8, !dbg !6939
	%23 = bitcast i8*  %22 to i8**, !dbg !6939
	store i8*  %20, i8**  %23, align 8, !tbaa !3904, !dbg !6939
	ret void, !dbg !6940
}
define linkonce_odr void @_ZNK3MPI8Datatype14Create_hvectorEiil(%struct._ZN3MPI8DatatypeE* sret %_T23532632_52559.arg, %struct._ZN3MPI8DatatypeE* %_T23532928_52559.arg, i32 signext %count.arg, i32 signext %blocklength.arg, i64 %stride.arg) #0 inlinehint !dbg !6942 {
L.entry:
	%_T23532632_52559.addr = alloca %struct._ZN3MPI8DatatypeE*, align 8
	%_T23532928_52559.addr = alloca %struct._ZN3MPI8DatatypeE*, align 8
	%count.addr = alloca i32, align 4
	%blocklength.addr = alloca i32, align 4
	%stride.addr = alloca i64, align 8
	%newtype.addr = alloca %struct.ompi_datatype_t*, align 8
	%..inline.addr = alloca %struct._ZN3MPI8DatatypeE*, align 8
	%..inline.addr.1 = alloca %struct.ompi_datatype_t*, align 8

	store %struct._ZN3MPI8DatatypeE* %_T23532632_52559.arg, %struct._ZN3MPI8DatatypeE** %_T23532632_52559.addr, align 8, !tbaa !3904
	call void @llvm.dbg.declare (metadata %struct._ZN3MPI8DatatypeE** %_T23532928_52559.addr, metadata !6950, metadata !3896), !dbg !6943
	store %struct._ZN3MPI8DatatypeE* %_T23532928_52559.arg, %struct._ZN3MPI8DatatypeE** %_T23532928_52559.addr, align 8, !tbaa !3904
	call void @llvm.dbg.declare (metadata %struct._ZN3MPI8DatatypeE** %_T23532928_52559.addr, metadata !6951, metadata !3896), !dbg !6943
	call void @llvm.dbg.declare (metadata i32* %count.addr, metadata !6952, metadata !3896), !dbg !6943
	store i32 %count.arg, i32* %count.addr, align 4, !tbaa !4014
	call void @llvm.dbg.declare (metadata i32* %count.addr, metadata !6953, metadata !3896), !dbg !6943
	call void @llvm.dbg.declare (metadata i32* %blocklength.addr, metadata !6954, metadata !3896), !dbg !6943
	store i32 %blocklength.arg, i32* %blocklength.addr, align 4, !tbaa !4014
	call void @llvm.dbg.declare (metadata i32* %blocklength.addr, metadata !6955, metadata !3896), !dbg !6943
	call void @llvm.dbg.declare (metadata i64* %stride.addr, metadata !6956, metadata !3896), !dbg !6943
	store i64 %stride.arg, i64* %stride.addr, align 8, !tbaa !4014
	call void @llvm.dbg.declare (metadata i64* %stride.addr, metadata !6957, metadata !3896), !dbg !6943
	%0 = load i32, i32* %count.addr, align 4, !tbaa !4095, !dbg !6958
	%1 = load i32, i32* %blocklength.addr, align 4, !tbaa !4095, !dbg !6958
	%2 = load i64, i64* %stride.addr, align 8, !tbaa !4305, !dbg !6958
	%3 = load %struct._ZN3MPI8DatatypeE*, %struct._ZN3MPI8DatatypeE** %_T23532928_52559.addr, align 8, !tbaa !3904, !dbg !6958
	%4 = bitcast %struct._ZN3MPI8DatatypeE*  %3 to i8*, !dbg !6958
	%5 = getelementptr i8, i8*  %4, i64 8, !dbg !6958
	%6 = bitcast i8*  %5 to %struct.ompi_datatype_t**, !dbg !6958
	%7 = load %struct.ompi_datatype_t*, %struct.ompi_datatype_t**  %6, align 8, !tbaa !3904, !dbg !6958
