; ModuleID = 'fieldsolver/ldz_magnetic_field.cpp'
target datalayout = "e-p:64:64-i64:64-f80:128-n8:16:32:64-S128"
target triple = "x86_64-pc-linux-gnu"
define internal void @pgCplus_compiled.() noinline {
L.entry:
	ret void
}

%struct._ZNSt12_Vector_baseIcSaIcEE12_Vector_implE = type <{ %struct._ZNSt12_Vector_baseIcSaIcEE17_Vector_impl_dataE}> 
%struct.FsGridCouplingInformation = type <{ %struct._ZSt6vectorIiSaIiEE}> 
%struct.__SO__NSt6locale5facetE = type <{ i32 (...)* (...)*, i32}> 
%struct._ZNSt8ios_base14_Callback_listE = type <{ %struct._ZNSt8ios_base14_Callback_listE*, void (i32, %struct._ZSt8ios_base*, i32)*, i32, i32}> 
%struct._ZSt8ios_base = type <{ i32 (...)* (...)*, i64, i64, i32, i32, i32, [4 x i8], %struct._ZNSt8ios_base14_Callback_listE*, %struct._ZNSt8ios_base6_WordsE, [8 x %struct._ZNSt8ios_base6_WordsE], i32, [4 x i8], %struct._ZNSt8ios_base6_WordsE*, %struct._ZSt6locale}> 
%struct._ZNSt8ios_base6_WordsE = type <{ i8*, i64}> 
%struct._ZSt6vectorISt5arrayIdLm3EESaIS1_EE = type <{ %struct._ZSt12_Vector_baseISt5arrayIdLm3EESaIS1_EE}> 
%struct._ZSt7num_putIcSt19ostreambuf_iteratorIcSt11char_traitsIcEEE = type <{ %struct.__SO__NSt6locale5facetE, [4 x i8]}> 
%struct._ZNSt12_Vector_baseIP14ompi_request_tSaIS1_EE12_Vector_implE = type <{ %struct._ZNSt12_Vector_baseIP14ompi_request_tSaIS1_EE17_Vector_impl_dataE}> 
%struct._ZNSt6locale5_ImplE = type <{ i32, [4 x i8], %struct._ZNSt6locale5facetE**, i64, %struct._ZNSt6locale5facetE**, i8**}> 
%struct._Z6FsGridISt5arrayIdLm3EELi2EE = type <{ double, double, double, %struct._ZSt5arrayIdLm3EE, %struct.ompi_communicator_t*, i32, [4 x i8], %struct._ZSt6vectorIP14ompi_request_tSaIS1_EE, i32, %struct._ZSt5arrayIiLm27EE, %struct._ZSt6vectorIcSaIcEE, %struct._ZSt5arrayIiLm3EE, %struct._ZSt5arrayIiLm3EE, %struct._ZSt5arrayIbLm3EE, i8, %struct._ZSt5arrayIiLm3EE, %struct._ZSt5arrayIiLm3EE, %struct._ZSt5arrayIiLm3EE, %struct._ZSt5arrayIiLm3EE, [4 x i8], %struct.FsGridCouplingInformation*, %struct._ZSt5arrayIP15ompi_datatype_tLm27EE, %struct._ZSt5arrayIP15ompi_datatype_tLm27EE, %struct._ZSt6vectorISt5arrayIdLm3EESaIS1_EE}> 
%struct._ZSt5arrayIP15ompi_datatype_tLm27EE = type <{ [27 x %struct.ompi_datatype_t*]}> 
%struct._ZSt9basic_iosIcSt11char_traitsIcEE = type <{ %struct._ZSt8ios_base, %struct._ZSo*, i8, i8, [6 x i8], %struct._ZSt15basic_streambufIcSt11char_traitsIcEE*, %struct._ZSt5ctypeIcE*, %struct._ZSt7num_putIcSt19ostreambuf_iteratorIcSt11char_traitsIcEEE*, %struct._ZSt7num_getIcSt19istreambuf_iteratorIcSt11char_traitsIcEEE*}> 
%struct.ompi_datatype_t = type opaque
%struct._ZSt6locale = type <{ %struct._ZNSt6locale5_ImplE*}> 
%struct.ompi_request_t = type opaque
%struct._ZNSt6locale5facetE = type <{ i32 (...)* (...)*, i32, [4 x i8]}> 
%struct._ZSt15basic_streambufIcSt11char_traitsIcEE = type <{ i32 (...)* (...)*, i8*, i8*, i8*, i8*, i8*, i8*, %struct._ZSt6locale}> 
%struct.__locale_struct = type <{ [13 x %struct.__locale_data*], i16*, i32*, i32*, [13 x i8*]}> 
%struct._ZSt12_Vector_baseIiSaIiEE = type <{ %struct._ZNSt12_Vector_baseIiSaIiEE12_Vector_implE}> 
%struct._ZNSt12_Vector_baseISt5arrayIdLm3EESaIS1_EE12_Vector_implE = type <{ %struct._ZNSt12_Vector_baseISt5arrayIdLm3EESaIS1_EE17_Vector_impl_dataE}> 
%struct._ZSt5ctypeIcE = type <{ %struct.__SO__NSt6locale5facetE, [4 x i8], %struct.__locale_struct*, i8, [7 x i8], i32*, i32*, i16*, i8, [256 x i8], [256 x i8], i8, [6 x i8]}> 
%struct._ZNSt12_Vector_baseIiSaIiEE12_Vector_implE = type <{ %struct._ZNSt12_Vector_baseIiSaIiEE17_Vector_impl_dataE}> 
%struct.__locale_data = type opaque
%struct._ZNSt12_Vector_baseIP14ompi_request_tSaIS1_EE17_Vector_impl_dataE = type <{ %struct.ompi_request_t**, %struct.ompi_request_t**, %struct.ompi_request_t**}> 
%struct._ZSt5arrayIiLm3EE = type <{ [3 x i32]}> 
%struct._ZSo = type <{ i32 (...)* (...)*, %struct._ZSt9basic_iosIcSt11char_traitsIcEE}> 
%struct._ZSt7num_getIcSt19istreambuf_iteratorIcSt11char_traitsIcEEE = type <{ %struct.__SO__NSt6locale5facetE, [4 x i8]}> 
%struct._ZSt5arrayIiLm27EE = type <{ [27 x i32]}> 
%struct._ZSt6vectorIiSaIiEE = type <{ %struct._ZSt12_Vector_baseIiSaIiEE}> 
%struct._ZSt12_Vector_baseIcSaIcEE = type <{ %struct._ZNSt12_Vector_baseIcSaIcEE12_Vector_implE}> 
%struct.ompi_communicator_t = type opaque
%struct._ZNSt12_Vector_baseISt5arrayIdLm3EESaIS1_EE17_Vector_impl_dataE = type <{ %struct._ZSt5arrayIdLm3EE*, %struct._ZSt5arrayIdLm3EE*, %struct._ZSt5arrayIdLm3EE*}> 
%struct._ZSt12_Vector_baseISt5arrayIdLm3EESaIS1_EE = type <{ %struct._ZNSt12_Vector_baseISt5arrayIdLm3EESaIS1_EE12_Vector_implE}> 
%struct._ZSt6vectorIcSaIcEE = type <{ %struct._ZSt12_Vector_baseIcSaIcEE}> 
%struct._ZNSt12_Vector_baseIcSaIcEE17_Vector_impl_dataE = type <{ i8*, i8*, i8*}> 
%struct._ZSt5arrayIbLm3EE = type <{ [3 x i8]}> 
%struct._ZSt12_Vector_baseIP14ompi_request_tSaIS1_EE = type <{ %struct._ZNSt12_Vector_baseIP14ompi_request_tSaIS1_EE12_Vector_implE}> 
%struct._ZNSt12_Vector_baseIiSaIiEE17_Vector_impl_dataE = type <{ i32*, i32*, i32*}> 
%struct._ZSt6vectorIP14ompi_request_tSaIS1_EE = type <{ %struct._ZSt12_Vector_baseIP14ompi_request_tSaIS1_EE}> 
%struct._ZSt5arrayIdLm3EE = type <{ [3 x double]}> 



define void @_Z22propagateMagneticFieldR6FsGridISt5arrayIdLm3EELi2EES3_S3_S3_iiiRKdRKibbb(%struct._Z6FsGridISt5arrayIdLm3EELi2EE* %perBGrid.arg, %struct._Z6FsGridISt5arrayIdLm3EELi2EE* %perBDt2Grid.arg, %struct._Z6FsGridISt5arrayIdLm3EELi2EE* %EGrid.arg, %struct._Z6FsGridISt5arrayIdLm3EELi2EE* %EDt2Grid.arg, i32 signext %i.arg, i32 signext %j.arg, i32 signext %k.arg, double* %dt.arg, i32* %RKCase.arg, i8 signext %doX.arg, i8 signext %doY.arg, i8 signext %doZ.arg) #0 !dbg !3834 {
L.entry:
	%perBGrid.addr = alloca %struct._Z6FsGridISt5arrayIdLm3EELi2EE*, align 8
	%perBDt2Grid.addr = alloca %struct._Z6FsGridISt5arrayIdLm3EELi2EE*, align 8
	%EGrid.addr = alloca %struct._Z6FsGridISt5arrayIdLm3EELi2EE*, align 8
	%EDt2Grid.addr = alloca %struct._Z6FsGridISt5arrayIdLm3EELi2EE*, align 8
	%i.addr = alloca i32, align 4
	%j.addr = alloca i32, align 4
	%k.addr = alloca i32, align 4
	%dt.addr = alloca double*, align 8
	%RKCase.addr = alloca i32*, align 8
	%doX.addr = alloca i8, align 1
	%doY.addr = alloca i8, align 1
	%doZ.addr = alloca i8, align 1
	%dx.addr = alloca double, align 8
	%dy.addr = alloca double, align 8
	%dz.addr = alloca double, align 8
	%..inline.addr = alloca %struct._Z6FsGridISt5arrayIdLm3EELi2EE*, align 8
	%..inline.addr.1 = alloca i32, align 4
	%..inline.addr.2 = alloca i32, align 4
	%..inline.addr.3 = alloca i32, align 4
	%..inline.addr.4 = alloca i32, align 4
	%..inline.addr.5 = alloca [3 x i32], align 4
	%..inline.addr.6 = alloca %struct._ZSt5arrayIdLm3EE*, align 8
	%..inline.addr.7 = alloca i64, align 8
	%perBGrid0.addr = alloca %struct._ZSt5arrayIdLm3EE*, align 8
	%.D0000.addr = alloca i32, align 4
	%..inline.addr.8 = alloca %struct._Z6FsGridISt5arrayIdLm3EELi2EE*, align 8
	%..inline.addr.9 = alloca i32, align 4
	%..inline.addr.390 = alloca i32, align 4
	%..inline.addr.400 = alloca i32, align 4
	%..inline.addr.410 = alloca i32, align 4
	%..inline.addr.420 = alloca [3 x i32], align 4
	%..inline.addr.430 = alloca %struct._ZSt5arrayIdLm3EE*, align 8
	%..inline.addr.440 = alloca %struct._ZSt9basic_iosIcSt11char_traitsIcEE*, align 8
	%..inline.addr.450 = alloca %struct._ZSt9basic_iosIcSt11char_traitsIcEE*, align 8
	%..inline.addr.460 = alloca i32, align 4
	%..inline.addr.470 = alloca %struct._Z6FsGridISt5arrayIdLm3EELi2EE*, align 8
	%..inline.addr.480 = alloca i32, align 4
	%..inline.addr.490 = alloca i32, align 4
	%..inline.addr.500 = alloca i32, align 4
	%..inline.addr.510 = alloca i32, align 4
	%..inline.addr.520 = alloca [3 x i32], align 4
	%..inline.addr.530 = alloca %struct._ZSt5arrayIdLm3EE*, align 8
	%..inline.addr.540 = alloca i64, align 8
	%EGrid0.addr = alloca %struct._ZSt5arrayIdLm3EE*, align 8
	%..inline.addr.560 = alloca %struct._Z6FsGridISt5arrayIdLm3EELi2EE*, align 8
	%..inline.addr.570 = alloca i32, align 4
	%..inline.addr.580 = alloca i32, align 4
	%..inline.addr.590 = alloca i32, align 4
	%..inline.addr.600 = alloca i32, align 4
	%..inline.addr.610 = alloca [3 x i32], align 4
	%..inline.addr.620 = alloca %struct._ZSt5arrayIdLm3EE*, align 8
	%..inline.addr.630 = alloca i64, align 8
	%EGrid1.addr = alloca %struct._ZSt5arrayIdLm3EE*, align 8
	%..inline.addr.650 = alloca %struct._Z6FsGridISt5arrayIdLm3EELi2EE*, align 8
	%..inline.addr.660 = alloca i32, align 4
	%..inline.addr.670 = alloca i32, align 4
	%..inline.addr.680 = alloca i32, align 4
	%..inline.addr.690 = alloca i32, align 4
	%..inline.addr.700 = alloca [3 x i32], align 4
	%..inline.addr.710 = alloca %struct._ZSt5arrayIdLm3EE*, align 8
	%..inline.addr.720 = alloca i64, align 8
	%..inline.addr.730 = alloca double*, align 8
	%..inline.addr.740 = alloca %struct._Z6FsGridISt5arrayIdLm3EELi2EE*, align 8
	%..inline.addr.750 = alloca i32, align 4
	%..inline.addr.760 = alloca i32, align 4
	%..inline.addr.770 = alloca i32, align 4
	%..inline.addr.780 = alloca i32, align 4
	%..inline.addr.790 = alloca [3 x i32], align 4
	%..inline.addr.800 = alloca %struct._ZSt5arrayIdLm3EE*, align 8
	%..inline.addr.810 = alloca i64, align 8
	%perBDt2Grid0.addr = alloca %struct._ZSt5arrayIdLm3EE*, align 8
	%..inline.addr.830 = alloca %struct._Z6FsGridISt5arrayIdLm3EELi2EE*, align 8
	%..inline.addr.840 = alloca i32, align 4
	%..inline.addr.850 = alloca i32, align 4
	%..inline.addr.860 = alloca i32, align 4
	%..inline.addr.870 = alloca i32, align 4
	%..inline.addr.880 = alloca [3 x i32], align 4
	%..inline.addr.890 = alloca %struct._ZSt5arrayIdLm3EE*, align 8
	%..inline.addr.900 = alloca i64, align 8
	%..inline.addr.910 = alloca %struct._Z6FsGridISt5arrayIdLm3EELi2EE*, align 8
	%..inline.addr.920 = alloca i32, align 4
	%..inline.addr.930 = alloca i32, align 4
	%..inline.addr.940 = alloca i32, align 4
	%..inline.addr.950 = alloca i32, align 4
	%..inline.addr.960 = alloca [3 x i32], align 4
	%..inline.addr.970 = alloca %struct._ZSt5arrayIdLm3EE*, align 8
	%..inline.addr.980 = alloca i64, align 8
	%..inline.addr.990 = alloca %struct._Z6FsGridISt5arrayIdLm3EELi2EE*, align 8
	%..inline.addr.1000 = alloca i32, align 4
	%..inline.addr.1010 = alloca i32, align 4
	%..inline.addr.1020 = alloca i32, align 4
	%..inline.addr.1030 = alloca i32, align 4
	%..inline.addr.1040 = alloca [3 x i32], align 4
	%..inline.addr.1050 = alloca %struct._ZSt5arrayIdLm3EE*, align 8
	%..inline.addr.1060 = alloca i64, align 8
	%..inline.addr.1070 = alloca i64, align 8
	%..inline.addr.1080 = alloca %struct._Z6FsGridISt5arrayIdLm3EELi2EE*, align 8
	%..inline.addr.1090 = alloca i32, align 4
	%..inline.addr.1100 = alloca i32, align 4
	%..inline.addr.1110 = alloca i32, align 4
	%..inline.addr.1120 = alloca i32, align 4
	%..inline.addr.1130 = alloca [3 x i32], align 4
	%..inline.addr.1140 = alloca %struct._ZSt5arrayIdLm3EE*, align 8
	%..inline.addr.1150 = alloca i64, align 8
	%..inline.addr.1160 = alloca %struct._Z6FsGridISt5arrayIdLm3EELi2EE*, align 8
	%..inline.addr.1170 = alloca i32, align 4
	%..inline.addr.1180 = alloca i32, align 4
	%..inline.addr.1190 = alloca i32, align 4
	%..inline.addr.1200 = alloca i32, align 4
	%..inline.addr.1210 = alloca [3 x i32], align 4
	%..inline.addr.1220 = alloca %struct._ZSt5arrayIdLm3EE*, align 8
	%..inline.addr.1230 = alloca i64, align 8
	%..inline.addr.1240 = alloca double*, align 8
	%..inline.addr.1250 = alloca i64, align 8
	%.Q0000.addr = alloca %struct._ZSo*, align 8
	%..inline.addr.1270 = alloca %struct._ZSt9basic_iosIcSt11char_traitsIcEE*, align 8
	%..inline.addr.1280 = alloca %struct._ZSt9basic_iosIcSt11char_traitsIcEE*, align 8
	%..inline.addr.1290 = alloca i32, align 4
	%..inline.addr.1300 = alloca i64, align 8
	%.Q0001.addr = alloca %struct._ZSo*, align 8
	%.Q0002.addr = alloca %struct._ZSo*, align 8
	%..inline.addr.1330 = alloca %struct._ZSo*, align 8
	%..inline.addr.1340 = alloca %struct._ZSt9basic_iosIcSt11char_traitsIcEE*, align 8
	%..inline.addr.1350 = alloca %struct._ZSt9basic_iosIcSt11char_traitsIcEE*, align 8
	%..inline.addr.1360 = alloca i32, align 4
	%..inline.addr.1370 = alloca i64, align 8
	%.Q0003.addr = alloca %struct._ZSo*, align 8
	%..inline.addr.1390 = alloca %struct._ZSo*, align 8
	%..inline.addr.1400 = alloca %struct._ZSt9basic_iosIcSt11char_traitsIcEE*, align 8
	%..inline.addr.1410 = alloca %struct._ZSt9basic_iosIcSt11char_traitsIcEE*, align 8
	%..inline.addr.1420 = alloca i32, align 4
	%..inline.addr.1430 = alloca i64, align 8
	%.Q0004.addr = alloca %struct._ZSo*, align 8
	%..inline.addr.1450 = alloca %struct._ZSo*, align 8
	%.Q0005.addr = alloca %struct._ZSo*, align 8
	%.Q0021.addr = alloca %struct._ZSt5arrayIdLm3EE*, align 8
	%.Q0022.addr = alloca %struct._ZSt5arrayIdLm3EE*, align 8
	%.Q0023.addr = alloca %struct._ZSt5arrayIdLm3EE*, align 8
	%EGrid2.addr = alloca %struct._ZSt5arrayIdLm3EE*, align 8
	%.Q0024.addr = alloca double*, align 8
	%.Q0025.addr = alloca double*, align 8
	%.Q0026.addr = alloca double*, align 8
	%.Q0027.addr = alloca double*, align 8
	%.Q0028.addr = alloca double*, align 8
	%.Q0029.addr = alloca %struct._ZSo*, align 8
	%.Q0030.addr = alloca %struct._ZSo*, align 8
	%.Q0031.addr = alloca %struct._ZSo*, align 8
	%.Q0032.addr = alloca %struct._ZSo*, align 8
	%.Q0033.addr = alloca %struct._ZSo*, align 8
	%.Q0034.addr = alloca %struct._ZSo*, align 8
	%.Q0053.addr = alloca %struct._ZSt5arrayIdLm3EE*, align 8
	%.Q0054.addr = alloca %struct._ZSt5arrayIdLm3EE*, align 8
	%.Q0055.addr = alloca %struct._ZSt5arrayIdLm3EE*, align 8
	%.Q0056.addr = alloca double*, align 8
	%.Q0057.addr = alloca double*, align 8
	%.Q0058.addr = alloca double*, align 8
	%.Q0059.addr = alloca double*, align 8
	%.Q0060.addr = alloca double*, align 8
	%..inline.addr.1700 = alloca %struct._Z6FsGridISt5arrayIdLm3EELi2EE*, align 8
	%..inline.addr.1710 = alloca i32, align 4
	%..inline.addr.1720 = alloca i32, align 4
	%..inline.addr.1730 = alloca i32, align 4
	%..inline.addr.1740 = alloca i32, align 4
	%..inline.addr.1750 = alloca [3 x i32], align 4
	%..inline.addr.1760 = alloca %struct._ZSt5arrayIdLm3EE*, align 8
	%..inline.addr.1770 = alloca i64, align 8
	%..inline.addr.1780 = alloca %struct._Z6FsGridISt5arrayIdLm3EELi2EE*, align 8
	%..inline.addr.1790 = alloca i32, align 4
	%..inline.addr.1800 = alloca i32, align 4
	%..inline.addr.1810 = alloca i32, align 4
	%..inline.addr.1820 = alloca i32, align 4
	%..inline.addr.1830 = alloca [3 x i32], align 4
	%..inline.addr.1840 = alloca %struct._ZSt5arrayIdLm3EE*, align 8
	%..inline.addr.1850 = alloca i64, align 8
	%..inline.addr.1860 = alloca %struct._Z6FsGridISt5arrayIdLm3EELi2EE*, align 8
	%..inline.addr.1870 = alloca i32, align 4
	%..inline.addr.1880 = alloca i32, align 4
	%..inline.addr.1890 = alloca i32, align 4
	%..inline.addr.1900 = alloca i32, align 4
	%..inline.addr.1910 = alloca [3 x i32], align 4
	%..inline.addr.1920 = alloca %struct._ZSt5arrayIdLm3EE*, align 8
	%..inline.addr.1930 = alloca i64, align 8
	%.Q0006.addr = alloca double*, align 8
	%.Q0007.addr = alloca double*, align 8
	%.Q0008.addr = alloca double*, align 8
	%.Q0009.addr = alloca double*, align 8
	%.Q0010.addr = alloca double*, align 8
	%.Q0011.addr = alloca %struct._ZSt5arrayIdLm3EE*, align 8
	%.Q0012.addr = alloca %struct._ZSt5arrayIdLm3EE*, align 8
	%.Q0013.addr = alloca %struct._ZSt5arrayIdLm3EE*, align 8
	%.Q0014.addr = alloca %struct._ZSt5arrayIdLm3EE*, align 8
	%.Q0015.addr = alloca double*, align 8
	%.Q0016.addr = alloca double*, align 8
	%.Q0017.addr = alloca double*, align 8
	%.Q0018.addr = alloca double*, align 8
	%.Q0019.addr = alloca double*, align 8
	%.Q0020.addr = alloca double*, align 8
	%.Q0035.addr = alloca %struct._ZSt5arrayIdLm3EE*, align 8
	%.Q0036.addr = alloca %struct._ZSt5arrayIdLm3EE*, align 8
	%.Q0037.addr = alloca %struct._ZSt5arrayIdLm3EE*, align 8
	%.Q0038.addr = alloca double*, align 8
	%.Q0039.addr = alloca double*, align 8
	%.Q0040.addr = alloca double*, align 8
	%.Q0041.addr = alloca double*, align 8
	%.Q0042.addr = alloca double*, align 8
	%.Q0043.addr = alloca %struct._ZSt5arrayIdLm3EE*, align 8
	%.Q0044.addr = alloca %struct._ZSt5arrayIdLm3EE*, align 8
	%.Q0045.addr = alloca %struct._ZSt5arrayIdLm3EE*, align 8
	%.Q0046.addr = alloca %struct._ZSt5arrayIdLm3EE*, align 8
	%.Q0047.addr = alloca double*, align 8
	%.Q0048.addr = alloca double*, align 8
	%.Q0049.addr = alloca double*, align 8
	%.Q0050.addr = alloca double*, align 8
	%.Q0051.addr = alloca double*, align 8
	%.Q0052.addr = alloca double*, align 8
	%.Q0061.addr = alloca %struct._ZSo*, align 8
	%.Q0062.addr = alloca %struct._ZSo*, align 8
	%.Q0063.addr = alloca %struct._ZSo*, align 8
	%.Q0064.addr = alloca %struct._ZSo*, align 8
	%.Q0065.addr = alloca %struct._ZSo*, align 8
	%.Q0066.addr = alloca %struct._ZSo*, align 8

	call void @llvm.dbg.declare (metadata %struct._Z6FsGridISt5arrayIdLm3EELi2EE** %perBGrid.addr, metadata !5786, metadata !5787), !dbg !3835
	store %struct._Z6FsGridISt5arrayIdLm3EELi2EE* %perBGrid.arg, %struct._Z6FsGridISt5arrayIdLm3EELi2EE** %perBGrid.addr, align 8, !tbaa !5914
	call void @llvm.dbg.declare (metadata %struct._Z6FsGridISt5arrayIdLm3EELi2EE** %perBGrid.addr, metadata !5788, metadata !5787), !dbg !3835
	call void @llvm.dbg.declare (metadata %struct._Z6FsGridISt5arrayIdLm3EELi2EE** %perBDt2Grid.addr, metadata !5789, metadata !5787), !dbg !3835
	store %struct._Z6FsGridISt5arrayIdLm3EELi2EE* %perBDt2Grid.arg, %struct._Z6FsGridISt5arrayIdLm3EELi2EE** %perBDt2Grid.addr, align 8, !tbaa !5914
	call void @llvm.dbg.declare (metadata %struct._Z6FsGridISt5arrayIdLm3EELi2EE** %perBDt2Grid.addr, metadata !5790, metadata !5787), !dbg !3835
	call void @llvm.dbg.declare (metadata %struct._Z6FsGridISt5arrayIdLm3EELi2EE** %EGrid.addr, metadata !5791, metadata !5787), !dbg !3835
	store %struct._Z6FsGridISt5arrayIdLm3EELi2EE* %EGrid.arg, %struct._Z6FsGridISt5arrayIdLm3EELi2EE** %EGrid.addr, align 8, !tbaa !5914
	call void @llvm.dbg.declare (metadata %struct._Z6FsGridISt5arrayIdLm3EELi2EE** %EGrid.addr, metadata !5792, metadata !5787), !dbg !3835
	call void @llvm.dbg.declare (metadata %struct._Z6FsGridISt5arrayIdLm3EELi2EE** %EDt2Grid.addr, metadata !5793, metadata !5787), !dbg !3835
	store %struct._Z6FsGridISt5arrayIdLm3EELi2EE* %EDt2Grid.arg, %struct._Z6FsGridISt5arrayIdLm3EELi2EE** %EDt2Grid.addr, align 8, !tbaa !5914
	call void @llvm.dbg.declare (metadata %struct._Z6FsGridISt5arrayIdLm3EELi2EE** %EDt2Grid.addr, metadata !5794, metadata !5787), !dbg !3835
	call void @llvm.dbg.declare (metadata i32* %i.addr, metadata !5795, metadata !5787), !dbg !3835
	store i32 %i.arg, i32* %i.addr, align 4, !tbaa !5915
	call void @llvm.dbg.declare (metadata i32* %i.addr, metadata !5796, metadata !5787), !dbg !3835
	call void @llvm.dbg.declare (metadata i32* %j.addr, metadata !5797, metadata !5787), !dbg !3835
	store i32 %j.arg, i32* %j.addr, align 4, !tbaa !5915
	call void @llvm.dbg.declare (metadata i32* %j.addr, metadata !5798, metadata !5787), !dbg !3835
	call void @llvm.dbg.declare (metadata i32* %k.addr, metadata !5799, metadata !5787), !dbg !3835
	store i32 %k.arg, i32* %k.addr, align 4, !tbaa !5915
	call void @llvm.dbg.declare (metadata i32* %k.addr, metadata !5800, metadata !5787), !dbg !3835
	call void @llvm.dbg.declare (metadata double** %dt.addr, metadata !5801, metadata !5787), !dbg !3835
	store double* %dt.arg, double** %dt.addr, align 8, !tbaa !5914
	call void @llvm.dbg.declare (metadata double** %dt.addr, metadata !5802, metadata !5787), !dbg !3835
	call void @llvm.dbg.declare (metadata i32** %RKCase.addr, metadata !5803, metadata !5787), !dbg !3835
	store i32* %RKCase.arg, i32** %RKCase.addr, align 8, !tbaa !5914
	call void @llvm.dbg.declare (metadata i32** %RKCase.addr, metadata !5804, metadata !5787), !dbg !3835
	call void @llvm.dbg.declare (metadata i8* %doX.addr, metadata !5805, metadata !5787), !dbg !3835
	store i8 %doX.arg, i8* %doX.addr, align 1, !tbaa !5915
	call void @llvm.dbg.declare (metadata i8* %doX.addr, metadata !5806, metadata !5787), !dbg !3835
	call void @llvm.dbg.declare (metadata i8* %doY.addr, metadata !5807, metadata !5787), !dbg !3835
	store i8 %doY.arg, i8* %doY.addr, align 1, !tbaa !5915
	call void @llvm.dbg.declare (metadata i8* %doY.addr, metadata !5808, metadata !5787), !dbg !3835
	call void @llvm.dbg.declare (metadata i8* %doZ.addr, metadata !5809, metadata !5787), !dbg !3835
	store i8 %doZ.arg, i8* %doZ.addr, align 1, !tbaa !5915
	call void @llvm.dbg.declare (metadata i8* %doZ.addr, metadata !5810, metadata !5787), !dbg !3835
	%0 = load %struct._Z6FsGridISt5arrayIdLm3EELi2EE*, %struct._Z6FsGridISt5arrayIdLm3EELi2EE** %perBGrid.addr, align 8, !tbaa !5914, !dbg !5811
	%1 = bitcast %struct._Z6FsGridISt5arrayIdLm3EELi2EE*  %0 to double*, !dbg !5811
	%2 = load double, double*  %1, align 8, !tbaa !5915, !dbg !5811
	call void @llvm.dbg.declare (metadata double* %dx.addr, metadata !5812, metadata !5787), !dbg !3835
	store double  %2, double* %dx.addr, align 8, !tbaa !5917, !dbg !5811
	%3 = load %struct._Z6FsGridISt5arrayIdLm3EELi2EE*, %struct._Z6FsGridISt5arrayIdLm3EELi2EE** %perBGrid.addr, align 8, !tbaa !5914, !dbg !5813
	%4 = bitcast %struct._Z6FsGridISt5arrayIdLm3EELi2EE*  %3 to i8*, !dbg !5813
	%5 = getelementptr i8, i8*  %4, i64 8, !dbg !5813
	%6 = bitcast i8*  %5 to double*, !dbg !5813
	%7 = load double, double*  %6, align 8, !tbaa !5915, !dbg !5813
	call void @llvm.dbg.declare (metadata double* %dy.addr, metadata !5814, metadata !5787), !dbg !3835
	store double  %7, double* %dy.addr, align 8, !tbaa !5917, !dbg !5813
	%8 = load %struct._Z6FsGridISt5arrayIdLm3EELi2EE*, %struct._Z6FsGridISt5arrayIdLm3EELi2EE** %perBGrid.addr, align 8, !tbaa !5914, !dbg !5815
	%9 = bitcast %struct._Z6FsGridISt5arrayIdLm3EELi2EE*  %8 to i8*, !dbg !5815
	%10 = getelementptr i8, i8*  %9, i64 16, !dbg !5815
	%11 = bitcast i8*  %10 to double*, !dbg !5815
	%12 = load double, double*  %11, align 8, !tbaa !5915, !dbg !5815
	call void @llvm.dbg.declare (metadata double* %dz.addr, metadata !5816, metadata !5787), !dbg !3835
	store double  %12, double* %dz.addr, align 8, !tbaa !5917, !dbg !5815
	%13 = load %struct._Z6FsGridISt5arrayIdLm3EELi2EE*, %struct._Z6FsGridISt5arrayIdLm3EELi2EE** %perBGrid.addr, align 8, !tbaa !5914, !dbg !5817
	%14 = bitcast %struct._Z6FsGridISt5arrayIdLm3EELi2EE*  %13 to i8*, !dbg !5817
	%15 = bitcast %struct._Z6FsGridISt5arrayIdLm3EELi2EE** %..inline.addr to i8**, !dbg !5817
	store i8*  %14, i8**  %15, align 8, !tbaa !5914, !dbg !5817
	%16 = load i32, i32* %i.addr, align 4, !tbaa !5919, !dbg !5817
	store i32  %16, i32* %..inline.addr.1, align 4, !tbaa !5919, !dbg !5817
	%17 = load i32, i32* %j.addr, align 4, !tbaa !5919, !dbg !5817
	store i32  %17, i32* %..inline.addr.2, align 4, !tbaa !5919, !dbg !5817
	%18 = load i32, i32* %k.addr, align 4, !tbaa !5919, !dbg !5817
	store i32  %18, i32* %..inline.addr.3, align 4, !tbaa !5919, !dbg !5817
	store i32 13, i32* %..inline.addr.4, align 4, !tbaa !5919, !dbg !5817
	%19 = bitcast [3 x i32]* %..inline.addr.5 to i32*, !dbg !5818
	store i32 0, i32*  %19, align 4, !tbaa !5915, !dbg !5818
	%20 = bitcast [3 x i32]* %..inline.addr.5 to i8*, !dbg !5819
	%21 = getelementptr i8, i8*  %20, i64 4, !dbg !5819
	%22 = bitcast i8*  %21 to i32*, !dbg !5819
	store i32 0, i32*  %22, align 4, !tbaa !5915, !dbg !5819
	%23 = getelementptr i8, i8*  %20, i64 8, !dbg !5819
	%24 = bitcast i8*  %23 to i32*, !dbg !5819
	store i32 0, i32*  %24, align 4, !tbaa !5915, !dbg !5819
	%25 = icmp sge i32  %16, 0, !dbg !5819
	br i1  %25, label %L..inline.69017, label %L.B1173, !dbg !5819
L.B1173:
	store i32 4, i32* %..inline.addr.4, align 4, !tbaa !5919, !dbg !5820
	%26 = bitcast [3 x i32]* %..inline.addr.5 to i32*, !dbg !5821
	store i32 1, i32*  %26, align 4, !tbaa !5915, !dbg !5821
	br label %L..inline.69017
L..inline.69017:
	%27 = load i32, i32* %..inline.addr.1, align 4, !tbaa !5919, !dbg !5822
	%28 = load %struct._Z6FsGridISt5arrayIdLm3EELi2EE*, %struct._Z6FsGridISt5arrayIdLm3EELi2EE** %..inline.addr, align 8, !tbaa !5914, !dbg !5822
	%29 = bitcast %struct._Z6FsGridISt5arrayIdLm3EELi2EE*  %28 to i8*, !dbg !5822
	%30 = getelementptr i8, i8*  %29, i64 264, !dbg !5822
	%31 = bitcast i8*  %30 to i32*, !dbg !5822
	%32 = load i32, i32*  %31, align 4, !tbaa !5915, !dbg !5822
	%33 = icmp slt i32  %27,  %32, !dbg !5822
	br i1  %33, label %L..inline.69035, label %L.B1174, !dbg !5822
L.B1174:
	%34 = load i32, i32* %..inline.addr.4, align 4, !tbaa !5919, !dbg !5822
	%35 = add i32  %34, 9, !dbg !5822
	store i32  %35, i32* %..inline.addr.4, align 4, !tbaa !5919, !dbg !5822
	%36 = bitcast [3 x i32]* %..inline.addr.5 to i32*, !dbg !5823
	store i32 -1, i32*  %36, align 4, !tbaa !5915, !dbg !5823
	br label %L..inline.69035
L..inline.69035:
	%37 = load i32, i32* %..inline.addr.2, align 4, !tbaa !5919, !dbg !5824
	%38 = icmp sge i32  %37, 0, !dbg !5824
	br i1  %38, label %L..inline.69037, label %L.B1175, !dbg !5824
L.B1175:
	%39 = load i32, i32* %..inline.addr.4, align 4, !tbaa !5919, !dbg !5824
	%40 = sub i32  %39, 3, !dbg !5824
	store i32  %40, i32* %..inline.addr.4, align 4, !tbaa !5919, !dbg !5824
	%41 = bitcast [3 x i32]* %..inline.addr.5 to i8*, !dbg !5825
	%42 = getelementptr i8, i8*  %41, i64 4, !dbg !5825
	%43 = bitcast i8*  %42 to i32*, !dbg !5825
	store i32 1, i32*  %43, align 4, !tbaa !5915, !dbg !5825
	br label %L..inline.69037
L..inline.69037:
	%44 = load i32, i32* %..inline.addr.2, align 4, !tbaa !5919, !dbg !5826
	%45 = load %struct._Z6FsGridISt5arrayIdLm3EELi2EE*, %struct._Z6FsGridISt5arrayIdLm3EELi2EE** %..inline.addr, align 8, !tbaa !5914, !dbg !5826
	%46 = bitcast %struct._Z6FsGridISt5arrayIdLm3EELi2EE*  %45 to i8*, !dbg !5826
	%47 = getelementptr i8, i8*  %46, i64 268, !dbg !5826
	%48 = bitcast i8*  %47 to i32*, !dbg !5826
	%49 = load i32, i32*  %48, align 4, !tbaa !5915, !dbg !5826
	%50 = icmp slt i32  %44,  %49, !dbg !5826
	br i1  %50, label %L..inline.69054, label %L.B1176, !dbg !5826
L.B1176:
	%51 = load i32, i32* %..inline.addr.4, align 4, !tbaa !5919, !dbg !5826
	%52 = add i32  %51, 3, !dbg !5826
	store i32  %52, i32* %..inline.addr.4, align 4, !tbaa !5919, !dbg !5826
	%53 = bitcast [3 x i32]* %..inline.addr.5 to i8*, !dbg !5827
	%54 = getelementptr i8, i8*  %53, i64 4, !dbg !5827
	%55 = bitcast i8*  %54 to i32*, !dbg !5827
	store i32 -1, i32*  %55, align 4, !tbaa !5915, !dbg !5827
	br label %L..inline.69054
L..inline.69054:
	%56 = load i32, i32* %..inline.addr.3, align 4, !tbaa !5919, !dbg !5828
	%57 = icmp sge i32  %56, 0, !dbg !5828
	br i1  %57, label %L..inline.69056, label %L.B1177, !dbg !5828
L.B1177:
	%58 = load i32, i32* %..inline.addr.4, align 4, !tbaa !5919, !dbg !5828
	%59 = sub i32  %58, 1, !dbg !5828
	store i32  %59, i32* %..inline.addr.4, align 4, !tbaa !5919, !dbg !5828
	%60 = bitcast [3 x i32]* %..inline.addr.5 to i8*, !dbg !5829
	%61 = getelementptr i8, i8*  %60, i64 8, !dbg !5829
	%62 = bitcast i8*  %61 to i32*, !dbg !5829
	store i32 1, i32*  %62, align 4, !tbaa !5915, !dbg !5829
	br label %L..inline.69056
L..inline.69056:
	%63 = load i32, i32* %..inline.addr.3, align 4, !tbaa !5919, !dbg !5830
	%64 = load %struct._Z6FsGridISt5arrayIdLm3EELi2EE*, %struct._Z6FsGridISt5arrayIdLm3EELi2EE** %..inline.addr, align 8, !tbaa !5914, !dbg !5830
	%65 = bitcast %struct._Z6FsGridISt5arrayIdLm3EELi2EE*  %64 to i8*, !dbg !5830
	%66 = getelementptr i8, i8*  %65, i64 272, !dbg !5830
	%67 = bitcast i8*  %66 to i32*, !dbg !5830
	%68 = load i32, i32*  %67, align 4, !tbaa !5915, !dbg !5830
	%69 = icmp slt i32  %63,  %68, !dbg !5830
	br i1  %69, label %L..inline.69073, label %L.B1178, !dbg !5830
L.B1178:
	%70 = load i32, i32* %..inline.addr.4, align 4, !tbaa !5919, !dbg !5830
	%71 = add i32  %70, 1, !dbg !5830
	store i32  %71, i32* %..inline.addr.4, align 4, !tbaa !5919, !dbg !5830
	%72 = bitcast [3 x i32]* %..inline.addr.5 to i8*, !dbg !5831
	%73 = getelementptr i8, i8*  %72, i64 8, !dbg !5831
	%74 = bitcast i8*  %73 to i32*, !dbg !5831
	store i32 -1, i32*  %74, align 4, !tbaa !5915, !dbg !5831
	br label %L..inline.69073
L..inline.69073:
	%75 = load i32, i32* %..inline.addr.4, align 4, !tbaa !5919, !dbg !5832
	%76 = icmp eq i32  %75, 13, !dbg !5832
	br i1  %76, label %L..inline.69074, label %L.B1179, !dbg !5832
L.B1179:
	%77 = sext i32  %75 to i64, !dbg !5833
	%78 = load %struct._Z6FsGridISt5arrayIdLm3EELi2EE*, %struct._Z6FsGridISt5arrayIdLm3EELi2EE** %..inline.addr, align 8, !tbaa !5914, !dbg !5833
	%79 = bitcast %struct._Z6FsGridISt5arrayIdLm3EELi2EE*  %78 to i8*, !dbg !5833
	%80 = getelementptr i8, i8*  %79, i64 92, !dbg !5833
	%81 = bitcast i8*  %80 to i32*, !dbg !5833
	%82 = getelementptr i32, i32*  %81, i64  %77, !dbg !5833
	%83 = load i32, i32*  %82, align 4, !tbaa !5915, !dbg !5833
	%84 = icmp ne i32  %83, -2, !dbg !5833
	br i1  %84, label %L..inline.69091, label %L.B1180, !dbg !5833
L.B1180:
	%85 = bitcast %struct._ZSt5arrayIdLm3EE** %..inline.addr.6 to i8**, !dbg !5833
	store i8* null, i8**  %85, align 8, !tbaa !5914, !dbg !5833
	br label %L..inline.69278, !dbg !5834
L..inline.69091:
	%86 = load i32, i32* %..inline.addr.4, align 4, !tbaa !5919, !dbg !5835
	%87 = sext i32  %86 to i64, !dbg !5835
	%88 = load %struct._Z6FsGridISt5arrayIdLm3EELi2EE*, %struct._Z6FsGridISt5arrayIdLm3EELi2EE** %..inline.addr, align 8, !tbaa !5914, !dbg !5835
	%89 = bitcast %struct._Z6FsGridISt5arrayIdLm3EELi2EE*  %88 to i8*, !dbg !5835
	%90 = getelementptr i8, i8*  %89, i64 92, !dbg !5835
	%91 = bitcast i8*  %90 to i32*, !dbg !5835
	%92 = getelementptr i32, i32*  %91, i64  %87, !dbg !5835
	%93 = load i32, i32*  %92, align 4, !tbaa !5915, !dbg !5835
	%94 = getelementptr i8, i8*  %89, i64 56, !dbg !5835
	%95 = bitcast i8*  %94 to i32*, !dbg !5835
	%96 = load i32, i32*  %95, align 4, !tbaa !5915, !dbg !5835
	%97 = icmp ne i32  %93,  %96, !dbg !5835
	br i1  %97, label %L..inline.69109, label %L.B1181, !dbg !5835
L.B1181:
	%98 = load i32, i32* %..inline.addr.1, align 4, !tbaa !5919, !dbg !5836
	%99 = bitcast [3 x i32]* %..inline.addr.5 to i32*, !dbg !5836
	%100 = load i32, i32*  %99, align 4, !tbaa !5915, !dbg !5836
	%101 = bitcast %struct._Z6FsGridISt5arrayIdLm3EELi2EE*  %88 to i8*, !dbg !5836
	%102 = getelementptr i8, i8*  %101, i64 264, !dbg !5836
	%103 = bitcast i8*  %102 to i32*, !dbg !5836
	%104 = load i32, i32*  %103, align 4, !tbaa !5915, !dbg !5836
	%105 = mul i32  %100,  %104, !dbg !5836
	%106 = add i32  %98,  %105, !dbg !5836
	store i32  %106, i32* %..inline.addr.1, align 4, !tbaa !5919, !dbg !5836
	%107 = load i32, i32* %..inline.addr.2, align 4, !tbaa !5919, !dbg !5837
	%108 = bitcast [3 x i32]* %..inline.addr.5 to i8*, !dbg !5837
	%109 = getelementptr i8, i8*  %108, i64 4, !dbg !5837
	%110 = bitcast i8*  %109 to i32*, !dbg !5837
	%111 = load i32, i32*  %110, align 4, !tbaa !5915, !dbg !5837
	%112 = getelementptr i8, i8*  %101, i64 268, !dbg !5837
	%113 = bitcast i8*  %112 to i32*, !dbg !5837
	%114 = load i32, i32*  %113, align 4, !tbaa !5915, !dbg !5837
	%115 = mul i32  %111,  %114, !dbg !5837
	%116 = add i32  %107,  %115, !dbg !5837
	store i32  %116, i32* %..inline.addr.2, align 4, !tbaa !5919, !dbg !5837
	%117 = load i32, i32* %..inline.addr.3, align 4, !tbaa !5919, !dbg !5838
	%118 = getelementptr i8, i8*  %108, i64 8, !dbg !5838
	%119 = bitcast i8*  %118 to i32*, !dbg !5838
	%120 = load i32, i32*  %119, align 4, !tbaa !5915, !dbg !5838
	%121 = getelementptr i8, i8*  %101, i64 272, !dbg !5838
	%122 = bitcast i8*  %121 to i32*, !dbg !5838
	%123 = load i32, i32*  %122, align 4, !tbaa !5915, !dbg !5838
	%124 = mul i32  %120,  %123, !dbg !5838
	%125 = add i32  %117,  %124, !dbg !5838
	store i32  %125, i32* %..inline.addr.3, align 4, !tbaa !5919, !dbg !5838
	br label %L..inline.69109
L..inline.69109:
	br label %L..inline.69074
L..inline.69074:
	store i64 0, i64* %..inline.addr.7, align 8, !tbaa !5921, !dbg !5839
	%126 = load %struct._Z6FsGridISt5arrayIdLm3EELi2EE*, %struct._Z6FsGridISt5arrayIdLm3EELi2EE** %..inline.addr, align 8, !tbaa !5914, !dbg !5839
	%127 = bitcast %struct._Z6FsGridISt5arrayIdLm3EELi2EE*  %126 to i8*, !dbg !5839
	%128 = getelementptr i8, i8*  %127, i64 260, !dbg !5839
	%129 = bitcast i8*  %128 to i32*, !dbg !5839
	%130 = load i32, i32*  %129, align 4, !tbaa !5915, !dbg !5839
	%131 = icmp sle i32  %130, 1, !dbg !5839
	br i1  %131, label %L..inline.69183, label %L.B1182, !dbg !5839
L.B1182:
	%132 = load i32, i32* %..inline.addr.3, align 4, !tbaa !5919, !dbg !5839
	%133 = add i32  %132, 2, !dbg !5839
	%134 = bitcast %struct._Z6FsGridISt5arrayIdLm3EELi2EE*  %126 to i8*, !dbg !5839
	%135 = getelementptr i8, i8*  %134, i64 280, !dbg !5839
	%136 = bitcast i8*  %135 to i32*, !dbg !5839
	%137 = load i32, i32*  %136, align 4, !tbaa !5915, !dbg !5839
	%138 = getelementptr i8, i8*  %134, i64 276, !dbg !5839
	%139 = bitcast i8*  %138 to i32*, !dbg !5839
	%140 = load i32, i32*  %139, align 4, !tbaa !5915, !dbg !5839
	%141 = mul i32  %137,  %140, !dbg !5839
	%142 = mul i32  %133,  %141, !dbg !5839
	%143 = sext i32  %142 to i64, !dbg !5839
	store i64  %143, i64* %..inline.addr.7, align 8, !tbaa !5921, !dbg !5839
	br label %L..inline.69183
L..inline.69183:
	%144 = load %struct._Z6FsGridISt5arrayIdLm3EELi2EE*, %struct._Z6FsGridISt5arrayIdLm3EELi2EE** %..inline.addr, align 8, !tbaa !5914, !dbg !5839
	%145 = bitcast %struct._Z6FsGridISt5arrayIdLm3EELi2EE*  %144 to i8*, !dbg !5839
	%146 = getelementptr i8, i8*  %145, i64 256, !dbg !5839
	%147 = bitcast i8*  %146 to i32*, !dbg !5839
	%148 = load i32, i32*  %147, align 4, !tbaa !5915, !dbg !5839
	%149 = icmp sle i32  %148, 1, !dbg !5839
	br i1  %149, label %L..inline.69232, label %L.B1183, !dbg !5839
L.B1183:
	%150 = load i64, i64* %..inline.addr.7, align 8, !tbaa !5921, !dbg !5839
	%151 = bitcast %struct._Z6FsGridISt5arrayIdLm3EELi2EE*  %144 to i8*, !dbg !5839
	%152 = getelementptr i8, i8*  %151, i64 276, !dbg !5839
	%153 = bitcast i8*  %152 to i32*, !dbg !5839
	%154 = load i32, i32*  %153, align 4, !tbaa !5915, !dbg !5839
	%155 = load i32, i32* %..inline.addr.2, align 4, !tbaa !5919, !dbg !5839
	%156 = add i32  %155, 2, !dbg !5839
	%157 = mul i32  %154,  %156, !dbg !5839
	%158 = sext i32  %157 to i64, !dbg !5839
	%159 = add i64  %150,  %158, !dbg !5839
	store i64  %159, i64* %..inline.addr.7, align 8, !tbaa !5921, !dbg !5839
	br label %L..inline.69232
L..inline.69232:
	%160 = load %struct._Z6FsGridISt5arrayIdLm3EELi2EE*, %struct._Z6FsGridISt5arrayIdLm3EELi2EE** %..inline.addr, align 8, !tbaa !5914, !dbg !5839
	%161 = bitcast %struct._Z6FsGridISt5arrayIdLm3EELi2EE*  %160 to i8*, !dbg !5839
	%162 = getelementptr i8, i8*  %161, i64 252, !dbg !5839
	%163 = bitcast i8*  %162 to i32*, !dbg !5839
	%164 = load i32, i32*  %163, align 4, !tbaa !5915, !dbg !5839
	%165 = icmp sle i32  %164, 1, !dbg !5839
	%166 = zext i1  %165 to i32, !dbg !5839
	%167 = trunc i32  %166 to i1, !dbg !5839
	%168 = load i64, i64* %..inline.addr.7, align 8, !tbaa !5921, !dbg !5839
	%169 = load i32, i32* %..inline.addr.1, align 4, !tbaa !5919, !dbg !5839
	%170 = sext i32  %169 to i64, !dbg !5839
	%171 = add i64  %170, 2, !dbg !5839
	%172 = add i64  %168,  %171, !dbg !5839
	%173 = select i1  %167, i64  %168, i64  %172, !dbg !5839
	%174 = getelementptr i8, i8*  %161, i64 744, !dbg !5840
	%175 = bitcast i8*  %174 to i8**, !dbg !5840
	%176 = load i8*, i8**  %175, align 8, !tbaa !5914, !dbg !5840
	%177 = mul i64  %173, 24, !dbg !5840
	%178 = getelementptr i8, i8*  %176, i64  %177, !dbg !5840
	%179 = bitcast %struct._ZSt5arrayIdLm3EE** %..inline.addr.6 to i8**, !dbg !5840
	store i8*  %178, i8**  %179, align 8, !tbaa !5914, !dbg !5840
	br label %L..inline.69278
L..inline.69278:
	%180 = load %struct._ZSt5arrayIdLm3EE*, %struct._ZSt5arrayIdLm3EE** %..inline.addr.6, align 8, !tbaa !5914, !dbg !5841
	%181 = bitcast %struct._ZSt5arrayIdLm3EE*  %180 to i8*, !dbg !5841
	call void @llvm.dbg.declare (metadata %struct._ZSt5arrayIdLm3EE** %perBGrid0.addr, metadata !5842, metadata !5787), !dbg !3835
	%182 = bitcast %struct._ZSt5arrayIdLm3EE** %perBGrid0.addr to i8**, !dbg !5841
	store i8*  %181, i8**  %182, align 8, !tbaa !5914, !dbg !5841
	%183 = load i8, i8* %doX.addr, align 1, !tbaa !5915, !dbg !5843
	%184 = sext i8  %183 to i32, !dbg !5843
	%185 = icmp eq i32  %184, 0, !dbg !5843
	br i1  %185, label %L.B0000, label %L.B1184, !dbg !5843
L.B1184:
	%186 = load i32*, i32** %RKCase.addr, align 8, !tbaa !5914, !dbg !5844
	%187 = load i32, i32*  %186, align 4, !tbaa !5915, !dbg !5844
	store i32  %187, i32* %.D0000.addr, align 4, !tbaa !5919, !dbg !5844
	%188 = icmp eq i32  %187, 0, !dbg !5844
	br i1  %188, label %L.B0001, label %L.B1185, !dbg !5844
L.B1185:
	%189 = icmp eq i32  %187, 1, !dbg !5844
	br i1  %189, label %L.B0002, label %L.B1186, !dbg !5844
L.B1186:
	%190 = icmp ne i32  %187, 2, !dbg !5844
	br i1  %190, label %L.B0004, label %L.B0003, !dbg !5844
L.B0003:
	%191 = load %struct._Z6FsGridISt5arrayIdLm3EELi2EE*, %struct._Z6FsGridISt5arrayIdLm3EELi2EE** %EDt2Grid.addr, align 8, !tbaa !5914, !dbg !5845
	%192 = bitcast %struct._Z6FsGridISt5arrayIdLm3EELi2EE*  %191 to i8*, !dbg !5845
	%193 = bitcast %struct._Z6FsGridISt5arrayIdLm3EELi2EE** %..inline.addr.8 to i8**, !dbg !5845
	store i8*  %192, i8**  %193, align 8, !tbaa !5914, !dbg !5845
	%194 = load i32, i32* %i.addr, align 4, !tbaa !5919, !dbg !5845
	store i32  %194, i32* %..inline.addr.9, align 4, !tbaa !5919, !dbg !5845
	%195 = load i32, i32* %j.addr, align 4, !tbaa !5919, !dbg !5845
	store i32  %195, i32* %..inline.addr.390, align 4, !tbaa !5919, !dbg !5845
	%196 = load i32, i32* %k.addr, align 4, !tbaa !5919, !dbg !5845
	store i32  %196, i32* %..inline.addr.400, align 4, !tbaa !5919, !dbg !5845
	store i32 13, i32* %..inline.addr.410, align 4, !tbaa !5919, !dbg !5845
	%197 = bitcast [3 x i32]* %..inline.addr.420 to i32*, !dbg !5818
	store i32 0, i32*  %197, align 4, !tbaa !5915, !dbg !5818
	%198 = bitcast [3 x i32]* %..inline.addr.420 to i8*, !dbg !5819
	%199 = getelementptr i8, i8*  %198, i64 4, !dbg !5819
	%200 = bitcast i8*  %199 to i32*, !dbg !5819
	store i32 0, i32*  %200, align 4, !tbaa !5915, !dbg !5819
	%201 = getelementptr i8, i8*  %198, i64 8, !dbg !5819
	%202 = bitcast i8*  %201 to i32*, !dbg !5819
	store i32 0, i32*  %202, align 4, !tbaa !5915, !dbg !5819
	%203 = icmp sge i32  %194, 0, !dbg !5819
	br i1  %203, label %L..inline.71329, label %L.B1187, !dbg !5819
L.B1187:
	store i32 4, i32* %..inline.addr.410, align 4, !tbaa !5919, !dbg !5820
	%204 = bitcast [3 x i32]* %..inline.addr.420 to i32*, !dbg !5821
	store i32 1, i32*  %204, align 4, !tbaa !5915, !dbg !5821
	br label %L..inline.71329
L..inline.71329:
	%205 = load i32, i32* %..inline.addr.9, align 4, !tbaa !5919, !dbg !5822
	%206 = load %struct._Z6FsGridISt5arrayIdLm3EELi2EE*, %struct._Z6FsGridISt5arrayIdLm3EELi2EE** %..inline.addr.8, align 8, !tbaa !5914, !dbg !5822
	%207 = bitcast %struct._Z6FsGridISt5arrayIdLm3EELi2EE*  %206 to i8*, !dbg !5822
	%208 = getelementptr i8, i8*  %207, i64 264, !dbg !5822
	%209 = bitcast i8*  %208 to i32*, !dbg !5822
	%210 = load i32, i32*  %209, align 4, !tbaa !5915, !dbg !5822
	%211 = icmp slt i32  %205,  %210, !dbg !5822
	br i1  %211, label %L..inline.71347, label %L.B1188, !dbg !5822
L.B1188:
	%212 = load i32, i32* %..inline.addr.410, align 4, !tbaa !5919, !dbg !5822
	%213 = add i32  %212, 9, !dbg !5822
	store i32  %213, i32* %..inline.addr.410, align 4, !tbaa !5919, !dbg !5822
	%214 = bitcast [3 x i32]* %..inline.addr.420 to i32*, !dbg !5823
	store i32 -1, i32*  %214, align 4, !tbaa !5915, !dbg !5823
	br label %L..inline.71347
L..inline.71347:
	%215 = load i32, i32* %..inline.addr.390, align 4, !tbaa !5919, !dbg !5824
	%216 = icmp sge i32  %215, 0, !dbg !5824
	br i1  %216, label %L..inline.71349, label %L.B1189, !dbg !5824
L.B1189:
	%217 = load i32, i32* %..inline.addr.410, align 4, !tbaa !5919, !dbg !5824
	%218 = sub i32  %217, 3, !dbg !5824
	store i32  %218, i32* %..inline.addr.410, align 4, !tbaa !5919, !dbg !5824
	%219 = bitcast [3 x i32]* %..inline.addr.420 to i8*, !dbg !5825
	%220 = getelementptr i8, i8*  %219, i64 4, !dbg !5825
	%221 = bitcast i8*  %220 to i32*, !dbg !5825
	store i32 1, i32*  %221, align 4, !tbaa !5915, !dbg !5825
	br label %L..inline.71349
L..inline.71349:
	%222 = load i32, i32* %..inline.addr.390, align 4, !tbaa !5919, !dbg !5826
	%223 = load %struct._Z6FsGridISt5arrayIdLm3EELi2EE*, %struct._Z6FsGridISt5arrayIdLm3EELi2EE** %..inline.addr.8, align 8, !tbaa !5914, !dbg !5826
	%224 = bitcast %struct._Z6FsGridISt5arrayIdLm3EELi2EE*  %223 to i8*, !dbg !5826
	%225 = getelementptr i8, i8*  %224, i64 268, !dbg !5826
	%226 = bitcast i8*  %225 to i32*, !dbg !5826
	%227 = load i32, i32*  %226, align 4, !tbaa !5915, !dbg !5826
	%228 = icmp slt i32  %222,  %227, !dbg !5826
	br i1  %228, label %L..inline.71366, label %L.B1190, !dbg !5826
L.B1190:
	%229 = load i32, i32* %..inline.addr.410, align 4, !tbaa !5919, !dbg !5826
	%230 = add i32  %229, 3, !dbg !5826
	store i32  %230, i32* %..inline.addr.410, align 4, !tbaa !5919, !dbg !5826
	%231 = bitcast [3 x i32]* %..inline.addr.420 to i8*, !dbg !5827
	%232 = getelementptr i8, i8*  %231, i64 4, !dbg !5827
	%233 = bitcast i8*  %232 to i32*, !dbg !5827
	store i32 -1, i32*  %233, align 4, !tbaa !5915, !dbg !5827
	br label %L..inline.71366
L..inline.71366:
	%234 = load i32, i32* %..inline.addr.400, align 4, !tbaa !5919, !dbg !5828
	%235 = icmp sge i32  %234, 0, !dbg !5828
	br i1  %235, label %L..inline.71368, label %L.B1191, !dbg !5828
L.B1191:
	%236 = load i32, i32* %..inline.addr.410, align 4, !tbaa !5919, !dbg !5828
	%237 = sub i32  %236, 1, !dbg !5828
	store i32  %237, i32* %..inline.addr.410, align 4, !tbaa !5919, !dbg !5828
	%238 = bitcast [3 x i32]* %..inline.addr.420 to i8*, !dbg !5829
	%239 = getelementptr i8, i8*  %238, i64 8, !dbg !5829
	%240 = bitcast i8*  %239 to i32*, !dbg !5829
	store i32 1, i32*  %240, align 4, !tbaa !5915, !dbg !5829
	br label %L..inline.71368
L..inline.71368:
	%241 = load i32, i32* %..inline.addr.400, align 4, !tbaa !5919, !dbg !5830
	%242 = load %struct._Z6FsGridISt5arrayIdLm3EELi2EE*, %struct._Z6FsGridISt5arrayIdLm3EELi2EE** %..inline.addr.8, align 8, !tbaa !5914, !dbg !5830
	%243 = bitcast %struct._Z6FsGridISt5arrayIdLm3EELi2EE*  %242 to i8*, !dbg !5830
	%244 = getelementptr i8, i8*  %243, i64 272, !dbg !5830
	%245 = bitcast i8*  %244 to i32*, !dbg !5830
	%246 = load i32, i32*  %245, align 4, !tbaa !5915, !dbg !5830
	%247 = icmp slt i32  %241,  %246, !dbg !5830
	br i1  %247, label %L..inline.71385, label %L.B1192, !dbg !5830
L.B1192:
	%248 = load i32, i32* %..inline.addr.410, align 4, !tbaa !5919, !dbg !5830
	%249 = add i32  %248, 1, !dbg !5830
	store i32  %249, i32* %..inline.addr.410, align 4, !tbaa !5919, !dbg !5830
	%250 = bitcast [3 x i32]* %..inline.addr.420 to i8*, !dbg !5831
	%251 = getelementptr i8, i8*  %250, i64 8, !dbg !5831
	%252 = bitcast i8*  %251 to i32*, !dbg !5831
	store i32 -1, i32*  %252, align 4, !tbaa !5915, !dbg !5831
	br label %L..inline.71385
L..inline.71385:
	%253 = load i32, i32* %..inline.addr.410, align 4, !tbaa !5919, !dbg !5832
	%254 = icmp eq i32  %253, 13, !dbg !5832
	br i1  %254, label %L..inline.71386, label %L.B1193, !dbg !5832
L.B1193:
	%255 = sext i32  %253 to i64, !dbg !5833
	%256 = load %struct._Z6FsGridISt5arrayIdLm3EELi2EE*, %struct._Z6FsGridISt5arrayIdLm3EELi2EE** %..inline.addr.8, align 8, !tbaa !5914, !dbg !5833
	%257 = bitcast %struct._Z6FsGridISt5arrayIdLm3EELi2EE*  %256 to i8*, !dbg !5833
	%258 = getelementptr i8, i8*  %257, i64 92, !dbg !5833
	%259 = bitcast i8*  %258 to i32*, !dbg !5833
	%260 = getelementptr i32, i32*  %259, i64  %255, !dbg !5833
	%261 = load i32, i32*  %260, align 4, !tbaa !5915, !dbg !5833
	%262 = icmp ne i32  %261, -2, !dbg !5833
	br i1  %262, label %L..inline.71403, label %L.B1194, !dbg !5833
L.B1194:
	%263 = bitcast %struct._ZSt5arrayIdLm3EE** %..inline.addr.430 to i8**, !dbg !5833
	store i8* null, i8**  %263, align 8, !tbaa !5914, !dbg !5833
	br label %L..inline.71590, !dbg !5834
L.B0004:
	%264 = bitcast [35 x i8]* @.S51773 to i8*, !dbg !5846
	%265 = icmp ne i8*  %264,  null, !dbg !5846
	br i1  %265, label %L..inline.72208, label %L.B1195, !dbg !5846
L.B1195:
	%266 = bitcast %struct._ZSo* @_ZSt4cerr to i8*, !dbg !5847
	%267 = bitcast %struct._ZSo* @_ZSt4cerr to i8**, !dbg !5847
	%268 = load i8*, i8**  %267, align 8, !tbaa !5914, !dbg !5847
	%269 = getelementptr i8, i8*  %268, i64 18446744073709551592, !dbg !5847
	%270 = bitcast i8*  %269 to i64*, !dbg !5847
	%271 = load i64, i64*  %270, align 8, !tbaa !5915, !dbg !5847
	%272 = getelementptr i8, i8*  %266, i64  %271, !dbg !5847
	%273 = bitcast %struct._ZSt9basic_iosIcSt11char_traitsIcEE** %..inline.addr.440 to i8**, !dbg !5847
	store i8*  %272, i8**  %273, align 8, !tbaa !5914, !dbg !5847
	%274 = load %struct._ZSt9basic_iosIcSt11char_traitsIcEE*, %struct._ZSt9basic_iosIcSt11char_traitsIcEE** %..inline.addr.440, align 8, !tbaa !5914, !dbg !5847
	%275 = bitcast %struct._ZSt9basic_iosIcSt11char_traitsIcEE*  %274 to i8*, !dbg !5847
	%276 = bitcast %struct._ZSt9basic_iosIcSt11char_traitsIcEE** %..inline.addr.450 to i8**, !dbg !5847
	store i8*  %275, i8**  %276, align 8, !tbaa !5914, !dbg !5847
	%277 = load %struct._ZSt9basic_iosIcSt11char_traitsIcEE*, %struct._ZSt9basic_iosIcSt11char_traitsIcEE** %..inline.addr.450, align 8, !tbaa !5914, !dbg !5847
	%278 = bitcast %struct._ZSt9basic_iosIcSt11char_traitsIcEE*  %277 to i8*, !dbg !5847
	%279 = getelementptr i8, i8*  %278, i64 32, !dbg !5847
	%280 = bitcast i8*  %279 to i32*, !dbg !5847
	%281 = load i32, i32*  %280, align 4, !tbaa !5915, !dbg !5847
	%282 = or i32  %281, 1, !dbg !5847
	call void  @_ZNSt9basic_iosIcSt11char_traitsIcEE5clearESt12_Ios_Iostate (%struct._ZSt9basic_iosIcSt11char_traitsIcEE*  %274, i32  %282), !dbg !5847
	br label %L..inline.72229, !dbg !5847
L.B0001:
	%283 = load %struct._Z6FsGridISt5arrayIdLm3EELi2EE*, %struct._Z6FsGridISt5arrayIdLm3EELi2EE** %EGrid.addr, align 8, !tbaa !5914, !dbg !5850
	%284 = bitcast %struct._Z6FsGridISt5arrayIdLm3EELi2EE*  %283 to i8*, !dbg !5850
	%285 = bitcast %struct._Z6FsGridISt5arrayIdLm3EELi2EE** %..inline.addr.470 to i8**, !dbg !5850
	store i8*  %284, i8**  %285, align 8, !tbaa !5914, !dbg !5850
	%286 = load i32, i32* %i.addr, align 4, !tbaa !5919, !dbg !5850
	store i32  %286, i32* %..inline.addr.480, align 4, !tbaa !5919, !dbg !5850
	%287 = load i32, i32* %j.addr, align 4, !tbaa !5919, !dbg !5850
	store i32  %287, i32* %..inline.addr.490, align 4, !tbaa !5919, !dbg !5850
	%288 = load i32, i32* %k.addr, align 4, !tbaa !5919, !dbg !5850
	store i32  %288, i32* %..inline.addr.500, align 4, !tbaa !5919, !dbg !5850
	store i32 13, i32* %..inline.addr.510, align 4, !tbaa !5919, !dbg !5850
	%289 = bitcast [3 x i32]* %..inline.addr.520 to i32*, !dbg !5818
	store i32 0, i32*  %289, align 4, !tbaa !5915, !dbg !5818
	%290 = bitcast [3 x i32]* %..inline.addr.520 to i8*, !dbg !5819
	%291 = getelementptr i8, i8*  %290, i64 4, !dbg !5819
	%292 = bitcast i8*  %291 to i32*, !dbg !5819
	store i32 0, i32*  %292, align 4, !tbaa !5915, !dbg !5819
	%293 = getelementptr i8, i8*  %290, i64 8, !dbg !5819
	%294 = bitcast i8*  %293 to i32*, !dbg !5819
	store i32 0, i32*  %294, align 4, !tbaa !5915, !dbg !5819
	%295 = icmp sge i32  %286, 0, !dbg !5819
	br i1  %295, label %L..inline.69284, label %L.B1196, !dbg !5819
L.B1196:
	store i32 4, i32* %..inline.addr.510, align 4, !tbaa !5919, !dbg !5820
	%296 = bitcast [3 x i32]* %..inline.addr.520 to i32*, !dbg !5821
	store i32 1, i32*  %296, align 4, !tbaa !5915, !dbg !5821
	br label %L..inline.69284
L..inline.69284:
	%297 = load i32, i32* %..inline.addr.480, align 4, !tbaa !5919, !dbg !5822
	%298 = load %struct._Z6FsGridISt5arrayIdLm3EELi2EE*, %struct._Z6FsGridISt5arrayIdLm3EELi2EE** %..inline.addr.470, align 8, !tbaa !5914, !dbg !5822
	%299 = bitcast %struct._Z6FsGridISt5arrayIdLm3EELi2EE*  %298 to i8*, !dbg !5822
	%300 = getelementptr i8, i8*  %299, i64 264, !dbg !5822
	%301 = bitcast i8*  %300 to i32*, !dbg !5822
	%302 = load i32, i32*  %301, align 4, !tbaa !5915, !dbg !5822
	%303 = icmp slt i32  %297,  %302, !dbg !5822
	br i1  %303, label %L..inline.69302, label %L.B1197, !dbg !5822
L.B1197:
	%304 = load i32, i32* %..inline.addr.510, align 4, !tbaa !5919, !dbg !5822
	%305 = add i32  %304, 9, !dbg !5822
	store i32  %305, i32* %..inline.addr.510, align 4, !tbaa !5919, !dbg !5822
	%306 = bitcast [3 x i32]* %..inline.addr.520 to i32*, !dbg !5823
	store i32 -1, i32*  %306, align 4, !tbaa !5915, !dbg !5823
	br label %L..inline.69302
L..inline.69302:
	%307 = load i32, i32* %..inline.addr.490, align 4, !tbaa !5919, !dbg !5824
	%308 = icmp sge i32  %307, 0, !dbg !5824
	br i1  %308, label %L..inline.69304, label %L.B1198, !dbg !5824
L.B1198:
	%309 = load i32, i32* %..inline.addr.510, align 4, !tbaa !5919, !dbg !5824
	%310 = sub i32  %309, 3, !dbg !5824
	store i32  %310, i32* %..inline.addr.510, align 4, !tbaa !5919, !dbg !5824
	%311 = bitcast [3 x i32]* %..inline.addr.520 to i8*, !dbg !5825
	%312 = getelementptr i8, i8*  %311, i64 4, !dbg !5825
	%313 = bitcast i8*  %312 to i32*, !dbg !5825
	store i32 1, i32*  %313, align 4, !tbaa !5915, !dbg !5825
	br label %L..inline.69304
L..inline.69304:
	%314 = load i32, i32* %..inline.addr.490, align 4, !tbaa !5919, !dbg !5826
	%315 = load %struct._Z6FsGridISt5arrayIdLm3EELi2EE*, %struct._Z6FsGridISt5arrayIdLm3EELi2EE** %..inline.addr.470, align 8, !tbaa !5914, !dbg !5826
	%316 = bitcast %struct._Z6FsGridISt5arrayIdLm3EELi2EE*  %315 to i8*, !dbg !5826
	%317 = getelementptr i8, i8*  %316, i64 268, !dbg !5826
	%318 = bitcast i8*  %317 to i32*, !dbg !5826
	%319 = load i32, i32*  %318, align 4, !tbaa !5915, !dbg !5826
	%320 = icmp slt i32  %314,  %319, !dbg !5826
	br i1  %320, label %L..inline.69321, label %L.B1199, !dbg !5826
L.B1199:
	%321 = load i32, i32* %..inline.addr.510, align 4, !tbaa !5919, !dbg !5826
	%322 = add i32  %321, 3, !dbg !5826
	store i32  %322, i32* %..inline.addr.510, align 4, !tbaa !5919, !dbg !5826
	%323 = bitcast [3 x i32]* %..inline.addr.520 to i8*, !dbg !5827
	%324 = getelementptr i8, i8*  %323, i64 4, !dbg !5827
	%325 = bitcast i8*  %324 to i32*, !dbg !5827
	store i32 -1, i32*  %325, align 4, !tbaa !5915, !dbg !5827
	br label %L..inline.69321
L..inline.69321:
	%326 = load i32, i32* %..inline.addr.500, align 4, !tbaa !5919, !dbg !5828
	%327 = icmp sge i32  %326, 0, !dbg !5828
	br i1  %327, label %L..inline.69323, label %L.B1200, !dbg !5828
L.B1200:
	%328 = load i32, i32* %..inline.addr.510, align 4, !tbaa !5919, !dbg !5828
	%329 = sub i32  %328, 1, !dbg !5828
	store i32  %329, i32* %..inline.addr.510, align 4, !tbaa !5919, !dbg !5828
	%330 = bitcast [3 x i32]* %..inline.addr.520 to i8*, !dbg !5829
	%331 = getelementptr i8, i8*  %330, i64 8, !dbg !5829
	%332 = bitcast i8*  %331 to i32*, !dbg !5829
	store i32 1, i32*  %332, align 4, !tbaa !5915, !dbg !5829
	br label %L..inline.69323
L..inline.69323:
	%333 = load i32, i32* %..inline.addr.500, align 4, !tbaa !5919, !dbg !5830
	%334 = load %struct._Z6FsGridISt5arrayIdLm3EELi2EE*, %struct._Z6FsGridISt5arrayIdLm3EELi2EE** %..inline.addr.470, align 8, !tbaa !5914, !dbg !5830
	%335 = bitcast %struct._Z6FsGridISt5arrayIdLm3EELi2EE*  %334 to i8*, !dbg !5830
	%336 = getelementptr i8, i8*  %335, i64 272, !dbg !5830
	%337 = bitcast i8*  %336 to i32*, !dbg !5830
	%338 = load i32, i32*  %337, align 4, !tbaa !5915, !dbg !5830
	%339 = icmp slt i32  %333,  %338, !dbg !5830
	br i1  %339, label %L..inline.69340, label %L.B1201, !dbg !5830
L.B1201:
	%340 = load i32, i32* %..inline.addr.510, align 4, !tbaa !5919, !dbg !5830
	%341 = add i32  %340, 1, !dbg !5830
	store i32  %341, i32* %..inline.addr.510, align 4, !tbaa !5919, !dbg !5830
	%342 = bitcast [3 x i32]* %..inline.addr.520 to i8*, !dbg !5831
	%343 = getelementptr i8, i8*  %342, i64 8, !dbg !5831
	%344 = bitcast i8*  %343 to i32*, !dbg !5831
	store i32 -1, i32*  %344, align 4, !tbaa !5915, !dbg !5831
	br label %L..inline.69340
L..inline.69340:
	%345 = load i32, i32* %..inline.addr.510, align 4, !tbaa !5919, !dbg !5832
	%346 = icmp eq i32  %345, 13, !dbg !5832
	br i1  %346, label %L..inline.69341, label %L.B1202, !dbg !5832
L.B1202:
	%347 = sext i32  %345 to i64, !dbg !5833
	%348 = load %struct._Z6FsGridISt5arrayIdLm3EELi2EE*, %struct._Z6FsGridISt5arrayIdLm3EELi2EE** %..inline.addr.470, align 8, !tbaa !5914, !dbg !5833
	%349 = bitcast %struct._Z6FsGridISt5arrayIdLm3EELi2EE*  %348 to i8*, !dbg !5833
	%350 = getelementptr i8, i8*  %349, i64 92, !dbg !5833
	%351 = bitcast i8*  %350 to i32*, !dbg !5833
	%352 = getelementptr i32, i32*  %351, i64  %347, !dbg !5833
	%353 = load i32, i32*  %352, align 4, !tbaa !5915, !dbg !5833
	%354 = icmp ne i32  %353, -2, !dbg !5833
	br i1  %354, label %L..inline.69358, label %L.B1203, !dbg !5833
L.B1203:
	%355 = bitcast %struct._ZSt5arrayIdLm3EE** %..inline.addr.530 to i8**, !dbg !5833
	store i8* null, i8**  %355, align 8, !tbaa !5914, !dbg !5833
	br label %L..inline.69545, !dbg !5834
L..inline.69358:
	%356 = load i32, i32* %..inline.addr.510, align 4, !tbaa !5919, !dbg !5835
	%357 = sext i32  %356 to i64, !dbg !5835
	%358 = load %struct._Z6FsGridISt5arrayIdLm3EELi2EE*, %struct._Z6FsGridISt5arrayIdLm3EELi2EE** %..inline.addr.470, align 8, !tbaa !5914, !dbg !5835
	%359 = bitcast %struct._Z6FsGridISt5arrayIdLm3EELi2EE*  %358 to i8*, !dbg !5835
	%360 = getelementptr i8, i8*  %359, i64 92, !dbg !5835
	%361 = bitcast i8*  %360 to i32*, !dbg !5835
	%362 = getelementptr i32, i32*  %361, i64  %357, !dbg !5835
	%363 = load i32, i32*  %362, align 4, !tbaa !5915, !dbg !5835
	%364 = getelementptr i8, i8*  %359, i64 56, !dbg !5835
	%365 = bitcast i8*  %364 to i32*, !dbg !5835
	%366 = load i32, i32*  %365, align 4, !tbaa !5915, !dbg !5835
	%367 = icmp ne i32  %363,  %366, !dbg !5835
	br i1  %367, label %L..inline.69376, label %L.B1204, !dbg !5835
L.B1204:
	%368 = load i32, i32* %..inline.addr.480, align 4, !tbaa !5919, !dbg !5836
	%369 = bitcast [3 x i32]* %..inline.addr.520 to i32*, !dbg !5836
	%370 = load i32, i32*  %369, align 4, !tbaa !5915, !dbg !5836
	%371 = bitcast %struct._Z6FsGridISt5arrayIdLm3EELi2EE*  %358 to i8*, !dbg !5836
	%372 = getelementptr i8, i8*  %371, i64 264, !dbg !5836
	%373 = bitcast i8*  %372 to i32*, !dbg !5836
	%374 = load i32, i32*  %373, align 4, !tbaa !5915, !dbg !5836
	%375 = mul i32  %370,  %374, !dbg !5836
	%376 = add i32  %368,  %375, !dbg !5836
	store i32  %376, i32* %..inline.addr.480, align 4, !tbaa !5919, !dbg !5836
	%377 = load i32, i32* %..inline.addr.490, align 4, !tbaa !5919, !dbg !5837
	%378 = bitcast [3 x i32]* %..inline.addr.520 to i8*, !dbg !5837
	%379 = getelementptr i8, i8*  %378, i64 4, !dbg !5837
	%380 = bitcast i8*  %379 to i32*, !dbg !5837
	%381 = load i32, i32*  %380, align 4, !tbaa !5915, !dbg !5837
	%382 = getelementptr i8, i8*  %371, i64 268, !dbg !5837
	%383 = bitcast i8*  %382 to i32*, !dbg !5837
	%384 = load i32, i32*  %383, align 4, !tbaa !5915, !dbg !5837
	%385 = mul i32  %381,  %384, !dbg !5837
	%386 = add i32  %377,  %385, !dbg !5837
	store i32  %386, i32* %..inline.addr.490, align 4, !tbaa !5919, !dbg !5837
	%387 = load i32, i32* %..inline.addr.500, align 4, !tbaa !5919, !dbg !5838
	%388 = getelementptr i8, i8*  %378, i64 8, !dbg !5838
	%389 = bitcast i8*  %388 to i32*, !dbg !5838
	%390 = load i32, i32*  %389, align 4, !tbaa !5915, !dbg !5838
	%391 = getelementptr i8, i8*  %371, i64 272, !dbg !5838
	%392 = bitcast i8*  %391 to i32*, !dbg !5838
	%393 = load i32, i32*  %392, align 4, !tbaa !5915, !dbg !5838
	%394 = mul i32  %390,  %393, !dbg !5838
	%395 = add i32  %387,  %394, !dbg !5838
	store i32  %395, i32* %..inline.addr.500, align 4, !tbaa !5919, !dbg !5838
	br label %L..inline.69376
L..inline.69376:
	br label %L..inline.69341
L..inline.69341:
	store i64 0, i64* %..inline.addr.540, align 8, !tbaa !5921, !dbg !5839
	%396 = load %struct._Z6FsGridISt5arrayIdLm3EELi2EE*, %struct._Z6FsGridISt5arrayIdLm3EELi2EE** %..inline.addr.470, align 8, !tbaa !5914, !dbg !5839
	%397 = bitcast %struct._Z6FsGridISt5arrayIdLm3EELi2EE*  %396 to i8*, !dbg !5839
	%398 = getelementptr i8, i8*  %397, i64 260, !dbg !5839
	%399 = bitcast i8*  %398 to i32*, !dbg !5839
	%400 = load i32, i32*  %399, align 4, !tbaa !5915, !dbg !5839
	%401 = icmp sle i32  %400, 1, !dbg !5839
	br i1  %401, label %L..inline.69450, label %L.B1205, !dbg !5839
L.B1205:
	%402 = load i32, i32* %..inline.addr.500, align 4, !tbaa !5919, !dbg !5839
	%403 = add i32  %402, 2, !dbg !5839
	%404 = bitcast %struct._Z6FsGridISt5arrayIdLm3EELi2EE*  %396 to i8*, !dbg !5839
	%405 = getelementptr i8, i8*  %404, i64 280, !dbg !5839
	%406 = bitcast i8*  %405 to i32*, !dbg !5839
	%407 = load i32, i32*  %406, align 4, !tbaa !5915, !dbg !5839
	%408 = getelementptr i8, i8*  %404, i64 276, !dbg !5839
	%409 = bitcast i8*  %408 to i32*, !dbg !5839
	%410 = load i32, i32*  %409, align 4, !tbaa !5915, !dbg !5839
	%411 = mul i32  %407,  %410, !dbg !5839
	%412 = mul i32  %403,  %411, !dbg !5839
	%413 = sext i32  %412 to i64, !dbg !5839
	store i64  %413, i64* %..inline.addr.540, align 8, !tbaa !5921, !dbg !5839
	br label %L..inline.69450
L..inline.69450:
	%414 = load %struct._Z6FsGridISt5arrayIdLm3EELi2EE*, %struct._Z6FsGridISt5arrayIdLm3EELi2EE** %..inline.addr.470, align 8, !tbaa !5914, !dbg !5839
	%415 = bitcast %struct._Z6FsGridISt5arrayIdLm3EELi2EE*  %414 to i8*, !dbg !5839
	%416 = getelementptr i8, i8*  %415, i64 256, !dbg !5839
	%417 = bitcast i8*  %416 to i32*, !dbg !5839
	%418 = load i32, i32*  %417, align 4, !tbaa !5915, !dbg !5839
	%419 = icmp sle i32  %418, 1, !dbg !5839
	br i1  %419, label %L..inline.69499, label %L.B1206, !dbg !5839
L.B1206:
	%420 = load i64, i64* %..inline.addr.540, align 8, !tbaa !5921, !dbg !5839
	%421 = bitcast %struct._Z6FsGridISt5arrayIdLm3EELi2EE*  %414 to i8*, !dbg !5839
	%422 = getelementptr i8, i8*  %421, i64 276, !dbg !5839
	%423 = bitcast i8*  %422 to i32*, !dbg !5839
	%424 = load i32, i32*  %423, align 4, !tbaa !5915, !dbg !5839
	%425 = load i32, i32* %..inline.addr.490, align 4, !tbaa !5919, !dbg !5839
	%426 = add i32  %425, 2, !dbg !5839
	%427 = mul i32  %424,  %426, !dbg !5839
	%428 = sext i32  %427 to i64, !dbg !5839
	%429 = add i64  %420,  %428, !dbg !5839
	store i64  %429, i64* %..inline.addr.540, align 8, !tbaa !5921, !dbg !5839
	br label %L..inline.69499
L..inline.69499:
	%430 = load %struct._Z6FsGridISt5arrayIdLm3EELi2EE*, %struct._Z6FsGridISt5arrayIdLm3EELi2EE** %..inline.addr.470, align 8, !tbaa !5914, !dbg !5839
	%431 = bitcast %struct._Z6FsGridISt5arrayIdLm3EELi2EE*  %430 to i8*, !dbg !5839
	%432 = getelementptr i8, i8*  %431, i64 252, !dbg !5839
	%433 = bitcast i8*  %432 to i32*, !dbg !5839
	%434 = load i32, i32*  %433, align 4, !tbaa !5915, !dbg !5839
	%435 = icmp sle i32  %434, 1, !dbg !5839
	%436 = zext i1  %435 to i32, !dbg !5839
	%437 = trunc i32  %436 to i1, !dbg !5839
	%438 = load i64, i64* %..inline.addr.540, align 8, !tbaa !5921, !dbg !5839
	%439 = load i32, i32* %..inline.addr.480, align 4, !tbaa !5919, !dbg !5839
	%440 = sext i32  %439 to i64, !dbg !5839
	%441 = add i64  %440, 2, !dbg !5839
	%442 = add i64  %438,  %441, !dbg !5839
	%443 = select i1  %437, i64  %438, i64  %442, !dbg !5839
	%444 = getelementptr i8, i8*  %431, i64 744, !dbg !5840
	%445 = bitcast i8*  %444 to i8**, !dbg !5840
	%446 = load i8*, i8**  %445, align 8, !tbaa !5914, !dbg !5840
	%447 = mul i64  %443, 24, !dbg !5840
	%448 = getelementptr i8, i8*  %446, i64  %447, !dbg !5840
	%449 = bitcast %struct._ZSt5arrayIdLm3EE** %..inline.addr.530 to i8**, !dbg !5840
	store i8*  %448, i8**  %449, align 8, !tbaa !5914, !dbg !5840
	br label %L..inline.69545
L..inline.69545:
	%450 = load %struct._ZSt5arrayIdLm3EE*, %struct._ZSt5arrayIdLm3EE** %..inline.addr.530, align 8, !tbaa !5914, !dbg !5841
	%451 = bitcast %struct._ZSt5arrayIdLm3EE*  %450 to i8*, !dbg !5841
	call void @llvm.dbg.declare (metadata %struct._ZSt5arrayIdLm3EE** %EGrid0.addr, metadata !5851, metadata !5787), !dbg !3835
	%452 = bitcast %struct._ZSt5arrayIdLm3EE** %EGrid0.addr to i8**, !dbg !5841
	store i8*  %451, i8**  %452, align 8, !tbaa !5914, !dbg !5841
	%453 = load %struct._Z6FsGridISt5arrayIdLm3EELi2EE*, %struct._Z6FsGridISt5arrayIdLm3EELi2EE** %EGrid.addr, align 8, !tbaa !5914, !dbg !5852
	%454 = bitcast %struct._Z6FsGridISt5arrayIdLm3EELi2EE*  %453 to i8*, !dbg !5852
	%455 = bitcast %struct._Z6FsGridISt5arrayIdLm3EELi2EE** %..inline.addr.560 to i8**, !dbg !5852
	store i8*  %454, i8**  %455, align 8, !tbaa !5914, !dbg !5852
	%456 = load i32, i32* %i.addr, align 4, !tbaa !5919, !dbg !5852
	store i32  %456, i32* %..inline.addr.570, align 4, !tbaa !5919, !dbg !5852
	%457 = load i32, i32* %j.addr, align 4, !tbaa !5919, !dbg !5852
	%458 = add i32  %457, 1, !dbg !5852
	store i32  %458, i32* %..inline.addr.580, align 4, !tbaa !5919, !dbg !5852
	%459 = load i32, i32* %k.addr, align 4, !tbaa !5919, !dbg !5852
	store i32  %459, i32* %..inline.addr.590, align 4, !tbaa !5919, !dbg !5852
	store i32 13, i32* %..inline.addr.600, align 4, !tbaa !5919, !dbg !5852
	%460 = bitcast [3 x i32]* %..inline.addr.610 to i32*, !dbg !5818
	store i32 0, i32*  %460, align 4, !tbaa !5915, !dbg !5818
	%461 = bitcast [3 x i32]* %..inline.addr.610 to i8*, !dbg !5819
	%462 = getelementptr i8, i8*  %461, i64 4, !dbg !5819
	%463 = bitcast i8*  %462 to i32*, !dbg !5819
	store i32 0, i32*  %463, align 4, !tbaa !5915, !dbg !5819
	%464 = getelementptr i8, i8*  %461, i64 8, !dbg !5819
	%465 = bitcast i8*  %464 to i32*, !dbg !5819
	store i32 0, i32*  %465, align 4, !tbaa !5915, !dbg !5819
	%466 = icmp sge i32  %456, 0, !dbg !5819
	br i1  %466, label %L..inline.69551, label %L.B1207, !dbg !5819
L.B1207:
	store i32 4, i32* %..inline.addr.600, align 4, !tbaa !5919, !dbg !5820
	%467 = bitcast [3 x i32]* %..inline.addr.610 to i32*, !dbg !5821
	store i32 1, i32*  %467, align 4, !tbaa !5915, !dbg !5821
	br label %L..inline.69551
L..inline.69551:
	%468 = load i32, i32* %..inline.addr.570, align 4, !tbaa !5919, !dbg !5822
	%469 = load %struct._Z6FsGridISt5arrayIdLm3EELi2EE*, %struct._Z6FsGridISt5arrayIdLm3EELi2EE** %..inline.addr.560, align 8, !tbaa !5914, !dbg !5822
	%470 = bitcast %struct._Z6FsGridISt5arrayIdLm3EELi2EE*  %469 to i8*, !dbg !5822
	%471 = getelementptr i8, i8*  %470, i64 264, !dbg !5822
	%472 = bitcast i8*  %471 to i32*, !dbg !5822
	%473 = load i32, i32*  %472, align 4, !tbaa !5915, !dbg !5822
	%474 = icmp slt i32  %468,  %473, !dbg !5822
	br i1  %474, label %L..inline.69569, label %L.B1208, !dbg !5822
L.B1208:
	%475 = load i32, i32* %..inline.addr.600, align 4, !tbaa !5919, !dbg !5822
	%476 = add i32  %475, 9, !dbg !5822
	store i32  %476, i32* %..inline.addr.600, align 4, !tbaa !5919, !dbg !5822
	%477 = bitcast [3 x i32]* %..inline.addr.610 to i32*, !dbg !5823
	store i32 -1, i32*  %477, align 4, !tbaa !5915, !dbg !5823
	br label %L..inline.69569
L..inline.69569:
	%478 = load i32, i32* %..inline.addr.580, align 4, !tbaa !5919, !dbg !5824
	%479 = icmp sge i32  %478, 0, !dbg !5824
	br i1  %479, label %L..inline.69571, label %L.B1209, !dbg !5824
L.B1209:
	%480 = load i32, i32* %..inline.addr.600, align 4, !tbaa !5919, !dbg !5824
	%481 = sub i32  %480, 3, !dbg !5824
	store i32  %481, i32* %..inline.addr.600, align 4, !tbaa !5919, !dbg !5824
	%482 = bitcast [3 x i32]* %..inline.addr.610 to i8*, !dbg !5825
	%483 = getelementptr i8, i8*  %482, i64 4, !dbg !5825
	%484 = bitcast i8*  %483 to i32*, !dbg !5825
	store i32 1, i32*  %484, align 4, !tbaa !5915, !dbg !5825
	br label %L..inline.69571
L..inline.69571:
	%485 = load i32, i32* %..inline.addr.580, align 4, !tbaa !5919, !dbg !5826
	%486 = load %struct._Z6FsGridISt5arrayIdLm3EELi2EE*, %struct._Z6FsGridISt5arrayIdLm3EELi2EE** %..inline.addr.560, align 8, !tbaa !5914, !dbg !5826
	%487 = bitcast %struct._Z6FsGridISt5arrayIdLm3EELi2EE*  %486 to i8*, !dbg !5826
	%488 = getelementptr i8, i8*  %487, i64 268, !dbg !5826
	%489 = bitcast i8*  %488 to i32*, !dbg !5826
	%490 = load i32, i32*  %489, align 4, !tbaa !5915, !dbg !5826
	%491 = icmp slt i32  %485,  %490, !dbg !5826
	br i1  %491, label %L..inline.69588, label %L.B1210, !dbg !5826
L.B1210:
	%492 = load i32, i32* %..inline.addr.600, align 4, !tbaa !5919, !dbg !5826
	%493 = add i32  %492, 3, !dbg !5826
	store i32  %493, i32* %..inline.addr.600, align 4, !tbaa !5919, !dbg !5826
	%494 = bitcast [3 x i32]* %..inline.addr.610 to i8*, !dbg !5827
	%495 = getelementptr i8, i8*  %494, i64 4, !dbg !5827
	%496 = bitcast i8*  %495 to i32*, !dbg !5827
	store i32 -1, i32*  %496, align 4, !tbaa !5915, !dbg !5827
	br label %L..inline.69588
L..inline.69588:
	%497 = load i32, i32* %..inline.addr.590, align 4, !tbaa !5919, !dbg !5828
	%498 = icmp sge i32  %497, 0, !dbg !5828
	br i1  %498, label %L..inline.69590, label %L.B1211, !dbg !5828
L.B1211:
	%499 = load i32, i32* %..inline.addr.600, align 4, !tbaa !5919, !dbg !5828
	%500 = sub i32  %499, 1, !dbg !5828
	store i32  %500, i32* %..inline.addr.600, align 4, !tbaa !5919, !dbg !5828
	%501 = bitcast [3 x i32]* %..inline.addr.610 to i8*, !dbg !5829
	%502 = getelementptr i8, i8*  %501, i64 8, !dbg !5829
	%503 = bitcast i8*  %502 to i32*, !dbg !5829
	store i32 1, i32*  %503, align 4, !tbaa !5915, !dbg !5829
	br label %L..inline.69590
L..inline.69590:
	%504 = load i32, i32* %..inline.addr.590, align 4, !tbaa !5919, !dbg !5830
	%505 = load %struct._Z6FsGridISt5arrayIdLm3EELi2EE*, %struct._Z6FsGridISt5arrayIdLm3EELi2EE** %..inline.addr.560, align 8, !tbaa !5914, !dbg !5830
	%506 = bitcast %struct._Z6FsGridISt5arrayIdLm3EELi2EE*  %505 to i8*, !dbg !5830
	%507 = getelementptr i8, i8*  %506, i64 272, !dbg !5830
	%508 = bitcast i8*  %507 to i32*, !dbg !5830
	%509 = load i32, i32*  %508, align 4, !tbaa !5915, !dbg !5830
	%510 = icmp slt i32  %504,  %509, !dbg !5830
	br i1  %510, label %L..inline.69607, label %L.B1212, !dbg !5830
L.B1212:
	%511 = load i32, i32* %..inline.addr.600, align 4, !tbaa !5919, !dbg !5830
	%512 = add i32  %511, 1, !dbg !5830
	store i32  %512, i32* %..inline.addr.600, align 4, !tbaa !5919, !dbg !5830
	%513 = bitcast [3 x i32]* %..inline.addr.610 to i8*, !dbg !5831
	%514 = getelementptr i8, i8*  %513, i64 8, !dbg !5831
	%515 = bitcast i8*  %514 to i32*, !dbg !5831
	store i32 -1, i32*  %515, align 4, !tbaa !5915, !dbg !5831
	br label %L..inline.69607
L..inline.69607:
	%516 = load i32, i32* %..inline.addr.600, align 4, !tbaa !5919, !dbg !5832
	%517 = icmp eq i32  %516, 13, !dbg !5832
	br i1  %517, label %L..inline.69608, label %L.B1213, !dbg !5832
L.B1213:
	%518 = sext i32  %516 to i64, !dbg !5833
	%519 = load %struct._Z6FsGridISt5arrayIdLm3EELi2EE*, %struct._Z6FsGridISt5arrayIdLm3EELi2EE** %..inline.addr.560, align 8, !tbaa !5914, !dbg !5833
	%520 = bitcast %struct._Z6FsGridISt5arrayIdLm3EELi2EE*  %519 to i8*, !dbg !5833
	%521 = getelementptr i8, i8*  %520, i64 92, !dbg !5833
	%522 = bitcast i8*  %521 to i32*, !dbg !5833
	%523 = getelementptr i32, i32*  %522, i64  %518, !dbg !5833
	%524 = load i32, i32*  %523, align 4, !tbaa !5915, !dbg !5833
	%525 = icmp ne i32  %524, -2, !dbg !5833
	br i1  %525, label %L..inline.69625, label %L.B1214, !dbg !5833
L.B1214:
	%526 = bitcast %struct._ZSt5arrayIdLm3EE** %..inline.addr.620 to i8**, !dbg !5833
	store i8* null, i8**  %526, align 8, !tbaa !5914, !dbg !5833
	br label %L..inline.69812, !dbg !5834
L..inline.69625:
	%527 = load i32, i32* %..inline.addr.600, align 4, !tbaa !5919, !dbg !5835
	%528 = sext i32  %527 to i64, !dbg !5835
	%529 = load %struct._Z6FsGridISt5arrayIdLm3EELi2EE*, %struct._Z6FsGridISt5arrayIdLm3EELi2EE** %..inline.addr.560, align 8, !tbaa !5914, !dbg !5835
	%530 = bitcast %struct._Z6FsGridISt5arrayIdLm3EELi2EE*  %529 to i8*, !dbg !5835
	%531 = getelementptr i8, i8*  %530, i64 92, !dbg !5835
	%532 = bitcast i8*  %531 to i32*, !dbg !5835
	%533 = getelementptr i32, i32*  %532, i64  %528, !dbg !5835
	%534 = load i32, i32*  %533, align 4, !tbaa !5915, !dbg !5835
	%535 = getelementptr i8, i8*  %530, i64 56, !dbg !5835
	%536 = bitcast i8*  %535 to i32*, !dbg !5835
	%537 = load i32, i32*  %536, align 4, !tbaa !5915, !dbg !5835
	%538 = icmp ne i32  %534,  %537, !dbg !5835
	br i1  %538, label %L..inline.69643, label %L.B1215, !dbg !5835
L.B1215:
	%539 = load i32, i32* %..inline.addr.570, align 4, !tbaa !5919, !dbg !5836
	%540 = bitcast [3 x i32]* %..inline.addr.610 to i32*, !dbg !5836
	%541 = load i32, i32*  %540, align 4, !tbaa !5915, !dbg !5836
	%542 = bitcast %struct._Z6FsGridISt5arrayIdLm3EELi2EE*  %529 to i8*, !dbg !5836
	%543 = getelementptr i8, i8*  %542, i64 264, !dbg !5836
	%544 = bitcast i8*  %543 to i32*, !dbg !5836
	%545 = load i32, i32*  %544, align 4, !tbaa !5915, !dbg !5836
	%546 = mul i32  %541,  %545, !dbg !5836
	%547 = add i32  %539,  %546, !dbg !5836
	store i32  %547, i32* %..inline.addr.570, align 4, !tbaa !5919, !dbg !5836
	%548 = load i32, i32* %..inline.addr.580, align 4, !tbaa !5919, !dbg !5837
	%549 = bitcast [3 x i32]* %..inline.addr.610 to i8*, !dbg !5837
	%550 = getelementptr i8, i8*  %549, i64 4, !dbg !5837
	%551 = bitcast i8*  %550 to i32*, !dbg !5837
	%552 = load i32, i32*  %551, align 4, !tbaa !5915, !dbg !5837
	%553 = getelementptr i8, i8*  %542, i64 268, !dbg !5837
	%554 = bitcast i8*  %553 to i32*, !dbg !5837
	%555 = load i32, i32*  %554, align 4, !tbaa !5915, !dbg !5837
	%556 = mul i32  %552,  %555, !dbg !5837
	%557 = add i32  %548,  %556, !dbg !5837
	store i32  %557, i32* %..inline.addr.580, align 4, !tbaa !5919, !dbg !5837
	%558 = load i32, i32* %..inline.addr.590, align 4, !tbaa !5919, !dbg !5838
	%559 = getelementptr i8, i8*  %549, i64 8, !dbg !5838
	%560 = bitcast i8*  %559 to i32*, !dbg !5838
	%561 = load i32, i32*  %560, align 4, !tbaa !5915, !dbg !5838
	%562 = getelementptr i8, i8*  %542, i64 272, !dbg !5838
	%563 = bitcast i8*  %562 to i32*, !dbg !5838
	%564 = load i32, i32*  %563, align 4, !tbaa !5915, !dbg !5838
	%565 = mul i32  %561,  %564, !dbg !5838
	%566 = add i32  %558,  %565, !dbg !5838
	store i32  %566, i32* %..inline.addr.590, align 4, !tbaa !5919, !dbg !5838
	br label %L..inline.69643
L..inline.69643:
	br label %L..inline.69608
L..inline.69608:
	store i64 0, i64* %..inline.addr.630, align 8, !tbaa !5921, !dbg !5839
	%567 = load %struct._Z6FsGridISt5arrayIdLm3EELi2EE*, %struct._Z6FsGridISt5arrayIdLm3EELi2EE** %..inline.addr.560, align 8, !tbaa !5914, !dbg !5839
	%568 = bitcast %struct._Z6FsGridISt5arrayIdLm3EELi2EE*  %567 to i8*, !dbg !5839
	%569 = getelementptr i8, i8*  %568, i64 260, !dbg !5839
	%570 = bitcast i8*  %569 to i32*, !dbg !5839
	%571 = load i32, i32*  %570, align 4, !tbaa !5915, !dbg !5839
	%572 = icmp sle i32  %571, 1, !dbg !5839
	br i1  %572, label %L..inline.69717, label %L.B1216, !dbg !5839
L.B1216:
	%573 = load i32, i32* %..inline.addr.590, align 4, !tbaa !5919, !dbg !5839
	%574 = add i32  %573, 2, !dbg !5839
	%575 = bitcast %struct._Z6FsGridISt5arrayIdLm3EELi2EE*  %567 to i8*, !dbg !5839
	%576 = getelementptr i8, i8*  %575, i64 280, !dbg !5839
	%577 = bitcast i8*  %576 to i32*, !dbg !5839
	%578 = load i32, i32*  %577, align 4, !tbaa !5915, !dbg !5839
	%579 = getelementptr i8, i8*  %575, i64 276, !dbg !5839
	%580 = bitcast i8*  %579 to i32*, !dbg !5839
	%581 = load i32, i32*  %580, align 4, !tbaa !5915, !dbg !5839
	%582 = mul i32  %578,  %581, !dbg !5839
	%583 = mul i32  %574,  %582, !dbg !5839
	%584 = sext i32  %583 to i64, !dbg !5839
	store i64  %584, i64* %..inline.addr.630, align 8, !tbaa !5921, !dbg !5839
	br label %L..inline.69717
L..inline.69717:
	%585 = load %struct._Z6FsGridISt5arrayIdLm3EELi2EE*, %struct._Z6FsGridISt5arrayIdLm3EELi2EE** %..inline.addr.560, align 8, !tbaa !5914, !dbg !5839
	%586 = bitcast %struct._Z6FsGridISt5arrayIdLm3EELi2EE*  %585 to i8*, !dbg !5839
	%587 = getelementptr i8, i8*  %586, i64 256, !dbg !5839
	%588 = bitcast i8*  %587 to i32*, !dbg !5839
	%589 = load i32, i32*  %588, align 4, !tbaa !5915, !dbg !5839
	%590 = icmp sle i32  %589, 1, !dbg !5839
	br i1  %590, label %L..inline.69766, label %L.B1217, !dbg !5839
L.B1217:
	%591 = load i64, i64* %..inline.addr.630, align 8, !tbaa !5921, !dbg !5839
	%592 = bitcast %struct._Z6FsGridISt5arrayIdLm3EELi2EE*  %585 to i8*, !dbg !5839
	%593 = getelementptr i8, i8*  %592, i64 276, !dbg !5839
	%594 = bitcast i8*  %593 to i32*, !dbg !5839
	%595 = load i32, i32*  %594, align 4, !tbaa !5915, !dbg !5839
	%596 = load i32, i32* %..inline.addr.580, align 4, !tbaa !5919, !dbg !5839
	%597 = add i32  %596, 2, !dbg !5839
	%598 = mul i32  %595,  %597, !dbg !5839
	%599 = sext i32  %598 to i64, !dbg !5839
	%600 = add i64  %591,  %599, !dbg !5839
	store i64  %600, i64* %..inline.addr.630, align 8, !tbaa !5921, !dbg !5839
	br label %L..inline.69766
L..inline.69766:
	%601 = load %struct._Z6FsGridISt5arrayIdLm3EELi2EE*, %struct._Z6FsGridISt5arrayIdLm3EELi2EE** %..inline.addr.560, align 8, !tbaa !5914, !dbg !5839
	%602 = bitcast %struct._Z6FsGridISt5arrayIdLm3EELi2EE*  %601 to i8*, !dbg !5839
	%603 = getelementptr i8, i8*  %602, i64 252, !dbg !5839
	%604 = bitcast i8*  %603 to i32*, !dbg !5839
	%605 = load i32, i32*  %604, align 4, !tbaa !5915, !dbg !5839
	%606 = icmp sle i32  %605, 1, !dbg !5839
	%607 = zext i1  %606 to i32, !dbg !5839
	%608 = trunc i32  %607 to i1, !dbg !5839
	%609 = load i64, i64* %..inline.addr.630, align 8, !tbaa !5921, !dbg !5839
	%610 = load i32, i32* %..inline.addr.570, align 4, !tbaa !5919, !dbg !5839
	%611 = sext i32  %610 to i64, !dbg !5839
	%612 = add i64  %611, 2, !dbg !5839
	%613 = add i64  %609,  %612, !dbg !5839
	%614 = select i1  %608, i64  %609, i64  %613, !dbg !5839
	%615 = getelementptr i8, i8*  %602, i64 744, !dbg !5840
	%616 = bitcast i8*  %615 to i8**, !dbg !5840
	%617 = load i8*, i8**  %616, align 8, !tbaa !5914, !dbg !5840
	%618 = mul i64  %614, 24, !dbg !5840
	%619 = getelementptr i8, i8*  %617, i64  %618, !dbg !5840
	%620 = bitcast %struct._ZSt5arrayIdLm3EE** %..inline.addr.620 to i8**, !dbg !5840
	store i8*  %619, i8**  %620, align 8, !tbaa !5914, !dbg !5840
	br label %L..inline.69812
L..inline.69812:
	%621 = load %struct._ZSt5arrayIdLm3EE*, %struct._ZSt5arrayIdLm3EE** %..inline.addr.620, align 8, !tbaa !5914, !dbg !5841
	%622 = bitcast %struct._ZSt5arrayIdLm3EE*  %621 to i8*, !dbg !5841
	call void @llvm.dbg.declare (metadata %struct._ZSt5arrayIdLm3EE** %EGrid1.addr, metadata !5853, metadata !5787), !dbg !3835
	%623 = bitcast %struct._ZSt5arrayIdLm3EE** %EGrid1.addr to i8**, !dbg !5841
	store i8*  %622, i8**  %623, align 8, !tbaa !5914, !dbg !5841
	%624 = load %struct._Z6FsGridISt5arrayIdLm3EELi2EE*, %struct._Z6FsGridISt5arrayIdLm3EELi2EE** %EGrid.addr, align 8, !tbaa !5914, !dbg !5854
	%625 = bitcast %struct._Z6FsGridISt5arrayIdLm3EELi2EE*  %624 to i8*, !dbg !5854
	%626 = bitcast %struct._Z6FsGridISt5arrayIdLm3EELi2EE** %..inline.addr.650 to i8**, !dbg !5854
	store i8*  %625, i8**  %626, align 8, !tbaa !5914, !dbg !5854
	%627 = load i32, i32* %i.addr, align 4, !tbaa !5919, !dbg !5854
	store i32  %627, i32* %..inline.addr.660, align 4, !tbaa !5919, !dbg !5854
	%628 = load i32, i32* %j.addr, align 4, !tbaa !5919, !dbg !5854
	store i32  %628, i32* %..inline.addr.670, align 4, !tbaa !5919, !dbg !5854
	%629 = load i32, i32* %k.addr, align 4, !tbaa !5919, !dbg !5854
	%630 = add i32  %629, 1, !dbg !5854
	store i32  %630, i32* %..inline.addr.680, align 4, !tbaa !5919, !dbg !5854
	store i32 13, i32* %..inline.addr.690, align 4, !tbaa !5919, !dbg !5854
	%631 = bitcast [3 x i32]* %..inline.addr.700 to i32*, !dbg !5818
	store i32 0, i32*  %631, align 4, !tbaa !5915, !dbg !5818
	%632 = bitcast [3 x i32]* %..inline.addr.700 to i8*, !dbg !5819
	%633 = getelementptr i8, i8*  %632, i64 4, !dbg !5819
	%634 = bitcast i8*  %633 to i32*, !dbg !5819
	store i32 0, i32*  %634, align 4, !tbaa !5915, !dbg !5819
	%635 = getelementptr i8, i8*  %632, i64 8, !dbg !5819
	%636 = bitcast i8*  %635 to i32*, !dbg !5819
	store i32 0, i32*  %636, align 4, !tbaa !5915, !dbg !5819
	%637 = icmp sge i32  %627, 0, !dbg !5819
	br i1  %637, label %L..inline.69818, label %L.B1218, !dbg !5819
L.B1218:
	store i32 4, i32* %..inline.addr.690, align 4, !tbaa !5919, !dbg !5820
	%638 = bitcast [3 x i32]* %..inline.addr.700 to i32*, !dbg !5821
	store i32 1, i32*  %638, align 4, !tbaa !5915, !dbg !5821
	br label %L..inline.69818
L..inline.69818:
	%639 = load i32, i32* %..inline.addr.660, align 4, !tbaa !5919, !dbg !5822
	%640 = load %struct._Z6FsGridISt5arrayIdLm3EELi2EE*, %struct._Z6FsGridISt5arrayIdLm3EELi2EE** %..inline.addr.650, align 8, !tbaa !5914, !dbg !5822
	%641 = bitcast %struct._Z6FsGridISt5arrayIdLm3EELi2EE*  %640 to i8*, !dbg !5822
	%642 = getelementptr i8, i8*  %641, i64 264, !dbg !5822
	%643 = bitcast i8*  %642 to i32*, !dbg !5822
	%644 = load i32, i32*  %643, align 4, !tbaa !5915, !dbg !5822
	%645 = icmp slt i32  %639,  %644, !dbg !5822
	br i1  %645, label %L..inline.69836, label %L.B1219, !dbg !5822
L.B1219:
	%646 = load i32, i32* %..inline.addr.690, align 4, !tbaa !5919, !dbg !5822
	%647 = add i32  %646, 9, !dbg !5822
	store i32  %647, i32* %..inline.addr.690, align 4, !tbaa !5919, !dbg !5822
	%648 = bitcast [3 x i32]* %..inline.addr.700 to i32*, !dbg !5823
	store i32 -1, i32*  %648, align 4, !tbaa !5915, !dbg !5823
	br label %L..inline.69836
L..inline.69836:
	%649 = load i32, i32* %..inline.addr.670, align 4, !tbaa !5919, !dbg !5824
	%650 = icmp sge i32  %649, 0, !dbg !5824
	br i1  %650, label %L..inline.69838, label %L.B1220, !dbg !5824
L.B1220:
	%651 = load i32, i32* %..inline.addr.690, align 4, !tbaa !5919, !dbg !5824
	%652 = sub i32  %651, 3, !dbg !5824
	store i32  %652, i32* %..inline.addr.690, align 4, !tbaa !5919, !dbg !5824
	%653 = bitcast [3 x i32]* %..inline.addr.700 to i8*, !dbg !5825
	%654 = getelementptr i8, i8*  %653, i64 4, !dbg !5825
	%655 = bitcast i8*  %654 to i32*, !dbg !5825
	store i32 1, i32*  %655, align 4, !tbaa !5915, !dbg !5825
	br label %L..inline.69838
L..inline.69838:
	%656 = load i32, i32* %..inline.addr.670, align 4, !tbaa !5919, !dbg !5826
	%657 = load %struct._Z6FsGridISt5arrayIdLm3EELi2EE*, %struct._Z6FsGridISt5arrayIdLm3EELi2EE** %..inline.addr.650, align 8, !tbaa !5914, !dbg !5826
	%658 = bitcast %struct._Z6FsGridISt5arrayIdLm3EELi2EE*  %657 to i8*, !dbg !5826
	%659 = getelementptr i8, i8*  %658, i64 268, !dbg !5826
	%660 = bitcast i8*  %659 to i32*, !dbg !5826
	%661 = load i32, i32*  %660, align 4, !tbaa !5915, !dbg !5826
	%662 = icmp slt i32  %656,  %661, !dbg !5826
	br i1  %662, label %L..inline.69855, label %L.B1221, !dbg !5826
L.B1221:
	%663 = load i32, i32* %..inline.addr.690, align 4, !tbaa !5919, !dbg !5826
	%664 = add i32  %663, 3, !dbg !5826
	store i32  %664, i32* %..inline.addr.690, align 4, !tbaa !5919, !dbg !5826
	%665 = bitcast [3 x i32]* %..inline.addr.700 to i8*, !dbg !5827
	%666 = getelementptr i8, i8*  %665, i64 4, !dbg !5827
	%667 = bitcast i8*  %666 to i32*, !dbg !5827
	store i32 -1, i32*  %667, align 4, !tbaa !5915, !dbg !5827
	br label %L..inline.69855
L..inline.69855:
	%668 = load i32, i32* %..inline.addr.680, align 4, !tbaa !5919, !dbg !5828
	%669 = icmp sge i32  %668, 0, !dbg !5828
	br i1  %669, label %L..inline.69857, label %L.B1222, !dbg !5828
L.B1222:
	%670 = load i32, i32* %..inline.addr.690, align 4, !tbaa !5919, !dbg !5828
	%671 = sub i32  %670, 1, !dbg !5828
	store i32  %671, i32* %..inline.addr.690, align 4, !tbaa !5919, !dbg !5828
	%672 = bitcast [3 x i32]* %..inline.addr.700 to i8*, !dbg !5829
	%673 = getelementptr i8, i8*  %672, i64 8, !dbg !5829
	%674 = bitcast i8*  %673 to i32*, !dbg !5829
	store i32 1, i32*  %674, align 4, !tbaa !5915, !dbg !5829
	br label %L..inline.69857
L..inline.69857:
	%675 = load i32, i32* %..inline.addr.680, align 4, !tbaa !5919, !dbg !5830
	%676 = load %struct._Z6FsGridISt5arrayIdLm3EELi2EE*, %struct._Z6FsGridISt5arrayIdLm3EELi2EE** %..inline.addr.650, align 8, !tbaa !5914, !dbg !5830
	%677 = bitcast %struct._Z6FsGridISt5arrayIdLm3EELi2EE*  %676 to i8*, !dbg !5830
	%678 = getelementptr i8, i8*  %677, i64 272, !dbg !5830
	%679 = bitcast i8*  %678 to i32*, !dbg !5830
	%680 = load i32, i32*  %679, align 4, !tbaa !5915, !dbg !5830
	%681 = icmp slt i32  %675,  %680, !dbg !5830
	br i1  %681, label %L..inline.69874, label %L.B1223, !dbg !5830
L.B1223:
	%682 = load i32, i32* %..inline.addr.690, align 4, !tbaa !5919, !dbg !5830
	%683 = add i32  %682, 1, !dbg !5830
	store i32  %683, i32* %..inline.addr.690, align 4, !tbaa !5919, !dbg !5830
	%684 = bitcast [3 x i32]* %..inline.addr.700 to i8*, !dbg !5831
	%685 = getelementptr i8, i8*  %684, i64 8, !dbg !5831
	%686 = bitcast i8*  %685 to i32*, !dbg !5831
	store i32 -1, i32*  %686, align 4, !tbaa !5915, !dbg !5831
	br label %L..inline.69874
L..inline.69874:
	%687 = load i32, i32* %..inline.addr.690, align 4, !tbaa !5919, !dbg !5832
	%688 = icmp eq i32  %687, 13, !dbg !5832
	br i1  %688, label %L..inline.69875, label %L.B1224, !dbg !5832
L.B1224:
	%689 = sext i32  %687 to i64, !dbg !5833
	%690 = load %struct._Z6FsGridISt5arrayIdLm3EELi2EE*, %struct._Z6FsGridISt5arrayIdLm3EELi2EE** %..inline.addr.650, align 8, !tbaa !5914, !dbg !5833
	%691 = bitcast %struct._Z6FsGridISt5arrayIdLm3EELi2EE*  %690 to i8*, !dbg !5833
	%692 = getelementptr i8, i8*  %691, i64 92, !dbg !5833
	%693 = bitcast i8*  %692 to i32*, !dbg !5833
	%694 = getelementptr i32, i32*  %693, i64  %689, !dbg !5833
	%695 = load i32, i32*  %694, align 4, !tbaa !5915, !dbg !5833
	%696 = icmp ne i32  %695, -2, !dbg !5833
	br i1  %696, label %L..inline.69892, label %L.B1225, !dbg !5833
L.B1225:
	%697 = bitcast %struct._ZSt5arrayIdLm3EE** %..inline.addr.710 to i8**, !dbg !5833
	store i8* null, i8**  %697, align 8, !tbaa !5914, !dbg !5833
	br label %L..inline.70079, !dbg !5834
L..inline.69892:
	%698 = load i32, i32* %..inline.addr.690, align 4, !tbaa !5919, !dbg !5835
	%699 = sext i32  %698 to i64, !dbg !5835
	%700 = load %struct._Z6FsGridISt5arrayIdLm3EELi2EE*, %struct._Z6FsGridISt5arrayIdLm3EELi2EE** %..inline.addr.650, align 8, !tbaa !5914, !dbg !5835
	%701 = bitcast %struct._Z6FsGridISt5arrayIdLm3EELi2EE*  %700 to i8*, !dbg !5835
	%702 = getelementptr i8, i8*  %701, i64 92, !dbg !5835
	%703 = bitcast i8*  %702 to i32*, !dbg !5835
	%704 = getelementptr i32, i32*  %703, i64  %699, !dbg !5835
	%705 = load i32, i32*  %704, align 4, !tbaa !5915, !dbg !5835
	%706 = getelementptr i8, i8*  %701, i64 56, !dbg !5835
	%707 = bitcast i8*  %706 to i32*, !dbg !5835
	%708 = load i32, i32*  %707, align 4, !tbaa !5915, !dbg !5835
	%709 = icmp ne i32  %705,  %708, !dbg !5835
	br i1  %709, label %L..inline.69910, label %L.B1226, !dbg !5835
L.B1226:
	%710 = load i32, i32* %..inline.addr.660, align 4, !tbaa !5919, !dbg !5836
	%711 = bitcast [3 x i32]* %..inline.addr.700 to i32*, !dbg !5836
	%712 = load i32, i32*  %711, align 4, !tbaa !5915, !dbg !5836
	%713 = bitcast %struct._Z6FsGridISt5arrayIdLm3EELi2EE*  %700 to i8*, !dbg !5836
	%714 = getelementptr i8, i8*  %713, i64 264, !dbg !5836
	%715 = bitcast i8*  %714 to i32*, !dbg !5836
	%716 = load i32, i32*  %715, align 4, !tbaa !5915, !dbg !5836
	%717 = mul i32  %712,  %716, !dbg !5836
	%718 = add i32  %710,  %717, !dbg !5836
	store i32  %718, i32* %..inline.addr.660, align 4, !tbaa !5919, !dbg !5836
	%719 = load i32, i32* %..inline.addr.670, align 4, !tbaa !5919, !dbg !5837
	%720 = bitcast [3 x i32]* %..inline.addr.700 to i8*, !dbg !5837
	%721 = getelementptr i8, i8*  %720, i64 4, !dbg !5837
	%722 = bitcast i8*  %721 to i32*, !dbg !5837
	%723 = load i32, i32*  %722, align 4, !tbaa !5915, !dbg !5837
	%724 = getelementptr i8, i8*  %713, i64 268, !dbg !5837
	%725 = bitcast i8*  %724 to i32*, !dbg !5837
	%726 = load i32, i32*  %725, align 4, !tbaa !5915, !dbg !5837
	%727 = mul i32  %723,  %726, !dbg !5837
	%728 = add i32  %719,  %727, !dbg !5837
	store i32  %728, i32* %..inline.addr.670, align 4, !tbaa !5919, !dbg !5837
	%729 = load i32, i32* %..inline.addr.680, align 4, !tbaa !5919, !dbg !5838
	%730 = getelementptr i8, i8*  %720, i64 8, !dbg !5838
	%731 = bitcast i8*  %730 to i32*, !dbg !5838
	%732 = load i32, i32*  %731, align 4, !tbaa !5915, !dbg !5838
	%733 = getelementptr i8, i8*  %713, i64 272, !dbg !5838
	%734 = bitcast i8*  %733 to i32*, !dbg !5838
	%735 = load i32, i32*  %734, align 4, !tbaa !5915, !dbg !5838
	%736 = mul i32  %732,  %735, !dbg !5838
	%737 = add i32  %729,  %736, !dbg !5838
	store i32  %737, i32* %..inline.addr.680, align 4, !tbaa !5919, !dbg !5838
	br label %L..inline.69910
L..inline.69910:
	br label %L..inline.69875
L..inline.69875:
	store i64 0, i64* %..inline.addr.720, align 8, !tbaa !5921, !dbg !5839
	%738 = load %struct._Z6FsGridISt5arrayIdLm3EELi2EE*, %struct._Z6FsGridISt5arrayIdLm3EELi2EE** %..inline.addr.650, align 8, !tbaa !5914, !dbg !5839
	%739 = bitcast %struct._Z6FsGridISt5arrayIdLm3EELi2EE*  %738 to i8*, !dbg !5839
	%740 = getelementptr i8, i8*  %739, i64 260, !dbg !5839
	%741 = bitcast i8*  %740 to i32*, !dbg !5839
	%742 = load i32, i32*  %741, align 4, !tbaa !5915, !dbg !5839
	%743 = icmp sle i32  %742, 1, !dbg !5839
	br i1  %743, label %L..inline.69984, label %L.B1227, !dbg !5839
L.B1227:
	%744 = load i32, i32* %..inline.addr.680, align 4, !tbaa !5919, !dbg !5839
	%745 = add i32  %744, 2, !dbg !5839
	%746 = bitcast %struct._Z6FsGridISt5arrayIdLm3EELi2EE*  %738 to i8*, !dbg !5839
	%747 = getelementptr i8, i8*  %746, i64 280, !dbg !5839
	%748 = bitcast i8*  %747 to i32*, !dbg !5839
	%749 = load i32, i32*  %748, align 4, !tbaa !5915, !dbg !5839
	%750 = getelementptr i8, i8*  %746, i64 276, !dbg !5839
	%751 = bitcast i8*  %750 to i32*, !dbg !5839
	%752 = load i32, i32*  %751, align 4, !tbaa !5915, !dbg !5839
	%753 = mul i32  %749,  %752, !dbg !5839
	%754 = mul i32  %745,  %753, !dbg !5839
	%755 = sext i32  %754 to i64, !dbg !5839
	store i64  %755, i64* %..inline.addr.720, align 8, !tbaa !5921, !dbg !5839
	br label %L..inline.69984
L..inline.69984:
	%756 = load %struct._Z6FsGridISt5arrayIdLm3EELi2EE*, %struct._Z6FsGridISt5arrayIdLm3EELi2EE** %..inline.addr.650, align 8, !tbaa !5914, !dbg !5839
	%757 = bitcast %struct._Z6FsGridISt5arrayIdLm3EELi2EE*  %756 to i8*, !dbg !5839
	%758 = getelementptr i8, i8*  %757, i64 256, !dbg !5839
	%759 = bitcast i8*  %758 to i32*, !dbg !5839
	%760 = load i32, i32*  %759, align 4, !tbaa !5915, !dbg !5839
	%761 = icmp sle i32  %760, 1, !dbg !5839
	br i1  %761, label %L..inline.70033, label %L.B1228, !dbg !5839
L.B1228:
	%762 = load i64, i64* %..inline.addr.720, align 8, !tbaa !5921, !dbg !5839
	%763 = bitcast %struct._Z6FsGridISt5arrayIdLm3EELi2EE*  %756 to i8*, !dbg !5839
	%764 = getelementptr i8, i8*  %763, i64 276, !dbg !5839
	%765 = bitcast i8*  %764 to i32*, !dbg !5839
	%766 = load i32, i32*  %765, align 4, !tbaa !5915, !dbg !5839
	%767 = load i32, i32* %..inline.addr.670, align 4, !tbaa !5919, !dbg !5839
	%768 = add i32  %767, 2, !dbg !5839
	%769 = mul i32  %766,  %768, !dbg !5839
	%770 = sext i32  %769 to i64, !dbg !5839
	%771 = add i64  %762,  %770, !dbg !5839
	store i64  %771, i64* %..inline.addr.720, align 8, !tbaa !5921, !dbg !5839
	br label %L..inline.70033
L..inline.70033:
	%772 = load %struct._Z6FsGridISt5arrayIdLm3EELi2EE*, %struct._Z6FsGridISt5arrayIdLm3EELi2EE** %..inline.addr.650, align 8, !tbaa !5914, !dbg !5839
	%773 = bitcast %struct._Z6FsGridISt5arrayIdLm3EELi2EE*  %772 to i8*, !dbg !5839
	%774 = getelementptr i8, i8*  %773, i64 252, !dbg !5839
	%775 = bitcast i8*  %774 to i32*, !dbg !5839
	%776 = load i32, i32*  %775, align 4, !tbaa !5915, !dbg !5839
	%777 = icmp sle i32  %776, 1, !dbg !5839
	%778 = zext i1  %777 to i32, !dbg !5839
	%779 = trunc i32  %778 to i1, !dbg !5839
	%780 = load i64, i64* %..inline.addr.720, align 8, !tbaa !5921, !dbg !5839
	%781 = load i32, i32* %..inline.addr.660, align 4, !tbaa !5919, !dbg !5839
	%782 = sext i32  %781 to i64, !dbg !5839
	%783 = add i64  %782, 2, !dbg !5839
	%784 = add i64  %780,  %783, !dbg !5839
	%785 = select i1  %779, i64  %780, i64  %784, !dbg !5839
	%786 = getelementptr i8, i8*  %773, i64 744, !dbg !5840
	%787 = bitcast i8*  %786 to i8**, !dbg !5840
	%788 = load i8*, i8**  %787, align 8, !tbaa !5914, !dbg !5840
	%789 = mul i64  %785, 24, !dbg !5840
	%790 = getelementptr i8, i8*  %788, i64  %789, !dbg !5840
	%791 = bitcast %struct._ZSt5arrayIdLm3EE** %..inline.addr.710 to i8**, !dbg !5840
	store i8*  %790, i8**  %791, align 8, !tbaa !5914, !dbg !5840
	br label %L..inline.70079
L..inline.70079:
	%792 = load %struct._ZSt5arrayIdLm3EE*, %struct._ZSt5arrayIdLm3EE** %perBGrid0.addr, align 8, !tbaa !5914, !dbg !5855
	%793 = bitcast %struct._ZSt5arrayIdLm3EE*  %792 to i8*, !dbg !5855
	%794 = bitcast double** %..inline.addr.730 to i8**, !dbg !5855
	store i8*  %793, i8**  %794, align 8, !tbaa !5914, !dbg !5855
	%795 = load double*, double** %..inline.addr.730, align 8, !tbaa !5914, !dbg !5856
	%796 = load double, double*  %795, align 8, !tbaa !5915, !dbg !5856
	%797 = load double*, double** %dt.addr, align 8, !tbaa !5914, !dbg !5856
	%798 = load double, double*  %797, align 8, !tbaa !5915, !dbg !5856
	%799 = load double, double* %dy.addr, align 8, !tbaa !5917, !dbg !5856
	%800 = fdiv double  %798,  %799, !dbg !5856
	%801 = load %struct._ZSt5arrayIdLm3EE*, %struct._ZSt5arrayIdLm3EE** %EGrid0.addr, align 8, !tbaa !5914, !dbg !5856
	%802 = bitcast %struct._ZSt5arrayIdLm3EE*  %801 to i8*, !dbg !5856
	%803 = getelementptr i8, i8*  %802, i64 16, !dbg !5856
	%804 = bitcast i8*  %803 to double*, !dbg !5856
	%805 = load double, double*  %804, align 8, !tbaa !5915, !dbg !5856
	%806 = load %struct._ZSt5arrayIdLm3EE*, %struct._ZSt5arrayIdLm3EE** %EGrid1.addr, align 8, !tbaa !5914, !dbg !5856
	%807 = bitcast %struct._ZSt5arrayIdLm3EE*  %806 to i8*, !dbg !5856
	%808 = getelementptr i8, i8*  %807, i64 16, !dbg !5856
	%809 = bitcast i8*  %808 to double*, !dbg !5856
	%810 = load double, double*  %809, align 8, !tbaa !5915, !dbg !5856
	%811 = fsub double  %805,  %810, !dbg !5856
	%812 = load double, double* %dz.addr, align 8, !tbaa !5917, !dbg !5856
	%813 = fdiv double  %798,  %812, !dbg !5856
	%814 = load %struct._ZSt5arrayIdLm3EE*, %struct._ZSt5arrayIdLm3EE** %..inline.addr.710, align 8, !tbaa !5914, !dbg !5856
	%815 = bitcast %struct._ZSt5arrayIdLm3EE*  %814 to i8*, !dbg !5856
	%816 = getelementptr i8, i8*  %815, i64 8, !dbg !5856
	%817 = bitcast i8*  %816 to double*, !dbg !5856
	%818 = load double, double*  %817, align 8, !tbaa !5915, !dbg !5856
	%819 = getelementptr i8, i8*  %802, i64 8, !dbg !5856
	%820 = bitcast i8*  %819 to double*, !dbg !5856
	%821 = load double, double*  %820, align 8, !tbaa !5915, !dbg !5856
	%822 = fsub double  %818,  %821, !dbg !5856
	%823 = fmul double  %813,  %822, !dbg !5856
	%824 = call double @llvm.fma.f64 (double  %800, double  %811, double  %823), !dbg !5856
	%825 = fadd double  %796,  %824, !dbg !5856
	store double  %825, double*  %795, align 8, !tbaa !5915, !dbg !5856
	br label %L_T22020808_50509, !dbg !5857
L.B0002:
	%826 = load %struct._Z6FsGridISt5arrayIdLm3EELi2EE*, %struct._Z6FsGridISt5arrayIdLm3EELi2EE** %perBDt2Grid.addr, align 8, !tbaa !5914, !dbg !5858
	%827 = bitcast %struct._Z6FsGridISt5arrayIdLm3EELi2EE*  %826 to i8*, !dbg !5858
	%828 = bitcast %struct._Z6FsGridISt5arrayIdLm3EELi2EE** %..inline.addr.740 to i8**, !dbg !5858
	store i8*  %827, i8**  %828, align 8, !tbaa !5914, !dbg !5858
	%829 = load i32, i32* %i.addr, align 4, !tbaa !5919, !dbg !5858
	store i32  %829, i32* %..inline.addr.750, align 4, !tbaa !5919, !dbg !5858
	%830 = load i32, i32* %j.addr, align 4, !tbaa !5919, !dbg !5858
	store i32  %830, i32* %..inline.addr.760, align 4, !tbaa !5919, !dbg !5858
	%831 = load i32, i32* %k.addr, align 4, !tbaa !5919, !dbg !5858
	store i32  %831, i32* %..inline.addr.770, align 4, !tbaa !5919, !dbg !5858
	store i32 13, i32* %..inline.addr.780, align 4, !tbaa !5919, !dbg !5858
	%832 = bitcast [3 x i32]* %..inline.addr.790 to i32*, !dbg !5818
	store i32 0, i32*  %832, align 4, !tbaa !5915, !dbg !5818
	%833 = bitcast [3 x i32]* %..inline.addr.790 to i8*, !dbg !5819
	%834 = getelementptr i8, i8*  %833, i64 4, !dbg !5819
	%835 = bitcast i8*  %834 to i32*, !dbg !5819
	store i32 0, i32*  %835, align 4, !tbaa !5915, !dbg !5819
	%836 = getelementptr i8, i8*  %833, i64 8, !dbg !5819
	%837 = bitcast i8*  %836 to i32*, !dbg !5819
	store i32 0, i32*  %837, align 4, !tbaa !5915, !dbg !5819
	%838 = icmp sge i32  %829, 0, !dbg !5819
	br i1  %838, label %L..inline.70165, label %L.B1229, !dbg !5819
L.B1229:
	store i32 4, i32* %..inline.addr.780, align 4, !tbaa !5919, !dbg !5820
	%839 = bitcast [3 x i32]* %..inline.addr.790 to i32*, !dbg !5821
	store i32 1, i32*  %839, align 4, !tbaa !5915, !dbg !5821
	br label %L..inline.70165
L..inline.70165:
	%840 = load i32, i32* %..inline.addr.750, align 4, !tbaa !5919, !dbg !5822
	%841 = load %struct._Z6FsGridISt5arrayIdLm3EELi2EE*, %struct._Z6FsGridISt5arrayIdLm3EELi2EE** %..inline.addr.740, align 8, !tbaa !5914, !dbg !5822
	%842 = bitcast %struct._Z6FsGridISt5arrayIdLm3EELi2EE*  %841 to i8*, !dbg !5822
	%843 = getelementptr i8, i8*  %842, i64 264, !dbg !5822
	%844 = bitcast i8*  %843 to i32*, !dbg !5822
	%845 = load i32, i32*  %844, align 4, !tbaa !5915, !dbg !5822
	%846 = icmp slt i32  %840,  %845, !dbg !5822
	br i1  %846, label %L..inline.70183, label %L.B1230, !dbg !5822
L.B1230:
	%847 = load i32, i32* %..inline.addr.780, align 4, !tbaa !5919, !dbg !5822
	%848 = add i32  %847, 9, !dbg !5822
	store i32  %848, i32* %..inline.addr.780, align 4, !tbaa !5919, !dbg !5822
	%849 = bitcast [3 x i32]* %..inline.addr.790 to i32*, !dbg !5823
	store i32 -1, i32*  %849, align 4, !tbaa !5915, !dbg !5823
	br label %L..inline.70183
L..inline.70183:
	%850 = load i32, i32* %..inline.addr.760, align 4, !tbaa !5919, !dbg !5824
	%851 = icmp sge i32  %850, 0, !dbg !5824
	br i1  %851, label %L..inline.70185, label %L.B1231, !dbg !5824
L.B1231:
	%852 = load i32, i32* %..inline.addr.780, align 4, !tbaa !5919, !dbg !5824
	%853 = sub i32  %852, 3, !dbg !5824
	store i32  %853, i32* %..inline.addr.780, align 4, !tbaa !5919, !dbg !5824
	%854 = bitcast [3 x i32]* %..inline.addr.790 to i8*, !dbg !5825
	%855 = getelementptr i8, i8*  %854, i64 4, !dbg !5825
	%856 = bitcast i8*  %855 to i32*, !dbg !5825
	store i32 1, i32*  %856, align 4, !tbaa !5915, !dbg !5825
	br label %L..inline.70185
L..inline.70185:
	%857 = load i32, i32* %..inline.addr.760, align 4, !tbaa !5919, !dbg !5826
	%858 = load %struct._Z6FsGridISt5arrayIdLm3EELi2EE*, %struct._Z6FsGridISt5arrayIdLm3EELi2EE** %..inline.addr.740, align 8, !tbaa !5914, !dbg !5826
	%859 = bitcast %struct._Z6FsGridISt5arrayIdLm3EELi2EE*  %858 to i8*, !dbg !5826
	%860 = getelementptr i8, i8*  %859, i64 268, !dbg !5826
	%861 = bitcast i8*  %860 to i32*, !dbg !5826
	%862 = load i32, i32*  %861, align 4, !tbaa !5915, !dbg !5826
	%863 = icmp slt i32  %857,  %862, !dbg !5826
	br i1  %863, label %L..inline.70202, label %L.B1232, !dbg !5826
L.B1232:
	%864 = load i32, i32* %..inline.addr.780, align 4, !tbaa !5919, !dbg !5826
	%865 = add i32  %864, 3, !dbg !5826
	store i32  %865, i32* %..inline.addr.780, align 4, !tbaa !5919, !dbg !5826
	%866 = bitcast [3 x i32]* %..inline.addr.790 to i8*, !dbg !5827
	%867 = getelementptr i8, i8*  %866, i64 4, !dbg !5827
	%868 = bitcast i8*  %867 to i32*, !dbg !5827
	store i32 -1, i32*  %868, align 4, !tbaa !5915, !dbg !5827
	br label %L..inline.70202
L..inline.70202:
	%869 = load i32, i32* %..inline.addr.770, align 4, !tbaa !5919, !dbg !5828
	%870 = icmp sge i32  %869, 0, !dbg !5828
	br i1  %870, label %L..inline.70204, label %L.B1233, !dbg !5828
L.B1233:
	%871 = load i32, i32* %..inline.addr.780, align 4, !tbaa !5919, !dbg !5828
	%872 = sub i32  %871, 1, !dbg !5828
	store i32  %872, i32* %..inline.addr.780, align 4, !tbaa !5919, !dbg !5828
	%873 = bitcast [3 x i32]* %..inline.addr.790 to i8*, !dbg !5829
	%874 = getelementptr i8, i8*  %873, i64 8, !dbg !5829
	%875 = bitcast i8*  %874 to i32*, !dbg !5829
	store i32 1, i32*  %875, align 4, !tbaa !5915, !dbg !5829
	br label %L..inline.70204
L..inline.70204:
	%876 = load i32, i32* %..inline.addr.770, align 4, !tbaa !5919, !dbg !5830
	%877 = load %struct._Z6FsGridISt5arrayIdLm3EELi2EE*, %struct._Z6FsGridISt5arrayIdLm3EELi2EE** %..inline.addr.740, align 8, !tbaa !5914, !dbg !5830
	%878 = bitcast %struct._Z6FsGridISt5arrayIdLm3EELi2EE*  %877 to i8*, !dbg !5830
	%879 = getelementptr i8, i8*  %878, i64 272, !dbg !5830
	%880 = bitcast i8*  %879 to i32*, !dbg !5830
	%881 = load i32, i32*  %880, align 4, !tbaa !5915, !dbg !5830
	%882 = icmp slt i32  %876,  %881, !dbg !5830
	br i1  %882, label %L..inline.70221, label %L.B1234, !dbg !5830
L.B1234:
	%883 = load i32, i32* %..inline.addr.780, align 4, !tbaa !5919, !dbg !5830
	%884 = add i32  %883, 1, !dbg !5830
	store i32  %884, i32* %..inline.addr.780, align 4, !tbaa !5919, !dbg !5830
	%885 = bitcast [3 x i32]* %..inline.addr.790 to i8*, !dbg !5831
	%886 = getelementptr i8, i8*  %885, i64 8, !dbg !5831
	%887 = bitcast i8*  %886 to i32*, !dbg !5831
	store i32 -1, i32*  %887, align 4, !tbaa !5915, !dbg !5831
	br label %L..inline.70221
L..inline.70221:
	%888 = load i32, i32* %..inline.addr.780, align 4, !tbaa !5919, !dbg !5832
	%889 = icmp eq i32  %888, 13, !dbg !5832
	br i1  %889, label %L..inline.70222, label %L.B1235, !dbg !5832
L.B1235:
	%890 = sext i32  %888 to i64, !dbg !5833
	%891 = load %struct._Z6FsGridISt5arrayIdLm3EELi2EE*, %struct._Z6FsGridISt5arrayIdLm3EELi2EE** %..inline.addr.740, align 8, !tbaa !5914, !dbg !5833
	%892 = bitcast %struct._Z6FsGridISt5arrayIdLm3EELi2EE*  %891 to i8*, !dbg !5833
	%893 = getelementptr i8, i8*  %892, i64 92, !dbg !5833
	%894 = bitcast i8*  %893 to i32*, !dbg !5833
	%895 = getelementptr i32, i32*  %894, i64  %890, !dbg !5833
	%896 = load i32, i32*  %895, align 4, !tbaa !5915, !dbg !5833
	%897 = icmp ne i32  %896, -2, !dbg !5833
	br i1  %897, label %L..inline.70239, label %L.B1236, !dbg !5833
L.B1236:
	%898 = bitcast %struct._ZSt5arrayIdLm3EE** %..inline.addr.800 to i8**, !dbg !5833
	store i8* null, i8**  %898, align 8, !tbaa !5914, !dbg !5833
	br label %L..inline.70426, !dbg !5834
L..inline.70239:
	%899 = load i32, i32* %..inline.addr.780, align 4, !tbaa !5919, !dbg !5835
	%900 = sext i32  %899 to i64, !dbg !5835
	%901 = load %struct._Z6FsGridISt5arrayIdLm3EELi2EE*, %struct._Z6FsGridISt5arrayIdLm3EELi2EE** %..inline.addr.740, align 8, !tbaa !5914, !dbg !5835
	%902 = bitcast %struct._Z6FsGridISt5arrayIdLm3EELi2EE*  %901 to i8*, !dbg !5835
	%903 = getelementptr i8, i8*  %902, i64 92, !dbg !5835
	%904 = bitcast i8*  %903 to i32*, !dbg !5835
	%905 = getelementptr i32, i32*  %904, i64  %900, !dbg !5835
	%906 = load i32, i32*  %905, align 4, !tbaa !5915, !dbg !5835
	%907 = getelementptr i8, i8*  %902, i64 56, !dbg !5835
	%908 = bitcast i8*  %907 to i32*, !dbg !5835
	%909 = load i32, i32*  %908, align 4, !tbaa !5915, !dbg !5835
	%910 = icmp ne i32  %906,  %909, !dbg !5835
	br i1  %910, label %L..inline.70257, label %L.B1237, !dbg !5835
L.B1237:
	%911 = load i32, i32* %..inline.addr.750, align 4, !tbaa !5919, !dbg !5836
	%912 = bitcast [3 x i32]* %..inline.addr.790 to i32*, !dbg !5836
	%913 = load i32, i32*  %912, align 4, !tbaa !5915, !dbg !5836
	%914 = bitcast %struct._Z6FsGridISt5arrayIdLm3EELi2EE*  %901 to i8*, !dbg !5836
	%915 = getelementptr i8, i8*  %914, i64 264, !dbg !5836
	%916 = bitcast i8*  %915 to i32*, !dbg !5836
	%917 = load i32, i32*  %916, align 4, !tbaa !5915, !dbg !5836
	%918 = mul i32  %913,  %917, !dbg !5836
	%919 = add i32  %911,  %918, !dbg !5836
	store i32  %919, i32* %..inline.addr.750, align 4, !tbaa !5919, !dbg !5836
	%920 = load i32, i32* %..inline.addr.760, align 4, !tbaa !5919, !dbg !5837
	%921 = bitcast [3 x i32]* %..inline.addr.790 to i8*, !dbg !5837
	%922 = getelementptr i8, i8*  %921, i64 4, !dbg !5837
	%923 = bitcast i8*  %922 to i32*, !dbg !5837
	%924 = load i32, i32*  %923, align 4, !tbaa !5915, !dbg !5837
	%925 = getelementptr i8, i8*  %914, i64 268, !dbg !5837
	%926 = bitcast i8*  %925 to i32*, !dbg !5837
	%927 = load i32, i32*  %926, align 4, !tbaa !5915, !dbg !5837
	%928 = mul i32  %924,  %927, !dbg !5837
	%929 = add i32  %920,  %928, !dbg !5837
	store i32  %929, i32* %..inline.addr.760, align 4, !tbaa !5919, !dbg !5837
	%930 = load i32, i32* %..inline.addr.770, align 4, !tbaa !5919, !dbg !5838
	%931 = getelementptr i8, i8*  %921, i64 8, !dbg !5838
	%932 = bitcast i8*  %931 to i32*, !dbg !5838
	%933 = load i32, i32*  %932, align 4, !tbaa !5915, !dbg !5838
	%934 = getelementptr i8, i8*  %914, i64 272, !dbg !5838
	%935 = bitcast i8*  %934 to i32*, !dbg !5838
	%936 = load i32, i32*  %935, align 4, !tbaa !5915, !dbg !5838
	%937 = mul i32  %933,  %936, !dbg !5838
	%938 = add i32  %930,  %937, !dbg !5838
	store i32  %938, i32* %..inline.addr.770, align 4, !tbaa !5919, !dbg !5838
	br label %L..inline.70257
L..inline.70257:
	br label %L..inline.70222
L..inline.70222:
	store i64 0, i64* %..inline.addr.810, align 8, !tbaa !5921, !dbg !5839
	%939 = load %struct._Z6FsGridISt5arrayIdLm3EELi2EE*, %struct._Z6FsGridISt5arrayIdLm3EELi2EE** %..inline.addr.740, align 8, !tbaa !5914, !dbg !5839
	%940 = bitcast %struct._Z6FsGridISt5arrayIdLm3EELi2EE*  %939 to i8*, !dbg !5839
	%941 = getelementptr i8, i8*  %940, i64 260, !dbg !5839
	%942 = bitcast i8*  %941 to i32*, !dbg !5839
	%943 = load i32, i32*  %942, align 4, !tbaa !5915, !dbg !5839
	%944 = icmp sle i32  %943, 1, !dbg !5839
	br i1  %944, label %L..inline.70331, label %L.B1238, !dbg !5839
L.B1238:
	%945 = load i32, i32* %..inline.addr.770, align 4, !tbaa !5919, !dbg !5839
	%946 = add i32  %945, 2, !dbg !5839
	%947 = bitcast %struct._Z6FsGridISt5arrayIdLm3EELi2EE*  %939 to i8*, !dbg !5839
	%948 = getelementptr i8, i8*  %947, i64 280, !dbg !5839
	%949 = bitcast i8*  %948 to i32*, !dbg !5839
	%950 = load i32, i32*  %949, align 4, !tbaa !5915, !dbg !5839
	%951 = getelementptr i8, i8*  %947, i64 276, !dbg !5839
	%952 = bitcast i8*  %951 to i32*, !dbg !5839
	%953 = load i32, i32*  %952, align 4, !tbaa !5915, !dbg !5839
	%954 = mul i32  %950,  %953, !dbg !5839
	%955 = mul i32  %946,  %954, !dbg !5839
	%956 = sext i32  %955 to i64, !dbg !5839
	store i64  %956, i64* %..inline.addr.810, align 8, !tbaa !5921, !dbg !5839
	br label %L..inline.70331
L..inline.70331:
	%957 = load %struct._Z6FsGridISt5arrayIdLm3EELi2EE*, %struct._Z6FsGridISt5arrayIdLm3EELi2EE** %..inline.addr.740, align 8, !tbaa !5914, !dbg !5839
	%958 = bitcast %struct._Z6FsGridISt5arrayIdLm3EELi2EE*  %957 to i8*, !dbg !5839
	%959 = getelementptr i8, i8*  %958, i64 256, !dbg !5839
	%960 = bitcast i8*  %959 to i32*, !dbg !5839
	%961 = load i32, i32*  %960, align 4, !tbaa !5915, !dbg !5839
	%962 = icmp sle i32  %961, 1, !dbg !5839
	br i1  %962, label %L..inline.70380, label %L.B1239, !dbg !5839
L.B1239:
	%963 = load i64, i64* %..inline.addr.810, align 8, !tbaa !5921, !dbg !5839
	%964 = bitcast %struct._Z6FsGridISt5arrayIdLm3EELi2EE*  %957 to i8*, !dbg !5839
	%965 = getelementptr i8, i8*  %964, i64 276, !dbg !5839
	%966 = bitcast i8*  %965 to i32*, !dbg !5839
	%967 = load i32, i32*  %966, align 4, !tbaa !5915, !dbg !5839
	%968 = load i32, i32* %..inline.addr.760, align 4, !tbaa !5919, !dbg !5839
	%969 = add i32  %968, 2, !dbg !5839
	%970 = mul i32  %967,  %969, !dbg !5839
	%971 = sext i32  %970 to i64, !dbg !5839
	%972 = add i64  %963,  %971, !dbg !5839
	store i64  %972, i64* %..inline.addr.810, align 8, !tbaa !5921, !dbg !5839
	br label %L..inline.70380
L..inline.70380:
	%973 = load %struct._Z6FsGridISt5arrayIdLm3EELi2EE*, %struct._Z6FsGridISt5arrayIdLm3EELi2EE** %..inline.addr.740, align 8, !tbaa !5914, !dbg !5839
	%974 = bitcast %struct._Z6FsGridISt5arrayIdLm3EELi2EE*  %973 to i8*, !dbg !5839
	%975 = getelementptr i8, i8*  %974, i64 252, !dbg !5839
	%976 = bitcast i8*  %975 to i32*, !dbg !5839
	%977 = load i32, i32*  %976, align 4, !tbaa !5915, !dbg !5839
	%978 = icmp sle i32  %977, 1, !dbg !5839
	%979 = zext i1  %978 to i32, !dbg !5839
	%980 = trunc i32  %979 to i1, !dbg !5839
	%981 = load i64, i64* %..inline.addr.810, align 8, !tbaa !5921, !dbg !5839
	%982 = load i32, i32* %..inline.addr.750, align 4, !tbaa !5919, !dbg !5839
	%983 = sext i32  %982 to i64, !dbg !5839
	%984 = add i64  %983, 2, !dbg !5839
	%985 = add i64  %981,  %984, !dbg !5839
	%986 = select i1  %980, i64  %981, i64  %985, !dbg !5839
	%987 = getelementptr i8, i8*  %974, i64 744, !dbg !5840
	%988 = bitcast i8*  %987 to i8**, !dbg !5840
	%989 = load i8*, i8**  %988, align 8, !tbaa !5914, !dbg !5840
	%990 = mul i64  %986, 24, !dbg !5840
	%991 = getelementptr i8, i8*  %989, i64  %990, !dbg !5840
	%992 = bitcast %struct._ZSt5arrayIdLm3EE** %..inline.addr.800 to i8**, !dbg !5840
	store i8*  %991, i8**  %992, align 8, !tbaa !5914, !dbg !5840
	br label %L..inline.70426
L..inline.70426:
	%993 = load %struct._ZSt5arrayIdLm3EE*, %struct._ZSt5arrayIdLm3EE** %..inline.addr.800, align 8, !tbaa !5914, !dbg !5841
	%994 = bitcast %struct._ZSt5arrayIdLm3EE*  %993 to i8*, !dbg !5841
	call void @llvm.dbg.declare (metadata %struct._ZSt5arrayIdLm3EE** %perBDt2Grid0.addr, metadata !5859, metadata !5787), !dbg !3835
	%995 = bitcast %struct._ZSt5arrayIdLm3EE** %perBDt2Grid0.addr to i8**, !dbg !5841
	store i8*  %994, i8**  %995, align 8, !tbaa !5914, !dbg !5841
	%996 = load %struct._Z6FsGridISt5arrayIdLm3EELi2EE*, %struct._Z6FsGridISt5arrayIdLm3EELi2EE** %EGrid.addr, align 8, !tbaa !5914, !dbg !5860
	%997 = bitcast %struct._Z6FsGridISt5arrayIdLm3EELi2EE*  %996 to i8*, !dbg !5860
	%998 = bitcast %struct._Z6FsGridISt5arrayIdLm3EELi2EE** %..inline.addr.830 to i8**, !dbg !5860
	store i8*  %997, i8**  %998, align 8, !tbaa !5914, !dbg !5860
	%999 = load i32, i32* %i.addr, align 4, !tbaa !5919, !dbg !5860
	store i32  %999, i32* %..inline.addr.840, align 4, !tbaa !5919, !dbg !5860
	%1000 = load i32, i32* %j.addr, align 4, !tbaa !5919, !dbg !5860
	store i32  %1000, i32* %..inline.addr.850, align 4, !tbaa !5919, !dbg !5860
	%1001 = load i32, i32* %k.addr, align 4, !tbaa !5919, !dbg !5860
	store i32  %1001, i32* %..inline.addr.860, align 4, !tbaa !5919, !dbg !5860
	store i32 13, i32* %..inline.addr.870, align 4, !tbaa !5919, !dbg !5860
	%1002 = bitcast [3 x i32]* %..inline.addr.880 to i32*, !dbg !5818
	store i32 0, i32*  %1002, align 4, !tbaa !5915, !dbg !5818
	%1003 = bitcast [3 x i32]* %..inline.addr.880 to i8*, !dbg !5819
	%1004 = getelementptr i8, i8*  %1003, i64 4, !dbg !5819
	%1005 = bitcast i8*  %1004 to i32*, !dbg !5819
	store i32 0, i32*  %1005, align 4, !tbaa !5915, !dbg !5819
	%1006 = getelementptr i8, i8*  %1003, i64 8, !dbg !5819
	%1007 = bitcast i8*  %1006 to i32*, !dbg !5819
	store i32 0, i32*  %1007, align 4, !tbaa !5915, !dbg !5819
	%1008 = icmp sge i32  %999, 0, !dbg !5819
	br i1  %1008, label %L..inline.70432, label %L.B1240, !dbg !5819
L.B1240:
	store i32 4, i32* %..inline.addr.870, align 4, !tbaa !5919, !dbg !5820
	%1009 = bitcast [3 x i32]* %..inline.addr.880 to i32*, !dbg !5821
	store i32 1, i32*  %1009, align 4, !tbaa !5915, !dbg !5821
	br label %L..inline.70432
L..inline.70432:
	%1010 = load i32, i32* %..inline.addr.840, align 4, !tbaa !5919, !dbg !5822
	%1011 = load %struct._Z6FsGridISt5arrayIdLm3EELi2EE*, %struct._Z6FsGridISt5arrayIdLm3EELi2EE** %..inline.addr.830, align 8, !tbaa !5914, !dbg !5822
	%1012 = bitcast %struct._Z6FsGridISt5arrayIdLm3EELi2EE*  %1011 to i8*, !dbg !5822
	%1013 = getelementptr i8, i8*  %1012, i64 264, !dbg !5822
	%1014 = bitcast i8*  %1013 to i32*, !dbg !5822
	%1015 = load i32, i32*  %1014, align 4, !tbaa !5915, !dbg !5822
	%1016 = icmp slt i32  %1010,  %1015, !dbg !5822
	br i1  %1016, label %L..inline.70450, label %L.B1241, !dbg !5822
L.B1241:
	%1017 = load i32, i32* %..inline.addr.870, align 4, !tbaa !5919, !dbg !5822
	%1018 = add i32  %1017, 9, !dbg !5822
	store i32  %1018, i32* %..inline.addr.870, align 4, !tbaa !5919, !dbg !5822
	%1019 = bitcast [3 x i32]* %..inline.addr.880 to i32*, !dbg !5823
	store i32 -1, i32*  %1019, align 4, !tbaa !5915, !dbg !5823
	br label %L..inline.70450
L..inline.70450:
	%1020 = load i32, i32* %..inline.addr.850, align 4, !tbaa !5919, !dbg !5824
	%1021 = icmp sge i32  %1020, 0, !dbg !5824
	br i1  %1021, label %L..inline.70452, label %L.B1242, !dbg !5824
L.B1242:
	%1022 = load i32, i32* %..inline.addr.870, align 4, !tbaa !5919, !dbg !5824
	%1023 = sub i32  %1022, 3, !dbg !5824
	store i32  %1023, i32* %..inline.addr.870, align 4, !tbaa !5919, !dbg !5824
	%1024 = bitcast [3 x i32]* %..inline.addr.880 to i8*, !dbg !5825
	%1025 = getelementptr i8, i8*  %1024, i64 4, !dbg !5825
	%1026 = bitcast i8*  %1025 to i32*, !dbg !5825
	store i32 1, i32*  %1026, align 4, !tbaa !5915, !dbg !5825
	br label %L..inline.70452
L..inline.70452:
	%1027 = load i32, i32* %..inline.addr.850, align 4, !tbaa !5919, !dbg !5826
	%1028 = load %struct._Z6FsGridISt5arrayIdLm3EELi2EE*, %struct._Z6FsGridISt5arrayIdLm3EELi2EE** %..inline.addr.830, align 8, !tbaa !5914, !dbg !5826
	%1029 = bitcast %struct._Z6FsGridISt5arrayIdLm3EELi2EE*  %1028 to i8*, !dbg !5826
	%1030 = getelementptr i8, i8*  %1029, i64 268, !dbg !5826
	%1031 = bitcast i8*  %1030 to i32*, !dbg !5826
	%1032 = load i32, i32*  %1031, align 4, !tbaa !5915, !dbg !5826
	%1033 = icmp slt i32  %1027,  %1032, !dbg !5826
	br i1  %1033, label %L..inline.70469, label %L.B1243, !dbg !5826
L.B1243:
	%1034 = load i32, i32* %..inline.addr.870, align 4, !tbaa !5919, !dbg !5826
	%1035 = add i32  %1034, 3, !dbg !5826
	store i32  %1035, i32* %..inline.addr.870, align 4, !tbaa !5919, !dbg !5826
	%1036 = bitcast [3 x i32]* %..inline.addr.880 to i8*, !dbg !5827
	%1037 = getelementptr i8, i8*  %1036, i64 4, !dbg !5827
	%1038 = bitcast i8*  %1037 to i32*, !dbg !5827
	store i32 -1, i32*  %1038, align 4, !tbaa !5915, !dbg !5827
	br label %L..inline.70469
L..inline.70469:
	%1039 = load i32, i32* %..inline.addr.860, align 4, !tbaa !5919, !dbg !5828
	%1040 = icmp sge i32  %1039, 0, !dbg !5828
	br i1  %1040, label %L..inline.70471, label %L.B1244, !dbg !5828
L.B1244:
	%1041 = load i32, i32* %..inline.addr.870, align 4, !tbaa !5919, !dbg !5828
	%1042 = sub i32  %1041, 1, !dbg !5828
	store i32  %1042, i32* %..inline.addr.870, align 4, !tbaa !5919, !dbg !5828
	%1043 = bitcast [3 x i32]* %..inline.addr.880 to i8*, !dbg !5829
	%1044 = getelementptr i8, i8*  %1043, i64 8, !dbg !5829
	%1045 = bitcast i8*  %1044 to i32*, !dbg !5829
	store i32 1, i32*  %1045, align 4, !tbaa !5915, !dbg !5829
	br label %L..inline.70471
L..inline.70471:
	%1046 = load i32, i32* %..inline.addr.860, align 4, !tbaa !5919, !dbg !5830
	%1047 = load %struct._Z6FsGridISt5arrayIdLm3EELi2EE*, %struct._Z6FsGridISt5arrayIdLm3EELi2EE** %..inline.addr.830, align 8, !tbaa !5914, !dbg !5830
	%1048 = bitcast %struct._Z6FsGridISt5arrayIdLm3EELi2EE*  %1047 to i8*, !dbg !5830
	%1049 = getelementptr i8, i8*  %1048, i64 272, !dbg !5830
	%1050 = bitcast i8*  %1049 to i32*, !dbg !5830
	%1051 = load i32, i32*  %1050, align 4, !tbaa !5915, !dbg !5830
	%1052 = icmp slt i32  %1046,  %1051, !dbg !5830
	br i1  %1052, label %L..inline.70488, label %L.B1245, !dbg !5830
L.B1245:
	%1053 = load i32, i32* %..inline.addr.870, align 4, !tbaa !5919, !dbg !5830
	%1054 = add i32  %1053, 1, !dbg !5830
	store i32  %1054, i32* %..inline.addr.870, align 4, !tbaa !5919, !dbg !5830
	%1055 = bitcast [3 x i32]* %..inline.addr.880 to i8*, !dbg !5831
	%1056 = getelementptr i8, i8*  %1055, i64 8, !dbg !5831
	%1057 = bitcast i8*  %1056 to i32*, !dbg !5831
	store i32 -1, i32*  %1057, align 4, !tbaa !5915, !dbg !5831
	br label %L..inline.70488
L..inline.70488:
	%1058 = load i32, i32* %..inline.addr.870, align 4, !tbaa !5919, !dbg !5832
	%1059 = icmp eq i32  %1058, 13, !dbg !5832
	br i1  %1059, label %L..inline.70489, label %L.B1246, !dbg !5832
L.B1246:
	%1060 = sext i32  %1058 to i64, !dbg !5833
	%1061 = load %struct._Z6FsGridISt5arrayIdLm3EELi2EE*, %struct._Z6FsGridISt5arrayIdLm3EELi2EE** %..inline.addr.830, align 8, !tbaa !5914, !dbg !5833
	%1062 = bitcast %struct._Z6FsGridISt5arrayIdLm3EELi2EE*  %1061 to i8*, !dbg !5833
	%1063 = getelementptr i8, i8*  %1062, i64 92, !dbg !5833
	%1064 = bitcast i8*  %1063 to i32*, !dbg !5833
	%1065 = getelementptr i32, i32*  %1064, i64  %1060, !dbg !5833
	%1066 = load i32, i32*  %1065, align 4, !tbaa !5915, !dbg !5833
	%1067 = icmp ne i32  %1066, -2, !dbg !5833
	br i1  %1067, label %L..inline.70506, label %L.B1247, !dbg !5833
L.B1247:
	%1068 = bitcast %struct._ZSt5arrayIdLm3EE** %..inline.addr.890 to i8**, !dbg !5833
	store i8* null, i8**  %1068, align 8, !tbaa !5914, !dbg !5833
	br label %L..inline.70693, !dbg !5834
L..inline.70506:
	%1069 = load i32, i32* %..inline.addr.870, align 4, !tbaa !5919, !dbg !5835
	%1070 = sext i32  %1069 to i64, !dbg !5835
	%1071 = load %struct._Z6FsGridISt5arrayIdLm3EELi2EE*, %struct._Z6FsGridISt5arrayIdLm3EELi2EE** %..inline.addr.830, align 8, !tbaa !5914, !dbg !5835
	%1072 = bitcast %struct._Z6FsGridISt5arrayIdLm3EELi2EE*  %1071 to i8*, !dbg !5835
	%1073 = getelementptr i8, i8*  %1072, i64 92, !dbg !5835
	%1074 = bitcast i8*  %1073 to i32*, !dbg !5835
	%1075 = getelementptr i32, i32*  %1074, i64  %1070, !dbg !5835
	%1076 = load i32, i32*  %1075, align 4, !tbaa !5915, !dbg !5835
	%1077 = getelementptr i8, i8*  %1072, i64 56, !dbg !5835
	%1078 = bitcast i8*  %1077 to i32*, !dbg !5835
	%1079 = load i32, i32*  %1078, align 4, !tbaa !5915, !dbg !5835
	%1080 = icmp ne i32  %1076,  %1079, !dbg !5835
	br i1  %1080, label %L..inline.70524, label %L.B1248, !dbg !5835
L.B1248:
	%1081 = load i32, i32* %..inline.addr.840, align 4, !tbaa !5919, !dbg !5836
	%1082 = bitcast [3 x i32]* %..inline.addr.880 to i32*, !dbg !5836
	%1083 = load i32, i32*  %1082, align 4, !tbaa !5915, !dbg !5836
	%1084 = bitcast %struct._Z6FsGridISt5arrayIdLm3EELi2EE*  %1071 to i8*, !dbg !5836
	%1085 = getelementptr i8, i8*  %1084, i64 264, !dbg !5836
	%1086 = bitcast i8*  %1085 to i32*, !dbg !5836
	%1087 = load i32, i32*  %1086, align 4, !tbaa !5915, !dbg !5836
	%1088 = mul i32  %1083,  %1087, !dbg !5836
	%1089 = add i32  %1081,  %1088, !dbg !5836
	store i32  %1089, i32* %..inline.addr.840, align 4, !tbaa !5919, !dbg !5836
	%1090 = load i32, i32* %..inline.addr.850, align 4, !tbaa !5919, !dbg !5837
	%1091 = bitcast [3 x i32]* %..inline.addr.880 to i8*, !dbg !5837
	%1092 = getelementptr i8, i8*  %1091, i64 4, !dbg !5837
	%1093 = bitcast i8*  %1092 to i32*, !dbg !5837
	%1094 = load i32, i32*  %1093, align 4, !tbaa !5915, !dbg !5837
	%1095 = getelementptr i8, i8*  %1084, i64 268, !dbg !5837
	%1096 = bitcast i8*  %1095 to i32*, !dbg !5837
	%1097 = load i32, i32*  %1096, align 4, !tbaa !5915, !dbg !5837
	%1098 = mul i32  %1094,  %1097, !dbg !5837
	%1099 = add i32  %1090,  %1098, !dbg !5837
	store i32  %1099, i32* %..inline.addr.850, align 4, !tbaa !5919, !dbg !5837
	%1100 = load i32, i32* %..inline.addr.860, align 4, !tbaa !5919, !dbg !5838
	%1101 = getelementptr i8, i8*  %1091, i64 8, !dbg !5838
	%1102 = bitcast i8*  %1101 to i32*, !dbg !5838
	%1103 = load i32, i32*  %1102, align 4, !tbaa !5915, !dbg !5838
	%1104 = getelementptr i8, i8*  %1084, i64 272, !dbg !5838
	%1105 = bitcast i8*  %1104 to i32*, !dbg !5838
	%1106 = load i32, i32*  %1105, align 4, !tbaa !5915, !dbg !5838
	%1107 = mul i32  %1103,  %1106, !dbg !5838
	%1108 = add i32  %1100,  %1107, !dbg !5838
	store i32  %1108, i32* %..inline.addr.860, align 4, !tbaa !5919, !dbg !5838
	br label %L..inline.70524
L..inline.70524:
	br label %L..inline.70489
L..inline.70489:
	store i64 0, i64* %..inline.addr.900, align 8, !tbaa !5921, !dbg !5839
	%1109 = load %struct._Z6FsGridISt5arrayIdLm3EELi2EE*, %struct._Z6FsGridISt5arrayIdLm3EELi2EE** %..inline.addr.830, align 8, !tbaa !5914, !dbg !5839
	%1110 = bitcast %struct._Z6FsGridISt5arrayIdLm3EELi2EE*  %1109 to i8*, !dbg !5839
	%1111 = getelementptr i8, i8*  %1110, i64 260, !dbg !5839
	%1112 = bitcast i8*  %1111 to i32*, !dbg !5839
	%1113 = load i32, i32*  %1112, align 4, !tbaa !5915, !dbg !5839
	%1114 = icmp sle i32  %1113, 1, !dbg !5839
	br i1  %1114, label %L..inline.70598, label %L.B1249, !dbg !5839
L.B1249:
	%1115 = load i32, i32* %..inline.addr.860, align 4, !tbaa !5919, !dbg !5839
	%1116 = add i32  %1115, 2, !dbg !5839
	%1117 = bitcast %struct._Z6FsGridISt5arrayIdLm3EELi2EE*  %1109 to i8*, !dbg !5839
	%1118 = getelementptr i8, i8*  %1117, i64 280, !dbg !5839
	%1119 = bitcast i8*  %1118 to i32*, !dbg !5839
	%1120 = load i32, i32*  %1119, align 4, !tbaa !5915, !dbg !5839
	%1121 = getelementptr i8, i8*  %1117, i64 276, !dbg !5839
	%1122 = bitcast i8*  %1121 to i32*, !dbg !5839
	%1123 = load i32, i32*  %1122, align 4, !tbaa !5915, !dbg !5839
	%1124 = mul i32  %1120,  %1123, !dbg !5839
	%1125 = mul i32  %1116,  %1124, !dbg !5839
	%1126 = sext i32  %1125 to i64, !dbg !5839
	store i64  %1126, i64* %..inline.addr.900, align 8, !tbaa !5921, !dbg !5839
	br label %L..inline.70598
L..inline.70598:
	%1127 = load %struct._Z6FsGridISt5arrayIdLm3EELi2EE*, %struct._Z6FsGridISt5arrayIdLm3EELi2EE** %..inline.addr.830, align 8, !tbaa !5914, !dbg !5839
	%1128 = bitcast %struct._Z6FsGridISt5arrayIdLm3EELi2EE*  %1127 to i8*, !dbg !5839
	%1129 = getelementptr i8, i8*  %1128, i64 256, !dbg !5839
	%1130 = bitcast i8*  %1129 to i32*, !dbg !5839
	%1131 = load i32, i32*  %1130, align 4, !tbaa !5915, !dbg !5839
	%1132 = icmp sle i32  %1131, 1, !dbg !5839
	br i1  %1132, label %L..inline.70647, label %L.B1250, !dbg !5839
L.B1250:
	%1133 = load i64, i64* %..inline.addr.900, align 8, !tbaa !5921, !dbg !5839
	%1134 = bitcast %struct._Z6FsGridISt5arrayIdLm3EELi2EE*  %1127 to i8*, !dbg !5839
	%1135 = getelementptr i8, i8*  %1134, i64 276, !dbg !5839
	%1136 = bitcast i8*  %1135 to i32*, !dbg !5839
	%1137 = load i32, i32*  %1136, align 4, !tbaa !5915, !dbg !5839
	%1138 = load i32, i32* %..inline.addr.850, align 4, !tbaa !5919, !dbg !5839
	%1139 = add i32  %1138, 2, !dbg !5839
	%1140 = mul i32  %1137,  %1139, !dbg !5839
	%1141 = sext i32  %1140 to i64, !dbg !5839
	%1142 = add i64  %1133,  %1141, !dbg !5839
	store i64  %1142, i64* %..inline.addr.900, align 8, !tbaa !5921, !dbg !5839
	br label %L..inline.70647
L..inline.70647:
	%1143 = load %struct._Z6FsGridISt5arrayIdLm3EELi2EE*, %struct._Z6FsGridISt5arrayIdLm3EELi2EE** %..inline.addr.830, align 8, !tbaa !5914, !dbg !5839
	%1144 = bitcast %struct._Z6FsGridISt5arrayIdLm3EELi2EE*  %1143 to i8*, !dbg !5839
	%1145 = getelementptr i8, i8*  %1144, i64 252, !dbg !5839
	%1146 = bitcast i8*  %1145 to i32*, !dbg !5839
	%1147 = load i32, i32*  %1146, align 4, !tbaa !5915, !dbg !5839
	%1148 = icmp sle i32  %1147, 1, !dbg !5839
	%1149 = zext i1  %1148 to i32, !dbg !5839
	%1150 = trunc i32  %1149 to i1, !dbg !5839
	%1151 = load i64, i64* %..inline.addr.900, align 8, !tbaa !5921, !dbg !5839
	%1152 = load i32, i32* %..inline.addr.840, align 4, !tbaa !5919, !dbg !5839
	%1153 = sext i32  %1152 to i64, !dbg !5839
	%1154 = add i64  %1153, 2, !dbg !5839
	%1155 = add i64  %1151,  %1154, !dbg !5839
	%1156 = select i1  %1150, i64  %1151, i64  %1155, !dbg !5839
	%1157 = getelementptr i8, i8*  %1144, i64 744, !dbg !5840
	%1158 = bitcast i8*  %1157 to i8**, !dbg !5840
	%1159 = load i8*, i8**  %1158, align 8, !tbaa !5914, !dbg !5840
	%1160 = mul i64  %1156, 24, !dbg !5840
	%1161 = getelementptr i8, i8*  %1159, i64  %1160, !dbg !5840
	%1162 = bitcast %struct._ZSt5arrayIdLm3EE** %..inline.addr.890 to i8**, !dbg !5840
	store i8*  %1161, i8**  %1162, align 8, !tbaa !5914, !dbg !5840
	br label %L..inline.70693
L..inline.70693:
	%1163 = load %struct._ZSt5arrayIdLm3EE*, %struct._ZSt5arrayIdLm3EE** %..inline.addr.890, align 8, !tbaa !5914, !dbg !5841
	%1164 = bitcast %struct._ZSt5arrayIdLm3EE*  %1163 to i8*, !dbg !5841
	%1165 = bitcast %struct._ZSt5arrayIdLm3EE** %EGrid0.addr to i8**, !dbg !5841
	store i8*  %1164, i8**  %1165, align 8, !tbaa !5914, !dbg !5841
	%1166 = load %struct._Z6FsGridISt5arrayIdLm3EELi2EE*, %struct._Z6FsGridISt5arrayIdLm3EELi2EE** %EGrid.addr, align 8, !tbaa !5914, !dbg !5861
	%1167 = bitcast %struct._Z6FsGridISt5arrayIdLm3EELi2EE*  %1166 to i8*, !dbg !5861
	%1168 = bitcast %struct._Z6FsGridISt5arrayIdLm3EELi2EE** %..inline.addr.910 to i8**, !dbg !5861
	store i8*  %1167, i8**  %1168, align 8, !tbaa !5914, !dbg !5861
	%1169 = load i32, i32* %i.addr, align 4, !tbaa !5919, !dbg !5861
	store i32  %1169, i32* %..inline.addr.920, align 4, !tbaa !5919, !dbg !5861
	%1170 = load i32, i32* %j.addr, align 4, !tbaa !5919, !dbg !5861
	%1171 = add i32  %1170, 1, !dbg !5861
	store i32  %1171, i32* %..inline.addr.930, align 4, !tbaa !5919, !dbg !5861
	%1172 = load i32, i32* %k.addr, align 4, !tbaa !5919, !dbg !5861
	store i32  %1172, i32* %..inline.addr.940, align 4, !tbaa !5919, !dbg !5861
	store i32 13, i32* %..inline.addr.950, align 4, !tbaa !5919, !dbg !5861
	%1173 = bitcast [3 x i32]* %..inline.addr.960 to i32*, !dbg !5818
	store i32 0, i32*  %1173, align 4, !tbaa !5915, !dbg !5818
	%1174 = bitcast [3 x i32]* %..inline.addr.960 to i8*, !dbg !5819
	%1175 = getelementptr i8, i8*  %1174, i64 4, !dbg !5819
	%1176 = bitcast i8*  %1175 to i32*, !dbg !5819
	store i32 0, i32*  %1176, align 4, !tbaa !5915, !dbg !5819
	%1177 = getelementptr i8, i8*  %1174, i64 8, !dbg !5819
	%1178 = bitcast i8*  %1177 to i32*, !dbg !5819
	store i32 0, i32*  %1178, align 4, !tbaa !5915, !dbg !5819
	%1179 = icmp sge i32  %1169, 0, !dbg !5819
	br i1  %1179, label %L..inline.70699, label %L.B1251, !dbg !5819
L.B1251:
	store i32 4, i32* %..inline.addr.950, align 4, !tbaa !5919, !dbg !5820
	%1180 = bitcast [3 x i32]* %..inline.addr.960 to i32*, !dbg !5821
	store i32 1, i32*  %1180, align 4, !tbaa !5915, !dbg !5821
	br label %L..inline.70699
L..inline.70699:
	%1181 = load i32, i32* %..inline.addr.920, align 4, !tbaa !5919, !dbg !5822
	%1182 = load %struct._Z6FsGridISt5arrayIdLm3EELi2EE*, %struct._Z6FsGridISt5arrayIdLm3EELi2EE** %..inline.addr.910, align 8, !tbaa !5914, !dbg !5822
	%1183 = bitcast %struct._Z6FsGridISt5arrayIdLm3EELi2EE*  %1182 to i8*, !dbg !5822
	%1184 = getelementptr i8, i8*  %1183, i64 264, !dbg !5822
	%1185 = bitcast i8*  %1184 to i32*, !dbg !5822
	%1186 = load i32, i32*  %1185, align 4, !tbaa !5915, !dbg !5822
	%1187 = icmp slt i32  %1181,  %1186, !dbg !5822
	br i1  %1187, label %L..inline.70717, label %L.B1252, !dbg !5822
L.B1252:
	%1188 = load i32, i32* %..inline.addr.950, align 4, !tbaa !5919, !dbg !5822
	%1189 = add i32  %1188, 9, !dbg !5822
	store i32  %1189, i32* %..inline.addr.950, align 4, !tbaa !5919, !dbg !5822
	%1190 = bitcast [3 x i32]* %..inline.addr.960 to i32*, !dbg !5823
	store i32 -1, i32*  %1190, align 4, !tbaa !5915, !dbg !5823
	br label %L..inline.70717
L..inline.70717:
	%1191 = load i32, i32* %..inline.addr.930, align 4, !tbaa !5919, !dbg !5824
	%1192 = icmp sge i32  %1191, 0, !dbg !5824
	br i1  %1192, label %L..inline.70719, label %L.B1253, !dbg !5824
L.B1253:
	%1193 = load i32, i32* %..inline.addr.950, align 4, !tbaa !5919, !dbg !5824
	%1194 = sub i32  %1193, 3, !dbg !5824
	store i32  %1194, i32* %..inline.addr.950, align 4, !tbaa !5919, !dbg !5824
	%1195 = bitcast [3 x i32]* %..inline.addr.960 to i8*, !dbg !5825
	%1196 = getelementptr i8, i8*  %1195, i64 4, !dbg !5825
	%1197 = bitcast i8*  %1196 to i32*, !dbg !5825
	store i32 1, i32*  %1197, align 4, !tbaa !5915, !dbg !5825
	br label %L..inline.70719
L..inline.70719:
	%1198 = load i32, i32* %..inline.addr.930, align 4, !tbaa !5919, !dbg !5826
	%1199 = load %struct._Z6FsGridISt5arrayIdLm3EELi2EE*, %struct._Z6FsGridISt5arrayIdLm3EELi2EE** %..inline.addr.910, align 8, !tbaa !5914, !dbg !5826
	%1200 = bitcast %struct._Z6FsGridISt5arrayIdLm3EELi2EE*  %1199 to i8*, !dbg !5826
	%1201 = getelementptr i8, i8*  %1200, i64 268, !dbg !5826
	%1202 = bitcast i8*  %1201 to i32*, !dbg !5826
	%1203 = load i32, i32*  %1202, align 4, !tbaa !5915, !dbg !5826
	%1204 = icmp slt i32  %1198,  %1203, !dbg !5826
	br i1  %1204, label %L..inline.70736, label %L.B1254, !dbg !5826
L.B1254:
	%1205 = load i32, i32* %..inline.addr.950, align 4, !tbaa !5919, !dbg !5826
	%1206 = add i32  %1205, 3, !dbg !5826
	store i32  %1206, i32* %..inline.addr.950, align 4, !tbaa !5919, !dbg !5826
	%1207 = bitcast [3 x i32]* %..inline.addr.960 to i8*, !dbg !5827
	%1208 = getelementptr i8, i8*  %1207, i64 4, !dbg !5827
	%1209 = bitcast i8*  %1208 to i32*, !dbg !5827
	store i32 -1, i32*  %1209, align 4, !tbaa !5915, !dbg !5827
	br label %L..inline.70736
L..inline.70736:
	%1210 = load i32, i32* %..inline.addr.940, align 4, !tbaa !5919, !dbg !5828
	%1211 = icmp sge i32  %1210, 0, !dbg !5828
	br i1  %1211, label %L..inline.70738, label %L.B1255, !dbg !5828
L.B1255:
	%1212 = load i32, i32* %..inline.addr.950, align 4, !tbaa !5919, !dbg !5828
	%1213 = sub i32  %1212, 1, !dbg !5828
	store i32  %1213, i32* %..inline.addr.950, align 4, !tbaa !5919, !dbg !5828
	%1214 = bitcast [3 x i32]* %..inline.addr.960 to i8*, !dbg !5829
	%1215 = getelementptr i8, i8*  %1214, i64 8, !dbg !5829
	%1216 = bitcast i8*  %1215 to i32*, !dbg !5829
	store i32 1, i32*  %1216, align 4, !tbaa !5915, !dbg !5829
	br label %L..inline.70738
L..inline.70738:
	%1217 = load i32, i32* %..inline.addr.940, align 4, !tbaa !5919, !dbg !5830
	%1218 = load %struct._Z6FsGridISt5arrayIdLm3EELi2EE*, %struct._Z6FsGridISt5arrayIdLm3EELi2EE** %..inline.addr.910, align 8, !tbaa !5914, !dbg !5830
	%1219 = bitcast %struct._Z6FsGridISt5arrayIdLm3EELi2EE*  %1218 to i8*, !dbg !5830
	%1220 = getelementptr i8, i8*  %1219, i64 272, !dbg !5830
	%1221 = bitcast i8*  %1220 to i32*, !dbg !5830
	%1222 = load i32, i32*  %1221, align 4, !tbaa !5915, !dbg !5830
	%1223 = icmp slt i32  %1217,  %1222, !dbg !5830
	br i1  %1223, label %L..inline.70755, label %L.B1256, !dbg !5830
L.B1256:
	%1224 = load i32, i32* %..inline.addr.950, align 4, !tbaa !5919, !dbg !5830
	%1225 = add i32  %1224, 1, !dbg !5830
	store i32  %1225, i32* %..inline.addr.950, align 4, !tbaa !5919, !dbg !5830
	%1226 = bitcast [3 x i32]* %..inline.addr.960 to i8*, !dbg !5831
	%1227 = getelementptr i8, i8*  %1226, i64 8, !dbg !5831
	%1228 = bitcast i8*  %1227 to i32*, !dbg !5831
	store i32 -1, i32*  %1228, align 4, !tbaa !5915, !dbg !5831
	br label %L..inline.70755
L..inline.70755:
	%1229 = load i32, i32* %..inline.addr.950, align 4, !tbaa !5919, !dbg !5832
	%1230 = icmp eq i32  %1229, 13, !dbg !5832
	br i1  %1230, label %L..inline.70756, label %L.B1257, !dbg !5832
L.B1257:
	%1231 = sext i32  %1229 to i64, !dbg !5833
	%1232 = load %struct._Z6FsGridISt5arrayIdLm3EELi2EE*, %struct._Z6FsGridISt5arrayIdLm3EELi2EE** %..inline.addr.910, align 8, !tbaa !5914, !dbg !5833
	%1233 = bitcast %struct._Z6FsGridISt5arrayIdLm3EELi2EE*  %1232 to i8*, !dbg !5833
	%1234 = getelementptr i8, i8*  %1233, i64 92, !dbg !5833
	%1235 = bitcast i8*  %1234 to i32*, !dbg !5833
	%1236 = getelementptr i32, i32*  %1235, i64  %1231, !dbg !5833
	%1237 = load i32, i32*  %1236, align 4, !tbaa !5915, !dbg !5833
	%1238 = icmp ne i32  %1237, -2, !dbg !5833
	br i1  %1238, label %L..inline.70773, label %L.B1258, !dbg !5833
L.B1258:
	%1239 = bitcast %struct._ZSt5arrayIdLm3EE** %..inline.addr.970 to i8**, !dbg !5833
	store i8* null, i8**  %1239, align 8, !tbaa !5914, !dbg !5833
	br label %L..inline.70960, !dbg !5834
L..inline.70773:
	%1240 = load i32, i32* %..inline.addr.950, align 4, !tbaa !5919, !dbg !5835
	%1241 = sext i32  %1240 to i64, !dbg !5835
	%1242 = load %struct._Z6FsGridISt5arrayIdLm3EELi2EE*, %struct._Z6FsGridISt5arrayIdLm3EELi2EE** %..inline.addr.910, align 8, !tbaa !5914, !dbg !5835
	%1243 = bitcast %struct._Z6FsGridISt5arrayIdLm3EELi2EE*  %1242 to i8*, !dbg !5835
	%1244 = getelementptr i8, i8*  %1243, i64 92, !dbg !5835
	%1245 = bitcast i8*  %1244 to i32*, !dbg !5835
	%1246 = getelementptr i32, i32*  %1245, i64  %1241, !dbg !5835
	%1247 = load i32, i32*  %1246, align 4, !tbaa !5915, !dbg !5835
	%1248 = getelementptr i8, i8*  %1243, i64 56, !dbg !5835
	%1249 = bitcast i8*  %1248 to i32*, !dbg !5835
	%1250 = load i32, i32*  %1249, align 4, !tbaa !5915, !dbg !5835
	%1251 = icmp ne i32  %1247,  %1250, !dbg !5835
	br i1  %1251, label %L..inline.70791, label %L.B1259, !dbg !5835
L.B1259:
	%1252 = load i32, i32* %..inline.addr.920, align 4, !tbaa !5919, !dbg !5836
	%1253 = bitcast [3 x i32]* %..inline.addr.960 to i32*, !dbg !5836
	%1254 = load i32, i32*  %1253, align 4, !tbaa !5915, !dbg !5836
	%1255 = bitcast %struct._Z6FsGridISt5arrayIdLm3EELi2EE*  %1242 to i8*, !dbg !5836
	%1256 = getelementptr i8, i8*  %1255, i64 264, !dbg !5836
	%1257 = bitcast i8*  %1256 to i32*, !dbg !5836
	%1258 = load i32, i32*  %1257, align 4, !tbaa !5915, !dbg !5836
	%1259 = mul i32  %1254,  %1258, !dbg !5836
	%1260 = add i32  %1252,  %1259, !dbg !5836
	store i32  %1260, i32* %..inline.addr.920, align 4, !tbaa !5919, !dbg !5836
	%1261 = load i32, i32* %..inline.addr.930, align 4, !tbaa !5919, !dbg !5837
	%1262 = bitcast [3 x i32]* %..inline.addr.960 to i8*, !dbg !5837
	%1263 = getelementptr i8, i8*  %1262, i64 4, !dbg !5837
	%1264 = bitcast i8*  %1263 to i32*, !dbg !5837
	%1265 = load i32, i32*  %1264, align 4, !tbaa !5915, !dbg !5837
	%1266 = getelementptr i8, i8*  %1255, i64 268, !dbg !5837
	%1267 = bitcast i8*  %1266 to i32*, !dbg !5837
	%1268 = load i32, i32*  %1267, align 4, !tbaa !5915, !dbg !5837
	%1269 = mul i32  %1265,  %1268, !dbg !5837
	%1270 = add i32  %1261,  %1269, !dbg !5837
	store i32  %1270, i32* %..inline.addr.930, align 4, !tbaa !5919, !dbg !5837
	%1271 = load i32, i32* %..inline.addr.940, align 4, !tbaa !5919, !dbg !5838
	%1272 = getelementptr i8, i8*  %1262, i64 8, !dbg !5838
	%1273 = bitcast i8*  %1272 to i32*, !dbg !5838
	%1274 = load i32, i32*  %1273, align 4, !tbaa !5915, !dbg !5838
	%1275 = getelementptr i8, i8*  %1255, i64 272, !dbg !5838
	%1276 = bitcast i8*  %1275 to i32*, !dbg !5838
	%1277 = load i32, i32*  %1276, align 4, !tbaa !5915, !dbg !5838
	%1278 = mul i32  %1274,  %1277, !dbg !5838
	%1279 = add i32  %1271,  %1278, !dbg !5838
	store i32  %1279, i32* %..inline.addr.940, align 4, !tbaa !5919, !dbg !5838
	br label %L..inline.70791
L..inline.70791:
	br label %L..inline.70756
L..inline.70756:
	store i64 0, i64* %..inline.addr.980, align 8, !tbaa !5921, !dbg !5839
	%1280 = load %struct._Z6FsGridISt5arrayIdLm3EELi2EE*, %struct._Z6FsGridISt5arrayIdLm3EELi2EE** %..inline.addr.910, align 8, !tbaa !5914, !dbg !5839
	%1281 = bitcast %struct._Z6FsGridISt5arrayIdLm3EELi2EE*  %1280 to i8*, !dbg !5839
	%1282 = getelementptr i8, i8*  %1281, i64 260, !dbg !5839
	%1283 = bitcast i8*  %1282 to i32*, !dbg !5839
	%1284 = load i32, i32*  %1283, align 4, !tbaa !5915, !dbg !5839
	%1285 = icmp sle i32  %1284, 1, !dbg !5839
	br i1  %1285, label %L..inline.70865, label %L.B1260, !dbg !5839
L.B1260:
	%1286 = load i32, i32* %..inline.addr.940, align 4, !tbaa !5919, !dbg !5839
	%1287 = add i32  %1286, 2, !dbg !5839
	%1288 = bitcast %struct._Z6FsGridISt5arrayIdLm3EELi2EE*  %1280 to i8*, !dbg !5839
	%1289 = getelementptr i8, i8*  %1288, i64 280, !dbg !5839
	%1290 = bitcast i8*  %1289 to i32*, !dbg !5839
	%1291 = load i32, i32*  %1290, align 4, !tbaa !5915, !dbg !5839
	%1292 = getelementptr i8, i8*  %1288, i64 276, !dbg !5839
	%1293 = bitcast i8*  %1292 to i32*, !dbg !5839
	%1294 = load i32, i32*  %1293, align 4, !tbaa !5915, !dbg !5839
	%1295 = mul i32  %1291,  %1294, !dbg !5839
	%1296 = mul i32  %1287,  %1295, !dbg !5839
	%1297 = sext i32  %1296 to i64, !dbg !5839
	store i64  %1297, i64* %..inline.addr.980, align 8, !tbaa !5921, !dbg !5839
	br label %L..inline.70865
L..inline.70865:
	%1298 = load %struct._Z6FsGridISt5arrayIdLm3EELi2EE*, %struct._Z6FsGridISt5arrayIdLm3EELi2EE** %..inline.addr.910, align 8, !tbaa !5914, !dbg !5839
	%1299 = bitcast %struct._Z6FsGridISt5arrayIdLm3EELi2EE*  %1298 to i8*, !dbg !5839
	%1300 = getelementptr i8, i8*  %1299, i64 256, !dbg !5839
	%1301 = bitcast i8*  %1300 to i32*, !dbg !5839
	%1302 = load i32, i32*  %1301, align 4, !tbaa !5915, !dbg !5839
	%1303 = icmp sle i32  %1302, 1, !dbg !5839
	br i1  %1303, label %L..inline.70914, label %L.B1261, !dbg !5839
L.B1261:
	%1304 = load i64, i64* %..inline.addr.980, align 8, !tbaa !5921, !dbg !5839
	%1305 = bitcast %struct._Z6FsGridISt5arrayIdLm3EELi2EE*  %1298 to i8*, !dbg !5839
	%1306 = getelementptr i8, i8*  %1305, i64 276, !dbg !5839
	%1307 = bitcast i8*  %1306 to i32*, !dbg !5839
	%1308 = load i32, i32*  %1307, align 4, !tbaa !5915, !dbg !5839
	%1309 = load i32, i32* %..inline.addr.930, align 4, !tbaa !5919, !dbg !5839
	%1310 = add i32  %1309, 2, !dbg !5839
	%1311 = mul i32  %1308,  %1310, !dbg !5839
	%1312 = sext i32  %1311 to i64, !dbg !5839
	%1313 = add i64  %1304,  %1312, !dbg !5839
	store i64  %1313, i64* %..inline.addr.980, align 8, !tbaa !5921, !dbg !5839
	br label %L..inline.70914
L..inline.70914:
	%1314 = load %struct._Z6FsGridISt5arrayIdLm3EELi2EE*, %struct._Z6FsGridISt5arrayIdLm3EELi2EE** %..inline.addr.910, align 8, !tbaa !5914, !dbg !5839
	%1315 = bitcast %struct._Z6FsGridISt5arrayIdLm3EELi2EE*  %1314 to i8*, !dbg !5839
	%1316 = getelementptr i8, i8*  %1315, i64 252, !dbg !5839
	%1317 = bitcast i8*  %1316 to i32*, !dbg !5839
	%1318 = load i32, i32*  %1317, align 4, !tbaa !5915, !dbg !5839
	%1319 = icmp sle i32  %1318, 1, !dbg !5839
	%1320 = zext i1  %1319 to i32, !dbg !5839
	%1321 = trunc i32  %1320 to i1, !dbg !5839
	%1322 = load i64, i64* %..inline.addr.980, align 8, !tbaa !5921, !dbg !5839
	%1323 = load i32, i32* %..inline.addr.920, align 4, !tbaa !5919, !dbg !5839
	%1324 = sext i32  %1323 to i64, !dbg !5839
	%1325 = add i64  %1324, 2, !dbg !5839
	%1326 = add i64  %1322,  %1325, !dbg !5839
	%1327 = select i1  %1321, i64  %1322, i64  %1326, !dbg !5839
	%1328 = getelementptr i8, i8*  %1315, i64 744, !dbg !5840
	%1329 = bitcast i8*  %1328 to i8**, !dbg !5840
	%1330 = load i8*, i8**  %1329, align 8, !tbaa !5914, !dbg !5840
	%1331 = mul i64  %1327, 24, !dbg !5840
	%1332 = getelementptr i8, i8*  %1330, i64  %1331, !dbg !5840
	%1333 = bitcast %struct._ZSt5arrayIdLm3EE** %..inline.addr.970 to i8**, !dbg !5840
	store i8*  %1332, i8**  %1333, align 8, !tbaa !5914, !dbg !5840
	br label %L..inline.70960
L..inline.70960:
	%1334 = load %struct._ZSt5arrayIdLm3EE*, %struct._ZSt5arrayIdLm3EE** %..inline.addr.970, align 8, !tbaa !5914, !dbg !5841
	%1335 = bitcast %struct._ZSt5arrayIdLm3EE*  %1334 to i8*, !dbg !5841
	%1336 = bitcast %struct._ZSt5arrayIdLm3EE** %EGrid1.addr to i8**, !dbg !5841
	store i8*  %1335, i8**  %1336, align 8, !tbaa !5914, !dbg !5841
	%1337 = load %struct._Z6FsGridISt5arrayIdLm3EELi2EE*, %struct._Z6FsGridISt5arrayIdLm3EELi2EE** %EGrid.addr, align 8, !tbaa !5914, !dbg !5862
	%1338 = bitcast %struct._Z6FsGridISt5arrayIdLm3EELi2EE*  %1337 to i8*, !dbg !5862
	%1339 = bitcast %struct._Z6FsGridISt5arrayIdLm3EELi2EE** %..inline.addr.990 to i8**, !dbg !5862
	store i8*  %1338, i8**  %1339, align 8, !tbaa !5914, !dbg !5862
	%1340 = load i32, i32* %i.addr, align 4, !tbaa !5919, !dbg !5862
	store i32  %1340, i32* %..inline.addr.1000, align 4, !tbaa !5919, !dbg !5862
	%1341 = load i32, i32* %j.addr, align 4, !tbaa !5919, !dbg !5862
	store i32  %1341, i32* %..inline.addr.1010, align 4, !tbaa !5919, !dbg !5862
	%1342 = load i32, i32* %k.addr, align 4, !tbaa !5919, !dbg !5862
	%1343 = add i32  %1342, 1, !dbg !5862
	store i32  %1343, i32* %..inline.addr.1020, align 4, !tbaa !5919, !dbg !5862
	store i32 13, i32* %..inline.addr.1030, align 4, !tbaa !5919, !dbg !5862
	%1344 = bitcast [3 x i32]* %..inline.addr.1040 to i32*, !dbg !5818
	store i32 0, i32*  %1344, align 4, !tbaa !5915, !dbg !5818
	%1345 = bitcast [3 x i32]* %..inline.addr.1040 to i8*, !dbg !5819
	%1346 = getelementptr i8, i8*  %1345, i64 4, !dbg !5819
	%1347 = bitcast i8*  %1346 to i32*, !dbg !5819
	store i32 0, i32*  %1347, align 4, !tbaa !5915, !dbg !5819
	%1348 = getelementptr i8, i8*  %1345, i64 8, !dbg !5819
	%1349 = bitcast i8*  %1348 to i32*, !dbg !5819
	store i32 0, i32*  %1349, align 4, !tbaa !5915, !dbg !5819
	%1350 = icmp sge i32  %1340, 0, !dbg !5819
	br i1  %1350, label %L..inline.70966, label %L.B1262, !dbg !5819
L.B1262:
	store i32 4, i32* %..inline.addr.1030, align 4, !tbaa !5919, !dbg !5820
	%1351 = bitcast [3 x i32]* %..inline.addr.1040 to i32*, !dbg !5821
	store i32 1, i32*  %1351, align 4, !tbaa !5915, !dbg !5821
	br label %L..inline.70966
L..inline.70966:
	%1352 = load i32, i32* %..inline.addr.1000, align 4, !tbaa !5919, !dbg !5822
	%1353 = load %struct._Z6FsGridISt5arrayIdLm3EELi2EE*, %struct._Z6FsGridISt5arrayIdLm3EELi2EE** %..inline.addr.990, align 8, !tbaa !5914, !dbg !5822
	%1354 = bitcast %struct._Z6FsGridISt5arrayIdLm3EELi2EE*  %1353 to i8*, !dbg !5822
	%1355 = getelementptr i8, i8*  %1354, i64 264, !dbg !5822
	%1356 = bitcast i8*  %1355 to i32*, !dbg !5822
	%1357 = load i32, i32*  %1356, align 4, !tbaa !5915, !dbg !5822
	%1358 = icmp slt i32  %1352,  %1357, !dbg !5822
	br i1  %1358, label %L..inline.70984, label %L.B1263, !dbg !5822
L.B1263:
	%1359 = load i32, i32* %..inline.addr.1030, align 4, !tbaa !5919, !dbg !5822
	%1360 = add i32  %1359, 9, !dbg !5822
	store i32  %1360, i32* %..inline.addr.1030, align 4, !tbaa !5919, !dbg !5822
	%1361 = bitcast [3 x i32]* %..inline.addr.1040 to i32*, !dbg !5823
	store i32 -1, i32*  %1361, align 4, !tbaa !5915, !dbg !5823
	br label %L..inline.70984
L..inline.70984:
	%1362 = load i32, i32* %..inline.addr.1010, align 4, !tbaa !5919, !dbg !5824
	%1363 = icmp sge i32  %1362, 0, !dbg !5824
	br i1  %1363, label %L..inline.70986, label %L.B1264, !dbg !5824
L.B1264:
	%1364 = load i32, i32* %..inline.addr.1030, align 4, !tbaa !5919, !dbg !5824
	%1365 = sub i32  %1364, 3, !dbg !5824
	store i32  %1365, i32* %..inline.addr.1030, align 4, !tbaa !5919, !dbg !5824
	%1366 = bitcast [3 x i32]* %..inline.addr.1040 to i8*, !dbg !5825
	%1367 = getelementptr i8, i8*  %1366, i64 4, !dbg !5825
	%1368 = bitcast i8*  %1367 to i32*, !dbg !5825
	store i32 1, i32*  %1368, align 4, !tbaa !5915, !dbg !5825
	br label %L..inline.70986
L..inline.70986:
	%1369 = load i32, i32* %..inline.addr.1010, align 4, !tbaa !5919, !dbg !5826
	%1370 = load %struct._Z6FsGridISt5arrayIdLm3EELi2EE*, %struct._Z6FsGridISt5arrayIdLm3EELi2EE** %..inline.addr.990, align 8, !tbaa !5914, !dbg !5826
	%1371 = bitcast %struct._Z6FsGridISt5arrayIdLm3EELi2EE*  %1370 to i8*, !dbg !5826
	%1372 = getelementptr i8, i8*  %1371, i64 268, !dbg !5826
	%1373 = bitcast i8*  %1372 to i32*, !dbg !5826
	%1374 = load i32, i32*  %1373, align 4, !tbaa !5915, !dbg !5826
	%1375 = icmp slt i32  %1369,  %1374, !dbg !5826
	br i1  %1375, label %L..inline.71003, label %L.B1265, !dbg !5826
L.B1265:
	%1376 = load i32, i32* %..inline.addr.1030, align 4, !tbaa !5919, !dbg !5826
	%1377 = add i32  %1376, 3, !dbg !5826
	store i32  %1377, i32* %..inline.addr.1030, align 4, !tbaa !5919, !dbg !5826
	%1378 = bitcast [3 x i32]* %..inline.addr.1040 to i8*, !dbg !5827
	%1379 = getelementptr i8, i8*  %1378, i64 4, !dbg !5827
	%1380 = bitcast i8*  %1379 to i32*, !dbg !5827
	store i32 -1, i32*  %1380, align 4, !tbaa !5915, !dbg !5827
	br label %L..inline.71003
L..inline.71003:
	%1381 = load i32, i32* %..inline.addr.1020, align 4, !tbaa !5919, !dbg !5828
	%1382 = icmp sge i32  %1381, 0, !dbg !5828
	br i1  %1382, label %L..inline.71005, label %L.B1266, !dbg !5828
L.B1266:
	%1383 = load i32, i32* %..inline.addr.1030, align 4, !tbaa !5919, !dbg !5828
	%1384 = sub i32  %1383, 1, !dbg !5828
	store i32  %1384, i32* %..inline.addr.1030, align 4, !tbaa !5919, !dbg !5828
	%1385 = bitcast [3 x i32]* %..inline.addr.1040 to i8*, !dbg !5829
	%1386 = getelementptr i8, i8*  %1385, i64 8, !dbg !5829
	%1387 = bitcast i8*  %1386 to i32*, !dbg !5829
	store i32 1, i32*  %1387, align 4, !tbaa !5915, !dbg !5829
	br label %L..inline.71005
L..inline.71005:
	%1388 = load i32, i32* %..inline.addr.1020, align 4, !tbaa !5919, !dbg !5830
	%1389 = load %struct._Z6FsGridISt5arrayIdLm3EELi2EE*, %struct._Z6FsGridISt5arrayIdLm3EELi2EE** %..inline.addr.990, align 8, !tbaa !5914, !dbg !5830
	%1390 = bitcast %struct._Z6FsGridISt5arrayIdLm3EELi2EE*  %1389 to i8*, !dbg !5830
	%1391 = getelementptr i8, i8*  %1390, i64 272, !dbg !5830
	%1392 = bitcast i8*  %1391 to i32*, !dbg !5830
	%1393 = load i32, i32*  %1392, align 4, !tbaa !5915, !dbg !5830
	%1394 = icmp slt i32  %1388,  %1393, !dbg !5830
	br i1  %1394, label %L..inline.71022, label %L.B1267, !dbg !5830
L.B1267:
	%1395 = load i32, i32* %..inline.addr.1030, align 4, !tbaa !5919, !dbg !5830
	%1396 = add i32  %1395, 1, !dbg !5830
	store i32  %1396, i32* %..inline.addr.1030, align 4, !tbaa !5919, !dbg !5830
	%1397 = bitcast [3 x i32]* %..inline.addr.1040 to i8*, !dbg !5831
	%1398 = getelementptr i8, i8*  %1397, i64 8, !dbg !5831
	%1399 = bitcast i8*  %1398 to i32*, !dbg !5831
	store i32 -1, i32*  %1399, align 4, !tbaa !5915, !dbg !5831
	br label %L..inline.71022
L..inline.71022:
	%1400 = load i32, i32* %..inline.addr.1030, align 4, !tbaa !5919, !dbg !5832
	%1401 = icmp eq i32  %1400, 13, !dbg !5832
	br i1  %1401, label %L..inline.71023, label %L.B1268, !dbg !5832
L.B1268:
	%1402 = sext i32  %1400 to i64, !dbg !5833
	%1403 = load %struct._Z6FsGridISt5arrayIdLm3EELi2EE*, %struct._Z6FsGridISt5arrayIdLm3EELi2EE** %..inline.addr.990, align 8, !tbaa !5914, !dbg !5833
	%1404 = bitcast %struct._Z6FsGridISt5arrayIdLm3EELi2EE*  %1403 to i8*, !dbg !5833
	%1405 = getelementptr i8, i8*  %1404, i64 92, !dbg !5833
	%1406 = bitcast i8*  %1405 to i32*, !dbg !5833
	%1407 = getelementptr i32, i32*  %1406, i64  %1402, !dbg !5833
	%1408 = load i32, i32*  %1407, align 4, !tbaa !5915, !dbg !5833
	%1409 = icmp ne i32  %1408, -2, !dbg !5833
	br i1  %1409, label %L..inline.71040, label %L.B1269, !dbg !5833
L.B1269:
	%1410 = bitcast %struct._ZSt5arrayIdLm3EE** %..inline.addr.1050 to i8**, !dbg !5833
	store i8* null, i8**  %1410, align 8, !tbaa !5914, !dbg !5833
	br label %L..inline.71227, !dbg !5834
L..inline.71040:
	%1411 = load i32, i32* %..inline.addr.1030, align 4, !tbaa !5919, !dbg !5835
	%1412 = sext i32  %1411 to i64, !dbg !5835
	%1413 = load %struct._Z6FsGridISt5arrayIdLm3EELi2EE*, %struct._Z6FsGridISt5arrayIdLm3EELi2EE** %..inline.addr.990, align 8, !tbaa !5914, !dbg !5835
	%1414 = bitcast %struct._Z6FsGridISt5arrayIdLm3EELi2EE*  %1413 to i8*, !dbg !5835
	%1415 = getelementptr i8, i8*  %1414, i64 92, !dbg !5835
	%1416 = bitcast i8*  %1415 to i32*, !dbg !5835
	%1417 = getelementptr i32, i32*  %1416, i64  %1412, !dbg !5835
	%1418 = load i32, i32*  %1417, align 4, !tbaa !5915, !dbg !5835
	%1419 = getelementptr i8, i8*  %1414, i64 56, !dbg !5835
	%1420 = bitcast i8*  %1419 to i32*, !dbg !5835
	%1421 = load i32, i32*  %1420, align 4, !tbaa !5915, !dbg !5835
	%1422 = icmp ne i32  %1418,  %1421, !dbg !5835
	br i1  %1422, label %L..inline.71058, label %L.B1270, !dbg !5835
L.B1270:
	%1423 = load i32, i32* %..inline.addr.1000, align 4, !tbaa !5919, !dbg !5836
	%1424 = bitcast [3 x i32]* %..inline.addr.1040 to i32*, !dbg !5836
	%1425 = load i32, i32*  %1424, align 4, !tbaa !5915, !dbg !5836
	%1426 = bitcast %struct._Z6FsGridISt5arrayIdLm3EELi2EE*  %1413 to i8*, !dbg !5836
	%1427 = getelementptr i8, i8*  %1426, i64 264, !dbg !5836
	%1428 = bitcast i8*  %1427 to i32*, !dbg !5836
	%1429 = load i32, i32*  %1428, align 4, !tbaa !5915, !dbg !5836
	%1430 = mul i32  %1425,  %1429, !dbg !5836
	%1431 = add i32  %1423,  %1430, !dbg !5836
	store i32  %1431, i32* %..inline.addr.1000, align 4, !tbaa !5919, !dbg !5836
	%1432 = load i32, i32* %..inline.addr.1010, align 4, !tbaa !5919, !dbg !5837
	%1433 = bitcast [3 x i32]* %..inline.addr.1040 to i8*, !dbg !5837
	%1434 = getelementptr i8, i8*  %1433, i64 4, !dbg !5837
	%1435 = bitcast i8*  %1434 to i32*, !dbg !5837
	%1436 = load i32, i32*  %1435, align 4, !tbaa !5915, !dbg !5837
	%1437 = getelementptr i8, i8*  %1426, i64 268, !dbg !5837
	%1438 = bitcast i8*  %1437 to i32*, !dbg !5837
	%1439 = load i32, i32*  %1438, align 4, !tbaa !5915, !dbg !5837
	%1440 = mul i32  %1436,  %1439, !dbg !5837
	%1441 = add i32  %1432,  %1440, !dbg !5837
	store i32  %1441, i32* %..inline.addr.1010, align 4, !tbaa !5919, !dbg !5837
	%1442 = load i32, i32* %..inline.addr.1020, align 4, !tbaa !5919, !dbg !5838
	%1443 = getelementptr i8, i8*  %1433, i64 8, !dbg !5838
	%1444 = bitcast i8*  %1443 to i32*, !dbg !5838
	%1445 = load i32, i32*  %1444, align 4, !tbaa !5915, !dbg !5838
	%1446 = getelementptr i8, i8*  %1426, i64 272, !dbg !5838
	%1447 = bitcast i8*  %1446 to i32*, !dbg !5838
	%1448 = load i32, i32*  %1447, align 4, !tbaa !5915, !dbg !5838
	%1449 = mul i32  %1445,  %1448, !dbg !5838
	%1450 = add i32  %1442,  %1449, !dbg !5838
	store i32  %1450, i32* %..inline.addr.1020, align 4, !tbaa !5919, !dbg !5838
	br label %L..inline.71058
L..inline.71058:
	br label %L..inline.71023
L..inline.71023:
	store i64 0, i64* %..inline.addr.1060, align 8, !tbaa !5921, !dbg !5839
	%1451 = load %struct._Z6FsGridISt5arrayIdLm3EELi2EE*, %struct._Z6FsGridISt5arrayIdLm3EELi2EE** %..inline.addr.990, align 8, !tbaa !5914, !dbg !5839
	%1452 = bitcast %struct._Z6FsGridISt5arrayIdLm3EELi2EE*  %1451 to i8*, !dbg !5839
	%1453 = getelementptr i8, i8*  %1452, i64 260, !dbg !5839
	%1454 = bitcast i8*  %1453 to i32*, !dbg !5839
	%1455 = load i32, i32*  %1454, align 4, !tbaa !5915, !dbg !5839
	%1456 = icmp sle i32  %1455, 1, !dbg !5839
	br i1  %1456, label %L..inline.71132, label %L.B1271, !dbg !5839
L.B1271:
	%1457 = load i32, i32* %..inline.addr.1020, align 4, !tbaa !5919, !dbg !5839
	%1458 = add i32  %1457, 2, !dbg !5839
	%1459 = bitcast %struct._Z6FsGridISt5arrayIdLm3EELi2EE*  %1451 to i8*, !dbg !5839
	%1460 = getelementptr i8, i8*  %1459, i64 280, !dbg !5839
	%1461 = bitcast i8*  %1460 to i32*, !dbg !5839
	%1462 = load i32, i32*  %1461, align 4, !tbaa !5915, !dbg !5839
	%1463 = getelementptr i8, i8*  %1459, i64 276, !dbg !5839
	%1464 = bitcast i8*  %1463 to i32*, !dbg !5839
	%1465 = load i32, i32*  %1464, align 4, !tbaa !5915, !dbg !5839
	%1466 = mul i32  %1462,  %1465, !dbg !5839
	%1467 = mul i32  %1458,  %1466, !dbg !5839
	%1468 = sext i32  %1467 to i64, !dbg !5839
	store i64  %1468, i64* %..inline.addr.1060, align 8, !tbaa !5921, !dbg !5839
	br label %L..inline.71132
L..inline.71132:
	%1469 = load %struct._Z6FsGridISt5arrayIdLm3EELi2EE*, %struct._Z6FsGridISt5arrayIdLm3EELi2EE** %..inline.addr.990, align 8, !tbaa !5914, !dbg !5839
	%1470 = bitcast %struct._Z6FsGridISt5arrayIdLm3EELi2EE*  %1469 to i8*, !dbg !5839
	%1471 = getelementptr i8, i8*  %1470, i64 256, !dbg !5839
	%1472 = bitcast i8*  %1471 to i32*, !dbg !5839
	%1473 = load i32, i32*  %1472, align 4, !tbaa !5915, !dbg !5839
	%1474 = icmp sle i32  %1473, 1, !dbg !5839
	br i1  %1474, label %L..inline.71181, label %L.B1272, !dbg !5839
L.B1272:
	%1475 = load i64, i64* %..inline.addr.1060, align 8, !tbaa !5921, !dbg !5839
	%1476 = bitcast %struct._Z6FsGridISt5arrayIdLm3EELi2EE*  %1469 to i8*, !dbg !5839
	%1477 = getelementptr i8, i8*  %1476, i64 276, !dbg !5839
	%1478 = bitcast i8*  %1477 to i32*, !dbg !5839
	%1479 = load i32, i32*  %1478, align 4, !tbaa !5915, !dbg !5839
	%1480 = load i32, i32* %..inline.addr.1010, align 4, !tbaa !5919, !dbg !5839
	%1481 = add i32  %1480, 2, !dbg !5839
	%1482 = mul i32  %1479,  %1481, !dbg !5839
	%1483 = sext i32  %1482 to i64, !dbg !5839
	%1484 = add i64  %1475,  %1483, !dbg !5839
	store i64  %1484, i64* %..inline.addr.1060, align 8, !tbaa !5921, !dbg !5839
	br label %L..inline.71181
L..inline.71181:
	%1485 = load %struct._Z6FsGridISt5arrayIdLm3EELi2EE*, %struct._Z6FsGridISt5arrayIdLm3EELi2EE** %..inline.addr.990, align 8, !tbaa !5914, !dbg !5839
	%1486 = bitcast %struct._Z6FsGridISt5arrayIdLm3EELi2EE*  %1485 to i8*, !dbg !5839
	%1487 = getelementptr i8, i8*  %1486, i64 252, !dbg !5839
	%1488 = bitcast i8*  %1487 to i32*, !dbg !5839
	%1489 = load i32, i32*  %1488, align 4, !tbaa !5915, !dbg !5839
	%1490 = icmp sle i32  %1489, 1, !dbg !5839
	%1491 = zext i1  %1490 to i32, !dbg !5839
	%1492 = trunc i32  %1491 to i1, !dbg !5839
	%1493 = load i64, i64* %..inline.addr.1060, align 8, !tbaa !5921, !dbg !5839
	%1494 = load i32, i32* %..inline.addr.1000, align 4, !tbaa !5919, !dbg !5839
	%1495 = sext i32  %1494 to i64, !dbg !5839
	%1496 = add i64  %1495, 2, !dbg !5839
	%1497 = add i64  %1493,  %1496, !dbg !5839
	%1498 = select i1  %1492, i64  %1493, i64  %1497, !dbg !5839
	%1499 = getelementptr i8, i8*  %1486, i64 744, !dbg !5840
	%1500 = bitcast i8*  %1499 to i8**, !dbg !5840
	%1501 = load i8*, i8**  %1500, align 8, !tbaa !5914, !dbg !5840
	%1502 = mul i64  %1498, 24, !dbg !5840
	%1503 = getelementptr i8, i8*  %1501, i64  %1502, !dbg !5840
	%1504 = bitcast %struct._ZSt5arrayIdLm3EE** %..inline.addr.1050 to i8**, !dbg !5840
	store i8*  %1503, i8**  %1504, align 8, !tbaa !5914, !dbg !5840
	br label %L..inline.71227
L..inline.71227:
	%1505 = load double*, double** %dt.addr, align 8, !tbaa !5914, !dbg !5856
	%1506 = load double, double*  %1505, align 8, !tbaa !5915, !dbg !5856
	%1507 = fmul double  %1506,  5.00000000000000000E-1, !dbg !5856
	%1508 = load double, double* %dy.addr, align 8, !tbaa !5917, !dbg !5856
	%1509 = fdiv double  1.00000000000000000E+0,  %1508, !dbg !5856
	%1510 = load %struct._ZSt5arrayIdLm3EE*, %struct._ZSt5arrayIdLm3EE** %EGrid0.addr, align 8, !tbaa !5914, !dbg !5856
	%1511 = bitcast %struct._ZSt5arrayIdLm3EE*  %1510 to i8*, !dbg !5856
	%1512 = getelementptr i8, i8*  %1511, i64 16, !dbg !5856
	%1513 = bitcast i8*  %1512 to double*, !dbg !5856
	%1514 = load double, double*  %1513, align 8, !tbaa !5915, !dbg !5856
	%1515 = load %struct._ZSt5arrayIdLm3EE*, %struct._ZSt5arrayIdLm3EE** %EGrid1.addr, align 8, !tbaa !5914, !dbg !5856
	%1516 = bitcast %struct._ZSt5arrayIdLm3EE*  %1515 to i8*, !dbg !5856
	%1517 = getelementptr i8, i8*  %1516, i64 16, !dbg !5856
	%1518 = bitcast i8*  %1517 to double*, !dbg !5856
	%1519 = load double, double*  %1518, align 8, !tbaa !5915, !dbg !5856
	%1520 = fsub double  %1514,  %1519, !dbg !5856
	%1521 = load double, double* %dz.addr, align 8, !tbaa !5917, !dbg !5856
	%1522 = fdiv double  1.00000000000000000E+0,  %1521, !dbg !5856
	%1523 = load %struct._ZSt5arrayIdLm3EE*, %struct._ZSt5arrayIdLm3EE** %..inline.addr.1050, align 8, !tbaa !5914, !dbg !5856
	%1524 = bitcast %struct._ZSt5arrayIdLm3EE*  %1523 to i8*, !dbg !5856
	%1525 = getelementptr i8, i8*  %1524, i64 8, !dbg !5856
	%1526 = bitcast i8*  %1525 to double*, !dbg !5856
	%1527 = load double, double*  %1526, align 8, !tbaa !5915, !dbg !5856
	%1528 = getelementptr i8, i8*  %1511, i64 8, !dbg !5856
	%1529 = bitcast i8*  %1528 to double*, !dbg !5856
	%1530 = load double, double*  %1529, align 8, !tbaa !5915, !dbg !5856
	%1531 = fsub double  %1527,  %1530, !dbg !5856
	%1532 = fmul double  %1522,  %1531, !dbg !5856
	%1533 = call double @llvm.fma.f64 (double  %1509, double  %1520, double  %1532), !dbg !5856
	%1534 = load %struct._ZSt5arrayIdLm3EE*, %struct._ZSt5arrayIdLm3EE** %perBGrid0.addr, align 8, !tbaa !5914, !dbg !5856
	%1535 = bitcast %struct._ZSt5arrayIdLm3EE*  %1534 to double*, !dbg !5856
	%1536 = load double, double*  %1535, align 8, !tbaa !5915, !dbg !5856
	%1537 = call double @llvm.fma.f64 (double  %1507, double  %1533, double  %1536), !dbg !5856
	%1538 = load %struct._ZSt5arrayIdLm3EE*, %struct._ZSt5arrayIdLm3EE** %perBDt2Grid0.addr, align 8, !tbaa !5914, !dbg !5856
	%1539 = bitcast %struct._ZSt5arrayIdLm3EE*  %1538 to double*, !dbg !5856
	store double  %1537, double*  %1539, align 8, !tbaa !5915, !dbg !5856
	br label %L_T22020808_50509, !dbg !5863
L..inline.71403:
	%1540 = load i32, i32* %..inline.addr.410, align 4, !tbaa !5919, !dbg !5835
	%1541 = sext i32  %1540 to i64, !dbg !5835
	%1542 = load %struct._Z6FsGridISt5arrayIdLm3EELi2EE*, %struct._Z6FsGridISt5arrayIdLm3EELi2EE** %..inline.addr.8, align 8, !tbaa !5914, !dbg !5835
	%1543 = bitcast %struct._Z6FsGridISt5arrayIdLm3EELi2EE*  %1542 to i8*, !dbg !5835
	%1544 = getelementptr i8, i8*  %1543, i64 92, !dbg !5835
	%1545 = bitcast i8*  %1544 to i32*, !dbg !5835
	%1546 = getelementptr i32, i32*  %1545, i64  %1541, !dbg !5835
	%1547 = load i32, i32*  %1546, align 4, !tbaa !5915, !dbg !5835
	%1548 = getelementptr i8, i8*  %1543, i64 56, !dbg !5835
	%1549 = bitcast i8*  %1548 to i32*, !dbg !5835
	%1550 = load i32, i32*  %1549, align 4, !tbaa !5915, !dbg !5835
	%1551 = icmp ne i32  %1547,  %1550, !dbg !5835
	br i1  %1551, label %L..inline.71421, label %L.B1273, !dbg !5835
L.B1273:
	%1552 = load i32, i32* %..inline.addr.9, align 4, !tbaa !5919, !dbg !5836
	%1553 = bitcast [3 x i32]* %..inline.addr.420 to i32*, !dbg !5836
	%1554 = load i32, i32*  %1553, align 4, !tbaa !5915, !dbg !5836
	%1555 = bitcast %struct._Z6FsGridISt5arrayIdLm3EELi2EE*  %1542 to i8*, !dbg !5836
	%1556 = getelementptr i8, i8*  %1555, i64 264, !dbg !5836
	%1557 = bitcast i8*  %1556 to i32*, !dbg !5836
	%1558 = load i32, i32*  %1557, align 4, !tbaa !5915, !dbg !5836
	%1559 = mul i32  %1554,  %1558, !dbg !5836
	%1560 = add i32  %1552,  %1559, !dbg !5836
	store i32  %1560, i32* %..inline.addr.9, align 4, !tbaa !5919, !dbg !5836
	%1561 = load i32, i32* %..inline.addr.390, align 4, !tbaa !5919, !dbg !5837
	%1562 = bitcast [3 x i32]* %..inline.addr.420 to i8*, !dbg !5837
	%1563 = getelementptr i8, i8*  %1562, i64 4, !dbg !5837
	%1564 = bitcast i8*  %1563 to i32*, !dbg !5837
	%1565 = load i32, i32*  %1564, align 4, !tbaa !5915, !dbg !5837
	%1566 = getelementptr i8, i8*  %1555, i64 268, !dbg !5837
	%1567 = bitcast i8*  %1566 to i32*, !dbg !5837
	%1568 = load i32, i32*  %1567, align 4, !tbaa !5915, !dbg !5837
	%1569 = mul i32  %1565,  %1568, !dbg !5837
	%1570 = add i32  %1561,  %1569, !dbg !5837
	store i32  %1570, i32* %..inline.addr.390, align 4, !tbaa !5919, !dbg !5837
	%1571 = load i32, i32* %..inline.addr.400, align 4, !tbaa !5919, !dbg !5838
	%1572 = getelementptr i8, i8*  %1562, i64 8, !dbg !5838
	%1573 = bitcast i8*  %1572 to i32*, !dbg !5838
	%1574 = load i32, i32*  %1573, align 4, !tbaa !5915, !dbg !5838
	%1575 = getelementptr i8, i8*  %1555, i64 272, !dbg !5838
	%1576 = bitcast i8*  %1575 to i32*, !dbg !5838
	%1577 = load i32, i32*  %1576, align 4, !tbaa !5915, !dbg !5838
	%1578 = mul i32  %1574,  %1577, !dbg !5838
	%1579 = add i32  %1571,  %1578, !dbg !5838
	store i32  %1579, i32* %..inline.addr.400, align 4, !tbaa !5919, !dbg !5838
	br label %L..inline.71421
L..inline.71421:
	br label %L..inline.71386
L..inline.71386:
	store i64 0, i64* %..inline.addr.1070, align 8, !tbaa !5921, !dbg !5839
	%1580 = load %struct._Z6FsGridISt5arrayIdLm3EELi2EE*, %struct._Z6FsGridISt5arrayIdLm3EELi2EE** %..inline.addr.8, align 8, !tbaa !5914, !dbg !5839
	%1581 = bitcast %struct._Z6FsGridISt5arrayIdLm3EELi2EE*  %1580 to i8*, !dbg !5839
	%1582 = getelementptr i8, i8*  %1581, i64 260, !dbg !5839
	%1583 = bitcast i8*  %1582 to i32*, !dbg !5839
	%1584 = load i32, i32*  %1583, align 4, !tbaa !5915, !dbg !5839
	%1585 = icmp sle i32  %1584, 1, !dbg !5839
	br i1  %1585, label %L..inline.71495, label %L.B1274, !dbg !5839
L.B1274:
	%1586 = load i32, i32* %..inline.addr.400, align 4, !tbaa !5919, !dbg !5839
	%1587 = add i32  %1586, 2, !dbg !5839
	%1588 = bitcast %struct._Z6FsGridISt5arrayIdLm3EELi2EE*  %1580 to i8*, !dbg !5839
	%1589 = getelementptr i8, i8*  %1588, i64 280, !dbg !5839
	%1590 = bitcast i8*  %1589 to i32*, !dbg !5839
	%1591 = load i32, i32*  %1590, align 4, !tbaa !5915, !dbg !5839
	%1592 = getelementptr i8, i8*  %1588, i64 276, !dbg !5839
	%1593 = bitcast i8*  %1592 to i32*, !dbg !5839
	%1594 = load i32, i32*  %1593, align 4, !tbaa !5915, !dbg !5839
	%1595 = mul i32  %1591,  %1594, !dbg !5839
	%1596 = mul i32  %1587,  %1595, !dbg !5839
	%1597 = sext i32  %1596 to i64, !dbg !5839
	store i64  %1597, i64* %..inline.addr.1070, align 8, !tbaa !5921, !dbg !5839
	br label %L..inline.71495
L..inline.71495:
	%1598 = load %struct._Z6FsGridISt5arrayIdLm3EELi2EE*, %struct._Z6FsGridISt5arrayIdLm3EELi2EE** %..inline.addr.8, align 8, !tbaa !5914, !dbg !5839
	%1599 = bitcast %struct._Z6FsGridISt5arrayIdLm3EELi2EE*  %1598 to i8*, !dbg !5839
	%1600 = getelementptr i8, i8*  %1599, i64 256, !dbg !5839
	%1601 = bitcast i8*  %1600 to i32*, !dbg !5839
	%1602 = load i32, i32*  %1601, align 4, !tbaa !5915, !dbg !5839
	%1603 = icmp sle i32  %1602, 1, !dbg !5839
	br i1  %1603, label %L..inline.71544, label %L.B1275, !dbg !5839
L.B1275:
	%1604 = load i64, i64* %..inline.addr.1070, align 8, !tbaa !5921, !dbg !5839
	%1605 = bitcast %struct._Z6FsGridISt5arrayIdLm3EELi2EE*  %1598 to i8*, !dbg !5839
	%1606 = getelementptr i8, i8*  %1605, i64 276, !dbg !5839
	%1607 = bitcast i8*  %1606 to i32*, !dbg !5839
	%1608 = load i32, i32*  %1607, align 4, !tbaa !5915, !dbg !5839
	%1609 = load i32, i32* %..inline.addr.390, align 4, !tbaa !5919, !dbg !5839
	%1610 = add i32  %1609, 2, !dbg !5839
	%1611 = mul i32  %1608,  %1610, !dbg !5839
	%1612 = sext i32  %1611 to i64, !dbg !5839
	%1613 = add i64  %1604,  %1612, !dbg !5839
	store i64  %1613, i64* %..inline.addr.1070, align 8, !tbaa !5921, !dbg !5839
	br label %L..inline.71544
L..inline.71544:
	%1614 = load %struct._Z6FsGridISt5arrayIdLm3EELi2EE*, %struct._Z6FsGridISt5arrayIdLm3EELi2EE** %..inline.addr.8, align 8, !tbaa !5914, !dbg !5839
	%1615 = bitcast %struct._Z6FsGridISt5arrayIdLm3EELi2EE*  %1614 to i8*, !dbg !5839
	%1616 = getelementptr i8, i8*  %1615, i64 252, !dbg !5839
	%1617 = bitcast i8*  %1616 to i32*, !dbg !5839
	%1618 = load i32, i32*  %1617, align 4, !tbaa !5915, !dbg !5839
	%1619 = icmp sle i32  %1618, 1, !dbg !5839
	%1620 = zext i1  %1619 to i32, !dbg !5839
	%1621 = trunc i32  %1620 to i1, !dbg !5839
	%1622 = load i64, i64* %..inline.addr.1070, align 8, !tbaa !5921, !dbg !5839
	%1623 = load i32, i32* %..inline.addr.9, align 4, !tbaa !5919, !dbg !5839
	%1624 = sext i32  %1623 to i64, !dbg !5839
	%1625 = add i64  %1624, 2, !dbg !5839
	%1626 = add i64  %1622,  %1625, !dbg !5839
	%1627 = select i1  %1621, i64  %1622, i64  %1626, !dbg !5839
	%1628 = getelementptr i8, i8*  %1615, i64 744, !dbg !5840
	%1629 = bitcast i8*  %1628 to i8**, !dbg !5840
	%1630 = load i8*, i8**  %1629, align 8, !tbaa !5914, !dbg !5840
	%1631 = mul i64  %1627, 24, !dbg !5840
	%1632 = getelementptr i8, i8*  %1630, i64  %1631, !dbg !5840
	%1633 = bitcast %struct._ZSt5arrayIdLm3EE** %..inline.addr.430 to i8**, !dbg !5840
	store i8*  %1632, i8**  %1633, align 8, !tbaa !5914, !dbg !5840
	br label %L..inline.71590
L..inline.71590:
	%1634 = load %struct._ZSt5arrayIdLm3EE*, %struct._ZSt5arrayIdLm3EE** %..inline.addr.430, align 8, !tbaa !5914, !dbg !5841
	%1635 = bitcast %struct._ZSt5arrayIdLm3EE*  %1634 to i8*, !dbg !5841
	%1636 = bitcast %struct._ZSt5arrayIdLm3EE** %EGrid0.addr to i8**, !dbg !5841
	store i8*  %1635, i8**  %1636, align 8, !tbaa !5914, !dbg !5841
	%1637 = load %struct._Z6FsGridISt5arrayIdLm3EELi2EE*, %struct._Z6FsGridISt5arrayIdLm3EELi2EE** %EDt2Grid.addr, align 8, !tbaa !5914, !dbg !5864
	%1638 = bitcast %struct._Z6FsGridISt5arrayIdLm3EELi2EE*  %1637 to i8*, !dbg !5864
	%1639 = bitcast %struct._Z6FsGridISt5arrayIdLm3EELi2EE** %..inline.addr.1080 to i8**, !dbg !5864
	store i8*  %1638, i8**  %1639, align 8, !tbaa !5914, !dbg !5864
	%1640 = load i32, i32* %i.addr, align 4, !tbaa !5919, !dbg !5864
	store i32  %1640, i32* %..inline.addr.1090, align 4, !tbaa !5919, !dbg !5864
	%1641 = load i32, i32* %j.addr, align 4, !tbaa !5919, !dbg !5864
	%1642 = add i32  %1641, 1, !dbg !5864
	store i32  %1642, i32* %..inline.addr.1100, align 4, !tbaa !5919, !dbg !5864
	%1643 = load i32, i32* %k.addr, align 4, !tbaa !5919, !dbg !5864
	store i32  %1643, i32* %..inline.addr.1110, align 4, !tbaa !5919, !dbg !5864
	store i32 13, i32* %..inline.addr.1120, align 4, !tbaa !5919, !dbg !5864
	%1644 = bitcast [3 x i32]* %..inline.addr.1130 to i32*, !dbg !5818
	store i32 0, i32*  %1644, align 4, !tbaa !5915, !dbg !5818
	%1645 = bitcast [3 x i32]* %..inline.addr.1130 to i8*, !dbg !5819
	%1646 = getelementptr i8, i8*  %1645, i64 4, !dbg !5819
	%1647 = bitcast i8*  %1646 to i32*, !dbg !5819
	store i32 0, i32*  %1647, align 4, !tbaa !5915, !dbg !5819
	%1648 = getelementptr i8, i8*  %1645, i64 8, !dbg !5819
	%1649 = bitcast i8*  %1648 to i32*, !dbg !5819
	store i32 0, i32*  %1649, align 4, !tbaa !5915, !dbg !5819
	%1650 = icmp sge i32  %1640, 0, !dbg !5819
	br i1  %1650, label %L..inline.71596, label %L.B1276, !dbg !5819
L.B1276:
	store i32 4, i32* %..inline.addr.1120, align 4, !tbaa !5919, !dbg !5820
	%1651 = bitcast [3 x i32]* %..inline.addr.1130 to i32*, !dbg !5821
	store i32 1, i32*  %1651, align 4, !tbaa !5915, !dbg !5821
	br label %L..inline.71596
L..inline.71596:
	%1652 = load i32, i32* %..inline.addr.1090, align 4, !tbaa !5919, !dbg !5822
	%1653 = load %struct._Z6FsGridISt5arrayIdLm3EELi2EE*, %struct._Z6FsGridISt5arrayIdLm3EELi2EE** %..inline.addr.1080, align 8, !tbaa !5914, !dbg !5822
	%1654 = bitcast %struct._Z6FsGridISt5arrayIdLm3EELi2EE*  %1653 to i8*, !dbg !5822
	%1655 = getelementptr i8, i8*  %1654, i64 264, !dbg !5822
	%1656 = bitcast i8*  %1655 to i32*, !dbg !5822
	%1657 = load i32, i32*  %1656, align 4, !tbaa !5915, !dbg !5822
	%1658 = icmp slt i32  %1652,  %1657, !dbg !5822
	br i1  %1658, label %L..inline.71614, label %L.B1277, !dbg !5822
L.B1277:
	%1659 = load i32, i32* %..inline.addr.1120, align 4, !tbaa !5919, !dbg !5822
	%1660 = add i32  %1659, 9, !dbg !5822
	store i32  %1660, i32* %..inline.addr.1120, align 4, !tbaa !5919, !dbg !5822
	%1661 = bitcast [3 x i32]* %..inline.addr.1130 to i32*, !dbg !5823
	store i32 -1, i32*  %1661, align 4, !tbaa !5915, !dbg !5823
	br label %L..inline.71614
L..inline.71614:
	%1662 = load i32, i32* %..inline.addr.1100, align 4, !tbaa !5919, !dbg !5824
	%1663 = icmp sge i32  %1662, 0, !dbg !5824
	br i1  %1663, label %L..inline.71616, label %L.B1278, !dbg !5824
L.B1278:
	%1664 = load i32, i32* %..inline.addr.1120, align 4, !tbaa !5919, !dbg !5824
	%1665 = sub i32  %1664, 3, !dbg !5824
	store i32  %1665, i32* %..inline.addr.1120, align 4, !tbaa !5919, !dbg !5824
	%1666 = bitcast [3 x i32]* %..inline.addr.1130 to i8*, !dbg !5825
	%1667 = getelementptr i8, i8*  %1666, i64 4, !dbg !5825
	%1668 = bitcast i8*  %1667 to i32*, !dbg !5825
	store i32 1, i32*  %1668, align 4, !tbaa !5915, !dbg !5825
	br label %L..inline.71616
L..inline.71616:
	%1669 = load i32, i32* %..inline.addr.1100, align 4, !tbaa !5919, !dbg !5826
	%1670 = load %struct._Z6FsGridISt5arrayIdLm3EELi2EE*, %struct._Z6FsGridISt5arrayIdLm3EELi2EE** %..inline.addr.1080, align 8, !tbaa !5914, !dbg !5826
	%1671 = bitcast %struct._Z6FsGridISt5arrayIdLm3EELi2EE*  %1670 to i8*, !dbg !5826
	%1672 = getelementptr i8, i8*  %1671, i64 268, !dbg !5826
	%1673 = bitcast i8*  %1672 to i32*, !dbg !5826
	%1674 = load i32, i32*  %1673, align 4, !tbaa !5915, !dbg !5826
	%1675 = icmp slt i32  %1669,  %1674, !dbg !5826
	br i1  %1675, label %L..inline.71633, label %L.B1279, !dbg !5826
L.B1279:
	%1676 = load i32, i32* %..inline.addr.1120, align 4, !tbaa !5919, !dbg !5826
	%1677 = add i32  %1676, 3, !dbg !5826
	store i32  %1677, i32* %..inline.addr.1120, align 4, !tbaa !5919, !dbg !5826
	%1678 = bitcast [3 x i32]* %..inline.addr.1130 to i8*, !dbg !5827
	%1679 = getelementptr i8, i8*  %1678, i64 4, !dbg !5827
	%1680 = bitcast i8*  %1679 to i32*, !dbg !5827
	store i32 -1, i32*  %1680, align 4, !tbaa !5915, !dbg !5827
	br label %L..inline.71633
L..inline.71633:
	%1681 = load i32, i32* %..inline.addr.1110, align 4, !tbaa !5919, !dbg !5828
	%1682 = icmp sge i32  %1681, 0, !dbg !5828
	br i1  %1682, label %L..inline.71635, label %L.B1280, !dbg !5828
L.B1280:
	%1683 = load i32, i32* %..inline.addr.1120, align 4, !tbaa !5919, !dbg !5828
	%1684 = sub i32  %1683, 1, !dbg !5828
	store i32  %1684, i32* %..inline.addr.1120, align 4, !tbaa !5919, !dbg !5828
	%1685 = bitcast [3 x i32]* %..inline.addr.1130 to i8*, !dbg !5829
	%1686 = getelementptr i8, i8*  %1685, i64 8, !dbg !5829
	%1687 = bitcast i8*  %1686 to i32*, !dbg !5829
	store i32 1, i32*  %1687, align 4, !tbaa !5915, !dbg !5829
	br label %L..inline.71635
L..inline.71635:
	%1688 = load i32, i32* %..inline.addr.1110, align 4, !tbaa !5919, !dbg !5830
	%1689 = load %struct._Z6FsGridISt5arrayIdLm3EELi2EE*, %struct._Z6FsGridISt5arrayIdLm3EELi2EE** %..inline.addr.1080, align 8, !tbaa !5914, !dbg !5830
	%1690 = bitcast %struct._Z6FsGridISt5arrayIdLm3EELi2EE*  %1689 to i8*, !dbg !5830
	%1691 = getelementptr i8, i8*  %1690, i64 272, !dbg !5830
	%1692 = bitcast i8*  %1691 to i32*, !dbg !5830
	%1693 = load i32, i32*  %1692, align 4, !tbaa !5915, !dbg !5830
	%1694 = icmp slt i32  %1688,  %1693, !dbg !5830
	br i1  %1694, label %L..inline.71652, label %L.B1281, !dbg !5830
L.B1281:
	%1695 = load i32, i32* %..inline.addr.1120, align 4, !tbaa !5919, !dbg !5830
	%1696 = add i32  %1695, 1, !dbg !5830
	store i32  %1696, i32* %..inline.addr.1120, align 4, !tbaa !5919, !dbg !5830
	%1697 = bitcast [3 x i32]* %..inline.addr.1130 to i8*, !dbg !5831
	%1698 = getelementptr i8, i8*  %1697, i64 8, !dbg !5831
	%1699 = bitcast i8*  %1698 to i32*, !dbg !5831
	store i32 -1, i32*  %1699, align 4, !tbaa !5915, !dbg !5831
	br label %L..inline.71652
L..inline.71652:
	%1700 = load i32, i32* %..inline.addr.1120, align 4, !tbaa !5919, !dbg !5832
	%1701 = icmp eq i32  %1700, 13, !dbg !5832
	br i1  %1701, label %L..inline.71653, label %L.B1282, !dbg !5832
L.B1282:
	%1702 = sext i32  %1700 to i64, !dbg !5833
	%1703 = load %struct._Z6FsGridISt5arrayIdLm3EELi2EE*, %struct._Z6FsGridISt5arrayIdLm3EELi2EE** %..inline.addr.1080, align 8, !tbaa !5914, !dbg !5833
	%1704 = bitcast %struct._Z6FsGridISt5arrayIdLm3EELi2EE*  %1703 to i8*, !dbg !5833
	%1705 = getelementptr i8, i8*  %1704, i64 92, !dbg !5833
	%1706 = bitcast i8*  %1705 to i32*, !dbg !5833
	%1707 = getelementptr i32, i32*  %1706, i64  %1702, !dbg !5833
	%1708 = load i32, i32*  %1707, align 4, !tbaa !5915, !dbg !5833
	%1709 = icmp ne i32  %1708, -2, !dbg !5833
	br i1  %1709, label %L..inline.71670, label %L.B1283, !dbg !5833
L.B1283:
	%1710 = bitcast %struct._ZSt5arrayIdLm3EE** %..inline.addr.1140 to i8**, !dbg !5833
	store i8* null, i8**  %1710, align 8, !tbaa !5914, !dbg !5833
	br label %L..inline.71857, !dbg !5834
L..inline.71670:
	%1711 = load i32, i32* %..inline.addr.1120, align 4, !tbaa !5919, !dbg !5835
	%1712 = sext i32  %1711 to i64, !dbg !5835
	%1713 = load %struct._Z6FsGridISt5arrayIdLm3EELi2EE*, %struct._Z6FsGridISt5arrayIdLm3EELi2EE** %..inline.addr.1080, align 8, !tbaa !5914, !dbg !5835
	%1714 = bitcast %struct._Z6FsGridISt5arrayIdLm3EELi2EE*  %1713 to i8*, !dbg !5835
	%1715 = getelementptr i8, i8*  %1714, i64 92, !dbg !5835
	%1716 = bitcast i8*  %1715 to i32*, !dbg !5835
	%1717 = getelementptr i32, i32*  %1716, i64  %1712, !dbg !5835
	%1718 = load i32, i32*  %1717, align 4, !tbaa !5915, !dbg !5835
	%1719 = getelementptr i8, i8*  %1714, i64 56, !dbg !5835
	%1720 = bitcast i8*  %1719 to i32*, !dbg !5835
	%1721 = load i32, i32*  %1720, align 4, !tbaa !5915, !dbg !5835
	%1722 = icmp ne i32  %1718,  %1721, !dbg !5835
	br i1  %1722, label %L..inline.71688, label %L.B1284, !dbg !5835
L.B1284:
	%1723 = load i32, i32* %..inline.addr.1090, align 4, !tbaa !5919, !dbg !5836
	%1724 = bitcast [3 x i32]* %..inline.addr.1130 to i32*, !dbg !5836
	%1725 = load i32, i32*  %1724, align 4, !tbaa !5915, !dbg !5836
	%1726 = bitcast %struct._Z6FsGridISt5arrayIdLm3EELi2EE*  %1713 to i8*, !dbg !5836
	%1727 = getelementptr i8, i8*  %1726, i64 264, !dbg !5836
	%1728 = bitcast i8*  %1727 to i32*, !dbg !5836
	%1729 = load i32, i32*  %1728, align 4, !tbaa !5915, !dbg !5836
	%1730 = mul i32  %1725,  %1729, !dbg !5836
	%1731 = add i32  %1723,  %1730, !dbg !5836
	store i32  %1731, i32* %..inline.addr.1090, align 4, !tbaa !5919, !dbg !5836
	%1732 = load i32, i32* %..inline.addr.1100, align 4, !tbaa !5919, !dbg !5837
	%1733 = bitcast [3 x i32]* %..inline.addr.1130 to i8*, !dbg !5837
	%1734 = getelementptr i8, i8*  %1733, i64 4, !dbg !5837
	%1735 = bitcast i8*  %1734 to i32*, !dbg !5837
	%1736 = load i32, i32*  %1735, align 4, !tbaa !5915, !dbg !5837
	%1737 = getelementptr i8, i8*  %1726, i64 268, !dbg !5837
	%1738 = bitcast i8*  %1737 to i32*, !dbg !5837
	%1739 = load i32, i32*  %1738, align 4, !tbaa !5915, !dbg !5837
	%1740 = mul i32  %1736,  %1739, !dbg !5837
	%1741 = add i32  %1732,  %1740, !dbg !5837
	store i32  %1741, i32* %..inline.addr.1100, align 4, !tbaa !5919, !dbg !5837
	%1742 = load i32, i32* %..inline.addr.1110, align 4, !tbaa !5919, !dbg !5838
	%1743 = getelementptr i8, i8*  %1733, i64 8, !dbg !5838
	%1744 = bitcast i8*  %1743 to i32*, !dbg !5838
	%1745 = load i32, i32*  %1744, align 4, !tbaa !5915, !dbg !5838
	%1746 = getelementptr i8, i8*  %1726, i64 272, !dbg !5838
	%1747 = bitcast i8*  %1746 to i32*, !dbg !5838
	%1748 = load i32, i32*  %1747, align 4, !tbaa !5915, !dbg !5838
	%1749 = mul i32  %1745,  %1748, !dbg !5838
	%1750 = add i32  %1742,  %1749, !dbg !5838
	store i32  %1750, i32* %..inline.addr.1110, align 4, !tbaa !5919, !dbg !5838
	br label %L..inline.71688
L..inline.71688:
	br label %L..inline.71653
L..inline.71653:
	store i64 0, i64* %..inline.addr.1150, align 8, !tbaa !5921, !dbg !5839
	%1751 = load %struct._Z6FsGridISt5arrayIdLm3EELi2EE*, %struct._Z6FsGridISt5arrayIdLm3EELi2EE** %..inline.addr.1080, align 8, !tbaa !5914, !dbg !5839
	%1752 = bitcast %struct._Z6FsGridISt5arrayIdLm3EELi2EE*  %1751 to i8*, !dbg !5839
	%1753 = getelementptr i8, i8*  %1752, i64 260, !dbg !5839
	%1754 = bitcast i8*  %1753 to i32*, !dbg !5839
	%1755 = load i32, i32*  %1754, align 4, !tbaa !5915, !dbg !5839
	%1756 = icmp sle i32  %1755, 1, !dbg !5839
	br i1  %1756, label %L..inline.71762, label %L.B1285, !dbg !5839
L.B1285:
	%1757 = load i32, i32* %..inline.addr.1110, align 4, !tbaa !5919, !dbg !5839
	%1758 = add i32  %1757, 2, !dbg !5839
	%1759 = bitcast %struct._Z6FsGridISt5arrayIdLm3EELi2EE*  %1751 to i8*, !dbg !5839
	%1760 = getelementptr i8, i8*  %1759, i64 280, !dbg !5839
	%1761 = bitcast i8*  %1760 to i32*, !dbg !5839
	%1762 = load i32, i32*  %1761, align 4, !tbaa !5915, !dbg !5839
	%1763 = getelementptr i8, i8*  %1759, i64 276, !dbg !5839
	%1764 = bitcast i8*  %1763 to i32*, !dbg !5839
	%1765 = load i32, i32*  %1764, align 4, !tbaa !5915, !dbg !5839
	%1766 = mul i32  %1762,  %1765, !dbg !5839
	%1767 = mul i32  %1758,  %1766, !dbg !5839
	%1768 = sext i32  %1767 to i64, !dbg !5839
	store i64  %1768, i64* %..inline.addr.1150, align 8, !tbaa !5921, !dbg !5839
	br label %L..inline.71762
L..inline.71762:
	%1769 = load %struct._Z6FsGridISt5arrayIdLm3EELi2EE*, %struct._Z6FsGridISt5arrayIdLm3EELi2EE** %..inline.addr.1080, align 8, !tbaa !5914, !dbg !5839
	%1770 = bitcast %struct._Z6FsGridISt5arrayIdLm3EELi2EE*  %1769 to i8*, !dbg !5839
	%1771 = getelementptr i8, i8*  %1770, i64 256, !dbg !5839
	%1772 = bitcast i8*  %1771 to i32*, !dbg !5839
	%1773 = load i32, i32*  %1772, align 4, !tbaa !5915, !dbg !5839
	%1774 = icmp sle i32  %1773, 1, !dbg !5839
	br i1  %1774, label %L..inline.71811, label %L.B1286, !dbg !5839
L.B1286:
	%1775 = load i64, i64* %..inline.addr.1150, align 8, !tbaa !5921, !dbg !5839
	%1776 = bitcast %struct._Z6FsGridISt5arrayIdLm3EELi2EE*  %1769 to i8*, !dbg !5839
	%1777 = getelementptr i8, i8*  %1776, i64 276, !dbg !5839
	%1778 = bitcast i8*  %1777 to i32*, !dbg !5839
	%1779 = load i32, i32*  %1778, align 4, !tbaa !5915, !dbg !5839
	%1780 = load i32, i32* %..inline.addr.1100, align 4, !tbaa !5919, !dbg !5839
	%1781 = add i32  %1780, 2, !dbg !5839
	%1782 = mul i32  %1779,  %1781, !dbg !5839
	%1783 = sext i32  %1782 to i64, !dbg !5839
	%1784 = add i64  %1775,  %1783, !dbg !5839
	store i64  %1784, i64* %..inline.addr.1150, align 8, !tbaa !5921, !dbg !5839
	br label %L..inline.71811
L..inline.71811:
	%1785 = load %struct._Z6FsGridISt5arrayIdLm3EELi2EE*, %struct._Z6FsGridISt5arrayIdLm3EELi2EE** %..inline.addr.1080, align 8, !tbaa !5914, !dbg !5839
	%1786 = bitcast %struct._Z6FsGridISt5arrayIdLm3EELi2EE*  %1785 to i8*, !dbg !5839
	%1787 = getelementptr i8, i8*  %1786, i64 252, !dbg !5839
	%1788 = bitcast i8*  %1787 to i32*, !dbg !5839
	%1789 = load i32, i32*  %1788, align 4, !tbaa !5915, !dbg !5839
	%1790 = icmp sle i32  %1789, 1, !dbg !5839
	%1791 = zext i1  %1790 to i32, !dbg !5839
	%1792 = trunc i32  %1791 to i1, !dbg !5839
	%1793 = load i64, i64* %..inline.addr.1150, align 8, !tbaa !5921, !dbg !5839
	%1794 = load i32, i32* %..inline.addr.1090, align 4, !tbaa !5919, !dbg !5839
	%1795 = sext i32  %1794 to i64, !dbg !5839
	%1796 = add i64  %1795, 2, !dbg !5839
	%1797 = add i64  %1793,  %1796, !dbg !5839
	%1798 = select i1  %1792, i64  %1793, i64  %1797, !dbg !5839
	%1799 = getelementptr i8, i8*  %1786, i64 744, !dbg !5840
	%1800 = bitcast i8*  %1799 to i8**, !dbg !5840
	%1801 = load i8*, i8**  %1800, align 8, !tbaa !5914, !dbg !5840
	%1802 = mul i64  %1798, 24, !dbg !5840
	%1803 = getelementptr i8, i8*  %1801, i64  %1802, !dbg !5840
	%1804 = bitcast %struct._ZSt5arrayIdLm3EE** %..inline.addr.1140 to i8**, !dbg !5840
	store i8*  %1803, i8**  %1804, align 8, !tbaa !5914, !dbg !5840
	br label %L..inline.71857
L..inline.71857:
	%1805 = load %struct._ZSt5arrayIdLm3EE*, %struct._ZSt5arrayIdLm3EE** %..inline.addr.1140, align 8, !tbaa !5914, !dbg !5841
	%1806 = bitcast %struct._ZSt5arrayIdLm3EE*  %1805 to i8*, !dbg !5841
	%1807 = bitcast %struct._ZSt5arrayIdLm3EE** %EGrid1.addr to i8**, !dbg !5841
	store i8*  %1806, i8**  %1807, align 8, !tbaa !5914, !dbg !5841
	%1808 = load %struct._Z6FsGridISt5arrayIdLm3EELi2EE*, %struct._Z6FsGridISt5arrayIdLm3EELi2EE** %EDt2Grid.addr, align 8, !tbaa !5914, !dbg !5865
	%1809 = bitcast %struct._Z6FsGridISt5arrayIdLm3EELi2EE*  %1808 to i8*, !dbg !5865
	%1810 = bitcast %struct._Z6FsGridISt5arrayIdLm3EELi2EE** %..inline.addr.1160 to i8**, !dbg !5865
	store i8*  %1809, i8**  %1810, align 8, !tbaa !5914, !dbg !5865
	%1811 = load i32, i32* %i.addr, align 4, !tbaa !5919, !dbg !5865
	store i32  %1811, i32* %..inline.addr.1170, align 4, !tbaa !5919, !dbg !5865
	%1812 = load i32, i32* %j.addr, align 4, !tbaa !5919, !dbg !5865
	store i32  %1812, i32* %..inline.addr.1180, align 4, !tbaa !5919, !dbg !5865
	%1813 = load i32, i32* %k.addr, align 4, !tbaa !5919, !dbg !5865
	%1814 = add i32  %1813, 1, !dbg !5865
	store i32  %1814, i32* %..inline.addr.1190, align 4, !tbaa !5919, !dbg !5865
	store i32 13, i32* %..inline.addr.1200, align 4, !tbaa !5919, !dbg !5865
	%1815 = bitcast [3 x i32]* %..inline.addr.1210 to i32*, !dbg !5818
	store i32 0, i32*  %1815, align 4, !tbaa !5915, !dbg !5818
	%1816 = bitcast [3 x i32]* %..inline.addr.1210 to i8*, !dbg !5819
	%1817 = getelementptr i8, i8*  %1816, i64 4, !dbg !5819
	%1818 = bitcast i8*  %1817 to i32*, !dbg !5819
	store i32 0, i32*  %1818, align 4, !tbaa !5915, !dbg !5819
	%1819 = getelementptr i8, i8*  %1816, i64 8, !dbg !5819
	%1820 = bitcast i8*  %1819 to i32*, !dbg !5819
	store i32 0, i32*  %1820, align 4, !tbaa !5915, !dbg !5819
	%1821 = icmp sge i32  %1811, 0, !dbg !5819
	br i1  %1821, label %L..inline.71863, label %L.B1287, !dbg !5819
L.B1287:
	store i32 4, i32* %..inline.addr.1200, align 4, !tbaa !5919, !dbg !5820
	%1822 = bitcast [3 x i32]* %..inline.addr.1210 to i32*, !dbg !5821
	store i32 1, i32*  %1822, align 4, !tbaa !5915, !dbg !5821
	br label %L..inline.71863
L..inline.71863:
	%1823 = load i32, i32* %..inline.addr.1170, align 4, !tbaa !5919, !dbg !5822
	%1824 = load %struct._Z6FsGridISt5arrayIdLm3EELi2EE*, %struct._Z6FsGridISt5arrayIdLm3EELi2EE** %..inline.addr.1160, align 8, !tbaa !5914, !dbg !5822
	%1825 = bitcast %struct._Z6FsGridISt5arrayIdLm3EELi2EE*  %1824 to i8*, !dbg !5822
	%1826 = getelementptr i8, i8*  %1825, i64 264, !dbg !5822
	%1827 = bitcast i8*  %1826 to i32*, !dbg !5822
	%1828 = load i32, i32*  %1827, align 4, !tbaa !5915, !dbg !5822
	%1829 = icmp slt i32  %1823,  %1828, !dbg !5822
	br i1  %1829, label %L..inline.71881, label %L.B1288, !dbg !5822
L.B1288:
	%1830 = load i32, i32* %..inline.addr.1200, align 4, !tbaa !5919, !dbg !5822
	%1831 = add i32  %1830, 9, !dbg !5822
	store i32  %1831, i32* %..inline.addr.1200, align 4, !tbaa !5919, !dbg !5822
	%1832 = bitcast [3 x i32]* %..inline.addr.1210 to i32*, !dbg !5823
	store i32 -1, i32*  %1832, align 4, !tbaa !5915, !dbg !5823
	br label %L..inline.71881
L..inline.71881:
	%1833 = load i32, i32* %..inline.addr.1180, align 4, !tbaa !5919, !dbg !5824
	%1834 = icmp sge i32  %1833, 0, !dbg !5824
	br i1  %1834, label %L..inline.71883, label %L.B1289, !dbg !5824
L.B1289:
	%1835 = load i32, i32* %..inline.addr.1200, align 4, !tbaa !5919, !dbg !5824
	%1836 = sub i32  %1835, 3, !dbg !5824
	store i32  %1836, i32* %..inline.addr.1200, align 4, !tbaa !5919, !dbg !5824
	%1837 = bitcast [3 x i32]* %..inline.addr.1210 to i8*, !dbg !5825
	%1838 = getelementptr i8, i8*  %1837, i64 4, !dbg !5825
	%1839 = bitcast i8*  %1838 to i32*, !dbg !5825
	store i32 1, i32*  %1839, align 4, !tbaa !5915, !dbg !5825
	br label %L..inline.71883
L..inline.71883:
	%1840 = load i32, i32* %..inline.addr.1180, align 4, !tbaa !5919, !dbg !5826
	%1841 = load %struct._Z6FsGridISt5arrayIdLm3EELi2EE*, %struct._Z6FsGridISt5arrayIdLm3EELi2EE** %..inline.addr.1160, align 8, !tbaa !5914, !dbg !5826
	%1842 = bitcast %struct._Z6FsGridISt5arrayIdLm3EELi2EE*  %1841 to i8*, !dbg !5826
	%1843 = getelementptr i8, i8*  %1842, i64 268, !dbg !5826
	%1844 = bitcast i8*  %1843 to i32*, !dbg !5826
	%1845 = load i32, i32*  %1844, align 4, !tbaa !5915, !dbg !5826
	%1846 = icmp slt i32  %1840,  %1845, !dbg !5826
	br i1  %1846, label %L..inline.71900, label %L.B1290, !dbg !5826
L.B1290:
	%1847 = load i32, i32* %..inline.addr.1200, align 4, !tbaa !5919, !dbg !5826
	%1848 = add i32  %1847, 3, !dbg !5826
	store i32  %1848, i32* %..inline.addr.1200, align 4, !tbaa !5919, !dbg !5826
	%1849 = bitcast [3 x i32]* %..inline.addr.1210 to i8*, !dbg !5827
	%1850 = getelementptr i8, i8*  %1849, i64 4, !dbg !5827
	%1851 = bitcast i8*  %1850 to i32*, !dbg !5827
	store i32 -1, i32*  %1851, align 4, !tbaa !5915, !dbg !5827
	br label %L..inline.71900
L..inline.71900:
	%1852 = load i32, i32* %..inline.addr.1190, align 4, !tbaa !5919, !dbg !5828
	%1853 = icmp sge i32  %1852, 0, !dbg !5828
	br i1  %1853, label %L..inline.71902, label %L.B1291, !dbg !5828
L.B1291:
	%1854 = load i32, i32* %..inline.addr.1200, align 4, !tbaa !5919, !dbg !5828
	%1855 = sub i32  %1854, 1, !dbg !5828
	store i32  %1855, i32* %..inline.addr.1200, align 4, !tbaa !5919, !dbg !5828
	%1856 = bitcast [3 x i32]* %..inline.addr.1210 to i8*, !dbg !5829
	%1857 = getelementptr i8, i8*  %1856, i64 8, !dbg !5829
	%1858 = bitcast i8*  %1857 to i32*, !dbg !5829
	store i32 1, i32*  %1858, align 4, !tbaa !5915, !dbg !5829
	br label %L..inline.71902
L..inline.71902:
	%1859 = load i32, i32* %..inline.addr.1190, align 4, !tbaa !5919, !dbg !5830
	%1860 = load %struct._Z6FsGridISt5arrayIdLm3EELi2EE*, %struct._Z6FsGridISt5arrayIdLm3EELi2EE** %..inline.addr.1160, align 8, !tbaa !5914, !dbg !5830
	%1861 = bitcast %struct._Z6FsGridISt5arrayIdLm3EELi2EE*  %1860 to i8*, !dbg !5830
	%1862 = getelementptr i8, i8*  %1861, i64 272, !dbg !5830
	%1863 = bitcast i8*  %1862 to i32*, !dbg !5830
	%1864 = load i32, i32*  %1863, align 4, !tbaa !5915, !dbg !5830
	%1865 = icmp slt i32  %1859,  %1864, !dbg !5830
	br i1  %1865, label %L..inline.71919, label %L.B1292, !dbg !5830
L.B1292:
	%1866 = load i32, i32* %..inline.addr.1200, align 4, !tbaa !5919, !dbg !5830
	%1867 = add i32  %1866, 1, !dbg !5830
	store i32  %1867, i32* %..inline.addr.1200, align 4, !tbaa !5919, !dbg !5830
	%1868 = bitcast [3 x i32]* %..inline.addr.1210 to i8*, !dbg !5831
	%1869 = getelementptr i8, i8*  %1868, i64 8, !dbg !5831
	%1870 = bitcast i8*  %1869 to i32*, !dbg !5831
	store i32 -1, i32*  %1870, align 4, !tbaa !5915, !dbg !5831
	br label %L..inline.71919
L..inline.71919:
	%1871 = load i32, i32* %..inline.addr.1200, align 4, !tbaa !5919, !dbg !5832
	%1872 = icmp eq i32  %1871, 13, !dbg !5832
	br i1  %1872, label %L..inline.71920, label %L.B1293, !dbg !5832
L.B1293:
	%1873 = sext i32  %1871 to i64, !dbg !5833
	%1874 = load %struct._Z6FsGridISt5arrayIdLm3EELi2EE*, %struct._Z6FsGridISt5arrayIdLm3EELi2EE** %..inline.addr.1160, align 8, !tbaa !5914, !dbg !5833
	%1875 = bitcast %struct._Z6FsGridISt5arrayIdLm3EELi2EE*  %1874 to i8*, !dbg !5833
	%1876 = getelementptr i8, i8*  %1875, i64 92, !dbg !5833
	%1877 = bitcast i8*  %1876 to i32*, !dbg !5833
	%1878 = getelementptr i32, i32*  %1877, i64  %1873, !dbg !5833
	%1879 = load i32, i32*  %1878, align 4, !tbaa !5915, !dbg !5833
	%1880 = icmp ne i32  %1879, -2, !dbg !5833
	br i1  %1880, label %L..inline.71937, label %L.B1294, !dbg !5833
L.B1294:
	%1881 = bitcast %struct._ZSt5arrayIdLm3EE** %..inline.addr.1220 to i8**, !dbg !5833
	store i8* null, i8**  %1881, align 8, !tbaa !5914, !dbg !5833
	br label %L..inline.72124, !dbg !5834
L..inline.71937:
	%1882 = load i32, i32* %..inline.addr.1200, align 4, !tbaa !5919, !dbg !5835
	%1883 = sext i32  %1882 to i64, !dbg !5835
	%1884 = load %struct._Z6FsGridISt5arrayIdLm3EELi2EE*, %struct._Z6FsGridISt5arrayIdLm3EELi2EE** %..inline.addr.1160, align 8, !tbaa !5914, !dbg !5835
	%1885 = bitcast %struct._Z6FsGridISt5arrayIdLm3EELi2EE*  %1884 to i8*, !dbg !5835
	%1886 = getelementptr i8, i8*  %1885, i64 92, !dbg !5835
	%1887 = bitcast i8*  %1886 to i32*, !dbg !5835
	%1888 = getelementptr i32, i32*  %1887, i64  %1883, !dbg !5835
	%1889 = load i32, i32*  %1888, align 4, !tbaa !5915, !dbg !5835
	%1890 = getelementptr i8, i8*  %1885, i64 56, !dbg !5835
	%1891 = bitcast i8*  %1890 to i32*, !dbg !5835
	%1892 = load i32, i32*  %1891, align 4, !tbaa !5915, !dbg !5835
	%1893 = icmp ne i32  %1889,  %1892, !dbg !5835
	br i1  %1893, label %L..inline.71955, label %L.B1295, !dbg !5835
L.B1295:
	%1894 = load i32, i32* %..inline.addr.1170, align 4, !tbaa !5919, !dbg !5836
	%1895 = bitcast [3 x i32]* %..inline.addr.1210 to i32*, !dbg !5836
	%1896 = load i32, i32*  %1895, align 4, !tbaa !5915, !dbg !5836
	%1897 = bitcast %struct._Z6FsGridISt5arrayIdLm3EELi2EE*  %1884 to i8*, !dbg !5836
	%1898 = getelementptr i8, i8*  %1897, i64 264, !dbg !5836
	%1899 = bitcast i8*  %1898 to i32*, !dbg !5836
	%1900 = load i32, i32*  %1899, align 4, !tbaa !5915, !dbg !5836
	%1901 = mul i32  %1896,  %1900, !dbg !5836
	%1902 = add i32  %1894,  %1901, !dbg !5836
	store i32  %1902, i32* %..inline.addr.1170, align 4, !tbaa !5919, !dbg !5836
	%1903 = load i32, i32* %..inline.addr.1180, align 4, !tbaa !5919, !dbg !5837
	%1904 = bitcast [3 x i32]* %..inline.addr.1210 to i8*, !dbg !5837
	%1905 = getelementptr i8, i8*  %1904, i64 4, !dbg !5837
	%1906 = bitcast i8*  %1905 to i32*, !dbg !5837
	%1907 = load i32, i32*  %1906, align 4, !tbaa !5915, !dbg !5837
	%1908 = getelementptr i8, i8*  %1897, i64 268, !dbg !5837
	%1909 = bitcast i8*  %1908 to i32*, !dbg !5837
	%1910 = load i32, i32*  %1909, align 4, !tbaa !5915, !dbg !5837
	%1911 = mul i32  %1907,  %1910, !dbg !5837
	%1912 = add i32  %1903,  %1911, !dbg !5837
	store i32  %1912, i32* %..inline.addr.1180, align 4, !tbaa !5919, !dbg !5837
	%1913 = load i32, i32* %..inline.addr.1190, align 4, !tbaa !5919, !dbg !5838
	%1914 = getelementptr i8, i8*  %1904, i64 8, !dbg !5838
	%1915 = bitcast i8*  %1914 to i32*, !dbg !5838
	%1916 = load i32, i32*  %1915, align 4, !tbaa !5915, !dbg !5838
	%1917 = getelementptr i8, i8*  %1897, i64 272, !dbg !5838
	%1918 = bitcast i8*  %1917 to i32*, !dbg !5838
	%1919 = load i32, i32*  %1918, align 4, !tbaa !5915, !dbg !5838
	%1920 = mul i32  %1916,  %1919, !dbg !5838
	%1921 = add i32  %1913,  %1920, !dbg !5838
	store i32  %1921, i32* %..inline.addr.1190, align 4, !tbaa !5919, !dbg !5838
	br label %L..inline.71955
L..inline.71955:
	br label %L..inline.71920
L..inline.71920:
	store i64 0, i64* %..inline.addr.1230, align 8, !tbaa !5921, !dbg !5839
	%1922 = load %struct._Z6FsGridISt5arrayIdLm3EELi2EE*, %struct._Z6FsGridISt5arrayIdLm3EELi2EE** %..inline.addr.1160, align 8, !tbaa !5914, !dbg !5839
	%1923 = bitcast %struct._Z6FsGridISt5arrayIdLm3EELi2EE*  %1922 to i8*, !dbg !5839
	%1924 = getelementptr i8, i8*  %1923, i64 260, !dbg !5839
	%1925 = bitcast i8*  %1924 to i32*, !dbg !5839
	%1926 = load i32, i32*  %1925, align 4, !tbaa !5915, !dbg !5839
	%1927 = icmp sle i32  %1926, 1, !dbg !5839
	br i1  %1927, label %L..inline.72029, label %L.B1296, !dbg !5839
L.B1296:
	%1928 = load i32, i32* %..inline.addr.1190, align 4, !tbaa !5919, !dbg !5839
	%1929 = add i32  %1928, 2, !dbg !5839
	%1930 = bitcast %struct._Z6FsGridISt5arrayIdLm3EELi2EE*  %1922 to i8*, !dbg !5839
	%1931 = getelementptr i8, i8*  %1930, i64 280, !dbg !5839
	%1932 = bitcast i8*  %1931 to i32*, !dbg !5839
	%1933 = load i32, i32*  %1932, align 4, !tbaa !5915, !dbg !5839
	%1934 = getelementptr i8, i8*  %1930, i64 276, !dbg !5839
	%1935 = bitcast i8*  %1934 to i32*, !dbg !5839
	%1936 = load i32, i32*  %1935, align 4, !tbaa !5915, !dbg !5839
	%1937 = mul i32  %1933,  %1936, !dbg !5839
	%1938 = mul i32  %1929,  %1937, !dbg !5839
	%1939 = sext i32  %1938 to i64, !dbg !5839
	store i64  %1939, i64* %..inline.addr.1230, align 8, !tbaa !5921, !dbg !5839
	br label %L..inline.72029
L..inline.72029:
	%1940 = load %struct._Z6FsGridISt5arrayIdLm3EELi2EE*, %struct._Z6FsGridISt5arrayIdLm3EELi2EE** %..inline.addr.1160, align 8, !tbaa !5914, !dbg !5839
	%1941 = bitcast %struct._Z6FsGridISt5arrayIdLm3EELi2EE*  %1940 to i8*, !dbg !5839
	%1942 = getelementptr i8, i8*  %1941, i64 256, !dbg !5839
	%1943 = bitcast i8*  %1942 to i32*, !dbg !5839
	%1944 = load i32, i32*  %1943, align 4, !tbaa !5915, !dbg !5839
	%1945 = icmp sle i32  %1944, 1, !dbg !5839
	br i1  %1945, label %L..inline.72078, label %L.B1297, !dbg !5839
L.B1297:
	%1946 = load i64, i64* %..inline.addr.1230, align 8, !tbaa !5921, !dbg !5839
	%1947 = bitcast %struct._Z6FsGridISt5arrayIdLm3EELi2EE*  %1940 to i8*, !dbg !5839
	%1948 = getelementptr i8, i8*  %1947, i64 276, !dbg !5839
	%1949 = bitcast i8*  %1948 to i32*, !dbg !5839
	%1950 = load i32, i32*  %1949, align 4, !tbaa !5915, !dbg !5839
	%1951 = load i32, i32* %..inline.addr.1180, align 4, !tbaa !5919, !dbg !5839
	%1952 = add i32  %1951, 2, !dbg !5839
	%1953 = mul i32  %1950,  %1952, !dbg !5839
	%1954 = sext i32  %1953 to i64, !dbg !5839
	%1955 = add i64  %1946,  %1954, !dbg !5839
	store i64  %1955, i64* %..inline.addr.1230, align 8, !tbaa !5921, !dbg !5839
	br label %L..inline.72078
L..inline.72078:
	%1956 = load %struct._Z6FsGridISt5arrayIdLm3EELi2EE*, %struct._Z6FsGridISt5arrayIdLm3EELi2EE** %..inline.addr.1160, align 8, !tbaa !5914, !dbg !5839
	%1957 = bitcast %struct._Z6FsGridISt5arrayIdLm3EELi2EE*  %1956 to i8*, !dbg !5839
	%1958 = getelementptr i8, i8*  %1957, i64 252, !dbg !5839
	%1959 = bitcast i8*  %1958 to i32*, !dbg !5839
	%1960 = load i32, i32*  %1959, align 4, !tbaa !5915, !dbg !5839
	%1961 = icmp sle i32  %1960, 1, !dbg !5839
	%1962 = zext i1  %1961 to i32, !dbg !5839
	%1963 = trunc i32  %1962 to i1, !dbg !5839
	%1964 = load i64, i64* %..inline.addr.1230, align 8, !tbaa !5921, !dbg !5839
	%1965 = load i32, i32* %..inline.addr.1170, align 4, !tbaa !5919, !dbg !5839
	%1966 = sext i32  %1965 to i64, !dbg !5839
	%1967 = add i64  %1966, 2, !dbg !5839
	%1968 = add i64  %1964,  %1967, !dbg !5839
	%1969 = select i1  %1963, i64  %1964, i64  %1968, !dbg !5839
	%1970 = getelementptr i8, i8*  %1957, i64 744, !dbg !5840
	%1971 = bitcast i8*  %1970 to i8**, !dbg !5840
	%1972 = load i8*, i8**  %1971, align 8, !tbaa !5914, !dbg !5840
	%1973 = mul i64  %1969, 24, !dbg !5840
	%1974 = getelementptr i8, i8*  %1972, i64  %1973, !dbg !5840
	%1975 = bitcast %struct._ZSt5arrayIdLm3EE** %..inline.addr.1220 to i8**, !dbg !5840
	store i8*  %1974, i8**  %1975, align 8, !tbaa !5914, !dbg !5840
	br label %L..inline.72124
L..inline.72124:
	%1976 = load %struct._ZSt5arrayIdLm3EE*, %struct._ZSt5arrayIdLm3EE** %perBGrid0.addr, align 8, !tbaa !5914, !dbg !5855
	%1977 = bitcast %struct._ZSt5arrayIdLm3EE*  %1976 to i8*, !dbg !5855
	%1978 = bitcast double** %..inline.addr.1240 to i8**, !dbg !5855
	store i8*  %1977, i8**  %1978, align 8, !tbaa !5914, !dbg !5855
	%1979 = load double*, double** %..inline.addr.1240, align 8, !tbaa !5914, !dbg !5856
	%1980 = load double, double*  %1979, align 8, !tbaa !5915, !dbg !5856
	%1981 = load double*, double** %dt.addr, align 8, !tbaa !5914, !dbg !5856
	%1982 = load double, double*  %1981, align 8, !tbaa !5915, !dbg !5856
	%1983 = load double, double* %dy.addr, align 8, !tbaa !5917, !dbg !5856
	%1984 = fdiv double  1.00000000000000000E+0,  %1983, !dbg !5856
	%1985 = load %struct._ZSt5arrayIdLm3EE*, %struct._ZSt5arrayIdLm3EE** %EGrid0.addr, align 8, !tbaa !5914, !dbg !5856
	%1986 = bitcast %struct._ZSt5arrayIdLm3EE*  %1985 to i8*, !dbg !5856
	%1987 = getelementptr i8, i8*  %1986, i64 16, !dbg !5856
	%1988 = bitcast i8*  %1987 to double*, !dbg !5856
	%1989 = load double, double*  %1988, align 8, !tbaa !5915, !dbg !5856
	%1990 = load %struct._ZSt5arrayIdLm3EE*, %struct._ZSt5arrayIdLm3EE** %EGrid1.addr, align 8, !tbaa !5914, !dbg !5856
	%1991 = bitcast %struct._ZSt5arrayIdLm3EE*  %1990 to i8*, !dbg !5856
	%1992 = getelementptr i8, i8*  %1991, i64 16, !dbg !5856
	%1993 = bitcast i8*  %1992 to double*, !dbg !5856
	%1994 = load double, double*  %1993, align 8, !tbaa !5915, !dbg !5856
	%1995 = fsub double  %1989,  %1994, !dbg !5856
	%1996 = load double, double* %dz.addr, align 8, !tbaa !5917, !dbg !5856
	%1997 = fdiv double  1.00000000000000000E+0,  %1996, !dbg !5856
	%1998 = load %struct._ZSt5arrayIdLm3EE*, %struct._ZSt5arrayIdLm3EE** %..inline.addr.1220, align 8, !tbaa !5914, !dbg !5856
	%1999 = bitcast %struct._ZSt5arrayIdLm3EE*  %1998 to i8*, !dbg !5856
	%2000 = getelementptr i8, i8*  %1999, i64 8, !dbg !5856
	%2001 = bitcast i8*  %2000 to double*, !dbg !5856
	%2002 = load double, double*  %2001, align 8, !tbaa !5915, !dbg !5856
	%2003 = getelementptr i8, i8*  %1986, i64 8, !dbg !5856
	%2004 = bitcast i8*  %2003 to double*, !dbg !5856
	%2005 = load double, double*  %2004, align 8, !tbaa !5915, !dbg !5856
	%2006 = fsub double  %2002,  %2005, !dbg !5856
	%2007 = fmul double  %1997,  %2006, !dbg !5856
	%2008 = call double @llvm.fma.f64 (double  %1984, double  %1995, double  %2007), !dbg !5856
	%2009 = call double @llvm.fma.f64 (double  %1982, double  %2008, double  %1980), !dbg !5856
	store double  %2009, double*  %1979, align 8, !tbaa !5915, !dbg !5856
	br label %L_T22020808_50509, !dbg !5866
L..inline.72208:
	%2010 = bitcast [35 x i8]* @.S51773 to i8*, !dbg !5867
	%2011 = call i64  @strlen (i8*  %2010) nounwind, !dbg !5867
	%2012 = call %struct._ZSo*  @_ZSt16__ostream_insertIcSt11char_traitsIcEERSt13basic_ostreamIT_T0_ES6_PKS3_l (%struct._ZSo* @_ZSt4cerr, i8*  %2010, i64  %2011), !dbg !5867
	%2013 = bitcast %struct._ZSo*  %2012 to i8*, !dbg !5867
	%2014 = bitcast %struct._ZSo** %.Q0000.addr to i8**, !dbg !5867
	store i8*  %2013, i8**  %2014, align 8, !tbaa !5914, !dbg !5867
	br label %L..inline.72229
L..inline.72229:
	%2015 = bitcast [2 x i8]* @.S51775 to i8*, !dbg !5846
	%2016 = icmp ne i8*  %2015,  null, !dbg !5846
	br i1  %2016, label %L..inline.72241, label %L.B1298, !dbg !5846
L.B1298:
	%2017 = bitcast %struct._ZSo* @_ZSt4cerr to i8*, !dbg !5847
	%2018 = bitcast %struct._ZSo* @_ZSt4cerr to i8**, !dbg !5847
	%2019 = load i8*, i8**  %2018, align 8, !tbaa !5914, !dbg !5847
	%2020 = getelementptr i8, i8*  %2019, i64 18446744073709551592, !dbg !5847
	%2021 = bitcast i8*  %2020 to i64*, !dbg !5847
	%2022 = load i64, i64*  %2021, align 8, !tbaa !5915, !dbg !5847
	%2023 = getelementptr i8, i8*  %2017, i64  %2022, !dbg !5847
	%2024 = bitcast %struct._ZSt9basic_iosIcSt11char_traitsIcEE** %..inline.addr.1270 to i8**, !dbg !5847
	store i8*  %2023, i8**  %2024, align 8, !tbaa !5914, !dbg !5847
	%2025 = bitcast %struct._ZSt9basic_iosIcSt11char_traitsIcEE** %..inline.addr.1280 to i8**, !dbg !5847
	store i8*  %2023, i8**  %2025, align 8, !tbaa !5914, !dbg !5847
	%2026 = load %struct._ZSt9basic_iosIcSt11char_traitsIcEE*, %struct._ZSt9basic_iosIcSt11char_traitsIcEE** %..inline.addr.1280, align 8, !tbaa !5914, !dbg !5847
	%2027 = bitcast %struct._ZSt9basic_iosIcSt11char_traitsIcEE*  %2026 to i8*, !dbg !5847
	%2028 = getelementptr i8, i8*  %2027, i64 32, !dbg !5847
	%2029 = bitcast i8*  %2028 to i32*, !dbg !5847
	%2030 = load i32, i32*  %2029, align 4, !tbaa !5915, !dbg !5847
	%2031 = or i32  %2030, 1, !dbg !5847
	%2032 = load %struct._ZSt9basic_iosIcSt11char_traitsIcEE*, %struct._ZSt9basic_iosIcSt11char_traitsIcEE** %..inline.addr.1270, align 8, !tbaa !5914, !dbg !5847
	call void  @_ZNSt9basic_iosIcSt11char_traitsIcEE5clearESt12_Ios_Iostate (%struct._ZSt9basic_iosIcSt11char_traitsIcEE*  %2032, i32  %2031), !dbg !5847
	br label %L..inline.72262, !dbg !5847
L..inline.72241:
	%2033 = bitcast [2 x i8]* @.S51775 to i8*, !dbg !5867
	%2034 = call i64  @strlen (i8*  %2033) nounwind, !dbg !5867
	%2035 = call %struct._ZSo*  @_ZSt16__ostream_insertIcSt11char_traitsIcEERSt13basic_ostreamIT_T0_ES6_PKS3_l (%struct._ZSo* @_ZSt4cerr, i8*  %2033, i64  %2034), !dbg !5867
	%2036 = bitcast %struct._ZSo*  %2035 to i8*, !dbg !5867
	%2037 = bitcast %struct._ZSo** %.Q0001.addr to i8**, !dbg !5867
	store i8*  %2036, i8**  %2037, align 8, !tbaa !5914, !dbg !5867
	br label %L..inline.72262
L..inline.72262:
	%2038 = call %struct._ZSo*  @_ZNSolsEi (%struct._ZSo* @_ZSt4cerr, i32 98), !dbg !5868
	%2039 = bitcast %struct._ZSo*  %2038 to i8*, !dbg !5868
	%2040 = bitcast %struct._ZSo** %.Q0002.addr to i8**, !dbg !5868
	store i8*  %2039, i8**  %2040, align 8, !tbaa !5914, !dbg !5868
	%2041 = load %struct._ZSo*, %struct._ZSo** %.Q0002.addr, align 8, !tbaa !5914, !dbg !5868
	%2042 = bitcast %struct._ZSo*  %2041 to i8*, !dbg !5868
	%2043 = bitcast %struct._ZSo** %..inline.addr.1330 to i8**, !dbg !5868
	store i8*  %2042, i8**  %2043, align 8, !tbaa !5914, !dbg !5868
	%2044 = bitcast [2 x i8]* @.S51775 to i8*, !dbg !5846
	%2045 = icmp ne i8*  %2044,  null, !dbg !5846
	br i1  %2045, label %L..inline.72274, label %L.B1299, !dbg !5846
L.B1299:
	%2046 = load %struct._ZSo*, %struct._ZSo** %..inline.addr.1330, align 8, !tbaa !5914, !dbg !5847
	%2047 = bitcast %struct._ZSo*  %2046 to i8*, !dbg !5847
	%2048 = bitcast %struct._ZSo*  %2046 to i8**, !dbg !5847
	%2049 = load i8*, i8**  %2048, align 8, !tbaa !5914, !dbg !5847
	%2050 = getelementptr i8, i8*  %2049, i64 18446744073709551592, !dbg !5847
	%2051 = bitcast i8*  %2050 to i64*, !dbg !5847
	%2052 = load i64, i64*  %2051, align 8, !tbaa !5915, !dbg !5847
	%2053 = getelementptr i8, i8*  %2047, i64  %2052, !dbg !5847
	%2054 = bitcast %struct._ZSt9basic_iosIcSt11char_traitsIcEE** %..inline.addr.1340 to i8**, !dbg !5847
	store i8*  %2053, i8**  %2054, align 8, !tbaa !5914, !dbg !5847
	%2055 = bitcast %struct._ZSt9basic_iosIcSt11char_traitsIcEE** %..inline.addr.1350 to i8**, !dbg !5847
	store i8*  %2053, i8**  %2055, align 8, !tbaa !5914, !dbg !5847
	%2056 = load %struct._ZSt9basic_iosIcSt11char_traitsIcEE*, %struct._ZSt9basic_iosIcSt11char_traitsIcEE** %..inline.addr.1350, align 8, !tbaa !5914, !dbg !5847
	%2057 = bitcast %struct._ZSt9basic_iosIcSt11char_traitsIcEE*  %2056 to i8*, !dbg !5847
	%2058 = getelementptr i8, i8*  %2057, i64 32, !dbg !5847
	%2059 = bitcast i8*  %2058 to i32*, !dbg !5847
	%2060 = load i32, i32*  %2059, align 4, !tbaa !5915, !dbg !5847
	%2061 = or i32  %2060, 1, !dbg !5847
	%2062 = load %struct._ZSt9basic_iosIcSt11char_traitsIcEE*, %struct._ZSt9basic_iosIcSt11char_traitsIcEE** %..inline.addr.1340, align 8, !tbaa !5914, !dbg !5847
	call void  @_ZNSt9basic_iosIcSt11char_traitsIcEE5clearESt12_Ios_Iostate (%struct._ZSt9basic_iosIcSt11char_traitsIcEE*  %2062, i32  %2061), !dbg !5847
	br label %L..inline.72295, !dbg !5847
L..inline.72274:
	%2063 = bitcast [2 x i8]* @.S51775 to i8*, !dbg !5867
	%2064 = call i64  @strlen (i8*  %2063) nounwind, !dbg !5867
	%2065 = load %struct._ZSo*, %struct._ZSo** %..inline.addr.1330, align 8, !tbaa !5914, !dbg !5867
	%2066 = call %struct._ZSo*  @_ZSt16__ostream_insertIcSt11char_traitsIcEERSt13basic_ostreamIT_T0_ES6_PKS3_l (%struct._ZSo*  %2065, i8*  %2063, i64  %2064), !dbg !5867
	%2067 = bitcast %struct._ZSo*  %2066 to i8*, !dbg !5867
	%2068 = bitcast %struct._ZSo** %.Q0003.addr to i8**, !dbg !5867
	store i8*  %2067, i8**  %2068, align 8, !tbaa !5914, !dbg !5867
	br label %L..inline.72295
L..inline.72295:
	%2069 = load %struct._ZSo*, %struct._ZSo** %..inline.addr.1330, align 8, !tbaa !5914, !dbg !5868
	%2070 = bitcast %struct._ZSo*  %2069 to i8*, !dbg !5868
	%2071 = bitcast %struct._ZSo** %..inline.addr.1390 to i8**, !dbg !5868
	store i8*  %2070, i8**  %2071, align 8, !tbaa !5914, !dbg !5868
	%2072 = bitcast [17 x i8]* @.S51778 to i8*, !dbg !5846
	%2073 = icmp ne i8*  %2072,  null, !dbg !5846
	br i1  %2073, label %L..inline.72307, label %L.B1300, !dbg !5846
L.B1300:
	%2074 = load %struct._ZSo*, %struct._ZSo** %..inline.addr.1390, align 8, !tbaa !5914, !dbg !5847
	%2075 = bitcast %struct._ZSo*  %2074 to i8*, !dbg !5847
	%2076 = bitcast %struct._ZSo*  %2074 to i8**, !dbg !5847
	%2077 = load i8*, i8**  %2076, align 8, !tbaa !5914, !dbg !5847
	%2078 = getelementptr i8, i8*  %2077, i64 18446744073709551592, !dbg !5847
	%2079 = bitcast i8*  %2078 to i64*, !dbg !5847
	%2080 = load i64, i64*  %2079, align 8, !tbaa !5915, !dbg !5847
	%2081 = getelementptr i8, i8*  %2075, i64  %2080, !dbg !5847
	%2082 = bitcast %struct._ZSt9basic_iosIcSt11char_traitsIcEE** %..inline.addr.1400 to i8**, !dbg !5847
	store i8*  %2081, i8**  %2082, align 8, !tbaa !5914, !dbg !5847
	%2083 = bitcast %struct._ZSt9basic_iosIcSt11char_traitsIcEE** %..inline.addr.1410 to i8**, !dbg !5847
	store i8*  %2081, i8**  %2083, align 8, !tbaa !5914, !dbg !5847
	%2084 = load %struct._ZSt9basic_iosIcSt11char_traitsIcEE*, %struct._ZSt9basic_iosIcSt11char_traitsIcEE** %..inline.addr.1410, align 8, !tbaa !5914, !dbg !5847
	%2085 = bitcast %struct._ZSt9basic_iosIcSt11char_traitsIcEE*  %2084 to i8*, !dbg !5847
	%2086 = getelementptr i8, i8*  %2085, i64 32, !dbg !5847
	%2087 = bitcast i8*  %2086 to i32*, !dbg !5847
	%2088 = load i32, i32*  %2087, align 4, !tbaa !5915, !dbg !5847
	%2089 = or i32  %2088, 1, !dbg !5847
	%2090 = load %struct._ZSt9basic_iosIcSt11char_traitsIcEE*, %struct._ZSt9basic_iosIcSt11char_traitsIcEE** %..inline.addr.1400, align 8, !tbaa !5914, !dbg !5847
	call void  @_ZNSt9basic_iosIcSt11char_traitsIcEE5clearESt12_Ios_Iostate (%struct._ZSt9basic_iosIcSt11char_traitsIcEE*  %2090, i32  %2089), !dbg !5847
	br label %L..inline.72328, !dbg !5847
L..inline.72307:
	%2091 = bitcast [17 x i8]* @.S51778 to i8*, !dbg !5867
	%2092 = call i64  @strlen (i8*  %2091) nounwind, !dbg !5867
	%2093 = load %struct._ZSo*, %struct._ZSo** %..inline.addr.1390, align 8, !tbaa !5914, !dbg !5867
	%2094 = call %struct._ZSo*  @_ZSt16__ostream_insertIcSt11char_traitsIcEERSt13basic_ostreamIT_T0_ES6_PKS3_l (%struct._ZSo*  %2093, i8*  %2091, i64  %2092), !dbg !5867
	%2095 = bitcast %struct._ZSo*  %2094 to i8*, !dbg !5867
	%2096 = bitcast %struct._ZSo** %.Q0004.addr to i8**, !dbg !5867
	store i8*  %2095, i8**  %2096, align 8, !tbaa !5914, !dbg !5867
	br label %L..inline.72328
L..inline.72328:
	%2097 = load %struct._ZSo*, %struct._ZSo** %..inline.addr.1390, align 8, !tbaa !5914, !dbg !5868
	%2098 = bitcast %struct._ZSo*  %2097 to i8*, !dbg !5868
	%2099 = bitcast %struct._ZSo** %..inline.addr.1450 to i8**, !dbg !5868
	store i8*  %2098, i8**  %2099, align 8, !tbaa !5914, !dbg !5868
	%2100 = load %struct._ZSo*, %struct._ZSo** %..inline.addr.1450, align 8, !tbaa !5914, !dbg !5869
	%2101 = call %struct._ZSo*  @_ZSt4endlIcSt11char_traitsIcEERSt13basic_ostreamIT_T0_ES6_ (%struct._ZSo*  %2100), !dbg !5869
	%2102 = bitcast %struct._ZSo*  %2101 to i8*, !dbg !5869
	%2103 = bitcast %struct._ZSo** %.Q0005.addr to i8**, !dbg !5869
	store i8*  %2102, i8**  %2103, align 8, !tbaa !5914, !dbg !5869
	call void  @abort () nounwind noreturn, !dbg !5870
	br label %L_T22020808_50509
L_T22020808_50509:
	br label %L.B0000
L.B0000:
	%2104 = load i8, i8* %doY.addr, align 1, !tbaa !5915, !dbg !5871
	%2105 = sext i8  %2104 to i32, !dbg !5871
	%2106 = icmp eq i32  %2105, 0, !dbg !5871
	br i1  %2106, label %L.B0006, label %L.B1301, !dbg !5871
L.B1301:
	%2107 = load i32*, i32** %RKCase.addr, align 8, !tbaa !5914, !dbg !5872
	%2108 = load i32, i32*  %2107, align 4, !tbaa !5915, !dbg !5872
	%2109 = icmp eq i32  %2108, 0, !dbg !5872
	br i1  %2109, label %L.B0007, label %L.B1302, !dbg !5872
L.B1302:
	%2110 = icmp eq i32  %2108, 1, !dbg !5872
	br i1  %2110, label %L.B0008, label %L.B1303, !dbg !5872
L.B1303:
	%2111 = icmp ne i32  %2108, 2, !dbg !5872
	br i1  %2111, label %L.B0010, label %L.B0009, !dbg !5872
L.B0009:
	%2112 = load %struct._Z6FsGridISt5arrayIdLm3EELi2EE*, %struct._Z6FsGridISt5arrayIdLm3EELi2EE** %EDt2Grid.addr, align 8, !tbaa !5914, !dbg !5873
	%2113 = load i32, i32* %i.addr, align 4, !tbaa !5919, !dbg !5873
	%2114 = load i32, i32* %j.addr, align 4, !tbaa !5919, !dbg !5873
	%2115 = load i32, i32* %k.addr, align 4, !tbaa !5919, !dbg !5873
	%2116 = call %struct._ZSt5arrayIdLm3EE*  @_ZN6FsGridISt5arrayIdLm3EELi2EE3getEiii (%struct._Z6FsGridISt5arrayIdLm3EELi2EE*  %2112, i32  %2113, i32  %2114, i32  %2115), !dbg !5873
	%2117 = bitcast %struct._ZSt5arrayIdLm3EE*  %2116 to i8*, !dbg !5873
	%2118 = bitcast %struct._ZSt5arrayIdLm3EE** %.Q0021.addr to i8**, !dbg !5873
	store i8*  %2117, i8**  %2118, align 8, !tbaa !5914, !dbg !5873
	%2119 = load %struct._ZSt5arrayIdLm3EE*, %struct._ZSt5arrayIdLm3EE** %.Q0021.addr, align 8, !tbaa !5914, !dbg !5873
	%2120 = bitcast %struct._ZSt5arrayIdLm3EE*  %2119 to i8*, !dbg !5873
	%2121 = bitcast %struct._ZSt5arrayIdLm3EE** %EGrid0.addr to i8**, !dbg !5873
	store i8*  %2120, i8**  %2121, align 8, !tbaa !5914, !dbg !5873
	%2122 = load %struct._Z6FsGridISt5arrayIdLm3EELi2EE*, %struct._Z6FsGridISt5arrayIdLm3EELi2EE** %EDt2Grid.addr, align 8, !tbaa !5914, !dbg !5874
	%2123 = load i32, i32* %i.addr, align 4, !tbaa !5919, !dbg !5874
	%2124 = load i32, i32* %j.addr, align 4, !tbaa !5919, !dbg !5874
	%2125 = load i32, i32* %k.addr, align 4, !tbaa !5919, !dbg !5874
	%2126 = add i32  %2125, 1, !dbg !5874
	%2127 = call %struct._ZSt5arrayIdLm3EE*  @_ZN6FsGridISt5arrayIdLm3EELi2EE3getEiii (%struct._Z6FsGridISt5arrayIdLm3EELi2EE*  %2122, i32  %2123, i32  %2124, i32  %2126), !dbg !5874
	%2128 = bitcast %struct._ZSt5arrayIdLm3EE*  %2127 to i8*, !dbg !5874
	%2129 = bitcast %struct._ZSt5arrayIdLm3EE** %.Q0022.addr to i8**, !dbg !5874
	store i8*  %2128, i8**  %2129, align 8, !tbaa !5914, !dbg !5874
	%2130 = load %struct._ZSt5arrayIdLm3EE*, %struct._ZSt5arrayIdLm3EE** %.Q0022.addr, align 8, !tbaa !5914, !dbg !5874
	%2131 = bitcast %struct._ZSt5arrayIdLm3EE*  %2130 to i8*, !dbg !5874
	%2132 = bitcast %struct._ZSt5arrayIdLm3EE** %EGrid1.addr to i8**, !dbg !5874
	store i8*  %2131, i8**  %2132, align 8, !tbaa !5914, !dbg !5874
	%2133 = load %struct._Z6FsGridISt5arrayIdLm3EELi2EE*, %struct._Z6FsGridISt5arrayIdLm3EELi2EE** %EDt2Grid.addr, align 8, !tbaa !5914, !dbg !5875
	%2134 = load i32, i32* %i.addr, align 4, !tbaa !5919, !dbg !5875
	%2135 = add i32  %2134, 1, !dbg !5875
	%2136 = load i32, i32* %j.addr, align 4, !tbaa !5919, !dbg !5875
	%2137 = load i32, i32* %k.addr, align 4, !tbaa !5919, !dbg !5875
	%2138 = call %struct._ZSt5arrayIdLm3EE*  @_ZN6FsGridISt5arrayIdLm3EELi2EE3getEiii (%struct._Z6FsGridISt5arrayIdLm3EELi2EE*  %2133, i32  %2135, i32  %2136, i32  %2137), !dbg !5875
	%2139 = bitcast %struct._ZSt5arrayIdLm3EE*  %2138 to i8*, !dbg !5875
	%2140 = bitcast %struct._ZSt5arrayIdLm3EE** %.Q0023.addr to i8**, !dbg !5875
	store i8*  %2139, i8**  %2140, align 8, !tbaa !5914, !dbg !5875
	%2141 = load %struct._ZSt5arrayIdLm3EE*, %struct._ZSt5arrayIdLm3EE** %.Q0023.addr, align 8, !tbaa !5914, !dbg !5875
	%2142 = bitcast %struct._ZSt5arrayIdLm3EE*  %2141 to i8*, !dbg !5875
	call void @llvm.dbg.declare (metadata %struct._ZSt5arrayIdLm3EE** %EGrid2.addr, metadata !5876, metadata !5787), !dbg !3835
	%2143 = bitcast %struct._ZSt5arrayIdLm3EE** %EGrid2.addr to i8**, !dbg !5875
	store i8*  %2142, i8**  %2143, align 8, !tbaa !5914, !dbg !5875
	%2144 = load %struct._ZSt5arrayIdLm3EE*, %struct._ZSt5arrayIdLm3EE** %EGrid1.addr, align 8, !tbaa !5914, !dbg !5877
	%2145 = call double*  @_ZNSt5arrayIdLm3EE2atEm (%struct._ZSt5arrayIdLm3EE*  %2144, i64 0), !dbg !5877
	%2146 = bitcast double*  %2145 to i8*, !dbg !5877
	%2147 = bitcast double** %.Q0024.addr to i8**, !dbg !5877
	store i8*  %2146, i8**  %2147, align 8, !tbaa !5914, !dbg !5877
	%2148 = load %struct._ZSt5arrayIdLm3EE*, %struct._ZSt5arrayIdLm3EE** %EGrid0.addr, align 8, !tbaa !5914, !dbg !5877
	%2149 = call double*  @_ZNSt5arrayIdLm3EE2atEm (%struct._ZSt5arrayIdLm3EE*  %2148, i64 0), !dbg !5877
	%2150 = bitcast double*  %2149 to i8*, !dbg !5877
	%2151 = bitcast double** %.Q0025.addr to i8**, !dbg !5877
	store i8*  %2150, i8**  %2151, align 8, !tbaa !5914, !dbg !5877
	%2152 = load %struct._ZSt5arrayIdLm3EE*, %struct._ZSt5arrayIdLm3EE** %EGrid0.addr, align 8, !tbaa !5914, !dbg !5877
	%2153 = call double*  @_ZNSt5arrayIdLm3EE2atEm (%struct._ZSt5arrayIdLm3EE*  %2152, i64 2), !dbg !5877
	%2154 = bitcast double*  %2153 to i8*, !dbg !5877
	%2155 = bitcast double** %.Q0026.addr to i8**, !dbg !5877
	store i8*  %2154, i8**  %2155, align 8, !tbaa !5914, !dbg !5877
	%2156 = load %struct._ZSt5arrayIdLm3EE*, %struct._ZSt5arrayIdLm3EE** %EGrid2.addr, align 8, !tbaa !5914, !dbg !5877
	%2157 = call double*  @_ZNSt5arrayIdLm3EE2atEm (%struct._ZSt5arrayIdLm3EE*  %2156, i64 2), !dbg !5877
	%2158 = bitcast double*  %2157 to i8*, !dbg !5877
	%2159 = bitcast double** %.Q0027.addr to i8**, !dbg !5877
	store i8*  %2158, i8**  %2159, align 8, !tbaa !5914, !dbg !5877
	%2160 = load %struct._ZSt5arrayIdLm3EE*, %struct._ZSt5arrayIdLm3EE** %perBGrid0.addr, align 8, !tbaa !5914, !dbg !5877
	%2161 = call double*  @_ZNSt5arrayIdLm3EE2atEm (%struct._ZSt5arrayIdLm3EE*  %2160, i64 1), !dbg !5877
	%2162 = bitcast double*  %2161 to i8*, !dbg !5877
	%2163 = bitcast double** %.Q0028.addr to i8**, !dbg !5877
	store i8*  %2162, i8**  %2163, align 8, !tbaa !5914, !dbg !5877
	%2164 = load double*, double** %dt.addr, align 8, !tbaa !5914, !dbg !5877
	%2165 = load double, double*  %2164, align 8, !tbaa !5915, !dbg !5877
	%2166 = load double, double* %dz.addr, align 8, !tbaa !5917, !dbg !5877
	%2167 = fdiv double  1.00000000000000000E+0,  %2166, !dbg !5877
	%2168 = load double*, double** %.Q0025.addr, align 8, !tbaa !5914, !dbg !5877
	%2169 = load double, double*  %2168, align 8, !tbaa !5915, !dbg !5877
	%2170 = load double*, double** %.Q0024.addr, align 8, !tbaa !5914, !dbg !5877
	%2171 = load double, double*  %2170, align 8, !tbaa !5915, !dbg !5877
	%2172 = fsub double  %2169,  %2171, !dbg !5877
	%2173 = load double, double* %dx.addr, align 8, !tbaa !5917, !dbg !5877
	%2174 = fdiv double  1.00000000000000000E+0,  %2173, !dbg !5877
	%2175 = load double*, double** %.Q0027.addr, align 8, !tbaa !5914, !dbg !5877
	%2176 = load double, double*  %2175, align 8, !tbaa !5915, !dbg !5877
	%2177 = load double*, double** %.Q0026.addr, align 8, !tbaa !5914, !dbg !5877
	%2178 = load double, double*  %2177, align 8, !tbaa !5915, !dbg !5877
	%2179 = fsub double  %2176,  %2178, !dbg !5877
	%2180 = fmul double  %2174,  %2179, !dbg !5877
	%2181 = call double @llvm.fma.f64 (double  %2167, double  %2172, double  %2180), !dbg !5877
	%2182 = load double*, double** %.Q0028.addr, align 8, !tbaa !5914, !dbg !5877
	%2183 = load double, double*  %2182, align 8, !tbaa !5915, !dbg !5877
	%2184 = call double @llvm.fma.f64 (double  %2165, double  %2181, double  %2183), !dbg !5877
	store double  %2184, double*  %2182, align 8, !tbaa !5915, !dbg !5877
	br label %L_T22020928_50509, !dbg !5878
L.B0010:
	%2185 = bitcast [35 x i8]* @.S51773 to i8*, !dbg !5879
	%2186 = call %struct._ZSo*  @_ZStlsISt11char_traitsIcEERSt13basic_ostreamIcT_ES5_PKc (%struct._ZSo* @_ZSt4cerr, i8*  %2185), !dbg !5879
	%2187 = bitcast %struct._ZSo*  %2186 to i8*, !dbg !5879
	%2188 = bitcast %struct._ZSo** %.Q0029.addr to i8**, !dbg !5879
	store i8*  %2187, i8**  %2188, align 8, !tbaa !5914, !dbg !5879
	%2189 = load %struct._ZSo*, %struct._ZSo** %.Q0029.addr, align 8, !tbaa !5914, !dbg !5879
	%2190 = bitcast [2 x i8]* @.S51775 to i8*, !dbg !5879
	%2191 = call %struct._ZSo*  @_ZStlsISt11char_traitsIcEERSt13basic_ostreamIcT_ES5_PKc (%struct._ZSo*  %2189, i8*  %2190), !dbg !5879
	%2192 = bitcast %struct._ZSo*  %2191 to i8*, !dbg !5879
	%2193 = bitcast %struct._ZSo** %.Q0030.addr to i8**, !dbg !5879
	store i8*  %2192, i8**  %2193, align 8, !tbaa !5914, !dbg !5879
	%2194 = load %struct._ZSo*, %struct._ZSo** %.Q0030.addr, align 8, !tbaa !5914, !dbg !5879
	%2195 = call %struct._ZSo*  @_ZNSolsEi (%struct._ZSo*  %2194, i32 125), !dbg !5879
	%2196 = bitcast %struct._ZSo*  %2195 to i8*, !dbg !5879
	%2197 = bitcast %struct._ZSo** %.Q0031.addr to i8**, !dbg !5879
	store i8*  %2196, i8**  %2197, align 8, !tbaa !5914, !dbg !5879
	%2198 = load %struct._ZSo*, %struct._ZSo** %.Q0031.addr, align 8, !tbaa !5914, !dbg !5879
	%2199 = call %struct._ZSo*  @_ZStlsISt11char_traitsIcEERSt13basic_ostreamIcT_ES5_PKc (%struct._ZSo*  %2198, i8*  %2190), !dbg !5879
	%2200 = bitcast %struct._ZSo*  %2199 to i8*, !dbg !5879
	%2201 = bitcast %struct._ZSo** %.Q0032.addr to i8**, !dbg !5879
	store i8*  %2200, i8**  %2201, align 8, !tbaa !5914, !dbg !5879
	%2202 = load %struct._ZSo*, %struct._ZSo** %.Q0032.addr, align 8, !tbaa !5914, !dbg !5879
	%2203 = bitcast [17 x i8]* @.S51778 to i8*, !dbg !5879
	%2204 = call %struct._ZSo*  @_ZStlsISt11char_traitsIcEERSt13basic_ostreamIcT_ES5_PKc (%struct._ZSo*  %2202, i8*  %2203), !dbg !5879
	%2205 = bitcast %struct._ZSo*  %2204 to i8*, !dbg !5879
	%2206 = bitcast %struct._ZSo** %.Q0033.addr to i8**, !dbg !5879
	store i8*  %2205, i8**  %2206, align 8, !tbaa !5914, !dbg !5879
	%2207 = load %struct._ZSo*, %struct._ZSo** %.Q0033.addr, align 8, !tbaa !5914, !dbg !5879
	%2208 = call %struct._ZSo*  @_ZNSolsEPFRSoS_E (%struct._ZSo*  %2207, %struct._ZSo* (%struct._ZSo*)* @_ZSt4endlIcSt11char_traitsIcEERSt13basic_ostreamIT_T0_ES6_), !dbg !5879
	%2209 = bitcast %struct._ZSo*  %2208 to i8*, !dbg !5879
	%2210 = bitcast %struct._ZSo** %.Q0034.addr to i8**, !dbg !5879
	store i8*  %2209, i8**  %2210, align 8, !tbaa !5914, !dbg !5879
	call void  @abort () nounwind noreturn, !dbg !5880
	br label %L_T22020928_50509
L_T22020928_50509:
	br label %L.B0006
L.B0006:
	%2211 = load i8, i8* %doZ.addr, align 1, !tbaa !5915, !dbg !5881
	%2212 = sext i8  %2211 to i32, !dbg !5881
	%2213 = icmp eq i32  %2212, 0, !dbg !5881
	br i1  %2213, label %L.B0012, label %L.B1304, !dbg !5881
L.B1304:
	%2214 = load i32*, i32** %RKCase.addr, align 8, !tbaa !5914, !dbg !5882
	%2215 = load i32, i32*  %2214, align 4, !tbaa !5915, !dbg !5882
	%2216 = icmp eq i32  %2215, 0, !dbg !5882
	br i1  %2216, label %L.B0013, label %L.B1305, !dbg !5882
L.B1305:
	%2217 = icmp eq i32  %2215, 1, !dbg !5882
	br i1  %2217, label %L.B0014, label %L.B1306, !dbg !5882
L.B1306:
	%2218 = icmp ne i32  %2215, 2, !dbg !5882
	br i1  %2218, label %L.B0016, label %L.B0015, !dbg !5882
L.B0015:
	%2219 = load %struct._Z6FsGridISt5arrayIdLm3EELi2EE*, %struct._Z6FsGridISt5arrayIdLm3EELi2EE** %EDt2Grid.addr, align 8, !tbaa !5914, !dbg !5883
	%2220 = load i32, i32* %i.addr, align 4, !tbaa !5919, !dbg !5883
	%2221 = load i32, i32* %j.addr, align 4, !tbaa !5919, !dbg !5883
	%2222 = load i32, i32* %k.addr, align 4, !tbaa !5919, !dbg !5883
	%2223 = call %struct._ZSt5arrayIdLm3EE*  @_ZN6FsGridISt5arrayIdLm3EELi2EE3getEiii (%struct._Z6FsGridISt5arrayIdLm3EELi2EE*  %2219, i32  %2220, i32  %2221, i32  %2222), !dbg !5883
	%2224 = bitcast %struct._ZSt5arrayIdLm3EE*  %2223 to i8*, !dbg !5883
	%2225 = bitcast %struct._ZSt5arrayIdLm3EE** %.Q0053.addr to i8**, !dbg !5883
	store i8*  %2224, i8**  %2225, align 8, !tbaa !5914, !dbg !5883
	%2226 = load %struct._ZSt5arrayIdLm3EE*, %struct._ZSt5arrayIdLm3EE** %.Q0053.addr, align 8, !tbaa !5914, !dbg !5883
	%2227 = bitcast %struct._ZSt5arrayIdLm3EE*  %2226 to i8*, !dbg !5883
	%2228 = bitcast %struct._ZSt5arrayIdLm3EE** %EGrid0.addr to i8**, !dbg !5883
	store i8*  %2227, i8**  %2228, align 8, !tbaa !5914, !dbg !5883
	%2229 = load %struct._Z6FsGridISt5arrayIdLm3EELi2EE*, %struct._Z6FsGridISt5arrayIdLm3EELi2EE** %EDt2Grid.addr, align 8, !tbaa !5914, !dbg !5884
	%2230 = load i32, i32* %i.addr, align 4, !tbaa !5919, !dbg !5884
	%2231 = add i32  %2230, 1, !dbg !5884
	%2232 = load i32, i32* %j.addr, align 4, !tbaa !5919, !dbg !5884
	%2233 = load i32, i32* %k.addr, align 4, !tbaa !5919, !dbg !5884
	%2234 = call %struct._ZSt5arrayIdLm3EE*  @_ZN6FsGridISt5arrayIdLm3EELi2EE3getEiii (%struct._Z6FsGridISt5arrayIdLm3EELi2EE*  %2229, i32  %2231, i32  %2232, i32  %2233), !dbg !5884
	%2235 = bitcast %struct._ZSt5arrayIdLm3EE*  %2234 to i8*, !dbg !5884
	%2236 = bitcast %struct._ZSt5arrayIdLm3EE** %.Q0054.addr to i8**, !dbg !5884
	store i8*  %2235, i8**  %2236, align 8, !tbaa !5914, !dbg !5884
	%2237 = load %struct._ZSt5arrayIdLm3EE*, %struct._ZSt5arrayIdLm3EE** %.Q0054.addr, align 8, !tbaa !5914, !dbg !5884
	%2238 = bitcast %struct._ZSt5arrayIdLm3EE*  %2237 to i8*, !dbg !5884
	%2239 = bitcast %struct._ZSt5arrayIdLm3EE** %EGrid1.addr to i8**, !dbg !5884
	store i8*  %2238, i8**  %2239, align 8, !tbaa !5914, !dbg !5884
	%2240 = load %struct._Z6FsGridISt5arrayIdLm3EELi2EE*, %struct._Z6FsGridISt5arrayIdLm3EELi2EE** %EDt2Grid.addr, align 8, !tbaa !5914, !dbg !5885
	%2241 = load i32, i32* %i.addr, align 4, !tbaa !5919, !dbg !5885
	%2242 = load i32, i32* %j.addr, align 4, !tbaa !5919, !dbg !5885
	%2243 = add i32  %2242, 1, !dbg !5885
	%2244 = load i32, i32* %k.addr, align 4, !tbaa !5919, !dbg !5885
	%2245 = call %struct._ZSt5arrayIdLm3EE*  @_ZN6FsGridISt5arrayIdLm3EELi2EE3getEiii (%struct._Z6FsGridISt5arrayIdLm3EELi2EE*  %2240, i32  %2241, i32  %2243, i32  %2244), !dbg !5885
	%2246 = bitcast %struct._ZSt5arrayIdLm3EE*  %2245 to i8*, !dbg !5885
	%2247 = bitcast %struct._ZSt5arrayIdLm3EE** %.Q0055.addr to i8**, !dbg !5885
	store i8*  %2246, i8**  %2247, align 8, !tbaa !5914, !dbg !5885
	%2248 = load %struct._ZSt5arrayIdLm3EE*, %struct._ZSt5arrayIdLm3EE** %.Q0055.addr, align 8, !tbaa !5914, !dbg !5885
	%2249 = bitcast %struct._ZSt5arrayIdLm3EE*  %2248 to i8*, !dbg !5885
	%2250 = bitcast %struct._ZSt5arrayIdLm3EE** %EGrid2.addr to i8**, !dbg !5885
	store i8*  %2249, i8**  %2250, align 8, !tbaa !5914, !dbg !5885
	%2251 = load %struct._ZSt5arrayIdLm3EE*, %struct._ZSt5arrayIdLm3EE** %EGrid1.addr, align 8, !tbaa !5914, !dbg !5886
	%2252 = call double*  @_ZNSt5arrayIdLm3EE2atEm (%struct._ZSt5arrayIdLm3EE*  %2251, i64 1), !dbg !5886
	%2253 = bitcast double*  %2252 to i8*, !dbg !5886
	%2254 = bitcast double** %.Q0056.addr to i8**, !dbg !5886
	store i8*  %2253, i8**  %2254, align 8, !tbaa !5914, !dbg !5886
	%2255 = load %struct._ZSt5arrayIdLm3EE*, %struct._ZSt5arrayIdLm3EE** %EGrid0.addr, align 8, !tbaa !5914, !dbg !5886
	%2256 = call double*  @_ZNSt5arrayIdLm3EE2atEm (%struct._ZSt5arrayIdLm3EE*  %2255, i64 1), !dbg !5886
	%2257 = bitcast double*  %2256 to i8*, !dbg !5886
	%2258 = bitcast double** %.Q0057.addr to i8**, !dbg !5886
	store i8*  %2257, i8**  %2258, align 8, !tbaa !5914, !dbg !5886
	%2259 = load %struct._ZSt5arrayIdLm3EE*, %struct._ZSt5arrayIdLm3EE** %EGrid0.addr, align 8, !tbaa !5914, !dbg !5886
	%2260 = call double*  @_ZNSt5arrayIdLm3EE2atEm (%struct._ZSt5arrayIdLm3EE*  %2259, i64 0), !dbg !5886
	%2261 = bitcast double*  %2260 to i8*, !dbg !5886
	%2262 = bitcast double** %.Q0058.addr to i8**, !dbg !5886
	store i8*  %2261, i8**  %2262, align 8, !tbaa !5914, !dbg !5886
	%2263 = load %struct._ZSt5arrayIdLm3EE*, %struct._ZSt5arrayIdLm3EE** %EGrid2.addr, align 8, !tbaa !5914, !dbg !5886
	%2264 = call double*  @_ZNSt5arrayIdLm3EE2atEm (%struct._ZSt5arrayIdLm3EE*  %2263, i64 0), !dbg !5886
	%2265 = bitcast double*  %2264 to i8*, !dbg !5886
	%2266 = bitcast double** %.Q0059.addr to i8**, !dbg !5886
	store i8*  %2265, i8**  %2266, align 8, !tbaa !5914, !dbg !5886
	%2267 = load %struct._ZSt5arrayIdLm3EE*, %struct._ZSt5arrayIdLm3EE** %perBGrid0.addr, align 8, !tbaa !5914, !dbg !5886
	%2268 = call double*  @_ZNSt5arrayIdLm3EE2atEm (%struct._ZSt5arrayIdLm3EE*  %2267, i64 2), !dbg !5886
	%2269 = bitcast double*  %2268 to i8*, !dbg !5886
	%2270 = bitcast double** %.Q0060.addr to i8**, !dbg !5886
	store i8*  %2269, i8**  %2270, align 8, !tbaa !5914, !dbg !5886
	%2271 = load double*, double** %dt.addr, align 8, !tbaa !5914, !dbg !5886
	%2272 = load double, double*  %2271, align 8, !tbaa !5915, !dbg !5886
	%2273 = load double, double* %dx.addr, align 8, !tbaa !5917, !dbg !5886
	%2274 = fdiv double  1.00000000000000000E+0,  %2273, !dbg !5886
	%2275 = load double*, double** %.Q0057.addr, align 8, !tbaa !5914, !dbg !5886
	%2276 = load double, double*  %2275, align 8, !tbaa !5915, !dbg !5886
	%2277 = load double*, double** %.Q0056.addr, align 8, !tbaa !5914, !dbg !5886
	%2278 = load double, double*  %2277, align 8, !tbaa !5915, !dbg !5886
	%2279 = fsub double  %2276,  %2278, !dbg !5886
	%2280 = load double, double* %dy.addr, align 8, !tbaa !5917, !dbg !5886
	%2281 = fdiv double  1.00000000000000000E+0,  %2280, !dbg !5886
	%2282 = load double*, double** %.Q0059.addr, align 8, !tbaa !5914, !dbg !5886
	%2283 = load double, double*  %2282, align 8, !tbaa !5915, !dbg !5886
	%2284 = load double*, double** %.Q0058.addr, align 8, !tbaa !5914, !dbg !5886
	%2285 = load double, double*  %2284, align 8, !tbaa !5915, !dbg !5886
	%2286 = fsub double  %2283,  %2285, !dbg !5886
	%2287 = fmul double  %2281,  %2286, !dbg !5886
	%2288 = call double @llvm.fma.f64 (double  %2274, double  %2279, double  %2287), !dbg !5886
	%2289 = load double*, double** %.Q0060.addr, align 8, !tbaa !5914, !dbg !5886
	%2290 = load double, double*  %2289, align 8, !tbaa !5915, !dbg !5886
	%2291 = call double @llvm.fma.f64 (double  %2272, double  %2288, double  %2290), !dbg !5886
	store double  %2291, double*  %2289, align 8, !tbaa !5915, !dbg !5886
	br label %L_T22021048_50509, !dbg !5887
L.B0007:
	%2292 = load %struct._Z6FsGridISt5arrayIdLm3EELi2EE*, %struct._Z6FsGridISt5arrayIdLm3EELi2EE** %EGrid.addr, align 8, !tbaa !5914, !dbg !5888
	%2293 = bitcast %struct._Z6FsGridISt5arrayIdLm3EELi2EE*  %2292 to i8*, !dbg !5888
	%2294 = bitcast %struct._Z6FsGridISt5arrayIdLm3EELi2EE** %..inline.addr.1700 to i8**, !dbg !5888
	store i8*  %2293, i8**  %2294, align 8, !tbaa !5914, !dbg !5888
	%2295 = load i32, i32* %i.addr, align 4, !tbaa !5919, !dbg !5888
	store i32  %2295, i32* %..inline.addr.1710, align 4, !tbaa !5919, !dbg !5888
	%2296 = load i32, i32* %j.addr, align 4, !tbaa !5919, !dbg !5888
	store i32  %2296, i32* %..inline.addr.1720, align 4, !tbaa !5919, !dbg !5888
	%2297 = load i32, i32* %k.addr, align 4, !tbaa !5919, !dbg !5888
	store i32  %2297, i32* %..inline.addr.1730, align 4, !tbaa !5919, !dbg !5888
	store i32 13, i32* %..inline.addr.1740, align 4, !tbaa !5919, !dbg !5888
	%2298 = bitcast [3 x i32]* %..inline.addr.1750 to i32*, !dbg !5818
	store i32 0, i32*  %2298, align 4, !tbaa !5915, !dbg !5818
	%2299 = bitcast [3 x i32]* %..inline.addr.1750 to i8*, !dbg !5819
	%2300 = getelementptr i8, i8*  %2299, i64 4, !dbg !5819
	%2301 = bitcast i8*  %2300 to i32*, !dbg !5819
	store i32 0, i32*  %2301, align 4, !tbaa !5915, !dbg !5819
	%2302 = getelementptr i8, i8*  %2299, i64 8, !dbg !5819
	%2303 = bitcast i8*  %2302 to i32*, !dbg !5819
	store i32 0, i32*  %2303, align 4, !tbaa !5915, !dbg !5819
	%2304 = icmp sge i32  %2295, 0, !dbg !5819
	br i1  %2304, label %L..inline.72353, label %L.B1307, !dbg !5819
L.B1307:
	store i32 4, i32* %..inline.addr.1740, align 4, !tbaa !5919, !dbg !5820
	%2305 = bitcast [3 x i32]* %..inline.addr.1750 to i32*, !dbg !5821
	store i32 1, i32*  %2305, align 4, !tbaa !5915, !dbg !5821
	br label %L..inline.72353
L..inline.72353:
	%2306 = load i32, i32* %..inline.addr.1710, align 4, !tbaa !5919, !dbg !5822
	%2307 = load %struct._Z6FsGridISt5arrayIdLm3EELi2EE*, %struct._Z6FsGridISt5arrayIdLm3EELi2EE** %..inline.addr.1700, align 8, !tbaa !5914, !dbg !5822
	%2308 = bitcast %struct._Z6FsGridISt5arrayIdLm3EELi2EE*  %2307 to i8*, !dbg !5822
	%2309 = getelementptr i8, i8*  %2308, i64 264, !dbg !5822
	%2310 = bitcast i8*  %2309 to i32*, !dbg !5822
	%2311 = load i32, i32*  %2310, align 4, !tbaa !5915, !dbg !5822
	%2312 = icmp slt i32  %2306,  %2311, !dbg !5822
	br i1  %2312, label %L..inline.72371, label %L.B1308, !dbg !5822
L.B1308:
	%2313 = load i32, i32* %..inline.addr.1740, align 4, !tbaa !5919, !dbg !5822
	%2314 = add i32  %2313, 9, !dbg !5822
	store i32  %2314, i32* %..inline.addr.1740, align 4, !tbaa !5919, !dbg !5822
	%2315 = bitcast [3 x i32]* %..inline.addr.1750 to i32*, !dbg !5823
	store i32 -1, i32*  %2315, align 4, !tbaa !5915, !dbg !5823
	br label %L..inline.72371
L..inline.72371:
	%2316 = load i32, i32* %..inline.addr.1720, align 4, !tbaa !5919, !dbg !5824
	%2317 = icmp sge i32  %2316, 0, !dbg !5824
	br i1  %2317, label %L..inline.72373, label %L.B1309, !dbg !5824
L.B1309:
	%2318 = load i32, i32* %..inline.addr.1740, align 4, !tbaa !5919, !dbg !5824
	%2319 = sub i32  %2318, 3, !dbg !5824
	store i32  %2319, i32* %..inline.addr.1740, align 4, !tbaa !5919, !dbg !5824
	%2320 = bitcast [3 x i32]* %..inline.addr.1750 to i8*, !dbg !5825
	%2321 = getelementptr i8, i8*  %2320, i64 4, !dbg !5825
	%2322 = bitcast i8*  %2321 to i32*, !dbg !5825
	store i32 1, i32*  %2322, align 4, !tbaa !5915, !dbg !5825
	br label %L..inline.72373
L..inline.72373:
	%2323 = load i32, i32* %..inline.addr.1720, align 4, !tbaa !5919, !dbg !5826
	%2324 = load %struct._Z6FsGridISt5arrayIdLm3EELi2EE*, %struct._Z6FsGridISt5arrayIdLm3EELi2EE** %..inline.addr.1700, align 8, !tbaa !5914, !dbg !5826
	%2325 = bitcast %struct._Z6FsGridISt5arrayIdLm3EELi2EE*  %2324 to i8*, !dbg !5826
	%2326 = getelementptr i8, i8*  %2325, i64 268, !dbg !5826
	%2327 = bitcast i8*  %2326 to i32*, !dbg !5826
	%2328 = load i32, i32*  %2327, align 4, !tbaa !5915, !dbg !5826
	%2329 = icmp slt i32  %2323,  %2328, !dbg !5826
	br i1  %2329, label %L..inline.72390, label %L.B1310, !dbg !5826
L.B1310:
	%2330 = load i32, i32* %..inline.addr.1740, align 4, !tbaa !5919, !dbg !5826
	%2331 = add i32  %2330, 3, !dbg !5826
	store i32  %2331, i32* %..inline.addr.1740, align 4, !tbaa !5919, !dbg !5826
	%2332 = bitcast [3 x i32]* %..inline.addr.1750 to i8*, !dbg !5827
	%2333 = getelementptr i8, i8*  %2332, i64 4, !dbg !5827
	%2334 = bitcast i8*  %2333 to i32*, !dbg !5827
	store i32 -1, i32*  %2334, align 4, !tbaa !5915, !dbg !5827
	br label %L..inline.72390
L..inline.72390:
	%2335 = load i32, i32* %..inline.addr.1730, align 4, !tbaa !5919, !dbg !5828
	%2336 = icmp sge i32  %2335, 0, !dbg !5828
	br i1  %2336, label %L..inline.72392, label %L.B1311, !dbg !5828
L.B1311:
	%2337 = load i32, i32* %..inline.addr.1740, align 4, !tbaa !5919, !dbg !5828
	%2338 = sub i32  %2337, 1, !dbg !5828
	store i32  %2338, i32* %..inline.addr.1740, align 4, !tbaa !5919, !dbg !5828
	%2339 = bitcast [3 x i32]* %..inline.addr.1750 to i8*, !dbg !5829
	%2340 = getelementptr i8, i8*  %2339, i64 8, !dbg !5829
	%2341 = bitcast i8*  %2340 to i32*, !dbg !5829
	store i32 1, i32*  %2341, align 4, !tbaa !5915, !dbg !5829
	br label %L..inline.72392
L..inline.72392:
	%2342 = load i32, i32* %..inline.addr.1730, align 4, !tbaa !5919, !dbg !5830
	%2343 = load %struct._Z6FsGridISt5arrayIdLm3EELi2EE*, %struct._Z6FsGridISt5arrayIdLm3EELi2EE** %..inline.addr.1700, align 8, !tbaa !5914, !dbg !5830
	%2344 = bitcast %struct._Z6FsGridISt5arrayIdLm3EELi2EE*  %2343 to i8*, !dbg !5830
	%2345 = getelementptr i8, i8*  %2344, i64 272, !dbg !5830
	%2346 = bitcast i8*  %2345 to i32*, !dbg !5830
	%2347 = load i32, i32*  %2346, align 4, !tbaa !5915, !dbg !5830
	%2348 = icmp slt i32  %2342,  %2347, !dbg !5830
	br i1  %2348, label %L..inline.72409, label %L.B1312, !dbg !5830
L.B1312:
	%2349 = load i32, i32* %..inline.addr.1740, align 4, !tbaa !5919, !dbg !5830
	%2350 = add i32  %2349, 1, !dbg !5830
	store i32  %2350, i32* %..inline.addr.1740, align 4, !tbaa !5919, !dbg !5830
	%2351 = bitcast [3 x i32]* %..inline.addr.1750 to i8*, !dbg !5831
	%2352 = getelementptr i8, i8*  %2351, i64 8, !dbg !5831
	%2353 = bitcast i8*  %2352 to i32*, !dbg !5831
	store i32 -1, i32*  %2353, align 4, !tbaa !5915, !dbg !5831
	br label %L..inline.72409
L..inline.72409:
	%2354 = load i32, i32* %..inline.addr.1740, align 4, !tbaa !5919, !dbg !5832
	%2355 = icmp eq i32  %2354, 13, !dbg !5832
	br i1  %2355, label %L..inline.72410, label %L.B1313, !dbg !5832
L.B1313:
	%2356 = sext i32  %2354 to i64, !dbg !5833
	%2357 = load %struct._Z6FsGridISt5arrayIdLm3EELi2EE*, %struct._Z6FsGridISt5arrayIdLm3EELi2EE** %..inline.addr.1700, align 8, !tbaa !5914, !dbg !5833
	%2358 = bitcast %struct._Z6FsGridISt5arrayIdLm3EELi2EE*  %2357 to i8*, !dbg !5833
	%2359 = getelementptr i8, i8*  %2358, i64 92, !dbg !5833
	%2360 = bitcast i8*  %2359 to i32*, !dbg !5833
	%2361 = getelementptr i32, i32*  %2360, i64  %2356, !dbg !5833
	%2362 = load i32, i32*  %2361, align 4, !tbaa !5915, !dbg !5833
	%2363 = icmp ne i32  %2362, -2, !dbg !5833
	br i1  %2363, label %L..inline.72427, label %L.B1314, !dbg !5833
L.B1314:
	%2364 = bitcast %struct._ZSt5arrayIdLm3EE** %..inline.addr.1760 to i8**, !dbg !5833
	store i8* null, i8**  %2364, align 8, !tbaa !5914, !dbg !5833
	br label %L..inline.72614, !dbg !5834
L..inline.72427:
	%2365 = load i32, i32* %..inline.addr.1740, align 4, !tbaa !5919, !dbg !5835
	%2366 = sext i32  %2365 to i64, !dbg !5835
	%2367 = load %struct._Z6FsGridISt5arrayIdLm3EELi2EE*, %struct._Z6FsGridISt5arrayIdLm3EELi2EE** %..inline.addr.1700, align 8, !tbaa !5914, !dbg !5835
	%2368 = bitcast %struct._Z6FsGridISt5arrayIdLm3EELi2EE*  %2367 to i8*, !dbg !5835
	%2369 = getelementptr i8, i8*  %2368, i64 92, !dbg !5835
	%2370 = bitcast i8*  %2369 to i32*, !dbg !5835
	%2371 = getelementptr i32, i32*  %2370, i64  %2366, !dbg !5835
	%2372 = load i32, i32*  %2371, align 4, !tbaa !5915, !dbg !5835
	%2373 = getelementptr i8, i8*  %2368, i64 56, !dbg !5835
	%2374 = bitcast i8*  %2373 to i32*, !dbg !5835
	%2375 = load i32, i32*  %2374, align 4, !tbaa !5915, !dbg !5835
	%2376 = icmp ne i32  %2372,  %2375, !dbg !5835
	br i1  %2376, label %L..inline.72445, label %L.B1315, !dbg !5835
L.B1315:
	%2377 = load i32, i32* %..inline.addr.1710, align 4, !tbaa !5919, !dbg !5836
	%2378 = bitcast [3 x i32]* %..inline.addr.1750 to i32*, !dbg !5836
	%2379 = load i32, i32*  %2378, align 4, !tbaa !5915, !dbg !5836
	%2380 = bitcast %struct._Z6FsGridISt5arrayIdLm3EELi2EE*  %2367 to i8*, !dbg !5836
	%2381 = getelementptr i8, i8*  %2380, i64 264, !dbg !5836
	%2382 = bitcast i8*  %2381 to i32*, !dbg !5836
	%2383 = load i32, i32*  %2382, align 4, !tbaa !5915, !dbg !5836
	%2384 = mul i32  %2379,  %2383, !dbg !5836
	%2385 = add i32  %2377,  %2384, !dbg !5836
	store i32  %2385, i32* %..inline.addr.1710, align 4, !tbaa !5919, !dbg !5836
	%2386 = load i32, i32* %..inline.addr.1720, align 4, !tbaa !5919, !dbg !5837
	%2387 = bitcast [3 x i32]* %..inline.addr.1750 to i8*, !dbg !5837
	%2388 = getelementptr i8, i8*  %2387, i64 4, !dbg !5837
	%2389 = bitcast i8*  %2388 to i32*, !dbg !5837
	%2390 = load i32, i32*  %2389, align 4, !tbaa !5915, !dbg !5837
	%2391 = getelementptr i8, i8*  %2380, i64 268, !dbg !5837
	%2392 = bitcast i8*  %2391 to i32*, !dbg !5837
	%2393 = load i32, i32*  %2392, align 4, !tbaa !5915, !dbg !5837
	%2394 = mul i32  %2390,  %2393, !dbg !5837
	%2395 = add i32  %2386,  %2394, !dbg !5837
	store i32  %2395, i32* %..inline.addr.1720, align 4, !tbaa !5919, !dbg !5837
	%2396 = load i32, i32* %..inline.addr.1730, align 4, !tbaa !5919, !dbg !5838
	%2397 = getelementptr i8, i8*  %2387, i64 8, !dbg !5838
	%2398 = bitcast i8*  %2397 to i32*, !dbg !5838
	%2399 = load i32, i32*  %2398, align 4, !tbaa !5915, !dbg !5838
	%2400 = getelementptr i8, i8*  %2380, i64 272, !dbg !5838
	%2401 = bitcast i8*  %2400 to i32*, !dbg !5838
	%2402 = load i32, i32*  %2401, align 4, !tbaa !5915, !dbg !5838
	%2403 = mul i32  %2399,  %2402, !dbg !5838
	%2404 = add i32  %2396,  %2403, !dbg !5838
	store i32  %2404, i32* %..inline.addr.1730, align 4, !tbaa !5919, !dbg !5838
	br label %L..inline.72445
L..inline.72445:
	br label %L..inline.72410
L..inline.72410:
	store i64 0, i64* %..inline.addr.1770, align 8, !tbaa !5921, !dbg !5839
	%2405 = load %struct._Z6FsGridISt5arrayIdLm3EELi2EE*, %struct._Z6FsGridISt5arrayIdLm3EELi2EE** %..inline.addr.1700, align 8, !tbaa !5914, !dbg !5839
	%2406 = bitcast %struct._Z6FsGridISt5arrayIdLm3EELi2EE*  %2405 to i8*, !dbg !5839
	%2407 = getelementptr i8, i8*  %2406, i64 260, !dbg !5839
	%2408 = bitcast i8*  %2407 to i32*, !dbg !5839
	%2409 = load i32, i32*  %2408, align 4, !tbaa !5915, !dbg !5839
	%2410 = icmp sle i32  %2409, 1, !dbg !5839
	br i1  %2410, label %L..inline.72519, label %L.B1316, !dbg !5839
L.B1316:
	%2411 = load i32, i32* %..inline.addr.1730, align 4, !tbaa !5919, !dbg !5839
	%2412 = add i32  %2411, 2, !dbg !5839
	%2413 = bitcast %struct._Z6FsGridISt5arrayIdLm3EELi2EE*  %2405 to i8*, !dbg !5839
	%2414 = getelementptr i8, i8*  %2413, i64 280, !dbg !5839
	%2415 = bitcast i8*  %2414 to i32*, !dbg !5839
	%2416 = load i32, i32*  %2415, align 4, !tbaa !5915, !dbg !5839
	%2417 = getelementptr i8, i8*  %2413, i64 276, !dbg !5839
	%2418 = bitcast i8*  %2417 to i32*, !dbg !5839
	%2419 = load i32, i32*  %2418, align 4, !tbaa !5915, !dbg !5839
	%2420 = mul i32  %2416,  %2419, !dbg !5839
	%2421 = mul i32  %2412,  %2420, !dbg !5839
	%2422 = sext i32  %2421 to i64, !dbg !5839
	store i64  %2422, i64* %..inline.addr.1770, align 8, !tbaa !5921, !dbg !5839
	br label %L..inline.72519
L..inline.72519:
	%2423 = load %struct._Z6FsGridISt5arrayIdLm3EELi2EE*, %struct._Z6FsGridISt5arrayIdLm3EELi2EE** %..inline.addr.1700, align 8, !tbaa !5914, !dbg !5839
	%2424 = bitcast %struct._Z6FsGridISt5arrayIdLm3EELi2EE*  %2423 to i8*, !dbg !5839
	%2425 = getelementptr i8, i8*  %2424, i64 256, !dbg !5839
	%2426 = bitcast i8*  %2425 to i32*, !dbg !5839
	%2427 = load i32, i32*  %2426, align 4, !tbaa !5915, !dbg !5839
	%2428 = icmp sle i32  %2427, 1, !dbg !5839
	br i1  %2428, label %L..inline.72568, label %L.B1317, !dbg !5839
L.B1317:
	%2429 = load i64, i64* %..inline.addr.1770, align 8, !tbaa !5921, !dbg !5839
	%2430 = bitcast %struct._Z6FsGridISt5arrayIdLm3EELi2EE*  %2423 to i8*, !dbg !5839
	%2431 = getelementptr i8, i8*  %2430, i64 276, !dbg !5839
	%2432 = bitcast i8*  %2431 to i32*, !dbg !5839
	%2433 = load i32, i32*  %2432, align 4, !tbaa !5915, !dbg !5839
	%2434 = load i32, i32* %..inline.addr.1720, align 4, !tbaa !5919, !dbg !5839
	%2435 = add i32  %2434, 2, !dbg !5839
	%2436 = mul i32  %2433,  %2435, !dbg !5839
	%2437 = sext i32  %2436 to i64, !dbg !5839
	%2438 = add i64  %2429,  %2437, !dbg !5839
	store i64  %2438, i64* %..inline.addr.1770, align 8, !tbaa !5921, !dbg !5839
	br label %L..inline.72568
L..inline.72568:
	%2439 = load %struct._Z6FsGridISt5arrayIdLm3EELi2EE*, %struct._Z6FsGridISt5arrayIdLm3EELi2EE** %..inline.addr.1700, align 8, !tbaa !5914, !dbg !5839
	%2440 = bitcast %struct._Z6FsGridISt5arrayIdLm3EELi2EE*  %2439 to i8*, !dbg !5839
	%2441 = getelementptr i8, i8*  %2440, i64 252, !dbg !5839
	%2442 = bitcast i8*  %2441 to i32*, !dbg !5839
	%2443 = load i32, i32*  %2442, align 4, !tbaa !5915, !dbg !5839
	%2444 = icmp sle i32  %2443, 1, !dbg !5839
	%2445 = zext i1  %2444 to i32, !dbg !5839
	%2446 = trunc i32  %2445 to i1, !dbg !5839
	%2447 = load i64, i64* %..inline.addr.1770, align 8, !tbaa !5921, !dbg !5839
	%2448 = load i32, i32* %..inline.addr.1710, align 4, !tbaa !5919, !dbg !5839
	%2449 = sext i32  %2448 to i64, !dbg !5839
	%2450 = add i64  %2449, 2, !dbg !5839
	%2451 = add i64  %2447,  %2450, !dbg !5839
	%2452 = select i1  %2446, i64  %2447, i64  %2451, !dbg !5839
	%2453 = getelementptr i8, i8*  %2440, i64 744, !dbg !5840
	%2454 = bitcast i8*  %2453 to i8**, !dbg !5840
	%2455 = load i8*, i8**  %2454, align 8, !tbaa !5914, !dbg !5840
	%2456 = mul i64  %2452, 24, !dbg !5840
	%2457 = getelementptr i8, i8*  %2455, i64  %2456, !dbg !5840
	%2458 = bitcast %struct._ZSt5arrayIdLm3EE** %..inline.addr.1760 to i8**, !dbg !5840
	store i8*  %2457, i8**  %2458, align 8, !tbaa !5914, !dbg !5840
	br label %L..inline.72614
L..inline.72614:
	%2459 = load %struct._ZSt5arrayIdLm3EE*, %struct._ZSt5arrayIdLm3EE** %..inline.addr.1760, align 8, !tbaa !5914, !dbg !5841
	%2460 = bitcast %struct._ZSt5arrayIdLm3EE*  %2459 to i8*, !dbg !5841
	%2461 = bitcast %struct._ZSt5arrayIdLm3EE** %EGrid0.addr to i8**, !dbg !5841
	store i8*  %2460, i8**  %2461, align 8, !tbaa !5914, !dbg !5841
	%2462 = load %struct._Z6FsGridISt5arrayIdLm3EELi2EE*, %struct._Z6FsGridISt5arrayIdLm3EELi2EE** %EGrid.addr, align 8, !tbaa !5914, !dbg !5889
	%2463 = bitcast %struct._Z6FsGridISt5arrayIdLm3EELi2EE*  %2462 to i8*, !dbg !5889
	%2464 = bitcast %struct._Z6FsGridISt5arrayIdLm3EELi2EE** %..inline.addr.1780 to i8**, !dbg !5889
	store i8*  %2463, i8**  %2464, align 8, !tbaa !5914, !dbg !5889
	%2465 = load i32, i32* %i.addr, align 4, !tbaa !5919, !dbg !5889
	store i32  %2465, i32* %..inline.addr.1790, align 4, !tbaa !5919, !dbg !5889
	%2466 = load i32, i32* %j.addr, align 4, !tbaa !5919, !dbg !5889
	store i32  %2466, i32* %..inline.addr.1800, align 4, !tbaa !5919, !dbg !5889
	%2467 = load i32, i32* %k.addr, align 4, !tbaa !5919, !dbg !5889
	%2468 = add i32  %2467, 1, !dbg !5889
	store i32  %2468, i32* %..inline.addr.1810, align 4, !tbaa !5919, !dbg !5889
	store i32 13, i32* %..inline.addr.1820, align 4, !tbaa !5919, !dbg !5889
	%2469 = bitcast [3 x i32]* %..inline.addr.1830 to i32*, !dbg !5818
	store i32 0, i32*  %2469, align 4, !tbaa !5915, !dbg !5818
	%2470 = bitcast [3 x i32]* %..inline.addr.1830 to i8*, !dbg !5819
	%2471 = getelementptr i8, i8*  %2470, i64 4, !dbg !5819
	%2472 = bitcast i8*  %2471 to i32*, !dbg !5819
	store i32 0, i32*  %2472, align 4, !tbaa !5915, !dbg !5819
	%2473 = getelementptr i8, i8*  %2470, i64 8, !dbg !5819
	%2474 = bitcast i8*  %2473 to i32*, !dbg !5819
	store i32 0, i32*  %2474, align 4, !tbaa !5915, !dbg !5819
	%2475 = icmp sge i32  %2465, 0, !dbg !5819
	br i1  %2475, label %L..inline.72620, label %L.B1318, !dbg !5819
L.B1318:
	store i32 4, i32* %..inline.addr.1820, align 4, !tbaa !5919, !dbg !5820
	%2476 = bitcast [3 x i32]* %..inline.addr.1830 to i32*, !dbg !5821
	store i32 1, i32*  %2476, align 4, !tbaa !5915, !dbg !5821
	br label %L..inline.72620
L..inline.72620:
	%2477 = load i32, i32* %..inline.addr.1790, align 4, !tbaa !5919, !dbg !5822
	%2478 = load %struct._Z6FsGridISt5arrayIdLm3EELi2EE*, %struct._Z6FsGridISt5arrayIdLm3EELi2EE** %..inline.addr.1780, align 8, !tbaa !5914, !dbg !5822
	%2479 = bitcast %struct._Z6FsGridISt5arrayIdLm3EELi2EE*  %2478 to i8*, !dbg !5822
	%2480 = getelementptr i8, i8*  %2479, i64 264, !dbg !5822
	%2481 = bitcast i8*  %2480 to i32*, !dbg !5822
	%2482 = load i32, i32*  %2481, align 4, !tbaa !5915, !dbg !5822
	%2483 = icmp slt i32  %2477,  %2482, !dbg !5822
	br i1  %2483, label %L..inline.72638, label %L.B1319, !dbg !5822
L.B1319:
	%2484 = load i32, i32* %..inline.addr.1820, align 4, !tbaa !5919, !dbg !5822
	%2485 = add i32  %2484, 9, !dbg !5822
	store i32  %2485, i32* %..inline.addr.1820, align 4, !tbaa !5919, !dbg !5822
	%2486 = bitcast [3 x i32]* %..inline.addr.1830 to i32*, !dbg !5823
	store i32 -1, i32*  %2486, align 4, !tbaa !5915, !dbg !5823
	br label %L..inline.72638
L..inline.72638:
	%2487 = load i32, i32* %..inline.addr.1800, align 4, !tbaa !5919, !dbg !5824
	%2488 = icmp sge i32  %2487, 0, !dbg !5824
	br i1  %2488, label %L..inline.72640, label %L.B1320, !dbg !5824
L.B1320:
	%2489 = load i32, i32* %..inline.addr.1820, align 4, !tbaa !5919, !dbg !5824
	%2490 = sub i32  %2489, 3, !dbg !5824
	store i32  %2490, i32* %..inline.addr.1820, align 4, !tbaa !5919, !dbg !5824
	%2491 = bitcast [3 x i32]* %..inline.addr.1830 to i8*, !dbg !5825
	%2492 = getelementptr i8, i8*  %2491, i64 4, !dbg !5825
	%2493 = bitcast i8*  %2492 to i32*, !dbg !5825
	store i32 1, i32*  %2493, align 4, !tbaa !5915, !dbg !5825
	br label %L..inline.72640
L..inline.72640:
	%2494 = load i32, i32* %..inline.addr.1800, align 4, !tbaa !5919, !dbg !5826
	%2495 = load %struct._Z6FsGridISt5arrayIdLm3EELi2EE*, %struct._Z6FsGridISt5arrayIdLm3EELi2EE** %..inline.addr.1780, align 8, !tbaa !5914, !dbg !5826
	%2496 = bitcast %struct._Z6FsGridISt5arrayIdLm3EELi2EE*  %2495 to i8*, !dbg !5826
	%2497 = getelementptr i8, i8*  %2496, i64 268, !dbg !5826
	%2498 = bitcast i8*  %2497 to i32*, !dbg !5826
	%2499 = load i32, i32*  %2498, align 4, !tbaa !5915, !dbg !5826
	%2500 = icmp slt i32  %2494,  %2499, !dbg !5826
	br i1  %2500, label %L..inline.72657, label %L.B1321, !dbg !5826
L.B1321:
	%2501 = load i32, i32* %..inline.addr.1820, align 4, !tbaa !5919, !dbg !5826
	%2502 = add i32  %2501, 3, !dbg !5826
	store i32  %2502, i32* %..inline.addr.1820, align 4, !tbaa !5919, !dbg !5826
	%2503 = bitcast [3 x i32]* %..inline.addr.1830 to i8*, !dbg !5827
	%2504 = getelementptr i8, i8*  %2503, i64 4, !dbg !5827
	%2505 = bitcast i8*  %2504 to i32*, !dbg !5827
	store i32 -1, i32*  %2505, align 4, !tbaa !5915, !dbg !5827
	br label %L..inline.72657
L..inline.72657:
	%2506 = load i32, i32* %..inline.addr.1810, align 4, !tbaa !5919, !dbg !5828
	%2507 = icmp sge i32  %2506, 0, !dbg !5828
	br i1  %2507, label %L..inline.72659, label %L.B1322, !dbg !5828
L.B1322:
	%2508 = load i32, i32* %..inline.addr.1820, align 4, !tbaa !5919, !dbg !5828
	%2509 = sub i32  %2508, 1, !dbg !5828
	store i32  %2509, i32* %..inline.addr.1820, align 4, !tbaa !5919, !dbg !5828
	%2510 = bitcast [3 x i32]* %..inline.addr.1830 to i8*, !dbg !5829
	%2511 = getelementptr i8, i8*  %2510, i64 8, !dbg !5829
	%2512 = bitcast i8*  %2511 to i32*, !dbg !5829
	store i32 1, i32*  %2512, align 4, !tbaa !5915, !dbg !5829
	br label %L..inline.72659
L..inline.72659:
	%2513 = load i32, i32* %..inline.addr.1810, align 4, !tbaa !5919, !dbg !5830
	%2514 = load %struct._Z6FsGridISt5arrayIdLm3EELi2EE*, %struct._Z6FsGridISt5arrayIdLm3EELi2EE** %..inline.addr.1780, align 8, !tbaa !5914, !dbg !5830
	%2515 = bitcast %struct._Z6FsGridISt5arrayIdLm3EELi2EE*  %2514 to i8*, !dbg !5830
	%2516 = getelementptr i8, i8*  %2515, i64 272, !dbg !5830
	%2517 = bitcast i8*  %2516 to i32*, !dbg !5830
	%2518 = load i32, i32*  %2517, align 4, !tbaa !5915, !dbg !5830
	%2519 = icmp slt i32  %2513,  %2518, !dbg !5830
	br i1  %2519, label %L..inline.72676, label %L.B1323, !dbg !5830
L.B1323:
	%2520 = load i32, i32* %..inline.addr.1820, align 4, !tbaa !5919, !dbg !5830
	%2521 = add i32  %2520, 1, !dbg !5830
	store i32  %2521, i32* %..inline.addr.1820, align 4, !tbaa !5919, !dbg !5830
	%2522 = bitcast [3 x i32]* %..inline.addr.1830 to i8*, !dbg !5831
	%2523 = getelementptr i8, i8*  %2522, i64 8, !dbg !5831
	%2524 = bitcast i8*  %2523 to i32*, !dbg !5831
	store i32 -1, i32*  %2524, align 4, !tbaa !5915, !dbg !5831
	br label %L..inline.72676
L..inline.72676:
	%2525 = load i32, i32* %..inline.addr.1820, align 4, !tbaa !5919, !dbg !5832
	%2526 = icmp eq i32  %2525, 13, !dbg !5832
	br i1  %2526, label %L..inline.72677, label %L.B1324, !dbg !5832
L.B1324:
	%2527 = sext i32  %2525 to i64, !dbg !5833
	%2528 = load %struct._Z6FsGridISt5arrayIdLm3EELi2EE*, %struct._Z6FsGridISt5arrayIdLm3EELi2EE** %..inline.addr.1780, align 8, !tbaa !5914, !dbg !5833
	%2529 = bitcast %struct._Z6FsGridISt5arrayIdLm3EELi2EE*  %2528 to i8*, !dbg !5833
	%2530 = getelementptr i8, i8*  %2529, i64 92, !dbg !5833
	%2531 = bitcast i8*  %2530 to i32*, !dbg !5833
	%2532 = getelementptr i32, i32*  %2531, i64  %2527, !dbg !5833
	%2533 = load i32, i32*  %2532, align 4, !tbaa !5915, !dbg !5833
	%2534 = icmp ne i32  %2533, -2, !dbg !5833
	br i1  %2534, label %L..inline.72694, label %L.B1325, !dbg !5833
L.B1325:
	%2535 = bitcast %struct._ZSt5arrayIdLm3EE** %..inline.addr.1840 to i8**, !dbg !5833
	store i8* null, i8**  %2535, align 8, !tbaa !5914, !dbg !5833
	br label %L..inline.72881, !dbg !5834
L..inline.72694:
	%2536 = load i32, i32* %..inline.addr.1820, align 4, !tbaa !5919, !dbg !5835
	%2537 = sext i32  %2536 to i64, !dbg !5835
	%2538 = load %struct._Z6FsGridISt5arrayIdLm3EELi2EE*, %struct._Z6FsGridISt5arrayIdLm3EELi2EE** %..inline.addr.1780, align 8, !tbaa !5914, !dbg !5835
	%2539 = bitcast %struct._Z6FsGridISt5arrayIdLm3EELi2EE*  %2538 to i8*, !dbg !5835
	%2540 = getelementptr i8, i8*  %2539, i64 92, !dbg !5835
	%2541 = bitcast i8*  %2540 to i32*, !dbg !5835
	%2542 = getelementptr i32, i32*  %2541, i64  %2537, !dbg !5835
	%2543 = load i32, i32*  %2542, align 4, !tbaa !5915, !dbg !5835
	%2544 = getelementptr i8, i8*  %2539, i64 56, !dbg !5835
	%2545 = bitcast i8*  %2544 to i32*, !dbg !5835
	%2546 = load i32, i32*  %2545, align 4, !tbaa !5915, !dbg !5835
	%2547 = icmp ne i32  %2543,  %2546, !dbg !5835
	br i1  %2547, label %L..inline.72712, label %L.B1326, !dbg !5835
L.B1326:
	%2548 = load i32, i32* %..inline.addr.1790, align 4, !tbaa !5919, !dbg !5836
	%2549 = bitcast [3 x i32]* %..inline.addr.1830 to i32*, !dbg !5836
	%2550 = load i32, i32*  %2549, align 4, !tbaa !5915, !dbg !5836
	%2551 = bitcast %struct._Z6FsGridISt5arrayIdLm3EELi2EE*  %2538 to i8*, !dbg !5836
	%2552 = getelementptr i8, i8*  %2551, i64 264, !dbg !5836
	%2553 = bitcast i8*  %2552 to i32*, !dbg !5836
	%2554 = load i32, i32*  %2553, align 4, !tbaa !5915, !dbg !5836
	%2555 = mul i32  %2550,  %2554, !dbg !5836
	%2556 = add i32  %2548,  %2555, !dbg !5836
	store i32  %2556, i32* %..inline.addr.1790, align 4, !tbaa !5919, !dbg !5836
	%2557 = load i32, i32* %..inline.addr.1800, align 4, !tbaa !5919, !dbg !5837
	%2558 = bitcast [3 x i32]* %..inline.addr.1830 to i8*, !dbg !5837
	%2559 = getelementptr i8, i8*  %2558, i64 4, !dbg !5837
	%2560 = bitcast i8*  %2559 to i32*, !dbg !5837
	%2561 = load i32, i32*  %2560, align 4, !tbaa !5915, !dbg !5837
	%2562 = getelementptr i8, i8*  %2551, i64 268, !dbg !5837
	%2563 = bitcast i8*  %2562 to i32*, !dbg !5837
	%2564 = load i32, i32*  %2563, align 4, !tbaa !5915, !dbg !5837
	%2565 = mul i32  %2561,  %2564, !dbg !5837
	%2566 = add i32  %2557,  %2565, !dbg !5837
	store i32  %2566, i32* %..inline.addr.1800, align 4, !tbaa !5919, !dbg !5837
	%2567 = load i32, i32* %..inline.addr.1810, align 4, !tbaa !5919, !dbg !5838
	%2568 = getelementptr i8, i8*  %2558, i64 8, !dbg !5838
	%2569 = bitcast i8*  %2568 to i32*, !dbg !5838
	%2570 = load i32, i32*  %2569, align 4, !tbaa !5915, !dbg !5838
	%2571 = getelementptr i8, i8*  %2551, i64 272, !dbg !5838
	%2572 = bitcast i8*  %2571 to i32*, !dbg !5838
	%2573 = load i32, i32*  %2572, align 4, !tbaa !5915, !dbg !5838
	%2574 = mul i32  %2570,  %2573, !dbg !5838
	%2575 = add i32  %2567,  %2574, !dbg !5838
	store i32  %2575, i32* %..inline.addr.1810, align 4, !tbaa !5919, !dbg !5838
	br label %L..inline.72712
L..inline.72712:
	br label %L..inline.72677
L..inline.72677:
	store i64 0, i64* %..inline.addr.1850, align 8, !tbaa !5921, !dbg !5839
	%2576 = load %struct._Z6FsGridISt5arrayIdLm3EELi2EE*, %struct._Z6FsGridISt5arrayIdLm3EELi2EE** %..inline.addr.1780, align 8, !tbaa !5914, !dbg !5839
	%2577 = bitcast %struct._Z6FsGridISt5arrayIdLm3EELi2EE*  %2576 to i8*, !dbg !5839
	%2578 = getelementptr i8, i8*  %2577, i64 260, !dbg !5839
	%2579 = bitcast i8*  %2578 to i32*, !dbg !5839
	%2580 = load i32, i32*  %2579, align 4, !tbaa !5915, !dbg !5839
	%2581 = icmp sle i32  %2580, 1, !dbg !5839
	br i1  %2581, label %L..inline.72786, label %L.B1327, !dbg !5839
L.B1327:
	%2582 = load i32, i32* %..inline.addr.1810, align 4, !tbaa !5919, !dbg !5839
	%2583 = add i32  %2582, 2, !dbg !5839
	%2584 = bitcast %struct._Z6FsGridISt5arrayIdLm3EELi2EE*  %2576 to i8*, !dbg !5839
	%2585 = getelementptr i8, i8*  %2584, i64 280, !dbg !5839
	%2586 = bitcast i8*  %2585 to i32*, !dbg !5839
	%2587 = load i32, i32*  %2586, align 4, !tbaa !5915, !dbg !5839
	%2588 = getelementptr i8, i8*  %2584, i64 276, !dbg !5839
	%2589 = bitcast i8*  %2588 to i32*, !dbg !5839
	%2590 = load i32, i32*  %2589, align 4, !tbaa !5915, !dbg !5839
	%2591 = mul i32  %2587,  %2590, !dbg !5839
	%2592 = mul i32  %2583,  %2591, !dbg !5839
	%2593 = sext i32  %2592 to i64, !dbg !5839
	store i64  %2593, i64* %..inline.addr.1850, align 8, !tbaa !5921, !dbg !5839
	br label %L..inline.72786
L..inline.72786:
	%2594 = load %struct._Z6FsGridISt5arrayIdLm3EELi2EE*, %struct._Z6FsGridISt5arrayIdLm3EELi2EE** %..inline.addr.1780, align 8, !tbaa !5914, !dbg !5839
	%2595 = bitcast %struct._Z6FsGridISt5arrayIdLm3EELi2EE*  %2594 to i8*, !dbg !5839
	%2596 = getelementptr i8, i8*  %2595, i64 256, !dbg !5839
	%2597 = bitcast i8*  %2596 to i32*, !dbg !5839
	%2598 = load i32, i32*  %2597, align 4, !tbaa !5915, !dbg !5839
	%2599 = icmp sle i32  %2598, 1, !dbg !5839
	br i1  %2599, label %L..inline.72835, label %L.B1328, !dbg !5839
L.B1328:
	%2600 = load i64, i64* %..inline.addr.1850, align 8, !tbaa !5921, !dbg !5839
	%2601 = bitcast %struct._Z6FsGridISt5arrayIdLm3EELi2EE*  %2594 to i8*, !dbg !5839
	%2602 = getelementptr i8, i8*  %2601, i64 276, !dbg !5839
	%2603 = bitcast i8*  %2602 to i32*, !dbg !5839
	%2604 = load i32, i32*  %2603, align 4, !tbaa !5915, !dbg !5839
	%2605 = load i32, i32* %..inline.addr.1800, align 4, !tbaa !5919, !dbg !5839
	%2606 = add i32  %2605, 2, !dbg !5839
	%2607 = mul i32  %2604,  %2606, !dbg !5839
	%2608 = sext i32  %2607 to i64, !dbg !5839
	%2609 = add i64  %2600,  %2608, !dbg !5839
	store i64  %2609, i64* %..inline.addr.1850, align 8, !tbaa !5921, !dbg !5839
	br label %L..inline.72835
L..inline.72835:
	%2610 = load %struct._Z6FsGridISt5arrayIdLm3EELi2EE*, %struct._Z6FsGridISt5arrayIdLm3EELi2EE** %..inline.addr.1780, align 8, !tbaa !5914, !dbg !5839
	%2611 = bitcast %struct._Z6FsGridISt5arrayIdLm3EELi2EE*  %2610 to i8*, !dbg !5839
	%2612 = getelementptr i8, i8*  %2611, i64 252, !dbg !5839
	%2613 = bitcast i8*  %2612 to i32*, !dbg !5839
	%2614 = load i32, i32*  %2613, align 4, !tbaa !5915, !dbg !5839
	%2615 = icmp sle i32  %2614, 1, !dbg !5839
	%2616 = zext i1  %2615 to i32, !dbg !5839
	%2617 = trunc i32  %2616 to i1, !dbg !5839
	%2618 = load i64, i64* %..inline.addr.1850, align 8, !tbaa !5921, !dbg !5839
	%2619 = load i32, i32* %..inline.addr.1790, align 4, !tbaa !5919, !dbg !5839
	%2620 = sext i32  %2619 to i64, !dbg !5839
	%2621 = add i64  %2620, 2, !dbg !5839
	%2622 = add i64  %2618,  %2621, !dbg !5839
	%2623 = select i1  %2617, i64  %2618, i64  %2622, !dbg !5839
	%2624 = getelementptr i8, i8*  %2611, i64 744, !dbg !5840
	%2625 = bitcast i8*  %2624 to i8**, !dbg !5840
	%2626 = load i8*, i8**  %2625, align 8, !tbaa !5914, !dbg !5840
	%2627 = mul i64  %2623, 24, !dbg !5840
	%2628 = getelementptr i8, i8*  %2626, i64  %2627, !dbg !5840
	%2629 = bitcast %struct._ZSt5arrayIdLm3EE** %..inline.addr.1840 to i8**, !dbg !5840
	store i8*  %2628, i8**  %2629, align 8, !tbaa !5914, !dbg !5840
	br label %L..inline.72881
L..inline.72881:
	%2630 = load %struct._ZSt5arrayIdLm3EE*, %struct._ZSt5arrayIdLm3EE** %..inline.addr.1840, align 8, !tbaa !5914, !dbg !5841
	%2631 = bitcast %struct._ZSt5arrayIdLm3EE*  %2630 to i8*, !dbg !5841
	%2632 = bitcast %struct._ZSt5arrayIdLm3EE** %EGrid1.addr to i8**, !dbg !5841
	store i8*  %2631, i8**  %2632, align 8, !tbaa !5914, !dbg !5841
	%2633 = load %struct._Z6FsGridISt5arrayIdLm3EELi2EE*, %struct._Z6FsGridISt5arrayIdLm3EELi2EE** %EGrid.addr, align 8, !tbaa !5914, !dbg !5890
	%2634 = bitcast %struct._Z6FsGridISt5arrayIdLm3EELi2EE*  %2633 to i8*, !dbg !5890
	%2635 = bitcast %struct._Z6FsGridISt5arrayIdLm3EELi2EE** %..inline.addr.1860 to i8**, !dbg !5890
	store i8*  %2634, i8**  %2635, align 8, !tbaa !5914, !dbg !5890
	%2636 = load i32, i32* %i.addr, align 4, !tbaa !5919, !dbg !5890
	%2637 = add i32  %2636, 1, !dbg !5890
	store i32  %2637, i32* %..inline.addr.1870, align 4, !tbaa !5919, !dbg !5890
	%2638 = load i32, i32* %j.addr, align 4, !tbaa !5919, !dbg !5890
	store i32  %2638, i32* %..inline.addr.1880, align 4, !tbaa !5919, !dbg !5890
	%2639 = load i32, i32* %k.addr, align 4, !tbaa !5919, !dbg !5890
	store i32  %2639, i32* %..inline.addr.1890, align 4, !tbaa !5919, !dbg !5890
	store i32 13, i32* %..inline.addr.1900, align 4, !tbaa !5919, !dbg !5890
	%2640 = bitcast [3 x i32]* %..inline.addr.1910 to i32*, !dbg !5818
	store i32 0, i32*  %2640, align 4, !tbaa !5915, !dbg !5818
	%2641 = bitcast [3 x i32]* %..inline.addr.1910 to i8*, !dbg !5819
	%2642 = getelementptr i8, i8*  %2641, i64 4, !dbg !5819
	%2643 = bitcast i8*  %2642 to i32*, !dbg !5819
	store i32 0, i32*  %2643, align 4, !tbaa !5915, !dbg !5819
	%2644 = getelementptr i8, i8*  %2641, i64 8, !dbg !5819
	%2645 = bitcast i8*  %2644 to i32*, !dbg !5819
	store i32 0, i32*  %2645, align 4, !tbaa !5915, !dbg !5819
	%2646 = icmp sge i32  %2637, 0, !dbg !5819
	br i1  %2646, label %L..inline.72887, label %L.B1329, !dbg !5819
L.B1329:
	store i32 4, i32* %..inline.addr.1900, align 4, !tbaa !5919, !dbg !5820
	%2647 = bitcast [3 x i32]* %..inline.addr.1910 to i32*, !dbg !5821
	store i32 1, i32*  %2647, align 4, !tbaa !5915, !dbg !5821
	br label %L..inline.72887
L..inline.72887:
	%2648 = load i32, i32* %..inline.addr.1870, align 4, !tbaa !5919, !dbg !5822
	%2649 = load %struct._Z6FsGridISt5arrayIdLm3EELi2EE*, %struct._Z6FsGridISt5arrayIdLm3EELi2EE** %..inline.addr.1860, align 8, !tbaa !5914, !dbg !5822
	%2650 = bitcast %struct._Z6FsGridISt5arrayIdLm3EELi2EE*  %2649 to i8*, !dbg !5822
	%2651 = getelementptr i8, i8*  %2650, i64 264, !dbg !5822
	%2652 = bitcast i8*  %2651 to i32*, !dbg !5822
	%2653 = load i32, i32*  %2652, align 4, !tbaa !5915, !dbg !5822
	%2654 = icmp slt i32  %2648,  %2653, !dbg !5822
	br i1  %2654, label %L..inline.72905, label %L.B1330, !dbg !5822
L.B1330:
	%2655 = load i32, i32* %..inline.addr.1900, align 4, !tbaa !5919, !dbg !5822
	%2656 = add i32  %2655, 9, !dbg !5822
	store i32  %2656, i32* %..inline.addr.1900, align 4, !tbaa !5919, !dbg !5822
	%2657 = bitcast [3 x i32]* %..inline.addr.1910 to i32*, !dbg !5823
	store i32 -1, i32*  %2657, align 4, !tbaa !5915, !dbg !5823
	br label %L..inline.72905
L..inline.72905:
	%2658 = load i32, i32* %..inline.addr.1880, align 4, !tbaa !5919, !dbg !5824
	%2659 = icmp sge i32  %2658, 0, !dbg !5824
	br i1  %2659, label %L..inline.72907, label %L.B1331, !dbg !5824
L.B1331:
	%2660 = load i32, i32* %..inline.addr.1900, align 4, !tbaa !5919, !dbg !5824
	%2661 = sub i32  %2660, 3, !dbg !5824
	store i32  %2661, i32* %..inline.addr.1900, align 4, !tbaa !5919, !dbg !5824
	%2662 = bitcast [3 x i32]* %..inline.addr.1910 to i8*, !dbg !5825
	%2663 = getelementptr i8, i8*  %2662, i64 4, !dbg !5825
	%2664 = bitcast i8*  %2663 to i32*, !dbg !5825
	store i32 1, i32*  %2664, align 4, !tbaa !5915, !dbg !5825
	br label %L..inline.72907
L..inline.72907:
	%2665 = load i32, i32* %..inline.addr.1880, align 4, !tbaa !5919, !dbg !5826
	%2666 = load %struct._Z6FsGridISt5arrayIdLm3EELi2EE*, %struct._Z6FsGridISt5arrayIdLm3EELi2EE** %..inline.addr.1860, align 8, !tbaa !5914, !dbg !5826
	%2667 = bitcast %struct._Z6FsGridISt5arrayIdLm3EELi2EE*  %2666 to i8*, !dbg !5826
	%2668 = getelementptr i8, i8*  %2667, i64 268, !dbg !5826
	%2669 = bitcast i8*  %2668 to i32*, !dbg !5826
	%2670 = load i32, i32*  %2669, align 4, !tbaa !5915, !dbg !5826
	%2671 = icmp slt i32  %2665,  %2670, !dbg !5826
	br i1  %2671, label %L..inline.72924, label %L.B1332, !dbg !5826
L.B1332:
	%2672 = load i32, i32* %..inline.addr.1900, align 4, !tbaa !5919, !dbg !5826
	%2673 = add i32  %2672, 3, !dbg !5826
	store i32  %2673, i32* %..inline.addr.1900, align 4, !tbaa !5919, !dbg !5826
	%2674 = bitcast [3 x i32]* %..inline.addr.1910 to i8*, !dbg !5827
	%2675 = getelementptr i8, i8*  %2674, i64 4, !dbg !5827
	%2676 = bitcast i8*  %2675 to i32*, !dbg !5827
	store i32 -1, i32*  %2676, align 4, !tbaa !5915, !dbg !5827
	br label %L..inline.72924
L..inline.72924:
	%2677 = load i32, i32* %..inline.addr.1890, align 4, !tbaa !5919, !dbg !5828
	%2678 = icmp sge i32  %2677, 0, !dbg !5828
	br i1  %2678, label %L..inline.72926, label %L.B1333, !dbg !5828
L.B1333:
	%2679 = load i32, i32* %..inline.addr.1900, align 4, !tbaa !5919, !dbg !5828
	%2680 = sub i32  %2679, 1, !dbg !5828
	store i32  %2680, i32* %..inline.addr.1900, align 4, !tbaa !5919, !dbg !5828
	%2681 = bitcast [3 x i32]* %..inline.addr.1910 to i8*, !dbg !5829
	%2682 = getelementptr i8, i8*  %2681, i64 8, !dbg !5829
	%2683 = bitcast i8*  %2682 to i32*, !dbg !5829
	store i32 1, i32*  %2683, align 4, !tbaa !5915, !dbg !5829
	br label %L..inline.72926
L..inline.72926:
	%2684 = load i32, i32* %..inline.addr.1890, align 4, !tbaa !5919, !dbg !5830
	%2685 = load %struct._Z6FsGridISt5arrayIdLm3EELi2EE*, %struct._Z6FsGridISt5arrayIdLm3EELi2EE** %..inline.addr.1860, align 8, !tbaa !5914, !dbg !5830
	%2686 = bitcast %struct._Z6FsGridISt5arrayIdLm3EELi2EE*  %2685 to i8*, !dbg !5830
	%2687 = getelementptr i8, i8*  %2686, i64 272, !dbg !5830
