; ModuleID = 'fieldsolver/ldz_gradpe.cpp'
target datalayout = "e-p:64:64-i64:64-f80:128-n8:16:32:64-S128"
target triple = "x86_64-pc-linux-gnu"
define internal void @pgCplus_compiled.() noinline {
L.entry:
	ret void
}

%struct.ompi_request_t = type opaque
%struct._ZSt15basic_streambufIcSt11char_traitsIcEE = type <{ i32 (...)* (...)*, i8*, i8*, i8*, i8*, i8*, i8*, %struct._ZSt6locale}> 
%struct._ZSt6locale = type <{ %struct._ZNSt6locale5_ImplE*}> 
%struct._ZNSt12_Vector_baseIcSaIcEE17_Vector_impl_dataE = type <{ i8*, i8*, i8*}> 
%struct._Z6FsGridISt5arrayIdLm3EELi2EE = type <{ double, double, double, %struct._ZSt5arrayIdLm3EE, %struct.ompi_communicator_t*, i32, [4 x i8], %struct._ZSt6vectorIP14ompi_request_tSaIS1_EE, i32, %struct._ZSt5arrayIiLm27EE, %struct._ZSt6vectorIcSaIcEE, %struct._ZSt5arrayIiLm3EE, %struct._ZSt5arrayIiLm3EE, %struct._ZSt5arrayIbLm3EE, i8, %struct._ZSt5arrayIiLm3EE, %struct._ZSt5arrayIiLm3EE, %struct._ZSt5arrayIiLm3EE, %struct._ZSt5arrayIiLm3EE, [4 x i8], %struct.FsGridCouplingInformation*, %struct._ZSt5arrayIP15ompi_datatype_tLm27EE, %struct._ZSt5arrayIP15ompi_datatype_tLm27EE, %struct._ZSt6vectorISt5arrayIdLm3EESaIS1_EE}> 
%struct._ZSt12_Vector_baseIP14ompi_request_tSaIS1_EE = type <{ %struct._ZNSt12_Vector_baseIP14ompi_request_tSaIS1_EE12_Vector_implE}> 
%struct._ZSt5arrayIdLm8EE = type <{ [8 x double]}> 
%struct._ZNSt6locale5_ImplE = type <{ i32, [4 x i8], %struct._ZNSt6locale5facetE**, i64, %struct._ZNSt6locale5facetE**, i8**}> 
%struct._ZNSt12_Vector_baseIcSaIcEE12_Vector_implE = type <{ %struct._ZNSt12_Vector_baseIcSaIcEE17_Vector_impl_dataE}> 
%struct._ZSt8ios_base = type <{ i32 (...)* (...)*, i64, i64, i32, i32, i32, [4 x i8], %struct._ZNSt8ios_base14_Callback_listE*, %struct._ZNSt8ios_base6_WordsE, [8 x %struct._ZNSt8ios_base6_WordsE], i32, [4 x i8], %struct._ZNSt8ios_base6_WordsE*, %struct._ZSt6locale}> 
%struct.__locale_struct = type <{ [13 x %struct.__locale_data*], i16*, i32*, i32*, [13 x i8*]}> 
%struct._ZSt12_Vector_baseIcSaIcEE = type <{ %struct._ZNSt12_Vector_baseIcSaIcEE12_Vector_implE}> 
%struct._ZSt5arrayIP15ompi_datatype_tLm27EE = type <{ [27 x %struct.ompi_datatype_t*]}> 
%struct._ZSt6vectorIcSaIcEE = type <{ %struct._ZSt12_Vector_baseIcSaIcEE}> 
%struct.FsGridCouplingInformation = type <{ %struct._ZSt6vectorIiSaIiEE}> 
%struct._ZSt5arrayIdLm24EE = type <{ [24 x double]}> 
%struct._ZNSt8ios_base6_WordsE = type <{ i8*, i64}> 
%struct.ompi_datatype_t = type opaque
%struct._ZNSt12_Vector_baseISt5arrayIdLm24EESaIS1_EE17_Vector_impl_dataE = type <{ %struct._ZSt5arrayIdLm24EE*, %struct._ZSt5arrayIdLm24EE*, %struct._ZSt5arrayIdLm24EE*}> 
%struct._ZNSt6locale5facetE = type <{ i32 (...)* (...)*, i32, [4 x i8]}> 
%struct._ZSt7num_getIcSt19istreambuf_iteratorIcSt11char_traitsIcEEE = type <{ %struct.__SO__NSt6locale5facetE, [4 x i8]}> 
%struct._ZNSt12_Vector_baseISt5arrayIdLm3EESaIS1_EE17_Vector_impl_dataE = type <{ %struct._ZSt5arrayIdLm3EE*, %struct._ZSt5arrayIdLm3EE*, %struct._ZSt5arrayIdLm3EE*}> 
%struct._ZNSt12_Vector_baseISt5arrayIdLm8EESaIS1_EE12_Vector_implE = type <{ %struct._ZNSt12_Vector_baseISt5arrayIdLm8EESaIS1_EE17_Vector_impl_dataE}> 
%struct._ZSt7num_putIcSt19ostreambuf_iteratorIcSt11char_traitsIcEEE = type <{ %struct.__SO__NSt6locale5facetE, [4 x i8]}> 
%struct._ZSt12_Vector_baseISt5arrayIdLm24EESaIS1_EE = type <{ %struct._ZNSt12_Vector_baseISt5arrayIdLm24EESaIS1_EE12_Vector_implE}> 
%struct._ZSt5arrayIiLm3EE = type <{ [3 x i32]}> 
%struct._ZNSt12_Vector_baseIiSaIiEE12_Vector_implE = type <{ %struct._ZNSt12_Vector_baseIiSaIiEE17_Vector_impl_dataE}> 
%struct._ZNSt12_Vector_baseISt5arrayIdLm3EESaIS1_EE12_Vector_implE = type <{ %struct._ZNSt12_Vector_baseISt5arrayIdLm3EESaIS1_EE17_Vector_impl_dataE}> 
%struct._Z6FsGridISt5arrayIdLm8EELi2EE = type <{ double, double, double, %struct._ZSt5arrayIdLm3EE, %struct.ompi_communicator_t*, i32, [4 x i8], %struct._ZSt6vectorIP14ompi_request_tSaIS1_EE, i32, %struct._ZSt5arrayIiLm27EE, %struct._ZSt6vectorIcSaIcEE, %struct._ZSt5arrayIiLm3EE, %struct._ZSt5arrayIiLm3EE, %struct._ZSt5arrayIbLm3EE, i8, %struct._ZSt5arrayIiLm3EE, %struct._ZSt5arrayIiLm3EE, %struct._ZSt5arrayIiLm3EE, %struct._ZSt5arrayIiLm3EE, [4 x i8], %struct.FsGridCouplingInformation*, %struct._ZSt5arrayIP15ompi_datatype_tLm27EE, %struct._ZSt5arrayIP15ompi_datatype_tLm27EE, %struct._ZSt6vectorISt5arrayIdLm8EESaIS1_EE}> 
%struct._ZSt6vectorISt5arrayIdLm3EESaIS1_EE = type <{ %struct._ZSt12_Vector_baseISt5arrayIdLm3EESaIS1_EE}> 
%struct.__locale_data = type opaque
%struct._ZNSt8ios_base14_Callback_listE = type <{ %struct._ZNSt8ios_base14_Callback_listE*, void (i32, %struct._ZSt8ios_base*, i32)*, i32, i32}> 
%struct._ZSo = type <{ i32 (...)* (...)*, %struct._ZSt9basic_iosIcSt11char_traitsIcEE}> 
%struct._ZNSt12_Vector_baseISt5arrayIdLm8EESaIS1_EE17_Vector_impl_dataE = type <{ %struct._ZSt5arrayIdLm8EE*, %struct._ZSt5arrayIdLm8EE*, %struct._ZSt5arrayIdLm8EE*}> 
%struct._ZNSt12_Vector_baseIP14ompi_request_tSaIS1_EE17_Vector_impl_dataE = type <{ %struct.ompi_request_t**, %struct.ompi_request_t**, %struct.ompi_request_t**}> 
%struct._ZNSt12_Vector_baseIiSaIiEE17_Vector_impl_dataE = type <{ i32*, i32*, i32*}> 
%struct._ZSt9basic_iosIcSt11char_traitsIcEE = type <{ %struct._ZSt8ios_base, %struct._ZSo*, i8, i8, [6 x i8], %struct._ZSt15basic_streambufIcSt11char_traitsIcEE*, %struct._ZSt5ctypeIcE*, %struct._ZSt7num_putIcSt19ostreambuf_iteratorIcSt11char_traitsIcEEE*, %struct._ZSt7num_getIcSt19istreambuf_iteratorIcSt11char_traitsIcEEE*}> 
%struct._ZSt5ctypeIcE = type <{ %struct.__SO__NSt6locale5facetE, [4 x i8], %struct.__locale_struct*, i8, [7 x i8], i32*, i32*, i16*, i8, [256 x i8], [256 x i8], i8, [6 x i8]}> 
%struct._ZNSt12_Vector_baseIP14ompi_request_tSaIS1_EE12_Vector_implE = type <{ %struct._ZNSt12_Vector_baseIP14ompi_request_tSaIS1_EE17_Vector_impl_dataE}> 
%struct._ZSt6vectorIP14ompi_request_tSaIS1_EE = type <{ %struct._ZSt12_Vector_baseIP14ompi_request_tSaIS1_EE}> 
%struct._Z6FsGridISt5arrayIdLm24EELi2EE = type <{ double, double, double, %struct._ZSt5arrayIdLm3EE, %struct.ompi_communicator_t*, i32, [4 x i8], %struct._ZSt6vectorIP14ompi_request_tSaIS1_EE, i32, %struct._ZSt5arrayIiLm27EE, %struct._ZSt6vectorIcSaIcEE, %struct._ZSt5arrayIiLm3EE, %struct._ZSt5arrayIiLm3EE, %struct._ZSt5arrayIbLm3EE, i8, %struct._ZSt5arrayIiLm3EE, %struct._ZSt5arrayIiLm3EE, %struct._ZSt5arrayIiLm3EE, %struct._ZSt5arrayIiLm3EE, [4 x i8], %struct.FsGridCouplingInformation*, %struct._ZSt5arrayIP15ompi_datatype_tLm27EE, %struct._ZSt5arrayIP15ompi_datatype_tLm27EE, %struct._ZSt6vectorISt5arrayIdLm24EESaIS1_EE}> 
%struct._ZSt6vectorISt5arrayIdLm24EESaIS1_EE = type <{ %struct._ZSt12_Vector_baseISt5arrayIdLm24EESaIS1_EE}> 
%struct._ZSt12_Vector_baseISt5arrayIdLm8EESaIS1_EE = type <{ %struct._ZNSt12_Vector_baseISt5arrayIdLm8EESaIS1_EE12_Vector_implE}> 
%struct.__SO__NSt6locale5facetE = type <{ i32 (...)* (...)*, i32}> 
%struct._ZNSt12_Vector_baseISt5arrayIdLm24EESaIS1_EE12_Vector_implE = type <{ %struct._ZNSt12_Vector_baseISt5arrayIdLm24EESaIS1_EE17_Vector_impl_dataE}> 
%struct._ZSt12_Vector_baseIiSaIiEE = type <{ %struct._ZNSt12_Vector_baseIiSaIiEE12_Vector_implE}> 
%struct._ZSt6vectorISt5arrayIdLm8EESaIS1_EE = type <{ %struct._ZSt12_Vector_baseISt5arrayIdLm8EESaIS1_EE}> 
%struct._ZSt12_Vector_baseISt5arrayIdLm3EESaIS1_EE = type <{ %struct._ZNSt12_Vector_baseISt5arrayIdLm3EESaIS1_EE12_Vector_implE}> 
%struct._ZSt5arrayIbLm3EE = type <{ [3 x i8]}> 
%struct.ompi_communicator_t = type opaque
%struct._ZSt6vectorIiSaIiEE = type <{ %struct._ZSt12_Vector_baseIiSaIiEE}> 
%struct._ZSt5arrayIdLm3EE = type <{ [3 x double]}> 
%struct._ZSt5arrayIiLm27EE = type <{ [27 x i32]}> 



define void @_Z34calculateEdgeGradPeTermXComponentsR6FsGridISt5arrayIdLm3EELi2EERS_IS0_IdLm8EELi2EERS_IS0_IdLm24EELi2EEiii(%struct._Z6FsGridISt5arrayIdLm3EELi2EE* %EGradPeGrid.arg, %struct._Z6FsGridISt5arrayIdLm8EELi2EE* %momentsGrid.arg, %struct._Z6FsGridISt5arrayIdLm24EELi2EE* %dMomentsGrid.arg, i32 signext %i.arg, i32 signext %j.arg, i32 signext %k.arg) #0 !dbg !4062 {
L.entry:
	%EGradPeGrid.addr = alloca %struct._Z6FsGridISt5arrayIdLm3EELi2EE*, align 8
	%momentsGrid.addr = alloca %struct._Z6FsGridISt5arrayIdLm8EELi2EE*, align 8
	%dMomentsGrid.addr = alloca %struct._Z6FsGridISt5arrayIdLm24EELi2EE*, align 8
	%i.addr = alloca i32, align 4
	%j.addr = alloca i32, align 4
	%k.addr = alloca i32, align 4
	%.D0000.addr = alloca i32, align 4
	%..inline.addr = alloca %struct._Z6FsGridISt5arrayIdLm8EELi2EE*, align 8
	%..inline.addr.1 = alloca i32, align 4
	%..inline.addr.2 = alloca i32, align 4
	%..inline.addr.3 = alloca i32, align 4
	%..inline.addr.4 = alloca i32, align 4
	%..inline.addr.5 = alloca [3 x i32], align 4
	%..inline.addr.6 = alloca %struct._ZSt5arrayIdLm8EE*, align 8
	%..inline.addr.7 = alloca %struct._ZSt9basic_iosIcSt11char_traitsIcEE*, align 8
	%..inline.addr.8 = alloca %struct._ZSt9basic_iosIcSt11char_traitsIcEE*, align 8
	%..inline.addr.9 = alloca i32, align 4
	%..inline.addr.230 = alloca i64, align 8
	%.Q0000.addr = alloca %struct._ZSo*, align 8
	%.Q0001.addr = alloca %struct._ZSo*, align 8
	%..inline.addr.260 = alloca %struct._ZSo*, align 8
	%..inline.addr.270 = alloca %struct._ZSt9basic_iosIcSt11char_traitsIcEE*, align 8
	%..inline.addr.280 = alloca %struct._ZSt9basic_iosIcSt11char_traitsIcEE*, align 8
	%..inline.addr.290 = alloca i32, align 4
	%..inline.addr.300 = alloca i64, align 8
	%.Q0002.addr = alloca %struct._ZSo*, align 8
	%..inline.addr.320 = alloca %struct._ZSo*, align 8
	%.Q0003.addr = alloca %struct._ZSo*, align 8
	%..inline.addr.340 = alloca i64, align 8
	%.I0000.addr = alloca double, align 8
	%hallRhoq.addr = alloca double, align 8
	%..inline.addr.370 = alloca %struct._Z6FsGridISt5arrayIdLm3EELi2EE*, align 8
	%..inline.addr.380 = alloca i32, align 4
	%..inline.addr.390 = alloca i32, align 4
	%..inline.addr.400 = alloca i32, align 4
	%..inline.addr.410 = alloca i32, align 4
	%..inline.addr.420 = alloca [3 x i32], align 4
	%..inline.addr.430 = alloca %struct._ZSt5arrayIdLm3EE*, align 8
	%..inline.addr.440 = alloca i64, align 8
	%..inline.addr.450 = alloca double*, align 8
	%..inline.addr.460 = alloca %struct._Z6FsGridISt5arrayIdLm24EELi2EE*, align 8
	%..inline.addr.470 = alloca i32, align 4
	%..inline.addr.480 = alloca i32, align 4
	%..inline.addr.490 = alloca i32, align 4
	%..inline.addr.500 = alloca i32, align 4
	%..inline.addr.510 = alloca [3 x i32], align 4
	%..inline.addr.520 = alloca %struct._ZSt5arrayIdLm24EE*, align 8
	%..inline.addr.530 = alloca i64, align 8
	%..inline.addr.540 = alloca %struct._ZSt9basic_iosIcSt11char_traitsIcEE*, align 8
	%..inline.addr.550 = alloca %struct._ZSt9basic_iosIcSt11char_traitsIcEE*, align 8
	%..inline.addr.560 = alloca i32, align 4
	%..inline.addr.570 = alloca i64, align 8
	%.Q0004.addr = alloca %struct._ZSo*, align 8
	%..inline.addr.590 = alloca %struct._ZSt9basic_iosIcSt11char_traitsIcEE*, align 8
	%..inline.addr.600 = alloca %struct._ZSt9basic_iosIcSt11char_traitsIcEE*, align 8
	%..inline.addr.610 = alloca i32, align 4
	%..inline.addr.620 = alloca i64, align 8
	%.Q0005.addr = alloca %struct._ZSo*, align 8
	%.Q0006.addr = alloca %struct._ZSo*, align 8
	%..inline.addr.650 = alloca %struct._ZSo*, align 8
	%..inline.addr.660 = alloca %struct._ZSt9basic_iosIcSt11char_traitsIcEE*, align 8
	%..inline.addr.670 = alloca %struct._ZSt9basic_iosIcSt11char_traitsIcEE*, align 8
	%..inline.addr.680 = alloca i32, align 4
	%..inline.addr.690 = alloca i64, align 8
	%.Q0007.addr = alloca %struct._ZSo*, align 8
	%..inline.addr.710 = alloca %struct._ZSo*, align 8
	%.Q0008.addr = alloca %struct._ZSo*, align 8

	call void @llvm.dbg.declare (metadata %struct._Z6FsGridISt5arrayIdLm3EELi2EE** %EGradPeGrid.addr, metadata !4570, metadata !4571), !dbg !4063
	store %struct._Z6FsGridISt5arrayIdLm3EELi2EE* %EGradPeGrid.arg, %struct._Z6FsGridISt5arrayIdLm3EELi2EE** %EGradPeGrid.addr, align 8, !tbaa !4632
	call void @llvm.dbg.declare (metadata %struct._Z6FsGridISt5arrayIdLm3EELi2EE** %EGradPeGrid.addr, metadata !4572, metadata !4571), !dbg !4063
	call void @llvm.dbg.declare (metadata %struct._Z6FsGridISt5arrayIdLm8EELi2EE** %momentsGrid.addr, metadata !4573, metadata !4571), !dbg !4063
	store %struct._Z6FsGridISt5arrayIdLm8EELi2EE* %momentsGrid.arg, %struct._Z6FsGridISt5arrayIdLm8EELi2EE** %momentsGrid.addr, align 8, !tbaa !4632
	call void @llvm.dbg.declare (metadata %struct._Z6FsGridISt5arrayIdLm8EELi2EE** %momentsGrid.addr, metadata !4574, metadata !4571), !dbg !4063
	call void @llvm.dbg.declare (metadata %struct._Z6FsGridISt5arrayIdLm24EELi2EE** %dMomentsGrid.addr, metadata !4575, metadata !4571), !dbg !4063
	store %struct._Z6FsGridISt5arrayIdLm24EELi2EE* %dMomentsGrid.arg, %struct._Z6FsGridISt5arrayIdLm24EELi2EE** %dMomentsGrid.addr, align 8, !tbaa !4632
	call void @llvm.dbg.declare (metadata %struct._Z6FsGridISt5arrayIdLm24EELi2EE** %dMomentsGrid.addr, metadata !4576, metadata !4571), !dbg !4063
	call void @llvm.dbg.declare (metadata i32* %i.addr, metadata !4577, metadata !4571), !dbg !4063
	store i32 %i.arg, i32* %i.addr, align 4, !tbaa !4633
	call void @llvm.dbg.declare (metadata i32* %i.addr, metadata !4578, metadata !4571), !dbg !4063
	call void @llvm.dbg.declare (metadata i32* %j.addr, metadata !4579, metadata !4571), !dbg !4063
	store i32 %j.arg, i32* %j.addr, align 4, !tbaa !4633
	call void @llvm.dbg.declare (metadata i32* %j.addr, metadata !4580, metadata !4571), !dbg !4063
	call void @llvm.dbg.declare (metadata i32* %k.addr, metadata !4581, metadata !4571), !dbg !4063
	store i32 %k.arg, i32* %k.addr, align 4, !tbaa !4633
	call void @llvm.dbg.declare (metadata i32* %k.addr, metadata !4582, metadata !4571), !dbg !4063
	%0 = load i32, i32* @_ZN10Parameters13ohmGradPeTermE, align 4, !tbaa !4635, !dbg !4583
	store i32  %0, i32* %.D0000.addr, align 4, !tbaa !4635, !dbg !4583
	%1 = icmp eq i32  %0, 0, !dbg !4583
	br i1  %1, label %L.B0000, label %L.B1174, !dbg !4583
L.B1174:
	%2 = icmp ne i32  %0, 1, !dbg !4583
	br i1  %2, label %L.B0004, label %L.B0001, !dbg !4583
L.B0001:
	%3 = load %struct._Z6FsGridISt5arrayIdLm8EELi2EE*, %struct._Z6FsGridISt5arrayIdLm8EELi2EE** %momentsGrid.addr, align 8, !tbaa !4632, !dbg !4586
	%4 = bitcast %struct._Z6FsGridISt5arrayIdLm8EELi2EE*  %3 to i8*, !dbg !4586
	%5 = bitcast %struct._Z6FsGridISt5arrayIdLm8EELi2EE** %..inline.addr to i8**, !dbg !4586
	store i8*  %4, i8**  %5, align 8, !tbaa !4632, !dbg !4586
	%6 = load i32, i32* %i.addr, align 4, !tbaa !4635, !dbg !4586
	store i32  %6, i32* %..inline.addr.1, align 4, !tbaa !4635, !dbg !4586
	%7 = load i32, i32* %j.addr, align 4, !tbaa !4635, !dbg !4586
	store i32  %7, i32* %..inline.addr.2, align 4, !tbaa !4635, !dbg !4586
	%8 = load i32, i32* %k.addr, align 4, !tbaa !4635, !dbg !4586
	store i32  %8, i32* %..inline.addr.3, align 4, !tbaa !4635, !dbg !4586
	store i32 13, i32* %..inline.addr.4, align 4, !tbaa !4635, !dbg !4586
	%9 = bitcast [3 x i32]* %..inline.addr.5 to i32*, !dbg !4587
	store i32 0, i32*  %9, align 4, !tbaa !4633, !dbg !4587
	%10 = bitcast [3 x i32]* %..inline.addr.5 to i8*, !dbg !4588
	%11 = getelementptr i8, i8*  %10, i64 4, !dbg !4588
	%12 = bitcast i8*  %11 to i32*, !dbg !4588
	store i32 0, i32*  %12, align 4, !tbaa !4633, !dbg !4588
	%13 = getelementptr i8, i8*  %10, i64 8, !dbg !4588
	%14 = bitcast i8*  %13 to i32*, !dbg !4588
	store i32 0, i32*  %14, align 4, !tbaa !4633, !dbg !4588
	%15 = icmp sge i32  %6, 0, !dbg !4588
	br i1  %15, label %L..inline.67568, label %L.B1175, !dbg !4588
L.B1175:
	store i32 4, i32* %..inline.addr.4, align 4, !tbaa !4635, !dbg !4589
	%16 = bitcast [3 x i32]* %..inline.addr.5 to i32*, !dbg !4590
	store i32 1, i32*  %16, align 4, !tbaa !4633, !dbg !4590
	br label %L..inline.67568
L..inline.67568:
	%17 = load i32, i32* %..inline.addr.1, align 4, !tbaa !4635, !dbg !4591
	%18 = load %struct._Z6FsGridISt5arrayIdLm8EELi2EE*, %struct._Z6FsGridISt5arrayIdLm8EELi2EE** %..inline.addr, align 8, !tbaa !4632, !dbg !4591
	%19 = bitcast %struct._Z6FsGridISt5arrayIdLm8EELi2EE*  %18 to i8*, !dbg !4591
	%20 = getelementptr i8, i8*  %19, i64 264, !dbg !4591
	%21 = bitcast i8*  %20 to i32*, !dbg !4591
	%22 = load i32, i32*  %21, align 4, !tbaa !4633, !dbg !4591
	%23 = icmp slt i32  %17,  %22, !dbg !4591
	br i1  %23, label %L..inline.67586, label %L.B1176, !dbg !4591
L.B1176:
	%24 = load i32, i32* %..inline.addr.4, align 4, !tbaa !4635, !dbg !4591
	%25 = add i32  %24, 9, !dbg !4591
	store i32  %25, i32* %..inline.addr.4, align 4, !tbaa !4635, !dbg !4591
	%26 = bitcast [3 x i32]* %..inline.addr.5 to i32*, !dbg !4592
	store i32 -1, i32*  %26, align 4, !tbaa !4633, !dbg !4592
	br label %L..inline.67586
L..inline.67586:
	%27 = load i32, i32* %..inline.addr.2, align 4, !tbaa !4635, !dbg !4593
	%28 = icmp sge i32  %27, 0, !dbg !4593
	br i1  %28, label %L..inline.67588, label %L.B1177, !dbg !4593
L.B1177:
	%29 = load i32, i32* %..inline.addr.4, align 4, !tbaa !4635, !dbg !4593
	%30 = sub i32  %29, 3, !dbg !4593
	store i32  %30, i32* %..inline.addr.4, align 4, !tbaa !4635, !dbg !4593
	%31 = bitcast [3 x i32]* %..inline.addr.5 to i8*, !dbg !4594
	%32 = getelementptr i8, i8*  %31, i64 4, !dbg !4594
	%33 = bitcast i8*  %32 to i32*, !dbg !4594
	store i32 1, i32*  %33, align 4, !tbaa !4633, !dbg !4594
	br label %L..inline.67588
L..inline.67588:
	%34 = load i32, i32* %..inline.addr.2, align 4, !tbaa !4635, !dbg !4595
	%35 = load %struct._Z6FsGridISt5arrayIdLm8EELi2EE*, %struct._Z6FsGridISt5arrayIdLm8EELi2EE** %..inline.addr, align 8, !tbaa !4632, !dbg !4595
	%36 = bitcast %struct._Z6FsGridISt5arrayIdLm8EELi2EE*  %35 to i8*, !dbg !4595
	%37 = getelementptr i8, i8*  %36, i64 268, !dbg !4595
	%38 = bitcast i8*  %37 to i32*, !dbg !4595
	%39 = load i32, i32*  %38, align 4, !tbaa !4633, !dbg !4595
	%40 = icmp slt i32  %34,  %39, !dbg !4595
	br i1  %40, label %L..inline.67605, label %L.B1178, !dbg !4595
L.B1178:
	%41 = load i32, i32* %..inline.addr.4, align 4, !tbaa !4635, !dbg !4595
	%42 = add i32  %41, 3, !dbg !4595
	store i32  %42, i32* %..inline.addr.4, align 4, !tbaa !4635, !dbg !4595
	%43 = bitcast [3 x i32]* %..inline.addr.5 to i8*, !dbg !4596
	%44 = getelementptr i8, i8*  %43, i64 4, !dbg !4596
	%45 = bitcast i8*  %44 to i32*, !dbg !4596
	store i32 -1, i32*  %45, align 4, !tbaa !4633, !dbg !4596
	br label %L..inline.67605
L..inline.67605:
	%46 = load i32, i32* %..inline.addr.3, align 4, !tbaa !4635, !dbg !4597
	%47 = icmp sge i32  %46, 0, !dbg !4597
	br i1  %47, label %L..inline.67607, label %L.B1179, !dbg !4597
L.B1179:
	%48 = load i32, i32* %..inline.addr.4, align 4, !tbaa !4635, !dbg !4597
	%49 = sub i32  %48, 1, !dbg !4597
	store i32  %49, i32* %..inline.addr.4, align 4, !tbaa !4635, !dbg !4597
	%50 = bitcast [3 x i32]* %..inline.addr.5 to i8*, !dbg !4598
	%51 = getelementptr i8, i8*  %50, i64 8, !dbg !4598
	%52 = bitcast i8*  %51 to i32*, !dbg !4598
	store i32 1, i32*  %52, align 4, !tbaa !4633, !dbg !4598
	br label %L..inline.67607
L..inline.67607:
	%53 = load i32, i32* %..inline.addr.3, align 4, !tbaa !4635, !dbg !4599
	%54 = load %struct._Z6FsGridISt5arrayIdLm8EELi2EE*, %struct._Z6FsGridISt5arrayIdLm8EELi2EE** %..inline.addr, align 8, !tbaa !4632, !dbg !4599
	%55 = bitcast %struct._Z6FsGridISt5arrayIdLm8EELi2EE*  %54 to i8*, !dbg !4599
	%56 = getelementptr i8, i8*  %55, i64 272, !dbg !4599
	%57 = bitcast i8*  %56 to i32*, !dbg !4599
	%58 = load i32, i32*  %57, align 4, !tbaa !4633, !dbg !4599
	%59 = icmp slt i32  %53,  %58, !dbg !4599
	br i1  %59, label %L..inline.67624, label %L.B1180, !dbg !4599
L.B1180:
	%60 = load i32, i32* %..inline.addr.4, align 4, !tbaa !4635, !dbg !4599
	%61 = add i32  %60, 1, !dbg !4599
	store i32  %61, i32* %..inline.addr.4, align 4, !tbaa !4635, !dbg !4599
	%62 = bitcast [3 x i32]* %..inline.addr.5 to i8*, !dbg !4600
	%63 = getelementptr i8, i8*  %62, i64 8, !dbg !4600
	%64 = bitcast i8*  %63 to i32*, !dbg !4600
	store i32 -1, i32*  %64, align 4, !tbaa !4633, !dbg !4600
	br label %L..inline.67624
L..inline.67624:
	%65 = load i32, i32* %..inline.addr.4, align 4, !tbaa !4635, !dbg !4601
	%66 = icmp eq i32  %65, 13, !dbg !4601
	br i1  %66, label %L..inline.67625, label %L.B1181, !dbg !4601
L.B1181:
	%67 = sext i32  %65 to i64, !dbg !4602
	%68 = load %struct._Z6FsGridISt5arrayIdLm8EELi2EE*, %struct._Z6FsGridISt5arrayIdLm8EELi2EE** %..inline.addr, align 8, !tbaa !4632, !dbg !4602
	%69 = bitcast %struct._Z6FsGridISt5arrayIdLm8EELi2EE*  %68 to i8*, !dbg !4602
	%70 = getelementptr i8, i8*  %69, i64 92, !dbg !4602
	%71 = bitcast i8*  %70 to i32*, !dbg !4602
	%72 = getelementptr i32, i32*  %71, i64  %67, !dbg !4602
	%73 = load i32, i32*  %72, align 4, !tbaa !4633, !dbg !4602
	%74 = icmp ne i32  %73, -2, !dbg !4602
	br i1  %74, label %L..inline.67642, label %L.B1182, !dbg !4602
L.B1182:
	%75 = bitcast %struct._ZSt5arrayIdLm8EE** %..inline.addr.6 to i8**, !dbg !4602
	store i8* null, i8**  %75, align 8, !tbaa !4632, !dbg !4602
	br label %L..inline.67829, !dbg !4603
L.B0000:
	%76 = bitcast [27 x i8]* @.S52189 to i8*, !dbg !4604
	%77 = icmp ne i8*  %76,  null, !dbg !4604
	br i1  %77, label %L..inline.67491, label %L.B1183, !dbg !4604
L.B1183:
	%78 = bitcast %struct._ZSo* @_ZSt4cerr to i8*, !dbg !4605
	%79 = bitcast %struct._ZSo* @_ZSt4cerr to i8**, !dbg !4605
	%80 = load i8*, i8**  %79, align 8, !tbaa !4632, !dbg !4605
	%81 = getelementptr i8, i8*  %80, i64 18446744073709551592, !dbg !4605
	%82 = bitcast i8*  %81 to i64*, !dbg !4605
	%83 = load i64, i64*  %82, align 8, !tbaa !4633, !dbg !4605
	%84 = getelementptr i8, i8*  %78, i64  %83, !dbg !4605
	%85 = bitcast %struct._ZSt9basic_iosIcSt11char_traitsIcEE** %..inline.addr.7 to i8**, !dbg !4605
	store i8*  %84, i8**  %85, align 8, !tbaa !4632, !dbg !4605
	%86 = load %struct._ZSt9basic_iosIcSt11char_traitsIcEE*, %struct._ZSt9basic_iosIcSt11char_traitsIcEE** %..inline.addr.7, align 8, !tbaa !4632, !dbg !4605
	%87 = bitcast %struct._ZSt9basic_iosIcSt11char_traitsIcEE*  %86 to i8*, !dbg !4605
	%88 = bitcast %struct._ZSt9basic_iosIcSt11char_traitsIcEE** %..inline.addr.8 to i8**, !dbg !4605
	store i8*  %87, i8**  %88, align 8, !tbaa !4632, !dbg !4605
	%89 = load %struct._ZSt9basic_iosIcSt11char_traitsIcEE*, %struct._ZSt9basic_iosIcSt11char_traitsIcEE** %..inline.addr.8, align 8, !tbaa !4632, !dbg !4605
	%90 = bitcast %struct._ZSt9basic_iosIcSt11char_traitsIcEE*  %89 to i8*, !dbg !4605
	%91 = getelementptr i8, i8*  %90, i64 32, !dbg !4605
	%92 = bitcast i8*  %91 to i32*, !dbg !4605
	%93 = load i32, i32*  %92, align 4, !tbaa !4633, !dbg !4605
	%94 = or i32  %93, 1, !dbg !4605
	call void  @_ZNSt9basic_iosIcSt11char_traitsIcEE5clearESt12_Ios_Iostate (%struct._ZSt9basic_iosIcSt11char_traitsIcEE*  %86, i32  %94), !dbg !4605
	br label %L..inline.67512, !dbg !4605
L..inline.67491:
	%95 = bitcast [27 x i8]* @.S52189 to i8*, !dbg !4608
	%96 = call i64  @strlen (i8*  %95) nounwind, !dbg !4608
	%97 = call %struct._ZSo*  @_ZSt16__ostream_insertIcSt11char_traitsIcEERSt13basic_ostreamIT_T0_ES6_PKS3_l (%struct._ZSo* @_ZSt4cerr, i8*  %95, i64  %96), !dbg !4608
	%98 = bitcast %struct._ZSo*  %97 to i8*, !dbg !4608
	%99 = bitcast %struct._ZSo** %.Q0000.addr to i8**, !dbg !4608
	store i8*  %98, i8**  %99, align 8, !tbaa !4632, !dbg !4608
	br label %L..inline.67512
L..inline.67512:
	%100 = call %struct._ZSo*  @_ZNSolsEi (%struct._ZSo* @_ZSt4cerr, i32 44), !dbg !4609
	%101 = bitcast %struct._ZSo*  %100 to i8*, !dbg !4609
	%102 = bitcast %struct._ZSo** %.Q0001.addr to i8**, !dbg !4609
	store i8*  %101, i8**  %102, align 8, !tbaa !4632, !dbg !4609
	%103 = load %struct._ZSo*, %struct._ZSo** %.Q0001.addr, align 8, !tbaa !4632, !dbg !4609
	%104 = bitcast %struct._ZSo*  %103 to i8*, !dbg !4609
	%105 = bitcast %struct._ZSo** %..inline.addr.260 to i8**, !dbg !4609
	store i8*  %104, i8**  %105, align 8, !tbaa !4632, !dbg !4609
	%106 = bitcast [98 x i8]* @.S52193 to i8*, !dbg !4604
	%107 = icmp ne i8*  %106,  null, !dbg !4604
	br i1  %107, label %L..inline.67524, label %L.B1184, !dbg !4604
L.B1184:
	%108 = load %struct._ZSo*, %struct._ZSo** %..inline.addr.260, align 8, !tbaa !4632, !dbg !4605
	%109 = bitcast %struct._ZSo*  %108 to i8*, !dbg !4605
	%110 = bitcast %struct._ZSo*  %108 to i8**, !dbg !4605
	%111 = load i8*, i8**  %110, align 8, !tbaa !4632, !dbg !4605
	%112 = getelementptr i8, i8*  %111, i64 18446744073709551592, !dbg !4605
	%113 = bitcast i8*  %112 to i64*, !dbg !4605
	%114 = load i64, i64*  %113, align 8, !tbaa !4633, !dbg !4605
	%115 = getelementptr i8, i8*  %109, i64  %114, !dbg !4605
	%116 = bitcast %struct._ZSt9basic_iosIcSt11char_traitsIcEE** %..inline.addr.270 to i8**, !dbg !4605
	store i8*  %115, i8**  %116, align 8, !tbaa !4632, !dbg !4605
	%117 = bitcast %struct._ZSt9basic_iosIcSt11char_traitsIcEE** %..inline.addr.280 to i8**, !dbg !4605
	store i8*  %115, i8**  %117, align 8, !tbaa !4632, !dbg !4605
	%118 = load %struct._ZSt9basic_iosIcSt11char_traitsIcEE*, %struct._ZSt9basic_iosIcSt11char_traitsIcEE** %..inline.addr.280, align 8, !tbaa !4632, !dbg !4605
	%119 = bitcast %struct._ZSt9basic_iosIcSt11char_traitsIcEE*  %118 to i8*, !dbg !4605
	%120 = getelementptr i8, i8*  %119, i64 32, !dbg !4605
	%121 = bitcast i8*  %120 to i32*, !dbg !4605
	%122 = load i32, i32*  %121, align 4, !tbaa !4633, !dbg !4605
	%123 = or i32  %122, 1, !dbg !4605
	%124 = load %struct._ZSt9basic_iosIcSt11char_traitsIcEE*, %struct._ZSt9basic_iosIcSt11char_traitsIcEE** %..inline.addr.270, align 8, !tbaa !4632, !dbg !4605
	call void  @_ZNSt9basic_iosIcSt11char_traitsIcEE5clearESt12_Ios_Iostate (%struct._ZSt9basic_iosIcSt11char_traitsIcEE*  %124, i32  %123), !dbg !4605
	br label %L..inline.67545, !dbg !4605
L..inline.67524:
	%125 = bitcast [98 x i8]* @.S52193 to i8*, !dbg !4608
	%126 = call i64  @strlen (i8*  %125) nounwind, !dbg !4608
	%127 = load %struct._ZSo*, %struct._ZSo** %..inline.addr.260, align 8, !tbaa !4632, !dbg !4608
	%128 = call %struct._ZSo*  @_ZSt16__ostream_insertIcSt11char_traitsIcEERSt13basic_ostreamIT_T0_ES6_PKS3_l (%struct._ZSo*  %127, i8*  %125, i64  %126), !dbg !4608
	%129 = bitcast %struct._ZSo*  %128 to i8*, !dbg !4608
	%130 = bitcast %struct._ZSo** %.Q0002.addr to i8**, !dbg !4608
	store i8*  %129, i8**  %130, align 8, !tbaa !4632, !dbg !4608
	br label %L..inline.67545
L..inline.67545:
	%131 = load %struct._ZSo*, %struct._ZSo** %..inline.addr.260, align 8, !tbaa !4632, !dbg !4609
	%132 = bitcast %struct._ZSo*  %131 to i8*, !dbg !4609
	%133 = bitcast %struct._ZSo** %..inline.addr.320 to i8**, !dbg !4609
	store i8*  %132, i8**  %133, align 8, !tbaa !4632, !dbg !4609
	%134 = load %struct._ZSo*, %struct._ZSo** %..inline.addr.320, align 8, !tbaa !4632, !dbg !4610
	%135 = call %struct._ZSo*  @_ZSt4endlIcSt11char_traitsIcEERSt13basic_ostreamIT_T0_ES6_ (%struct._ZSo*  %134), !dbg !4610
	%136 = bitcast %struct._ZSo*  %135 to i8*, !dbg !4610
	%137 = bitcast %struct._ZSo** %.Q0003.addr to i8**, !dbg !4610
	store i8*  %136, i8**  %137, align 8, !tbaa !4632, !dbg !4610
	br label %L_T18499824_50930, !dbg !4611
L..inline.67642:
	%138 = load i32, i32* %..inline.addr.4, align 4, !tbaa !4635, !dbg !4612
	%139 = sext i32  %138 to i64, !dbg !4612
	%140 = load %struct._Z6FsGridISt5arrayIdLm8EELi2EE*, %struct._Z6FsGridISt5arrayIdLm8EELi2EE** %..inline.addr, align 8, !tbaa !4632, !dbg !4612
	%141 = bitcast %struct._Z6FsGridISt5arrayIdLm8EELi2EE*  %140 to i8*, !dbg !4612
	%142 = getelementptr i8, i8*  %141, i64 92, !dbg !4612
	%143 = bitcast i8*  %142 to i32*, !dbg !4612
	%144 = getelementptr i32, i32*  %143, i64  %139, !dbg !4612
	%145 = load i32, i32*  %144, align 4, !tbaa !4633, !dbg !4612
	%146 = getelementptr i8, i8*  %141, i64 56, !dbg !4612
	%147 = bitcast i8*  %146 to i32*, !dbg !4612
	%148 = load i32, i32*  %147, align 4, !tbaa !4633, !dbg !4612
	%149 = icmp ne i32  %145,  %148, !dbg !4612
	br i1  %149, label %L..inline.67660, label %L.B1185, !dbg !4612
L.B1185:
	%150 = load i32, i32* %..inline.addr.1, align 4, !tbaa !4635, !dbg !4613
	%151 = bitcast [3 x i32]* %..inline.addr.5 to i32*, !dbg !4613
	%152 = load i32, i32*  %151, align 4, !tbaa !4633, !dbg !4613
	%153 = bitcast %struct._Z6FsGridISt5arrayIdLm8EELi2EE*  %140 to i8*, !dbg !4613
	%154 = getelementptr i8, i8*  %153, i64 264, !dbg !4613
	%155 = bitcast i8*  %154 to i32*, !dbg !4613
	%156 = load i32, i32*  %155, align 4, !tbaa !4633, !dbg !4613
	%157 = mul i32  %152,  %156, !dbg !4613
	%158 = add i32  %150,  %157, !dbg !4613
	store i32  %158, i32* %..inline.addr.1, align 4, !tbaa !4635, !dbg !4613
	%159 = load i32, i32* %..inline.addr.2, align 4, !tbaa !4635, !dbg !4614
	%160 = bitcast [3 x i32]* %..inline.addr.5 to i8*, !dbg !4614
	%161 = getelementptr i8, i8*  %160, i64 4, !dbg !4614
	%162 = bitcast i8*  %161 to i32*, !dbg !4614
	%163 = load i32, i32*  %162, align 4, !tbaa !4633, !dbg !4614
	%164 = getelementptr i8, i8*  %153, i64 268, !dbg !4614
	%165 = bitcast i8*  %164 to i32*, !dbg !4614
	%166 = load i32, i32*  %165, align 4, !tbaa !4633, !dbg !4614
	%167 = mul i32  %163,  %166, !dbg !4614
	%168 = add i32  %159,  %167, !dbg !4614
	store i32  %168, i32* %..inline.addr.2, align 4, !tbaa !4635, !dbg !4614
	%169 = load i32, i32* %..inline.addr.3, align 4, !tbaa !4635, !dbg !4615
	%170 = getelementptr i8, i8*  %160, i64 8, !dbg !4615
	%171 = bitcast i8*  %170 to i32*, !dbg !4615
	%172 = load i32, i32*  %171, align 4, !tbaa !4633, !dbg !4615
	%173 = getelementptr i8, i8*  %153, i64 272, !dbg !4615
	%174 = bitcast i8*  %173 to i32*, !dbg !4615
	%175 = load i32, i32*  %174, align 4, !tbaa !4633, !dbg !4615
	%176 = mul i32  %172,  %175, !dbg !4615
	%177 = add i32  %169,  %176, !dbg !4615
	store i32  %177, i32* %..inline.addr.3, align 4, !tbaa !4635, !dbg !4615
	br label %L..inline.67660
L..inline.67660:
	br label %L..inline.67625
L..inline.67625:
	store i64 0, i64* %..inline.addr.340, align 8, !tbaa !4637, !dbg !4616
	%178 = load %struct._Z6FsGridISt5arrayIdLm8EELi2EE*, %struct._Z6FsGridISt5arrayIdLm8EELi2EE** %..inline.addr, align 8, !tbaa !4632, !dbg !4616
	%179 = bitcast %struct._Z6FsGridISt5arrayIdLm8EELi2EE*  %178 to i8*, !dbg !4616
	%180 = getelementptr i8, i8*  %179, i64 260, !dbg !4616
	%181 = bitcast i8*  %180 to i32*, !dbg !4616
	%182 = load i32, i32*  %181, align 4, !tbaa !4633, !dbg !4616
	%183 = icmp sle i32  %182, 1, !dbg !4616
	br i1  %183, label %L..inline.67734, label %L.B1186, !dbg !4616
L.B1186:
	%184 = load i32, i32* %..inline.addr.3, align 4, !tbaa !4635, !dbg !4616
	%185 = add i32  %184, 2, !dbg !4616
	%186 = bitcast %struct._Z6FsGridISt5arrayIdLm8EELi2EE*  %178 to i8*, !dbg !4616
	%187 = getelementptr i8, i8*  %186, i64 280, !dbg !4616
	%188 = bitcast i8*  %187 to i32*, !dbg !4616
	%189 = load i32, i32*  %188, align 4, !tbaa !4633, !dbg !4616
	%190 = getelementptr i8, i8*  %186, i64 276, !dbg !4616
	%191 = bitcast i8*  %190 to i32*, !dbg !4616
	%192 = load i32, i32*  %191, align 4, !tbaa !4633, !dbg !4616
	%193 = mul i32  %189,  %192, !dbg !4616
	%194 = mul i32  %185,  %193, !dbg !4616
	%195 = sext i32  %194 to i64, !dbg !4616
	store i64  %195, i64* %..inline.addr.340, align 8, !tbaa !4637, !dbg !4616
	br label %L..inline.67734
L..inline.67734:
	%196 = load %struct._Z6FsGridISt5arrayIdLm8EELi2EE*, %struct._Z6FsGridISt5arrayIdLm8EELi2EE** %..inline.addr, align 8, !tbaa !4632, !dbg !4616
	%197 = bitcast %struct._Z6FsGridISt5arrayIdLm8EELi2EE*  %196 to i8*, !dbg !4616
	%198 = getelementptr i8, i8*  %197, i64 256, !dbg !4616
	%199 = bitcast i8*  %198 to i32*, !dbg !4616
	%200 = load i32, i32*  %199, align 4, !tbaa !4633, !dbg !4616
	%201 = icmp sle i32  %200, 1, !dbg !4616
	br i1  %201, label %L..inline.67783, label %L.B1187, !dbg !4616
L.B1187:
	%202 = load i64, i64* %..inline.addr.340, align 8, !tbaa !4637, !dbg !4616
	%203 = bitcast %struct._Z6FsGridISt5arrayIdLm8EELi2EE*  %196 to i8*, !dbg !4616
	%204 = getelementptr i8, i8*  %203, i64 276, !dbg !4616
	%205 = bitcast i8*  %204 to i32*, !dbg !4616
	%206 = load i32, i32*  %205, align 4, !tbaa !4633, !dbg !4616
	%207 = load i32, i32* %..inline.addr.2, align 4, !tbaa !4635, !dbg !4616
	%208 = add i32  %207, 2, !dbg !4616
	%209 = mul i32  %206,  %208, !dbg !4616
	%210 = sext i32  %209 to i64, !dbg !4616
	%211 = add i64  %202,  %210, !dbg !4616
	store i64  %211, i64* %..inline.addr.340, align 8, !tbaa !4637, !dbg !4616
	br label %L..inline.67783
L..inline.67783:
	%212 = load %struct._Z6FsGridISt5arrayIdLm8EELi2EE*, %struct._Z6FsGridISt5arrayIdLm8EELi2EE** %..inline.addr, align 8, !tbaa !4632, !dbg !4616
	%213 = bitcast %struct._Z6FsGridISt5arrayIdLm8EELi2EE*  %212 to i8*, !dbg !4616
	%214 = getelementptr i8, i8*  %213, i64 252, !dbg !4616
	%215 = bitcast i8*  %214 to i32*, !dbg !4616
	%216 = load i32, i32*  %215, align 4, !tbaa !4633, !dbg !4616
	%217 = icmp sle i32  %216, 1, !dbg !4616
	%218 = zext i1  %217 to i32, !dbg !4616
	%219 = trunc i32  %218 to i1, !dbg !4616
	%220 = load i64, i64* %..inline.addr.340, align 8, !tbaa !4637, !dbg !4616
	%221 = load i32, i32* %..inline.addr.1, align 4, !tbaa !4635, !dbg !4616
	%222 = sext i32  %221 to i64, !dbg !4616
	%223 = add i64  %222, 2, !dbg !4616
	%224 = add i64  %220,  %223, !dbg !4616
	%225 = select i1  %219, i64  %220, i64  %224, !dbg !4616
	%226 = getelementptr i8, i8*  %213, i64 744, !dbg !4617
	%227 = bitcast i8*  %226 to i8**, !dbg !4617
	%228 = load i8*, i8**  %227, align 8, !tbaa !4632, !dbg !4617
	%229 = mul i64  %225, 64, !dbg !4617
	%230 = getelementptr i8, i8*  %228, i64  %229, !dbg !4617
	%231 = bitcast %struct._ZSt5arrayIdLm8EE** %..inline.addr.6 to i8**, !dbg !4617
	store i8*  %230, i8**  %231, align 8, !tbaa !4632, !dbg !4617
	br label %L..inline.67829
L..inline.67829:
	%232 = load double, double* @_ZN10Parameters15hallMinimumRhoqE, align 8, !tbaa !4639, !dbg !4618
	%233 = load %struct._ZSt5arrayIdLm8EE*, %struct._ZSt5arrayIdLm8EE** %..inline.addr.6, align 8, !tbaa !4632, !dbg !4618
	%234 = bitcast %struct._ZSt5arrayIdLm8EE*  %233 to i8*, !dbg !4618
	%235 = getelementptr i8, i8*  %234, i64 8, !dbg !4618
	%236 = bitcast i8*  %235 to double*, !dbg !4618
	%237 = load double, double*  %236, align 8, !tbaa !4633, !dbg !4618
	%238 = call double @llvm.maxnum.f64 (double  %232, double  %237), !dbg !4618
	%239 = fcmp uno double  %237,  %237, !dbg !4618
	%240 = select i1  %239, double  %232, double  %238, !dbg !4618
	call void @llvm.dbg.declare (metadata double* %hallRhoq.addr, metadata !4621, metadata !4571), !dbg !4063
	store double  %240, double* %hallRhoq.addr, align 8, !tbaa !4639, !dbg !4618
	%241 = load %struct._Z6FsGridISt5arrayIdLm3EELi2EE*, %struct._Z6FsGridISt5arrayIdLm3EELi2EE** %EGradPeGrid.addr, align 8, !tbaa !4632, !dbg !4622
	%242 = bitcast %struct._Z6FsGridISt5arrayIdLm3EELi2EE*  %241 to i8*, !dbg !4622
	%243 = bitcast %struct._Z6FsGridISt5arrayIdLm3EELi2EE** %..inline.addr.370 to i8**, !dbg !4622
	store i8*  %242, i8**  %243, align 8, !tbaa !4632, !dbg !4622
	%244 = load i32, i32* %i.addr, align 4, !tbaa !4635, !dbg !4622
	store i32  %244, i32* %..inline.addr.380, align 4, !tbaa !4635, !dbg !4622
	%245 = load i32, i32* %j.addr, align 4, !tbaa !4635, !dbg !4622
	store i32  %245, i32* %..inline.addr.390, align 4, !tbaa !4635, !dbg !4622
	%246 = load i32, i32* %k.addr, align 4, !tbaa !4635, !dbg !4622
	store i32  %246, i32* %..inline.addr.400, align 4, !tbaa !4635, !dbg !4622
	store i32 13, i32* %..inline.addr.410, align 4, !tbaa !4635, !dbg !4622
	%247 = bitcast [3 x i32]* %..inline.addr.420 to i32*, !dbg !4587
	store i32 0, i32*  %247, align 4, !tbaa !4633, !dbg !4587
	%248 = bitcast [3 x i32]* %..inline.addr.420 to i8*, !dbg !4588
	%249 = getelementptr i8, i8*  %248, i64 4, !dbg !4588
	%250 = bitcast i8*  %249 to i32*, !dbg !4588
	store i32 0, i32*  %250, align 4, !tbaa !4633, !dbg !4588
	%251 = getelementptr i8, i8*  %248, i64 8, !dbg !4588
	%252 = bitcast i8*  %251 to i32*, !dbg !4588
	store i32 0, i32*  %252, align 4, !tbaa !4633, !dbg !4588
	%253 = icmp sge i32  %244, 0, !dbg !4588
	br i1  %253, label %L..inline.67851, label %L.B1188, !dbg !4588
L.B1188:
	store i32 4, i32* %..inline.addr.410, align 4, !tbaa !4635, !dbg !4589
	%254 = bitcast [3 x i32]* %..inline.addr.420 to i32*, !dbg !4590
	store i32 1, i32*  %254, align 4, !tbaa !4633, !dbg !4590
	br label %L..inline.67851
L..inline.67851:
	%255 = load i32, i32* %..inline.addr.380, align 4, !tbaa !4635, !dbg !4591
	%256 = load %struct._Z6FsGridISt5arrayIdLm3EELi2EE*, %struct._Z6FsGridISt5arrayIdLm3EELi2EE** %..inline.addr.370, align 8, !tbaa !4632, !dbg !4591
	%257 = bitcast %struct._Z6FsGridISt5arrayIdLm3EELi2EE*  %256 to i8*, !dbg !4591
	%258 = getelementptr i8, i8*  %257, i64 264, !dbg !4591
	%259 = bitcast i8*  %258 to i32*, !dbg !4591
	%260 = load i32, i32*  %259, align 4, !tbaa !4633, !dbg !4591
	%261 = icmp slt i32  %255,  %260, !dbg !4591
	br i1  %261, label %L..inline.67869, label %L.B1189, !dbg !4591
L.B1189:
	%262 = load i32, i32* %..inline.addr.410, align 4, !tbaa !4635, !dbg !4591
	%263 = add i32  %262, 9, !dbg !4591
	store i32  %263, i32* %..inline.addr.410, align 4, !tbaa !4635, !dbg !4591
	%264 = bitcast [3 x i32]* %..inline.addr.420 to i32*, !dbg !4592
	store i32 -1, i32*  %264, align 4, !tbaa !4633, !dbg !4592
	br label %L..inline.67869
L..inline.67869:
	%265 = load i32, i32* %..inline.addr.390, align 4, !tbaa !4635, !dbg !4593
	%266 = icmp sge i32  %265, 0, !dbg !4593
	br i1  %266, label %L..inline.67871, label %L.B1190, !dbg !4593
L.B1190:
	%267 = load i32, i32* %..inline.addr.410, align 4, !tbaa !4635, !dbg !4593
	%268 = sub i32  %267, 3, !dbg !4593
	store i32  %268, i32* %..inline.addr.410, align 4, !tbaa !4635, !dbg !4593
	%269 = bitcast [3 x i32]* %..inline.addr.420 to i8*, !dbg !4594
	%270 = getelementptr i8, i8*  %269, i64 4, !dbg !4594
	%271 = bitcast i8*  %270 to i32*, !dbg !4594
	store i32 1, i32*  %271, align 4, !tbaa !4633, !dbg !4594
	br label %L..inline.67871
L..inline.67871:
	%272 = load i32, i32* %..inline.addr.390, align 4, !tbaa !4635, !dbg !4595
	%273 = load %struct._Z6FsGridISt5arrayIdLm3EELi2EE*, %struct._Z6FsGridISt5arrayIdLm3EELi2EE** %..inline.addr.370, align 8, !tbaa !4632, !dbg !4595
	%274 = bitcast %struct._Z6FsGridISt5arrayIdLm3EELi2EE*  %273 to i8*, !dbg !4595
	%275 = getelementptr i8, i8*  %274, i64 268, !dbg !4595
	%276 = bitcast i8*  %275 to i32*, !dbg !4595
	%277 = load i32, i32*  %276, align 4, !tbaa !4633, !dbg !4595
	%278 = icmp slt i32  %272,  %277, !dbg !4595
	br i1  %278, label %L..inline.67888, label %L.B1191, !dbg !4595
L.B1191:
	%279 = load i32, i32* %..inline.addr.410, align 4, !tbaa !4635, !dbg !4595
	%280 = add i32  %279, 3, !dbg !4595
	store i32  %280, i32* %..inline.addr.410, align 4, !tbaa !4635, !dbg !4595
	%281 = bitcast [3 x i32]* %..inline.addr.420 to i8*, !dbg !4596
	%282 = getelementptr i8, i8*  %281, i64 4, !dbg !4596
	%283 = bitcast i8*  %282 to i32*, !dbg !4596
	store i32 -1, i32*  %283, align 4, !tbaa !4633, !dbg !4596
	br label %L..inline.67888
L..inline.67888:
	%284 = load i32, i32* %..inline.addr.400, align 4, !tbaa !4635, !dbg !4597
	%285 = icmp sge i32  %284, 0, !dbg !4597
	br i1  %285, label %L..inline.67890, label %L.B1192, !dbg !4597
L.B1192:
	%286 = load i32, i32* %..inline.addr.410, align 4, !tbaa !4635, !dbg !4597
	%287 = sub i32  %286, 1, !dbg !4597
	store i32  %287, i32* %..inline.addr.410, align 4, !tbaa !4635, !dbg !4597
	%288 = bitcast [3 x i32]* %..inline.addr.420 to i8*, !dbg !4598
	%289 = getelementptr i8, i8*  %288, i64 8, !dbg !4598
	%290 = bitcast i8*  %289 to i32*, !dbg !4598
	store i32 1, i32*  %290, align 4, !tbaa !4633, !dbg !4598
	br label %L..inline.67890
L..inline.67890:
	%291 = load i32, i32* %..inline.addr.400, align 4, !tbaa !4635, !dbg !4599
	%292 = load %struct._Z6FsGridISt5arrayIdLm3EELi2EE*, %struct._Z6FsGridISt5arrayIdLm3EELi2EE** %..inline.addr.370, align 8, !tbaa !4632, !dbg !4599
	%293 = bitcast %struct._Z6FsGridISt5arrayIdLm3EELi2EE*  %292 to i8*, !dbg !4599
	%294 = getelementptr i8, i8*  %293, i64 272, !dbg !4599
	%295 = bitcast i8*  %294 to i32*, !dbg !4599
	%296 = load i32, i32*  %295, align 4, !tbaa !4633, !dbg !4599
	%297 = icmp slt i32  %291,  %296, !dbg !4599
	br i1  %297, label %L..inline.67907, label %L.B1193, !dbg !4599
L.B1193:
	%298 = load i32, i32* %..inline.addr.410, align 4, !tbaa !4635, !dbg !4599
	%299 = add i32  %298, 1, !dbg !4599
	store i32  %299, i32* %..inline.addr.410, align 4, !tbaa !4635, !dbg !4599
	%300 = bitcast [3 x i32]* %..inline.addr.420 to i8*, !dbg !4600
	%301 = getelementptr i8, i8*  %300, i64 8, !dbg !4600
	%302 = bitcast i8*  %301 to i32*, !dbg !4600
	store i32 -1, i32*  %302, align 4, !tbaa !4633, !dbg !4600
	br label %L..inline.67907
L..inline.67907:
	%303 = load i32, i32* %..inline.addr.410, align 4, !tbaa !4635, !dbg !4601
	%304 = icmp eq i32  %303, 13, !dbg !4601
	br i1  %304, label %L..inline.67908, label %L.B1194, !dbg !4601
L.B1194:
	%305 = sext i32  %303 to i64, !dbg !4602
	%306 = load %struct._Z6FsGridISt5arrayIdLm3EELi2EE*, %struct._Z6FsGridISt5arrayIdLm3EELi2EE** %..inline.addr.370, align 8, !tbaa !4632, !dbg !4602
	%307 = bitcast %struct._Z6FsGridISt5arrayIdLm3EELi2EE*  %306 to i8*, !dbg !4602
	%308 = getelementptr i8, i8*  %307, i64 92, !dbg !4602
	%309 = bitcast i8*  %308 to i32*, !dbg !4602
	%310 = getelementptr i32, i32*  %309, i64  %305, !dbg !4602
	%311 = load i32, i32*  %310, align 4, !tbaa !4633, !dbg !4602
	%312 = icmp ne i32  %311, -2, !dbg !4602
	br i1  %312, label %L..inline.67925, label %L.B1195, !dbg !4602
L.B1195:
	%313 = bitcast %struct._ZSt5arrayIdLm3EE** %..inline.addr.430 to i8**, !dbg !4602
	store i8* null, i8**  %313, align 8, !tbaa !4632, !dbg !4602
	br label %L..inline.68112, !dbg !4603
L..inline.67925:
	%314 = load i32, i32* %..inline.addr.410, align 4, !tbaa !4635, !dbg !4612
	%315 = sext i32  %314 to i64, !dbg !4612
	%316 = load %struct._Z6FsGridISt5arrayIdLm3EELi2EE*, %struct._Z6FsGridISt5arrayIdLm3EELi2EE** %..inline.addr.370, align 8, !tbaa !4632, !dbg !4612
	%317 = bitcast %struct._Z6FsGridISt5arrayIdLm3EELi2EE*  %316 to i8*, !dbg !4612
	%318 = getelementptr i8, i8*  %317, i64 92, !dbg !4612
	%319 = bitcast i8*  %318 to i32*, !dbg !4612
	%320 = getelementptr i32, i32*  %319, i64  %315, !dbg !4612
	%321 = load i32, i32*  %320, align 4, !tbaa !4633, !dbg !4612
	%322 = getelementptr i8, i8*  %317, i64 56, !dbg !4612
	%323 = bitcast i8*  %322 to i32*, !dbg !4612
	%324 = load i32, i32*  %323, align 4, !tbaa !4633, !dbg !4612
	%325 = icmp ne i32  %321,  %324, !dbg !4612
	br i1  %325, label %L..inline.67943, label %L.B1196, !dbg !4612
L.B1196:
	%326 = load i32, i32* %..inline.addr.380, align 4, !tbaa !4635, !dbg !4613
	%327 = bitcast [3 x i32]* %..inline.addr.420 to i32*, !dbg !4613
	%328 = load i32, i32*  %327, align 4, !tbaa !4633, !dbg !4613
	%329 = bitcast %struct._Z6FsGridISt5arrayIdLm3EELi2EE*  %316 to i8*, !dbg !4613
	%330 = getelementptr i8, i8*  %329, i64 264, !dbg !4613
	%331 = bitcast i8*  %330 to i32*, !dbg !4613
	%332 = load i32, i32*  %331, align 4, !tbaa !4633, !dbg !4613
	%333 = mul i32  %328,  %332, !dbg !4613
	%334 = add i32  %326,  %333, !dbg !4613
	store i32  %334, i32* %..inline.addr.380, align 4, !tbaa !4635, !dbg !4613
	%335 = load i32, i32* %..inline.addr.390, align 4, !tbaa !4635, !dbg !4614
	%336 = bitcast [3 x i32]* %..inline.addr.420 to i8*, !dbg !4614
	%337 = getelementptr i8, i8*  %336, i64 4, !dbg !4614
	%338 = bitcast i8*  %337 to i32*, !dbg !4614
	%339 = load i32, i32*  %338, align 4, !tbaa !4633, !dbg !4614
	%340 = getelementptr i8, i8*  %329, i64 268, !dbg !4614
	%341 = bitcast i8*  %340 to i32*, !dbg !4614
	%342 = load i32, i32*  %341, align 4, !tbaa !4633, !dbg !4614
	%343 = mul i32  %339,  %342, !dbg !4614
	%344 = add i32  %335,  %343, !dbg !4614
	store i32  %344, i32* %..inline.addr.390, align 4, !tbaa !4635, !dbg !4614
	%345 = load i32, i32* %..inline.addr.400, align 4, !tbaa !4635, !dbg !4615
	%346 = getelementptr i8, i8*  %336, i64 8, !dbg !4615
	%347 = bitcast i8*  %346 to i32*, !dbg !4615
	%348 = load i32, i32*  %347, align 4, !tbaa !4633, !dbg !4615
	%349 = getelementptr i8, i8*  %329, i64 272, !dbg !4615
	%350 = bitcast i8*  %349 to i32*, !dbg !4615
	%351 = load i32, i32*  %350, align 4, !tbaa !4633, !dbg !4615
	%352 = mul i32  %348,  %351, !dbg !4615
	%353 = add i32  %345,  %352, !dbg !4615
	store i32  %353, i32* %..inline.addr.400, align 4, !tbaa !4635, !dbg !4615
	br label %L..inline.67943
L..inline.67943:
	br label %L..inline.67908
L..inline.67908:
	store i64 0, i64* %..inline.addr.440, align 8, !tbaa !4637, !dbg !4616
	%354 = load %struct._Z6FsGridISt5arrayIdLm3EELi2EE*, %struct._Z6FsGridISt5arrayIdLm3EELi2EE** %..inline.addr.370, align 8, !tbaa !4632, !dbg !4616
	%355 = bitcast %struct._Z6FsGridISt5arrayIdLm3EELi2EE*  %354 to i8*, !dbg !4616
	%356 = getelementptr i8, i8*  %355, i64 260, !dbg !4616
	%357 = bitcast i8*  %356 to i32*, !dbg !4616
	%358 = load i32, i32*  %357, align 4, !tbaa !4633, !dbg !4616
	%359 = icmp sle i32  %358, 1, !dbg !4616
	br i1  %359, label %L..inline.68017, label %L.B1197, !dbg !4616
L.B1197:
	%360 = load i32, i32* %..inline.addr.400, align 4, !tbaa !4635, !dbg !4616
	%361 = add i32  %360, 2, !dbg !4616
	%362 = bitcast %struct._Z6FsGridISt5arrayIdLm3EELi2EE*  %354 to i8*, !dbg !4616
	%363 = getelementptr i8, i8*  %362, i64 280, !dbg !4616
	%364 = bitcast i8*  %363 to i32*, !dbg !4616
	%365 = load i32, i32*  %364, align 4, !tbaa !4633, !dbg !4616
	%366 = getelementptr i8, i8*  %362, i64 276, !dbg !4616
	%367 = bitcast i8*  %366 to i32*, !dbg !4616
	%368 = load i32, i32*  %367, align 4, !tbaa !4633, !dbg !4616
	%369 = mul i32  %365,  %368, !dbg !4616
	%370 = mul i32  %361,  %369, !dbg !4616
	%371 = sext i32  %370 to i64, !dbg !4616
	store i64  %371, i64* %..inline.addr.440, align 8, !tbaa !4637, !dbg !4616
	br label %L..inline.68017
L..inline.68017:
	%372 = load %struct._Z6FsGridISt5arrayIdLm3EELi2EE*, %struct._Z6FsGridISt5arrayIdLm3EELi2EE** %..inline.addr.370, align 8, !tbaa !4632, !dbg !4616
	%373 = bitcast %struct._Z6FsGridISt5arrayIdLm3EELi2EE*  %372 to i8*, !dbg !4616
	%374 = getelementptr i8, i8*  %373, i64 256, !dbg !4616
	%375 = bitcast i8*  %374 to i32*, !dbg !4616
	%376 = load i32, i32*  %375, align 4, !tbaa !4633, !dbg !4616
	%377 = icmp sle i32  %376, 1, !dbg !4616
	br i1  %377, label %L..inline.68066, label %L.B1198, !dbg !4616
L.B1198:
	%378 = load i64, i64* %..inline.addr.440, align 8, !tbaa !4637, !dbg !4616
	%379 = bitcast %struct._Z6FsGridISt5arrayIdLm3EELi2EE*  %372 to i8*, !dbg !4616
	%380 = getelementptr i8, i8*  %379, i64 276, !dbg !4616
	%381 = bitcast i8*  %380 to i32*, !dbg !4616
	%382 = load i32, i32*  %381, align 4, !tbaa !4633, !dbg !4616
	%383 = load i32, i32* %..inline.addr.390, align 4, !tbaa !4635, !dbg !4616
	%384 = add i32  %383, 2, !dbg !4616
	%385 = mul i32  %382,  %384, !dbg !4616
	%386 = sext i32  %385 to i64, !dbg !4616
	%387 = add i64  %378,  %386, !dbg !4616
	store i64  %387, i64* %..inline.addr.440, align 8, !tbaa !4637, !dbg !4616
	br label %L..inline.68066
L..inline.68066:
	%388 = load %struct._Z6FsGridISt5arrayIdLm3EELi2EE*, %struct._Z6FsGridISt5arrayIdLm3EELi2EE** %..inline.addr.370, align 8, !tbaa !4632, !dbg !4616
	%389 = bitcast %struct._Z6FsGridISt5arrayIdLm3EELi2EE*  %388 to i8*, !dbg !4616
	%390 = getelementptr i8, i8*  %389, i64 252, !dbg !4616
	%391 = bitcast i8*  %390 to i32*, !dbg !4616
	%392 = load i32, i32*  %391, align 4, !tbaa !4633, !dbg !4616
	%393 = icmp sle i32  %392, 1, !dbg !4616
	%394 = zext i1  %393 to i32, !dbg !4616
	%395 = trunc i32  %394 to i1, !dbg !4616
	%396 = load i64, i64* %..inline.addr.440, align 8, !tbaa !4637, !dbg !4616
	%397 = load i32, i32* %..inline.addr.380, align 4, !tbaa !4635, !dbg !4616
	%398 = sext i32  %397 to i64, !dbg !4616
	%399 = add i64  %398, 2, !dbg !4616
	%400 = add i64  %396,  %399, !dbg !4616
	%401 = select i1  %395, i64  %396, i64  %400, !dbg !4616
	%402 = getelementptr i8, i8*  %389, i64 744, !dbg !4617
	%403 = bitcast i8*  %402 to i8**, !dbg !4617
	%404 = load i8*, i8**  %403, align 8, !tbaa !4632, !dbg !4617
	%405 = mul i64  %401, 24, !dbg !4617
	%406 = getelementptr i8, i8*  %404, i64  %405, !dbg !4617
	%407 = bitcast %struct._ZSt5arrayIdLm3EE** %..inline.addr.430 to i8**, !dbg !4617
	store i8*  %406, i8**  %407, align 8, !tbaa !4632, !dbg !4617
	br label %L..inline.68112
L..inline.68112:
	%408 = load %struct._ZSt5arrayIdLm3EE*, %struct._ZSt5arrayIdLm3EE** %..inline.addr.430, align 8, !tbaa !4632, !dbg !4623
	%409 = bitcast %struct._ZSt5arrayIdLm3EE*  %408 to i8*, !dbg !4623
	%410 = bitcast double** %..inline.addr.450 to i8**, !dbg !4623
	store i8*  %409, i8**  %410, align 8, !tbaa !4632, !dbg !4623
	%411 = load %struct._Z6FsGridISt5arrayIdLm24EELi2EE*, %struct._Z6FsGridISt5arrayIdLm24EELi2EE** %dMomentsGrid.addr, align 8, !tbaa !4632, !dbg !4624
	%412 = bitcast %struct._Z6FsGridISt5arrayIdLm24EELi2EE*  %411 to i8*, !dbg !4624
	%413 = bitcast %struct._Z6FsGridISt5arrayIdLm24EELi2EE** %..inline.addr.460 to i8**, !dbg !4624
	store i8*  %412, i8**  %413, align 8, !tbaa !4632, !dbg !4624
	%414 = load i32, i32* %i.addr, align 4, !tbaa !4635, !dbg !4622
	store i32  %414, i32* %..inline.addr.470, align 4, !tbaa !4635, !dbg !4622
	%415 = load i32, i32* %j.addr, align 4, !tbaa !4635, !dbg !4622
	store i32  %415, i32* %..inline.addr.480, align 4, !tbaa !4635, !dbg !4622
	%416 = load i32, i32* %k.addr, align 4, !tbaa !4635, !dbg !4622
	store i32  %416, i32* %..inline.addr.490, align 4, !tbaa !4635, !dbg !4622
	store i32 13, i32* %..inline.addr.500, align 4, !tbaa !4635, !dbg !4622
	%417 = bitcast [3 x i32]* %..inline.addr.510 to i32*, !dbg !4587
	store i32 0, i32*  %417, align 4, !tbaa !4633, !dbg !4587
	%418 = bitcast [3 x i32]* %..inline.addr.510 to i8*, !dbg !4588
	%419 = getelementptr i8, i8*  %418, i64 4, !dbg !4588
	%420 = bitcast i8*  %419 to i32*, !dbg !4588
	store i32 0, i32*  %420, align 4, !tbaa !4633, !dbg !4588
	%421 = getelementptr i8, i8*  %418, i64 8, !dbg !4588
	%422 = bitcast i8*  %421 to i32*, !dbg !4588
	store i32 0, i32*  %422, align 4, !tbaa !4633, !dbg !4588
	%423 = icmp sge i32  %414, 0, !dbg !4588
	br i1  %423, label %L..inline.68132, label %L.B1199, !dbg !4588
L.B1199:
	store i32 4, i32* %..inline.addr.500, align 4, !tbaa !4635, !dbg !4589
	%424 = bitcast [3 x i32]* %..inline.addr.510 to i32*, !dbg !4590
	store i32 1, i32*  %424, align 4, !tbaa !4633, !dbg !4590
	br label %L..inline.68132
L..inline.68132:
	%425 = load i32, i32* %..inline.addr.470, align 4, !tbaa !4635, !dbg !4591
	%426 = load %struct._Z6FsGridISt5arrayIdLm24EELi2EE*, %struct._Z6FsGridISt5arrayIdLm24EELi2EE** %..inline.addr.460, align 8, !tbaa !4632, !dbg !4591
	%427 = bitcast %struct._Z6FsGridISt5arrayIdLm24EELi2EE*  %426 to i8*, !dbg !4591
	%428 = getelementptr i8, i8*  %427, i64 264, !dbg !4591
	%429 = bitcast i8*  %428 to i32*, !dbg !4591
	%430 = load i32, i32*  %429, align 4, !tbaa !4633, !dbg !4591
	%431 = icmp slt i32  %425,  %430, !dbg !4591
	br i1  %431, label %L..inline.68150, label %L.B1200, !dbg !4591
L.B1200:
	%432 = load i32, i32* %..inline.addr.500, align 4, !tbaa !4635, !dbg !4591
	%433 = add i32  %432, 9, !dbg !4591
	store i32  %433, i32* %..inline.addr.500, align 4, !tbaa !4635, !dbg !4591
	%434 = bitcast [3 x i32]* %..inline.addr.510 to i32*, !dbg !4592
	store i32 -1, i32*  %434, align 4, !tbaa !4633, !dbg !4592
	br label %L..inline.68150
L..inline.68150:
	%435 = load i32, i32* %..inline.addr.480, align 4, !tbaa !4635, !dbg !4593
	%436 = icmp sge i32  %435, 0, !dbg !4593
	br i1  %436, label %L..inline.68152, label %L.B1201, !dbg !4593
L.B1201:
	%437 = load i32, i32* %..inline.addr.500, align 4, !tbaa !4635, !dbg !4593
	%438 = sub i32  %437, 3, !dbg !4593
	store i32  %438, i32* %..inline.addr.500, align 4, !tbaa !4635, !dbg !4593
	%439 = bitcast [3 x i32]* %..inline.addr.510 to i8*, !dbg !4594
	%440 = getelementptr i8, i8*  %439, i64 4, !dbg !4594
	%441 = bitcast i8*  %440 to i32*, !dbg !4594
	store i32 1, i32*  %441, align 4, !tbaa !4633, !dbg !4594
	br label %L..inline.68152
L..inline.68152:
	%442 = load i32, i32* %..inline.addr.480, align 4, !tbaa !4635, !dbg !4595
	%443 = load %struct._Z6FsGridISt5arrayIdLm24EELi2EE*, %struct._Z6FsGridISt5arrayIdLm24EELi2EE** %..inline.addr.460, align 8, !tbaa !4632, !dbg !4595
	%444 = bitcast %struct._Z6FsGridISt5arrayIdLm24EELi2EE*  %443 to i8*, !dbg !4595
	%445 = getelementptr i8, i8*  %444, i64 268, !dbg !4595
	%446 = bitcast i8*  %445 to i32*, !dbg !4595
	%447 = load i32, i32*  %446, align 4, !tbaa !4633, !dbg !4595
	%448 = icmp slt i32  %442,  %447, !dbg !4595
	br i1  %448, label %L..inline.68169, label %L.B1202, !dbg !4595
L.B1202:
	%449 = load i32, i32* %..inline.addr.500, align 4, !tbaa !4635, !dbg !4595
	%450 = add i32  %449, 3, !dbg !4595
	store i32  %450, i32* %..inline.addr.500, align 4, !tbaa !4635, !dbg !4595
	%451 = bitcast [3 x i32]* %..inline.addr.510 to i8*, !dbg !4596
	%452 = getelementptr i8, i8*  %451, i64 4, !dbg !4596
	%453 = bitcast i8*  %452 to i32*, !dbg !4596
	store i32 -1, i32*  %453, align 4, !tbaa !4633, !dbg !4596
	br label %L..inline.68169
L..inline.68169:
	%454 = load i32, i32* %..inline.addr.490, align 4, !tbaa !4635, !dbg !4597
	%455 = icmp sge i32  %454, 0, !dbg !4597
	br i1  %455, label %L..inline.68171, label %L.B1203, !dbg !4597
L.B1203:
	%456 = load i32, i32* %..inline.addr.500, align 4, !tbaa !4635, !dbg !4597
	%457 = sub i32  %456, 1, !dbg !4597
	store i32  %457, i32* %..inline.addr.500, align 4, !tbaa !4635, !dbg !4597
	%458 = bitcast [3 x i32]* %..inline.addr.510 to i8*, !dbg !4598
	%459 = getelementptr i8, i8*  %458, i64 8, !dbg !4598
	%460 = bitcast i8*  %459 to i32*, !dbg !4598
	store i32 1, i32*  %460, align 4, !tbaa !4633, !dbg !4598
	br label %L..inline.68171
L..inline.68171:
	%461 = load i32, i32* %..inline.addr.490, align 4, !tbaa !4635, !dbg !4599
	%462 = load %struct._Z6FsGridISt5arrayIdLm24EELi2EE*, %struct._Z6FsGridISt5arrayIdLm24EELi2EE** %..inline.addr.460, align 8, !tbaa !4632, !dbg !4599
	%463 = bitcast %struct._Z6FsGridISt5arrayIdLm24EELi2EE*  %462 to i8*, !dbg !4599
	%464 = getelementptr i8, i8*  %463, i64 272, !dbg !4599
	%465 = bitcast i8*  %464 to i32*, !dbg !4599
	%466 = load i32, i32*  %465, align 4, !tbaa !4633, !dbg !4599
	%467 = icmp slt i32  %461,  %466, !dbg !4599
	br i1  %467, label %L..inline.68188, label %L.B1204, !dbg !4599
L.B1204:
	%468 = load i32, i32* %..inline.addr.500, align 4, !tbaa !4635, !dbg !4599
	%469 = add i32  %468, 1, !dbg !4599
	store i32  %469, i32* %..inline.addr.500, align 4, !tbaa !4635, !dbg !4599
	%470 = bitcast [3 x i32]* %..inline.addr.510 to i8*, !dbg !4600
	%471 = getelementptr i8, i8*  %470, i64 8, !dbg !4600
	%472 = bitcast i8*  %471 to i32*, !dbg !4600
	store i32 -1, i32*  %472, align 4, !tbaa !4633, !dbg !4600
	br label %L..inline.68188
L..inline.68188:
	%473 = load i32, i32* %..inline.addr.500, align 4, !tbaa !4635, !dbg !4601
	%474 = icmp eq i32  %473, 13, !dbg !4601
	br i1  %474, label %L..inline.68189, label %L.B1205, !dbg !4601
L.B1205:
	%475 = sext i32  %473 to i64, !dbg !4602
	%476 = load %struct._Z6FsGridISt5arrayIdLm24EELi2EE*, %struct._Z6FsGridISt5arrayIdLm24EELi2EE** %..inline.addr.460, align 8, !tbaa !4632, !dbg !4602
	%477 = bitcast %struct._Z6FsGridISt5arrayIdLm24EELi2EE*  %476 to i8*, !dbg !4602
	%478 = getelementptr i8, i8*  %477, i64 92, !dbg !4602
	%479 = bitcast i8*  %478 to i32*, !dbg !4602
	%480 = getelementptr i32, i32*  %479, i64  %475, !dbg !4602
	%481 = load i32, i32*  %480, align 4, !tbaa !4633, !dbg !4602
	%482 = icmp ne i32  %481, -2, !dbg !4602
	br i1  %482, label %L..inline.68206, label %L.B1206, !dbg !4602
L.B1206:
	%483 = bitcast %struct._ZSt5arrayIdLm24EE** %..inline.addr.520 to i8**, !dbg !4602
	store i8* null, i8**  %483, align 8, !tbaa !4632, !dbg !4602
	br label %L..inline.68393, !dbg !4603
L..inline.68206:
	%484 = load i32, i32* %..inline.addr.500, align 4, !tbaa !4635, !dbg !4612
	%485 = sext i32  %484 to i64, !dbg !4612
	%486 = load %struct._Z6FsGridISt5arrayIdLm24EELi2EE*, %struct._Z6FsGridISt5arrayIdLm24EELi2EE** %..inline.addr.460, align 8, !tbaa !4632, !dbg !4612
	%487 = bitcast %struct._Z6FsGridISt5arrayIdLm24EELi2EE*  %486 to i8*, !dbg !4612
	%488 = getelementptr i8, i8*  %487, i64 92, !dbg !4612
	%489 = bitcast i8*  %488 to i32*, !dbg !4612
	%490 = getelementptr i32, i32*  %489, i64  %485, !dbg !4612
	%491 = load i32, i32*  %490, align 4, !tbaa !4633, !dbg !4612
	%492 = getelementptr i8, i8*  %487, i64 56, !dbg !4612
	%493 = bitcast i8*  %492 to i32*, !dbg !4612
	%494 = load i32, i32*  %493, align 4, !tbaa !4633, !dbg !4612
	%495 = icmp ne i32  %491,  %494, !dbg !4612
	br i1  %495, label %L..inline.68224, label %L.B1207, !dbg !4612
L.B1207:
	%496 = load i32, i32* %..inline.addr.470, align 4, !tbaa !4635, !dbg !4613
	%497 = bitcast [3 x i32]* %..inline.addr.510 to i32*, !dbg !4613
	%498 = load i32, i32*  %497, align 4, !tbaa !4633, !dbg !4613
	%499 = bitcast %struct._Z6FsGridISt5arrayIdLm24EELi2EE*  %486 to i8*, !dbg !4613
	%500 = getelementptr i8, i8*  %499, i64 264, !dbg !4613
	%501 = bitcast i8*  %500 to i32*, !dbg !4613
	%502 = load i32, i32*  %501, align 4, !tbaa !4633, !dbg !4613
	%503 = mul i32  %498,  %502, !dbg !4613
	%504 = add i32  %496,  %503, !dbg !4613
	store i32  %504, i32* %..inline.addr.470, align 4, !tbaa !4635, !dbg !4613
	%505 = load i32, i32* %..inline.addr.480, align 4, !tbaa !4635, !dbg !4614
	%506 = bitcast [3 x i32]* %..inline.addr.510 to i8*, !dbg !4614
	%507 = getelementptr i8, i8*  %506, i64 4, !dbg !4614
	%508 = bitcast i8*  %507 to i32*, !dbg !4614
	%509 = load i32, i32*  %508, align 4, !tbaa !4633, !dbg !4614
	%510 = getelementptr i8, i8*  %499, i64 268, !dbg !4614
	%511 = bitcast i8*  %510 to i32*, !dbg !4614
	%512 = load i32, i32*  %511, align 4, !tbaa !4633, !dbg !4614
	%513 = mul i32  %509,  %512, !dbg !4614
	%514 = add i32  %505,  %513, !dbg !4614
	store i32  %514, i32* %..inline.addr.480, align 4, !tbaa !4635, !dbg !4614
	%515 = load i32, i32* %..inline.addr.490, align 4, !tbaa !4635, !dbg !4615
	%516 = getelementptr i8, i8*  %506, i64 8, !dbg !4615
	%517 = bitcast i8*  %516 to i32*, !dbg !4615
	%518 = load i32, i32*  %517, align 4, !tbaa !4633, !dbg !4615
	%519 = getelementptr i8, i8*  %499, i64 272, !dbg !4615
	%520 = bitcast i8*  %519 to i32*, !dbg !4615
	%521 = load i32, i32*  %520, align 4, !tbaa !4633, !dbg !4615
	%522 = mul i32  %518,  %521, !dbg !4615
	%523 = add i32  %515,  %522, !dbg !4615
	store i32  %523, i32* %..inline.addr.490, align 4, !tbaa !4635, !dbg !4615
	br label %L..inline.68224
L..inline.68224:
	br label %L..inline.68189
L..inline.68189:
	store i64 0, i64* %..inline.addr.530, align 8, !tbaa !4637, !dbg !4616
	%524 = load %struct._Z6FsGridISt5arrayIdLm24EELi2EE*, %struct._Z6FsGridISt5arrayIdLm24EELi2EE** %..inline.addr.460, align 8, !tbaa !4632, !dbg !4616
	%525 = bitcast %struct._Z6FsGridISt5arrayIdLm24EELi2EE*  %524 to i8*, !dbg !4616
	%526 = getelementptr i8, i8*  %525, i64 260, !dbg !4616
	%527 = bitcast i8*  %526 to i32*, !dbg !4616
	%528 = load i32, i32*  %527, align 4, !tbaa !4633, !dbg !4616
	%529 = icmp sle i32  %528, 1, !dbg !4616
	br i1  %529, label %L..inline.68298, label %L.B1208, !dbg !4616
L.B1208:
	%530 = load i32, i32* %..inline.addr.490, align 4, !tbaa !4635, !dbg !4616
	%531 = add i32  %530, 2, !dbg !4616
	%532 = bitcast %struct._Z6FsGridISt5arrayIdLm24EELi2EE*  %524 to i8*, !dbg !4616
	%533 = getelementptr i8, i8*  %532, i64 280, !dbg !4616
	%534 = bitcast i8*  %533 to i32*, !dbg !4616
	%535 = load i32, i32*  %534, align 4, !tbaa !4633, !dbg !4616
	%536 = getelementptr i8, i8*  %532, i64 276, !dbg !4616
	%537 = bitcast i8*  %536 to i32*, !dbg !4616
	%538 = load i32, i32*  %537, align 4, !tbaa !4633, !dbg !4616
	%539 = mul i32  %535,  %538, !dbg !4616
	%540 = mul i32  %531,  %539, !dbg !4616
	%541 = sext i32  %540 to i64, !dbg !4616
	store i64  %541, i64* %..inline.addr.530, align 8, !tbaa !4637, !dbg !4616
	br label %L..inline.68298
L..inline.68298:
	%542 = load %struct._Z6FsGridISt5arrayIdLm24EELi2EE*, %struct._Z6FsGridISt5arrayIdLm24EELi2EE** %..inline.addr.460, align 8, !tbaa !4632, !dbg !4616
	%543 = bitcast %struct._Z6FsGridISt5arrayIdLm24EELi2EE*  %542 to i8*, !dbg !4616
	%544 = getelementptr i8, i8*  %543, i64 256, !dbg !4616
	%545 = bitcast i8*  %544 to i32*, !dbg !4616
	%546 = load i32, i32*  %545, align 4, !tbaa !4633, !dbg !4616
	%547 = icmp sle i32  %546, 1, !dbg !4616
	br i1  %547, label %L..inline.68347, label %L.B1209, !dbg !4616
L.B1209:
	%548 = load i64, i64* %..inline.addr.530, align 8, !tbaa !4637, !dbg !4616
	%549 = bitcast %struct._Z6FsGridISt5arrayIdLm24EELi2EE*  %542 to i8*, !dbg !4616
	%550 = getelementptr i8, i8*  %549, i64 276, !dbg !4616
	%551 = bitcast i8*  %550 to i32*, !dbg !4616
	%552 = load i32, i32*  %551, align 4, !tbaa !4633, !dbg !4616
	%553 = load i32, i32* %..inline.addr.480, align 4, !tbaa !4635, !dbg !4616
	%554 = add i32  %553, 2, !dbg !4616
	%555 = mul i32  %552,  %554, !dbg !4616
	%556 = sext i32  %555 to i64, !dbg !4616
	%557 = add i64  %548,  %556, !dbg !4616
	store i64  %557, i64* %..inline.addr.530, align 8, !tbaa !4637, !dbg !4616
	br label %L..inline.68347
L..inline.68347:
	%558 = load %struct._Z6FsGridISt5arrayIdLm24EELi2EE*, %struct._Z6FsGridISt5arrayIdLm24EELi2EE** %..inline.addr.460, align 8, !tbaa !4632, !dbg !4616
	%559 = bitcast %struct._Z6FsGridISt5arrayIdLm24EELi2EE*  %558 to i8*, !dbg !4616
	%560 = getelementptr i8, i8*  %559, i64 252, !dbg !4616
	%561 = bitcast i8*  %560 to i32*, !dbg !4616
	%562 = load i32, i32*  %561, align 4, !tbaa !4633, !dbg !4616
	%563 = icmp sle i32  %562, 1, !dbg !4616
	%564 = zext i1  %563 to i32, !dbg !4616
	%565 = trunc i32  %564 to i1, !dbg !4616
	%566 = load i64, i64* %..inline.addr.530, align 8, !tbaa !4637, !dbg !4616
	%567 = load i32, i32* %..inline.addr.470, align 4, !tbaa !4635, !dbg !4616
	%568 = sext i32  %567 to i64, !dbg !4616
	%569 = add i64  %568, 2, !dbg !4616
	%570 = add i64  %566,  %569, !dbg !4616
	%571 = select i1  %565, i64  %566, i64  %570, !dbg !4616
	%572 = getelementptr i8, i8*  %559, i64 744, !dbg !4617
	%573 = bitcast i8*  %572 to i8**, !dbg !4617
	%574 = load i8*, i8**  %573, align 8, !tbaa !4632, !dbg !4617
	%575 = mul i64  %571, 192, !dbg !4617
	%576 = getelementptr i8, i8*  %574, i64  %575, !dbg !4617
	%577 = bitcast %struct._ZSt5arrayIdLm24EE** %..inline.addr.520 to i8**, !dbg !4617
	store i8*  %576, i8**  %577, align 8, !tbaa !4632, !dbg !4617
	br label %L..inline.68393
L..inline.68393:
	%578 = load double, double* @_ZN10Parameters19electronTemperatureE, align 8, !tbaa !4639, !dbg !4624
	%579 = fmul double  %578, -1.38065030000000010E-23, !dbg !4624
	%580 = load %struct._ZSt5arrayIdLm24EE*, %struct._ZSt5arrayIdLm24EE** %..inline.addr.520, align 8, !tbaa !4632, !dbg !4624
	%581 = bitcast %struct._ZSt5arrayIdLm24EE*  %580 to i8*, !dbg !4624
	%582 = getelementptr i8, i8*  %581, i64 24, !dbg !4624
	%583 = bitcast i8*  %582 to double*, !dbg !4624
	%584 = load double, double*  %583, align 8, !tbaa !4633, !dbg !4624
	%585 = fmul double  %579,  %584, !dbg !4624
	%586 = load %struct._Z6FsGridISt5arrayIdLm3EELi2EE*, %struct._Z6FsGridISt5arrayIdLm3EELi2EE** %EGradPeGrid.addr, align 8, !tbaa !4632, !dbg !4624
	%587 = bitcast %struct._Z6FsGridISt5arrayIdLm3EELi2EE*  %586 to double*, !dbg !4624
	%588 = load double, double*  %587, align 8, !tbaa !4633, !dbg !4624
	%589 = load double, double* %hallRhoq.addr, align 8, !tbaa !4639, !dbg !4624
	%590 = fmul double  %588,  %589, !dbg !4624
	%591 = fdiv double  %585,  %590, !dbg !4624
	%592 = load double*, double** %..inline.addr.450, align 8, !tbaa !4632, !dbg !4624
	store double  %591, double*  %592, align 8, !tbaa !4633, !dbg !4624
	br label %L_T18499824_50930, !dbg !4627
L.B0004:
	%593 = bitcast [27 x i8]* @.S52189 to i8*, !dbg !4628
	%594 = icmp ne i8*  %593,  null, !dbg !4628
	br i1  %594, label %L..inline.68415, label %L.B1210, !dbg !4628
L.B1210:
	%595 = bitcast %struct._ZSo* @_ZSt4cerr to i8*, !dbg !4605
	%596 = bitcast %struct._ZSo* @_ZSt4cerr to i8**, !dbg !4605
	%597 = load i8*, i8**  %596, align 8, !tbaa !4632, !dbg !4605
	%598 = getelementptr i8, i8*  %597, i64 18446744073709551592, !dbg !4605
	%599 = bitcast i8*  %598 to i64*, !dbg !4605
	%600 = load i64, i64*  %599, align 8, !tbaa !4633, !dbg !4605
	%601 = getelementptr i8, i8*  %595, i64  %600, !dbg !4605
	%602 = bitcast %struct._ZSt9basic_iosIcSt11char_traitsIcEE** %..inline.addr.540 to i8**, !dbg !4605
	store i8*  %601, i8**  %602, align 8, !tbaa !4632, !dbg !4605
	%603 = bitcast %struct._ZSt9basic_iosIcSt11char_traitsIcEE** %..inline.addr.550 to i8**, !dbg !4605
	store i8*  %601, i8**  %603, align 8, !tbaa !4632, !dbg !4605
	%604 = load %struct._ZSt9basic_iosIcSt11char_traitsIcEE*, %struct._ZSt9basic_iosIcSt11char_traitsIcEE** %..inline.addr.550, align 8, !tbaa !4632, !dbg !4605
	%605 = bitcast %struct._ZSt9basic_iosIcSt11char_traitsIcEE*  %604 to i8*, !dbg !4605
	%606 = getelementptr i8, i8*  %605, i64 32, !dbg !4605
	%607 = bitcast i8*  %606 to i32*, !dbg !4605
	%608 = load i32, i32*  %607, align 4, !tbaa !4633, !dbg !4605
	%609 = or i32  %608, 1, !dbg !4605
	%610 = load %struct._ZSt9basic_iosIcSt11char_traitsIcEE*, %struct._ZSt9basic_iosIcSt11char_traitsIcEE** %..inline.addr.540, align 8, !tbaa !4632, !dbg !4605
	call void  @_ZNSt9basic_iosIcSt11char_traitsIcEE5clearESt12_Ios_Iostate (%struct._ZSt9basic_iosIcSt11char_traitsIcEE*  %610, i32  %609), !dbg !4605
	br label %L..inline.68436, !dbg !4605
L..inline.68415:
	%611 = bitcast [27 x i8]* @.S52189 to i8*, !dbg !4608
	%612 = call i64  @strlen (i8*  %611) nounwind, !dbg !4608
	%613 = call %struct._ZSo*  @_ZSt16__ostream_insertIcSt11char_traitsIcEERSt13basic_ostreamIT_T0_ES6_PKS3_l (%struct._ZSo* @_ZSt4cerr, i8*  %611, i64  %612), !dbg !4608
	%614 = bitcast %struct._ZSo*  %613 to i8*, !dbg !4608
	%615 = bitcast %struct._ZSo** %.Q0004.addr to i8**, !dbg !4608
	store i8*  %614, i8**  %615, align 8, !tbaa !4632, !dbg !4608
	br label %L..inline.68436
L..inline.68436:
	%616 = bitcast [2 x i8]* @.S52208 to i8*, !dbg !4628
	%617 = icmp ne i8*  %616,  null, !dbg !4628
	br i1  %617, label %L..inline.68448, label %L.B1211, !dbg !4628
L.B1211:
	%618 = bitcast %struct._ZSo* @_ZSt4cerr to i8*, !dbg !4605
	%619 = bitcast %struct._ZSo* @_ZSt4cerr to i8**, !dbg !4605
	%620 = load i8*, i8**  %619, align 8, !tbaa !4632, !dbg !4605
	%621 = getelementptr i8, i8*  %620, i64 18446744073709551592, !dbg !4605
	%622 = bitcast i8*  %621 to i64*, !dbg !4605
	%623 = load i64, i64*  %622, align 8, !tbaa !4633, !dbg !4605
	%624 = getelementptr i8, i8*  %618, i64  %623, !dbg !4605
	%625 = bitcast %struct._ZSt9basic_iosIcSt11char_traitsIcEE** %..inline.addr.590 to i8**, !dbg !4605
	store i8*  %624, i8**  %625, align 8, !tbaa !4632, !dbg !4605
	%626 = bitcast %struct._ZSt9basic_iosIcSt11char_traitsIcEE** %..inline.addr.600 to i8**, !dbg !4605
	store i8*  %624, i8**  %626, align 8, !tbaa !4632, !dbg !4605
	%627 = load %struct._ZSt9basic_iosIcSt11char_traitsIcEE*, %struct._ZSt9basic_iosIcSt11char_traitsIcEE** %..inline.addr.600, align 8, !tbaa !4632, !dbg !4605
	%628 = bitcast %struct._ZSt9basic_iosIcSt11char_traitsIcEE*  %627 to i8*, !dbg !4605
	%629 = getelementptr i8, i8*  %628, i64 32, !dbg !4605
	%630 = bitcast i8*  %629 to i32*, !dbg !4605
	%631 = load i32, i32*  %630, align 4, !tbaa !4633, !dbg !4605
	%632 = or i32  %631, 1, !dbg !4605
	%633 = load %struct._ZSt9basic_iosIcSt11char_traitsIcEE*, %struct._ZSt9basic_iosIcSt11char_traitsIcEE** %..inline.addr.590, align 8, !tbaa !4632, !dbg !4605
	call void  @_ZNSt9basic_iosIcSt11char_traitsIcEE5clearESt12_Ios_Iostate (%struct._ZSt9basic_iosIcSt11char_traitsIcEE*  %633, i32  %632), !dbg !4605
	br label %L..inline.68469, !dbg !4605
L..inline.68448:
	%634 = bitcast [2 x i8]* @.S52208 to i8*, !dbg !4608
	%635 = call i64  @strlen (i8*  %634) nounwind, !dbg !4608
	%636 = call %struct._ZSo*  @_ZSt16__ostream_insertIcSt11char_traitsIcEERSt13basic_ostreamIT_T0_ES6_PKS3_l (%struct._ZSo* @_ZSt4cerr, i8*  %634, i64  %635), !dbg !4608
	%637 = bitcast %struct._ZSo*  %636 to i8*, !dbg !4608
	%638 = bitcast %struct._ZSo** %.Q0005.addr to i8**, !dbg !4608
	store i8*  %637, i8**  %638, align 8, !tbaa !4632, !dbg !4608
	br label %L..inline.68469
L..inline.68469:
	%639 = call %struct._ZSo*  @_ZNSolsEi (%struct._ZSo* @_ZSt4cerr, i32 54), !dbg !4609
	%640 = bitcast %struct._ZSo*  %639 to i8*, !dbg !4609
	%641 = bitcast %struct._ZSo** %.Q0006.addr to i8**, !dbg !4609
	store i8*  %640, i8**  %641, align 8, !tbaa !4632, !dbg !4609
	%642 = load %struct._ZSo*, %struct._ZSo** %.Q0006.addr, align 8, !tbaa !4632, !dbg !4609
	%643 = bitcast %struct._ZSo*  %642 to i8*, !dbg !4609
	%644 = bitcast %struct._ZSo** %..inline.addr.650 to i8**, !dbg !4609
	store i8*  %643, i8**  %644, align 8, !tbaa !4632, !dbg !4609
	%645 = bitcast [65 x i8]* @.S52212 to i8*, !dbg !4628
	%646 = icmp ne i8*  %645,  null, !dbg !4628
	br i1  %646, label %L..inline.68481, label %L.B1212, !dbg !4628
L.B1212:
	%647 = load %struct._ZSo*, %struct._ZSo** %..inline.addr.650, align 8, !tbaa !4632, !dbg !4605
	%648 = bitcast %struct._ZSo*  %647 to i8*, !dbg !4605
	%649 = bitcast %struct._ZSo*  %647 to i8**, !dbg !4605
	%650 = load i8*, i8**  %649, align 8, !tbaa !4632, !dbg !4605
	%651 = getelementptr i8, i8*  %650, i64 18446744073709551592, !dbg !4605
	%652 = bitcast i8*  %651 to i64*, !dbg !4605
	%653 = load i64, i64*  %652, align 8, !tbaa !4633, !dbg !4605
	%654 = getelementptr i8, i8*  %648, i64  %653, !dbg !4605
	%655 = bitcast %struct._ZSt9basic_iosIcSt11char_traitsIcEE** %..inline.addr.660 to i8**, !dbg !4605
	store i8*  %654, i8**  %655, align 8, !tbaa !4632, !dbg !4605
	%656 = bitcast %struct._ZSt9basic_iosIcSt11char_traitsIcEE** %..inline.addr.670 to i8**, !dbg !4605
	store i8*  %654, i8**  %656, align 8, !tbaa !4632, !dbg !4605
	%657 = load %struct._ZSt9basic_iosIcSt11char_traitsIcEE*, %struct._ZSt9basic_iosIcSt11char_traitsIcEE** %..inline.addr.670, align 8, !tbaa !4632, !dbg !4605
	%658 = bitcast %struct._ZSt9basic_iosIcSt11char_traitsIcEE*  %657 to i8*, !dbg !4605
	%659 = getelementptr i8, i8*  %658, i64 32, !dbg !4605
	%660 = bitcast i8*  %659 to i32*, !dbg !4605
	%661 = load i32, i32*  %660, align 4, !tbaa !4633, !dbg !4605
	%662 = or i32  %661, 1, !dbg !4605
	%663 = load %struct._ZSt9basic_iosIcSt11char_traitsIcEE*, %struct._ZSt9basic_iosIcSt11char_traitsIcEE** %..inline.addr.660, align 8, !tbaa !4632, !dbg !4605
	call void  @_ZNSt9basic_iosIcSt11char_traitsIcEE5clearESt12_Ios_Iostate (%struct._ZSt9basic_iosIcSt11char_traitsIcEE*  %663, i32  %662), !dbg !4605
	br label %L..inline.68502, !dbg !4605
L..inline.68481:
	%664 = bitcast [65 x i8]* @.S52212 to i8*, !dbg !4608
	%665 = call i64  @strlen (i8*  %664) nounwind, !dbg !4608
	%666 = load %struct._ZSo*, %struct._ZSo** %..inline.addr.650, align 8, !tbaa !4632, !dbg !4608
	%667 = call %struct._ZSo*  @_ZSt16__ostream_insertIcSt11char_traitsIcEERSt13basic_ostreamIT_T0_ES6_PKS3_l (%struct._ZSo*  %666, i8*  %664, i64  %665), !dbg !4608
	%668 = bitcast %struct._ZSo*  %667 to i8*, !dbg !4608
	%669 = bitcast %struct._ZSo** %.Q0007.addr to i8**, !dbg !4608
	store i8*  %668, i8**  %669, align 8, !tbaa !4632, !dbg !4608
	br label %L..inline.68502
L..inline.68502:
	%670 = load %struct._ZSo*, %struct._ZSo** %..inline.addr.650, align 8, !tbaa !4632, !dbg !4609
	%671 = bitcast %struct._ZSo*  %670 to i8*, !dbg !4609
	%672 = bitcast %struct._ZSo** %..inline.addr.710 to i8**, !dbg !4609
	store i8*  %671, i8**  %672, align 8, !tbaa !4632, !dbg !4609
	%673 = load %struct._ZSo*, %struct._ZSo** %..inline.addr.710, align 8, !tbaa !4632, !dbg !4610
	%674 = call %struct._ZSo*  @_ZSt4endlIcSt11char_traitsIcEERSt13basic_ostreamIT_T0_ES6_ (%struct._ZSo*  %673), !dbg !4610
	%675 = bitcast %struct._ZSo*  %674 to i8*, !dbg !4610
	%676 = bitcast %struct._ZSo** %.Q0008.addr to i8**, !dbg !4610
	store i8*  %675, i8**  %676, align 8, !tbaa !4632, !dbg !4610
	br label %L_T18499824_50930
L_T18499824_50930:
	ret void, !dbg !4629
}
define void @_Z34calculateEdgeGradPeTermYComponentsR6FsGridISt5arrayIdLm3EELi2EERS_IS0_IdLm8EELi2EERS_IS0_IdLm24EELi2EEiii(%struct._Z6FsGridISt5arrayIdLm3EELi2EE* %EGradPeGrid.arg, %struct._Z6FsGridISt5arrayIdLm8EELi2EE* %momentsGrid.arg, %struct._Z6FsGridISt5arrayIdLm24EELi2EE* %dMomentsGrid.arg, i32 signext %i.arg, i32 signext %j.arg, i32 signext %k.arg) #0 !dbg !4641 {
L.entry:
	%EGradPeGrid.addr = alloca %struct._Z6FsGridISt5arrayIdLm3EELi2EE*, align 8
	%momentsGrid.addr = alloca %struct._Z6FsGridISt5arrayIdLm8EELi2EE*, align 8
	%dMomentsGrid.addr = alloca %struct._Z6FsGridISt5arrayIdLm24EELi2EE*, align 8
	%i.addr = alloca i32, align 4
	%j.addr = alloca i32, align 4
	%k.addr = alloca i32, align 4
	%.D0001.addr = alloca i32, align 4
	%..inline.addr = alloca %struct._Z6FsGridISt5arrayIdLm8EELi2EE*, align 8
	%..inline.addr.1 = alloca i32, align 4
	%..inline.addr.2 = alloca i32, align 4
	%..inline.addr.3 = alloca i32, align 4
	%..inline.addr.4 = alloca i32, align 4
	%..inline.addr.5 = alloca [3 x i32], align 4
	%..inline.addr.6 = alloca %struct._ZSt5arrayIdLm8EE*, align 8
	%..inline.addr.7 = alloca %struct._ZSt9basic_iosIcSt11char_traitsIcEE*, align 8
	%..inline.addr.8 = alloca %struct._ZSt9basic_iosIcSt11char_traitsIcEE*, align 8
	%..inline.addr.9 = alloca i32, align 4
	%..inline.addr.230 = alloca i64, align 8
	%.Q0009.addr = alloca %struct._ZSo*, align 8
	%.Q0010.addr = alloca %struct._ZSo*, align 8
	%..inline.addr.260 = alloca %struct._ZSo*, align 8
	%..inline.addr.270 = alloca %struct._ZSt9basic_iosIcSt11char_traitsIcEE*, align 8
	%..inline.addr.280 = alloca %struct._ZSt9basic_iosIcSt11char_traitsIcEE*, align 8
	%..inline.addr.290 = alloca i32, align 4
	%..inline.addr.300 = alloca i64, align 8
	%.Q0011.addr = alloca %struct._ZSo*, align 8
	%..inline.addr.320 = alloca %struct._ZSo*, align 8
	%.Q0012.addr = alloca %struct._ZSo*, align 8
	%..inline.addr.340 = alloca i64, align 8
	%.I0001.addr = alloca double, align 8
	%hallRhoq.addr = alloca double, align 8
	%..inline.addr.370 = alloca %struct._Z6FsGridISt5arrayIdLm3EELi2EE*, align 8
	%..inline.addr.380 = alloca i32, align 4
	%..inline.addr.390 = alloca i32, align 4
	%..inline.addr.400 = alloca i32, align 4
	%..inline.addr.410 = alloca i32, align 4
	%..inline.addr.420 = alloca [3 x i32], align 4
	%..inline.addr.430 = alloca %struct._ZSt5arrayIdLm3EE*, align 8
	%..inline.addr.440 = alloca i64, align 8
	%..inline.addr.450 = alloca double*, align 8
	%..inline.addr.460 = alloca %struct._Z6FsGridISt5arrayIdLm24EELi2EE*, align 8
	%..inline.addr.470 = alloca i32, align 4
	%..inline.addr.480 = alloca i32, align 4
	%..inline.addr.490 = alloca i32, align 4
	%..inline.addr.500 = alloca i32, align 4
	%..inline.addr.510 = alloca [3 x i32], align 4
	%..inline.addr.520 = alloca %struct._ZSt5arrayIdLm24EE*, align 8
	%..inline.addr.530 = alloca i64, align 8
	%..inline.addr.540 = alloca %struct._ZSt9basic_iosIcSt11char_traitsIcEE*, align 8
	%..inline.addr.550 = alloca %struct._ZSt9basic_iosIcSt11char_traitsIcEE*, align 8
	%..inline.addr.560 = alloca i32, align 4
	%..inline.addr.570 = alloca i64, align 8
	%.Q0013.addr = alloca %struct._ZSo*, align 8
	%..inline.addr.590 = alloca %struct._ZSt9basic_iosIcSt11char_traitsIcEE*, align 8
	%..inline.addr.600 = alloca %struct._ZSt9basic_iosIcSt11char_traitsIcEE*, align 8
	%..inline.addr.610 = alloca i32, align 4
	%..inline.addr.620 = alloca i64, align 8
	%.Q0014.addr = alloca %struct._ZSo*, align 8
	%.Q0015.addr = alloca %struct._ZSo*, align 8
	%..inline.addr.650 = alloca %struct._ZSo*, align 8
	%..inline.addr.660 = alloca %struct._ZSt9basic_iosIcSt11char_traitsIcEE*, align 8
	%..inline.addr.670 = alloca %struct._ZSt9basic_iosIcSt11char_traitsIcEE*, align 8
	%..inline.addr.680 = alloca i32, align 4
	%..inline.addr.690 = alloca i64, align 8
	%.Q0016.addr = alloca %struct._ZSo*, align 8
	%..inline.addr.710 = alloca %struct._ZSo*, align 8
	%.Q0017.addr = alloca %struct._ZSo*, align 8

	call void @llvm.dbg.declare (metadata %struct._Z6FsGridISt5arrayIdLm3EELi2EE** %EGradPeGrid.addr, metadata !5149, metadata !4571), !dbg !4642
	store %struct._Z6FsGridISt5arrayIdLm3EELi2EE* %EGradPeGrid.arg, %struct._Z6FsGridISt5arrayIdLm3EELi2EE** %EGradPeGrid.addr, align 8, !tbaa !4632
	call void @llvm.dbg.declare (metadata %struct._Z6FsGridISt5arrayIdLm3EELi2EE** %EGradPeGrid.addr, metadata !5150, metadata !4571), !dbg !4642
	call void @llvm.dbg.declare (metadata %struct._Z6FsGridISt5arrayIdLm8EELi2EE** %momentsGrid.addr, metadata !5151, metadata !4571), !dbg !4642
	store %struct._Z6FsGridISt5arrayIdLm8EELi2EE* %momentsGrid.arg, %struct._Z6FsGridISt5arrayIdLm8EELi2EE** %momentsGrid.addr, align 8, !tbaa !4632
	call void @llvm.dbg.declare (metadata %struct._Z6FsGridISt5arrayIdLm8EELi2EE** %momentsGrid.addr, metadata !5152, metadata !4571), !dbg !4642
	call void @llvm.dbg.declare (metadata %struct._Z6FsGridISt5arrayIdLm24EELi2EE** %dMomentsGrid.addr, metadata !5153, metadata !4571), !dbg !4642
	store %struct._Z6FsGridISt5arrayIdLm24EELi2EE* %dMomentsGrid.arg, %struct._Z6FsGridISt5arrayIdLm24EELi2EE** %dMomentsGrid.addr, align 8, !tbaa !4632
	call void @llvm.dbg.declare (metadata %struct._Z6FsGridISt5arrayIdLm24EELi2EE** %dMomentsGrid.addr, metadata !5154, metadata !4571), !dbg !4642
	call void @llvm.dbg.declare (metadata i32* %i.addr, metadata !5155, metadata !4571), !dbg !4642
	store i32 %i.arg, i32* %i.addr, align 4, !tbaa !4633
	call void @llvm.dbg.declare (metadata i32* %i.addr, metadata !5156, metadata !4571), !dbg !4642
	call void @llvm.dbg.declare (metadata i32* %j.addr, metadata !5157, metadata !4571), !dbg !4642
	store i32 %j.arg, i32* %j.addr, align 4, !tbaa !4633
	call void @llvm.dbg.declare (metadata i32* %j.addr, metadata !5158, metadata !4571), !dbg !4642
	call void @llvm.dbg.declare (metadata i32* %k.addr, metadata !5159, metadata !4571), !dbg !4642
	store i32 %k.arg, i32* %k.addr, align 4, !tbaa !4633
	call void @llvm.dbg.declare (metadata i32* %k.addr, metadata !5160, metadata !4571), !dbg !4642
	%0 = load i32, i32* @_ZN10Parameters13ohmGradPeTermE, align 4, !tbaa !4635, !dbg !5161
	store i32  %0, i32* %.D0001.addr, align 4, !tbaa !4635, !dbg !5161
	%1 = icmp eq i32  %0, 0, !dbg !5161
	br i1  %1, label %L.B0006, label %L.B1239, !dbg !5161
L.B1239:
	%2 = icmp ne i32  %0, 1, !dbg !5161
	br i1  %2, label %L.B0010, label %L.B0007, !dbg !5161
L.B0007:
	%3 = load %struct._Z6FsGridISt5arrayIdLm8EELi2EE*, %struct._Z6FsGridISt5arrayIdLm8EELi2EE** %momentsGrid.addr, align 8, !tbaa !4632, !dbg !5162
	%4 = bitcast %struct._Z6FsGridISt5arrayIdLm8EELi2EE*  %3 to i8*, !dbg !5162
	%5 = bitcast %struct._Z6FsGridISt5arrayIdLm8EELi2EE** %..inline.addr to i8**, !dbg !5162
	store i8*  %4, i8**  %5, align 8, !tbaa !4632, !dbg !5162
	%6 = load i32, i32* %i.addr, align 4, !tbaa !4635, !dbg !5162
	store i32  %6, i32* %..inline.addr.1, align 4, !tbaa !4635, !dbg !5162
	%7 = load i32, i32* %j.addr, align 4, !tbaa !4635, !dbg !5162
	store i32  %7, i32* %..inline.addr.2, align 4, !tbaa !4635, !dbg !5162
	%8 = load i32, i32* %k.addr, align 4, !tbaa !4635, !dbg !5162
	store i32  %8, i32* %..inline.addr.3, align 4, !tbaa !4635, !dbg !5162
	store i32 13, i32* %..inline.addr.4, align 4, !tbaa !4635, !dbg !5162
	%9 = bitcast [3 x i32]* %..inline.addr.5 to i32*, !dbg !5163
	store i32 0, i32*  %9, align 4, !tbaa !4633, !dbg !5163
	%10 = bitcast [3 x i32]* %..inline.addr.5 to i8*, !dbg !5164
	%11 = getelementptr i8, i8*  %10, i64 4, !dbg !5164
	%12 = bitcast i8*  %11 to i32*, !dbg !5164
	store i32 0, i32*  %12, align 4, !tbaa !4633, !dbg !5164
	%13 = getelementptr i8, i8*  %10, i64 8, !dbg !5164
	%14 = bitcast i8*  %13 to i32*, !dbg !5164
	store i32 0, i32*  %14, align 4, !tbaa !4633, !dbg !5164
	%15 = icmp sge i32  %6, 0, !dbg !5164
	br i1  %15, label %L..inline.69084, label %L.B1240, !dbg !5164
L.B1240:
	store i32 4, i32* %..inline.addr.4, align 4, !tbaa !4635, !dbg !5165
	%16 = bitcast [3 x i32]* %..inline.addr.5 to i32*, !dbg !5166
	store i32 1, i32*  %16, align 4, !tbaa !4633, !dbg !5166
	br label %L..inline.69084
L..inline.69084:
	%17 = load i32, i32* %..inline.addr.1, align 4, !tbaa !4635, !dbg !5167
	%18 = load %struct._Z6FsGridISt5arrayIdLm8EELi2EE*, %struct._Z6FsGridISt5arrayIdLm8EELi2EE** %..inline.addr, align 8, !tbaa !4632, !dbg !5167
	%19 = bitcast %struct._Z6FsGridISt5arrayIdLm8EELi2EE*  %18 to i8*, !dbg !5167
	%20 = getelementptr i8, i8*  %19, i64 264, !dbg !5167
	%21 = bitcast i8*  %20 to i32*, !dbg !5167
	%22 = load i32, i32*  %21, align 4, !tbaa !4633, !dbg !5167
	%23 = icmp slt i32  %17,  %22, !dbg !5167
	br i1  %23, label %L..inline.69102, label %L.B1241, !dbg !5167
L.B1241:
	%24 = load i32, i32* %..inline.addr.4, align 4, !tbaa !4635, !dbg !5167
	%25 = add i32  %24, 9, !dbg !5167
	store i32  %25, i32* %..inline.addr.4, align 4, !tbaa !4635, !dbg !5167
	%26 = bitcast [3 x i32]* %..inline.addr.5 to i32*, !dbg !5168
	store i32 -1, i32*  %26, align 4, !tbaa !4633, !dbg !5168
	br label %L..inline.69102
L..inline.69102:
	%27 = load i32, i32* %..inline.addr.2, align 4, !tbaa !4635, !dbg !5169
	%28 = icmp sge i32  %27, 0, !dbg !5169
	br i1  %28, label %L..inline.69104, label %L.B1242, !dbg !5169
L.B1242:
	%29 = load i32, i32* %..inline.addr.4, align 4, !tbaa !4635, !dbg !5169
	%30 = sub i32  %29, 3, !dbg !5169
	store i32  %30, i32* %..inline.addr.4, align 4, !tbaa !4635, !dbg !5169
	%31 = bitcast [3 x i32]* %..inline.addr.5 to i8*, !dbg !5170
	%32 = getelementptr i8, i8*  %31, i64 4, !dbg !5170
	%33 = bitcast i8*  %32 to i32*, !dbg !5170
	store i32 1, i32*  %33, align 4, !tbaa !4633, !dbg !5170
	br label %L..inline.69104
L..inline.69104:
	%34 = load i32, i32* %..inline.addr.2, align 4, !tbaa !4635, !dbg !5171
	%35 = load %struct._Z6FsGridISt5arrayIdLm8EELi2EE*, %struct._Z6FsGridISt5arrayIdLm8EELi2EE** %..inline.addr, align 8, !tbaa !4632, !dbg !5171
	%36 = bitcast %struct._Z6FsGridISt5arrayIdLm8EELi2EE*  %35 to i8*, !dbg !5171
	%37 = getelementptr i8, i8*  %36, i64 268, !dbg !5171
	%38 = bitcast i8*  %37 to i32*, !dbg !5171
	%39 = load i32, i32*  %38, align 4, !tbaa !4633, !dbg !5171
	%40 = icmp slt i32  %34,  %39, !dbg !5171
	br i1  %40, label %L..inline.69121, label %L.B1243, !dbg !5171
L.B1243:
	%41 = load i32, i32* %..inline.addr.4, align 4, !tbaa !4635, !dbg !5171
	%42 = add i32  %41, 3, !dbg !5171
	store i32  %42, i32* %..inline.addr.4, align 4, !tbaa !4635, !dbg !5171
	%43 = bitcast [3 x i32]* %..inline.addr.5 to i8*, !dbg !5172
	%44 = getelementptr i8, i8*  %43, i64 4, !dbg !5172
	%45 = bitcast i8*  %44 to i32*, !dbg !5172
	store i32 -1, i32*  %45, align 4, !tbaa !4633, !dbg !5172
	br label %L..inline.69121
L..inline.69121:
	%46 = load i32, i32* %..inline.addr.3, align 4, !tbaa !4635, !dbg !5173
	%47 = icmp sge i32  %46, 0, !dbg !5173
	br i1  %47, label %L..inline.69123, label %L.B1244, !dbg !5173
L.B1244:
	%48 = load i32, i32* %..inline.addr.4, align 4, !tbaa !4635, !dbg !5173
	%49 = sub i32  %48, 1, !dbg !5173
	store i32  %49, i32* %..inline.addr.4, align 4, !tbaa !4635, !dbg !5173
	%50 = bitcast [3 x i32]* %..inline.addr.5 to i8*, !dbg !5174
	%51 = getelementptr i8, i8*  %50, i64 8, !dbg !5174
	%52 = bitcast i8*  %51 to i32*, !dbg !5174
	store i32 1, i32*  %52, align 4, !tbaa !4633, !dbg !5174
	br label %L..inline.69123
L..inline.69123:
	%53 = load i32, i32* %..inline.addr.3, align 4, !tbaa !4635, !dbg !5175
	%54 = load %struct._Z6FsGridISt5arrayIdLm8EELi2EE*, %struct._Z6FsGridISt5arrayIdLm8EELi2EE** %..inline.addr, align 8, !tbaa !4632, !dbg !5175
	%55 = bitcast %struct._Z6FsGridISt5arrayIdLm8EELi2EE*  %54 to i8*, !dbg !5175
	%56 = getelementptr i8, i8*  %55, i64 272, !dbg !5175
	%57 = bitcast i8*  %56 to i32*, !dbg !5175
	%58 = load i32, i32*  %57, align 4, !tbaa !4633, !dbg !5175
	%59 = icmp slt i32  %53,  %58, !dbg !5175
	br i1  %59, label %L..inline.69140, label %L.B1245, !dbg !5175
L.B1245:
	%60 = load i32, i32* %..inline.addr.4, align 4, !tbaa !4635, !dbg !5175
	%61 = add i32  %60, 1, !dbg !5175
	store i32  %61, i32* %..inline.addr.4, align 4, !tbaa !4635, !dbg !5175
	%62 = bitcast [3 x i32]* %..inline.addr.5 to i8*, !dbg !5176
	%63 = getelementptr i8, i8*  %62, i64 8, !dbg !5176
	%64 = bitcast i8*  %63 to i32*, !dbg !5176
	store i32 -1, i32*  %64, align 4, !tbaa !4633, !dbg !5176
	br label %L..inline.69140
L..inline.69140:
	%65 = load i32, i32* %..inline.addr.4, align 4, !tbaa !4635, !dbg !5177
	%66 = icmp eq i32  %65, 13, !dbg !5177
	br i1  %66, label %L..inline.69141, label %L.B1246, !dbg !5177
L.B1246:
	%67 = sext i32  %65 to i64, !dbg !5178
	%68 = load %struct._Z6FsGridISt5arrayIdLm8EELi2EE*, %struct._Z6FsGridISt5arrayIdLm8EELi2EE** %..inline.addr, align 8, !tbaa !4632, !dbg !5178
	%69 = bitcast %struct._Z6FsGridISt5arrayIdLm8EELi2EE*  %68 to i8*, !dbg !5178
	%70 = getelementptr i8, i8*  %69, i64 92, !dbg !5178
	%71 = bitcast i8*  %70 to i32*, !dbg !5178
	%72 = getelementptr i32, i32*  %71, i64  %67, !dbg !5178
	%73 = load i32, i32*  %72, align 4, !tbaa !4633, !dbg !5178
	%74 = icmp ne i32  %73, -2, !dbg !5178
	br i1  %74, label %L..inline.69158, label %L.B1247, !dbg !5178
L.B1247:
	%75 = bitcast %struct._ZSt5arrayIdLm8EE** %..inline.addr.6 to i8**, !dbg !5178
	store i8* null, i8**  %75, align 8, !tbaa !4632, !dbg !5178
	br label %L..inline.69345, !dbg !5179
L.B0006:
	%76 = bitcast [27 x i8]* @.S52189 to i8*, !dbg !5180
	%77 = icmp ne i8*  %76,  null, !dbg !5180
	br i1  %77, label %L..inline.69007, label %L.B1248, !dbg !5180
L.B1248:
	%78 = bitcast %struct._ZSo* @_ZSt4cerr to i8*, !dbg !5181
	%79 = bitcast %struct._ZSo* @_ZSt4cerr to i8**, !dbg !5181
	%80 = load i8*, i8**  %79, align 8, !tbaa !4632, !dbg !5181
	%81 = getelementptr i8, i8*  %80, i64 18446744073709551592, !dbg !5181
	%82 = bitcast i8*  %81 to i64*, !dbg !5181
	%83 = load i64, i64*  %82, align 8, !tbaa !4633, !dbg !5181
	%84 = getelementptr i8, i8*  %78, i64  %83, !dbg !5181
	%85 = bitcast %struct._ZSt9basic_iosIcSt11char_traitsIcEE** %..inline.addr.7 to i8**, !dbg !5181
	store i8*  %84, i8**  %85, align 8, !tbaa !4632, !dbg !5181
	%86 = load %struct._ZSt9basic_iosIcSt11char_traitsIcEE*, %struct._ZSt9basic_iosIcSt11char_traitsIcEE** %..inline.addr.7, align 8, !tbaa !4632, !dbg !5181
	%87 = bitcast %struct._ZSt9basic_iosIcSt11char_traitsIcEE*  %86 to i8*, !dbg !5181
	%88 = bitcast %struct._ZSt9basic_iosIcSt11char_traitsIcEE** %..inline.addr.8 to i8**, !dbg !5181
	store i8*  %87, i8**  %88, align 8, !tbaa !4632, !dbg !5181
	%89 = load %struct._ZSt9basic_iosIcSt11char_traitsIcEE*, %struct._ZSt9basic_iosIcSt11char_traitsIcEE** %..inline.addr.8, align 8, !tbaa !4632, !dbg !5181
	%90 = bitcast %struct._ZSt9basic_iosIcSt11char_traitsIcEE*  %89 to i8*, !dbg !5181
	%91 = getelementptr i8, i8*  %90, i64 32, !dbg !5181
	%92 = bitcast i8*  %91 to i32*, !dbg !5181
	%93 = load i32, i32*  %92, align 4, !tbaa !4633, !dbg !5181
	%94 = or i32  %93, 1, !dbg !5181
	call void  @_ZNSt9basic_iosIcSt11char_traitsIcEE5clearESt12_Ios_Iostate (%struct._ZSt9basic_iosIcSt11char_traitsIcEE*  %86, i32  %94), !dbg !5181
	br label %L..inline.69028, !dbg !5181
L..inline.69007:
	%95 = bitcast [27 x i8]* @.S52189 to i8*, !dbg !5182
	%96 = call i64  @strlen (i8*  %95) nounwind, !dbg !5182
	%97 = call %struct._ZSo*  @_ZSt16__ostream_insertIcSt11char_traitsIcEERSt13basic_ostreamIT_T0_ES6_PKS3_l (%struct._ZSo* @_ZSt4cerr, i8*  %95, i64  %96), !dbg !5182
	%98 = bitcast %struct._ZSo*  %97 to i8*, !dbg !5182
	%99 = bitcast %struct._ZSo** %.Q0009.addr to i8**, !dbg !5182
	store i8*  %98, i8**  %99, align 8, !tbaa !4632, !dbg !5182
	br label %L..inline.69028
L..inline.69028:
	%100 = call %struct._ZSo*  @_ZNSolsEi (%struct._ZSo* @_ZSt4cerr, i32 71), !dbg !5183
	%101 = bitcast %struct._ZSo*  %100 to i8*, !dbg !5183
	%102 = bitcast %struct._ZSo** %.Q0010.addr to i8**, !dbg !5183
	store i8*  %101, i8**  %102, align 8, !tbaa !4632, !dbg !5183
	%103 = load %struct._ZSo*, %struct._ZSo** %.Q0010.addr, align 8, !tbaa !4632, !dbg !5183
	%104 = bitcast %struct._ZSo*  %103 to i8*, !dbg !5183
	%105 = bitcast %struct._ZSo** %..inline.addr.260 to i8**, !dbg !5183
	store i8*  %104, i8**  %105, align 8, !tbaa !4632, !dbg !5183
	%106 = bitcast [98 x i8]* @.S52193 to i8*, !dbg !5180
	%107 = icmp ne i8*  %106,  null, !dbg !5180
	br i1  %107, label %L..inline.69040, label %L.B1249, !dbg !5180
L.B1249:
	%108 = load %struct._ZSo*, %struct._ZSo** %..inline.addr.260, align 8, !tbaa !4632, !dbg !5181
	%109 = bitcast %struct._ZSo*  %108 to i8*, !dbg !5181
	%110 = bitcast %struct._ZSo*  %108 to i8**, !dbg !5181
	%111 = load i8*, i8**  %110, align 8, !tbaa !4632, !dbg !5181
	%112 = getelementptr i8, i8*  %111, i64 18446744073709551592, !dbg !5181
	%113 = bitcast i8*  %112 to i64*, !dbg !5181
	%114 = load i64, i64*  %113, align 8, !tbaa !4633, !dbg !5181
	%115 = getelementptr i8, i8*  %109, i64  %114, !dbg !5181
	%116 = bitcast %struct._ZSt9basic_iosIcSt11char_traitsIcEE** %..inline.addr.270 to i8**, !dbg !5181
	store i8*  %115, i8**  %116, align 8, !tbaa !4632, !dbg !5181
	%117 = bitcast %struct._ZSt9basic_iosIcSt11char_traitsIcEE** %..inline.addr.280 to i8**, !dbg !5181
	store i8*  %115, i8**  %117, align 8, !tbaa !4632, !dbg !5181
	%118 = load %struct._ZSt9basic_iosIcSt11char_traitsIcEE*, %struct._ZSt9basic_iosIcSt11char_traitsIcEE** %..inline.addr.280, align 8, !tbaa !4632, !dbg !5181
	%119 = bitcast %struct._ZSt9basic_iosIcSt11char_traitsIcEE*  %118 to i8*, !dbg !5181
	%120 = getelementptr i8, i8*  %119, i64 32, !dbg !5181
	%121 = bitcast i8*  %120 to i32*, !dbg !5181
	%122 = load i32, i32*  %121, align 4, !tbaa !4633, !dbg !5181
	%123 = or i32  %122, 1, !dbg !5181
	%124 = load %struct._ZSt9basic_iosIcSt11char_traitsIcEE*, %struct._ZSt9basic_iosIcSt11char_traitsIcEE** %..inline.addr.270, align 8, !tbaa !4632, !dbg !5181
	call void  @_ZNSt9basic_iosIcSt11char_traitsIcEE5clearESt12_Ios_Iostate (%struct._ZSt9basic_iosIcSt11char_traitsIcEE*  %124, i32  %123), !dbg !5181
	br label %L..inline.69061, !dbg !5181
L..inline.69040:
	%125 = bitcast [98 x i8]* @.S52193 to i8*, !dbg !5182
	%126 = call i64  @strlen (i8*  %125) nounwind, !dbg !5182
	%127 = load %struct._ZSo*, %struct._ZSo** %..inline.addr.260, align 8, !tbaa !4632, !dbg !5182
	%128 = call %struct._ZSo*  @_ZSt16__ostream_insertIcSt11char_traitsIcEERSt13basic_ostreamIT_T0_ES6_PKS3_l (%struct._ZSo*  %127, i8*  %125, i64  %126), !dbg !5182
	%129 = bitcast %struct._ZSo*  %128 to i8*, !dbg !5182
	%130 = bitcast %struct._ZSo** %.Q0011.addr to i8**, !dbg !5182
	store i8*  %129, i8**  %130, align 8, !tbaa !4632, !dbg !5182
	br label %L..inline.69061
L..inline.69061:
	%131 = load %struct._ZSo*, %struct._ZSo** %..inline.addr.260, align 8, !tbaa !4632, !dbg !5183
	%132 = bitcast %struct._ZSo*  %131 to i8*, !dbg !5183
	%133 = bitcast %struct._ZSo** %..inline.addr.320 to i8**, !dbg !5183
	store i8*  %132, i8**  %133, align 8, !tbaa !4632, !dbg !5183
	%134 = load %struct._ZSo*, %struct._ZSo** %..inline.addr.320, align 8, !tbaa !4632, !dbg !5184
	%135 = call %struct._ZSo*  @_ZSt4endlIcSt11char_traitsIcEERSt13basic_ostreamIT_T0_ES6_ (%struct._ZSo*  %134), !dbg !5184
	%136 = bitcast %struct._ZSo*  %135 to i8*, !dbg !5184
	%137 = bitcast %struct._ZSo** %.Q0012.addr to i8**, !dbg !5184
	store i8*  %136, i8**  %137, align 8, !tbaa !4632, !dbg !5184
	br label %L_T18154496_50931, !dbg !5185
L..inline.69158:
	%138 = load i32, i32* %..inline.addr.4, align 4, !tbaa !4635, !dbg !5186
	%139 = sext i32  %138 to i64, !dbg !5186
	%140 = load %struct._Z6FsGridISt5arrayIdLm8EELi2EE*, %struct._Z6FsGridISt5arrayIdLm8EELi2EE** %..inline.addr, align 8, !tbaa !4632, !dbg !5186
	%141 = bitcast %struct._Z6FsGridISt5arrayIdLm8EELi2EE*  %140 to i8*, !dbg !5186
	%142 = getelementptr i8, i8*  %141, i64 92, !dbg !5186
	%143 = bitcast i8*  %142 to i32*, !dbg !5186
	%144 = getelementptr i32, i32*  %143, i64  %139, !dbg !5186
	%145 = load i32, i32*  %144, align 4, !tbaa !4633, !dbg !5186
	%146 = getelementptr i8, i8*  %141, i64 56, !dbg !5186
	%147 = bitcast i8*  %146 to i32*, !dbg !5186
	%148 = load i32, i32*  %147, align 4, !tbaa !4633, !dbg !5186
	%149 = icmp ne i32  %145,  %148, !dbg !5186
	br i1  %149, label %L..inline.69176, label %L.B1250, !dbg !5186
L.B1250:
	%150 = load i32, i32* %..inline.addr.1, align 4, !tbaa !4635, !dbg !5187
	%151 = bitcast [3 x i32]* %..inline.addr.5 to i32*, !dbg !5187
	%152 = load i32, i32*  %151, align 4, !tbaa !4633, !dbg !5187
	%153 = bitcast %struct._Z6FsGridISt5arrayIdLm8EELi2EE*  %140 to i8*, !dbg !5187
	%154 = getelementptr i8, i8*  %153, i64 264, !dbg !5187
	%155 = bitcast i8*  %154 to i32*, !dbg !5187
	%156 = load i32, i32*  %155, align 4, !tbaa !4633, !dbg !5187
	%157 = mul i32  %152,  %156, !dbg !5187
	%158 = add i32  %150,  %157, !dbg !5187
	store i32  %158, i32* %..inline.addr.1, align 4, !tbaa !4635, !dbg !5187
	%159 = load i32, i32* %..inline.addr.2, align 4, !tbaa !4635, !dbg !5188
	%160 = bitcast [3 x i32]* %..inline.addr.5 to i8*, !dbg !5188
	%161 = getelementptr i8, i8*  %160, i64 4, !dbg !5188
	%162 = bitcast i8*  %161 to i32*, !dbg !5188
	%163 = load i32, i32*  %162, align 4, !tbaa !4633, !dbg !5188
	%164 = getelementptr i8, i8*  %153, i64 268, !dbg !5188
	%165 = bitcast i8*  %164 to i32*, !dbg !5188
	%166 = load i32, i32*  %165, align 4, !tbaa !4633, !dbg !5188
	%167 = mul i32  %163,  %166, !dbg !5188
	%168 = add i32  %159,  %167, !dbg !5188
	store i32  %168, i32* %..inline.addr.2, align 4, !tbaa !4635, !dbg !5188
	%169 = load i32, i32* %..inline.addr.3, align 4, !tbaa !4635, !dbg !5189
	%170 = getelementptr i8, i8*  %160, i64 8, !dbg !5189
	%171 = bitcast i8*  %170 to i32*, !dbg !5189
	%172 = load i32, i32*  %171, align 4, !tbaa !4633, !dbg !5189
	%173 = getelementptr i8, i8*  %153, i64 272, !dbg !5189
	%174 = bitcast i8*  %173 to i32*, !dbg !5189
	%175 = load i32, i32*  %174, align 4, !tbaa !4633, !dbg !5189
	%176 = mul i32  %172,  %175, !dbg !5189
	%177 = add i32  %169,  %176, !dbg !5189
	store i32  %177, i32* %..inline.addr.3, align 4, !tbaa !4635, !dbg !5189
	br label %L..inline.69176
L..inline.69176:
	br label %L..inline.69141
L..inline.69141:
	store i64 0, i64* %..inline.addr.340, align 8, !tbaa !4637, !dbg !5190
	%178 = load %struct._Z6FsGridISt5arrayIdLm8EELi2EE*, %struct._Z6FsGridISt5arrayIdLm8EELi2EE** %..inline.addr, align 8, !tbaa !4632, !dbg !5190
	%179 = bitcast %struct._Z6FsGridISt5arrayIdLm8EELi2EE*  %178 to i8*, !dbg !5190
	%180 = getelementptr i8, i8*  %179, i64 260, !dbg !5190
	%181 = bitcast i8*  %180 to i32*, !dbg !5190
	%182 = load i32, i32*  %181, align 4, !tbaa !4633, !dbg !5190
	%183 = icmp sle i32  %182, 1, !dbg !5190
	br i1  %183, label %L..inline.69250, label %L.B1251, !dbg !5190
L.B1251:
	%184 = load i32, i32* %..inline.addr.3, align 4, !tbaa !4635, !dbg !5190
	%185 = add i32  %184, 2, !dbg !5190
	%186 = bitcast %struct._Z6FsGridISt5arrayIdLm8EELi2EE*  %178 to i8*, !dbg !5190
	%187 = getelementptr i8, i8*  %186, i64 280, !dbg !5190
	%188 = bitcast i8*  %187 to i32*, !dbg !5190
	%189 = load i32, i32*  %188, align 4, !tbaa !4633, !dbg !5190
	%190 = getelementptr i8, i8*  %186, i64 276, !dbg !5190
	%191 = bitcast i8*  %190 to i32*, !dbg !5190
	%192 = load i32, i32*  %191, align 4, !tbaa !4633, !dbg !5190
	%193 = mul i32  %189,  %192, !dbg !5190
	%194 = mul i32  %185,  %193, !dbg !5190
	%195 = sext i32  %194 to i64, !dbg !5190
	store i64  %195, i64* %..inline.addr.340, align 8, !tbaa !4637, !dbg !5190
	br label %L..inline.69250
L..inline.69250:
	%196 = load %struct._Z6FsGridISt5arrayIdLm8EELi2EE*, %struct._Z6FsGridISt5arrayIdLm8EELi2EE** %..inline.addr, align 8, !tbaa !4632, !dbg !5190
	%197 = bitcast %struct._Z6FsGridISt5arrayIdLm8EELi2EE*  %196 to i8*, !dbg !5190
	%198 = getelementptr i8, i8*  %197, i64 256, !dbg !5190
	%199 = bitcast i8*  %198 to i32*, !dbg !5190
	%200 = load i32, i32*  %199, align 4, !tbaa !4633, !dbg !5190
	%201 = icmp sle i32  %200, 1, !dbg !5190
	br i1  %201, label %L..inline.69299, label %L.B1252, !dbg !5190
L.B1252:
	%202 = load i64, i64* %..inline.addr.340, align 8, !tbaa !4637, !dbg !5190
	%203 = bitcast %struct._Z6FsGridISt5arrayIdLm8EELi2EE*  %196 to i8*, !dbg !5190
	%204 = getelementptr i8, i8*  %203, i64 276, !dbg !5190
	%205 = bitcast i8*  %204 to i32*, !dbg !5190
	%206 = load i32, i32*  %205, align 4, !tbaa !4633, !dbg !5190
	%207 = load i32, i32* %..inline.addr.2, align 4, !tbaa !4635, !dbg !5190
	%208 = add i32  %207, 2, !dbg !5190
	%209 = mul i32  %206,  %208, !dbg !5190
	%210 = sext i32  %209 to i64, !dbg !5190
	%211 = add i64  %202,  %210, !dbg !5190
	store i64  %211, i64* %..inline.addr.340, align 8, !tbaa !4637, !dbg !5190
	br label %L..inline.69299
L..inline.69299:
	%212 = load %struct._Z6FsGridISt5arrayIdLm8EELi2EE*, %struct._Z6FsGridISt5arrayIdLm8EELi2EE** %..inline.addr, align 8, !tbaa !4632, !dbg !5190
	%213 = bitcast %struct._Z6FsGridISt5arrayIdLm8EELi2EE*  %212 to i8*, !dbg !5190
	%214 = getelementptr i8, i8*  %213, i64 252, !dbg !5190
	%215 = bitcast i8*  %214 to i32*, !dbg !5190
	%216 = load i32, i32*  %215, align 4, !tbaa !4633, !dbg !5190
	%217 = icmp sle i32  %216, 1, !dbg !5190
	%218 = zext i1  %217 to i32, !dbg !5190
	%219 = trunc i32  %218 to i1, !dbg !5190
	%220 = load i64, i64* %..inline.addr.340, align 8, !tbaa !4637, !dbg !5190
	%221 = load i32, i32* %..inline.addr.1, align 4, !tbaa !4635, !dbg !5190
	%222 = sext i32  %221 to i64, !dbg !5190
	%223 = add i64  %222, 2, !dbg !5190
	%224 = add i64  %220,  %223, !dbg !5190
	%225 = select i1  %219, i64  %220, i64  %224, !dbg !5190
	%226 = getelementptr i8, i8*  %213, i64 744, !dbg !5191
	%227 = bitcast i8*  %226 to i8**, !dbg !5191
	%228 = load i8*, i8**  %227, align 8, !tbaa !4632, !dbg !5191
	%229 = mul i64  %225, 64, !dbg !5191
	%230 = getelementptr i8, i8*  %228, i64  %229, !dbg !5191
	%231 = bitcast %struct._ZSt5arrayIdLm8EE** %..inline.addr.6 to i8**, !dbg !5191
	store i8*  %230, i8**  %231, align 8, !tbaa !4632, !dbg !5191
	br label %L..inline.69345
L..inline.69345:
	%232 = load double, double* @_ZN10Parameters15hallMinimumRhoqE, align 8, !tbaa !4639, !dbg !5192
	%233 = load %struct._ZSt5arrayIdLm8EE*, %struct._ZSt5arrayIdLm8EE** %..inline.addr.6, align 8, !tbaa !4632, !dbg !5192
	%234 = bitcast %struct._ZSt5arrayIdLm8EE*  %233 to i8*, !dbg !5192
	%235 = getelementptr i8, i8*  %234, i64 8, !dbg !5192
	%236 = bitcast i8*  %235 to double*, !dbg !5192
	%237 = load double, double*  %236, align 8, !tbaa !4633, !dbg !5192
	%238 = call double @llvm.maxnum.f64 (double  %232, double  %237), !dbg !5192
	%239 = fcmp uno double  %237,  %237, !dbg !5192
	%240 = select i1  %239, double  %232, double  %238, !dbg !5192
	call void @llvm.dbg.declare (metadata double* %hallRhoq.addr, metadata !5193, metadata !4571), !dbg !4642
	store double  %240, double* %hallRhoq.addr, align 8, !tbaa !4639, !dbg !5192
	%241 = load %struct._Z6FsGridISt5arrayIdLm3EELi2EE*, %struct._Z6FsGridISt5arrayIdLm3EELi2EE** %EGradPeGrid.addr, align 8, !tbaa !4632, !dbg !5194
	%242 = bitcast %struct._Z6FsGridISt5arrayIdLm3EELi2EE*  %241 to i8*, !dbg !5194
	%243 = bitcast %struct._Z6FsGridISt5arrayIdLm3EELi2EE** %..inline.addr.370 to i8**, !dbg !5194
	store i8*  %242, i8**  %243, align 8, !tbaa !4632, !dbg !5194
	%244 = load i32, i32* %i.addr, align 4, !tbaa !4635, !dbg !5194
	store i32  %244, i32* %..inline.addr.380, align 4, !tbaa !4635, !dbg !5194
	%245 = load i32, i32* %j.addr, align 4, !tbaa !4635, !dbg !5194
	store i32  %245, i32* %..inline.addr.390, align 4, !tbaa !4635, !dbg !5194
	%246 = load i32, i32* %k.addr, align 4, !tbaa !4635, !dbg !5194
	store i32  %246, i32* %..inline.addr.400, align 4, !tbaa !4635, !dbg !5194
	store i32 13, i32* %..inline.addr.410, align 4, !tbaa !4635, !dbg !5194
	%247 = bitcast [3 x i32]* %..inline.addr.420 to i32*, !dbg !5163
	store i32 0, i32*  %247, align 4, !tbaa !4633, !dbg !5163
	%248 = bitcast [3 x i32]* %..inline.addr.420 to i8*, !dbg !5164
	%249 = getelementptr i8, i8*  %248, i64 4, !dbg !5164
	%250 = bitcast i8*  %249 to i32*, !dbg !5164
	store i32 0, i32*  %250, align 4, !tbaa !4633, !dbg !5164
	%251 = getelementptr i8, i8*  %248, i64 8, !dbg !5164
	%252 = bitcast i8*  %251 to i32*, !dbg !5164
	store i32 0, i32*  %252, align 4, !tbaa !4633, !dbg !5164
	%253 = icmp sge i32  %244, 0, !dbg !5164
	br i1  %253, label %L..inline.69367, label %L.B1253, !dbg !5164
L.B1253:
	store i32 4, i32* %..inline.addr.410, align 4, !tbaa !4635, !dbg !5165
	%254 = bitcast [3 x i32]* %..inline.addr.420 to i32*, !dbg !5166
	store i32 1, i32*  %254, align 4, !tbaa !4633, !dbg !5166
	br label %L..inline.69367
L..inline.69367:
	%255 = load i32, i32* %..inline.addr.380, align 4, !tbaa !4635, !dbg !5167
	%256 = load %struct._Z6FsGridISt5arrayIdLm3EELi2EE*, %struct._Z6FsGridISt5arrayIdLm3EELi2EE** %..inline.addr.370, align 8, !tbaa !4632, !dbg !5167
	%257 = bitcast %struct._Z6FsGridISt5arrayIdLm3EELi2EE*  %256 to i8*, !dbg !5167
	%258 = getelementptr i8, i8*  %257, i64 264, !dbg !5167
	%259 = bitcast i8*  %258 to i32*, !dbg !5167
	%260 = load i32, i32*  %259, align 4, !tbaa !4633, !dbg !5167
	%261 = icmp slt i32  %255,  %260, !dbg !5167
	br i1  %261, label %L..inline.69385, label %L.B1254, !dbg !5167
L.B1254:
	%262 = load i32, i32* %..inline.addr.410, align 4, !tbaa !4635, !dbg !5167
	%263 = add i32  %262, 9, !dbg !5167
	store i32  %263, i32* %..inline.addr.410, align 4, !tbaa !4635, !dbg !5167
	%264 = bitcast [3 x i32]* %..inline.addr.420 to i32*, !dbg !5168
	store i32 -1, i32*  %264, align 4, !tbaa !4633, !dbg !5168
	br label %L..inline.69385
L..inline.69385:
	%265 = load i32, i32* %..inline.addr.390, align 4, !tbaa !4635, !dbg !5169
	%266 = icmp sge i32  %265, 0, !dbg !5169
	br i1  %266, label %L..inline.69387, label %L.B1255, !dbg !5169
L.B1255:
	%267 = load i32, i32* %..inline.addr.410, align 4, !tbaa !4635, !dbg !5169
	%268 = sub i32  %267, 3, !dbg !5169
	store i32  %268, i32* %..inline.addr.410, align 4, !tbaa !4635, !dbg !5169
	%269 = bitcast [3 x i32]* %..inline.addr.420 to i8*, !dbg !5170
	%270 = getelementptr i8, i8*  %269, i64 4, !dbg !5170
	%271 = bitcast i8*  %270 to i32*, !dbg !5170
	store i32 1, i32*  %271, align 4, !tbaa !4633, !dbg !5170
	br label %L..inline.69387
L..inline.69387:
	%272 = load i32, i32* %..inline.addr.390, align 4, !tbaa !4635, !dbg !5171
	%273 = load %struct._Z6FsGridISt5arrayIdLm3EELi2EE*, %struct._Z6FsGridISt5arrayIdLm3EELi2EE** %..inline.addr.370, align 8, !tbaa !4632, !dbg !5171
	%274 = bitcast %struct._Z6FsGridISt5arrayIdLm3EELi2EE*  %273 to i8*, !dbg !5171
	%275 = getelementptr i8, i8*  %274, i64 268, !dbg !5171
	%276 = bitcast i8*  %275 to i32*, !dbg !5171
	%277 = load i32, i32*  %276, align 4, !tbaa !4633, !dbg !5171
	%278 = icmp slt i32  %272,  %277, !dbg !5171
	br i1  %278, label %L..inline.69404, label %L.B1256, !dbg !5171
L.B1256:
	%279 = load i32, i32* %..inline.addr.410, align 4, !tbaa !4635, !dbg !5171
	%280 = add i32  %279, 3, !dbg !5171
	store i32  %280, i32* %..inline.addr.410, align 4, !tbaa !4635, !dbg !5171
	%281 = bitcast [3 x i32]* %..inline.addr.420 to i8*, !dbg !5172
	%282 = getelementptr i8, i8*  %281, i64 4, !dbg !5172
	%283 = bitcast i8*  %282 to i32*, !dbg !5172
	store i32 -1, i32*  %283, align 4, !tbaa !4633, !dbg !5172
	br label %L..inline.69404
L..inline.69404:
	%284 = load i32, i32* %..inline.addr.400, align 4, !tbaa !4635, !dbg !5173
	%285 = icmp sge i32  %284, 0, !dbg !5173
	br i1  %285, label %L..inline.69406, label %L.B1257, !dbg !5173
L.B1257:
	%286 = load i32, i32* %..inline.addr.410, align 4, !tbaa !4635, !dbg !5173
	%287 = sub i32  %286, 1, !dbg !5173
	store i32  %287, i32* %..inline.addr.410, align 4, !tbaa !4635, !dbg !5173
	%288 = bitcast [3 x i32]* %..inline.addr.420 to i8*, !dbg !5174
	%289 = getelementptr i8, i8*  %288, i64 8, !dbg !5174
	%290 = bitcast i8*  %289 to i32*, !dbg !5174
	store i32 1, i32*  %290, align 4, !tbaa !4633, !dbg !5174
	br label %L..inline.69406
L..inline.69406:
	%291 = load i32, i32* %..inline.addr.400, align 4, !tbaa !4635, !dbg !5175
	%292 = load %struct._Z6FsGridISt5arrayIdLm3EELi2EE*, %struct._Z6FsGridISt5arrayIdLm3EELi2EE** %..inline.addr.370, align 8, !tbaa !4632, !dbg !5175
	%293 = bitcast %struct._Z6FsGridISt5arrayIdLm3EELi2EE*  %292 to i8*, !dbg !5175
	%294 = getelementptr i8, i8*  %293, i64 272, !dbg !5175
	%295 = bitcast i8*  %294 to i32*, !dbg !5175
	%296 = load i32, i32*  %295, align 4, !tbaa !4633, !dbg !5175
	%297 = icmp slt i32  %291,  %296, !dbg !5175
	br i1  %297, label %L..inline.69423, label %L.B1258, !dbg !5175
L.B1258:
	%298 = load i32, i32* %..inline.addr.410, align 4, !tbaa !4635, !dbg !5175
	%299 = add i32  %298, 1, !dbg !5175
	store i32  %299, i32* %..inline.addr.410, align 4, !tbaa !4635, !dbg !5175
	%300 = bitcast [3 x i32]* %..inline.addr.420 to i8*, !dbg !5176
	%301 = getelementptr i8, i8*  %300, i64 8, !dbg !5176
	%302 = bitcast i8*  %301 to i32*, !dbg !5176
	store i32 -1, i32*  %302, align 4, !tbaa !4633, !dbg !5176
	br label %L..inline.69423
L..inline.69423:
	%303 = load i32, i32* %..inline.addr.410, align 4, !tbaa !4635, !dbg !5177
	%304 = icmp eq i32  %303, 13, !dbg !5177
	br i1  %304, label %L..inline.69424, label %L.B1259, !dbg !5177
L.B1259:
	%305 = sext i32  %303 to i64, !dbg !5178
	%306 = load %struct._Z6FsGridISt5arrayIdLm3EELi2EE*, %struct._Z6FsGridISt5arrayIdLm3EELi2EE** %..inline.addr.370, align 8, !tbaa !4632, !dbg !5178
	%307 = bitcast %struct._Z6FsGridISt5arrayIdLm3EELi2EE*  %306 to i8*, !dbg !5178
	%308 = getelementptr i8, i8*  %307, i64 92, !dbg !5178
	%309 = bitcast i8*  %308 to i32*, !dbg !5178
	%310 = getelementptr i32, i32*  %309, i64  %305, !dbg !5178
	%311 = load i32, i32*  %310, align 4, !tbaa !4633, !dbg !5178
	%312 = icmp ne i32  %311, -2, !dbg !5178
	br i1  %312, label %L..inline.69441, label %L.B1260, !dbg !5178
L.B1260:
	%313 = bitcast %struct._ZSt5arrayIdLm3EE** %..inline.addr.430 to i8**, !dbg !5178
	store i8* null, i8**  %313, align 8, !tbaa !4632, !dbg !5178
	br label %L..inline.69628, !dbg !5179
L..inline.69441:
	%314 = load i32, i32* %..inline.addr.410, align 4, !tbaa !4635, !dbg !5186
	%315 = sext i32  %314 to i64, !dbg !5186
	%316 = load %struct._Z6FsGridISt5arrayIdLm3EELi2EE*, %struct._Z6FsGridISt5arrayIdLm3EELi2EE** %..inline.addr.370, align 8, !tbaa !4632, !dbg !5186
	%317 = bitcast %struct._Z6FsGridISt5arrayIdLm3EELi2EE*  %316 to i8*, !dbg !5186
	%318 = getelementptr i8, i8*  %317, i64 92, !dbg !5186
	%319 = bitcast i8*  %318 to i32*, !dbg !5186
	%320 = getelementptr i32, i32*  %319, i64  %315, !dbg !5186
	%321 = load i32, i32*  %320, align 4, !tbaa !4633, !dbg !5186
	%322 = getelementptr i8, i8*  %317, i64 56, !dbg !5186
	%323 = bitcast i8*  %322 to i32*, !dbg !5186
	%324 = load i32, i32*  %323, align 4, !tbaa !4633, !dbg !5186
	%325 = icmp ne i32  %321,  %324, !dbg !5186
	br i1  %325, label %L..inline.69459, label %L.B1261, !dbg !5186
L.B1261:
	%326 = load i32, i32* %..inline.addr.380, align 4, !tbaa !4635, !dbg !5187
	%327 = bitcast [3 x i32]* %..inline.addr.420 to i32*, !dbg !5187
	%328 = load i32, i32*  %327, align 4, !tbaa !4633, !dbg !5187
	%329 = bitcast %struct._Z6FsGridISt5arrayIdLm3EELi2EE*  %316 to i8*, !dbg !5187
	%330 = getelementptr i8, i8*  %329, i64 264, !dbg !5187
	%331 = bitcast i8*  %330 to i32*, !dbg !5187
	%332 = load i32, i32*  %331, align 4, !tbaa !4633, !dbg !5187
	%333 = mul i32  %328,  %332, !dbg !5187
	%334 = add i32  %326,  %333, !dbg !5187
	store i32  %334, i32* %..inline.addr.380, align 4, !tbaa !4635, !dbg !5187
	%335 = load i32, i32* %..inline.addr.390, align 4, !tbaa !4635, !dbg !5188
	%336 = bitcast [3 x i32]* %..inline.addr.420 to i8*, !dbg !5188
	%337 = getelementptr i8, i8*  %336, i64 4, !dbg !5188
	%338 = bitcast i8*  %337 to i32*, !dbg !5188
	%339 = load i32, i32*  %338, align 4, !tbaa !4633, !dbg !5188
	%340 = getelementptr i8, i8*  %329, i64 268, !dbg !5188
	%341 = bitcast i8*  %340 to i32*, !dbg !5188
	%342 = load i32, i32*  %341, align 4, !tbaa !4633, !dbg !5188
	%343 = mul i32  %339,  %342, !dbg !5188
	%344 = add i32  %335,  %343, !dbg !5188
	store i32  %344, i32* %..inline.addr.390, align 4, !tbaa !4635, !dbg !5188
	%345 = load i32, i32* %..inline.addr.400, align 4, !tbaa !4635, !dbg !5189
	%346 = getelementptr i8, i8*  %336, i64 8, !dbg !5189
	%347 = bitcast i8*  %346 to i32*, !dbg !5189
	%348 = load i32, i32*  %347, align 4, !tbaa !4633, !dbg !5189
	%349 = getelementptr i8, i8*  %329, i64 272, !dbg !5189
	%350 = bitcast i8*  %349 to i32*, !dbg !5189
	%351 = load i32, i32*  %350, align 4, !tbaa !4633, !dbg !5189
	%352 = mul i32  %348,  %351, !dbg !5189
	%353 = add i32  %345,  %352, !dbg !5189
	store i32  %353, i32* %..inline.addr.400, align 4, !tbaa !4635, !dbg !5189
	br label %L..inline.69459
L..inline.69459:
	br label %L..inline.69424
L..inline.69424:
	store i64 0, i64* %..inline.addr.440, align 8, !tbaa !4637, !dbg !5190
	%354 = load %struct._Z6FsGridISt5arrayIdLm3EELi2EE*, %struct._Z6FsGridISt5arrayIdLm3EELi2EE** %..inline.addr.370, align 8, !tbaa !4632, !dbg !5190
	%355 = bitcast %struct._Z6FsGridISt5arrayIdLm3EELi2EE*  %354 to i8*, !dbg !5190
	%356 = getelementptr i8, i8*  %355, i64 260, !dbg !5190
	%357 = bitcast i8*  %356 to i32*, !dbg !5190
	%358 = load i32, i32*  %357, align 4, !tbaa !4633, !dbg !5190
	%359 = icmp sle i32  %358, 1, !dbg !5190
	br i1  %359, label %L..inline.69533, label %L.B1262, !dbg !5190
L.B1262:
	%360 = load i32, i32* %..inline.addr.400, align 4, !tbaa !4635, !dbg !5190
	%361 = add i32  %360, 2, !dbg !5190
	%362 = bitcast %struct._Z6FsGridISt5arrayIdLm3EELi2EE*  %354 to i8*, !dbg !5190
	%363 = getelementptr i8, i8*  %362, i64 280, !dbg !5190
	%364 = bitcast i8*  %363 to i32*, !dbg !5190
	%365 = load i32, i32*  %364, align 4, !tbaa !4633, !dbg !5190
	%366 = getelementptr i8, i8*  %362, i64 276, !dbg !5190
	%367 = bitcast i8*  %366 to i32*, !dbg !5190
	%368 = load i32, i32*  %367, align 4, !tbaa !4633, !dbg !5190
	%369 = mul i32  %365,  %368, !dbg !5190
	%370 = mul i32  %361,  %369, !dbg !5190
	%371 = sext i32  %370 to i64, !dbg !5190
	store i64  %371, i64* %..inline.addr.440, align 8, !tbaa !4637, !dbg !5190
	br label %L..inline.69533
L..inline.69533:
	%372 = load %struct._Z6FsGridISt5arrayIdLm3EELi2EE*, %struct._Z6FsGridISt5arrayIdLm3EELi2EE** %..inline.addr.370, align 8, !tbaa !4632, !dbg !5190
	%373 = bitcast %struct._Z6FsGridISt5arrayIdLm3EELi2EE*  %372 to i8*, !dbg !5190
	%374 = getelementptr i8, i8*  %373, i64 256, !dbg !5190
	%375 = bitcast i8*  %374 to i32*, !dbg !5190
	%376 = load i32, i32*  %375, align 4, !tbaa !4633, !dbg !5190
	%377 = icmp sle i32  %376, 1, !dbg !5190
	br i1  %377, label %L..inline.69582, label %L.B1263, !dbg !5190
L.B1263:
	%378 = load i64, i64* %..inline.addr.440, align 8, !tbaa !4637, !dbg !5190
	%379 = bitcast %struct._Z6FsGridISt5arrayIdLm3EELi2EE*  %372 to i8*, !dbg !5190
	%380 = getelementptr i8, i8*  %379, i64 276, !dbg !5190
	%381 = bitcast i8*  %380 to i32*, !dbg !5190
	%382 = load i32, i32*  %381, align 4, !tbaa !4633, !dbg !5190
	%383 = load i32, i32* %..inline.addr.390, align 4, !tbaa !4635, !dbg !5190
	%384 = add i32  %383, 2, !dbg !5190
	%385 = mul i32  %382,  %384, !dbg !5190
	%386 = sext i32  %385 to i64, !dbg !5190
	%387 = add i64  %378,  %386, !dbg !5190
	store i64  %387, i64* %..inline.addr.440, align 8, !tbaa !4637, !dbg !5190
	br label %L..inline.69582
L..inline.69582:
	%388 = load %struct._Z6FsGridISt5arrayIdLm3EELi2EE*, %struct._Z6FsGridISt5arrayIdLm3EELi2EE** %..inline.addr.370, align 8, !tbaa !4632, !dbg !5190
	%389 = bitcast %struct._Z6FsGridISt5arrayIdLm3EELi2EE*  %388 to i8*, !dbg !5190
	%390 = getelementptr i8, i8*  %389, i64 252, !dbg !5190
	%391 = bitcast i8*  %390 to i32*, !dbg !5190
	%392 = load i32, i32*  %391, align 4, !tbaa !4633, !dbg !5190
	%393 = icmp sle i32  %392, 1, !dbg !5190
	%394 = zext i1  %393 to i32, !dbg !5190
	%395 = trunc i32  %394 to i1, !dbg !5190
	%396 = load i64, i64* %..inline.addr.440, align 8, !tbaa !4637, !dbg !5190
	%397 = load i32, i32* %..inline.addr.380, align 4, !tbaa !4635, !dbg !5190
	%398 = sext i32  %397 to i64, !dbg !5190
	%399 = add i64  %398, 2, !dbg !5190
	%400 = add i64  %396,  %399, !dbg !5190
	%401 = select i1  %395, i64  %396, i64  %400, !dbg !5190
	%402 = getelementptr i8, i8*  %389, i64 744, !dbg !5191
	%403 = bitcast i8*  %402 to i8**, !dbg !5191
	%404 = load i8*, i8**  %403, align 8, !tbaa !4632, !dbg !5191
	%405 = mul i64  %401, 24, !dbg !5191
	%406 = getelementptr i8, i8*  %404, i64  %405, !dbg !5191
	%407 = bitcast %struct._ZSt5arrayIdLm3EE** %..inline.addr.430 to i8**, !dbg !5191
	store i8*  %406, i8**  %407, align 8, !tbaa !4632, !dbg !5191
	br label %L..inline.69628
L..inline.69628:
	%408 = load %struct._ZSt5arrayIdLm3EE*, %struct._ZSt5arrayIdLm3EE** %..inline.addr.430, align 8, !tbaa !4632, !dbg !5195
	%409 = bitcast %struct._ZSt5arrayIdLm3EE*  %408 to i8*, !dbg !5195
	%410 = getelementptr i8, i8*  %409, i64 8, !dbg !5195
	%411 = bitcast double** %..inline.addr.450 to i8**, !dbg !5195
	store i8*  %410, i8**  %411, align 8, !tbaa !4632, !dbg !5195
	%412 = load %struct._Z6FsGridISt5arrayIdLm24EELi2EE*, %struct._Z6FsGridISt5arrayIdLm24EELi2EE** %dMomentsGrid.addr, align 8, !tbaa !4632, !dbg !5196
	%413 = bitcast %struct._Z6FsGridISt5arrayIdLm24EELi2EE*  %412 to i8*, !dbg !5196
	%414 = bitcast %struct._Z6FsGridISt5arrayIdLm24EELi2EE** %..inline.addr.460 to i8**, !dbg !5196
	store i8*  %413, i8**  %414, align 8, !tbaa !4632, !dbg !5196
	%415 = load i32, i32* %i.addr, align 4, !tbaa !4635, !dbg !5194
	store i32  %415, i32* %..inline.addr.470, align 4, !tbaa !4635, !dbg !5194
	%416 = load i32, i32* %j.addr, align 4, !tbaa !4635, !dbg !5194
	store i32  %416, i32* %..inline.addr.480, align 4, !tbaa !4635, !dbg !5194
	%417 = load i32, i32* %k.addr, align 4, !tbaa !4635, !dbg !5194
	store i32  %417, i32* %..inline.addr.490, align 4, !tbaa !4635, !dbg !5194
	store i32 13, i32* %..inline.addr.500, align 4, !tbaa !4635, !dbg !5194
	%418 = bitcast [3 x i32]* %..inline.addr.510 to i32*, !dbg !5163
	store i32 0, i32*  %418, align 4, !tbaa !4633, !dbg !5163
	%419 = bitcast [3 x i32]* %..inline.addr.510 to i8*, !dbg !5164
	%420 = getelementptr i8, i8*  %419, i64 4, !dbg !5164
	%421 = bitcast i8*  %420 to i32*, !dbg !5164
	store i32 0, i32*  %421, align 4, !tbaa !4633, !dbg !5164
	%422 = getelementptr i8, i8*  %419, i64 8, !dbg !5164
	%423 = bitcast i8*  %422 to i32*, !dbg !5164
	store i32 0, i32*  %423, align 4, !tbaa !4633, !dbg !5164
	%424 = icmp sge i32  %415, 0, !dbg !5164
	br i1  %424, label %L..inline.69648, label %L.B1264, !dbg !5164
L.B1264:
	store i32 4, i32* %..inline.addr.500, align 4, !tbaa !4635, !dbg !5165
	%425 = bitcast [3 x i32]* %..inline.addr.510 to i32*, !dbg !5166
	store i32 1, i32*  %425, align 4, !tbaa !4633, !dbg !5166
	br label %L..inline.69648
L..inline.69648:
	%426 = load i32, i32* %..inline.addr.470, align 4, !tbaa !4635, !dbg !5167
	%427 = load %struct._Z6FsGridISt5arrayIdLm24EELi2EE*, %struct._Z6FsGridISt5arrayIdLm24EELi2EE** %..inline.addr.460, align 8, !tbaa !4632, !dbg !5167
	%428 = bitcast %struct._Z6FsGridISt5arrayIdLm24EELi2EE*  %427 to i8*, !dbg !5167
	%429 = getelementptr i8, i8*  %428, i64 264, !dbg !5167
	%430 = bitcast i8*  %429 to i32*, !dbg !5167
	%431 = load i32, i32*  %430, align 4, !tbaa !4633, !dbg !5167
	%432 = icmp slt i32  %426,  %431, !dbg !5167
	br i1  %432, label %L..inline.69666, label %L.B1265, !dbg !5167
L.B1265:
	%433 = load i32, i32* %..inline.addr.500, align 4, !tbaa !4635, !dbg !5167
	%434 = add i32  %433, 9, !dbg !5167
	store i32  %434, i32* %..inline.addr.500, align 4, !tbaa !4635, !dbg !5167
	%435 = bitcast [3 x i32]* %..inline.addr.510 to i32*, !dbg !5168
	store i32 -1, i32*  %435, align 4, !tbaa !4633, !dbg !5168
	br label %L..inline.69666
L..inline.69666:
	%436 = load i32, i32* %..inline.addr.480, align 4, !tbaa !4635, !dbg !5169
	%437 = icmp sge i32  %436, 0, !dbg !5169
	br i1  %437, label %L..inline.69668, label %L.B1266, !dbg !5169
L.B1266:
	%438 = load i32, i32* %..inline.addr.500, align 4, !tbaa !4635, !dbg !5169
	%439 = sub i32  %438, 3, !dbg !5169
	store i32  %439, i32* %..inline.addr.500, align 4, !tbaa !4635, !dbg !5169
	%440 = bitcast [3 x i32]* %..inline.addr.510 to i8*, !dbg !5170
	%441 = getelementptr i8, i8*  %440, i64 4, !dbg !5170
	%442 = bitcast i8*  %441 to i32*, !dbg !5170
	store i32 1, i32*  %442, align 4, !tbaa !4633, !dbg !5170
	br label %L..inline.69668
L..inline.69668:
	%443 = load i32, i32* %..inline.addr.480, align 4, !tbaa !4635, !dbg !5171
	%444 = load %struct._Z6FsGridISt5arrayIdLm24EELi2EE*, %struct._Z6FsGridISt5arrayIdLm24EELi2EE** %..inline.addr.460, align 8, !tbaa !4632, !dbg !5171
	%445 = bitcast %struct._Z6FsGridISt5arrayIdLm24EELi2EE*  %444 to i8*, !dbg !5171
	%446 = getelementptr i8, i8*  %445, i64 268, !dbg !5171
	%447 = bitcast i8*  %446 to i32*, !dbg !5171
	%448 = load i32, i32*  %447, align 4, !tbaa !4633, !dbg !5171
	%449 = icmp slt i32  %443,  %448, !dbg !5171
	br i1  %449, label %L..inline.69685, label %L.B1267, !dbg !5171
L.B1267:
	%450 = load i32, i32* %..inline.addr.500, align 4, !tbaa !4635, !dbg !5171
	%451 = add i32  %450, 3, !dbg !5171
	store i32  %451, i32* %..inline.addr.500, align 4, !tbaa !4635, !dbg !5171
	%452 = bitcast [3 x i32]* %..inline.addr.510 to i8*, !dbg !5172
	%453 = getelementptr i8, i8*  %452, i64 4, !dbg !5172
	%454 = bitcast i8*  %453 to i32*, !dbg !5172
	store i32 -1, i32*  %454, align 4, !tbaa !4633, !dbg !5172
	br label %L..inline.69685
L..inline.69685:
	%455 = load i32, i32* %..inline.addr.490, align 4, !tbaa !4635, !dbg !5173
	%456 = icmp sge i32  %455, 0, !dbg !5173
	br i1  %456, label %L..inline.69687, label %L.B1268, !dbg !5173
L.B1268:
	%457 = load i32, i32* %..inline.addr.500, align 4, !tbaa !4635, !dbg !5173
	%458 = sub i32  %457, 1, !dbg !5173
	store i32  %458, i32* %..inline.addr.500, align 4, !tbaa !4635, !dbg !5173
	%459 = bitcast [3 x i32]* %..inline.addr.510 to i8*, !dbg !5174
	%460 = getelementptr i8, i8*  %459, i64 8, !dbg !5174
	%461 = bitcast i8*  %460 to i32*, !dbg !5174
	store i32 1, i32*  %461, align 4, !tbaa !4633, !dbg !5174
	br label %L..inline.69687
L..inline.69687:
	%462 = load i32, i32* %..inline.addr.490, align 4, !tbaa !4635, !dbg !5175
	%463 = load %struct._Z6FsGridISt5arrayIdLm24EELi2EE*, %struct._Z6FsGridISt5arrayIdLm24EELi2EE** %..inline.addr.460, align 8, !tbaa !4632, !dbg !5175
	%464 = bitcast %struct._Z6FsGridISt5arrayIdLm24EELi2EE*  %463 to i8*, !dbg !5175
	%465 = getelementptr i8, i8*  %464, i64 272, !dbg !5175
	%466 = bitcast i8*  %465 to i32*, !dbg !5175
	%467 = load i32, i32*  %466, align 4, !tbaa !4633, !dbg !5175
	%468 = icmp slt i32  %462,  %467, !dbg !5175
	br i1  %468, label %L..inline.69704, label %L.B1269, !dbg !5175
L.B1269:
	%469 = load i32, i32* %..inline.addr.500, align 4, !tbaa !4635, !dbg !5175
	%470 = add i32  %469, 1, !dbg !5175
	store i32  %470, i32* %..inline.addr.500, align 4, !tbaa !4635, !dbg !5175
	%471 = bitcast [3 x i32]* %..inline.addr.510 to i8*, !dbg !5176
	%472 = getelementptr i8, i8*  %471, i64 8, !dbg !5176
	%473 = bitcast i8*  %472 to i32*, !dbg !5176
	store i32 -1, i32*  %473, align 4, !tbaa !4633, !dbg !5176
	br label %L..inline.69704
L..inline.69704:
	%474 = load i32, i32* %..inline.addr.500, align 4, !tbaa !4635, !dbg !5177
	%475 = icmp eq i32  %474, 13, !dbg !5177
	br i1  %475, label %L..inline.69705, label %L.B1270, !dbg !5177
L.B1270:
	%476 = sext i32  %474 to i64, !dbg !5178
	%477 = load %struct._Z6FsGridISt5arrayIdLm24EELi2EE*, %struct._Z6FsGridISt5arrayIdLm24EELi2EE** %..inline.addr.460, align 8, !tbaa !4632, !dbg !5178
	%478 = bitcast %struct._Z6FsGridISt5arrayIdLm24EELi2EE*  %477 to i8*, !dbg !5178
	%479 = getelementptr i8, i8*  %478, i64 92, !dbg !5178
	%480 = bitcast i8*  %479 to i32*, !dbg !5178
	%481 = getelementptr i32, i32*  %480, i64  %476, !dbg !5178
	%482 = load i32, i32*  %481, align 4, !tbaa !4633, !dbg !5178
	%483 = icmp ne i32  %482, -2, !dbg !5178
	br i1  %483, label %L..inline.69722, label %L.B1271, !dbg !5178
L.B1271:
	%484 = bitcast %struct._ZSt5arrayIdLm24EE** %..inline.addr.520 to i8**, !dbg !5178
	store i8* null, i8**  %484, align 8, !tbaa !4632, !dbg !5178
	br label %L..inline.69909, !dbg !5179
L..inline.69722:
	%485 = load i32, i32* %..inline.addr.500, align 4, !tbaa !4635, !dbg !5186
	%486 = sext i32  %485 to i64, !dbg !5186
	%487 = load %struct._Z6FsGridISt5arrayIdLm24EELi2EE*, %struct._Z6FsGridISt5arrayIdLm24EELi2EE** %..inline.addr.460, align 8, !tbaa !4632, !dbg !5186
	%488 = bitcast %struct._Z6FsGridISt5arrayIdLm24EELi2EE*  %487 to i8*, !dbg !5186
	%489 = getelementptr i8, i8*  %488, i64 92, !dbg !5186
	%490 = bitcast i8*  %489 to i32*, !dbg !5186
	%491 = getelementptr i32, i32*  %490, i64  %486, !dbg !5186
	%492 = load i32, i32*  %491, align 4, !tbaa !4633, !dbg !5186
	%493 = getelementptr i8, i8*  %488, i64 56, !dbg !5186
	%494 = bitcast i8*  %493 to i32*, !dbg !5186
	%495 = load i32, i32*  %494, align 4, !tbaa !4633, !dbg !5186
	%496 = icmp ne i32  %492,  %495, !dbg !5186
	br i1  %496, label %L..inline.69740, label %L.B1272, !dbg !5186
L.B1272:
	%497 = load i32, i32* %..inline.addr.470, align 4, !tbaa !4635, !dbg !5187
	%498 = bitcast [3 x i32]* %..inline.addr.510 to i32*, !dbg !5187
	%499 = load i32, i32*  %498, align 4, !tbaa !4633, !dbg !5187
	%500 = bitcast %struct._Z6FsGridISt5arrayIdLm24EELi2EE*  %487 to i8*, !dbg !5187
	%501 = getelementptr i8, i8*  %500, i64 264, !dbg !5187
	%502 = bitcast i8*  %501 to i32*, !dbg !5187
	%503 = load i32, i32*  %502, align 4, !tbaa !4633, !dbg !5187
	%504 = mul i32  %499,  %503, !dbg !5187
	%505 = add i32  %497,  %504, !dbg !5187
	store i32  %505, i32* %..inline.addr.470, align 4, !tbaa !4635, !dbg !5187
	%506 = load i32, i32* %..inline.addr.480, align 4, !tbaa !4635, !dbg !5188
	%507 = bitcast [3 x i32]* %..inline.addr.510 to i8*, !dbg !5188
	%508 = getelementptr i8, i8*  %507, i64 4, !dbg !5188
	%509 = bitcast i8*  %508 to i32*, !dbg !5188
	%510 = load i32, i32*  %509, align 4, !tbaa !4633, !dbg !5188
	%511 = getelementptr i8, i8*  %500, i64 268, !dbg !5188
	%512 = bitcast i8*  %511 to i32*, !dbg !5188
	%513 = load i32, i32*  %512, align 4, !tbaa !4633, !dbg !5188
	%514 = mul i32  %510,  %513, !dbg !5188
	%515 = add i32  %506,  %514, !dbg !5188
	store i32  %515, i32* %..inline.addr.480, align 4, !tbaa !4635, !dbg !5188
	%516 = load i32, i32* %..inline.addr.490, align 4, !tbaa !4635, !dbg !5189
	%517 = getelementptr i8, i8*  %507, i64 8, !dbg !5189
	%518 = bitcast i8*  %517 to i32*, !dbg !5189
	%519 = load i32, i32*  %518, align 4, !tbaa !4633, !dbg !5189
	%520 = getelementptr i8, i8*  %500, i64 272, !dbg !5189
	%521 = bitcast i8*  %520 to i32*, !dbg !5189
	%522 = load i32, i32*  %521, align 4, !tbaa !4633, !dbg !5189
	%523 = mul i32  %519,  %522, !dbg !5189
	%524 = add i32  %516,  %523, !dbg !5189
	store i32  %524, i32* %..inline.addr.490, align 4, !tbaa !4635, !dbg !5189
	br label %L..inline.69740
L..inline.69740:
	br label %L..inline.69705
L..inline.69705:
	store i64 0, i64* %..inline.addr.530, align 8, !tbaa !4637, !dbg !5190
	%525 = load %struct._Z6FsGridISt5arrayIdLm24EELi2EE*, %struct._Z6FsGridISt5arrayIdLm24EELi2EE** %..inline.addr.460, align 8, !tbaa !4632, !dbg !5190
	%526 = bitcast %struct._Z6FsGridISt5arrayIdLm24EELi2EE*  %525 to i8*, !dbg !5190
	%527 = getelementptr i8, i8*  %526, i64 260, !dbg !5190
	%528 = bitcast i8*  %527 to i32*, !dbg !5190
	%529 = load i32, i32*  %528, align 4, !tbaa !4633, !dbg !5190
	%530 = icmp sle i32  %529, 1, !dbg !5190
	br i1  %530, label %L..inline.69814, label %L.B1273, !dbg !5190
L.B1273:
	%531 = load i32, i32* %..inline.addr.490, align 4, !tbaa !4635, !dbg !5190
	%532 = add i32  %531, 2, !dbg !5190
	%533 = bitcast %struct._Z6FsGridISt5arrayIdLm24EELi2EE*  %525 to i8*, !dbg !5190
	%534 = getelementptr i8, i8*  %533, i64 280, !dbg !5190
	%535 = bitcast i8*  %534 to i32*, !dbg !5190
	%536 = load i32, i32*  %535, align 4, !tbaa !4633, !dbg !5190
	%537 = getelementptr i8, i8*  %533, i64 276, !dbg !5190
	%538 = bitcast i8*  %537 to i32*, !dbg !5190
	%539 = load i32, i32*  %538, align 4, !tbaa !4633, !dbg !5190
	%540 = mul i32  %536,  %539, !dbg !5190
	%541 = mul i32  %532,  %540, !dbg !5190
	%542 = sext i32  %541 to i64, !dbg !5190
	store i64  %542, i64* %..inline.addr.530, align 8, !tbaa !4637, !dbg !5190
	br label %L..inline.69814
L..inline.69814:
	%543 = load %struct._Z6FsGridISt5arrayIdLm24EELi2EE*, %struct._Z6FsGridISt5arrayIdLm24EELi2EE** %..inline.addr.460, align 8, !tbaa !4632, !dbg !5190
	%544 = bitcast %struct._Z6FsGridISt5arrayIdLm24EELi2EE*  %543 to i8*, !dbg !5190
	%545 = getelementptr i8, i8*  %544, i64 256, !dbg !5190
	%546 = bitcast i8*  %545 to i32*, !dbg !5190
	%547 = load i32, i32*  %546, align 4, !tbaa !4633, !dbg !5190
	%548 = icmp sle i32  %547, 1, !dbg !5190
	br i1  %548, label %L..inline.69863, label %L.B1274, !dbg !5190
L.B1274:
	%549 = load i64, i64* %..inline.addr.530, align 8, !tbaa !4637, !dbg !5190
	%550 = bitcast %struct._Z6FsGridISt5arrayIdLm24EELi2EE*  %543 to i8*, !dbg !5190
	%551 = getelementptr i8, i8*  %550, i64 276, !dbg !5190
	%552 = bitcast i8*  %551 to i32*, !dbg !5190
	%553 = load i32, i32*  %552, align 4, !tbaa !4633, !dbg !5190
	%554 = load i32, i32* %..inline.addr.480, align 4, !tbaa !4635, !dbg !5190
	%555 = add i32  %554, 2, !dbg !5190
	%556 = mul i32  %553,  %555, !dbg !5190
	%557 = sext i32  %556 to i64, !dbg !5190
	%558 = add i64  %549,  %557, !dbg !5190
	store i64  %558, i64* %..inline.addr.530, align 8, !tbaa !4637, !dbg !5190
	br label %L..inline.69863
L..inline.69863:
	%559 = load %struct._Z6FsGridISt5arrayIdLm24EELi2EE*, %struct._Z6FsGridISt5arrayIdLm24EELi2EE** %..inline.addr.460, align 8, !tbaa !4632, !dbg !5190
	%560 = bitcast %struct._Z6FsGridISt5arrayIdLm24EELi2EE*  %559 to i8*, !dbg !5190
	%561 = getelementptr i8, i8*  %560, i64 252, !dbg !5190
	%562 = bitcast i8*  %561 to i32*, !dbg !5190
	%563 = load i32, i32*  %562, align 4, !tbaa !4633, !dbg !5190
	%564 = icmp sle i32  %563, 1, !dbg !5190
	%565 = zext i1  %564 to i32, !dbg !5190
	%566 = trunc i32  %565 to i1, !dbg !5190
	%567 = load i64, i64* %..inline.addr.530, align 8, !tbaa !4637, !dbg !5190
	%568 = load i32, i32* %..inline.addr.470, align 4, !tbaa !4635, !dbg !5190
	%569 = sext i32  %568 to i64, !dbg !5190
	%570 = add i64  %569, 2, !dbg !5190
	%571 = add i64  %567,  %570, !dbg !5190
	%572 = select i1  %566, i64  %567, i64  %571, !dbg !5190
	%573 = getelementptr i8, i8*  %560, i64 744, !dbg !5191
	%574 = bitcast i8*  %573 to i8**, !dbg !5191
	%575 = load i8*, i8**  %574, align 8, !tbaa !4632, !dbg !5191
	%576 = mul i64  %572, 192, !dbg !5191
	%577 = getelementptr i8, i8*  %575, i64  %576, !dbg !5191
	%578 = bitcast %struct._ZSt5arrayIdLm24EE** %..inline.addr.520 to i8**, !dbg !5191
	store i8*  %577, i8**  %578, align 8, !tbaa !4632, !dbg !5191
	br label %L..inline.69909
L..inline.69909:
	%579 = load double, double* @_ZN10Parameters19electronTemperatureE, align 8, !tbaa !4639, !dbg !5196
	%580 = fmul double  %579, -1.38065030000000010E-23, !dbg !5196
	%581 = load %struct._ZSt5arrayIdLm24EE*, %struct._ZSt5arrayIdLm24EE** %..inline.addr.520, align 8, !tbaa !4632, !dbg !5196
	%582 = bitcast %struct._ZSt5arrayIdLm24EE*  %581 to i8*, !dbg !5196
	%583 = getelementptr i8, i8*  %582, i64 32, !dbg !5196
	%584 = bitcast i8*  %583 to double*, !dbg !5196
	%585 = load double, double*  %584, align 8, !tbaa !4633, !dbg !5196
	%586 = fmul double  %580,  %585, !dbg !5196
	%587 = load %struct._Z6FsGridISt5arrayIdLm3EELi2EE*, %struct._Z6FsGridISt5arrayIdLm3EELi2EE** %EGradPeGrid.addr, align 8, !tbaa !4632, !dbg !5196
	%588 = bitcast %struct._Z6FsGridISt5arrayIdLm3EELi2EE*  %587 to i8*, !dbg !5196
	%589 = getelementptr i8, i8*  %588, i64 8, !dbg !5196
	%590 = bitcast i8*  %589 to double*, !dbg !5196
	%591 = load double, double*  %590, align 8, !tbaa !4633, !dbg !5196
	%592 = load double, double* %hallRhoq.addr, align 8, !tbaa !4639, !dbg !5196
	%593 = fmul double  %591,  %592, !dbg !5196
	%594 = fdiv double  %586,  %593, !dbg !5196
	%595 = load double*, double** %..inline.addr.450, align 8, !tbaa !4632, !dbg !5196
	store double  %594, double*  %595, align 8, !tbaa !4633, !dbg !5196
	br label %L_T18154496_50931, !dbg !5197
L.B0010:
	%596 = bitcast [27 x i8]* @.S52189 to i8*, !dbg !5198
	%597 = icmp ne i8*  %596,  null, !dbg !5198
	br i1  %597, label %L..inline.69931, label %L.B1275, !dbg !5198
L.B1275:
	%598 = bitcast %struct._ZSo* @_ZSt4cerr to i8*, !dbg !5181
	%599 = bitcast %struct._ZSo* @_ZSt4cerr to i8**, !dbg !5181
	%600 = load i8*, i8**  %599, align 8, !tbaa !4632, !dbg !5181
	%601 = getelementptr i8, i8*  %600, i64 18446744073709551592, !dbg !5181
	%602 = bitcast i8*  %601 to i64*, !dbg !5181
	%603 = load i64, i64*  %602, align 8, !tbaa !4633, !dbg !5181
	%604 = getelementptr i8, i8*  %598, i64  %603, !dbg !5181
	%605 = bitcast %struct._ZSt9basic_iosIcSt11char_traitsIcEE** %..inline.addr.540 to i8**, !dbg !5181
	store i8*  %604, i8**  %605, align 8, !tbaa !4632, !dbg !5181
	%606 = bitcast %struct._ZSt9basic_iosIcSt11char_traitsIcEE** %..inline.addr.550 to i8**, !dbg !5181
	store i8*  %604, i8**  %606, align 8, !tbaa !4632, !dbg !5181
	%607 = load %struct._ZSt9basic_iosIcSt11char_traitsIcEE*, %struct._ZSt9basic_iosIcSt11char_traitsIcEE** %..inline.addr.550, align 8, !tbaa !4632, !dbg !5181
	%608 = bitcast %struct._ZSt9basic_iosIcSt11char_traitsIcEE*  %607 to i8*, !dbg !5181
	%609 = getelementptr i8, i8*  %608, i64 32, !dbg !5181
	%610 = bitcast i8*  %609 to i32*, !dbg !5181
	%611 = load i32, i32*  %610, align 4, !tbaa !4633, !dbg !5181
	%612 = or i32  %611, 1, !dbg !5181
	%613 = load %struct._ZSt9basic_iosIcSt11char_traitsIcEE*, %struct._ZSt9basic_iosIcSt11char_traitsIcEE** %..inline.addr.540, align 8, !tbaa !4632, !dbg !5181
	call void  @_ZNSt9basic_iosIcSt11char_traitsIcEE5clearESt12_Ios_Iostate (%struct._ZSt9basic_iosIcSt11char_traitsIcEE*  %613, i32  %612), !dbg !5181
	br label %L..inline.69952, !dbg !5181
L..inline.69931:
	%614 = bitcast [27 x i8]* @.S52189 to i8*, !dbg !5182
	%615 = call i64  @strlen (i8*  %614) nounwind, !dbg !5182
	%616 = call %struct._ZSo*  @_ZSt16__ostream_insertIcSt11char_traitsIcEERSt13basic_ostreamIT_T0_ES6_PKS3_l (%struct._ZSo* @_ZSt4cerr, i8*  %614, i64  %615), !dbg !5182
	%617 = bitcast %struct._ZSo*  %616 to i8*, !dbg !5182
	%618 = bitcast %struct._ZSo** %.Q0013.addr to i8**, !dbg !5182
	store i8*  %617, i8**  %618, align 8, !tbaa !4632, !dbg !5182
	br label %L..inline.69952
L..inline.69952:
	%619 = bitcast [2 x i8]* @.S52208 to i8*, !dbg !5198
	%620 = icmp ne i8*  %619,  null, !dbg !5198
	br i1  %620, label %L..inline.69964, label %L.B1276, !dbg !5198
L.B1276:
	%621 = bitcast %struct._ZSo* @_ZSt4cerr to i8*, !dbg !5181
	%622 = bitcast %struct._ZSo* @_ZSt4cerr to i8**, !dbg !5181
	%623 = load i8*, i8**  %622, align 8, !tbaa !4632, !dbg !5181
	%624 = getelementptr i8, i8*  %623, i64 18446744073709551592, !dbg !5181
	%625 = bitcast i8*  %624 to i64*, !dbg !5181
	%626 = load i64, i64*  %625, align 8, !tbaa !4633, !dbg !5181
	%627 = getelementptr i8, i8*  %621, i64  %626, !dbg !5181
	%628 = bitcast %struct._ZSt9basic_iosIcSt11char_traitsIcEE** %..inline.addr.590 to i8**, !dbg !5181
	store i8*  %627, i8**  %628, align 8, !tbaa !4632, !dbg !5181
	%629 = bitcast %struct._ZSt9basic_iosIcSt11char_traitsIcEE** %..inline.addr.600 to i8**, !dbg !5181
	store i8*  %627, i8**  %629, align 8, !tbaa !4632, !dbg !5181
	%630 = load %struct._ZSt9basic_iosIcSt11char_traitsIcEE*, %struct._ZSt9basic_iosIcSt11char_traitsIcEE** %..inline.addr.600, align 8, !tbaa !4632, !dbg !5181
	%631 = bitcast %struct._ZSt9basic_iosIcSt11char_traitsIcEE*  %630 to i8*, !dbg !5181
	%632 = getelementptr i8, i8*  %631, i64 32, !dbg !5181
	%633 = bitcast i8*  %632 to i32*, !dbg !5181
	%634 = load i32, i32*  %633, align 4, !tbaa !4633, !dbg !5181
	%635 = or i32  %634, 1, !dbg !5181
	%636 = load %struct._ZSt9basic_iosIcSt11char_traitsIcEE*, %struct._ZSt9basic_iosIcSt11char_traitsIcEE** %..inline.addr.590, align 8, !tbaa !4632, !dbg !5181
	call void  @_ZNSt9basic_iosIcSt11char_traitsIcEE5clearESt12_Ios_Iostate (%struct._ZSt9basic_iosIcSt11char_traitsIcEE*  %636, i32  %635), !dbg !5181
	br label %L..inline.69985, !dbg !5181
L..inline.69964:
	%637 = bitcast [2 x i8]* @.S52208 to i8*, !dbg !5182
	%638 = call i64  @strlen (i8*  %637) nounwind, !dbg !5182
	%639 = call %struct._ZSo*  @_ZSt16__ostream_insertIcSt11char_traitsIcEERSt13basic_ostreamIT_T0_ES6_PKS3_l (%struct._ZSo* @_ZSt4cerr, i8*  %637, i64  %638), !dbg !5182
	%640 = bitcast %struct._ZSo*  %639 to i8*, !dbg !5182
	%641 = bitcast %struct._ZSo** %.Q0014.addr to i8**, !dbg !5182
	store i8*  %640, i8**  %641, align 8, !tbaa !4632, !dbg !5182
	br label %L..inline.69985
L..inline.69985:
	%642 = call %struct._ZSo*  @_ZNSolsEi (%struct._ZSo* @_ZSt4cerr, i32 81), !dbg !5183
	%643 = bitcast %struct._ZSo*  %642 to i8*, !dbg !5183
	%644 = bitcast %struct._ZSo** %.Q0015.addr to i8**, !dbg !5183
	store i8*  %643, i8**  %644, align 8, !tbaa !4632, !dbg !5183
	%645 = load %struct._ZSo*, %struct._ZSo** %.Q0015.addr, align 8, !tbaa !4632, !dbg !5183
	%646 = bitcast %struct._ZSo*  %645 to i8*, !dbg !5183
	%647 = bitcast %struct._ZSo** %..inline.addr.650 to i8**, !dbg !5183
	store i8*  %646, i8**  %647, align 8, !tbaa !4632, !dbg !5183
	%648 = bitcast [65 x i8]* @.S52212 to i8*, !dbg !5198
	%649 = icmp ne i8*  %648,  null, !dbg !5198
	br i1  %649, label %L..inline.69997, label %L.B1277, !dbg !5198
L.B1277:
	%650 = load %struct._ZSo*, %struct._ZSo** %..inline.addr.650, align 8, !tbaa !4632, !dbg !5181
	%651 = bitcast %struct._ZSo*  %650 to i8*, !dbg !5181
	%652 = bitcast %struct._ZSo*  %650 to i8**, !dbg !5181
	%653 = load i8*, i8**  %652, align 8, !tbaa !4632, !dbg !5181
	%654 = getelementptr i8, i8*  %653, i64 18446744073709551592, !dbg !5181
	%655 = bitcast i8*  %654 to i64*, !dbg !5181
	%656 = load i64, i64*  %655, align 8, !tbaa !4633, !dbg !5181
	%657 = getelementptr i8, i8*  %651, i64  %656, !dbg !5181
	%658 = bitcast %struct._ZSt9basic_iosIcSt11char_traitsIcEE** %..inline.addr.660 to i8**, !dbg !5181
	store i8*  %657, i8**  %658, align 8, !tbaa !4632, !dbg !5181
	%659 = bitcast %struct._ZSt9basic_iosIcSt11char_traitsIcEE** %..inline.addr.670 to i8**, !dbg !5181
	store i8*  %657, i8**  %659, align 8, !tbaa !4632, !dbg !5181
	%660 = load %struct._ZSt9basic_iosIcSt11char_traitsIcEE*, %struct._ZSt9basic_iosIcSt11char_traitsIcEE** %..inline.addr.670, align 8, !tbaa !4632, !dbg !5181
	%661 = bitcast %struct._ZSt9basic_iosIcSt11char_traitsIcEE*  %660 to i8*, !dbg !5181
	%662 = getelementptr i8, i8*  %661, i64 32, !dbg !5181
	%663 = bitcast i8*  %662 to i32*, !dbg !5181
	%664 = load i32, i32*  %663, align 4, !tbaa !4633, !dbg !5181
	%665 = or i32  %664, 1, !dbg !5181
	%666 = load %struct._ZSt9basic_iosIcSt11char_traitsIcEE*, %struct._ZSt9basic_iosIcSt11char_traitsIcEE** %..inline.addr.660, align 8, !tbaa !4632, !dbg !5181
	call void  @_ZNSt9basic_iosIcSt11char_traitsIcEE5clearESt12_Ios_Iostate (%struct._ZSt9basic_iosIcSt11char_traitsIcEE*  %666, i32  %665), !dbg !5181
	br label %L..inline.70018, !dbg !5181
L..inline.69997:
	%667 = bitcast [65 x i8]* @.S52212 to i8*, !dbg !5182
	%668 = call i64  @strlen (i8*  %667) nounwind, !dbg !5182
	%669 = load %struct._ZSo*, %struct._ZSo** %..inline.addr.650, align 8, !tbaa !4632, !dbg !5182
	%670 = call %struct._ZSo*  @_ZSt16__ostream_insertIcSt11char_traitsIcEERSt13basic_ostreamIT_T0_ES6_PKS3_l (%struct._ZSo*  %669, i8*  %667, i64  %668), !dbg !5182
	%671 = bitcast %struct._ZSo*  %670 to i8*, !dbg !5182
	%672 = bitcast %struct._ZSo** %.Q0016.addr to i8**, !dbg !5182
	store i8*  %671, i8**  %672, align 8, !tbaa !4632, !dbg !5182
	br label %L..inline.70018
L..inline.70018:
	%673 = load %struct._ZSo*, %struct._ZSo** %..inline.addr.650, align 8, !tbaa !4632, !dbg !5183
	%674 = bitcast %struct._ZSo*  %673 to i8*, !dbg !5183
	%675 = bitcast %struct._ZSo** %..inline.addr.710 to i8**, !dbg !5183
	store i8*  %674, i8**  %675, align 8, !tbaa !4632, !dbg !5183
	%676 = load %struct._ZSo*, %struct._ZSo** %..inline.addr.710, align 8, !tbaa !4632, !dbg !5184
	%677 = call %struct._ZSo*  @_ZSt4endlIcSt11char_traitsIcEERSt13basic_ostreamIT_T0_ES6_ (%struct._ZSo*  %676), !dbg !5184
	%678 = bitcast %struct._ZSo*  %677 to i8*, !dbg !5184
	%679 = bitcast %struct._ZSo** %.Q0017.addr to i8**, !dbg !5184
	store i8*  %678, i8**  %679, align 8, !tbaa !4632, !dbg !5184
	br label %L_T18154496_50931
L_T18154496_50931:
	ret void, !dbg !5199
}
define void @_Z34calculateEdgeGradPeTermZComponentsR6FsGridISt5arrayIdLm3EELi2EERS_IS0_IdLm8EELi2EERS_IS0_IdLm24EELi2EEiii(%struct._Z6FsGridISt5arrayIdLm3EELi2EE* %EGradPeGrid.arg, %struct._Z6FsGridISt5arrayIdLm8EELi2EE* %momentsGrid.arg, %struct._Z6FsGridISt5arrayIdLm24EELi2EE* %dMomentsGrid.arg, i32 signext %i.arg, i32 signext %j.arg, i32 signext %k.arg) #0 !dbg !5201 {
L.entry:
	%EGradPeGrid.addr = alloca %struct._Z6FsGridISt5arrayIdLm3EELi2EE*, align 8
	%momentsGrid.addr = alloca %struct._Z6FsGridISt5arrayIdLm8EELi2EE*, align 8
	%dMomentsGrid.addr = alloca %struct._Z6FsGridISt5arrayIdLm24EELi2EE*, align 8
	%i.addr = alloca i32, align 4
	%j.addr = alloca i32, align 4
	%k.addr = alloca i32, align 4
	%.D0002.addr = alloca i32, align 4
	%..inline.addr = alloca %struct._Z6FsGridISt5arrayIdLm8EELi2EE*, align 8
	%..inline.addr.1 = alloca i32, align 4
	%..inline.addr.2 = alloca i32, align 4
	%..inline.addr.3 = alloca i32, align 4
	%..inline.addr.4 = alloca i32, align 4
	%..inline.addr.5 = alloca [3 x i32], align 4
	%..inline.addr.6 = alloca %struct._ZSt5arrayIdLm8EE*, align 8
	%..inline.addr.7 = alloca %struct._ZSt9basic_iosIcSt11char_traitsIcEE*, align 8
	%..inline.addr.8 = alloca %struct._ZSt9basic_iosIcSt11char_traitsIcEE*, align 8
	%..inline.addr.9 = alloca i32, align 4
	%..inline.addr.230 = alloca i64, align 8
	%.Q0018.addr = alloca %struct._ZSo*, align 8
	%.Q0019.addr = alloca %struct._ZSo*, align 8
	%..inline.addr.260 = alloca %struct._ZSo*, align 8
	%..inline.addr.270 = alloca %struct._ZSt9basic_iosIcSt11char_traitsIcEE*, align 8
	%..inline.addr.280 = alloca %struct._ZSt9basic_iosIcSt11char_traitsIcEE*, align 8
	%..inline.addr.290 = alloca i32, align 4
	%..inline.addr.300 = alloca i64, align 8
	%.Q0020.addr = alloca %struct._ZSo*, align 8
	%..inline.addr.320 = alloca %struct._ZSo*, align 8
	%.Q0021.addr = alloca %struct._ZSo*, align 8
	%..inline.addr.340 = alloca i64, align 8
	%.I0002.addr = alloca double, align 8
	%hallRhoq.addr = alloca double, align 8
	%..inline.addr.370 = alloca %struct._Z6FsGridISt5arrayIdLm3EELi2EE*, align 8
	%..inline.addr.380 = alloca i32, align 4
	%..inline.addr.390 = alloca i32, align 4
	%..inline.addr.400 = alloca i32, align 4
	%..inline.addr.410 = alloca i32, align 4
	%..inline.addr.420 = alloca [3 x i32], align 4
	%..inline.addr.430 = alloca %struct._ZSt5arrayIdLm3EE*, align 8
	%..inline.addr.440 = alloca i64, align 8
	%..inline.addr.450 = alloca double*, align 8
	%..inline.addr.460 = alloca %struct._Z6FsGridISt5arrayIdLm24EELi2EE*, align 8
	%..inline.addr.470 = alloca i32, align 4
	%..inline.addr.480 = alloca i32, align 4
	%..inline.addr.490 = alloca i32, align 4
	%..inline.addr.500 = alloca i32, align 4
	%..inline.addr.510 = alloca [3 x i32], align 4
	%..inline.addr.520 = alloca %struct._ZSt5arrayIdLm24EE*, align 8
	%..inline.addr.530 = alloca i64, align 8
	%..inline.addr.540 = alloca %struct._ZSt9basic_iosIcSt11char_traitsIcEE*, align 8
	%..inline.addr.550 = alloca %struct._ZSt9basic_iosIcSt11char_traitsIcEE*, align 8
	%..inline.addr.560 = alloca i32, align 4
	%..inline.addr.570 = alloca i64, align 8
	%.Q0022.addr = alloca %struct._ZSo*, align 8
	%..inline.addr.590 = alloca %struct._ZSt9basic_iosIcSt11char_traitsIcEE*, align 8
	%..inline.addr.600 = alloca %struct._ZSt9basic_iosIcSt11char_traitsIcEE*, align 8
	%..inline.addr.610 = alloca i32, align 4
	%..inline.addr.620 = alloca i64, align 8
	%.Q0023.addr = alloca %struct._ZSo*, align 8
	%.Q0024.addr = alloca %struct._ZSo*, align 8
	%..inline.addr.650 = alloca %struct._ZSo*, align 8
	%..inline.addr.660 = alloca %struct._ZSt9basic_iosIcSt11char_traitsIcEE*, align 8
	%..inline.addr.670 = alloca %struct._ZSt9basic_iosIcSt11char_traitsIcEE*, align 8
	%..inline.addr.680 = alloca i32, align 4
	%..inline.addr.690 = alloca i64, align 8
	%.Q0025.addr = alloca %struct._ZSo*, align 8
	%..inline.addr.710 = alloca %struct._ZSo*, align 8
	%.Q0026.addr = alloca %struct._ZSo*, align 8

	call void @llvm.dbg.declare (metadata %struct._Z6FsGridISt5arrayIdLm3EELi2EE** %EGradPeGrid.addr, metadata !5709, metadata !4571), !dbg !5202
	store %struct._Z6FsGridISt5arrayIdLm3EELi2EE* %EGradPeGrid.arg, %struct._Z6FsGridISt5arrayIdLm3EELi2EE** %EGradPeGrid.addr, align 8, !tbaa !4632
	call void @llvm.dbg.declare (metadata %struct._Z6FsGridISt5arrayIdLm3EELi2EE** %EGradPeGrid.addr, metadata !5710, metadata !4571), !dbg !5202
	call void @llvm.dbg.declare (metadata %struct._Z6FsGridISt5arrayIdLm8EELi2EE** %momentsGrid.addr, metadata !5711, metadata !4571), !dbg !5202
	store %struct._Z6FsGridISt5arrayIdLm8EELi2EE* %momentsGrid.arg, %struct._Z6FsGridISt5arrayIdLm8EELi2EE** %momentsGrid.addr, align 8, !tbaa !4632
	call void @llvm.dbg.declare (metadata %struct._Z6FsGridISt5arrayIdLm8EELi2EE** %momentsGrid.addr, metadata !5712, metadata !4571), !dbg !5202
	call void @llvm.dbg.declare (metadata %struct._Z6FsGridISt5arrayIdLm24EELi2EE** %dMomentsGrid.addr, metadata !5713, metadata !4571), !dbg !5202
	store %struct._Z6FsGridISt5arrayIdLm24EELi2EE* %dMomentsGrid.arg, %struct._Z6FsGridISt5arrayIdLm24EELi2EE** %dMomentsGrid.addr, align 8, !tbaa !4632
	call void @llvm.dbg.declare (metadata %struct._Z6FsGridISt5arrayIdLm24EELi2EE** %dMomentsGrid.addr, metadata !5714, metadata !4571), !dbg !5202
	call void @llvm.dbg.declare (metadata i32* %i.addr, metadata !5715, metadata !4571), !dbg !5202
	store i32 %i.arg, i32* %i.addr, align 4, !tbaa !4633
	call void @llvm.dbg.declare (metadata i32* %i.addr, metadata !5716, metadata !4571), !dbg !5202
	call void @llvm.dbg.declare (metadata i32* %j.addr, metadata !5717, metadata !4571), !dbg !5202
	store i32 %j.arg, i32* %j.addr, align 4, !tbaa !4633
	call void @llvm.dbg.declare (metadata i32* %j.addr, metadata !5718, metadata !4571), !dbg !5202
	call void @llvm.dbg.declare (metadata i32* %k.addr, metadata !5719, metadata !4571), !dbg !5202
	store i32 %k.arg, i32* %k.addr, align 4, !tbaa !4633
	call void @llvm.dbg.declare (metadata i32* %k.addr, metadata !5720, metadata !4571), !dbg !5202
	%0 = load i32, i32* @_ZN10Parameters13ohmGradPeTermE, align 4, !tbaa !4635, !dbg !5721
	store i32  %0, i32* %.D0002.addr, align 4, !tbaa !4635, !dbg !5721
	%1 = icmp eq i32  %0, 0, !dbg !5721
	br i1  %1, label %L.B0012, label %L.B1304, !dbg !5721
L.B1304:
	%2 = icmp ne i32  %0, 1, !dbg !5721
	br i1  %2, label %L.B0016, label %L.B0013, !dbg !5721
L.B0013:
	%3 = load %struct._Z6FsGridISt5arrayIdLm8EELi2EE*, %struct._Z6FsGridISt5arrayIdLm8EELi2EE** %momentsGrid.addr, align 8, !tbaa !4632, !dbg !5722
	%4 = bitcast %struct._Z6FsGridISt5arrayIdLm8EELi2EE*  %3 to i8*, !dbg !5722
	%5 = bitcast %struct._Z6FsGridISt5arrayIdLm8EELi2EE** %..inline.addr to i8**, !dbg !5722
	store i8*  %4, i8**  %5, align 8, !tbaa !4632, !dbg !5722
	%6 = load i32, i32* %i.addr, align 4, !tbaa !4635, !dbg !5722
	store i32  %6, i32* %..inline.addr.1, align 4, !tbaa !4635, !dbg !5722
	%7 = load i32, i32* %j.addr, align 4, !tbaa !4635, !dbg !5722
	store i32  %7, i32* %..inline.addr.2, align 4, !tbaa !4635, !dbg !5722
	%8 = load i32, i32* %k.addr, align 4, !tbaa !4635, !dbg !5722
	store i32  %8, i32* %..inline.addr.3, align 4, !tbaa !4635, !dbg !5722
	store i32 13, i32* %..inline.addr.4, align 4, !tbaa !4635, !dbg !5722
	%9 = bitcast [3 x i32]* %..inline.addr.5 to i32*, !dbg !5723
	store i32 0, i32*  %9, align 4, !tbaa !4633, !dbg !5723
	%10 = bitcast [3 x i32]* %..inline.addr.5 to i8*, !dbg !5724
	%11 = getelementptr i8, i8*  %10, i64 4, !dbg !5724
	%12 = bitcast i8*  %11 to i32*, !dbg !5724
	store i32 0, i32*  %12, align 4, !tbaa !4633, !dbg !5724
	%13 = getelementptr i8, i8*  %10, i64 8, !dbg !5724
	%14 = bitcast i8*  %13 to i32*, !dbg !5724
	store i32 0, i32*  %14, align 4, !tbaa !4633, !dbg !5724
	%15 = icmp sge i32  %6, 0, !dbg !5724
	br i1  %15, label %L..inline.70565, label %L.B1305, !dbg !5724
L.B1305:
	store i32 4, i32* %..inline.addr.4, align 4, !tbaa !4635, !dbg !5725
	%16 = bitcast [3 x i32]* %..inline.addr.5 to i32*, !dbg !5726
	store i32 1, i32*  %16, align 4, !tbaa !4633, !dbg !5726
	br label %L..inline.70565
L..inline.70565:
	%17 = load i32, i32* %..inline.addr.1, align 4, !tbaa !4635, !dbg !5727
	%18 = load %struct._Z6FsGridISt5arrayIdLm8EELi2EE*, %struct._Z6FsGridISt5arrayIdLm8EELi2EE** %..inline.addr, align 8, !tbaa !4632, !dbg !5727
	%19 = bitcast %struct._Z6FsGridISt5arrayIdLm8EELi2EE*  %18 to i8*, !dbg !5727
	%20 = getelementptr i8, i8*  %19, i64 264, !dbg !5727
	%21 = bitcast i8*  %20 to i32*, !dbg !5727
	%22 = load i32, i32*  %21, align 4, !tbaa !4633, !dbg !5727
	%23 = icmp slt i32  %17,  %22, !dbg !5727
	br i1  %23, label %L..inline.70583, label %L.B1306, !dbg !5727
L.B1306:
	%24 = load i32, i32* %..inline.addr.4, align 4, !tbaa !4635, !dbg !5727
	%25 = add i32  %24, 9, !dbg !5727
	store i32  %25, i32* %..inline.addr.4, align 4, !tbaa !4635, !dbg !5727
	%26 = bitcast [3 x i32]* %..inline.addr.5 to i32*, !dbg !5728
	store i32 -1, i32*  %26, align 4, !tbaa !4633, !dbg !5728
	br label %L..inline.70583
L..inline.70583:
	%27 = load i32, i32* %..inline.addr.2, align 4, !tbaa !4635, !dbg !5729
	%28 = icmp sge i32  %27, 0, !dbg !5729
	br i1  %28, label %L..inline.70585, label %L.B1307, !dbg !5729
L.B1307:
	%29 = load i32, i32* %..inline.addr.4, align 4, !tbaa !4635, !dbg !5729
	%30 = sub i32  %29, 3, !dbg !5729
	store i32  %30, i32* %..inline.addr.4, align 4, !tbaa !4635, !dbg !5729
	%31 = bitcast [3 x i32]* %..inline.addr.5 to i8*, !dbg !5730
	%32 = getelementptr i8, i8*  %31, i64 4, !dbg !5730
	%33 = bitcast i8*  %32 to i32*, !dbg !5730
	store i32 1, i32*  %33, align 4, !tbaa !4633, !dbg !5730
	br label %L..inline.70585
L..inline.70585:
	%34 = load i32, i32* %..inline.addr.2, align 4, !tbaa !4635, !dbg !5731
	%35 = load %struct._Z6FsGridISt5arrayIdLm8EELi2EE*, %struct._Z6FsGridISt5arrayIdLm8EELi2EE** %..inline.addr, align 8, !tbaa !4632, !dbg !5731
	%36 = bitcast %struct._Z6FsGridISt5arrayIdLm8EELi2EE*  %35 to i8*, !dbg !5731
	%37 = getelementptr i8, i8*  %36, i64 268, !dbg !5731
	%38 = bitcast i8*  %37 to i32*, !dbg !5731
	%39 = load i32, i32*  %38, align 4, !tbaa !4633, !dbg !5731
	%40 = icmp slt i32  %34,  %39, !dbg !5731
	br i1  %40, label %L..inline.70602, label %L.B1308, !dbg !5731
L.B1308:
	%41 = load i32, i32* %..inline.addr.4, align 4, !tbaa !4635, !dbg !5731
	%42 = add i32  %41, 3, !dbg !5731
	store i32  %42, i32* %..inline.addr.4, align 4, !tbaa !4635, !dbg !5731
	%43 = bitcast [3 x i32]* %..inline.addr.5 to i8*, !dbg !5732
	%44 = getelementptr i8, i8*  %43, i64 4, !dbg !5732
	%45 = bitcast i8*  %44 to i32*, !dbg !5732
	store i32 -1, i32*  %45, align 4, !tbaa !4633, !dbg !5732
	br label %L..inline.70602
L..inline.70602:
	%46 = load i32, i32* %..inline.addr.3, align 4, !tbaa !4635, !dbg !5733
	%47 = icmp sge i32  %46, 0, !dbg !5733
	br i1  %47, label %L..inline.70604, label %L.B1309, !dbg !5733
L.B1309:
	%48 = load i32, i32* %..inline.addr.4, align 4, !tbaa !4635, !dbg !5733
	%49 = sub i32  %48, 1, !dbg !5733
	store i32  %49, i32* %..inline.addr.4, align 4, !tbaa !4635, !dbg !5733
	%50 = bitcast [3 x i32]* %..inline.addr.5 to i8*, !dbg !5734
	%51 = getelementptr i8, i8*  %50, i64 8, !dbg !5734
	%52 = bitcast i8*  %51 to i32*, !dbg !5734
	store i32 1, i32*  %52, align 4, !tbaa !4633, !dbg !5734
	br label %L..inline.70604
L..inline.70604:
	%53 = load i32, i32* %..inline.addr.3, align 4, !tbaa !4635, !dbg !5735
	%54 = load %struct._Z6FsGridISt5arrayIdLm8EELi2EE*, %struct._Z6FsGridISt5arrayIdLm8EELi2EE** %..inline.addr, align 8, !tbaa !4632, !dbg !5735
	%55 = bitcast %struct._Z6FsGridISt5arrayIdLm8EELi2EE*  %54 to i8*, !dbg !5735
	%56 = getelementptr i8, i8*  %55, i64 272, !dbg !5735
	%57 = bitcast i8*  %56 to i32*, !dbg !5735
	%58 = load i32, i32*  %57, align 4, !tbaa !4633, !dbg !5735
	%59 = icmp slt i32  %53,  %58, !dbg !5735
	br i1  %59, label %L..inline.70621, label %L.B1310, !dbg !5735
L.B1310:
	%60 = load i32, i32* %..inline.addr.4, align 4, !tbaa !4635, !dbg !5735
	%61 = add i32  %60, 1, !dbg !5735
	store i32  %61, i32* %..inline.addr.4, align 4, !tbaa !4635, !dbg !5735
	%62 = bitcast [3 x i32]* %..inline.addr.5 to i8*, !dbg !5736
	%63 = getelementptr i8, i8*  %62, i64 8, !dbg !5736
	%64 = bitcast i8*  %63 to i32*, !dbg !5736
	store i32 -1, i32*  %64, align 4, !tbaa !4633, !dbg !5736
	br label %L..inline.70621
L..inline.70621:
	%65 = load i32, i32* %..inline.addr.4, align 4, !tbaa !4635, !dbg !5737
	%66 = icmp eq i32  %65, 13, !dbg !5737
	br i1  %66, label %L..inline.70622, label %L.B1311, !dbg !5737
L.B1311:
	%67 = sext i32  %65 to i64, !dbg !5738
	%68 = load %struct._Z6FsGridISt5arrayIdLm8EELi2EE*, %struct._Z6FsGridISt5arrayIdLm8EELi2EE** %..inline.addr, align 8, !tbaa !4632, !dbg !5738
	%69 = bitcast %struct._Z6FsGridISt5arrayIdLm8EELi2EE*  %68 to i8*, !dbg !5738
	%70 = getelementptr i8, i8*  %69, i64 92, !dbg !5738
	%71 = bitcast i8*  %70 to i32*, !dbg !5738
	%72 = getelementptr i32, i32*  %71, i64  %67, !dbg !5738
	%73 = load i32, i32*  %72, align 4, !tbaa !4633, !dbg !5738
	%74 = icmp ne i32  %73, -2, !dbg !5738
	br i1  %74, label %L..inline.70639, label %L.B1312, !dbg !5738
L.B1312:
	%75 = bitcast %struct._ZSt5arrayIdLm8EE** %..inline.addr.6 to i8**, !dbg !5738
	store i8* null, i8**  %75, align 8, !tbaa !4632, !dbg !5738
	br label %L..inline.70826, !dbg !5739
L.B0012:
	%76 = bitcast [27 x i8]* @.S52189 to i8*, !dbg !5740
	%77 = icmp ne i8*  %76,  null, !dbg !5740
	br i1  %77, label %L..inline.70488, label %L.B1313, !dbg !5740
L.B1313:
	%78 = bitcast %struct._ZSo* @_ZSt4cerr to i8*, !dbg !5741
	%79 = bitcast %struct._ZSo* @_ZSt4cerr to i8**, !dbg !5741
	%80 = load i8*, i8**  %79, align 8, !tbaa !4632, !dbg !5741
	%81 = getelementptr i8, i8*  %80, i64 18446744073709551592, !dbg !5741
	%82 = bitcast i8*  %81 to i64*, !dbg !5741
	%83 = load i64, i64*  %82, align 8, !tbaa !4633, !dbg !5741
	%84 = getelementptr i8, i8*  %78, i64  %83, !dbg !5741
	%85 = bitcast %struct._ZSt9basic_iosIcSt11char_traitsIcEE** %..inline.addr.7 to i8**, !dbg !5741
	store i8*  %84, i8**  %85, align 8, !tbaa !4632, !dbg !5741
	%86 = load %struct._ZSt9basic_iosIcSt11char_traitsIcEE*, %struct._ZSt9basic_iosIcSt11char_traitsIcEE** %..inline.addr.7, align 8, !tbaa !4632, !dbg !5741
	%87 = bitcast %struct._ZSt9basic_iosIcSt11char_traitsIcEE*  %86 to i8*, !dbg !5741
	%88 = bitcast %struct._ZSt9basic_iosIcSt11char_traitsIcEE** %..inline.addr.8 to i8**, !dbg !5741
	store i8*  %87, i8**  %88, align 8, !tbaa !4632, !dbg !5741
	%89 = load %struct._ZSt9basic_iosIcSt11char_traitsIcEE*, %struct._ZSt9basic_iosIcSt11char_traitsIcEE** %..inline.addr.8, align 8, !tbaa !4632, !dbg !5741
	%90 = bitcast %struct._ZSt9basic_iosIcSt11char_traitsIcEE*  %89 to i8*, !dbg !5741
	%91 = getelementptr i8, i8*  %90, i64 32, !dbg !5741
	%92 = bitcast i8*  %91 to i32*, !dbg !5741
	%93 = load i32, i32*  %92, align 4, !tbaa !4633, !dbg !5741
	%94 = or i32  %93, 1, !dbg !5741
	call void  @_ZNSt9basic_iosIcSt11char_traitsIcEE5clearESt12_Ios_Iostate (%struct._ZSt9basic_iosIcSt11char_traitsIcEE*  %86, i32  %94), !dbg !5741
	br label %L..inline.70509, !dbg !5741
L..inline.70488:
	%95 = bitcast [27 x i8]* @.S52189 to i8*, !dbg !5742
	%96 = call i64  @strlen (i8*  %95) nounwind, !dbg !5742
	%97 = call %struct._ZSo*  @_ZSt16__ostream_insertIcSt11char_traitsIcEERSt13basic_ostreamIT_T0_ES6_PKS3_l (%struct._ZSo* @_ZSt4cerr, i8*  %95, i64  %96), !dbg !5742
	%98 = bitcast %struct._ZSo*  %97 to i8*, !dbg !5742
	%99 = bitcast %struct._ZSo** %.Q0018.addr to i8**, !dbg !5742
	store i8*  %98, i8**  %99, align 8, !tbaa !4632, !dbg !5742
	br label %L..inline.70509
L..inline.70509:
	%100 = call %struct._ZSo*  @_ZNSolsEi (%struct._ZSo* @_ZSt4cerr, i32 98), !dbg !5743
	%101 = bitcast %struct._ZSo*  %100 to i8*, !dbg !5743
	%102 = bitcast %struct._ZSo** %.Q0019.addr to i8**, !dbg !5743
	store i8*  %101, i8**  %102, align 8, !tbaa !4632, !dbg !5743
	%103 = load %struct._ZSo*, %struct._ZSo** %.Q0019.addr, align 8, !tbaa !4632, !dbg !5743
	%104 = bitcast %struct._ZSo*  %103 to i8*, !dbg !5743
	%105 = bitcast %struct._ZSo** %..inline.addr.260 to i8**, !dbg !5743
	store i8*  %104, i8**  %105, align 8, !tbaa !4632, !dbg !5743
	%106 = bitcast [98 x i8]* @.S52193 to i8*, !dbg !5740
	%107 = icmp ne i8*  %106,  null, !dbg !5740
	br i1  %107, label %L..inline.70521, label %L.B1314, !dbg !5740
L.B1314:
	%108 = load %struct._ZSo*, %struct._ZSo** %..inline.addr.260, align 8, !tbaa !4632, !dbg !5741
	%109 = bitcast %struct._ZSo*  %108 to i8*, !dbg !5741
	%110 = bitcast %struct._ZSo*  %108 to i8**, !dbg !5741
	%111 = load i8*, i8**  %110, align 8, !tbaa !4632, !dbg !5741
	%112 = getelementptr i8, i8*  %111, i64 18446744073709551592, !dbg !5741
	%113 = bitcast i8*  %112 to i64*, !dbg !5741
	%114 = load i64, i64*  %113, align 8, !tbaa !4633, !dbg !5741
	%115 = getelementptr i8, i8*  %109, i64  %114, !dbg !5741
	%116 = bitcast %struct._ZSt9basic_iosIcSt11char_traitsIcEE** %..inline.addr.270 to i8**, !dbg !5741
	store i8*  %115, i8**  %116, align 8, !tbaa !4632, !dbg !5741
	%117 = bitcast %struct._ZSt9basic_iosIcSt11char_traitsIcEE** %..inline.addr.280 to i8**, !dbg !5741
	store i8*  %115, i8**  %117, align 8, !tbaa !4632, !dbg !5741
	%118 = load %struct._ZSt9basic_iosIcSt11char_traitsIcEE*, %struct._ZSt9basic_iosIcSt11char_traitsIcEE** %..inline.addr.280, align 8, !tbaa !4632, !dbg !5741
	%119 = bitcast %struct._ZSt9basic_iosIcSt11char_traitsIcEE*  %118 to i8*, !dbg !5741
	%120 = getelementptr i8, i8*  %119, i64 32, !dbg !5741
	%121 = bitcast i8*  %120 to i32*, !dbg !5741
	%122 = load i32, i32*  %121, align 4, !tbaa !4633, !dbg !5741
	%123 = or i32  %122, 1, !dbg !5741
	%124 = load %struct._ZSt9basic_iosIcSt11char_traitsIcEE*, %struct._ZSt9basic_iosIcSt11char_traitsIcEE** %..inline.addr.270, align 8, !tbaa !4632, !dbg !5741
	call void  @_ZNSt9basic_iosIcSt11char_traitsIcEE5clearESt12_Ios_Iostate (%struct._ZSt9basic_iosIcSt11char_traitsIcEE*  %124, i32  %123), !dbg !5741
	br label %L..inline.70542, !dbg !5741
L..inline.70521:
	%125 = bitcast [98 x i8]* @.S52193 to i8*, !dbg !5742
	%126 = call i64  @strlen (i8*  %125) nounwind, !dbg !5742
	%127 = load %struct._ZSo*, %struct._ZSo** %..inline.addr.260, align 8, !tbaa !4632, !dbg !5742
	%128 = call %struct._ZSo*  @_ZSt16__ostream_insertIcSt11char_traitsIcEERSt13basic_ostreamIT_T0_ES6_PKS3_l (%struct._ZSo*  %127, i8*  %125, i64  %126), !dbg !5742
	%129 = bitcast %struct._ZSo*  %128 to i8*, !dbg !5742
	%130 = bitcast %struct._ZSo** %.Q0020.addr to i8**, !dbg !5742
	store i8*  %129, i8**  %130, align 8, !tbaa !4632, !dbg !5742
	br label %L..inline.70542
L..inline.70542:
	%131 = load %struct._ZSo*, %struct._ZSo** %..inline.addr.260, align 8, !tbaa !4632, !dbg !5743
	%132 = bitcast %struct._ZSo*  %131 to i8*, !dbg !5743
	%133 = bitcast %struct._ZSo** %..inline.addr.320 to i8**, !dbg !5743
	store i8*  %132, i8**  %133, align 8, !tbaa !4632, !dbg !5743
	%134 = load %struct._ZSo*, %struct._ZSo** %..inline.addr.320, align 8, !tbaa !4632, !dbg !5744
	%135 = call %struct._ZSo*  @_ZSt4endlIcSt11char_traitsIcEERSt13basic_ostreamIT_T0_ES6_ (%struct._ZSo*  %134), !dbg !5744
	%136 = bitcast %struct._ZSo*  %135 to i8*, !dbg !5744
	%137 = bitcast %struct._ZSo** %.Q0021.addr to i8**, !dbg !5744
	store i8*  %136, i8**  %137, align 8, !tbaa !4632, !dbg !5744
	br label %L_T18154496_50932, !dbg !5745
L..inline.70639:
	%138 = load i32, i32* %..inline.addr.4, align 4, !tbaa !4635, !dbg !5746
	%139 = sext i32  %138 to i64, !dbg !5746
	%140 = load %struct._Z6FsGridISt5arrayIdLm8EELi2EE*, %struct._Z6FsGridISt5arrayIdLm8EELi2EE** %..inline.addr, align 8, !tbaa !4632, !dbg !5746
	%141 = bitcast %struct._Z6FsGridISt5arrayIdLm8EELi2EE*  %140 to i8*, !dbg !5746
	%142 = getelementptr i8, i8*  %141, i64 92, !dbg !5746
	%143 = bitcast i8*  %142 to i32*, !dbg !5746
	%144 = getelementptr i32, i32*  %143, i64  %139, !dbg !5746
	%145 = load i32, i32*  %144, align 4, !tbaa !4633, !dbg !5746
	%146 = getelementptr i8, i8*  %141, i64 56, !dbg !5746
	%147 = bitcast i8*  %146 to i32*, !dbg !5746
	%148 = load i32, i32*  %147, align 4, !tbaa !4633, !dbg !5746
	%149 = icmp ne i32  %145,  %148, !dbg !5746
	br i1  %149, label %L..inline.70657, label %L.B1315, !dbg !5746
L.B1315:
	%150 = load i32, i32* %..inline.addr.1, align 4, !tbaa !4635, !dbg !5747
	%151 = bitcast [3 x i32]* %..inline.addr.5 to i32*, !dbg !5747
	%152 = load i32, i32*  %151, align 4, !tbaa !4633, !dbg !5747
	%153 = bitcast %struct._Z6FsGridISt5arrayIdLm8EELi2EE*  %140 to i8*, !dbg !5747
	%154 = getelementptr i8, i8*  %153, i64 264, !dbg !5747
	%155 = bitcast i8*  %154 to i32*, !dbg !5747
	%156 = load i32, i32*  %155, align 4, !tbaa !4633, !dbg !5747
	%157 = mul i32  %152,  %156, !dbg !5747
	%158 = add i32  %150,  %157, !dbg !5747
	store i32  %158, i32* %..inline.addr.1, align 4, !tbaa !4635, !dbg !5747
	%159 = load i32, i32* %..inline.addr.2, align 4, !tbaa !4635, !dbg !5748
	%160 = bitcast [3 x i32]* %..inline.addr.5 to i8*, !dbg !5748
	%161 = getelementptr i8, i8*  %160, i64 4, !dbg !5748
	%162 = bitcast i8*  %161 to i32*, !dbg !5748
	%163 = load i32, i32*  %162, align 4, !tbaa !4633, !dbg !5748
	%164 = getelementptr i8, i8*  %153, i64 268, !dbg !5748
	%165 = bitcast i8*  %164 to i32*, !dbg !5748
	%166 = load i32, i32*  %165, align 4, !tbaa !4633, !dbg !5748
	%167 = mul i32  %163,  %166, !dbg !5748
	%168 = add i32  %159,  %167, !dbg !5748
	store i32  %168, i32* %..inline.addr.2, align 4, !tbaa !4635, !dbg !5748
	%169 = load i32, i32* %..inline.addr.3, align 4, !tbaa !4635, !dbg !5749
	%170 = getelementptr i8, i8*  %160, i64 8, !dbg !5749
	%171 = bitcast i8*  %170 to i32*, !dbg !5749
	%172 = load i32, i32*  %171, align 4, !tbaa !4633, !dbg !5749
	%173 = getelementptr i8, i8*  %153, i64 272, !dbg !5749
	%174 = bitcast i8*  %173 to i32*, !dbg !5749
	%175 = load i32, i32*  %174, align 4, !tbaa !4633, !dbg !5749
	%176 = mul i32  %172,  %175, !dbg !5749
	%177 = add i32  %169,  %176, !dbg !5749
	store i32  %177, i32* %..inline.addr.3, align 4, !tbaa !4635, !dbg !5749
	br label %L..inline.70657
L..inline.70657:
	br label %L..inline.70622
L..inline.70622:
	store i64 0, i64* %..inline.addr.340, align 8, !tbaa !4637, !dbg !5750
	%178 = load %struct._Z6FsGridISt5arrayIdLm8EELi2EE*, %struct._Z6FsGridISt5arrayIdLm8EELi2EE** %..inline.addr, align 8, !tbaa !4632, !dbg !5750
	%179 = bitcast %struct._Z6FsGridISt5arrayIdLm8EELi2EE*  %178 to i8*, !dbg !5750
	%180 = getelementptr i8, i8*  %179, i64 260, !dbg !5750
	%181 = bitcast i8*  %180 to i32*, !dbg !5750
	%182 = load i32, i32*  %181, align 4, !tbaa !4633, !dbg !5750
	%183 = icmp sle i32  %182, 1, !dbg !5750
	br i1  %183, label %L..inline.70731, label %L.B1316, !dbg !5750
L.B1316:
	%184 = load i32, i32* %..inline.addr.3, align 4, !tbaa !4635, !dbg !5750
	%185 = add i32  %184, 2, !dbg !5750
	%186 = bitcast %struct._Z6FsGridISt5arrayIdLm8EELi2EE*  %178 to i8*, !dbg !5750
	%187 = getelementptr i8, i8*  %186, i64 280, !dbg !5750
	%188 = bitcast i8*  %187 to i32*, !dbg !5750
	%189 = load i32, i32*  %188, align 4, !tbaa !4633, !dbg !5750
	%190 = getelementptr i8, i8*  %186, i64 276, !dbg !5750
	%191 = bitcast i8*  %190 to i32*, !dbg !5750
	%192 = load i32, i32*  %191, align 4, !tbaa !4633, !dbg !5750
	%193 = mul i32  %189,  %192, !dbg !5750
	%194 = mul i32  %185,  %193, !dbg !5750
	%195 = sext i32  %194 to i64, !dbg !5750
	store i64  %195, i64* %..inline.addr.340, align 8, !tbaa !4637, !dbg !5750
	br label %L..inline.70731
L..inline.70731:
	%196 = load %struct._Z6FsGridISt5arrayIdLm8EELi2EE*, %struct._Z6FsGridISt5arrayIdLm8EELi2EE** %..inline.addr, align 8, !tbaa !4632, !dbg !5750
	%197 = bitcast %struct._Z6FsGridISt5arrayIdLm8EELi2EE*  %196 to i8*, !dbg !5750
	%198 = getelementptr i8, i8*  %197, i64 256, !dbg !5750
	%199 = bitcast i8*  %198 to i32*, !dbg !5750
	%200 = load i32, i32*  %199, align 4, !tbaa !4633, !dbg !5750
	%201 = icmp sle i32  %200, 1, !dbg !5750
	br i1  %201, label %L..inline.70780, label %L.B1317, !dbg !5750
L.B1317:
	%202 = load i64, i64* %..inline.addr.340, align 8, !tbaa !4637, !dbg !5750
	%203 = bitcast %struct._Z6FsGridISt5arrayIdLm8EELi2EE*  %196 to i8*, !dbg !5750
	%204 = getelementptr i8, i8*  %203, i64 276, !dbg !5750
	%205 = bitcast i8*  %204 to i32*, !dbg !5750
	%206 = load i32, i32*  %205, align 4, !tbaa !4633, !dbg !5750
	%207 = load i32, i32* %..inline.addr.2, align 4, !tbaa !4635, !dbg !5750
	%208 = add i32  %207, 2, !dbg !5750
	%209 = mul i32  %206,  %208, !dbg !5750
	%210 = sext i32  %209 to i64, !dbg !5750
	%211 = add i64  %202,  %210, !dbg !5750
	store i64  %211, i64* %..inline.addr.340, align 8, !tbaa !4637, !dbg !5750
	br label %L..inline.70780
L..inline.70780:
	%212 = load %struct._Z6FsGridISt5arrayIdLm8EELi2EE*, %struct._Z6FsGridISt5arrayIdLm8EELi2EE** %..inline.addr, align 8, !tbaa !4632, !dbg !5750
	%213 = bitcast %struct._Z6FsGridISt5arrayIdLm8EELi2EE*  %212 to i8*, !dbg !5750
	%214 = getelementptr i8, i8*  %213, i64 252, !dbg !5750
	%215 = bitcast i8*  %214 to i32*, !dbg !5750
	%216 = load i32, i32*  %215, align 4, !tbaa !4633, !dbg !5750
	%217 = icmp sle i32  %216, 1, !dbg !5750
	%218 = zext i1  %217 to i32, !dbg !5750
	%219 = trunc i32  %218 to i1, !dbg !5750
	%220 = load i64, i64* %..inline.addr.340, align 8, !tbaa !4637, !dbg !5750
	%221 = load i32, i32* %..inline.addr.1, align 4, !tbaa !4635, !dbg !5750
	%222 = sext i32  %221 to i64, !dbg !5750
	%223 = add i64  %222, 2, !dbg !5750
	%224 = add i64  %220,  %223, !dbg !5750
	%225 = select i1  %219, i64  %220, i64  %224, !dbg !5750
	%226 = getelementptr i8, i8*  %213, i64 744, !dbg !5751
	%227 = bitcast i8*  %226 to i8**, !dbg !5751
	%228 = load i8*, i8**  %227, align 8, !tbaa !4632, !dbg !5751
	%229 = mul i64  %225, 64, !dbg !5751
	%230 = getelementptr i8, i8*  %228, i64  %229, !dbg !5751
	%231 = bitcast %struct._ZSt5arrayIdLm8EE** %..inline.addr.6 to i8**, !dbg !5751
	store i8*  %230, i8**  %231, align 8, !tbaa !4632, !dbg !5751
	br label %L..inline.70826
L..inline.70826:
	%232 = load double, double* @_ZN10Parameters15hallMinimumRhoqE, align 8, !tbaa !4639, !dbg !5752
	%233 = load %struct._ZSt5arrayIdLm8EE*, %struct._ZSt5arrayIdLm8EE** %..inline.addr.6, align 8, !tbaa !4632, !dbg !5752
	%234 = bitcast %struct._ZSt5arrayIdLm8EE*  %233 to i8*, !dbg !5752
	%235 = getelementptr i8, i8*  %234, i64 8, !dbg !5752
	%236 = bitcast i8*  %235 to double*, !dbg !5752
	%237 = load double, double*  %236, align 8, !tbaa !4633, !dbg !5752
	%238 = call double @llvm.maxnum.f64 (double  %232, double  %237), !dbg !5752
	%239 = fcmp uno double  %237,  %237, !dbg !5752
	%240 = select i1  %239, double  %232, double  %238, !dbg !5752
	call void @llvm.dbg.declare (metadata double* %hallRhoq.addr, metadata !5753, metadata !4571), !dbg !5202
	store double  %240, double* %hallRhoq.addr, align 8, !tbaa !4639, !dbg !5752
	%241 = load %struct._Z6FsGridISt5arrayIdLm3EELi2EE*, %struct._Z6FsGridISt5arrayIdLm3EELi2EE** %EGradPeGrid.addr, align 8, !tbaa !4632, !dbg !5754
	%242 = bitcast %struct._Z6FsGridISt5arrayIdLm3EELi2EE*  %241 to i8*, !dbg !5754
	%243 = bitcast %struct._Z6FsGridISt5arrayIdLm3EELi2EE** %..inline.addr.370 to i8**, !dbg !5754
	store i8*  %242, i8**  %243, align 8, !tbaa !4632, !dbg !5754
	%244 = load i32, i32* %i.addr, align 4, !tbaa !4635, !dbg !5754
	store i32  %244, i32* %..inline.addr.380, align 4, !tbaa !4635, !dbg !5754
	%245 = load i32, i32* %j.addr, align 4, !tbaa !4635, !dbg !5754
	store i32  %245, i32* %..inline.addr.390, align 4, !tbaa !4635, !dbg !5754
	%246 = load i32, i32* %k.addr, align 4, !tbaa !4635, !dbg !5754
	store i32  %246, i32* %..inline.addr.400, align 4, !tbaa !4635, !dbg !5754
	store i32 13, i32* %..inline.addr.410, align 4, !tbaa !4635, !dbg !5754
	%247 = bitcast [3 x i32]* %..inline.addr.420 to i32*, !dbg !5723
	store i32 0, i32*  %247, align 4, !tbaa !4633, !dbg !5723
	%248 = bitcast [3 x i32]* %..inline.addr.420 to i8*, !dbg !5724
	%249 = getelementptr i8, i8*  %248, i64 4, !dbg !5724
	%250 = bitcast i8*  %249 to i32*, !dbg !5724
	store i32 0, i32*  %250, align 4, !tbaa !4633, !dbg !5724
	%251 = getelementptr i8, i8*  %248, i64 8, !dbg !5724
	%252 = bitcast i8*  %251 to i32*, !dbg !5724
	store i32 0, i32*  %252, align 4, !tbaa !4633, !dbg !5724
	%253 = icmp sge i32  %244, 0, !dbg !5724
	br i1  %253, label %L..inline.70848, label %L.B1318, !dbg !5724
L.B1318:
	store i32 4, i32* %..inline.addr.410, align 4, !tbaa !4635, !dbg !5725
	%254 = bitcast [3 x i32]* %..inline.addr.420 to i32*, !dbg !5726
	store i32 1, i32*  %254, align 4, !tbaa !4633, !dbg !5726
	br label %L..inline.70848
L..inline.70848:
	%255 = load i32, i32* %..inline.addr.380, align 4, !tbaa !4635, !dbg !5727
	%256 = load %struct._Z6FsGridISt5arrayIdLm3EELi2EE*, %struct._Z6FsGridISt5arrayIdLm3EELi2EE** %..inline.addr.370, align 8, !tbaa !4632, !dbg !5727
	%257 = bitcast %struct._Z6FsGridISt5arrayIdLm3EELi2EE*  %256 to i8*, !dbg !5727
	%258 = getelementptr i8, i8*  %257, i64 264, !dbg !5727
	%259 = bitcast i8*  %258 to i32*, !dbg !5727
	%260 = load i32, i32*  %259, align 4, !tbaa !4633, !dbg !5727
	%261 = icmp slt i32  %255,  %260, !dbg !5727
	br i1  %261, label %L..inline.70866, label %L.B1319, !dbg !5727
L.B1319:
	%262 = load i32, i32* %..inline.addr.410, align 4, !tbaa !4635, !dbg !5727
	%263 = add i32  %262, 9, !dbg !5727
	store i32  %263, i32* %..inline.addr.410, align 4, !tbaa !4635, !dbg !5727
	%264 = bitcast [3 x i32]* %..inline.addr.420 to i32*, !dbg !5728
	store i32 -1, i32*  %264, align 4, !tbaa !4633, !dbg !5728
	br label %L..inline.70866
L..inline.70866:
	%265 = load i32, i32* %..inline.addr.390, align 4, !tbaa !4635, !dbg !5729
	%266 = icmp sge i32  %265, 0, !dbg !5729
	br i1  %266, label %L..inline.70868, label %L.B1320, !dbg !5729
L.B1320:
	%267 = load i32, i32* %..inline.addr.410, align 4, !tbaa !4635, !dbg !5729
	%268 = sub i32  %267, 3, !dbg !5729
	store i32  %268, i32* %..inline.addr.410, align 4, !tbaa !4635, !dbg !5729
	%269 = bitcast [3 x i32]* %..inline.addr.420 to i8*, !dbg !5730
	%270 = getelementptr i8, i8*  %269, i64 4, !dbg !5730
	%271 = bitcast i8*  %270 to i32*, !dbg !5730
	store i32 1, i32*  %271, align 4, !tbaa !4633, !dbg !5730
	br label %L..inline.70868
L..inline.70868:
	%272 = load i32, i32* %..inline.addr.390, align 4, !tbaa !4635, !dbg !5731
	%273 = load %struct._Z6FsGridISt5arrayIdLm3EELi2EE*, %struct._Z6FsGridISt5arrayIdLm3EELi2EE** %..inline.addr.370, align 8, !tbaa !4632, !dbg !5731
	%274 = bitcast %struct._Z6FsGridISt5arrayIdLm3EELi2EE*  %273 to i8*, !dbg !5731
	%275 = getelementptr i8, i8*  %274, i64 268, !dbg !5731
	%276 = bitcast i8*  %275 to i32*, !dbg !5731
	%277 = load i32, i32*  %276, align 4, !tbaa !4633, !dbg !5731
	%278 = icmp slt i32  %272,  %277, !dbg !5731
	br i1  %278, label %L..inline.70885, label %L.B1321, !dbg !5731
L.B1321:
	%279 = load i32, i32* %..inline.addr.410, align 4, !tbaa !4635, !dbg !5731
	%280 = add i32  %279, 3, !dbg !5731
	store i32  %280, i32* %..inline.addr.410, align 4, !tbaa !4635, !dbg !5731
	%281 = bitcast [3 x i32]* %..inline.addr.420 to i8*, !dbg !5732
	%282 = getelementptr i8, i8*  %281, i64 4, !dbg !5732
	%283 = bitcast i8*  %282 to i32*, !dbg !5732
	store i32 -1, i32*  %283, align 4, !tbaa !4633, !dbg !5732
	br label %L..inline.70885
L..inline.70885:
	%284 = load i32, i32* %..inline.addr.400, align 4, !tbaa !4635, !dbg !5733
	%285 = icmp sge i32  %284, 0, !dbg !5733
	br i1  %285, label %L..inline.70887, label %L.B1322, !dbg !5733
L.B1322:
	%286 = load i32, i32* %..inline.addr.410, align 4, !tbaa !4635, !dbg !5733
	%287 = sub i32  %286, 1, !dbg !5733
	store i32  %287, i32* %..inline.addr.410, align 4, !tbaa !4635, !dbg !5733
	%288 = bitcast [3 x i32]* %..inline.addr.420 to i8*, !dbg !5734
	%289 = getelementptr i8, i8*  %288, i64 8, !dbg !5734
	%290 = bitcast i8*  %289 to i32*, !dbg !5734
	store i32 1, i32*  %290, align 4, !tbaa !4633, !dbg !5734
	br label %L..inline.70887
L..inline.70887:
	%291 = load i32, i32* %..inline.addr.400, align 4, !tbaa !4635, !dbg !5735
	%292 = load %struct._Z6FsGridISt5arrayIdLm3EELi2EE*, %struct._Z6FsGridISt5arrayIdLm3EELi2EE** %..inline.addr.370, align 8, !tbaa !4632, !dbg !5735
	%293 = bitcast %struct._Z6FsGridISt5arrayIdLm3EELi2EE*  %292 to i8*, !dbg !5735
	%294 = getelementptr i8, i8*  %293, i64 272, !dbg !5735
	%295 = bitcast i8*  %294 to i32*, !dbg !5735
	%296 = load i32, i32*  %295, align 4, !tbaa !4633, !dbg !5735
	%297 = icmp slt i32  %291,  %296, !dbg !5735
	br i1  %297, label %L..inline.70904, label %L.B1323, !dbg !5735
L.B1323:
	%298 = load i32, i32* %..inline.addr.410, align 4, !tbaa !4635, !dbg !5735
	%299 = add i32  %298, 1, !dbg !5735
	store i32  %299, i32* %..inline.addr.410, align 4, !tbaa !4635, !dbg !5735
	%300 = bitcast [3 x i32]* %..inline.addr.420 to i8*, !dbg !5736
	%301 = getelementptr i8, i8*  %300, i64 8, !dbg !5736
	%302 = bitcast i8*  %301 to i32*, !dbg !5736
	store i32 -1, i32*  %302, align 4, !tbaa !4633, !dbg !5736
	br label %L..inline.70904
L..inline.70904:
	%303 = load i32, i32* %..inline.addr.410, align 4, !tbaa !4635, !dbg !5737
	%304 = icmp eq i32  %303, 13, !dbg !5737
	br i1  %304, label %L..inline.70905, label %L.B1324, !dbg !5737
L.B1324:
	%305 = sext i32  %303 to i64, !dbg !5738
	%306 = load %struct._Z6FsGridISt5arrayIdLm3EELi2EE*, %struct._Z6FsGridISt5arrayIdLm3EELi2EE** %..inline.addr.370, align 8, !tbaa !4632, !dbg !5738
	%307 = bitcast %struct._Z6FsGridISt5arrayIdLm3EELi2EE*  %306 to i8*, !dbg !5738
	%308 = getelementptr i8, i8*  %307, i64 92, !dbg !5738
	%309 = bitcast i8*  %308 to i32*, !dbg !5738
	%310 = getelementptr i32, i32*  %309, i64  %305, !dbg !5738
	%311 = load i32, i32*  %310, align 4, !tbaa !4633, !dbg !5738
	%312 = icmp ne i32  %311, -2, !dbg !5738
	br i1  %312, label %L..inline.70922, label %L.B1325, !dbg !5738
L.B1325:
	%313 = bitcast %struct._ZSt5arrayIdLm3EE** %..inline.addr.430 to i8**, !dbg !5738
	store i8* null, i8**  %313, align 8, !tbaa !4632, !dbg !5738
	br label %L..inline.71109, !dbg !5739
L..inline.70922:
	%314 = load i32, i32* %..inline.addr.410, align 4, !tbaa !4635, !dbg !5746
	%315 = sext i32  %314 to i64, !dbg !5746
	%316 = load %struct._Z6FsGridISt5arrayIdLm3EELi2EE*, %struct._Z6FsGridISt5arrayIdLm3EELi2EE** %..inline.addr.370, align 8, !tbaa !4632, !dbg !5746
	%317 = bitcast %struct._Z6FsGridISt5arrayIdLm3EELi2EE*  %316 to i8*, !dbg !5746
	%318 = getelementptr i8, i8*  %317, i64 92, !dbg !5746
	%319 = bitcast i8*  %318 to i32*, !dbg !5746
	%320 = getelementptr i32, i32*  %319, i64  %315, !dbg !5746
	%321 = load i32, i32*  %320, align 4, !tbaa !4633, !dbg !5746
	%322 = getelementptr i8, i8*  %317, i64 56, !dbg !5746
	%323 = bitcast i8*  %322 to i32*, !dbg !5746
	%324 = load i32, i32*  %323, align 4, !tbaa !4633, !dbg !5746
	%325 = icmp ne i32  %321,  %324, !dbg !5746
	br i1  %325, label %L..inline.70940, label %L.B1326, !dbg !5746
L.B1326:
	%326 = load i32, i32* %..inline.addr.380, align 4, !tbaa !4635, !dbg !5747
	%327 = bitcast [3 x i32]* %..inline.addr.420 to i32*, !dbg !5747
	%328 = load i32, i32*  %327, align 4, !tbaa !4633, !dbg !5747
	%329 = bitcast %struct._Z6FsGridISt5arrayIdLm3EELi2EE*  %316 to i8*, !dbg !5747
	%330 = getelementptr i8, i8*  %329, i64 264, !dbg !5747
	%331 = bitcast i8*  %330 to i32*, !dbg !5747
	%332 = load i32, i32*  %331, align 4, !tbaa !4633, !dbg !5747
	%333 = mul i32  %328,  %332, !dbg !5747
	%334 = add i32  %326,  %333, !dbg !5747
	store i32  %334, i32* %..inline.addr.380, align 4, !tbaa !4635, !dbg !5747
	%335 = load i32, i32* %..inline.addr.390, align 4, !tbaa !4635, !dbg !5748
	%336 = bitcast [3 x i32]* %..inline.addr.420 to i8*, !dbg !5748
	%337 = getelementptr i8, i8*  %336, i64 4, !dbg !5748
	%338 = bitcast i8*  %337 to i32*, !dbg !5748
	%339 = load i32, i32*  %338, align 4, !tbaa !4633, !dbg !5748
	%340 = getelementptr i8, i8*  %329, i64 268, !dbg !5748
	%341 = bitcast i8*  %340 to i32*, !dbg !5748
	%342 = load i32, i32*  %341, align 4, !tbaa !4633, !dbg !5748
	%343 = mul i32  %339,  %342, !dbg !5748
	%344 = add i32  %335,  %343, !dbg !5748
	store i32  %344, i32* %..inline.addr.390, align 4, !tbaa !4635, !dbg !5748
	%345 = load i32, i32* %..inline.addr.400, align 4, !tbaa !4635, !dbg !5749
	%346 = getelementptr i8, i8*  %336, i64 8, !dbg !5749
	%347 = bitcast i8*  %346 to i32*, !dbg !5749
	%348 = load i32, i32*  %347, align 4, !tbaa !4633, !dbg !5749
	%349 = getelementptr i8, i8*  %329, i64 272, !dbg !5749
	%350 = bitcast i8*  %349 to i32*, !dbg !5749
	%351 = load i32, i32*  %350, align 4, !tbaa !4633, !dbg !5749
	%352 = mul i32  %348,  %351, !dbg !5749
	%353 = add i32  %345,  %352, !dbg !5749
	store i32  %353, i32* %..inline.addr.400, align 4, !tbaa !4635, !dbg !5749
	br label %L..inline.70940
L..inline.70940:
	br label %L..inline.70905
L..inline.70905:
	store i64 0, i64* %..inline.addr.440, align 8, !tbaa !4637, !dbg !5750
	%354 = load %struct._Z6FsGridISt5arrayIdLm3EELi2EE*, %struct._Z6FsGridISt5arrayIdLm3EELi2EE** %..inline.addr.370, align 8, !tbaa !4632, !dbg !5750
	%355 = bitcast %struct._Z6FsGridISt5arrayIdLm3EELi2EE*  %354 to i8*, !dbg !5750
	%356 = getelementptr i8, i8*  %355, i64 260, !dbg !5750
	%357 = bitcast i8*  %356 to i32*, !dbg !5750
	%358 = load i32, i32*  %357, align 4, !tbaa !4633, !dbg !5750
	%359 = icmp sle i32  %358, 1, !dbg !5750
	br i1  %359, label %L..inline.71014, label %L.B1327, !dbg !5750
L.B1327:
	%360 = load i32, i32* %..inline.addr.400, align 4, !tbaa !4635, !dbg !5750
	%361 = add i32  %360, 2, !dbg !5750
	%362 = bitcast %struct._Z6FsGridISt5arrayIdLm3EELi2EE*  %354 to i8*, !dbg !5750
	%363 = getelementptr i8, i8*  %362, i64 280, !dbg !5750
	%364 = bitcast i8*  %363 to i32*, !dbg !5750
	%365 = load i32, i32*  %364, align 4, !tbaa !4633, !dbg !5750
	%366 = getelementptr i8, i8*  %362, i64 276, !dbg !5750
	%367 = bitcast i8*  %366 to i32*, !dbg !5750
	%368 = load i32, i32*  %367, align 4, !tbaa !4633, !dbg !5750
	%369 = mul i32  %365,  %368, !dbg !5750
	%370 = mul i32  %361,  %369, !dbg !5750
	%371 = sext i32  %370 to i64, !dbg !5750
	store i64  %371, i64* %..inline.addr.440, align 8, !tbaa !4637, !dbg !5750
	br label %L..inline.71014
L..inline.71014:
	%372 = load %struct._Z6FsGridISt5arrayIdLm3EELi2EE*, %struct._Z6FsGridISt5arrayIdLm3EELi2EE** %..inline.addr.370, align 8, !tbaa !4632, !dbg !5750
	%373 = bitcast %struct._Z6FsGridISt5arrayIdLm3EELi2EE*  %372 to i8*, !dbg !5750
	%374 = getelementptr i8, i8*  %373, i64 256, !dbg !5750
	%375 = bitcast i8*  %374 to i32*, !dbg !5750
	%376 = load i32, i32*  %375, align 4, !tbaa !4633, !dbg !5750
	%377 = icmp sle i32  %376, 1, !dbg !5750
	br i1  %377, label %L..inline.71063, label %L.B1328, !dbg !5750
L.B1328:
	%378 = load i64, i64* %..inline.addr.440, align 8, !tbaa !4637, !dbg !5750
	%379 = bitcast %struct._Z6FsGridISt5arrayIdLm3EELi2EE*  %372 to i8*, !dbg !5750
	%380 = getelementptr i8, i8*  %379, i64 276, !dbg !5750
	%381 = bitcast i8*  %380 to i32*, !dbg !5750
	%382 = load i32, i32*  %381, align 4, !tbaa !4633, !dbg !5750
	%383 = load i32, i32* %..inline.addr.390, align 4, !tbaa !4635, !dbg !5750
	%384 = add i32  %383, 2, !dbg !5750
	%385 = mul i32  %382,  %384, !dbg !5750
	%386 = sext i32  %385 to i64, !dbg !5750
	%387 = add i64  %378,  %386, !dbg !5750
	store i64  %387, i64* %..inline.addr.440, align 8, !tbaa !4637, !dbg !5750
	br label %L..inline.71063
L..inline.71063:
	%388 = load %struct._Z6FsGridISt5arrayIdLm3EELi2EE*, %struct._Z6FsGridISt5arrayIdLm3EELi2EE** %..inline.addr.370, align 8, !tbaa !4632, !dbg !5750
	%389 = bitcast %struct._Z6FsGridISt5arrayIdLm3EELi2EE*  %388 to i8*, !dbg !5750
	%390 = getelementptr i8, i8*  %389, i64 252, !dbg !5750
	%391 = bitcast i8*  %390 to i32*, !dbg !5750
	%392 = load i32, i32*  %391, align 4, !tbaa !4633, !dbg !5750
	%393 = icmp sle i32  %392, 1, !dbg !5750
	%394 = zext i1  %393 to i32, !dbg !5750
	%395 = trunc i32  %394 to i1, !dbg !5750
	%396 = load i64, i64* %..inline.addr.440, align 8, !tbaa !4637, !dbg !5750
	%397 = load i32, i32* %..inline.addr.380, align 4, !tbaa !4635, !dbg !5750
	%398 = sext i32  %397 to i64, !dbg !5750
	%399 = add i64  %398, 2, !dbg !5750
	%400 = add i64  %396,  %399, !dbg !5750
	%401 = select i1  %395, i64  %396, i64  %400, !dbg !5750
	%402 = getelementptr i8, i8*  %389, i64 744, !dbg !5751
	%403 = bitcast i8*  %402 to i8**, !dbg !5751
	%404 = load i8*, i8**  %403, align 8, !tbaa !4632, !dbg !5751
	%405 = mul i64  %401, 24, !dbg !5751
	%406 = getelementptr i8, i8*  %404, i64  %405, !dbg !5751
	%407 = bitcast %struct._ZSt5arrayIdLm3EE** %..inline.addr.430 to i8**, !dbg !5751
	store i8*  %406, i8**  %407, align 8, !tbaa !4632, !dbg !5751
	br label %L..inline.71109
L..inline.71109:
	%408 = load %struct._ZSt5arrayIdLm3EE*, %struct._ZSt5arrayIdLm3EE** %..inline.addr.430, align 8, !tbaa !4632, !dbg !5755
	%409 = bitcast %struct._ZSt5arrayIdLm3EE*  %408 to i8*, !dbg !5755
	%410 = getelementptr i8, i8*  %409, i64 16, !dbg !5755
	%411 = bitcast double** %..inline.addr.450 to i8**, !dbg !5755
	store i8*  %410, i8**  %411, align 8, !tbaa !4632, !dbg !5755
	%412 = load %struct._Z6FsGridISt5arrayIdLm24EELi2EE*, %struct._Z6FsGridISt5arrayIdLm24EELi2EE** %dMomentsGrid.addr, align 8, !tbaa !4632, !dbg !5756
	%413 = bitcast %struct._Z6FsGridISt5arrayIdLm24EELi2EE*  %412 to i8*, !dbg !5756
	%414 = bitcast %struct._Z6FsGridISt5arrayIdLm24EELi2EE** %..inline.addr.460 to i8**, !dbg !5756
	store i8*  %413, i8**  %414, align 8, !tbaa !4632, !dbg !5756
	%415 = load i32, i32* %i.addr, align 4, !tbaa !4635, !dbg !5754
	store i32  %415, i32* %..inline.addr.470, align 4, !tbaa !4635, !dbg !5754
	%416 = load i32, i32* %j.addr, align 4, !tbaa !4635, !dbg !5754
	store i32  %416, i32* %..inline.addr.480, align 4, !tbaa !4635, !dbg !5754
	%417 = load i32, i32* %k.addr, align 4, !tbaa !4635, !dbg !5754
	store i32  %417, i32* %..inline.addr.490, align 4, !tbaa !4635, !dbg !5754
	store i32 13, i32* %..inline.addr.500, align 4, !tbaa !4635, !dbg !5754
	%418 = bitcast [3 x i32]* %..inline.addr.510 to i32*, !dbg !5723
	store i32 0, i32*  %418, align 4, !tbaa !4633, !dbg !5723
	%419 = bitcast [3 x i32]* %..inline.addr.510 to i8*, !dbg !5724
	%420 = getelementptr i8, i8*  %419, i64 4, !dbg !5724
	%421 = bitcast i8*  %420 to i32*, !dbg !5724
	store i32 0, i32*  %421, align 4, !tbaa !4633, !dbg !5724
	%422 = getelementptr i8, i8*  %419, i64 8, !dbg !5724
	%423 = bitcast i8*  %422 to i32*, !dbg !5724
	store i32 0, i32*  %423, align 4, !tbaa !4633, !dbg !5724
	%424 = icmp sge i32  %415, 0, !dbg !5724
	br i1  %424, label %L..inline.71129, label %L.B1329, !dbg !5724
L.B1329:
	store i32 4, i32* %..inline.addr.500, align 4, !tbaa !4635, !dbg !5725
	%425 = bitcast [3 x i32]* %..inline.addr.510 to i32*, !dbg !5726
	store i32 1, i32*  %425, align 4, !tbaa !4633, !dbg !5726
	br label %L..inline.71129
L..inline.71129:
	%426 = load i32, i32* %..inline.addr.470, align 4, !tbaa !4635, !dbg !5727
	%427 = load %struct._Z6FsGridISt5arrayIdLm24EELi2EE*, %struct._Z6FsGridISt5arrayIdLm24EELi2EE** %..inline.addr.460, align 8, !tbaa !4632, !dbg !5727
	%428 = bitcast %struct._Z6FsGridISt5arrayIdLm24EELi2EE*  %427 to i8*, !dbg !5727
	%429 = getelementptr i8, i8*  %428, i64 264, !dbg !5727
	%430 = bitcast i8*  %429 to i32*, !dbg !5727
	%431 = load i32, i32*  %430, align 4, !tbaa !4633, !dbg !5727
	%432 = icmp slt i32  %426,  %431, !dbg !5727
	br i1  %432, label %L..inline.71147, label %L.B1330, !dbg !5727
L.B1330:
	%433 = load i32, i32* %..inline.addr.500, align 4, !tbaa !4635, !dbg !5727
	%434 = add i32  %433, 9, !dbg !5727
	store i32  %434, i32* %..inline.addr.500, align 4, !tbaa !4635, !dbg !5727
	%435 = bitcast [3 x i32]* %..inline.addr.510 to i32*, !dbg !5728
	store i32 -1, i32*  %435, align 4, !tbaa !4633, !dbg !5728
	br label %L..inline.71147
L..inline.71147:
	%436 = load i32, i32* %..inline.addr.480, align 4, !tbaa !4635, !dbg !5729
	%437 = icmp sge i32  %436, 0, !dbg !5729
	br i1  %437, label %L..inline.71149, label %L.B1331, !dbg !5729
L.B1331:
	%438 = load i32, i32* %..inline.addr.500, align 4, !tbaa !4635, !dbg !5729
	%439 = sub i32  %438, 3, !dbg !5729
	store i32  %439, i32* %..inline.addr.500, align 4, !tbaa !4635, !dbg !5729
	%440 = bitcast [3 x i32]* %..inline.addr.510 to i8*, !dbg !5730
	%441 = getelementptr i8, i8*  %440, i64 4, !dbg !5730
	%442 = bitcast i8*  %441 to i32*, !dbg !5730
	store i32 1, i32*  %442, align 4, !tbaa !4633, !dbg !5730
	br label %L..inline.71149
L..inline.71149:
	%443 = load i32, i32* %..inline.addr.480, align 4, !tbaa !4635, !dbg !5731
	%444 = load %struct._Z6FsGridISt5arrayIdLm24EELi2EE*, %struct._Z6FsGridISt5arrayIdLm24EELi2EE** %..inline.addr.460, align 8, !tbaa !4632, !dbg !5731
	%445 = bitcast %struct._Z6FsGridISt5arrayIdLm24EELi2EE*  %444 to i8*, !dbg !5731
	%446 = getelementptr i8, i8*  %445, i64 268, !dbg !5731
	%447 = bitcast i8*  %446 to i32*, !dbg !5731
	%448 = load i32, i32*  %447, align 4, !tbaa !4633, !dbg !5731
	%449 = icmp slt i32  %443,  %448, !dbg !5731
	br i1  %449, label %L..inline.71166, label %L.B1332, !dbg !5731
L.B1332:
	%450 = load i32, i32* %..inline.addr.500, align 4, !tbaa !4635, !dbg !5731
	%451 = add i32  %450, 3, !dbg !5731
	store i32  %451, i32* %..inline.addr.500, align 4, !tbaa !4635, !dbg !5731
	%452 = bitcast [3 x i32]* %..inline.addr.510 to i8*, !dbg !5732
	%453 = getelementptr i8, i8*  %452, i64 4, !dbg !5732
	%454 = bitcast i8*  %453 to i32*, !dbg !5732
	store i32 -1, i32*  %454, align 4, !tbaa !4633, !dbg !5732
	br label %L..inline.71166
L..inline.71166:
	%455 = load i32, i32* %..inline.addr.490, align 4, !tbaa !4635, !dbg !5733
	%456 = icmp sge i32  %455, 0, !dbg !5733
	br i1  %456, label %L..inline.71168, label %L.B1333, !dbg !5733
L.B1333:
	%457 = load i32, i32* %..inline.addr.500, align 4, !tbaa !4635, !dbg !5733
	%458 = sub i32  %457, 1, !dbg !5733
	store i32  %458, i32* %..inline.addr.500, align 4, !tbaa !4635, !dbg !5733
	%459 = bitcast [3 x i32]* %..inline.addr.510 to i8*, !dbg !5734
	%460 = getelementptr i8, i8*  %459, i64 8, !dbg !5734
	%461 = bitcast i8*  %460 to i32*, !dbg !5734
	store i32 1, i32*  %461, align 4, !tbaa !4633, !dbg !5734
	br label %L..inline.71168
L..inline.71168:
	%462 = load i32, i32* %..inline.addr.490, align 4, !tbaa !4635, !dbg !5735
	%463 = load %struct._Z6FsGridISt5arrayIdLm24EELi2EE*, %struct._Z6FsGridISt5arrayIdLm24EELi2EE** %..inline.addr.460, align 8, !tbaa !4632, !dbg !5735
	%464 = bitcast %struct._Z6FsGridISt5arrayIdLm24EELi2EE*  %463 to i8*, !dbg !5735
	%465 = getelementptr i8, i8*  %464, i64 272, !dbg !5735
	%466 = bitcast i8*  %465 to i32*, !dbg !5735
	%467 = load i32, i32*  %466, align 4, !tbaa !4633, !dbg !5735
	%468 = icmp slt i32  %462,  %467, !dbg !5735
	br i1  %468, label %L..inline.71185, label %L.B1334, !dbg !5735
L.B1334:
	%469 = load i32, i32* %..inline.addr.500, align 4, !tbaa !4635, !dbg !5735
	%470 = add i32  %469, 1, !dbg !5735
	store i32  %470, i32* %..inline.addr.500, align 4, !tbaa !4635, !dbg !5735
	%471 = bitcast [3 x i32]* %..inline.addr.510 to i8*, !dbg !5736
	%472 = getelementptr i8, i8*  %471, i64 8, !dbg !5736
	%473 = bitcast i8*  %472 to i32*, !dbg !5736
	store i32 -1, i32*  %473, align 4, !tbaa !4633, !dbg !5736
	br label %L..inline.71185
L..inline.71185:
	%474 = load i32, i32* %..inline.addr.500, align 4, !tbaa !4635, !dbg !5737
	%475 = icmp eq i32  %474, 13, !dbg !5737
	br i1  %475, label %L..inline.71186, label %L.B1335, !dbg !5737
L.B1335:
	%476 = sext i32  %474 to i64, !dbg !5738
	%477 = load %struct._Z6FsGridISt5arrayIdLm24EELi2EE*, %struct._Z6FsGridISt5arrayIdLm24EELi2EE** %..inline.addr.460, align 8, !tbaa !4632, !dbg !5738
	%478 = bitcast %struct._Z6FsGridISt5arrayIdLm24EELi2EE*  %477 to i8*, !dbg !5738
	%479 = getelementptr i8, i8*  %478, i64 92, !dbg !5738
	%480 = bitcast i8*  %479 to i32*, !dbg !5738
	%481 = getelementptr i32, i32*  %480, i64  %476, !dbg !5738
	%482 = load i32, i32*  %481, align 4, !tbaa !4633, !dbg !5738
	%483 = icmp ne i32  %482, -2, !dbg !5738
	br i1  %483, label %L..inline.71203, label %L.B1336, !dbg !5738
L.B1336:
	%484 = bitcast %struct._ZSt5arrayIdLm24EE** %..inline.addr.520 to i8**, !dbg !5738
	store i8* null, i8**  %484, align 8, !tbaa !4632, !dbg !5738
	br label %L..inline.71390, !dbg !5739
L..inline.71203:
	%485 = load i32, i32* %..inline.addr.500, align 4, !tbaa !4635, !dbg !5746
	%486 = sext i32  %485 to i64, !dbg !5746
	%487 = load %struct._Z6FsGridISt5arrayIdLm24EELi2EE*, %struct._Z6FsGridISt5arrayIdLm24EELi2EE** %..inline.addr.460, align 8, !tbaa !4632, !dbg !5746
	%488 = bitcast %struct._Z6FsGridISt5arrayIdLm24EELi2EE*  %487 to i8*, !dbg !5746
	%489 = getelementptr i8, i8*  %488, i64 92, !dbg !5746
	%490 = bitcast i8*  %489 to i32*, !dbg !5746
	%491 = getelementptr i32, i32*  %490, i64  %486, !dbg !5746
	%492 = load i32, i32*  %491, align 4, !tbaa !4633, !dbg !5746
	%493 = getelementptr i8, i8*  %488, i64 56, !dbg !5746
	%494 = bitcast i8*  %493 to i32*, !dbg !5746
	%495 = load i32, i32*  %494, align 4, !tbaa !4633, !dbg !5746
	%496 = icmp ne i32  %492,  %495, !dbg !5746
	br i1  %496, label %L..inline.71221, label %L.B1337, !dbg !5746
L.B1337:
	%497 = load i32, i32* %..inline.addr.470, align 4, !tbaa !4635, !dbg !5747
	%498 = bitcast [3 x i32]* %..inline.addr.510 to i32*, !dbg !5747
	%499 = load i32, i32*  %498, align 4, !tbaa !4633, !dbg !5747
	%500 = bitcast %struct._Z6FsGridISt5arrayIdLm24EELi2EE*  %487 to i8*, !dbg !5747
	%501 = getelementptr i8, i8*  %500, i64 264, !dbg !5747
	%502 = bitcast i8*  %501 to i32*, !dbg !5747
	%503 = load i32, i32*  %502, align 4, !tbaa !4633, !dbg !5747
	%504 = mul i32  %499,  %503, !dbg !5747
	%505 = add i32  %497,  %504, !dbg !5747
	store i32  %505, i32* %..inline.addr.470, align 4, !tbaa !4635, !dbg !5747
	%506 = load i32, i32* %..inline.addr.480, align 4, !tbaa !4635, !dbg !5748
	%507 = bitcast [3 x i32]* %..inline.addr.510 to i8*, !dbg !5748
	%508 = getelementptr i8, i8*  %507, i64 4, !dbg !5748
	%509 = bitcast i8*  %508 to i32*, !dbg !5748
	%510 = load i32, i32*  %509, align 4, !tbaa !4633, !dbg !5748
	%511 = getelementptr i8, i8*  %500, i64 268, !dbg !5748
	%512 = bitcast i8*  %511 to i32*, !dbg !5748
	%513 = load i32, i32*  %512, align 4, !tbaa !4633, !dbg !5748
	%514 = mul i32  %510,  %513, !dbg !5748
	%515 = add i32  %506,  %514, !dbg !5748
	store i32  %515, i32* %..inline.addr.480, align 4, !tbaa !4635, !dbg !5748
	%516 = load i32, i32* %..inline.addr.490, align 4, !tbaa !4635, !dbg !5749
	%517 = getelementptr i8, i8*  %507, i64 8, !dbg !5749
	%518 = bitcast i8*  %517 to i32*, !dbg !5749
	%519 = load i32, i32*  %518, align 4, !tbaa !4633, !dbg !5749
	%520 = getelementptr i8, i8*  %500, i64 272, !dbg !5749
	%521 = bitcast i8*  %520 to i32*, !dbg !5749
	%522 = load i32, i32*  %521, align 4, !tbaa !4633, !dbg !5749
	%523 = mul i32  %519,  %522, !dbg !5749
	%524 = add i32  %516,  %523, !dbg !5749
	store i32  %524, i32* %..inline.addr.490, align 4, !tbaa !4635, !dbg !5749
	br label %L..inline.71221
L..inline.71221:
	br label %L..inline.71186
L..inline.71186:
	store i64 0, i64* %..inline.addr.530, align 8, !tbaa !4637, !dbg !5750
	%525 = load %struct._Z6FsGridISt5arrayIdLm24EELi2EE*, %struct._Z6FsGridISt5arrayIdLm24EELi2EE** %..inline.addr.460, align 8, !tbaa !4632, !dbg !5750
	%526 = bitcast %struct._Z6FsGridISt5arrayIdLm24EELi2EE*  %525 to i8*, !dbg !5750
	%527 = getelementptr i8, i8*  %526, i64 260, !dbg !5750
	%528 = bitcast i8*  %527 to i32*, !dbg !5750
	%529 = load i32, i32*  %528, align 4, !tbaa !4633, !dbg !5750
	%530 = icmp sle i32  %529, 1, !dbg !5750
	br i1  %530, label %L..inline.71295, label %L.B1338, !dbg !5750
L.B1338:
	%531 = load i32, i32* %..inline.addr.490, align 4, !tbaa !4635, !dbg !5750
	%532 = add i32  %531, 2, !dbg !5750
	%533 = bitcast %struct._Z6FsGridISt5arrayIdLm24EELi2EE*  %525 to i8*, !dbg !5750
	%534 = getelementptr i8, i8*  %533, i64 280, !dbg !5750
	%535 = bitcast i8*  %534 to i32*, !dbg !5750
	%536 = load i32, i32*  %535, align 4, !tbaa !4633, !dbg !5750
	%537 = getelementptr i8, i8*  %533, i64 276, !dbg !5750
	%538 = bitcast i8*  %537 to i32*, !dbg !5750
	%539 = load i32, i32*  %538, align 4, !tbaa !4633, !dbg !5750
	%540 = mul i32  %536,  %539, !dbg !5750
	%541 = mul i32  %532,  %540, !dbg !5750
	%542 = sext i32  %541 to i64, !dbg !5750
	store i64  %542, i64* %..inline.addr.530, align 8, !tbaa !4637, !dbg !5750
	br label %L..inline.71295
L..inline.71295:
	%543 = load %struct._Z6FsGridISt5arrayIdLm24EELi2EE*, %struct._Z6FsGridISt5arrayIdLm24EELi2EE** %..inline.addr.460, align 8, !tbaa !4632, !dbg !5750
	%544 = bitcast %struct._Z6FsGridISt5arrayIdLm24EELi2EE*  %543 to i8*, !dbg !5750
	%545 = getelementptr i8, i8*  %544, i64 256, !dbg !5750
	%546 = bitcast i8*  %545 to i32*, !dbg !5750
	%547 = load i32, i32*  %546, align 4, !tbaa !4633, !dbg !5750
	%548 = icmp sle i32  %547, 1, !dbg !5750
	br i1  %548, label %L..inline.71344, label %L.B1339, !dbg !5750
L.B1339:
	%549 = load i64, i64* %..inline.addr.530, align 8, !tbaa !4637, !dbg !5750
	%550 = bitcast %struct._Z6FsGridISt5arrayIdLm24EELi2EE*  %543 to i8*, !dbg !5750
	%551 = getelementptr i8, i8*  %550, i64 276, !dbg !5750
	%552 = bitcast i8*  %551 to i32*, !dbg !5750
	%553 = load i32, i32*  %552, align 4, !tbaa !4633, !dbg !5750
	%554 = load i32, i32* %..inline.addr.480, align 4, !tbaa !4635, !dbg !5750
	%555 = add i32  %554, 2, !dbg !5750
	%556 = mul i32  %553,  %555, !dbg !5750
	%557 = sext i32  %556 to i64, !dbg !5750
	%558 = add i64  %549,  %557, !dbg !5750
	store i64  %558, i64* %..inline.addr.530, align 8, !tbaa !4637, !dbg !5750
	br label %L..inline.71344
L..inline.71344:
	%559 = load %struct._Z6FsGridISt5arrayIdLm24EELi2EE*, %struct._Z6FsGridISt5arrayIdLm24EELi2EE** %..inline.addr.460, align 8, !tbaa !4632, !dbg !5750
	%560 = bitcast %struct._Z6FsGridISt5arrayIdLm24EELi2EE*  %559 to i8*, !dbg !5750
	%561 = getelementptr i8, i8*  %560, i64 252, !dbg !5750
	%562 = bitcast i8*  %561 to i32*, !dbg !5750
	%563 = load i32, i32*  %562, align 4, !tbaa !4633, !dbg !5750
	%564 = icmp sle i32  %563, 1, !dbg !5750
	%565 = zext i1  %564 to i32, !dbg !5750
	%566 = trunc i32  %565 to i1, !dbg !5750
	%567 = load i64, i64* %..inline.addr.530, align 8, !tbaa !4637, !dbg !5750
	%568 = load i32, i32* %..inline.addr.470, align 4, !tbaa !4635, !dbg !5750
	%569 = sext i32  %568 to i64, !dbg !5750
	%570 = add i64  %569, 2, !dbg !5750
	%571 = add i64  %567,  %570, !dbg !5750
	%572 = select i1  %566, i64  %567, i64  %571, !dbg !5750
	%573 = getelementptr i8, i8*  %560, i64 744, !dbg !5751
	%574 = bitcast i8*  %573 to i8**, !dbg !5751
	%575 = load i8*, i8**  %574, align 8, !tbaa !4632, !dbg !5751
	%576 = mul i64  %572, 192, !dbg !5751
	%577 = getelementptr i8, i8*  %575, i64  %576, !dbg !5751
	%578 = bitcast %struct._ZSt5arrayIdLm24EE** %..inline.addr.520 to i8**, !dbg !5751
	store i8*  %577, i8**  %578, align 8, !tbaa !4632, !dbg !5751
	br label %L..inline.71390
L..inline.71390:
	%579 = load double, double* @_ZN10Parameters19electronTemperatureE, align 8, !tbaa !4639, !dbg !5756
	%580 = fmul double  %579, -1.38065030000000010E-23, !dbg !5756
	%581 = load %struct._ZSt5arrayIdLm24EE*, %struct._ZSt5arrayIdLm24EE** %..inline.addr.520, align 8, !tbaa !4632, !dbg !5756
	%582 = bitcast %struct._ZSt5arrayIdLm24EE*  %581 to i8*, !dbg !5756
	%583 = getelementptr i8, i8*  %582, i64 40, !dbg !5756
	%584 = bitcast i8*  %583 to double*, !dbg !5756
	%585 = load double, double*  %584, align 8, !tbaa !4633, !dbg !5756
	%586 = fmul double  %580,  %585, !dbg !5756
	%587 = load %struct._Z6FsGridISt5arrayIdLm3EELi2EE*, %struct._Z6FsGridISt5arrayIdLm3EELi2EE** %EGradPeGrid.addr, align 8, !tbaa !4632, !dbg !5756
	%588 = bitcast %struct._Z6FsGridISt5arrayIdLm3EELi2EE*  %587 to i8*, !dbg !5756
	%589 = getelementptr i8, i8*  %588, i64 16, !dbg !5756
	%590 = bitcast i8*  %589 to double*, !dbg !5756
	%591 = load double, double*  %590, align 8, !tbaa !4633, !dbg !5756
	%592 = load double, double* %hallRhoq.addr, align 8, !tbaa !4639, !dbg !5756
	%593 = fmul double  %591,  %592, !dbg !5756
	%594 = fdiv double  %586,  %593, !dbg !5756
	%595 = load double*, double** %..inline.addr.450, align 8, !tbaa !4632, !dbg !5756
	store double  %594, double*  %595, align 8, !tbaa !4633, !dbg !5756
	br label %L_T18154496_50932, !dbg !5757
L.B0016:
	%596 = bitcast [27 x i8]* @.S52189 to i8*, !dbg !5758
	%597 = icmp ne i8*  %596,  null, !dbg !5758
	br i1  %597, label %L..inline.71412, label %L.B1340, !dbg !5758
L.B1340:
	%598 = bitcast %struct._ZSo* @_ZSt4cerr to i8*, !dbg !5741
	%599 = bitcast %struct._ZSo* @_ZSt4cerr to i8**, !dbg !5741
	%600 = load i8*, i8**  %599, align 8, !tbaa !4632, !dbg !5741
	%601 = getelementptr i8, i8*  %600, i64 18446744073709551592, !dbg !5741
	%602 = bitcast i8*  %601 to i64*, !dbg !5741
	%603 = load i64, i64*  %602, align 8, !tbaa !4633, !dbg !5741
	%604 = getelementptr i8, i8*  %598, i64  %603, !dbg !5741
	%605 = bitcast %struct._ZSt9basic_iosIcSt11char_traitsIcEE** %..inline.addr.540 to i8**, !dbg !5741
	store i8*  %604, i8**  %605, align 8, !tbaa !4632, !dbg !5741
	%606 = bitcast %struct._ZSt9basic_iosIcSt11char_traitsIcEE** %..inline.addr.550 to i8**, !dbg !5741
	store i8*  %604, i8**  %606, align 8, !tbaa !4632, !dbg !5741
	%607 = load %struct._ZSt9basic_iosIcSt11char_traitsIcEE*, %struct._ZSt9basic_iosIcSt11char_traitsIcEE** %..inline.addr.550, align 8, !tbaa !4632, !dbg !5741
	%608 = bitcast %struct._ZSt9basic_iosIcSt11char_traitsIcEE*  %607 to i8*, !dbg !5741
	%609 = getelementptr i8, i8*  %608, i64 32, !dbg !5741
	%610 = bitcast i8*  %609 to i32*, !dbg !5741
	%611 = load i32, i32*  %610, align 4, !tbaa !4633, !dbg !5741
	%612 = or i32  %611, 1, !dbg !5741
	%613 = load %struct._ZSt9basic_iosIcSt11char_traitsIcEE*, %struct._ZSt9basic_iosIcSt11char_traitsIcEE** %..inline.addr.540, align 8, !tbaa !4632, !dbg !5741
	call void  @_ZNSt9basic_iosIcSt11char_traitsIcEE5clearESt12_Ios_Iostate (%struct._ZSt9basic_iosIcSt11char_traitsIcEE*  %613, i32  %612), !dbg !5741
	br label %L..inline.71433, !dbg !5741
L..inline.71412:
	%614 = bitcast [27 x i8]* @.S52189 to i8*, !dbg !5742
	%615 = call i64  @strlen (i8*  %614) nounwind, !dbg !5742
	%616 = call %struct._ZSo*  @_ZSt16__ostream_insertIcSt11char_traitsIcEERSt13basic_ostreamIT_T0_ES6_PKS3_l (%struct._ZSo* @_ZSt4cerr, i8*  %614, i64  %615), !dbg !5742
	%617 = bitcast %struct._ZSo*  %616 to i8*, !dbg !5742
	%618 = bitcast %struct._ZSo** %.Q0022.addr to i8**, !dbg !5742
	store i8*  %617, i8**  %618, align 8, !tbaa !4632, !dbg !5742
	br label %L..inline.71433
L..inline.71433:
	%619 = bitcast [2 x i8]* @.S52208 to i8*, !dbg !5758
	%620 = icmp ne i8*  %619,  null, !dbg !5758
	br i1  %620, label %L..inline.71445, label %L.B1341, !dbg !5758
L.B1341:
	%621 = bitcast %struct._ZSo* @_ZSt4cerr to i8*, !dbg !5741
	%622 = bitcast %struct._ZSo* @_ZSt4cerr to i8**, !dbg !5741
	%623 = load i8*, i8**  %622, align 8, !tbaa !4632, !dbg !5741
	%624 = getelementptr i8, i8*  %623, i64 18446744073709551592, !dbg !5741
	%625 = bitcast i8*  %624 to i64*, !dbg !5741
	%626 = load i64, i64*  %625, align 8, !tbaa !4633, !dbg !5741
	%627 = getelementptr i8, i8*  %621, i64  %626, !dbg !5741
	%628 = bitcast %struct._ZSt9basic_iosIcSt11char_traitsIcEE** %..inline.addr.590 to i8**, !dbg !5741
	store i8*  %627, i8**  %628, align 8, !tbaa !4632, !dbg !5741
	%629 = bitcast %struct._ZSt9basic_iosIcSt11char_traitsIcEE** %..inline.addr.600 to i8**, !dbg !5741
	store i8*  %627, i8**  %629, align 8, !tbaa !4632, !dbg !5741
	%630 = load %struct._ZSt9basic_iosIcSt11char_traitsIcEE*, %struct._ZSt9basic_iosIcSt11char_traitsIcEE** %..inline.addr.600, align 8, !tbaa !4632, !dbg !5741
	%631 = bitcast %struct._ZSt9basic_iosIcSt11char_traitsIcEE*  %630 to i8*, !dbg !5741
	%632 = getelementptr i8, i8*  %631, i64 32, !dbg !5741
	%633 = bitcast i8*  %632 to i32*, !dbg !5741
	%634 = load i32, i32*  %633, align 4, !tbaa !4633, !dbg !5741
	%635 = or i32  %634, 1, !dbg !5741
	%636 = load %struct._ZSt9basic_iosIcSt11char_traitsIcEE*, %struct._ZSt9basic_iosIcSt11char_traitsIcEE** %..inline.addr.590, align 8, !tbaa !4632, !dbg !5741
	call void  @_ZNSt9basic_iosIcSt11char_traitsIcEE5clearESt12_Ios_Iostate (%struct._ZSt9basic_iosIcSt11char_traitsIcEE*  %636, i32  %635), !dbg !5741
	br label %L..inline.71466, !dbg !5741
L..inline.71445:
	%637 = bitcast [2 x i8]* @.S52208 to i8*, !dbg !5742
	%638 = call i64  @strlen (i8*  %637) nounwind, !dbg !5742
	%639 = call %struct._ZSo*  @_ZSt16__ostream_insertIcSt11char_traitsIcEERSt13basic_ostreamIT_T0_ES6_PKS3_l (%struct._ZSo* @_ZSt4cerr, i8*  %637, i64  %638), !dbg !5742
	%640 = bitcast %struct._ZSo*  %639 to i8*, !dbg !5742
	%641 = bitcast %struct._ZSo** %.Q0023.addr to i8**, !dbg !5742
	store i8*  %640, i8**  %641, align 8, !tbaa !4632, !dbg !5742
	br label %L..inline.71466
L..inline.71466:
	%642 = call %struct._ZSo*  @_ZNSolsEi (%struct._ZSo* @_ZSt4cerr, i32 108), !dbg !5743
	%643 = bitcast %struct._ZSo*  %642 to i8*, !dbg !5743
	%644 = bitcast %struct._ZSo** %.Q0024.addr to i8**, !dbg !5743
	store i8*  %643, i8**  %644, align 8, !tbaa !4632, !dbg !5743
	%645 = load %struct._ZSo*, %struct._ZSo** %.Q0024.addr, align 8, !tbaa !4632, !dbg !5743
	%646 = bitcast %struct._ZSo*  %645 to i8*, !dbg !5743
	%647 = bitcast %struct._ZSo** %..inline.addr.650 to i8**, !dbg !5743
	store i8*  %646, i8**  %647, align 8, !tbaa !4632, !dbg !5743
	%648 = bitcast [65 x i8]* @.S52212 to i8*, !dbg !5758
	%649 = icmp ne i8*  %648,  null, !dbg !5758
	br i1  %649, label %L..inline.71478, label %L.B1342, !dbg !5758
L.B1342:
	%650 = load %struct._ZSo*, %struct._ZSo** %..inline.addr.650, align 8, !tbaa !4632, !dbg !5741
	%651 = bitcast %struct._ZSo*  %650 to i8*, !dbg !5741
	%652 = bitcast %struct._ZSo*  %650 to i8**, !dbg !5741
	%653 = load i8*, i8**  %652, align 8, !tbaa !4632, !dbg !5741
	%654 = getelementptr i8, i8*  %653, i64 18446744073709551592, !dbg !5741
	%655 = bitcast i8*  %654 to i64*, !dbg !5741
	%656 = load i64, i64*  %655, align 8, !tbaa !4633, !dbg !5741
	%657 = getelementptr i8, i8*  %651, i64  %656, !dbg !5741
	%658 = bitcast %struct._ZSt9basic_iosIcSt11char_traitsIcEE** %..inline.addr.660 to i8**, !dbg !5741
	store i8*  %657, i8**  %658, align 8, !tbaa !4632, !dbg !5741
	%659 = bitcast %struct._ZSt9basic_iosIcSt11char_traitsIcEE** %..inline.addr.670 to i8**, !dbg !5741
	store i8*  %657, i8**  %659, align 8, !tbaa !4632, !dbg !5741
	%660 = load %struct._ZSt9basic_iosIcSt11char_traitsIcEE*, %struct._ZSt9basic_iosIcSt11char_traitsIcEE** %..inline.addr.670, align 8, !tbaa !4632, !dbg !5741
	%661 = bitcast %struct._ZSt9basic_iosIcSt11char_traitsIcEE*  %660 to i8*, !dbg !5741
	%662 = getelementptr i8, i8*  %661, i64 32, !dbg !5741
	%663 = bitcast i8*  %662 to i32*, !dbg !5741
	%664 = load i32, i32*  %663, align 4, !tbaa !4633, !dbg !5741
	%665 = or i32  %664, 1, !dbg !5741
	%666 = load %struct._ZSt9basic_iosIcSt11char_traitsIcEE*, %struct._ZSt9basic_iosIcSt11char_traitsIcEE** %..inline.addr.660, align 8, !tbaa !4632, !dbg !5741
	call void  @_ZNSt9basic_iosIcSt11char_traitsIcEE5clearESt12_Ios_Iostate (%struct._ZSt9basic_iosIcSt11char_traitsIcEE*  %666, i32  %665), !dbg !5741
	br label %L..inline.71499, !dbg !5741
L..inline.71478:
	%667 = bitcast [65 x i8]* @.S52212 to i8*, !dbg !5742
	%668 = call i64  @strlen (i8*  %667) nounwind, !dbg !5742
	%669 = load %struct._ZSo*, %struct._ZSo** %..inline.addr.650, align 8, !tbaa !4632, !dbg !5742
	%670 = call %struct._ZSo*  @_ZSt16__ostream_insertIcSt11char_traitsIcEERSt13basic_ostreamIT_T0_ES6_PKS3_l (%struct._ZSo*  %669, i8*  %667, i64  %668), !dbg !5742
	%671 = bitcast %struct._ZSo*  %670 to i8*, !dbg !5742
	%672 = bitcast %struct._ZSo** %.Q0025.addr to i8**, !dbg !5742
	store i8*  %671, i8**  %672, align 8, !tbaa !4632, !dbg !5742
	br label %L..inline.71499
L..inline.71499:
	%673 = load %struct._ZSo*, %struct._ZSo** %..inline.addr.650, align 8, !tbaa !4632, !dbg !5743
	%674 = bitcast %struct._ZSo*  %673 to i8*, !dbg !5743
	%675 = bitcast %struct._ZSo** %..inline.addr.710 to i8**, !dbg !5743
	store i8*  %674, i8**  %675, align 8, !tbaa !4632, !dbg !5743
	%676 = load %struct._ZSo*, %struct._ZSo** %..inline.addr.710, align 8, !tbaa !4632, !dbg !5744
	%677 = call %struct._ZSo*  @_ZSt4endlIcSt11char_traitsIcEERSt13basic_ostreamIT_T0_ES6_ (%struct._ZSo*  %676), !dbg !5744
	%678 = bitcast %struct._ZSo*  %677 to i8*, !dbg !5744
	%679 = bitcast %struct._ZSo** %.Q0026.addr to i8**, !dbg !5744
	store i8*  %678, i8**  %679, align 8, !tbaa !4632, !dbg !5744
	br label %L_T18154496_50932
L_T18154496_50932:
	ret void, !dbg !5759
}

%struct._ZSt3mapIjPN3SBC20SysBoundaryConditionESt4lessIjESaISt4pairIKjS2_EEE = type <{ %struct._ZSt8_Rb_treeIjSt4pairIKjPN3SBC20SysBoundaryConditionEESt10_Select1stIS5_ESt4lessIjESaIS5_EE}> 
%struct._ZSt8_Rb_treeIjSt4pairIKjPN3SBC20SysBoundaryConditionEESt10_Select1stIS5_ESt4lessIjESaIS5_EE = type <{ %struct._ZNSt8_Rb_treeIjSt4pairIKjPN3SBC20SysBoundaryConditionEESt10_Select1stIS5_ESt4lessIjESaIS5_EE13_Rb_tree_implIS9_Lb1EEE}> 
%struct._ZNSt7__cxx1110_List_baseIPN3SBC20SysBoundaryConditionESaIS3_EE10_List_implE = type <{ %struct._ZNSt8__detail17_List_node_headerE}> 
%struct._ZNSt8__detail17_List_node_headerE = type <{ %struct._ZNSt8__detail15_List_node_baseE, i64}> 
%union.__C6 = type <{ [16 x i8]}> 
%struct._ZSt15_Rb_tree_header = type <{ %struct._ZSt18_Rb_tree_node_base, i64}> 
%struct._ZNSt7__cxx1112basic_stringIcSt11char_traitsIcESaIcEEE = type <{ %struct._ZNSt7__cxx1112basic_stringIcSt11char_traitsIcESaIcEE12_Alloc_hiderE, i64, %union.__C6}> 
%struct._ZN3SBC20SysBoundaryConditionE = type <{ i32 (...)* (...)*, i32, i8, [3 x i8], %struct._ZSt13unordered_mapImSt6vectorImSaImEESt4hashImESt8equal_toImESaISt4pairIKmS2_EEE, %struct._ZSt13unordered_mapImSt6vectorImSaImEESt4hashImESt8equal_toImESaISt4pairIKmS2_EEE, %struct._ZSt13unordered_mapImSt5arrayIPN12spatial_cell11SpatialCellELm27EESt4hashImESt8equal_toImESaISt4pairIKmS4_EEE, i8, [7 x i8]}> 
%struct._ZSt10_HashtableImSt4pairIKmSt5arrayIPN12spatial_cell11SpatialCellELm27EEESaIS7_ENSt8__detail10_Select1stESt8equal_toImESt4hashImENS9_18_Mod_range_hashingENS9_20_Default_ranged_hashENS9_20_Prime_rehash_policyENS9_17_Hashtable_traitsILb0ELb0ELb1EEE = type <{ %struct._ZNSt8__detail15_Hash_node_baseE**, i64, %struct._ZNSt8__detail15_Hash_node_baseE, i64, %struct._ZNSt8__detail20_Prime_rehash_policyE, %struct._ZNSt8__detail15_Hash_node_baseE*}> 
%struct.SysBoundary = type <{ %struct._ZNSt7__cxx114listIPN3SBC20SysBoundaryConditionESaIS3_EEE, %struct._ZSt3mapIjPN3SBC20SysBoundaryConditionESt4lessIjESaISt4pairIKjS2_EEE, %struct._ZSt6vectorINSt7__cxx1112basic_stringIcSt11char_traitsIcESaIcEEESaIS5_EE, i8, [3 x i8], [4 x i8]}> 
%struct._ZNSt12_Vector_baseINSt7__cxx1112basic_stringIcSt11char_traitsIcESaIcEEESaIS5_EE17_Vector_impl_dataE = type <{ %struct._ZNSt7__cxx1112basic_stringIcSt11char_traitsIcESaIcEEE*, %struct._ZNSt7__cxx1112basic_stringIcSt11char_traitsIcESaIcEEE*, %struct._ZNSt7__cxx1112basic_stringIcSt11char_traitsIcESaIcEEE*}> 
%struct._ZSt13unordered_mapImSt6vectorImSaImEESt4hashImESt8equal_toImESaISt4pairIKmS2_EEE = type <{ %struct._ZSt10_HashtableImSt4pairIKmSt6vectorImSaImEEESaIS5_ENSt8__detail10_Select1stESt8equal_toImESt4hashImENS7_18_Mod_range_hashingENS7_20_Default_ranged_hashENS7_20_Prime_rehash_policyENS7_17_Hashtable_traitsILb0ELb0ELb1EEEE}> 
%struct._ZNSt7__cxx114listIPN3SBC20SysBoundaryConditionESaIS3_EEE = type <{ %struct._ZNSt7__cxx1110_List_baseIPN3SBC20SysBoundaryConditionESaIS3_EEE}> 
%struct._ZNSt7__cxx1110_List_baseIPN3SBC20SysBoundaryConditionESaIS3_EEE = type <{ %struct._ZNSt7__cxx1110_List_baseIPN3SBC20SysBoundaryConditionESaIS3_EE10_List_implE}> 
%struct._ZSt12_Vector_baseINSt7__cxx1112basic_stringIcSt11char_traitsIcESaIcEEESaIS5_EE = type <{ %struct._ZNSt12_Vector_baseINSt7__cxx1112basic_stringIcSt11char_traitsIcESaIcEEESaIS5_EE12_Vector_implE}> 
%struct._ZSt12_Vector_baseIN7fsgrids9technicalESaIS1_EE = type <{ %struct._ZNSt12_Vector_baseIN7fsgrids9technicalESaIS1_EE12_Vector_implE}> 
%struct._ZSt4lessIjE = type <{ [1 x i8]}> 
%struct._ZN7fsgrids9technicalE = type <{ i32, i32, double, i32, i32, i32, [4 x i8]}> 
%struct._ZNSt8__detail20_Prime_rehash_policyE = type <{ float, [4 x i8], i64}> 
%struct._Z6FsGridIN7fsgrids9technicalELi2EE = type <{ double, double, double, %struct._ZSt5arrayIdLm3EE, %struct.ompi_communicator_t*, i32, [4 x i8], %struct._ZSt6vectorIP14ompi_request_tSaIS1_EE, i32, %struct._ZSt5arrayIiLm27EE, %struct._ZSt6vectorIcSaIcEE, %struct._ZSt5arrayIiLm3EE, %struct._ZSt5arrayIiLm3EE, %struct._ZSt5arrayIbLm3EE, i8, %struct._ZSt5arrayIiLm3EE, %struct._ZSt5arrayIiLm3EE, %struct._ZSt5arrayIiLm3EE, %struct._ZSt5arrayIiLm3EE, [4 x i8], %struct.FsGridCouplingInformation*, %struct._ZSt5arrayIP15ompi_datatype_tLm27EE, %struct._ZSt5arrayIP15ompi_datatype_tLm27EE, %struct._ZSt6vectorIN7fsgrids9technicalESaIS1_EE}> 
%struct._ZNSt12_Vector_baseIN7fsgrids9technicalESaIS1_EE17_Vector_impl_dataE = type <{ %struct._ZN7fsgrids9technicalE*, %struct._ZN7fsgrids9technicalE*, %struct._ZN7fsgrids9technicalE*}> 
%struct._ZNSt8__detail15_List_node_baseE = type <{ %struct._ZNSt8__detail15_List_node_baseE*, %struct._ZNSt8__detail15_List_node_baseE*}> 
%struct._ZSt6vectorINSt7__cxx1112basic_stringIcSt11char_traitsIcESaIcEEESaIS5_EE = type <{ %struct._ZSt12_Vector_baseINSt7__cxx1112basic_stringIcSt11char_traitsIcESaIcEEESaIS5_EE}> 
%struct._ZSt20_Rb_tree_key_compareISt4lessIjEE = type <{ %struct._ZSt4lessIjE}> 
%struct._ZNSt12_Vector_baseIN7fsgrids9technicalESaIS1_EE12_Vector_implE = type <{ %struct._ZNSt12_Vector_baseIN7fsgrids9technicalESaIS1_EE17_Vector_impl_dataE}> 
%struct._ZNSt7__cxx1112basic_stringIcSt11char_traitsIcESaIcEE12_Alloc_hiderE = type <{ i8*}> 
%struct._ZSt13unordered_mapImSt5arrayIPN12spatial_cell11SpatialCellELm27EESt4hashImESt8equal_toImESaISt4pairIKmS4_EEE = type <{ %struct._ZSt10_HashtableImSt4pairIKmSt5arrayIPN12spatial_cell11SpatialCellELm27EEESaIS7_ENSt8__detail10_Select1stESt8equal_toImESt4hashImENS9_18_Mod_range_hashingENS9_20_Default_ranged_hashENS9_20_Prime_rehash_policyENS9_17_Hashtable_traitsILb0ELb0ELb1EEE}> 
%struct._ZNSt8_Rb_treeIjSt4pairIKjPN3SBC20SysBoundaryConditionEESt10_Select1stIS5_ESt4lessIjESaIS5_EE13_Rb_tree_implIS9_Lb1EEE = type <{ %struct._ZSt20_Rb_tree_key_compareISt4lessIjEE, [7 x i8], %struct._ZSt15_Rb_tree_header}> 
%struct._ZNSt12_Vector_baseINSt7__cxx1112basic_stringIcSt11char_traitsIcESaIcEEESaIS5_EE12_Vector_implE = type <{ %struct._ZNSt12_Vector_baseINSt7__cxx1112basic_stringIcSt11char_traitsIcESaIcEEESaIS5_EE17_Vector_impl_dataE}> 
%struct._ZSt6vectorIN7fsgrids9technicalESaIS1_EE = type <{ %struct._ZSt12_Vector_baseIN7fsgrids9technicalESaIS1_EE}> 
%struct._ZSt10_HashtableImSt4pairIKmSt6vectorImSaImEEESaIS5_ENSt8__detail10_Select1stESt8equal_toImESt4hashImENS7_18_Mod_range_hashingENS7_20_Default_ranged_hashENS7_20_Prime_rehash_policyENS7_17_Hashtable_traitsILb0ELb0ELb1EEEE = type <{ %struct._ZNSt8__detail15_Hash_node_baseE**, i64, %struct._ZNSt8__detail15_Hash_node_baseE, i64, %struct._ZNSt8__detail20_Prime_rehash_policyE, %struct._ZNSt8__detail15_Hash_node_baseE*}> 
%struct._ZNSt8__detail15_Hash_node_baseE = type <{ %struct._ZNSt8__detail15_Hash_node_baseE*}> 
%struct._ZSt18_Rb_tree_node_base = type <{ i32, [4 x i8], %struct._ZSt18_Rb_tree_node_base*, %struct._ZSt18_Rb_tree_node_base*, %struct._ZSt18_Rb_tree_node_base*}> 

define void @_Z19calculateGradPeTermR6FsGridISt5arrayIdLm3EELi2EERS_IS0_IdLm8EELi2EERS_IS0_IdLm24EELi2EERS_IN7fsgrids9technicalELi2EEiiiR11SysBoundary(%struct._Z6FsGridISt5arrayIdLm3EELi2EE* %EGradPeGrid.arg, %struct._Z6FsGridISt5arrayIdLm8EELi2EE* %momentsGrid.arg, %struct._Z6FsGridISt5arrayIdLm24EELi2EE* %dMomentsGrid.arg, %struct._Z6FsGridIN7fsgrids9technicalELi2EE* %technicalGrid.arg, i32 signext %i.arg, i32 signext %j.arg, i32 signext %k.arg, %struct.SysBoundary* %sysBoundaries.arg) #0 !dbg !5795 {
L.entry:
	%EGradPeGrid.addr = alloca %struct._Z6FsGridISt5arrayIdLm3EELi2EE*, align 8
	%momentsGrid.addr = alloca %struct._Z6FsGridISt5arrayIdLm8EELi2EE*, align 8
	%dMomentsGrid.addr = alloca %struct._Z6FsGridISt5arrayIdLm24EELi2EE*, align 8
	%technicalGrid.addr = alloca %struct._Z6FsGridIN7fsgrids9technicalELi2EE*, align 8
	%i.addr = alloca i32, align 4
	%j.addr = alloca i32, align 4
	%k.addr = alloca i32, align 4
	%sysBoundaries.addr = alloca %struct.SysBoundary*, align 8
	%..inline.addr = alloca %struct._Z6FsGridIN7fsgrids9technicalELi2EE*, align 8
	%..inline.addr.1 = alloca i32, align 4
	%..inline.addr.2 = alloca i32, align 4
	%..inline.addr.3 = alloca i32, align 4
	%..inline.addr.4 = alloca i32, align 4
	%..inline.addr.5 = alloca [3 x i32], align 4
	%..inline.addr.6 = alloca %struct._ZN7fsgrids9technicalE*, align 8
	%..inline.addr.7 = alloca i64, align 8
	%cellSysBoundaryFlag.addr = alloca i32, align 4
	%..inline.addr.8 = alloca %struct._Z6FsGridIN7fsgrids9technicalELi2EE*, align 8
	%..inline.addr.9 = alloca i32, align 4
	%..inline.addr.270 = alloca i32, align 4
	%..inline.addr.280 = alloca i32, align 4
	%..inline.addr.290 = alloca i32, align 4
	%..inline.addr.300 = alloca [3 x i32], align 4
	%..inline.addr.310 = alloca %struct._ZN7fsgrids9technicalE*, align 8
	%..inline.addr.320 = alloca i64, align 8
	%.Q0027.addr = alloca %struct._ZN3SBC20SysBoundaryConditionE*, align 8
	%_T18157808_50933.addr = alloca %struct._ZN3SBC20SysBoundaryConditionE*, align 8
	%.Q0028.addr = alloca %struct._ZN3SBC20SysBoundaryConditionE*, align 8
	%_T18158104_50933.addr = alloca %struct._ZN3SBC20SysBoundaryConditionE*, align 8
	%.Q0029.addr = alloca %struct._ZN3SBC20SysBoundaryConditionE*, align 8
	%_T18158400_50933.addr = alloca %struct._ZN3SBC20SysBoundaryConditionE*, align 8

	call void @llvm.dbg.declare (metadata %struct._Z6FsGridISt5arrayIdLm3EELi2EE** %EGradPeGrid.addr, metadata !6049, metadata !4571), !dbg !5796
	store %struct._Z6FsGridISt5arrayIdLm3EELi2EE* %EGradPeGrid.arg, %struct._Z6FsGridISt5arrayIdLm3EELi2EE** %EGradPeGrid.addr, align 8, !tbaa !4632
	call void @llvm.dbg.declare (metadata %struct._Z6FsGridISt5arrayIdLm3EELi2EE** %EGradPeGrid.addr, metadata !6050, metadata !4571), !dbg !5796
	call void @llvm.dbg.declare (metadata %struct._Z6FsGridISt5arrayIdLm8EELi2EE** %momentsGrid.addr, metadata !6051, metadata !4571), !dbg !5796
	store %struct._Z6FsGridISt5arrayIdLm8EELi2EE* %momentsGrid.arg, %struct._Z6FsGridISt5arrayIdLm8EELi2EE** %momentsGrid.addr, align 8, !tbaa !4632
	call void @llvm.dbg.declare (metadata %struct._Z6FsGridISt5arrayIdLm8EELi2EE** %momentsGrid.addr, metadata !6052, metadata !4571), !dbg !5796
	call void @llvm.dbg.declare (metadata %struct._Z6FsGridISt5arrayIdLm24EELi2EE** %dMomentsGrid.addr, metadata !6053, metadata !4571), !dbg !5796
	store %struct._Z6FsGridISt5arrayIdLm24EELi2EE* %dMomentsGrid.arg, %struct._Z6FsGridISt5arrayIdLm24EELi2EE** %dMomentsGrid.addr, align 8, !tbaa !4632
	call void @llvm.dbg.declare (metadata %struct._Z6FsGridISt5arrayIdLm24EELi2EE** %dMomentsGrid.addr, metadata !6054, metadata !4571), !dbg !5796
	call void @llvm.dbg.declare (metadata %struct._Z6FsGridIN7fsgrids9technicalELi2EE** %technicalGrid.addr, metadata !6055, metadata !4571), !dbg !5796
	store %struct._Z6FsGridIN7fsgrids9technicalELi2EE* %technicalGrid.arg, %struct._Z6FsGridIN7fsgrids9technicalELi2EE** %technicalGrid.addr, align 8, !tbaa !4632
	call void @llvm.dbg.declare (metadata %struct._Z6FsGridIN7fsgrids9technicalELi2EE** %technicalGrid.addr, metadata !6056, metadata !4571), !dbg !5796
	call void @llvm.dbg.declare (metadata i32* %i.addr, metadata !6057, metadata !4571), !dbg !5796
	store i32 %i.arg, i32* %i.addr, align 4, !tbaa !4633
	call void @llvm.dbg.declare (metadata i32* %i.addr, metadata !6058, metadata !4571), !dbg !5796
	call void @llvm.dbg.declare (metadata i32* %j.addr, metadata !6059, metadata !4571), !dbg !5796
	store i32 %j.arg, i32* %j.addr, align 4, !tbaa !4633
	call void @llvm.dbg.declare (metadata i32* %j.addr, metadata !6060, metadata !4571), !dbg !5796
	call void @llvm.dbg.declare (metadata i32* %k.addr, metadata !6061, metadata !4571), !dbg !5796
	store i32 %k.arg, i32* %k.addr, align 4, !tbaa !4633
	call void @llvm.dbg.declare (metadata i32* %k.addr, metadata !6062, metadata !4571), !dbg !5796
	call void @llvm.dbg.declare (metadata %struct.SysBoundary** %sysBoundaries.addr, metadata !6063, metadata !4571), !dbg !5796
	store %struct.SysBoundary* %sysBoundaries.arg, %struct.SysBoundary** %sysBoundaries.addr, align 8, !tbaa !4632
	call void @llvm.dbg.declare (metadata %struct.SysBoundary** %sysBoundaries.addr, metadata !6064, metadata !4571), !dbg !5796
	%0 = load %struct._Z6FsGridIN7fsgrids9technicalELi2EE*, %struct._Z6FsGridIN7fsgrids9technicalELi2EE** %technicalGrid.addr, align 8, !tbaa !4632, !dbg !6065
	%1 = bitcast %struct._Z6FsGridIN7fsgrids9technicalELi2EE*  %0 to i8*, !dbg !6065
	%2 = bitcast %struct._Z6FsGridIN7fsgrids9technicalELi2EE** %..inline.addr to i8**, !dbg !6065
	store i8*  %1, i8**  %2, align 8, !tbaa !4632, !dbg !6065
	%3 = load i32, i32* %i.addr, align 4, !tbaa !4635, !dbg !6065
	store i32  %3, i32* %..inline.addr.1, align 4, !tbaa !4635, !dbg !6065
	%4 = load i32, i32* %j.addr, align 4, !tbaa !4635, !dbg !6065
	store i32  %4, i32* %..inline.addr.2, align 4, !tbaa !4635, !dbg !6065
	%5 = load i32, i32* %k.addr, align 4, !tbaa !4635, !dbg !6065
	store i32  %5, i32* %..inline.addr.3, align 4, !tbaa !4635, !dbg !6065
	store i32 13, i32* %..inline.addr.4, align 4, !tbaa !4635, !dbg !6065
	%6 = bitcast [3 x i32]* %..inline.addr.5 to i32*, !dbg !6066
	store i32 0, i32*  %6, align 4, !tbaa !4633, !dbg !6066
	%7 = bitcast [3 x i32]* %..inline.addr.5 to i8*, !dbg !6067
	%8 = getelementptr i8, i8*  %7, i64 4, !dbg !6067
	%9 = bitcast i8*  %8 to i32*, !dbg !6067
	store i32 0, i32*  %9, align 4, !tbaa !4633, !dbg !6067
	%10 = getelementptr i8, i8*  %7, i64 8, !dbg !6067
	%11 = bitcast i8*  %10 to i32*, !dbg !6067
	store i32 0, i32*  %11, align 4, !tbaa !4633, !dbg !6067
	%12 = icmp sge i32  %3, 0, !dbg !6067
	br i1  %12, label %L..inline.71973, label %L.B1347, !dbg !6067
L.B1347:
	store i32 4, i32* %..inline.addr.4, align 4, !tbaa !4635, !dbg !6068
	%13 = bitcast [3 x i32]* %..inline.addr.5 to i32*, !dbg !6069
	store i32 1, i32*  %13, align 4, !tbaa !4633, !dbg !6069
	br label %L..inline.71973
L..inline.71973:
	%14 = load i32, i32* %..inline.addr.1, align 4, !tbaa !4635, !dbg !6070
	%15 = load %struct._Z6FsGridIN7fsgrids9technicalELi2EE*, %struct._Z6FsGridIN7fsgrids9technicalELi2EE** %..inline.addr, align 8, !tbaa !4632, !dbg !6070
	%16 = bitcast %struct._Z6FsGridIN7fsgrids9technicalELi2EE*  %15 to i8*, !dbg !6070
	%17 = getelementptr i8, i8*  %16, i64 264, !dbg !6070
	%18 = bitcast i8*  %17 to i32*, !dbg !6070
	%19 = load i32, i32*  %18, align 4, !tbaa !4633, !dbg !6070
	%20 = icmp slt i32  %14,  %19, !dbg !6070
	br i1  %20, label %L..inline.71991, label %L.B1348, !dbg !6070
L.B1348:
	%21 = load i32, i32* %..inline.addr.4, align 4, !tbaa !4635, !dbg !6070
	%22 = add i32  %21, 9, !dbg !6070
	store i32  %22, i32* %..inline.addr.4, align 4, !tbaa !4635, !dbg !6070
	%23 = bitcast [3 x i32]* %..inline.addr.5 to i32*, !dbg !6071
	store i32 -1, i32*  %23, align 4, !tbaa !4633, !dbg !6071
	br label %L..inline.71991
L..inline.71991:
	%24 = load i32, i32* %..inline.addr.2, align 4, !tbaa !4635, !dbg !6072
	%25 = icmp sge i32  %24, 0, !dbg !6072
	br i1  %25, label %L..inline.71993, label %L.B1349, !dbg !6072
L.B1349:
	%26 = load i32, i32* %..inline.addr.4, align 4, !tbaa !4635, !dbg !6072
	%27 = sub i32  %26, 3, !dbg !6072
	store i32  %27, i32* %..inline.addr.4, align 4, !tbaa !4635, !dbg !6072
	%28 = bitcast [3 x i32]* %..inline.addr.5 to i8*, !dbg !6073
	%29 = getelementptr i8, i8*  %28, i64 4, !dbg !6073
	%30 = bitcast i8*  %29 to i32*, !dbg !6073
	store i32 1, i32*  %30, align 4, !tbaa !4633, !dbg !6073
	br label %L..inline.71993
L..inline.71993:
	%31 = load i32, i32* %..inline.addr.2, align 4, !tbaa !4635, !dbg !6074
	%32 = load %struct._Z6FsGridIN7fsgrids9technicalELi2EE*, %struct._Z6FsGridIN7fsgrids9technicalELi2EE** %..inline.addr, align 8, !tbaa !4632, !dbg !6074
	%33 = bitcast %struct._Z6FsGridIN7fsgrids9technicalELi2EE*  %32 to i8*, !dbg !6074
	%34 = getelementptr i8, i8*  %33, i64 268, !dbg !6074
	%35 = bitcast i8*  %34 to i32*, !dbg !6074
	%36 = load i32, i32*  %35, align 4, !tbaa !4633, !dbg !6074
	%37 = icmp slt i32  %31,  %36, !dbg !6074
	br i1  %37, label %L..inline.72010, label %L.B1350, !dbg !6074
L.B1350:
	%38 = load i32, i32* %..inline.addr.4, align 4, !tbaa !4635, !dbg !6074
	%39 = add i32  %38, 3, !dbg !6074
	store i32  %39, i32* %..inline.addr.4, align 4, !tbaa !4635, !dbg !6074
	%40 = bitcast [3 x i32]* %..inline.addr.5 to i8*, !dbg !6075
	%41 = getelementptr i8, i8*  %40, i64 4, !dbg !6075
	%42 = bitcast i8*  %41 to i32*, !dbg !6075
	store i32 -1, i32*  %42, align 4, !tbaa !4633, !dbg !6075
	br label %L..inline.72010
L..inline.72010:
	%43 = load i32, i32* %..inline.addr.3, align 4, !tbaa !4635, !dbg !6076
	%44 = icmp sge i32  %43, 0, !dbg !6076
	br i1  %44, label %L..inline.72012, label %L.B1351, !dbg !6076
L.B1351:
	%45 = load i32, i32* %..inline.addr.4, align 4, !tbaa !4635, !dbg !6076
	%46 = sub i32  %45, 1, !dbg !6076
	store i32  %46, i32* %..inline.addr.4, align 4, !tbaa !4635, !dbg !6076
	%47 = bitcast [3 x i32]* %..inline.addr.5 to i8*, !dbg !6077
	%48 = getelementptr i8, i8*  %47, i64 8, !dbg !6077
	%49 = bitcast i8*  %48 to i32*, !dbg !6077
	store i32 1, i32*  %49, align 4, !tbaa !4633, !dbg !6077
	br label %L..inline.72012
L..inline.72012:
	%50 = load i32, i32* %..inline.addr.3, align 4, !tbaa !4635, !dbg !6078
	%51 = load %struct._Z6FsGridIN7fsgrids9technicalELi2EE*, %struct._Z6FsGridIN7fsgrids9technicalELi2EE** %..inline.addr, align 8, !tbaa !4632, !dbg !6078
	%52 = bitcast %struct._Z6FsGridIN7fsgrids9technicalELi2EE*  %51 to i8*, !dbg !6078
	%53 = getelementptr i8, i8*  %52, i64 272, !dbg !6078
	%54 = bitcast i8*  %53 to i32*, !dbg !6078
	%55 = load i32, i32*  %54, align 4, !tbaa !4633, !dbg !6078
	%56 = icmp slt i32  %50,  %55, !dbg !6078
	br i1  %56, label %L..inline.72029, label %L.B1352, !dbg !6078
L.B1352:
	%57 = load i32, i32* %..inline.addr.4, align 4, !tbaa !4635, !dbg !6078
	%58 = add i32  %57, 1, !dbg !6078
	store i32  %58, i32* %..inline.addr.4, align 4, !tbaa !4635, !dbg !6078
	%59 = bitcast [3 x i32]* %..inline.addr.5 to i8*, !dbg !6079
	%60 = getelementptr i8, i8*  %59, i64 8, !dbg !6079
	%61 = bitcast i8*  %60 to i32*, !dbg !6079
	store i32 -1, i32*  %61, align 4, !tbaa !4633, !dbg !6079
	br label %L..inline.72029
L..inline.72029:
	%62 = load i32, i32* %..inline.addr.4, align 4, !tbaa !4635, !dbg !6080
	%63 = icmp eq i32  %62, 13, !dbg !6080
	br i1  %63, label %L..inline.72030, label %L.B1353, !dbg !6080
L.B1353:
	%64 = sext i32  %62 to i64, !dbg !6081
	%65 = load %struct._Z6FsGridIN7fsgrids9technicalELi2EE*, %struct._Z6FsGridIN7fsgrids9technicalELi2EE** %..inline.addr, align 8, !tbaa !4632, !dbg !6081
	%66 = bitcast %struct._Z6FsGridIN7fsgrids9technicalELi2EE*  %65 to i8*, !dbg !6081
	%67 = getelementptr i8, i8*  %66, i64 92, !dbg !6081
	%68 = bitcast i8*  %67 to i32*, !dbg !6081
	%69 = getelementptr i32, i32*  %68, i64  %64, !dbg !6081
	%70 = load i32, i32*  %69, align 4, !tbaa !4633, !dbg !6081
	%71 = icmp ne i32  %70, -2, !dbg !6081
	br i1  %71, label %L..inline.72047, label %L.B1354, !dbg !6081
L.B1354:
	%72 = bitcast %struct._ZN7fsgrids9technicalE** %..inline.addr.6 to i8**, !dbg !6081
	store i8* null, i8**  %72, align 8, !tbaa !4632, !dbg !6081
	br label %L..inline.72234, !dbg !6082
L..inline.72047:
	%73 = load i32, i32* %..inline.addr.4, align 4, !tbaa !4635, !dbg !6083
	%74 = sext i32  %73 to i64, !dbg !6083
	%75 = load %struct._Z6FsGridIN7fsgrids9technicalELi2EE*, %struct._Z6FsGridIN7fsgrids9technicalELi2EE** %..inline.addr, align 8, !tbaa !4632, !dbg !6083
	%76 = bitcast %struct._Z6FsGridIN7fsgrids9technicalELi2EE*  %75 to i8*, !dbg !6083
	%77 = getelementptr i8, i8*  %76, i64 92, !dbg !6083
	%78 = bitcast i8*  %77 to i32*, !dbg !6083
	%79 = getelementptr i32, i32*  %78, i64  %74, !dbg !6083
	%80 = load i32, i32*  %79, align 4, !tbaa !4633, !dbg !6083
	%81 = getelementptr i8, i8*  %76, i64 56, !dbg !6083
	%82 = bitcast i8*  %81 to i32*, !dbg !6083
	%83 = load i32, i32*  %82, align 4, !tbaa !4633, !dbg !6083
	%84 = icmp ne i32  %80,  %83, !dbg !6083
	br i1  %84, label %L..inline.72065, label %L.B1355, !dbg !6083
L.B1355:
	%85 = load i32, i32* %..inline.addr.1, align 4, !tbaa !4635, !dbg !6084
	%86 = bitcast [3 x i32]* %..inline.addr.5 to i32*, !dbg !6084
	%87 = load i32, i32*  %86, align 4, !tbaa !4633, !dbg !6084
	%88 = bitcast %struct._Z6FsGridIN7fsgrids9technicalELi2EE*  %75 to i8*, !dbg !6084
	%89 = getelementptr i8, i8*  %88, i64 264, !dbg !6084
	%90 = bitcast i8*  %89 to i32*, !dbg !6084
	%91 = load i32, i32*  %90, align 4, !tbaa !4633, !dbg !6084
	%92 = mul i32  %87,  %91, !dbg !6084
	%93 = add i32  %85,  %92, !dbg !6084
	store i32  %93, i32* %..inline.addr.1, align 4, !tbaa !4635, !dbg !6084
	%94 = load i32, i32* %..inline.addr.2, align 4, !tbaa !4635, !dbg !6085
	%95 = bitcast [3 x i32]* %..inline.addr.5 to i8*, !dbg !6085
	%96 = getelementptr i8, i8*  %95, i64 4, !dbg !6085
	%97 = bitcast i8*  %96 to i32*, !dbg !6085
	%98 = load i32, i32*  %97, align 4, !tbaa !4633, !dbg !6085
	%99 = getelementptr i8, i8*  %88, i64 268, !dbg !6085
	%100 = bitcast i8*  %99 to i32*, !dbg !6085
	%101 = load i32, i32*  %100, align 4, !tbaa !4633, !dbg !6085
	%102 = mul i32  %98,  %101, !dbg !6085
	%103 = add i32  %94,  %102, !dbg !6085
	store i32  %103, i32* %..inline.addr.2, align 4, !tbaa !4635, !dbg !6085
	%104 = load i32, i32* %..inline.addr.3, align 4, !tbaa !4635, !dbg !6086
	%105 = getelementptr i8, i8*  %95, i64 8, !dbg !6086
	%106 = bitcast i8*  %105 to i32*, !dbg !6086
	%107 = load i32, i32*  %106, align 4, !tbaa !4633, !dbg !6086
	%108 = getelementptr i8, i8*  %88, i64 272, !dbg !6086
	%109 = bitcast i8*  %108 to i32*, !dbg !6086
	%110 = load i32, i32*  %109, align 4, !tbaa !4633, !dbg !6086
	%111 = mul i32  %107,  %110, !dbg !6086
	%112 = add i32  %104,  %111, !dbg !6086
	store i32  %112, i32* %..inline.addr.3, align 4, !tbaa !4635, !dbg !6086
	br label %L..inline.72065
L..inline.72065:
	br label %L..inline.72030
L..inline.72030:
	store i64 0, i64* %..inline.addr.7, align 8, !tbaa !4637, !dbg !6087
	%113 = load %struct._Z6FsGridIN7fsgrids9technicalELi2EE*, %struct._Z6FsGridIN7fsgrids9technicalELi2EE** %..inline.addr, align 8, !tbaa !4632, !dbg !6087
	%114 = bitcast %struct._Z6FsGridIN7fsgrids9technicalELi2EE*  %113 to i8*, !dbg !6087
	%115 = getelementptr i8, i8*  %114, i64 260, !dbg !6087
	%116 = bitcast i8*  %115 to i32*, !dbg !6087
	%117 = load i32, i32*  %116, align 4, !tbaa !4633, !dbg !6087
	%118 = icmp sle i32  %117, 1, !dbg !6087
	br i1  %118, label %L..inline.72139, label %L.B1356, !dbg !6087
L.B1356:
	%119 = load i32, i32* %..inline.addr.3, align 4, !tbaa !4635, !dbg !6087
	%120 = add i32  %119, 2, !dbg !6087
	%121 = bitcast %struct._Z6FsGridIN7fsgrids9technicalELi2EE*  %113 to i8*, !dbg !6087
	%122 = getelementptr i8, i8*  %121, i64 280, !dbg !6087
	%123 = bitcast i8*  %122 to i32*, !dbg !6087
	%124 = load i32, i32*  %123, align 4, !tbaa !4633, !dbg !6087
	%125 = getelementptr i8, i8*  %121, i64 276, !dbg !6087
	%126 = bitcast i8*  %125 to i32*, !dbg !6087
	%127 = load i32, i32*  %126, align 4, !tbaa !4633, !dbg !6087
	%128 = mul i32  %124,  %127, !dbg !6087
	%129 = mul i32  %120,  %128, !dbg !6087
	%130 = sext i32  %129 to i64, !dbg !6087
	store i64  %130, i64* %..inline.addr.7, align 8, !tbaa !4637, !dbg !6087
	br label %L..inline.72139
L..inline.72139:
	%131 = load %struct._Z6FsGridIN7fsgrids9technicalELi2EE*, %struct._Z6FsGridIN7fsgrids9technicalELi2EE** %..inline.addr, align 8, !tbaa !4632, !dbg !6087
	%132 = bitcast %struct._Z6FsGridIN7fsgrids9technicalELi2EE*  %131 to i8*, !dbg !6087
	%133 = getelementptr i8, i8*  %132, i64 256, !dbg !6087
	%134 = bitcast i8*  %133 to i32*, !dbg !6087
	%135 = load i32, i32*  %134, align 4, !tbaa !4633, !dbg !6087
	%136 = icmp sle i32  %135, 1, !dbg !6087
	br i1  %136, label %L..inline.72188, label %L.B1357, !dbg !6087
L.B1357:
	%137 = load i64, i64* %..inline.addr.7, align 8, !tbaa !4637, !dbg !6087
	%138 = bitcast %struct._Z6FsGridIN7fsgrids9technicalELi2EE*  %131 to i8*, !dbg !6087
	%139 = getelementptr i8, i8*  %138, i64 276, !dbg !6087
	%140 = bitcast i8*  %139 to i32*, !dbg !6087
	%141 = load i32, i32*  %140, align 4, !tbaa !4633, !dbg !6087
	%142 = load i32, i32* %..inline.addr.2, align 4, !tbaa !4635, !dbg !6087
	%143 = add i32  %142, 2, !dbg !6087
	%144 = mul i32  %141,  %143, !dbg !6087
	%145 = sext i32  %144 to i64, !dbg !6087
	%146 = add i64  %137,  %145, !dbg !6087
	store i64  %146, i64* %..inline.addr.7, align 8, !tbaa !4637, !dbg !6087
	br label %L..inline.72188
L..inline.72188:
	%147 = load %struct._Z6FsGridIN7fsgrids9technicalELi2EE*, %struct._Z6FsGridIN7fsgrids9technicalELi2EE** %..inline.addr, align 8, !tbaa !4632, !dbg !6087
	%148 = bitcast %struct._Z6FsGridIN7fsgrids9technicalELi2EE*  %147 to i8*, !dbg !6087
	%149 = getelementptr i8, i8*  %148, i64 252, !dbg !6087
	%150 = bitcast i8*  %149 to i32*, !dbg !6087
	%151 = load i32, i32*  %150, align 4, !tbaa !4633, !dbg !6087
	%152 = icmp sle i32  %151, 1, !dbg !6087
	%153 = zext i1  %152 to i32, !dbg !6087
	%154 = trunc i32  %153 to i1, !dbg !6087
	%155 = load i64, i64* %..inline.addr.7, align 8, !tbaa !4637, !dbg !6087
	%156 = load i32, i32* %..inline.addr.1, align 4, !tbaa !4635, !dbg !6087
	%157 = sext i32  %156 to i64, !dbg !6087
	%158 = add i64  %157, 2, !dbg !6087
	%159 = add i64  %155,  %158, !dbg !6087
	%160 = select i1  %154, i64  %155, i64  %159, !dbg !6087
	%161 = getelementptr i8, i8*  %148, i64 744, !dbg !6088
	%162 = bitcast i8*  %161 to i8**, !dbg !6088
	%163 = load i8*, i8**  %162, align 8, !tbaa !4632, !dbg !6088
	%164 = mul i64  %160, 32, !dbg !6088
	%165 = getelementptr i8, i8*  %163, i64  %164, !dbg !6088
	%166 = bitcast %struct._ZN7fsgrids9technicalE** %..inline.addr.6 to i8**, !dbg !6088
	store i8*  %165, i8**  %166, align 8, !tbaa !4632, !dbg !6088
	br label %L..inline.72234
L..inline.72234:
	%167 = load %struct._ZN7fsgrids9technicalE*, %struct._ZN7fsgrids9technicalE** %..inline.addr.6, align 8, !tbaa !4632, !dbg !6089
	%168 = bitcast %struct._ZN7fsgrids9technicalE*  %167 to i32*, !dbg !6089
	%169 = load i32, i32*  %168, align 4, !tbaa !4633, !dbg !6089
	call void @llvm.dbg.declare (metadata i32* %cellSysBoundaryFlag.addr, metadata !6090, metadata !4571), !dbg !5796
	store i32  %169, i32* %cellSysBoundaryFlag.addr, align 4, !tbaa !4635, !dbg !6089
	%170 = icmp eq i32  %169, 0, !dbg !6091
	br i1  %170, label %L.R0003, label %L.B1358, !dbg !6091
L.B1358:
	%171 = load %struct._Z6FsGridIN7fsgrids9technicalELi2EE*, %struct._Z6FsGridIN7fsgrids9technicalELi2EE** %technicalGrid.addr, align 8, !tbaa !4632, !dbg !6092
	%172 = bitcast %struct._Z6FsGridIN7fsgrids9technicalELi2EE*  %171 to i8*, !dbg !6092
	%173 = bitcast %struct._Z6FsGridIN7fsgrids9technicalELi2EE** %..inline.addr.8 to i8**, !dbg !6092
	store i8*  %172, i8**  %173, align 8, !tbaa !4632, !dbg !6092
	%174 = load i32, i32* %i.addr, align 4, !tbaa !4635, !dbg !6092
	store i32  %174, i32* %..inline.addr.9, align 4, !tbaa !4635, !dbg !6092
	%175 = load i32, i32* %j.addr, align 4, !tbaa !4635, !dbg !6092
	store i32  %175, i32* %..inline.addr.270, align 4, !tbaa !4635, !dbg !6092
	%176 = load i32, i32* %k.addr, align 4, !tbaa !4635, !dbg !6092
	store i32  %176, i32* %..inline.addr.280, align 4, !tbaa !4635, !dbg !6092
	store i32 13, i32* %..inline.addr.290, align 4, !tbaa !4635, !dbg !6092
	%177 = bitcast [3 x i32]* %..inline.addr.300 to i32*, !dbg !6066
	store i32 0, i32*  %177, align 4, !tbaa !4633, !dbg !6066
	%178 = bitcast [3 x i32]* %..inline.addr.300 to i8*, !dbg !6067
	%179 = getelementptr i8, i8*  %178, i64 4, !dbg !6067
	%180 = bitcast i8*  %179 to i32*, !dbg !6067
	store i32 0, i32*  %180, align 4, !tbaa !4633, !dbg !6067
	%181 = getelementptr i8, i8*  %178, i64 8, !dbg !6067
	%182 = bitcast i8*  %181 to i32*, !dbg !6067
	store i32 0, i32*  %182, align 4, !tbaa !4633, !dbg !6067
	%183 = icmp sge i32  %174, 0, !dbg !6067
	br i1  %183, label %L..inline.72240, label %L.B1359, !dbg !6067
L.B1359:
	store i32 4, i32* %..inline.addr.290, align 4, !tbaa !4635, !dbg !6068
	%184 = bitcast [3 x i32]* %..inline.addr.300 to i32*, !dbg !6069
	store i32 1, i32*  %184, align 4, !tbaa !4633, !dbg !6069
	br label %L..inline.72240
L..inline.72240:
	%185 = load i32, i32* %..inline.addr.9, align 4, !tbaa !4635, !dbg !6070
	%186 = load %struct._Z6FsGridIN7fsgrids9technicalELi2EE*, %struct._Z6FsGridIN7fsgrids9technicalELi2EE** %..inline.addr.8, align 8, !tbaa !4632, !dbg !6070
	%187 = bitcast %struct._Z6FsGridIN7fsgrids9technicalELi2EE*  %186 to i8*, !dbg !6070
	%188 = getelementptr i8, i8*  %187, i64 264, !dbg !6070
	%189 = bitcast i8*  %188 to i32*, !dbg !6070
	%190 = load i32, i32*  %189, align 4, !tbaa !4633, !dbg !6070
	%191 = icmp slt i32  %185,  %190, !dbg !6070
	br i1  %191, label %L..inline.72258, label %L.B1360, !dbg !6070
L.B1360:
	%192 = load i32, i32* %..inline.addr.290, align 4, !tbaa !4635, !dbg !6070
	%193 = add i32  %192, 9, !dbg !6070
	store i32  %193, i32* %..inline.addr.290, align 4, !tbaa !4635, !dbg !6070
	%194 = bitcast [3 x i32]* %..inline.addr.300 to i32*, !dbg !6071
	store i32 -1, i32*  %194, align 4, !tbaa !4633, !dbg !6071
	br label %L..inline.72258
L..inline.72258:
	%195 = load i32, i32* %..inline.addr.270, align 4, !tbaa !4635, !dbg !6072
	%196 = icmp sge i32  %195, 0, !dbg !6072
	br i1  %196, label %L..inline.72260, label %L.B1361, !dbg !6072
L.B1361:
	%197 = load i32, i32* %..inline.addr.290, align 4, !tbaa !4635, !dbg !6072
	%198 = sub i32  %197, 3, !dbg !6072
	store i32  %198, i32* %..inline.addr.290, align 4, !tbaa !4635, !dbg !6072
	%199 = bitcast [3 x i32]* %..inline.addr.300 to i8*, !dbg !6073
	%200 = getelementptr i8, i8*  %199, i64 4, !dbg !6073
	%201 = bitcast i8*  %200 to i32*, !dbg !6073
	store i32 1, i32*  %201, align 4, !tbaa !4633, !dbg !6073
	br label %L..inline.72260
L..inline.72260:
	%202 = load i32, i32* %..inline.addr.270, align 4, !tbaa !4635, !dbg !6074
	%203 = load %struct._Z6FsGridIN7fsgrids9technicalELi2EE*, %struct._Z6FsGridIN7fsgrids9technicalELi2EE** %..inline.addr.8, align 8, !tbaa !4632, !dbg !6074
	%204 = bitcast %struct._Z6FsGridIN7fsgrids9technicalELi2EE*  %203 to i8*, !dbg !6074
	%205 = getelementptr i8, i8*  %204, i64 268, !dbg !6074
	%206 = bitcast i8*  %205 to i32*, !dbg !6074
	%207 = load i32, i32*  %206, align 4, !tbaa !4633, !dbg !6074
	%208 = icmp slt i32  %202,  %207, !dbg !6074
	br i1  %208, label %L..inline.72277, label %L.B1362, !dbg !6074
L.B1362:
	%209 = load i32, i32* %..inline.addr.290, align 4, !tbaa !4635, !dbg !6074
	%210 = add i32  %209, 3, !dbg !6074
	store i32  %210, i32* %..inline.addr.290, align 4, !tbaa !4635, !dbg !6074
	%211 = bitcast [3 x i32]* %..inline.addr.300 to i8*, !dbg !6075
	%212 = getelementptr i8, i8*  %211, i64 4, !dbg !6075
	%213 = bitcast i8*  %212 to i32*, !dbg !6075
	store i32 -1, i32*  %213, align 4, !tbaa !4633, !dbg !6075
	br label %L..inline.72277
L..inline.72277:
	%214 = load i32, i32* %..inline.addr.280, align 4, !tbaa !4635, !dbg !6076
	%215 = icmp sge i32  %214, 0, !dbg !6076
	br i1  %215, label %L..inline.72279, label %L.B1363, !dbg !6076
L.B1363:
	%216 = load i32, i32* %..inline.addr.290, align 4, !tbaa !4635, !dbg !6076
	%217 = sub i32  %216, 1, !dbg !6076
	store i32  %217, i32* %..inline.addr.290, align 4, !tbaa !4635, !dbg !6076
	%218 = bitcast [3 x i32]* %..inline.addr.300 to i8*, !dbg !6077
	%219 = getelementptr i8, i8*  %218, i64 8, !dbg !6077
	%220 = bitcast i8*  %219 to i32*, !dbg !6077
	store i32 1, i32*  %220, align 4, !tbaa !4633, !dbg !6077
	br label %L..inline.72279
L..inline.72279:
	%221 = load i32, i32* %..inline.addr.280, align 4, !tbaa !4635, !dbg !6078
	%222 = load %struct._Z6FsGridIN7fsgrids9technicalELi2EE*, %struct._Z6FsGridIN7fsgrids9technicalELi2EE** %..inline.addr.8, align 8, !tbaa !4632, !dbg !6078
	%223 = bitcast %struct._Z6FsGridIN7fsgrids9technicalELi2EE*  %222 to i8*, !dbg !6078
	%224 = getelementptr i8, i8*  %223, i64 272, !dbg !6078
	%225 = bitcast i8*  %224 to i32*, !dbg !6078
	%226 = load i32, i32*  %225, align 4, !tbaa !4633, !dbg !6078
	%227 = icmp slt i32  %221,  %226, !dbg !6078
	br i1  %227, label %L..inline.72296, label %L.B1364, !dbg !6078
L.B1364:
	%228 = load i32, i32* %..inline.addr.290, align 4, !tbaa !4635, !dbg !6078
	%229 = add i32  %228, 1, !dbg !6078
	store i32  %229, i32* %..inline.addr.290, align 4, !tbaa !4635, !dbg !6078
	%230 = bitcast [3 x i32]* %..inline.addr.300 to i8*, !dbg !6079
	%231 = getelementptr i8, i8*  %230, i64 8, !dbg !6079
	%232 = bitcast i8*  %231 to i32*, !dbg !6079
	store i32 -1, i32*  %232, align 4, !tbaa !4633, !dbg !6079
	br label %L..inline.72296
L..inline.72296:
	%233 = load i32, i32* %..inline.addr.290, align 4, !tbaa !4635, !dbg !6080
	%234 = icmp eq i32  %233, 13, !dbg !6080
	br i1  %234, label %L..inline.72297, label %L.B1365, !dbg !6080
L.B1365:
	%235 = sext i32  %233 to i64, !dbg !6081
	%236 = load %struct._Z6FsGridIN7fsgrids9technicalELi2EE*, %struct._Z6FsGridIN7fsgrids9technicalELi2EE** %..inline.addr.8, align 8, !tbaa !4632, !dbg !6081
	%237 = bitcast %struct._Z6FsGridIN7fsgrids9technicalELi2EE*  %236 to i8*, !dbg !6081
	%238 = getelementptr i8, i8*  %237, i64 92, !dbg !6081
	%239 = bitcast i8*  %238 to i32*, !dbg !6081
	%240 = getelementptr i32, i32*  %239, i64  %235, !dbg !6081
	%241 = load i32, i32*  %240, align 4, !tbaa !4633, !dbg !6081
	%242 = icmp ne i32  %241, -2, !dbg !6081
	br i1  %242, label %L..inline.72314, label %L.B1366, !dbg !6081
L.B1366:
	%243 = bitcast %struct._ZN7fsgrids9technicalE** %..inline.addr.310 to i8**, !dbg !6081
	store i8* null, i8**  %243, align 8, !tbaa !4632, !dbg !6081
	br label %L..inline.72501, !dbg !6082
L..inline.72314:
	%244 = load i32, i32* %..inline.addr.290, align 4, !tbaa !4635, !dbg !6083
	%245 = sext i32  %244 to i64, !dbg !6083
	%246 = load %struct._Z6FsGridIN7fsgrids9technicalELi2EE*, %struct._Z6FsGridIN7fsgrids9technicalELi2EE** %..inline.addr.8, align 8, !tbaa !4632, !dbg !6083
	%247 = bitcast %struct._Z6FsGridIN7fsgrids9technicalELi2EE*  %246 to i8*, !dbg !6083
	%248 = getelementptr i8, i8*  %247, i64 92, !dbg !6083
	%249 = bitcast i8*  %248 to i32*, !dbg !6083
	%250 = getelementptr i32, i32*  %249, i64  %245, !dbg !6083
	%251 = load i32, i32*  %250, align 4, !tbaa !4633, !dbg !6083
	%252 = getelementptr i8, i8*  %247, i64 56, !dbg !6083
	%253 = bitcast i8*  %252 to i32*, !dbg !6083
	%254 = load i32, i32*  %253, align 4, !tbaa !4633, !dbg !6083
	%255 = icmp ne i32  %251,  %254, !dbg !6083
	br i1  %255, label %L..inline.72332, label %L.B1367, !dbg !6083
L.B1367:
	%256 = load i32, i32* %..inline.addr.9, align 4, !tbaa !4635, !dbg !6084
	%257 = bitcast [3 x i32]* %..inline.addr.300 to i32*, !dbg !6084
	%258 = load i32, i32*  %257, align 4, !tbaa !4633, !dbg !6084
	%259 = bitcast %struct._Z6FsGridIN7fsgrids9technicalELi2EE*  %246 to i8*, !dbg !6084
	%260 = getelementptr i8, i8*  %259, i64 264, !dbg !6084
	%261 = bitcast i8*  %260 to i32*, !dbg !6084
	%262 = load i32, i32*  %261, align 4, !tbaa !4633, !dbg !6084
	%263 = mul i32  %258,  %262, !dbg !6084
	%264 = add i32  %256,  %263, !dbg !6084
	store i32  %264, i32* %..inline.addr.9, align 4, !tbaa !4635, !dbg !6084
	%265 = load i32, i32* %..inline.addr.270, align 4, !tbaa !4635, !dbg !6085
	%266 = bitcast [3 x i32]* %..inline.addr.300 to i8*, !dbg !6085
	%267 = getelementptr i8, i8*  %266, i64 4, !dbg !6085
	%268 = bitcast i8*  %267 to i32*, !dbg !6085
	%269 = load i32, i32*  %268, align 4, !tbaa !4633, !dbg !6085
	%270 = getelementptr i8, i8*  %259, i64 268, !dbg !6085
	%271 = bitcast i8*  %270 to i32*, !dbg !6085
	%272 = load i32, i32*  %271, align 4, !tbaa !4633, !dbg !6085
	%273 = mul i32  %269,  %272, !dbg !6085
	%274 = add i32  %265,  %273, !dbg !6085
	store i32  %274, i32* %..inline.addr.270, align 4, !tbaa !4635, !dbg !6085
	%275 = load i32, i32* %..inline.addr.280, align 4, !tbaa !4635, !dbg !6086
	%276 = getelementptr i8, i8*  %266, i64 8, !dbg !6086
	%277 = bitcast i8*  %276 to i32*, !dbg !6086
	%278 = load i32, i32*  %277, align 4, !tbaa !4633, !dbg !6086
	%279 = getelementptr i8, i8*  %259, i64 272, !dbg !6086
	%280 = bitcast i8*  %279 to i32*, !dbg !6086
	%281 = load i32, i32*  %280, align 4, !tbaa !4633, !dbg !6086
	%282 = mul i32  %278,  %281, !dbg !6086
	%283 = add i32  %275,  %282, !dbg !6086
	store i32  %283, i32* %..inline.addr.280, align 4, !tbaa !4635, !dbg !6086
	br label %L..inline.72332
L..inline.72332:
	br label %L..inline.72297
L..inline.72297:
	store i64 0, i64* %..inline.addr.320, align 8, !tbaa !4637, !dbg !6087
	%284 = load %struct._Z6FsGridIN7fsgrids9technicalELi2EE*, %struct._Z6FsGridIN7fsgrids9technicalELi2EE** %..inline.addr.8, align 8, !tbaa !4632, !dbg !6087
	%285 = bitcast %struct._Z6FsGridIN7fsgrids9technicalELi2EE*  %284 to i8*, !dbg !6087
	%286 = getelementptr i8, i8*  %285, i64 260, !dbg !6087
	%287 = bitcast i8*  %286 to i32*, !dbg !6087
	%288 = load i32, i32*  %287, align 4, !tbaa !4633, !dbg !6087
	%289 = icmp sle i32  %288, 1, !dbg !6087
	br i1  %289, label %L..inline.72406, label %L.B1368, !dbg !6087
L.B1368:
	%290 = load i32, i32* %..inline.addr.280, align 4, !tbaa !4635, !dbg !6087
	%291 = add i32  %290, 2, !dbg !6087
	%292 = bitcast %struct._Z6FsGridIN7fsgrids9technicalELi2EE*  %284 to i8*, !dbg !6087
	%293 = getelementptr i8, i8*  %292, i64 280, !dbg !6087
	%294 = bitcast i8*  %293 to i32*, !dbg !6087
	%295 = load i32, i32*  %294, align 4, !tbaa !4633, !dbg !6087
	%296 = getelementptr i8, i8*  %292, i64 276, !dbg !6087
	%297 = bitcast i8*  %296 to i32*, !dbg !6087
	%298 = load i32, i32*  %297, align 4, !tbaa !4633, !dbg !6087
	%299 = mul i32  %295,  %298, !dbg !6087
	%300 = mul i32  %291,  %299, !dbg !6087
	%301 = sext i32  %300 to i64, !dbg !6087
	store i64  %301, i64* %..inline.addr.320, align 8, !tbaa !4637, !dbg !6087
	br label %L..inline.72406
L..inline.72406:
	%302 = load %struct._Z6FsGridIN7fsgrids9technicalELi2EE*, %struct._Z6FsGridIN7fsgrids9technicalELi2EE** %..inline.addr.8, align 8, !tbaa !4632, !dbg !6087
	%303 = bitcast %struct._Z6FsGridIN7fsgrids9technicalELi2EE*  %302 to i8*, !dbg !6087
	%304 = getelementptr i8, i8*  %303, i64 256, !dbg !6087
	%305 = bitcast i8*  %304 to i32*, !dbg !6087
	%306 = load i32, i32*  %305, align 4, !tbaa !4633, !dbg !6087
	%307 = icmp sle i32  %306, 1, !dbg !6087
	br i1  %307, label %L..inline.72455, label %L.B1369, !dbg !6087
L.B1369:
	%308 = load i64, i64* %..inline.addr.320, align 8, !tbaa !4637, !dbg !6087
	%309 = bitcast %struct._Z6FsGridIN7fsgrids9technicalELi2EE*  %302 to i8*, !dbg !6087
	%310 = getelementptr i8, i8*  %309, i64 276, !dbg !6087
	%311 = bitcast i8*  %310 to i32*, !dbg !6087
	%312 = load i32, i32*  %311, align 4, !tbaa !4633, !dbg !6087
	%313 = load i32, i32* %..inline.addr.270, align 4, !tbaa !4635, !dbg !6087
	%314 = add i32  %313, 2, !dbg !6087
	%315 = mul i32  %312,  %314, !dbg !6087
	%316 = sext i32  %315 to i64, !dbg !6087
	%317 = add i64  %308,  %316, !dbg !6087
	store i64  %317, i64* %..inline.addr.320, align 8, !tbaa !4637, !dbg !6087
	br label %L..inline.72455
L..inline.72455:
	%318 = load %struct._Z6FsGridIN7fsgrids9technicalELi2EE*, %struct._Z6FsGridIN7fsgrids9technicalELi2EE** %..inline.addr.8, align 8, !tbaa !4632, !dbg !6087
	%319 = bitcast %struct._Z6FsGridIN7fsgrids9technicalELi2EE*  %318 to i8*, !dbg !6087
	%320 = getelementptr i8, i8*  %319, i64 252, !dbg !6087
	%321 = bitcast i8*  %320 to i32*, !dbg !6087
	%322 = load i32, i32*  %321, align 4, !tbaa !4633, !dbg !6087
	%323 = icmp sle i32  %322, 1, !dbg !6087
	%324 = zext i1  %323 to i32, !dbg !6087
	%325 = trunc i32  %324 to i1, !dbg !6087
	%326 = load i64, i64* %..inline.addr.320, align 8, !tbaa !4637, !dbg !6087
	%327 = load i32, i32* %..inline.addr.9, align 4, !tbaa !4635, !dbg !6087
	%328 = sext i32  %327 to i64, !dbg !6087
	%329 = add i64  %328, 2, !dbg !6087
	%330 = add i64  %326,  %329, !dbg !6087
	%331 = select i1  %325, i64  %326, i64  %330, !dbg !6087
	%332 = getelementptr i8, i8*  %319, i64 744, !dbg !6088
	%333 = bitcast i8*  %332 to i8**, !dbg !6088
	%334 = load i8*, i8**  %333, align 8, !tbaa !4632, !dbg !6088
	%335 = mul i64  %331, 32, !dbg !6088
	%336 = getelementptr i8, i8*  %334, i64  %335, !dbg !6088
	%337 = bitcast %struct._ZN7fsgrids9technicalE** %..inline.addr.310 to i8**, !dbg !6088
	store i8*  %336, i8**  %337, align 8, !tbaa !4632, !dbg !6088
	br label %L..inline.72501
L..inline.72501:
	%338 = load i32, i32* %cellSysBoundaryFlag.addr, align 4, !tbaa !4635, !dbg !6093
	%339 = icmp eq i32  %338, 1, !dbg !6093
	br i1  %339, label %L.B0019, label %L.B1370, !dbg !6093
L.B1370:
	%340 = load %struct._ZN7fsgrids9technicalE*, %struct._ZN7fsgrids9technicalE** %..inline.addr.310, align 8, !tbaa !4632, !dbg !6093
	%341 = bitcast %struct._ZN7fsgrids9technicalE*  %340 to i8*, !dbg !6093
	%342 = getelementptr i8, i8*  %341, i64 4, !dbg !6093
	%343 = bitcast i8*  %342 to i32*, !dbg !6093
	%344 = load i32, i32*  %343, align 4, !tbaa !4633, !dbg !6093
	%345 = icmp eq i32  %344, 1, !dbg !6093
	br i1  %345, label %L.B0019, label %L.B1371, !dbg !6093
L.B1371:
	%346 = load %struct.SysBoundary*, %struct.SysBoundary** %sysBoundaries.addr, align 8, !tbaa !4632, !dbg !6094
	%347 = call %struct._ZN3SBC20SysBoundaryConditionE*  @_ZNK11SysBoundary14getSysBoundaryEj (%struct.SysBoundary*  %346, i32  %338), !dbg !6094
	%348 = bitcast %struct._ZN3SBC20SysBoundaryConditionE*  %347 to i8*, !dbg !6094
	%349 = bitcast %struct._ZN3SBC20SysBoundaryConditionE** %.Q0027.addr to i8**, !dbg !6094
	store i8*  %348, i8**  %349, align 8, !tbaa !4632, !dbg !6094
	%350 = load %struct._ZN3SBC20SysBoundaryConditionE*, %struct._ZN3SBC20SysBoundaryConditionE** %.Q0027.addr, align 8, !tbaa !4632, !dbg !6094
	%351 = bitcast %struct._ZN3SBC20SysBoundaryConditionE*  %350 to i8*, !dbg !6094
	%352 = bitcast %struct._ZN3SBC20SysBoundaryConditionE** %_T18157808_50933.addr to i8**, !dbg !6094
	store i8*  %351, i8**  %352, align 8, !tbaa !4632, !dbg !6094
	%353 = load %struct._ZN3SBC20SysBoundaryConditionE*, %struct._ZN3SBC20SysBoundaryConditionE** %_T18157808_50933.addr, align 8, !tbaa !4632, !dbg !6094
	%354 = load %struct._Z6FsGridISt5arrayIdLm3EELi2EE*, %struct._Z6FsGridISt5arrayIdLm3EELi2EE** %EGradPeGrid.addr, align 8, !tbaa !4632, !dbg !6094
	%355 = load i32, i32* %i.addr, align 4, !tbaa !4635, !dbg !6094
	%356 = load i32, i32* %j.addr, align 4, !tbaa !4635, !dbg !6094
	%357 = load i32, i32* %k.addr, align 4, !tbaa !4635, !dbg !6094
	%358 = bitcast %struct._ZN3SBC20SysBoundaryConditionE*  %353 to i8**, !dbg !6094
	%359 = load i8*, i8**  %358, align 8, !tbaa !4632, !dbg !6094
	%360 = getelementptr i8, i8*  %359, i64 72, !dbg !6094
	%361 = bitcast i8*  %360 to void (%struct._ZN3SBC20SysBoundaryConditionE*, %struct._Z6FsGridISt5arrayIdLm3EELi2EE*, i32, i32, i32, i32)**, !dbg !6094
	%362 = load void (%struct._ZN3SBC20SysBoundaryConditionE*, %struct._Z6FsGridISt5arrayIdLm3EELi2EE*, i32, i32, i32, i32)*, void (%struct._ZN3SBC20SysBoundaryConditionE*, %struct._Z6FsGridISt5arrayIdLm3EELi2EE*, i32, i32, i32, i32)**  %361, align 8, !tbaa !4632, !dbg !6094
	call void  %362 (%struct._ZN3SBC20SysBoundaryConditionE*  %353, %struct._Z6FsGridISt5arrayIdLm3EELi2EE*  %354, i32  %355, i32  %356, i32  %357, i32 0), !dbg !6094
	%363 = load %struct.SysBoundary*, %struct.SysBoundary** %sysBoundaries.addr, align 8, !tbaa !4632, !dbg !6095
	%364 = load i32, i32* %cellSysBoundaryFlag.addr, align 4, !tbaa !4635, !dbg !6095
	%365 = call %struct._ZN3SBC20SysBoundaryConditionE*  @_ZNK11SysBoundary14getSysBoundaryEj (%struct.SysBoundary*  %363, i32  %364), !dbg !6095
	%366 = bitcast %struct._ZN3SBC20SysBoundaryConditionE*  %365 to i8*, !dbg !6095
	%367 = bitcast %struct._ZN3SBC20SysBoundaryConditionE** %.Q0028.addr to i8**, !dbg !6095
	store i8*  %366, i8**  %367, align 8, !tbaa !4632, !dbg !6095
	%368 = load %struct._ZN3SBC20SysBoundaryConditionE*, %struct._ZN3SBC20SysBoundaryConditionE** %.Q0028.addr, align 8, !tbaa !4632, !dbg !6095
	%369 = bitcast %struct._ZN3SBC20SysBoundaryConditionE*  %368 to i8*, !dbg !6095
	%370 = bitcast %struct._ZN3SBC20SysBoundaryConditionE** %_T18158104_50933.addr to i8**, !dbg !6095
	store i8*  %369, i8**  %370, align 8, !tbaa !4632, !dbg !6095
	%371 = load %struct._ZN3SBC20SysBoundaryConditionE*, %struct._ZN3SBC20SysBoundaryConditionE** %_T18158104_50933.addr, align 8, !tbaa !4632, !dbg !6095
	%372 = load %struct._Z6FsGridISt5arrayIdLm3EELi2EE*, %struct._Z6FsGridISt5arrayIdLm3EELi2EE** %EGradPeGrid.addr, align 8, !tbaa !4632, !dbg !6095
	%373 = load i32, i32* %i.addr, align 4, !tbaa !4635, !dbg !6095
	%374 = load i32, i32* %j.addr, align 4, !tbaa !4635, !dbg !6095
	%375 = load i32, i32* %k.addr, align 4, !tbaa !4635, !dbg !6095
	%376 = bitcast %struct._ZN3SBC20SysBoundaryConditionE*  %371 to i8**, !dbg !6095
	%377 = load i8*, i8**  %376, align 8, !tbaa !4632, !dbg !6095
	%378 = getelementptr i8, i8*  %377, i64 72, !dbg !6095
	%379 = bitcast i8*  %378 to void (%struct._ZN3SBC20SysBoundaryConditionE*, %struct._Z6FsGridISt5arrayIdLm3EELi2EE*, i32, i32, i32, i32)**, !dbg !6095
	%380 = load void (%struct._ZN3SBC20SysBoundaryConditionE*, %struct._Z6FsGridISt5arrayIdLm3EELi2EE*, i32, i32, i32, i32)*, void (%struct._ZN3SBC20SysBoundaryConditionE*, %struct._Z6FsGridISt5arrayIdLm3EELi2EE*, i32, i32, i32, i32)**  %379, align 8, !tbaa !4632, !dbg !6095
	call void  %380 (%struct._ZN3SBC20SysBoundaryConditionE*  %371, %struct._Z6FsGridISt5arrayIdLm3EELi2EE*  %372, i32  %373, i32  %374, i32  %375, i32 1), !dbg !6095
	%381 = load %struct.SysBoundary*, %struct.SysBoundary** %sysBoundaries.addr, align 8, !tbaa !4632, !dbg !6096
	%382 = load i32, i32* %cellSysBoundaryFlag.addr, align 4, !tbaa !4635, !dbg !6096
	%383 = call %struct._ZN3SBC20SysBoundaryConditionE*  @_ZNK11SysBoundary14getSysBoundaryEj (%struct.SysBoundary*  %381, i32  %382), !dbg !6096
	%384 = bitcast %struct._ZN3SBC20SysBoundaryConditionE*  %383 to i8*, !dbg !6096
	%385 = bitcast %struct._ZN3SBC20SysBoundaryConditionE** %.Q0029.addr to i8**, !dbg !6096
	store i8*  %384, i8**  %385, align 8, !tbaa !4632, !dbg !6096
	%386 = load %struct._ZN3SBC20SysBoundaryConditionE*, %struct._ZN3SBC20SysBoundaryConditionE** %.Q0029.addr, align 8, !tbaa !4632, !dbg !6096
	%387 = bitcast %struct._ZN3SBC20SysBoundaryConditionE*  %386 to i8*, !dbg !6096
	%388 = bitcast %struct._ZN3SBC20SysBoundaryConditionE** %_T18158400_50933.addr to i8**, !dbg !6096
	store i8*  %387, i8**  %388, align 8, !tbaa !4632, !dbg !6096
	%389 = load %struct._ZN3SBC20SysBoundaryConditionE*, %struct._ZN3SBC20SysBoundaryConditionE** %_T18158400_50933.addr, align 8, !tbaa !4632, !dbg !6096
	%390 = load %struct._Z6FsGridISt5arrayIdLm3EELi2EE*, %struct._Z6FsGridISt5arrayIdLm3EELi2EE** %EGradPeGrid.addr, align 8, !tbaa !4632, !dbg !6096
	%391 = load i32, i32* %i.addr, align 4, !tbaa !4635, !dbg !6096
	%392 = load i32, i32* %j.addr, align 4, !tbaa !4635, !dbg !6096
	%393 = load i32, i32* %k.addr, align 4, !tbaa !4635, !dbg !6096
	%394 = bitcast %struct._ZN3SBC20SysBoundaryConditionE*  %389 to i8**, !dbg !6096
	%395 = load i8*, i8**  %394, align 8, !tbaa !4632, !dbg !6096
	%396 = getelementptr i8, i8*  %395, i64 72, !dbg !6096
	%397 = bitcast i8*  %396 to void (%struct._ZN3SBC20SysBoundaryConditionE*, %struct._Z6FsGridISt5arrayIdLm3EELi2EE*, i32, i32, i32, i32)**, !dbg !6096
	%398 = load void (%struct._ZN3SBC20SysBoundaryConditionE*, %struct._Z6FsGridISt5arrayIdLm3EELi2EE*, i32, i32, i32, i32)*, void (%struct._ZN3SBC20SysBoundaryConditionE*, %struct._Z6FsGridISt5arrayIdLm3EELi2EE*, i32, i32, i32, i32)**  %397, align 8, !tbaa !4632, !dbg !6096
	call void  %398 (%struct._ZN3SBC20SysBoundaryConditionE*  %389, %struct._Z6FsGridISt5arrayIdLm3EELi2EE*  %390, i32  %391, i32  %392, i32  %393, i32 2), !dbg !6096
	br label %L.B0022, !dbg !6097
L.B0019:
	%399 = load %struct._Z6FsGridISt5arrayIdLm3EELi2EE*, %struct._Z6FsGridISt5arrayIdLm3EELi2EE** %EGradPeGrid.addr, align 8, !tbaa !4632, !dbg !6098
	%400 = load %struct._Z6FsGridISt5arrayIdLm8EELi2EE*, %struct._Z6FsGridISt5arrayIdLm8EELi2EE** %momentsGrid.addr, align 8, !tbaa !4632, !dbg !6098
	%401 = load %struct._Z6FsGridISt5arrayIdLm24EELi2EE*, %struct._Z6FsGridISt5arrayIdLm24EELi2EE** %dMomentsGrid.addr, align 8, !tbaa !4632, !dbg !6098
	%402 = load i32, i32* %i.addr, align 4, !tbaa !4635, !dbg !6098
	%403 = load i32, i32* %j.addr, align 4, !tbaa !4635, !dbg !6098
	%404 = load i32, i32* %k.addr, align 4, !tbaa !4635, !dbg !6098
	call void  @_Z34calculateEdgeGradPeTermXComponentsR6FsGridISt5arrayIdLm3EELi2EERS_IS0_IdLm8EELi2EERS_IS0_IdLm24EELi2EEiii (%struct._Z6FsGridISt5arrayIdLm3EELi2EE*  %399, %struct._Z6FsGridISt5arrayIdLm8EELi2EE*  %400, %struct._Z6FsGridISt5arrayIdLm24EELi2EE*  %401, i32  %402, i32  %403, i32  %404), !dbg !6098
	%405 = load %struct._Z6FsGridISt5arrayIdLm3EELi2EE*, %struct._Z6FsGridISt5arrayIdLm3EELi2EE** %EGradPeGrid.addr, align 8, !tbaa !4632, !dbg !6099
	%406 = load %struct._Z6FsGridISt5arrayIdLm8EELi2EE*, %struct._Z6FsGridISt5arrayIdLm8EELi2EE** %momentsGrid.addr, align 8, !tbaa !4632, !dbg !6099
	%407 = load %struct._Z6FsGridISt5arrayIdLm24EELi2EE*, %struct._Z6FsGridISt5arrayIdLm24EELi2EE** %dMomentsGrid.addr, align 8, !tbaa !4632, !dbg !6099
	%408 = load i32, i32* %i.addr, align 4, !tbaa !4635, !dbg !6099
	%409 = load i32, i32* %j.addr, align 4, !tbaa !4635, !dbg !6099
	%410 = load i32, i32* %k.addr, align 4, !tbaa !4635, !dbg !6099
	call void  @_Z34calculateEdgeGradPeTermYComponentsR6FsGridISt5arrayIdLm3EELi2EERS_IS0_IdLm8EELi2EERS_IS0_IdLm24EELi2EEiii (%struct._Z6FsGridISt5arrayIdLm3EELi2EE*  %405, %struct._Z6FsGridISt5arrayIdLm8EELi2EE*  %406, %struct._Z6FsGridISt5arrayIdLm24EELi2EE*  %407, i32  %408, i32  %409, i32  %410), !dbg !6099
	%411 = load %struct._Z6FsGridISt5arrayIdLm3EELi2EE*, %struct._Z6FsGridISt5arrayIdLm3EELi2EE** %EGradPeGrid.addr, align 8, !tbaa !4632, !dbg !6100
	%412 = load %struct._Z6FsGridISt5arrayIdLm8EELi2EE*, %struct._Z6FsGridISt5arrayIdLm8EELi2EE** %momentsGrid.addr, align 8, !tbaa !4632, !dbg !6100
	%413 = load %struct._Z6FsGridISt5arrayIdLm24EELi2EE*, %struct._Z6FsGridISt5arrayIdLm24EELi2EE** %dMomentsGrid.addr, align 8, !tbaa !4632, !dbg !6100
	%414 = load i32, i32* %i.addr, align 4, !tbaa !4635, !dbg !6100
	%415 = load i32, i32* %j.addr, align 4, !tbaa !4635, !dbg !6100
	%416 = load i32, i32* %k.addr, align 4, !tbaa !4635, !dbg !6100
	call void  @_Z34calculateEdgeGradPeTermZComponentsR6FsGridISt5arrayIdLm3EELi2EERS_IS0_IdLm8EELi2EERS_IS0_IdLm24EELi2EEiii (%struct._Z6FsGridISt5arrayIdLm3EELi2EE*  %411, %struct._Z6FsGridISt5arrayIdLm8EELi2EE*  %412, %struct._Z6FsGridISt5arrayIdLm24EELi2EE*  %413, i32  %414, i32  %415, i32  %416), !dbg !6100
	br label %L.B0022
L.B0022:
	br label %L.R0003
L.R0003:
	ret void, !dbg !6101
}

%struct._ZSt26random_access_iterator_tag = type <{ [1 x i8]}> 
%struct._ZSaIcE = type <{ [1 x i8]}> 
%astruct.dt64 = type <{ i8*, i32}> 

