; ModuleID = 'fieldsolver/ldz_volume.cpp'
target datalayout = "e-p:64:64-i64:64-f80:128-n8:16:32:64-S128"
target triple = "x86_64-pc-linux-gnu"
define internal void @pgCplus_compiled.() noinline {
L.entry:
	ret void
}

%struct._ZNSt12_Vector_baseISt5arrayIdLm12EESaIS1_EE12_Vector_implE = type <{ %struct._ZNSt12_Vector_baseISt5arrayIdLm12EESaIS1_EE17_Vector_impl_dataE}> 
%struct._ZSt6vectorIN7fsgrids9technicalESaIS1_EE = type <{ %struct._ZSt12_Vector_baseIN7fsgrids9technicalESaIS1_EE}> 
%struct._ZNSt12_Vector_baseISt5arrayIdLm3EESaIS1_EE12_Vector_implE = type <{ %struct._ZNSt12_Vector_baseISt5arrayIdLm3EESaIS1_EE17_Vector_impl_dataE}> 
%struct._ZNSt12_Vector_baseIP14ompi_request_tSaIS1_EE17_Vector_impl_dataE = type <{ %struct.ompi_request_t**, %struct.ompi_request_t**, %struct.ompi_request_t**}> 
%astruct.dt64 = type <{ i8*, i32}> 
%struct._ZNSt12_Vector_baseIN7fsgrids9technicalESaIS1_EE17_Vector_impl_dataE = type <{ %struct._ZN7fsgrids9technicalE*, %struct._ZN7fsgrids9technicalE*, %struct._ZN7fsgrids9technicalE*}> 
%struct._ZSt5arrayIP15ompi_datatype_tLm27EE = type <{ [27 x %struct.ompi_datatype_t*]}> 
%struct._ZSt5arrayIdLm15EE = type <{ [15 x double]}> 
%struct._ZSt6vectorISt5arrayIdLm12EESaIS1_EE = type <{ %struct._ZSt12_Vector_baseISt5arrayIdLm12EESaIS1_EE}> 
%struct._ZNSt12_Vector_baseISt5arrayIdLm3EESaIS1_EE17_Vector_impl_dataE = type <{ %struct._ZSt5arrayIdLm3EE*, %struct._ZSt5arrayIdLm3EE*, %struct._ZSt5arrayIdLm3EE*}> 
%struct.ompi_request_t = type opaque
%struct._ZSt6vectorISt5arrayIdLm3EESaIS1_EE = type <{ %struct._ZSt12_Vector_baseISt5arrayIdLm3EESaIS1_EE}> 
%struct._ZSt12_Vector_baseIN7fsgrids9technicalESaIS1_EE = type <{ %struct._ZNSt12_Vector_baseIN7fsgrids9technicalESaIS1_EE12_Vector_implE}> 
%struct._ZSt12_Vector_baseISt5arrayIdLm3EESaIS1_EE = type <{ %struct._ZNSt12_Vector_baseISt5arrayIdLm3EESaIS1_EE12_Vector_implE}> 
%struct.ompi_communicator_t = type opaque
%struct._ZSt6vectorIP14ompi_request_tSaIS1_EE = type <{ %struct._ZSt12_Vector_baseIP14ompi_request_tSaIS1_EE}> 
%struct._Z6FsGridISt5arrayIdLm3EELi2EE = type <{ double, double, double, %struct._ZSt5arrayIdLm3EE, %struct.ompi_communicator_t*, i32, [4 x i8], %struct._ZSt6vectorIP14ompi_request_tSaIS1_EE, i32, %struct._ZSt5arrayIiLm27EE, %struct._ZSt6vectorIcSaIcEE, %struct._ZSt5arrayIiLm3EE, %struct._ZSt5arrayIiLm3EE, %struct._ZSt5arrayIbLm3EE, i8, %struct._ZSt5arrayIiLm3EE, %struct._ZSt5arrayIiLm3EE, %struct._ZSt5arrayIiLm3EE, %struct._ZSt5arrayIiLm3EE, [4 x i8], %struct.FsGridCouplingInformation*, %struct._ZSt5arrayIP15ompi_datatype_tLm27EE, %struct._ZSt5arrayIP15ompi_datatype_tLm27EE, %struct._ZSt6vectorISt5arrayIdLm3EESaIS1_EE}> 
%struct._ZSt5arrayIdLm3EE = type <{ [3 x double]}> 
%struct._ZNSt12_Vector_baseIiSaIiEE17_Vector_impl_dataE = type <{ i32*, i32*, i32*}> 
%struct._ZSt5arrayIiLm27EE = type <{ [27 x i32]}> 
%struct._ZSt6vectorIiSaIiEE = type <{ %struct._ZSt12_Vector_baseIiSaIiEE}> 
%struct._ZNSt12_Vector_baseISt5arrayIdLm15EESaIS1_EE12_Vector_implE = type <{ %struct._ZNSt12_Vector_baseISt5arrayIdLm15EESaIS1_EE17_Vector_impl_dataE}> 
%struct._ZSt5arrayIdLm12EE = type <{ [12 x double]}> 
%struct._ZSt12_Vector_baseIiSaIiEE = type <{ %struct._ZNSt12_Vector_baseIiSaIiEE12_Vector_implE}> 
%struct._ZNSt12_Vector_baseISt5arrayIdLm15EESaIS1_EE17_Vector_impl_dataE = type <{ %struct._ZSt5arrayIdLm15EE*, %struct._ZSt5arrayIdLm15EE*, %struct._ZSt5arrayIdLm15EE*}> 
%struct._ZNSt12_Vector_baseIP14ompi_request_tSaIS1_EE12_Vector_implE = type <{ %struct._ZNSt12_Vector_baseIP14ompi_request_tSaIS1_EE17_Vector_impl_dataE}> 
%struct._ZN7fsgrids9technicalE = type <{ i32, i32, double, i32, i32, i32, [4 x i8]}> 
%struct._ZSaIcE = type <{ [1 x i8]}> 
%struct._ZSt12_Vector_baseISt5arrayIdLm15EESaIS1_EE = type <{ %struct._ZNSt12_Vector_baseISt5arrayIdLm15EESaIS1_EE12_Vector_implE}> 
%struct._Z6FsGridISt5arrayIdLm12EELi2EE = type <{ double, double, double, %struct._ZSt5arrayIdLm3EE, %struct.ompi_communicator_t*, i32, [4 x i8], %struct._ZSt6vectorIP14ompi_request_tSaIS1_EE, i32, %struct._ZSt5arrayIiLm27EE, %struct._ZSt6vectorIcSaIcEE, %struct._ZSt5arrayIiLm3EE, %struct._ZSt5arrayIiLm3EE, %struct._ZSt5arrayIbLm3EE, i8, %struct._ZSt5arrayIiLm3EE, %struct._ZSt5arrayIiLm3EE, %struct._ZSt5arrayIiLm3EE, %struct._ZSt5arrayIiLm3EE, [4 x i8], %struct.FsGridCouplingInformation*, %struct._ZSt5arrayIP15ompi_datatype_tLm27EE, %struct._ZSt5arrayIP15ompi_datatype_tLm27EE, %struct._ZSt6vectorISt5arrayIdLm12EESaIS1_EE}> 
%struct._ZSt26random_access_iterator_tag = type <{ [1 x i8]}> 
%struct._ZNSt12_Vector_baseIcSaIcEE12_Vector_implE = type <{ %struct._ZNSt12_Vector_baseIcSaIcEE17_Vector_impl_dataE}> 
%struct._Z6FsGridIN7fsgrids9technicalELi2EE = type <{ double, double, double, %struct._ZSt5arrayIdLm3EE, %struct.ompi_communicator_t*, i32, [4 x i8], %struct._ZSt6vectorIP14ompi_request_tSaIS1_EE, i32, %struct._ZSt5arrayIiLm27EE, %struct._ZSt6vectorIcSaIcEE, %struct._ZSt5arrayIiLm3EE, %struct._ZSt5arrayIiLm3EE, %struct._ZSt5arrayIbLm3EE, i8, %struct._ZSt5arrayIiLm3EE, %struct._ZSt5arrayIiLm3EE, %struct._ZSt5arrayIiLm3EE, %struct._ZSt5arrayIiLm3EE, [4 x i8], %struct.FsGridCouplingInformation*, %struct._ZSt5arrayIP15ompi_datatype_tLm27EE, %struct._ZSt5arrayIP15ompi_datatype_tLm27EE, %struct._ZSt6vectorIN7fsgrids9technicalESaIS1_EE}> 
%struct.ompi_datatype_t = type opaque
%union.__C6 = type <{ [16 x i8]}> 
%struct._ZNSt12_Vector_baseISt5arrayIdLm12EESaIS1_EE17_Vector_impl_dataE = type <{ %struct._ZSt5arrayIdLm12EE*, %struct._ZSt5arrayIdLm12EE*, %struct._ZSt5arrayIdLm12EE*}> 
%struct._ZSt6vectorISt5arrayIdLm15EESaIS1_EE = type <{ %struct._ZSt12_Vector_baseISt5arrayIdLm15EESaIS1_EE}> 
%struct.FsGridCouplingInformation = type <{ %struct._ZSt6vectorIiSaIiEE}> 
%struct._ZNSt12_Vector_baseIcSaIcEE17_Vector_impl_dataE = type <{ i8*, i8*, i8*}> 
%struct._ZSt5arrayIbLm3EE = type <{ [3 x i8]}> 
%struct._ZSt12_Vector_baseIcSaIcEE = type <{ %struct._ZNSt12_Vector_baseIcSaIcEE12_Vector_implE}> 
%struct._Z6FsGridISt5arrayIdLm15EELi2EE = type <{ double, double, double, %struct._ZSt5arrayIdLm3EE, %struct.ompi_communicator_t*, i32, [4 x i8], %struct._ZSt6vectorIP14ompi_request_tSaIS1_EE, i32, %struct._ZSt5arrayIiLm27EE, %struct._ZSt6vectorIcSaIcEE, %struct._ZSt5arrayIiLm3EE, %struct._ZSt5arrayIiLm3EE, %struct._ZSt5arrayIbLm3EE, i8, %struct._ZSt5arrayIiLm3EE, %struct._ZSt5arrayIiLm3EE, %struct._ZSt5arrayIiLm3EE, %struct._ZSt5arrayIiLm3EE, [4 x i8], %struct.FsGridCouplingInformation*, %struct._ZSt5arrayIP15ompi_datatype_tLm27EE, %struct._ZSt5arrayIP15ompi_datatype_tLm27EE, %struct._ZSt6vectorISt5arrayIdLm15EESaIS1_EE}> 
%struct._ZNSt12_Vector_baseIN7fsgrids9technicalESaIS1_EE12_Vector_implE = type <{ %struct._ZNSt12_Vector_baseIN7fsgrids9technicalESaIS1_EE17_Vector_impl_dataE}> 
%struct._ZSt6vectorIcSaIcEE = type <{ %struct._ZSt12_Vector_baseIcSaIcEE}> 
%struct._ZSt12_Vector_baseISt5arrayIdLm12EESaIS1_EE = type <{ %struct._ZNSt12_Vector_baseISt5arrayIdLm12EESaIS1_EE12_Vector_implE}> 
%struct._ZSt12_Vector_baseIP14ompi_request_tSaIS1_EE = type <{ %struct._ZNSt12_Vector_baseIP14ompi_request_tSaIS1_EE12_Vector_implE}> 
%struct._ZNSt7__cxx1112basic_stringIcSt11char_traitsIcESaIcEE12_Alloc_hiderE = type <{ i8*}> 
%struct._ZSt5arrayIiLm3EE = type <{ [3 x i32]}> 
%struct._ZNSt7__cxx1112basic_stringIcSt11char_traitsIcESaIcEEE = type <{ %struct._ZNSt7__cxx1112basic_stringIcSt11char_traitsIcESaIcEE12_Alloc_hiderE, i64, %union.__C6}> 
%struct._ZNSt12_Vector_baseIiSaIiEE12_Vector_implE = type <{ %struct._ZNSt12_Vector_baseIiSaIiEE17_Vector_impl_dataE}> 



define void @_Z29calculateVolumeAveragedFieldsR6FsGridISt5arrayIdLm3EELi2EES3_RS_IS0_IdLm15EELi2EERS_IS0_IdLm12EELi2EERS_IN7fsgrids9technicalELi2EE(%struct._Z6FsGridISt5arrayIdLm3EELi2EE* %perBGrid.arg, %struct._Z6FsGridISt5arrayIdLm3EELi2EE* %EGrid.arg, %struct._Z6FsGridISt5arrayIdLm15EELi2EE* %dPerBGrid.arg, %struct._Z6FsGridISt5arrayIdLm12EELi2EE* %volGrid.arg, %struct._Z6FsGridIN7fsgrids9technicalELi2EE* %technicalGrid.arg) #0 personality i8* bitcast (i32 (...)* @__gxx_personality_v0 to i8*) !dbg !4046 {
L.entry:
	%perBGrid.addr = alloca %struct._Z6FsGridISt5arrayIdLm3EELi2EE*, align 8
	%EGrid.addr = alloca %struct._Z6FsGridISt5arrayIdLm3EELi2EE*, align 8
	%dPerBGrid.addr = alloca %struct._Z6FsGridISt5arrayIdLm15EELi2EE*, align 8
	%volGrid.addr = alloca %struct._Z6FsGridISt5arrayIdLm12EELi2EE*, align 8
	%technicalGrid.addr = alloca %struct._Z6FsGridIN7fsgrids9technicalELi2EE*, align 8
	%gridDims.addr = alloca i32*, align 8
	%N_cells.addr = alloca i64, align 8
	%_T25762160_50871.addr = alloca %struct._ZNSt7__cxx1112basic_stringIcSt11char_traitsIcESaIcEEE, align 8
	%..inline.addr = alloca i64, align 8
	%..inline.addr.1 = alloca i8*, align 8
	%..inline.addr.2 = alloca i8*, align 8
	%....inline.__FILL_CHARARRAY.addr = alloca [1 x i8], align 1
	%....inline.__FILL_CHARARRAY.addr.1 = alloca [1 x i8], align 1
	%..inline.addr.3 = alloca %struct._ZSt26random_access_iterator_tag, align 1
	%.Q0000.addr = alloca i32, align 4
	%..inline.addr.4 = alloca i8*, align 8
	%k.addr = alloca i32, align 4
	%j.addr = alloca i32, align 4
	%.r1.4306.addr = alloca i32, align 4
	%i.addr = alloca i32, align 4
	%.r1.3762.addr = alloca i32, align 4
	%..inline.addr.5 = alloca %struct._Z6FsGridIN7fsgrids9technicalELi2EE*, align 8
	%..inline.addr.6 = alloca i32, align 4
	%..inline.addr.7 = alloca i32, align 4
	%..inline.addr.8 = alloca i32, align 4
	%..inline.addr.9 = alloca i32, align 4
	%..inline.addr.310 = alloca [3 x i32], align 4
	%..inline.addr.320 = alloca %struct._ZN7fsgrids9technicalE*, align 8
	%..inline.addr.330 = alloca i64, align 8
	%..inline.addr.340 = alloca %struct._Z6FsGridISt5arrayIdLm12EELi2EE*, align 8
	%..inline.addr.350 = alloca i32, align 4
	%..inline.addr.360 = alloca i32, align 4
	%..inline.addr.370 = alloca i32, align 4
	%..inline.addr.380 = alloca i32, align 4
	%..inline.addr.390 = alloca [3 x i32], align 4
	%..inline.addr.400 = alloca %struct._ZSt5arrayIdLm12EE*, align 8
	%..inline.addr.410 = alloca i64, align 8
	%volGrid0.addr = alloca %struct._ZSt5arrayIdLm12EE*, align 8
	%_T25764528_50871.addr = alloca double, align 8
	%perturbedCoefficients.addr = alloca [48 x double], align 8
	%..inline.addr.450 = alloca %struct._Z6FsGridISt5arrayIdLm3EELi2EE*, align 8
	%..inline.addr.460 = alloca i32, align 4
	%..inline.addr.470 = alloca i32, align 4
	%..inline.addr.480 = alloca i32, align 4
	%..inline.addr.490 = alloca i32, align 4
	%..inline.addr.500 = alloca [3 x i32], align 4
	%..inline.addr.510 = alloca %struct._ZSt5arrayIdLm3EE*, align 8
	%..inline.addr.520 = alloca i64, align 8
	%EGrid_i1j1k1.addr = alloca %struct._ZSt5arrayIdLm3EE*, align 8
	%..inline.addr.540 = alloca %struct._Z6FsGridIN7fsgrids9technicalELi2EE*, align 8
	%..inline.addr.550 = alloca i32, align 4
	%..inline.addr.560 = alloca i32, align 4
	%..inline.addr.570 = alloca i32, align 4
	%..inline.addr.580 = alloca i32, align 4
	%..inline.addr.590 = alloca [3 x i32], align 4
	%..inline.addr.600 = alloca %struct._ZN7fsgrids9technicalE*, align 8
	%..inline.addr.610 = alloca i64, align 8
	%..inline.addr.620 = alloca %struct._Z6FsGridIN7fsgrids9technicalELi2EE*, align 8
	%..inline.addr.630 = alloca i32, align 4
	%..inline.addr.640 = alloca i32, align 4
	%..inline.addr.650 = alloca i32, align 4
	%..inline.addr.660 = alloca i32, align 4
	%..inline.addr.670 = alloca [3 x i32], align 4
	%..inline.addr.680 = alloca %struct._ZN7fsgrids9technicalE*, align 8
	%..inline.addr.690 = alloca i64, align 8
	%..inline.addr.700 = alloca %struct._Z6FsGridIN7fsgrids9technicalELi2EE*, align 8
	%..inline.addr.710 = alloca i32, align 4
	%..inline.addr.720 = alloca i32, align 4
	%..inline.addr.730 = alloca i32, align 4
	%..inline.addr.740 = alloca i32, align 4
	%..inline.addr.750 = alloca [3 x i32], align 4
	%..inline.addr.760 = alloca %struct._ZN7fsgrids9technicalE*, align 8
	%..inline.addr.770 = alloca i64, align 8
	%..inline.addr.780 = alloca %struct._Z6FsGridISt5arrayIdLm3EELi2EE*, align 8
	%..inline.addr.790 = alloca i32, align 4
	%..inline.addr.800 = alloca i32, align 4
	%..inline.addr.810 = alloca i32, align 4
	%..inline.addr.820 = alloca i32, align 4
	%..inline.addr.830 = alloca [3 x i32], align 4
	%..inline.addr.840 = alloca %struct._ZSt5arrayIdLm3EE*, align 8
	%..inline.addr.850 = alloca i64, align 8
	%EGrid_i1j2k1.addr = alloca %struct._ZSt5arrayIdLm3EE*, align 8
	%..inline.addr.870 = alloca %struct._Z6FsGridISt5arrayIdLm3EELi2EE*, align 8
	%..inline.addr.880 = alloca i32, align 4
	%..inline.addr.890 = alloca i32, align 4
	%..inline.addr.900 = alloca i32, align 4
	%..inline.addr.910 = alloca i32, align 4
	%..inline.addr.920 = alloca [3 x i32], align 4
	%..inline.addr.930 = alloca %struct._ZSt5arrayIdLm3EE*, align 8
	%..inline.addr.940 = alloca i64, align 8
	%EGrid_i1j1k2.addr = alloca %struct._ZSt5arrayIdLm3EE*, align 8
	%..inline.addr.960 = alloca %struct._Z6FsGridISt5arrayIdLm3EELi2EE*, align 8
	%..inline.addr.970 = alloca i32, align 4
	%..inline.addr.980 = alloca i32, align 4
	%..inline.addr.990 = alloca i32, align 4
	%..inline.addr.1000 = alloca i32, align 4
	%..inline.addr.1010 = alloca [3 x i32], align 4
	%..inline.addr.1020 = alloca %struct._ZSt5arrayIdLm3EE*, align 8
	%..inline.addr.1030 = alloca i64, align 8
	%..inline.addr.1040 = alloca %struct._Z6FsGridIN7fsgrids9technicalELi2EE*, align 8
	%..inline.addr.1050 = alloca i32, align 4
	%..inline.addr.1060 = alloca i32, align 4
	%..inline.addr.1070 = alloca i32, align 4
	%..inline.addr.1080 = alloca i32, align 4
	%..inline.addr.1090 = alloca [3 x i32], align 4
	%..inline.addr.1100 = alloca %struct._ZN7fsgrids9technicalE*, align 8
	%..inline.addr.1110 = alloca i64, align 8
	%..inline.addr.1120 = alloca %struct._Z6FsGridIN7fsgrids9technicalELi2EE*, align 8
	%..inline.addr.1130 = alloca i32, align 4
	%..inline.addr.1140 = alloca i32, align 4
	%..inline.addr.1150 = alloca i32, align 4
	%..inline.addr.1160 = alloca i32, align 4
	%..inline.addr.1170 = alloca [3 x i32], align 4
	%..inline.addr.1180 = alloca %struct._ZN7fsgrids9technicalE*, align 8
	%..inline.addr.1190 = alloca i64, align 8
	%..inline.addr.1200 = alloca %struct._Z6FsGridIN7fsgrids9technicalELi2EE*, align 8
	%..inline.addr.1210 = alloca i32, align 4
	%..inline.addr.1220 = alloca i32, align 4
	%..inline.addr.1230 = alloca i32, align 4
	%..inline.addr.1240 = alloca i32, align 4
	%..inline.addr.1250 = alloca [3 x i32], align 4
	%..inline.addr.1260 = alloca %struct._ZN7fsgrids9technicalE*, align 8
	%..inline.addr.1270 = alloca i64, align 8
	%..inline.addr.1280 = alloca %struct._Z6FsGridISt5arrayIdLm3EELi2EE*, align 8
	%..inline.addr.1290 = alloca i32, align 4
	%..inline.addr.1300 = alloca i32, align 4
	%..inline.addr.1310 = alloca i32, align 4
	%..inline.addr.1320 = alloca i32, align 4
	%..inline.addr.1330 = alloca [3 x i32], align 4
	%..inline.addr.1340 = alloca %struct._ZSt5arrayIdLm3EE*, align 8
	%..inline.addr.1350 = alloca i64, align 8
	%EGrid_i2j1k1.addr = alloca %struct._ZSt5arrayIdLm3EE*, align 8
	%.Q0001.addr = alloca %struct._ZSt5arrayIdLm3EE*, align 8
	%EGrid_i1j1k2.addr.1 = alloca %struct._ZSt5arrayIdLm3EE*, align 8
	%.Q0002.addr = alloca %struct._ZSt5arrayIdLm3EE*, align 8
	%EGrid_i2j1k2.addr = alloca %struct._ZSt5arrayIdLm3EE*, align 8
	%.Q0003.addr = alloca double*, align 8
	%.Q0004.addr = alloca double*, align 8
	%.Q0005.addr = alloca double*, align 8
	%.Q0006.addr = alloca double*, align 8
	%.Q0007.addr = alloca double*, align 8
	%.Q0008.addr = alloca double*, align 8
	%.Q0009.addr = alloca %struct._ZN7fsgrids9technicalE*, align 8
	%.Q0010.addr = alloca %struct._ZN7fsgrids9technicalE*, align 8
	%.Q0011.addr = alloca %struct._ZN7fsgrids9technicalE*, align 8
	%.Q0012.addr = alloca %struct._ZSt5arrayIdLm3EE*, align 8
	%EGrid_i2j1k1.addr.1 = alloca %struct._ZSt5arrayIdLm3EE*, align 8
	%.Q0013.addr = alloca %struct._ZSt5arrayIdLm3EE*, align 8
	%EGrid_i1j2k1.addr.1 = alloca %struct._ZSt5arrayIdLm3EE*, align 8
	%.Q0014.addr = alloca %struct._ZSt5arrayIdLm3EE*, align 8
	%EGrid_i2j2k1.addr = alloca %struct._ZSt5arrayIdLm3EE*, align 8
	%.Q0015.addr = alloca double*, align 8
	%.Q0016.addr = alloca double*, align 8
	%.Q0017.addr = alloca double*, align 8
	%.Q0018.addr = alloca double*, align 8
	%.Q0019.addr = alloca double*, align 8
	%.Q0020.addr = alloca double*, align 8
	%_T25761864_50871.addr = alloca %struct._ZSaIcE, align 1
	%_T25762456_50871.addr = alloca %struct._ZSaIcE, align 1
	%_T25762752_50871.addr = alloca %struct._ZNSt7__cxx1112basic_stringIcSt11char_traitsIcESaIcEEE, align 8
	%.Q0021.addr = alloca i32, align 4
	%__caught_object_address.addr = alloca i8*, align 8
	%__catch_clause_number.addr = alloca i32, align 4

	call void @llvm.dbg.declare (metadata %struct._Z6FsGridISt5arrayIdLm3EELi2EE** %perBGrid.addr, metadata !5860, metadata !5861), !dbg !4047
	store %struct._Z6FsGridISt5arrayIdLm3EELi2EE* %perBGrid.arg, %struct._Z6FsGridISt5arrayIdLm3EELi2EE** %perBGrid.addr, align 8, !tbaa !5952
	call void @llvm.dbg.declare (metadata %struct._Z6FsGridISt5arrayIdLm3EELi2EE** %perBGrid.addr, metadata !5862, metadata !5861), !dbg !4047
	call void @llvm.dbg.declare (metadata %struct._Z6FsGridISt5arrayIdLm3EELi2EE** %EGrid.addr, metadata !5863, metadata !5861), !dbg !4047
	store %struct._Z6FsGridISt5arrayIdLm3EELi2EE* %EGrid.arg, %struct._Z6FsGridISt5arrayIdLm3EELi2EE** %EGrid.addr, align 8, !tbaa !5952
	call void @llvm.dbg.declare (metadata %struct._Z6FsGridISt5arrayIdLm3EELi2EE** %EGrid.addr, metadata !5864, metadata !5861), !dbg !4047
	call void @llvm.dbg.declare (metadata %struct._Z6FsGridISt5arrayIdLm15EELi2EE** %dPerBGrid.addr, metadata !5865, metadata !5861), !dbg !4047
	store %struct._Z6FsGridISt5arrayIdLm15EELi2EE* %dPerBGrid.arg, %struct._Z6FsGridISt5arrayIdLm15EELi2EE** %dPerBGrid.addr, align 8, !tbaa !5952
	call void @llvm.dbg.declare (metadata %struct._Z6FsGridISt5arrayIdLm15EELi2EE** %dPerBGrid.addr, metadata !5866, metadata !5861), !dbg !4047
	call void @llvm.dbg.declare (metadata %struct._Z6FsGridISt5arrayIdLm12EELi2EE** %volGrid.addr, metadata !5867, metadata !5861), !dbg !4047
	store %struct._Z6FsGridISt5arrayIdLm12EELi2EE* %volGrid.arg, %struct._Z6FsGridISt5arrayIdLm12EELi2EE** %volGrid.addr, align 8, !tbaa !5952
	call void @llvm.dbg.declare (metadata %struct._Z6FsGridISt5arrayIdLm12EELi2EE** %volGrid.addr, metadata !5868, metadata !5861), !dbg !4047
	call void @llvm.dbg.declare (metadata %struct._Z6FsGridIN7fsgrids9technicalELi2EE** %technicalGrid.addr, metadata !5869, metadata !5861), !dbg !4047
	store %struct._Z6FsGridIN7fsgrids9technicalELi2EE* %technicalGrid.arg, %struct._Z6FsGridIN7fsgrids9technicalELi2EE** %technicalGrid.addr, align 8, !tbaa !5952
	call void @llvm.dbg.declare (metadata %struct._Z6FsGridIN7fsgrids9technicalELi2EE** %technicalGrid.addr, metadata !5870, metadata !5861), !dbg !4047
	%0 = load %struct._Z6FsGridIN7fsgrids9technicalELi2EE*, %struct._Z6FsGridIN7fsgrids9technicalELi2EE** %technicalGrid.addr, align 8, !tbaa !5952, !dbg !5871
	%1 = bitcast %struct._Z6FsGridIN7fsgrids9technicalELi2EE*  %0 to i8*, !dbg !5871
	%2 = getelementptr i8, i8*  %1, i64 264, !dbg !5871
	call void @llvm.dbg.declare (metadata i32** %gridDims.addr, metadata !5872, metadata !5861), !dbg !4047
	%3 = bitcast i32** %gridDims.addr to i8**, !dbg !5871
	store i8*  %2, i8**  %3, align 8, !tbaa !5952, !dbg !5871
	%4 = load %struct._Z6FsGridIN7fsgrids9technicalELi2EE*, %struct._Z6FsGridIN7fsgrids9technicalELi2EE** %technicalGrid.addr, align 8, !tbaa !5952, !dbg !5873
	%5 = bitcast %struct._Z6FsGridIN7fsgrids9technicalELi2EE*  %4 to i8*, !dbg !5873
	%6 = getelementptr i8, i8*  %5, i64 272, !dbg !5873
	%7 = bitcast i8*  %6 to i32*, !dbg !5873
	%8 = load i32, i32*  %7, align 4, !tbaa !5953, !dbg !5873
	%9 = getelementptr i8, i8*  %5, i64 268, !dbg !5873
	%10 = bitcast i8*  %9 to i32*, !dbg !5873
	%11 = load i32, i32*  %10, align 4, !tbaa !5953, !dbg !5873
	%12 = getelementptr i8, i8*  %5, i64 264, !dbg !5873
	%13 = bitcast i8*  %12 to i32*, !dbg !5873
	%14 = load i32, i32*  %13, align 4, !tbaa !5953, !dbg !5873
	%15 = mul i32  %11,  %14, !dbg !5873
	%16 = mul i32  %8,  %15, !dbg !5873
	%17 = sext i32  %16 to i64, !dbg !5873
	call void @llvm.dbg.declare (metadata i64* %N_cells.addr, metadata !5874, metadata !5861), !dbg !4047
	store i64  %17, i64* %N_cells.addr, align 8, !tbaa !5955, !dbg !5873
	%18 = bitcast %struct._ZNSt7__cxx1112basic_stringIcSt11char_traitsIcESaIcEEE* %_T25762160_50871.addr to i8*, !dbg !5875
	%19 = getelementptr i8, i8*  %18, i64 16, !dbg !5875
	%20 = bitcast %struct._ZNSt7__cxx1112basic_stringIcSt11char_traitsIcESaIcEEE* %_T25762160_50871.addr to i8**, !dbg !5875
	store i8*  %19, i8**  %20, align 8, !tbaa !5952, !dbg !5875
	%21 = bitcast [33 x i8]* @.S52063 to i8*, !dbg !5875
	%22 = icmp eq i8*  %21,  null, !dbg !5875
	br i1  %22, label %L..inline.64811, label %L.B0934, !dbg !5875
L.B0934:
	%23 = bitcast [33 x i8]* @.S52063 to i8*, !dbg !5875
	%24 = call i64  @strlen (i8*  %23) nounwind, !dbg !5875
	%25 = getelementptr i8, i8*  %23, i64  %24, !dbg !5875
	store i8*  %25, i8** %..inline.addr.1, align 8, !tbaa !5952, !dbg !5875
	br label %L..inline.64819, !dbg !5875
L..inline.64811:
	%26 = bitcast [33 x i8]* @.S52063 to i8*, !dbg !5875
	%27 = getelementptr i8, i8*  %26, i64 18446744073709551615, !dbg !5875
	store i8*  %27, i8** %..inline.addr.1, align 8, !tbaa !5952, !dbg !5875
	br label %L..inline.64819
L..inline.64819:
	%28 = load i8*, i8** %..inline.addr.1, align 8, !tbaa !5952, !dbg !5875
	store i8*  %28, i8** %..inline.addr.2, align 8, !tbaa !5952, !dbg !5875
	call void @llvm.dbg.declare (metadata [1 x i8]* %....inline.__FILL_CHARARRAY.addr, metadata !5877, metadata !5861), !dbg !4049
	%29 = bitcast [1 x i8]* %....inline.__FILL_CHARARRAY.addr to i8*, !dbg !5876
	%30 = load i8, i8*  %29, align 1, !tbaa !5953, !dbg !5876
	%31 = zext i8  %30 to i32, !dbg !5876
	%32 = trunc i32  %31 to i8, !dbg !5876
	call void @llvm.dbg.declare (metadata [1 x i8]* %....inline.__FILL_CHARARRAY.addr.1, metadata !5877, metadata !5861), !dbg !4049
	%33 = bitcast [1 x i8]* %....inline.__FILL_CHARARRAY.addr.1 to i8*, !dbg !5876
	store i8  %32, i8*  %33, align 1, !tbaa !5953, !dbg !5876
	%34 = bitcast [33 x i8]* @.S52063 to i8*, !dbg !5875
	%35 = load i8*, i8** %..inline.addr.2, align 8, !tbaa !5952, !dbg !5875
	%36 = bitcast %struct._ZSt26random_access_iterator_tag* %..inline.addr.3 to i8*, !dbg !5875
	%37 = load i8, i8*  %36, align 1, !tbaa !5953, !dbg !5875
	invoke void  @_ZNSt7__cxx1112basic_stringIcSt11char_traitsIcESaIcEE12_M_constructIPKcEEvT_S8_St20forward_iterator_tag (%struct._ZNSt7__cxx1112basic_stringIcSt11char_traitsIcESaIcEEE* %_T25762160_50871.addr, i8*  %34, i8*  %35, i8  %37)
		to label %L.B0935
		unwind label %L_T25768376_50871, !dbg !5875
L.B0935:
	%38 = invoke i8  @_ZN7phiprof5startERKNSt7__cxx1112basic_stringIcSt11char_traitsIcESaIcEEE (%struct._ZNSt7__cxx1112basic_stringIcSt11char_traitsIcESaIcEEE* %_T25762160_50871.addr)
		to label %L.B0936
		unwind label %L_T25768616_50871, !dbg !5878
L.B0936:
	%39 = sext i8  %38 to i32, !dbg !5878
	store i32  %39, i32* %.Q0000.addr, align 4, !tbaa !5957, !dbg !5878
	%40 = bitcast %struct._ZNSt7__cxx1112basic_stringIcSt11char_traitsIcESaIcEEE* %_T25762160_50871.addr to i8**, !dbg !5879
	%41 = load i8*, i8**  %40, align 8, !tbaa !5952, !dbg !5879
	%42 = bitcast %struct._ZNSt7__cxx1112basic_stringIcSt11char_traitsIcESaIcEEE* %_T25762160_50871.addr to i8*, !dbg !5879
	%43 = getelementptr i8, i8*  %42, i64 16, !dbg !5879
	%44 = icmp eq i8*  %41,  %43, !dbg !5879
	br i1  %44, label %L..inline.64886, label %L.B0937, !dbg !5879
L.B0937:
	%45 = bitcast %struct._ZNSt7__cxx1112basic_stringIcSt11char_traitsIcESaIcEEE* %_T25762160_50871.addr to i8**, !dbg !5879
	%46 = load i8*, i8**  %45, align 8, !tbaa !5952, !dbg !5879
	call void  @_ZdlPv (i8*  %46) nounwind, !dbg !5879
	br label %L..inline.64886
L..inline.64886:
	call void @llvm.dbg.declare (metadata i32* %k.addr, metadata !5881, metadata !5861), !dbg !4051
	store i32 0, i32* %k.addr, align 4, !tbaa !5957, !dbg !5880
	%47 = load i32*, i32** %gridDims.addr, align 8, !tbaa !5952, !dbg !5880
	%48 = bitcast i32*  %47 to i8*, !dbg !5880
	%49 = getelementptr i8, i8*  %48, i64 8, !dbg !5880
	%50 = bitcast i8*  %49 to i32*, !dbg !5880
	%51 = load i32, i32*  %50, align 4, !tbaa !5953, !dbg !5880
	%52 = icmp sle i32  %51, 0, !dbg !5880
	br i1  %52, label %L.B0002, label %L.B0001, !dbg !5880
L.B0001:
	call void @llvm.dbg.declare (metadata i32* %j.addr, metadata !5883, metadata !5861), !dbg !4055
	store i32 0, i32* %j.addr, align 4, !tbaa !5957, !dbg !5882
	%53 = load i32*, i32** %gridDims.addr, align 8, !tbaa !5952, !dbg !5882
	%54 = bitcast i32*  %53 to i8*, !dbg !5882
	%55 = getelementptr i8, i8*  %54, i64 4, !dbg !5882
	%56 = bitcast i8*  %55 to i32*, !dbg !5882
	%57 = load i32, i32*  %56, align 4, !tbaa !5953, !dbg !5882
	%58 = icmp sle i32  %57, 0, !dbg !5882
	br i1  %58, label %L.B0006, label %L.B0938, !dbg !5882
L.B0938:
	%59 = load i32, i32* %k.addr, align 4, !tbaa !5957, !dbg !5882
	%60 = add i32  %59, 1, !dbg !5882
	store i32  %60, i32* %.r1.4306.addr, align 4, !tbaa !5957, !dbg !5882
	br label %L.B0005
L.B0005:
	call void @llvm.dbg.declare (metadata i32* %i.addr, metadata !5885, metadata !5861), !dbg !4059
	store i32 0, i32* %i.addr, align 4, !tbaa !5957, !dbg !5884
	%61 = load i32*, i32** %gridDims.addr, align 8, !tbaa !5952, !dbg !5884
	%62 = load i32, i32*  %61, align 4, !tbaa !5953, !dbg !5884
	%63 = icmp sle i32  %62, 0, !dbg !5884
	br i1  %63, label %L.B0010, label %L.B0939, !dbg !5884
L.B0939:
	%64 = load i32, i32* %j.addr, align 4, !tbaa !5957, !dbg !5884
	%65 = add i32  %64, 1, !dbg !5884
	store i32  %65, i32* %.r1.3762.addr, align 4, !tbaa !5957, !dbg !5884
	br label %L.B0009
L.B0009:
	%66 = load %struct._Z6FsGridIN7fsgrids9technicalELi2EE*, %struct._Z6FsGridIN7fsgrids9technicalELi2EE** %technicalGrid.addr, align 8, !tbaa !5952, !dbg !5886
	%67 = bitcast %struct._Z6FsGridIN7fsgrids9technicalELi2EE*  %66 to i8*, !dbg !5886
	%68 = bitcast %struct._Z6FsGridIN7fsgrids9technicalELi2EE** %..inline.addr.5 to i8**, !dbg !5886
	store i8*  %67, i8**  %68, align 8, !tbaa !5952, !dbg !5886
	%69 = load i32, i32* %i.addr, align 4, !tbaa !5957, !dbg !5886
	store i32  %69, i32* %..inline.addr.6, align 4, !tbaa !5957, !dbg !5886
	%70 = load i32, i32* %j.addr, align 4, !tbaa !5957, !dbg !5886
	store i32  %70, i32* %..inline.addr.7, align 4, !tbaa !5957, !dbg !5886
	%71 = load i32, i32* %k.addr, align 4, !tbaa !5957, !dbg !5886
	store i32  %71, i32* %..inline.addr.8, align 4, !tbaa !5957, !dbg !5886
	store i32 13, i32* %..inline.addr.9, align 4, !tbaa !5957, !dbg !5886
	%72 = bitcast [3 x i32]* %..inline.addr.310 to i32*, !dbg !5887
	store i32 0, i32*  %72, align 4, !tbaa !5953, !dbg !5887
	%73 = bitcast [3 x i32]* %..inline.addr.310 to i8*, !dbg !5888
	%74 = getelementptr i8, i8*  %73, i64 4, !dbg !5888
	%75 = bitcast i8*  %74 to i32*, !dbg !5888
	store i32 0, i32*  %75, align 4, !tbaa !5953, !dbg !5888
	%76 = getelementptr i8, i8*  %73, i64 8, !dbg !5888
	%77 = bitcast i8*  %76 to i32*, !dbg !5888
	store i32 0, i32*  %77, align 4, !tbaa !5953, !dbg !5888
	%78 = icmp sge i32  %69, 0, !dbg !5888
	br i1  %78, label %L..inline.64932, label %L.B0940, !dbg !5888
L.B0940:
	store i32 4, i32* %..inline.addr.9, align 4, !tbaa !5957, !dbg !5889
	%79 = bitcast [3 x i32]* %..inline.addr.310 to i32*, !dbg !5890
	store i32 1, i32*  %79, align 4, !tbaa !5953, !dbg !5890
	br label %L..inline.64932
L..inline.64932:
	%80 = load i32, i32* %..inline.addr.6, align 4, !tbaa !5957, !dbg !5891
	%81 = load %struct._Z6FsGridIN7fsgrids9technicalELi2EE*, %struct._Z6FsGridIN7fsgrids9technicalELi2EE** %..inline.addr.5, align 8, !tbaa !5952, !dbg !5891
	%82 = bitcast %struct._Z6FsGridIN7fsgrids9technicalELi2EE*  %81 to i8*, !dbg !5891
	%83 = getelementptr i8, i8*  %82, i64 264, !dbg !5891
	%84 = bitcast i8*  %83 to i32*, !dbg !5891
	%85 = load i32, i32*  %84, align 4, !tbaa !5953, !dbg !5891
	%86 = icmp slt i32  %80,  %85, !dbg !5891
	br i1  %86, label %L..inline.64950, label %L.B0941, !dbg !5891
L.B0941:
	%87 = load i32, i32* %..inline.addr.9, align 4, !tbaa !5957, !dbg !5891
	%88 = add i32  %87, 9, !dbg !5891
	store i32  %88, i32* %..inline.addr.9, align 4, !tbaa !5957, !dbg !5891
	%89 = bitcast [3 x i32]* %..inline.addr.310 to i32*, !dbg !5892
	store i32 -1, i32*  %89, align 4, !tbaa !5953, !dbg !5892
	br label %L..inline.64950
L..inline.64950:
	%90 = load i32, i32* %..inline.addr.7, align 4, !tbaa !5957, !dbg !5893
	%91 = icmp sge i32  %90, 0, !dbg !5893
	br i1  %91, label %L..inline.64952, label %L.B0942, !dbg !5893
L.B0942:
	%92 = load i32, i32* %..inline.addr.9, align 4, !tbaa !5957, !dbg !5893
	%93 = sub i32  %92, 3, !dbg !5893
	store i32  %93, i32* %..inline.addr.9, align 4, !tbaa !5957, !dbg !5893
	%94 = bitcast [3 x i32]* %..inline.addr.310 to i8*, !dbg !5894
	%95 = getelementptr i8, i8*  %94, i64 4, !dbg !5894
	%96 = bitcast i8*  %95 to i32*, !dbg !5894
	store i32 1, i32*  %96, align 4, !tbaa !5953, !dbg !5894
	br label %L..inline.64952
L..inline.64952:
	%97 = load i32, i32* %..inline.addr.7, align 4, !tbaa !5957, !dbg !5895
	%98 = load %struct._Z6FsGridIN7fsgrids9technicalELi2EE*, %struct._Z6FsGridIN7fsgrids9technicalELi2EE** %..inline.addr.5, align 8, !tbaa !5952, !dbg !5895
	%99 = bitcast %struct._Z6FsGridIN7fsgrids9technicalELi2EE*  %98 to i8*, !dbg !5895
	%100 = getelementptr i8, i8*  %99, i64 268, !dbg !5895
	%101 = bitcast i8*  %100 to i32*, !dbg !5895
	%102 = load i32, i32*  %101, align 4, !tbaa !5953, !dbg !5895
	%103 = icmp slt i32  %97,  %102, !dbg !5895
	br i1  %103, label %L..inline.64969, label %L.B0943, !dbg !5895
L.B0943:
	%104 = load i32, i32* %..inline.addr.9, align 4, !tbaa !5957, !dbg !5895
	%105 = add i32  %104, 3, !dbg !5895
	store i32  %105, i32* %..inline.addr.9, align 4, !tbaa !5957, !dbg !5895
	%106 = bitcast [3 x i32]* %..inline.addr.310 to i8*, !dbg !5896
	%107 = getelementptr i8, i8*  %106, i64 4, !dbg !5896
	%108 = bitcast i8*  %107 to i32*, !dbg !5896
	store i32 -1, i32*  %108, align 4, !tbaa !5953, !dbg !5896
	br label %L..inline.64969
L..inline.64969:
	%109 = load i32, i32* %..inline.addr.8, align 4, !tbaa !5957, !dbg !5897
	%110 = icmp sge i32  %109, 0, !dbg !5897
	br i1  %110, label %L..inline.64971, label %L.B0944, !dbg !5897
L.B0944:
	%111 = load i32, i32* %..inline.addr.9, align 4, !tbaa !5957, !dbg !5897
	%112 = sub i32  %111, 1, !dbg !5897
	store i32  %112, i32* %..inline.addr.9, align 4, !tbaa !5957, !dbg !5897
	%113 = bitcast [3 x i32]* %..inline.addr.310 to i8*, !dbg !5898
	%114 = getelementptr i8, i8*  %113, i64 8, !dbg !5898
	%115 = bitcast i8*  %114 to i32*, !dbg !5898
	store i32 1, i32*  %115, align 4, !tbaa !5953, !dbg !5898
	br label %L..inline.64971
L..inline.64971:
	%116 = load i32, i32* %..inline.addr.8, align 4, !tbaa !5957, !dbg !5899
	%117 = load %struct._Z6FsGridIN7fsgrids9technicalELi2EE*, %struct._Z6FsGridIN7fsgrids9technicalELi2EE** %..inline.addr.5, align 8, !tbaa !5952, !dbg !5899
	%118 = bitcast %struct._Z6FsGridIN7fsgrids9technicalELi2EE*  %117 to i8*, !dbg !5899
	%119 = getelementptr i8, i8*  %118, i64 272, !dbg !5899
	%120 = bitcast i8*  %119 to i32*, !dbg !5899
	%121 = load i32, i32*  %120, align 4, !tbaa !5953, !dbg !5899
	%122 = icmp slt i32  %116,  %121, !dbg !5899
	br i1  %122, label %L..inline.64988, label %L.B0945, !dbg !5899
L.B0945:
	%123 = load i32, i32* %..inline.addr.9, align 4, !tbaa !5957, !dbg !5899
	%124 = add i32  %123, 1, !dbg !5899
	store i32  %124, i32* %..inline.addr.9, align 4, !tbaa !5957, !dbg !5899
	%125 = bitcast [3 x i32]* %..inline.addr.310 to i8*, !dbg !5900
	%126 = getelementptr i8, i8*  %125, i64 8, !dbg !5900
	%127 = bitcast i8*  %126 to i32*, !dbg !5900
	store i32 -1, i32*  %127, align 4, !tbaa !5953, !dbg !5900
	br label %L..inline.64988
L..inline.64988:
	%128 = load i32, i32* %..inline.addr.9, align 4, !tbaa !5957, !dbg !5901
	%129 = icmp eq i32  %128, 13, !dbg !5901
	br i1  %129, label %L..inline.64989, label %L.B0946, !dbg !5901
L.B0946:
	%130 = sext i32  %128 to i64, !dbg !5902
	%131 = load %struct._Z6FsGridIN7fsgrids9technicalELi2EE*, %struct._Z6FsGridIN7fsgrids9technicalELi2EE** %..inline.addr.5, align 8, !tbaa !5952, !dbg !5902
	%132 = bitcast %struct._Z6FsGridIN7fsgrids9technicalELi2EE*  %131 to i8*, !dbg !5902
	%133 = getelementptr i8, i8*  %132, i64 92, !dbg !5902
	%134 = bitcast i8*  %133 to i32*, !dbg !5902
	%135 = getelementptr i32, i32*  %134, i64  %130, !dbg !5902
	%136 = load i32, i32*  %135, align 4, !tbaa !5953, !dbg !5902
	%137 = icmp ne i32  %136, -2, !dbg !5902
	br i1  %137, label %L..inline.65006, label %L.B0947, !dbg !5902
L.B0947:
	%138 = bitcast %struct._ZN7fsgrids9technicalE** %..inline.addr.320 to i8**, !dbg !5902
	store i8* null, i8**  %138, align 8, !tbaa !5952, !dbg !5902
	br label %L..inline.65193, !dbg !5903
L..inline.65006:
	%139 = load i32, i32* %..inline.addr.9, align 4, !tbaa !5957, !dbg !5904
	%140 = sext i32  %139 to i64, !dbg !5904
	%141 = load %struct._Z6FsGridIN7fsgrids9technicalELi2EE*, %struct._Z6FsGridIN7fsgrids9technicalELi2EE** %..inline.addr.5, align 8, !tbaa !5952, !dbg !5904
	%142 = bitcast %struct._Z6FsGridIN7fsgrids9technicalELi2EE*  %141 to i8*, !dbg !5904
	%143 = getelementptr i8, i8*  %142, i64 92, !dbg !5904
	%144 = bitcast i8*  %143 to i32*, !dbg !5904
	%145 = getelementptr i32, i32*  %144, i64  %140, !dbg !5904
	%146 = load i32, i32*  %145, align 4, !tbaa !5953, !dbg !5904
	%147 = getelementptr i8, i8*  %142, i64 56, !dbg !5904
	%148 = bitcast i8*  %147 to i32*, !dbg !5904
	%149 = load i32, i32*  %148, align 4, !tbaa !5953, !dbg !5904
	%150 = icmp ne i32  %146,  %149, !dbg !5904
	br i1  %150, label %L..inline.65024, label %L.B0948, !dbg !5904
L.B0948:
	%151 = load i32, i32* %..inline.addr.6, align 4, !tbaa !5957, !dbg !5905
	%152 = bitcast [3 x i32]* %..inline.addr.310 to i32*, !dbg !5905
	%153 = load i32, i32*  %152, align 4, !tbaa !5953, !dbg !5905
	%154 = bitcast %struct._Z6FsGridIN7fsgrids9technicalELi2EE*  %141 to i8*, !dbg !5905
	%155 = getelementptr i8, i8*  %154, i64 264, !dbg !5905
	%156 = bitcast i8*  %155 to i32*, !dbg !5905
	%157 = load i32, i32*  %156, align 4, !tbaa !5953, !dbg !5905
	%158 = mul i32  %153,  %157, !dbg !5905
	%159 = add i32  %151,  %158, !dbg !5905
	store i32  %159, i32* %..inline.addr.6, align 4, !tbaa !5957, !dbg !5905
	%160 = load i32, i32* %..inline.addr.7, align 4, !tbaa !5957, !dbg !5906
	%161 = bitcast [3 x i32]* %..inline.addr.310 to i8*, !dbg !5906
	%162 = getelementptr i8, i8*  %161, i64 4, !dbg !5906
	%163 = bitcast i8*  %162 to i32*, !dbg !5906
	%164 = load i32, i32*  %163, align 4, !tbaa !5953, !dbg !5906
	%165 = getelementptr i8, i8*  %154, i64 268, !dbg !5906
	%166 = bitcast i8*  %165 to i32*, !dbg !5906
	%167 = load i32, i32*  %166, align 4, !tbaa !5953, !dbg !5906
	%168 = mul i32  %164,  %167, !dbg !5906
	%169 = add i32  %160,  %168, !dbg !5906
	store i32  %169, i32* %..inline.addr.7, align 4, !tbaa !5957, !dbg !5906
	%170 = load i32, i32* %..inline.addr.8, align 4, !tbaa !5957, !dbg !5907
	%171 = getelementptr i8, i8*  %161, i64 8, !dbg !5907
	%172 = bitcast i8*  %171 to i32*, !dbg !5907
	%173 = load i32, i32*  %172, align 4, !tbaa !5953, !dbg !5907
	%174 = getelementptr i8, i8*  %154, i64 272, !dbg !5907
	%175 = bitcast i8*  %174 to i32*, !dbg !5907
	%176 = load i32, i32*  %175, align 4, !tbaa !5953, !dbg !5907
	%177 = mul i32  %173,  %176, !dbg !5907
	%178 = add i32  %170,  %177, !dbg !5907
	store i32  %178, i32* %..inline.addr.8, align 4, !tbaa !5957, !dbg !5907
	br label %L..inline.65024
L..inline.65024:
	br label %L..inline.64989
L..inline.64989:
	store i64 0, i64* %..inline.addr.330, align 8, !tbaa !5955, !dbg !5908
	%179 = load %struct._Z6FsGridIN7fsgrids9technicalELi2EE*, %struct._Z6FsGridIN7fsgrids9technicalELi2EE** %..inline.addr.5, align 8, !tbaa !5952, !dbg !5908
	%180 = bitcast %struct._Z6FsGridIN7fsgrids9technicalELi2EE*  %179 to i8*, !dbg !5908
	%181 = getelementptr i8, i8*  %180, i64 260, !dbg !5908
	%182 = bitcast i8*  %181 to i32*, !dbg !5908
	%183 = load i32, i32*  %182, align 4, !tbaa !5953, !dbg !5908
	%184 = icmp sle i32  %183, 1, !dbg !5908
	br i1  %184, label %L..inline.65098, label %L.B0949, !dbg !5908
L.B0949:
	%185 = load i32, i32* %..inline.addr.8, align 4, !tbaa !5957, !dbg !5908
	%186 = add i32  %185, 2, !dbg !5908
	%187 = bitcast %struct._Z6FsGridIN7fsgrids9technicalELi2EE*  %179 to i8*, !dbg !5908
	%188 = getelementptr i8, i8*  %187, i64 280, !dbg !5908
	%189 = bitcast i8*  %188 to i32*, !dbg !5908
	%190 = load i32, i32*  %189, align 4, !tbaa !5953, !dbg !5908
	%191 = getelementptr i8, i8*  %187, i64 276, !dbg !5908
	%192 = bitcast i8*  %191 to i32*, !dbg !5908
	%193 = load i32, i32*  %192, align 4, !tbaa !5953, !dbg !5908
	%194 = mul i32  %190,  %193, !dbg !5908
	%195 = mul i32  %186,  %194, !dbg !5908
	%196 = sext i32  %195 to i64, !dbg !5908
	store i64  %196, i64* %..inline.addr.330, align 8, !tbaa !5955, !dbg !5908
	br label %L..inline.65098
L..inline.65098:
	%197 = load %struct._Z6FsGridIN7fsgrids9technicalELi2EE*, %struct._Z6FsGridIN7fsgrids9technicalELi2EE** %..inline.addr.5, align 8, !tbaa !5952, !dbg !5908
	%198 = bitcast %struct._Z6FsGridIN7fsgrids9technicalELi2EE*  %197 to i8*, !dbg !5908
	%199 = getelementptr i8, i8*  %198, i64 256, !dbg !5908
	%200 = bitcast i8*  %199 to i32*, !dbg !5908
	%201 = load i32, i32*  %200, align 4, !tbaa !5953, !dbg !5908
	%202 = icmp sle i32  %201, 1, !dbg !5908
	br i1  %202, label %L..inline.65147, label %L.B0950, !dbg !5908
L.B0950:
	%203 = load i64, i64* %..inline.addr.330, align 8, !tbaa !5955, !dbg !5908
	%204 = bitcast %struct._Z6FsGridIN7fsgrids9technicalELi2EE*  %197 to i8*, !dbg !5908
	%205 = getelementptr i8, i8*  %204, i64 276, !dbg !5908
	%206 = bitcast i8*  %205 to i32*, !dbg !5908
	%207 = load i32, i32*  %206, align 4, !tbaa !5953, !dbg !5908
	%208 = load i32, i32* %..inline.addr.7, align 4, !tbaa !5957, !dbg !5908
	%209 = add i32  %208, 2, !dbg !5908
	%210 = mul i32  %207,  %209, !dbg !5908
	%211 = sext i32  %210 to i64, !dbg !5908
	%212 = add i64  %203,  %211, !dbg !5908
	store i64  %212, i64* %..inline.addr.330, align 8, !tbaa !5955, !dbg !5908
	br label %L..inline.65147
L..inline.65147:
	%213 = load %struct._Z6FsGridIN7fsgrids9technicalELi2EE*, %struct._Z6FsGridIN7fsgrids9technicalELi2EE** %..inline.addr.5, align 8, !tbaa !5952, !dbg !5908
	%214 = bitcast %struct._Z6FsGridIN7fsgrids9technicalELi2EE*  %213 to i8*, !dbg !5908
	%215 = getelementptr i8, i8*  %214, i64 252, !dbg !5908
	%216 = bitcast i8*  %215 to i32*, !dbg !5908
	%217 = load i32, i32*  %216, align 4, !tbaa !5953, !dbg !5908
	%218 = icmp sle i32  %217, 1, !dbg !5908
	%219 = zext i1  %218 to i32, !dbg !5908
	%220 = trunc i32  %219 to i1, !dbg !5908
	%221 = load i64, i64* %..inline.addr.330, align 8, !tbaa !5955, !dbg !5908
	%222 = load i32, i32* %..inline.addr.6, align 4, !tbaa !5957, !dbg !5908
	%223 = sext i32  %222 to i64, !dbg !5908
	%224 = add i64  %223, 2, !dbg !5908
	%225 = add i64  %221,  %224, !dbg !5908
	%226 = select i1  %220, i64  %221, i64  %225, !dbg !5908
	%227 = getelementptr i8, i8*  %214, i64 744, !dbg !5909
	%228 = bitcast i8*  %227 to i8**, !dbg !5909
	%229 = load i8*, i8**  %228, align 8, !tbaa !5952, !dbg !5909
	%230 = mul i64  %226, 32, !dbg !5909
	%231 = getelementptr i8, i8*  %229, i64  %230, !dbg !5909
	%232 = bitcast %struct._ZN7fsgrids9technicalE** %..inline.addr.320 to i8**, !dbg !5909
	store i8*  %231, i8**  %232, align 8, !tbaa !5952, !dbg !5909
	br label %L..inline.65193
L..inline.65193:
	%233 = load %struct._ZN7fsgrids9technicalE*, %struct._ZN7fsgrids9technicalE** %..inline.addr.320, align 8, !tbaa !5952, !dbg !5910
	%234 = bitcast %struct._ZN7fsgrids9technicalE*  %233 to i32*, !dbg !5910
	%235 = load i32, i32*  %234, align 4, !tbaa !5953, !dbg !5910
	%236 = icmp eq i32  %235, 0, !dbg !5910
	br i1  %236, label %L_T25770056_50871, label %L.B0012, !dbg !5910
L.B0012:
	%237 = load %struct._Z6FsGridISt5arrayIdLm12EELi2EE*, %struct._Z6FsGridISt5arrayIdLm12EELi2EE** %volGrid.addr, align 8, !tbaa !5952, !dbg !5911
	%238 = bitcast %struct._Z6FsGridISt5arrayIdLm12EELi2EE*  %237 to i8*, !dbg !5911
	%239 = bitcast %struct._Z6FsGridISt5arrayIdLm12EELi2EE** %..inline.addr.340 to i8**, !dbg !5911
	store i8*  %238, i8**  %239, align 8, !tbaa !5952, !dbg !5911
	%240 = load i32, i32* %i.addr, align 4, !tbaa !5957, !dbg !5911
	store i32  %240, i32* %..inline.addr.350, align 4, !tbaa !5957, !dbg !5911
	%241 = load i32, i32* %j.addr, align 4, !tbaa !5957, !dbg !5911
	store i32  %241, i32* %..inline.addr.360, align 4, !tbaa !5957, !dbg !5911
	%242 = load i32, i32* %k.addr, align 4, !tbaa !5957, !dbg !5911
	store i32  %242, i32* %..inline.addr.370, align 4, !tbaa !5957, !dbg !5911
	store i32 13, i32* %..inline.addr.380, align 4, !tbaa !5957, !dbg !5911
	%243 = bitcast [3 x i32]* %..inline.addr.390 to i32*, !dbg !5887
	store i32 0, i32*  %243, align 4, !tbaa !5953, !dbg !5887
	%244 = bitcast [3 x i32]* %..inline.addr.390 to i8*, !dbg !5888
	%245 = getelementptr i8, i8*  %244, i64 4, !dbg !5888
	%246 = bitcast i8*  %245 to i32*, !dbg !5888
	store i32 0, i32*  %246, align 4, !tbaa !5953, !dbg !5888
	%247 = getelementptr i8, i8*  %244, i64 8, !dbg !5888
	%248 = bitcast i8*  %247 to i32*, !dbg !5888
	store i32 0, i32*  %248, align 4, !tbaa !5953, !dbg !5888
	%249 = icmp sge i32  %240, 0, !dbg !5888
	br i1  %249, label %L..inline.65199, label %L.B0951, !dbg !5888
L.B0951:
	store i32 4, i32* %..inline.addr.380, align 4, !tbaa !5957, !dbg !5889
	%250 = bitcast [3 x i32]* %..inline.addr.390 to i32*, !dbg !5890
	store i32 1, i32*  %250, align 4, !tbaa !5953, !dbg !5890
	br label %L..inline.65199
L..inline.65199:
	%251 = load i32, i32* %..inline.addr.350, align 4, !tbaa !5957, !dbg !5891
	%252 = load %struct._Z6FsGridISt5arrayIdLm12EELi2EE*, %struct._Z6FsGridISt5arrayIdLm12EELi2EE** %..inline.addr.340, align 8, !tbaa !5952, !dbg !5891
	%253 = bitcast %struct._Z6FsGridISt5arrayIdLm12EELi2EE*  %252 to i8*, !dbg !5891
	%254 = getelementptr i8, i8*  %253, i64 264, !dbg !5891
	%255 = bitcast i8*  %254 to i32*, !dbg !5891
	%256 = load i32, i32*  %255, align 4, !tbaa !5953, !dbg !5891
	%257 = icmp slt i32  %251,  %256, !dbg !5891
	br i1  %257, label %L..inline.65217, label %L.B0952, !dbg !5891
L.B0952:
	%258 = load i32, i32* %..inline.addr.380, align 4, !tbaa !5957, !dbg !5891
	%259 = add i32  %258, 9, !dbg !5891
	store i32  %259, i32* %..inline.addr.380, align 4, !tbaa !5957, !dbg !5891
	%260 = bitcast [3 x i32]* %..inline.addr.390 to i32*, !dbg !5892
	store i32 -1, i32*  %260, align 4, !tbaa !5953, !dbg !5892
	br label %L..inline.65217
L..inline.65217:
	%261 = load i32, i32* %..inline.addr.360, align 4, !tbaa !5957, !dbg !5893
	%262 = icmp sge i32  %261, 0, !dbg !5893
	br i1  %262, label %L..inline.65219, label %L.B0953, !dbg !5893
L.B0953:
	%263 = load i32, i32* %..inline.addr.380, align 4, !tbaa !5957, !dbg !5893
	%264 = sub i32  %263, 3, !dbg !5893
	store i32  %264, i32* %..inline.addr.380, align 4, !tbaa !5957, !dbg !5893
	%265 = bitcast [3 x i32]* %..inline.addr.390 to i8*, !dbg !5894
	%266 = getelementptr i8, i8*  %265, i64 4, !dbg !5894
	%267 = bitcast i8*  %266 to i32*, !dbg !5894
	store i32 1, i32*  %267, align 4, !tbaa !5953, !dbg !5894
	br label %L..inline.65219
L..inline.65219:
	%268 = load i32, i32* %..inline.addr.360, align 4, !tbaa !5957, !dbg !5895
	%269 = load %struct._Z6FsGridISt5arrayIdLm12EELi2EE*, %struct._Z6FsGridISt5arrayIdLm12EELi2EE** %..inline.addr.340, align 8, !tbaa !5952, !dbg !5895
	%270 = bitcast %struct._Z6FsGridISt5arrayIdLm12EELi2EE*  %269 to i8*, !dbg !5895
	%271 = getelementptr i8, i8*  %270, i64 268, !dbg !5895
	%272 = bitcast i8*  %271 to i32*, !dbg !5895
	%273 = load i32, i32*  %272, align 4, !tbaa !5953, !dbg !5895
	%274 = icmp slt i32  %268,  %273, !dbg !5895
	br i1  %274, label %L..inline.65236, label %L.B0954, !dbg !5895
L.B0954:
	%275 = load i32, i32* %..inline.addr.380, align 4, !tbaa !5957, !dbg !5895
	%276 = add i32  %275, 3, !dbg !5895
	store i32  %276, i32* %..inline.addr.380, align 4, !tbaa !5957, !dbg !5895
	%277 = bitcast [3 x i32]* %..inline.addr.390 to i8*, !dbg !5896
	%278 = getelementptr i8, i8*  %277, i64 4, !dbg !5896
	%279 = bitcast i8*  %278 to i32*, !dbg !5896
	store i32 -1, i32*  %279, align 4, !tbaa !5953, !dbg !5896
	br label %L..inline.65236
L..inline.65236:
	%280 = load i32, i32* %..inline.addr.370, align 4, !tbaa !5957, !dbg !5897
	%281 = icmp sge i32  %280, 0, !dbg !5897
	br i1  %281, label %L..inline.65238, label %L.B0955, !dbg !5897
L.B0955:
	%282 = load i32, i32* %..inline.addr.380, align 4, !tbaa !5957, !dbg !5897
	%283 = sub i32  %282, 1, !dbg !5897
	store i32  %283, i32* %..inline.addr.380, align 4, !tbaa !5957, !dbg !5897
	%284 = bitcast [3 x i32]* %..inline.addr.390 to i8*, !dbg !5898
	%285 = getelementptr i8, i8*  %284, i64 8, !dbg !5898
	%286 = bitcast i8*  %285 to i32*, !dbg !5898
	store i32 1, i32*  %286, align 4, !tbaa !5953, !dbg !5898
	br label %L..inline.65238
L..inline.65238:
	%287 = load i32, i32* %..inline.addr.370, align 4, !tbaa !5957, !dbg !5899
	%288 = load %struct._Z6FsGridISt5arrayIdLm12EELi2EE*, %struct._Z6FsGridISt5arrayIdLm12EELi2EE** %..inline.addr.340, align 8, !tbaa !5952, !dbg !5899
	%289 = bitcast %struct._Z6FsGridISt5arrayIdLm12EELi2EE*  %288 to i8*, !dbg !5899
	%290 = getelementptr i8, i8*  %289, i64 272, !dbg !5899
	%291 = bitcast i8*  %290 to i32*, !dbg !5899
	%292 = load i32, i32*  %291, align 4, !tbaa !5953, !dbg !5899
	%293 = icmp slt i32  %287,  %292, !dbg !5899
	br i1  %293, label %L..inline.65255, label %L.B0956, !dbg !5899
L.B0956:
	%294 = load i32, i32* %..inline.addr.380, align 4, !tbaa !5957, !dbg !5899
	%295 = add i32  %294, 1, !dbg !5899
	store i32  %295, i32* %..inline.addr.380, align 4, !tbaa !5957, !dbg !5899
	%296 = bitcast [3 x i32]* %..inline.addr.390 to i8*, !dbg !5900
	%297 = getelementptr i8, i8*  %296, i64 8, !dbg !5900
	%298 = bitcast i8*  %297 to i32*, !dbg !5900
	store i32 -1, i32*  %298, align 4, !tbaa !5953, !dbg !5900
	br label %L..inline.65255
L..inline.65255:
	%299 = load i32, i32* %..inline.addr.380, align 4, !tbaa !5957, !dbg !5901
	%300 = icmp eq i32  %299, 13, !dbg !5901
	br i1  %300, label %L..inline.65256, label %L.B0957, !dbg !5901
L.B0957:
	%301 = sext i32  %299 to i64, !dbg !5902
	%302 = load %struct._Z6FsGridISt5arrayIdLm12EELi2EE*, %struct._Z6FsGridISt5arrayIdLm12EELi2EE** %..inline.addr.340, align 8, !tbaa !5952, !dbg !5902
	%303 = bitcast %struct._Z6FsGridISt5arrayIdLm12EELi2EE*  %302 to i8*, !dbg !5902
	%304 = getelementptr i8, i8*  %303, i64 92, !dbg !5902
	%305 = bitcast i8*  %304 to i32*, !dbg !5902
	%306 = getelementptr i32, i32*  %305, i64  %301, !dbg !5902
	%307 = load i32, i32*  %306, align 4, !tbaa !5953, !dbg !5902
	%308 = icmp ne i32  %307, -2, !dbg !5902
	br i1  %308, label %L..inline.65273, label %L.B0958, !dbg !5902
L.B0958:
	%309 = bitcast %struct._ZSt5arrayIdLm12EE** %..inline.addr.400 to i8**, !dbg !5902
	store i8* null, i8**  %309, align 8, !tbaa !5952, !dbg !5902
	br label %L..inline.65460, !dbg !5903
L..inline.65273:
	%310 = load i32, i32* %..inline.addr.380, align 4, !tbaa !5957, !dbg !5904
	%311 = sext i32  %310 to i64, !dbg !5904
	%312 = load %struct._Z6FsGridISt5arrayIdLm12EELi2EE*, %struct._Z6FsGridISt5arrayIdLm12EELi2EE** %..inline.addr.340, align 8, !tbaa !5952, !dbg !5904
	%313 = bitcast %struct._Z6FsGridISt5arrayIdLm12EELi2EE*  %312 to i8*, !dbg !5904
	%314 = getelementptr i8, i8*  %313, i64 92, !dbg !5904
	%315 = bitcast i8*  %314 to i32*, !dbg !5904
	%316 = getelementptr i32, i32*  %315, i64  %311, !dbg !5904
	%317 = load i32, i32*  %316, align 4, !tbaa !5953, !dbg !5904
	%318 = getelementptr i8, i8*  %313, i64 56, !dbg !5904
	%319 = bitcast i8*  %318 to i32*, !dbg !5904
	%320 = load i32, i32*  %319, align 4, !tbaa !5953, !dbg !5904
	%321 = icmp ne i32  %317,  %320, !dbg !5904
	br i1  %321, label %L..inline.65291, label %L.B0959, !dbg !5904
L.B0959:
	%322 = load i32, i32* %..inline.addr.350, align 4, !tbaa !5957, !dbg !5905
	%323 = bitcast [3 x i32]* %..inline.addr.390 to i32*, !dbg !5905
	%324 = load i32, i32*  %323, align 4, !tbaa !5953, !dbg !5905
	%325 = bitcast %struct._Z6FsGridISt5arrayIdLm12EELi2EE*  %312 to i8*, !dbg !5905
	%326 = getelementptr i8, i8*  %325, i64 264, !dbg !5905
	%327 = bitcast i8*  %326 to i32*, !dbg !5905
	%328 = load i32, i32*  %327, align 4, !tbaa !5953, !dbg !5905
	%329 = mul i32  %324,  %328, !dbg !5905
	%330 = add i32  %322,  %329, !dbg !5905
	store i32  %330, i32* %..inline.addr.350, align 4, !tbaa !5957, !dbg !5905
	%331 = load i32, i32* %..inline.addr.360, align 4, !tbaa !5957, !dbg !5906
	%332 = bitcast [3 x i32]* %..inline.addr.390 to i8*, !dbg !5906
	%333 = getelementptr i8, i8*  %332, i64 4, !dbg !5906
	%334 = bitcast i8*  %333 to i32*, !dbg !5906
	%335 = load i32, i32*  %334, align 4, !tbaa !5953, !dbg !5906
	%336 = getelementptr i8, i8*  %325, i64 268, !dbg !5906
	%337 = bitcast i8*  %336 to i32*, !dbg !5906
	%338 = load i32, i32*  %337, align 4, !tbaa !5953, !dbg !5906
	%339 = mul i32  %335,  %338, !dbg !5906
	%340 = add i32  %331,  %339, !dbg !5906
	store i32  %340, i32* %..inline.addr.360, align 4, !tbaa !5957, !dbg !5906
	%341 = load i32, i32* %..inline.addr.370, align 4, !tbaa !5957, !dbg !5907
	%342 = getelementptr i8, i8*  %332, i64 8, !dbg !5907
	%343 = bitcast i8*  %342 to i32*, !dbg !5907
	%344 = load i32, i32*  %343, align 4, !tbaa !5953, !dbg !5907
	%345 = getelementptr i8, i8*  %325, i64 272, !dbg !5907
	%346 = bitcast i8*  %345 to i32*, !dbg !5907
	%347 = load i32, i32*  %346, align 4, !tbaa !5953, !dbg !5907
	%348 = mul i32  %344,  %347, !dbg !5907
	%349 = add i32  %341,  %348, !dbg !5907
	store i32  %349, i32* %..inline.addr.370, align 4, !tbaa !5957, !dbg !5907
	br label %L..inline.65291
L..inline.65291:
	br label %L..inline.65256
L..inline.65256:
	store i64 0, i64* %..inline.addr.410, align 8, !tbaa !5955, !dbg !5908
	%350 = load %struct._Z6FsGridISt5arrayIdLm12EELi2EE*, %struct._Z6FsGridISt5arrayIdLm12EELi2EE** %..inline.addr.340, align 8, !tbaa !5952, !dbg !5908
	%351 = bitcast %struct._Z6FsGridISt5arrayIdLm12EELi2EE*  %350 to i8*, !dbg !5908
	%352 = getelementptr i8, i8*  %351, i64 260, !dbg !5908
	%353 = bitcast i8*  %352 to i32*, !dbg !5908
	%354 = load i32, i32*  %353, align 4, !tbaa !5953, !dbg !5908
	%355 = icmp sle i32  %354, 1, !dbg !5908
	br i1  %355, label %L..inline.65365, label %L.B0960, !dbg !5908
L.B0960:
	%356 = load i32, i32* %..inline.addr.370, align 4, !tbaa !5957, !dbg !5908
	%357 = add i32  %356, 2, !dbg !5908
	%358 = bitcast %struct._Z6FsGridISt5arrayIdLm12EELi2EE*  %350 to i8*, !dbg !5908
	%359 = getelementptr i8, i8*  %358, i64 280, !dbg !5908
	%360 = bitcast i8*  %359 to i32*, !dbg !5908
	%361 = load i32, i32*  %360, align 4, !tbaa !5953, !dbg !5908
	%362 = getelementptr i8, i8*  %358, i64 276, !dbg !5908
	%363 = bitcast i8*  %362 to i32*, !dbg !5908
	%364 = load i32, i32*  %363, align 4, !tbaa !5953, !dbg !5908
	%365 = mul i32  %361,  %364, !dbg !5908
	%366 = mul i32  %357,  %365, !dbg !5908
	%367 = sext i32  %366 to i64, !dbg !5908
	store i64  %367, i64* %..inline.addr.410, align 8, !tbaa !5955, !dbg !5908
	br label %L..inline.65365
L..inline.65365:
	%368 = load %struct._Z6FsGridISt5arrayIdLm12EELi2EE*, %struct._Z6FsGridISt5arrayIdLm12EELi2EE** %..inline.addr.340, align 8, !tbaa !5952, !dbg !5908
	%369 = bitcast %struct._Z6FsGridISt5arrayIdLm12EELi2EE*  %368 to i8*, !dbg !5908
	%370 = getelementptr i8, i8*  %369, i64 256, !dbg !5908
	%371 = bitcast i8*  %370 to i32*, !dbg !5908
	%372 = load i32, i32*  %371, align 4, !tbaa !5953, !dbg !5908
	%373 = icmp sle i32  %372, 1, !dbg !5908
	br i1  %373, label %L..inline.65414, label %L.B0961, !dbg !5908
L.B0961:
	%374 = load i64, i64* %..inline.addr.410, align 8, !tbaa !5955, !dbg !5908
	%375 = bitcast %struct._Z6FsGridISt5arrayIdLm12EELi2EE*  %368 to i8*, !dbg !5908
	%376 = getelementptr i8, i8*  %375, i64 276, !dbg !5908
	%377 = bitcast i8*  %376 to i32*, !dbg !5908
	%378 = load i32, i32*  %377, align 4, !tbaa !5953, !dbg !5908
	%379 = load i32, i32* %..inline.addr.360, align 4, !tbaa !5957, !dbg !5908
	%380 = add i32  %379, 2, !dbg !5908
	%381 = mul i32  %378,  %380, !dbg !5908
	%382 = sext i32  %381 to i64, !dbg !5908
	%383 = add i64  %374,  %382, !dbg !5908
	store i64  %383, i64* %..inline.addr.410, align 8, !tbaa !5955, !dbg !5908
	br label %L..inline.65414
L..inline.65414:
	%384 = load %struct._Z6FsGridISt5arrayIdLm12EELi2EE*, %struct._Z6FsGridISt5arrayIdLm12EELi2EE** %..inline.addr.340, align 8, !tbaa !5952, !dbg !5908
	%385 = bitcast %struct._Z6FsGridISt5arrayIdLm12EELi2EE*  %384 to i8*, !dbg !5908
	%386 = getelementptr i8, i8*  %385, i64 252, !dbg !5908
	%387 = bitcast i8*  %386 to i32*, !dbg !5908
	%388 = load i32, i32*  %387, align 4, !tbaa !5953, !dbg !5908
	%389 = icmp sle i32  %388, 1, !dbg !5908
	%390 = zext i1  %389 to i32, !dbg !5908
	%391 = trunc i32  %390 to i1, !dbg !5908
	%392 = load i64, i64* %..inline.addr.410, align 8, !tbaa !5955, !dbg !5908
	%393 = load i32, i32* %..inline.addr.350, align 4, !tbaa !5957, !dbg !5908
	%394 = sext i32  %393 to i64, !dbg !5908
	%395 = add i64  %394, 2, !dbg !5908
	%396 = add i64  %392,  %395, !dbg !5908
	%397 = select i1  %391, i64  %392, i64  %396, !dbg !5908
	%398 = getelementptr i8, i8*  %385, i64 744, !dbg !5909
	%399 = bitcast i8*  %398 to i8**, !dbg !5909
	%400 = load i8*, i8**  %399, align 8, !tbaa !5952, !dbg !5909
	%401 = mul i64  %397, 96, !dbg !5909
	%402 = getelementptr i8, i8*  %400, i64  %401, !dbg !5909
	%403 = bitcast %struct._ZSt5arrayIdLm12EE** %..inline.addr.400 to i8**, !dbg !5909
	store i8*  %402, i8**  %403, align 8, !tbaa !5952, !dbg !5909
	br label %L..inline.65460
L..inline.65460:
	%404 = load %struct._ZSt5arrayIdLm12EE*, %struct._ZSt5arrayIdLm12EE** %..inline.addr.400, align 8, !tbaa !5952, !dbg !5910
	%405 = bitcast %struct._ZSt5arrayIdLm12EE*  %404 to i8*, !dbg !5910
	call void @llvm.dbg.declare (metadata %struct._ZSt5arrayIdLm12EE** %volGrid0.addr, metadata !5912, metadata !5861), !dbg !4061
	%406 = bitcast %struct._ZSt5arrayIdLm12EE** %volGrid0.addr to i8**, !dbg !5910
	store i8*  %405, i8**  %406, align 8, !tbaa !5952, !dbg !5910
	store double  2.00000000000000000E+0, double* %_T25764528_50871.addr, align 8, !tbaa !5959, !dbg !5913
	%407 = load %struct._Z6FsGridISt5arrayIdLm3EELi2EE*, %struct._Z6FsGridISt5arrayIdLm3EELi2EE** %perBGrid.addr, align 8, !tbaa !5952, !dbg !5913
	%408 = load %struct._Z6FsGridISt5arrayIdLm15EELi2EE*, %struct._Z6FsGridISt5arrayIdLm15EELi2EE** %dPerBGrid.addr, align 8, !tbaa !5952, !dbg !5913
	call void @llvm.dbg.declare (metadata [48 x double]* %perturbedCoefficients.addr, metadata !5915, metadata !5861), !dbg !4061
	%409 = bitcast [48 x double]* %perturbedCoefficients.addr to double*, !dbg !5913
	%410 = load i32, i32* %i.addr, align 4, !tbaa !5957, !dbg !5913
	%411 = load i32, i32* %j.addr, align 4, !tbaa !5957, !dbg !5913
	%412 = load i32, i32* %k.addr, align 4, !tbaa !5957, !dbg !5913
	call void  @_Z26reconstructionCoefficientsR6FsGridISt5arrayIdLm3EELi2EERS_IS0_IdLm15EELi2EEPdiiiRKd (%struct._Z6FsGridISt5arrayIdLm3EELi2EE*  %407, %struct._Z6FsGridISt5arrayIdLm15EELi2EE*  %408, double*  %409, i32  %410, i32  %411, i32  %412, double* %_T25764528_50871.addr), !dbg !5913
	%413 = load double, double*  %409, align 8, !tbaa !5953, !dbg !5916
	%414 = load %struct._ZSt5arrayIdLm12EE*, %struct._ZSt5arrayIdLm12EE** %volGrid0.addr, align 8, !tbaa !5952, !dbg !5916
	%415 = bitcast %struct._ZSt5arrayIdLm12EE*  %414 to double*, !dbg !5916
	store double  %413, double*  %415, align 8, !tbaa !5953, !dbg !5916
	%416 = bitcast [48 x double]* %perturbedCoefficients.addr to i8*, !dbg !5916
	%417 = getelementptr i8, i8*  %416, i64 128, !dbg !5916
	%418 = bitcast i8*  %417 to double*, !dbg !5916
	%419 = load double, double*  %418, align 8, !tbaa !5953, !dbg !5916
	%420 = bitcast %struct._ZSt5arrayIdLm12EE*  %414 to i8*, !dbg !5916
	%421 = getelementptr i8, i8*  %420, i64 8, !dbg !5916
	%422 = bitcast i8*  %421 to double*, !dbg !5916
	store double  %419, double*  %422, align 8, !tbaa !5953, !dbg !5916
	%423 = getelementptr i8, i8*  %416, i64 256, !dbg !5916
	%424 = bitcast i8*  %423 to double*, !dbg !5916
	%425 = load double, double*  %424, align 8, !tbaa !5953, !dbg !5916
	%426 = getelementptr i8, i8*  %420, i64 16, !dbg !5916
	%427 = bitcast i8*  %426 to double*, !dbg !5916
	store double  %425, double*  %427, align 8, !tbaa !5953, !dbg !5916
	%428 = load %struct._Z6FsGridISt5arrayIdLm3EELi2EE*, %struct._Z6FsGridISt5arrayIdLm3EELi2EE** %EGrid.addr, align 8, !tbaa !5952, !dbg !5917
	%429 = bitcast %struct._Z6FsGridISt5arrayIdLm3EELi2EE*  %428 to i8*, !dbg !5917
	%430 = bitcast %struct._Z6FsGridISt5arrayIdLm3EELi2EE** %..inline.addr.450 to i8**, !dbg !5917
	store i8*  %429, i8**  %430, align 8, !tbaa !5952, !dbg !5917
	%431 = load i32, i32* %i.addr, align 4, !tbaa !5957, !dbg !5917
	store i32  %431, i32* %..inline.addr.460, align 4, !tbaa !5957, !dbg !5917
	%432 = load i32, i32* %j.addr, align 4, !tbaa !5957, !dbg !5917
	store i32  %432, i32* %..inline.addr.470, align 4, !tbaa !5957, !dbg !5917
	%433 = load i32, i32* %k.addr, align 4, !tbaa !5957, !dbg !5917
	store i32  %433, i32* %..inline.addr.480, align 4, !tbaa !5957, !dbg !5917
	store i32 13, i32* %..inline.addr.490, align 4, !tbaa !5957, !dbg !5917
	%434 = bitcast [3 x i32]* %..inline.addr.500 to i32*, !dbg !5887
	store i32 0, i32*  %434, align 4, !tbaa !5953, !dbg !5887
	%435 = bitcast [3 x i32]* %..inline.addr.500 to i8*, !dbg !5888
	%436 = getelementptr i8, i8*  %435, i64 4, !dbg !5888
	%437 = bitcast i8*  %436 to i32*, !dbg !5888
	store i32 0, i32*  %437, align 4, !tbaa !5953, !dbg !5888
	%438 = getelementptr i8, i8*  %435, i64 8, !dbg !5888
	%439 = bitcast i8*  %438 to i32*, !dbg !5888
	store i32 0, i32*  %439, align 4, !tbaa !5953, !dbg !5888
	%440 = icmp sge i32  %431, 0, !dbg !5888
	br i1  %440, label %L..inline.65514, label %L.B0962, !dbg !5888
L.B0962:
	store i32 4, i32* %..inline.addr.490, align 4, !tbaa !5957, !dbg !5889
	%441 = bitcast [3 x i32]* %..inline.addr.500 to i32*, !dbg !5890
	store i32 1, i32*  %441, align 4, !tbaa !5953, !dbg !5890
	br label %L..inline.65514
L..inline.65514:
	%442 = load i32, i32* %..inline.addr.460, align 4, !tbaa !5957, !dbg !5891
	%443 = load %struct._Z6FsGridISt5arrayIdLm3EELi2EE*, %struct._Z6FsGridISt5arrayIdLm3EELi2EE** %..inline.addr.450, align 8, !tbaa !5952, !dbg !5891
	%444 = bitcast %struct._Z6FsGridISt5arrayIdLm3EELi2EE*  %443 to i8*, !dbg !5891
	%445 = getelementptr i8, i8*  %444, i64 264, !dbg !5891
	%446 = bitcast i8*  %445 to i32*, !dbg !5891
	%447 = load i32, i32*  %446, align 4, !tbaa !5953, !dbg !5891
	%448 = icmp slt i32  %442,  %447, !dbg !5891
	br i1  %448, label %L..inline.65532, label %L.B0963, !dbg !5891
L.B0963:
	%449 = load i32, i32* %..inline.addr.490, align 4, !tbaa !5957, !dbg !5891
	%450 = add i32  %449, 9, !dbg !5891
	store i32  %450, i32* %..inline.addr.490, align 4, !tbaa !5957, !dbg !5891
	%451 = bitcast [3 x i32]* %..inline.addr.500 to i32*, !dbg !5892
	store i32 -1, i32*  %451, align 4, !tbaa !5953, !dbg !5892
	br label %L..inline.65532
L..inline.65532:
	%452 = load i32, i32* %..inline.addr.470, align 4, !tbaa !5957, !dbg !5893
	%453 = icmp sge i32  %452, 0, !dbg !5893
	br i1  %453, label %L..inline.65534, label %L.B0964, !dbg !5893
L.B0964:
	%454 = load i32, i32* %..inline.addr.490, align 4, !tbaa !5957, !dbg !5893
	%455 = sub i32  %454, 3, !dbg !5893
	store i32  %455, i32* %..inline.addr.490, align 4, !tbaa !5957, !dbg !5893
	%456 = bitcast [3 x i32]* %..inline.addr.500 to i8*, !dbg !5894
	%457 = getelementptr i8, i8*  %456, i64 4, !dbg !5894
	%458 = bitcast i8*  %457 to i32*, !dbg !5894
	store i32 1, i32*  %458, align 4, !tbaa !5953, !dbg !5894
	br label %L..inline.65534
L..inline.65534:
	%459 = load i32, i32* %..inline.addr.470, align 4, !tbaa !5957, !dbg !5895
	%460 = load %struct._Z6FsGridISt5arrayIdLm3EELi2EE*, %struct._Z6FsGridISt5arrayIdLm3EELi2EE** %..inline.addr.450, align 8, !tbaa !5952, !dbg !5895
	%461 = bitcast %struct._Z6FsGridISt5arrayIdLm3EELi2EE*  %460 to i8*, !dbg !5895
	%462 = getelementptr i8, i8*  %461, i64 268, !dbg !5895
	%463 = bitcast i8*  %462 to i32*, !dbg !5895
	%464 = load i32, i32*  %463, align 4, !tbaa !5953, !dbg !5895
	%465 = icmp slt i32  %459,  %464, !dbg !5895
	br i1  %465, label %L..inline.65551, label %L.B0965, !dbg !5895
L.B0965:
	%466 = load i32, i32* %..inline.addr.490, align 4, !tbaa !5957, !dbg !5895
	%467 = add i32  %466, 3, !dbg !5895
	store i32  %467, i32* %..inline.addr.490, align 4, !tbaa !5957, !dbg !5895
	%468 = bitcast [3 x i32]* %..inline.addr.500 to i8*, !dbg !5896
	%469 = getelementptr i8, i8*  %468, i64 4, !dbg !5896
	%470 = bitcast i8*  %469 to i32*, !dbg !5896
	store i32 -1, i32*  %470, align 4, !tbaa !5953, !dbg !5896
	br label %L..inline.65551
L..inline.65551:
	%471 = load i32, i32* %..inline.addr.480, align 4, !tbaa !5957, !dbg !5897
	%472 = icmp sge i32  %471, 0, !dbg !5897
	br i1  %472, label %L..inline.65553, label %L.B0966, !dbg !5897
L.B0966:
	%473 = load i32, i32* %..inline.addr.490, align 4, !tbaa !5957, !dbg !5897
	%474 = sub i32  %473, 1, !dbg !5897
	store i32  %474, i32* %..inline.addr.490, align 4, !tbaa !5957, !dbg !5897
	%475 = bitcast [3 x i32]* %..inline.addr.500 to i8*, !dbg !5898
	%476 = getelementptr i8, i8*  %475, i64 8, !dbg !5898
	%477 = bitcast i8*  %476 to i32*, !dbg !5898
	store i32 1, i32*  %477, align 4, !tbaa !5953, !dbg !5898
	br label %L..inline.65553
L..inline.65553:
	%478 = load i32, i32* %..inline.addr.480, align 4, !tbaa !5957, !dbg !5899
	%479 = load %struct._Z6FsGridISt5arrayIdLm3EELi2EE*, %struct._Z6FsGridISt5arrayIdLm3EELi2EE** %..inline.addr.450, align 8, !tbaa !5952, !dbg !5899
	%480 = bitcast %struct._Z6FsGridISt5arrayIdLm3EELi2EE*  %479 to i8*, !dbg !5899
	%481 = getelementptr i8, i8*  %480, i64 272, !dbg !5899
	%482 = bitcast i8*  %481 to i32*, !dbg !5899
	%483 = load i32, i32*  %482, align 4, !tbaa !5953, !dbg !5899
	%484 = icmp slt i32  %478,  %483, !dbg !5899
	br i1  %484, label %L..inline.65570, label %L.B0967, !dbg !5899
L.B0967:
	%485 = load i32, i32* %..inline.addr.490, align 4, !tbaa !5957, !dbg !5899
	%486 = add i32  %485, 1, !dbg !5899
	store i32  %486, i32* %..inline.addr.490, align 4, !tbaa !5957, !dbg !5899
	%487 = bitcast [3 x i32]* %..inline.addr.500 to i8*, !dbg !5900
	%488 = getelementptr i8, i8*  %487, i64 8, !dbg !5900
	%489 = bitcast i8*  %488 to i32*, !dbg !5900
	store i32 -1, i32*  %489, align 4, !tbaa !5953, !dbg !5900
	br label %L..inline.65570
L..inline.65570:
	%490 = load i32, i32* %..inline.addr.490, align 4, !tbaa !5957, !dbg !5901
	%491 = icmp eq i32  %490, 13, !dbg !5901
	br i1  %491, label %L..inline.65571, label %L.B0968, !dbg !5901
L.B0968:
	%492 = sext i32  %490 to i64, !dbg !5902
	%493 = load %struct._Z6FsGridISt5arrayIdLm3EELi2EE*, %struct._Z6FsGridISt5arrayIdLm3EELi2EE** %..inline.addr.450, align 8, !tbaa !5952, !dbg !5902
	%494 = bitcast %struct._Z6FsGridISt5arrayIdLm3EELi2EE*  %493 to i8*, !dbg !5902
	%495 = getelementptr i8, i8*  %494, i64 92, !dbg !5902
	%496 = bitcast i8*  %495 to i32*, !dbg !5902
	%497 = getelementptr i32, i32*  %496, i64  %492, !dbg !5902
	%498 = load i32, i32*  %497, align 4, !tbaa !5953, !dbg !5902
	%499 = icmp ne i32  %498, -2, !dbg !5902
	br i1  %499, label %L..inline.65588, label %L.B0969, !dbg !5902
L.B0969:
	%500 = bitcast %struct._ZSt5arrayIdLm3EE** %..inline.addr.510 to i8**, !dbg !5902
	store i8* null, i8**  %500, align 8, !tbaa !5952, !dbg !5902
	br label %L..inline.65775, !dbg !5903
L..inline.65588:
	%501 = load i32, i32* %..inline.addr.490, align 4, !tbaa !5957, !dbg !5904
	%502 = sext i32  %501 to i64, !dbg !5904
	%503 = load %struct._Z6FsGridISt5arrayIdLm3EELi2EE*, %struct._Z6FsGridISt5arrayIdLm3EELi2EE** %..inline.addr.450, align 8, !tbaa !5952, !dbg !5904
	%504 = bitcast %struct._Z6FsGridISt5arrayIdLm3EELi2EE*  %503 to i8*, !dbg !5904
	%505 = getelementptr i8, i8*  %504, i64 92, !dbg !5904
	%506 = bitcast i8*  %505 to i32*, !dbg !5904
	%507 = getelementptr i32, i32*  %506, i64  %502, !dbg !5904
	%508 = load i32, i32*  %507, align 4, !tbaa !5953, !dbg !5904
	%509 = getelementptr i8, i8*  %504, i64 56, !dbg !5904
	%510 = bitcast i8*  %509 to i32*, !dbg !5904
	%511 = load i32, i32*  %510, align 4, !tbaa !5953, !dbg !5904
	%512 = icmp ne i32  %508,  %511, !dbg !5904
	br i1  %512, label %L..inline.65606, label %L.B0970, !dbg !5904
L.B0970:
	%513 = load i32, i32* %..inline.addr.460, align 4, !tbaa !5957, !dbg !5905
	%514 = bitcast [3 x i32]* %..inline.addr.500 to i32*, !dbg !5905
	%515 = load i32, i32*  %514, align 4, !tbaa !5953, !dbg !5905
	%516 = bitcast %struct._Z6FsGridISt5arrayIdLm3EELi2EE*  %503 to i8*, !dbg !5905
	%517 = getelementptr i8, i8*  %516, i64 264, !dbg !5905
	%518 = bitcast i8*  %517 to i32*, !dbg !5905
	%519 = load i32, i32*  %518, align 4, !tbaa !5953, !dbg !5905
	%520 = mul i32  %515,  %519, !dbg !5905
	%521 = add i32  %513,  %520, !dbg !5905
	store i32  %521, i32* %..inline.addr.460, align 4, !tbaa !5957, !dbg !5905
	%522 = load i32, i32* %..inline.addr.470, align 4, !tbaa !5957, !dbg !5906
	%523 = bitcast [3 x i32]* %..inline.addr.500 to i8*, !dbg !5906
	%524 = getelementptr i8, i8*  %523, i64 4, !dbg !5906
	%525 = bitcast i8*  %524 to i32*, !dbg !5906
	%526 = load i32, i32*  %525, align 4, !tbaa !5953, !dbg !5906
	%527 = getelementptr i8, i8*  %516, i64 268, !dbg !5906
	%528 = bitcast i8*  %527 to i32*, !dbg !5906
	%529 = load i32, i32*  %528, align 4, !tbaa !5953, !dbg !5906
	%530 = mul i32  %526,  %529, !dbg !5906
	%531 = add i32  %522,  %530, !dbg !5906
	store i32  %531, i32* %..inline.addr.470, align 4, !tbaa !5957, !dbg !5906
	%532 = load i32, i32* %..inline.addr.480, align 4, !tbaa !5957, !dbg !5907
	%533 = getelementptr i8, i8*  %523, i64 8, !dbg !5907
	%534 = bitcast i8*  %533 to i32*, !dbg !5907
	%535 = load i32, i32*  %534, align 4, !tbaa !5953, !dbg !5907
	%536 = getelementptr i8, i8*  %516, i64 272, !dbg !5907
	%537 = bitcast i8*  %536 to i32*, !dbg !5907
	%538 = load i32, i32*  %537, align 4, !tbaa !5953, !dbg !5907
	%539 = mul i32  %535,  %538, !dbg !5907
	%540 = add i32  %532,  %539, !dbg !5907
	store i32  %540, i32* %..inline.addr.480, align 4, !tbaa !5957, !dbg !5907
	br label %L..inline.65606
L..inline.65606:
	br label %L..inline.65571
L..inline.65571:
	store i64 0, i64* %..inline.addr.520, align 8, !tbaa !5955, !dbg !5908
	%541 = load %struct._Z6FsGridISt5arrayIdLm3EELi2EE*, %struct._Z6FsGridISt5arrayIdLm3EELi2EE** %..inline.addr.450, align 8, !tbaa !5952, !dbg !5908
	%542 = bitcast %struct._Z6FsGridISt5arrayIdLm3EELi2EE*  %541 to i8*, !dbg !5908
	%543 = getelementptr i8, i8*  %542, i64 260, !dbg !5908
	%544 = bitcast i8*  %543 to i32*, !dbg !5908
	%545 = load i32, i32*  %544, align 4, !tbaa !5953, !dbg !5908
	%546 = icmp sle i32  %545, 1, !dbg !5908
	br i1  %546, label %L..inline.65680, label %L.B0971, !dbg !5908
L.B0971:
	%547 = load i32, i32* %..inline.addr.480, align 4, !tbaa !5957, !dbg !5908
	%548 = add i32  %547, 2, !dbg !5908
	%549 = bitcast %struct._Z6FsGridISt5arrayIdLm3EELi2EE*  %541 to i8*, !dbg !5908
	%550 = getelementptr i8, i8*  %549, i64 280, !dbg !5908
	%551 = bitcast i8*  %550 to i32*, !dbg !5908
	%552 = load i32, i32*  %551, align 4, !tbaa !5953, !dbg !5908
	%553 = getelementptr i8, i8*  %549, i64 276, !dbg !5908
	%554 = bitcast i8*  %553 to i32*, !dbg !5908
	%555 = load i32, i32*  %554, align 4, !tbaa !5953, !dbg !5908
	%556 = mul i32  %552,  %555, !dbg !5908
	%557 = mul i32  %548,  %556, !dbg !5908
	%558 = sext i32  %557 to i64, !dbg !5908
	store i64  %558, i64* %..inline.addr.520, align 8, !tbaa !5955, !dbg !5908
	br label %L..inline.65680
L..inline.65680:
	%559 = load %struct._Z6FsGridISt5arrayIdLm3EELi2EE*, %struct._Z6FsGridISt5arrayIdLm3EELi2EE** %..inline.addr.450, align 8, !tbaa !5952, !dbg !5908
	%560 = bitcast %struct._Z6FsGridISt5arrayIdLm3EELi2EE*  %559 to i8*, !dbg !5908
	%561 = getelementptr i8, i8*  %560, i64 256, !dbg !5908
	%562 = bitcast i8*  %561 to i32*, !dbg !5908
	%563 = load i32, i32*  %562, align 4, !tbaa !5953, !dbg !5908
	%564 = icmp sle i32  %563, 1, !dbg !5908
	br i1  %564, label %L..inline.65729, label %L.B0972, !dbg !5908
L.B0972:
	%565 = load i64, i64* %..inline.addr.520, align 8, !tbaa !5955, !dbg !5908
	%566 = bitcast %struct._Z6FsGridISt5arrayIdLm3EELi2EE*  %559 to i8*, !dbg !5908
	%567 = getelementptr i8, i8*  %566, i64 276, !dbg !5908
	%568 = bitcast i8*  %567 to i32*, !dbg !5908
	%569 = load i32, i32*  %568, align 4, !tbaa !5953, !dbg !5908
	%570 = load i32, i32* %..inline.addr.470, align 4, !tbaa !5957, !dbg !5908
	%571 = add i32  %570, 2, !dbg !5908
	%572 = mul i32  %569,  %571, !dbg !5908
	%573 = sext i32  %572 to i64, !dbg !5908
	%574 = add i64  %565,  %573, !dbg !5908
	store i64  %574, i64* %..inline.addr.520, align 8, !tbaa !5955, !dbg !5908
	br label %L..inline.65729
L..inline.65729:
	%575 = load %struct._Z6FsGridISt5arrayIdLm3EELi2EE*, %struct._Z6FsGridISt5arrayIdLm3EELi2EE** %..inline.addr.450, align 8, !tbaa !5952, !dbg !5908
	%576 = bitcast %struct._Z6FsGridISt5arrayIdLm3EELi2EE*  %575 to i8*, !dbg !5908
	%577 = getelementptr i8, i8*  %576, i64 252, !dbg !5908
	%578 = bitcast i8*  %577 to i32*, !dbg !5908
	%579 = load i32, i32*  %578, align 4, !tbaa !5953, !dbg !5908
	%580 = icmp sle i32  %579, 1, !dbg !5908
	%581 = zext i1  %580 to i32, !dbg !5908
	%582 = trunc i32  %581 to i1, !dbg !5908
	%583 = load i64, i64* %..inline.addr.520, align 8, !tbaa !5955, !dbg !5908
	%584 = load i32, i32* %..inline.addr.460, align 4, !tbaa !5957, !dbg !5908
	%585 = sext i32  %584 to i64, !dbg !5908
	%586 = add i64  %585, 2, !dbg !5908
	%587 = add i64  %583,  %586, !dbg !5908
	%588 = select i1  %582, i64  %583, i64  %587, !dbg !5908
	%589 = getelementptr i8, i8*  %576, i64 744, !dbg !5909
	%590 = bitcast i8*  %589 to i8**, !dbg !5909
	%591 = load i8*, i8**  %590, align 8, !tbaa !5952, !dbg !5909
	%592 = mul i64  %588, 24, !dbg !5909
	%593 = getelementptr i8, i8*  %591, i64  %592, !dbg !5909
	%594 = bitcast %struct._ZSt5arrayIdLm3EE** %..inline.addr.510 to i8**, !dbg !5909
	store i8*  %593, i8**  %594, align 8, !tbaa !5952, !dbg !5909
	br label %L..inline.65775
L..inline.65775:
	%595 = load %struct._ZSt5arrayIdLm3EE*, %struct._ZSt5arrayIdLm3EE** %..inline.addr.510, align 8, !tbaa !5952, !dbg !5910
	%596 = bitcast %struct._ZSt5arrayIdLm3EE*  %595 to i8*, !dbg !5910
	call void @llvm.dbg.declare (metadata %struct._ZSt5arrayIdLm3EE** %EGrid_i1j1k1.addr, metadata !5918, metadata !5861), !dbg !4061
	%597 = bitcast %struct._ZSt5arrayIdLm3EE** %EGrid_i1j1k1.addr to i8**, !dbg !5910
	store i8*  %596, i8**  %597, align 8, !tbaa !5952, !dbg !5910
	%598 = load %struct._Z6FsGridIN7fsgrids9technicalELi2EE*, %struct._Z6FsGridIN7fsgrids9technicalELi2EE** %technicalGrid.addr, align 8, !tbaa !5952, !dbg !5919
	%599 = bitcast %struct._Z6FsGridIN7fsgrids9technicalELi2EE*  %598 to i8*, !dbg !5919
	%600 = bitcast %struct._Z6FsGridIN7fsgrids9technicalELi2EE** %..inline.addr.540 to i8**, !dbg !5919
	store i8*  %599, i8**  %600, align 8, !tbaa !5952, !dbg !5919
	%601 = load i32, i32* %i.addr, align 4, !tbaa !5957, !dbg !5919
	store i32  %601, i32* %..inline.addr.550, align 4, !tbaa !5957, !dbg !5919
	%602 = load i32, i32* %j.addr, align 4, !tbaa !5957, !dbg !5919
	store i32  %602, i32* %..inline.addr.560, align 4, !tbaa !5957, !dbg !5919
	%603 = load i32, i32* %k.addr, align 4, !tbaa !5957, !dbg !5919
	store i32  %603, i32* %..inline.addr.570, align 4, !tbaa !5957, !dbg !5919
	store i32 13, i32* %..inline.addr.580, align 4, !tbaa !5957, !dbg !5919
	%604 = bitcast [3 x i32]* %..inline.addr.590 to i32*, !dbg !5887
	store i32 0, i32*  %604, align 4, !tbaa !5953, !dbg !5887
	%605 = bitcast [3 x i32]* %..inline.addr.590 to i8*, !dbg !5888
	%606 = getelementptr i8, i8*  %605, i64 4, !dbg !5888
	%607 = bitcast i8*  %606 to i32*, !dbg !5888
	store i32 0, i32*  %607, align 4, !tbaa !5953, !dbg !5888
	%608 = getelementptr i8, i8*  %605, i64 8, !dbg !5888
	%609 = bitcast i8*  %608 to i32*, !dbg !5888
	store i32 0, i32*  %609, align 4, !tbaa !5953, !dbg !5888
	%610 = icmp sge i32  %601, 0, !dbg !5888
	br i1  %610, label %L..inline.65781, label %L.B0973, !dbg !5888
L.B0973:
	store i32 4, i32* %..inline.addr.580, align 4, !tbaa !5957, !dbg !5889
	%611 = bitcast [3 x i32]* %..inline.addr.590 to i32*, !dbg !5890
	store i32 1, i32*  %611, align 4, !tbaa !5953, !dbg !5890
	br label %L..inline.65781
L..inline.65781:
	%612 = load i32, i32* %..inline.addr.550, align 4, !tbaa !5957, !dbg !5891
	%613 = load %struct._Z6FsGridIN7fsgrids9technicalELi2EE*, %struct._Z6FsGridIN7fsgrids9technicalELi2EE** %..inline.addr.540, align 8, !tbaa !5952, !dbg !5891
	%614 = bitcast %struct._Z6FsGridIN7fsgrids9technicalELi2EE*  %613 to i8*, !dbg !5891
	%615 = getelementptr i8, i8*  %614, i64 264, !dbg !5891
	%616 = bitcast i8*  %615 to i32*, !dbg !5891
	%617 = load i32, i32*  %616, align 4, !tbaa !5953, !dbg !5891
	%618 = icmp slt i32  %612,  %617, !dbg !5891
	br i1  %618, label %L..inline.65799, label %L.B0974, !dbg !5891
L.B0974:
	%619 = load i32, i32* %..inline.addr.580, align 4, !tbaa !5957, !dbg !5891
	%620 = add i32  %619, 9, !dbg !5891
	store i32  %620, i32* %..inline.addr.580, align 4, !tbaa !5957, !dbg !5891
	%621 = bitcast [3 x i32]* %..inline.addr.590 to i32*, !dbg !5892
	store i32 -1, i32*  %621, align 4, !tbaa !5953, !dbg !5892
	br label %L..inline.65799
L..inline.65799:
	%622 = load i32, i32* %..inline.addr.560, align 4, !tbaa !5957, !dbg !5893
	%623 = icmp sge i32  %622, 0, !dbg !5893
	br i1  %623, label %L..inline.65801, label %L.B0975, !dbg !5893
L.B0975:
	%624 = load i32, i32* %..inline.addr.580, align 4, !tbaa !5957, !dbg !5893
	%625 = sub i32  %624, 3, !dbg !5893
	store i32  %625, i32* %..inline.addr.580, align 4, !tbaa !5957, !dbg !5893
	%626 = bitcast [3 x i32]* %..inline.addr.590 to i8*, !dbg !5894
	%627 = getelementptr i8, i8*  %626, i64 4, !dbg !5894
	%628 = bitcast i8*  %627 to i32*, !dbg !5894
	store i32 1, i32*  %628, align 4, !tbaa !5953, !dbg !5894
	br label %L..inline.65801
L..inline.65801:
	%629 = load i32, i32* %..inline.addr.560, align 4, !tbaa !5957, !dbg !5895
	%630 = load %struct._Z6FsGridIN7fsgrids9technicalELi2EE*, %struct._Z6FsGridIN7fsgrids9technicalELi2EE** %..inline.addr.540, align 8, !tbaa !5952, !dbg !5895
	%631 = bitcast %struct._Z6FsGridIN7fsgrids9technicalELi2EE*  %630 to i8*, !dbg !5895
	%632 = getelementptr i8, i8*  %631, i64 268, !dbg !5895
	%633 = bitcast i8*  %632 to i32*, !dbg !5895
	%634 = load i32, i32*  %633, align 4, !tbaa !5953, !dbg !5895
	%635 = icmp slt i32  %629,  %634, !dbg !5895
	br i1  %635, label %L..inline.65818, label %L.B0976, !dbg !5895
L.B0976:
	%636 = load i32, i32* %..inline.addr.580, align 4, !tbaa !5957, !dbg !5895
	%637 = add i32  %636, 3, !dbg !5895
	store i32  %637, i32* %..inline.addr.580, align 4, !tbaa !5957, !dbg !5895
	%638 = bitcast [3 x i32]* %..inline.addr.590 to i8*, !dbg !5896
	%639 = getelementptr i8, i8*  %638, i64 4, !dbg !5896
	%640 = bitcast i8*  %639 to i32*, !dbg !5896
	store i32 -1, i32*  %640, align 4, !tbaa !5953, !dbg !5896
	br label %L..inline.65818
L..inline.65818:
	%641 = load i32, i32* %..inline.addr.570, align 4, !tbaa !5957, !dbg !5897
	%642 = icmp sge i32  %641, 0, !dbg !5897
	br i1  %642, label %L..inline.65820, label %L.B0977, !dbg !5897
L.B0977:
	%643 = load i32, i32* %..inline.addr.580, align 4, !tbaa !5957, !dbg !5897
	%644 = sub i32  %643, 1, !dbg !5897
	store i32  %644, i32* %..inline.addr.580, align 4, !tbaa !5957, !dbg !5897
	%645 = bitcast [3 x i32]* %..inline.addr.590 to i8*, !dbg !5898
	%646 = getelementptr i8, i8*  %645, i64 8, !dbg !5898
	%647 = bitcast i8*  %646 to i32*, !dbg !5898
	store i32 1, i32*  %647, align 4, !tbaa !5953, !dbg !5898
	br label %L..inline.65820
L..inline.65820:
	%648 = load i32, i32* %..inline.addr.570, align 4, !tbaa !5957, !dbg !5899
	%649 = load %struct._Z6FsGridIN7fsgrids9technicalELi2EE*, %struct._Z6FsGridIN7fsgrids9technicalELi2EE** %..inline.addr.540, align 8, !tbaa !5952, !dbg !5899
	%650 = bitcast %struct._Z6FsGridIN7fsgrids9technicalELi2EE*  %649 to i8*, !dbg !5899
	%651 = getelementptr i8, i8*  %650, i64 272, !dbg !5899
	%652 = bitcast i8*  %651 to i32*, !dbg !5899
	%653 = load i32, i32*  %652, align 4, !tbaa !5953, !dbg !5899
	%654 = icmp slt i32  %648,  %653, !dbg !5899
	br i1  %654, label %L..inline.65837, label %L.B0978, !dbg !5899
L.B0978:
	%655 = load i32, i32* %..inline.addr.580, align 4, !tbaa !5957, !dbg !5899
	%656 = add i32  %655, 1, !dbg !5899
	store i32  %656, i32* %..inline.addr.580, align 4, !tbaa !5957, !dbg !5899
	%657 = bitcast [3 x i32]* %..inline.addr.590 to i8*, !dbg !5900
	%658 = getelementptr i8, i8*  %657, i64 8, !dbg !5900
	%659 = bitcast i8*  %658 to i32*, !dbg !5900
	store i32 -1, i32*  %659, align 4, !tbaa !5953, !dbg !5900
	br label %L..inline.65837
L..inline.65837:
	%660 = load i32, i32* %..inline.addr.580, align 4, !tbaa !5957, !dbg !5901
	%661 = icmp eq i32  %660, 13, !dbg !5901
	br i1  %661, label %L..inline.65838, label %L.B0979, !dbg !5901
L.B0979:
	%662 = sext i32  %660 to i64, !dbg !5902
	%663 = load %struct._Z6FsGridIN7fsgrids9technicalELi2EE*, %struct._Z6FsGridIN7fsgrids9technicalELi2EE** %..inline.addr.540, align 8, !tbaa !5952, !dbg !5902
	%664 = bitcast %struct._Z6FsGridIN7fsgrids9technicalELi2EE*  %663 to i8*, !dbg !5902
	%665 = getelementptr i8, i8*  %664, i64 92, !dbg !5902
	%666 = bitcast i8*  %665 to i32*, !dbg !5902
	%667 = getelementptr i32, i32*  %666, i64  %662, !dbg !5902
	%668 = load i32, i32*  %667, align 4, !tbaa !5953, !dbg !5902
	%669 = icmp ne i32  %668, -2, !dbg !5902
	br i1  %669, label %L..inline.65855, label %L.B0980, !dbg !5902
L.B0980:
	%670 = bitcast %struct._ZN7fsgrids9technicalE** %..inline.addr.600 to i8**, !dbg !5902
	store i8* null, i8**  %670, align 8, !tbaa !5952, !dbg !5902
	br label %L..inline.66042, !dbg !5903
L..inline.65855:
	%671 = load i32, i32* %..inline.addr.580, align 4, !tbaa !5957, !dbg !5904
	%672 = sext i32  %671 to i64, !dbg !5904
	%673 = load %struct._Z6FsGridIN7fsgrids9technicalELi2EE*, %struct._Z6FsGridIN7fsgrids9technicalELi2EE** %..inline.addr.540, align 8, !tbaa !5952, !dbg !5904
	%674 = bitcast %struct._Z6FsGridIN7fsgrids9technicalELi2EE*  %673 to i8*, !dbg !5904
	%675 = getelementptr i8, i8*  %674, i64 92, !dbg !5904
	%676 = bitcast i8*  %675 to i32*, !dbg !5904
	%677 = getelementptr i32, i32*  %676, i64  %672, !dbg !5904
	%678 = load i32, i32*  %677, align 4, !tbaa !5953, !dbg !5904
	%679 = getelementptr i8, i8*  %674, i64 56, !dbg !5904
	%680 = bitcast i8*  %679 to i32*, !dbg !5904
	%681 = load i32, i32*  %680, align 4, !tbaa !5953, !dbg !5904
	%682 = icmp ne i32  %678,  %681, !dbg !5904
	br i1  %682, label %L..inline.65873, label %L.B0981, !dbg !5904
L.B0981:
	%683 = load i32, i32* %..inline.addr.550, align 4, !tbaa !5957, !dbg !5905
	%684 = bitcast [3 x i32]* %..inline.addr.590 to i32*, !dbg !5905
	%685 = load i32, i32*  %684, align 4, !tbaa !5953, !dbg !5905
	%686 = bitcast %struct._Z6FsGridIN7fsgrids9technicalELi2EE*  %673 to i8*, !dbg !5905
	%687 = getelementptr i8, i8*  %686, i64 264, !dbg !5905
	%688 = bitcast i8*  %687 to i32*, !dbg !5905
	%689 = load i32, i32*  %688, align 4, !tbaa !5953, !dbg !5905
	%690 = mul i32  %685,  %689, !dbg !5905
	%691 = add i32  %683,  %690, !dbg !5905
	store i32  %691, i32* %..inline.addr.550, align 4, !tbaa !5957, !dbg !5905
	%692 = load i32, i32* %..inline.addr.560, align 4, !tbaa !5957, !dbg !5906
	%693 = bitcast [3 x i32]* %..inline.addr.590 to i8*, !dbg !5906
	%694 = getelementptr i8, i8*  %693, i64 4, !dbg !5906
	%695 = bitcast i8*  %694 to i32*, !dbg !5906
	%696 = load i32, i32*  %695, align 4, !tbaa !5953, !dbg !5906
	%697 = getelementptr i8, i8*  %686, i64 268, !dbg !5906
	%698 = bitcast i8*  %697 to i32*, !dbg !5906
	%699 = load i32, i32*  %698, align 4, !tbaa !5953, !dbg !5906
	%700 = mul i32  %696,  %699, !dbg !5906
	%701 = add i32  %692,  %700, !dbg !5906
	store i32  %701, i32* %..inline.addr.560, align 4, !tbaa !5957, !dbg !5906
	%702 = load i32, i32* %..inline.addr.570, align 4, !tbaa !5957, !dbg !5907
	%703 = getelementptr i8, i8*  %693, i64 8, !dbg !5907
	%704 = bitcast i8*  %703 to i32*, !dbg !5907
	%705 = load i32, i32*  %704, align 4, !tbaa !5953, !dbg !5907
	%706 = getelementptr i8, i8*  %686, i64 272, !dbg !5907
	%707 = bitcast i8*  %706 to i32*, !dbg !5907
	%708 = load i32, i32*  %707, align 4, !tbaa !5953, !dbg !5907
	%709 = mul i32  %705,  %708, !dbg !5907
	%710 = add i32  %702,  %709, !dbg !5907
	store i32  %710, i32* %..inline.addr.570, align 4, !tbaa !5957, !dbg !5907
	br label %L..inline.65873
L..inline.65873:
	br label %L..inline.65838
L..inline.65838:
	store i64 0, i64* %..inline.addr.610, align 8, !tbaa !5955, !dbg !5908
	%711 = load %struct._Z6FsGridIN7fsgrids9technicalELi2EE*, %struct._Z6FsGridIN7fsgrids9technicalELi2EE** %..inline.addr.540, align 8, !tbaa !5952, !dbg !5908
	%712 = bitcast %struct._Z6FsGridIN7fsgrids9technicalELi2EE*  %711 to i8*, !dbg !5908
	%713 = getelementptr i8, i8*  %712, i64 260, !dbg !5908
	%714 = bitcast i8*  %713 to i32*, !dbg !5908
	%715 = load i32, i32*  %714, align 4, !tbaa !5953, !dbg !5908
	%716 = icmp sle i32  %715, 1, !dbg !5908
	br i1  %716, label %L..inline.65947, label %L.B0982, !dbg !5908
L.B0982:
	%717 = load i32, i32* %..inline.addr.570, align 4, !tbaa !5957, !dbg !5908
	%718 = add i32  %717, 2, !dbg !5908
	%719 = bitcast %struct._Z6FsGridIN7fsgrids9technicalELi2EE*  %711 to i8*, !dbg !5908
	%720 = getelementptr i8, i8*  %719, i64 280, !dbg !5908
	%721 = bitcast i8*  %720 to i32*, !dbg !5908
	%722 = load i32, i32*  %721, align 4, !tbaa !5953, !dbg !5908
	%723 = getelementptr i8, i8*  %719, i64 276, !dbg !5908
	%724 = bitcast i8*  %723 to i32*, !dbg !5908
	%725 = load i32, i32*  %724, align 4, !tbaa !5953, !dbg !5908
	%726 = mul i32  %722,  %725, !dbg !5908
	%727 = mul i32  %718,  %726, !dbg !5908
	%728 = sext i32  %727 to i64, !dbg !5908
	store i64  %728, i64* %..inline.addr.610, align 8, !tbaa !5955, !dbg !5908
	br label %L..inline.65947
L..inline.65947:
	%729 = load %struct._Z6FsGridIN7fsgrids9technicalELi2EE*, %struct._Z6FsGridIN7fsgrids9technicalELi2EE** %..inline.addr.540, align 8, !tbaa !5952, !dbg !5908
	%730 = bitcast %struct._Z6FsGridIN7fsgrids9technicalELi2EE*  %729 to i8*, !dbg !5908
	%731 = getelementptr i8, i8*  %730, i64 256, !dbg !5908
	%732 = bitcast i8*  %731 to i32*, !dbg !5908
	%733 = load i32, i32*  %732, align 4, !tbaa !5953, !dbg !5908
	%734 = icmp sle i32  %733, 1, !dbg !5908
	br i1  %734, label %L..inline.65996, label %L.B0983, !dbg !5908
L.B0983:
	%735 = load i64, i64* %..inline.addr.610, align 8, !tbaa !5955, !dbg !5908
	%736 = bitcast %struct._Z6FsGridIN7fsgrids9technicalELi2EE*  %729 to i8*, !dbg !5908
	%737 = getelementptr i8, i8*  %736, i64 276, !dbg !5908
	%738 = bitcast i8*  %737 to i32*, !dbg !5908
	%739 = load i32, i32*  %738, align 4, !tbaa !5953, !dbg !5908
	%740 = load i32, i32* %..inline.addr.560, align 4, !tbaa !5957, !dbg !5908
	%741 = add i32  %740, 2, !dbg !5908
	%742 = mul i32  %739,  %741, !dbg !5908
	%743 = sext i32  %742 to i64, !dbg !5908
	%744 = add i64  %735,  %743, !dbg !5908
	store i64  %744, i64* %..inline.addr.610, align 8, !tbaa !5955, !dbg !5908
	br label %L..inline.65996
L..inline.65996:
	%745 = load %struct._Z6FsGridIN7fsgrids9technicalELi2EE*, %struct._Z6FsGridIN7fsgrids9technicalELi2EE** %..inline.addr.540, align 8, !tbaa !5952, !dbg !5908
	%746 = bitcast %struct._Z6FsGridIN7fsgrids9technicalELi2EE*  %745 to i8*, !dbg !5908
	%747 = getelementptr i8, i8*  %746, i64 252, !dbg !5908
	%748 = bitcast i8*  %747 to i32*, !dbg !5908
	%749 = load i32, i32*  %748, align 4, !tbaa !5953, !dbg !5908
	%750 = icmp sle i32  %749, 1, !dbg !5908
	%751 = zext i1  %750 to i32, !dbg !5908
	%752 = trunc i32  %751 to i1, !dbg !5908
	%753 = load i64, i64* %..inline.addr.610, align 8, !tbaa !5955, !dbg !5908
	%754 = load i32, i32* %..inline.addr.550, align 4, !tbaa !5957, !dbg !5908
	%755 = sext i32  %754 to i64, !dbg !5908
	%756 = add i64  %755, 2, !dbg !5908
	%757 = add i64  %753,  %756, !dbg !5908
	%758 = select i1  %752, i64  %753, i64  %757, !dbg !5908
	%759 = getelementptr i8, i8*  %746, i64 744, !dbg !5909
	%760 = bitcast i8*  %759 to i8**, !dbg !5909
	%761 = load i8*, i8**  %760, align 8, !tbaa !5952, !dbg !5909
	%762 = mul i64  %758, 32, !dbg !5909
	%763 = getelementptr i8, i8*  %761, i64  %762, !dbg !5909
	%764 = bitcast %struct._ZN7fsgrids9technicalE** %..inline.addr.600 to i8**, !dbg !5909
	store i8*  %763, i8**  %764, align 8, !tbaa !5952, !dbg !5909
	br label %L..inline.66042
L..inline.66042:
	%765 = load %struct._ZN7fsgrids9technicalE*, %struct._ZN7fsgrids9technicalE** %..inline.addr.600, align 8, !tbaa !5952, !dbg !5910
	%766 = bitcast %struct._ZN7fsgrids9technicalE*  %765 to i32*, !dbg !5910
	%767 = load i32, i32*  %766, align 4, !tbaa !5953, !dbg !5910
	%768 = icmp eq i32  %767, 1, !dbg !5910
	br i1  %768, label %L.B0014, label %L.B0984, !dbg !5910
L.B0984:
	%769 = load %struct._Z6FsGridIN7fsgrids9technicalELi2EE*, %struct._Z6FsGridIN7fsgrids9technicalELi2EE** %technicalGrid.addr, align 8, !tbaa !5952, !dbg !5919
	%770 = bitcast %struct._Z6FsGridIN7fsgrids9technicalELi2EE*  %769 to i8*, !dbg !5919
	%771 = bitcast %struct._Z6FsGridIN7fsgrids9technicalELi2EE** %..inline.addr.620 to i8**, !dbg !5919
	store i8*  %770, i8**  %771, align 8, !tbaa !5952, !dbg !5919
	%772 = load i32, i32* %i.addr, align 4, !tbaa !5957, !dbg !5919
	store i32  %772, i32* %..inline.addr.630, align 4, !tbaa !5957, !dbg !5919
	%773 = load i32, i32* %j.addr, align 4, !tbaa !5957, !dbg !5919
	store i32  %773, i32* %..inline.addr.640, align 4, !tbaa !5957, !dbg !5919
	%774 = load i32, i32* %k.addr, align 4, !tbaa !5957, !dbg !5919
	store i32  %774, i32* %..inline.addr.650, align 4, !tbaa !5957, !dbg !5919
	store i32 13, i32* %..inline.addr.660, align 4, !tbaa !5957, !dbg !5919
	%775 = bitcast [3 x i32]* %..inline.addr.670 to i32*, !dbg !5887
	store i32 0, i32*  %775, align 4, !tbaa !5953, !dbg !5887
	%776 = bitcast [3 x i32]* %..inline.addr.670 to i8*, !dbg !5888
	%777 = getelementptr i8, i8*  %776, i64 4, !dbg !5888
	%778 = bitcast i8*  %777 to i32*, !dbg !5888
	store i32 0, i32*  %778, align 4, !tbaa !5953, !dbg !5888
	%779 = getelementptr i8, i8*  %776, i64 8, !dbg !5888
	%780 = bitcast i8*  %779 to i32*, !dbg !5888
	store i32 0, i32*  %780, align 4, !tbaa !5953, !dbg !5888
	%781 = icmp sge i32  %772, 0, !dbg !5888
	br i1  %781, label %L..inline.66048, label %L.B0985, !dbg !5888
L.B0985:
	store i32 4, i32* %..inline.addr.660, align 4, !tbaa !5957, !dbg !5889
	%782 = bitcast [3 x i32]* %..inline.addr.670 to i32*, !dbg !5890
	store i32 1, i32*  %782, align 4, !tbaa !5953, !dbg !5890
	br label %L..inline.66048
L..inline.66048:
	%783 = load i32, i32* %..inline.addr.630, align 4, !tbaa !5957, !dbg !5891
	%784 = load %struct._Z6FsGridIN7fsgrids9technicalELi2EE*, %struct._Z6FsGridIN7fsgrids9technicalELi2EE** %..inline.addr.620, align 8, !tbaa !5952, !dbg !5891
	%785 = bitcast %struct._Z6FsGridIN7fsgrids9technicalELi2EE*  %784 to i8*, !dbg !5891
	%786 = getelementptr i8, i8*  %785, i64 264, !dbg !5891
	%787 = bitcast i8*  %786 to i32*, !dbg !5891
	%788 = load i32, i32*  %787, align 4, !tbaa !5953, !dbg !5891
	%789 = icmp slt i32  %783,  %788, !dbg !5891
	br i1  %789, label %L..inline.66066, label %L.B0986, !dbg !5891
L.B0986:
	%790 = load i32, i32* %..inline.addr.660, align 4, !tbaa !5957, !dbg !5891
	%791 = add i32  %790, 9, !dbg !5891
	store i32  %791, i32* %..inline.addr.660, align 4, !tbaa !5957, !dbg !5891
	%792 = bitcast [3 x i32]* %..inline.addr.670 to i32*, !dbg !5892
	store i32 -1, i32*  %792, align 4, !tbaa !5953, !dbg !5892
	br label %L..inline.66066
L..inline.66066:
	%793 = load i32, i32* %..inline.addr.640, align 4, !tbaa !5957, !dbg !5893
	%794 = icmp sge i32  %793, 0, !dbg !5893
	br i1  %794, label %L..inline.66068, label %L.B0987, !dbg !5893
L.B0987:
	%795 = load i32, i32* %..inline.addr.660, align 4, !tbaa !5957, !dbg !5893
	%796 = sub i32  %795, 3, !dbg !5893
	store i32  %796, i32* %..inline.addr.660, align 4, !tbaa !5957, !dbg !5893
	%797 = bitcast [3 x i32]* %..inline.addr.670 to i8*, !dbg !5894
	%798 = getelementptr i8, i8*  %797, i64 4, !dbg !5894
	%799 = bitcast i8*  %798 to i32*, !dbg !5894
	store i32 1, i32*  %799, align 4, !tbaa !5953, !dbg !5894
	br label %L..inline.66068
L..inline.66068:
	%800 = load i32, i32* %..inline.addr.640, align 4, !tbaa !5957, !dbg !5895
	%801 = load %struct._Z6FsGridIN7fsgrids9technicalELi2EE*, %struct._Z6FsGridIN7fsgrids9technicalELi2EE** %..inline.addr.620, align 8, !tbaa !5952, !dbg !5895
	%802 = bitcast %struct._Z6FsGridIN7fsgrids9technicalELi2EE*  %801 to i8*, !dbg !5895
	%803 = getelementptr i8, i8*  %802, i64 268, !dbg !5895
	%804 = bitcast i8*  %803 to i32*, !dbg !5895
	%805 = load i32, i32*  %804, align 4, !tbaa !5953, !dbg !5895
	%806 = icmp slt i32  %800,  %805, !dbg !5895
	br i1  %806, label %L..inline.66085, label %L.B0988, !dbg !5895
L.B0988:
	%807 = load i32, i32* %..inline.addr.660, align 4, !tbaa !5957, !dbg !5895
	%808 = add i32  %807, 3, !dbg !5895
	store i32  %808, i32* %..inline.addr.660, align 4, !tbaa !5957, !dbg !5895
	%809 = bitcast [3 x i32]* %..inline.addr.670 to i8*, !dbg !5896
	%810 = getelementptr i8, i8*  %809, i64 4, !dbg !5896
	%811 = bitcast i8*  %810 to i32*, !dbg !5896
	store i32 -1, i32*  %811, align 4, !tbaa !5953, !dbg !5896
	br label %L..inline.66085
L..inline.66085:
	%812 = load i32, i32* %..inline.addr.650, align 4, !tbaa !5957, !dbg !5897
	%813 = icmp sge i32  %812, 0, !dbg !5897
	br i1  %813, label %L..inline.66087, label %L.B0989, !dbg !5897
L.B0989:
	%814 = load i32, i32* %..inline.addr.660, align 4, !tbaa !5957, !dbg !5897
	%815 = sub i32  %814, 1, !dbg !5897
	store i32  %815, i32* %..inline.addr.660, align 4, !tbaa !5957, !dbg !5897
	%816 = bitcast [3 x i32]* %..inline.addr.670 to i8*, !dbg !5898
	%817 = getelementptr i8, i8*  %816, i64 8, !dbg !5898
	%818 = bitcast i8*  %817 to i32*, !dbg !5898
	store i32 1, i32*  %818, align 4, !tbaa !5953, !dbg !5898
	br label %L..inline.66087
L..inline.66087:
	%819 = load i32, i32* %..inline.addr.650, align 4, !tbaa !5957, !dbg !5899
	%820 = load %struct._Z6FsGridIN7fsgrids9technicalELi2EE*, %struct._Z6FsGridIN7fsgrids9technicalELi2EE** %..inline.addr.620, align 8, !tbaa !5952, !dbg !5899
	%821 = bitcast %struct._Z6FsGridIN7fsgrids9technicalELi2EE*  %820 to i8*, !dbg !5899
	%822 = getelementptr i8, i8*  %821, i64 272, !dbg !5899
	%823 = bitcast i8*  %822 to i32*, !dbg !5899
	%824 = load i32, i32*  %823, align 4, !tbaa !5953, !dbg !5899
	%825 = icmp slt i32  %819,  %824, !dbg !5899
	br i1  %825, label %L..inline.66104, label %L.B0990, !dbg !5899
L.B0990:
	%826 = load i32, i32* %..inline.addr.660, align 4, !tbaa !5957, !dbg !5899
	%827 = add i32  %826, 1, !dbg !5899
	store i32  %827, i32* %..inline.addr.660, align 4, !tbaa !5957, !dbg !5899
	%828 = bitcast [3 x i32]* %..inline.addr.670 to i8*, !dbg !5900
	%829 = getelementptr i8, i8*  %828, i64 8, !dbg !5900
	%830 = bitcast i8*  %829 to i32*, !dbg !5900
	store i32 -1, i32*  %830, align 4, !tbaa !5953, !dbg !5900
	br label %L..inline.66104
L..inline.66104:
	%831 = load i32, i32* %..inline.addr.660, align 4, !tbaa !5957, !dbg !5901
	%832 = icmp eq i32  %831, 13, !dbg !5901
	br i1  %832, label %L..inline.66105, label %L.B0991, !dbg !5901
L.B0991:
	%833 = sext i32  %831 to i64, !dbg !5902
	%834 = load %struct._Z6FsGridIN7fsgrids9technicalELi2EE*, %struct._Z6FsGridIN7fsgrids9technicalELi2EE** %..inline.addr.620, align 8, !tbaa !5952, !dbg !5902
	%835 = bitcast %struct._Z6FsGridIN7fsgrids9technicalELi2EE*  %834 to i8*, !dbg !5902
	%836 = getelementptr i8, i8*  %835, i64 92, !dbg !5902
	%837 = bitcast i8*  %836 to i32*, !dbg !5902
	%838 = getelementptr i32, i32*  %837, i64  %833, !dbg !5902
	%839 = load i32, i32*  %838, align 4, !tbaa !5953, !dbg !5902
	%840 = icmp ne i32  %839, -2, !dbg !5902
	br i1  %840, label %L..inline.66122, label %L.B0992, !dbg !5902
L.B0992:
	%841 = bitcast %struct._ZN7fsgrids9technicalE** %..inline.addr.680 to i8**, !dbg !5902
	store i8* null, i8**  %841, align 8, !tbaa !5952, !dbg !5902
	br label %L..inline.66309, !dbg !5903
L..inline.66122:
	%842 = load i32, i32* %..inline.addr.660, align 4, !tbaa !5957, !dbg !5904
	%843 = sext i32  %842 to i64, !dbg !5904
	%844 = load %struct._Z6FsGridIN7fsgrids9technicalELi2EE*, %struct._Z6FsGridIN7fsgrids9technicalELi2EE** %..inline.addr.620, align 8, !tbaa !5952, !dbg !5904
	%845 = bitcast %struct._Z6FsGridIN7fsgrids9technicalELi2EE*  %844 to i8*, !dbg !5904
	%846 = getelementptr i8, i8*  %845, i64 92, !dbg !5904
	%847 = bitcast i8*  %846 to i32*, !dbg !5904
	%848 = getelementptr i32, i32*  %847, i64  %843, !dbg !5904
	%849 = load i32, i32*  %848, align 4, !tbaa !5953, !dbg !5904
	%850 = getelementptr i8, i8*  %845, i64 56, !dbg !5904
	%851 = bitcast i8*  %850 to i32*, !dbg !5904
	%852 = load i32, i32*  %851, align 4, !tbaa !5953, !dbg !5904
	%853 = icmp ne i32  %849,  %852, !dbg !5904
	br i1  %853, label %L..inline.66140, label %L.B0993, !dbg !5904
L.B0993:
	%854 = load i32, i32* %..inline.addr.630, align 4, !tbaa !5957, !dbg !5905
	%855 = bitcast [3 x i32]* %..inline.addr.670 to i32*, !dbg !5905
	%856 = load i32, i32*  %855, align 4, !tbaa !5953, !dbg !5905
	%857 = bitcast %struct._Z6FsGridIN7fsgrids9technicalELi2EE*  %844 to i8*, !dbg !5905
	%858 = getelementptr i8, i8*  %857, i64 264, !dbg !5905
	%859 = bitcast i8*  %858 to i32*, !dbg !5905
	%860 = load i32, i32*  %859, align 4, !tbaa !5953, !dbg !5905
	%861 = mul i32  %856,  %860, !dbg !5905
	%862 = add i32  %854,  %861, !dbg !5905
	store i32  %862, i32* %..inline.addr.630, align 4, !tbaa !5957, !dbg !5905
	%863 = load i32, i32* %..inline.addr.640, align 4, !tbaa !5957, !dbg !5906
	%864 = bitcast [3 x i32]* %..inline.addr.670 to i8*, !dbg !5906
	%865 = getelementptr i8, i8*  %864, i64 4, !dbg !5906
	%866 = bitcast i8*  %865 to i32*, !dbg !5906
	%867 = load i32, i32*  %866, align 4, !tbaa !5953, !dbg !5906
	%868 = getelementptr i8, i8*  %857, i64 268, !dbg !5906
	%869 = bitcast i8*  %868 to i32*, !dbg !5906
	%870 = load i32, i32*  %869, align 4, !tbaa !5953, !dbg !5906
	%871 = mul i32  %867,  %870, !dbg !5906
	%872 = add i32  %863,  %871, !dbg !5906
	store i32  %872, i32* %..inline.addr.640, align 4, !tbaa !5957, !dbg !5906
	%873 = load i32, i32* %..inline.addr.650, align 4, !tbaa !5957, !dbg !5907
	%874 = getelementptr i8, i8*  %864, i64 8, !dbg !5907
	%875 = bitcast i8*  %874 to i32*, !dbg !5907
	%876 = load i32, i32*  %875, align 4, !tbaa !5953, !dbg !5907
	%877 = getelementptr i8, i8*  %857, i64 272, !dbg !5907
	%878 = bitcast i8*  %877 to i32*, !dbg !5907
	%879 = load i32, i32*  %878, align 4, !tbaa !5953, !dbg !5907
	%880 = mul i32  %876,  %879, !dbg !5907
	%881 = add i32  %873,  %880, !dbg !5907
	store i32  %881, i32* %..inline.addr.650, align 4, !tbaa !5957, !dbg !5907
	br label %L..inline.66140
L..inline.66140:
	br label %L..inline.66105
L..inline.66105:
	store i64 0, i64* %..inline.addr.690, align 8, !tbaa !5955, !dbg !5908
	%882 = load %struct._Z6FsGridIN7fsgrids9technicalELi2EE*, %struct._Z6FsGridIN7fsgrids9technicalELi2EE** %..inline.addr.620, align 8, !tbaa !5952, !dbg !5908
	%883 = bitcast %struct._Z6FsGridIN7fsgrids9technicalELi2EE*  %882 to i8*, !dbg !5908
	%884 = getelementptr i8, i8*  %883, i64 260, !dbg !5908
	%885 = bitcast i8*  %884 to i32*, !dbg !5908
	%886 = load i32, i32*  %885, align 4, !tbaa !5953, !dbg !5908
	%887 = icmp sle i32  %886, 1, !dbg !5908
	br i1  %887, label %L..inline.66214, label %L.B0994, !dbg !5908
L.B0994:
	%888 = load i32, i32* %..inline.addr.650, align 4, !tbaa !5957, !dbg !5908
	%889 = add i32  %888, 2, !dbg !5908
	%890 = bitcast %struct._Z6FsGridIN7fsgrids9technicalELi2EE*  %882 to i8*, !dbg !5908
	%891 = getelementptr i8, i8*  %890, i64 280, !dbg !5908
	%892 = bitcast i8*  %891 to i32*, !dbg !5908
	%893 = load i32, i32*  %892, align 4, !tbaa !5953, !dbg !5908
	%894 = getelementptr i8, i8*  %890, i64 276, !dbg !5908
	%895 = bitcast i8*  %894 to i32*, !dbg !5908
	%896 = load i32, i32*  %895, align 4, !tbaa !5953, !dbg !5908
	%897 = mul i32  %893,  %896, !dbg !5908
	%898 = mul i32  %889,  %897, !dbg !5908
	%899 = sext i32  %898 to i64, !dbg !5908
	store i64  %899, i64* %..inline.addr.690, align 8, !tbaa !5955, !dbg !5908
	br label %L..inline.66214
L..inline.66214:
	%900 = load %struct._Z6FsGridIN7fsgrids9technicalELi2EE*, %struct._Z6FsGridIN7fsgrids9technicalELi2EE** %..inline.addr.620, align 8, !tbaa !5952, !dbg !5908
	%901 = bitcast %struct._Z6FsGridIN7fsgrids9technicalELi2EE*  %900 to i8*, !dbg !5908
	%902 = getelementptr i8, i8*  %901, i64 256, !dbg !5908
	%903 = bitcast i8*  %902 to i32*, !dbg !5908
	%904 = load i32, i32*  %903, align 4, !tbaa !5953, !dbg !5908
	%905 = icmp sle i32  %904, 1, !dbg !5908
	br i1  %905, label %L..inline.66263, label %L.B0995, !dbg !5908
L.B0995:
	%906 = load i64, i64* %..inline.addr.690, align 8, !tbaa !5955, !dbg !5908
	%907 = bitcast %struct._Z6FsGridIN7fsgrids9technicalELi2EE*  %900 to i8*, !dbg !5908
	%908 = getelementptr i8, i8*  %907, i64 276, !dbg !5908
	%909 = bitcast i8*  %908 to i32*, !dbg !5908
	%910 = load i32, i32*  %909, align 4, !tbaa !5953, !dbg !5908
	%911 = load i32, i32* %..inline.addr.640, align 4, !tbaa !5957, !dbg !5908
	%912 = add i32  %911, 2, !dbg !5908
	%913 = mul i32  %910,  %912, !dbg !5908
	%914 = sext i32  %913 to i64, !dbg !5908
	%915 = add i64  %906,  %914, !dbg !5908
	store i64  %915, i64* %..inline.addr.690, align 8, !tbaa !5955, !dbg !5908
	br label %L..inline.66263
L..inline.66263:
	%916 = load %struct._Z6FsGridIN7fsgrids9technicalELi2EE*, %struct._Z6FsGridIN7fsgrids9technicalELi2EE** %..inline.addr.620, align 8, !tbaa !5952, !dbg !5908
	%917 = bitcast %struct._Z6FsGridIN7fsgrids9technicalELi2EE*  %916 to i8*, !dbg !5908
	%918 = getelementptr i8, i8*  %917, i64 252, !dbg !5908
	%919 = bitcast i8*  %918 to i32*, !dbg !5908
	%920 = load i32, i32*  %919, align 4, !tbaa !5953, !dbg !5908
	%921 = icmp sle i32  %920, 1, !dbg !5908
	%922 = zext i1  %921 to i32, !dbg !5908
	%923 = trunc i32  %922 to i1, !dbg !5908
	%924 = load i64, i64* %..inline.addr.690, align 8, !tbaa !5955, !dbg !5908
	%925 = load i32, i32* %..inline.addr.630, align 4, !tbaa !5957, !dbg !5908
	%926 = sext i32  %925 to i64, !dbg !5908
	%927 = add i64  %926, 2, !dbg !5908
	%928 = add i64  %924,  %927, !dbg !5908
	%929 = select i1  %923, i64  %924, i64  %928, !dbg !5908
	%930 = getelementptr i8, i8*  %917, i64 744, !dbg !5909
	%931 = bitcast i8*  %930 to i8**, !dbg !5909
	%932 = load i8*, i8**  %931, align 8, !tbaa !5952, !dbg !5909
	%933 = mul i64  %929, 32, !dbg !5909
	%934 = getelementptr i8, i8*  %932, i64  %933, !dbg !5909
	%935 = bitcast %struct._ZN7fsgrids9technicalE** %..inline.addr.680 to i8**, !dbg !5909
	store i8*  %934, i8**  %935, align 8, !tbaa !5952, !dbg !5909
	br label %L..inline.66309
L..inline.66309:
	%936 = load %struct._ZN7fsgrids9technicalE*, %struct._ZN7fsgrids9technicalE** %..inline.addr.680, align 8, !tbaa !5952, !dbg !5910
	%937 = bitcast %struct._ZN7fsgrids9technicalE*  %936 to i32*, !dbg !5910
	%938 = load i32, i32*  %937, align 4, !tbaa !5953, !dbg !5910
	%939 = icmp eq i32  %938, 1, !dbg !5910
	br i1  %939, label %L.B0013, label %L.B0996, !dbg !5910
L.B0996:
	%940 = load %struct._Z6FsGridIN7fsgrids9technicalELi2EE*, %struct._Z6FsGridIN7fsgrids9technicalELi2EE** %technicalGrid.addr, align 8, !tbaa !5952, !dbg !5919
	%941 = bitcast %struct._Z6FsGridIN7fsgrids9technicalELi2EE*  %940 to i8*, !dbg !5919
	%942 = bitcast %struct._Z6FsGridIN7fsgrids9technicalELi2EE** %..inline.addr.700 to i8**, !dbg !5919
	store i8*  %941, i8**  %942, align 8, !tbaa !5952, !dbg !5919
	%943 = load i32, i32* %i.addr, align 4, !tbaa !5957, !dbg !5919
	store i32  %943, i32* %..inline.addr.710, align 4, !tbaa !5957, !dbg !5919
	%944 = load i32, i32* %j.addr, align 4, !tbaa !5957, !dbg !5919
	store i32  %944, i32* %..inline.addr.720, align 4, !tbaa !5957, !dbg !5919
	%945 = load i32, i32* %k.addr, align 4, !tbaa !5957, !dbg !5919
	store i32  %945, i32* %..inline.addr.730, align 4, !tbaa !5957, !dbg !5919
	store i32 13, i32* %..inline.addr.740, align 4, !tbaa !5957, !dbg !5919
	%946 = bitcast [3 x i32]* %..inline.addr.750 to i32*, !dbg !5887
	store i32 0, i32*  %946, align 4, !tbaa !5953, !dbg !5887
	%947 = bitcast [3 x i32]* %..inline.addr.750 to i8*, !dbg !5888
	%948 = getelementptr i8, i8*  %947, i64 4, !dbg !5888
	%949 = bitcast i8*  %948 to i32*, !dbg !5888
	store i32 0, i32*  %949, align 4, !tbaa !5953, !dbg !5888
	%950 = getelementptr i8, i8*  %947, i64 8, !dbg !5888
	%951 = bitcast i8*  %950 to i32*, !dbg !5888
	store i32 0, i32*  %951, align 4, !tbaa !5953, !dbg !5888
	%952 = icmp sge i32  %943, 0, !dbg !5888
	br i1  %952, label %L..inline.66315, label %L.B0997, !dbg !5888
L.B0997:
	store i32 4, i32* %..inline.addr.740, align 4, !tbaa !5957, !dbg !5889
	%953 = bitcast [3 x i32]* %..inline.addr.750 to i32*, !dbg !5890
	store i32 1, i32*  %953, align 4, !tbaa !5953, !dbg !5890
	br label %L..inline.66315
L..inline.66315:
	%954 = load i32, i32* %..inline.addr.710, align 4, !tbaa !5957, !dbg !5891
	%955 = load %struct._Z6FsGridIN7fsgrids9technicalELi2EE*, %struct._Z6FsGridIN7fsgrids9technicalELi2EE** %..inline.addr.700, align 8, !tbaa !5952, !dbg !5891
	%956 = bitcast %struct._Z6FsGridIN7fsgrids9technicalELi2EE*  %955 to i8*, !dbg !5891
	%957 = getelementptr i8, i8*  %956, i64 264, !dbg !5891
	%958 = bitcast i8*  %957 to i32*, !dbg !5891
	%959 = load i32, i32*  %958, align 4, !tbaa !5953, !dbg !5891
	%960 = icmp slt i32  %954,  %959, !dbg !5891
	br i1  %960, label %L..inline.66333, label %L.B0998, !dbg !5891
L.B0998:
	%961 = load i32, i32* %..inline.addr.740, align 4, !tbaa !5957, !dbg !5891
	%962 = add i32  %961, 9, !dbg !5891
	store i32  %962, i32* %..inline.addr.740, align 4, !tbaa !5957, !dbg !5891
	%963 = bitcast [3 x i32]* %..inline.addr.750 to i32*, !dbg !5892
	store i32 -1, i32*  %963, align 4, !tbaa !5953, !dbg !5892
	br label %L..inline.66333
L..inline.66333:
	%964 = load i32, i32* %..inline.addr.720, align 4, !tbaa !5957, !dbg !5893
	%965 = icmp sge i32  %964, 0, !dbg !5893
	br i1  %965, label %L..inline.66335, label %L.B0999, !dbg !5893
L.B0999:
	%966 = load i32, i32* %..inline.addr.740, align 4, !tbaa !5957, !dbg !5893
	%967 = sub i32  %966, 3, !dbg !5893
	store i32  %967, i32* %..inline.addr.740, align 4, !tbaa !5957, !dbg !5893
	%968 = bitcast [3 x i32]* %..inline.addr.750 to i8*, !dbg !5894
	%969 = getelementptr i8, i8*  %968, i64 4, !dbg !5894
	%970 = bitcast i8*  %969 to i32*, !dbg !5894
	store i32 1, i32*  %970, align 4, !tbaa !5953, !dbg !5894
	br label %L..inline.66335
L..inline.66335:
	%971 = load i32, i32* %..inline.addr.720, align 4, !tbaa !5957, !dbg !5895
	%972 = load %struct._Z6FsGridIN7fsgrids9technicalELi2EE*, %struct._Z6FsGridIN7fsgrids9technicalELi2EE** %..inline.addr.700, align 8, !tbaa !5952, !dbg !5895
	%973 = bitcast %struct._Z6FsGridIN7fsgrids9technicalELi2EE*  %972 to i8*, !dbg !5895
	%974 = getelementptr i8, i8*  %973, i64 268, !dbg !5895
	%975 = bitcast i8*  %974 to i32*, !dbg !5895
	%976 = load i32, i32*  %975, align 4, !tbaa !5953, !dbg !5895
	%977 = icmp slt i32  %971,  %976, !dbg !5895
	br i1  %977, label %L..inline.66352, label %L.B1000, !dbg !5895
L.B1000:
	%978 = load i32, i32* %..inline.addr.740, align 4, !tbaa !5957, !dbg !5895
	%979 = add i32  %978, 3, !dbg !5895
	store i32  %979, i32* %..inline.addr.740, align 4, !tbaa !5957, !dbg !5895
	%980 = bitcast [3 x i32]* %..inline.addr.750 to i8*, !dbg !5896
	%981 = getelementptr i8, i8*  %980, i64 4, !dbg !5896
	%982 = bitcast i8*  %981 to i32*, !dbg !5896
	store i32 -1, i32*  %982, align 4, !tbaa !5953, !dbg !5896
	br label %L..inline.66352
L..inline.66352:
	%983 = load i32, i32* %..inline.addr.730, align 4, !tbaa !5957, !dbg !5897
	%984 = icmp sge i32  %983, 0, !dbg !5897
	br i1  %984, label %L..inline.66354, label %L.B1001, !dbg !5897
L.B1001:
	%985 = load i32, i32* %..inline.addr.740, align 4, !tbaa !5957, !dbg !5897
	%986 = sub i32  %985, 1, !dbg !5897
	store i32  %986, i32* %..inline.addr.740, align 4, !tbaa !5957, !dbg !5897
	%987 = bitcast [3 x i32]* %..inline.addr.750 to i8*, !dbg !5898
	%988 = getelementptr i8, i8*  %987, i64 8, !dbg !5898
	%989 = bitcast i8*  %988 to i32*, !dbg !5898
	store i32 1, i32*  %989, align 4, !tbaa !5953, !dbg !5898
	br label %L..inline.66354
L..inline.66354:
	%990 = load i32, i32* %..inline.addr.730, align 4, !tbaa !5957, !dbg !5899
	%991 = load %struct._Z6FsGridIN7fsgrids9technicalELi2EE*, %struct._Z6FsGridIN7fsgrids9technicalELi2EE** %..inline.addr.700, align 8, !tbaa !5952, !dbg !5899
	%992 = bitcast %struct._Z6FsGridIN7fsgrids9technicalELi2EE*  %991 to i8*, !dbg !5899
	%993 = getelementptr i8, i8*  %992, i64 272, !dbg !5899
	%994 = bitcast i8*  %993 to i32*, !dbg !5899
	%995 = load i32, i32*  %994, align 4, !tbaa !5953, !dbg !5899
	%996 = icmp slt i32  %990,  %995, !dbg !5899
	br i1  %996, label %L..inline.66371, label %L.B1002, !dbg !5899
L.B1002:
	%997 = load i32, i32* %..inline.addr.740, align 4, !tbaa !5957, !dbg !5899
	%998 = add i32  %997, 1, !dbg !5899
	store i32  %998, i32* %..inline.addr.740, align 4, !tbaa !5957, !dbg !5899
	%999 = bitcast [3 x i32]* %..inline.addr.750 to i8*, !dbg !5900
	%1000 = getelementptr i8, i8*  %999, i64 8, !dbg !5900
	%1001 = bitcast i8*  %1000 to i32*, !dbg !5900
	store i32 -1, i32*  %1001, align 4, !tbaa !5953, !dbg !5900
	br label %L..inline.66371
L..inline.66371:
	%1002 = load i32, i32* %..inline.addr.740, align 4, !tbaa !5957, !dbg !5901
	%1003 = icmp eq i32  %1002, 13, !dbg !5901
	br i1  %1003, label %L..inline.66372, label %L.B1003, !dbg !5901
L.B1003:
	%1004 = sext i32  %1002 to i64, !dbg !5902
	%1005 = load %struct._Z6FsGridIN7fsgrids9technicalELi2EE*, %struct._Z6FsGridIN7fsgrids9technicalELi2EE** %..inline.addr.700, align 8, !tbaa !5952, !dbg !5902
	%1006 = bitcast %struct._Z6FsGridIN7fsgrids9technicalELi2EE*  %1005 to i8*, !dbg !5902
	%1007 = getelementptr i8, i8*  %1006, i64 92, !dbg !5902
	%1008 = bitcast i8*  %1007 to i32*, !dbg !5902
	%1009 = getelementptr i32, i32*  %1008, i64  %1004, !dbg !5902
	%1010 = load i32, i32*  %1009, align 4, !tbaa !5953, !dbg !5902
	%1011 = icmp ne i32  %1010, -2, !dbg !5902
	br i1  %1011, label %L..inline.66389, label %L.B1004, !dbg !5902
L.B1004:
	%1012 = bitcast %struct._ZN7fsgrids9technicalE** %..inline.addr.760 to i8**, !dbg !5902
	store i8* null, i8**  %1012, align 8, !tbaa !5952, !dbg !5902
	br label %L..inline.66576, !dbg !5903
L..inline.66389:
	%1013 = load i32, i32* %..inline.addr.740, align 4, !tbaa !5957, !dbg !5904
	%1014 = sext i32  %1013 to i64, !dbg !5904
	%1015 = load %struct._Z6FsGridIN7fsgrids9technicalELi2EE*, %struct._Z6FsGridIN7fsgrids9technicalELi2EE** %..inline.addr.700, align 8, !tbaa !5952, !dbg !5904
	%1016 = bitcast %struct._Z6FsGridIN7fsgrids9technicalELi2EE*  %1015 to i8*, !dbg !5904
	%1017 = getelementptr i8, i8*  %1016, i64 92, !dbg !5904
	%1018 = bitcast i8*  %1017 to i32*, !dbg !5904
	%1019 = getelementptr i32, i32*  %1018, i64  %1014, !dbg !5904
	%1020 = load i32, i32*  %1019, align 4, !tbaa !5953, !dbg !5904
	%1021 = getelementptr i8, i8*  %1016, i64 56, !dbg !5904
	%1022 = bitcast i8*  %1021 to i32*, !dbg !5904
	%1023 = load i32, i32*  %1022, align 4, !tbaa !5953, !dbg !5904
	%1024 = icmp ne i32  %1020,  %1023, !dbg !5904
	br i1  %1024, label %L..inline.66407, label %L.B1005, !dbg !5904
L.B1005:
	%1025 = load i32, i32* %..inline.addr.710, align 4, !tbaa !5957, !dbg !5905
	%1026 = bitcast [3 x i32]* %..inline.addr.750 to i32*, !dbg !5905
	%1027 = load i32, i32*  %1026, align 4, !tbaa !5953, !dbg !5905
	%1028 = bitcast %struct._Z6FsGridIN7fsgrids9technicalELi2EE*  %1015 to i8*, !dbg !5905
	%1029 = getelementptr i8, i8*  %1028, i64 264, !dbg !5905
	%1030 = bitcast i8*  %1029 to i32*, !dbg !5905
	%1031 = load i32, i32*  %1030, align 4, !tbaa !5953, !dbg !5905
	%1032 = mul i32  %1027,  %1031, !dbg !5905
	%1033 = add i32  %1025,  %1032, !dbg !5905
	store i32  %1033, i32* %..inline.addr.710, align 4, !tbaa !5957, !dbg !5905
	%1034 = load i32, i32* %..inline.addr.720, align 4, !tbaa !5957, !dbg !5906
	%1035 = bitcast [3 x i32]* %..inline.addr.750 to i8*, !dbg !5906
	%1036 = getelementptr i8, i8*  %1035, i64 4, !dbg !5906
	%1037 = bitcast i8*  %1036 to i32*, !dbg !5906
	%1038 = load i32, i32*  %1037, align 4, !tbaa !5953, !dbg !5906
	%1039 = getelementptr i8, i8*  %1028, i64 268, !dbg !5906
	%1040 = bitcast i8*  %1039 to i32*, !dbg !5906
	%1041 = load i32, i32*  %1040, align 4, !tbaa !5953, !dbg !5906
	%1042 = mul i32  %1038,  %1041, !dbg !5906
	%1043 = add i32  %1034,  %1042, !dbg !5906
	store i32  %1043, i32* %..inline.addr.720, align 4, !tbaa !5957, !dbg !5906
	%1044 = load i32, i32* %..inline.addr.730, align 4, !tbaa !5957, !dbg !5907
	%1045 = getelementptr i8, i8*  %1035, i64 8, !dbg !5907
	%1046 = bitcast i8*  %1045 to i32*, !dbg !5907
	%1047 = load i32, i32*  %1046, align 4, !tbaa !5953, !dbg !5907
	%1048 = getelementptr i8, i8*  %1028, i64 272, !dbg !5907
	%1049 = bitcast i8*  %1048 to i32*, !dbg !5907
	%1050 = load i32, i32*  %1049, align 4, !tbaa !5953, !dbg !5907
	%1051 = mul i32  %1047,  %1050, !dbg !5907
	%1052 = add i32  %1044,  %1051, !dbg !5907
	store i32  %1052, i32* %..inline.addr.730, align 4, !tbaa !5957, !dbg !5907
	br label %L..inline.66407
L..inline.66407:
	br label %L..inline.66372
L..inline.66372:
	store i64 0, i64* %..inline.addr.770, align 8, !tbaa !5955, !dbg !5908
	%1053 = load %struct._Z6FsGridIN7fsgrids9technicalELi2EE*, %struct._Z6FsGridIN7fsgrids9technicalELi2EE** %..inline.addr.700, align 8, !tbaa !5952, !dbg !5908
	%1054 = bitcast %struct._Z6FsGridIN7fsgrids9technicalELi2EE*  %1053 to i8*, !dbg !5908
	%1055 = getelementptr i8, i8*  %1054, i64 260, !dbg !5908
	%1056 = bitcast i8*  %1055 to i32*, !dbg !5908
	%1057 = load i32, i32*  %1056, align 4, !tbaa !5953, !dbg !5908
	%1058 = icmp sle i32  %1057, 1, !dbg !5908
	br i1  %1058, label %L..inline.66481, label %L.B1006, !dbg !5908
L.B1006:
	%1059 = load i32, i32* %..inline.addr.730, align 4, !tbaa !5957, !dbg !5908
	%1060 = add i32  %1059, 2, !dbg !5908
	%1061 = bitcast %struct._Z6FsGridIN7fsgrids9technicalELi2EE*  %1053 to i8*, !dbg !5908
	%1062 = getelementptr i8, i8*  %1061, i64 280, !dbg !5908
	%1063 = bitcast i8*  %1062 to i32*, !dbg !5908
	%1064 = load i32, i32*  %1063, align 4, !tbaa !5953, !dbg !5908
	%1065 = getelementptr i8, i8*  %1061, i64 276, !dbg !5908
	%1066 = bitcast i8*  %1065 to i32*, !dbg !5908
	%1067 = load i32, i32*  %1066, align 4, !tbaa !5953, !dbg !5908
	%1068 = mul i32  %1064,  %1067, !dbg !5908
	%1069 = mul i32  %1060,  %1068, !dbg !5908
	%1070 = sext i32  %1069 to i64, !dbg !5908
	store i64  %1070, i64* %..inline.addr.770, align 8, !tbaa !5955, !dbg !5908
	br label %L..inline.66481
L..inline.66481:
	%1071 = load %struct._Z6FsGridIN7fsgrids9technicalELi2EE*, %struct._Z6FsGridIN7fsgrids9technicalELi2EE** %..inline.addr.700, align 8, !tbaa !5952, !dbg !5908
	%1072 = bitcast %struct._Z6FsGridIN7fsgrids9technicalELi2EE*  %1071 to i8*, !dbg !5908
	%1073 = getelementptr i8, i8*  %1072, i64 256, !dbg !5908
	%1074 = bitcast i8*  %1073 to i32*, !dbg !5908
	%1075 = load i32, i32*  %1074, align 4, !tbaa !5953, !dbg !5908
	%1076 = icmp sle i32  %1075, 1, !dbg !5908
	br i1  %1076, label %L..inline.66530, label %L.B1007, !dbg !5908
L.B1007:
	%1077 = load i64, i64* %..inline.addr.770, align 8, !tbaa !5955, !dbg !5908
	%1078 = bitcast %struct._Z6FsGridIN7fsgrids9technicalELi2EE*  %1071 to i8*, !dbg !5908
	%1079 = getelementptr i8, i8*  %1078, i64 276, !dbg !5908
	%1080 = bitcast i8*  %1079 to i32*, !dbg !5908
	%1081 = load i32, i32*  %1080, align 4, !tbaa !5953, !dbg !5908
	%1082 = load i32, i32* %..inline.addr.720, align 4, !tbaa !5957, !dbg !5908
	%1083 = add i32  %1082, 2, !dbg !5908
	%1084 = mul i32  %1081,  %1083, !dbg !5908
	%1085 = sext i32  %1084 to i64, !dbg !5908
	%1086 = add i64  %1077,  %1085, !dbg !5908
	store i64  %1086, i64* %..inline.addr.770, align 8, !tbaa !5955, !dbg !5908
	br label %L..inline.66530
L..inline.66530:
	%1087 = load %struct._Z6FsGridIN7fsgrids9technicalELi2EE*, %struct._Z6FsGridIN7fsgrids9technicalELi2EE** %..inline.addr.700, align 8, !tbaa !5952, !dbg !5908
	%1088 = bitcast %struct._Z6FsGridIN7fsgrids9technicalELi2EE*  %1087 to i8*, !dbg !5908
	%1089 = getelementptr i8, i8*  %1088, i64 252, !dbg !5908
	%1090 = bitcast i8*  %1089 to i32*, !dbg !5908
	%1091 = load i32, i32*  %1090, align 4, !tbaa !5953, !dbg !5908
	%1092 = icmp sle i32  %1091, 1, !dbg !5908
	%1093 = zext i1  %1092 to i32, !dbg !5908
	%1094 = trunc i32  %1093 to i1, !dbg !5908
	%1095 = load i64, i64* %..inline.addr.770, align 8, !tbaa !5955, !dbg !5908
	%1096 = load i32, i32* %..inline.addr.710, align 4, !tbaa !5957, !dbg !5908
	%1097 = sext i32  %1096 to i64, !dbg !5908
	%1098 = add i64  %1097, 2, !dbg !5908
	%1099 = add i64  %1095,  %1098, !dbg !5908
	%1100 = select i1  %1094, i64  %1095, i64  %1099, !dbg !5908
	%1101 = getelementptr i8, i8*  %1088, i64 744, !dbg !5909
	%1102 = bitcast i8*  %1101 to i8**, !dbg !5909
	%1103 = load i8*, i8**  %1102, align 8, !tbaa !5952, !dbg !5909
	%1104 = mul i64  %1100, 32, !dbg !5909
	%1105 = getelementptr i8, i8*  %1103, i64  %1104, !dbg !5909
	%1106 = bitcast %struct._ZN7fsgrids9technicalE** %..inline.addr.760 to i8**, !dbg !5909
	store i8*  %1105, i8**  %1106, align 8, !tbaa !5952, !dbg !5909
	br label %L..inline.66576
L..inline.66576:
	%1107 = load %struct._ZN7fsgrids9technicalE*, %struct._ZN7fsgrids9technicalE** %..inline.addr.760, align 8, !tbaa !5952, !dbg !5910
	%1108 = bitcast %struct._ZN7fsgrids9technicalE*  %1107 to i8*, !dbg !5910
	%1109 = getelementptr i8, i8*  %1108, i64 4, !dbg !5910
	%1110 = bitcast i8*  %1109 to i32*, !dbg !5910
	%1111 = load i32, i32*  %1110, align 4, !tbaa !5953, !dbg !5910
	%1112 = icmp ne i32  %1111, 1, !dbg !5910
	br i1  %1112, label %L.B0013, label %L.B0014, !dbg !5910
L.B0014:
	%1113 = load %struct._Z6FsGridISt5arrayIdLm3EELi2EE*, %struct._Z6FsGridISt5arrayIdLm3EELi2EE** %EGrid.addr, align 8, !tbaa !5952, !dbg !5920
	%1114 = bitcast %struct._Z6FsGridISt5arrayIdLm3EELi2EE*  %1113 to i8*, !dbg !5920
	%1115 = bitcast %struct._Z6FsGridISt5arrayIdLm3EELi2EE** %..inline.addr.780 to i8**, !dbg !5920
	store i8*  %1114, i8**  %1115, align 8, !tbaa !5952, !dbg !5920
	%1116 = load i32, i32* %i.addr, align 4, !tbaa !5957, !dbg !5920
	store i32  %1116, i32* %..inline.addr.790, align 4, !tbaa !5957, !dbg !5920
	%1117 = load i32, i32* %.r1.3762.addr, align 4, !tbaa !5957, !dbg !5920
	store i32  %1117, i32* %..inline.addr.800, align 4, !tbaa !5957, !dbg !5920
	%1118 = load i32, i32* %k.addr, align 4, !tbaa !5957, !dbg !5920
	store i32  %1118, i32* %..inline.addr.810, align 4, !tbaa !5957, !dbg !5920
	store i32 13, i32* %..inline.addr.820, align 4, !tbaa !5957, !dbg !5920
	%1119 = bitcast [3 x i32]* %..inline.addr.830 to i32*, !dbg !5887
	store i32 0, i32*  %1119, align 4, !tbaa !5953, !dbg !5887
	%1120 = bitcast [3 x i32]* %..inline.addr.830 to i8*, !dbg !5888
	%1121 = getelementptr i8, i8*  %1120, i64 4, !dbg !5888
	%1122 = bitcast i8*  %1121 to i32*, !dbg !5888
	store i32 0, i32*  %1122, align 4, !tbaa !5953, !dbg !5888
	%1123 = getelementptr i8, i8*  %1120, i64 8, !dbg !5888
	%1124 = bitcast i8*  %1123 to i32*, !dbg !5888
	store i32 0, i32*  %1124, align 4, !tbaa !5953, !dbg !5888
	%1125 = icmp sge i32  %1116, 0, !dbg !5888
	br i1  %1125, label %L..inline.66582, label %L.B1008, !dbg !5888
L.B1008:
	store i32 4, i32* %..inline.addr.820, align 4, !tbaa !5957, !dbg !5889
	%1126 = bitcast [3 x i32]* %..inline.addr.830 to i32*, !dbg !5890
	store i32 1, i32*  %1126, align 4, !tbaa !5953, !dbg !5890
	br label %L..inline.66582
L..inline.66582:
	%1127 = load i32, i32* %..inline.addr.790, align 4, !tbaa !5957, !dbg !5891
	%1128 = load %struct._Z6FsGridISt5arrayIdLm3EELi2EE*, %struct._Z6FsGridISt5arrayIdLm3EELi2EE** %..inline.addr.780, align 8, !tbaa !5952, !dbg !5891
	%1129 = bitcast %struct._Z6FsGridISt5arrayIdLm3EELi2EE*  %1128 to i8*, !dbg !5891
	%1130 = getelementptr i8, i8*  %1129, i64 264, !dbg !5891
	%1131 = bitcast i8*  %1130 to i32*, !dbg !5891
	%1132 = load i32, i32*  %1131, align 4, !tbaa !5953, !dbg !5891
	%1133 = icmp slt i32  %1127,  %1132, !dbg !5891
	br i1  %1133, label %L..inline.66600, label %L.B1009, !dbg !5891
L.B1009:
	%1134 = load i32, i32* %..inline.addr.820, align 4, !tbaa !5957, !dbg !5891
	%1135 = add i32  %1134, 9, !dbg !5891
	store i32  %1135, i32* %..inline.addr.820, align 4, !tbaa !5957, !dbg !5891
	%1136 = bitcast [3 x i32]* %..inline.addr.830 to i32*, !dbg !5892
	store i32 -1, i32*  %1136, align 4, !tbaa !5953, !dbg !5892
	br label %L..inline.66600
L..inline.66600:
	%1137 = load i32, i32* %..inline.addr.800, align 4, !tbaa !5957, !dbg !5893
	%1138 = icmp sge i32  %1137, 0, !dbg !5893
	br i1  %1138, label %L..inline.66602, label %L.B1010, !dbg !5893
L.B1010:
	%1139 = load i32, i32* %..inline.addr.820, align 4, !tbaa !5957, !dbg !5893
	%1140 = sub i32  %1139, 3, !dbg !5893
	store i32  %1140, i32* %..inline.addr.820, align 4, !tbaa !5957, !dbg !5893
	%1141 = bitcast [3 x i32]* %..inline.addr.830 to i8*, !dbg !5894
	%1142 = getelementptr i8, i8*  %1141, i64 4, !dbg !5894
	%1143 = bitcast i8*  %1142 to i32*, !dbg !5894
	store i32 1, i32*  %1143, align 4, !tbaa !5953, !dbg !5894
	br label %L..inline.66602
L..inline.66602:
	%1144 = load i32, i32* %..inline.addr.800, align 4, !tbaa !5957, !dbg !5895
	%1145 = load %struct._Z6FsGridISt5arrayIdLm3EELi2EE*, %struct._Z6FsGridISt5arrayIdLm3EELi2EE** %..inline.addr.780, align 8, !tbaa !5952, !dbg !5895
	%1146 = bitcast %struct._Z6FsGridISt5arrayIdLm3EELi2EE*  %1145 to i8*, !dbg !5895
	%1147 = getelementptr i8, i8*  %1146, i64 268, !dbg !5895
	%1148 = bitcast i8*  %1147 to i32*, !dbg !5895
	%1149 = load i32, i32*  %1148, align 4, !tbaa !5953, !dbg !5895
	%1150 = icmp slt i32  %1144,  %1149, !dbg !5895
	br i1  %1150, label %L..inline.66619, label %L.B1011, !dbg !5895
L.B1011:
	%1151 = load i32, i32* %..inline.addr.820, align 4, !tbaa !5957, !dbg !5895
	%1152 = add i32  %1151, 3, !dbg !5895
	store i32  %1152, i32* %..inline.addr.820, align 4, !tbaa !5957, !dbg !5895
	%1153 = bitcast [3 x i32]* %..inline.addr.830 to i8*, !dbg !5896
	%1154 = getelementptr i8, i8*  %1153, i64 4, !dbg !5896
	%1155 = bitcast i8*  %1154 to i32*, !dbg !5896
	store i32 -1, i32*  %1155, align 4, !tbaa !5953, !dbg !5896
	br label %L..inline.66619
L..inline.66619:
	%1156 = load i32, i32* %..inline.addr.810, align 4, !tbaa !5957, !dbg !5897
	%1157 = icmp sge i32  %1156, 0, !dbg !5897
	br i1  %1157, label %L..inline.66621, label %L.B1012, !dbg !5897
L.B1012:
	%1158 = load i32, i32* %..inline.addr.820, align 4, !tbaa !5957, !dbg !5897
	%1159 = sub i32  %1158, 1, !dbg !5897
	store i32  %1159, i32* %..inline.addr.820, align 4, !tbaa !5957, !dbg !5897
	%1160 = bitcast [3 x i32]* %..inline.addr.830 to i8*, !dbg !5898
	%1161 = getelementptr i8, i8*  %1160, i64 8, !dbg !5898
	%1162 = bitcast i8*  %1161 to i32*, !dbg !5898
	store i32 1, i32*  %1162, align 4, !tbaa !5953, !dbg !5898
	br label %L..inline.66621
L..inline.66621:
	%1163 = load i32, i32* %..inline.addr.810, align 4, !tbaa !5957, !dbg !5899
	%1164 = load %struct._Z6FsGridISt5arrayIdLm3EELi2EE*, %struct._Z6FsGridISt5arrayIdLm3EELi2EE** %..inline.addr.780, align 8, !tbaa !5952, !dbg !5899
	%1165 = bitcast %struct._Z6FsGridISt5arrayIdLm3EELi2EE*  %1164 to i8*, !dbg !5899
	%1166 = getelementptr i8, i8*  %1165, i64 272, !dbg !5899
	%1167 = bitcast i8*  %1166 to i32*, !dbg !5899
	%1168 = load i32, i32*  %1167, align 4, !tbaa !5953, !dbg !5899
	%1169 = icmp slt i32  %1163,  %1168, !dbg !5899
	br i1  %1169, label %L..inline.66638, label %L.B1013, !dbg !5899
L.B1013:
	%1170 = load i32, i32* %..inline.addr.820, align 4, !tbaa !5957, !dbg !5899
	%1171 = add i32  %1170, 1, !dbg !5899
	store i32  %1171, i32* %..inline.addr.820, align 4, !tbaa !5957, !dbg !5899
	%1172 = bitcast [3 x i32]* %..inline.addr.830 to i8*, !dbg !5900
	%1173 = getelementptr i8, i8*  %1172, i64 8, !dbg !5900
	%1174 = bitcast i8*  %1173 to i32*, !dbg !5900
	store i32 -1, i32*  %1174, align 4, !tbaa !5953, !dbg !5900
	br label %L..inline.66638
L..inline.66638:
	%1175 = load i32, i32* %..inline.addr.820, align 4, !tbaa !5957, !dbg !5901
	%1176 = icmp eq i32  %1175, 13, !dbg !5901
	br i1  %1176, label %L..inline.66639, label %L.B1014, !dbg !5901
L.B1014:
	%1177 = sext i32  %1175 to i64, !dbg !5902
	%1178 = load %struct._Z6FsGridISt5arrayIdLm3EELi2EE*, %struct._Z6FsGridISt5arrayIdLm3EELi2EE** %..inline.addr.780, align 8, !tbaa !5952, !dbg !5902
	%1179 = bitcast %struct._Z6FsGridISt5arrayIdLm3EELi2EE*  %1178 to i8*, !dbg !5902
	%1180 = getelementptr i8, i8*  %1179, i64 92, !dbg !5902
	%1181 = bitcast i8*  %1180 to i32*, !dbg !5902
	%1182 = getelementptr i32, i32*  %1181, i64  %1177, !dbg !5902
	%1183 = load i32, i32*  %1182, align 4, !tbaa !5953, !dbg !5902
	%1184 = icmp ne i32  %1183, -2, !dbg !5902
	br i1  %1184, label %L..inline.66656, label %L.B1015, !dbg !5902
L.B1015:
	%1185 = bitcast %struct._ZSt5arrayIdLm3EE** %..inline.addr.840 to i8**, !dbg !5902
	store i8* null, i8**  %1185, align 8, !tbaa !5952, !dbg !5902
	br label %L..inline.66843, !dbg !5903
L..inline.66656:
	%1186 = load i32, i32* %..inline.addr.820, align 4, !tbaa !5957, !dbg !5904
	%1187 = sext i32  %1186 to i64, !dbg !5904
	%1188 = load %struct._Z6FsGridISt5arrayIdLm3EELi2EE*, %struct._Z6FsGridISt5arrayIdLm3EELi2EE** %..inline.addr.780, align 8, !tbaa !5952, !dbg !5904
	%1189 = bitcast %struct._Z6FsGridISt5arrayIdLm3EELi2EE*  %1188 to i8*, !dbg !5904
	%1190 = getelementptr i8, i8*  %1189, i64 92, !dbg !5904
	%1191 = bitcast i8*  %1190 to i32*, !dbg !5904
	%1192 = getelementptr i32, i32*  %1191, i64  %1187, !dbg !5904
	%1193 = load i32, i32*  %1192, align 4, !tbaa !5953, !dbg !5904
	%1194 = getelementptr i8, i8*  %1189, i64 56, !dbg !5904
	%1195 = bitcast i8*  %1194 to i32*, !dbg !5904
	%1196 = load i32, i32*  %1195, align 4, !tbaa !5953, !dbg !5904
	%1197 = icmp ne i32  %1193,  %1196, !dbg !5904
	br i1  %1197, label %L..inline.66674, label %L.B1016, !dbg !5904
L.B1016:
	%1198 = load i32, i32* %..inline.addr.790, align 4, !tbaa !5957, !dbg !5905
	%1199 = bitcast [3 x i32]* %..inline.addr.830 to i32*, !dbg !5905
	%1200 = load i32, i32*  %1199, align 4, !tbaa !5953, !dbg !5905
	%1201 = bitcast %struct._Z6FsGridISt5arrayIdLm3EELi2EE*  %1188 to i8*, !dbg !5905
	%1202 = getelementptr i8, i8*  %1201, i64 264, !dbg !5905
	%1203 = bitcast i8*  %1202 to i32*, !dbg !5905
	%1204 = load i32, i32*  %1203, align 4, !tbaa !5953, !dbg !5905
	%1205 = mul i32  %1200,  %1204, !dbg !5905
	%1206 = add i32  %1198,  %1205, !dbg !5905
	store i32  %1206, i32* %..inline.addr.790, align 4, !tbaa !5957, !dbg !5905
	%1207 = load i32, i32* %..inline.addr.800, align 4, !tbaa !5957, !dbg !5906
	%1208 = bitcast [3 x i32]* %..inline.addr.830 to i8*, !dbg !5906
	%1209 = getelementptr i8, i8*  %1208, i64 4, !dbg !5906
	%1210 = bitcast i8*  %1209 to i32*, !dbg !5906
	%1211 = load i32, i32*  %1210, align 4, !tbaa !5953, !dbg !5906
	%1212 = getelementptr i8, i8*  %1201, i64 268, !dbg !5906
	%1213 = bitcast i8*  %1212 to i32*, !dbg !5906
	%1214 = load i32, i32*  %1213, align 4, !tbaa !5953, !dbg !5906
	%1215 = mul i32  %1211,  %1214, !dbg !5906
	%1216 = add i32  %1207,  %1215, !dbg !5906
	store i32  %1216, i32* %..inline.addr.800, align 4, !tbaa !5957, !dbg !5906
	%1217 = load i32, i32* %..inline.addr.810, align 4, !tbaa !5957, !dbg !5907
	%1218 = getelementptr i8, i8*  %1208, i64 8, !dbg !5907
	%1219 = bitcast i8*  %1218 to i32*, !dbg !5907
	%1220 = load i32, i32*  %1219, align 4, !tbaa !5953, !dbg !5907
	%1221 = getelementptr i8, i8*  %1201, i64 272, !dbg !5907
	%1222 = bitcast i8*  %1221 to i32*, !dbg !5907
	%1223 = load i32, i32*  %1222, align 4, !tbaa !5953, !dbg !5907
	%1224 = mul i32  %1220,  %1223, !dbg !5907
	%1225 = add i32  %1217,  %1224, !dbg !5907
	store i32  %1225, i32* %..inline.addr.810, align 4, !tbaa !5957, !dbg !5907
	br label %L..inline.66674
L..inline.66674:
	br label %L..inline.66639
L..inline.66639:
	store i64 0, i64* %..inline.addr.850, align 8, !tbaa !5955, !dbg !5908
	%1226 = load %struct._Z6FsGridISt5arrayIdLm3EELi2EE*, %struct._Z6FsGridISt5arrayIdLm3EELi2EE** %..inline.addr.780, align 8, !tbaa !5952, !dbg !5908
	%1227 = bitcast %struct._Z6FsGridISt5arrayIdLm3EELi2EE*  %1226 to i8*, !dbg !5908
	%1228 = getelementptr i8, i8*  %1227, i64 260, !dbg !5908
	%1229 = bitcast i8*  %1228 to i32*, !dbg !5908
	%1230 = load i32, i32*  %1229, align 4, !tbaa !5953, !dbg !5908
	%1231 = icmp sle i32  %1230, 1, !dbg !5908
	br i1  %1231, label %L..inline.66748, label %L.B1017, !dbg !5908
L.B1017:
	%1232 = load i32, i32* %..inline.addr.810, align 4, !tbaa !5957, !dbg !5908
	%1233 = add i32  %1232, 2, !dbg !5908
	%1234 = bitcast %struct._Z6FsGridISt5arrayIdLm3EELi2EE*  %1226 to i8*, !dbg !5908
	%1235 = getelementptr i8, i8*  %1234, i64 280, !dbg !5908
	%1236 = bitcast i8*  %1235 to i32*, !dbg !5908
	%1237 = load i32, i32*  %1236, align 4, !tbaa !5953, !dbg !5908
	%1238 = getelementptr i8, i8*  %1234, i64 276, !dbg !5908
	%1239 = bitcast i8*  %1238 to i32*, !dbg !5908
	%1240 = load i32, i32*  %1239, align 4, !tbaa !5953, !dbg !5908
	%1241 = mul i32  %1237,  %1240, !dbg !5908
	%1242 = mul i32  %1233,  %1241, !dbg !5908
	%1243 = sext i32  %1242 to i64, !dbg !5908
	store i64  %1243, i64* %..inline.addr.850, align 8, !tbaa !5955, !dbg !5908
	br label %L..inline.66748
L..inline.66748:
	%1244 = load %struct._Z6FsGridISt5arrayIdLm3EELi2EE*, %struct._Z6FsGridISt5arrayIdLm3EELi2EE** %..inline.addr.780, align 8, !tbaa !5952, !dbg !5908
	%1245 = bitcast %struct._Z6FsGridISt5arrayIdLm3EELi2EE*  %1244 to i8*, !dbg !5908
	%1246 = getelementptr i8, i8*  %1245, i64 256, !dbg !5908
	%1247 = bitcast i8*  %1246 to i32*, !dbg !5908
	%1248 = load i32, i32*  %1247, align 4, !tbaa !5953, !dbg !5908
	%1249 = icmp sle i32  %1248, 1, !dbg !5908
	br i1  %1249, label %L..inline.66797, label %L.B1018, !dbg !5908
L.B1018:
	%1250 = load i64, i64* %..inline.addr.850, align 8, !tbaa !5955, !dbg !5908
	%1251 = bitcast %struct._Z6FsGridISt5arrayIdLm3EELi2EE*  %1244 to i8*, !dbg !5908
	%1252 = getelementptr i8, i8*  %1251, i64 276, !dbg !5908
	%1253 = bitcast i8*  %1252 to i32*, !dbg !5908
	%1254 = load i32, i32*  %1253, align 4, !tbaa !5953, !dbg !5908
	%1255 = load i32, i32* %..inline.addr.800, align 4, !tbaa !5957, !dbg !5908
	%1256 = add i32  %1255, 2, !dbg !5908
	%1257 = mul i32  %1254,  %1256, !dbg !5908
	%1258 = sext i32  %1257 to i64, !dbg !5908
	%1259 = add i64  %1250,  %1258, !dbg !5908
	store i64  %1259, i64* %..inline.addr.850, align 8, !tbaa !5955, !dbg !5908
	br label %L..inline.66797
L..inline.66797:
	%1260 = load %struct._Z6FsGridISt5arrayIdLm3EELi2EE*, %struct._Z6FsGridISt5arrayIdLm3EELi2EE** %..inline.addr.780, align 8, !tbaa !5952, !dbg !5908
	%1261 = bitcast %struct._Z6FsGridISt5arrayIdLm3EELi2EE*  %1260 to i8*, !dbg !5908
	%1262 = getelementptr i8, i8*  %1261, i64 252, !dbg !5908
	%1263 = bitcast i8*  %1262 to i32*, !dbg !5908
	%1264 = load i32, i32*  %1263, align 4, !tbaa !5953, !dbg !5908
	%1265 = icmp sle i32  %1264, 1, !dbg !5908
	%1266 = zext i1  %1265 to i32, !dbg !5908
	%1267 = trunc i32  %1266 to i1, !dbg !5908
	%1268 = load i64, i64* %..inline.addr.850, align 8, !tbaa !5955, !dbg !5908
	%1269 = load i32, i32* %..inline.addr.790, align 4, !tbaa !5957, !dbg !5908
	%1270 = sext i32  %1269 to i64, !dbg !5908
	%1271 = add i64  %1270, 2, !dbg !5908
	%1272 = add i64  %1268,  %1271, !dbg !5908
	%1273 = select i1  %1267, i64  %1268, i64  %1272, !dbg !5908
	%1274 = getelementptr i8, i8*  %1261, i64 744, !dbg !5909
	%1275 = bitcast i8*  %1274 to i8**, !dbg !5909
	%1276 = load i8*, i8**  %1275, align 8, !tbaa !5952, !dbg !5909
	%1277 = mul i64  %1273, 24, !dbg !5909
	%1278 = getelementptr i8, i8*  %1276, i64  %1277, !dbg !5909
	%1279 = bitcast %struct._ZSt5arrayIdLm3EE** %..inline.addr.840 to i8**, !dbg !5909
	store i8*  %1278, i8**  %1279, align 8, !tbaa !5952, !dbg !5909
	br label %L..inline.66843
L..inline.66843:
	%1280 = load %struct._ZSt5arrayIdLm3EE*, %struct._ZSt5arrayIdLm3EE** %..inline.addr.840, align 8, !tbaa !5952, !dbg !5910
	%1281 = bitcast %struct._ZSt5arrayIdLm3EE*  %1280 to i8*, !dbg !5910
	call void @llvm.dbg.declare (metadata %struct._ZSt5arrayIdLm3EE** %EGrid_i1j2k1.addr, metadata !5921, metadata !5861), !dbg !4063
	%1282 = bitcast %struct._ZSt5arrayIdLm3EE** %EGrid_i1j2k1.addr to i8**, !dbg !5910
	store i8*  %1281, i8**  %1282, align 8, !tbaa !5952, !dbg !5910
	%1283 = load %struct._Z6FsGridISt5arrayIdLm3EELi2EE*, %struct._Z6FsGridISt5arrayIdLm3EELi2EE** %EGrid.addr, align 8, !tbaa !5952, !dbg !5922
	%1284 = bitcast %struct._Z6FsGridISt5arrayIdLm3EELi2EE*  %1283 to i8*, !dbg !5922
	%1285 = bitcast %struct._Z6FsGridISt5arrayIdLm3EELi2EE** %..inline.addr.870 to i8**, !dbg !5922
	store i8*  %1284, i8**  %1285, align 8, !tbaa !5952, !dbg !5922
	%1286 = load i32, i32* %i.addr, align 4, !tbaa !5957, !dbg !5922
	store i32  %1286, i32* %..inline.addr.880, align 4, !tbaa !5957, !dbg !5922
	%1287 = load i32, i32* %j.addr, align 4, !tbaa !5957, !dbg !5922
	store i32  %1287, i32* %..inline.addr.890, align 4, !tbaa !5957, !dbg !5922
	%1288 = load i32, i32* %.r1.4306.addr, align 4, !tbaa !5957, !dbg !5922
	store i32  %1288, i32* %..inline.addr.900, align 4, !tbaa !5957, !dbg !5922
	store i32 13, i32* %..inline.addr.910, align 4, !tbaa !5957, !dbg !5922
	%1289 = bitcast [3 x i32]* %..inline.addr.920 to i32*, !dbg !5887
	store i32 0, i32*  %1289, align 4, !tbaa !5953, !dbg !5887
	%1290 = bitcast [3 x i32]* %..inline.addr.920 to i8*, !dbg !5888
	%1291 = getelementptr i8, i8*  %1290, i64 4, !dbg !5888
	%1292 = bitcast i8*  %1291 to i32*, !dbg !5888
	store i32 0, i32*  %1292, align 4, !tbaa !5953, !dbg !5888
	%1293 = getelementptr i8, i8*  %1290, i64 8, !dbg !5888
	%1294 = bitcast i8*  %1293 to i32*, !dbg !5888
	store i32 0, i32*  %1294, align 4, !tbaa !5953, !dbg !5888
	%1295 = icmp sge i32  %1286, 0, !dbg !5888
	br i1  %1295, label %L..inline.66849, label %L.B1019, !dbg !5888
L.B1019:
	store i32 4, i32* %..inline.addr.910, align 4, !tbaa !5957, !dbg !5889
	%1296 = bitcast [3 x i32]* %..inline.addr.920 to i32*, !dbg !5890
	store i32 1, i32*  %1296, align 4, !tbaa !5953, !dbg !5890
	br label %L..inline.66849
L..inline.66849:
	%1297 = load i32, i32* %..inline.addr.880, align 4, !tbaa !5957, !dbg !5891
	%1298 = load %struct._Z6FsGridISt5arrayIdLm3EELi2EE*, %struct._Z6FsGridISt5arrayIdLm3EELi2EE** %..inline.addr.870, align 8, !tbaa !5952, !dbg !5891
	%1299 = bitcast %struct._Z6FsGridISt5arrayIdLm3EELi2EE*  %1298 to i8*, !dbg !5891
	%1300 = getelementptr i8, i8*  %1299, i64 264, !dbg !5891
	%1301 = bitcast i8*  %1300 to i32*, !dbg !5891
	%1302 = load i32, i32*  %1301, align 4, !tbaa !5953, !dbg !5891
	%1303 = icmp slt i32  %1297,  %1302, !dbg !5891
	br i1  %1303, label %L..inline.66867, label %L.B1020, !dbg !5891
L.B1020:
	%1304 = load i32, i32* %..inline.addr.910, align 4, !tbaa !5957, !dbg !5891
	%1305 = add i32  %1304, 9, !dbg !5891
	store i32  %1305, i32* %..inline.addr.910, align 4, !tbaa !5957, !dbg !5891
	%1306 = bitcast [3 x i32]* %..inline.addr.920 to i32*, !dbg !5892
	store i32 -1, i32*  %1306, align 4, !tbaa !5953, !dbg !5892
	br label %L..inline.66867
L..inline.66867:
	%1307 = load i32, i32* %..inline.addr.890, align 4, !tbaa !5957, !dbg !5893
	%1308 = icmp sge i32  %1307, 0, !dbg !5893
	br i1  %1308, label %L..inline.66869, label %L.B1021, !dbg !5893
L.B1021:
	%1309 = load i32, i32* %..inline.addr.910, align 4, !tbaa !5957, !dbg !5893
	%1310 = sub i32  %1309, 3, !dbg !5893
	store i32  %1310, i32* %..inline.addr.910, align 4, !tbaa !5957, !dbg !5893
	%1311 = bitcast [3 x i32]* %..inline.addr.920 to i8*, !dbg !5894
	%1312 = getelementptr i8, i8*  %1311, i64 4, !dbg !5894
	%1313 = bitcast i8*  %1312 to i32*, !dbg !5894
	store i32 1, i32*  %1313, align 4, !tbaa !5953, !dbg !5894
	br label %L..inline.66869
L..inline.66869:
	%1314 = load i32, i32* %..inline.addr.890, align 4, !tbaa !5957, !dbg !5895
	%1315 = load %struct._Z6FsGridISt5arrayIdLm3EELi2EE*, %struct._Z6FsGridISt5arrayIdLm3EELi2EE** %..inline.addr.870, align 8, !tbaa !5952, !dbg !5895
	%1316 = bitcast %struct._Z6FsGridISt5arrayIdLm3EELi2EE*  %1315 to i8*, !dbg !5895
	%1317 = getelementptr i8, i8*  %1316, i64 268, !dbg !5895
	%1318 = bitcast i8*  %1317 to i32*, !dbg !5895
	%1319 = load i32, i32*  %1318, align 4, !tbaa !5953, !dbg !5895
	%1320 = icmp slt i32  %1314,  %1319, !dbg !5895
	br i1  %1320, label %L..inline.66886, label %L.B1022, !dbg !5895
L.B1022:
	%1321 = load i32, i32* %..inline.addr.910, align 4, !tbaa !5957, !dbg !5895
	%1322 = add i32  %1321, 3, !dbg !5895
	store i32  %1322, i32* %..inline.addr.910, align 4, !tbaa !5957, !dbg !5895
	%1323 = bitcast [3 x i32]* %..inline.addr.920 to i8*, !dbg !5896
	%1324 = getelementptr i8, i8*  %1323, i64 4, !dbg !5896
	%1325 = bitcast i8*  %1324 to i32*, !dbg !5896
	store i32 -1, i32*  %1325, align 4, !tbaa !5953, !dbg !5896
	br label %L..inline.66886
L..inline.66886:
	%1326 = load i32, i32* %..inline.addr.900, align 4, !tbaa !5957, !dbg !5897
	%1327 = icmp sge i32  %1326, 0, !dbg !5897
	br i1  %1327, label %L..inline.66888, label %L.B1023, !dbg !5897
L.B1023:
	%1328 = load i32, i32* %..inline.addr.910, align 4, !tbaa !5957, !dbg !5897
	%1329 = sub i32  %1328, 1, !dbg !5897
	store i32  %1329, i32* %..inline.addr.910, align 4, !tbaa !5957, !dbg !5897
	%1330 = bitcast [3 x i32]* %..inline.addr.920 to i8*, !dbg !5898
	%1331 = getelementptr i8, i8*  %1330, i64 8, !dbg !5898
	%1332 = bitcast i8*  %1331 to i32*, !dbg !5898
	store i32 1, i32*  %1332, align 4, !tbaa !5953, !dbg !5898
	br label %L..inline.66888
L..inline.66888:
	%1333 = load i32, i32* %..inline.addr.900, align 4, !tbaa !5957, !dbg !5899
	%1334 = load %struct._Z6FsGridISt5arrayIdLm3EELi2EE*, %struct._Z6FsGridISt5arrayIdLm3EELi2EE** %..inline.addr.870, align 8, !tbaa !5952, !dbg !5899
	%1335 = bitcast %struct._Z6FsGridISt5arrayIdLm3EELi2EE*  %1334 to i8*, !dbg !5899
	%1336 = getelementptr i8, i8*  %1335, i64 272, !dbg !5899
	%1337 = bitcast i8*  %1336 to i32*, !dbg !5899
	%1338 = load i32, i32*  %1337, align 4, !tbaa !5953, !dbg !5899
	%1339 = icmp slt i32  %1333,  %1338, !dbg !5899
	br i1  %1339, label %L..inline.66905, label %L.B1024, !dbg !5899
L.B1024:
	%1340 = load i32, i32* %..inline.addr.910, align 4, !tbaa !5957, !dbg !5899
	%1341 = add i32  %1340, 1, !dbg !5899
	store i32  %1341, i32* %..inline.addr.910, align 4, !tbaa !5957, !dbg !5899
	%1342 = bitcast [3 x i32]* %..inline.addr.920 to i8*, !dbg !5900
	%1343 = getelementptr i8, i8*  %1342, i64 8, !dbg !5900
	%1344 = bitcast i8*  %1343 to i32*, !dbg !5900
	store i32 -1, i32*  %1344, align 4, !tbaa !5953, !dbg !5900
	br label %L..inline.66905
L..inline.66905:
	%1345 = load i32, i32* %..inline.addr.910, align 4, !tbaa !5957, !dbg !5901
	%1346 = icmp eq i32  %1345, 13, !dbg !5901
	br i1  %1346, label %L..inline.66906, label %L.B1025, !dbg !5901
L.B1025:
	%1347 = sext i32  %1345 to i64, !dbg !5902
	%1348 = load %struct._Z6FsGridISt5arrayIdLm3EELi2EE*, %struct._Z6FsGridISt5arrayIdLm3EELi2EE** %..inline.addr.870, align 8, !tbaa !5952, !dbg !5902
	%1349 = bitcast %struct._Z6FsGridISt5arrayIdLm3EELi2EE*  %1348 to i8*, !dbg !5902
	%1350 = getelementptr i8, i8*  %1349, i64 92, !dbg !5902
	%1351 = bitcast i8*  %1350 to i32*, !dbg !5902
	%1352 = getelementptr i32, i32*  %1351, i64  %1347, !dbg !5902
	%1353 = load i32, i32*  %1352, align 4, !tbaa !5953, !dbg !5902
	%1354 = icmp ne i32  %1353, -2, !dbg !5902
	br i1  %1354, label %L..inline.66923, label %L.B1026, !dbg !5902
L.B1026:
	%1355 = bitcast %struct._ZSt5arrayIdLm3EE** %..inline.addr.930 to i8**, !dbg !5902
	store i8* null, i8**  %1355, align 8, !tbaa !5952, !dbg !5902
	br label %L..inline.67110, !dbg !5903
L..inline.66923:
	%1356 = load i32, i32* %..inline.addr.910, align 4, !tbaa !5957, !dbg !5904
	%1357 = sext i32  %1356 to i64, !dbg !5904
	%1358 = load %struct._Z6FsGridISt5arrayIdLm3EELi2EE*, %struct._Z6FsGridISt5arrayIdLm3EELi2EE** %..inline.addr.870, align 8, !tbaa !5952, !dbg !5904
	%1359 = bitcast %struct._Z6FsGridISt5arrayIdLm3EELi2EE*  %1358 to i8*, !dbg !5904
	%1360 = getelementptr i8, i8*  %1359, i64 92, !dbg !5904
	%1361 = bitcast i8*  %1360 to i32*, !dbg !5904
	%1362 = getelementptr i32, i32*  %1361, i64  %1357, !dbg !5904
	%1363 = load i32, i32*  %1362, align 4, !tbaa !5953, !dbg !5904
	%1364 = getelementptr i8, i8*  %1359, i64 56, !dbg !5904
	%1365 = bitcast i8*  %1364 to i32*, !dbg !5904
	%1366 = load i32, i32*  %1365, align 4, !tbaa !5953, !dbg !5904
	%1367 = icmp ne i32  %1363,  %1366, !dbg !5904
	br i1  %1367, label %L..inline.66941, label %L.B1027, !dbg !5904
L.B1027:
	%1368 = load i32, i32* %..inline.addr.880, align 4, !tbaa !5957, !dbg !5905
	%1369 = bitcast [3 x i32]* %..inline.addr.920 to i32*, !dbg !5905
	%1370 = load i32, i32*  %1369, align 4, !tbaa !5953, !dbg !5905
	%1371 = bitcast %struct._Z6FsGridISt5arrayIdLm3EELi2EE*  %1358 to i8*, !dbg !5905
	%1372 = getelementptr i8, i8*  %1371, i64 264, !dbg !5905
	%1373 = bitcast i8*  %1372 to i32*, !dbg !5905
	%1374 = load i32, i32*  %1373, align 4, !tbaa !5953, !dbg !5905
	%1375 = mul i32  %1370,  %1374, !dbg !5905
	%1376 = add i32  %1368,  %1375, !dbg !5905
	store i32  %1376, i32* %..inline.addr.880, align 4, !tbaa !5957, !dbg !5905
	%1377 = load i32, i32* %..inline.addr.890, align 4, !tbaa !5957, !dbg !5906
	%1378 = bitcast [3 x i32]* %..inline.addr.920 to i8*, !dbg !5906
	%1379 = getelementptr i8, i8*  %1378, i64 4, !dbg !5906
	%1380 = bitcast i8*  %1379 to i32*, !dbg !5906
	%1381 = load i32, i32*  %1380, align 4, !tbaa !5953, !dbg !5906
	%1382 = getelementptr i8, i8*  %1371, i64 268, !dbg !5906
	%1383 = bitcast i8*  %1382 to i32*, !dbg !5906
	%1384 = load i32, i32*  %1383, align 4, !tbaa !5953, !dbg !5906
	%1385 = mul i32  %1381,  %1384, !dbg !5906
	%1386 = add i32  %1377,  %1385, !dbg !5906
	store i32  %1386, i32* %..inline.addr.890, align 4, !tbaa !5957, !dbg !5906
	%1387 = load i32, i32* %..inline.addr.900, align 4, !tbaa !5957, !dbg !5907
	%1388 = getelementptr i8, i8*  %1378, i64 8, !dbg !5907
	%1389 = bitcast i8*  %1388 to i32*, !dbg !5907
	%1390 = load i32, i32*  %1389, align 4, !tbaa !5953, !dbg !5907
	%1391 = getelementptr i8, i8*  %1371, i64 272, !dbg !5907
	%1392 = bitcast i8*  %1391 to i32*, !dbg !5907
	%1393 = load i32, i32*  %1392, align 4, !tbaa !5953, !dbg !5907
	%1394 = mul i32  %1390,  %1393, !dbg !5907
	%1395 = add i32  %1387,  %1394, !dbg !5907
	store i32  %1395, i32* %..inline.addr.900, align 4, !tbaa !5957, !dbg !5907
	br label %L..inline.66941
L..inline.66941:
	br label %L..inline.66906
L..inline.66906:
	store i64 0, i64* %..inline.addr.940, align 8, !tbaa !5955, !dbg !5908
	%1396 = load %struct._Z6FsGridISt5arrayIdLm3EELi2EE*, %struct._Z6FsGridISt5arrayIdLm3EELi2EE** %..inline.addr.870, align 8, !tbaa !5952, !dbg !5908
	%1397 = bitcast %struct._Z6FsGridISt5arrayIdLm3EELi2EE*  %1396 to i8*, !dbg !5908
	%1398 = getelementptr i8, i8*  %1397, i64 260, !dbg !5908
	%1399 = bitcast i8*  %1398 to i32*, !dbg !5908
	%1400 = load i32, i32*  %1399, align 4, !tbaa !5953, !dbg !5908
	%1401 = icmp sle i32  %1400, 1, !dbg !5908
	br i1  %1401, label %L..inline.67015, label %L.B1028, !dbg !5908
L.B1028:
	%1402 = load i32, i32* %..inline.addr.900, align 4, !tbaa !5957, !dbg !5908
	%1403 = add i32  %1402, 2, !dbg !5908
	%1404 = bitcast %struct._Z6FsGridISt5arrayIdLm3EELi2EE*  %1396 to i8*, !dbg !5908
	%1405 = getelementptr i8, i8*  %1404, i64 280, !dbg !5908
	%1406 = bitcast i8*  %1405 to i32*, !dbg !5908
	%1407 = load i32, i32*  %1406, align 4, !tbaa !5953, !dbg !5908
	%1408 = getelementptr i8, i8*  %1404, i64 276, !dbg !5908
	%1409 = bitcast i8*  %1408 to i32*, !dbg !5908
	%1410 = load i32, i32*  %1409, align 4, !tbaa !5953, !dbg !5908
	%1411 = mul i32  %1407,  %1410, !dbg !5908
	%1412 = mul i32  %1403,  %1411, !dbg !5908
	%1413 = sext i32  %1412 to i64, !dbg !5908
	store i64  %1413, i64* %..inline.addr.940, align 8, !tbaa !5955, !dbg !5908
	br label %L..inline.67015
L..inline.67015:
	%1414 = load %struct._Z6FsGridISt5arrayIdLm3EELi2EE*, %struct._Z6FsGridISt5arrayIdLm3EELi2EE** %..inline.addr.870, align 8, !tbaa !5952, !dbg !5908
	%1415 = bitcast %struct._Z6FsGridISt5arrayIdLm3EELi2EE*  %1414 to i8*, !dbg !5908
	%1416 = getelementptr i8, i8*  %1415, i64 256, !dbg !5908
	%1417 = bitcast i8*  %1416 to i32*, !dbg !5908
	%1418 = load i32, i32*  %1417, align 4, !tbaa !5953, !dbg !5908
	%1419 = icmp sle i32  %1418, 1, !dbg !5908
	br i1  %1419, label %L..inline.67064, label %L.B1029, !dbg !5908
L.B1029:
	%1420 = load i64, i64* %..inline.addr.940, align 8, !tbaa !5955, !dbg !5908
	%1421 = bitcast %struct._Z6FsGridISt5arrayIdLm3EELi2EE*  %1414 to i8*, !dbg !5908
	%1422 = getelementptr i8, i8*  %1421, i64 276, !dbg !5908
	%1423 = bitcast i8*  %1422 to i32*, !dbg !5908
	%1424 = load i32, i32*  %1423, align 4, !tbaa !5953, !dbg !5908
	%1425 = load i32, i32* %..inline.addr.890, align 4, !tbaa !5957, !dbg !5908
	%1426 = add i32  %1425, 2, !dbg !5908
	%1427 = mul i32  %1424,  %1426, !dbg !5908
	%1428 = sext i32  %1427 to i64, !dbg !5908
	%1429 = add i64  %1420,  %1428, !dbg !5908
	store i64  %1429, i64* %..inline.addr.940, align 8, !tbaa !5955, !dbg !5908
	br label %L..inline.67064
L..inline.67064:
	%1430 = load %struct._Z6FsGridISt5arrayIdLm3EELi2EE*, %struct._Z6FsGridISt5arrayIdLm3EELi2EE** %..inline.addr.870, align 8, !tbaa !5952, !dbg !5908
	%1431 = bitcast %struct._Z6FsGridISt5arrayIdLm3EELi2EE*  %1430 to i8*, !dbg !5908
	%1432 = getelementptr i8, i8*  %1431, i64 252, !dbg !5908
	%1433 = bitcast i8*  %1432 to i32*, !dbg !5908
	%1434 = load i32, i32*  %1433, align 4, !tbaa !5953, !dbg !5908
	%1435 = icmp sle i32  %1434, 1, !dbg !5908
	%1436 = zext i1  %1435 to i32, !dbg !5908
	%1437 = trunc i32  %1436 to i1, !dbg !5908
	%1438 = load i64, i64* %..inline.addr.940, align 8, !tbaa !5955, !dbg !5908
	%1439 = load i32, i32* %..inline.addr.880, align 4, !tbaa !5957, !dbg !5908
	%1440 = sext i32  %1439 to i64, !dbg !5908
	%1441 = add i64  %1440, 2, !dbg !5908
	%1442 = add i64  %1438,  %1441, !dbg !5908
	%1443 = select i1  %1437, i64  %1438, i64  %1442, !dbg !5908
	%1444 = getelementptr i8, i8*  %1431, i64 744, !dbg !5909
	%1445 = bitcast i8*  %1444 to i8**, !dbg !5909
	%1446 = load i8*, i8**  %1445, align 8, !tbaa !5952, !dbg !5909
	%1447 = mul i64  %1443, 24, !dbg !5909
	%1448 = getelementptr i8, i8*  %1446, i64  %1447, !dbg !5909
	%1449 = bitcast %struct._ZSt5arrayIdLm3EE** %..inline.addr.930 to i8**, !dbg !5909
	store i8*  %1448, i8**  %1449, align 8, !tbaa !5952, !dbg !5909
	br label %L..inline.67110
L..inline.67110:
	%1450 = load %struct._ZSt5arrayIdLm3EE*, %struct._ZSt5arrayIdLm3EE** %..inline.addr.930, align 8, !tbaa !5952, !dbg !5910
	%1451 = bitcast %struct._ZSt5arrayIdLm3EE*  %1450 to i8*, !dbg !5910
	call void @llvm.dbg.declare (metadata %struct._ZSt5arrayIdLm3EE** %EGrid_i1j1k2.addr, metadata !5923, metadata !5861), !dbg !4063
	%1452 = bitcast %struct._ZSt5arrayIdLm3EE** %EGrid_i1j1k2.addr to i8**, !dbg !5910
	store i8*  %1451, i8**  %1452, align 8, !tbaa !5952, !dbg !5910
	%1453 = load %struct._Z6FsGridISt5arrayIdLm3EELi2EE*, %struct._Z6FsGridISt5arrayIdLm3EELi2EE** %EGrid.addr, align 8, !tbaa !5952, !dbg !5924
	%1454 = bitcast %struct._Z6FsGridISt5arrayIdLm3EELi2EE*  %1453 to i8*, !dbg !5924
	%1455 = bitcast %struct._Z6FsGridISt5arrayIdLm3EELi2EE** %..inline.addr.960 to i8**, !dbg !5924
	store i8*  %1454, i8**  %1455, align 8, !tbaa !5952, !dbg !5924
	%1456 = load i32, i32* %i.addr, align 4, !tbaa !5957, !dbg !5924
	store i32  %1456, i32* %..inline.addr.970, align 4, !tbaa !5957, !dbg !5924
	%1457 = load i32, i32* %.r1.3762.addr, align 4, !tbaa !5957, !dbg !5924
	store i32  %1457, i32* %..inline.addr.980, align 4, !tbaa !5957, !dbg !5924
	%1458 = load i32, i32* %.r1.4306.addr, align 4, !tbaa !5957, !dbg !5924
	store i32  %1458, i32* %..inline.addr.990, align 4, !tbaa !5957, !dbg !5924
	store i32 13, i32* %..inline.addr.1000, align 4, !tbaa !5957, !dbg !5924
	%1459 = bitcast [3 x i32]* %..inline.addr.1010 to i32*, !dbg !5887
	store i32 0, i32*  %1459, align 4, !tbaa !5953, !dbg !5887
	%1460 = bitcast [3 x i32]* %..inline.addr.1010 to i8*, !dbg !5888
	%1461 = getelementptr i8, i8*  %1460, i64 4, !dbg !5888
	%1462 = bitcast i8*  %1461 to i32*, !dbg !5888
	store i32 0, i32*  %1462, align 4, !tbaa !5953, !dbg !5888
	%1463 = getelementptr i8, i8*  %1460, i64 8, !dbg !5888
	%1464 = bitcast i8*  %1463 to i32*, !dbg !5888
	store i32 0, i32*  %1464, align 4, !tbaa !5953, !dbg !5888
	%1465 = icmp sge i32  %1456, 0, !dbg !5888
	br i1  %1465, label %L..inline.67116, label %L.B1030, !dbg !5888
L.B1030:
	store i32 4, i32* %..inline.addr.1000, align 4, !tbaa !5957, !dbg !5889
	%1466 = bitcast [3 x i32]* %..inline.addr.1010 to i32*, !dbg !5890
	store i32 1, i32*  %1466, align 4, !tbaa !5953, !dbg !5890
	br label %L..inline.67116
L..inline.67116:
	%1467 = load i32, i32* %..inline.addr.970, align 4, !tbaa !5957, !dbg !5891
	%1468 = load %struct._Z6FsGridISt5arrayIdLm3EELi2EE*, %struct._Z6FsGridISt5arrayIdLm3EELi2EE** %..inline.addr.960, align 8, !tbaa !5952, !dbg !5891
	%1469 = bitcast %struct._Z6FsGridISt5arrayIdLm3EELi2EE*  %1468 to i8*, !dbg !5891
	%1470 = getelementptr i8, i8*  %1469, i64 264, !dbg !5891
	%1471 = bitcast i8*  %1470 to i32*, !dbg !5891
	%1472 = load i32, i32*  %1471, align 4, !tbaa !5953, !dbg !5891
	%1473 = icmp slt i32  %1467,  %1472, !dbg !5891
	br i1  %1473, label %L..inline.67134, label %L.B1031, !dbg !5891
L.B1031:
	%1474 = load i32, i32* %..inline.addr.1000, align 4, !tbaa !5957, !dbg !5891
	%1475 = add i32  %1474, 9, !dbg !5891
	store i32  %1475, i32* %..inline.addr.1000, align 4, !tbaa !5957, !dbg !5891
	%1476 = bitcast [3 x i32]* %..inline.addr.1010 to i32*, !dbg !5892
	store i32 -1, i32*  %1476, align 4, !tbaa !5953, !dbg !5892
	br label %L..inline.67134
L..inline.67134:
	%1477 = load i32, i32* %..inline.addr.980, align 4, !tbaa !5957, !dbg !5893
	%1478 = icmp sge i32  %1477, 0, !dbg !5893
	br i1  %1478, label %L..inline.67136, label %L.B1032, !dbg !5893
L.B1032:
	%1479 = load i32, i32* %..inline.addr.1000, align 4, !tbaa !5957, !dbg !5893
	%1480 = sub i32  %1479, 3, !dbg !5893
	store i32  %1480, i32* %..inline.addr.1000, align 4, !tbaa !5957, !dbg !5893
	%1481 = bitcast [3 x i32]* %..inline.addr.1010 to i8*, !dbg !5894
	%1482 = getelementptr i8, i8*  %1481, i64 4, !dbg !5894
	%1483 = bitcast i8*  %1482 to i32*, !dbg !5894
	store i32 1, i32*  %1483, align 4, !tbaa !5953, !dbg !5894
	br label %L..inline.67136
L..inline.67136:
	%1484 = load i32, i32* %..inline.addr.980, align 4, !tbaa !5957, !dbg !5895
	%1485 = load %struct._Z6FsGridISt5arrayIdLm3EELi2EE*, %struct._Z6FsGridISt5arrayIdLm3EELi2EE** %..inline.addr.960, align 8, !tbaa !5952, !dbg !5895
	%1486 = bitcast %struct._Z6FsGridISt5arrayIdLm3EELi2EE*  %1485 to i8*, !dbg !5895
	%1487 = getelementptr i8, i8*  %1486, i64 268, !dbg !5895
	%1488 = bitcast i8*  %1487 to i32*, !dbg !5895
	%1489 = load i32, i32*  %1488, align 4, !tbaa !5953, !dbg !5895
	%1490 = icmp slt i32  %1484,  %1489, !dbg !5895
	br i1  %1490, label %L..inline.67153, label %L.B1033, !dbg !5895
L.B1033:
	%1491 = load i32, i32* %..inline.addr.1000, align 4, !tbaa !5957, !dbg !5895
	%1492 = add i32  %1491, 3, !dbg !5895
	store i32  %1492, i32* %..inline.addr.1000, align 4, !tbaa !5957, !dbg !5895
	%1493 = bitcast [3 x i32]* %..inline.addr.1010 to i8*, !dbg !5896
	%1494 = getelementptr i8, i8*  %1493, i64 4, !dbg !5896
	%1495 = bitcast i8*  %1494 to i32*, !dbg !5896
	store i32 -1, i32*  %1495, align 4, !tbaa !5953, !dbg !5896
	br label %L..inline.67153
L..inline.67153:
	%1496 = load i32, i32* %..inline.addr.990, align 4, !tbaa !5957, !dbg !5897
	%1497 = icmp sge i32  %1496, 0, !dbg !5897
	br i1  %1497, label %L..inline.67155, label %L.B1034, !dbg !5897
L.B1034:
	%1498 = load i32, i32* %..inline.addr.1000, align 4, !tbaa !5957, !dbg !5897
	%1499 = sub i32  %1498, 1, !dbg !5897
	store i32  %1499, i32* %..inline.addr.1000, align 4, !tbaa !5957, !dbg !5897
	%1500 = bitcast [3 x i32]* %..inline.addr.1010 to i8*, !dbg !5898
	%1501 = getelementptr i8, i8*  %1500, i64 8, !dbg !5898
	%1502 = bitcast i8*  %1501 to i32*, !dbg !5898
	store i32 1, i32*  %1502, align 4, !tbaa !5953, !dbg !5898
	br label %L..inline.67155
L..inline.67155:
	%1503 = load i32, i32* %..inline.addr.990, align 4, !tbaa !5957, !dbg !5899
	%1504 = load %struct._Z6FsGridISt5arrayIdLm3EELi2EE*, %struct._Z6FsGridISt5arrayIdLm3EELi2EE** %..inline.addr.960, align 8, !tbaa !5952, !dbg !5899
	%1505 = bitcast %struct._Z6FsGridISt5arrayIdLm3EELi2EE*  %1504 to i8*, !dbg !5899
	%1506 = getelementptr i8, i8*  %1505, i64 272, !dbg !5899
	%1507 = bitcast i8*  %1506 to i32*, !dbg !5899
	%1508 = load i32, i32*  %1507, align 4, !tbaa !5953, !dbg !5899
	%1509 = icmp slt i32  %1503,  %1508, !dbg !5899
	br i1  %1509, label %L..inline.67172, label %L.B1035, !dbg !5899
L.B1035:
	%1510 = load i32, i32* %..inline.addr.1000, align 4, !tbaa !5957, !dbg !5899
	%1511 = add i32  %1510, 1, !dbg !5899
	store i32  %1511, i32* %..inline.addr.1000, align 4, !tbaa !5957, !dbg !5899
	%1512 = bitcast [3 x i32]* %..inline.addr.1010 to i8*, !dbg !5900
	%1513 = getelementptr i8, i8*  %1512, i64 8, !dbg !5900
	%1514 = bitcast i8*  %1513 to i32*, !dbg !5900
	store i32 -1, i32*  %1514, align 4, !tbaa !5953, !dbg !5900
	br label %L..inline.67172
L..inline.67172:
	%1515 = load i32, i32* %..inline.addr.1000, align 4, !tbaa !5957, !dbg !5901
	%1516 = icmp eq i32  %1515, 13, !dbg !5901
	br i1  %1516, label %L..inline.67173, label %L.B1036, !dbg !5901
L.B1036:
	%1517 = sext i32  %1515 to i64, !dbg !5902
	%1518 = load %struct._Z6FsGridISt5arrayIdLm3EELi2EE*, %struct._Z6FsGridISt5arrayIdLm3EELi2EE** %..inline.addr.960, align 8, !tbaa !5952, !dbg !5902
	%1519 = bitcast %struct._Z6FsGridISt5arrayIdLm3EELi2EE*  %1518 to i8*, !dbg !5902
	%1520 = getelementptr i8, i8*  %1519, i64 92, !dbg !5902
	%1521 = bitcast i8*  %1520 to i32*, !dbg !5902
	%1522 = getelementptr i32, i32*  %1521, i64  %1517, !dbg !5902
	%1523 = load i32, i32*  %1522, align 4, !tbaa !5953, !dbg !5902
	%1524 = icmp ne i32  %1523, -2, !dbg !5902
	br i1  %1524, label %L..inline.67190, label %L.B1037, !dbg !5902
L.B1037:
	%1525 = bitcast %struct._ZSt5arrayIdLm3EE** %..inline.addr.1020 to i8**, !dbg !5902
	store i8* null, i8**  %1525, align 8, !tbaa !5952, !dbg !5902
	br label %L..inline.67377, !dbg !5903
L..inline.67190:
	%1526 = load i32, i32* %..inline.addr.1000, align 4, !tbaa !5957, !dbg !5904
	%1527 = sext i32  %1526 to i64, !dbg !5904
	%1528 = load %struct._Z6FsGridISt5arrayIdLm3EELi2EE*, %struct._Z6FsGridISt5arrayIdLm3EELi2EE** %..inline.addr.960, align 8, !tbaa !5952, !dbg !5904
	%1529 = bitcast %struct._Z6FsGridISt5arrayIdLm3EELi2EE*  %1528 to i8*, !dbg !5904
	%1530 = getelementptr i8, i8*  %1529, i64 92, !dbg !5904
	%1531 = bitcast i8*  %1530 to i32*, !dbg !5904
	%1532 = getelementptr i32, i32*  %1531, i64  %1527, !dbg !5904
	%1533 = load i32, i32*  %1532, align 4, !tbaa !5953, !dbg !5904
	%1534 = getelementptr i8, i8*  %1529, i64 56, !dbg !5904
	%1535 = bitcast i8*  %1534 to i32*, !dbg !5904
	%1536 = load i32, i32*  %1535, align 4, !tbaa !5953, !dbg !5904
	%1537 = icmp ne i32  %1533,  %1536, !dbg !5904
	br i1  %1537, label %L..inline.67208, label %L.B1038, !dbg !5904
L.B1038:
	%1538 = load i32, i32* %..inline.addr.970, align 4, !tbaa !5957, !dbg !5905
	%1539 = bitcast [3 x i32]* %..inline.addr.1010 to i32*, !dbg !5905
	%1540 = load i32, i32*  %1539, align 4, !tbaa !5953, !dbg !5905
	%1541 = bitcast %struct._Z6FsGridISt5arrayIdLm3EELi2EE*  %1528 to i8*, !dbg !5905
	%1542 = getelementptr i8, i8*  %1541, i64 264, !dbg !5905
	%1543 = bitcast i8*  %1542 to i32*, !dbg !5905
	%1544 = load i32, i32*  %1543, align 4, !tbaa !5953, !dbg !5905
	%1545 = mul i32  %1540,  %1544, !dbg !5905
	%1546 = add i32  %1538,  %1545, !dbg !5905
	store i32  %1546, i32* %..inline.addr.970, align 4, !tbaa !5957, !dbg !5905
	%1547 = load i32, i32* %..inline.addr.980, align 4, !tbaa !5957, !dbg !5906
	%1548 = bitcast [3 x i32]* %..inline.addr.1010 to i8*, !dbg !5906
	%1549 = getelementptr i8, i8*  %1548, i64 4, !dbg !5906
	%1550 = bitcast i8*  %1549 to i32*, !dbg !5906
	%1551 = load i32, i32*  %1550, align 4, !tbaa !5953, !dbg !5906
	%1552 = getelementptr i8, i8*  %1541, i64 268, !dbg !5906
	%1553 = bitcast i8*  %1552 to i32*, !dbg !5906
	%1554 = load i32, i32*  %1553, align 4, !tbaa !5953, !dbg !5906
	%1555 = mul i32  %1551,  %1554, !dbg !5906
	%1556 = add i32  %1547,  %1555, !dbg !5906
	store i32  %1556, i32* %..inline.addr.980, align 4, !tbaa !5957, !dbg !5906
	%1557 = load i32, i32* %..inline.addr.990, align 4, !tbaa !5957, !dbg !5907
	%1558 = getelementptr i8, i8*  %1548, i64 8, !dbg !5907
	%1559 = bitcast i8*  %1558 to i32*, !dbg !5907
	%1560 = load i32, i32*  %1559, align 4, !tbaa !5953, !dbg !5907
	%1561 = getelementptr i8, i8*  %1541, i64 272, !dbg !5907
	%1562 = bitcast i8*  %1561 to i32*, !dbg !5907
	%1563 = load i32, i32*  %1562, align 4, !tbaa !5953, !dbg !5907
	%1564 = mul i32  %1560,  %1563, !dbg !5907
	%1565 = add i32  %1557,  %1564, !dbg !5907
	store i32  %1565, i32* %..inline.addr.990, align 4, !tbaa !5957, !dbg !5907
	br label %L..inline.67208
L..inline.67208:
	br label %L..inline.67173
L..inline.67173:
	store i64 0, i64* %..inline.addr.1030, align 8, !tbaa !5955, !dbg !5908
	%1566 = load %struct._Z6FsGridISt5arrayIdLm3EELi2EE*, %struct._Z6FsGridISt5arrayIdLm3EELi2EE** %..inline.addr.960, align 8, !tbaa !5952, !dbg !5908
	%1567 = bitcast %struct._Z6FsGridISt5arrayIdLm3EELi2EE*  %1566 to i8*, !dbg !5908
	%1568 = getelementptr i8, i8*  %1567, i64 260, !dbg !5908
	%1569 = bitcast i8*  %1568 to i32*, !dbg !5908
	%1570 = load i32, i32*  %1569, align 4, !tbaa !5953, !dbg !5908
	%1571 = icmp sle i32  %1570, 1, !dbg !5908
	br i1  %1571, label %L..inline.67282, label %L.B1039, !dbg !5908
L.B1039:
	%1572 = load i32, i32* %..inline.addr.990, align 4, !tbaa !5957, !dbg !5908
	%1573 = add i32  %1572, 2, !dbg !5908
	%1574 = bitcast %struct._Z6FsGridISt5arrayIdLm3EELi2EE*  %1566 to i8*, !dbg !5908
	%1575 = getelementptr i8, i8*  %1574, i64 280, !dbg !5908
	%1576 = bitcast i8*  %1575 to i32*, !dbg !5908
	%1577 = load i32, i32*  %1576, align 4, !tbaa !5953, !dbg !5908
	%1578 = getelementptr i8, i8*  %1574, i64 276, !dbg !5908
	%1579 = bitcast i8*  %1578 to i32*, !dbg !5908
	%1580 = load i32, i32*  %1579, align 4, !tbaa !5953, !dbg !5908
	%1581 = mul i32  %1577,  %1580, !dbg !5908
	%1582 = mul i32  %1573,  %1581, !dbg !5908
	%1583 = sext i32  %1582 to i64, !dbg !5908
	store i64  %1583, i64* %..inline.addr.1030, align 8, !tbaa !5955, !dbg !5908
	br label %L..inline.67282
L..inline.67282:
	%1584 = load %struct._Z6FsGridISt5arrayIdLm3EELi2EE*, %struct._Z6FsGridISt5arrayIdLm3EELi2EE** %..inline.addr.960, align 8, !tbaa !5952, !dbg !5908
	%1585 = bitcast %struct._Z6FsGridISt5arrayIdLm3EELi2EE*  %1584 to i8*, !dbg !5908
	%1586 = getelementptr i8, i8*  %1585, i64 256, !dbg !5908
	%1587 = bitcast i8*  %1586 to i32*, !dbg !5908
	%1588 = load i32, i32*  %1587, align 4, !tbaa !5953, !dbg !5908
	%1589 = icmp sle i32  %1588, 1, !dbg !5908
	br i1  %1589, label %L..inline.67331, label %L.B1040, !dbg !5908
L.B1040:
	%1590 = load i64, i64* %..inline.addr.1030, align 8, !tbaa !5955, !dbg !5908
	%1591 = bitcast %struct._Z6FsGridISt5arrayIdLm3EELi2EE*  %1584 to i8*, !dbg !5908
	%1592 = getelementptr i8, i8*  %1591, i64 276, !dbg !5908
	%1593 = bitcast i8*  %1592 to i32*, !dbg !5908
	%1594 = load i32, i32*  %1593, align 4, !tbaa !5953, !dbg !5908
	%1595 = load i32, i32* %..inline.addr.980, align 4, !tbaa !5957, !dbg !5908
	%1596 = add i32  %1595, 2, !dbg !5908
	%1597 = mul i32  %1594,  %1596, !dbg !5908
	%1598 = sext i32  %1597 to i64, !dbg !5908
	%1599 = add i64  %1590,  %1598, !dbg !5908
	store i64  %1599, i64* %..inline.addr.1030, align 8, !tbaa !5955, !dbg !5908
	br label %L..inline.67331
L..inline.67331:
	%1600 = load %struct._Z6FsGridISt5arrayIdLm3EELi2EE*, %struct._Z6FsGridISt5arrayIdLm3EELi2EE** %..inline.addr.960, align 8, !tbaa !5952, !dbg !5908
	%1601 = bitcast %struct._Z6FsGridISt5arrayIdLm3EELi2EE*  %1600 to i8*, !dbg !5908
	%1602 = getelementptr i8, i8*  %1601, i64 252, !dbg !5908
	%1603 = bitcast i8*  %1602 to i32*, !dbg !5908
	%1604 = load i32, i32*  %1603, align 4, !tbaa !5953, !dbg !5908
	%1605 = icmp sle i32  %1604, 1, !dbg !5908
	%1606 = zext i1  %1605 to i32, !dbg !5908
	%1607 = trunc i32  %1606 to i1, !dbg !5908
	%1608 = load i64, i64* %..inline.addr.1030, align 8, !tbaa !5955, !dbg !5908
	%1609 = load i32, i32* %..inline.addr.970, align 4, !tbaa !5957, !dbg !5908
	%1610 = sext i32  %1609 to i64, !dbg !5908
	%1611 = add i64  %1610, 2, !dbg !5908
	%1612 = add i64  %1608,  %1611, !dbg !5908
	%1613 = select i1  %1607, i64  %1608, i64  %1612, !dbg !5908
	%1614 = getelementptr i8, i8*  %1601, i64 744, !dbg !5909
	%1615 = bitcast i8*  %1614 to i8**, !dbg !5909
	%1616 = load i8*, i8**  %1615, align 8, !tbaa !5952, !dbg !5909
	%1617 = mul i64  %1613, 24, !dbg !5909
	%1618 = getelementptr i8, i8*  %1616, i64  %1617, !dbg !5909
	%1619 = bitcast %struct._ZSt5arrayIdLm3EE** %..inline.addr.1020 to i8**, !dbg !5909
	store i8*  %1618, i8**  %1619, align 8, !tbaa !5952, !dbg !5909
	br label %L..inline.67377
L..inline.67377:
	%1620 = load %struct._ZSt5arrayIdLm3EE*, %struct._ZSt5arrayIdLm3EE** %..inline.addr.1020, align 8, !tbaa !5952, !dbg !5916
	%1621 = bitcast %struct._ZSt5arrayIdLm3EE*  %1620 to double*, !dbg !5916
	%1622 = load double, double*  %1621, align 8, !tbaa !5953, !dbg !5916
	%1623 = load %struct._ZSt5arrayIdLm3EE*, %struct._ZSt5arrayIdLm3EE** %EGrid_i1j1k2.addr, align 8, !tbaa !5952, !dbg !5916
	%1624 = bitcast %struct._ZSt5arrayIdLm3EE*  %1623 to double*, !dbg !5916
	%1625 = load double, double*  %1624, align 8, !tbaa !5953, !dbg !5916
	%1626 = load %struct._ZSt5arrayIdLm3EE*, %struct._ZSt5arrayIdLm3EE** %EGrid_i1j2k1.addr, align 8, !tbaa !5952, !dbg !5916
	%1627 = bitcast %struct._ZSt5arrayIdLm3EE*  %1626 to double*, !dbg !5916
	%1628 = load double, double*  %1627, align 8, !tbaa !5953, !dbg !5916
	%1629 = load %struct._ZSt5arrayIdLm3EE*, %struct._ZSt5arrayIdLm3EE** %EGrid_i1j1k1.addr, align 8, !tbaa !5952, !dbg !5916
	%1630 = bitcast %struct._ZSt5arrayIdLm3EE*  %1629 to double*, !dbg !5916
	%1631 = load double, double*  %1630, align 8, !tbaa !5953, !dbg !5916
	%1632 = fadd double  %1628,  %1631, !dbg !5916
	%1633 = fadd double  %1625,  %1632, !dbg !5916
	%1634 = fadd double  %1622,  %1633, !dbg !5916
	%1635 = fmul double  %1634,  2.50000000000000000E-1, !dbg !5916
	%1636 = load %struct._ZSt5arrayIdLm12EE*, %struct._ZSt5arrayIdLm12EE** %volGrid0.addr, align 8, !tbaa !5952, !dbg !5916
	%1637 = bitcast %struct._ZSt5arrayIdLm12EE*  %1636 to i8*, !dbg !5916
	%1638 = getelementptr i8, i8*  %1637, i64 72, !dbg !5916
	%1639 = bitcast i8*  %1638 to double*, !dbg !5916
	store double  %1635, double*  %1639, align 8, !tbaa !5953, !dbg !5916
	br label %L.B0017, !dbg !5925
L.B0013:
	%1640 = load %struct._ZSt5arrayIdLm12EE*, %struct._ZSt5arrayIdLm12EE** %volGrid0.addr, align 8, !tbaa !5952, !dbg !5916
	%1641 = bitcast %struct._ZSt5arrayIdLm12EE*  %1640 to i8*, !dbg !5916
	%1642 = getelementptr i8, i8*  %1641, i64 72, !dbg !5916
	%1643 = bitcast i8*  %1642 to double*, !dbg !5916
	store double  0.00000000000000000E+0, double*  %1643, align 8, !tbaa !5953, !dbg !5916
	br label %L.B0017
L.B0017:
	%1644 = load %struct._Z6FsGridIN7fsgrids9technicalELi2EE*, %struct._Z6FsGridIN7fsgrids9technicalELi2EE** %technicalGrid.addr, align 8, !tbaa !5952, !dbg !5926
	%1645 = bitcast %struct._Z6FsGridIN7fsgrids9technicalELi2EE*  %1644 to i8*, !dbg !5926
	%1646 = bitcast %struct._Z6FsGridIN7fsgrids9technicalELi2EE** %..inline.addr.1040 to i8**, !dbg !5926
	store i8*  %1645, i8**  %1646, align 8, !tbaa !5952, !dbg !5926
	%1647 = load i32, i32* %i.addr, align 4, !tbaa !5957, !dbg !5926
	store i32  %1647, i32* %..inline.addr.1050, align 4, !tbaa !5957, !dbg !5926
	%1648 = load i32, i32* %j.addr, align 4, !tbaa !5957, !dbg !5926
	store i32  %1648, i32* %..inline.addr.1060, align 4, !tbaa !5957, !dbg !5926
	%1649 = load i32, i32* %k.addr, align 4, !tbaa !5957, !dbg !5926
	store i32  %1649, i32* %..inline.addr.1070, align 4, !tbaa !5957, !dbg !5926
	store i32 13, i32* %..inline.addr.1080, align 4, !tbaa !5957, !dbg !5926
	%1650 = bitcast [3 x i32]* %..inline.addr.1090 to i32*, !dbg !5887
	store i32 0, i32*  %1650, align 4, !tbaa !5953, !dbg !5887
	%1651 = bitcast [3 x i32]* %..inline.addr.1090 to i8*, !dbg !5888
	%1652 = getelementptr i8, i8*  %1651, i64 4, !dbg !5888
	%1653 = bitcast i8*  %1652 to i32*, !dbg !5888
	store i32 0, i32*  %1653, align 4, !tbaa !5953, !dbg !5888
	%1654 = getelementptr i8, i8*  %1651, i64 8, !dbg !5888
	%1655 = bitcast i8*  %1654 to i32*, !dbg !5888
	store i32 0, i32*  %1655, align 4, !tbaa !5953, !dbg !5888
	%1656 = icmp sge i32  %1647, 0, !dbg !5888
	br i1  %1656, label %L..inline.67479, label %L.B1041, !dbg !5888
L.B1041:
	store i32 4, i32* %..inline.addr.1080, align 4, !tbaa !5957, !dbg !5889
	%1657 = bitcast [3 x i32]* %..inline.addr.1090 to i32*, !dbg !5890
	store i32 1, i32*  %1657, align 4, !tbaa !5953, !dbg !5890
	br label %L..inline.67479
L..inline.67479:
	%1658 = load i32, i32* %..inline.addr.1050, align 4, !tbaa !5957, !dbg !5891
	%1659 = load %struct._Z6FsGridIN7fsgrids9technicalELi2EE*, %struct._Z6FsGridIN7fsgrids9technicalELi2EE** %..inline.addr.1040, align 8, !tbaa !5952, !dbg !5891
	%1660 = bitcast %struct._Z6FsGridIN7fsgrids9technicalELi2EE*  %1659 to i8*, !dbg !5891
	%1661 = getelementptr i8, i8*  %1660, i64 264, !dbg !5891
	%1662 = bitcast i8*  %1661 to i32*, !dbg !5891
	%1663 = load i32, i32*  %1662, align 4, !tbaa !5953, !dbg !5891
	%1664 = icmp slt i32  %1658,  %1663, !dbg !5891
	br i1  %1664, label %L..inline.67497, label %L.B1042, !dbg !5891
L.B1042:
	%1665 = load i32, i32* %..inline.addr.1080, align 4, !tbaa !5957, !dbg !5891
	%1666 = add i32  %1665, 9, !dbg !5891
	store i32  %1666, i32* %..inline.addr.1080, align 4, !tbaa !5957, !dbg !5891
	%1667 = bitcast [3 x i32]* %..inline.addr.1090 to i32*, !dbg !5892
	store i32 -1, i32*  %1667, align 4, !tbaa !5953, !dbg !5892
	br label %L..inline.67497
L..inline.67497:
	%1668 = load i32, i32* %..inline.addr.1060, align 4, !tbaa !5957, !dbg !5893
	%1669 = icmp sge i32  %1668, 0, !dbg !5893
	br i1  %1669, label %L..inline.67499, label %L.B1043, !dbg !5893
L.B1043:
	%1670 = load i32, i32* %..inline.addr.1080, align 4, !tbaa !5957, !dbg !5893
	%1671 = sub i32  %1670, 3, !dbg !5893
	store i32  %1671, i32* %..inline.addr.1080, align 4, !tbaa !5957, !dbg !5893
	%1672 = bitcast [3 x i32]* %..inline.addr.1090 to i8*, !dbg !5894
	%1673 = getelementptr i8, i8*  %1672, i64 4, !dbg !5894
	%1674 = bitcast i8*  %1673 to i32*, !dbg !5894
	store i32 1, i32*  %1674, align 4, !tbaa !5953, !dbg !5894
	br label %L..inline.67499
L..inline.67499:
	%1675 = load i32, i32* %..inline.addr.1060, align 4, !tbaa !5957, !dbg !5895
	%1676 = load %struct._Z6FsGridIN7fsgrids9technicalELi2EE*, %struct._Z6FsGridIN7fsgrids9technicalELi2EE** %..inline.addr.1040, align 8, !tbaa !5952, !dbg !5895
	%1677 = bitcast %struct._Z6FsGridIN7fsgrids9technicalELi2EE*  %1676 to i8*, !dbg !5895
	%1678 = getelementptr i8, i8*  %1677, i64 268, !dbg !5895
	%1679 = bitcast i8*  %1678 to i32*, !dbg !5895
	%1680 = load i32, i32*  %1679, align 4, !tbaa !5953, !dbg !5895
	%1681 = icmp slt i32  %1675,  %1680, !dbg !5895
	br i1  %1681, label %L..inline.67516, label %L.B1044, !dbg !5895
L.B1044:
	%1682 = load i32, i32* %..inline.addr.1080, align 4, !tbaa !5957, !dbg !5895
	%1683 = add i32  %1682, 3, !dbg !5895
	store i32  %1683, i32* %..inline.addr.1080, align 4, !tbaa !5957, !dbg !5895
	%1684 = bitcast [3 x i32]* %..inline.addr.1090 to i8*, !dbg !5896
	%1685 = getelementptr i8, i8*  %1684, i64 4, !dbg !5896
	%1686 = bitcast i8*  %1685 to i32*, !dbg !5896
	store i32 -1, i32*  %1686, align 4, !tbaa !5953, !dbg !5896
	br label %L..inline.67516
L..inline.67516:
	%1687 = load i32, i32* %..inline.addr.1070, align 4, !tbaa !5957, !dbg !5897
	%1688 = icmp sge i32  %1687, 0, !dbg !5897
	br i1  %1688, label %L..inline.67518, label %L.B1045, !dbg !5897
L.B1045:
	%1689 = load i32, i32* %..inline.addr.1080, align 4, !tbaa !5957, !dbg !5897
	%1690 = sub i32  %1689, 1, !dbg !5897
	store i32  %1690, i32* %..inline.addr.1080, align 4, !tbaa !5957, !dbg !5897
	%1691 = bitcast [3 x i32]* %..inline.addr.1090 to i8*, !dbg !5898
	%1692 = getelementptr i8, i8*  %1691, i64 8, !dbg !5898
	%1693 = bitcast i8*  %1692 to i32*, !dbg !5898
	store i32 1, i32*  %1693, align 4, !tbaa !5953, !dbg !5898
	br label %L..inline.67518
L..inline.67518:
	%1694 = load i32, i32* %..inline.addr.1070, align 4, !tbaa !5957, !dbg !5899
	%1695 = load %struct._Z6FsGridIN7fsgrids9technicalELi2EE*, %struct._Z6FsGridIN7fsgrids9technicalELi2EE** %..inline.addr.1040, align 8, !tbaa !5952, !dbg !5899
	%1696 = bitcast %struct._Z6FsGridIN7fsgrids9technicalELi2EE*  %1695 to i8*, !dbg !5899
	%1697 = getelementptr i8, i8*  %1696, i64 272, !dbg !5899
	%1698 = bitcast i8*  %1697 to i32*, !dbg !5899
	%1699 = load i32, i32*  %1698, align 4, !tbaa !5953, !dbg !5899
	%1700 = icmp slt i32  %1694,  %1699, !dbg !5899
	br i1  %1700, label %L..inline.67535, label %L.B1046, !dbg !5899
L.B1046:
	%1701 = load i32, i32* %..inline.addr.1080, align 4, !tbaa !5957, !dbg !5899
	%1702 = add i32  %1701, 1, !dbg !5899
	store i32  %1702, i32* %..inline.addr.1080, align 4, !tbaa !5957, !dbg !5899
	%1703 = bitcast [3 x i32]* %..inline.addr.1090 to i8*, !dbg !5900
	%1704 = getelementptr i8, i8*  %1703, i64 8, !dbg !5900
	%1705 = bitcast i8*  %1704 to i32*, !dbg !5900
	store i32 -1, i32*  %1705, align 4, !tbaa !5953, !dbg !5900
	br label %L..inline.67535
L..inline.67535:
	%1706 = load i32, i32* %..inline.addr.1080, align 4, !tbaa !5957, !dbg !5901
	%1707 = icmp eq i32  %1706, 13, !dbg !5901
	br i1  %1707, label %L..inline.67536, label %L.B1047, !dbg !5901
L.B1047:
	%1708 = sext i32  %1706 to i64, !dbg !5902
	%1709 = load %struct._Z6FsGridIN7fsgrids9technicalELi2EE*, %struct._Z6FsGridIN7fsgrids9technicalELi2EE** %..inline.addr.1040, align 8, !tbaa !5952, !dbg !5902
	%1710 = bitcast %struct._Z6FsGridIN7fsgrids9technicalELi2EE*  %1709 to i8*, !dbg !5902
	%1711 = getelementptr i8, i8*  %1710, i64 92, !dbg !5902
	%1712 = bitcast i8*  %1711 to i32*, !dbg !5902
	%1713 = getelementptr i32, i32*  %1712, i64  %1708, !dbg !5902
	%1714 = load i32, i32*  %1713, align 4, !tbaa !5953, !dbg !5902
	%1715 = icmp ne i32  %1714, -2, !dbg !5902
	br i1  %1715, label %L..inline.67553, label %L.B1048, !dbg !5902
L.B1048:
	%1716 = bitcast %struct._ZN7fsgrids9technicalE** %..inline.addr.1100 to i8**, !dbg !5902
	store i8* null, i8**  %1716, align 8, !tbaa !5952, !dbg !5902
	br label %L..inline.67740, !dbg !5903
L..inline.67553:
	%1717 = load i32, i32* %..inline.addr.1080, align 4, !tbaa !5957, !dbg !5904
	%1718 = sext i32  %1717 to i64, !dbg !5904
	%1719 = load %struct._Z6FsGridIN7fsgrids9technicalELi2EE*, %struct._Z6FsGridIN7fsgrids9technicalELi2EE** %..inline.addr.1040, align 8, !tbaa !5952, !dbg !5904
	%1720 = bitcast %struct._Z6FsGridIN7fsgrids9technicalELi2EE*  %1719 to i8*, !dbg !5904
	%1721 = getelementptr i8, i8*  %1720, i64 92, !dbg !5904
	%1722 = bitcast i8*  %1721 to i32*, !dbg !5904
	%1723 = getelementptr i32, i32*  %1722, i64  %1718, !dbg !5904
	%1724 = load i32, i32*  %1723, align 4, !tbaa !5953, !dbg !5904
	%1725 = getelementptr i8, i8*  %1720, i64 56, !dbg !5904
	%1726 = bitcast i8*  %1725 to i32*, !dbg !5904
	%1727 = load i32, i32*  %1726, align 4, !tbaa !5953, !dbg !5904
	%1728 = icmp ne i32  %1724,  %1727, !dbg !5904
	br i1  %1728, label %L..inline.67571, label %L.B1049, !dbg !5904
L.B1049:
	%1729 = load i32, i32* %..inline.addr.1050, align 4, !tbaa !5957, !dbg !5905
	%1730 = bitcast [3 x i32]* %..inline.addr.1090 to i32*, !dbg !5905
	%1731 = load i32, i32*  %1730, align 4, !tbaa !5953, !dbg !5905
	%1732 = bitcast %struct._Z6FsGridIN7fsgrids9technicalELi2EE*  %1719 to i8*, !dbg !5905
	%1733 = getelementptr i8, i8*  %1732, i64 264, !dbg !5905
	%1734 = bitcast i8*  %1733 to i32*, !dbg !5905
	%1735 = load i32, i32*  %1734, align 4, !tbaa !5953, !dbg !5905
	%1736 = mul i32  %1731,  %1735, !dbg !5905
	%1737 = add i32  %1729,  %1736, !dbg !5905
	store i32  %1737, i32* %..inline.addr.1050, align 4, !tbaa !5957, !dbg !5905
	%1738 = load i32, i32* %..inline.addr.1060, align 4, !tbaa !5957, !dbg !5906
	%1739 = bitcast [3 x i32]* %..inline.addr.1090 to i8*, !dbg !5906
	%1740 = getelementptr i8, i8*  %1739, i64 4, !dbg !5906
	%1741 = bitcast i8*  %1740 to i32*, !dbg !5906
	%1742 = load i32, i32*  %1741, align 4, !tbaa !5953, !dbg !5906
	%1743 = getelementptr i8, i8*  %1732, i64 268, !dbg !5906
	%1744 = bitcast i8*  %1743 to i32*, !dbg !5906
	%1745 = load i32, i32*  %1744, align 4, !tbaa !5953, !dbg !5906
	%1746 = mul i32  %1742,  %1745, !dbg !5906
	%1747 = add i32  %1738,  %1746, !dbg !5906
	store i32  %1747, i32* %..inline.addr.1060, align 4, !tbaa !5957, !dbg !5906
	%1748 = load i32, i32* %..inline.addr.1070, align 4, !tbaa !5957, !dbg !5907
	%1749 = getelementptr i8, i8*  %1739, i64 8, !dbg !5907
	%1750 = bitcast i8*  %1749 to i32*, !dbg !5907
	%1751 = load i32, i32*  %1750, align 4, !tbaa !5953, !dbg !5907
	%1752 = getelementptr i8, i8*  %1732, i64 272, !dbg !5907
	%1753 = bitcast i8*  %1752 to i32*, !dbg !5907
	%1754 = load i32, i32*  %1753, align 4, !tbaa !5953, !dbg !5907
	%1755 = mul i32  %1751,  %1754, !dbg !5907
	%1756 = add i32  %1748,  %1755, !dbg !5907
	store i32  %1756, i32* %..inline.addr.1070, align 4, !tbaa !5957, !dbg !5907
	br label %L..inline.67571
L..inline.67571:
	br label %L..inline.67536
L..inline.67536:
	store i64 0, i64* %..inline.addr.1110, align 8, !tbaa !5955, !dbg !5908
	%1757 = load %struct._Z6FsGridIN7fsgrids9technicalELi2EE*, %struct._Z6FsGridIN7fsgrids9technicalELi2EE** %..inline.addr.1040, align 8, !tbaa !5952, !dbg !5908
	%1758 = bitcast %struct._Z6FsGridIN7fsgrids9technicalELi2EE*  %1757 to i8*, !dbg !5908
	%1759 = getelementptr i8, i8*  %1758, i64 260, !dbg !5908
	%1760 = bitcast i8*  %1759 to i32*, !dbg !5908
	%1761 = load i32, i32*  %1760, align 4, !tbaa !5953, !dbg !5908
	%1762 = icmp sle i32  %1761, 1, !dbg !5908
	br i1  %1762, label %L..inline.67645, label %L.B1050, !dbg !5908
L.B1050:
	%1763 = load i32, i32* %..inline.addr.1070, align 4, !tbaa !5957, !dbg !5908
	%1764 = add i32  %1763, 2, !dbg !5908
	%1765 = bitcast %struct._Z6FsGridIN7fsgrids9technicalELi2EE*  %1757 to i8*, !dbg !5908
	%1766 = getelementptr i8, i8*  %1765, i64 280, !dbg !5908
	%1767 = bitcast i8*  %1766 to i32*, !dbg !5908
	%1768 = load i32, i32*  %1767, align 4, !tbaa !5953, !dbg !5908
	%1769 = getelementptr i8, i8*  %1765, i64 276, !dbg !5908
	%1770 = bitcast i8*  %1769 to i32*, !dbg !5908
	%1771 = load i32, i32*  %1770, align 4, !tbaa !5953, !dbg !5908
	%1772 = mul i32  %1768,  %1771, !dbg !5908
	%1773 = mul i32  %1764,  %1772, !dbg !5908
	%1774 = sext i32  %1773 to i64, !dbg !5908
	store i64  %1774, i64* %..inline.addr.1110, align 8, !tbaa !5955, !dbg !5908
	br label %L..inline.67645
L..inline.67645:
	%1775 = load %struct._Z6FsGridIN7fsgrids9technicalELi2EE*, %struct._Z6FsGridIN7fsgrids9technicalELi2EE** %..inline.addr.1040, align 8, !tbaa !5952, !dbg !5908
	%1776 = bitcast %struct._Z6FsGridIN7fsgrids9technicalELi2EE*  %1775 to i8*, !dbg !5908
	%1777 = getelementptr i8, i8*  %1776, i64 256, !dbg !5908
	%1778 = bitcast i8*  %1777 to i32*, !dbg !5908
	%1779 = load i32, i32*  %1778, align 4, !tbaa !5953, !dbg !5908
	%1780 = icmp sle i32  %1779, 1, !dbg !5908
	br i1  %1780, label %L..inline.67694, label %L.B1051, !dbg !5908
L.B1051:
	%1781 = load i64, i64* %..inline.addr.1110, align 8, !tbaa !5955, !dbg !5908
	%1782 = bitcast %struct._Z6FsGridIN7fsgrids9technicalELi2EE*  %1775 to i8*, !dbg !5908
	%1783 = getelementptr i8, i8*  %1782, i64 276, !dbg !5908
	%1784 = bitcast i8*  %1783 to i32*, !dbg !5908
	%1785 = load i32, i32*  %1784, align 4, !tbaa !5953, !dbg !5908
	%1786 = load i32, i32* %..inline.addr.1060, align 4, !tbaa !5957, !dbg !5908
	%1787 = add i32  %1786, 2, !dbg !5908
	%1788 = mul i32  %1785,  %1787, !dbg !5908
	%1789 = sext i32  %1788 to i64, !dbg !5908
	%1790 = add i64  %1781,  %1789, !dbg !5908
	store i64  %1790, i64* %..inline.addr.1110, align 8, !tbaa !5955, !dbg !5908
	br label %L..inline.67694
L..inline.67694:
	%1791 = load %struct._Z6FsGridIN7fsgrids9technicalELi2EE*, %struct._Z6FsGridIN7fsgrids9technicalELi2EE** %..inline.addr.1040, align 8, !tbaa !5952, !dbg !5908
	%1792 = bitcast %struct._Z6FsGridIN7fsgrids9technicalELi2EE*  %1791 to i8*, !dbg !5908
	%1793 = getelementptr i8, i8*  %1792, i64 252, !dbg !5908
	%1794 = bitcast i8*  %1793 to i32*, !dbg !5908
	%1795 = load i32, i32*  %1794, align 4, !tbaa !5953, !dbg !5908
	%1796 = icmp sle i32  %1795, 1, !dbg !5908
	%1797 = zext i1  %1796 to i32, !dbg !5908
	%1798 = trunc i32  %1797 to i1, !dbg !5908
	%1799 = load i64, i64* %..inline.addr.1110, align 8, !tbaa !5955, !dbg !5908
	%1800 = load i32, i32* %..inline.addr.1050, align 4, !tbaa !5957, !dbg !5908
	%1801 = sext i32  %1800 to i64, !dbg !5908
	%1802 = add i64  %1801, 2, !dbg !5908
	%1803 = add i64  %1799,  %1802, !dbg !5908
	%1804 = select i1  %1798, i64  %1799, i64  %1803, !dbg !5908
	%1805 = getelementptr i8, i8*  %1792, i64 744, !dbg !5909
	%1806 = bitcast i8*  %1805 to i8**, !dbg !5909
	%1807 = load i8*, i8**  %1806, align 8, !tbaa !5952, !dbg !5909
	%1808 = mul i64  %1804, 32, !dbg !5909
	%1809 = getelementptr i8, i8*  %1807, i64  %1808, !dbg !5909
	%1810 = bitcast %struct._ZN7fsgrids9technicalE** %..inline.addr.1100 to i8**, !dbg !5909
	store i8*  %1809, i8**  %1810, align 8, !tbaa !5952, !dbg !5909
	br label %L..inline.67740
L..inline.67740:
	%1811 = load %struct._ZN7fsgrids9technicalE*, %struct._ZN7fsgrids9technicalE** %..inline.addr.1100, align 8, !tbaa !5952, !dbg !5910
	%1812 = bitcast %struct._ZN7fsgrids9technicalE*  %1811 to i32*, !dbg !5910
	%1813 = load i32, i32*  %1812, align 4, !tbaa !5953, !dbg !5910
	%1814 = icmp eq i32  %1813, 1, !dbg !5910
	br i1  %1814, label %L.B0019, label %L.B1052, !dbg !5910
L.B1052:
	%1815 = load %struct._Z6FsGridIN7fsgrids9technicalELi2EE*, %struct._Z6FsGridIN7fsgrids9technicalELi2EE** %technicalGrid.addr, align 8, !tbaa !5952, !dbg !5926
	%1816 = bitcast %struct._Z6FsGridIN7fsgrids9technicalELi2EE*  %1815 to i8*, !dbg !5926
	%1817 = bitcast %struct._Z6FsGridIN7fsgrids9technicalELi2EE** %..inline.addr.1120 to i8**, !dbg !5926
	store i8*  %1816, i8**  %1817, align 8, !tbaa !5952, !dbg !5926
	%1818 = load i32, i32* %i.addr, align 4, !tbaa !5957, !dbg !5926
	store i32  %1818, i32* %..inline.addr.1130, align 4, !tbaa !5957, !dbg !5926
	%1819 = load i32, i32* %j.addr, align 4, !tbaa !5957, !dbg !5926
	store i32  %1819, i32* %..inline.addr.1140, align 4, !tbaa !5957, !dbg !5926
	%1820 = load i32, i32* %k.addr, align 4, !tbaa !5957, !dbg !5926
	store i32  %1820, i32* %..inline.addr.1150, align 4, !tbaa !5957, !dbg !5926
	store i32 13, i32* %..inline.addr.1160, align 4, !tbaa !5957, !dbg !5926
	%1821 = bitcast [3 x i32]* %..inline.addr.1170 to i32*, !dbg !5887
	store i32 0, i32*  %1821, align 4, !tbaa !5953, !dbg !5887
	%1822 = bitcast [3 x i32]* %..inline.addr.1170 to i8*, !dbg !5888
	%1823 = getelementptr i8, i8*  %1822, i64 4, !dbg !5888
	%1824 = bitcast i8*  %1823 to i32*, !dbg !5888
	store i32 0, i32*  %1824, align 4, !tbaa !5953, !dbg !5888
	%1825 = getelementptr i8, i8*  %1822, i64 8, !dbg !5888
	%1826 = bitcast i8*  %1825 to i32*, !dbg !5888
	store i32 0, i32*  %1826, align 4, !tbaa !5953, !dbg !5888
	%1827 = icmp sge i32  %1818, 0, !dbg !5888
	br i1  %1827, label %L..inline.67746, label %L.B1053, !dbg !5888
L.B1053:
	store i32 4, i32* %..inline.addr.1160, align 4, !tbaa !5957, !dbg !5889
	%1828 = bitcast [3 x i32]* %..inline.addr.1170 to i32*, !dbg !5890
	store i32 1, i32*  %1828, align 4, !tbaa !5953, !dbg !5890
	br label %L..inline.67746
L..inline.67746:
	%1829 = load i32, i32* %..inline.addr.1130, align 4, !tbaa !5957, !dbg !5891
	%1830 = load %struct._Z6FsGridIN7fsgrids9technicalELi2EE*, %struct._Z6FsGridIN7fsgrids9technicalELi2EE** %..inline.addr.1120, align 8, !tbaa !5952, !dbg !5891
	%1831 = bitcast %struct._Z6FsGridIN7fsgrids9technicalELi2EE*  %1830 to i8*, !dbg !5891
	%1832 = getelementptr i8, i8*  %1831, i64 264, !dbg !5891
	%1833 = bitcast i8*  %1832 to i32*, !dbg !5891
	%1834 = load i32, i32*  %1833, align 4, !tbaa !5953, !dbg !5891
	%1835 = icmp slt i32  %1829,  %1834, !dbg !5891
	br i1  %1835, label %L..inline.67764, label %L.B1054, !dbg !5891
L.B1054:
	%1836 = load i32, i32* %..inline.addr.1160, align 4, !tbaa !5957, !dbg !5891
	%1837 = add i32  %1836, 9, !dbg !5891
	store i32  %1837, i32* %..inline.addr.1160, align 4, !tbaa !5957, !dbg !5891
	%1838 = bitcast [3 x i32]* %..inline.addr.1170 to i32*, !dbg !5892
	store i32 -1, i32*  %1838, align 4, !tbaa !5953, !dbg !5892
	br label %L..inline.67764
L..inline.67764:
	%1839 = load i32, i32* %..inline.addr.1140, align 4, !tbaa !5957, !dbg !5893
	%1840 = icmp sge i32  %1839, 0, !dbg !5893
	br i1  %1840, label %L..inline.67766, label %L.B1055, !dbg !5893
L.B1055:
	%1841 = load i32, i32* %..inline.addr.1160, align 4, !tbaa !5957, !dbg !5893
	%1842 = sub i32  %1841, 3, !dbg !5893
	store i32  %1842, i32* %..inline.addr.1160, align 4, !tbaa !5957, !dbg !5893
	%1843 = bitcast [3 x i32]* %..inline.addr.1170 to i8*, !dbg !5894
	%1844 = getelementptr i8, i8*  %1843, i64 4, !dbg !5894
	%1845 = bitcast i8*  %1844 to i32*, !dbg !5894
	store i32 1, i32*  %1845, align 4, !tbaa !5953, !dbg !5894
	br label %L..inline.67766
L..inline.67766:
	%1846 = load i32, i32* %..inline.addr.1140, align 4, !tbaa !5957, !dbg !5895
	%1847 = load %struct._Z6FsGridIN7fsgrids9technicalELi2EE*, %struct._Z6FsGridIN7fsgrids9technicalELi2EE** %..inline.addr.1120, align 8, !tbaa !5952, !dbg !5895
	%1848 = bitcast %struct._Z6FsGridIN7fsgrids9technicalELi2EE*  %1847 to i8*, !dbg !5895
	%1849 = getelementptr i8, i8*  %1848, i64 268, !dbg !5895
	%1850 = bitcast i8*  %1849 to i32*, !dbg !5895
	%1851 = load i32, i32*  %1850, align 4, !tbaa !5953, !dbg !5895
	%1852 = icmp slt i32  %1846,  %1851, !dbg !5895
	br i1  %1852, label %L..inline.67783, label %L.B1056, !dbg !5895
L.B1056:
	%1853 = load i32, i32* %..inline.addr.1160, align 4, !tbaa !5957, !dbg !5895
	%1854 = add i32  %1853, 3, !dbg !5895
	store i32  %1854, i32* %..inline.addr.1160, align 4, !tbaa !5957, !dbg !5895
	%1855 = bitcast [3 x i32]* %..inline.addr.1170 to i8*, !dbg !5896
	%1856 = getelementptr i8, i8*  %1855, i64 4, !dbg !5896
	%1857 = bitcast i8*  %1856 to i32*, !dbg !5896
	store i32 -1, i32*  %1857, align 4, !tbaa !5953, !dbg !5896
	br label %L..inline.67783
L..inline.67783:
	%1858 = load i32, i32* %..inline.addr.1150, align 4, !tbaa !5957, !dbg !5897
	%1859 = icmp sge i32  %1858, 0, !dbg !5897
	br i1  %1859, label %L..inline.67785, label %L.B1057, !dbg !5897
L.B1057:
	%1860 = load i32, i32* %..inline.addr.1160, align 4, !tbaa !5957, !dbg !5897
	%1861 = sub i32  %1860, 1, !dbg !5897
	store i32  %1861, i32* %..inline.addr.1160, align 4, !tbaa !5957, !dbg !5897
	%1862 = bitcast [3 x i32]* %..inline.addr.1170 to i8*, !dbg !5898
	%1863 = getelementptr i8, i8*  %1862, i64 8, !dbg !5898
	%1864 = bitcast i8*  %1863 to i32*, !dbg !5898
	store i32 1, i32*  %1864, align 4, !tbaa !5953, !dbg !5898
	br label %L..inline.67785
L..inline.67785:
	%1865 = load i32, i32* %..inline.addr.1150, align 4, !tbaa !5957, !dbg !5899
	%1866 = load %struct._Z6FsGridIN7fsgrids9technicalELi2EE*, %struct._Z6FsGridIN7fsgrids9technicalELi2EE** %..inline.addr.1120, align 8, !tbaa !5952, !dbg !5899
	%1867 = bitcast %struct._Z6FsGridIN7fsgrids9technicalELi2EE*  %1866 to i8*, !dbg !5899
	%1868 = getelementptr i8, i8*  %1867, i64 272, !dbg !5899
	%1869 = bitcast i8*  %1868 to i32*, !dbg !5899
	%1870 = load i32, i32*  %1869, align 4, !tbaa !5953, !dbg !5899
	%1871 = icmp slt i32  %1865,  %1870, !dbg !5899
	br i1  %1871, label %L..inline.67802, label %L.B1058, !dbg !5899
L.B1058:
	%1872 = load i32, i32* %..inline.addr.1160, align 4, !tbaa !5957, !dbg !5899
	%1873 = add i32  %1872, 1, !dbg !5899
	store i32  %1873, i32* %..inline.addr.1160, align 4, !tbaa !5957, !dbg !5899
	%1874 = bitcast [3 x i32]* %..inline.addr.1170 to i8*, !dbg !5900
	%1875 = getelementptr i8, i8*  %1874, i64 8, !dbg !5900
	%1876 = bitcast i8*  %1875 to i32*, !dbg !5900
	store i32 -1, i32*  %1876, align 4, !tbaa !5953, !dbg !5900
	br label %L..inline.67802
L..inline.67802:
	%1877 = load i32, i32* %..inline.addr.1160, align 4, !tbaa !5957, !dbg !5901
	%1878 = icmp eq i32  %1877, 13, !dbg !5901
	br i1  %1878, label %L..inline.67803, label %L.B1059, !dbg !5901
L.B1059:
	%1879 = sext i32  %1877 to i64, !dbg !5902
	%1880 = load %struct._Z6FsGridIN7fsgrids9technicalELi2EE*, %struct._Z6FsGridIN7fsgrids9technicalELi2EE** %..inline.addr.1120, align 8, !tbaa !5952, !dbg !5902
	%1881 = bitcast %struct._Z6FsGridIN7fsgrids9technicalELi2EE*  %1880 to i8*, !dbg !5902
	%1882 = getelementptr i8, i8*  %1881, i64 92, !dbg !5902
	%1883 = bitcast i8*  %1882 to i32*, !dbg !5902
	%1884 = getelementptr i32, i32*  %1883, i64  %1879, !dbg !5902
	%1885 = load i32, i32*  %1884, align 4, !tbaa !5953, !dbg !5902
	%1886 = icmp ne i32  %1885, -2, !dbg !5902
	br i1  %1886, label %L..inline.67820, label %L.B1060, !dbg !5902
L.B1060:
	%1887 = bitcast %struct._ZN7fsgrids9technicalE** %..inline.addr.1180 to i8**, !dbg !5902
	store i8* null, i8**  %1887, align 8, !tbaa !5952, !dbg !5902
	br label %L..inline.68007, !dbg !5903
L..inline.67820:
	%1888 = load i32, i32* %..inline.addr.1160, align 4, !tbaa !5957, !dbg !5904
	%1889 = sext i32  %1888 to i64, !dbg !5904
	%1890 = load %struct._Z6FsGridIN7fsgrids9technicalELi2EE*, %struct._Z6FsGridIN7fsgrids9technicalELi2EE** %..inline.addr.1120, align 8, !tbaa !5952, !dbg !5904
	%1891 = bitcast %struct._Z6FsGridIN7fsgrids9technicalELi2EE*  %1890 to i8*, !dbg !5904
	%1892 = getelementptr i8, i8*  %1891, i64 92, !dbg !5904
	%1893 = bitcast i8*  %1892 to i32*, !dbg !5904
	%1894 = getelementptr i32, i32*  %1893, i64  %1889, !dbg !5904
	%1895 = load i32, i32*  %1894, align 4, !tbaa !5953, !dbg !5904
	%1896 = getelementptr i8, i8*  %1891, i64 56, !dbg !5904
	%1897 = bitcast i8*  %1896 to i32*, !dbg !5904
	%1898 = load i32, i32*  %1897, align 4, !tbaa !5953, !dbg !5904
	%1899 = icmp ne i32  %1895,  %1898, !dbg !5904
	br i1  %1899, label %L..inline.67838, label %L.B1061, !dbg !5904
L.B1061:
	%1900 = load i32, i32* %..inline.addr.1130, align 4, !tbaa !5957, !dbg !5905
	%1901 = bitcast [3 x i32]* %..inline.addr.1170 to i32*, !dbg !5905
	%1902 = load i32, i32*  %1901, align 4, !tbaa !5953, !dbg !5905
	%1903 = bitcast %struct._Z6FsGridIN7fsgrids9technicalELi2EE*  %1890 to i8*, !dbg !5905
	%1904 = getelementptr i8, i8*  %1903, i64 264, !dbg !5905
	%1905 = bitcast i8*  %1904 to i32*, !dbg !5905
	%1906 = load i32, i32*  %1905, align 4, !tbaa !5953, !dbg !5905
	%1907 = mul i32  %1902,  %1906, !dbg !5905
	%1908 = add i32  %1900,  %1907, !dbg !5905
	store i32  %1908, i32* %..inline.addr.1130, align 4, !tbaa !5957, !dbg !5905
	%1909 = load i32, i32* %..inline.addr.1140, align 4, !tbaa !5957, !dbg !5906
	%1910 = bitcast [3 x i32]* %..inline.addr.1170 to i8*, !dbg !5906
	%1911 = getelementptr i8, i8*  %1910, i64 4, !dbg !5906
	%1912 = bitcast i8*  %1911 to i32*, !dbg !5906
	%1913 = load i32, i32*  %1912, align 4, !tbaa !5953, !dbg !5906
	%1914 = getelementptr i8, i8*  %1903, i64 268, !dbg !5906
	%1915 = bitcast i8*  %1914 to i32*, !dbg !5906
	%1916 = load i32, i32*  %1915, align 4, !tbaa !5953, !dbg !5906
	%1917 = mul i32  %1913,  %1916, !dbg !5906
	%1918 = add i32  %1909,  %1917, !dbg !5906
	store i32  %1918, i32* %..inline.addr.1140, align 4, !tbaa !5957, !dbg !5906
	%1919 = load i32, i32* %..inline.addr.1150, align 4, !tbaa !5957, !dbg !5907
	%1920 = getelementptr i8, i8*  %1910, i64 8, !dbg !5907
	%1921 = bitcast i8*  %1920 to i32*, !dbg !5907
	%1922 = load i32, i32*  %1921, align 4, !tbaa !5953, !dbg !5907
	%1923 = getelementptr i8, i8*  %1903, i64 272, !dbg !5907
	%1924 = bitcast i8*  %1923 to i32*, !dbg !5907
	%1925 = load i32, i32*  %1924, align 4, !tbaa !5953, !dbg !5907
	%1926 = mul i32  %1922,  %1925, !dbg !5907
	%1927 = add i32  %1919,  %1926, !dbg !5907
	store i32  %1927, i32* %..inline.addr.1150, align 4, !tbaa !5957, !dbg !5907
	br label %L..inline.67838
L..inline.67838:
	br label %L..inline.67803
L..inline.67803:
	store i64 0, i64* %..inline.addr.1190, align 8, !tbaa !5955, !dbg !5908
	%1928 = load %struct._Z6FsGridIN7fsgrids9technicalELi2EE*, %struct._Z6FsGridIN7fsgrids9technicalELi2EE** %..inline.addr.1120, align 8, !tbaa !5952, !dbg !5908
	%1929 = bitcast %struct._Z6FsGridIN7fsgrids9technicalELi2EE*  %1928 to i8*, !dbg !5908
	%1930 = getelementptr i8, i8*  %1929, i64 260, !dbg !5908
	%1931 = bitcast i8*  %1930 to i32*, !dbg !5908
	%1932 = load i32, i32*  %1931, align 4, !tbaa !5953, !dbg !5908
	%1933 = icmp sle i32  %1932, 1, !dbg !5908
	br i1  %1933, label %L..inline.67912, label %L.B1062, !dbg !5908
L.B1062:
	%1934 = load i32, i32* %..inline.addr.1150, align 4, !tbaa !5957, !dbg !5908
	%1935 = add i32  %1934, 2, !dbg !5908
	%1936 = bitcast %struct._Z6FsGridIN7fsgrids9technicalELi2EE*  %1928 to i8*, !dbg !5908
	%1937 = getelementptr i8, i8*  %1936, i64 280, !dbg !5908
	%1938 = bitcast i8*  %1937 to i32*, !dbg !5908
	%1939 = load i32, i32*  %1938, align 4, !tbaa !5953, !dbg !5908
	%1940 = getelementptr i8, i8*  %1936, i64 276, !dbg !5908
	%1941 = bitcast i8*  %1940 to i32*, !dbg !5908
	%1942 = load i32, i32*  %1941, align 4, !tbaa !5953, !dbg !5908
	%1943 = mul i32  %1939,  %1942, !dbg !5908
	%1944 = mul i32  %1935,  %1943, !dbg !5908
	%1945 = sext i32  %1944 to i64, !dbg !5908
	store i64  %1945, i64* %..inline.addr.1190, align 8, !tbaa !5955, !dbg !5908
	br label %L..inline.67912
L..inline.67912:
	%1946 = load %struct._Z6FsGridIN7fsgrids9technicalELi2EE*, %struct._Z6FsGridIN7fsgrids9technicalELi2EE** %..inline.addr.1120, align 8, !tbaa !5952, !dbg !5908
	%1947 = bitcast %struct._Z6FsGridIN7fsgrids9technicalELi2EE*  %1946 to i8*, !dbg !5908
	%1948 = getelementptr i8, i8*  %1947, i64 256, !dbg !5908
	%1949 = bitcast i8*  %1948 to i32*, !dbg !5908
	%1950 = load i32, i32*  %1949, align 4, !tbaa !5953, !dbg !5908
	%1951 = icmp sle i32  %1950, 1, !dbg !5908
	br i1  %1951, label %L..inline.67961, label %L.B1063, !dbg !5908
L.B1063:
	%1952 = load i64, i64* %..inline.addr.1190, align 8, !tbaa !5955, !dbg !5908
	%1953 = bitcast %struct._Z6FsGridIN7fsgrids9technicalELi2EE*  %1946 to i8*, !dbg !5908
	%1954 = getelementptr i8, i8*  %1953, i64 276, !dbg !5908
	%1955 = bitcast i8*  %1954 to i32*, !dbg !5908
	%1956 = load i32, i32*  %1955, align 4, !tbaa !5953, !dbg !5908
	%1957 = load i32, i32* %..inline.addr.1140, align 4, !tbaa !5957, !dbg !5908
	%1958 = add i32  %1957, 2, !dbg !5908
	%1959 = mul i32  %1956,  %1958, !dbg !5908
	%1960 = sext i32  %1959 to i64, !dbg !5908
	%1961 = add i64  %1952,  %1960, !dbg !5908
	store i64  %1961, i64* %..inline.addr.1190, align 8, !tbaa !5955, !dbg !5908
	br label %L..inline.67961
L..inline.67961:
	%1962 = load %struct._Z6FsGridIN7fsgrids9technicalELi2EE*, %struct._Z6FsGridIN7fsgrids9technicalELi2EE** %..inline.addr.1120, align 8, !tbaa !5952, !dbg !5908
	%1963 = bitcast %struct._Z6FsGridIN7fsgrids9technicalELi2EE*  %1962 to i8*, !dbg !5908
	%1964 = getelementptr i8, i8*  %1963, i64 252, !dbg !5908
	%1965 = bitcast i8*  %1964 to i32*, !dbg !5908
	%1966 = load i32, i32*  %1965, align 4, !tbaa !5953, !dbg !5908
	%1967 = icmp sle i32  %1966, 1, !dbg !5908
	%1968 = zext i1  %1967 to i32, !dbg !5908
	%1969 = trunc i32  %1968 to i1, !dbg !5908
	%1970 = load i64, i64* %..inline.addr.1190, align 8, !tbaa !5955, !dbg !5908
	%1971 = load i32, i32* %..inline.addr.1130, align 4, !tbaa !5957, !dbg !5908
	%1972 = sext i32  %1971 to i64, !dbg !5908
	%1973 = add i64  %1972, 2, !dbg !5908
	%1974 = add i64  %1970,  %1973, !dbg !5908
	%1975 = select i1  %1969, i64  %1970, i64  %1974, !dbg !5908
	%1976 = getelementptr i8, i8*  %1963, i64 744, !dbg !5909
	%1977 = bitcast i8*  %1976 to i8**, !dbg !5909
	%1978 = load i8*, i8**  %1977, align 8, !tbaa !5952, !dbg !5909
	%1979 = mul i64  %1975, 32, !dbg !5909
	%1980 = getelementptr i8, i8*  %1978, i64  %1979, !dbg !5909
	%1981 = bitcast %struct._ZN7fsgrids9technicalE** %..inline.addr.1180 to i8**, !dbg !5909
	store i8*  %1980, i8**  %1981, align 8, !tbaa !5952, !dbg !5909
	br label %L..inline.68007
L..inline.68007:
	%1982 = load %struct._ZN7fsgrids9technicalE*, %struct._ZN7fsgrids9technicalE** %..inline.addr.1180, align 8, !tbaa !5952, !dbg !5910
	%1983 = bitcast %struct._ZN7fsgrids9technicalE*  %1982 to i32*, !dbg !5910
	%1984 = load i32, i32*  %1983, align 4, !tbaa !5953, !dbg !5910
	%1985 = icmp eq i32  %1984, 1, !dbg !5910
	br i1  %1985, label %L.B0018, label %L.B1064, !dbg !5910
L.B1064:
	%1986 = load %struct._Z6FsGridIN7fsgrids9technicalELi2EE*, %struct._Z6FsGridIN7fsgrids9technicalELi2EE** %technicalGrid.addr, align 8, !tbaa !5952, !dbg !5926
	%1987 = bitcast %struct._Z6FsGridIN7fsgrids9technicalELi2EE*  %1986 to i8*, !dbg !5926
	%1988 = bitcast %struct._Z6FsGridIN7fsgrids9technicalELi2EE** %..inline.addr.1200 to i8**, !dbg !5926
	store i8*  %1987, i8**  %1988, align 8, !tbaa !5952, !dbg !5926
	%1989 = load i32, i32* %i.addr, align 4, !tbaa !5957, !dbg !5926
	store i32  %1989, i32* %..inline.addr.1210, align 4, !tbaa !5957, !dbg !5926
	%1990 = load i32, i32* %j.addr, align 4, !tbaa !5957, !dbg !5926
	store i32  %1990, i32* %..inline.addr.1220, align 4, !tbaa !5957, !dbg !5926
	%1991 = load i32, i32* %k.addr, align 4, !tbaa !5957, !dbg !5926
	store i32  %1991, i32* %..inline.addr.1230, align 4, !tbaa !5957, !dbg !5926
	store i32 13, i32* %..inline.addr.1240, align 4, !tbaa !5957, !dbg !5926
	%1992 = bitcast [3 x i32]* %..inline.addr.1250 to i32*, !dbg !5887
	store i32 0, i32*  %1992, align 4, !tbaa !5953, !dbg !5887
	%1993 = bitcast [3 x i32]* %..inline.addr.1250 to i8*, !dbg !5888
	%1994 = getelementptr i8, i8*  %1993, i64 4, !dbg !5888
	%1995 = bitcast i8*  %1994 to i32*, !dbg !5888
	store i32 0, i32*  %1995, align 4, !tbaa !5953, !dbg !5888
	%1996 = getelementptr i8, i8*  %1993, i64 8, !dbg !5888
	%1997 = bitcast i8*  %1996 to i32*, !dbg !5888
	store i32 0, i32*  %1997, align 4, !tbaa !5953, !dbg !5888
	%1998 = icmp sge i32  %1989, 0, !dbg !5888
	br i1  %1998, label %L..inline.68013, label %L.B1065, !dbg !5888
L.B1065:
	store i32 4, i32* %..inline.addr.1240, align 4, !tbaa !5957, !dbg !5889
	%1999 = bitcast [3 x i32]* %..inline.addr.1250 to i32*, !dbg !5890
	store i32 1, i32*  %1999, align 4, !tbaa !5953, !dbg !5890
	br label %L..inline.68013
L..inline.68013:
	%2000 = load i32, i32* %..inline.addr.1210, align 4, !tbaa !5957, !dbg !5891
	%2001 = load %struct._Z6FsGridIN7fsgrids9technicalELi2EE*, %struct._Z6FsGridIN7fsgrids9technicalELi2EE** %..inline.addr.1200, align 8, !tbaa !5952, !dbg !5891
	%2002 = bitcast %struct._Z6FsGridIN7fsgrids9technicalELi2EE*  %2001 to i8*, !dbg !5891
	%2003 = getelementptr i8, i8*  %2002, i64 264, !dbg !5891
	%2004 = bitcast i8*  %2003 to i32*, !dbg !5891
	%2005 = load i32, i32*  %2004, align 4, !tbaa !5953, !dbg !5891
	%2006 = icmp slt i32  %2000,  %2005, !dbg !5891
	br i1  %2006, label %L..inline.68031, label %L.B1066, !dbg !5891
L.B1066:
	%2007 = load i32, i32* %..inline.addr.1240, align 4, !tbaa !5957, !dbg !5891
	%2008 = add i32  %2007, 9, !dbg !5891
	store i32  %2008, i32* %..inline.addr.1240, align 4, !tbaa !5957, !dbg !5891
	%2009 = bitcast [3 x i32]* %..inline.addr.1250 to i32*, !dbg !5892
	store i32 -1, i32*  %2009, align 4, !tbaa !5953, !dbg !5892
	br label %L..inline.68031
L..inline.68031:
	%2010 = load i32, i32* %..inline.addr.1220, align 4, !tbaa !5957, !dbg !5893
	%2011 = icmp sge i32  %2010, 0, !dbg !5893
	br i1  %2011, label %L..inline.68033, label %L.B1067, !dbg !5893
L.B1067:
	%2012 = load i32, i32* %..inline.addr.1240, align 4, !tbaa !5957, !dbg !5893
	%2013 = sub i32  %2012, 3, !dbg !5893
	store i32  %2013, i32* %..inline.addr.1240, align 4, !tbaa !5957, !dbg !5893
	%2014 = bitcast [3 x i32]* %..inline.addr.1250 to i8*, !dbg !5894
	%2015 = getelementptr i8, i8*  %2014, i64 4, !dbg !5894
	%2016 = bitcast i8*  %2015 to i32*, !dbg !5894
	store i32 1, i32*  %2016, align 4, !tbaa !5953, !dbg !5894
	br label %L..inline.68033
L..inline.68033:
	%2017 = load i32, i32* %..inline.addr.1220, align 4, !tbaa !5957, !dbg !5895
	%2018 = load %struct._Z6FsGridIN7fsgrids9technicalELi2EE*, %struct._Z6FsGridIN7fsgrids9technicalELi2EE** %..inline.addr.1200, align 8, !tbaa !5952, !dbg !5895
	%2019 = bitcast %struct._Z6FsGridIN7fsgrids9technicalELi2EE*  %2018 to i8*, !dbg !5895
	%2020 = getelementptr i8, i8*  %2019, i64 268, !dbg !5895
	%2021 = bitcast i8*  %2020 to i32*, !dbg !5895
	%2022 = load i32, i32*  %2021, align 4, !tbaa !5953, !dbg !5895
	%2023 = icmp slt i32  %2017,  %2022, !dbg !5895
	br i1  %2023, label %L..inline.68050, label %L.B1068, !dbg !5895
L.B1068:
	%2024 = load i32, i32* %..inline.addr.1240, align 4, !tbaa !5957, !dbg !5895
	%2025 = add i32  %2024, 3, !dbg !5895
	store i32  %2025, i32* %..inline.addr.1240, align 4, !tbaa !5957, !dbg !5895
	%2026 = bitcast [3 x i32]* %..inline.addr.1250 to i8*, !dbg !5896
	%2027 = getelementptr i8, i8*  %2026, i64 4, !dbg !5896
	%2028 = bitcast i8*  %2027 to i32*, !dbg !5896
	store i32 -1, i32*  %2028, align 4, !tbaa !5953, !dbg !5896
	br label %L..inline.68050
L..inline.68050:
	%2029 = load i32, i32* %..inline.addr.1230, align 4, !tbaa !5957, !dbg !5897
	%2030 = icmp sge i32  %2029, 0, !dbg !5897
	br i1  %2030, label %L..inline.68052, label %L.B1069, !dbg !5897
L.B1069:
	%2031 = load i32, i32* %..inline.addr.1240, align 4, !tbaa !5957, !dbg !5897
	%2032 = sub i32  %2031, 1, !dbg !5897
	store i32  %2032, i32* %..inline.addr.1240, align 4, !tbaa !5957, !dbg !5897
	%2033 = bitcast [3 x i32]* %..inline.addr.1250 to i8*, !dbg !5898
	%2034 = getelementptr i8, i8*  %2033, i64 8, !dbg !5898
	%2035 = bitcast i8*  %2034 to i32*, !dbg !5898
	store i32 1, i32*  %2035, align 4, !tbaa !5953, !dbg !5898
	br label %L..inline.68052
L..inline.68052:
	%2036 = load i32, i32* %..inline.addr.1230, align 4, !tbaa !5957, !dbg !5899
	%2037 = load %struct._Z6FsGridIN7fsgrids9technicalELi2EE*, %struct._Z6FsGridIN7fsgrids9technicalELi2EE** %..inline.addr.1200, align 8, !tbaa !5952, !dbg !5899
	%2038 = bitcast %struct._Z6FsGridIN7fsgrids9technicalELi2EE*  %2037 to i8*, !dbg !5899
	%2039 = getelementptr i8, i8*  %2038, i64 272, !dbg !5899
	%2040 = bitcast i8*  %2039 to i32*, !dbg !5899
	%2041 = load i32, i32*  %2040, align 4, !tbaa !5953, !dbg !5899
	%2042 = icmp slt i32  %2036,  %2041, !dbg !5899
	br i1  %2042, label %L..inline.68069, label %L.B1070, !dbg !5899
L.B1070:
	%2043 = load i32, i32* %..inline.addr.1240, align 4, !tbaa !5957, !dbg !5899
	%2044 = add i32  %2043, 1, !dbg !5899
	store i32  %2044, i32* %..inline.addr.1240, align 4, !tbaa !5957, !dbg !5899
	%2045 = bitcast [3 x i32]* %..inline.addr.1250 to i8*, !dbg !5900
	%2046 = getelementptr i8, i8*  %2045, i64 8, !dbg !5900
	%2047 = bitcast i8*  %2046 to i32*, !dbg !5900
	store i32 -1, i32*  %2047, align 4, !tbaa !5953, !dbg !5900
	br label %L..inline.68069
L..inline.68069:
	%2048 = load i32, i32* %..inline.addr.1240, align 4, !tbaa !5957, !dbg !5901
	%2049 = icmp eq i32  %2048, 13, !dbg !5901
	br i1  %2049, label %L..inline.68070, label %L.B1071, !dbg !5901
L.B1071:
	%2050 = sext i32  %2048 to i64, !dbg !5902
	%2051 = load %struct._Z6FsGridIN7fsgrids9technicalELi2EE*, %struct._Z6FsGridIN7fsgrids9technicalELi2EE** %..inline.addr.1200, align 8, !tbaa !5952, !dbg !5902
	%2052 = bitcast %struct._Z6FsGridIN7fsgrids9technicalELi2EE*  %2051 to i8*, !dbg !5902
	%2053 = getelementptr i8, i8*  %2052, i64 92, !dbg !5902
	%2054 = bitcast i8*  %2053 to i32*, !dbg !5902
	%2055 = getelementptr i32, i32*  %2054, i64  %2050, !dbg !5902
	%2056 = load i32, i32*  %2055, align 4, !tbaa !5953, !dbg !5902
	%2057 = icmp ne i32  %2056, -2, !dbg !5902
	br i1  %2057, label %L..inline.68087, label %L.B1072, !dbg !5902
L.B1072:
	%2058 = bitcast %struct._ZN7fsgrids9technicalE** %..inline.addr.1260 to i8**, !dbg !5902
	store i8* null, i8**  %2058, align 8, !tbaa !5952, !dbg !5902
	br label %L..inline.68274, !dbg !5903
L..inline.68087:
	%2059 = load i32, i32* %..inline.addr.1240, align 4, !tbaa !5957, !dbg !5904
	%2060 = sext i32  %2059 to i64, !dbg !5904
	%2061 = load %struct._Z6FsGridIN7fsgrids9technicalELi2EE*, %struct._Z6FsGridIN7fsgrids9technicalELi2EE** %..inline.addr.1200, align 8, !tbaa !5952, !dbg !5904
	%2062 = bitcast %struct._Z6FsGridIN7fsgrids9technicalELi2EE*  %2061 to i8*, !dbg !5904
	%2063 = getelementptr i8, i8*  %2062, i64 92, !dbg !5904
	%2064 = bitcast i8*  %2063 to i32*, !dbg !5904
	%2065 = getelementptr i32, i32*  %2064, i64  %2060, !dbg !5904
	%2066 = load i32, i32*  %2065, align 4, !tbaa !5953, !dbg !5904
	%2067 = getelementptr i8, i8*  %2062, i64 56, !dbg !5904
	%2068 = bitcast i8*  %2067 to i32*, !dbg !5904
	%2069 = load i32, i32*  %2068, align 4, !tbaa !5953, !dbg !5904
	%2070 = icmp ne i32  %2066,  %2069, !dbg !5904
	br i1  %2070, label %L..inline.68105, label %L.B1073, !dbg !5904
L.B1073:
	%2071 = load i32, i32* %..inline.addr.1210, align 4, !tbaa !5957, !dbg !5905
	%2072 = bitcast [3 x i32]* %..inline.addr.1250 to i32*, !dbg !5905
	%2073 = load i32, i32*  %2072, align 4, !tbaa !5953, !dbg !5905
	%2074 = bitcast %struct._Z6FsGridIN7fsgrids9technicalELi2EE*  %2061 to i8*, !dbg !5905
	%2075 = getelementptr i8, i8*  %2074, i64 264, !dbg !5905
	%2076 = bitcast i8*  %2075 to i32*, !dbg !5905
	%2077 = load i32, i32*  %2076, align 4, !tbaa !5953, !dbg !5905
	%2078 = mul i32  %2073,  %2077, !dbg !5905
	%2079 = add i32  %2071,  %2078, !dbg !5905
	store i32  %2079, i32* %..inline.addr.1210, align 4, !tbaa !5957, !dbg !5905
	%2080 = load i32, i32* %..inline.addr.1220, align 4, !tbaa !5957, !dbg !5906
	%2081 = bitcast [3 x i32]* %..inline.addr.1250 to i8*, !dbg !5906
	%2082 = getelementptr i8, i8*  %2081, i64 4, !dbg !5906
	%2083 = bitcast i8*  %2082 to i32*, !dbg !5906
	%2084 = load i32, i32*  %2083, align 4, !tbaa !5953, !dbg !5906
	%2085 = getelementptr i8, i8*  %2074, i64 268, !dbg !5906
	%2086 = bitcast i8*  %2085 to i32*, !dbg !5906
	%2087 = load i32, i32*  %2086, align 4, !tbaa !5953, !dbg !5906
	%2088 = mul i32  %2084,  %2087, !dbg !5906
	%2089 = add i32  %2080,  %2088, !dbg !5906
	store i32  %2089, i32* %..inline.addr.1220, align 4, !tbaa !5957, !dbg !5906
	%2090 = load i32, i32* %..inline.addr.1230, align 4, !tbaa !5957, !dbg !5907
	%2091 = getelementptr i8, i8*  %2081, i64 8, !dbg !5907
	%2092 = bitcast i8*  %2091 to i32*, !dbg !5907
	%2093 = load i32, i32*  %2092, align 4, !tbaa !5953, !dbg !5907
	%2094 = getelementptr i8, i8*  %2074, i64 272, !dbg !5907
	%2095 = bitcast i8*  %2094 to i32*, !dbg !5907
	%2096 = load i32, i32*  %2095, align 4, !tbaa !5953, !dbg !5907
	%2097 = mul i32  %2093,  %2096, !dbg !5907
	%2098 = add i32  %2090,  %2097, !dbg !5907
	store i32  %2098, i32* %..inline.addr.1230, align 4, !tbaa !5957, !dbg !5907
	br label %L..inline.68105
L..inline.68105:
	br label %L..inline.68070
L..inline.68070:
	store i64 0, i64* %..inline.addr.1270, align 8, !tbaa !5955, !dbg !5908
	%2099 = load %struct._Z6FsGridIN7fsgrids9technicalELi2EE*, %struct._Z6FsGridIN7fsgrids9technicalELi2EE** %..inline.addr.1200, align 8, !tbaa !5952, !dbg !5908
	%2100 = bitcast %struct._Z6FsGridIN7fsgrids9technicalELi2EE*  %2099 to i8*, !dbg !5908
	%2101 = getelementptr i8, i8*  %2100, i64 260, !dbg !5908
	%2102 = bitcast i8*  %2101 to i32*, !dbg !5908
	%2103 = load i32, i32*  %2102, align 4, !tbaa !5953, !dbg !5908
	%2104 = icmp sle i32  %2103, 1, !dbg !5908
	br i1  %2104, label %L..inline.68179, label %L.B1074, !dbg !5908
L.B1074:
	%2105 = load i32, i32* %..inline.addr.1230, align 4, !tbaa !5957, !dbg !5908
	%2106 = add i32  %2105, 2, !dbg !5908
	%2107 = bitcast %struct._Z6FsGridIN7fsgrids9technicalELi2EE*  %2099 to i8*, !dbg !5908
	%2108 = getelementptr i8, i8*  %2107, i64 280, !dbg !5908
	%2109 = bitcast i8*  %2108 to i32*, !dbg !5908
	%2110 = load i32, i32*  %2109, align 4, !tbaa !5953, !dbg !5908
	%2111 = getelementptr i8, i8*  %2107, i64 276, !dbg !5908
	%2112 = bitcast i8*  %2111 to i32*, !dbg !5908
	%2113 = load i32, i32*  %2112, align 4, !tbaa !5953, !dbg !5908
	%2114 = mul i32  %2110,  %2113, !dbg !5908
	%2115 = mul i32  %2106,  %2114, !dbg !5908
	%2116 = sext i32  %2115 to i64, !dbg !5908
	store i64  %2116, i64* %..inline.addr.1270, align 8, !tbaa !5955, !dbg !5908
	br label %L..inline.68179
L..inline.68179:
	%2117 = load %struct._Z6FsGridIN7fsgrids9technicalELi2EE*, %struct._Z6FsGridIN7fsgrids9technicalELi2EE** %..inline.addr.1200, align 8, !tbaa !5952, !dbg !5908
	%2118 = bitcast %struct._Z6FsGridIN7fsgrids9technicalELi2EE*  %2117 to i8*, !dbg !5908
	%2119 = getelementptr i8, i8*  %2118, i64 256, !dbg !5908
	%2120 = bitcast i8*  %2119 to i32*, !dbg !5908
	%2121 = load i32, i32*  %2120, align 4, !tbaa !5953, !dbg !5908
	%2122 = icmp sle i32  %2121, 1, !dbg !5908
	br i1  %2122, label %L..inline.68228, label %L.B1075, !dbg !5908
L.B1075:
	%2123 = load i64, i64* %..inline.addr.1270, align 8, !tbaa !5955, !dbg !5908
	%2124 = bitcast %struct._Z6FsGridIN7fsgrids9technicalELi2EE*  %2117 to i8*, !dbg !5908
	%2125 = getelementptr i8, i8*  %2124, i64 276, !dbg !5908
	%2126 = bitcast i8*  %2125 to i32*, !dbg !5908
	%2127 = load i32, i32*  %2126, align 4, !tbaa !5953, !dbg !5908
	%2128 = load i32, i32* %..inline.addr.1220, align 4, !tbaa !5957, !dbg !5908
	%2129 = add i32  %2128, 2, !dbg !5908
	%2130 = mul i32  %2127,  %2129, !dbg !5908
	%2131 = sext i32  %2130 to i64, !dbg !5908
	%2132 = add i64  %2123,  %2131, !dbg !5908
	store i64  %2132, i64* %..inline.addr.1270, align 8, !tbaa !5955, !dbg !5908
	br label %L..inline.68228
L..inline.68228:
	%2133 = load %struct._Z6FsGridIN7fsgrids9technicalELi2EE*, %struct._Z6FsGridIN7fsgrids9technicalELi2EE** %..inline.addr.1200, align 8, !tbaa !5952, !dbg !5908
	%2134 = bitcast %struct._Z6FsGridIN7fsgrids9technicalELi2EE*  %2133 to i8*, !dbg !5908
	%2135 = getelementptr i8, i8*  %2134, i64 252, !dbg !5908
	%2136 = bitcast i8*  %2135 to i32*, !dbg !5908
	%2137 = load i32, i32*  %2136, align 4, !tbaa !5953, !dbg !5908
	%2138 = icmp sle i32  %2137, 1, !dbg !5908
	%2139 = zext i1  %2138 to i32, !dbg !5908
	%2140 = trunc i32  %2139 to i1, !dbg !5908
	%2141 = load i64, i64* %..inline.addr.1270, align 8, !tbaa !5955, !dbg !5908
	%2142 = load i32, i32* %..inline.addr.1210, align 4, !tbaa !5957, !dbg !5908
	%2143 = sext i32  %2142 to i64, !dbg !5908
	%2144 = add i64  %2143, 2, !dbg !5908
	%2145 = add i64  %2141,  %2144, !dbg !5908
	%2146 = select i1  %2140, i64  %2141, i64  %2145, !dbg !5908
	%2147 = getelementptr i8, i8*  %2134, i64 744, !dbg !5909
	%2148 = bitcast i8*  %2147 to i8**, !dbg !5909
	%2149 = load i8*, i8**  %2148, align 8, !tbaa !5952, !dbg !5909
	%2150 = mul i64  %2146, 32, !dbg !5909
	%2151 = getelementptr i8, i8*  %2149, i64  %2150, !dbg !5909
	%2152 = bitcast %struct._ZN7fsgrids9technicalE** %..inline.addr.1260 to i8**, !dbg !5909
	store i8*  %2151, i8**  %2152, align 8, !tbaa !5952, !dbg !5909
	br label %L..inline.68274
L..inline.68274:
	%2153 = load %struct._ZN7fsgrids9technicalE*, %struct._ZN7fsgrids9technicalE** %..inline.addr.1260, align 8, !tbaa !5952, !dbg !5910
	%2154 = bitcast %struct._ZN7fsgrids9technicalE*  %2153 to i8*, !dbg !5910
	%2155 = getelementptr i8, i8*  %2154, i64 4, !dbg !5910
	%2156 = bitcast i8*  %2155 to i32*, !dbg !5910
	%2157 = load i32, i32*  %2156, align 4, !tbaa !5953, !dbg !5910
	%2158 = icmp ne i32  %2157, 1, !dbg !5910
	br i1  %2158, label %L.B0018, label %L.B0019, !dbg !5910
L.B0019:
	%2159 = load %struct._Z6FsGridISt5arrayIdLm3EELi2EE*, %struct._Z6FsGridISt5arrayIdLm3EELi2EE** %EGrid.addr, align 8, !tbaa !5952, !dbg !5927
	%2160 = bitcast %struct._Z6FsGridISt5arrayIdLm3EELi2EE*  %2159 to i8*, !dbg !5927
	%2161 = bitcast %struct._Z6FsGridISt5arrayIdLm3EELi2EE** %..inline.addr.1280 to i8**, !dbg !5927
	store i8*  %2160, i8**  %2161, align 8, !tbaa !5952, !dbg !5927
	%2162 = load i32, i32* %i.addr, align 4, !tbaa !5957, !dbg !5927
	%2163 = add i32  %2162, 1, !dbg !5927
	store i32  %2163, i32* %..inline.addr.1290, align 4, !tbaa !5957, !dbg !5927
	%2164 = load i32, i32* %j.addr, align 4, !tbaa !5957, !dbg !5927
	store i32  %2164, i32* %..inline.addr.1300, align 4, !tbaa !5957, !dbg !5927
	%2165 = load i32, i32* %k.addr, align 4, !tbaa !5957, !dbg !5927
	store i32  %2165, i32* %..inline.addr.1310, align 4, !tbaa !5957, !dbg !5927
	store i32 13, i32* %..inline.addr.1320, align 4, !tbaa !5957, !dbg !5927
	%2166 = bitcast [3 x i32]* %..inline.addr.1330 to i32*, !dbg !5887
	store i32 0, i32*  %2166, align 4, !tbaa !5953, !dbg !5887
	%2167 = bitcast [3 x i32]* %..inline.addr.1330 to i8*, !dbg !5888
	%2168 = getelementptr i8, i8*  %2167, i64 4, !dbg !5888
	%2169 = bitcast i8*  %2168 to i32*, !dbg !5888
	store i32 0, i32*  %2169, align 4, !tbaa !5953, !dbg !5888
	%2170 = getelementptr i8, i8*  %2167, i64 8, !dbg !5888
	%2171 = bitcast i8*  %2170 to i32*, !dbg !5888
	store i32 0, i32*  %2171, align 4, !tbaa !5953, !dbg !5888
	%2172 = icmp sge i32  %2163, 0, !dbg !5888
	br i1  %2172, label %L..inline.68280, label %L.B1076, !dbg !5888
L.B1076:
	store i32 4, i32* %..inline.addr.1320, align 4, !tbaa !5957, !dbg !5889
	%2173 = bitcast [3 x i32]* %..inline.addr.1330 to i32*, !dbg !5890
	store i32 1, i32*  %2173, align 4, !tbaa !5953, !dbg !5890
	br label %L..inline.68280
L..inline.68280:
	%2174 = load i32, i32* %..inline.addr.1290, align 4, !tbaa !5957, !dbg !5891
	%2175 = load %struct._Z6FsGridISt5arrayIdLm3EELi2EE*, %struct._Z6FsGridISt5arrayIdLm3EELi2EE** %..inline.addr.1280, align 8, !tbaa !5952, !dbg !5891
	%2176 = bitcast %struct._Z6FsGridISt5arrayIdLm3EELi2EE*  %2175 to i8*, !dbg !5891
	%2177 = getelementptr i8, i8*  %2176, i64 264, !dbg !5891
	%2178 = bitcast i8*  %2177 to i32*, !dbg !5891
	%2179 = load i32, i32*  %2178, align 4, !tbaa !5953, !dbg !5891
	%2180 = icmp slt i32  %2174,  %2179, !dbg !5891
	br i1  %2180, label %L..inline.68298, label %L.B1077, !dbg !5891
L.B1077:
	%2181 = load i32, i32* %..inline.addr.1320, align 4, !tbaa !5957, !dbg !5891
	%2182 = add i32  %2181, 9, !dbg !5891
	store i32  %2182, i32* %..inline.addr.1320, align 4, !tbaa !5957, !dbg !5891
	%2183 = bitcast [3 x i32]* %..inline.addr.1330 to i32*, !dbg !5892
	store i32 -1, i32*  %2183, align 4, !tbaa !5953, !dbg !5892
	br label %L..inline.68298
L..inline.68298:
	%2184 = load i32, i32* %..inline.addr.1300, align 4, !tbaa !5957, !dbg !5893
	%2185 = icmp sge i32  %2184, 0, !dbg !5893
	br i1  %2185, label %L..inline.68300, label %L.B1078, !dbg !5893
L.B1078:
	%2186 = load i32, i32* %..inline.addr.1320, align 4, !tbaa !5957, !dbg !5893
	%2187 = sub i32  %2186, 3, !dbg !5893
	store i32  %2187, i32* %..inline.addr.1320, align 4, !tbaa !5957, !dbg !5893
	%2188 = bitcast [3 x i32]* %..inline.addr.1330 to i8*, !dbg !5894
	%2189 = getelementptr i8, i8*  %2188, i64 4, !dbg !5894
	%2190 = bitcast i8*  %2189 to i32*, !dbg !5894
	store i32 1, i32*  %2190, align 4, !tbaa !5953, !dbg !5894
	br label %L..inline.68300
L..inline.68300:
	%2191 = load i32, i32* %..inline.addr.1300, align 4, !tbaa !5957, !dbg !5895
	%2192 = load %struct._Z6FsGridISt5arrayIdLm3EELi2EE*, %struct._Z6FsGridISt5arrayIdLm3EELi2EE** %..inline.addr.1280, align 8, !tbaa !5952, !dbg !5895
	%2193 = bitcast %struct._Z6FsGridISt5arrayIdLm3EELi2EE*  %2192 to i8*, !dbg !5895
	%2194 = getelementptr i8, i8*  %2193, i64 268, !dbg !5895
	%2195 = bitcast i8*  %2194 to i32*, !dbg !5895
	%2196 = load i32, i32*  %2195, align 4, !tbaa !5953, !dbg !5895
	%2197 = icmp slt i32  %2191,  %2196, !dbg !5895
	br i1  %2197, label %L..inline.68317, label %L.B1079, !dbg !5895
L.B1079:
	%2198 = load i32, i32* %..inline.addr.1320, align 4, !tbaa !5957, !dbg !5895
	%2199 = add i32  %2198, 3, !dbg !5895
	store i32  %2199, i32* %..inline.addr.1320, align 4, !tbaa !5957, !dbg !5895
	%2200 = bitcast [3 x i32]* %..inline.addr.1330 to i8*, !dbg !5896
	%2201 = getelementptr i8, i8*  %2200, i64 4, !dbg !5896
	%2202 = bitcast i8*  %2201 to i32*, !dbg !5896
	store i32 -1, i32*  %2202, align 4, !tbaa !5953, !dbg !5896
	br label %L..inline.68317
L..inline.68317:
	%2203 = load i32, i32* %..inline.addr.1310, align 4, !tbaa !5957, !dbg !5897
	%2204 = icmp sge i32  %2203, 0, !dbg !5897
	br i1  %2204, label %L..inline.68319, label %L.B1080, !dbg !5897
L.B1080:
	%2205 = load i32, i32* %..inline.addr.1320, align 4, !tbaa !5957, !dbg !5897
	%2206 = sub i32  %2205, 1, !dbg !5897
	store i32  %2206, i32* %..inline.addr.1320, align 4, !tbaa !5957, !dbg !5897
	%2207 = bitcast [3 x i32]* %..inline.addr.1330 to i8*, !dbg !5898
	%2208 = getelementptr i8, i8*  %2207, i64 8, !dbg !5898
	%2209 = bitcast i8*  %2208 to i32*, !dbg !5898
	store i32 1, i32*  %2209, align 4, !tbaa !5953, !dbg !5898
	br label %L..inline.68319
L..inline.68319:
	%2210 = load i32, i32* %..inline.addr.1310, align 4, !tbaa !5957, !dbg !5899
	%2211 = load %struct._Z6FsGridISt5arrayIdLm3EELi2EE*, %struct._Z6FsGridISt5arrayIdLm3EELi2EE** %..inline.addr.1280, align 8, !tbaa !5952, !dbg !5899
	%2212 = bitcast %struct._Z6FsGridISt5arrayIdLm3EELi2EE*  %2211 to i8*, !dbg !5899
	%2213 = getelementptr i8, i8*  %2212, i64 272, !dbg !5899
	%2214 = bitcast i8*  %2213 to i32*, !dbg !5899
	%2215 = load i32, i32*  %2214, align 4, !tbaa !5953, !dbg !5899
	%2216 = icmp slt i32  %2210,  %2215, !dbg !5899
	br i1  %2216, label %L..inline.68336, label %L.B1081, !dbg !5899
L.B1081:
	%2217 = load i32, i32* %..inline.addr.1320, align 4, !tbaa !5957, !dbg !5899
	%2218 = add i32  %2217, 1, !dbg !5899
	store i32  %2218, i32* %..inline.addr.1320, align 4, !tbaa !5957, !dbg !5899
	%2219 = bitcast [3 x i32]* %..inline.addr.1330 to i8*, !dbg !5900
	%2220 = getelementptr i8, i8*  %2219, i64 8, !dbg !5900
	%2221 = bitcast i8*  %2220 to i32*, !dbg !5900
	store i32 -1, i32*  %2221, align 4, !tbaa !5953, !dbg !5900
	br label %L..inline.68336
L..inline.68336:
	%2222 = load i32, i32* %..inline.addr.1320, align 4, !tbaa !5957, !dbg !5901
	%2223 = icmp eq i32  %2222, 13, !dbg !5901
	br i1  %2223, label %L..inline.68337, label %L.B1082, !dbg !5901
L.B1082:
	%2224 = sext i32  %2222 to i64, !dbg !5902
	%2225 = load %struct._Z6FsGridISt5arrayIdLm3EELi2EE*, %struct._Z6FsGridISt5arrayIdLm3EELi2EE** %..inline.addr.1280, align 8, !tbaa !5952, !dbg !5902
	%2226 = bitcast %struct._Z6FsGridISt5arrayIdLm3EELi2EE*  %2225 to i8*, !dbg !5902
	%2227 = getelementptr i8, i8*  %2226, i64 92, !dbg !5902
	%2228 = bitcast i8*  %2227 to i32*, !dbg !5902
	%2229 = getelementptr i32, i32*  %2228, i64  %2224, !dbg !5902
	%2230 = load i32, i32*  %2229, align 4, !tbaa !5953, !dbg !5902
	%2231 = icmp ne i32  %2230, -2, !dbg !5902
	br i1  %2231, label %L..inline.68354, label %L.B1083, !dbg !5902
L.B1083:
	%2232 = bitcast %struct._ZSt5arrayIdLm3EE** %..inline.addr.1340 to i8**, !dbg !5902
	store i8* null, i8**  %2232, align 8, !tbaa !5952, !dbg !5902
	br label %L..inline.68541, !dbg !5903
L..inline.68354:
	%2233 = load i32, i32* %..inline.addr.1320, align 4, !tbaa !5957, !dbg !5904
	%2234 = sext i32  %2233 to i64, !dbg !5904
	%2235 = load %struct._Z6FsGridISt5arrayIdLm3EELi2EE*, %struct._Z6FsGridISt5arrayIdLm3EELi2EE** %..inline.addr.1280, align 8, !tbaa !5952, !dbg !5904
	%2236 = bitcast %struct._Z6FsGridISt5arrayIdLm3EELi2EE*  %2235 to i8*, !dbg !5904
	%2237 = getelementptr i8, i8*  %2236, i64 92, !dbg !5904
	%2238 = bitcast i8*  %2237 to i32*, !dbg !5904
	%2239 = getelementptr i32, i32*  %2238, i64  %2234, !dbg !5904
	%2240 = load i32, i32*  %2239, align 4, !tbaa !5953, !dbg !5904
	%2241 = getelementptr i8, i8*  %2236, i64 56, !dbg !5904
	%2242 = bitcast i8*  %2241 to i32*, !dbg !5904
	%2243 = load i32, i32*  %2242, align 4, !tbaa !5953, !dbg !5904
	%2244 = icmp ne i32  %2240,  %2243, !dbg !5904
	br i1  %2244, label %L..inline.68372, label %L.B1084, !dbg !5904
L.B1084:
	%2245 = load i32, i32* %..inline.addr.1290, align 4, !tbaa !5957, !dbg !5905
	%2246 = bitcast [3 x i32]* %..inline.addr.1330 to i32*, !dbg !5905
	%2247 = load i32, i32*  %2246, align 4, !tbaa !5953, !dbg !5905
	%2248 = bitcast %struct._Z6FsGridISt5arrayIdLm3EELi2EE*  %2235 to i8*, !dbg !5905
	%2249 = getelementptr i8, i8*  %2248, i64 264, !dbg !5905
	%2250 = bitcast i8*  %2249 to i32*, !dbg !5905
	%2251 = load i32, i32*  %2250, align 4, !tbaa !5953, !dbg !5905
	%2252 = mul i32  %2247,  %2251, !dbg !5905
	%2253 = add i32  %2245,  %2252, !dbg !5905
	store i32  %2253, i32* %..inline.addr.1290, align 4, !tbaa !5957, !dbg !5905
	%2254 = load i32, i32* %..inline.addr.1300, align 4, !tbaa !5957, !dbg !5906
	%2255 = bitcast [3 x i32]* %..inline.addr.1330 to i8*, !dbg !5906
	%2256 = getelementptr i8, i8*  %2255, i64 4, !dbg !5906
	%2257 = bitcast i8*  %2256 to i32*, !dbg !5906
	%2258 = load i32, i32*  %2257, align 4, !tbaa !5953, !dbg !5906
	%2259 = getelementptr i8, i8*  %2248, i64 268, !dbg !5906
	%2260 = bitcast i8*  %2259 to i32*, !dbg !5906
	%2261 = load i32, i32*  %2260, align 4, !tbaa !5953, !dbg !5906
	%2262 = mul i32  %2258,  %2261, !dbg !5906
	%2263 = add i32  %2254,  %2262, !dbg !5906
	store i32  %2263, i32* %..inline.addr.1300, align 4, !tbaa !5957, !dbg !5906
	%2264 = load i32, i32* %..inline.addr.1310, align 4, !tbaa !5957, !dbg !5907
	%2265 = getelementptr i8, i8*  %2255, i64 8, !dbg !5907
	%2266 = bitcast i8*  %2265 to i32*, !dbg !5907
	%2267 = load i32, i32*  %2266, align 4, !tbaa !5953, !dbg !5907
	%2268 = getelementptr i8, i8*  %2248, i64 272, !dbg !5907
	%2269 = bitcast i8*  %2268 to i32*, !dbg !5907
	%2270 = load i32, i32*  %2269, align 4, !tbaa !5953, !dbg !5907
	%2271 = mul i32  %2267,  %2270, !dbg !5907
	%2272 = add i32  %2264,  %2271, !dbg !5907
	store i32  %2272, i32* %..inline.addr.1310, align 4, !tbaa !5957, !dbg !5907
	br label %L..inline.68372
L..inline.68372:
	br label %L..inline.68337
L..inline.68337:
	store i64 0, i64* %..inline.addr.1350, align 8, !tbaa !5955, !dbg !5908
	%2273 = load %struct._Z6FsGridISt5arrayIdLm3EELi2EE*, %struct._Z6FsGridISt5arrayIdLm3EELi2EE** %..inline.addr.1280, align 8, !tbaa !5952, !dbg !5908
	%2274 = bitcast %struct._Z6FsGridISt5arrayIdLm3EELi2EE*  %2273 to i8*, !dbg !5908
	%2275 = getelementptr i8, i8*  %2274, i64 260, !dbg !5908
	%2276 = bitcast i8*  %2275 to i32*, !dbg !5908
	%2277 = load i32, i32*  %2276, align 4, !tbaa !5953, !dbg !5908
	%2278 = icmp sle i32  %2277, 1, !dbg !5908
	br i1  %2278, label %L..inline.68446, label %L.B1085, !dbg !5908
L.B1085:
	%2279 = load i32, i32* %..inline.addr.1310, align 4, !tbaa !5957, !dbg !5908
	%2280 = add i32  %2279, 2, !dbg !5908
	%2281 = bitcast %struct._Z6FsGridISt5arrayIdLm3EELi2EE*  %2273 to i8*, !dbg !5908
	%2282 = getelementptr i8, i8*  %2281, i64 280, !dbg !5908
	%2283 = bitcast i8*  %2282 to i32*, !dbg !5908
	%2284 = load i32, i32*  %2283, align 4, !tbaa !5953, !dbg !5908
	%2285 = getelementptr i8, i8*  %2281, i64 276, !dbg !5908
	%2286 = bitcast i8*  %2285 to i32*, !dbg !5908
	%2287 = load i32, i32*  %2286, align 4, !tbaa !5953, !dbg !5908
	%2288 = mul i32  %2284,  %2287, !dbg !5908
	%2289 = mul i32  %2280,  %2288, !dbg !5908
	%2290 = sext i32  %2289 to i64, !dbg !5908
	store i64  %2290, i64* %..inline.addr.1350, align 8, !tbaa !5955, !dbg !5908
	br label %L..inline.68446
L..inline.68446:
	%2291 = load %struct._Z6FsGridISt5arrayIdLm3EELi2EE*, %struct._Z6FsGridISt5arrayIdLm3EELi2EE** %..inline.addr.1280, align 8, !tbaa !5952, !dbg !5908
	%2292 = bitcast %struct._Z6FsGridISt5arrayIdLm3EELi2EE*  %2291 to i8*, !dbg !5908
	%2293 = getelementptr i8, i8*  %2292, i64 256, !dbg !5908
	%2294 = bitcast i8*  %2293 to i32*, !dbg !5908
	%2295 = load i32, i32*  %2294, align 4, !tbaa !5953, !dbg !5908
	%2296 = icmp sle i32  %2295, 1, !dbg !5908
	br i1  %2296, label %L..inline.68495, label %L.B1086, !dbg !5908
L.B1086:
	%2297 = load i64, i64* %..inline.addr.1350, align 8, !tbaa !5955, !dbg !5908
	%2298 = bitcast %struct._Z6FsGridISt5arrayIdLm3EELi2EE*  %2291 to i8*, !dbg !5908
	%2299 = getelementptr i8, i8*  %2298, i64 276, !dbg !5908
	%2300 = bitcast i8*  %2299 to i32*, !dbg !5908
	%2301 = load i32, i32*  %2300, align 4, !tbaa !5953, !dbg !5908
	%2302 = load i32, i32* %..inline.addr.1300, align 4, !tbaa !5957, !dbg !5908
	%2303 = add i32  %2302, 2, !dbg !5908
	%2304 = mul i32  %2301,  %2303, !dbg !5908
	%2305 = sext i32  %2304 to i64, !dbg !5908
	%2306 = add i64  %2297,  %2305, !dbg !5908
	store i64  %2306, i64* %..inline.addr.1350, align 8, !tbaa !5955, !dbg !5908
	br label %L..inline.68495
L..inline.68495:
	%2307 = load %struct._Z6FsGridISt5arrayIdLm3EELi2EE*, %struct._Z6FsGridISt5arrayIdLm3EELi2EE** %..inline.addr.1280, align 8, !tbaa !5952, !dbg !5908
	%2308 = bitcast %struct._Z6FsGridISt5arrayIdLm3EELi2EE*  %2307 to i8*, !dbg !5908
	%2309 = getelementptr i8, i8*  %2308, i64 252, !dbg !5908
	%2310 = bitcast i8*  %2309 to i32*, !dbg !5908
	%2311 = load i32, i32*  %2310, align 4, !tbaa !5953, !dbg !5908
	%2312 = icmp sle i32  %2311, 1, !dbg !5908
	%2313 = zext i1  %2312 to i32, !dbg !5908
	%2314 = trunc i32  %2313 to i1, !dbg !5908
	%2315 = load i64, i64* %..inline.addr.1350, align 8, !tbaa !5955, !dbg !5908
	%2316 = load i32, i32* %..inline.addr.1290, align 4, !tbaa !5957, !dbg !5908
	%2317 = sext i32  %2316 to i64, !dbg !5908
	%2318 = add i64  %2317, 2, !dbg !5908
	%2319 = add i64  %2315,  %2318, !dbg !5908
	%2320 = select i1  %2314, i64  %2315, i64  %2319, !dbg !5908
	%2321 = getelementptr i8, i8*  %2308, i64 744, !dbg !5909
	%2322 = bitcast i8*  %2321 to i8**, !dbg !5909
	%2323 = load i8*, i8**  %2322, align 8, !tbaa !5952, !dbg !5909
	%2324 = mul i64  %2320, 24, !dbg !5909
	%2325 = getelementptr i8, i8*  %2323, i64  %2324, !dbg !5909
	%2326 = bitcast %struct._ZSt5arrayIdLm3EE** %..inline.addr.1340 to i8**, !dbg !5909
	store i8*  %2325, i8**  %2326, align 8, !tbaa !5952, !dbg !5909
	br label %L..inline.68541
L..inline.68541:
	%2327 = load %struct._ZSt5arrayIdLm3EE*, %struct._ZSt5arrayIdLm3EE** %..inline.addr.1340, align 8, !tbaa !5952, !dbg !5910
	%2328 = bitcast %struct._ZSt5arrayIdLm3EE*  %2327 to i8*, !dbg !5910
	call void @llvm.dbg.declare (metadata %struct._ZSt5arrayIdLm3EE** %EGrid_i2j1k1.addr, metadata !5928, metadata !5861), !dbg !4065
	%2329 = bitcast %struct._ZSt5arrayIdLm3EE** %EGrid_i2j1k1.addr to i8**, !dbg !5910
	store i8*  %2328, i8**  %2329, align 8, !tbaa !5952, !dbg !5910
	%2330 = load %struct._Z6FsGridISt5arrayIdLm3EELi2EE*, %struct._Z6FsGridISt5arrayIdLm3EELi2EE** %EGrid.addr, align 8, !tbaa !5952, !dbg !5929
	%2331 = load i32, i32* %i.addr, align 4, !tbaa !5957, !dbg !5929
	%2332 = load i32, i32* %j.addr, align 4, !tbaa !5957, !dbg !5929
	%2333 = load i32, i32* %.r1.4306.addr, align 4, !tbaa !5957, !dbg !5929
	%2334 = call %struct._ZSt5arrayIdLm3EE*  @_ZN6FsGridISt5arrayIdLm3EELi2EE3getEiii (%struct._Z6FsGridISt5arrayIdLm3EELi2EE*  %2330, i32  %2331, i32  %2332, i32  %2333), !dbg !5929
	%2335 = bitcast %struct._ZSt5arrayIdLm3EE*  %2334 to i8*, !dbg !5929
	%2336 = bitcast %struct._ZSt5arrayIdLm3EE** %.Q0001.addr to i8**, !dbg !5929
	store i8*  %2335, i8**  %2336, align 8, !tbaa !5952, !dbg !5929
	%2337 = load %struct._ZSt5arrayIdLm3EE*, %struct._ZSt5arrayIdLm3EE** %.Q0001.addr, align 8, !tbaa !5952, !dbg !5929
	%2338 = bitcast %struct._ZSt5arrayIdLm3EE*  %2337 to i8*, !dbg !5929
	call void @llvm.dbg.declare (metadata %struct._ZSt5arrayIdLm3EE** %EGrid_i1j1k2.addr.1, metadata !5930, metadata !5861), !dbg !4065
	%2339 = bitcast %struct._ZSt5arrayIdLm3EE** %EGrid_i1j1k2.addr.1 to i8**, !dbg !5929
	store i8*  %2338, i8**  %2339, align 8, !tbaa !5952, !dbg !5929
	%2340 = load %struct._Z6FsGridISt5arrayIdLm3EELi2EE*, %struct._Z6FsGridISt5arrayIdLm3EELi2EE** %EGrid.addr, align 8, !tbaa !5952, !dbg !5931
	%2341 = load i32, i32* %i.addr, align 4, !tbaa !5957, !dbg !5931
	%2342 = add i32  %2341, 1, !dbg !5931
	%2343 = load i32, i32* %j.addr, align 4, !tbaa !5957, !dbg !5931
	%2344 = load i32, i32* %.r1.4306.addr, align 4, !tbaa !5957, !dbg !5931
	%2345 = call %struct._ZSt5arrayIdLm3EE*  @_ZN6FsGridISt5arrayIdLm3EELi2EE3getEiii (%struct._Z6FsGridISt5arrayIdLm3EELi2EE*  %2340, i32  %2342, i32  %2343, i32  %2344), !dbg !5931
	%2346 = bitcast %struct._ZSt5arrayIdLm3EE*  %2345 to i8*, !dbg !5931
	%2347 = bitcast %struct._ZSt5arrayIdLm3EE** %.Q0002.addr to i8**, !dbg !5931
	store i8*  %2346, i8**  %2347, align 8, !tbaa !5952, !dbg !5931
	%2348 = load %struct._ZSt5arrayIdLm3EE*, %struct._ZSt5arrayIdLm3EE** %.Q0002.addr, align 8, !tbaa !5952, !dbg !5931
	%2349 = bitcast %struct._ZSt5arrayIdLm3EE*  %2348 to i8*, !dbg !5931
	call void @llvm.dbg.declare (metadata %struct._ZSt5arrayIdLm3EE** %EGrid_i2j1k2.addr, metadata !5932, metadata !5861), !dbg !4065
	%2350 = bitcast %struct._ZSt5arrayIdLm3EE** %EGrid_i2j1k2.addr to i8**, !dbg !5931
	store i8*  %2349, i8**  %2350, align 8, !tbaa !5952, !dbg !5931
	%2351 = load %struct._ZSt5arrayIdLm3EE*, %struct._ZSt5arrayIdLm3EE** %EGrid_i2j1k2.addr, align 8, !tbaa !5952, !dbg !5933
	%2352 = call double*  @_ZNSt5arrayIdLm3EE2atEm (%struct._ZSt5arrayIdLm3EE*  %2351, i64 1), !dbg !5933
	%2353 = bitcast double*  %2352 to i8*, !dbg !5933
	%2354 = bitcast double** %.Q0003.addr to i8**, !dbg !5933
	store i8*  %2353, i8**  %2354, align 8, !tbaa !5952, !dbg !5933
	%2355 = load %struct._ZSt5arrayIdLm3EE*, %struct._ZSt5arrayIdLm3EE** %EGrid_i1j1k2.addr.1, align 8, !tbaa !5952, !dbg !5933
	%2356 = call double*  @_ZNSt5arrayIdLm3EE2atEm (%struct._ZSt5arrayIdLm3EE*  %2355, i64 1), !dbg !5933
	%2357 = bitcast double*  %2356 to i8*, !dbg !5933
	%2358 = bitcast double** %.Q0004.addr to i8**, !dbg !5933
	store i8*  %2357, i8**  %2358, align 8, !tbaa !5952, !dbg !5933
	%2359 = load %struct._ZSt5arrayIdLm3EE*, %struct._ZSt5arrayIdLm3EE** %EGrid_i2j1k1.addr, align 8, !tbaa !5952, !dbg !5933
	%2360 = call double*  @_ZNSt5arrayIdLm3EE2atEm (%struct._ZSt5arrayIdLm3EE*  %2359, i64 1), !dbg !5933
	%2361 = bitcast double*  %2360 to i8*, !dbg !5933
	%2362 = bitcast double** %.Q0005.addr to i8**, !dbg !5933
	store i8*  %2361, i8**  %2362, align 8, !tbaa !5952, !dbg !5933
	%2363 = load %struct._ZSt5arrayIdLm3EE*, %struct._ZSt5arrayIdLm3EE** %EGrid_i1j1k1.addr, align 8, !tbaa !5952, !dbg !5933
	%2364 = call double*  @_ZNSt5arrayIdLm3EE2atEm (%struct._ZSt5arrayIdLm3EE*  %2363, i64 1), !dbg !5933
	%2365 = bitcast double*  %2364 to i8*, !dbg !5933
	%2366 = bitcast double** %.Q0006.addr to i8**, !dbg !5933
	store i8*  %2365, i8**  %2366, align 8, !tbaa !5952, !dbg !5933
	%2367 = load %struct._ZSt5arrayIdLm12EE*, %struct._ZSt5arrayIdLm12EE** %volGrid0.addr, align 8, !tbaa !5952, !dbg !5933
	%2368 = call double*  @_ZNSt5arrayIdLm12EE2atEm (%struct._ZSt5arrayIdLm12EE*  %2367, i64 10), !dbg !5933
	%2369 = bitcast double*  %2368 to i8*, !dbg !5933
	%2370 = bitcast double** %.Q0007.addr to i8**, !dbg !5933
	store i8*  %2369, i8**  %2370, align 8, !tbaa !5952, !dbg !5933
	%2371 = load double*, double** %.Q0003.addr, align 8, !tbaa !5952, !dbg !5933
	%2372 = load double, double*  %2371, align 8, !tbaa !5953, !dbg !5933
	%2373 = load double*, double** %.Q0004.addr, align 8, !tbaa !5952, !dbg !5933
	%2374 = load double, double*  %2373, align 8, !tbaa !5953, !dbg !5933
	%2375 = load double*, double** %.Q0005.addr, align 8, !tbaa !5952, !dbg !5933
	%2376 = load double, double*  %2375, align 8, !tbaa !5953, !dbg !5933
	%2377 = load double*, double** %.Q0006.addr, align 8, !tbaa !5952, !dbg !5933
	%2378 = load double, double*  %2377, align 8, !tbaa !5953, !dbg !5933
	%2379 = fadd double  %2376,  %2378, !dbg !5933
	%2380 = fadd double  %2374,  %2379, !dbg !5933
	%2381 = fadd double  %2372,  %2380, !dbg !5933
	%2382 = fmul double  %2381,  2.50000000000000000E-1, !dbg !5933
	%2383 = load double*, double** %.Q0007.addr, align 8, !tbaa !5952, !dbg !5933
	store double  %2382, double*  %2383, align 8, !tbaa !5953, !dbg !5933
	br label %L.B0022, !dbg !5934
L.B0018:
	%2384 = load %struct._ZSt5arrayIdLm12EE*, %struct._ZSt5arrayIdLm12EE** %volGrid0.addr, align 8, !tbaa !5952, !dbg !5935
	%2385 = call double*  @_ZNSt5arrayIdLm12EE2atEm (%struct._ZSt5arrayIdLm12EE*  %2384, i64 10), !dbg !5935
	%2386 = bitcast double*  %2385 to i8*, !dbg !5935
	%2387 = bitcast double** %.Q0008.addr to i8**, !dbg !5935
	store i8*  %2386, i8**  %2387, align 8, !tbaa !5952, !dbg !5935
	%2388 = load double*, double** %.Q0008.addr, align 8, !tbaa !5952, !dbg !5935
	store double  0.00000000000000000E+0, double*  %2388, align 8, !tbaa !5953, !dbg !5935
	br label %L.B0022
L.B0022:
	%2389 = load %struct._Z6FsGridIN7fsgrids9technicalELi2EE*, %struct._Z6FsGridIN7fsgrids9technicalELi2EE** %technicalGrid.addr, align 8, !tbaa !5952, !dbg !5936
	%2390 = load i32, i32* %i.addr, align 4, !tbaa !5957, !dbg !5936
	%2391 = load i32, i32* %j.addr, align 4, !tbaa !5957, !dbg !5936
	%2392 = load i32, i32* %k.addr, align 4, !tbaa !5957, !dbg !5936
	%2393 = call %struct._ZN7fsgrids9technicalE*  @_ZN6FsGridIN7fsgrids9technicalELi2EE3getEiii (%struct._Z6FsGridIN7fsgrids9technicalELi2EE*  %2389, i32  %2390, i32  %2391, i32  %2392), !dbg !5936
	%2394 = bitcast %struct._ZN7fsgrids9technicalE*  %2393 to i8*, !dbg !5936
	%2395 = bitcast %struct._ZN7fsgrids9technicalE** %.Q0009.addr to i8**, !dbg !5936
	store i8*  %2394, i8**  %2395, align 8, !tbaa !5952, !dbg !5936
	%2396 = load %struct._ZN7fsgrids9technicalE*, %struct._ZN7fsgrids9technicalE** %.Q0009.addr, align 8, !tbaa !5952, !dbg !5936
	%2397 = bitcast %struct._ZN7fsgrids9technicalE*  %2396 to i32*, !dbg !5936
	%2398 = load i32, i32*  %2397, align 4, !tbaa !5953, !dbg !5936
	%2399 = icmp eq i32  %2398, 1, !dbg !5936
	br i1  %2399, label %L.B0024, label %L.B1087, !dbg !5936
L.B1087:
	%2400 = load %struct._Z6FsGridIN7fsgrids9technicalELi2EE*, %struct._Z6FsGridIN7fsgrids9technicalELi2EE** %technicalGrid.addr, align 8, !tbaa !5952, !dbg !5936
	%2401 = load i32, i32* %i.addr, align 4, !tbaa !5957, !dbg !5936
	%2402 = load i32, i32* %j.addr, align 4, !tbaa !5957, !dbg !5936
	%2403 = load i32, i32* %k.addr, align 4, !tbaa !5957, !dbg !5936
	%2404 = call %struct._ZN7fsgrids9technicalE*  @_ZN6FsGridIN7fsgrids9technicalELi2EE3getEiii (%struct._Z6FsGridIN7fsgrids9technicalELi2EE*  %2400, i32  %2401, i32  %2402, i32  %2403), !dbg !5936
	%2405 = bitcast %struct._ZN7fsgrids9technicalE*  %2404 to i8*, !dbg !5936
	%2406 = bitcast %struct._ZN7fsgrids9technicalE** %.Q0010.addr to i8**, !dbg !5936
	store i8*  %2405, i8**  %2406, align 8, !tbaa !5952, !dbg !5936
	%2407 = load %struct._ZN7fsgrids9technicalE*, %struct._ZN7fsgrids9technicalE** %.Q0010.addr, align 8, !tbaa !5952, !dbg !5936
	%2408 = bitcast %struct._ZN7fsgrids9technicalE*  %2407 to i32*, !dbg !5936
	%2409 = load i32, i32*  %2408, align 4, !tbaa !5953, !dbg !5936
	%2410 = icmp eq i32  %2409, 1, !dbg !5936
	br i1  %2410, label %L.B0023, label %L.B1088, !dbg !5936
L.B1088:
	%2411 = load %struct._Z6FsGridIN7fsgrids9technicalELi2EE*, %struct._Z6FsGridIN7fsgrids9technicalELi2EE** %technicalGrid.addr, align 8, !tbaa !5952, !dbg !5936
	%2412 = load i32, i32* %i.addr, align 4, !tbaa !5957, !dbg !5936
	%2413 = load i32, i32* %j.addr, align 4, !tbaa !5957, !dbg !5936
	%2414 = load i32, i32* %k.addr, align 4, !tbaa !5957, !dbg !5936
	%2415 = call %struct._ZN7fsgrids9technicalE*  @_ZN6FsGridIN7fsgrids9technicalELi2EE3getEiii (%struct._Z6FsGridIN7fsgrids9technicalELi2EE*  %2411, i32  %2412, i32  %2413, i32  %2414), !dbg !5936
	%2416 = bitcast %struct._ZN7fsgrids9technicalE*  %2415 to i8*, !dbg !5936
	%2417 = bitcast %struct._ZN7fsgrids9technicalE** %.Q0011.addr to i8**, !dbg !5936
	store i8*  %2416, i8**  %2417, align 8, !tbaa !5952, !dbg !5936
	%2418 = load %struct._ZN7fsgrids9technicalE*, %struct._ZN7fsgrids9technicalE** %.Q0011.addr, align 8, !tbaa !5952, !dbg !5936
	%2419 = bitcast %struct._ZN7fsgrids9technicalE*  %2418 to i8*, !dbg !5936
	%2420 = getelementptr i8, i8*  %2419, i64 4, !dbg !5936
	%2421 = bitcast i8*  %2420 to i32*, !dbg !5936
	%2422 = load i32, i32*  %2421, align 4, !tbaa !5953, !dbg !5936
	%2423 = icmp ne i32  %2422, 1, !dbg !5936
	br i1  %2423, label %L.B0023, label %L.B0024, !dbg !5936
L.B0024:
	%2424 = load %struct._Z6FsGridISt5arrayIdLm3EELi2EE*, %struct._Z6FsGridISt5arrayIdLm3EELi2EE** %EGrid.addr, align 8, !tbaa !5952, !dbg !5937
	%2425 = load i32, i32* %i.addr, align 4, !tbaa !5957, !dbg !5937
	%2426 = add i32  %2425, 1, !dbg !5937
	%2427 = load i32, i32* %j.addr, align 4, !tbaa !5957, !dbg !5937
	%2428 = load i32, i32* %k.addr, align 4, !tbaa !5957, !dbg !5937
	%2429 = call %struct._ZSt5arrayIdLm3EE*  @_ZN6FsGridISt5arrayIdLm3EELi2EE3getEiii (%struct._Z6FsGridISt5arrayIdLm3EELi2EE*  %2424, i32  %2426, i32  %2427, i32  %2428), !dbg !5937
	%2430 = bitcast %struct._ZSt5arrayIdLm3EE*  %2429 to i8*, !dbg !5937
	%2431 = bitcast %struct._ZSt5arrayIdLm3EE** %.Q0012.addr to i8**, !dbg !5937
	store i8*  %2430, i8**  %2431, align 8, !tbaa !5952, !dbg !5937
	%2432 = load %struct._ZSt5arrayIdLm3EE*, %struct._ZSt5arrayIdLm3EE** %.Q0012.addr, align 8, !tbaa !5952, !dbg !5937
	%2433 = bitcast %struct._ZSt5arrayIdLm3EE*  %2432 to i8*, !dbg !5937
	call void @llvm.dbg.declare (metadata %struct._ZSt5arrayIdLm3EE** %EGrid_i2j1k1.addr.1, metadata !5938, metadata !5861), !dbg !4067
	%2434 = bitcast %struct._ZSt5arrayIdLm3EE** %EGrid_i2j1k1.addr.1 to i8**, !dbg !5937
	store i8*  %2433, i8**  %2434, align 8, !tbaa !5952, !dbg !5937
	%2435 = load %struct._Z6FsGridISt5arrayIdLm3EELi2EE*, %struct._Z6FsGridISt5arrayIdLm3EELi2EE** %EGrid.addr, align 8, !tbaa !5952, !dbg !5939
	%2436 = load i32, i32* %i.addr, align 4, !tbaa !5957, !dbg !5939
	%2437 = load i32, i32* %.r1.3762.addr, align 4, !tbaa !5957, !dbg !5939
	%2438 = load i32, i32* %k.addr, align 4, !tbaa !5957, !dbg !5939
	%2439 = call %struct._ZSt5arrayIdLm3EE*  @_ZN6FsGridISt5arrayIdLm3EELi2EE3getEiii (%struct._Z6FsGridISt5arrayIdLm3EELi2EE*  %2435, i32  %2436, i32  %2437, i32  %2438), !dbg !5939
	%2440 = bitcast %struct._ZSt5arrayIdLm3EE*  %2439 to i8*, !dbg !5939
	%2441 = bitcast %struct._ZSt5arrayIdLm3EE** %.Q0013.addr to i8**, !dbg !5939
	store i8*  %2440, i8**  %2441, align 8, !tbaa !5952, !dbg !5939
	%2442 = load %struct._ZSt5arrayIdLm3EE*, %struct._ZSt5arrayIdLm3EE** %.Q0013.addr, align 8, !tbaa !5952, !dbg !5939
	%2443 = bitcast %struct._ZSt5arrayIdLm3EE*  %2442 to i8*, !dbg !5939
	call void @llvm.dbg.declare (metadata %struct._ZSt5arrayIdLm3EE** %EGrid_i1j2k1.addr.1, metadata !5940, metadata !5861), !dbg !4067
	%2444 = bitcast %struct._ZSt5arrayIdLm3EE** %EGrid_i1j2k1.addr.1 to i8**, !dbg !5939
	store i8*  %2443, i8**  %2444, align 8, !tbaa !5952, !dbg !5939
	%2445 = load %struct._Z6FsGridISt5arrayIdLm3EELi2EE*, %struct._Z6FsGridISt5arrayIdLm3EELi2EE** %EGrid.addr, align 8, !tbaa !5952, !dbg !5941
	%2446 = load i32, i32* %i.addr, align 4, !tbaa !5957, !dbg !5941
	%2447 = add i32  %2446, 1, !dbg !5941
	%2448 = load i32, i32* %.r1.3762.addr, align 4, !tbaa !5957, !dbg !5941
	%2449 = load i32, i32* %k.addr, align 4, !tbaa !5957, !dbg !5941
	%2450 = call %struct._ZSt5arrayIdLm3EE*  @_ZN6FsGridISt5arrayIdLm3EELi2EE3getEiii (%struct._Z6FsGridISt5arrayIdLm3EELi2EE*  %2445, i32  %2447, i32  %2448, i32  %2449), !dbg !5941
	%2451 = bitcast %struct._ZSt5arrayIdLm3EE*  %2450 to i8*, !dbg !5941
	%2452 = bitcast %struct._ZSt5arrayIdLm3EE** %.Q0014.addr to i8**, !dbg !5941
	store i8*  %2451, i8**  %2452, align 8, !tbaa !5952, !dbg !5941
	%2453 = load %struct._ZSt5arrayIdLm3EE*, %struct._ZSt5arrayIdLm3EE** %.Q0014.addr, align 8, !tbaa !5952, !dbg !5941
	%2454 = bitcast %struct._ZSt5arrayIdLm3EE*  %2453 to i8*, !dbg !5941
	call void @llvm.dbg.declare (metadata %struct._ZSt5arrayIdLm3EE** %EGrid_i2j2k1.addr, metadata !5942, metadata !5861), !dbg !4067
	%2455 = bitcast %struct._ZSt5arrayIdLm3EE** %EGrid_i2j2k1.addr to i8**, !dbg !5941
	store i8*  %2454, i8**  %2455, align 8, !tbaa !5952, !dbg !5941
	%2456 = load %struct._ZSt5arrayIdLm3EE*, %struct._ZSt5arrayIdLm3EE** %EGrid_i2j2k1.addr, align 8, !tbaa !5952, !dbg !5943
	%2457 = call double*  @_ZNSt5arrayIdLm3EE2atEm (%struct._ZSt5arrayIdLm3EE*  %2456, i64 2), !dbg !5943
	%2458 = bitcast double*  %2457 to i8*, !dbg !5943
	%2459 = bitcast double** %.Q0015.addr to i8**, !dbg !5943
	store i8*  %2458, i8**  %2459, align 8, !tbaa !5952, !dbg !5943
	%2460 = load %struct._ZSt5arrayIdLm3EE*, %struct._ZSt5arrayIdLm3EE** %EGrid_i1j2k1.addr.1, align 8, !tbaa !5952, !dbg !5943
	%2461 = call double*  @_ZNSt5arrayIdLm3EE2atEm (%struct._ZSt5arrayIdLm3EE*  %2460, i64 2), !dbg !5943
	%2462 = bitcast double*  %2461 to i8*, !dbg !5943
	%2463 = bitcast double** %.Q0016.addr to i8**, !dbg !5943
	store i8*  %2462, i8**  %2463, align 8, !tbaa !5952, !dbg !5943
	%2464 = load %struct._ZSt5arrayIdLm3EE*, %struct._ZSt5arrayIdLm3EE** %EGrid_i2j1k1.addr.1, align 8, !tbaa !5952, !dbg !5943
	%2465 = call double*  @_ZNSt5arrayIdLm3EE2atEm (%struct._ZSt5arrayIdLm3EE*  %2464, i64 2), !dbg !5943
	%2466 = bitcast double*  %2465 to i8*, !dbg !5943
	%2467 = bitcast double** %.Q0017.addr to i8**, !dbg !5943
	store i8*  %2466, i8**  %2467, align 8, !tbaa !5952, !dbg !5943
	%2468 = load %struct._ZSt5arrayIdLm3EE*, %struct._ZSt5arrayIdLm3EE** %EGrid_i1j1k1.addr, align 8, !tbaa !5952, !dbg !5943
	%2469 = call double*  @_ZNSt5arrayIdLm3EE2atEm (%struct._ZSt5arrayIdLm3EE*  %2468, i64 2), !dbg !5943
	%2470 = bitcast double*  %2469 to i8*, !dbg !5943
	%2471 = bitcast double** %.Q0018.addr to i8**, !dbg !5943
	store i8*  %2470, i8**  %2471, align 8, !tbaa !5952, !dbg !5943
	%2472 = load %struct._ZSt5arrayIdLm12EE*, %struct._ZSt5arrayIdLm12EE** %volGrid0.addr, align 8, !tbaa !5952, !dbg !5943
	%2473 = call double*  @_ZNSt5arrayIdLm12EE2atEm (%struct._ZSt5arrayIdLm12EE*  %2472, i64 11), !dbg !5943
	%2474 = bitcast double*  %2473 to i8*, !dbg !5943
	%2475 = bitcast double** %.Q0019.addr to i8**, !dbg !5943
	store i8*  %2474, i8**  %2475, align 8, !tbaa !5952, !dbg !5943
	%2476 = load double*, double** %.Q0015.addr, align 8, !tbaa !5952, !dbg !5943
	%2477 = load double, double*  %2476, align 8, !tbaa !5953, !dbg !5943
	%2478 = load double*, double** %.Q0016.addr, align 8, !tbaa !5952, !dbg !5943
	%2479 = load double, double*  %2478, align 8, !tbaa !5953, !dbg !5943
	%2480 = load double*, double** %.Q0017.addr, align 8, !tbaa !5952, !dbg !5943
	%2481 = load double, double*  %2480, align 8, !tbaa !5953, !dbg !5943
	%2482 = load double*, double** %.Q0018.addr, align 8, !tbaa !5952, !dbg !5943
	%2483 = load double, double*  %2482, align 8, !tbaa !5953, !dbg !5943
	%2484 = fadd double  %2481,  %2483, !dbg !5943
	%2485 = fadd double  %2479,  %2484, !dbg !5943
	%2486 = fadd double  %2477,  %2485, !dbg !5943
	%2487 = fmul double  %2486,  2.50000000000000000E-1, !dbg !5943
	%2488 = load double*, double** %.Q0019.addr, align 8, !tbaa !5952, !dbg !5943
	store double  %2487, double*  %2488, align 8, !tbaa !5953, !dbg !5943
	br label %L.B0027, !dbg !5944
L.B0023:
	%2489 = load %struct._ZSt5arrayIdLm12EE*, %struct._ZSt5arrayIdLm12EE** %volGrid0.addr, align 8, !tbaa !5952, !dbg !5945
	%2490 = call double*  @_ZNSt5arrayIdLm12EE2atEm (%struct._ZSt5arrayIdLm12EE*  %2489, i64 11), !dbg !5945
	%2491 = bitcast double*  %2490 to i8*, !dbg !5945
	%2492 = bitcast double** %.Q0020.addr to i8**, !dbg !5945
	store i8*  %2491, i8**  %2492, align 8, !tbaa !5952, !dbg !5945
	%2493 = load double*, double** %.Q0020.addr, align 8, !tbaa !5952, !dbg !5945
	store double  0.00000000000000000E+0, double*  %2493, align 8, !tbaa !5953, !dbg !5945
	br label %L.B0027
L.B0027:
	br label %L_T25770056_50871
L_T25770056_50871:
	%2494 = load i32, i32* %i.addr, align 4, !tbaa !5957, !dbg !5946

	%2495 = add i32  %2494, 1, !dbg !5946
	store i32  %2495, i32* %i.addr, align 4, !tbaa !5957, !dbg !5946
	%2496 = load i32*, i32** %gridDims.addr, align 8, !tbaa !5952, !dbg !5946
	%2497 = load i32, i32*  %2496, align 4, !tbaa !5953, !dbg !5946
	%2498 = icmp slt i32  %2495,  %2497, !dbg !5946
	br i1  %2498, label %L.B0009, label %L.B0010, !dbg !5946
L.B0010:
	%2499 = load i32, i32* %j.addr, align 4, !tbaa !5957, !dbg !5947

	%2500 = add i32  %2499, 1, !dbg !5947
	store i32  %2500, i32* %j.addr, align 4, !tbaa !5957, !dbg !5947
	%2501 = load i32*, i32** %gridDims.addr, align 8, !tbaa !5952, !dbg !5947
	%2502 = bitcast i32*  %2501 to i8*, !dbg !5947
	%2503 = getelementptr i8, i8*  %2502, i64 4, !dbg !5947
	%2504 = bitcast i8*  %2503 to i32*, !dbg !5947
	%2505 = load i32, i32*  %2504, align 4, !tbaa !5953, !dbg !5947
	%2506 = icmp slt i32  %2500,  %2505, !dbg !5947
	br i1  %2506, label %L.B0005, label %L.B0006, !dbg !5947
L.B0006:
	%2507 = load i32, i32* %k.addr, align 4, !tbaa !5957, !dbg !5948

	%2508 = add i32  %2507, 1, !dbg !5948
	store i32  %2508, i32* %k.addr, align 4, !tbaa !5957, !dbg !5948
	%2509 = load i32*, i32** %gridDims.addr, align 8, !tbaa !5952, !dbg !5948
	%2510 = bitcast i32*  %2509 to i8*, !dbg !5948
	%2511 = getelementptr i8, i8*  %2510, i64 8, !dbg !5948
	%2512 = bitcast i8*  %2511 to i32*, !dbg !5948
	%2513 = load i32, i32*  %2512, align 4, !tbaa !5953, !dbg !5948
	%2514 = icmp slt i32  %2508,  %2513, !dbg !5948
	br i1  %2514, label %L.B0001, label %L.B0002, !dbg !5948
L.B0002:
	call void  @_ZNSaIcEC1Ev (%struct._ZSaIcE* %_T25761864_50871.addr) nounwind, !dbg !5949
	%2515 = bitcast [33 x i8]* @.S52063 to i8*, !dbg !5949
	invoke void  @_ZNSt7__cxx1112basic_stringIcSt11char_traitsIcESaIcEEC1EPKcRKS3_ (%struct._ZNSt7__cxx1112basic_stringIcSt11char_traitsIcESaIcEEE* %_T25762160_50871.addr, i8*  %2515, %struct._ZSaIcE* %_T25761864_50871.addr)
		to label %L.B1089
		unwind label %L_T25768856_50871, !dbg !5949
L.B1089:
	call void  @_ZNSaIcEC1Ev (%struct._ZSaIcE* %_T25762456_50871.addr) nounwind, !dbg !5949
	%2516 = bitcast [14 x i8]* @.S52158 to i8*, !dbg !5949
	invoke void  @_ZNSt7__cxx1112basic_stringIcSt11char_traitsIcESaIcEEC1EPKcRKS3_ (%struct._ZNSt7__cxx1112basic_stringIcSt11char_traitsIcESaIcEEE* %_T25762752_50871.addr, i8*  %2516, %struct._ZSaIcE* %_T25762456_50871.addr)
		to label %L.B1090
		unwind label %L_T25769336_50871, !dbg !5949
L.B1090:
	%2517 = load i64, i64* %N_cells.addr, align 8, !tbaa !5955, !dbg !5949
	%2518 = uitofp i64  %2517 to double, !dbg !5949
	%2519 = invoke i8  @_ZN7phiprof4stopERKNSt7__cxx1112basic_stringIcSt11char_traitsIcESaIcEEEdS7_ (%struct._ZNSt7__cxx1112basic_stringIcSt11char_traitsIcESaIcEEE* %_T25762160_50871.addr, double  %2518, %struct._ZNSt7__cxx1112basic_stringIcSt11char_traitsIcESaIcEEE* %_T25762752_50871.addr)
		to label %L.B1091
		unwind label %L_T25769576_50871, !dbg !5949
L.B1091:
	%2520 = sext i8  %2519 to i32, !dbg !5949
	store i32  %2520, i32* %.Q0021.addr, align 4, !tbaa !5957, !dbg !5949
	call void  @_ZNSt7__cxx1112basic_stringIcSt11char_traitsIcESaIcEED1Ev (%struct._ZNSt7__cxx1112basic_stringIcSt11char_traitsIcESaIcEEE* %_T25762752_50871.addr) nounwind, !dbg !5949
	call void  @_ZNSaIcED1Ev (%struct._ZSaIcE* %_T25762456_50871.addr) nounwind, !dbg !5949
	call void  @_ZNSt7__cxx1112basic_stringIcSt11char_traitsIcESaIcEED1Ev (%struct._ZNSt7__cxx1112basic_stringIcSt11char_traitsIcESaIcEEE* %_T25762160_50871.addr) nounwind, !dbg !5949
	call void  @_ZNSaIcED1Ev (%struct._ZSaIcE* %_T25761864_50871.addr) nounwind, !dbg !5949
	br label %L.R0000, !dbg !5949
L_T25768376_50871:
	%2521 = landingpad %astruct.dt64
	cleanup
	%2522 = extractvalue %astruct.dt64  %2521, 0, !dbg !5949
	store i8*  %2522, i8** %__caught_object_address.addr, align 1, !tbaa !5952, !dbg !5949
	%2523 = extractvalue %astruct.dt64  %2521, 1, !dbg !5949
	store i32  %2523, i32* %__catch_clause_number.addr, align 1, !tbaa !5953, !dbg !5949
	br label %L_T25768496_50871
L_T25768496_50871:
	call void  @_ZNSaIcED1Ev (%struct._ZSaIcE* %_T25761864_50871.addr) nounwind, !dbg !5949
	%2524 = load i32, i32* %__catch_clause_number.addr, align 4, !tbaa !5953, !dbg !5949
	%2525 = load i8*, i8** %__caught_object_address.addr, align 8, !tbaa !5952, !dbg !5949
	%2526 = insertvalue %astruct.dt64 undef, i8*  %2525, 0, !dbg !5949
	%2527 = insertvalue %astruct.dt64  %2526, i32  %2524, 1, !dbg !5949
	resume %astruct.dt64  %2527 , !dbg !5949
L_T25768616_50871:
	%2528 = landingpad %astruct.dt64
	cleanup
	%2529 = extractvalue %astruct.dt64  %2528, 0, !dbg !5949
	store i8*  %2529, i8** %__caught_object_address.addr, align 1, !tbaa !5952, !dbg !5949
	%2530 = extractvalue %astruct.dt64  %2528, 1, !dbg !5949
	store i32  %2530, i32* %__catch_clause_number.addr, align 1, !tbaa !5953, !dbg !5949
	call void  @_ZNSt7__cxx1112basic_stringIcSt11char_traitsIcESaIcEED1Ev (%struct._ZNSt7__cxx1112basic_stringIcSt11char_traitsIcESaIcEEE* %_T25762160_50871.addr) nounwind, !dbg !5949
	br label %L_T25768496_50871, !dbg !5949
L_T25768856_50871:
	%2531 = landingpad %astruct.dt64
	cleanup
	%2532 = extractvalue %astruct.dt64  %2531, 0, !dbg !5949
	store i8*  %2532, i8** %__caught_object_address.addr, align 1, !tbaa !5952, !dbg !5949
	%2533 = extractvalue %astruct.dt64  %2531, 1, !dbg !5949
	store i32  %2533, i32* %__catch_clause_number.addr, align 1, !tbaa !5953, !dbg !5949
	br label %L_T25768976_50871
L_T25768976_50871:
	call void  @_ZNSaIcED1Ev (%struct._ZSaIcE* %_T25761864_50871.addr) nounwind, !dbg !5949
	%2534 = load i32, i32* %__catch_clause_number.addr, align 4, !tbaa !5953, !dbg !5949
	%2535 = load i8*, i8** %__caught_object_address.addr, align 8, !tbaa !5952, !dbg !5949
	%2536 = insertvalue %astruct.dt64 undef, i8*  %2535, 0, !dbg !5949
	%2537 = insertvalue %astruct.dt64  %2536, i32  %2534, 1, !dbg !5949
	resume %astruct.dt64  %2537 , !dbg !5949
L_T25769096_50871:
	%2538 = landingpad %astruct.dt64
	cleanup
	%2539 = extractvalue %astruct.dt64  %2538, 0, !dbg !5949
	store i8*  %2539, i8** %__caught_object_address.addr, align 1, !tbaa !5952, !dbg !5949
	%2540 = extractvalue %astruct.dt64  %2538, 1, !dbg !5949
	store i32  %2540, i32* %__catch_clause_number.addr, align 1, !tbaa !5953, !dbg !5949
	br label %L_T25769216_50871
L_T25769216_50871:
	call void  @_ZNSt7__cxx1112basic_stringIcSt11char_traitsIcESaIcEED1Ev (%struct._ZNSt7__cxx1112basic_stringIcSt11char_traitsIcESaIcEEE* %_T25762160_50871.addr) nounwind, !dbg !5949
	br label %L_T25768976_50871, !dbg !5949
L_T25769336_50871:
	%2541 = landingpad %astruct.dt64
	cleanup
	%2542 = extractvalue %astruct.dt64  %2541, 0, !dbg !5949
	store i8*  %2542, i8** %__caught_object_address.addr, align 1, !tbaa !5952, !dbg !5949
	%2543 = extractvalue %astruct.dt64  %2541, 1, !dbg !5949
	store i32  %2543, i32* %__catch_clause_number.addr, align 1, !tbaa !5953, !dbg !5949
	br label %L_T25769456_50871
L_T25769456_50871:
	call void  @_ZNSaIcED1Ev (%struct._ZSaIcE* %_T25762456_50871.addr) nounwind, !dbg !5949
	br label %L_T25769216_50871, !dbg !5949
L_T25769576_50871:
	%2544 = landingpad %astruct.dt64
	cleanup
	%2545 = extractvalue %astruct.dt64  %2544, 0, !dbg !5949
	store i8*  %2545, i8** %__caught_object_address.addr, align 1, !tbaa !5952, !dbg !5949
	%2546 = extractvalue %astruct.dt64  %2544, 1, !dbg !5949
	store i32  %2546, i32* %__catch_clause_number.addr, align 1, !tbaa !5953, !dbg !5949
	call void  @_ZNSt7__cxx1112basic_stringIcSt11char_traitsIcESaIcEED1Ev (%struct._ZNSt7__cxx1112basic_stringIcSt11char_traitsIcESaIcEEE* %_T25762752_50871.addr) nounwind, !dbg !5949
	br label %L_T25769456_50871, !dbg !5949
L.R0000:
	ret void, !dbg !5876
}
define linkonce_odr i64 @_ZN6FsGridIN7fsgrids9technicalELi2EE16LocalIDForCoordsEiii(%struct._Z6FsGridIN7fsgrids9technicalELi2EE* %_T26102280_50874.arg, i32 signext %x.arg, i32 signext %y.arg, i32 signext %z.arg) #0 inlinehint !dbg !5966 {
L.entry:
	%_T26102280_50874.addr = alloca %struct._Z6FsGridIN7fsgrids9technicalELi2EE*, align 8
	%x.addr = alloca i32, align 4
	%y.addr = alloca i32, align 4
	%z.addr = alloca i32, align 4
	%index.addr = alloca i64, align 8

	call void @llvm.dbg.declare (metadata %struct._Z6FsGridIN7fsgrids9technicalELi2EE** %_T26102280_50874.addr, metadata !6018, metadata !5861), !dbg !5967
	store %struct._Z6FsGridIN7fsgrids9technicalELi2EE* %_T26102280_50874.arg, %struct._Z6FsGridIN7fsgrids9technicalELi2EE** %_T26102280_50874.addr, align 8, !tbaa !5952
	call void @llvm.dbg.declare (metadata %struct._Z6FsGridIN7fsgrids9technicalELi2EE** %_T26102280_50874.addr, metadata !6019, metadata !5861), !dbg !5967
	call void @llvm.dbg.declare (metadata i32* %x.addr, metadata !6020, metadata !5861), !dbg !5967
	store i32 %x.arg, i32* %x.addr, align 4, !tbaa !5953
	call void @llvm.dbg.declare (metadata i32* %x.addr, metadata !6021, metadata !5861), !dbg !5967
	call void @llvm.dbg.declare (metadata i32* %y.addr, metadata !6022, metadata !5861), !dbg !5967
	store i32 %y.arg, i32* %y.addr, align 4, !tbaa !5953
	call void @llvm.dbg.declare (metadata i32* %y.addr, metadata !6023, metadata !5861), !dbg !5967
	call void @llvm.dbg.declare (metadata i32* %z.addr, metadata !6024, metadata !5861), !dbg !5967
	store i32 %z.arg, i32* %z.addr, align 4, !tbaa !5953
	call void @llvm.dbg.declare (metadata i32* %z.addr, metadata !6025, metadata !5861), !dbg !5967
	call void @llvm.dbg.declare (metadata i64* %index.addr, metadata !6027, metadata !5861), !dbg !5967
	store i64 0, i64* %index.addr, align 8, !tbaa !5955, !dbg !6026
	%0 = load %struct._Z6FsGridIN7fsgrids9technicalELi2EE*, %struct._Z6FsGridIN7fsgrids9technicalELi2EE** %_T26102280_50874.addr, align 8, !tbaa !5952, !dbg !6028
	%1 = bitcast %struct._Z6FsGridIN7fsgrids9technicalELi2EE*  %0 to i8*, !dbg !6028
	%2 = getelementptr i8, i8*  %1, i64 260, !dbg !6028
	%3 = bitcast i8*  %2 to i32*, !dbg !6028
	%4 = load i32, i32*  %3, align 4, !tbaa !5953, !dbg !6028
	%5 = icmp sle i32  %4, 1, !dbg !6028
	br i1  %5, label %L.B0034, label %L.B1104, !dbg !6028
L.B1104:
	%6 = load i32, i32* %z.addr, align 4, !tbaa !5957, !dbg !6028
	%7 = add i32  %6, 2, !dbg !6028
	%8 = bitcast %struct._Z6FsGridIN7fsgrids9technicalELi2EE*  %0 to i8*, !dbg !6028
	%9 = getelementptr i8, i8*  %8, i64 280, !dbg !6028
	%10 = bitcast i8*  %9 to i32*, !dbg !6028
	%11 = load i32, i32*  %10, align 4, !tbaa !5953, !dbg !6028
	%12 = getelementptr i8, i8*  %8, i64 276, !dbg !6028
	%13 = bitcast i8*  %12 to i32*, !dbg !6028
	%14 = load i32, i32*  %13, align 4, !tbaa !5953, !dbg !6028
	%15 = mul i32  %11,  %14, !dbg !6028
	%16 = mul i32  %7,  %15, !dbg !6028
	%17 = sext i32  %16 to i64, !dbg !6028
	store i64  %17, i64* %index.addr, align 8, !tbaa !5955, !dbg !6028
	br label %L.B0034
L.B0034:
	%18 = load %struct._Z6FsGridIN7fsgrids9technicalELi2EE*, %struct._Z6FsGridIN7fsgrids9technicalELi2EE** %_T26102280_50874.addr, align 8, !tbaa !5952, !dbg !6028
	%19 = bitcast %struct._Z6FsGridIN7fsgrids9technicalELi2EE*  %18 to i8*, !dbg !6028
	%20 = getelementptr i8, i8*  %19, i64 256, !dbg !6028
	%21 = bitcast i8*  %20 to i32*, !dbg !6028
	%22 = load i32, i32*  %21, align 4, !tbaa !5953, !dbg !6028
	%23 = icmp sle i32  %22, 1, !dbg !6028
	br i1  %23, label %L.B0035, label %L.B1105, !dbg !6028
L.B1105:
	%24 = load i64, i64* %index.addr, align 8, !tbaa !5955, !dbg !6028
	%25 = load i32, i32* %y.addr, align 4, !tbaa !5957, !dbg !6028
	%26 = add i32  %25, 2, !dbg !6028
	%27 = bitcast %struct._Z6FsGridIN7fsgrids9technicalELi2EE*  %18 to i8*, !dbg !6028
	%28 = getelementptr i8, i8*  %27, i64 276, !dbg !6028
	%29 = bitcast i8*  %28 to i32*, !dbg !6028
	%30 = load i32, i32*  %29, align 4, !tbaa !5953, !dbg !6028
	%31 = mul i32  %26,  %30, !dbg !6028
	%32 = sext i32  %31 to i64, !dbg !6028
	%33 = add i64  %24,  %32, !dbg !6028
	store i64  %33, i64* %index.addr, align 8, !tbaa !5955, !dbg !6028
	br label %L.B0035
L.B0035:
	%34 = load %struct._Z6FsGridIN7fsgrids9technicalELi2EE*, %struct._Z6FsGridIN7fsgrids9technicalELi2EE** %_T26102280_50874.addr, align 8, !tbaa !5952, !dbg !6028
	%35 = bitcast %struct._Z6FsGridIN7fsgrids9technicalELi2EE*  %34 to i8*, !dbg !6028
	%36 = getelementptr i8, i8*  %35, i64 252, !dbg !6028
	%37 = bitcast i8*  %36 to i32*, !dbg !6028
	%38 = load i32, i32*  %37, align 4, !tbaa !5953, !dbg !6028
	%39 = icmp sle i32  %38, 1, !dbg !6028
	%40 = zext i1  %39 to i32, !dbg !6028
	%41 = trunc i32  %40 to i1, !dbg !6028
	%42 = load i64, i64* %index.addr, align 8, !tbaa !5955, !dbg !6028
	%43 = load i32, i32* %x.addr, align 4, !tbaa !5957, !dbg !6028
	%44 = sext i32  %43 to i64, !dbg !6028
	%45 = add i64  %44, 2, !dbg !6028
	%46 = add i64  %42,  %45, !dbg !6028
	%47 = select i1  %41, i64  %42, i64  %46, !dbg !6028
	ret i64  %47, !dbg !6029
}
define linkonce_odr %struct._ZSt5arrayIiLm3EE* @_ZN6FsGridIN7fsgrids9technicalELi2EE12getLocalSizeEv(%struct._Z6FsGridIN7fsgrids9technicalELi2EE* %_T26100992_50875.arg) #0 inlinehint !dbg !6035 {
L.entry:
	%_T26100992_50875.addr = alloca %struct._Z6FsGridIN7fsgrids9technicalELi2EE*, align 8

	call void @llvm.dbg.declare (metadata %struct._Z6FsGridIN7fsgrids9technicalELi2EE** %_T26100992_50875.addr, metadata !6039, metadata !5861), !dbg !6036
	store %struct._Z6FsGridIN7fsgrids9technicalELi2EE* %_T26100992_50875.arg, %struct._Z6FsGridIN7fsgrids9technicalELi2EE** %_T26100992_50875.addr, align 8, !tbaa !5952
	call void @llvm.dbg.declare (metadata %struct._Z6FsGridIN7fsgrids9technicalELi2EE** %_T26100992_50875.addr, metadata !6040, metadata !5861), !dbg !6036
	%0 = load %struct._Z6FsGridIN7fsgrids9technicalELi2EE*, %struct._Z6FsGridIN7fsgrids9technicalELi2EE** %_T26100992_50875.addr, align 8, !tbaa !5952, !dbg !6041
	%1 = bitcast %struct._Z6FsGridIN7fsgrids9technicalELi2EE*  %0 to i8*, !dbg !6041
	%2 = getelementptr i8, i8*  %1, i64 264, !dbg !6041
	%3 = bitcast i8*  %2 to %struct._ZSt5arrayIiLm3EE*, !dbg !6041
	ret %struct._ZSt5arrayIiLm3EE*  %3, !dbg !6041
}
define linkonce_odr %struct._ZN7fsgrids9technicalE* @_ZN6FsGridIN7fsgrids9technicalELi2EE3getEiii(%struct._Z6FsGridIN7fsgrids9technicalELi2EE* %_T25764760_50876.arg, i32 signext %x.arg, i32 signext %y.arg, i32 signext %z.arg) #0 inlinehint !dbg !6046 {
L.entry:
	%_T25764760_50876.addr = alloca %struct._Z6FsGridIN7fsgrids9technicalELi2EE*, align 8
	%x.addr = alloca i32, align 4
	%y.addr = alloca i32, align 4
	%z.addr = alloca i32, align 4
	%isInNeighbourDomain.addr = alloca i32, align 4
	%coord_shift.addr = alloca [3 x i32], align 4
	%..inline.addr = alloca %struct._Z6FsGridIN7fsgrids9technicalELi2EE*, align 8
	%..inline.addr.1 = alloca i64, align 8

	call void @llvm.dbg.declare (metadata %struct._Z6FsGridIN7fsgrids9technicalELi2EE** %_T25764760_50876.addr, metadata !6170, metadata !5861), !dbg !6047
	store %struct._Z6FsGridIN7fsgrids9technicalELi2EE* %_T25764760_50876.arg, %struct._Z6FsGridIN7fsgrids9technicalELi2EE** %_T25764760_50876.addr, align 8, !tbaa !5952
	call void @llvm.dbg.declare (metadata %struct._Z6FsGridIN7fsgrids9technicalELi2EE** %_T25764760_50876.addr, metadata !6171, metadata !5861), !dbg !6047
	call void @llvm.dbg.declare (metadata i32* %x.addr, metadata !6172, metadata !5861), !dbg !6047
	store i32 %x.arg, i32* %x.addr, align 4, !tbaa !5953
	call void @llvm.dbg.declare (metadata i32* %x.addr, metadata !6173, metadata !5861), !dbg !6047
	call void @llvm.dbg.declare (metadata i32* %y.addr, metadata !6174, metadata !5861), !dbg !6047
	store i32 %y.arg, i32* %y.addr, align 4, !tbaa !5953
	call void @llvm.dbg.declare (metadata i32* %y.addr, metadata !6175, metadata !5861), !dbg !6047
	call void @llvm.dbg.declare (metadata i32* %z.addr, metadata !6176, metadata !5861), !dbg !6047
	store i32 %z.arg, i32* %z.addr, align 4, !tbaa !5953
