	.text
	.file	"ldz_magnetic_field.ll"
	.file	1 "/home/talgat/vlasiator/fieldsolver/ldz_magnetic_field.cpp"
	.section	.rodata.cst8,"aM",@progbits,8
	.p2align	3               # -- Begin function _Z22propagateMagneticFieldR6FsGridISt5arrayIdLm3EELi2EES3_S3_S3_iiiRKdRKibbb
.LCPI0_0:
	.quad	4607182418800017408     # double 1
.LCPI0_1:
	.quad	4602678819172646912     # double 0.5
	.text
	.globl	_Z22propagateMagneticFieldR6FsGridISt5arrayIdLm3EELi2EES3_S3_S3_iiiRKdRKibbb
	.p2align	4, 0x90
	.type	_Z22propagateMagneticFieldR6FsGridISt5arrayIdLm3EELi2EES3_S3_S3_iiiRKdRKibbb,@function
_Z22propagateMagneticFieldR6FsGridISt5arrayIdLm3EELi2EES3_S3_S3_iiiRKdRKibbb: # @_Z22propagateMagneticFieldR6FsGridISt5arrayIdLm3EELi2EES3_S3_S3_iiiRKdRKibbb
.Lfunc_begin0:
	.loc	1 62 0                  # fieldsolver/ldz_magnetic_field.cpp:62:0
	.cfi_startproc
# %bb.0:                                # %L.entry
	#DEBUG_VALUE: propagateMagneticField:perBGrid <- $rdi
	#DEBUG_VALUE: propagateMagneticField:perBDt2Grid <- $rsi
	#DEBUG_VALUE: propagateMagneticField:EGrid <- $rdx
	#DEBUG_VALUE: propagateMagneticField:EDt2Grid <- $rcx
	#DEBUG_VALUE: propagateMagneticField:i <- $r8d
	#DEBUG_VALUE: propagateMagneticField:j <- $r9d
	pushq	%rbp
	.cfi_def_cfa_offset 16
	.cfi_offset %rbp, -16
	movq	%rsp, %rbp
	.cfi_def_cfa_register %rbp
	pushq	%r15
	pushq	%r14
	pushq	%r13
	pushq	%r12
	pushq	%rbx
	subq	$120, %rsp
	.cfi_offset %rbx, -56
	.cfi_offset %r12, -48
	.cfi_offset %r13, -40
	.cfi_offset %r14, -32
	.cfi_offset %r15, -24
.Ltmp0:
	#DEBUG_VALUE: perBGrid <- $rdi
	#DEBUG_VALUE: perBDt2Grid <- $rsi
	#DEBUG_VALUE: EGrid <- $rdx
	#DEBUG_VALUE: EDt2Grid <- $rcx
	#DEBUG_VALUE: i <- $r8d
	#DEBUG_VALUE: j <- $r9d
                                        # kill: def $r9d killed $r9d def $r9
                                        # kill: def $r8d killed $r8d def $r8
	movq	%rcx, -144(%rbp)        # 8-byte Spill
	movq	%rdx, -96(%rbp)         # 8-byte Spill
	movq	%rsi, -160(%rbp)        # 8-byte Spill
.Ltmp1:
	#DEBUG_VALUE: doZ <- [DW_OP_plus_uconst 56] [$rbp+0]
	#DEBUG_VALUE: propagateMagneticField:doZ <- [DW_OP_plus_uconst 56] [$rbp+0]
	#DEBUG_VALUE: doY <- [DW_OP_plus_uconst 48] [$rbp+0]
	#DEBUG_VALUE: propagateMagneticField:doY <- [DW_OP_plus_uconst 48] [$rbp+0]
	#DEBUG_VALUE: doX <- [DW_OP_plus_uconst 40] [$rbp+0]
	#DEBUG_VALUE: propagateMagneticField:doX <- [DW_OP_plus_uconst 40] [$rbp+0]
	#DEBUG_VALUE: RKCase <- [DW_OP_plus_uconst 32] [$rbp+0]
	#DEBUG_VALUE: propagateMagneticField:RKCase <- [DW_OP_plus_uconst 32] [$rbp+0]
	#DEBUG_VALUE: dt <- [DW_OP_plus_uconst 24] [$rbp+0]
	#DEBUG_VALUE: propagateMagneticField:dt <- [DW_OP_plus_uconst 24] [$rbp+0]
	#DEBUG_VALUE: k <- [DW_OP_plus_uconst 16] [$rbp+0]
	#DEBUG_VALUE: propagateMagneticField:k <- [DW_OP_plus_uconst 16] [$rbp+0]
	#DEBUG_VALUE: j <- $r9d
	#DEBUG_VALUE: propagateMagneticField:j <- $r9d
	#DEBUG_VALUE: i <- $r8d
	#DEBUG_VALUE: propagateMagneticField:i <- $r8d
	#DEBUG_VALUE: EDt2Grid <- [DW_OP_constu 144, DW_OP_minus] [$rbp+0]
	#DEBUG_VALUE: propagateMagneticField:EDt2Grid <- [DW_OP_constu 144, DW_OP_minus] [$rbp+0]
	#DEBUG_VALUE: EGrid <- [DW_OP_constu 96, DW_OP_minus] [$rbp+0]
	#DEBUG_VALUE: propagateMagneticField:EGrid <- [DW_OP_constu 96, DW_OP_minus] [$rbp+0]
	#DEBUG_VALUE: perBDt2Grid <- [DW_OP_constu 160, DW_OP_minus] [$rbp+0]
	#DEBUG_VALUE: propagateMagneticField:perBDt2Grid <- [DW_OP_constu 160, DW_OP_minus] [$rbp+0]
	#DEBUG_VALUE: perBGrid <- $rdi
	#DEBUG_VALUE: propagateMagneticField:perBGrid <- $rdi
	.loc	1 702 1 prologue_end    # fieldsolver/ldz_magnetic_field.cpp:702:1
	xorl	%eax, %eax
	testl	%r8d, %r8d
	setns	%al
	movl	%r8d, %ecx
	shrl	$31, %ecx
	leal	(%rax,%rax,8), %edx
	addl	$4, %edx
	.loc	1 707 1                 # fieldsolver/ldz_magnetic_field.cpp:707:1
	movl	264(%rdi), %esi
	movl	%esi, -84(%rbp)         # 4-byte Spill
	cmpl	%r8d, %esi
	leal	13(%rax,%rax,8), %eax
	movl	$-1, %r13d
	movl	%ecx, -76(%rbp)         # 4-byte Spill
	cmovgl	%ecx, %r13d
	movq	%rax, -104(%rbp)        # 8-byte Spill
                                        # kill: def $eax killed $eax killed $rax def $rax
	movl	%edx, -80(%rbp)         # 4-byte Spill
	cmovgl	%edx, %eax
	.loc	1 711 1                 # fieldsolver/ldz_magnetic_field.cpp:711:1
	movl	%r9d, %edx
	shrl	$31, %edx
	testl	%r9d, %r9d
	leal	-3(%rax), %ecx
	cmovnsl	%eax, %ecx
	.loc	1 715 1                 # fieldsolver/ldz_magnetic_field.cpp:715:1
	movl	268(%rdi), %r14d
	cmpl	%r9d, %r14d
	leal	3(%rcx), %eax
	cmovgl	%ecx, %eax
	movl	$-1, %esi
	movl	%edx, -72(%rbp)         # 4-byte Spill
	cmovgl	%edx, %esi
	movl	16(%rbp), %ecx
	.loc	1 719 1                 # fieldsolver/ldz_magnetic_field.cpp:719:1
	movl	%ecx, %ebx
	shrl	$31, %ebx
	.loc	1 723 1                 # fieldsolver/ldz_magnetic_field.cpp:723:1
	movl	272(%rdi), %r12d
	xorl	%r10d, %r10d
	cmpl	%ecx, %r12d
	setle	%r10b
	movl	$-1, %r11d
	cmovgl	%ebx, %r11d
	movl	%ebx, -68(%rbp)         # 4-byte Spill
	.loc	1 719 1                 # fieldsolver/ldz_magnetic_field.cpp:719:1
	subl	%ebx, %r10d
	.loc	1 723 1                 # fieldsolver/ldz_magnetic_field.cpp:723:1
	addl	%eax, %r10d
	.loc	1 63 1                  # fieldsolver/ldz_magnetic_field.cpp:63:1
	vmovsd	(%rdi), %xmm1           # xmm1 = mem[0],zero
.Ltmp2:
	#DEBUG_VALUE: dx <- $xmm1
	.loc	1 64 1                  # fieldsolver/ldz_magnetic_field.cpp:64:1
	vmovsd	8(%rdi), %xmm0          # xmm0 = mem[0],zero
.Ltmp3:
	#DEBUG_VALUE: dy <- $xmm0
	.loc	1 65 1                  # fieldsolver/ldz_magnetic_field.cpp:65:1
	vmovsd	16(%rdi), %xmm2         # xmm2 = mem[0],zero
.Ltmp4:
	#DEBUG_VALUE: dz <- $xmm2
	.loc	1 0 1 is_stmt 0         # fieldsolver/ldz_magnetic_field.cpp:0:1
	movq	%rcx, -152(%rbp)        # 8-byte Spill
	movl	%ecx, %ebx
	movl	%r9d, %eax
	movq	%r8, -48(%rbp)          # 8-byte Spill
.Ltmp5:
	#DEBUG_VALUE: i <- [DW_OP_constu 48, DW_OP_minus] [$rbp+0]
	#DEBUG_VALUE: propagateMagneticField:i <- [DW_OP_constu 48, DW_OP_minus] [$rbp+0]
	movl	%r8d, %r15d
	.loc	1 776 1 is_stmt 1       # fieldsolver/ldz_magnetic_field.cpp:776:1
	cmpl	$13, %r10d
	movq	%r9, %rdx
.Ltmp6:
	#DEBUG_VALUE: j <- $edx
	#DEBUG_VALUE: propagateMagneticField:j <- $edx
	.loc	1 0 1 is_stmt 0         # fieldsolver/ldz_magnetic_field.cpp:0:1
	movq	%r9, -56(%rbp)          # 8-byte Spill
.Ltmp7:
	#DEBUG_VALUE: j <- [DW_OP_constu 56, DW_OP_minus] [$rbp+0]
	#DEBUG_VALUE: propagateMagneticField:j <- [DW_OP_constu 56, DW_OP_minus] [$rbp+0]
	.loc	1 776 1                 # fieldsolver/ldz_magnetic_field.cpp:776:1
	jne	.LBB0_1
.Ltmp8:
.LBB0_5:                                # %L..inline.69074
	#DEBUG_VALUE: propagateMagneticField:j <- [DW_OP_constu 56, DW_OP_minus] [$rbp+0]
	#DEBUG_VALUE: j <- [DW_OP_constu 56, DW_OP_minus] [$rbp+0]
	#DEBUG_VALUE: propagateMagneticField:i <- [DW_OP_constu 48, DW_OP_minus] [$rbp+0]
	#DEBUG_VALUE: i <- [DW_OP_constu 48, DW_OP_minus] [$rbp+0]
	#DEBUG_VALUE: dz <- $xmm2
	#DEBUG_VALUE: dy <- $xmm0
	#DEBUG_VALUE: dx <- $xmm1
	#DEBUG_VALUE: propagateMagneticField:perBDt2Grid <- [DW_OP_constu 160, DW_OP_minus] [$rbp+0]
	#DEBUG_VALUE: perBDt2Grid <- [DW_OP_constu 160, DW_OP_minus] [$rbp+0]
	#DEBUG_VALUE: propagateMagneticField:EGrid <- [DW_OP_constu 96, DW_OP_minus] [$rbp+0]
	#DEBUG_VALUE: EGrid <- [DW_OP_constu 96, DW_OP_minus] [$rbp+0]
	#DEBUG_VALUE: propagateMagneticField:EDt2Grid <- [DW_OP_constu 144, DW_OP_minus] [$rbp+0]
	#DEBUG_VALUE: EDt2Grid <- [DW_OP_constu 144, DW_OP_minus] [$rbp+0]
	#DEBUG_VALUE: propagateMagneticField:k <- [DW_OP_plus_uconst 16] [$rbp+0]
	#DEBUG_VALUE: k <- [DW_OP_plus_uconst 16] [$rbp+0]
	#DEBUG_VALUE: propagateMagneticField:dt <- [DW_OP_plus_uconst 24] [$rbp+0]
	#DEBUG_VALUE: dt <- [DW_OP_plus_uconst 24] [$rbp+0]
	#DEBUG_VALUE: propagateMagneticField:RKCase <- [DW_OP_plus_uconst 32] [$rbp+0]
	#DEBUG_VALUE: RKCase <- [DW_OP_plus_uconst 32] [$rbp+0]
	#DEBUG_VALUE: propagateMagneticField:doX <- [DW_OP_plus_uconst 40] [$rbp+0]
	#DEBUG_VALUE: doX <- [DW_OP_plus_uconst 40] [$rbp+0]
	#DEBUG_VALUE: propagateMagneticField:doY <- [DW_OP_plus_uconst 48] [$rbp+0]
	#DEBUG_VALUE: doY <- [DW_OP_plus_uconst 48] [$rbp+0]
	#DEBUG_VALUE: propagateMagneticField:doZ <- [DW_OP_plus_uconst 56] [$rbp+0]
	#DEBUG_VALUE: doZ <- [DW_OP_plus_uconst 56] [$rbp+0]
	#DEBUG_VALUE: perBGrid <- $rdi
	#DEBUG_VALUE: propagateMagneticField:perBGrid <- $rdi
	.loc	1 793 1 is_stmt 1       # fieldsolver/ldz_magnetic_field.cpp:793:1
	cmpl	$2, 260(%rdi)
	jge	.LBB0_7
.Ltmp9:
# %bb.6:
	#DEBUG_VALUE: propagateMagneticField:j <- [DW_OP_constu 56, DW_OP_minus] [$rbp+0]
	#DEBUG_VALUE: j <- [DW_OP_constu 56, DW_OP_minus] [$rbp+0]
	#DEBUG_VALUE: propagateMagneticField:i <- [DW_OP_constu 48, DW_OP_minus] [$rbp+0]
	#DEBUG_VALUE: i <- [DW_OP_constu 48, DW_OP_minus] [$rbp+0]
	#DEBUG_VALUE: dz <- $xmm2
	#DEBUG_VALUE: dy <- $xmm0
	#DEBUG_VALUE: dx <- $xmm1
	#DEBUG_VALUE: propagateMagneticField:perBDt2Grid <- [DW_OP_constu 160, DW_OP_minus] [$rbp+0]
	#DEBUG_VALUE: perBDt2Grid <- [DW_OP_constu 160, DW_OP_minus] [$rbp+0]
	#DEBUG_VALUE: propagateMagneticField:EGrid <- [DW_OP_constu 96, DW_OP_minus] [$rbp+0]
	#DEBUG_VALUE: EGrid <- [DW_OP_constu 96, DW_OP_minus] [$rbp+0]
	#DEBUG_VALUE: propagateMagneticField:EDt2Grid <- [DW_OP_constu 144, DW_OP_minus] [$rbp+0]
	#DEBUG_VALUE: EDt2Grid <- [DW_OP_constu 144, DW_OP_minus] [$rbp+0]
	#DEBUG_VALUE: propagateMagneticField:k <- [DW_OP_plus_uconst 16] [$rbp+0]
	#DEBUG_VALUE: k <- [DW_OP_plus_uconst 16] [$rbp+0]
	#DEBUG_VALUE: propagateMagneticField:dt <- [DW_OP_plus_uconst 24] [$rbp+0]
	#DEBUG_VALUE: dt <- [DW_OP_plus_uconst 24] [$rbp+0]
	#DEBUG_VALUE: propagateMagneticField:RKCase <- [DW_OP_plus_uconst 32] [$rbp+0]
	#DEBUG_VALUE: RKCase <- [DW_OP_plus_uconst 32] [$rbp+0]
	#DEBUG_VALUE: propagateMagneticField:doX <- [DW_OP_plus_uconst 40] [$rbp+0]
	#DEBUG_VALUE: doX <- [DW_OP_plus_uconst 40] [$rbp+0]
	#DEBUG_VALUE: propagateMagneticField:doY <- [DW_OP_plus_uconst 48] [$rbp+0]
	#DEBUG_VALUE: doY <- [DW_OP_plus_uconst 48] [$rbp+0]
	#DEBUG_VALUE: propagateMagneticField:doZ <- [DW_OP_plus_uconst 56] [$rbp+0]
	#DEBUG_VALUE: doZ <- [DW_OP_plus_uconst 56] [$rbp+0]
	#DEBUG_VALUE: perBGrid <- $rdi
	#DEBUG_VALUE: propagateMagneticField:perBGrid <- $rdi
	.loc	1 0 1 is_stmt 0         # fieldsolver/ldz_magnetic_field.cpp:0:1
	xorl	%esi, %esi
	jmp	.LBB0_8
.Ltmp10:
.LBB0_1:                                # %L.B1179
	#DEBUG_VALUE: propagateMagneticField:j <- [DW_OP_constu 56, DW_OP_minus] [$rbp+0]
	#DEBUG_VALUE: j <- [DW_OP_constu 56, DW_OP_minus] [$rbp+0]
	#DEBUG_VALUE: propagateMagneticField:i <- [DW_OP_constu 48, DW_OP_minus] [$rbp+0]
	#DEBUG_VALUE: i <- [DW_OP_constu 48, DW_OP_minus] [$rbp+0]
	#DEBUG_VALUE: dz <- $xmm2
	#DEBUG_VALUE: dy <- $xmm0
	#DEBUG_VALUE: dx <- $xmm1
	#DEBUG_VALUE: propagateMagneticField:perBDt2Grid <- [DW_OP_constu 160, DW_OP_minus] [$rbp+0]
	#DEBUG_VALUE: perBDt2Grid <- [DW_OP_constu 160, DW_OP_minus] [$rbp+0]
	#DEBUG_VALUE: propagateMagneticField:EGrid <- [DW_OP_constu 96, DW_OP_minus] [$rbp+0]
	#DEBUG_VALUE: EGrid <- [DW_OP_constu 96, DW_OP_minus] [$rbp+0]
	#DEBUG_VALUE: propagateMagneticField:EDt2Grid <- [DW_OP_constu 144, DW_OP_minus] [$rbp+0]
	#DEBUG_VALUE: EDt2Grid <- [DW_OP_constu 144, DW_OP_minus] [$rbp+0]
	#DEBUG_VALUE: propagateMagneticField:k <- [DW_OP_plus_uconst 16] [$rbp+0]
	#DEBUG_VALUE: k <- [DW_OP_plus_uconst 16] [$rbp+0]
	#DEBUG_VALUE: propagateMagneticField:dt <- [DW_OP_plus_uconst 24] [$rbp+0]
	#DEBUG_VALUE: dt <- [DW_OP_plus_uconst 24] [$rbp+0]
	#DEBUG_VALUE: propagateMagneticField:RKCase <- [DW_OP_plus_uconst 32] [$rbp+0]
	#DEBUG_VALUE: RKCase <- [DW_OP_plus_uconst 32] [$rbp+0]
	#DEBUG_VALUE: propagateMagneticField:doX <- [DW_OP_plus_uconst 40] [$rbp+0]
	#DEBUG_VALUE: doX <- [DW_OP_plus_uconst 40] [$rbp+0]
	#DEBUG_VALUE: propagateMagneticField:doY <- [DW_OP_plus_uconst 48] [$rbp+0]
	#DEBUG_VALUE: doY <- [DW_OP_plus_uconst 48] [$rbp+0]
	#DEBUG_VALUE: propagateMagneticField:doZ <- [DW_OP_plus_uconst 56] [$rbp+0]
	#DEBUG_VALUE: doZ <- [DW_OP_plus_uconst 56] [$rbp+0]
	#DEBUG_VALUE: perBGrid <- $rdi
	#DEBUG_VALUE: propagateMagneticField:perBGrid <- $rdi
	.loc	1 779 1 is_stmt 1       # fieldsolver/ldz_magnetic_field.cpp:779:1
	movslq	%r10d, %rax
	movl	92(%rdi,%rax,4), %ecx
	cmpl	$-2, %ecx
	jne	.LBB0_3
.Ltmp11:
# %bb.2:
	#DEBUG_VALUE: propagateMagneticField:j <- [DW_OP_constu 56, DW_OP_minus] [$rbp+0]
	#DEBUG_VALUE: j <- [DW_OP_constu 56, DW_OP_minus] [$rbp+0]
	#DEBUG_VALUE: propagateMagneticField:i <- [DW_OP_constu 48, DW_OP_minus] [$rbp+0]
	#DEBUG_VALUE: i <- [DW_OP_constu 48, DW_OP_minus] [$rbp+0]
	#DEBUG_VALUE: dz <- $xmm2
	#DEBUG_VALUE: dy <- $xmm0
	#DEBUG_VALUE: dx <- $xmm1
	#DEBUG_VALUE: propagateMagneticField:perBDt2Grid <- [DW_OP_constu 160, DW_OP_minus] [$rbp+0]
	#DEBUG_VALUE: perBDt2Grid <- [DW_OP_constu 160, DW_OP_minus] [$rbp+0]
	#DEBUG_VALUE: propagateMagneticField:EGrid <- [DW_OP_constu 96, DW_OP_minus] [$rbp+0]
	#DEBUG_VALUE: EGrid <- [DW_OP_constu 96, DW_OP_minus] [$rbp+0]
	#DEBUG_VALUE: propagateMagneticField:EDt2Grid <- [DW_OP_constu 144, DW_OP_minus] [$rbp+0]
	#DEBUG_VALUE: EDt2Grid <- [DW_OP_constu 144, DW_OP_minus] [$rbp+0]
	#DEBUG_VALUE: propagateMagneticField:k <- [DW_OP_plus_uconst 16] [$rbp+0]
	#DEBUG_VALUE: k <- [DW_OP_plus_uconst 16] [$rbp+0]
	#DEBUG_VALUE: propagateMagneticField:dt <- [DW_OP_plus_uconst 24] [$rbp+0]
	#DEBUG_VALUE: dt <- [DW_OP_plus_uconst 24] [$rbp+0]
	#DEBUG_VALUE: propagateMagneticField:RKCase <- [DW_OP_plus_uconst 32] [$rbp+0]
	#DEBUG_VALUE: RKCase <- [DW_OP_plus_uconst 32] [$rbp+0]
	#DEBUG_VALUE: propagateMagneticField:doX <- [DW_OP_plus_uconst 40] [$rbp+0]
	#DEBUG_VALUE: doX <- [DW_OP_plus_uconst 40] [$rbp+0]
	#DEBUG_VALUE: propagateMagneticField:doY <- [DW_OP_plus_uconst 48] [$rbp+0]
	#DEBUG_VALUE: doY <- [DW_OP_plus_uconst 48] [$rbp+0]
	#DEBUG_VALUE: propagateMagneticField:doZ <- [DW_OP_plus_uconst 56] [$rbp+0]
	#DEBUG_VALUE: doZ <- [DW_OP_plus_uconst 56] [$rbp+0]
	#DEBUG_VALUE: perBGrid <- $rdi
	#DEBUG_VALUE: propagateMagneticField:perBGrid <- $rdi
	.loc	1 0 1 is_stmt 0         # fieldsolver/ldz_magnetic_field.cpp:0:1
	xorl	%r13d, %r13d
	movq	-96(%rbp), %r9          # 8-byte Reload
	movq	%rdx, %r14
	movb	40(%rbp), %dl
	jmp	.LBB0_11
.Ltmp12:
.LBB0_7:                                # %L.B1182
	#DEBUG_VALUE: propagateMagneticField:j <- [DW_OP_constu 56, DW_OP_minus] [$rbp+0]
	#DEBUG_VALUE: j <- [DW_OP_constu 56, DW_OP_minus] [$rbp+0]
	#DEBUG_VALUE: propagateMagneticField:i <- [DW_OP_constu 48, DW_OP_minus] [$rbp+0]
	#DEBUG_VALUE: i <- [DW_OP_constu 48, DW_OP_minus] [$rbp+0]
	#DEBUG_VALUE: dz <- $xmm2
	#DEBUG_VALUE: dy <- $xmm0
	#DEBUG_VALUE: dx <- $xmm1
	#DEBUG_VALUE: propagateMagneticField:perBDt2Grid <- [DW_OP_constu 160, DW_OP_minus] [$rbp+0]
	#DEBUG_VALUE: perBDt2Grid <- [DW_OP_constu 160, DW_OP_minus] [$rbp+0]
	#DEBUG_VALUE: propagateMagneticField:EGrid <- [DW_OP_constu 96, DW_OP_minus] [$rbp+0]
	#DEBUG_VALUE: EGrid <- [DW_OP_constu 96, DW_OP_minus] [$rbp+0]
	#DEBUG_VALUE: propagateMagneticField:EDt2Grid <- [DW_OP_constu 144, DW_OP_minus] [$rbp+0]
	#DEBUG_VALUE: EDt2Grid <- [DW_OP_constu 144, DW_OP_minus] [$rbp+0]
	#DEBUG_VALUE: propagateMagneticField:k <- [DW_OP_plus_uconst 16] [$rbp+0]
	#DEBUG_VALUE: k <- [DW_OP_plus_uconst 16] [$rbp+0]
	#DEBUG_VALUE: propagateMagneticField:dt <- [DW_OP_plus_uconst 24] [$rbp+0]
	#DEBUG_VALUE: dt <- [DW_OP_plus_uconst 24] [$rbp+0]
	#DEBUG_VALUE: propagateMagneticField:RKCase <- [DW_OP_plus_uconst 32] [$rbp+0]
	#DEBUG_VALUE: RKCase <- [DW_OP_plus_uconst 32] [$rbp+0]
	#DEBUG_VALUE: propagateMagneticField:doX <- [DW_OP_plus_uconst 40] [$rbp+0]
	#DEBUG_VALUE: doX <- [DW_OP_plus_uconst 40] [$rbp+0]
	#DEBUG_VALUE: propagateMagneticField:doY <- [DW_OP_plus_uconst 48] [$rbp+0]
	#DEBUG_VALUE: doY <- [DW_OP_plus_uconst 48] [$rbp+0]
	#DEBUG_VALUE: propagateMagneticField:doZ <- [DW_OP_plus_uconst 56] [$rbp+0]
	#DEBUG_VALUE: doZ <- [DW_OP_plus_uconst 56] [$rbp+0]
	#DEBUG_VALUE: perBGrid <- $rdi
	#DEBUG_VALUE: propagateMagneticField:perBGrid <- $rdi
	.loc	1 793 1 is_stmt 1       # fieldsolver/ldz_magnetic_field.cpp:793:1
	addl	$2, %ebx
	imull	280(%rdi), %ebx
	imull	276(%rdi), %ebx
	movslq	%ebx, %rsi
.Ltmp13:
.LBB0_8:                                # %L..inline.69183
	#DEBUG_VALUE: propagateMagneticField:j <- [DW_OP_constu 56, DW_OP_minus] [$rbp+0]
	#DEBUG_VALUE: j <- [DW_OP_constu 56, DW_OP_minus] [$rbp+0]
	#DEBUG_VALUE: propagateMagneticField:i <- [DW_OP_constu 48, DW_OP_minus] [$rbp+0]
	#DEBUG_VALUE: i <- [DW_OP_constu 48, DW_OP_minus] [$rbp+0]
	#DEBUG_VALUE: dz <- $xmm2
	#DEBUG_VALUE: dy <- $xmm0
	#DEBUG_VALUE: dx <- $xmm1
	#DEBUG_VALUE: propagateMagneticField:perBDt2Grid <- [DW_OP_constu 160, DW_OP_minus] [$rbp+0]
	#DEBUG_VALUE: perBDt2Grid <- [DW_OP_constu 160, DW_OP_minus] [$rbp+0]
	#DEBUG_VALUE: propagateMagneticField:EGrid <- [DW_OP_constu 96, DW_OP_minus] [$rbp+0]
	#DEBUG_VALUE: EGrid <- [DW_OP_constu 96, DW_OP_minus] [$rbp+0]
	#DEBUG_VALUE: propagateMagneticField:EDt2Grid <- [DW_OP_constu 144, DW_OP_minus] [$rbp+0]
	#DEBUG_VALUE: EDt2Grid <- [DW_OP_constu 144, DW_OP_minus] [$rbp+0]
	#DEBUG_VALUE: propagateMagneticField:k <- [DW_OP_plus_uconst 16] [$rbp+0]
	#DEBUG_VALUE: k <- [DW_OP_plus_uconst 16] [$rbp+0]
	#DEBUG_VALUE: propagateMagneticField:dt <- [DW_OP_plus_uconst 24] [$rbp+0]
	#DEBUG_VALUE: dt <- [DW_OP_plus_uconst 24] [$rbp+0]
	#DEBUG_VALUE: propagateMagneticField:RKCase <- [DW_OP_plus_uconst 32] [$rbp+0]
	#DEBUG_VALUE: RKCase <- [DW_OP_plus_uconst 32] [$rbp+0]
	#DEBUG_VALUE: propagateMagneticField:doX <- [DW_OP_plus_uconst 40] [$rbp+0]
	#DEBUG_VALUE: doX <- [DW_OP_plus_uconst 40] [$rbp+0]
	#DEBUG_VALUE: propagateMagneticField:doY <- [DW_OP_plus_uconst 48] [$rbp+0]
	#DEBUG_VALUE: doY <- [DW_OP_plus_uconst 48] [$rbp+0]
	#DEBUG_VALUE: propagateMagneticField:doZ <- [DW_OP_plus_uconst 56] [$rbp+0]
	#DEBUG_VALUE: doZ <- [DW_OP_plus_uconst 56] [$rbp+0]
	#DEBUG_VALUE: perBGrid <- $rdi
	#DEBUG_VALUE: propagateMagneticField:perBGrid <- $rdi
	.loc	1 0 1 is_stmt 0         # fieldsolver/ldz_magnetic_field.cpp:0:1
	movq	-96(%rbp), %r9          # 8-byte Reload
	movq	%rdx, %r14
	movb	40(%rbp), %dl
	.loc	1 793 1                 # fieldsolver/ldz_magnetic_field.cpp:793:1
	cmpl	$2, 256(%rdi)
	jl	.LBB0_10
.Ltmp14:
# %bb.9:                                # %L.B1183
	#DEBUG_VALUE: propagateMagneticField:j <- [DW_OP_constu 56, DW_OP_minus] [$rbp+0]
	#DEBUG_VALUE: j <- [DW_OP_constu 56, DW_OP_minus] [$rbp+0]
	#DEBUG_VALUE: propagateMagneticField:i <- [DW_OP_constu 48, DW_OP_minus] [$rbp+0]
	#DEBUG_VALUE: i <- [DW_OP_constu 48, DW_OP_minus] [$rbp+0]
	#DEBUG_VALUE: dz <- $xmm2
	#DEBUG_VALUE: dy <- $xmm0
	#DEBUG_VALUE: dx <- $xmm1
	#DEBUG_VALUE: propagateMagneticField:perBDt2Grid <- [DW_OP_constu 160, DW_OP_minus] [$rbp+0]
	#DEBUG_VALUE: perBDt2Grid <- [DW_OP_constu 160, DW_OP_minus] [$rbp+0]
	#DEBUG_VALUE: propagateMagneticField:EGrid <- [DW_OP_constu 96, DW_OP_minus] [$rbp+0]
	#DEBUG_VALUE: EGrid <- [DW_OP_constu 96, DW_OP_minus] [$rbp+0]
	#DEBUG_VALUE: propagateMagneticField:EDt2Grid <- [DW_OP_constu 144, DW_OP_minus] [$rbp+0]
	#DEBUG_VALUE: EDt2Grid <- [DW_OP_constu 144, DW_OP_minus] [$rbp+0]
	#DEBUG_VALUE: propagateMagneticField:k <- [DW_OP_plus_uconst 16] [$rbp+0]
	#DEBUG_VALUE: k <- [DW_OP_plus_uconst 16] [$rbp+0]
	#DEBUG_VALUE: propagateMagneticField:dt <- [DW_OP_plus_uconst 24] [$rbp+0]
	#DEBUG_VALUE: dt <- [DW_OP_plus_uconst 24] [$rbp+0]
	#DEBUG_VALUE: propagateMagneticField:RKCase <- [DW_OP_plus_uconst 32] [$rbp+0]
	#DEBUG_VALUE: RKCase <- [DW_OP_plus_uconst 32] [$rbp+0]
	#DEBUG_VALUE: propagateMagneticField:doX <- [DW_OP_plus_uconst 40] [$rbp+0]
	#DEBUG_VALUE: doX <- [DW_OP_plus_uconst 40] [$rbp+0]
	#DEBUG_VALUE: propagateMagneticField:doY <- [DW_OP_plus_uconst 48] [$rbp+0]
	#DEBUG_VALUE: doY <- [DW_OP_plus_uconst 48] [$rbp+0]
	#DEBUG_VALUE: propagateMagneticField:doZ <- [DW_OP_plus_uconst 56] [$rbp+0]
	#DEBUG_VALUE: doZ <- [DW_OP_plus_uconst 56] [$rbp+0]
	#DEBUG_VALUE: perBGrid <- $rdi
	#DEBUG_VALUE: propagateMagneticField:perBGrid <- $rdi
	addl	$2, %eax
	imull	276(%rdi), %eax
	cltq
	addq	%rax, %rsi
.Ltmp15:
.LBB0_10:                               # %L..inline.69232
	#DEBUG_VALUE: propagateMagneticField:j <- [DW_OP_constu 56, DW_OP_minus] [$rbp+0]
	#DEBUG_VALUE: j <- [DW_OP_constu 56, DW_OP_minus] [$rbp+0]
	#DEBUG_VALUE: propagateMagneticField:i <- [DW_OP_constu 48, DW_OP_minus] [$rbp+0]
	#DEBUG_VALUE: i <- [DW_OP_constu 48, DW_OP_minus] [$rbp+0]
	#DEBUG_VALUE: dz <- $xmm2
	#DEBUG_VALUE: dy <- $xmm0
	#DEBUG_VALUE: dx <- $xmm1
	#DEBUG_VALUE: propagateMagneticField:perBDt2Grid <- [DW_OP_constu 160, DW_OP_minus] [$rbp+0]
	#DEBUG_VALUE: perBDt2Grid <- [DW_OP_constu 160, DW_OP_minus] [$rbp+0]
	#DEBUG_VALUE: propagateMagneticField:EGrid <- [DW_OP_constu 96, DW_OP_minus] [$rbp+0]
	#DEBUG_VALUE: EGrid <- [DW_OP_constu 96, DW_OP_minus] [$rbp+0]
	#DEBUG_VALUE: propagateMagneticField:EDt2Grid <- [DW_OP_constu 144, DW_OP_minus] [$rbp+0]
	#DEBUG_VALUE: EDt2Grid <- [DW_OP_constu 144, DW_OP_minus] [$rbp+0]
	#DEBUG_VALUE: propagateMagneticField:k <- [DW_OP_plus_uconst 16] [$rbp+0]
	#DEBUG_VALUE: k <- [DW_OP_plus_uconst 16] [$rbp+0]
	#DEBUG_VALUE: propagateMagneticField:dt <- [DW_OP_plus_uconst 24] [$rbp+0]
	#DEBUG_VALUE: dt <- [DW_OP_plus_uconst 24] [$rbp+0]
	#DEBUG_VALUE: propagateMagneticField:RKCase <- [DW_OP_plus_uconst 32] [$rbp+0]
	#DEBUG_VALUE: RKCase <- [DW_OP_plus_uconst 32] [$rbp+0]
	#DEBUG_VALUE: propagateMagneticField:doX <- [DW_OP_plus_uconst 40] [$rbp+0]
	#DEBUG_VALUE: doX <- [DW_OP_plus_uconst 40] [$rbp+0]
	#DEBUG_VALUE: propagateMagneticField:doY <- [DW_OP_plus_uconst 48] [$rbp+0]
	#DEBUG_VALUE: doY <- [DW_OP_plus_uconst 48] [$rbp+0]
	#DEBUG_VALUE: propagateMagneticField:doZ <- [DW_OP_plus_uconst 56] [$rbp+0]
	#DEBUG_VALUE: doZ <- [DW_OP_plus_uconst 56] [$rbp+0]
	#DEBUG_VALUE: perBGrid <- $rdi
	#DEBUG_VALUE: propagateMagneticField:perBGrid <- $rdi
	movslq	%r15d, %rax
	addq	$2, %rax
	xorl	%ecx, %ecx
	cmpl	$2, 252(%rdi)
	cmovgeq	%rax, %rcx
	addq	%rsi, %rcx
	.loc	1 795 1 is_stmt 1       # fieldsolver/ldz_magnetic_field.cpp:795:1
	leaq	(%rcx,%rcx,2), %r13
	shlq	$3, %r13
	addq	744(%rdi), %r13
.Ltmp16:
.LBB0_11:                               # %L..inline.69278
	#DEBUG_VALUE: propagateMagneticField:j <- [DW_OP_constu 56, DW_OP_minus] [$rbp+0]
	#DEBUG_VALUE: j <- [DW_OP_constu 56, DW_OP_minus] [$rbp+0]
	#DEBUG_VALUE: propagateMagneticField:i <- [DW_OP_constu 48, DW_OP_minus] [$rbp+0]
	#DEBUG_VALUE: i <- [DW_OP_constu 48, DW_OP_minus] [$rbp+0]
	#DEBUG_VALUE: dz <- $xmm2
	#DEBUG_VALUE: dy <- $xmm0
	#DEBUG_VALUE: dx <- $xmm1
	#DEBUG_VALUE: propagateMagneticField:perBDt2Grid <- [DW_OP_constu 160, DW_OP_minus] [$rbp+0]
	#DEBUG_VALUE: perBDt2Grid <- [DW_OP_constu 160, DW_OP_minus] [$rbp+0]
	#DEBUG_VALUE: propagateMagneticField:EGrid <- [DW_OP_constu 96, DW_OP_minus] [$rbp+0]
	#DEBUG_VALUE: EGrid <- [DW_OP_constu 96, DW_OP_minus] [$rbp+0]
	#DEBUG_VALUE: propagateMagneticField:EDt2Grid <- [DW_OP_constu 144, DW_OP_minus] [$rbp+0]
	#DEBUG_VALUE: EDt2Grid <- [DW_OP_constu 144, DW_OP_minus] [$rbp+0]
	#DEBUG_VALUE: propagateMagneticField:k <- [DW_OP_plus_uconst 16] [$rbp+0]
	#DEBUG_VALUE: k <- [DW_OP_plus_uconst 16] [$rbp+0]
	#DEBUG_VALUE: propagateMagneticField:dt <- [DW_OP_plus_uconst 24] [$rbp+0]
	#DEBUG_VALUE: dt <- [DW_OP_plus_uconst 24] [$rbp+0]
	#DEBUG_VALUE: propagateMagneticField:RKCase <- [DW_OP_plus_uconst 32] [$rbp+0]
	#DEBUG_VALUE: RKCase <- [DW_OP_plus_uconst 32] [$rbp+0]
	#DEBUG_VALUE: propagateMagneticField:doX <- [DW_OP_plus_uconst 40] [$rbp+0]
	#DEBUG_VALUE: doX <- [DW_OP_plus_uconst 40] [$rbp+0]
	#DEBUG_VALUE: propagateMagneticField:doY <- [DW_OP_plus_uconst 48] [$rbp+0]
	#DEBUG_VALUE: doY <- [DW_OP_plus_uconst 48] [$rbp+0]
	#DEBUG_VALUE: propagateMagneticField:doZ <- [DW_OP_plus_uconst 56] [$rbp+0]
	#DEBUG_VALUE: doZ <- [DW_OP_plus_uconst 56] [$rbp+0]
	#DEBUG_VALUE: perBGrid <- $rdi
	#DEBUG_VALUE: propagateMagneticField:perBGrid <- $rdi
	.loc	1 0 1 is_stmt 0         # fieldsolver/ldz_magnetic_field.cpp:0:1
	movq	32(%rbp), %r10
	movq	24(%rbp), %r12
	movl	16(%rbp), %eax
                                        # kill: def $eax killed $eax killed $rax
	sarl	$31, %eax
.Ltmp17:
	#DEBUG_VALUE: perBGrid0 <- $r13
	movl	%eax, -84(%rbp)         # 4-byte Spill
.Ltmp18:
	.loc	1 73 1 is_stmt 1        # fieldsolver/ldz_magnetic_field.cpp:73:1
	testb	%dl, %dl
	movq	%r13, -136(%rbp)        # 8-byte Spill
.Ltmp19:
	#DEBUG_VALUE: perBGrid0 <- [DW_OP_constu 136, DW_OP_minus] [$rbp+0]
	je	.LBB0_131
.Ltmp20:
# %bb.12:                               # %L.B1184
	#DEBUG_VALUE: perBGrid0 <- [DW_OP_constu 136, DW_OP_minus] [$rbp+0]
	#DEBUG_VALUE: propagateMagneticField:j <- [DW_OP_constu 56, DW_OP_minus] [$rbp+0]
	#DEBUG_VALUE: j <- [DW_OP_constu 56, DW_OP_minus] [$rbp+0]
	#DEBUG_VALUE: propagateMagneticField:i <- [DW_OP_constu 48, DW_OP_minus] [$rbp+0]
	#DEBUG_VALUE: i <- [DW_OP_constu 48, DW_OP_minus] [$rbp+0]
	#DEBUG_VALUE: dz <- $xmm2
	#DEBUG_VALUE: dy <- $xmm0
	#DEBUG_VALUE: dx <- $xmm1
	#DEBUG_VALUE: propagateMagneticField:perBDt2Grid <- [DW_OP_constu 160, DW_OP_minus] [$rbp+0]
	#DEBUG_VALUE: perBDt2Grid <- [DW_OP_constu 160, DW_OP_minus] [$rbp+0]
	#DEBUG_VALUE: propagateMagneticField:EGrid <- [DW_OP_constu 96, DW_OP_minus] [$rbp+0]
	#DEBUG_VALUE: EGrid <- [DW_OP_constu 96, DW_OP_minus] [$rbp+0]
	#DEBUG_VALUE: propagateMagneticField:EDt2Grid <- [DW_OP_constu 144, DW_OP_minus] [$rbp+0]
	#DEBUG_VALUE: EDt2Grid <- [DW_OP_constu 144, DW_OP_minus] [$rbp+0]
	#DEBUG_VALUE: propagateMagneticField:k <- [DW_OP_plus_uconst 16] [$rbp+0]
	#DEBUG_VALUE: k <- [DW_OP_plus_uconst 16] [$rbp+0]
	#DEBUG_VALUE: propagateMagneticField:dt <- [DW_OP_plus_uconst 24] [$rbp+0]
	#DEBUG_VALUE: dt <- [DW_OP_plus_uconst 24] [$rbp+0]
	#DEBUG_VALUE: propagateMagneticField:RKCase <- [DW_OP_plus_uconst 32] [$rbp+0]
	#DEBUG_VALUE: RKCase <- [DW_OP_plus_uconst 32] [$rbp+0]
	#DEBUG_VALUE: propagateMagneticField:doX <- [DW_OP_plus_uconst 40] [$rbp+0]
	#DEBUG_VALUE: doX <- [DW_OP_plus_uconst 40] [$rbp+0]
	#DEBUG_VALUE: propagateMagneticField:doY <- [DW_OP_plus_uconst 48] [$rbp+0]
	#DEBUG_VALUE: doY <- [DW_OP_plus_uconst 48] [$rbp+0]
	#DEBUG_VALUE: propagateMagneticField:doZ <- [DW_OP_plus_uconst 56] [$rbp+0]
	#DEBUG_VALUE: doZ <- [DW_OP_plus_uconst 56] [$rbp+0]
	#DEBUG_VALUE: perBGrid <- $rdi
	#DEBUG_VALUE: propagateMagneticField:perBGrid <- $rdi
	.loc	1 74 1                  # fieldsolver/ldz_magnetic_field.cpp:74:1
	movl	(%r10), %eax
	testl	%eax, %eax
	je	.LBB0_18
.Ltmp21:
# %bb.13:                               # %L.B1184
	#DEBUG_VALUE: perBGrid0 <- [DW_OP_constu 136, DW_OP_minus] [$rbp+0]
	#DEBUG_VALUE: propagateMagneticField:j <- [DW_OP_constu 56, DW_OP_minus] [$rbp+0]
	#DEBUG_VALUE: j <- [DW_OP_constu 56, DW_OP_minus] [$rbp+0]
	#DEBUG_VALUE: propagateMagneticField:i <- [DW_OP_constu 48, DW_OP_minus] [$rbp+0]
	#DEBUG_VALUE: i <- [DW_OP_constu 48, DW_OP_minus] [$rbp+0]
	#DEBUG_VALUE: dz <- $xmm2
	#DEBUG_VALUE: dy <- $xmm0
	#DEBUG_VALUE: dx <- $xmm1
	#DEBUG_VALUE: propagateMagneticField:perBDt2Grid <- [DW_OP_constu 160, DW_OP_minus] [$rbp+0]
	#DEBUG_VALUE: perBDt2Grid <- [DW_OP_constu 160, DW_OP_minus] [$rbp+0]
	#DEBUG_VALUE: propagateMagneticField:EGrid <- [DW_OP_constu 96, DW_OP_minus] [$rbp+0]
	#DEBUG_VALUE: EGrid <- [DW_OP_constu 96, DW_OP_minus] [$rbp+0]
	#DEBUG_VALUE: propagateMagneticField:EDt2Grid <- [DW_OP_constu 144, DW_OP_minus] [$rbp+0]
	#DEBUG_VALUE: EDt2Grid <- [DW_OP_constu 144, DW_OP_minus] [$rbp+0]
	#DEBUG_VALUE: propagateMagneticField:k <- [DW_OP_plus_uconst 16] [$rbp+0]
	#DEBUG_VALUE: k <- [DW_OP_plus_uconst 16] [$rbp+0]
	#DEBUG_VALUE: propagateMagneticField:dt <- [DW_OP_plus_uconst 24] [$rbp+0]
	#DEBUG_VALUE: dt <- [DW_OP_plus_uconst 24] [$rbp+0]
	#DEBUG_VALUE: propagateMagneticField:RKCase <- [DW_OP_plus_uconst 32] [$rbp+0]
	#DEBUG_VALUE: RKCase <- [DW_OP_plus_uconst 32] [$rbp+0]
	#DEBUG_VALUE: propagateMagneticField:doX <- [DW_OP_plus_uconst 40] [$rbp+0]
	#DEBUG_VALUE: doX <- [DW_OP_plus_uconst 40] [$rbp+0]
	#DEBUG_VALUE: propagateMagneticField:doY <- [DW_OP_plus_uconst 48] [$rbp+0]
	#DEBUG_VALUE: doY <- [DW_OP_plus_uconst 48] [$rbp+0]
	#DEBUG_VALUE: propagateMagneticField:doZ <- [DW_OP_plus_uconst 56] [$rbp+0]
	#DEBUG_VALUE: doZ <- [DW_OP_plus_uconst 56] [$rbp+0]
	#DEBUG_VALUE: perBGrid <- $rdi
	#DEBUG_VALUE: propagateMagneticField:perBGrid <- $rdi
	cmpl	$1, %eax
	je	.LBB0_53
.Ltmp22:
# %bb.14:                               # %L.B1184
	#DEBUG_VALUE: perBGrid0 <- [DW_OP_constu 136, DW_OP_minus] [$rbp+0]
	#DEBUG_VALUE: propagateMagneticField:j <- [DW_OP_constu 56, DW_OP_minus] [$rbp+0]
	#DEBUG_VALUE: j <- [DW_OP_constu 56, DW_OP_minus] [$rbp+0]
	#DEBUG_VALUE: propagateMagneticField:i <- [DW_OP_constu 48, DW_OP_minus] [$rbp+0]
	#DEBUG_VALUE: i <- [DW_OP_constu 48, DW_OP_minus] [$rbp+0]
	#DEBUG_VALUE: dz <- $xmm2
	#DEBUG_VALUE: dy <- $xmm0
	#DEBUG_VALUE: dx <- $xmm1
	#DEBUG_VALUE: propagateMagneticField:perBDt2Grid <- [DW_OP_constu 160, DW_OP_minus] [$rbp+0]
	#DEBUG_VALUE: perBDt2Grid <- [DW_OP_constu 160, DW_OP_minus] [$rbp+0]
	#DEBUG_VALUE: propagateMagneticField:EGrid <- [DW_OP_constu 96, DW_OP_minus] [$rbp+0]
	#DEBUG_VALUE: EGrid <- [DW_OP_constu 96, DW_OP_minus] [$rbp+0]
	#DEBUG_VALUE: propagateMagneticField:EDt2Grid <- [DW_OP_constu 144, DW_OP_minus] [$rbp+0]
	#DEBUG_VALUE: EDt2Grid <- [DW_OP_constu 144, DW_OP_minus] [$rbp+0]
	#DEBUG_VALUE: propagateMagneticField:k <- [DW_OP_plus_uconst 16] [$rbp+0]
	#DEBUG_VALUE: k <- [DW_OP_plus_uconst 16] [$rbp+0]
	#DEBUG_VALUE: propagateMagneticField:dt <- [DW_OP_plus_uconst 24] [$rbp+0]
	#DEBUG_VALUE: dt <- [DW_OP_plus_uconst 24] [$rbp+0]
	#DEBUG_VALUE: propagateMagneticField:RKCase <- [DW_OP_plus_uconst 32] [$rbp+0]
	#DEBUG_VALUE: RKCase <- [DW_OP_plus_uconst 32] [$rbp+0]
	#DEBUG_VALUE: propagateMagneticField:doX <- [DW_OP_plus_uconst 40] [$rbp+0]
	#DEBUG_VALUE: doX <- [DW_OP_plus_uconst 40] [$rbp+0]
	#DEBUG_VALUE: propagateMagneticField:doY <- [DW_OP_plus_uconst 48] [$rbp+0]
	#DEBUG_VALUE: doY <- [DW_OP_plus_uconst 48] [$rbp+0]
	#DEBUG_VALUE: propagateMagneticField:doZ <- [DW_OP_plus_uconst 56] [$rbp+0]
	#DEBUG_VALUE: doZ <- [DW_OP_plus_uconst 56] [$rbp+0]
	#DEBUG_VALUE: perBGrid <- $rdi
	#DEBUG_VALUE: propagateMagneticField:perBGrid <- $rdi
	cmpl	$2, %eax
	jne	.LBB0_368
.Ltmp23:
# %bb.15:                               # %L.B0003
	#DEBUG_VALUE: perBGrid0 <- [DW_OP_constu 136, DW_OP_minus] [$rbp+0]
	#DEBUG_VALUE: propagateMagneticField:j <- [DW_OP_constu 56, DW_OP_minus] [$rbp+0]
	#DEBUG_VALUE: j <- [DW_OP_constu 56, DW_OP_minus] [$rbp+0]
	#DEBUG_VALUE: propagateMagneticField:i <- [DW_OP_constu 48, DW_OP_minus] [$rbp+0]
	#DEBUG_VALUE: i <- [DW_OP_constu 48, DW_OP_minus] [$rbp+0]
	#DEBUG_VALUE: dz <- $xmm2
	#DEBUG_VALUE: dy <- $xmm0
	#DEBUG_VALUE: dx <- $xmm1
	#DEBUG_VALUE: propagateMagneticField:perBDt2Grid <- [DW_OP_constu 160, DW_OP_minus] [$rbp+0]
	#DEBUG_VALUE: perBDt2Grid <- [DW_OP_constu 160, DW_OP_minus] [$rbp+0]
	#DEBUG_VALUE: propagateMagneticField:EGrid <- [DW_OP_constu 96, DW_OP_minus] [$rbp+0]
	#DEBUG_VALUE: EGrid <- [DW_OP_constu 96, DW_OP_minus] [$rbp+0]
	#DEBUG_VALUE: propagateMagneticField:EDt2Grid <- [DW_OP_constu 144, DW_OP_minus] [$rbp+0]
	#DEBUG_VALUE: EDt2Grid <- [DW_OP_constu 144, DW_OP_minus] [$rbp+0]
	#DEBUG_VALUE: propagateMagneticField:k <- [DW_OP_plus_uconst 16] [$rbp+0]
	#DEBUG_VALUE: k <- [DW_OP_plus_uconst 16] [$rbp+0]
	#DEBUG_VALUE: propagateMagneticField:dt <- [DW_OP_plus_uconst 24] [$rbp+0]
	#DEBUG_VALUE: dt <- [DW_OP_plus_uconst 24] [$rbp+0]
	#DEBUG_VALUE: propagateMagneticField:RKCase <- [DW_OP_plus_uconst 32] [$rbp+0]
	#DEBUG_VALUE: RKCase <- [DW_OP_plus_uconst 32] [$rbp+0]
	#DEBUG_VALUE: propagateMagneticField:doX <- [DW_OP_plus_uconst 40] [$rbp+0]
	#DEBUG_VALUE: doX <- [DW_OP_plus_uconst 40] [$rbp+0]
	#DEBUG_VALUE: propagateMagneticField:doY <- [DW_OP_plus_uconst 48] [$rbp+0]
	#DEBUG_VALUE: doY <- [DW_OP_plus_uconst 48] [$rbp+0]
	#DEBUG_VALUE: propagateMagneticField:doZ <- [DW_OP_plus_uconst 56] [$rbp+0]
	#DEBUG_VALUE: doZ <- [DW_OP_plus_uconst 56] [$rbp+0]
	#DEBUG_VALUE: perBGrid <- $rdi
	#DEBUG_VALUE: propagateMagneticField:perBGrid <- $rdi
	.loc	1 0 1 is_stmt 0         # fieldsolver/ldz_magnetic_field.cpp:0:1
	movq	-144(%rbp), %rdx        # 8-byte Reload
	.loc	1 707 1 is_stmt 1       # fieldsolver/ldz_magnetic_field.cpp:707:1
	movl	264(%rdx), %eax
	.loc	1 715 1                 # fieldsolver/ldz_magnetic_field.cpp:715:1
	movl	268(%rdx), %esi
	movq	-48(%rbp), %r9          # 8-byte Reload
	movl	%eax, -112(%rbp)        # 4-byte Spill
	.loc	1 707 1                 # fieldsolver/ldz_magnetic_field.cpp:707:1
	cmpl	%r9d, %eax
	movl	$-1, %r8d
	movl	$-1, %eax
	cmovgl	-76(%rbp), %eax         # 4-byte Folded Reload
	movl	%eax, -128(%rbp)        # 4-byte Spill
	movq	-104(%rbp), %r15        # 8-byte Reload
                                        # kill: def $r15d killed $r15d killed $r15 def $r15
	cmovgl	-80(%rbp), %r15d        # 4-byte Folded Reload
	.loc	1 711 1                 # fieldsolver/ldz_magnetic_field.cpp:711:1
	leal	-3(%r15), %r14d
	movq	-56(%rbp), %rcx         # 8-byte Reload
	testl	%ecx, %ecx
	movl	%r14d, %eax
	cmovnsl	%r15d, %eax
	.loc	1 715 1                 # fieldsolver/ldz_magnetic_field.cpp:715:1
	leal	3(%rax), %r13d
	movl	%esi, -64(%rbp)         # 4-byte Spill
	cmpl	%ecx, %esi
	movl	$-1, %r10d
	cmovgl	-72(%rbp), %r10d        # 4-byte Folded Reload
	cmovgl	%eax, %r13d
	.loc	1 719 1                 # fieldsolver/ldz_magnetic_field.cpp:719:1
	leal	-1(%r13), %r12d
	movl	16(%rbp), %eax
	testl	%eax, %eax
	movl	%r12d, %esi
	cmovnsl	%r13d, %esi
	.loc	1 723 1                 # fieldsolver/ldz_magnetic_field.cpp:723:1
	movl	272(%rdx), %edi
.Ltmp24:
	xorl	%ebx, %ebx
	movl	%edi, -60(%rbp)         # 4-byte Spill
	cmpl	%eax, %edi
	setle	%bl
	cmovgl	-68(%rbp), %r8d         # 4-byte Folded Reload
	addl	%ebx, %esi
                                        # kill: def $eax killed $eax killed $rax
	.loc	1 0 0 is_stmt 0         # fieldsolver/ldz_magnetic_field.cpp:0:0
	movl	%ecx, %edi
	movl	%r9d, %r11d
	.loc	1 776 1 is_stmt 1       # fieldsolver/ldz_magnetic_field.cpp:776:1
	cmpl	$13, %esi
	jne	.LBB0_16
.Ltmp25:
.LBB0_101:                              # %L..inline.71386
	#DEBUG_VALUE: perBGrid0 <- [DW_OP_constu 136, DW_OP_minus] [$rbp+0]
	#DEBUG_VALUE: propagateMagneticField:j <- [DW_OP_constu 56, DW_OP_minus] [$rbp+0]
	#DEBUG_VALUE: j <- [DW_OP_constu 56, DW_OP_minus] [$rbp+0]
	#DEBUG_VALUE: propagateMagneticField:i <- [DW_OP_constu 48, DW_OP_minus] [$rbp+0]
	#DEBUG_VALUE: i <- [DW_OP_constu 48, DW_OP_minus] [$rbp+0]
	#DEBUG_VALUE: dz <- $xmm2
	#DEBUG_VALUE: dy <- $xmm0
	#DEBUG_VALUE: dx <- $xmm1
	#DEBUG_VALUE: propagateMagneticField:perBDt2Grid <- [DW_OP_constu 160, DW_OP_minus] [$rbp+0]
	#DEBUG_VALUE: perBDt2Grid <- [DW_OP_constu 160, DW_OP_minus] [$rbp+0]
	#DEBUG_VALUE: propagateMagneticField:EGrid <- [DW_OP_constu 96, DW_OP_minus] [$rbp+0]
	#DEBUG_VALUE: EGrid <- [DW_OP_constu 96, DW_OP_minus] [$rbp+0]
	#DEBUG_VALUE: propagateMagneticField:EDt2Grid <- [DW_OP_constu 144, DW_OP_minus] [$rbp+0]
	#DEBUG_VALUE: EDt2Grid <- [DW_OP_constu 144, DW_OP_minus] [$rbp+0]
	#DEBUG_VALUE: propagateMagneticField:k <- [DW_OP_plus_uconst 16] [$rbp+0]
	#DEBUG_VALUE: k <- [DW_OP_plus_uconst 16] [$rbp+0]
	#DEBUG_VALUE: propagateMagneticField:dt <- [DW_OP_plus_uconst 24] [$rbp+0]
	#DEBUG_VALUE: dt <- [DW_OP_plus_uconst 24] [$rbp+0]
	#DEBUG_VALUE: propagateMagneticField:RKCase <- [DW_OP_plus_uconst 32] [$rbp+0]
	#DEBUG_VALUE: RKCase <- [DW_OP_plus_uconst 32] [$rbp+0]
	#DEBUG_VALUE: propagateMagneticField:doX <- [DW_OP_plus_uconst 40] [$rbp+0]
	#DEBUG_VALUE: doX <- [DW_OP_plus_uconst 40] [$rbp+0]
	#DEBUG_VALUE: propagateMagneticField:doY <- [DW_OP_plus_uconst 48] [$rbp+0]
	#DEBUG_VALUE: doY <- [DW_OP_plus_uconst 48] [$rbp+0]
	#DEBUG_VALUE: propagateMagneticField:doZ <- [DW_OP_plus_uconst 56] [$rbp+0]
	#DEBUG_VALUE: doZ <- [DW_OP_plus_uconst 56] [$rbp+0]
	.loc	1 793 1                 # fieldsolver/ldz_magnetic_field.cpp:793:1
	cmpl	$2, 260(%rdx)
	jge	.LBB0_103
.Ltmp26:
# %bb.102:
	#DEBUG_VALUE: perBGrid0 <- [DW_OP_constu 136, DW_OP_minus] [$rbp+0]
	#DEBUG_VALUE: propagateMagneticField:j <- [DW_OP_constu 56, DW_OP_minus] [$rbp+0]
	#DEBUG_VALUE: j <- [DW_OP_constu 56, DW_OP_minus] [$rbp+0]
	#DEBUG_VALUE: propagateMagneticField:i <- [DW_OP_constu 48, DW_OP_minus] [$rbp+0]
	#DEBUG_VALUE: i <- [DW_OP_constu 48, DW_OP_minus] [$rbp+0]
	#DEBUG_VALUE: dz <- $xmm2
	#DEBUG_VALUE: dy <- $xmm0
	#DEBUG_VALUE: dx <- $xmm1
	#DEBUG_VALUE: propagateMagneticField:perBDt2Grid <- [DW_OP_constu 160, DW_OP_minus] [$rbp+0]
	#DEBUG_VALUE: perBDt2Grid <- [DW_OP_constu 160, DW_OP_minus] [$rbp+0]
	#DEBUG_VALUE: propagateMagneticField:EGrid <- [DW_OP_constu 96, DW_OP_minus] [$rbp+0]
	#DEBUG_VALUE: EGrid <- [DW_OP_constu 96, DW_OP_minus] [$rbp+0]
	#DEBUG_VALUE: propagateMagneticField:EDt2Grid <- [DW_OP_constu 144, DW_OP_minus] [$rbp+0]
	#DEBUG_VALUE: EDt2Grid <- [DW_OP_constu 144, DW_OP_minus] [$rbp+0]
	#DEBUG_VALUE: propagateMagneticField:k <- [DW_OP_plus_uconst 16] [$rbp+0]
	#DEBUG_VALUE: k <- [DW_OP_plus_uconst 16] [$rbp+0]
	#DEBUG_VALUE: propagateMagneticField:dt <- [DW_OP_plus_uconst 24] [$rbp+0]
	#DEBUG_VALUE: dt <- [DW_OP_plus_uconst 24] [$rbp+0]
	#DEBUG_VALUE: propagateMagneticField:RKCase <- [DW_OP_plus_uconst 32] [$rbp+0]
	#DEBUG_VALUE: RKCase <- [DW_OP_plus_uconst 32] [$rbp+0]
	#DEBUG_VALUE: propagateMagneticField:doX <- [DW_OP_plus_uconst 40] [$rbp+0]
	#DEBUG_VALUE: doX <- [DW_OP_plus_uconst 40] [$rbp+0]
	#DEBUG_VALUE: propagateMagneticField:doY <- [DW_OP_plus_uconst 48] [$rbp+0]
	#DEBUG_VALUE: doY <- [DW_OP_plus_uconst 48] [$rbp+0]
	#DEBUG_VALUE: propagateMagneticField:doZ <- [DW_OP_plus_uconst 56] [$rbp+0]
	#DEBUG_VALUE: doZ <- [DW_OP_plus_uconst 56] [$rbp+0]
	.loc	1 0 1 is_stmt 0         # fieldsolver/ldz_magnetic_field.cpp:0:1
	xorl	%eax, %eax
	.loc	1 793 1                 # fieldsolver/ldz_magnetic_field.cpp:793:1
	cmpl	$2, 256(%rdx)
	jl	.LBB0_106
.Ltmp27:
.LBB0_105:                              # %L.B1275
	#DEBUG_VALUE: perBGrid0 <- [DW_OP_constu 136, DW_OP_minus] [$rbp+0]
	#DEBUG_VALUE: propagateMagneticField:j <- [DW_OP_constu 56, DW_OP_minus] [$rbp+0]
	#DEBUG_VALUE: j <- [DW_OP_constu 56, DW_OP_minus] [$rbp+0]
	#DEBUG_VALUE: propagateMagneticField:i <- [DW_OP_constu 48, DW_OP_minus] [$rbp+0]
	#DEBUG_VALUE: i <- [DW_OP_constu 48, DW_OP_minus] [$rbp+0]
	#DEBUG_VALUE: dz <- $xmm2
	#DEBUG_VALUE: dy <- $xmm0
	#DEBUG_VALUE: dx <- $xmm1
	#DEBUG_VALUE: propagateMagneticField:perBDt2Grid <- [DW_OP_constu 160, DW_OP_minus] [$rbp+0]
	#DEBUG_VALUE: perBDt2Grid <- [DW_OP_constu 160, DW_OP_minus] [$rbp+0]
	#DEBUG_VALUE: propagateMagneticField:EGrid <- [DW_OP_constu 96, DW_OP_minus] [$rbp+0]
	#DEBUG_VALUE: EGrid <- [DW_OP_constu 96, DW_OP_minus] [$rbp+0]
	#DEBUG_VALUE: propagateMagneticField:EDt2Grid <- [DW_OP_constu 144, DW_OP_minus] [$rbp+0]
	#DEBUG_VALUE: EDt2Grid <- [DW_OP_constu 144, DW_OP_minus] [$rbp+0]
	#DEBUG_VALUE: propagateMagneticField:k <- [DW_OP_plus_uconst 16] [$rbp+0]
	#DEBUG_VALUE: k <- [DW_OP_plus_uconst 16] [$rbp+0]
	#DEBUG_VALUE: propagateMagneticField:dt <- [DW_OP_plus_uconst 24] [$rbp+0]
	#DEBUG_VALUE: dt <- [DW_OP_plus_uconst 24] [$rbp+0]
	#DEBUG_VALUE: propagateMagneticField:RKCase <- [DW_OP_plus_uconst 32] [$rbp+0]
	#DEBUG_VALUE: RKCase <- [DW_OP_plus_uconst 32] [$rbp+0]
	#DEBUG_VALUE: propagateMagneticField:doX <- [DW_OP_plus_uconst 40] [$rbp+0]
	#DEBUG_VALUE: doX <- [DW_OP_plus_uconst 40] [$rbp+0]
	#DEBUG_VALUE: propagateMagneticField:doY <- [DW_OP_plus_uconst 48] [$rbp+0]
	#DEBUG_VALUE: doY <- [DW_OP_plus_uconst 48] [$rbp+0]
	#DEBUG_VALUE: propagateMagneticField:doZ <- [DW_OP_plus_uconst 56] [$rbp+0]
	#DEBUG_VALUE: doZ <- [DW_OP_plus_uconst 56] [$rbp+0]
	addl	$2, %edi
	imull	276(%rdx), %edi
	movslq	%edi, %rcx
	addq	%rcx, %rax
.Ltmp28:
.LBB0_106:                              # %L..inline.71544
	#DEBUG_VALUE: perBGrid0 <- [DW_OP_constu 136, DW_OP_minus] [$rbp+0]
	#DEBUG_VALUE: propagateMagneticField:j <- [DW_OP_constu 56, DW_OP_minus] [$rbp+0]
	#DEBUG_VALUE: j <- [DW_OP_constu 56, DW_OP_minus] [$rbp+0]
	#DEBUG_VALUE: propagateMagneticField:i <- [DW_OP_constu 48, DW_OP_minus] [$rbp+0]
	#DEBUG_VALUE: i <- [DW_OP_constu 48, DW_OP_minus] [$rbp+0]
	#DEBUG_VALUE: dz <- $xmm2
	#DEBUG_VALUE: dy <- $xmm0
	#DEBUG_VALUE: dx <- $xmm1
	#DEBUG_VALUE: propagateMagneticField:perBDt2Grid <- [DW_OP_constu 160, DW_OP_minus] [$rbp+0]
	#DEBUG_VALUE: perBDt2Grid <- [DW_OP_constu 160, DW_OP_minus] [$rbp+0]
	#DEBUG_VALUE: propagateMagneticField:EGrid <- [DW_OP_constu 96, DW_OP_minus] [$rbp+0]
	#DEBUG_VALUE: EGrid <- [DW_OP_constu 96, DW_OP_minus] [$rbp+0]
	#DEBUG_VALUE: propagateMagneticField:EDt2Grid <- [DW_OP_constu 144, DW_OP_minus] [$rbp+0]
	#DEBUG_VALUE: EDt2Grid <- [DW_OP_constu 144, DW_OP_minus] [$rbp+0]
	#DEBUG_VALUE: propagateMagneticField:k <- [DW_OP_plus_uconst 16] [$rbp+0]
	#DEBUG_VALUE: k <- [DW_OP_plus_uconst 16] [$rbp+0]
	#DEBUG_VALUE: propagateMagneticField:dt <- [DW_OP_plus_uconst 24] [$rbp+0]
	#DEBUG_VALUE: dt <- [DW_OP_plus_uconst 24] [$rbp+0]
	#DEBUG_VALUE: propagateMagneticField:RKCase <- [DW_OP_plus_uconst 32] [$rbp+0]
	#DEBUG_VALUE: RKCase <- [DW_OP_plus_uconst 32] [$rbp+0]
	#DEBUG_VALUE: propagateMagneticField:doX <- [DW_OP_plus_uconst 40] [$rbp+0]
	#DEBUG_VALUE: doX <- [DW_OP_plus_uconst 40] [$rbp+0]
	#DEBUG_VALUE: propagateMagneticField:doY <- [DW_OP_plus_uconst 48] [$rbp+0]
	#DEBUG_VALUE: doY <- [DW_OP_plus_uconst 48] [$rbp+0]
	#DEBUG_VALUE: propagateMagneticField:doZ <- [DW_OP_plus_uconst 56] [$rbp+0]
	#DEBUG_VALUE: doZ <- [DW_OP_plus_uconst 56] [$rbp+0]
	movslq	%r11d, %rcx
	addq	$2, %rcx
	xorl	%esi, %esi
	cmpl	$2, 252(%rdx)
	cmovgeq	%rcx, %rsi
	addq	%rax, %rsi
	.loc	1 795 1 is_stmt 1       # fieldsolver/ldz_magnetic_field.cpp:795:1
	leaq	(%rsi,%rsi,2), %r11
	shlq	$3, %r11
	addq	744(%rdx), %r11
	jmp	.LBB0_107
.Ltmp29:
.LBB0_3:                                # %L..inline.69091
	#DEBUG_VALUE: propagateMagneticField:j <- [DW_OP_constu 56, DW_OP_minus] [$rbp+0]
	#DEBUG_VALUE: j <- [DW_OP_constu 56, DW_OP_minus] [$rbp+0]
	#DEBUG_VALUE: propagateMagneticField:i <- [DW_OP_constu 48, DW_OP_minus] [$rbp+0]
	#DEBUG_VALUE: i <- [DW_OP_constu 48, DW_OP_minus] [$rbp+0]
	#DEBUG_VALUE: dz <- $xmm2
	#DEBUG_VALUE: dy <- $xmm0
	#DEBUG_VALUE: dx <- $xmm1
	#DEBUG_VALUE: propagateMagneticField:perBDt2Grid <- [DW_OP_constu 160, DW_OP_minus] [$rbp+0]
	#DEBUG_VALUE: perBDt2Grid <- [DW_OP_constu 160, DW_OP_minus] [$rbp+0]
	#DEBUG_VALUE: propagateMagneticField:EGrid <- [DW_OP_constu 96, DW_OP_minus] [$rbp+0]
	#DEBUG_VALUE: EGrid <- [DW_OP_constu 96, DW_OP_minus] [$rbp+0]
	#DEBUG_VALUE: propagateMagneticField:EDt2Grid <- [DW_OP_constu 144, DW_OP_minus] [$rbp+0]
	#DEBUG_VALUE: EDt2Grid <- [DW_OP_constu 144, DW_OP_minus] [$rbp+0]
	#DEBUG_VALUE: propagateMagneticField:k <- [DW_OP_plus_uconst 16] [$rbp+0]
	#DEBUG_VALUE: k <- [DW_OP_plus_uconst 16] [$rbp+0]
	#DEBUG_VALUE: propagateMagneticField:dt <- [DW_OP_plus_uconst 24] [$rbp+0]
	#DEBUG_VALUE: dt <- [DW_OP_plus_uconst 24] [$rbp+0]
	#DEBUG_VALUE: propagateMagneticField:RKCase <- [DW_OP_plus_uconst 32] [$rbp+0]
	#DEBUG_VALUE: RKCase <- [DW_OP_plus_uconst 32] [$rbp+0]
	#DEBUG_VALUE: propagateMagneticField:doX <- [DW_OP_plus_uconst 40] [$rbp+0]
	#DEBUG_VALUE: doX <- [DW_OP_plus_uconst 40] [$rbp+0]
	#DEBUG_VALUE: propagateMagneticField:doY <- [DW_OP_plus_uconst 48] [$rbp+0]
	#DEBUG_VALUE: doY <- [DW_OP_plus_uconst 48] [$rbp+0]
	#DEBUG_VALUE: propagateMagneticField:doZ <- [DW_OP_plus_uconst 56] [$rbp+0]
	#DEBUG_VALUE: doZ <- [DW_OP_plus_uconst 56] [$rbp+0]
	#DEBUG_VALUE: perBGrid <- $rdi
	#DEBUG_VALUE: propagateMagneticField:perBGrid <- $rdi
	.loc	1 0 0 is_stmt 0         # fieldsolver/ldz_magnetic_field.cpp:0:0
	movl	16(%rbp), %eax
	movl	%eax, %ebx
	movl	%edx, %eax
	movq	-48(%rbp), %rdx         # 8-byte Reload
	movl	%edx, %r15d
	movq	-56(%rbp), %rdx         # 8-byte Reload
	.loc	1 784 1 is_stmt 1       # fieldsolver/ldz_magnetic_field.cpp:784:1
	cmpl	56(%rdi), %ecx
	jne	.LBB0_5
.Ltmp30:
# %bb.4:                                # %L.B1181
	#DEBUG_VALUE: propagateMagneticField:j <- [DW_OP_constu 56, DW_OP_minus] [$rbp+0]
	#DEBUG_VALUE: j <- [DW_OP_constu 56, DW_OP_minus] [$rbp+0]
	#DEBUG_VALUE: propagateMagneticField:i <- [DW_OP_constu 48, DW_OP_minus] [$rbp+0]
	#DEBUG_VALUE: i <- [DW_OP_constu 48, DW_OP_minus] [$rbp+0]
	#DEBUG_VALUE: dz <- $xmm2
	#DEBUG_VALUE: dy <- $xmm0
	#DEBUG_VALUE: dx <- $xmm1
	#DEBUG_VALUE: propagateMagneticField:perBDt2Grid <- [DW_OP_constu 160, DW_OP_minus] [$rbp+0]
	#DEBUG_VALUE: perBDt2Grid <- [DW_OP_constu 160, DW_OP_minus] [$rbp+0]
	#DEBUG_VALUE: propagateMagneticField:EGrid <- [DW_OP_constu 96, DW_OP_minus] [$rbp+0]
	#DEBUG_VALUE: EGrid <- [DW_OP_constu 96, DW_OP_minus] [$rbp+0]
	#DEBUG_VALUE: propagateMagneticField:EDt2Grid <- [DW_OP_constu 144, DW_OP_minus] [$rbp+0]
	#DEBUG_VALUE: EDt2Grid <- [DW_OP_constu 144, DW_OP_minus] [$rbp+0]
	#DEBUG_VALUE: propagateMagneticField:k <- [DW_OP_plus_uconst 16] [$rbp+0]
	#DEBUG_VALUE: k <- [DW_OP_plus_uconst 16] [$rbp+0]
	#DEBUG_VALUE: propagateMagneticField:dt <- [DW_OP_plus_uconst 24] [$rbp+0]
	#DEBUG_VALUE: dt <- [DW_OP_plus_uconst 24] [$rbp+0]
	#DEBUG_VALUE: propagateMagneticField:RKCase <- [DW_OP_plus_uconst 32] [$rbp+0]
	#DEBUG_VALUE: RKCase <- [DW_OP_plus_uconst 32] [$rbp+0]
	#DEBUG_VALUE: propagateMagneticField:doX <- [DW_OP_plus_uconst 40] [$rbp+0]
	#DEBUG_VALUE: doX <- [DW_OP_plus_uconst 40] [$rbp+0]
	#DEBUG_VALUE: propagateMagneticField:doY <- [DW_OP_plus_uconst 48] [$rbp+0]
	#DEBUG_VALUE: doY <- [DW_OP_plus_uconst 48] [$rbp+0]
	#DEBUG_VALUE: propagateMagneticField:doZ <- [DW_OP_plus_uconst 56] [$rbp+0]
	#DEBUG_VALUE: doZ <- [DW_OP_plus_uconst 56] [$rbp+0]
	#DEBUG_VALUE: perBGrid <- $rdi
	#DEBUG_VALUE: propagateMagneticField:perBGrid <- $rdi
	.loc	1 787 1                 # fieldsolver/ldz_magnetic_field.cpp:787:1
	imull	-84(%rbp), %r13d        # 4-byte Folded Reload
	addl	-48(%rbp), %r13d        # 4-byte Folded Reload
	.loc	1 788 1                 # fieldsolver/ldz_magnetic_field.cpp:788:1
	imull	%r14d, %esi
	addl	%edx, %esi
	.loc	1 789 1                 # fieldsolver/ldz_magnetic_field.cpp:789:1
	imull	%r12d, %r11d
	movl	16(%rbp), %eax
	addl	%eax, %r11d
	.loc	1 0 0 is_stmt 0         # fieldsolver/ldz_magnetic_field.cpp:0:0
	movl	%r11d, %ebx
	movl	%esi, %eax
	movl	%r13d, %r15d
	jmp	.LBB0_5
.Ltmp31:
.LBB0_53:                               # %L.B0002
	#DEBUG_VALUE: perBGrid0 <- [DW_OP_constu 136, DW_OP_minus] [$rbp+0]
	#DEBUG_VALUE: propagateMagneticField:j <- [DW_OP_constu 56, DW_OP_minus] [$rbp+0]
	#DEBUG_VALUE: j <- [DW_OP_constu 56, DW_OP_minus] [$rbp+0]
	#DEBUG_VALUE: propagateMagneticField:i <- [DW_OP_constu 48, DW_OP_minus] [$rbp+0]
	#DEBUG_VALUE: i <- [DW_OP_constu 48, DW_OP_minus] [$rbp+0]
	#DEBUG_VALUE: dz <- $xmm2
	#DEBUG_VALUE: dy <- $xmm0
	#DEBUG_VALUE: dx <- $xmm1
	#DEBUG_VALUE: propagateMagneticField:perBDt2Grid <- [DW_OP_constu 160, DW_OP_minus] [$rbp+0]
	#DEBUG_VALUE: perBDt2Grid <- [DW_OP_constu 160, DW_OP_minus] [$rbp+0]
	#DEBUG_VALUE: propagateMagneticField:EGrid <- [DW_OP_constu 96, DW_OP_minus] [$rbp+0]
	#DEBUG_VALUE: EGrid <- [DW_OP_constu 96, DW_OP_minus] [$rbp+0]
	#DEBUG_VALUE: propagateMagneticField:EDt2Grid <- [DW_OP_constu 144, DW_OP_minus] [$rbp+0]
	#DEBUG_VALUE: EDt2Grid <- [DW_OP_constu 144, DW_OP_minus] [$rbp+0]
	#DEBUG_VALUE: propagateMagneticField:k <- [DW_OP_plus_uconst 16] [$rbp+0]
	#DEBUG_VALUE: k <- [DW_OP_plus_uconst 16] [$rbp+0]
	#DEBUG_VALUE: propagateMagneticField:dt <- [DW_OP_plus_uconst 24] [$rbp+0]
	#DEBUG_VALUE: dt <- [DW_OP_plus_uconst 24] [$rbp+0]
	#DEBUG_VALUE: propagateMagneticField:RKCase <- [DW_OP_plus_uconst 32] [$rbp+0]
	#DEBUG_VALUE: RKCase <- [DW_OP_plus_uconst 32] [$rbp+0]
	#DEBUG_VALUE: propagateMagneticField:doX <- [DW_OP_plus_uconst 40] [$rbp+0]
	#DEBUG_VALUE: doX <- [DW_OP_plus_uconst 40] [$rbp+0]
	#DEBUG_VALUE: propagateMagneticField:doY <- [DW_OP_plus_uconst 48] [$rbp+0]
	#DEBUG_VALUE: doY <- [DW_OP_plus_uconst 48] [$rbp+0]
	#DEBUG_VALUE: propagateMagneticField:doZ <- [DW_OP_plus_uconst 56] [$rbp+0]
	#DEBUG_VALUE: doZ <- [DW_OP_plus_uconst 56] [$rbp+0]
	#DEBUG_VALUE: perBGrid <- $rdi
	#DEBUG_VALUE: propagateMagneticField:perBGrid <- $rdi
	movq	-160(%rbp), %rax        # 8-byte Reload
	.loc	1 707 1 is_stmt 1       # fieldsolver/ldz_magnetic_field.cpp:707:1
	movl	264(%rax), %r11d
	.loc	1 715 1                 # fieldsolver/ldz_magnetic_field.cpp:715:1
	movl	268(%rax), %r10d
	movq	-48(%rbp), %rbx         # 8-byte Reload
	.loc	1 707 1                 # fieldsolver/ldz_magnetic_field.cpp:707:1
	cmpl	%ebx, %r11d
	movl	$-1, %r8d
	movl	$-1, %r12d
	cmovgl	-76(%rbp), %r12d        # 4-byte Folded Reload
	movq	-104(%rbp), %rcx        # 8-byte Reload
                                        # kill: def $ecx killed $ecx killed $rcx def $rcx
	cmovgl	-80(%rbp), %ecx         # 4-byte Folded Reload
	.loc	1 711 1                 # fieldsolver/ldz_magnetic_field.cpp:711:1
	leal	-3(%rcx), %esi
	movq	-56(%rbp), %rdx         # 8-byte Reload
	testl	%edx, %edx
	cmovnsl	%ecx, %esi
	.loc	1 715 1                 # fieldsolver/ldz_magnetic_field.cpp:715:1
	leal	3(%rsi), %edi
.Ltmp32:
	cmpl	%edx, %r10d
	movl	$-1, %r13d
	cmovgl	-72(%rbp), %r13d        # 4-byte Folded Reload
	cmovgl	%esi, %edi
	.loc	1 723 1                 # fieldsolver/ldz_magnetic_field.cpp:723:1
	movl	272(%rax), %r15d
	xorl	%ecx, %ecx
	movl	16(%rbp), %esi
	cmpl	%esi, %r15d
	setle	%cl
	cmovgl	-68(%rbp), %r8d         # 4-byte Folded Reload
	.loc	1 719 1                 # fieldsolver/ldz_magnetic_field.cpp:719:1
	addl	-84(%rbp), %ecx         # 4-byte Folded Reload
	.loc	1 723 1                 # fieldsolver/ldz_magnetic_field.cpp:723:1
	addl	%edi, %ecx
                                        # kill: def $esi killed $esi killed $rsi
	.loc	1 0 0 is_stmt 0         # fieldsolver/ldz_magnetic_field.cpp:0:0
	movl	%edx, %edi
	movl	%ebx, %r14d
	.loc	1 776 1 is_stmt 1       # fieldsolver/ldz_magnetic_field.cpp:776:1
	cmpl	$13, %ecx
	jne	.LBB0_54
.Ltmp33:
.LBB0_58:                               # %L..inline.70222
	#DEBUG_VALUE: perBGrid0 <- [DW_OP_constu 136, DW_OP_minus] [$rbp+0]
	#DEBUG_VALUE: propagateMagneticField:j <- [DW_OP_constu 56, DW_OP_minus] [$rbp+0]
	#DEBUG_VALUE: j <- [DW_OP_constu 56, DW_OP_minus] [$rbp+0]
	#DEBUG_VALUE: propagateMagneticField:i <- [DW_OP_constu 48, DW_OP_minus] [$rbp+0]
	#DEBUG_VALUE: i <- [DW_OP_constu 48, DW_OP_minus] [$rbp+0]
	#DEBUG_VALUE: dz <- $xmm2
	#DEBUG_VALUE: dy <- $xmm0
	#DEBUG_VALUE: dx <- $xmm1
	#DEBUG_VALUE: propagateMagneticField:perBDt2Grid <- [DW_OP_constu 160, DW_OP_minus] [$rbp+0]
	#DEBUG_VALUE: perBDt2Grid <- [DW_OP_constu 160, DW_OP_minus] [$rbp+0]
	#DEBUG_VALUE: propagateMagneticField:EGrid <- [DW_OP_constu 96, DW_OP_minus] [$rbp+0]
	#DEBUG_VALUE: EGrid <- [DW_OP_constu 96, DW_OP_minus] [$rbp+0]
	#DEBUG_VALUE: propagateMagneticField:EDt2Grid <- [DW_OP_constu 144, DW_OP_minus] [$rbp+0]
	#DEBUG_VALUE: EDt2Grid <- [DW_OP_constu 144, DW_OP_minus] [$rbp+0]
	#DEBUG_VALUE: propagateMagneticField:k <- [DW_OP_plus_uconst 16] [$rbp+0]
	#DEBUG_VALUE: k <- [DW_OP_plus_uconst 16] [$rbp+0]
	#DEBUG_VALUE: propagateMagneticField:dt <- [DW_OP_plus_uconst 24] [$rbp+0]
	#DEBUG_VALUE: dt <- [DW_OP_plus_uconst 24] [$rbp+0]
	#DEBUG_VALUE: propagateMagneticField:RKCase <- [DW_OP_plus_uconst 32] [$rbp+0]
	#DEBUG_VALUE: RKCase <- [DW_OP_plus_uconst 32] [$rbp+0]
	#DEBUG_VALUE: propagateMagneticField:doX <- [DW_OP_plus_uconst 40] [$rbp+0]
	#DEBUG_VALUE: doX <- [DW_OP_plus_uconst 40] [$rbp+0]
	#DEBUG_VALUE: propagateMagneticField:doY <- [DW_OP_plus_uconst 48] [$rbp+0]
	#DEBUG_VALUE: doY <- [DW_OP_plus_uconst 48] [$rbp+0]
	#DEBUG_VALUE: propagateMagneticField:doZ <- [DW_OP_plus_uconst 56] [$rbp+0]
	#DEBUG_VALUE: doZ <- [DW_OP_plus_uconst 56] [$rbp+0]
	.loc	1 793 1                 # fieldsolver/ldz_magnetic_field.cpp:793:1
	cmpl	$2, 260(%rax)
	jge	.LBB0_60
.Ltmp34:
# %bb.59:
	#DEBUG_VALUE: perBGrid0 <- [DW_OP_constu 136, DW_OP_minus] [$rbp+0]
	#DEBUG_VALUE: propagateMagneticField:j <- [DW_OP_constu 56, DW_OP_minus] [$rbp+0]
	#DEBUG_VALUE: j <- [DW_OP_constu 56, DW_OP_minus] [$rbp+0]
	#DEBUG_VALUE: propagateMagneticField:i <- [DW_OP_constu 48, DW_OP_minus] [$rbp+0]
	#DEBUG_VALUE: i <- [DW_OP_constu 48, DW_OP_minus] [$rbp+0]
	#DEBUG_VALUE: dz <- $xmm2
	#DEBUG_VALUE: dy <- $xmm0
	#DEBUG_VALUE: dx <- $xmm1
	#DEBUG_VALUE: propagateMagneticField:perBDt2Grid <- [DW_OP_constu 160, DW_OP_minus] [$rbp+0]
	#DEBUG_VALUE: perBDt2Grid <- [DW_OP_constu 160, DW_OP_minus] [$rbp+0]
	#DEBUG_VALUE: propagateMagneticField:EGrid <- [DW_OP_constu 96, DW_OP_minus] [$rbp+0]
	#DEBUG_VALUE: EGrid <- [DW_OP_constu 96, DW_OP_minus] [$rbp+0]
	#DEBUG_VALUE: propagateMagneticField:EDt2Grid <- [DW_OP_constu 144, DW_OP_minus] [$rbp+0]
	#DEBUG_VALUE: EDt2Grid <- [DW_OP_constu 144, DW_OP_minus] [$rbp+0]
	#DEBUG_VALUE: propagateMagneticField:k <- [DW_OP_plus_uconst 16] [$rbp+0]
	#DEBUG_VALUE: k <- [DW_OP_plus_uconst 16] [$rbp+0]
	#DEBUG_VALUE: propagateMagneticField:dt <- [DW_OP_plus_uconst 24] [$rbp+0]
	#DEBUG_VALUE: dt <- [DW_OP_plus_uconst 24] [$rbp+0]
	#DEBUG_VALUE: propagateMagneticField:RKCase <- [DW_OP_plus_uconst 32] [$rbp+0]
	#DEBUG_VALUE: RKCase <- [DW_OP_plus_uconst 32] [$rbp+0]
	#DEBUG_VALUE: propagateMagneticField:doX <- [DW_OP_plus_uconst 40] [$rbp+0]
	#DEBUG_VALUE: doX <- [DW_OP_plus_uconst 40] [$rbp+0]
	#DEBUG_VALUE: propagateMagneticField:doY <- [DW_OP_plus_uconst 48] [$rbp+0]
	#DEBUG_VALUE: doY <- [DW_OP_plus_uconst 48] [$rbp+0]
	#DEBUG_VALUE: propagateMagneticField:doZ <- [DW_OP_plus_uconst 56] [$rbp+0]
	#DEBUG_VALUE: doZ <- [DW_OP_plus_uconst 56] [$rbp+0]
	.loc	1 0 1 is_stmt 0         # fieldsolver/ldz_magnetic_field.cpp:0:1
	xorl	%ebx, %ebx
	.loc	1 793 1                 # fieldsolver/ldz_magnetic_field.cpp:793:1
	cmpl	$2, 256(%rax)
	jge	.LBB0_62
	jmp	.LBB0_63
.Ltmp35:
.LBB0_18:                               # %L.B0001
	#DEBUG_VALUE: perBGrid0 <- [DW_OP_constu 136, DW_OP_minus] [$rbp+0]
	#DEBUG_VALUE: propagateMagneticField:j <- [DW_OP_constu 56, DW_OP_minus] [$rbp+0]
	#DEBUG_VALUE: j <- [DW_OP_constu 56, DW_OP_minus] [$rbp+0]
	#DEBUG_VALUE: propagateMagneticField:i <- [DW_OP_constu 48, DW_OP_minus] [$rbp+0]
	#DEBUG_VALUE: i <- [DW_OP_constu 48, DW_OP_minus] [$rbp+0]
	#DEBUG_VALUE: dz <- $xmm2
	#DEBUG_VALUE: dy <- $xmm0
	#DEBUG_VALUE: dx <- $xmm1
	#DEBUG_VALUE: propagateMagneticField:perBDt2Grid <- [DW_OP_constu 160, DW_OP_minus] [$rbp+0]
	#DEBUG_VALUE: perBDt2Grid <- [DW_OP_constu 160, DW_OP_minus] [$rbp+0]
	#DEBUG_VALUE: propagateMagneticField:EGrid <- [DW_OP_constu 96, DW_OP_minus] [$rbp+0]
	#DEBUG_VALUE: EGrid <- [DW_OP_constu 96, DW_OP_minus] [$rbp+0]
	#DEBUG_VALUE: propagateMagneticField:EDt2Grid <- [DW_OP_constu 144, DW_OP_minus] [$rbp+0]
	#DEBUG_VALUE: EDt2Grid <- [DW_OP_constu 144, DW_OP_minus] [$rbp+0]
	#DEBUG_VALUE: propagateMagneticField:k <- [DW_OP_plus_uconst 16] [$rbp+0]
	#DEBUG_VALUE: k <- [DW_OP_plus_uconst 16] [$rbp+0]
	#DEBUG_VALUE: propagateMagneticField:dt <- [DW_OP_plus_uconst 24] [$rbp+0]
	#DEBUG_VALUE: dt <- [DW_OP_plus_uconst 24] [$rbp+0]
	#DEBUG_VALUE: propagateMagneticField:RKCase <- [DW_OP_plus_uconst 32] [$rbp+0]
	#DEBUG_VALUE: RKCase <- [DW_OP_plus_uconst 32] [$rbp+0]
	#DEBUG_VALUE: propagateMagneticField:doX <- [DW_OP_plus_uconst 40] [$rbp+0]
	#DEBUG_VALUE: doX <- [DW_OP_plus_uconst 40] [$rbp+0]
	#DEBUG_VALUE: propagateMagneticField:doY <- [DW_OP_plus_uconst 48] [$rbp+0]
	#DEBUG_VALUE: doY <- [DW_OP_plus_uconst 48] [$rbp+0]
	#DEBUG_VALUE: propagateMagneticField:doZ <- [DW_OP_plus_uconst 56] [$rbp+0]
	#DEBUG_VALUE: doZ <- [DW_OP_plus_uconst 56] [$rbp+0]
	#DEBUG_VALUE: perBGrid <- $rdi
	#DEBUG_VALUE: propagateMagneticField:perBGrid <- $rdi
	.loc	1 707 1 is_stmt 1       # fieldsolver/ldz_magnetic_field.cpp:707:1
	movl	264(%r9), %eax
	.loc	1 715 1                 # fieldsolver/ldz_magnetic_field.cpp:715:1
	movl	268(%r9), %edx
	movq	-48(%rbp), %rsi         # 8-byte Reload
	movl	%eax, -108(%rbp)        # 4-byte Spill
	.loc	1 707 1                 # fieldsolver/ldz_magnetic_field.cpp:707:1
	cmpl	%esi, %eax
	movl	$-1, %r14d
	movl	$-1, %eax
	cmovgl	-76(%rbp), %eax         # 4-byte Folded Reload
	movl	%eax, -64(%rbp)         # 4-byte Spill
	movq	-104(%rbp), %r15        # 8-byte Reload
                                        # kill: def $r15d killed $r15d killed $r15 def $r15
	cmovgl	-80(%rbp), %r15d        # 4-byte Folded Reload
	.loc	1 711 1                 # fieldsolver/ldz_magnetic_field.cpp:711:1
	leal	-3(%r15), %r13d
	movq	-56(%rbp), %rcx         # 8-byte Reload
	testl	%ecx, %ecx
	movl	%r13d, %eax
	cmovnsl	%r15d, %eax
	.loc	1 715 1                 # fieldsolver/ldz_magnetic_field.cpp:715:1
	leal	3(%rax), %r12d
	movl	%edx, -60(%rbp)         # 4-byte Spill
	cmpl	%ecx, %edx
	movl	$-1, %edx
	cmovgl	-72(%rbp), %edx         # 4-byte Folded Reload
	movl	%edx, -116(%rbp)        # 4-byte Spill
	cmovgl	%eax, %r12d
	.loc	1 719 1                 # fieldsolver/ldz_magnetic_field.cpp:719:1
	leal	-1(%r12), %ebx
	movl	16(%rbp), %eax
	testl	%eax, %eax
	movl	%ebx, -112(%rbp)        # 4-byte Spill
	cmovnsl	%r12d, %ebx
	.loc	1 723 1                 # fieldsolver/ldz_magnetic_field.cpp:723:1
	movl	272(%r9), %edx
	xorl	%r10d, %r10d
	movl	%edx, -128(%rbp)        # 4-byte Spill
	cmpl	%eax, %edx
	setle	%r10b
	cmovgl	-68(%rbp), %r14d        # 4-byte Folded Reload
	addl	%r10d, %ebx
	.loc	1 0 0 is_stmt 0         # fieldsolver/ldz_magnetic_field.cpp:0:0
	movl	%eax, %edi
.Ltmp36:
	movl	%ecx, %eax
	movl	%esi, %r8d
	.loc	1 776 1 is_stmt 1       # fieldsolver/ldz_magnetic_field.cpp:776:1
	cmpl	$13, %ebx
	jne	.LBB0_19
.Ltmp37:
.LBB0_23:                               # %L..inline.69341
	#DEBUG_VALUE: perBGrid0 <- [DW_OP_constu 136, DW_OP_minus] [$rbp+0]
	#DEBUG_VALUE: propagateMagneticField:j <- [DW_OP_constu 56, DW_OP_minus] [$rbp+0]
	#DEBUG_VALUE: j <- [DW_OP_constu 56, DW_OP_minus] [$rbp+0]
	#DEBUG_VALUE: propagateMagneticField:i <- [DW_OP_constu 48, DW_OP_minus] [$rbp+0]
	#DEBUG_VALUE: i <- [DW_OP_constu 48, DW_OP_minus] [$rbp+0]
	#DEBUG_VALUE: dz <- $xmm2
	#DEBUG_VALUE: dy <- $xmm0
	#DEBUG_VALUE: dx <- $xmm1
	#DEBUG_VALUE: propagateMagneticField:perBDt2Grid <- [DW_OP_constu 160, DW_OP_minus] [$rbp+0]
	#DEBUG_VALUE: perBDt2Grid <- [DW_OP_constu 160, DW_OP_minus] [$rbp+0]
	#DEBUG_VALUE: propagateMagneticField:EGrid <- [DW_OP_constu 96, DW_OP_minus] [$rbp+0]
	#DEBUG_VALUE: EGrid <- [DW_OP_constu 96, DW_OP_minus] [$rbp+0]
	#DEBUG_VALUE: propagateMagneticField:EDt2Grid <- [DW_OP_constu 144, DW_OP_minus] [$rbp+0]
	#DEBUG_VALUE: EDt2Grid <- [DW_OP_constu 144, DW_OP_minus] [$rbp+0]
	#DEBUG_VALUE: propagateMagneticField:k <- [DW_OP_plus_uconst 16] [$rbp+0]
	#DEBUG_VALUE: k <- [DW_OP_plus_uconst 16] [$rbp+0]
	#DEBUG_VALUE: propagateMagneticField:dt <- [DW_OP_plus_uconst 24] [$rbp+0]
	#DEBUG_VALUE: dt <- [DW_OP_plus_uconst 24] [$rbp+0]
	#DEBUG_VALUE: propagateMagneticField:RKCase <- [DW_OP_plus_uconst 32] [$rbp+0]
	#DEBUG_VALUE: RKCase <- [DW_OP_plus_uconst 32] [$rbp+0]
	#DEBUG_VALUE: propagateMagneticField:doX <- [DW_OP_plus_uconst 40] [$rbp+0]
	#DEBUG_VALUE: doX <- [DW_OP_plus_uconst 40] [$rbp+0]
	#DEBUG_VALUE: propagateMagneticField:doY <- [DW_OP_plus_uconst 48] [$rbp+0]
	#DEBUG_VALUE: doY <- [DW_OP_plus_uconst 48] [$rbp+0]
	#DEBUG_VALUE: propagateMagneticField:doZ <- [DW_OP_plus_uconst 56] [$rbp+0]
	#DEBUG_VALUE: doZ <- [DW_OP_plus_uconst 56] [$rbp+0]
	.loc	1 793 1                 # fieldsolver/ldz_magnetic_field.cpp:793:1
	cmpl	$2, 260(%r9)
	jge	.LBB0_25
.Ltmp38:
# %bb.24:
	#DEBUG_VALUE: perBGrid0 <- [DW_OP_constu 136, DW_OP_minus] [$rbp+0]
	#DEBUG_VALUE: propagateMagneticField:j <- [DW_OP_constu 56, DW_OP_minus] [$rbp+0]
	#DEBUG_VALUE: j <- [DW_OP_constu 56, DW_OP_minus] [$rbp+0]
	#DEBUG_VALUE: propagateMagneticField:i <- [DW_OP_constu 48, DW_OP_minus] [$rbp+0]
	#DEBUG_VALUE: i <- [DW_OP_constu 48, DW_OP_minus] [$rbp+0]
	#DEBUG_VALUE: dz <- $xmm2
	#DEBUG_VALUE: dy <- $xmm0
	#DEBUG_VALUE: dx <- $xmm1
	#DEBUG_VALUE: propagateMagneticField:perBDt2Grid <- [DW_OP_constu 160, DW_OP_minus] [$rbp+0]
	#DEBUG_VALUE: perBDt2Grid <- [DW_OP_constu 160, DW_OP_minus] [$rbp+0]
	#DEBUG_VALUE: propagateMagneticField:EGrid <- [DW_OP_constu 96, DW_OP_minus] [$rbp+0]
	#DEBUG_VALUE: EGrid <- [DW_OP_constu 96, DW_OP_minus] [$rbp+0]
	#DEBUG_VALUE: propagateMagneticField:EDt2Grid <- [DW_OP_constu 144, DW_OP_minus] [$rbp+0]
	#DEBUG_VALUE: EDt2Grid <- [DW_OP_constu 144, DW_OP_minus] [$rbp+0]
	#DEBUG_VALUE: propagateMagneticField:k <- [DW_OP_plus_uconst 16] [$rbp+0]
	#DEBUG_VALUE: k <- [DW_OP_plus_uconst 16] [$rbp+0]
	#DEBUG_VALUE: propagateMagneticField:dt <- [DW_OP_plus_uconst 24] [$rbp+0]
	#DEBUG_VALUE: dt <- [DW_OP_plus_uconst 24] [$rbp+0]
	#DEBUG_VALUE: propagateMagneticField:RKCase <- [DW_OP_plus_uconst 32] [$rbp+0]
	#DEBUG_VALUE: RKCase <- [DW_OP_plus_uconst 32] [$rbp+0]
	#DEBUG_VALUE: propagateMagneticField:doX <- [DW_OP_plus_uconst 40] [$rbp+0]
	#DEBUG_VALUE: doX <- [DW_OP_plus_uconst 40] [$rbp+0]
	#DEBUG_VALUE: propagateMagneticField:doY <- [DW_OP_plus_uconst 48] [$rbp+0]
	#DEBUG_VALUE: doY <- [DW_OP_plus_uconst 48] [$rbp+0]
	#DEBUG_VALUE: propagateMagneticField:doZ <- [DW_OP_plus_uconst 56] [$rbp+0]
	#DEBUG_VALUE: doZ <- [DW_OP_plus_uconst 56] [$rbp+0]
	.loc	1 0 1 is_stmt 0         # fieldsolver/ldz_magnetic_field.cpp:0:1
	xorl	%edi, %edi
	.loc	1 793 1                 # fieldsolver/ldz_magnetic_field.cpp:793:1
	cmpl	$2, 256(%r9)
	jge	.LBB0_27
	jmp	.LBB0_28
.Ltmp39:
.LBB0_16:                               # %L.B1193
	#DEBUG_VALUE: perBGrid0 <- [DW_OP_constu 136, DW_OP_minus] [$rbp+0]
	#DEBUG_VALUE: propagateMagneticField:j <- [DW_OP_constu 56, DW_OP_minus] [$rbp+0]
	#DEBUG_VALUE: j <- [DW_OP_constu 56, DW_OP_minus] [$rbp+0]
	#DEBUG_VALUE: propagateMagneticField:i <- [DW_OP_constu 48, DW_OP_minus] [$rbp+0]
	#DEBUG_VALUE: i <- [DW_OP_constu 48, DW_OP_minus] [$rbp+0]
	#DEBUG_VALUE: dz <- $xmm2
	#DEBUG_VALUE: dy <- $xmm0
	#DEBUG_VALUE: dx <- $xmm1
	#DEBUG_VALUE: propagateMagneticField:perBDt2Grid <- [DW_OP_constu 160, DW_OP_minus] [$rbp+0]
	#DEBUG_VALUE: perBDt2Grid <- [DW_OP_constu 160, DW_OP_minus] [$rbp+0]
	#DEBUG_VALUE: propagateMagneticField:EGrid <- [DW_OP_constu 96, DW_OP_minus] [$rbp+0]
	#DEBUG_VALUE: EGrid <- [DW_OP_constu 96, DW_OP_minus] [$rbp+0]
	#DEBUG_VALUE: propagateMagneticField:EDt2Grid <- [DW_OP_constu 144, DW_OP_minus] [$rbp+0]
	#DEBUG_VALUE: EDt2Grid <- [DW_OP_constu 144, DW_OP_minus] [$rbp+0]
	#DEBUG_VALUE: propagateMagneticField:k <- [DW_OP_plus_uconst 16] [$rbp+0]
	#DEBUG_VALUE: k <- [DW_OP_plus_uconst 16] [$rbp+0]
	#DEBUG_VALUE: propagateMagneticField:dt <- [DW_OP_plus_uconst 24] [$rbp+0]
	#DEBUG_VALUE: dt <- [DW_OP_plus_uconst 24] [$rbp+0]
	#DEBUG_VALUE: propagateMagneticField:RKCase <- [DW_OP_plus_uconst 32] [$rbp+0]
	#DEBUG_VALUE: RKCase <- [DW_OP_plus_uconst 32] [$rbp+0]
	#DEBUG_VALUE: propagateMagneticField:doX <- [DW_OP_plus_uconst 40] [$rbp+0]
	#DEBUG_VALUE: doX <- [DW_OP_plus_uconst 40] [$rbp+0]
	#DEBUG_VALUE: propagateMagneticField:doY <- [DW_OP_plus_uconst 48] [$rbp+0]
	#DEBUG_VALUE: doY <- [DW_OP_plus_uconst 48] [$rbp+0]
	#DEBUG_VALUE: propagateMagneticField:doZ <- [DW_OP_plus_uconst 56] [$rbp+0]
	#DEBUG_VALUE: doZ <- [DW_OP_plus_uconst 56] [$rbp+0]
	.loc	1 779 1 is_stmt 1       # fieldsolver/ldz_magnetic_field.cpp:779:1
	movslq	%esi, %rax
	movl	92(%rdx,%rax,4), %ecx
	cmpl	$-2, %ecx
	jne	.LBB0_99
.Ltmp40:
# %bb.17:
	#DEBUG_VALUE: perBGrid0 <- [DW_OP_constu 136, DW_OP_minus] [$rbp+0]
	#DEBUG_VALUE: propagateMagneticField:j <- [DW_OP_constu 56, DW_OP_minus] [$rbp+0]
	#DEBUG_VALUE: j <- [DW_OP_constu 56, DW_OP_minus] [$rbp+0]
	#DEBUG_VALUE: propagateMagneticField:i <- [DW_OP_constu 48, DW_OP_minus] [$rbp+0]
	#DEBUG_VALUE: i <- [DW_OP_constu 48, DW_OP_minus] [$rbp+0]
	#DEBUG_VALUE: dz <- $xmm2
	#DEBUG_VALUE: dy <- $xmm0
	#DEBUG_VALUE: dx <- $xmm1
	#DEBUG_VALUE: propagateMagneticField:perBDt2Grid <- [DW_OP_constu 160, DW_OP_minus] [$rbp+0]
	#DEBUG_VALUE: perBDt2Grid <- [DW_OP_constu 160, DW_OP_minus] [$rbp+0]
	#DEBUG_VALUE: propagateMagneticField:EGrid <- [DW_OP_constu 96, DW_OP_minus] [$rbp+0]
	#DEBUG_VALUE: EGrid <- [DW_OP_constu 96, DW_OP_minus] [$rbp+0]
	#DEBUG_VALUE: propagateMagneticField:EDt2Grid <- [DW_OP_constu 144, DW_OP_minus] [$rbp+0]
	#DEBUG_VALUE: EDt2Grid <- [DW_OP_constu 144, DW_OP_minus] [$rbp+0]
	#DEBUG_VALUE: propagateMagneticField:k <- [DW_OP_plus_uconst 16] [$rbp+0]
	#DEBUG_VALUE: k <- [DW_OP_plus_uconst 16] [$rbp+0]
	#DEBUG_VALUE: propagateMagneticField:dt <- [DW_OP_plus_uconst 24] [$rbp+0]
	#DEBUG_VALUE: dt <- [DW_OP_plus_uconst 24] [$rbp+0]
	#DEBUG_VALUE: propagateMagneticField:RKCase <- [DW_OP_plus_uconst 32] [$rbp+0]
	#DEBUG_VALUE: RKCase <- [DW_OP_plus_uconst 32] [$rbp+0]
	#DEBUG_VALUE: propagateMagneticField:doX <- [DW_OP_plus_uconst 40] [$rbp+0]
	#DEBUG_VALUE: doX <- [DW_OP_plus_uconst 40] [$rbp+0]
	#DEBUG_VALUE: propagateMagneticField:doY <- [DW_OP_plus_uconst 48] [$rbp+0]
	#DEBUG_VALUE: doY <- [DW_OP_plus_uconst 48] [$rbp+0]
	#DEBUG_VALUE: propagateMagneticField:doZ <- [DW_OP_plus_uconst 56] [$rbp+0]
	#DEBUG_VALUE: doZ <- [DW_OP_plus_uconst 56] [$rbp+0]
	.loc	1 0 1 is_stmt 0         # fieldsolver/ldz_magnetic_field.cpp:0:1
	xorl	%r11d, %r11d
.Ltmp41:
.LBB0_107:                              # %L..inline.71590
	#DEBUG_VALUE: perBGrid0 <- [DW_OP_constu 136, DW_OP_minus] [$rbp+0]
	#DEBUG_VALUE: propagateMagneticField:j <- [DW_OP_constu 56, DW_OP_minus] [$rbp+0]
	#DEBUG_VALUE: j <- [DW_OP_constu 56, DW_OP_minus] [$rbp+0]
	#DEBUG_VALUE: propagateMagneticField:i <- [DW_OP_constu 48, DW_OP_minus] [$rbp+0]
	#DEBUG_VALUE: i <- [DW_OP_constu 48, DW_OP_minus] [$rbp+0]
	#DEBUG_VALUE: dz <- $xmm2
	#DEBUG_VALUE: dy <- $xmm0
	#DEBUG_VALUE: dx <- $xmm1
	#DEBUG_VALUE: propagateMagneticField:perBDt2Grid <- [DW_OP_constu 160, DW_OP_minus] [$rbp+0]
	#DEBUG_VALUE: perBDt2Grid <- [DW_OP_constu 160, DW_OP_minus] [$rbp+0]
	#DEBUG_VALUE: propagateMagneticField:EGrid <- [DW_OP_constu 96, DW_OP_minus] [$rbp+0]
	#DEBUG_VALUE: EGrid <- [DW_OP_constu 96, DW_OP_minus] [$rbp+0]
	#DEBUG_VALUE: propagateMagneticField:EDt2Grid <- [DW_OP_constu 144, DW_OP_minus] [$rbp+0]
	#DEBUG_VALUE: EDt2Grid <- [DW_OP_constu 144, DW_OP_minus] [$rbp+0]
	#DEBUG_VALUE: propagateMagneticField:k <- [DW_OP_plus_uconst 16] [$rbp+0]
	#DEBUG_VALUE: k <- [DW_OP_plus_uconst 16] [$rbp+0]
	#DEBUG_VALUE: propagateMagneticField:dt <- [DW_OP_plus_uconst 24] [$rbp+0]
	#DEBUG_VALUE: dt <- [DW_OP_plus_uconst 24] [$rbp+0]
	#DEBUG_VALUE: propagateMagneticField:RKCase <- [DW_OP_plus_uconst 32] [$rbp+0]
	#DEBUG_VALUE: RKCase <- [DW_OP_plus_uconst 32] [$rbp+0]
	#DEBUG_VALUE: propagateMagneticField:doX <- [DW_OP_plus_uconst 40] [$rbp+0]
	#DEBUG_VALUE: doX <- [DW_OP_plus_uconst 40] [$rbp+0]
	#DEBUG_VALUE: propagateMagneticField:doY <- [DW_OP_plus_uconst 48] [$rbp+0]
	#DEBUG_VALUE: doY <- [DW_OP_plus_uconst 48] [$rbp+0]
	#DEBUG_VALUE: propagateMagneticField:doZ <- [DW_OP_plus_uconst 56] [$rbp+0]
	#DEBUG_VALUE: doZ <- [DW_OP_plus_uconst 56] [$rbp+0]
	#DEBUG_VALUE: EGrid0 <- undef
	movq	-56(%rbp), %rax         # 8-byte Reload
                                        # kill: def $eax killed $eax killed $rax
	.loc	1 92 1 is_stmt 1        # fieldsolver/ldz_magnetic_field.cpp:92:1
	incl	%eax
	.loc	1 711 1                 # fieldsolver/ldz_magnetic_field.cpp:711:1
	cmovnsl	%r15d, %r14d
	movl	%eax, %ecx
	shrl	$31, %ecx
	.loc	1 715 1                 # fieldsolver/ldz_magnetic_field.cpp:715:1
	leal	3(%r14), %esi
	cmpl	-64(%rbp), %eax         # 4-byte Folded Reload
	cmovll	%r14d, %esi
	movl	$-1, %edi
	cmovll	%ecx, %edi
	.loc	1 719 1                 # fieldsolver/ldz_magnetic_field.cpp:719:1
	addl	-84(%rbp), %ebx         # 4-byte Folded Reload
	.loc	1 723 1                 # fieldsolver/ldz_magnetic_field.cpp:723:1
	addl	%esi, %ebx
	.loc	1 776 1                 # fieldsolver/ldz_magnetic_field.cpp:776:1
	cmpl	$13, %ebx
	jne	.LBB0_109
.Ltmp42:
# %bb.108:
	#DEBUG_VALUE: perBGrid0 <- [DW_OP_constu 136, DW_OP_minus] [$rbp+0]
	#DEBUG_VALUE: propagateMagneticField:j <- [DW_OP_constu 56, DW_OP_minus] [$rbp+0]
	#DEBUG_VALUE: j <- [DW_OP_constu 56, DW_OP_minus] [$rbp+0]
	#DEBUG_VALUE: propagateMagneticField:i <- [DW_OP_constu 48, DW_OP_minus] [$rbp+0]
	#DEBUG_VALUE: i <- [DW_OP_constu 48, DW_OP_minus] [$rbp+0]
	#DEBUG_VALUE: dz <- $xmm2
	#DEBUG_VALUE: dy <- $xmm0
	#DEBUG_VALUE: dx <- $xmm1
	#DEBUG_VALUE: propagateMagneticField:perBDt2Grid <- [DW_OP_constu 160, DW_OP_minus] [$rbp+0]
	#DEBUG_VALUE: perBDt2Grid <- [DW_OP_constu 160, DW_OP_minus] [$rbp+0]
	#DEBUG_VALUE: propagateMagneticField:EGrid <- [DW_OP_constu 96, DW_OP_minus] [$rbp+0]
	#DEBUG_VALUE: EGrid <- [DW_OP_constu 96, DW_OP_minus] [$rbp+0]
	#DEBUG_VALUE: propagateMagneticField:EDt2Grid <- [DW_OP_constu 144, DW_OP_minus] [$rbp+0]
	#DEBUG_VALUE: EDt2Grid <- [DW_OP_constu 144, DW_OP_minus] [$rbp+0]
	#DEBUG_VALUE: propagateMagneticField:k <- [DW_OP_plus_uconst 16] [$rbp+0]
	#DEBUG_VALUE: k <- [DW_OP_plus_uconst 16] [$rbp+0]
	#DEBUG_VALUE: propagateMagneticField:dt <- [DW_OP_plus_uconst 24] [$rbp+0]
	#DEBUG_VALUE: dt <- [DW_OP_plus_uconst 24] [$rbp+0]
	#DEBUG_VALUE: propagateMagneticField:RKCase <- [DW_OP_plus_uconst 32] [$rbp+0]
	#DEBUG_VALUE: RKCase <- [DW_OP_plus_uconst 32] [$rbp+0]
	#DEBUG_VALUE: propagateMagneticField:doX <- [DW_OP_plus_uconst 40] [$rbp+0]
	#DEBUG_VALUE: doX <- [DW_OP_plus_uconst 40] [$rbp+0]
	#DEBUG_VALUE: propagateMagneticField:doY <- [DW_OP_plus_uconst 48] [$rbp+0]
	#DEBUG_VALUE: doY <- [DW_OP_plus_uconst 48] [$rbp+0]
	#DEBUG_VALUE: propagateMagneticField:doZ <- [DW_OP_plus_uconst 56] [$rbp+0]
	#DEBUG_VALUE: doZ <- [DW_OP_plus_uconst 56] [$rbp+0]
	.loc	1 0 1 is_stmt 0         # fieldsolver/ldz_magnetic_field.cpp:0:1
	movq	-48(%rbp), %rcx         # 8-byte Reload
	movl	%ecx, %ebx
	movl	16(%rbp), %ecx
	movl	%ecx, %r8d
	movq	-56(%rbp), %r14         # 8-byte Reload
	movl	-128(%rbp), %r15d       # 4-byte Reload
.Ltmp43:
.LBB0_114:                              # %L..inline.71653
	#DEBUG_VALUE: perBGrid0 <- [DW_OP_constu 136, DW_OP_minus] [$rbp+0]
	#DEBUG_VALUE: propagateMagneticField:j <- [DW_OP_constu 56, DW_OP_minus] [$rbp+0]
	#DEBUG_VALUE: j <- [DW_OP_constu 56, DW_OP_minus] [$rbp+0]
	#DEBUG_VALUE: propagateMagneticField:i <- [DW_OP_constu 48, DW_OP_minus] [$rbp+0]
	#DEBUG_VALUE: i <- [DW_OP_constu 48, DW_OP_minus] [$rbp+0]
	#DEBUG_VALUE: dz <- $xmm2
	#DEBUG_VALUE: dy <- $xmm0
	#DEBUG_VALUE: dx <- $xmm1
	#DEBUG_VALUE: propagateMagneticField:perBDt2Grid <- [DW_OP_constu 160, DW_OP_minus] [$rbp+0]
	#DEBUG_VALUE: perBDt2Grid <- [DW_OP_constu 160, DW_OP_minus] [$rbp+0]
	#DEBUG_VALUE: propagateMagneticField:EGrid <- [DW_OP_constu 96, DW_OP_minus] [$rbp+0]
	#DEBUG_VALUE: EGrid <- [DW_OP_constu 96, DW_OP_minus] [$rbp+0]
	#DEBUG_VALUE: propagateMagneticField:EDt2Grid <- [DW_OP_constu 144, DW_OP_minus] [$rbp+0]
	#DEBUG_VALUE: EDt2Grid <- [DW_OP_constu 144, DW_OP_minus] [$rbp+0]
	#DEBUG_VALUE: propagateMagneticField:k <- [DW_OP_plus_uconst 16] [$rbp+0]
	#DEBUG_VALUE: k <- [DW_OP_plus_uconst 16] [$rbp+0]
	#DEBUG_VALUE: propagateMagneticField:dt <- [DW_OP_plus_uconst 24] [$rbp+0]
	#DEBUG_VALUE: dt <- [DW_OP_plus_uconst 24] [$rbp+0]
	#DEBUG_VALUE: propagateMagneticField:RKCase <- [DW_OP_plus_uconst 32] [$rbp+0]
	#DEBUG_VALUE: RKCase <- [DW_OP_plus_uconst 32] [$rbp+0]
	#DEBUG_VALUE: propagateMagneticField:doX <- [DW_OP_plus_uconst 40] [$rbp+0]
	#DEBUG_VALUE: doX <- [DW_OP_plus_uconst 40] [$rbp+0]
	#DEBUG_VALUE: propagateMagneticField:doY <- [DW_OP_plus_uconst 48] [$rbp+0]
	#DEBUG_VALUE: doY <- [DW_OP_plus_uconst 48] [$rbp+0]
	#DEBUG_VALUE: propagateMagneticField:doZ <- [DW_OP_plus_uconst 56] [$rbp+0]
	#DEBUG_VALUE: doZ <- [DW_OP_plus_uconst 56] [$rbp+0]
	.loc	1 793 1 is_stmt 1       # fieldsolver/ldz_magnetic_field.cpp:793:1
	cmpl	$2, 260(%rdx)
	jge	.LBB0_116
.Ltmp44:
# %bb.115:
	#DEBUG_VALUE: perBGrid0 <- [DW_OP_constu 136, DW_OP_minus] [$rbp+0]
	#DEBUG_VALUE: propagateMagneticField:j <- [DW_OP_constu 56, DW_OP_minus] [$rbp+0]
	#DEBUG_VALUE: j <- [DW_OP_constu 56, DW_OP_minus] [$rbp+0]
	#DEBUG_VALUE: propagateMagneticField:i <- [DW_OP_constu 48, DW_OP_minus] [$rbp+0]
	#DEBUG_VALUE: i <- [DW_OP_constu 48, DW_OP_minus] [$rbp+0]
	#DEBUG_VALUE: dz <- $xmm2
	#DEBUG_VALUE: dy <- $xmm0
	#DEBUG_VALUE: dx <- $xmm1
	#DEBUG_VALUE: propagateMagneticField:perBDt2Grid <- [DW_OP_constu 160, DW_OP_minus] [$rbp+0]
	#DEBUG_VALUE: perBDt2Grid <- [DW_OP_constu 160, DW_OP_minus] [$rbp+0]
	#DEBUG_VALUE: propagateMagneticField:EGrid <- [DW_OP_constu 96, DW_OP_minus] [$rbp+0]
	#DEBUG_VALUE: EGrid <- [DW_OP_constu 96, DW_OP_minus] [$rbp+0]
	#DEBUG_VALUE: propagateMagneticField:EDt2Grid <- [DW_OP_constu 144, DW_OP_minus] [$rbp+0]
	#DEBUG_VALUE: EDt2Grid <- [DW_OP_constu 144, DW_OP_minus] [$rbp+0]
	#DEBUG_VALUE: propagateMagneticField:k <- [DW_OP_plus_uconst 16] [$rbp+0]
	#DEBUG_VALUE: k <- [DW_OP_plus_uconst 16] [$rbp+0]
	#DEBUG_VALUE: propagateMagneticField:dt <- [DW_OP_plus_uconst 24] [$rbp+0]
	#DEBUG_VALUE: dt <- [DW_OP_plus_uconst 24] [$rbp+0]
	#DEBUG_VALUE: propagateMagneticField:RKCase <- [DW_OP_plus_uconst 32] [$rbp+0]
	#DEBUG_VALUE: RKCase <- [DW_OP_plus_uconst 32] [$rbp+0]
	#DEBUG_VALUE: propagateMagneticField:doX <- [DW_OP_plus_uconst 40] [$rbp+0]
	#DEBUG_VALUE: doX <- [DW_OP_plus_uconst 40] [$rbp+0]
	#DEBUG_VALUE: propagateMagneticField:doY <- [DW_OP_plus_uconst 48] [$rbp+0]
	#DEBUG_VALUE: doY <- [DW_OP_plus_uconst 48] [$rbp+0]
	#DEBUG_VALUE: propagateMagneticField:doZ <- [DW_OP_plus_uconst 56] [$rbp+0]
	#DEBUG_VALUE: doZ <- [DW_OP_plus_uconst 56] [$rbp+0]
	.loc	1 0 1 is_stmt 0         # fieldsolver/ldz_magnetic_field.cpp:0:1
	xorl	%esi, %esi
	jmp	.LBB0_117
.Ltmp45:
.LBB0_109:                              # %L.B1282
	#DEBUG_VALUE: perBGrid0 <- [DW_OP_constu 136, DW_OP_minus] [$rbp+0]
	#DEBUG_VALUE: propagateMagneticField:j <- [DW_OP_constu 56, DW_OP_minus] [$rbp+0]
	#DEBUG_VALUE: j <- [DW_OP_constu 56, DW_OP_minus] [$rbp+0]
	#DEBUG_VALUE: propagateMagneticField:i <- [DW_OP_constu 48, DW_OP_minus] [$rbp+0]
	#DEBUG_VALUE: i <- [DW_OP_constu 48, DW_OP_minus] [$rbp+0]
	#DEBUG_VALUE: dz <- $xmm2
	#DEBUG_VALUE: dy <- $xmm0
	#DEBUG_VALUE: dx <- $xmm1
	#DEBUG_VALUE: propagateMagneticField:perBDt2Grid <- [DW_OP_constu 160, DW_OP_minus] [$rbp+0]
	#DEBUG_VALUE: perBDt2Grid <- [DW_OP_constu 160, DW_OP_minus] [$rbp+0]
	#DEBUG_VALUE: propagateMagneticField:EGrid <- [DW_OP_constu 96, DW_OP_minus] [$rbp+0]
	#DEBUG_VALUE: EGrid <- [DW_OP_constu 96, DW_OP_minus] [$rbp+0]
	#DEBUG_VALUE: propagateMagneticField:EDt2Grid <- [DW_OP_constu 144, DW_OP_minus] [$rbp+0]
	#DEBUG_VALUE: EDt2Grid <- [DW_OP_constu 144, DW_OP_minus] [$rbp+0]
	#DEBUG_VALUE: propagateMagneticField:k <- [DW_OP_plus_uconst 16] [$rbp+0]
	#DEBUG_VALUE: k <- [DW_OP_plus_uconst 16] [$rbp+0]
	#DEBUG_VALUE: propagateMagneticField:dt <- [DW_OP_plus_uconst 24] [$rbp+0]
	#DEBUG_VALUE: dt <- [DW_OP_plus_uconst 24] [$rbp+0]
	#DEBUG_VALUE: propagateMagneticField:RKCase <- [DW_OP_plus_uconst 32] [$rbp+0]
	#DEBUG_VALUE: RKCase <- [DW_OP_plus_uconst 32] [$rbp+0]
	#DEBUG_VALUE: propagateMagneticField:doX <- [DW_OP_plus_uconst 40] [$rbp+0]
	#DEBUG_VALUE: doX <- [DW_OP_plus_uconst 40] [$rbp+0]
	#DEBUG_VALUE: propagateMagneticField:doY <- [DW_OP_plus_uconst 48] [$rbp+0]
	#DEBUG_VALUE: doY <- [DW_OP_plus_uconst 48] [$rbp+0]
	#DEBUG_VALUE: propagateMagneticField:doZ <- [DW_OP_plus_uconst 56] [$rbp+0]
	#DEBUG_VALUE: doZ <- [DW_OP_plus_uconst 56] [$rbp+0]
	.loc	1 779 1 is_stmt 1       # fieldsolver/ldz_magnetic_field.cpp:779:1
	movslq	%ebx, %rcx
	movl	92(%rdx,%rcx,4), %ecx
	cmpl	$-2, %ecx
	movl	-128(%rbp), %r15d       # 4-byte Reload
	jne	.LBB0_111
.Ltmp46:
# %bb.110:
	#DEBUG_VALUE: perBGrid0 <- [DW_OP_constu 136, DW_OP_minus] [$rbp+0]
	#DEBUG_VALUE: propagateMagneticField:j <- [DW_OP_constu 56, DW_OP_minus] [$rbp+0]
	#DEBUG_VALUE: j <- [DW_OP_constu 56, DW_OP_minus] [$rbp+0]
	#DEBUG_VALUE: propagateMagneticField:i <- [DW_OP_constu 48, DW_OP_minus] [$rbp+0]
	#DEBUG_VALUE: i <- [DW_OP_constu 48, DW_OP_minus] [$rbp+0]
	#DEBUG_VALUE: dz <- $xmm2
	#DEBUG_VALUE: dy <- $xmm0
	#DEBUG_VALUE: dx <- $xmm1
	#DEBUG_VALUE: propagateMagneticField:perBDt2Grid <- [DW_OP_constu 160, DW_OP_minus] [$rbp+0]
	#DEBUG_VALUE: perBDt2Grid <- [DW_OP_constu 160, DW_OP_minus] [$rbp+0]
	#DEBUG_VALUE: propagateMagneticField:EGrid <- [DW_OP_constu 96, DW_OP_minus] [$rbp+0]
	#DEBUG_VALUE: EGrid <- [DW_OP_constu 96, DW_OP_minus] [$rbp+0]
	#DEBUG_VALUE: propagateMagneticField:EDt2Grid <- [DW_OP_constu 144, DW_OP_minus] [$rbp+0]
	#DEBUG_VALUE: EDt2Grid <- [DW_OP_constu 144, DW_OP_minus] [$rbp+0]
	#DEBUG_VALUE: propagateMagneticField:k <- [DW_OP_plus_uconst 16] [$rbp+0]
	#DEBUG_VALUE: k <- [DW_OP_plus_uconst 16] [$rbp+0]
	#DEBUG_VALUE: propagateMagneticField:dt <- [DW_OP_plus_uconst 24] [$rbp+0]
	#DEBUG_VALUE: dt <- [DW_OP_plus_uconst 24] [$rbp+0]
	#DEBUG_VALUE: propagateMagneticField:RKCase <- [DW_OP_plus_uconst 32] [$rbp+0]
	#DEBUG_VALUE: RKCase <- [DW_OP_plus_uconst 32] [$rbp+0]
	#DEBUG_VALUE: propagateMagneticField:doX <- [DW_OP_plus_uconst 40] [$rbp+0]
	#DEBUG_VALUE: doX <- [DW_OP_plus_uconst 40] [$rbp+0]
	#DEBUG_VALUE: propagateMagneticField:doY <- [DW_OP_plus_uconst 48] [$rbp+0]
	#DEBUG_VALUE: doY <- [DW_OP_plus_uconst 48] [$rbp+0]
	#DEBUG_VALUE: propagateMagneticField:doZ <- [DW_OP_plus_uconst 56] [$rbp+0]
	#DEBUG_VALUE: doZ <- [DW_OP_plus_uconst 56] [$rbp+0]
	.loc	1 0 1 is_stmt 0         # fieldsolver/ldz_magnetic_field.cpp:0:1
	xorl	%r8d, %r8d
	movq	-96(%rbp), %r9          # 8-byte Reload
	movq	-56(%rbp), %r14         # 8-byte Reload
	movl	-60(%rbp), %edx         # 4-byte Reload
	jmp	.LBB0_120
.Ltmp47:
.LBB0_54:                               # %L.B1235
	#DEBUG_VALUE: perBGrid0 <- [DW_OP_constu 136, DW_OP_minus] [$rbp+0]
	#DEBUG_VALUE: propagateMagneticField:j <- [DW_OP_constu 56, DW_OP_minus] [$rbp+0]
	#DEBUG_VALUE: j <- [DW_OP_constu 56, DW_OP_minus] [$rbp+0]
	#DEBUG_VALUE: propagateMagneticField:i <- [DW_OP_constu 48, DW_OP_minus] [$rbp+0]
	#DEBUG_VALUE: i <- [DW_OP_constu 48, DW_OP_minus] [$rbp+0]
	#DEBUG_VALUE: dz <- $xmm2
	#DEBUG_VALUE: dy <- $xmm0
	#DEBUG_VALUE: dx <- $xmm1
	#DEBUG_VALUE: propagateMagneticField:perBDt2Grid <- [DW_OP_constu 160, DW_OP_minus] [$rbp+0]
	#DEBUG_VALUE: perBDt2Grid <- [DW_OP_constu 160, DW_OP_minus] [$rbp+0]
	#DEBUG_VALUE: propagateMagneticField:EGrid <- [DW_OP_constu 96, DW_OP_minus] [$rbp+0]
	#DEBUG_VALUE: EGrid <- [DW_OP_constu 96, DW_OP_minus] [$rbp+0]
	#DEBUG_VALUE: propagateMagneticField:EDt2Grid <- [DW_OP_constu 144, DW_OP_minus] [$rbp+0]
	#DEBUG_VALUE: EDt2Grid <- [DW_OP_constu 144, DW_OP_minus] [$rbp+0]
	#DEBUG_VALUE: propagateMagneticField:k <- [DW_OP_plus_uconst 16] [$rbp+0]
	#DEBUG_VALUE: k <- [DW_OP_plus_uconst 16] [$rbp+0]
	#DEBUG_VALUE: propagateMagneticField:dt <- [DW_OP_plus_uconst 24] [$rbp+0]
	#DEBUG_VALUE: dt <- [DW_OP_plus_uconst 24] [$rbp+0]
	#DEBUG_VALUE: propagateMagneticField:RKCase <- [DW_OP_plus_uconst 32] [$rbp+0]
	#DEBUG_VALUE: RKCase <- [DW_OP_plus_uconst 32] [$rbp+0]
	#DEBUG_VALUE: propagateMagneticField:doX <- [DW_OP_plus_uconst 40] [$rbp+0]
	#DEBUG_VALUE: doX <- [DW_OP_plus_uconst 40] [$rbp+0]
	#DEBUG_VALUE: propagateMagneticField:doY <- [DW_OP_plus_uconst 48] [$rbp+0]
	#DEBUG_VALUE: doY <- [DW_OP_plus_uconst 48] [$rbp+0]
	#DEBUG_VALUE: propagateMagneticField:doZ <- [DW_OP_plus_uconst 56] [$rbp+0]
	#DEBUG_VALUE: doZ <- [DW_OP_plus_uconst 56] [$rbp+0]
	.loc	1 779 1                 # fieldsolver/ldz_magnetic_field.cpp:779:1
	movslq	%ecx, %rcx
	movl	92(%rax,%rcx,4), %ecx
	cmpl	$-2, %ecx
	jne	.LBB0_56
.Ltmp48:
# %bb.55:
	#DEBUG_VALUE: perBGrid0 <- [DW_OP_constu 136, DW_OP_minus] [$rbp+0]
	#DEBUG_VALUE: propagateMagneticField:j <- [DW_OP_constu 56, DW_OP_minus] [$rbp+0]
	#DEBUG_VALUE: j <- [DW_OP_constu 56, DW_OP_minus] [$rbp+0]
	#DEBUG_VALUE: propagateMagneticField:i <- [DW_OP_constu 48, DW_OP_minus] [$rbp+0]
	#DEBUG_VALUE: i <- [DW_OP_constu 48, DW_OP_minus] [$rbp+0]
	#DEBUG_VALUE: dz <- $xmm2
	#DEBUG_VALUE: dy <- $xmm0
	#DEBUG_VALUE: dx <- $xmm1
	#DEBUG_VALUE: propagateMagneticField:perBDt2Grid <- [DW_OP_constu 160, DW_OP_minus] [$rbp+0]
	#DEBUG_VALUE: perBDt2Grid <- [DW_OP_constu 160, DW_OP_minus] [$rbp+0]
	#DEBUG_VALUE: propagateMagneticField:EGrid <- [DW_OP_constu 96, DW_OP_minus] [$rbp+0]
	#DEBUG_VALUE: EGrid <- [DW_OP_constu 96, DW_OP_minus] [$rbp+0]
	#DEBUG_VALUE: propagateMagneticField:EDt2Grid <- [DW_OP_constu 144, DW_OP_minus] [$rbp+0]
	#DEBUG_VALUE: EDt2Grid <- [DW_OP_constu 144, DW_OP_minus] [$rbp+0]
	#DEBUG_VALUE: propagateMagneticField:k <- [DW_OP_plus_uconst 16] [$rbp+0]
	#DEBUG_VALUE: k <- [DW_OP_plus_uconst 16] [$rbp+0]
	#DEBUG_VALUE: propagateMagneticField:dt <- [DW_OP_plus_uconst 24] [$rbp+0]
	#DEBUG_VALUE: dt <- [DW_OP_plus_uconst 24] [$rbp+0]
	#DEBUG_VALUE: propagateMagneticField:RKCase <- [DW_OP_plus_uconst 32] [$rbp+0]
	#DEBUG_VALUE: RKCase <- [DW_OP_plus_uconst 32] [$rbp+0]
	#DEBUG_VALUE: propagateMagneticField:doX <- [DW_OP_plus_uconst 40] [$rbp+0]
	#DEBUG_VALUE: doX <- [DW_OP_plus_uconst 40] [$rbp+0]
	#DEBUG_VALUE: propagateMagneticField:doY <- [DW_OP_plus_uconst 48] [$rbp+0]
	#DEBUG_VALUE: doY <- [DW_OP_plus_uconst 48] [$rbp+0]
	#DEBUG_VALUE: propagateMagneticField:doZ <- [DW_OP_plus_uconst 56] [$rbp+0]
	#DEBUG_VALUE: doZ <- [DW_OP_plus_uconst 56] [$rbp+0]
	.loc	1 0 1                   # fieldsolver/ldz_magnetic_field.cpp:0:1
	xorl	%eax, %eax
	movq	%rax, -128(%rbp)        # 8-byte Spill
	jmp	.LBB0_64
.Ltmp49:
.LBB0_19:                               # %L.B1202
	#DEBUG_VALUE: perBGrid0 <- [DW_OP_constu 136, DW_OP_minus] [$rbp+0]
	#DEBUG_VALUE: propagateMagneticField:j <- [DW_OP_constu 56, DW_OP_minus] [$rbp+0]
	#DEBUG_VALUE: j <- [DW_OP_constu 56, DW_OP_minus] [$rbp+0]
	#DEBUG_VALUE: propagateMagneticField:i <- [DW_OP_constu 48, DW_OP_minus] [$rbp+0]
	#DEBUG_VALUE: i <- [DW_OP_constu 48, DW_OP_minus] [$rbp+0]
	#DEBUG_VALUE: dz <- $xmm2
	#DEBUG_VALUE: dy <- $xmm0
	#DEBUG_VALUE: dx <- $xmm1
	#DEBUG_VALUE: propagateMagneticField:perBDt2Grid <- [DW_OP_constu 160, DW_OP_minus] [$rbp+0]
	#DEBUG_VALUE: perBDt2Grid <- [DW_OP_constu 160, DW_OP_minus] [$rbp+0]
	#DEBUG_VALUE: propagateMagneticField:EGrid <- [DW_OP_constu 96, DW_OP_minus] [$rbp+0]
	#DEBUG_VALUE: EGrid <- [DW_OP_constu 96, DW_OP_minus] [$rbp+0]
	#DEBUG_VALUE: propagateMagneticField:EDt2Grid <- [DW_OP_constu 144, DW_OP_minus] [$rbp+0]
	#DEBUG_VALUE: EDt2Grid <- [DW_OP_constu 144, DW_OP_minus] [$rbp+0]
	#DEBUG_VALUE: propagateMagneticField:k <- [DW_OP_plus_uconst 16] [$rbp+0]
	#DEBUG_VALUE: k <- [DW_OP_plus_uconst 16] [$rbp+0]
	#DEBUG_VALUE: propagateMagneticField:dt <- [DW_OP_plus_uconst 24] [$rbp+0]
	#DEBUG_VALUE: dt <- [DW_OP_plus_uconst 24] [$rbp+0]
	#DEBUG_VALUE: propagateMagneticField:RKCase <- [DW_OP_plus_uconst 32] [$rbp+0]
	#DEBUG_VALUE: RKCase <- [DW_OP_plus_uconst 32] [$rbp+0]
	#DEBUG_VALUE: propagateMagneticField:doX <- [DW_OP_plus_uconst 40] [$rbp+0]
	#DEBUG_VALUE: doX <- [DW_OP_plus_uconst 40] [$rbp+0]
	#DEBUG_VALUE: propagateMagneticField:doY <- [DW_OP_plus_uconst 48] [$rbp+0]
	#DEBUG_VALUE: doY <- [DW_OP_plus_uconst 48] [$rbp+0]
	#DEBUG_VALUE: propagateMagneticField:doZ <- [DW_OP_plus_uconst 56] [$rbp+0]
	#DEBUG_VALUE: doZ <- [DW_OP_plus_uconst 56] [$rbp+0]
	.loc	1 779 1                 # fieldsolver/ldz_magnetic_field.cpp:779:1
	movslq	%ebx, %rax
	movl	92(%r9,%rax,4), %ecx
	cmpl	$-2, %ecx
	jne	.LBB0_21
.Ltmp50:
# %bb.20:
	#DEBUG_VALUE: perBGrid0 <- [DW_OP_constu 136, DW_OP_minus] [$rbp+0]
	#DEBUG_VALUE: propagateMagneticField:j <- [DW_OP_constu 56, DW_OP_minus] [$rbp+0]
	#DEBUG_VALUE: j <- [DW_OP_constu 56, DW_OP_minus] [$rbp+0]
	#DEBUG_VALUE: propagateMagneticField:i <- [DW_OP_constu 48, DW_OP_minus] [$rbp+0]
	#DEBUG_VALUE: i <- [DW_OP_constu 48, DW_OP_minus] [$rbp+0]
	#DEBUG_VALUE: dz <- $xmm2
	#DEBUG_VALUE: dy <- $xmm0
	#DEBUG_VALUE: dx <- $xmm1
	#DEBUG_VALUE: propagateMagneticField:perBDt2Grid <- [DW_OP_constu 160, DW_OP_minus] [$rbp+0]
	#DEBUG_VALUE: perBDt2Grid <- [DW_OP_constu 160, DW_OP_minus] [$rbp+0]
	#DEBUG_VALUE: propagateMagneticField:EGrid <- [DW_OP_constu 96, DW_OP_minus] [$rbp+0]
	#DEBUG_VALUE: EGrid <- [DW_OP_constu 96, DW_OP_minus] [$rbp+0]
	#DEBUG_VALUE: propagateMagneticField:EDt2Grid <- [DW_OP_constu 144, DW_OP_minus] [$rbp+0]
	#DEBUG_VALUE: EDt2Grid <- [DW_OP_constu 144, DW_OP_minus] [$rbp+0]
	#DEBUG_VALUE: propagateMagneticField:k <- [DW_OP_plus_uconst 16] [$rbp+0]
	#DEBUG_VALUE: k <- [DW_OP_plus_uconst 16] [$rbp+0]
	#DEBUG_VALUE: propagateMagneticField:dt <- [DW_OP_plus_uconst 24] [$rbp+0]
	#DEBUG_VALUE: dt <- [DW_OP_plus_uconst 24] [$rbp+0]
	#DEBUG_VALUE: propagateMagneticField:RKCase <- [DW_OP_plus_uconst 32] [$rbp+0]
	#DEBUG_VALUE: RKCase <- [DW_OP_plus_uconst 32] [$rbp+0]
	#DEBUG_VALUE: propagateMagneticField:doX <- [DW_OP_plus_uconst 40] [$rbp+0]
	#DEBUG_VALUE: doX <- [DW_OP_plus_uconst 40] [$rbp+0]
	#DEBUG_VALUE: propagateMagneticField:doY <- [DW_OP_plus_uconst 48] [$rbp+0]
	#DEBUG_VALUE: doY <- [DW_OP_plus_uconst 48] [$rbp+0]
	#DEBUG_VALUE: propagateMagneticField:doZ <- [DW_OP_plus_uconst 56] [$rbp+0]
	#DEBUG_VALUE: doZ <- [DW_OP_plus_uconst 56] [$rbp+0]
	.loc	1 0 1                   # fieldsolver/ldz_magnetic_field.cpp:0:1
	xorl	%r11d, %r11d
	jmp	.LBB0_29
.Ltmp51:
.LBB0_103:                              # %L.B1274
	#DEBUG_VALUE: perBGrid0 <- [DW_OP_constu 136, DW_OP_minus] [$rbp+0]
	#DEBUG_VALUE: propagateMagneticField:j <- [DW_OP_constu 56, DW_OP_minus] [$rbp+0]
	#DEBUG_VALUE: j <- [DW_OP_constu 56, DW_OP_minus] [$rbp+0]
	#DEBUG_VALUE: propagateMagneticField:i <- [DW_OP_constu 48, DW_OP_minus] [$rbp+0]
	#DEBUG_VALUE: i <- [DW_OP_constu 48, DW_OP_minus] [$rbp+0]
	#DEBUG_VALUE: dz <- $xmm2
	#DEBUG_VALUE: dy <- $xmm0
	#DEBUG_VALUE: dx <- $xmm1
	#DEBUG_VALUE: propagateMagneticField:perBDt2Grid <- [DW_OP_constu 160, DW_OP_minus] [$rbp+0]
	#DEBUG_VALUE: perBDt2Grid <- [DW_OP_constu 160, DW_OP_minus] [$rbp+0]
	#DEBUG_VALUE: propagateMagneticField:EGrid <- [DW_OP_constu 96, DW_OP_minus] [$rbp+0]
	#DEBUG_VALUE: EGrid <- [DW_OP_constu 96, DW_OP_minus] [$rbp+0]
	#DEBUG_VALUE: propagateMagneticField:EDt2Grid <- [DW_OP_constu 144, DW_OP_minus] [$rbp+0]
	#DEBUG_VALUE: EDt2Grid <- [DW_OP_constu 144, DW_OP_minus] [$rbp+0]
	#DEBUG_VALUE: propagateMagneticField:k <- [DW_OP_plus_uconst 16] [$rbp+0]
	#DEBUG_VALUE: k <- [DW_OP_plus_uconst 16] [$rbp+0]
	#DEBUG_VALUE: propagateMagneticField:dt <- [DW_OP_plus_uconst 24] [$rbp+0]
	#DEBUG_VALUE: dt <- [DW_OP_plus_uconst 24] [$rbp+0]
	#DEBUG_VALUE: propagateMagneticField:RKCase <- [DW_OP_plus_uconst 32] [$rbp+0]
	#DEBUG_VALUE: RKCase <- [DW_OP_plus_uconst 32] [$rbp+0]
	#DEBUG_VALUE: propagateMagneticField:doX <- [DW_OP_plus_uconst 40] [$rbp+0]
	#DEBUG_VALUE: doX <- [DW_OP_plus_uconst 40] [$rbp+0]
	#DEBUG_VALUE: propagateMagneticField:doY <- [DW_OP_plus_uconst 48] [$rbp+0]
	#DEBUG_VALUE: doY <- [DW_OP_plus_uconst 48] [$rbp+0]
	#DEBUG_VALUE: propagateMagneticField:doZ <- [DW_OP_plus_uconst 56] [$rbp+0]
	#DEBUG_VALUE: doZ <- [DW_OP_plus_uconst 56] [$rbp+0]
	.loc	1 793 1 is_stmt 1       # fieldsolver/ldz_magnetic_field.cpp:793:1
	addl	$2, %eax
	imull	280(%rdx), %eax
	imull	276(%rdx), %eax
	cltq
	cmpl	$2, 256(%rdx)
	jge	.LBB0_105
	jmp	.LBB0_106
.Ltmp52:
.LBB0_60:                               # %L.B1238
	#DEBUG_VALUE: perBGrid0 <- [DW_OP_constu 136, DW_OP_minus] [$rbp+0]
	#DEBUG_VALUE: propagateMagneticField:j <- [DW_OP_constu 56, DW_OP_minus] [$rbp+0]
	#DEBUG_VALUE: j <- [DW_OP_constu 56, DW_OP_minus] [$rbp+0]
	#DEBUG_VALUE: propagateMagneticField:i <- [DW_OP_constu 48, DW_OP_minus] [$rbp+0]
	#DEBUG_VALUE: i <- [DW_OP_constu 48, DW_OP_minus] [$rbp+0]
	#DEBUG_VALUE: dz <- $xmm2
	#DEBUG_VALUE: dy <- $xmm0
	#DEBUG_VALUE: dx <- $xmm1
	#DEBUG_VALUE: propagateMagneticField:perBDt2Grid <- [DW_OP_constu 160, DW_OP_minus] [$rbp+0]
	#DEBUG_VALUE: perBDt2Grid <- [DW_OP_constu 160, DW_OP_minus] [$rbp+0]
	#DEBUG_VALUE: propagateMagneticField:EGrid <- [DW_OP_constu 96, DW_OP_minus] [$rbp+0]
	#DEBUG_VALUE: EGrid <- [DW_OP_constu 96, DW_OP_minus] [$rbp+0]
	#DEBUG_VALUE: propagateMagneticField:EDt2Grid <- [DW_OP_constu 144, DW_OP_minus] [$rbp+0]
	#DEBUG_VALUE: EDt2Grid <- [DW_OP_constu 144, DW_OP_minus] [$rbp+0]
	#DEBUG_VALUE: propagateMagneticField:k <- [DW_OP_plus_uconst 16] [$rbp+0]
	#DEBUG_VALUE: k <- [DW_OP_plus_uconst 16] [$rbp+0]
	#DEBUG_VALUE: propagateMagneticField:dt <- [DW_OP_plus_uconst 24] [$rbp+0]
	#DEBUG_VALUE: dt <- [DW_OP_plus_uconst 24] [$rbp+0]
	#DEBUG_VALUE: propagateMagneticField:RKCase <- [DW_OP_plus_uconst 32] [$rbp+0]
	#DEBUG_VALUE: RKCase <- [DW_OP_plus_uconst 32] [$rbp+0]
	#DEBUG_VALUE: propagateMagneticField:doX <- [DW_OP_plus_uconst 40] [$rbp+0]
	#DEBUG_VALUE: doX <- [DW_OP_plus_uconst 40] [$rbp+0]
	#DEBUG_VALUE: propagateMagneticField:doY <- [DW_OP_plus_uconst 48] [$rbp+0]
	#DEBUG_VALUE: doY <- [DW_OP_plus_uconst 48] [$rbp+0]
	#DEBUG_VALUE: propagateMagneticField:doZ <- [DW_OP_plus_uconst 56] [$rbp+0]
	#DEBUG_VALUE: doZ <- [DW_OP_plus_uconst 56] [$rbp+0]
	addl	$2, %esi
	imull	280(%rax), %esi
	imull	276(%rax), %esi
	movslq	%esi, %rbx
	cmpl	$2, 256(%rax)
	jl	.LBB0_63
.Ltmp53:
.LBB0_62:                               # %L.B1239
	#DEBUG_VALUE: perBGrid0 <- [DW_OP_constu 136, DW_OP_minus] [$rbp+0]
	#DEBUG_VALUE: propagateMagneticField:j <- [DW_OP_constu 56, DW_OP_minus] [$rbp+0]
	#DEBUG_VALUE: j <- [DW_OP_constu 56, DW_OP_minus] [$rbp+0]
	#DEBUG_VALUE: propagateMagneticField:i <- [DW_OP_constu 48, DW_OP_minus] [$rbp+0]
	#DEBUG_VALUE: i <- [DW_OP_constu 48, DW_OP_minus] [$rbp+0]
	#DEBUG_VALUE: dz <- $xmm2
	#DEBUG_VALUE: dy <- $xmm0
	#DEBUG_VALUE: dx <- $xmm1
	#DEBUG_VALUE: propagateMagneticField:perBDt2Grid <- [DW_OP_constu 160, DW_OP_minus] [$rbp+0]
	#DEBUG_VALUE: perBDt2Grid <- [DW_OP_constu 160, DW_OP_minus] [$rbp+0]
	#DEBUG_VALUE: propagateMagneticField:EGrid <- [DW_OP_constu 96, DW_OP_minus] [$rbp+0]
	#DEBUG_VALUE: EGrid <- [DW_OP_constu 96, DW_OP_minus] [$rbp+0]
	#DEBUG_VALUE: propagateMagneticField:EDt2Grid <- [DW_OP_constu 144, DW_OP_minus] [$rbp+0]
	#DEBUG_VALUE: EDt2Grid <- [DW_OP_constu 144, DW_OP_minus] [$rbp+0]
	#DEBUG_VALUE: propagateMagneticField:k <- [DW_OP_plus_uconst 16] [$rbp+0]
	#DEBUG_VALUE: k <- [DW_OP_plus_uconst 16] [$rbp+0]
	#DEBUG_VALUE: propagateMagneticField:dt <- [DW_OP_plus_uconst 24] [$rbp+0]
	#DEBUG_VALUE: dt <- [DW_OP_plus_uconst 24] [$rbp+0]
	#DEBUG_VALUE: propagateMagneticField:RKCase <- [DW_OP_plus_uconst 32] [$rbp+0]
	#DEBUG_VALUE: RKCase <- [DW_OP_plus_uconst 32] [$rbp+0]
	#DEBUG_VALUE: propagateMagneticField:doX <- [DW_OP_plus_uconst 40] [$rbp+0]
	#DEBUG_VALUE: doX <- [DW_OP_plus_uconst 40] [$rbp+0]
	#DEBUG_VALUE: propagateMagneticField:doY <- [DW_OP_plus_uconst 48] [$rbp+0]
	#DEBUG_VALUE: doY <- [DW_OP_plus_uconst 48] [$rbp+0]
	#DEBUG_VALUE: propagateMagneticField:doZ <- [DW_OP_plus_uconst 56] [$rbp+0]
	#DEBUG_VALUE: doZ <- [DW_OP_plus_uconst 56] [$rbp+0]
	addl	$2, %edi
	imull	276(%rax), %edi
	movslq	%edi, %rcx
	addq	%rcx, %rbx
.Ltmp54:
.LBB0_63:                               # %L..inline.70380
	#DEBUG_VALUE: perBGrid0 <- [DW_OP_constu 136, DW_OP_minus] [$rbp+0]
	#DEBUG_VALUE: propagateMagneticField:j <- [DW_OP_constu 56, DW_OP_minus] [$rbp+0]
	#DEBUG_VALUE: j <- [DW_OP_constu 56, DW_OP_minus] [$rbp+0]
	#DEBUG_VALUE: propagateMagneticField:i <- [DW_OP_constu 48, DW_OP_minus] [$rbp+0]
	#DEBUG_VALUE: i <- [DW_OP_constu 48, DW_OP_minus] [$rbp+0]
	#DEBUG_VALUE: dz <- $xmm2
	#DEBUG_VALUE: dy <- $xmm0
	#DEBUG_VALUE: dx <- $xmm1
	#DEBUG_VALUE: propagateMagneticField:perBDt2Grid <- [DW_OP_constu 160, DW_OP_minus] [$rbp+0]
	#DEBUG_VALUE: perBDt2Grid <- [DW_OP_constu 160, DW_OP_minus] [$rbp+0]
	#DEBUG_VALUE: propagateMagneticField:EGrid <- [DW_OP_constu 96, DW_OP_minus] [$rbp+0]
	#DEBUG_VALUE: EGrid <- [DW_OP_constu 96, DW_OP_minus] [$rbp+0]
	#DEBUG_VALUE: propagateMagneticField:EDt2Grid <- [DW_OP_constu 144, DW_OP_minus] [$rbp+0]
	#DEBUG_VALUE: EDt2Grid <- [DW_OP_constu 144, DW_OP_minus] [$rbp+0]
	#DEBUG_VALUE: propagateMagneticField:k <- [DW_OP_plus_uconst 16] [$rbp+0]
	#DEBUG_VALUE: k <- [DW_OP_plus_uconst 16] [$rbp+0]
	#DEBUG_VALUE: propagateMagneticField:dt <- [DW_OP_plus_uconst 24] [$rbp+0]
	#DEBUG_VALUE: dt <- [DW_OP_plus_uconst 24] [$rbp+0]
	#DEBUG_VALUE: propagateMagneticField:RKCase <- [DW_OP_plus_uconst 32] [$rbp+0]
	#DEBUG_VALUE: RKCase <- [DW_OP_plus_uconst 32] [$rbp+0]
	#DEBUG_VALUE: propagateMagneticField:doX <- [DW_OP_plus_uconst 40] [$rbp+0]
	#DEBUG_VALUE: doX <- [DW_OP_plus_uconst 40] [$rbp+0]
	#DEBUG_VALUE: propagateMagneticField:doY <- [DW_OP_plus_uconst 48] [$rbp+0]
	#DEBUG_VALUE: doY <- [DW_OP_plus_uconst 48] [$rbp+0]
	#DEBUG_VALUE: propagateMagneticField:doZ <- [DW_OP_plus_uconst 56] [$rbp+0]
	#DEBUG_VALUE: doZ <- [DW_OP_plus_uconst 56] [$rbp+0]
	movslq	%r14d, %rcx
	addq	$2, %rcx
	xorl	%esi, %esi
	cmpl	$2, 252(%rax)
	cmovgeq	%rcx, %rsi
	addq	%rbx, %rsi
	.loc	1 795 1                 # fieldsolver/ldz_magnetic_field.cpp:795:1
	leaq	(%rsi,%rsi,2), %rcx
	shlq	$3, %rcx
	addq	744(%rax), %rcx
	movq	%rcx, -128(%rbp)        # 8-byte Spill
.Ltmp55:
.LBB0_64:                               # %L..inline.70426
	#DEBUG_VALUE: perBGrid0 <- [DW_OP_constu 136, DW_OP_minus] [$rbp+0]
	#DEBUG_VALUE: propagateMagneticField:j <- [DW_OP_constu 56, DW_OP_minus] [$rbp+0]
	#DEBUG_VALUE: j <- [DW_OP_constu 56, DW_OP_minus] [$rbp+0]
	#DEBUG_VALUE: propagateMagneticField:i <- [DW_OP_constu 48, DW_OP_minus] [$rbp+0]
	#DEBUG_VALUE: i <- [DW_OP_constu 48, DW_OP_minus] [$rbp+0]
	#DEBUG_VALUE: dz <- $xmm2
	#DEBUG_VALUE: dy <- $xmm0
	#DEBUG_VALUE: dx <- $xmm1
	#DEBUG_VALUE: propagateMagneticField:perBDt2Grid <- [DW_OP_constu 160, DW_OP_minus] [$rbp+0]
	#DEBUG_VALUE: perBDt2Grid <- [DW_OP_constu 160, DW_OP_minus] [$rbp+0]
	#DEBUG_VALUE: propagateMagneticField:EGrid <- [DW_OP_constu 96, DW_OP_minus] [$rbp+0]
	#DEBUG_VALUE: EGrid <- [DW_OP_constu 96, DW_OP_minus] [$rbp+0]
	#DEBUG_VALUE: propagateMagneticField:EDt2Grid <- [DW_OP_constu 144, DW_OP_minus] [$rbp+0]
	#DEBUG_VALUE: EDt2Grid <- [DW_OP_constu 144, DW_OP_minus] [$rbp+0]
	#DEBUG_VALUE: propagateMagneticField:k <- [DW_OP_plus_uconst 16] [$rbp+0]
	#DEBUG_VALUE: k <- [DW_OP_plus_uconst 16] [$rbp+0]
	#DEBUG_VALUE: propagateMagneticField:dt <- [DW_OP_plus_uconst 24] [$rbp+0]
	#DEBUG_VALUE: dt <- [DW_OP_plus_uconst 24] [$rbp+0]
	#DEBUG_VALUE: propagateMagneticField:RKCase <- [DW_OP_plus_uconst 32] [$rbp+0]
	#DEBUG_VALUE: RKCase <- [DW_OP_plus_uconst 32] [$rbp+0]
	#DEBUG_VALUE: propagateMagneticField:doX <- [DW_OP_plus_uconst 40] [$rbp+0]
	#DEBUG_VALUE: doX <- [DW_OP_plus_uconst 40] [$rbp+0]
	#DEBUG_VALUE: propagateMagneticField:doY <- [DW_OP_plus_uconst 48] [$rbp+0]
	#DEBUG_VALUE: doY <- [DW_OP_plus_uconst 48] [$rbp+0]
	#DEBUG_VALUE: propagateMagneticField:doZ <- [DW_OP_plus_uconst 56] [$rbp+0]
	#DEBUG_VALUE: doZ <- [DW_OP_plus_uconst 56] [$rbp+0]
	.loc	1 0 1 is_stmt 0         # fieldsolver/ldz_magnetic_field.cpp:0:1
	movq	-56(%rbp), %r14         # 8-byte Reload
.Ltmp56:
	#DEBUG_VALUE: perBDt2Grid0 <- [DW_OP_constu 128, DW_OP_minus] [$rbp+0]
	.loc	1 707 1 is_stmt 1       # fieldsolver/ldz_magnetic_field.cpp:707:1
	movl	264(%r9), %eax
	.loc	1 715 1                 # fieldsolver/ldz_magnetic_field.cpp:715:1
	movl	268(%r9), %edx
	movq	-48(%rbp), %rcx         # 8-byte Reload
	movl	%eax, -116(%rbp)        # 4-byte Spill
	.loc	1 707 1                 # fieldsolver/ldz_magnetic_field.cpp:707:1
	cmpl	%ecx, %eax
	movl	$-1, %r12d
	movl	$-1, %eax
	cmovgl	-76(%rbp), %eax         # 4-byte Folded Reload
	movl	%eax, -108(%rbp)        # 4-byte Spill
	movq	-104(%rbp), %r15        # 8-byte Reload
                                        # kill: def $r15d killed $r15d killed $r15 def $r15
	cmovgl	-80(%rbp), %r15d        # 4-byte Folded Reload
	.loc	1 711 1                 # fieldsolver/ldz_magnetic_field.cpp:711:1
	leal	-3(%r15), %r13d
	testl	%r14d, %r14d
	movl	%r13d, %eax
	cmovnsl	%r15d, %eax
	.loc	1 715 1                 # fieldsolver/ldz_magnetic_field.cpp:715:1
	leal	3(%rax), %r11d
	movl	%edx, -64(%rbp)         # 4-byte Spill
	cmpl	%r14d, %edx
	movl	$-1, %r10d
	cmovgl	-72(%rbp), %r10d        # 4-byte Folded Reload
	cmovgl	%eax, %r11d
	.loc	1 719 1                 # fieldsolver/ldz_magnetic_field.cpp:719:1
	leal	-1(%r11), %ebx
	movl	16(%rbp), %eax
	testl	%eax, %eax
	movl	%ebx, -112(%rbp)        # 4-byte Spill
	cmovnsl	%r11d, %ebx
	.loc	1 723 1                 # fieldsolver/ldz_magnetic_field.cpp:723:1
	movl	272(%r9), %edx
	xorl	%edi, %edi
	movl	%edx, -60(%rbp)         # 4-byte Spill
	cmpl	%eax, %edx
	setle	%dil
	cmovgl	-68(%rbp), %r12d        # 4-byte Folded Reload
	addl	%edi, %ebx
	.loc	1 0 0 is_stmt 0         # fieldsolver/ldz_magnetic_field.cpp:0:0
	movl	%eax, %esi
	movl	%r14d, %eax
	movl	%ecx, %r8d
	.loc	1 776 1 is_stmt 1       # fieldsolver/ldz_magnetic_field.cpp:776:1
	cmpl	$13, %ebx
	jne	.LBB0_65
.Ltmp57:
.LBB0_69:                               # %L..inline.70489
	#DEBUG_VALUE: perBDt2Grid0 <- [DW_OP_constu 128, DW_OP_minus] [$rbp+0]
	#DEBUG_VALUE: perBGrid0 <- [DW_OP_constu 136, DW_OP_minus] [$rbp+0]
	#DEBUG_VALUE: propagateMagneticField:j <- [DW_OP_constu 56, DW_OP_minus] [$rbp+0]
	#DEBUG_VALUE: j <- [DW_OP_constu 56, DW_OP_minus] [$rbp+0]
	#DEBUG_VALUE: propagateMagneticField:i <- [DW_OP_constu 48, DW_OP_minus] [$rbp+0]
	#DEBUG_VALUE: i <- [DW_OP_constu 48, DW_OP_minus] [$rbp+0]
	#DEBUG_VALUE: dz <- $xmm2
	#DEBUG_VALUE: dy <- $xmm0
	#DEBUG_VALUE: dx <- $xmm1
	#DEBUG_VALUE: propagateMagneticField:perBDt2Grid <- [DW_OP_constu 160, DW_OP_minus] [$rbp+0]
	#DEBUG_VALUE: perBDt2Grid <- [DW_OP_constu 160, DW_OP_minus] [$rbp+0]
	#DEBUG_VALUE: propagateMagneticField:EGrid <- [DW_OP_constu 96, DW_OP_minus] [$rbp+0]
	#DEBUG_VALUE: EGrid <- [DW_OP_constu 96, DW_OP_minus] [$rbp+0]
	#DEBUG_VALUE: propagateMagneticField:EDt2Grid <- [DW_OP_constu 144, DW_OP_minus] [$rbp+0]
	#DEBUG_VALUE: EDt2Grid <- [DW_OP_constu 144, DW_OP_minus] [$rbp+0]
	#DEBUG_VALUE: propagateMagneticField:k <- [DW_OP_plus_uconst 16] [$rbp+0]
	#DEBUG_VALUE: k <- [DW_OP_plus_uconst 16] [$rbp+0]
	#DEBUG_VALUE: propagateMagneticField:dt <- [DW_OP_plus_uconst 24] [$rbp+0]
	#DEBUG_VALUE: dt <- [DW_OP_plus_uconst 24] [$rbp+0]
	#DEBUG_VALUE: propagateMagneticField:RKCase <- [DW_OP_plus_uconst 32] [$rbp+0]
	#DEBUG_VALUE: RKCase <- [DW_OP_plus_uconst 32] [$rbp+0]
	#DEBUG_VALUE: propagateMagneticField:doX <- [DW_OP_plus_uconst 40] [$rbp+0]
	#DEBUG_VALUE: doX <- [DW_OP_plus_uconst 40] [$rbp+0]
	#DEBUG_VALUE: propagateMagneticField:doY <- [DW_OP_plus_uconst 48] [$rbp+0]
	#DEBUG_VALUE: doY <- [DW_OP_plus_uconst 48] [$rbp+0]
	#DEBUG_VALUE: propagateMagneticField:doZ <- [DW_OP_plus_uconst 56] [$rbp+0]
	#DEBUG_VALUE: doZ <- [DW_OP_plus_uconst 56] [$rbp+0]
	.loc	1 793 1                 # fieldsolver/ldz_magnetic_field.cpp:793:1
	cmpl	$2, 260(%r9)
	jge	.LBB0_71
.Ltmp58:
# %bb.70:
	#DEBUG_VALUE: perBDt2Grid0 <- [DW_OP_constu 128, DW_OP_minus] [$rbp+0]
	#DEBUG_VALUE: perBGrid0 <- [DW_OP_constu 136, DW_OP_minus] [$rbp+0]
	#DEBUG_VALUE: propagateMagneticField:j <- [DW_OP_constu 56, DW_OP_minus] [$rbp+0]
	#DEBUG_VALUE: j <- [DW_OP_constu 56, DW_OP_minus] [$rbp+0]
	#DEBUG_VALUE: propagateMagneticField:i <- [DW_OP_constu 48, DW_OP_minus] [$rbp+0]
	#DEBUG_VALUE: i <- [DW_OP_constu 48, DW_OP_minus] [$rbp+0]
	#DEBUG_VALUE: dz <- $xmm2
	#DEBUG_VALUE: dy <- $xmm0
	#DEBUG_VALUE: dx <- $xmm1
	#DEBUG_VALUE: propagateMagneticField:perBDt2Grid <- [DW_OP_constu 160, DW_OP_minus] [$rbp+0]
	#DEBUG_VALUE: perBDt2Grid <- [DW_OP_constu 160, DW_OP_minus] [$rbp+0]
	#DEBUG_VALUE: propagateMagneticField:EGrid <- [DW_OP_constu 96, DW_OP_minus] [$rbp+0]
	#DEBUG_VALUE: EGrid <- [DW_OP_constu 96, DW_OP_minus] [$rbp+0]
	#DEBUG_VALUE: propagateMagneticField:EDt2Grid <- [DW_OP_constu 144, DW_OP_minus] [$rbp+0]
	#DEBUG_VALUE: EDt2Grid <- [DW_OP_constu 144, DW_OP_minus] [$rbp+0]
	#DEBUG_VALUE: propagateMagneticField:k <- [DW_OP_plus_uconst 16] [$rbp+0]
	#DEBUG_VALUE: k <- [DW_OP_plus_uconst 16] [$rbp+0]
	#DEBUG_VALUE: propagateMagneticField:dt <- [DW_OP_plus_uconst 24] [$rbp+0]
	#DEBUG_VALUE: dt <- [DW_OP_plus_uconst 24] [$rbp+0]
	#DEBUG_VALUE: propagateMagneticField:RKCase <- [DW_OP_plus_uconst 32] [$rbp+0]
	#DEBUG_VALUE: RKCase <- [DW_OP_plus_uconst 32] [$rbp+0]
	#DEBUG_VALUE: propagateMagneticField:doX <- [DW_OP_plus_uconst 40] [$rbp+0]
	#DEBUG_VALUE: doX <- [DW_OP_plus_uconst 40] [$rbp+0]
	#DEBUG_VALUE: propagateMagneticField:doY <- [DW_OP_plus_uconst 48] [$rbp+0]
	#DEBUG_VALUE: doY <- [DW_OP_plus_uconst 48] [$rbp+0]
	#DEBUG_VALUE: propagateMagneticField:doZ <- [DW_OP_plus_uconst 56] [$rbp+0]
	#DEBUG_VALUE: doZ <- [DW_OP_plus_uconst 56] [$rbp+0]
	.loc	1 0 1 is_stmt 0         # fieldsolver/ldz_magnetic_field.cpp:0:1
	xorl	%esi, %esi
	.loc	1 793 1                 # fieldsolver/ldz_magnetic_field.cpp:793:1
	cmpl	$2, 256(%r9)
	jge	.LBB0_73
	jmp	.LBB0_74
.Ltmp59:
.LBB0_65:                               # %L.B1246
	#DEBUG_VALUE: perBDt2Grid0 <- [DW_OP_constu 128, DW_OP_minus] [$rbp+0]
	#DEBUG_VALUE: perBGrid0 <- [DW_OP_constu 136, DW_OP_minus] [$rbp+0]
	#DEBUG_VALUE: propagateMagneticField:j <- [DW_OP_constu 56, DW_OP_minus] [$rbp+0]
	#DEBUG_VALUE: j <- [DW_OP_constu 56, DW_OP_minus] [$rbp+0]
	#DEBUG_VALUE: propagateMagneticField:i <- [DW_OP_constu 48, DW_OP_minus] [$rbp+0]
	#DEBUG_VALUE: i <- [DW_OP_constu 48, DW_OP_minus] [$rbp+0]
	#DEBUG_VALUE: dz <- $xmm2
	#DEBUG_VALUE: dy <- $xmm0
	#DEBUG_VALUE: dx <- $xmm1
	#DEBUG_VALUE: propagateMagneticField:perBDt2Grid <- [DW_OP_constu 160, DW_OP_minus] [$rbp+0]
	#DEBUG_VALUE: perBDt2Grid <- [DW_OP_constu 160, DW_OP_minus] [$rbp+0]
	#DEBUG_VALUE: propagateMagneticField:EGrid <- [DW_OP_constu 96, DW_OP_minus] [$rbp+0]
	#DEBUG_VALUE: EGrid <- [DW_OP_constu 96, DW_OP_minus] [$rbp+0]
	#DEBUG_VALUE: propagateMagneticField:EDt2Grid <- [DW_OP_constu 144, DW_OP_minus] [$rbp+0]
	#DEBUG_VALUE: EDt2Grid <- [DW_OP_constu 144, DW_OP_minus] [$rbp+0]
	#DEBUG_VALUE: propagateMagneticField:k <- [DW_OP_plus_uconst 16] [$rbp+0]
	#DEBUG_VALUE: k <- [DW_OP_plus_uconst 16] [$rbp+0]
	#DEBUG_VALUE: propagateMagneticField:dt <- [DW_OP_plus_uconst 24] [$rbp+0]
	#DEBUG_VALUE: dt <- [DW_OP_plus_uconst 24] [$rbp+0]
	#DEBUG_VALUE: propagateMagneticField:RKCase <- [DW_OP_plus_uconst 32] [$rbp+0]
	#DEBUG_VALUE: RKCase <- [DW_OP_plus_uconst 32] [$rbp+0]
	#DEBUG_VALUE: propagateMagneticField:doX <- [DW_OP_plus_uconst 40] [$rbp+0]
	#DEBUG_VALUE: doX <- [DW_OP_plus_uconst 40] [$rbp+0]
	#DEBUG_VALUE: propagateMagneticField:doY <- [DW_OP_plus_uconst 48] [$rbp+0]
	#DEBUG_VALUE: doY <- [DW_OP_plus_uconst 48] [$rbp+0]
	#DEBUG_VALUE: propagateMagneticField:doZ <- [DW_OP_plus_uconst 56] [$rbp+0]
	#DEBUG_VALUE: doZ <- [DW_OP_plus_uconst 56] [$rbp+0]
	.loc	1 779 1 is_stmt 1       # fieldsolver/ldz_magnetic_field.cpp:779:1
	movslq	%ebx, %rax
	movl	92(%r9,%rax,4), %ebx
	cmpl	$-2, %ebx
	jne	.LBB0_67
.Ltmp60:
# %bb.66:
	#DEBUG_VALUE: perBDt2Grid0 <- [DW_OP_constu 128, DW_OP_minus] [$rbp+0]
	#DEBUG_VALUE: perBGrid0 <- [DW_OP_constu 136, DW_OP_minus] [$rbp+0]
	#DEBUG_VALUE: propagateMagneticField:j <- [DW_OP_constu 56, DW_OP_minus] [$rbp+0]
	#DEBUG_VALUE: j <- [DW_OP_constu 56, DW_OP_minus] [$rbp+0]
	#DEBUG_VALUE: propagateMagneticField:i <- [DW_OP_constu 48, DW_OP_minus] [$rbp+0]
	#DEBUG_VALUE: i <- [DW_OP_constu 48, DW_OP_minus] [$rbp+0]
	#DEBUG_VALUE: dz <- $xmm2
	#DEBUG_VALUE: dy <- $xmm0
	#DEBUG_VALUE: dx <- $xmm1
	#DEBUG_VALUE: propagateMagneticField:perBDt2Grid <- [DW_OP_constu 160, DW_OP_minus] [$rbp+0]
	#DEBUG_VALUE: perBDt2Grid <- [DW_OP_constu 160, DW_OP_minus] [$rbp+0]
	#DEBUG_VALUE: propagateMagneticField:EGrid <- [DW_OP_constu 96, DW_OP_minus] [$rbp+0]
	#DEBUG_VALUE: EGrid <- [DW_OP_constu 96, DW_OP_minus] [$rbp+0]
	#DEBUG_VALUE: propagateMagneticField:EDt2Grid <- [DW_OP_constu 144, DW_OP_minus] [$rbp+0]
	#DEBUG_VALUE: EDt2Grid <- [DW_OP_constu 144, DW_OP_minus] [$rbp+0]
	#DEBUG_VALUE: propagateMagneticField:k <- [DW_OP_plus_uconst 16] [$rbp+0]
	#DEBUG_VALUE: k <- [DW_OP_plus_uconst 16] [$rbp+0]
	#DEBUG_VALUE: propagateMagneticField:dt <- [DW_OP_plus_uconst 24] [$rbp+0]
	#DEBUG_VALUE: dt <- [DW_OP_plus_uconst 24] [$rbp+0]
	#DEBUG_VALUE: propagateMagneticField:RKCase <- [DW_OP_plus_uconst 32] [$rbp+0]
	#DEBUG_VALUE: RKCase <- [DW_OP_plus_uconst 32] [$rbp+0]
	#DEBUG_VALUE: propagateMagneticField:doX <- [DW_OP_plus_uconst 40] [$rbp+0]
	#DEBUG_VALUE: doX <- [DW_OP_plus_uconst 40] [$rbp+0]
	#DEBUG_VALUE: propagateMagneticField:doY <- [DW_OP_plus_uconst 48] [$rbp+0]
	#DEBUG_VALUE: doY <- [DW_OP_plus_uconst 48] [$rbp+0]
	#DEBUG_VALUE: propagateMagneticField:doZ <- [DW_OP_plus_uconst 56] [$rbp+0]
	#DEBUG_VALUE: doZ <- [DW_OP_plus_uconst 56] [$rbp+0]
	.loc	1 0 1 is_stmt 0         # fieldsolver/ldz_magnetic_field.cpp:0:1
	xorl	%r14d, %r14d
	jmp	.LBB0_75
.Ltmp61:
.LBB0_116:                              # %L.B1285
	#DEBUG_VALUE: perBGrid0 <- [DW_OP_constu 136, DW_OP_minus] [$rbp+0]
	#DEBUG_VALUE: propagateMagneticField:j <- [DW_OP_constu 56, DW_OP_minus] [$rbp+0]
	#DEBUG_VALUE: j <- [DW_OP_constu 56, DW_OP_minus] [$rbp+0]
	#DEBUG_VALUE: propagateMagneticField:i <- [DW_OP_constu 48, DW_OP_minus] [$rbp+0]
	#DEBUG_VALUE: i <- [DW_OP_constu 48, DW_OP_minus] [$rbp+0]
	#DEBUG_VALUE: dz <- $xmm2
	#DEBUG_VALUE: dy <- $xmm0
	#DEBUG_VALUE: dx <- $xmm1
	#DEBUG_VALUE: propagateMagneticField:perBDt2Grid <- [DW_OP_constu 160, DW_OP_minus] [$rbp+0]
	#DEBUG_VALUE: perBDt2Grid <- [DW_OP_constu 160, DW_OP_minus] [$rbp+0]
	#DEBUG_VALUE: propagateMagneticField:EGrid <- [DW_OP_constu 96, DW_OP_minus] [$rbp+0]
	#DEBUG_VALUE: EGrid <- [DW_OP_constu 96, DW_OP_minus] [$rbp+0]
	#DEBUG_VALUE: propagateMagneticField:EDt2Grid <- [DW_OP_constu 144, DW_OP_minus] [$rbp+0]
	#DEBUG_VALUE: EDt2Grid <- [DW_OP_constu 144, DW_OP_minus] [$rbp+0]
	#DEBUG_VALUE: propagateMagneticField:k <- [DW_OP_plus_uconst 16] [$rbp+0]
	#DEBUG_VALUE: k <- [DW_OP_plus_uconst 16] [$rbp+0]
	#DEBUG_VALUE: propagateMagneticField:dt <- [DW_OP_plus_uconst 24] [$rbp+0]
	#DEBUG_VALUE: dt <- [DW_OP_plus_uconst 24] [$rbp+0]
	#DEBUG_VALUE: propagateMagneticField:RKCase <- [DW_OP_plus_uconst 32] [$rbp+0]
	#DEBUG_VALUE: RKCase <- [DW_OP_plus_uconst 32] [$rbp+0]
	#DEBUG_VALUE: propagateMagneticField:doX <- [DW_OP_plus_uconst 40] [$rbp+0]
	#DEBUG_VALUE: doX <- [DW_OP_plus_uconst 40] [$rbp+0]
	#DEBUG_VALUE: propagateMagneticField:doY <- [DW_OP_plus_uconst 48] [$rbp+0]
	#DEBUG_VALUE: doY <- [DW_OP_plus_uconst 48] [$rbp+0]
	#DEBUG_VALUE: propagateMagneticField:doZ <- [DW_OP_plus_uconst 56] [$rbp+0]
	#DEBUG_VALUE: doZ <- [DW_OP_plus_uconst 56] [$rbp+0]
	.loc	1 793 1 is_stmt 1       # fieldsolver/ldz_magnetic_field.cpp:793:1
	addl	$2, %r8d
	imull	280(%rdx), %r8d
	imull	276(%rdx), %r8d
	movslq	%r8d, %rsi
.Ltmp62:
.LBB0_117:                              # %L..inline.71762
	#DEBUG_VALUE: perBGrid0 <- [DW_OP_constu 136, DW_OP_minus] [$rbp+0]
	#DEBUG_VALUE: propagateMagneticField:j <- [DW_OP_constu 56, DW_OP_minus] [$rbp+0]
	#DEBUG_VALUE: j <- [DW_OP_constu 56, DW_OP_minus] [$rbp+0]
	#DEBUG_VALUE: propagateMagneticField:i <- [DW_OP_constu 48, DW_OP_minus] [$rbp+0]
	#DEBUG_VALUE: i <- [DW_OP_constu 48, DW_OP_minus] [$rbp+0]
	#DEBUG_VALUE: dz <- $xmm2
	#DEBUG_VALUE: dy <- $xmm0
	#DEBUG_VALUE: dx <- $xmm1
	#DEBUG_VALUE: propagateMagneticField:perBDt2Grid <- [DW_OP_constu 160, DW_OP_minus] [$rbp+0]
	#DEBUG_VALUE: perBDt2Grid <- [DW_OP_constu 160, DW_OP_minus] [$rbp+0]
	#DEBUG_VALUE: propagateMagneticField:EGrid <- [DW_OP_constu 96, DW_OP_minus] [$rbp+0]
	#DEBUG_VALUE: EGrid <- [DW_OP_constu 96, DW_OP_minus] [$rbp+0]
	#DEBUG_VALUE: propagateMagneticField:EDt2Grid <- [DW_OP_constu 144, DW_OP_minus] [$rbp+0]
	#DEBUG_VALUE: EDt2Grid <- [DW_OP_constu 144, DW_OP_minus] [$rbp+0]
	#DEBUG_VALUE: propagateMagneticField:k <- [DW_OP_plus_uconst 16] [$rbp+0]
	#DEBUG_VALUE: k <- [DW_OP_plus_uconst 16] [$rbp+0]
	#DEBUG_VALUE: propagateMagneticField:dt <- [DW_OP_plus_uconst 24] [$rbp+0]
	#DEBUG_VALUE: dt <- [DW_OP_plus_uconst 24] [$rbp+0]
	#DEBUG_VALUE: propagateMagneticField:RKCase <- [DW_OP_plus_uconst 32] [$rbp+0]
	#DEBUG_VALUE: RKCase <- [DW_OP_plus_uconst 32] [$rbp+0]
	#DEBUG_VALUE: propagateMagneticField:doX <- [DW_OP_plus_uconst 40] [$rbp+0]
	#DEBUG_VALUE: doX <- [DW_OP_plus_uconst 40] [$rbp+0]
	#DEBUG_VALUE: propagateMagneticField:doY <- [DW_OP_plus_uconst 48] [$rbp+0]
	#DEBUG_VALUE: doY <- [DW_OP_plus_uconst 48] [$rbp+0]
	#DEBUG_VALUE: propagateMagneticField:doZ <- [DW_OP_plus_uconst 56] [$rbp+0]
	#DEBUG_VALUE: doZ <- [DW_OP_plus_uconst 56] [$rbp+0]
	.loc	1 0 1 is_stmt 0         # fieldsolver/ldz_magnetic_field.cpp:0:1
	movq	%rdx, %rdi
	movq	-96(%rbp), %r9          # 8-byte Reload
	.loc	1 793 1                 # fieldsolver/ldz_magnetic_field.cpp:793:1
	cmpl	$2, 256(%rdx)
	movl	-60(%rbp), %edx         # 4-byte Reload
	jl	.LBB0_119
.Ltmp63:
# %bb.118:                              # %L.B1286
	#DEBUG_VALUE: perBGrid0 <- [DW_OP_constu 136, DW_OP_minus] [$rbp+0]
	#DEBUG_VALUE: propagateMagneticField:j <- [DW_OP_constu 56, DW_OP_minus] [$rbp+0]
	#DEBUG_VALUE: j <- [DW_OP_constu 56, DW_OP_minus] [$rbp+0]
	#DEBUG_VALUE: propagateMagneticField:i <- [DW_OP_constu 48, DW_OP_minus] [$rbp+0]
	#DEBUG_VALUE: i <- [DW_OP_constu 48, DW_OP_minus] [$rbp+0]
	#DEBUG_VALUE: dz <- $xmm2
	#DEBUG_VALUE: dy <- $xmm0
	#DEBUG_VALUE: dx <- $xmm1
	#DEBUG_VALUE: propagateMagneticField:perBDt2Grid <- [DW_OP_constu 160, DW_OP_minus] [$rbp+0]
	#DEBUG_VALUE: perBDt2Grid <- [DW_OP_constu 160, DW_OP_minus] [$rbp+0]
	#DEBUG_VALUE: propagateMagneticField:EGrid <- [DW_OP_constu 96, DW_OP_minus] [$rbp+0]
	#DEBUG_VALUE: EGrid <- [DW_OP_constu 96, DW_OP_minus] [$rbp+0]
	#DEBUG_VALUE: propagateMagneticField:EDt2Grid <- [DW_OP_constu 144, DW_OP_minus] [$rbp+0]
	#DEBUG_VALUE: EDt2Grid <- [DW_OP_constu 144, DW_OP_minus] [$rbp+0]
	#DEBUG_VALUE: propagateMagneticField:k <- [DW_OP_plus_uconst 16] [$rbp+0]
	#DEBUG_VALUE: k <- [DW_OP_plus_uconst 16] [$rbp+0]
	#DEBUG_VALUE: propagateMagneticField:dt <- [DW_OP_plus_uconst 24] [$rbp+0]
	#DEBUG_VALUE: dt <- [DW_OP_plus_uconst 24] [$rbp+0]
	#DEBUG_VALUE: propagateMagneticField:RKCase <- [DW_OP_plus_uconst 32] [$rbp+0]
	#DEBUG_VALUE: RKCase <- [DW_OP_plus_uconst 32] [$rbp+0]
	#DEBUG_VALUE: propagateMagneticField:doX <- [DW_OP_plus_uconst 40] [$rbp+0]
	#DEBUG_VALUE: doX <- [DW_OP_plus_uconst 40] [$rbp+0]
	#DEBUG_VALUE: propagateMagneticField:doY <- [DW_OP_plus_uconst 48] [$rbp+0]
	#DEBUG_VALUE: doY <- [DW_OP_plus_uconst 48] [$rbp+0]
	#DEBUG_VALUE: propagateMagneticField:doZ <- [DW_OP_plus_uconst 56] [$rbp+0]
	#DEBUG_VALUE: doZ <- [DW_OP_plus_uconst 56] [$rbp+0]
	addl	$2, %eax
	imull	276(%rdi), %eax
	cltq
	addq	%rax, %rsi
.Ltmp64:
.LBB0_119:                              # %L..inline.71811
	#DEBUG_VALUE: perBGrid0 <- [DW_OP_constu 136, DW_OP_minus] [$rbp+0]
	#DEBUG_VALUE: propagateMagneticField:j <- [DW_OP_constu 56, DW_OP_minus] [$rbp+0]
	#DEBUG_VALUE: j <- [DW_OP_constu 56, DW_OP_minus] [$rbp+0]
	#DEBUG_VALUE: propagateMagneticField:i <- [DW_OP_constu 48, DW_OP_minus] [$rbp+0]
	#DEBUG_VALUE: i <- [DW_OP_constu 48, DW_OP_minus] [$rbp+0]
	#DEBUG_VALUE: dz <- $xmm2
	#DEBUG_VALUE: dy <- $xmm0
	#DEBUG_VALUE: dx <- $xmm1
	#DEBUG_VALUE: propagateMagneticField:perBDt2Grid <- [DW_OP_constu 160, DW_OP_minus] [$rbp+0]
	#DEBUG_VALUE: perBDt2Grid <- [DW_OP_constu 160, DW_OP_minus] [$rbp+0]
	#DEBUG_VALUE: propagateMagneticField:EGrid <- [DW_OP_constu 96, DW_OP_minus] [$rbp+0]
	#DEBUG_VALUE: EGrid <- [DW_OP_constu 96, DW_OP_minus] [$rbp+0]
	#DEBUG_VALUE: propagateMagneticField:EDt2Grid <- [DW_OP_constu 144, DW_OP_minus] [$rbp+0]
	#DEBUG_VALUE: EDt2Grid <- [DW_OP_constu 144, DW_OP_minus] [$rbp+0]
	#DEBUG_VALUE: propagateMagneticField:k <- [DW_OP_plus_uconst 16] [$rbp+0]
	#DEBUG_VALUE: k <- [DW_OP_plus_uconst 16] [$rbp+0]
	#DEBUG_VALUE: propagateMagneticField:dt <- [DW_OP_plus_uconst 24] [$rbp+0]
	#DEBUG_VALUE: dt <- [DW_OP_plus_uconst 24] [$rbp+0]
	#DEBUG_VALUE: propagateMagneticField:RKCase <- [DW_OP_plus_uconst 32] [$rbp+0]
	#DEBUG_VALUE: RKCase <- [DW_OP_plus_uconst 32] [$rbp+0]
	#DEBUG_VALUE: propagateMagneticField:doX <- [DW_OP_plus_uconst 40] [$rbp+0]
	#DEBUG_VALUE: doX <- [DW_OP_plus_uconst 40] [$rbp+0]
	#DEBUG_VALUE: propagateMagneticField:doY <- [DW_OP_plus_uconst 48] [$rbp+0]
	#DEBUG_VALUE: doY <- [DW_OP_plus_uconst 48] [$rbp+0]
	#DEBUG_VALUE: propagateMagneticField:doZ <- [DW_OP_plus_uconst 56] [$rbp+0]
	#DEBUG_VALUE: doZ <- [DW_OP_plus_uconst 56] [$rbp+0]
	movslq	%ebx, %rax
	addq	$2, %rax
	xorl	%ecx, %ecx
	cmpl	$2, 252(%rdi)
	cmovgeq	%rax, %rcx
	addq	%rsi, %rcx
	.loc	1 795 1 is_stmt 1       # fieldsolver/ldz_magnetic_field.cpp:795:1
	leaq	(%rcx,%rcx,2), %r8
	shlq	$3, %r8
	addq	744(%rdi), %r8
.Ltmp65:
.LBB0_120:                              # %L..inline.71857
	#DEBUG_VALUE: perBGrid0 <- [DW_OP_constu 136, DW_OP_minus] [$rbp+0]
	#DEBUG_VALUE: propagateMagneticField:j <- [DW_OP_constu 56, DW_OP_minus] [$rbp+0]
	#DEBUG_VALUE: j <- [DW_OP_constu 56, DW_OP_minus] [$rbp+0]
	#DEBUG_VALUE: propagateMagneticField:i <- [DW_OP_constu 48, DW_OP_minus] [$rbp+0]
	#DEBUG_VALUE: i <- [DW_OP_constu 48, DW_OP_minus] [$rbp+0]
	#DEBUG_VALUE: dz <- $xmm2
	#DEBUG_VALUE: dy <- $xmm0
	#DEBUG_VALUE: dx <- $xmm1
	#DEBUG_VALUE: propagateMagneticField:perBDt2Grid <- [DW_OP_constu 160, DW_OP_minus] [$rbp+0]
	#DEBUG_VALUE: perBDt2Grid <- [DW_OP_constu 160, DW_OP_minus] [$rbp+0]
	#DEBUG_VALUE: propagateMagneticField:EGrid <- [DW_OP_constu 96, DW_OP_minus] [$rbp+0]
	#DEBUG_VALUE: EGrid <- [DW_OP_constu 96, DW_OP_minus] [$rbp+0]
	#DEBUG_VALUE: propagateMagneticField:EDt2Grid <- [DW_OP_constu 144, DW_OP_minus] [$rbp+0]
	#DEBUG_VALUE: EDt2Grid <- [DW_OP_constu 144, DW_OP_minus] [$rbp+0]
	#DEBUG_VALUE: propagateMagneticField:k <- [DW_OP_plus_uconst 16] [$rbp+0]
	#DEBUG_VALUE: k <- [DW_OP_plus_uconst 16] [$rbp+0]
	#DEBUG_VALUE: propagateMagneticField:dt <- [DW_OP_plus_uconst 24] [$rbp+0]
	#DEBUG_VALUE: dt <- [DW_OP_plus_uconst 24] [$rbp+0]
	#DEBUG_VALUE: propagateMagneticField:RKCase <- [DW_OP_plus_uconst 32] [$rbp+0]
	#DEBUG_VALUE: RKCase <- [DW_OP_plus_uconst 32] [$rbp+0]
	#DEBUG_VALUE: propagateMagneticField:doX <- [DW_OP_plus_uconst 40] [$rbp+0]
	#DEBUG_VALUE: doX <- [DW_OP_plus_uconst 40] [$rbp+0]
	#DEBUG_VALUE: propagateMagneticField:doY <- [DW_OP_plus_uconst 48] [$rbp+0]
	#DEBUG_VALUE: doY <- [DW_OP_plus_uconst 48] [$rbp+0]
	#DEBUG_VALUE: propagateMagneticField:doZ <- [DW_OP_plus_uconst 56] [$rbp+0]
	#DEBUG_VALUE: doZ <- [DW_OP_plus_uconst 56] [$rbp+0]
	#DEBUG_VALUE: EGrid1 <- undef
	.loc	1 93 1                  # fieldsolver/ldz_magnetic_field.cpp:93:1
	movl	16(%rbp), %eax
	movl	%eax, %ebx
	incl	%ebx
	.loc	1 719 1                 # fieldsolver/ldz_magnetic_field.cpp:719:1
	cmovnsl	%r13d, %r12d
	movl	%ebx, %eax
	shrl	$31, %eax
	.loc	1 723 1                 # fieldsolver/ldz_magnetic_field.cpp:723:1
	xorl	%ecx, %ecx
	cmpl	%edx, %ebx
	setge	%cl
	movl	$-1, %edi
	cmovll	%eax, %edi
	addl	%r12d, %ecx
	.loc	1 776 1                 # fieldsolver/ldz_magnetic_field.cpp:776:1
	cmpl	$13, %ecx
	jne	.LBB0_122
.Ltmp66:
# %bb.121:
	#DEBUG_VALUE: perBGrid0 <- [DW_OP_constu 136, DW_OP_minus] [$rbp+0]
	#DEBUG_VALUE: propagateMagneticField:j <- [DW_OP_constu 56, DW_OP_minus] [$rbp+0]
	#DEBUG_VALUE: j <- [DW_OP_constu 56, DW_OP_minus] [$rbp+0]
	#DEBUG_VALUE: propagateMagneticField:i <- [DW_OP_constu 48, DW_OP_minus] [$rbp+0]
	#DEBUG_VALUE: i <- [DW_OP_constu 48, DW_OP_minus] [$rbp+0]
	#DEBUG_VALUE: dz <- $xmm2
	#DEBUG_VALUE: dy <- $xmm0
	#DEBUG_VALUE: dx <- $xmm1
	#DEBUG_VALUE: propagateMagneticField:perBDt2Grid <- [DW_OP_constu 160, DW_OP_minus] [$rbp+0]
	#DEBUG_VALUE: perBDt2Grid <- [DW_OP_constu 160, DW_OP_minus] [$rbp+0]
	#DEBUG_VALUE: propagateMagneticField:EGrid <- [DW_OP_constu 96, DW_OP_minus] [$rbp+0]
	#DEBUG_VALUE: EGrid <- [DW_OP_constu 96, DW_OP_minus] [$rbp+0]
	#DEBUG_VALUE: propagateMagneticField:EDt2Grid <- [DW_OP_constu 144, DW_OP_minus] [$rbp+0]
	#DEBUG_VALUE: EDt2Grid <- [DW_OP_constu 144, DW_OP_minus] [$rbp+0]
	#DEBUG_VALUE: propagateMagneticField:k <- [DW_OP_plus_uconst 16] [$rbp+0]
	#DEBUG_VALUE: k <- [DW_OP_plus_uconst 16] [$rbp+0]
	#DEBUG_VALUE: propagateMagneticField:dt <- [DW_OP_plus_uconst 24] [$rbp+0]
	#DEBUG_VALUE: dt <- [DW_OP_plus_uconst 24] [$rbp+0]
	#DEBUG_VALUE: propagateMagneticField:RKCase <- [DW_OP_plus_uconst 32] [$rbp+0]
	#DEBUG_VALUE: RKCase <- [DW_OP_plus_uconst 32] [$rbp+0]
	#DEBUG_VALUE: propagateMagneticField:doX <- [DW_OP_plus_uconst 40] [$rbp+0]
	#DEBUG_VALUE: doX <- [DW_OP_plus_uconst 40] [$rbp+0]
	#DEBUG_VALUE: propagateMagneticField:doY <- [DW_OP_plus_uconst 48] [$rbp+0]
	#DEBUG_VALUE: doY <- [DW_OP_plus_uconst 48] [$rbp+0]
	#DEBUG_VALUE: propagateMagneticField:doZ <- [DW_OP_plus_uconst 56] [$rbp+0]
	#DEBUG_VALUE: doZ <- [DW_OP_plus_uconst 56] [$rbp+0]
	.loc	1 0 1 is_stmt 0         # fieldsolver/ldz_magnetic_field.cpp:0:1
	movq	-48(%rbp), %rax         # 8-byte Reload
	movl	%eax, %r15d
	movl	%r14d, %r10d
	movq	-136(%rbp), %r13        # 8-byte Reload
	movq	24(%rbp), %r12
	jmp	.LBB0_125
.Ltmp67:
.LBB0_122:                              # %L.B1293
	#DEBUG_VALUE: perBGrid0 <- [DW_OP_constu 136, DW_OP_minus] [$rbp+0]
	#DEBUG_VALUE: propagateMagneticField:j <- [DW_OP_constu 56, DW_OP_minus] [$rbp+0]
	#DEBUG_VALUE: j <- [DW_OP_constu 56, DW_OP_minus] [$rbp+0]
	#DEBUG_VALUE: propagateMagneticField:i <- [DW_OP_constu 48, DW_OP_minus] [$rbp+0]
	#DEBUG_VALUE: i <- [DW_OP_constu 48, DW_OP_minus] [$rbp+0]
	#DEBUG_VALUE: dz <- $xmm2
	#DEBUG_VALUE: dy <- $xmm0
	#DEBUG_VALUE: dx <- $xmm1
	#DEBUG_VALUE: propagateMagneticField:perBDt2Grid <- [DW_OP_constu 160, DW_OP_minus] [$rbp+0]
	#DEBUG_VALUE: perBDt2Grid <- [DW_OP_constu 160, DW_OP_minus] [$rbp+0]
	#DEBUG_VALUE: propagateMagneticField:EGrid <- [DW_OP_constu 96, DW_OP_minus] [$rbp+0]
	#DEBUG_VALUE: EGrid <- [DW_OP_constu 96, DW_OP_minus] [$rbp+0]
	#DEBUG_VALUE: propagateMagneticField:EDt2Grid <- [DW_OP_constu 144, DW_OP_minus] [$rbp+0]
	#DEBUG_VALUE: EDt2Grid <- [DW_OP_constu 144, DW_OP_minus] [$rbp+0]
	#DEBUG_VALUE: propagateMagneticField:k <- [DW_OP_plus_uconst 16] [$rbp+0]
	#DEBUG_VALUE: k <- [DW_OP_plus_uconst 16] [$rbp+0]
	#DEBUG_VALUE: propagateMagneticField:dt <- [DW_OP_plus_uconst 24] [$rbp+0]
	#DEBUG_VALUE: dt <- [DW_OP_plus_uconst 24] [$rbp+0]
	#DEBUG_VALUE: propagateMagneticField:RKCase <- [DW_OP_plus_uconst 32] [$rbp+0]
	#DEBUG_VALUE: RKCase <- [DW_OP_plus_uconst 32] [$rbp+0]
	#DEBUG_VALUE: propagateMagneticField:doX <- [DW_OP_plus_uconst 40] [$rbp+0]
	#DEBUG_VALUE: doX <- [DW_OP_plus_uconst 40] [$rbp+0]
	#DEBUG_VALUE: propagateMagneticField:doY <- [DW_OP_plus_uconst 48] [$rbp+0]
	#DEBUG_VALUE: doY <- [DW_OP_plus_uconst 48] [$rbp+0]
	#DEBUG_VALUE: propagateMagneticField:doZ <- [DW_OP_plus_uconst 56] [$rbp+0]
	#DEBUG_VALUE: doZ <- [DW_OP_plus_uconst 56] [$rbp+0]
	.loc	1 779 1 is_stmt 1       # fieldsolver/ldz_magnetic_field.cpp:779:1
	movslq	%ecx, %rax
	movq	-144(%rbp), %rcx        # 8-byte Reload
	movl	92(%rcx,%rax,4), %eax
	.loc	1 784 1                 # fieldsolver/ldz_magnetic_field.cpp:784:1
	cmpl	56(%rcx), %eax
	movq	-136(%rbp), %r13        # 8-byte Reload
	movq	24(%rbp), %r12
	jne	.LBB0_123
.Ltmp68:
# %bb.124:                              # %L.B1295
	#DEBUG_VALUE: perBGrid0 <- [DW_OP_constu 136, DW_OP_minus] [$rbp+0]
	#DEBUG_VALUE: propagateMagneticField:j <- [DW_OP_constu 56, DW_OP_minus] [$rbp+0]
	#DEBUG_VALUE: j <- [DW_OP_constu 56, DW_OP_minus] [$rbp+0]
	#DEBUG_VALUE: propagateMagneticField:i <- [DW_OP_constu 48, DW_OP_minus] [$rbp+0]
	#DEBUG_VALUE: i <- [DW_OP_constu 48, DW_OP_minus] [$rbp+0]
	#DEBUG_VALUE: dz <- $xmm2
	#DEBUG_VALUE: dy <- $xmm0
	#DEBUG_VALUE: dx <- $xmm1
	#DEBUG_VALUE: propagateMagneticField:perBDt2Grid <- [DW_OP_constu 160, DW_OP_minus] [$rbp+0]
	#DEBUG_VALUE: perBDt2Grid <- [DW_OP_constu 160, DW_OP_minus] [$rbp+0]
	#DEBUG_VALUE: propagateMagneticField:EGrid <- [DW_OP_constu 96, DW_OP_minus] [$rbp+0]
	#DEBUG_VALUE: EGrid <- [DW_OP_constu 96, DW_OP_minus] [$rbp+0]
	#DEBUG_VALUE: propagateMagneticField:EDt2Grid <- [DW_OP_constu 144, DW_OP_minus] [$rbp+0]
	#DEBUG_VALUE: EDt2Grid <- [DW_OP_constu 144, DW_OP_minus] [$rbp+0]
	#DEBUG_VALUE: propagateMagneticField:k <- [DW_OP_plus_uconst 16] [$rbp+0]
	#DEBUG_VALUE: k <- [DW_OP_plus_uconst 16] [$rbp+0]
	#DEBUG_VALUE: propagateMagneticField:dt <- [DW_OP_plus_uconst 24] [$rbp+0]
	#DEBUG_VALUE: dt <- [DW_OP_plus_uconst 24] [$rbp+0]
	#DEBUG_VALUE: propagateMagneticField:RKCase <- [DW_OP_plus_uconst 32] [$rbp+0]
	#DEBUG_VALUE: RKCase <- [DW_OP_plus_uconst 32] [$rbp+0]
	#DEBUG_VALUE: propagateMagneticField:doX <- [DW_OP_plus_uconst 40] [$rbp+0]
	#DEBUG_VALUE: doX <- [DW_OP_plus_uconst 40] [$rbp+0]
	#DEBUG_VALUE: propagateMagneticField:doY <- [DW_OP_plus_uconst 48] [$rbp+0]
	#DEBUG_VALUE: doY <- [DW_OP_plus_uconst 48] [$rbp+0]
	#DEBUG_VALUE: propagateMagneticField:doZ <- [DW_OP_plus_uconst 56] [$rbp+0]
	#DEBUG_VALUE: doZ <- [DW_OP_plus_uconst 56] [$rbp+0]
	.loc	1 787 1                 # fieldsolver/ldz_magnetic_field.cpp:787:1
	imull	-112(%rbp), %r15d       # 4-byte Folded Reload
	addl	-48(%rbp), %r15d        # 4-byte Folded Reload
	.loc	1 788 1                 # fieldsolver/ldz_magnetic_field.cpp:788:1
	imull	-64(%rbp), %r10d        # 4-byte Folded Reload
	addl	%r14d, %r10d
	.loc	1 789 1                 # fieldsolver/ldz_magnetic_field.cpp:789:1
	imull	%edx, %edi
	addl	%edi, %ebx
	jmp	.LBB0_125
.Ltmp69:
.LBB0_71:                               # %L.B1249
	#DEBUG_VALUE: perBDt2Grid0 <- [DW_OP_constu 128, DW_OP_minus] [$rbp+0]
	#DEBUG_VALUE: perBGrid0 <- [DW_OP_constu 136, DW_OP_minus] [$rbp+0]
	#DEBUG_VALUE: propagateMagneticField:j <- [DW_OP_constu 56, DW_OP_minus] [$rbp+0]
	#DEBUG_VALUE: j <- [DW_OP_constu 56, DW_OP_minus] [$rbp+0]
	#DEBUG_VALUE: propagateMagneticField:i <- [DW_OP_constu 48, DW_OP_minus] [$rbp+0]
	#DEBUG_VALUE: i <- [DW_OP_constu 48, DW_OP_minus] [$rbp+0]
	#DEBUG_VALUE: dz <- $xmm2
	#DEBUG_VALUE: dy <- $xmm0
	#DEBUG_VALUE: dx <- $xmm1
	#DEBUG_VALUE: propagateMagneticField:perBDt2Grid <- [DW_OP_constu 160, DW_OP_minus] [$rbp+0]
	#DEBUG_VALUE: perBDt2Grid <- [DW_OP_constu 160, DW_OP_minus] [$rbp+0]
	#DEBUG_VALUE: propagateMagneticField:EGrid <- [DW_OP_constu 96, DW_OP_minus] [$rbp+0]
	#DEBUG_VALUE: EGrid <- [DW_OP_constu 96, DW_OP_minus] [$rbp+0]
	#DEBUG_VALUE: propagateMagneticField:EDt2Grid <- [DW_OP_constu 144, DW_OP_minus] [$rbp+0]
	#DEBUG_VALUE: EDt2Grid <- [DW_OP_constu 144, DW_OP_minus] [$rbp+0]
	#DEBUG_VALUE: propagateMagneticField:k <- [DW_OP_plus_uconst 16] [$rbp+0]
	#DEBUG_VALUE: k <- [DW_OP_plus_uconst 16] [$rbp+0]
	#DEBUG_VALUE: propagateMagneticField:dt <- [DW_OP_plus_uconst 24] [$rbp+0]
	#DEBUG_VALUE: dt <- [DW_OP_plus_uconst 24] [$rbp+0]
	#DEBUG_VALUE: propagateMagneticField:RKCase <- [DW_OP_plus_uconst 32] [$rbp+0]
	#DEBUG_VALUE: RKCase <- [DW_OP_plus_uconst 32] [$rbp+0]
	#DEBUG_VALUE: propagateMagneticField:doX <- [DW_OP_plus_uconst 40] [$rbp+0]
	#DEBUG_VALUE: doX <- [DW_OP_plus_uconst 40] [$rbp+0]
	#DEBUG_VALUE: propagateMagneticField:doY <- [DW_OP_plus_uconst 48] [$rbp+0]
	#DEBUG_VALUE: doY <- [DW_OP_plus_uconst 48] [$rbp+0]
	#DEBUG_VALUE: propagateMagneticField:doZ <- [DW_OP_plus_uconst 56] [$rbp+0]
	#DEBUG_VALUE: doZ <- [DW_OP_plus_uconst 56] [$rbp+0]
	.loc	1 793 1                 # fieldsolver/ldz_magnetic_field.cpp:793:1
	addl	$2, %esi
	imull	280(%r9), %esi
	imull	276(%r9), %esi
	movslq	%esi, %rsi
	cmpl	$2, 256(%r9)
	jl	.LBB0_74
.Ltmp70:
.LBB0_73:                               # %L.B1250
	#DEBUG_VALUE: perBDt2Grid0 <- [DW_OP_constu 128, DW_OP_minus] [$rbp+0]
	#DEBUG_VALUE: perBGrid0 <- [DW_OP_constu 136, DW_OP_minus] [$rbp+0]
	#DEBUG_VALUE: propagateMagneticField:j <- [DW_OP_constu 56, DW_OP_minus] [$rbp+0]
	#DEBUG_VALUE: j <- [DW_OP_constu 56, DW_OP_minus] [$rbp+0]
	#DEBUG_VALUE: propagateMagneticField:i <- [DW_OP_constu 48, DW_OP_minus] [$rbp+0]
	#DEBUG_VALUE: i <- [DW_OP_constu 48, DW_OP_minus] [$rbp+0]
	#DEBUG_VALUE: dz <- $xmm2
	#DEBUG_VALUE: dy <- $xmm0
	#DEBUG_VALUE: dx <- $xmm1
	#DEBUG_VALUE: propagateMagneticField:perBDt2Grid <- [DW_OP_constu 160, DW_OP_minus] [$rbp+0]
	#DEBUG_VALUE: perBDt2Grid <- [DW_OP_constu 160, DW_OP_minus] [$rbp+0]
	#DEBUG_VALUE: propagateMagneticField:EGrid <- [DW_OP_constu 96, DW_OP_minus] [$rbp+0]
	#DEBUG_VALUE: EGrid <- [DW_OP_constu 96, DW_OP_minus] [$rbp+0]
	#DEBUG_VALUE: propagateMagneticField:EDt2Grid <- [DW_OP_constu 144, DW_OP_minus] [$rbp+0]
	#DEBUG_VALUE: EDt2Grid <- [DW_OP_constu 144, DW_OP_minus] [$rbp+0]
	#DEBUG_VALUE: propagateMagneticField:k <- [DW_OP_plus_uconst 16] [$rbp+0]
	#DEBUG_VALUE: k <- [DW_OP_plus_uconst 16] [$rbp+0]
	#DEBUG_VALUE: propagateMagneticField:dt <- [DW_OP_plus_uconst 24] [$rbp+0]
	#DEBUG_VALUE: dt <- [DW_OP_plus_uconst 24] [$rbp+0]
	#DEBUG_VALUE: propagateMagneticField:RKCase <- [DW_OP_plus_uconst 32] [$rbp+0]
	#DEBUG_VALUE: RKCase <- [DW_OP_plus_uconst 32] [$rbp+0]
	#DEBUG_VALUE: propagateMagneticField:doX <- [DW_OP_plus_uconst 40] [$rbp+0]
	#DEBUG_VALUE: doX <- [DW_OP_plus_uconst 40] [$rbp+0]
	#DEBUG_VALUE: propagateMagneticField:doY <- [DW_OP_plus_uconst 48] [$rbp+0]
	#DEBUG_VALUE: doY <- [DW_OP_plus_uconst 48] [$rbp+0]
	#DEBUG_VALUE: propagateMagneticField:doZ <- [DW_OP_plus_uconst 56] [$rbp+0]
	#DEBUG_VALUE: doZ <- [DW_OP_plus_uconst 56] [$rbp+0]
	addl	$2, %eax
	imull	276(%r9), %eax
	cltq
	addq	%rax, %rsi
.Ltmp71:
.LBB0_74:                               # %L..inline.70647
	#DEBUG_VALUE: perBDt2Grid0 <- [DW_OP_constu 128, DW_OP_minus] [$rbp+0]
	#DEBUG_VALUE: perBGrid0 <- [DW_OP_constu 136, DW_OP_minus] [$rbp+0]
	#DEBUG_VALUE: propagateMagneticField:j <- [DW_OP_constu 56, DW_OP_minus] [$rbp+0]
	#DEBUG_VALUE: j <- [DW_OP_constu 56, DW_OP_minus] [$rbp+0]
	#DEBUG_VALUE: propagateMagneticField:i <- [DW_OP_constu 48, DW_OP_minus] [$rbp+0]
	#DEBUG_VALUE: i <- [DW_OP_constu 48, DW_OP_minus] [$rbp+0]
	#DEBUG_VALUE: dz <- $xmm2
	#DEBUG_VALUE: dy <- $xmm0
	#DEBUG_VALUE: dx <- $xmm1
	#DEBUG_VALUE: propagateMagneticField:perBDt2Grid <- [DW_OP_constu 160, DW_OP_minus] [$rbp+0]
	#DEBUG_VALUE: perBDt2Grid <- [DW_OP_constu 160, DW_OP_minus] [$rbp+0]
	#DEBUG_VALUE: propagateMagneticField:EGrid <- [DW_OP_constu 96, DW_OP_minus] [$rbp+0]
	#DEBUG_VALUE: EGrid <- [DW_OP_constu 96, DW_OP_minus] [$rbp+0]
	#DEBUG_VALUE: propagateMagneticField:EDt2Grid <- [DW_OP_constu 144, DW_OP_minus] [$rbp+0]
	#DEBUG_VALUE: EDt2Grid <- [DW_OP_constu 144, DW_OP_minus] [$rbp+0]
	#DEBUG_VALUE: propagateMagneticField:k <- [DW_OP_plus_uconst 16] [$rbp+0]
	#DEBUG_VALUE: k <- [DW_OP_plus_uconst 16] [$rbp+0]
	#DEBUG_VALUE: propagateMagneticField:dt <- [DW_OP_plus_uconst 24] [$rbp+0]
	#DEBUG_VALUE: dt <- [DW_OP_plus_uconst 24] [$rbp+0]
	#DEBUG_VALUE: propagateMagneticField:RKCase <- [DW_OP_plus_uconst 32] [$rbp+0]
	#DEBUG_VALUE: RKCase <- [DW_OP_plus_uconst 32] [$rbp+0]
	#DEBUG_VALUE: propagateMagneticField:doX <- [DW_OP_plus_uconst 40] [$rbp+0]
	#DEBUG_VALUE: doX <- [DW_OP_plus_uconst 40] [$rbp+0]
	#DEBUG_VALUE: propagateMagneticField:doY <- [DW_OP_plus_uconst 48] [$rbp+0]
	#DEBUG_VALUE: doY <- [DW_OP_plus_uconst 48] [$rbp+0]
	#DEBUG_VALUE: propagateMagneticField:doZ <- [DW_OP_plus_uconst 56] [$rbp+0]
	#DEBUG_VALUE: doZ <- [DW_OP_plus_uconst 56] [$rbp+0]
	movslq	%r8d, %rax
	addq	$2, %rax
	xorl	%ecx, %ecx
	cmpl	$2, 252(%r9)
	cmovgeq	%rax, %rcx
	addq	%rsi, %rcx
	.loc	1 795 1                 # fieldsolver/ldz_magnetic_field.cpp:795:1
	leaq	(%rcx,%rcx,2), %r14
	shlq	$3, %r14
	addq	744(%r9), %r14
.Ltmp72:
.LBB0_75:                               # %L..inline.70693
	#DEBUG_VALUE: perBDt2Grid0 <- [DW_OP_constu 128, DW_OP_minus] [$rbp+0]
	#DEBUG_VALUE: perBGrid0 <- [DW_OP_constu 136, DW_OP_minus] [$rbp+0]
	#DEBUG_VALUE: propagateMagneticField:j <- [DW_OP_constu 56, DW_OP_minus] [$rbp+0]
	#DEBUG_VALUE: j <- [DW_OP_constu 56, DW_OP_minus] [$rbp+0]
	#DEBUG_VALUE: propagateMagneticField:i <- [DW_OP_constu 48, DW_OP_minus] [$rbp+0]
	#DEBUG_VALUE: i <- [DW_OP_constu 48, DW_OP_minus] [$rbp+0]
	#DEBUG_VALUE: dz <- $xmm2
	#DEBUG_VALUE: dy <- $xmm0
	#DEBUG_VALUE: dx <- $xmm1
	#DEBUG_VALUE: propagateMagneticField:perBDt2Grid <- [DW_OP_constu 160, DW_OP_minus] [$rbp+0]
	#DEBUG_VALUE: perBDt2Grid <- [DW_OP_constu 160, DW_OP_minus] [$rbp+0]
	#DEBUG_VALUE: propagateMagneticField:EGrid <- [DW_OP_constu 96, DW_OP_minus] [$rbp+0]
	#DEBUG_VALUE: EGrid <- [DW_OP_constu 96, DW_OP_minus] [$rbp+0]
	#DEBUG_VALUE: propagateMagneticField:EDt2Grid <- [DW_OP_constu 144, DW_OP_minus] [$rbp+0]
	#DEBUG_VALUE: EDt2Grid <- [DW_OP_constu 144, DW_OP_minus] [$rbp+0]
	#DEBUG_VALUE: propagateMagneticField:k <- [DW_OP_plus_uconst 16] [$rbp+0]
	#DEBUG_VALUE: k <- [DW_OP_plus_uconst 16] [$rbp+0]
	#DEBUG_VALUE: propagateMagneticField:dt <- [DW_OP_plus_uconst 24] [$rbp+0]
	#DEBUG_VALUE: dt <- [DW_OP_plus_uconst 24] [$rbp+0]
	#DEBUG_VALUE: propagateMagneticField:RKCase <- [DW_OP_plus_uconst 32] [$rbp+0]
	#DEBUG_VALUE: RKCase <- [DW_OP_plus_uconst 32] [$rbp+0]
	#DEBUG_VALUE: propagateMagneticField:doX <- [DW_OP_plus_uconst 40] [$rbp+0]
	#DEBUG_VALUE: doX <- [DW_OP_plus_uconst 40] [$rbp+0]
	#DEBUG_VALUE: propagateMagneticField:doY <- [DW_OP_plus_uconst 48] [$rbp+0]
	#DEBUG_VALUE: doY <- [DW_OP_plus_uconst 48] [$rbp+0]
	#DEBUG_VALUE: propagateMagneticField:doZ <- [DW_OP_plus_uconst 56] [$rbp+0]
	#DEBUG_VALUE: doZ <- [DW_OP_plus_uconst 56] [$rbp+0]
	#DEBUG_VALUE: EGrid0 <- undef
	.loc	1 0 1 is_stmt 0         # fieldsolver/ldz_magnetic_field.cpp:0:1
	movq	-56(%rbp), %rax         # 8-byte Reload
	.loc	1 85 1 is_stmt 1        # fieldsolver/ldz_magnetic_field.cpp:85:1
	leal	1(%rax), %ebx
	.loc	1 711 1                 # fieldsolver/ldz_magnetic_field.cpp:711:1
	movl	%ebx, %ecx
	shrl	$31, %ecx
	testl	%ebx, %ebx
	cmovnsl	%r15d, %r13d
	.loc	1 715 1                 # fieldsolver/ldz_magnetic_field.cpp:715:1
	leal	3(%r13), %esi
	movl	-64(%rbp), %r8d         # 4-byte Reload
	cmpl	%r8d, %ebx
	movl	$-1, %eax
	cmovll	%ecx, %eax
	cmovll	%r13d, %esi
	.loc	1 719 1                 # fieldsolver/ldz_magnetic_field.cpp:719:1
	addl	-84(%rbp), %edi         # 4-byte Folded Reload
	.loc	1 723 1                 # fieldsolver/ldz_magnetic_field.cpp:723:1
	addl	%esi, %edi
	.loc	1 776 1                 # fieldsolver/ldz_magnetic_field.cpp:776:1
	cmpl	$13, %edi
	jne	.LBB0_77
.Ltmp73:
# %bb.76:
	#DEBUG_VALUE: perBDt2Grid0 <- [DW_OP_constu 128, DW_OP_minus] [$rbp+0]
	#DEBUG_VALUE: perBGrid0 <- [DW_OP_constu 136, DW_OP_minus] [$rbp+0]
	#DEBUG_VALUE: propagateMagneticField:j <- [DW_OP_constu 56, DW_OP_minus] [$rbp+0]
	#DEBUG_VALUE: j <- [DW_OP_constu 56, DW_OP_minus] [$rbp+0]
	#DEBUG_VALUE: propagateMagneticField:i <- [DW_OP_constu 48, DW_OP_minus] [$rbp+0]
	#DEBUG_VALUE: i <- [DW_OP_constu 48, DW_OP_minus] [$rbp+0]
	#DEBUG_VALUE: dz <- $xmm2
	#DEBUG_VALUE: dy <- $xmm0
	#DEBUG_VALUE: dx <- $xmm1
	#DEBUG_VALUE: propagateMagneticField:perBDt2Grid <- [DW_OP_constu 160, DW_OP_minus] [$rbp+0]
	#DEBUG_VALUE: perBDt2Grid <- [DW_OP_constu 160, DW_OP_minus] [$rbp+0]
	#DEBUG_VALUE: propagateMagneticField:EGrid <- [DW_OP_constu 96, DW_OP_minus] [$rbp+0]
	#DEBUG_VALUE: EGrid <- [DW_OP_constu 96, DW_OP_minus] [$rbp+0]
	#DEBUG_VALUE: propagateMagneticField:EDt2Grid <- [DW_OP_constu 144, DW_OP_minus] [$rbp+0]
	#DEBUG_VALUE: EDt2Grid <- [DW_OP_constu 144, DW_OP_minus] [$rbp+0]
	#DEBUG_VALUE: propagateMagneticField:k <- [DW_OP_plus_uconst 16] [$rbp+0]
	#DEBUG_VALUE: k <- [DW_OP_plus_uconst 16] [$rbp+0]
	#DEBUG_VALUE: propagateMagneticField:dt <- [DW_OP_plus_uconst 24] [$rbp+0]
	#DEBUG_VALUE: dt <- [DW_OP_plus_uconst 24] [$rbp+0]
	#DEBUG_VALUE: propagateMagneticField:RKCase <- [DW_OP_plus_uconst 32] [$rbp+0]
	#DEBUG_VALUE: RKCase <- [DW_OP_plus_uconst 32] [$rbp+0]
	#DEBUG_VALUE: propagateMagneticField:doX <- [DW_OP_plus_uconst 40] [$rbp+0]
	#DEBUG_VALUE: doX <- [DW_OP_plus_uconst 40] [$rbp+0]
	#DEBUG_VALUE: propagateMagneticField:doY <- [DW_OP_plus_uconst 48] [$rbp+0]
	#DEBUG_VALUE: doY <- [DW_OP_plus_uconst 48] [$rbp+0]
	#DEBUG_VALUE: propagateMagneticField:doZ <- [DW_OP_plus_uconst 56] [$rbp+0]
	#DEBUG_VALUE: doZ <- [DW_OP_plus_uconst 56] [$rbp+0]
	.loc	1 0 0 is_stmt 0         # fieldsolver/ldz_magnetic_field.cpp:0:0
	movl	16(%rbp), %eax
	movl	%eax, %r12d
	movq	-48(%rbp), %rax         # 8-byte Reload
	movl	%eax, %edi
	movl	-60(%rbp), %r15d        # 4-byte Reload
.Ltmp74:
.LBB0_82:                               # %L..inline.70756
	#DEBUG_VALUE: perBDt2Grid0 <- [DW_OP_constu 128, DW_OP_minus] [$rbp+0]
	#DEBUG_VALUE: perBGrid0 <- [DW_OP_constu 136, DW_OP_minus] [$rbp+0]
	#DEBUG_VALUE: propagateMagneticField:j <- [DW_OP_constu 56, DW_OP_minus] [$rbp+0]
	#DEBUG_VALUE: j <- [DW_OP_constu 56, DW_OP_minus] [$rbp+0]
	#DEBUG_VALUE: propagateMagneticField:i <- [DW_OP_constu 48, DW_OP_minus] [$rbp+0]
	#DEBUG_VALUE: i <- [DW_OP_constu 48, DW_OP_minus] [$rbp+0]
	#DEBUG_VALUE: dz <- $xmm2
	#DEBUG_VALUE: dy <- $xmm0
	#DEBUG_VALUE: dx <- $xmm1
	#DEBUG_VALUE: propagateMagneticField:perBDt2Grid <- [DW_OP_constu 160, DW_OP_minus] [$rbp+0]
	#DEBUG_VALUE: perBDt2Grid <- [DW_OP_constu 160, DW_OP_minus] [$rbp+0]
	#DEBUG_VALUE: propagateMagneticField:EGrid <- [DW_OP_constu 96, DW_OP_minus] [$rbp+0]
	#DEBUG_VALUE: EGrid <- [DW_OP_constu 96, DW_OP_minus] [$rbp+0]
	#DEBUG_VALUE: propagateMagneticField:EDt2Grid <- [DW_OP_constu 144, DW_OP_minus] [$rbp+0]
	#DEBUG_VALUE: EDt2Grid <- [DW_OP_constu 144, DW_OP_minus] [$rbp+0]
	#DEBUG_VALUE: propagateMagneticField:k <- [DW_OP_plus_uconst 16] [$rbp+0]
	#DEBUG_VALUE: k <- [DW_OP_plus_uconst 16] [$rbp+0]
	#DEBUG_VALUE: propagateMagneticField:dt <- [DW_OP_plus_uconst 24] [$rbp+0]
	#DEBUG_VALUE: dt <- [DW_OP_plus_uconst 24] [$rbp+0]
	#DEBUG_VALUE: propagateMagneticField:RKCase <- [DW_OP_plus_uconst 32] [$rbp+0]
	#DEBUG_VALUE: RKCase <- [DW_OP_plus_uconst 32] [$rbp+0]
	#DEBUG_VALUE: propagateMagneticField:doX <- [DW_OP_plus_uconst 40] [$rbp+0]
	#DEBUG_VALUE: doX <- [DW_OP_plus_uconst 40] [$rbp+0]
	#DEBUG_VALUE: propagateMagneticField:doY <- [DW_OP_plus_uconst 48] [$rbp+0]
	#DEBUG_VALUE: doY <- [DW_OP_plus_uconst 48] [$rbp+0]
	#DEBUG_VALUE: propagateMagneticField:doZ <- [DW_OP_plus_uconst 56] [$rbp+0]
	#DEBUG_VALUE: doZ <- [DW_OP_plus_uconst 56] [$rbp+0]
	.loc	1 793 1 is_stmt 1       # fieldsolver/ldz_magnetic_field.cpp:793:1
	cmpl	$2, 260(%r9)
	jge	.LBB0_84
.Ltmp75:
# %bb.83:
	#DEBUG_VALUE: perBDt2Grid0 <- [DW_OP_constu 128, DW_OP_minus] [$rbp+0]
	#DEBUG_VALUE: perBGrid0 <- [DW_OP_constu 136, DW_OP_minus] [$rbp+0]
	#DEBUG_VALUE: propagateMagneticField:j <- [DW_OP_constu 56, DW_OP_minus] [$rbp+0]
	#DEBUG_VALUE: j <- [DW_OP_constu 56, DW_OP_minus] [$rbp+0]
	#DEBUG_VALUE: propagateMagneticField:i <- [DW_OP_constu 48, DW_OP_minus] [$rbp+0]
	#DEBUG_VALUE: i <- [DW_OP_constu 48, DW_OP_minus] [$rbp+0]
	#DEBUG_VALUE: dz <- $xmm2
	#DEBUG_VALUE: dy <- $xmm0
	#DEBUG_VALUE: dx <- $xmm1
	#DEBUG_VALUE: propagateMagneticField:perBDt2Grid <- [DW_OP_constu 160, DW_OP_minus] [$rbp+0]
	#DEBUG_VALUE: perBDt2Grid <- [DW_OP_constu 160, DW_OP_minus] [$rbp+0]
	#DEBUG_VALUE: propagateMagneticField:EGrid <- [DW_OP_constu 96, DW_OP_minus] [$rbp+0]
	#DEBUG_VALUE: EGrid <- [DW_OP_constu 96, DW_OP_minus] [$rbp+0]
	#DEBUG_VALUE: propagateMagneticField:EDt2Grid <- [DW_OP_constu 144, DW_OP_minus] [$rbp+0]
	#DEBUG_VALUE: EDt2Grid <- [DW_OP_constu 144, DW_OP_minus] [$rbp+0]
	#DEBUG_VALUE: propagateMagneticField:k <- [DW_OP_plus_uconst 16] [$rbp+0]
	#DEBUG_VALUE: k <- [DW_OP_plus_uconst 16] [$rbp+0]
	#DEBUG_VALUE: propagateMagneticField:dt <- [DW_OP_plus_uconst 24] [$rbp+0]
	#DEBUG_VALUE: dt <- [DW_OP_plus_uconst 24] [$rbp+0]
	#DEBUG_VALUE: propagateMagneticField:RKCase <- [DW_OP_plus_uconst 32] [$rbp+0]
	#DEBUG_VALUE: RKCase <- [DW_OP_plus_uconst 32] [$rbp+0]
	#DEBUG_VALUE: propagateMagneticField:doX <- [DW_OP_plus_uconst 40] [$rbp+0]
	#DEBUG_VALUE: doX <- [DW_OP_plus_uconst 40] [$rbp+0]
	#DEBUG_VALUE: propagateMagneticField:doY <- [DW_OP_plus_uconst 48] [$rbp+0]
	#DEBUG_VALUE: doY <- [DW_OP_plus_uconst 48] [$rbp+0]
	#DEBUG_VALUE: propagateMagneticField:doZ <- [DW_OP_plus_uconst 56] [$rbp+0]
	#DEBUG_VALUE: doZ <- [DW_OP_plus_uconst 56] [$rbp+0]
	.loc	1 0 1 is_stmt 0         # fieldsolver/ldz_magnetic_field.cpp:0:1
	xorl	%eax, %eax
	jmp	.LBB0_85
.Ltmp76:
.LBB0_77:                               # %L.B1257
	#DEBUG_VALUE: perBDt2Grid0 <- [DW_OP_constu 128, DW_OP_minus] [$rbp+0]
	#DEBUG_VALUE: perBGrid0 <- [DW_OP_constu 136, DW_OP_minus] [$rbp+0]
	#DEBUG_VALUE: propagateMagneticField:j <- [DW_OP_constu 56, DW_OP_minus] [$rbp+0]
	#DEBUG_VALUE: j <- [DW_OP_constu 56, DW_OP_minus] [$rbp+0]
	#DEBUG_VALUE: propagateMagneticField:i <- [DW_OP_constu 48, DW_OP_minus] [$rbp+0]
	#DEBUG_VALUE: i <- [DW_OP_constu 48, DW_OP_minus] [$rbp+0]
	#DEBUG_VALUE: dz <- $xmm2
	#DEBUG_VALUE: dy <- $xmm0
	#DEBUG_VALUE: dx <- $xmm1
	#DEBUG_VALUE: propagateMagneticField:perBDt2Grid <- [DW_OP_constu 160, DW_OP_minus] [$rbp+0]
	#DEBUG_VALUE: perBDt2Grid <- [DW_OP_constu 160, DW_OP_minus] [$rbp+0]
	#DEBUG_VALUE: propagateMagneticField:EGrid <- [DW_OP_constu 96, DW_OP_minus] [$rbp+0]
	#DEBUG_VALUE: EGrid <- [DW_OP_constu 96, DW_OP_minus] [$rbp+0]
	#DEBUG_VALUE: propagateMagneticField:EDt2Grid <- [DW_OP_constu 144, DW_OP_minus] [$rbp+0]
	#DEBUG_VALUE: EDt2Grid <- [DW_OP_constu 144, DW_OP_minus] [$rbp+0]
	#DEBUG_VALUE: propagateMagneticField:k <- [DW_OP_plus_uconst 16] [$rbp+0]
	#DEBUG_VALUE: k <- [DW_OP_plus_uconst 16] [$rbp+0]
	#DEBUG_VALUE: propagateMagneticField:dt <- [DW_OP_plus_uconst 24] [$rbp+0]
	#DEBUG_VALUE: dt <- [DW_OP_plus_uconst 24] [$rbp+0]
	#DEBUG_VALUE: propagateMagneticField:RKCase <- [DW_OP_plus_uconst 32] [$rbp+0]
	#DEBUG_VALUE: RKCase <- [DW_OP_plus_uconst 32] [$rbp+0]
	#DEBUG_VALUE: propagateMagneticField:doX <- [DW_OP_plus_uconst 40] [$rbp+0]
	#DEBUG_VALUE: doX <- [DW_OP_plus_uconst 40] [$rbp+0]
	#DEBUG_VALUE: propagateMagneticField:doY <- [DW_OP_plus_uconst 48] [$rbp+0]
	#DEBUG_VALUE: doY <- [DW_OP_plus_uconst 48] [$rbp+0]
	#DEBUG_VALUE: propagateMagneticField:doZ <- [DW_OP_plus_uconst 56] [$rbp+0]
	#DEBUG_VALUE: doZ <- [DW_OP_plus_uconst 56] [$rbp+0]
	.loc	1 779 1 is_stmt 1       # fieldsolver/ldz_magnetic_field.cpp:779:1
	movslq	%edi, %rcx
	movl	92(%r9,%rcx,4), %ecx
	cmpl	$-2, %ecx
	movl	-60(%rbp), %r15d        # 4-byte Reload
	jne	.LBB0_79
.Ltmp77:
# %bb.78:
	#DEBUG_VALUE: perBDt2Grid0 <- [DW_OP_constu 128, DW_OP_minus] [$rbp+0]
	#DEBUG_VALUE: perBGrid0 <- [DW_OP_constu 136, DW_OP_minus] [$rbp+0]
	#DEBUG_VALUE: propagateMagneticField:j <- [DW_OP_constu 56, DW_OP_minus] [$rbp+0]
	#DEBUG_VALUE: j <- [DW_OP_constu 56, DW_OP_minus] [$rbp+0]
	#DEBUG_VALUE: propagateMagneticField:i <- [DW_OP_constu 48, DW_OP_minus] [$rbp+0]
	#DEBUG_VALUE: i <- [DW_OP_constu 48, DW_OP_minus] [$rbp+0]
	#DEBUG_VALUE: dz <- $xmm2
	#DEBUG_VALUE: dy <- $xmm0
	#DEBUG_VALUE: dx <- $xmm1
	#DEBUG_VALUE: propagateMagneticField:perBDt2Grid <- [DW_OP_constu 160, DW_OP_minus] [$rbp+0]
	#DEBUG_VALUE: perBDt2Grid <- [DW_OP_constu 160, DW_OP_minus] [$rbp+0]
	#DEBUG_VALUE: propagateMagneticField:EGrid <- [DW_OP_constu 96, DW_OP_minus] [$rbp+0]
	#DEBUG_VALUE: EGrid <- [DW_OP_constu 96, DW_OP_minus] [$rbp+0]
	#DEBUG_VALUE: propagateMagneticField:EDt2Grid <- [DW_OP_constu 144, DW_OP_minus] [$rbp+0]
	#DEBUG_VALUE: EDt2Grid <- [DW_OP_constu 144, DW_OP_minus] [$rbp+0]
	#DEBUG_VALUE: propagateMagneticField:k <- [DW_OP_plus_uconst 16] [$rbp+0]
	#DEBUG_VALUE: k <- [DW_OP_plus_uconst 16] [$rbp+0]
	#DEBUG_VALUE: propagateMagneticField:dt <- [DW_OP_plus_uconst 24] [$rbp+0]
	#DEBUG_VALUE: dt <- [DW_OP_plus_uconst 24] [$rbp+0]
	#DEBUG_VALUE: propagateMagneticField:RKCase <- [DW_OP_plus_uconst 32] [$rbp+0]
	#DEBUG_VALUE: RKCase <- [DW_OP_plus_uconst 32] [$rbp+0]
	#DEBUG_VALUE: propagateMagneticField:doX <- [DW_OP_plus_uconst 40] [$rbp+0]
	#DEBUG_VALUE: doX <- [DW_OP_plus_uconst 40] [$rbp+0]
	#DEBUG_VALUE: propagateMagneticField:doY <- [DW_OP_plus_uconst 48] [$rbp+0]
	#DEBUG_VALUE: doY <- [DW_OP_plus_uconst 48] [$rbp+0]
	#DEBUG_VALUE: propagateMagneticField:doZ <- [DW_OP_plus_uconst 56] [$rbp+0]
	#DEBUG_VALUE: doZ <- [DW_OP_plus_uconst 56] [$rbp+0]
	.loc	1 0 1 is_stmt 0         # fieldsolver/ldz_magnetic_field.cpp:0:1
	xorl	%edi, %edi
	movq	-136(%rbp), %r13        # 8-byte Reload
	movq	24(%rbp), %r12
	jmp	.LBB0_88
.Ltmp78:
.LBB0_84:                               # %L.B1260
	#DEBUG_VALUE: perBDt2Grid0 <- [DW_OP_constu 128, DW_OP_minus] [$rbp+0]
	#DEBUG_VALUE: perBGrid0 <- [DW_OP_constu 136, DW_OP_minus] [$rbp+0]
	#DEBUG_VALUE: propagateMagneticField:j <- [DW_OP_constu 56, DW_OP_minus] [$rbp+0]
	#DEBUG_VALUE: j <- [DW_OP_constu 56, DW_OP_minus] [$rbp+0]
	#DEBUG_VALUE: propagateMagneticField:i <- [DW_OP_constu 48, DW_OP_minus] [$rbp+0]
	#DEBUG_VALUE: i <- [DW_OP_constu 48, DW_OP_minus] [$rbp+0]
	#DEBUG_VALUE: dz <- $xmm2
	#DEBUG_VALUE: dy <- $xmm0
	#DEBUG_VALUE: dx <- $xmm1
	#DEBUG_VALUE: propagateMagneticField:perBDt2Grid <- [DW_OP_constu 160, DW_OP_minus] [$rbp+0]
	#DEBUG_VALUE: perBDt2Grid <- [DW_OP_constu 160, DW_OP_minus] [$rbp+0]
	#DEBUG_VALUE: propagateMagneticField:EGrid <- [DW_OP_constu 96, DW_OP_minus] [$rbp+0]
	#DEBUG_VALUE: EGrid <- [DW_OP_constu 96, DW_OP_minus] [$rbp+0]
	#DEBUG_VALUE: propagateMagneticField:EDt2Grid <- [DW_OP_constu 144, DW_OP_minus] [$rbp+0]
	#DEBUG_VALUE: EDt2Grid <- [DW_OP_constu 144, DW_OP_minus] [$rbp+0]
	#DEBUG_VALUE: propagateMagneticField:k <- [DW_OP_plus_uconst 16] [$rbp+0]
	#DEBUG_VALUE: k <- [DW_OP_plus_uconst 16] [$rbp+0]
	#DEBUG_VALUE: propagateMagneticField:dt <- [DW_OP_plus_uconst 24] [$rbp+0]
	#DEBUG_VALUE: dt <- [DW_OP_plus_uconst 24] [$rbp+0]
	#DEBUG_VALUE: propagateMagneticField:RKCase <- [DW_OP_plus_uconst 32] [$rbp+0]
	#DEBUG_VALUE: RKCase <- [DW_OP_plus_uconst 32] [$rbp+0]
	#DEBUG_VALUE: propagateMagneticField:doX <- [DW_OP_plus_uconst 40] [$rbp+0]
	#DEBUG_VALUE: doX <- [DW_OP_plus_uconst 40] [$rbp+0]
	#DEBUG_VALUE: propagateMagneticField:doY <- [DW_OP_plus_uconst 48] [$rbp+0]
	#DEBUG_VALUE: doY <- [DW_OP_plus_uconst 48] [$rbp+0]
	#DEBUG_VALUE: propagateMagneticField:doZ <- [DW_OP_plus_uconst 56] [$rbp+0]
	#DEBUG_VALUE: doZ <- [DW_OP_plus_uconst 56] [$rbp+0]
	.loc	1 793 1 is_stmt 1       # fieldsolver/ldz_magnetic_field.cpp:793:1
	addl	$2, %r12d
	imull	280(%r9), %r12d
	imull	276(%r9), %r12d
	movslq	%r12d, %rax
.Ltmp79:
.LBB0_85:                               # %L..inline.70865
	#DEBUG_VALUE: perBDt2Grid0 <- [DW_OP_constu 128, DW_OP_minus] [$rbp+0]
	#DEBUG_VALUE: perBGrid0 <- [DW_OP_constu 136, DW_OP_minus] [$rbp+0]
	#DEBUG_VALUE: propagateMagneticField:j <- [DW_OP_constu 56, DW_OP_minus] [$rbp+0]
	#DEBUG_VALUE: j <- [DW_OP_constu 56, DW_OP_minus] [$rbp+0]
	#DEBUG_VALUE: propagateMagneticField:i <- [DW_OP_constu 48, DW_OP_minus] [$rbp+0]
	#DEBUG_VALUE: i <- [DW_OP_constu 48, DW_OP_minus] [$rbp+0]
	#DEBUG_VALUE: dz <- $xmm2
	#DEBUG_VALUE: dy <- $xmm0
	#DEBUG_VALUE: dx <- $xmm1
	#DEBUG_VALUE: propagateMagneticField:perBDt2Grid <- [DW_OP_constu 160, DW_OP_minus] [$rbp+0]
	#DEBUG_VALUE: perBDt2Grid <- [DW_OP_constu 160, DW_OP_minus] [$rbp+0]
	#DEBUG_VALUE: propagateMagneticField:EGrid <- [DW_OP_constu 96, DW_OP_minus] [$rbp+0]
	#DEBUG_VALUE: EGrid <- [DW_OP_constu 96, DW_OP_minus] [$rbp+0]
	#DEBUG_VALUE: propagateMagneticField:EDt2Grid <- [DW_OP_constu 144, DW_OP_minus] [$rbp+0]
	#DEBUG_VALUE: EDt2Grid <- [DW_OP_constu 144, DW_OP_minus] [$rbp+0]
	#DEBUG_VALUE: propagateMagneticField:k <- [DW_OP_plus_uconst 16] [$rbp+0]
	#DEBUG_VALUE: k <- [DW_OP_plus_uconst 16] [$rbp+0]
	#DEBUG_VALUE: propagateMagneticField:dt <- [DW_OP_plus_uconst 24] [$rbp+0]
	#DEBUG_VALUE: dt <- [DW_OP_plus_uconst 24] [$rbp+0]
	#DEBUG_VALUE: propagateMagneticField:RKCase <- [DW_OP_plus_uconst 32] [$rbp+0]
	#DEBUG_VALUE: RKCase <- [DW_OP_plus_uconst 32] [$rbp+0]
	#DEBUG_VALUE: propagateMagneticField:doX <- [DW_OP_plus_uconst 40] [$rbp+0]
	#DEBUG_VALUE: doX <- [DW_OP_plus_uconst 40] [$rbp+0]
	#DEBUG_VALUE: propagateMagneticField:doY <- [DW_OP_plus_uconst 48] [$rbp+0]
	#DEBUG_VALUE: doY <- [DW_OP_plus_uconst 48] [$rbp+0]
	#DEBUG_VALUE: propagateMagneticField:doZ <- [DW_OP_plus_uconst 56] [$rbp+0]
	#DEBUG_VALUE: doZ <- [DW_OP_plus_uconst 56] [$rbp+0]
	.loc	1 0 1 is_stmt 0         # fieldsolver/ldz_magnetic_field.cpp:0:1
	movq	-136(%rbp), %r13        # 8-byte Reload
	movq	24(%rbp), %r12
	.loc	1 793 1                 # fieldsolver/ldz_magnetic_field.cpp:793:1
	cmpl	$2, 256(%r9)
	jl	.LBB0_87
.Ltmp80:
# %bb.86:                               # %L.B1261
	#DEBUG_VALUE: perBDt2Grid0 <- [DW_OP_constu 128, DW_OP_minus] [$rbp+0]
	#DEBUG_VALUE: perBGrid0 <- [DW_OP_constu 136, DW_OP_minus] [$rbp+0]
	#DEBUG_VALUE: propagateMagneticField:j <- [DW_OP_constu 56, DW_OP_minus] [$rbp+0]
	#DEBUG_VALUE: j <- [DW_OP_constu 56, DW_OP_minus] [$rbp+0]
	#DEBUG_VALUE: propagateMagneticField:i <- [DW_OP_constu 48, DW_OP_minus] [$rbp+0]
	#DEBUG_VALUE: i <- [DW_OP_constu 48, DW_OP_minus] [$rbp+0]
	#DEBUG_VALUE: dz <- $xmm2
	#DEBUG_VALUE: dy <- $xmm0
	#DEBUG_VALUE: dx <- $xmm1
	#DEBUG_VALUE: propagateMagneticField:perBDt2Grid <- [DW_OP_constu 160, DW_OP_minus] [$rbp+0]
	#DEBUG_VALUE: perBDt2Grid <- [DW_OP_constu 160, DW_OP_minus] [$rbp+0]
	#DEBUG_VALUE: propagateMagneticField:EGrid <- [DW_OP_constu 96, DW_OP_minus] [$rbp+0]
	#DEBUG_VALUE: EGrid <- [DW_OP_constu 96, DW_OP_minus] [$rbp+0]
	#DEBUG_VALUE: propagateMagneticField:EDt2Grid <- [DW_OP_constu 144, DW_OP_minus] [$rbp+0]
	#DEBUG_VALUE: EDt2Grid <- [DW_OP_constu 144, DW_OP_minus] [$rbp+0]
	#DEBUG_VALUE: propagateMagneticField:k <- [DW_OP_plus_uconst 16] [$rbp+0]
	#DEBUG_VALUE: k <- [DW_OP_plus_uconst 16] [$rbp+0]
	#DEBUG_VALUE: propagateMagneticField:dt <- [DW_OP_plus_uconst 24] [$rbp+0]
	#DEBUG_VALUE: dt <- [DW_OP_plus_uconst 24] [$rbp+0]
	#DEBUG_VALUE: propagateMagneticField:RKCase <- [DW_OP_plus_uconst 32] [$rbp+0]
	#DEBUG_VALUE: RKCase <- [DW_OP_plus_uconst 32] [$rbp+0]
	#DEBUG_VALUE: propagateMagneticField:doX <- [DW_OP_plus_uconst 40] [$rbp+0]
	#DEBUG_VALUE: doX <- [DW_OP_plus_uconst 40] [$rbp+0]
	#DEBUG_VALUE: propagateMagneticField:doY <- [DW_OP_plus_uconst 48] [$rbp+0]
	#DEBUG_VALUE: doY <- [DW_OP_plus_uconst 48] [$rbp+0]
	#DEBUG_VALUE: propagateMagneticField:doZ <- [DW_OP_plus_uconst 56] [$rbp+0]
	#DEBUG_VALUE: doZ <- [DW_OP_plus_uconst 56] [$rbp+0]
	addl	$2, %ebx
	imull	276(%r9), %ebx
	movslq	%ebx, %rcx
	addq	%rcx, %rax
.Ltmp81:
.LBB0_87:                               # %L..inline.70914
	#DEBUG_VALUE: perBDt2Grid0 <- [DW_OP_constu 128, DW_OP_minus] [$rbp+0]
	#DEBUG_VALUE: perBGrid0 <- [DW_OP_constu 136, DW_OP_minus] [$rbp+0]
	#DEBUG_VALUE: propagateMagneticField:j <- [DW_OP_constu 56, DW_OP_minus] [$rbp+0]
	#DEBUG_VALUE: j <- [DW_OP_constu 56, DW_OP_minus] [$rbp+0]
	#DEBUG_VALUE: propagateMagneticField:i <- [DW_OP_constu 48, DW_OP_minus] [$rbp+0]
	#DEBUG_VALUE: i <- [DW_OP_constu 48, DW_OP_minus] [$rbp+0]
	#DEBUG_VALUE: dz <- $xmm2
	#DEBUG_VALUE: dy <- $xmm0
	#DEBUG_VALUE: dx <- $xmm1
	#DEBUG_VALUE: propagateMagneticField:perBDt2Grid <- [DW_OP_constu 160, DW_OP_minus] [$rbp+0]
	#DEBUG_VALUE: perBDt2Grid <- [DW_OP_constu 160, DW_OP_minus] [$rbp+0]
	#DEBUG_VALUE: propagateMagneticField:EGrid <- [DW_OP_constu 96, DW_OP_minus] [$rbp+0]
	#DEBUG_VALUE: EGrid <- [DW_OP_constu 96, DW_OP_minus] [$rbp+0]
	#DEBUG_VALUE: propagateMagneticField:EDt2Grid <- [DW_OP_constu 144, DW_OP_minus] [$rbp+0]
	#DEBUG_VALUE: EDt2Grid <- [DW_OP_constu 144, DW_OP_minus] [$rbp+0]
	#DEBUG_VALUE: propagateMagneticField:k <- [DW_OP_plus_uconst 16] [$rbp+0]
	#DEBUG_VALUE: k <- [DW_OP_plus_uconst 16] [$rbp+0]
	#DEBUG_VALUE: propagateMagneticField:dt <- [DW_OP_plus_uconst 24] [$rbp+0]
	#DEBUG_VALUE: dt <- [DW_OP_plus_uconst 24] [$rbp+0]
	#DEBUG_VALUE: propagateMagneticField:RKCase <- [DW_OP_plus_uconst 32] [$rbp+0]
	#DEBUG_VALUE: RKCase <- [DW_OP_plus_uconst 32] [$rbp+0]
	#DEBUG_VALUE: propagateMagneticField:doX <- [DW_OP_plus_uconst 40] [$rbp+0]
	#DEBUG_VALUE: doX <- [DW_OP_plus_uconst 40] [$rbp+0]
	#DEBUG_VALUE: propagateMagneticField:doY <- [DW_OP_plus_uconst 48] [$rbp+0]
	#DEBUG_VALUE: doY <- [DW_OP_plus_uconst 48] [$rbp+0]
	#DEBUG_VALUE: propagateMagneticField:doZ <- [DW_OP_plus_uconst 56] [$rbp+0]
	#DEBUG_VALUE: doZ <- [DW_OP_plus_uconst 56] [$rbp+0]
	movslq	%edi, %rcx
	addq	$2, %rcx
	xorl	%esi, %esi
	cmpl	$2, 252(%r9)
	cmovgeq	%rcx, %rsi
	addq	%rax, %rsi
	.loc	1 795 1 is_stmt 1       # fieldsolver/ldz_magnetic_field.cpp:795:1
	leaq	(%rsi,%rsi,2), %rdi
	shlq	$3, %rdi
	addq	744(%r9), %rdi
.Ltmp82:
.LBB0_88:                               # %L..inline.70960
	#DEBUG_VALUE: perBDt2Grid0 <- [DW_OP_constu 128, DW_OP_minus] [$rbp+0]
	#DEBUG_VALUE: perBGrid0 <- [DW_OP_constu 136, DW_OP_minus] [$rbp+0]
	#DEBUG_VALUE: propagateMagneticField:j <- [DW_OP_constu 56, DW_OP_minus] [$rbp+0]
	#DEBUG_VALUE: j <- [DW_OP_constu 56, DW_OP_minus] [$rbp+0]
	#DEBUG_VALUE: propagateMagneticField:i <- [DW_OP_constu 48, DW_OP_minus] [$rbp+0]
	#DEBUG_VALUE: i <- [DW_OP_constu 48, DW_OP_minus] [$rbp+0]
	#DEBUG_VALUE: dz <- $xmm2
	#DEBUG_VALUE: dy <- $xmm0
	#DEBUG_VALUE: dx <- $xmm1
	#DEBUG_VALUE: propagateMagneticField:perBDt2Grid <- [DW_OP_constu 160, DW_OP_minus] [$rbp+0]
	#DEBUG_VALUE: perBDt2Grid <- [DW_OP_constu 160, DW_OP_minus] [$rbp+0]
	#DEBUG_VALUE: propagateMagneticField:EGrid <- [DW_OP_constu 96, DW_OP_minus] [$rbp+0]
	#DEBUG_VALUE: EGrid <- [DW_OP_constu 96, DW_OP_minus] [$rbp+0]
	#DEBUG_VALUE: propagateMagneticField:EDt2Grid <- [DW_OP_constu 144, DW_OP_minus] [$rbp+0]
	#DEBUG_VALUE: EDt2Grid <- [DW_OP_constu 144, DW_OP_minus] [$rbp+0]
	#DEBUG_VALUE: propagateMagneticField:k <- [DW_OP_plus_uconst 16] [$rbp+0]
	#DEBUG_VALUE: k <- [DW_OP_plus_uconst 16] [$rbp+0]
	#DEBUG_VALUE: propagateMagneticField:dt <- [DW_OP_plus_uconst 24] [$rbp+0]
	#DEBUG_VALUE: dt <- [DW_OP_plus_uconst 24] [$rbp+0]
	#DEBUG_VALUE: propagateMagneticField:RKCase <- [DW_OP_plus_uconst 32] [$rbp+0]
	#DEBUG_VALUE: RKCase <- [DW_OP_plus_uconst 32] [$rbp+0]
	#DEBUG_VALUE: propagateMagneticField:doX <- [DW_OP_plus_uconst 40] [$rbp+0]
	#DEBUG_VALUE: doX <- [DW_OP_plus_uconst 40] [$rbp+0]
	#DEBUG_VALUE: propagateMagneticField:doY <- [DW_OP_plus_uconst 48] [$rbp+0]
	#DEBUG_VALUE: doY <- [DW_OP_plus_uconst 48] [$rbp+0]
	#DEBUG_VALUE: propagateMagneticField:doZ <- [DW_OP_plus_uconst 56] [$rbp+0]
	#DEBUG_VALUE: doZ <- [DW_OP_plus_uconst 56] [$rbp+0]
	#DEBUG_VALUE: EGrid1 <- undef
	.loc	1 86 1                  # fieldsolver/ldz_magnetic_field.cpp:86:1
	movl	16(%rbp), %eax
	leal	1(%rax), %ebx
	.loc	1 719 1                 # fieldsolver/ldz_magnetic_field.cpp:719:1
	movl	%ebx, %esi
	shrl	$31, %esi
	testl	%ebx, %ebx
	movl	-112(%rbp), %edx        # 4-byte Reload
	cmovnsl	%r11d, %edx
	.loc	1 723 1                 # fieldsolver/ldz_magnetic_field.cpp:723:1
	xorl	%ecx, %ecx
	cmpl	%r15d, %ebx
	setge	%cl
	movl	$-1, %eax
	cmovll	%esi, %eax
	addl	%edx, %ecx
	.loc	1 776 1                 # fieldsolver/ldz_magnetic_field.cpp:776:1
	cmpl	$13, %ecx
	jne	.LBB0_90
.Ltmp83:
# %bb.89:
	#DEBUG_VALUE: perBDt2Grid0 <- [DW_OP_constu 128, DW_OP_minus] [$rbp+0]
	#DEBUG_VALUE: perBGrid0 <- [DW_OP_constu 136, DW_OP_minus] [$rbp+0]
	#DEBUG_VALUE: propagateMagneticField:j <- [DW_OP_constu 56, DW_OP_minus] [$rbp+0]
	#DEBUG_VALUE: j <- [DW_OP_constu 56, DW_OP_minus] [$rbp+0]
	#DEBUG_VALUE: propagateMagneticField:i <- [DW_OP_constu 48, DW_OP_minus] [$rbp+0]
	#DEBUG_VALUE: i <- [DW_OP_constu 48, DW_OP_minus] [$rbp+0]
	#DEBUG_VALUE: dz <- $xmm2
	#DEBUG_VALUE: dy <- $xmm0
	#DEBUG_VALUE: dx <- $xmm1
	#DEBUG_VALUE: propagateMagneticField:perBDt2Grid <- [DW_OP_constu 160, DW_OP_minus] [$rbp+0]
	#DEBUG_VALUE: perBDt2Grid <- [DW_OP_constu 160, DW_OP_minus] [$rbp+0]
	#DEBUG_VALUE: propagateMagneticField:EGrid <- [DW_OP_constu 96, DW_OP_minus] [$rbp+0]
	#DEBUG_VALUE: EGrid <- [DW_OP_constu 96, DW_OP_minus] [$rbp+0]
	#DEBUG_VALUE: propagateMagneticField:EDt2Grid <- [DW_OP_constu 144, DW_OP_minus] [$rbp+0]
	#DEBUG_VALUE: EDt2Grid <- [DW_OP_constu 144, DW_OP_minus] [$rbp+0]
	#DEBUG_VALUE: propagateMagneticField:k <- [DW_OP_plus_uconst 16] [$rbp+0]
	#DEBUG_VALUE: k <- [DW_OP_plus_uconst 16] [$rbp+0]
	#DEBUG_VALUE: propagateMagneticField:dt <- [DW_OP_plus_uconst 24] [$rbp+0]
	#DEBUG_VALUE: dt <- [DW_OP_plus_uconst 24] [$rbp+0]
	#DEBUG_VALUE: propagateMagneticField:RKCase <- [DW_OP_plus_uconst 32] [$rbp+0]
	#DEBUG_VALUE: RKCase <- [DW_OP_plus_uconst 32] [$rbp+0]
	#DEBUG_VALUE: propagateMagneticField:doX <- [DW_OP_plus_uconst 40] [$rbp+0]
	#DEBUG_VALUE: doX <- [DW_OP_plus_uconst 40] [$rbp+0]
	#DEBUG_VALUE: propagateMagneticField:doY <- [DW_OP_plus_uconst 48] [$rbp+0]
	#DEBUG_VALUE: doY <- [DW_OP_plus_uconst 48] [$rbp+0]
	#DEBUG_VALUE: propagateMagneticField:doZ <- [DW_OP_plus_uconst 56] [$rbp+0]
	#DEBUG_VALUE: doZ <- [DW_OP_plus_uconst 56] [$rbp+0]
	.loc	1 0 1 is_stmt 0         # fieldsolver/ldz_magnetic_field.cpp:0:1
	movq	-56(%rbp), %rax         # 8-byte Reload
	movl	%eax, %r10d
	movq	-48(%rbp), %rax         # 8-byte Reload
	movl	%eax, %esi
	movq	-128(%rbp), %rdx        # 8-byte Reload
	.loc	1 793 1 is_stmt 1       # fieldsolver/ldz_magnetic_field.cpp:793:1
	cmpl	$2, 260(%r9)
	jge	.LBB0_95
	jmp	.LBB0_94
.Ltmp84:
.LBB0_90:                               # %L.B1268
	#DEBUG_VALUE: perBDt2Grid0 <- [DW_OP_constu 128, DW_OP_minus] [$rbp+0]
	#DEBUG_VALUE: perBGrid0 <- [DW_OP_constu 136, DW_OP_minus] [$rbp+0]
	#DEBUG_VALUE: propagateMagneticField:j <- [DW_OP_constu 56, DW_OP_minus] [$rbp+0]
	#DEBUG_VALUE: j <- [DW_OP_constu 56, DW_OP_minus] [$rbp+0]
	#DEBUG_VALUE: propagateMagneticField:i <- [DW_OP_constu 48, DW_OP_minus] [$rbp+0]
	#DEBUG_VALUE: i <- [DW_OP_constu 48, DW_OP_minus] [$rbp+0]
	#DEBUG_VALUE: dz <- $xmm2
	#DEBUG_VALUE: dy <- $xmm0
	#DEBUG_VALUE: dx <- $xmm1
	#DEBUG_VALUE: propagateMagneticField:perBDt2Grid <- [DW_OP_constu 160, DW_OP_minus] [$rbp+0]
	#DEBUG_VALUE: perBDt2Grid <- [DW_OP_constu 160, DW_OP_minus] [$rbp+0]
	#DEBUG_VALUE: propagateMagneticField:EGrid <- [DW_OP_constu 96, DW_OP_minus] [$rbp+0]
	#DEBUG_VALUE: EGrid <- [DW_OP_constu 96, DW_OP_minus] [$rbp+0]
	#DEBUG_VALUE: propagateMagneticField:EDt2Grid <- [DW_OP_constu 144, DW_OP_minus] [$rbp+0]
	#DEBUG_VALUE: EDt2Grid <- [DW_OP_constu 144, DW_OP_minus] [$rbp+0]
	#DEBUG_VALUE: propagateMagneticField:k <- [DW_OP_plus_uconst 16] [$rbp+0]
	#DEBUG_VALUE: k <- [DW_OP_plus_uconst 16] [$rbp+0]
	#DEBUG_VALUE: propagateMagneticField:dt <- [DW_OP_plus_uconst 24] [$rbp+0]
	#DEBUG_VALUE: dt <- [DW_OP_plus_uconst 24] [$rbp+0]
	#DEBUG_VALUE: propagateMagneticField:RKCase <- [DW_OP_plus_uconst 32] [$rbp+0]
	#DEBUG_VALUE: RKCase <- [DW_OP_plus_uconst 32] [$rbp+0]
	#DEBUG_VALUE: propagateMagneticField:doX <- [DW_OP_plus_uconst 40] [$rbp+0]
	#DEBUG_VALUE: doX <- [DW_OP_plus_uconst 40] [$rbp+0]
	#DEBUG_VALUE: propagateMagneticField:doY <- [DW_OP_plus_uconst 48] [$rbp+0]
	#DEBUG_VALUE: doY <- [DW_OP_plus_uconst 48] [$rbp+0]
	#DEBUG_VALUE: propagateMagneticField:doZ <- [DW_OP_plus_uconst 56] [$rbp+0]
	#DEBUG_VALUE: doZ <- [DW_OP_plus_uconst 56] [$rbp+0]
	.loc	1 779 1                 # fieldsolver/ldz_magnetic_field.cpp:779:1
	movslq	%ecx, %rcx
	movl	92(%r9,%rcx,4), %ecx
	.loc	1 784 1                 # fieldsolver/ldz_magnetic_field.cpp:784:1
	cmpl	56(%r9), %ecx
	movq	-128(%rbp), %rdx        # 8-byte Reload
	jne	.LBB0_91
.Ltmp85:
# %bb.92:                               # %L.B1270
	#DEBUG_VALUE: perBDt2Grid0 <- [DW_OP_constu 128, DW_OP_minus] [$rbp+0]
	#DEBUG_VALUE: perBGrid0 <- [DW_OP_constu 136, DW_OP_minus] [$rbp+0]
	#DEBUG_VALUE: propagateMagneticField:j <- [DW_OP_constu 56, DW_OP_minus] [$rbp+0]
	#DEBUG_VALUE: j <- [DW_OP_constu 56, DW_OP_minus] [$rbp+0]
	#DEBUG_VALUE: propagateMagneticField:i <- [DW_OP_constu 48, DW_OP_minus] [$rbp+0]
	#DEBUG_VALUE: i <- [DW_OP_constu 48, DW_OP_minus] [$rbp+0]
	#DEBUG_VALUE: dz <- $xmm2
	#DEBUG_VALUE: dy <- $xmm0
	#DEBUG_VALUE: dx <- $xmm1
	#DEBUG_VALUE: propagateMagneticField:perBDt2Grid <- [DW_OP_constu 160, DW_OP_minus] [$rbp+0]
	#DEBUG_VALUE: perBDt2Grid <- [DW_OP_constu 160, DW_OP_minus] [$rbp+0]
	#DEBUG_VALUE: propagateMagneticField:EGrid <- [DW_OP_constu 96, DW_OP_minus] [$rbp+0]
	#DEBUG_VALUE: EGrid <- [DW_OP_constu 96, DW_OP_minus] [$rbp+0]
	#DEBUG_VALUE: propagateMagneticField:EDt2Grid <- [DW_OP_constu 144, DW_OP_minus] [$rbp+0]
	#DEBUG_VALUE: EDt2Grid <- [DW_OP_constu 144, DW_OP_minus] [$rbp+0]
	#DEBUG_VALUE: propagateMagneticField:k <- [DW_OP_plus_uconst 16] [$rbp+0]
	#DEBUG_VALUE: k <- [DW_OP_plus_uconst 16] [$rbp+0]
	#DEBUG_VALUE: propagateMagneticField:dt <- [DW_OP_plus_uconst 24] [$rbp+0]
	#DEBUG_VALUE: dt <- [DW_OP_plus_uconst 24] [$rbp+0]
	#DEBUG_VALUE: propagateMagneticField:RKCase <- [DW_OP_plus_uconst 32] [$rbp+0]
	#DEBUG_VALUE: RKCase <- [DW_OP_plus_uconst 32] [$rbp+0]
	#DEBUG_VALUE: propagateMagneticField:doX <- [DW_OP_plus_uconst 40] [$rbp+0]
	#DEBUG_VALUE: doX <- [DW_OP_plus_uconst 40] [$rbp+0]
	#DEBUG_VALUE: propagateMagneticField:doY <- [DW_OP_plus_uconst 48] [$rbp+0]
	#DEBUG_VALUE: doY <- [DW_OP_plus_uconst 48] [$rbp+0]
	#DEBUG_VALUE: propagateMagneticField:doZ <- [DW_OP_plus_uconst 56] [$rbp+0]
	#DEBUG_VALUE: doZ <- [DW_OP_plus_uconst 56] [$rbp+0]
	.loc	1 0 1 is_stmt 0         # fieldsolver/ldz_magnetic_field.cpp:0:1
	movl	-108(%rbp), %esi        # 4-byte Reload
	.loc	1 787 1 is_stmt 1       # fieldsolver/ldz_magnetic_field.cpp:787:1
	imull	-116(%rbp), %esi        # 4-byte Folded Reload
	addl	-48(%rbp), %esi         # 4-byte Folded Reload
	.loc	1 788 1                 # fieldsolver/ldz_magnetic_field.cpp:788:1
	imull	%r8d, %r10d
	addl	-56(%rbp), %r10d        # 4-byte Folded Reload
	.loc	1 789 1                 # fieldsolver/ldz_magnetic_field.cpp:789:1
	imull	%r15d, %eax
	addl	%eax, %ebx
	.loc	1 793 1                 # fieldsolver/ldz_magnetic_field.cpp:793:1
	cmpl	$2, 260(%r9)
	jl	.LBB0_94
.Ltmp86:
.LBB0_95:                               # %L.B1271
	#DEBUG_VALUE: perBDt2Grid0 <- [DW_OP_constu 128, DW_OP_minus] [$rbp+0]
	#DEBUG_VALUE: perBGrid0 <- [DW_OP_constu 136, DW_OP_minus] [$rbp+0]
	#DEBUG_VALUE: propagateMagneticField:j <- [DW_OP_constu 56, DW_OP_minus] [$rbp+0]
	#DEBUG_VALUE: j <- [DW_OP_constu 56, DW_OP_minus] [$rbp+0]
	#DEBUG_VALUE: propagateMagneticField:i <- [DW_OP_constu 48, DW_OP_minus] [$rbp+0]
	#DEBUG_VALUE: i <- [DW_OP_constu 48, DW_OP_minus] [$rbp+0]
	#DEBUG_VALUE: dz <- $xmm2
	#DEBUG_VALUE: dy <- $xmm0
	#DEBUG_VALUE: dx <- $xmm1
	#DEBUG_VALUE: propagateMagneticField:perBDt2Grid <- [DW_OP_constu 160, DW_OP_minus] [$rbp+0]
	#DEBUG_VALUE: perBDt2Grid <- [DW_OP_constu 160, DW_OP_minus] [$rbp+0]
	#DEBUG_VALUE: propagateMagneticField:EGrid <- [DW_OP_constu 96, DW_OP_minus] [$rbp+0]
	#DEBUG_VALUE: EGrid <- [DW_OP_constu 96, DW_OP_minus] [$rbp+0]
	#DEBUG_VALUE: propagateMagneticField:EDt2Grid <- [DW_OP_constu 144, DW_OP_minus] [$rbp+0]
	#DEBUG_VALUE: EDt2Grid <- [DW_OP_constu 144, DW_OP_minus] [$rbp+0]
	#DEBUG_VALUE: propagateMagneticField:k <- [DW_OP_plus_uconst 16] [$rbp+0]
	#DEBUG_VALUE: k <- [DW_OP_plus_uconst 16] [$rbp+0]
	#DEBUG_VALUE: propagateMagneticField:dt <- [DW_OP_plus_uconst 24] [$rbp+0]
	#DEBUG_VALUE: dt <- [DW_OP_plus_uconst 24] [$rbp+0]
	#DEBUG_VALUE: propagateMagneticField:RKCase <- [DW_OP_plus_uconst 32] [$rbp+0]
	#DEBUG_VALUE: RKCase <- [DW_OP_plus_uconst 32] [$rbp+0]
	#DEBUG_VALUE: propagateMagneticField:doX <- [DW_OP_plus_uconst 40] [$rbp+0]
	#DEBUG_VALUE: doX <- [DW_OP_plus_uconst 40] [$rbp+0]
	#DEBUG_VALUE: propagateMagneticField:doY <- [DW_OP_plus_uconst 48] [$rbp+0]
	#DEBUG_VALUE: doY <- [DW_OP_plus_uconst 48] [$rbp+0]
	#DEBUG_VALUE: propagateMagneticField:doZ <- [DW_OP_plus_uconst 56] [$rbp+0]
	#DEBUG_VALUE: doZ <- [DW_OP_plus_uconst 56] [$rbp+0]
	addl	$2, %ebx
	imull	280(%r9), %ebx
	imull	276(%r9), %ebx
	movslq	%ebx, %rax
	cmpl	$2, 256(%r9)
	jge	.LBB0_97
	jmp	.LBB0_98
.Ltmp87:
.LBB0_25:                               # %L.B1205
	#DEBUG_VALUE: perBGrid0 <- [DW_OP_constu 136, DW_OP_minus] [$rbp+0]
	#DEBUG_VALUE: propagateMagneticField:j <- [DW_OP_constu 56, DW_OP_minus] [$rbp+0]
	#DEBUG_VALUE: j <- [DW_OP_constu 56, DW_OP_minus] [$rbp+0]
	#DEBUG_VALUE: propagateMagneticField:i <- [DW_OP_constu 48, DW_OP_minus] [$rbp+0]
	#DEBUG_VALUE: i <- [DW_OP_constu 48, DW_OP_minus] [$rbp+0]
	#DEBUG_VALUE: dz <- $xmm2
	#DEBUG_VALUE: dy <- $xmm0
	#DEBUG_VALUE: dx <- $xmm1
	#DEBUG_VALUE: propagateMagneticField:perBDt2Grid <- [DW_OP_constu 160, DW_OP_minus] [$rbp+0]
	#DEBUG_VALUE: perBDt2Grid <- [DW_OP_constu 160, DW_OP_minus] [$rbp+0]
	#DEBUG_VALUE: propagateMagneticField:EGrid <- [DW_OP_constu 96, DW_OP_minus] [$rbp+0]
	#DEBUG_VALUE: EGrid <- [DW_OP_constu 96, DW_OP_minus] [$rbp+0]
	#DEBUG_VALUE: propagateMagneticField:EDt2Grid <- [DW_OP_constu 144, DW_OP_minus] [$rbp+0]
	#DEBUG_VALUE: EDt2Grid <- [DW_OP_constu 144, DW_OP_minus] [$rbp+0]
	#DEBUG_VALUE: propagateMagneticField:k <- [DW_OP_plus_uconst 16] [$rbp+0]
	#DEBUG_VALUE: k <- [DW_OP_plus_uconst 16] [$rbp+0]
	#DEBUG_VALUE: propagateMagneticField:dt <- [DW_OP_plus_uconst 24] [$rbp+0]
	#DEBUG_VALUE: dt <- [DW_OP_plus_uconst 24] [$rbp+0]
	#DEBUG_VALUE: propagateMagneticField:RKCase <- [DW_OP_plus_uconst 32] [$rbp+0]
	#DEBUG_VALUE: RKCase <- [DW_OP_plus_uconst 32] [$rbp+0]
	#DEBUG_VALUE: propagateMagneticField:doX <- [DW_OP_plus_uconst 40] [$rbp+0]
	#DEBUG_VALUE: doX <- [DW_OP_plus_uconst 40] [$rbp+0]
	#DEBUG_VALUE: propagateMagneticField:doY <- [DW_OP_plus_uconst 48] [$rbp+0]
	#DEBUG_VALUE: doY <- [DW_OP_plus_uconst 48] [$rbp+0]
	#DEBUG_VALUE: propagateMagneticField:doZ <- [DW_OP_plus_uconst 56] [$rbp+0]
	#DEBUG_VALUE: doZ <- [DW_OP_plus_uconst 56] [$rbp+0]
	addl	$2, %edi
	imull	280(%r9), %edi
	imull	276(%r9), %edi
	movslq	%edi, %rdi
	cmpl	$2, 256(%r9)
	jl	.LBB0_28
.Ltmp88:
.LBB0_27:                               # %L.B1206
	#DEBUG_VALUE: perBGrid0 <- [DW_OP_constu 136, DW_OP_minus] [$rbp+0]
	#DEBUG_VALUE: propagateMagneticField:j <- [DW_OP_constu 56, DW_OP_minus] [$rbp+0]
	#DEBUG_VALUE: j <- [DW_OP_constu 56, DW_OP_minus] [$rbp+0]
	#DEBUG_VALUE: propagateMagneticField:i <- [DW_OP_constu 48, DW_OP_minus] [$rbp+0]
	#DEBUG_VALUE: i <- [DW_OP_constu 48, DW_OP_minus] [$rbp+0]
	#DEBUG_VALUE: dz <- $xmm2
	#DEBUG_VALUE: dy <- $xmm0
	#DEBUG_VALUE: dx <- $xmm1
	#DEBUG_VALUE: propagateMagneticField:perBDt2Grid <- [DW_OP_constu 160, DW_OP_minus] [$rbp+0]
	#DEBUG_VALUE: perBDt2Grid <- [DW_OP_constu 160, DW_OP_minus] [$rbp+0]
	#DEBUG_VALUE: propagateMagneticField:EGrid <- [DW_OP_constu 96, DW_OP_minus] [$rbp+0]
	#DEBUG_VALUE: EGrid <- [DW_OP_constu 96, DW_OP_minus] [$rbp+0]
	#DEBUG_VALUE: propagateMagneticField:EDt2Grid <- [DW_OP_constu 144, DW_OP_minus] [$rbp+0]
	#DEBUG_VALUE: EDt2Grid <- [DW_OP_constu 144, DW_OP_minus] [$rbp+0]
	#DEBUG_VALUE: propagateMagneticField:k <- [DW_OP_plus_uconst 16] [$rbp+0]
	#DEBUG_VALUE: k <- [DW_OP_plus_uconst 16] [$rbp+0]
	#DEBUG_VALUE: propagateMagneticField:dt <- [DW_OP_plus_uconst 24] [$rbp+0]
	#DEBUG_VALUE: dt <- [DW_OP_plus_uconst 24] [$rbp+0]
	#DEBUG_VALUE: propagateMagneticField:RKCase <- [DW_OP_plus_uconst 32] [$rbp+0]
	#DEBUG_VALUE: RKCase <- [DW_OP_plus_uconst 32] [$rbp+0]
	#DEBUG_VALUE: propagateMagneticField:doX <- [DW_OP_plus_uconst 40] [$rbp+0]
	#DEBUG_VALUE: doX <- [DW_OP_plus_uconst 40] [$rbp+0]
	#DEBUG_VALUE: propagateMagneticField:doY <- [DW_OP_plus_uconst 48] [$rbp+0]
	#DEBUG_VALUE: doY <- [DW_OP_plus_uconst 48] [$rbp+0]
	#DEBUG_VALUE: propagateMagneticField:doZ <- [DW_OP_plus_uconst 56] [$rbp+0]
	#DEBUG_VALUE: doZ <- [DW_OP_plus_uconst 56] [$rbp+0]
	addl	$2, %eax
	imull	276(%r9), %eax
	cltq
	addq	%rax, %rdi
.Ltmp89:
.LBB0_28:                               # %L..inline.69499
	#DEBUG_VALUE: perBGrid0 <- [DW_OP_constu 136, DW_OP_minus] [$rbp+0]
	#DEBUG_VALUE: propagateMagneticField:j <- [DW_OP_constu 56, DW_OP_minus] [$rbp+0]
	#DEBUG_VALUE: j <- [DW_OP_constu 56, DW_OP_minus] [$rbp+0]
	#DEBUG_VALUE: propagateMagneticField:i <- [DW_OP_constu 48, DW_OP_minus] [$rbp+0]
	#DEBUG_VALUE: i <- [DW_OP_constu 48, DW_OP_minus] [$rbp+0]
	#DEBUG_VALUE: dz <- $xmm2
	#DEBUG_VALUE: dy <- $xmm0
	#DEBUG_VALUE: dx <- $xmm1
	#DEBUG_VALUE: propagateMagneticField:perBDt2Grid <- [DW_OP_constu 160, DW_OP_minus] [$rbp+0]
	#DEBUG_VALUE: perBDt2Grid <- [DW_OP_constu 160, DW_OP_minus] [$rbp+0]
	#DEBUG_VALUE: propagateMagneticField:EGrid <- [DW_OP_constu 96, DW_OP_minus] [$rbp+0]
	#DEBUG_VALUE: EGrid <- [DW_OP_constu 96, DW_OP_minus] [$rbp+0]
	#DEBUG_VALUE: propagateMagneticField:EDt2Grid <- [DW_OP_constu 144, DW_OP_minus] [$rbp+0]
	#DEBUG_VALUE: EDt2Grid <- [DW_OP_constu 144, DW_OP_minus] [$rbp+0]
	#DEBUG_VALUE: propagateMagneticField:k <- [DW_OP_plus_uconst 16] [$rbp+0]
	#DEBUG_VALUE: k <- [DW_OP_plus_uconst 16] [$rbp+0]
	#DEBUG_VALUE: propagateMagneticField:dt <- [DW_OP_plus_uconst 24] [$rbp+0]
	#DEBUG_VALUE: dt <- [DW_OP_plus_uconst 24] [$rbp+0]
	#DEBUG_VALUE: propagateMagneticField:RKCase <- [DW_OP_plus_uconst 32] [$rbp+0]
	#DEBUG_VALUE: RKCase <- [DW_OP_plus_uconst 32] [$rbp+0]
	#DEBUG_VALUE: propagateMagneticField:doX <- [DW_OP_plus_uconst 40] [$rbp+0]
	#DEBUG_VALUE: doX <- [DW_OP_plus_uconst 40] [$rbp+0]
	#DEBUG_VALUE: propagateMagneticField:doY <- [DW_OP_plus_uconst 48] [$rbp+0]
	#DEBUG_VALUE: doY <- [DW_OP_plus_uconst 48] [$rbp+0]
	#DEBUG_VALUE: propagateMagneticField:doZ <- [DW_OP_plus_uconst 56] [$rbp+0]
	#DEBUG_VALUE: doZ <- [DW_OP_plus_uconst 56] [$rbp+0]
	movslq	%r8d, %rax
	addq	$2, %rax
	xorl	%ecx, %ecx
	cmpl	$2, 252(%r9)
	cmovgeq	%rax, %rcx
	addq	%rdi, %rcx
	.loc	1 795 1                 # fieldsolver/ldz_magnetic_field.cpp:795:1
	leaq	(%rcx,%rcx,2), %r11
	shlq	$3, %r11
	addq	744(%r9), %r11
.Ltmp90:
.LBB0_29:                               # %L..inline.69545
	#DEBUG_VALUE: perBGrid0 <- [DW_OP_constu 136, DW_OP_minus] [$rbp+0]
	#DEBUG_VALUE: propagateMagneticField:j <- [DW_OP_constu 56, DW_OP_minus] [$rbp+0]
	#DEBUG_VALUE: j <- [DW_OP_constu 56, DW_OP_minus] [$rbp+0]
	#DEBUG_VALUE: propagateMagneticField:i <- [DW_OP_constu 48, DW_OP_minus] [$rbp+0]
	#DEBUG_VALUE: i <- [DW_OP_constu 48, DW_OP_minus] [$rbp+0]
	#DEBUG_VALUE: dz <- $xmm2
	#DEBUG_VALUE: dy <- $xmm0
	#DEBUG_VALUE: dx <- $xmm1
	#DEBUG_VALUE: propagateMagneticField:perBDt2Grid <- [DW_OP_constu 160, DW_OP_minus] [$rbp+0]
	#DEBUG_VALUE: perBDt2Grid <- [DW_OP_constu 160, DW_OP_minus] [$rbp+0]
	#DEBUG_VALUE: propagateMagneticField:EGrid <- [DW_OP_constu 96, DW_OP_minus] [$rbp+0]
	#DEBUG_VALUE: EGrid <- [DW_OP_constu 96, DW_OP_minus] [$rbp+0]
	#DEBUG_VALUE: propagateMagneticField:EDt2Grid <- [DW_OP_constu 144, DW_OP_minus] [$rbp+0]
	#DEBUG_VALUE: EDt2Grid <- [DW_OP_constu 144, DW_OP_minus] [$rbp+0]
	#DEBUG_VALUE: propagateMagneticField:k <- [DW_OP_plus_uconst 16] [$rbp+0]
	#DEBUG_VALUE: k <- [DW_OP_plus_uconst 16] [$rbp+0]
	#DEBUG_VALUE: propagateMagneticField:dt <- [DW_OP_plus_uconst 24] [$rbp+0]
	#DEBUG_VALUE: dt <- [DW_OP_plus_uconst 24] [$rbp+0]
	#DEBUG_VALUE: propagateMagneticField:RKCase <- [DW_OP_plus_uconst 32] [$rbp+0]
	#DEBUG_VALUE: RKCase <- [DW_OP_plus_uconst 32] [$rbp+0]
	#DEBUG_VALUE: propagateMagneticField:doX <- [DW_OP_plus_uconst 40] [$rbp+0]
	#DEBUG_VALUE: doX <- [DW_OP_plus_uconst 40] [$rbp+0]
	#DEBUG_VALUE: propagateMagneticField:doY <- [DW_OP_plus_uconst 48] [$rbp+0]
	#DEBUG_VALUE: doY <- [DW_OP_plus_uconst 48] [$rbp+0]
	#DEBUG_VALUE: propagateMagneticField:doZ <- [DW_OP_plus_uconst 56] [$rbp+0]
	#DEBUG_VALUE: doZ <- [DW_OP_plus_uconst 56] [$rbp+0]
	#DEBUG_VALUE: EGrid0 <- undef
	.loc	1 0 1 is_stmt 0         # fieldsolver/ldz_magnetic_field.cpp:0:1
	movq	-56(%rbp), %rax         # 8-byte Reload
	.loc	1 77 1 is_stmt 1        # fieldsolver/ldz_magnetic_field.cpp:77:1
	leal	1(%rax), %ebx
	.loc	1 711 1                 # fieldsolver/ldz_magnetic_field.cpp:711:1
	movl	%ebx, %ecx
	shrl	$31, %ecx
	testl	%ebx, %ebx
	cmovnsl	%r15d, %r13d
	.loc	1 715 1                 # fieldsolver/ldz_magnetic_field.cpp:715:1
	leal	3(%r13), %edi
	movl	-60(%rbp), %r8d         # 4-byte Reload
	cmpl	%r8d, %ebx
	movl	$-1, %eax
	cmovll	%ecx, %eax
	cmovll	%r13d, %edi
	.loc	1 719 1                 # fieldsolver/ldz_magnetic_field.cpp:719:1
	addl	-84(%rbp), %r10d        # 4-byte Folded Reload
	.loc	1 723 1                 # fieldsolver/ldz_magnetic_field.cpp:723:1
	addl	%edi, %r10d
	.loc	1 776 1                 # fieldsolver/ldz_magnetic_field.cpp:776:1
	cmpl	$13, %r10d
	movl	-64(%rbp), %r13d        # 4-byte Reload
	jne	.LBB0_31
.Ltmp91:
# %bb.30:
	#DEBUG_VALUE: perBGrid0 <- [DW_OP_constu 136, DW_OP_minus] [$rbp+0]
	#DEBUG_VALUE: propagateMagneticField:j <- [DW_OP_constu 56, DW_OP_minus] [$rbp+0]
	#DEBUG_VALUE: j <- [DW_OP_constu 56, DW_OP_minus] [$rbp+0]
	#DEBUG_VALUE: propagateMagneticField:i <- [DW_OP_constu 48, DW_OP_minus] [$rbp+0]
	#DEBUG_VALUE: i <- [DW_OP_constu 48, DW_OP_minus] [$rbp+0]
	#DEBUG_VALUE: dz <- $xmm2
	#DEBUG_VALUE: dy <- $xmm0
	#DEBUG_VALUE: dx <- $xmm1
	#DEBUG_VALUE: propagateMagneticField:perBDt2Grid <- [DW_OP_constu 160, DW_OP_minus] [$rbp+0]
	#DEBUG_VALUE: perBDt2Grid <- [DW_OP_constu 160, DW_OP_minus] [$rbp+0]
	#DEBUG_VALUE: propagateMagneticField:EGrid <- [DW_OP_constu 96, DW_OP_minus] [$rbp+0]
	#DEBUG_VALUE: EGrid <- [DW_OP_constu 96, DW_OP_minus] [$rbp+0]
	#DEBUG_VALUE: propagateMagneticField:EDt2Grid <- [DW_OP_constu 144, DW_OP_minus] [$rbp+0]
	#DEBUG_VALUE: EDt2Grid <- [DW_OP_constu 144, DW_OP_minus] [$rbp+0]
	#DEBUG_VALUE: propagateMagneticField:k <- [DW_OP_plus_uconst 16] [$rbp+0]
	#DEBUG_VALUE: k <- [DW_OP_plus_uconst 16] [$rbp+0]
	#DEBUG_VALUE: propagateMagneticField:dt <- [DW_OP_plus_uconst 24] [$rbp+0]
	#DEBUG_VALUE: dt <- [DW_OP_plus_uconst 24] [$rbp+0]
	#DEBUG_VALUE: propagateMagneticField:RKCase <- [DW_OP_plus_uconst 32] [$rbp+0]
	#DEBUG_VALUE: RKCase <- [DW_OP_plus_uconst 32] [$rbp+0]
	#DEBUG_VALUE: propagateMagneticField:doX <- [DW_OP_plus_uconst 40] [$rbp+0]
	#DEBUG_VALUE: doX <- [DW_OP_plus_uconst 40] [$rbp+0]
	#DEBUG_VALUE: propagateMagneticField:doY <- [DW_OP_plus_uconst 48] [$rbp+0]
	#DEBUG_VALUE: doY <- [DW_OP_plus_uconst 48] [$rbp+0]
	#DEBUG_VALUE: propagateMagneticField:doZ <- [DW_OP_plus_uconst 56] [$rbp+0]
	#DEBUG_VALUE: doZ <- [DW_OP_plus_uconst 56] [$rbp+0]
	.loc	1 0 0 is_stmt 0         # fieldsolver/ldz_magnetic_field.cpp:0:0
	movl	16(%rbp), %eax
	movl	%eax, %r14d
	movq	-48(%rbp), %rax         # 8-byte Reload
	movl	%eax, %esi
	movq	32(%rbp), %r10
	movl	-128(%rbp), %r15d       # 4-byte Reload
.Ltmp92:
.LBB0_36:                               # %L..inline.69608
	#DEBUG_VALUE: perBGrid0 <- [DW_OP_constu 136, DW_OP_minus] [$rbp+0]
	#DEBUG_VALUE: propagateMagneticField:j <- [DW_OP_constu 56, DW_OP_minus] [$rbp+0]
	#DEBUG_VALUE: j <- [DW_OP_constu 56, DW_OP_minus] [$rbp+0]
	#DEBUG_VALUE: propagateMagneticField:i <- [DW_OP_constu 48, DW_OP_minus] [$rbp+0]
	#DEBUG_VALUE: i <- [DW_OP_constu 48, DW_OP_minus] [$rbp+0]
	#DEBUG_VALUE: dz <- $xmm2
	#DEBUG_VALUE: dy <- $xmm0
	#DEBUG_VALUE: dx <- $xmm1
	#DEBUG_VALUE: propagateMagneticField:perBDt2Grid <- [DW_OP_constu 160, DW_OP_minus] [$rbp+0]
	#DEBUG_VALUE: perBDt2Grid <- [DW_OP_constu 160, DW_OP_minus] [$rbp+0]
	#DEBUG_VALUE: propagateMagneticField:EGrid <- [DW_OP_constu 96, DW_OP_minus] [$rbp+0]
	#DEBUG_VALUE: EGrid <- [DW_OP_constu 96, DW_OP_minus] [$rbp+0]
	#DEBUG_VALUE: propagateMagneticField:EDt2Grid <- [DW_OP_constu 144, DW_OP_minus] [$rbp+0]
	#DEBUG_VALUE: EDt2Grid <- [DW_OP_constu 144, DW_OP_minus] [$rbp+0]
	#DEBUG_VALUE: propagateMagneticField:k <- [DW_OP_plus_uconst 16] [$rbp+0]
	#DEBUG_VALUE: k <- [DW_OP_plus_uconst 16] [$rbp+0]
	#DEBUG_VALUE: propagateMagneticField:dt <- [DW_OP_plus_uconst 24] [$rbp+0]
	#DEBUG_VALUE: dt <- [DW_OP_plus_uconst 24] [$rbp+0]
	#DEBUG_VALUE: propagateMagneticField:RKCase <- [DW_OP_plus_uconst 32] [$rbp+0]
	#DEBUG_VALUE: RKCase <- [DW_OP_plus_uconst 32] [$rbp+0]
	#DEBUG_VALUE: propagateMagneticField:doX <- [DW_OP_plus_uconst 40] [$rbp+0]
	#DEBUG_VALUE: doX <- [DW_OP_plus_uconst 40] [$rbp+0]
	#DEBUG_VALUE: propagateMagneticField:doY <- [DW_OP_plus_uconst 48] [$rbp+0]
	#DEBUG_VALUE: doY <- [DW_OP_plus_uconst 48] [$rbp+0]
	#DEBUG_VALUE: propagateMagneticField:doZ <- [DW_OP_plus_uconst 56] [$rbp+0]
	#DEBUG_VALUE: doZ <- [DW_OP_plus_uconst 56] [$rbp+0]
	.loc	1 793 1 is_stmt 1       # fieldsolver/ldz_magnetic_field.cpp:793:1
	cmpl	$2, 260(%r9)
	jge	.LBB0_38
.Ltmp93:
# %bb.37:
	#DEBUG_VALUE: perBGrid0 <- [DW_OP_constu 136, DW_OP_minus] [$rbp+0]
	#DEBUG_VALUE: propagateMagneticField:j <- [DW_OP_constu 56, DW_OP_minus] [$rbp+0]
	#DEBUG_VALUE: j <- [DW_OP_constu 56, DW_OP_minus] [$rbp+0]
	#DEBUG_VALUE: propagateMagneticField:i <- [DW_OP_constu 48, DW_OP_minus] [$rbp+0]
	#DEBUG_VALUE: i <- [DW_OP_constu 48, DW_OP_minus] [$rbp+0]
	#DEBUG_VALUE: dz <- $xmm2
	#DEBUG_VALUE: dy <- $xmm0
	#DEBUG_VALUE: dx <- $xmm1
	#DEBUG_VALUE: propagateMagneticField:perBDt2Grid <- [DW_OP_constu 160, DW_OP_minus] [$rbp+0]
	#DEBUG_VALUE: perBDt2Grid <- [DW_OP_constu 160, DW_OP_minus] [$rbp+0]
	#DEBUG_VALUE: propagateMagneticField:EGrid <- [DW_OP_constu 96, DW_OP_minus] [$rbp+0]
	#DEBUG_VALUE: EGrid <- [DW_OP_constu 96, DW_OP_minus] [$rbp+0]
	#DEBUG_VALUE: propagateMagneticField:EDt2Grid <- [DW_OP_constu 144, DW_OP_minus] [$rbp+0]
	#DEBUG_VALUE: EDt2Grid <- [DW_OP_constu 144, DW_OP_minus] [$rbp+0]
	#DEBUG_VALUE: propagateMagneticField:k <- [DW_OP_plus_uconst 16] [$rbp+0]
	#DEBUG_VALUE: k <- [DW_OP_plus_uconst 16] [$rbp+0]
	#DEBUG_VALUE: propagateMagneticField:dt <- [DW_OP_plus_uconst 24] [$rbp+0]
	#DEBUG_VALUE: dt <- [DW_OP_plus_uconst 24] [$rbp+0]
	#DEBUG_VALUE: propagateMagneticField:RKCase <- [DW_OP_plus_uconst 32] [$rbp+0]
	#DEBUG_VALUE: RKCase <- [DW_OP_plus_uconst 32] [$rbp+0]
	#DEBUG_VALUE: propagateMagneticField:doX <- [DW_OP_plus_uconst 40] [$rbp+0]
	#DEBUG_VALUE: doX <- [DW_OP_plus_uconst 40] [$rbp+0]
	#DEBUG_VALUE: propagateMagneticField:doY <- [DW_OP_plus_uconst 48] [$rbp+0]
	#DEBUG_VALUE: doY <- [DW_OP_plus_uconst 48] [$rbp+0]
	#DEBUG_VALUE: propagateMagneticField:doZ <- [DW_OP_plus_uconst 56] [$rbp+0]
	#DEBUG_VALUE: doZ <- [DW_OP_plus_uconst 56] [$rbp+0]
	.loc	1 0 1 is_stmt 0         # fieldsolver/ldz_magnetic_field.cpp:0:1
	xorl	%eax, %eax
	jmp	.LBB0_39
.Ltmp94:
.LBB0_31:                               # %L.B1213
	#DEBUG_VALUE: perBGrid0 <- [DW_OP_constu 136, DW_OP_minus] [$rbp+0]
	#DEBUG_VALUE: propagateMagneticField:j <- [DW_OP_constu 56, DW_OP_minus] [$rbp+0]
	#DEBUG_VALUE: j <- [DW_OP_constu 56, DW_OP_minus] [$rbp+0]
	#DEBUG_VALUE: propagateMagneticField:i <- [DW_OP_constu 48, DW_OP_minus] [$rbp+0]
	#DEBUG_VALUE: i <- [DW_OP_constu 48, DW_OP_minus] [$rbp+0]
	#DEBUG_VALUE: dz <- $xmm2
	#DEBUG_VALUE: dy <- $xmm0
	#DEBUG_VALUE: dx <- $xmm1
	#DEBUG_VALUE: propagateMagneticField:perBDt2Grid <- [DW_OP_constu 160, DW_OP_minus] [$rbp+0]
	#DEBUG_VALUE: perBDt2Grid <- [DW_OP_constu 160, DW_OP_minus] [$rbp+0]
	#DEBUG_VALUE: propagateMagneticField:EGrid <- [DW_OP_constu 96, DW_OP_minus] [$rbp+0]
	#DEBUG_VALUE: EGrid <- [DW_OP_constu 96, DW_OP_minus] [$rbp+0]
	#DEBUG_VALUE: propagateMagneticField:EDt2Grid <- [DW_OP_constu 144, DW_OP_minus] [$rbp+0]
	#DEBUG_VALUE: EDt2Grid <- [DW_OP_constu 144, DW_OP_minus] [$rbp+0]
	#DEBUG_VALUE: propagateMagneticField:k <- [DW_OP_plus_uconst 16] [$rbp+0]
	#DEBUG_VALUE: k <- [DW_OP_plus_uconst 16] [$rbp+0]
	#DEBUG_VALUE: propagateMagneticField:dt <- [DW_OP_plus_uconst 24] [$rbp+0]
	#DEBUG_VALUE: dt <- [DW_OP_plus_uconst 24] [$rbp+0]
	#DEBUG_VALUE: propagateMagneticField:RKCase <- [DW_OP_plus_uconst 32] [$rbp+0]
	#DEBUG_VALUE: RKCase <- [DW_OP_plus_uconst 32] [$rbp+0]
	#DEBUG_VALUE: propagateMagneticField:doX <- [DW_OP_plus_uconst 40] [$rbp+0]
	#DEBUG_VALUE: doX <- [DW_OP_plus_uconst 40] [$rbp+0]
	#DEBUG_VALUE: propagateMagneticField:doY <- [DW_OP_plus_uconst 48] [$rbp+0]
	#DEBUG_VALUE: doY <- [DW_OP_plus_uconst 48] [$rbp+0]
	#DEBUG_VALUE: propagateMagneticField:doZ <- [DW_OP_plus_uconst 56] [$rbp+0]
	#DEBUG_VALUE: doZ <- [DW_OP_plus_uconst 56] [$rbp+0]
	.loc	1 779 1 is_stmt 1       # fieldsolver/ldz_magnetic_field.cpp:779:1
	movslq	%r10d, %rcx
	movl	92(%r9,%rcx,4), %ecx
	cmpl	$-2, %ecx
	movl	-128(%rbp), %r15d       # 4-byte Reload
	jne	.LBB0_33
.Ltmp95:
# %bb.32:
	#DEBUG_VALUE: perBGrid0 <- [DW_OP_constu 136, DW_OP_minus] [$rbp+0]
	#DEBUG_VALUE: propagateMagneticField:j <- [DW_OP_constu 56, DW_OP_minus] [$rbp+0]
	#DEBUG_VALUE: j <- [DW_OP_constu 56, DW_OP_minus] [$rbp+0]
	#DEBUG_VALUE: propagateMagneticField:i <- [DW_OP_constu 48, DW_OP_minus] [$rbp+0]
	#DEBUG_VALUE: i <- [DW_OP_constu 48, DW_OP_minus] [$rbp+0]
	#DEBUG_VALUE: dz <- $xmm2
	#DEBUG_VALUE: dy <- $xmm0
	#DEBUG_VALUE: dx <- $xmm1
	#DEBUG_VALUE: propagateMagneticField:perBDt2Grid <- [DW_OP_constu 160, DW_OP_minus] [$rbp+0]
	#DEBUG_VALUE: perBDt2Grid <- [DW_OP_constu 160, DW_OP_minus] [$rbp+0]
	#DEBUG_VALUE: propagateMagneticField:EGrid <- [DW_OP_constu 96, DW_OP_minus] [$rbp+0]
	#DEBUG_VALUE: EGrid <- [DW_OP_constu 96, DW_OP_minus] [$rbp+0]
	#DEBUG_VALUE: propagateMagneticField:EDt2Grid <- [DW_OP_constu 144, DW_OP_minus] [$rbp+0]
	#DEBUG_VALUE: EDt2Grid <- [DW_OP_constu 144, DW_OP_minus] [$rbp+0]
	#DEBUG_VALUE: propagateMagneticField:k <- [DW_OP_plus_uconst 16] [$rbp+0]
	#DEBUG_VALUE: k <- [DW_OP_plus_uconst 16] [$rbp+0]
	#DEBUG_VALUE: propagateMagneticField:dt <- [DW_OP_plus_uconst 24] [$rbp+0]
	#DEBUG_VALUE: dt <- [DW_OP_plus_uconst 24] [$rbp+0]
	#DEBUG_VALUE: propagateMagneticField:RKCase <- [DW_OP_plus_uconst 32] [$rbp+0]
	#DEBUG_VALUE: RKCase <- [DW_OP_plus_uconst 32] [$rbp+0]
	#DEBUG_VALUE: propagateMagneticField:doX <- [DW_OP_plus_uconst 40] [$rbp+0]
	#DEBUG_VALUE: doX <- [DW_OP_plus_uconst 40] [$rbp+0]
	#DEBUG_VALUE: propagateMagneticField:doY <- [DW_OP_plus_uconst 48] [$rbp+0]
	#DEBUG_VALUE: doY <- [DW_OP_plus_uconst 48] [$rbp+0]
	#DEBUG_VALUE: propagateMagneticField:doZ <- [DW_OP_plus_uconst 56] [$rbp+0]
	#DEBUG_VALUE: doZ <- [DW_OP_plus_uconst 56] [$rbp+0]
	.loc	1 0 1 is_stmt 0         # fieldsolver/ldz_magnetic_field.cpp:0:1
	xorl	%esi, %esi
	movq	-56(%rbp), %r14         # 8-byte Reload
	movq	32(%rbp), %r10
	jmp	.LBB0_42
.Ltmp96:
.LBB0_38:                               # %L.B1216
	#DEBUG_VALUE: perBGrid0 <- [DW_OP_constu 136, DW_OP_minus] [$rbp+0]
	#DEBUG_VALUE: propagateMagneticField:j <- [DW_OP_constu 56, DW_OP_minus] [$rbp+0]
	#DEBUG_VALUE: j <- [DW_OP_constu 56, DW_OP_minus] [$rbp+0]
	#DEBUG_VALUE: propagateMagneticField:i <- [DW_OP_constu 48, DW_OP_minus] [$rbp+0]
	#DEBUG_VALUE: i <- [DW_OP_constu 48, DW_OP_minus] [$rbp+0]
	#DEBUG_VALUE: dz <- $xmm2
	#DEBUG_VALUE: dy <- $xmm0
	#DEBUG_VALUE: dx <- $xmm1
	#DEBUG_VALUE: propagateMagneticField:perBDt2Grid <- [DW_OP_constu 160, DW_OP_minus] [$rbp+0]
	#DEBUG_VALUE: perBDt2Grid <- [DW_OP_constu 160, DW_OP_minus] [$rbp+0]
	#DEBUG_VALUE: propagateMagneticField:EGrid <- [DW_OP_constu 96, DW_OP_minus] [$rbp+0]
	#DEBUG_VALUE: EGrid <- [DW_OP_constu 96, DW_OP_minus] [$rbp+0]
	#DEBUG_VALUE: propagateMagneticField:EDt2Grid <- [DW_OP_constu 144, DW_OP_minus] [$rbp+0]
	#DEBUG_VALUE: EDt2Grid <- [DW_OP_constu 144, DW_OP_minus] [$rbp+0]
	#DEBUG_VALUE: propagateMagneticField:k <- [DW_OP_plus_uconst 16] [$rbp+0]
	#DEBUG_VALUE: k <- [DW_OP_plus_uconst 16] [$rbp+0]
	#DEBUG_VALUE: propagateMagneticField:dt <- [DW_OP_plus_uconst 24] [$rbp+0]
	#DEBUG_VALUE: dt <- [DW_OP_plus_uconst 24] [$rbp+0]
	#DEBUG_VALUE: propagateMagneticField:RKCase <- [DW_OP_plus_uconst 32] [$rbp+0]
	#DEBUG_VALUE: RKCase <- [DW_OP_plus_uconst 32] [$rbp+0]
	#DEBUG_VALUE: propagateMagneticField:doX <- [DW_OP_plus_uconst 40] [$rbp+0]
	#DEBUG_VALUE: doX <- [DW_OP_plus_uconst 40] [$rbp+0]
	#DEBUG_VALUE: propagateMagneticField:doY <- [DW_OP_plus_uconst 48] [$rbp+0]
	#DEBUG_VALUE: doY <- [DW_OP_plus_uconst 48] [$rbp+0]
	#DEBUG_VALUE: propagateMagneticField:doZ <- [DW_OP_plus_uconst 56] [$rbp+0]
	#DEBUG_VALUE: doZ <- [DW_OP_plus_uconst 56] [$rbp+0]
	.loc	1 793 1 is_stmt 1       # fieldsolver/ldz_magnetic_field.cpp:793:1
	addl	$2, %r14d
	imull	280(%r9), %r14d
	imull	276(%r9), %r14d
	movslq	%r14d, %rax
.Ltmp97:
.LBB0_39:                               # %L..inline.69717
	#DEBUG_VALUE: perBGrid0 <- [DW_OP_constu 136, DW_OP_minus] [$rbp+0]
	#DEBUG_VALUE: propagateMagneticField:j <- [DW_OP_constu 56, DW_OP_minus] [$rbp+0]
	#DEBUG_VALUE: j <- [DW_OP_constu 56, DW_OP_minus] [$rbp+0]
	#DEBUG_VALUE: propagateMagneticField:i <- [DW_OP_constu 48, DW_OP_minus] [$rbp+0]
	#DEBUG_VALUE: i <- [DW_OP_constu 48, DW_OP_minus] [$rbp+0]
	#DEBUG_VALUE: dz <- $xmm2
	#DEBUG_VALUE: dy <- $xmm0
	#DEBUG_VALUE: dx <- $xmm1
	#DEBUG_VALUE: propagateMagneticField:perBDt2Grid <- [DW_OP_constu 160, DW_OP_minus] [$rbp+0]
	#DEBUG_VALUE: perBDt2Grid <- [DW_OP_constu 160, DW_OP_minus] [$rbp+0]
	#DEBUG_VALUE: propagateMagneticField:EGrid <- [DW_OP_constu 96, DW_OP_minus] [$rbp+0]
	#DEBUG_VALUE: EGrid <- [DW_OP_constu 96, DW_OP_minus] [$rbp+0]
	#DEBUG_VALUE: propagateMagneticField:EDt2Grid <- [DW_OP_constu 144, DW_OP_minus] [$rbp+0]
	#DEBUG_VALUE: EDt2Grid <- [DW_OP_constu 144, DW_OP_minus] [$rbp+0]
	#DEBUG_VALUE: propagateMagneticField:k <- [DW_OP_plus_uconst 16] [$rbp+0]
	#DEBUG_VALUE: k <- [DW_OP_plus_uconst 16] [$rbp+0]
	#DEBUG_VALUE: propagateMagneticField:dt <- [DW_OP_plus_uconst 24] [$rbp+0]
	#DEBUG_VALUE: dt <- [DW_OP_plus_uconst 24] [$rbp+0]
	#DEBUG_VALUE: propagateMagneticField:RKCase <- [DW_OP_plus_uconst 32] [$rbp+0]
	#DEBUG_VALUE: RKCase <- [DW_OP_plus_uconst 32] [$rbp+0]
	#DEBUG_VALUE: propagateMagneticField:doX <- [DW_OP_plus_uconst 40] [$rbp+0]
	#DEBUG_VALUE: doX <- [DW_OP_plus_uconst 40] [$rbp+0]
	#DEBUG_VALUE: propagateMagneticField:doY <- [DW_OP_plus_uconst 48] [$rbp+0]
	#DEBUG_VALUE: doY <- [DW_OP_plus_uconst 48] [$rbp+0]
	#DEBUG_VALUE: propagateMagneticField:doZ <- [DW_OP_plus_uconst 56] [$rbp+0]
	#DEBUG_VALUE: doZ <- [DW_OP_plus_uconst 56] [$rbp+0]
	.loc	1 0 1 is_stmt 0         # fieldsolver/ldz_magnetic_field.cpp:0:1
	movq	-56(%rbp), %r14         # 8-byte Reload
	.loc	1 793 1                 # fieldsolver/ldz_magnetic_field.cpp:793:1
	cmpl	$2, 256(%r9)
	jl	.LBB0_41
.Ltmp98:
# %bb.40:                               # %L.B1217
	#DEBUG_VALUE: perBGrid0 <- [DW_OP_constu 136, DW_OP_minus] [$rbp+0]
	#DEBUG_VALUE: propagateMagneticField:j <- [DW_OP_constu 56, DW_OP_minus] [$rbp+0]
	#DEBUG_VALUE: j <- [DW_OP_constu 56, DW_OP_minus] [$rbp+0]
	#DEBUG_VALUE: propagateMagneticField:i <- [DW_OP_constu 48, DW_OP_minus] [$rbp+0]
	#DEBUG_VALUE: i <- [DW_OP_constu 48, DW_OP_minus] [$rbp+0]
	#DEBUG_VALUE: dz <- $xmm2
	#DEBUG_VALUE: dy <- $xmm0
	#DEBUG_VALUE: dx <- $xmm1
	#DEBUG_VALUE: propagateMagneticField:perBDt2Grid <- [DW_OP_constu 160, DW_OP_minus] [$rbp+0]
	#DEBUG_VALUE: perBDt2Grid <- [DW_OP_constu 160, DW_OP_minus] [$rbp+0]
	#DEBUG_VALUE: propagateMagneticField:EGrid <- [DW_OP_constu 96, DW_OP_minus] [$rbp+0]
	#DEBUG_VALUE: EGrid <- [DW_OP_constu 96, DW_OP_minus] [$rbp+0]
	#DEBUG_VALUE: propagateMagneticField:EDt2Grid <- [DW_OP_constu 144, DW_OP_minus] [$rbp+0]
	#DEBUG_VALUE: EDt2Grid <- [DW_OP_constu 144, DW_OP_minus] [$rbp+0]
	#DEBUG_VALUE: propagateMagneticField:k <- [DW_OP_plus_uconst 16] [$rbp+0]
	#DEBUG_VALUE: k <- [DW_OP_plus_uconst 16] [$rbp+0]
	#DEBUG_VALUE: propagateMagneticField:dt <- [DW_OP_plus_uconst 24] [$rbp+0]
	#DEBUG_VALUE: dt <- [DW_OP_plus_uconst 24] [$rbp+0]
	#DEBUG_VALUE: propagateMagneticField:RKCase <- [DW_OP_plus_uconst 32] [$rbp+0]
	#DEBUG_VALUE: RKCase <- [DW_OP_plus_uconst 32] [$rbp+0]
	#DEBUG_VALUE: propagateMagneticField:doX <- [DW_OP_plus_uconst 40] [$rbp+0]
	#DEBUG_VALUE: doX <- [DW_OP_plus_uconst 40] [$rbp+0]
	#DEBUG_VALUE: propagateMagneticField:doY <- [DW_OP_plus_uconst 48] [$rbp+0]
	#DEBUG_VALUE: doY <- [DW_OP_plus_uconst 48] [$rbp+0]
	#DEBUG_VALUE: propagateMagneticField:doZ <- [DW_OP_plus_uconst 56] [$rbp+0]
	#DEBUG_VALUE: doZ <- [DW_OP_plus_uconst 56] [$rbp+0]
	addl	$2, %ebx
	imull	276(%r9), %ebx
	movslq	%ebx, %rcx
	addq	%rcx, %rax
.Ltmp99:
.LBB0_41:                               # %L..inline.69766
	#DEBUG_VALUE: perBGrid0 <- [DW_OP_constu 136, DW_OP_minus] [$rbp+0]
	#DEBUG_VALUE: propagateMagneticField:j <- [DW_OP_constu 56, DW_OP_minus] [$rbp+0]
	#DEBUG_VALUE: j <- [DW_OP_constu 56, DW_OP_minus] [$rbp+0]
	#DEBUG_VALUE: propagateMagneticField:i <- [DW_OP_constu 48, DW_OP_minus] [$rbp+0]
	#DEBUG_VALUE: i <- [DW_OP_constu 48, DW_OP_minus] [$rbp+0]
	#DEBUG_VALUE: dz <- $xmm2
	#DEBUG_VALUE: dy <- $xmm0
	#DEBUG_VALUE: dx <- $xmm1
	#DEBUG_VALUE: propagateMagneticField:perBDt2Grid <- [DW_OP_constu 160, DW_OP_minus] [$rbp+0]
	#DEBUG_VALUE: perBDt2Grid <- [DW_OP_constu 160, DW_OP_minus] [$rbp+0]
	#DEBUG_VALUE: propagateMagneticField:EGrid <- [DW_OP_constu 96, DW_OP_minus] [$rbp+0]
	#DEBUG_VALUE: EGrid <- [DW_OP_constu 96, DW_OP_minus] [$rbp+0]
	#DEBUG_VALUE: propagateMagneticField:EDt2Grid <- [DW_OP_constu 144, DW_OP_minus] [$rbp+0]
	#DEBUG_VALUE: EDt2Grid <- [DW_OP_constu 144, DW_OP_minus] [$rbp+0]
	#DEBUG_VALUE: propagateMagneticField:k <- [DW_OP_plus_uconst 16] [$rbp+0]
	#DEBUG_VALUE: k <- [DW_OP_plus_uconst 16] [$rbp+0]
	#DEBUG_VALUE: propagateMagneticField:dt <- [DW_OP_plus_uconst 24] [$rbp+0]
	#DEBUG_VALUE: dt <- [DW_OP_plus_uconst 24] [$rbp+0]
	#DEBUG_VALUE: propagateMagneticField:RKCase <- [DW_OP_plus_uconst 32] [$rbp+0]
	#DEBUG_VALUE: RKCase <- [DW_OP_plus_uconst 32] [$rbp+0]
	#DEBUG_VALUE: propagateMagneticField:doX <- [DW_OP_plus_uconst 40] [$rbp+0]
	#DEBUG_VALUE: doX <- [DW_OP_plus_uconst 40] [$rbp+0]
	#DEBUG_VALUE: propagateMagneticField:doY <- [DW_OP_plus_uconst 48] [$rbp+0]
	#DEBUG_VALUE: doY <- [DW_OP_plus_uconst 48] [$rbp+0]
	#DEBUG_VALUE: propagateMagneticField:doZ <- [DW_OP_plus_uconst 56] [$rbp+0]
	#DEBUG_VALUE: doZ <- [DW_OP_plus_uconst 56] [$rbp+0]
	movslq	%esi, %rcx
	addq	$2, %rcx
	xorl	%esi, %esi
	cmpl	$2, 252(%r9)
	cmovgeq	%rcx, %rsi
	addq	%rax, %rsi
	.loc	1 795 1 is_stmt 1       # fieldsolver/ldz_magnetic_field.cpp:795:1
	leaq	(%rsi,%rsi,2), %rsi
	shlq	$3, %rsi
	addq	744(%r9), %rsi
.Ltmp100:
.LBB0_42:                               # %L..inline.69812
	#DEBUG_VALUE: perBGrid0 <- [DW_OP_constu 136, DW_OP_minus] [$rbp+0]
	#DEBUG_VALUE: propagateMagneticField:j <- [DW_OP_constu 56, DW_OP_minus] [$rbp+0]
	#DEBUG_VALUE: j <- [DW_OP_constu 56, DW_OP_minus] [$rbp+0]
	#DEBUG_VALUE: propagateMagneticField:i <- [DW_OP_constu 48, DW_OP_minus] [$rbp+0]
	#DEBUG_VALUE: i <- [DW_OP_constu 48, DW_OP_minus] [$rbp+0]
	#DEBUG_VALUE: dz <- $xmm2
	#DEBUG_VALUE: dy <- $xmm0
	#DEBUG_VALUE: dx <- $xmm1
	#DEBUG_VALUE: propagateMagneticField:perBDt2Grid <- [DW_OP_constu 160, DW_OP_minus] [$rbp+0]
	#DEBUG_VALUE: perBDt2Grid <- [DW_OP_constu 160, DW_OP_minus] [$rbp+0]
	#DEBUG_VALUE: propagateMagneticField:EGrid <- [DW_OP_constu 96, DW_OP_minus] [$rbp+0]
	#DEBUG_VALUE: EGrid <- [DW_OP_constu 96, DW_OP_minus] [$rbp+0]
	#DEBUG_VALUE: propagateMagneticField:EDt2Grid <- [DW_OP_constu 144, DW_OP_minus] [$rbp+0]
	#DEBUG_VALUE: EDt2Grid <- [DW_OP_constu 144, DW_OP_minus] [$rbp+0]
	#DEBUG_VALUE: propagateMagneticField:k <- [DW_OP_plus_uconst 16] [$rbp+0]
	#DEBUG_VALUE: k <- [DW_OP_plus_uconst 16] [$rbp+0]
	#DEBUG_VALUE: propagateMagneticField:dt <- [DW_OP_plus_uconst 24] [$rbp+0]
	#DEBUG_VALUE: dt <- [DW_OP_plus_uconst 24] [$rbp+0]
	#DEBUG_VALUE: propagateMagneticField:RKCase <- [DW_OP_plus_uconst 32] [$rbp+0]
	#DEBUG_VALUE: RKCase <- [DW_OP_plus_uconst 32] [$rbp+0]
	#DEBUG_VALUE: propagateMagneticField:doX <- [DW_OP_plus_uconst 40] [$rbp+0]
	#DEBUG_VALUE: doX <- [DW_OP_plus_uconst 40] [$rbp+0]
	#DEBUG_VALUE: propagateMagneticField:doY <- [DW_OP_plus_uconst 48] [$rbp+0]
	#DEBUG_VALUE: doY <- [DW_OP_plus_uconst 48] [$rbp+0]
	#DEBUG_VALUE: propagateMagneticField:doZ <- [DW_OP_plus_uconst 56] [$rbp+0]
	#DEBUG_VALUE: doZ <- [DW_OP_plus_uconst 56] [$rbp+0]
	#DEBUG_VALUE: EGrid1 <- undef
	.loc	1 78 1                  # fieldsolver/ldz_magnetic_field.cpp:78:1
	movl	16(%rbp), %eax
	leal	1(%rax), %ebx
	.loc	1 719 1                 # fieldsolver/ldz_magnetic_field.cpp:719:1
	movl	%ebx, %edi
	shrl	$31, %edi
	testl	%ebx, %ebx
	movl	-112(%rbp), %edx        # 4-byte Reload
	cmovnsl	%r12d, %edx
	.loc	1 723 1                 # fieldsolver/ldz_magnetic_field.cpp:723:1
	xorl	%ecx, %ecx
	cmpl	%r15d, %ebx
	setge	%cl
	movl	$-1, %eax
	cmovll	%edi, %eax
	addl	%edx, %ecx
	.loc	1 776 1                 # fieldsolver/ldz_magnetic_field.cpp:776:1
	cmpl	$13, %ecx
	jne	.LBB0_44
.Ltmp101:
# %bb.43:
	#DEBUG_VALUE: perBGrid0 <- [DW_OP_constu 136, DW_OP_minus] [$rbp+0]
	#DEBUG_VALUE: propagateMagneticField:j <- [DW_OP_constu 56, DW_OP_minus] [$rbp+0]
	#DEBUG_VALUE: j <- [DW_OP_constu 56, DW_OP_minus] [$rbp+0]
	#DEBUG_VALUE: propagateMagneticField:i <- [DW_OP_constu 48, DW_OP_minus] [$rbp+0]
	#DEBUG_VALUE: i <- [DW_OP_constu 48, DW_OP_minus] [$rbp+0]
	#DEBUG_VALUE: dz <- $xmm2
	#DEBUG_VALUE: dy <- $xmm0
	#DEBUG_VALUE: dx <- $xmm1
	#DEBUG_VALUE: propagateMagneticField:perBDt2Grid <- [DW_OP_constu 160, DW_OP_minus] [$rbp+0]
	#DEBUG_VALUE: perBDt2Grid <- [DW_OP_constu 160, DW_OP_minus] [$rbp+0]
	#DEBUG_VALUE: propagateMagneticField:EGrid <- [DW_OP_constu 96, DW_OP_minus] [$rbp+0]
	#DEBUG_VALUE: EGrid <- [DW_OP_constu 96, DW_OP_minus] [$rbp+0]
	#DEBUG_VALUE: propagateMagneticField:EDt2Grid <- [DW_OP_constu 144, DW_OP_minus] [$rbp+0]
	#DEBUG_VALUE: EDt2Grid <- [DW_OP_constu 144, DW_OP_minus] [$rbp+0]
	#DEBUG_VALUE: propagateMagneticField:k <- [DW_OP_plus_uconst 16] [$rbp+0]
	#DEBUG_VALUE: k <- [DW_OP_plus_uconst 16] [$rbp+0]
	#DEBUG_VALUE: propagateMagneticField:dt <- [DW_OP_plus_uconst 24] [$rbp+0]
	#DEBUG_VALUE: dt <- [DW_OP_plus_uconst 24] [$rbp+0]
	#DEBUG_VALUE: propagateMagneticField:RKCase <- [DW_OP_plus_uconst 32] [$rbp+0]
	#DEBUG_VALUE: RKCase <- [DW_OP_plus_uconst 32] [$rbp+0]
	#DEBUG_VALUE: propagateMagneticField:doX <- [DW_OP_plus_uconst 40] [$rbp+0]
	#DEBUG_VALUE: doX <- [DW_OP_plus_uconst 40] [$rbp+0]
	#DEBUG_VALUE: propagateMagneticField:doY <- [DW_OP_plus_uconst 48] [$rbp+0]
	#DEBUG_VALUE: doY <- [DW_OP_plus_uconst 48] [$rbp+0]
	#DEBUG_VALUE: propagateMagneticField:doZ <- [DW_OP_plus_uconst 56] [$rbp+0]
	#DEBUG_VALUE: doZ <- [DW_OP_plus_uconst 56] [$rbp+0]
	.loc	1 0 0 is_stmt 0         # fieldsolver/ldz_magnetic_field.cpp:0:0
	movl	%r14d, %ecx
	movq	-48(%rbp), %rax         # 8-byte Reload
	movl	%eax, %r13d
	movq	24(%rbp), %r12
	.loc	1 793 1 is_stmt 1       # fieldsolver/ldz_magnetic_field.cpp:793:1
	cmpl	$2, 260(%r9)
	jge	.LBB0_49
	jmp	.LBB0_48
.Ltmp102:
.LBB0_44:                               # %L.B1224
	#DEBUG_VALUE: perBGrid0 <- [DW_OP_constu 136, DW_OP_minus] [$rbp+0]
	#DEBUG_VALUE: propagateMagneticField:j <- [DW_OP_constu 56, DW_OP_minus] [$rbp+0]
	#DEBUG_VALUE: j <- [DW_OP_constu 56, DW_OP_minus] [$rbp+0]
	#DEBUG_VALUE: propagateMagneticField:i <- [DW_OP_constu 48, DW_OP_minus] [$rbp+0]
	#DEBUG_VALUE: i <- [DW_OP_constu 48, DW_OP_minus] [$rbp+0]
	#DEBUG_VALUE: dz <- $xmm2
	#DEBUG_VALUE: dy <- $xmm0
	#DEBUG_VALUE: dx <- $xmm1
	#DEBUG_VALUE: propagateMagneticField:perBDt2Grid <- [DW_OP_constu 160, DW_OP_minus] [$rbp+0]
	#DEBUG_VALUE: perBDt2Grid <- [DW_OP_constu 160, DW_OP_minus] [$rbp+0]
	#DEBUG_VALUE: propagateMagneticField:EGrid <- [DW_OP_constu 96, DW_OP_minus] [$rbp+0]
	#DEBUG_VALUE: EGrid <- [DW_OP_constu 96, DW_OP_minus] [$rbp+0]
	#DEBUG_VALUE: propagateMagneticField:EDt2Grid <- [DW_OP_constu 144, DW_OP_minus] [$rbp+0]
	#DEBUG_VALUE: EDt2Grid <- [DW_OP_constu 144, DW_OP_minus] [$rbp+0]
	#DEBUG_VALUE: propagateMagneticField:k <- [DW_OP_plus_uconst 16] [$rbp+0]
	#DEBUG_VALUE: k <- [DW_OP_plus_uconst 16] [$rbp+0]
	#DEBUG_VALUE: propagateMagneticField:dt <- [DW_OP_plus_uconst 24] [$rbp+0]
	#DEBUG_VALUE: dt <- [DW_OP_plus_uconst 24] [$rbp+0]
	#DEBUG_VALUE: propagateMagneticField:RKCase <- [DW_OP_plus_uconst 32] [$rbp+0]
	#DEBUG_VALUE: RKCase <- [DW_OP_plus_uconst 32] [$rbp+0]
	#DEBUG_VALUE: propagateMagneticField:doX <- [DW_OP_plus_uconst 40] [$rbp+0]
	#DEBUG_VALUE: doX <- [DW_OP_plus_uconst 40] [$rbp+0]
	#DEBUG_VALUE: propagateMagneticField:doY <- [DW_OP_plus_uconst 48] [$rbp+0]
	#DEBUG_VALUE: doY <- [DW_OP_plus_uconst 48] [$rbp+0]
	#DEBUG_VALUE: propagateMagneticField:doZ <- [DW_OP_plus_uconst 56] [$rbp+0]
	#DEBUG_VALUE: doZ <- [DW_OP_plus_uconst 56] [$rbp+0]
	.loc	1 779 1                 # fieldsolver/ldz_magnetic_field.cpp:779:1
	movslq	%ecx, %rcx
	movl	92(%r9,%rcx,4), %ecx
	.loc	1 784 1                 # fieldsolver/ldz_magnetic_field.cpp:784:1
	cmpl	56(%r9), %ecx
	movq	24(%rbp), %r12
	jne	.LBB0_45
.Ltmp103:
# %bb.46:                               # %L.B1226
	#DEBUG_VALUE: perBGrid0 <- [DW_OP_constu 136, DW_OP_minus] [$rbp+0]
	#DEBUG_VALUE: propagateMagneticField:j <- [DW_OP_constu 56, DW_OP_minus] [$rbp+0]
	#DEBUG_VALUE: j <- [DW_OP_constu 56, DW_OP_minus] [$rbp+0]
	#DEBUG_VALUE: propagateMagneticField:i <- [DW_OP_constu 48, DW_OP_minus] [$rbp+0]
	#DEBUG_VALUE: i <- [DW_OP_constu 48, DW_OP_minus] [$rbp+0]
	#DEBUG_VALUE: dz <- $xmm2
	#DEBUG_VALUE: dy <- $xmm0
	#DEBUG_VALUE: dx <- $xmm1
	#DEBUG_VALUE: propagateMagneticField:perBDt2Grid <- [DW_OP_constu 160, DW_OP_minus] [$rbp+0]
	#DEBUG_VALUE: perBDt2Grid <- [DW_OP_constu 160, DW_OP_minus] [$rbp+0]
	#DEBUG_VALUE: propagateMagneticField:EGrid <- [DW_OP_constu 96, DW_OP_minus] [$rbp+0]
	#DEBUG_VALUE: EGrid <- [DW_OP_constu 96, DW_OP_minus] [$rbp+0]
	#DEBUG_VALUE: propagateMagneticField:EDt2Grid <- [DW_OP_constu 144, DW_OP_minus] [$rbp+0]
	#DEBUG_VALUE: EDt2Grid <- [DW_OP_constu 144, DW_OP_minus] [$rbp+0]
	#DEBUG_VALUE: propagateMagneticField:k <- [DW_OP_plus_uconst 16] [$rbp+0]
	#DEBUG_VALUE: k <- [DW_OP_plus_uconst 16] [$rbp+0]
	#DEBUG_VALUE: propagateMagneticField:dt <- [DW_OP_plus_uconst 24] [$rbp+0]
	#DEBUG_VALUE: dt <- [DW_OP_plus_uconst 24] [$rbp+0]
	#DEBUG_VALUE: propagateMagneticField:RKCase <- [DW_OP_plus_uconst 32] [$rbp+0]
	#DEBUG_VALUE: RKCase <- [DW_OP_plus_uconst 32] [$rbp+0]
	#DEBUG_VALUE: propagateMagneticField:doX <- [DW_OP_plus_uconst 40] [$rbp+0]
	#DEBUG_VALUE: doX <- [DW_OP_plus_uconst 40] [$rbp+0]
	#DEBUG_VALUE: propagateMagneticField:doY <- [DW_OP_plus_uconst 48] [$rbp+0]
	#DEBUG_VALUE: doY <- [DW_OP_plus_uconst 48] [$rbp+0]
	#DEBUG_VALUE: propagateMagneticField:doZ <- [DW_OP_plus_uconst 56] [$rbp+0]
	#DEBUG_VALUE: doZ <- [DW_OP_plus_uconst 56] [$rbp+0]
	.loc	1 787 1                 # fieldsolver/ldz_magnetic_field.cpp:787:1
	imull	-108(%rbp), %r13d       # 4-byte Folded Reload
	addl	-48(%rbp), %r13d        # 4-byte Folded Reload
	movl	-116(%rbp), %ecx        # 4-byte Reload
	.loc	1 788 1                 # fieldsolver/ldz_magnetic_field.cpp:788:1
	imull	%r8d, %ecx
	addl	%r14d, %ecx
	.loc	1 789 1                 # fieldsolver/ldz_magnetic_field.cpp:789:1
	imull	%r15d, %eax
	addl	%eax, %ebx
	.loc	1 793 1                 # fieldsolver/ldz_magnetic_field.cpp:793:1
	cmpl	$2, 260(%r9)
	jl	.LBB0_48
.Ltmp104:
.LBB0_49:                               # %L.B1227
	#DEBUG_VALUE: perBGrid0 <- [DW_OP_constu 136, DW_OP_minus] [$rbp+0]
	#DEBUG_VALUE: propagateMagneticField:j <- [DW_OP_constu 56, DW_OP_minus] [$rbp+0]
	#DEBUG_VALUE: j <- [DW_OP_constu 56, DW_OP_minus] [$rbp+0]
	#DEBUG_VALUE: propagateMagneticField:i <- [DW_OP_constu 48, DW_OP_minus] [$rbp+0]
	#DEBUG_VALUE: i <- [DW_OP_constu 48, DW_OP_minus] [$rbp+0]
	#DEBUG_VALUE: dz <- $xmm2
	#DEBUG_VALUE: dy <- $xmm0
	#DEBUG_VALUE: dx <- $xmm1
	#DEBUG_VALUE: propagateMagneticField:perBDt2Grid <- [DW_OP_constu 160, DW_OP_minus] [$rbp+0]
	#DEBUG_VALUE: perBDt2Grid <- [DW_OP_constu 160, DW_OP_minus] [$rbp+0]
	#DEBUG_VALUE: propagateMagneticField:EGrid <- [DW_OP_constu 96, DW_OP_minus] [$rbp+0]
	#DEBUG_VALUE: EGrid <- [DW_OP_constu 96, DW_OP_minus] [$rbp+0]
	#DEBUG_VALUE: propagateMagneticField:EDt2Grid <- [DW_OP_constu 144, DW_OP_minus] [$rbp+0]
	#DEBUG_VALUE: EDt2Grid <- [DW_OP_constu 144, DW_OP_minus] [$rbp+0]
	#DEBUG_VALUE: propagateMagneticField:k <- [DW_OP_plus_uconst 16] [$rbp+0]
	#DEBUG_VALUE: k <- [DW_OP_plus_uconst 16] [$rbp+0]
	#DEBUG_VALUE: propagateMagneticField:dt <- [DW_OP_plus_uconst 24] [$rbp+0]
	#DEBUG_VALUE: dt <- [DW_OP_plus_uconst 24] [$rbp+0]
	#DEBUG_VALUE: propagateMagneticField:RKCase <- [DW_OP_plus_uconst 32] [$rbp+0]
	#DEBUG_VALUE: RKCase <- [DW_OP_plus_uconst 32] [$rbp+0]
	#DEBUG_VALUE: propagateMagneticField:doX <- [DW_OP_plus_uconst 40] [$rbp+0]
	#DEBUG_VALUE: doX <- [DW_OP_plus_uconst 40] [$rbp+0]
	#DEBUG_VALUE: propagateMagneticField:doY <- [DW_OP_plus_uconst 48] [$rbp+0]
	#DEBUG_VALUE: doY <- [DW_OP_plus_uconst 48] [$rbp+0]
	#DEBUG_VALUE: propagateMagneticField:doZ <- [DW_OP_plus_uconst 56] [$rbp+0]
	#DEBUG_VALUE: doZ <- [DW_OP_plus_uconst 56] [$rbp+0]
	addl	$2, %ebx
	imull	280(%r9), %ebx
	imull	276(%r9), %ebx
	movslq	%ebx, %rax
	cmpl	$2, 256(%r9)
	jge	.LBB0_51
	jmp	.LBB0_52
.Ltmp105:
.LBB0_99:                               # %L..inline.71403
	#DEBUG_VALUE: perBGrid0 <- [DW_OP_constu 136, DW_OP_minus] [$rbp+0]
	#DEBUG_VALUE: propagateMagneticField:j <- [DW_OP_constu 56, DW_OP_minus] [$rbp+0]
	#DEBUG_VALUE: j <- [DW_OP_constu 56, DW_OP_minus] [$rbp+0]
	#DEBUG_VALUE: propagateMagneticField:i <- [DW_OP_constu 48, DW_OP_minus] [$rbp+0]
	#DEBUG_VALUE: i <- [DW_OP_constu 48, DW_OP_minus] [$rbp+0]
	#DEBUG_VALUE: dz <- $xmm2
	#DEBUG_VALUE: dy <- $xmm0
	#DEBUG_VALUE: dx <- $xmm1
	#DEBUG_VALUE: propagateMagneticField:perBDt2Grid <- [DW_OP_constu 160, DW_OP_minus] [$rbp+0]
	#DEBUG_VALUE: perBDt2Grid <- [DW_OP_constu 160, DW_OP_minus] [$rbp+0]
	#DEBUG_VALUE: propagateMagneticField:EGrid <- [DW_OP_constu 96, DW_OP_minus] [$rbp+0]
	#DEBUG_VALUE: EGrid <- [DW_OP_constu 96, DW_OP_minus] [$rbp+0]
	#DEBUG_VALUE: propagateMagneticField:EDt2Grid <- [DW_OP_constu 144, DW_OP_minus] [$rbp+0]
	#DEBUG_VALUE: EDt2Grid <- [DW_OP_constu 144, DW_OP_minus] [$rbp+0]
	#DEBUG_VALUE: propagateMagneticField:k <- [DW_OP_plus_uconst 16] [$rbp+0]
	#DEBUG_VALUE: k <- [DW_OP_plus_uconst 16] [$rbp+0]
	#DEBUG_VALUE: propagateMagneticField:dt <- [DW_OP_plus_uconst 24] [$rbp+0]
	#DEBUG_VALUE: dt <- [DW_OP_plus_uconst 24] [$rbp+0]
	#DEBUG_VALUE: propagateMagneticField:RKCase <- [DW_OP_plus_uconst 32] [$rbp+0]
	#DEBUG_VALUE: RKCase <- [DW_OP_plus_uconst 32] [$rbp+0]
	#DEBUG_VALUE: propagateMagneticField:doX <- [DW_OP_plus_uconst 40] [$rbp+0]
	#DEBUG_VALUE: doX <- [DW_OP_plus_uconst 40] [$rbp+0]
	#DEBUG_VALUE: propagateMagneticField:doY <- [DW_OP_plus_uconst 48] [$rbp+0]
	#DEBUG_VALUE: doY <- [DW_OP_plus_uconst 48] [$rbp+0]
	#DEBUG_VALUE: propagateMagneticField:doZ <- [DW_OP_plus_uconst 56] [$rbp+0]
	#DEBUG_VALUE: doZ <- [DW_OP_plus_uconst 56] [$rbp+0]
	.loc	1 0 0 is_stmt 0         # fieldsolver/ldz_magnetic_field.cpp:0:0
	movl	16(%rbp), %eax
                                        # kill: def $eax killed $eax killed $rax
	movq	-56(%rbp), %rsi         # 8-byte Reload
	movl	%esi, %edi
	movq	-48(%rbp), %rsi         # 8-byte Reload
	movl	%esi, %r11d
	.loc	1 784 1 is_stmt 1       # fieldsolver/ldz_magnetic_field.cpp:784:1
	cmpl	56(%rdx), %ecx
	jne	.LBB0_101
.Ltmp106:
# %bb.100:                              # %L.B1273
	#DEBUG_VALUE: perBGrid0 <- [DW_OP_constu 136, DW_OP_minus] [$rbp+0]
	#DEBUG_VALUE: propagateMagneticField:j <- [DW_OP_constu 56, DW_OP_minus] [$rbp+0]
	#DEBUG_VALUE: j <- [DW_OP_constu 56, DW_OP_minus] [$rbp+0]
	#DEBUG_VALUE: propagateMagneticField:i <- [DW_OP_constu 48, DW_OP_minus] [$rbp+0]
	#DEBUG_VALUE: i <- [DW_OP_constu 48, DW_OP_minus] [$rbp+0]
	#DEBUG_VALUE: dz <- $xmm2
	#DEBUG_VALUE: dy <- $xmm0
	#DEBUG_VALUE: dx <- $xmm1
	#DEBUG_VALUE: propagateMagneticField:perBDt2Grid <- [DW_OP_constu 160, DW_OP_minus] [$rbp+0]
	#DEBUG_VALUE: perBDt2Grid <- [DW_OP_constu 160, DW_OP_minus] [$rbp+0]
	#DEBUG_VALUE: propagateMagneticField:EGrid <- [DW_OP_constu 96, DW_OP_minus] [$rbp+0]
	#DEBUG_VALUE: EGrid <- [DW_OP_constu 96, DW_OP_minus] [$rbp+0]
	#DEBUG_VALUE: propagateMagneticField:EDt2Grid <- [DW_OP_constu 144, DW_OP_minus] [$rbp+0]
	#DEBUG_VALUE: EDt2Grid <- [DW_OP_constu 144, DW_OP_minus] [$rbp+0]
	#DEBUG_VALUE: propagateMagneticField:k <- [DW_OP_plus_uconst 16] [$rbp+0]
	#DEBUG_VALUE: k <- [DW_OP_plus_uconst 16] [$rbp+0]
	#DEBUG_VALUE: propagateMagneticField:dt <- [DW_OP_plus_uconst 24] [$rbp+0]
	#DEBUG_VALUE: dt <- [DW_OP_plus_uconst 24] [$rbp+0]
	#DEBUG_VALUE: propagateMagneticField:RKCase <- [DW_OP_plus_uconst 32] [$rbp+0]
	#DEBUG_VALUE: RKCase <- [DW_OP_plus_uconst 32] [$rbp+0]
	#DEBUG_VALUE: propagateMagneticField:doX <- [DW_OP_plus_uconst 40] [$rbp+0]
	#DEBUG_VALUE: doX <- [DW_OP_plus_uconst 40] [$rbp+0]
	#DEBUG_VALUE: propagateMagneticField:doY <- [DW_OP_plus_uconst 48] [$rbp+0]
	#DEBUG_VALUE: doY <- [DW_OP_plus_uconst 48] [$rbp+0]
	#DEBUG_VALUE: propagateMagneticField:doZ <- [DW_OP_plus_uconst 56] [$rbp+0]
	#DEBUG_VALUE: doZ <- [DW_OP_plus_uconst 56] [$rbp+0]
	.loc	1 0 1 is_stmt 0         # fieldsolver/ldz_magnetic_field.cpp:0:1
	movl	-128(%rbp), %r11d       # 4-byte Reload
	.loc	1 787 1 is_stmt 1       # fieldsolver/ldz_magnetic_field.cpp:787:1
	imull	-112(%rbp), %r11d       # 4-byte Folded Reload
	addl	-48(%rbp), %r11d        # 4-byte Folded Reload
	.loc	1 788 1                 # fieldsolver/ldz_magnetic_field.cpp:788:1
	movl	%r10d, %edi
	imull	-64(%rbp), %edi         # 4-byte Folded Reload
	addl	-56(%rbp), %edi         # 4-byte Folded Reload
	.loc	1 789 1                 # fieldsolver/ldz_magnetic_field.cpp:789:1
	movl	%r8d, %eax
	imull	-60(%rbp), %eax         # 4-byte Folded Reload
	movl	16(%rbp), %ecx
	addl	%ecx, %eax
	jmp	.LBB0_101
.Ltmp107:
.LBB0_111:                              # %L..inline.71670
	#DEBUG_VALUE: perBGrid0 <- [DW_OP_constu 136, DW_OP_minus] [$rbp+0]
	#DEBUG_VALUE: propagateMagneticField:j <- [DW_OP_constu 56, DW_OP_minus] [$rbp+0]
	#DEBUG_VALUE: j <- [DW_OP_constu 56, DW_OP_minus] [$rbp+0]
	#DEBUG_VALUE: propagateMagneticField:i <- [DW_OP_constu 48, DW_OP_minus] [$rbp+0]
	#DEBUG_VALUE: i <- [DW_OP_constu 48, DW_OP_minus] [$rbp+0]
	#DEBUG_VALUE: dz <- $xmm2
	#DEBUG_VALUE: dy <- $xmm0
	#DEBUG_VALUE: dx <- $xmm1
	#DEBUG_VALUE: propagateMagneticField:perBDt2Grid <- [DW_OP_constu 160, DW_OP_minus] [$rbp+0]
	#DEBUG_VALUE: perBDt2Grid <- [DW_OP_constu 160, DW_OP_minus] [$rbp+0]
	#DEBUG_VALUE: propagateMagneticField:EGrid <- [DW_OP_constu 96, DW_OP_minus] [$rbp+0]
	#DEBUG_VALUE: EGrid <- [DW_OP_constu 96, DW_OP_minus] [$rbp+0]
	#DEBUG_VALUE: propagateMagneticField:EDt2Grid <- [DW_OP_constu 144, DW_OP_minus] [$rbp+0]
	#DEBUG_VALUE: EDt2Grid <- [DW_OP_constu 144, DW_OP_minus] [$rbp+0]
	#DEBUG_VALUE: propagateMagneticField:k <- [DW_OP_plus_uconst 16] [$rbp+0]
	#DEBUG_VALUE: k <- [DW_OP_plus_uconst 16] [$rbp+0]
	#DEBUG_VALUE: propagateMagneticField:dt <- [DW_OP_plus_uconst 24] [$rbp+0]
	#DEBUG_VALUE: dt <- [DW_OP_plus_uconst 24] [$rbp+0]
	#DEBUG_VALUE: propagateMagneticField:RKCase <- [DW_OP_plus_uconst 32] [$rbp+0]
	#DEBUG_VALUE: RKCase <- [DW_OP_plus_uconst 32] [$rbp+0]
	#DEBUG_VALUE: propagateMagneticField:doX <- [DW_OP_plus_uconst 40] [$rbp+0]
	#DEBUG_VALUE: doX <- [DW_OP_plus_uconst 40] [$rbp+0]
	#DEBUG_VALUE: propagateMagneticField:doY <- [DW_OP_plus_uconst 48] [$rbp+0]
	#DEBUG_VALUE: doY <- [DW_OP_plus_uconst 48] [$rbp+0]
	#DEBUG_VALUE: propagateMagneticField:doZ <- [DW_OP_plus_uconst 56] [$rbp+0]
	#DEBUG_VALUE: doZ <- [DW_OP_plus_uconst 56] [$rbp+0]
	.loc	1 784 1                 # fieldsolver/ldz_magnetic_field.cpp:784:1
	cmpl	56(%rdx), %ecx
	movq	-56(%rbp), %r14         # 8-byte Reload
	jne	.LBB0_112
.Ltmp108:
# %bb.113:                              # %L.B1284
	#DEBUG_VALUE: perBGrid0 <- [DW_OP_constu 136, DW_OP_minus] [$rbp+0]
	#DEBUG_VALUE: propagateMagneticField:j <- [DW_OP_constu 56, DW_OP_minus] [$rbp+0]
	#DEBUG_VALUE: j <- [DW_OP_constu 56, DW_OP_minus] [$rbp+0]
	#DEBUG_VALUE: propagateMagneticField:i <- [DW_OP_constu 48, DW_OP_minus] [$rbp+0]
	#DEBUG_VALUE: i <- [DW_OP_constu 48, DW_OP_minus] [$rbp+0]
	#DEBUG_VALUE: dz <- $xmm2
	#DEBUG_VALUE: dy <- $xmm0
	#DEBUG_VALUE: dx <- $xmm1
	#DEBUG_VALUE: propagateMagneticField:perBDt2Grid <- [DW_OP_constu 160, DW_OP_minus] [$rbp+0]
	#DEBUG_VALUE: perBDt2Grid <- [DW_OP_constu 160, DW_OP_minus] [$rbp+0]
	#DEBUG_VALUE: propagateMagneticField:EGrid <- [DW_OP_constu 96, DW_OP_minus] [$rbp+0]
	#DEBUG_VALUE: EGrid <- [DW_OP_constu 96, DW_OP_minus] [$rbp+0]
	#DEBUG_VALUE: propagateMagneticField:EDt2Grid <- [DW_OP_constu 144, DW_OP_minus] [$rbp+0]
	#DEBUG_VALUE: EDt2Grid <- [DW_OP_constu 144, DW_OP_minus] [$rbp+0]
	#DEBUG_VALUE: propagateMagneticField:k <- [DW_OP_plus_uconst 16] [$rbp+0]
	#DEBUG_VALUE: k <- [DW_OP_plus_uconst 16] [$rbp+0]
	#DEBUG_VALUE: propagateMagneticField:dt <- [DW_OP_plus_uconst 24] [$rbp+0]
	#DEBUG_VALUE: dt <- [DW_OP_plus_uconst 24] [$rbp+0]
	#DEBUG_VALUE: propagateMagneticField:RKCase <- [DW_OP_plus_uconst 32] [$rbp+0]
	#DEBUG_VALUE: RKCase <- [DW_OP_plus_uconst 32] [$rbp+0]
	#DEBUG_VALUE: propagateMagneticField:doX <- [DW_OP_plus_uconst 40] [$rbp+0]
	#DEBUG_VALUE: doX <- [DW_OP_plus_uconst 40] [$rbp+0]
	#DEBUG_VALUE: propagateMagneticField:doY <- [DW_OP_plus_uconst 48] [$rbp+0]
	#DEBUG_VALUE: doY <- [DW_OP_plus_uconst 48] [$rbp+0]
	#DEBUG_VALUE: propagateMagneticField:doZ <- [DW_OP_plus_uconst 56] [$rbp+0]
	#DEBUG_VALUE: doZ <- [DW_OP_plus_uconst 56] [$rbp+0]
	.loc	1 787 1                 # fieldsolver/ldz_magnetic_field.cpp:787:1
	movl	%r15d, %ebx
	imull	-112(%rbp), %ebx        # 4-byte Folded Reload
	addl	-48(%rbp), %ebx         # 4-byte Folded Reload
	.loc	1 788 1                 # fieldsolver/ldz_magnetic_field.cpp:788:1
	imull	-64(%rbp), %edi         # 4-byte Folded Reload
	addl	%edi, %eax
	.loc	1 789 1                 # fieldsolver/ldz_magnetic_field.cpp:789:1
	imull	-60(%rbp), %r8d         # 4-byte Folded Reload
	movl	16(%rbp), %ecx
	addl	%ecx, %r8d
	jmp	.LBB0_114
.Ltmp109:
.LBB0_56:                               # %L..inline.70239
	#DEBUG_VALUE: perBGrid0 <- [DW_OP_constu 136, DW_OP_minus] [$rbp+0]
	#DEBUG_VALUE: propagateMagneticField:j <- [DW_OP_constu 56, DW_OP_minus] [$rbp+0]
	#DEBUG_VALUE: j <- [DW_OP_constu 56, DW_OP_minus] [$rbp+0]
	#DEBUG_VALUE: propagateMagneticField:i <- [DW_OP_constu 48, DW_OP_minus] [$rbp+0]
	#DEBUG_VALUE: i <- [DW_OP_constu 48, DW_OP_minus] [$rbp+0]
	#DEBUG_VALUE: dz <- $xmm2
	#DEBUG_VALUE: dy <- $xmm0
	#DEBUG_VALUE: dx <- $xmm1
	#DEBUG_VALUE: propagateMagneticField:perBDt2Grid <- [DW_OP_constu 160, DW_OP_minus] [$rbp+0]
	#DEBUG_VALUE: perBDt2Grid <- [DW_OP_constu 160, DW_OP_minus] [$rbp+0]
	#DEBUG_VALUE: propagateMagneticField:EGrid <- [DW_OP_constu 96, DW_OP_minus] [$rbp+0]
	#DEBUG_VALUE: EGrid <- [DW_OP_constu 96, DW_OP_minus] [$rbp+0]
	#DEBUG_VALUE: propagateMagneticField:EDt2Grid <- [DW_OP_constu 144, DW_OP_minus] [$rbp+0]
	#DEBUG_VALUE: EDt2Grid <- [DW_OP_constu 144, DW_OP_minus] [$rbp+0]
	#DEBUG_VALUE: propagateMagneticField:k <- [DW_OP_plus_uconst 16] [$rbp+0]
	#DEBUG_VALUE: k <- [DW_OP_plus_uconst 16] [$rbp+0]
	#DEBUG_VALUE: propagateMagneticField:dt <- [DW_OP_plus_uconst 24] [$rbp+0]
	#DEBUG_VALUE: dt <- [DW_OP_plus_uconst 24] [$rbp+0]
	#DEBUG_VALUE: propagateMagneticField:RKCase <- [DW_OP_plus_uconst 32] [$rbp+0]
	#DEBUG_VALUE: RKCase <- [DW_OP_plus_uconst 32] [$rbp+0]
	#DEBUG_VALUE: propagateMagneticField:doX <- [DW_OP_plus_uconst 40] [$rbp+0]
	#DEBUG_VALUE: doX <- [DW_OP_plus_uconst 40] [$rbp+0]
	#DEBUG_VALUE: propagateMagneticField:doY <- [DW_OP_plus_uconst 48] [$rbp+0]
	#DEBUG_VALUE: doY <- [DW_OP_plus_uconst 48] [$rbp+0]
	#DEBUG_VALUE: propagateMagneticField:doZ <- [DW_OP_plus_uconst 56] [$rbp+0]
	#DEBUG_VALUE: doZ <- [DW_OP_plus_uconst 56] [$rbp+0]
	.loc	1 0 0 is_stmt 0         # fieldsolver/ldz_magnetic_field.cpp:0:0
	movl	16(%rbp), %esi
                                        # kill: def $esi killed $esi killed $rsi
	movq	-56(%rbp), %rdx         # 8-byte Reload
	movl	%edx, %edi
	movq	-48(%rbp), %rdx         # 8-byte Reload
	movl	%edx, %r14d
	.loc	1 784 1 is_stmt 1       # fieldsolver/ldz_magnetic_field.cpp:784:1
	cmpl	56(%rax), %ecx
	jne	.LBB0_58
.Ltmp110:
# %bb.57:                               # %L.B1237
	#DEBUG_VALUE: perBGrid0 <- [DW_OP_constu 136, DW_OP_minus] [$rbp+0]
	#DEBUG_VALUE: propagateMagneticField:j <- [DW_OP_constu 56, DW_OP_minus] [$rbp+0]
	#DEBUG_VALUE: j <- [DW_OP_constu 56, DW_OP_minus] [$rbp+0]
	#DEBUG_VALUE: propagateMagneticField:i <- [DW_OP_constu 48, DW_OP_minus] [$rbp+0]
	#DEBUG_VALUE: i <- [DW_OP_constu 48, DW_OP_minus] [$rbp+0]
	#DEBUG_VALUE: dz <- $xmm2
	#DEBUG_VALUE: dy <- $xmm0
	#DEBUG_VALUE: dx <- $xmm1
	#DEBUG_VALUE: propagateMagneticField:perBDt2Grid <- [DW_OP_constu 160, DW_OP_minus] [$rbp+0]
	#DEBUG_VALUE: perBDt2Grid <- [DW_OP_constu 160, DW_OP_minus] [$rbp+0]
	#DEBUG_VALUE: propagateMagneticField:EGrid <- [DW_OP_constu 96, DW_OP_minus] [$rbp+0]
	#DEBUG_VALUE: EGrid <- [DW_OP_constu 96, DW_OP_minus] [$rbp+0]
	#DEBUG_VALUE: propagateMagneticField:EDt2Grid <- [DW_OP_constu 144, DW_OP_minus] [$rbp+0]
	#DEBUG_VALUE: EDt2Grid <- [DW_OP_constu 144, DW_OP_minus] [$rbp+0]
	#DEBUG_VALUE: propagateMagneticField:k <- [DW_OP_plus_uconst 16] [$rbp+0]
	#DEBUG_VALUE: k <- [DW_OP_plus_uconst 16] [$rbp+0]
	#DEBUG_VALUE: propagateMagneticField:dt <- [DW_OP_plus_uconst 24] [$rbp+0]
	#DEBUG_VALUE: dt <- [DW_OP_plus_uconst 24] [$rbp+0]
	#DEBUG_VALUE: propagateMagneticField:RKCase <- [DW_OP_plus_uconst 32] [$rbp+0]
	#DEBUG_VALUE: RKCase <- [DW_OP_plus_uconst 32] [$rbp+0]
	#DEBUG_VALUE: propagateMagneticField:doX <- [DW_OP_plus_uconst 40] [$rbp+0]
	#DEBUG_VALUE: doX <- [DW_OP_plus_uconst 40] [$rbp+0]
	#DEBUG_VALUE: propagateMagneticField:doY <- [DW_OP_plus_uconst 48] [$rbp+0]
	#DEBUG_VALUE: doY <- [DW_OP_plus_uconst 48] [$rbp+0]
	#DEBUG_VALUE: propagateMagneticField:doZ <- [DW_OP_plus_uconst 56] [$rbp+0]
	#DEBUG_VALUE: doZ <- [DW_OP_plus_uconst 56] [$rbp+0]
	.loc	1 787 1                 # fieldsolver/ldz_magnetic_field.cpp:787:1
	imull	%r11d, %r12d
	addl	-48(%rbp), %r12d        # 4-byte Folded Reload
	.loc	1 788 1                 # fieldsolver/ldz_magnetic_field.cpp:788:1
	imull	%r10d, %r13d
	addl	-56(%rbp), %r13d        # 4-byte Folded Reload
	.loc	1 789 1                 # fieldsolver/ldz_magnetic_field.cpp:789:1
	imull	%r15d, %r8d
	movl	16(%rbp), %ecx
	addl	%ecx, %r8d
	.loc	1 0 0 is_stmt 0         # fieldsolver/ldz_magnetic_field.cpp:0:0
	movl	%r8d, %esi
	movl	%r13d, %edi
	movl	%r12d, %r14d
	jmp	.LBB0_58
.Ltmp111:
.LBB0_67:                               # %L..inline.70506
	#DEBUG_VALUE: perBDt2Grid0 <- [DW_OP_constu 128, DW_OP_minus] [$rbp+0]
	#DEBUG_VALUE: perBGrid0 <- [DW_OP_constu 136, DW_OP_minus] [$rbp+0]
	#DEBUG_VALUE: propagateMagneticField:j <- [DW_OP_constu 56, DW_OP_minus] [$rbp+0]
	#DEBUG_VALUE: j <- [DW_OP_constu 56, DW_OP_minus] [$rbp+0]
	#DEBUG_VALUE: propagateMagneticField:i <- [DW_OP_constu 48, DW_OP_minus] [$rbp+0]
	#DEBUG_VALUE: i <- [DW_OP_constu 48, DW_OP_minus] [$rbp+0]
	#DEBUG_VALUE: dz <- $xmm2
	#DEBUG_VALUE: dy <- $xmm0
	#DEBUG_VALUE: dx <- $xmm1
	#DEBUG_VALUE: propagateMagneticField:perBDt2Grid <- [DW_OP_constu 160, DW_OP_minus] [$rbp+0]
	#DEBUG_VALUE: perBDt2Grid <- [DW_OP_constu 160, DW_OP_minus] [$rbp+0]
	#DEBUG_VALUE: propagateMagneticField:EGrid <- [DW_OP_constu 96, DW_OP_minus] [$rbp+0]
	#DEBUG_VALUE: EGrid <- [DW_OP_constu 96, DW_OP_minus] [$rbp+0]
	#DEBUG_VALUE: propagateMagneticField:EDt2Grid <- [DW_OP_constu 144, DW_OP_minus] [$rbp+0]
	#DEBUG_VALUE: EDt2Grid <- [DW_OP_constu 144, DW_OP_minus] [$rbp+0]
	#DEBUG_VALUE: propagateMagneticField:k <- [DW_OP_plus_uconst 16] [$rbp+0]
	#DEBUG_VALUE: k <- [DW_OP_plus_uconst 16] [$rbp+0]
	#DEBUG_VALUE: propagateMagneticField:dt <- [DW_OP_plus_uconst 24] [$rbp+0]
	#DEBUG_VALUE: dt <- [DW_OP_plus_uconst 24] [$rbp+0]
	#DEBUG_VALUE: propagateMagneticField:RKCase <- [DW_OP_plus_uconst 32] [$rbp+0]
	#DEBUG_VALUE: RKCase <- [DW_OP_plus_uconst 32] [$rbp+0]
	#DEBUG_VALUE: propagateMagneticField:doX <- [DW_OP_plus_uconst 40] [$rbp+0]
	#DEBUG_VALUE: doX <- [DW_OP_plus_uconst 40] [$rbp+0]
	#DEBUG_VALUE: propagateMagneticField:doY <- [DW_OP_plus_uconst 48] [$rbp+0]
	#DEBUG_VALUE: doY <- [DW_OP_plus_uconst 48] [$rbp+0]
	#DEBUG_VALUE: propagateMagneticField:doZ <- [DW_OP_plus_uconst 56] [$rbp+0]
	#DEBUG_VALUE: doZ <- [DW_OP_plus_uconst 56] [$rbp+0]
	movl	16(%rbp), %eax
	movl	%eax, %esi
	movl	%r14d, %eax
	movq	-48(%rbp), %rcx         # 8-byte Reload
	movl	%ecx, %r8d
	.loc	1 784 1 is_stmt 1       # fieldsolver/ldz_magnetic_field.cpp:784:1
	cmpl	56(%r9), %ebx
	jne	.LBB0_69
.Ltmp112:
# %bb.68:                               # %L.B1248
	#DEBUG_VALUE: perBDt2Grid0 <- [DW_OP_constu 128, DW_OP_minus] [$rbp+0]
	#DEBUG_VALUE: perBGrid0 <- [DW_OP_constu 136, DW_OP_minus] [$rbp+0]
	#DEBUG_VALUE: propagateMagneticField:j <- [DW_OP_constu 56, DW_OP_minus] [$rbp+0]
	#DEBUG_VALUE: j <- [DW_OP_constu 56, DW_OP_minus] [$rbp+0]
	#DEBUG_VALUE: propagateMagneticField:i <- [DW_OP_constu 48, DW_OP_minus] [$rbp+0]
	#DEBUG_VALUE: i <- [DW_OP_constu 48, DW_OP_minus] [$rbp+0]
	#DEBUG_VALUE: dz <- $xmm2
	#DEBUG_VALUE: dy <- $xmm0
	#DEBUG_VALUE: dx <- $xmm1
	#DEBUG_VALUE: propagateMagneticField:perBDt2Grid <- [DW_OP_constu 160, DW_OP_minus] [$rbp+0]
	#DEBUG_VALUE: perBDt2Grid <- [DW_OP_constu 160, DW_OP_minus] [$rbp+0]
	#DEBUG_VALUE: propagateMagneticField:EGrid <- [DW_OP_constu 96, DW_OP_minus] [$rbp+0]
	#DEBUG_VALUE: EGrid <- [DW_OP_constu 96, DW_OP_minus] [$rbp+0]
	#DEBUG_VALUE: propagateMagneticField:EDt2Grid <- [DW_OP_constu 144, DW_OP_minus] [$rbp+0]
	#DEBUG_VALUE: EDt2Grid <- [DW_OP_constu 144, DW_OP_minus] [$rbp+0]
	#DEBUG_VALUE: propagateMagneticField:k <- [DW_OP_plus_uconst 16] [$rbp+0]
	#DEBUG_VALUE: k <- [DW_OP_plus_uconst 16] [$rbp+0]
	#DEBUG_VALUE: propagateMagneticField:dt <- [DW_OP_plus_uconst 24] [$rbp+0]
	#DEBUG_VALUE: dt <- [DW_OP_plus_uconst 24] [$rbp+0]
	#DEBUG_VALUE: propagateMagneticField:RKCase <- [DW_OP_plus_uconst 32] [$rbp+0]
	#DEBUG_VALUE: RKCase <- [DW_OP_plus_uconst 32] [$rbp+0]
	#DEBUG_VALUE: propagateMagneticField:doX <- [DW_OP_plus_uconst 40] [$rbp+0]
	#DEBUG_VALUE: doX <- [DW_OP_plus_uconst 40] [$rbp+0]
	#DEBUG_VALUE: propagateMagneticField:doY <- [DW_OP_plus_uconst 48] [$rbp+0]
	#DEBUG_VALUE: doY <- [DW_OP_plus_uconst 48] [$rbp+0]
	#DEBUG_VALUE: propagateMagneticField:doZ <- [DW_OP_plus_uconst 56] [$rbp+0]
	#DEBUG_VALUE: doZ <- [DW_OP_plus_uconst 56] [$rbp+0]
	.loc	1 0 1 is_stmt 0         # fieldsolver/ldz_magnetic_field.cpp:0:1
	movl	-108(%rbp), %r8d        # 4-byte Reload
	.loc	1 787 1 is_stmt 1       # fieldsolver/ldz_magnetic_field.cpp:787:1
	imull	-116(%rbp), %r8d        # 4-byte Folded Reload
	addl	-48(%rbp), %r8d         # 4-byte Folded Reload
	.loc	1 788 1                 # fieldsolver/ldz_magnetic_field.cpp:788:1
	movl	%r10d, %eax
	imull	-64(%rbp), %eax         # 4-byte Folded Reload
	addl	%r14d, %eax
	.loc	1 789 1                 # fieldsolver/ldz_magnetic_field.cpp:789:1
	movl	%r12d, %esi
	imull	-60(%rbp), %esi         # 4-byte Folded Reload
	movl	16(%rbp), %ecx
	addl	%ecx, %esi
	jmp	.LBB0_69
.Ltmp113:
.LBB0_123:
	#DEBUG_VALUE: perBGrid0 <- [DW_OP_constu 136, DW_OP_minus] [$rbp+0]
	#DEBUG_VALUE: propagateMagneticField:j <- [DW_OP_constu 56, DW_OP_minus] [$rbp+0]
	#DEBUG_VALUE: j <- [DW_OP_constu 56, DW_OP_minus] [$rbp+0]
	#DEBUG_VALUE: propagateMagneticField:i <- [DW_OP_constu 48, DW_OP_minus] [$rbp+0]
	#DEBUG_VALUE: i <- [DW_OP_constu 48, DW_OP_minus] [$rbp+0]
	#DEBUG_VALUE: dz <- $xmm2
	#DEBUG_VALUE: dy <- $xmm0
	#DEBUG_VALUE: dx <- $xmm1
	#DEBUG_VALUE: propagateMagneticField:perBDt2Grid <- [DW_OP_constu 160, DW_OP_minus] [$rbp+0]
	#DEBUG_VALUE: perBDt2Grid <- [DW_OP_constu 160, DW_OP_minus] [$rbp+0]
	#DEBUG_VALUE: propagateMagneticField:EGrid <- [DW_OP_constu 96, DW_OP_minus] [$rbp+0]
	#DEBUG_VALUE: EGrid <- [DW_OP_constu 96, DW_OP_minus] [$rbp+0]
	#DEBUG_VALUE: propagateMagneticField:EDt2Grid <- [DW_OP_constu 144, DW_OP_minus] [$rbp+0]
	#DEBUG_VALUE: EDt2Grid <- [DW_OP_constu 144, DW_OP_minus] [$rbp+0]
	#DEBUG_VALUE: propagateMagneticField:k <- [DW_OP_plus_uconst 16] [$rbp+0]
	#DEBUG_VALUE: k <- [DW_OP_plus_uconst 16] [$rbp+0]
	#DEBUG_VALUE: propagateMagneticField:dt <- [DW_OP_plus_uconst 24] [$rbp+0]
	#DEBUG_VALUE: dt <- [DW_OP_plus_uconst 24] [$rbp+0]
	#DEBUG_VALUE: propagateMagneticField:RKCase <- [DW_OP_plus_uconst 32] [$rbp+0]
	#DEBUG_VALUE: RKCase <- [DW_OP_plus_uconst 32] [$rbp+0]
	#DEBUG_VALUE: propagateMagneticField:doX <- [DW_OP_plus_uconst 40] [$rbp+0]
	#DEBUG_VALUE: doX <- [DW_OP_plus_uconst 40] [$rbp+0]
	#DEBUG_VALUE: propagateMagneticField:doY <- [DW_OP_plus_uconst 48] [$rbp+0]
	#DEBUG_VALUE: doY <- [DW_OP_plus_uconst 48] [$rbp+0]
	#DEBUG_VALUE: propagateMagneticField:doZ <- [DW_OP_plus_uconst 56] [$rbp+0]
	#DEBUG_VALUE: doZ <- [DW_OP_plus_uconst 56] [$rbp+0]
	.loc	1 0 1 is_stmt 0         # fieldsolver/ldz_magnetic_field.cpp:0:1
	movq	-48(%rbp), %rax         # 8-byte Reload
	movl	%eax, %r15d
	movl	%r14d, %r10d
.Ltmp114:
.LBB0_125:                              # %L..inline.71920
	#DEBUG_VALUE: perBGrid0 <- [DW_OP_constu 136, DW_OP_minus] [$rbp+0]
	#DEBUG_VALUE: propagateMagneticField:j <- [DW_OP_constu 56, DW_OP_minus] [$rbp+0]
	#DEBUG_VALUE: j <- [DW_OP_constu 56, DW_OP_minus] [$rbp+0]
	#DEBUG_VALUE: propagateMagneticField:i <- [DW_OP_constu 48, DW_OP_minus] [$rbp+0]
	#DEBUG_VALUE: i <- [DW_OP_constu 48, DW_OP_minus] [$rbp+0]
	#DEBUG_VALUE: dz <- $xmm2
	#DEBUG_VALUE: dy <- $xmm0
	#DEBUG_VALUE: dx <- $xmm1
	#DEBUG_VALUE: propagateMagneticField:perBDt2Grid <- [DW_OP_constu 160, DW_OP_minus] [$rbp+0]
	#DEBUG_VALUE: perBDt2Grid <- [DW_OP_constu 160, DW_OP_minus] [$rbp+0]
	#DEBUG_VALUE: propagateMagneticField:EGrid <- [DW_OP_constu 96, DW_OP_minus] [$rbp+0]
	#DEBUG_VALUE: EGrid <- [DW_OP_constu 96, DW_OP_minus] [$rbp+0]
	#DEBUG_VALUE: propagateMagneticField:EDt2Grid <- [DW_OP_constu 144, DW_OP_minus] [$rbp+0]
	#DEBUG_VALUE: EDt2Grid <- [DW_OP_constu 144, DW_OP_minus] [$rbp+0]
	#DEBUG_VALUE: propagateMagneticField:k <- [DW_OP_plus_uconst 16] [$rbp+0]
	#DEBUG_VALUE: k <- [DW_OP_plus_uconst 16] [$rbp+0]
	#DEBUG_VALUE: propagateMagneticField:dt <- [DW_OP_plus_uconst 24] [$rbp+0]
	#DEBUG_VALUE: dt <- [DW_OP_plus_uconst 24] [$rbp+0]
	#DEBUG_VALUE: propagateMagneticField:RKCase <- [DW_OP_plus_uconst 32] [$rbp+0]
	#DEBUG_VALUE: RKCase <- [DW_OP_plus_uconst 32] [$rbp+0]
	#DEBUG_VALUE: propagateMagneticField:doX <- [DW_OP_plus_uconst 40] [$rbp+0]
	#DEBUG_VALUE: doX <- [DW_OP_plus_uconst 40] [$rbp+0]
	#DEBUG_VALUE: propagateMagneticField:doY <- [DW_OP_plus_uconst 48] [$rbp+0]
	#DEBUG_VALUE: doY <- [DW_OP_plus_uconst 48] [$rbp+0]
	#DEBUG_VALUE: propagateMagneticField:doZ <- [DW_OP_plus_uconst 56] [$rbp+0]
	#DEBUG_VALUE: doZ <- [DW_OP_plus_uconst 56] [$rbp+0]
	movq	-144(%rbp), %rsi        # 8-byte Reload
	.loc	1 793 1 is_stmt 1       # fieldsolver/ldz_magnetic_field.cpp:793:1
	cmpl	$2, 260(%rsi)
	jge	.LBB0_127
.Ltmp115:
# %bb.126:
	#DEBUG_VALUE: perBGrid0 <- [DW_OP_constu 136, DW_OP_minus] [$rbp+0]
	#DEBUG_VALUE: propagateMagneticField:j <- [DW_OP_constu 56, DW_OP_minus] [$rbp+0]
	#DEBUG_VALUE: j <- [DW_OP_constu 56, DW_OP_minus] [$rbp+0]
	#DEBUG_VALUE: propagateMagneticField:i <- [DW_OP_constu 48, DW_OP_minus] [$rbp+0]
	#DEBUG_VALUE: i <- [DW_OP_constu 48, DW_OP_minus] [$rbp+0]
	#DEBUG_VALUE: dz <- $xmm2
	#DEBUG_VALUE: dy <- $xmm0
	#DEBUG_VALUE: dx <- $xmm1
	#DEBUG_VALUE: propagateMagneticField:perBDt2Grid <- [DW_OP_constu 160, DW_OP_minus] [$rbp+0]
	#DEBUG_VALUE: perBDt2Grid <- [DW_OP_constu 160, DW_OP_minus] [$rbp+0]
	#DEBUG_VALUE: propagateMagneticField:EGrid <- [DW_OP_constu 96, DW_OP_minus] [$rbp+0]
	#DEBUG_VALUE: EGrid <- [DW_OP_constu 96, DW_OP_minus] [$rbp+0]
	#DEBUG_VALUE: propagateMagneticField:EDt2Grid <- [DW_OP_constu 144, DW_OP_minus] [$rbp+0]
	#DEBUG_VALUE: EDt2Grid <- [DW_OP_constu 144, DW_OP_minus] [$rbp+0]
	#DEBUG_VALUE: propagateMagneticField:k <- [DW_OP_plus_uconst 16] [$rbp+0]
	#DEBUG_VALUE: k <- [DW_OP_plus_uconst 16] [$rbp+0]
	#DEBUG_VALUE: propagateMagneticField:dt <- [DW_OP_plus_uconst 24] [$rbp+0]
	#DEBUG_VALUE: dt <- [DW_OP_plus_uconst 24] [$rbp+0]
	#DEBUG_VALUE: propagateMagneticField:RKCase <- [DW_OP_plus_uconst 32] [$rbp+0]
	#DEBUG_VALUE: RKCase <- [DW_OP_plus_uconst 32] [$rbp+0]
	#DEBUG_VALUE: propagateMagneticField:doX <- [DW_OP_plus_uconst 40] [$rbp+0]
	#DEBUG_VALUE: doX <- [DW_OP_plus_uconst 40] [$rbp+0]
	#DEBUG_VALUE: propagateMagneticField:doY <- [DW_OP_plus_uconst 48] [$rbp+0]
	#DEBUG_VALUE: doY <- [DW_OP_plus_uconst 48] [$rbp+0]
	#DEBUG_VALUE: propagateMagneticField:doZ <- [DW_OP_plus_uconst 56] [$rbp+0]
	#DEBUG_VALUE: doZ <- [DW_OP_plus_uconst 56] [$rbp+0]
	.loc	1 0 1 is_stmt 0         # fieldsolver/ldz_magnetic_field.cpp:0:1
	xorl	%eax, %eax
	.loc	1 793 1                 # fieldsolver/ldz_magnetic_field.cpp:793:1
	cmpl	$2, 256(%rsi)
	jl	.LBB0_130
.Ltmp116:
.LBB0_129:                              # %L.B1297
	#DEBUG_VALUE: perBGrid0 <- [DW_OP_constu 136, DW_OP_minus] [$rbp+0]
	#DEBUG_VALUE: propagateMagneticField:j <- [DW_OP_constu 56, DW_OP_minus] [$rbp+0]
	#DEBUG_VALUE: j <- [DW_OP_constu 56, DW_OP_minus] [$rbp+0]
	#DEBUG_VALUE: propagateMagneticField:i <- [DW_OP_constu 48, DW_OP_minus] [$rbp+0]
	#DEBUG_VALUE: i <- [DW_OP_constu 48, DW_OP_minus] [$rbp+0]
	#DEBUG_VALUE: dz <- $xmm2
	#DEBUG_VALUE: dy <- $xmm0
	#DEBUG_VALUE: dx <- $xmm1
	#DEBUG_VALUE: propagateMagneticField:perBDt2Grid <- [DW_OP_constu 160, DW_OP_minus] [$rbp+0]
	#DEBUG_VALUE: perBDt2Grid <- [DW_OP_constu 160, DW_OP_minus] [$rbp+0]
	#DEBUG_VALUE: propagateMagneticField:EGrid <- [DW_OP_constu 96, DW_OP_minus] [$rbp+0]
	#DEBUG_VALUE: EGrid <- [DW_OP_constu 96, DW_OP_minus] [$rbp+0]
	#DEBUG_VALUE: propagateMagneticField:EDt2Grid <- [DW_OP_constu 144, DW_OP_minus] [$rbp+0]
	#DEBUG_VALUE: EDt2Grid <- [DW_OP_constu 144, DW_OP_minus] [$rbp+0]
	#DEBUG_VALUE: propagateMagneticField:k <- [DW_OP_plus_uconst 16] [$rbp+0]
	#DEBUG_VALUE: k <- [DW_OP_plus_uconst 16] [$rbp+0]
	#DEBUG_VALUE: propagateMagneticField:dt <- [DW_OP_plus_uconst 24] [$rbp+0]
	#DEBUG_VALUE: dt <- [DW_OP_plus_uconst 24] [$rbp+0]
	#DEBUG_VALUE: propagateMagneticField:RKCase <- [DW_OP_plus_uconst 32] [$rbp+0]
	#DEBUG_VALUE: RKCase <- [DW_OP_plus_uconst 32] [$rbp+0]
	#DEBUG_VALUE: propagateMagneticField:doX <- [DW_OP_plus_uconst 40] [$rbp+0]
	#DEBUG_VALUE: doX <- [DW_OP_plus_uconst 40] [$rbp+0]
	#DEBUG_VALUE: propagateMagneticField:doY <- [DW_OP_plus_uconst 48] [$rbp+0]
	#DEBUG_VALUE: doY <- [DW_OP_plus_uconst 48] [$rbp+0]
	#DEBUG_VALUE: propagateMagneticField:doZ <- [DW_OP_plus_uconst 56] [$rbp+0]
	#DEBUG_VALUE: doZ <- [DW_OP_plus_uconst 56] [$rbp+0]
	addl	$2, %r10d
	imull	276(%rsi), %r10d
	movslq	%r10d, %rcx
	addq	%rcx, %rax
.Ltmp117:
.LBB0_130:                              # %L..inline.72078
	#DEBUG_VALUE: perBGrid0 <- [DW_OP_constu 136, DW_OP_minus] [$rbp+0]
	#DEBUG_VALUE: propagateMagneticField:j <- [DW_OP_constu 56, DW_OP_minus] [$rbp+0]
	#DEBUG_VALUE: j <- [DW_OP_constu 56, DW_OP_minus] [$rbp+0]
	#DEBUG_VALUE: propagateMagneticField:i <- [DW_OP_constu 48, DW_OP_minus] [$rbp+0]
	#DEBUG_VALUE: i <- [DW_OP_constu 48, DW_OP_minus] [$rbp+0]
	#DEBUG_VALUE: dz <- $xmm2
	#DEBUG_VALUE: dy <- $xmm0
	#DEBUG_VALUE: dx <- $xmm1
	#DEBUG_VALUE: propagateMagneticField:perBDt2Grid <- [DW_OP_constu 160, DW_OP_minus] [$rbp+0]
	#DEBUG_VALUE: perBDt2Grid <- [DW_OP_constu 160, DW_OP_minus] [$rbp+0]
	#DEBUG_VALUE: propagateMagneticField:EGrid <- [DW_OP_constu 96, DW_OP_minus] [$rbp+0]
	#DEBUG_VALUE: EGrid <- [DW_OP_constu 96, DW_OP_minus] [$rbp+0]
	#DEBUG_VALUE: propagateMagneticField:EDt2Grid <- [DW_OP_constu 144, DW_OP_minus] [$rbp+0]
	#DEBUG_VALUE: EDt2Grid <- [DW_OP_constu 144, DW_OP_minus] [$rbp+0]
	#DEBUG_VALUE: propagateMagneticField:k <- [DW_OP_plus_uconst 16] [$rbp+0]
	#DEBUG_VALUE: k <- [DW_OP_plus_uconst 16] [$rbp+0]
	#DEBUG_VALUE: propagateMagneticField:dt <- [DW_OP_plus_uconst 24] [$rbp+0]
	#DEBUG_VALUE: dt <- [DW_OP_plus_uconst 24] [$rbp+0]
	#DEBUG_VALUE: propagateMagneticField:RKCase <- [DW_OP_plus_uconst 32] [$rbp+0]
	#DEBUG_VALUE: RKCase <- [DW_OP_plus_uconst 32] [$rbp+0]
	#DEBUG_VALUE: propagateMagneticField:doX <- [DW_OP_plus_uconst 40] [$rbp+0]
	#DEBUG_VALUE: doX <- [DW_OP_plus_uconst 40] [$rbp+0]
	#DEBUG_VALUE: propagateMagneticField:doY <- [DW_OP_plus_uconst 48] [$rbp+0]
	#DEBUG_VALUE: doY <- [DW_OP_plus_uconst 48] [$rbp+0]
	#DEBUG_VALUE: propagateMagneticField:doZ <- [DW_OP_plus_uconst 56] [$rbp+0]
	#DEBUG_VALUE: doZ <- [DW_OP_plus_uconst 56] [$rbp+0]
	.loc	1 0 1                   # fieldsolver/ldz_magnetic_field.cpp:0:1
	movq	32(%rbp), %r10
	.loc	1 793 1                 # fieldsolver/ldz_magnetic_field.cpp:793:1
	movslq	%r15d, %rcx
	addq	$2, %rcx
	xorl	%edi, %edi
	cmpl	$2, 252(%rsi)
	cmovgeq	%rcx, %rdi
	addq	%rax, %rdi
	.loc	1 795 1 is_stmt 1       # fieldsolver/ldz_magnetic_field.cpp:795:1
	movq	744(%rsi), %rax
	leaq	(%rdi,%rdi,2), %rcx
	.loc	1 200 1                 # fieldsolver/ldz_magnetic_field.cpp:200:1
	vmovsd	(%r12), %xmm3           # xmm3 = mem[0],zero
	vmovsd	.LCPI0_0(%rip), %xmm4   # xmm4 = mem[0],zero
	vdivsd	%xmm0, %xmm4, %xmm5
	vmovsd	16(%r11), %xmm6         # xmm6 = mem[0],zero
	vsubsd	16(%r8), %xmm6, %xmm6
	vdivsd	%xmm2, %xmm4, %xmm4
	vmovsd	8(%rax,%rcx,8), %xmm7   # xmm7 = mem[0],zero
	vsubsd	8(%r11), %xmm7, %xmm7
	vmulsd	%xmm7, %xmm4, %xmm4
	vfmadd231sd	%xmm6, %xmm5, %xmm4 # xmm4 = (xmm5 * xmm6) + xmm4
	vfmadd213sd	(%r13), %xmm3, %xmm4 # xmm4 = (xmm3 * xmm4) + mem
	vmovsd	%xmm4, (%r13)
	.loc	1 103 1                 # fieldsolver/ldz_magnetic_field.cpp:103:1
	cmpb	$0, 48(%rbp)
	jne	.LBB0_132
	jmp	.LBB0_169
.Ltmp118:
.LBB0_127:                              # %L.B1296
	#DEBUG_VALUE: perBGrid0 <- [DW_OP_constu 136, DW_OP_minus] [$rbp+0]
	#DEBUG_VALUE: propagateMagneticField:j <- [DW_OP_constu 56, DW_OP_minus] [$rbp+0]
	#DEBUG_VALUE: j <- [DW_OP_constu 56, DW_OP_minus] [$rbp+0]
	#DEBUG_VALUE: propagateMagneticField:i <- [DW_OP_constu 48, DW_OP_minus] [$rbp+0]
	#DEBUG_VALUE: i <- [DW_OP_constu 48, DW_OP_minus] [$rbp+0]
	#DEBUG_VALUE: dz <- $xmm2
	#DEBUG_VALUE: dy <- $xmm0
	#DEBUG_VALUE: dx <- $xmm1
	#DEBUG_VALUE: propagateMagneticField:perBDt2Grid <- [DW_OP_constu 160, DW_OP_minus] [$rbp+0]
	#DEBUG_VALUE: perBDt2Grid <- [DW_OP_constu 160, DW_OP_minus] [$rbp+0]
	#DEBUG_VALUE: propagateMagneticField:EGrid <- [DW_OP_constu 96, DW_OP_minus] [$rbp+0]
	#DEBUG_VALUE: EGrid <- [DW_OP_constu 96, DW_OP_minus] [$rbp+0]
	#DEBUG_VALUE: propagateMagneticField:EDt2Grid <- [DW_OP_constu 144, DW_OP_minus] [$rbp+0]
	#DEBUG_VALUE: EDt2Grid <- [DW_OP_constu 144, DW_OP_minus] [$rbp+0]
	#DEBUG_VALUE: propagateMagneticField:k <- [DW_OP_plus_uconst 16] [$rbp+0]
	#DEBUG_VALUE: k <- [DW_OP_plus_uconst 16] [$rbp+0]
	#DEBUG_VALUE: propagateMagneticField:dt <- [DW_OP_plus_uconst 24] [$rbp+0]
	#DEBUG_VALUE: dt <- [DW_OP_plus_uconst 24] [$rbp+0]
	#DEBUG_VALUE: propagateMagneticField:RKCase <- [DW_OP_plus_uconst 32] [$rbp+0]
	#DEBUG_VALUE: RKCase <- [DW_OP_plus_uconst 32] [$rbp+0]
	#DEBUG_VALUE: propagateMagneticField:doX <- [DW_OP_plus_uconst 40] [$rbp+0]
	#DEBUG_VALUE: doX <- [DW_OP_plus_uconst 40] [$rbp+0]
	#DEBUG_VALUE: propagateMagneticField:doY <- [DW_OP_plus_uconst 48] [$rbp+0]
	#DEBUG_VALUE: doY <- [DW_OP_plus_uconst 48] [$rbp+0]
	#DEBUG_VALUE: propagateMagneticField:doZ <- [DW_OP_plus_uconst 56] [$rbp+0]
	#DEBUG_VALUE: doZ <- [DW_OP_plus_uconst 56] [$rbp+0]
	.loc	1 793 1                 # fieldsolver/ldz_magnetic_field.cpp:793:1
	addl	$2, %ebx
	imull	280(%rsi), %ebx
	imull	276(%rsi), %ebx
	movslq	%ebx, %rax
	cmpl	$2, 256(%rsi)
	jge	.LBB0_129
	jmp	.LBB0_130
.Ltmp119:
.LBB0_79:                               # %L..inline.70773
	#DEBUG_VALUE: perBDt2Grid0 <- [DW_OP_constu 128, DW_OP_minus] [$rbp+0]
	#DEBUG_VALUE: perBGrid0 <- [DW_OP_constu 136, DW_OP_minus] [$rbp+0]
	#DEBUG_VALUE: propagateMagneticField:j <- [DW_OP_constu 56, DW_OP_minus] [$rbp+0]
	#DEBUG_VALUE: j <- [DW_OP_constu 56, DW_OP_minus] [$rbp+0]
	#DEBUG_VALUE: propagateMagneticField:i <- [DW_OP_constu 48, DW_OP_minus] [$rbp+0]
	#DEBUG_VALUE: i <- [DW_OP_constu 48, DW_OP_minus] [$rbp+0]
	#DEBUG_VALUE: dz <- $xmm2
	#DEBUG_VALUE: dy <- $xmm0
	#DEBUG_VALUE: dx <- $xmm1
	#DEBUG_VALUE: propagateMagneticField:perBDt2Grid <- [DW_OP_constu 160, DW_OP_minus] [$rbp+0]
	#DEBUG_VALUE: perBDt2Grid <- [DW_OP_constu 160, DW_OP_minus] [$rbp+0]
	#DEBUG_VALUE: propagateMagneticField:EGrid <- [DW_OP_constu 96, DW_OP_minus] [$rbp+0]
	#DEBUG_VALUE: EGrid <- [DW_OP_constu 96, DW_OP_minus] [$rbp+0]
	#DEBUG_VALUE: propagateMagneticField:EDt2Grid <- [DW_OP_constu 144, DW_OP_minus] [$rbp+0]
	#DEBUG_VALUE: EDt2Grid <- [DW_OP_constu 144, DW_OP_minus] [$rbp+0]
	#DEBUG_VALUE: propagateMagneticField:k <- [DW_OP_plus_uconst 16] [$rbp+0]
	#DEBUG_VALUE: k <- [DW_OP_plus_uconst 16] [$rbp+0]
	#DEBUG_VALUE: propagateMagneticField:dt <- [DW_OP_plus_uconst 24] [$rbp+0]
	#DEBUG_VALUE: dt <- [DW_OP_plus_uconst 24] [$rbp+0]
	#DEBUG_VALUE: propagateMagneticField:RKCase <- [DW_OP_plus_uconst 32] [$rbp+0]
	#DEBUG_VALUE: RKCase <- [DW_OP_plus_uconst 32] [$rbp+0]
	#DEBUG_VALUE: propagateMagneticField:doX <- [DW_OP_plus_uconst 40] [$rbp+0]
	#DEBUG_VALUE: doX <- [DW_OP_plus_uconst 40] [$rbp+0]
	#DEBUG_VALUE: propagateMagneticField:doY <- [DW_OP_plus_uconst 48] [$rbp+0]
	#DEBUG_VALUE: doY <- [DW_OP_plus_uconst 48] [$rbp+0]
	#DEBUG_VALUE: propagateMagneticField:doZ <- [DW_OP_plus_uconst 56] [$rbp+0]
	#DEBUG_VALUE: doZ <- [DW_OP_plus_uconst 56] [$rbp+0]
	.loc	1 784 1                 # fieldsolver/ldz_magnetic_field.cpp:784:1
	cmpl	56(%r9), %ecx
	jne	.LBB0_80
.Ltmp120:
# %bb.81:                               # %L.B1259
	#DEBUG_VALUE: perBDt2Grid0 <- [DW_OP_constu 128, DW_OP_minus] [$rbp+0]
	#DEBUG_VALUE: perBGrid0 <- [DW_OP_constu 136, DW_OP_minus] [$rbp+0]
	#DEBUG_VALUE: propagateMagneticField:j <- [DW_OP_constu 56, DW_OP_minus] [$rbp+0]
	#DEBUG_VALUE: j <- [DW_OP_constu 56, DW_OP_minus] [$rbp+0]
	#DEBUG_VALUE: propagateMagneticField:i <- [DW_OP_constu 48, DW_OP_minus] [$rbp+0]
	#DEBUG_VALUE: i <- [DW_OP_constu 48, DW_OP_minus] [$rbp+0]
	#DEBUG_VALUE: dz <- $xmm2
	#DEBUG_VALUE: dy <- $xmm0
	#DEBUG_VALUE: dx <- $xmm1
	#DEBUG_VALUE: propagateMagneticField:perBDt2Grid <- [DW_OP_constu 160, DW_OP_minus] [$rbp+0]
	#DEBUG_VALUE: perBDt2Grid <- [DW_OP_constu 160, DW_OP_minus] [$rbp+0]
	#DEBUG_VALUE: propagateMagneticField:EGrid <- [DW_OP_constu 96, DW_OP_minus] [$rbp+0]
	#DEBUG_VALUE: EGrid <- [DW_OP_constu 96, DW_OP_minus] [$rbp+0]
	#DEBUG_VALUE: propagateMagneticField:EDt2Grid <- [DW_OP_constu 144, DW_OP_minus] [$rbp+0]
	#DEBUG_VALUE: EDt2Grid <- [DW_OP_constu 144, DW_OP_minus] [$rbp+0]
	#DEBUG_VALUE: propagateMagneticField:k <- [DW_OP_plus_uconst 16] [$rbp+0]
	#DEBUG_VALUE: k <- [DW_OP_plus_uconst 16] [$rbp+0]
	#DEBUG_VALUE: propagateMagneticField:dt <- [DW_OP_plus_uconst 24] [$rbp+0]
	#DEBUG_VALUE: dt <- [DW_OP_plus_uconst 24] [$rbp+0]
	#DEBUG_VALUE: propagateMagneticField:RKCase <- [DW_OP_plus_uconst 32] [$rbp+0]
	#DEBUG_VALUE: RKCase <- [DW_OP_plus_uconst 32] [$rbp+0]
	#DEBUG_VALUE: propagateMagneticField:doX <- [DW_OP_plus_uconst 40] [$rbp+0]
	#DEBUG_VALUE: doX <- [DW_OP_plus_uconst 40] [$rbp+0]
	#DEBUG_VALUE: propagateMagneticField:doY <- [DW_OP_plus_uconst 48] [$rbp+0]
	#DEBUG_VALUE: doY <- [DW_OP_plus_uconst 48] [$rbp+0]
	#DEBUG_VALUE: propagateMagneticField:doZ <- [DW_OP_plus_uconst 56] [$rbp+0]
	#DEBUG_VALUE: doZ <- [DW_OP_plus_uconst 56] [$rbp+0]
	.loc	1 0 1 is_stmt 0         # fieldsolver/ldz_magnetic_field.cpp:0:1
	movl	-108(%rbp), %edi        # 4-byte Reload
	.loc	1 787 1 is_stmt 1       # fieldsolver/ldz_magnetic_field.cpp:787:1
	imull	-116(%rbp), %edi        # 4-byte Folded Reload
	addl	-48(%rbp), %edi         # 4-byte Folded Reload
	.loc	1 788 1                 # fieldsolver/ldz_magnetic_field.cpp:788:1
	imull	%r8d, %eax
	addl	%eax, %ebx
	.loc	1 789 1                 # fieldsolver/ldz_magnetic_field.cpp:789:1
	imull	%r15d, %r12d
	movl	16(%rbp), %eax
	addl	%eax, %r12d
	jmp	.LBB0_82
.Ltmp121:
.LBB0_91:
	#DEBUG_VALUE: perBDt2Grid0 <- [DW_OP_constu 128, DW_OP_minus] [$rbp+0]
	#DEBUG_VALUE: perBGrid0 <- [DW_OP_constu 136, DW_OP_minus] [$rbp+0]
	#DEBUG_VALUE: propagateMagneticField:j <- [DW_OP_constu 56, DW_OP_minus] [$rbp+0]
	#DEBUG_VALUE: j <- [DW_OP_constu 56, DW_OP_minus] [$rbp+0]
	#DEBUG_VALUE: propagateMagneticField:i <- [DW_OP_constu 48, DW_OP_minus] [$rbp+0]
	#DEBUG_VALUE: i <- [DW_OP_constu 48, DW_OP_minus] [$rbp+0]
	#DEBUG_VALUE: dz <- $xmm2
	#DEBUG_VALUE: dy <- $xmm0
	#DEBUG_VALUE: dx <- $xmm1
	#DEBUG_VALUE: propagateMagneticField:perBDt2Grid <- [DW_OP_constu 160, DW_OP_minus] [$rbp+0]
	#DEBUG_VALUE: perBDt2Grid <- [DW_OP_constu 160, DW_OP_minus] [$rbp+0]
	#DEBUG_VALUE: propagateMagneticField:EGrid <- [DW_OP_constu 96, DW_OP_minus] [$rbp+0]
	#DEBUG_VALUE: EGrid <- [DW_OP_constu 96, DW_OP_minus] [$rbp+0]
	#DEBUG_VALUE: propagateMagneticField:EDt2Grid <- [DW_OP_constu 144, DW_OP_minus] [$rbp+0]
	#DEBUG_VALUE: EDt2Grid <- [DW_OP_constu 144, DW_OP_minus] [$rbp+0]
	#DEBUG_VALUE: propagateMagneticField:k <- [DW_OP_plus_uconst 16] [$rbp+0]
	#DEBUG_VALUE: k <- [DW_OP_plus_uconst 16] [$rbp+0]
	#DEBUG_VALUE: propagateMagneticField:dt <- [DW_OP_plus_uconst 24] [$rbp+0]
	#DEBUG_VALUE: dt <- [DW_OP_plus_uconst 24] [$rbp+0]
	#DEBUG_VALUE: propagateMagneticField:RKCase <- [DW_OP_plus_uconst 32] [$rbp+0]
	#DEBUG_VALUE: RKCase <- [DW_OP_plus_uconst 32] [$rbp+0]
	#DEBUG_VALUE: propagateMagneticField:doX <- [DW_OP_plus_uconst 40] [$rbp+0]
	#DEBUG_VALUE: doX <- [DW_OP_plus_uconst 40] [$rbp+0]
	#DEBUG_VALUE: propagateMagneticField:doY <- [DW_OP_plus_uconst 48] [$rbp+0]
	#DEBUG_VALUE: doY <- [DW_OP_plus_uconst 48] [$rbp+0]
	#DEBUG_VALUE: propagateMagneticField:doZ <- [DW_OP_plus_uconst 56] [$rbp+0]
	#DEBUG_VALUE: doZ <- [DW_OP_plus_uconst 56] [$rbp+0]
	.loc	1 0 1 is_stmt 0         # fieldsolver/ldz_magnetic_field.cpp:0:1
	movq	-56(%rbp), %rax         # 8-byte Reload
	movl	%eax, %r10d
	movq	-48(%rbp), %rax         # 8-byte Reload
	movl	%eax, %esi
	.loc	1 793 1 is_stmt 1       # fieldsolver/ldz_magnetic_field.cpp:793:1
	cmpl	$2, 260(%r9)
	jge	.LBB0_95
.Ltmp122:
.LBB0_94:
	#DEBUG_VALUE: perBDt2Grid0 <- [DW_OP_constu 128, DW_OP_minus] [$rbp+0]
	#DEBUG_VALUE: perBGrid0 <- [DW_OP_constu 136, DW_OP_minus] [$rbp+0]
	#DEBUG_VALUE: propagateMagneticField:j <- [DW_OP_constu 56, DW_OP_minus] [$rbp+0]
	#DEBUG_VALUE: j <- [DW_OP_constu 56, DW_OP_minus] [$rbp+0]
	#DEBUG_VALUE: propagateMagneticField:i <- [DW_OP_constu 48, DW_OP_minus] [$rbp+0]
	#DEBUG_VALUE: i <- [DW_OP_constu 48, DW_OP_minus] [$rbp+0]
	#DEBUG_VALUE: dz <- $xmm2
	#DEBUG_VALUE: dy <- $xmm0
	#DEBUG_VALUE: dx <- $xmm1
	#DEBUG_VALUE: propagateMagneticField:perBDt2Grid <- [DW_OP_constu 160, DW_OP_minus] [$rbp+0]
	#DEBUG_VALUE: perBDt2Grid <- [DW_OP_constu 160, DW_OP_minus] [$rbp+0]
	#DEBUG_VALUE: propagateMagneticField:EGrid <- [DW_OP_constu 96, DW_OP_minus] [$rbp+0]
	#DEBUG_VALUE: EGrid <- [DW_OP_constu 96, DW_OP_minus] [$rbp+0]
	#DEBUG_VALUE: propagateMagneticField:EDt2Grid <- [DW_OP_constu 144, DW_OP_minus] [$rbp+0]
	#DEBUG_VALUE: EDt2Grid <- [DW_OP_constu 144, DW_OP_minus] [$rbp+0]
	#DEBUG_VALUE: propagateMagneticField:k <- [DW_OP_plus_uconst 16] [$rbp+0]
	#DEBUG_VALUE: k <- [DW_OP_plus_uconst 16] [$rbp+0]
	#DEBUG_VALUE: propagateMagneticField:dt <- [DW_OP_plus_uconst 24] [$rbp+0]
	#DEBUG_VALUE: dt <- [DW_OP_plus_uconst 24] [$rbp+0]
	#DEBUG_VALUE: propagateMagneticField:RKCase <- [DW_OP_plus_uconst 32] [$rbp+0]
	#DEBUG_VALUE: RKCase <- [DW_OP_plus_uconst 32] [$rbp+0]
	#DEBUG_VALUE: propagateMagneticField:doX <- [DW_OP_plus_uconst 40] [$rbp+0]
	#DEBUG_VALUE: doX <- [DW_OP_plus_uconst 40] [$rbp+0]
	#DEBUG_VALUE: propagateMagneticField:doY <- [DW_OP_plus_uconst 48] [$rbp+0]
	#DEBUG_VALUE: doY <- [DW_OP_plus_uconst 48] [$rbp+0]
	#DEBUG_VALUE: propagateMagneticField:doZ <- [DW_OP_plus_uconst 56] [$rbp+0]
	#DEBUG_VALUE: doZ <- [DW_OP_plus_uconst 56] [$rbp+0]
	.loc	1 0 1 is_stmt 0         # fieldsolver/ldz_magnetic_field.cpp:0:1
	xorl	%eax, %eax
	.loc	1 793 1                 # fieldsolver/ldz_magnetic_field.cpp:793:1
	cmpl	$2, 256(%r9)
	jl	.LBB0_98
.Ltmp123:
.LBB0_97:                               # %L.B1272
	#DEBUG_VALUE: perBDt2Grid0 <- [DW_OP_constu 128, DW_OP_minus] [$rbp+0]
	#DEBUG_VALUE: perBGrid0 <- [DW_OP_constu 136, DW_OP_minus] [$rbp+0]
	#DEBUG_VALUE: propagateMagneticField:j <- [DW_OP_constu 56, DW_OP_minus] [$rbp+0]
	#DEBUG_VALUE: j <- [DW_OP_constu 56, DW_OP_minus] [$rbp+0]
	#DEBUG_VALUE: propagateMagneticField:i <- [DW_OP_constu 48, DW_OP_minus] [$rbp+0]
	#DEBUG_VALUE: i <- [DW_OP_constu 48, DW_OP_minus] [$rbp+0]
	#DEBUG_VALUE: dz <- $xmm2
	#DEBUG_VALUE: dy <- $xmm0
	#DEBUG_VALUE: dx <- $xmm1
	#DEBUG_VALUE: propagateMagneticField:perBDt2Grid <- [DW_OP_constu 160, DW_OP_minus] [$rbp+0]
	#DEBUG_VALUE: perBDt2Grid <- [DW_OP_constu 160, DW_OP_minus] [$rbp+0]
	#DEBUG_VALUE: propagateMagneticField:EGrid <- [DW_OP_constu 96, DW_OP_minus] [$rbp+0]
	#DEBUG_VALUE: EGrid <- [DW_OP_constu 96, DW_OP_minus] [$rbp+0]
	#DEBUG_VALUE: propagateMagneticField:EDt2Grid <- [DW_OP_constu 144, DW_OP_minus] [$rbp+0]
	#DEBUG_VALUE: EDt2Grid <- [DW_OP_constu 144, DW_OP_minus] [$rbp+0]
	#DEBUG_VALUE: propagateMagneticField:k <- [DW_OP_plus_uconst 16] [$rbp+0]
	#DEBUG_VALUE: k <- [DW_OP_plus_uconst 16] [$rbp+0]
	#DEBUG_VALUE: propagateMagneticField:dt <- [DW_OP_plus_uconst 24] [$rbp+0]
	#DEBUG_VALUE: dt <- [DW_OP_plus_uconst 24] [$rbp+0]
	#DEBUG_VALUE: propagateMagneticField:RKCase <- [DW_OP_plus_uconst 32] [$rbp+0]
	#DEBUG_VALUE: RKCase <- [DW_OP_plus_uconst 32] [$rbp+0]
	#DEBUG_VALUE: propagateMagneticField:doX <- [DW_OP_plus_uconst 40] [$rbp+0]
	#DEBUG_VALUE: doX <- [DW_OP_plus_uconst 40] [$rbp+0]
	#DEBUG_VALUE: propagateMagneticField:doY <- [DW_OP_plus_uconst 48] [$rbp+0]
	#DEBUG_VALUE: doY <- [DW_OP_plus_uconst 48] [$rbp+0]
	#DEBUG_VALUE: propagateMagneticField:doZ <- [DW_OP_plus_uconst 56] [$rbp+0]
	#DEBUG_VALUE: doZ <- [DW_OP_plus_uconst 56] [$rbp+0]
	addl	$2, %r10d
	imull	276(%r9), %r10d
	movslq	%r10d, %rcx
	addq	%rcx, %rax
.Ltmp124:
.LBB0_98:                               # %L..inline.71181
	#DEBUG_VALUE: perBDt2Grid0 <- [DW_OP_constu 128, DW_OP_minus] [$rbp+0]
	#DEBUG_VALUE: perBGrid0 <- [DW_OP_constu 136, DW_OP_minus] [$rbp+0]
	#DEBUG_VALUE: propagateMagneticField:j <- [DW_OP_constu 56, DW_OP_minus] [$rbp+0]
	#DEBUG_VALUE: j <- [DW_OP_constu 56, DW_OP_minus] [$rbp+0]
	#DEBUG_VALUE: propagateMagneticField:i <- [DW_OP_constu 48, DW_OP_minus] [$rbp+0]
	#DEBUG_VALUE: i <- [DW_OP_constu 48, DW_OP_minus] [$rbp+0]
	#DEBUG_VALUE: dz <- $xmm2
	#DEBUG_VALUE: dy <- $xmm0
	#DEBUG_VALUE: dx <- $xmm1
	#DEBUG_VALUE: propagateMagneticField:perBDt2Grid <- [DW_OP_constu 160, DW_OP_minus] [$rbp+0]
	#DEBUG_VALUE: perBDt2Grid <- [DW_OP_constu 160, DW_OP_minus] [$rbp+0]
	#DEBUG_VALUE: propagateMagneticField:EGrid <- [DW_OP_constu 96, DW_OP_minus] [$rbp+0]
	#DEBUG_VALUE: EGrid <- [DW_OP_constu 96, DW_OP_minus] [$rbp+0]
	#DEBUG_VALUE: propagateMagneticField:EDt2Grid <- [DW_OP_constu 144, DW_OP_minus] [$rbp+0]
	#DEBUG_VALUE: EDt2Grid <- [DW_OP_constu 144, DW_OP_minus] [$rbp+0]
	#DEBUG_VALUE: propagateMagneticField:k <- [DW_OP_plus_uconst 16] [$rbp+0]
	#DEBUG_VALUE: k <- [DW_OP_plus_uconst 16] [$rbp+0]
	#DEBUG_VALUE: propagateMagneticField:dt <- [DW_OP_plus_uconst 24] [$rbp+0]
	#DEBUG_VALUE: dt <- [DW_OP_plus_uconst 24] [$rbp+0]
	#DEBUG_VALUE: propagateMagneticField:RKCase <- [DW_OP_plus_uconst 32] [$rbp+0]
	#DEBUG_VALUE: RKCase <- [DW_OP_plus_uconst 32] [$rbp+0]
	#DEBUG_VALUE: propagateMagneticField:doX <- [DW_OP_plus_uconst 40] [$rbp+0]
	#DEBUG_VALUE: doX <- [DW_OP_plus_uconst 40] [$rbp+0]
	#DEBUG_VALUE: propagateMagneticField:doY <- [DW_OP_plus_uconst 48] [$rbp+0]
	#DEBUG_VALUE: doY <- [DW_OP_plus_uconst 48] [$rbp+0]
	#DEBUG_VALUE: propagateMagneticField:doZ <- [DW_OP_plus_uconst 56] [$rbp+0]
	#DEBUG_VALUE: doZ <- [DW_OP_plus_uconst 56] [$rbp+0]
	.loc	1 0 1                   # fieldsolver/ldz_magnetic_field.cpp:0:1
	movq	32(%rbp), %r10
	.loc	1 793 1                 # fieldsolver/ldz_magnetic_field.cpp:793:1
	movslq	%esi, %rcx
	addq	$2, %rcx
	xorl	%esi, %esi
	cmpl	$2, 252(%r9)
	cmovgeq	%rcx, %rsi
	addq	%rax, %rsi
	.loc	1 795 1 is_stmt 1       # fieldsolver/ldz_magnetic_field.cpp:795:1
	movq	744(%r9), %rax
	leaq	(%rsi,%rsi,2), %rcx
	.loc	1 200 1                 # fieldsolver/ldz_magnetic_field.cpp:200:1
	vmovsd	(%r12), %xmm3           # xmm3 = mem[0],zero
	vmulsd	.LCPI0_1(%rip), %xmm3, %xmm3
	vmovsd	.LCPI0_0(%rip), %xmm4   # xmm4 = mem[0],zero
	vdivsd	%xmm0, %xmm4, %xmm5
	vmovsd	16(%r14), %xmm6         # xmm6 = mem[0],zero
	vsubsd	16(%rdi), %xmm6, %xmm6
	vdivsd	%xmm2, %xmm4, %xmm4
	vmovsd	8(%rax,%rcx,8), %xmm7   # xmm7 = mem[0],zero
	vsubsd	8(%r14), %xmm7, %xmm7
	vmulsd	%xmm7, %xmm4, %xmm4
	vfmadd231sd	%xmm6, %xmm5, %xmm4 # xmm4 = (xmm5 * xmm6) + xmm4
	vfmadd213sd	(%r13), %xmm3, %xmm4 # xmm4 = (xmm3 * xmm4) + mem
	vmovsd	%xmm4, (%rdx)
	movq	-56(%rbp), %r14         # 8-byte Reload
.Ltmp125:
.LBB0_131:                              # %L.B0000
	#DEBUG_VALUE: perBGrid0 <- [DW_OP_constu 136, DW_OP_minus] [$rbp+0]
	#DEBUG_VALUE: propagateMagneticField:j <- [DW_OP_constu 56, DW_OP_minus] [$rbp+0]
	#DEBUG_VALUE: j <- [DW_OP_constu 56, DW_OP_minus] [$rbp+0]
	#DEBUG_VALUE: propagateMagneticField:i <- [DW_OP_constu 48, DW_OP_minus] [$rbp+0]
	#DEBUG_VALUE: i <- [DW_OP_constu 48, DW_OP_minus] [$rbp+0]
	#DEBUG_VALUE: dz <- $xmm2
	#DEBUG_VALUE: dy <- $xmm0
	#DEBUG_VALUE: dx <- $xmm1
	#DEBUG_VALUE: propagateMagneticField:perBDt2Grid <- [DW_OP_constu 160, DW_OP_minus] [$rbp+0]
	#DEBUG_VALUE: perBDt2Grid <- [DW_OP_constu 160, DW_OP_minus] [$rbp+0]
	#DEBUG_VALUE: propagateMagneticField:EGrid <- [DW_OP_constu 96, DW_OP_minus] [$rbp+0]
	#DEBUG_VALUE: EGrid <- [DW_OP_constu 96, DW_OP_minus] [$rbp+0]
	#DEBUG_VALUE: propagateMagneticField:EDt2Grid <- [DW_OP_constu 144, DW_OP_minus] [$rbp+0]
	#DEBUG_VALUE: EDt2Grid <- [DW_OP_constu 144, DW_OP_minus] [$rbp+0]
	#DEBUG_VALUE: propagateMagneticField:k <- [DW_OP_plus_uconst 16] [$rbp+0]
	#DEBUG_VALUE: k <- [DW_OP_plus_uconst 16] [$rbp+0]
	#DEBUG_VALUE: propagateMagneticField:dt <- [DW_OP_plus_uconst 24] [$rbp+0]
	#DEBUG_VALUE: dt <- [DW_OP_plus_uconst 24] [$rbp+0]
	#DEBUG_VALUE: propagateMagneticField:RKCase <- [DW_OP_plus_uconst 32] [$rbp+0]
	#DEBUG_VALUE: RKCase <- [DW_OP_plus_uconst 32] [$rbp+0]
	#DEBUG_VALUE: propagateMagneticField:doX <- [DW_OP_plus_uconst 40] [$rbp+0]
	#DEBUG_VALUE: doX <- [DW_OP_plus_uconst 40] [$rbp+0]
	#DEBUG_VALUE: propagateMagneticField:doY <- [DW_OP_plus_uconst 48] [$rbp+0]
	#DEBUG_VALUE: doY <- [DW_OP_plus_uconst 48] [$rbp+0]
	#DEBUG_VALUE: propagateMagneticField:doZ <- [DW_OP_plus_uconst 56] [$rbp+0]
	#DEBUG_VALUE: doZ <- [DW_OP_plus_uconst 56] [$rbp+0]
	.loc	1 103 1                 # fieldsolver/ldz_magnetic_field.cpp:103:1
	cmpb	$0, 48(%rbp)
	je	.LBB0_169
.Ltmp126:
.LBB0_132:                              # %L.B1301
	#DEBUG_VALUE: perBGrid0 <- [DW_OP_constu 136, DW_OP_minus] [$rbp+0]
	#DEBUG_VALUE: propagateMagneticField:j <- [DW_OP_constu 56, DW_OP_minus] [$rbp+0]
	#DEBUG_VALUE: j <- [DW_OP_constu 56, DW_OP_minus] [$rbp+0]
	#DEBUG_VALUE: propagateMagneticField:i <- [DW_OP_constu 48, DW_OP_minus] [$rbp+0]
	#DEBUG_VALUE: i <- [DW_OP_constu 48, DW_OP_minus] [$rbp+0]
	#DEBUG_VALUE: dz <- $xmm2
	#DEBUG_VALUE: dy <- $xmm0
	#DEBUG_VALUE: dx <- $xmm1
	#DEBUG_VALUE: propagateMagneticField:perBDt2Grid <- [DW_OP_constu 160, DW_OP_minus] [$rbp+0]
	#DEBUG_VALUE: perBDt2Grid <- [DW_OP_constu 160, DW_OP_minus] [$rbp+0]
	#DEBUG_VALUE: propagateMagneticField:EGrid <- [DW_OP_constu 96, DW_OP_minus] [$rbp+0]
	#DEBUG_VALUE: EGrid <- [DW_OP_constu 96, DW_OP_minus] [$rbp+0]
	#DEBUG_VALUE: propagateMagneticField:EDt2Grid <- [DW_OP_constu 144, DW_OP_minus] [$rbp+0]
	#DEBUG_VALUE: EDt2Grid <- [DW_OP_constu 144, DW_OP_minus] [$rbp+0]
	#DEBUG_VALUE: propagateMagneticField:k <- [DW_OP_plus_uconst 16] [$rbp+0]
	#DEBUG_VALUE: k <- [DW_OP_plus_uconst 16] [$rbp+0]
	#DEBUG_VALUE: propagateMagneticField:dt <- [DW_OP_plus_uconst 24] [$rbp+0]
	#DEBUG_VALUE: dt <- [DW_OP_plus_uconst 24] [$rbp+0]
	#DEBUG_VALUE: propagateMagneticField:RKCase <- [DW_OP_plus_uconst 32] [$rbp+0]
	#DEBUG_VALUE: RKCase <- [DW_OP_plus_uconst 32] [$rbp+0]
	#DEBUG_VALUE: propagateMagneticField:doX <- [DW_OP_plus_uconst 40] [$rbp+0]
	#DEBUG_VALUE: doX <- [DW_OP_plus_uconst 40] [$rbp+0]
	#DEBUG_VALUE: propagateMagneticField:doY <- [DW_OP_plus_uconst 48] [$rbp+0]
	#DEBUG_VALUE: doY <- [DW_OP_plus_uconst 48] [$rbp+0]
	#DEBUG_VALUE: propagateMagneticField:doZ <- [DW_OP_plus_uconst 56] [$rbp+0]
	#DEBUG_VALUE: doZ <- [DW_OP_plus_uconst 56] [$rbp+0]
	.loc	1 104 1                 # fieldsolver/ldz_magnetic_field.cpp:104:1
	movl	(%r10), %eax
	testl	%eax, %eax
	je	.LBB0_210
.Ltmp127:
# %bb.133:                              # %L.B1301
	#DEBUG_VALUE: perBGrid0 <- [DW_OP_constu 136, DW_OP_minus] [$rbp+0]
	#DEBUG_VALUE: propagateMagneticField:j <- [DW_OP_constu 56, DW_OP_minus] [$rbp+0]
	#DEBUG_VALUE: j <- [DW_OP_constu 56, DW_OP_minus] [$rbp+0]
	#DEBUG_VALUE: propagateMagneticField:i <- [DW_OP_constu 48, DW_OP_minus] [$rbp+0]
	#DEBUG_VALUE: i <- [DW_OP_constu 48, DW_OP_minus] [$rbp+0]
	#DEBUG_VALUE: dz <- $xmm2
	#DEBUG_VALUE: dy <- $xmm0
	#DEBUG_VALUE: dx <- $xmm1
	#DEBUG_VALUE: propagateMagneticField:perBDt2Grid <- [DW_OP_constu 160, DW_OP_minus] [$rbp+0]
	#DEBUG_VALUE: perBDt2Grid <- [DW_OP_constu 160, DW_OP_minus] [$rbp+0]
	#DEBUG_VALUE: propagateMagneticField:EGrid <- [DW_OP_constu 96, DW_OP_minus] [$rbp+0]
	#DEBUG_VALUE: EGrid <- [DW_OP_constu 96, DW_OP_minus] [$rbp+0]
	#DEBUG_VALUE: propagateMagneticField:EDt2Grid <- [DW_OP_constu 144, DW_OP_minus] [$rbp+0]
	#DEBUG_VALUE: EDt2Grid <- [DW_OP_constu 144, DW_OP_minus] [$rbp+0]
	#DEBUG_VALUE: propagateMagneticField:k <- [DW_OP_plus_uconst 16] [$rbp+0]
	#DEBUG_VALUE: k <- [DW_OP_plus_uconst 16] [$rbp+0]
	#DEBUG_VALUE: propagateMagneticField:dt <- [DW_OP_plus_uconst 24] [$rbp+0]
	#DEBUG_VALUE: dt <- [DW_OP_plus_uconst 24] [$rbp+0]
	#DEBUG_VALUE: propagateMagneticField:RKCase <- [DW_OP_plus_uconst 32] [$rbp+0]
	#DEBUG_VALUE: RKCase <- [DW_OP_plus_uconst 32] [$rbp+0]
	#DEBUG_VALUE: propagateMagneticField:doX <- [DW_OP_plus_uconst 40] [$rbp+0]
	#DEBUG_VALUE: doX <- [DW_OP_plus_uconst 40] [$rbp+0]
	#DEBUG_VALUE: propagateMagneticField:doY <- [DW_OP_plus_uconst 48] [$rbp+0]
	#DEBUG_VALUE: doY <- [DW_OP_plus_uconst 48] [$rbp+0]
	#DEBUG_VALUE: propagateMagneticField:doZ <- [DW_OP_plus_uconst 56] [$rbp+0]
	#DEBUG_VALUE: doZ <- [DW_OP_plus_uconst 56] [$rbp+0]
	cmpl	$1, %eax
	je	.LBB0_244
.Ltmp128:
# %bb.134:                              # %L.B1301
	#DEBUG_VALUE: perBGrid0 <- [DW_OP_constu 136, DW_OP_minus] [$rbp+0]
	#DEBUG_VALUE: propagateMagneticField:j <- [DW_OP_constu 56, DW_OP_minus] [$rbp+0]
	#DEBUG_VALUE: j <- [DW_OP_constu 56, DW_OP_minus] [$rbp+0]
	#DEBUG_VALUE: propagateMagneticField:i <- [DW_OP_constu 48, DW_OP_minus] [$rbp+0]
	#DEBUG_VALUE: i <- [DW_OP_constu 48, DW_OP_minus] [$rbp+0]
	#DEBUG_VALUE: dz <- $xmm2
	#DEBUG_VALUE: dy <- $xmm0
	#DEBUG_VALUE: dx <- $xmm1
	#DEBUG_VALUE: propagateMagneticField:perBDt2Grid <- [DW_OP_constu 160, DW_OP_minus] [$rbp+0]
	#DEBUG_VALUE: perBDt2Grid <- [DW_OP_constu 160, DW_OP_minus] [$rbp+0]
	#DEBUG_VALUE: propagateMagneticField:EGrid <- [DW_OP_constu 96, DW_OP_minus] [$rbp+0]
	#DEBUG_VALUE: EGrid <- [DW_OP_constu 96, DW_OP_minus] [$rbp+0]
	#DEBUG_VALUE: propagateMagneticField:EDt2Grid <- [DW_OP_constu 144, DW_OP_minus] [$rbp+0]
	#DEBUG_VALUE: EDt2Grid <- [DW_OP_constu 144, DW_OP_minus] [$rbp+0]
	#DEBUG_VALUE: propagateMagneticField:k <- [DW_OP_plus_uconst 16] [$rbp+0]
	#DEBUG_VALUE: k <- [DW_OP_plus_uconst 16] [$rbp+0]
	#DEBUG_VALUE: propagateMagneticField:dt <- [DW_OP_plus_uconst 24] [$rbp+0]
	#DEBUG_VALUE: dt <- [DW_OP_plus_uconst 24] [$rbp+0]
	#DEBUG_VALUE: propagateMagneticField:RKCase <- [DW_OP_plus_uconst 32] [$rbp+0]
	#DEBUG_VALUE: RKCase <- [DW_OP_plus_uconst 32] [$rbp+0]
	#DEBUG_VALUE: propagateMagneticField:doX <- [DW_OP_plus_uconst 40] [$rbp+0]
	#DEBUG_VALUE: doX <- [DW_OP_plus_uconst 40] [$rbp+0]
	#DEBUG_VALUE: propagateMagneticField:doY <- [DW_OP_plus_uconst 48] [$rbp+0]
	#DEBUG_VALUE: doY <- [DW_OP_plus_uconst 48] [$rbp+0]
	#DEBUG_VALUE: propagateMagneticField:doZ <- [DW_OP_plus_uconst 56] [$rbp+0]
	#DEBUG_VALUE: doZ <- [DW_OP_plus_uconst 56] [$rbp+0]
	cmpl	$2, %eax
	movq	-144(%rbp), %rdx        # 8-byte Reload
	jne	.LBB0_176
.Ltmp129:
# %bb.135:                              # %L.B0009
	#DEBUG_VALUE: perBGrid0 <- [DW_OP_constu 136, DW_OP_minus] [$rbp+0]
	#DEBUG_VALUE: propagateMagneticField:j <- [DW_OP_constu 56, DW_OP_minus] [$rbp+0]
	#DEBUG_VALUE: j <- [DW_OP_constu 56, DW_OP_minus] [$rbp+0]
	#DEBUG_VALUE: propagateMagneticField:i <- [DW_OP_constu 48, DW_OP_minus] [$rbp+0]
	#DEBUG_VALUE: i <- [DW_OP_constu 48, DW_OP_minus] [$rbp+0]
	#DEBUG_VALUE: dz <- $xmm2
	#DEBUG_VALUE: dy <- $xmm0
	#DEBUG_VALUE: dx <- $xmm1
	#DEBUG_VALUE: propagateMagneticField:perBDt2Grid <- [DW_OP_constu 160, DW_OP_minus] [$rbp+0]
	#DEBUG_VALUE: perBDt2Grid <- [DW_OP_constu 160, DW_OP_minus] [$rbp+0]
	#DEBUG_VALUE: propagateMagneticField:EGrid <- [DW_OP_constu 96, DW_OP_minus] [$rbp+0]
	#DEBUG_VALUE: EGrid <- [DW_OP_constu 96, DW_OP_minus] [$rbp+0]
	#DEBUG_VALUE: propagateMagneticField:EDt2Grid <- [DW_OP_constu 144, DW_OP_minus] [$rbp+0]
	#DEBUG_VALUE: EDt2Grid <- [DW_OP_constu 144, DW_OP_minus] [$rbp+0]
	#DEBUG_VALUE: propagateMagneticField:k <- [DW_OP_plus_uconst 16] [$rbp+0]
	#DEBUG_VALUE: k <- [DW_OP_plus_uconst 16] [$rbp+0]
	#DEBUG_VALUE: propagateMagneticField:dt <- [DW_OP_plus_uconst 24] [$rbp+0]
	#DEBUG_VALUE: dt <- [DW_OP_plus_uconst 24] [$rbp+0]
	#DEBUG_VALUE: propagateMagneticField:RKCase <- [DW_OP_plus_uconst 32] [$rbp+0]
	#DEBUG_VALUE: RKCase <- [DW_OP_plus_uconst 32] [$rbp+0]
	#DEBUG_VALUE: propagateMagneticField:doX <- [DW_OP_plus_uconst 40] [$rbp+0]
	#DEBUG_VALUE: doX <- [DW_OP_plus_uconst 40] [$rbp+0]
	#DEBUG_VALUE: propagateMagneticField:doY <- [DW_OP_plus_uconst 48] [$rbp+0]
	#DEBUG_VALUE: doY <- [DW_OP_plus_uconst 48] [$rbp+0]
	#DEBUG_VALUE: propagateMagneticField:doZ <- [DW_OP_plus_uconst 56] [$rbp+0]
	#DEBUG_VALUE: doZ <- [DW_OP_plus_uconst 56] [$rbp+0]
	#DEBUG_VALUE: get: <- [DW_OP_constu 144, DW_OP_minus] [$rbp+0]
	#DEBUG_VALUE:  <- [DW_OP_constu 144, DW_OP_minus] [$rbp+0]
	#DEBUG_VALUE: get:x <- [DW_OP_constu 48, DW_OP_minus] [$rbp+0]
	#DEBUG_VALUE: x <- [DW_OP_constu 48, DW_OP_minus] [$rbp+0]
	#DEBUG_VALUE: get:y <- [DW_OP_constu 56, DW_OP_minus] [$rbp+0]
	#DEBUG_VALUE: y <- [DW_OP_constu 56, DW_OP_minus] [$rbp+0]
	#DEBUG_VALUE: get:z <- [DW_OP_constu 152, DW_OP_minus] [$rbp+0]
	#DEBUG_VALUE: z <- [DW_OP_constu 152, DW_OP_minus] [$rbp+0]
	#DEBUG_VALUE: isInNeighbourDomain <- [DW_OP_constu 80, DW_OP_minus] [$rbp+0]
	#DEBUG_VALUE: coord_shift <- [DW_OP_constu 76, DW_OP_minus, DW_OP_LLVM_fragment 0 32] [$rbp+0]
	#DEBUG_VALUE: coord_shift <- [DW_OP_LLVM_fragment 32 32] 0
	#DEBUG_VALUE: coord_shift <- [DW_OP_LLVM_fragment 64 32] 0
	.file	2 "/home/talgat/libs/fsgrid/fsgrid.hpp"
	.loc	2 186 1                 # /home/talgat/libs/fsgrid/fsgrid.hpp:186:1
	movl	264(%rdx), %eax
.Ltmp130:
	#DEBUG_VALUE: coord_shift <- [DW_OP_constu 72, DW_OP_minus, DW_OP_LLVM_fragment 32 32] [$rbp+0]
	movl	268(%rdx), %esi
	movq	-48(%rbp), %rbx         # 8-byte Reload
	movl	%eax, -60(%rbp)         # 4-byte Spill
	cmpl	%ebx, %eax
	movq	-104(%rbp), %rax        # 8-byte Reload
                                        # kill: def $eax killed $eax killed $rax def $rax
	cmovgl	-80(%rbp), %eax         # 4-byte Folded Reload
	movl	$-1, %r10d
	movl	$-1, %r15d
	cmovgl	-76(%rbp), %r15d        # 4-byte Folded Reload
.Ltmp131:
	#DEBUG_VALUE: coord_shift <- [DW_OP_LLVM_fragment 0 32] $r15d
	#DEBUG_VALUE: isInNeighbourDomain <- $eax
	.loc	2 712 1                 # /home/talgat/libs/fsgrid/fsgrid.hpp:712:1
	leal	-3(%rax), %ecx
.Ltmp132:
	.loc	1 711 1                 # fieldsolver/ldz_magnetic_field.cpp:711:1
	testl	%r14d, %r14d
.Ltmp133:
	.loc	2 711 1 is_stmt 0       # /home/talgat/libs/fsgrid/fsgrid.hpp:711:1
	cmovnsl	%eax, %ecx
.Ltmp134:
	#DEBUG_VALUE: coord_shift <- [DW_OP_LLVM_fragment 64 32] 0
	#DEBUG_VALUE: coord_shift <- [DW_OP_constu 72, DW_OP_minus, DW_OP_LLVM_fragment 32 32] [$rbp+0]
	#DEBUG_VALUE: coord_shift <- [DW_OP_LLVM_fragment 0 32] $r15d
	#DEBUG_VALUE: isInNeighbourDomain <- $ecx
	#DEBUG_VALUE: isInNeighbourDomain <- $eax
	#DEBUG_VALUE: z <- [DW_OP_constu 152, DW_OP_minus] [$rbp+0]
	#DEBUG_VALUE: get:z <- [DW_OP_constu 152, DW_OP_minus] [$rbp+0]
	#DEBUG_VALUE: y <- [DW_OP_constu 56, DW_OP_minus] [$rbp+0]
	#DEBUG_VALUE: get:y <- [DW_OP_constu 56, DW_OP_minus] [$rbp+0]
	#DEBUG_VALUE: x <- [DW_OP_constu 48, DW_OP_minus] [$rbp+0]
	#DEBUG_VALUE: get:x <- [DW_OP_constu 48, DW_OP_minus] [$rbp+0]
	#DEBUG_VALUE:  <- [DW_OP_constu 144, DW_OP_minus] [$rbp+0]
	#DEBUG_VALUE: get: <- [DW_OP_constu 144, DW_OP_minus] [$rbp+0]
	.loc	2 186 1 is_stmt 1       # /home/talgat/libs/fsgrid/fsgrid.hpp:186:1
	leal	3(%rcx), %r8d
	movl	%esi, -64(%rbp)         # 4-byte Spill
	cmpl	%r14d, %esi
	cmovgl	%ecx, %r8d
	movl	$-1, %r12d
	cmovgl	-72(%rbp), %r12d        # 4-byte Folded Reload
.Ltmp135:
	#DEBUG_VALUE: coord_shift <- [DW_OP_constu 68, DW_OP_minus, DW_OP_LLVM_fragment 64 32] [$rbp+0]
	#DEBUG_VALUE: coord_shift <- [DW_OP_LLVM_fragment 32 32] $r12d
	#DEBUG_VALUE: isInNeighbourDomain <- undef
	movl	272(%rdx), %r11d
	movq	%r14, %rdi
	xorl	%r14d, %r14d
	movl	16(%rbp), %eax
.Ltmp136:
	#DEBUG_VALUE: z <- $eax
	#DEBUG_VALUE: get:z <- $eax
	.loc	2 0 1 is_stmt 0         # /home/talgat/libs/fsgrid/fsgrid.hpp:0:1
	movq	%rax, %rsi
.Ltmp137:
	#DEBUG_VALUE: z <- [DW_OP_constu 152, DW_OP_minus] [$rbp+0]
	#DEBUG_VALUE: get:z <- [DW_OP_constu 152, DW_OP_minus] [$rbp+0]
	.loc	2 186 1                 # /home/talgat/libs/fsgrid/fsgrid.hpp:186:1
	cmpl	%esi, %r11d
	setle	%r14b
