	.text
	.file	"linedipole.ll"
	.file	1 "/home/talgat/vlasiator/backgroundfield/linedipole.cpp"
	.weak	_ZN11T3DFunctionD1Ev    # -- Begin function _ZN11T3DFunctionD1Ev
	.p2align	4, 0x90
	.type	_ZN11T3DFunctionD1Ev,@function
_ZN11T3DFunctionD1Ev:                   # @_ZN11T3DFunctionD1Ev
.Lfunc_begin0:
	.file	2 "/home/talgat/vlasiator/backgroundfield/functions.hpp"
	.loc	2 31 0                  # backgroundfield/functions.hpp:31:0
	.cfi_startproc
# %bb.0:                                # %L.entry
	#DEBUG_VALUE: ~T3DFunction: <- $rdi
	#DEBUG_VALUE: ~T3DFunction: <- $rdi
	pushq	%rbp
	.cfi_def_cfa_offset 16
	.cfi_offset %rbp, -16
	movq	%rsp, %rbp
	.cfi_def_cfa_register %rbp
.Ltmp0:
	#DEBUG_VALUE:  <- $rdi
	#DEBUG_VALUE:  <- $rdi
	.loc	2 31 1 prologue_end     # backgroundfield/functions.hpp:31:1
	movq	$_ZTV11T3DFunction+16, (%rdi)
	popq	%rbp
	.cfi_def_cfa %rsp, 8
	retq
.Ltmp1:
.Lfunc_end0:
	.size	_ZN11T3DFunctionD1Ev, .Lfunc_end0-_ZN11T3DFunctionD1Ev
	.cfi_endproc
                                        # -- End function
	.weak	_ZN11T3DFunctionD0Ev    # -- Begin function _ZN11T3DFunctionD0Ev
	.p2align	4, 0x90
	.type	_ZN11T3DFunctionD0Ev,@function
_ZN11T3DFunctionD0Ev:                   # @_ZN11T3DFunctionD0Ev
.Lfunc_begin1:
	.loc	1 0 0                   # backgroundfield/linedipole.cpp:0:0
	.cfi_startproc
# %bb.0:                                # %L.entry
	pushq	%rbp
	.cfi_def_cfa_offset 16
	.cfi_offset %rbp, -16
	movq	%rsp, %rbp
	.cfi_def_cfa_register %rbp
.Ltmp2:
	.loc	1 31 1 prologue_end     # backgroundfield/linedipole.cpp:31:1
	movl	$8, %esi
	popq	%rbp
	.cfi_def_cfa %rsp, 8
	jmp	_ZdlPvm                 # TAILCALL
.Ltmp3:
.Lfunc_end1:
	.size	_ZN11T3DFunctionD0Ev, .Lfunc_end1-_ZN11T3DFunctionD0Ev
	.cfi_endproc
                                        # -- End function
	.weak	_ZN13FieldFunctionD1Ev  # -- Begin function _ZN13FieldFunctionD1Ev
	.p2align	4, 0x90
	.type	_ZN13FieldFunctionD1Ev,@function
_ZN13FieldFunctionD1Ev:                 # @_ZN13FieldFunctionD1Ev
.Lfunc_begin2:
	.file	3 "/home/talgat/vlasiator/backgroundfield/fieldfunction.hpp"
	.loc	3 0 0                   # backgroundfield/fieldfunction.hpp:0:0
	.cfi_startproc
# %bb.0:                                # %L.entry
	#DEBUG_VALUE: ~FieldFunction: <- $rdi
	#DEBUG_VALUE: ~FieldFunction: <- $rdi
	pushq	%rbp
	.cfi_def_cfa_offset 16
	.cfi_offset %rbp, -16
	movq	%rsp, %rbp
	.cfi_def_cfa_register %rbp
.Ltmp4:
	#DEBUG_VALUE:  <- $rdi
	#DEBUG_VALUE:  <- $rdi
	.loc	3 31 1 prologue_end     # backgroundfield/fieldfunction.hpp:31:1
	movq	$_ZTV11T3DFunction+16, (%rdi)
	popq	%rbp
	.cfi_def_cfa %rsp, 8
	retq
.Ltmp5:
.Lfunc_end2:
	.size	_ZN13FieldFunctionD1Ev, .Lfunc_end2-_ZN13FieldFunctionD1Ev
	.cfi_endproc
                                        # -- End function
	.weak	_ZN13FieldFunctionD0Ev  # -- Begin function _ZN13FieldFunctionD0Ev
	.p2align	4, 0x90
	.type	_ZN13FieldFunctionD0Ev,@function
_ZN13FieldFunctionD0Ev:                 # @_ZN13FieldFunctionD0Ev
.Lfunc_begin3:
	.loc	1 0 0                   # backgroundfield/linedipole.cpp:0:0
	.cfi_startproc
# %bb.0:                                # %L.entry
	pushq	%rbp
	.cfi_def_cfa_offset 16
	.cfi_offset %rbp, -16
	movq	%rsp, %rbp
	.cfi_def_cfa_register %rbp
.Ltmp6:
	.loc	1 31 1 prologue_end     # backgroundfield/linedipole.cpp:31:1
	movl	$24, %esi
	popq	%rbp
	.cfi_def_cfa %rsp, 8
	jmp	_ZdlPvm                 # TAILCALL
.Ltmp7:
.Lfunc_end3:
	.size	_ZN13FieldFunctionD0Ev, .Lfunc_end3-_ZN13FieldFunctionD0Ev
	.cfi_endproc
                                        # -- End function
	.globl	_ZN10LineDipole10initializeEdddd # -- Begin function _ZN10LineDipole10initializeEdddd
	.p2align	4, 0x90
	.type	_ZN10LineDipole10initializeEdddd,@function
_ZN10LineDipole10initializeEdddd:       # @_ZN10LineDipole10initializeEdddd
.Lfunc_begin4:
	.loc	1 32 0                  # backgroundfield/linedipole.cpp:32:0
	.cfi_startproc
# %bb.0:                                # %L.entry
	#DEBUG_VALUE: initialize: <- $rdi
	#DEBUG_VALUE: initialize: <- $rdi
	#DEBUG_VALUE: initialize:moment <- $xmm0
	#DEBUG_VALUE: initialize:moment <- $xmm0
	#DEBUG_VALUE: initialize:center_x <- $xmm1
	#DEBUG_VALUE: initialize:center_x <- $xmm1
	#DEBUG_VALUE: initialize:center_y <- $xmm2
	#DEBUG_VALUE: initialize:center_y <- $xmm2
	#DEBUG_VALUE: initialize:center_z <- $xmm3
	#DEBUG_VALUE: initialize:center_z <- $xmm3
	pushq	%rbp
	.cfi_def_cfa_offset 16
	.cfi_offset %rbp, -16
	movq	%rsp, %rbp
	.cfi_def_cfa_register %rbp
.Ltmp8:
	#DEBUG_VALUE:  <- $rdi
	#DEBUG_VALUE:  <- $rdi
	#DEBUG_VALUE: moment <- $xmm0
	#DEBUG_VALUE: moment <- $xmm0
	#DEBUG_VALUE: center_x <- $xmm1
	#DEBUG_VALUE: center_x <- $xmm1
	#DEBUG_VALUE: center_y <- $xmm2
	#DEBUG_VALUE: center_y <- $xmm2
	#DEBUG_VALUE: center_z <- $xmm3
	#DEBUG_VALUE: center_z <- $xmm3
	.loc	1 33 1 prologue_end     # backgroundfield/linedipole.cpp:33:1
	movb	$1, 20(%rdi)
	.loc	1 35 1                  # backgroundfield/linedipole.cpp:35:1
	vxorps	%xmm4, %xmm4, %xmm4
	vmovups	%xmm4, 24(%rdi)
	.loc	1 36 1                  # backgroundfield/linedipole.cpp:36:1
	vmovsd	%xmm0, 40(%rdi)
	.loc	1 37 1                  # backgroundfield/linedipole.cpp:37:1
	vmovsd	%xmm1, 48(%rdi)
	.loc	1 38 1                  # backgroundfield/linedipole.cpp:38:1
	vmovsd	%xmm2, 56(%rdi)
	.loc	1 39 1                  # backgroundfield/linedipole.cpp:39:1
	vmovsd	%xmm3, 64(%rdi)
	.loc	1 40 1                  # backgroundfield/linedipole.cpp:40:1
	popq	%rbp
	.cfi_def_cfa %rsp, 8
	retq
.Ltmp9:
.Lfunc_end4:
	.size	_ZN10LineDipole10initializeEdddd, .Lfunc_end4-_ZN10LineDipole10initializeEdddd
	.cfi_endproc
                                        # -- End function
	.section	.rodata.cst8,"aM",@progbits,8
	.p2align	3               # -- Begin function _ZNK10LineDipole4callEddd
.LCPI5_0:
	.quad	4720717001298091704     # double 40592189.439999998
.LCPI5_2:
	.quad	4613937818241073152     # double 3
	.section	.rodata.cst16,"aM",@progbits,16
	.p2align	4
.LCPI5_1:
	.quad	-9223372036854775808    # double -0
	.quad	-9223372036854775808    # double -0
	.text
	.globl	_ZNK10LineDipole4callEddd
	.p2align	4, 0x90
	.type	_ZNK10LineDipole4callEddd,@function
_ZNK10LineDipole4callEddd:              # @_ZNK10LineDipole4callEddd
.Lfunc_begin5:
	.loc	1 45 0                  # backgroundfield/linedipole.cpp:45:0
	.cfi_startproc
# %bb.0:                                # %L.entry
	#DEBUG_VALUE: call: <- $rdi
	#DEBUG_VALUE: call:x <- $xmm0
	#DEBUG_VALUE: call:z <- $xmm2
	pushq	%rbp
	.cfi_def_cfa_offset 16
	.cfi_offset %rbp, -16
	movq	%rsp, %rbp
	.cfi_def_cfa_register %rbp
.Ltmp10:
	#DEBUG_VALUE:  <- $rdi
	#DEBUG_VALUE: x <- $xmm0
	#DEBUG_VALUE: z <- $xmm2
	vmovapd	%xmm0, %xmm1
.Ltmp11:
	#DEBUG_VALUE: y <- undef
	#DEBUG_VALUE: call:y <- undef
	vxorpd	%xmm0, %xmm0, %xmm0
.Ltmp12:
	#DEBUG_VALUE: z <- $xmm2
	#DEBUG_VALUE: call:z <- $xmm2
	#DEBUG_VALUE: x <- $xmm1
	#DEBUG_VALUE: call:x <- $xmm1
	#DEBUG_VALUE:  <- $rdi
	#DEBUG_VALUE: call: <- $rdi
	.loc	1 47 1 prologue_end     # backgroundfield/linedipole.cpp:47:1
	cmpb	$0, 20(%rdi)
	je	.LBB5_13
.Ltmp13:
# %bb.1:                                # %L.B0000
	#DEBUG_VALUE: call:x <- $xmm1
	#DEBUG_VALUE: x <- $xmm1
	#DEBUG_VALUE: z <- $xmm2
	#DEBUG_VALUE:  <- $rdi
	#DEBUG_VALUE: call:z <- $xmm2
	#DEBUG_VALUE: call: <- $rdi
	.loc	1 51 1                  # backgroundfield/linedipole.cpp:51:1
	vsubsd	48(%rdi), %xmm1, %xmm3
.Ltmp14:
	#DEBUG_VALUE: r <- [DW_OP_LLVM_fragment 64 64] undef
	#DEBUG_VALUE: r <- [DW_OP_LLVM_fragment 0 64] $xmm3
	.loc	1 53 1                  # backgroundfield/linedipole.cpp:53:1
	vsubsd	64(%rdi), %xmm2, %xmm1
.Ltmp15:
	#DEBUG_VALUE: r <- [DW_OP_LLVM_fragment 128 64] $xmm1
	.loc	1 55 1                  # backgroundfield/linedipole.cpp:55:1
	vmulsd	%xmm3, %xmm3, %xmm5
	vmovapd	%xmm1, %xmm6
	vfmadd213sd	%xmm5, %xmm1, %xmm6 # xmm6 = (xmm1 * xmm6) + xmm5
.Ltmp16:
	#DEBUG_VALUE: r2 <- $xmm6
	.loc	1 0 1 is_stmt 0         # backgroundfield/linedipole.cpp:0:1
	vmovsd	.LCPI5_0(%rip), %xmm2   # xmm2 = mem[0],zero
.Ltmp17:
	.loc	1 57 1 is_stmt 1        # backgroundfield/linedipole.cpp:57:1
	vucomisd	%xmm6, %xmm2
	ja	.LBB5_13
.Ltmp18:
# %bb.2:                                # %L.B0001
	#DEBUG_VALUE: r2 <- $xmm6
	#DEBUG_VALUE: r <- [DW_OP_LLVM_fragment 128 64] $xmm1
	#DEBUG_VALUE: r <- [DW_OP_LLVM_fragment 0 64] $xmm3
	#DEBUG_VALUE:  <- $rdi
	#DEBUG_VALUE: call: <- $rdi
	.loc	1 61 1                  # backgroundfield/linedipole.cpp:61:1
	vmulsd	%xmm6, %xmm6, %xmm4
.Ltmp19:
	#DEBUG_VALUE: r6 <- undef
	.loc	1 63 1                  # backgroundfield/linedipole.cpp:63:1
	vmovsd	40(%rdi), %xmm7         # xmm7 = mem[0],zero
	vxorpd	.LCPI5_1(%rip), %xmm7, %xmm2
.Ltmp20:
	#DEBUG_VALUE: DerivativeDiffComponent <- undef
	#DEBUG_VALUE: DerivativeSameComponent <- undef
	#DEBUG_VALUE: D <- $xmm2
	.loc	1 70 1                  # backgroundfield/linedipole.cpp:70:1
	movl	16(%rdi), %eax
	cmpl	$1, %eax
	je	.LBB5_9
.Ltmp21:
# %bb.3:                                # %L.B0001
	#DEBUG_VALUE: D <- $xmm2
	#DEBUG_VALUE: r2 <- $xmm6
	#DEBUG_VALUE: r <- [DW_OP_LLVM_fragment 128 64] $xmm1
	#DEBUG_VALUE: r <- [DW_OP_LLVM_fragment 0 64] $xmm3
	#DEBUG_VALUE:  <- $rdi
	#DEBUG_VALUE: call: <- $rdi
	#DEBUG_VALUE: D <- $xmm2
	testl	%eax, %eax
	jne	.LBB5_13
.Ltmp22:
# %bb.4:                                # %L.B0047
	#DEBUG_VALUE: D <- $xmm2
	#DEBUG_VALUE: r2 <- $xmm6
	#DEBUG_VALUE: r <- [DW_OP_LLVM_fragment 128 64] $xmm1
	#DEBUG_VALUE: r <- [DW_OP_LLVM_fragment 0 64] $xmm3
	#DEBUG_VALUE:  <- $rdi
	#DEBUG_VALUE: call: <- $rdi
	#DEBUG_VALUE: D <- $xmm2
	.loc	1 71 1                  # backgroundfield/linedipole.cpp:71:1
	movl	8(%rdi), %eax
	cmpl	$2, %eax
	je	.LBB5_7
.Ltmp23:
# %bb.5:                                # %L.B0047
	#DEBUG_VALUE: D <- $xmm2
	#DEBUG_VALUE: r2 <- $xmm6
	#DEBUG_VALUE: r <- [DW_OP_LLVM_fragment 128 64] $xmm1
	#DEBUG_VALUE: r <- [DW_OP_LLVM_fragment 0 64] $xmm3
	#DEBUG_VALUE:  <- $rdi
	#DEBUG_VALUE: call: <- $rdi
	testl	%eax, %eax
	jne	.LBB5_13
.Ltmp24:
# %bb.6:                                # %L.B0048
	#DEBUG_VALUE: D <- $xmm2
	#DEBUG_VALUE: r2 <- $xmm6
	#DEBUG_VALUE: r <- [DW_OP_LLVM_fragment 128 64] $xmm1
	#DEBUG_VALUE: r <- [DW_OP_LLVM_fragment 0 64] $xmm3
	#DEBUG_VALUE:  <- $rdi
	#DEBUG_VALUE: call: <- $rdi
	.loc	1 72 1                  # backgroundfield/linedipole.cpp:72:1
	vsubsd	%xmm7, %xmm2, %xmm0
	vmulsd	%xmm0, %xmm3, %xmm0
	vmulsd	%xmm0, %xmm1, %xmm0
	jmp	.LBB5_8
.Ltmp25:
.LBB5_9:                                # %L.B0054
	#DEBUG_VALUE: D <- $xmm2
	#DEBUG_VALUE: r2 <- $xmm6
	#DEBUG_VALUE: r <- [DW_OP_LLVM_fragment 128 64] $xmm1
	#DEBUG_VALUE: r <- [DW_OP_LLVM_fragment 0 64] $xmm3
	#DEBUG_VALUE:  <- $rdi
	#DEBUG_VALUE: call: <- $rdi
	#DEBUG_VALUE: r6 <- undef
	#DEBUG_VALUE: DerivativeSameComponent <- undef
	#DEBUG_VALUE: DerivativeDiffComponent <- undef
	.loc	1 80 1                  # backgroundfield/linedipole.cpp:80:1
	movl	12(%rdi), %eax
	cmpl	$1, %eax
	je	.LBB5_13
.Ltmp26:
# %bb.10:                               # %L.B0055
	#DEBUG_VALUE: D <- $xmm2
	#DEBUG_VALUE: r2 <- $xmm6
	#DEBUG_VALUE: r <- [DW_OP_LLVM_fragment 128 64] $xmm1
	#DEBUG_VALUE: r <- [DW_OP_LLVM_fragment 0 64] $xmm3
	#DEBUG_VALUE:  <- $rdi
	#DEBUG_VALUE: call: <- $rdi
	#DEBUG_VALUE: r6 <- undef
	#DEBUG_VALUE: DerivativeSameComponent <- undef
	#DEBUG_VALUE: DerivativeDiffComponent <- undef
	movl	8(%rdi), %ecx
	cmpl	$1, %ecx
	je	.LBB5_13
.Ltmp27:
# %bb.11:                               # %L.B0008
	#DEBUG_VALUE: D <- $xmm2
	#DEBUG_VALUE: r2 <- $xmm6
	#DEBUG_VALUE: r <- [DW_OP_LLVM_fragment 128 64] $xmm1
	#DEBUG_VALUE: r <- [DW_OP_LLVM_fragment 0 64] $xmm3
	#DEBUG_VALUE:  <- $rdi
	#DEBUG_VALUE: call: <- $rdi
	.loc	1 0 1 is_stmt 0         # backgroundfield/linedipole.cpp:0:1
	vmulsd	%xmm4, %xmm6, %xmm4
.Ltmp28:
	#DEBUG_VALUE: r6 <- $xmm4
	vmovsd	.LCPI5_2(%rip), %xmm5   # xmm5 = mem[0],zero
.Ltmp29:
	#DEBUG_VALUE: DerivativeDiffComponent <- undef
	#DEBUG_VALUE: DerivativeSameComponent <- undef
	.loc	1 83 1 is_stmt 1        # backgroundfield/linedipole.cpp:83:1
	cmpl	%ecx, %eax
	jne	.LBB5_12
.Ltmp30:
# %bb.14:                               # %L.B0057
	#DEBUG_VALUE: r6 <- $xmm4
	#DEBUG_VALUE: D <- $xmm2
	#DEBUG_VALUE: r2 <- $xmm6
	#DEBUG_VALUE: r <- [DW_OP_LLVM_fragment 128 64] $xmm1
	#DEBUG_VALUE: r <- [DW_OP_LLVM_fragment 0 64] $xmm3
	#DEBUG_VALUE:  <- $rdi
	#DEBUG_VALUE: call: <- $rdi
	.loc	1 0 0 is_stmt 0         # backgroundfield/linedipole.cpp:0:0
	vmulsd	%xmm5, %xmm3, %xmm5
	vmulsd	%xmm5, %xmm3, %xmm3
.Ltmp31:
	vfmsub231sd	%xmm1, %xmm1, %xmm3 # xmm3 = (xmm1 * xmm1) - xmm3
	vaddsd	%xmm1, %xmm1, %xmm1
.Ltmp32:
	vmulsd	%xmm3, %xmm1, %xmm1
	vmulsd	%xmm2, %xmm1, %xmm1
	vdivsd	%xmm4, %xmm1, %xmm1
.Ltmp33:
	#DEBUG_VALUE: DerivativeSameComponent <- $xmm1
	.loc	1 84 1 is_stmt 1        # backgroundfield/linedipole.cpp:84:1
	testl	%eax, %eax
	je	.LBB5_15
.Ltmp34:
# %bb.16:                               # %L.B0057
	#DEBUG_VALUE: DerivativeSameComponent <- $xmm1
	#DEBUG_VALUE: r6 <- $xmm4
	#DEBUG_VALUE: D <- $xmm2
	#DEBUG_VALUE: r2 <- $xmm6
	#DEBUG_VALUE:  <- $rdi
	#DEBUG_VALUE: call: <- $rdi
	cmpl	$2, %eax
	jne	.LBB5_13
.Ltmp35:
# %bb.17:                               # %L.B0060
	#DEBUG_VALUE: DerivativeSameComponent <- $xmm1
	#DEBUG_VALUE: r6 <- $xmm4
	#DEBUG_VALUE: D <- $xmm2
	#DEBUG_VALUE: r2 <- $xmm6
	#DEBUG_VALUE:  <- $rdi
	#DEBUG_VALUE: call: <- $rdi
	.loc	1 88 1                  # backgroundfield/linedipole.cpp:88:1
	vxorpd	.LCPI5_1(%rip), %xmm1, %xmm0
	popq	%rbp
	.cfi_def_cfa %rsp, 8
	retq
.Ltmp36:
.LBB5_7:                                # %L.B0050
	.cfi_def_cfa %rbp, 16
	#DEBUG_VALUE: D <- $xmm2
	#DEBUG_VALUE: r2 <- $xmm6
	#DEBUG_VALUE: r <- [DW_OP_LLVM_fragment 128 64] $xmm1
	#DEBUG_VALUE: r <- [DW_OP_LLVM_fragment 0 64] $xmm3
	#DEBUG_VALUE:  <- $rdi
	#DEBUG_VALUE: call: <- $rdi
	.loc	1 74 1                  # backgroundfield/linedipole.cpp:74:1
	vfmsub213sd	%xmm5, %xmm1, %xmm1 # xmm1 = (xmm1 * xmm1) - xmm5
.Ltmp37:
	vmulsd	%xmm2, %xmm1, %xmm0
.Ltmp38:
.LBB5_8:                                # %L.B0050
	#DEBUG_VALUE: D <- $xmm2
	#DEBUG_VALUE: r2 <- $xmm6
	#DEBUG_VALUE: r <- [DW_OP_LLVM_fragment 0 64] $xmm3
	#DEBUG_VALUE:  <- $rdi
	#DEBUG_VALUE: call: <- $rdi
	.loc	1 0 0 is_stmt 0         # backgroundfield/linedipole.cpp:0:0
	vdivsd	%xmm4, %xmm0, %xmm0
	popq	%rbp
	.cfi_def_cfa %rsp, 8
	retq
.Ltmp39:
.LBB5_12:
	.cfi_def_cfa %rbp, 16
	#DEBUG_VALUE: r6 <- $xmm4
	#DEBUG_VALUE: D <- $xmm2
	#DEBUG_VALUE: r2 <- $xmm6
	#DEBUG_VALUE: r <- [DW_OP_LLVM_fragment 128 64] $xmm1
	#DEBUG_VALUE: r <- [DW_OP_LLVM_fragment 0 64] $xmm3
	#DEBUG_VALUE:  <- $rdi
	#DEBUG_VALUE: call: <- $rdi
	vmulsd	%xmm5, %xmm1, %xmm0
	vmulsd	%xmm0, %xmm1, %xmm0
	vfmsub231sd	%xmm3, %xmm3, %xmm0 # xmm0 = (xmm3 * xmm3) - xmm0
	vaddsd	%xmm3, %xmm3, %xmm1
.Ltmp40:
	vmulsd	%xmm0, %xmm1, %xmm0
	vmulsd	%xmm2, %xmm0, %xmm0
	vdivsd	%xmm4, %xmm0, %xmm0
.Ltmp41:
	#DEBUG_VALUE: DerivativeDiffComponent <- $xmm0
.LBB5_13:                               # %L.B0043
	#DEBUG_VALUE:  <- $rdi
	#DEBUG_VALUE: call: <- $rdi
	.loc	1 48 1 is_stmt 1        # backgroundfield/linedipole.cpp:48:1
	popq	%rbp
	.cfi_def_cfa %rsp, 8
	retq
.Ltmp42:
.LBB5_15:
	.cfi_def_cfa %rbp, 16
	#DEBUG_VALUE: DerivativeSameComponent <- $xmm1
	#DEBUG_VALUE: r6 <- $xmm4
	#DEBUG_VALUE: D <- $xmm2
	#DEBUG_VALUE: r2 <- $xmm6
	#DEBUG_VALUE:  <- $rdi
	#DEBUG_VALUE: call: <- $rdi
	.loc	1 0 1 is_stmt 0         # backgroundfield/linedipole.cpp:0:1
	vmovapd	%xmm1, %xmm0
	.loc	1 48 1                  # backgroundfield/linedipole.cpp:48:1
	popq	%rbp
	.cfi_def_cfa %rsp, 8
	retq
.Ltmp43:
.Lfunc_end5:
	.size	_ZNK10LineDipole4callEddd, .Lfunc_end5-_ZNK10LineDipole4callEddd
	.cfi_endproc
                                        # -- End function
	.weak	_ZN10LineDipoleD1Ev     # -- Begin function _ZN10LineDipoleD1Ev
	.p2align	4, 0x90
	.type	_ZN10LineDipoleD1Ev,@function
_ZN10LineDipoleD1Ev:                    # @_ZN10LineDipoleD1Ev
.Lfunc_begin6:
	.file	4 "/home/talgat/vlasiator/backgroundfield/linedipole.hpp"
	.loc	4 47 0 is_stmt 1        # backgroundfield/linedipole.hpp:47:0
	.cfi_startproc
# %bb.0:                                # %L.entry
	#DEBUG_VALUE: ~LineDipole: <- $rdi
	#DEBUG_VALUE: ~LineDipole: <- $rdi
	pushq	%rbp
	.cfi_def_cfa_offset 16
	.cfi_offset %rbp, -16
	movq	%rsp, %rbp
	.cfi_def_cfa_register %rbp
.Ltmp44:
	#DEBUG_VALUE:  <- $rdi
	#DEBUG_VALUE:  <- $rdi
	.loc	4 47 1 prologue_end     # backgroundfield/linedipole.hpp:47:1
	movq	$_ZTV11T3DFunction+16, (%rdi)
	popq	%rbp
	.cfi_def_cfa %rsp, 8
	retq
.Ltmp45:
.Lfunc_end6:
	.size	_ZN10LineDipoleD1Ev, .Lfunc_end6-_ZN10LineDipoleD1Ev
	.cfi_endproc
                                        # -- End function
	.weak	_ZN10LineDipoleD0Ev     # -- Begin function _ZN10LineDipoleD0Ev
	.p2align	4, 0x90
	.type	_ZN10LineDipoleD0Ev,@function
_ZN10LineDipoleD0Ev:                    # @_ZN10LineDipoleD0Ev
.Lfunc_begin7:
	.loc	1 0 0                   # backgroundfield/linedipole.cpp:0:0
	.cfi_startproc
# %bb.0:                                # %L.entry
	pushq	%rbp
	.cfi_def_cfa_offset 16
	.cfi_offset %rbp, -16
	movq	%rsp, %rbp
	.cfi_def_cfa_register %rbp
.Ltmp46:
	.loc	1 47 1 prologue_end     # backgroundfield/linedipole.cpp:47:1
	movl	$72, %esi
	popq	%rbp
	.cfi_def_cfa %rsp, 8
	jmp	_ZdlPvm                 # TAILCALL
.Ltmp47:
.Lfunc_end7:
	.size	_ZN10LineDipoleD0Ev, .Lfunc_end7-_ZN10LineDipoleD0Ev
	.cfi_endproc
                                        # -- End function
	.globl	__sti___30_backgroundfield_linedipole_cpp_4a71163a # -- Begin function __sti___30_backgroundfield_linedipole_cpp_4a71163a
	.p2align	4, 0x90
	.type	__sti___30_backgroundfield_linedipole_cpp_4a71163a,@function
__sti___30_backgroundfield_linedipole_cpp_4a71163a: # @__sti___30_backgroundfield_linedipole_cpp_4a71163a
.Lfunc_begin8:
	.loc	1 0 0                   # backgroundfield/linedipole.cpp:0:0
	.cfi_startproc
# %bb.0:                                # %L.entry
	pushq	%rbp
	.cfi_def_cfa_offset 16
	.cfi_offset %rbp, -16
	movq	%rsp, %rbp
	.cfi_def_cfa_register %rbp
.Ltmp48:
	.loc	1 74 1 prologue_end     # backgroundfield/linedipole.cpp:74:1
	cmpl	$1, __I___30_backgroundfield_linedipole_cpp_4a71163a(%rip)
	jne	.LBB8_2
# %bb.1:                                # %L.B0016
	popq	%rbp
	.cfi_def_cfa %rsp, 8
	retq
.LBB8_2:                                # %L.B0069
	.cfi_def_cfa %rbp, 16
	movl	$1, __I___30_backgroundfield_linedipole_cpp_4a71163a(%rip)
	movl	$_ZN52_INTERNAL_30_backgroundfield_linedipole_cpp_4a71163aSt8__ioinitE, %edi
	callq	_ZNSt8ios_base4InitC1Ev
	movl	$_ZNSt8ios_base4InitD1Ev, %edi
	movl	$_ZN52_INTERNAL_30_backgroundfield_linedipole_cpp_4a71163aSt8__ioinitE, %esi
	movl	$__dso_handle, %edx
	popq	%rbp
	.cfi_def_cfa %rsp, 8
	jmp	__cxa_atexit            # TAILCALL
.Ltmp49:
.Lfunc_end8:
	.size	__sti___30_backgroundfield_linedipole_cpp_4a71163a, .Lfunc_end8-__sti___30_backgroundfield_linedipole_cpp_4a71163a
	.cfi_endproc
                                        # -- End function
	.type	_ZTV11T3DFunction,@object # @_ZTV11T3DFunction
	.data
	.weak	_ZTV11T3DFunction
	.p2align	4
_ZTV11T3DFunction:
	.quad	0
	.quad	_ZTI11T3DFunction
	.quad	__cxa_pure_virtual
	.quad	_ZN11T3DFunctionD1Ev
	.quad	_ZN11T3DFunctionD0Ev
	.size	_ZTV11T3DFunction, 40

	.type	_ZTV13FieldFunction,@object # @_ZTV13FieldFunction
	.weak	_ZTV13FieldFunction
	.p2align	4
_ZTV13FieldFunction:
	.quad	0
	.quad	_ZTI13FieldFunction
	.quad	__cxa_pure_virtual
	.quad	_ZN13FieldFunctionD1Ev
	.quad	_ZN13FieldFunctionD0Ev
	.size	_ZTV13FieldFunction, 40

	.type	_ZTV10LineDipole,@object # @_ZTV10LineDipole
	.weak	_ZTV10LineDipole
	.p2align	4
_ZTV10LineDipole:
	.quad	0
	.quad	_ZTI10LineDipole
	.quad	_ZNK10LineDipole4callEddd
	.quad	_ZN10LineDipoleD1Ev
	.quad	_ZN10LineDipoleD0Ev
	.size	_ZTV10LineDipole, 40

	.type	_ZTI11T3DFunction,@object # @_ZTI11T3DFunction
	.weak	_ZTI11T3DFunction
	.p2align	4
_ZTI11T3DFunction:
	.quad	_ZTVN10__cxxabiv117__class_type_infoE+16
	.quad	_ZTS11T3DFunction
	.size	_ZTI11T3DFunction, 16

	.type	_ZTI13FieldFunction,@object # @_ZTI13FieldFunction
	.weak	_ZTI13FieldFunction
	.p2align	4
_ZTI13FieldFunction:
	.quad	_ZTVN10__cxxabiv120__si_class_type_infoE+16
	.quad	_ZTS13FieldFunction
	.quad	_ZTI11T3DFunction
	.size	_ZTI13FieldFunction, 24

	.type	_ZTI10LineDipole,@object # @_ZTI10LineDipole
	.weak	_ZTI10LineDipole
	.p2align	4
_ZTI10LineDipole:
	.quad	_ZTVN10__cxxabiv120__si_class_type_infoE+16
	.quad	_ZTS10LineDipole
	.quad	_ZTI13FieldFunction
	.size	_ZTI10LineDipole, 24

	.type	_ZTS11T3DFunction,@object # @_ZTS11T3DFunction
	.weak	_ZTS11T3DFunction
	.p2align	3
_ZTS11T3DFunction:
	.asciz	"11T3DFunction"
	.size	_ZTS11T3DFunction, 14

	.type	_ZTS13FieldFunction,@object # @_ZTS13FieldFunction
	.weak	_ZTS13FieldFunction
	.p2align	4
_ZTS13FieldFunction:
	.asciz	"13FieldFunction"
	.size	_ZTS13FieldFunction, 16

	.type	_ZTS10LineDipole,@object # @_ZTS10LineDipole
	.weak	_ZTS10LineDipole
	.p2align	3
_ZTS10LineDipole:
	.asciz	"10LineDipole"
	.size	_ZTS10LineDipole, 13

	.type	__I___30_backgroundfield_linedipole_cpp_4a71163a,@object # @__I___30_backgroundfield_linedipole_cpp_4a71163a
	.bss
	.globl	__I___30_backgroundfield_linedipole_cpp_4a71163a
	.p2align	2
__I___30_backgroundfield_linedipole_cpp_4a71163a:
	.long	0                       # 0x0
	.size	__I___30_backgroundfield_linedipole_cpp_4a71163a, 4

	.type	_ZN52_INTERNAL_30_backgroundfield_linedipole_cpp_4a71163aSt8__ioinitE,@object # @_ZN52_INTERNAL_30_backgroundfield_linedipole_cpp_4a71163aSt8__ioinitE
	.local	_ZN52_INTERNAL_30_backgroundfield_linedipole_cpp_4a71163aSt8__ioinitE
	.comm	_ZN52_INTERNAL_30_backgroundfield_linedipole_cpp_4a71163aSt8__ioinitE,1,1
	.section	.init_array,"aw",@init_array
	.p2align	3
	.quad	__sti___30_backgroundfield_linedipole_cpp_4a71163a
	.section	".note.GNU-stack","",@progbits