; ModuleID = 'logger.cpp'
target datalayout = "e-p:64:64-i64:64-f80:128-n8:16:32:64-S128"
target triple = "x86_64-pc-linux-gnu"
define internal void @pgCplus_compiled.() noinline {
L.entry:
	ret void
}

%struct.__pthread_mutex_s = type <{ i32, i32, i32, i32, i32, i16, i16, %struct.__pthread_internal_list}> 
%struct._ZNSt7__cxx1115basic_stringbufIcSt11char_traitsIcESaIcEEE = type <{ %struct._ZSt15basic_streambufIcSt11char_traitsIcEE, i32, [4 x i8], %struct._ZNSt7__cxx1112basic_stringIcSt11char_traitsIcESaIcEEE}> 
%struct.__SO__Si = type <{ i32 (...)* (...)*, i64}> 
%struct._ZNSt6locale5_ImplE = type <{ i32, [4 x i8], %struct._ZNSt6locale5facetE**, i64, %struct._ZNSt6locale5facetE**, i8**}> 
%struct._ZNSt7__cxx1112basic_stringIcSt11char_traitsIcESaIcEE12_Alloc_hiderE = type <{ i8*}> 
%struct._IO_codecvt = type opaque
%struct._IO_wide_data = type opaque
%struct._ZSt13basic_fstreamIcSt11char_traitsIcEE = type <{ %struct.__SO__Sd, %struct._ZSt13basic_filebufIcSt11char_traitsIcEE, %struct._ZSt9basic_iosIcSt11char_traitsIcEE}> 
%struct._ZNSt6locale5facetE = type <{ i32 (...)* (...)*, i32, [4 x i8]}> 
%struct.__locale_data = type opaque
%struct.__SO__NSt6locale5facetE = type <{ i32 (...)* (...)*, i32}> 
%struct._ZSt15basic_streambufIcSt11char_traitsIcEE = type <{ i32 (...)* (...)*, i8*, i8*, i8*, i8*, i8*, i8*, %struct._ZSt6locale}> 
%struct.__locale_struct = type <{ [13 x %struct.__locale_data*], i16*, i32*, i32*, [13 x i8*]}> 
%struct._ZNSt7__cxx1118basic_stringstreamIcSt11char_traitsIcESaIcEEE = type <{ %struct.__SO__Sd, %struct._ZNSt7__cxx1115basic_stringbufIcSt11char_traitsIcESaIcEEE, %struct._ZSt9basic_iosIcSt11char_traitsIcEE}> 
%struct._ZSt6locale = type <{ %struct._ZNSt6locale5_ImplE*}> 
%union._ZN11__mbstate_tUt_E = type <{ i32}> 
%struct._ZSo = type <{ i32 (...)* (...)*, %struct._ZSt9basic_iosIcSt11char_traitsIcEE}> 
%struct.__SO__Sd = type <{ %struct.__SO__Si, %struct.__SO__So}> 
%struct._ZSt9basic_iosIcSt11char_traitsIcEE = type <{ %struct._ZSt8ios_base, %struct._ZSo*, i8, i8, [6 x i8], %struct._ZSt15basic_streambufIcSt11char_traitsIcEE*, %struct._ZSt5ctypeIcE*, %struct._ZSt7num_putIcSt19ostreambuf_iteratorIcSt11char_traitsIcEEE*, %struct._ZSt7num_getIcSt19istreambuf_iteratorIcSt11char_traitsIcEEE*}> 
%struct.__mbstate_t = type <{ i32, %union._ZN11__mbstate_tUt_E}> 
%struct._ZNSt7__cxx1112basic_stringIcSt11char_traitsIcESaIcEEE = type <{ %struct._ZNSt7__cxx1112basic_stringIcSt11char_traitsIcESaIcEE12_Alloc_hiderE, i64, %union.__C5}> 
%struct.__SO__So = type <{ i32 (...)* (...)*}> 
%struct._ZSt7num_getIcSt19istreambuf_iteratorIcSt11char_traitsIcEEE = type <{ %struct.__SO__NSt6locale5facetE, [4 x i8]}> 
%union.__C5 = type <{ [16 x i8]}> 
%struct.__SO__St23__codecvt_abstract_baseIcc11__mbstate_tE = type <{ %struct.__SO__NSt6locale5facetE}> 
%union.pthread_mutex_t = type <{ %struct.__pthread_mutex_s}> 
%struct._ZSt5ctypeIcE = type <{ %struct.__SO__NSt6locale5facetE, [4 x i8], %struct.__locale_struct*, i8, [7 x i8], i32*, i32*, i16*, i8, [256 x i8], [256 x i8], i8, [6 x i8]}> 
%struct.__pthread_internal_list = type <{ %struct.__pthread_internal_list*, %struct.__pthread_internal_list*}> 
%struct._ZSt7codecvtIcc11__mbstate_tE = type <{ %struct.__SO__St23__codecvt_abstract_baseIcc11__mbstate_tE, [4 x i8], %struct.__locale_struct*}> 
%struct._ZSt13basic_filebufIcSt11char_traitsIcEE = type <{ %struct._ZSt15basic_streambufIcSt11char_traitsIcEE, %union.pthread_mutex_t, %struct._ZSt12__basic_fileIcE, i32, %struct.__mbstate_t, %struct.__mbstate_t, %struct.__mbstate_t, [4 x i8], i8*, i64, i8, i8, i8, i8, [4 x i8], i8*, i8*, i8, [7 x i8], %struct._ZSt7codecvtIcc11__mbstate_tE*, i8*, i64, i8*, i8*}> 
%struct._IO_FILE = type <{ i32, [4 x i8], i8*, i8*, i8*, i8*, i8*, i8*, i8*, i8*, i8*, i8*, i8*, %struct._IO_marker*, %struct._IO_FILE*, i32, i32, i64, i16, i8, [1 x i8], [4 x i8], i8*, i64, %struct._IO_codecvt*, %struct._IO_wide_data*, %struct._IO_FILE*, i8*, i64, i32, [20 x i8]}> 
%struct._ZSt8ios_base = type <{ i32 (...)* (...)*, i64, i64, i32, i32, i32, [4 x i8], %struct._ZNSt8ios_base14_Callback_listE*, %struct._ZNSt8ios_base6_WordsE, [8 x %struct._ZNSt8ios_base6_WordsE], i32, [4 x i8], %struct._ZNSt8ios_base6_WordsE*, %struct._ZSt6locale}> 
%struct._ZSt12__basic_fileIcE = type <{ %struct._IO_FILE*, i8, [7 x i8]}> 
%struct._IO_marker = type opaque
%struct._ZNSt8ios_base6_WordsE = type <{ i8*, i64}> 
%struct.Logger = type <{ i8, [3 x i8], i32, i32, [4 x i8], %struct._ZNSt7__cxx1118basic_stringstreamIcSt11char_traitsIcESaIcEEE, %struct._ZSt13basic_fstreamIcSt11char_traitsIcEE*}> 
%struct._ZSt7num_putIcSt19ostreambuf_iteratorIcSt11char_traitsIcEEE = type <{ %struct.__SO__NSt6locale5facetE, [4 x i8]}> 
%struct._ZNSt8ios_base14_Callback_listE = type <{ %struct._ZNSt8ios_base14_Callback_listE*, void (i32, %struct._ZSt8ios_base*, i32)*, i32, i32}> 



define %struct.Logger* @_Z12writeVerboseR6Logger(%struct.Logger* %logger.arg) #0 !dbg !2055 {
L.entry:
	%logger.addr = alloca %struct.Logger*, align 8
	%.Q0000.addr = alloca i32, align 4
	%..inline.addr = alloca %struct._ZSt9basic_iosIcSt11char_traitsIcEE*, align 8
	%..inline.addr.1 = alloca %struct._ZSt9basic_iosIcSt11char_traitsIcEE*, align 8
	%..inline.addr.2 = alloca i32, align 4
	%..inline.addr.3 = alloca i64, align 8
	%.Q0001.addr = alloca %struct._ZSo*, align 8
	%.Q0002.addr = alloca %struct._ZSo*, align 8

	call void @llvm.dbg.declare (metadata %struct.Logger** %logger.addr, metadata !2083, metadata !2084), !dbg !2056
	store %struct.Logger* %logger.arg, %struct.Logger** %logger.addr, align 8, !tbaa !2097
	call void @llvm.dbg.declare (metadata %struct.Logger** %logger.addr, metadata !2085, metadata !2084), !dbg !2056
	%0 = load %struct.Logger*, %struct.Logger** %logger.addr, align 8, !tbaa !2097, !dbg !2086
	%1 = call i8  @_ZN6Logger5flushEb (%struct.Logger*  %0, i8 1), !dbg !2086
	%2 = sext i8  %1 to i32, !dbg !2086
	%3 = icmp ne i32  %2, 0, !dbg !2086
	br i1  %3, label %L.B0000, label %L.B1053, !dbg !2086
L.B1053:
	%4 = bitcast [24 x i8]* @.S10729 to i8*, !dbg !2087
	%5 = icmp ne i8*  %4,  null, !dbg !2087
	br i1  %5, label %L..inline.22536, label %L.B1054, !dbg !2087
L.B1054:
	%6 = bitcast %struct._ZSo* @_ZSt4cerr to i8*, !dbg !2088
	%7 = bitcast %struct._ZSo* @_ZSt4cerr to i8**, !dbg !2088
	%8 = load i8*, i8**  %7, align 8, !tbaa !2097, !dbg !2088
	%9 = getelementptr i8, i8*  %8, i64 18446744073709551592, !dbg !2088
	%10 = bitcast i8*  %9 to i64*, !dbg !2088
	%11 = load i64, i64*  %10, align 8, !tbaa !2098, !dbg !2088
	%12 = getelementptr i8, i8*  %6, i64  %11, !dbg !2088
	%13 = bitcast %struct._ZSt9basic_iosIcSt11char_traitsIcEE** %..inline.addr to i8**, !dbg !2088
	store i8*  %12, i8**  %13, align 8, !tbaa !2097, !dbg !2088
	%14 = load %struct._ZSt9basic_iosIcSt11char_traitsIcEE*, %struct._ZSt9basic_iosIcSt11char_traitsIcEE** %..inline.addr, align 8, !tbaa !2097, !dbg !2088
	%15 = bitcast %struct._ZSt9basic_iosIcSt11char_traitsIcEE*  %14 to i8*, !dbg !2088
	%16 = bitcast %struct._ZSt9basic_iosIcSt11char_traitsIcEE** %..inline.addr.1 to i8**, !dbg !2088
	store i8*  %15, i8**  %16, align 8, !tbaa !2097, !dbg !2088
	%17 = load %struct._ZSt9basic_iosIcSt11char_traitsIcEE*, %struct._ZSt9basic_iosIcSt11char_traitsIcEE** %..inline.addr.1, align 8, !tbaa !2097, !dbg !2088
	%18 = bitcast %struct._ZSt9basic_iosIcSt11char_traitsIcEE*  %17 to i8*, !dbg !2088
	%19 = getelementptr i8, i8*  %18, i64 32, !dbg !2088
	%20 = bitcast i8*  %19 to i32*, !dbg !2088
	%21 = load i32, i32*  %20, align 4, !tbaa !2098, !dbg !2088
	%22 = or i32  %21, 1, !dbg !2088
	call void  @_ZNSt9basic_iosIcSt11char_traitsIcEE5clearESt12_Ios_Iostate (%struct._ZSt9basic_iosIcSt11char_traitsIcEE*  %14, i32  %22), !dbg !2088
	br label %L..inline.22557, !dbg !2088
L..inline.22536:
	%23 = bitcast [24 x i8]* @.S10729 to i8*, !dbg !2091
	%24 = call i64  @strlen (i8*  %23) nounwind, !dbg !2091
	%25 = call %struct._ZSo*  @_ZSt16__ostream_insertIcSt11char_traitsIcEERSt13basic_ostreamIT_T0_ES6_PKS3_l (%struct._ZSo* @_ZSt4cerr, i8*  %23, i64  %24), !dbg !2091
	%26 = bitcast %struct._ZSo*  %25 to i8*, !dbg !2091
	%27 = bitcast %struct._ZSo** %.Q0001.addr to i8**, !dbg !2091
	store i8*  %26, i8**  %27, align 8, !tbaa !2097, !dbg !2091
	br label %L..inline.22557
L..inline.22557:
	%28 = call %struct._ZSo*  @_ZSt4endlIcSt11char_traitsIcEERSt13basic_ostreamIT_T0_ES6_ (%struct._ZSo* @_ZSt4cerr), !dbg !2092
	%29 = bitcast %struct._ZSo*  %28 to i8*, !dbg !2092
	%30 = bitcast %struct._ZSo** %.Q0002.addr to i8**, !dbg !2092
	store i8*  %29, i8**  %30, align 8, !tbaa !2097, !dbg !2092
	br label %L.B0000
L.B0000:
	%31 = load %struct.Logger*, %struct.Logger** %logger.addr, align 8, !tbaa !2097, !dbg !2093
	ret %struct.Logger*  %31, !dbg !2093
}
define %struct.Logger* @_Z5writeR6Logger(%struct.Logger* %logger.arg) #0 !dbg !2100 {
L.entry:
	%logger.addr = alloca %struct.Logger*, align 8
	%.Q0003.addr = alloca i32, align 4
	%..inline.addr = alloca %struct._ZSt9basic_iosIcSt11char_traitsIcEE*, align 8
	%..inline.addr.1 = alloca %struct._ZSt9basic_iosIcSt11char_traitsIcEE*, align 8
	%..inline.addr.2 = alloca i32, align 4
	%..inline.addr.3 = alloca i64, align 8
	%.Q0004.addr = alloca %struct._ZSo*, align 8
	%.Q0005.addr = alloca %struct._ZSo*, align 8

	call void @llvm.dbg.declare (metadata %struct.Logger** %logger.addr, metadata !2128, metadata !2084), !dbg !2101
	store %struct.Logger* %logger.arg, %struct.Logger** %logger.addr, align 8, !tbaa !2097
	call void @llvm.dbg.declare (metadata %struct.Logger** %logger.addr, metadata !2129, metadata !2084), !dbg !2101
	%0 = load %struct.Logger*, %struct.Logger** %logger.addr, align 8, !tbaa !2097, !dbg !2130
	%1 = call i8  @_ZN6Logger5flushEb (%struct.Logger*  %0, i8 0), !dbg !2130
	%2 = sext i8  %1 to i32, !dbg !2130
	%3 = icmp ne i32  %2, 0, !dbg !2130
	br i1  %3, label %L.B0001, label %L.B1059, !dbg !2130
L.B1059:
	%4 = bitcast [24 x i8]* @.S10729 to i8*, !dbg !2131
	%5 = icmp ne i8*  %4,  null, !dbg !2131
	br i1  %5, label %L..inline.22610, label %L.B1060, !dbg !2131
L.B1060:
	%6 = bitcast %struct._ZSo* @_ZSt4cerr to i8*, !dbg !2132
	%7 = bitcast %struct._ZSo* @_ZSt4cerr to i8**, !dbg !2132
	%8 = load i8*, i8**  %7, align 8, !tbaa !2097, !dbg !2132
	%9 = getelementptr i8, i8*  %8, i64 18446744073709551592, !dbg !2132
	%10 = bitcast i8*  %9 to i64*, !dbg !2132
	%11 = load i64, i64*  %10, align 8, !tbaa !2098, !dbg !2132
	%12 = getelementptr i8, i8*  %6, i64  %11, !dbg !2132
	%13 = bitcast %struct._ZSt9basic_iosIcSt11char_traitsIcEE** %..inline.addr to i8**, !dbg !2132
	store i8*  %12, i8**  %13, align 8, !tbaa !2097, !dbg !2132
	%14 = load %struct._ZSt9basic_iosIcSt11char_traitsIcEE*, %struct._ZSt9basic_iosIcSt11char_traitsIcEE** %..inline.addr, align 8, !tbaa !2097, !dbg !2132
	%15 = bitcast %struct._ZSt9basic_iosIcSt11char_traitsIcEE*  %14 to i8*, !dbg !2132
	%16 = bitcast %struct._ZSt9basic_iosIcSt11char_traitsIcEE** %..inline.addr.1 to i8**, !dbg !2132
	store i8*  %15, i8**  %16, align 8, !tbaa !2097, !dbg !2132
	%17 = load %struct._ZSt9basic_iosIcSt11char_traitsIcEE*, %struct._ZSt9basic_iosIcSt11char_traitsIcEE** %..inline.addr.1, align 8, !tbaa !2097, !dbg !2132
	%18 = bitcast %struct._ZSt9basic_iosIcSt11char_traitsIcEE*  %17 to i8*, !dbg !2132
	%19 = getelementptr i8, i8*  %18, i64 32, !dbg !2132
	%20 = bitcast i8*  %19 to i32*, !dbg !2132
	%21 = load i32, i32*  %20, align 4, !tbaa !2098, !dbg !2132
	%22 = or i32  %21, 1, !dbg !2132
	call void  @_ZNSt9basic_iosIcSt11char_traitsIcEE5clearESt12_Ios_Iostate (%struct._ZSt9basic_iosIcSt11char_traitsIcEE*  %14, i32  %22), !dbg !2132
	br label %L..inline.22631, !dbg !2132
L..inline.22610:
	%23 = bitcast [24 x i8]* @.S10729 to i8*, !dbg !2133
	%24 = call i64  @strlen (i8*  %23) nounwind, !dbg !2133
	%25 = call %struct._ZSo*  @_ZSt16__ostream_insertIcSt11char_traitsIcEERSt13basic_ostreamIT_T0_ES6_PKS3_l (%struct._ZSo* @_ZSt4cerr, i8*  %23, i64  %24), !dbg !2133
	%26 = bitcast %struct._ZSo*  %25 to i8*, !dbg !2133
	%27 = bitcast %struct._ZSo** %.Q0004.addr to i8**, !dbg !2133
	store i8*  %26, i8**  %27, align 8, !tbaa !2097, !dbg !2133
	br label %L..inline.22631
L..inline.22631:
	%28 = call %struct._ZSo*  @_ZSt4endlIcSt11char_traitsIcEERSt13basic_ostreamIT_T0_ES6_ (%struct._ZSo* @_ZSt4cerr), !dbg !2134
	%29 = bitcast %struct._ZSo*  %28 to i8*, !dbg !2134
	%30 = bitcast %struct._ZSo** %.Q0005.addr to i8**, !dbg !2134
	store i8*  %29, i8**  %30, align 8, !tbaa !2097, !dbg !2134
	br label %L.B0001
L.B0001:
	%31 = load %struct.Logger*, %struct.Logger** %logger.addr, align 8, !tbaa !2097, !dbg !2135
	ret %struct.Logger*  %31, !dbg !2135
}
define void @_ZN6LoggerC1Ev(%struct.Logger* %_T47720600_9689.arg) #0 inlinehint !dbg !2141 {
L.entry:
	%_T47720600_9689.addr = alloca %struct.Logger*, align 8

	call void @llvm.dbg.declare (metadata %struct.Logger** %_T47720600_9689.addr, metadata !2145, metadata !2084), !dbg !2142
	store %struct.Logger* %_T47720600_9689.arg, %struct.Logger** %_T47720600_9689.addr, align 8, !tbaa !2097
	call void @llvm.dbg.declare (metadata %struct.Logger** %_T47720600_9689.addr, metadata !2146, metadata !2084), !dbg !2142
	%0 = load %struct.Logger*, %struct.Logger** %_T47720600_9689.addr, align 8, !tbaa !2097, !dbg !2147
	%1 = bitcast %struct.Logger*  %0 to i8*, !dbg !2147
	%2 = getelementptr i8, i8*  %1, i64 16, !dbg !2147
	%3 = bitcast i8*  %2 to %struct._ZNSt7__cxx1118basic_stringstreamIcSt11char_traitsIcESaIcEEE*, !dbg !2147
	call void  @_ZNSt7__cxx1118basic_stringstreamIcSt11char_traitsIcESaIcEEC1Ev (%struct._ZNSt7__cxx1118basic_stringstreamIcSt11char_traitsIcESaIcEEE*  %3), !dbg !2147
	%4 = load %struct.Logger*, %struct.Logger** %_T47720600_9689.addr, align 8, !tbaa !2097, !dbg !2148
	%5 = bitcast %struct.Logger*  %4 to i8*, !dbg !2148
	store i8 0, i8*  %5, align 1, !tbaa !2098, !dbg !2148
	%6 = getelementptr i8, i8*  %5, i64 408, !dbg !2149
	%7 = bitcast i8*  %6 to i8**, !dbg !2149
	store i8* null, i8**  %7, align 8, !tbaa !2097, !dbg !2149
	ret void, !dbg !2150
}
define void @_ZN6LoggerC2Ev(%struct.Logger* %_T47720416_9690.arg) #0 inlinehint !dbg !2152 {
L.entry:
	%_T47720416_9690.addr = alloca %struct.Logger*, align 8
	%..inline.addr = alloca %struct.Logger*, align 8

	store %struct.Logger* %_T47720416_9690.arg, %struct.Logger** %_T47720416_9690.addr, align 8, !tbaa !2097
	%0 = load %struct.Logger*, %struct.Logger** %_T47720416_9690.addr, align 8, !tbaa !2097, !dbg !2160
	%1 = bitcast %struct.Logger*  %0 to i8*, !dbg !2160
	%2 = bitcast %struct.Logger** %..inline.addr to i8**, !dbg !2160
	store i8*  %1, i8**  %2, align 8, !tbaa !2097, !dbg !2160
	%3 = load %struct.Logger*, %struct.Logger** %..inline.addr, align 8, !tbaa !2097, !dbg !2161
	%4 = bitcast %struct.Logger*  %3 to i8*, !dbg !2161
	%5 = getelementptr i8, i8*  %4, i64 16, !dbg !2161
	%6 = bitcast i8*  %5 to %struct._ZNSt7__cxx1118basic_stringstreamIcSt11char_traitsIcESaIcEEE*, !dbg !2161
	call void  @_ZNSt7__cxx1118basic_stringstreamIcSt11char_traitsIcESaIcEEC1Ev (%struct._ZNSt7__cxx1118basic_stringstreamIcSt11char_traitsIcESaIcEEE*  %6), !dbg !2161
	%7 = load %struct.Logger*, %struct.Logger** %..inline.addr, align 8, !tbaa !2097, !dbg !2161
	%8 = bitcast %struct.Logger*  %7 to i8*, !dbg !2161
	store i8 0, i8*  %8, align 1, !tbaa !2098, !dbg !2161
	%9 = getelementptr i8, i8*  %8, i64 408, !dbg !2162
	%10 = bitcast i8*  %9 to i8**, !dbg !2162
	store i8* null, i8**  %10, align 8, !tbaa !2097, !dbg !2162
	ret void, !dbg !2160
}

%astruct.dt64 = type <{ i8*, i32}> 

define void @_ZN6LoggerD1Ev(%struct.Logger* %_T47720600_9691.arg) #0 inlinehint personality i8* bitcast (i32 (...)* @__gxx_personality_v0 to i8*) !dbg !2164 {
L.entry:
	%_T47720600_9691.addr = alloca %struct.Logger*, align 8
	%..inline.addr = alloca %struct.Logger*, align 8
	%..inline.addr.1 = alloca %struct._ZSt13basic_fstreamIcSt11char_traitsIcEE*, align 8
	%.Q0006.addr = alloca %struct._ZSt13basic_filebufIcSt11char_traitsIcEE*, align 8
	%..inline.addr.2 = alloca %struct._ZSt9basic_iosIcSt11char_traitsIcEE*, align 8
	%..inline.addr.3 = alloca %struct._ZSt9basic_iosIcSt11char_traitsIcEE*, align 8
	%..inline.addr.4 = alloca i32, align 4
	%..inline.addr.5 = alloca %struct._ZSt13basic_fstreamIcSt11char_traitsIcEE*, align 8
	%.Q0007.addr = alloca %struct._ZSt13basic_filebufIcSt11char_traitsIcEE*, align 8
	%..inline.addr.6 = alloca %struct._ZSt9basic_iosIcSt11char_traitsIcEE*, align 8
	%..inline.addr.7 = alloca %struct._ZSt9basic_iosIcSt11char_traitsIcEE*, align 8
	%..inline.addr.8 = alloca i32, align 4
	%..inline.addr.9 = alloca %struct._ZNSt7__cxx1118basic_stringstreamIcSt11char_traitsIcESaIcEEE*, align 8
	%..inline.addr.140 = alloca %struct._ZSt9basic_iosIcSt11char_traitsIcEE*, align 8
	%__caught_object_address.addr = alloca i8*, align 8
	%__catch_clause_number.addr = alloca i32, align 4
	%..inline.addr.170 = alloca %struct._ZNSt7__cxx1118basic_stringstreamIcSt11char_traitsIcESaIcEEE*, align 8
	%..inline.addr.180 = alloca %struct._ZSt9basic_iosIcSt11char_traitsIcEE*, align 8

	call void @llvm.dbg.declare (metadata %struct.Logger** %_T47720600_9691.addr, metadata !2220, metadata !2084), !dbg !2165
	store %struct.Logger* %_T47720600_9691.arg, %struct.Logger** %_T47720600_9691.addr, align 8, !tbaa !2097
	call void @llvm.dbg.declare (metadata %struct.Logger** %_T47720600_9691.addr, metadata !2221, metadata !2084), !dbg !2165
	%0 = load %struct.Logger*, %struct.Logger** %_T47720600_9691.addr, align 8, !tbaa !2097, !dbg !2222
	%1 = bitcast %struct.Logger*  %0 to i8*, !dbg !2222
	%2 = bitcast %struct.Logger** %..inline.addr to i8**, !dbg !2222
	store i8*  %1, i8**  %2, align 8, !tbaa !2097, !dbg !2222
	%3 = load %struct.Logger*, %struct.Logger** %..inline.addr, align 8, !tbaa !2097, !dbg !2222
	%4 = bitcast %struct.Logger*  %3 to i8*, !dbg !2222
	%5 = load i8, i8*  %4, align 1, !tbaa !2098, !dbg !2222
	%6 = sext i8  %5 to i32, !dbg !2222
	%7 = icmp eq i32  %6, 0, !dbg !2222
	br i1  %7, label %L..inline.22718, label %L..inline.22687, !dbg !2222
L..inline.22687:
	%8 = load %struct.Logger*, %struct.Logger** %..inline.addr, align 8, !tbaa !2097, !dbg !2223
	%9 = bitcast %struct.Logger*  %8 to i8*, !dbg !2223
	%10 = getelementptr i8, i8*  %9, i64 408, !dbg !2223
	%11 = bitcast i8*  %10 to i8**, !dbg !2223
	%12 = load i8*, i8**  %11, align 8, !tbaa !2097, !dbg !2223
	%13 = bitcast %struct._ZSt13basic_fstreamIcSt11char_traitsIcEE** %..inline.addr.1 to i8**, !dbg !2223
	store i8*  %12, i8**  %13, align 8, !tbaa !2097, !dbg !2223
	%14 = load %struct._ZSt13basic_fstreamIcSt11char_traitsIcEE*, %struct._ZSt13basic_fstreamIcSt11char_traitsIcEE** %..inline.addr.1, align 8, !tbaa !2097, !dbg !2223
	%15 = bitcast %struct._ZSt13basic_fstreamIcSt11char_traitsIcEE*  %14 to i8*, !dbg !2223
	%16 = getelementptr i8, i8*  %15, i64 24, !dbg !2223
	%17 = bitcast i8*  %16 to %struct._ZSt13basic_filebufIcSt11char_traitsIcEE*, !dbg !2223
	%18 = invoke %struct._ZSt13basic_filebufIcSt11char_traitsIcEE*  @_ZNSt13basic_filebufIcSt11char_traitsIcEE5closeEv (%struct._ZSt13basic_filebufIcSt11char_traitsIcEE*  %17)
		to label %L.B1071
		unwind label %L_T47721488_9691, !dbg !2223
L.B1071:
	%19 = bitcast %struct._ZSt13basic_filebufIcSt11char_traitsIcEE*  %18 to i8*, !dbg !2223
	%20 = bitcast %struct._ZSt13basic_filebufIcSt11char_traitsIcEE** %.Q0006.addr to i8**, !dbg !2223
	store i8*  %19, i8**  %20, align 8, !tbaa !2097, !dbg !2223
	%21 = load %struct._ZSt13basic_filebufIcSt11char_traitsIcEE*, %struct._ZSt13basic_filebufIcSt11char_traitsIcEE** %.Q0006.addr, align 8, !tbaa !2097, !dbg !2223
	%22 = bitcast %struct._ZSt13basic_filebufIcSt11char_traitsIcEE*  %21 to i8*, !dbg !2223
	%23 = icmp ne i8*  %22,  null, !dbg !2223
	br i1  %23, label %L..inline.22693, label %L.B1072, !dbg !2223
L.B1072:
	%24 = load %struct._ZSt13basic_fstreamIcSt11char_traitsIcEE*, %struct._ZSt13basic_fstreamIcSt11char_traitsIcEE** %..inline.addr.1, align 8, !tbaa !2097, !dbg !2223
	%25 = bitcast %struct._ZSt13basic_fstreamIcSt11char_traitsIcEE*  %24 to i8*, !dbg !2223
	%26 = bitcast %struct._ZSt13basic_fstreamIcSt11char_traitsIcEE*  %24 to i8**, !dbg !2223
	%27 = load i8*, i8**  %26, align 8, !tbaa !2097, !dbg !2223
	%28 = getelementptr i8, i8*  %27, i64 18446744073709551592, !dbg !2223
	%29 = bitcast i8*  %28 to i64*, !dbg !2223
	%30 = load i64, i64*  %29, align 8, !tbaa !2098, !dbg !2223
	%31 = getelementptr i8, i8*  %25, i64  %30, !dbg !2223
	%32 = bitcast %struct._ZSt9basic_iosIcSt11char_traitsIcEE** %..inline.addr.2 to i8**, !dbg !2223
	store i8*  %31, i8**  %32, align 8, !tbaa !2097, !dbg !2223
	%33 = load %struct._ZSt9basic_iosIcSt11char_traitsIcEE*, %struct._ZSt9basic_iosIcSt11char_traitsIcEE** %..inline.addr.2, align 8, !tbaa !2097, !dbg !2223
	%34 = bitcast %struct._ZSt9basic_iosIcSt11char_traitsIcEE*  %33 to i8*, !dbg !2223
	%35 = bitcast %struct._ZSt9basic_iosIcSt11char_traitsIcEE** %..inline.addr.3 to i8**, !dbg !2223
	store i8*  %34, i8**  %35, align 8, !tbaa !2097, !dbg !2223
	%36 = load %struct._ZSt9basic_iosIcSt11char_traitsIcEE*, %struct._ZSt9basic_iosIcSt11char_traitsIcEE** %..inline.addr.3, align 8, !tbaa !2097, !dbg !2223
	%37 = bitcast %struct._ZSt9basic_iosIcSt11char_traitsIcEE*  %36 to i8*, !dbg !2223
	%38 = getelementptr i8, i8*  %37, i64 32, !dbg !2223
	%39 = bitcast i8*  %38 to i32*, !dbg !2223
	%40 = load i32, i32*  %39, align 4, !tbaa !2098, !dbg !2223
	%41 = or i32  %40, 4, !dbg !2223
	invoke void  @_ZNSt9basic_iosIcSt11char_traitsIcEE5clearESt12_Ios_Iostate (%struct._ZSt9basic_iosIcSt11char_traitsIcEE*  %33, i32  %41)
		to label %L.B1073
		unwind label %L_T47721488_9691, !dbg !2223
L.B1073:
	br label %L..inline.22693
L..inline.22693:
	%42 = load %struct.Logger*, %struct.Logger** %..inline.addr, align 8, !tbaa !2097, !dbg !2223
	%43 = bitcast %struct.Logger*  %42 to i8*, !dbg !2223
	%44 = getelementptr i8, i8*  %43, i64 408, !dbg !2223
	%45 = bitcast i8*  %44 to i8**, !dbg !2223
	%46 = load i8*, i8**  %45, align 8, !tbaa !2097, !dbg !2223
	%47 = icmp eq i8*  %46,  null, !dbg !2223
	br i1  %47, label %L..inline.22714, label %L.B1074, !dbg !2223
L.B1074:
	%48 = bitcast %struct.Logger*  %42 to i8*, !dbg !2224
	%49 = getelementptr i8, i8*  %48, i64 408, !dbg !2224
	%50 = bitcast i8*  %49 to %struct._ZSt13basic_fstreamIcSt11char_traitsIcEE**, !dbg !2224
	%51 = load %struct._ZSt13basic_fstreamIcSt11char_traitsIcEE*, %struct._ZSt13basic_fstreamIcSt11char_traitsIcEE**  %50, align 8, !tbaa !2097, !dbg !2224
	%52 = bitcast i8*  %49 to i8***, !dbg !2224
	%53 = load i8**, i8***  %52, align 8, !tbaa !2097, !dbg !2224
	%54 = load i8*, i8**  %53, align 8, !tbaa !2097, !dbg !2224
	%55 = getelementptr i8, i8*  %54, i64 8, !dbg !2224
	%56 = bitcast i8*  %55 to void (%struct._ZSt13basic_fstreamIcSt11char_traitsIcEE*)**, !dbg !2224
	%57 = load void (%struct._ZSt13basic_fstreamIcSt11char_traitsIcEE*)*, void (%struct._ZSt13basic_fstreamIcSt11char_traitsIcEE*)**  %56, align 8, !tbaa !2097, !dbg !2224
	invoke void  %57 (%struct._ZSt13basic_fstreamIcSt11char_traitsIcEE*  %51)
		to label %L.B1075
		unwind label %L_T47721488_9691, !dbg !2224
L.B1075:
	br label %L..inline.22715, !dbg !2224
L..inline.22714:
	br label %L..inline.22715
L..inline.22715:
	%58 = load %struct.Logger*, %struct.Logger** %..inline.addr, align 8, !tbaa !2097, !dbg !2224
	%59 = bitcast %struct.Logger*  %58 to i8*, !dbg !2224
	%60 = getelementptr i8, i8*  %59, i64 408, !dbg !2224
	%61 = bitcast i8*  %60 to i8**, !dbg !2224
	store i8* null, i8**  %61, align 8, !tbaa !2097, !dbg !2224
	store i8 0, i8*  %59, align 1, !tbaa !2098, !dbg !2225
	br label %L..inline.22718
L..inline.22718:
	%62 = load %struct.Logger*, %struct.Logger** %_T47720600_9691.addr, align 8, !tbaa !2097, !dbg !2226
	%63 = bitcast %struct.Logger*  %62 to i8*, !dbg !2226
	%64 = getelementptr i8, i8*  %63, i64 408, !dbg !2226
	%65 = bitcast i8*  %64 to i8**, !dbg !2226
	%66 = load i8*, i8**  %65, align 8, !tbaa !2097, !dbg !2226
	%67 = icmp eq i8*  %66,  null, !dbg !2226
	br i1  %67, label %L.B0002, label %L.B1076, !dbg !2226
L.B1076:
	%68 = bitcast %struct.Logger*  %62 to i8*, !dbg !2227
	%69 = getelementptr i8, i8*  %68, i64 408, !dbg !2227
	%70 = bitcast i8*  %69 to i8**, !dbg !2227
	%71 = load i8*, i8**  %70, align 8, !tbaa !2097, !dbg !2227
	%72 = bitcast %struct._ZSt13basic_fstreamIcSt11char_traitsIcEE** %..inline.addr.5 to i8**, !dbg !2227
	store i8*  %71, i8**  %72, align 8, !tbaa !2097, !dbg !2227
	%73 = load %struct._ZSt13basic_fstreamIcSt11char_traitsIcEE*, %struct._ZSt13basic_fstreamIcSt11char_traitsIcEE** %..inline.addr.5, align 8, !tbaa !2097, !dbg !2228
	%74 = bitcast %struct._ZSt13basic_fstreamIcSt11char_traitsIcEE*  %73 to i8*, !dbg !2228
	%75 = getelementptr i8, i8*  %74, i64 24, !dbg !2228
	%76 = bitcast i8*  %75 to %struct._ZSt13basic_filebufIcSt11char_traitsIcEE*, !dbg !2228
	%77 = invoke %struct._ZSt13basic_filebufIcSt11char_traitsIcEE*  @_ZNSt13basic_filebufIcSt11char_traitsIcEE5closeEv (%struct._ZSt13basic_filebufIcSt11char_traitsIcEE*  %76)
		to label %L.B1077
		unwind label %L_T47721488_9691, !dbg !2228
L.B1077:
	%78 = bitcast %struct._ZSt13basic_filebufIcSt11char_traitsIcEE*  %77 to i8*, !dbg !2228
	%79 = bitcast %struct._ZSt13basic_filebufIcSt11char_traitsIcEE** %.Q0007.addr to i8**, !dbg !2228
	store i8*  %78, i8**  %79, align 8, !tbaa !2097, !dbg !2228
	%80 = load %struct._ZSt13basic_filebufIcSt11char_traitsIcEE*, %struct._ZSt13basic_filebufIcSt11char_traitsIcEE** %.Q0007.addr, align 8, !tbaa !2097, !dbg !2228
	%81 = bitcast %struct._ZSt13basic_filebufIcSt11char_traitsIcEE*  %80 to i8*, !dbg !2228
	%82 = icmp ne i8*  %81,  null, !dbg !2228
	br i1  %82, label %L..inline.22722, label %L.B1078, !dbg !2228
L.B1078:
	%83 = load %struct._ZSt13basic_fstreamIcSt11char_traitsIcEE*, %struct._ZSt13basic_fstreamIcSt11char_traitsIcEE** %..inline.addr.5, align 8, !tbaa !2097, !dbg !2229
	%84 = bitcast %struct._ZSt13basic_fstreamIcSt11char_traitsIcEE*  %83 to i8*, !dbg !2229
	%85 = bitcast %struct._ZSt13basic_fstreamIcSt11char_traitsIcEE*  %83 to i8**, !dbg !2229
	%86 = load i8*, i8**  %85, align 8, !tbaa !2097, !dbg !2229
	%87 = getelementptr i8, i8*  %86, i64 18446744073709551592, !dbg !2229
	%88 = bitcast i8*  %87 to i64*, !dbg !2229
	%89 = load i64, i64*  %88, align 8, !tbaa !2098, !dbg !2229
	%90 = getelementptr i8, i8*  %84, i64  %89, !dbg !2229
	%91 = bitcast %struct._ZSt9basic_iosIcSt11char_traitsIcEE** %..inline.addr.6 to i8**, !dbg !2229
	store i8*  %90, i8**  %91, align 8, !tbaa !2097, !dbg !2229
	%92 = bitcast %struct._ZSt9basic_iosIcSt11char_traitsIcEE** %..inline.addr.7 to i8**, !dbg !2229
	store i8*  %90, i8**  %92, align 8, !tbaa !2097, !dbg !2229
	%93 = load %struct._ZSt9basic_iosIcSt11char_traitsIcEE*, %struct._ZSt9basic_iosIcSt11char_traitsIcEE** %..inline.addr.7, align 8, !tbaa !2097, !dbg !2229
	%94 = bitcast %struct._ZSt9basic_iosIcSt11char_traitsIcEE*  %93 to i8*, !dbg !2229
	%95 = getelementptr i8, i8*  %94, i64 32, !dbg !2229
	%96 = bitcast i8*  %95 to i32*, !dbg !2229
	%97 = load i32, i32*  %96, align 4, !tbaa !2098, !dbg !2229
	%98 = or i32  %97, 4, !dbg !2229
	%99 = load %struct._ZSt9basic_iosIcSt11char_traitsIcEE*, %struct._ZSt9basic_iosIcSt11char_traitsIcEE** %..inline.addr.6, align 8, !tbaa !2097, !dbg !2229
	invoke void  @_ZNSt9basic_iosIcSt11char_traitsIcEE5clearESt12_Ios_Iostate (%struct._ZSt9basic_iosIcSt11char_traitsIcEE*  %99, i32  %98)
		to label %L.B1079
		unwind label %L_T47721488_9691, !dbg !2229
L.B1079:
	br label %L..inline.22722
L..inline.22722:
	%100 = load %struct.Logger*, %struct.Logger** %_T47720600_9691.addr, align 8, !tbaa !2097, !dbg !2230
	%101 = bitcast %struct.Logger*  %100 to i8*, !dbg !2230
	%102 = getelementptr i8, i8*  %101, i64 408, !dbg !2230
	%103 = bitcast i8*  %102 to i8**, !dbg !2230
	%104 = load i8*, i8**  %103, align 8, !tbaa !2097, !dbg !2230
	%105 = icmp eq i8*  %104,  null, !dbg !2230
	br i1  %105, label %L.B0003, label %L.B1080, !dbg !2230
L.B1080:
	%106 = bitcast %struct.Logger*  %100 to i8*, !dbg !2230
	%107 = getelementptr i8, i8*  %106, i64 408, !dbg !2230
	%108 = bitcast i8*  %107 to %struct._ZSt13basic_fstreamIcSt11char_traitsIcEE**, !dbg !2230
	%109 = load %struct._ZSt13basic_fstreamIcSt11char_traitsIcEE*, %struct._ZSt13basic_fstreamIcSt11char_traitsIcEE**  %108, align 8, !tbaa !2097, !dbg !2230
	%110 = bitcast i8*  %107 to i8***, !dbg !2230
	%111 = load i8**, i8***  %110, align 8, !tbaa !2097, !dbg !2230
	%112 = load i8*, i8**  %111, align 8, !tbaa !2097, !dbg !2230
	%113 = getelementptr i8, i8*  %112, i64 8, !dbg !2230
	%114 = bitcast i8*  %113 to void (%struct._ZSt13basic_fstreamIcSt11char_traitsIcEE*)**, !dbg !2230
	%115 = load void (%struct._ZSt13basic_fstreamIcSt11char_traitsIcEE*)*, void (%struct._ZSt13basic_fstreamIcSt11char_traitsIcEE*)**  %114, align 8, !tbaa !2097, !dbg !2230
	invoke void  %115 (%struct._ZSt13basic_fstreamIcSt11char_traitsIcEE*  %109)
		to label %L.B1081
		unwind label %L_T47721488_9691, !dbg !2230
L.B1081:
	br label %L.B0004, !dbg !2230
L.B0003:
	br label %L.B0004
L.B0004:
	br label %L.B0002
L.B0002:
	%116 = load %struct.Logger*, %struct.Logger** %_T47720600_9691.addr, align 8, !tbaa !2097, !dbg !2231
	%117 = bitcast %struct.Logger*  %116 to i8*, !dbg !2231
	%118 = getelementptr i8, i8*  %117, i64 16, !dbg !2231
	%119 = bitcast %struct._ZNSt7__cxx1118basic_stringstreamIcSt11char_traitsIcESaIcEEE** %..inline.addr.9 to i8**, !dbg !2231
	store i8*  %118, i8**  %119, align 8, !tbaa !2097, !dbg !2231
	%120 = load %struct._ZNSt7__cxx1118basic_stringstreamIcSt11char_traitsIcESaIcEEE*, %struct._ZNSt7__cxx1118basic_stringstreamIcSt11char_traitsIcESaIcEEE** %..inline.addr.9, align 8, !tbaa !2097, !dbg !2231
	%121 = bitcast i64*** @_ZTTNSt7__cxx1118basic_stringstreamIcSt11char_traitsIcESaIcEEE to i64**, !dbg !2231
	call void  @_ZNSt7__cxx1118basic_stringstreamIcSt11char_traitsIcESaIcEED2Ev (%struct._ZNSt7__cxx1118basic_stringstreamIcSt11char_traitsIcESaIcEEE*  %120, i64**  %121) nounwind, !dbg !2231
	%122 = load %struct._ZNSt7__cxx1118basic_stringstreamIcSt11char_traitsIcESaIcEEE*, %struct._ZNSt7__cxx1118basic_stringstreamIcSt11char_traitsIcESaIcEEE** %..inline.addr.9, align 8, !tbaa !2097, !dbg !2235
	%123 = bitcast %struct._ZNSt7__cxx1118basic_stringstreamIcSt11char_traitsIcESaIcEEE*  %122 to i8*, !dbg !2235
	%124 = getelementptr i8, i8*  %123, i64 128, !dbg !2235
	%125 = bitcast %struct._ZSt9basic_iosIcSt11char_traitsIcEE** %..inline.addr.140 to i8**, !dbg !2235
	store i8*  %124, i8**  %125, align 8, !tbaa !2097, !dbg !2235
	%126 = load %struct._ZSt9basic_iosIcSt11char_traitsIcEE*, %struct._ZSt9basic_iosIcSt11char_traitsIcEE** %..inline.addr.140, align 8, !tbaa !2097, !dbg !2235
	call void  @_ZNSt9basic_iosIcSt11char_traitsIcEED1Ev (%struct._ZSt9basic_iosIcSt11char_traitsIcEE*  %126) nounwind, !dbg !2235
	br label %L.R0004, !dbg !2231
L_T47721488_9691:
	%127 = landingpad %astruct.dt64
	cleanup
	%128 = extractvalue %astruct.dt64  %127, 0, !dbg !2231
	store i8*  %128, i8** %__caught_object_address.addr, align 1, !tbaa !2097, !dbg !2231
	%129 = extractvalue %astruct.dt64  %127, 1, !dbg !2231
	store i32  %129, i32* %__catch_clause_number.addr, align 1, !tbaa !2098, !dbg !2231
	%130 = load %struct.Logger*, %struct.Logger** %_T47720600_9691.addr, align 8, !tbaa !2097, !dbg !2231
	%131 = bitcast %struct.Logger*  %130 to i8*, !dbg !2231
	%132 = getelementptr i8, i8*  %131, i64 16, !dbg !2231
	%133 = bitcast %struct._ZNSt7__cxx1118basic_stringstreamIcSt11char_traitsIcESaIcEEE** %..inline.addr.170 to i8**, !dbg !2231
	store i8*  %132, i8**  %133, align 8, !tbaa !2097, !dbg !2231
	%134 = load %struct._ZNSt7__cxx1118basic_stringstreamIcSt11char_traitsIcESaIcEEE*, %struct._ZNSt7__cxx1118basic_stringstreamIcSt11char_traitsIcESaIcEEE** %..inline.addr.170, align 8, !tbaa !2097, !dbg !2231
	%135 = bitcast i64*** @_ZTTNSt7__cxx1118basic_stringstreamIcSt11char_traitsIcESaIcEEE to i64**, !dbg !2231
	call void  @_ZNSt7__cxx1118basic_stringstreamIcSt11char_traitsIcESaIcEED2Ev (%struct._ZNSt7__cxx1118basic_stringstreamIcSt11char_traitsIcESaIcEEE*  %134, i64**  %135) nounwind, !dbg !2231
	%136 = load %struct._ZNSt7__cxx1118basic_stringstreamIcSt11char_traitsIcESaIcEEE*, %struct._ZNSt7__cxx1118basic_stringstreamIcSt11char_traitsIcESaIcEEE** %..inline.addr.170, align 8, !tbaa !2097, !dbg !2235
	%137 = bitcast %struct._ZNSt7__cxx1118basic_stringstreamIcSt11char_traitsIcESaIcEEE*  %136 to i8*, !dbg !2235
	%138 = getelementptr i8, i8*  %137, i64 128, !dbg !2235
	%139 = bitcast %struct._ZSt9basic_iosIcSt11char_traitsIcEE** %..inline.addr.180 to i8**, !dbg !2235
	store i8*  %138, i8**  %139, align 8, !tbaa !2097, !dbg !2235
	%140 = load %struct._ZSt9basic_iosIcSt11char_traitsIcEE*, %struct._ZSt9basic_iosIcSt11char_traitsIcEE** %..inline.addr.180, align 8, !tbaa !2097, !dbg !2235
	call void  @_ZNSt9basic_iosIcSt11char_traitsIcEED1Ev (%struct._ZSt9basic_iosIcSt11char_traitsIcEE*  %140) nounwind, !dbg !2235
	br label %L_T47721728_9691, !dbg !2231
L_T47721848_9691:
	%141 = landingpad %astruct.dt64
	cleanup
	br label %L_T47721728_9691
L_T47721728_9691:
	%142 = load i8*, i8** %__caught_object_address.addr, align 8, !tbaa !2097, !dbg !2231
	%143 = call i8*  @__cxa_begin_catch (i8*  %142) nounwind, !dbg !2231
	call void  @_ZSt9terminatev () nounwind noreturn, !dbg !2231
	br label %L.R0004
L.R0004:
	ret void, !dbg !2231
}
define void @_ZN6LoggerD2Ev(%struct.Logger* %_T47720416_9692.arg) #0 inlinehint !dbg !2237 {
L.entry:
	%_T47720416_9692.addr = alloca %struct.Logger*, align 8

	store %struct.Logger* %_T47720416_9692.arg, %struct.Logger** %_T47720416_9692.addr, align 8, !tbaa !2097
	%0 = load %struct.Logger*, %struct.Logger** %_T47720416_9692.addr, align 8, !tbaa !2097, !dbg !2241
	call void  @_ZN6LoggerD1Ev (%struct.Logger*  %0) nounwind, !dbg !2241
	ret void, !dbg !2241
}
define signext i8 @_ZN6Logger5closeEv(%struct.Logger* %_T47721152_9693.arg) #0 inlinehint !dbg !2245 {
L.entry:
	%_T47721152_9693.addr = alloca %struct.Logger*, align 8
	%..inline.addr = alloca %struct._ZSt13basic_fstreamIcSt11char_traitsIcEE*, align 8
	%.Q0008.addr = alloca %struct._ZSt13basic_filebufIcSt11char_traitsIcEE*, align 8
	%..inline.addr.1 = alloca %struct._ZSt9basic_iosIcSt11char_traitsIcEE*, align 8
	%..inline.addr.2 = alloca %struct._ZSt9basic_iosIcSt11char_traitsIcEE*, align 8
	%..inline.addr.3 = alloca i32, align 4

	call void @llvm.dbg.declare (metadata %struct.Logger** %_T47721152_9693.addr, metadata !2265, metadata !2084), !dbg !2246
	store %struct.Logger* %_T47721152_9693.arg, %struct.Logger** %_T47721152_9693.addr, align 8, !tbaa !2097
	call void @llvm.dbg.declare (metadata %struct.Logger** %_T47721152_9693.addr, metadata !2266, metadata !2084), !dbg !2246
	%0 = load %struct.Logger*, %struct.Logger** %_T47721152_9693.addr, align 8, !tbaa !2097, !dbg !2267
	%1 = bitcast %struct.Logger*  %0 to i8*, !dbg !2267
	%2 = load i8, i8*  %1, align 1, !tbaa !2098, !dbg !2267
	%3 = sext i8  %2 to i32, !dbg !2267
	%4 = icmp ne i32  %3, 0, !dbg !2267
	br i1  %4, label %L.B0005, label %L.B1084, !dbg !2267
L.B1084:
	ret i8 0, !dbg !2267
L.B1085:
	br label %L.R0006, !dbg !2267
L.B0005:
	%5 = load %struct.Logger*, %struct.Logger** %_T47721152_9693.addr, align 8, !tbaa !2097, !dbg !2268
	%6 = bitcast %struct.Logger*  %5 to i8*, !dbg !2268
	%7 = getelementptr i8, i8*  %6, i64 408, !dbg !2268
	%8 = bitcast i8*  %7 to i8**, !dbg !2268
	%9 = load i8*, i8**  %8, align 8, !tbaa !2097, !dbg !2268
	%10 = bitcast %struct._ZSt13basic_fstreamIcSt11char_traitsIcEE** %..inline.addr to i8**, !dbg !2268
	store i8*  %9, i8**  %10, align 8, !tbaa !2097, !dbg !2268
	%11 = load %struct._ZSt13basic_fstreamIcSt11char_traitsIcEE*, %struct._ZSt13basic_fstreamIcSt11char_traitsIcEE** %..inline.addr, align 8, !tbaa !2097, !dbg !2269
	%12 = bitcast %struct._ZSt13basic_fstreamIcSt11char_traitsIcEE*  %11 to i8*, !dbg !2269
	%13 = getelementptr i8, i8*  %12, i64 24, !dbg !2269
	%14 = bitcast i8*  %13 to %struct._ZSt13basic_filebufIcSt11char_traitsIcEE*, !dbg !2269
	%15 = call %struct._ZSt13basic_filebufIcSt11char_traitsIcEE*  @_ZNSt13basic_filebufIcSt11char_traitsIcEE5closeEv (%struct._ZSt13basic_filebufIcSt11char_traitsIcEE*  %14), !dbg !2269
	%16 = bitcast %struct._ZSt13basic_filebufIcSt11char_traitsIcEE*  %15 to i8*, !dbg !2269
	%17 = bitcast %struct._ZSt13basic_filebufIcSt11char_traitsIcEE** %.Q0008.addr to i8**, !dbg !2269
	store i8*  %16, i8**  %17, align 8, !tbaa !2097, !dbg !2269
	%18 = load %struct._ZSt13basic_filebufIcSt11char_traitsIcEE*, %struct._ZSt13basic_filebufIcSt11char_traitsIcEE** %.Q0008.addr, align 8, !tbaa !2097, !dbg !2269
	%19 = bitcast %struct._ZSt13basic_filebufIcSt11char_traitsIcEE*  %18 to i8*, !dbg !2269
	%20 = icmp ne i8*  %19,  null, !dbg !2269
	br i1  %20, label %L..inline.22826, label %L.B1086, !dbg !2269
L.B1086:
	%21 = load %struct._ZSt13basic_fstreamIcSt11char_traitsIcEE*, %struct._ZSt13basic_fstreamIcSt11char_traitsIcEE** %..inline.addr, align 8, !tbaa !2097, !dbg !2270
	%22 = bitcast %struct._ZSt13basic_fstreamIcSt11char_traitsIcEE*  %21 to i8*, !dbg !2270
	%23 = bitcast %struct._ZSt13basic_fstreamIcSt11char_traitsIcEE*  %21 to i8**, !dbg !2270
	%24 = load i8*, i8**  %23, align 8, !tbaa !2097, !dbg !2270
	%25 = getelementptr i8, i8*  %24, i64 18446744073709551592, !dbg !2270
	%26 = bitcast i8*  %25 to i64*, !dbg !2270
	%27 = load i64, i64*  %26, align 8, !tbaa !2098, !dbg !2270
	%28 = getelementptr i8, i8*  %22, i64  %27, !dbg !2270
	%29 = bitcast %struct._ZSt9basic_iosIcSt11char_traitsIcEE** %..inline.addr.1 to i8**, !dbg !2270
	store i8*  %28, i8**  %29, align 8, !tbaa !2097, !dbg !2270
	%30 = load %struct._ZSt9basic_iosIcSt11char_traitsIcEE*, %struct._ZSt9basic_iosIcSt11char_traitsIcEE** %..inline.addr.1, align 8, !tbaa !2097, !dbg !2270
	%31 = bitcast %struct._ZSt9basic_iosIcSt11char_traitsIcEE*  %30 to i8*, !dbg !2270
	%32 = bitcast %struct._ZSt9basic_iosIcSt11char_traitsIcEE** %..inline.addr.2 to i8**, !dbg !2270
	store i8*  %31, i8**  %32, align 8, !tbaa !2097, !dbg !2270
	%33 = load %struct._ZSt9basic_iosIcSt11char_traitsIcEE*, %struct._ZSt9basic_iosIcSt11char_traitsIcEE** %..inline.addr.2, align 8, !tbaa !2097, !dbg !2270
	%34 = bitcast %struct._ZSt9basic_iosIcSt11char_traitsIcEE*  %33 to i8*, !dbg !2270
	%35 = getelementptr i8, i8*  %34, i64 32, !dbg !2270
	%36 = bitcast i8*  %35 to i32*, !dbg !2270
	%37 = load i32, i32*  %36, align 4, !tbaa !2098, !dbg !2270
	%38 = or i32  %37, 4, !dbg !2270
	call void  @_ZNSt9basic_iosIcSt11char_traitsIcEE5clearESt12_Ios_Iostate (%struct._ZSt9basic_iosIcSt11char_traitsIcEE*  %30, i32  %38), !dbg !2270
	br label %L..inline.22826
L..inline.22826:
	%39 = load %struct.Logger*, %struct.Logger** %_T47721152_9693.addr, align 8, !tbaa !2097, !dbg !2271
	%40 = bitcast %struct.Logger*  %39 to i8*, !dbg !2271
	%41 = getelementptr i8, i8*  %40, i64 408, !dbg !2271
	%42 = bitcast i8*  %41 to i8**, !dbg !2271
	%43 = load i8*, i8**  %42, align 8, !tbaa !2097, !dbg !2271
	%44 = icmp eq i8*  %43,  null, !dbg !2271
	br i1  %44, label %L.B0006, label %L.B1087, !dbg !2271
L.B1087:
	%45 = bitcast %struct.Logger*  %39 to i8*, !dbg !2271
	%46 = getelementptr i8, i8*  %45, i64 408, !dbg !2271
	%47 = bitcast i8*  %46 to %struct._ZSt13basic_fstreamIcSt11char_traitsIcEE**, !dbg !2271
	%48 = load %struct._ZSt13basic_fstreamIcSt11char_traitsIcEE*, %struct._ZSt13basic_fstreamIcSt11char_traitsIcEE**  %47, align 8, !tbaa !2097, !dbg !2271
	%49 = bitcast i8*  %46 to i8***, !dbg !2271
	%50 = load i8**, i8***  %49, align 8, !tbaa !2097, !dbg !2271
	%51 = load i8*, i8**  %50, align 8, !tbaa !2097, !dbg !2271
	%52 = getelementptr i8, i8*  %51, i64 8, !dbg !2271
	%53 = bitcast i8*  %52 to void (%struct._ZSt13basic_fstreamIcSt11char_traitsIcEE*)**, !dbg !2271
	%54 = load void (%struct._ZSt13basic_fstreamIcSt11char_traitsIcEE*)*, void (%struct._ZSt13basic_fstreamIcSt11char_traitsIcEE*)**  %53, align 8, !tbaa !2097, !dbg !2271
	call void  %54 (%struct._ZSt13basic_fstreamIcSt11char_traitsIcEE*  %48), !dbg !2271
	br label %L.B0007, !dbg !2271
L.B0006:
	br label %L.B0007
L.B0007:
	%55 = load %struct.Logger*, %struct.Logger** %_T47721152_9693.addr, align 8, !tbaa !2097, !dbg !2272
	%56 = bitcast %struct.Logger*  %55 to i8*, !dbg !2272
	%57 = getelementptr i8, i8*  %56, i64 408, !dbg !2272
	%58 = bitcast i8*  %57 to i8**, !dbg !2272
	store i8* null, i8**  %58, align 8, !tbaa !2097, !dbg !2272
	store i8 0, i8*  %56, align 1, !tbaa !2098, !dbg !2273
	ret i8 1, !dbg !2274
L.R0006:
	ret i8 0
}

%struct._ZSt26random_access_iterator_tag = type <{ [1 x i8]}> 

define signext i8 @_ZN6Logger5flushEb(%struct.Logger* %_T47721520_9694.arg, i8 signext %verbose.arg) #0 inlinehint personality i8* bitcast (i32 (...)* @__gxx_personality_v0 to i8*) !dbg !2279 {
L.entry:
	%_T47721520_9694.addr = alloca %struct.Logger*, align 8
	%verbose.addr = alloca i8, align 1
	%tmp.addr = alloca %struct._ZNSt7__cxx1118basic_stringstreamIcSt11char_traitsIcESaIcEEE, align 8
	%strTime.addr = alloca %struct._ZNSt7__cxx1112basic_stringIcSt11char_traitsIcESaIcEEE, align 8
	%rawTime.addr = alloca i64, align 8
	%..inline.addr = alloca i8*, align 8
	%..inline.addr.1 = alloca i8*, align 8
	%..inline.addr.2 = alloca i64, align 8
	%..inline.addr.3 = alloca i8*, align 8
	%..inline.addr.4 = alloca i64, align 8
	%.Q0009.addr = alloca %struct._ZNSt7__cxx1112basic_stringIcSt11char_traitsIcESaIcEEE*, align 8
	%lineBreak.addr = alloca i64, align 8
	%..inline.addr.5 = alloca i64, align 8
	%..inline.addr.6 = alloca i64, align 8
	%..inline.addr.7 = alloca i64, align 8
	%..inline.addr.8 = alloca i64, align 8
	%..inline.addr.9 = alloca i8*, align 8
	%..inline.addr.190 = alloca i64, align 8
	%.Q0010.addr = alloca %struct._ZSo*, align 8
	%..inline.addr.210 = alloca %struct._ZSo*, align 8
	%..inline.addr.220 = alloca i8, align 1
	%.Q0011.addr = alloca %struct._ZSo*, align 8
	%..inline.addr.240 = alloca %struct._ZSo*, align 8
	%.Q0012.addr = alloca %struct._ZSo*, align 8
	%..inline.addr.260 = alloca %struct._ZNSt7__cxx1118basic_stringstreamIcSt11char_traitsIcESaIcEEE*, align 8
	%_T47722704_9694.addr = alloca %struct._ZNSt7__cxx1112basic_stringIcSt11char_traitsIcESaIcEEE, align 8
	%..inline.addr.280 = alloca i8*, align 8
	%..inline.addr.290 = alloca i8*, align 8
	%..inline.addr.300 = alloca i64, align 8
	%.Q0013.addr = alloca %struct._ZSo*, align 8
	%..inline.addr.320 = alloca %struct._ZSo*, align 8
	%.Q0014.addr = alloca %struct._ZSo*, align 8
	%..inline.addr.340 = alloca %struct._ZNSt7__cxx1118basic_stringstreamIcSt11char_traitsIcESaIcEEE*, align 8
	%_T47723000_9694.addr = alloca %struct._ZNSt7__cxx1112basic_stringIcSt11char_traitsIcESaIcEEE, align 8
	%..inline.addr.360 = alloca i8*, align 8
	%..inline.addr.370 = alloca i8*, align 8
	%..inline.addr.380 = alloca i64, align 8
	%.Q0015.addr = alloca %struct._ZSo*, align 8
	%.I0000.addr = alloca %struct._ZSo*, align 8
	%_T47723296_9694.addr = alloca %struct._ZNSt7__cxx1112basic_stringIcSt11char_traitsIcESaIcEEE, align 8
	%..inline.addr.420 = alloca %struct._ZSo*, align 8
	%..inline.addr.430 = alloca i8*, align 8
	%..inline.addr.440 = alloca i64, align 8
	%.Q0016.addr = alloca %struct._ZSo*, align 8
	%..inline.addr.460 = alloca %struct._ZSo*, align 8
	%.Q0017.addr = alloca %struct._ZSo*, align 8
	%..inline.addr.480 = alloca i8*, align 8
	%_T47723888_9694.addr = alloca %struct._ZNSt7__cxx1112basic_stringIcSt11char_traitsIcESaIcEEE, align 8
	%..inline.addr.500 = alloca i64, align 8
	%..inline.addr.510 = alloca i8*, align 8
	%..inline.addr.520 = alloca i8*, align 8
	%....inline.__FILL_CHARARRAY.addr = alloca [1 x i8], align 1
	%....inline.__FILL_CHARARRAY.addr.1 = alloca [1 x i8], align 1
	%..inline.addr.550 = alloca %struct._ZSt26random_access_iterator_tag, align 1
	%..inline.addr.560 = alloca %struct._ZNSt7__cxx1115basic_stringbufIcSt11char_traitsIcESaIcEEE*, align 8
	%..inline.addr.570 = alloca %struct._ZNSt7__cxx1112basic_stringIcSt11char_traitsIcESaIcEEE*, align 8
	%..inline.addr.580 = alloca i8*, align 8
	%..inline.addr.590 = alloca i64, align 8
	%..inline.addr.600 = alloca i64, align 8
	%.Q0018.addr = alloca %struct._ZNSt7__cxx1112basic_stringIcSt11char_traitsIcESaIcEEE*, align 8
	%..inline.addr.620 = alloca %struct._ZNSt7__cxx1115basic_stringbufIcSt11char_traitsIcESaIcEEE*, align 8
	%..inline.addr.630 = alloca i64, align 8
	%..inline.addr.640 = alloca i8*, align 8
	%..inline.addr.650 = alloca i8*, align 8
	%..inline.addr.660 = alloca i8*, align 8
	%__caught_object_address.addr = alloca i8*, align 8
	%__catch_clause_number.addr = alloca i32, align 4
	%..inline.addr.690 = alloca i8*, align 8
	%..inline.addr.700 = alloca i8*, align 8
	%..inline.addr.710 = alloca i8*, align 8

	call void @llvm.dbg.declare (metadata %struct.Logger** %_T47721520_9694.addr, metadata !3019, metadata !2084), !dbg !2280
	store %struct.Logger* %_T47721520_9694.arg, %struct.Logger** %_T47721520_9694.addr, align 8, !tbaa !2097
	call void @llvm.dbg.declare (metadata %struct.Logger** %_T47721520_9694.addr, metadata !3020, metadata !2084), !dbg !2280
	call void @llvm.dbg.declare (metadata i8* %verbose.addr, metadata !3021, metadata !2084), !dbg !2280
	store i8 %verbose.arg, i8* %verbose.addr, align 1, !tbaa !2098
	call void @llvm.dbg.declare (metadata i8* %verbose.addr, metadata !3022, metadata !2084), !dbg !2280
	%0 = load %struct.Logger*, %struct.Logger** %_T47721520_9694.addr, align 8, !tbaa !2097, !dbg !3023
	%1 = bitcast %struct.Logger*  %0 to i8*, !dbg !3023
	%2 = load i8, i8*  %1, align 1, !tbaa !2098, !dbg !3023
	%3 = sext i8  %2 to i32, !dbg !3023
	%4 = icmp ne i32  %3, 0, !dbg !3023
	br i1  %4, label %L.B0008, label %L.B1146, !dbg !3023
L.B1146:
	ret i8 0, !dbg !3023
L.B1147:
	br label %L.R0007, !dbg !3023
L.B0008:
	%5 = load %struct.Logger*, %struct.Logger** %_T47721520_9694.addr, align 8, !tbaa !2097, !dbg !3024
	%6 = bitcast %struct.Logger*  %5 to i8*, !dbg !3024
	%7 = getelementptr i8, i8*  %6, i64 4, !dbg !3024
	%8 = bitcast i8*  %7 to i32*, !dbg !3024
	%9 = load i32, i32*  %8, align 4, !tbaa !2098, !dbg !3024
	%10 = getelementptr i8, i8*  %6, i64 8, !dbg !3024
	%11 = bitcast i8*  %10 to i32*, !dbg !3024
	%12 = load i32, i32*  %11, align 4, !tbaa !2098, !dbg !3024
	%13 = icmp eq i32  %9,  %12, !dbg !3024
	br i1  %13, label %L.B0009, label %L.B1148, !dbg !3024
L.B1148:
	ret i8 1, !dbg !3024
L.B1149:
	br label %L.R0007, !dbg !3024
L.B0009:
	call void @llvm.dbg.declare (metadata %struct._ZNSt7__cxx1118basic_stringstreamIcSt11char_traitsIcESaIcEEE* %tmp.addr, metadata !3026, metadata !2084), !dbg !2280
	call void  @_ZNSt7__cxx1118basic_stringstreamIcSt11char_traitsIcESaIcEEC1Ev (%struct._ZNSt7__cxx1118basic_stringstreamIcSt11char_traitsIcESaIcEEE* %tmp.addr), !dbg !3025
	call void @llvm.dbg.declare (metadata %struct._ZNSt7__cxx1112basic_stringIcSt11char_traitsIcESaIcEEE* %strTime.addr, metadata !3028, metadata !2084), !dbg !2280
	%14 = bitcast %struct._ZNSt7__cxx1112basic_stringIcSt11char_traitsIcESaIcEEE* %strTime.addr to i8*, !dbg !3027
	%15 = getelementptr i8, i8*  %14, i64 16, !dbg !3027
	%16 = bitcast %struct._ZNSt7__cxx1112basic_stringIcSt11char_traitsIcESaIcEEE* %strTime.addr to i8**, !dbg !3027
	store i8*  %15, i8**  %16, align 8, !tbaa !2097, !dbg !3027
	%17 = getelementptr i8, i8*  %14, i64 8, !dbg !3027
	%18 = bitcast i8*  %17 to i64*, !dbg !3027
	store i64 0, i64*  %18, align 8, !tbaa !2098, !dbg !3027
	store i8 0, i8*  %15, align 1, !tbaa !2098, !dbg !3027
	%19 = load i8, i8* %verbose.addr, align 1, !tbaa !2098, !dbg !3029
	%20 = sext i8  %19 to i32, !dbg !3029
	%21 = icmp eq i32  %20, 0, !dbg !3029
	br i1  %21, label %L.B0010, label %L.B1150, !dbg !3029
L.B1150:
	%22 = call i64  @time (i64* null) nounwind, !dbg !3030
	call void @llvm.dbg.declare (metadata i64* %rawTime.addr, metadata !3031, metadata !2084), !dbg !2284
	store i64  %22, i64* %rawTime.addr, align 8, !tbaa !3059, !dbg !3030
	%23 = call i8*  @ctime (i64* %rawTime.addr) nounwind, !dbg !3032
	store i8*  %23, i8** %..inline.addr.1, align 8, !tbaa !2097, !dbg !3033
	%24 = bitcast %struct._ZNSt7__cxx1112basic_stringIcSt11char_traitsIcESaIcEEE* %strTime.addr to i8*, !dbg !3033
	%25 = getelementptr i8, i8*  %24, i64 8, !dbg !3033
	%26 = bitcast i8*  %25 to i64*, !dbg !3033
	%27 = load i64, i64*  %26, align 8, !tbaa !2098, !dbg !3033
	store i64  %27, i64* %..inline.addr.2, align 8, !tbaa !3059, !dbg !3033
	%28 = call i64  @strlen (i8*  %23) nounwind, !dbg !3033
	%29 = load i64, i64* %..inline.addr.2, align 8, !tbaa !3059, !dbg !3033
	%30 = load i8*, i8** %..inline.addr.1, align 8, !tbaa !2097, !dbg !3033
	%31 = invoke %struct._ZNSt7__cxx1112basic_stringIcSt11char_traitsIcESaIcEEE*  @_ZNSt7__cxx1112basic_stringIcSt11char_traitsIcESaIcEE10_M_replaceEmmPKcm (%struct._ZNSt7__cxx1112basic_stringIcSt11char_traitsIcESaIcEEE* %strTime.addr, i64 0, i64  %29, i8*  %30, i64  %28)
		to label %L.B1151
		unwind label %L_T47727520_9694, !dbg !3033
L.B1151:
	%32 = bitcast %struct._ZNSt7__cxx1112basic_stringIcSt11char_traitsIcESaIcEEE*  %31 to i8*, !dbg !3033
	%33 = bitcast %struct._ZNSt7__cxx1112basic_stringIcSt11char_traitsIcESaIcEEE** %.Q0009.addr to i8**, !dbg !3033
	store i8*  %32, i8**  %33, align 8, !tbaa !2097, !dbg !3033
	%34 = call i64  @_ZNKSt7__cxx1112basic_stringIcSt11char_traitsIcESaIcEE4findEcm (%struct._ZNSt7__cxx1112basic_stringIcSt11char_traitsIcESaIcEEE* %strTime.addr, i8 10, i64 0) nounwind, !dbg !3034
	call void @llvm.dbg.declare (metadata i64* %lineBreak.addr, metadata !3035, metadata !2084), !dbg !2284
	store i64  %34, i64* %lineBreak.addr, align 8, !tbaa !3059, !dbg !3034
	%35 = icmp eq i64  %34, -1, !dbg !3036
	br i1  %35, label %L.B0012, label %L.B1152, !dbg !3036
L.B1152:
	store i64  %34, i64* %..inline.addr.5, align 8, !tbaa !3059, !dbg !3037
	store i64  %34, i64* %..inline.addr.6, align 8, !tbaa !3059, !dbg !3038
	%36 = bitcast %struct._ZNSt7__cxx1112basic_stringIcSt11char_traitsIcESaIcEEE* %strTime.addr to i8*, !dbg !3038
	%37 = getelementptr i8, i8*  %36, i64 8, !dbg !3038
	%38 = bitcast i8*  %37 to i64*, !dbg !3038
	%39 = load i64, i64*  %38, align 8, !tbaa !2098, !dbg !3038
	%40 = icmp ule i64  %34,  %39, !dbg !3038
	br i1  %40, label %L..inline.22994, label %L.B1153, !dbg !3038
L.B1153:
	%41 = bitcast %struct._ZNSt7__cxx1112basic_stringIcSt11char_traitsIcESaIcEEE* %strTime.addr to i8*, !dbg !3038
	%42 = getelementptr i8, i8*  %41, i64 8, !dbg !3038
	%43 = bitcast i8*  %42 to i64*, !dbg !3038
	%44 = load i64, i64*  %43, align 8, !tbaa !2098, !dbg !3038
	%45 = bitcast [55 x i8]* @.S11370 to i8*, !dbg !3038
	%46 = bitcast [20 x i8]* @.S11603 to i8*, !dbg !3038
	invoke void (i8*, ...)  @_ZSt24__throw_out_of_range_fmtPKcz (i8*  %45, i8*  %46, i64  %34, i64  %44) noreturn
		to label %L.B1154
		unwind label %L_T47727520_9694, !dbg !3038
L.B1154:
	br label %L..inline.22994
L..inline.22994:
	%47 = bitcast %struct._ZNSt7__cxx1112basic_stringIcSt11char_traitsIcESaIcEEE* %strTime.addr to i8*, !dbg !3039
	%48 = getelementptr i8, i8*  %47, i64 8, !dbg !3039
	%49 = bitcast i8*  %48 to i64*, !dbg !3039
	%50 = load i64, i64*  %49, align 8, !tbaa !2098, !dbg !3039
	%51 = load i64, i64* %..inline.addr.5, align 8, !tbaa !3059, !dbg !3039
	%52 = sub i64  %50,  %51, !dbg !3039
	%53 = icmp uge i64 1,  %52, !dbg !3039
	%54 = zext i1  %53 to i32, !dbg !3039
	%55 = trunc i32  %54 to i1, !dbg !3039
	%56 = select i1  %55, i64  %52, i64 1, !dbg !3039
	invoke void  @_ZNSt7__cxx1112basic_stringIcSt11char_traitsIcESaIcEE8_M_eraseEmm (%struct._ZNSt7__cxx1112basic_stringIcSt11char_traitsIcESaIcEEE* %strTime.addr, i64  %51, i64  %56)
		to label %L.B1155
		unwind label %L_T47727520_9694, !dbg !3039
L.B1155:
	br label %L.B0012
L.B0012:
	%57 = bitcast %struct._ZNSt7__cxx1112basic_stringIcSt11char_traitsIcESaIcEEE* %strTime.addr to i8**, !dbg !3040
	%58 = load i8*, i8**  %57, align 8, !tbaa !2097, !dbg !3040
	%59 = bitcast %struct._ZNSt7__cxx1112basic_stringIcSt11char_traitsIcESaIcEEE* %strTime.addr to i8*, !dbg !3040
	%60 = getelementptr i8, i8*  %59, i64 8, !dbg !3040
	%61 = bitcast i8*  %60 to i64*, !dbg !3040
	%62 = load i64, i64*  %61, align 8, !tbaa !2098, !dbg !3040
	%63 = bitcast %struct._ZNSt7__cxx1118basic_stringstreamIcSt11char_traitsIcESaIcEEE* %tmp.addr to i8*, !dbg !3041
	%64 = getelementptr i8, i8*  %63, i64 16, !dbg !3041
	%65 = bitcast i8*  %64 to %struct._ZSo*, !dbg !3041
	%66 = invoke %struct._ZSo*  @_ZSt16__ostream_insertIcSt11char_traitsIcEERSt13basic_ostreamIT_T0_ES6_PKS3_l (%struct._ZSo*  %65, i8*  %58, i64  %62)
		to label %L.B1156
		unwind label %L_T47727520_9694, !dbg !3041
L.B1156:
	%67 = bitcast %struct._ZSo*  %66 to i8*, !dbg !3041
	%68 = bitcast %struct._ZSo** %.Q0010.addr to i8**, !dbg !3041
	store i8*  %67, i8**  %68, align 8, !tbaa !2097, !dbg !3041
	%69 = load %struct._ZSo*, %struct._ZSo** %.Q0010.addr, align 8, !tbaa !2097, !dbg !3041
	%70 = bitcast %struct._ZSo*  %69 to i8*, !dbg !3041
	%71 = bitcast %struct._ZSo** %..inline.addr.210 to i8**, !dbg !3041
	store i8*  %70, i8**  %71, align 8, !tbaa !2097, !dbg !3041
	store i8 32, i8* %..inline.addr.220, align 1, !tbaa !2098, !dbg !3042
	%72 = load %struct._ZSo*, %struct._ZSo** %..inline.addr.210, align 8, !tbaa !2097, !dbg !3043
	%73 = invoke %struct._ZSo*  @_ZSt16__ostream_insertIcSt11char_traitsIcEERSt13basic_ostreamIT_T0_ES6_PKS3_l (%struct._ZSo*  %72, i8* %..inline.addr.220, i64 1)
		to label %L.B1157
		unwind label %L_T47727520_9694, !dbg !3043
L.B1157:
	%74 = bitcast %struct._ZSo*  %73 to i8*, !dbg !3043
	%75 = bitcast %struct._ZSo** %.Q0011.addr to i8**, !dbg !3043
	store i8*  %74, i8**  %75, align 8, !tbaa !2097, !dbg !3043
	%76 = load %struct._ZSo*, %struct._ZSo** %.Q0011.addr, align 8, !tbaa !2097, !dbg !3043
	%77 = bitcast %struct._ZSo*  %76 to i8*, !dbg !3043
	%78 = bitcast %struct._ZSo** %..inline.addr.240 to i8**, !dbg !3043
	store i8*  %77, i8**  %78, align 8, !tbaa !2097, !dbg !3043
	%79 = load %struct._ZSo*, %struct._ZSo** %..inline.addr.240, align 8, !tbaa !2097, !dbg !3044
	%80 = invoke %struct._ZSo*  @_ZSt4endlIcSt11char_traitsIcEERSt13basic_ostreamIT_T0_ES6_ (%struct._ZSo*  %79)
		to label %L.B1158
		unwind label %L_T47727520_9694, !dbg !3044
L.B1158:
	%81 = bitcast %struct._ZSo*  %80 to i8*, !dbg !3044
	%82 = bitcast %struct._ZSo** %.Q0012.addr to i8**, !dbg !3044
	store i8*  %81, i8**  %82, align 8, !tbaa !2097, !dbg !3044
	%83 = load %struct.Logger*, %struct.Logger** %_T47721520_9694.addr, align 8, !tbaa !2097, !dbg !3045
	%84 = bitcast %struct.Logger*  %83 to i8*, !dbg !3045
	%85 = getelementptr i8, i8*  %84, i64 16, !dbg !3045
	%86 = bitcast %struct._ZNSt7__cxx1118basic_stringstreamIcSt11char_traitsIcESaIcEEE** %..inline.addr.260 to i8**, !dbg !3045
	store i8*  %85, i8**  %86, align 8, !tbaa !2097, !dbg !3045
	%87 = load %struct._ZNSt7__cxx1118basic_stringstreamIcSt11char_traitsIcESaIcEEE*, %struct._ZNSt7__cxx1118basic_stringstreamIcSt11char_traitsIcESaIcEEE** %..inline.addr.260, align 8, !tbaa !2097, !dbg !3046
	%88 = bitcast %struct._ZNSt7__cxx1118basic_stringstreamIcSt11char_traitsIcESaIcEEE*  %87 to i8*, !dbg !3046
	%89 = getelementptr i8, i8*  %88, i64 24, !dbg !3046
	%90 = bitcast i8*  %89 to %struct._ZNSt7__cxx1115basic_stringbufIcSt11char_traitsIcESaIcEEE*, !dbg !3046
	invoke void  @_ZNKSt7__cxx1115basic_stringbufIcSt11char_traitsIcESaIcEE3strEv (%struct._ZNSt7__cxx1112basic_stringIcSt11char_traitsIcESaIcEEE* sret %_T47722704_9694.addr, %struct._ZNSt7__cxx1115basic_stringbufIcSt11char_traitsIcESaIcEEE*  %90)
		to label %L.B1159
		unwind label %L_T47727520_9694, !dbg !3046
L.B1159:
	%91 = call %struct._ZNSt7__cxx1112basic_stringIcSt11char_traitsIcESaIcEEE*  @_ZNSt7__cxx1112basic_stringIcSt11char_traitsIcESaIcEEaSEOS4_ (%struct._ZNSt7__cxx1112basic_stringIcSt11char_traitsIcESaIcEEE* %strTime.addr, %struct._ZNSt7__cxx1112basic_stringIcSt11char_traitsIcESaIcEEE* %_T47722704_9694.addr) nounwind, !dbg !3045
	%92 = bitcast %struct._ZNSt7__cxx1112basic_stringIcSt11char_traitsIcESaIcEEE* %_T47722704_9694.addr to i8**, !dbg !3047
	%93 = load i8*, i8**  %92, align 8, !tbaa !2097, !dbg !3047
	%94 = bitcast %struct._ZNSt7__cxx1112basic_stringIcSt11char_traitsIcESaIcEEE* %_T47722704_9694.addr to i8*, !dbg !3047
	%95 = getelementptr i8, i8*  %94, i64 16, !dbg !3047
	%96 = icmp eq i8*  %93,  %95, !dbg !3047
	br i1  %96, label %L..inline.23156, label %L.B1160, !dbg !3047
L.B1160:
	%97 = bitcast %struct._ZNSt7__cxx1112basic_stringIcSt11char_traitsIcESaIcEEE* %_T47722704_9694.addr to i8**, !dbg !3047
	%98 = load i8*, i8**  %97, align 8, !tbaa !2097, !dbg !3047
	call void  @_ZdlPv (i8*  %98) nounwind, !dbg !3047
	br label %L..inline.23156
L..inline.23156:
	%99 = bitcast %struct._ZNSt7__cxx1112basic_stringIcSt11char_traitsIcESaIcEEE* %strTime.addr to i8**, !dbg !3040
	%100 = load i8*, i8**  %99, align 8, !tbaa !2097, !dbg !3040
	%101 = bitcast %struct._ZNSt7__cxx1112basic_stringIcSt11char_traitsIcESaIcEEE* %strTime.addr to i8*, !dbg !3040
	%102 = getelementptr i8, i8*  %101, i64 8, !dbg !3040
	%103 = bitcast i8*  %102 to i64*, !dbg !3040
	%104 = load i64, i64*  %103, align 8, !tbaa !2098, !dbg !3040
	%105 = bitcast %struct._ZNSt7__cxx1118basic_stringstreamIcSt11char_traitsIcESaIcEEE* %tmp.addr to i8*, !dbg !3041
	%106 = getelementptr i8, i8*  %105, i64 16, !dbg !3041
	%107 = bitcast i8*  %106 to %struct._ZSo*, !dbg !3041
	%108 = invoke %struct._ZSo*  @_ZSt16__ostream_insertIcSt11char_traitsIcEERSt13basic_ostreamIT_T0_ES6_PKS3_l (%struct._ZSo*  %107, i8*  %100, i64  %104)
		to label %L.B1161
		unwind label %L_T47727520_9694, !dbg !3041
L.B1161:
	%109 = bitcast %struct._ZSo*  %108 to i8*, !dbg !3041
	%110 = bitcast %struct._ZSo** %.Q0013.addr to i8**, !dbg !3041
	store i8*  %109, i8**  %110, align 8, !tbaa !2097, !dbg !3041
	%111 = load %struct._ZSo*, %struct._ZSo** %.Q0013.addr, align 8, !tbaa !2097, !dbg !3041
	%112 = bitcast %struct._ZSo*  %111 to i8*, !dbg !3041
	%113 = bitcast %struct._ZSo** %..inline.addr.320 to i8**, !dbg !3041
	store i8*  %112, i8**  %113, align 8, !tbaa !2097, !dbg !3041
	%114 = load %struct._ZSo*, %struct._ZSo** %..inline.addr.320, align 8, !tbaa !2097, !dbg !3044
	%115 = invoke %struct._ZSo*  @_ZSt4endlIcSt11char_traitsIcEERSt13basic_ostreamIT_T0_ES6_ (%struct._ZSo*  %114)
		to label %L.B1162
		unwind label %L_T47727520_9694, !dbg !3044
L.B1162:
	%116 = bitcast %struct._ZSo*  %115 to i8*, !dbg !3044
	%117 = bitcast %struct._ZSo** %.Q0014.addr to i8**, !dbg !3044
	store i8*  %116, i8**  %117, align 8, !tbaa !2097, !dbg !3044
	br label %L.B0014, !dbg !3048
L.B0010:
	%118 = load %struct.Logger*, %struct.Logger** %_T47721520_9694.addr, align 8, !tbaa !2097, !dbg !3049
	%119 = bitcast %struct.Logger*  %118 to i8*, !dbg !3049
	%120 = getelementptr i8, i8*  %119, i64 16, !dbg !3049
	%121 = bitcast %struct._ZNSt7__cxx1118basic_stringstreamIcSt11char_traitsIcESaIcEEE** %..inline.addr.340 to i8**, !dbg !3049
	store i8*  %120, i8**  %121, align 8, !tbaa !2097, !dbg !3049
	%122 = load %struct._ZNSt7__cxx1118basic_stringstreamIcSt11char_traitsIcESaIcEEE*, %struct._ZNSt7__cxx1118basic_stringstreamIcSt11char_traitsIcESaIcEEE** %..inline.addr.340, align 8, !tbaa !2097, !dbg !3046
	%123 = bitcast %struct._ZNSt7__cxx1118basic_stringstreamIcSt11char_traitsIcESaIcEEE*  %122 to i8*, !dbg !3046
	%124 = getelementptr i8, i8*  %123, i64 24, !dbg !3046
	%125 = bitcast i8*  %124 to %struct._ZNSt7__cxx1115basic_stringbufIcSt11char_traitsIcESaIcEEE*, !dbg !3046
	invoke void  @_ZNKSt7__cxx1115basic_stringbufIcSt11char_traitsIcESaIcEE3strEv (%struct._ZNSt7__cxx1112basic_stringIcSt11char_traitsIcESaIcEEE* sret %_T47723000_9694.addr, %struct._ZNSt7__cxx1115basic_stringbufIcSt11char_traitsIcESaIcEEE*  %125)
		to label %L.B1163
		unwind label %L_T47727520_9694, !dbg !3046
L.B1163:
	%126 = call %struct._ZNSt7__cxx1112basic_stringIcSt11char_traitsIcESaIcEEE*  @_ZNSt7__cxx1112basic_stringIcSt11char_traitsIcESaIcEEaSEOS4_ (%struct._ZNSt7__cxx1112basic_stringIcSt11char_traitsIcESaIcEEE* %strTime.addr, %struct._ZNSt7__cxx1112basic_stringIcSt11char_traitsIcESaIcEEE* %_T47723000_9694.addr) nounwind, !dbg !3049
	%127 = bitcast %struct._ZNSt7__cxx1112basic_stringIcSt11char_traitsIcESaIcEEE* %_T47723000_9694.addr to i8**, !dbg !3047
	%128 = load i8*, i8**  %127, align 8, !tbaa !2097, !dbg !3047
	%129 = bitcast %struct._ZNSt7__cxx1112basic_stringIcSt11char_traitsIcESaIcEEE* %_T47723000_9694.addr to i8*, !dbg !3047
	%130 = getelementptr i8, i8*  %129, i64 16, !dbg !3047
	%131 = icmp eq i8*  %128,  %130, !dbg !3047
	br i1  %131, label %L..inline.23278, label %L.B1164, !dbg !3047
L.B1164:
	%132 = bitcast %struct._ZNSt7__cxx1112basic_stringIcSt11char_traitsIcESaIcEEE* %_T47723000_9694.addr to i8**, !dbg !3047
	%133 = load i8*, i8**  %132, align 8, !tbaa !2097, !dbg !3047
	call void  @_ZdlPv (i8*  %133) nounwind, !dbg !3047
	br label %L..inline.23278
L..inline.23278:
	%134 = bitcast %struct._ZNSt7__cxx1112basic_stringIcSt11char_traitsIcESaIcEEE* %strTime.addr to i8**, !dbg !3040
	%135 = load i8*, i8**  %134, align 8, !tbaa !2097, !dbg !3040
	%136 = bitcast %struct._ZNSt7__cxx1112basic_stringIcSt11char_traitsIcESaIcEEE* %strTime.addr to i8*, !dbg !3040
	%137 = getelementptr i8, i8*  %136, i64 8, !dbg !3040
	%138 = bitcast i8*  %137 to i64*, !dbg !3040
	%139 = load i64, i64*  %138, align 8, !tbaa !2098, !dbg !3040
	%140 = bitcast %struct._ZNSt7__cxx1118basic_stringstreamIcSt11char_traitsIcESaIcEEE* %tmp.addr to i8*, !dbg !3041
	%141 = getelementptr i8, i8*  %140, i64 16, !dbg !3041
	%142 = bitcast i8*  %141 to %struct._ZSo*, !dbg !3041
	%143 = invoke %struct._ZSo*  @_ZSt16__ostream_insertIcSt11char_traitsIcEERSt13basic_ostreamIT_T0_ES6_PKS3_l (%struct._ZSo*  %142, i8*  %135, i64  %139)
		to label %L.B1165
		unwind label %L_T47727520_9694, !dbg !3041
L.B1165:
	%144 = bitcast %struct._ZSo*  %143 to i8*, !dbg !3041
	%145 = bitcast %struct._ZSo** %.Q0015.addr to i8**, !dbg !3041
	store i8*  %144, i8**  %145, align 8, !tbaa !2097, !dbg !3041
	br label %L.B0014
L.B0014:
	%146 = load %struct.Logger*, %struct.Logger** %_T47721520_9694.addr, align 8, !tbaa !2097, !dbg !3050
	%147 = bitcast %struct.Logger*  %146 to i8*, !dbg !3050
	%148 = getelementptr i8, i8*  %147, i64 408, !dbg !3050
	%149 = bitcast i8*  %148 to i8**, !dbg !3050
	%150 = load i8*, i8**  %149, align 8, !tbaa !2097, !dbg !3050
	%151 = icmp eq i8*  %150,  null, !dbg !3050
	br i1  %151, label %L.B0017, label %L.B1166, !dbg !3050
L.B1166:
	%152 = bitcast %struct.Logger*  %146 to i8*, !dbg !3050
	%153 = getelementptr i8, i8*  %152, i64 408, !dbg !3050
	%154 = bitcast i8*  %153 to i8**, !dbg !3050
	%155 = load i8*, i8**  %154, align 8, !tbaa !2097, !dbg !3050
	%156 = getelementptr i8, i8*  %155, i64 16, !dbg !3050
	%157 = bitcast %struct._ZSo** %.I0000.addr to i8**, !dbg !3050
	store i8*  %156, i8**  %157, align 8, !tbaa !2097, !dbg !3050
	br label %L.B0018, !dbg !3050
L.B0017:
	%158 = bitcast %struct._ZSo** %.I0000.addr to i8**, !dbg !3050
	store i8* null, i8**  %158, align 8, !tbaa !2097, !dbg !3050
	br label %L.B0018
L.B0018:
	%159 = bitcast %struct._ZNSt7__cxx1118basic_stringstreamIcSt11char_traitsIcESaIcEEE* %tmp.addr to i8*, !dbg !3046
	%160 = getelementptr i8, i8*  %159, i64 24, !dbg !3046
	%161 = bitcast i8*  %160 to %struct._ZNSt7__cxx1115basic_stringbufIcSt11char_traitsIcESaIcEEE*, !dbg !3046
	invoke void  @_ZNKSt7__cxx1115basic_stringbufIcSt11char_traitsIcESaIcEE3strEv (%struct._ZNSt7__cxx1112basic_stringIcSt11char_traitsIcESaIcEEE* sret %_T47723296_9694.addr, %struct._ZNSt7__cxx1115basic_stringbufIcSt11char_traitsIcESaIcEEE*  %161)
		to label %L.B1167
		unwind label %L_T47727520_9694, !dbg !3046
L.B1167:
	%162 = load %struct._ZSo*, %struct._ZSo** %.I0000.addr, align 8, !tbaa !2097, !dbg !3050
	%163 = bitcast %struct._ZSo*  %162 to i8*, !dbg !3050
	%164 = bitcast %struct._ZSo** %..inline.addr.420 to i8**, !dbg !3050
	store i8*  %163, i8**  %164, align 8, !tbaa !2097, !dbg !3050
	%165 = bitcast %struct._ZNSt7__cxx1112basic_stringIcSt11char_traitsIcESaIcEEE* %_T47723296_9694.addr to i8**, !dbg !3040
	%166 = load i8*, i8**  %165, align 8, !tbaa !2097, !dbg !3040
	%167 = bitcast %struct._ZNSt7__cxx1112basic_stringIcSt11char_traitsIcESaIcEEE* %_T47723296_9694.addr to i8*, !dbg !3040
	%168 = getelementptr i8, i8*  %167, i64 8, !dbg !3040
	%169 = bitcast i8*  %168 to i64*, !dbg !3040
	%170 = load i64, i64*  %169, align 8, !tbaa !2098, !dbg !3040
	%171 = load %struct._ZSo*, %struct._ZSo** %..inline.addr.420, align 8, !tbaa !2097, !dbg !3041
	%172 = invoke %struct._ZSo*  @_ZSt16__ostream_insertIcSt11char_traitsIcEERSt13basic_ostreamIT_T0_ES6_PKS3_l (%struct._ZSo*  %171, i8*  %166, i64  %170)
		to label %L.B1168
		unwind label %L_T47726560_9694, !dbg !3041
L.B1168:
	%173 = bitcast %struct._ZSo*  %172 to i8*, !dbg !3041
	%174 = bitcast %struct._ZSo** %.Q0016.addr to i8**, !dbg !3041
	store i8*  %173, i8**  %174, align 8, !tbaa !2097, !dbg !3041
	%175 = load %struct._ZSo*, %struct._ZSo** %.Q0016.addr, align 8, !tbaa !2097, !dbg !3041
	%176 = bitcast %struct._ZSo*  %175 to i8*, !dbg !3041
	%177 = bitcast %struct._ZSo** %..inline.addr.460 to i8**, !dbg !3041
	store i8*  %176, i8**  %177, align 8, !tbaa !2097, !dbg !3041
	%178 = load %struct._ZSo*, %struct._ZSo** %..inline.addr.460, align 8, !tbaa !2097, !dbg !3044
	%179 = invoke %struct._ZSo*  @_ZSt5flushIcSt11char_traitsIcEERSt13basic_ostreamIT_T0_ES6_ (%struct._ZSo*  %178)
		to label %L.B1169
		unwind label %L_T47726560_9694, !dbg !3044
L.B1169:
	%180 = bitcast %struct._ZSo*  %179 to i8*, !dbg !3044
	%181 = bitcast %struct._ZSo** %.Q0017.addr to i8**, !dbg !3044
	store i8*  %180, i8**  %181, align 8, !tbaa !2097, !dbg !3044
	%182 = load i8*, i8**  %165, align 8, !tbaa !2097, !dbg !3047
	%183 = getelementptr i8, i8*  %167, i64 16, !dbg !3047
	%184 = icmp eq i8*  %182,  %183, !dbg !3047
	br i1  %184, label %L..inline.23427, label %L.B1170, !dbg !3047
L.B1170:
	%185 = bitcast %struct._ZNSt7__cxx1112basic_stringIcSt11char_traitsIcESaIcEEE* %_T47723296_9694.addr to i8**, !dbg !3047
	%186 = load i8*, i8**  %185, align 8, !tbaa !2097, !dbg !3047
	call void  @_ZdlPv (i8*  %186) nounwind, !dbg !3047
	br label %L..inline.23427
L..inline.23427:
	%187 = bitcast %struct._ZNSt7__cxx1112basic_stringIcSt11char_traitsIcESaIcEEE* %_T47723888_9694.addr to i8*, !dbg !3051
	%188 = getelementptr i8, i8*  %187, i64 16, !dbg !3051
	%189 = bitcast %struct._ZNSt7__cxx1112basic_stringIcSt11char_traitsIcESaIcEEE* %_T47723888_9694.addr to i8**, !dbg !3051
	store i8*  %188, i8**  %189, align 8, !tbaa !2097, !dbg !3051
	%190 = bitcast [1 x i8]* @.S10832 to i8*, !dbg !3051
	%191 = icmp eq i8*  %190,  null, !dbg !3051
	br i1  %191, label %L..inline.23507, label %L.B1171, !dbg !3051
L.B1171:
	%192 = bitcast [1 x i8]* @.S10832 to i8*, !dbg !3051
	%193 = call i64  @strlen (i8*  %192) nounwind, !dbg !3051
	%194 = getelementptr i8, i8*  %192, i64  %193, !dbg !3051
	store i8*  %194, i8** %..inline.addr.510, align 8, !tbaa !2097, !dbg !3051
	br label %L..inline.23515, !dbg !3051
L..inline.23507:
	%195 = bitcast [1 x i8]* @.S10832 to i8*, !dbg !3051
	%196 = getelementptr i8, i8*  %195, i64 18446744073709551615, !dbg !3051
	store i8*  %196, i8** %..inline.addr.510, align 8, !tbaa !2097, !dbg !3051
	br label %L..inline.23515
L..inline.23515:
	%197 = load i8*, i8** %..inline.addr.510, align 8, !tbaa !2097, !dbg !3051
	store i8*  %197, i8** %..inline.addr.520, align 8, !tbaa !2097, !dbg !3051
	call void @llvm.dbg.declare (metadata [1 x i8]* %....inline.__FILL_CHARARRAY.addr, metadata !3053, metadata !2084), !dbg !2282
	%198 = bitcast [1 x i8]* %....inline.__FILL_CHARARRAY.addr to i8*, !dbg !3052
	%199 = load i8, i8*  %198, align 1, !tbaa !2098, !dbg !3052
	%200 = zext i8  %199 to i32, !dbg !3052
	%201 = trunc i32  %200 to i8, !dbg !3052
	call void @llvm.dbg.declare (metadata [1 x i8]* %....inline.__FILL_CHARARRAY.addr.1, metadata !3053, metadata !2084), !dbg !2282
	%202 = bitcast [1 x i8]* %....inline.__FILL_CHARARRAY.addr.1 to i8*, !dbg !3052
	store i8  %201, i8*  %202, align 1, !tbaa !2098, !dbg !3052
	%203 = bitcast [1 x i8]* @.S10832 to i8*, !dbg !3051
	%204 = load i8*, i8** %..inline.addr.520, align 8, !tbaa !2097, !dbg !3051
	%205 = bitcast %struct._ZSt26random_access_iterator_tag* %..inline.addr.550 to i8*, !dbg !3051
	%206 = load i8, i8*  %205, align 1, !tbaa !2098, !dbg !3051
	invoke void  @_ZNSt7__cxx1112basic_stringIcSt11char_traitsIcESaIcEE12_M_constructIPKcEEvT_S8_St20forward_iterator_tag (%struct._ZNSt7__cxx1112basic_stringIcSt11char_traitsIcESaIcEEE* %_T47723888_9694.addr, i8*  %203, i8*  %204, i8  %206)
		to label %L.B1172
		unwind label %L_T47726800_9694, !dbg !3051
L.B1172:
	%207 = load %struct.Logger*, %struct.Logger** %_T47721520_9694.addr, align 8, !tbaa !2097, !dbg !3054
	%208 = bitcast %struct.Logger*  %207 to i8*, !dbg !3054
	%209 = getelementptr i8, i8*  %208, i64 40, !dbg !3054
	%210 = bitcast %struct._ZNSt7__cxx1115basic_stringbufIcSt11char_traitsIcESaIcEEE** %..inline.addr.560 to i8**, !dbg !3054
	store i8*  %209, i8**  %210, align 8, !tbaa !2097, !dbg !3054
	%211 = getelementptr i8, i8*  %208, i64 112, !dbg !3054
	%212 = bitcast %struct._ZNSt7__cxx1112basic_stringIcSt11char_traitsIcESaIcEEE** %..inline.addr.570 to i8**, !dbg !3054
	store i8*  %211, i8**  %212, align 8, !tbaa !2097, !dbg !3054
	%213 = bitcast %struct._ZNSt7__cxx1112basic_stringIcSt11char_traitsIcESaIcEEE* %_T47723888_9694.addr to i8**, !dbg !3054
	%214 = load i8*, i8**  %213, align 8, !tbaa !2097, !dbg !3054
	%215 = bitcast %struct._ZNSt7__cxx1112basic_stringIcSt11char_traitsIcESaIcEEE* %_T47723888_9694.addr to i8*, !dbg !3054
	%216 = getelementptr i8, i8*  %215, i64 8, !dbg !3054
	%217 = bitcast i8*  %216 to i64*, !dbg !3054
	%218 = load i64, i64*  %217, align 8, !tbaa !2098, !dbg !3054
	%219 = getelementptr i8, i8*  %208, i64 120, !dbg !3054
	%220 = bitcast i8*  %219 to i64*, !dbg !3054
	%221 = load i64, i64*  %220, align 8, !tbaa !2098, !dbg !3054
	%222 = load %struct._ZNSt7__cxx1112basic_stringIcSt11char_traitsIcESaIcEEE*, %struct._ZNSt7__cxx1112basic_stringIcSt11char_traitsIcESaIcEEE** %..inline.addr.570, align 8, !tbaa !2097, !dbg !3054
	%223 = invoke %struct._ZNSt7__cxx1112basic_stringIcSt11char_traitsIcESaIcEEE*  @_ZNSt7__cxx1112basic_stringIcSt11char_traitsIcESaIcEE10_M_replaceEmmPKcm (%struct._ZNSt7__cxx1112basic_stringIcSt11char_traitsIcESaIcEEE*  %222, i64 0, i64  %221, i8*  %214, i64  %218)
		to label %L.B1173
		unwind label %L_T47727040_9694, !dbg !3054
L.B1173:
	%224 = bitcast %struct._ZNSt7__cxx1112basic_stringIcSt11char_traitsIcESaIcEEE*  %223 to i8*, !dbg !3054
	%225 = bitcast %struct._ZNSt7__cxx1112basic_stringIcSt11char_traitsIcESaIcEEE** %.Q0018.addr to i8**, !dbg !3054
	store i8*  %224, i8**  %225, align 8, !tbaa !2097, !dbg !3054
	%226 = load %struct._ZNSt7__cxx1115basic_stringbufIcSt11char_traitsIcESaIcEEE*, %struct._ZNSt7__cxx1115basic_stringbufIcSt11char_traitsIcESaIcEEE** %..inline.addr.560, align 8, !tbaa !2097, !dbg !3054
	%227 = bitcast %struct._ZNSt7__cxx1115basic_stringbufIcSt11char_traitsIcESaIcEEE*  %226 to i8*, !dbg !3054
	%228 = bitcast %struct._ZNSt7__cxx1115basic_stringbufIcSt11char_traitsIcESaIcEEE** %..inline.addr.620 to i8**, !dbg !3054
	store i8*  %227, i8**  %228, align 8, !tbaa !2097, !dbg !3054
	%229 = getelementptr i8, i8*  %227, i64 64, !dbg !3054
	%230 = bitcast i8*  %229 to i32*, !dbg !3054
	%231 = load i32, i32*  %230, align 4, !tbaa !2098, !dbg !3054
	%232 = load %struct._ZNSt7__cxx1115basic_stringbufIcSt11char_traitsIcESaIcEEE*, %struct._ZNSt7__cxx1115basic_stringbufIcSt11char_traitsIcESaIcEEE** %..inline.addr.620, align 8, !tbaa !2097, !dbg !3054
	%233 = bitcast %struct._ZNSt7__cxx1115basic_stringbufIcSt11char_traitsIcESaIcEEE*  %232 to i8*, !dbg !3054
	%234 = getelementptr i8, i8*  %233, i64 64, !dbg !3054
	%235 = bitcast i8*  %234 to i32*, !dbg !3054
	store i32  %231, i32*  %235, align 4, !tbaa !2098, !dbg !3054
	store i64 0, i64* %..inline.addr.630, align 8, !tbaa !3059, !dbg !3054
	%236 = and i32  %231, 3, !dbg !3054
	%237 = icmp eq i32  %236, 0, !dbg !3054
	br i1  %237, label %L..inline.23593, label %L.B1174, !dbg !3054
L.B1174:
	%238 = bitcast %struct._ZNSt7__cxx1115basic_stringbufIcSt11char_traitsIcESaIcEEE*  %232 to i8*, !dbg !3054
	%239 = getelementptr i8, i8*  %238, i64 80, !dbg !3054
	%240 = bitcast i8*  %239 to i64*, !dbg !3054
	%241 = load i64, i64*  %240, align 8, !tbaa !2098, !dbg !3054
	store i64  %241, i64* %..inline.addr.630, align 8, !tbaa !3059, !dbg !3054
	br label %L..inline.23593
L..inline.23593:
	%242 = load %struct._ZNSt7__cxx1115basic_stringbufIcSt11char_traitsIcESaIcEEE*, %struct._ZNSt7__cxx1115basic_stringbufIcSt11char_traitsIcESaIcEEE** %..inline.addr.620, align 8, !tbaa !2097, !dbg !3054
	%243 = bitcast %struct._ZNSt7__cxx1115basic_stringbufIcSt11char_traitsIcESaIcEEE*  %242 to i8*, !dbg !3054
	%244 = getelementptr i8, i8*  %243, i64 72, !dbg !3054
	%245 = bitcast i8*  %244 to i8**, !dbg !3054
	%246 = load i8*, i8**  %245, align 8, !tbaa !2097, !dbg !3054
	%247 = load i64, i64* %..inline.addr.630, align 8, !tbaa !3059, !dbg !3054
	invoke void  @_ZNSt7__cxx1115basic_stringbufIcSt11char_traitsIcESaIcEE7_M_syncEPcmm (%struct._ZNSt7__cxx1115basic_stringbufIcSt11char_traitsIcESaIcEEE*  %242, i8*  %246, i64 0, i64  %247)
		to label %L.B1175
		unwind label %L_T47727040_9694, !dbg !3054
L.B1175:
	%248 = bitcast %struct._ZNSt7__cxx1112basic_stringIcSt11char_traitsIcESaIcEEE* %_T47723888_9694.addr to i8**, !dbg !3047
	%249 = load i8*, i8**  %248, align 8, !tbaa !2097, !dbg !3047
	%250 = bitcast %struct._ZNSt7__cxx1112basic_stringIcSt11char_traitsIcESaIcEEE* %_T47723888_9694.addr to i8*, !dbg !3047
	%251 = getelementptr i8, i8*  %250, i64 16, !dbg !3047
	%252 = icmp eq i8*  %249,  %251, !dbg !3047
	br i1  %252, label %L..inline.23664, label %L.B1176, !dbg !3047
L.B1176:
	%253 = bitcast %struct._ZNSt7__cxx1112basic_stringIcSt11char_traitsIcESaIcEEE* %_T47723888_9694.addr to i8**, !dbg !3047
	%254 = load i8*, i8**  %253, align 8, !tbaa !2097, !dbg !3047
	call void  @_ZdlPv (i8*  %254) nounwind, !dbg !3047
	br label %L..inline.23664
L..inline.23664:
	%255 = load %struct.Logger*, %struct.Logger** %_T47721520_9694.addr, align 8, !tbaa !2097, !dbg !3055
	%256 = bitcast %struct.Logger*  %255 to i8*, !dbg !3055
	%257 = getelementptr i8, i8*  %256, i64 16, !dbg !3055
	%258 = bitcast i8*  %257 to i8**, !dbg !3055
	%259 = load i8*, i8**  %258, align 8, !tbaa !2097, !dbg !3055
	%260 = getelementptr i8, i8*  %259, i64 18446744073709551592, !dbg !3055
	%261 = bitcast i8*  %260 to i64*, !dbg !3055
	%262 = load i64, i64*  %261, align 8, !tbaa !2098, !dbg !3055
	%263 = getelementptr i8, i8*  %257, i64  %262, !dbg !3055
	%264 = bitcast i8*  %263 to %struct._ZSt9basic_iosIcSt11char_traitsIcEE*, !dbg !3055
	invoke void  @_ZNSt9basic_iosIcSt11char_traitsIcEE5clearESt12_Ios_Iostate (%struct._ZSt9basic_iosIcSt11char_traitsIcEE*  %264, i32 0)
		to label %L.B1177
		unwind label %L_T47727520_9694, !dbg !3055
L.B1177:
	%265 = bitcast %struct._ZNSt7__cxx1112basic_stringIcSt11char_traitsIcESaIcEEE* %strTime.addr to i8**, !dbg !3047
	%266 = load i8*, i8**  %265, align 8, !tbaa !2097, !dbg !3047
	%267 = bitcast %struct._ZNSt7__cxx1112basic_stringIcSt11char_traitsIcESaIcEEE* %strTime.addr to i8*, !dbg !3047
	%268 = getelementptr i8, i8*  %267, i64 16, !dbg !3047
	%269 = icmp eq i8*  %266,  %268, !dbg !3047
	br i1  %269, label %L..inline.23751, label %L.B1178, !dbg !3047
L.B1178:
	%270 = bitcast %struct._ZNSt7__cxx1112basic_stringIcSt11char_traitsIcESaIcEEE* %strTime.addr to i8**, !dbg !3047
	%271 = load i8*, i8**  %270, align 8, !tbaa !2097, !dbg !3047
	call void  @_ZdlPv (i8*  %271) nounwind, !dbg !3047
	br label %L..inline.23751
L..inline.23751:
	%272 = bitcast i64*** @_ZTTNSt7__cxx1118basic_stringstreamIcSt11char_traitsIcESaIcEEE to i64**, !dbg !3056
	call void  @_ZNSt7__cxx1118basic_stringstreamIcSt11char_traitsIcESaIcEED2Ev (%struct._ZNSt7__cxx1118basic_stringstreamIcSt11char_traitsIcESaIcEEE* %tmp.addr, i64**  %272) nounwind, !dbg !3056
	%273 = bitcast %struct._ZNSt7__cxx1118basic_stringstreamIcSt11char_traitsIcESaIcEEE* %tmp.addr to i8*, !dbg !3057
	%274 = getelementptr i8, i8*  %273, i64 128, !dbg !3057
	%275 = bitcast i8*  %274 to %struct._ZSt9basic_iosIcSt11char_traitsIcEE*, !dbg !3057
	call void  @_ZNSt9basic_iosIcSt11char_traitsIcEED1Ev (%struct._ZSt9basic_iosIcSt11char_traitsIcEE*  %275) nounwind, !dbg !3057
	ret i8 1, !dbg !3056
L.B1179:
	br label %L.R0007, !dbg !3056
L_T47726560_9694:
	%276 = landingpad %astruct.dt64
	cleanup
	%277 = extractvalue %astruct.dt64  %276, 0, !dbg !3056
	store i8*  %277, i8** %__caught_object_address.addr, align 1, !tbaa !2097, !dbg !3056
	%278 = extractvalue %astruct.dt64  %276, 1, !dbg !3056
	store i32  %278, i32* %__catch_clause_number.addr, align 1, !tbaa !2098, !dbg !3056
	%279 = bitcast %struct._ZNSt7__cxx1112basic_stringIcSt11char_traitsIcESaIcEEE* %_T47723296_9694.addr to i8**, !dbg !3047
	%280 = load i8*, i8**  %279, align 8, !tbaa !2097, !dbg !3047
	%281 = bitcast %struct._ZNSt7__cxx1112basic_stringIcSt11char_traitsIcESaIcEEE* %_T47723296_9694.addr to i8*, !dbg !3047
	%282 = getelementptr i8, i8*  %281, i64 16, !dbg !3047
	%283 = icmp eq i8*  %280,  %282, !dbg !3047
	br i1  %283, label %L..inline.23844, label %L.B1180, !dbg !3047
L.B1180:
	%284 = bitcast %struct._ZNSt7__cxx1112basic_stringIcSt11char_traitsIcESaIcEEE* %_T47723296_9694.addr to i8**, !dbg !3047
	%285 = load i8*, i8**  %284, align 8, !tbaa !2097, !dbg !3047
	call void  @_ZdlPv (i8*  %285) nounwind, !dbg !3047
	br label %L_T47726200_9694, !dbg !3056
L_T47726800_9694:
	%286 = landingpad %astruct.dt64
	cleanup
	%287 = extractvalue %astruct.dt64  %286, 0, !dbg !3056
	store i8*  %287, i8** %__caught_object_address.addr, align 1, !tbaa !2097, !dbg !3056
	%288 = extractvalue %astruct.dt64  %286, 1, !dbg !3056
	store i32  %288, i32* %__catch_clause_number.addr, align 1, !tbaa !2098, !dbg !3056
	br label %L_T47726200_9694, !dbg !3056
L_T47727040_9694:
	%289 = landingpad %astruct.dt64
	cleanup
	%290 = extractvalue %astruct.dt64  %289, 0, !dbg !3056
	store i8*  %290, i8** %__caught_object_address.addr, align 1, !tbaa !2097, !dbg !3056
	%291 = extractvalue %astruct.dt64  %289, 1, !dbg !3056
	store i32  %291, i32* %__catch_clause_number.addr, align 1, !tbaa !2098, !dbg !3056
	%292 = bitcast %struct._ZNSt7__cxx1112basic_stringIcSt11char_traitsIcESaIcEEE* %_T47723888_9694.addr to i8**, !dbg !3047
	%293 = load i8*, i8**  %292, align 8, !tbaa !2097, !dbg !3047
	%294 = bitcast %struct._ZNSt7__cxx1112basic_stringIcSt11char_traitsIcESaIcEEE* %_T47723888_9694.addr to i8*, !dbg !3047
	%295 = getelementptr i8, i8*  %294, i64 16, !dbg !3047
	%296 = icmp eq i8*  %293,  %295, !dbg !3047
	br i1  %296, label %L..inline.23931, label %L.B1181, !dbg !3047
L.B1181:
	%297 = bitcast %struct._ZNSt7__cxx1112basic_stringIcSt11char_traitsIcESaIcEEE* %_T47723888_9694.addr to i8**, !dbg !3047
	%298 = load i8*, i8**  %297, align 8, !tbaa !2097, !dbg !3047
	call void  @_ZdlPv (i8*  %298) nounwind, !dbg !3047
	br label %L_T47726920_9694, !dbg !3056
L_T47727280_9694:
	%299 = landingpad %astruct.dt64
	cleanup
	br label %L..inline.24024
L..inline.24024:
	br label %L_T47727400_9694
L_T47727400_9694:
	%300 = bitcast i64*** @_ZTTNSt7__cxx1118basic_stringstreamIcSt11char_traitsIcESaIcEEE to i64**, !dbg !3056
	call void  @_ZNSt7__cxx1118basic_stringstreamIcSt11char_traitsIcESaIcEED2Ev (%struct._ZNSt7__cxx1118basic_stringstreamIcSt11char_traitsIcESaIcEEE* %tmp.addr, i64**  %300) nounwind, !dbg !3056
	%301 = bitcast %struct._ZNSt7__cxx1118basic_stringstreamIcSt11char_traitsIcESaIcEEE* %tmp.addr to i8*, !dbg !3057
	%302 = getelementptr i8, i8*  %301, i64 128, !dbg !3057
	%303 = bitcast i8*  %302 to %struct._ZSt9basic_iosIcSt11char_traitsIcEE*, !dbg !3057
	call void  @_ZNSt9basic_iosIcSt11char_traitsIcEED1Ev (%struct._ZSt9basic_iosIcSt11char_traitsIcEE*  %303) nounwind, !dbg !3057
	%304 = load i32, i32* %__catch_clause_number.addr, align 4, !tbaa !2098, !dbg !3056
	%305 = load i8*, i8** %__caught_object_address.addr, align 8, !tbaa !2097, !dbg !3056
	%306 = insertvalue %astruct.dt64 undef, i8*  %305, 0, !dbg !3056
	%307 = insertvalue %astruct.dt64  %306, i32  %304, 1, !dbg !3056
	resume %astruct.dt64  %307 , !dbg !3056
L_T47727520_9694:
	%308 = landingpad %astruct.dt64
	cleanup
	%309 = extractvalue %astruct.dt64  %308, 0, !dbg !3056
	store i8*  %309, i8** %__caught_object_address.addr, align 1, !tbaa !2097, !dbg !3056
	%310 = extractvalue %astruct.dt64  %308, 1, !dbg !3056
	store i32  %310, i32* %__catch_clause_number.addr, align 1, !tbaa !2098, !dbg !3056
	br label %L..inline.23844
L..inline.23844:
	br label %L..inline.23931
L..inline.23931:
	br label %L_T47726920_9694
L_T47726920_9694:
	br label %L_T47726200_9694
L_T47726200_9694:
	%311 = bitcast %struct._ZNSt7__cxx1112basic_stringIcSt11char_traitsIcESaIcEEE* %strTime.addr to i8**, !dbg !3047
	%312 = load i8*, i8**  %311, align 8, !tbaa !2097, !dbg !3047
	%313 = bitcast %struct._ZNSt7__cxx1112basic_stringIcSt11char_traitsIcESaIcEEE* %strTime.addr to i8*, !dbg !3047
	%314 = getelementptr i8, i8*  %313, i64 16, !dbg !3047
	%315 = icmp eq i8*  %312,  %314, !dbg !3047
	br i1  %315, label %L..inline.24024, label %L.B1182, !dbg !3047
L.B1182:
	%316 = bitcast %struct._ZNSt7__cxx1112basic_stringIcSt11char_traitsIcESaIcEEE* %strTime.addr to i8**, !dbg !3047
	%317 = load i8*, i8**  %316, align 8, !tbaa !2097, !dbg !3047
	call void  @_ZdlPv (i8*  %317) nounwind, !dbg !3047
	br label %L_T47727400_9694, !dbg !3056
L_T47727640_9694:
	%318 = landingpad %astruct.dt64
	cleanup
	br label %L.R0007
L.R0007:
	ret i8 0
}

%struct.ompi_communicator_t = type opaque

define signext i8 @_ZN6Logger4openEP19ompi_communicator_tRKiRKNSt7__cxx1112basic_stringIcSt11char_traitsIcESaIcEEERKb(%struct.Logger* %_T47721152_9696.arg, %struct.ompi_communicator_t* %comm.arg, i32* %MASTERRANK.arg, %struct._ZNSt7__cxx1112basic_stringIcSt11char_traitsIcESaIcEEE* %fname.arg, i8* %append.arg) #0 inlinehint personality i8* bitcast (i32 (...)* @__gxx_personality_v0 to i8*) !dbg !3070 {
L.entry:
	%_T47721152_9696.addr = alloca %struct.Logger*, align 8
	%comm.addr = alloca %struct.ompi_communicator_t*, align 8
	%MASTERRANK.addr = alloca i32*, align 8
	%fname.addr = alloca %struct._ZNSt7__cxx1112basic_stringIcSt11char_traitsIcESaIcEEE*, align 8
	%append.addr = alloca i8*, align 8
	%.Q0019.addr = alloca i8*, align 8
	%_T47723520_9696.addr = alloca %struct._ZSt13basic_fstreamIcSt11char_traitsIcEE*, align 8
	%.I0001.addr = alloca %struct._ZSt13basic_fstreamIcSt11char_traitsIcEE*, align 8
	%..inline.addr = alloca %struct._ZSt13basic_fstreamIcSt11char_traitsIcEE*, align 8
	%..inline.addr.1 = alloca i8*, align 8
	%.Q0020.addr = alloca %struct._ZSt13basic_filebufIcSt11char_traitsIcEE*, align 8
	%..inline.addr.2 = alloca %struct._ZSt9basic_iosIcSt11char_traitsIcEE*, align 8
	%..inline.addr.3 = alloca %struct._ZSt9basic_iosIcSt11char_traitsIcEE*, align 8
	%..inline.addr.4 = alloca i32, align 4
	%..inline.addr.5 = alloca %struct._ZSt13basic_fstreamIcSt11char_traitsIcEE*, align 8
	%..inline.addr.6 = alloca i8*, align 8
	%.Q0021.addr = alloca %struct._ZSt13basic_filebufIcSt11char_traitsIcEE*, align 8
	%..inline.addr.7 = alloca %struct._ZSt9basic_iosIcSt11char_traitsIcEE*, align 8
	%..inline.addr.8 = alloca %struct._ZSt9basic_iosIcSt11char_traitsIcEE*, align 8
	%..inline.addr.9 = alloca i32, align 4
	%..inline.addr.250 = alloca %struct._ZSt9basic_iosIcSt11char_traitsIcEE*, align 8
	%rvalue.addr = alloca i32, align 4
	%__caught_object_address.addr = alloca i8*, align 8
	%__catch_clause_number.addr = alloca i32, align 4

	call void @llvm.dbg.declare (metadata %struct.Logger** %_T47721152_9696.addr, metadata !3132, metadata !2084), !dbg !3071
	store %struct.Logger* %_T47721152_9696.arg, %struct.Logger** %_T47721152_9696.addr, align 8, !tbaa !2097
	call void @llvm.dbg.declare (metadata %struct.Logger** %_T47721152_9696.addr, metadata !3133, metadata !2084), !dbg !3071
	call void @llvm.dbg.declare (metadata %struct.ompi_communicator_t** %comm.addr, metadata !3134, metadata !2084), !dbg !3071
	store %struct.ompi_communicator_t* %comm.arg, %struct.ompi_communicator_t** %comm.addr, align 8, !tbaa !2097
	call void @llvm.dbg.declare (metadata %struct.ompi_communicator_t** %comm.addr, metadata !3135, metadata !2084), !dbg !3071
	call void @llvm.dbg.declare (metadata i32** %MASTERRANK.addr, metadata !3136, metadata !2084), !dbg !3071
	store i32* %MASTERRANK.arg, i32** %MASTERRANK.addr, align 8, !tbaa !2097
	call void @llvm.dbg.declare (metadata i32** %MASTERRANK.addr, metadata !3137, metadata !2084), !dbg !3071
	call void @llvm.dbg.declare (metadata %struct._ZNSt7__cxx1112basic_stringIcSt11char_traitsIcESaIcEEE** %fname.addr, metadata !3138, metadata !2084), !dbg !3071
	store %struct._ZNSt7__cxx1112basic_stringIcSt11char_traitsIcESaIcEEE* %fname.arg, %struct._ZNSt7__cxx1112basic_stringIcSt11char_traitsIcESaIcEEE** %fname.addr, align 8, !tbaa !2097
	call void @llvm.dbg.declare (metadata %struct._ZNSt7__cxx1112basic_stringIcSt11char_traitsIcESaIcEEE** %fname.addr, metadata !3139, metadata !2084), !dbg !3071
	call void @llvm.dbg.declare (metadata i8** %append.addr, metadata !3140, metadata !2084), !dbg !3071
	store i8* %append.arg, i8** %append.addr, align 8, !tbaa !2097
	call void @llvm.dbg.declare (metadata i8** %append.addr, metadata !3141, metadata !2084), !dbg !3071
	%0 = load %struct.ompi_communicator_t*, %struct.ompi_communicator_t** %comm.addr, align 8, !tbaa !2097, !dbg !3142
	%1 = load %struct.Logger*, %struct.Logger** %_T47721152_9696.addr, align 8, !tbaa !2097, !dbg !3142
	%2 = bitcast %struct.Logger*  %1 to i8*, !dbg !3142
	%3 = getelementptr i8, i8*  %2, i64 4, !dbg !3142
	%4 = bitcast i8*  %3 to i32*, !dbg !3142
	%5 = call i32  @MPI_Comm_rank (%struct.ompi_communicator_t*  %0, i32*  %4) nounwind, !dbg !3142
	%6 = load i32*, i32** %MASTERRANK.addr, align 8, !tbaa !2097, !dbg !3143
	%7 = load i32, i32*  %6, align 4, !tbaa !2098, !dbg !3143
	%8 = load %struct.Logger*, %struct.Logger** %_T47721152_9696.addr, align 8, !tbaa !2097, !dbg !3143
	%9 = bitcast %struct.Logger*  %8 to i8*, !dbg !3143
	%10 = getelementptr i8, i8*  %9, i64 8, !dbg !3143
	%11 = bitcast i8*  %10 to i32*, !dbg !3143
	store i32  %7, i32*  %11, align 4, !tbaa !2098, !dbg !3143
	%12 = getelementptr i8, i8*  %9, i64 4, !dbg !3144
	%13 = bitcast i8*  %12 to i32*, !dbg !3144
	%14 = load i32, i32*  %13, align 4, !tbaa !2098, !dbg !3144
	%15 = icmp eq i32  %14,  %7, !dbg !3144
	br i1  %15, label %L.B0019, label %L.B1193, !dbg !3144
L.B1193:
	ret i8 1, !dbg !3144
L.B1194:
	br label %L.R0008, !dbg !3144
L.B0019:
	%16 = call i8*  @_Znwm (i64 528), !dbg !3145
	store i8*  %16, i8** %.Q0019.addr, align 8, !tbaa !2097, !dbg !3145
	%17 = bitcast %struct._ZSt13basic_fstreamIcSt11char_traitsIcEE** %_T47723520_9696.addr to i8**, !dbg !3145
	store i8*  %16, i8**  %17, align 8, !tbaa !2097, !dbg !3145
	%18 = icmp eq i8*  %16,  null, !dbg !3145
	br i1  %18, label %L.B0022, label %L.B1195, !dbg !3145
L.B1195:
	%19 = load %struct._ZSt13basic_fstreamIcSt11char_traitsIcEE*, %struct._ZSt13basic_fstreamIcSt11char_traitsIcEE** %_T47723520_9696.addr, align 8, !tbaa !2097, !dbg !3145
	invoke void  @_ZNSt13basic_fstreamIcSt11char_traitsIcEEC1Ev (%struct._ZSt13basic_fstreamIcSt11char_traitsIcEE*  %19)
		to label %L.B1196
		unwind label %L_T47725000_9696, !dbg !3145
L.B1196:
	%20 = load %struct._ZSt13basic_fstreamIcSt11char_traitsIcEE*, %struct._ZSt13basic_fstreamIcSt11char_traitsIcEE** %_T47723520_9696.addr, align 8, !tbaa !2097, !dbg !3145
	%21 = bitcast %struct._ZSt13basic_fstreamIcSt11char_traitsIcEE*  %20 to i8*, !dbg !3145
	%22 = bitcast %struct._ZSt13basic_fstreamIcSt11char_traitsIcEE** %.I0001.addr to i8**, !dbg !3145
	store i8*  %21, i8**  %22, align 8, !tbaa !2097, !dbg !3145
	br label %L.B0023, !dbg !3145
L.B0022:
	%23 = bitcast %struct._ZSt13basic_fstreamIcSt11char_traitsIcEE** %.I0001.addr to i8**, !dbg !3145
	store i8* null, i8**  %23, align 8, !tbaa !2097, !dbg !3145
	br label %L.B0023
L.B0023:
	%24 = load %struct._ZSt13basic_fstreamIcSt11char_traitsIcEE*, %struct._ZSt13basic_fstreamIcSt11char_traitsIcEE** %.I0001.addr, align 8, !tbaa !2097, !dbg !3145
	%25 = bitcast %struct._ZSt13basic_fstreamIcSt11char_traitsIcEE*  %24 to i8*, !dbg !3145
	%26 = load %struct.Logger*, %struct.Logger** %_T47721152_9696.addr, align 8, !tbaa !2097, !dbg !3145
	%27 = bitcast %struct.Logger*  %26 to i8*, !dbg !3145
	%28 = getelementptr i8, i8*  %27, i64 408, !dbg !3145
	%29 = bitcast i8*  %28 to i8**, !dbg !3145
	store i8*  %25, i8**  %29, align 8, !tbaa !2097, !dbg !3145
	%30 = load i8*, i8** %append.addr, align 8, !tbaa !2097, !dbg !3146
	%31 = load i8, i8*  %30, align 1, !tbaa !2098, !dbg !3146
	%32 = sext i8  %31 to i32, !dbg !3146
	%33 = icmp eq i32  %32, 0, !dbg !3146
	br i1  %33, label %L.B0024, label %L.B1197, !dbg !3146
L.B1197:
	%34 = bitcast %struct.Logger*  %26 to i8*, !dbg !3147
	%35 = getelementptr i8, i8*  %34, i64 408, !dbg !3147
	%36 = bitcast i8*  %35 to i8**, !dbg !3147
	%37 = load i8*, i8**  %36, align 8, !tbaa !2097, !dbg !3147
	%38 = bitcast %struct._ZSt13basic_fstreamIcSt11char_traitsIcEE** %..inline.addr to i8**, !dbg !3147
	store i8*  %37, i8**  %38, align 8, !tbaa !2097, !dbg !3147
	%39 = load %struct._ZNSt7__cxx1112basic_stringIcSt11char_traitsIcESaIcEEE*, %struct._ZNSt7__cxx1112basic_stringIcSt11char_traitsIcESaIcEEE** %fname.addr, align 8, !tbaa !2097, !dbg !3148
	%40 = bitcast %struct._ZNSt7__cxx1112basic_stringIcSt11char_traitsIcESaIcEEE*  %39 to i8**, !dbg !3148
	%41 = load i8*, i8**  %40, align 8, !tbaa !2097, !dbg !3148
	%42 = load %struct._ZSt13basic_fstreamIcSt11char_traitsIcEE*, %struct._ZSt13basic_fstreamIcSt11char_traitsIcEE** %..inline.addr, align 8, !tbaa !2097, !dbg !3149
	%43 = bitcast %struct._ZSt13basic_fstreamIcSt11char_traitsIcEE*  %42 to i8*, !dbg !3149
	%44 = getelementptr i8, i8*  %43, i64 24, !dbg !3149
	%45 = bitcast i8*  %44 to %struct._ZSt13basic_filebufIcSt11char_traitsIcEE*, !dbg !3149
	%46 = call %struct._ZSt13basic_filebufIcSt11char_traitsIcEE*  @_ZNSt13basic_filebufIcSt11char_traitsIcEE4openEPKcSt13_Ios_Openmode (%struct._ZSt13basic_filebufIcSt11char_traitsIcEE*  %45, i8*  %41, i32 17), !dbg !3149
	%47 = bitcast %struct._ZSt13basic_filebufIcSt11char_traitsIcEE*  %46 to i8*, !dbg !3149
	%48 = bitcast %struct._ZSt13basic_filebufIcSt11char_traitsIcEE** %.Q0020.addr to i8**, !dbg !3149
	store i8*  %47, i8**  %48, align 8, !tbaa !2097, !dbg !3149
	%49 = load %struct._ZSt13basic_filebufIcSt11char_traitsIcEE*, %struct._ZSt13basic_filebufIcSt11char_traitsIcEE** %.Q0020.addr, align 8, !tbaa !2097, !dbg !3149
	%50 = bitcast %struct._ZSt13basic_filebufIcSt11char_traitsIcEE*  %49 to i8*, !dbg !3149
	%51 = icmp ne i8*  %50,  null, !dbg !3149
	br i1  %51, label %L..inline.24512, label %L.B1198, !dbg !3149
L.B1198:
	%52 = load %struct._ZSt13basic_fstreamIcSt11char_traitsIcEE*, %struct._ZSt13basic_fstreamIcSt11char_traitsIcEE** %..inline.addr, align 8, !tbaa !2097, !dbg !3150
	%53 = bitcast %struct._ZSt13basic_fstreamIcSt11char_traitsIcEE*  %52 to i8*, !dbg !3150
	%54 = bitcast %struct._ZSt13basic_fstreamIcSt11char_traitsIcEE*  %52 to i8**, !dbg !3150
	%55 = load i8*, i8**  %54, align 8, !tbaa !2097, !dbg !3150
	%56 = getelementptr i8, i8*  %55, i64 18446744073709551592, !dbg !3150
	%57 = bitcast i8*  %56 to i64*, !dbg !3150
	%58 = load i64, i64*  %57, align 8, !tbaa !2098, !dbg !3150
	%59 = getelementptr i8, i8*  %53, i64  %58, !dbg !3150
	%60 = bitcast %struct._ZSt9basic_iosIcSt11char_traitsIcEE** %..inline.addr.2 to i8**, !dbg !3150
	store i8*  %59, i8**  %60, align 8, !tbaa !2097, !dbg !3150
	%61 = load %struct._ZSt9basic_iosIcSt11char_traitsIcEE*, %struct._ZSt9basic_iosIcSt11char_traitsIcEE** %..inline.addr.2, align 8, !tbaa !2097, !dbg !3150
	%62 = bitcast %struct._ZSt9basic_iosIcSt11char_traitsIcEE*  %61 to i8*, !dbg !3150
	%63 = bitcast %struct._ZSt9basic_iosIcSt11char_traitsIcEE** %..inline.addr.3 to i8**, !dbg !3150
	store i8*  %62, i8**  %63, align 8, !tbaa !2097, !dbg !3150
	%64 = load %struct._ZSt9basic_iosIcSt11char_traitsIcEE*, %struct._ZSt9basic_iosIcSt11char_traitsIcEE** %..inline.addr.3, align 8, !tbaa !2097, !dbg !3150
	%65 = bitcast %struct._ZSt9basic_iosIcSt11char_traitsIcEE*  %64 to i8*, !dbg !3150
	%66 = getelementptr i8, i8*  %65, i64 32, !dbg !3150
	%67 = bitcast i8*  %66 to i32*, !dbg !3150
	%68 = load i32, i32*  %67, align 4, !tbaa !2098, !dbg !3150
	%69 = or i32  %68, 4, !dbg !3150
	call void  @_ZNSt9basic_iosIcSt11char_traitsIcEE5clearESt12_Ios_Iostate (%struct._ZSt9basic_iosIcSt11char_traitsIcEE*  %61, i32  %69), !dbg !3150
	br label %L..inline.24532, !dbg !3150
L..inline.24512:
	%70 = load %struct._ZSt13basic_fstreamIcSt11char_traitsIcEE*, %struct._ZSt13basic_fstreamIcSt11char_traitsIcEE** %..inline.addr, align 8, !tbaa !2097, !dbg !3151
	%71 = bitcast %struct._ZSt13basic_fstreamIcSt11char_traitsIcEE*  %70 to i8*, !dbg !3151
	%72 = bitcast %struct._ZSt13basic_fstreamIcSt11char_traitsIcEE*  %70 to i8**, !dbg !3151
	%73 = load i8*, i8**  %72, align 8, !tbaa !2097, !dbg !3151
	%74 = getelementptr i8, i8*  %73, i64 18446744073709551592, !dbg !3151
	%75 = bitcast i8*  %74 to i64*, !dbg !3151
	%76 = load i64, i64*  %75, align 8, !tbaa !2098, !dbg !3151
	%77 = getelementptr i8, i8*  %71, i64  %76, !dbg !3151
	%78 = bitcast i8*  %77 to %struct._ZSt9basic_iosIcSt11char_traitsIcEE*, !dbg !3151
	call void  @_ZNSt9basic_iosIcSt11char_traitsIcEE5clearESt12_Ios_Iostate (%struct._ZSt9basic_iosIcSt11char_traitsIcEE*  %78, i32 0), !dbg !3151
	br label %L.B0025, !dbg !3148
L.B0024:
	%79 = load %struct.Logger*, %struct.Logger** %_T47721152_9696.addr, align 8, !tbaa !2097, !dbg !3147
	%80 = bitcast %struct.Logger*  %79 to i8*, !dbg !3147
	%81 = getelementptr i8, i8*  %80, i64 408, !dbg !3147
	%82 = bitcast i8*  %81 to i8**, !dbg !3147
	%83 = load i8*, i8**  %82, align 8, !tbaa !2097, !dbg !3147
	%84 = bitcast %struct._ZSt13basic_fstreamIcSt11char_traitsIcEE** %..inline.addr.5 to i8**, !dbg !3147
	store i8*  %83, i8**  %84, align 8, !tbaa !2097, !dbg !3147
	%85 = load %struct._ZNSt7__cxx1112basic_stringIcSt11char_traitsIcESaIcEEE*, %struct._ZNSt7__cxx1112basic_stringIcSt11char_traitsIcESaIcEEE** %fname.addr, align 8, !tbaa !2097, !dbg !3152
	%86 = bitcast %struct._ZNSt7__cxx1112basic_stringIcSt11char_traitsIcESaIcEEE*  %85 to i8**, !dbg !3152
	%87 = load i8*, i8**  %86, align 8, !tbaa !2097, !dbg !3152
	%88 = load %struct._ZSt13basic_fstreamIcSt11char_traitsIcEE*, %struct._ZSt13basic_fstreamIcSt11char_traitsIcEE** %..inline.addr.5, align 8, !tbaa !2097, !dbg !3149
	%89 = bitcast %struct._ZSt13basic_fstreamIcSt11char_traitsIcEE*  %88 to i8*, !dbg !3149
	%90 = getelementptr i8, i8*  %89, i64 24, !dbg !3149
	%91 = bitcast i8*  %90 to %struct._ZSt13basic_filebufIcSt11char_traitsIcEE*, !dbg !3149
	%92 = call %struct._ZSt13basic_filebufIcSt11char_traitsIcEE*  @_ZNSt13basic_filebufIcSt11char_traitsIcEE4openEPKcSt13_Ios_Openmode (%struct._ZSt13basic_filebufIcSt11char_traitsIcEE*  %91, i8*  %87, i32 16), !dbg !3149
	%93 = bitcast %struct._ZSt13basic_filebufIcSt11char_traitsIcEE*  %92 to i8*, !dbg !3149
	%94 = bitcast %struct._ZSt13basic_filebufIcSt11char_traitsIcEE** %.Q0021.addr to i8**, !dbg !3149
	store i8*  %93, i8**  %94, align 8, !tbaa !2097, !dbg !3149
	%95 = load %struct._ZSt13basic_filebufIcSt11char_traitsIcEE*, %struct._ZSt13basic_filebufIcSt11char_traitsIcEE** %.Q0021.addr, align 8, !tbaa !2097, !dbg !3149
	%96 = bitcast %struct._ZSt13basic_filebufIcSt11char_traitsIcEE*  %95 to i8*, !dbg !3149
	%97 = icmp ne i8*  %96,  null, !dbg !3149
	br i1  %97, label %L..inline.24553, label %L.B1199, !dbg !3149
L.B1199:
	%98 = load %struct._ZSt13basic_fstreamIcSt11char_traitsIcEE*, %struct._ZSt13basic_fstreamIcSt11char_traitsIcEE** %..inline.addr.5, align 8, !tbaa !2097, !dbg !3150
	%99 = bitcast %struct._ZSt13basic_fstreamIcSt11char_traitsIcEE*  %98 to i8*, !dbg !3150
	%100 = bitcast %struct._ZSt13basic_fstreamIcSt11char_traitsIcEE*  %98 to i8**, !dbg !3150
	%101 = load i8*, i8**  %100, align 8, !tbaa !2097, !dbg !3150
	%102 = getelementptr i8, i8*  %101, i64 18446744073709551592, !dbg !3150
	%103 = bitcast i8*  %102 to i64*, !dbg !3150
	%104 = load i64, i64*  %103, align 8, !tbaa !2098, !dbg !3150
	%105 = getelementptr i8, i8*  %99, i64  %104, !dbg !3150
	%106 = bitcast %struct._ZSt9basic_iosIcSt11char_traitsIcEE** %..inline.addr.7 to i8**, !dbg !3150
	store i8*  %105, i8**  %106, align 8, !tbaa !2097, !dbg !3150
	%107 = bitcast %struct._ZSt9basic_iosIcSt11char_traitsIcEE** %..inline.addr.8 to i8**, !dbg !3150
	store i8*  %105, i8**  %107, align 8, !tbaa !2097, !dbg !3150
	%108 = load %struct._ZSt9basic_iosIcSt11char_traitsIcEE*, %struct._ZSt9basic_iosIcSt11char_traitsIcEE** %..inline.addr.8, align 8, !tbaa !2097, !dbg !3150
	%109 = bitcast %struct._ZSt9basic_iosIcSt11char_traitsIcEE*  %108 to i8*, !dbg !3150
	%110 = getelementptr i8, i8*  %109, i64 32, !dbg !3150
	%111 = bitcast i8*  %110 to i32*, !dbg !3150
	%112 = load i32, i32*  %111, align 4, !tbaa !2098, !dbg !3150
	%113 = or i32  %112, 4, !dbg !3150
	%114 = load %struct._ZSt9basic_iosIcSt11char_traitsIcEE*, %struct._ZSt9basic_iosIcSt11char_traitsIcEE** %..inline.addr.7, align 8, !tbaa !2097, !dbg !3150
	call void  @_ZNSt9basic_iosIcSt11char_traitsIcEE5clearESt12_Ios_Iostate (%struct._ZSt9basic_iosIcSt11char_traitsIcEE*  %114, i32  %113), !dbg !3150
	br label %L..inline.24573, !dbg !3150
L..inline.24553:
	%115 = load %struct._ZSt13basic_fstreamIcSt11char_traitsIcEE*, %struct._ZSt13basic_fstreamIcSt11char_traitsIcEE** %..inline.addr.5, align 8, !tbaa !2097, !dbg !3151
	%116 = bitcast %struct._ZSt13basic_fstreamIcSt11char_traitsIcEE*  %115 to i8*, !dbg !3151
	%117 = bitcast %struct._ZSt13basic_fstreamIcSt11char_traitsIcEE*  %115 to i8**, !dbg !3151
	%118 = load i8*, i8**  %117, align 8, !tbaa !2097, !dbg !3151
	%119 = getelementptr i8, i8*  %118, i64 18446744073709551592, !dbg !3151
	%120 = bitcast i8*  %119 to i64*, !dbg !3151
	%121 = load i64, i64*  %120, align 8, !tbaa !2098, !dbg !3151
	%122 = getelementptr i8, i8*  %116, i64  %121, !dbg !3151
	%123 = bitcast i8*  %122 to %struct._ZSt9basic_iosIcSt11char_traitsIcEE*, !dbg !3151
	call void  @_ZNSt9basic_iosIcSt11char_traitsIcEE5clearESt12_Ios_Iostate (%struct._ZSt9basic_iosIcSt11char_traitsIcEE*  %123, i32 0), !dbg !3151
	br label %L..inline.24573
L..inline.24573:
	br label %L..inline.24532
L..inline.24532:
	br label %L.B0025
L.B0025:
	%124 = load %struct.Logger*, %struct.Logger** %_T47721152_9696.addr, align 8, !tbaa !2097, !dbg !3153
	%125 = bitcast %struct.Logger*  %124 to i8*, !dbg !3153
	%126 = getelementptr i8, i8*  %125, i64 408, !dbg !3153
	%127 = bitcast i8*  %126 to i8**, !dbg !3153
	%128 = load i8*, i8**  %127, align 8, !tbaa !2097, !dbg !3153
	%129 = bitcast i8*  %126 to i8***, !dbg !3153
	%130 = load i8**, i8***  %129, align 8, !tbaa !2097, !dbg !3153
	%131 = load i8*, i8**  %130, align 8, !tbaa !2097, !dbg !3153
	%132 = getelementptr i8, i8*  %131, i64 18446744073709551592, !dbg !3153
	%133 = bitcast i8*  %132 to i64*, !dbg !3153
	%134 = load i64, i64*  %133, align 8, !tbaa !2098, !dbg !3153
	%135 = getelementptr i8, i8*  %128, i64  %134, !dbg !3153
	%136 = bitcast %struct._ZSt9basic_iosIcSt11char_traitsIcEE** %..inline.addr.250 to i8**, !dbg !3153
	store i8*  %135, i8**  %136, align 8, !tbaa !2097, !dbg !3153
	%137 = load %struct._ZSt9basic_iosIcSt11char_traitsIcEE*, %struct._ZSt9basic_iosIcSt11char_traitsIcEE** %..inline.addr.250, align 8, !tbaa !2097, !dbg !3153
	%138 = bitcast %struct._ZSt9basic_iosIcSt11char_traitsIcEE*  %137 to i8*, !dbg !3153
	%139 = getelementptr i8, i8*  %138, i64 32, !dbg !3153
	%140 = bitcast i8*  %139 to i32*, !dbg !3153
	%141 = load i32, i32*  %140, align 4, !tbaa !2098, !dbg !3153
	%142 = icmp eq i32  %141, 0, !dbg !3153
	%143 = zext i1  %142 to i32, !dbg !3153
	call void @llvm.dbg.declare (metadata i32* %rvalue.addr, metadata !3154, metadata !2084), !dbg !3071
	%144 = load %struct.Logger*, %struct.Logger** %_T47721152_9696.addr, align 8, !tbaa !2097, !dbg !3155
	%145 = bitcast %struct.Logger*  %144 to i8*, !dbg !3155
	store i8 1, i8*  %145, align 1, !tbaa !2098, !dbg !3155
	%146 = trunc i32  %143 to i8, !dbg !3156
	ret i8  %146, !dbg !3156
L.B1200:
	br label %L.R0008, !dbg !3156
L_T47725000_9696:
	%147 = landingpad %astruct.dt64
	cleanup
	%148 = extractvalue %astruct.dt64  %147, 0, !dbg !3156
	store i8*  %148, i8** %__caught_object_address.addr, align 1, !tbaa !2097, !dbg !3156
	%149 = extractvalue %astruct.dt64  %147, 1, !dbg !3156
	store i32  %149, i32* %__catch_clause_number.addr, align 1, !tbaa !2098, !dbg !3156
	%150 = load %struct._ZSt13basic_fstreamIcSt11char_traitsIcEE*, %struct._ZSt13basic_fstreamIcSt11char_traitsIcEE** %_T47723520_9696.addr, align 8, !tbaa !2097, !dbg !3156
	%151 = bitcast %struct._ZSt13basic_fstreamIcSt11char_traitsIcEE*  %150 to i8*, !dbg !3156
	%152 = bitcast void (i8*, i64)* @_ZdlPvm to void (i8*)*, !dbg !3156
	call void  %152 (i8*  %151) nounwind, !dbg !3156
	%153 = load i32, i32* %__catch_clause_number.addr, align 4, !tbaa !2098, !dbg !3156
	%154 = load i8*, i8** %__caught_object_address.addr, align 8, !tbaa !2097, !dbg !3156
	%155 = insertvalue %astruct.dt64 undef, i8*  %154, 0, !dbg !3156
	%156 = insertvalue %astruct.dt64  %155, i32  %153, 1, !dbg !3156
	resume %astruct.dt64  %156 , !dbg !3156
L.R0008:
	ret i8 0
}
define signext i8 @_ZN6Logger5printERKNSt7__cxx1112basic_stringIcSt11char_traitsIcESaIcEEE(%struct.Logger* %_T47720784_9697.arg, %struct._ZNSt7__cxx1112basic_stringIcSt11char_traitsIcESaIcEEE* %s.arg) #0 inlinehint !dbg !3161 {
L.entry:
	%_T47720784_9697.addr = alloca %struct.Logger*, align 8
	%s.addr = alloca %struct._ZNSt7__cxx1112basic_stringIcSt11char_traitsIcESaIcEEE*, align 8
	%.I0002.addr = alloca %struct._ZSo*, align 8
	%..inline.addr = alloca %struct._ZSo*, align 8
	%..inline.addr.1 = alloca i8*, align 8
	%..inline.addr.2 = alloca i64, align 8
	%.Q0022.addr = alloca %struct._ZSo*, align 8

	call void @llvm.dbg.declare (metadata %struct.Logger** %_T47720784_9697.addr, metadata !3181, metadata !2084), !dbg !3162
	store %struct.Logger* %_T47720784_9697.arg, %struct.Logger** %_T47720784_9697.addr, align 8, !tbaa !2097
	call void @llvm.dbg.declare (metadata %struct.Logger** %_T47720784_9697.addr, metadata !3182, metadata !2084), !dbg !3162
	call void @llvm.dbg.declare (metadata %struct._ZNSt7__cxx1112basic_stringIcSt11char_traitsIcESaIcEEE** %s.addr, metadata !3183, metadata !2084), !dbg !3162
	store %struct._ZNSt7__cxx1112basic_stringIcSt11char_traitsIcESaIcEEE* %s.arg, %struct._ZNSt7__cxx1112basic_stringIcSt11char_traitsIcESaIcEEE** %s.addr, align 8, !tbaa !2097
	call void @llvm.dbg.declare (metadata %struct._ZNSt7__cxx1112basic_stringIcSt11char_traitsIcESaIcEEE** %s.addr, metadata !3184, metadata !2084), !dbg !3162
	%0 = load %struct.Logger*, %struct.Logger** %_T47720784_9697.addr, align 8, !tbaa !2097, !dbg !3185
	%1 = bitcast %struct.Logger*  %0 to i8*, !dbg !3185
	%2 = getelementptr i8, i8*  %1, i64 4, !dbg !3185
	%3 = bitcast i8*  %2 to i32*, !dbg !3185
	%4 = load i32, i32*  %3, align 4, !tbaa !2098, !dbg !3185
	%5 = getelementptr i8, i8*  %1, i64 8, !dbg !3185
	%6 = bitcast i8*  %5 to i32*, !dbg !3185
	%7 = load i32, i32*  %6, align 4, !tbaa !2098, !dbg !3185
	%8 = icmp eq i32  %4,  %7, !dbg !3185
	br i1  %8, label %L.B0028, label %L.B1203, !dbg !3185
L.B1203:
	ret i8 1, !dbg !3185
L.B1204:
	br label %L.R0009, !dbg !3185
L.B0028:
	%9 = load %struct.Logger*, %struct.Logger** %_T47720784_9697.addr, align 8, !tbaa !2097, !dbg !3186
	%10 = bitcast %struct.Logger*  %9 to i8*, !dbg !3186
	%11 = getelementptr i8, i8*  %10, i64 408, !dbg !3186
	%12 = bitcast i8*  %11 to i8**, !dbg !3186
	%13 = load i8*, i8**  %12, align 8, !tbaa !2097, !dbg !3186
	%14 = icmp eq i8*  %13,  null, !dbg !3186
	br i1  %14, label %L.B0029, label %L.B1205, !dbg !3186
L.B1205:
	%15 = bitcast %struct.Logger*  %9 to i8*, !dbg !3186
	%16 = getelementptr i8, i8*  %15, i64 408, !dbg !3186
	%17 = bitcast i8*  %16 to i8**, !dbg !3186
	%18 = load i8*, i8**  %17, align 8, !tbaa !2097, !dbg !3186
	%19 = getelementptr i8, i8*  %18, i64 16, !dbg !3186
	%20 = bitcast %struct._ZSo** %.I0002.addr to i8**, !dbg !3186
	store i8*  %19, i8**  %20, align 8, !tbaa !2097, !dbg !3186
	br label %L.B0030, !dbg !3186
L.B0029:
	%21 = bitcast %struct._ZSo** %.I0002.addr to i8**, !dbg !3186
	store i8* null, i8**  %21, align 8, !tbaa !2097, !dbg !3186
	br label %L.B0030
L.B0030:
	%22 = load %struct._ZSo*, %struct._ZSo** %.I0002.addr, align 8, !tbaa !2097, !dbg !3186
	%23 = bitcast %struct._ZSo*  %22 to i8*, !dbg !3186
	%24 = bitcast %struct._ZSo** %..inline.addr to i8**, !dbg !3186
	store i8*  %23, i8**  %24, align 8, !tbaa !2097, !dbg !3186
	%25 = load %struct._ZNSt7__cxx1112basic_stringIcSt11char_traitsIcESaIcEEE*, %struct._ZNSt7__cxx1112basic_stringIcSt11char_traitsIcESaIcEEE** %s.addr, align 8, !tbaa !2097, !dbg !3187
	%26 = bitcast %struct._ZNSt7__cxx1112basic_stringIcSt11char_traitsIcESaIcEEE*  %25 to i8**, !dbg !3187
	%27 = load i8*, i8**  %26, align 8, !tbaa !2097, !dbg !3187
	%28 = bitcast %struct._ZNSt7__cxx1112basic_stringIcSt11char_traitsIcESaIcEEE*  %25 to i8*, !dbg !3187
	%29 = getelementptr i8, i8*  %28, i64 8, !dbg !3187
	%30 = bitcast i8*  %29 to i64*, !dbg !3187
	%31 = load i64, i64*  %30, align 8, !tbaa !2098, !dbg !3187
	%32 = load %struct._ZSo*, %struct._ZSo** %..inline.addr, align 8, !tbaa !2097, !dbg !3188
	%33 = call %struct._ZSo*  @_ZSt16__ostream_insertIcSt11char_traitsIcEERSt13basic_ostreamIT_T0_ES6_PKS3_l (%struct._ZSo*  %32, i8*  %27, i64  %31), !dbg !3188
	%34 = bitcast %struct._ZSo*  %33 to i8*, !dbg !3188
	%35 = bitcast %struct._ZSo** %.Q0022.addr to i8**, !dbg !3188
	store i8*  %34, i8**  %35, align 8, !tbaa !2097, !dbg !3188
	ret i8 1, !dbg !3189
L.R0009:
	ret i8 0
}
define %struct.Logger* @_ZN6LoggerlsEPFRS_S0_E(%struct.Logger* %_T47720416_9698.arg, %struct.Logger* (%struct.Logger*)* %pf.arg) #0 inlinehint !dbg !3197 {
L.entry:
	%_T47720416_9698.addr = alloca %struct.Logger*, align 8
	%pf.addr = alloca %struct.Logger* (%struct.Logger*)*, align 8
	%.Q0023.addr = alloca %struct.Logger*, align 8

	call void @llvm.dbg.declare (metadata %struct.Logger** %_T47720416_9698.addr, metadata !3201, metadata !2084), !dbg !3198
	store %struct.Logger* %_T47720416_9698.arg, %struct.Logger** %_T47720416_9698.addr, align 8, !tbaa !2097
	call void @llvm.dbg.declare (metadata %struct.Logger** %_T47720416_9698.addr, metadata !3202, metadata !2084), !dbg !3198
	call void @llvm.dbg.declare (metadata %struct.Logger* (%struct.Logger*)** %pf.addr, metadata !3203, metadata !2084), !dbg !3198
	store %struct.Logger* (%struct.Logger*)* %pf.arg, %struct.Logger* (%struct.Logger*)** %pf.addr, align 8, !tbaa !2097
	call void @llvm.dbg.declare (metadata %struct.Logger* (%struct.Logger*)** %pf.addr, metadata !3204, metadata !2084), !dbg !3198
	%0 = load %struct.Logger*, %struct.Logger** %_T47720416_9698.addr, align 8, !tbaa !2097, !dbg !3205
	%1 = bitcast %struct.Logger*  %0 to i8*, !dbg !3205
	%2 = getelementptr i8, i8*  %1, i64 4, !dbg !3205
	%3 = bitcast i8*  %2 to i32*, !dbg !3205
	%4 = load i32, i32*  %3, align 4, !tbaa !2098, !dbg !3205
	%5 = getelementptr i8, i8*  %1, i64 8, !dbg !3205
	%6 = bitcast i8*  %5 to i32*, !dbg !3205
	%7 = load i32, i32*  %6, align 4, !tbaa !2098, !dbg !3205
	%8 = icmp eq i32  %4,  %7, !dbg !3205
	br i1  %8, label %L.B0031, label %L.B1206, !dbg !3205
L.B1206:
	ret %struct.Logger*  %0, !dbg !3205
L.B1207:
	br label %L.R0010, !dbg !3205
L.B0031:
	%9 = load %struct.Logger*, %struct.Logger** %_T47720416_9698.addr, align 8, !tbaa !2097, !dbg !3206
	%10 = load %struct.Logger* (%struct.Logger*)*, %struct.Logger* (%struct.Logger*)** %pf.addr, align 8, !tbaa !2097, !dbg !3206
	%11 = call %struct.Logger*  %10 (%struct.Logger*  %9), !dbg !3206
	%12 = bitcast %struct.Logger*  %11 to i8*, !dbg !3206
	%13 = bitcast %struct.Logger** %.Q0023.addr to i8**, !dbg !3206
	store i8*  %12, i8**  %13, align 8, !tbaa !2097, !dbg !3206
	%14 = load %struct.Logger*, %struct.Logger** %.Q0023.addr, align 8, !tbaa !2097, !dbg !3206
	ret %struct.Logger*  %14, !dbg !3206
L.R0010:
	ret %struct.Logger* null
}
define %struct.Logger* @_ZN6LoggerlsEPFRSoS0_E(%struct.Logger* %_T47720416_9700.arg, %struct._ZSo* (%struct._ZSo*)* %pf.arg) #0 inlinehint !dbg !3214 {
L.entry:
	%_T47720416_9700.addr = alloca %struct.Logger*, align 8
	%pf.addr = alloca %struct._ZSo* (%struct._ZSo*)*, align 8
	%.Q0024.addr = alloca %struct._ZSo*, align 8

	call void @llvm.dbg.declare (metadata %struct.Logger** %_T47720416_9700.addr, metadata !3218, metadata !2084), !dbg !3215
	store %struct.Logger* %_T47720416_9700.arg, %struct.Logger** %_T47720416_9700.addr, align 8, !tbaa !2097
	call void @llvm.dbg.declare (metadata %struct.Logger** %_T47720416_9700.addr, metadata !3219, metadata !2084), !dbg !3215
	call void @llvm.dbg.declare (metadata %struct._ZSo* (%struct._ZSo*)** %pf.addr, metadata !3220, metadata !2084), !dbg !3215
	store %struct._ZSo* (%struct._ZSo*)* %pf.arg, %struct._ZSo* (%struct._ZSo*)** %pf.addr, align 8, !tbaa !2097
	call void @llvm.dbg.declare (metadata %struct._ZSo* (%struct._ZSo*)** %pf.addr, metadata !3221, metadata !2084), !dbg !3215
	%0 = load %struct.Logger*, %struct.Logger** %_T47720416_9700.addr, align 8, !tbaa !2097, !dbg !3222
	%1 = bitcast %struct.Logger*  %0 to i8*, !dbg !3222
	%2 = getelementptr i8, i8*  %1, i64 4, !dbg !3222
	%3 = bitcast i8*  %2 to i32*, !dbg !3222
	%4 = load i32, i32*  %3, align 4, !tbaa !2098, !dbg !3222
	%5 = getelementptr i8, i8*  %1, i64 8, !dbg !3222
	%6 = bitcast i8*  %5 to i32*, !dbg !3222
	%7 = load i32, i32*  %6, align 4, !tbaa !2098, !dbg !3222
	%8 = icmp eq i32  %4,  %7, !dbg !3222
	br i1  %8, label %L.B0032, label %L.B1208, !dbg !3222
L.B1208:
	ret %struct.Logger*  %0, !dbg !3222
L.B1209:
	br label %L.R0011, !dbg !3222
L.B0032:
	%9 = load %struct.Logger*, %struct.Logger** %_T47720416_9700.addr, align 8, !tbaa !2097, !dbg !3223
	%10 = bitcast %struct.Logger*  %9 to i8*, !dbg !3223
	%11 = getelementptr i8, i8*  %10, i64 32, !dbg !3223
	%12 = bitcast i8*  %11 to %struct._ZSo*, !dbg !3223
	%13 = load %struct._ZSo* (%struct._ZSo*)*, %struct._ZSo* (%struct._ZSo*)** %pf.addr, align 8, !tbaa !2097, !dbg !3223
	%14 = call %struct._ZSo*  %13 (%struct._ZSo*  %12), !dbg !3223
	%15 = bitcast %struct._ZSo*  %14 to i8*, !dbg !3223
	%16 = bitcast %struct._ZSo** %.Q0024.addr to i8**, !dbg !3223
	store i8*  %15, i8**  %16, align 8, !tbaa !2097, !dbg !3223
	%17 = load %struct.Logger*, %struct.Logger** %_T47720416_9700.addr, align 8, !tbaa !2097, !dbg !3224
	ret %struct.Logger*  %17, !dbg !3224
L.R0011:
	ret %struct.Logger* null
}
define linkonce_odr void @_ZNSt11char_traitsIcE6assignERcRKc(i8* %__c1.arg, i8* %__c2.arg) #0 inlinehint !dbg !3231 {
L.entry:
	%__c1.addr = alloca i8*, align 8
	%__c2.addr = alloca i8*, align 8

	call void @llvm.dbg.declare (metadata i8** %__c1.addr, metadata !3235, metadata !2084), !dbg !3232
	store i8* %__c1.arg, i8** %__c1.addr, align 8, !tbaa !2097
	call void @llvm.dbg.declare (metadata i8** %__c1.addr, metadata !3236, metadata !2084), !dbg !3232
	call void @llvm.dbg.declare (metadata i8** %__c2.addr, metadata !3237, metadata !2084), !dbg !3232
	store i8* %__c2.arg, i8** %__c2.addr, align 8, !tbaa !2097
	call void @llvm.dbg.declare (metadata i8** %__c2.addr, metadata !3238, metadata !2084), !dbg !3232
	%0 = load i8*, i8** %__c2.addr, align 8, !tbaa !2097, !dbg !3239
	%1 = load i8, i8*  %0, align 1, !tbaa !2098, !dbg !3239
	%2 = load i8*, i8** %__c1.addr, align 8, !tbaa !2097, !dbg !3239
	store i8  %1, i8*  %2, align 1, !tbaa !2098, !dbg !3239
	ret void, !dbg !3239
}
define linkonce_odr i64 @_ZNSt11char_traitsIcE6lengthEPKc(i8* %__s.arg) #0 inlinehint !dbg !3243 {
L.entry:
	%__s.addr = alloca i8*, align 8

	call void @llvm.dbg.declare (metadata i8** %__s.addr, metadata !3247, metadata !2084), !dbg !3244
	store i8* %__s.arg, i8** %__s.addr, align 8, !tbaa !2097
	call void @llvm.dbg.declare (metadata i8** %__s.addr, metadata !3248, metadata !2084), !dbg !3244
	%0 = load i8*, i8** %__s.addr, align 8, !tbaa !2097, !dbg !3249
	%1 = call i64  @strlen (i8*  %0) nounwind, !dbg !3249
	ret i64  %1, !dbg !3249
}
define linkonce_odr i8* @_ZNSt11char_traitsIcE4copyEPcPKcm(i8* %__s1.arg, i8* %__s2.arg, i64 %__n.arg) #0 inlinehint !dbg !3254 {
L.entry:
	%__s1.addr = alloca i8*, align 8
	%__s2.addr = alloca i8*, align 8
	%__n.addr = alloca i64, align 8

	call void @llvm.dbg.declare (metadata i8** %__s1.addr, metadata !3258, metadata !2084), !dbg !3255
	store i8* %__s1.arg, i8** %__s1.addr, align 8, !tbaa !2097
	call void @llvm.dbg.declare (metadata i8** %__s1.addr, metadata !3259, metadata !2084), !dbg !3255
	call void @llvm.dbg.declare (metadata i8** %__s2.addr, metadata !3260, metadata !2084), !dbg !3255
	store i8* %__s2.arg, i8** %__s2.addr, align 8, !tbaa !2097
	call void @llvm.dbg.declare (metadata i8** %__s2.addr, metadata !3261, metadata !2084), !dbg !3255
	call void @llvm.dbg.declare (metadata i64* %__n.addr, metadata !3262, metadata !2084), !dbg !3255
	store i64 %__n.arg, i64* %__n.addr, align 8, !tbaa !2098
	call void @llvm.dbg.declare (metadata i64* %__n.addr, metadata !3263, metadata !2084), !dbg !3255
	%0 = load i64, i64* %__n.addr, align 8, !tbaa !3059, !dbg !3264
	%1 = icmp ne i64  %0, 0, !dbg !3264
	br i1  %1, label %L.B0033, label %L.B1210, !dbg !3264
L.B1210:
	%2 = load i8*, i8** %__s1.addr, align 8, !tbaa !2097, !dbg !3265
	ret i8*  %2, !dbg !3265
L.B1211:
	br label %L.R0014, !dbg !3265
L.B0033:
	%3 = load i8*, i8** %__s1.addr, align 8, !tbaa !2097, !dbg !3266
	%4 = load i8*, i8** %__s2.addr, align 8, !tbaa !2097, !dbg !3266
	%5 = load i64, i64* %__n.addr, align 8, !tbaa !3059, !dbg !3266
	%6 = call i8*  @memcpy (i8*  %3, i8*  %4, i64  %5) nounwind, !dbg !3266
	ret i8*  %6, !dbg !3266
L.R0014:
	ret i8* null
}

%struct._ZSaIcE = type <{ [1 x i8]}> 

define linkonce_odr void @_ZNSaIcEC1Ev(%struct._ZSaIcE* %_T47720416_9708.arg) #0 inlinehint !dbg !3274 {
L.entry:
	%_T47720416_9708.addr = alloca %struct._ZSaIcE*, align 8

	call void @llvm.dbg.declare (metadata %struct._ZSaIcE** %_T47720416_9708.addr, metadata !3278, metadata !2084), !dbg !3275
	store %struct._ZSaIcE* %_T47720416_9708.arg, %struct._ZSaIcE** %_T47720416_9708.addr, align 8, !tbaa !2097
	call void @llvm.dbg.declare (metadata %struct._ZSaIcE** %_T47720416_9708.addr, metadata !3279, metadata !2084), !dbg !3275
	ret void, !dbg !3280
}
define linkonce_odr void @_ZNSaIcEC2Ev(%struct._ZSaIcE* %_T47720416_9709.arg) #0 inlinehint !dbg !3282 {
L.entry:
	%_T47720416_9709.addr = alloca %struct._ZSaIcE*, align 8

	store %struct._ZSaIcE* %_T47720416_9709.arg, %struct._ZSaIcE** %_T47720416_9709.addr, align 8, !tbaa !2097
	ret void, !dbg !3290
}
define linkonce_odr void @_ZNSaIcEC1ERKS_(%struct._ZSaIcE* %_T47720416_9710.arg, %struct._ZSaIcE* %__a.arg) #0 inlinehint !dbg !3298 {
L.entry:
	%_T47720416_9710.addr = alloca %struct._ZSaIcE*, align 8
	%__a.addr = alloca %struct._ZSaIcE*, align 8

	call void @llvm.dbg.declare (metadata %struct._ZSaIcE** %_T47720416_9710.addr, metadata !3302, metadata !2084), !dbg !3299
	store %struct._ZSaIcE* %_T47720416_9710.arg, %struct._ZSaIcE** %_T47720416_9710.addr, align 8, !tbaa !2097
	call void @llvm.dbg.declare (metadata %struct._ZSaIcE** %_T47720416_9710.addr, metadata !3303, metadata !2084), !dbg !3299
	call void @llvm.dbg.declare (metadata %struct._ZSaIcE** %__a.addr, metadata !3304, metadata !2084), !dbg !3299
	store %struct._ZSaIcE* %__a.arg, %struct._ZSaIcE** %__a.addr, align 8, !tbaa !2097
	call void @llvm.dbg.declare (metadata %struct._ZSaIcE** %__a.addr, metadata !3305, metadata !2084), !dbg !3299
	ret void, !dbg !3306
}
define linkonce_odr void @_ZNSaIcEC2ERKS_(%struct._ZSaIcE* %_T47720416_9711.arg, %struct._ZSaIcE* %_T47720712_9711.arg) #0 inlinehint !dbg !3308 {
L.entry:
	%_T47720416_9711.addr = alloca %struct._ZSaIcE*, align 8
	%_T47720712_9711.addr = alloca %struct._ZSaIcE*, align 8

	store %struct._ZSaIcE* %_T47720416_9711.arg, %struct._ZSaIcE** %_T47720416_9711.addr, align 8, !tbaa !2097
	store %struct._ZSaIcE* %_T47720712_9711.arg, %struct._ZSaIcE** %_T47720712_9711.addr, align 8, !tbaa !2097
	ret void, !dbg !3316
}
define linkonce_odr void @_ZNSaIcED1Ev(%struct._ZSaIcE* %_T47720416_9712.arg) #0 inlinehint !dbg !3318 {
L.entry:
	%_T47720416_9712.addr = alloca %struct._ZSaIcE*, align 8

	call void @llvm.dbg.declare (metadata %struct._ZSaIcE** %_T47720416_9712.addr, metadata !3322, metadata !2084), !dbg !3319
	store %struct._ZSaIcE* %_T47720416_9712.arg, %struct._ZSaIcE** %_T47720416_9712.addr, align 8, !tbaa !2097
	call void @llvm.dbg.declare (metadata %struct._ZSaIcE** %_T47720416_9712.addr, metadata !3323, metadata !2084), !dbg !3319
	ret void, !dbg !3324
}
define linkonce_odr void @_ZNSaIcED2Ev(%struct._ZSaIcE* %_T47720416_9713.arg) #0 inlinehint !dbg !3326 {
L.entry:
	%_T47720416_9713.addr = alloca %struct._ZSaIcE*, align 8

	store %struct._ZSaIcE* %_T47720416_9713.arg, %struct._ZSaIcE** %_T47720416_9713.addr, align 8, !tbaa !2097
	ret void, !dbg !3334
}
define linkonce_odr i8* @_ZNSt16allocator_traitsISaIcEE8allocateERS0_m(%struct._ZSaIcE* %__a.arg, i64 %__n.arg) #0 inlinehint !dbg !3344 {
L.entry:
	%__a.addr = alloca %struct._ZSaIcE*, align 8
	%__n.addr = alloca i64, align 8
	%..inline.addr = alloca i64, align 8
	%.Q0025.addr = alloca i8*, align 8

	call void @llvm.dbg.declare (metadata %struct._ZSaIcE** %__a.addr, metadata !3356, metadata !2084), !dbg !3345
	store %struct._ZSaIcE* %__a.arg, %struct._ZSaIcE** %__a.addr, align 8, !tbaa !2097
	call void @llvm.dbg.declare (metadata %struct._ZSaIcE** %__a.addr, metadata !3357, metadata !2084), !dbg !3345
	call void @llvm.dbg.declare (metadata i64* %__n.addr, metadata !3358, metadata !2084), !dbg !3345
	store i64 %__n.arg, i64* %__n.addr, align 8, !tbaa !2098
	call void @llvm.dbg.declare (metadata i64* %__n.addr, metadata !3359, metadata !2084), !dbg !3345
	%0 = load i64, i64* %__n.addr, align 8, !tbaa !3059, !dbg !3360
	store i64  %0, i64* %..inline.addr, align 8, !tbaa !3059, !dbg !3360
	%1 = icmp ule i64  %0, -1, !dbg !3361
	br i1  %1, label %L..inline.24774, label %L.B1220, !dbg !3361
L.B1220:
	call void  @_ZSt17__throw_bad_allocv () noreturn, !dbg !3362
	br label %L..inline.24774
L..inline.24774:
	%2 = load i64, i64* %..inline.addr, align 8, !tbaa !3059, !dbg !3363
	%3 = call i8*  @_Znwm (i64  %2), !dbg !3363
	store i8*  %3, i8** %.Q0025.addr, align 8, !tbaa !2097, !dbg !3363
	ret i8*  %3, !dbg !3363
}
define linkonce_odr void @_ZNSt16allocator_traitsISaIcEE10deallocateERS0_Pcm(%struct._ZSaIcE* %__a.arg, i8* %__p.arg, i64 %__n.arg) #0 inlinehint !dbg !3367 {
L.entry:
	%__a.addr = alloca %struct._ZSaIcE*, align 8
	%__p.addr = alloca i8*, align 8
	%__n.addr = alloca i64, align 8
	%..inline.addr = alloca i8*, align 8

	call void @llvm.dbg.declare (metadata %struct._ZSaIcE** %__a.addr, metadata !3375, metadata !2084), !dbg !3368
	store %struct._ZSaIcE* %__a.arg, %struct._ZSaIcE** %__a.addr, align 8, !tbaa !2097
	call void @llvm.dbg.declare (metadata %struct._ZSaIcE** %__a.addr, metadata !3376, metadata !2084), !dbg !3368
	call void @llvm.dbg.declare (metadata i8** %__p.addr, metadata !3377, metadata !2084), !dbg !3368
	store i8* %__p.arg, i8** %__p.addr, align 8, !tbaa !2097
	call void @llvm.dbg.declare (metadata i8** %__p.addr, metadata !3378, metadata !2084), !dbg !3368
	call void @llvm.dbg.declare (metadata i64* %__n.addr, metadata !3379, metadata !2084), !dbg !3368
	store i64 %__n.arg, i64* %__n.addr, align 8, !tbaa !2098
	call void @llvm.dbg.declare (metadata i64* %__n.addr, metadata !3380, metadata !2084), !dbg !3368
	%0 = load i8*, i8** %__p.addr, align 8, !tbaa !2097, !dbg !3381
	call void  @_ZdlPv (i8*  %0) nounwind, !dbg !3382
	ret void, !dbg !3381
}
define linkonce_odr void @_ZNSt15basic_streambufIcSt11char_traitsIcEED1Ev(%struct._ZSt15basic_streambufIcSt11char_traitsIcEE* %_T47720416_9729.arg) #0 inlinehint !dbg !3388 {
L.entry:
	%_T47720416_9729.addr = alloca %struct._ZSt15basic_streambufIcSt11char_traitsIcEE*, align 8

	call void @llvm.dbg.declare (metadata %struct._ZSt15basic_streambufIcSt11char_traitsIcEE** %_T47720416_9729.addr, metadata !3392, metadata !2084), !dbg !3389
	store %struct._ZSt15basic_streambufIcSt11char_traitsIcEE* %_T47720416_9729.arg, %struct._ZSt15basic_streambufIcSt11char_traitsIcEE** %_T47720416_9729.addr, align 8, !tbaa !2097
	call void @llvm.dbg.declare (metadata %struct._ZSt15basic_streambufIcSt11char_traitsIcEE** %_T47720416_9729.addr, metadata !3393, metadata !2084), !dbg !3389
	%0 = bitcast [16 x i32 (...)* (...)*]* @_ZTVSt15basic_streambufIcSt11char_traitsIcEE to i8*, !dbg !3394
	%1 = getelementptr i8, i8*  %0, i64 16, !dbg !3394
	%2 = load %struct._ZSt15basic_streambufIcSt11char_traitsIcEE*, %struct._ZSt15basic_streambufIcSt11char_traitsIcEE** %_T47720416_9729.addr, align 8, !tbaa !2097, !dbg !3394
	%3 = bitcast %struct._ZSt15basic_streambufIcSt11char_traitsIcEE*  %2 to i8**, !dbg !3394
	store i8*  %1, i8**  %3, align 8, !tbaa !2097, !dbg !3394
	%4 = bitcast %struct._ZSt15basic_streambufIcSt11char_traitsIcEE*  %2 to i8*, !dbg !3394
	%5 = getelementptr i8, i8*  %4, i64 56, !dbg !3394
	%6 = bitcast i8*  %5 to %struct._ZSt6locale*, !dbg !3394
	call void  @_ZNSt6localeD1Ev (%struct._ZSt6locale*  %6) nounwind, !dbg !3394
	ret void, !dbg !3394
}
define linkonce_odr void @_ZNSt15basic_streambufIcSt11char_traitsIcEED0Ev(%struct._ZSt15basic_streambufIcSt11char_traitsIcEE* %_T47720416_9730.arg) #0 inlinehint !dbg !3399 {
L.entry:
	%_T47720416_9730.addr = alloca %struct._ZSt15basic_streambufIcSt11char_traitsIcEE*, align 8
	%..inline.addr = alloca %struct._ZSt15basic_streambufIcSt11char_traitsIcEE*, align 8

	store %struct._ZSt15basic_streambufIcSt11char_traitsIcEE* %_T47720416_9730.arg, %struct._ZSt15basic_streambufIcSt11char_traitsIcEE** %_T47720416_9730.addr, align 8, !tbaa !2097
	%0 = load %struct._ZSt15basic_streambufIcSt11char_traitsIcEE*, %struct._ZSt15basic_streambufIcSt11char_traitsIcEE** %_T47720416_9730.addr, align 8, !tbaa !2097, !dbg !3407
	%1 = bitcast %struct._ZSt15basic_streambufIcSt11char_traitsIcEE*  %0 to i8*, !dbg !3407
	%2 = bitcast %struct._ZSt15basic_streambufIcSt11char_traitsIcEE** %..inline.addr to i8**, !dbg !3407
	store i8*  %1, i8**  %2, align 8, !tbaa !2097, !dbg !3407
	%3 = bitcast [16 x i32 (...)* (...)*]* @_ZTVSt15basic_streambufIcSt11char_traitsIcEE to i8*, !dbg !3407
	%4 = getelementptr i8, i8*  %3, i64 16, !dbg !3407
	%5 = load %struct._ZSt15basic_streambufIcSt11char_traitsIcEE*, %struct._ZSt15basic_streambufIcSt11char_traitsIcEE** %..inline.addr, align 8, !tbaa !2097, !dbg !3407
	%6 = bitcast %struct._ZSt15basic_streambufIcSt11char_traitsIcEE*  %5 to i8**, !dbg !3407
	store i8*  %4, i8**  %6, align 8, !tbaa !2097, !dbg !3407
	%7 = bitcast %struct._ZSt15basic_streambufIcSt11char_traitsIcEE*  %5 to i8*, !dbg !3407
	%8 = getelementptr i8, i8*  %7, i64 56, !dbg !3407
	%9 = bitcast i8*  %8 to %struct._ZSt6locale*, !dbg !3407
	call void  @_ZNSt6localeD1Ev (%struct._ZSt6locale*  %9) nounwind, !dbg !3407
	%10 = load %struct._ZSt15basic_streambufIcSt11char_traitsIcEE*, %struct._ZSt15basic_streambufIcSt11char_traitsIcEE** %_T47720416_9730.addr, align 8, !tbaa !2097, !dbg !3407
	%11 = bitcast %struct._ZSt15basic_streambufIcSt11char_traitsIcEE*  %10 to i8*, !dbg !3407
	call void  @_ZdlPvm (i8*  %11, i64 64) nounwind, !dbg !3407
	ret void, !dbg !3407
}
define linkonce_odr void @_ZNSt15basic_streambufIcSt11char_traitsIcEED2Ev(%struct._ZSt15basic_streambufIcSt11char_traitsIcEE* %_T47720416_9731.arg) #0 inlinehint !dbg !3409 {
L.entry:
	%_T47720416_9731.addr = alloca %struct._ZSt15basic_streambufIcSt11char_traitsIcEE*, align 8
	%..inline.addr = alloca %struct._ZSt15basic_streambufIcSt11char_traitsIcEE*, align 8

	store %struct._ZSt15basic_streambufIcSt11char_traitsIcEE* %_T47720416_9731.arg, %struct._ZSt15basic_streambufIcSt11char_traitsIcEE** %_T47720416_9731.addr, align 8, !tbaa !2097
	%0 = load %struct._ZSt15basic_streambufIcSt11char_traitsIcEE*, %struct._ZSt15basic_streambufIcSt11char_traitsIcEE** %_T47720416_9731.addr, align 8, !tbaa !2097, !dbg !3417
	%1 = bitcast %struct._ZSt15basic_streambufIcSt11char_traitsIcEE*  %0 to i8*, !dbg !3417
	%2 = bitcast %struct._ZSt15basic_streambufIcSt11char_traitsIcEE** %..inline.addr to i8**, !dbg !3417
	store i8*  %1, i8**  %2, align 8, !tbaa !2097, !dbg !3417
	%3 = bitcast [16 x i32 (...)* (...)*]* @_ZTVSt15basic_streambufIcSt11char_traitsIcEE to i8*, !dbg !3417
	%4 = getelementptr i8, i8*  %3, i64 16, !dbg !3417
	%5 = load %struct._ZSt15basic_streambufIcSt11char_traitsIcEE*, %struct._ZSt15basic_streambufIcSt11char_traitsIcEE** %..inline.addr, align 8, !tbaa !2097, !dbg !3417
	%6 = bitcast %struct._ZSt15basic_streambufIcSt11char_traitsIcEE*  %5 to i8**, !dbg !3417
	store i8*  %4, i8**  %6, align 8, !tbaa !2097, !dbg !3417
	%7 = bitcast %struct._ZSt15basic_streambufIcSt11char_traitsIcEE*  %5 to i8*, !dbg !3417
	%8 = getelementptr i8, i8*  %7, i64 56, !dbg !3417
	%9 = bitcast i8*  %8 to %struct._ZSt6locale*, !dbg !3417
	call void  @_ZNSt6localeD1Ev (%struct._ZSt6locale*  %9) nounwind, !dbg !3417
	ret void, !dbg !3417
}
define linkonce_odr void @_ZNSt15basic_streambufIcSt11char_traitsIcEEC1Ev(%struct._ZSt15basic_streambufIcSt11char_traitsIcEE* %_T47721520_9732.arg) #0 inlinehint !dbg !3419 {
L.entry:
	%_T47721520_9732.addr = alloca %struct._ZSt15basic_streambufIcSt11char_traitsIcEE*, align 8

	call void @llvm.dbg.declare (metadata %struct._ZSt15basic_streambufIcSt11char_traitsIcEE** %_T47721520_9732.addr, metadata !3423, metadata !2084), !dbg !3420
	store %struct._ZSt15basic_streambufIcSt11char_traitsIcEE* %_T47721520_9732.arg, %struct._ZSt15basic_streambufIcSt11char_traitsIcEE** %_T47721520_9732.addr, align 8, !tbaa !2097
	call void @llvm.dbg.declare (metadata %struct._ZSt15basic_streambufIcSt11char_traitsIcEE** %_T47721520_9732.addr, metadata !3424, metadata !2084), !dbg !3420
	%0 = bitcast [16 x i32 (...)* (...)*]* @_ZTVSt15basic_streambufIcSt11char_traitsIcEE to i8*, !dbg !3425
	%1 = getelementptr i8, i8*  %0, i64 16, !dbg !3425
	%2 = load %struct._ZSt15basic_streambufIcSt11char_traitsIcEE*, %struct._ZSt15basic_streambufIcSt11char_traitsIcEE** %_T47721520_9732.addr, align 8, !tbaa !2097, !dbg !3425
	%3 = bitcast %struct._ZSt15basic_streambufIcSt11char_traitsIcEE*  %2 to i8**, !dbg !3425
	store i8*  %1, i8**  %3, align 8, !tbaa !2097, !dbg !3425
	%4 = bitcast %struct._ZSt15basic_streambufIcSt11char_traitsIcEE*  %2 to i8*, !dbg !3425
	%5 = getelementptr i8, i8*  %4, i64 8, !dbg !3425
	%6 = bitcast i8*  %5 to i8**, !dbg !3425
	store i8* null, i8**  %6, align 8, !tbaa !2097, !dbg !3425
	%7 = getelementptr i8, i8*  %4, i64 16, !dbg !3425
	%8 = bitcast i8*  %7 to i8**, !dbg !3425
	store i8* null, i8**  %8, align 8, !tbaa !2097, !dbg !3425
	%9 = getelementptr i8, i8*  %4, i64 24, !dbg !3425
	%10 = bitcast i8*  %9 to i8**, !dbg !3425
	store i8* null, i8**  %10, align 8, !tbaa !2097, !dbg !3425
	%11 = getelementptr i8, i8*  %4, i64 32, !dbg !3425
	%12 = bitcast i8*  %11 to i8**, !dbg !3425
	store i8* null, i8**  %12, align 8, !tbaa !2097, !dbg !3425
	%13 = getelementptr i8, i8*  %4, i64 40, !dbg !3425
	%14 = bitcast i8*  %13 to i8**, !dbg !3425
	store i8* null, i8**  %14, align 8, !tbaa !2097, !dbg !3425
	%15 = getelementptr i8, i8*  %4, i64 48, !dbg !3425
	%16 = bitcast i8*  %15 to i8**, !dbg !3425
	store i8* null, i8**  %16, align 8, !tbaa !2097, !dbg !3425
	%17 = getelementptr i8, i8*  %4, i64 56, !dbg !3425
	%18 = bitcast i8*  %17 to %struct._ZSt6locale*, !dbg !3425
	call void  @_ZNSt6localeC1Ev (%struct._ZSt6locale*  %18) nounwind, !dbg !3425
	ret void, !dbg !3425
}
define linkonce_odr void @_ZNSt15basic_streambufIcSt11char_traitsIcEEC2Ev(%struct._ZSt15basic_streambufIcSt11char_traitsIcEE* %_T47720416_9733.arg) #0 inlinehint !dbg !3427 {
L.entry:
	%_T47720416_9733.addr = alloca %struct._ZSt15basic_streambufIcSt11char_traitsIcEE*, align 8
	%..inline.addr = alloca %struct._ZSt15basic_streambufIcSt11char_traitsIcEE*, align 8

	store %struct._ZSt15basic_streambufIcSt11char_traitsIcEE* %_T47720416_9733.arg, %struct._ZSt15basic_streambufIcSt11char_traitsIcEE** %_T47720416_9733.addr, align 8, !tbaa !2097
	%0 = load %struct._ZSt15basic_streambufIcSt11char_traitsIcEE*, %struct._ZSt15basic_streambufIcSt11char_traitsIcEE** %_T47720416_9733.addr, align 8, !tbaa !2097, !dbg !3435
	%1 = bitcast %struct._ZSt15basic_streambufIcSt11char_traitsIcEE*  %0 to i8*, !dbg !3435
	%2 = bitcast %struct._ZSt15basic_streambufIcSt11char_traitsIcEE** %..inline.addr to i8**, !dbg !3435
	store i8*  %1, i8**  %2, align 8, !tbaa !2097, !dbg !3435
	%3 = bitcast [16 x i32 (...)* (...)*]* @_ZTVSt15basic_streambufIcSt11char_traitsIcEE to i8*, !dbg !3435
	%4 = getelementptr i8, i8*  %3, i64 16, !dbg !3435
	%5 = load %struct._ZSt15basic_streambufIcSt11char_traitsIcEE*, %struct._ZSt15basic_streambufIcSt11char_traitsIcEE** %..inline.addr, align 8, !tbaa !2097, !dbg !3435
	%6 = bitcast %struct._ZSt15basic_streambufIcSt11char_traitsIcEE*  %5 to i8**, !dbg !3435
	store i8*  %4, i8**  %6, align 8, !tbaa !2097, !dbg !3435
	%7 = bitcast %struct._ZSt15basic_streambufIcSt11char_traitsIcEE*  %5 to i8*, !dbg !3435
	%8 = getelementptr i8, i8*  %7, i64 8, !dbg !3435
	%9 = bitcast i8*  %8 to i8**, !dbg !3435
	store i8* null, i8**  %9, align 8, !tbaa !2097, !dbg !3435
	%10 = getelementptr i8, i8*  %7, i64 16, !dbg !3435
	%11 = bitcast i8*  %10 to i8**, !dbg !3435
	store i8* null, i8**  %11, align 8, !tbaa !2097, !dbg !3435
	%12 = getelementptr i8, i8*  %7, i64 24, !dbg !3435
	%13 = bitcast i8*  %12 to i8**, !dbg !3435
	store i8* null, i8**  %13, align 8, !tbaa !2097, !dbg !3435
	%14 = getelementptr i8, i8*  %7, i64 32, !dbg !3435
	%15 = bitcast i8*  %14 to i8**, !dbg !3435
	store i8* null, i8**  %15, align 8, !tbaa !2097, !dbg !3435
	%16 = getelementptr i8, i8*  %7, i64 40, !dbg !3435
	%17 = bitcast i8*  %16 to i8**, !dbg !3435
	store i8* null, i8**  %17, align 8, !tbaa !2097, !dbg !3435
	%18 = getelementptr i8, i8*  %7, i64 48, !dbg !3435
	%19 = bitcast i8*  %18 to i8**, !dbg !3435
	store i8* null, i8**  %19, align 8, !tbaa !2097, !dbg !3435
	%20 = getelementptr i8, i8*  %7, i64 56, !dbg !3435
	%21 = bitcast i8*  %20 to %struct._ZSt6locale*, !dbg !3435
	call void  @_ZNSt6localeC1Ev (%struct._ZSt6locale*  %21) nounwind, !dbg !3435
	ret void, !dbg !3435
}
define linkonce_odr i8* @_ZNKSt15basic_streambufIcSt11char_traitsIcEE5egptrEv(%struct._ZSt15basic_streambufIcSt11char_traitsIcEE* %_T47720416_9734.arg) #0 inlinehint !dbg !3439 {
L.entry:
	%_T47720416_9734.addr = alloca %struct._ZSt15basic_streambufIcSt11char_traitsIcEE*, align 8

	call void @llvm.dbg.declare (metadata %struct._ZSt15basic_streambufIcSt11char_traitsIcEE** %_T47720416_9734.addr, metadata !3443, metadata !2084), !dbg !3440
	store %struct._ZSt15basic_streambufIcSt11char_traitsIcEE* %_T47720416_9734.arg, %struct._ZSt15basic_streambufIcSt11char_traitsIcEE** %_T47720416_9734.addr, align 8, !tbaa !2097
	call void @llvm.dbg.declare (metadata %struct._ZSt15basic_streambufIcSt11char_traitsIcEE** %_T47720416_9734.addr, metadata !3444, metadata !2084), !dbg !3440
	%0 = load %struct._ZSt15basic_streambufIcSt11char_traitsIcEE*, %struct._ZSt15basic_streambufIcSt11char_traitsIcEE** %_T47720416_9734.addr, align 8, !tbaa !2097, !dbg !3445
	%1 = bitcast %struct._ZSt15basic_streambufIcSt11char_traitsIcEE*  %0 to i8*, !dbg !3445
	%2 = getelementptr i8, i8*  %1, i64 24, !dbg !3445
	%3 = bitcast i8*  %2 to i8**, !dbg !3445
	%4 = load i8*, i8**  %3, align 8, !tbaa !2097, !dbg !3445
	ret i8*  %4, !dbg !3445
}
define linkonce_odr i8* @_ZNKSt15basic_streambufIcSt11char_traitsIcEE5pbaseEv(%struct._ZSt15basic_streambufIcSt11char_traitsIcEE* %_T47720416_9735.arg) #0 inlinehint !dbg !3447 {
L.entry:
	%_T47720416_9735.addr = alloca %struct._ZSt15basic_streambufIcSt11char_traitsIcEE*, align 8

	call void @llvm.dbg.declare (metadata %struct._ZSt15basic_streambufIcSt11char_traitsIcEE** %_T47720416_9735.addr, metadata !3451, metadata !2084), !dbg !3448
	store %struct._ZSt15basic_streambufIcSt11char_traitsIcEE* %_T47720416_9735.arg, %struct._ZSt15basic_streambufIcSt11char_traitsIcEE** %_T47720416_9735.addr, align 8, !tbaa !2097
	call void @llvm.dbg.declare (metadata %struct._ZSt15basic_streambufIcSt11char_traitsIcEE** %_T47720416_9735.addr, metadata !3452, metadata !2084), !dbg !3448
	%0 = load %struct._ZSt15basic_streambufIcSt11char_traitsIcEE*, %struct._ZSt15basic_streambufIcSt11char_traitsIcEE** %_T47720416_9735.addr, align 8, !tbaa !2097, !dbg !3453
	%1 = bitcast %struct._ZSt15basic_streambufIcSt11char_traitsIcEE*  %0 to i8*, !dbg !3453
	%2 = getelementptr i8, i8*  %1, i64 32, !dbg !3453
	%3 = bitcast i8*  %2 to i8**, !dbg !3453
	%4 = load i8*, i8**  %3, align 8, !tbaa !2097, !dbg !3453
	ret i8*  %4, !dbg !3453
}
define linkonce_odr i8* @_ZNKSt15basic_streambufIcSt11char_traitsIcEE4pptrEv(%struct._ZSt15basic_streambufIcSt11char_traitsIcEE* %_T47720416_9736.arg) #0 inlinehint !dbg !3455 {
L.entry:
	%_T47720416_9736.addr = alloca %struct._ZSt15basic_streambufIcSt11char_traitsIcEE*, align 8

	call void @llvm.dbg.declare (metadata %struct._ZSt15basic_streambufIcSt11char_traitsIcEE** %_T47720416_9736.addr, metadata !3459, metadata !2084), !dbg !3456
	store %struct._ZSt15basic_streambufIcSt11char_traitsIcEE* %_T47720416_9736.arg, %struct._ZSt15basic_streambufIcSt11char_traitsIcEE** %_T47720416_9736.addr, align 8, !tbaa !2097
	call void @llvm.dbg.declare (metadata %struct._ZSt15basic_streambufIcSt11char_traitsIcEE** %_T47720416_9736.addr, metadata !3460, metadata !2084), !dbg !3456
	%0 = load %struct._ZSt15basic_streambufIcSt11char_traitsIcEE*, %struct._ZSt15basic_streambufIcSt11char_traitsIcEE** %_T47720416_9736.addr, align 8, !tbaa !2097, !dbg !3461
	%1 = bitcast %struct._ZSt15basic_streambufIcSt11char_traitsIcEE*  %0 to i8*, !dbg !3461
	%2 = getelementptr i8, i8*  %1, i64 40, !dbg !3461
	%3 = bitcast i8*  %2 to i8**, !dbg !3461
	%4 = load i8*, i8**  %3, align 8, !tbaa !2097, !dbg !3461
	ret i8*  %4, !dbg !3461
}
define linkonce_odr signext i8 @_ZNKSt5ctypeIcE5widenEc(%struct._ZSt5ctypeIcE* %_T47720600_9738.arg, i8 signext %__c.arg) #0 inlinehint !dbg !3467 {
L.entry:
	%_T47720600_9738.addr = alloca %struct._ZSt5ctypeIcE*, align 8
	%__c.addr = alloca i8, align 1
	%.Q0026.addr = alloca i32, align 4

	call void @llvm.dbg.declare (metadata %struct._ZSt5ctypeIcE** %_T47720600_9738.addr, metadata !3471, metadata !2084), !dbg !3468
	store %struct._ZSt5ctypeIcE* %_T47720600_9738.arg, %struct._ZSt5ctypeIcE** %_T47720600_9738.addr, align 8, !tbaa !2097
	call void @llvm.dbg.declare (metadata %struct._ZSt5ctypeIcE** %_T47720600_9738.addr, metadata !3472, metadata !2084), !dbg !3468
	call void @llvm.dbg.declare (metadata i8* %__c.addr, metadata !3473, metadata !2084), !dbg !3468
	store i8 %__c.arg, i8* %__c.addr, align 1, !tbaa !2098
	call void @llvm.dbg.declare (metadata i8* %__c.addr, metadata !3474, metadata !2084), !dbg !3468
	%0 = load %struct._ZSt5ctypeIcE*, %struct._ZSt5ctypeIcE** %_T47720600_9738.addr, align 8, !tbaa !2097, !dbg !3475
	%1 = bitcast %struct._ZSt5ctypeIcE*  %0 to i8*, !dbg !3475
	%2 = getelementptr i8, i8*  %1, i64 56, !dbg !3475
	%3 = load i8, i8*  %2, align 1, !tbaa !2098, !dbg !3475
	%4 = sext i8  %3 to i32, !dbg !3475
	%5 = icmp eq i32  %4, 0, !dbg !3475
	br i1  %5, label %L.B0034, label %L.B1229, !dbg !3475
L.B1229:
	%6 = bitcast %struct._ZSt5ctypeIcE*  %0 to i8*, !dbg !3476
	%7 = getelementptr i8, i8*  %6, i64 57, !dbg !3476
	%8 = load i8, i8* %__c.addr, align 1, !tbaa !2098, !dbg !3476
	%9 = sext i8  %8 to i32, !dbg !3476
	%10 = and i32  %9, 255, !dbg !3476
	%11 = sext i32  %10 to i64, !dbg !3476
	%12 = getelementptr i8, i8*  %7, i64  %11, !dbg !3476
	%13 = load i8, i8*  %12, align 1, !tbaa !2098, !dbg !3476
	ret i8  %13, !dbg !3476
L.B1230:
	br label %L.R0031, !dbg !3476
L.B0034:
	%14 = load %struct._ZSt5ctypeIcE*, %struct._ZSt5ctypeIcE** %_T47720600_9738.addr, align 8, !tbaa !2097, !dbg !3477
	call void  @_ZNKSt5ctypeIcE13_M_widen_initEv (%struct._ZSt5ctypeIcE*  %14), !dbg !3477
	%15 = load %struct._ZSt5ctypeIcE*, %struct._ZSt5ctypeIcE** %_T47720600_9738.addr, align 8, !tbaa !2097, !dbg !3478
	%16 = load i8, i8* %__c.addr, align 1, !tbaa !2098, !dbg !3478
	%17 = bitcast %struct._ZSt5ctypeIcE*  %15 to i8**, !dbg !3478
	%18 = load i8*, i8**  %17, align 8, !tbaa !2097, !dbg !3478
	%19 = getelementptr i8, i8*  %18, i64 48, !dbg !3478
	%20 = bitcast i8*  %19 to i8 (%struct._ZSt5ctypeIcE*, i8)**, !dbg !3478
	%21 = load i8 (%struct._ZSt5ctypeIcE*, i8)*, i8 (%struct._ZSt5ctypeIcE*, i8)**  %20, align 8, !tbaa !2097, !dbg !3478
	%22 = call i8  %21 (%struct._ZSt5ctypeIcE*  %15, i8  %16), !dbg !3478
	%23 = sext i8  %22 to i32, !dbg !3478
	store i32  %23, i32* %.Q0026.addr, align 4, !tbaa !3481, !dbg !3478
	%24 = shl i32  %23, 24, !dbg !3478
	%25 = ashr i32  %24, 24, !dbg !3478
	%26 = trunc i32  %25 to i8, !dbg !3478
	ret i8  %26, !dbg !3478
L.R0031:
	ret i8 0
}
define linkonce_odr signext i32 @_ZNKSt9basic_iosIcSt11char_traitsIcEE7rdstateEv(%struct._ZSt9basic_iosIcSt11char_traitsIcEE* %_T47720416_9741.arg) #0 inlinehint !dbg !3488 {
L.entry:
	%_T47720416_9741.addr = alloca %struct._ZSt9basic_iosIcSt11char_traitsIcEE*, align 8

	call void @llvm.dbg.declare (metadata %struct._ZSt9basic_iosIcSt11char_traitsIcEE** %_T47720416_9741.addr, metadata !3492, metadata !2084), !dbg !3489
	store %struct._ZSt9basic_iosIcSt11char_traitsIcEE* %_T47720416_9741.arg, %struct._ZSt9basic_iosIcSt11char_traitsIcEE** %_T47720416_9741.addr, align 8, !tbaa !2097
	call void @llvm.dbg.declare (metadata %struct._ZSt9basic_iosIcSt11char_traitsIcEE** %_T47720416_9741.addr, metadata !3493, metadata !2084), !dbg !3489
	%0 = load %struct._ZSt9basic_iosIcSt11char_traitsIcEE*, %struct._ZSt9basic_iosIcSt11char_traitsIcEE** %_T47720416_9741.addr, align 8, !tbaa !2097, !dbg !3494
	%1 = bitcast %struct._ZSt9basic_iosIcSt11char_traitsIcEE*  %0 to i8*, !dbg !3494
	%2 = getelementptr i8, i8*  %1, i64 32, !dbg !3494
	%3 = bitcast i8*  %2 to i32*, !dbg !3494
	%4 = load i32, i32*  %3, align 4, !tbaa !2098, !dbg !3494
	ret i32  %4, !dbg !3494
}
define linkonce_odr void @_ZNSt9basic_iosIcSt11char_traitsIcEE8setstateESt12_Ios_Iostate(%struct._ZSt9basic_iosIcSt11char_traitsIcEE* %_T47720416_9745.arg, i32 signext %__state.arg) #0 inlinehint !dbg !3498 {
L.entry:
	%_T47720416_9745.addr = alloca %struct._ZSt9basic_iosIcSt11char_traitsIcEE*, align 8
	%__state.addr = alloca i32, align 4
	%..inline.addr = alloca i32, align 4

	call void @llvm.dbg.declare (metadata %struct._ZSt9basic_iosIcSt11char_traitsIcEE** %_T47720416_9745.addr, metadata !3510, metadata !2084), !dbg !3499
	store %struct._ZSt9basic_iosIcSt11char_traitsIcEE* %_T47720416_9745.arg, %struct._ZSt9basic_iosIcSt11char_traitsIcEE** %_T47720416_9745.addr, align 8, !tbaa !2097
	call void @llvm.dbg.declare (metadata %struct._ZSt9basic_iosIcSt11char_traitsIcEE** %_T47720416_9745.addr, metadata !3511, metadata !2084), !dbg !3499
	call void @llvm.dbg.declare (metadata i32* %__state.addr, metadata !3512, metadata !2084), !dbg !3499
	store i32 %__state.arg, i32* %__state.addr, align 4, !tbaa !2098
	call void @llvm.dbg.declare (metadata i32* %__state.addr, metadata !3513, metadata !2084), !dbg !3499
	%0 = load i32, i32* %__state.addr, align 4, !tbaa !2098, !dbg !3514
	%1 = load %struct._ZSt9basic_iosIcSt11char_traitsIcEE*, %struct._ZSt9basic_iosIcSt11char_traitsIcEE** %_T47720416_9745.addr, align 8, !tbaa !2097, !dbg !3514
	%2 = bitcast %struct._ZSt9basic_iosIcSt11char_traitsIcEE*  %1 to i8*, !dbg !3514
	%3 = getelementptr i8, i8*  %2, i64 32, !dbg !3514
	%4 = bitcast i8*  %3 to i32*, !dbg !3514
	%5 = load i32, i32*  %4, align 4, !tbaa !2098, !dbg !3514
	%6 = or i32  %0,  %5, !dbg !3514
	call void  @_ZNSt9basic_iosIcSt11char_traitsIcEE5clearESt12_Ios_Iostate (%struct._ZSt9basic_iosIcSt11char_traitsIcEE*  %1, i32  %6), !dbg !3515
	ret void, !dbg !3514
}
define linkonce_odr signext i8 @_ZNKSt9basic_iosIcSt11char_traitsIcEE4goodEv(%struct._ZSt9basic_iosIcSt11char_traitsIcEE* %_T47720600_9746.arg) #0 inlinehint !dbg !3519 {
L.entry:
	%_T47720600_9746.addr = alloca %struct._ZSt9basic_iosIcSt11char_traitsIcEE*, align 8

	call void @llvm.dbg.declare (metadata %struct._ZSt9basic_iosIcSt11char_traitsIcEE** %_T47720600_9746.addr, metadata !3527, metadata !2084), !dbg !3520
	store %struct._ZSt9basic_iosIcSt11char_traitsIcEE* %_T47720600_9746.arg, %struct._ZSt9basic_iosIcSt11char_traitsIcEE** %_T47720600_9746.addr, align 8, !tbaa !2097
	call void @llvm.dbg.declare (metadata %struct._ZSt9basic_iosIcSt11char_traitsIcEE** %_T47720600_9746.addr, metadata !3528, metadata !2084), !dbg !3520
	%0 = load %struct._ZSt9basic_iosIcSt11char_traitsIcEE*, %struct._ZSt9basic_iosIcSt11char_traitsIcEE** %_T47720600_9746.addr, align 8, !tbaa !2097, !dbg !3529
	%1 = bitcast %struct._ZSt9basic_iosIcSt11char_traitsIcEE*  %0 to i8*, !dbg !3529
	%2 = getelementptr i8, i8*  %1, i64 32, !dbg !3529
	%3 = bitcast i8*  %2 to i32*, !dbg !3529
	%4 = load i32, i32*  %3, align 4, !tbaa !2098, !dbg !3529
	%5 = icmp eq i32  %4, 0, !dbg !3529
	%6 = zext i1  %5 to i32, !dbg !3529
	%7 = trunc i32  %6 to i8, !dbg !3529
	ret i8  %7, !dbg !3529
}
define linkonce_odr void @_ZNSt9basic_iosIcSt11char_traitsIcEED1Ev(%struct._ZSt9basic_iosIcSt11char_traitsIcEE* %_T47720416_9747.arg) #0 inlinehint personality i8* bitcast (i32 (...)* @__gxx_personality_v0 to i8*) !dbg !3534 {
L.entry:
	%_T47720416_9747.addr = alloca %struct._ZSt9basic_iosIcSt11char_traitsIcEE*, align 8
	%__caught_object_address.addr = alloca i8*, align 8
	%__catch_clause_number.addr = alloca i32, align 4

	call void @llvm.dbg.declare (metadata %struct._ZSt9basic_iosIcSt11char_traitsIcEE** %_T47720416_9747.addr, metadata !3538, metadata !2084), !dbg !3535
	store %struct._ZSt9basic_iosIcSt11char_traitsIcEE* %_T47720416_9747.arg, %struct._ZSt9basic_iosIcSt11char_traitsIcEE** %_T47720416_9747.addr, align 8, !tbaa !2097
	call void @llvm.dbg.declare (metadata %struct._ZSt9basic_iosIcSt11char_traitsIcEE** %_T47720416_9747.addr, metadata !3539, metadata !2084), !dbg !3535
	%0 = bitcast [4 x i32 (...)* (...)*]* @_ZTVSt9basic_iosIcSt11char_traitsIcEE to i8*, !dbg !3540
	%1 = getelementptr i8, i8*  %0, i64 16, !dbg !3540
	%2 = load %struct._ZSt9basic_iosIcSt11char_traitsIcEE*, %struct._ZSt9basic_iosIcSt11char_traitsIcEE** %_T47720416_9747.addr, align 8, !tbaa !2097, !dbg !3540
	%3 = bitcast %struct._ZSt9basic_iosIcSt11char_traitsIcEE*  %2 to i8**, !dbg !3540
	store i8*  %1, i8**  %3, align 8, !tbaa !2097, !dbg !3540
	%4 = bitcast %struct._ZSt9basic_iosIcSt11char_traitsIcEE*  %2 to %struct._ZSt8ios_base*, !dbg !3540
	invoke void  @_ZNSt8ios_baseD2Ev (%struct._ZSt8ios_base*  %4)
		to label %L.B1237
		unwind label %L_T47721664_9747, !dbg !3540
L.B1237:
	br label %L.R0035, !dbg !3540
L_T47721664_9747:
	%5 = landingpad %astruct.dt64
	cleanup
	%6 = extractvalue %astruct.dt64  %5, 0, !dbg !3540
	store i8*  %6, i8** %__caught_object_address.addr, align 1, !tbaa !2097, !dbg !3540
	%7 = extractvalue %astruct.dt64  %5, 1, !dbg !3540
	store i32  %7, i32* %__catch_clause_number.addr, align 1, !tbaa !2098, !dbg !3540
	%8 = load i8*, i8** %__caught_object_address.addr, align 8, !tbaa !2097, !dbg !3540
	%9 = call i8*  @__cxa_begin_catch (i8*  %8) nounwind, !dbg !3540
	call void  @_ZSt9terminatev () nounwind noreturn, !dbg !3540
	br label %L.R0035
L.R0035:
	ret void, !dbg !3540
}
define linkonce_odr void @_ZNSt9basic_iosIcSt11char_traitsIcEED0Ev(%struct._ZSt9basic_iosIcSt11char_traitsIcEE* %_T47720416_9748.arg) #0 inlinehint !dbg !3545 {
L.entry:
	%_T47720416_9748.addr = alloca %struct._ZSt9basic_iosIcSt11char_traitsIcEE*, align 8

	store %struct._ZSt9basic_iosIcSt11char_traitsIcEE* %_T47720416_9748.arg, %struct._ZSt9basic_iosIcSt11char_traitsIcEE** %_T47720416_9748.addr, align 8, !tbaa !2097
	%0 = load %struct._ZSt9basic_iosIcSt11char_traitsIcEE*, %struct._ZSt9basic_iosIcSt11char_traitsIcEE** %_T47720416_9748.addr, align 8, !tbaa !2097, !dbg !3549
	call void  @_ZNSt9basic_iosIcSt11char_traitsIcEED1Ev (%struct._ZSt9basic_iosIcSt11char_traitsIcEE*  %0) nounwind, !dbg !3549
	%1 = load %struct._ZSt9basic_iosIcSt11char_traitsIcEE*, %struct._ZSt9basic_iosIcSt11char_traitsIcEE** %_T47720416_9748.addr, align 8, !tbaa !2097, !dbg !3549
	%2 = bitcast %struct._ZSt9basic_iosIcSt11char_traitsIcEE*  %1 to i8*, !dbg !3549
	call void  @_ZdlPvm (i8*  %2, i64 264) nounwind, !dbg !3549
	ret void, !dbg !3549
}
define linkonce_odr void @_ZNSt9basic_iosIcSt11char_traitsIcEED2Ev(%struct._ZSt9basic_iosIcSt11char_traitsIcEE* %_T47720416_9749.arg) #0 inlinehint !dbg !3551 {
L.entry:
	%_T47720416_9749.addr = alloca %struct._ZSt9basic_iosIcSt11char_traitsIcEE*, align 8

	store %struct._ZSt9basic_iosIcSt11char_traitsIcEE* %_T47720416_9749.arg, %struct._ZSt9basic_iosIcSt11char_traitsIcEE** %_T47720416_9749.addr, align 8, !tbaa !2097
	%0 = load %struct._ZSt9basic_iosIcSt11char_traitsIcEE*, %struct._ZSt9basic_iosIcSt11char_traitsIcEE** %_T47720416_9749.addr, align 8, !tbaa !2097, !dbg !3555
	call void  @_ZNSt9basic_iosIcSt11char_traitsIcEED1Ev (%struct._ZSt9basic_iosIcSt11char_traitsIcEE*  %0) nounwind, !dbg !3555
	ret void, !dbg !3555
}
define linkonce_odr signext i8 @_ZNKSt9basic_iosIcSt11char_traitsIcEE5widenEc(%struct._ZSt9basic_iosIcSt11char_traitsIcEE* %_T47720416_9751.arg, i8 signext %__c.arg) #0 inlinehint !dbg !3559 {
L.entry:
	%_T47720416_9751.addr = alloca %struct._ZSt9basic_iosIcSt11char_traitsIcEE*, align 8
	%__c.addr = alloca i8, align 1
	%..inline.addr = alloca %struct._ZSt5ctypeIcE*, align 8
	%..inline.addr.1 = alloca %struct._ZSt5ctypeIcE*, align 8
	%..inline.addr.2 = alloca i8, align 1
	%..inline.addr.3 = alloca i8, align 1
	%.Q0027.addr = alloca i32, align 4

	call void @llvm.dbg.declare (metadata %struct._ZSt9basic_iosIcSt11char_traitsIcEE** %_T47720416_9751.addr, metadata !3571, metadata !2084), !dbg !3560
	store %struct._ZSt9basic_iosIcSt11char_traitsIcEE* %_T47720416_9751.arg, %struct._ZSt9basic_iosIcSt11char_traitsIcEE** %_T47720416_9751.addr, align 8, !tbaa !2097
	call void @llvm.dbg.declare (metadata %struct._ZSt9basic_iosIcSt11char_traitsIcEE** %_T47720416_9751.addr, metadata !3572, metadata !2084), !dbg !3560
	call void @llvm.dbg.declare (metadata i8* %__c.addr, metadata !3573, metadata !2084), !dbg !3560
	store i8 %__c.arg, i8* %__c.addr, align 1, !tbaa !2098
	call void @llvm.dbg.declare (metadata i8* %__c.addr, metadata !3574, metadata !2084), !dbg !3560
	%0 = load %struct._ZSt9basic_iosIcSt11char_traitsIcEE*, %struct._ZSt9basic_iosIcSt11char_traitsIcEE** %_T47720416_9751.addr, align 8, !tbaa !2097, !dbg !3575
	%1 = bitcast %struct._ZSt9basic_iosIcSt11char_traitsIcEE*  %0 to i8*, !dbg !3575
	%2 = getelementptr i8, i8*  %1, i64 240, !dbg !3575
	%3 = bitcast i8*  %2 to i8**, !dbg !3575
	%4 = load i8*, i8**  %3, align 8, !tbaa !2097, !dbg !3575
	%5 = bitcast %struct._ZSt5ctypeIcE** %..inline.addr to i8**, !dbg !3575
	store i8*  %4, i8**  %5, align 8, !tbaa !2097, !dbg !3575
	%6 = load %struct._ZSt5ctypeIcE*, %struct._ZSt5ctypeIcE** %..inline.addr, align 8, !tbaa !2097, !dbg !3575
	%7 = bitcast %struct._ZSt5ctypeIcE*  %6 to i8*, !dbg !3575
	%8 = icmp ne i8*  %7,  null, !dbg !3575
	br i1  %8, label %L..inline.24915, label %L.B1242, !dbg !3575
L.B1242:
	call void  @_ZSt16__throw_bad_castv () noreturn, !dbg !3576
	br label %L..inline.24915
L..inline.24915:
	%9 = load %struct._ZSt5ctypeIcE*, %struct._ZSt5ctypeIcE** %..inline.addr, align 8, !tbaa !2097, !dbg !3577
	%10 = bitcast %struct._ZSt5ctypeIcE*  %9 to i8*, !dbg !3577
	%11 = bitcast %struct._ZSt5ctypeIcE** %..inline.addr.1 to i8**, !dbg !3577
	store i8*  %10, i8**  %11, align 8, !tbaa !2097, !dbg !3577
	%12 = load i8, i8* %__c.addr, align 1, !tbaa !2098, !dbg !3575
	store i8  %12, i8* %..inline.addr.2, align 1, !tbaa !2098, !dbg !3575
	%13 = load %struct._ZSt5ctypeIcE*, %struct._ZSt5ctypeIcE** %..inline.addr.1, align 8, !tbaa !2097, !dbg !3575
	%14 = bitcast %struct._ZSt5ctypeIcE*  %13 to i8*, !dbg !3575
	%15 = getelementptr i8, i8*  %14, i64 56, !dbg !3575
	%16 = load i8, i8*  %15, align 1, !tbaa !2098, !dbg !3575
	%17 = sext i8  %16 to i32, !dbg !3575
	%18 = icmp eq i32  %17, 0, !dbg !3575
	br i1  %18, label %L..inline.24921, label %L.B1243, !dbg !3575
L.B1243:
	%19 = bitcast %struct._ZSt5ctypeIcE*  %13 to i8*, !dbg !3578
	%20 = getelementptr i8, i8*  %19, i64 57, !dbg !3578
	%21 = sext i8  %12 to i32, !dbg !3578
	%22 = and i32  %21, 255, !dbg !3578
	%23 = sext i32  %22 to i64, !dbg !3578
	%24 = getelementptr i8, i8*  %20, i64  %23, !dbg !3578
	%25 = load i8, i8*  %24, align 1, !tbaa !2098, !dbg !3578
	store i8  %25, i8* %..inline.addr.3, align 1, !tbaa !2098, !dbg !3578
	br label %L..inline.24925, !dbg !3579
L..inline.24921:
	%26 = load %struct._ZSt5ctypeIcE*, %struct._ZSt5ctypeIcE** %..inline.addr.1, align 8, !tbaa !2097, !dbg !3580
	call void  @_ZNKSt5ctypeIcE13_M_widen_initEv (%struct._ZSt5ctypeIcE*  %26), !dbg !3580
	%27 = load %struct._ZSt5ctypeIcE*, %struct._ZSt5ctypeIcE** %..inline.addr.1, align 8, !tbaa !2097, !dbg !3581
	%28 = load i8, i8* %..inline.addr.2, align 1, !tbaa !2098, !dbg !3581
	%29 = bitcast %struct._ZSt5ctypeIcE*  %27 to i8**, !dbg !3581
	%30 = load i8*, i8**  %29, align 8, !tbaa !2097, !dbg !3581
	%31 = getelementptr i8, i8*  %30, i64 48, !dbg !3581
	%32 = bitcast i8*  %31 to i8 (%struct._ZSt5ctypeIcE*, i8)**, !dbg !3581
	%33 = load i8 (%struct._ZSt5ctypeIcE*, i8)*, i8 (%struct._ZSt5ctypeIcE*, i8)**  %32, align 8, !tbaa !2097, !dbg !3581
	%34 = call i8  %33 (%struct._ZSt5ctypeIcE*  %27, i8  %28), !dbg !3581
	%35 = sext i8  %34 to i32, !dbg !3581
	store i32  %35, i32* %.Q0027.addr, align 4, !tbaa !3481, !dbg !3581
	%36 = shl i32  %35, 24, !dbg !3581
	%37 = ashr i32  %36, 24, !dbg !3581
	%38 = trunc i32  %37 to i8, !dbg !3581
	store i8  %38, i8* %..inline.addr.3, align 1, !tbaa !2098, !dbg !3581
	br label %L..inline.24925
L..inline.24925:
	%39 = load i8, i8* %..inline.addr.3, align 1, !tbaa !2098, !dbg !3582
	ret i8  %39, !dbg !3582
}
define linkonce_odr void @_ZNSt9basic_iosIcSt11char_traitsIcEEC1Ev(%struct._ZSt9basic_iosIcSt11char_traitsIcEE* %_T47721704_9752.arg) #0 inlinehint !dbg !3584 {
L.entry:
	%_T47721704_9752.addr = alloca %struct._ZSt9basic_iosIcSt11char_traitsIcEE*, align 8

	call void @llvm.dbg.declare (metadata %struct._ZSt9basic_iosIcSt11char_traitsIcEE** %_T47721704_9752.addr, metadata !3588, metadata !2084), !dbg !3585
	store %struct._ZSt9basic_iosIcSt11char_traitsIcEE* %_T47721704_9752.arg, %struct._ZSt9basic_iosIcSt11char_traitsIcEE** %_T47721704_9752.addr, align 8, !tbaa !2097
	call void @llvm.dbg.declare (metadata %struct._ZSt9basic_iosIcSt11char_traitsIcEE** %_T47721704_9752.addr, metadata !3589, metadata !2084), !dbg !3585
	%0 = load %struct._ZSt9basic_iosIcSt11char_traitsIcEE*, %struct._ZSt9basic_iosIcSt11char_traitsIcEE** %_T47721704_9752.addr, align 8, !tbaa !2097, !dbg !3590
	%1 = bitcast %struct._ZSt9basic_iosIcSt11char_traitsIcEE*  %0 to %struct._ZSt8ios_base*, !dbg !3590
	call void  @_ZNSt8ios_baseC2Ev (%struct._ZSt8ios_base*  %1) nounwind, !dbg !3590
	%2 = bitcast [4 x i32 (...)* (...)*]* @_ZTVSt9basic_iosIcSt11char_traitsIcEE to i8*, !dbg !3590
	%3 = getelementptr i8, i8*  %2, i64 16, !dbg !3590
	%4 = load %struct._ZSt9basic_iosIcSt11char_traitsIcEE*, %struct._ZSt9basic_iosIcSt11char_traitsIcEE** %_T47721704_9752.addr, align 8, !tbaa !2097, !dbg !3590
	%5 = bitcast %struct._ZSt9basic_iosIcSt11char_traitsIcEE*  %4 to i8**, !dbg !3590
	store i8*  %3, i8**  %5, align 8, !tbaa !2097, !dbg !3590
	%6 = bitcast %struct._ZSt9basic_iosIcSt11char_traitsIcEE*  %4 to i8*, !dbg !3590
	%7 = getelementptr i8, i8*  %6, i64 216, !dbg !3590
	%8 = bitcast i8*  %7 to i8**, !dbg !3590
	store i8* null, i8**  %8, align 8, !tbaa !2097, !dbg !3590
	%9 = getelementptr i8, i8*  %6, i64 224, !dbg !3590
	store i8 0, i8*  %9, align 1, !tbaa !2098, !dbg !3590
	%10 = getelementptr i8, i8*  %6, i64 225, !dbg !3590
	store i8 0, i8*  %10, align 1, !tbaa !2098, !dbg !3590
	%11 = getelementptr i8, i8*  %6, i64 232, !dbg !3590
	%12 = bitcast i8*  %11 to i8**, !dbg !3590
	store i8* null, i8**  %12, align 8, !tbaa !2097, !dbg !3590
	%13 = getelementptr i8, i8*  %6, i64 240, !dbg !3590
	%14 = bitcast i8*  %13 to i8**, !dbg !3590
	store i8* null, i8**  %14, align 8, !tbaa !2097, !dbg !3590
	%15 = getelementptr i8, i8*  %6, i64 248, !dbg !3590
	%16 = bitcast i8*  %15 to i8**, !dbg !3590
	store i8* null, i8**  %16, align 8, !tbaa !2097, !dbg !3590
	%17 = getelementptr i8, i8*  %6, i64 256, !dbg !3590
	%18 = bitcast i8*  %17 to i8**, !dbg !3590
	store i8* null, i8**  %18, align 8, !tbaa !2097, !dbg !3590
	ret void, !dbg !3590
}
define linkonce_odr void @_ZNSt9basic_iosIcSt11char_traitsIcEEC2Ev(%struct._ZSt9basic_iosIcSt11char_traitsIcEE* %_T47720416_9753.arg) #0 inlinehint !dbg !3592 {
L.entry:
	%_T47720416_9753.addr = alloca %struct._ZSt9basic_iosIcSt11char_traitsIcEE*, align 8
	%..inline.addr = alloca %struct._ZSt9basic_iosIcSt11char_traitsIcEE*, align 8

	store %struct._ZSt9basic_iosIcSt11char_traitsIcEE* %_T47720416_9753.arg, %struct._ZSt9basic_iosIcSt11char_traitsIcEE** %_T47720416_9753.addr, align 8, !tbaa !2097
	%0 = load %struct._ZSt9basic_iosIcSt11char_traitsIcEE*, %struct._ZSt9basic_iosIcSt11char_traitsIcEE** %_T47720416_9753.addr, align 8, !tbaa !2097, !dbg !3600
	%1 = bitcast %struct._ZSt9basic_iosIcSt11char_traitsIcEE*  %0 to i8*, !dbg !3600
	%2 = bitcast %struct._ZSt9basic_iosIcSt11char_traitsIcEE** %..inline.addr to i8**, !dbg !3600
	store i8*  %1, i8**  %2, align 8, !tbaa !2097, !dbg !3600
	%3 = load %struct._ZSt9basic_iosIcSt11char_traitsIcEE*, %struct._ZSt9basic_iosIcSt11char_traitsIcEE** %..inline.addr, align 8, !tbaa !2097, !dbg !3600
	%4 = bitcast %struct._ZSt9basic_iosIcSt11char_traitsIcEE*  %3 to %struct._ZSt8ios_base*, !dbg !3600
	call void  @_ZNSt8ios_baseC2Ev (%struct._ZSt8ios_base*  %4) nounwind, !dbg !3600
	%5 = bitcast [4 x i32 (...)* (...)*]* @_ZTVSt9basic_iosIcSt11char_traitsIcEE to i8*, !dbg !3600
	%6 = getelementptr i8, i8*  %5, i64 16, !dbg !3600
	%7 = load %struct._ZSt9basic_iosIcSt11char_traitsIcEE*, %struct._ZSt9basic_iosIcSt11char_traitsIcEE** %..inline.addr, align 8, !tbaa !2097, !dbg !3600
	%8 = bitcast %struct._ZSt9basic_iosIcSt11char_traitsIcEE*  %7 to i8**, !dbg !3600
	store i8*  %6, i8**  %8, align 8, !tbaa !2097, !dbg !3600
	%9 = bitcast %struct._ZSt9basic_iosIcSt11char_traitsIcEE*  %7 to i8*, !dbg !3600
	%10 = getelementptr i8, i8*  %9, i64 216, !dbg !3600
	%11 = bitcast i8*  %10 to i8**, !dbg !3600
	store i8* null, i8**  %11, align 8, !tbaa !2097, !dbg !3600
	%12 = getelementptr i8, i8*  %9, i64 224, !dbg !3600
	store i8 0, i8*  %12, align 1, !tbaa !2098, !dbg !3600
	%13 = getelementptr i8, i8*  %9, i64 225, !dbg !3600
	store i8 0, i8*  %13, align 1, !tbaa !2098, !dbg !3600
	%14 = getelementptr i8, i8*  %9, i64 232, !dbg !3600
	%15 = bitcast i8*  %14 to i8**, !dbg !3600
	store i8* null, i8**  %15, align 8, !tbaa !2097, !dbg !3600
	%16 = getelementptr i8, i8*  %9, i64 240, !dbg !3600
	%17 = bitcast i8*  %16 to i8**, !dbg !3600
	store i8* null, i8**  %17, align 8, !tbaa !2097, !dbg !3600
	%18 = getelementptr i8, i8*  %9, i64 248, !dbg !3600
	%19 = bitcast i8*  %18 to i8**, !dbg !3600
	store i8* null, i8**  %19, align 8, !tbaa !2097, !dbg !3600
	%20 = getelementptr i8, i8*  %9, i64 256, !dbg !3600
	%21 = bitcast i8*  %20 to i8**, !dbg !3600
	store i8* null, i8**  %21, align 8, !tbaa !2097, !dbg !3600
	ret void, !dbg !3600
}
define linkonce_odr void @_ZNSoD2Ev(%struct._ZSo* %_T47720416_9755.arg, i64** %_T47720712_9755.arg) #0 inlinehint !dbg !3607 {
L.entry:
	%_T47720416_9755.addr = alloca %struct._ZSo*, align 8
	%_T47720712_9755.addr = alloca i64**, align 8

	call void @llvm.dbg.declare (metadata %struct._ZSo** %_T47720416_9755.addr, metadata !3611, metadata !2084), !dbg !3608
	store %struct._ZSo* %_T47720416_9755.arg, %struct._ZSo** %_T47720416_9755.addr, align 8, !tbaa !2097
	call void @llvm.dbg.declare (metadata %struct._ZSo** %_T47720416_9755.addr, metadata !3612, metadata !2084), !dbg !3608
	store i64** %_T47720712_9755.arg, i64*** %_T47720712_9755.addr, align 8, !tbaa !2097
	%0 = load i64**, i64*** %_T47720712_9755.addr, align 8, !tbaa !2097, !dbg !3613
	%1 = bitcast i64**  %0 to i8**, !dbg !3613
	%2 = load i8*, i8**  %1, align 8, !tbaa !2097, !dbg !3613
	%3 = load %struct._ZSo*, %struct._ZSo** %_T47720416_9755.addr, align 8, !tbaa !2097, !dbg !3613
	%4 = bitcast %struct._ZSo*  %3 to i8**, !dbg !3613
	store i8*  %2, i8**  %4, align 8, !tbaa !2097, !dbg !3613
	%5 = bitcast i64**  %0 to i8*, !dbg !3613
	%6 = getelementptr i8, i8*  %5, i64 8, !dbg !3613
	%7 = bitcast i8*  %6 to i8**, !dbg !3613
	%8 = load i8*, i8**  %7, align 8, !tbaa !2097, !dbg !3613
	%9 = bitcast %struct._ZSo*  %3 to i8*, !dbg !3613
	%10 = getelementptr i8, i8*  %2, i64 18446744073709551592, !dbg !3613
	%11 = bitcast i8*  %10 to i64*, !dbg !3613
	%12 = load i64, i64*  %11, align 8, !tbaa !2098, !dbg !3613
	%13 = getelementptr i8, i8*  %9, i64  %12, !dbg !3613
	%14 = bitcast i8*  %13 to i8**, !dbg !3613
	store i8*  %8, i8**  %14, align 8, !tbaa !2097, !dbg !3613
	ret void, !dbg !3613
}
define linkonce_odr void @_ZNSoD0Ev(%struct._ZSo* %_T47720416_9756.arg) #0 inlinehint !dbg !3617 {
L.entry:
	%_T47720416_9756.addr = alloca %struct._ZSo*, align 8
	%..inline.addr = alloca %struct._ZSo*, align 8
	%..inline.addr.1 = alloca %struct._ZSo*, align 8
	%..inline.addr.2 = alloca %struct._ZSt9basic_iosIcSt11char_traitsIcEE*, align 8

	store %struct._ZSo* %_T47720416_9756.arg, %struct._ZSo** %_T47720416_9756.addr, align 8, !tbaa !2097
	%0 = load %struct._ZSo*, %struct._ZSo** %_T47720416_9756.addr, align 8, !tbaa !2097, !dbg !3633
	%1 = bitcast %struct._ZSo*  %0 to i8*, !dbg !3633
	%2 = bitcast %struct._ZSo** %..inline.addr to i8**, !dbg !3633
	store i8*  %1, i8**  %2, align 8, !tbaa !2097, !dbg !3633
	%3 = load %struct._ZSo*, %struct._ZSo** %..inline.addr, align 8, !tbaa !2097, !dbg !3633
	%4 = bitcast %struct._ZSo*  %3 to i8*, !dbg !3633
	%5 = bitcast %struct._ZSo** %..inline.addr.1 to i8**, !dbg !3633
	store i8*  %4, i8**  %5, align 8, !tbaa !2097, !dbg !3633
	%6 = load i64**, i64*** @_ZTTSo, align 8, !tbaa !2097, !dbg !3633
	%7 = bitcast i64**  %6 to i8*, !dbg !3633
	%8 = bitcast %struct._ZSo*  %0 to i8**, !dbg !3633
	store i8*  %7, i8**  %8, align 8, !tbaa !2097, !dbg !3633
	%9 = bitcast i64*** @_ZTTSo to i8*, !dbg !3633
	%10 = getelementptr i8, i8*  %9, i64 8, !dbg !3633
	%11 = bitcast i8*  %10 to i64***, !dbg !3633
	%12 = load i64**, i64***  %11, align 8, !tbaa !2097, !dbg !3633
	%13 = bitcast i64**  %12 to i8*, !dbg !3633
	%14 = load %struct._ZSo*, %struct._ZSo** %..inline.addr.1, align 8, !tbaa !2097, !dbg !3633
	%15 = bitcast %struct._ZSo*  %14 to i8*, !dbg !3633
	%16 = bitcast %struct._ZSo*  %14 to i8**, !dbg !3633
	%17 = load i8*, i8**  %16, align 8, !tbaa !2097, !dbg !3633
	%18 = getelementptr i8, i8*  %17, i64 18446744073709551592, !dbg !3633
	%19 = bitcast i8*  %18 to i64*, !dbg !3633
	%20 = load i64, i64*  %19, align 8, !tbaa !2098, !dbg !3633
	%21 = getelementptr i8, i8*  %15, i64  %20, !dbg !3633
	%22 = bitcast i8*  %21 to i8**, !dbg !3633
	store i8*  %13, i8**  %22, align 8, !tbaa !2097, !dbg !3633
	%23 = getelementptr i8, i8*  %4, i64 8, !dbg !3633
	%24 = bitcast %struct._ZSt9basic_iosIcSt11char_traitsIcEE** %..inline.addr.2 to i8**, !dbg !3633
	store i8*  %23, i8**  %24, align 8, !tbaa !2097, !dbg !3633
	%25 = load %struct._ZSt9basic_iosIcSt11char_traitsIcEE*, %struct._ZSt9basic_iosIcSt11char_traitsIcEE** %..inline.addr.2, align 8, !tbaa !2097, !dbg !3633
	call void  @_ZNSt9basic_iosIcSt11char_traitsIcEED1Ev (%struct._ZSt9basic_iosIcSt11char_traitsIcEE*  %25) nounwind, !dbg !3633
	%26 = load %struct._ZSo*, %struct._ZSo** %_T47720416_9756.addr, align 8, !tbaa !2097, !dbg !3633
	%27 = bitcast %struct._ZSo*  %26 to i8*, !dbg !3633
	call void  @_ZdlPvm (i8*  %27, i64 272) nounwind, !dbg !3633
	ret void, !dbg !3633
}
define linkonce_odr void @_ZNSoD1Ev(%struct._ZSo* %_T47720416_9758.arg) #0 inlinehint !dbg !3637 {
L.entry:
	%_T47720416_9758.addr = alloca %struct._ZSo*, align 8
	%..inline.addr = alloca %struct._ZSo*, align 8
	%..inline.addr.1 = alloca %struct._ZSt9basic_iosIcSt11char_traitsIcEE*, align 8

	store %struct._ZSo* %_T47720416_9758.arg, %struct._ZSo** %_T47720416_9758.addr, align 8, !tbaa !2097
	%0 = load %struct._ZSo*, %struct._ZSo** %_T47720416_9758.addr, align 8, !tbaa !2097, !dbg !3649
	%1 = bitcast %struct._ZSo*  %0 to i8*, !dbg !3649
	%2 = bitcast %struct._ZSo** %..inline.addr to i8**, !dbg !3649
	store i8*  %1, i8**  %2, align 8, !tbaa !2097, !dbg !3649
	%3 = load i64**, i64*** @_ZTTSo, align 8, !tbaa !2097, !dbg !3649
	%4 = bitcast i64**  %3 to i8*, !dbg !3649
	%5 = load %struct._ZSo*, %struct._ZSo** %..inline.addr, align 8, !tbaa !2097, !dbg !3649
	%6 = bitcast %struct._ZSo*  %5 to i8**, !dbg !3649
	store i8*  %4, i8**  %6, align 8, !tbaa !2097, !dbg !3649
	%7 = bitcast i64*** @_ZTTSo to i8*, !dbg !3649
	%8 = getelementptr i8, i8*  %7, i64 8, !dbg !3649
	%9 = bitcast i8*  %8 to i64***, !dbg !3649
	%10 = load i64**, i64***  %9, align 8, !tbaa !2097, !dbg !3649
	%11 = bitcast i64**  %10 to i8*, !dbg !3649
	%12 = bitcast %struct._ZSo*  %5 to i8*, !dbg !3649
	%13 = getelementptr i8, i8*  %4, i64 18446744073709551592, !dbg !3649
	%14 = bitcast i8*  %13 to i64*, !dbg !3649
	%15 = load i64, i64*  %14, align 8, !tbaa !2098, !dbg !3649
	%16 = getelementptr i8, i8*  %12, i64  %15, !dbg !3649
	%17 = bitcast i8*  %16 to i8**, !dbg !3649
	store i8*  %11, i8**  %17, align 8, !tbaa !2097, !dbg !3649
	%18 = getelementptr i8, i8*  %1, i64 8, !dbg !3649
	%19 = bitcast %struct._ZSt9basic_iosIcSt11char_traitsIcEE** %..inline.addr.1 to i8**, !dbg !3649
	store i8*  %18, i8**  %19, align 8, !tbaa !2097, !dbg !3649
	%20 = load %struct._ZSt9basic_iosIcSt11char_traitsIcEE*, %struct._ZSt9basic_iosIcSt11char_traitsIcEE** %..inline.addr.1, align 8, !tbaa !2097, !dbg !3649
	call void  @_ZNSt9basic_iosIcSt11char_traitsIcEED1Ev (%struct._ZSt9basic_iosIcSt11char_traitsIcEE*  %20) nounwind, !dbg !3649
	ret void, !dbg !3649
}
define linkonce_odr %struct._ZSo* @_ZNSolsEPFRSoS_E(%struct._ZSo* %_T47720416_9761.arg, %struct._ZSo* (%struct._ZSo*)* %__pf.arg) #0 inlinehint !dbg !3653 {
L.entry:
	%_T47720416_9761.addr = alloca %struct._ZSo*, align 8
	%__pf.addr = alloca %struct._ZSo* (%struct._ZSo*)*, align 8
	%.Q0028.addr = alloca %struct._ZSo*, align 8

	call void @llvm.dbg.declare (metadata %struct._ZSo** %_T47720416_9761.addr, metadata !3657, metadata !2084), !dbg !3654
	store %struct._ZSo* %_T47720416_9761.arg, %struct._ZSo** %_T47720416_9761.addr, align 8, !tbaa !2097
	call void @llvm.dbg.declare (metadata %struct._ZSo** %_T47720416_9761.addr, metadata !3658, metadata !2084), !dbg !3654
	call void @llvm.dbg.declare (metadata %struct._ZSo* (%struct._ZSo*)** %__pf.addr, metadata !3659, metadata !2084), !dbg !3654
	store %struct._ZSo* (%struct._ZSo*)* %__pf.arg, %struct._ZSo* (%struct._ZSo*)** %__pf.addr, align 8, !tbaa !2097
	call void @llvm.dbg.declare (metadata %struct._ZSo* (%struct._ZSo*)** %__pf.addr, metadata !3660, metadata !2084), !dbg !3654
	%0 = load %struct._ZSo*, %struct._ZSo** %_T47720416_9761.addr, align 8, !tbaa !2097, !dbg !3661
	%1 = load %struct._ZSo* (%struct._ZSo*)*, %struct._ZSo* (%struct._ZSo*)** %__pf.addr, align 8, !tbaa !2097, !dbg !3661
	%2 = call %struct._ZSo*  %1 (%struct._ZSo*  %0), !dbg !3661
	%3 = bitcast %struct._ZSo*  %2 to i8*, !dbg !3661
	%4 = bitcast %struct._ZSo** %.Q0028.addr to i8**, !dbg !3661
	store i8*  %3, i8**  %4, align 8, !tbaa !2097, !dbg !3661
	%5 = load %struct._ZSo*, %struct._ZSo** %.Q0028.addr, align 8, !tbaa !2097, !dbg !3661
	ret %struct._ZSo*  %5, !dbg !3661
}
define linkonce_odr void @_ZNSoC2Ev(%struct._ZSo* %_T47720600_9765.arg, i64** %_T47720896_9765.arg) #0 inlinehint !dbg !3664 {
L.entry:
	%_T47720600_9765.addr = alloca %struct._ZSo*, align 8
	%_T47720896_9765.addr = alloca i64**, align 8

	call void @llvm.dbg.declare (metadata %struct._ZSo** %_T47720600_9765.addr, metadata !3668, metadata !2084), !dbg !3665
	store %struct._ZSo* %_T47720600_9765.arg, %struct._ZSo** %_T47720600_9765.addr, align 8, !tbaa !2097
	call void @llvm.dbg.declare (metadata %struct._ZSo** %_T47720600_9765.addr, metadata !3669, metadata !2084), !dbg !3665
	store i64** %_T47720896_9765.arg, i64*** %_T47720896_9765.addr, align 8, !tbaa !2097
	%0 = load i64**, i64*** %_T47720896_9765.addr, align 8, !tbaa !2097, !dbg !3670
	%1 = bitcast i64**  %0 to i8**, !dbg !3670
	%2 = load i8*, i8**  %1, align 8, !tbaa !2097, !dbg !3670
	%3 = load %struct._ZSo*, %struct._ZSo** %_T47720600_9765.addr, align 8, !tbaa !2097, !dbg !3670
	%4 = bitcast %struct._ZSo*  %3 to i8**, !dbg !3670
	store i8*  %2, i8**  %4, align 8, !tbaa !2097, !dbg !3670
	%5 = bitcast i64**  %0 to i8*, !dbg !3670
	%6 = getelementptr i8, i8*  %5, i64 8, !dbg !3670
	%7 = bitcast i8*  %6 to i8**, !dbg !3670
	%8 = load i8*, i8**  %7, align 8, !tbaa !2097, !dbg !3670
	%9 = bitcast %struct._ZSo*  %3 to i8*, !dbg !3670
	%10 = getelementptr i8, i8*  %2, i64 18446744073709551592, !dbg !3670
	%11 = bitcast i8*  %10 to i64*, !dbg !3670
	%12 = load i64, i64*  %11, align 8, !tbaa !2098, !dbg !3670
	%13 = getelementptr i8, i8*  %9, i64  %12, !dbg !3670
	%14 = bitcast i8*  %13 to i8**, !dbg !3670
	store i8*  %8, i8**  %14, align 8, !tbaa !2097, !dbg !3670
	%15 = load i8*, i8**  %4, align 8, !tbaa !2097, !dbg !3670
	%16 = getelementptr i8, i8*  %15, i64 18446744073709551592, !dbg !3670
	%17 = bitcast i8*  %16 to i64*, !dbg !3670
	%18 = load i64, i64*  %17, align 8, !tbaa !2098, !dbg !3670
	%19 = getelementptr i8, i8*  %9, i64  %18, !dbg !3670
	%20 = bitcast i8*  %19 to %struct._ZSt9basic_iosIcSt11char_traitsIcEE*, !dbg !3670
	call void  @_ZNSt9basic_iosIcSt11char_traitsIcEE4initEPSt15basic_streambufIcS1_E (%struct._ZSt9basic_iosIcSt11char_traitsIcEE*  %20, %struct._ZSt15basic_streambufIcSt11char_traitsIcEE* null), !dbg !3670
	ret void, !dbg !3670
}
define linkonce_odr void @_ZNSoC1Ev(%struct._ZSo* %_T47720416_9766.arg) #0 inlinehint personality i8* bitcast (i32 (...)* @__gxx_personality_v0 to i8*) !dbg !3672 {
L.entry:
	%_T47720416_9766.addr = alloca %struct._ZSo*, align 8
	%..inline.addr = alloca %struct._ZSt9basic_iosIcSt11char_traitsIcEE*, align 8
	%..inline.addr.1 = alloca %struct._ZSo*, align 8
	%__caught_object_address.addr = alloca i8*, align 8
	%__catch_clause_number.addr = alloca i32, align 4

	store %struct._ZSo* %_T47720416_9766.arg, %struct._ZSo** %_T47720416_9766.addr, align 8, !tbaa !2097
	%0 = load i64**, i64*** @_ZTTSo, align 8, !tbaa !2097, !dbg !3688
	%1 = bitcast i64**  %0 to i8*, !dbg !3688
	%2 = load %struct._ZSo*, %struct._ZSo** %_T47720416_9766.addr, align 8, !tbaa !2097, !dbg !3688
	%3 = bitcast %struct._ZSo*  %2 to i8**, !dbg !3688
	store i8*  %1, i8**  %3, align 8, !tbaa !2097, !dbg !3688
	%4 = bitcast %struct._ZSo*  %2 to i8*, !dbg !3688
	%5 = getelementptr i8, i8*  %4, i64 8, !dbg !3688
	%6 = bitcast %struct._ZSt9basic_iosIcSt11char_traitsIcEE** %..inline.addr to i8**, !dbg !3688
	store i8*  %5, i8**  %6, align 8, !tbaa !2097, !dbg !3688
	%7 = load %struct._ZSt9basic_iosIcSt11char_traitsIcEE*, %struct._ZSt9basic_iosIcSt11char_traitsIcEE** %..inline.addr, align 8, !tbaa !2097, !dbg !3688
	%8 = bitcast %struct._ZSt9basic_iosIcSt11char_traitsIcEE*  %7 to %struct._ZSt8ios_base*, !dbg !3688
	call void  @_ZNSt8ios_baseC2Ev (%struct._ZSt8ios_base*  %8) nounwind, !dbg !3688
	%9 = bitcast [4 x i32 (...)* (...)*]* @_ZTVSt9basic_iosIcSt11char_traitsIcEE to i8*, !dbg !3689
	%10 = getelementptr i8, i8*  %9, i64 16, !dbg !3689
	%11 = load %struct._ZSt9basic_iosIcSt11char_traitsIcEE*, %struct._ZSt9basic_iosIcSt11char_traitsIcEE** %..inline.addr, align 8, !tbaa !2097, !dbg !3689
	%12 = bitcast %struct._ZSt9basic_iosIcSt11char_traitsIcEE*  %11 to i8**, !dbg !3689
	store i8*  %10, i8**  %12, align 8, !tbaa !2097, !dbg !3689
	%13 = bitcast %struct._ZSt9basic_iosIcSt11char_traitsIcEE*  %11 to i8*, !dbg !3689
	%14 = getelementptr i8, i8*  %13, i64 216, !dbg !3689
	%15 = bitcast i8*  %14 to i8**, !dbg !3689
	store i8* null, i8**  %15, align 8, !tbaa !2097, !dbg !3689
	%16 = getelementptr i8, i8*  %13, i64 224, !dbg !3689
	store i8 0, i8*  %16, align 1, !tbaa !2098, !dbg !3689
	%17 = getelementptr i8, i8*  %13, i64 225, !dbg !3689
	store i8 0, i8*  %17, align 1, !tbaa !2098, !dbg !3689
	%18 = getelementptr i8, i8*  %13, i64 232, !dbg !3689
	%19 = bitcast i8*  %18 to i8**, !dbg !3689
	store i8* null, i8**  %19, align 8, !tbaa !2097, !dbg !3689
	%20 = getelementptr i8, i8*  %13, i64 240, !dbg !3689
	%21 = bitcast i8*  %20 to i8**, !dbg !3689
	store i8* null, i8**  %21, align 8, !tbaa !2097, !dbg !3689
	%22 = getelementptr i8, i8*  %13, i64 248, !dbg !3689
	%23 = bitcast i8*  %22 to i8**, !dbg !3689
	store i8* null, i8**  %23, align 8, !tbaa !2097, !dbg !3689
	%24 = getelementptr i8, i8*  %13, i64 256, !dbg !3689
	%25 = bitcast i8*  %24 to i8**, !dbg !3689
	store i8* null, i8**  %25, align 8, !tbaa !2097, !dbg !3689
	%26 = load %struct._ZSo*, %struct._ZSo** %_T47720416_9766.addr, align 8, !tbaa !2097, !dbg !3688
	%27 = bitcast %struct._ZSo*  %26 to i8*, !dbg !3688
	%28 = bitcast %struct._ZSo** %..inline.addr.1 to i8**, !dbg !3688
	store i8*  %27, i8**  %28, align 8, !tbaa !2097, !dbg !3688
	%29 = load i64**, i64*** @_ZTTSo, align 8, !tbaa !2097, !dbg !3688
	%30 = bitcast i64**  %29 to i8*, !dbg !3688
	%31 = load %struct._ZSo*, %struct._ZSo** %..inline.addr.1, align 8, !tbaa !2097, !dbg !3688
	%32 = bitcast %struct._ZSo*  %31 to i8**, !dbg !3688
	store i8*  %30, i8**  %32, align 8, !tbaa !2097, !dbg !3688
	%33 = bitcast i64*** @_ZTTSo to i8*, !dbg !3688
	%34 = getelementptr i8, i8*  %33, i64 8, !dbg !3688
	%35 = bitcast i8*  %34 to i64***, !dbg !3688
	%36 = load i64**, i64***  %35, align 8, !tbaa !2097, !dbg !3688
	%37 = bitcast i64**  %36 to i8*, !dbg !3688
	%38 = bitcast %struct._ZSo*  %31 to i8*, !dbg !3688
	%39 = getelementptr i8, i8*  %30, i64 18446744073709551592, !dbg !3688
	%40 = bitcast i8*  %39 to i64*, !dbg !3688
	%41 = load i64, i64*  %40, align 8, !tbaa !2098, !dbg !3688
	%42 = getelementptr i8, i8*  %38, i64  %41, !dbg !3688
	%43 = bitcast i8*  %42 to i8**, !dbg !3688
	store i8*  %37, i8**  %43, align 8, !tbaa !2097, !dbg !3688
	%44 = load i8*, i8**  %32, align 8, !tbaa !2097, !dbg !3688
	%45 = getelementptr i8, i8*  %44, i64 18446744073709551592, !dbg !3688
	%46 = bitcast i8*  %45 to i64*, !dbg !3688
	%47 = load i64, i64*  %46, align 8, !tbaa !2098, !dbg !3688
	%48 = getelementptr i8, i8*  %38, i64  %47, !dbg !3688
	%49 = bitcast i8*  %48 to %struct._ZSt9basic_iosIcSt11char_traitsIcEE*, !dbg !3688
	invoke void  @_ZNSt9basic_iosIcSt11char_traitsIcEE4initEPSt15basic_streambufIcS1_E (%struct._ZSt9basic_iosIcSt11char_traitsIcEE*  %49, %struct._ZSt15basic_streambufIcSt11char_traitsIcEE* null)
		to label %L.B1256
		unwind label %L_T47721600_9766, !dbg !3688
L.B1256:
	br label %L.R0046, !dbg !3688
L_T47721600_9766:
	%50 = landingpad %astruct.dt64
	cleanup
	%51 = extractvalue %astruct.dt64  %50, 0, !dbg !3688
	store i8*  %51, i8** %__caught_object_address.addr, align 1, !tbaa !2097, !dbg !3688
	%52 = extractvalue %astruct.dt64  %50, 1, !dbg !3688
	store i32  %52, i32* %__catch_clause_number.addr, align 1, !tbaa !2098, !dbg !3688
	%53 = load %struct._ZSo*, %struct._ZSo** %_T47720416_9766.addr, align 8, !tbaa !2097, !dbg !3688
	%54 = bitcast %struct._ZSo*  %53 to i8*, !dbg !3688
	%55 = getelementptr i8, i8*  %54, i64 8, !dbg !3688
	%56 = bitcast i8*  %55 to %struct._ZSt9basic_iosIcSt11char_traitsIcEE*, !dbg !3688
	call void  @_ZNSt9basic_iosIcSt11char_traitsIcEED1Ev (%struct._ZSt9basic_iosIcSt11char_traitsIcEE*  %56) nounwind, !dbg !3688
	%57 = load i32, i32* %__catch_clause_number.addr, align 4, !tbaa !2098, !dbg !3688
	%58 = load i8*, i8** %__caught_object_address.addr, align 8, !tbaa !2097, !dbg !3688
	%59 = insertvalue %astruct.dt64 undef, i8*  %58, 0, !dbg !3688
	%60 = insertvalue %astruct.dt64  %59, i32  %57, 1, !dbg !3688
	resume %astruct.dt64  %60 , !dbg !3688
L.R0046:
	ret void, !dbg !3688
}

%struct._ZSi = type <{ i32 (...)* (...)*, i64, %struct._ZSt9basic_iosIcSt11char_traitsIcEE}> 

define linkonce_odr void @_ZNSiD2Ev(%struct._ZSi* %_T47720416_9767.arg, i64** %_T47720712_9767.arg) #0 inlinehint !dbg !3696 {
L.entry:
	%_T47720416_9767.addr = alloca %struct._ZSi*, align 8
	%_T47720712_9767.addr = alloca i64**, align 8

	call void @llvm.dbg.declare (metadata %struct._ZSi** %_T47720416_9767.addr, metadata !3700, metadata !2084), !dbg !3697
	store %struct._ZSi* %_T47720416_9767.arg, %struct._ZSi** %_T47720416_9767.addr, align 8, !tbaa !2097
	call void @llvm.dbg.declare (metadata %struct._ZSi** %_T47720416_9767.addr, metadata !3701, metadata !2084), !dbg !3697
	store i64** %_T47720712_9767.arg, i64*** %_T47720712_9767.addr, align 8, !tbaa !2097
	%0 = load i64**, i64*** %_T47720712_9767.addr, align 8, !tbaa !2097, !dbg !3702
	%1 = bitcast i64**  %0 to i8**, !dbg !3702
	%2 = load i8*, i8**  %1, align 8, !tbaa !2097, !dbg !3702
	%3 = load %struct._ZSi*, %struct._ZSi** %_T47720416_9767.addr, align 8, !tbaa !2097, !dbg !3702
	%4 = bitcast %struct._ZSi*  %3 to i8**, !dbg !3702
	store i8*  %2, i8**  %4, align 8, !tbaa !2097, !dbg !3702
	%5 = bitcast i64**  %0 to i8*, !dbg !3702
	%6 = getelementptr i8, i8*  %5, i64 8, !dbg !3702
	%7 = bitcast i8*  %6 to i8**, !dbg !3702
	%8 = load i8*, i8**  %7, align 8, !tbaa !2097, !dbg !3702
	%9 = bitcast %struct._ZSi*  %3 to i8*, !dbg !3702
	%10 = getelementptr i8, i8*  %2, i64 18446744073709551592, !dbg !3702
	%11 = bitcast i8*  %10 to i64*, !dbg !3702
	%12 = load i64, i64*  %11, align 8, !tbaa !2098, !dbg !3702
	%13 = getelementptr i8, i8*  %9, i64  %12, !dbg !3702
	%14 = bitcast i8*  %13 to i8**, !dbg !3702
	store i8*  %8, i8**  %14, align 8, !tbaa !2097, !dbg !3702
	%15 = getelementptr i8, i8*  %9, i64 8, !dbg !3702
	%16 = bitcast i8*  %15 to i64*, !dbg !3702
	store i64 0, i64*  %16, align 8, !tbaa !2098, !dbg !3702
	ret void, !dbg !3702
}
define linkonce_odr void @_ZNSiD0Ev(%struct._ZSi* %_T47720416_9768.arg) #0 inlinehint !dbg !3706 {
L.entry:
	%_T47720416_9768.addr = alloca %struct._ZSi*, align 8
	%..inline.addr = alloca %struct._ZSi*, align 8
	%..inline.addr.1 = alloca %struct._ZSi*, align 8
	%..inline.addr.2 = alloca %struct._ZSt9basic_iosIcSt11char_traitsIcEE*, align 8

	store %struct._ZSi* %_T47720416_9768.arg, %struct._ZSi** %_T47720416_9768.addr, align 8, !tbaa !2097
	%0 = load %struct._ZSi*, %struct._ZSi** %_T47720416_9768.addr, align 8, !tbaa !2097, !dbg !3722
	%1 = bitcast %struct._ZSi*  %0 to i8*, !dbg !3722
	%2 = bitcast %struct._ZSi** %..inline.addr to i8**, !dbg !3722
	store i8*  %1, i8**  %2, align 8, !tbaa !2097, !dbg !3722
	%3 = load %struct._ZSi*, %struct._ZSi** %..inline.addr, align 8, !tbaa !2097, !dbg !3722
	%4 = bitcast %struct._ZSi*  %3 to i8*, !dbg !3722
	%5 = bitcast %struct._ZSi** %..inline.addr.1 to i8**, !dbg !3722
	store i8*  %4, i8**  %5, align 8, !tbaa !2097, !dbg !3722
	%6 = load i64**, i64*** @_ZTTSi, align 8, !tbaa !2097, !dbg !3722
	%7 = bitcast i64**  %6 to i8*, !dbg !3722
	%8 = bitcast %struct._ZSi*  %0 to i8**, !dbg !3722
	store i8*  %7, i8**  %8, align 8, !tbaa !2097, !dbg !3722
	%9 = bitcast i64*** @_ZTTSi to i8*, !dbg !3722
	%10 = getelementptr i8, i8*  %9, i64 8, !dbg !3722
	%11 = bitcast i8*  %10 to i64***, !dbg !3722
	%12 = load i64**, i64***  %11, align 8, !tbaa !2097, !dbg !3722
	%13 = bitcast i64**  %12 to i8*, !dbg !3722
	%14 = load %struct._ZSi*, %struct._ZSi** %..inline.addr.1, align 8, !tbaa !2097, !dbg !3722
	%15 = bitcast %struct._ZSi*  %14 to i8*, !dbg !3722
	%16 = bitcast %struct._ZSi*  %14 to i8**, !dbg !3722
	%17 = load i8*, i8**  %16, align 8, !tbaa !2097, !dbg !3722
	%18 = getelementptr i8, i8*  %17, i64 18446744073709551592, !dbg !3722
	%19 = bitcast i8*  %18 to i64*, !dbg !3722
	%20 = load i64, i64*  %19, align 8, !tbaa !2098, !dbg !3722
	%21 = getelementptr i8, i8*  %15, i64  %20, !dbg !3722
	%22 = bitcast i8*  %21 to i8**, !dbg !3722
	store i8*  %13, i8**  %22, align 8, !tbaa !2097, !dbg !3722
	%23 = getelementptr i8, i8*  %15, i64 8, !dbg !3722
	%24 = bitcast i8*  %23 to i64*, !dbg !3722
	store i64 0, i64*  %24, align 8, !tbaa !2098, !dbg !3722
	%25 = getelementptr i8, i8*  %4, i64 16, !dbg !3722
	%26 = bitcast %struct._ZSt9basic_iosIcSt11char_traitsIcEE** %..inline.addr.2 to i8**, !dbg !3722
	store i8*  %25, i8**  %26, align 8, !tbaa !2097, !dbg !3722
	%27 = load %struct._ZSt9basic_iosIcSt11char_traitsIcEE*, %struct._ZSt9basic_iosIcSt11char_traitsIcEE** %..inline.addr.2, align 8, !tbaa !2097, !dbg !3722
	call void  @_ZNSt9basic_iosIcSt11char_traitsIcEED1Ev (%struct._ZSt9basic_iosIcSt11char_traitsIcEE*  %27) nounwind, !dbg !3722
	%28 = load %struct._ZSi*, %struct._ZSi** %_T47720416_9768.addr, align 8, !tbaa !2097, !dbg !3722
	%29 = bitcast %struct._ZSi*  %28 to i8*, !dbg !3722
	call void  @_ZdlPvm (i8*  %29, i64 280) nounwind, !dbg !3722
	ret void, !dbg !3722
}
define linkonce_odr void @_ZNSiD1Ev(%struct._ZSi* %_T47720416_9770.arg) #0 inlinehint !dbg !3726 {
L.entry:
	%_T47720416_9770.addr = alloca %struct._ZSi*, align 8
	%..inline.addr = alloca %struct._ZSi*, align 8
	%..inline.addr.1 = alloca %struct._ZSt9basic_iosIcSt11char_traitsIcEE*, align 8

	store %struct._ZSi* %_T47720416_9770.arg, %struct._ZSi** %_T47720416_9770.addr, align 8, !tbaa !2097
	%0 = load %struct._ZSi*, %struct._ZSi** %_T47720416_9770.addr, align 8, !tbaa !2097, !dbg !3738
	%1 = bitcast %struct._ZSi*  %0 to i8*, !dbg !3738
	%2 = bitcast %struct._ZSi** %..inline.addr to i8**, !dbg !3738
	store i8*  %1, i8**  %2, align 8, !tbaa !2097, !dbg !3738
	%3 = load i64**, i64*** @_ZTTSi, align 8, !tbaa !2097, !dbg !3738
	%4 = bitcast i64**  %3 to i8*, !dbg !3738
	%5 = load %struct._ZSi*, %struct._ZSi** %..inline.addr, align 8, !tbaa !2097, !dbg !3738
	%6 = bitcast %struct._ZSi*  %5 to i8**, !dbg !3738
	store i8*  %4, i8**  %6, align 8, !tbaa !2097, !dbg !3738
	%7 = bitcast i64*** @_ZTTSi to i8*, !dbg !3738
	%8 = getelementptr i8, i8*  %7, i64 8, !dbg !3738
	%9 = bitcast i8*  %8 to i64***, !dbg !3738
	%10 = load i64**, i64***  %9, align 8, !tbaa !2097, !dbg !3738
	%11 = bitcast i64**  %10 to i8*, !dbg !3738
	%12 = bitcast %struct._ZSi*  %5 to i8*, !dbg !3738
	%13 = getelementptr i8, i8*  %4, i64 18446744073709551592, !dbg !3738
	%14 = bitcast i8*  %13 to i64*, !dbg !3738
	%15 = load i64, i64*  %14, align 8, !tbaa !2098, !dbg !3738
	%16 = getelementptr i8, i8*  %12, i64  %15, !dbg !3738
	%17 = bitcast i8*  %16 to i8**, !dbg !3738
	store i8*  %11, i8**  %17, align 8, !tbaa !2097, !dbg !3738
	%18 = getelementptr i8, i8*  %12, i64 8, !dbg !3738
	%19 = bitcast i8*  %18 to i64*, !dbg !3738
	store i64 0, i64*  %19, align 8, !tbaa !2098, !dbg !3738
	%20 = getelementptr i8, i8*  %1, i64 16, !dbg !3738
	%21 = bitcast %struct._ZSt9basic_iosIcSt11char_traitsIcEE** %..inline.addr.1 to i8**, !dbg !3738
	store i8*  %20, i8**  %21, align 8, !tbaa !2097, !dbg !3738
	%22 = load %struct._ZSt9basic_iosIcSt11char_traitsIcEE*, %struct._ZSt9basic_iosIcSt11char_traitsIcEE** %..inline.addr.1, align 8, !tbaa !2097, !dbg !3738
	call void  @_ZNSt9basic_iosIcSt11char_traitsIcEED1Ev (%struct._ZSt9basic_iosIcSt11char_traitsIcEE*  %22) nounwind, !dbg !3738
	ret void, !dbg !3738
}
define linkonce_odr void @_ZNSiC2Ev(%struct._ZSi* %_T47720784_9772.arg, i64** %_T47721080_9772.arg) #0 inlinehint !dbg !3740 {
L.entry:
	%_T47720784_9772.addr = alloca %struct._ZSi*, align 8
	%_T47721080_9772.addr = alloca i64**, align 8

	call void @llvm.dbg.declare (metadata %struct._ZSi** %_T47720784_9772.addr, metadata !3744, metadata !2084), !dbg !3741
	store %struct._ZSi* %_T47720784_9772.arg, %struct._ZSi** %_T47720784_9772.addr, align 8, !tbaa !2097
	call void @llvm.dbg.declare (metadata %struct._ZSi** %_T47720784_9772.addr, metadata !3745, metadata !2084), !dbg !3741
	store i64** %_T47721080_9772.arg, i64*** %_T47721080_9772.addr, align 8, !tbaa !2097
	%0 = load i64**, i64*** %_T47721080_9772.addr, align 8, !tbaa !2097, !dbg !3746
	%1 = bitcast i64**  %0 to i8**, !dbg !3746
	%2 = load i8*, i8**  %1, align 8, !tbaa !2097, !dbg !3746
	%3 = load %struct._ZSi*, %struct._ZSi** %_T47720784_9772.addr, align 8, !tbaa !2097, !dbg !3746
	%4 = bitcast %struct._ZSi*  %3 to i8**, !dbg !3746
	store i8*  %2, i8**  %4, align 8, !tbaa !2097, !dbg !3746
	%5 = bitcast i64**  %0 to i8*, !dbg !3746
	%6 = getelementptr i8, i8*  %5, i64 8, !dbg !3746
	%7 = bitcast i8*  %6 to i8**, !dbg !3746
	%8 = load i8*, i8**  %7, align 8, !tbaa !2097, !dbg !3746
	%9 = bitcast %struct._ZSi*  %3 to i8*, !dbg !3746
	%10 = getelementptr i8, i8*  %2, i64 18446744073709551592, !dbg !3746
	%11 = bitcast i8*  %10 to i64*, !dbg !3746
	%12 = load i64, i64*  %11, align 8, !tbaa !2098, !dbg !3746
	%13 = getelementptr i8, i8*  %9, i64  %12, !dbg !3746
	%14 = bitcast i8*  %13 to i8**, !dbg !3746
	store i8*  %8, i8**  %14, align 8, !tbaa !2097, !dbg !3746
	%15 = getelementptr i8, i8*  %9, i64 8, !dbg !3746
	%16 = bitcast i8*  %15 to i64*, !dbg !3746
	store i64 0, i64*  %16, align 8, !tbaa !2098, !dbg !3746
	%17 = load i8*, i8**  %4, align 8, !tbaa !2097, !dbg !3746
	%18 = getelementptr i8, i8*  %17, i64 18446744073709551592, !dbg !3746
	%19 = bitcast i8*  %18 to i64*, !dbg !3746
	%20 = load i64, i64*  %19, align 8, !tbaa !2098, !dbg !3746
	%21 = getelementptr i8, i8*  %9, i64  %20, !dbg !3746
	%22 = bitcast i8*  %21 to %struct._ZSt9basic_iosIcSt11char_traitsIcEE*, !dbg !3746
	call void  @_ZNSt9basic_iosIcSt11char_traitsIcEE4initEPSt15basic_streambufIcS1_E (%struct._ZSt9basic_iosIcSt11char_traitsIcEE*  %22, %struct._ZSt15basic_streambufIcSt11char_traitsIcEE* null), !dbg !3746
	ret void, !dbg !3746
}
define linkonce_odr void @_ZNSiC1Ev(%struct._ZSi* %_T47720416_9773.arg) #0 inlinehint personality i8* bitcast (i32 (...)* @__gxx_personality_v0 to i8*) !dbg !3748 {
L.entry:
	%_T47720416_9773.addr = alloca %struct._ZSi*, align 8
	%..inline.addr = alloca %struct._ZSt9basic_iosIcSt11char_traitsIcEE*, align 8
	%..inline.addr.1 = alloca %struct._ZSi*, align 8
	%__caught_object_address.addr = alloca i8*, align 8
	%__catch_clause_number.addr = alloca i32, align 4

	store %struct._ZSi* %_T47720416_9773.arg, %struct._ZSi** %_T47720416_9773.addr, align 8, !tbaa !2097
	%0 = load i64**, i64*** @_ZTTSi, align 8, !tbaa !2097, !dbg !3764
	%1 = bitcast i64**  %0 to i8*, !dbg !3764
	%2 = load %struct._ZSi*, %struct._ZSi** %_T47720416_9773.addr, align 8, !tbaa !2097, !dbg !3764
	%3 = bitcast %struct._ZSi*  %2 to i8**, !dbg !3764
	store i8*  %1, i8**  %3, align 8, !tbaa !2097, !dbg !3764
	%4 = bitcast %struct._ZSi*  %2 to i8*, !dbg !3764
	%5 = getelementptr i8, i8*  %4, i64 16, !dbg !3764
	%6 = bitcast %struct._ZSt9basic_iosIcSt11char_traitsIcEE** %..inline.addr to i8**, !dbg !3764
	store i8*  %5, i8**  %6, align 8, !tbaa !2097, !dbg !3764
	%7 = load %struct._ZSt9basic_iosIcSt11char_traitsIcEE*, %struct._ZSt9basic_iosIcSt11char_traitsIcEE** %..inline.addr, align 8, !tbaa !2097, !dbg !3764
	%8 = bitcast %struct._ZSt9basic_iosIcSt11char_traitsIcEE*  %7 to %struct._ZSt8ios_base*, !dbg !3764
	call void  @_ZNSt8ios_baseC2Ev (%struct._ZSt8ios_base*  %8) nounwind, !dbg !3764
	%9 = bitcast [4 x i32 (...)* (...)*]* @_ZTVSt9basic_iosIcSt11char_traitsIcEE to i8*, !dbg !3765
	%10 = getelementptr i8, i8*  %9, i64 16, !dbg !3765
	%11 = load %struct._ZSt9basic_iosIcSt11char_traitsIcEE*, %struct._ZSt9basic_iosIcSt11char_traitsIcEE** %..inline.addr, align 8, !tbaa !2097, !dbg !3765
	%12 = bitcast %struct._ZSt9basic_iosIcSt11char_traitsIcEE*  %11 to i8**, !dbg !3765
	store i8*  %10, i8**  %12, align 8, !tbaa !2097, !dbg !3765
	%13 = bitcast %struct._ZSt9basic_iosIcSt11char_traitsIcEE*  %11 to i8*, !dbg !3765
	%14 = getelementptr i8, i8*  %13, i64 216, !dbg !3765
	%15 = bitcast i8*  %14 to i8**, !dbg !3765
	store i8* null, i8**  %15, align 8, !tbaa !2097, !dbg !3765
	%16 = getelementptr i8, i8*  %13, i64 224, !dbg !3765
	store i8 0, i8*  %16, align 1, !tbaa !2098, !dbg !3765
	%17 = getelementptr i8, i8*  %13, i64 225, !dbg !3765
	store i8 0, i8*  %17, align 1, !tbaa !2098, !dbg !3765
	%18 = getelementptr i8, i8*  %13, i64 232, !dbg !3765
	%19 = bitcast i8*  %18 to i8**, !dbg !3765
	store i8* null, i8**  %19, align 8, !tbaa !2097, !dbg !3765
	%20 = getelementptr i8, i8*  %13, i64 240, !dbg !3765
	%21 = bitcast i8*  %20 to i8**, !dbg !3765
	store i8* null, i8**  %21, align 8, !tbaa !2097, !dbg !3765
	%22 = getelementptr i8, i8*  %13, i64 248, !dbg !3765
	%23 = bitcast i8*  %22 to i8**, !dbg !3765
	store i8* null, i8**  %23, align 8, !tbaa !2097, !dbg !3765
	%24 = getelementptr i8, i8*  %13, i64 256, !dbg !3765
	%25 = bitcast i8*  %24 to i8**, !dbg !3765
	store i8* null, i8**  %25, align 8, !tbaa !2097, !dbg !3765
	%26 = load %struct._ZSi*, %struct._ZSi** %_T47720416_9773.addr, align 8, !tbaa !2097, !dbg !3764
	%27 = bitcast %struct._ZSi*  %26 to i8*, !dbg !3764
	%28 = bitcast %struct._ZSi** %..inline.addr.1 to i8**, !dbg !3764
	store i8*  %27, i8**  %28, align 8, !tbaa !2097, !dbg !3764
	%29 = load i64**, i64*** @_ZTTSi, align 8, !tbaa !2097, !dbg !3764
	%30 = bitcast i64**  %29 to i8*, !dbg !3764
	%31 = load %struct._ZSi*, %struct._ZSi** %..inline.addr.1, align 8, !tbaa !2097, !dbg !3764
	%32 = bitcast %struct._ZSi*  %31 to i8**, !dbg !3764
	store i8*  %30, i8**  %32, align 8, !tbaa !2097, !dbg !3764
	%33 = bitcast i64*** @_ZTTSi to i8*, !dbg !3764
	%34 = getelementptr i8, i8*  %33, i64 8, !dbg !3764
	%35 = bitcast i8*  %34 to i64***, !dbg !3764
	%36 = load i64**, i64***  %35, align 8, !tbaa !2097, !dbg !3764
	%37 = bitcast i64**  %36 to i8*, !dbg !3764
	%38 = bitcast %struct._ZSi*  %31 to i8*, !dbg !3764
	%39 = getelementptr i8, i8*  %30, i64 18446744073709551592, !dbg !3764
	%40 = bitcast i8*  %39 to i64*, !dbg !3764
	%41 = load i64, i64*  %40, align 8, !tbaa !2098, !dbg !3764
	%42 = getelementptr i8, i8*  %38, i64  %41, !dbg !3764
	%43 = bitcast i8*  %42 to i8**, !dbg !3764
	store i8*  %37, i8**  %43, align 8, !tbaa !2097, !dbg !3764
	%44 = getelementptr i8, i8*  %38, i64 8, !dbg !3764
	%45 = bitcast i8*  %44 to i64*, !dbg !3764
	store i64 0, i64*  %45, align 8, !tbaa !2098, !dbg !3764
	%46 = load i8*, i8**  %32, align 8, !tbaa !2097, !dbg !3764
	%47 = getelementptr i8, i8*  %46, i64 18446744073709551592, !dbg !3764
	%48 = bitcast i8*  %47 to i64*, !dbg !3764
	%49 = load i64, i64*  %48, align 8, !tbaa !2098, !dbg !3764
	%50 = getelementptr i8, i8*  %38, i64  %49, !dbg !3764
	%51 = bitcast i8*  %50 to %struct._ZSt9basic_iosIcSt11char_traitsIcEE*, !dbg !3764
	invoke void  @_ZNSt9basic_iosIcSt11char_traitsIcEE4initEPSt15basic_streambufIcS1_E (%struct._ZSt9basic_iosIcSt11char_traitsIcEE*  %51, %struct._ZSt15basic_streambufIcSt11char_traitsIcEE* null)
		to label %L.B1267
		unwind label %L_T47721600_9773, !dbg !3764
L.B1267:
	br label %L.R0051, !dbg !3764
L_T47721600_9773:
	%52 = landingpad %astruct.dt64
	cleanup
	%53 = extractvalue %astruct.dt64  %52, 0, !dbg !3764
	store i8*  %53, i8** %__caught_object_address.addr, align 1, !tbaa !2097, !dbg !3764
	%54 = extractvalue %astruct.dt64  %52, 1, !dbg !3764
	store i32  %54, i32* %__catch_clause_number.addr, align 1, !tbaa !2098, !dbg !3764
	%55 = load %struct._ZSi*, %struct._ZSi** %_T47720416_9773.addr, align 8, !tbaa !2097, !dbg !3764
	%56 = bitcast %struct._ZSi*  %55 to i8*, !dbg !3764
	%57 = getelementptr i8, i8*  %56, i64 16, !dbg !3764
	%58 = bitcast i8*  %57 to %struct._ZSt9basic_iosIcSt11char_traitsIcEE*, !dbg !3764
	call void  @_ZNSt9basic_iosIcSt11char_traitsIcEED1Ev (%struct._ZSt9basic_iosIcSt11char_traitsIcEE*  %58) nounwind, !dbg !3764
	%59 = load i32, i32* %__catch_clause_number.addr, align 4, !tbaa !2098, !dbg !3764
	%60 = load i8*, i8** %__caught_object_address.addr, align 8, !tbaa !2097, !dbg !3764
	%61 = insertvalue %astruct.dt64 undef, i8*  %60, 0, !dbg !3764
	%62 = insertvalue %astruct.dt64  %61, i32  %59, 1, !dbg !3764
	resume %astruct.dt64  %62 , !dbg !3764
L.R0051:
	ret void, !dbg !3764
}

%struct._ZSd = type <{ %struct.__SO__Si, %struct.__SO__So, %struct._ZSt9basic_iosIcSt11char_traitsIcEE}> 

define linkonce_odr void @_ZNSdD2Ev(%struct._ZSd* %_T47720416_9774.arg, i64** %_T47720712_9774.arg) #0 inlinehint !dbg !3770 {
L.entry:
	%_T47720416_9774.addr = alloca %struct._ZSd*, align 8
	%_T47720712_9774.addr = alloca i64**, align 8
	%..inline.addr = alloca %struct._ZSo*, align 8
	%..inline.addr.1 = alloca i64**, align 8
	%..inline.addr.2 = alloca %struct._ZSi*, align 8
	%..inline.addr.3 = alloca i64**, align 8

	call void @llvm.dbg.declare (metadata %struct._ZSd** %_T47720416_9774.addr, metadata !3782, metadata !2084), !dbg !3771
	store %struct._ZSd* %_T47720416_9774.arg, %struct._ZSd** %_T47720416_9774.addr, align 8, !tbaa !2097
	call void @llvm.dbg.declare (metadata %struct._ZSd** %_T47720416_9774.addr, metadata !3783, metadata !2084), !dbg !3771
	store i64** %_T47720712_9774.arg, i64*** %_T47720712_9774.addr, align 8, !tbaa !2097
	%0 = load i64**, i64*** %_T47720712_9774.addr, align 8, !tbaa !2097, !dbg !3784
	%1 = bitcast i64**  %0 to i8**, !dbg !3784
	%2 = load i8*, i8**  %1, align 8, !tbaa !2097, !dbg !3784
	%3 = load %struct._ZSd*, %struct._ZSd** %_T47720416_9774.addr, align 8, !tbaa !2097, !dbg !3784
	%4 = bitcast %struct._ZSd*  %3 to i8**, !dbg !3784
	store i8*  %2, i8**  %4, align 8, !tbaa !2097, !dbg !3784
	%5 = bitcast i64**  %0 to i8*, !dbg !3784
	%6 = getelementptr i8, i8*  %5, i64 40, !dbg !3784
	%7 = bitcast i8*  %6 to i8**, !dbg !3784
	%8 = load i8*, i8**  %7, align 8, !tbaa !2097, !dbg !3784
	%9 = bitcast %struct._ZSd*  %3 to i8*, !dbg !3784
	%10 = getelementptr i8, i8*  %2, i64 18446744073709551592, !dbg !3784
	%11 = bitcast i8*  %10 to i64*, !dbg !3784
	%12 = load i64, i64*  %11, align 8, !tbaa !2098, !dbg !3784
	%13 = getelementptr i8, i8*  %9, i64  %12, !dbg !3784
	%14 = bitcast i8*  %13 to i8**, !dbg !3784
	store i8*  %8, i8**  %14, align 8, !tbaa !2097, !dbg !3784
	%15 = getelementptr i8, i8*  %5, i64 48, !dbg !3784
	%16 = bitcast i8*  %15 to i8**, !dbg !3784
	%17 = load i8*, i8**  %16, align 8, !tbaa !2097, !dbg !3784
	%18 = getelementptr i8, i8*  %9, i64 16, !dbg !3784
	%19 = bitcast i8*  %18 to i8**, !dbg !3784
	store i8*  %17, i8**  %19, align 8, !tbaa !2097, !dbg !3784
	%20 = bitcast %struct._ZSo** %..inline.addr to i8**, !dbg !3784
	store i8*  %18, i8**  %20, align 8, !tbaa !2097, !dbg !3784
	%21 = getelementptr i8, i8*  %5, i64 24, !dbg !3784
	%22 = bitcast i64*** %..inline.addr.1 to i8**, !dbg !3784
	store i8*  %21, i8**  %22, align 8, !tbaa !2097, !dbg !3784
	%23 = load i64**, i64*** %..inline.addr.1, align 8, !tbaa !2097, !dbg !3784
	%24 = bitcast i64**  %23 to i8**, !dbg !3784
	%25 = load i8*, i8**  %24, align 8, !tbaa !2097, !dbg !3784
	%26 = load %struct._ZSo*, %struct._ZSo** %..inline.addr, align 8, !tbaa !2097, !dbg !3784
	%27 = bitcast %struct._ZSo*  %26 to i8**, !dbg !3784
	store i8*  %25, i8**  %27, align 8, !tbaa !2097, !dbg !3784
	%28 = bitcast i64**  %23 to i8*, !dbg !3785
	%29 = getelementptr i8, i8*  %28, i64 8, !dbg !3785
	%30 = bitcast i8*  %29 to i8**, !dbg !3785
	%31 = load i8*, i8**  %30, align 8, !tbaa !2097, !dbg !3785
	%32 = bitcast %struct._ZSo*  %26 to i8*, !dbg !3785
	%33 = getelementptr i8, i8*  %25, i64 18446744073709551592, !dbg !3785
	%34 = bitcast i8*  %33 to i64*, !dbg !3785
	%35 = load i64, i64*  %34, align 8, !tbaa !2098, !dbg !3785
	%36 = getelementptr i8, i8*  %32, i64  %35, !dbg !3785
	%37 = bitcast i8*  %36 to i8**, !dbg !3785
	store i8*  %31, i8**  %37, align 8, !tbaa !2097, !dbg !3785
	%38 = bitcast %struct._ZSi** %..inline.addr.2 to i8**, !dbg !3784
	store i8*  %9, i8**  %38, align 8, !tbaa !2097, !dbg !3784
	%39 = getelementptr i8, i8*  %5, i64 8, !dbg !3784
	%40 = bitcast i64*** %..inline.addr.3 to i8**, !dbg !3784
	store i8*  %39, i8**  %40, align 8, !tbaa !2097, !dbg !3784
	%41 = load i64**, i64*** %..inline.addr.3, align 8, !tbaa !2097, !dbg !3784
	%42 = bitcast i64**  %41 to i8**, !dbg !3784
	%43 = load i8*, i8**  %42, align 8, !tbaa !2097, !dbg !3784
	%44 = load %struct._ZSi*, %struct._ZSi** %..inline.addr.2, align 8, !tbaa !2097, !dbg !3784
	%45 = bitcast %struct._ZSi*  %44 to i8**, !dbg !3784
	store i8*  %43, i8**  %45, align 8, !tbaa !2097, !dbg !3784
	%46 = bitcast i64**  %41 to i8*, !dbg !3786
	%47 = getelementptr i8, i8*  %46, i64 8, !dbg !3786
	%48 = bitcast i8*  %47 to i8**, !dbg !3786
	%49 = load i8*, i8**  %48, align 8, !tbaa !2097, !dbg !3786
	%50 = bitcast %struct._ZSi*  %44 to i8*, !dbg !3786
	%51 = getelementptr i8, i8*  %43, i64 18446744073709551592, !dbg !3786
	%52 = bitcast i8*  %51 to i64*, !dbg !3786
	%53 = load i64, i64*  %52, align 8, !tbaa !2098, !dbg !3786
	%54 = getelementptr i8, i8*  %50, i64  %53, !dbg !3786
	%55 = bitcast i8*  %54 to i8**, !dbg !3786
	store i8*  %49, i8**  %55, align 8, !tbaa !2097, !dbg !3786
	%56 = getelementptr i8, i8*  %50, i64 8, !dbg !3786
	%57 = bitcast i8*  %56 to i64*, !dbg !3786
	store i64 0, i64*  %57, align 8, !tbaa !2098, !dbg !3786
	ret void, !dbg !3784
}
define linkonce_odr void @_ZNSdD0Ev(%struct._ZSd* %_T47720416_9775.arg) #0 inlinehint !dbg !3790 {
L.entry:
	%_T47720416_9775.addr = alloca %struct._ZSd*, align 8
	%..inline.addr = alloca %struct._ZSd*, align 8
	%..inline.addr.1 = alloca %struct._ZSd*, align 8
	%..inline.addr.2 = alloca %struct._ZSo*, align 8
	%..inline.addr.3 = alloca %struct._ZSi*, align 8
	%..inline.addr.4 = alloca %struct._ZSt9basic_iosIcSt11char_traitsIcEE*, align 8

	store %struct._ZSd* %_T47720416_9775.arg, %struct._ZSd** %_T47720416_9775.addr, align 8, !tbaa !2097
	%0 = load %struct._ZSd*, %struct._ZSd** %_T47720416_9775.addr, align 8, !tbaa !2097, !dbg !3814
	%1 = bitcast %struct._ZSd*  %0 to i8*, !dbg !3814
	%2 = bitcast %struct._ZSd** %..inline.addr to i8**, !dbg !3814
	store i8*  %1, i8**  %2, align 8, !tbaa !2097, !dbg !3814
	%3 = load %struct._ZSd*, %struct._ZSd** %..inline.addr, align 8, !tbaa !2097, !dbg !3814
	%4 = bitcast %struct._ZSd*  %3 to i8*, !dbg !3814
	%5 = bitcast %struct._ZSd** %..inline.addr.1 to i8**, !dbg !3814
	store i8*  %4, i8**  %5, align 8, !tbaa !2097, !dbg !3814
	%6 = load i64**, i64*** @_ZTTSd, align 8, !tbaa !2097, !dbg !3814
	%7 = bitcast i64**  %6 to i8*, !dbg !3814
	%8 = bitcast %struct._ZSd*  %0 to i8**, !dbg !3814
	store i8*  %7, i8**  %8, align 8, !tbaa !2097, !dbg !3814
	%9 = bitcast i64*** @_ZTTSd to i8*, !dbg !3814
	%10 = getelementptr i8, i8*  %9, i64 40, !dbg !3814
	%11 = bitcast i8*  %10 to i64***, !dbg !3814
	%12 = load i64**, i64***  %11, align 8, !tbaa !2097, !dbg !3814
	%13 = bitcast i64**  %12 to i8*, !dbg !3814
	%14 = load %struct._ZSd*, %struct._ZSd** %..inline.addr.1, align 8, !tbaa !2097, !dbg !3814
	%15 = bitcast %struct._ZSd*  %14 to i8*, !dbg !3814
	%16 = bitcast %struct._ZSd*  %14 to i8**, !dbg !3814
	%17 = load i8*, i8**  %16, align 8, !tbaa !2097, !dbg !3814
	%18 = getelementptr i8, i8*  %17, i64 18446744073709551592, !dbg !3814
	%19 = bitcast i8*  %18 to i64*, !dbg !3814
	%20 = load i64, i64*  %19, align 8, !tbaa !2098, !dbg !3814
	%21 = getelementptr i8, i8*  %15, i64  %20, !dbg !3814
	%22 = bitcast i8*  %21 to i8**, !dbg !3814
	store i8*  %13, i8**  %22, align 8, !tbaa !2097, !dbg !3814
	%23 = getelementptr i8, i8*  %9, i64 48, !dbg !3814
	%24 = bitcast i8*  %23 to i64***, !dbg !3814
	%25 = load i64**, i64***  %24, align 8, !tbaa !2097, !dbg !3814
	%26 = bitcast i64**  %25 to i8*, !dbg !3814
	%27 = getelementptr i8, i8*  %15, i64 16, !dbg !3814
	%28 = bitcast i8*  %27 to i8**, !dbg !3814
	store i8*  %26, i8**  %28, align 8, !tbaa !2097, !dbg !3814
	%29 = bitcast %struct._ZSo** %..inline.addr.2 to i8**, !dbg !3814
	store i8*  %27, i8**  %29, align 8, !tbaa !2097, !dbg !3814
	%30 = getelementptr i8, i8*  %9, i64 24, !dbg !3814
	%31 = bitcast i8*  %30 to i64***, !dbg !3814
	%32 = load i64**, i64***  %31, align 8, !tbaa !2097, !dbg !3814
	%33 = bitcast i64**  %32 to i8*, !dbg !3814
	store i8*  %33, i8**  %28, align 8, !tbaa !2097, !dbg !3814
	%34 = getelementptr i8, i8*  %9, i64 32, !dbg !3814
	%35 = bitcast i8*  %34 to i64***, !dbg !3814
	%36 = load i64**, i64***  %35, align 8, !tbaa !2097, !dbg !3814
	%37 = bitcast i64**  %36 to i8*, !dbg !3814
	%38 = load %struct._ZSo*, %struct._ZSo** %..inline.addr.2, align 8, !tbaa !2097, !dbg !3814
	%39 = bitcast %struct._ZSo*  %38 to i8*, !dbg !3814
	%40 = bitcast %struct._ZSo*  %38 to i8**, !dbg !3814
	%41 = load i8*, i8**  %40, align 8, !tbaa !2097, !dbg !3814
	%42 = getelementptr i8, i8*  %41, i64 18446744073709551592, !dbg !3814
	%43 = bitcast i8*  %42 to i64*, !dbg !3814
	%44 = load i64, i64*  %43, align 8, !tbaa !2098, !dbg !3814
	%45 = getelementptr i8, i8*  %39, i64  %44, !dbg !3814
	%46 = bitcast i8*  %45 to i8**, !dbg !3814
	store i8*  %37, i8**  %46, align 8, !tbaa !2097, !dbg !3814
	%47 = bitcast %struct._ZSi** %..inline.addr.3 to i8**, !dbg !3814
	store i8*  %15, i8**  %47, align 8, !tbaa !2097, !dbg !3814
	%48 = getelementptr i8, i8*  %9, i64 8, !dbg !3814
	%49 = bitcast i8*  %48 to i64***, !dbg !3814
	%50 = load i64**, i64***  %49, align 8, !tbaa !2097, !dbg !3814
	%51 = bitcast i64**  %50 to i8*, !dbg !3814
	store i8*  %51, i8**  %16, align 8, !tbaa !2097, !dbg !3814
	%52 = getelementptr i8, i8*  %9, i64 16, !dbg !3814
	%53 = bitcast i8*  %52 to i64***, !dbg !3814
	%54 = load i64**, i64***  %53, align 8, !tbaa !2097, !dbg !3814
	%55 = bitcast i64**  %54 to i8*, !dbg !3814
	%56 = load %struct._ZSi*, %struct._ZSi** %..inline.addr.3, align 8, !tbaa !2097, !dbg !3814
	%57 = bitcast %struct._ZSi*  %56 to i8*, !dbg !3814
	%58 = bitcast %struct._ZSi*  %56 to i8**, !dbg !3814
	%59 = load i8*, i8**  %58, align 8, !tbaa !2097, !dbg !3814
	%60 = getelementptr i8, i8*  %59, i64 18446744073709551592, !dbg !3814
	%61 = bitcast i8*  %60 to i64*, !dbg !3814
	%62 = load i64, i64*  %61, align 8, !tbaa !2098, !dbg !3814
	%63 = getelementptr i8, i8*  %57, i64  %62, !dbg !3814
	%64 = bitcast i8*  %63 to i8**, !dbg !3814
	store i8*  %55, i8**  %64, align 8, !tbaa !2097, !dbg !3814
	%65 = getelementptr i8, i8*  %57, i64 8, !dbg !3814
	%66 = bitcast i8*  %65 to i64*, !dbg !3814
	store i64 0, i64*  %66, align 8, !tbaa !2098, !dbg !3814
	%67 = getelementptr i8, i8*  %4, i64 24, !dbg !3814
	%68 = bitcast %struct._ZSt9basic_iosIcSt11char_traitsIcEE** %..inline.addr.4 to i8**, !dbg !3814
	store i8*  %67, i8**  %68, align 8, !tbaa !2097, !dbg !3814
	%69 = load %struct._ZSt9basic_iosIcSt11char_traitsIcEE*, %struct._ZSt9basic_iosIcSt11char_traitsIcEE** %..inline.addr.4, align 8, !tbaa !2097, !dbg !3814
	call void  @_ZNSt9basic_iosIcSt11char_traitsIcEED1Ev (%struct._ZSt9basic_iosIcSt11char_traitsIcEE*  %69) nounwind, !dbg !3814
	%70 = load %struct._ZSd*, %struct._ZSd** %_T47720416_9775.addr, align 8, !tbaa !2097, !dbg !3814
	%71 = bitcast %struct._ZSd*  %70 to i8*, !dbg !3814
	call void  @_ZdlPvm (i8*  %71, i64 288) nounwind, !dbg !3814
	ret void, !dbg !3814
}
define linkonce_odr void @_ZNSdD1Ev(%struct._ZSd* %_T47720416_9778.arg) #0 inlinehint !dbg !3818 {
L.entry:
	%_T47720416_9778.addr = alloca %struct._ZSd*, align 8
	%..inline.addr = alloca %struct._ZSd*, align 8
	%..inline.addr.1 = alloca %struct._ZSo*, align 8
	%..inline.addr.2 = alloca %struct._ZSi*, align 8
	%..inline.addr.3 = alloca %struct._ZSt9basic_iosIcSt11char_traitsIcEE*, align 8

	store %struct._ZSd* %_T47720416_9778.arg, %struct._ZSd** %_T47720416_9778.addr, align 8, !tbaa !2097
	%0 = load %struct._ZSd*, %struct._ZSd** %_T47720416_9778.addr, align 8, !tbaa !2097, !dbg !3838
	%1 = bitcast %struct._ZSd*  %0 to i8*, !dbg !3838
	%2 = bitcast %struct._ZSd** %..inline.addr to i8**, !dbg !3838
	store i8*  %1, i8**  %2, align 8, !tbaa !2097, !dbg !3838
	%3 = load i64**, i64*** @_ZTTSd, align 8, !tbaa !2097, !dbg !3838
	%4 = bitcast i64**  %3 to i8*, !dbg !3838
	%5 = load %struct._ZSd*, %struct._ZSd** %..inline.addr, align 8, !tbaa !2097, !dbg !3838
	%6 = bitcast %struct._ZSd*  %5 to i8**, !dbg !3838
	store i8*  %4, i8**  %6, align 8, !tbaa !2097, !dbg !3838
	%7 = bitcast i64*** @_ZTTSd to i8*, !dbg !3838
	%8 = getelementptr i8, i8*  %7, i64 40, !dbg !3838
	%9 = bitcast i8*  %8 to i64***, !dbg !3838
	%10 = load i64**, i64***  %9, align 8, !tbaa !2097, !dbg !3838
	%11 = bitcast i64**  %10 to i8*, !dbg !3838
	%12 = bitcast %struct._ZSd*  %5 to i8*, !dbg !3838
	%13 = getelementptr i8, i8*  %4, i64 18446744073709551592, !dbg !3838
	%14 = bitcast i8*  %13 to i64*, !dbg !3838
	%15 = load i64, i64*  %14, align 8, !tbaa !2098, !dbg !3838
	%16 = getelementptr i8, i8*  %12, i64  %15, !dbg !3838
	%17 = bitcast i8*  %16 to i8**, !dbg !3838
	store i8*  %11, i8**  %17, align 8, !tbaa !2097, !dbg !3838
	%18 = getelementptr i8, i8*  %7, i64 48, !dbg !3838
	%19 = bitcast i8*  %18 to i64***, !dbg !3838
	%20 = load i64**, i64***  %19, align 8, !tbaa !2097, !dbg !3838
	%21 = bitcast i64**  %20 to i8*, !dbg !3838
	%22 = getelementptr i8, i8*  %12, i64 16, !dbg !3838
	%23 = bitcast i8*  %22 to i8**, !dbg !3838
	store i8*  %21, i8**  %23, align 8, !tbaa !2097, !dbg !3838
	%24 = bitcast %struct._ZSo** %..inline.addr.1 to i8**, !dbg !3838
	store i8*  %22, i8**  %24, align 8, !tbaa !2097, !dbg !3838
	%25 = getelementptr i8, i8*  %7, i64 24, !dbg !3838
	%26 = bitcast i8*  %25 to i64***, !dbg !3838
	%27 = load i64**, i64***  %26, align 8, !tbaa !2097, !dbg !3838
	%28 = bitcast i64**  %27 to i8*, !dbg !3838
	store i8*  %28, i8**  %23, align 8, !tbaa !2097, !dbg !3838
	%29 = getelementptr i8, i8*  %7, i64 32, !dbg !3838
	%30 = bitcast i8*  %29 to i64***, !dbg !3838
	%31 = load i64**, i64***  %30, align 8, !tbaa !2097, !dbg !3838
	%32 = bitcast i64**  %31 to i8*, !dbg !3838
	%33 = load %struct._ZSo*, %struct._ZSo** %..inline.addr.1, align 8, !tbaa !2097, !dbg !3838
	%34 = bitcast %struct._ZSo*  %33 to i8*, !dbg !3838
	%35 = bitcast %struct._ZSo*  %33 to i8**, !dbg !3838
	%36 = load i8*, i8**  %35, align 8, !tbaa !2097, !dbg !3838
	%37 = getelementptr i8, i8*  %36, i64 18446744073709551592, !dbg !3838
	%38 = bitcast i8*  %37 to i64*, !dbg !3838
	%39 = load i64, i64*  %38, align 8, !tbaa !2098, !dbg !3838
	%40 = getelementptr i8, i8*  %34, i64  %39, !dbg !3838
	%41 = bitcast i8*  %40 to i8**, !dbg !3838
	store i8*  %32, i8**  %41, align 8, !tbaa !2097, !dbg !3838
	%42 = bitcast %struct._ZSi** %..inline.addr.2 to i8**, !dbg !3838
	store i8*  %12, i8**  %42, align 8, !tbaa !2097, !dbg !3838
	%43 = getelementptr i8, i8*  %7, i64 8, !dbg !3838
	%44 = bitcast i8*  %43 to i64***, !dbg !3838
	%45 = load i64**, i64***  %44, align 8, !tbaa !2097, !dbg !3838
	%46 = bitcast i64**  %45 to i8*, !dbg !3838
	store i8*  %46, i8**  %6, align 8, !tbaa !2097, !dbg !3838
	%47 = getelementptr i8, i8*  %7, i64 16, !dbg !3838
	%48 = bitcast i8*  %47 to i64***, !dbg !3838
	%49 = load i64**, i64***  %48, align 8, !tbaa !2097, !dbg !3838
	%50 = bitcast i64**  %49 to i8*, !dbg !3838
	%51 = load %struct._ZSi*, %struct._ZSi** %..inline.addr.2, align 8, !tbaa !2097, !dbg !3838
	%52 = bitcast %struct._ZSi*  %51 to i8*, !dbg !3838
	%53 = bitcast %struct._ZSi*  %51 to i8**, !dbg !3838
	%54 = load i8*, i8**  %53, align 8, !tbaa !2097, !dbg !3838
	%55 = getelementptr i8, i8*  %54, i64 18446744073709551592, !dbg !3838
	%56 = bitcast i8*  %55 to i64*, !dbg !3838
	%57 = load i64, i64*  %56, align 8, !tbaa !2098, !dbg !3838
	%58 = getelementptr i8, i8*  %52, i64  %57, !dbg !3838
	%59 = bitcast i8*  %58 to i8**, !dbg !3838
	store i8*  %50, i8**  %59, align 8, !tbaa !2097, !dbg !3838
	%60 = getelementptr i8, i8*  %52, i64 8, !dbg !3838
	%61 = bitcast i8*  %60 to i64*, !dbg !3838
	store i64 0, i64*  %61, align 8, !tbaa !2098, !dbg !3838
	%62 = getelementptr i8, i8*  %1, i64 24, !dbg !3838
	%63 = bitcast %struct._ZSt9basic_iosIcSt11char_traitsIcEE** %..inline.addr.3 to i8**, !dbg !3838
	store i8*  %62, i8**  %63, align 8, !tbaa !2097, !dbg !3838
	%64 = load %struct._ZSt9basic_iosIcSt11char_traitsIcEE*, %struct._ZSt9basic_iosIcSt11char_traitsIcEE** %..inline.addr.3, align 8, !tbaa !2097, !dbg !3838
	call void  @_ZNSt9basic_iosIcSt11char_traitsIcEED1Ev (%struct._ZSt9basic_iosIcSt11char_traitsIcEE*  %64) nounwind, !dbg !3838
	ret void, !dbg !3838
}
define linkonce_odr void @_ZNSdC2Ev(%struct._ZSd* %_T47720416_9781.arg, i64** %_T47720712_9781.arg) #0 inlinehint personality i8* bitcast (i32 (...)* @__gxx_personality_v0 to i8*) !dbg !3840 {
L.entry:
	%_T47720416_9781.addr = alloca %struct._ZSd*, align 8
	%_T47720712_9781.addr = alloca i64**, align 8
	%..inline.addr = alloca %struct._ZSi*, align 8
	%..inline.addr.1 = alloca i64**, align 8
	%..inline.addr.2 = alloca %struct._ZSo*, align 8
	%..inline.addr.3 = alloca i64**, align 8
	%__caught_object_address.addr = alloca i8*, align 8
	%__catch_clause_number.addr = alloca i32, align 4
	%..inline.addr.4 = alloca %struct._ZSi*, align 8
	%..inline.addr.5 = alloca %struct._ZSi*, align 8
	%..inline.addr.6 = alloca %struct._ZSt9basic_iosIcSt11char_traitsIcEE*, align 8

	call void @llvm.dbg.declare (metadata %struct._ZSd** %_T47720416_9781.addr, metadata !3864, metadata !2084), !dbg !3841
	store %struct._ZSd* %_T47720416_9781.arg, %struct._ZSd** %_T47720416_9781.addr, align 8, !tbaa !2097
	call void @llvm.dbg.declare (metadata %struct._ZSd** %_T47720416_9781.addr, metadata !3865, metadata !2084), !dbg !3841
	store i64** %_T47720712_9781.arg, i64*** %_T47720712_9781.addr, align 8, !tbaa !2097
	%0 = load %struct._ZSd*, %struct._ZSd** %_T47720416_9781.addr, align 8, !tbaa !2097, !dbg !3866
	%1 = bitcast %struct._ZSd*  %0 to i8*, !dbg !3866
	%2 = bitcast %struct._ZSi** %..inline.addr to i8**, !dbg !3866
	store i8*  %1, i8**  %2, align 8, !tbaa !2097, !dbg !3866
	%3 = load i64**, i64*** %_T47720712_9781.addr, align 8, !tbaa !2097, !dbg !3866
	%4 = bitcast i64**  %3 to i8*, !dbg !3866
	%5 = getelementptr i8, i8*  %4, i64 8, !dbg !3866
	%6 = bitcast i64*** %..inline.addr.1 to i8**, !dbg !3866
	store i8*  %5, i8**  %6, align 8, !tbaa !2097, !dbg !3866
	%7 = load i64**, i64*** %..inline.addr.1, align 8, !tbaa !2097, !dbg !3866
	%8 = bitcast i64**  %7 to i8**, !dbg !3866
	%9 = load i8*, i8**  %8, align 8, !tbaa !2097, !dbg !3866
	%10 = load %struct._ZSi*, %struct._ZSi** %..inline.addr, align 8, !tbaa !2097, !dbg !3866
	%11 = bitcast %struct._ZSi*  %10 to i8**, !dbg !3866
	store i8*  %9, i8**  %11, align 8, !tbaa !2097, !dbg !3866
	%12 = bitcast i64**  %7 to i8*, !dbg !3867
	%13 = getelementptr i8, i8*  %12, i64 8, !dbg !3867
	%14 = bitcast i8*  %13 to i8**, !dbg !3867
	%15 = load i8*, i8**  %14, align 8, !tbaa !2097, !dbg !3867
	%16 = bitcast %struct._ZSi*  %10 to i8*, !dbg !3867
	%17 = getelementptr i8, i8*  %9, i64 18446744073709551592, !dbg !3867
	%18 = bitcast i8*  %17 to i64*, !dbg !3867
	%19 = load i64, i64*  %18, align 8, !tbaa !2098, !dbg !3867
	%20 = getelementptr i8, i8*  %16, i64  %19, !dbg !3867
	%21 = bitcast i8*  %20 to i8**, !dbg !3867
	store i8*  %15, i8**  %21, align 8, !tbaa !2097, !dbg !3867
	%22 = getelementptr i8, i8*  %16, i64 8, !dbg !3867
	%23 = bitcast i8*  %22 to i64*, !dbg !3867
	store i64 0, i64*  %23, align 8, !tbaa !2098, !dbg !3867
	%24 = load i8*, i8**  %11, align 8, !tbaa !2097, !dbg !3867
	%25 = getelementptr i8, i8*  %24, i64 18446744073709551592, !dbg !3867
	%26 = bitcast i8*  %25 to i64*, !dbg !3867
	%27 = load i64, i64*  %26, align 8, !tbaa !2098, !dbg !3867
	%28 = getelementptr i8, i8*  %16, i64  %27, !dbg !3867
	%29 = bitcast i8*  %28 to %struct._ZSt9basic_iosIcSt11char_traitsIcEE*, !dbg !3867
	call void  @_ZNSt9basic_iosIcSt11char_traitsIcEE4initEPSt15basic_streambufIcS1_E (%struct._ZSt9basic_iosIcSt11char_traitsIcEE*  %29, %struct._ZSt15basic_streambufIcSt11char_traitsIcEE* null), !dbg !3867
	%30 = load %struct._ZSd*, %struct._ZSd** %_T47720416_9781.addr, align 8, !tbaa !2097, !dbg !3866
	%31 = bitcast %struct._ZSd*  %30 to i8*, !dbg !3866
	%32 = getelementptr i8, i8*  %31, i64 16, !dbg !3866
	%33 = bitcast %struct._ZSo** %..inline.addr.2 to i8**, !dbg !3866
	store i8*  %32, i8**  %33, align 8, !tbaa !2097, !dbg !3866
	%34 = load i64**, i64*** %_T47720712_9781.addr, align 8, !tbaa !2097, !dbg !3866
	%35 = bitcast i64**  %34 to i8*, !dbg !3866
	%36 = getelementptr i8, i8*  %35, i64 24, !dbg !3866
	%37 = bitcast i64*** %..inline.addr.3 to i8**, !dbg !3866
	store i8*  %36, i8**  %37, align 8, !tbaa !2097, !dbg !3866
	%38 = load i64**, i64*** %..inline.addr.3, align 8, !tbaa !2097, !dbg !3866
	%39 = bitcast i64**  %38 to i8**, !dbg !3866
	%40 = load i8*, i8**  %39, align 8, !tbaa !2097, !dbg !3866
	%41 = load %struct._ZSo*, %struct._ZSo** %..inline.addr.2, align 8, !tbaa !2097, !dbg !3866
	%42 = bitcast %struct._ZSo*  %41 to i8**, !dbg !3866
	store i8*  %40, i8**  %42, align 8, !tbaa !2097, !dbg !3866
	%43 = bitcast i64**  %38 to i8*, !dbg !3868
	%44 = getelementptr i8, i8*  %43, i64 8, !dbg !3868
	%45 = bitcast i8*  %44 to i8**, !dbg !3868
	%46 = load i8*, i8**  %45, align 8, !tbaa !2097, !dbg !3868
	%47 = bitcast %struct._ZSo*  %41 to i8*, !dbg !3868
	%48 = getelementptr i8, i8*  %40, i64 18446744073709551592, !dbg !3868
	%49 = bitcast i8*  %48 to i64*, !dbg !3868
	%50 = load i64, i64*  %49, align 8, !tbaa !2098, !dbg !3868
	%51 = getelementptr i8, i8*  %47, i64  %50, !dbg !3868
	%52 = bitcast i8*  %51 to i8**, !dbg !3868
	store i8*  %46, i8**  %52, align 8, !tbaa !2097, !dbg !3868
	%53 = load i8*, i8**  %42, align 8, !tbaa !2097, !dbg !3868
	%54 = getelementptr i8, i8*  %53, i64 18446744073709551592, !dbg !3868
	%55 = bitcast i8*  %54 to i64*, !dbg !3868
	%56 = load i64, i64*  %55, align 8, !tbaa !2098, !dbg !3868
	%57 = getelementptr i8, i8*  %47, i64  %56, !dbg !3868
	%58 = bitcast i8*  %57 to %struct._ZSt9basic_iosIcSt11char_traitsIcEE*, !dbg !3868
	invoke void  @_ZNSt9basic_iosIcSt11char_traitsIcEE4initEPSt15basic_streambufIcS1_E (%struct._ZSt9basic_iosIcSt11char_traitsIcEE*  %58, %struct._ZSt15basic_streambufIcSt11char_traitsIcEE* null)
		to label %L.B1284
		unwind label %L_T47721600_9781, !dbg !3868
L.B1284:
	%59 = load i64**, i64*** %_T47720712_9781.addr, align 8, !tbaa !2097, !dbg !3866
	%60 = bitcast i64**  %59 to i8**, !dbg !3866
	%61 = load i8*, i8**  %60, align 8, !tbaa !2097, !dbg !3866
	%62 = load %struct._ZSd*, %struct._ZSd** %_T47720416_9781.addr, align 8, !tbaa !2097, !dbg !3866
	%63 = bitcast %struct._ZSd*  %62 to i8**, !dbg !3866
	store i8*  %61, i8**  %63, align 8, !tbaa !2097, !dbg !3866
	%64 = bitcast i64**  %59 to i8*, !dbg !3866
	%65 = getelementptr i8, i8*  %64, i64 40, !dbg !3866
	%66 = bitcast i8*  %65 to i8**, !dbg !3866
	%67 = load i8*, i8**  %66, align 8, !tbaa !2097, !dbg !3866
	%68 = bitcast %struct._ZSd*  %62 to i8*, !dbg !3866
	%69 = getelementptr i8, i8*  %61, i64 18446744073709551592, !dbg !3866
	%70 = bitcast i8*  %69 to i64*, !dbg !3866
	%71 = load i64, i64*  %70, align 8, !tbaa !2098, !dbg !3866
	%72 = getelementptr i8, i8*  %68, i64  %71, !dbg !3866
	%73 = bitcast i8*  %72 to i8**, !dbg !3866
	store i8*  %67, i8**  %73, align 8, !tbaa !2097, !dbg !3866
	%74 = getelementptr i8, i8*  %64, i64 48, !dbg !3866
	%75 = bitcast i8*  %74 to i8**, !dbg !3866
	%76 = load i8*, i8**  %75, align 8, !tbaa !2097, !dbg !3866
	%77 = getelementptr i8, i8*  %68, i64 16, !dbg !3866
	%78 = bitcast i8*  %77 to i8**, !dbg !3866
	store i8*  %76, i8**  %78, align 8, !tbaa !2097, !dbg !3866
	br label %L.R0055, !dbg !3866
L_T47721600_9781:
	%79 = landingpad %astruct.dt64
	cleanup
	%80 = extractvalue %astruct.dt64  %79, 0, !dbg !3866
	store i8*  %80, i8** %__caught_object_address.addr, align 1, !tbaa !2097, !dbg !3866
	%81 = extractvalue %astruct.dt64  %79, 1, !dbg !3866
	store i32  %81, i32* %__catch_clause_number.addr, align 1, !tbaa !2098, !dbg !3866
	%82 = load %struct._ZSd*, %struct._ZSd** %_T47720416_9781.addr, align 8, !tbaa !2097, !dbg !3866
	%83 = bitcast %struct._ZSd*  %82 to i8*, !dbg !3866
	%84 = bitcast %struct._ZSi** %..inline.addr.4 to i8**, !dbg !3866
	store i8*  %83, i8**  %84, align 8, !tbaa !2097, !dbg !3866
	%85 = load %struct._ZSi*, %struct._ZSi** %..inline.addr.4, align 8, !tbaa !2097, !dbg !3866
	%86 = bitcast %struct._ZSi*  %85 to i8*, !dbg !3866
	%87 = bitcast %struct._ZSi** %..inline.addr.5 to i8**, !dbg !3866
	store i8*  %86, i8**  %87, align 8, !tbaa !2097, !dbg !3866
	%88 = load i64**, i64*** @_ZTTSi, align 8, !tbaa !2097, !dbg !3866
	%89 = bitcast i64**  %88 to i8*, !dbg !3866
	%90 = bitcast %struct._ZSd*  %82 to i8**, !dbg !3866
	store i8*  %89, i8**  %90, align 8, !tbaa !2097, !dbg !3866
	%91 = bitcast i64*** @_ZTTSi to i8*, !dbg !3869
	%92 = getelementptr i8, i8*  %91, i64 8, !dbg !3869
	%93 = bitcast i8*  %92 to i64***, !dbg !3869
	%94 = load i64**, i64***  %93, align 8, !tbaa !2097, !dbg !3869
	%95 = bitcast i64**  %94 to i8*, !dbg !3869
	%96 = load %struct._ZSi*, %struct._ZSi** %..inline.addr.5, align 8, !tbaa !2097, !dbg !3869
	%97 = bitcast %struct._ZSi*  %96 to i8*, !dbg !3869
	%98 = bitcast %struct._ZSi*  %96 to i8**, !dbg !3869
	%99 = load i8*, i8**  %98, align 8, !tbaa !2097, !dbg !3869
	%100 = getelementptr i8, i8*  %99, i64 18446744073709551592, !dbg !3869
	%101 = bitcast i8*  %100 to i64*, !dbg !3869
	%102 = load i64, i64*  %101, align 8, !tbaa !2098, !dbg !3869
	%103 = getelementptr i8, i8*  %97, i64  %102, !dbg !3869
	%104 = bitcast i8*  %103 to i8**, !dbg !3869
	store i8*  %95, i8**  %104, align 8, !tbaa !2097, !dbg !3869
	%105 = getelementptr i8, i8*  %97, i64 8, !dbg !3869
	%106 = bitcast i8*  %105 to i64*, !dbg !3869
	store i64 0, i64*  %106, align 8, !tbaa !2098, !dbg !3869
	%107 = getelementptr i8, i8*  %86, i64 16, !dbg !3869
	%108 = bitcast %struct._ZSt9basic_iosIcSt11char_traitsIcEE** %..inline.addr.6 to i8**, !dbg !3869
	store i8*  %107, i8**  %108, align 8, !tbaa !2097, !dbg !3869
	%109 = load %struct._ZSt9basic_iosIcSt11char_traitsIcEE*, %struct._ZSt9basic_iosIcSt11char_traitsIcEE** %..inline.addr.6, align 8, !tbaa !2097, !dbg !3869
	call void  @_ZNSt9basic_iosIcSt11char_traitsIcEED1Ev (%struct._ZSt9basic_iosIcSt11char_traitsIcEE*  %109) nounwind, !dbg !3869
	%110 = load i32, i32* %__catch_clause_number.addr, align 4, !tbaa !2098, !dbg !3866
	%111 = load i8*, i8** %__caught_object_address.addr, align 8, !tbaa !2097, !dbg !3866
	%112 = insertvalue %astruct.dt64 undef, i8*  %111, 0, !dbg !3866
	%113 = insertvalue %astruct.dt64  %112, i32  %110, 1, !dbg !3866
	resume %astruct.dt64  %113 , !dbg !3866
L.R0055:
	ret void, !dbg !3866
}
define linkonce_odr void @_ZNSdC1Ev(%struct._ZSd* %_T47720416_9782.arg) #0 inlinehint personality i8* bitcast (i32 (...)* @__gxx_personality_v0 to i8*) !dbg !3871 {
L.entry:
	%_T47720416_9782.addr = alloca %struct._ZSd*, align 8
	%..inline.addr = alloca %struct._ZSt9basic_iosIcSt11char_traitsIcEE*, align 8
	%__caught_object_address.addr = alloca i8*, align 8
	%__catch_clause_number.addr = alloca i32, align 4

	store %struct._ZSd* %_T47720416_9782.arg, %struct._ZSd** %_T47720416_9782.addr, align 8, !tbaa !2097
	%0 = load i64**, i64*** @_ZTTSd, align 8, !tbaa !2097, !dbg !3883
	%1 = bitcast i64**  %0 to i8*, !dbg !3883
	%2 = load %struct._ZSd*, %struct._ZSd** %_T47720416_9782.addr, align 8, !tbaa !2097, !dbg !3883
	%3 = bitcast %struct._ZSd*  %2 to i8**, !dbg !3883
	store i8*  %1, i8**  %3, align 8, !tbaa !2097, !dbg !3883
	%4 = bitcast %struct._ZSd*  %2 to i8*, !dbg !3883
	%5 = getelementptr i8, i8*  %4, i64 24, !dbg !3883
	%6 = bitcast %struct._ZSt9basic_iosIcSt11char_traitsIcEE** %..inline.addr to i8**, !dbg !3883
	store i8*  %5, i8**  %6, align 8, !tbaa !2097, !dbg !3883
	%7 = load %struct._ZSt9basic_iosIcSt11char_traitsIcEE*, %struct._ZSt9basic_iosIcSt11char_traitsIcEE** %..inline.addr, align 8, !tbaa !2097, !dbg !3883
	%8 = bitcast %struct._ZSt9basic_iosIcSt11char_traitsIcEE*  %7 to %struct._ZSt8ios_base*, !dbg !3883
	call void  @_ZNSt8ios_baseC2Ev (%struct._ZSt8ios_base*  %8) nounwind, !dbg !3883
	%9 = bitcast [4 x i32 (...)* (...)*]* @_ZTVSt9basic_iosIcSt11char_traitsIcEE to i8*, !dbg !3884
	%10 = getelementptr i8, i8*  %9, i64 16, !dbg !3884
	%11 = load %struct._ZSt9basic_iosIcSt11char_traitsIcEE*, %struct._ZSt9basic_iosIcSt11char_traitsIcEE** %..inline.addr, align 8, !tbaa !2097, !dbg !3884
	%12 = bitcast %struct._ZSt9basic_iosIcSt11char_traitsIcEE*  %11 to i8**, !dbg !3884
	store i8*  %10, i8**  %12, align 8, !tbaa !2097, !dbg !3884
	%13 = bitcast %struct._ZSt9basic_iosIcSt11char_traitsIcEE*  %11 to i8*, !dbg !3884
	%14 = getelementptr i8, i8*  %13, i64 216, !dbg !3884
	%15 = bitcast i8*  %14 to i8**, !dbg !3884
	store i8* null, i8**  %15, align 8, !tbaa !2097, !dbg !3884
	%16 = getelementptr i8, i8*  %13, i64 224, !dbg !3884
	store i8 0, i8*  %16, align 1, !tbaa !2098, !dbg !3884
	%17 = getelementptr i8, i8*  %13, i64 225, !dbg !3884
	store i8 0, i8*  %17, align 1, !tbaa !2098, !dbg !3884
	%18 = getelementptr i8, i8*  %13, i64 232, !dbg !3884
	%19 = bitcast i8*  %18 to i8**, !dbg !3884
	store i8* null, i8**  %19, align 8, !tbaa !2097, !dbg !3884
	%20 = getelementptr i8, i8*  %13, i64 240, !dbg !3884
	%21 = bitcast i8*  %20 to i8**, !dbg !3884
	store i8* null, i8**  %21, align 8, !tbaa !2097, !dbg !3884
	%22 = getelementptr i8, i8*  %13, i64 248, !dbg !3884
	%23 = bitcast i8*  %22 to i8**, !dbg !3884
	store i8* null, i8**  %23, align 8, !tbaa !2097, !dbg !3884
	%24 = getelementptr i8, i8*  %13, i64 256, !dbg !3884
	%25 = bitcast i8*  %24 to i8**, !dbg !3884
	store i8* null, i8**  %25, align 8, !tbaa !2097, !dbg !3884
	%26 = load %struct._ZSd*, %struct._ZSd** %_T47720416_9782.addr, align 8, !tbaa !2097, !dbg !3883
	%27 = bitcast i64*** @_ZTTSd to i64**, !dbg !3883
	invoke void  @_ZNSdC2Ev (%struct._ZSd*  %26, i64**  %27)
		to label %L.B1287
		unwind label %L_T47721600_9782, !dbg !3883
L.B1287:
	br label %L.R0056, !dbg !3883
L_T47721600_9782:
	%28 = landingpad %astruct.dt64
	cleanup
	%29 = extractvalue %astruct.dt64  %28, 0, !dbg !3883
	store i8*  %29, i8** %__caught_object_address.addr, align 1, !tbaa !2097, !dbg !3883
	%30 = extractvalue %astruct.dt64  %28, 1, !dbg !3883
	store i32  %30, i32* %__catch_clause_number.addr, align 1, !tbaa !2098, !dbg !3883
	%31 = load %struct._ZSd*, %struct._ZSd** %_T47720416_9782.addr, align 8, !tbaa !2097, !dbg !3883
	%32 = bitcast %struct._ZSd*  %31 to i8*, !dbg !3883
	%33 = getelementptr i8, i8*  %32, i64 24, !dbg !3883
	%34 = bitcast i8*  %33 to %struct._ZSt9basic_iosIcSt11char_traitsIcEE*, !dbg !3883
	call void  @_ZNSt9basic_iosIcSt11char_traitsIcEED1Ev (%struct._ZSt9basic_iosIcSt11char_traitsIcEE*  %34) nounwind, !dbg !3883
	%35 = load i32, i32* %__catch_clause_number.addr, align 4, !tbaa !2098, !dbg !3883
	%36 = load i8*, i8** %__caught_object_address.addr, align 8, !tbaa !2097, !dbg !3883
	%37 = insertvalue %astruct.dt64 undef, i8*  %36, 0, !dbg !3883
	%38 = insertvalue %astruct.dt64  %37, i32  %35, 1, !dbg !3883
	resume %astruct.dt64  %38 , !dbg !3883
L.R0056:
	ret void, !dbg !3883
}
define linkonce_odr void @_ZNSt13basic_filebufIcSt11char_traitsIcEED1Ev(%struct._ZSt13basic_filebufIcSt11char_traitsIcEE* %_T47720416_9785.arg) #0 inlinehint personality i8* bitcast (i32 (...)* @__gxx_personality_v0 to i8*) !dbg !3891 {
L.entry:
	%_T47720416_9785.addr = alloca %struct._ZSt13basic_filebufIcSt11char_traitsIcEE*, align 8
	%.Q0029.addr = alloca %struct._ZSt13basic_filebufIcSt11char_traitsIcEE*, align 8
	%..inline.addr = alloca %struct._ZSt15basic_streambufIcSt11char_traitsIcEE*, align 8
	%..inline.addr.1 = alloca %struct._ZSt15basic_streambufIcSt11char_traitsIcEE*, align 8
	%__caught_object_address.addr = alloca i8*, align 8
	%__catch_clause_number.addr = alloca i32, align 4

	call void @llvm.dbg.declare (metadata %struct._ZSt13basic_filebufIcSt11char_traitsIcEE** %_T47720416_9785.addr, metadata !3905, metadata !2084), !dbg !3892
	store %struct._ZSt13basic_filebufIcSt11char_traitsIcEE* %_T47720416_9785.arg, %struct._ZSt13basic_filebufIcSt11char_traitsIcEE** %_T47720416_9785.addr, align 8
	call void @llvm.dbg.declare (metadata %struct._ZSt13basic_filebufIcSt11char_traitsIcEE** %_T47720416_9785.addr, metadata !3906, metadata !2084), !dbg !3892
	%0 = bitcast [16 x i32 (...)* (...)*]* @_ZTVSt13basic_filebufIcSt11char_traitsIcEE to i8*, !dbg !3907
	%1 = getelementptr i8, i8*  %0, i64 16, !dbg !3907
	%2 = load %struct._ZSt13basic_filebufIcSt11char_traitsIcEE*, %struct._ZSt13basic_filebufIcSt11char_traitsIcEE** %_T47720416_9785.addr, align 8, !dbg !3907
	%3 = bitcast %struct._ZSt13basic_filebufIcSt11char_traitsIcEE*  %2 to i8**, !dbg !3907
	store i8*  %1, i8**  %3, align 8, !dbg !3907
	%4 = load %struct._ZSt13basic_filebufIcSt11char_traitsIcEE*, %struct._ZSt13basic_filebufIcSt11char_traitsIcEE** %_T47720416_9785.addr, align 8, !dbg !3910
	%5 = invoke %struct._ZSt13basic_filebufIcSt11char_traitsIcEE*  @_ZNSt13basic_filebufIcSt11char_traitsIcEE5closeEv (%struct._ZSt13basic_filebufIcSt11char_traitsIcEE*  %4)
		to label %L.B1290
		unwind label %L_T47721304_9785, !dbg !3910
L.B1290:
	%6 = bitcast %struct._ZSt13basic_filebufIcSt11char_traitsIcEE*  %5 to i8*, !dbg !3910
	%7 = bitcast %struct._ZSt13basic_filebufIcSt11char_traitsIcEE** %.Q0029.addr to i8**, !dbg !3910
	store i8*  %6, i8**  %7, align 8, !dbg !3910
	br label %L_T47721544_9785
L_T47721544_9785:
	%8 = load %struct._ZSt13basic_filebufIcSt11char_traitsIcEE*, %struct._ZSt13basic_filebufIcSt11char_traitsIcEE** %_T47720416_9785.addr, align 8, !dbg !3911
	%9 = bitcast %struct._ZSt13basic_filebufIcSt11char_traitsIcEE*  %8 to i8*, !dbg !3911
	%10 = getelementptr i8, i8*  %9, i64 104, !dbg !3911
	%11 = bitcast i8*  %10 to %struct._ZSt12__basic_fileIcE*, !dbg !3911
	call void  @_ZNSt12__basic_fileIcED1Ev (%struct._ZSt12__basic_fileIcE*  %11) nounwind, !dbg !3911
	%12 = load %struct._ZSt13basic_filebufIcSt11char_traitsIcEE*, %struct._ZSt13basic_filebufIcSt11char_traitsIcEE** %_T47720416_9785.addr, align 8, !dbg !3911
	%13 = bitcast %struct._ZSt13basic_filebufIcSt11char_traitsIcEE*  %12 to i8*, !dbg !3911
	%14 = bitcast %struct._ZSt15basic_streambufIcSt11char_traitsIcEE** %..inline.addr to i8**, !dbg !3911
	store i8*  %13, i8**  %14, align 8, !dbg !3911
	%15 = load %struct._ZSt15basic_streambufIcSt11char_traitsIcEE*, %struct._ZSt15basic_streambufIcSt11char_traitsIcEE** %..inline.addr, align 8, !dbg !3911
	%16 = bitcast %struct._ZSt15basic_streambufIcSt11char_traitsIcEE*  %15 to i8*, !dbg !3911
	%17 = bitcast %struct._ZSt15basic_streambufIcSt11char_traitsIcEE** %..inline.addr.1 to i8**, !dbg !3911
	store i8*  %16, i8**  %17, align 8, !dbg !3911
	%18 = bitcast [16 x i32 (...)* (...)*]* @_ZTVSt15basic_streambufIcSt11char_traitsIcEE to i8*, !dbg !3911
	%19 = getelementptr i8, i8*  %18, i64 16, !dbg !3911
	%20 = load %struct._ZSt15basic_streambufIcSt11char_traitsIcEE*, %struct._ZSt15basic_streambufIcSt11char_traitsIcEE** %..inline.addr.1, align 8, !dbg !3911
	%21 = bitcast %struct._ZSt15basic_streambufIcSt11char_traitsIcEE*  %20 to i8**, !dbg !3911
	store i8*  %19, i8**  %21, align 8, !dbg !3911
	%22 = bitcast %struct._ZSt15basic_streambufIcSt11char_traitsIcEE*  %20 to i8*, !dbg !3912
	%23 = getelementptr i8, i8*  %22, i64 56, !dbg !3912
	%24 = bitcast i8*  %23 to %struct._ZSt6locale*, !dbg !3912
	call void  @_ZNSt6localeD1Ev (%struct._ZSt6locale*  %24) nounwind, !dbg !3912
	br label %L.R0057, !dbg !3911
L_T47721304_9785:
	%25 = landingpad %astruct.dt64
	catch i8*  null 
	%26 = extractvalue %astruct.dt64  %25, 0, !dbg !3911
	store i8*  %26, i8** %__caught_object_address.addr, align 1, !dbg !3911
	%27 = extractvalue %astruct.dt64  %25, 1, !dbg !3911
	store i32  %27, i32* %__catch_clause_number.addr, align 1, !dbg !3911
	%28 = load i8*, i8** %__caught_object_address.addr, align 8, !dbg !3913
	%29 = call i8*  @__cxa_begin_catch (i8*  %28) nounwind, !dbg !3913
	call void  @__cxa_end_catch () nounwind, !dbg !3913
	br label %L_T47721544_9785, !dbg !3913
L.R0057:
	ret void, !dbg !3911
}
define linkonce_odr void @_ZNSt13basic_filebufIcSt11char_traitsIcEED0Ev(%struct._ZSt13basic_filebufIcSt11char_traitsIcEE* %_T47720416_9786.arg) #0 inlinehint !dbg !3915 {
L.entry:
	%_T47720416_9786.addr = alloca %struct._ZSt13basic_filebufIcSt11char_traitsIcEE*, align 8

	store %struct._ZSt13basic_filebufIcSt11char_traitsIcEE* %_T47720416_9786.arg, %struct._ZSt13basic_filebufIcSt11char_traitsIcEE** %_T47720416_9786.addr, align 8, !tbaa !2097
	%0 = load %struct._ZSt13basic_filebufIcSt11char_traitsIcEE*, %struct._ZSt13basic_filebufIcSt11char_traitsIcEE** %_T47720416_9786.addr, align 8, !tbaa !2097, !dbg !3919
	call void  @_ZNSt13basic_filebufIcSt11char_traitsIcEED1Ev (%struct._ZSt13basic_filebufIcSt11char_traitsIcEE*  %0) nounwind, !dbg !3919
	%1 = load %struct._ZSt13basic_filebufIcSt11char_traitsIcEE*, %struct._ZSt13basic_filebufIcSt11char_traitsIcEE** %_T47720416_9786.addr, align 8, !tbaa !2097, !dbg !3919
	%2 = bitcast %struct._ZSt13basic_filebufIcSt11char_traitsIcEE*  %1 to i8*, !dbg !3919
	call void  @_ZdlPvm (i8*  %2, i64 240) nounwind, !dbg !3919
	ret void, !dbg !3919
}
define linkonce_odr void @_ZNSt13basic_filebufIcSt11char_traitsIcEED2Ev(%struct._ZSt13basic_filebufIcSt11char_traitsIcEE* %_T47720416_9787.arg) #0 inlinehint !dbg !3921 {
L.entry:
	%_T47720416_9787.addr = alloca %struct._ZSt13basic_filebufIcSt11char_traitsIcEE*, align 8

	store %struct._ZSt13basic_filebufIcSt11char_traitsIcEE* %_T47720416_9787.arg, %struct._ZSt13basic_filebufIcSt11char_traitsIcEE** %_T47720416_9787.addr, align 8, !tbaa !2097
	%0 = load %struct._ZSt13basic_filebufIcSt11char_traitsIcEE*, %struct._ZSt13basic_filebufIcSt11char_traitsIcEE** %_T47720416_9787.addr, align 8, !tbaa !2097, !dbg !3925
	call void  @_ZNSt13basic_filebufIcSt11char_traitsIcEED1Ev (%struct._ZSt13basic_filebufIcSt11char_traitsIcEE*  %0) nounwind, !dbg !3925
	ret void, !dbg !3925
}
define linkonce_odr void @_ZNSt13basic_fstreamIcSt11char_traitsIcEEC2Ev(%struct._ZSt13basic_fstreamIcSt11char_traitsIcEE* %_T47720416_9792.arg, i64** %_T47720712_9792.arg) #0 inlinehint personality i8* bitcast (i32 (...)* @__gxx_personality_v0 to i8*) !dbg !3929 {
L.entry:
	%_T47720416_9792.addr = alloca %struct._ZSt13basic_fstreamIcSt11char_traitsIcEE*, align 8
	%_T47720712_9792.addr = alloca i64**, align 8
	%__caught_object_address.addr = alloca i8*, align 8
	%__catch_clause_number.addr = alloca i32, align 4
	%..inline.addr = alloca %struct._ZSd*, align 8
	%..inline.addr.1 = alloca %struct._ZSd*, align 8
	%..inline.addr.2 = alloca %struct._ZSo*, align 8
	%..inline.addr.3 = alloca %struct._ZSi*, align 8
	%..inline.addr.4 = alloca %struct._ZSt9basic_iosIcSt11char_traitsIcEE*, align 8

	call void @llvm.dbg.declare (metadata %struct._ZSt13basic_fstreamIcSt11char_traitsIcEE** %_T47720416_9792.addr, metadata !3953, metadata !2084), !dbg !3930
	store %struct._ZSt13basic_fstreamIcSt11char_traitsIcEE* %_T47720416_9792.arg, %struct._ZSt13basic_fstreamIcSt11char_traitsIcEE** %_T47720416_9792.addr, align 8, !tbaa !2097
	call void @llvm.dbg.declare (metadata %struct._ZSt13basic_fstreamIcSt11char_traitsIcEE** %_T47720416_9792.addr, metadata !3954, metadata !2084), !dbg !3930
	store i64** %_T47720712_9792.arg, i64*** %_T47720712_9792.addr, align 8, !tbaa !2097
	%0 = load %struct._ZSt13basic_fstreamIcSt11char_traitsIcEE*, %struct._ZSt13basic_fstreamIcSt11char_traitsIcEE** %_T47720416_9792.addr, align 8, !tbaa !2097, !dbg !3955
	%1 = bitcast %struct._ZSt13basic_fstreamIcSt11char_traitsIcEE*  %0 to %struct._ZSd*, !dbg !3955
	%2 = load i64**, i64*** %_T47720712_9792.addr, align 8, !tbaa !2097, !dbg !3955
	%3 = bitcast i64**  %2 to i8*, !dbg !3955
	%4 = getelementptr i8, i8*  %3, i64 8, !dbg !3955
	%5 = bitcast i8*  %4 to i64**, !dbg !3955
	call void  @_ZNSdC2Ev (%struct._ZSd*  %1, i64**  %5), !dbg !3955
	%6 = load i64**, i64*** %_T47720712_9792.addr, align 8, !tbaa !2097, !dbg !3955
	%7 = bitcast i64**  %6 to i8**, !dbg !3955
	%8 = load i8*, i8**  %7, align 8, !tbaa !2097, !dbg !3955
	%9 = load %struct._ZSt13basic_fstreamIcSt11char_traitsIcEE*, %struct._ZSt13basic_fstreamIcSt11char_traitsIcEE** %_T47720416_9792.addr, align 8, !tbaa !2097, !dbg !3955
	%10 = bitcast %struct._ZSt13basic_fstreamIcSt11char_traitsIcEE*  %9 to i8**, !dbg !3955
	store i8*  %8, i8**  %10, align 8, !tbaa !2097, !dbg !3955
	%11 = bitcast i64**  %6 to i8*, !dbg !3955
	%12 = getelementptr i8, i8*  %11, i64 64, !dbg !3955
	%13 = bitcast i8*  %12 to i8**, !dbg !3955
	%14 = load i8*, i8**  %13, align 8, !tbaa !2097, !dbg !3955
	%15 = bitcast %struct._ZSt13basic_fstreamIcSt11char_traitsIcEE*  %9 to i8*, !dbg !3955
	%16 = getelementptr i8, i8*  %8, i64 18446744073709551592, !dbg !3955
	%17 = bitcast i8*  %16 to i64*, !dbg !3955
	%18 = load i64, i64*  %17, align 8, !tbaa !2098, !dbg !3955
	%19 = getelementptr i8, i8*  %15, i64  %18, !dbg !3955
	%20 = bitcast i8*  %19 to i8**, !dbg !3955
	store i8*  %14, i8**  %20, align 8, !tbaa !2097, !dbg !3955
	%21 = getelementptr i8, i8*  %11, i64 72, !dbg !3955
	%22 = bitcast i8*  %21 to i8**, !dbg !3955
	%23 = load i8*, i8**  %22, align 8, !tbaa !2097, !dbg !3955
	%24 = getelementptr i8, i8*  %15, i64 16, !dbg !3955
	%25 = bitcast i8*  %24 to i8**, !dbg !3955
	store i8*  %23, i8**  %25, align 8, !tbaa !2097, !dbg !3955
	%26 = getelementptr i8, i8*  %15, i64 24, !dbg !3955
	%27 = bitcast i8*  %26 to %struct._ZSt13basic_filebufIcSt11char_traitsIcEE*, !dbg !3955
	invoke void  @_ZNSt13basic_filebufIcSt11char_traitsIcEEC1Ev (%struct._ZSt13basic_filebufIcSt11char_traitsIcEE*  %27)
		to label %L.B1293
		unwind label %L_T47721600_9792, !dbg !3955
L.B1293:
	%28 = load %struct._ZSt13basic_fstreamIcSt11char_traitsIcEE*, %struct._ZSt13basic_fstreamIcSt11char_traitsIcEE** %_T47720416_9792.addr, align 8, !tbaa !2097, !dbg !3955
	%29 = bitcast %struct._ZSt13basic_fstreamIcSt11char_traitsIcEE*  %28 to i8*, !dbg !3955
	%30 = bitcast %struct._ZSt13basic_fstreamIcSt11char_traitsIcEE*  %28 to i8**, !dbg !3955
	%31 = load i8*, i8**  %30, align 8, !tbaa !2097, !dbg !3955
	%32 = getelementptr i8, i8*  %31, i64 18446744073709551592, !dbg !3955
	%33 = bitcast i8*  %32 to i64*, !dbg !3955
	%34 = load i64, i64*  %33, align 8, !tbaa !2098, !dbg !3955
	%35 = getelementptr i8, i8*  %29, i64  %34, !dbg !3955
	%36 = bitcast i8*  %35 to %struct._ZSt9basic_iosIcSt11char_traitsIcEE*, !dbg !3955
	%37 = getelementptr i8, i8*  %29, i64 24, !dbg !3955
	%38 = bitcast i8*  %37 to %struct._ZSt15basic_streambufIcSt11char_traitsIcEE*, !dbg !3955
	invoke void  @_ZNSt9basic_iosIcSt11char_traitsIcEE4initEPSt15basic_streambufIcS1_E (%struct._ZSt9basic_iosIcSt11char_traitsIcEE*  %36, %struct._ZSt15basic_streambufIcSt11char_traitsIcEE*  %38)
		to label %L.B1294
		unwind label %L_T47721840_9792, !dbg !3955
L.B1294:
	br label %L.R0060, !dbg !3955
L_T47721600_9792:
	%39 = landingpad %astruct.dt64
	cleanup
	%40 = extractvalue %astruct.dt64  %39, 0, !dbg !3955
	store i8*  %40, i8** %__caught_object_address.addr, align 1, !tbaa !2097, !dbg !3955
	%41 = extractvalue %astruct.dt64  %39, 1, !dbg !3955
	store i32  %41, i32* %__catch_clause_number.addr, align 1, !tbaa !2098, !dbg !3955
	br label %L_T47721720_9792
L_T47721720_9792:
	%42 = load %struct._ZSt13basic_fstreamIcSt11char_traitsIcEE*, %struct._ZSt13basic_fstreamIcSt11char_traitsIcEE** %_T47720416_9792.addr, align 8, !tbaa !2097, !dbg !3955
	%43 = bitcast %struct._ZSt13basic_fstreamIcSt11char_traitsIcEE*  %42 to i8*, !dbg !3955
	%44 = bitcast %struct._ZSd** %..inline.addr to i8**, !dbg !3955
	store i8*  %43, i8**  %44, align 8, !tbaa !2097, !dbg !3955
	%45 = load %struct._ZSd*, %struct._ZSd** %..inline.addr, align 8, !tbaa !2097, !dbg !3955
	%46 = bitcast %struct._ZSd*  %45 to i8*, !dbg !3955
	%47 = bitcast %struct._ZSd** %..inline.addr.1 to i8**, !dbg !3955
	store i8*  %46, i8**  %47, align 8, !tbaa !2097, !dbg !3955
	%48 = load i64**, i64*** @_ZTTSd, align 8, !tbaa !2097, !dbg !3955
	%49 = bitcast i64**  %48 to i8*, !dbg !3955
	%50 = bitcast %struct._ZSt13basic_fstreamIcSt11char_traitsIcEE*  %42 to i8**, !dbg !3955
	store i8*  %49, i8**  %50, align 8, !tbaa !2097, !dbg !3955
	%51 = bitcast i64*** @_ZTTSd to i8*, !dbg !3956
	%52 = getelementptr i8, i8*  %51, i64 40, !dbg !3956
	%53 = bitcast i8*  %52 to i64***, !dbg !3956
	%54 = load i64**, i64***  %53, align 8, !tbaa !2097, !dbg !3956
	%55 = bitcast i64**  %54 to i8*, !dbg !3956
	%56 = load %struct._ZSd*, %struct._ZSd** %..inline.addr.1, align 8, !tbaa !2097, !dbg !3956
	%57 = bitcast %struct._ZSd*  %56 to i8*, !dbg !3956
	%58 = bitcast %struct._ZSd*  %56 to i8**, !dbg !3956
	%59 = load i8*, i8**  %58, align 8, !tbaa !2097, !dbg !3956
	%60 = getelementptr i8, i8*  %59, i64 18446744073709551592, !dbg !3956
	%61 = bitcast i8*  %60 to i64*, !dbg !3956
	%62 = load i64, i64*  %61, align 8, !tbaa !2098, !dbg !3956
	%63 = getelementptr i8, i8*  %57, i64  %62, !dbg !3956
	%64 = bitcast i8*  %63 to i8**, !dbg !3956
	store i8*  %55, i8**  %64, align 8, !tbaa !2097, !dbg !3956
	%65 = getelementptr i8, i8*  %51, i64 48, !dbg !3956
	%66 = bitcast i8*  %65 to i64***, !dbg !3956
	%67 = load i64**, i64***  %66, align 8, !tbaa !2097, !dbg !3956
	%68 = bitcast i64**  %67 to i8*, !dbg !3956
	%69 = getelementptr i8, i8*  %57, i64 16, !dbg !3956
	%70 = bitcast i8*  %69 to i8**, !dbg !3956
	store i8*  %68, i8**  %70, align 8, !tbaa !2097, !dbg !3956
	%71 = bitcast %struct._ZSo** %..inline.addr.2 to i8**, !dbg !3956
	store i8*  %69, i8**  %71, align 8, !tbaa !2097, !dbg !3956
	%72 = getelementptr i8, i8*  %51, i64 24, !dbg !3956
	%73 = bitcast i8*  %72 to i64***, !dbg !3956
	%74 = load i64**, i64***  %73, align 8, !tbaa !2097, !dbg !3956
	%75 = bitcast i64**  %74 to i8*, !dbg !3956
	store i8*  %75, i8**  %70, align 8, !tbaa !2097, !dbg !3956
	%76 = getelementptr i8, i8*  %51, i64 32, !dbg !3956
	%77 = bitcast i8*  %76 to i64***, !dbg !3956
	%78 = load i64**, i64***  %77, align 8, !tbaa !2097, !dbg !3956
	%79 = bitcast i64**  %78 to i8*, !dbg !3956
	%80 = load %struct._ZSo*, %struct._ZSo** %..inline.addr.2, align 8, !tbaa !2097, !dbg !3956
	%81 = bitcast %struct._ZSo*  %80 to i8*, !dbg !3956
	%82 = bitcast %struct._ZSo*  %80 to i8**, !dbg !3956
	%83 = load i8*, i8**  %82, align 8, !tbaa !2097, !dbg !3956
	%84 = getelementptr i8, i8*  %83, i64 18446744073709551592, !dbg !3956
	%85 = bitcast i8*  %84 to i64*, !dbg !3956
	%86 = load i64, i64*  %85, align 8, !tbaa !2098, !dbg !3956
	%87 = getelementptr i8, i8*  %81, i64  %86, !dbg !3956
	%88 = bitcast i8*  %87 to i8**, !dbg !3956
	store i8*  %79, i8**  %88, align 8, !tbaa !2097, !dbg !3956
	%89 = bitcast %struct._ZSi** %..inline.addr.3 to i8**, !dbg !3956
	store i8*  %57, i8**  %89, align 8, !tbaa !2097, !dbg !3956
	%90 = getelementptr i8, i8*  %51, i64 8, !dbg !3956
	%91 = bitcast i8*  %90 to i64***, !dbg !3956
	%92 = load i64**, i64***  %91, align 8, !tbaa !2097, !dbg !3956
	%93 = bitcast i64**  %92 to i8*, !dbg !3956
	store i8*  %93, i8**  %58, align 8, !tbaa !2097, !dbg !3956
	%94 = getelementptr i8, i8*  %51, i64 16, !dbg !3956
	%95 = bitcast i8*  %94 to i64***, !dbg !3956
	%96 = load i64**, i64***  %95, align 8, !tbaa !2097, !dbg !3956
	%97 = bitcast i64**  %96 to i8*, !dbg !3956
	%98 = load %struct._ZSi*, %struct._ZSi** %..inline.addr.3, align 8, !tbaa !2097, !dbg !3956
	%99 = bitcast %struct._ZSi*  %98 to i8*, !dbg !3956
	%100 = bitcast %struct._ZSi*  %98 to i8**, !dbg !3956
	%101 = load i8*, i8**  %100, align 8, !tbaa !2097, !dbg !3956
	%102 = getelementptr i8, i8*  %101, i64 18446744073709551592, !dbg !3956
	%103 = bitcast i8*  %102 to i64*, !dbg !3956
	%104 = load i64, i64*  %103, align 8, !tbaa !2098, !dbg !3956
	%105 = getelementptr i8, i8*  %99, i64  %104, !dbg !3956
	%106 = bitcast i8*  %105 to i8**, !dbg !3956
	store i8*  %97, i8**  %106, align 8, !tbaa !2097, !dbg !3956
	%107 = getelementptr i8, i8*  %99, i64 8, !dbg !3956
	%108 = bitcast i8*  %107 to i64*, !dbg !3956
	store i64 0, i64*  %108, align 8, !tbaa !2098, !dbg !3956
	%109 = getelementptr i8, i8*  %46, i64 24, !dbg !3956
	%110 = bitcast %struct._ZSt9basic_iosIcSt11char_traitsIcEE** %..inline.addr.4 to i8**, !dbg !3956
	store i8*  %109, i8**  %110, align 8, !tbaa !2097, !dbg !3956
	%111 = load %struct._ZSt9basic_iosIcSt11char_traitsIcEE*, %struct._ZSt9basic_iosIcSt11char_traitsIcEE** %..inline.addr.4, align 8, !tbaa !2097, !dbg !3956
	call void  @_ZNSt9basic_iosIcSt11char_traitsIcEED1Ev (%struct._ZSt9basic_iosIcSt11char_traitsIcEE*  %111) nounwind, !dbg !3956
	%112 = load i32, i32* %__catch_clause_number.addr, align 4, !tbaa !2098, !dbg !3955
	%113 = load i8*, i8** %__caught_object_address.addr, align 8, !tbaa !2097, !dbg !3955
	%114 = insertvalue %astruct.dt64 undef, i8*  %113, 0, !dbg !3955
	%115 = insertvalue %astruct.dt64  %114, i32  %112, 1, !dbg !3955
	resume %astruct.dt64  %115 , !dbg !3955
L_T47721840_9792:
	%116 = landingpad %astruct.dt64
	cleanup
	%117 = extractvalue %astruct.dt64  %116, 0, !dbg !3955
	store i8*  %117, i8** %__caught_object_address.addr, align 1, !tbaa !2097, !dbg !3955
	%118 = extractvalue %astruct.dt64  %116, 1, !dbg !3955
	store i32  %118, i32* %__catch_clause_number.addr, align 1, !tbaa !2098, !dbg !3955
	%119 = load %struct._ZSt13basic_fstreamIcSt11char_traitsIcEE*, %struct._ZSt13basic_fstreamIcSt11char_traitsIcEE** %_T47720416_9792.addr, align 8, !tbaa !2097, !dbg !3955
	%120 = bitcast %struct._ZSt13basic_fstreamIcSt11char_traitsIcEE*  %119 to i8*, !dbg !3955
	%121 = getelementptr i8, i8*  %120, i64 24, !dbg !3955
	%122 = bitcast i8*  %121 to %struct._ZSt13basic_filebufIcSt11char_traitsIcEE*, !dbg !3955
	call void  @_ZNSt13basic_filebufIcSt11char_traitsIcEED1Ev (%struct._ZSt13basic_filebufIcSt11char_traitsIcEE*  %122) nounwind, !dbg !3955
	br label %L_T47721720_9792, !dbg !3955
L.R0060:
	ret void, !dbg !3955
}
define linkonce_odr void @_ZNSt13basic_fstreamIcSt11char_traitsIcEEC1Ev(%struct._ZSt13basic_fstreamIcSt11char_traitsIcEE* %_T47720416_9793.arg) #0 inlinehint personality i8* bitcast (i32 (...)* @__gxx_personality_v0 to i8*) !dbg !3960 {
L.entry:
	%_T47720416_9793.addr = alloca %struct._ZSt13basic_fstreamIcSt11char_traitsIcEE*, align 8
	%..inline.addr = alloca %struct._ZSt9basic_iosIcSt11char_traitsIcEE*, align 8
	%__caught_object_address.addr = alloca i8*, align 8
	%__catch_clause_number.addr = alloca i32, align 4

	store %struct._ZSt13basic_fstreamIcSt11char_traitsIcEE* %_T47720416_9793.arg, %struct._ZSt13basic_fstreamIcSt11char_traitsIcEE** %_T47720416_9793.addr, align 8, !tbaa !2097
	%0 = load i64**, i64*** @_ZTTSt13basic_fstreamIcSt11char_traitsIcEE, align 8, !tbaa !2097, !dbg !3972
	%1 = bitcast i64**  %0 to i8*, !dbg !3972
	%2 = load %struct._ZSt13basic_fstreamIcSt11char_traitsIcEE*, %struct._ZSt13basic_fstreamIcSt11char_traitsIcEE** %_T47720416_9793.addr, align 8, !tbaa !2097, !dbg !3972
	%3 = bitcast %struct._ZSt13basic_fstreamIcSt11char_traitsIcEE*  %2 to i8**, !dbg !3972
	store i8*  %1, i8**  %3, align 8, !tbaa !2097, !dbg !3972
	%4 = bitcast %struct._ZSt13basic_fstreamIcSt11char_traitsIcEE*  %2 to i8*, !dbg !3972
	%5 = getelementptr i8, i8*  %4, i64 264, !dbg !3972
	%6 = bitcast %struct._ZSt9basic_iosIcSt11char_traitsIcEE** %..inline.addr to i8**, !dbg !3972
	store i8*  %5, i8**  %6, align 8, !tbaa !2097, !dbg !3972
	%7 = load %struct._ZSt9basic_iosIcSt11char_traitsIcEE*, %struct._ZSt9basic_iosIcSt11char_traitsIcEE** %..inline.addr, align 8, !tbaa !2097, !dbg !3972
	%8 = bitcast %struct._ZSt9basic_iosIcSt11char_traitsIcEE*  %7 to %struct._ZSt8ios_base*, !dbg !3972
	call void  @_ZNSt8ios_baseC2Ev (%struct._ZSt8ios_base*  %8) nounwind, !dbg !3972
	%9 = bitcast [4 x i32 (...)* (...)*]* @_ZTVSt9basic_iosIcSt11char_traitsIcEE to i8*, !dbg !3975
	%10 = getelementptr i8, i8*  %9, i64 16, !dbg !3975
	%11 = load %struct._ZSt9basic_iosIcSt11char_traitsIcEE*, %struct._ZSt9basic_iosIcSt11char_traitsIcEE** %..inline.addr, align 8, !tbaa !2097, !dbg !3975
	%12 = bitcast %struct._ZSt9basic_iosIcSt11char_traitsIcEE*  %11 to i8**, !dbg !3975
	store i8*  %10, i8**  %12, align 8, !tbaa !2097, !dbg !3975
	%13 = bitcast %struct._ZSt9basic_iosIcSt11char_traitsIcEE*  %11 to i8*, !dbg !3975
	%14 = getelementptr i8, i8*  %13, i64 216, !dbg !3975
	%15 = bitcast i8*  %14 to i8**, !dbg !3975
	store i8* null, i8**  %15, align 8, !tbaa !2097, !dbg !3975
	%16 = getelementptr i8, i8*  %13, i64 224, !dbg !3975
	store i8 0, i8*  %16, align 1, !tbaa !2098, !dbg !3975
	%17 = getelementptr i8, i8*  %13, i64 225, !dbg !3975
	store i8 0, i8*  %17, align 1, !tbaa !2098, !dbg !3975
	%18 = getelementptr i8, i8*  %13, i64 232, !dbg !3975
	%19 = bitcast i8*  %18 to i8**, !dbg !3975
	store i8* null, i8**  %19, align 8, !tbaa !2097, !dbg !3975
	%20 = getelementptr i8, i8*  %13, i64 240, !dbg !3975
	%21 = bitcast i8*  %20 to i8**, !dbg !3975
	store i8* null, i8**  %21, align 8, !tbaa !2097, !dbg !3975
	%22 = getelementptr i8, i8*  %13, i64 248, !dbg !3975
	%23 = bitcast i8*  %22 to i8**, !dbg !3975
	store i8* null, i8**  %23, align 8, !tbaa !2097, !dbg !3975
	%24 = getelementptr i8, i8*  %13, i64 256, !dbg !3975
	%25 = bitcast i8*  %24 to i8**, !dbg !3975
	store i8* null, i8**  %25, align 8, !tbaa !2097, !dbg !3975
	%26 = load %struct._ZSt13basic_fstreamIcSt11char_traitsIcEE*, %struct._ZSt13basic_fstreamIcSt11char_traitsIcEE** %_T47720416_9793.addr, align 8, !tbaa !2097, !dbg !3972
	%27 = bitcast i64*** @_ZTTSt13basic_fstreamIcSt11char_traitsIcEE to i64**, !dbg !3972
	invoke void  @_ZNSt13basic_fstreamIcSt11char_traitsIcEEC2Ev (%struct._ZSt13basic_fstreamIcSt11char_traitsIcEE*  %26, i64**  %27)
		to label %L.B1297
		unwind label %L_T47721600_9793, !dbg !3972
L.B1297:
	br label %L.R0061, !dbg !3972
L_T47721600_9793:
	%28 = landingpad %astruct.dt64
	cleanup
	%29 = extractvalue %astruct.dt64  %28, 0, !dbg !3972
	store i8*  %29, i8** %__caught_object_address.addr, align 1, !tbaa !2097, !dbg !3972
	%30 = extractvalue %astruct.dt64  %28, 1, !dbg !3972
	store i32  %30, i32* %__catch_clause_number.addr, align 1, !tbaa !2098, !dbg !3972
	%31 = load %struct._ZSt13basic_fstreamIcSt11char_traitsIcEE*, %struct._ZSt13basic_fstreamIcSt11char_traitsIcEE** %_T47720416_9793.addr, align 8, !tbaa !2097, !dbg !3972
	%32 = bitcast %struct._ZSt13basic_fstreamIcSt11char_traitsIcEE*  %31 to i8*, !dbg !3972
	%33 = getelementptr i8, i8*  %32, i64 264, !dbg !3972
	%34 = bitcast i8*  %33 to %struct._ZSt9basic_iosIcSt11char_traitsIcEE*, !dbg !3972
	call void  @_ZNSt9basic_iosIcSt11char_traitsIcEED1Ev (%struct._ZSt9basic_iosIcSt11char_traitsIcEE*  %34) nounwind, !dbg !3972
	%35 = load i32, i32* %__catch_clause_number.addr, align 4, !tbaa !2098, !dbg !3972
	%36 = load i8*, i8** %__caught_object_address.addr, align 8, !tbaa !2097, !dbg !3972
	%37 = insertvalue %astruct.dt64 undef, i8*  %36, 0, !dbg !3972
	%38 = insertvalue %astruct.dt64  %37, i32  %35, 1, !dbg !3972
	resume %astruct.dt64  %38 , !dbg !3972
L.R0061:
	ret void, !dbg !3972
}
define linkonce_odr void @_ZNSt13basic_fstreamIcSt11char_traitsIcEE4openEPKcSt13_Ios_Openmode(%struct._ZSt13basic_fstreamIcSt11char_traitsIcEE* %_T47720600_9795.arg, i8* %__s.arg, i32 signext %__mode.arg) #0 inlinehint !dbg !3979 {
L.entry:
	%_T47720600_9795.addr = alloca %struct._ZSt13basic_fstreamIcSt11char_traitsIcEE*, align 8
	%__s.addr = alloca i8*, align 8
	%__mode.addr = alloca i32, align 4
	%.Q0030.addr = alloca %struct._ZSt13basic_filebufIcSt11char_traitsIcEE*, align 8
	%..inline.addr = alloca %struct._ZSt9basic_iosIcSt11char_traitsIcEE*, align 8
	%..inline.addr.1 = alloca %struct._ZSt9basic_iosIcSt11char_traitsIcEE*, align 8
	%..inline.addr.2 = alloca i32, align 4

	call void @llvm.dbg.declare (metadata %struct._ZSt13basic_fstreamIcSt11char_traitsIcEE** %_T47720600_9795.addr, metadata !3995, metadata !2084), !dbg !3980
	store %struct._ZSt13basic_fstreamIcSt11char_traitsIcEE* %_T47720600_9795.arg, %struct._ZSt13basic_fstreamIcSt11char_traitsIcEE** %_T47720600_9795.addr, align 8, !tbaa !2097
	call void @llvm.dbg.declare (metadata %struct._ZSt13basic_fstreamIcSt11char_traitsIcEE** %_T47720600_9795.addr, metadata !3996, metadata !2084), !dbg !3980
	call void @llvm.dbg.declare (metadata i8** %__s.addr, metadata !3997, metadata !2084), !dbg !3980
	store i8* %__s.arg, i8** %__s.addr, align 8, !tbaa !2097
	call void @llvm.dbg.declare (metadata i8** %__s.addr, metadata !3998, metadata !2084), !dbg !3980
	call void @llvm.dbg.declare (metadata i32* %__mode.addr, metadata !3999, metadata !2084), !dbg !3980
	store i32 %__mode.arg, i32* %__mode.addr, align 4, !tbaa !2098
	call void @llvm.dbg.declare (metadata i32* %__mode.addr, metadata !4000, metadata !2084), !dbg !3980
	%0 = load %struct._ZSt13basic_fstreamIcSt11char_traitsIcEE*, %struct._ZSt13basic_fstreamIcSt11char_traitsIcEE** %_T47720600_9795.addr, align 8, !tbaa !2097, !dbg !4001
	%1 = bitcast %struct._ZSt13basic_fstreamIcSt11char_traitsIcEE*  %0 to i8*, !dbg !4001
	%2 = getelementptr i8, i8*  %1, i64 24, !dbg !4001
	%3 = bitcast i8*  %2 to %struct._ZSt13basic_filebufIcSt11char_traitsIcEE*, !dbg !4001
	%4 = load i8*, i8** %__s.addr, align 8, !tbaa !2097, !dbg !4001
	%5 = load i32, i32* %__mode.addr, align 4, !tbaa !2098, !dbg !4001
	%6 = call %struct._ZSt13basic_filebufIcSt11char_traitsIcEE*  @_ZNSt13basic_filebufIcSt11char_traitsIcEE4openEPKcSt13_Ios_Openmode (%struct._ZSt13basic_filebufIcSt11char_traitsIcEE*  %3, i8*  %4, i32  %5), !dbg !4001
	%7 = bitcast %struct._ZSt13basic_filebufIcSt11char_traitsIcEE*  %6 to i8*, !dbg !4001
	%8 = bitcast %struct._ZSt13basic_filebufIcSt11char_traitsIcEE** %.Q0030.addr to i8**, !dbg !4001
	store i8*  %7, i8**  %8, align 8, !tbaa !2097, !dbg !4001
	%9 = load %struct._ZSt13basic_filebufIcSt11char_traitsIcEE*, %struct._ZSt13basic_filebufIcSt11char_traitsIcEE** %.Q0030.addr, align 8, !tbaa !2097, !dbg !4001
	%10 = bitcast %struct._ZSt13basic_filebufIcSt11char_traitsIcEE*  %9 to i8*, !dbg !4001
	%11 = icmp ne i8*  %10,  null, !dbg !4001
	br i1  %11, label %L.B0037, label %L.B1300, !dbg !4001
L.B1300:
	%12 = load %struct._ZSt13basic_fstreamIcSt11char_traitsIcEE*, %struct._ZSt13basic_fstreamIcSt11char_traitsIcEE** %_T47720600_9795.addr, align 8, !tbaa !2097, !dbg !4002
	%13 = bitcast %struct._ZSt13basic_fstreamIcSt11char_traitsIcEE*  %12 to i8*, !dbg !4002
	%14 = bitcast %struct._ZSt13basic_fstreamIcSt11char_traitsIcEE*  %12 to i8**, !dbg !4002
	%15 = load i8*, i8**  %14, align 8, !tbaa !2097, !dbg !4002
	%16 = getelementptr i8, i8*  %15, i64 18446744073709551592, !dbg !4002
	%17 = bitcast i8*  %16 to i64*, !dbg !4002
	%18 = load i64, i64*  %17, align 8, !tbaa !2098, !dbg !4002
	%19 = getelementptr i8, i8*  %13, i64  %18, !dbg !4002
	%20 = bitcast %struct._ZSt9basic_iosIcSt11char_traitsIcEE** %..inline.addr to i8**, !dbg !4002
	store i8*  %19, i8**  %20, align 8, !tbaa !2097, !dbg !4002
	%21 = load %struct._ZSt9basic_iosIcSt11char_traitsIcEE*, %struct._ZSt9basic_iosIcSt11char_traitsIcEE** %..inline.addr, align 8, !tbaa !2097, !dbg !4003
	%22 = bitcast %struct._ZSt9basic_iosIcSt11char_traitsIcEE*  %21 to i8*, !dbg !4003
	%23 = bitcast %struct._ZSt9basic_iosIcSt11char_traitsIcEE** %..inline.addr.1 to i8**, !dbg !4003
	store i8*  %22, i8**  %23, align 8, !tbaa !2097, !dbg !4003
	%24 = load %struct._ZSt9basic_iosIcSt11char_traitsIcEE*, %struct._ZSt9basic_iosIcSt11char_traitsIcEE** %..inline.addr.1, align 8, !tbaa !2097, !dbg !4003
	%25 = bitcast %struct._ZSt9basic_iosIcSt11char_traitsIcEE*  %24 to i8*, !dbg !4003
	%26 = getelementptr i8, i8*  %25, i64 32, !dbg !4003
	%27 = bitcast i8*  %26 to i32*, !dbg !4003
	%28 = load i32, i32*  %27, align 4, !tbaa !2098, !dbg !4003
	%29 = or i32  %28, 4, !dbg !4003
	call void  @_ZNSt9basic_iosIcSt11char_traitsIcEE5clearESt12_Ios_Iostate (%struct._ZSt9basic_iosIcSt11char_traitsIcEE*  %21, i32  %29), !dbg !4003
	br label %L.B0038, !dbg !4002
L.B0037:
	%30 = load %struct._ZSt13basic_fstreamIcSt11char_traitsIcEE*, %struct._ZSt13basic_fstreamIcSt11char_traitsIcEE** %_T47720600_9795.addr, align 8, !tbaa !2097, !dbg !4004
	%31 = bitcast %struct._ZSt13basic_fstreamIcSt11char_traitsIcEE*  %30 to i8*, !dbg !4004
	%32 = bitcast %struct._ZSt13basic_fstreamIcSt11char_traitsIcEE*  %30 to i8**, !dbg !4004
	%33 = load i8*, i8**  %32, align 8, !tbaa !2097, !dbg !4004
	%34 = getelementptr i8, i8*  %33, i64 18446744073709551592, !dbg !4004
	%35 = bitcast i8*  %34 to i64*, !dbg !4004
	%36 = load i64, i64*  %35, align 8, !tbaa !2098, !dbg !4004
	%37 = getelementptr i8, i8*  %31, i64  %36, !dbg !4004
	%38 = bitcast i8*  %37 to %struct._ZSt9basic_iosIcSt11char_traitsIcEE*, !dbg !4004
	call void  @_ZNSt9basic_iosIcSt11char_traitsIcEE5clearESt12_Ios_Iostate (%struct._ZSt9basic_iosIcSt11char_traitsIcEE*  %38, i32 0), !dbg !4004
	br label %L.B0038
L.B0038:
	ret void, !dbg !4005
}
define linkonce_odr void @_ZNSt13basic_fstreamIcSt11char_traitsIcEE5closeEv(%struct._ZSt13basic_fstreamIcSt11char_traitsIcEE* %_T47720600_9796.arg) #0 inlinehint !dbg !4007 {
L.entry:
	%_T47720600_9796.addr = alloca %struct._ZSt13basic_fstreamIcSt11char_traitsIcEE*, align 8
	%.Q0031.addr = alloca %struct._ZSt13basic_filebufIcSt11char_traitsIcEE*, align 8
	%..inline.addr = alloca %struct._ZSt9basic_iosIcSt11char_traitsIcEE*, align 8
	%..inline.addr.1 = alloca %struct._ZSt9basic_iosIcSt11char_traitsIcEE*, align 8
	%..inline.addr.2 = alloca i32, align 4

	call void @llvm.dbg.declare (metadata %struct._ZSt13basic_fstreamIcSt11char_traitsIcEE** %_T47720600_9796.addr, metadata !4023, metadata !2084), !dbg !4008
	store %struct._ZSt13basic_fstreamIcSt11char_traitsIcEE* %_T47720600_9796.arg, %struct._ZSt13basic_fstreamIcSt11char_traitsIcEE** %_T47720600_9796.addr, align 8, !tbaa !2097
	call void @llvm.dbg.declare (metadata %struct._ZSt13basic_fstreamIcSt11char_traitsIcEE** %_T47720600_9796.addr, metadata !4024, metadata !2084), !dbg !4008
	%0 = load %struct._ZSt13basic_fstreamIcSt11char_traitsIcEE*, %struct._ZSt13basic_fstreamIcSt11char_traitsIcEE** %_T47720600_9796.addr, align 8, !tbaa !2097, !dbg !4025
	%1 = bitcast %struct._ZSt13basic_fstreamIcSt11char_traitsIcEE*  %0 to i8*, !dbg !4025
	%2 = getelementptr i8, i8*  %1, i64 24, !dbg !4025
	%3 = bitcast i8*  %2 to %struct._ZSt13basic_filebufIcSt11char_traitsIcEE*, !dbg !4025
	%4 = call %struct._ZSt13basic_filebufIcSt11char_traitsIcEE*  @_ZNSt13basic_filebufIcSt11char_traitsIcEE5closeEv (%struct._ZSt13basic_filebufIcSt11char_traitsIcEE*  %3), !dbg !4025
	%5 = bitcast %struct._ZSt13basic_filebufIcSt11char_traitsIcEE*  %4 to i8*, !dbg !4025
	%6 = bitcast %struct._ZSt13basic_filebufIcSt11char_traitsIcEE** %.Q0031.addr to i8**, !dbg !4025
	store i8*  %5, i8**  %6, align 8, !tbaa !2097, !dbg !4025
	%7 = load %struct._ZSt13basic_filebufIcSt11char_traitsIcEE*, %struct._ZSt13basic_filebufIcSt11char_traitsIcEE** %.Q0031.addr, align 8, !tbaa !2097, !dbg !4025
	%8 = bitcast %struct._ZSt13basic_filebufIcSt11char_traitsIcEE*  %7 to i8*, !dbg !4025
	%9 = icmp ne i8*  %8,  null, !dbg !4025
	br i1  %9, label %L.B0039, label %L.B1303, !dbg !4025
L.B1303:
	%10 = load %struct._ZSt13basic_fstreamIcSt11char_traitsIcEE*, %struct._ZSt13basic_fstreamIcSt11char_traitsIcEE** %_T47720600_9796.addr, align 8, !tbaa !2097, !dbg !4026
	%11 = bitcast %struct._ZSt13basic_fstreamIcSt11char_traitsIcEE*  %10 to i8*, !dbg !4026
	%12 = bitcast %struct._ZSt13basic_fstreamIcSt11char_traitsIcEE*  %10 to i8**, !dbg !4026
	%13 = load i8*, i8**  %12, align 8, !tbaa !2097, !dbg !4026
	%14 = getelementptr i8, i8*  %13, i64 18446744073709551592, !dbg !4026
	%15 = bitcast i8*  %14 to i64*, !dbg !4026
	%16 = load i64, i64*  %15, align 8, !tbaa !2098, !dbg !4026
	%17 = getelementptr i8, i8*  %11, i64  %16, !dbg !4026
	%18 = bitcast %struct._ZSt9basic_iosIcSt11char_traitsIcEE** %..inline.addr to i8**, !dbg !4026
	store i8*  %17, i8**  %18, align 8, !tbaa !2097, !dbg !4026
	%19 = load %struct._ZSt9basic_iosIcSt11char_traitsIcEE*, %struct._ZSt9basic_iosIcSt11char_traitsIcEE** %..inline.addr, align 8, !tbaa !2097, !dbg !4027
