; ModuleID = 'fieldsolver/ldz_main.cpp'
target datalayout = "e-p:64:64-i64:64-f80:128-n8:16:32:64-S128"
target triple = "x86_64-pc-linux-gnu"
define internal void @pgCplus_compiled.() noinline {
L.entry:
	ret void
}

%struct.ompi_datatype_t = type opaque
%struct.ompi_predefined_datatype_t = type opaque



define weak_odr %struct.ompi_datatype_t* @_Z8MPI_TypeIdEP15ompi_datatype_tv() #0 inlinehint !dbg !3937 {
L.entry:

	%0 = bitcast %struct.ompi_predefined_datatype_t* @ompi_mpi_double to %struct.ompi_datatype_t*, !dbg !3941
	ret %struct.ompi_datatype_t*  %0, !dbg !3941
}
define signext i8 @_Z39initializeFieldPropagatorAfterRebalancev() #0 !dbg !3948 {
L.entry:

	ret i8 1, !dbg !3952
}
define signext i8 @_Z23finalizeFieldPropagatorv() #0 !dbg !3955 {
L.entry:

	ret i8 1, !dbg !3959
}

%struct._ZSt6vectorIiSaIiEE = type <{ %struct._ZSt12_Vector_baseIiSaIiEE}> 
%struct._ZNSt12_Vector_baseISt5arrayIdLm8EESaIS1_EE12_Vector_implE = type <{ %struct._ZNSt12_Vector_baseISt5arrayIdLm8EESaIS1_EE17_Vector_impl_dataE}> 
%struct.FsGridCouplingInformation = type <{ %struct._ZSt6vectorIiSaIiEE}> 
%struct._ZNSt12_Vector_baseIiSaIiEE12_Vector_implE = type <{ %struct._ZNSt12_Vector_baseIiSaIiEE17_Vector_impl_dataE}> 
%struct._ZSt4lessIjE = type <{ [1 x i8]}> 
%struct._ZSt8ios_base = type <{ i32 (...)* (...)*, i64, i64, i32, i32, i32, [4 x i8], %struct._ZNSt8ios_base14_Callback_listE*, %struct._ZNSt8ios_base6_WordsE, [8 x %struct._ZNSt8ios_base6_WordsE], i32, [4 x i8], %struct._ZNSt8ios_base6_WordsE*, %struct._ZSt6locale}> 
%struct._ZNSt12_Vector_baseISt5arrayIdLm24EESaIS1_EE17_Vector_impl_dataE = type <{ %struct._ZSt5arrayIdLm24EE*, %struct._ZSt5arrayIdLm24EE*, %struct._ZSt5arrayIdLm24EE*}> 
%struct._ZNSt12_Vector_baseISt5arrayIdLm24EESaIS1_EE12_Vector_implE = type <{ %struct._ZNSt12_Vector_baseISt5arrayIdLm24EESaIS1_EE17_Vector_impl_dataE}> 
%union.pthread_mutex_t = type <{ %struct.__pthread_mutex_s}> 
%struct.__SO__So = type <{ i32 (...)* (...)*}> 
%struct._ZNSt12_Vector_baseISt5arrayIdLm15EESaIS1_EE17_Vector_impl_dataE = type <{ %struct._ZSt5arrayIdLm15EE*, %struct._ZSt5arrayIdLm15EE*, %struct._ZSt5arrayIdLm15EE*}> 
%struct._ZNSt8_Rb_treeIjSt4pairIKjPN3SBC20SysBoundaryConditionEESt10_Select1stIS5_ESt4lessIjESaIS5_EE13_Rb_tree_implIS9_Lb1EEE = type <{ %struct._ZSt20_Rb_tree_key_compareISt4lessIjEE, [7 x i8], %struct._ZSt15_Rb_tree_header}> 
%struct._ZNSt7__cxx1110_List_baseIPN3SBC20SysBoundaryConditionESaIS3_EE10_List_implE = type <{ %struct._ZNSt8__detail17_List_node_headerE}> 
%struct._ZSt12_Vector_baseISt5arrayIdLm24EESaIS1_EE = type <{ %struct._ZNSt12_Vector_baseISt5arrayIdLm24EESaIS1_EE12_Vector_implE}> 
%struct.Logger = type <{ i8, [3 x i8], i32, i32, [4 x i8], %struct._ZNSt7__cxx1118basic_stringstreamIcSt11char_traitsIcESaIcEEE, %struct._ZSt13basic_fstreamIcSt11char_traitsIcEE*}> 
%struct._ZNSt12_Vector_baseISt5arrayIdLm12EESaIS1_EE17_Vector_impl_dataE = type <{ %struct._ZSt5arrayIdLm12EE*, %struct._ZSt5arrayIdLm12EE*, %struct._ZSt5arrayIdLm12EE*}> 
%struct._Z6FsGridIN7fsgrids9technicalELi2EE = type <{ double, double, double, %struct._ZSt5arrayIdLm3EE, %struct.ompi_communicator_t*, i32, [4 x i8], %struct._ZSt6vectorIP14ompi_request_tSaIS1_EE, i32, %struct._ZSt5arrayIiLm27EE, %struct._ZSt6vectorIcSaIcEE, %struct._ZSt5arrayIiLm3EE, %struct._ZSt5arrayIiLm3EE, %struct._ZSt5arrayIbLm3EE, i8, %struct._ZSt5arrayIiLm3EE, %struct._ZSt5arrayIiLm3EE, %struct._ZSt5arrayIiLm3EE, %struct._ZSt5arrayIiLm3EE, [4 x i8], %struct.FsGridCouplingInformation*, %struct._ZSt5arrayIP15ompi_datatype_tLm27EE, %struct._ZSt5arrayIP15ompi_datatype_tLm27EE, %struct._ZSt6vectorIN7fsgrids9technicalESaIS1_EE}> 
%struct._ZSt6vectorIP14ompi_request_tSaIS1_EE = type <{ %struct._ZSt12_Vector_baseIP14ompi_request_tSaIS1_EE}> 
%struct._ZNSt12_Vector_baseINSt7__cxx1112basic_stringIcSt11char_traitsIcESaIcEEESaIS5_EE12_Vector_implE = type <{ %struct._ZNSt12_Vector_baseINSt7__cxx1112basic_stringIcSt11char_traitsIcESaIcEEESaIS5_EE17_Vector_impl_dataE}> 
%struct._ZSaIcE = type <{ [1 x i8]}> 
%struct._ZSt12_Vector_baseISt5arrayIdLm18EESaIS1_EE = type <{ %struct._ZNSt12_Vector_baseISt5arrayIdLm18EESaIS1_EE12_Vector_implE}> 
%struct._ZSt5arrayIdLm8EE = type <{ [8 x double]}> 
%struct._ZSt12_Vector_baseISt5arrayIdLm12EESaIS1_EE = type <{ %struct._ZNSt12_Vector_baseISt5arrayIdLm12EESaIS1_EE12_Vector_implE}> 
%astruct.dt64 = type <{ i8*, i32}> 
%struct._ZNSt12_Vector_baseIN7fsgrids9technicalESaIS1_EE12_Vector_implE = type <{ %struct._ZNSt12_Vector_baseIN7fsgrids9technicalESaIS1_EE17_Vector_impl_dataE}> 
%struct._Z6FsGridISt5arrayIdLm8EELi2EE = type <{ double, double, double, %struct._ZSt5arrayIdLm3EE, %struct.ompi_communicator_t*, i32, [4 x i8], %struct._ZSt6vectorIP14ompi_request_tSaIS1_EE, i32, %struct._ZSt5arrayIiLm27EE, %struct._ZSt6vectorIcSaIcEE, %struct._ZSt5arrayIiLm3EE, %struct._ZSt5arrayIiLm3EE, %struct._ZSt5arrayIbLm3EE, i8, %struct._ZSt5arrayIiLm3EE, %struct._ZSt5arrayIiLm3EE, %struct._ZSt5arrayIiLm3EE, %struct._ZSt5arrayIiLm3EE, [4 x i8], %struct.FsGridCouplingInformation*, %struct._ZSt5arrayIP15ompi_datatype_tLm27EE, %struct._ZSt5arrayIP15ompi_datatype_tLm27EE, %struct._ZSt6vectorISt5arrayIdLm8EESaIS1_EE}> 
%struct._Z6FsGridISt5arrayIdLm24EELi2EE = type <{ double, double, double, %struct._ZSt5arrayIdLm3EE, %struct.ompi_communicator_t*, i32, [4 x i8], %struct._ZSt6vectorIP14ompi_request_tSaIS1_EE, i32, %struct._ZSt5arrayIiLm27EE, %struct._ZSt6vectorIcSaIcEE, %struct._ZSt5arrayIiLm3EE, %struct._ZSt5arrayIiLm3EE, %struct._ZSt5arrayIbLm3EE, i8, %struct._ZSt5arrayIiLm3EE, %struct._ZSt5arrayIiLm3EE, %struct._ZSt5arrayIiLm3EE, %struct._ZSt5arrayIiLm3EE, [4 x i8], %struct.FsGridCouplingInformation*, %struct._ZSt5arrayIP15ompi_datatype_tLm27EE, %struct._ZSt5arrayIP15ompi_datatype_tLm27EE, %struct._ZSt6vectorISt5arrayIdLm24EESaIS1_EE}> 
%struct._ZNSt7__cxx114listIPN3SBC20SysBoundaryConditionESaIS3_EEE = type <{ %struct._ZNSt7__cxx1110_List_baseIPN3SBC20SysBoundaryConditionESaIS3_EEE}> 
%struct._ZNSt12_Vector_baseIN7fsgrids9technicalESaIS1_EE17_Vector_impl_dataE = type <{ %struct._ZN7fsgrids9technicalE*, %struct._ZN7fsgrids9technicalE*, %struct._ZN7fsgrids9technicalE*}> 
%struct._ZSt13basic_filebufIcSt11char_traitsIcEE = type <{ %struct._ZSt15basic_streambufIcSt11char_traitsIcEE, %union.pthread_mutex_t, %struct._ZSt12__basic_fileIcE, i32, %struct.__mbstate_t, %struct.__mbstate_t, %struct.__mbstate_t, [4 x i8], i8*, i64, i8, i8, i8, i8, [4 x i8], i8*, i8*, i8, [7 x i8], %struct._ZSt7codecvtIcc11__mbstate_tE*, i8*, i64, i8*, i8*}> 
%struct._ZSt12_Vector_baseINSt7__cxx1112basic_stringIcSt11char_traitsIcESaIcEEESaIS5_EE = type <{ %struct._ZNSt12_Vector_baseINSt7__cxx1112basic_stringIcSt11char_traitsIcESaIcEEESaIS5_EE12_Vector_implE}> 
%struct.ompi_communicator_t = type opaque
%struct.ompi_op_t = type opaque
%struct._ZNSt12_Vector_baseISt5arrayIdLm18EESaIS1_EE17_Vector_impl_dataE = type <{ %struct._ZSt5arrayIdLm18EE*, %struct._ZSt5arrayIdLm18EE*, %struct._ZSt5arrayIdLm18EE*}> 
%struct._ZNSt12_Vector_baseISt5arrayIdLm3EESaIS1_EE12_Vector_implE = type <{ %struct._ZNSt12_Vector_baseISt5arrayIdLm3EESaIS1_EE17_Vector_impl_dataE}> 
%struct.SysBoundary = type <{ %struct._ZNSt7__cxx114listIPN3SBC20SysBoundaryConditionESaIS3_EEE, %struct._ZSt3mapIjPN3SBC20SysBoundaryConditionESt4lessIjESaISt4pairIKjS2_EEE, %struct._ZSt6vectorINSt7__cxx1112basic_stringIcSt11char_traitsIcESaIcEEESaIS5_EE, i8, [3 x i8], [4 x i8]}> 
%struct._IO_wide_data = type opaque
%struct._ZSt6vectorIcSaIcEE = type <{ %struct._ZSt12_Vector_baseIcSaIcEE}> 
%struct._ZSt8_Rb_treeIjSt4pairIKjPN3SBC20SysBoundaryConditionEESt10_Select1stIS5_ESt4lessIjESaIS5_EE = type <{ %struct._ZNSt8_Rb_treeIjSt4pairIKjPN3SBC20SysBoundaryConditionEESt10_Select1stIS5_ESt4lessIjESaIS5_EE13_Rb_tree_implIS9_Lb1EEE}> 
%struct._ZNSt12_Vector_baseISt5arrayIdLm15EESaIS1_EE12_Vector_implE = type <{ %struct._ZNSt12_Vector_baseISt5arrayIdLm15EESaIS1_EE17_Vector_impl_dataE}> 
%struct._ZNSt6locale5facetE = type <{ i32 (...)* (...)*, i32, [4 x i8]}> 
%struct._ZNSt12_Vector_baseINSt7__cxx1112basic_stringIcSt11char_traitsIcESaIcEEESaIS5_EE17_Vector_impl_dataE = type <{ %struct._ZNSt7__cxx1112basic_stringIcSt11char_traitsIcESaIcEEE*, %struct._ZNSt7__cxx1112basic_stringIcSt11char_traitsIcESaIcEEE*, %struct._ZNSt7__cxx1112basic_stringIcSt11char_traitsIcESaIcEEE*}> 
%struct._ZSt6locale = type <{ %struct._ZNSt6locale5_ImplE*}> 
%struct._ZSt6vectorINSt7__cxx1112basic_stringIcSt11char_traitsIcESaIcEEESaIS5_EE = type <{ %struct._ZSt12_Vector_baseINSt7__cxx1112basic_stringIcSt11char_traitsIcESaIcEEESaIS5_EE}> 
%struct._ZNSt12_Vector_baseISt5arrayIdLm18EESaIS1_EE12_Vector_implE = type <{ %struct._ZNSt12_Vector_baseISt5arrayIdLm18EESaIS1_EE17_Vector_impl_dataE}> 
%struct._ZSt5arrayIP15ompi_datatype_tLm27EE = type <{ [27 x %struct.ompi_datatype_t*]}> 
%struct._ZNSt7__cxx1115basic_stringbufIcSt11char_traitsIcESaIcEEE = type <{ %struct._ZSt15basic_streambufIcSt11char_traitsIcEE, i32, [4 x i8], %struct._ZNSt7__cxx1112basic_stringIcSt11char_traitsIcESaIcEEE}> 
%struct._ZSt5arrayIdLm18EE = type <{ [18 x double]}> 
%struct._ZSt15basic_streambufIcSt11char_traitsIcEE = type <{ i32 (...)* (...)*, i8*, i8*, i8*, i8*, i8*, i8*, %struct._ZSt6locale}> 
%struct._ZSt7num_putIcSt19ostreambuf_iteratorIcSt11char_traitsIcEEE = type <{ %struct.__SO__NSt6locale5facetE, [4 x i8]}> 
%struct._ZNSt8__detail15_List_node_baseE = type <{ %struct._ZNSt8__detail15_List_node_baseE*, %struct._ZNSt8__detail15_List_node_baseE*}> 
%struct._ZSt12_Vector_baseISt5arrayIdLm8EESaIS1_EE = type <{ %struct._ZNSt12_Vector_baseISt5arrayIdLm8EESaIS1_EE12_Vector_implE}> 
%struct._ZNSt12_Vector_baseISt5arrayIdLm3EESaIS1_EE17_Vector_impl_dataE = type <{ %struct._ZSt5arrayIdLm3EE*, %struct._ZSt5arrayIdLm3EE*, %struct._ZSt5arrayIdLm3EE*}> 
%struct.__pthread_mutex_s = type <{ i32, i32, i32, i32, i32, i16, i16, %struct.__pthread_internal_list}> 
%struct._ZNSt12_Vector_baseIcSaIcEE17_Vector_impl_dataE = type <{ i8*, i8*, i8*}> 
%struct._ZNSt12_Vector_baseIP14ompi_request_tSaIS1_EE17_Vector_impl_dataE = type <{ %struct.ompi_request_t**, %struct.ompi_request_t**, %struct.ompi_request_t**}> 
%struct._ZSt7codecvtIcc11__mbstate_tE = type <{ %struct.__SO__St23__codecvt_abstract_baseIcc11__mbstate_tE, [4 x i8], %struct.__locale_struct*}> 
%struct._ZNSt12_Vector_baseIiSaIiEE17_Vector_impl_dataE = type <{ i32*, i32*, i32*}> 
%struct._ZNSt7__cxx1110_List_baseIPN3SBC20SysBoundaryConditionESaIS3_EEE = type <{ %struct._ZNSt7__cxx1110_List_baseIPN3SBC20SysBoundaryConditionESaIS3_EE10_List_implE}> 
%struct._ZSt12__basic_fileIcE = type <{ %struct._IO_FILE*, i8, [7 x i8]}> 
%struct.__locale_struct = type <{ [13 x %struct.__locale_data*], i16*, i32*, i32*, [13 x i8*]}> 
%struct.__mbstate_t = type <{ i32, %union._ZN11__mbstate_tUt_E}> 
%struct.ompi_request_t = type opaque
%struct._Z6FsGridISt5arrayIdLm12EELi2EE = type <{ double, double, double, %struct._ZSt5arrayIdLm3EE, %struct.ompi_communicator_t*, i32, [4 x i8], %struct._ZSt6vectorIP14ompi_request_tSaIS1_EE, i32, %struct._ZSt5arrayIiLm27EE, %struct._ZSt6vectorIcSaIcEE, %struct._ZSt5arrayIiLm3EE, %struct._ZSt5arrayIiLm3EE, %struct._ZSt5arrayIbLm3EE, i8, %struct._ZSt5arrayIiLm3EE, %struct._ZSt5arrayIiLm3EE, %struct._ZSt5arrayIiLm3EE, %struct._ZSt5arrayIiLm3EE, [4 x i8], %struct.FsGridCouplingInformation*, %struct._ZSt5arrayIP15ompi_datatype_tLm27EE, %struct._ZSt5arrayIP15ompi_datatype_tLm27EE, %struct._ZSt6vectorISt5arrayIdLm12EESaIS1_EE}> 
%struct._ZSt12_Vector_baseISt5arrayIdLm15EESaIS1_EE = type <{ %struct._ZNSt12_Vector_baseISt5arrayIdLm15EESaIS1_EE12_Vector_implE}> 
%struct._ZSt12_Vector_baseIN7fsgrids9technicalESaIS1_EE = type <{ %struct._ZNSt12_Vector_baseIN7fsgrids9technicalESaIS1_EE12_Vector_implE}> 
%struct._ZSt7num_getIcSt19istreambuf_iteratorIcSt11char_traitsIcEEE = type <{ %struct.__SO__NSt6locale5facetE, [4 x i8]}> 
%struct._ZSt6vectorISt5arrayIdLm15EESaIS1_EE = type <{ %struct._ZSt12_Vector_baseISt5arrayIdLm15EESaIS1_EE}> 
%struct._ZSt5arrayIdLm24EE = type <{ [24 x double]}> 
%struct.__pthread_internal_list = type <{ %struct.__pthread_internal_list*, %struct.__pthread_internal_list*}> 
%struct._ZNSt8__detail17_List_node_headerE = type <{ %struct._ZNSt8__detail15_List_node_baseE, i64}> 
%struct._IO_codecvt = type opaque
%struct._IO_marker = type opaque
%struct._ZNSt7__cxx1112basic_stringIcSt11char_traitsIcESaIcEE12_Alloc_hiderE = type <{ i8*}> 
%struct.__SO__Sd = type <{ %struct.__SO__Si, %struct.__SO__So}> 
%struct._ZSt18_Rb_tree_node_base = type <{ i32, [4 x i8], %struct._ZSt18_Rb_tree_node_base*, %struct._ZSt18_Rb_tree_node_base*, %struct._ZSt18_Rb_tree_node_base*}> 
%struct._ZSt26random_access_iterator_tag = type <{ [1 x i8]}> 
%struct._ZSt12_Vector_baseIcSaIcEE = type <{ %struct._ZNSt12_Vector_baseIcSaIcEE12_Vector_implE}> 
%struct._ZSt9basic_iosIcSt11char_traitsIcEE = type <{ %struct._ZSt8ios_base, %struct._ZSo*, i8, i8, [6 x i8], %struct._ZSt15basic_streambufIcSt11char_traitsIcEE*, %struct._ZSt5ctypeIcE*, %struct._ZSt7num_putIcSt19ostreambuf_iteratorIcSt11char_traitsIcEEE*, %struct._ZSt7num_getIcSt19istreambuf_iteratorIcSt11char_traitsIcEEE*}> 
%struct._ZSt5arrayIdLm15EE = type <{ [15 x double]}> 
%struct._ZSt12_Vector_baseIP14ompi_request_tSaIS1_EE = type <{ %struct._ZNSt12_Vector_baseIP14ompi_request_tSaIS1_EE12_Vector_implE}> 
%struct._ZNSt8ios_base6_WordsE = type <{ i8*, i64}> 
%struct._ZSt12_Vector_baseIiSaIiEE = type <{ %struct._ZNSt12_Vector_baseIiSaIiEE12_Vector_implE}> 
%struct._ZSt5arrayIdLm3EE = type <{ [3 x double]}> 
%struct._ZSt20_Rb_tree_key_compareISt4lessIjEE = type <{ %struct._ZSt4lessIjE}> 
%struct.__SO__Si = type <{ i32 (...)* (...)*, i64}> 
%struct._ZSt6vectorISt5arrayIdLm8EESaIS1_EE = type <{ %struct._ZSt12_Vector_baseISt5arrayIdLm8EESaIS1_EE}> 
%struct._ZSt12_Vector_baseISt5arrayIdLm3EESaIS1_EE = type <{ %struct._ZNSt12_Vector_baseISt5arrayIdLm3EESaIS1_EE12_Vector_implE}> 
%struct._ZSo = type <{ i32 (...)* (...)*, %struct._ZSt9basic_iosIcSt11char_traitsIcEE}> 
%struct._ZNSt8ios_base14_Callback_listE = type <{ %struct._ZNSt8ios_base14_Callback_listE*, void (i32, %struct._ZSt8ios_base*, i32)*, i32, i32}> 
%struct._Z6FsGridISt5arrayIdLm18EELi2EE = type <{ double, double, double, %struct._ZSt5arrayIdLm3EE, %struct.ompi_communicator_t*, i32, [4 x i8], %struct._ZSt6vectorIP14ompi_request_tSaIS1_EE, i32, %struct._ZSt5arrayIiLm27EE, %struct._ZSt6vectorIcSaIcEE, %struct._ZSt5arrayIiLm3EE, %struct._ZSt5arrayIiLm3EE, %struct._ZSt5arrayIbLm3EE, i8, %struct._ZSt5arrayIiLm3EE, %struct._ZSt5arrayIiLm3EE, %struct._ZSt5arrayIiLm3EE, %struct._ZSt5arrayIiLm3EE, [4 x i8], %struct.FsGridCouplingInformation*, %struct._ZSt5arrayIP15ompi_datatype_tLm27EE, %struct._ZSt5arrayIP15ompi_datatype_tLm27EE, %struct._ZSt6vectorISt5arrayIdLm18EESaIS1_EE}> 
%struct._ZNSt12_Vector_baseISt5arrayIdLm8EESaIS1_EE17_Vector_impl_dataE = type <{ %struct._ZSt5arrayIdLm8EE*, %struct._ZSt5arrayIdLm8EE*, %struct._ZSt5arrayIdLm8EE*}> 
%struct._ZSt6vectorISt5arrayIdLm18EESaIS1_EE = type <{ %struct._ZSt12_Vector_baseISt5arrayIdLm18EESaIS1_EE}> 
%struct._ZSt5arrayIiLm3EE = type <{ [3 x i32]}> 
%struct._ZSt15_Rb_tree_header = type <{ %struct._ZSt18_Rb_tree_node_base, i64}> 
%struct._ZNSt6locale5_ImplE = type <{ i32, [4 x i8], %struct._ZNSt6locale5facetE**, i64, %struct._ZNSt6locale5facetE**, i8**}> 
%struct.__locale_data = type opaque
%struct._ZNSt12_Vector_baseIcSaIcEE12_Vector_implE = type <{ %struct._ZNSt12_Vector_baseIcSaIcEE17_Vector_impl_dataE}> 
%struct._ZNSt12_Vector_baseISt5arrayIdLm12EESaIS1_EE12_Vector_implE = type <{ %struct._ZNSt12_Vector_baseISt5arrayIdLm12EESaIS1_EE17_Vector_impl_dataE}> 
%struct.ompi_predefined_op_t = type opaque
%struct.__SO__St23__codecvt_abstract_baseIcc11__mbstate_tE = type <{ %struct.__SO__NSt6locale5facetE}> 
%struct._Z6FsGridISt5arrayIdLm3EELi2EE = type <{ double, double, double, %struct._ZSt5arrayIdLm3EE, %struct.ompi_communicator_t*, i32, [4 x i8], %struct._ZSt6vectorIP14ompi_request_tSaIS1_EE, i32, %struct._ZSt5arrayIiLm27EE, %struct._ZSt6vectorIcSaIcEE, %struct._ZSt5arrayIiLm3EE, %struct._ZSt5arrayIiLm3EE, %struct._ZSt5arrayIbLm3EE, i8, %struct._ZSt5arrayIiLm3EE, %struct._ZSt5arrayIiLm3EE, %struct._ZSt5arrayIiLm3EE, %struct._ZSt5arrayIiLm3EE, [4 x i8], %struct.FsGridCouplingInformation*, %struct._ZSt5arrayIP15ompi_datatype_tLm27EE, %struct._ZSt5arrayIP15ompi_datatype_tLm27EE, %struct._ZSt6vectorISt5arrayIdLm3EESaIS1_EE}> 
%struct._ZSt5ctypeIcE = type <{ %struct.__SO__NSt6locale5facetE, [4 x i8], %struct.__locale_struct*, i8, [7 x i8], i32*, i32*, i16*, i8, [256 x i8], [256 x i8], i8, [6 x i8]}> 
%struct._ZSt5arrayIdLm12EE = type <{ [12 x double]}> 
%struct._ZNSt12_Vector_baseIP14ompi_request_tSaIS1_EE12_Vector_implE = type <{ %struct._ZNSt12_Vector_baseIP14ompi_request_tSaIS1_EE17_Vector_impl_dataE}> 
%struct._ZSt5arrayIiLm27EE = type <{ [27 x i32]}> 
%struct._Z6FsGridISt5arrayIdLm15EELi2EE = type <{ double, double, double, %struct._ZSt5arrayIdLm3EE, %struct.ompi_communicator_t*, i32, [4 x i8], %struct._ZSt6vectorIP14ompi_request_tSaIS1_EE, i32, %struct._ZSt5arrayIiLm27EE, %struct._ZSt6vectorIcSaIcEE, %struct._ZSt5arrayIiLm3EE, %struct._ZSt5arrayIiLm3EE, %struct._ZSt5arrayIbLm3EE, i8, %struct._ZSt5arrayIiLm3EE, %struct._ZSt5arrayIiLm3EE, %struct._ZSt5arrayIiLm3EE, %struct._ZSt5arrayIiLm3EE, [4 x i8], %struct.FsGridCouplingInformation*, %struct._ZSt5arrayIP15ompi_datatype_tLm27EE, %struct._ZSt5arrayIP15ompi_datatype_tLm27EE, %struct._ZSt6vectorISt5arrayIdLm15EESaIS1_EE}> 
%union.__C6 = type <{ [16 x i8]}> 
%struct._IO_FILE = type <{ i32, [4 x i8], i8*, i8*, i8*, i8*, i8*, i8*, i8*, i8*, i8*, i8*, i8*, %struct._IO_marker*, %struct._IO_FILE*, i32, i32, i64, i16, i8, [1 x i8], [4 x i8], i8*, i64, %struct._IO_codecvt*, %struct._IO_wide_data*, %struct._IO_FILE*, i8*, i64, i32, [20 x i8]}> 
%struct._ZSt6vectorISt5arrayIdLm12EESaIS1_EE = type <{ %struct._ZSt12_Vector_baseISt5arrayIdLm12EESaIS1_EE}> 
%struct._ZSt13basic_fstreamIcSt11char_traitsIcEE = type <{ %struct.__SO__Sd, %struct._ZSt13basic_filebufIcSt11char_traitsIcEE, %struct._ZSt9basic_iosIcSt11char_traitsIcEE}> 
%struct._ZSt5arrayIbLm3EE = type <{ [3 x i8]}> 
%struct._ZN7fsgrids9technicalE = type <{ i32, i32, double, i32, i32, i32, [4 x i8]}> 
%struct._ZNSt7__cxx1112basic_stringIcSt11char_traitsIcESaIcEEE = type <{ %struct._ZNSt7__cxx1112basic_stringIcSt11char_traitsIcESaIcEE12_Alloc_hiderE, i64, %union.__C6}> 
%struct.__SO__NSt6locale5facetE = type <{ i32 (...)* (...)*, i32}> 
%struct._ZSt6vectorISt5arrayIdLm3EESaIS1_EE = type <{ %struct._ZSt12_Vector_baseISt5arrayIdLm3EESaIS1_EE}> 
%struct._ZSt6vectorIN7fsgrids9technicalESaIS1_EE = type <{ %struct._ZSt12_Vector_baseIN7fsgrids9technicalESaIS1_EE}> 
%struct._ZSt3mapIjPN3SBC20SysBoundaryConditionESt4lessIjESaISt4pairIKjS2_EEE = type <{ %struct._ZSt8_Rb_treeIjSt4pairIKjPN3SBC20SysBoundaryConditionEESt10_Select1stIS5_ESt4lessIjESaIS5_EE}> 
%struct._ZNSt7__cxx1118basic_stringstreamIcSt11char_traitsIcESaIcEEE = type <{ %struct.__SO__Sd, %struct._ZNSt7__cxx1115basic_stringbufIcSt11char_traitsIcESaIcEEE, %struct._ZSt9basic_iosIcSt11char_traitsIcEE}> 
%struct._ZSt6vectorISt5arrayIdLm24EESaIS1_EE = type <{ %struct._ZSt12_Vector_baseISt5arrayIdLm24EESaIS1_EE}> 
%union._ZN11__mbstate_tUt_E = type <{ i32}> 

define signext i8 @_Z15propagateFieldsR6FsGridISt5arrayIdLm3EELi2EES3_S3_S3_RS_IS0_IdLm12EELi2EES3_RS_IS0_IdLm8EELi2EES9_RS_IS0_IdLm15EELi2EERS_IS0_IdLm24EELi2EERS_IS0_IdLm18EELi2EES6_RS_IN7fsgrids9technicalELi2EER11SysBoundaryRKdj(%struct._Z6FsGridISt5arrayIdLm3EELi2EE* %perBGrid.arg, %struct._Z6FsGridISt5arrayIdLm3EELi2EE* %perBDt2Grid.arg, %struct._Z6FsGridISt5arrayIdLm3EELi2EE* %EGrid.arg, %struct._Z6FsGridISt5arrayIdLm3EELi2EE* %EDt2Grid.arg, %struct._Z6FsGridISt5arrayIdLm12EELi2EE* %EHallGrid.arg, %struct._Z6FsGridISt5arrayIdLm3EELi2EE* %EGradPeGrid.arg, %struct._Z6FsGridISt5arrayIdLm8EELi2EE* %momentsGrid.arg, %struct._Z6FsGridISt5arrayIdLm8EELi2EE* %momentsDt2Grid.arg, %struct._Z6FsGridISt5arrayIdLm15EELi2EE* %dPerBGrid.arg, %struct._Z6FsGridISt5arrayIdLm24EELi2EE* %dMomentsGrid.arg, %struct._Z6FsGridISt5arrayIdLm18EELi2EE* %BgBGrid.arg, %struct._Z6FsGridISt5arrayIdLm12EELi2EE* %volGrid.arg, %struct._Z6FsGridIN7fsgrids9technicalELi2EE* %technicalGrid.arg, %struct.SysBoundary* %sysBoundaries.arg, double* %dt.arg, i32 zeroext %subcycles.arg) #0 personality i8* bitcast (i32 (...)* @__gxx_personality_v0 to i8*) !dbg !4141 {
L.entry:
	%perBGrid.addr = alloca %struct._Z6FsGridISt5arrayIdLm3EELi2EE*, align 8
	%perBDt2Grid.addr = alloca %struct._Z6FsGridISt5arrayIdLm3EELi2EE*, align 8
	%EGrid.addr = alloca %struct._Z6FsGridISt5arrayIdLm3EELi2EE*, align 8
	%EDt2Grid.addr = alloca %struct._Z6FsGridISt5arrayIdLm3EELi2EE*, align 8
	%EHallGrid.addr = alloca %struct._Z6FsGridISt5arrayIdLm12EELi2EE*, align 8
	%EGradPeGrid.addr = alloca %struct._Z6FsGridISt5arrayIdLm3EELi2EE*, align 8
	%momentsGrid.addr = alloca %struct._Z6FsGridISt5arrayIdLm8EELi2EE*, align 8
	%momentsDt2Grid.addr = alloca %struct._Z6FsGridISt5arrayIdLm8EELi2EE*, align 8
	%dPerBGrid.addr = alloca %struct._Z6FsGridISt5arrayIdLm15EELi2EE*, align 8
	%dMomentsGrid.addr = alloca %struct._Z6FsGridISt5arrayIdLm24EELi2EE*, align 8
	%BgBGrid.addr = alloca %struct._Z6FsGridISt5arrayIdLm18EELi2EE*, align 8
	%volGrid.addr = alloca %struct._Z6FsGridISt5arrayIdLm12EELi2EE*, align 8
	%technicalGrid.addr = alloca %struct._Z6FsGridIN7fsgrids9technicalELi2EE*, align 8
	%sysBoundaries.addr = alloca %struct.SysBoundary*, align 8
	%dt.addr = alloca double*, align 8
	%subcycles.addr = alloca i32, align 4
	%..inline.addr = alloca %struct._ZSt9basic_iosIcSt11char_traitsIcEE*, align 8
	%..inline.addr.1 = alloca %struct._ZSt9basic_iosIcSt11char_traitsIcEE*, align 8
	%..inline.addr.2 = alloca i32, align 4
	%..inline.addr.3 = alloca i64, align 8
	%.Q0000.addr = alloca %struct._ZSo*, align 8
	%.Q0001.addr = alloca %struct._ZSo*, align 8
	%hallTermCommunicateDerivatives.addr = alloca i32, align 4
	%gridDims.addr = alloca i32*, align 8
	%.TRP0000.addr = alloca i64, align 8
	%.ndk0006.addr = alloca i64, align 8
	%.lcr053073.addr = alloca i64, align 8
	%.TRP0001.addr = alloca i64, align 8
	%.ndk0008.addr = alloca i64, align 8
	%.lcr053074.addr = alloca i64, align 8
	%.r4.0232.addr = alloca i32, align 4
	%.TRP0002.addr = alloca i64, align 8
	%.ndk0010.addr = alloca i64, align 8
	%.lcr053075.addr = alloca i64, align 8
	%.r4.0230.addr = alloca i32, align 4
	%..inline.addr.4 = alloca %struct._Z6FsGridIN7fsgrids9technicalELi2EE*, align 8
	%..inline.addr.5 = alloca i32, align 4
	%..inline.addr.6 = alloca i32, align 4
	%..inline.addr.7 = alloca i32, align 4
	%..inline.addr.8 = alloca i32, align 4
	%..inline.addr.9 = alloca [3 x i32], align 4
	%..inline.addr.570 = alloca %struct._ZN7fsgrids9technicalE*, align 8
	%..inline.addr.580 = alloca i64, align 8
	%_T32381128_51664.addr = alloca i32, align 4
	%_T32381424_51664.addr = alloca i32, align 4
	%_T32381720_51664.addr = alloca i32, align 4
	%_T32382016_51664.addr = alloca i32, align 4
	%_T32382312_51664.addr = alloca i32, align 4
	%_T32382608_51664.addr = alloca double, align 8
	%subcycleDt.addr = alloca double, align 8
	%subcycleT.addr = alloca double, align 8
	%targetT.addr = alloca double, align 8
	%subcycleCount.addr = alloca i32, align 4
	%maxSubcycleCount.addr = alloca i32, align 4
	%myRank.addr = alloca i32, align 4
	%_T32384680_51664.addr = alloca i32, align 4
	%_T32385864_51664.addr = alloca i32, align 4
	%_T32386160_51664.addr = alloca i32, align 4
	%_T32386456_51664.addr = alloca i32, align 4
	%_T32386752_51664.addr = alloca i32, align 4
	%_T32377576_51664.addr = alloca %struct._ZNSt7__cxx1112basic_stringIcSt11char_traitsIcESaIcEEE, align 8
	%..inline.addr.770 = alloca i64, align 8
	%..inline.addr.780 = alloca i8*, align 8
	%..inline.addr.790 = alloca i8*, align 8
	%....inline.__FILL_CHARARRAY.addr = alloca [1 x i8], align 1
	%....inline.__FILL_CHARARRAY.addr.1 = alloca [1 x i8], align 1
	%..inline.addr.820 = alloca %struct._ZSt26random_access_iterator_tag, align 1
	%.Q0002.addr = alloca i32, align 4
	%..inline.addr.840 = alloca i8*, align 8
	%dtMaxLocal.addr = alloca double, align 8
	%localSize.addr = alloca %struct._ZSt5arrayIiLm3EE*, align 8
	%.TRP0003.addr = alloca i64, align 8
	%.TRP0004.addr = alloca i64, align 8
	%.TRP0005.addr = alloca i64, align 8
	%.lcr053076.addr = alloca i64, align 8
	%..inline.addr.910 = alloca %struct._Z6FsGridIN7fsgrids9technicalELi2EE*, align 8
	%..inline.addr.920 = alloca i32, align 4
	%..inline.addr.930 = alloca i32, align 4
	%..inline.addr.940 = alloca i32, align 4
	%..inline.addr.950 = alloca i32, align 4
	%..inline.addr.960 = alloca [3 x i32], align 4
	%..inline.addr.970 = alloca %struct._ZN7fsgrids9technicalE*, align 8
	%..inline.addr.980 = alloca %struct._ZSt9basic_iosIcSt11char_traitsIcEE*, align 8
	%..inline.addr.990 = alloca %struct._ZSt9basic_iosIcSt11char_traitsIcEE*, align 8
	%..inline.addr.1000 = alloca i32, align 4
	%..inline.addr.1010 = alloca i64, align 8
	%.Q0003.addr = alloca %struct._ZSo*, align 8
	%..inline.addr.1030 = alloca double, align 8
	%.Q0004.addr = alloca %struct._ZSo*, align 8
	%..inline.addr.1050 = alloca %struct._ZSo*, align 8
	%..inline.addr.1060 = alloca %struct._ZSt9basic_iosIcSt11char_traitsIcEE*, align 8
	%..inline.addr.1070 = alloca %struct._ZSt9basic_iosIcSt11char_traitsIcEE*, align 8
	%..inline.addr.1080 = alloca i32, align 4
	%..inline.addr.1090 = alloca i64, align 8
	%.Q0005.addr = alloca %struct._ZSo*, align 8
	%..inline.addr.1110 = alloca %struct._ZSo*, align 8
	%..inline.addr.1120 = alloca double, align 8
	%.Q0006.addr = alloca %struct._ZSo*, align 8
	%..inline.addr.1140 = alloca %struct._ZSo*, align 8
	%..inline.addr.1150 = alloca %struct._ZSt9basic_iosIcSt11char_traitsIcEE*, align 8
	%..inline.addr.1160 = alloca %struct._ZSt9basic_iosIcSt11char_traitsIcEE*, align 8
	%..inline.addr.1170 = alloca i32, align 4
	%..inline.addr.1180 = alloca i64, align 8
	%.Q0007.addr = alloca %struct._ZSo*, align 8
	%..inline.addr.1200 = alloca %struct._ZSo*, align 8
	%..inline.addr.1210 = alloca double, align 8
	%.Q0008.addr = alloca %struct._ZSo*, align 8
	%..inline.addr.1230 = alloca %struct._ZSo*, align 8
	%..inline.addr.1240 = alloca %struct._ZSt9basic_iosIcSt11char_traitsIcEE*, align 8
	%..inline.addr.1250 = alloca %struct._ZSt9basic_iosIcSt11char_traitsIcEE*, align 8
	%..inline.addr.1260 = alloca i32, align 4
	%..inline.addr.1270 = alloca i64, align 8
	%.Q0009.addr = alloca %struct._ZSo*, align 8
	%..inline.addr.1290 = alloca %struct._ZSo*, align 8
	%.Q0010.addr = alloca %struct._ZSo*, align 8
	%_T32378168_51664.addr = alloca %struct._ZNSt7__cxx1112basic_stringIcSt11char_traitsIcESaIcEEE, align 8
	%..inline.addr.1320 = alloca i64, align 8
	%..inline.addr.1330 = alloca i8*, align 8
	%..inline.addr.1340 = alloca i8*, align 8
	%....inline.__FILL_CHARARRAY.addr.2 = alloca [1 x i8], align 1
	%....inline.__FILL_CHARARRAY.addr.3 = alloca [1 x i8], align 1
	%..inline.addr.1370 = alloca %struct._ZSt26random_access_iterator_tag, align 1
	%_T32378760_51664.addr = alloca %struct._ZNSt7__cxx1112basic_stringIcSt11char_traitsIcESaIcEEE, align 8
	%..inline.addr.1390 = alloca i64, align 8
	%..inline.addr.1400 = alloca i8*, align 8
	%..inline.addr.1410 = alloca i8*, align 8
	%....inline.__FILL_CHARARRAY.addr.4 = alloca [1 x i8], align 1
	%....inline.__FILL_CHARARRAY.addr.5 = alloca [1 x i8], align 1
	%..inline.addr.1440 = alloca %struct._ZSt26random_access_iterator_tag, align 1
	%.Q0011.addr = alloca i32, align 4
	%..inline.addr.1460 = alloca i8*, align 8
	%..inline.addr.1470 = alloca i8*, align 8
	%..inline.addr.1480 = alloca i64, align 8
	%..inline.addr.1490 = alloca double*, align 8
	%..inline.addr.1500 = alloca i64, align 8
	%..inline.addr.1510 = alloca i8*, align 8
	%..inline.addr.1520 = alloca i8*, align 8
	%....inline.__FILL_CHARARRAY.addr.6 = alloca [1 x i8], align 1
	%....inline.__FILL_CHARARRAY.addr.7 = alloca [1 x i8], align 1
	%..inline.addr.1550 = alloca %struct._ZSt26random_access_iterator_tag, align 1
	%.Q0012.addr = alloca i32, align 4
	%..inline.addr.1570 = alloca i8*, align 8
	%..inline.addr.1580 = alloca %struct._Z6FsGridIN7fsgrids9technicalELi2EE*, align 8
	%dtMaxGlobal.addr = alloca double, align 8
	%..inline.addr.1600 = alloca i32, align 4
	%..inline.addr.1610 = alloca i64, align 8
	%..inline.addr.1620 = alloca i8*, align 8
	%..inline.addr.1630 = alloca i8*, align 8
	%....inline.__FILL_CHARARRAY.addr.8 = alloca [1 x i8], align 1
	%....inline.__FILL_CHARARRAY.addr.9 = alloca [1 x i8], align 1
	%..inline.addr.1660 = alloca %struct._ZSt26random_access_iterator_tag, align 1
	%_T32379352_51664.addr = alloca %struct._ZNSt7__cxx1112basic_stringIcSt11char_traitsIcESaIcEEE, align 8
	%..inline.addr.1680 = alloca i64, align 8
	%..inline.addr.1690 = alloca i8*, align 8
	%..inline.addr.1700 = alloca i8*, align 8
	%....inline.__FILL_CHARARRAY.addr.1710 = alloca [1 x i8], align 1
	%....inline.__FILL_CHARARRAY.addr.1720 = alloca [1 x i8], align 1
	%..inline.addr.1730 = alloca %struct._ZSt26random_access_iterator_tag, align 1
	%.Q0013.addr = alloca i32, align 4
	%..inline.addr.1750 = alloca i8*, align 8
	%..inline.addr.1760 = alloca i8*, align 8
	%meanFieldsCFL.addr = alloca double, align 8
	%..inline.addr.1780 = alloca %struct._ZSt9basic_iosIcSt11char_traitsIcEE*, align 8
	%..inline.addr.1790 = alloca %struct._ZSt9basic_iosIcSt11char_traitsIcEE*, align 8
	%..inline.addr.1800 = alloca i32, align 4
	%..inline.addr.1810 = alloca i64, align 8
	%.Q0014.addr = alloca %struct._ZSo*, align 8
	%..inline.addr.1830 = alloca double, align 8
	%.Q0015.addr = alloca %struct._ZSo*, align 8
	%..inline.addr.1850 = alloca %struct._ZSt9basic_iosIcSt11char_traitsIcEE*, align 8
	%..inline.addr.1860 = alloca %struct._ZSt9basic_iosIcSt11char_traitsIcEE*, align 8
	%..inline.addr.1870 = alloca i32, align 4
	%..inline.addr.1880 = alloca i64, align 8
	%.Q0016.addr = alloca %struct._ZSo*, align 8
	%..inline.addr.1900 = alloca i32, align 4
	%.Q0017.addr = alloca %struct._ZSo*, align 8
	%..inline.addr.1920 = alloca %struct._ZSt9basic_iosIcSt11char_traitsIcEE*, align 8
	%..inline.addr.1930 = alloca %struct._ZSt9basic_iosIcSt11char_traitsIcEE*, align 8
	%..inline.addr.1940 = alloca i32, align 4
	%..inline.addr.1950 = alloca i64, align 8
	%.Q0018.addr = alloca %struct._ZSo*, align 8
	%..inline.addr.1970 = alloca i32, align 4
	%.Q0019.addr = alloca %struct._ZSo*, align 8
	%..inline.addr.1990 = alloca %struct._ZSt9basic_iosIcSt11char_traitsIcEE*, align 8
	%..inline.addr.2000 = alloca %struct._ZSt9basic_iosIcSt11char_traitsIcEE*, align 8
	%..inline.addr.2010 = alloca i32, align 4
	%..inline.addr.2020 = alloca i64, align 8
	%.Q0020.addr = alloca %struct._ZSo*, align 8
	%..inline.addr.2040 = alloca double, align 8
	%.Q0021.addr = alloca %struct._ZSo*, align 8
	%..inline.addr.2060 = alloca %struct._ZSt9basic_iosIcSt11char_traitsIcEE*, align 8
	%..inline.addr.2070 = alloca %struct._ZSt9basic_iosIcSt11char_traitsIcEE*, align 8
	%..inline.addr.2080 = alloca i32, align 4
	%..inline.addr.2090 = alloca i64, align 8
	%.Q0022.addr = alloca %struct._ZSo*, align 8
	%.Q0023.addr = alloca %struct.Logger*, align 8
	%..inline.addr.2120 = alloca i64, align 8
	%..inline.addr.2130 = alloca i8*, align 8
	%..inline.addr.2140 = alloca i8*, align 8
	%....inline.__FILL_CHARARRAY.addr.2150 = alloca [1 x i8], align 1
	%....inline.__FILL_CHARARRAY.addr.2160 = alloca [1 x i8], align 1
	%..inline.addr.2170 = alloca %struct._ZSt26random_access_iterator_tag, align 1
	%..inline.addr.2180 = alloca i64, align 8
	%..inline.addr.2190 = alloca i8*, align 8
	%..inline.addr.2200 = alloca i8*, align 8
	%....inline.__FILL_CHARARRAY.addr.2210 = alloca [1 x i8], align 1
	%....inline.__FILL_CHARARRAY.addr.2220 = alloca [1 x i8], align 1
	%..inline.addr.2230 = alloca %struct._ZSt26random_access_iterator_tag, align 1
	%.Q0024.addr = alloca i32, align 4
	%..inline.addr.2250 = alloca i8*, align 8
	%..inline.addr.2260 = alloca i8*, align 8
	%..inline.addr.2270 = alloca %struct._ZSt9basic_iosIcSt11char_traitsIcEE*, align 8
	%..inline.addr.2280 = alloca %struct._ZSt9basic_iosIcSt11char_traitsIcEE*, align 8
	%..inline.addr.2290 = alloca i32, align 4
	%..inline.addr.2300 = alloca i64, align 8
	%.Q0025.addr = alloca %struct._ZSo*, align 8
	%..inline.addr.2320 = alloca i32, align 4
	%.Q0026.addr = alloca %struct._ZSo*, align 8
	%..inline.addr.2340 = alloca %struct._ZSt9basic_iosIcSt11char_traitsIcEE*, align 8
	%..inline.addr.2350 = alloca %struct._ZSt9basic_iosIcSt11char_traitsIcEE*, align 8
	%..inline.addr.2360 = alloca i32, align 4
	%..inline.addr.2370 = alloca i64, align 8
	%.Q0027.addr = alloca %struct._ZSo*, align 8
	%..inline.addr.2390 = alloca i32, align 4
	%.Q0028.addr = alloca %struct._ZSo*, align 8
	%..inline.addr.2410 = alloca %struct._ZSt9basic_iosIcSt11char_traitsIcEE*, align 8
	%..inline.addr.2420 = alloca %struct._ZSt9basic_iosIcSt11char_traitsIcEE*, align 8
	%..inline.addr.2430 = alloca i32, align 4
	%..inline.addr.2440 = alloca i64, align 8
	%.Q0029.addr = alloca %struct._ZSo*, align 8
	%..inline.addr.2460 = alloca i32, align 4
	%.Q0030.addr = alloca %struct._ZSo*, align 8
	%.Q0031.addr = alloca %struct.Logger*, align 8
	%__caught_object_address.addr = alloca i8*, align 8
	%__catch_clause_number.addr = alloca i32, align 4
	%_T32377280_51664.addr = alloca %struct._ZSaIcE, align 1
	%_T32377872_51664.addr = alloca %struct._ZSaIcE, align 1
	%_T32378464_51664.addr = alloca %struct._ZSaIcE, align 1
	%_T32379056_51664.addr = alloca %struct._ZSaIcE, align 1

	call void @llvm.dbg.declare (metadata %struct._Z6FsGridISt5arrayIdLm3EELi2EE** %perBGrid.addr, metadata !5637, metadata !3943), !dbg !4142
	store %struct._Z6FsGridISt5arrayIdLm3EELi2EE* %perBGrid.arg, %struct._Z6FsGridISt5arrayIdLm3EELi2EE** %perBGrid.addr, align 8, !tbaa !5797
	call void @llvm.dbg.declare (metadata %struct._Z6FsGridISt5arrayIdLm3EELi2EE** %perBGrid.addr, metadata !5638, metadata !3943), !dbg !4142
	call void @llvm.dbg.declare (metadata %struct._Z6FsGridISt5arrayIdLm3EELi2EE** %perBDt2Grid.addr, metadata !5639, metadata !3943), !dbg !4142
	store %struct._Z6FsGridISt5arrayIdLm3EELi2EE* %perBDt2Grid.arg, %struct._Z6FsGridISt5arrayIdLm3EELi2EE** %perBDt2Grid.addr, align 8, !tbaa !5797
	call void @llvm.dbg.declare (metadata %struct._Z6FsGridISt5arrayIdLm3EELi2EE** %perBDt2Grid.addr, metadata !5640, metadata !3943), !dbg !4142
	call void @llvm.dbg.declare (metadata %struct._Z6FsGridISt5arrayIdLm3EELi2EE** %EGrid.addr, metadata !5641, metadata !3943), !dbg !4142
	store %struct._Z6FsGridISt5arrayIdLm3EELi2EE* %EGrid.arg, %struct._Z6FsGridISt5arrayIdLm3EELi2EE** %EGrid.addr, align 8, !tbaa !5797
	call void @llvm.dbg.declare (metadata %struct._Z6FsGridISt5arrayIdLm3EELi2EE** %EGrid.addr, metadata !5642, metadata !3943), !dbg !4142
	call void @llvm.dbg.declare (metadata %struct._Z6FsGridISt5arrayIdLm3EELi2EE** %EDt2Grid.addr, metadata !5643, metadata !3943), !dbg !4142
	store %struct._Z6FsGridISt5arrayIdLm3EELi2EE* %EDt2Grid.arg, %struct._Z6FsGridISt5arrayIdLm3EELi2EE** %EDt2Grid.addr, align 8, !tbaa !5797
	call void @llvm.dbg.declare (metadata %struct._Z6FsGridISt5arrayIdLm3EELi2EE** %EDt2Grid.addr, metadata !5644, metadata !3943), !dbg !4142
	call void @llvm.dbg.declare (metadata %struct._Z6FsGridISt5arrayIdLm12EELi2EE** %EHallGrid.addr, metadata !5645, metadata !3943), !dbg !4142
	store %struct._Z6FsGridISt5arrayIdLm12EELi2EE* %EHallGrid.arg, %struct._Z6FsGridISt5arrayIdLm12EELi2EE** %EHallGrid.addr, align 8, !tbaa !5797
	call void @llvm.dbg.declare (metadata %struct._Z6FsGridISt5arrayIdLm12EELi2EE** %EHallGrid.addr, metadata !5646, metadata !3943), !dbg !4142
	call void @llvm.dbg.declare (metadata %struct._Z6FsGridISt5arrayIdLm3EELi2EE** %EGradPeGrid.addr, metadata !5647, metadata !3943), !dbg !4142
	store %struct._Z6FsGridISt5arrayIdLm3EELi2EE* %EGradPeGrid.arg, %struct._Z6FsGridISt5arrayIdLm3EELi2EE** %EGradPeGrid.addr, align 8, !tbaa !5797
	call void @llvm.dbg.declare (metadata %struct._Z6FsGridISt5arrayIdLm3EELi2EE** %EGradPeGrid.addr, metadata !5648, metadata !3943), !dbg !4142
	call void @llvm.dbg.declare (metadata %struct._Z6FsGridISt5arrayIdLm8EELi2EE** %momentsGrid.addr, metadata !5649, metadata !3943), !dbg !4142
	store %struct._Z6FsGridISt5arrayIdLm8EELi2EE* %momentsGrid.arg, %struct._Z6FsGridISt5arrayIdLm8EELi2EE** %momentsGrid.addr, align 8, !tbaa !5797
	call void @llvm.dbg.declare (metadata %struct._Z6FsGridISt5arrayIdLm8EELi2EE** %momentsGrid.addr, metadata !5650, metadata !3943), !dbg !4142
	call void @llvm.dbg.declare (metadata %struct._Z6FsGridISt5arrayIdLm8EELi2EE** %momentsDt2Grid.addr, metadata !5651, metadata !3943), !dbg !4142
	store %struct._Z6FsGridISt5arrayIdLm8EELi2EE* %momentsDt2Grid.arg, %struct._Z6FsGridISt5arrayIdLm8EELi2EE** %momentsDt2Grid.addr, align 8, !tbaa !5797
	call void @llvm.dbg.declare (metadata %struct._Z6FsGridISt5arrayIdLm8EELi2EE** %momentsDt2Grid.addr, metadata !5652, metadata !3943), !dbg !4142
	call void @llvm.dbg.declare (metadata %struct._Z6FsGridISt5arrayIdLm15EELi2EE** %dPerBGrid.addr, metadata !5653, metadata !3943), !dbg !4142
	store %struct._Z6FsGridISt5arrayIdLm15EELi2EE* %dPerBGrid.arg, %struct._Z6FsGridISt5arrayIdLm15EELi2EE** %dPerBGrid.addr, align 8, !tbaa !5797
	call void @llvm.dbg.declare (metadata %struct._Z6FsGridISt5arrayIdLm15EELi2EE** %dPerBGrid.addr, metadata !5654, metadata !3943), !dbg !4142
	call void @llvm.dbg.declare (metadata %struct._Z6FsGridISt5arrayIdLm24EELi2EE** %dMomentsGrid.addr, metadata !5655, metadata !3943), !dbg !4142
	store %struct._Z6FsGridISt5arrayIdLm24EELi2EE* %dMomentsGrid.arg, %struct._Z6FsGridISt5arrayIdLm24EELi2EE** %dMomentsGrid.addr, align 8, !tbaa !5797
	call void @llvm.dbg.declare (metadata %struct._Z6FsGridISt5arrayIdLm24EELi2EE** %dMomentsGrid.addr, metadata !5656, metadata !3943), !dbg !4142
	call void @llvm.dbg.declare (metadata %struct._Z6FsGridISt5arrayIdLm18EELi2EE** %BgBGrid.addr, metadata !5657, metadata !3943), !dbg !4142
	store %struct._Z6FsGridISt5arrayIdLm18EELi2EE* %BgBGrid.arg, %struct._Z6FsGridISt5arrayIdLm18EELi2EE** %BgBGrid.addr, align 8, !tbaa !5797
	call void @llvm.dbg.declare (metadata %struct._Z6FsGridISt5arrayIdLm18EELi2EE** %BgBGrid.addr, metadata !5658, metadata !3943), !dbg !4142
	call void @llvm.dbg.declare (metadata %struct._Z6FsGridISt5arrayIdLm12EELi2EE** %volGrid.addr, metadata !5659, metadata !3943), !dbg !4142
	store %struct._Z6FsGridISt5arrayIdLm12EELi2EE* %volGrid.arg, %struct._Z6FsGridISt5arrayIdLm12EELi2EE** %volGrid.addr, align 8, !tbaa !5797
	call void @llvm.dbg.declare (metadata %struct._Z6FsGridISt5arrayIdLm12EELi2EE** %volGrid.addr, metadata !5660, metadata !3943), !dbg !4142
	call void @llvm.dbg.declare (metadata %struct._Z6FsGridIN7fsgrids9technicalELi2EE** %technicalGrid.addr, metadata !5661, metadata !3943), !dbg !4142
	store %struct._Z6FsGridIN7fsgrids9technicalELi2EE* %technicalGrid.arg, %struct._Z6FsGridIN7fsgrids9technicalELi2EE** %technicalGrid.addr, align 8, !tbaa !5797
	call void @llvm.dbg.declare (metadata %struct._Z6FsGridIN7fsgrids9technicalELi2EE** %technicalGrid.addr, metadata !5662, metadata !3943), !dbg !4142
	call void @llvm.dbg.declare (metadata %struct.SysBoundary** %sysBoundaries.addr, metadata !5663, metadata !3943), !dbg !4142
	store %struct.SysBoundary* %sysBoundaries.arg, %struct.SysBoundary** %sysBoundaries.addr, align 8, !tbaa !5797
	call void @llvm.dbg.declare (metadata %struct.SysBoundary** %sysBoundaries.addr, metadata !5664, metadata !3943), !dbg !4142
	call void @llvm.dbg.declare (metadata double** %dt.addr, metadata !5665, metadata !3943), !dbg !4142
	store double* %dt.arg, double** %dt.addr, align 8, !tbaa !5797
	call void @llvm.dbg.declare (metadata double** %dt.addr, metadata !5666, metadata !3943), !dbg !4142
	call void @llvm.dbg.declare (metadata i32* %subcycles.addr, metadata !5667, metadata !3943), !dbg !4142
	store i32 %subcycles.arg, i32* %subcycles.addr, align 4, !tbaa !5798
	call void @llvm.dbg.declare (metadata i32* %subcycles.addr, metadata !5668, metadata !3943), !dbg !4142
	%0 = load i32, i32* %subcycles.addr, align 4, !tbaa !5800, !dbg !5669
	%1 = icmp ne i32  %0, 0, !dbg !5669
	br i1  %1, label %L.B0000, label %L.B1122, !dbg !5669
L.B1122:
	%2 = bitcast [36 x i8]* @.S52924 to i8*, !dbg !5670
	%3 = icmp ne i8*  %2,  null, !dbg !5670
	br i1  %3, label %L..inline.64190, label %L.B1123, !dbg !5670
L.B1123:
	%4 = bitcast %struct._ZSo* @_ZSt4cerr to i8*, !dbg !5671
	%5 = bitcast %struct._ZSo* @_ZSt4cerr to i8**, !dbg !5671
	%6 = load i8*, i8**  %5, align 8, !tbaa !5797, !dbg !5671
	%7 = getelementptr i8, i8*  %6, i64 18446744073709551592, !dbg !5671
	%8 = bitcast i8*  %7 to i64*, !dbg !5671
	%9 = load i64, i64*  %8, align 8, !tbaa !5798, !dbg !5671
	%10 = getelementptr i8, i8*  %4, i64  %9, !dbg !5671
	%11 = bitcast %struct._ZSt9basic_iosIcSt11char_traitsIcEE** %..inline.addr to i8**, !dbg !5671
	store i8*  %10, i8**  %11, align 8, !tbaa !5797, !dbg !5671
	%12 = load %struct._ZSt9basic_iosIcSt11char_traitsIcEE*, %struct._ZSt9basic_iosIcSt11char_traitsIcEE** %..inline.addr, align 8, !tbaa !5797, !dbg !5671
	%13 = bitcast %struct._ZSt9basic_iosIcSt11char_traitsIcEE*  %12 to i8*, !dbg !5671
	%14 = bitcast %struct._ZSt9basic_iosIcSt11char_traitsIcEE** %..inline.addr.1 to i8**, !dbg !5671
	store i8*  %13, i8**  %14, align 8, !tbaa !5797, !dbg !5671
	%15 = load %struct._ZSt9basic_iosIcSt11char_traitsIcEE*, %struct._ZSt9basic_iosIcSt11char_traitsIcEE** %..inline.addr.1, align 8, !tbaa !5797, !dbg !5671
	%16 = bitcast %struct._ZSt9basic_iosIcSt11char_traitsIcEE*  %15 to i8*, !dbg !5671
	%17 = getelementptr i8, i8*  %16, i64 32, !dbg !5671
	%18 = bitcast i8*  %17 to i32*, !dbg !5671
	%19 = load i32, i32*  %18, align 4, !tbaa !5798, !dbg !5671
	%20 = or i32  %19, 1, !dbg !5671
	call void  @_ZNSt9basic_iosIcSt11char_traitsIcEE5clearESt12_Ios_Iostate (%struct._ZSt9basic_iosIcSt11char_traitsIcEE*  %12, i32  %20), !dbg !5671
	br label %L..inline.64211, !dbg !5671
L..inline.64190:
	%21 = bitcast [36 x i8]* @.S52924 to i8*, !dbg !5674
	%22 = call i64  @strlen (i8*  %21) nounwind, !dbg !5674
	%23 = call %struct._ZSo*  @_ZSt16__ostream_insertIcSt11char_traitsIcEERSt13basic_ostreamIT_T0_ES6_PKS3_l (%struct._ZSo* @_ZSt4cerr, i8*  %21, i64  %22), !dbg !5674
	%24 = bitcast %struct._ZSo*  %23 to i8*, !dbg !5674
	%25 = bitcast %struct._ZSo** %.Q0000.addr to i8**, !dbg !5674
	store i8*  %24, i8**  %25, align 8, !tbaa !5797, !dbg !5674
	br label %L..inline.64211
L..inline.64211:
	%26 = call %struct._ZSo*  @_ZSt4endlIcSt11char_traitsIcEERSt13basic_ostreamIT_T0_ES6_ (%struct._ZSo* @_ZSt4cerr), !dbg !5675
	%27 = bitcast %struct._ZSo*  %26 to i8*, !dbg !5675
	%28 = bitcast %struct._ZSo** %.Q0001.addr to i8**, !dbg !5675
	store i8*  %27, i8**  %28, align 8, !tbaa !5797, !dbg !5675
	call void  @exit (i32 1) nounwind noreturn, !dbg !5676
	br label %L.B0000
L.B0000:
	call void @llvm.dbg.declare (metadata i32* %hallTermCommunicateDerivatives.addr, metadata !5678, metadata !3943), !dbg !4142
	store i32 1, i32* %hallTermCommunicateDerivatives.addr, align 4, !tbaa !5800, !dbg !5677
	%29 = load %struct._Z6FsGridIN7fsgrids9technicalELi2EE*, %struct._Z6FsGridIN7fsgrids9technicalELi2EE** %technicalGrid.addr, align 8, !tbaa !5797, !dbg !5679
	%30 = bitcast %struct._Z6FsGridIN7fsgrids9technicalELi2EE*  %29 to i8*, !dbg !5679
	%31 = getelementptr i8, i8*  %30, i64 264, !dbg !5679
	call void @llvm.dbg.declare (metadata i32** %gridDims.addr, metadata !5680, metadata !3943), !dbg !4142
	%32 = bitcast i32** %gridDims.addr to i8**, !dbg !5679
	store i8*  %31, i8**  %32, align 8, !tbaa !5797, !dbg !5679
	%33 = load %struct._Z6FsGridIN7fsgrids9technicalELi2EE*, %struct._Z6FsGridIN7fsgrids9technicalELi2EE** %technicalGrid.addr, align 8, !tbaa !5797, !dbg !5681
	%34 = bitcast %struct._Z6FsGridIN7fsgrids9technicalELi2EE*  %33 to i8*, !dbg !5681
	%35 = getelementptr i8, i8*  %34, i64 272, !dbg !5681
	%36 = bitcast i8*  %35 to i32*, !dbg !5681
	%37 = load i32, i32*  %36, align 4, !tbaa !5798, !dbg !5681
	%38 = sext i32  %37 to i64, !dbg !5681
	%39 = add i64  %38, 1, !dbg !5681
	%40 = sub i64  %39, 1, !dbg !5681
	store i64  %40, i64* %.TRP0000.addr, align 8, !tbaa !5802, !dbg !5681
	store i64 0, i64* %.ndk0006.addr, align 8, !tbaa !5804, !dbg !5682
	%41 = icmp sle i64  %40, 0, !dbg !5682
	br i1  %41, label %L.B1111, label %L.B1124, !dbg !5682
L.B1124:
	store i64  %40, i64* %.lcr053073.addr, align 8, !tbaa !5804, !dbg !5682
	br label %L.B1110
L.B1110:
	%42 = load i32*, i32** %gridDims.addr, align 8, !tbaa !5797, !dbg !5682
	%43 = bitcast i32*  %42 to i8*, !dbg !5682
	%44 = getelementptr i8, i8*  %43, i64 4, !dbg !5682
	%45 = bitcast i8*  %44 to i32*, !dbg !5682
	%46 = load i32, i32*  %45, align 4, !tbaa !5798, !dbg !5682
	%47 = sext i32  %46 to i64, !dbg !5682
	%48 = add i64  %47, 1, !dbg !5682
	%49 = sub i64  %48, 1, !dbg !5682
	store i64  %49, i64* %.TRP0001.addr, align 8, !tbaa !5802, !dbg !5682
	store i64 0, i64* %.ndk0008.addr, align 8, !tbaa !5804, !dbg !5682
	%50 = icmp sle i64  %49, 0, !dbg !5682
	br i1  %50, label %L.B1113, label %L.B1125, !dbg !5682
L.B1125:
	store i64  %49, i64* %.lcr053074.addr, align 8, !tbaa !5804, !dbg !5683
	%51 = load i64, i64* %.ndk0006.addr, align 8, !tbaa !5804, !dbg !5683
	%52 = trunc i64  %51 to i32, !dbg !5683
	store i32  %52, i32* %.r4.0232.addr, align 4, !tbaa !5800, !dbg !5683
	br label %L.B1112
L.B1112:
	%53 = load i32*, i32** %gridDims.addr, align 8, !tbaa !5797, !dbg !5682
	%54 = load i32, i32*  %53, align 4, !tbaa !5798, !dbg !5682
	%55 = sext i32  %54 to i64, !dbg !5682
	%56 = add i64  %55, 1, !dbg !5682
	%57 = sub i64  %56, 1, !dbg !5682
	store i64  %57, i64* %.TRP0002.addr, align 8, !tbaa !5802, !dbg !5682
	store i64 0, i64* %.ndk0010.addr, align 8, !tbaa !5804, !dbg !5682
	%58 = icmp sle i64  %57, 0, !dbg !5682
	br i1  %58, label %L.B1115, label %L.B1126, !dbg !5682
L.B1126:
	store i64  %57, i64* %.lcr053075.addr, align 8, !tbaa !5804, !dbg !5684
	%59 = load i64, i64* %.ndk0008.addr, align 8, !tbaa !5804, !dbg !5684
	%60 = trunc i64  %59 to i32, !dbg !5684
	store i32  %60, i32* %.r4.0230.addr, align 4, !tbaa !5800, !dbg !5684
	br label %L.B1114
L.B1114:
	%61 = load %struct._Z6FsGridIN7fsgrids9technicalELi2EE*, %struct._Z6FsGridIN7fsgrids9technicalELi2EE** %technicalGrid.addr, align 8, !tbaa !5797, !dbg !5682
	%62 = bitcast %struct._Z6FsGridIN7fsgrids9technicalELi2EE*  %61 to i8*, !dbg !5682
	%63 = bitcast %struct._Z6FsGridIN7fsgrids9technicalELi2EE** %..inline.addr.4 to i8**, !dbg !5682
	store i8*  %62, i8**  %63, align 8, !tbaa !5797, !dbg !5682
	%64 = load i64, i64* %.ndk0010.addr, align 8, !tbaa !5804, !dbg !5682
	%65 = trunc i64  %64 to i32, !dbg !5682
	store i32  %65, i32* %..inline.addr.5, align 4, !tbaa !5800, !dbg !5682
	%66 = load i32, i32* %.r4.0230.addr, align 4, !tbaa !5800, !dbg !5682
	store i32  %66, i32* %..inline.addr.6, align 4, !tbaa !5800, !dbg !5682
	%67 = load i32, i32* %.r4.0232.addr, align 4, !tbaa !5800, !dbg !5682
	store i32  %67, i32* %..inline.addr.7, align 4, !tbaa !5800, !dbg !5682
	store i32 13, i32* %..inline.addr.8, align 4, !tbaa !5800, !dbg !5682
	%68 = bitcast [3 x i32]* %..inline.addr.9 to i32*, !dbg !5682
	store i32 0, i32*  %68, align 4, !tbaa !5798, !dbg !5682
	%69 = bitcast [3 x i32]* %..inline.addr.9 to i8*, !dbg !5682
	%70 = getelementptr i8, i8*  %69, i64 4, !dbg !5682
	%71 = bitcast i8*  %70 to i32*, !dbg !5682
	store i32 0, i32*  %71, align 4, !tbaa !5798, !dbg !5682
	%72 = getelementptr i8, i8*  %69, i64 8, !dbg !5682
	%73 = bitcast i8*  %72 to i32*, !dbg !5682
	store i32 0, i32*  %73, align 4, !tbaa !5798, !dbg !5682
	%74 = icmp sge i32  %65, 0, !dbg !5682
	br i1  %74, label %L..inline.64255, label %L.B1127, !dbg !5682
L.B1127:
	store i32 4, i32* %..inline.addr.8, align 4, !tbaa !5800, !dbg !5682
	%75 = bitcast [3 x i32]* %..inline.addr.9 to i32*, !dbg !5682
	store i32 1, i32*  %75, align 4, !tbaa !5798, !dbg !5682
	br label %L..inline.64255
L..inline.64255:
	%76 = load i32, i32* %..inline.addr.5, align 4, !tbaa !5800, !dbg !5682
	%77 = load %struct._Z6FsGridIN7fsgrids9technicalELi2EE*, %struct._Z6FsGridIN7fsgrids9technicalELi2EE** %..inline.addr.4, align 8, !tbaa !5797, !dbg !5682
	%78 = bitcast %struct._Z6FsGridIN7fsgrids9technicalELi2EE*  %77 to i8*, !dbg !5682
	%79 = getelementptr i8, i8*  %78, i64 264, !dbg !5682
	%80 = bitcast i8*  %79 to i32*, !dbg !5682
	%81 = load i32, i32*  %80, align 4, !tbaa !5798, !dbg !5682
	%82 = icmp slt i32  %76,  %81, !dbg !5682
	br i1  %82, label %L..inline.64273, label %L.B1128, !dbg !5682
L.B1128:
	%83 = load i32, i32* %..inline.addr.8, align 4, !tbaa !5800, !dbg !5682
	%84 = add i32  %83, 9, !dbg !5682
	store i32  %84, i32* %..inline.addr.8, align 4, !tbaa !5800, !dbg !5682
	%85 = bitcast [3 x i32]* %..inline.addr.9 to i32*, !dbg !5682
	store i32 -1, i32*  %85, align 4, !tbaa !5798, !dbg !5682
	br label %L..inline.64273
L..inline.64273:
	%86 = load i32, i32* %..inline.addr.6, align 4, !tbaa !5800, !dbg !5682
	%87 = icmp sge i32  %86, 0, !dbg !5682
	br i1  %87, label %L..inline.64275, label %L.B1129, !dbg !5682
L.B1129:
	%88 = load i32, i32* %..inline.addr.8, align 4, !tbaa !5800, !dbg !5682
	%89 = sub i32  %88, 3, !dbg !5682
	store i32  %89, i32* %..inline.addr.8, align 4, !tbaa !5800, !dbg !5682
	%90 = bitcast [3 x i32]* %..inline.addr.9 to i8*, !dbg !5682
	%91 = getelementptr i8, i8*  %90, i64 4, !dbg !5682
	%92 = bitcast i8*  %91 to i32*, !dbg !5682
	store i32 1, i32*  %92, align 4, !tbaa !5798, !dbg !5682
	br label %L..inline.64275
L..inline.64275:
	%93 = load i32, i32* %..inline.addr.6, align 4, !tbaa !5800, !dbg !5682
	%94 = load %struct._Z6FsGridIN7fsgrids9technicalELi2EE*, %struct._Z6FsGridIN7fsgrids9technicalELi2EE** %..inline.addr.4, align 8, !tbaa !5797, !dbg !5682
	%95 = bitcast %struct._Z6FsGridIN7fsgrids9technicalELi2EE*  %94 to i8*, !dbg !5682
	%96 = getelementptr i8, i8*  %95, i64 268, !dbg !5682
	%97 = bitcast i8*  %96 to i32*, !dbg !5682
	%98 = load i32, i32*  %97, align 4, !tbaa !5798, !dbg !5682
	%99 = icmp slt i32  %93,  %98, !dbg !5682
	br i1  %99, label %L..inline.64292, label %L.B1130, !dbg !5682
L.B1130:
	%100 = load i32, i32* %..inline.addr.8, align 4, !tbaa !5800, !dbg !5682
	%101 = add i32  %100, 3, !dbg !5682
	store i32  %101, i32* %..inline.addr.8, align 4, !tbaa !5800, !dbg !5682
	%102 = bitcast [3 x i32]* %..inline.addr.9 to i8*, !dbg !5682
	%103 = getelementptr i8, i8*  %102, i64 4, !dbg !5682
	%104 = bitcast i8*  %103 to i32*, !dbg !5682
	store i32 -1, i32*  %104, align 4, !tbaa !5798, !dbg !5682
	br label %L..inline.64292
L..inline.64292:
	%105 = load i32, i32* %..inline.addr.7, align 4, !tbaa !5800, !dbg !5682
	%106 = icmp sge i32  %105, 0, !dbg !5682
	br i1  %106, label %L..inline.64294, label %L.B1131, !dbg !5682
L.B1131:
	%107 = load i32, i32* %..inline.addr.8, align 4, !tbaa !5800, !dbg !5682
	%108 = sub i32  %107, 1, !dbg !5682
	store i32  %108, i32* %..inline.addr.8, align 4, !tbaa !5800, !dbg !5682
	%109 = bitcast [3 x i32]* %..inline.addr.9 to i8*, !dbg !5682
	%110 = getelementptr i8, i8*  %109, i64 8, !dbg !5682
	%111 = bitcast i8*  %110 to i32*, !dbg !5682
	store i32 1, i32*  %111, align 4, !tbaa !5798, !dbg !5682
	br label %L..inline.64294
L..inline.64294:
	%112 = load i32, i32* %..inline.addr.7, align 4, !tbaa !5800, !dbg !5682
	%113 = load %struct._Z6FsGridIN7fsgrids9technicalELi2EE*, %struct._Z6FsGridIN7fsgrids9technicalELi2EE** %..inline.addr.4, align 8, !tbaa !5797, !dbg !5682
	%114 = bitcast %struct._Z6FsGridIN7fsgrids9technicalELi2EE*  %113 to i8*, !dbg !5682
	%115 = getelementptr i8, i8*  %114, i64 272, !dbg !5682
	%116 = bitcast i8*  %115 to i32*, !dbg !5682
	%117 = load i32, i32*  %116, align 4, !tbaa !5798, !dbg !5682
	%118 = icmp slt i32  %112,  %117, !dbg !5682
	br i1  %118, label %L..inline.64311, label %L.B1132, !dbg !5682
L.B1132:
	%119 = load i32, i32* %..inline.addr.8, align 4, !tbaa !5800, !dbg !5682
	%120 = add i32  %119, 1, !dbg !5682
	store i32  %120, i32* %..inline.addr.8, align 4, !tbaa !5800, !dbg !5682
	%121 = bitcast [3 x i32]* %..inline.addr.9 to i8*, !dbg !5682
	%122 = getelementptr i8, i8*  %121, i64 8, !dbg !5682
	%123 = bitcast i8*  %122 to i32*, !dbg !5682
	store i32 -1, i32*  %123, align 4, !tbaa !5798, !dbg !5682
	br label %L..inline.64311
L..inline.64311:
	%124 = load i32, i32* %..inline.addr.8, align 4, !tbaa !5800, !dbg !5682
	%125 = icmp eq i32  %124, 13, !dbg !5682
	br i1  %125, label %L..inline.64312, label %L.B1133, !dbg !5682
L.B1133:
	%126 = sext i32  %124 to i64, !dbg !5682
	%127 = load %struct._Z6FsGridIN7fsgrids9technicalELi2EE*, %struct._Z6FsGridIN7fsgrids9technicalELi2EE** %..inline.addr.4, align 8, !tbaa !5797, !dbg !5682
	%128 = bitcast %struct._Z6FsGridIN7fsgrids9technicalELi2EE*  %127 to i8*, !dbg !5682
	%129 = getelementptr i8, i8*  %128, i64 92, !dbg !5682
	%130 = bitcast i8*  %129 to i32*, !dbg !5682
	%131 = getelementptr i32, i32*  %130, i64  %126, !dbg !5682
	%132 = load i32, i32*  %131, align 4, !tbaa !5798, !dbg !5682
	%133 = icmp ne i32  %132, -2, !dbg !5682
	br i1  %133, label %L..inline.64329, label %L.B1134, !dbg !5682
L.B1134:
	%134 = bitcast %struct._ZN7fsgrids9technicalE** %..inline.addr.570 to i8**, !dbg !5682
	store i8* null, i8**  %134, align 8, !tbaa !5797, !dbg !5682
	br label %L..inline.64516, !dbg !5682
L..inline.64329:
	%135 = load i32, i32* %..inline.addr.8, align 4, !tbaa !5800, !dbg !5682
	%136 = sext i32  %135 to i64, !dbg !5682
	%137 = load %struct._Z6FsGridIN7fsgrids9technicalELi2EE*, %struct._Z6FsGridIN7fsgrids9technicalELi2EE** %..inline.addr.4, align 8, !tbaa !5797, !dbg !5682
	%138 = bitcast %struct._Z6FsGridIN7fsgrids9technicalELi2EE*  %137 to i8*, !dbg !5682
	%139 = getelementptr i8, i8*  %138, i64 92, !dbg !5682
	%140 = bitcast i8*  %139 to i32*, !dbg !5682
	%141 = getelementptr i32, i32*  %140, i64  %136, !dbg !5682
	%142 = load i32, i32*  %141, align 4, !tbaa !5798, !dbg !5682
	%143 = getelementptr i8, i8*  %138, i64 56, !dbg !5682
	%144 = bitcast i8*  %143 to i32*, !dbg !5682
	%145 = load i32, i32*  %144, align 4, !tbaa !5798, !dbg !5682
	%146 = icmp ne i32  %142,  %145, !dbg !5682
	br i1  %146, label %L..inline.64347, label %L.B1135, !dbg !5682
L.B1135:
	%147 = load i32, i32* %..inline.addr.5, align 4, !tbaa !5800, !dbg !5682
	%148 = bitcast [3 x i32]* %..inline.addr.9 to i32*, !dbg !5682
	%149 = load i32, i32*  %148, align 4, !tbaa !5798, !dbg !5682
	%150 = bitcast %struct._Z6FsGridIN7fsgrids9technicalELi2EE*  %137 to i8*, !dbg !5682
	%151 = getelementptr i8, i8*  %150, i64 264, !dbg !5682
	%152 = bitcast i8*  %151 to i32*, !dbg !5682
	%153 = load i32, i32*  %152, align 4, !tbaa !5798, !dbg !5682
	%154 = mul i32  %149,  %153, !dbg !5682
	%155 = add i32  %147,  %154, !dbg !5682
	store i32  %155, i32* %..inline.addr.5, align 4, !tbaa !5800, !dbg !5682
	%156 = load i32, i32* %..inline.addr.6, align 4, !tbaa !5800, !dbg !5682
	%157 = bitcast [3 x i32]* %..inline.addr.9 to i8*, !dbg !5682
	%158 = getelementptr i8, i8*  %157, i64 4, !dbg !5682
	%159 = bitcast i8*  %158 to i32*, !dbg !5682
	%160 = load i32, i32*  %159, align 4, !tbaa !5798, !dbg !5682
	%161 = getelementptr i8, i8*  %150, i64 268, !dbg !5682
	%162 = bitcast i8*  %161 to i32*, !dbg !5682
	%163 = load i32, i32*  %162, align 4, !tbaa !5798, !dbg !5682
	%164 = mul i32  %160,  %163, !dbg !5682
	%165 = add i32  %156,  %164, !dbg !5682
	store i32  %165, i32* %..inline.addr.6, align 4, !tbaa !5800, !dbg !5682
	%166 = load i32, i32* %..inline.addr.7, align 4, !tbaa !5800, !dbg !5682
	%167 = getelementptr i8, i8*  %157, i64 8, !dbg !5682
	%168 = bitcast i8*  %167 to i32*, !dbg !5682
	%169 = load i32, i32*  %168, align 4, !tbaa !5798, !dbg !5682
	%170 = getelementptr i8, i8*  %150, i64 272, !dbg !5682
	%171 = bitcast i8*  %170 to i32*, !dbg !5682
	%172 = load i32, i32*  %171, align 4, !tbaa !5798, !dbg !5682
	%173 = mul i32  %169,  %172, !dbg !5682
	%174 = add i32  %166,  %173, !dbg !5682
	store i32  %174, i32* %..inline.addr.7, align 4, !tbaa !5800, !dbg !5682
	br label %L..inline.64347
L..inline.64347:
	br label %L..inline.64312
L..inline.64312:
	store i64 0, i64* %..inline.addr.580, align 8, !tbaa !5802, !dbg !5682
	%175 = load %struct._Z6FsGridIN7fsgrids9technicalELi2EE*, %struct._Z6FsGridIN7fsgrids9technicalELi2EE** %..inline.addr.4, align 8, !tbaa !5797, !dbg !5682
	%176 = bitcast %struct._Z6FsGridIN7fsgrids9technicalELi2EE*  %175 to i8*, !dbg !5682
	%177 = getelementptr i8, i8*  %176, i64 260, !dbg !5682
	%178 = bitcast i8*  %177 to i32*, !dbg !5682
	%179 = load i32, i32*  %178, align 4, !tbaa !5798, !dbg !5682
	%180 = icmp sle i32  %179, 1, !dbg !5682
	br i1  %180, label %L..inline.64421, label %L.B1136, !dbg !5682
L.B1136:
	%181 = load i32, i32* %..inline.addr.7, align 4, !tbaa !5800, !dbg !5682
	%182 = add i32  %181, 2, !dbg !5682
	%183 = bitcast %struct._Z6FsGridIN7fsgrids9technicalELi2EE*  %175 to i8*, !dbg !5682
	%184 = getelementptr i8, i8*  %183, i64 280, !dbg !5682
	%185 = bitcast i8*  %184 to i32*, !dbg !5682
	%186 = load i32, i32*  %185, align 4, !tbaa !5798, !dbg !5682
	%187 = getelementptr i8, i8*  %183, i64 276, !dbg !5682
	%188 = bitcast i8*  %187 to i32*, !dbg !5682
	%189 = load i32, i32*  %188, align 4, !tbaa !5798, !dbg !5682
	%190 = mul i32  %186,  %189, !dbg !5682
	%191 = mul i32  %182,  %190, !dbg !5682
	%192 = sext i32  %191 to i64, !dbg !5682
	store i64  %192, i64* %..inline.addr.580, align 8, !tbaa !5802, !dbg !5682
	br label %L..inline.64421
L..inline.64421:
	%193 = load %struct._Z6FsGridIN7fsgrids9technicalELi2EE*, %struct._Z6FsGridIN7fsgrids9technicalELi2EE** %..inline.addr.4, align 8, !tbaa !5797, !dbg !5682
	%194 = bitcast %struct._Z6FsGridIN7fsgrids9technicalELi2EE*  %193 to i8*, !dbg !5682
	%195 = getelementptr i8, i8*  %194, i64 256, !dbg !5682
	%196 = bitcast i8*  %195 to i32*, !dbg !5682
	%197 = load i32, i32*  %196, align 4, !tbaa !5798, !dbg !5682
	%198 = icmp sle i32  %197, 1, !dbg !5682
	br i1  %198, label %L..inline.64470, label %L.B1137, !dbg !5682
L.B1137:
	%199 = load i64, i64* %..inline.addr.580, align 8, !tbaa !5802, !dbg !5682
	%200 = bitcast %struct._Z6FsGridIN7fsgrids9technicalELi2EE*  %193 to i8*, !dbg !5682
	%201 = getelementptr i8, i8*  %200, i64 276, !dbg !5682
	%202 = bitcast i8*  %201 to i32*, !dbg !5682
	%203 = load i32, i32*  %202, align 4, !tbaa !5798, !dbg !5682
	%204 = load i32, i32* %..inline.addr.6, align 4, !tbaa !5800, !dbg !5682
	%205 = add i32  %204, 2, !dbg !5682
	%206 = mul i32  %203,  %205, !dbg !5682
	%207 = sext i32  %206 to i64, !dbg !5682
	%208 = add i64  %199,  %207, !dbg !5682
	store i64  %208, i64* %..inline.addr.580, align 8, !tbaa !5802, !dbg !5682
	br label %L..inline.64470
L..inline.64470:
	%209 = load %struct._Z6FsGridIN7fsgrids9technicalELi2EE*, %struct._Z6FsGridIN7fsgrids9technicalELi2EE** %..inline.addr.4, align 8, !tbaa !5797, !dbg !5682
	%210 = bitcast %struct._Z6FsGridIN7fsgrids9technicalELi2EE*  %209 to i8*, !dbg !5682
	%211 = getelementptr i8, i8*  %210, i64 252, !dbg !5682
	%212 = bitcast i8*  %211 to i32*, !dbg !5682
	%213 = load i32, i32*  %212, align 4, !tbaa !5798, !dbg !5682
	%214 = icmp sle i32  %213, 1, !dbg !5682
	%215 = zext i1  %214 to i32, !dbg !5682
	%216 = trunc i32  %215 to i1, !dbg !5682
	%217 = load i64, i64* %..inline.addr.580, align 8, !tbaa !5802, !dbg !5682
	%218 = load i32, i32* %..inline.addr.5, align 4, !tbaa !5800, !dbg !5682
	%219 = sext i32  %218 to i64, !dbg !5682
	%220 = add i64  %219, 2, !dbg !5682
	%221 = add i64  %217,  %220, !dbg !5682
	%222 = select i1  %216, i64  %217, i64  %221, !dbg !5682
	%223 = getelementptr i8, i8*  %210, i64 744, !dbg !5682
	%224 = bitcast i8*  %223 to i8**, !dbg !5682
	%225 = load i8*, i8**  %224, align 8, !tbaa !5797, !dbg !5682
	%226 = mul i64  %222, 32, !dbg !5682
	%227 = getelementptr i8, i8*  %225, i64  %226, !dbg !5682
	%228 = bitcast %struct._ZN7fsgrids9technicalE** %..inline.addr.570 to i8**, !dbg !5682
	store i8*  %227, i8**  %228, align 8, !tbaa !5797, !dbg !5682
	br label %L..inline.64516
L..inline.64516:
	%229 = load %struct._ZN7fsgrids9technicalE*, %struct._ZN7fsgrids9technicalE** %..inline.addr.570, align 8, !tbaa !5797, !dbg !5682
	%230 = bitcast %struct._ZN7fsgrids9technicalE*  %229 to i8*, !dbg !5682
	%231 = getelementptr i8, i8*  %230, i64 8, !dbg !5682
	%232 = bitcast i8*  %231 to double*, !dbg !5682
	store double  1.79769313486231571E+308, double*  %232, align 8, !tbaa !5798, !dbg !5682
	%233 = load i64, i64* %.ndk0010.addr, align 8, !tbaa !5804, !dbg !5682
	%234 = add i64  %233, 1, !dbg !5682
	store i64  %234, i64* %.ndk0010.addr, align 8, !tbaa !5804, !dbg !5682
	%235 = load i64, i64* %.lcr053075.addr, align 8, !tbaa !5804, !dbg !5682
	%236 = icmp slt i64  %234,  %235, !dbg !5682
	br i1  %236, label %L.B1114, label %L.B1115, !dbg !5682
L.B1115:
	%237 = load i64, i64* %.ndk0008.addr, align 8, !tbaa !5804, !dbg !5682
	%238 = add i64  %237, 1, !dbg !5682
	store i64  %238, i64* %.ndk0008.addr, align 8, !tbaa !5804, !dbg !5682
	%239 = load i64, i64* %.lcr053074.addr, align 8, !tbaa !5804, !dbg !5682
	%240 = icmp slt i64  %238,  %239, !dbg !5682
	br i1  %240, label %L.B1112, label %L.B1113, !dbg !5682
L.B1113:
	%241 = load i64, i64* %.ndk0006.addr, align 8, !tbaa !5804, !dbg !5682
	%242 = add i64  %241, 1, !dbg !5682
	store i64  %242, i64* %.ndk0006.addr, align 8, !tbaa !5804, !dbg !5682
	%243 = load i64, i64* %.lcr053073.addr, align 8, !tbaa !5804, !dbg !5682
	%244 = icmp slt i64  %242,  %243, !dbg !5682
	br i1  %244, label %L.B1110, label %L.B1111, !dbg !5682
L.B1111:
	%245 = load i32, i32* %subcycles.addr, align 4, !tbaa !5800, !dbg !5685
	%246 = icmp ne i32  %245, 1, !dbg !5685
	br i1  %246, label %L.B0017, label %L.B1138, !dbg !5685
L.B1138:
	store i32 1, i32* %_T32381128_51664.addr, align 4, !tbaa !5800, !dbg !5686
	%247 = load %struct._Z6FsGridISt5arrayIdLm3EELi2EE*, %struct._Z6FsGridISt5arrayIdLm3EELi2EE** %perBGrid.addr, align 8, !tbaa !5797, !dbg !5686
	%248 = load %struct._Z6FsGridISt5arrayIdLm3EELi2EE*, %struct._Z6FsGridISt5arrayIdLm3EELi2EE** %perBDt2Grid.addr, align 8, !tbaa !5797, !dbg !5686
	%249 = load %struct._Z6FsGridISt5arrayIdLm3EELi2EE*, %struct._Z6FsGridISt5arrayIdLm3EELi2EE** %EGrid.addr, align 8, !tbaa !5797, !dbg !5686
	%250 = load %struct._Z6FsGridISt5arrayIdLm3EELi2EE*, %struct._Z6FsGridISt5arrayIdLm3EELi2EE** %EDt2Grid.addr, align 8, !tbaa !5797, !dbg !5686
	%251 = load %struct._Z6FsGridIN7fsgrids9technicalELi2EE*, %struct._Z6FsGridIN7fsgrids9technicalELi2EE** %technicalGrid.addr, align 8, !tbaa !5797, !dbg !5686
	%252 = load %struct.SysBoundary*, %struct.SysBoundary** %sysBoundaries.addr, align 8, !tbaa !5797, !dbg !5686
	%253 = load double*, double** %dt.addr, align 8, !tbaa !5797, !dbg !5686
	call void  @_Z28propagateMagneticFieldSimpleR6FsGridISt5arrayIdLm3EELi2EES3_S3_S3_RS_IN7fsgrids9technicalELi2EER11SysBoundaryRKdRKi (%struct._Z6FsGridISt5arrayIdLm3EELi2EE*  %247, %struct._Z6FsGridISt5arrayIdLm3EELi2EE*  %248, %struct._Z6FsGridISt5arrayIdLm3EELi2EE*  %249, %struct._Z6FsGridISt5arrayIdLm3EELi2EE*  %250, %struct._Z6FsGridIN7fsgrids9technicalELi2EE*  %251, %struct.SysBoundary*  %252, double*  %253, i32* %_T32381128_51664.addr), !dbg !5686
	store i32 1, i32* %_T32381128_51664.addr, align 4, !tbaa !5800, !dbg !5687
	%254 = load %struct._Z6FsGridISt5arrayIdLm3EELi2EE*, %struct._Z6FsGridISt5arrayIdLm3EELi2EE** %perBGrid.addr, align 8, !tbaa !5797, !dbg !5687
	%255 = load %struct._Z6FsGridISt5arrayIdLm3EELi2EE*, %struct._Z6FsGridISt5arrayIdLm3EELi2EE** %perBDt2Grid.addr, align 8, !tbaa !5797, !dbg !5687
	%256 = load %struct._Z6FsGridISt5arrayIdLm8EELi2EE*, %struct._Z6FsGridISt5arrayIdLm8EELi2EE** %momentsGrid.addr, align 8, !tbaa !5797, !dbg !5687
	%257 = load %struct._Z6FsGridISt5arrayIdLm8EELi2EE*, %struct._Z6FsGridISt5arrayIdLm8EELi2EE** %momentsDt2Grid.addr, align 8, !tbaa !5797, !dbg !5687
	%258 = load %struct._Z6FsGridISt5arrayIdLm15EELi2EE*, %struct._Z6FsGridISt5arrayIdLm15EELi2EE** %dPerBGrid.addr, align 8, !tbaa !5797, !dbg !5687
	%259 = load %struct._Z6FsGridISt5arrayIdLm24EELi2EE*, %struct._Z6FsGridISt5arrayIdLm24EELi2EE** %dMomentsGrid.addr, align 8, !tbaa !5797, !dbg !5687
	%260 = load %struct._Z6FsGridIN7fsgrids9technicalELi2EE*, %struct._Z6FsGridIN7fsgrids9technicalELi2EE** %technicalGrid.addr, align 8, !tbaa !5797, !dbg !5687
	%261 = load %struct.SysBoundary*, %struct.SysBoundary** %sysBoundaries.addr, align 8, !tbaa !5797, !dbg !5687
	call void  @_Z26calculateDerivativesSimpleR6FsGridISt5arrayIdLm3EELi2EES3_RS_IS0_IdLm8EELi2EES6_RS_IS0_IdLm15EELi2EERS_IS0_IdLm24EELi2EERS_IN7fsgrids9technicalELi2EER11SysBoundaryRKib (%struct._Z6FsGridISt5arrayIdLm3EELi2EE*  %254, %struct._Z6FsGridISt5arrayIdLm3EELi2EE*  %255, %struct._Z6FsGridISt5arrayIdLm8EELi2EE*  %256, %struct._Z6FsGridISt5arrayIdLm8EELi2EE*  %257, %struct._Z6FsGridISt5arrayIdLm15EELi2EE*  %258, %struct._Z6FsGridISt5arrayIdLm24EELi2EE*  %259, %struct._Z6FsGridIN7fsgrids9technicalELi2EE*  %260, %struct.SysBoundary*  %261, i32* %_T32381128_51664.addr, i8 1), !dbg !5687
	%262 = load i32, i32* @_ZN10Parameters13ohmGradPeTermE, align 4, !tbaa !5800, !dbg !5688
	%263 = icmp eq i32  %262, 0, !dbg !5688
	br i1  %263, label %L.B0019, label %L.B1139, !dbg !5688
L.B1139:
	store i32 1, i32* %_T32381424_51664.addr, align 4, !tbaa !5800, !dbg !5691
	%264 = load %struct._Z6FsGridISt5arrayIdLm3EELi2EE*, %struct._Z6FsGridISt5arrayIdLm3EELi2EE** %EGradPeGrid.addr, align 8, !tbaa !5797, !dbg !5691
	%265 = load %struct._Z6FsGridISt5arrayIdLm8EELi2EE*, %struct._Z6FsGridISt5arrayIdLm8EELi2EE** %momentsGrid.addr, align 8, !tbaa !5797, !dbg !5691
	%266 = load %struct._Z6FsGridISt5arrayIdLm8EELi2EE*, %struct._Z6FsGridISt5arrayIdLm8EELi2EE** %momentsDt2Grid.addr, align 8, !tbaa !5797, !dbg !5691
	%267 = load %struct._Z6FsGridISt5arrayIdLm24EELi2EE*, %struct._Z6FsGridISt5arrayIdLm24EELi2EE** %dMomentsGrid.addr, align 8, !tbaa !5797, !dbg !5691
	%268 = load %struct._Z6FsGridIN7fsgrids9technicalELi2EE*, %struct._Z6FsGridIN7fsgrids9technicalELi2EE** %technicalGrid.addr, align 8, !tbaa !5797, !dbg !5691
	%269 = load %struct.SysBoundary*, %struct.SysBoundary** %sysBoundaries.addr, align 8, !tbaa !5797, !dbg !5691
	call void  @_Z25calculateGradPeTermSimpleR6FsGridISt5arrayIdLm3EELi2EERS_IS0_IdLm8EELi2EES6_RS_IS0_IdLm24EELi2EERS_IN7fsgrids9technicalELi2EER11SysBoundaryRKi (%struct._Z6FsGridISt5arrayIdLm3EELi2EE*  %264, %struct._Z6FsGridISt5arrayIdLm8EELi2EE*  %265, %struct._Z6FsGridISt5arrayIdLm8EELi2EE*  %266, %struct._Z6FsGridISt5arrayIdLm24EELi2EE*  %267, %struct._Z6FsGridIN7fsgrids9technicalELi2EE*  %268, %struct.SysBoundary*  %269, i32* %_T32381424_51664.addr), !dbg !5691
	store i32 0, i32* %hallTermCommunicateDerivatives.addr, align 4, !tbaa !5800, !dbg !5692
	br label %L.B0019
L.B0019:
	%270 = load i32, i32* @_ZN10Parameters11ohmHallTermE, align 4, !tbaa !5800, !dbg !5693
	%271 = icmp eq i32  %270, 0, !dbg !5693
	br i1  %271, label %L.B0022, label %L.B1140, !dbg !5693
L.B1140:
	store i32 1, i32* %_T32381720_51664.addr, align 4, !tbaa !5800, !dbg !5696
	%272 = load %struct._Z6FsGridISt5arrayIdLm3EELi2EE*, %struct._Z6FsGridISt5arrayIdLm3EELi2EE** %perBGrid.addr, align 8, !tbaa !5797, !dbg !5696
	%273 = load %struct._Z6FsGridISt5arrayIdLm3EELi2EE*, %struct._Z6FsGridISt5arrayIdLm3EELi2EE** %perBDt2Grid.addr, align 8, !tbaa !5797, !dbg !5696
	%274 = load %struct._Z6FsGridISt5arrayIdLm12EELi2EE*, %struct._Z6FsGridISt5arrayIdLm12EELi2EE** %EHallGrid.addr, align 8, !tbaa !5797, !dbg !5696
	%275 = load %struct._Z6FsGridISt5arrayIdLm8EELi2EE*, %struct._Z6FsGridISt5arrayIdLm8EELi2EE** %momentsGrid.addr, align 8, !tbaa !5797, !dbg !5696
	%276 = load %struct._Z6FsGridISt5arrayIdLm8EELi2EE*, %struct._Z6FsGridISt5arrayIdLm8EELi2EE** %momentsDt2Grid.addr, align 8, !tbaa !5797, !dbg !5696
	%277 = load %struct._Z6FsGridISt5arrayIdLm15EELi2EE*, %struct._Z6FsGridISt5arrayIdLm15EELi2EE** %dPerBGrid.addr, align 8, !tbaa !5797, !dbg !5696
	%278 = load %struct._Z6FsGridISt5arrayIdLm24EELi2EE*, %struct._Z6FsGridISt5arrayIdLm24EELi2EE** %dMomentsGrid.addr, align 8, !tbaa !5797, !dbg !5696
	%279 = load %struct._Z6FsGridISt5arrayIdLm18EELi2EE*, %struct._Z6FsGridISt5arrayIdLm18EELi2EE** %BgBGrid.addr, align 8, !tbaa !5797, !dbg !5696
	%280 = load %struct._Z6FsGridIN7fsgrids9technicalELi2EE*, %struct._Z6FsGridIN7fsgrids9technicalELi2EE** %technicalGrid.addr, align 8, !tbaa !5797, !dbg !5696
	%281 = load %struct.SysBoundary*, %struct.SysBoundary** %sysBoundaries.addr, align 8, !tbaa !5797, !dbg !5696
	%282 = load i32, i32* %hallTermCommunicateDerivatives.addr, align 4, !tbaa !5800, !dbg !5696
	%283 = trunc i32  %282 to i8, !dbg !5696
	call void  @_Z23calculateHallTermSimpleR6FsGridISt5arrayIdLm3EELi2EES3_RS_IS0_IdLm12EELi2EERS_IS0_IdLm8EELi2EES9_RS_IS0_IdLm15EELi2EERS_IS0_IdLm24EELi2EERS_IS0_IdLm18EELi2EERS_IN7fsgrids9technicalELi2EER11SysBoundaryRKib (%struct._Z6FsGridISt5arrayIdLm3EELi2EE*  %272, %struct._Z6FsGridISt5arrayIdLm3EELi2EE*  %273, %struct._Z6FsGridISt5arrayIdLm12EELi2EE*  %274, %struct._Z6FsGridISt5arrayIdLm8EELi2EE*  %275, %struct._Z6FsGridISt5arrayIdLm8EELi2EE*  %276, %struct._Z6FsGridISt5arrayIdLm15EELi2EE*  %277, %struct._Z6FsGridISt5arrayIdLm24EELi2EE*  %278, %struct._Z6FsGridISt5arrayIdLm18EELi2EE*  %279, %struct._Z6FsGridIN7fsgrids9technicalELi2EE*  %280, %struct.SysBoundary*  %281, i32* %_T32381720_51664.addr, i8  %283), !dbg !5696
	br label %L.B0022
L.B0022:
	store i32 1, i32* %_T32381128_51664.addr, align 4, !tbaa !5800, !dbg !5697
	%284 = load %struct._Z6FsGridISt5arrayIdLm3EELi2EE*, %struct._Z6FsGridISt5arrayIdLm3EELi2EE** %perBGrid.addr, align 8, !tbaa !5797, !dbg !5697
	%285 = load %struct._Z6FsGridISt5arrayIdLm3EELi2EE*, %struct._Z6FsGridISt5arrayIdLm3EELi2EE** %perBDt2Grid.addr, align 8, !tbaa !5797, !dbg !5697
	%286 = load %struct._Z6FsGridISt5arrayIdLm3EELi2EE*, %struct._Z6FsGridISt5arrayIdLm3EELi2EE** %EGrid.addr, align 8, !tbaa !5797, !dbg !5697
	%287 = load %struct._Z6FsGridISt5arrayIdLm3EELi2EE*, %struct._Z6FsGridISt5arrayIdLm3EELi2EE** %EDt2Grid.addr, align 8, !tbaa !5797, !dbg !5697
	%288 = load %struct._Z6FsGridISt5arrayIdLm12EELi2EE*, %struct._Z6FsGridISt5arrayIdLm12EELi2EE** %EHallGrid.addr, align 8, !tbaa !5797, !dbg !5697
	%289 = load %struct._Z6FsGridISt5arrayIdLm3EELi2EE*, %struct._Z6FsGridISt5arrayIdLm3EELi2EE** %EGradPeGrid.addr, align 8, !tbaa !5797, !dbg !5697
	%290 = load %struct._Z6FsGridISt5arrayIdLm8EELi2EE*, %struct._Z6FsGridISt5arrayIdLm8EELi2EE** %momentsGrid.addr, align 8, !tbaa !5797, !dbg !5697
	%291 = load %struct._Z6FsGridISt5arrayIdLm8EELi2EE*, %struct._Z6FsGridISt5arrayIdLm8EELi2EE** %momentsDt2Grid.addr, align 8, !tbaa !5797, !dbg !5697
	%292 = load %struct._Z6FsGridISt5arrayIdLm15EELi2EE*, %struct._Z6FsGridISt5arrayIdLm15EELi2EE** %dPerBGrid.addr, align 8, !tbaa !5797, !dbg !5697
	%293 = load %struct._Z6FsGridISt5arrayIdLm24EELi2EE*, %struct._Z6FsGridISt5arrayIdLm24EELi2EE** %dMomentsGrid.addr, align 8, !tbaa !5797, !dbg !5697
	%294 = load %struct._Z6FsGridISt5arrayIdLm18EELi2EE*, %struct._Z6FsGridISt5arrayIdLm18EELi2EE** %BgBGrid.addr, align 8, !tbaa !5797, !dbg !5697
	%295 = load %struct._Z6FsGridIN7fsgrids9technicalELi2EE*, %struct._Z6FsGridIN7fsgrids9technicalELi2EE** %technicalGrid.addr, align 8, !tbaa !5797, !dbg !5697
	%296 = load %struct.SysBoundary*, %struct.SysBoundary** %sysBoundaries.addr, align 8, !tbaa !5797, !dbg !5697
	call void  @_Z36calculateUpwindedElectricFieldSimpleR6FsGridISt5arrayIdLm3EELi2EES3_S3_S3_RS_IS0_IdLm12EELi2EES3_RS_IS0_IdLm8EELi2EES9_RS_IS0_IdLm15EELi2EERS_IS0_IdLm24EELi2EERS_IS0_IdLm18EELi2EERS_IN7fsgrids9technicalELi2EER11SysBoundaryRKi (%struct._Z6FsGridISt5arrayIdLm3EELi2EE*  %284, %struct._Z6FsGridISt5arrayIdLm3EELi2EE*  %285, %struct._Z6FsGridISt5arrayIdLm3EELi2EE*  %286, %struct._Z6FsGridISt5arrayIdLm3EELi2EE*  %287, %struct._Z6FsGridISt5arrayIdLm12EELi2EE*  %288, %struct._Z6FsGridISt5arrayIdLm3EELi2EE*  %289, %struct._Z6FsGridISt5arrayIdLm8EELi2EE*  %290, %struct._Z6FsGridISt5arrayIdLm8EELi2EE*  %291, %struct._Z6FsGridISt5arrayIdLm15EELi2EE*  %292, %struct._Z6FsGridISt5arrayIdLm24EELi2EE*  %293, %struct._Z6FsGridISt5arrayIdLm18EELi2EE*  %294, %struct._Z6FsGridIN7fsgrids9technicalELi2EE*  %295, %struct.SysBoundary*  %296, i32* %_T32381128_51664.addr), !dbg !5697
	store i32 2, i32* %_T32381128_51664.addr, align 4, !tbaa !5800, !dbg !5698
	%297 = load %struct._Z6FsGridISt5arrayIdLm3EELi2EE*, %struct._Z6FsGridISt5arrayIdLm3EELi2EE** %perBGrid.addr, align 8, !tbaa !5797, !dbg !5698
	%298 = load %struct._Z6FsGridISt5arrayIdLm3EELi2EE*, %struct._Z6FsGridISt5arrayIdLm3EELi2EE** %perBDt2Grid.addr, align 8, !tbaa !5797, !dbg !5698
	%299 = load %struct._Z6FsGridISt5arrayIdLm3EELi2EE*, %struct._Z6FsGridISt5arrayIdLm3EELi2EE** %EGrid.addr, align 8, !tbaa !5797, !dbg !5698
	%300 = load %struct._Z6FsGridISt5arrayIdLm3EELi2EE*, %struct._Z6FsGridISt5arrayIdLm3EELi2EE** %EDt2Grid.addr, align 8, !tbaa !5797, !dbg !5698
	%301 = load %struct._Z6FsGridIN7fsgrids9technicalELi2EE*, %struct._Z6FsGridIN7fsgrids9technicalELi2EE** %technicalGrid.addr, align 8, !tbaa !5797, !dbg !5698
	%302 = load %struct.SysBoundary*, %struct.SysBoundary** %sysBoundaries.addr, align 8, !tbaa !5797, !dbg !5698
	%303 = load double*, double** %dt.addr, align 8, !tbaa !5797, !dbg !5698
	call void  @_Z28propagateMagneticFieldSimpleR6FsGridISt5arrayIdLm3EELi2EES3_S3_S3_RS_IN7fsgrids9technicalELi2EER11SysBoundaryRKdRKi (%struct._Z6FsGridISt5arrayIdLm3EELi2EE*  %297, %struct._Z6FsGridISt5arrayIdLm3EELi2EE*  %298, %struct._Z6FsGridISt5arrayIdLm3EELi2EE*  %299, %struct._Z6FsGridISt5arrayIdLm3EELi2EE*  %300, %struct._Z6FsGridIN7fsgrids9technicalELi2EE*  %301, %struct.SysBoundary*  %302, double*  %303, i32* %_T32381128_51664.addr), !dbg !5698
	store i32 2, i32* %_T32381128_51664.addr, align 4, !tbaa !5800, !dbg !5699
	%304 = load %struct._Z6FsGridISt5arrayIdLm3EELi2EE*, %struct._Z6FsGridISt5arrayIdLm3EELi2EE** %perBGrid.addr, align 8, !tbaa !5797, !dbg !5699
	%305 = load %struct._Z6FsGridISt5arrayIdLm3EELi2EE*, %struct._Z6FsGridISt5arrayIdLm3EELi2EE** %perBDt2Grid.addr, align 8, !tbaa !5797, !dbg !5699
	%306 = load %struct._Z6FsGridISt5arrayIdLm8EELi2EE*, %struct._Z6FsGridISt5arrayIdLm8EELi2EE** %momentsGrid.addr, align 8, !tbaa !5797, !dbg !5699
	%307 = load %struct._Z6FsGridISt5arrayIdLm8EELi2EE*, %struct._Z6FsGridISt5arrayIdLm8EELi2EE** %momentsDt2Grid.addr, align 8, !tbaa !5797, !dbg !5699
	%308 = load %struct._Z6FsGridISt5arrayIdLm15EELi2EE*, %struct._Z6FsGridISt5arrayIdLm15EELi2EE** %dPerBGrid.addr, align 8, !tbaa !5797, !dbg !5699
	%309 = load %struct._Z6FsGridISt5arrayIdLm24EELi2EE*, %struct._Z6FsGridISt5arrayIdLm24EELi2EE** %dMomentsGrid.addr, align 8, !tbaa !5797, !dbg !5699
	%310 = load %struct._Z6FsGridIN7fsgrids9technicalELi2EE*, %struct._Z6FsGridIN7fsgrids9technicalELi2EE** %technicalGrid.addr, align 8, !tbaa !5797, !dbg !5699
	%311 = load %struct.SysBoundary*, %struct.SysBoundary** %sysBoundaries.addr, align 8, !tbaa !5797, !dbg !5699
	call void  @_Z26calculateDerivativesSimpleR6FsGridISt5arrayIdLm3EELi2EES3_RS_IS0_IdLm8EELi2EES6_RS_IS0_IdLm15EELi2EERS_IS0_IdLm24EELi2EERS_IN7fsgrids9technicalELi2EER11SysBoundaryRKib (%struct._Z6FsGridISt5arrayIdLm3EELi2EE*  %304, %struct._Z6FsGridISt5arrayIdLm3EELi2EE*  %305, %struct._Z6FsGridISt5arrayIdLm8EELi2EE*  %306, %struct._Z6FsGridISt5arrayIdLm8EELi2EE*  %307, %struct._Z6FsGridISt5arrayIdLm15EELi2EE*  %308, %struct._Z6FsGridISt5arrayIdLm24EELi2EE*  %309, %struct._Z6FsGridIN7fsgrids9technicalELi2EE*  %310, %struct.SysBoundary*  %311, i32* %_T32381128_51664.addr, i8 1), !dbg !5699
	%312 = load i32, i32* @_ZN10Parameters13ohmGradPeTermE, align 4, !tbaa !5800, !dbg !5700
	%313 = icmp eq i32  %312, 0, !dbg !5700
	br i1  %313, label %L.B0025, label %L.B1141, !dbg !5700
L.B1141:
	store i32 2, i32* %_T32382016_51664.addr, align 4, !tbaa !5800, !dbg !5701
	%314 = load %struct._Z6FsGridISt5arrayIdLm3EELi2EE*, %struct._Z6FsGridISt5arrayIdLm3EELi2EE** %EGradPeGrid.addr, align 8, !tbaa !5797, !dbg !5701
	%315 = load %struct._Z6FsGridISt5arrayIdLm8EELi2EE*, %struct._Z6FsGridISt5arrayIdLm8EELi2EE** %momentsGrid.addr, align 8, !tbaa !5797, !dbg !5701
	%316 = load %struct._Z6FsGridISt5arrayIdLm8EELi2EE*, %struct._Z6FsGridISt5arrayIdLm8EELi2EE** %momentsDt2Grid.addr, align 8, !tbaa !5797, !dbg !5701
	%317 = load %struct._Z6FsGridISt5arrayIdLm24EELi2EE*, %struct._Z6FsGridISt5arrayIdLm24EELi2EE** %dMomentsGrid.addr, align 8, !tbaa !5797, !dbg !5701
	%318 = load %struct._Z6FsGridIN7fsgrids9technicalELi2EE*, %struct._Z6FsGridIN7fsgrids9technicalELi2EE** %technicalGrid.addr, align 8, !tbaa !5797, !dbg !5701
	%319 = load %struct.SysBoundary*, %struct.SysBoundary** %sysBoundaries.addr, align 8, !tbaa !5797, !dbg !5701
	call void  @_Z25calculateGradPeTermSimpleR6FsGridISt5arrayIdLm3EELi2EERS_IS0_IdLm8EELi2EES6_RS_IS0_IdLm24EELi2EERS_IN7fsgrids9technicalELi2EER11SysBoundaryRKi (%struct._Z6FsGridISt5arrayIdLm3EELi2EE*  %314, %struct._Z6FsGridISt5arrayIdLm8EELi2EE*  %315, %struct._Z6FsGridISt5arrayIdLm8EELi2EE*  %316, %struct._Z6FsGridISt5arrayIdLm24EELi2EE*  %317, %struct._Z6FsGridIN7fsgrids9technicalELi2EE*  %318, %struct.SysBoundary*  %319, i32* %_T32382016_51664.addr), !dbg !5701
	store i32 0, i32* %hallTermCommunicateDerivatives.addr, align 4, !tbaa !5800, !dbg !5702
	br label %L.B0025
L.B0025:
	%320 = load i32, i32* @_ZN10Parameters11ohmHallTermE, align 4, !tbaa !5800, !dbg !5703
	%321 = icmp eq i32  %320, 0, !dbg !5703
	br i1  %321, label %L.B0028, label %L.B1142, !dbg !5703
L.B1142:
	store i32 2, i32* %_T32382312_51664.addr, align 4, !tbaa !5800, !dbg !5704
	%322 = load %struct._Z6FsGridISt5arrayIdLm3EELi2EE*, %struct._Z6FsGridISt5arrayIdLm3EELi2EE** %perBGrid.addr, align 8, !tbaa !5797, !dbg !5704
	%323 = load %struct._Z6FsGridISt5arrayIdLm3EELi2EE*, %struct._Z6FsGridISt5arrayIdLm3EELi2EE** %perBDt2Grid.addr, align 8, !tbaa !5797, !dbg !5704
	%324 = load %struct._Z6FsGridISt5arrayIdLm12EELi2EE*, %struct._Z6FsGridISt5arrayIdLm12EELi2EE** %EHallGrid.addr, align 8, !tbaa !5797, !dbg !5704
	%325 = load %struct._Z6FsGridISt5arrayIdLm8EELi2EE*, %struct._Z6FsGridISt5arrayIdLm8EELi2EE** %momentsGrid.addr, align 8, !tbaa !5797, !dbg !5704
	%326 = load %struct._Z6FsGridISt5arrayIdLm8EELi2EE*, %struct._Z6FsGridISt5arrayIdLm8EELi2EE** %momentsDt2Grid.addr, align 8, !tbaa !5797, !dbg !5704
	%327 = load %struct._Z6FsGridISt5arrayIdLm15EELi2EE*, %struct._Z6FsGridISt5arrayIdLm15EELi2EE** %dPerBGrid.addr, align 8, !tbaa !5797, !dbg !5704
	%328 = load %struct._Z6FsGridISt5arrayIdLm24EELi2EE*, %struct._Z6FsGridISt5arrayIdLm24EELi2EE** %dMomentsGrid.addr, align 8, !tbaa !5797, !dbg !5704
	%329 = load %struct._Z6FsGridISt5arrayIdLm18EELi2EE*, %struct._Z6FsGridISt5arrayIdLm18EELi2EE** %BgBGrid.addr, align 8, !tbaa !5797, !dbg !5704
	%330 = load %struct._Z6FsGridIN7fsgrids9technicalELi2EE*, %struct._Z6FsGridIN7fsgrids9technicalELi2EE** %technicalGrid.addr, align 8, !tbaa !5797, !dbg !5704
	%331 = load %struct.SysBoundary*, %struct.SysBoundary** %sysBoundaries.addr, align 8, !tbaa !5797, !dbg !5704
	%332 = load i32, i32* %hallTermCommunicateDerivatives.addr, align 4, !tbaa !5800, !dbg !5704
	%333 = trunc i32  %332 to i8, !dbg !5704
	call void  @_Z23calculateHallTermSimpleR6FsGridISt5arrayIdLm3EELi2EES3_RS_IS0_IdLm12EELi2EERS_IS0_IdLm8EELi2EES9_RS_IS0_IdLm15EELi2EERS_IS0_IdLm24EELi2EERS_IS0_IdLm18EELi2EERS_IN7fsgrids9technicalELi2EER11SysBoundaryRKib (%struct._Z6FsGridISt5arrayIdLm3EELi2EE*  %322, %struct._Z6FsGridISt5arrayIdLm3EELi2EE*  %323, %struct._Z6FsGridISt5arrayIdLm12EELi2EE*  %324, %struct._Z6FsGridISt5arrayIdLm8EELi2EE*  %325, %struct._Z6FsGridISt5arrayIdLm8EELi2EE*  %326, %struct._Z6FsGridISt5arrayIdLm15EELi2EE*  %327, %struct._Z6FsGridISt5arrayIdLm24EELi2EE*  %328, %struct._Z6FsGridISt5arrayIdLm18EELi2EE*  %329, %struct._Z6FsGridIN7fsgrids9technicalELi2EE*  %330, %struct.SysBoundary*  %331, i32* %_T32382312_51664.addr, i8  %333), !dbg !5704
	br label %L.B0028
L.B0028:
	store i32 2, i32* %_T32381128_51664.addr, align 4, !tbaa !5800, !dbg !5705
	%334 = load %struct._Z6FsGridISt5arrayIdLm3EELi2EE*, %struct._Z6FsGridISt5arrayIdLm3EELi2EE** %perBGrid.addr, align 8, !tbaa !5797, !dbg !5705
	%335 = load %struct._Z6FsGridISt5arrayIdLm3EELi2EE*, %struct._Z6FsGridISt5arrayIdLm3EELi2EE** %perBDt2Grid.addr, align 8, !tbaa !5797, !dbg !5705
	%336 = load %struct._Z6FsGridISt5arrayIdLm3EELi2EE*, %struct._Z6FsGridISt5arrayIdLm3EELi2EE** %EGrid.addr, align 8, !tbaa !5797, !dbg !5705
	%337 = load %struct._Z6FsGridISt5arrayIdLm3EELi2EE*, %struct._Z6FsGridISt5arrayIdLm3EELi2EE** %EDt2Grid.addr, align 8, !tbaa !5797, !dbg !5705
	%338 = load %struct._Z6FsGridISt5arrayIdLm12EELi2EE*, %struct._Z6FsGridISt5arrayIdLm12EELi2EE** %EHallGrid.addr, align 8, !tbaa !5797, !dbg !5705
	%339 = load %struct._Z6FsGridISt5arrayIdLm3EELi2EE*, %struct._Z6FsGridISt5arrayIdLm3EELi2EE** %EGradPeGrid.addr, align 8, !tbaa !5797, !dbg !5705
	%340 = load %struct._Z6FsGridISt5arrayIdLm8EELi2EE*, %struct._Z6FsGridISt5arrayIdLm8EELi2EE** %momentsGrid.addr, align 8, !tbaa !5797, !dbg !5705
	%341 = load %struct._Z6FsGridISt5arrayIdLm8EELi2EE*, %struct._Z6FsGridISt5arrayIdLm8EELi2EE** %momentsDt2Grid.addr, align 8, !tbaa !5797, !dbg !5705
	%342 = load %struct._Z6FsGridISt5arrayIdLm15EELi2EE*, %struct._Z6FsGridISt5arrayIdLm15EELi2EE** %dPerBGrid.addr, align 8, !tbaa !5797, !dbg !5705
	%343 = load %struct._Z6FsGridISt5arrayIdLm24EELi2EE*, %struct._Z6FsGridISt5arrayIdLm24EELi2EE** %dMomentsGrid.addr, align 8, !tbaa !5797, !dbg !5705
	%344 = load %struct._Z6FsGridISt5arrayIdLm18EELi2EE*, %struct._Z6FsGridISt5arrayIdLm18EELi2EE** %BgBGrid.addr, align 8, !tbaa !5797, !dbg !5705
	%345 = load %struct._Z6FsGridIN7fsgrids9technicalELi2EE*, %struct._Z6FsGridIN7fsgrids9technicalELi2EE** %technicalGrid.addr, align 8, !tbaa !5797, !dbg !5705
	%346 = load %struct.SysBoundary*, %struct.SysBoundary** %sysBoundaries.addr, align 8, !tbaa !5797, !dbg !5705
	call void  @_Z36calculateUpwindedElectricFieldSimpleR6FsGridISt5arrayIdLm3EELi2EES3_S3_S3_RS_IS0_IdLm12EELi2EES3_RS_IS0_IdLm8EELi2EES9_RS_IS0_IdLm15EELi2EERS_IS0_IdLm24EELi2EERS_IS0_IdLm18EELi2EERS_IN7fsgrids9technicalELi2EER11SysBoundaryRKi (%struct._Z6FsGridISt5arrayIdLm3EELi2EE*  %334, %struct._Z6FsGridISt5arrayIdLm3EELi2EE*  %335, %struct._Z6FsGridISt5arrayIdLm3EELi2EE*  %336, %struct._Z6FsGridISt5arrayIdLm3EELi2EE*  %337, %struct._Z6FsGridISt5arrayIdLm12EELi2EE*  %338, %struct._Z6FsGridISt5arrayIdLm3EELi2EE*  %339, %struct._Z6FsGridISt5arrayIdLm8EELi2EE*  %340, %struct._Z6FsGridISt5arrayIdLm8EELi2EE*  %341, %struct._Z6FsGridISt5arrayIdLm15EELi2EE*  %342, %struct._Z6FsGridISt5arrayIdLm24EELi2EE*  %343, %struct._Z6FsGridISt5arrayIdLm18EELi2EE*  %344, %struct._Z6FsGridIN7fsgrids9technicalELi2EE*  %345, %struct.SysBoundary*  %346, i32* %_T32381128_51664.addr), !dbg !5705
	br label %L.B0032, !dbg !5706
L.B0017:
	%347 = load i32, i32* %subcycles.addr, align 4, !tbaa !5800, !dbg !5707
	%348 = uitofp i32  %347 to double, !dbg !5707
	%349 = load double*, double** %dt.addr, align 8, !tbaa !5797, !dbg !5708
	%350 = load double, double*  %349, align 8, !tbaa !5798, !dbg !5708
	%351 = fdiv double  %350,  %348, !dbg !5708
	call void @llvm.dbg.declare (metadata double* %subcycleDt.addr, metadata !5709, metadata !3943), !dbg !4166
	store double  %351, double* %subcycleDt.addr, align 8, !tbaa !5806, !dbg !5708
	%352 = load double, double* @_ZN10Parameters1tE, align 8, !tbaa !5806, !dbg !5710
	call void @llvm.dbg.declare (metadata double* %subcycleT.addr, metadata !5713, metadata !3943), !dbg !4166
	store double  %352, double* %subcycleT.addr, align 8, !tbaa !5806, !dbg !5710
	%353 = load double*, double** %dt.addr, align 8, !tbaa !5797, !dbg !5714
	%354 = load double, double*  %353, align 8, !tbaa !5798, !dbg !5714
	%355 = load double, double* @_ZN10Parameters1tE, align 8, !tbaa !5806, !dbg !5714
	%356 = fadd double  %354,  %355, !dbg !5714
	call void @llvm.dbg.declare (metadata double* %targetT.addr, metadata !5715, metadata !3943), !dbg !4166
	store double  %356, double* %targetT.addr, align 8, !tbaa !5806, !dbg !5714
	call void @llvm.dbg.declare (metadata i32* %subcycleCount.addr, metadata !5717, metadata !3943), !dbg !4166
	store i32 0, i32* %subcycleCount.addr, align 4, !tbaa !5800, !dbg !5716
	call void @llvm.dbg.declare (metadata i32* %maxSubcycleCount.addr, metadata !5719, metadata !3943), !dbg !4166
	store i32 -1, i32* %maxSubcycleCount.addr, align 4, !tbaa !5800, !dbg !5718
	%357 = load %struct._Z6FsGridISt5arrayIdLm3EELi2EE*, %struct._Z6FsGridISt5arrayIdLm3EELi2EE** %perBGrid.addr, align 8, !tbaa !5797, !dbg !5720
	%358 = bitcast %struct._Z6FsGridISt5arrayIdLm3EELi2EE*  %357 to i8*, !dbg !5720
	%359 = getelementptr i8, i8*  %358, i64 56, !dbg !5720
	%360 = bitcast i8*  %359 to i32*, !dbg !5720
	%361 = load i32, i32*  %360, align 4, !tbaa !5798, !dbg !5720
	call void @llvm.dbg.declare (metadata i32* %myRank.addr, metadata !5721, metadata !3943), !dbg !4166
	store i32  %361, i32* %myRank.addr, align 4, !tbaa !5800, !dbg !5720
	br label %L.B0034
L.B0034:
	store i32 1, i32* %_T32384680_51664.addr, align 4, !tbaa !5800, !dbg !5722
	%362 = load %struct._Z6FsGridISt5arrayIdLm3EELi2EE*, %struct._Z6FsGridISt5arrayIdLm3EELi2EE** %perBGrid.addr, align 8, !tbaa !5797, !dbg !5722
	%363 = load %struct._Z6FsGridISt5arrayIdLm3EELi2EE*, %struct._Z6FsGridISt5arrayIdLm3EELi2EE** %perBDt2Grid.addr, align 8, !tbaa !5797, !dbg !5722
	%364 = load %struct._Z6FsGridISt5arrayIdLm3EELi2EE*, %struct._Z6FsGridISt5arrayIdLm3EELi2EE** %EGrid.addr, align 8, !tbaa !5797, !dbg !5722
	%365 = load %struct._Z6FsGridISt5arrayIdLm3EELi2EE*, %struct._Z6FsGridISt5arrayIdLm3EELi2EE** %EDt2Grid.addr, align 8, !tbaa !5797, !dbg !5722
	%366 = load %struct._Z6FsGridIN7fsgrids9technicalELi2EE*, %struct._Z6FsGridIN7fsgrids9technicalELi2EE** %technicalGrid.addr, align 8, !tbaa !5797, !dbg !5722
	%367 = load %struct.SysBoundary*, %struct.SysBoundary** %sysBoundaries.addr, align 8, !tbaa !5797, !dbg !5722
	call void  @_Z28propagateMagneticFieldSimpleR6FsGridISt5arrayIdLm3EELi2EES3_S3_S3_RS_IN7fsgrids9technicalELi2EER11SysBoundaryRKdRKi (%struct._Z6FsGridISt5arrayIdLm3EELi2EE*  %362, %struct._Z6FsGridISt5arrayIdLm3EELi2EE*  %363, %struct._Z6FsGridISt5arrayIdLm3EELi2EE*  %364, %struct._Z6FsGridISt5arrayIdLm3EELi2EE*  %365, %struct._Z6FsGridIN7fsgrids9technicalELi2EE*  %366, %struct.SysBoundary*  %367, double* %subcycleDt.addr, i32* %_T32384680_51664.addr), !dbg !5722
	store i32 1, i32* %_T32384680_51664.addr, align 4, !tbaa !5800, !dbg !5723
	%368 = load %struct._Z6FsGridISt5arrayIdLm3EELi2EE*, %struct._Z6FsGridISt5arrayIdLm3EELi2EE** %perBGrid.addr, align 8, !tbaa !5797, !dbg !5723
	%369 = load %struct._Z6FsGridISt5arrayIdLm3EELi2EE*, %struct._Z6FsGridISt5arrayIdLm3EELi2EE** %perBDt2Grid.addr, align 8, !tbaa !5797, !dbg !5723
	%370 = load %struct._Z6FsGridISt5arrayIdLm8EELi2EE*, %struct._Z6FsGridISt5arrayIdLm8EELi2EE** %momentsGrid.addr, align 8, !tbaa !5797, !dbg !5723
	%371 = load %struct._Z6FsGridISt5arrayIdLm8EELi2EE*, %struct._Z6FsGridISt5arrayIdLm8EELi2EE** %momentsDt2Grid.addr, align 8, !tbaa !5797, !dbg !5723
	%372 = load %struct._Z6FsGridISt5arrayIdLm15EELi2EE*, %struct._Z6FsGridISt5arrayIdLm15EELi2EE** %dPerBGrid.addr, align 8, !tbaa !5797, !dbg !5723
	%373 = load %struct._Z6FsGridISt5arrayIdLm24EELi2EE*, %struct._Z6FsGridISt5arrayIdLm24EELi2EE** %dMomentsGrid.addr, align 8, !tbaa !5797, !dbg !5723
	%374 = load %struct._Z6FsGridIN7fsgrids9technicalELi2EE*, %struct._Z6FsGridIN7fsgrids9technicalELi2EE** %technicalGrid.addr, align 8, !tbaa !5797, !dbg !5723
	%375 = load %struct.SysBoundary*, %struct.SysBoundary** %sysBoundaries.addr, align 8, !tbaa !5797, !dbg !5723
	%376 = load i32, i32* %subcycleCount.addr, align 4, !tbaa !5800, !dbg !5723
	%377 = icmp eq i32  %376, 0, !dbg !5723
	%378 = zext i1  %377 to i32, !dbg !5723
	%379 = trunc i32  %378 to i8, !dbg !5723
	call void  @_Z26calculateDerivativesSimpleR6FsGridISt5arrayIdLm3EELi2EES3_RS_IS0_IdLm8EELi2EES6_RS_IS0_IdLm15EELi2EERS_IS0_IdLm24EELi2EERS_IN7fsgrids9technicalELi2EER11SysBoundaryRKib (%struct._Z6FsGridISt5arrayIdLm3EELi2EE*  %368, %struct._Z6FsGridISt5arrayIdLm3EELi2EE*  %369, %struct._Z6FsGridISt5arrayIdLm8EELi2EE*  %370, %struct._Z6FsGridISt5arrayIdLm8EELi2EE*  %371, %struct._Z6FsGridISt5arrayIdLm15EELi2EE*  %372, %struct._Z6FsGridISt5arrayIdLm24EELi2EE*  %373, %struct._Z6FsGridIN7fsgrids9technicalELi2EE*  %374, %struct.SysBoundary*  %375, i32* %_T32384680_51664.addr, i8  %379), !dbg !5723
	%380 = load i32, i32* @_ZN10Parameters13ohmGradPeTermE, align 4, !tbaa !5800, !dbg !5724
	%381 = icmp eq i32  %380, 0, !dbg !5724
	br i1  %381, label %L.B0037, label %L.B1143, !dbg !5724
L.B1143:
	%382 = load i32, i32* %subcycleCount.addr, align 4, !tbaa !5800, !dbg !5724
	%383 = icmp ne i32  %382, 0, !dbg !5724
	br i1  %383, label %L.B0037, label %L.B1144, !dbg !5724
L.B1144:
	store i32 1, i32* %_T32385864_51664.addr, align 4, !tbaa !5800, !dbg !5725
	%384 = load %struct._Z6FsGridISt5arrayIdLm3EELi2EE*, %struct._Z6FsGridISt5arrayIdLm3EELi2EE** %EGradPeGrid.addr, align 8, !tbaa !5797, !dbg !5725
	%385 = load %struct._Z6FsGridISt5arrayIdLm8EELi2EE*, %struct._Z6FsGridISt5arrayIdLm8EELi2EE** %momentsGrid.addr, align 8, !tbaa !5797, !dbg !5725
	%386 = load %struct._Z6FsGridISt5arrayIdLm8EELi2EE*, %struct._Z6FsGridISt5arrayIdLm8EELi2EE** %momentsDt2Grid.addr, align 8, !tbaa !5797, !dbg !5725
	%387 = load %struct._Z6FsGridISt5arrayIdLm24EELi2EE*, %struct._Z6FsGridISt5arrayIdLm24EELi2EE** %dMomentsGrid.addr, align 8, !tbaa !5797, !dbg !5725
	%388 = load %struct._Z6FsGridIN7fsgrids9technicalELi2EE*, %struct._Z6FsGridIN7fsgrids9technicalELi2EE** %technicalGrid.addr, align 8, !tbaa !5797, !dbg !5725
	%389 = load %struct.SysBoundary*, %struct.SysBoundary** %sysBoundaries.addr, align 8, !tbaa !5797, !dbg !5725
	call void  @_Z25calculateGradPeTermSimpleR6FsGridISt5arrayIdLm3EELi2EERS_IS0_IdLm8EELi2EES6_RS_IS0_IdLm24EELi2EERS_IN7fsgrids9technicalELi2EER11SysBoundaryRKi (%struct._Z6FsGridISt5arrayIdLm3EELi2EE*  %384, %struct._Z6FsGridISt5arrayIdLm8EELi2EE*  %385, %struct._Z6FsGridISt5arrayIdLm8EELi2EE*  %386, %struct._Z6FsGridISt5arrayIdLm24EELi2EE*  %387, %struct._Z6FsGridIN7fsgrids9technicalELi2EE*  %388, %struct.SysBoundary*  %389, i32* %_T32385864_51664.addr), !dbg !5725
	store i32 0, i32* %hallTermCommunicateDerivatives.addr, align 4, !tbaa !5800, !dbg !5726
	br label %L.B0037
L.B0037:
	%390 = load i32, i32* @_ZN10Parameters11ohmHallTermE, align 4, !tbaa !5800, !dbg !5727
	%391 = icmp eq i32  %390, 0, !dbg !5727
	br i1  %391, label %L.B0040, label %L.B1145, !dbg !5727
L.B1145:
	store i32 1, i32* %_T32386160_51664.addr, align 4, !tbaa !5800, !dbg !5728
	%392 = load %struct._Z6FsGridISt5arrayIdLm3EELi2EE*, %struct._Z6FsGridISt5arrayIdLm3EELi2EE** %perBGrid.addr, align 8, !tbaa !5797, !dbg !5728
	%393 = load %struct._Z6FsGridISt5arrayIdLm3EELi2EE*, %struct._Z6FsGridISt5arrayIdLm3EELi2EE** %perBDt2Grid.addr, align 8, !tbaa !5797, !dbg !5728
	%394 = load %struct._Z6FsGridISt5arrayIdLm12EELi2EE*, %struct._Z6FsGridISt5arrayIdLm12EELi2EE** %EHallGrid.addr, align 8, !tbaa !5797, !dbg !5728
	%395 = load %struct._Z6FsGridISt5arrayIdLm8EELi2EE*, %struct._Z6FsGridISt5arrayIdLm8EELi2EE** %momentsGrid.addr, align 8, !tbaa !5797, !dbg !5728
	%396 = load %struct._Z6FsGridISt5arrayIdLm8EELi2EE*, %struct._Z6FsGridISt5arrayIdLm8EELi2EE** %momentsDt2Grid.addr, align 8, !tbaa !5797, !dbg !5728
	%397 = load %struct._Z6FsGridISt5arrayIdLm15EELi2EE*, %struct._Z6FsGridISt5arrayIdLm15EELi2EE** %dPerBGrid.addr, align 8, !tbaa !5797, !dbg !5728
	%398 = load %struct._Z6FsGridISt5arrayIdLm24EELi2EE*, %struct._Z6FsGridISt5arrayIdLm24EELi2EE** %dMomentsGrid.addr, align 8, !tbaa !5797, !dbg !5728
	%399 = load %struct._Z6FsGridISt5arrayIdLm18EELi2EE*, %struct._Z6FsGridISt5arrayIdLm18EELi2EE** %BgBGrid.addr, align 8, !tbaa !5797, !dbg !5728
	%400 = load %struct._Z6FsGridIN7fsgrids9technicalELi2EE*, %struct._Z6FsGridIN7fsgrids9technicalELi2EE** %technicalGrid.addr, align 8, !tbaa !5797, !dbg !5728
	%401 = load %struct.SysBoundary*, %struct.SysBoundary** %sysBoundaries.addr, align 8, !tbaa !5797, !dbg !5728
	%402 = load i32, i32* %hallTermCommunicateDerivatives.addr, align 4, !tbaa !5800, !dbg !5728
	%403 = trunc i32  %402 to i8, !dbg !5728
	call void  @_Z23calculateHallTermSimpleR6FsGridISt5arrayIdLm3EELi2EES3_RS_IS0_IdLm12EELi2EERS_IS0_IdLm8EELi2EES9_RS_IS0_IdLm15EELi2EERS_IS0_IdLm24EELi2EERS_IS0_IdLm18EELi2EERS_IN7fsgrids9technicalELi2EER11SysBoundaryRKib (%struct._Z6FsGridISt5arrayIdLm3EELi2EE*  %392, %struct._Z6FsGridISt5arrayIdLm3EELi2EE*  %393, %struct._Z6FsGridISt5arrayIdLm12EELi2EE*  %394, %struct._Z6FsGridISt5arrayIdLm8EELi2EE*  %395, %struct._Z6FsGridISt5arrayIdLm8EELi2EE*  %396, %struct._Z6FsGridISt5arrayIdLm15EELi2EE*  %397, %struct._Z6FsGridISt5arrayIdLm24EELi2EE*  %398, %struct._Z6FsGridISt5arrayIdLm18EELi2EE*  %399, %struct._Z6FsGridIN7fsgrids9technicalELi2EE*  %400, %struct.SysBoundary*  %401, i32* %_T32386160_51664.addr, i8  %403), !dbg !5728
	br label %L.B0040
L.B0040:
	store i32 1, i32* %_T32384680_51664.addr, align 4, !tbaa !5800, !dbg !5729
	%404 = load %struct._Z6FsGridISt5arrayIdLm3EELi2EE*, %struct._Z6FsGridISt5arrayIdLm3EELi2EE** %perBGrid.addr, align 8, !tbaa !5797, !dbg !5729
	%405 = load %struct._Z6FsGridISt5arrayIdLm3EELi2EE*, %struct._Z6FsGridISt5arrayIdLm3EELi2EE** %perBDt2Grid.addr, align 8, !tbaa !5797, !dbg !5729
	%406 = load %struct._Z6FsGridISt5arrayIdLm3EELi2EE*, %struct._Z6FsGridISt5arrayIdLm3EELi2EE** %EGrid.addr, align 8, !tbaa !5797, !dbg !5729
	%407 = load %struct._Z6FsGridISt5arrayIdLm3EELi2EE*, %struct._Z6FsGridISt5arrayIdLm3EELi2EE** %EDt2Grid.addr, align 8, !tbaa !5797, !dbg !5729
	%408 = load %struct._Z6FsGridISt5arrayIdLm12EELi2EE*, %struct._Z6FsGridISt5arrayIdLm12EELi2EE** %EHallGrid.addr, align 8, !tbaa !5797, !dbg !5729
	%409 = load %struct._Z6FsGridISt5arrayIdLm3EELi2EE*, %struct._Z6FsGridISt5arrayIdLm3EELi2EE** %EGradPeGrid.addr, align 8, !tbaa !5797, !dbg !5729
	%410 = load %struct._Z6FsGridISt5arrayIdLm8EELi2EE*, %struct._Z6FsGridISt5arrayIdLm8EELi2EE** %momentsGrid.addr, align 8, !tbaa !5797, !dbg !5729
	%411 = load %struct._Z6FsGridISt5arrayIdLm8EELi2EE*, %struct._Z6FsGridISt5arrayIdLm8EELi2EE** %momentsDt2Grid.addr, align 8, !tbaa !5797, !dbg !5729
	%412 = load %struct._Z6FsGridISt5arrayIdLm15EELi2EE*, %struct._Z6FsGridISt5arrayIdLm15EELi2EE** %dPerBGrid.addr, align 8, !tbaa !5797, !dbg !5729
	%413 = load %struct._Z6FsGridISt5arrayIdLm24EELi2EE*, %struct._Z6FsGridISt5arrayIdLm24EELi2EE** %dMomentsGrid.addr, align 8, !tbaa !5797, !dbg !5729
	%414 = load %struct._Z6FsGridISt5arrayIdLm18EELi2EE*, %struct._Z6FsGridISt5arrayIdLm18EELi2EE** %BgBGrid.addr, align 8, !tbaa !5797, !dbg !5729
	%415 = load %struct._Z6FsGridIN7fsgrids9technicalELi2EE*, %struct._Z6FsGridIN7fsgrids9technicalELi2EE** %technicalGrid.addr, align 8, !tbaa !5797, !dbg !5729
	%416 = load %struct.SysBoundary*, %struct.SysBoundary** %sysBoundaries.addr, align 8, !tbaa !5797, !dbg !5729
	call void  @_Z36calculateUpwindedElectricFieldSimpleR6FsGridISt5arrayIdLm3EELi2EES3_S3_S3_RS_IS0_IdLm12EELi2EES3_RS_IS0_IdLm8EELi2EES9_RS_IS0_IdLm15EELi2EERS_IS0_IdLm24EELi2EERS_IS0_IdLm18EELi2EERS_IN7fsgrids9technicalELi2EER11SysBoundaryRKi (%struct._Z6FsGridISt5arrayIdLm3EELi2EE*  %404, %struct._Z6FsGridISt5arrayIdLm3EELi2EE*  %405, %struct._Z6FsGridISt5arrayIdLm3EELi2EE*  %406, %struct._Z6FsGridISt5arrayIdLm3EELi2EE*  %407, %struct._Z6FsGridISt5arrayIdLm12EELi2EE*  %408, %struct._Z6FsGridISt5arrayIdLm3EELi2EE*  %409, %struct._Z6FsGridISt5arrayIdLm8EELi2EE*  %410, %struct._Z6FsGridISt5arrayIdLm8EELi2EE*  %411, %struct._Z6FsGridISt5arrayIdLm15EELi2EE*  %412, %struct._Z6FsGridISt5arrayIdLm24EELi2EE*  %413, %struct._Z6FsGridISt5arrayIdLm18EELi2EE*  %414, %struct._Z6FsGridIN7fsgrids9technicalELi2EE*  %415, %struct.SysBoundary*  %416, i32* %_T32384680_51664.addr), !dbg !5729
	store i32 2, i32* %_T32384680_51664.addr, align 4, !tbaa !5800, !dbg !5730
	%417 = load %struct._Z6FsGridISt5arrayIdLm3EELi2EE*, %struct._Z6FsGridISt5arrayIdLm3EELi2EE** %perBGrid.addr, align 8, !tbaa !5797, !dbg !5730
	%418 = load %struct._Z6FsGridISt5arrayIdLm3EELi2EE*, %struct._Z6FsGridISt5arrayIdLm3EELi2EE** %perBDt2Grid.addr, align 8, !tbaa !5797, !dbg !5730
	%419 = load %struct._Z6FsGridISt5arrayIdLm3EELi2EE*, %struct._Z6FsGridISt5arrayIdLm3EELi2EE** %EGrid.addr, align 8, !tbaa !5797, !dbg !5730
	%420 = load %struct._Z6FsGridISt5arrayIdLm3EELi2EE*, %struct._Z6FsGridISt5arrayIdLm3EELi2EE** %EDt2Grid.addr, align 8, !tbaa !5797, !dbg !5730
	%421 = load %struct._Z6FsGridIN7fsgrids9technicalELi2EE*, %struct._Z6FsGridIN7fsgrids9technicalELi2EE** %technicalGrid.addr, align 8, !tbaa !5797, !dbg !5730
	%422 = load %struct.SysBoundary*, %struct.SysBoundary** %sysBoundaries.addr, align 8, !tbaa !5797, !dbg !5730
	call void  @_Z28propagateMagneticFieldSimpleR6FsGridISt5arrayIdLm3EELi2EES3_S3_S3_RS_IN7fsgrids9technicalELi2EER11SysBoundaryRKdRKi (%struct._Z6FsGridISt5arrayIdLm3EELi2EE*  %417, %struct._Z6FsGridISt5arrayIdLm3EELi2EE*  %418, %struct._Z6FsGridISt5arrayIdLm3EELi2EE*  %419, %struct._Z6FsGridISt5arrayIdLm3EELi2EE*  %420, %struct._Z6FsGridIN7fsgrids9technicalELi2EE*  %421, %struct.SysBoundary*  %422, double* %subcycleDt.addr, i32* %_T32384680_51664.addr), !dbg !5730
	store i32 2, i32* %_T32384680_51664.addr, align 4, !tbaa !5800, !dbg !5731
	%423 = load %struct._Z6FsGridISt5arrayIdLm3EELi2EE*, %struct._Z6FsGridISt5arrayIdLm3EELi2EE** %perBGrid.addr, align 8, !tbaa !5797, !dbg !5731
	%424 = load %struct._Z6FsGridISt5arrayIdLm3EELi2EE*, %struct._Z6FsGridISt5arrayIdLm3EELi2EE** %perBDt2Grid.addr, align 8, !tbaa !5797, !dbg !5731
	%425 = load %struct._Z6FsGridISt5arrayIdLm8EELi2EE*, %struct._Z6FsGridISt5arrayIdLm8EELi2EE** %momentsGrid.addr, align 8, !tbaa !5797, !dbg !5731
	%426 = load %struct._Z6FsGridISt5arrayIdLm8EELi2EE*, %struct._Z6FsGridISt5arrayIdLm8EELi2EE** %momentsDt2Grid.addr, align 8, !tbaa !5797, !dbg !5731
	%427 = load %struct._Z6FsGridISt5arrayIdLm15EELi2EE*, %struct._Z6FsGridISt5arrayIdLm15EELi2EE** %dPerBGrid.addr, align 8, !tbaa !5797, !dbg !5731
	%428 = load %struct._Z6FsGridISt5arrayIdLm24EELi2EE*, %struct._Z6FsGridISt5arrayIdLm24EELi2EE** %dMomentsGrid.addr, align 8, !tbaa !5797, !dbg !5731
	%429 = load %struct._Z6FsGridIN7fsgrids9technicalELi2EE*, %struct._Z6FsGridIN7fsgrids9technicalELi2EE** %technicalGrid.addr, align 8, !tbaa !5797, !dbg !5731
	%430 = load %struct.SysBoundary*, %struct.SysBoundary** %sysBoundaries.addr, align 8, !tbaa !5797, !dbg !5731
	%431 = load i32, i32* %subcycleCount.addr, align 4, !tbaa !5800, !dbg !5731
	%432 = icmp eq i32  %431, 0, !dbg !5731
	%433 = zext i1  %432 to i32, !dbg !5731
	%434 = trunc i32  %433 to i8, !dbg !5731
	call void  @_Z26calculateDerivativesSimpleR6FsGridISt5arrayIdLm3EELi2EES3_RS_IS0_IdLm8EELi2EES6_RS_IS0_IdLm15EELi2EERS_IS0_IdLm24EELi2EERS_IN7fsgrids9technicalELi2EER11SysBoundaryRKib (%struct._Z6FsGridISt5arrayIdLm3EELi2EE*  %423, %struct._Z6FsGridISt5arrayIdLm3EELi2EE*  %424, %struct._Z6FsGridISt5arrayIdLm8EELi2EE*  %425, %struct._Z6FsGridISt5arrayIdLm8EELi2EE*  %426, %struct._Z6FsGridISt5arrayIdLm15EELi2EE*  %427, %struct._Z6FsGridISt5arrayIdLm24EELi2EE*  %428, %struct._Z6FsGridIN7fsgrids9technicalELi2EE*  %429, %struct.SysBoundary*  %430, i32* %_T32384680_51664.addr, i8  %434), !dbg !5731
	%435 = load i32, i32* @_ZN10Parameters13ohmGradPeTermE, align 4, !tbaa !5800, !dbg !5732
	%436 = icmp eq i32  %435, 0, !dbg !5732
	br i1  %436, label %L.B0043, label %L.B1146, !dbg !5732
L.B1146:
	%437 = load i32, i32* %subcycleCount.addr, align 4, !tbaa !5800, !dbg !5732
	%438 = icmp ne i32  %437, 0, !dbg !5732
	br i1  %438, label %L.B0043, label %L.B1147, !dbg !5732
L.B1147:
	store i32 2, i32* %_T32386456_51664.addr, align 4, !tbaa !5800, !dbg !5733
	%439 = load %struct._Z6FsGridISt5arrayIdLm3EELi2EE*, %struct._Z6FsGridISt5arrayIdLm3EELi2EE** %EGradPeGrid.addr, align 8, !tbaa !5797, !dbg !5733
	%440 = load %struct._Z6FsGridISt5arrayIdLm8EELi2EE*, %struct._Z6FsGridISt5arrayIdLm8EELi2EE** %momentsGrid.addr, align 8, !tbaa !5797, !dbg !5733
	%441 = load %struct._Z6FsGridISt5arrayIdLm8EELi2EE*, %struct._Z6FsGridISt5arrayIdLm8EELi2EE** %momentsDt2Grid.addr, align 8, !tbaa !5797, !dbg !5733
	%442 = load %struct._Z6FsGridISt5arrayIdLm24EELi2EE*, %struct._Z6FsGridISt5arrayIdLm24EELi2EE** %dMomentsGrid.addr, align 8, !tbaa !5797, !dbg !5733
	%443 = load %struct._Z6FsGridIN7fsgrids9technicalELi2EE*, %struct._Z6FsGridIN7fsgrids9technicalELi2EE** %technicalGrid.addr, align 8, !tbaa !5797, !dbg !5733
	%444 = load %struct.SysBoundary*, %struct.SysBoundary** %sysBoundaries.addr, align 8, !tbaa !5797, !dbg !5733
	call void  @_Z25calculateGradPeTermSimpleR6FsGridISt5arrayIdLm3EELi2EERS_IS0_IdLm8EELi2EES6_RS_IS0_IdLm24EELi2EERS_IN7fsgrids9technicalELi2EER11SysBoundaryRKi (%struct._Z6FsGridISt5arrayIdLm3EELi2EE*  %439, %struct._Z6FsGridISt5arrayIdLm8EELi2EE*  %440, %struct._Z6FsGridISt5arrayIdLm8EELi2EE*  %441, %struct._Z6FsGridISt5arrayIdLm24EELi2EE*  %442, %struct._Z6FsGridIN7fsgrids9technicalELi2EE*  %443, %struct.SysBoundary*  %444, i32* %_T32386456_51664.addr), !dbg !5733
	store i32 0, i32* %hallTermCommunicateDerivatives.addr, align 4, !tbaa !5800, !dbg !5734
	br label %L.B0043
L.B0043:
	%445 = load i32, i32* @_ZN10Parameters11ohmHallTermE, align 4, !tbaa !5800, !dbg !5735
	%446 = icmp eq i32  %445, 0, !dbg !5735
	br i1  %446, label %L.B0046, label %L.B1148, !dbg !5735
L.B1148:
	store i32 2, i32* %_T32386752_51664.addr, align 4, !tbaa !5800, !dbg !5736
	%447 = load %struct._Z6FsGridISt5arrayIdLm3EELi2EE*, %struct._Z6FsGridISt5arrayIdLm3EELi2EE** %perBGrid.addr, align 8, !tbaa !5797, !dbg !5736
	%448 = load %struct._Z6FsGridISt5arrayIdLm3EELi2EE*, %struct._Z6FsGridISt5arrayIdLm3EELi2EE** %perBDt2Grid.addr, align 8, !tbaa !5797, !dbg !5736
	%449 = load %struct._Z6FsGridISt5arrayIdLm12EELi2EE*, %struct._Z6FsGridISt5arrayIdLm12EELi2EE** %EHallGrid.addr, align 8, !tbaa !5797, !dbg !5736
	%450 = load %struct._Z6FsGridISt5arrayIdLm8EELi2EE*, %struct._Z6FsGridISt5arrayIdLm8EELi2EE** %momentsGrid.addr, align 8, !tbaa !5797, !dbg !5736
	%451 = load %struct._Z6FsGridISt5arrayIdLm8EELi2EE*, %struct._Z6FsGridISt5arrayIdLm8EELi2EE** %momentsDt2Grid.addr, align 8, !tbaa !5797, !dbg !5736
	%452 = load %struct._Z6FsGridISt5arrayIdLm15EELi2EE*, %struct._Z6FsGridISt5arrayIdLm15EELi2EE** %dPerBGrid.addr, align 8, !tbaa !5797, !dbg !5736
	%453 = load %struct._Z6FsGridISt5arrayIdLm24EELi2EE*, %struct._Z6FsGridISt5arrayIdLm24EELi2EE** %dMomentsGrid.addr, align 8, !tbaa !5797, !dbg !5736
	%454 = load %struct._Z6FsGridISt5arrayIdLm18EELi2EE*, %struct._Z6FsGridISt5arrayIdLm18EELi2EE** %BgBGrid.addr, align 8, !tbaa !5797, !dbg !5736
	%455 = load %struct._Z6FsGridIN7fsgrids9technicalELi2EE*, %struct._Z6FsGridIN7fsgrids9technicalELi2EE** %technicalGrid.addr, align 8, !tbaa !5797, !dbg !5736
	%456 = load %struct.SysBoundary*, %struct.SysBoundary** %sysBoundaries.addr, align 8, !tbaa !5797, !dbg !5736
	%457 = load i32, i32* %hallTermCommunicateDerivatives.addr, align 4, !tbaa !5800, !dbg !5736
	%458 = trunc i32  %457 to i8, !dbg !5736
	call void  @_Z23calculateHallTermSimpleR6FsGridISt5arrayIdLm3EELi2EES3_RS_IS0_IdLm12EELi2EERS_IS0_IdLm8EELi2EES9_RS_IS0_IdLm15EELi2EERS_IS0_IdLm24EELi2EERS_IS0_IdLm18EELi2EERS_IN7fsgrids9technicalELi2EER11SysBoundaryRKib (%struct._Z6FsGridISt5arrayIdLm3EELi2EE*  %447, %struct._Z6FsGridISt5arrayIdLm3EELi2EE*  %448, %struct._Z6FsGridISt5arrayIdLm12EELi2EE*  %449, %struct._Z6FsGridISt5arrayIdLm8EELi2EE*  %450, %struct._Z6FsGridISt5arrayIdLm8EELi2EE*  %451, %struct._Z6FsGridISt5arrayIdLm15EELi2EE*  %452, %struct._Z6FsGridISt5arrayIdLm24EELi2EE*  %453, %struct._Z6FsGridISt5arrayIdLm18EELi2EE*  %454, %struct._Z6FsGridIN7fsgrids9technicalELi2EE*  %455, %struct.SysBoundary*  %456, i32* %_T32386752_51664.addr, i8  %458), !dbg !5736
	br label %L.B0046
L.B0046:
	store i32 2, i32* %_T32384680_51664.addr, align 4, !tbaa !5800, !dbg !5737
	%459 = load %struct._Z6FsGridISt5arrayIdLm3EELi2EE*, %struct._Z6FsGridISt5arrayIdLm3EELi2EE** %perBGrid.addr, align 8, !tbaa !5797, !dbg !5737
	%460 = load %struct._Z6FsGridISt5arrayIdLm3EELi2EE*, %struct._Z6FsGridISt5arrayIdLm3EELi2EE** %perBDt2Grid.addr, align 8, !tbaa !5797, !dbg !5737
	%461 = load %struct._Z6FsGridISt5arrayIdLm3EELi2EE*, %struct._Z6FsGridISt5arrayIdLm3EELi2EE** %EGrid.addr, align 8, !tbaa !5797, !dbg !5737
	%462 = load %struct._Z6FsGridISt5arrayIdLm3EELi2EE*, %struct._Z6FsGridISt5arrayIdLm3EELi2EE** %EDt2Grid.addr, align 8, !tbaa !5797, !dbg !5737
	%463 = load %struct._Z6FsGridISt5arrayIdLm12EELi2EE*, %struct._Z6FsGridISt5arrayIdLm12EELi2EE** %EHallGrid.addr, align 8, !tbaa !5797, !dbg !5737
	%464 = load %struct._Z6FsGridISt5arrayIdLm3EELi2EE*, %struct._Z6FsGridISt5arrayIdLm3EELi2EE** %EGradPeGrid.addr, align 8, !tbaa !5797, !dbg !5737
	%465 = load %struct._Z6FsGridISt5arrayIdLm8EELi2EE*, %struct._Z6FsGridISt5arrayIdLm8EELi2EE** %momentsGrid.addr, align 8, !tbaa !5797, !dbg !5737
	%466 = load %struct._Z6FsGridISt5arrayIdLm8EELi2EE*, %struct._Z6FsGridISt5arrayIdLm8EELi2EE** %momentsDt2Grid.addr, align 8, !tbaa !5797, !dbg !5737
	%467 = load %struct._Z6FsGridISt5arrayIdLm15EELi2EE*, %struct._Z6FsGridISt5arrayIdLm15EELi2EE** %dPerBGrid.addr, align 8, !tbaa !5797, !dbg !5737
	%468 = load %struct._Z6FsGridISt5arrayIdLm24EELi2EE*, %struct._Z6FsGridISt5arrayIdLm24EELi2EE** %dMomentsGrid.addr, align 8, !tbaa !5797, !dbg !5737
	%469 = load %struct._Z6FsGridISt5arrayIdLm18EELi2EE*, %struct._Z6FsGridISt5arrayIdLm18EELi2EE** %BgBGrid.addr, align 8, !tbaa !5797, !dbg !5737
	%470 = load %struct._Z6FsGridIN7fsgrids9technicalELi2EE*, %struct._Z6FsGridIN7fsgrids9technicalELi2EE** %technicalGrid.addr, align 8, !tbaa !5797, !dbg !5737
	%471 = load %struct.SysBoundary*, %struct.SysBoundary** %sysBoundaries.addr, align 8, !tbaa !5797, !dbg !5737
	call void  @_Z36calculateUpwindedElectricFieldSimpleR6FsGridISt5arrayIdLm3EELi2EES3_S3_S3_RS_IS0_IdLm12EELi2EES3_RS_IS0_IdLm8EELi2EES9_RS_IS0_IdLm15EELi2EERS_IS0_IdLm24EELi2EERS_IS0_IdLm18EELi2EERS_IN7fsgrids9technicalELi2EER11SysBoundaryRKi (%struct._Z6FsGridISt5arrayIdLm3EELi2EE*  %459, %struct._Z6FsGridISt5arrayIdLm3EELi2EE*  %460, %struct._Z6FsGridISt5arrayIdLm3EELi2EE*  %461, %struct._Z6FsGridISt5arrayIdLm3EELi2EE*  %462, %struct._Z6FsGridISt5arrayIdLm12EELi2EE*  %463, %struct._Z6FsGridISt5arrayIdLm3EELi2EE*  %464, %struct._Z6FsGridISt5arrayIdLm8EELi2EE*  %465, %struct._Z6FsGridISt5arrayIdLm8EELi2EE*  %466, %struct._Z6FsGridISt5arrayIdLm15EELi2EE*  %467, %struct._Z6FsGridISt5arrayIdLm24EELi2EE*  %468, %struct._Z6FsGridISt5arrayIdLm18EELi2EE*  %469, %struct._Z6FsGridIN7fsgrids9technicalELi2EE*  %470, %struct.SysBoundary*  %471, i32* %_T32384680_51664.addr), !dbg !5737
	%472 = bitcast %struct._ZNSt7__cxx1112basic_stringIcSt11char_traitsIcESaIcEEE* %_T32377576_51664.addr to i8*, !dbg !5738
	%473 = getelementptr i8, i8*  %472, i64 16, !dbg !5738
	%474 = bitcast %struct._ZNSt7__cxx1112basic_stringIcSt11char_traitsIcESaIcEEE* %_T32377576_51664.addr to i8**, !dbg !5738
	store i8*  %473, i8**  %474, align 8, !tbaa !5797, !dbg !5738
	%475 = bitcast [18 x i8]* @.S53045 to i8*, !dbg !5738
	%476 = icmp eq i8*  %475,  null, !dbg !5738
	br i1  %476, label %L..inline.64573, label %L.B1149, !dbg !5738
L.B1149:
	%477 = bitcast [18 x i8]* @.S53045 to i8*, !dbg !5738
	%478 = call i64  @strlen (i8*  %477) nounwind, !dbg !5738
	%479 = getelementptr i8, i8*  %477, i64  %478, !dbg !5738
	store i8*  %479, i8** %..inline.addr.780, align 8, !tbaa !5797, !dbg !5738
	br label %L..inline.64581, !dbg !5738
L..inline.64573:
	%480 = bitcast [18 x i8]* @.S53045 to i8*, !dbg !5738
	%481 = getelementptr i8, i8*  %480, i64 18446744073709551615, !dbg !5738
	store i8*  %481, i8** %..inline.addr.780, align 8, !tbaa !5797, !dbg !5738
	br label %L..inline.64581
L..inline.64581:
	%482 = load i8*, i8** %..inline.addr.780, align 8, !tbaa !5797, !dbg !5738
	store i8*  %482, i8** %..inline.addr.790, align 8, !tbaa !5797, !dbg !5738
	call void @llvm.dbg.declare (metadata [1 x i8]* %....inline.__FILL_CHARARRAY.addr, metadata !5740, metadata !3943), !dbg !4144
	%483 = bitcast [1 x i8]* %....inline.__FILL_CHARARRAY.addr to i8*, !dbg !5739
	%484 = load i8, i8*  %483, align 1, !tbaa !5798, !dbg !5739
	%485 = zext i8  %484 to i32, !dbg !5739
	%486 = trunc i32  %485 to i8, !dbg !5739
	call void @llvm.dbg.declare (metadata [1 x i8]* %....inline.__FILL_CHARARRAY.addr.1, metadata !5740, metadata !3943), !dbg !4144
	%487 = bitcast [1 x i8]* %....inline.__FILL_CHARARRAY.addr.1 to i8*, !dbg !5739
	store i8  %486, i8*  %487, align 1, !tbaa !5798, !dbg !5739
	%488 = bitcast [18 x i8]* @.S53045 to i8*, !dbg !5738
	%489 = load i8*, i8** %..inline.addr.790, align 8, !tbaa !5797, !dbg !5738
	%490 = bitcast %struct._ZSt26random_access_iterator_tag* %..inline.addr.820 to i8*, !dbg !5738
	%491 = load i8, i8*  %490, align 1, !tbaa !5798, !dbg !5738
	invoke void  @_ZNSt7__cxx1112basic_stringIcSt11char_traitsIcESaIcEE12_M_constructIPKcEEvT_S8_St20forward_iterator_tag (%struct._ZNSt7__cxx1112basic_stringIcSt11char_traitsIcESaIcEEE* %_T32377576_51664.addr, i8*  %488, i8*  %489, i8  %491)
		to label %L.B1150
		unwind label %L_T32388528_51664, !dbg !5738
L.B1150:
	%492 = invoke i8  @_ZN7phiprof5startERKNSt7__cxx1112basic_stringIcSt11char_traitsIcESaIcEEE (%struct._ZNSt7__cxx1112basic_stringIcSt11char_traitsIcESaIcEEE* %_T32377576_51664.addr)
		to label %L.B1151
		unwind label %L_T32388768_51664, !dbg !5741
L.B1151:
	%493 = sext i8  %492 to i32, !dbg !5741
	store i32  %493, i32* %.Q0002.addr, align 4, !tbaa !5800, !dbg !5741
	%494 = bitcast %struct._ZNSt7__cxx1112basic_stringIcSt11char_traitsIcESaIcEEE* %_T32377576_51664.addr to i8**, !dbg !5681
	%495 = load i8*, i8**  %494, align 8, !tbaa !5797, !dbg !5681
	%496 = bitcast %struct._ZNSt7__cxx1112basic_stringIcSt11char_traitsIcESaIcEEE* %_T32377576_51664.addr to i8*, !dbg !5681
	%497 = getelementptr i8, i8*  %496, i64 16, !dbg !5681
	%498 = icmp eq i8*  %495,  %497, !dbg !5681
	br i1  %498, label %L..inline.64648, label %L.B1152, !dbg !5681
L.B1152:
	%499 = bitcast %struct._ZNSt7__cxx1112basic_stringIcSt11char_traitsIcESaIcEEE* %_T32377576_51664.addr to i8**, !dbg !5681
	%500 = load i8*, i8**  %499, align 8, !tbaa !5797, !dbg !5681
	call void  @_ZdlPv (i8*  %500) nounwind, !dbg !5681
	br label %L..inline.64648
L..inline.64648:
	%501 = load double, double* %subcycleDt.addr, align 8, !tbaa !5806, !dbg !5742
	%502 = load double, double* %subcycleT.addr, align 8, !tbaa !5806, !dbg !5742
	%503 = fadd double  %501,  %502, !dbg !5742
	store double  %503, double* %subcycleT.addr, align 8, !tbaa !5806, !dbg !5742
	%504 = load i32, i32* %subcycleCount.addr, align 4, !tbaa !5800, !dbg !5743

	%505 = add i32  %504, 1, !dbg !5743
	store i32  %505, i32* %subcycleCount.addr, align 4, !tbaa !5800, !dbg !5743
	%506 = load double, double* %targetT.addr, align 8, !tbaa !5806, !dbg !5744
	%507 = fcmp oge double  %503,  %506, !dbg !5744
	br i1  %507, label %L.N0008, label %L.B1153, !dbg !5744
L.B1153:
	%508 = load i32, i32* %maxSubcycleCount.addr, align 4, !tbaa !5800, !dbg !5744
	%509 = icmp uge i32  %505,  %508, !dbg !5744
	br i1  %509, label %L.N0008, label %L.B0049, !dbg !5744
L.B0049:
	call void @llvm.dbg.declare (metadata double* %dtMaxLocal.addr, metadata !5746, metadata !3943), !dbg !4168
	store double  1.79769313486231571E+308, double* %dtMaxLocal.addr, align 8, !tbaa !5806, !dbg !5745
	%510 = load %struct._Z6FsGridIN7fsgrids9technicalELi2EE*, %struct._Z6FsGridIN7fsgrids9technicalELi2EE** %technicalGrid.addr, align 8, !tbaa !5797, !dbg !5747
	%511 = bitcast %struct._Z6FsGridIN7fsgrids9technicalELi2EE*  %510 to i8*, !dbg !5747
	%512 = getelementptr i8, i8*  %511, i64 264, !dbg !5747
	call void @llvm.dbg.declare (metadata %struct._ZSt5arrayIiLm3EE** %localSize.addr, metadata !5749, metadata !3943), !dbg !4168
	%513 = bitcast %struct._ZSt5arrayIiLm3EE** %localSize.addr to i8**, !dbg !5747
	store i8*  %512, i8**  %513, align 8, !tbaa !5797, !dbg !5747
	%514 = load %struct._Z6FsGridIN7fsgrids9technicalELi2EE*, %struct._Z6FsGridIN7fsgrids9technicalELi2EE** %technicalGrid.addr, align 8, !tbaa !5797, !dbg !5681
	%515 = bitcast %struct._Z6FsGridIN7fsgrids9technicalELi2EE*  %514 to i8*, !dbg !5681
	%516 = getelementptr i8, i8*  %515, i64 272, !dbg !5681
	%517 = bitcast i8*  %516 to i32*, !dbg !5681
	%518 = load i32, i32*  %517, align 4, !tbaa !5798, !dbg !5681
	%519 = sext i32  %518 to i64, !dbg !5681
	%520 = add i64  %519, 1, !dbg !5681
	%521 = sub i64  %520, 1, !dbg !5681
	store i64  %521, i64* %.TRP0003.addr, align 8, !tbaa !5802, !dbg !5681
	store i64 0, i64* %.ndk0006.addr, align 8, !tbaa !5804, !dbg !5750
	%522 = icmp sle i64  %521, 0, !dbg !5750
	br i1  %522, label %L.B1117, label %L.B1154, !dbg !5750
L.B1154:
	store i64  %521, i64* %.lcr053074.addr, align 8, !tbaa !5804, !dbg !5750
	br label %L.B1116
L.B1116:
	%523 = load %struct._ZSt5arrayIiLm3EE*, %struct._ZSt5arrayIiLm3EE** %localSize.addr, align 8, !tbaa !5797, !dbg !5750
	%524 = bitcast %struct._ZSt5arrayIiLm3EE*  %523 to i8*, !dbg !5750
	%525 = getelementptr i8, i8*  %524, i64 4, !dbg !5750
	%526 = bitcast i8*  %525 to i32*, !dbg !5750
	%527 = load i32, i32*  %526, align 4, !tbaa !5798, !dbg !5750
	%528 = sext i32  %527 to i64, !dbg !5750
	%529 = add i64  %528, 1, !dbg !5750
	%530 = sub i64  %529, 1, !dbg !5750
	store i64  %530, i64* %.TRP0004.addr, align 8, !tbaa !5802, !dbg !5750
	store i64 0, i64* %.ndk0008.addr, align 8, !tbaa !5804, !dbg !5750
	%531 = icmp sle i64  %530, 0, !dbg !5750
	br i1  %531, label %L.B1119, label %L.B1155, !dbg !5750
L.B1155:
	store i64  %530, i64* %.lcr053075.addr, align 8, !tbaa !5804, !dbg !5751
	%532 = load i64, i64* %.ndk0006.addr, align 8, !tbaa !5804, !dbg !5751
	%533 = trunc i64  %532 to i32, !dbg !5751
	store i32  %533, i32* %.r4.0232.addr, align 4, !tbaa !5800, !dbg !5751
	br label %L.B1118
L.B1118:
	%534 = load %struct._ZSt5arrayIiLm3EE*, %struct._ZSt5arrayIiLm3EE** %localSize.addr, align 8, !tbaa !5797, !dbg !5750
	%535 = bitcast %struct._ZSt5arrayIiLm3EE*  %534 to i32*, !dbg !5750
	%536 = load i32, i32*  %535, align 4, !tbaa !5798, !dbg !5750
	%537 = sext i32  %536 to i64, !dbg !5750
	%538 = add i64  %537, 1, !dbg !5750
	%539 = sub i64  %538, 1, !dbg !5750
	store i64  %539, i64* %.TRP0005.addr, align 8, !tbaa !5802, !dbg !5750
	store i64 0, i64* %.ndk0010.addr, align 8, !tbaa !5804, !dbg !5750
	%540 = icmp sle i64  %539, 0, !dbg !5750
	br i1  %540, label %L.B1121, label %L.B1156, !dbg !5750
L.B1156:
	store i64  %539, i64* %.lcr053076.addr, align 8, !tbaa !5804, !dbg !5752
	%541 = load i64, i64* %.ndk0008.addr, align 8, !tbaa !5804, !dbg !5752
	%542 = trunc i64  %541 to i32, !dbg !5752
	store i32  %542, i32* %.r4.0230.addr, align 4, !tbaa !5800, !dbg !5752
	br label %L.B1120
L.B1120:
	%543 = load %struct._Z6FsGridIN7fsgrids9technicalELi2EE*, %struct._Z6FsGridIN7fsgrids9technicalELi2EE** %technicalGrid.addr, align 8, !tbaa !5797, !dbg !5750
	%544 = bitcast %struct._Z6FsGridIN7fsgrids9technicalELi2EE*  %543 to i8*, !dbg !5750
	%545 = bitcast %struct._Z6FsGridIN7fsgrids9technicalELi2EE** %..inline.addr.910 to i8**, !dbg !5750
	store i8*  %544, i8**  %545, align 8, !tbaa !5797, !dbg !5750
	%546 = load i64, i64* %.ndk0010.addr, align 8, !tbaa !5804, !dbg !5750
	%547 = trunc i64  %546 to i32, !dbg !5750
	store i32  %547, i32* %..inline.addr.920, align 4, !tbaa !5800, !dbg !5750
	%548 = load i32, i32* %.r4.0230.addr, align 4, !tbaa !5800, !dbg !5750
	store i32  %548, i32* %..inline.addr.930, align 4, !tbaa !5800, !dbg !5750
	%549 = load i32, i32* %.r4.0232.addr, align 4, !tbaa !5800, !dbg !5750
	store i32  %549, i32* %..inline.addr.940, align 4, !tbaa !5800, !dbg !5750
	store i32 13, i32* %..inline.addr.950, align 4, !tbaa !5800, !dbg !5750
	%550 = bitcast [3 x i32]* %..inline.addr.960 to i32*, !dbg !5750
	store i32 0, i32*  %550, align 4, !tbaa !5798, !dbg !5750
	%551 = bitcast [3 x i32]* %..inline.addr.960 to i8*, !dbg !5750
	%552 = getelementptr i8, i8*  %551, i64 4, !dbg !5750
	%553 = bitcast i8*  %552 to i32*, !dbg !5750
	store i32 0, i32*  %553, align 4, !tbaa !5798, !dbg !5750
	%554 = getelementptr i8, i8*  %551, i64 8, !dbg !5750
	%555 = bitcast i8*  %554 to i32*, !dbg !5750
	store i32 0, i32*  %555, align 4, !tbaa !5798, !dbg !5750
	%556 = icmp sge i32  %547, 0, !dbg !5750
	br i1  %556, label %L..inline.65232, label %L.B1157, !dbg !5750
L.B1157:
	store i32 4, i32* %..inline.addr.950, align 4, !tbaa !5800, !dbg !5750
	%557 = bitcast [3 x i32]* %..inline.addr.960 to i32*, !dbg !5750
	store i32 1, i32*  %557, align 4, !tbaa !5798, !dbg !5750
	br label %L..inline.65232
L..inline.65232:
	%558 = load i32, i32* %..inline.addr.920, align 4, !tbaa !5800, !dbg !5750
	%559 = load %struct._Z6FsGridIN7fsgrids9technicalELi2EE*, %struct._Z6FsGridIN7fsgrids9technicalELi2EE** %..inline.addr.910, align 8, !tbaa !5797, !dbg !5750
	%560 = bitcast %struct._Z6FsGridIN7fsgrids9technicalELi2EE*  %559 to i8*, !dbg !5750
	%561 = getelementptr i8, i8*  %560, i64 264, !dbg !5750
	%562 = bitcast i8*  %561 to i32*, !dbg !5750
	%563 = load i32, i32*  %562, align 4, !tbaa !5798, !dbg !5750
	%564 = icmp slt i32  %558,  %563, !dbg !5750
	br i1  %564, label %L..inline.65250, label %L.B1158, !dbg !5750
L.B1158:
	%565 = load i32, i32* %..inline.addr.950, align 4, !tbaa !5800, !dbg !5750
	%566 = add i32  %565, 9, !dbg !5750
	store i32  %566, i32* %..inline.addr.950, align 4, !tbaa !5800, !dbg !5750
	%567 = bitcast [3 x i32]* %..inline.addr.960 to i32*, !dbg !5750
	store i32 -1, i32*  %567, align 4, !tbaa !5798, !dbg !5750
	br label %L..inline.65250
L..inline.65250:
	%568 = load i32, i32* %..inline.addr.930, align 4, !tbaa !5800, !dbg !5750
	%569 = icmp sge i32  %568, 0, !dbg !5750
	br i1  %569, label %L..inline.65252, label %L.B1159, !dbg !5750
L.B1159:
	%570 = load i32, i32* %..inline.addr.950, align 4, !tbaa !5800, !dbg !5750
	%571 = sub i32  %570, 3, !dbg !5750
	store i32  %571, i32* %..inline.addr.950, align 4, !tbaa !5800, !dbg !5750
	%572 = bitcast [3 x i32]* %..inline.addr.960 to i8*, !dbg !5750
	%573 = getelementptr i8, i8*  %572, i64 4, !dbg !5750
	%574 = bitcast i8*  %573 to i32*, !dbg !5750
	store i32 1, i32*  %574, align 4, !tbaa !5798, !dbg !5750
	br label %L..inline.65252
L..inline.65252:
	%575 = load i32, i32* %..inline.addr.930, align 4, !tbaa !5800, !dbg !5750
	%576 = load %struct._Z6FsGridIN7fsgrids9technicalELi2EE*, %struct._Z6FsGridIN7fsgrids9technicalELi2EE** %..inline.addr.910, align 8, !tbaa !5797, !dbg !5750
	%577 = bitcast %struct._Z6FsGridIN7fsgrids9technicalELi2EE*  %576 to i8*, !dbg !5750
	%578 = getelementptr i8, i8*  %577, i64 268, !dbg !5750
	%579 = bitcast i8*  %578 to i32*, !dbg !5750
	%580 = load i32, i32*  %579, align 4, !tbaa !5798, !dbg !5750
	%581 = icmp slt i32  %575,  %580, !dbg !5750
	br i1  %581, label %L..inline.65269, label %L.B1160, !dbg !5750
L.B1160:
	%582 = load i32, i32* %..inline.addr.950, align 4, !tbaa !5800, !dbg !5750
	%583 = add i32  %582, 3, !dbg !5750
	store i32  %583, i32* %..inline.addr.950, align 4, !tbaa !5800, !dbg !5750
	%584 = bitcast [3 x i32]* %..inline.addr.960 to i8*, !dbg !5750
	%585 = getelementptr i8, i8*  %584, i64 4, !dbg !5750
	%586 = bitcast i8*  %585 to i32*, !dbg !5750
	store i32 -1, i32*  %586, align 4, !tbaa !5798, !dbg !5750
	br label %L..inline.65269
L..inline.65269:
	%587 = load i32, i32* %..inline.addr.940, align 4, !tbaa !5800, !dbg !5750
	%588 = icmp sge i32  %587, 0, !dbg !5750
	br i1  %588, label %L..inline.65271, label %L.B1161, !dbg !5750
L.B1161:
	%589 = load i32, i32* %..inline.addr.950, align 4, !tbaa !5800, !dbg !5750
	%590 = sub i32  %589, 1, !dbg !5750
	store i32  %590, i32* %..inline.addr.950, align 4, !tbaa !5800, !dbg !5750
	%591 = bitcast [3 x i32]* %..inline.addr.960 to i8*, !dbg !5750
	%592 = getelementptr i8, i8*  %591, i64 8, !dbg !5750
	%593 = bitcast i8*  %592 to i32*, !dbg !5750
	store i32 1, i32*  %593, align 4, !tbaa !5798, !dbg !5750
	br label %L..inline.65271
L..inline.65271:
	%594 = load i32, i32* %..inline.addr.940, align 4, !tbaa !5800, !dbg !5750
	%595 = load %struct._Z6FsGridIN7fsgrids9technicalELi2EE*, %struct._Z6FsGridIN7fsgrids9technicalELi2EE** %..inline.addr.910, align 8, !tbaa !5797, !dbg !5750
	%596 = bitcast %struct._Z6FsGridIN7fsgrids9technicalELi2EE*  %595 to i8*, !dbg !5750
	%597 = getelementptr i8, i8*  %596, i64 272, !dbg !5750
	%598 = bitcast i8*  %597 to i32*, !dbg !5750
	%599 = load i32, i32*  %598, align 4, !tbaa !5798, !dbg !5750
	%600 = icmp slt i32  %594,  %599, !dbg !5750
	br i1  %600, label %L..inline.65288, label %L.B1162, !dbg !5750
L.B1162:
	%601 = load i32, i32* %..inline.addr.950, align 4, !tbaa !5800, !dbg !5750
	%602 = add i32  %601, 1, !dbg !5750
	store i32  %602, i32* %..inline.addr.950, align 4, !tbaa !5800, !dbg !5750
	%603 = bitcast [3 x i32]* %..inline.addr.960 to i8*, !dbg !5750
	%604 = getelementptr i8, i8*  %603, i64 8, !dbg !5750
	%605 = bitcast i8*  %604 to i32*, !dbg !5750
	store i32 -1, i32*  %605, align 4, !tbaa !5798, !dbg !5750
	br label %L..inline.65288
L..inline.65288:
	%606 = load i32, i32* %..inline.addr.950, align 4, !tbaa !5800, !dbg !5750
	%607 = icmp eq i32  %606, 13, !dbg !5750
	br i1  %607, label %L..inline.65289, label %L.B1163, !dbg !5750
L.B1163:
	%608 = sext i32  %606 to i64, !dbg !5750
	%609 = load %struct._Z6FsGridIN7fsgrids9technicalELi2EE*, %struct._Z6FsGridIN7fsgrids9technicalELi2EE** %..inline.addr.910, align 8, !tbaa !5797, !dbg !5750
	%610 = bitcast %struct._Z6FsGridIN7fsgrids9technicalELi2EE*  %609 to i8*, !dbg !5750
	%611 = getelementptr i8, i8*  %610, i64 92, !dbg !5750
	%612 = bitcast i8*  %611 to i32*, !dbg !5750
	%613 = getelementptr i32, i32*  %612, i64  %608, !dbg !5750
	%614 = load i32, i32*  %613, align 4, !tbaa !5798, !dbg !5750
	%615 = icmp ne i32  %614, -2, !dbg !5750
	br i1  %615, label %L..inline.65306, label %L.B1164, !dbg !5750
L.B1164:
	%616 = bitcast %struct._ZN7fsgrids9technicalE** %..inline.addr.970 to i8**, !dbg !5750
	store i8* null, i8**  %616, align 8, !tbaa !5797, !dbg !5750
	br label %L..inline.65493, !dbg !5750
L.N0008:
	%617 = load double, double* %subcycleT.addr, align 8, !tbaa !5806, !dbg !5753
	%618 = load double, double* %targetT.addr, align 8, !tbaa !5806, !dbg !5753
	%619 = fcmp ule double  %617,  %618, !dbg !5753
	br i1  %619, label %L.B0052, label %L.B1165, !dbg !5753
L.B1165:
	%620 = bitcast [60 x i8]* @.S53057 to i8*, !dbg !5754
	%621 = icmp ne i8*  %620,  null, !dbg !5754
	br i1  %621, label %L..inline.64692, label %L.B1166, !dbg !5754
L.B1166:
	%622 = bitcast %struct._ZSo* @_ZSt4cerr to i8*, !dbg !5671
	%623 = bitcast %struct._ZSo* @_ZSt4cerr to i8**, !dbg !5671
	%624 = load i8*, i8**  %623, align 8, !tbaa !5797, !dbg !5671
	%625 = getelementptr i8, i8*  %624, i64 18446744073709551592, !dbg !5671
	%626 = bitcast i8*  %625 to i64*, !dbg !5671
	%627 = load i64, i64*  %626, align 8, !tbaa !5798, !dbg !5671
	%628 = getelementptr i8, i8*  %622, i64  %627, !dbg !5671
	%629 = bitcast %struct._ZSt9basic_iosIcSt11char_traitsIcEE** %..inline.addr.980 to i8**, !dbg !5671
	store i8*  %628, i8**  %629, align 8, !tbaa !5797, !dbg !5671
	%630 = bitcast %struct._ZSt9basic_iosIcSt11char_traitsIcEE** %..inline.addr.990 to i8**, !dbg !5671
	store i8*  %628, i8**  %630, align 8, !tbaa !5797, !dbg !5671
	%631 = load %struct._ZSt9basic_iosIcSt11char_traitsIcEE*, %struct._ZSt9basic_iosIcSt11char_traitsIcEE** %..inline.addr.990, align 8, !tbaa !5797, !dbg !5671
	%632 = bitcast %struct._ZSt9basic_iosIcSt11char_traitsIcEE*  %631 to i8*, !dbg !5671
	%633 = getelementptr i8, i8*  %632, i64 32, !dbg !5671
	%634 = bitcast i8*  %633 to i32*, !dbg !5671
	%635 = load i32, i32*  %634, align 4, !tbaa !5798, !dbg !5671
	%636 = or i32  %635, 1, !dbg !5671
	%637 = load %struct._ZSt9basic_iosIcSt11char_traitsIcEE*, %struct._ZSt9basic_iosIcSt11char_traitsIcEE** %..inline.addr.980, align 8, !tbaa !5797, !dbg !5671
	call void  @_ZNSt9basic_iosIcSt11char_traitsIcEE5clearESt12_Ios_Iostate (%struct._ZSt9basic_iosIcSt11char_traitsIcEE*  %637, i32  %636), !dbg !5671
	br label %L..inline.64713, !dbg !5671
L..inline.64692:
	%638 = bitcast [60 x i8]* @.S53057 to i8*, !dbg !5674
	%639 = call i64  @strlen (i8*  %638) nounwind, !dbg !5674
	%640 = call %struct._ZSo*  @_ZSt16__ostream_insertIcSt11char_traitsIcEERSt13basic_ostreamIT_T0_ES6_PKS3_l (%struct._ZSo* @_ZSt4cerr, i8*  %638, i64  %639), !dbg !5674
	%641 = bitcast %struct._ZSo*  %640 to i8*, !dbg !5674
	%642 = bitcast %struct._ZSo** %.Q0003.addr to i8**, !dbg !5674
	store i8*  %641, i8**  %642, align 8, !tbaa !5797, !dbg !5674
	br label %L..inline.64713
L..inline.64713:
	%643 = load double, double* %subcycleT.addr, align 8, !tbaa !5806, !dbg !5755
	%644 = call %struct._ZSo*  @_ZNSo9_M_insertIdEERSoT_ (%struct._ZSo* @_ZSt4cerr, double  %643), !dbg !5756
	%645 = bitcast %struct._ZSo*  %644 to i8*, !dbg !5756
	%646 = bitcast %struct._ZSo** %.Q0004.addr to i8**, !dbg !5756
	store i8*  %645, i8**  %646, align 8, !tbaa !5797, !dbg !5756
	%647 = load %struct._ZSo*, %struct._ZSo** %.Q0004.addr, align 8, !tbaa !5797, !dbg !5756
	%648 = bitcast %struct._ZSo*  %647 to i8*, !dbg !5756
	%649 = bitcast %struct._ZSo** %..inline.addr.1050 to i8**, !dbg !5756
	store i8*  %648, i8**  %649, align 8, !tbaa !5797, !dbg !5756
	%650 = bitcast [14 x i8]* @.S53059 to i8*, !dbg !5754
	%651 = icmp ne i8*  %650,  null, !dbg !5754
	br i1  %651, label %L..inline.64731, label %L.B1167, !dbg !5754
L.B1167:
	%652 = load %struct._ZSo*, %struct._ZSo** %..inline.addr.1050, align 8, !tbaa !5797, !dbg !5671
	%653 = bitcast %struct._ZSo*  %652 to i8*, !dbg !5671
	%654 = bitcast %struct._ZSo*  %652 to i8**, !dbg !5671
	%655 = load i8*, i8**  %654, align 8, !tbaa !5797, !dbg !5671
	%656 = getelementptr i8, i8*  %655, i64 18446744073709551592, !dbg !5671
	%657 = bitcast i8*  %656 to i64*, !dbg !5671
	%658 = load i64, i64*  %657, align 8, !tbaa !5798, !dbg !5671
	%659 = getelementptr i8, i8*  %653, i64  %658, !dbg !5671
	%660 = bitcast %struct._ZSt9basic_iosIcSt11char_traitsIcEE** %..inline.addr.1060 to i8**, !dbg !5671
	store i8*  %659, i8**  %660, align 8, !tbaa !5797, !dbg !5671
	%661 = bitcast %struct._ZSt9basic_iosIcSt11char_traitsIcEE** %..inline.addr.1070 to i8**, !dbg !5671
	store i8*  %659, i8**  %661, align 8, !tbaa !5797, !dbg !5671
	%662 = load %struct._ZSt9basic_iosIcSt11char_traitsIcEE*, %struct._ZSt9basic_iosIcSt11char_traitsIcEE** %..inline.addr.1070, align 8, !tbaa !5797, !dbg !5671
	%663 = bitcast %struct._ZSt9basic_iosIcSt11char_traitsIcEE*  %662 to i8*, !dbg !5671
	%664 = getelementptr i8, i8*  %663, i64 32, !dbg !5671
	%665 = bitcast i8*  %664 to i32*, !dbg !5671
	%666 = load i32, i32*  %665, align 4, !tbaa !5798, !dbg !5671
	%667 = or i32  %666, 1, !dbg !5671
	%668 = load %struct._ZSt9basic_iosIcSt11char_traitsIcEE*, %struct._ZSt9basic_iosIcSt11char_traitsIcEE** %..inline.addr.1060, align 8, !tbaa !5797, !dbg !5671
	call void  @_ZNSt9basic_iosIcSt11char_traitsIcEE5clearESt12_Ios_Iostate (%struct._ZSt9basic_iosIcSt11char_traitsIcEE*  %668, i32  %667), !dbg !5671
	br label %L..inline.64752, !dbg !5671
L..inline.64731:
	%669 = bitcast [14 x i8]* @.S53059 to i8*, !dbg !5674
	%670 = call i64  @strlen (i8*  %669) nounwind, !dbg !5674
	%671 = load %struct._ZSo*, %struct._ZSo** %..inline.addr.1050, align 8, !tbaa !5797, !dbg !5674
	%672 = call %struct._ZSo*  @_ZSt16__ostream_insertIcSt11char_traitsIcEERSt13basic_ostreamIT_T0_ES6_PKS3_l (%struct._ZSo*  %671, i8*  %669, i64  %670), !dbg !5674
	%673 = bitcast %struct._ZSo*  %672 to i8*, !dbg !5674
	%674 = bitcast %struct._ZSo** %.Q0005.addr to i8**, !dbg !5674
	store i8*  %673, i8**  %674, align 8, !tbaa !5797, !dbg !5674
	br label %L..inline.64752
L..inline.64752:
	%675 = load %struct._ZSo*, %struct._ZSo** %..inline.addr.1050, align 8, !tbaa !5797, !dbg !5755
	%676 = bitcast %struct._ZSo*  %675 to i8*, !dbg !5755
	%677 = bitcast %struct._ZSo** %..inline.addr.1110 to i8**, !dbg !5755
	store i8*  %676, i8**  %677, align 8, !tbaa !5797, !dbg !5755
	%678 = load double, double* %subcycleDt.addr, align 8, !tbaa !5806, !dbg !5754
	%679 = load %struct._ZSo*, %struct._ZSo** %..inline.addr.1110, align 8, !tbaa !5797, !dbg !5756
	%680 = call %struct._ZSo*  @_ZNSo9_M_insertIdEERSoT_ (%struct._ZSo*  %679, double  %678), !dbg !5756
	%681 = bitcast %struct._ZSo*  %680 to i8*, !dbg !5756
	%682 = bitcast %struct._ZSo** %.Q0006.addr to i8**, !dbg !5756
	store i8*  %681, i8**  %682, align 8, !tbaa !5797, !dbg !5756
	%683 = load %struct._ZSo*, %struct._ZSo** %.Q0006.addr, align 8, !tbaa !5797, !dbg !5756
	%684 = bitcast %struct._ZSo*  %683 to i8*, !dbg !5756
	%685 = bitcast %struct._ZSo** %..inline.addr.1140 to i8**, !dbg !5756
	store i8*  %684, i8**  %685, align 8, !tbaa !5797, !dbg !5756
	%686 = bitcast [11 x i8]* @.S53061 to i8*, !dbg !5754
	%687 = icmp ne i8*  %686,  null, !dbg !5754
	br i1  %687, label %L..inline.64770, label %L.B1168, !dbg !5754
L.B1168:
	%688 = load %struct._ZSo*, %struct._ZSo** %..inline.addr.1140, align 8, !tbaa !5797, !dbg !5671
	%689 = bitcast %struct._ZSo*  %688 to i8*, !dbg !5671
	%690 = bitcast %struct._ZSo*  %688 to i8**, !dbg !5671
	%691 = load i8*, i8**  %690, align 8, !tbaa !5797, !dbg !5671
	%692 = getelementptr i8, i8*  %691, i64 18446744073709551592, !dbg !5671
	%693 = bitcast i8*  %692 to i64*, !dbg !5671
	%694 = load i64, i64*  %693, align 8, !tbaa !5798, !dbg !5671
	%695 = getelementptr i8, i8*  %689, i64  %694, !dbg !5671
	%696 = bitcast %struct._ZSt9basic_iosIcSt11char_traitsIcEE** %..inline.addr.1150 to i8**, !dbg !5671
	store i8*  %695, i8**  %696, align 8, !tbaa !5797, !dbg !5671
	%697 = bitcast %struct._ZSt9basic_iosIcSt11char_traitsIcEE** %..inline.addr.1160 to i8**, !dbg !5671
	store i8*  %695, i8**  %697, align 8, !tbaa !5797, !dbg !5671
	%698 = load %struct._ZSt9basic_iosIcSt11char_traitsIcEE*, %struct._ZSt9basic_iosIcSt11char_traitsIcEE** %..inline.addr.1160, align 8, !tbaa !5797, !dbg !5671
	%699 = bitcast %struct._ZSt9basic_iosIcSt11char_traitsIcEE*  %698 to i8*, !dbg !5671
	%700 = getelementptr i8, i8*  %699, i64 32, !dbg !5671
	%701 = bitcast i8*  %700 to i32*, !dbg !5671
	%702 = load i32, i32*  %701, align 4, !tbaa !5798, !dbg !5671
	%703 = or i32  %702, 1, !dbg !5671
	%704 = load %struct._ZSt9basic_iosIcSt11char_traitsIcEE*, %struct._ZSt9basic_iosIcSt11char_traitsIcEE** %..inline.addr.1150, align 8, !tbaa !5797, !dbg !5671
	call void  @_ZNSt9basic_iosIcSt11char_traitsIcEE5clearESt12_Ios_Iostate (%struct._ZSt9basic_iosIcSt11char_traitsIcEE*  %704, i32  %703), !dbg !5671
	br label %L..inline.64791, !dbg !5671
L..inline.64770:
	%705 = bitcast [11 x i8]* @.S53061 to i8*, !dbg !5674
	%706 = call i64  @strlen (i8*  %705) nounwind, !dbg !5674
	%707 = load %struct._ZSo*, %struct._ZSo** %..inline.addr.1140, align 8, !tbaa !5797, !dbg !5674
	%708 = call %struct._ZSo*  @_ZSt16__ostream_insertIcSt11char_traitsIcEERSt13basic_ostreamIT_T0_ES6_PKS3_l (%struct._ZSo*  %707, i8*  %705, i64  %706), !dbg !5674
	%709 = bitcast %struct._ZSo*  %708 to i8*, !dbg !5674
	%710 = bitcast %struct._ZSo** %.Q0007.addr to i8**, !dbg !5674
	store i8*  %709, i8**  %710, align 8, !tbaa !5797, !dbg !5674
	br label %L..inline.64791
L..inline.64791:
	%711 = load %struct._ZSo*, %struct._ZSo** %..inline.addr.1140, align 8, !tbaa !5797, !dbg !5755
	%712 = bitcast %struct._ZSo*  %711 to i8*, !dbg !5755
	%713 = bitcast %struct._ZSo** %..inline.addr.1200 to i8**, !dbg !5755
	store i8*  %712, i8**  %713, align 8, !tbaa !5797, !dbg !5755
	%714 = load double, double* %targetT.addr, align 8, !tbaa !5806, !dbg !5754
	%715 = load %struct._ZSo*, %struct._ZSo** %..inline.addr.1200, align 8, !tbaa !5797, !dbg !5756
	%716 = call %struct._ZSo*  @_ZNSo9_M_insertIdEERSoT_ (%struct._ZSo*  %715, double  %714), !dbg !5756
	%717 = bitcast %struct._ZSo*  %716 to i8*, !dbg !5756
	%718 = bitcast %struct._ZSo** %.Q0008.addr to i8**, !dbg !5756
	store i8*  %717, i8**  %718, align 8, !tbaa !5797, !dbg !5756
	%719 = load %struct._ZSo*, %struct._ZSo** %.Q0008.addr, align 8, !tbaa !5797, !dbg !5756
	%720 = bitcast %struct._ZSo*  %719 to i8*, !dbg !5756
	%721 = bitcast %struct._ZSo** %..inline.addr.1230 to i8**, !dbg !5756
	store i8*  %720, i8**  %721, align 8, !tbaa !5797, !dbg !5756
	%722 = bitcast [2 x i8]* @.S53063 to i8*, !dbg !5754
	%723 = icmp ne i8*  %722,  null, !dbg !5754
	br i1  %723, label %L..inline.64809, label %L.B1169, !dbg !5754
L.B1169:
	%724 = load %struct._ZSo*, %struct._ZSo** %..inline.addr.1230, align 8, !tbaa !5797, !dbg !5671
	%725 = bitcast %struct._ZSo*  %724 to i8*, !dbg !5671
	%726 = bitcast %struct._ZSo*  %724 to i8**, !dbg !5671
	%727 = load i8*, i8**  %726, align 8, !tbaa !5797, !dbg !5671
	%728 = getelementptr i8, i8*  %727, i64 18446744073709551592, !dbg !5671
	%729 = bitcast i8*  %728 to i64*, !dbg !5671
	%730 = load i64, i64*  %729, align 8, !tbaa !5798, !dbg !5671
	%731 = getelementptr i8, i8*  %725, i64  %730, !dbg !5671
	%732 = bitcast %struct._ZSt9basic_iosIcSt11char_traitsIcEE** %..inline.addr.1240 to i8**, !dbg !5671
	store i8*  %731, i8**  %732, align 8, !tbaa !5797, !dbg !5671
	%733 = bitcast %struct._ZSt9basic_iosIcSt11char_traitsIcEE** %..inline.addr.1250 to i8**, !dbg !5671
	store i8*  %731, i8**  %733, align 8, !tbaa !5797, !dbg !5671
	%734 = load %struct._ZSt9basic_iosIcSt11char_traitsIcEE*, %struct._ZSt9basic_iosIcSt11char_traitsIcEE** %..inline.addr.1250, align 8, !tbaa !5797, !dbg !5671
	%735 = bitcast %struct._ZSt9basic_iosIcSt11char_traitsIcEE*  %734 to i8*, !dbg !5671
	%736 = getelementptr i8, i8*  %735, i64 32, !dbg !5671
	%737 = bitcast i8*  %736 to i32*, !dbg !5671
	%738 = load i32, i32*  %737, align 4, !tbaa !5798, !dbg !5671
	%739 = or i32  %738, 1, !dbg !5671
	%740 = load %struct._ZSt9basic_iosIcSt11char_traitsIcEE*, %struct._ZSt9basic_iosIcSt11char_traitsIcEE** %..inline.addr.1240, align 8, !tbaa !5797, !dbg !5671
	call void  @_ZNSt9basic_iosIcSt11char_traitsIcEE5clearESt12_Ios_Iostate (%struct._ZSt9basic_iosIcSt11char_traitsIcEE*  %740, i32  %739), !dbg !5671
	br label %L..inline.64830, !dbg !5671
L..inline.64809:
	%741 = bitcast [2 x i8]* @.S53063 to i8*, !dbg !5674
	%742 = call i64  @strlen (i8*  %741) nounwind, !dbg !5674
	%743 = load %struct._ZSo*, %struct._ZSo** %..inline.addr.1230, align 8, !tbaa !5797, !dbg !5674
	%744 = call %struct._ZSo*  @_ZSt16__ostream_insertIcSt11char_traitsIcEERSt13basic_ostreamIT_T0_ES6_PKS3_l (%struct._ZSo*  %743, i8*  %741, i64  %742), !dbg !5674
	%745 = bitcast %struct._ZSo*  %744 to i8*, !dbg !5674
	%746 = bitcast %struct._ZSo** %.Q0009.addr to i8**, !dbg !5674
	store i8*  %745, i8**  %746, align 8, !tbaa !5797, !dbg !5674
	br label %L..inline.64830
L..inline.64830:
	%747 = load %struct._ZSo*, %struct._ZSo** %..inline.addr.1230, align 8, !tbaa !5797, !dbg !5755
	%748 = bitcast %struct._ZSo*  %747 to i8*, !dbg !5755
	%749 = bitcast %struct._ZSo** %..inline.addr.1290 to i8**, !dbg !5755
	store i8*  %748, i8**  %749, align 8, !tbaa !5797, !dbg !5755
	%750 = load %struct._ZSo*, %struct._ZSo** %..inline.addr.1290, align 8, !tbaa !5797, !dbg !5675
	%751 = call %struct._ZSo*  @_ZSt4endlIcSt11char_traitsIcEERSt13basic_ostreamIT_T0_ES6_ (%struct._ZSo*  %750), !dbg !5675
	%752 = bitcast %struct._ZSo*  %751 to i8*, !dbg !5675
	%753 = bitcast %struct._ZSo** %.Q0010.addr to i8**, !dbg !5675
	store i8*  %752, i8**  %753, align 8, !tbaa !5797, !dbg !5675
	br label %L.B0052
L.B0052:
	%754 = bitcast %struct._ZNSt7__cxx1112basic_stringIcSt11char_traitsIcESaIcEEE* %_T32378168_51664.addr to i8*, !dbg !5738
	%755 = getelementptr i8, i8*  %754, i64 16, !dbg !5738
	%756 = bitcast %struct._ZNSt7__cxx1112basic_stringIcSt11char_traitsIcESaIcEEE* %_T32378168_51664.addr to i8**, !dbg !5738
	store i8*  %755, i8**  %756, align 8, !tbaa !5797, !dbg !5738
	%757 = bitcast [18 x i8]* @.S53045 to i8*, !dbg !5738
	%758 = icmp eq i8*  %757,  null, !dbg !5738
	br i1  %758, label %L..inline.64897, label %L.B1170, !dbg !5738
L.B1170:
	%759 = bitcast [18 x i8]* @.S53045 to i8*, !dbg !5738
	%760 = call i64  @strlen (i8*  %759) nounwind, !dbg !5738
	%761 = getelementptr i8, i8*  %759, i64  %760, !dbg !5738
	store i8*  %761, i8** %..inline.addr.1330, align 8, !tbaa !5797, !dbg !5738
	br label %L..inline.64905, !dbg !5738
L..inline.64897:
	%762 = bitcast [18 x i8]* @.S53045 to i8*, !dbg !5738
	%763 = getelementptr i8, i8*  %762, i64 18446744073709551615, !dbg !5738
	store i8*  %763, i8** %..inline.addr.1330, align 8, !tbaa !5797, !dbg !5738
	br label %L..inline.64905
L..inline.64905:
	%764 = load i8*, i8** %..inline.addr.1330, align 8, !tbaa !5797, !dbg !5738
	store i8*  %764, i8** %..inline.addr.1340, align 8, !tbaa !5797, !dbg !5738
	call void @llvm.dbg.declare (metadata [1 x i8]* %....inline.__FILL_CHARARRAY.addr.2, metadata !5740, metadata !3943), !dbg !4144
	%765 = bitcast [1 x i8]* %....inline.__FILL_CHARARRAY.addr.2 to i8*, !dbg !5739
	%766 = load i8, i8*  %765, align 1, !tbaa !5798, !dbg !5739
	%767 = zext i8  %766 to i32, !dbg !5739
	%768 = trunc i32  %767 to i8, !dbg !5739
	call void @llvm.dbg.declare (metadata [1 x i8]* %....inline.__FILL_CHARARRAY.addr.3, metadata !5740, metadata !3943), !dbg !4144
	%769 = bitcast [1 x i8]* %....inline.__FILL_CHARARRAY.addr.3 to i8*, !dbg !5739
	store i8  %768, i8*  %769, align 1, !tbaa !5798, !dbg !5739
	%770 = bitcast [18 x i8]* @.S53045 to i8*, !dbg !5738
	%771 = load i8*, i8** %..inline.addr.1340, align 8, !tbaa !5797, !dbg !5738
	%772 = bitcast %struct._ZSt26random_access_iterator_tag* %..inline.addr.1370 to i8*, !dbg !5738
	%773 = load i8, i8*  %772, align 1, !tbaa !5798, !dbg !5738
	invoke void  @_ZNSt7__cxx1112basic_stringIcSt11char_traitsIcESaIcEE12_M_constructIPKcEEvT_S8_St20forward_iterator_tag (%struct._ZNSt7__cxx1112basic_stringIcSt11char_traitsIcESaIcEEE* %_T32378168_51664.addr, i8*  %770, i8*  %771, i8  %773)
		to label %L.B1171
		unwind label %L_T32389008_51664, !dbg !5738
L.B1171:
	%774 = bitcast %struct._ZNSt7__cxx1112basic_stringIcSt11char_traitsIcESaIcEEE* %_T32378760_51664.addr to i8*, !dbg !5738
	%775 = getelementptr i8, i8*  %774, i64 16, !dbg !5738
	%776 = bitcast %struct._ZNSt7__cxx1112basic_stringIcSt11char_traitsIcESaIcEEE* %_T32378760_51664.addr to i8**, !dbg !5738
	store i8*  %775, i8**  %776, align 8, !tbaa !5797, !dbg !5738
	%777 = bitcast [1 x i8]* @.S53066 to i8*, !dbg !5738
	%778 = icmp eq i8*  %777,  null, !dbg !5738
	br i1  %778, label %L..inline.64970, label %L.B1172, !dbg !5738
L.B1172:
	%779 = bitcast [1 x i8]* @.S53066 to i8*, !dbg !5738
	%780 = call i64  @strlen (i8*  %779) nounwind, !dbg !5738
	%781 = getelementptr i8, i8*  %779, i64  %780, !dbg !5738
	store i8*  %781, i8** %..inline.addr.1400, align 8, !tbaa !5797, !dbg !5738
	br label %L..inline.64978, !dbg !5738
L..inline.64970:
	%782 = bitcast [1 x i8]* @.S53066 to i8*, !dbg !5738
	%783 = getelementptr i8, i8*  %782, i64 18446744073709551615, !dbg !5738
	store i8*  %783, i8** %..inline.addr.1400, align 8, !tbaa !5797, !dbg !5738
	br label %L..inline.64978
L..inline.64978:
	%784 = load i8*, i8** %..inline.addr.1400, align 8, !tbaa !5797, !dbg !5738
	store i8*  %784, i8** %..inline.addr.1410, align 8, !tbaa !5797, !dbg !5738
	call void @llvm.dbg.declare (metadata [1 x i8]* %....inline.__FILL_CHARARRAY.addr.4, metadata !5740, metadata !3943), !dbg !4144
	%785 = bitcast [1 x i8]* %....inline.__FILL_CHARARRAY.addr.4 to i8*, !dbg !5739
	%786 = load i8, i8*  %785, align 1, !tbaa !5798, !dbg !5739
	%787 = zext i8  %786 to i32, !dbg !5739
	%788 = trunc i32  %787 to i8, !dbg !5739
	call void @llvm.dbg.declare (metadata [1 x i8]* %....inline.__FILL_CHARARRAY.addr.5, metadata !5740, metadata !3943), !dbg !4144
	%789 = bitcast [1 x i8]* %....inline.__FILL_CHARARRAY.addr.5 to i8*, !dbg !5739
	store i8  %788, i8*  %789, align 1, !tbaa !5798, !dbg !5739
	%790 = bitcast [1 x i8]* @.S53066 to i8*, !dbg !5738
	%791 = load i8*, i8** %..inline.addr.1410, align 8, !tbaa !5797, !dbg !5738
	%792 = bitcast %struct._ZSt26random_access_iterator_tag* %..inline.addr.1440 to i8*, !dbg !5738
	%793 = load i8, i8*  %792, align 1, !tbaa !5798, !dbg !5738
	invoke void  @_ZNSt7__cxx1112basic_stringIcSt11char_traitsIcESaIcEE12_M_constructIPKcEEvT_S8_St20forward_iterator_tag (%struct._ZNSt7__cxx1112basic_stringIcSt11char_traitsIcESaIcEEE* %_T32378760_51664.addr, i8*  %790, i8*  %791, i8  %793)
		to label %L.B1173
		unwind label %L_T32389488_51664, !dbg !5738
L.B1173:
	%794 = invoke i8  @_ZN7phiprof4stopERKNSt7__cxx1112basic_stringIcSt11char_traitsIcESaIcEEEdS7_ (%struct._ZNSt7__cxx1112basic_stringIcSt11char_traitsIcESaIcEEE* %_T32378168_51664.addr, double -1.00000000000000000E+0, %struct._ZNSt7__cxx1112basic_stringIcSt11char_traitsIcESaIcEEE* %_T32378760_51664.addr)
		to label %L.B1174
		unwind label %L_T32389728_51664, !dbg !5757
L.B1174:
	%795 = sext i8  %794 to i32, !dbg !5757
	store i32  %795, i32* %.Q0011.addr, align 4, !tbaa !5800, !dbg !5757
	%796 = bitcast %struct._ZNSt7__cxx1112basic_stringIcSt11char_traitsIcESaIcEEE* %_T32378760_51664.addr to i8**, !dbg !5681
	%797 = load i8*, i8**  %796, align 8, !tbaa !5797, !dbg !5681
	%798 = bitcast %struct._ZNSt7__cxx1112basic_stringIcSt11char_traitsIcESaIcEEE* %_T32378760_51664.addr to i8*, !dbg !5681
	%799 = getelementptr i8, i8*  %798, i64 16, !dbg !5681
	%800 = icmp eq i8*  %797,  %799, !dbg !5681
	br i1  %800, label %L..inline.65045, label %L.B1175, !dbg !5681
L.B1175:
	%801 = bitcast %struct._ZNSt7__cxx1112basic_stringIcSt11char_traitsIcESaIcEEE* %_T32378760_51664.addr to i8**, !dbg !5681
	%802 = load i8*, i8**  %801, align 8, !tbaa !5797, !dbg !5681
	call void  @_ZdlPv (i8*  %802) nounwind, !dbg !5681
	br label %L..inline.65045
L..inline.65045:
	%803 = bitcast %struct._ZNSt7__cxx1112basic_stringIcSt11char_traitsIcESaIcEEE* %_T32378168_51664.addr to i8**, !dbg !5681
	%804 = load i8*, i8**  %803, align 8, !tbaa !5797, !dbg !5681
	%805 = bitcast %struct._ZNSt7__cxx1112basic_stringIcSt11char_traitsIcESaIcEEE* %_T32378168_51664.addr to i8*, !dbg !5681
	%806 = getelementptr i8, i8*  %805, i64 16, !dbg !5681
	%807 = icmp eq i8*  %804,  %806, !dbg !5681
	br i1  %807, label %L..inline.65132, label %L.B1176, !dbg !5681
L.B1176:
	%808 = bitcast %struct._ZNSt7__cxx1112basic_stringIcSt11char_traitsIcESaIcEEE* %_T32378168_51664.addr to i8**, !dbg !5681
	%809 = load i8*, i8**  %808, align 8, !tbaa !5797, !dbg !5681
	call void  @_ZdlPv (i8*  %809) nounwind, !dbg !5681
	br label %L_T32392608_51664, !dbg !5758
L..inline.65306:
	%810 = load i32, i32* %..inline.addr.950, align 4, !tbaa !5800, !dbg !5750
	%811 = sext i32  %810 to i64, !dbg !5750
	%812 = load %struct._Z6FsGridIN7fsgrids9technicalELi2EE*, %struct._Z6FsGridIN7fsgrids9technicalELi2EE** %..inline.addr.910, align 8, !tbaa !5797, !dbg !5750
	%813 = bitcast %struct._Z6FsGridIN7fsgrids9technicalELi2EE*  %812 to i8*, !dbg !5750
	%814 = getelementptr i8, i8*  %813, i64 92, !dbg !5750
	%815 = bitcast i8*  %814 to i32*, !dbg !5750
	%816 = getelementptr i32, i32*  %815, i64  %811, !dbg !5750
	%817 = load i32, i32*  %816, align 4, !tbaa !5798, !dbg !5750
	%818 = getelementptr i8, i8*  %813, i64 56, !dbg !5750
	%819 = bitcast i8*  %818 to i32*, !dbg !5750
	%820 = load i32, i32*  %819, align 4, !tbaa !5798, !dbg !5750
	%821 = icmp ne i32  %817,  %820, !dbg !5750
	br i1  %821, label %L..inline.65324, label %L.B1177, !dbg !5750
L.B1177:
	%822 = load i32, i32* %..inline.addr.920, align 4, !tbaa !5800, !dbg !5750
	%823 = bitcast [3 x i32]* %..inline.addr.960 to i32*, !dbg !5750
	%824 = load i32, i32*  %823, align 4, !tbaa !5798, !dbg !5750
	%825 = bitcast %struct._Z6FsGridIN7fsgrids9technicalELi2EE*  %812 to i8*, !dbg !5750
	%826 = getelementptr i8, i8*  %825, i64 264, !dbg !5750
	%827 = bitcast i8*  %826 to i32*, !dbg !5750
	%828 = load i32, i32*  %827, align 4, !tbaa !5798, !dbg !5750
	%829 = mul i32  %824,  %828, !dbg !5750
	%830 = add i32  %822,  %829, !dbg !5750
	store i32  %830, i32* %..inline.addr.920, align 4, !tbaa !5800, !dbg !5750
	%831 = load i32, i32* %..inline.addr.930, align 4, !tbaa !5800, !dbg !5750
	%832 = bitcast [3 x i32]* %..inline.addr.960 to i8*, !dbg !5750
	%833 = getelementptr i8, i8*  %832, i64 4, !dbg !5750
	%834 = bitcast i8*  %833 to i32*, !dbg !5750
	%835 = load i32, i32*  %834, align 4, !tbaa !5798, !dbg !5750
	%836 = getelementptr i8, i8*  %825, i64 268, !dbg !5750
	%837 = bitcast i8*  %836 to i32*, !dbg !5750
	%838 = load i32, i32*  %837, align 4, !tbaa !5798, !dbg !5750
	%839 = mul i32  %835,  %838, !dbg !5750
	%840 = add i32  %831,  %839, !dbg !5750
	store i32  %840, i32* %..inline.addr.930, align 4, !tbaa !5800, !dbg !5750
	%841 = load i32, i32* %..inline.addr.940, align 4, !tbaa !5800, !dbg !5750
	%842 = getelementptr i8, i8*  %832, i64 8, !dbg !5750
	%843 = bitcast i8*  %842 to i32*, !dbg !5750
	%844 = load i32, i32*  %843, align 4, !tbaa !5798, !dbg !5750
	%845 = getelementptr i8, i8*  %825, i64 272, !dbg !5750
	%846 = bitcast i8*  %845 to i32*, !dbg !5750
	%847 = load i32, i32*  %846, align 4, !tbaa !5798, !dbg !5750
	%848 = mul i32  %844,  %847, !dbg !5750
	%849 = add i32  %841,  %848, !dbg !5750
	store i32  %849, i32* %..inline.addr.940, align 4, !tbaa !5800, !dbg !5750
	br label %L..inline.65324
L..inline.65324:
	br label %L..inline.65289
L..inline.65289:
	store i64 0, i64* %..inline.addr.1480, align 8, !tbaa !5802, !dbg !5750
	%850 = load %struct._Z6FsGridIN7fsgrids9technicalELi2EE*, %struct._Z6FsGridIN7fsgrids9technicalELi2EE** %..inline.addr.910, align 8, !tbaa !5797, !dbg !5750
	%851 = bitcast %struct._Z6FsGridIN7fsgrids9technicalELi2EE*  %850 to i8*, !dbg !5750
	%852 = getelementptr i8, i8*  %851, i64 260, !dbg !5750
	%853 = bitcast i8*  %852 to i32*, !dbg !5750
	%854 = load i32, i32*  %853, align 4, !tbaa !5798, !dbg !5750
	%855 = icmp sle i32  %854, 1, !dbg !5750
	br i1  %855, label %L..inline.65398, label %L.B1178, !dbg !5750
L.B1178:
	%856 = load i32, i32* %..inline.addr.940, align 4, !tbaa !5800, !dbg !5750
	%857 = add i32  %856, 2, !dbg !5750
	%858 = bitcast %struct._Z6FsGridIN7fsgrids9technicalELi2EE*  %850 to i8*, !dbg !5750
	%859 = getelementptr i8, i8*  %858, i64 280, !dbg !5750
	%860 = bitcast i8*  %859 to i32*, !dbg !5750
	%861 = load i32, i32*  %860, align 4, !tbaa !5798, !dbg !5750
	%862 = getelementptr i8, i8*  %858, i64 276, !dbg !5750
	%863 = bitcast i8*  %862 to i32*, !dbg !5750
	%864 = load i32, i32*  %863, align 4, !tbaa !5798, !dbg !5750
	%865 = mul i32  %861,  %864, !dbg !5750
	%866 = mul i32  %857,  %865, !dbg !5750
	%867 = sext i32  %866 to i64, !dbg !5750
	store i64  %867, i64* %..inline.addr.1480, align 8, !tbaa !5802, !dbg !5750
	br label %L..inline.65398
L..inline.65398:
	%868 = load %struct._Z6FsGridIN7fsgrids9technicalELi2EE*, %struct._Z6FsGridIN7fsgrids9technicalELi2EE** %..inline.addr.910, align 8, !tbaa !5797, !dbg !5750
	%869 = bitcast %struct._Z6FsGridIN7fsgrids9technicalELi2EE*  %868 to i8*, !dbg !5750
	%870 = getelementptr i8, i8*  %869, i64 256, !dbg !5750
	%871 = bitcast i8*  %870 to i32*, !dbg !5750
	%872 = load i32, i32*  %871, align 4, !tbaa !5798, !dbg !5750
	%873 = icmp sle i32  %872, 1, !dbg !5750
	br i1  %873, label %L..inline.65447, label %L.B1179, !dbg !5750
L.B1179:
	%874 = load i64, i64* %..inline.addr.1480, align 8, !tbaa !5802, !dbg !5750
	%875 = bitcast %struct._Z6FsGridIN7fsgrids9technicalELi2EE*  %868 to i8*, !dbg !5750
	%876 = getelementptr i8, i8*  %875, i64 276, !dbg !5750
	%877 = bitcast i8*  %876 to i32*, !dbg !5750
	%878 = load i32, i32*  %877, align 4, !tbaa !5798, !dbg !5750
	%879 = load i32, i32* %..inline.addr.930, align 4, !tbaa !5800, !dbg !5750
	%880 = add i32  %879, 2, !dbg !5750
	%881 = mul i32  %878,  %880, !dbg !5750
	%882 = sext i32  %881 to i64, !dbg !5750
	%883 = add i64  %874,  %882, !dbg !5750
	store i64  %883, i64* %..inline.addr.1480, align 8, !tbaa !5802, !dbg !5750
	br label %L..inline.65447
L..inline.65447:
	%884 = load %struct._Z6FsGridIN7fsgrids9technicalELi2EE*, %struct._Z6FsGridIN7fsgrids9technicalELi2EE** %..inline.addr.910, align 8, !tbaa !5797, !dbg !5750
	%885 = bitcast %struct._Z6FsGridIN7fsgrids9technicalELi2EE*  %884 to i8*, !dbg !5750
	%886 = getelementptr i8, i8*  %885, i64 252, !dbg !5750
	%887 = bitcast i8*  %886 to i32*, !dbg !5750
	%888 = load i32, i32*  %887, align 4, !tbaa !5798, !dbg !5750
	%889 = icmp sle i32  %888, 1, !dbg !5750
	%890 = zext i1  %889 to i32, !dbg !5750
	%891 = trunc i32  %890 to i1, !dbg !5750
	%892 = load i64, i64* %..inline.addr.1480, align 8, !tbaa !5802, !dbg !5750
	%893 = load i32, i32* %..inline.addr.920, align 4, !tbaa !5800, !dbg !5750
	%894 = sext i32  %893 to i64, !dbg !5750
	%895 = add i64  %894, 2, !dbg !5750
	%896 = add i64  %892,  %895, !dbg !5750
	%897 = select i1  %891, i64  %892, i64  %896, !dbg !5750
	%898 = getelementptr i8, i8*  %885, i64 744, !dbg !5750
	%899 = bitcast i8*  %898 to i8**, !dbg !5750
	%900 = load i8*, i8**  %899, align 8, !tbaa !5797, !dbg !5750
	%901 = mul i64  %897, 32, !dbg !5750
	%902 = getelementptr i8, i8*  %900, i64  %901, !dbg !5750
	%903 = bitcast %struct._ZN7fsgrids9technicalE** %..inline.addr.970 to i8**, !dbg !5750
	store i8*  %902, i8**  %903, align 8, !tbaa !5797, !dbg !5750
	br label %L..inline.65493
L..inline.65493:
	%904 = load %struct._ZN7fsgrids9technicalE*, %struct._ZN7fsgrids9technicalE** %..inline.addr.970, align 8, !tbaa !5797, !dbg !5750
	%905 = bitcast %struct._ZN7fsgrids9technicalE*  %904 to i32*, !dbg !5750
	%906 = load i32, i32*  %905, align 4, !tbaa !5798, !dbg !5750
	%907 = icmp eq i32  %906, 1, !dbg !5750
	br i1  %907, label %L.B0067, label %L.B1180, !dbg !5750
L.B1180:
	%908 = bitcast %struct._ZN7fsgrids9technicalE*  %904 to i8*, !dbg !5750
	%909 = getelementptr i8, i8*  %908, i64 4, !dbg !5750
	%910 = bitcast i8*  %909 to i32*, !dbg !5750
	%911 = load i32, i32*  %910, align 4, !tbaa !5798, !dbg !5750
	%912 = icmp ne i32  %911, 1, !dbg !5750
	br i1  %912, label %L.B0066, label %L.B0067, !dbg !5750
L.B0067:
	%913 = load %struct._ZN7fsgrids9technicalE*, %struct._ZN7fsgrids9technicalE** %..inline.addr.970, align 8, !tbaa !5797, !dbg !5750
	%914 = bitcast %struct._ZN7fsgrids9technicalE*  %913 to i8*, !dbg !5750
	%915 = getelementptr i8, i8*  %914, i64 8, !dbg !5750
	%916 = bitcast i8*  %915 to double*, !dbg !5750
	%917 = load double, double*  %916, align 8, !tbaa !5798, !dbg !5750
	%918 = load double, double* %dtMaxLocal.addr, align 8, !tbaa !5806, !dbg !5750
	%919 = fcmp uge double  %917,  %918, !dbg !5750
	br i1  %919, label %L..inline.65498, label %L.B1181, !dbg !5750
L.B1181:
	%920 = bitcast %struct._ZN7fsgrids9technicalE*  %913 to i8*, !dbg !5750
	%921 = getelementptr i8, i8*  %920, i64 8, !dbg !5750
	%922 = bitcast double** %..inline.addr.1490 to i8**, !dbg !5750
	store i8*  %921, i8**  %922, align 8, !tbaa !5797, !dbg !5750
	br label %L..inline.65501, !dbg !5750
L..inline.65498:
	%923 = bitcast double* %dtMaxLocal.addr to i8*, !dbg !5750
	%924 = bitcast double** %..inline.addr.1490 to i8**, !dbg !5750
	store i8*  %923, i8**  %924, align 8, !tbaa !5797, !dbg !5750
	br label %L..inline.65501
L..inline.65501:
	%925 = load double*, double** %..inline.addr.1490, align 8, !tbaa !5797, !dbg !5750
	%926 = load double, double*  %925, align 8, !tbaa !5798, !dbg !5750
	store double  %926, double* %dtMaxLocal.addr, align 8, !tbaa !5806, !dbg !5750
	br label %L.B0066
L.B0066:
	%927 = load i64, i64* %.ndk0010.addr, align 8, !tbaa !5804, !dbg !5750
	%928 = add i64  %927, 1, !dbg !5750
	store i64  %928, i64* %.ndk0010.addr, align 8, !tbaa !5804, !dbg !5750
	%929 = load i64, i64* %.lcr053076.addr, align 8, !tbaa !5804, !dbg !5750
	%930 = icmp slt i64  %928,  %929, !dbg !5750
	br i1  %930, label %L.B1120, label %L.B1121, !dbg !5750
L.B1121:
	%931 = load i64, i64* %.ndk0008.addr, align 8, !tbaa !5804, !dbg !5750
	%932 = add i64  %931, 1, !dbg !5750
	store i64  %932, i64* %.ndk0008.addr, align 8, !tbaa !5804, !dbg !5750
	%933 = load i64, i64* %.lcr053075.addr, align 8, !tbaa !5804, !dbg !5750
	%934 = icmp slt i64  %932,  %933, !dbg !5750
	br i1  %934, label %L.B1118, label %L.B1119, !dbg !5750
L.B1119:
	%935 = load i64, i64* %.ndk0006.addr, align 8, !tbaa !5804, !dbg !5750
	%936 = add i64  %935, 1, !dbg !5750
	store i64  %936, i64* %.ndk0006.addr, align 8, !tbaa !5804, !dbg !5750
	%937 = load i64, i64* %.lcr053074.addr, align 8, !tbaa !5804, !dbg !5750
	%938 = icmp slt i64  %936,  %937, !dbg !5750
	br i1  %938, label %L.B1116, label %L.B1117, !dbg !5750
L.B1117:
	%939 = bitcast %struct._ZNSt7__cxx1112basic_stringIcSt11char_traitsIcESaIcEEE* %_T32377576_51664.addr to i8*, !dbg !5738
	%940 = getelementptr i8, i8*  %939, i64 16, !dbg !5738
	%941 = bitcast %struct._ZNSt7__cxx1112basic_stringIcSt11char_traitsIcESaIcEEE* %_T32377576_51664.addr to i8**, !dbg !5738
	store i8*  %940, i8**  %941, align 8, !tbaa !5797, !dbg !5738
	%942 = bitcast [14 x i8]* @.S53105 to i8*, !dbg !5738
	%943 = icmp eq i8*  %942,  null, !dbg !5738
	br i1  %943, label %L..inline.65546, label %L.B1182, !dbg !5738
L.B1182:
	%944 = bitcast [14 x i8]* @.S53105 to i8*, !dbg !5738
	%945 = call i64  @strlen (i8*  %944) nounwind, !dbg !5738
	%946 = getelementptr i8, i8*  %944, i64  %945, !dbg !5738
	store i8*  %946, i8** %..inline.addr.1510, align 8, !tbaa !5797, !dbg !5738
	br label %L..inline.65554, !dbg !5738
L..inline.65546:
	%947 = bitcast [14 x i8]* @.S53105 to i8*, !dbg !5738
	%948 = getelementptr i8, i8*  %947, i64 18446744073709551615, !dbg !5738
	store i8*  %948, i8** %..inline.addr.1510, align 8, !tbaa !5797, !dbg !5738
	br label %L..inline.65554
L..inline.65554:
	%949 = load i8*, i8** %..inline.addr.1510, align 8, !tbaa !5797, !dbg !5738
	store i8*  %949, i8** %..inline.addr.1520, align 8, !tbaa !5797, !dbg !5738
	call void @llvm.dbg.declare (metadata [1 x i8]* %....inline.__FILL_CHARARRAY.addr.6, metadata !5740, metadata !3943), !dbg !4144
	%950 = bitcast [1 x i8]* %....inline.__FILL_CHARARRAY.addr.6 to i8*, !dbg !5739
	%951 = load i8, i8*  %950, align 1, !tbaa !5798, !dbg !5739
	%952 = zext i8  %951 to i32, !dbg !5739
	%953 = trunc i32  %952 to i8, !dbg !5739
	call void @llvm.dbg.declare (metadata [1 x i8]* %....inline.__FILL_CHARARRAY.addr.7, metadata !5740, metadata !3943), !dbg !4144
	%954 = bitcast [1 x i8]* %....inline.__FILL_CHARARRAY.addr.7 to i8*, !dbg !5739
	store i8  %953, i8*  %954, align 1, !tbaa !5798, !dbg !5739
	%955 = bitcast [14 x i8]* @.S53105 to i8*, !dbg !5738
	%956 = load i8*, i8** %..inline.addr.1520, align 8, !tbaa !5797, !dbg !5738
	%957 = bitcast %struct._ZSt26random_access_iterator_tag* %..inline.addr.1550 to i8*, !dbg !5738
	%958 = load i8, i8*  %957, align 1, !tbaa !5798, !dbg !5738
	invoke void  @_ZNSt7__cxx1112basic_stringIcSt11char_traitsIcESaIcEE12_M_constructIPKcEEvT_S8_St20forward_iterator_tag (%struct._ZNSt7__cxx1112basic_stringIcSt11char_traitsIcESaIcEEE* %_T32377576_51664.addr, i8*  %955, i8*  %956, i8  %958)
		to label %L.B1183
		unwind label %L_T32389968_51664, !dbg !5738
L.B1183:
	%959 = invoke i8  @_ZN7phiprof5startERKNSt7__cxx1112basic_stringIcSt11char_traitsIcESaIcEEE (%struct._ZNSt7__cxx1112basic_stringIcSt11char_traitsIcESaIcEEE* %_T32377576_51664.addr)
		to label %L.B1184
		unwind label %L_T32390208_51664, !dbg !5759
L.B1184:
	%960 = sext i8  %959 to i32, !dbg !5759
	store i32  %960, i32* %.Q0012.addr, align 4, !tbaa !5800, !dbg !5759
	%961 = bitcast %struct._ZNSt7__cxx1112basic_stringIcSt11char_traitsIcESaIcEEE* %_T32377576_51664.addr to i8**, !dbg !5681
	%962 = load i8*, i8**  %961, align 8, !tbaa !5797, !dbg !5681
	%963 = bitcast %struct._ZNSt7__cxx1112basic_stringIcSt11char_traitsIcESaIcEEE* %_T32377576_51664.addr to i8*, !dbg !5681
	%964 = getelementptr i8, i8*  %963, i64 16, !dbg !5681
	%965 = icmp eq i8*  %962,  %964, !dbg !5681
	br i1  %965, label %L..inline.65621, label %L.B1185, !dbg !5681
L.B1185:
	%966 = bitcast %struct._ZNSt7__cxx1112basic_stringIcSt11char_traitsIcESaIcEEE* %_T32377576_51664.addr to i8**, !dbg !5681
	%967 = load i8*, i8**  %966, align 8, !tbaa !5797, !dbg !5681
	call void  @_ZdlPv (i8*  %967) nounwind, !dbg !5681
	br label %L..inline.65621
L..inline.65621:
	%968 = load %struct._Z6FsGridIN7fsgrids9technicalELi2EE*, %struct._Z6FsGridIN7fsgrids9technicalELi2EE** %technicalGrid.addr, align 8, !tbaa !5797, !dbg !5760
	%969 = bitcast %struct._Z6FsGridIN7fsgrids9technicalELi2EE*  %968 to i8*, !dbg !5760
	%970 = bitcast %struct._Z6FsGridIN7fsgrids9technicalELi2EE** %..inline.addr.1580 to i8**, !dbg !5760
	store i8*  %969, i8**  %970, align 8, !tbaa !5797, !dbg !5760
	%971 = bitcast double* %dtMaxLocal.addr to i8*, !dbg !5761
	call void @llvm.dbg.declare (metadata double* %dtMaxGlobal.addr, metadata !5762, metadata !3943), !dbg !4168
	%972 = bitcast double* %dtMaxGlobal.addr to i8*, !dbg !5761
	%973 = bitcast %struct.ompi_predefined_datatype_t* @ompi_mpi_double to %struct.ompi_datatype_t*, !dbg !5761
	%974 = bitcast %struct.ompi_predefined_op_t* @ompi_mpi_op_min to %struct.ompi_op_t*, !dbg !5761
	%975 = load %struct._Z6FsGridIN7fsgrids9technicalELi2EE*, %struct._Z6FsGridIN7fsgrids9technicalELi2EE** %..inline.addr.1580, align 8, !tbaa !5797, !dbg !5761
	%976 = bitcast %struct._Z6FsGridIN7fsgrids9technicalELi2EE*  %975 to i8*, !dbg !5761
	%977 = getelementptr i8, i8*  %976, i64 48, !dbg !5761
	%978 = bitcast i8*  %977 to %struct.ompi_communicator_t**, !dbg !5761
	%979 = load %struct.ompi_communicator_t*, %struct.ompi_communicator_t**  %978, align 8, !tbaa !5797, !dbg !5761
	%980 = call i32  @MPI_Allreduce (i8*  %971, i8*  %972, i32 1, %struct.ompi_datatype_t*  %973, %struct.ompi_op_t*  %974, %struct.ompi_communicator_t*  %979) nounwind, !dbg !5761
	store i32  %980, i32* %..inline.addr.1600, align 4, !tbaa !5800, !dbg !5761
	%981 = bitcast %struct._ZNSt7__cxx1112basic_stringIcSt11char_traitsIcESaIcEEE* %_T32377576_51664.addr to i8*, !dbg !5738
	%982 = getelementptr i8, i8*  %981, i64 16, !dbg !5738
	%983 = bitcast %struct._ZNSt7__cxx1112basic_stringIcSt11char_traitsIcESaIcEEE* %_T32377576_51664.addr to i8**, !dbg !5738
	store i8*  %982, i8**  %983, align 8, !tbaa !5797, !dbg !5738
	%984 = bitcast [14 x i8]* @.S53105 to i8*, !dbg !5738
	%985 = icmp eq i8*  %984,  null, !dbg !5738
	br i1  %985, label %L..inline.65722, label %L.B1186, !dbg !5738
L.B1186:
	%986 = bitcast [14 x i8]* @.S53105 to i8*, !dbg !5738
	%987 = call i64  @strlen (i8*  %986) nounwind, !dbg !5738
	%988 = getelementptr i8, i8*  %986, i64  %987, !dbg !5738
	store i8*  %988, i8** %..inline.addr.1620, align 8, !tbaa !5797, !dbg !5738
	br label %L..inline.65730, !dbg !5738
L..inline.65722:
	%989 = bitcast [14 x i8]* @.S53105 to i8*, !dbg !5738
	%990 = getelementptr i8, i8*  %989, i64 18446744073709551615, !dbg !5738
	store i8*  %990, i8** %..inline.addr.1620, align 8, !tbaa !5797, !dbg !5738
	br label %L..inline.65730
L..inline.65730:
	%991 = load i8*, i8** %..inline.addr.1620, align 8, !tbaa !5797, !dbg !5738
	store i8*  %991, i8** %..inline.addr.1630, align 8, !tbaa !5797, !dbg !5738
	call void @llvm.dbg.declare (metadata [1 x i8]* %....inline.__FILL_CHARARRAY.addr.8, metadata !5740, metadata !3943), !dbg !4144
	%992 = bitcast [1 x i8]* %....inline.__FILL_CHARARRAY.addr.8 to i8*, !dbg !5739
	%993 = load i8, i8*  %992, align 1, !tbaa !5798, !dbg !5739
	%994 = zext i8  %993 to i32, !dbg !5739
	%995 = trunc i32  %994 to i8, !dbg !5739
	call void @llvm.dbg.declare (metadata [1 x i8]* %....inline.__FILL_CHARARRAY.addr.9, metadata !5740, metadata !3943), !dbg !4144
	%996 = bitcast [1 x i8]* %....inline.__FILL_CHARARRAY.addr.9 to i8*, !dbg !5739
	store i8  %995, i8*  %996, align 1, !tbaa !5798, !dbg !5739
	%997 = bitcast [14 x i8]* @.S53105 to i8*, !dbg !5738
	%998 = load i8*, i8** %..inline.addr.1630, align 8, !tbaa !5797, !dbg !5738
	%999 = bitcast %struct._ZSt26random_access_iterator_tag* %..inline.addr.1660 to i8*, !dbg !5738
	%1000 = load i8, i8*  %999, align 1, !tbaa !5798, !dbg !5738
	invoke void  @_ZNSt7__cxx1112basic_stringIcSt11char_traitsIcESaIcEE12_M_constructIPKcEEvT_S8_St20forward_iterator_tag (%struct._ZNSt7__cxx1112basic_stringIcSt11char_traitsIcESaIcEEE* %_T32377576_51664.addr, i8*  %997, i8*  %998, i8  %1000)
		to label %L.B1187
		unwind label %L_T32390448_51664, !dbg !5738
L.B1187:
	%1001 = bitcast %struct._ZNSt7__cxx1112basic_stringIcSt11char_traitsIcESaIcEEE* %_T32379352_51664.addr to i8*, !dbg !5738
	%1002 = getelementptr i8, i8*  %1001, i64 16, !dbg !5738
	%1003 = bitcast %struct._ZNSt7__cxx1112basic_stringIcSt11char_traitsIcESaIcEEE* %_T32379352_51664.addr to i8**, !dbg !5738
	store i8*  %1002, i8**  %1003, align 8, !tbaa !5797, !dbg !5738
	%1004 = bitcast [1 x i8]* @.S53066 to i8*, !dbg !5738
	%1005 = icmp eq i8*  %1004,  null, !dbg !5738
	br i1  %1005, label %L..inline.65795, label %L.B1188, !dbg !5738
L.B1188:
	%1006 = bitcast [1 x i8]* @.S53066 to i8*, !dbg !5738
	%1007 = call i64  @strlen (i8*  %1006) nounwind, !dbg !5738
	%1008 = getelementptr i8, i8*  %1006, i64  %1007, !dbg !5738
	store i8*  %1008, i8** %..inline.addr.1690, align 8, !tbaa !5797, !dbg !5738
	br label %L..inline.65803, !dbg !5738
L..inline.65795:
	%1009 = bitcast [1 x i8]* @.S53066 to i8*, !dbg !5738
	%1010 = getelementptr i8, i8*  %1009, i64 18446744073709551615, !dbg !5738
	store i8*  %1010, i8** %..inline.addr.1690, align 8, !tbaa !5797, !dbg !5738
	br label %L..inline.65803
L..inline.65803:
	%1011 = load i8*, i8** %..inline.addr.1690, align 8, !tbaa !5797, !dbg !5738
	store i8*  %1011, i8** %..inline.addr.1700, align 8, !tbaa !5797, !dbg !5738
	call void @llvm.dbg.declare (metadata [1 x i8]* %....inline.__FILL_CHARARRAY.addr.1710, metadata !5740, metadata !3943), !dbg !4144
	%1012 = bitcast [1 x i8]* %....inline.__FILL_CHARARRAY.addr.1710 to i8*, !dbg !5739
	%1013 = load i8, i8*  %1012, align 1, !tbaa !5798, !dbg !5739
	%1014 = zext i8  %1013 to i32, !dbg !5739
	%1015 = trunc i32  %1014 to i8, !dbg !5739
	call void @llvm.dbg.declare (metadata [1 x i8]* %....inline.__FILL_CHARARRAY.addr.1720, metadata !5740, metadata !3943), !dbg !4144
	%1016 = bitcast [1 x i8]* %....inline.__FILL_CHARARRAY.addr.1720 to i8*, !dbg !5739
	store i8  %1015, i8*  %1016, align 1, !tbaa !5798, !dbg !5739
	%1017 = bitcast [1 x i8]* @.S53066 to i8*, !dbg !5738
	%1018 = load i8*, i8** %..inline.addr.1700, align 8, !tbaa !5797, !dbg !5738
	%1019 = bitcast %struct._ZSt26random_access_iterator_tag* %..inline.addr.1730 to i8*, !dbg !5738
	%1020 = load i8, i8*  %1019, align 1, !tbaa !5798, !dbg !5738
	invoke void  @_ZNSt7__cxx1112basic_stringIcSt11char_traitsIcESaIcEE12_M_constructIPKcEEvT_S8_St20forward_iterator_tag (%struct._ZNSt7__cxx1112basic_stringIcSt11char_traitsIcESaIcEEE* %_T32379352_51664.addr, i8*  %1017, i8*  %1018, i8  %1020)
		to label %L.B1189
		unwind label %L_T32390928_51664, !dbg !5738
L.B1189:
	%1021 = invoke i8  @_ZN7phiprof4stopERKNSt7__cxx1112basic_stringIcSt11char_traitsIcESaIcEEEdS7_ (%struct._ZNSt7__cxx1112basic_stringIcSt11char_traitsIcESaIcEEE* %_T32377576_51664.addr, double -1.00000000000000000E+0, %struct._ZNSt7__cxx1112basic_stringIcSt11char_traitsIcESaIcEEE* %_T32379352_51664.addr)
		to label %L.B1190
		unwind label %L_T32391168_51664, !dbg !5765
L.B1190:
	%1022 = sext i8  %1021 to i32, !dbg !5765
	store i32  %1022, i32* %.Q0013.addr, align 4, !tbaa !5800, !dbg !5765
	%1023 = bitcast %struct._ZNSt7__cxx1112basic_stringIcSt11char_traitsIcESaIcEEE* %_T32379352_51664.addr to i8**, !dbg !5681
	%1024 = load i8*, i8**  %1023, align 8, !tbaa !5797, !dbg !5681
	%1025 = bitcast %struct._ZNSt7__cxx1112basic_stringIcSt11char_traitsIcESaIcEEE* %_T32379352_51664.addr to i8*, !dbg !5681
	%1026 = getelementptr i8, i8*  %1025, i64 16, !dbg !5681
	%1027 = icmp eq i8*  %1024,  %1026, !dbg !5681
	br i1  %1027, label %L..inline.65870, label %L.B1191, !dbg !5681
L.B1191:
	%1028 = bitcast %struct._ZNSt7__cxx1112basic_stringIcSt11char_traitsIcESaIcEEE* %_T32379352_51664.addr to i8**, !dbg !5681
	%1029 = load i8*, i8**  %1028, align 8, !tbaa !5797, !dbg !5681
	call void  @_ZdlPv (i8*  %1029) nounwind, !dbg !5681
	br label %L..inline.65870
L..inline.65870:
	%1030 = bitcast %struct._ZNSt7__cxx1112basic_stringIcSt11char_traitsIcESaIcEEE* %_T32377576_51664.addr to i8**, !dbg !5681
	%1031 = load i8*, i8**  %1030, align 8, !tbaa !5797, !dbg !5681
	%1032 = bitcast %struct._ZNSt7__cxx1112basic_stringIcSt11char_traitsIcESaIcEEE* %_T32377576_51664.addr to i8*, !dbg !5681
	%1033 = getelementptr i8, i8*  %1032, i64 16, !dbg !5681
	%1034 = icmp eq i8*  %1031,  %1033, !dbg !5681
	br i1  %1034, label %L..inline.65957, label %L.B1192, !dbg !5681
L.B1192:
	%1035 = bitcast %struct._ZNSt7__cxx1112basic_stringIcSt11char_traitsIcESaIcEEE* %_T32377576_51664.addr to i8**, !dbg !5681
	%1036 = load i8*, i8**  %1035, align 8, !tbaa !5797, !dbg !5681
	call void  @_ZdlPv (i8*  %1036) nounwind, !dbg !5681
	br label %L..inline.65957
L..inline.65957:
	%1037 = load double, double* %subcycleDt.addr, align 8, !tbaa !5806, !dbg !5766
	%1038 = load double, double* @_ZN10Parameters17fieldSolverMaxCFLE, align 8, !tbaa !5806, !dbg !5766
	%1039 = load double, double* %dtMaxGlobal.addr, align 8, !tbaa !5806, !dbg !5766
	%1040 = fmul double  %1038,  %1039, !dbg !5766
	%1041 = fcmp ule double  %1037,  %1040, !dbg !5766
	br i1  %1041, label %L.B0074, label %L.B1193, !dbg !5766
L.B1193:
	%1042 = load double, double* @_ZN10Parameters17fieldSolverMinCFLE, align 8, !tbaa !5806, !dbg !5769
	%1043 = fadd double  %1038,  %1042, !dbg !5769
	%1044 = fmul double  %1043,  5.00000000000000000E-1, !dbg !5769
	call void @llvm.dbg.declare (metadata double* %meanFieldsCFL.addr, metadata !5772, metadata !3943), !dbg !4192
	%1045 = load double, double* %dtMaxGlobal.addr, align 8, !tbaa !5806, !dbg !5773
	%1046 = fmul double  %1045,  %1044, !dbg !5773
	store double  %1046, double* %subcycleDt.addr, align 8, !tbaa !5806, !dbg !5773
	%1047 = load i32, i32* %myRank.addr, align 4, !tbaa !5800, !dbg !5774
	%1048 = icmp ne i32  %1047, 0, !dbg !5774
	br i1  %1048, label %L.B0076, label %L.B1194, !dbg !5774
L.B1194:
	%1049 = bitcast [43 x i8]* @.S53114 to i8*, !dbg !5775
	%1050 = icmp ne i8*  %1049,  null, !dbg !5775
	br i1  %1050, label %L..inline.66007, label %L.B1195, !dbg !5775
L.B1195:
	%1051 = bitcast %struct.Logger* @logFile to i8*, !dbg !5775
	%1052 = getelementptr i8, i8*  %1051, i64 32, !dbg !5775
	%1053 = bitcast i8*  %1052 to i8**, !dbg !5775
	%1054 = load i8*, i8**  %1053, align 8, !tbaa !5797, !dbg !5775
	%1055 = getelementptr i8, i8*  %1054, i64 18446744073709551592, !dbg !5775
	%1056 = bitcast i8*  %1055 to i64*, !dbg !5775
	%1057 = load i64, i64*  %1056, align 8, !tbaa !5798, !dbg !5775
	%1058 = getelementptr i8, i8*  %1052, i64  %1057, !dbg !5775
	%1059 = bitcast %struct._ZSt9basic_iosIcSt11char_traitsIcEE** %..inline.addr.1780 to i8**, !dbg !5775
	store i8*  %1058, i8**  %1059, align 8, !tbaa !5797, !dbg !5775
	%1060 = bitcast %struct._ZSt9basic_iosIcSt11char_traitsIcEE** %..inline.addr.1790 to i8**, !dbg !5775
	store i8*  %1058, i8**  %1060, align 8, !tbaa !5797, !dbg !5775
	%1061 = load %struct._ZSt9basic_iosIcSt11char_traitsIcEE*, %struct._ZSt9basic_iosIcSt11char_traitsIcEE** %..inline.addr.1790, align 8, !tbaa !5797, !dbg !5775
	%1062 = bitcast %struct._ZSt9basic_iosIcSt11char_traitsIcEE*  %1061 to i8*, !dbg !5775
	%1063 = getelementptr i8, i8*  %1062, i64 32, !dbg !5775
	%1064 = bitcast i8*  %1063 to i32*, !dbg !5775
	%1065 = load i32, i32*  %1064, align 4, !tbaa !5798, !dbg !5775
	%1066 = or i32  %1065, 1, !dbg !5775
	%1067 = load %struct._ZSt9basic_iosIcSt11char_traitsIcEE*, %struct._ZSt9basic_iosIcSt11char_traitsIcEE** %..inline.addr.1780, align 8, !tbaa !5797, !dbg !5775
	call void  @_ZNSt9basic_iosIcSt11char_traitsIcEE5clearESt12_Ios_Iostate (%struct._ZSt9basic_iosIcSt11char_traitsIcEE*  %1067, i32  %1066), !dbg !5775
	br label %L..inline.66027, !dbg !5775
L..inline.66007:
	%1068 = bitcast [43 x i8]* @.S53114 to i8*, !dbg !5775
	%1069 = call i64  @strlen (i8*  %1068) nounwind, !dbg !5775
	%1070 = bitcast %struct.Logger* @logFile to i8*, !dbg !5775
	%1071 = getelementptr i8, i8*  %1070, i64 32, !dbg !5775
	%1072 = bitcast i8*  %1071 to %struct._ZSo*, !dbg !5775
	%1073 = call %struct._ZSo*  @_ZSt16__ostream_insertIcSt11char_traitsIcEERSt13basic_ostreamIT_T0_ES6_PKS3_l (%struct._ZSo*  %1072, i8*  %1068, i64  %1069), !dbg !5775
	%1074 = bitcast %struct._ZSo*  %1073 to i8*, !dbg !5775
	%1075 = bitcast %struct._ZSo** %.Q0014.addr to i8**, !dbg !5775
	store i8*  %1074, i8**  %1075, align 8, !tbaa !5797, !dbg !5775
	br label %L..inline.66027
L..inline.66027:
	%1076 = load double, double* %subcycleDt.addr, align 8, !tbaa !5806, !dbg !5775
	%1077 = bitcast %struct.Logger* @logFile to i8*, !dbg !5775
	%1078 = getelementptr i8, i8*  %1077, i64 32, !dbg !5775
	%1079 = bitcast i8*  %1078 to %struct._ZSo*, !dbg !5775
	%1080 = call %struct._ZSo*  @_ZNSo9_M_insertIdEERSoT_ (%struct._ZSo*  %1079, double  %1076), !dbg !5775
	%1081 = bitcast %struct._ZSo*  %1080 to i8*, !dbg !5775
	%1082 = bitcast %struct._ZSo** %.Q0015.addr to i8**, !dbg !5775
	store i8*  %1081, i8**  %1082, align 8, !tbaa !5797, !dbg !5775
	%1083 = bitcast [19 x i8]* @.S53116 to i8*, !dbg !5775
	%1084 = icmp ne i8*  %1083,  null, !dbg !5775
	br i1  %1084, label %L..inline.66060, label %L.B1196, !dbg !5775
L.B1196:
	%1085 = bitcast %struct.Logger* @logFile to i8*, !dbg !5775
	%1086 = getelementptr i8, i8*  %1085, i64 32, !dbg !5775
	%1087 = bitcast i8*  %1086 to i8**, !dbg !5775
	%1088 = load i8*, i8**  %1087, align 8, !tbaa !5797, !dbg !5775
	%1089 = getelementptr i8, i8*  %1088, i64 18446744073709551592, !dbg !5775
	%1090 = bitcast i8*  %1089 to i64*, !dbg !5775
	%1091 = load i64, i64*  %1090, align 8, !tbaa !5798, !dbg !5775
	%1092 = getelementptr i8, i8*  %1086, i64  %1091, !dbg !5775
	%1093 = bitcast %struct._ZSt9basic_iosIcSt11char_traitsIcEE** %..inline.addr.1850 to i8**, !dbg !5775
	store i8*  %1092, i8**  %1093, align 8, !tbaa !5797, !dbg !5775
	%1094 = bitcast %struct._ZSt9basic_iosIcSt11char_traitsIcEE** %..inline.addr.1860 to i8**, !dbg !5775
	store i8*  %1092, i8**  %1094, align 8, !tbaa !5797, !dbg !5775
	%1095 = load %struct._ZSt9basic_iosIcSt11char_traitsIcEE*, %struct._ZSt9basic_iosIcSt11char_traitsIcEE** %..inline.addr.1860, align 8, !tbaa !5797, !dbg !5775
	%1096 = bitcast %struct._ZSt9basic_iosIcSt11char_traitsIcEE*  %1095 to i8*, !dbg !5775
	%1097 = getelementptr i8, i8*  %1096, i64 32, !dbg !5775
	%1098 = bitcast i8*  %1097 to i32*, !dbg !5775
	%1099 = load i32, i32*  %1098, align 4, !tbaa !5798, !dbg !5775
	%1100 = or i32  %1099, 1, !dbg !5775
	%1101 = load %struct._ZSt9basic_iosIcSt11char_traitsIcEE*, %struct._ZSt9basic_iosIcSt11char_traitsIcEE** %..inline.addr.1850, align 8, !tbaa !5797, !dbg !5775
	call void  @_ZNSt9basic_iosIcSt11char_traitsIcEE5clearESt12_Ios_Iostate (%struct._ZSt9basic_iosIcSt11char_traitsIcEE*  %1101, i32  %1100), !dbg !5775
	br label %L..inline.66080, !dbg !5775
L..inline.66060:
	%1102 = bitcast [19 x i8]* @.S53116 to i8*, !dbg !5775
	%1103 = call i64  @strlen (i8*  %1102) nounwind, !dbg !5775
	%1104 = bitcast %struct.Logger* @logFile to i8*, !dbg !5775
	%1105 = getelementptr i8, i8*  %1104, i64 32, !dbg !5775
	%1106 = bitcast i8*  %1105 to %struct._ZSo*, !dbg !5775
	%1107 = call %struct._ZSo*  @_ZSt16__ostream_insertIcSt11char_traitsIcEERSt13basic_ostreamIT_T0_ES6_PKS3_l (%struct._ZSo*  %1106, i8*  %1102, i64  %1103), !dbg !5775
	%1108 = bitcast %struct._ZSo*  %1107 to i8*, !dbg !5775
	%1109 = bitcast %struct._ZSo** %.Q0016.addr to i8**, !dbg !5775
	store i8*  %1108, i8**  %1109, align 8, !tbaa !5797, !dbg !5775
	br label %L..inline.66080
L..inline.66080:
	%1110 = load i32, i32* @_ZN10Parameters5tstepE, align 4, !tbaa !5800, !dbg !5775
	%1111 = bitcast %struct.Logger* @logFile to i8*, !dbg !5775
	%1112 = getelementptr i8, i8*  %1111, i64 32, !dbg !5775
	%1113 = bitcast i8*  %1112 to %struct._ZSo*, !dbg !5775
	%1114 = zext i32  %1110 to i64, !dbg !5775
	%1115 = call %struct._ZSo*  @_ZNSo9_M_insertImEERSoT_ (%struct._ZSo*  %1113, i64  %1114), !dbg !5775
	%1116 = bitcast %struct._ZSo*  %1115 to i8*, !dbg !5775
	%1117 = bitcast %struct._ZSo** %.Q0017.addr to i8**, !dbg !5775
	store i8*  %1116, i8**  %1117, align 8, !tbaa !5797, !dbg !5775
	%1118 = bitcast [14 x i8]* @.S53118 to i8*, !dbg !5775
	%1119 = icmp ne i8*  %1118,  null, !dbg !5775
	br i1  %1119, label %L..inline.66113, label %L.B1197, !dbg !5775
L.B1197:
	%1120 = bitcast %struct.Logger* @logFile to i8*, !dbg !5775
	%1121 = getelementptr i8, i8*  %1120, i64 32, !dbg !5775
	%1122 = bitcast i8*  %1121 to i8**, !dbg !5775
	%1123 = load i8*, i8**  %1122, align 8, !tbaa !5797, !dbg !5775
	%1124 = getelementptr i8, i8*  %1123, i64 18446744073709551592, !dbg !5775
	%1125 = bitcast i8*  %1124 to i64*, !dbg !5775
	%1126 = load i64, i64*  %1125, align 8, !tbaa !5798, !dbg !5775
	%1127 = getelementptr i8, i8*  %1121, i64  %1126, !dbg !5775
	%1128 = bitcast %struct._ZSt9basic_iosIcSt11char_traitsIcEE** %..inline.addr.1920 to i8**, !dbg !5775
	store i8*  %1127, i8**  %1128, align 8, !tbaa !5797, !dbg !5775
	%1129 = bitcast %struct._ZSt9basic_iosIcSt11char_traitsIcEE** %..inline.addr.1930 to i8**, !dbg !5775
	store i8*  %1127, i8**  %1129, align 8, !tbaa !5797, !dbg !5775
	%1130 = load %struct._ZSt9basic_iosIcSt11char_traitsIcEE*, %struct._ZSt9basic_iosIcSt11char_traitsIcEE** %..inline.addr.1930, align 8, !tbaa !5797, !dbg !5775
	%1131 = bitcast %struct._ZSt9basic_iosIcSt11char_traitsIcEE*  %1130 to i8*, !dbg !5775
	%1132 = getelementptr i8, i8*  %1131, i64 32, !dbg !5775
	%1133 = bitcast i8*  %1132 to i32*, !dbg !5775
	%1134 = load i32, i32*  %1133, align 4, !tbaa !5798, !dbg !5775
	%1135 = or i32  %1134, 1, !dbg !5775
	%1136 = load %struct._ZSt9basic_iosIcSt11char_traitsIcEE*, %struct._ZSt9basic_iosIcSt11char_traitsIcEE** %..inline.addr.1920, align 8, !tbaa !5797, !dbg !5775
	call void  @_ZNSt9basic_iosIcSt11char_traitsIcEE5clearESt12_Ios_Iostate (%struct._ZSt9basic_iosIcSt11char_traitsIcEE*  %1136, i32  %1135), !dbg !5775
	br label %L..inline.66133, !dbg !5775
L..inline.66113:
	%1137 = bitcast [14 x i8]* @.S53118 to i8*, !dbg !5775
	%1138 = call i64  @strlen (i8*  %1137) nounwind, !dbg !5775
	%1139 = bitcast %struct.Logger* @logFile to i8*, !dbg !5775
	%1140 = getelementptr i8, i8*  %1139, i64 32, !dbg !5775
	%1141 = bitcast i8*  %1140 to %struct._ZSo*, !dbg !5775
	%1142 = call %struct._ZSo*  @_ZSt16__ostream_insertIcSt11char_traitsIcEERSt13basic_ostreamIT_T0_ES6_PKS3_l (%struct._ZSo*  %1141, i8*  %1137, i64  %1138), !dbg !5775
	%1143 = bitcast %struct._ZSo*  %1142 to i8*, !dbg !5775
	%1144 = bitcast %struct._ZSo** %.Q0018.addr to i8**, !dbg !5775
	store i8*  %1143, i8**  %1144, align 8, !tbaa !5797, !dbg !5775
	br label %L..inline.66133
L..inline.66133:
	%1145 = load i32, i32* %subcycleCount.addr, align 4, !tbaa !5800, !dbg !5775
	%1146 = bitcast %struct.Logger* @logFile to i8*, !dbg !5775
	%1147 = getelementptr i8, i8*  %1146, i64 32, !dbg !5775
	%1148 = bitcast i8*  %1147 to %struct._ZSo*, !dbg !5775
	%1149 = zext i32  %1145 to i64, !dbg !5775
	%1150 = call %struct._ZSo*  @_ZNSo9_M_insertImEERSoT_ (%struct._ZSo*  %1148, i64  %1149), !dbg !5775
	%1151 = bitcast %struct._ZSo*  %1150 to i8*, !dbg !5775
	%1152 = bitcast %struct._ZSo** %.Q0019.addr to i8**, !dbg !5775
	store i8*  %1151, i8**  %1152, align 8, !tbaa !5797, !dbg !5775
	%1153 = bitcast [5 x i8]* @.S53120 to i8*, !dbg !5775
	%1154 = icmp ne i8*  %1153,  null, !dbg !5775
	br i1  %1154, label %L..inline.66166, label %L.B1198, !dbg !5775
L.B1198:
	%1155 = bitcast %struct.Logger* @logFile to i8*, !dbg !5775
	%1156 = getelementptr i8, i8*  %1155, i64 32, !dbg !5775
	%1157 = bitcast i8*  %1156 to i8**, !dbg !5775
	%1158 = load i8*, i8**  %1157, align 8, !tbaa !5797, !dbg !5775
	%1159 = getelementptr i8, i8*  %1158, i64 18446744073709551592, !dbg !5775
	%1160 = bitcast i8*  %1159 to i64*, !dbg !5775
	%1161 = load i64, i64*  %1160, align 8, !tbaa !5798, !dbg !5775
	%1162 = getelementptr i8, i8*  %1156, i64  %1161, !dbg !5775
	%1163 = bitcast %struct._ZSt9basic_iosIcSt11char_traitsIcEE** %..inline.addr.1990 to i8**, !dbg !5775
	store i8*  %1162, i8**  %1163, align 8, !tbaa !5797, !dbg !5775
	%1164 = bitcast %struct._ZSt9basic_iosIcSt11char_traitsIcEE** %..inline.addr.2000 to i8**, !dbg !5775
	store i8*  %1162, i8**  %1164, align 8, !tbaa !5797, !dbg !5775
	%1165 = load %struct._ZSt9basic_iosIcSt11char_traitsIcEE*, %struct._ZSt9basic_iosIcSt11char_traitsIcEE** %..inline.addr.2000, align 8, !tbaa !5797, !dbg !5775
	%1166 = bitcast %struct._ZSt9basic_iosIcSt11char_traitsIcEE*  %1165 to i8*, !dbg !5775
	%1167 = getelementptr i8, i8*  %1166, i64 32, !dbg !5775
	%1168 = bitcast i8*  %1167 to i32*, !dbg !5775
	%1169 = load i32, i32*  %1168, align 4, !tbaa !5798, !dbg !5775
	%1170 = or i32  %1169, 1, !dbg !5775
	%1171 = load %struct._ZSt9basic_iosIcSt11char_traitsIcEE*, %struct._ZSt9basic_iosIcSt11char_traitsIcEE** %..inline.addr.1990, align 8, !tbaa !5797, !dbg !5775
	call void  @_ZNSt9basic_iosIcSt11char_traitsIcEE5clearESt12_Ios_Iostate (%struct._ZSt9basic_iosIcSt11char_traitsIcEE*  %1171, i32  %1170), !dbg !5775
	br label %L..inline.66186, !dbg !5775
L..inline.66166:
	%1172 = bitcast [5 x i8]* @.S53120 to i8*, !dbg !5775
	%1173 = call i64  @strlen (i8*  %1172) nounwind, !dbg !5775
	%1174 = bitcast %struct.Logger* @logFile to i8*, !dbg !5775
	%1175 = getelementptr i8, i8*  %1174, i64 32, !dbg !5775
	%1176 = bitcast i8*  %1175 to %struct._ZSo*, !dbg !5775
	%1177 = call %struct._ZSo*  @_ZSt16__ostream_insertIcSt11char_traitsIcEERSt13basic_ostreamIT_T0_ES6_PKS3_l (%struct._ZSo*  %1176, i8*  %1172, i64  %1173), !dbg !5775
	%1178 = bitcast %struct._ZSo*  %1177 to i8*, !dbg !5775
	%1179 = bitcast %struct._ZSo** %.Q0020.addr to i8**, !dbg !5775
	store i8*  %1178, i8**  %1179, align 8, !tbaa !5797, !dbg !5775
	br label %L..inline.66186
L..inline.66186:
	%1180 = load double, double* @_ZN10Parameters1tE, align 8, !tbaa !5806, !dbg !5775
	%1181 = bitcast %struct.Logger* @logFile to i8*, !dbg !5775
	%1182 = getelementptr i8, i8*  %1181, i64 32, !dbg !5775
	%1183 = bitcast i8*  %1182 to %struct._ZSo*, !dbg !5775
	%1184 = call %struct._ZSo*  @_ZNSo9_M_insertIdEERSoT_ (%struct._ZSo*  %1183, double  %1180), !dbg !5775
	%1185 = bitcast %struct._ZSo*  %1184 to i8*, !dbg !5775
	%1186 = bitcast %struct._ZSo** %.Q0021.addr to i8**, !dbg !5775
	store i8*  %1185, i8**  %1186, align 8, !tbaa !5797, !dbg !5775
	%1187 = bitcast [3 x i8]* @.S53122 to i8*, !dbg !5775
	%1188 = icmp ne i8*  %1187,  null, !dbg !5775
	br i1  %1188, label %L..inline.66219, label %L.B1199, !dbg !5775
L.B1199:
	%1189 = bitcast %struct.Logger* @logFile to i8*, !dbg !5775
	%1190 = getelementptr i8, i8*  %1189, i64 32, !dbg !5775
	%1191 = bitcast i8*  %1190 to i8**, !dbg !5775
	%1192 = load i8*, i8**  %1191, align 8, !tbaa !5797, !dbg !5775
	%1193 = getelementptr i8, i8*  %1192, i64 18446744073709551592, !dbg !5775
	%1194 = bitcast i8*  %1193 to i64*, !dbg !5775
	%1195 = load i64, i64*  %1194, align 8, !tbaa !5798, !dbg !5775
	%1196 = getelementptr i8, i8*  %1190, i64  %1195, !dbg !5775
	%1197 = bitcast %struct._ZSt9basic_iosIcSt11char_traitsIcEE** %..inline.addr.2060 to i8**, !dbg !5775
	store i8*  %1196, i8**  %1197, align 8, !tbaa !5797, !dbg !5775
	%1198 = bitcast %struct._ZSt9basic_iosIcSt11char_traitsIcEE** %..inline.addr.2070 to i8**, !dbg !5775
	store i8*  %1196, i8**  %1198, align 8, !tbaa !5797, !dbg !5775
	%1199 = load %struct._ZSt9basic_iosIcSt11char_traitsIcEE*, %struct._ZSt9basic_iosIcSt11char_traitsIcEE** %..inline.addr.2070, align 8, !tbaa !5797, !dbg !5775
	%1200 = bitcast %struct._ZSt9basic_iosIcSt11char_traitsIcEE*  %1199 to i8*, !dbg !5775
	%1201 = getelementptr i8, i8*  %1200, i64 32, !dbg !5775
	%1202 = bitcast i8*  %1201 to i32*, !dbg !5775
	%1203 = load i32, i32*  %1202, align 4, !tbaa !5798, !dbg !5775
	%1204 = or i32  %1203, 1, !dbg !5775
	%1205 = load %struct._ZSt9basic_iosIcSt11char_traitsIcEE*, %struct._ZSt9basic_iosIcSt11char_traitsIcEE** %..inline.addr.2060, align 8, !tbaa !5797, !dbg !5775
	call void  @_ZNSt9basic_iosIcSt11char_traitsIcEE5clearESt12_Ios_Iostate (%struct._ZSt9basic_iosIcSt11char_traitsIcEE*  %1205, i32  %1204), !dbg !5775
	br label %L..inline.66239, !dbg !5775
L..inline.66219:
	%1206 = bitcast [3 x i8]* @.S53122 to i8*, !dbg !5775
	%1207 = call i64  @strlen (i8*  %1206) nounwind, !dbg !5775
	%1208 = bitcast %struct.Logger* @logFile to i8*, !dbg !5775
	%1209 = getelementptr i8, i8*  %1208, i64 32, !dbg !5775
	%1210 = bitcast i8*  %1209 to %struct._ZSo*, !dbg !5775
	%1211 = call %struct._ZSo*  @_ZSt16__ostream_insertIcSt11char_traitsIcEERSt13basic_ostreamIT_T0_ES6_PKS3_l (%struct._ZSo*  %1210, i8*  %1206, i64  %1207), !dbg !5775
	%1212 = bitcast %struct._ZSo*  %1211 to i8*, !dbg !5775
	%1213 = bitcast %struct._ZSo** %.Q0022.addr to i8**, !dbg !5775
	store i8*  %1212, i8**  %1213, align 8, !tbaa !5797, !dbg !5775
	br label %L..inline.66239
L..inline.66239:
	%1214 = call %struct.Logger*  @_ZN6LoggerlsEPFRSoS0_E (%struct.Logger* @logFile, %struct._ZSo* (%struct._ZSo*)* @_ZSt4endlIcSt11char_traitsIcEERSt13basic_ostreamIT_T0_ES6_), !dbg !5780
	%1215 = bitcast %struct.Logger*  %1214 to i8*, !dbg !5780
	%1216 = bitcast %struct.Logger** %.Q0023.addr to i8**, !dbg !5780
	store i8*  %1215, i8**  %1216, align 8, !tbaa !5797, !dbg !5780
	br label %L.B0076
L.B0076:
	br label %L.B0074
L.B0074:
	%1217 = load double, double* %subcycleT.addr, align 8, !tbaa !5806, !dbg !5781
	%1218 = load double, double* %subcycleDt.addr, align 8, !tbaa !5806, !dbg !5781
	%1219 = call double @llvm.fma.f64 (double  %1218, double  1.50000000000000000E+0, double  %1217), !dbg !5781
	%1220 = load double, double* %targetT.addr, align 8, !tbaa !5806, !dbg !5781
	%1221 = fcmp ule double  %1219,  %1220, !dbg !5781
	br i1  %1221, label %L.B0078, label %L.B1200, !dbg !5781
L.B1200:
	%1222 = fsub double  %1220,  %1217, !dbg !5782
	store double  %1222, double* %subcycleDt.addr, align 8, !tbaa !5806, !dbg !5782
	%1223 = load i32, i32* %subcycleCount.addr, align 4, !tbaa !5800, !dbg !5783
	%1224 = add i32  %1223, 1, !dbg !5783
	store i32  %1224, i32* %maxSubcycleCount.addr, align 4, !tbaa !5800, !dbg !5783
	%1225 = load double, double* @_ZN10Parameters17fieldSolverMaxCFLE, align 8, !tbaa !5806, !dbg !5784
	%1226 = load double, double* %dtMaxGlobal.addr, align 8, !tbaa !5806, !dbg !5784
	%1227 = fmul double  %1225,  %1226, !dbg !5784
	%1228 = fcmp ule double  %1222,  %1227, !dbg !5784
	br i1  %1228, label %L.B0079, label %L.B1201, !dbg !5784
L.B1201:
	%1229 = fdiv double  %1222,  2.00000000000000000E+0, !dbg !5785
	store double  %1229, double* %subcycleDt.addr, align 8, !tbaa !5806, !dbg !5785
	%1230 = add i32  %1223, 2, !dbg !5786
	store i32  %1230, i32* %maxSubcycleCount.addr, align 4, !tbaa !5800, !dbg !5786
	br label %L.B0079
L.B0079:
	br label %L.B0078
L.B0078:
	%1231 = bitcast %struct._ZNSt7__cxx1112basic_stringIcSt11char_traitsIcESaIcEEE* %_T32379352_51664.addr to i8*, !dbg !5738
	%1232 = getelementptr i8, i8*  %1231, i64 16, !dbg !5738
	%1233 = bitcast %struct._ZNSt7__cxx1112basic_stringIcSt11char_traitsIcESaIcEEE* %_T32379352_51664.addr to i8**, !dbg !5738
	store i8*  %1232, i8**  %1233, align 8, !tbaa !5797, !dbg !5738
	%1234 = bitcast [18 x i8]* @.S53045 to i8*, !dbg !5738
	%1235 = icmp eq i8*  %1234,  null, !dbg !5738
	br i1  %1235, label %L..inline.66303, label %L.B1202, !dbg !5738
L.B1202:
	%1236 = bitcast [18 x i8]* @.S53045 to i8*, !dbg !5738
	%1237 = call i64  @strlen (i8*  %1236) nounwind, !dbg !5738
	%1238 = getelementptr i8, i8*  %1236, i64  %1237, !dbg !5738
	store i8*  %1238, i8** %..inline.addr.2130, align 8, !tbaa !5797, !dbg !5738
	br label %L..inline.66311, !dbg !5738
L..inline.66303:
	%1239 = bitcast [18 x i8]* @.S53045 to i8*, !dbg !5738
	%1240 = getelementptr i8, i8*  %1239, i64 18446744073709551615, !dbg !5738
	store i8*  %1240, i8** %..inline.addr.2130, align 8, !tbaa !5797, !dbg !5738
	br label %L..inline.66311
L..inline.66311:
	%1241 = load i8*, i8** %..inline.addr.2130, align 8, !tbaa !5797, !dbg !5738
	store i8*  %1241, i8** %..inline.addr.2140, align 8, !tbaa !5797, !dbg !5738
	call void @llvm.dbg.declare (metadata [1 x i8]* %....inline.__FILL_CHARARRAY.addr.2150, metadata !5740, metadata !3943), !dbg !4144
	%1242 = bitcast [1 x i8]* %....inline.__FILL_CHARARRAY.addr.2150 to i8*, !dbg !5739
	%1243 = load i8, i8*  %1242, align 1, !tbaa !5798, !dbg !5739
	%1244 = zext i8  %1243 to i32, !dbg !5739
	%1245 = trunc i32  %1244 to i8, !dbg !5739
	call void @llvm.dbg.declare (metadata [1 x i8]* %....inline.__FILL_CHARARRAY.addr.2160, metadata !5740, metadata !3943), !dbg !4144
	%1246 = bitcast [1 x i8]* %....inline.__FILL_CHARARRAY.addr.2160 to i8*, !dbg !5739
	store i8  %1245, i8*  %1246, align 1, !tbaa !5798, !dbg !5739
	%1247 = bitcast [18 x i8]* @.S53045 to i8*, !dbg !5738
	%1248 = load i8*, i8** %..inline.addr.2140, align 8, !tbaa !5797, !dbg !5738
	%1249 = bitcast %struct._ZSt26random_access_iterator_tag* %..inline.addr.2170 to i8*, !dbg !5738
	%1250 = load i8, i8*  %1249, align 1, !tbaa !5798, !dbg !5738
	invoke void  @_ZNSt7__cxx1112basic_stringIcSt11char_traitsIcESaIcEE12_M_constructIPKcEEvT_S8_St20forward_iterator_tag (%struct._ZNSt7__cxx1112basic_stringIcSt11char_traitsIcESaIcEEE* %_T32379352_51664.addr, i8*  %1247, i8*  %1248, i8  %1250)
		to label %L.B1203
		unwind label %L_T32391408_51664, !dbg !5738
L.B1203:
	%1251 = bitcast %struct._ZNSt7__cxx1112basic_stringIcSt11char_traitsIcESaIcEEE* %_T32377576_51664.addr to i8*, !dbg !5738
	%1252 = getelementptr i8, i8*  %1251, i64 16, !dbg !5738
	%1253 = bitcast %struct._ZNSt7__cxx1112basic_stringIcSt11char_traitsIcESaIcEEE* %_T32377576_51664.addr to i8**, !dbg !5738
	store i8*  %1252, i8**  %1253, align 8, !tbaa !5797, !dbg !5738
	%1254 = bitcast [1 x i8]* @.S53066 to i8*, !dbg !5738
	%1255 = icmp eq i8*  %1254,  null, !dbg !5738
	br i1  %1255, label %L..inline.66376, label %L.B1204, !dbg !5738
L.B1204:
	%1256 = bitcast [1 x i8]* @.S53066 to i8*, !dbg !5738
	%1257 = call i64  @strlen (i8*  %1256) nounwind, !dbg !5738
	%1258 = getelementptr i8, i8*  %1256, i64  %1257, !dbg !5738
	store i8*  %1258, i8** %..inline.addr.2190, align 8, !tbaa !5797, !dbg !5738
	br label %L..inline.66384, !dbg !5738
L..inline.66376:
	%1259 = bitcast [1 x i8]* @.S53066 to i8*, !dbg !5738
	%1260 = getelementptr i8, i8*  %1259, i64 18446744073709551615, !dbg !5738
	store i8*  %1260, i8** %..inline.addr.2190, align 8, !tbaa !5797, !dbg !5738
	br label %L..inline.66384
L..inline.66384:
	%1261 = load i8*, i8** %..inline.addr.2190, align 8, !tbaa !5797, !dbg !5738
	store i8*  %1261, i8** %..inline.addr.2200, align 8, !tbaa !5797, !dbg !5738
	call void @llvm.dbg.declare (metadata [1 x i8]* %....inline.__FILL_CHARARRAY.addr.2210, metadata !5740, metadata !3943), !dbg !4144
	%1262 = bitcast [1 x i8]* %....inline.__FILL_CHARARRAY.addr.2210 to i8*, !dbg !5739
	%1263 = load i8, i8*  %1262, align 1, !tbaa !5798, !dbg !5739
	%1264 = zext i8  %1263 to i32, !dbg !5739
	%1265 = trunc i32  %1264 to i8, !dbg !5739
	call void @llvm.dbg.declare (metadata [1 x i8]* %....inline.__FILL_CHARARRAY.addr.2220, metadata !5740, metadata !3943), !dbg !4144
	%1266 = bitcast [1 x i8]* %....inline.__FILL_CHARARRAY.addr.2220 to i8*, !dbg !5739
	store i8  %1265, i8*  %1266, align 1, !tbaa !5798, !dbg !5739
	%1267 = bitcast [1 x i8]* @.S53066 to i8*, !dbg !5738
	%1268 = load i8*, i8** %..inline.addr.2200, align 8, !tbaa !5797, !dbg !5738
	%1269 = bitcast %struct._ZSt26random_access_iterator_tag* %..inline.addr.2230 to i8*, !dbg !5738
	%1270 = load i8, i8*  %1269, align 1, !tbaa !5798, !dbg !5738
	invoke void  @_ZNSt7__cxx1112basic_stringIcSt11char_traitsIcESaIcEE12_M_constructIPKcEEvT_S8_St20forward_iterator_tag (%struct._ZNSt7__cxx1112basic_stringIcSt11char_traitsIcESaIcEEE* %_T32377576_51664.addr, i8*  %1267, i8*  %1268, i8  %1270)
		to label %L.B1205
		unwind label %L_T32391888_51664, !dbg !5738
L.B1205:
	%1271 = invoke i8  @_ZN7phiprof4stopERKNSt7__cxx1112basic_stringIcSt11char_traitsIcESaIcEEEdS7_ (%struct._ZNSt7__cxx1112basic_stringIcSt11char_traitsIcESaIcEEE* %_T32379352_51664.addr, double -1.00000000000000000E+0, %struct._ZNSt7__cxx1112basic_stringIcSt11char_traitsIcESaIcEEE* %_T32377576_51664.addr)
		to label %L.B1206
		unwind label %L_T32392128_51664, !dbg !5787
L.B1206:
	%1272 = sext i8  %1271 to i32, !dbg !5787
	store i32  %1272, i32* %.Q0024.addr, align 4, !tbaa !5800, !dbg !5787
	%1273 = bitcast %struct._ZNSt7__cxx1112basic_stringIcSt11char_traitsIcESaIcEEE* %_T32377576_51664.addr to i8**, !dbg !5681
	%1274 = load i8*, i8**  %1273, align 8, !tbaa !5797, !dbg !5681
	%1275 = bitcast %struct._ZNSt7__cxx1112basic_stringIcSt11char_traitsIcESaIcEEE* %_T32377576_51664.addr to i8*, !dbg !5681
	%1276 = getelementptr i8, i8*  %1275, i64 16, !dbg !5681
	%1277 = icmp eq i8*  %1274,  %1276, !dbg !5681
	br i1  %1277, label %L..inline.66451, label %L.B1207, !dbg !5681
L.B1207:
	%1278 = bitcast %struct._ZNSt7__cxx1112basic_stringIcSt11char_traitsIcESaIcEEE* %_T32377576_51664.addr to i8**, !dbg !5681
	%1279 = load i8*, i8**  %1278, align 8, !tbaa !5797, !dbg !5681
	call void  @_ZdlPv (i8*  %1279) nounwind, !dbg !5681
	br label %L..inline.66451
L..inline.66451:
	%1280 = bitcast %struct._ZNSt7__cxx1112basic_stringIcSt11char_traitsIcESaIcEEE* %_T32379352_51664.addr to i8**, !dbg !5681
	%1281 = load i8*, i8**  %1280, align 8, !tbaa !5797, !dbg !5681
	%1282 = bitcast %struct._ZNSt7__cxx1112basic_stringIcSt11char_traitsIcESaIcEEE* %_T32379352_51664.addr to i8*, !dbg !5681
	%1283 = getelementptr i8, i8*  %1282, i64 16, !dbg !5681
	%1284 = icmp eq i8*  %1281,  %1283, !dbg !5681
	br i1  %1284, label %L..inline.66538, label %L.B1208, !dbg !5681
L.B1208:
	%1285 = bitcast %struct._ZNSt7__cxx1112basic_stringIcSt11char_traitsIcESaIcEEE* %_T32379352_51664.addr to i8**, !dbg !5681
	%1286 = load i8*, i8**  %1285, align 8, !tbaa !5797, !dbg !5681
	call void  @_ZdlPv (i8*  %1286) nounwind, !dbg !5681
	br label %L..inline.66538
L..inline.66538:
	%1287 = load i32, i32* %subcycleCount.addr, align 4, !tbaa !5800, !dbg !5788
	%1288 = load i32, i32* %maxSubcycleCount.addr, align 4, !tbaa !5800, !dbg !5788
	%1289 = icmp ult i32  %1287,  %1288, !dbg !5788
	br i1  %1289, label %L.B0034, label %L.N0012, !dbg !5788
L.N0012:
	br label %L..inline.65132
L..inline.65132:
	br label %L_T32392608_51664
L_T32392608_51664:
	%1290 = load i32, i32* %subcycles.addr, align 4, !tbaa !5800, !dbg !5789
	%1291 = load i32, i32* %subcycleCount.addr, align 4, !tbaa !5800, !dbg !5789
	%1292 = icmp eq i32  %1290,  %1291, !dbg !5789
	br i1  %1292, label %L.B0081, label %L.B1209, !dbg !5789
L.B1209:
	%1293 = load i32, i32* %myRank.addr, align 4, !tbaa !5800, !dbg !5789
	%1294 = icmp ne i32  %1293, 0, !dbg !5789
	br i1  %1294, label %L.B0081, label %L.B1210, !dbg !5789
L.B1210:
	%1295 = bitcast [39 x i8]* @.S53130 to i8*, !dbg !5775
	%1296 = icmp ne i8*  %1295,  null, !dbg !5775
	br i1  %1296, label %L..inline.66588, label %L.B1211, !dbg !5775
L.B1211:
	%1297 = bitcast %struct.Logger* @logFile to i8*, !dbg !5775
	%1298 = getelementptr i8, i8*  %1297, i64 32, !dbg !5775
	%1299 = bitcast i8*  %1298 to i8**, !dbg !5775
	%1300 = load i8*, i8**  %1299, align 8, !tbaa !5797, !dbg !5775
	%1301 = getelementptr i8, i8*  %1300, i64 18446744073709551592, !dbg !5775
	%1302 = bitcast i8*  %1301 to i64*, !dbg !5775
	%1303 = load i64, i64*  %1302, align 8, !tbaa !5798, !dbg !5775
	%1304 = getelementptr i8, i8*  %1298, i64  %1303, !dbg !5775
	%1305 = bitcast %struct._ZSt9basic_iosIcSt11char_traitsIcEE** %..inline.addr.2270 to i8**, !dbg !5775
	store i8*  %1304, i8**  %1305, align 8, !tbaa !5797, !dbg !5775
	%1306 = bitcast %struct._ZSt9basic_iosIcSt11char_traitsIcEE** %..inline.addr.2280 to i8**, !dbg !5775
	store i8*  %1304, i8**  %1306, align 8, !tbaa !5797, !dbg !5775
	%1307 = load %struct._ZSt9basic_iosIcSt11char_traitsIcEE*, %struct._ZSt9basic_iosIcSt11char_traitsIcEE** %..inline.addr.2280, align 8, !tbaa !5797, !dbg !5775
	%1308 = bitcast %struct._ZSt9basic_iosIcSt11char_traitsIcEE*  %1307 to i8*, !dbg !5775
	%1309 = getelementptr i8, i8*  %1308, i64 32, !dbg !5775
	%1310 = bitcast i8*  %1309 to i32*, !dbg !5775
	%1311 = load i32, i32*  %1310, align 4, !tbaa !5798, !dbg !5775
	%1312 = or i32  %1311, 1, !dbg !5775
	%1313 = load %struct._ZSt9basic_iosIcSt11char_traitsIcEE*, %struct._ZSt9basic_iosIcSt11char_traitsIcEE** %..inline.addr.2270, align 8, !tbaa !5797, !dbg !5775
	call void  @_ZNSt9basic_iosIcSt11char_traitsIcEE5clearESt12_Ios_Iostate (%struct._ZSt9basic_iosIcSt11char_traitsIcEE*  %1313, i32  %1312), !dbg !5775
	br label %L..inline.66608, !dbg !5775
L..inline.66588:
	%1314 = bitcast [39 x i8]* @.S53130 to i8*, !dbg !5775
	%1315 = call i64  @strlen (i8*  %1314) nounwind, !dbg !5775
	%1316 = bitcast %struct.Logger* @logFile to i8*, !dbg !5775
	%1317 = getelementptr i8, i8*  %1316, i64 32, !dbg !5775
	%1318 = bitcast i8*  %1317 to %struct._ZSo*, !dbg !5775
	%1319 = call %struct._ZSo*  @_ZSt16__ostream_insertIcSt11char_traitsIcEERSt13basic_ostreamIT_T0_ES6_PKS3_l (%struct._ZSo*  %1318, i8*  %1314, i64  %1315), !dbg !5775
	%1320 = bitcast %struct._ZSo*  %1319 to i8*, !dbg !5775
	%1321 = bitcast %struct._ZSo** %.Q0025.addr to i8**, !dbg !5775
	store i8*  %1320, i8**  %1321, align 8, !tbaa !5797, !dbg !5775
	br label %L..inline.66608
L..inline.66608:
	%1322 = load i32, i32* %subcycleCount.addr, align 4, !tbaa !5800, !dbg !5775
	%1323 = bitcast %struct.Logger* @logFile to i8*, !dbg !5775
	%1324 = getelementptr i8, i8*  %1323, i64 32, !dbg !5775
	%1325 = bitcast i8*  %1324 to %struct._ZSo*, !dbg !5775
	%1326 = zext i32  %1322 to i64, !dbg !5775
	%1327 = call %struct._ZSo*  @_ZNSo9_M_insertImEERSoT_ (%struct._ZSo*  %1325, i64  %1326), !dbg !5775
	%1328 = bitcast %struct._ZSo*  %1327 to i8*, !dbg !5775
	%1329 = bitcast %struct._ZSo** %.Q0026.addr to i8**, !dbg !5775
	store i8*  %1328, i8**  %1329, align 8, !tbaa !5797, !dbg !5775
	%1330 = bitcast [13 x i8]* @.S53132 to i8*, !dbg !5775
	%1331 = icmp ne i8*  %1330,  null, !dbg !5775
	br i1  %1331, label %L..inline.66641, label %L.B1212, !dbg !5775
L.B1212:
	%1332 = bitcast %struct.Logger* @logFile to i8*, !dbg !5775
	%1333 = getelementptr i8, i8*  %1332, i64 32, !dbg !5775
	%1334 = bitcast i8*  %1333 to i8**, !dbg !5775
	%1335 = load i8*, i8**  %1334, align 8, !tbaa !5797, !dbg !5775
	%1336 = getelementptr i8, i8*  %1335, i64 18446744073709551592, !dbg !5775
	%1337 = bitcast i8*  %1336 to i64*, !dbg !5775
	%1338 = load i64, i64*  %1337, align 8, !tbaa !5798, !dbg !5775
	%1339 = getelementptr i8, i8*  %1333, i64  %1338, !dbg !5775
	%1340 = bitcast %struct._ZSt9basic_iosIcSt11char_traitsIcEE** %..inline.addr.2340 to i8**, !dbg !5775
	store i8*  %1339, i8**  %1340, align 8, !tbaa !5797, !dbg !5775
	%1341 = bitcast %struct._ZSt9basic_iosIcSt11char_traitsIcEE** %..inline.addr.2350 to i8**, !dbg !5775
	store i8*  %1339, i8**  %1341, align 8, !tbaa !5797, !dbg !5775
	%1342 = load %struct._ZSt9basic_iosIcSt11char_traitsIcEE*, %struct._ZSt9basic_iosIcSt11char_traitsIcEE** %..inline.addr.2350, align 8, !tbaa !5797, !dbg !5775
	%1343 = bitcast %struct._ZSt9basic_iosIcSt11char_traitsIcEE*  %1342 to i8*, !dbg !5775
	%1344 = getelementptr i8, i8*  %1343, i64 32, !dbg !5775
	%1345 = bitcast i8*  %1344 to i32*, !dbg !5775
	%1346 = load i32, i32*  %1345, align 4, !tbaa !5798, !dbg !5775
	%1347 = or i32  %1346, 1, !dbg !5775
	%1348 = load %struct._ZSt9basic_iosIcSt11char_traitsIcEE*, %struct._ZSt9basic_iosIcSt11char_traitsIcEE** %..inline.addr.2340, align 8, !tbaa !5797, !dbg !5775
	call void  @_ZNSt9basic_iosIcSt11char_traitsIcEE5clearESt12_Ios_Iostate (%struct._ZSt9basic_iosIcSt11char_traitsIcEE*  %1348, i32  %1347), !dbg !5775
	br label %L..inline.66661, !dbg !5775
L..inline.66641:
	%1349 = bitcast [13 x i8]* @.S53132 to i8*, !dbg !5775
	%1350 = call i64  @strlen (i8*  %1349) nounwind, !dbg !5775
	%1351 = bitcast %struct.Logger* @logFile to i8*, !dbg !5775
	%1352 = getelementptr i8, i8*  %1351, i64 32, !dbg !5775
	%1353 = bitcast i8*  %1352 to %struct._ZSo*, !dbg !5775
	%1354 = call %struct._ZSo*  @_ZSt16__ostream_insertIcSt11char_traitsIcEERSt13basic_ostreamIT_T0_ES6_PKS3_l (%struct._ZSo*  %1353, i8*  %1349, i64  %1350), !dbg !5775
	%1355 = bitcast %struct._ZSo*  %1354 to i8*, !dbg !5775
	%1356 = bitcast %struct._ZSo** %.Q0027.addr to i8**, !dbg !5775
	store i8*  %1355, i8**  %1356, align 8, !tbaa !5797, !dbg !5775
	br label %L..inline.66661
L..inline.66661:
	%1357 = load i32, i32* @_ZN10Parameters20fieldSolverSubcyclesE, align 4, !tbaa !5800, !dbg !5775
	%1358 = bitcast %struct.Logger* @logFile to i8*, !dbg !5775
	%1359 = getelementptr i8, i8*  %1358, i64 32, !dbg !5775
	%1360 = bitcast i8*  %1359 to %struct._ZSo*, !dbg !5775
	%1361 = zext i32  %1357 to i64, !dbg !5775
	%1362 = call %struct._ZSo*  @_ZNSo9_M_insertImEERSoT_ (%struct._ZSo*  %1360, i64  %1361), !dbg !5775
	%1363 = bitcast %struct._ZSo*  %1362 to i8*, !dbg !5775
	%1364 = bitcast %struct._ZSo** %.Q0028.addr to i8**, !dbg !5775
	store i8*  %1363, i8**  %1364, align 8, !tbaa !5797, !dbg !5775
	%1365 = bitcast [10 x i8]* @.S53134 to i8*, !dbg !5775
	%1366 = icmp ne i8*  %1365,  null, !dbg !5775
	br i1  %1366, label %L..inline.66694, label %L.B1213, !dbg !5775
L.B1213:
	%1367 = bitcast %struct.Logger* @logFile to i8*, !dbg !5775
	%1368 = getelementptr i8, i8*  %1367, i64 32, !dbg !5775
	%1369 = bitcast i8*  %1368 to i8**, !dbg !5775
	%1370 = load i8*, i8**  %1369, align 8, !tbaa !5797, !dbg !5775
	%1371 = getelementptr i8, i8*  %1370, i64 18446744073709551592, !dbg !5775
	%1372 = bitcast i8*  %1371 to i64*, !dbg !5775
	%1373 = load i64, i64*  %1372, align 8, !tbaa !5798, !dbg !5775
	%1374 = getelementptr i8, i8*  %1368, i64  %1373, !dbg !5775
	%1375 = bitcast %struct._ZSt9basic_iosIcSt11char_traitsIcEE** %..inline.addr.2410 to i8**, !dbg !5775
	store i8*  %1374, i8**  %1375, align 8, !tbaa !5797, !dbg !5775
	%1376 = bitcast %struct._ZSt9basic_iosIcSt11char_traitsIcEE** %..inline.addr.2420 to i8**, !dbg !5775
	store i8*  %1374, i8**  %1376, align 8, !tbaa !5797, !dbg !5775
	%1377 = load %struct._ZSt9basic_iosIcSt11char_traitsIcEE*, %struct._ZSt9basic_iosIcSt11char_traitsIcEE** %..inline.addr.2420, align 8, !tbaa !5797, !dbg !5775
	%1378 = bitcast %struct._ZSt9basic_iosIcSt11char_traitsIcEE*  %1377 to i8*, !dbg !5775
	%1379 = getelementptr i8, i8*  %1378, i64 32, !dbg !5775
	%1380 = bitcast i8*  %1379 to i32*, !dbg !5775
	%1381 = load i32, i32*  %1380, align 4, !tbaa !5798, !dbg !5775
	%1382 = or i32  %1381, 1, !dbg !5775
	%1383 = load %struct._ZSt9basic_iosIcSt11char_traitsIcEE*, %struct._ZSt9basic_iosIcSt11char_traitsIcEE** %..inline.addr.2410, align 8, !tbaa !5797, !dbg !5775
	call void  @_ZNSt9basic_iosIcSt11char_traitsIcEE5clearESt12_Ios_Iostate (%struct._ZSt9basic_iosIcSt11char_traitsIcEE*  %1383, i32  %1382), !dbg !5775
	br label %L..inline.66714, !dbg !5775
L..inline.66694:
	%1384 = bitcast [10 x i8]* @.S53134 to i8*, !dbg !5775
	%1385 = call i64  @strlen (i8*  %1384) nounwind, !dbg !5775
	%1386 = bitcast %struct.Logger* @logFile to i8*, !dbg !5775
	%1387 = getelementptr i8, i8*  %1386, i64 32, !dbg !5775
	%1388 = bitcast i8*  %1387 to %struct._ZSo*, !dbg !5775
	%1389 = call %struct._ZSo*  @_ZSt16__ostream_insertIcSt11char_traitsIcEERSt13basic_ostreamIT_T0_ES6_PKS3_l (%struct._ZSo*  %1388, i8*  %1384, i64  %1385), !dbg !5775
	%1390 = bitcast %struct._ZSo*  %1389 to i8*, !dbg !5775
	%1391 = bitcast %struct._ZSo** %.Q0029.addr to i8**, !dbg !5775
	store i8*  %1390, i8**  %1391, align 8, !tbaa !5797, !dbg !5775
	br label %L..inline.66714
L..inline.66714:
	%1392 = load i32, i32* @_ZN10Parameters5tstepE, align 4, !tbaa !5800, !dbg !5775
	%1393 = bitcast %struct.Logger* @logFile to i8*, !dbg !5775
	%1394 = getelementptr i8, i8*  %1393, i64 32, !dbg !5775
	%1395 = bitcast i8*  %1394 to %struct._ZSo*, !dbg !5775
	%1396 = zext i32  %1392 to i64, !dbg !5775
	%1397 = call %struct._ZSo*  @_ZNSo9_M_insertImEERSoT_ (%struct._ZSo*  %1395, i64  %1396), !dbg !5775
	%1398 = bitcast %struct._ZSo*  %1397 to i8*, !dbg !5775
	%1399 = bitcast %struct._ZSo** %.Q0030.addr to i8**, !dbg !5775
	store i8*  %1398, i8**  %1399, align 8, !tbaa !5797, !dbg !5775
	%1400 = call %struct.Logger*  @_ZN6LoggerlsEPFRSoS0_E (%struct.Logger* @logFile, %struct._ZSo* (%struct._ZSo*)* @_ZSt4endlIcSt11char_traitsIcEERSt13basic_ostreamIT_T0_ES6_), !dbg !5780
	%1401 = bitcast %struct.Logger*  %1400 to i8*, !dbg !5780
	%1402 = bitcast %struct.Logger** %.Q0031.addr to i8**, !dbg !5780
	store i8*  %1401, i8**  %1402, align 8, !tbaa !5797, !dbg !5780
	br label %L.B0081
L.B0081:
	br label %L.B0032
L.B0032:
	%1403 = load %struct._Z6FsGridISt5arrayIdLm3EELi2EE*, %struct._Z6FsGridISt5arrayIdLm3EELi2EE** %perBGrid.addr, align 8, !tbaa !5797, !dbg !5792
	%1404 = load %struct._Z6FsGridISt5arrayIdLm3EELi2EE*, %struct._Z6FsGridISt5arrayIdLm3EELi2EE** %EGrid.addr, align 8, !tbaa !5797, !dbg !5792
	%1405 = load %struct._Z6FsGridISt5arrayIdLm15EELi2EE*, %struct._Z6FsGridISt5arrayIdLm15EELi2EE** %dPerBGrid.addr, align 8, !tbaa !5797, !dbg !5792
	%1406 = load %struct._Z6FsGridISt5arrayIdLm12EELi2EE*, %struct._Z6FsGridISt5arrayIdLm12EELi2EE** %volGrid.addr, align 8, !tbaa !5797, !dbg !5792
	%1407 = load %struct._Z6FsGridIN7fsgrids9technicalELi2EE*, %struct._Z6FsGridIN7fsgrids9technicalELi2EE** %technicalGrid.addr, align 8, !tbaa !5797, !dbg !5792
	call void  @_Z29calculateVolumeAveragedFieldsR6FsGridISt5arrayIdLm3EELi2EES3_RS_IS0_IdLm15EELi2EERS_IS0_IdLm12EELi2EERS_IN7fsgrids9technicalELi2EE (%struct._Z6FsGridISt5arrayIdLm3EELi2EE*  %1403, %struct._Z6FsGridISt5arrayIdLm3EELi2EE*  %1404, %struct._Z6FsGridISt5arrayIdLm15EELi2EE*  %1405, %struct._Z6FsGridISt5arrayIdLm12EELi2EE*  %1406, %struct._Z6FsGridIN7fsgrids9technicalELi2EE*  %1407), !dbg !5792
	%1408 = load %struct._Z6FsGridISt5arrayIdLm12EELi2EE*, %struct._Z6FsGridISt5arrayIdLm12EELi2EE** %volGrid.addr, align 8, !tbaa !5797, !dbg !5793
	%1409 = load %struct._Z6FsGridIN7fsgrids9technicalELi2EE*, %struct._Z6FsGridIN7fsgrids9technicalELi2EE** %technicalGrid.addr, align 8, !tbaa !5797, !dbg !5793
	%1410 = load %struct.SysBoundary*, %struct.SysBoundary** %sysBoundaries.addr, align 8, !tbaa !5797, !dbg !5793
	call void  @_Z30calculateBVOLDerivativesSimpleR6FsGridISt5arrayIdLm12EELi2EERS_IN7fsgrids9technicalELi2EER11SysBoundary (%struct._Z6FsGridISt5arrayIdLm12EELi2EE*  %1408, %struct._Z6FsGridIN7fsgrids9technicalELi2EE*  %1409, %struct.SysBoundary*  %1410), !dbg !5793
	ret i8 1, !dbg !5794
L.B1214:
	br label %L.R0003, !dbg !5794
L_T32388528_51664:
	%1411 = landingpad %astruct.dt64
	cleanup
	%1412 = extractvalue %astruct.dt64  %1411, 0, !dbg !5794
	store i8*  %1412, i8** %__caught_object_address.addr, align 1, !tbaa !5797, !dbg !5794
	%1413 = extractvalue %astruct.dt64  %1411, 1, !dbg !5794
	store i32  %1413, i32* %__catch_clause_number.addr, align 1, !tbaa !5798, !dbg !5794
	br label %L_T32388648_51664
L_T32388648_51664:
	call void  @_ZNSaIcED1Ev (%struct._ZSaIcE* %_T32377280_51664.addr) nounwind, !dbg !5794
	%1414 = load i32, i32* %__catch_clause_number.addr, align 4, !tbaa !5798, !dbg !5794
	%1415 = load i8*, i8** %__caught_object_address.addr, align 8, !tbaa !5797, !dbg !5794
	%1416 = insertvalue %astruct.dt64 undef, i8*  %1415, 0, !dbg !5794
	%1417 = insertvalue %astruct.dt64  %1416, i32  %1414, 1, !dbg !5794
	resume %astruct.dt64  %1417 , !dbg !5794
L_T32388768_51664:
	%1418 = landingpad %astruct.dt64
	cleanup
	%1419 = extractvalue %astruct.dt64  %1418, 0, !dbg !5794
	store i8*  %1419, i8** %__caught_object_address.addr, align 1, !tbaa !5797, !dbg !5794
	%1420 = extractvalue %astruct.dt64  %1418, 1, !dbg !5794
	store i32  %1420, i32* %__catch_clause_number.addr, align 1, !tbaa !5798, !dbg !5794
	call void  @_ZNSt7__cxx1112basic_stringIcSt11char_traitsIcESaIcEED1Ev (%struct._ZNSt7__cxx1112basic_stringIcSt11char_traitsIcESaIcEEE* %_T32377576_51664.addr) nounwind, !dbg !5794
	br label %L_T32388648_51664, !dbg !5794
L_T32389008_51664:
	%1421 = landingpad %astruct.dt64
	cleanup
	%1422 = extractvalue %astruct.dt64  %1421, 0, !dbg !5794
	store i8*  %1422, i8** %__caught_object_address.addr, align 1, !tbaa !5797, !dbg !5794
	%1423 = extractvalue %astruct.dt64  %1421, 1, !dbg !5794
	store i32  %1423, i32* %__catch_clause_number.addr, align 1, !tbaa !5798, !dbg !5794
	br label %L_T32389128_51664
L_T32389128_51664:
	call void  @_ZNSaIcED1Ev (%struct._ZSaIcE* %_T32377872_51664.addr) nounwind, !dbg !5794
	%1424 = load i32, i32* %__catch_clause_number.addr, align 4, !tbaa !5798, !dbg !5794
	%1425 = load i8*, i8** %__caught_object_address.addr, align 8, !tbaa !5797, !dbg !5794
	%1426 = insertvalue %astruct.dt64 undef, i8*  %1425, 0, !dbg !5794
	%1427 = insertvalue %astruct.dt64  %1426, i32  %1424, 1, !dbg !5794
	resume %astruct.dt64  %1427 , !dbg !5794
L_T32389248_51664:
	%1428 = landingpad %astruct.dt64
	cleanup
	%1429 = extractvalue %astruct.dt64  %1428, 0, !dbg !5794
	store i8*  %1429, i8** %__caught_object_address.addr, align 1, !tbaa !5797, !dbg !5794
	%1430 = extractvalue %astruct.dt64  %1428, 1, !dbg !5794
	store i32  %1430, i32* %__catch_clause_number.addr, align 1, !tbaa !5798, !dbg !5794
	br label %L_T32389368_51664
L_T32389368_51664:
	call void  @_ZNSt7__cxx1112basic_stringIcSt11char_traitsIcESaIcEED1Ev (%struct._ZNSt7__cxx1112basic_stringIcSt11char_traitsIcESaIcEEE* %_T32378168_51664.addr) nounwind, !dbg !5794
	br label %L_T32389128_51664, !dbg !5794
L_T32389488_51664:
	%1431 = landingpad %astruct.dt64
	cleanup
	%1432 = extractvalue %astruct.dt64  %1431, 0, !dbg !5794
	store i8*  %1432, i8** %__caught_object_address.addr, align 1, !tbaa !5797, !dbg !5794
	%1433 = extractvalue %astruct.dt64  %1431, 1, !dbg !5794
	store i32  %1433, i32* %__catch_clause_number.addr, align 1, !tbaa !5798, !dbg !5794
	br label %L_T32389608_51664
L_T32389608_51664:
	call void  @_ZNSaIcED1Ev (%struct._ZSaIcE* %_T32378464_51664.addr) nounwind, !dbg !5794
	br label %L_T32389368_51664, !dbg !5794
L_T32389728_51664:
	%1434 = landingpad %astruct.dt64
	cleanup
	%1435 = extractvalue %astruct.dt64  %1434, 0, !dbg !5794
	store i8*  %1435, i8** %__caught_object_address.addr, align 1, !tbaa !5797, !dbg !5794
	%1436 = extractvalue %astruct.dt64  %1434, 1, !dbg !5794
	store i32  %1436, i32* %__catch_clause_number.addr, align 1, !tbaa !5798, !dbg !5794
	call void  @_ZNSt7__cxx1112basic_stringIcSt11char_traitsIcESaIcEED1Ev (%struct._ZNSt7__cxx1112basic_stringIcSt11char_traitsIcESaIcEEE* %_T32378760_51664.addr) nounwind, !dbg !5794
	br label %L_T32389608_51664, !dbg !5794
L_T32389968_51664:
	%1437 = landingpad %astruct.dt64
	cleanup
	%1438 = extractvalue %astruct.dt64  %1437, 0, !dbg !5794
	store i8*  %1438, i8** %__caught_object_address.addr, align 1, !tbaa !5797, !dbg !5794
	%1439 = extractvalue %astruct.dt64  %1437, 1, !dbg !5794
	store i32  %1439, i32* %__catch_clause_number.addr, align 1, !tbaa !5798, !dbg !5794
	br label %L_T32390088_51664
L_T32390088_51664:
	call void  @_ZNSaIcED1Ev (%struct._ZSaIcE* %_T32377280_51664.addr) nounwind, !dbg !5794
	%1440 = load i32, i32* %__catch_clause_number.addr, align 4, !tbaa !5798, !dbg !5794
	%1441 = load i8*, i8** %__caught_object_address.addr, align 8, !tbaa !5797, !dbg !5794
	%1442 = insertvalue %astruct.dt64 undef, i8*  %1441, 0, !dbg !5794
	%1443 = insertvalue %astruct.dt64  %1442, i32  %1440, 1, !dbg !5794
	resume %astruct.dt64  %1443 , !dbg !5794
L_T32390208_51664:
	%1444 = landingpad %astruct.dt64
	cleanup
	%1445 = extractvalue %astruct.dt64  %1444, 0, !dbg !5794
	store i8*  %1445, i8** %__caught_object_address.addr, align 1, !tbaa !5797, !dbg !5794
	%1446 = extractvalue %astruct.dt64  %1444, 1, !dbg !5794
	store i32  %1446, i32* %__catch_clause_number.addr, align 1, !tbaa !5798, !dbg !5794
	call void  @_ZNSt7__cxx1112basic_stringIcSt11char_traitsIcESaIcEED1Ev (%struct._ZNSt7__cxx1112basic_stringIcSt11char_traitsIcESaIcEEE* %_T32377576_51664.addr) nounwind, !dbg !5794
	br label %L_T32390088_51664, !dbg !5794
L_T32390448_51664:
	%1447 = landingpad %astruct.dt64
	cleanup
	%1448 = extractvalue %astruct.dt64  %1447, 0, !dbg !5794
	store i8*  %1448, i8** %__caught_object_address.addr, align 1, !tbaa !5797, !dbg !5794
	%1449 = extractvalue %astruct.dt64  %1447, 1, !dbg !5794
	store i32  %1449, i32* %__catch_clause_number.addr, align 1, !tbaa !5798, !dbg !5794
	br label %L_T32390568_51664
L_T32390568_51664:
	call void  @_ZNSaIcED1Ev (%struct._ZSaIcE* %_T32377280_51664.addr) nounwind, !dbg !5794
	%1450 = load i32, i32* %__catch_clause_number.addr, align 4, !tbaa !5798, !dbg !5794
	%1451 = load i8*, i8** %__caught_object_address.addr, align 8, !tbaa !5797, !dbg !5794
	%1452 = insertvalue %astruct.dt64 undef, i8*  %1451, 0, !dbg !5794
	%1453 = insertvalue %astruct.dt64  %1452, i32  %1450, 1, !dbg !5794
	resume %astruct.dt64  %1453 , !dbg !5794
L_T32390688_51664:
	%1454 = landingpad %astruct.dt64
	cleanup
	%1455 = extractvalue %astruct.dt64  %1454, 0, !dbg !5794
	store i8*  %1455, i8** %__caught_object_address.addr, align 1, !tbaa !5797, !dbg !5794
	%1456 = extractvalue %astruct.dt64  %1454, 1, !dbg !5794
	store i32  %1456, i32* %__catch_clause_number.addr, align 1, !tbaa !5798, !dbg !5794
	br label %L_T32390808_51664
L_T32390808_51664:
	call void  @_ZNSt7__cxx1112basic_stringIcSt11char_traitsIcESaIcEED1Ev (%struct._ZNSt7__cxx1112basic_stringIcSt11char_traitsIcESaIcEEE* %_T32377576_51664.addr) nounwind, !dbg !5794
	br label %L_T32390568_51664, !dbg !5794
L_T32390928_51664:
	%1457 = landingpad %astruct.dt64
	cleanup
	%1458 = extractvalue %astruct.dt64  %1457, 0, !dbg !5794
	store i8*  %1458, i8** %__caught_object_address.addr, align 1, !tbaa !5797, !dbg !5794
	%1459 = extractvalue %astruct.dt64  %1457, 1, !dbg !5794
	store i32  %1459, i32* %__catch_clause_number.addr, align 1, !tbaa !5798, !dbg !5794
	br label %L_T32391048_51664
L_T32391048_51664:
	call void  @_ZNSaIcED1Ev (%struct._ZSaIcE* %_T32379056_51664.addr) nounwind, !dbg !5794
	br label %L_T32390808_51664, !dbg !5794
L_T32391168_51664:
	%1460 = landingpad %astruct.dt64
	cleanup
	%1461 = extractvalue %astruct.dt64  %1460, 0, !dbg !5794
	store i8*  %1461, i8** %__caught_object_address.addr, align 1, !tbaa !5797, !dbg !5794
	%1462 = extractvalue %astruct.dt64  %1460, 1, !dbg !5794
	store i32  %1462, i32* %__catch_clause_number.addr, align 1, !tbaa !5798, !dbg !5794
	call void  @_ZNSt7__cxx1112basic_stringIcSt11char_traitsIcESaIcEED1Ev (%struct._ZNSt7__cxx1112basic_stringIcSt11char_traitsIcESaIcEEE* %_T32379352_51664.addr) nounwind, !dbg !5794
	br label %L_T32391048_51664, !dbg !5794
L_T32391408_51664:
	%1463 = landingpad %astruct.dt64
	cleanup
	%1464 = extractvalue %astruct.dt64  %1463, 0, !dbg !5794
	store i8*  %1464, i8** %__caught_object_address.addr, align 1, !tbaa !5797, !dbg !5794
	%1465 = extractvalue %astruct.dt64  %1463, 1, !dbg !5794
	store i32  %1465, i32* %__catch_clause_number.addr, align 1, !tbaa !5798, !dbg !5794
	br label %L_T32391528_51664
L_T32391528_51664:
	call void  @_ZNSaIcED1Ev (%struct._ZSaIcE* %_T32379056_51664.addr) nounwind, !dbg !5794
	%1466 = load i32, i32* %__catch_clause_number.addr, align 4, !tbaa !5798, !dbg !5794
	%1467 = load i8*, i8** %__caught_object_address.addr, align 8, !tbaa !5797, !dbg !5794
	%1468 = insertvalue %astruct.dt64 undef, i8*  %1467, 0, !dbg !5794
	%1469 = insertvalue %astruct.dt64  %1468, i32  %1466, 1, !dbg !5794
	resume %astruct.dt64  %1469 , !dbg !5794
L_T32391648_51664:
	%1470 = landingpad %astruct.dt64
	cleanup
	%1471 = extractvalue %astruct.dt64  %1470, 0, !dbg !5794
	store i8*  %1471, i8** %__caught_object_address.addr, align 1, !tbaa !5797, !dbg !5794
	%1472 = extractvalue %astruct.dt64  %1470, 1, !dbg !5794
	store i32  %1472, i32* %__catch_clause_number.addr, align 1, !tbaa !5798, !dbg !5794
	br label %L_T32391768_51664
L_T32391768_51664:
	call void  @_ZNSt7__cxx1112basic_stringIcSt11char_traitsIcESaIcEED1Ev (%struct._ZNSt7__cxx1112basic_stringIcSt11char_traitsIcESaIcEEE* %_T32379352_51664.addr) nounwind, !dbg !5794
	br label %L_T32391528_51664, !dbg !5794
L_T32391888_51664:
	%1473 = landingpad %astruct.dt64
	cleanup
	%1474 = extractvalue %astruct.dt64  %1473, 0, !dbg !5794
	store i8*  %1474, i8** %__caught_object_address.addr, align 1, !tbaa !5797, !dbg !5794
	%1475 = extractvalue %astruct.dt64  %1473, 1, !dbg !5794
	store i32  %1475, i32* %__catch_clause_number.addr, align 1, !tbaa !5798, !dbg !5794
	br label %L_T32392008_51664
L_T32392008_51664:
	call void  @_ZNSaIcED1Ev (%struct._ZSaIcE* %_T32377280_51664.addr) nounwind, !dbg !5794
	br label %L_T32391768_51664, !dbg !5794
L_T32392128_51664:
	%1476 = landingpad %astruct.dt64
	cleanup
	%1477 = extractvalue %astruct.dt64  %1476, 0, !dbg !5794
	store i8*  %1477, i8** %__caught_object_address.addr, align 1, !tbaa !5797, !dbg !5794
	%1478 = extractvalue %astruct.dt64  %1476, 1, !dbg !5794
	store i32  %1478, i32* %__catch_clause_number.addr, align 1, !tbaa !5798, !dbg !5794
	call void  @_ZNSt7__cxx1112basic_stringIcSt11char_traitsIcESaIcEED1Ev (%struct._ZNSt7__cxx1112basic_stringIcSt11char_traitsIcESaIcEEE* %_T32377576_51664.addr) nounwind, !dbg !5794
	br label %L_T32392008_51664, !dbg !5794
L.R0003:
	ret i8 0
}
define linkonce_odr double @_Z7convertIdET_RKS0_(double* %number.arg) #0 !dbg !5812 {
L.entry:
	%number.addr = alloca double*, align 8

	call void @llvm.dbg.declare (metadata double** %number.addr, metadata !5816, metadata !3943), !dbg !5813
	store double* %number.arg, double** %number.addr, align 8, !tbaa !5797
	call void @llvm.dbg.declare (metadata double** %number.addr, metadata !5817, metadata !3943), !dbg !5813
	%0 = load double*, double** %number.addr, align 8, !tbaa !5797, !dbg !5818
	%1 = load double, double*  %0, align 8, !tbaa !5798, !dbg !5818
	ret double  %1, !dbg !5818
}
define linkonce_odr %struct.Logger* @_ZN6LoggerlsIA43_cEERS_RKT_(%struct.Logger* %_T32714576_51671.arg, [43 x i8]* %value.arg) #0 inlinehint !dbg !5829 {
L.entry:
	%_T32714576_51671.addr = alloca %struct.Logger*, align 8
	%value.addr = alloca [43 x i8]*, align 8
	%..inline.addr = alloca %struct._ZSo*, align 8
	%..inline.addr.1 = alloca i8*, align 8
	%..inline.addr.2 = alloca %struct._ZSt9basic_iosIcSt11char_traitsIcEE*, align 8
	%..inline.addr.3 = alloca %struct._ZSt9basic_iosIcSt11char_traitsIcEE*, align 8
	%..inline.addr.4 = alloca i32, align 4
	%..inline.addr.5 = alloca i8*, align 8
	%..inline.addr.6 = alloca i64, align 8
	%.Q0032.addr = alloca %struct._ZSo*, align 8

	call void @llvm.dbg.declare (metadata %struct.Logger** %_T32714576_51671.addr, metadata !5853, metadata !3943), !dbg !5830
	store %struct.Logger* %_T32714576_51671.arg, %struct.Logger** %_T32714576_51671.addr, align 8, !tbaa !5797
	call void @llvm.dbg.declare (metadata %struct.Logger** %_T32714576_51671.addr, metadata !5854, metadata !3943), !dbg !5830
	call void @llvm.dbg.declare (metadata [43 x i8]** %value.addr, metadata !5855, metadata !3943), !dbg !5830
	store [43 x i8]* %value.arg, [43 x i8]** %value.addr, align 8, !tbaa !5797
	call void @llvm.dbg.declare (metadata [43 x i8]** %value.addr, metadata !5856, metadata !3943), !dbg !5830
	%0 = load %struct.Logger*, %struct.Logger** %_T32714576_51671.addr, align 8, !tbaa !5797, !dbg !5857
	%1 = bitcast %struct.Logger*  %0 to i8*, !dbg !5857
	%2 = getelementptr i8, i8*  %1, i64 32, !dbg !5857
	%3 = bitcast %struct._ZSo** %..inline.addr to i8**, !dbg !5857
	store i8*  %2, i8**  %3, align 8, !tbaa !5797, !dbg !5857
	%4 = load [43 x i8]*, [43 x i8]** %value.addr, align 8, !tbaa !5797, !dbg !5857
	%5 = bitcast [43 x i8]*  %4 to i8*, !dbg !5857
	store i8*  %5, i8** %..inline.addr.1, align 8, !tbaa !5797, !dbg !5857
	%6 = icmp ne i8*  %5,  null, !dbg !5857
	br i1  %6, label %L..inline.67968, label %L.B1217, !dbg !5857
L.B1217:
	%7 = load %struct._ZSo*, %struct._ZSo** %..inline.addr, align 8, !tbaa !5797, !dbg !5858
	%8 = bitcast %struct._ZSo*  %7 to i8*, !dbg !5858
	%9 = bitcast %struct._ZSo*  %7 to i8**, !dbg !5858
	%10 = load i8*, i8**  %9, align 8, !tbaa !5797, !dbg !5858
	%11 = getelementptr i8, i8*  %10, i64 18446744073709551592, !dbg !5858
	%12 = bitcast i8*  %11 to i64*, !dbg !5858
	%13 = load i64, i64*  %12, align 8, !tbaa !5798, !dbg !5858
	%14 = getelementptr i8, i8*  %8, i64  %13, !dbg !5858
	%15 = bitcast %struct._ZSt9basic_iosIcSt11char_traitsIcEE** %..inline.addr.2 to i8**, !dbg !5858
	store i8*  %14, i8**  %15, align 8, !tbaa !5797, !dbg !5858
	%16 = load %struct._ZSt9basic_iosIcSt11char_traitsIcEE*, %struct._ZSt9basic_iosIcSt11char_traitsIcEE** %..inline.addr.2, align 8, !tbaa !5797, !dbg !5858
	%17 = bitcast %struct._ZSt9basic_iosIcSt11char_traitsIcEE*  %16 to i8*, !dbg !5858
	%18 = bitcast %struct._ZSt9basic_iosIcSt11char_traitsIcEE** %..inline.addr.3 to i8**, !dbg !5858
	store i8*  %17, i8**  %18, align 8, !tbaa !5797, !dbg !5858
	%19 = load %struct._ZSt9basic_iosIcSt11char_traitsIcEE*, %struct._ZSt9basic_iosIcSt11char_traitsIcEE** %..inline.addr.3, align 8, !tbaa !5797, !dbg !5858
	%20 = bitcast %struct._ZSt9basic_iosIcSt11char_traitsIcEE*  %19 to i8*, !dbg !5858
	%21 = getelementptr i8, i8*  %20, i64 32, !dbg !5858
	%22 = bitcast i8*  %21 to i32*, !dbg !5858
	%23 = load i32, i32*  %22, align 4, !tbaa !5798, !dbg !5858
	%24 = or i32  %23, 1, !dbg !5858
	call void  @_ZNSt9basic_iosIcSt11char_traitsIcEE5clearESt12_Ios_Iostate (%struct._ZSt9basic_iosIcSt11char_traitsIcEE*  %16, i32  %24), !dbg !5858
	br label %L..inline.67989, !dbg !5858
L..inline.67968:
	%25 = load [43 x i8]*, [43 x i8]** %value.addr, align 8, !tbaa !5797, !dbg !5859
	%26 = bitcast [43 x i8]*  %25 to i8*, !dbg !5859
	%27 = call i64  @strlen (i8*  %26) nounwind, !dbg !5859
	%28 = load %struct._ZSo*, %struct._ZSo** %..inline.addr, align 8, !tbaa !5797, !dbg !5859
	%29 = load i8*, i8** %..inline.addr.1, align 8, !tbaa !5797, !dbg !5859
	%30 = call %struct._ZSo*  @_ZSt16__ostream_insertIcSt11char_traitsIcEERSt13basic_ostreamIT_T0_ES6_PKS3_l (%struct._ZSo*  %28, i8*  %29, i64  %27), !dbg !5859
	%31 = bitcast %struct._ZSo*  %30 to i8*, !dbg !5859
	%32 = bitcast %struct._ZSo** %.Q0032.addr to i8**, !dbg !5859
	store i8*  %31, i8**  %32, align 8, !tbaa !5797, !dbg !5859
	br label %L..inline.67989
L..inline.67989:
	%33 = load %struct.Logger*, %struct.Logger** %_T32714576_51671.addr, align 8, !tbaa !5797, !dbg !5860
	ret %struct.Logger*  %33, !dbg !5860
}
define linkonce_odr %struct.Logger* @_ZN6LoggerlsIdEERS_RKT_(%struct.Logger* %_T32714576_51672.arg, double* %value.arg) #0 inlinehint !dbg !5865 {
L.entry:
	%_T32714576_51672.addr = alloca %struct.Logger*, align 8
	%value.addr = alloca double*, align 8
	%..inline.addr = alloca %struct._ZSo*, align 8
	%..inline.addr.1 = alloca double, align 8
	%.Q0033.addr = alloca %struct._ZSo*, align 8

	call void @llvm.dbg.declare (metadata %struct.Logger** %_T32714576_51672.addr, metadata !5873, metadata !3943), !dbg !5866
	store %struct.Logger* %_T32714576_51672.arg, %struct.Logger** %_T32714576_51672.addr, align 8, !tbaa !5797
	call void @llvm.dbg.declare (metadata %struct.Logger** %_T32714576_51672.addr, metadata !5874, metadata !3943), !dbg !5866
	call void @llvm.dbg.declare (metadata double** %value.addr, metadata !5875, metadata !3943), !dbg !5866
	store double* %value.arg, double** %value.addr, align 8, !tbaa !5797
	call void @llvm.dbg.declare (metadata double** %value.addr, metadata !5876, metadata !3943), !dbg !5866
	%0 = load %struct.Logger*, %struct.Logger** %_T32714576_51672.addr, align 8, !tbaa !5797, !dbg !5877
	%1 = bitcast %struct.Logger*  %0 to i8*, !dbg !5877
	%2 = getelementptr i8, i8*  %1, i64 32, !dbg !5877
	%3 = bitcast %struct._ZSo** %..inline.addr to i8**, !dbg !5877
	store i8*  %2, i8**  %3, align 8, !tbaa !5797, !dbg !5877
	%4 = load double*, double** %value.addr, align 8, !tbaa !5797, !dbg !5877
	%5 = load double, double*  %4, align 8, !tbaa !5798, !dbg !5877
	%6 = load %struct._ZSo*, %struct._ZSo** %..inline.addr, align 8, !tbaa !5797, !dbg !5878
	%7 = call %struct._ZSo*  @_ZNSo9_M_insertIdEERSoT_ (%struct._ZSo*  %6, double  %5), !dbg !5878
	%8 = bitcast %struct._ZSo*  %7 to i8*, !dbg !5878
	%9 = bitcast %struct._ZSo** %.Q0033.addr to i8**, !dbg !5878
	store i8*  %8, i8**  %9, align 8, !tbaa !5797, !dbg !5878
	%10 = load %struct.Logger*, %struct.Logger** %_T32714576_51672.addr, align 8, !tbaa !5797, !dbg !5879
	ret %struct.Logger*  %10, !dbg !5879
}
define linkonce_odr %struct.Logger* @_ZN6LoggerlsIA19_cEERS_RKT_(%struct.Logger* %_T32714576_51674.arg, [19 x i8]* %value.arg) #0 inlinehint !dbg !5888 {
L.entry:
	%_T32714576_51674.addr = alloca %struct.Logger*, align 8
	%value.addr = alloca [19 x i8]*, align 8
	%..inline.addr = alloca %struct._ZSo*, align 8
	%..inline.addr.1 = alloca i8*, align 8
	%..inline.addr.2 = alloca %struct._ZSt9basic_iosIcSt11char_traitsIcEE*, align 8
	%..inline.addr.3 = alloca %struct._ZSt9basic_iosIcSt11char_traitsIcEE*, align 8
	%..inline.addr.4 = alloca i32, align 4
	%..inline.addr.5 = alloca i8*, align 8
	%..inline.addr.6 = alloca i64, align 8
	%.Q0034.addr = alloca %struct._ZSo*, align 8

	call void @llvm.dbg.declare (metadata %struct.Logger** %_T32714576_51674.addr, metadata !5912, metadata !3943), !dbg !5889
	store %struct.Logger* %_T32714576_51674.arg, %struct.Logger** %_T32714576_51674.addr, align 8, !tbaa !5797
	call void @llvm.dbg.declare (metadata %struct.Logger** %_T32714576_51674.addr, metadata !5913, metadata !3943), !dbg !5889
	call void @llvm.dbg.declare (metadata [19 x i8]** %value.addr, metadata !5914, metadata !3943), !dbg !5889
	store [19 x i8]* %value.arg, [19 x i8]** %value.addr, align 8, !tbaa !5797
	call void @llvm.dbg.declare (metadata [19 x i8]** %value.addr, metadata !5915, metadata !3943), !dbg !5889
	%0 = load %struct.Logger*, %struct.Logger** %_T32714576_51674.addr, align 8, !tbaa !5797, !dbg !5916
	%1 = bitcast %struct.Logger*  %0 to i8*, !dbg !5916
	%2 = getelementptr i8, i8*  %1, i64 32, !dbg !5916
	%3 = bitcast %struct._ZSo** %..inline.addr to i8**, !dbg !5916
	store i8*  %2, i8**  %3, align 8, !tbaa !5797, !dbg !5916
	%4 = load [19 x i8]*, [19 x i8]** %value.addr, align 8, !tbaa !5797, !dbg !5916
	%5 = bitcast [19 x i8]*  %4 to i8*, !dbg !5916
	store i8*  %5, i8** %..inline.addr.1, align 8, !tbaa !5797, !dbg !5916
	%6 = icmp ne i8*  %5,  null, !dbg !5916
	br i1  %6, label %L..inline.68035, label %L.B1222, !dbg !5916
L.B1222:
	%7 = load %struct._ZSo*, %struct._ZSo** %..inline.addr, align 8, !tbaa !5797, !dbg !5917
	%8 = bitcast %struct._ZSo*  %7 to i8*, !dbg !5917
	%9 = bitcast %struct._ZSo*  %7 to i8**, !dbg !5917
	%10 = load i8*, i8**  %9, align 8, !tbaa !5797, !dbg !5917
	%11 = getelementptr i8, i8*  %10, i64 18446744073709551592, !dbg !5917
	%12 = bitcast i8*  %11 to i64*, !dbg !5917
	%13 = load i64, i64*  %12, align 8, !tbaa !5798, !dbg !5917
	%14 = getelementptr i8, i8*  %8, i64  %13, !dbg !5917
	%15 = bitcast %struct._ZSt9basic_iosIcSt11char_traitsIcEE** %..inline.addr.2 to i8**, !dbg !5917
	store i8*  %14, i8**  %15, align 8, !tbaa !5797, !dbg !5917
	%16 = load %struct._ZSt9basic_iosIcSt11char_traitsIcEE*, %struct._ZSt9basic_iosIcSt11char_traitsIcEE** %..inline.addr.2, align 8, !tbaa !5797, !dbg !5917
	%17 = bitcast %struct._ZSt9basic_iosIcSt11char_traitsIcEE*  %16 to i8*, !dbg !5917
	%18 = bitcast %struct._ZSt9basic_iosIcSt11char_traitsIcEE** %..inline.addr.3 to i8**, !dbg !5917
	store i8*  %17, i8**  %18, align 8, !tbaa !5797, !dbg !5917
	%19 = load %struct._ZSt9basic_iosIcSt11char_traitsIcEE*, %struct._ZSt9basic_iosIcSt11char_traitsIcEE** %..inline.addr.3, align 8, !tbaa !5797, !dbg !5917
	%20 = bitcast %struct._ZSt9basic_iosIcSt11char_traitsIcEE*  %19 to i8*, !dbg !5917
	%21 = getelementptr i8, i8*  %20, i64 32, !dbg !5917
	%22 = bitcast i8*  %21 to i32*, !dbg !5917
	%23 = load i32, i32*  %22, align 4, !tbaa !5798, !dbg !5917
	%24 = or i32  %23, 1, !dbg !5917
	call void  @_ZNSt9basic_iosIcSt11char_traitsIcEE5clearESt12_Ios_Iostate (%struct._ZSt9basic_iosIcSt11char_traitsIcEE*  %16, i32  %24), !dbg !5917
	br label %L..inline.68056, !dbg !5917
L..inline.68035:
	%25 = load [19 x i8]*, [19 x i8]** %value.addr, align 8, !tbaa !5797, !dbg !5918
	%26 = bitcast [19 x i8]*  %25 to i8*, !dbg !5918
	%27 = call i64  @strlen (i8*  %26) nounwind, !dbg !5918
	%28 = load %struct._ZSo*, %struct._ZSo** %..inline.addr, align 8, !tbaa !5797, !dbg !5918
	%29 = load i8*, i8** %..inline.addr.1, align 8, !tbaa !5797, !dbg !5918
	%30 = call %struct._ZSo*  @_ZSt16__ostream_insertIcSt11char_traitsIcEERSt13basic_ostreamIT_T0_ES6_PKS3_l (%struct._ZSo*  %28, i8*  %29, i64  %27), !dbg !5918
	%31 = bitcast %struct._ZSo*  %30 to i8*, !dbg !5918
	%32 = bitcast %struct._ZSo** %.Q0034.addr to i8**, !dbg !5918
	store i8*  %31, i8**  %32, align 8, !tbaa !5797, !dbg !5918
	br label %L..inline.68056
L..inline.68056:
	%33 = load %struct.Logger*, %struct.Logger** %_T32714576_51674.addr, align 8, !tbaa !5797, !dbg !5919
	ret %struct.Logger*  %33, !dbg !5919
}
define linkonce_odr %struct.Logger* @_ZN6LoggerlsIjEERS_RKT_(%struct.Logger* %_T32714576_51675.arg, i32* %value.arg) #0 inlinehint !dbg !5925 {
L.entry:
	%_T32714576_51675.addr = alloca %struct.Logger*, align 8
	%value.addr = alloca i32*, align 8
	%..inline.addr = alloca %struct._ZSo*, align 8
	%..inline.addr.1 = alloca i32, align 4
	%.Q0035.addr = alloca %struct._ZSo*, align 8

	call void @llvm.dbg.declare (metadata %struct.Logger** %_T32714576_51675.addr, metadata !5933, metadata !3943), !dbg !5926
	store %struct.Logger* %_T32714576_51675.arg, %struct.Logger** %_T32714576_51675.addr, align 8, !tbaa !5797
	call void @llvm.dbg.declare (metadata %struct.Logger** %_T32714576_51675.addr, metadata !5934, metadata !3943), !dbg !5926
	call void @llvm.dbg.declare (metadata i32** %value.addr, metadata !5935, metadata !3943), !dbg !5926
	store i32* %value.arg, i32** %value.addr, align 8, !tbaa !5797
	call void @llvm.dbg.declare (metadata i32** %value.addr, metadata !5936, metadata !3943), !dbg !5926
	%0 = load %struct.Logger*, %struct.Logger** %_T32714576_51675.addr, align 8, !tbaa !5797, !dbg !5937
	%1 = bitcast %struct.Logger*  %0 to i8*, !dbg !5937
	%2 = getelementptr i8, i8*  %1, i64 32, !dbg !5937
	%3 = bitcast %struct._ZSo** %..inline.addr to i8**, !dbg !5937
	store i8*  %2, i8**  %3, align 8, !tbaa !5797, !dbg !5937
	%4 = load i32*, i32** %value.addr, align 8, !tbaa !5797, !dbg !5937
	%5 = load i32, i32*  %4, align 4, !tbaa !5798, !dbg !5937
	%6 = load %struct._ZSo*, %struct._ZSo** %..inline.addr, align 8, !tbaa !5797, !dbg !5938
	%7 = zext i32  %5 to i64, !dbg !5938
	%8 = call %struct._ZSo*  @_ZNSo9_M_insertImEERSoT_ (%struct._ZSo*  %6, i64  %7), !dbg !5938
	%9 = bitcast %struct._ZSo*  %8 to i8*, !dbg !5938
	%10 = bitcast %struct._ZSo** %.Q0035.addr to i8**, !dbg !5938
	store i8*  %9, i8**  %10, align 8, !tbaa !5797, !dbg !5938
	%11 = load %struct.Logger*, %struct.Logger** %_T32714576_51675.addr, align 8, !tbaa !5797, !dbg !5939
	ret %struct.Logger*  %11, !dbg !5939
}
define linkonce_odr %struct.Logger* @_ZN6LoggerlsIA14_cEERS_RKT_(%struct.Logger* %_T32714576_51677.arg, [14 x i8]* %value.arg) #0 inlinehint !dbg !5948 {
L.entry:
	%_T32714576_51677.addr = alloca %struct.Logger*, align 8
	%value.addr = alloca [14 x i8]*, align 8
	%..inline.addr = alloca %struct._ZSo*, align 8
	%..inline.addr.1 = alloca i8*, align 8
	%..inline.addr.2 = alloca %struct._ZSt9basic_iosIcSt11char_traitsIcEE*, align 8
	%..inline.addr.3 = alloca %struct._ZSt9basic_iosIcSt11char_traitsIcEE*, align 8
	%..inline.addr.4 = alloca i32, align 4
	%..inline.addr.5 = alloca i8*, align 8
	%..inline.addr.6 = alloca i64, align 8
	%.Q0036.addr = alloca %struct._ZSo*, align 8

	call void @llvm.dbg.declare (metadata %struct.Logger** %_T32714576_51677.addr, metadata !5972, metadata !3943), !dbg !5949
	store %struct.Logger* %_T32714576_51677.arg, %struct.Logger** %_T32714576_51677.addr, align 8, !tbaa !5797
	call void @llvm.dbg.declare (metadata %struct.Logger** %_T32714576_51677.addr, metadata !5973, metadata !3943), !dbg !5949
	call void @llvm.dbg.declare (metadata [14 x i8]** %value.addr, metadata !5974, metadata !3943), !dbg !5949
	store [14 x i8]* %value.arg, [14 x i8]** %value.addr, align 8, !tbaa !5797
	call void @llvm.dbg.declare (metadata [14 x i8]** %value.addr, metadata !5975, metadata !3943), !dbg !5949
	%0 = load %struct.Logger*, %struct.Logger** %_T32714576_51677.addr, align 8, !tbaa !5797, !dbg !5976
	%1 = bitcast %struct.Logger*  %0 to i8*, !dbg !5976
	%2 = getelementptr i8, i8*  %1, i64 32, !dbg !5976
	%3 = bitcast %struct._ZSo** %..inline.addr to i8**, !dbg !5976
	store i8*  %2, i8**  %3, align 8, !tbaa !5797, !dbg !5976
	%4 = load [14 x i8]*, [14 x i8]** %value.addr, align 8, !tbaa !5797, !dbg !5976
	%5 = bitcast [14 x i8]*  %4 to i8*, !dbg !5976
	store i8*  %5, i8** %..inline.addr.1, align 8, !tbaa !5797, !dbg !5976
	%6 = icmp ne i8*  %5,  null, !dbg !5976
	br i1  %6, label %L..inline.68102, label %L.B1227, !dbg !5976
L.B1227:
	%7 = load %struct._ZSo*, %struct._ZSo** %..inline.addr, align 8, !tbaa !5797, !dbg !5977
	%8 = bitcast %struct._ZSo*  %7 to i8*, !dbg !5977
	%9 = bitcast %struct._ZSo*  %7 to i8**, !dbg !5977
	%10 = load i8*, i8**  %9, align 8, !tbaa !5797, !dbg !5977
	%11 = getelementptr i8, i8*  %10, i64 18446744073709551592, !dbg !5977
	%12 = bitcast i8*  %11 to i64*, !dbg !5977
	%13 = load i64, i64*  %12, align 8, !tbaa !5798, !dbg !5977
	%14 = getelementptr i8, i8*  %8, i64  %13, !dbg !5977
	%15 = bitcast %struct._ZSt9basic_iosIcSt11char_traitsIcEE** %..inline.addr.2 to i8**, !dbg !5977
	store i8*  %14, i8**  %15, align 8, !tbaa !5797, !dbg !5977
	%16 = load %struct._ZSt9basic_iosIcSt11char_traitsIcEE*, %struct._ZSt9basic_iosIcSt11char_traitsIcEE** %..inline.addr.2, align 8, !tbaa !5797, !dbg !5977
	%17 = bitcast %struct._ZSt9basic_iosIcSt11char_traitsIcEE*  %16 to i8*, !dbg !5977
	%18 = bitcast %struct._ZSt9basic_iosIcSt11char_traitsIcEE** %..inline.addr.3 to i8**, !dbg !5977
	store i8*  %17, i8**  %18, align 8, !tbaa !5797, !dbg !5977
	%19 = load %struct._ZSt9basic_iosIcSt11char_traitsIcEE*, %struct._ZSt9basic_iosIcSt11char_traitsIcEE** %..inline.addr.3, align 8, !tbaa !5797, !dbg !5977
	%20 = bitcast %struct._ZSt9basic_iosIcSt11char_traitsIcEE*  %19 to i8*, !dbg !5977
	%21 = getelementptr i8, i8*  %20, i64 32, !dbg !5977
	%22 = bitcast i8*  %21 to i32*, !dbg !5977
	%23 = load i32, i32*  %22, align 4, !tbaa !5798, !dbg !5977
	%24 = or i32  %23, 1, !dbg !5977
	call void  @_ZNSt9basic_iosIcSt11char_traitsIcEE5clearESt12_Ios_Iostate (%struct._ZSt9basic_iosIcSt11char_traitsIcEE*  %16, i32  %24), !dbg !5977
	br label %L..inline.68123, !dbg !5977
L..inline.68102:
	%25 = load [14 x i8]*, [14 x i8]** %value.addr, align 8, !tbaa !5797, !dbg !5978
	%26 = bitcast [14 x i8]*  %25 to i8*, !dbg !5978
	%27 = call i64  @strlen (i8*  %26) nounwind, !dbg !5978
	%28 = load %struct._ZSo*, %struct._ZSo** %..inline.addr, align 8, !tbaa !5797, !dbg !5978
	%29 = load i8*, i8** %..inline.addr.1, align 8, !tbaa !5797, !dbg !5978
	%30 = call %struct._ZSo*  @_ZSt16__ostream_insertIcSt11char_traitsIcEERSt13basic_ostreamIT_T0_ES6_PKS3_l (%struct._ZSo*  %28, i8*  %29, i64  %27), !dbg !5978
	%31 = bitcast %struct._ZSo*  %30 to i8*, !dbg !5978
	%32 = bitcast %struct._ZSo** %.Q0036.addr to i8**, !dbg !5978
	store i8*  %31, i8**  %32, align 8, !tbaa !5797, !dbg !5978
	br label %L..inline.68123
L..inline.68123:
	%33 = load %struct.Logger*, %struct.Logger** %_T32714576_51677.addr, align 8, !tbaa !5797, !dbg !5979
	ret %struct.Logger*  %33, !dbg !5979
}
define linkonce_odr %struct.Logger* @_ZN6LoggerlsIA5_cEERS_RKT_(%struct.Logger* %_T32714576_51678.arg, [5 x i8]* %value.arg) #0 inlinehint !dbg !5986 {
L.entry:
	%_T32714576_51678.addr = alloca %struct.Logger*, align 8
	%value.addr = alloca [5 x i8]*, align 8
	%..inline.addr = alloca %struct._ZSo*, align 8
	%..inline.addr.1 = alloca i8*, align 8
	%..inline.addr.2 = alloca %struct._ZSt9basic_iosIcSt11char_traitsIcEE*, align 8
	%..inline.addr.3 = alloca %struct._ZSt9basic_iosIcSt11char_traitsIcEE*, align 8
	%..inline.addr.4 = alloca i32, align 4
	%..inline.addr.5 = alloca i8*, align 8
	%..inline.addr.6 = alloca i64, align 8
	%.Q0037.addr = alloca %struct._ZSo*, align 8

	call void @llvm.dbg.declare (metadata %struct.Logger** %_T32714576_51678.addr, metadata !6010, metadata !3943), !dbg !5987
	store %struct.Logger* %_T32714576_51678.arg, %struct.Logger** %_T32714576_51678.addr, align 8, !tbaa !5797
	call void @llvm.dbg.declare (metadata %struct.Logger** %_T32714576_51678.addr, metadata !6011, metadata !3943), !dbg !5987
	call void @llvm.dbg.declare (metadata [5 x i8]** %value.addr, metadata !6012, metadata !3943), !dbg !5987
	store [5 x i8]* %value.arg, [5 x i8]** %value.addr, align 8, !tbaa !5797
	call void @llvm.dbg.declare (metadata [5 x i8]** %value.addr, metadata !6013, metadata !3943), !dbg !5987
	%0 = load %struct.Logger*, %struct.Logger** %_T32714576_51678.addr, align 8, !tbaa !5797, !dbg !6014
	%1 = bitcast %struct.Logger*  %0 to i8*, !dbg !6014
	%2 = getelementptr i8, i8*  %1, i64 32, !dbg !6014
	%3 = bitcast %struct._ZSo** %..inline.addr to i8**, !dbg !6014
	store i8*  %2, i8**  %3, align 8, !tbaa !5797, !dbg !6014
	%4 = load [5 x i8]*, [5 x i8]** %value.addr, align 8, !tbaa !5797, !dbg !6014
	%5 = bitcast [5 x i8]*  %4 to i8*, !dbg !6014
	store i8*  %5, i8** %..inline.addr.1, align 8, !tbaa !5797, !dbg !6014
	%6 = icmp ne i8*  %5,  null, !dbg !6014
	br i1  %6, label %L..inline.68154, label %L.B1230, !dbg !6014
L.B1230:
	%7 = load %struct._ZSo*, %struct._ZSo** %..inline.addr, align 8, !tbaa !5797, !dbg !6015
	%8 = bitcast %struct._ZSo*  %7 to i8*, !dbg !6015
	%9 = bitcast %struct._ZSo*  %7 to i8**, !dbg !6015
	%10 = load i8*, i8**  %9, align 8, !tbaa !5797, !dbg !6015
	%11 = getelementptr i8, i8*  %10, i64 18446744073709551592, !dbg !6015
	%12 = bitcast i8*  %11 to i64*, !dbg !6015
	%13 = load i64, i64*  %12, align 8, !tbaa !5798, !dbg !6015
	%14 = getelementptr i8, i8*  %8, i64  %13, !dbg !6015
	%15 = bitcast %struct._ZSt9basic_iosIcSt11char_traitsIcEE** %..inline.addr.2 to i8**, !dbg !6015
	store i8*  %14, i8**  %15, align 8, !tbaa !5797, !dbg !6015
	%16 = load %struct._ZSt9basic_iosIcSt11char_traitsIcEE*, %struct._ZSt9basic_iosIcSt11char_traitsIcEE** %..inline.addr.2, align 8, !tbaa !5797, !dbg !6015
	%17 = bitcast %struct._ZSt9basic_iosIcSt11char_traitsIcEE*  %16 to i8*, !dbg !6015
	%18 = bitcast %struct._ZSt9basic_iosIcSt11char_traitsIcEE** %..inline.addr.3 to i8**, !dbg !6015
	store i8*  %17, i8**  %18, align 8, !tbaa !5797, !dbg !6015
	%19 = load %struct._ZSt9basic_iosIcSt11char_traitsIcEE*, %struct._ZSt9basic_iosIcSt11char_traitsIcEE** %..inline.addr.3, align 8, !tbaa !5797, !dbg !6015
	%20 = bitcast %struct._ZSt9basic_iosIcSt11char_traitsIcEE*  %19 to i8*, !dbg !6015
	%21 = getelementptr i8, i8*  %20, i64 32, !dbg !6015
	%22 = bitcast i8*  %21 to i32*, !dbg !6015
	%23 = load i32, i32*  %22, align 4, !tbaa !5798, !dbg !6015
	%24 = or i32  %23, 1, !dbg !6015
	call void  @_ZNSt9basic_iosIcSt11char_traitsIcEE5clearESt12_Ios_Iostate (%struct._ZSt9basic_iosIcSt11char_traitsIcEE*  %16, i32  %24), !dbg !6015
	br label %L..inline.68175, !dbg !6015
L..inline.68154:
	%25 = load [5 x i8]*, [5 x i8]** %value.addr, align 8, !tbaa !5797, !dbg !6016
	%26 = bitcast [5 x i8]*  %25 to i8*, !dbg !6016
	%27 = call i64  @strlen (i8*  %26) nounwind, !dbg !6016
	%28 = load %struct._ZSo*, %struct._ZSo** %..inline.addr, align 8, !tbaa !5797, !dbg !6016
	%29 = load i8*, i8** %..inline.addr.1, align 8, !tbaa !5797, !dbg !6016
	%30 = call %struct._ZSo*  @_ZSt16__ostream_insertIcSt11char_traitsIcEERSt13basic_ostreamIT_T0_ES6_PKS3_l (%struct._ZSo*  %28, i8*  %29, i64  %27), !dbg !6016
	%31 = bitcast %struct._ZSo*  %30 to i8*, !dbg !6016
	%32 = bitcast %struct._ZSo** %.Q0037.addr to i8**, !dbg !6016
	store i8*  %31, i8**  %32, align 8, !tbaa !5797, !dbg !6016
	br label %L..inline.68175
L..inline.68175:
	%33 = load %struct.Logger*, %struct.Logger** %_T32714576_51678.addr, align 8, !tbaa !5797, !dbg !6017
	ret %struct.Logger*  %33, !dbg !6017
}
define linkonce_odr %struct.Logger* @_ZN6LoggerlsIA3_cEERS_RKT_(%struct.Logger* %_T32714576_51679.arg, [3 x i8]* %value.arg) #0 inlinehint !dbg !6023 {
L.entry:
	%_T32714576_51679.addr = alloca %struct.Logger*, align 8
	%value.addr = alloca [3 x i8]*, align 8
	%..inline.addr = alloca %struct._ZSo*, align 8
	%..inline.addr.1 = alloca i8*, align 8
	%..inline.addr.2 = alloca %struct._ZSt9basic_iosIcSt11char_traitsIcEE*, align 8
	%..inline.addr.3 = alloca %struct._ZSt9basic_iosIcSt11char_traitsIcEE*, align 8
	%..inline.addr.4 = alloca i32, align 4
	%..inline.addr.5 = alloca i8*, align 8
	%..inline.addr.6 = alloca i64, align 8
	%.Q0038.addr = alloca %struct._ZSo*, align 8

	call void @llvm.dbg.declare (metadata %struct.Logger** %_T32714576_51679.addr, metadata !6047, metadata !3943), !dbg !6024
	store %struct.Logger* %_T32714576_51679.arg, %struct.Logger** %_T32714576_51679.addr, align 8, !tbaa !5797
	call void @llvm.dbg.declare (metadata %struct.Logger** %_T32714576_51679.addr, metadata !6048, metadata !3943), !dbg !6024
	call void @llvm.dbg.declare (metadata [3 x i8]** %value.addr, metadata !6049, metadata !3943), !dbg !6024
	store [3 x i8]* %value.arg, [3 x i8]** %value.addr, align 8, !tbaa !5797
	call void @llvm.dbg.declare (metadata [3 x i8]** %value.addr, metadata !6050, metadata !3943), !dbg !6024
	%0 = load %struct.Logger*, %struct.Logger** %_T32714576_51679.addr, align 8, !tbaa !5797, !dbg !6051
	%1 = bitcast %struct.Logger*  %0 to i8*, !dbg !6051
	%2 = getelementptr i8, i8*  %1, i64 32, !dbg !6051
	%3 = bitcast %struct._ZSo** %..inline.addr to i8**, !dbg !6051
	store i8*  %2, i8**  %3, align 8, !tbaa !5797, !dbg !6051
	%4 = load [3 x i8]*, [3 x i8]** %value.addr, align 8, !tbaa !5797, !dbg !6051
	%5 = bitcast [3 x i8]*  %4 to i8*, !dbg !6051
	store i8*  %5, i8** %..inline.addr.1, align 8, !tbaa !5797, !dbg !6051
	%6 = icmp ne i8*  %5,  null, !dbg !6051
	br i1  %6, label %L..inline.68206, label %L.B1233, !dbg !6051
L.B1233:
	%7 = load %struct._ZSo*, %struct._ZSo** %..inline.addr, align 8, !tbaa !5797, !dbg !6052
	%8 = bitcast %struct._ZSo*  %7 to i8*, !dbg !6052
	%9 = bitcast %struct._ZSo*  %7 to i8**, !dbg !6052
	%10 = load i8*, i8**  %9, align 8, !tbaa !5797, !dbg !6052
	%11 = getelementptr i8, i8*  %10, i64 18446744073709551592, !dbg !6052
	%12 = bitcast i8*  %11 to i64*, !dbg !6052
	%13 = load i64, i64*  %12, align 8, !tbaa !5798, !dbg !6052
	%14 = getelementptr i8, i8*  %8, i64  %13, !dbg !6052
	%15 = bitcast %struct._ZSt9basic_iosIcSt11char_traitsIcEE** %..inline.addr.2 to i8**, !dbg !6052
	store i8*  %14, i8**  %15, align 8, !tbaa !5797, !dbg !6052
	%16 = load %struct._ZSt9basic_iosIcSt11char_traitsIcEE*, %struct._ZSt9basic_iosIcSt11char_traitsIcEE** %..inline.addr.2, align 8, !tbaa !5797, !dbg !6052
	%17 = bitcast %struct._ZSt9basic_iosIcSt11char_traitsIcEE*  %16 to i8*, !dbg !6052
	%18 = bitcast %struct._ZSt9basic_iosIcSt11char_traitsIcEE** %..inline.addr.3 to i8**, !dbg !6052
	store i8*  %17, i8**  %18, align 8, !tbaa !5797, !dbg !6052
	%19 = load %struct._ZSt9basic_iosIcSt11char_traitsIcEE*, %struct._ZSt9basic_iosIcSt11char_traitsIcEE** %..inline.addr.3, align 8, !tbaa !5797, !dbg !6052
	%20 = bitcast %struct._ZSt9basic_iosIcSt11char_traitsIcEE*  %19 to i8*, !dbg !6052
	%21 = getelementptr i8, i8*  %20, i64 32, !dbg !6052
	%22 = bitcast i8*  %21 to i32*, !dbg !6052
	%23 = load i32, i32*  %22, align 4, !tbaa !5798, !dbg !6052
	%24 = or i32  %23, 1, !dbg !6052
	call void  @_ZNSt9basic_iosIcSt11char_traitsIcEE5clearESt12_Ios_Iostate (%struct._ZSt9basic_iosIcSt11char_traitsIcEE*  %16, i32  %24), !dbg !6052
	br label %L..inline.68227, !dbg !6052
L..inline.68206:
	%25 = load [3 x i8]*, [3 x i8]** %value.addr, align 8, !tbaa !5797, !dbg !6053
	%26 = bitcast [3 x i8]*  %25 to i8*, !dbg !6053
	%27 = call i64  @strlen (i8*  %26) nounwind, !dbg !6053
	%28 = load %struct._ZSo*, %struct._ZSo** %..inline.addr, align 8, !tbaa !5797, !dbg !6053
	%29 = load i8*, i8** %..inline.addr.1, align 8, !tbaa !5797, !dbg !6053
	%30 = call %struct._ZSo*  @_ZSt16__ostream_insertIcSt11char_traitsIcEERSt13basic_ostreamIT_T0_ES6_PKS3_l (%struct._ZSo*  %28, i8*  %29, i64  %27), !dbg !6053
	%31 = bitcast %struct._ZSo*  %30 to i8*, !dbg !6053
	%32 = bitcast %struct._ZSo** %.Q0038.addr to i8**, !dbg !6053
	store i8*  %31, i8**  %32, align 8, !tbaa !5797, !dbg !6053
	br label %L..inline.68227
L..inline.68227:
	%33 = load %struct.Logger*, %struct.Logger** %_T32714576_51679.addr, align 8, !tbaa !5797, !dbg !6054
	ret %struct.Logger*  %33, !dbg !6054
}
define linkonce_odr %struct.Logger* @_ZN6LoggerlsIA39_cEERS_RKT_(%struct.Logger* %_T32714576_51681.arg, [39 x i8]* %value.arg) #0 inlinehint !dbg !6063 {
L.entry:
	%_T32714576_51681.addr = alloca %struct.Logger*, align 8
	%value.addr = alloca [39 x i8]*, align 8
	%..inline.addr = alloca %struct._ZSo*, align 8
	%..inline.addr.1 = alloca i8*, align 8
	%..inline.addr.2 = alloca %struct._ZSt9basic_iosIcSt11char_traitsIcEE*, align 8
	%..inline.addr.3 = alloca %struct._ZSt9basic_iosIcSt11char_traitsIcEE*, align 8
	%..inline.addr.4 = alloca i32, align 4
	%..inline.addr.5 = alloca i8*, align 8
	%..inline.addr.6 = alloca i64, align 8
	%.Q0039.addr = alloca %struct._ZSo*, align 8

	call void @llvm.dbg.declare (metadata %struct.Logger** %_T32714576_51681.addr, metadata !6087, metadata !3943), !dbg !6064
	store %struct.Logger* %_T32714576_51681.arg, %struct.Logger** %_T32714576_51681.addr, align 8, !tbaa !5797
	call void @llvm.dbg.declare (metadata %struct.Logger** %_T32714576_51681.addr, metadata !6088, metadata !3943), !dbg !6064
	call void @llvm.dbg.declare (metadata [39 x i8]** %value.addr, metadata !6089, metadata !3943), !dbg !6064
	store [39 x i8]* %value.arg, [39 x i8]** %value.addr, align 8, !tbaa !5797
	call void @llvm.dbg.declare (metadata [39 x i8]** %value.addr, metadata !6090, metadata !3943), !dbg !6064
	%0 = load %struct.Logger*, %struct.Logger** %_T32714576_51681.addr, align 8, !tbaa !5797, !dbg !6091
	%1 = bitcast %struct.Logger*  %0 to i8*, !dbg !6091
	%2 = getelementptr i8, i8*  %1, i64 32, !dbg !6091
	%3 = bitcast %struct._ZSo** %..inline.addr to i8**, !dbg !6091
	store i8*  %2, i8**  %3, align 8, !tbaa !5797, !dbg !6091
	%4 = load [39 x i8]*, [39 x i8]** %value.addr, align 8, !tbaa !5797, !dbg !6091
	%5 = bitcast [39 x i8]*  %4 to i8*, !dbg !6091
	store i8*  %5, i8** %..inline.addr.1, align 8, !tbaa !5797, !dbg !6091
	%6 = icmp ne i8*  %5,  null, !dbg !6091
	br i1  %6, label %L..inline.68258, label %L.B1236, !dbg !6091
L.B1236:
	%7 = load %struct._ZSo*, %struct._ZSo** %..inline.addr, align 8, !tbaa !5797, !dbg !6092
	%8 = bitcast %struct._ZSo*  %7 to i8*, !dbg !6092
	%9 = bitcast %struct._ZSo*  %7 to i8**, !dbg !6092
	%10 = load i8*, i8**  %9, align 8, !tbaa !5797, !dbg !6092
	%11 = getelementptr i8, i8*  %10, i64 18446744073709551592, !dbg !6092
	%12 = bitcast i8*  %11 to i64*, !dbg !6092
	%13 = load i64, i64*  %12, align 8, !tbaa !5798, !dbg !6092
	%14 = getelementptr i8, i8*  %8, i64  %13, !dbg !6092
	%15 = bitcast %struct._ZSt9basic_iosIcSt11char_traitsIcEE** %..inline.addr.2 to i8**, !dbg !6092
	store i8*  %14, i8**  %15, align 8, !tbaa !5797, !dbg !6092
	%16 = load %struct._ZSt9basic_iosIcSt11char_traitsIcEE*, %struct._ZSt9basic_iosIcSt11char_traitsIcEE** %..inline.addr.2, align 8, !tbaa !5797, !dbg !6092
	%17 = bitcast %struct._ZSt9basic_iosIcSt11char_traitsIcEE*  %16 to i8*, !dbg !6092
	%18 = bitcast %struct._ZSt9basic_iosIcSt11char_traitsIcEE** %..inline.addr.3 to i8**, !dbg !6092
	store i8*  %17, i8**  %18, align 8, !tbaa !5797, !dbg !6092
	%19 = load %struct._ZSt9basic_iosIcSt11char_traitsIcEE*, %struct._ZSt9basic_iosIcSt11char_traitsIcEE** %..inline.addr.3, align 8, !tbaa !5797, !dbg !6092
	%20 = bitcast %struct._ZSt9basic_iosIcSt11char_traitsIcEE*  %19 to i8*, !dbg !6092
	%21 = getelementptr i8, i8*  %20, i64 32, !dbg !6092
	%22 = bitcast i8*  %21 to i32*, !dbg !6092
	%23 = load i32, i32*  %22, align 4, !tbaa !5798, !dbg !6092
	%24 = or i32  %23, 1, !dbg !6092
	call void  @_ZNSt9basic_iosIcSt11char_traitsIcEE5clearESt12_Ios_Iostate (%struct._ZSt9basic_iosIcSt11char_traitsIcEE*  %16, i32  %24), !dbg !6092
	br label %L..inline.68279, !dbg !6092
L..inline.68258:
	%25 = load [39 x i8]*, [39 x i8]** %value.addr, align 8, !tbaa !5797, !dbg !6093
	%26 = bitcast [39 x i8]*  %25 to i8*, !dbg !6093
	%27 = call i64  @strlen (i8*  %26) nounwind, !dbg !6093
	%28 = load %struct._ZSo*, %struct._ZSo** %..inline.addr, align 8, !tbaa !5797, !dbg !6093
	%29 = load i8*, i8** %..inline.addr.1, align 8, !tbaa !5797, !dbg !6093
	%30 = call %struct._ZSo*  @_ZSt16__ostream_insertIcSt11char_traitsIcEERSt13basic_ostreamIT_T0_ES6_PKS3_l (%struct._ZSo*  %28, i8*  %29, i64  %27), !dbg !6093
	%31 = bitcast %struct._ZSo*  %30 to i8*, !dbg !6093
	%32 = bitcast %struct._ZSo** %.Q0039.addr to i8**, !dbg !6093
	store i8*  %31, i8**  %32, align 8, !tbaa !5797, !dbg !6093
	br label %L..inline.68279
L..inline.68279:
	%33 = load %struct.Logger*, %struct.Logger** %_T32714576_51681.addr, align 8, !tbaa !5797, !dbg !6094
	ret %struct.Logger*  %33, !dbg !6094
}
define linkonce_odr %struct.Logger* @_ZN6LoggerlsIA13_cEERS_RKT_(%struct.Logger* %_T32714576_51682.arg, [13 x i8]* %value.arg) #0 inlinehint !dbg !6101 {
L.entry:
	%_T32714576_51682.addr = alloca %struct.Logger*, align 8
	%value.addr = alloca [13 x i8]*, align 8
	%..inline.addr = alloca %struct._ZSo*, align 8
	%..inline.addr.1 = alloca i8*, align 8
	%..inline.addr.2 = alloca %struct._ZSt9basic_iosIcSt11char_traitsIcEE*, align 8
	%..inline.addr.3 = alloca %struct._ZSt9basic_iosIcSt11char_traitsIcEE*, align 8
	%..inline.addr.4 = alloca i32, align 4
	%..inline.addr.5 = alloca i8*, align 8
	%..inline.addr.6 = alloca i64, align 8
	%.Q0040.addr = alloca %struct._ZSo*, align 8

	call void @llvm.dbg.declare (metadata %struct.Logger** %_T32714576_51682.addr, metadata !6125, metadata !3943), !dbg !6102
	store %struct.Logger* %_T32714576_51682.arg, %struct.Logger** %_T32714576_51682.addr, align 8, !tbaa !5797
	call void @llvm.dbg.declare (metadata %struct.Logger** %_T32714576_51682.addr, metadata !6126, metadata !3943), !dbg !6102
	call void @llvm.dbg.declare (metadata [13 x i8]** %value.addr, metadata !6127, metadata !3943), !dbg !6102
	store [13 x i8]* %value.arg, [13 x i8]** %value.addr, align 8, !tbaa !5797
	call void @llvm.dbg.declare (metadata [13 x i8]** %value.addr, metadata !6128, metadata !3943), !dbg !6102
	%0 = load %struct.Logger*, %struct.Logger** %_T32714576_51682.addr, align 8, !tbaa !5797, !dbg !6129
	%1 = bitcast %struct.Logger*  %0 to i8*, !dbg !6129
	%2 = getelementptr i8, i8*  %1, i64 32, !dbg !6129
	%3 = bitcast %struct._ZSo** %..inline.addr to i8**, !dbg !6129
	store i8*  %2, i8**  %3, align 8, !tbaa !5797, !dbg !6129
	%4 = load [13 x i8]*, [13 x i8]** %value.addr, align 8, !tbaa !5797, !dbg !6129
	%5 = bitcast [13 x i8]*  %4 to i8*, !dbg !6129
	store i8*  %5, i8** %..inline.addr.1, align 8, !tbaa !5797, !dbg !6129
	%6 = icmp ne i8*  %5,  null, !dbg !6129
	br i1  %6, label %L..inline.68310, label %L.B1239, !dbg !6129
L.B1239:
	%7 = load %struct._ZSo*, %struct._ZSo** %..inline.addr, align 8, !tbaa !5797, !dbg !6130
	%8 = bitcast %struct._ZSo*  %7 to i8*, !dbg !6130
	%9 = bitcast %struct._ZSo*  %7 to i8**, !dbg !6130
	%10 = load i8*, i8**  %9, align 8, !tbaa !5797, !dbg !6130
	%11 = getelementptr i8, i8*  %10, i64 18446744073709551592, !dbg !6130
	%12 = bitcast i8*  %11 to i64*, !dbg !6130
	%13 = load i64, i64*  %12, align 8, !tbaa !5798, !dbg !6130
	%14 = getelementptr i8, i8*  %8, i64  %13, !dbg !6130
	%15 = bitcast %struct._ZSt9basic_iosIcSt11char_traitsIcEE** %..inline.addr.2 to i8**, !dbg !6130
	store i8*  %14, i8**  %15, align 8, !tbaa !5797, !dbg !6130
	%16 = load %struct._ZSt9basic_iosIcSt11char_traitsIcEE*, %struct._ZSt9basic_iosIcSt11char_traitsIcEE** %..inline.addr.2, align 8, !tbaa !5797, !dbg !6130
	%17 = bitcast %struct._ZSt9basic_iosIcSt11char_traitsIcEE*  %16 to i8*, !dbg !6130
	%18 = bitcast %struct._ZSt9basic_iosIcSt11char_traitsIcEE** %..inline.addr.3 to i8**, !dbg !6130
	store i8*  %17, i8**  %18, align 8, !tbaa !5797, !dbg !6130
	%19 = load %struct._ZSt9basic_iosIcSt11char_traitsIcEE*, %struct._ZSt9basic_iosIcSt11char_traitsIcEE** %..inline.addr.3, align 8, !tbaa !5797, !dbg !6130
	%20 = bitcast %struct._ZSt9basic_iosIcSt11char_traitsIcEE*  %19 to i8*, !dbg !6130
	%21 = getelementptr i8, i8*  %20, i64 32, !dbg !6130
	%22 = bitcast i8*  %21 to i32*, !dbg !6130
	%23 = load i32, i32*  %22, align 4, !tbaa !5798, !dbg !6130
	%24 = or i32  %23, 1, !dbg !6130
	call void  @_ZNSt9basic_iosIcSt11char_traitsIcEE5clearESt12_Ios_Iostate (%struct._ZSt9basic_iosIcSt11char_traitsIcEE*  %16, i32  %24), !dbg !6130
	br label %L..inline.68331, !dbg !6130
L..inline.68310:
	%25 = load [13 x i8]*, [13 x i8]** %value.addr, align 8, !tbaa !5797, !dbg !6131
	%26 = bitcast [13 x i8]*  %25 to i8*, !dbg !6131
	%27 = call i64  @strlen (i8*  %26) nounwind, !dbg !6131
	%28 = load %struct._ZSo*, %struct._ZSo** %..inline.addr, align 8, !tbaa !5797, !dbg !6131
	%29 = load i8*, i8** %..inline.addr.1, align 8, !tbaa !5797, !dbg !6131
	%30 = call %struct._ZSo*  @_ZSt16__ostream_insertIcSt11char_traitsIcEERSt13basic_ostreamIT_T0_ES6_PKS3_l (%struct._ZSo*  %28, i8*  %29, i64  %27), !dbg !6131
	%31 = bitcast %struct._ZSo*  %30 to i8*, !dbg !6131
	%32 = bitcast %struct._ZSo** %.Q0040.addr to i8**, !dbg !6131
	store i8*  %31, i8**  %32, align 8, !tbaa !5797, !dbg !6131
	br label %L..inline.68331
L..inline.68331:
	%33 = load %struct.Logger*, %struct.Logger** %_T32714576_51682.addr, align 8, !tbaa !5797, !dbg !6132
	ret %struct.Logger*  %33, !dbg !6132
}
define linkonce_odr %struct.Logger* @_ZN6LoggerlsIA10_cEERS_RKT_(%struct.Logger* %_T32714576_51684.arg, [10 x i8]* %value.arg) #0 inlinehint !dbg !6141 {
L.entry:
	%_T32714576_51684.addr = alloca %struct.Logger*, align 8
	%value.addr = alloca [10 x i8]*, align 8
	%..inline.addr = alloca %struct._ZSo*, align 8
	%..inline.addr.1 = alloca i8*, align 8
	%..inline.addr.2 = alloca %struct._ZSt9basic_iosIcSt11char_traitsIcEE*, align 8
	%..inline.addr.3 = alloca %struct._ZSt9basic_iosIcSt11char_traitsIcEE*, align 8
	%..inline.addr.4 = alloca i32, align 4
	%..inline.addr.5 = alloca i8*, align 8
	%..inline.addr.6 = alloca i64, align 8
	%.Q0041.addr = alloca %struct._ZSo*, align 8

	call void @llvm.dbg.declare (metadata %struct.Logger** %_T32714576_51684.addr, metadata !6165, metadata !3943), !dbg !6142
	store %struct.Logger* %_T32714576_51684.arg, %struct.Logger** %_T32714576_51684.addr, align 8, !tbaa !5797
	call void @llvm.dbg.declare (metadata %struct.Logger** %_T32714576_51684.addr, metadata !6166, metadata !3943), !dbg !6142
	call void @llvm.dbg.declare (metadata [10 x i8]** %value.addr, metadata !6167, metadata !3943), !dbg !6142
	store [10 x i8]* %value.arg, [10 x i8]** %value.addr, align 8, !tbaa !5797
	call void @llvm.dbg.declare (metadata [10 x i8]** %value.addr, metadata !6168, metadata !3943), !dbg !6142
	%0 = load %struct.Logger*, %struct.Logger** %_T32714576_51684.addr, align 8, !tbaa !5797, !dbg !6169
	%1 = bitcast %struct.Logger*  %0 to i8*, !dbg !6169
	%2 = getelementptr i8, i8*  %1, i64 32, !dbg !6169
	%3 = bitcast %struct._ZSo** %..inline.addr to i8**, !dbg !6169
	store i8*  %2, i8**  %3, align 8, !tbaa !5797, !dbg !6169
	%4 = load [10 x i8]*, [10 x i8]** %value.addr, align 8, !tbaa !5797, !dbg !6169
	%5 = bitcast [10 x i8]*  %4 to i8*, !dbg !6169
	store i8*  %5, i8** %..inline.addr.1, align 8, !tbaa !5797, !dbg !6169
	%6 = icmp ne i8*  %5,  null, !dbg !6169
	br i1  %6, label %L..inline.68362, label %L.B1242, !dbg !6169
L.B1242:
