	.text
	.file	"londrillo_delzanna.ll"
	.file	1 "/home/talgat/vlasiator/fieldsolver/ldz_main.cpp"
	.weak	_Z8MPI_TypeIdEP15ompi_datatype_tv # -- Begin function _Z8MPI_TypeIdEP15ompi_datatype_tv
	.p2align	4, 0x90
	.type	_Z8MPI_TypeIdEP15ompi_datatype_tv,@function
_Z8MPI_TypeIdEP15ompi_datatype_tv:      # @_Z8MPI_TypeIdEP15ompi_datatype_tv
.Lfunc_begin0:
	.file	2 "/home/talgat/vlasiator/mpiconversion.h"
	.loc	2 59 0                  # /home/talgat/vlasiator/mpiconversion.h:59:0
	.cfi_startproc
# %bb.0:                                # %L.entry
	pushq	%rbp
	.cfi_def_cfa_offset 16
	.cfi_offset %rbp, -16
	movq	%rsp, %rbp
	.cfi_def_cfa_register %rbp
.Ltmp0:
	.loc	2 59 1 prologue_end     # /home/talgat/vlasiator/mpiconversion.h:59:1
	movl	$ompi_mpi_double, %eax
	popq	%rbp
	.cfi_def_cfa %rsp, 8
	retq
.Ltmp1:
.Lfunc_end0:
	.size	_Z8MPI_TypeIdEP15ompi_datatype_tv, .Lfunc_end0-_Z8MPI_TypeIdEP15ompi_datatype_tv
	.cfi_endproc
                                        # -- End function
	.globl	_Z39initializeFieldPropagatorAfterRebalancev # -- Begin function _Z39initializeFieldPropagatorAfterRebalancev
	.p2align	4, 0x90
	.type	_Z39initializeFieldPropagatorAfterRebalancev,@function
_Z39initializeFieldPropagatorAfterRebalancev: # @_Z39initializeFieldPropagatorAfterRebalancev
.Lfunc_begin1:
	.loc	1 60 0                  # fieldsolver/ldz_main.cpp:60:0
	.cfi_startproc
# %bb.0:                                # %L.entry
	pushq	%rbp
	.cfi_def_cfa_offset 16
	.cfi_offset %rbp, -16
	movq	%rsp, %rbp
	.cfi_def_cfa_register %rbp
.Ltmp2:
	.loc	1 65 1 prologue_end     # fieldsolver/ldz_main.cpp:65:1
	movb	$1, %al
	popq	%rbp
	.cfi_def_cfa %rsp, 8
	retq
.Ltmp3:
.Lfunc_end1:
	.size	_Z39initializeFieldPropagatorAfterRebalancev, .Lfunc_end1-_Z39initializeFieldPropagatorAfterRebalancev
	.cfi_endproc
                                        # -- End function
	.globl	_Z23finalizeFieldPropagatorv # -- Begin function _Z23finalizeFieldPropagatorv
	.p2align	4, 0x90
	.type	_Z23finalizeFieldPropagatorv,@function
_Z23finalizeFieldPropagatorv:           # @_Z23finalizeFieldPropagatorv
.Lfunc_begin2:
	.loc	1 68 0                  # fieldsolver/ldz_main.cpp:68:0
	.cfi_startproc
# %bb.0:                                # %L.entry
	pushq	%rbp
	.cfi_def_cfa_offset 16
	.cfi_offset %rbp, -16
	movq	%rsp, %rbp
	.cfi_def_cfa_register %rbp
.Ltmp4:
	.loc	1 69 1 prologue_end     # fieldsolver/ldz_main.cpp:69:1
	movb	$1, %al
	popq	%rbp
	.cfi_def_cfa %rsp, 8
	retq
.Ltmp5:
.Lfunc_end2:
	.size	_Z23finalizeFieldPropagatorv, .Lfunc_end2-_Z23finalizeFieldPropagatorv
	.cfi_endproc
                                        # -- End function
	.section	.rodata.cst8,"aM",@progbits,8
	.p2align	3               # -- Begin function _Z15propagateFieldsR6FsGridISt5arrayIdLm3EELi2EES3_S3_S3_RS_IS0_IdLm12EELi2EES3_RS_IS0_IdLm8EELi2EES9_RS_IS0_IdLm15EELi2EERS_IS0_IdLm24EELi2EERS_IS0_IdLm18EELi2EES6_RS_IN7fsgrids9technicalELi2EER11SysBoundaryRKdj
.LCPI3_0:
	.quad	9218868437227405311     # double 1.7976931348623157E+308
.LCPI3_1:
	.quad	-4616189618054758400    # double -1
.LCPI3_2:
	.quad	4602678819172646912     # double 0.5
.LCPI3_3:
	.quad	4609434218613702656     # double 1.5
	.text
	.globl	_Z15propagateFieldsR6FsGridISt5arrayIdLm3EELi2EES3_S3_S3_RS_IS0_IdLm12EELi2EES3_RS_IS0_IdLm8EELi2EES9_RS_IS0_IdLm15EELi2EERS_IS0_IdLm24EELi2EERS_IS0_IdLm18EELi2EES6_RS_IN7fsgrids9technicalELi2EER11SysBoundaryRKdj
	.p2align	4, 0x90
	.type	_Z15propagateFieldsR6FsGridISt5arrayIdLm3EELi2EES3_S3_S3_RS_IS0_IdLm12EELi2EES3_RS_IS0_IdLm8EELi2EES9_RS_IS0_IdLm15EELi2EERS_IS0_IdLm24EELi2EERS_IS0_IdLm18EELi2EES6_RS_IN7fsgrids9technicalELi2EER11SysBoundaryRKdj,@function
_Z15propagateFieldsR6FsGridISt5arrayIdLm3EELi2EES3_S3_S3_RS_IS0_IdLm12EELi2EES3_RS_IS0_IdLm8EELi2EES9_RS_IS0_IdLm15EELi2EERS_IS0_IdLm24EELi2EERS_IS0_IdLm18EELi2EES6_RS_IN7fsgrids9technicalELi2EER11SysBoundaryRKdj: # @_Z15propagateFieldsR6FsGridISt5arrayIdLm3EELi2EES3_S3_S3_RS_IS0_IdLm12EELi2EES3_RS_IS0_IdLm8EELi2EES9_RS_IS0_IdLm15EELi2EERS_IS0_IdLm24EELi2EERS_IS0_IdLm18EELi2EES6_RS_IN7fsgrids9technicalELi2EER11SysBoundaryRKdj
.Lfunc_begin3:
	.loc	1 103 0                 # fieldsolver/ldz_main.cpp:103:0
	.cfi_startproc
	.cfi_personality 3, __gxx_personality_v0
	.cfi_lsda 3, .Lexception0
# %bb.0:                                # %L.entry
	#DEBUG_VALUE: propagateFields:perBGrid <- $rdi
	#DEBUG_VALUE: propagateFields:perBDt2Grid <- $rsi
	#DEBUG_VALUE: propagateFields:EGrid <- $rdx
	#DEBUG_VALUE: propagateFields:EDt2Grid <- $rcx
	#DEBUG_VALUE: propagateFields:EHallGrid <- $r8
	#DEBUG_VALUE: propagateFields:EGradPeGrid <- $r9
	pushq	%rbp
	.cfi_def_cfa_offset 16
	.cfi_offset %rbp, -16
	movq	%rsp, %rbp
	.cfi_def_cfa_register %rbp
	pushq	%r15
	pushq	%r14
	pushq	%r13
	pushq	%r12
	pushq	%rbx
	subq	$312, %rsp              # imm = 0x138
	.cfi_offset %rbx, -56
	.cfi_offset %r12, -48
	.cfi_offset %r13, -40
	.cfi_offset %r14, -32
	.cfi_offset %r15, -24
	movq	%r9, -80(%rbp)          # 8-byte Spill
	movq	%r8, -88(%rbp)          # 8-byte Spill
	movq	%rcx, -128(%rbp)        # 8-byte Spill
	movq	%rdx, -96(%rbp)         # 8-byte Spill
	movq	%rsi, -112(%rbp)        # 8-byte Spill
	movq	%rdi, -56(%rbp)         # 8-byte Spill
.Ltmp30:
	#DEBUG_VALUE: subcycles <- undef
	#DEBUG_VALUE: EGradPeGrid <- undef
	#DEBUG_VALUE: EHallGrid <- undef
	#DEBUG_VALUE: EDt2Grid <- undef
	#DEBUG_VALUE: EGrid <- undef
	#DEBUG_VALUE: perBDt2Grid <- undef
	#DEBUG_VALUE: perBGrid <- undef
	#DEBUG_VALUE: momentsGrid <- undef
	#DEBUG_VALUE: momentsDt2Grid <- undef
	#DEBUG_VALUE: dPerBGrid <- undef
	#DEBUG_VALUE: dMomentsGrid <- undef
	#DEBUG_VALUE: BgBGrid <- undef
	#DEBUG_VALUE: volGrid <- undef
	#DEBUG_VALUE: technicalGrid <- undef
	#DEBUG_VALUE: sysBoundaries <- undef
	#DEBUG_VALUE: dt <- undef
	#DEBUG_VALUE: propagateFields:subcycles <- [DW_OP_plus_uconst 88] [$rbp+0]
	#DEBUG_VALUE: propagateFields:dt <- [DW_OP_plus_uconst 80] [$rbp+0]
	#DEBUG_VALUE: propagateFields:sysBoundaries <- [DW_OP_plus_uconst 72] [$rbp+0]
	#DEBUG_VALUE: propagateFields:technicalGrid <- [DW_OP_plus_uconst 64] [$rbp+0]
	#DEBUG_VALUE: propagateFields:volGrid <- [DW_OP_plus_uconst 56] [$rbp+0]
	#DEBUG_VALUE: propagateFields:BgBGrid <- [DW_OP_plus_uconst 48] [$rbp+0]
	#DEBUG_VALUE: propagateFields:dMomentsGrid <- [DW_OP_plus_uconst 40] [$rbp+0]
	#DEBUG_VALUE: propagateFields:dPerBGrid <- [DW_OP_plus_uconst 32] [$rbp+0]
	#DEBUG_VALUE: propagateFields:momentsDt2Grid <- [DW_OP_plus_uconst 24] [$rbp+0]
	#DEBUG_VALUE: propagateFields:momentsGrid <- [DW_OP_plus_uconst 16] [$rbp+0]
	#DEBUG_VALUE: propagateFields:EGradPeGrid <- [DW_OP_constu 80, DW_OP_minus] [$rbp+0]
	#DEBUG_VALUE: propagateFields:EHallGrid <- [DW_OP_constu 88, DW_OP_minus] [$rbp+0]
	#DEBUG_VALUE: propagateFields:EDt2Grid <- [DW_OP_constu 128, DW_OP_minus] [$rbp+0]
	#DEBUG_VALUE: propagateFields:EGrid <- [DW_OP_constu 96, DW_OP_minus] [$rbp+0]
	#DEBUG_VALUE: propagateFields:perBDt2Grid <- [DW_OP_constu 112, DW_OP_minus] [$rbp+0]
	#DEBUG_VALUE: propagateFields:perBGrid <- [DW_OP_constu 56, DW_OP_minus] [$rbp+0]
	.loc	1 105 1 prologue_end    # fieldsolver/ldz_main.cpp:105:1
	cmpl	$0, 88(%rbp)
	je	.LBB3_108
.Ltmp31:
# %bb.1:                                # %L.B0000
	#DEBUG_VALUE: propagateFields:perBGrid <- [DW_OP_constu 56, DW_OP_minus] [$rbp+0]
	#DEBUG_VALUE: propagateFields:perBDt2Grid <- [DW_OP_constu 112, DW_OP_minus] [$rbp+0]
	#DEBUG_VALUE: propagateFields:EGrid <- [DW_OP_constu 96, DW_OP_minus] [$rbp+0]
	#DEBUG_VALUE: propagateFields:EDt2Grid <- [DW_OP_constu 128, DW_OP_minus] [$rbp+0]
	#DEBUG_VALUE: propagateFields:EHallGrid <- [DW_OP_constu 88, DW_OP_minus] [$rbp+0]
	#DEBUG_VALUE: propagateFields:EGradPeGrid <- [DW_OP_constu 80, DW_OP_minus] [$rbp+0]
	#DEBUG_VALUE: propagateFields:momentsGrid <- [DW_OP_plus_uconst 16] [$rbp+0]
	#DEBUG_VALUE: propagateFields:momentsDt2Grid <- [DW_OP_plus_uconst 24] [$rbp+0]
	#DEBUG_VALUE: propagateFields:dPerBGrid <- [DW_OP_plus_uconst 32] [$rbp+0]
	#DEBUG_VALUE: propagateFields:dMomentsGrid <- [DW_OP_plus_uconst 40] [$rbp+0]
	#DEBUG_VALUE: propagateFields:BgBGrid <- [DW_OP_plus_uconst 48] [$rbp+0]
	#DEBUG_VALUE: propagateFields:volGrid <- [DW_OP_plus_uconst 56] [$rbp+0]
	#DEBUG_VALUE: propagateFields:technicalGrid <- [DW_OP_plus_uconst 64] [$rbp+0]
	#DEBUG_VALUE: propagateFields:sysBoundaries <- [DW_OP_plus_uconst 72] [$rbp+0]
	#DEBUG_VALUE: propagateFields:dt <- [DW_OP_plus_uconst 80] [$rbp+0]
	#DEBUG_VALUE: propagateFields:subcycles <- [DW_OP_plus_uconst 88] [$rbp+0]
	#DEBUG_VALUE: dt <- undef
	#DEBUG_VALUE: sysBoundaries <- undef
	.loc	1 0 1 is_stmt 0         # fieldsolver/ldz_main.cpp:0:1
	movq	64(%rbp), %r15
.Ltmp32:
	#DEBUG_VALUE: gridDims <- [DW_OP_plus_uconst 264, DW_OP_stack_value] $r15
	#DEBUG_VALUE: hallTermCommunicateDerivatives <- 1
	#DEBUG_VALUE: momentsGrid <- undef
	#DEBUG_VALUE: momentsDt2Grid <- undef
	#DEBUG_VALUE: dPerBGrid <- undef
	#DEBUG_VALUE: dMomentsGrid <- undef
	#DEBUG_VALUE: BgBGrid <- undef
	#DEBUG_VALUE: volGrid <- undef
	#DEBUG_VALUE: technicalGrid <- $r15
	.loc	1 658 1 is_stmt 1       # fieldsolver/ldz_main.cpp:658:1
	movslq	272(%r15), %rax
	movq	%rax, -120(%rbp)        # 8-byte Spill
	testq	%rax, %rax
.Ltmp33:
	.loc	1 115 1                 # fieldsolver/ldz_main.cpp:115:1
	jle	.LBB3_18
.Ltmp34:
# %bb.2:                                # %L.B1110.preheader
	#DEBUG_VALUE: technicalGrid <- $r15
	#DEBUG_VALUE: hallTermCommunicateDerivatives <- 1
	#DEBUG_VALUE: gridDims <- [DW_OP_plus_uconst 264, DW_OP_stack_value] $r15
	#DEBUG_VALUE: propagateFields:perBGrid <- [DW_OP_constu 56, DW_OP_minus] [$rbp+0]
	#DEBUG_VALUE: propagateFields:perBDt2Grid <- [DW_OP_constu 112, DW_OP_minus] [$rbp+0]
	#DEBUG_VALUE: propagateFields:EGrid <- [DW_OP_constu 96, DW_OP_minus] [$rbp+0]
	#DEBUG_VALUE: propagateFields:EDt2Grid <- [DW_OP_constu 128, DW_OP_minus] [$rbp+0]
	#DEBUG_VALUE: propagateFields:EHallGrid <- [DW_OP_constu 88, DW_OP_minus] [$rbp+0]
	#DEBUG_VALUE: propagateFields:EGradPeGrid <- [DW_OP_constu 80, DW_OP_minus] [$rbp+0]
	#DEBUG_VALUE: propagateFields:momentsGrid <- [DW_OP_plus_uconst 16] [$rbp+0]
	#DEBUG_VALUE: propagateFields:momentsDt2Grid <- [DW_OP_plus_uconst 24] [$rbp+0]
	#DEBUG_VALUE: propagateFields:dPerBGrid <- [DW_OP_plus_uconst 32] [$rbp+0]
	#DEBUG_VALUE: propagateFields:dMomentsGrid <- [DW_OP_plus_uconst 40] [$rbp+0]
	#DEBUG_VALUE: propagateFields:BgBGrid <- [DW_OP_plus_uconst 48] [$rbp+0]
	#DEBUG_VALUE: propagateFields:volGrid <- [DW_OP_plus_uconst 56] [$rbp+0]
	#DEBUG_VALUE: propagateFields:technicalGrid <- [DW_OP_plus_uconst 64] [$rbp+0]
	#DEBUG_VALUE: propagateFields:sysBoundaries <- [DW_OP_plus_uconst 72] [$rbp+0]
	#DEBUG_VALUE: propagateFields:dt <- [DW_OP_plus_uconst 80] [$rbp+0]
	#DEBUG_VALUE: propagateFields:subcycles <- [DW_OP_plus_uconst 88] [$rbp+0]
	.loc	1 0 1 is_stmt 0         # fieldsolver/ldz_main.cpp:0:1
	xorl	%r12d, %r12d
	.loc	1 115 1                 # fieldsolver/ldz_main.cpp:115:1
	movl	$-1, %ecx
	jmp	.LBB3_4
.Ltmp35:
	.p2align	4, 0x90
.LBB3_3:                                # %L.B1113
                                        #   in Loop: Header=BB3_4 Depth=1
	#DEBUG_VALUE: technicalGrid <- $r15
	#DEBUG_VALUE: hallTermCommunicateDerivatives <- 1
	#DEBUG_VALUE: gridDims <- [DW_OP_plus_uconst 264, DW_OP_stack_value] $r15
	#DEBUG_VALUE: propagateFields:perBGrid <- [DW_OP_constu 56, DW_OP_minus] [$rbp+0]
	#DEBUG_VALUE: propagateFields:perBDt2Grid <- [DW_OP_constu 112, DW_OP_minus] [$rbp+0]
	#DEBUG_VALUE: propagateFields:EGrid <- [DW_OP_constu 96, DW_OP_minus] [$rbp+0]
	#DEBUG_VALUE: propagateFields:EDt2Grid <- [DW_OP_constu 128, DW_OP_minus] [$rbp+0]
	#DEBUG_VALUE: propagateFields:EHallGrid <- [DW_OP_constu 88, DW_OP_minus] [$rbp+0]
	#DEBUG_VALUE: propagateFields:EGradPeGrid <- [DW_OP_constu 80, DW_OP_minus] [$rbp+0]
	#DEBUG_VALUE: propagateFields:momentsGrid <- [DW_OP_plus_uconst 16] [$rbp+0]
	#DEBUG_VALUE: propagateFields:momentsDt2Grid <- [DW_OP_plus_uconst 24] [$rbp+0]
	#DEBUG_VALUE: propagateFields:dPerBGrid <- [DW_OP_plus_uconst 32] [$rbp+0]
	#DEBUG_VALUE: propagateFields:dMomentsGrid <- [DW_OP_plus_uconst 40] [$rbp+0]
	#DEBUG_VALUE: propagateFields:BgBGrid <- [DW_OP_plus_uconst 48] [$rbp+0]
	#DEBUG_VALUE: propagateFields:volGrid <- [DW_OP_plus_uconst 56] [$rbp+0]
	#DEBUG_VALUE: propagateFields:technicalGrid <- [DW_OP_plus_uconst 64] [$rbp+0]
	#DEBUG_VALUE: propagateFields:sysBoundaries <- [DW_OP_plus_uconst 72] [$rbp+0]
	#DEBUG_VALUE: propagateFields:dt <- [DW_OP_plus_uconst 80] [$rbp+0]
	#DEBUG_VALUE: propagateFields:subcycles <- [DW_OP_plus_uconst 88] [$rbp+0]
	incq	%r12
	cmpq	-120(%rbp), %r12        # 8-byte Folded Reload
	je	.LBB3_18
.Ltmp36:
.LBB3_4:                                # %L.B1110
                                        # =>This Loop Header: Depth=1
                                        #     Child Loop BB3_7 Depth 2
                                        #       Child Loop BB3_9 Depth 3
	#DEBUG_VALUE: technicalGrid <- $r15
	#DEBUG_VALUE: hallTermCommunicateDerivatives <- 1
	#DEBUG_VALUE: gridDims <- [DW_OP_plus_uconst 264, DW_OP_stack_value] $r15
	#DEBUG_VALUE: propagateFields:perBGrid <- [DW_OP_constu 56, DW_OP_minus] [$rbp+0]
	#DEBUG_VALUE: propagateFields:perBDt2Grid <- [DW_OP_constu 112, DW_OP_minus] [$rbp+0]
	#DEBUG_VALUE: propagateFields:EGrid <- [DW_OP_constu 96, DW_OP_minus] [$rbp+0]
	#DEBUG_VALUE: propagateFields:EDt2Grid <- [DW_OP_constu 128, DW_OP_minus] [$rbp+0]
	#DEBUG_VALUE: propagateFields:EHallGrid <- [DW_OP_constu 88, DW_OP_minus] [$rbp+0]
	#DEBUG_VALUE: propagateFields:EGradPeGrid <- [DW_OP_constu 80, DW_OP_minus] [$rbp+0]
	#DEBUG_VALUE: propagateFields:momentsGrid <- [DW_OP_plus_uconst 16] [$rbp+0]
	#DEBUG_VALUE: propagateFields:momentsDt2Grid <- [DW_OP_plus_uconst 24] [$rbp+0]
	#DEBUG_VALUE: propagateFields:dPerBGrid <- [DW_OP_plus_uconst 32] [$rbp+0]
	#DEBUG_VALUE: propagateFields:dMomentsGrid <- [DW_OP_plus_uconst 40] [$rbp+0]
	#DEBUG_VALUE: propagateFields:BgBGrid <- [DW_OP_plus_uconst 48] [$rbp+0]
	#DEBUG_VALUE: propagateFields:volGrid <- [DW_OP_plus_uconst 56] [$rbp+0]
	#DEBUG_VALUE: propagateFields:technicalGrid <- [DW_OP_plus_uconst 64] [$rbp+0]
	#DEBUG_VALUE: propagateFields:sysBoundaries <- [DW_OP_plus_uconst 72] [$rbp+0]
	#DEBUG_VALUE: propagateFields:dt <- [DW_OP_plus_uconst 80] [$rbp+0]
	#DEBUG_VALUE: propagateFields:subcycles <- [DW_OP_plus_uconst 88] [$rbp+0]
	movslq	268(%r15), %rax
	movq	%rax, -136(%rbp)        # 8-byte Spill
	testq	%rax, %rax
	jle	.LBB3_3
.Ltmp37:
# %bb.5:                                # %L.B1125
                                        #   in Loop: Header=BB3_4 Depth=1
	#DEBUG_VALUE: technicalGrid <- $r15
	#DEBUG_VALUE: hallTermCommunicateDerivatives <- 1
	#DEBUG_VALUE: gridDims <- [DW_OP_plus_uconst 264, DW_OP_stack_value] $r15
	#DEBUG_VALUE: propagateFields:perBGrid <- [DW_OP_constu 56, DW_OP_minus] [$rbp+0]
	#DEBUG_VALUE: propagateFields:perBDt2Grid <- [DW_OP_constu 112, DW_OP_minus] [$rbp+0]
	#DEBUG_VALUE: propagateFields:EGrid <- [DW_OP_constu 96, DW_OP_minus] [$rbp+0]
	#DEBUG_VALUE: propagateFields:EDt2Grid <- [DW_OP_constu 128, DW_OP_minus] [$rbp+0]
	#DEBUG_VALUE: propagateFields:EHallGrid <- [DW_OP_constu 88, DW_OP_minus] [$rbp+0]
	#DEBUG_VALUE: propagateFields:EGradPeGrid <- [DW_OP_constu 80, DW_OP_minus] [$rbp+0]
	#DEBUG_VALUE: propagateFields:momentsGrid <- [DW_OP_plus_uconst 16] [$rbp+0]
	#DEBUG_VALUE: propagateFields:momentsDt2Grid <- [DW_OP_plus_uconst 24] [$rbp+0]
	#DEBUG_VALUE: propagateFields:dPerBGrid <- [DW_OP_plus_uconst 32] [$rbp+0]
	#DEBUG_VALUE: propagateFields:dMomentsGrid <- [DW_OP_plus_uconst 40] [$rbp+0]
	#DEBUG_VALUE: propagateFields:BgBGrid <- [DW_OP_plus_uconst 48] [$rbp+0]
	#DEBUG_VALUE: propagateFields:volGrid <- [DW_OP_plus_uconst 56] [$rbp+0]
	#DEBUG_VALUE: propagateFields:technicalGrid <- [DW_OP_plus_uconst 64] [$rbp+0]
	#DEBUG_VALUE: propagateFields:sysBoundaries <- [DW_OP_plus_uconst 72] [$rbp+0]
	#DEBUG_VALUE: propagateFields:dt <- [DW_OP_plus_uconst 80] [$rbp+0]
	#DEBUG_VALUE: propagateFields:subcycles <- [DW_OP_plus_uconst 88] [$rbp+0]
	.loc	1 0 0                   # fieldsolver/ldz_main.cpp:0:0
	movl	%r12d, %eax
	shrl	$31, %eax
	movl	%eax, -152(%rbp)        # 4-byte Spill
	movl	%r12d, %eax
	sarl	$31, %eax
	movl	%eax, -144(%rbp)        # 4-byte Spill
	.loc	1 115 1                 # fieldsolver/ldz_main.cpp:115:1
	xorl	%esi, %esi
	jmp	.LBB3_7
.Ltmp38:
	.p2align	4, 0x90
.LBB3_6:                                # %L.B1115
                                        #   in Loop: Header=BB3_7 Depth=2
	#DEBUG_VALUE: technicalGrid <- $r15
	#DEBUG_VALUE: hallTermCommunicateDerivatives <- 1
	#DEBUG_VALUE: gridDims <- [DW_OP_plus_uconst 264, DW_OP_stack_value] $r15
	#DEBUG_VALUE: propagateFields:perBGrid <- [DW_OP_constu 56, DW_OP_minus] [$rbp+0]
	#DEBUG_VALUE: propagateFields:perBDt2Grid <- [DW_OP_constu 112, DW_OP_minus] [$rbp+0]
	#DEBUG_VALUE: propagateFields:EGrid <- [DW_OP_constu 96, DW_OP_minus] [$rbp+0]
	#DEBUG_VALUE: propagateFields:EDt2Grid <- [DW_OP_constu 128, DW_OP_minus] [$rbp+0]
	#DEBUG_VALUE: propagateFields:EHallGrid <- [DW_OP_constu 88, DW_OP_minus] [$rbp+0]
	#DEBUG_VALUE: propagateFields:EGradPeGrid <- [DW_OP_constu 80, DW_OP_minus] [$rbp+0]
	#DEBUG_VALUE: propagateFields:momentsGrid <- [DW_OP_plus_uconst 16] [$rbp+0]
	#DEBUG_VALUE: propagateFields:momentsDt2Grid <- [DW_OP_plus_uconst 24] [$rbp+0]
	#DEBUG_VALUE: propagateFields:dPerBGrid <- [DW_OP_plus_uconst 32] [$rbp+0]
	#DEBUG_VALUE: propagateFields:dMomentsGrid <- [DW_OP_plus_uconst 40] [$rbp+0]
	#DEBUG_VALUE: propagateFields:BgBGrid <- [DW_OP_plus_uconst 48] [$rbp+0]
	#DEBUG_VALUE: propagateFields:volGrid <- [DW_OP_plus_uconst 56] [$rbp+0]
	#DEBUG_VALUE: propagateFields:technicalGrid <- [DW_OP_plus_uconst 64] [$rbp+0]
	#DEBUG_VALUE: propagateFields:sysBoundaries <- [DW_OP_plus_uconst 72] [$rbp+0]
	#DEBUG_VALUE: propagateFields:dt <- [DW_OP_plus_uconst 80] [$rbp+0]
	#DEBUG_VALUE: propagateFields:subcycles <- [DW_OP_plus_uconst 88] [$rbp+0]
	incq	%rsi
	cmpq	-136(%rbp), %rsi        # 8-byte Folded Reload
	je	.LBB3_3
.Ltmp39:
.LBB3_7:                                # %L.B1112
                                        #   Parent Loop BB3_4 Depth=1
                                        # =>  This Loop Header: Depth=2
                                        #       Child Loop BB3_9 Depth 3
	#DEBUG_VALUE: technicalGrid <- $r15
	#DEBUG_VALUE: hallTermCommunicateDerivatives <- 1
	#DEBUG_VALUE: gridDims <- [DW_OP_plus_uconst 264, DW_OP_stack_value] $r15
	#DEBUG_VALUE: propagateFields:perBGrid <- [DW_OP_constu 56, DW_OP_minus] [$rbp+0]
	#DEBUG_VALUE: propagateFields:perBDt2Grid <- [DW_OP_constu 112, DW_OP_minus] [$rbp+0]
	#DEBUG_VALUE: propagateFields:EGrid <- [DW_OP_constu 96, DW_OP_minus] [$rbp+0]
	#DEBUG_VALUE: propagateFields:EDt2Grid <- [DW_OP_constu 128, DW_OP_minus] [$rbp+0]
	#DEBUG_VALUE: propagateFields:EHallGrid <- [DW_OP_constu 88, DW_OP_minus] [$rbp+0]
	#DEBUG_VALUE: propagateFields:EGradPeGrid <- [DW_OP_constu 80, DW_OP_minus] [$rbp+0]
	#DEBUG_VALUE: propagateFields:momentsGrid <- [DW_OP_plus_uconst 16] [$rbp+0]
	#DEBUG_VALUE: propagateFields:momentsDt2Grid <- [DW_OP_plus_uconst 24] [$rbp+0]
	#DEBUG_VALUE: propagateFields:dPerBGrid <- [DW_OP_plus_uconst 32] [$rbp+0]
	#DEBUG_VALUE: propagateFields:dMomentsGrid <- [DW_OP_plus_uconst 40] [$rbp+0]
	#DEBUG_VALUE: propagateFields:BgBGrid <- [DW_OP_plus_uconst 48] [$rbp+0]
	#DEBUG_VALUE: propagateFields:volGrid <- [DW_OP_plus_uconst 56] [$rbp+0]
	#DEBUG_VALUE: propagateFields:technicalGrid <- [DW_OP_plus_uconst 64] [$rbp+0]
	#DEBUG_VALUE: propagateFields:sysBoundaries <- [DW_OP_plus_uconst 72] [$rbp+0]
	#DEBUG_VALUE: propagateFields:dt <- [DW_OP_plus_uconst 80] [$rbp+0]
	#DEBUG_VALUE: propagateFields:subcycles <- [DW_OP_plus_uconst 88] [$rbp+0]
	movslq	264(%r15), %r11
	testq	%r11, %r11
	jle	.LBB3_6
.Ltmp40:
# %bb.8:                                # %L.B1126
                                        #   in Loop: Header=BB3_7 Depth=2
	#DEBUG_VALUE: technicalGrid <- $r15
	#DEBUG_VALUE: hallTermCommunicateDerivatives <- 1
	#DEBUG_VALUE: gridDims <- [DW_OP_plus_uconst 264, DW_OP_stack_value] $r15
	#DEBUG_VALUE: propagateFields:perBGrid <- [DW_OP_constu 56, DW_OP_minus] [$rbp+0]
	#DEBUG_VALUE: propagateFields:perBDt2Grid <- [DW_OP_constu 112, DW_OP_minus] [$rbp+0]
	#DEBUG_VALUE: propagateFields:EGrid <- [DW_OP_constu 96, DW_OP_minus] [$rbp+0]
	#DEBUG_VALUE: propagateFields:EDt2Grid <- [DW_OP_constu 128, DW_OP_minus] [$rbp+0]
	#DEBUG_VALUE: propagateFields:EHallGrid <- [DW_OP_constu 88, DW_OP_minus] [$rbp+0]
	#DEBUG_VALUE: propagateFields:EGradPeGrid <- [DW_OP_constu 80, DW_OP_minus] [$rbp+0]
	#DEBUG_VALUE: propagateFields:momentsGrid <- [DW_OP_plus_uconst 16] [$rbp+0]
	#DEBUG_VALUE: propagateFields:momentsDt2Grid <- [DW_OP_plus_uconst 24] [$rbp+0]
	#DEBUG_VALUE: propagateFields:dPerBGrid <- [DW_OP_plus_uconst 32] [$rbp+0]
	#DEBUG_VALUE: propagateFields:dMomentsGrid <- [DW_OP_plus_uconst 40] [$rbp+0]
	#DEBUG_VALUE: propagateFields:BgBGrid <- [DW_OP_plus_uconst 48] [$rbp+0]
	#DEBUG_VALUE: propagateFields:volGrid <- [DW_OP_plus_uconst 56] [$rbp+0]
	#DEBUG_VALUE: propagateFields:technicalGrid <- [DW_OP_plus_uconst 64] [$rbp+0]
	#DEBUG_VALUE: propagateFields:sysBoundaries <- [DW_OP_plus_uconst 72] [$rbp+0]
	#DEBUG_VALUE: propagateFields:dt <- [DW_OP_plus_uconst 80] [$rbp+0]
	#DEBUG_VALUE: propagateFields:subcycles <- [DW_OP_plus_uconst 88] [$rbp+0]
	.loc	1 0 0                   # fieldsolver/ldz_main.cpp:0:0
	movl	%r11d, %r8d
	movl	%esi, %eax
	shrl	$31, %eax
	movl	%eax, -72(%rbp)         # 4-byte Spill
	decq	%r11
	.loc	1 115 1                 # fieldsolver/ldz_main.cpp:115:1
	xorl	%edi, %edi
.Ltmp41:
	.p2align	4, 0x90
.LBB3_9:                                # %L.B1114
                                        #   Parent Loop BB3_4 Depth=1
                                        #     Parent Loop BB3_7 Depth=2
                                        # =>    This Inner Loop Header: Depth=3
	#DEBUG_VALUE: technicalGrid <- $r15
	#DEBUG_VALUE: hallTermCommunicateDerivatives <- 1
	#DEBUG_VALUE: gridDims <- [DW_OP_plus_uconst 264, DW_OP_stack_value] $r15
	#DEBUG_VALUE: propagateFields:perBGrid <- [DW_OP_constu 56, DW_OP_minus] [$rbp+0]
	#DEBUG_VALUE: propagateFields:perBDt2Grid <- [DW_OP_constu 112, DW_OP_minus] [$rbp+0]
	#DEBUG_VALUE: propagateFields:EGrid <- [DW_OP_constu 96, DW_OP_minus] [$rbp+0]
	#DEBUG_VALUE: propagateFields:EDt2Grid <- [DW_OP_constu 128, DW_OP_minus] [$rbp+0]
	#DEBUG_VALUE: propagateFields:EHallGrid <- [DW_OP_constu 88, DW_OP_minus] [$rbp+0]
	#DEBUG_VALUE: propagateFields:EGradPeGrid <- [DW_OP_constu 80, DW_OP_minus] [$rbp+0]
	#DEBUG_VALUE: propagateFields:momentsGrid <- [DW_OP_plus_uconst 16] [$rbp+0]
	#DEBUG_VALUE: propagateFields:momentsDt2Grid <- [DW_OP_plus_uconst 24] [$rbp+0]
	#DEBUG_VALUE: propagateFields:dPerBGrid <- [DW_OP_plus_uconst 32] [$rbp+0]
	#DEBUG_VALUE: propagateFields:dMomentsGrid <- [DW_OP_plus_uconst 40] [$rbp+0]
	#DEBUG_VALUE: propagateFields:BgBGrid <- [DW_OP_plus_uconst 48] [$rbp+0]
	#DEBUG_VALUE: propagateFields:volGrid <- [DW_OP_plus_uconst 56] [$rbp+0]
	#DEBUG_VALUE: propagateFields:technicalGrid <- [DW_OP_plus_uconst 64] [$rbp+0]
	#DEBUG_VALUE: propagateFields:sysBoundaries <- [DW_OP_plus_uconst 72] [$rbp+0]
	#DEBUG_VALUE: propagateFields:dt <- [DW_OP_plus_uconst 80] [$rbp+0]
	#DEBUG_VALUE: propagateFields:subcycles <- [DW_OP_plus_uconst 88] [$rbp+0]
	xorl	%edx, %edx
	testl	%edi, %edi
	setns	%dl
	movl	%edi, %eax
	shrl	$31, %eax
	leal	(%rdx,%rdx,8), %ebx
	addl	$4, %ebx
	cmpl	%edi, %r8d
	leal	13(%rdx,%rdx,8), %edx
	cmovlel	%ecx, %eax
	cmovgl	%ebx, %edx
	leal	-3(%rdx), %ebx
	.loc	1 0 0                   # fieldsolver/ldz_main.cpp:0:0
	testl	%esi, %esi
	.loc	1 115 1                 # fieldsolver/ldz_main.cpp:115:1
	cmovnsl	%edx, %ebx
	movl	268(%r15), %r10d
	movl	272(%r15), %r13d
	leal	3(%rbx), %r14d
	cmpl	%esi, %r10d
	movl	$-1, %edx
	cmovgl	-72(%rbp), %edx         # 4-byte Folded Reload
	cmovgl	%ebx, %r14d
	xorl	%ebx, %ebx
	cmpl	%r12d, %r13d
	setle	%bl
	movl	$-1, %r9d
	cmovgl	-152(%rbp), %r9d        # 4-byte Folded Reload
	addl	-144(%rbp), %ebx        # 4-byte Folded Reload
	addl	%r14d, %ebx
	cmpl	$13, %ebx
	je	.LBB3_13
.Ltmp42:
# %bb.10:                               # %L.B1133
                                        #   in Loop: Header=BB3_9 Depth=3
	#DEBUG_VALUE: technicalGrid <- $r15
	#DEBUG_VALUE: hallTermCommunicateDerivatives <- 1
	#DEBUG_VALUE: gridDims <- [DW_OP_plus_uconst 264, DW_OP_stack_value] $r15
	#DEBUG_VALUE: propagateFields:perBGrid <- [DW_OP_constu 56, DW_OP_minus] [$rbp+0]
	#DEBUG_VALUE: propagateFields:perBDt2Grid <- [DW_OP_constu 112, DW_OP_minus] [$rbp+0]
	#DEBUG_VALUE: propagateFields:EGrid <- [DW_OP_constu 96, DW_OP_minus] [$rbp+0]
	#DEBUG_VALUE: propagateFields:EDt2Grid <- [DW_OP_constu 128, DW_OP_minus] [$rbp+0]
	#DEBUG_VALUE: propagateFields:EHallGrid <- [DW_OP_constu 88, DW_OP_minus] [$rbp+0]
	#DEBUG_VALUE: propagateFields:EGradPeGrid <- [DW_OP_constu 80, DW_OP_minus] [$rbp+0]
	#DEBUG_VALUE: propagateFields:momentsGrid <- [DW_OP_plus_uconst 16] [$rbp+0]
	#DEBUG_VALUE: propagateFields:momentsDt2Grid <- [DW_OP_plus_uconst 24] [$rbp+0]
	#DEBUG_VALUE: propagateFields:dPerBGrid <- [DW_OP_plus_uconst 32] [$rbp+0]
	#DEBUG_VALUE: propagateFields:dMomentsGrid <- [DW_OP_plus_uconst 40] [$rbp+0]
	#DEBUG_VALUE: propagateFields:BgBGrid <- [DW_OP_plus_uconst 48] [$rbp+0]
	#DEBUG_VALUE: propagateFields:volGrid <- [DW_OP_plus_uconst 56] [$rbp+0]
	#DEBUG_VALUE: propagateFields:technicalGrid <- [DW_OP_plus_uconst 64] [$rbp+0]
	#DEBUG_VALUE: propagateFields:sysBoundaries <- [DW_OP_plus_uconst 72] [$rbp+0]
	#DEBUG_VALUE: propagateFields:dt <- [DW_OP_plus_uconst 80] [$rbp+0]
	#DEBUG_VALUE: propagateFields:subcycles <- [DW_OP_plus_uconst 88] [$rbp+0]
	movslq	%ebx, %rbx
	movl	92(%r15,%rbx,4), %ebx
	cmpl	56(%r15), %ebx
	jne	.LBB3_13
.Ltmp43:
# %bb.11:                               # %L.B1135
                                        #   in Loop: Header=BB3_9 Depth=3
	#DEBUG_VALUE: technicalGrid <- $r15
	#DEBUG_VALUE: hallTermCommunicateDerivatives <- 1
	#DEBUG_VALUE: gridDims <- [DW_OP_plus_uconst 264, DW_OP_stack_value] $r15
	#DEBUG_VALUE: propagateFields:perBGrid <- [DW_OP_constu 56, DW_OP_minus] [$rbp+0]
	#DEBUG_VALUE: propagateFields:perBDt2Grid <- [DW_OP_constu 112, DW_OP_minus] [$rbp+0]
	#DEBUG_VALUE: propagateFields:EGrid <- [DW_OP_constu 96, DW_OP_minus] [$rbp+0]
	#DEBUG_VALUE: propagateFields:EDt2Grid <- [DW_OP_constu 128, DW_OP_minus] [$rbp+0]
	#DEBUG_VALUE: propagateFields:EHallGrid <- [DW_OP_constu 88, DW_OP_minus] [$rbp+0]
	#DEBUG_VALUE: propagateFields:EGradPeGrid <- [DW_OP_constu 80, DW_OP_minus] [$rbp+0]
	#DEBUG_VALUE: propagateFields:momentsGrid <- [DW_OP_plus_uconst 16] [$rbp+0]
	#DEBUG_VALUE: propagateFields:momentsDt2Grid <- [DW_OP_plus_uconst 24] [$rbp+0]
	#DEBUG_VALUE: propagateFields:dPerBGrid <- [DW_OP_plus_uconst 32] [$rbp+0]
	#DEBUG_VALUE: propagateFields:dMomentsGrid <- [DW_OP_plus_uconst 40] [$rbp+0]
	#DEBUG_VALUE: propagateFields:BgBGrid <- [DW_OP_plus_uconst 48] [$rbp+0]
	#DEBUG_VALUE: propagateFields:volGrid <- [DW_OP_plus_uconst 56] [$rbp+0]
	#DEBUG_VALUE: propagateFields:technicalGrid <- [DW_OP_plus_uconst 64] [$rbp+0]
	#DEBUG_VALUE: propagateFields:sysBoundaries <- [DW_OP_plus_uconst 72] [$rbp+0]
	#DEBUG_VALUE: propagateFields:dt <- [DW_OP_plus_uconst 80] [$rbp+0]
	#DEBUG_VALUE: propagateFields:subcycles <- [DW_OP_plus_uconst 88] [$rbp+0]
	imull	%r8d, %eax
	addl	%edi, %eax
	imull	%r10d, %edx
	addl	%esi, %edx
	imull	%r13d, %r9d
	addl	%r12d, %r9d
	cmpl	$2, 260(%r15)
	jl	.LBB3_14
.Ltmp44:
.LBB3_12:                               # %L.B1136
                                        #   in Loop: Header=BB3_9 Depth=3
	#DEBUG_VALUE: technicalGrid <- $r15
	#DEBUG_VALUE: hallTermCommunicateDerivatives <- 1
	#DEBUG_VALUE: gridDims <- [DW_OP_plus_uconst 264, DW_OP_stack_value] $r15
	#DEBUG_VALUE: propagateFields:perBGrid <- [DW_OP_constu 56, DW_OP_minus] [$rbp+0]
	#DEBUG_VALUE: propagateFields:perBDt2Grid <- [DW_OP_constu 112, DW_OP_minus] [$rbp+0]
	#DEBUG_VALUE: propagateFields:EGrid <- [DW_OP_constu 96, DW_OP_minus] [$rbp+0]
	#DEBUG_VALUE: propagateFields:EDt2Grid <- [DW_OP_constu 128, DW_OP_minus] [$rbp+0]
	#DEBUG_VALUE: propagateFields:EHallGrid <- [DW_OP_constu 88, DW_OP_minus] [$rbp+0]
	#DEBUG_VALUE: propagateFields:EGradPeGrid <- [DW_OP_constu 80, DW_OP_minus] [$rbp+0]
	#DEBUG_VALUE: propagateFields:momentsGrid <- [DW_OP_plus_uconst 16] [$rbp+0]
	#DEBUG_VALUE: propagateFields:momentsDt2Grid <- [DW_OP_plus_uconst 24] [$rbp+0]
	#DEBUG_VALUE: propagateFields:dPerBGrid <- [DW_OP_plus_uconst 32] [$rbp+0]
	#DEBUG_VALUE: propagateFields:dMomentsGrid <- [DW_OP_plus_uconst 40] [$rbp+0]
	#DEBUG_VALUE: propagateFields:BgBGrid <- [DW_OP_plus_uconst 48] [$rbp+0]
	#DEBUG_VALUE: propagateFields:volGrid <- [DW_OP_plus_uconst 56] [$rbp+0]
	#DEBUG_VALUE: propagateFields:technicalGrid <- [DW_OP_plus_uconst 64] [$rbp+0]
	#DEBUG_VALUE: propagateFields:sysBoundaries <- [DW_OP_plus_uconst 72] [$rbp+0]
	#DEBUG_VALUE: propagateFields:dt <- [DW_OP_plus_uconst 80] [$rbp+0]
	#DEBUG_VALUE: propagateFields:subcycles <- [DW_OP_plus_uconst 88] [$rbp+0]
	addl	$2, %r9d
	imull	280(%r15), %r9d
	imull	276(%r15), %r9d
	movslq	%r9d, %rbx
	cmpl	$2, 256(%r15)
	jge	.LBB3_15
	jmp	.LBB3_16
.Ltmp45:
	.p2align	4, 0x90
.LBB3_13:                               # %L.B1114.L..inline.64312_crit_edge
                                        #   in Loop: Header=BB3_9 Depth=3
	#DEBUG_VALUE: technicalGrid <- $r15
	#DEBUG_VALUE: hallTermCommunicateDerivatives <- 1
	#DEBUG_VALUE: gridDims <- [DW_OP_plus_uconst 264, DW_OP_stack_value] $r15
	#DEBUG_VALUE: propagateFields:perBGrid <- [DW_OP_constu 56, DW_OP_minus] [$rbp+0]
	#DEBUG_VALUE: propagateFields:perBDt2Grid <- [DW_OP_constu 112, DW_OP_minus] [$rbp+0]
	#DEBUG_VALUE: propagateFields:EGrid <- [DW_OP_constu 96, DW_OP_minus] [$rbp+0]
	#DEBUG_VALUE: propagateFields:EDt2Grid <- [DW_OP_constu 128, DW_OP_minus] [$rbp+0]
	#DEBUG_VALUE: propagateFields:EHallGrid <- [DW_OP_constu 88, DW_OP_minus] [$rbp+0]
	#DEBUG_VALUE: propagateFields:EGradPeGrid <- [DW_OP_constu 80, DW_OP_minus] [$rbp+0]
	#DEBUG_VALUE: propagateFields:momentsGrid <- [DW_OP_plus_uconst 16] [$rbp+0]
	#DEBUG_VALUE: propagateFields:momentsDt2Grid <- [DW_OP_plus_uconst 24] [$rbp+0]
	#DEBUG_VALUE: propagateFields:dPerBGrid <- [DW_OP_plus_uconst 32] [$rbp+0]
	#DEBUG_VALUE: propagateFields:dMomentsGrid <- [DW_OP_plus_uconst 40] [$rbp+0]
	#DEBUG_VALUE: propagateFields:BgBGrid <- [DW_OP_plus_uconst 48] [$rbp+0]
	#DEBUG_VALUE: propagateFields:volGrid <- [DW_OP_plus_uconst 56] [$rbp+0]
	#DEBUG_VALUE: propagateFields:technicalGrid <- [DW_OP_plus_uconst 64] [$rbp+0]
	#DEBUG_VALUE: propagateFields:sysBoundaries <- [DW_OP_plus_uconst 72] [$rbp+0]
	#DEBUG_VALUE: propagateFields:dt <- [DW_OP_plus_uconst 80] [$rbp+0]
	#DEBUG_VALUE: propagateFields:subcycles <- [DW_OP_plus_uconst 88] [$rbp+0]
	movl	%r12d, %r9d
	movl	%esi, %edx
	movl	%edi, %eax
	cmpl	$2, 260(%r15)
	jge	.LBB3_12
.Ltmp46:
.LBB3_14:                               #   in Loop: Header=BB3_9 Depth=3
	#DEBUG_VALUE: technicalGrid <- $r15
	#DEBUG_VALUE: hallTermCommunicateDerivatives <- 1
	#DEBUG_VALUE: gridDims <- [DW_OP_plus_uconst 264, DW_OP_stack_value] $r15
	#DEBUG_VALUE: propagateFields:perBGrid <- [DW_OP_constu 56, DW_OP_minus] [$rbp+0]
	#DEBUG_VALUE: propagateFields:perBDt2Grid <- [DW_OP_constu 112, DW_OP_minus] [$rbp+0]
	#DEBUG_VALUE: propagateFields:EGrid <- [DW_OP_constu 96, DW_OP_minus] [$rbp+0]
	#DEBUG_VALUE: propagateFields:EDt2Grid <- [DW_OP_constu 128, DW_OP_minus] [$rbp+0]
	#DEBUG_VALUE: propagateFields:EHallGrid <- [DW_OP_constu 88, DW_OP_minus] [$rbp+0]
	#DEBUG_VALUE: propagateFields:EGradPeGrid <- [DW_OP_constu 80, DW_OP_minus] [$rbp+0]
	#DEBUG_VALUE: propagateFields:momentsGrid <- [DW_OP_plus_uconst 16] [$rbp+0]
	#DEBUG_VALUE: propagateFields:momentsDt2Grid <- [DW_OP_plus_uconst 24] [$rbp+0]
	#DEBUG_VALUE: propagateFields:dPerBGrid <- [DW_OP_plus_uconst 32] [$rbp+0]
	#DEBUG_VALUE: propagateFields:dMomentsGrid <- [DW_OP_plus_uconst 40] [$rbp+0]
	#DEBUG_VALUE: propagateFields:BgBGrid <- [DW_OP_plus_uconst 48] [$rbp+0]
	#DEBUG_VALUE: propagateFields:volGrid <- [DW_OP_plus_uconst 56] [$rbp+0]
	#DEBUG_VALUE: propagateFields:technicalGrid <- [DW_OP_plus_uconst 64] [$rbp+0]
	#DEBUG_VALUE: propagateFields:sysBoundaries <- [DW_OP_plus_uconst 72] [$rbp+0]
	#DEBUG_VALUE: propagateFields:dt <- [DW_OP_plus_uconst 80] [$rbp+0]
	#DEBUG_VALUE: propagateFields:subcycles <- [DW_OP_plus_uconst 88] [$rbp+0]
	xorl	%ebx, %ebx
	cmpl	$2, 256(%r15)
	jl	.LBB3_16
.Ltmp47:
.LBB3_15:                               # %L.B1137
                                        #   in Loop: Header=BB3_9 Depth=3
	#DEBUG_VALUE: technicalGrid <- $r15
	#DEBUG_VALUE: hallTermCommunicateDerivatives <- 1
	#DEBUG_VALUE: gridDims <- [DW_OP_plus_uconst 264, DW_OP_stack_value] $r15
	#DEBUG_VALUE: propagateFields:perBGrid <- [DW_OP_constu 56, DW_OP_minus] [$rbp+0]
	#DEBUG_VALUE: propagateFields:perBDt2Grid <- [DW_OP_constu 112, DW_OP_minus] [$rbp+0]
	#DEBUG_VALUE: propagateFields:EGrid <- [DW_OP_constu 96, DW_OP_minus] [$rbp+0]
	#DEBUG_VALUE: propagateFields:EDt2Grid <- [DW_OP_constu 128, DW_OP_minus] [$rbp+0]
	#DEBUG_VALUE: propagateFields:EHallGrid <- [DW_OP_constu 88, DW_OP_minus] [$rbp+0]
	#DEBUG_VALUE: propagateFields:EGradPeGrid <- [DW_OP_constu 80, DW_OP_minus] [$rbp+0]
	#DEBUG_VALUE: propagateFields:momentsGrid <- [DW_OP_plus_uconst 16] [$rbp+0]
	#DEBUG_VALUE: propagateFields:momentsDt2Grid <- [DW_OP_plus_uconst 24] [$rbp+0]
	#DEBUG_VALUE: propagateFields:dPerBGrid <- [DW_OP_plus_uconst 32] [$rbp+0]
	#DEBUG_VALUE: propagateFields:dMomentsGrid <- [DW_OP_plus_uconst 40] [$rbp+0]
	#DEBUG_VALUE: propagateFields:BgBGrid <- [DW_OP_plus_uconst 48] [$rbp+0]
	#DEBUG_VALUE: propagateFields:volGrid <- [DW_OP_plus_uconst 56] [$rbp+0]
	#DEBUG_VALUE: propagateFields:technicalGrid <- [DW_OP_plus_uconst 64] [$rbp+0]
	#DEBUG_VALUE: propagateFields:sysBoundaries <- [DW_OP_plus_uconst 72] [$rbp+0]
	#DEBUG_VALUE: propagateFields:dt <- [DW_OP_plus_uconst 80] [$rbp+0]
	#DEBUG_VALUE: propagateFields:subcycles <- [DW_OP_plus_uconst 88] [$rbp+0]
	addl	$2, %edx
	imull	276(%r15), %edx
	movslq	%edx, %rdx
	addq	%rdx, %rbx
.Ltmp48:
.LBB3_16:                               # %L..inline.64470
                                        #   in Loop: Header=BB3_9 Depth=3
	#DEBUG_VALUE: technicalGrid <- $r15
	#DEBUG_VALUE: hallTermCommunicateDerivatives <- 1
	#DEBUG_VALUE: gridDims <- [DW_OP_plus_uconst 264, DW_OP_stack_value] $r15
	#DEBUG_VALUE: propagateFields:perBGrid <- [DW_OP_constu 56, DW_OP_minus] [$rbp+0]
	#DEBUG_VALUE: propagateFields:perBDt2Grid <- [DW_OP_constu 112, DW_OP_minus] [$rbp+0]
	#DEBUG_VALUE: propagateFields:EGrid <- [DW_OP_constu 96, DW_OP_minus] [$rbp+0]
	#DEBUG_VALUE: propagateFields:EDt2Grid <- [DW_OP_constu 128, DW_OP_minus] [$rbp+0]
	#DEBUG_VALUE: propagateFields:EHallGrid <- [DW_OP_constu 88, DW_OP_minus] [$rbp+0]
	#DEBUG_VALUE: propagateFields:EGradPeGrid <- [DW_OP_constu 80, DW_OP_minus] [$rbp+0]
	#DEBUG_VALUE: propagateFields:momentsGrid <- [DW_OP_plus_uconst 16] [$rbp+0]
	#DEBUG_VALUE: propagateFields:momentsDt2Grid <- [DW_OP_plus_uconst 24] [$rbp+0]
	#DEBUG_VALUE: propagateFields:dPerBGrid <- [DW_OP_plus_uconst 32] [$rbp+0]
	#DEBUG_VALUE: propagateFields:dMomentsGrid <- [DW_OP_plus_uconst 40] [$rbp+0]
	#DEBUG_VALUE: propagateFields:BgBGrid <- [DW_OP_plus_uconst 48] [$rbp+0]
	#DEBUG_VALUE: propagateFields:volGrid <- [DW_OP_plus_uconst 56] [$rbp+0]
	#DEBUG_VALUE: propagateFields:technicalGrid <- [DW_OP_plus_uconst 64] [$rbp+0]
	#DEBUG_VALUE: propagateFields:sysBoundaries <- [DW_OP_plus_uconst 72] [$rbp+0]
	#DEBUG_VALUE: propagateFields:dt <- [DW_OP_plus_uconst 80] [$rbp+0]
	#DEBUG_VALUE: propagateFields:subcycles <- [DW_OP_plus_uconst 88] [$rbp+0]
	cltq
	addq	$2, %rax
	cmpl	$2, 252(%r15)
	movl	$0, %edx
	cmovgeq	%rax, %rdx
	addq	%rbx, %rdx
	movq	744(%r15), %rax
	shlq	$5, %rdx
	movabsq	$9218868437227405311, %rbx # imm = 0x7FEFFFFFFFFFFFFF
	movq	%rbx, 8(%rax,%rdx)
	cmpq	%rdi, %r11
	je	.LBB3_6
.Ltmp49:
# %bb.17:                               # %L..inline.64470.L.B1114_crit_edge
                                        #   in Loop: Header=BB3_9 Depth=3
	#DEBUG_VALUE: technicalGrid <- $r15
	#DEBUG_VALUE: hallTermCommunicateDerivatives <- 1
	#DEBUG_VALUE: gridDims <- [DW_OP_plus_uconst 264, DW_OP_stack_value] $r15
	#DEBUG_VALUE: propagateFields:perBGrid <- [DW_OP_constu 56, DW_OP_minus] [$rbp+0]
	#DEBUG_VALUE: propagateFields:perBDt2Grid <- [DW_OP_constu 112, DW_OP_minus] [$rbp+0]
	#DEBUG_VALUE: propagateFields:EGrid <- [DW_OP_constu 96, DW_OP_minus] [$rbp+0]
	#DEBUG_VALUE: propagateFields:EDt2Grid <- [DW_OP_constu 128, DW_OP_minus] [$rbp+0]
	#DEBUG_VALUE: propagateFields:EHallGrid <- [DW_OP_constu 88, DW_OP_minus] [$rbp+0]
	#DEBUG_VALUE: propagateFields:EGradPeGrid <- [DW_OP_constu 80, DW_OP_minus] [$rbp+0]
	#DEBUG_VALUE: propagateFields:momentsGrid <- [DW_OP_plus_uconst 16] [$rbp+0]
	#DEBUG_VALUE: propagateFields:momentsDt2Grid <- [DW_OP_plus_uconst 24] [$rbp+0]
	#DEBUG_VALUE: propagateFields:dPerBGrid <- [DW_OP_plus_uconst 32] [$rbp+0]
	#DEBUG_VALUE: propagateFields:dMomentsGrid <- [DW_OP_plus_uconst 40] [$rbp+0]
	#DEBUG_VALUE: propagateFields:BgBGrid <- [DW_OP_plus_uconst 48] [$rbp+0]
	#DEBUG_VALUE: propagateFields:volGrid <- [DW_OP_plus_uconst 56] [$rbp+0]
	#DEBUG_VALUE: propagateFields:technicalGrid <- [DW_OP_plus_uconst 64] [$rbp+0]
	#DEBUG_VALUE: propagateFields:sysBoundaries <- [DW_OP_plus_uconst 72] [$rbp+0]
	#DEBUG_VALUE: propagateFields:dt <- [DW_OP_plus_uconst 80] [$rbp+0]
	#DEBUG_VALUE: propagateFields:subcycles <- [DW_OP_plus_uconst 88] [$rbp+0]
	incq	%rdi
	movl	264(%r15), %r8d
	jmp	.LBB3_9
.Ltmp50:
.LBB3_18:                               # %L.B1111
	#DEBUG_VALUE: technicalGrid <- $r15
	#DEBUG_VALUE: hallTermCommunicateDerivatives <- 1
	#DEBUG_VALUE: gridDims <- [DW_OP_plus_uconst 264, DW_OP_stack_value] $r15
	#DEBUG_VALUE: propagateFields:perBGrid <- [DW_OP_constu 56, DW_OP_minus] [$rbp+0]
	#DEBUG_VALUE: propagateFields:perBDt2Grid <- [DW_OP_constu 112, DW_OP_minus] [$rbp+0]
	#DEBUG_VALUE: propagateFields:EGrid <- [DW_OP_constu 96, DW_OP_minus] [$rbp+0]
	#DEBUG_VALUE: propagateFields:EDt2Grid <- [DW_OP_constu 128, DW_OP_minus] [$rbp+0]
	#DEBUG_VALUE: propagateFields:EHallGrid <- [DW_OP_constu 88, DW_OP_minus] [$rbp+0]
	#DEBUG_VALUE: propagateFields:EGradPeGrid <- [DW_OP_constu 80, DW_OP_minus] [$rbp+0]
	#DEBUG_VALUE: propagateFields:momentsGrid <- [DW_OP_plus_uconst 16] [$rbp+0]
	#DEBUG_VALUE: propagateFields:momentsDt2Grid <- [DW_OP_plus_uconst 24] [$rbp+0]
	#DEBUG_VALUE: propagateFields:dPerBGrid <- [DW_OP_plus_uconst 32] [$rbp+0]
	#DEBUG_VALUE: propagateFields:dMomentsGrid <- [DW_OP_plus_uconst 40] [$rbp+0]
	#DEBUG_VALUE: propagateFields:BgBGrid <- [DW_OP_plus_uconst 48] [$rbp+0]
	#DEBUG_VALUE: propagateFields:volGrid <- [DW_OP_plus_uconst 56] [$rbp+0]
	#DEBUG_VALUE: propagateFields:technicalGrid <- [DW_OP_plus_uconst 64] [$rbp+0]
	#DEBUG_VALUE: propagateFields:sysBoundaries <- [DW_OP_plus_uconst 72] [$rbp+0]
	#DEBUG_VALUE: propagateFields:dt <- [DW_OP_plus_uconst 80] [$rbp+0]
	#DEBUG_VALUE: propagateFields:subcycles <- [DW_OP_plus_uconst 88] [$rbp+0]
	.loc	1 0 1                   # fieldsolver/ldz_main.cpp:0:1
	movq	80(%rbp), %r10
.Ltmp51:
	#DEBUG_VALUE: dt <- $r10
	movq	72(%rbp), %r12
.Ltmp52:
	#DEBUG_VALUE: dPerBGrid <- undef
	#DEBUG_VALUE: dMomentsGrid <- undef
	#DEBUG_VALUE: BgBGrid <- undef
	#DEBUG_VALUE: volGrid <- undef
	#DEBUG_VALUE: sysBoundaries <- $r12
	movq	24(%rbp), %r14
.Ltmp53:
	#DEBUG_VALUE: momentsGrid <- undef
	#DEBUG_VALUE: momentsDt2Grid <- $r14
	movl	88(%rbp), %eax
.Ltmp54:
	.loc	1 124 1 is_stmt 1       # fieldsolver/ldz_main.cpp:124:1
	cmpl	$1, %eax
	#DEBUG_VALUE: momentsGrid <- undef
.Ltmp55:
	#DEBUG_VALUE: momentsDt2Grid <- undef
	#DEBUG_VALUE: dPerBGrid <- undef
	#DEBUG_VALUE: dMomentsGrid <- undef
	#DEBUG_VALUE: sysBoundaries <- undef
	jne	.LBB3_21
.Ltmp56:
# %bb.19:                               # %L.B1138
	#DEBUG_VALUE: momentsDt2Grid <- $r14
	#DEBUG_VALUE: sysBoundaries <- $r12
	#DEBUG_VALUE: dt <- $r10
	#DEBUG_VALUE: technicalGrid <- $r15
	#DEBUG_VALUE: hallTermCommunicateDerivatives <- 1
	#DEBUG_VALUE: gridDims <- [DW_OP_plus_uconst 264, DW_OP_stack_value] $r15
	#DEBUG_VALUE: propagateFields:perBGrid <- [DW_OP_constu 56, DW_OP_minus] [$rbp+0]
	#DEBUG_VALUE: propagateFields:perBDt2Grid <- [DW_OP_constu 112, DW_OP_minus] [$rbp+0]
	#DEBUG_VALUE: propagateFields:EGrid <- [DW_OP_constu 96, DW_OP_minus] [$rbp+0]
	#DEBUG_VALUE: propagateFields:EDt2Grid <- [DW_OP_constu 128, DW_OP_minus] [$rbp+0]
	#DEBUG_VALUE: propagateFields:EHallGrid <- [DW_OP_constu 88, DW_OP_minus] [$rbp+0]
	#DEBUG_VALUE: propagateFields:EGradPeGrid <- [DW_OP_constu 80, DW_OP_minus] [$rbp+0]
	#DEBUG_VALUE: propagateFields:momentsGrid <- [DW_OP_plus_uconst 16] [$rbp+0]
	#DEBUG_VALUE: propagateFields:momentsDt2Grid <- [DW_OP_plus_uconst 24] [$rbp+0]
	#DEBUG_VALUE: propagateFields:dPerBGrid <- [DW_OP_plus_uconst 32] [$rbp+0]
	#DEBUG_VALUE: propagateFields:dMomentsGrid <- [DW_OP_plus_uconst 40] [$rbp+0]
	#DEBUG_VALUE: propagateFields:BgBGrid <- [DW_OP_plus_uconst 48] [$rbp+0]
	#DEBUG_VALUE: propagateFields:volGrid <- [DW_OP_plus_uconst 56] [$rbp+0]
	#DEBUG_VALUE: propagateFields:technicalGrid <- [DW_OP_plus_uconst 64] [$rbp+0]
	#DEBUG_VALUE: propagateFields:sysBoundaries <- [DW_OP_plus_uconst 72] [$rbp+0]
	#DEBUG_VALUE: propagateFields:dt <- [DW_OP_plus_uconst 80] [$rbp+0]
	#DEBUG_VALUE: propagateFields:subcycles <- [DW_OP_plus_uconst 88] [$rbp+0]
	.loc	1 165 1                 # fieldsolver/ldz_main.cpp:165:1
	movl	$1, -48(%rbp)
	.cfi_escape 0x2e, 0x10
	leaq	-48(%rbp), %rax
	movq	-56(%rbp), %r13         # 8-byte Reload
	movq	%r13, %rdi
	movq	-112(%rbp), %rbx        # 8-byte Reload
	movq	%rbx, %rsi
	movq	-96(%rbp), %rdx         # 8-byte Reload
	movq	-128(%rbp), %rcx        # 8-byte Reload
	movq	%r15, %r8
	movq	%r12, %r9
	pushq	%rax
	pushq	%r10
	callq	_Z28propagateMagneticFieldSimpleR6FsGridISt5arrayIdLm3EELi2EES3_S3_S3_RS_IN7fsgrids9technicalELi2EER11SysBoundaryRKdRKi
.Ltmp57:
	addq	$16, %rsp
	.loc	1 166 1                 # fieldsolver/ldz_main.cpp:166:1
	movl	$1, -48(%rbp)
	.cfi_escape 0x2e, 0x20
	movq	%r13, %rdi
	movq	40(%rbp), %r13
	movq	%rbx, %rsi
	movq	16(%rbp), %rbx
	movq	%rbx, %rdx
	movq	%r14, %rcx
	movq	32(%rbp), %r8
	movq	%r13, %r9
	pushq	$1
	leaq	-48(%rbp), %rax
	pushq	%rax
	pushq	%r12
	pushq	%r15
	callq	_Z26calculateDerivativesSimpleR6FsGridISt5arrayIdLm3EELi2EES3_RS_IS0_IdLm8EELi2EES6_RS_IS0_IdLm15EELi2EERS_IS0_IdLm24EELi2EERS_IN7fsgrids9technicalELi2EER11SysBoundaryRKib
	addq	$32, %rsp
.Ltmp58:
	.loc	1 167 1                 # fieldsolver/ldz_main.cpp:167:1
	cmpl	$0, _ZN10Parameters13ohmGradPeTermE(%rip)
	je	.LBB3_88
.Ltmp59:
# %bb.20:                               # %L.B1139
	#DEBUG_VALUE: momentsDt2Grid <- $r14
	#DEBUG_VALUE: sysBoundaries <- $r12
	#DEBUG_VALUE: technicalGrid <- $r15
	#DEBUG_VALUE: hallTermCommunicateDerivatives <- 1
	#DEBUG_VALUE: gridDims <- [DW_OP_plus_uconst 264, DW_OP_stack_value] $r15
	#DEBUG_VALUE: propagateFields:perBGrid <- [DW_OP_constu 56, DW_OP_minus] [$rbp+0]
	#DEBUG_VALUE: propagateFields:perBDt2Grid <- [DW_OP_constu 112, DW_OP_minus] [$rbp+0]
	#DEBUG_VALUE: propagateFields:EGrid <- [DW_OP_constu 96, DW_OP_minus] [$rbp+0]
	#DEBUG_VALUE: propagateFields:EDt2Grid <- [DW_OP_constu 128, DW_OP_minus] [$rbp+0]
	#DEBUG_VALUE: propagateFields:EHallGrid <- [DW_OP_constu 88, DW_OP_minus] [$rbp+0]
	#DEBUG_VALUE: propagateFields:EGradPeGrid <- [DW_OP_constu 80, DW_OP_minus] [$rbp+0]
	#DEBUG_VALUE: propagateFields:momentsGrid <- [DW_OP_plus_uconst 16] [$rbp+0]
	#DEBUG_VALUE: propagateFields:momentsDt2Grid <- [DW_OP_plus_uconst 24] [$rbp+0]
	#DEBUG_VALUE: propagateFields:dPerBGrid <- [DW_OP_plus_uconst 32] [$rbp+0]
	#DEBUG_VALUE: propagateFields:dMomentsGrid <- [DW_OP_plus_uconst 40] [$rbp+0]
	#DEBUG_VALUE: propagateFields:BgBGrid <- [DW_OP_plus_uconst 48] [$rbp+0]
	#DEBUG_VALUE: propagateFields:volGrid <- [DW_OP_plus_uconst 56] [$rbp+0]
	#DEBUG_VALUE: propagateFields:technicalGrid <- [DW_OP_plus_uconst 64] [$rbp+0]
	#DEBUG_VALUE: propagateFields:sysBoundaries <- [DW_OP_plus_uconst 72] [$rbp+0]
	#DEBUG_VALUE: propagateFields:dt <- [DW_OP_plus_uconst 80] [$rbp+0]
	#DEBUG_VALUE: propagateFields:subcycles <- [DW_OP_plus_uconst 88] [$rbp+0]
	.loc	1 168 1                 # fieldsolver/ldz_main.cpp:168:1
	movl	$1, -272(%rbp)
	.cfi_escape 0x2e, 0x10
	subq	$8, %rsp
	leaq	-272(%rbp), %rax
	movq	-80(%rbp), %rdi         # 8-byte Reload
	movq	%rbx, %rsi
	movq	%r14, %rdx
	movq	%r13, %rcx
	movq	%r15, %r8
	movq	72(%rbp), %r9
	pushq	%rax
	callq	_Z25calculateGradPeTermSimpleR6FsGridISt5arrayIdLm3EELi2EERS_IS0_IdLm8EELi2EES6_RS_IS0_IdLm24EELi2EERS_IN7fsgrids9technicalELi2EER11SysBoundaryRKi
	addq	$16, %rsp
	xorl	%r14d, %r14d
.Ltmp60:
	#DEBUG_VALUE: hallTermCommunicateDerivatives <- 0
	.loc	1 0 1 is_stmt 0         # fieldsolver/ldz_main.cpp:0:1
	jmp	.LBB3_89
.Ltmp61:
.LBB3_21:                               # %L.B0017
	#DEBUG_VALUE: momentsDt2Grid <- $r14
	#DEBUG_VALUE: sysBoundaries <- $r12
	#DEBUG_VALUE: dt <- $r10
	#DEBUG_VALUE: technicalGrid <- $r15
	#DEBUG_VALUE: hallTermCommunicateDerivatives <- 1
	#DEBUG_VALUE: gridDims <- [DW_OP_plus_uconst 264, DW_OP_stack_value] $r15
	#DEBUG_VALUE: propagateFields:perBGrid <- [DW_OP_constu 56, DW_OP_minus] [$rbp+0]
	#DEBUG_VALUE: propagateFields:perBDt2Grid <- [DW_OP_constu 112, DW_OP_minus] [$rbp+0]
	#DEBUG_VALUE: propagateFields:EGrid <- [DW_OP_constu 96, DW_OP_minus] [$rbp+0]
	#DEBUG_VALUE: propagateFields:EDt2Grid <- [DW_OP_constu 128, DW_OP_minus] [$rbp+0]
	#DEBUG_VALUE: propagateFields:EHallGrid <- [DW_OP_constu 88, DW_OP_minus] [$rbp+0]
	#DEBUG_VALUE: propagateFields:EGradPeGrid <- [DW_OP_constu 80, DW_OP_minus] [$rbp+0]
	#DEBUG_VALUE: propagateFields:momentsGrid <- [DW_OP_plus_uconst 16] [$rbp+0]
	#DEBUG_VALUE: propagateFields:momentsDt2Grid <- [DW_OP_plus_uconst 24] [$rbp+0]
	#DEBUG_VALUE: propagateFields:dPerBGrid <- [DW_OP_plus_uconst 32] [$rbp+0]
	#DEBUG_VALUE: propagateFields:dMomentsGrid <- [DW_OP_plus_uconst 40] [$rbp+0]
	#DEBUG_VALUE: propagateFields:BgBGrid <- [DW_OP_plus_uconst 48] [$rbp+0]
	#DEBUG_VALUE: propagateFields:volGrid <- [DW_OP_plus_uconst 56] [$rbp+0]
	#DEBUG_VALUE: propagateFields:technicalGrid <- [DW_OP_plus_uconst 64] [$rbp+0]
	#DEBUG_VALUE: propagateFields:sysBoundaries <- [DW_OP_plus_uconst 72] [$rbp+0]
	#DEBUG_VALUE: propagateFields:dt <- [DW_OP_plus_uconst 80] [$rbp+0]
	#DEBUG_VALUE: propagateFields:subcycles <- [DW_OP_plus_uconst 88] [$rbp+0]
	.loc	1 244 1 is_stmt 1       # fieldsolver/ldz_main.cpp:244:1
	movl	%eax, %eax
	vcvtsi2sd	%rax, %xmm0, %xmm0
.Ltmp62:
	.loc	1 56 1                  # fieldsolver/ldz_main.cpp:56:1
	vmovsd	(%r10), %xmm1           # xmm1 = mem[0],zero
	vdivsd	%xmm0, %xmm1, %xmm0
.Ltmp63:
	#DEBUG_VALUE: subcycleDt <- $xmm0
	vmovsd	%xmm0, -64(%rbp)
.Ltmp64:
	.loc	1 245 1                 # fieldsolver/ldz_main.cpp:245:1
	vmovsd	_ZN10Parameters1tE(%rip), %xmm0 # xmm0 = mem[0],zero
.Ltmp65:
	#DEBUG_VALUE: subcycleT <- $xmm0
	.loc	1 0 1 is_stmt 0         # fieldsolver/ldz_main.cpp:0:1
	vmovsd	%xmm0, -144(%rbp)       # 8-byte Spill
.Ltmp66:
	#DEBUG_VALUE: subcycleT <- [DW_OP_constu 144, DW_OP_minus] [$rbp+0]
	.loc	1 246 1 is_stmt 1       # fieldsolver/ldz_main.cpp:246:1
	vaddsd	%xmm0, %xmm1, %xmm0
.Ltmp67:
	#DEBUG_VALUE: maxSubcycleCount <- -1
	#DEBUG_VALUE: subcycleCount <- 0
	#DEBUG_VALUE: targetT <- $xmm0
	.loc	1 0 1 is_stmt 0         # fieldsolver/ldz_main.cpp:0:1
	vmovsd	%xmm0, -240(%rbp)       # 8-byte Spill
.Ltmp68:
	#DEBUG_VALUE: targetT <- [DW_OP_constu 240, DW_OP_minus] [$rbp+0]
	#DEBUG_VALUE: targetT <- [DW_OP_constu 240, DW_OP_minus] [$rbp+0]
	movq	-56(%rbp), %rbx         # 8-byte Reload
.Ltmp69:
	.loc	1 869 1 is_stmt 1       # fieldsolver/ldz_main.cpp:869:1
	movl	56(%rbx), %eax
	movl	%eax, -188(%rbp)        # 4-byte Spill
	movl	$1, -120(%rbp)          # 4-byte Folded Spill
	movl	$-1, %r14d
.Ltmp70:
	.loc	1 0 1 is_stmt 0         # fieldsolver/ldz_main.cpp:0:1
	xorl	%ecx, %ecx
.Ltmp71:
	#DEBUG_VALUE: myRank <- [DW_OP_constu 188, DW_OP_minus] [$rbp+0]
	.loc	1 248 1 is_stmt 1       # fieldsolver/ldz_main.cpp:248:1
	movl	$-1, -136(%rbp)         # 4-byte Folded Spill
	#DEBUG_VALUE: maxSubcycleCount <- -1
	#DEBUG_VALUE: subcycleCount <- 0
	#DEBUG_VALUE: targetT <- [DW_OP_constu 240, DW_OP_minus] [$rbp+0]
	#DEBUG_VALUE: subcycleT <- [DW_OP_constu 144, DW_OP_minus] [$rbp+0]
	jmp	.LBB3_23
.Ltmp72:
	.p2align	4, 0x90
.LBB3_22:                               # %L..inline.66538
                                        #   in Loop: Header=BB3_23 Depth=1
	#DEBUG_VALUE: ....inline.__FILL_CHARARRAY <- [DW_OP_LLVM_convert 32 7, DW_OP_LLVM_convert 8 7, DW_OP_stack_value] 0
	#DEBUG_VALUE: hallTermCommunicateDerivatives <- [DW_OP_constu 120, DW_OP_minus] [$rbp+0]
	#DEBUG_VALUE: technicalGrid <- $r15
	#DEBUG_VALUE: gridDims <- [DW_OP_plus_uconst 264, DW_OP_stack_value] $r15
	#DEBUG_VALUE: propagateFields:perBGrid <- [DW_OP_constu 56, DW_OP_minus] [$rbp+0]
	#DEBUG_VALUE: propagateFields:perBDt2Grid <- [DW_OP_constu 112, DW_OP_minus] [$rbp+0]
	#DEBUG_VALUE: propagateFields:EGrid <- [DW_OP_constu 96, DW_OP_minus] [$rbp+0]
	#DEBUG_VALUE: propagateFields:EDt2Grid <- [DW_OP_constu 128, DW_OP_minus] [$rbp+0]
	#DEBUG_VALUE: propagateFields:EHallGrid <- [DW_OP_constu 88, DW_OP_minus] [$rbp+0]
	#DEBUG_VALUE: propagateFields:EGradPeGrid <- [DW_OP_constu 80, DW_OP_minus] [$rbp+0]
	#DEBUG_VALUE: propagateFields:momentsGrid <- [DW_OP_plus_uconst 16] [$rbp+0]
	#DEBUG_VALUE: propagateFields:momentsDt2Grid <- [DW_OP_plus_uconst 24] [$rbp+0]
	#DEBUG_VALUE: propagateFields:dPerBGrid <- [DW_OP_plus_uconst 32] [$rbp+0]
	#DEBUG_VALUE: propagateFields:dMomentsGrid <- [DW_OP_plus_uconst 40] [$rbp+0]
	#DEBUG_VALUE: propagateFields:BgBGrid <- [DW_OP_plus_uconst 48] [$rbp+0]
	#DEBUG_VALUE: propagateFields:volGrid <- [DW_OP_plus_uconst 56] [$rbp+0]
	#DEBUG_VALUE: propagateFields:technicalGrid <- [DW_OP_plus_uconst 64] [$rbp+0]
	#DEBUG_VALUE: propagateFields:sysBoundaries <- [DW_OP_plus_uconst 72] [$rbp+0]
	#DEBUG_VALUE: propagateFields:dt <- [DW_OP_plus_uconst 80] [$rbp+0]
	#DEBUG_VALUE: propagateFields:subcycles <- [DW_OP_plus_uconst 88] [$rbp+0]
	.loc	1 401 1                 # fieldsolver/ldz_main.cpp:401:1
	movl	-136(%rbp), %eax        # 4-byte Reload
	.loc	1 248 1                 # fieldsolver/ldz_main.cpp:248:1
	movq	%r13, %rcx
	.loc	1 401 1                 # fieldsolver/ldz_main.cpp:401:1
	cmpq	%rax, %r13
	movq	-56(%rbp), %rbx         # 8-byte Reload
	jae	.LBB3_87
.Ltmp73:
.LBB3_23:                               # %L.B0034
                                        # =>This Loop Header: Depth=1
                                        #     Child Loop BB3_43 Depth 2
                                        #       Child Loop BB3_46 Depth 3
                                        #         Child Loop BB3_50 Depth 4
	#DEBUG_VALUE: technicalGrid <- $r15
	#DEBUG_VALUE: gridDims <- [DW_OP_plus_uconst 264, DW_OP_stack_value] $r15
	#DEBUG_VALUE: propagateFields:perBGrid <- [DW_OP_constu 56, DW_OP_minus] [$rbp+0]
	#DEBUG_VALUE: propagateFields:perBDt2Grid <- [DW_OP_constu 112, DW_OP_minus] [$rbp+0]
	#DEBUG_VALUE: propagateFields:EGrid <- [DW_OP_constu 96, DW_OP_minus] [$rbp+0]
	#DEBUG_VALUE: propagateFields:EDt2Grid <- [DW_OP_constu 128, DW_OP_minus] [$rbp+0]
	#DEBUG_VALUE: propagateFields:EHallGrid <- [DW_OP_constu 88, DW_OP_minus] [$rbp+0]
	#DEBUG_VALUE: propagateFields:EGradPeGrid <- [DW_OP_constu 80, DW_OP_minus] [$rbp+0]
	#DEBUG_VALUE: propagateFields:momentsGrid <- [DW_OP_plus_uconst 16] [$rbp+0]
	#DEBUG_VALUE: propagateFields:momentsDt2Grid <- [DW_OP_plus_uconst 24] [$rbp+0]
	#DEBUG_VALUE: propagateFields:dPerBGrid <- [DW_OP_plus_uconst 32] [$rbp+0]
	#DEBUG_VALUE: propagateFields:dMomentsGrid <- [DW_OP_plus_uconst 40] [$rbp+0]
	#DEBUG_VALUE: propagateFields:BgBGrid <- [DW_OP_plus_uconst 48] [$rbp+0]
	#DEBUG_VALUE: propagateFields:volGrid <- [DW_OP_plus_uconst 56] [$rbp+0]
	#DEBUG_VALUE: propagateFields:technicalGrid <- [DW_OP_plus_uconst 64] [$rbp+0]
	#DEBUG_VALUE: propagateFields:sysBoundaries <- [DW_OP_plus_uconst 72] [$rbp+0]
	#DEBUG_VALUE: propagateFields:dt <- [DW_OP_plus_uconst 80] [$rbp+0]
	#DEBUG_VALUE: propagateFields:subcycles <- [DW_OP_plus_uconst 88] [$rbp+0]
	#DEBUG_VALUE: hallTermCommunicateDerivatives <- [DW_OP_constu 120, DW_OP_minus] [$rbp+0]
	#DEBUG_VALUE: subcycleT <- [DW_OP_constu 144, DW_OP_minus] [$rbp+0]
	#DEBUG_VALUE: subcycleCount <- $rcx
	#DEBUG_VALUE: maxSubcycleCount <- [DW_OP_constu 136, DW_OP_minus] [$rbp+0]
	.loc	1 254 1                 # fieldsolver/ldz_main.cpp:254:1
	movl	$1, -44(%rbp)
.Ltmp74:
	#DEBUG_VALUE: subcycleDt <- [DW_OP_constu 64, DW_OP_minus, DW_OP_deref] $rbp
	.cfi_escape 0x2e, 0x10
	movq	%rbx, %rdi
	movq	%rcx, %r13
.Ltmp75:
	#DEBUG_VALUE: subcycleCount <- $r13
	#DEBUG_VALUE: subcycleCount <- $r13
	#DEBUG_VALUE: subcycleCount <- $r13
	.loc	1 0 1 is_stmt 0         # fieldsolver/ldz_main.cpp:0:1
	movq	-112(%rbp), %rsi        # 8-byte Reload
	movq	-96(%rbp), %rdx         # 8-byte Reload
	movq	-128(%rbp), %rcx        # 8-byte Reload
	.loc	1 254 1                 # fieldsolver/ldz_main.cpp:254:1
	movq	%r15, %r8
	movq	72(%rbp), %r12
	movq	%r12, %r9
	leaq	-44(%rbp), %rax
	pushq	%rax
	leaq	-64(%rbp), %rax
	pushq	%rax
	callq	_Z28propagateMagneticFieldSimpleR6FsGridISt5arrayIdLm3EELi2EES3_S3_S3_RS_IN7fsgrids9technicalELi2EER11SysBoundaryRKdRKi
	addq	$16, %rsp
	.loc	1 258 1 is_stmt 1       # fieldsolver/ldz_main.cpp:258:1
	movl	$1, -44(%rbp)
	xorl	%eax, %eax
	testq	%r13, %r13
	sete	%al
	.cfi_escape 0x2e, 0x20
	movq	%rbx, %rdi
	movq	-112(%rbp), %rsi        # 8-byte Reload
	movq	16(%rbp), %rdx
	movq	24(%rbp), %rcx
	movq	32(%rbp), %r8
	movq	40(%rbp), %r9
	movq	%rax, -72(%rbp)         # 8-byte Spill
	pushq	%rax
	leaq	-44(%rbp), %rax
	pushq	%rax
	pushq	%r12
	pushq	%r15
	callq	_Z26calculateDerivativesSimpleR6FsGridISt5arrayIdLm3EELi2EES3_RS_IS0_IdLm8EELi2EES6_RS_IS0_IdLm15EELi2EERS_IS0_IdLm24EELi2EERS_IN7fsgrids9technicalELi2EER11SysBoundaryRKib
	addq	$32, %rsp
	movq	%r13, -152(%rbp)        # 8-byte Spill
.Ltmp76:
	#DEBUG_VALUE: subcycleCount <- [DW_OP_constu 152, DW_OP_minus] [$rbp+0]
	testq	%r13, %r13
.Ltmp77:
	.loc	1 259 1                 # fieldsolver/ldz_main.cpp:259:1
	jne	.LBB3_26
.Ltmp78:
# %bb.24:                               # %L.B0034
                                        #   in Loop: Header=BB3_23 Depth=1
	#DEBUG_VALUE: subcycleCount <- [DW_OP_constu 152, DW_OP_minus] [$rbp+0]
	#DEBUG_VALUE: subcycleDt <- [DW_OP_constu 64, DW_OP_minus, DW_OP_deref] $rbp
	#DEBUG_VALUE: maxSubcycleCount <- [DW_OP_constu 136, DW_OP_minus] [$rbp+0]
	#DEBUG_VALUE: hallTermCommunicateDerivatives <- [DW_OP_constu 120, DW_OP_minus] [$rbp+0]
	#DEBUG_VALUE: subcycleT <- [DW_OP_constu 144, DW_OP_minus] [$rbp+0]
	#DEBUG_VALUE: technicalGrid <- $r15
	#DEBUG_VALUE: gridDims <- [DW_OP_plus_uconst 264, DW_OP_stack_value] $r15
	#DEBUG_VALUE: propagateFields:perBGrid <- [DW_OP_constu 56, DW_OP_minus] [$rbp+0]
	#DEBUG_VALUE: propagateFields:perBDt2Grid <- [DW_OP_constu 112, DW_OP_minus] [$rbp+0]
	#DEBUG_VALUE: propagateFields:EGrid <- [DW_OP_constu 96, DW_OP_minus] [$rbp+0]
	#DEBUG_VALUE: propagateFields:EDt2Grid <- [DW_OP_constu 128, DW_OP_minus] [$rbp+0]
	#DEBUG_VALUE: propagateFields:EHallGrid <- [DW_OP_constu 88, DW_OP_minus] [$rbp+0]
	#DEBUG_VALUE: propagateFields:EGradPeGrid <- [DW_OP_constu 80, DW_OP_minus] [$rbp+0]
	#DEBUG_VALUE: propagateFields:momentsGrid <- [DW_OP_plus_uconst 16] [$rbp+0]
	#DEBUG_VALUE: propagateFields:momentsDt2Grid <- [DW_OP_plus_uconst 24] [$rbp+0]
	#DEBUG_VALUE: propagateFields:dPerBGrid <- [DW_OP_plus_uconst 32] [$rbp+0]
	#DEBUG_VALUE: propagateFields:dMomentsGrid <- [DW_OP_plus_uconst 40] [$rbp+0]
	#DEBUG_VALUE: propagateFields:BgBGrid <- [DW_OP_plus_uconst 48] [$rbp+0]
	#DEBUG_VALUE: propagateFields:volGrid <- [DW_OP_plus_uconst 56] [$rbp+0]
	#DEBUG_VALUE: propagateFields:technicalGrid <- [DW_OP_plus_uconst 64] [$rbp+0]
	#DEBUG_VALUE: propagateFields:sysBoundaries <- [DW_OP_plus_uconst 72] [$rbp+0]
	#DEBUG_VALUE: propagateFields:dt <- [DW_OP_plus_uconst 80] [$rbp+0]
	#DEBUG_VALUE: propagateFields:subcycles <- [DW_OP_plus_uconst 88] [$rbp+0]
	cmpl	$0, _ZN10Parameters13ohmGradPeTermE(%rip)
	movq	16(%rbp), %rbx
	je	.LBB3_27
.Ltmp79:
# %bb.25:                               # %L.B1144
                                        #   in Loop: Header=BB3_23 Depth=1
	#DEBUG_VALUE: subcycleCount <- [DW_OP_constu 152, DW_OP_minus] [$rbp+0]
	#DEBUG_VALUE: subcycleDt <- [DW_OP_constu 64, DW_OP_minus, DW_OP_deref] $rbp
	#DEBUG_VALUE: maxSubcycleCount <- [DW_OP_constu 136, DW_OP_minus] [$rbp+0]
	#DEBUG_VALUE: hallTermCommunicateDerivatives <- [DW_OP_constu 120, DW_OP_minus] [$rbp+0]
	#DEBUG_VALUE: subcycleT <- [DW_OP_constu 144, DW_OP_minus] [$rbp+0]
	#DEBUG_VALUE: technicalGrid <- $r15
	#DEBUG_VALUE: gridDims <- [DW_OP_plus_uconst 264, DW_OP_stack_value] $r15
	#DEBUG_VALUE: propagateFields:perBGrid <- [DW_OP_constu 56, DW_OP_minus] [$rbp+0]
	#DEBUG_VALUE: propagateFields:perBDt2Grid <- [DW_OP_constu 112, DW_OP_minus] [$rbp+0]
	#DEBUG_VALUE: propagateFields:EGrid <- [DW_OP_constu 96, DW_OP_minus] [$rbp+0]
	#DEBUG_VALUE: propagateFields:EDt2Grid <- [DW_OP_constu 128, DW_OP_minus] [$rbp+0]
	#DEBUG_VALUE: propagateFields:EHallGrid <- [DW_OP_constu 88, DW_OP_minus] [$rbp+0]
	#DEBUG_VALUE: propagateFields:EGradPeGrid <- [DW_OP_constu 80, DW_OP_minus] [$rbp+0]
	#DEBUG_VALUE: propagateFields:momentsGrid <- [DW_OP_plus_uconst 16] [$rbp+0]
	#DEBUG_VALUE: propagateFields:momentsDt2Grid <- [DW_OP_plus_uconst 24] [$rbp+0]
	#DEBUG_VALUE: propagateFields:dPerBGrid <- [DW_OP_plus_uconst 32] [$rbp+0]
	#DEBUG_VALUE: propagateFields:dMomentsGrid <- [DW_OP_plus_uconst 40] [$rbp+0]
	#DEBUG_VALUE: propagateFields:BgBGrid <- [DW_OP_plus_uconst 48] [$rbp+0]
	#DEBUG_VALUE: propagateFields:volGrid <- [DW_OP_plus_uconst 56] [$rbp+0]
	#DEBUG_VALUE: propagateFields:technicalGrid <- [DW_OP_plus_uconst 64] [$rbp+0]
	#DEBUG_VALUE: propagateFields:sysBoundaries <- [DW_OP_plus_uconst 72] [$rbp+0]
	#DEBUG_VALUE: propagateFields:dt <- [DW_OP_plus_uconst 80] [$rbp+0]
	#DEBUG_VALUE: propagateFields:subcycles <- [DW_OP_plus_uconst 88] [$rbp+0]
	.loc	1 260 1                 # fieldsolver/ldz_main.cpp:260:1
	movl	$1, -256(%rbp)
	.cfi_escape 0x2e, 0x10
	subq	$8, %rsp
	movq	-80(%rbp), %rdi         # 8-byte Reload
	movq	%rbx, %rsi
	movq	24(%rbp), %rdx
	movq	40(%rbp), %rcx
	movq	%r15, %r8
	movq	72(%rbp), %r9
	leaq	-256(%rbp), %rax
	pushq	%rax
	callq	_Z25calculateGradPeTermSimpleR6FsGridISt5arrayIdLm3EELi2EERS_IS0_IdLm8EELi2EES6_RS_IS0_IdLm24EELi2EERS_IN7fsgrids9technicalELi2EER11SysBoundaryRKi
	addq	$16, %rsp
	movl	$0, -120(%rbp)          # 4-byte Folded Spill
.Ltmp80:
	#DEBUG_VALUE: hallTermCommunicateDerivatives <- 0
	.loc	1 0 1 is_stmt 0         # fieldsolver/ldz_main.cpp:0:1
	jmp	.LBB3_27
.Ltmp81:
	.p2align	4, 0x90
.LBB3_26:                               #   in Loop: Header=BB3_23 Depth=1
	#DEBUG_VALUE: subcycleCount <- [DW_OP_constu 152, DW_OP_minus] [$rbp+0]
	#DEBUG_VALUE: subcycleDt <- [DW_OP_constu 64, DW_OP_minus, DW_OP_deref] $rbp
	#DEBUG_VALUE: maxSubcycleCount <- [DW_OP_constu 136, DW_OP_minus] [$rbp+0]
	#DEBUG_VALUE: hallTermCommunicateDerivatives <- [DW_OP_constu 120, DW_OP_minus] [$rbp+0]
	#DEBUG_VALUE: subcycleT <- [DW_OP_constu 144, DW_OP_minus] [$rbp+0]
	#DEBUG_VALUE: technicalGrid <- $r15
	#DEBUG_VALUE: gridDims <- [DW_OP_plus_uconst 264, DW_OP_stack_value] $r15
	#DEBUG_VALUE: propagateFields:perBGrid <- [DW_OP_constu 56, DW_OP_minus] [$rbp+0]
	#DEBUG_VALUE: propagateFields:perBDt2Grid <- [DW_OP_constu 112, DW_OP_minus] [$rbp+0]
	#DEBUG_VALUE: propagateFields:EGrid <- [DW_OP_constu 96, DW_OP_minus] [$rbp+0]
	#DEBUG_VALUE: propagateFields:EDt2Grid <- [DW_OP_constu 128, DW_OP_minus] [$rbp+0]
	#DEBUG_VALUE: propagateFields:EHallGrid <- [DW_OP_constu 88, DW_OP_minus] [$rbp+0]
	#DEBUG_VALUE: propagateFields:EGradPeGrid <- [DW_OP_constu 80, DW_OP_minus] [$rbp+0]
	#DEBUG_VALUE: propagateFields:momentsGrid <- [DW_OP_plus_uconst 16] [$rbp+0]
	#DEBUG_VALUE: propagateFields:momentsDt2Grid <- [DW_OP_plus_uconst 24] [$rbp+0]
	#DEBUG_VALUE: propagateFields:dPerBGrid <- [DW_OP_plus_uconst 32] [$rbp+0]
	#DEBUG_VALUE: propagateFields:dMomentsGrid <- [DW_OP_plus_uconst 40] [$rbp+0]
	#DEBUG_VALUE: propagateFields:BgBGrid <- [DW_OP_plus_uconst 48] [$rbp+0]
	#DEBUG_VALUE: propagateFields:volGrid <- [DW_OP_plus_uconst 56] [$rbp+0]
	#DEBUG_VALUE: propagateFields:technicalGrid <- [DW_OP_plus_uconst 64] [$rbp+0]
	#DEBUG_VALUE: propagateFields:sysBoundaries <- [DW_OP_plus_uconst 72] [$rbp+0]
	#DEBUG_VALUE: propagateFields:dt <- [DW_OP_plus_uconst 80] [$rbp+0]
	#DEBUG_VALUE: propagateFields:subcycles <- [DW_OP_plus_uconst 88] [$rbp+0]
	movq	16(%rbp), %rbx
.Ltmp82:
.LBB3_27:                               # %L.B0037
                                        #   in Loop: Header=BB3_23 Depth=1
	#DEBUG_VALUE: subcycleCount <- [DW_OP_constu 152, DW_OP_minus] [$rbp+0]
	#DEBUG_VALUE: subcycleDt <- [DW_OP_constu 64, DW_OP_minus, DW_OP_deref] $rbp
	#DEBUG_VALUE: maxSubcycleCount <- [DW_OP_constu 136, DW_OP_minus] [$rbp+0]
	#DEBUG_VALUE: subcycleT <- [DW_OP_constu 144, DW_OP_minus] [$rbp+0]
	#DEBUG_VALUE: technicalGrid <- $r15
	#DEBUG_VALUE: gridDims <- [DW_OP_plus_uconst 264, DW_OP_stack_value] $r15
	#DEBUG_VALUE: propagateFields:perBGrid <- [DW_OP_constu 56, DW_OP_minus] [$rbp+0]
	#DEBUG_VALUE: propagateFields:perBDt2Grid <- [DW_OP_constu 112, DW_OP_minus] [$rbp+0]
	#DEBUG_VALUE: propagateFields:EGrid <- [DW_OP_constu 96, DW_OP_minus] [$rbp+0]
	#DEBUG_VALUE: propagateFields:EDt2Grid <- [DW_OP_constu 128, DW_OP_minus] [$rbp+0]
	#DEBUG_VALUE: propagateFields:EHallGrid <- [DW_OP_constu 88, DW_OP_minus] [$rbp+0]
	#DEBUG_VALUE: propagateFields:EGradPeGrid <- [DW_OP_constu 80, DW_OP_minus] [$rbp+0]
	#DEBUG_VALUE: propagateFields:momentsGrid <- [DW_OP_plus_uconst 16] [$rbp+0]
	#DEBUG_VALUE: propagateFields:momentsDt2Grid <- [DW_OP_plus_uconst 24] [$rbp+0]
	#DEBUG_VALUE: propagateFields:dPerBGrid <- [DW_OP_plus_uconst 32] [$rbp+0]
	#DEBUG_VALUE: propagateFields:dMomentsGrid <- [DW_OP_plus_uconst 40] [$rbp+0]
	#DEBUG_VALUE: propagateFields:BgBGrid <- [DW_OP_plus_uconst 48] [$rbp+0]
	#DEBUG_VALUE: propagateFields:volGrid <- [DW_OP_plus_uconst 56] [$rbp+0]
	#DEBUG_VALUE: propagateFields:technicalGrid <- [DW_OP_plus_uconst 64] [$rbp+0]
	#DEBUG_VALUE: propagateFields:sysBoundaries <- [DW_OP_plus_uconst 72] [$rbp+0]
	#DEBUG_VALUE: propagateFields:dt <- [DW_OP_plus_uconst 80] [$rbp+0]
	#DEBUG_VALUE: propagateFields:subcycles <- [DW_OP_plus_uconst 88] [$rbp+0]
	#DEBUG_VALUE: hallTermCommunicateDerivatives <- [DW_OP_constu 120, DW_OP_minus] [$rbp+0]
	.loc	1 263 1 is_stmt 1       # fieldsolver/ldz_main.cpp:263:1
	cmpl	$0, _ZN10Parameters11ohmHallTermE(%rip)
	movq	%rbx, %r10
	movq	32(%rbp), %r11
	movq	-88(%rbp), %r8          # 8-byte Reload
	movq	-112(%rbp), %r12        # 8-byte Reload
	movq	-56(%rbp), %r13         # 8-byte Reload
	movq	24(%rbp), %rax
	je	.LBB3_29
.Ltmp83:
# %bb.28:                               # %L.B1145
                                        #   in Loop: Header=BB3_23 Depth=1
	#DEBUG_VALUE: subcycleCount <- [DW_OP_constu 152, DW_OP_minus] [$rbp+0]
	#DEBUG_VALUE: subcycleDt <- [DW_OP_constu 64, DW_OP_minus, DW_OP_deref] $rbp
	#DEBUG_VALUE: maxSubcycleCount <- [DW_OP_constu 136, DW_OP_minus] [$rbp+0]
	#DEBUG_VALUE: hallTermCommunicateDerivatives <- [DW_OP_constu 120, DW_OP_minus] [$rbp+0]
	#DEBUG_VALUE: subcycleT <- [DW_OP_constu 144, DW_OP_minus] [$rbp+0]
	#DEBUG_VALUE: technicalGrid <- $r15
	#DEBUG_VALUE: gridDims <- [DW_OP_plus_uconst 264, DW_OP_stack_value] $r15
	#DEBUG_VALUE: propagateFields:perBGrid <- [DW_OP_constu 56, DW_OP_minus] [$rbp+0]
	#DEBUG_VALUE: propagateFields:perBDt2Grid <- [DW_OP_constu 112, DW_OP_minus] [$rbp+0]
	#DEBUG_VALUE: propagateFields:EGrid <- [DW_OP_constu 96, DW_OP_minus] [$rbp+0]
	#DEBUG_VALUE: propagateFields:EDt2Grid <- [DW_OP_constu 128, DW_OP_minus] [$rbp+0]
	#DEBUG_VALUE: propagateFields:EHallGrid <- [DW_OP_constu 88, DW_OP_minus] [$rbp+0]
	#DEBUG_VALUE: propagateFields:EGradPeGrid <- [DW_OP_constu 80, DW_OP_minus] [$rbp+0]
	#DEBUG_VALUE: propagateFields:momentsGrid <- [DW_OP_plus_uconst 16] [$rbp+0]
	#DEBUG_VALUE: propagateFields:momentsDt2Grid <- [DW_OP_plus_uconst 24] [$rbp+0]
	#DEBUG_VALUE: propagateFields:dPerBGrid <- [DW_OP_plus_uconst 32] [$rbp+0]
	#DEBUG_VALUE: propagateFields:dMomentsGrid <- [DW_OP_plus_uconst 40] [$rbp+0]
	#DEBUG_VALUE: propagateFields:BgBGrid <- [DW_OP_plus_uconst 48] [$rbp+0]
	#DEBUG_VALUE: propagateFields:volGrid <- [DW_OP_plus_uconst 56] [$rbp+0]
	#DEBUG_VALUE: propagateFields:technicalGrid <- [DW_OP_plus_uconst 64] [$rbp+0]
	#DEBUG_VALUE: propagateFields:sysBoundaries <- [DW_OP_plus_uconst 72] [$rbp+0]
	#DEBUG_VALUE: propagateFields:dt <- [DW_OP_plus_uconst 80] [$rbp+0]
	#DEBUG_VALUE: propagateFields:subcycles <- [DW_OP_plus_uconst 88] [$rbp+0]
	.loc	1 264 1                 # fieldsolver/ldz_main.cpp:264:1
	movl	$1, -252(%rbp)
	.cfi_escape 0x2e, 0x30
	movsbl	-120(%rbp), %ebx        # 1-byte Folded Reload
	movq	%r13, %rdi
	movq	%r12, %rsi
	movq	%r8, %rdx
	movq	%r10, %rcx
	movq	%rax, %r8
	movq	%r11, %r9
	pushq	%rbx
	leaq	-252(%rbp), %rax
	pushq	%rax
	pushq	72(%rbp)
	pushq	%r15
	pushq	48(%rbp)
	pushq	40(%rbp)
	movq	%r10, %rbx
	callq	_Z23calculateHallTermSimpleR6FsGridISt5arrayIdLm3EELi2EES3_RS_IS0_IdLm12EELi2EERS_IS0_IdLm8EELi2EES9_RS_IS0_IdLm15EELi2EERS_IS0_IdLm24EELi2EERS_IS0_IdLm18EELi2EERS_IN7fsgrids9technicalELi2EER11SysBoundaryRKib
	movq	32(%rbp), %r11
	movq	24(%rbp), %rax
	movq	%rbx, %r10
	movq	-88(%rbp), %r8          # 8-byte Reload
	addq	$48, %rsp
.Ltmp84:
.LBB3_29:                               # %L.B0040
                                        #   in Loop: Header=BB3_23 Depth=1
	#DEBUG_VALUE: subcycleCount <- [DW_OP_constu 152, DW_OP_minus] [$rbp+0]
	#DEBUG_VALUE: subcycleDt <- [DW_OP_constu 64, DW_OP_minus, DW_OP_deref] $rbp
	#DEBUG_VALUE: maxSubcycleCount <- [DW_OP_constu 136, DW_OP_minus] [$rbp+0]
	#DEBUG_VALUE: hallTermCommunicateDerivatives <- [DW_OP_constu 120, DW_OP_minus] [$rbp+0]
	#DEBUG_VALUE: subcycleT <- [DW_OP_constu 144, DW_OP_minus] [$rbp+0]
	#DEBUG_VALUE: technicalGrid <- $r15
	#DEBUG_VALUE: gridDims <- [DW_OP_plus_uconst 264, DW_OP_stack_value] $r15
	#DEBUG_VALUE: propagateFields:perBGrid <- [DW_OP_constu 56, DW_OP_minus] [$rbp+0]
	#DEBUG_VALUE: propagateFields:perBDt2Grid <- [DW_OP_constu 112, DW_OP_minus] [$rbp+0]
	#DEBUG_VALUE: propagateFields:EGrid <- [DW_OP_constu 96, DW_OP_minus] [$rbp+0]
	#DEBUG_VALUE: propagateFields:EDt2Grid <- [DW_OP_constu 128, DW_OP_minus] [$rbp+0]
	#DEBUG_VALUE: propagateFields:EHallGrid <- [DW_OP_constu 88, DW_OP_minus] [$rbp+0]
	#DEBUG_VALUE: propagateFields:EGradPeGrid <- [DW_OP_constu 80, DW_OP_minus] [$rbp+0]
	#DEBUG_VALUE: propagateFields:momentsGrid <- [DW_OP_plus_uconst 16] [$rbp+0]
	#DEBUG_VALUE: propagateFields:momentsDt2Grid <- [DW_OP_plus_uconst 24] [$rbp+0]
	#DEBUG_VALUE: propagateFields:dPerBGrid <- [DW_OP_plus_uconst 32] [$rbp+0]
	#DEBUG_VALUE: propagateFields:dMomentsGrid <- [DW_OP_plus_uconst 40] [$rbp+0]
	#DEBUG_VALUE: propagateFields:BgBGrid <- [DW_OP_plus_uconst 48] [$rbp+0]
	#DEBUG_VALUE: propagateFields:volGrid <- [DW_OP_plus_uconst 56] [$rbp+0]
	#DEBUG_VALUE: propagateFields:technicalGrid <- [DW_OP_plus_uconst 64] [$rbp+0]
	#DEBUG_VALUE: propagateFields:sysBoundaries <- [DW_OP_plus_uconst 72] [$rbp+0]
	#DEBUG_VALUE: propagateFields:dt <- [DW_OP_plus_uconst 80] [$rbp+0]
	#DEBUG_VALUE: propagateFields:subcycles <- [DW_OP_plus_uconst 88] [$rbp+0]
	.loc	1 279 1                 # fieldsolver/ldz_main.cpp:279:1
	movl	$1, -44(%rbp)
	.cfi_escape 0x2e, 0x40
	movq	%r13, %rdi
	movq	%r12, %rsi
	movq	%rax, %rbx
	movq	-96(%rbp), %rdx         # 8-byte Reload
	movq	-128(%rbp), %r13        # 8-byte Reload
	movq	%r13, %rcx
	movq	-80(%rbp), %r9          # 8-byte Reload
	leaq	-44(%rbp), %rax
	pushq	%rax
	movq	72(%rbp), %rax
	pushq	%rax
	pushq	%r15
	pushq	48(%rbp)
	pushq	40(%rbp)
	pushq	%r11
	pushq	%rbx
	pushq	%r10
	movq	%r10, %rbx
	callq	_Z36calculateUpwindedElectricFieldSimpleR6FsGridISt5arrayIdLm3EELi2EES3_S3_S3_RS_IS0_IdLm12EELi2EES3_RS_IS0_IdLm8EELi2EES9_RS_IS0_IdLm15EELi2EERS_IS0_IdLm24EELi2EERS_IS0_IdLm18EELi2EERS_IN7fsgrids9technicalELi2EER11SysBoundaryRKi
	addq	$64, %rsp
	.loc	1 296 1                 # fieldsolver/ldz_main.cpp:296:1
	movl	$2, -44(%rbp)
	#DEBUG_VALUE: subcycleDt <- [DW_OP_constu 64, DW_OP_minus, DW_OP_deref] $rbp
	.cfi_escape 0x2e, 0x10
	movq	-56(%rbp), %rdi         # 8-byte Reload
	movq	%r12, %rsi
	movq	-96(%rbp), %rdx         # 8-byte Reload
	movq	%r13, %rcx
	movq	%r15, %r8
	movq	72(%rbp), %r9
	leaq	-44(%rbp), %r13
	pushq	%r13
	leaq	-64(%rbp), %rax
	pushq	%rax
	callq	_Z28propagateMagneticFieldSimpleR6FsGridISt5arrayIdLm3EELi2EES3_S3_S3_RS_IN7fsgrids9technicalELi2EER11SysBoundaryRKdRKi
	addq	$16, %rsp
	.loc	1 300 1                 # fieldsolver/ldz_main.cpp:300:1
	movl	$2, -44(%rbp)
	.cfi_escape 0x2e, 0x20
	movq	-56(%rbp), %rdi         # 8-byte Reload
	movq	%r12, %rsi
	movq	%rbx, %rdx
	movq	24(%rbp), %rcx
	movq	32(%rbp), %r8
	movq	40(%rbp), %r12
	movq	%r12, %r9
	pushq	-72(%rbp)               # 8-byte Folded Reload
	pushq	%r13
	pushq	72(%rbp)
	pushq	%r15
	callq	_Z26calculateDerivativesSimpleR6FsGridISt5arrayIdLm3EELi2EES3_RS_IS0_IdLm8EELi2EES6_RS_IS0_IdLm15EELi2EERS_IS0_IdLm24EELi2EERS_IN7fsgrids9technicalELi2EER11SysBoundaryRKib
	addq	$32, %rsp
.Ltmp85:
	.loc	1 259 1                 # fieldsolver/ldz_main.cpp:259:1
	cmpq	$0, -152(%rbp)          # 8-byte Folded Reload
.Ltmp86:
	.loc	1 301 1                 # fieldsolver/ldz_main.cpp:301:1
	jne	.LBB3_32
.Ltmp87:
# %bb.30:                               # %L.B0040
                                        #   in Loop: Header=BB3_23 Depth=1
	#DEBUG_VALUE: subcycleCount <- [DW_OP_constu 152, DW_OP_minus] [$rbp+0]
	#DEBUG_VALUE: subcycleDt <- [DW_OP_constu 64, DW_OP_minus, DW_OP_deref] $rbp
	#DEBUG_VALUE: maxSubcycleCount <- [DW_OP_constu 136, DW_OP_minus] [$rbp+0]
	#DEBUG_VALUE: hallTermCommunicateDerivatives <- [DW_OP_constu 120, DW_OP_minus] [$rbp+0]
	#DEBUG_VALUE: subcycleT <- [DW_OP_constu 144, DW_OP_minus] [$rbp+0]
	#DEBUG_VALUE: technicalGrid <- $r15
	#DEBUG_VALUE: gridDims <- [DW_OP_plus_uconst 264, DW_OP_stack_value] $r15
	#DEBUG_VALUE: propagateFields:perBGrid <- [DW_OP_constu 56, DW_OP_minus] [$rbp+0]
	#DEBUG_VALUE: propagateFields:perBDt2Grid <- [DW_OP_constu 112, DW_OP_minus] [$rbp+0]
	#DEBUG_VALUE: propagateFields:EGrid <- [DW_OP_constu 96, DW_OP_minus] [$rbp+0]
	#DEBUG_VALUE: propagateFields:EDt2Grid <- [DW_OP_constu 128, DW_OP_minus] [$rbp+0]
	#DEBUG_VALUE: propagateFields:EHallGrid <- [DW_OP_constu 88, DW_OP_minus] [$rbp+0]
	#DEBUG_VALUE: propagateFields:EGradPeGrid <- [DW_OP_constu 80, DW_OP_minus] [$rbp+0]
	#DEBUG_VALUE: propagateFields:momentsGrid <- [DW_OP_plus_uconst 16] [$rbp+0]
	#DEBUG_VALUE: propagateFields:momentsDt2Grid <- [DW_OP_plus_uconst 24] [$rbp+0]
	#DEBUG_VALUE: propagateFields:dPerBGrid <- [DW_OP_plus_uconst 32] [$rbp+0]
	#DEBUG_VALUE: propagateFields:dMomentsGrid <- [DW_OP_plus_uconst 40] [$rbp+0]
	#DEBUG_VALUE: propagateFields:BgBGrid <- [DW_OP_plus_uconst 48] [$rbp+0]
	#DEBUG_VALUE: propagateFields:volGrid <- [DW_OP_plus_uconst 56] [$rbp+0]
	#DEBUG_VALUE: propagateFields:technicalGrid <- [DW_OP_plus_uconst 64] [$rbp+0]
	#DEBUG_VALUE: propagateFields:sysBoundaries <- [DW_OP_plus_uconst 72] [$rbp+0]
	#DEBUG_VALUE: propagateFields:dt <- [DW_OP_plus_uconst 80] [$rbp+0]
	#DEBUG_VALUE: propagateFields:subcycles <- [DW_OP_plus_uconst 88] [$rbp+0]
	cmpl	$0, _ZN10Parameters13ohmGradPeTermE(%rip)
	je	.LBB3_32
.Ltmp88:
# %bb.31:                               # %L.B1147
                                        #   in Loop: Header=BB3_23 Depth=1
	#DEBUG_VALUE: subcycleCount <- [DW_OP_constu 152, DW_OP_minus] [$rbp+0]
	#DEBUG_VALUE: subcycleDt <- [DW_OP_constu 64, DW_OP_minus, DW_OP_deref] $rbp
	#DEBUG_VALUE: maxSubcycleCount <- [DW_OP_constu 136, DW_OP_minus] [$rbp+0]
	#DEBUG_VALUE: hallTermCommunicateDerivatives <- [DW_OP_constu 120, DW_OP_minus] [$rbp+0]
	#DEBUG_VALUE: subcycleT <- [DW_OP_constu 144, DW_OP_minus] [$rbp+0]
	#DEBUG_VALUE: technicalGrid <- $r15
	#DEBUG_VALUE: gridDims <- [DW_OP_plus_uconst 264, DW_OP_stack_value] $r15
	#DEBUG_VALUE: propagateFields:perBGrid <- [DW_OP_constu 56, DW_OP_minus] [$rbp+0]
	#DEBUG_VALUE: propagateFields:perBDt2Grid <- [DW_OP_constu 112, DW_OP_minus] [$rbp+0]
	#DEBUG_VALUE: propagateFields:EGrid <- [DW_OP_constu 96, DW_OP_minus] [$rbp+0]
	#DEBUG_VALUE: propagateFields:EDt2Grid <- [DW_OP_constu 128, DW_OP_minus] [$rbp+0]
	#DEBUG_VALUE: propagateFields:EHallGrid <- [DW_OP_constu 88, DW_OP_minus] [$rbp+0]
	#DEBUG_VALUE: propagateFields:EGradPeGrid <- [DW_OP_constu 80, DW_OP_minus] [$rbp+0]
	#DEBUG_VALUE: propagateFields:momentsGrid <- [DW_OP_plus_uconst 16] [$rbp+0]
	#DEBUG_VALUE: propagateFields:momentsDt2Grid <- [DW_OP_plus_uconst 24] [$rbp+0]
	#DEBUG_VALUE: propagateFields:dPerBGrid <- [DW_OP_plus_uconst 32] [$rbp+0]
	#DEBUG_VALUE: propagateFields:dMomentsGrid <- [DW_OP_plus_uconst 40] [$rbp+0]
	#DEBUG_VALUE: propagateFields:BgBGrid <- [DW_OP_plus_uconst 48] [$rbp+0]
	#DEBUG_VALUE: propagateFields:volGrid <- [DW_OP_plus_uconst 56] [$rbp+0]
	#DEBUG_VALUE: propagateFields:technicalGrid <- [DW_OP_plus_uconst 64] [$rbp+0]
	#DEBUG_VALUE: propagateFields:sysBoundaries <- [DW_OP_plus_uconst 72] [$rbp+0]
	#DEBUG_VALUE: propagateFields:dt <- [DW_OP_plus_uconst 80] [$rbp+0]
	#DEBUG_VALUE: propagateFields:subcycles <- [DW_OP_plus_uconst 88] [$rbp+0]
	.loc	1 302 1                 # fieldsolver/ldz_main.cpp:302:1
	movl	$2, -248(%rbp)
	.cfi_escape 0x2e, 0x10
	subq	$8, %rsp
	movq	-80(%rbp), %rdi         # 8-byte Reload
	movq	%rbx, %rsi
	movq	24(%rbp), %rdx
	movq	%r12, %rcx
	movq	%r15, %r8
	movq	72(%rbp), %r9
	leaq	-248(%rbp), %rax
	pushq	%rax
	callq	_Z25calculateGradPeTermSimpleR6FsGridISt5arrayIdLm3EELi2EERS_IS0_IdLm8EELi2EES6_RS_IS0_IdLm24EELi2EERS_IN7fsgrids9technicalELi2EER11SysBoundaryRKi
	addq	$16, %rsp
	movl	$0, -120(%rbp)          # 4-byte Folded Spill
.Ltmp89:
	#DEBUG_VALUE: hallTermCommunicateDerivatives <- 0
.LBB3_32:                               # %L.B0043
                                        #   in Loop: Header=BB3_23 Depth=1
	#DEBUG_VALUE: subcycleCount <- [DW_OP_constu 152, DW_OP_minus] [$rbp+0]
	#DEBUG_VALUE: subcycleDt <- [DW_OP_constu 64, DW_OP_minus, DW_OP_deref] $rbp
	#DEBUG_VALUE: maxSubcycleCount <- [DW_OP_constu 136, DW_OP_minus] [$rbp+0]
	#DEBUG_VALUE: subcycleT <- [DW_OP_constu 144, DW_OP_minus] [$rbp+0]
	#DEBUG_VALUE: technicalGrid <- $r15
	#DEBUG_VALUE: gridDims <- [DW_OP_plus_uconst 264, DW_OP_stack_value] $r15
	#DEBUG_VALUE: propagateFields:perBGrid <- [DW_OP_constu 56, DW_OP_minus] [$rbp+0]
	#DEBUG_VALUE: propagateFields:perBDt2Grid <- [DW_OP_constu 112, DW_OP_minus] [$rbp+0]
	#DEBUG_VALUE: propagateFields:EGrid <- [DW_OP_constu 96, DW_OP_minus] [$rbp+0]
	#DEBUG_VALUE: propagateFields:EDt2Grid <- [DW_OP_constu 128, DW_OP_minus] [$rbp+0]
	#DEBUG_VALUE: propagateFields:EHallGrid <- [DW_OP_constu 88, DW_OP_minus] [$rbp+0]
	#DEBUG_VALUE: propagateFields:EGradPeGrid <- [DW_OP_constu 80, DW_OP_minus] [$rbp+0]
	#DEBUG_VALUE: propagateFields:momentsGrid <- [DW_OP_plus_uconst 16] [$rbp+0]
	#DEBUG_VALUE: propagateFields:momentsDt2Grid <- [DW_OP_plus_uconst 24] [$rbp+0]
	#DEBUG_VALUE: propagateFields:dPerBGrid <- [DW_OP_plus_uconst 32] [$rbp+0]
	#DEBUG_VALUE: propagateFields:dMomentsGrid <- [DW_OP_plus_uconst 40] [$rbp+0]
	#DEBUG_VALUE: propagateFields:BgBGrid <- [DW_OP_plus_uconst 48] [$rbp+0]
	#DEBUG_VALUE: propagateFields:volGrid <- [DW_OP_plus_uconst 56] [$rbp+0]
	#DEBUG_VALUE: propagateFields:technicalGrid <- [DW_OP_plus_uconst 64] [$rbp+0]
	#DEBUG_VALUE: propagateFields:sysBoundaries <- [DW_OP_plus_uconst 72] [$rbp+0]
	#DEBUG_VALUE: propagateFields:dt <- [DW_OP_plus_uconst 80] [$rbp+0]
	#DEBUG_VALUE: propagateFields:subcycles <- [DW_OP_plus_uconst 88] [$rbp+0]
	#DEBUG_VALUE: hallTermCommunicateDerivatives <- [DW_OP_constu 120, DW_OP_minus] [$rbp+0]
	.loc	1 305 1                 # fieldsolver/ldz_main.cpp:305:1
	cmpl	$0, _ZN10Parameters11ohmHallTermE(%rip)
	movq	32(%rbp), %r11
	movq	%rbx, %r10
	movq	-88(%rbp), %r8          # 8-byte Reload
	movq	-112(%rbp), %r12        # 8-byte Reload
	movq	24(%rbp), %r13
	movq	72(%rbp), %rbx
	movq	-56(%rbp), %rdi         # 8-byte Reload
	je	.LBB3_34
.Ltmp90:
# %bb.33:                               # %L.B1148
                                        #   in Loop: Header=BB3_23 Depth=1
	#DEBUG_VALUE: subcycleCount <- [DW_OP_constu 152, DW_OP_minus] [$rbp+0]
	#DEBUG_VALUE: subcycleDt <- [DW_OP_constu 64, DW_OP_minus, DW_OP_deref] $rbp
	#DEBUG_VALUE: maxSubcycleCount <- [DW_OP_constu 136, DW_OP_minus] [$rbp+0]
	#DEBUG_VALUE: hallTermCommunicateDerivatives <- [DW_OP_constu 120, DW_OP_minus] [$rbp+0]
	#DEBUG_VALUE: subcycleT <- [DW_OP_constu 144, DW_OP_minus] [$rbp+0]
	#DEBUG_VALUE: technicalGrid <- $r15
	#DEBUG_VALUE: gridDims <- [DW_OP_plus_uconst 264, DW_OP_stack_value] $r15
	#DEBUG_VALUE: propagateFields:perBGrid <- [DW_OP_constu 56, DW_OP_minus] [$rbp+0]
	#DEBUG_VALUE: propagateFields:perBDt2Grid <- [DW_OP_constu 112, DW_OP_minus] [$rbp+0]
	#DEBUG_VALUE: propagateFields:EGrid <- [DW_OP_constu 96, DW_OP_minus] [$rbp+0]
	#DEBUG_VALUE: propagateFields:EDt2Grid <- [DW_OP_constu 128, DW_OP_minus] [$rbp+0]
	#DEBUG_VALUE: propagateFields:EHallGrid <- [DW_OP_constu 88, DW_OP_minus] [$rbp+0]
	#DEBUG_VALUE: propagateFields:EGradPeGrid <- [DW_OP_constu 80, DW_OP_minus] [$rbp+0]
	#DEBUG_VALUE: propagateFields:momentsGrid <- [DW_OP_plus_uconst 16] [$rbp+0]
	#DEBUG_VALUE: propagateFields:momentsDt2Grid <- [DW_OP_plus_uconst 24] [$rbp+0]
	#DEBUG_VALUE: propagateFields:dPerBGrid <- [DW_OP_plus_uconst 32] [$rbp+0]
	#DEBUG_VALUE: propagateFields:dMomentsGrid <- [DW_OP_plus_uconst 40] [$rbp+0]
	#DEBUG_VALUE: propagateFields:BgBGrid <- [DW_OP_plus_uconst 48] [$rbp+0]
	#DEBUG_VALUE: propagateFields:volGrid <- [DW_OP_plus_uconst 56] [$rbp+0]
	#DEBUG_VALUE: propagateFields:technicalGrid <- [DW_OP_plus_uconst 64] [$rbp+0]
	#DEBUG_VALUE: propagateFields:sysBoundaries <- [DW_OP_plus_uconst 72] [$rbp+0]
	#DEBUG_VALUE: propagateFields:dt <- [DW_OP_plus_uconst 80] [$rbp+0]
	#DEBUG_VALUE: propagateFields:subcycles <- [DW_OP_plus_uconst 88] [$rbp+0]
	.loc	1 306 1                 # fieldsolver/ldz_main.cpp:306:1
	movl	$2, -244(%rbp)
	.cfi_escape 0x2e, 0x30
	movsbl	-120(%rbp), %eax        # 1-byte Folded Reload
	movq	-56(%rbp), %rdi         # 8-byte Reload
	movq	%r12, %rsi
	movq	%r8, %rdx
	movq	%r10, %rcx
	movq	%r13, %r8
	movq	%r11, %r9
	pushq	%rax
	leaq	-244(%rbp), %rax
	pushq	%rax
	pushq	%rbx
	pushq	%r15
	pushq	48(%rbp)
	pushq	40(%rbp)
	movq	%r10, %r13
	callq	_Z23calculateHallTermSimpleR6FsGridISt5arrayIdLm3EELi2EES3_RS_IS0_IdLm12EELi2EERS_IS0_IdLm8EELi2EES9_RS_IS0_IdLm15EELi2EERS_IS0_IdLm24EELi2EERS_IS0_IdLm18EELi2EERS_IN7fsgrids9technicalELi2EER11SysBoundaryRKib
	movq	-88(%rbp), %r8          # 8-byte Reload
	movq	32(%rbp), %r11
	movq	%r13, %r10
	movq	24(%rbp), %r13
	movq	-56(%rbp), %rdi         # 8-byte Reload
	addq	$48, %rsp
.Ltmp91:
.LBB3_34:                               # %L.B0046
                                        #   in Loop: Header=BB3_23 Depth=1
	#DEBUG_VALUE: subcycleCount <- [DW_OP_constu 152, DW_OP_minus] [$rbp+0]
	#DEBUG_VALUE: subcycleDt <- [DW_OP_constu 64, DW_OP_minus, DW_OP_deref] $rbp
	#DEBUG_VALUE: maxSubcycleCount <- [DW_OP_constu 136, DW_OP_minus] [$rbp+0]
	#DEBUG_VALUE: hallTermCommunicateDerivatives <- [DW_OP_constu 120, DW_OP_minus] [$rbp+0]
	#DEBUG_VALUE: subcycleT <- [DW_OP_constu 144, DW_OP_minus] [$rbp+0]
	#DEBUG_VALUE: technicalGrid <- $r15
	#DEBUG_VALUE: gridDims <- [DW_OP_plus_uconst 264, DW_OP_stack_value] $r15
	#DEBUG_VALUE: propagateFields:perBGrid <- [DW_OP_constu 56, DW_OP_minus] [$rbp+0]
	#DEBUG_VALUE: propagateFields:perBDt2Grid <- [DW_OP_constu 112, DW_OP_minus] [$rbp+0]
	#DEBUG_VALUE: propagateFields:EGrid <- [DW_OP_constu 96, DW_OP_minus] [$rbp+0]
	#DEBUG_VALUE: propagateFields:EDt2Grid <- [DW_OP_constu 128, DW_OP_minus] [$rbp+0]
	#DEBUG_VALUE: propagateFields:EHallGrid <- [DW_OP_constu 88, DW_OP_minus] [$rbp+0]
	#DEBUG_VALUE: propagateFields:EGradPeGrid <- [DW_OP_constu 80, DW_OP_minus] [$rbp+0]
	#DEBUG_VALUE: propagateFields:momentsGrid <- [DW_OP_plus_uconst 16] [$rbp+0]
	#DEBUG_VALUE: propagateFields:momentsDt2Grid <- [DW_OP_plus_uconst 24] [$rbp+0]
	#DEBUG_VALUE: propagateFields:dPerBGrid <- [DW_OP_plus_uconst 32] [$rbp+0]
	#DEBUG_VALUE: propagateFields:dMomentsGrid <- [DW_OP_plus_uconst 40] [$rbp+0]
	#DEBUG_VALUE: propagateFields:BgBGrid <- [DW_OP_plus_uconst 48] [$rbp+0]
	#DEBUG_VALUE: propagateFields:volGrid <- [DW_OP_plus_uconst 56] [$rbp+0]
	#DEBUG_VALUE: propagateFields:technicalGrid <- [DW_OP_plus_uconst 64] [$rbp+0]
	#DEBUG_VALUE: propagateFields:sysBoundaries <- [DW_OP_plus_uconst 72] [$rbp+0]
	#DEBUG_VALUE: propagateFields:dt <- [DW_OP_plus_uconst 80] [$rbp+0]
	#DEBUG_VALUE: propagateFields:subcycles <- [DW_OP_plus_uconst 88] [$rbp+0]
	.loc	1 321 1                 # fieldsolver/ldz_main.cpp:321:1
	movl	$2, -44(%rbp)
	.cfi_escape 0x2e, 0x40
	movq	%r12, %rsi
	movq	-96(%rbp), %rdx         # 8-byte Reload
	movq	-128(%rbp), %rcx        # 8-byte Reload
	movq	-80(%rbp), %r9          # 8-byte Reload
	leaq	-44(%rbp), %rax
	pushq	%rax
	pushq	%rbx
	pushq	%r15
	pushq	48(%rbp)
	pushq	40(%rbp)
	pushq	%r11
	pushq	%r13
	pushq	%r10
	movq	%rbx, %r13
	callq	_Z36calculateUpwindedElectricFieldSimpleR6FsGridISt5arrayIdLm3EELi2EES3_S3_S3_RS_IS0_IdLm12EELi2EES3_RS_IS0_IdLm8EELi2EES9_RS_IS0_IdLm15EELi2EERS_IS0_IdLm24EELi2EERS_IS0_IdLm18EELi2EERS_IN7fsgrids9technicalELi2EER11SysBoundaryRKi
	addq	$64, %rsp
	leaq	-168(%rbp), %rbx
.Ltmp92:
	.loc	1 527 1                 # fieldsolver/ldz_main.cpp:527:1
	movq	%rbx, -184(%rbp)
.Ltmp93:
	#DEBUG_VALUE: __dnew <- 17
	#DEBUG_VALUE: _M_construct:_T32372840_51851 <- undef
	#DEBUG_VALUE:  <- [DW_OP_constu 184, DW_OP_minus, DW_OP_stack_value] $rbp
	#DEBUG_VALUE: _M_construct: <- [DW_OP_constu 184, DW_OP_minus, DW_OP_stack_value] $rbp
	#DEBUG_VALUE: ....inline.__FILL_CHARARRAY <- [DW_OP_LLVM_convert 32 7, DW_OP_LLVM_convert 8 7, DW_OP_stack_value] 0
	.file	3 "/usr/include/c++/9/bits/basic_string.tcc"
	.loc	3 143 1                 # /usr/include/c++/9/bits/basic_string.tcc:143:1
	movq	$17, -104(%rbp)
.Ltmp94:
	#DEBUG_VALUE: __dnew <- [DW_OP_constu 104, DW_OP_minus, DW_OP_deref] $rbp
.Ltmp6:
	.cfi_escape 0x2e, 0x00
	.loc	3 0 1 is_stmt 0         # /usr/include/c++/9/bits/basic_string.tcc:0:1
	leaq	-184(%rbp), %r12
	.loc	3 219 1 is_stmt 1       # /usr/include/c++/9/bits/basic_string.tcc:219:1
	movq	%r12, %rdi
	leaq	-104(%rbp), %rsi
	xorl	%edx, %edx
	callq	_ZNSt7__cxx1112basic_stringIcSt11char_traitsIcESaIcEE9_M_createERmm
.Ltmp7:
.Ltmp95:
	#DEBUG_VALUE: __beg <- undef
	#DEBUG_VALUE: _M_construct:__beg <- undef
# %bb.35:                               # %L.B1150
                                        #   in Loop: Header=BB3_23 Depth=1
	#DEBUG_VALUE: __dnew <- [DW_OP_constu 104, DW_OP_minus, DW_OP_deref] $rbp
	#DEBUG_VALUE: ....inline.__FILL_CHARARRAY <- [DW_OP_LLVM_convert 32 7, DW_OP_LLVM_convert 8 7, DW_OP_stack_value] 0
	#DEBUG_VALUE: _M_construct: <- [DW_OP_constu 184, DW_OP_minus, DW_OP_stack_value] $rbp
	#DEBUG_VALUE:  <- [DW_OP_constu 184, DW_OP_minus, DW_OP_stack_value] $rbp
	#DEBUG_VALUE: subcycleCount <- [DW_OP_constu 152, DW_OP_minus] [$rbp+0]
	#DEBUG_VALUE: subcycleDt <- [DW_OP_constu 64, DW_OP_minus, DW_OP_deref] $rbp
	#DEBUG_VALUE: maxSubcycleCount <- [DW_OP_constu 136, DW_OP_minus] [$rbp+0]
	#DEBUG_VALUE: hallTermCommunicateDerivatives <- [DW_OP_constu 120, DW_OP_minus] [$rbp+0]
	#DEBUG_VALUE: subcycleT <- [DW_OP_constu 144, DW_OP_minus] [$rbp+0]
	#DEBUG_VALUE: technicalGrid <- $r15
	#DEBUG_VALUE: gridDims <- [DW_OP_plus_uconst 264, DW_OP_stack_value] $r15
	#DEBUG_VALUE: propagateFields:perBGrid <- [DW_OP_constu 56, DW_OP_minus] [$rbp+0]
	#DEBUG_VALUE: propagateFields:perBDt2Grid <- [DW_OP_constu 112, DW_OP_minus] [$rbp+0]
	#DEBUG_VALUE: propagateFields:EGrid <- [DW_OP_constu 96, DW_OP_minus] [$rbp+0]
	#DEBUG_VALUE: propagateFields:EDt2Grid <- [DW_OP_constu 128, DW_OP_minus] [$rbp+0]
	#DEBUG_VALUE: propagateFields:EHallGrid <- [DW_OP_constu 88, DW_OP_minus] [$rbp+0]
	#DEBUG_VALUE: propagateFields:EGradPeGrid <- [DW_OP_constu 80, DW_OP_minus] [$rbp+0]
	#DEBUG_VALUE: propagateFields:momentsGrid <- [DW_OP_plus_uconst 16] [$rbp+0]
	#DEBUG_VALUE: propagateFields:momentsDt2Grid <- [DW_OP_plus_uconst 24] [$rbp+0]
	#DEBUG_VALUE: propagateFields:dPerBGrid <- [DW_OP_plus_uconst 32] [$rbp+0]
	#DEBUG_VALUE: propagateFields:dMomentsGrid <- [DW_OP_plus_uconst 40] [$rbp+0]
	#DEBUG_VALUE: propagateFields:BgBGrid <- [DW_OP_plus_uconst 48] [$rbp+0]
	#DEBUG_VALUE: propagateFields:volGrid <- [DW_OP_plus_uconst 56] [$rbp+0]
	#DEBUG_VALUE: propagateFields:technicalGrid <- [DW_OP_plus_uconst 64] [$rbp+0]
	#DEBUG_VALUE: propagateFields:sysBoundaries <- [DW_OP_plus_uconst 72] [$rbp+0]
	#DEBUG_VALUE: propagateFields:dt <- [DW_OP_plus_uconst 80] [$rbp+0]
	#DEBUG_VALUE: propagateFields:subcycles <- [DW_OP_plus_uconst 88] [$rbp+0]
	movq	%rax, -184(%rbp)
	.loc	3 220 1                 # /usr/include/c++/9/bits/basic_string.tcc:220:1
	movq	-104(%rbp), %rcx
.Ltmp96:
	#DEBUG_VALUE: __dnew <- $rcx
	movq	%rcx, -168(%rbp)
	.loc	3 398 1                 # /usr/include/c++/9/bits/basic_string.tcc:398:1
	vmovups	.S53045(%rip), %xmm0
	vmovups	%xmm0, (%rax)
	movb	$102, 16(%rax)
	.loc	3 216 1                 # /usr/include/c++/9/bits/basic_string.tcc:216:1
	movq	%rcx, -176(%rbp)
	.loc	3 217 1                 # /usr/include/c++/9/bits/basic_string.tcc:217:1
	movq	-184(%rbp), %rax
	movb	$0, (%rax,%rcx)
.Ltmp97:
.Ltmp9:
	.cfi_escape 0x2e, 0x00
	.loc	1 338 1                 # fieldsolver/ldz_main.cpp:338:1
	movq	%r12, %rdi
	callq	_ZN7phiprof5startERKNSt7__cxx1112basic_stringIcSt11char_traitsIcESaIcEEE
.Ltmp98:
.Ltmp10:
# %bb.36:                               # %L.B1151
                                        #   in Loop: Header=BB3_23 Depth=1
	#DEBUG_VALUE: ....inline.__FILL_CHARARRAY <- [DW_OP_LLVM_convert 32 7, DW_OP_LLVM_convert 8 7, DW_OP_stack_value] 0
	#DEBUG_VALUE: hallTermCommunicateDerivatives <- [DW_OP_constu 120, DW_OP_minus] [$rbp+0]
	#DEBUG_VALUE: technicalGrid <- $r15
	#DEBUG_VALUE: gridDims <- [DW_OP_plus_uconst 264, DW_OP_stack_value] $r15
	#DEBUG_VALUE: propagateFields:perBGrid <- [DW_OP_constu 56, DW_OP_minus] [$rbp+0]
	#DEBUG_VALUE: propagateFields:perBDt2Grid <- [DW_OP_constu 112, DW_OP_minus] [$rbp+0]
	#DEBUG_VALUE: propagateFields:EGrid <- [DW_OP_constu 96, DW_OP_minus] [$rbp+0]
	#DEBUG_VALUE: propagateFields:EDt2Grid <- [DW_OP_constu 128, DW_OP_minus] [$rbp+0]
	#DEBUG_VALUE: propagateFields:EHallGrid <- [DW_OP_constu 88, DW_OP_minus] [$rbp+0]
	#DEBUG_VALUE: propagateFields:EGradPeGrid <- [DW_OP_constu 80, DW_OP_minus] [$rbp+0]
	#DEBUG_VALUE: propagateFields:momentsGrid <- [DW_OP_plus_uconst 16] [$rbp+0]
	#DEBUG_VALUE: propagateFields:momentsDt2Grid <- [DW_OP_plus_uconst 24] [$rbp+0]
	#DEBUG_VALUE: propagateFields:dPerBGrid <- [DW_OP_plus_uconst 32] [$rbp+0]
	#DEBUG_VALUE: propagateFields:dMomentsGrid <- [DW_OP_plus_uconst 40] [$rbp+0]
	#DEBUG_VALUE: propagateFields:BgBGrid <- [DW_OP_plus_uconst 48] [$rbp+0]
	#DEBUG_VALUE: propagateFields:volGrid <- [DW_OP_plus_uconst 56] [$rbp+0]
	#DEBUG_VALUE: propagateFields:technicalGrid <- [DW_OP_plus_uconst 64] [$rbp+0]
	#DEBUG_VALUE: propagateFields:sysBoundaries <- [DW_OP_plus_uconst 72] [$rbp+0]
	#DEBUG_VALUE: propagateFields:dt <- [DW_OP_plus_uconst 80] [$rbp+0]
	#DEBUG_VALUE: propagateFields:subcycles <- [DW_OP_plus_uconst 88] [$rbp+0]
	.loc	1 658 1                 # fieldsolver/ldz_main.cpp:658:1
	movq	-184(%rbp), %rdi
	cmpq	%rbx, %rdi
	je	.LBB3_38
.Ltmp99:
# %bb.37:                               # %L.B1152
                                        #   in Loop: Header=BB3_23 Depth=1
	#DEBUG_VALUE: ....inline.__FILL_CHARARRAY <- [DW_OP_LLVM_convert 32 7, DW_OP_LLVM_convert 8 7, DW_OP_stack_value] 0
	#DEBUG_VALUE: hallTermCommunicateDerivatives <- [DW_OP_constu 120, DW_OP_minus] [$rbp+0]
	#DEBUG_VALUE: technicalGrid <- $r15
	#DEBUG_VALUE: gridDims <- [DW_OP_plus_uconst 264, DW_OP_stack_value] $r15
	#DEBUG_VALUE: propagateFields:perBGrid <- [DW_OP_constu 56, DW_OP_minus] [$rbp+0]
	#DEBUG_VALUE: propagateFields:perBDt2Grid <- [DW_OP_constu 112, DW_OP_minus] [$rbp+0]
	#DEBUG_VALUE: propagateFields:EGrid <- [DW_OP_constu 96, DW_OP_minus] [$rbp+0]
	#DEBUG_VALUE: propagateFields:EDt2Grid <- [DW_OP_constu 128, DW_OP_minus] [$rbp+0]
	#DEBUG_VALUE: propagateFields:EHallGrid <- [DW_OP_constu 88, DW_OP_minus] [$rbp+0]
	#DEBUG_VALUE: propagateFields:EGradPeGrid <- [DW_OP_constu 80, DW_OP_minus] [$rbp+0]
	#DEBUG_VALUE: propagateFields:momentsGrid <- [DW_OP_plus_uconst 16] [$rbp+0]
	#DEBUG_VALUE: propagateFields:momentsDt2Grid <- [DW_OP_plus_uconst 24] [$rbp+0]
	#DEBUG_VALUE: propagateFields:dPerBGrid <- [DW_OP_plus_uconst 32] [$rbp+0]
	#DEBUG_VALUE: propagateFields:dMomentsGrid <- [DW_OP_plus_uconst 40] [$rbp+0]
	#DEBUG_VALUE: propagateFields:BgBGrid <- [DW_OP_plus_uconst 48] [$rbp+0]
	#DEBUG_VALUE: propagateFields:volGrid <- [DW_OP_plus_uconst 56] [$rbp+0]
	#DEBUG_VALUE: propagateFields:technicalGrid <- [DW_OP_plus_uconst 64] [$rbp+0]
	#DEBUG_VALUE: propagateFields:sysBoundaries <- [DW_OP_plus_uconst 72] [$rbp+0]
	#DEBUG_VALUE: propagateFields:dt <- [DW_OP_plus_uconst 80] [$rbp+0]
	#DEBUG_VALUE: propagateFields:subcycles <- [DW_OP_plus_uconst 88] [$rbp+0]
	.cfi_escape 0x2e, 0x00
	callq	_ZdlPv
.Ltmp100:
.LBB3_38:                               # %L..inline.64648
                                        #   in Loop: Header=BB3_23 Depth=1
	#DEBUG_VALUE: ....inline.__FILL_CHARARRAY <- [DW_OP_LLVM_convert 32 7, DW_OP_LLVM_convert 8 7, DW_OP_stack_value] 0
	#DEBUG_VALUE: hallTermCommunicateDerivatives <- [DW_OP_constu 120, DW_OP_minus] [$rbp+0]
	#DEBUG_VALUE: technicalGrid <- $r15
	#DEBUG_VALUE: gridDims <- [DW_OP_plus_uconst 264, DW_OP_stack_value] $r15
	#DEBUG_VALUE: propagateFields:perBGrid <- [DW_OP_constu 56, DW_OP_minus] [$rbp+0]
	#DEBUG_VALUE: propagateFields:perBDt2Grid <- [DW_OP_constu 112, DW_OP_minus] [$rbp+0]
	#DEBUG_VALUE: propagateFields:EGrid <- [DW_OP_constu 96, DW_OP_minus] [$rbp+0]
	#DEBUG_VALUE: propagateFields:EDt2Grid <- [DW_OP_constu 128, DW_OP_minus] [$rbp+0]
	#DEBUG_VALUE: propagateFields:EHallGrid <- [DW_OP_constu 88, DW_OP_minus] [$rbp+0]
	#DEBUG_VALUE: propagateFields:EGradPeGrid <- [DW_OP_constu 80, DW_OP_minus] [$rbp+0]
	#DEBUG_VALUE: propagateFields:momentsGrid <- [DW_OP_plus_uconst 16] [$rbp+0]
	#DEBUG_VALUE: propagateFields:momentsDt2Grid <- [DW_OP_plus_uconst 24] [$rbp+0]
	#DEBUG_VALUE: propagateFields:dPerBGrid <- [DW_OP_plus_uconst 32] [$rbp+0]
	#DEBUG_VALUE: propagateFields:dMomentsGrid <- [DW_OP_plus_uconst 40] [$rbp+0]
	#DEBUG_VALUE: propagateFields:BgBGrid <- [DW_OP_plus_uconst 48] [$rbp+0]
	#DEBUG_VALUE: propagateFields:volGrid <- [DW_OP_plus_uconst 56] [$rbp+0]
	#DEBUG_VALUE: propagateFields:technicalGrid <- [DW_OP_plus_uconst 64] [$rbp+0]
	#DEBUG_VALUE: propagateFields:sysBoundaries <- [DW_OP_plus_uconst 72] [$rbp+0]
	#DEBUG_VALUE: propagateFields:dt <- [DW_OP_plus_uconst 80] [$rbp+0]
	#DEBUG_VALUE: propagateFields:subcycles <- [DW_OP_plus_uconst 88] [$rbp+0]
	#DEBUG_VALUE: subcycleDt <- undef
	.loc	1 0 1 is_stmt 0         # fieldsolver/ldz_main.cpp:0:1
	vmovsd	-144(%rbp), %xmm2       # 8-byte Reload
                                        # xmm2 = mem[0],zero
.Ltmp101:
	.loc	1 339 1 is_stmt 1       # fieldsolver/ldz_main.cpp:339:1
	vaddsd	-64(%rbp), %xmm2, %xmm2
.Ltmp102:
	#DEBUG_VALUE: subcycleT <- $xmm2
	.loc	1 0 1 is_stmt 0         # fieldsolver/ldz_main.cpp:0:1
	movq	-152(%rbp), %rax        # 8-byte Reload
	.loc	1 340 1 is_stmt 1       # fieldsolver/ldz_main.cpp:340:1
	leaq	1(%rax), %rdx
.Ltmp103:
	#DEBUG_VALUE: subcycleCount <- $rdx
	.loc	1 342 1                 # fieldsolver/ldz_main.cpp:342:1
	movl	-136(%rbp), %eax        # 4-byte Reload
	movq	%rdx, %rcx
.Ltmp104:
	#DEBUG_VALUE: subcycleCount <- $rcx
	.loc	1 0 1 is_stmt 0         # fieldsolver/ldz_main.cpp:0:1
	movq	%rdx, -232(%rbp)        # 8-byte Spill
.Ltmp105:
	#DEBUG_VALUE: subcycleCount <- [DW_OP_constu 232, DW_OP_minus] [$rbp+0]
	.loc	1 342 1                 # fieldsolver/ldz_main.cpp:342:1
	cmpq	%rax, %rdx
	vmovsd	-240(%rbp), %xmm0       # 8-byte Reload
                                        # xmm0 = mem[0],zero
	vmovsd	%xmm2, -144(%rbp)       # 8-byte Spill
	jae	.LBB3_83
.Ltmp106:
# %bb.39:                               # %L..inline.64648
                                        #   in Loop: Header=BB3_23 Depth=1
	#DEBUG_VALUE: subcycleCount <- [DW_OP_constu 232, DW_OP_minus] [$rbp+0]
	#DEBUG_VALUE: subcycleT <- $xmm2
	#DEBUG_VALUE: ....inline.__FILL_CHARARRAY <- [DW_OP_LLVM_convert 32 7, DW_OP_LLVM_convert 8 7, DW_OP_stack_value] 0
	#DEBUG_VALUE: hallTermCommunicateDerivatives <- [DW_OP_constu 120, DW_OP_minus] [$rbp+0]
	#DEBUG_VALUE: technicalGrid <- $r15
	#DEBUG_VALUE: gridDims <- [DW_OP_plus_uconst 264, DW_OP_stack_value] $r15
	#DEBUG_VALUE: propagateFields:perBGrid <- [DW_OP_constu 56, DW_OP_minus] [$rbp+0]
	#DEBUG_VALUE: propagateFields:perBDt2Grid <- [DW_OP_constu 112, DW_OP_minus] [$rbp+0]
	#DEBUG_VALUE: propagateFields:EGrid <- [DW_OP_constu 96, DW_OP_minus] [$rbp+0]
	#DEBUG_VALUE: propagateFields:EDt2Grid <- [DW_OP_constu 128, DW_OP_minus] [$rbp+0]
	#DEBUG_VALUE: propagateFields:EHallGrid <- [DW_OP_constu 88, DW_OP_minus] [$rbp+0]
	#DEBUG_VALUE: propagateFields:EGradPeGrid <- [DW_OP_constu 80, DW_OP_minus] [$rbp+0]
	#DEBUG_VALUE: propagateFields:momentsGrid <- [DW_OP_plus_uconst 16] [$rbp+0]
	#DEBUG_VALUE: propagateFields:momentsDt2Grid <- [DW_OP_plus_uconst 24] [$rbp+0]
	#DEBUG_VALUE: propagateFields:dPerBGrid <- [DW_OP_plus_uconst 32] [$rbp+0]
	#DEBUG_VALUE: propagateFields:dMomentsGrid <- [DW_OP_plus_uconst 40] [$rbp+0]
	#DEBUG_VALUE: propagateFields:BgBGrid <- [DW_OP_plus_uconst 48] [$rbp+0]
	#DEBUG_VALUE: propagateFields:volGrid <- [DW_OP_plus_uconst 56] [$rbp+0]
	#DEBUG_VALUE: propagateFields:technicalGrid <- [DW_OP_plus_uconst 64] [$rbp+0]
	#DEBUG_VALUE: propagateFields:sysBoundaries <- [DW_OP_plus_uconst 72] [$rbp+0]
	#DEBUG_VALUE: propagateFields:dt <- [DW_OP_plus_uconst 80] [$rbp+0]
	#DEBUG_VALUE: propagateFields:subcycles <- [DW_OP_plus_uconst 88] [$rbp+0]
	vucomisd	%xmm0, %xmm2
	jae	.LBB3_83
.Ltmp107:
# %bb.40:                               # %L.B0049
                                        #   in Loop: Header=BB3_23 Depth=1
	#DEBUG_VALUE: subcycleCount <- [DW_OP_constu 232, DW_OP_minus] [$rbp+0]
	#DEBUG_VALUE: subcycleT <- $xmm2
	#DEBUG_VALUE: ....inline.__FILL_CHARARRAY <- [DW_OP_LLVM_convert 32 7, DW_OP_LLVM_convert 8 7, DW_OP_stack_value] 0
	#DEBUG_VALUE: hallTermCommunicateDerivatives <- [DW_OP_constu 120, DW_OP_minus] [$rbp+0]
	#DEBUG_VALUE: technicalGrid <- $r15
	#DEBUG_VALUE: gridDims <- [DW_OP_plus_uconst 264, DW_OP_stack_value] $r15
	#DEBUG_VALUE: propagateFields:perBGrid <- [DW_OP_constu 56, DW_OP_minus] [$rbp+0]
	#DEBUG_VALUE: propagateFields:perBDt2Grid <- [DW_OP_constu 112, DW_OP_minus] [$rbp+0]
	#DEBUG_VALUE: propagateFields:EGrid <- [DW_OP_constu 96, DW_OP_minus] [$rbp+0]
	#DEBUG_VALUE: propagateFields:EDt2Grid <- [DW_OP_constu 128, DW_OP_minus] [$rbp+0]
	#DEBUG_VALUE: propagateFields:EHallGrid <- [DW_OP_constu 88, DW_OP_minus] [$rbp+0]
	#DEBUG_VALUE: propagateFields:EGradPeGrid <- [DW_OP_constu 80, DW_OP_minus] [$rbp+0]
	#DEBUG_VALUE: propagateFields:momentsGrid <- [DW_OP_plus_uconst 16] [$rbp+0]
	#DEBUG_VALUE: propagateFields:momentsDt2Grid <- [DW_OP_plus_uconst 24] [$rbp+0]
	#DEBUG_VALUE: propagateFields:dPerBGrid <- [DW_OP_plus_uconst 32] [$rbp+0]
	#DEBUG_VALUE: propagateFields:dMomentsGrid <- [DW_OP_plus_uconst 40] [$rbp+0]
	#DEBUG_VALUE: propagateFields:BgBGrid <- [DW_OP_plus_uconst 48] [$rbp+0]
	#DEBUG_VALUE: propagateFields:volGrid <- [DW_OP_plus_uconst 56] [$rbp+0]
	#DEBUG_VALUE: propagateFields:technicalGrid <- [DW_OP_plus_uconst 64] [$rbp+0]
	#DEBUG_VALUE: propagateFields:sysBoundaries <- [DW_OP_plus_uconst 72] [$rbp+0]
	#DEBUG_VALUE: propagateFields:dt <- [DW_OP_plus_uconst 80] [$rbp+0]
	#DEBUG_VALUE: propagateFields:subcycles <- [DW_OP_plus_uconst 88] [$rbp+0]
	#DEBUG_VALUE: dtMaxLocal <- 1.797693e+308
	.loc	1 360 1 is_stmt 1       # fieldsolver/ldz_main.cpp:360:1
	movabsq	$9218868437227405311, %rax # imm = 0x7FEFFFFFFFFFFFFF
	movq	%rax, -288(%rbp)
.Ltmp108:
	#DEBUG_VALUE: localSize <- [DW_OP_plus_uconst 264, DW_OP_stack_value] $r15
	.loc	1 658 1                 # fieldsolver/ldz_main.cpp:658:1
	movslq	272(%r15), %rax
	movq	%rax, -72(%rbp)         # 8-byte Spill
	testq	%rax, %rax
	#DEBUG_VALUE: dtMaxLocal <- 1.797693e+308
	#DEBUG_VALUE: localSize <- [DW_OP_plus_uconst 264, DW_OP_stack_value] $r15
.Ltmp109:
	.loc	1 363 1                 # fieldsolver/ldz_main.cpp:363:1
	jle	.LBB3_61
.Ltmp110:
# %bb.41:                               # %L.B1116.preheader
                                        #   in Loop: Header=BB3_23 Depth=1
	#DEBUG_VALUE: localSize <- [DW_OP_plus_uconst 264, DW_OP_stack_value] $r15
	#DEBUG_VALUE: dtMaxLocal <- 1.797693e+308
	#DEBUG_VALUE: subcycleCount <- [DW_OP_constu 232, DW_OP_minus] [$rbp+0]
	#DEBUG_VALUE: subcycleT <- $xmm2
	#DEBUG_VALUE: ....inline.__FILL_CHARARRAY <- [DW_OP_LLVM_convert 32 7, DW_OP_LLVM_convert 8 7, DW_OP_stack_value] 0
	#DEBUG_VALUE: hallTermCommunicateDerivatives <- [DW_OP_constu 120, DW_OP_minus] [$rbp+0]
	#DEBUG_VALUE: technicalGrid <- $r15
	#DEBUG_VALUE: gridDims <- [DW_OP_plus_uconst 264, DW_OP_stack_value] $r15
	#DEBUG_VALUE: propagateFields:perBGrid <- [DW_OP_constu 56, DW_OP_minus] [$rbp+0]
	#DEBUG_VALUE: propagateFields:perBDt2Grid <- [DW_OP_constu 112, DW_OP_minus] [$rbp+0]
	#DEBUG_VALUE: propagateFields:EGrid <- [DW_OP_constu 96, DW_OP_minus] [$rbp+0]
	#DEBUG_VALUE: propagateFields:EDt2Grid <- [DW_OP_constu 128, DW_OP_minus] [$rbp+0]
	#DEBUG_VALUE: propagateFields:EHallGrid <- [DW_OP_constu 88, DW_OP_minus] [$rbp+0]
	#DEBUG_VALUE: propagateFields:EGradPeGrid <- [DW_OP_constu 80, DW_OP_minus] [$rbp+0]
	#DEBUG_VALUE: propagateFields:momentsGrid <- [DW_OP_plus_uconst 16] [$rbp+0]
	#DEBUG_VALUE: propagateFields:momentsDt2Grid <- [DW_OP_plus_uconst 24] [$rbp+0]
	#DEBUG_VALUE: propagateFields:dPerBGrid <- [DW_OP_plus_uconst 32] [$rbp+0]
	#DEBUG_VALUE: propagateFields:dMomentsGrid <- [DW_OP_plus_uconst 40] [$rbp+0]
	#DEBUG_VALUE: propagateFields:BgBGrid <- [DW_OP_plus_uconst 48] [$rbp+0]
	#DEBUG_VALUE: propagateFields:volGrid <- [DW_OP_plus_uconst 56] [$rbp+0]
	#DEBUG_VALUE: propagateFields:technicalGrid <- [DW_OP_plus_uconst 64] [$rbp+0]
	#DEBUG_VALUE: propagateFields:sysBoundaries <- [DW_OP_plus_uconst 72] [$rbp+0]
	#DEBUG_VALUE: propagateFields:dt <- [DW_OP_plus_uconst 80] [$rbp+0]
	#DEBUG_VALUE: propagateFields:subcycles <- [DW_OP_plus_uconst 88] [$rbp+0]
	.loc	1 0 0 is_stmt 0         # fieldsolver/ldz_main.cpp:0:0
	movslq	268(%r15), %r13
	vmovsd	.LCPI3_0(%rip), %xmm0   # xmm0 = mem[0],zero
	.loc	1 363 1                 # fieldsolver/ldz_main.cpp:363:1
	xorl	%r11d, %r11d
	jmp	.LBB3_43
.Ltmp111:
	.p2align	4, 0x90
.LBB3_42:                               # %L.B1119
                                        #   in Loop: Header=BB3_43 Depth=2
	#DEBUG_VALUE: localSize <- [DW_OP_plus_uconst 264, DW_OP_stack_value] $r15
	#DEBUG_VALUE: subcycleCount <- [DW_OP_constu 232, DW_OP_minus] [$rbp+0]
	#DEBUG_VALUE: subcycleT <- $xmm2
	#DEBUG_VALUE: ....inline.__FILL_CHARARRAY <- [DW_OP_LLVM_convert 32 7, DW_OP_LLVM_convert 8 7, DW_OP_stack_value] 0
	#DEBUG_VALUE: hallTermCommunicateDerivatives <- [DW_OP_constu 120, DW_OP_minus] [$rbp+0]
	#DEBUG_VALUE: technicalGrid <- $r15
	#DEBUG_VALUE: gridDims <- [DW_OP_plus_uconst 264, DW_OP_stack_value] $r15
	#DEBUG_VALUE: propagateFields:perBGrid <- [DW_OP_constu 56, DW_OP_minus] [$rbp+0]
	#DEBUG_VALUE: propagateFields:perBDt2Grid <- [DW_OP_constu 112, DW_OP_minus] [$rbp+0]
	#DEBUG_VALUE: propagateFields:EGrid <- [DW_OP_constu 96, DW_OP_minus] [$rbp+0]
	#DEBUG_VALUE: propagateFields:EDt2Grid <- [DW_OP_constu 128, DW_OP_minus] [$rbp+0]
	#DEBUG_VALUE: propagateFields:EHallGrid <- [DW_OP_constu 88, DW_OP_minus] [$rbp+0]
	#DEBUG_VALUE: propagateFields:EGradPeGrid <- [DW_OP_constu 80, DW_OP_minus] [$rbp+0]
	#DEBUG_VALUE: propagateFields:momentsGrid <- [DW_OP_plus_uconst 16] [$rbp+0]
	#DEBUG_VALUE: propagateFields:momentsDt2Grid <- [DW_OP_plus_uconst 24] [$rbp+0]
	#DEBUG_VALUE: propagateFields:dPerBGrid <- [DW_OP_plus_uconst 32] [$rbp+0]
	#DEBUG_VALUE: propagateFields:dMomentsGrid <- [DW_OP_plus_uconst 40] [$rbp+0]
	#DEBUG_VALUE: propagateFields:BgBGrid <- [DW_OP_plus_uconst 48] [$rbp+0]
	#DEBUG_VALUE: propagateFields:volGrid <- [DW_OP_plus_uconst 56] [$rbp+0]
	#DEBUG_VALUE: propagateFields:technicalGrid <- [DW_OP_plus_uconst 64] [$rbp+0]
	#DEBUG_VALUE: propagateFields:sysBoundaries <- [DW_OP_plus_uconst 72] [$rbp+0]
	#DEBUG_VALUE: propagateFields:dt <- [DW_OP_plus_uconst 80] [$rbp+0]
	#DEBUG_VALUE: propagateFields:subcycles <- [DW_OP_plus_uconst 88] [$rbp+0]
	incq	%r11
	cmpq	-72(%rbp), %r11         # 8-byte Folded Reload
	je	.LBB3_61
.Ltmp112:
.LBB3_43:                               # %L.B1116
                                        #   Parent Loop BB3_23 Depth=1
                                        # =>  This Loop Header: Depth=2
                                        #       Child Loop BB3_46 Depth 3
                                        #         Child Loop BB3_50 Depth 4
	#DEBUG_VALUE: localSize <- [DW_OP_plus_uconst 264, DW_OP_stack_value] $r15
	#DEBUG_VALUE: subcycleCount <- [DW_OP_constu 232, DW_OP_minus] [$rbp+0]
	#DEBUG_VALUE: subcycleT <- $xmm2
	#DEBUG_VALUE: ....inline.__FILL_CHARARRAY <- [DW_OP_LLVM_convert 32 7, DW_OP_LLVM_convert 8 7, DW_OP_stack_value] 0
	#DEBUG_VALUE: hallTermCommunicateDerivatives <- [DW_OP_constu 120, DW_OP_minus] [$rbp+0]
	#DEBUG_VALUE: technicalGrid <- $r15
	#DEBUG_VALUE: gridDims <- [DW_OP_plus_uconst 264, DW_OP_stack_value] $r15
	#DEBUG_VALUE: propagateFields:perBGrid <- [DW_OP_constu 56, DW_OP_minus] [$rbp+0]
	#DEBUG_VALUE: propagateFields:perBDt2Grid <- [DW_OP_constu 112, DW_OP_minus] [$rbp+0]
	#DEBUG_VALUE: propagateFields:EGrid <- [DW_OP_constu 96, DW_OP_minus] [$rbp+0]
	#DEBUG_VALUE: propagateFields:EDt2Grid <- [DW_OP_constu 128, DW_OP_minus] [$rbp+0]
	#DEBUG_VALUE: propagateFields:EHallGrid <- [DW_OP_constu 88, DW_OP_minus] [$rbp+0]
	#DEBUG_VALUE: propagateFields:EGradPeGrid <- [DW_OP_constu 80, DW_OP_minus] [$rbp+0]
	#DEBUG_VALUE: propagateFields:momentsGrid <- [DW_OP_plus_uconst 16] [$rbp+0]
	#DEBUG_VALUE: propagateFields:momentsDt2Grid <- [DW_OP_plus_uconst 24] [$rbp+0]
	#DEBUG_VALUE: propagateFields:dPerBGrid <- [DW_OP_plus_uconst 32] [$rbp+0]
	#DEBUG_VALUE: propagateFields:dMomentsGrid <- [DW_OP_plus_uconst 40] [$rbp+0]
	#DEBUG_VALUE: propagateFields:BgBGrid <- [DW_OP_plus_uconst 48] [$rbp+0]
	#DEBUG_VALUE: propagateFields:volGrid <- [DW_OP_plus_uconst 56] [$rbp+0]
	#DEBUG_VALUE: propagateFields:technicalGrid <- [DW_OP_plus_uconst 64] [$rbp+0]
	#DEBUG_VALUE: propagateFields:sysBoundaries <- [DW_OP_plus_uconst 72] [$rbp+0]
	#DEBUG_VALUE: propagateFields:dt <- [DW_OP_plus_uconst 80] [$rbp+0]
	#DEBUG_VALUE: propagateFields:subcycles <- [DW_OP_plus_uconst 88] [$rbp+0]
	.loc	1 0 0                   # fieldsolver/ldz_main.cpp:0:0
	testl	%r13d, %r13d
	.loc	1 363 1                 # fieldsolver/ldz_main.cpp:363:1
	jle	.LBB3_42
.Ltmp113:
# %bb.44:                               # %L.B1155
                                        #   in Loop: Header=BB3_43 Depth=2
	#DEBUG_VALUE: localSize <- [DW_OP_plus_uconst 264, DW_OP_stack_value] $r15
	#DEBUG_VALUE: subcycleCount <- [DW_OP_constu 232, DW_OP_minus] [$rbp+0]
	#DEBUG_VALUE: subcycleT <- $xmm2
	#DEBUG_VALUE: ....inline.__FILL_CHARARRAY <- [DW_OP_LLVM_convert 32 7, DW_OP_LLVM_convert 8 7, DW_OP_stack_value] 0
	#DEBUG_VALUE: hallTermCommunicateDerivatives <- [DW_OP_constu 120, DW_OP_minus] [$rbp+0]
	#DEBUG_VALUE: technicalGrid <- $r15
	#DEBUG_VALUE: gridDims <- [DW_OP_plus_uconst 264, DW_OP_stack_value] $r15
	#DEBUG_VALUE: propagateFields:perBGrid <- [DW_OP_constu 56, DW_OP_minus] [$rbp+0]
	#DEBUG_VALUE: propagateFields:perBDt2Grid <- [DW_OP_constu 112, DW_OP_minus] [$rbp+0]
	#DEBUG_VALUE: propagateFields:EGrid <- [DW_OP_constu 96, DW_OP_minus] [$rbp+0]
	#DEBUG_VALUE: propagateFields:EDt2Grid <- [DW_OP_constu 128, DW_OP_minus] [$rbp+0]
	#DEBUG_VALUE: propagateFields:EHallGrid <- [DW_OP_constu 88, DW_OP_minus] [$rbp+0]
	#DEBUG_VALUE: propagateFields:EGradPeGrid <- [DW_OP_constu 80, DW_OP_minus] [$rbp+0]
	#DEBUG_VALUE: propagateFields:momentsGrid <- [DW_OP_plus_uconst 16] [$rbp+0]
	#DEBUG_VALUE: propagateFields:momentsDt2Grid <- [DW_OP_plus_uconst 24] [$rbp+0]
	#DEBUG_VALUE: propagateFields:dPerBGrid <- [DW_OP_plus_uconst 32] [$rbp+0]
	#DEBUG_VALUE: propagateFields:dMomentsGrid <- [DW_OP_plus_uconst 40] [$rbp+0]
	#DEBUG_VALUE: propagateFields:BgBGrid <- [DW_OP_plus_uconst 48] [$rbp+0]
	#DEBUG_VALUE: propagateFields:volGrid <- [DW_OP_plus_uconst 56] [$rbp+0]
	#DEBUG_VALUE: propagateFields:technicalGrid <- [DW_OP_plus_uconst 64] [$rbp+0]
	#DEBUG_VALUE: propagateFields:sysBoundaries <- [DW_OP_plus_uconst 72] [$rbp+0]
	#DEBUG_VALUE: propagateFields:dt <- [DW_OP_plus_uconst 80] [$rbp+0]
	#DEBUG_VALUE: propagateFields:subcycles <- [DW_OP_plus_uconst 88] [$rbp+0]
	.loc	1 0 0                   # fieldsolver/ldz_main.cpp:0:0
	movslq	264(%r15), %rsi
	movl	%r11d, %r9d
	shrl	$31, %r9d
	movl	%r11d, %eax
	sarl	$31, %eax
	xorl	%r8d, %r8d
	movq	-72(%rbp), %rcx         # 8-byte Reload
	cmpl	%r11d, %ecx
	setle	%r8b
	cmovlel	%r14d, %r9d
	addl	%eax, %r8d
	imull	%ecx, %r9d
	addl	%r11d, %r9d
	.loc	1 363 1                 # fieldsolver/ldz_main.cpp:363:1
	xorl	%edi, %edi
	jmp	.LBB3_46
.Ltmp114:
	.p2align	4, 0x90
.LBB3_45:                               # %L.B1121
                                        #   in Loop: Header=BB3_46 Depth=3
	#DEBUG_VALUE: localSize <- [DW_OP_plus_uconst 264, DW_OP_stack_value] $r15
	#DEBUG_VALUE: subcycleCount <- [DW_OP_constu 232, DW_OP_minus] [$rbp+0]
	#DEBUG_VALUE: subcycleT <- $xmm2
	#DEBUG_VALUE: ....inline.__FILL_CHARARRAY <- [DW_OP_LLVM_convert 32 7, DW_OP_LLVM_convert 8 7, DW_OP_stack_value] 0
	#DEBUG_VALUE: hallTermCommunicateDerivatives <- [DW_OP_constu 120, DW_OP_minus] [$rbp+0]
	#DEBUG_VALUE: technicalGrid <- $r15
	#DEBUG_VALUE: gridDims <- [DW_OP_plus_uconst 264, DW_OP_stack_value] $r15
	#DEBUG_VALUE: propagateFields:perBGrid <- [DW_OP_constu 56, DW_OP_minus] [$rbp+0]
	#DEBUG_VALUE: propagateFields:perBDt2Grid <- [DW_OP_constu 112, DW_OP_minus] [$rbp+0]
	#DEBUG_VALUE: propagateFields:EGrid <- [DW_OP_constu 96, DW_OP_minus] [$rbp+0]
	#DEBUG_VALUE: propagateFields:EDt2Grid <- [DW_OP_constu 128, DW_OP_minus] [$rbp+0]
	#DEBUG_VALUE: propagateFields:EHallGrid <- [DW_OP_constu 88, DW_OP_minus] [$rbp+0]
	#DEBUG_VALUE: propagateFields:EGradPeGrid <- [DW_OP_constu 80, DW_OP_minus] [$rbp+0]
	#DEBUG_VALUE: propagateFields:momentsGrid <- [DW_OP_plus_uconst 16] [$rbp+0]
	#DEBUG_VALUE: propagateFields:momentsDt2Grid <- [DW_OP_plus_uconst 24] [$rbp+0]
	#DEBUG_VALUE: propagateFields:dPerBGrid <- [DW_OP_plus_uconst 32] [$rbp+0]
	#DEBUG_VALUE: propagateFields:dMomentsGrid <- [DW_OP_plus_uconst 40] [$rbp+0]
	#DEBUG_VALUE: propagateFields:BgBGrid <- [DW_OP_plus_uconst 48] [$rbp+0]
	#DEBUG_VALUE: propagateFields:volGrid <- [DW_OP_plus_uconst 56] [$rbp+0]
	#DEBUG_VALUE: propagateFields:technicalGrid <- [DW_OP_plus_uconst 64] [$rbp+0]
	#DEBUG_VALUE: propagateFields:sysBoundaries <- [DW_OP_plus_uconst 72] [$rbp+0]
	#DEBUG_VALUE: propagateFields:dt <- [DW_OP_plus_uconst 80] [$rbp+0]
	#DEBUG_VALUE: propagateFields:subcycles <- [DW_OP_plus_uconst 88] [$rbp+0]
	incq	%rdi
	cmpq	%r13, %rdi
	je	.LBB3_42
.Ltmp115:
.LBB3_46:                               # %L.B1118
                                        #   Parent Loop BB3_23 Depth=1
                                        #     Parent Loop BB3_43 Depth=2
                                        # =>    This Loop Header: Depth=3
                                        #         Child Loop BB3_50 Depth 4
	#DEBUG_VALUE: localSize <- [DW_OP_plus_uconst 264, DW_OP_stack_value] $r15
	#DEBUG_VALUE: subcycleCount <- [DW_OP_constu 232, DW_OP_minus] [$rbp+0]
	#DEBUG_VALUE: subcycleT <- $xmm2
	#DEBUG_VALUE: ....inline.__FILL_CHARARRAY <- [DW_OP_LLVM_convert 32 7, DW_OP_LLVM_convert 8 7, DW_OP_stack_value] 0
	#DEBUG_VALUE: hallTermCommunicateDerivatives <- [DW_OP_constu 120, DW_OP_minus] [$rbp+0]
	#DEBUG_VALUE: technicalGrid <- $r15
	#DEBUG_VALUE: gridDims <- [DW_OP_plus_uconst 264, DW_OP_stack_value] $r15
	#DEBUG_VALUE: propagateFields:perBGrid <- [DW_OP_constu 56, DW_OP_minus] [$rbp+0]
	#DEBUG_VALUE: propagateFields:perBDt2Grid <- [DW_OP_constu 112, DW_OP_minus] [$rbp+0]
	#DEBUG_VALUE: propagateFields:EGrid <- [DW_OP_constu 96, DW_OP_minus] [$rbp+0]
	#DEBUG_VALUE: propagateFields:EDt2Grid <- [DW_OP_constu 128, DW_OP_minus] [$rbp+0]
	#DEBUG_VALUE: propagateFields:EHallGrid <- [DW_OP_constu 88, DW_OP_minus] [$rbp+0]
	#DEBUG_VALUE: propagateFields:EGradPeGrid <- [DW_OP_constu 80, DW_OP_minus] [$rbp+0]
	#DEBUG_VALUE: propagateFields:momentsGrid <- [DW_OP_plus_uconst 16] [$rbp+0]
	#DEBUG_VALUE: propagateFields:momentsDt2Grid <- [DW_OP_plus_uconst 24] [$rbp+0]
	#DEBUG_VALUE: propagateFields:dPerBGrid <- [DW_OP_plus_uconst 32] [$rbp+0]
	#DEBUG_VALUE: propagateFields:dMomentsGrid <- [DW_OP_plus_uconst 40] [$rbp+0]
	#DEBUG_VALUE: propagateFields:BgBGrid <- [DW_OP_plus_uconst 48] [$rbp+0]
	#DEBUG_VALUE: propagateFields:volGrid <- [DW_OP_plus_uconst 56] [$rbp+0]
	#DEBUG_VALUE: propagateFields:technicalGrid <- [DW_OP_plus_uconst 64] [$rbp+0]
	#DEBUG_VALUE: propagateFields:sysBoundaries <- [DW_OP_plus_uconst 72] [$rbp+0]
	#DEBUG_VALUE: propagateFields:dt <- [DW_OP_plus_uconst 80] [$rbp+0]
	#DEBUG_VALUE: propagateFields:subcycles <- [DW_OP_plus_uconst 88] [$rbp+0]
	.loc	1 0 0                   # fieldsolver/ldz_main.cpp:0:0
	testl	%esi, %esi
	.loc	1 363 1                 # fieldsolver/ldz_main.cpp:363:1
	jle	.LBB3_45
.Ltmp116:
# %bb.47:                               # %L.B1156
                                        #   in Loop: Header=BB3_46 Depth=3
	#DEBUG_VALUE: localSize <- [DW_OP_plus_uconst 264, DW_OP_stack_value] $r15
	#DEBUG_VALUE: subcycleCount <- [DW_OP_constu 232, DW_OP_minus] [$rbp+0]
	#DEBUG_VALUE: subcycleT <- $xmm2
	#DEBUG_VALUE: ....inline.__FILL_CHARARRAY <- [DW_OP_LLVM_convert 32 7, DW_OP_LLVM_convert 8 7, DW_OP_stack_value] 0
	#DEBUG_VALUE: hallTermCommunicateDerivatives <- [DW_OP_constu 120, DW_OP_minus] [$rbp+0]
	#DEBUG_VALUE: technicalGrid <- $r15
	#DEBUG_VALUE: gridDims <- [DW_OP_plus_uconst 264, DW_OP_stack_value] $r15
	#DEBUG_VALUE: propagateFields:perBGrid <- [DW_OP_constu 56, DW_OP_minus] [$rbp+0]
	#DEBUG_VALUE: propagateFields:perBDt2Grid <- [DW_OP_constu 112, DW_OP_minus] [$rbp+0]
	#DEBUG_VALUE: propagateFields:EGrid <- [DW_OP_constu 96, DW_OP_minus] [$rbp+0]
	#DEBUG_VALUE: propagateFields:EDt2Grid <- [DW_OP_constu 128, DW_OP_minus] [$rbp+0]
	#DEBUG_VALUE: propagateFields:EHallGrid <- [DW_OP_constu 88, DW_OP_minus] [$rbp+0]
	#DEBUG_VALUE: propagateFields:EGradPeGrid <- [DW_OP_constu 80, DW_OP_minus] [$rbp+0]
	#DEBUG_VALUE: propagateFields:momentsGrid <- [DW_OP_plus_uconst 16] [$rbp+0]
	#DEBUG_VALUE: propagateFields:momentsDt2Grid <- [DW_OP_plus_uconst 24] [$rbp+0]
	#DEBUG_VALUE: propagateFields:dPerBGrid <- [DW_OP_plus_uconst 32] [$rbp+0]
	#DEBUG_VALUE: propagateFields:dMomentsGrid <- [DW_OP_plus_uconst 40] [$rbp+0]
	#DEBUG_VALUE: propagateFields:BgBGrid <- [DW_OP_plus_uconst 48] [$rbp+0]
	#DEBUG_VALUE: propagateFields:volGrid <- [DW_OP_plus_uconst 56] [$rbp+0]
	#DEBUG_VALUE: propagateFields:technicalGrid <- [DW_OP_plus_uconst 64] [$rbp+0]
	#DEBUG_VALUE: propagateFields:sysBoundaries <- [DW_OP_plus_uconst 72] [$rbp+0]
	#DEBUG_VALUE: propagateFields:dt <- [DW_OP_plus_uconst 80] [$rbp+0]
	#DEBUG_VALUE: propagateFields:subcycles <- [DW_OP_plus_uconst 88] [$rbp+0]
	.loc	1 0 0                   # fieldsolver/ldz_main.cpp:0:0
	movl	%edi, %r10d
	shrl	$31, %r10d
	cmpl	%edi, %r13d
	cmovlel	%r14d, %r10d
	imull	%r13d, %r10d
	addl	%edi, %r10d
	.loc	1 363 1                 # fieldsolver/ldz_main.cpp:363:1
	xorl	%ebx, %ebx
	jmp	.LBB3_50
.Ltmp117:
	.p2align	4, 0x90
.LBB3_48:                               # %L.B0067
                                        #   in Loop: Header=BB3_50 Depth=4
	#DEBUG_VALUE: localSize <- [DW_OP_plus_uconst 264, DW_OP_stack_value] $r15
	#DEBUG_VALUE: subcycleCount <- [DW_OP_constu 232, DW_OP_minus] [$rbp+0]
	#DEBUG_VALUE: subcycleT <- $xmm2
	#DEBUG_VALUE: ....inline.__FILL_CHARARRAY <- [DW_OP_LLVM_convert 32 7, DW_OP_LLVM_convert 8 7, DW_OP_stack_value] 0
	#DEBUG_VALUE: hallTermCommunicateDerivatives <- [DW_OP_constu 120, DW_OP_minus] [$rbp+0]
	#DEBUG_VALUE: technicalGrid <- $r15
	#DEBUG_VALUE: gridDims <- [DW_OP_plus_uconst 264, DW_OP_stack_value] $r15
	#DEBUG_VALUE: propagateFields:perBGrid <- [DW_OP_constu 56, DW_OP_minus] [$rbp+0]
	#DEBUG_VALUE: propagateFields:perBDt2Grid <- [DW_OP_constu 112, DW_OP_minus] [$rbp+0]
	#DEBUG_VALUE: propagateFields:EGrid <- [DW_OP_constu 96, DW_OP_minus] [$rbp+0]
	#DEBUG_VALUE: propagateFields:EDt2Grid <- [DW_OP_constu 128, DW_OP_minus] [$rbp+0]
	#DEBUG_VALUE: propagateFields:EHallGrid <- [DW_OP_constu 88, DW_OP_minus] [$rbp+0]
	#DEBUG_VALUE: propagateFields:EGradPeGrid <- [DW_OP_constu 80, DW_OP_minus] [$rbp+0]
	#DEBUG_VALUE: propagateFields:momentsGrid <- [DW_OP_plus_uconst 16] [$rbp+0]
	#DEBUG_VALUE: propagateFields:momentsDt2Grid <- [DW_OP_plus_uconst 24] [$rbp+0]
	#DEBUG_VALUE: propagateFields:dPerBGrid <- [DW_OP_plus_uconst 32] [$rbp+0]
	#DEBUG_VALUE: propagateFields:dMomentsGrid <- [DW_OP_plus_uconst 40] [$rbp+0]
	#DEBUG_VALUE: propagateFields:BgBGrid <- [DW_OP_plus_uconst 48] [$rbp+0]
	#DEBUG_VALUE: propagateFields:volGrid <- [DW_OP_plus_uconst 56] [$rbp+0]
	#DEBUG_VALUE: propagateFields:technicalGrid <- [DW_OP_plus_uconst 64] [$rbp+0]
	#DEBUG_VALUE: propagateFields:sysBoundaries <- [DW_OP_plus_uconst 72] [$rbp+0]
	#DEBUG_VALUE: propagateFields:dt <- [DW_OP_plus_uconst 80] [$rbp+0]
	#DEBUG_VALUE: propagateFields:subcycles <- [DW_OP_plus_uconst 88] [$rbp+0]
	vmovsd	8(%rax), %xmm1          # xmm1 = mem[0],zero
.Ltmp118:
	#DEBUG_VALUE: dtMaxLocal <- $xmm0
	vminsd	%xmm0, %xmm1, %xmm0
.Ltmp119:
	#DEBUG_VALUE: dtMaxLocal <- undef
	vmovsd	%xmm0, -288(%rbp)
.Ltmp120:
.LBB3_49:                               # %L.B0066
                                        #   in Loop: Header=BB3_50 Depth=4
	#DEBUG_VALUE: localSize <- [DW_OP_plus_uconst 264, DW_OP_stack_value] $r15
	#DEBUG_VALUE: subcycleCount <- [DW_OP_constu 232, DW_OP_minus] [$rbp+0]
	#DEBUG_VALUE: subcycleT <- $xmm2
	#DEBUG_VALUE: ....inline.__FILL_CHARARRAY <- [DW_OP_LLVM_convert 32 7, DW_OP_LLVM_convert 8 7, DW_OP_stack_value] 0
	#DEBUG_VALUE: hallTermCommunicateDerivatives <- [DW_OP_constu 120, DW_OP_minus] [$rbp+0]
	#DEBUG_VALUE: technicalGrid <- $r15
	#DEBUG_VALUE: gridDims <- [DW_OP_plus_uconst 264, DW_OP_stack_value] $r15
	#DEBUG_VALUE: propagateFields:perBGrid <- [DW_OP_constu 56, DW_OP_minus] [$rbp+0]
	#DEBUG_VALUE: propagateFields:perBDt2Grid <- [DW_OP_constu 112, DW_OP_minus] [$rbp+0]
	#DEBUG_VALUE: propagateFields:EGrid <- [DW_OP_constu 96, DW_OP_minus] [$rbp+0]
	#DEBUG_VALUE: propagateFields:EDt2Grid <- [DW_OP_constu 128, DW_OP_minus] [$rbp+0]
	#DEBUG_VALUE: propagateFields:EHallGrid <- [DW_OP_constu 88, DW_OP_minus] [$rbp+0]
	#DEBUG_VALUE: propagateFields:EGradPeGrid <- [DW_OP_constu 80, DW_OP_minus] [$rbp+0]
	#DEBUG_VALUE: propagateFields:momentsGrid <- [DW_OP_plus_uconst 16] [$rbp+0]
	#DEBUG_VALUE: propagateFields:momentsDt2Grid <- [DW_OP_plus_uconst 24] [$rbp+0]
	#DEBUG_VALUE: propagateFields:dPerBGrid <- [DW_OP_plus_uconst 32] [$rbp+0]
	#DEBUG_VALUE: propagateFields:dMomentsGrid <- [DW_OP_plus_uconst 40] [$rbp+0]
	#DEBUG_VALUE: propagateFields:BgBGrid <- [DW_OP_plus_uconst 48] [$rbp+0]
	#DEBUG_VALUE: propagateFields:volGrid <- [DW_OP_plus_uconst 56] [$rbp+0]
	#DEBUG_VALUE: propagateFields:technicalGrid <- [DW_OP_plus_uconst 64] [$rbp+0]
	#DEBUG_VALUE: propagateFields:sysBoundaries <- [DW_OP_plus_uconst 72] [$rbp+0]
	#DEBUG_VALUE: propagateFields:dt <- [DW_OP_plus_uconst 80] [$rbp+0]
	#DEBUG_VALUE: propagateFields:subcycles <- [DW_OP_plus_uconst 88] [$rbp+0]
	incq	%rbx
	cmpq	%rbx, %rsi
	je	.LBB3_45
.Ltmp121:
.LBB3_50:                               # %L.B1120
                                        #   Parent Loop BB3_23 Depth=1
                                        #     Parent Loop BB3_43 Depth=2
                                        #       Parent Loop BB3_46 Depth=3
                                        # =>      This Inner Loop Header: Depth=4
	#DEBUG_VALUE: localSize <- [DW_OP_plus_uconst 264, DW_OP_stack_value] $r15
	#DEBUG_VALUE: subcycleCount <- [DW_OP_constu 232, DW_OP_minus] [$rbp+0]
	#DEBUG_VALUE: subcycleT <- $xmm2
	#DEBUG_VALUE: ....inline.__FILL_CHARARRAY <- [DW_OP_LLVM_convert 32 7, DW_OP_LLVM_convert 8 7, DW_OP_stack_value] 0
	#DEBUG_VALUE: hallTermCommunicateDerivatives <- [DW_OP_constu 120, DW_OP_minus] [$rbp+0]
	#DEBUG_VALUE: technicalGrid <- $r15
	#DEBUG_VALUE: gridDims <- [DW_OP_plus_uconst 264, DW_OP_stack_value] $r15
	#DEBUG_VALUE: propagateFields:perBGrid <- [DW_OP_constu 56, DW_OP_minus] [$rbp+0]
	#DEBUG_VALUE: propagateFields:perBDt2Grid <- [DW_OP_constu 112, DW_OP_minus] [$rbp+0]
	#DEBUG_VALUE: propagateFields:EGrid <- [DW_OP_constu 96, DW_OP_minus] [$rbp+0]
	#DEBUG_VALUE: propagateFields:EDt2Grid <- [DW_OP_constu 128, DW_OP_minus] [$rbp+0]
	#DEBUG_VALUE: propagateFields:EHallGrid <- [DW_OP_constu 88, DW_OP_minus] [$rbp+0]
	#DEBUG_VALUE: propagateFields:EGradPeGrid <- [DW_OP_constu 80, DW_OP_minus] [$rbp+0]
	#DEBUG_VALUE: propagateFields:momentsGrid <- [DW_OP_plus_uconst 16] [$rbp+0]
	#DEBUG_VALUE: propagateFields:momentsDt2Grid <- [DW_OP_plus_uconst 24] [$rbp+0]
	#DEBUG_VALUE: propagateFields:dPerBGrid <- [DW_OP_plus_uconst 32] [$rbp+0]
	#DEBUG_VALUE: propagateFields:dMomentsGrid <- [DW_OP_plus_uconst 40] [$rbp+0]
	#DEBUG_VALUE: propagateFields:BgBGrid <- [DW_OP_plus_uconst 48] [$rbp+0]
	#DEBUG_VALUE: propagateFields:volGrid <- [DW_OP_plus_uconst 56] [$rbp+0]
	#DEBUG_VALUE: propagateFields:technicalGrid <- [DW_OP_plus_uconst 64] [$rbp+0]
	#DEBUG_VALUE: propagateFields:sysBoundaries <- [DW_OP_plus_uconst 72] [$rbp+0]
	#DEBUG_VALUE: propagateFields:dt <- [DW_OP_plus_uconst 80] [$rbp+0]
	#DEBUG_VALUE: propagateFields:subcycles <- [DW_OP_plus_uconst 88] [$rbp+0]
	xorl	%eax, %eax
	testl	%ebx, %ebx
	setns	%al
	movl	%ebx, %edx
	shrl	$31, %edx
	leal	(%rax,%rax,8), %ecx
	addl	$4, %ecx
	cmpl	%ebx, %esi
	leal	13(%rax,%rax,8), %eax
	cmovlel	%r14d, %edx
	cmovgl	%ecx, %eax
	leal	-3(%rax), %ecx
	.loc	1 0 0                   # fieldsolver/ldz_main.cpp:0:0
	testl	%edi, %edi
	.loc	1 363 1                 # fieldsolver/ldz_main.cpp:363:1
	cmovnsl	%eax, %ecx
	leal	3(%rcx), %eax
	.loc	1 0 0                   # fieldsolver/ldz_main.cpp:0:0
	cmpl	%edi, %r13d
	.loc	1 363 1                 # fieldsolver/ldz_main.cpp:363:1
	cmovgl	%ecx, %eax
	addl	%r8d, %eax
	cmpl	$13, %eax
	jne	.LBB3_53
.Ltmp122:
.LBB3_51:                               # %L.B1120.L..inline.65289_crit_edge
                                        #   in Loop: Header=BB3_50 Depth=4
	#DEBUG_VALUE: localSize <- [DW_OP_plus_uconst 264, DW_OP_stack_value] $r15
	#DEBUG_VALUE: subcycleCount <- [DW_OP_constu 232, DW_OP_minus] [$rbp+0]
	#DEBUG_VALUE: subcycleT <- $xmm2
	#DEBUG_VALUE: ....inline.__FILL_CHARARRAY <- [DW_OP_LLVM_convert 32 7, DW_OP_LLVM_convert 8 7, DW_OP_stack_value] 0
	#DEBUG_VALUE: hallTermCommunicateDerivatives <- [DW_OP_constu 120, DW_OP_minus] [$rbp+0]
	#DEBUG_VALUE: technicalGrid <- $r15
	#DEBUG_VALUE: gridDims <- [DW_OP_plus_uconst 264, DW_OP_stack_value] $r15
	#DEBUG_VALUE: propagateFields:perBGrid <- [DW_OP_constu 56, DW_OP_minus] [$rbp+0]
	#DEBUG_VALUE: propagateFields:perBDt2Grid <- [DW_OP_constu 112, DW_OP_minus] [$rbp+0]
	#DEBUG_VALUE: propagateFields:EGrid <- [DW_OP_constu 96, DW_OP_minus] [$rbp+0]
	#DEBUG_VALUE: propagateFields:EDt2Grid <- [DW_OP_constu 128, DW_OP_minus] [$rbp+0]
	#DEBUG_VALUE: propagateFields:EHallGrid <- [DW_OP_constu 88, DW_OP_minus] [$rbp+0]
	#DEBUG_VALUE: propagateFields:EGradPeGrid <- [DW_OP_constu 80, DW_OP_minus] [$rbp+0]
	#DEBUG_VALUE: propagateFields:momentsGrid <- [DW_OP_plus_uconst 16] [$rbp+0]
	#DEBUG_VALUE: propagateFields:momentsDt2Grid <- [DW_OP_plus_uconst 24] [$rbp+0]
	#DEBUG_VALUE: propagateFields:dPerBGrid <- [DW_OP_plus_uconst 32] [$rbp+0]
	#DEBUG_VALUE: propagateFields:dMomentsGrid <- [DW_OP_plus_uconst 40] [$rbp+0]
	#DEBUG_VALUE: propagateFields:BgBGrid <- [DW_OP_plus_uconst 48] [$rbp+0]
	#DEBUG_VALUE: propagateFields:volGrid <- [DW_OP_plus_uconst 56] [$rbp+0]
	#DEBUG_VALUE: propagateFields:technicalGrid <- [DW_OP_plus_uconst 64] [$rbp+0]
	#DEBUG_VALUE: propagateFields:sysBoundaries <- [DW_OP_plus_uconst 72] [$rbp+0]
	#DEBUG_VALUE: propagateFields:dt <- [DW_OP_plus_uconst 80] [$rbp+0]
	#DEBUG_VALUE: propagateFields:subcycles <- [DW_OP_plus_uconst 88] [$rbp+0]
	movl	%r11d, %eax
	movl	%edi, %ecx
	movl	%ebx, %edx
	cmpl	$2, 260(%r15)
	jge	.LBB3_57
.Ltmp123:
.LBB3_52:                               #   in Loop: Header=BB3_50 Depth=4
	#DEBUG_VALUE: localSize <- [DW_OP_plus_uconst 264, DW_OP_stack_value] $r15
	#DEBUG_VALUE: subcycleCount <- [DW_OP_constu 232, DW_OP_minus] [$rbp+0]
	#DEBUG_VALUE: subcycleT <- $xmm2
	#DEBUG_VALUE: ....inline.__FILL_CHARARRAY <- [DW_OP_LLVM_convert 32 7, DW_OP_LLVM_convert 8 7, DW_OP_stack_value] 0
	#DEBUG_VALUE: hallTermCommunicateDerivatives <- [DW_OP_constu 120, DW_OP_minus] [$rbp+0]
	#DEBUG_VALUE: technicalGrid <- $r15
	#DEBUG_VALUE: gridDims <- [DW_OP_plus_uconst 264, DW_OP_stack_value] $r15
	#DEBUG_VALUE: propagateFields:perBGrid <- [DW_OP_constu 56, DW_OP_minus] [$rbp+0]
	#DEBUG_VALUE: propagateFields:perBDt2Grid <- [DW_OP_constu 112, DW_OP_minus] [$rbp+0]
	#DEBUG_VALUE: propagateFields:EGrid <- [DW_OP_constu 96, DW_OP_minus] [$rbp+0]
	#DEBUG_VALUE: propagateFields:EDt2Grid <- [DW_OP_constu 128, DW_OP_minus] [$rbp+0]
	#DEBUG_VALUE: propagateFields:EHallGrid <- [DW_OP_constu 88, DW_OP_minus] [$rbp+0]
	#DEBUG_VALUE: propagateFields:EGradPeGrid <- [DW_OP_constu 80, DW_OP_minus] [$rbp+0]
	#DEBUG_VALUE: propagateFields:momentsGrid <- [DW_OP_plus_uconst 16] [$rbp+0]
	#DEBUG_VALUE: propagateFields:momentsDt2Grid <- [DW_OP_plus_uconst 24] [$rbp+0]
	#DEBUG_VALUE: propagateFields:dPerBGrid <- [DW_OP_plus_uconst 32] [$rbp+0]
	#DEBUG_VALUE: propagateFields:dMomentsGrid <- [DW_OP_plus_uconst 40] [$rbp+0]
	#DEBUG_VALUE: propagateFields:BgBGrid <- [DW_OP_plus_uconst 48] [$rbp+0]
	#DEBUG_VALUE: propagateFields:volGrid <- [DW_OP_plus_uconst 56] [$rbp+0]
	#DEBUG_VALUE: propagateFields:technicalGrid <- [DW_OP_plus_uconst 64] [$rbp+0]
	#DEBUG_VALUE: propagateFields:sysBoundaries <- [DW_OP_plus_uconst 72] [$rbp+0]
	#DEBUG_VALUE: propagateFields:dt <- [DW_OP_plus_uconst 80] [$rbp+0]
	#DEBUG_VALUE: propagateFields:subcycles <- [DW_OP_plus_uconst 88] [$rbp+0]
	xorl	%r12d, %r12d
	cmpl	$2, 256(%r15)
	jge	.LBB3_58
	jmp	.LBB3_59
.Ltmp124:
	.p2align	4, 0x90
.LBB3_53:                               # %L.B1163
                                        #   in Loop: Header=BB3_50 Depth=4
	#DEBUG_VALUE: localSize <- [DW_OP_plus_uconst 264, DW_OP_stack_value] $r15
	#DEBUG_VALUE: subcycleCount <- [DW_OP_constu 232, DW_OP_minus] [$rbp+0]
	#DEBUG_VALUE: subcycleT <- $xmm2
	#DEBUG_VALUE: ....inline.__FILL_CHARARRAY <- [DW_OP_LLVM_convert 32 7, DW_OP_LLVM_convert 8 7, DW_OP_stack_value] 0
	#DEBUG_VALUE: hallTermCommunicateDerivatives <- [DW_OP_constu 120, DW_OP_minus] [$rbp+0]
	#DEBUG_VALUE: technicalGrid <- $r15
	#DEBUG_VALUE: gridDims <- [DW_OP_plus_uconst 264, DW_OP_stack_value] $r15
	#DEBUG_VALUE: propagateFields:perBGrid <- [DW_OP_constu 56, DW_OP_minus] [$rbp+0]
	#DEBUG_VALUE: propagateFields:perBDt2Grid <- [DW_OP_constu 112, DW_OP_minus] [$rbp+0]
	#DEBUG_VALUE: propagateFields:EGrid <- [DW_OP_constu 96, DW_OP_minus] [$rbp+0]
	#DEBUG_VALUE: propagateFields:EDt2Grid <- [DW_OP_constu 128, DW_OP_minus] [$rbp+0]
	#DEBUG_VALUE: propagateFields:EHallGrid <- [DW_OP_constu 88, DW_OP_minus] [$rbp+0]
	#DEBUG_VALUE: propagateFields:EGradPeGrid <- [DW_OP_constu 80, DW_OP_minus] [$rbp+0]
	#DEBUG_VALUE: propagateFields:momentsGrid <- [DW_OP_plus_uconst 16] [$rbp+0]
	#DEBUG_VALUE: propagateFields:momentsDt2Grid <- [DW_OP_plus_uconst 24] [$rbp+0]
	#DEBUG_VALUE: propagateFields:dPerBGrid <- [DW_OP_plus_uconst 32] [$rbp+0]
	#DEBUG_VALUE: propagateFields:dMomentsGrid <- [DW_OP_plus_uconst 40] [$rbp+0]
	#DEBUG_VALUE: propagateFields:BgBGrid <- [DW_OP_plus_uconst 48] [$rbp+0]
	#DEBUG_VALUE: propagateFields:volGrid <- [DW_OP_plus_uconst 56] [$rbp+0]
	#DEBUG_VALUE: propagateFields:technicalGrid <- [DW_OP_plus_uconst 64] [$rbp+0]
	#DEBUG_VALUE: propagateFields:sysBoundaries <- [DW_OP_plus_uconst 72] [$rbp+0]
	#DEBUG_VALUE: propagateFields:dt <- [DW_OP_plus_uconst 80] [$rbp+0]
	#DEBUG_VALUE: propagateFields:subcycles <- [DW_OP_plus_uconst 88] [$rbp+0]
	cltq
	movl	92(%r15,%rax,4), %eax
	cmpl	$-2, %eax
	jne	.LBB3_55
.Ltmp125:
# %bb.54:                               #   in Loop: Header=BB3_50 Depth=4
	#DEBUG_VALUE: localSize <- [DW_OP_plus_uconst 264, DW_OP_stack_value] $r15
	#DEBUG_VALUE: subcycleCount <- [DW_OP_constu 232, DW_OP_minus] [$rbp+0]
	#DEBUG_VALUE: subcycleT <- $xmm2
	#DEBUG_VALUE: ....inline.__FILL_CHARARRAY <- [DW_OP_LLVM_convert 32 7, DW_OP_LLVM_convert 8 7, DW_OP_stack_value] 0
	#DEBUG_VALUE: hallTermCommunicateDerivatives <- [DW_OP_constu 120, DW_OP_minus] [$rbp+0]
	#DEBUG_VALUE: technicalGrid <- $r15
	#DEBUG_VALUE: gridDims <- [DW_OP_plus_uconst 264, DW_OP_stack_value] $r15
	#DEBUG_VALUE: propagateFields:perBGrid <- [DW_OP_constu 56, DW_OP_minus] [$rbp+0]
	#DEBUG_VALUE: propagateFields:perBDt2Grid <- [DW_OP_constu 112, DW_OP_minus] [$rbp+0]
	#DEBUG_VALUE: propagateFields:EGrid <- [DW_OP_constu 96, DW_OP_minus] [$rbp+0]
	#DEBUG_VALUE: propagateFields:EDt2Grid <- [DW_OP_constu 128, DW_OP_minus] [$rbp+0]
	#DEBUG_VALUE: propagateFields:EHallGrid <- [DW_OP_constu 88, DW_OP_minus] [$rbp+0]
	#DEBUG_VALUE: propagateFields:EGradPeGrid <- [DW_OP_constu 80, DW_OP_minus] [$rbp+0]
	#DEBUG_VALUE: propagateFields:momentsGrid <- [DW_OP_plus_uconst 16] [$rbp+0]
	#DEBUG_VALUE: propagateFields:momentsDt2Grid <- [DW_OP_plus_uconst 24] [$rbp+0]
	#DEBUG_VALUE: propagateFields:dPerBGrid <- [DW_OP_plus_uconst 32] [$rbp+0]
	#DEBUG_VALUE: propagateFields:dMomentsGrid <- [DW_OP_plus_uconst 40] [$rbp+0]
	#DEBUG_VALUE: propagateFields:BgBGrid <- [DW_OP_plus_uconst 48] [$rbp+0]
	#DEBUG_VALUE: propagateFields:volGrid <- [DW_OP_plus_uconst 56] [$rbp+0]
	#DEBUG_VALUE: propagateFields:technicalGrid <- [DW_OP_plus_uconst 64] [$rbp+0]
	#DEBUG_VALUE: propagateFields:sysBoundaries <- [DW_OP_plus_uconst 72] [$rbp+0]
	#DEBUG_VALUE: propagateFields:dt <- [DW_OP_plus_uconst 80] [$rbp+0]
	#DEBUG_VALUE: propagateFields:subcycles <- [DW_OP_plus_uconst 88] [$rbp+0]
	xorl	%eax, %eax
	cmpl	$1, (%rax)
	je	.LBB3_48
	jmp	.LBB3_60
.Ltmp126:
	.p2align	4, 0x90
.LBB3_55:                               # %L..inline.65306
                                        #   in Loop: Header=BB3_50 Depth=4
	#DEBUG_VALUE: localSize <- [DW_OP_plus_uconst 264, DW_OP_stack_value] $r15
	#DEBUG_VALUE: subcycleCount <- [DW_OP_constu 232, DW_OP_minus] [$rbp+0]
	#DEBUG_VALUE: subcycleT <- $xmm2
	#DEBUG_VALUE: ....inline.__FILL_CHARARRAY <- [DW_OP_LLVM_convert 32 7, DW_OP_LLVM_convert 8 7, DW_OP_stack_value] 0
	#DEBUG_VALUE: hallTermCommunicateDerivatives <- [DW_OP_constu 120, DW_OP_minus] [$rbp+0]
	#DEBUG_VALUE: technicalGrid <- $r15
	#DEBUG_VALUE: gridDims <- [DW_OP_plus_uconst 264, DW_OP_stack_value] $r15
	#DEBUG_VALUE: propagateFields:perBGrid <- [DW_OP_constu 56, DW_OP_minus] [$rbp+0]
	#DEBUG_VALUE: propagateFields:perBDt2Grid <- [DW_OP_constu 112, DW_OP_minus] [$rbp+0]
	#DEBUG_VALUE: propagateFields:EGrid <- [DW_OP_constu 96, DW_OP_minus] [$rbp+0]
	#DEBUG_VALUE: propagateFields:EDt2Grid <- [DW_OP_constu 128, DW_OP_minus] [$rbp+0]
	#DEBUG_VALUE: propagateFields:EHallGrid <- [DW_OP_constu 88, DW_OP_minus] [$rbp+0]
	#DEBUG_VALUE: propagateFields:EGradPeGrid <- [DW_OP_constu 80, DW_OP_minus] [$rbp+0]
	#DEBUG_VALUE: propagateFields:momentsGrid <- [DW_OP_plus_uconst 16] [$rbp+0]
	#DEBUG_VALUE: propagateFields:momentsDt2Grid <- [DW_OP_plus_uconst 24] [$rbp+0]
	#DEBUG_VALUE: propagateFields:dPerBGrid <- [DW_OP_plus_uconst 32] [$rbp+0]
	#DEBUG_VALUE: propagateFields:dMomentsGrid <- [DW_OP_plus_uconst 40] [$rbp+0]
	#DEBUG_VALUE: propagateFields:BgBGrid <- [DW_OP_plus_uconst 48] [$rbp+0]
	#DEBUG_VALUE: propagateFields:volGrid <- [DW_OP_plus_uconst 56] [$rbp+0]
	#DEBUG_VALUE: propagateFields:technicalGrid <- [DW_OP_plus_uconst 64] [$rbp+0]
	#DEBUG_VALUE: propagateFields:sysBoundaries <- [DW_OP_plus_uconst 72] [$rbp+0]
	#DEBUG_VALUE: propagateFields:dt <- [DW_OP_plus_uconst 80] [$rbp+0]
	#DEBUG_VALUE: propagateFields:subcycles <- [DW_OP_plus_uconst 88] [$rbp+0]
	cmpl	56(%r15), %eax
	jne	.LBB3_51
.Ltmp127:
# %bb.56:                               # %L.B1177
                                        #   in Loop: Header=BB3_50 Depth=4
	#DEBUG_VALUE: localSize <- [DW_OP_plus_uconst 264, DW_OP_stack_value] $r15
	#DEBUG_VALUE: subcycleCount <- [DW_OP_constu 232, DW_OP_minus] [$rbp+0]
	#DEBUG_VALUE: subcycleT <- $xmm2
	#DEBUG_VALUE: ....inline.__FILL_CHARARRAY <- [DW_OP_LLVM_convert 32 7, DW_OP_LLVM_convert 8 7, DW_OP_stack_value] 0
	#DEBUG_VALUE: hallTermCommunicateDerivatives <- [DW_OP_constu 120, DW_OP_minus] [$rbp+0]
	#DEBUG_VALUE: technicalGrid <- $r15
	#DEBUG_VALUE: gridDims <- [DW_OP_plus_uconst 264, DW_OP_stack_value] $r15
	#DEBUG_VALUE: propagateFields:perBGrid <- [DW_OP_constu 56, DW_OP_minus] [$rbp+0]
	#DEBUG_VALUE: propagateFields:perBDt2Grid <- [DW_OP_constu 112, DW_OP_minus] [$rbp+0]
	#DEBUG_VALUE: propagateFields:EGrid <- [DW_OP_constu 96, DW_OP_minus] [$rbp+0]
	#DEBUG_VALUE: propagateFields:EDt2Grid <- [DW_OP_constu 128, DW_OP_minus] [$rbp+0]
	#DEBUG_VALUE: propagateFields:EHallGrid <- [DW_OP_constu 88, DW_OP_minus] [$rbp+0]
	#DEBUG_VALUE: propagateFields:EGradPeGrid <- [DW_OP_constu 80, DW_OP_minus] [$rbp+0]
	#DEBUG_VALUE: propagateFields:momentsGrid <- [DW_OP_plus_uconst 16] [$rbp+0]
	#DEBUG_VALUE: propagateFields:momentsDt2Grid <- [DW_OP_plus_uconst 24] [$rbp+0]
	#DEBUG_VALUE: propagateFields:dPerBGrid <- [DW_OP_plus_uconst 32] [$rbp+0]
	#DEBUG_VALUE: propagateFields:dMomentsGrid <- [DW_OP_plus_uconst 40] [$rbp+0]
	#DEBUG_VALUE: propagateFields:BgBGrid <- [DW_OP_plus_uconst 48] [$rbp+0]
	#DEBUG_VALUE: propagateFields:volGrid <- [DW_OP_plus_uconst 56] [$rbp+0]
	#DEBUG_VALUE: propagateFields:technicalGrid <- [DW_OP_plus_uconst 64] [$rbp+0]
	#DEBUG_VALUE: propagateFields:sysBoundaries <- [DW_OP_plus_uconst 72] [$rbp+0]
	#DEBUG_VALUE: propagateFields:dt <- [DW_OP_plus_uconst 80] [$rbp+0]
	#DEBUG_VALUE: propagateFields:subcycles <- [DW_OP_plus_uconst 88] [$rbp+0]
	imull	%esi, %edx
	addl	%ebx, %edx
	movl	%r9d, %eax
	movl	%r10d, %ecx
	cmpl	$2, 260(%r15)
	jl	.LBB3_52
.Ltmp128:
	.p2align	4, 0x90
.LBB3_57:                               # %L.B1178
                                        #   in Loop: Header=BB3_50 Depth=4
	#DEBUG_VALUE: localSize <- [DW_OP_plus_uconst 264, DW_OP_stack_value] $r15
	#DEBUG_VALUE: subcycleCount <- [DW_OP_constu 232, DW_OP_minus] [$rbp+0]
	#DEBUG_VALUE: subcycleT <- $xmm2
	#DEBUG_VALUE: ....inline.__FILL_CHARARRAY <- [DW_OP_LLVM_convert 32 7, DW_OP_LLVM_convert 8 7, DW_OP_stack_value] 0
	#DEBUG_VALUE: hallTermCommunicateDerivatives <- [DW_OP_constu 120, DW_OP_minus] [$rbp+0]
	#DEBUG_VALUE: technicalGrid <- $r15
	#DEBUG_VALUE: gridDims <- [DW_OP_plus_uconst 264, DW_OP_stack_value] $r15
	#DEBUG_VALUE: propagateFields:perBGrid <- [DW_OP_constu 56, DW_OP_minus] [$rbp+0]
	#DEBUG_VALUE: propagateFields:perBDt2Grid <- [DW_OP_constu 112, DW_OP_minus] [$rbp+0]
	#DEBUG_VALUE: propagateFields:EGrid <- [DW_OP_constu 96, DW_OP_minus] [$rbp+0]
	#DEBUG_VALUE: propagateFields:EDt2Grid <- [DW_OP_constu 128, DW_OP_minus] [$rbp+0]
	#DEBUG_VALUE: propagateFields:EHallGrid <- [DW_OP_constu 88, DW_OP_minus] [$rbp+0]
	#DEBUG_VALUE: propagateFields:EGradPeGrid <- [DW_OP_constu 80, DW_OP_minus] [$rbp+0]
	#DEBUG_VALUE: propagateFields:momentsGrid <- [DW_OP_plus_uconst 16] [$rbp+0]
	#DEBUG_VALUE: propagateFields:momentsDt2Grid <- [DW_OP_plus_uconst 24] [$rbp+0]
	#DEBUG_VALUE: propagateFields:dPerBGrid <- [DW_OP_plus_uconst 32] [$rbp+0]
	#DEBUG_VALUE: propagateFields:dMomentsGrid <- [DW_OP_plus_uconst 40] [$rbp+0]
	#DEBUG_VALUE: propagateFields:BgBGrid <- [DW_OP_plus_uconst 48] [$rbp+0]
	#DEBUG_VALUE: propagateFields:volGrid <- [DW_OP_plus_uconst 56] [$rbp+0]
	#DEBUG_VALUE: propagateFields:technicalGrid <- [DW_OP_plus_uconst 64] [$rbp+0]
	#DEBUG_VALUE: propagateFields:sysBoundaries <- [DW_OP_plus_uconst 72] [$rbp+0]
	#DEBUG_VALUE: propagateFields:dt <- [DW_OP_plus_uconst 80] [$rbp+0]
	#DEBUG_VALUE: propagateFields:subcycles <- [DW_OP_plus_uconst 88] [$rbp+0]
	addl	$2, %eax
	imull	280(%r15), %eax
	imull	276(%r15), %eax
	movslq	%eax, %r12
	cmpl	$2, 256(%r15)
	jl	.LBB3_59
.Ltmp129:
.LBB3_58:                               # %L.B1179
                                        #   in Loop: Header=BB3_50 Depth=4
	#DEBUG_VALUE: localSize <- [DW_OP_plus_uconst 264, DW_OP_stack_value] $r15
	#DEBUG_VALUE: subcycleCount <- [DW_OP_constu 232, DW_OP_minus] [$rbp+0]
	#DEBUG_VALUE: subcycleT <- $xmm2
	#DEBUG_VALUE: ....inline.__FILL_CHARARRAY <- [DW_OP_LLVM_convert 32 7, DW_OP_LLVM_convert 8 7, DW_OP_stack_value] 0
	#DEBUG_VALUE: hallTermCommunicateDerivatives <- [DW_OP_constu 120, DW_OP_minus] [$rbp+0]
	#DEBUG_VALUE: technicalGrid <- $r15
	#DEBUG_VALUE: gridDims <- [DW_OP_plus_uconst 264, DW_OP_stack_value] $r15
	#DEBUG_VALUE: propagateFields:perBGrid <- [DW_OP_constu 56, DW_OP_minus] [$rbp+0]
	#DEBUG_VALUE: propagateFields:perBDt2Grid <- [DW_OP_constu 112, DW_OP_minus] [$rbp+0]
	#DEBUG_VALUE: propagateFields:EGrid <- [DW_OP_constu 96, DW_OP_minus] [$rbp+0]
	#DEBUG_VALUE: propagateFields:EDt2Grid <- [DW_OP_constu 128, DW_OP_minus] [$rbp+0]
	#DEBUG_VALUE: propagateFields:EHallGrid <- [DW_OP_constu 88, DW_OP_minus] [$rbp+0]
	#DEBUG_VALUE: propagateFields:EGradPeGrid <- [DW_OP_constu 80, DW_OP_minus] [$rbp+0]
	#DEBUG_VALUE: propagateFields:momentsGrid <- [DW_OP_plus_uconst 16] [$rbp+0]
	#DEBUG_VALUE: propagateFields:momentsDt2Grid <- [DW_OP_plus_uconst 24] [$rbp+0]
	#DEBUG_VALUE: propagateFields:dPerBGrid <- [DW_OP_plus_uconst 32] [$rbp+0]
	#DEBUG_VALUE: propagateFields:dMomentsGrid <- [DW_OP_plus_uconst 40] [$rbp+0]
	#DEBUG_VALUE: propagateFields:BgBGrid <- [DW_OP_plus_uconst 48] [$rbp+0]
	#DEBUG_VALUE: propagateFields:volGrid <- [DW_OP_plus_uconst 56] [$rbp+0]
	#DEBUG_VALUE: propagateFields:technicalGrid <- [DW_OP_plus_uconst 64] [$rbp+0]
	#DEBUG_VALUE: propagateFields:sysBoundaries <- [DW_OP_plus_uconst 72] [$rbp+0]
	#DEBUG_VALUE: propagateFields:dt <- [DW_OP_plus_uconst 80] [$rbp+0]
	#DEBUG_VALUE: propagateFields:subcycles <- [DW_OP_plus_uconst 88] [$rbp+0]
	addl	$2, %ecx
	imull	276(%r15), %ecx
	movslq	%ecx, %rax
	addq	%rax, %r12
.Ltmp130:
.LBB3_59:                               # %L..inline.65447
                                        #   in Loop: Header=BB3_50 Depth=4
	#DEBUG_VALUE: localSize <- [DW_OP_plus_uconst 264, DW_OP_stack_value] $r15
	#DEBUG_VALUE: subcycleCount <- [DW_OP_constu 232, DW_OP_minus] [$rbp+0]
	#DEBUG_VALUE: subcycleT <- $xmm2
	#DEBUG_VALUE: ....inline.__FILL_CHARARRAY <- [DW_OP_LLVM_convert 32 7, DW_OP_LLVM_convert 8 7, DW_OP_stack_value] 0
	#DEBUG_VALUE: hallTermCommunicateDerivatives <- [DW_OP_constu 120, DW_OP_minus] [$rbp+0]
	#DEBUG_VALUE: technicalGrid <- $r15
	#DEBUG_VALUE: gridDims <- [DW_OP_plus_uconst 264, DW_OP_stack_value] $r15
	#DEBUG_VALUE: propagateFields:perBGrid <- [DW_OP_constu 56, DW_OP_minus] [$rbp+0]
	#DEBUG_VALUE: propagateFields:perBDt2Grid <- [DW_OP_constu 112, DW_OP_minus] [$rbp+0]
	#DEBUG_VALUE: propagateFields:EGrid <- [DW_OP_constu 96, DW_OP_minus] [$rbp+0]
	#DEBUG_VALUE: propagateFields:EDt2Grid <- [DW_OP_constu 128, DW_OP_minus] [$rbp+0]
	#DEBUG_VALUE: propagateFields:EHallGrid <- [DW_OP_constu 88, DW_OP_minus] [$rbp+0]
	#DEBUG_VALUE: propagateFields:EGradPeGrid <- [DW_OP_constu 80, DW_OP_minus] [$rbp+0]
	#DEBUG_VALUE: propagateFields:momentsGrid <- [DW_OP_plus_uconst 16] [$rbp+0]
	#DEBUG_VALUE: propagateFields:momentsDt2Grid <- [DW_OP_plus_uconst 24] [$rbp+0]
	#DEBUG_VALUE: propagateFields:dPerBGrid <- [DW_OP_plus_uconst 32] [$rbp+0]
	#DEBUG_VALUE: propagateFields:dMomentsGrid <- [DW_OP_plus_uconst 40] [$rbp+0]
	#DEBUG_VALUE: propagateFields:BgBGrid <- [DW_OP_plus_uconst 48] [$rbp+0]
	#DEBUG_VALUE: propagateFields:volGrid <- [DW_OP_plus_uconst 56] [$rbp+0]
	#DEBUG_VALUE: propagateFields:technicalGrid <- [DW_OP_plus_uconst 64] [$rbp+0]
	#DEBUG_VALUE: propagateFields:sysBoundaries <- [DW_OP_plus_uconst 72] [$rbp+0]
	#DEBUG_VALUE: propagateFields:dt <- [DW_OP_plus_uconst 80] [$rbp+0]
	#DEBUG_VALUE: propagateFields:subcycles <- [DW_OP_plus_uconst 88] [$rbp+0]
	movslq	%edx, %rcx
	addq	$2, %rcx
	cmpl	$2, 252(%r15)
	movl	$0, %eax
	cmovgeq	%rcx, %rax
	addq	%r12, %rax
	shlq	$5, %rax
	addq	744(%r15), %rax
	cmpl	$1, (%rax)
	je	.LBB3_48
.Ltmp131:
.LBB3_60:                               # %L.B1180
                                        #   in Loop: Header=BB3_50 Depth=4
	#DEBUG_VALUE: localSize <- [DW_OP_plus_uconst 264, DW_OP_stack_value] $r15
	#DEBUG_VALUE: subcycleCount <- [DW_OP_constu 232, DW_OP_minus] [$rbp+0]
	#DEBUG_VALUE: subcycleT <- $xmm2
	#DEBUG_VALUE: ....inline.__FILL_CHARARRAY <- [DW_OP_LLVM_convert 32 7, DW_OP_LLVM_convert 8 7, DW_OP_stack_value] 0
	#DEBUG_VALUE: hallTermCommunicateDerivatives <- [DW_OP_constu 120, DW_OP_minus] [$rbp+0]
	#DEBUG_VALUE: technicalGrid <- $r15
	#DEBUG_VALUE: gridDims <- [DW_OP_plus_uconst 264, DW_OP_stack_value] $r15
	#DEBUG_VALUE: propagateFields:perBGrid <- [DW_OP_constu 56, DW_OP_minus] [$rbp+0]
	#DEBUG_VALUE: propagateFields:perBDt2Grid <- [DW_OP_constu 112, DW_OP_minus] [$rbp+0]
	#DEBUG_VALUE: propagateFields:EGrid <- [DW_OP_constu 96, DW_OP_minus] [$rbp+0]
	#DEBUG_VALUE: propagateFields:EDt2Grid <- [DW_OP_constu 128, DW_OP_minus] [$rbp+0]
	#DEBUG_VALUE: propagateFields:EHallGrid <- [DW_OP_constu 88, DW_OP_minus] [$rbp+0]
	#DEBUG_VALUE: propagateFields:EGradPeGrid <- [DW_OP_constu 80, DW_OP_minus] [$rbp+0]
	#DEBUG_VALUE: propagateFields:momentsGrid <- [DW_OP_plus_uconst 16] [$rbp+0]
	#DEBUG_VALUE: propagateFields:momentsDt2Grid <- [DW_OP_plus_uconst 24] [$rbp+0]
	#DEBUG_VALUE: propagateFields:dPerBGrid <- [DW_OP_plus_uconst 32] [$rbp+0]
	#DEBUG_VALUE: propagateFields:dMomentsGrid <- [DW_OP_plus_uconst 40] [$rbp+0]
	#DEBUG_VALUE: propagateFields:BgBGrid <- [DW_OP_plus_uconst 48] [$rbp+0]
	#DEBUG_VALUE: propagateFields:volGrid <- [DW_OP_plus_uconst 56] [$rbp+0]
	#DEBUG_VALUE: propagateFields:technicalGrid <- [DW_OP_plus_uconst 64] [$rbp+0]
	#DEBUG_VALUE: propagateFields:sysBoundaries <- [DW_OP_plus_uconst 72] [$rbp+0]
	#DEBUG_VALUE: propagateFields:dt <- [DW_OP_plus_uconst 80] [$rbp+0]
	#DEBUG_VALUE: propagateFields:subcycles <- [DW_OP_plus_uconst 88] [$rbp+0]
	cmpl	$1, 4(%rax)
	je	.LBB3_48
	jmp	.LBB3_49
.Ltmp132:
	.p2align	4, 0x90
.LBB3_61:                               # %L.B1183
                                        #   in Loop: Header=BB3_23 Depth=1
	#DEBUG_VALUE: localSize <- [DW_OP_plus_uconst 264, DW_OP_stack_value] $r15
	#DEBUG_VALUE: subcycleCount <- [DW_OP_constu 232, DW_OP_minus] [$rbp+0]
	#DEBUG_VALUE: subcycleT <- $xmm2
	#DEBUG_VALUE: ....inline.__FILL_CHARARRAY <- [DW_OP_LLVM_convert 32 7, DW_OP_LLVM_convert 8 7, DW_OP_stack_value] 0
	#DEBUG_VALUE: hallTermCommunicateDerivatives <- [DW_OP_constu 120, DW_OP_minus] [$rbp+0]
	#DEBUG_VALUE: technicalGrid <- $r15
	#DEBUG_VALUE: gridDims <- [DW_OP_plus_uconst 264, DW_OP_stack_value] $r15
	#DEBUG_VALUE: propagateFields:perBGrid <- [DW_OP_constu 56, DW_OP_minus] [$rbp+0]
	#DEBUG_VALUE: propagateFields:perBDt2Grid <- [DW_OP_constu 112, DW_OP_minus] [$rbp+0]
	#DEBUG_VALUE: propagateFields:EGrid <- [DW_OP_constu 96, DW_OP_minus] [$rbp+0]
	#DEBUG_VALUE: propagateFields:EDt2Grid <- [DW_OP_constu 128, DW_OP_minus] [$rbp+0]
	#DEBUG_VALUE: propagateFields:EHallGrid <- [DW_OP_constu 88, DW_OP_minus] [$rbp+0]
	#DEBUG_VALUE: propagateFields:EGradPeGrid <- [DW_OP_constu 80, DW_OP_minus] [$rbp+0]
	#DEBUG_VALUE: propagateFields:momentsGrid <- [DW_OP_plus_uconst 16] [$rbp+0]
	#DEBUG_VALUE: propagateFields:momentsDt2Grid <- [DW_OP_plus_uconst 24] [$rbp+0]
	#DEBUG_VALUE: propagateFields:dPerBGrid <- [DW_OP_plus_uconst 32] [$rbp+0]
	#DEBUG_VALUE: propagateFields:dMomentsGrid <- [DW_OP_plus_uconst 40] [$rbp+0]
	#DEBUG_VALUE: propagateFields:BgBGrid <- [DW_OP_plus_uconst 48] [$rbp+0]
	#DEBUG_VALUE: propagateFields:volGrid <- [DW_OP_plus_uconst 56] [$rbp+0]
	#DEBUG_VALUE: propagateFields:technicalGrid <- [DW_OP_plus_uconst 64] [$rbp+0]
	#DEBUG_VALUE: propagateFields:sysBoundaries <- [DW_OP_plus_uconst 72] [$rbp+0]
	#DEBUG_VALUE: propagateFields:dt <- [DW_OP_plus_uconst 80] [$rbp+0]
	#DEBUG_VALUE: propagateFields:subcycles <- [DW_OP_plus_uconst 88] [$rbp+0]
	.loc	1 0 1                   # fieldsolver/ldz_main.cpp:0:1
	leaq	-168(%rbp), %rbx
	.loc	1 527 1 is_stmt 1       # fieldsolver/ldz_main.cpp:527:1
	movq	%rbx, -184(%rbp)
.Ltmp133:
	#DEBUG_VALUE: _M_construct:_T32372840_51851 <- undef
	#DEBUG_VALUE: ....inline.__FILL_CHARARRAY <- [DW_OP_LLVM_convert 32 7, DW_OP_LLVM_convert 8 7, DW_OP_stack_value] 0
	.loc	3 398 1                 # /usr/include/c++/9/bits/basic_string.tcc:398:1
	movabsq	$7305812094584253548, %rax # imm = 0x6563756465726C6C
.Ltmp134:
	#DEBUG_VALUE: __dnew <- 13
	#DEBUG_VALUE:  <- [DW_OP_constu 184, DW_OP_minus, DW_OP_stack_value] $rbp
	#DEBUG_VALUE: _M_construct: <- [DW_OP_constu 184, DW_OP_minus, DW_OP_stack_value] $rbp
	movq	%rax, 5(%rbx)
	movabsq	$8245084045835849805, %rax # imm = 0x726C6C415F49504D
	movq	%rax, (%rbx)
.Ltmp135:
	#DEBUG_VALUE: __beg <- undef
	#DEBUG_VALUE: _M_construct:__beg <- undef
	.loc	3 216 1                 # /usr/include/c++/9/bits/basic_string.tcc:216:1
	movq	$13, -176(%rbp)
	.loc	3 217 1                 # /usr/include/c++/9/bits/basic_string.tcc:217:1
	movb	$0, -155(%rbp)
.Ltmp12:
	.cfi_escape 0x2e, 0x00
	leaq	-184(%rbp), %r13
.Ltmp136:
	.loc	1 375 1                 # fieldsolver/ldz_main.cpp:375:1
	movq	%r13, %rdi
	callq	_ZN7phiprof5startERKNSt7__cxx1112basic_stringIcSt11char_traitsIcESaIcEEE
.Ltmp137:
.Ltmp13:
# %bb.62:                               # %L.B1184
                                        #   in Loop: Header=BB3_23 Depth=1
	#DEBUG_VALUE: ....inline.__FILL_CHARARRAY <- [DW_OP_LLVM_convert 32 7, DW_OP_LLVM_convert 8 7, DW_OP_stack_value] 0
	#DEBUG_VALUE: hallTermCommunicateDerivatives <- [DW_OP_constu 120, DW_OP_minus] [$rbp+0]
	#DEBUG_VALUE: technicalGrid <- $r15
	#DEBUG_VALUE: gridDims <- [DW_OP_plus_uconst 264, DW_OP_stack_value] $r15
	#DEBUG_VALUE: propagateFields:perBGrid <- [DW_OP_constu 56, DW_OP_minus] [$rbp+0]
	#DEBUG_VALUE: propagateFields:perBDt2Grid <- [DW_OP_constu 112, DW_OP_minus] [$rbp+0]
	#DEBUG_VALUE: propagateFields:EGrid <- [DW_OP_constu 96, DW_OP_minus] [$rbp+0]
	#DEBUG_VALUE: propagateFields:EDt2Grid <- [DW_OP_constu 128, DW_OP_minus] [$rbp+0]
	#DEBUG_VALUE: propagateFields:EHallGrid <- [DW_OP_constu 88, DW_OP_minus] [$rbp+0]
	#DEBUG_VALUE: propagateFields:EGradPeGrid <- [DW_OP_constu 80, DW_OP_minus] [$rbp+0]
	#DEBUG_VALUE: propagateFields:momentsGrid <- [DW_OP_plus_uconst 16] [$rbp+0]
	#DEBUG_VALUE: propagateFields:momentsDt2Grid <- [DW_OP_plus_uconst 24] [$rbp+0]
	#DEBUG_VALUE: propagateFields:dPerBGrid <- [DW_OP_plus_uconst 32] [$rbp+0]
	#DEBUG_VALUE: propagateFields:dMomentsGrid <- [DW_OP_plus_uconst 40] [$rbp+0]
	#DEBUG_VALUE: propagateFields:BgBGrid <- [DW_OP_plus_uconst 48] [$rbp+0]
	#DEBUG_VALUE: propagateFields:volGrid <- [DW_OP_plus_uconst 56] [$rbp+0]
	#DEBUG_VALUE: propagateFields:technicalGrid <- [DW_OP_plus_uconst 64] [$rbp+0]
	#DEBUG_VALUE: propagateFields:sysBoundaries <- [DW_OP_plus_uconst 72] [$rbp+0]
	#DEBUG_VALUE: propagateFields:dt <- [DW_OP_plus_uconst 80] [$rbp+0]
	#DEBUG_VALUE: propagateFields:subcycles <- [DW_OP_plus_uconst 88] [$rbp+0]
	.loc	1 658 1                 # fieldsolver/ldz_main.cpp:658:1
	movq	-184(%rbp), %rdi
	cmpq	%rbx, %rdi
	leaq	-208(%rbp), %r12
	je	.LBB3_64
.Ltmp138:
# %bb.63:                               # %L.B1185
                                        #   in Loop: Header=BB3_23 Depth=1
	#DEBUG_VALUE: ....inline.__FILL_CHARARRAY <- [DW_OP_LLVM_convert 32 7, DW_OP_LLVM_convert 8 7, DW_OP_stack_value] 0
	#DEBUG_VALUE: hallTermCommunicateDerivatives <- [DW_OP_constu 120, DW_OP_minus] [$rbp+0]
	#DEBUG_VALUE: technicalGrid <- $r15
	#DEBUG_VALUE: gridDims <- [DW_OP_plus_uconst 264, DW_OP_stack_value] $r15
	#DEBUG_VALUE: propagateFields:perBGrid <- [DW_OP_constu 56, DW_OP_minus] [$rbp+0]
	#DEBUG_VALUE: propagateFields:perBDt2Grid <- [DW_OP_constu 112, DW_OP_minus] [$rbp+0]
	#DEBUG_VALUE: propagateFields:EGrid <- [DW_OP_constu 96, DW_OP_minus] [$rbp+0]
	#DEBUG_VALUE: propagateFields:EDt2Grid <- [DW_OP_constu 128, DW_OP_minus] [$rbp+0]
	#DEBUG_VALUE: propagateFields:EHallGrid <- [DW_OP_constu 88, DW_OP_minus] [$rbp+0]
	#DEBUG_VALUE: propagateFields:EGradPeGrid <- [DW_OP_constu 80, DW_OP_minus] [$rbp+0]
	#DEBUG_VALUE: propagateFields:momentsGrid <- [DW_OP_plus_uconst 16] [$rbp+0]
	#DEBUG_VALUE: propagateFields:momentsDt2Grid <- [DW_OP_plus_uconst 24] [$rbp+0]
	#DEBUG_VALUE: propagateFields:dPerBGrid <- [DW_OP_plus_uconst 32] [$rbp+0]
	#DEBUG_VALUE: propagateFields:dMomentsGrid <- [DW_OP_plus_uconst 40] [$rbp+0]
	#DEBUG_VALUE: propagateFields:BgBGrid <- [DW_OP_plus_uconst 48] [$rbp+0]
	#DEBUG_VALUE: propagateFields:volGrid <- [DW_OP_plus_uconst 56] [$rbp+0]
	#DEBUG_VALUE: propagateFields:technicalGrid <- [DW_OP_plus_uconst 64] [$rbp+0]
	#DEBUG_VALUE: propagateFields:sysBoundaries <- [DW_OP_plus_uconst 72] [$rbp+0]
	#DEBUG_VALUE: propagateFields:dt <- [DW_OP_plus_uconst 80] [$rbp+0]
	#DEBUG_VALUE: propagateFields:subcycles <- [DW_OP_plus_uconst 88] [$rbp+0]
	.cfi_escape 0x2e, 0x00
	callq	_ZdlPv
.Ltmp139:
.LBB3_64:                               # %L.B1189
                                        #   in Loop: Header=BB3_23 Depth=1
	#DEBUG_VALUE: ....inline.__FILL_CHARARRAY <- [DW_OP_LLVM_convert 32 7, DW_OP_LLVM_convert 8 7, DW_OP_stack_value] 0
	#DEBUG_VALUE: hallTermCommunicateDerivatives <- [DW_OP_constu 120, DW_OP_minus] [$rbp+0]
	#DEBUG_VALUE: technicalGrid <- $r15
	#DEBUG_VALUE: gridDims <- [DW_OP_plus_uconst 264, DW_OP_stack_value] $r15
	#DEBUG_VALUE: propagateFields:perBGrid <- [DW_OP_constu 56, DW_OP_minus] [$rbp+0]
	#DEBUG_VALUE: propagateFields:perBDt2Grid <- [DW_OP_constu 112, DW_OP_minus] [$rbp+0]
	#DEBUG_VALUE: propagateFields:EGrid <- [DW_OP_constu 96, DW_OP_minus] [$rbp+0]
	#DEBUG_VALUE: propagateFields:EDt2Grid <- [DW_OP_constu 128, DW_OP_minus] [$rbp+0]
	#DEBUG_VALUE: propagateFields:EHallGrid <- [DW_OP_constu 88, DW_OP_minus] [$rbp+0]
	#DEBUG_VALUE: propagateFields:EGradPeGrid <- [DW_OP_constu 80, DW_OP_minus] [$rbp+0]
	#DEBUG_VALUE: propagateFields:momentsGrid <- [DW_OP_plus_uconst 16] [$rbp+0]
	#DEBUG_VALUE: propagateFields:momentsDt2Grid <- [DW_OP_plus_uconst 24] [$rbp+0]
	#DEBUG_VALUE: propagateFields:dPerBGrid <- [DW_OP_plus_uconst 32] [$rbp+0]
	#DEBUG_VALUE: propagateFields:dMomentsGrid <- [DW_OP_plus_uconst 40] [$rbp+0]
	#DEBUG_VALUE: propagateFields:BgBGrid <- [DW_OP_plus_uconst 48] [$rbp+0]
	#DEBUG_VALUE: propagateFields:volGrid <- [DW_OP_plus_uconst 56] [$rbp+0]
	#DEBUG_VALUE: propagateFields:technicalGrid <- [DW_OP_plus_uconst 64] [$rbp+0]
	#DEBUG_VALUE: propagateFields:sysBoundaries <- [DW_OP_plus_uconst 72] [$rbp+0]
	#DEBUG_VALUE: propagateFields:dt <- [DW_OP_plus_uconst 80] [$rbp+0]
	#DEBUG_VALUE: propagateFields:subcycles <- [DW_OP_plus_uconst 88] [$rbp+0]
	.loc	1 880 1                 # fieldsolver/ldz_main.cpp:880:1
	movq	48(%r15), %r9
	.cfi_escape 0x2e, 0x00
	movl	$ompi_mpi_double, %ecx
	movl	$ompi_mpi_op_min, %r8d
	leaq	-288(%rbp), %rdi
	leaq	-280(%rbp), %rsi
	movl	$1, %edx
	callq	MPI_Allreduce
	.loc	1 527 1                 # fieldsolver/ldz_main.cpp:527:1
	movq	%rbx, -184(%rbp)
.Ltmp140:
	#DEBUG_VALUE: _M_construct:_T32372840_51851 <- undef
	#DEBUG_VALUE: ....inline.__FILL_CHARARRAY <- [DW_OP_LLVM_convert 32 7, DW_OP_LLVM_convert 8 7, DW_OP_stack_value] 0
	.loc	3 398 1                 # /usr/include/c++/9/bits/basic_string.tcc:398:1
	movabsq	$8245084045835849805, %rax # imm = 0x726C6C415F49504D
.Ltmp141:
	#DEBUG_VALUE: __dnew <- 13
	#DEBUG_VALUE:  <- [DW_OP_constu 184, DW_OP_minus, DW_OP_stack_value] $rbp
	#DEBUG_VALUE: _M_construct: <- [DW_OP_constu 184, DW_OP_minus, DW_OP_stack_value] $rbp
	movq	%rax, (%rbx)
	movabsq	$7305812094584253548, %rax # imm = 0x6563756465726C6C
	movq	%rax, 5(%rbx)
.Ltmp142:
	#DEBUG_VALUE: __beg <- undef
	#DEBUG_VALUE: _M_construct:__beg <- undef
	.loc	3 216 1                 # /usr/include/c++/9/bits/basic_string.tcc:216:1
	movq	$13, -176(%rbp)
	.loc	3 217 1                 # /usr/include/c++/9/bits/basic_string.tcc:217:1
	movb	$0, -155(%rbp)
.Ltmp143:
	.loc	1 527 1                 # fieldsolver/ldz_main.cpp:527:1
	movq	%r12, -224(%rbp)
.Ltmp144:
	#DEBUG_VALUE: __dnew <- 0
	#DEBUG_VALUE: _M_construct:_T32372840_51851 <- undef
	#DEBUG_VALUE:  <- [DW_OP_constu 224, DW_OP_minus, DW_OP_stack_value] $rbp
	#DEBUG_VALUE: _M_construct: <- [DW_OP_constu 224, DW_OP_minus, DW_OP_stack_value] $rbp
	.loc	3 216 1                 # /usr/include/c++/9/bits/basic_string.tcc:216:1
	movq	$0, -216(%rbp)
	.loc	3 217 1                 # /usr/include/c++/9/bits/basic_string.tcc:217:1
	movb	$0, -208(%rbp)
.Ltmp145:
.Ltmp15:
	#DEBUG_VALUE: dtMaxGlobal <- [DW_OP_constu 280, DW_OP_minus, DW_OP_deref] $rbp
	#DEBUG_VALUE: dtMaxLocal <- [DW_OP_constu 288, DW_OP_minus, DW_OP_deref] $rbp
	.cfi_escape 0x2e, 0x00
	.loc	1 377 1                 # fieldsolver/ldz_main.cpp:377:1
	movq	%r13, %rdi
	vmovsd	.LCPI3_1(%rip), %xmm0   # xmm0 = mem[0],zero
	leaq	-224(%rbp), %rsi
	callq	_ZN7phiprof4stopERKNSt7__cxx1112basic_stringIcSt11char_traitsIcESaIcEEEdS7_
.Ltmp16:
.Ltmp146:
# %bb.65:                               # %L.B1190
                                        #   in Loop: Header=BB3_23 Depth=1
	#DEBUG_VALUE: ....inline.__FILL_CHARARRAY <- [DW_OP_LLVM_convert 32 7, DW_OP_LLVM_convert 8 7, DW_OP_stack_value] 0
	#DEBUG_VALUE: hallTermCommunicateDerivatives <- [DW_OP_constu 120, DW_OP_minus] [$rbp+0]
	#DEBUG_VALUE: technicalGrid <- $r15
	#DEBUG_VALUE: gridDims <- [DW_OP_plus_uconst 264, DW_OP_stack_value] $r15
	#DEBUG_VALUE: propagateFields:perBGrid <- [DW_OP_constu 56, DW_OP_minus] [$rbp+0]
	#DEBUG_VALUE: propagateFields:perBDt2Grid <- [DW_OP_constu 112, DW_OP_minus] [$rbp+0]
	#DEBUG_VALUE: propagateFields:EGrid <- [DW_OP_constu 96, DW_OP_minus] [$rbp+0]
	#DEBUG_VALUE: propagateFields:EDt2Grid <- [DW_OP_constu 128, DW_OP_minus] [$rbp+0]
	#DEBUG_VALUE: propagateFields:EHallGrid <- [DW_OP_constu 88, DW_OP_minus] [$rbp+0]
	#DEBUG_VALUE: propagateFields:EGradPeGrid <- [DW_OP_constu 80, DW_OP_minus] [$rbp+0]
	#DEBUG_VALUE: propagateFields:momentsGrid <- [DW_OP_plus_uconst 16] [$rbp+0]
	#DEBUG_VALUE: propagateFields:momentsDt2Grid <- [DW_OP_plus_uconst 24] [$rbp+0]
	#DEBUG_VALUE: propagateFields:dPerBGrid <- [DW_OP_plus_uconst 32] [$rbp+0]
	#DEBUG_VALUE: propagateFields:dMomentsGrid <- [DW_OP_plus_uconst 40] [$rbp+0]
	#DEBUG_VALUE: propagateFields:BgBGrid <- [DW_OP_plus_uconst 48] [$rbp+0]
	#DEBUG_VALUE: propagateFields:volGrid <- [DW_OP_plus_uconst 56] [$rbp+0]
	#DEBUG_VALUE: propagateFields:technicalGrid <- [DW_OP_plus_uconst 64] [$rbp+0]
	#DEBUG_VALUE: propagateFields:sysBoundaries <- [DW_OP_plus_uconst 72] [$rbp+0]
	#DEBUG_VALUE: propagateFields:dt <- [DW_OP_plus_uconst 80] [$rbp+0]
	#DEBUG_VALUE: propagateFields:subcycles <- [DW_OP_plus_uconst 88] [$rbp+0]
	.loc	1 658 1                 # fieldsolver/ldz_main.cpp:658:1
	movq	-224(%rbp), %rdi
	cmpq	%r12, %rdi
	je	.LBB3_67
.Ltmp147:
# %bb.66:                               # %L.B1191
                                        #   in Loop: Header=BB3_23 Depth=1
	#DEBUG_VALUE: ....inline.__FILL_CHARARRAY <- [DW_OP_LLVM_convert 32 7, DW_OP_LLVM_convert 8 7, DW_OP_stack_value] 0
	#DEBUG_VALUE: hallTermCommunicateDerivatives <- [DW_OP_constu 120, DW_OP_minus] [$rbp+0]
	#DEBUG_VALUE: technicalGrid <- $r15
	#DEBUG_VALUE: gridDims <- [DW_OP_plus_uconst 264, DW_OP_stack_value] $r15
	#DEBUG_VALUE: propagateFields:perBGrid <- [DW_OP_constu 56, DW_OP_minus] [$rbp+0]
	#DEBUG_VALUE: propagateFields:perBDt2Grid <- [DW_OP_constu 112, DW_OP_minus] [$rbp+0]
	#DEBUG_VALUE: propagateFields:EGrid <- [DW_OP_constu 96, DW_OP_minus] [$rbp+0]
	#DEBUG_VALUE: propagateFields:EDt2Grid <- [DW_OP_constu 128, DW_OP_minus] [$rbp+0]
	#DEBUG_VALUE: propagateFields:EHallGrid <- [DW_OP_constu 88, DW_OP_minus] [$rbp+0]
	#DEBUG_VALUE: propagateFields:EGradPeGrid <- [DW_OP_constu 80, DW_OP_minus] [$rbp+0]
	#DEBUG_VALUE: propagateFields:momentsGrid <- [DW_OP_plus_uconst 16] [$rbp+0]
	#DEBUG_VALUE: propagateFields:momentsDt2Grid <- [DW_OP_plus_uconst 24] [$rbp+0]
	#DEBUG_VALUE: propagateFields:dPerBGrid <- [DW_OP_plus_uconst 32] [$rbp+0]
	#DEBUG_VALUE: propagateFields:dMomentsGrid <- [DW_OP_plus_uconst 40] [$rbp+0]
	#DEBUG_VALUE: propagateFields:BgBGrid <- [DW_OP_plus_uconst 48] [$rbp+0]
	#DEBUG_VALUE: propagateFields:volGrid <- [DW_OP_plus_uconst 56] [$rbp+0]
	#DEBUG_VALUE: propagateFields:technicalGrid <- [DW_OP_plus_uconst 64] [$rbp+0]
	#DEBUG_VALUE: propagateFields:sysBoundaries <- [DW_OP_plus_uconst 72] [$rbp+0]
	#DEBUG_VALUE: propagateFields:dt <- [DW_OP_plus_uconst 80] [$rbp+0]
	#DEBUG_VALUE: propagateFields:subcycles <- [DW_OP_plus_uconst 88] [$rbp+0]
	.cfi_escape 0x2e, 0x00
	callq	_ZdlPv
.Ltmp148:
.LBB3_67:                               # %L..inline.65870
                                        #   in Loop: Header=BB3_23 Depth=1
	#DEBUG_VALUE: ....inline.__FILL_CHARARRAY <- [DW_OP_LLVM_convert 32 7, DW_OP_LLVM_convert 8 7, DW_OP_stack_value] 0
	#DEBUG_VALUE: hallTermCommunicateDerivatives <- [DW_OP_constu 120, DW_OP_minus] [$rbp+0]
	#DEBUG_VALUE: technicalGrid <- $r15
	#DEBUG_VALUE: gridDims <- [DW_OP_plus_uconst 264, DW_OP_stack_value] $r15
	#DEBUG_VALUE: propagateFields:perBGrid <- [DW_OP_constu 56, DW_OP_minus] [$rbp+0]
	#DEBUG_VALUE: propagateFields:perBDt2Grid <- [DW_OP_constu 112, DW_OP_minus] [$rbp+0]
	#DEBUG_VALUE: propagateFields:EGrid <- [DW_OP_constu 96, DW_OP_minus] [$rbp+0]
	#DEBUG_VALUE: propagateFields:EDt2Grid <- [DW_OP_constu 128, DW_OP_minus] [$rbp+0]
	#DEBUG_VALUE: propagateFields:EHallGrid <- [DW_OP_constu 88, DW_OP_minus] [$rbp+0]
	#DEBUG_VALUE: propagateFields:EGradPeGrid <- [DW_OP_constu 80, DW_OP_minus] [$rbp+0]
	#DEBUG_VALUE: propagateFields:momentsGrid <- [DW_OP_plus_uconst 16] [$rbp+0]
	#DEBUG_VALUE: propagateFields:momentsDt2Grid <- [DW_OP_plus_uconst 24] [$rbp+0]
	#DEBUG_VALUE: propagateFields:dPerBGrid <- [DW_OP_plus_uconst 32] [$rbp+0]
	#DEBUG_VALUE: propagateFields:dMomentsGrid <- [DW_OP_plus_uconst 40] [$rbp+0]
	#DEBUG_VALUE: propagateFields:BgBGrid <- [DW_OP_plus_uconst 48] [$rbp+0]
	#DEBUG_VALUE: propagateFields:volGrid <- [DW_OP_plus_uconst 56] [$rbp+0]
	#DEBUG_VALUE: propagateFields:technicalGrid <- [DW_OP_plus_uconst 64] [$rbp+0]
	#DEBUG_VALUE: propagateFields:sysBoundaries <- [DW_OP_plus_uconst 72] [$rbp+0]
	#DEBUG_VALUE: propagateFields:dt <- [DW_OP_plus_uconst 80] [$rbp+0]
	#DEBUG_VALUE: propagateFields:subcycles <- [DW_OP_plus_uconst 88] [$rbp+0]
	movq	-184(%rbp), %rdi
	cmpq	%rbx, %rdi
	leaq	-224(%rbp), %r12
	je	.LBB3_69
.Ltmp149:
# %bb.68:                               # %L.B1192
                                        #   in Loop: Header=BB3_23 Depth=1
	#DEBUG_VALUE: ....inline.__FILL_CHARARRAY <- [DW_OP_LLVM_convert 32 7, DW_OP_LLVM_convert 8 7, DW_OP_stack_value] 0
	#DEBUG_VALUE: hallTermCommunicateDerivatives <- [DW_OP_constu 120, DW_OP_minus] [$rbp+0]
	#DEBUG_VALUE: technicalGrid <- $r15
	#DEBUG_VALUE: gridDims <- [DW_OP_plus_uconst 264, DW_OP_stack_value] $r15
	#DEBUG_VALUE: propagateFields:perBGrid <- [DW_OP_constu 56, DW_OP_minus] [$rbp+0]
	#DEBUG_VALUE: propagateFields:perBDt2Grid <- [DW_OP_constu 112, DW_OP_minus] [$rbp+0]
	#DEBUG_VALUE: propagateFields:EGrid <- [DW_OP_constu 96, DW_OP_minus] [$rbp+0]
	#DEBUG_VALUE: propagateFields:EDt2Grid <- [DW_OP_constu 128, DW_OP_minus] [$rbp+0]
	#DEBUG_VALUE: propagateFields:EHallGrid <- [DW_OP_constu 88, DW_OP_minus] [$rbp+0]
	#DEBUG_VALUE: propagateFields:EGradPeGrid <- [DW_OP_constu 80, DW_OP_minus] [$rbp+0]
	#DEBUG_VALUE: propagateFields:momentsGrid <- [DW_OP_plus_uconst 16] [$rbp+0]
	#DEBUG_VALUE: propagateFields:momentsDt2Grid <- [DW_OP_plus_uconst 24] [$rbp+0]
	#DEBUG_VALUE: propagateFields:dPerBGrid <- [DW_OP_plus_uconst 32] [$rbp+0]
	#DEBUG_VALUE: propagateFields:dMomentsGrid <- [DW_OP_plus_uconst 40] [$rbp+0]
	#DEBUG_VALUE: propagateFields:BgBGrid <- [DW_OP_plus_uconst 48] [$rbp+0]
	#DEBUG_VALUE: propagateFields:volGrid <- [DW_OP_plus_uconst 56] [$rbp+0]
	#DEBUG_VALUE: propagateFields:technicalGrid <- [DW_OP_plus_uconst 64] [$rbp+0]
	#DEBUG_VALUE: propagateFields:sysBoundaries <- [DW_OP_plus_uconst 72] [$rbp+0]
	#DEBUG_VALUE: propagateFields:dt <- [DW_OP_plus_uconst 80] [$rbp+0]
	#DEBUG_VALUE: propagateFields:subcycles <- [DW_OP_plus_uconst 88] [$rbp+0]
	.cfi_escape 0x2e, 0x00
	callq	_ZdlPv
.Ltmp150:
.LBB3_69:                               # %L..inline.65957
                                        #   in Loop: Header=BB3_23 Depth=1
	#DEBUG_VALUE: ....inline.__FILL_CHARARRAY <- [DW_OP_LLVM_convert 32 7, DW_OP_LLVM_convert 8 7, DW_OP_stack_value] 0
	#DEBUG_VALUE: hallTermCommunicateDerivatives <- [DW_OP_constu 120, DW_OP_minus] [$rbp+0]
	#DEBUG_VALUE: technicalGrid <- $r15
	#DEBUG_VALUE: gridDims <- [DW_OP_plus_uconst 264, DW_OP_stack_value] $r15
	#DEBUG_VALUE: propagateFields:perBGrid <- [DW_OP_constu 56, DW_OP_minus] [$rbp+0]
	#DEBUG_VALUE: propagateFields:perBDt2Grid <- [DW_OP_constu 112, DW_OP_minus] [$rbp+0]
	#DEBUG_VALUE: propagateFields:EGrid <- [DW_OP_constu 96, DW_OP_minus] [$rbp+0]
	#DEBUG_VALUE: propagateFields:EDt2Grid <- [DW_OP_constu 128, DW_OP_minus] [$rbp+0]
	#DEBUG_VALUE: propagateFields:EHallGrid <- [DW_OP_constu 88, DW_OP_minus] [$rbp+0]
	#DEBUG_VALUE: propagateFields:EGradPeGrid <- [DW_OP_constu 80, DW_OP_minus] [$rbp+0]
	#DEBUG_VALUE: propagateFields:momentsGrid <- [DW_OP_plus_uconst 16] [$rbp+0]
	#DEBUG_VALUE: propagateFields:momentsDt2Grid <- [DW_OP_plus_uconst 24] [$rbp+0]
	#DEBUG_VALUE: propagateFields:dPerBGrid <- [DW_OP_plus_uconst 32] [$rbp+0]
	#DEBUG_VALUE: propagateFields:dMomentsGrid <- [DW_OP_plus_uconst 40] [$rbp+0]
	#DEBUG_VALUE: propagateFields:BgBGrid <- [DW_OP_plus_uconst 48] [$rbp+0]
	#DEBUG_VALUE: propagateFields:volGrid <- [DW_OP_plus_uconst 56] [$rbp+0]
	#DEBUG_VALUE: propagateFields:technicalGrid <- [DW_OP_plus_uconst 64] [$rbp+0]
	#DEBUG_VALUE: propagateFields:sysBoundaries <- [DW_OP_plus_uconst 72] [$rbp+0]
	#DEBUG_VALUE: propagateFields:dt <- [DW_OP_plus_uconst 80] [$rbp+0]
	#DEBUG_VALUE: propagateFields:subcycles <- [DW_OP_plus_uconst 88] [$rbp+0]
	.loc	1 380 1                 # fieldsolver/ldz_main.cpp:380:1
	vmovsd	-64(%rbp), %xmm0        # xmm0 = mem[0],zero
.Ltmp151:
	#DEBUG_VALUE: subcycleDt <- $xmm0
	vmovsd	_ZN10Parameters17fieldSolverMaxCFLE(%rip), %xmm2 # xmm2 = mem[0],zero
	vmovsd	-280(%rbp), %xmm1       # xmm1 = mem[0],zero
.Ltmp152:
	#DEBUG_VALUE: dtMaxGlobal <- $xmm1
	vmulsd	%xmm1, %xmm2, %xmm3
	vucomisd	%xmm3, %xmm0
	movq	-232(%rbp), %r13        # 8-byte Reload
	jbe	.LBB3_72
.Ltmp153:
# %bb.70:                               # %L.B1193
                                        #   in Loop: Header=BB3_23 Depth=1
	#DEBUG_VALUE: dtMaxGlobal <- $xmm1
	#DEBUG_VALUE: ....inline.__FILL_CHARARRAY <- [DW_OP_LLVM_convert 32 7, DW_OP_LLVM_convert 8 7, DW_OP_stack_value] 0
	#DEBUG_VALUE: hallTermCommunicateDerivatives <- [DW_OP_constu 120, DW_OP_minus] [$rbp+0]
	#DEBUG_VALUE: subcycleDt <- $xmm0
	#DEBUG_VALUE: technicalGrid <- $r15
	#DEBUG_VALUE: gridDims <- [DW_OP_plus_uconst 264, DW_OP_stack_value] $r15
	#DEBUG_VALUE: propagateFields:perBGrid <- [DW_OP_constu 56, DW_OP_minus] [$rbp+0]
	#DEBUG_VALUE: propagateFields:perBDt2Grid <- [DW_OP_constu 112, DW_OP_minus] [$rbp+0]
	#DEBUG_VALUE: propagateFields:EGrid <- [DW_OP_constu 96, DW_OP_minus] [$rbp+0]
	#DEBUG_VALUE: propagateFields:EDt2Grid <- [DW_OP_constu 128, DW_OP_minus] [$rbp+0]
	#DEBUG_VALUE: propagateFields:EHallGrid <- [DW_OP_constu 88, DW_OP_minus] [$rbp+0]
	#DEBUG_VALUE: propagateFields:EGradPeGrid <- [DW_OP_constu 80, DW_OP_minus] [$rbp+0]
	#DEBUG_VALUE: propagateFields:momentsGrid <- [DW_OP_plus_uconst 16] [$rbp+0]
	#DEBUG_VALUE: propagateFields:momentsDt2Grid <- [DW_OP_plus_uconst 24] [$rbp+0]
	#DEBUG_VALUE: propagateFields:dPerBGrid <- [DW_OP_plus_uconst 32] [$rbp+0]
	#DEBUG_VALUE: propagateFields:dMomentsGrid <- [DW_OP_plus_uconst 40] [$rbp+0]
	#DEBUG_VALUE: propagateFields:BgBGrid <- [DW_OP_plus_uconst 48] [$rbp+0]
	#DEBUG_VALUE: propagateFields:volGrid <- [DW_OP_plus_uconst 56] [$rbp+0]
	#DEBUG_VALUE: propagateFields:technicalGrid <- [DW_OP_plus_uconst 64] [$rbp+0]
	#DEBUG_VALUE: propagateFields:sysBoundaries <- [DW_OP_plus_uconst 72] [$rbp+0]
	#DEBUG_VALUE: propagateFields:dt <- [DW_OP_plus_uconst 80] [$rbp+0]
	#DEBUG_VALUE: propagateFields:subcycles <- [DW_OP_plus_uconst 88] [$rbp+0]
	.loc	1 381 1                 # fieldsolver/ldz_main.cpp:381:1
	vaddsd	_ZN10Parameters17fieldSolverMinCFLE(%rip), %xmm2, %xmm0
.Ltmp154:
	vmulsd	.LCPI3_2(%rip), %xmm0, %xmm0
	.loc	1 382 1                 # fieldsolver/ldz_main.cpp:382:1
	vmulsd	%xmm0, %xmm1, %xmm0
.Ltmp155:
	#DEBUG_VALUE: subcycleDt <- $xmm0
	vmovsd	%xmm0, -64(%rbp)
	.loc	1 0 0 is_stmt 0         # fieldsolver/ldz_main.cpp:0:0
	cmpl	$0, -188(%rbp)          # 4-byte Folded Reload
	.loc	1 383 1 is_stmt 1       # fieldsolver/ldz_main.cpp:383:1
	jne	.LBB3_72
.Ltmp156:
# %bb.71:                               # %L..inline.66007
                                        #   in Loop: Header=BB3_23 Depth=1
	#DEBUG_VALUE: dtMaxGlobal <- $xmm1
	#DEBUG_VALUE: ....inline.__FILL_CHARARRAY <- [DW_OP_LLVM_convert 32 7, DW_OP_LLVM_convert 8 7, DW_OP_stack_value] 0
	#DEBUG_VALUE: hallTermCommunicateDerivatives <- [DW_OP_constu 120, DW_OP_minus] [$rbp+0]
	#DEBUG_VALUE: subcycleDt <- $xmm0
	#DEBUG_VALUE: technicalGrid <- $r15
	#DEBUG_VALUE: gridDims <- [DW_OP_plus_uconst 264, DW_OP_stack_value] $r15
	#DEBUG_VALUE: propagateFields:perBGrid <- [DW_OP_constu 56, DW_OP_minus] [$rbp+0]
	#DEBUG_VALUE: propagateFields:perBDt2Grid <- [DW_OP_constu 112, DW_OP_minus] [$rbp+0]
	#DEBUG_VALUE: propagateFields:EGrid <- [DW_OP_constu 96, DW_OP_minus] [$rbp+0]
	#DEBUG_VALUE: propagateFields:EDt2Grid <- [DW_OP_constu 128, DW_OP_minus] [$rbp+0]
	#DEBUG_VALUE: propagateFields:EHallGrid <- [DW_OP_constu 88, DW_OP_minus] [$rbp+0]
	#DEBUG_VALUE: propagateFields:EGradPeGrid <- [DW_OP_constu 80, DW_OP_minus] [$rbp+0]
	#DEBUG_VALUE: propagateFields:momentsGrid <- [DW_OP_plus_uconst 16] [$rbp+0]
	#DEBUG_VALUE: propagateFields:momentsDt2Grid <- [DW_OP_plus_uconst 24] [$rbp+0]
	#DEBUG_VALUE: propagateFields:dPerBGrid <- [DW_OP_plus_uconst 32] [$rbp+0]
	#DEBUG_VALUE: propagateFields:dMomentsGrid <- [DW_OP_plus_uconst 40] [$rbp+0]
	#DEBUG_VALUE: propagateFields:BgBGrid <- [DW_OP_plus_uconst 48] [$rbp+0]
	#DEBUG_VALUE: propagateFields:volGrid <- [DW_OP_plus_uconst 56] [$rbp+0]
	#DEBUG_VALUE: propagateFields:technicalGrid <- [DW_OP_plus_uconst 64] [$rbp+0]
	#DEBUG_VALUE: propagateFields:sysBoundaries <- [DW_OP_plus_uconst 72] [$rbp+0]
	#DEBUG_VALUE: propagateFields:dt <- [DW_OP_plus_uconst 80] [$rbp+0]
	#DEBUG_VALUE: propagateFields:subcycles <- [DW_OP_plus_uconst 88] [$rbp+0]
	.cfi_escape 0x2e, 0x00
	.loc	1 85 1                  # fieldsolver/ldz_main.cpp:85:1
	movl	$logFile+32, %edi
	movl	$.S53114, %esi
	movl	$42, %edx
	callq	_ZSt16__ostream_insertIcSt11char_traitsIcEERSt13basic_ostreamIT_T0_ES6_PKS3_l
.Ltmp157:
	vmovsd	-64(%rbp), %xmm0        # xmm0 = mem[0],zero
.Ltmp158:
	#DEBUG_VALUE: subcycleDt <- $xmm0
	.cfi_escape 0x2e, 0x00
	movl	$logFile+32, %edi
	callq	_ZNSo9_M_insertIdEERSoT_
.Ltmp159:
	.cfi_escape 0x2e, 0x00
	movl	$logFile+32, %edi
	movl	$.S53116, %esi
	movl	$18, %edx
	callq	_ZSt16__ostream_insertIcSt11char_traitsIcEERSt13basic_ostreamIT_T0_ES6_PKS3_l
	movl	_ZN10Parameters5tstepE(%rip), %esi
	.cfi_escape 0x2e, 0x00
	movl	$logFile+32, %edi
	callq	_ZNSo9_M_insertImEERSoT_
	.cfi_escape 0x2e, 0x00
	movl	$logFile+32, %edi
	movl	$.S53118, %esi
	movl	$13, %edx
	callq	_ZSt16__ostream_insertIcSt11char_traitsIcEERSt13basic_ostreamIT_T0_ES6_PKS3_l
	.cfi_escape 0x2e, 0x00
	movl	$logFile+32, %edi
	movq	%r13, %rsi
	callq	_ZNSo9_M_insertImEERSoT_
	.cfi_escape 0x2e, 0x00
	movl	$logFile+32, %edi
	movl	$.S53120, %esi
	movl	$4, %edx
	callq	_ZSt16__ostream_insertIcSt11char_traitsIcEERSt13basic_ostreamIT_T0_ES6_PKS3_l
	vmovsd	_ZN10Parameters1tE(%rip), %xmm0 # xmm0 = mem[0],zero
	.cfi_escape 0x2e, 0x00
	movl	$logFile+32, %edi
	callq	_ZNSo9_M_insertIdEERSoT_
	.cfi_escape 0x2e, 0x00
	movl	$logFile+32, %edi
	movl	$.S53122, %esi
	movl	$2, %edx
	callq	_ZSt16__ostream_insertIcSt11char_traitsIcEERSt13basic_ostreamIT_T0_ES6_PKS3_l
	.cfi_escape 0x2e, 0x00
	.loc	1 87 1                  # fieldsolver/ldz_main.cpp:87:1
	movl	$logFile, %edi
	movl	$_ZSt4endlIcSt11char_traitsIcEERSt13basic_ostreamIT_T0_ES6_, %esi
	callq	_ZN6LoggerlsEPFRSoS0_E
.Ltmp160:
	.loc	1 390 1                 # fieldsolver/ldz_main.cpp:390:1
	vmovsd	-64(%rbp), %xmm0        # xmm0 = mem[0],zero
.Ltmp161:
	.p2align	4, 0x90
.LBB3_72:                               # %L.B0074
                                        #   in Loop: Header=BB3_23 Depth=1
	#DEBUG_VALUE: ....inline.__FILL_CHARARRAY <- [DW_OP_LLVM_convert 32 7, DW_OP_LLVM_convert 8 7, DW_OP_stack_value] 0
	#DEBUG_VALUE: hallTermCommunicateDerivatives <- [DW_OP_constu 120, DW_OP_minus] [$rbp+0]
	#DEBUG_VALUE: technicalGrid <- $r15
	#DEBUG_VALUE: gridDims <- [DW_OP_plus_uconst 264, DW_OP_stack_value] $r15
	#DEBUG_VALUE: propagateFields:perBGrid <- [DW_OP_constu 56, DW_OP_minus] [$rbp+0]
	#DEBUG_VALUE: propagateFields:perBDt2Grid <- [DW_OP_constu 112, DW_OP_minus] [$rbp+0]
	#DEBUG_VALUE: propagateFields:EGrid <- [DW_OP_constu 96, DW_OP_minus] [$rbp+0]
	#DEBUG_VALUE: propagateFields:EDt2Grid <- [DW_OP_constu 128, DW_OP_minus] [$rbp+0]
	#DEBUG_VALUE: propagateFields:EHallGrid <- [DW_OP_constu 88, DW_OP_minus] [$rbp+0]
	#DEBUG_VALUE: propagateFields:EGradPeGrid <- [DW_OP_constu 80, DW_OP_minus] [$rbp+0]
	#DEBUG_VALUE: propagateFields:momentsGrid <- [DW_OP_plus_uconst 16] [$rbp+0]
	#DEBUG_VALUE: propagateFields:momentsDt2Grid <- [DW_OP_plus_uconst 24] [$rbp+0]
	#DEBUG_VALUE: propagateFields:dPerBGrid <- [DW_OP_plus_uconst 32] [$rbp+0]
	#DEBUG_VALUE: propagateFields:dMomentsGrid <- [DW_OP_plus_uconst 40] [$rbp+0]
	#DEBUG_VALUE: propagateFields:BgBGrid <- [DW_OP_plus_uconst 48] [$rbp+0]
	#DEBUG_VALUE: propagateFields:volGrid <- [DW_OP_plus_uconst 56] [$rbp+0]
	#DEBUG_VALUE: propagateFields:technicalGrid <- [DW_OP_plus_uconst 64] [$rbp+0]
	#DEBUG_VALUE: propagateFields:sysBoundaries <- [DW_OP_plus_uconst 72] [$rbp+0]
	#DEBUG_VALUE: propagateFields:dt <- [DW_OP_plus_uconst 80] [$rbp+0]
	#DEBUG_VALUE: propagateFields:subcycles <- [DW_OP_plus_uconst 88] [$rbp+0]
	#DEBUG_VALUE: subcycleDt <- $xmm0
	.loc	1 0 1 is_stmt 0         # fieldsolver/ldz_main.cpp:0:1
	vmovsd	-144(%rbp), %xmm2       # 8-byte Reload
                                        # xmm2 = mem[0],zero
	.loc	1 390 1                 # fieldsolver/ldz_main.cpp:390:1
	vfmadd132sd	.LCPI3_3(%rip), %xmm2, %xmm0 # xmm0 = (xmm0 * mem) + xmm2
.Ltmp162:
	.loc	1 0 1                   # fieldsolver/ldz_main.cpp:0:1
	vmovsd	-240(%rbp), %xmm1       # 8-byte Reload
                                        # xmm1 = mem[0],zero
	.loc	1 390 1                 # fieldsolver/ldz_main.cpp:390:1
	vucomisd	%xmm1, %xmm0
	jbe	.LBB3_77
.Ltmp163:
# %bb.73:                               # %L.B1200
                                        #   in Loop: Header=BB3_23 Depth=1
	#DEBUG_VALUE: ....inline.__FILL_CHARARRAY <- [DW_OP_LLVM_convert 32 7, DW_OP_LLVM_convert 8 7, DW_OP_stack_value] 0
	#DEBUG_VALUE: hallTermCommunicateDerivatives <- [DW_OP_constu 120, DW_OP_minus] [$rbp+0]
	#DEBUG_VALUE: technicalGrid <- $r15
	#DEBUG_VALUE: gridDims <- [DW_OP_plus_uconst 264, DW_OP_stack_value] $r15
	#DEBUG_VALUE: propagateFields:perBGrid <- [DW_OP_constu 56, DW_OP_minus] [$rbp+0]
	#DEBUG_VALUE: propagateFields:perBDt2Grid <- [DW_OP_constu 112, DW_OP_minus] [$rbp+0]
	#DEBUG_VALUE: propagateFields:EGrid <- [DW_OP_constu 96, DW_OP_minus] [$rbp+0]
	#DEBUG_VALUE: propagateFields:EDt2Grid <- [DW_OP_constu 128, DW_OP_minus] [$rbp+0]
	#DEBUG_VALUE: propagateFields:EHallGrid <- [DW_OP_constu 88, DW_OP_minus] [$rbp+0]
	#DEBUG_VALUE: propagateFields:EGradPeGrid <- [DW_OP_constu 80, DW_OP_minus] [$rbp+0]
	#DEBUG_VALUE: propagateFields:momentsGrid <- [DW_OP_plus_uconst 16] [$rbp+0]
	#DEBUG_VALUE: propagateFields:momentsDt2Grid <- [DW_OP_plus_uconst 24] [$rbp+0]
	#DEBUG_VALUE: propagateFields:dPerBGrid <- [DW_OP_plus_uconst 32] [$rbp+0]
	#DEBUG_VALUE: propagateFields:dMomentsGrid <- [DW_OP_plus_uconst 40] [$rbp+0]
	#DEBUG_VALUE: propagateFields:BgBGrid <- [DW_OP_plus_uconst 48] [$rbp+0]
	#DEBUG_VALUE: propagateFields:volGrid <- [DW_OP_plus_uconst 56] [$rbp+0]
	#DEBUG_VALUE: propagateFields:technicalGrid <- [DW_OP_plus_uconst 64] [$rbp+0]
	#DEBUG_VALUE: propagateFields:sysBoundaries <- [DW_OP_plus_uconst 72] [$rbp+0]
	#DEBUG_VALUE: propagateFields:dt <- [DW_OP_plus_uconst 80] [$rbp+0]
	#DEBUG_VALUE: propagateFields:subcycles <- [DW_OP_plus_uconst 88] [$rbp+0]
	.loc	1 391 1 is_stmt 1       # fieldsolver/ldz_main.cpp:391:1
	vsubsd	%xmm2, %xmm1, %xmm0
.Ltmp164:
	#DEBUG_VALUE: subcycleDt <- $xmm0
	vmovsd	%xmm0, -64(%rbp)
.Ltmp165:
	#DEBUG_VALUE: maxSubcycleCount <- undef
	.loc	1 394 1                 # fieldsolver/ldz_main.cpp:394:1
	vmovsd	_ZN10Parameters17fieldSolverMaxCFLE(%rip), %xmm1 # xmm1 = mem[0],zero
.Ltmp166:
	#DEBUG_VALUE: dtMaxGlobal <- undef
	vmulsd	-280(%rbp), %xmm1, %xmm1
	vucomisd	%xmm1, %xmm0
	ja	.LBB3_75
.Ltmp167:
# %bb.74:                               #   in Loop: Header=BB3_23 Depth=1
	#DEBUG_VALUE: ....inline.__FILL_CHARARRAY <- [DW_OP_LLVM_convert 32 7, DW_OP_LLVM_convert 8 7, DW_OP_stack_value] 0
	#DEBUG_VALUE: hallTermCommunicateDerivatives <- [DW_OP_constu 120, DW_OP_minus] [$rbp+0]
	#DEBUG_VALUE: subcycleDt <- $xmm0
	#DEBUG_VALUE: technicalGrid <- $r15
	#DEBUG_VALUE: gridDims <- [DW_OP_plus_uconst 264, DW_OP_stack_value] $r15
	#DEBUG_VALUE: propagateFields:perBGrid <- [DW_OP_constu 56, DW_OP_minus] [$rbp+0]
	#DEBUG_VALUE: propagateFields:perBDt2Grid <- [DW_OP_constu 112, DW_OP_minus] [$rbp+0]
	#DEBUG_VALUE: propagateFields:EGrid <- [DW_OP_constu 96, DW_OP_minus] [$rbp+0]
	#DEBUG_VALUE: propagateFields:EDt2Grid <- [DW_OP_constu 128, DW_OP_minus] [$rbp+0]
	#DEBUG_VALUE: propagateFields:EHallGrid <- [DW_OP_constu 88, DW_OP_minus] [$rbp+0]
	#DEBUG_VALUE: propagateFields:EGradPeGrid <- [DW_OP_constu 80, DW_OP_minus] [$rbp+0]
	#DEBUG_VALUE: propagateFields:momentsGrid <- [DW_OP_plus_uconst 16] [$rbp+0]
	#DEBUG_VALUE: propagateFields:momentsDt2Grid <- [DW_OP_plus_uconst 24] [$rbp+0]
	#DEBUG_VALUE: propagateFields:dPerBGrid <- [DW_OP_plus_uconst 32] [$rbp+0]
	#DEBUG_VALUE: propagateFields:dMomentsGrid <- [DW_OP_plus_uconst 40] [$rbp+0]
	#DEBUG_VALUE: propagateFields:BgBGrid <- [DW_OP_plus_uconst 48] [$rbp+0]
	#DEBUG_VALUE: propagateFields:volGrid <- [DW_OP_plus_uconst 56] [$rbp+0]
	#DEBUG_VALUE: propagateFields:technicalGrid <- [DW_OP_plus_uconst 64] [$rbp+0]
	#DEBUG_VALUE: propagateFields:sysBoundaries <- [DW_OP_plus_uconst 72] [$rbp+0]
	#DEBUG_VALUE: propagateFields:dt <- [DW_OP_plus_uconst 80] [$rbp+0]
	#DEBUG_VALUE: propagateFields:subcycles <- [DW_OP_plus_uconst 88] [$rbp+0]
	.loc	1 0 1 is_stmt 0         # fieldsolver/ldz_main.cpp:0:1
	movq	-152(%rbp), %rax        # 8-byte Reload
	addl	$2, %eax
.Ltmp168:
	#DEBUG_VALUE: maxSubcycleCount <- $eax
	jmp	.LBB3_76
.Ltmp169:
	.p2align	4, 0x90
.LBB3_75:                               # %L.B1201
                                        #   in Loop: Header=BB3_23 Depth=1
	#DEBUG_VALUE: ....inline.__FILL_CHARARRAY <- [DW_OP_LLVM_convert 32 7, DW_OP_LLVM_convert 8 7, DW_OP_stack_value] 0
	#DEBUG_VALUE: hallTermCommunicateDerivatives <- [DW_OP_constu 120, DW_OP_minus] [$rbp+0]
	#DEBUG_VALUE: subcycleDt <- $xmm0
	#DEBUG_VALUE: technicalGrid <- $r15
	#DEBUG_VALUE: gridDims <- [DW_OP_plus_uconst 264, DW_OP_stack_value] $r15
	#DEBUG_VALUE: propagateFields:perBGrid <- [DW_OP_constu 56, DW_OP_minus] [$rbp+0]
	#DEBUG_VALUE: propagateFields:perBDt2Grid <- [DW_OP_constu 112, DW_OP_minus] [$rbp+0]
	#DEBUG_VALUE: propagateFields:EGrid <- [DW_OP_constu 96, DW_OP_minus] [$rbp+0]
	#DEBUG_VALUE: propagateFields:EDt2Grid <- [DW_OP_constu 128, DW_OP_minus] [$rbp+0]
	#DEBUG_VALUE: propagateFields:EHallGrid <- [DW_OP_constu 88, DW_OP_minus] [$rbp+0]
	#DEBUG_VALUE: propagateFields:EGradPeGrid <- [DW_OP_constu 80, DW_OP_minus] [$rbp+0]
	#DEBUG_VALUE: propagateFields:momentsGrid <- [DW_OP_plus_uconst 16] [$rbp+0]
	#DEBUG_VALUE: propagateFields:momentsDt2Grid <- [DW_OP_plus_uconst 24] [$rbp+0]
	#DEBUG_VALUE: propagateFields:dPerBGrid <- [DW_OP_plus_uconst 32] [$rbp+0]
	#DEBUG_VALUE: propagateFields:dMomentsGrid <- [DW_OP_plus_uconst 40] [$rbp+0]
	#DEBUG_VALUE: propagateFields:BgBGrid <- [DW_OP_plus_uconst 48] [$rbp+0]
	#DEBUG_VALUE: propagateFields:volGrid <- [DW_OP_plus_uconst 56] [$rbp+0]
	#DEBUG_VALUE: propagateFields:technicalGrid <- [DW_OP_plus_uconst 64] [$rbp+0]
	#DEBUG_VALUE: propagateFields:sysBoundaries <- [DW_OP_plus_uconst 72] [$rbp+0]
	#DEBUG_VALUE: propagateFields:dt <- [DW_OP_plus_uconst 80] [$rbp+0]
	#DEBUG_VALUE: propagateFields:subcycles <- [DW_OP_plus_uconst 88] [$rbp+0]
	.loc	1 395 1 is_stmt 1       # fieldsolver/ldz_main.cpp:395:1
	vmulsd	.LCPI3_2(%rip), %xmm0, %xmm0
.Ltmp170:
	#DEBUG_VALUE: subcycleDt <- $xmm0
	vmovsd	%xmm0, -64(%rbp)
	movq	-152(%rbp), %rax        # 8-byte Reload
	.loc	1 396 1                 # fieldsolver/ldz_main.cpp:396:1
	addl	$3, %eax
.Ltmp171:
	#DEBUG_VALUE: maxSubcycleCount <- $eax
.LBB3_76:                               # %L.B0078
                                        #   in Loop: Header=BB3_23 Depth=1
	#DEBUG_VALUE: maxSubcycleCount <- $eax
	#DEBUG_VALUE: ....inline.__FILL_CHARARRAY <- [DW_OP_LLVM_convert 32 7, DW_OP_LLVM_convert 8 7, DW_OP_stack_value] 0
	#DEBUG_VALUE: hallTermCommunicateDerivatives <- [DW_OP_constu 120, DW_OP_minus] [$rbp+0]
	#DEBUG_VALUE: subcycleDt <- $xmm0
	#DEBUG_VALUE: technicalGrid <- $r15
	#DEBUG_VALUE: gridDims <- [DW_OP_plus_uconst 264, DW_OP_stack_value] $r15
	#DEBUG_VALUE: propagateFields:perBGrid <- [DW_OP_constu 56, DW_OP_minus] [$rbp+0]
	#DEBUG_VALUE: propagateFields:perBDt2Grid <- [DW_OP_constu 112, DW_OP_minus] [$rbp+0]
	#DEBUG_VALUE: propagateFields:EGrid <- [DW_OP_constu 96, DW_OP_minus] [$rbp+0]
	#DEBUG_VALUE: propagateFields:EDt2Grid <- [DW_OP_constu 128, DW_OP_minus] [$rbp+0]
	#DEBUG_VALUE: propagateFields:EHallGrid <- [DW_OP_constu 88, DW_OP_minus] [$rbp+0]
	#DEBUG_VALUE: propagateFields:EGradPeGrid <- [DW_OP_constu 80, DW_OP_minus] [$rbp+0]
	#DEBUG_VALUE: propagateFields:momentsGrid <- [DW_OP_plus_uconst 16] [$rbp+0]
	#DEBUG_VALUE: propagateFields:momentsDt2Grid <- [DW_OP_plus_uconst 24] [$rbp+0]
	#DEBUG_VALUE: propagateFields:dPerBGrid <- [DW_OP_plus_uconst 32] [$rbp+0]
	#DEBUG_VALUE: propagateFields:dMomentsGrid <- [DW_OP_plus_uconst 40] [$rbp+0]
	#DEBUG_VALUE: propagateFields:BgBGrid <- [DW_OP_plus_uconst 48] [$rbp+0]
	#DEBUG_VALUE: propagateFields:volGrid <- [DW_OP_plus_uconst 56] [$rbp+0]
	#DEBUG_VALUE: propagateFields:technicalGrid <- [DW_OP_plus_uconst 64] [$rbp+0]
	#DEBUG_VALUE: propagateFields:sysBoundaries <- [DW_OP_plus_uconst 72] [$rbp+0]
	#DEBUG_VALUE: propagateFields:dt <- [DW_OP_plus_uconst 80] [$rbp+0]
	#DEBUG_VALUE: propagateFields:subcycles <- [DW_OP_plus_uconst 88] [$rbp+0]
                                        # kill: def $eax killed $eax killed $rax
	.loc	1 0 1 is_stmt 0         # fieldsolver/ldz_main.cpp:0:1
	movl	%eax, -136(%rbp)        # 4-byte Spill
.Ltmp172:
.LBB3_77:                               # %L.B0078
                                        #   in Loop: Header=BB3_23 Depth=1
	#DEBUG_VALUE: ....inline.__FILL_CHARARRAY <- [DW_OP_LLVM_convert 32 7, DW_OP_LLVM_convert 8 7, DW_OP_stack_value] 0
	#DEBUG_VALUE: hallTermCommunicateDerivatives <- [DW_OP_constu 120, DW_OP_minus] [$rbp+0]
	#DEBUG_VALUE: technicalGrid <- $r15
	#DEBUG_VALUE: gridDims <- [DW_OP_plus_uconst 264, DW_OP_stack_value] $r15
	#DEBUG_VALUE: propagateFields:perBGrid <- [DW_OP_constu 56, DW_OP_minus] [$rbp+0]
	#DEBUG_VALUE: propagateFields:perBDt2Grid <- [DW_OP_constu 112, DW_OP_minus] [$rbp+0]
	#DEBUG_VALUE: propagateFields:EGrid <- [DW_OP_constu 96, DW_OP_minus] [$rbp+0]
	#DEBUG_VALUE: propagateFields:EDt2Grid <- [DW_OP_constu 128, DW_OP_minus] [$rbp+0]
	#DEBUG_VALUE: propagateFields:EHallGrid <- [DW_OP_constu 88, DW_OP_minus] [$rbp+0]
	#DEBUG_VALUE: propagateFields:EGradPeGrid <- [DW_OP_constu 80, DW_OP_minus] [$rbp+0]
	#DEBUG_VALUE: propagateFields:momentsGrid <- [DW_OP_plus_uconst 16] [$rbp+0]
	#DEBUG_VALUE: propagateFields:momentsDt2Grid <- [DW_OP_plus_uconst 24] [$rbp+0]
	#DEBUG_VALUE: propagateFields:dPerBGrid <- [DW_OP_plus_uconst 32] [$rbp+0]
	#DEBUG_VALUE: propagateFields:dMomentsGrid <- [DW_OP_plus_uconst 40] [$rbp+0]
	#DEBUG_VALUE: propagateFields:BgBGrid <- [DW_OP_plus_uconst 48] [$rbp+0]
	#DEBUG_VALUE: propagateFields:volGrid <- [DW_OP_plus_uconst 56] [$rbp+0]
	#DEBUG_VALUE: propagateFields:technicalGrid <- [DW_OP_plus_uconst 64] [$rbp+0]
	#DEBUG_VALUE: propagateFields:sysBoundaries <- [DW_OP_plus_uconst 72] [$rbp+0]
	#DEBUG_VALUE: propagateFields:dt <- [DW_OP_plus_uconst 80] [$rbp+0]
	#DEBUG_VALUE: propagateFields:subcycles <- [DW_OP_plus_uconst 88] [$rbp+0]
	#DEBUG_VALUE: maxSubcycleCount <- [DW_OP_constu 136, DW_OP_minus] [$rbp+0]
	.loc	1 527 1 is_stmt 1       # fieldsolver/ldz_main.cpp:527:1
	leaq	-208(%rbp), %rax
	movq	%rax, -224(%rbp)
.Ltmp173:
	#DEBUG_VALUE: __dnew <- 17
	#DEBUG_VALUE: _M_construct:_T32372840_51851 <- undef
	#DEBUG_VALUE:  <- [DW_OP_constu 224, DW_OP_minus, DW_OP_stack_value] $rbp
	#DEBUG_VALUE: _M_construct: <- [DW_OP_constu 224, DW_OP_minus, DW_OP_stack_value] $rbp
	#DEBUG_VALUE: ....inline.__FILL_CHARARRAY <- [DW_OP_LLVM_convert 32 7, DW_OP_LLVM_convert 8 7, DW_OP_stack_value] 0
	.loc	3 143 1                 # /usr/include/c++/9/bits/basic_string.tcc:143:1
	movq	$17, -104(%rbp)
.Ltmp174:
	#DEBUG_VALUE: __dnew <- [DW_OP_constu 104, DW_OP_minus, DW_OP_deref] $rbp
.Ltmp18:
	.cfi_escape 0x2e, 0x00
	.loc	3 219 1                 # /usr/include/c++/9/bits/basic_string.tcc:219:1
	movq	%r12, %rdi
	leaq	-104(%rbp), %rsi
	xorl	%edx, %edx
	callq	_ZNSt7__cxx1112basic_stringIcSt11char_traitsIcESaIcEE9_M_createERmm
.Ltmp19:
.Ltmp175:
	#DEBUG_VALUE: __beg <- undef
	#DEBUG_VALUE: _M_construct:__beg <- undef
# %bb.78:                               # %L.B1205
                                        #   in Loop: Header=BB3_23 Depth=1
	#DEBUG_VALUE: __dnew <- [DW_OP_constu 104, DW_OP_minus, DW_OP_deref] $rbp
	#DEBUG_VALUE: _M_construct: <- [DW_OP_constu 224, DW_OP_minus, DW_OP_stack_value] $rbp
	#DEBUG_VALUE:  <- [DW_OP_constu 224, DW_OP_minus, DW_OP_stack_value] $rbp
	#DEBUG_VALUE: ....inline.__FILL_CHARARRAY <- [DW_OP_LLVM_convert 32 7, DW_OP_LLVM_convert 8 7, DW_OP_stack_value] 0
	#DEBUG_VALUE: maxSubcycleCount <- [DW_OP_constu 136, DW_OP_minus] [$rbp+0]
	#DEBUG_VALUE: hallTermCommunicateDerivatives <- [DW_OP_constu 120, DW_OP_minus] [$rbp+0]
	#DEBUG_VALUE: technicalGrid <- $r15
	#DEBUG_VALUE: gridDims <- [DW_OP_plus_uconst 264, DW_OP_stack_value] $r15
	#DEBUG_VALUE: propagateFields:perBGrid <- [DW_OP_constu 56, DW_OP_minus] [$rbp+0]
	#DEBUG_VALUE: propagateFields:perBDt2Grid <- [DW_OP_constu 112, DW_OP_minus] [$rbp+0]
	#DEBUG_VALUE: propagateFields:EGrid <- [DW_OP_constu 96, DW_OP_minus] [$rbp+0]
	#DEBUG_VALUE: propagateFields:EDt2Grid <- [DW_OP_constu 128, DW_OP_minus] [$rbp+0]
	#DEBUG_VALUE: propagateFields:EHallGrid <- [DW_OP_constu 88, DW_OP_minus] [$rbp+0]
	#DEBUG_VALUE: propagateFields:EGradPeGrid <- [DW_OP_constu 80, DW_OP_minus] [$rbp+0]
	#DEBUG_VALUE: propagateFields:momentsGrid <- [DW_OP_plus_uconst 16] [$rbp+0]
	#DEBUG_VALUE: propagateFields:momentsDt2Grid <- [DW_OP_plus_uconst 24] [$rbp+0]
	#DEBUG_VALUE: propagateFields:dPerBGrid <- [DW_OP_plus_uconst 32] [$rbp+0]
	#DEBUG_VALUE: propagateFields:dMomentsGrid <- [DW_OP_plus_uconst 40] [$rbp+0]
	#DEBUG_VALUE: propagateFields:BgBGrid <- [DW_OP_plus_uconst 48] [$rbp+0]
	#DEBUG_VALUE: propagateFields:volGrid <- [DW_OP_plus_uconst 56] [$rbp+0]
	#DEBUG_VALUE: propagateFields:technicalGrid <- [DW_OP_plus_uconst 64] [$rbp+0]
	#DEBUG_VALUE: propagateFields:sysBoundaries <- [DW_OP_plus_uconst 72] [$rbp+0]
	#DEBUG_VALUE: propagateFields:dt <- [DW_OP_plus_uconst 80] [$rbp+0]
	#DEBUG_VALUE: propagateFields:subcycles <- [DW_OP_plus_uconst 88] [$rbp+0]
	movq	%rax, -224(%rbp)
	.loc	3 220 1                 # /usr/include/c++/9/bits/basic_string.tcc:220:1
	movq	-104(%rbp), %rcx
.Ltmp176:
	#DEBUG_VALUE: __dnew <- $rcx
	movq	%rcx, -208(%rbp)
	.loc	3 398 1                 # /usr/include/c++/9/bits/basic_string.tcc:398:1
	vmovups	.S53045(%rip), %xmm0
	vmovups	%xmm0, (%rax)
	movb	$102, 16(%rax)
	.loc	3 216 1                 # /usr/include/c++/9/bits/basic_string.tcc:216:1
	movq	%rcx, -216(%rbp)
	.loc	3 217 1                 # /usr/include/c++/9/bits/basic_string.tcc:217:1
	movq	-224(%rbp), %rax
	movb	$0, (%rax,%rcx)
.Ltmp177:
	.loc	1 527 1                 # fieldsolver/ldz_main.cpp:527:1
	movq	%rbx, -184(%rbp)
.Ltmp178:
	#DEBUG_VALUE: __dnew <- 0
	#DEBUG_VALUE: _M_construct:_T32372840_51851 <- undef
	#DEBUG_VALUE:  <- [DW_OP_constu 184, DW_OP_minus, DW_OP_stack_value] $rbp
	#DEBUG_VALUE: _M_construct: <- [DW_OP_constu 184, DW_OP_minus, DW_OP_stack_value] $rbp
	#DEBUG_VALUE: ....inline.__FILL_CHARARRAY <- [DW_OP_LLVM_convert 32 7, DW_OP_LLVM_convert 8 7, DW_OP_stack_value] 0
	.loc	3 216 1                 # /usr/include/c++/9/bits/basic_string.tcc:216:1
	movq	$0, -176(%rbp)
	.loc	3 217 1                 # /usr/include/c++/9/bits/basic_string.tcc:217:1
	movb	$0, -168(%rbp)
.Ltmp179:
.Ltmp21:
	.cfi_escape 0x2e, 0x00
	.loc	1 400 1                 # fieldsolver/ldz_main.cpp:400:1
	movq	%r12, %rdi
	vmovsd	.LCPI3_1(%rip), %xmm0   # xmm0 = mem[0],zero
	leaq	-184(%rbp), %rsi
	callq	_ZN7phiprof4stopERKNSt7__cxx1112basic_stringIcSt11char_traitsIcESaIcEEEdS7_
.Ltmp180:
.Ltmp22:
# %bb.79:                               # %L.B1206
                                        #   in Loop: Header=BB3_23 Depth=1
	#DEBUG_VALUE: ....inline.__FILL_CHARARRAY <- [DW_OP_LLVM_convert 32 7, DW_OP_LLVM_convert 8 7, DW_OP_stack_value] 0
	#DEBUG_VALUE: hallTermCommunicateDerivatives <- [DW_OP_constu 120, DW_OP_minus] [$rbp+0]
	#DEBUG_VALUE: technicalGrid <- $r15
	#DEBUG_VALUE: gridDims <- [DW_OP_plus_uconst 264, DW_OP_stack_value] $r15
	#DEBUG_VALUE: propagateFields:perBGrid <- [DW_OP_constu 56, DW_OP_minus] [$rbp+0]
	#DEBUG_VALUE: propagateFields:perBDt2Grid <- [DW_OP_constu 112, DW_OP_minus] [$rbp+0]
	#DEBUG_VALUE: propagateFields:EGrid <- [DW_OP_constu 96, DW_OP_minus] [$rbp+0]
	#DEBUG_VALUE: propagateFields:EDt2Grid <- [DW_OP_constu 128, DW_OP_minus] [$rbp+0]
	#DEBUG_VALUE: propagateFields:EHallGrid <- [DW_OP_constu 88, DW_OP_minus] [$rbp+0]
	#DEBUG_VALUE: propagateFields:EGradPeGrid <- [DW_OP_constu 80, DW_OP_minus] [$rbp+0]
	#DEBUG_VALUE: propagateFields:momentsGrid <- [DW_OP_plus_uconst 16] [$rbp+0]
	#DEBUG_VALUE: propagateFields:momentsDt2Grid <- [DW_OP_plus_uconst 24] [$rbp+0]
	#DEBUG_VALUE: propagateFields:dPerBGrid <- [DW_OP_plus_uconst 32] [$rbp+0]
	#DEBUG_VALUE: propagateFields:dMomentsGrid <- [DW_OP_plus_uconst 40] [$rbp+0]
	#DEBUG_VALUE: propagateFields:BgBGrid <- [DW_OP_plus_uconst 48] [$rbp+0]
	#DEBUG_VALUE: propagateFields:volGrid <- [DW_OP_plus_uconst 56] [$rbp+0]
	#DEBUG_VALUE: propagateFields:technicalGrid <- [DW_OP_plus_uconst 64] [$rbp+0]
	#DEBUG_VALUE: propagateFields:sysBoundaries <- [DW_OP_plus_uconst 72] [$rbp+0]
	#DEBUG_VALUE: propagateFields:dt <- [DW_OP_plus_uconst 80] [$rbp+0]
	#DEBUG_VALUE: propagateFields:subcycles <- [DW_OP_plus_uconst 88] [$rbp+0]
	.loc	1 658 1                 # fieldsolver/ldz_main.cpp:658:1
	movq	-184(%rbp), %rdi
	cmpq	%rbx, %rdi
	je	.LBB3_81
.Ltmp181:
# %bb.80:                               # %L.B1207
                                        #   in Loop: Header=BB3_23 Depth=1
	#DEBUG_VALUE: ....inline.__FILL_CHARARRAY <- [DW_OP_LLVM_convert 32 7, DW_OP_LLVM_convert 8 7, DW_OP_stack_value] 0
	#DEBUG_VALUE: hallTermCommunicateDerivatives <- [DW_OP_constu 120, DW_OP_minus] [$rbp+0]
	#DEBUG_VALUE: technicalGrid <- $r15
	#DEBUG_VALUE: gridDims <- [DW_OP_plus_uconst 264, DW_OP_stack_value] $r15
	#DEBUG_VALUE: propagateFields:perBGrid <- [DW_OP_constu 56, DW_OP_minus] [$rbp+0]
	#DEBUG_VALUE: propagateFields:perBDt2Grid <- [DW_OP_constu 112, DW_OP_minus] [$rbp+0]
	#DEBUG_VALUE: propagateFields:EGrid <- [DW_OP_constu 96, DW_OP_minus] [$rbp+0]
	#DEBUG_VALUE: propagateFields:EDt2Grid <- [DW_OP_constu 128, DW_OP_minus] [$rbp+0]
	#DEBUG_VALUE: propagateFields:EHallGrid <- [DW_OP_constu 88, DW_OP_minus] [$rbp+0]
	#DEBUG_VALUE: propagateFields:EGradPeGrid <- [DW_OP_constu 80, DW_OP_minus] [$rbp+0]
	#DEBUG_VALUE: propagateFields:momentsGrid <- [DW_OP_plus_uconst 16] [$rbp+0]
	#DEBUG_VALUE: propagateFields:momentsDt2Grid <- [DW_OP_plus_uconst 24] [$rbp+0]
	#DEBUG_VALUE: propagateFields:dPerBGrid <- [DW_OP_plus_uconst 32] [$rbp+0]
	#DEBUG_VALUE: propagateFields:dMomentsGrid <- [DW_OP_plus_uconst 40] [$rbp+0]
	#DEBUG_VALUE: propagateFields:BgBGrid <- [DW_OP_plus_uconst 48] [$rbp+0]
	#DEBUG_VALUE: propagateFields:volGrid <- [DW_OP_plus_uconst 56] [$rbp+0]
	#DEBUG_VALUE: propagateFields:technicalGrid <- [DW_OP_plus_uconst 64] [$rbp+0]
	#DEBUG_VALUE: propagateFields:sysBoundaries <- [DW_OP_plus_uconst 72] [$rbp+0]
	#DEBUG_VALUE: propagateFields:dt <- [DW_OP_plus_uconst 80] [$rbp+0]
	#DEBUG_VALUE: propagateFields:subcycles <- [DW_OP_plus_uconst 88] [$rbp+0]
	.cfi_escape 0x2e, 0x00
	callq	_ZdlPv
.Ltmp182:
.LBB3_81:                               # %L..inline.66451
                                        #   in Loop: Header=BB3_23 Depth=1
	#DEBUG_VALUE: ....inline.__FILL_CHARARRAY <- [DW_OP_LLVM_convert 32 7, DW_OP_LLVM_convert 8 7, DW_OP_stack_value] 0
	#DEBUG_VALUE: hallTermCommunicateDerivatives <- [DW_OP_constu 120, DW_OP_minus] [$rbp+0]
	#DEBUG_VALUE: technicalGrid <- $r15
	#DEBUG_VALUE: gridDims <- [DW_OP_plus_uconst 264, DW_OP_stack_value] $r15
	#DEBUG_VALUE: propagateFields:perBGrid <- [DW_OP_constu 56, DW_OP_minus] [$rbp+0]
	#DEBUG_VALUE: propagateFields:perBDt2Grid <- [DW_OP_constu 112, DW_OP_minus] [$rbp+0]
	#DEBUG_VALUE: propagateFields:EGrid <- [DW_OP_constu 96, DW_OP_minus] [$rbp+0]
	#DEBUG_VALUE: propagateFields:EDt2Grid <- [DW_OP_constu 128, DW_OP_minus] [$rbp+0]
	#DEBUG_VALUE: propagateFields:EHallGrid <- [DW_OP_constu 88, DW_OP_minus] [$rbp+0]
	#DEBUG_VALUE: propagateFields:EGradPeGrid <- [DW_OP_constu 80, DW_OP_minus] [$rbp+0]
	#DEBUG_VALUE: propagateFields:momentsGrid <- [DW_OP_plus_uconst 16] [$rbp+0]
	#DEBUG_VALUE: propagateFields:momentsDt2Grid <- [DW_OP_plus_uconst 24] [$rbp+0]
	#DEBUG_VALUE: propagateFields:dPerBGrid <- [DW_OP_plus_uconst 32] [$rbp+0]
	#DEBUG_VALUE: propagateFields:dMomentsGrid <- [DW_OP_plus_uconst 40] [$rbp+0]
	#DEBUG_VALUE: propagateFields:BgBGrid <- [DW_OP_plus_uconst 48] [$rbp+0]
	#DEBUG_VALUE: propagateFields:volGrid <- [DW_OP_plus_uconst 56] [$rbp+0]
	#DEBUG_VALUE: propagateFields:technicalGrid <- [DW_OP_plus_uconst 64] [$rbp+0]
	#DEBUG_VALUE: propagateFields:sysBoundaries <- [DW_OP_plus_uconst 72] [$rbp+0]
	#DEBUG_VALUE: propagateFields:dt <- [DW_OP_plus_uconst 80] [$rbp+0]
	#DEBUG_VALUE: propagateFields:subcycles <- [DW_OP_plus_uconst 88] [$rbp+0]
	movq	-224(%rbp), %rdi
	leaq	-208(%rbp), %rax
	cmpq	%rax, %rdi
	je	.LBB3_22
.Ltmp183:
# %bb.82:                               # %L.B1208
                                        #   in Loop: Header=BB3_23 Depth=1
	#DEBUG_VALUE: ....inline.__FILL_CHARARRAY <- [DW_OP_LLVM_convert 32 7, DW_OP_LLVM_convert 8 7, DW_OP_stack_value] 0
	#DEBUG_VALUE: hallTermCommunicateDerivatives <- [DW_OP_constu 120, DW_OP_minus] [$rbp+0]
	#DEBUG_VALUE: technicalGrid <- $r15
	#DEBUG_VALUE: gridDims <- [DW_OP_plus_uconst 264, DW_OP_stack_value] $r15
	#DEBUG_VALUE: propagateFields:perBGrid <- [DW_OP_constu 56, DW_OP_minus] [$rbp+0]
	#DEBUG_VALUE: propagateFields:perBDt2Grid <- [DW_OP_constu 112, DW_OP_minus] [$rbp+0]
	#DEBUG_VALUE: propagateFields:EGrid <- [DW_OP_constu 96, DW_OP_minus] [$rbp+0]
	#DEBUG_VALUE: propagateFields:EDt2Grid <- [DW_OP_constu 128, DW_OP_minus] [$rbp+0]
	#DEBUG_VALUE: propagateFields:EHallGrid <- [DW_OP_constu 88, DW_OP_minus] [$rbp+0]
	#DEBUG_VALUE: propagateFields:EGradPeGrid <- [DW_OP_constu 80, DW_OP_minus] [$rbp+0]
	#DEBUG_VALUE: propagateFields:momentsGrid <- [DW_OP_plus_uconst 16] [$rbp+0]
	#DEBUG_VALUE: propagateFields:momentsDt2Grid <- [DW_OP_plus_uconst 24] [$rbp+0]
	#DEBUG_VALUE: propagateFields:dPerBGrid <- [DW_OP_plus_uconst 32] [$rbp+0]
	#DEBUG_VALUE: propagateFields:dMomentsGrid <- [DW_OP_plus_uconst 40] [$rbp+0]
	#DEBUG_VALUE: propagateFields:BgBGrid <- [DW_OP_plus_uconst 48] [$rbp+0]
	#DEBUG_VALUE: propagateFields:volGrid <- [DW_OP_plus_uconst 56] [$rbp+0]
	#DEBUG_VALUE: propagateFields:technicalGrid <- [DW_OP_plus_uconst 64] [$rbp+0]
	#DEBUG_VALUE: propagateFields:sysBoundaries <- [DW_OP_plus_uconst 72] [$rbp+0]
	#DEBUG_VALUE: propagateFields:dt <- [DW_OP_plus_uconst 80] [$rbp+0]
	#DEBUG_VALUE: propagateFields:subcycles <- [DW_OP_plus_uconst 88] [$rbp+0]
	.cfi_escape 0x2e, 0x00
	callq	_ZdlPv
	jmp	.LBB3_22
.Ltmp184:
.LBB3_83:                               # %L.N0008
	#DEBUG_VALUE: subcycleCount <- [DW_OP_constu 232, DW_OP_minus] [$rbp+0]
	#DEBUG_VALUE: subcycleT <- $xmm2
	#DEBUG_VALUE: ....inline.__FILL_CHARARRAY <- [DW_OP_LLVM_convert 32 7, DW_OP_LLVM_convert 8 7, DW_OP_stack_value] 0
	#DEBUG_VALUE: hallTermCommunicateDerivatives <- [DW_OP_constu 120, DW_OP_minus] [$rbp+0]
	#DEBUG_VALUE: technicalGrid <- $r15
	#DEBUG_VALUE: gridDims <- [DW_OP_plus_uconst 264, DW_OP_stack_value] $r15
	#DEBUG_VALUE: propagateFields:perBGrid <- [DW_OP_constu 56, DW_OP_minus] [$rbp+0]
	#DEBUG_VALUE: propagateFields:perBDt2Grid <- [DW_OP_constu 112, DW_OP_minus] [$rbp+0]
	#DEBUG_VALUE: propagateFields:EGrid <- [DW_OP_constu 96, DW_OP_minus] [$rbp+0]
	#DEBUG_VALUE: propagateFields:EDt2Grid <- [DW_OP_constu 128, DW_OP_minus] [$rbp+0]
	#DEBUG_VALUE: propagateFields:EHallGrid <- [DW_OP_constu 88, DW_OP_minus] [$rbp+0]
	#DEBUG_VALUE: propagateFields:EGradPeGrid <- [DW_OP_constu 80, DW_OP_minus] [$rbp+0]
	#DEBUG_VALUE: propagateFields:momentsGrid <- [DW_OP_plus_uconst 16] [$rbp+0]
	#DEBUG_VALUE: propagateFields:momentsDt2Grid <- [DW_OP_plus_uconst 24] [$rbp+0]
	#DEBUG_VALUE: propagateFields:dPerBGrid <- [DW_OP_plus_uconst 32] [$rbp+0]
	#DEBUG_VALUE: propagateFields:dMomentsGrid <- [DW_OP_plus_uconst 40] [$rbp+0]
	#DEBUG_VALUE: propagateFields:BgBGrid <- [DW_OP_plus_uconst 48] [$rbp+0]
	#DEBUG_VALUE: propagateFields:volGrid <- [DW_OP_plus_uconst 56] [$rbp+0]
	#DEBUG_VALUE: propagateFields:technicalGrid <- [DW_OP_plus_uconst 64] [$rbp+0]
	#DEBUG_VALUE: propagateFields:sysBoundaries <- [DW_OP_plus_uconst 72] [$rbp+0]
	#DEBUG_VALUE: propagateFields:dt <- [DW_OP_plus_uconst 80] [$rbp+0]
	#DEBUG_VALUE: propagateFields:subcycles <- [DW_OP_plus_uconst 88] [$rbp+0]
	.loc	1 344 1                 # fieldsolver/ldz_main.cpp:344:1
	vucomisd	%xmm0, %xmm2
	jbe	.LBB3_98
.Ltmp185:
# %bb.84:                               # %L..inline.64692
	#DEBUG_VALUE: subcycleCount <- [DW_OP_constu 232, DW_OP_minus] [$rbp+0]
	#DEBUG_VALUE: subcycleT <- $xmm2
	#DEBUG_VALUE: ....inline.__FILL_CHARARRAY <- [DW_OP_LLVM_convert 32 7, DW_OP_LLVM_convert 8 7, DW_OP_stack_value] 0
	#DEBUG_VALUE: hallTermCommunicateDerivatives <- [DW_OP_constu 120, DW_OP_minus] [$rbp+0]
	#DEBUG_VALUE: technicalGrid <- $r15
	#DEBUG_VALUE: gridDims <- [DW_OP_plus_uconst 264, DW_OP_stack_value] $r15
	#DEBUG_VALUE: propagateFields:perBGrid <- [DW_OP_constu 56, DW_OP_minus] [$rbp+0]
	#DEBUG_VALUE: propagateFields:perBDt2Grid <- [DW_OP_constu 112, DW_OP_minus] [$rbp+0]
	#DEBUG_VALUE: propagateFields:EGrid <- [DW_OP_constu 96, DW_OP_minus] [$rbp+0]
	#DEBUG_VALUE: propagateFields:EDt2Grid <- [DW_OP_constu 128, DW_OP_minus] [$rbp+0]
	#DEBUG_VALUE: propagateFields:EHallGrid <- [DW_OP_constu 88, DW_OP_minus] [$rbp+0]
	#DEBUG_VALUE: propagateFields:EGradPeGrid <- [DW_OP_constu 80, DW_OP_minus] [$rbp+0]
	#DEBUG_VALUE: propagateFields:momentsGrid <- [DW_OP_plus_uconst 16] [$rbp+0]
	#DEBUG_VALUE: propagateFields:momentsDt2Grid <- [DW_OP_plus_uconst 24] [$rbp+0]
	#DEBUG_VALUE: propagateFields:dPerBGrid <- [DW_OP_plus_uconst 32] [$rbp+0]
	#DEBUG_VALUE: propagateFields:dMomentsGrid <- [DW_OP_plus_uconst 40] [$rbp+0]
	#DEBUG_VALUE: propagateFields:BgBGrid <- [DW_OP_plus_uconst 48] [$rbp+0]
	#DEBUG_VALUE: propagateFields:volGrid <- [DW_OP_plus_uconst 56] [$rbp+0]
	#DEBUG_VALUE: propagateFields:technicalGrid <- [DW_OP_plus_uconst 64] [$rbp+0]
	#DEBUG_VALUE: propagateFields:sysBoundaries <- [DW_OP_plus_uconst 72] [$rbp+0]
	#DEBUG_VALUE: propagateFields:dt <- [DW_OP_plus_uconst 80] [$rbp+0]
	#DEBUG_VALUE: propagateFields:subcycles <- [DW_OP_plus_uconst 88] [$rbp+0]
	.cfi_escape 0x2e, 0x00
	.loc	1 570 1                 # fieldsolver/ldz_main.cpp:570:1
	movl	$_ZSt4cerr, %edi
	movl	$.S53057, %esi
	movl	$59, %edx
	callq	_ZSt16__ostream_insertIcSt11char_traitsIcEERSt13basic_ostreamIT_T0_ES6_PKS3_l
.Ltmp186:
	.cfi_escape 0x2e, 0x00
	.loc	1 221 1                 # fieldsolver/ldz_main.cpp:221:1
	movl	$_ZSt4cerr, %edi
	vmovsd	-144(%rbp), %xmm0       # 8-byte Reload
                                        # xmm0 = mem[0],zero
	callq	_ZNSo9_M_insertIdEERSoT_
	movq	%rax, %r14
.Ltmp187:
	.cfi_escape 0x2e, 0x00
	.loc	1 570 1                 # fieldsolver/ldz_main.cpp:570:1
	movl	$.S53059, %esi
	movl	$13, %edx
	movq	%rax, %rdi
	callq	_ZSt16__ostream_insertIcSt11char_traitsIcEERSt13basic_ostreamIT_T0_ES6_PKS3_l
.Ltmp188:
	.loc	1 346 1                 # fieldsolver/ldz_main.cpp:346:1
	vmovsd	-64(%rbp), %xmm0        # xmm0 = mem[0],zero
.Ltmp189:
	#DEBUG_VALUE: subcycleDt <- $xmm0
	.cfi_escape 0x2e, 0x00
	.loc	1 221 1                 # fieldsolver/ldz_main.cpp:221:1
	movq	%r14, %rdi
	callq	_ZNSo9_M_insertIdEERSoT_
.Ltmp190:
	movq	%rax, %r14
.Ltmp191:
	.cfi_escape 0x2e, 0x00
	.loc	1 570 1                 # fieldsolver/ldz_main.cpp:570:1
	movl	$.S53061, %esi
	movl	$10, %edx
	movq	%rax, %rdi
	callq	_ZSt16__ostream_insertIcSt11char_traitsIcEERSt13basic_ostreamIT_T0_ES6_PKS3_l
	.cfi_escape 0x2e, 0x00
.Ltmp192:
	.loc	1 221 1                 # fieldsolver/ldz_main.cpp:221:1
	movq	%r14, %rdi
	vmovsd	-240(%rbp), %xmm0       # 8-byte Reload
                                        # xmm0 = mem[0],zero
	callq	_ZNSo9_M_insertIdEERSoT_
	movq	%rax, %r14
.Ltmp193:
	.cfi_escape 0x2e, 0x00
	.loc	1 570 1                 # fieldsolver/ldz_main.cpp:570:1
	movl	$.S53063, %esi
	movl	$1, %edx
	movq	%rax, %rdi
	callq	_ZSt16__ostream_insertIcSt11char_traitsIcEERSt13basic_ostreamIT_T0_ES6_PKS3_l
.Ltmp194:
	#DEBUG_VALUE: __os <- $r14
	#DEBUG_VALUE: endl:__os <- $r14
	.file	4 "/usr/include/c++/9/ostream"
	.loc	4 600 1                 # /usr/include/c++/9/ostream:600:1
	movq	(%r14), %rax
	movq	-24(%rax), %rax
	.loc	4 450 1                 # /usr/include/c++/9/ostream:450:1
	movq	240(%r14,%rax), %r13
	testq	%r13, %r13
	je	.LBB3_109
.Ltmp195:
# %bb.85:                               # %L..inline.78576.i
	#DEBUG_VALUE: endl:__os <- $r14
	#DEBUG_VALUE: __os <- $r14
	#DEBUG_VALUE: ....inline.__FILL_CHARARRAY <- [DW_OP_LLVM_convert 32 7, DW_OP_LLVM_convert 8 7, DW_OP_stack_value] 0
	#DEBUG_VALUE: hallTermCommunicateDerivatives <- [DW_OP_constu 120, DW_OP_minus] [$rbp+0]
	#DEBUG_VALUE: technicalGrid <- $r15
	#DEBUG_VALUE: gridDims <- [DW_OP_plus_uconst 264, DW_OP_stack_value] $r15
	#DEBUG_VALUE: propagateFields:perBGrid <- [DW_OP_constu 56, DW_OP_minus] [$rbp+0]
	#DEBUG_VALUE: propagateFields:perBDt2Grid <- [DW_OP_constu 112, DW_OP_minus] [$rbp+0]
	#DEBUG_VALUE: propagateFields:EGrid <- [DW_OP_constu 96, DW_OP_minus] [$rbp+0]
	#DEBUG_VALUE: propagateFields:EDt2Grid <- [DW_OP_constu 128, DW_OP_minus] [$rbp+0]
	#DEBUG_VALUE: propagateFields:EHallGrid <- [DW_OP_constu 88, DW_OP_minus] [$rbp+0]
	#DEBUG_VALUE: propagateFields:EGradPeGrid <- [DW_OP_constu 80, DW_OP_minus] [$rbp+0]
	#DEBUG_VALUE: propagateFields:momentsGrid <- [DW_OP_plus_uconst 16] [$rbp+0]
	#DEBUG_VALUE: propagateFields:momentsDt2Grid <- [DW_OP_plus_uconst 24] [$rbp+0]
	#DEBUG_VALUE: propagateFields:dPerBGrid <- [DW_OP_plus_uconst 32] [$rbp+0]
	#DEBUG_VALUE: propagateFields:dMomentsGrid <- [DW_OP_plus_uconst 40] [$rbp+0]
	#DEBUG_VALUE: propagateFields:BgBGrid <- [DW_OP_plus_uconst 48] [$rbp+0]
	#DEBUG_VALUE: propagateFields:volGrid <- [DW_OP_plus_uconst 56] [$rbp+0]
	#DEBUG_VALUE: propagateFields:technicalGrid <- [DW_OP_plus_uconst 64] [$rbp+0]
	#DEBUG_VALUE: propagateFields:sysBoundaries <- [DW_OP_plus_uconst 72] [$rbp+0]
	#DEBUG_VALUE: propagateFields:dt <- [DW_OP_plus_uconst 80] [$rbp+0]
	#DEBUG_VALUE: propagateFields:subcycles <- [DW_OP_plus_uconst 88] [$rbp+0]
	cmpb	$0, 56(%r13)
	je	.LBB3_96
.Ltmp196:
# %bb.86:                               # %L.B2082.i
	#DEBUG_VALUE: endl:__os <- $r14
	#DEBUG_VALUE: __os <- $r14
	#DEBUG_VALUE: ....inline.__FILL_CHARARRAY <- [DW_OP_LLVM_convert 32 7, DW_OP_LLVM_convert 8 7, DW_OP_stack_value] 0
	#DEBUG_VALUE: hallTermCommunicateDerivatives <- [DW_OP_constu 120, DW_OP_minus] [$rbp+0]
	#DEBUG_VALUE: technicalGrid <- $r15
	#DEBUG_VALUE: gridDims <- [DW_OP_plus_uconst 264, DW_OP_stack_value] $r15
	#DEBUG_VALUE: propagateFields:perBGrid <- [DW_OP_constu 56, DW_OP_minus] [$rbp+0]
	#DEBUG_VALUE: propagateFields:perBDt2Grid <- [DW_OP_constu 112, DW_OP_minus] [$rbp+0]
	#DEBUG_VALUE: propagateFields:EGrid <- [DW_OP_constu 96, DW_OP_minus] [$rbp+0]
	#DEBUG_VALUE: propagateFields:EDt2Grid <- [DW_OP_constu 128, DW_OP_minus] [$rbp+0]
	#DEBUG_VALUE: propagateFields:EHallGrid <- [DW_OP_constu 88, DW_OP_minus] [$rbp+0]
	#DEBUG_VALUE: propagateFields:EGradPeGrid <- [DW_OP_constu 80, DW_OP_minus] [$rbp+0]
	#DEBUG_VALUE: propagateFields:momentsGrid <- [DW_OP_plus_uconst 16] [$rbp+0]
	#DEBUG_VALUE: propagateFields:momentsDt2Grid <- [DW_OP_plus_uconst 24] [$rbp+0]
	#DEBUG_VALUE: propagateFields:dPerBGrid <- [DW_OP_plus_uconst 32] [$rbp+0]
	#DEBUG_VALUE: propagateFields:dMomentsGrid <- [DW_OP_plus_uconst 40] [$rbp+0]
	#DEBUG_VALUE: propagateFields:BgBGrid <- [DW_OP_plus_uconst 48] [$rbp+0]
	#DEBUG_VALUE: propagateFields:volGrid <- [DW_OP_plus_uconst 56] [$rbp+0]
	#DEBUG_VALUE: propagateFields:technicalGrid <- [DW_OP_plus_uconst 64] [$rbp+0]
	#DEBUG_VALUE: propagateFields:sysBoundaries <- [DW_OP_plus_uconst 72] [$rbp+0]
	#DEBUG_VALUE: propagateFields:dt <- [DW_OP_plus_uconst 80] [$rbp+0]
	#DEBUG_VALUE: propagateFields:subcycles <- [DW_OP_plus_uconst 88] [$rbp+0]
	movb	67(%r13), %al
	jmp	.LBB3_97
.Ltmp197:
.LBB3_87:                               # %L_T32392608_51664.loopexit
	#DEBUG_VALUE: ....inline.__FILL_CHARARRAY <- [DW_OP_LLVM_convert 32 7, DW_OP_LLVM_convert 8 7, DW_OP_stack_value] 0
	#DEBUG_VALUE: hallTermCommunicateDerivatives <- [DW_OP_constu 120, DW_OP_minus] [$rbp+0]
	#DEBUG_VALUE: technicalGrid <- $r15
	#DEBUG_VALUE: gridDims <- [DW_OP_plus_uconst 264, DW_OP_stack_value] $r15
	#DEBUG_VALUE: propagateFields:perBGrid <- [DW_OP_constu 56, DW_OP_minus] [$rbp+0]
	#DEBUG_VALUE: propagateFields:perBDt2Grid <- [DW_OP_constu 112, DW_OP_minus] [$rbp+0]
	#DEBUG_VALUE: propagateFields:EGrid <- [DW_OP_constu 96, DW_OP_minus] [$rbp+0]
	#DEBUG_VALUE: propagateFields:EDt2Grid <- [DW_OP_constu 128, DW_OP_minus] [$rbp+0]
	#DEBUG_VALUE: propagateFields:EHallGrid <- [DW_OP_constu 88, DW_OP_minus] [$rbp+0]
	#DEBUG_VALUE: propagateFields:EGradPeGrid <- [DW_OP_constu 80, DW_OP_minus] [$rbp+0]
	#DEBUG_VALUE: propagateFields:momentsGrid <- [DW_OP_plus_uconst 16] [$rbp+0]
	#DEBUG_VALUE: propagateFields:momentsDt2Grid <- [DW_OP_plus_uconst 24] [$rbp+0]
	#DEBUG_VALUE: propagateFields:dPerBGrid <- [DW_OP_plus_uconst 32] [$rbp+0]
	#DEBUG_VALUE: propagateFields:dMomentsGrid <- [DW_OP_plus_uconst 40] [$rbp+0]
	#DEBUG_VALUE: propagateFields:BgBGrid <- [DW_OP_plus_uconst 48] [$rbp+0]
	#DEBUG_VALUE: propagateFields:volGrid <- [DW_OP_plus_uconst 56] [$rbp+0]
	#DEBUG_VALUE: propagateFields:technicalGrid <- [DW_OP_plus_uconst 64] [$rbp+0]
	#DEBUG_VALUE: propagateFields:sysBoundaries <- [DW_OP_plus_uconst 72] [$rbp+0]
	#DEBUG_VALUE: propagateFields:dt <- [DW_OP_plus_uconst 80] [$rbp+0]
	#DEBUG_VALUE: propagateFields:subcycles <- [DW_OP_plus_uconst 88] [$rbp+0]
	.loc	4 0 1 is_stmt 0         # /usr/include/c++/9/ostream:0:1
	movl	88(%rbp), %eax
	movq	72(%rbp), %r13
.Ltmp198:
	.loc	1 404 1 is_stmt 1       # fieldsolver/ldz_main.cpp:404:1
	cmpl	$0, -188(%rbp)          # 4-byte Folded Reload
	je	.LBB3_105
	jmp	.LBB3_107
.Ltmp199:
.LBB3_88:
	#DEBUG_VALUE: momentsDt2Grid <- $r14
	#DEBUG_VALUE: sysBoundaries <- $r12
	#DEBUG_VALUE: technicalGrid <- $r15
	#DEBUG_VALUE: hallTermCommunicateDerivatives <- 1
	#DEBUG_VALUE: gridDims <- [DW_OP_plus_uconst 264, DW_OP_stack_value] $r15
	#DEBUG_VALUE: propagateFields:perBGrid <- [DW_OP_constu 56, DW_OP_minus] [$rbp+0]
	#DEBUG_VALUE: propagateFields:perBDt2Grid <- [DW_OP_constu 112, DW_OP_minus] [$rbp+0]
	#DEBUG_VALUE: propagateFields:EGrid <- [DW_OP_constu 96, DW_OP_minus] [$rbp+0]
	#DEBUG_VALUE: propagateFields:EDt2Grid <- [DW_OP_constu 128, DW_OP_minus] [$rbp+0]
	#DEBUG_VALUE: propagateFields:EHallGrid <- [DW_OP_constu 88, DW_OP_minus] [$rbp+0]
	#DEBUG_VALUE: propagateFields:EGradPeGrid <- [DW_OP_constu 80, DW_OP_minus] [$rbp+0]
	#DEBUG_VALUE: propagateFields:momentsGrid <- [DW_OP_plus_uconst 16] [$rbp+0]
	#DEBUG_VALUE: propagateFields:momentsDt2Grid <- [DW_OP_plus_uconst 24] [$rbp+0]
	#DEBUG_VALUE: propagateFields:dPerBGrid <- [DW_OP_plus_uconst 32] [$rbp+0]
	#DEBUG_VALUE: propagateFields:dMomentsGrid <- [DW_OP_plus_uconst 40] [$rbp+0]
	#DEBUG_VALUE: propagateFields:BgBGrid <- [DW_OP_plus_uconst 48] [$rbp+0]
	#DEBUG_VALUE: propagateFields:volGrid <- [DW_OP_plus_uconst 56] [$rbp+0]
	#DEBUG_VALUE: propagateFields:technicalGrid <- [DW_OP_plus_uconst 64] [$rbp+0]
	#DEBUG_VALUE: propagateFields:sysBoundaries <- [DW_OP_plus_uconst 72] [$rbp+0]
	#DEBUG_VALUE: propagateFields:dt <- [DW_OP_plus_uconst 80] [$rbp+0]
	#DEBUG_VALUE: propagateFields:subcycles <- [DW_OP_plus_uconst 88] [$rbp+0]
	.loc	1 0 1 is_stmt 0         # fieldsolver/ldz_main.cpp:0:1
	movl	$1, %r14d
.Ltmp200:
.LBB3_89:                               # %L.B0019
	#DEBUG_VALUE: sysBoundaries <- $r12
	#DEBUG_VALUE: technicalGrid <- $r15
	#DEBUG_VALUE: gridDims <- [DW_OP_plus_uconst 264, DW_OP_stack_value] $r15
	#DEBUG_VALUE: propagateFields:perBGrid <- [DW_OP_constu 56, DW_OP_minus] [$rbp+0]
	#DEBUG_VALUE: propagateFields:perBDt2Grid <- [DW_OP_constu 112, DW_OP_minus] [$rbp+0]
	#DEBUG_VALUE: propagateFields:EGrid <- [DW_OP_constu 96, DW_OP_minus] [$rbp+0]
	#DEBUG_VALUE: propagateFields:EDt2Grid <- [DW_OP_constu 128, DW_OP_minus] [$rbp+0]
	#DEBUG_VALUE: propagateFields:EHallGrid <- [DW_OP_constu 88, DW_OP_minus] [$rbp+0]
	#DEBUG_VALUE: propagateFields:EGradPeGrid <- [DW_OP_constu 80, DW_OP_minus] [$rbp+0]
	#DEBUG_VALUE: propagateFields:momentsGrid <- [DW_OP_plus_uconst 16] [$rbp+0]
	#DEBUG_VALUE: propagateFields:momentsDt2Grid <- [DW_OP_plus_uconst 24] [$rbp+0]
	#DEBUG_VALUE: propagateFields:dPerBGrid <- [DW_OP_plus_uconst 32] [$rbp+0]
	#DEBUG_VALUE: propagateFields:dMomentsGrid <- [DW_OP_plus_uconst 40] [$rbp+0]
	#DEBUG_VALUE: propagateFields:BgBGrid <- [DW_OP_plus_uconst 48] [$rbp+0]
	#DEBUG_VALUE: propagateFields:volGrid <- [DW_OP_plus_uconst 56] [$rbp+0]
	#DEBUG_VALUE: propagateFields:technicalGrid <- [DW_OP_plus_uconst 64] [$rbp+0]
	#DEBUG_VALUE: propagateFields:sysBoundaries <- [DW_OP_plus_uconst 72] [$rbp+0]
	#DEBUG_VALUE: propagateFields:dt <- [DW_OP_plus_uconst 80] [$rbp+0]
	#DEBUG_VALUE: propagateFields:subcycles <- [DW_OP_plus_uconst 88] [$rbp+0]
	movq	-88(%rbp), %r8          # 8-byte Reload
.Ltmp201:
	#DEBUG_VALUE: hallTermCommunicateDerivatives <- $r14d
	.loc	1 171 1 is_stmt 1       # fieldsolver/ldz_main.cpp:171:1
	cmpl	$0, _ZN10Parameters11ohmHallTermE(%rip)
	movq	72(%rbp), %r10
	movq	-112(%rbp), %r13        # 8-byte Reload
	movq	16(%rbp), %rbx
	movq	24(%rbp), %r9
	movq	40(%rbp), %r11
	movq	-56(%rbp), %r12         # 8-byte Reload
.Ltmp202:
	je	.LBB3_91
.Ltmp203:
# %bb.90:                               # %L.B1140
	#DEBUG_VALUE: hallTermCommunicateDerivatives <- $r14d
	#DEBUG_VALUE: technicalGrid <- $r15
	#DEBUG_VALUE: gridDims <- [DW_OP_plus_uconst 264, DW_OP_stack_value] $r15
	#DEBUG_VALUE: propagateFields:perBGrid <- [DW_OP_constu 56, DW_OP_minus] [$rbp+0]
	#DEBUG_VALUE: propagateFields:perBDt2Grid <- [DW_OP_constu 112, DW_OP_minus] [$rbp+0]
	#DEBUG_VALUE: propagateFields:EGrid <- [DW_OP_constu 96, DW_OP_minus] [$rbp+0]
	#DEBUG_VALUE: propagateFields:EDt2Grid <- [DW_OP_constu 128, DW_OP_minus] [$rbp+0]
	#DEBUG_VALUE: propagateFields:EHallGrid <- [DW_OP_constu 88, DW_OP_minus] [$rbp+0]
	#DEBUG_VALUE: propagateFields:EGradPeGrid <- [DW_OP_constu 80, DW_OP_minus] [$rbp+0]
	#DEBUG_VALUE: propagateFields:momentsGrid <- [DW_OP_plus_uconst 16] [$rbp+0]
	#DEBUG_VALUE: propagateFields:momentsDt2Grid <- [DW_OP_plus_uconst 24] [$rbp+0]
	#DEBUG_VALUE: propagateFields:dPerBGrid <- [DW_OP_plus_uconst 32] [$rbp+0]
	#DEBUG_VALUE: propagateFields:dMomentsGrid <- [DW_OP_plus_uconst 40] [$rbp+0]
	#DEBUG_VALUE: propagateFields:BgBGrid <- [DW_OP_plus_uconst 48] [$rbp+0]
	#DEBUG_VALUE: propagateFields:volGrid <- [DW_OP_plus_uconst 56] [$rbp+0]
	#DEBUG_VALUE: propagateFields:technicalGrid <- [DW_OP_plus_uconst 64] [$rbp+0]
	#DEBUG_VALUE: propagateFields:sysBoundaries <- [DW_OP_plus_uconst 72] [$rbp+0]
	#DEBUG_VALUE: propagateFields:dt <- [DW_OP_plus_uconst 80] [$rbp+0]
	#DEBUG_VALUE: propagateFields:subcycles <- [DW_OP_plus_uconst 88] [$rbp+0]
	.loc	1 172 1                 # fieldsolver/ldz_main.cpp:172:1
	movl	$1, -268(%rbp)
	.cfi_escape 0x2e, 0x30
	leaq	-268(%rbp), %rax
	movq	%r12, %rdi
	movq	%r13, %rsi
	movq	%r8, %rdx
	movq	%rbx, %rcx
	movq	%r9, %r8
	movq	32(%rbp), %r9
	pushq	%r14
	pushq	%rax
	pushq	%r10
	pushq	%r15
	pushq	48(%rbp)
	pushq	%r11
	callq	_Z23calculateHallTermSimpleR6FsGridISt5arrayIdLm3EELi2EES3_RS_IS0_IdLm12EELi2EERS_IS0_IdLm8EELi2EES9_RS_IS0_IdLm15EELi2EERS_IS0_IdLm24EELi2EERS_IS0_IdLm18EELi2EERS_IN7fsgrids9technicalELi2EER11SysBoundaryRKib
	movq	40(%rbp), %r11
	movq	-88(%rbp), %r8          # 8-byte Reload
	addq	$48, %rsp
.Ltmp204:
.LBB3_91:                               # %L.B0022
	#DEBUG_VALUE: hallTermCommunicateDerivatives <- $r14d
	#DEBUG_VALUE: technicalGrid <- $r15
	#DEBUG_VALUE: gridDims <- [DW_OP_plus_uconst 264, DW_OP_stack_value] $r15
	#DEBUG_VALUE: propagateFields:perBGrid <- [DW_OP_constu 56, DW_OP_minus] [$rbp+0]
	#DEBUG_VALUE: propagateFields:perBDt2Grid <- [DW_OP_constu 112, DW_OP_minus] [$rbp+0]
	#DEBUG_VALUE: propagateFields:EGrid <- [DW_OP_constu 96, DW_OP_minus] [$rbp+0]
	#DEBUG_VALUE: propagateFields:EDt2Grid <- [DW_OP_constu 128, DW_OP_minus] [$rbp+0]
	#DEBUG_VALUE: propagateFields:EHallGrid <- [DW_OP_constu 88, DW_OP_minus] [$rbp+0]
	#DEBUG_VALUE: propagateFields:EGradPeGrid <- [DW_OP_constu 80, DW_OP_minus] [$rbp+0]
	#DEBUG_VALUE: propagateFields:momentsGrid <- [DW_OP_plus_uconst 16] [$rbp+0]
	#DEBUG_VALUE: propagateFields:momentsDt2Grid <- [DW_OP_plus_uconst 24] [$rbp+0]
	#DEBUG_VALUE: propagateFields:dPerBGrid <- [DW_OP_plus_uconst 32] [$rbp+0]
	#DEBUG_VALUE: propagateFields:dMomentsGrid <- [DW_OP_plus_uconst 40] [$rbp+0]
	#DEBUG_VALUE: propagateFields:BgBGrid <- [DW_OP_plus_uconst 48] [$rbp+0]
	#DEBUG_VALUE: propagateFields:volGrid <- [DW_OP_plus_uconst 56] [$rbp+0]
	#DEBUG_VALUE: propagateFields:technicalGrid <- [DW_OP_plus_uconst 64] [$rbp+0]
	#DEBUG_VALUE: propagateFields:sysBoundaries <- [DW_OP_plus_uconst 72] [$rbp+0]
	#DEBUG_VALUE: propagateFields:dt <- [DW_OP_plus_uconst 80] [$rbp+0]
	#DEBUG_VALUE: propagateFields:subcycles <- [DW_OP_plus_uconst 88] [$rbp+0]
	.loc	1 0 1 is_stmt 0         # fieldsolver/ldz_main.cpp:0:1
	movq	%r14, -72(%rbp)         # 8-byte Spill
	.loc	1 187 1 is_stmt 1       # fieldsolver/ldz_main.cpp:187:1
	movl	$1, -48(%rbp)
	.cfi_escape 0x2e, 0x40
	movq	%r12, %rdi
	movq	%r13, %rsi
	movq	-96(%rbp), %r14         # 8-byte Reload
.Ltmp205:
	movq	%r14, %rdx
	movq	-128(%rbp), %r12        # 8-byte Reload
	movq	%r12, %rcx
	movq	-80(%rbp), %r9          # 8-byte Reload
	leaq	-48(%rbp), %rax
	pushq	%rax
	pushq	72(%rbp)
	pushq	%r15
	pushq	48(%rbp)
	pushq	%r11
	movq	32(%rbp), %rax
	pushq	%rax
	pushq	24(%rbp)
	pushq	%rbx
	callq	_Z36calculateUpwindedElectricFieldSimpleR6FsGridISt5arrayIdLm3EELi2EES3_S3_S3_RS_IS0_IdLm12EELi2EES3_RS_IS0_IdLm8EELi2EES9_RS_IS0_IdLm15EELi2EERS_IS0_IdLm24EELi2EERS_IS0_IdLm18EELi2EERS_IN7fsgrids9technicalELi2EER11SysBoundaryRKi
	addq	$64, %rsp
	.loc	1 204 1                 # fieldsolver/ldz_main.cpp:204:1
	movl	$2, -48(%rbp)
	.cfi_escape 0x2e, 0x10
	movq	-56(%rbp), %rdi         # 8-byte Reload
	movq	%r13, %rsi
	movq	%r14, %rdx
	movq	%r12, %rcx
	movq	24(%rbp), %r14
	movq	72(%rbp), %r9
	movq	%r15, %r8
	leaq	-48(%rbp), %r12
	pushq	%r12
	pushq	80(%rbp)
	callq	_Z28propagateMagneticFieldSimpleR6FsGridISt5arrayIdLm3EELi2EES3_S3_S3_RS_IN7fsgrids9technicalELi2EER11SysBoundaryRKdRKi
	addq	$16, %rsp
	.loc	1 205 1                 # fieldsolver/ldz_main.cpp:205:1
	movl	$2, -48(%rbp)
	.cfi_escape 0x2e, 0x20
	movq	-56(%rbp), %rdi         # 8-byte Reload
	movq	%r13, %rsi
	movq	%r14, %r13
	movq	16(%rbp), %r14
	movq	%r14, %rdx
	movq	%r13, %rcx
	movq	32(%rbp), %r8
	movq	40(%rbp), %rbx
	movq	%rbx, %r9
	pushq	$1
	pushq	%r12
	movq	72(%rbp), %r12
	pushq	%r12
	pushq	%r15
	callq	_Z26calculateDerivativesSimpleR6FsGridISt5arrayIdLm3EELi2EES3_RS_IS0_IdLm8EELi2EES6_RS_IS0_IdLm15EELi2EERS_IS0_IdLm24EELi2EERS_IN7fsgrids9technicalELi2EER11SysBoundaryRKib
	addq	$32, %rsp
.Ltmp206:
	.loc	1 206 1                 # fieldsolver/ldz_main.cpp:206:1
	cmpl	$0, _ZN10Parameters13ohmGradPeTermE(%rip)
	movq	%rbx, %r10
	je	.LBB3_93
.Ltmp207:
# %bb.92:                               # %L.B1141
	#DEBUG_VALUE: technicalGrid <- $r15
	#DEBUG_VALUE: gridDims <- [DW_OP_plus_uconst 264, DW_OP_stack_value] $r15
	#DEBUG_VALUE: propagateFields:perBGrid <- [DW_OP_constu 56, DW_OP_minus] [$rbp+0]
	#DEBUG_VALUE: propagateFields:perBDt2Grid <- [DW_OP_constu 112, DW_OP_minus] [$rbp+0]
	#DEBUG_VALUE: propagateFields:EGrid <- [DW_OP_constu 96, DW_OP_minus] [$rbp+0]
	#DEBUG_VALUE: propagateFields:EDt2Grid <- [DW_OP_constu 128, DW_OP_minus] [$rbp+0]
	#DEBUG_VALUE: propagateFields:EHallGrid <- [DW_OP_constu 88, DW_OP_minus] [$rbp+0]
	#DEBUG_VALUE: propagateFields:EGradPeGrid <- [DW_OP_constu 80, DW_OP_minus] [$rbp+0]
	#DEBUG_VALUE: propagateFields:momentsGrid <- [DW_OP_plus_uconst 16] [$rbp+0]
	#DEBUG_VALUE: propagateFields:momentsDt2Grid <- [DW_OP_plus_uconst 24] [$rbp+0]
	#DEBUG_VALUE: propagateFields:dPerBGrid <- [DW_OP_plus_uconst 32] [$rbp+0]
	#DEBUG_VALUE: propagateFields:dMomentsGrid <- [DW_OP_plus_uconst 40] [$rbp+0]
	#DEBUG_VALUE: propagateFields:BgBGrid <- [DW_OP_plus_uconst 48] [$rbp+0]
	#DEBUG_VALUE: propagateFields:volGrid <- [DW_OP_plus_uconst 56] [$rbp+0]
	#DEBUG_VALUE: propagateFields:technicalGrid <- [DW_OP_plus_uconst 64] [$rbp+0]
	#DEBUG_VALUE: propagateFields:sysBoundaries <- [DW_OP_plus_uconst 72] [$rbp+0]
	#DEBUG_VALUE: propagateFields:dt <- [DW_OP_plus_uconst 80] [$rbp+0]
	#DEBUG_VALUE: propagateFields:subcycles <- [DW_OP_plus_uconst 88] [$rbp+0]
	.loc	1 207 1                 # fieldsolver/ldz_main.cpp:207:1
	movl	$2, -264(%rbp)
	.cfi_escape 0x2e, 0x10
	subq	$8, %rsp
	leaq	-264(%rbp), %rax
	movq	-80(%rbp), %rdi         # 8-byte Reload
	movq	%r14, %rsi
	movq	%r13, %rdx
	movq	%r10, %rcx
	movq	%r15, %r8
	movq	%r12, %r9
	pushq	%rax
	movq	%r14, %rbx
	movq	%r10, %r14
	callq	_Z25calculateGradPeTermSimpleR6FsGridISt5arrayIdLm3EELi2EERS_IS0_IdLm8EELi2EES6_RS_IS0_IdLm24EELi2EERS_IN7fsgrids9technicalELi2EER11SysBoundaryRKi
	movq	%r14, %r10
	movq	%rbx, %r14
	addq	$16, %rsp
	xorl	%eax, %eax
.Ltmp208:
	#DEBUG_VALUE: hallTermCommunicateDerivatives <- 0
	.loc	1 0 1 is_stmt 0         # fieldsolver/ldz_main.cpp:0:1
	movq	%rax, -72(%rbp)         # 8-byte Spill
.Ltmp209:
.LBB3_93:                               # %L.B0025
	#DEBUG_VALUE: technicalGrid <- $r15
	#DEBUG_VALUE: gridDims <- [DW_OP_plus_uconst 264, DW_OP_stack_value] $r15
	#DEBUG_VALUE: propagateFields:perBGrid <- [DW_OP_constu 56, DW_OP_minus] [$rbp+0]
	#DEBUG_VALUE: propagateFields:perBDt2Grid <- [DW_OP_constu 112, DW_OP_minus] [$rbp+0]
	#DEBUG_VALUE: propagateFields:EGrid <- [DW_OP_constu 96, DW_OP_minus] [$rbp+0]
	#DEBUG_VALUE: propagateFields:EDt2Grid <- [DW_OP_constu 128, DW_OP_minus] [$rbp+0]
	#DEBUG_VALUE: propagateFields:EHallGrid <- [DW_OP_constu 88, DW_OP_minus] [$rbp+0]
	#DEBUG_VALUE: propagateFields:EGradPeGrid <- [DW_OP_constu 80, DW_OP_minus] [$rbp+0]
	#DEBUG_VALUE: propagateFields:momentsGrid <- [DW_OP_plus_uconst 16] [$rbp+0]
	#DEBUG_VALUE: propagateFields:momentsDt2Grid <- [DW_OP_plus_uconst 24] [$rbp+0]
	#DEBUG_VALUE: propagateFields:dPerBGrid <- [DW_OP_plus_uconst 32] [$rbp+0]
	#DEBUG_VALUE: propagateFields:dMomentsGrid <- [DW_OP_plus_uconst 40] [$rbp+0]
	#DEBUG_VALUE: propagateFields:BgBGrid <- [DW_OP_plus_uconst 48] [$rbp+0]
	#DEBUG_VALUE: propagateFields:volGrid <- [DW_OP_plus_uconst 56] [$rbp+0]
	#DEBUG_VALUE: propagateFields:technicalGrid <- [DW_OP_plus_uconst 64] [$rbp+0]
	#DEBUG_VALUE: propagateFields:sysBoundaries <- [DW_OP_plus_uconst 72] [$rbp+0]
	#DEBUG_VALUE: propagateFields:dt <- [DW_OP_plus_uconst 80] [$rbp+0]
	#DEBUG_VALUE: propagateFields:subcycles <- [DW_OP_plus_uconst 88] [$rbp+0]
	#DEBUG_VALUE: hallTermCommunicateDerivatives <- [DW_OP_constu 72, DW_OP_minus] [$rbp+0]
	.loc	1 210 1 is_stmt 1       # fieldsolver/ldz_main.cpp:210:1
	cmpl	$0, _ZN10Parameters11ohmHallTermE(%rip)
	movq	-88(%rbp), %r8          # 8-byte Reload
	movq	%r12, %r11
	movq	-112(%rbp), %r12        # 8-byte Reload
	movq	-56(%rbp), %r13         # 8-byte Reload
	je	.LBB3_95
.Ltmp210:
# %bb.94:                               # %L.B1142
	#DEBUG_VALUE: hallTermCommunicateDerivatives <- [DW_OP_constu 72, DW_OP_minus] [$rbp+0]
	#DEBUG_VALUE: technicalGrid <- $r15
	#DEBUG_VALUE: gridDims <- [DW_OP_plus_uconst 264, DW_OP_stack_value] $r15
	#DEBUG_VALUE: propagateFields:perBGrid <- [DW_OP_constu 56, DW_OP_minus] [$rbp+0]
	#DEBUG_VALUE: propagateFields:perBDt2Grid <- [DW_OP_constu 112, DW_OP_minus] [$rbp+0]
	#DEBUG_VALUE: propagateFields:EGrid <- [DW_OP_constu 96, DW_OP_minus] [$rbp+0]
	#DEBUG_VALUE: propagateFields:EDt2Grid <- [DW_OP_constu 128, DW_OP_minus] [$rbp+0]
	#DEBUG_VALUE: propagateFields:EHallGrid <- [DW_OP_constu 88, DW_OP_minus] [$rbp+0]
	#DEBUG_VALUE: propagateFields:EGradPeGrid <- [DW_OP_constu 80, DW_OP_minus] [$rbp+0]
	#DEBUG_VALUE: propagateFields:momentsGrid <- [DW_OP_plus_uconst 16] [$rbp+0]
	#DEBUG_VALUE: propagateFields:momentsDt2Grid <- [DW_OP_plus_uconst 24] [$rbp+0]
	#DEBUG_VALUE: propagateFields:dPerBGrid <- [DW_OP_plus_uconst 32] [$rbp+0]
	#DEBUG_VALUE: propagateFields:dMomentsGrid <- [DW_OP_plus_uconst 40] [$rbp+0]
	#DEBUG_VALUE: propagateFields:BgBGrid <- [DW_OP_plus_uconst 48] [$rbp+0]
	#DEBUG_VALUE: propagateFields:volGrid <- [DW_OP_plus_uconst 56] [$rbp+0]
	#DEBUG_VALUE: propagateFields:technicalGrid <- [DW_OP_plus_uconst 64] [$rbp+0]
	#DEBUG_VALUE: propagateFields:sysBoundaries <- [DW_OP_plus_uconst 72] [$rbp+0]
	#DEBUG_VALUE: propagateFields:dt <- [DW_OP_plus_uconst 80] [$rbp+0]
	#DEBUG_VALUE: propagateFields:subcycles <- [DW_OP_plus_uconst 88] [$rbp+0]
	.loc	1 211 1                 # fieldsolver/ldz_main.cpp:211:1
	movl	$2, -260(%rbp)
	.cfi_escape 0x2e, 0x30
	leaq	-260(%rbp), %rax
	movq	%r13, %rdi
	movq	%r12, %rsi
	movq	%r8, %rdx
	movq	%r14, %rcx
	movq	%r8, %r14
	movq	24(%rbp), %r8
	movq	32(%rbp), %r9
	pushq	-72(%rbp)               # 8-byte Folded Reload
	pushq	%rax
	pushq	%r11
	pushq	%r15
	pushq	48(%rbp)
	pushq	%r10
	movq	%r10, %rbx
	callq	_Z23calculateHallTermSimpleR6FsGridISt5arrayIdLm3EELi2EES3_RS_IS0_IdLm12EELi2EERS_IS0_IdLm8EELi2EES9_RS_IS0_IdLm15EELi2EERS_IS0_IdLm24EELi2EERS_IS0_IdLm18EELi2EERS_IN7fsgrids9technicalELi2EER11SysBoundaryRKib
	movq	%r14, %r8
	movq	72(%rbp), %r11
	movq	%rbx, %r10
	movq	16(%rbp), %r14
	addq	$48, %rsp
.Ltmp211:
.LBB3_95:                               # %L.B0028
	#DEBUG_VALUE: hallTermCommunicateDerivatives <- [DW_OP_constu 72, DW_OP_minus] [$rbp+0]
	#DEBUG_VALUE: technicalGrid <- $r15
	#DEBUG_VALUE: gridDims <- [DW_OP_plus_uconst 264, DW_OP_stack_value] $r15
	#DEBUG_VALUE: propagateFields:perBGrid <- [DW_OP_constu 56, DW_OP_minus] [$rbp+0]
	#DEBUG_VALUE: propagateFields:perBDt2Grid <- [DW_OP_constu 112, DW_OP_minus] [$rbp+0]
	#DEBUG_VALUE: propagateFields:EGrid <- [DW_OP_constu 96, DW_OP_minus] [$rbp+0]
	#DEBUG_VALUE: propagateFields:EDt2Grid <- [DW_OP_constu 128, DW_OP_minus] [$rbp+0]
	#DEBUG_VALUE: propagateFields:EHallGrid <- [DW_OP_constu 88, DW_OP_minus] [$rbp+0]
	#DEBUG_VALUE: propagateFields:EGradPeGrid <- [DW_OP_constu 80, DW_OP_minus] [$rbp+0]
	#DEBUG_VALUE: propagateFields:momentsGrid <- [DW_OP_plus_uconst 16] [$rbp+0]
	#DEBUG_VALUE: propagateFields:momentsDt2Grid <- [DW_OP_plus_uconst 24] [$rbp+0]
	#DEBUG_VALUE: propagateFields:dPerBGrid <- [DW_OP_plus_uconst 32] [$rbp+0]
	#DEBUG_VALUE: propagateFields:dMomentsGrid <- [DW_OP_plus_uconst 40] [$rbp+0]
	#DEBUG_VALUE: propagateFields:BgBGrid <- [DW_OP_plus_uconst 48] [$rbp+0]
	#DEBUG_VALUE: propagateFields:volGrid <- [DW_OP_plus_uconst 56] [$rbp+0]
	#DEBUG_VALUE: propagateFields:technicalGrid <- [DW_OP_plus_uconst 64] [$rbp+0]
	#DEBUG_VALUE: propagateFields:sysBoundaries <- [DW_OP_plus_uconst 72] [$rbp+0]
	#DEBUG_VALUE: propagateFields:dt <- [DW_OP_plus_uconst 80] [$rbp+0]
	#DEBUG_VALUE: propagateFields:subcycles <- [DW_OP_plus_uconst 88] [$rbp+0]
	.loc	1 226 1                 # fieldsolver/ldz_main.cpp:226:1
	movl	$2, -48(%rbp)
	.cfi_escape 0x2e, 0x40
	movq	%r13, %rdi
	movq	%r12, %rsi
	movq	-96(%rbp), %rdx         # 8-byte Reload
	movq	-128(%rbp), %rcx        # 8-byte Reload
	movq	-80(%rbp), %r9          # 8-byte Reload
	leaq	-48(%rbp), %rax
	pushq	%rax
	pushq	%r11
	pushq	%r15
	pushq	48(%rbp)
	pushq	%r10
	pushq	32(%rbp)
	pushq	24(%rbp)
	pushq	%r14
	movq	%r11, %r13
	callq	_Z36calculateUpwindedElectricFieldSimpleR6FsGridISt5arrayIdLm3EELi2EES3_S3_S3_RS_IS0_IdLm12EELi2EES3_RS_IS0_IdLm8EELi2EES9_RS_IS0_IdLm15EELi2EERS_IS0_IdLm24EELi2EERS_IS0_IdLm18EELi2EERS_IN7fsgrids9technicalELi2EER11SysBoundaryRKi
	addq	$64, %rsp
	jmp	.LBB3_107
.Ltmp212:
.LBB3_96:                               # %L..inline.78585.i
	#DEBUG_VALUE: endl:__os <- $r14
	#DEBUG_VALUE: __os <- $r14
	#DEBUG_VALUE: ....inline.__FILL_CHARARRAY <- [DW_OP_LLVM_convert 32 7, DW_OP_LLVM_convert 8 7, DW_OP_stack_value] 0
	#DEBUG_VALUE: hallTermCommunicateDerivatives <- [DW_OP_constu 120, DW_OP_minus] [$rbp+0]
	#DEBUG_VALUE: technicalGrid <- $r15
	#DEBUG_VALUE: gridDims <- [DW_OP_plus_uconst 264, DW_OP_stack_value] $r15
	#DEBUG_VALUE: propagateFields:perBGrid <- [DW_OP_constu 56, DW_OP_minus] [$rbp+0]
	#DEBUG_VALUE: propagateFields:perBDt2Grid <- [DW_OP_constu 112, DW_OP_minus] [$rbp+0]
	#DEBUG_VALUE: propagateFields:EGrid <- [DW_OP_constu 96, DW_OP_minus] [$rbp+0]
	#DEBUG_VALUE: propagateFields:EDt2Grid <- [DW_OP_constu 128, DW_OP_minus] [$rbp+0]
	#DEBUG_VALUE: propagateFields:EHallGrid <- [DW_OP_constu 88, DW_OP_minus] [$rbp+0]
	#DEBUG_VALUE: propagateFields:EGradPeGrid <- [DW_OP_constu 80, DW_OP_minus] [$rbp+0]
	#DEBUG_VALUE: propagateFields:momentsGrid <- [DW_OP_plus_uconst 16] [$rbp+0]
	#DEBUG_VALUE: propagateFields:momentsDt2Grid <- [DW_OP_plus_uconst 24] [$rbp+0]
	#DEBUG_VALUE: propagateFields:dPerBGrid <- [DW_OP_plus_uconst 32] [$rbp+0]
	#DEBUG_VALUE: propagateFields:dMomentsGrid <- [DW_OP_plus_uconst 40] [$rbp+0]
	#DEBUG_VALUE: propagateFields:BgBGrid <- [DW_OP_plus_uconst 48] [$rbp+0]
	#DEBUG_VALUE: propagateFields:volGrid <- [DW_OP_plus_uconst 56] [$rbp+0]
	#DEBUG_VALUE: propagateFields:technicalGrid <- [DW_OP_plus_uconst 64] [$rbp+0]
	#DEBUG_VALUE: propagateFields:sysBoundaries <- [DW_OP_plus_uconst 72] [$rbp+0]
	#DEBUG_VALUE: propagateFields:dt <- [DW_OP_plus_uconst 80] [$rbp+0]
	#DEBUG_VALUE: propagateFields:subcycles <- [DW_OP_plus_uconst 88] [$rbp+0]
	.cfi_escape 0x2e, 0x00
	.loc	4 450 1                 # /usr/include/c++/9/ostream:450:1
	movq	%r13, %rdi
	callq	_ZNKSt5ctypeIcE13_M_widen_initEv
	movq	(%r13), %rax
	.cfi_escape 0x2e, 0x00
	movq	%r13, %rdi
	movl	$10, %esi
	callq	*48(%rax)
.Ltmp213:
.LBB3_97:                               # %_ZSt4endlIcSt11char_traitsIcEERSt13basic_ostreamIT_T0_ES6_.exit
	#DEBUG_VALUE: endl:__os <- $r14
	#DEBUG_VALUE: __os <- $r14
	#DEBUG_VALUE: ....inline.__FILL_CHARARRAY <- [DW_OP_LLVM_convert 32 7, DW_OP_LLVM_convert 8 7, DW_OP_stack_value] 0
	#DEBUG_VALUE: hallTermCommunicateDerivatives <- [DW_OP_constu 120, DW_OP_minus] [$rbp+0]
	#DEBUG_VALUE: technicalGrid <- $r15
	#DEBUG_VALUE: gridDims <- [DW_OP_plus_uconst 264, DW_OP_stack_value] $r15
	#DEBUG_VALUE: propagateFields:perBGrid <- [DW_OP_constu 56, DW_OP_minus] [$rbp+0]
	#DEBUG_VALUE: propagateFields:perBDt2Grid <- [DW_OP_constu 112, DW_OP_minus] [$rbp+0]
	#DEBUG_VALUE: propagateFields:EGrid <- [DW_OP_constu 96, DW_OP_minus] [$rbp+0]
	#DEBUG_VALUE: propagateFields:EDt2Grid <- [DW_OP_constu 128, DW_OP_minus] [$rbp+0]
	#DEBUG_VALUE: propagateFields:EHallGrid <- [DW_OP_constu 88, DW_OP_minus] [$rbp+0]
	#DEBUG_VALUE: propagateFields:EGradPeGrid <- [DW_OP_constu 80, DW_OP_minus] [$rbp+0]
	#DEBUG_VALUE: propagateFields:momentsGrid <- [DW_OP_plus_uconst 16] [$rbp+0]
	#DEBUG_VALUE: propagateFields:momentsDt2Grid <- [DW_OP_plus_uconst 24] [$rbp+0]
	#DEBUG_VALUE: propagateFields:dPerBGrid <- [DW_OP_plus_uconst 32] [$rbp+0]
	#DEBUG_VALUE: propagateFields:dMomentsGrid <- [DW_OP_plus_uconst 40] [$rbp+0]
	#DEBUG_VALUE: propagateFields:BgBGrid <- [DW_OP_plus_uconst 48] [$rbp+0]
	#DEBUG_VALUE: propagateFields:volGrid <- [DW_OP_plus_uconst 56] [$rbp+0]
	#DEBUG_VALUE: propagateFields:technicalGrid <- [DW_OP_plus_uconst 64] [$rbp+0]
	#DEBUG_VALUE: propagateFields:sysBoundaries <- [DW_OP_plus_uconst 72] [$rbp+0]
	#DEBUG_VALUE: propagateFields:dt <- [DW_OP_plus_uconst 80] [$rbp+0]
	#DEBUG_VALUE: propagateFields:subcycles <- [DW_OP_plus_uconst 88] [$rbp+0]
	.cfi_escape 0x2e, 0x00
	movsbl	%al, %esi
	movq	%r14, %rdi
	callq	_ZNSo3putEc
	.cfi_escape 0x2e, 0x00
	.loc	4 622 1                 # /usr/include/c++/9/ostream:622:1
	movq	%rax, %rdi
	callq	_ZNSo5flushEv
	movq	72(%rbp), %r13
.Ltmp214:
.LBB3_98:                               # %L.B0052
	#DEBUG_VALUE: ....inline.__FILL_CHARARRAY <- [DW_OP_LLVM_convert 32 7, DW_OP_LLVM_convert 8 7, DW_OP_stack_value] 0
	#DEBUG_VALUE: hallTermCommunicateDerivatives <- [DW_OP_constu 120, DW_OP_minus] [$rbp+0]
	#DEBUG_VALUE: technicalGrid <- $r15
	#DEBUG_VALUE: gridDims <- [DW_OP_plus_uconst 264, DW_OP_stack_value] $r15
	#DEBUG_VALUE: propagateFields:perBGrid <- [DW_OP_constu 56, DW_OP_minus] [$rbp+0]
	#DEBUG_VALUE: propagateFields:perBDt2Grid <- [DW_OP_constu 112, DW_OP_minus] [$rbp+0]
	#DEBUG_VALUE: propagateFields:EGrid <- [DW_OP_constu 96, DW_OP_minus] [$rbp+0]
	#DEBUG_VALUE: propagateFields:EDt2Grid <- [DW_OP_constu 128, DW_OP_minus] [$rbp+0]
	#DEBUG_VALUE: propagateFields:EHallGrid <- [DW_OP_constu 88, DW_OP_minus] [$rbp+0]
	#DEBUG_VALUE: propagateFields:EGradPeGrid <- [DW_OP_constu 80, DW_OP_minus] [$rbp+0]
	#DEBUG_VALUE: propagateFields:momentsGrid <- [DW_OP_plus_uconst 16] [$rbp+0]
	#DEBUG_VALUE: propagateFields:momentsDt2Grid <- [DW_OP_plus_uconst 24] [$rbp+0]
	#DEBUG_VALUE: propagateFields:dPerBGrid <- [DW_OP_plus_uconst 32] [$rbp+0]
	#DEBUG_VALUE: propagateFields:dMomentsGrid <- [DW_OP_plus_uconst 40] [$rbp+0]
	#DEBUG_VALUE: propagateFields:BgBGrid <- [DW_OP_plus_uconst 48] [$rbp+0]
	#DEBUG_VALUE: propagateFields:volGrid <- [DW_OP_plus_uconst 56] [$rbp+0]
	#DEBUG_VALUE: propagateFields:technicalGrid <- [DW_OP_plus_uconst 64] [$rbp+0]
	#DEBUG_VALUE: propagateFields:sysBoundaries <- [DW_OP_plus_uconst 72] [$rbp+0]
	#DEBUG_VALUE: propagateFields:dt <- [DW_OP_plus_uconst 80] [$rbp+0]
	#DEBUG_VALUE: propagateFields:subcycles <- [DW_OP_plus_uconst 88] [$rbp+0]
	.loc	1 527 1                 # fieldsolver/ldz_main.cpp:527:1
	leaq	-304(%rbp), %r12
	movq	%r12, -320(%rbp)
.Ltmp215:
	#DEBUG_VALUE: __dnew <- 17
	#DEBUG_VALUE: _M_construct:_T32372840_51851 <- undef
	#DEBUG_VALUE:  <- [DW_OP_constu 320, DW_OP_minus, DW_OP_stack_value] $rbp
	#DEBUG_VALUE: _M_construct: <- [DW_OP_constu 320, DW_OP_minus, DW_OP_stack_value] $rbp
	#DEBUG_VALUE: ....inline.__FILL_CHARARRAY <- [DW_OP_LLVM_convert 32 7, DW_OP_LLVM_convert 8 7, DW_OP_stack_value] 0
	.loc	3 143 1                 # /usr/include/c++/9/bits/basic_string.tcc:143:1
	movq	$17, -104(%rbp)
.Ltmp216:
	#DEBUG_VALUE: __dnew <- [DW_OP_constu 104, DW_OP_minus, DW_OP_deref] $rbp
.Ltmp24:
	.cfi_escape 0x2e, 0x00
	.loc	3 0 1 is_stmt 0         # /usr/include/c++/9/bits/basic_string.tcc:0:1
	leaq	-320(%rbp), %rdi
	leaq	-104(%rbp), %rsi
	.loc	3 219 1 is_stmt 1       # /usr/include/c++/9/bits/basic_string.tcc:219:1
	xorl	%edx, %edx
	callq	_ZNSt7__cxx1112basic_stringIcSt11char_traitsIcESaIcEE9_M_createERmm
.Ltmp25:
.Ltmp217:
	#DEBUG_VALUE: __beg <- undef
	#DEBUG_VALUE: _M_construct:__beg <- undef
# %bb.99:                               # %L.B1173
	#DEBUG_VALUE: __dnew <- [DW_OP_constu 104, DW_OP_minus, DW_OP_deref] $rbp
	#DEBUG_VALUE: _M_construct: <- [DW_OP_constu 320, DW_OP_minus, DW_OP_stack_value] $rbp
	#DEBUG_VALUE:  <- [DW_OP_constu 320, DW_OP_minus, DW_OP_stack_value] $rbp
	#DEBUG_VALUE: ....inline.__FILL_CHARARRAY <- [DW_OP_LLVM_convert 32 7, DW_OP_LLVM_convert 8 7, DW_OP_stack_value] 0
	#DEBUG_VALUE: hallTermCommunicateDerivatives <- [DW_OP_constu 120, DW_OP_minus] [$rbp+0]
	#DEBUG_VALUE: technicalGrid <- $r15
	#DEBUG_VALUE: gridDims <- [DW_OP_plus_uconst 264, DW_OP_stack_value] $r15
	#DEBUG_VALUE: propagateFields:perBGrid <- [DW_OP_constu 56, DW_OP_minus] [$rbp+0]
	#DEBUG_VALUE: propagateFields:perBDt2Grid <- [DW_OP_constu 112, DW_OP_minus] [$rbp+0]
	#DEBUG_VALUE: propagateFields:EGrid <- [DW_OP_constu 96, DW_OP_minus] [$rbp+0]
	#DEBUG_VALUE: propagateFields:EDt2Grid <- [DW_OP_constu 128, DW_OP_minus] [$rbp+0]
	#DEBUG_VALUE: propagateFields:EHallGrid <- [DW_OP_constu 88, DW_OP_minus] [$rbp+0]
	#DEBUG_VALUE: propagateFields:EGradPeGrid <- [DW_OP_constu 80, DW_OP_minus] [$rbp+0]
	#DEBUG_VALUE: propagateFields:momentsGrid <- [DW_OP_plus_uconst 16] [$rbp+0]
	#DEBUG_VALUE: propagateFields:momentsDt2Grid <- [DW_OP_plus_uconst 24] [$rbp+0]
	#DEBUG_VALUE: propagateFields:dPerBGrid <- [DW_OP_plus_uconst 32] [$rbp+0]
	#DEBUG_VALUE: propagateFields:dMomentsGrid <- [DW_OP_plus_uconst 40] [$rbp+0]
	#DEBUG_VALUE: propagateFields:BgBGrid <- [DW_OP_plus_uconst 48] [$rbp+0]
	#DEBUG_VALUE: propagateFields:volGrid <- [DW_OP_plus_uconst 56] [$rbp+0]
	#DEBUG_VALUE: propagateFields:technicalGrid <- [DW_OP_plus_uconst 64] [$rbp+0]
	#DEBUG_VALUE: propagateFields:sysBoundaries <- [DW_OP_plus_uconst 72] [$rbp+0]
	#DEBUG_VALUE: propagateFields:dt <- [DW_OP_plus_uconst 80] [$rbp+0]
	#DEBUG_VALUE: propagateFields:subcycles <- [DW_OP_plus_uconst 88] [$rbp+0]
	movq	%rax, -320(%rbp)
	.loc	3 220 1                 # /usr/include/c++/9/bits/basic_string.tcc:220:1
	movq	-104(%rbp), %rcx
.Ltmp218:
	#DEBUG_VALUE: __dnew <- $rcx
	movq	%rcx, -304(%rbp)
	.loc	3 398 1                 # /usr/include/c++/9/bits/basic_string.tcc:398:1
	vmovups	.S53045(%rip), %xmm0
	vmovups	%xmm0, (%rax)
	movb	$102, 16(%rax)
	.loc	3 216 1                 # /usr/include/c++/9/bits/basic_string.tcc:216:1
	movq	%rcx, -312(%rbp)
	.loc	3 217 1                 # /usr/include/c++/9/bits/basic_string.tcc:217:1
	movq	-320(%rbp), %rax
	movb	$0, (%rax,%rcx)
.Ltmp219:
	.loc	1 527 1                 # fieldsolver/ldz_main.cpp:527:1
	leaq	-336(%rbp), %rbx
	movq	%rbx, -352(%rbp)
.Ltmp220:
	#DEBUG_VALUE: __dnew <- 0
	#DEBUG_VALUE: _M_construct:_T32372840_51851 <- undef
	#DEBUG_VALUE:  <- [DW_OP_constu 352, DW_OP_minus, DW_OP_stack_value] $rbp
	#DEBUG_VALUE: _M_construct: <- [DW_OP_constu 352, DW_OP_minus, DW_OP_stack_value] $rbp
	#DEBUG_VALUE: ....inline.__FILL_CHARARRAY <- [DW_OP_LLVM_convert 32 7, DW_OP_LLVM_convert 8 7, DW_OP_stack_value] 0
	.loc	3 216 1                 # /usr/include/c++/9/bits/basic_string.tcc:216:1
	movq	$0, -344(%rbp)
	.loc	3 217 1                 # /usr/include/c++/9/bits/basic_string.tcc:217:1
	movb	$0, -336(%rbp)
.Ltmp27:
	.cfi_escape 0x2e, 0x00
	leaq	-320(%rbp), %rdi
	vmovsd	.LCPI3_1(%rip), %xmm0   # xmm0 = mem[0],zero
	leaq	-352(%rbp), %rsi
.Ltmp221:
	.loc	1 350 1                 # fieldsolver/ldz_main.cpp:350:1
	callq	_ZN7phiprof4stopERKNSt7__cxx1112basic_stringIcSt11char_traitsIcESaIcEEEdS7_
.Ltmp222:
.Ltmp28:
# %bb.100:                              # %L.B1174
	#DEBUG_VALUE: ....inline.__FILL_CHARARRAY <- [DW_OP_LLVM_convert 32 7, DW_OP_LLVM_convert 8 7, DW_OP_stack_value] 0
	#DEBUG_VALUE: hallTermCommunicateDerivatives <- [DW_OP_constu 120, DW_OP_minus] [$rbp+0]
	#DEBUG_VALUE: technicalGrid <- $r15
	#DEBUG_VALUE: gridDims <- [DW_OP_plus_uconst 264, DW_OP_stack_value] $r15
	#DEBUG_VALUE: propagateFields:perBGrid <- [DW_OP_constu 56, DW_OP_minus] [$rbp+0]
	#DEBUG_VALUE: propagateFields:perBDt2Grid <- [DW_OP_constu 112, DW_OP_minus] [$rbp+0]
	#DEBUG_VALUE: propagateFields:EGrid <- [DW_OP_constu 96, DW_OP_minus] [$rbp+0]
	#DEBUG_VALUE: propagateFields:EDt2Grid <- [DW_OP_constu 128, DW_OP_minus] [$rbp+0]
	#DEBUG_VALUE: propagateFields:EHallGrid <- [DW_OP_constu 88, DW_OP_minus] [$rbp+0]
	#DEBUG_VALUE: propagateFields:EGradPeGrid <- [DW_OP_constu 80, DW_OP_minus] [$rbp+0]
	#DEBUG_VALUE: propagateFields:momentsGrid <- [DW_OP_plus_uconst 16] [$rbp+0]
	#DEBUG_VALUE: propagateFields:momentsDt2Grid <- [DW_OP_plus_uconst 24] [$rbp+0]
	#DEBUG_VALUE: propagateFields:dPerBGrid <- [DW_OP_plus_uconst 32] [$rbp+0]
	#DEBUG_VALUE: propagateFields:dMomentsGrid <- [DW_OP_plus_uconst 40] [$rbp+0]
	#DEBUG_VALUE: propagateFields:BgBGrid <- [DW_OP_plus_uconst 48] [$rbp+0]
	#DEBUG_VALUE: propagateFields:volGrid <- [DW_OP_plus_uconst 56] [$rbp+0]
	#DEBUG_VALUE: propagateFields:technicalGrid <- [DW_OP_plus_uconst 64] [$rbp+0]
	#DEBUG_VALUE: propagateFields:sysBoundaries <- [DW_OP_plus_uconst 72] [$rbp+0]
	#DEBUG_VALUE: propagateFields:dt <- [DW_OP_plus_uconst 80] [$rbp+0]
	#DEBUG_VALUE: propagateFields:subcycles <- [DW_OP_plus_uconst 88] [$rbp+0]
	.loc	1 658 1                 # fieldsolver/ldz_main.cpp:658:1
	movq	-352(%rbp), %rdi
	cmpq	%rbx, %rdi
	je	.LBB3_102
.Ltmp223:
# %bb.101:                              # %L.B1175
	#DEBUG_VALUE: ....inline.__FILL_CHARARRAY <- [DW_OP_LLVM_convert 32 7, DW_OP_LLVM_convert 8 7, DW_OP_stack_value] 0
	#DEBUG_VALUE: hallTermCommunicateDerivatives <- [DW_OP_constu 120, DW_OP_minus] [$rbp+0]
	#DEBUG_VALUE: technicalGrid <- $r15
	#DEBUG_VALUE: gridDims <- [DW_OP_plus_uconst 264, DW_OP_stack_value] $r15
	#DEBUG_VALUE: propagateFields:perBGrid <- [DW_OP_constu 56, DW_OP_minus] [$rbp+0]
	#DEBUG_VALUE: propagateFields:perBDt2Grid <- [DW_OP_constu 112, DW_OP_minus] [$rbp+0]
	#DEBUG_VALUE: propagateFields:EGrid <- [DW_OP_constu 96, DW_OP_minus] [$rbp+0]
	#DEBUG_VALUE: propagateFields:EDt2Grid <- [DW_OP_constu 128, DW_OP_minus] [$rbp+0]
	#DEBUG_VALUE: propagateFields:EHallGrid <- [DW_OP_constu 88, DW_OP_minus] [$rbp+0]
	#DEBUG_VALUE: propagateFields:EGradPeGrid <- [DW_OP_constu 80, DW_OP_minus] [$rbp+0]
	#DEBUG_VALUE: propagateFields:momentsGrid <- [DW_OP_plus_uconst 16] [$rbp+0]
	#DEBUG_VALUE: propagateFields:momentsDt2Grid <- [DW_OP_plus_uconst 24] [$rbp+0]
	#DEBUG_VALUE: propagateFields:dPerBGrid <- [DW_OP_plus_uconst 32] [$rbp+0]
	#DEBUG_VALUE: propagateFields:dMomentsGrid <- [DW_OP_plus_uconst 40] [$rbp+0]
	#DEBUG_VALUE: propagateFields:BgBGrid <- [DW_OP_plus_uconst 48] [$rbp+0]
	#DEBUG_VALUE: propagateFields:volGrid <- [DW_OP_plus_uconst 56] [$rbp+0]
	#DEBUG_VALUE: propagateFields:technicalGrid <- [DW_OP_plus_uconst 64] [$rbp+0]
	#DEBUG_VALUE: propagateFields:sysBoundaries <- [DW_OP_plus_uconst 72] [$rbp+0]
	#DEBUG_VALUE: propagateFields:dt <- [DW_OP_plus_uconst 80] [$rbp+0]
	#DEBUG_VALUE: propagateFields:subcycles <- [DW_OP_plus_uconst 88] [$rbp+0]
	.cfi_escape 0x2e, 0x00
	callq	_ZdlPv
.Ltmp224:
.LBB3_102:                              # %L..inline.65045
	#DEBUG_VALUE: ....inline.__FILL_CHARARRAY <- [DW_OP_LLVM_convert 32 7, DW_OP_LLVM_convert 8 7, DW_OP_stack_value] 0
	#DEBUG_VALUE: hallTermCommunicateDerivatives <- [DW_OP_constu 120, DW_OP_minus] [$rbp+0]
	#DEBUG_VALUE: technicalGrid <- $r15
	#DEBUG_VALUE: gridDims <- [DW_OP_plus_uconst 264, DW_OP_stack_value] $r15
	#DEBUG_VALUE: propagateFields:perBGrid <- [DW_OP_constu 56, DW_OP_minus] [$rbp+0]
	#DEBUG_VALUE: propagateFields:perBDt2Grid <- [DW_OP_constu 112, DW_OP_minus] [$rbp+0]
	#DEBUG_VALUE: propagateFields:EGrid <- [DW_OP_constu 96, DW_OP_minus] [$rbp+0]
	#DEBUG_VALUE: propagateFields:EDt2Grid <- [DW_OP_constu 128, DW_OP_minus] [$rbp+0]
	#DEBUG_VALUE: propagateFields:EHallGrid <- [DW_OP_constu 88, DW_OP_minus] [$rbp+0]
	#DEBUG_VALUE: propagateFields:EGradPeGrid <- [DW_OP_constu 80, DW_OP_minus] [$rbp+0]
	#DEBUG_VALUE: propagateFields:momentsGrid <- [DW_OP_plus_uconst 16] [$rbp+0]
	#DEBUG_VALUE: propagateFields:momentsDt2Grid <- [DW_OP_plus_uconst 24] [$rbp+0]
	#DEBUG_VALUE: propagateFields:dPerBGrid <- [DW_OP_plus_uconst 32] [$rbp+0]
	#DEBUG_VALUE: propagateFields:dMomentsGrid <- [DW_OP_plus_uconst 40] [$rbp+0]
	#DEBUG_VALUE: propagateFields:BgBGrid <- [DW_OP_plus_uconst 48] [$rbp+0]
	#DEBUG_VALUE: propagateFields:volGrid <- [DW_OP_plus_uconst 56] [$rbp+0]
	#DEBUG_VALUE: propagateFields:technicalGrid <- [DW_OP_plus_uconst 64] [$rbp+0]
	#DEBUG_VALUE: propagateFields:sysBoundaries <- [DW_OP_plus_uconst 72] [$rbp+0]
	#DEBUG_VALUE: propagateFields:dt <- [DW_OP_plus_uconst 80] [$rbp+0]
	#DEBUG_VALUE: propagateFields:subcycles <- [DW_OP_plus_uconst 88] [$rbp+0]
	movq	-320(%rbp), %rdi
	cmpq	%r12, %rdi
	je	.LBB3_104
.Ltmp225:
# %bb.103:                              # %L.B1176
	#DEBUG_VALUE: ....inline.__FILL_CHARARRAY <- [DW_OP_LLVM_convert 32 7, DW_OP_LLVM_convert 8 7, DW_OP_stack_value] 0
	#DEBUG_VALUE: hallTermCommunicateDerivatives <- [DW_OP_constu 120, DW_OP_minus] [$rbp+0]
	#DEBUG_VALUE: technicalGrid <- $r15
	#DEBUG_VALUE: gridDims <- [DW_OP_plus_uconst 264, DW_OP_stack_value] $r15
	#DEBUG_VALUE: propagateFields:perBGrid <- [DW_OP_constu 56, DW_OP_minus] [$rbp+0]
	#DEBUG_VALUE: propagateFields:perBDt2Grid <- [DW_OP_constu 112, DW_OP_minus] [$rbp+0]
	#DEBUG_VALUE: propagateFields:EGrid <- [DW_OP_constu 96, DW_OP_minus] [$rbp+0]
	#DEBUG_VALUE: propagateFields:EDt2Grid <- [DW_OP_constu 128, DW_OP_minus] [$rbp+0]
	#DEBUG_VALUE: propagateFields:EHallGrid <- [DW_OP_constu 88, DW_OP_minus] [$rbp+0]
	#DEBUG_VALUE: propagateFields:EGradPeGrid <- [DW_OP_constu 80, DW_OP_minus] [$rbp+0]
	#DEBUG_VALUE: propagateFields:momentsGrid <- [DW_OP_plus_uconst 16] [$rbp+0]
	#DEBUG_VALUE: propagateFields:momentsDt2Grid <- [DW_OP_plus_uconst 24] [$rbp+0]
	#DEBUG_VALUE: propagateFields:dPerBGrid <- [DW_OP_plus_uconst 32] [$rbp+0]
	#DEBUG_VALUE: propagateFields:dMomentsGrid <- [DW_OP_plus_uconst 40] [$rbp+0]
	#DEBUG_VALUE: propagateFields:BgBGrid <- [DW_OP_plus_uconst 48] [$rbp+0]
	#DEBUG_VALUE: propagateFields:volGrid <- [DW_OP_plus_uconst 56] [$rbp+0]
	#DEBUG_VALUE: propagateFields:technicalGrid <- [DW_OP_plus_uconst 64] [$rbp+0]
	#DEBUG_VALUE: propagateFields:sysBoundaries <- [DW_OP_plus_uconst 72] [$rbp+0]
	#DEBUG_VALUE: propagateFields:dt <- [DW_OP_plus_uconst 80] [$rbp+0]
	#DEBUG_VALUE: propagateFields:subcycles <- [DW_OP_plus_uconst 88] [$rbp+0]
	.cfi_escape 0x2e, 0x00
	callq	_ZdlPv
.Ltmp226:
.LBB3_104:
	#DEBUG_VALUE: ....inline.__FILL_CHARARRAY <- [DW_OP_LLVM_convert 32 7, DW_OP_LLVM_convert 8 7, DW_OP_stack_value] 0
	#DEBUG_VALUE: hallTermCommunicateDerivatives <- [DW_OP_constu 120, DW_OP_minus] [$rbp+0]
	#DEBUG_VALUE: technicalGrid <- $r15
	#DEBUG_VALUE: gridDims <- [DW_OP_plus_uconst 264, DW_OP_stack_value] $r15
	#DEBUG_VALUE: propagateFields:perBGrid <- [DW_OP_constu 56, DW_OP_minus] [$rbp+0]
	#DEBUG_VALUE: propagateFields:perBDt2Grid <- [DW_OP_constu 112, DW_OP_minus] [$rbp+0]
	#DEBUG_VALUE: propagateFields:EGrid <- [DW_OP_constu 96, DW_OP_minus] [$rbp+0]
	#DEBUG_VALUE: propagateFields:EDt2Grid <- [DW_OP_constu 128, DW_OP_minus] [$rbp+0]
	#DEBUG_VALUE: propagateFields:EHallGrid <- [DW_OP_constu 88, DW_OP_minus] [$rbp+0]
	#DEBUG_VALUE: propagateFields:EGradPeGrid <- [DW_OP_constu 80, DW_OP_minus] [$rbp+0]
	#DEBUG_VALUE: propagateFields:momentsGrid <- [DW_OP_plus_uconst 16] [$rbp+0]
	#DEBUG_VALUE: propagateFields:momentsDt2Grid <- [DW_OP_plus_uconst 24] [$rbp+0]
	#DEBUG_VALUE: propagateFields:dPerBGrid <- [DW_OP_plus_uconst 32] [$rbp+0]
	#DEBUG_VALUE: propagateFields:dMomentsGrid <- [DW_OP_plus_uconst 40] [$rbp+0]
	#DEBUG_VALUE: propagateFields:BgBGrid <- [DW_OP_plus_uconst 48] [$rbp+0]
	#DEBUG_VALUE: propagateFields:volGrid <- [DW_OP_plus_uconst 56] [$rbp+0]
	#DEBUG_VALUE: propagateFields:technicalGrid <- [DW_OP_plus_uconst 64] [$rbp+0]
	#DEBUG_VALUE: propagateFields:sysBoundaries <- [DW_OP_plus_uconst 72] [$rbp+0]
	#DEBUG_VALUE: propagateFields:dt <- [DW_OP_plus_uconst 80] [$rbp+0]
	#DEBUG_VALUE: propagateFields:subcycles <- [DW_OP_plus_uconst 88] [$rbp+0]
	.loc	1 0 1 is_stmt 0         # fieldsolver/ldz_main.cpp:0:1
	movl	88(%rbp), %eax
.Ltmp227:
	.loc	1 404 1 is_stmt 1       # fieldsolver/ldz_main.cpp:404:1
	cmpl	$0, -188(%rbp)          # 4-byte Folded Reload
	jne	.LBB3_107
.Ltmp228:
.LBB3_105:                              # %L_T32392608_51664
	#DEBUG_VALUE: ....inline.__FILL_CHARARRAY <- [DW_OP_LLVM_convert 32 7, DW_OP_LLVM_convert 8 7, DW_OP_stack_value] 0
	#DEBUG_VALUE: hallTermCommunicateDerivatives <- [DW_OP_constu 120, DW_OP_minus] [$rbp+0]
	#DEBUG_VALUE: technicalGrid <- $r15
	#DEBUG_VALUE: gridDims <- [DW_OP_plus_uconst 264, DW_OP_stack_value] $r15
	#DEBUG_VALUE: propagateFields:perBGrid <- [DW_OP_constu 56, DW_OP_minus] [$rbp+0]
	#DEBUG_VALUE: propagateFields:perBDt2Grid <- [DW_OP_constu 112, DW_OP_minus] [$rbp+0]
	#DEBUG_VALUE: propagateFields:EGrid <- [DW_OP_constu 96, DW_OP_minus] [$rbp+0]
	#DEBUG_VALUE: propagateFields:EDt2Grid <- [DW_OP_constu 128, DW_OP_minus] [$rbp+0]
	#DEBUG_VALUE: propagateFields:EHallGrid <- [DW_OP_constu 88, DW_OP_minus] [$rbp+0]
	#DEBUG_VALUE: propagateFields:EGradPeGrid <- [DW_OP_constu 80, DW_OP_minus] [$rbp+0]
	#DEBUG_VALUE: propagateFields:momentsGrid <- [DW_OP_plus_uconst 16] [$rbp+0]
	#DEBUG_VALUE: propagateFields:momentsDt2Grid <- [DW_OP_plus_uconst 24] [$rbp+0]
	#DEBUG_VALUE: propagateFields:dPerBGrid <- [DW_OP_plus_uconst 32] [$rbp+0]
	#DEBUG_VALUE: propagateFields:dMomentsGrid <- [DW_OP_plus_uconst 40] [$rbp+0]
	#DEBUG_VALUE: propagateFields:BgBGrid <- [DW_OP_plus_uconst 48] [$rbp+0]
	#DEBUG_VALUE: propagateFields:volGrid <- [DW_OP_plus_uconst 56] [$rbp+0]
	#DEBUG_VALUE: propagateFields:technicalGrid <- [DW_OP_plus_uconst 64] [$rbp+0]
	#DEBUG_VALUE: propagateFields:sysBoundaries <- [DW_OP_plus_uconst 72] [$rbp+0]
	#DEBUG_VALUE: propagateFields:dt <- [DW_OP_plus_uconst 80] [$rbp+0]
	#DEBUG_VALUE: propagateFields:subcycles <- [DW_OP_plus_uconst 88] [$rbp+0]
	cmpl	%eax, -232(%rbp)        # 4-byte Folded Reload
	je	.LBB3_107
.Ltmp229:
# %bb.106:                              # %L..inline.66588
	#DEBUG_VALUE: ....inline.__FILL_CHARARRAY <- [DW_OP_LLVM_convert 32 7, DW_OP_LLVM_convert 8 7, DW_OP_stack_value] 0
	#DEBUG_VALUE: hallTermCommunicateDerivatives <- [DW_OP_constu 120, DW_OP_minus] [$rbp+0]
	#DEBUG_VALUE: technicalGrid <- $r15
	#DEBUG_VALUE: gridDims <- [DW_OP_plus_uconst 264, DW_OP_stack_value] $r15
	#DEBUG_VALUE: propagateFields:perBGrid <- [DW_OP_constu 56, DW_OP_minus] [$rbp+0]
	#DEBUG_VALUE: propagateFields:perBDt2Grid <- [DW_OP_constu 112, DW_OP_minus] [$rbp+0]
	#DEBUG_VALUE: propagateFields:EGrid <- [DW_OP_constu 96, DW_OP_minus] [$rbp+0]
	#DEBUG_VALUE: propagateFields:EDt2Grid <- [DW_OP_constu 128, DW_OP_minus] [$rbp+0]
	#DEBUG_VALUE: propagateFields:EHallGrid <- [DW_OP_constu 88, DW_OP_minus] [$rbp+0]
	#DEBUG_VALUE: propagateFields:EGradPeGrid <- [DW_OP_constu 80, DW_OP_minus] [$rbp+0]
	#DEBUG_VALUE: propagateFields:momentsGrid <- [DW_OP_plus_uconst 16] [$rbp+0]
	#DEBUG_VALUE: propagateFields:momentsDt2Grid <- [DW_OP_plus_uconst 24] [$rbp+0]
	#DEBUG_VALUE: propagateFields:dPerBGrid <- [DW_OP_plus_uconst 32] [$rbp+0]
	#DEBUG_VALUE: propagateFields:dMomentsGrid <- [DW_OP_plus_uconst 40] [$rbp+0]
	#DEBUG_VALUE: propagateFields:BgBGrid <- [DW_OP_plus_uconst 48] [$rbp+0]
	#DEBUG_VALUE: propagateFields:volGrid <- [DW_OP_plus_uconst 56] [$rbp+0]
	#DEBUG_VALUE: propagateFields:technicalGrid <- [DW_OP_plus_uconst 64] [$rbp+0]
	#DEBUG_VALUE: propagateFields:sysBoundaries <- [DW_OP_plus_uconst 72] [$rbp+0]
	#DEBUG_VALUE: propagateFields:dt <- [DW_OP_plus_uconst 80] [$rbp+0]
	#DEBUG_VALUE: propagateFields:subcycles <- [DW_OP_plus_uconst 88] [$rbp+0]
	.cfi_escape 0x2e, 0x00
	.loc	1 85 1                  # fieldsolver/ldz_main.cpp:85:1
	movl	$logFile+32, %edi
	movl	$.S53130, %esi
	movl	$38, %edx
	callq	_ZSt16__ostream_insertIcSt11char_traitsIcEERSt13basic_ostreamIT_T0_ES6_PKS3_l
	movl	-232(%rbp), %esi        # 4-byte Reload
	.cfi_escape 0x2e, 0x00
	movl	$logFile+32, %edi
	callq	_ZNSo9_M_insertImEERSoT_
	.cfi_escape 0x2e, 0x00
	movl	$logFile+32, %edi
	movl	$.S53132, %esi
	movl	$12, %edx
	callq	_ZSt16__ostream_insertIcSt11char_traitsIcEERSt13basic_ostreamIT_T0_ES6_PKS3_l
	movl	_ZN10Parameters20fieldSolverSubcyclesE(%rip), %esi
	.cfi_escape 0x2e, 0x00
	movl	$logFile+32, %edi
	callq	_ZNSo9_M_insertImEERSoT_
	.cfi_escape 0x2e, 0x00
	movl	$logFile+32, %edi
	movl	$.S53134, %esi
	movl	$9, %edx
	callq	_ZSt16__ostream_insertIcSt11char_traitsIcEERSt13basic_ostreamIT_T0_ES6_PKS3_l
	movl	_ZN10Parameters5tstepE(%rip), %esi
	.cfi_escape 0x2e, 0x00
	movl	$logFile+32, %edi
	callq	_ZNSo9_M_insertImEERSoT_
	.cfi_escape 0x2e, 0x00
	.loc	1 87 1                  # fieldsolver/ldz_main.cpp:87:1
	movl	$logFile, %edi
	movl	$_ZSt4endlIcSt11char_traitsIcEERSt13basic_ostreamIT_T0_ES6_, %esi
	callq	_ZN6LoggerlsEPFRSoS0_E
.Ltmp230:
.LBB3_107:                              # %L.B0032
	#DEBUG_VALUE: technicalGrid <- $r15
	#DEBUG_VALUE: gridDims <- [DW_OP_plus_uconst 264, DW_OP_stack_value] $r15
	#DEBUG_VALUE: propagateFields:perBGrid <- [DW_OP_constu 56, DW_OP_minus] [$rbp+0]
	#DEBUG_VALUE: propagateFields:perBDt2Grid <- [DW_OP_constu 112, DW_OP_minus] [$rbp+0]
	#DEBUG_VALUE: propagateFields:EGrid <- [DW_OP_constu 96, DW_OP_minus] [$rbp+0]
	#DEBUG_VALUE: propagateFields:EDt2Grid <- [DW_OP_constu 128, DW_OP_minus] [$rbp+0]
	#DEBUG_VALUE: propagateFields:EHallGrid <- [DW_OP_constu 88, DW_OP_minus] [$rbp+0]
	#DEBUG_VALUE: propagateFields:EGradPeGrid <- [DW_OP_constu 80, DW_OP_minus] [$rbp+0]
	#DEBUG_VALUE: propagateFields:momentsGrid <- [DW_OP_plus_uconst 16] [$rbp+0]
	#DEBUG_VALUE: propagateFields:momentsDt2Grid <- [DW_OP_plus_uconst 24] [$rbp+0]
	#DEBUG_VALUE: propagateFields:dPerBGrid <- [DW_OP_plus_uconst 32] [$rbp+0]
	#DEBUG_VALUE: propagateFields:dMomentsGrid <- [DW_OP_plus_uconst 40] [$rbp+0]
	#DEBUG_VALUE: propagateFields:BgBGrid <- [DW_OP_plus_uconst 48] [$rbp+0]
	#DEBUG_VALUE: propagateFields:volGrid <- [DW_OP_plus_uconst 56] [$rbp+0]
	#DEBUG_VALUE: propagateFields:technicalGrid <- [DW_OP_plus_uconst 64] [$rbp+0]
	#DEBUG_VALUE: propagateFields:sysBoundaries <- [DW_OP_plus_uconst 72] [$rbp+0]
	#DEBUG_VALUE: propagateFields:dt <- [DW_OP_plus_uconst 80] [$rbp+0]
	#DEBUG_VALUE: propagateFields:subcycles <- [DW_OP_plus_uconst 88] [$rbp+0]
	.loc	1 0 1 is_stmt 0         # fieldsolver/ldz_main.cpp:0:1
	movq	56(%rbp), %r14
.Ltmp231:
	#DEBUG_VALUE: volGrid <- $r14
	.cfi_escape 0x2e, 0x00
	movq	-56(%rbp), %rdi         # 8-byte Reload
	movq	-96(%rbp), %rsi         # 8-byte Reload
	.loc	1 409 1 is_stmt 1       # fieldsolver/ldz_main.cpp:409:1
	movq	32(%rbp), %rdx
	movq	%r14, %rcx
	movq	%r15, %r8
	callq	_Z29calculateVolumeAveragedFieldsR6FsGridISt5arrayIdLm3EELi2EES3_RS_IS0_IdLm15EELi2EERS_IS0_IdLm12EELi2EERS_IN7fsgrids9technicalELi2EE
	.cfi_escape 0x2e, 0x00
	.loc	1 410 1                 # fieldsolver/ldz_main.cpp:410:1
	movq	%r14, %rdi
	movq	%r15, %rsi
	movq	%r13, %rdx
	callq	_Z30calculateBVOLDerivativesSimpleR6FsGridISt5arrayIdLm12EELi2EERS_IN7fsgrids9technicalELi2EER11SysBoundary
	.loc	1 411 1                 # fieldsolver/ldz_main.cpp:411:1
	movb	$1, %al
	addq	$312, %rsp              # imm = 0x138
	popq	%rbx
	popq	%r12
	popq	%r13
	popq	%r14
.Ltmp232:
	popq	%r15
.Ltmp233:
	popq	%rbp
	.cfi_def_cfa %rsp, 8
	retq
.Ltmp234:
.LBB3_108:                              # %L..inline.64190
	.cfi_def_cfa %rbp, 16
	#DEBUG_VALUE: propagateFields:perBGrid <- [DW_OP_constu 56, DW_OP_minus] [$rbp+0]
	#DEBUG_VALUE: propagateFields:perBDt2Grid <- [DW_OP_constu 112, DW_OP_minus] [$rbp+0]
	#DEBUG_VALUE: propagateFields:EGrid <- [DW_OP_constu 96, DW_OP_minus] [$rbp+0]
	#DEBUG_VALUE: propagateFields:EDt2Grid <- [DW_OP_constu 128, DW_OP_minus] [$rbp+0]
	#DEBUG_VALUE: propagateFields:EHallGrid <- [DW_OP_constu 88, DW_OP_minus] [$rbp+0]
	#DEBUG_VALUE: propagateFields:EGradPeGrid <- [DW_OP_constu 80, DW_OP_minus] [$rbp+0]
	#DEBUG_VALUE: propagateFields:momentsGrid <- [DW_OP_plus_uconst 16] [$rbp+0]
	#DEBUG_VALUE: propagateFields:momentsDt2Grid <- [DW_OP_plus_uconst 24] [$rbp+0]
	#DEBUG_VALUE: propagateFields:dPerBGrid <- [DW_OP_plus_uconst 32] [$rbp+0]
	#DEBUG_VALUE: propagateFields:dMomentsGrid <- [DW_OP_plus_uconst 40] [$rbp+0]
	#DEBUG_VALUE: propagateFields:BgBGrid <- [DW_OP_plus_uconst 48] [$rbp+0]
	#DEBUG_VALUE: propagateFields:volGrid <- [DW_OP_plus_uconst 56] [$rbp+0]
	#DEBUG_VALUE: propagateFields:technicalGrid <- [DW_OP_plus_uconst 64] [$rbp+0]
	#DEBUG_VALUE: propagateFields:sysBoundaries <- [DW_OP_plus_uconst 72] [$rbp+0]
	#DEBUG_VALUE: propagateFields:dt <- [DW_OP_plus_uconst 80] [$rbp+0]
	#DEBUG_VALUE: propagateFields:subcycles <- [DW_OP_plus_uconst 88] [$rbp+0]
	.cfi_escape 0x2e, 0x00
	.loc	1 570 1                 # fieldsolver/ldz_main.cpp:570:1
	movl	$_ZSt4cerr, %edi
	movl	$.S52924, %esi
	movl	$35, %edx
	callq	_ZSt16__ostream_insertIcSt11char_traitsIcEERSt13basic_ostreamIT_T0_ES6_PKS3_l
	.cfi_escape 0x2e, 0x00
.Ltmp235:
	.loc	1 114 1                 # fieldsolver/ldz_main.cpp:114:1
	movl	$_ZSt4cerr, %edi
	callq	_ZSt4endlIcSt11char_traitsIcEERSt13basic_ostreamIT_T0_ES6_
.Ltmp236:
	.cfi_escape 0x2e, 0x00
	.loc	1 107 1                 # fieldsolver/ldz_main.cpp:107:1
	movl	$1, %edi
	callq	exit
.Ltmp237:
.LBB3_109:                              # %L.B2081.i
	#DEBUG_VALUE: endl:__os <- $r14
	#DEBUG_VALUE: __os <- $r14
	#DEBUG_VALUE: ....inline.__FILL_CHARARRAY <- [DW_OP_LLVM_convert 32 7, DW_OP_LLVM_convert 8 7, DW_OP_stack_value] 0
	#DEBUG_VALUE: hallTermCommunicateDerivatives <- [DW_OP_constu 120, DW_OP_minus] [$rbp+0]
	#DEBUG_VALUE: technicalGrid <- $r15
	#DEBUG_VALUE: gridDims <- [DW_OP_plus_uconst 264, DW_OP_stack_value] $r15
	#DEBUG_VALUE: propagateFields:perBGrid <- [DW_OP_constu 56, DW_OP_minus] [$rbp+0]
	#DEBUG_VALUE: propagateFields:perBDt2Grid <- [DW_OP_constu 112, DW_OP_minus] [$rbp+0]
	#DEBUG_VALUE: propagateFields:EGrid <- [DW_OP_constu 96, DW_OP_minus] [$rbp+0]
	#DEBUG_VALUE: propagateFields:EDt2Grid <- [DW_OP_constu 128, DW_OP_minus] [$rbp+0]
	#DEBUG_VALUE: propagateFields:EHallGrid <- [DW_OP_constu 88, DW_OP_minus] [$rbp+0]
	#DEBUG_VALUE: propagateFields:EGradPeGrid <- [DW_OP_constu 80, DW_OP_minus] [$rbp+0]
	#DEBUG_VALUE: propagateFields:momentsGrid <- [DW_OP_plus_uconst 16] [$rbp+0]
	#DEBUG_VALUE: propagateFields:momentsDt2Grid <- [DW_OP_plus_uconst 24] [$rbp+0]
	#DEBUG_VALUE: propagateFields:dPerBGrid <- [DW_OP_plus_uconst 32] [$rbp+0]
	#DEBUG_VALUE: propagateFields:dMomentsGrid <- [DW_OP_plus_uconst 40] [$rbp+0]
	#DEBUG_VALUE: propagateFields:BgBGrid <- [DW_OP_plus_uconst 48] [$rbp+0]
	#DEBUG_VALUE: propagateFields:volGrid <- [DW_OP_plus_uconst 56] [$rbp+0]
	#DEBUG_VALUE: propagateFields:technicalGrid <- [DW_OP_plus_uconst 64] [$rbp+0]
	#DEBUG_VALUE: propagateFields:sysBoundaries <- [DW_OP_plus_uconst 72] [$rbp+0]
	#DEBUG_VALUE: propagateFields:dt <- [DW_OP_plus_uconst 80] [$rbp+0]
	#DEBUG_VALUE: propagateFields:subcycles <- [DW_OP_plus_uconst 88] [$rbp+0]
	.cfi_escape 0x2e, 0x00
	.loc	4 450 1                 # /usr/include/c++/9/ostream:450:1
	callq	_ZSt16__throw_bad_castv
.Ltmp238:
.LBB3_110:                              # %L_T32389728_51664
	#DEBUG_VALUE: ....inline.__FILL_CHARARRAY <- [DW_OP_LLVM_convert 32 7, DW_OP_LLVM_convert 8 7, DW_OP_stack_value] 0
	#DEBUG_VALUE: hallTermCommunicateDerivatives <- [DW_OP_constu 120, DW_OP_minus] [$rbp+0]
	#DEBUG_VALUE: technicalGrid <- $r15
	#DEBUG_VALUE: gridDims <- [DW_OP_plus_uconst 264, DW_OP_stack_value] $r15
	#DEBUG_VALUE: propagateFields:perBGrid <- [DW_OP_constu 56, DW_OP_minus] [$rbp+0]
	#DEBUG_VALUE: propagateFields:perBDt2Grid <- [DW_OP_constu 112, DW_OP_minus] [$rbp+0]
	#DEBUG_VALUE: propagateFields:EGrid <- [DW_OP_constu 96, DW_OP_minus] [$rbp+0]
	#DEBUG_VALUE: propagateFields:EDt2Grid <- [DW_OP_constu 128, DW_OP_minus] [$rbp+0]
	#DEBUG_VALUE: propagateFields:EHallGrid <- [DW_OP_constu 88, DW_OP_minus] [$rbp+0]
	#DEBUG_VALUE: propagateFields:EGradPeGrid <- [DW_OP_constu 80, DW_OP_minus] [$rbp+0]
	#DEBUG_VALUE: propagateFields:momentsGrid <- [DW_OP_plus_uconst 16] [$rbp+0]
	#DEBUG_VALUE: propagateFields:momentsDt2Grid <- [DW_OP_plus_uconst 24] [$rbp+0]
	#DEBUG_VALUE: propagateFields:dPerBGrid <- [DW_OP_plus_uconst 32] [$rbp+0]
	#DEBUG_VALUE: propagateFields:dMomentsGrid <- [DW_OP_plus_uconst 40] [$rbp+0]
	#DEBUG_VALUE: propagateFields:BgBGrid <- [DW_OP_plus_uconst 48] [$rbp+0]
	#DEBUG_VALUE: propagateFields:volGrid <- [DW_OP_plus_uconst 56] [$rbp+0]
	#DEBUG_VALUE: propagateFields:technicalGrid <- [DW_OP_plus_uconst 64] [$rbp+0]
	#DEBUG_VALUE: propagateFields:sysBoundaries <- [DW_OP_plus_uconst 72] [$rbp+0]
	#DEBUG_VALUE: propagateFields:dt <- [DW_OP_plus_uconst 80] [$rbp+0]
	#DEBUG_VALUE: propagateFields:subcycles <- [DW_OP_plus_uconst 88] [$rbp+0]
.Ltmp29:
	.loc	4 0 1 is_stmt 0         # /usr/include/c++/9/ostream:0:1
	movq	%rax, %r14
.Ltmp239:
	#DEBUG_VALUE:  <- [DW_OP_constu 352, DW_OP_minus, DW_OP_stack_value] $rbp
	#DEBUG_VALUE: ~basic_string: <- [DW_OP_constu 352, DW_OP_minus, DW_OP_stack_value] $rbp
	.file	5 "/usr/include/c++/9/bits/basic_string.h"
	.loc	5 231 1 is_stmt 1       # /usr/include/c++/9/bits/basic_string.h:231:1
	movq	-352(%rbp), %rdi
	cmpq	%rbx, %rdi
	je	.LBB3_112
.Ltmp240:
# %bb.111:                              # %L.B1474.i347
	#DEBUG_VALUE: ~basic_string: <- [DW_OP_constu 352, DW_OP_minus, DW_OP_stack_value] $rbp
	#DEBUG_VALUE:  <- [DW_OP_constu 352, DW_OP_minus, DW_OP_stack_value] $rbp
	#DEBUG_VALUE: ....inline.__FILL_CHARARRAY <- [DW_OP_LLVM_convert 32 7, DW_OP_LLVM_convert 8 7, DW_OP_stack_value] 0
	#DEBUG_VALUE: hallTermCommunicateDerivatives <- [DW_OP_constu 120, DW_OP_minus] [$rbp+0]
	#DEBUG_VALUE: technicalGrid <- $r15
	#DEBUG_VALUE: gridDims <- [DW_OP_plus_uconst 264, DW_OP_stack_value] $r15
	#DEBUG_VALUE: propagateFields:perBGrid <- [DW_OP_constu 56, DW_OP_minus] [$rbp+0]
	#DEBUG_VALUE: propagateFields:perBDt2Grid <- [DW_OP_constu 112, DW_OP_minus] [$rbp+0]
	#DEBUG_VALUE: propagateFields:EGrid <- [DW_OP_constu 96, DW_OP_minus] [$rbp+0]
	#DEBUG_VALUE: propagateFields:EDt2Grid <- [DW_OP_constu 128, DW_OP_minus] [$rbp+0]
	#DEBUG_VALUE: propagateFields:EHallGrid <- [DW_OP_constu 88, DW_OP_minus] [$rbp+0]
	#DEBUG_VALUE: propagateFields:EGradPeGrid <- [DW_OP_constu 80, DW_OP_minus] [$rbp+0]
	#DEBUG_VALUE: propagateFields:momentsGrid <- [DW_OP_plus_uconst 16] [$rbp+0]
	#DEBUG_VALUE: propagateFields:momentsDt2Grid <- [DW_OP_plus_uconst 24] [$rbp+0]
