; ModuleID = 'memoryallocation.cpp'
target datalayout = "e-p:64:64-i64:64-f80:128-n8:16:32:64-S128"
target triple = "x86_64-pc-linux-gnu"
define internal void @pgCplus_compiled.() noinline {
L.entry:
	ret void
}

%struct._IO_FILE = type <{ i32, [4 x i8], i8*, i8*, i8*, i8*, i8*, i8*, i8*, i8*, i8*, i8*, i8*, %struct._IO_marker*, %struct._IO_FILE*, i32, i32, i64, i16, i8, [1 x i8], [4 x i8], i8*, i64, %struct._IO_codecvt*, %struct._IO_wide_data*, %struct._IO_FILE*, i8*, i64, i32, [20 x i8]}> 
%struct._IO_marker = type opaque
%struct._IO_codecvt = type opaque
%struct._IO_wide_data = type opaque



define i64 @_Z20get_node_free_memoryv() #0 !dbg !2158 {
L.entry:
	%mem_proc_free.addr = alloca i64, align 8
	%in_file.addr = alloca %struct._IO_FILE*, align 8
	%attribute_name.addr = alloca [200 x i8], align 1
	%memory.addr = alloca i32, align 4
	%memory_unit.addr = alloca [10 x i8], align 1

	call void @llvm.dbg.declare (metadata i64* %mem_proc_free.addr, metadata !2163, metadata !2164), !dbg !2159
	store i64 0, i64* %mem_proc_free.addr, align 8, !tbaa !2187, !dbg !2162
	%0 = bitcast [14 x i8]* @.S13057 to i8*, !dbg !2165
	%1 = bitcast [2 x i8]* @.S13059 to i8*, !dbg !2165
	%2 = call %struct._IO_FILE*  @fopen (i8*  %0, i8*  %1) nounwind, !dbg !2165
	%3 = bitcast %struct._IO_FILE*  %2 to i8*, !dbg !2165
	call void @llvm.dbg.declare (metadata %struct._IO_FILE** %in_file.addr, metadata !2166, metadata !2164), !dbg !2159
	%4 = bitcast %struct._IO_FILE** %in_file.addr to i8**, !dbg !2165
	store i8*  %3, i8**  %4, align 8, !tbaa !2188, !dbg !2165
	%5 = load %struct._IO_FILE*, %struct._IO_FILE** %in_file.addr, align 8, !tbaa !2188, !dbg !2167
	%6 = bitcast %struct._IO_FILE*  %5 to i8*, !dbg !2167
	%7 = icmp eq i8*  %6,  null, !dbg !2167
	br i1  %7, label %L.B0000, label %L.B0548, !dbg !2167
L.B0548:
	%8 = bitcast [9 x i8]* @.S13067 to i8*, !dbg !2168
	call void @llvm.dbg.declare (metadata [200 x i8]* %attribute_name.addr, metadata !2172, metadata !2164), !dbg !2159
	%9 = bitcast [200 x i8]* %attribute_name.addr to i8*, !dbg !2168
	call void @llvm.dbg.declare (metadata i32* %memory.addr, metadata !2173, metadata !2164), !dbg !2159
	call void @llvm.dbg.declare (metadata [10 x i8]* %memory_unit.addr, metadata !2177, metadata !2164), !dbg !2159
	%10 = bitcast [10 x i8]* %memory_unit.addr to i8*, !dbg !2168
	%11 = call i32 (%struct._IO_FILE*, i8*, ...)  @__isoc99_fscanf (%struct._IO_FILE*  %5, i8*  %8, i8*  %9, i32* %memory.addr, i8*  %10) nounwind, !dbg !2168
	%12 = icmp eq i32  %11, -1, !dbg !2168
	br i1  %12, label %L.B0002, label %L.B0001, !dbg !2168
L.B0001:
	%13 = bitcast [200 x i8]* %attribute_name.addr to i8*, !dbg !2178
	%14 = bitcast [9 x i8]* @.S13062 to i8*, !dbg !2178
	%15 = call i32  @strcmp (i8*  %13, i8*  %14) nounwind, !dbg !2178
	%16 = icmp ne i32  %15, 0, !dbg !2178
	br i1  %16, label %L.B0003, label %L.B0549, !dbg !2178
L.B0549:
	%17 = load i32, i32* %memory.addr, align 4, !tbaa !2190, !dbg !2179
	%18 = sext i32  %17 to i64, !dbg !2179
	%19 = mul i64  %18, 1024, !dbg !2179
	store i64  %19, i64* %mem_proc_free.addr, align 8, !tbaa !2187, !dbg !2179
	br label %L.B0003
L.B0003:
	%20 = load %struct._IO_FILE*, %struct._IO_FILE** %in_file.addr, align 8, !tbaa !2188, !dbg !2180
	%21 = bitcast [9 x i8]* @.S13067 to i8*, !dbg !2180
	%22 = bitcast [200 x i8]* %attribute_name.addr to i8*, !dbg !2180
	%23 = bitcast [10 x i8]* %memory_unit.addr to i8*, !dbg !2180
	%24 = call i32 (%struct._IO_FILE*, i8*, ...)  @__isoc99_fscanf (%struct._IO_FILE*  %20, i8*  %21, i8*  %22, i32* %memory.addr, i8*  %23) nounwind, !dbg !2180
	%25 = icmp ne i32  %24, -1, !dbg !2180
	br i1  %25, label %L.B0001, label %L.B0002, !dbg !2180
L.B0002:
	br label %L.B0000
L.B0000:
	%26 = load %struct._IO_FILE*, %struct._IO_FILE** %in_file.addr, align 8, !tbaa !2188, !dbg !2181
	%27 = call i32  @fclose (%struct._IO_FILE*  %26) nounwind, !dbg !2181
	%28 = load i64, i64* %mem_proc_free.addr, align 8, !tbaa !2187, !dbg !2182
	ret i64  %28, !dbg !2182
}

%astruct.dt64 = type <{ i8*, i32}> 
%union.__C5 = type <{ [16 x i8]}> 
%struct._ZSt26random_access_iterator_tag = type <{ [1 x i8]}> 
%struct._ZSt4hashINSt7__cxx1112basic_stringIcSt11char_traitsIcESaIcEEEE = type <{ [1 x i8]}> 
%struct._ZNSt7__cxx1112basic_stringIcSt11char_traitsIcESaIcEE12_Alloc_hiderE = type <{ i8*}> 
%struct.ompi_communicator_t = type opaque
%struct.ompi_predefined_communicator_t = type opaque
%struct._ZNSt7__cxx1112basic_stringIcSt11char_traitsIcESaIcEEE = type <{ %struct._ZNSt7__cxx1112basic_stringIcSt11char_traitsIcESaIcEE12_Alloc_hiderE, i64, %union.__C5}> 

define void @_Z33report_process_memory_consumptionv() #0 personality i8* bitcast (i32 (...)* @__gxx_personality_v0 to i8*) !dbg !2192 {
L.entry:
	%nProcs.addr = alloca i32, align 4
	%rank.addr = alloca i32, align 4
	%nodename.addr = alloca [256 x i8], align 1
	%namelength.addr = alloca i32, align 4
	%_T47729424_12088.addr = alloca %struct._ZNSt7__cxx1112basic_stringIcSt11char_traitsIcESaIcEEE, align 8
	%..inline.addr = alloca i64, align 8
	%..inline.addr.1 = alloca i8*, align 8
	%....inline.__FILL_CHARARRAY.addr = alloca [1 x i8], align 1
	%....inline.__FILL_CHARARRAY.addr.1 = alloca [1 x i8], align 1
	%..inline.addr.2 = alloca %struct._ZSt26random_access_iterator_tag, align 1
	%hasher.addr = alloca %struct._ZSt4hashINSt7__cxx1112basic_stringIcSt11char_traitsIcESaIcEEEE, align 1
	%nodehash.addr = alloca i32, align 4
	%..inline.addr.3 = alloca i8*, align 8
	%nodeComm.addr = alloca %struct.ompi_communicator_t*, align 8
	%nodeRank.addr = alloca i32, align 4
	%interComm.addr = alloca %struct.ompi_communicator_t*, align 8
	%interRank.addr = alloca i32, align 4
	%nNodes.addr = alloca i32, align 4
	%__caught_object_address.addr = alloca i8*, align 8
	%__catch_clause_number.addr = alloca i32, align 4

	%0 = bitcast %struct.ompi_predefined_communicator_t* @ompi_mpi_comm_world to %struct.ompi_communicator_t*, !dbg !2304
	call void @llvm.dbg.declare (metadata i32* %nProcs.addr, metadata !2307, metadata !2164), !dbg !2193
	%1 = call i32  @MPI_Comm_size (%struct.ompi_communicator_t*  %0, i32* %nProcs.addr) nounwind, !dbg !2304
	call void @llvm.dbg.declare (metadata i32* %rank.addr, metadata !2309, metadata !2164), !dbg !2193
	%2 = call i32  @MPI_Comm_rank (%struct.ompi_communicator_t*  %0, i32* %rank.addr) nounwind, !dbg !2308
	call void @llvm.dbg.declare (metadata [256 x i8]* %nodename.addr, metadata !2311, metadata !2164), !dbg !2193
	%3 = bitcast [256 x i8]* %nodename.addr to i8*, !dbg !2310
	call void @llvm.dbg.declare (metadata i32* %namelength.addr, metadata !2312, metadata !2164), !dbg !2193
	%4 = call i32  @MPI_Get_processor_name (i8*  %3, i32* %namelength.addr) nounwind, !dbg !2310
	%5 = bitcast %struct._ZNSt7__cxx1112basic_stringIcSt11char_traitsIcESaIcEEE* %_T47729424_12088.addr to i8*, !dbg !2313
	%6 = getelementptr i8, i8*  %5, i64 16, !dbg !2313
	%7 = bitcast %struct._ZNSt7__cxx1112basic_stringIcSt11char_traitsIcESaIcEEE* %_T47729424_12088.addr to i8**, !dbg !2313
	store i8*  %6, i8**  %7, align 8, !tbaa !2188, !dbg !2313
	%8 = call i64  @strlen (i8*  %3) nounwind, !dbg !2313
	%9 = getelementptr i8, i8*  %3, i64  %8, !dbg !2313
	store i8*  %9, i8** %..inline.addr.1, align 8, !tbaa !2188, !dbg !2313
	call void @llvm.dbg.declare (metadata [1 x i8]* %....inline.__FILL_CHARARRAY.addr, metadata !2315, metadata !2164), !dbg !2195
	%10 = bitcast [1 x i8]* %....inline.__FILL_CHARARRAY.addr to i8*, !dbg !2314
	%11 = load i8, i8*  %10, align 1, !tbaa !2332, !dbg !2314
	%12 = zext i8  %11 to i32, !dbg !2314
	%13 = trunc i32  %12 to i8, !dbg !2314
	call void @llvm.dbg.declare (metadata [1 x i8]* %....inline.__FILL_CHARARRAY.addr.1, metadata !2315, metadata !2164), !dbg !2195
	%14 = bitcast [1 x i8]* %....inline.__FILL_CHARARRAY.addr.1 to i8*, !dbg !2314
	store i8  %13, i8*  %14, align 1, !tbaa !2332, !dbg !2314
	%15 = load i8*, i8** %..inline.addr.1, align 8, !tbaa !2188, !dbg !2313
	%16 = bitcast %struct._ZSt26random_access_iterator_tag* %..inline.addr.2 to i8*, !dbg !2313
	%17 = load i8, i8*  %16, align 1, !tbaa !2332, !dbg !2313
	invoke void  @_ZNSt7__cxx1112basic_stringIcSt11char_traitsIcESaIcEE12_M_constructIPKcEEvT_S8_St20forward_iterator_tag (%struct._ZNSt7__cxx1112basic_stringIcSt11char_traitsIcESaIcEEE* %_T47729424_12088.addr, i8*  %3, i8*  %15, i8  %17)
		to label %L.B0564
		unwind label %L_T47733568_12088, !dbg !2313
L.B0564:
	call void @llvm.dbg.declare (metadata %struct._ZSt4hashINSt7__cxx1112basic_stringIcSt11char_traitsIcESaIcEEEE* %hasher.addr, metadata !2317, metadata !2164), !dbg !2193
	%18 = call i64  @_ZNKSt4hashINSt7__cxx1112basic_stringIcSt11char_traitsIcESaIcEEEEclERKS5_ (%struct._ZSt4hashINSt7__cxx1112basic_stringIcSt11char_traitsIcESaIcEEEE* %hasher.addr, %struct._ZNSt7__cxx1112basic_stringIcSt11char_traitsIcESaIcEEE* %_T47729424_12088.addr) nounwind, !dbg !2316
	%19 = zext i64 8589934597 to i128, !dbg !2316
	%20 = zext i64  %18 to i128, !dbg !2316
	%21 = mul i128  %19,  %20, !dbg !2316
	%22 = lshr i128  %21, 64, !dbg !2316
	%23 = trunc i128  %22 to i64, !dbg !2316
	%24 = zext i64 8589934597 to i128, !dbg !2316
	%25 = mul i128  %24,  %20, !dbg !2316
	%26 = lshr i128  %25, 64, !dbg !2316
	%27 = trunc i128  %26 to i64, !dbg !2316
	%28 = sub i64  %18,  %27, !dbg !2316
	%29 = sext i32 1 to i64, !dbg !2316
	%30 = lshr i64  %28,  %29, !dbg !2316
	%31 = add i64  %23,  %30, !dbg !2316
	%32 = sext i32 30 to i64, !dbg !2316
	%33 = lshr i64  %31,  %32, !dbg !2316
	%34 = mul i64  %33, 2147483647, !dbg !2316
	%35 = sub i64  %18,  %34, !dbg !2316
	%36 = trunc i64  %35 to i32, !dbg !2316
	call void @llvm.dbg.declare (metadata i32* %nodehash.addr, metadata !2318, metadata !2164), !dbg !2193
	store i32  %36, i32* %nodehash.addr, align 4, !tbaa !2190, !dbg !2316
	%37 = load i8*, i8**  %7, align 8, !tbaa !2188, !dbg !2319
	%38 = getelementptr i8, i8*  %5, i64 16, !dbg !2319
	%39 = icmp eq i8*  %37,  %38, !dbg !2319
	br i1  %39, label %L..inline.19019, label %L.B0565, !dbg !2319
L.B0565:
	%40 = bitcast %struct._ZNSt7__cxx1112basic_stringIcSt11char_traitsIcESaIcEEE* %_T47729424_12088.addr to i8**, !dbg !2319
	%41 = load i8*, i8**  %40, align 8, !tbaa !2188, !dbg !2319
	call void  @_ZdlPv (i8*  %41) nounwind, !dbg !2319
	br label %L..inline.19019
L..inline.19019:
	%42 = bitcast %struct.ompi_predefined_communicator_t* @ompi_mpi_comm_world to %struct.ompi_communicator_t*, !dbg !2320
	%43 = load i32, i32* %nodehash.addr, align 4, !tbaa !2190, !dbg !2320
	%44 = load i32, i32* %rank.addr, align 4, !tbaa !2190, !dbg !2320
	call void @llvm.dbg.declare (metadata %struct.ompi_communicator_t** %nodeComm.addr, metadata !2321, metadata !2164), !dbg !2193
	%45 = call i32  @MPI_Comm_split (%struct.ompi_communicator_t*  %42, i32  %43, i32  %44, %struct.ompi_communicator_t** %nodeComm.addr) nounwind, !dbg !2320
	%46 = load %struct.ompi_communicator_t*, %struct.ompi_communicator_t** %nodeComm.addr, align 8, !tbaa !2188, !dbg !2322
	call void @llvm.dbg.declare (metadata i32* %nodeRank.addr, metadata !2323, metadata !2164), !dbg !2193
	%47 = call i32  @MPI_Comm_rank (%struct.ompi_communicator_t*  %46, i32* %nodeRank.addr) nounwind, !dbg !2322
	%48 = load i32, i32* %nodeRank.addr, align 4, !tbaa !2190, !dbg !2324
	%49 = load i32, i32* %rank.addr, align 4, !tbaa !2190, !dbg !2324
	call void @llvm.dbg.declare (metadata %struct.ompi_communicator_t** %interComm.addr, metadata !2325, metadata !2164), !dbg !2193
	%50 = call i32  @MPI_Comm_split (%struct.ompi_communicator_t*  %42, i32  %48, i32  %49, %struct.ompi_communicator_t** %interComm.addr) nounwind, !dbg !2324
	%51 = load %struct.ompi_communicator_t*, %struct.ompi_communicator_t** %interComm.addr, align 8, !tbaa !2188, !dbg !2326
	call void @llvm.dbg.declare (metadata i32* %interRank.addr, metadata !2327, metadata !2164), !dbg !2193
	%52 = call i32  @MPI_Comm_rank (%struct.ompi_communicator_t*  %51, i32* %interRank.addr) nounwind, !dbg !2326
	%53 = load %struct.ompi_communicator_t*, %struct.ompi_communicator_t** %interComm.addr, align 8, !tbaa !2188, !dbg !2328
	call void @llvm.dbg.declare (metadata i32* %nNodes.addr, metadata !2329, metadata !2164), !dbg !2193
	%54 = call i32  @MPI_Comm_size (%struct.ompi_communicator_t*  %53, i32* %nNodes.addr) nounwind, !dbg !2328
	%55 = call i32  @MPI_Comm_free (%struct.ompi_communicator_t** %interComm.addr) nounwind, !dbg !2330
	%56 = call i32  @MPI_Comm_free (%struct.ompi_communicator_t** %nodeComm.addr) nounwind, !dbg !2331
	br label %L.R0001, !dbg !2331
L_T47733568_12088:
	%57 = landingpad %astruct.dt64
	cleanup
	%58 = extractvalue %astruct.dt64  %57, 0, !dbg !2331
	store i8*  %58, i8** %__caught_object_address.addr, align 1, !tbaa !2188, !dbg !2331
	%59 = extractvalue %astruct.dt64  %57, 1, !dbg !2331
	store i32  %59, i32* %__catch_clause_number.addr, align 1, !tbaa !2332, !dbg !2331
	%60 = load i32, i32* %__catch_clause_number.addr, align 4, !tbaa !2332, !dbg !2331
	%61 = load i8*, i8** %__caught_object_address.addr, align 8, !tbaa !2188, !dbg !2331
	%62 = insertvalue %astruct.dt64 undef, i8*  %61, 0, !dbg !2331
	%63 = insertvalue %astruct.dt64  %62, i32  %60, 1, !dbg !2331
	resume %astruct.dt64  %63 , !dbg !2331
L.R0001:
	ret void, !dbg !2314
}
define linkonce_odr void @_ZNSt11char_traitsIcE6assignERcRKc(i8* %__c1.arg, i8* %__c2.arg) #0 inlinehint !dbg !2339 {
L.entry:
	%__c1.addr = alloca i8*, align 8
	%__c2.addr = alloca i8*, align 8

	call void @llvm.dbg.declare (metadata i8** %__c1.addr, metadata !2343, metadata !2164), !dbg !2340
	store i8* %__c1.arg, i8** %__c1.addr, align 8, !tbaa !2188
	call void @llvm.dbg.declare (metadata i8** %__c1.addr, metadata !2344, metadata !2164), !dbg !2340
	call void @llvm.dbg.declare (metadata i8** %__c2.addr, metadata !2345, metadata !2164), !dbg !2340
	store i8* %__c2.arg, i8** %__c2.addr, align 8, !tbaa !2188
	call void @llvm.dbg.declare (metadata i8** %__c2.addr, metadata !2346, metadata !2164), !dbg !2340
	%0 = load i8*, i8** %__c2.addr, align 8, !tbaa !2188, !dbg !2347
	%1 = load i8, i8*  %0, align 1, !tbaa !2332, !dbg !2347
	%2 = load i8*, i8** %__c1.addr, align 8, !tbaa !2188, !dbg !2347
	store i8  %1, i8*  %2, align 1, !tbaa !2332, !dbg !2347
	ret void, !dbg !2347
}
define linkonce_odr i64 @_ZNSt11char_traitsIcE6lengthEPKc(i8* %__s.arg) #0 inlinehint !dbg !2351 {
L.entry:
	%__s.addr = alloca i8*, align 8

	call void @llvm.dbg.declare (metadata i8** %__s.addr, metadata !2355, metadata !2164), !dbg !2352
	store i8* %__s.arg, i8** %__s.addr, align 8, !tbaa !2188
	call void @llvm.dbg.declare (metadata i8** %__s.addr, metadata !2356, metadata !2164), !dbg !2352
	%0 = load i8*, i8** %__s.addr, align 8, !tbaa !2188, !dbg !2357
	%1 = call i64  @strlen (i8*  %0) nounwind, !dbg !2357
	ret i64  %1, !dbg !2357
}
define linkonce_odr i8* @_ZNSt11char_traitsIcE4copyEPcPKcm(i8* %__s1.arg, i8* %__s2.arg, i64 %__n.arg) #0 inlinehint !dbg !2362 {
L.entry:
	%__s1.addr = alloca i8*, align 8
	%__s2.addr = alloca i8*, align 8
	%__n.addr = alloca i64, align 8

	call void @llvm.dbg.declare (metadata i8** %__s1.addr, metadata !2366, metadata !2164), !dbg !2363
	store i8* %__s1.arg, i8** %__s1.addr, align 8, !tbaa !2188
	call void @llvm.dbg.declare (metadata i8** %__s1.addr, metadata !2367, metadata !2164), !dbg !2363
	call void @llvm.dbg.declare (metadata i8** %__s2.addr, metadata !2368, metadata !2164), !dbg !2363
	store i8* %__s2.arg, i8** %__s2.addr, align 8, !tbaa !2188
	call void @llvm.dbg.declare (metadata i8** %__s2.addr, metadata !2369, metadata !2164), !dbg !2363
	call void @llvm.dbg.declare (metadata i64* %__n.addr, metadata !2370, metadata !2164), !dbg !2363
	store i64 %__n.arg, i64* %__n.addr, align 8, !tbaa !2332
	call void @llvm.dbg.declare (metadata i64* %__n.addr, metadata !2371, metadata !2164), !dbg !2363
	%0 = load i64, i64* %__n.addr, align 8, !tbaa !2187, !dbg !2372
	%1 = icmp ne i64  %0, 0, !dbg !2372
	br i1  %1, label %L.B0004, label %L.B0566, !dbg !2372
L.B0566:
	%2 = load i8*, i8** %__s1.addr, align 8, !tbaa !2188, !dbg !2373
	ret i8*  %2, !dbg !2373
L.B0567:
	br label %L.R0004, !dbg !2373
L.B0004:
	%3 = load i8*, i8** %__s1.addr, align 8, !tbaa !2188, !dbg !2374
	%4 = load i8*, i8** %__s2.addr, align 8, !tbaa !2188, !dbg !2374
	%5 = load i64, i64* %__n.addr, align 8, !tbaa !2187, !dbg !2374
	%6 = call i8*  @memcpy (i8*  %3, i8*  %4, i64  %5) nounwind, !dbg !2374
	ret i8*  %6, !dbg !2374
L.R0004:
	ret i8* null
}

%struct._ZSaIcE = type <{ [1 x i8]}> 

define linkonce_odr void @_ZNSaIcEC1Ev(%struct._ZSaIcE* %_T47727800_12097.arg) #0 inlinehint !dbg !2382 {
L.entry:
	%_T47727800_12097.addr = alloca %struct._ZSaIcE*, align 8

	call void @llvm.dbg.declare (metadata %struct._ZSaIcE** %_T47727800_12097.addr, metadata !2386, metadata !2164), !dbg !2383
	store %struct._ZSaIcE* %_T47727800_12097.arg, %struct._ZSaIcE** %_T47727800_12097.addr, align 8, !tbaa !2188
	call void @llvm.dbg.declare (metadata %struct._ZSaIcE** %_T47727800_12097.addr, metadata !2387, metadata !2164), !dbg !2383
	ret void, !dbg !2388
}
define linkonce_odr void @_ZNSaIcEC2Ev(%struct._ZSaIcE* %_T47727800_12098.arg) #0 inlinehint !dbg !2390 {
L.entry:
	%_T47727800_12098.addr = alloca %struct._ZSaIcE*, align 8

	store %struct._ZSaIcE* %_T47727800_12098.arg, %struct._ZSaIcE** %_T47727800_12098.addr, align 8, !tbaa !2188
	ret void, !dbg !2398
}
define linkonce_odr void @_ZNSaIcED1Ev(%struct._ZSaIcE* %_T47727800_12099.arg) #0 inlinehint !dbg !2400 {
L.entry:
	%_T47727800_12099.addr = alloca %struct._ZSaIcE*, align 8

	call void @llvm.dbg.declare (metadata %struct._ZSaIcE** %_T47727800_12099.addr, metadata !2404, metadata !2164), !dbg !2401
	store %struct._ZSaIcE* %_T47727800_12099.arg, %struct._ZSaIcE** %_T47727800_12099.addr, align 8, !tbaa !2188
	call void @llvm.dbg.declare (metadata %struct._ZSaIcE** %_T47727800_12099.addr, metadata !2405, metadata !2164), !dbg !2401
	ret void, !dbg !2406
}
define linkonce_odr void @_ZNSaIcED2Ev(%struct._ZSaIcE* %_T47727800_12100.arg) #0 inlinehint !dbg !2408 {
L.entry:
	%_T47727800_12100.addr = alloca %struct._ZSaIcE*, align 8

	store %struct._ZSaIcE* %_T47727800_12100.arg, %struct._ZSaIcE** %_T47727800_12100.addr, align 8, !tbaa !2188
	ret void, !dbg !2416
}
define linkonce_odr void @_ZNSt16allocator_traitsISaIcEE10deallocateERS0_Pcm(%struct._ZSaIcE* %__a.arg, i8* %__p.arg, i64 %__n.arg) #0 inlinehint !dbg !2426 {
L.entry:
	%__a.addr = alloca %struct._ZSaIcE*, align 8
	%__p.addr = alloca i8*, align 8
	%__n.addr = alloca i64, align 8
	%..inline.addr = alloca i8*, align 8

	call void @llvm.dbg.declare (metadata %struct._ZSaIcE** %__a.addr, metadata !2434, metadata !2164), !dbg !2427
	store %struct._ZSaIcE* %__a.arg, %struct._ZSaIcE** %__a.addr, align 8, !tbaa !2188
	call void @llvm.dbg.declare (metadata %struct._ZSaIcE** %__a.addr, metadata !2435, metadata !2164), !dbg !2427
	call void @llvm.dbg.declare (metadata i8** %__p.addr, metadata !2436, metadata !2164), !dbg !2427
	store i8* %__p.arg, i8** %__p.addr, align 8, !tbaa !2188
	call void @llvm.dbg.declare (metadata i8** %__p.addr, metadata !2437, metadata !2164), !dbg !2427
	call void @llvm.dbg.declare (metadata i64* %__n.addr, metadata !2438, metadata !2164), !dbg !2427
	store i64 %__n.arg, i64* %__n.addr, align 8, !tbaa !2332
	call void @llvm.dbg.declare (metadata i64* %__n.addr, metadata !2439, metadata !2164), !dbg !2427
	%0 = load i8*, i8** %__p.addr, align 8, !tbaa !2188, !dbg !2440
	call void  @_ZdlPv (i8*  %0) nounwind, !dbg !2441
	ret void, !dbg !2440
}
define linkonce_odr i64 @_ZNSt10_Hash_impl4hashEPKvmm(i8* %__ptr.arg, i64 %__clength.arg, i64 %__seed.arg) #0 inlinehint !dbg !2447 {
L.entry:
	%__ptr.addr = alloca i8*, align 8
	%__clength.addr = alloca i64, align 8
	%__seed.addr = alloca i64, align 8
	%.Q0000.addr = alloca i64, align 8

	call void @llvm.dbg.declare (metadata i8** %__ptr.addr, metadata !2451, metadata !2164), !dbg !2448
	store i8* %__ptr.arg, i8** %__ptr.addr, align 8, !tbaa !2188
	call void @llvm.dbg.declare (metadata i8** %__ptr.addr, metadata !2452, metadata !2164), !dbg !2448
	call void @llvm.dbg.declare (metadata i64* %__clength.addr, metadata !2453, metadata !2164), !dbg !2448
	store i64 %__clength.arg, i64* %__clength.addr, align 8, !tbaa !2332
	call void @llvm.dbg.declare (metadata i64* %__clength.addr, metadata !2454, metadata !2164), !dbg !2448
	call void @llvm.dbg.declare (metadata i64* %__seed.addr, metadata !2455, metadata !2164), !dbg !2448
	store i64 %__seed.arg, i64* %__seed.addr, align 8, !tbaa !2332
	call void @llvm.dbg.declare (metadata i64* %__seed.addr, metadata !2456, metadata !2164), !dbg !2448
	%0 = load i8*, i8** %__ptr.addr, align 8, !tbaa !2188, !dbg !2457
	%1 = load i64, i64* %__clength.addr, align 8, !tbaa !2187, !dbg !2457
	%2 = load i64, i64* %__seed.addr, align 8, !tbaa !2187, !dbg !2457
	%3 = call i64  @_ZSt11_Hash_bytesPKvmm (i8*  %0, i64  %1, i64  %2), !dbg !2457
	ret i64  %3, !dbg !2457
}
define linkonce_odr i64 @_ZNKSt4hashINSt7__cxx1112basic_stringIcSt11char_traitsIcESaIcEEEEclERKS5_(%struct._ZSt4hashINSt7__cxx1112basic_stringIcSt11char_traitsIcESaIcEEEE* %_T47727800_12110.arg, %struct._ZNSt7__cxx1112basic_stringIcSt11char_traitsIcESaIcEEE* %__s.arg) #0 inlinehint personality i8* bitcast (i32 (...)* @__gxx_personality_v0 to i8*) !dbg !2470 {
L.entry:
	%_T47727800_12110.addr = alloca %struct._ZSt4hashINSt7__cxx1112basic_stringIcSt11char_traitsIcESaIcEEEE*, align 8
	%__s.addr = alloca %struct._ZNSt7__cxx1112basic_stringIcSt11char_traitsIcESaIcEEE*, align 8
	%..inline.addr = alloca i8*, align 8
	%..inline.addr.1 = alloca i64, align 8
	%.Q0001.addr = alloca i64, align 8
	%__caught_object_address.addr = alloca i8*, align 8
	%__catch_clause_number.addr = alloca i32, align 4

	call void @llvm.dbg.declare (metadata %struct._ZSt4hashINSt7__cxx1112basic_stringIcSt11char_traitsIcESaIcEEEE** %_T47727800_12110.addr, metadata !2490, metadata !2164), !dbg !2471
	store %struct._ZSt4hashINSt7__cxx1112basic_stringIcSt11char_traitsIcESaIcEEEE* %_T47727800_12110.arg, %struct._ZSt4hashINSt7__cxx1112basic_stringIcSt11char_traitsIcESaIcEEEE** %_T47727800_12110.addr, align 8, !tbaa !2188
	call void @llvm.dbg.declare (metadata %struct._ZSt4hashINSt7__cxx1112basic_stringIcSt11char_traitsIcESaIcEEEE** %_T47727800_12110.addr, metadata !2491, metadata !2164), !dbg !2471
	call void @llvm.dbg.declare (metadata %struct._ZNSt7__cxx1112basic_stringIcSt11char_traitsIcESaIcEEE** %__s.addr, metadata !2492, metadata !2164), !dbg !2471
	store %struct._ZNSt7__cxx1112basic_stringIcSt11char_traitsIcESaIcEEE* %__s.arg, %struct._ZNSt7__cxx1112basic_stringIcSt11char_traitsIcESaIcEEE** %__s.addr, align 8, !tbaa !2188
	call void @llvm.dbg.declare (metadata %struct._ZNSt7__cxx1112basic_stringIcSt11char_traitsIcESaIcEEE** %__s.addr, metadata !2493, metadata !2164), !dbg !2471
	%0 = load %struct._ZNSt7__cxx1112basic_stringIcSt11char_traitsIcESaIcEEE*, %struct._ZNSt7__cxx1112basic_stringIcSt11char_traitsIcESaIcEEE** %__s.addr, align 8, !tbaa !2188, !dbg !2494
	%1 = bitcast %struct._ZNSt7__cxx1112basic_stringIcSt11char_traitsIcESaIcEEE*  %0 to i8**, !dbg !2494
	%2 = load i8*, i8**  %1, align 8, !tbaa !2188, !dbg !2494
	%3 = bitcast %struct._ZNSt7__cxx1112basic_stringIcSt11char_traitsIcESaIcEEE*  %0 to i8*, !dbg !2495
	%4 = getelementptr i8, i8*  %3, i64 8, !dbg !2495
	%5 = bitcast i8*  %4 to i64*, !dbg !2495
	%6 = load i64, i64*  %5, align 8, !tbaa !2332, !dbg !2495
	%7 = invoke i64  @_ZSt11_Hash_bytesPKvmm (i8*  %2, i64  %6, i64 3339675911)
		to label %L.B0580
		unwind label %L_T47729280_12110, !dbg !2496
L.B0580:
	store i64  %7, i64* %.Q0001.addr, align 8, !tbaa !2498, !dbg !2496
	ret i64  %7, !dbg !2495
L.B0581:
	br label %L.R0011, !dbg !2495
L_T47729280_12110:
	%8 = landingpad %astruct.dt64
	cleanup
	%9 = extractvalue %astruct.dt64  %8, 0, !dbg !2495
	store i8*  %9, i8** %__caught_object_address.addr, align 1, !tbaa !2188, !dbg !2495
	%10 = extractvalue %astruct.dt64  %8, 1, !dbg !2495
	store i32  %10, i32* %__catch_clause_number.addr, align 1, !tbaa !2332, !dbg !2495
	%11 = load i8*, i8** %__caught_object_address.addr, align 8, !tbaa !2188, !dbg !2495
	%12 = call i8*  @__cxa_begin_catch (i8*  %11) nounwind, !dbg !2495
	call void  @_ZSt9terminatev () nounwind noreturn, !dbg !2495
	br label %L.R0011
L.R0011:
	ret i64 0
}
define linkonce_odr i8* @_ZNSt14pointer_traitsIPcE10pointer_toERc(i8* %__r.arg) #0 inlinehint !dbg !2504 {
L.entry:
	%__r.addr = alloca i8*, align 8

	call void @llvm.dbg.declare (metadata i8** %__r.addr, metadata !2516, metadata !2164), !dbg !2505
	store i8* %__r.arg, i8** %__r.addr, align 8, !tbaa !2188
	call void @llvm.dbg.declare (metadata i8** %__r.addr, metadata !2517, metadata !2164), !dbg !2505
	%0 = load i8*, i8** %__r.addr, align 8, !tbaa !2188, !dbg !2518
	ret i8*  %0, !dbg !2518
}
define linkonce_odr i8* @_ZNSt14pointer_traitsIPKcE10pointer_toERS0_(i8* %__r.arg) #0 inlinehint !dbg !2520 {
L.entry:
	%__r.addr = alloca i8*, align 8

	call void @llvm.dbg.declare (metadata i8** %__r.addr, metadata !2532, metadata !2164), !dbg !2521
	store i8* %__r.arg, i8** %__r.addr, align 8, !tbaa !2188
	call void @llvm.dbg.declare (metadata i8** %__r.addr, metadata !2533, metadata !2164), !dbg !2521
	%0 = load i8*, i8** %__r.addr, align 8, !tbaa !2188, !dbg !2534
	ret i8*  %0, !dbg !2534
}
define linkonce_odr void @_ZNSt7__cxx1112basic_stringIcSt11char_traitsIcESaIcEE7_M_dataEPc(%struct._ZNSt7__cxx1112basic_stringIcSt11char_traitsIcESaIcEEE* %_T47727800_12120.arg, i8* %__p.arg) #0 inlinehint !dbg !2539 {
L.entry:
	%_T47727800_12120.addr = alloca %struct._ZNSt7__cxx1112basic_stringIcSt11char_traitsIcESaIcEEE*, align 8
	%__p.addr = alloca i8*, align 8

	call void @llvm.dbg.declare (metadata %struct._ZNSt7__cxx1112basic_stringIcSt11char_traitsIcESaIcEEE** %_T47727800_12120.addr, metadata !2543, metadata !2164), !dbg !2540
	store %struct._ZNSt7__cxx1112basic_stringIcSt11char_traitsIcESaIcEEE* %_T47727800_12120.arg, %struct._ZNSt7__cxx1112basic_stringIcSt11char_traitsIcESaIcEEE** %_T47727800_12120.addr, align 8, !tbaa !2188
	call void @llvm.dbg.declare (metadata %struct._ZNSt7__cxx1112basic_stringIcSt11char_traitsIcESaIcEEE** %_T47727800_12120.addr, metadata !2544, metadata !2164), !dbg !2540
	call void @llvm.dbg.declare (metadata i8** %__p.addr, metadata !2545, metadata !2164), !dbg !2540
	store i8* %__p.arg, i8** %__p.addr, align 8, !tbaa !2188
	call void @llvm.dbg.declare (metadata i8** %__p.addr, metadata !2546, metadata !2164), !dbg !2540
	%0 = load i8*, i8** %__p.addr, align 8, !tbaa !2188, !dbg !2547
	%1 = load %struct._ZNSt7__cxx1112basic_stringIcSt11char_traitsIcESaIcEEE*, %struct._ZNSt7__cxx1112basic_stringIcSt11char_traitsIcESaIcEEE** %_T47727800_12120.addr, align 8, !tbaa !2188, !dbg !2547
	%2 = bitcast %struct._ZNSt7__cxx1112basic_stringIcSt11char_traitsIcESaIcEEE*  %1 to i8**, !dbg !2547
	store i8*  %0, i8**  %2, align 8, !tbaa !2188, !dbg !2547
	ret void, !dbg !2547
}
define linkonce_odr void @_ZNSt7__cxx1112basic_stringIcSt11char_traitsIcESaIcEE9_M_lengthEm(%struct._ZNSt7__cxx1112basic_stringIcSt11char_traitsIcESaIcEEE* %_T47727800_12122.arg, i64 %__length.arg) #0 inlinehint !dbg !2551 {
L.entry:
	%_T47727800_12122.addr = alloca %struct._ZNSt7__cxx1112basic_stringIcSt11char_traitsIcESaIcEEE*, align 8
	%__length.addr = alloca i64, align 8

	call void @llvm.dbg.declare (metadata %struct._ZNSt7__cxx1112basic_stringIcSt11char_traitsIcESaIcEEE** %_T47727800_12122.addr, metadata !2555, metadata !2164), !dbg !2552
	store %struct._ZNSt7__cxx1112basic_stringIcSt11char_traitsIcESaIcEEE* %_T47727800_12122.arg, %struct._ZNSt7__cxx1112basic_stringIcSt11char_traitsIcESaIcEEE** %_T47727800_12122.addr, align 8, !tbaa !2188
	call void @llvm.dbg.declare (metadata %struct._ZNSt7__cxx1112basic_stringIcSt11char_traitsIcESaIcEEE** %_T47727800_12122.addr, metadata !2556, metadata !2164), !dbg !2552
	call void @llvm.dbg.declare (metadata i64* %__length.addr, metadata !2557, metadata !2164), !dbg !2552
	store i64 %__length.arg, i64* %__length.addr, align 8, !tbaa !2332
	call void @llvm.dbg.declare (metadata i64* %__length.addr, metadata !2558, metadata !2164), !dbg !2552
	%0 = load i64, i64* %__length.addr, align 8, !tbaa !2187, !dbg !2559
	%1 = load %struct._ZNSt7__cxx1112basic_stringIcSt11char_traitsIcESaIcEEE*, %struct._ZNSt7__cxx1112basic_stringIcSt11char_traitsIcESaIcEEE** %_T47727800_12122.addr, align 8, !tbaa !2188, !dbg !2559
	%2 = bitcast %struct._ZNSt7__cxx1112basic_stringIcSt11char_traitsIcESaIcEEE*  %1 to i8*, !dbg !2559
	%3 = getelementptr i8, i8*  %2, i64 8, !dbg !2559
	%4 = bitcast i8*  %3 to i64*, !dbg !2559
	store i64  %0, i64*  %4, align 8, !tbaa !2332, !dbg !2559
	ret void, !dbg !2559
}
define linkonce_odr i8* @_ZNKSt7__cxx1112basic_stringIcSt11char_traitsIcESaIcEE7_M_dataEv(%struct._ZNSt7__cxx1112basic_stringIcSt11char_traitsIcESaIcEEE* %_T47727800_12124.arg) #0 inlinehint !dbg !2563 {
L.entry:
	%_T47727800_12124.addr = alloca %struct._ZNSt7__cxx1112basic_stringIcSt11char_traitsIcESaIcEEE*, align 8

	call void @llvm.dbg.declare (metadata %struct._ZNSt7__cxx1112basic_stringIcSt11char_traitsIcESaIcEEE** %_T47727800_12124.addr, metadata !2567, metadata !2164), !dbg !2564
	store %struct._ZNSt7__cxx1112basic_stringIcSt11char_traitsIcESaIcEEE* %_T47727800_12124.arg, %struct._ZNSt7__cxx1112basic_stringIcSt11char_traitsIcESaIcEEE** %_T47727800_12124.addr, align 8, !tbaa !2188
	call void @llvm.dbg.declare (metadata %struct._ZNSt7__cxx1112basic_stringIcSt11char_traitsIcESaIcEEE** %_T47727800_12124.addr, metadata !2568, metadata !2164), !dbg !2564
	%0 = load %struct._ZNSt7__cxx1112basic_stringIcSt11char_traitsIcESaIcEEE*, %struct._ZNSt7__cxx1112basic_stringIcSt11char_traitsIcESaIcEEE** %_T47727800_12124.addr, align 8, !tbaa !2188, !dbg !2569
	%1 = bitcast %struct._ZNSt7__cxx1112basic_stringIcSt11char_traitsIcESaIcEEE*  %0 to i8**, !dbg !2569
	%2 = load i8*, i8**  %1, align 8, !tbaa !2188, !dbg !2569
	ret i8*  %2, !dbg !2569
}
define linkonce_odr i8* @_ZNSt7__cxx1112basic_stringIcSt11char_traitsIcESaIcEE13_M_local_dataEv(%struct._ZNSt7__cxx1112basic_stringIcSt11char_traitsIcESaIcEEE* %_T47727800_12126.arg) #0 inlinehint !dbg !2571 {
L.entry:
	%_T47727800_12126.addr = alloca %struct._ZNSt7__cxx1112basic_stringIcSt11char_traitsIcESaIcEEE*, align 8

	call void @llvm.dbg.declare (metadata %struct._ZNSt7__cxx1112basic_stringIcSt11char_traitsIcESaIcEEE** %_T47727800_12126.addr, metadata !2587, metadata !2164), !dbg !2572
	store %struct._ZNSt7__cxx1112basic_stringIcSt11char_traitsIcESaIcEEE* %_T47727800_12126.arg, %struct._ZNSt7__cxx1112basic_stringIcSt11char_traitsIcESaIcEEE** %_T47727800_12126.addr, align 8, !tbaa !2188
	call void @llvm.dbg.declare (metadata %struct._ZNSt7__cxx1112basic_stringIcSt11char_traitsIcESaIcEEE** %_T47727800_12126.addr, metadata !2588, metadata !2164), !dbg !2572
	%0 = load %struct._ZNSt7__cxx1112basic_stringIcSt11char_traitsIcESaIcEEE*, %struct._ZNSt7__cxx1112basic_stringIcSt11char_traitsIcESaIcEEE** %_T47727800_12126.addr, align 8, !tbaa !2188, !dbg !2589
	%1 = bitcast %struct._ZNSt7__cxx1112basic_stringIcSt11char_traitsIcESaIcEEE*  %0 to i8*, !dbg !2589
	%2 = getelementptr i8, i8*  %1, i64 16, !dbg !2589
	ret i8*  %2, !dbg !2589
}
define linkonce_odr i8* @_ZNKSt7__cxx1112basic_stringIcSt11char_traitsIcESaIcEE13_M_local_dataEv(%struct._ZNSt7__cxx1112basic_stringIcSt11char_traitsIcESaIcEEE* %_T47727800_12128.arg) #0 inlinehint !dbg !2592 {
L.entry:
	%_T47727800_12128.addr = alloca %struct._ZNSt7__cxx1112basic_stringIcSt11char_traitsIcESaIcEEE*, align 8

	call void @llvm.dbg.declare (metadata %struct._ZNSt7__cxx1112basic_stringIcSt11char_traitsIcESaIcEEE** %_T47727800_12128.addr, metadata !2608, metadata !2164), !dbg !2593
	store %struct._ZNSt7__cxx1112basic_stringIcSt11char_traitsIcESaIcEEE* %_T47727800_12128.arg, %struct._ZNSt7__cxx1112basic_stringIcSt11char_traitsIcESaIcEEE** %_T47727800_12128.addr, align 8, !tbaa !2188
	call void @llvm.dbg.declare (metadata %struct._ZNSt7__cxx1112basic_stringIcSt11char_traitsIcESaIcEEE** %_T47727800_12128.addr, metadata !2609, metadata !2164), !dbg !2593
	%0 = load %struct._ZNSt7__cxx1112basic_stringIcSt11char_traitsIcESaIcEEE*, %struct._ZNSt7__cxx1112basic_stringIcSt11char_traitsIcESaIcEEE** %_T47727800_12128.addr, align 8, !tbaa !2188, !dbg !2610
	%1 = bitcast %struct._ZNSt7__cxx1112basic_stringIcSt11char_traitsIcESaIcEEE*  %0 to i8*, !dbg !2610
	%2 = getelementptr i8, i8*  %1, i64 16, !dbg !2610
	ret i8*  %2, !dbg !2610
}
define linkonce_odr void @_ZNSt7__cxx1112basic_stringIcSt11char_traitsIcESaIcEE11_M_capacityEm(%struct._ZNSt7__cxx1112basic_stringIcSt11char_traitsIcESaIcEEE* %_T47727800_12130.arg, i64 %__capacity.arg) #0 inlinehint !dbg !2613 {
L.entry:
	%_T47727800_12130.addr = alloca %struct._ZNSt7__cxx1112basic_stringIcSt11char_traitsIcESaIcEEE*, align 8
	%__capacity.addr = alloca i64, align 8

	call void @llvm.dbg.declare (metadata %struct._ZNSt7__cxx1112basic_stringIcSt11char_traitsIcESaIcEEE** %_T47727800_12130.addr, metadata !2617, metadata !2164), !dbg !2614
	store %struct._ZNSt7__cxx1112basic_stringIcSt11char_traitsIcESaIcEEE* %_T47727800_12130.arg, %struct._ZNSt7__cxx1112basic_stringIcSt11char_traitsIcESaIcEEE** %_T47727800_12130.addr, align 8, !tbaa !2188
	call void @llvm.dbg.declare (metadata %struct._ZNSt7__cxx1112basic_stringIcSt11char_traitsIcESaIcEEE** %_T47727800_12130.addr, metadata !2618, metadata !2164), !dbg !2614
	call void @llvm.dbg.declare (metadata i64* %__capacity.addr, metadata !2619, metadata !2164), !dbg !2614
	store i64 %__capacity.arg, i64* %__capacity.addr, align 8, !tbaa !2332
	call void @llvm.dbg.declare (metadata i64* %__capacity.addr, metadata !2620, metadata !2164), !dbg !2614
	%0 = load i64, i64* %__capacity.addr, align 8, !tbaa !2187, !dbg !2621
	%1 = load %struct._ZNSt7__cxx1112basic_stringIcSt11char_traitsIcESaIcEEE*, %struct._ZNSt7__cxx1112basic_stringIcSt11char_traitsIcESaIcEEE** %_T47727800_12130.addr, align 8, !tbaa !2188, !dbg !2621
	%2 = bitcast %struct._ZNSt7__cxx1112basic_stringIcSt11char_traitsIcESaIcEEE*  %1 to i8*, !dbg !2621
	%3 = getelementptr i8, i8*  %2, i64 16, !dbg !2621
	%4 = bitcast i8*  %3 to i64*, !dbg !2621
	store i64  %0, i64*  %4, align 8, !tbaa !2332, !dbg !2621
	ret void, !dbg !2621
}
define linkonce_odr void @_ZNSt7__cxx1112basic_stringIcSt11char_traitsIcESaIcEE13_M_set_lengthEm(%struct._ZNSt7__cxx1112basic_stringIcSt11char_traitsIcESaIcEEE* %_T47727800_12132.arg, i64 %__n.arg) #0 inlinehint !dbg !2623 {
L.entry:
	%_T47727800_12132.addr = alloca %struct._ZNSt7__cxx1112basic_stringIcSt11char_traitsIcESaIcEEE*, align 8
	%__n.addr = alloca i64, align 8
	%..inline.addr = alloca i8*, align 8

	call void @llvm.dbg.declare (metadata %struct._ZNSt7__cxx1112basic_stringIcSt11char_traitsIcESaIcEEE** %_T47727800_12132.addr, metadata !2639, metadata !2164), !dbg !2624
	store %struct._ZNSt7__cxx1112basic_stringIcSt11char_traitsIcESaIcEEE* %_T47727800_12132.arg, %struct._ZNSt7__cxx1112basic_stringIcSt11char_traitsIcESaIcEEE** %_T47727800_12132.addr, align 8, !tbaa !2188
	call void @llvm.dbg.declare (metadata %struct._ZNSt7__cxx1112basic_stringIcSt11char_traitsIcESaIcEEE** %_T47727800_12132.addr, metadata !2640, metadata !2164), !dbg !2624
	call void @llvm.dbg.declare (metadata i64* %__n.addr, metadata !2641, metadata !2164), !dbg !2624
	store i64 %__n.arg, i64* %__n.addr, align 8, !tbaa !2332
	call void @llvm.dbg.declare (metadata i64* %__n.addr, metadata !2642, metadata !2164), !dbg !2624
	%0 = load i64, i64* %__n.addr, align 8, !tbaa !2187, !dbg !2643
	%1 = load %struct._ZNSt7__cxx1112basic_stringIcSt11char_traitsIcESaIcEEE*, %struct._ZNSt7__cxx1112basic_stringIcSt11char_traitsIcESaIcEEE** %_T47727800_12132.addr, align 8, !tbaa !2188, !dbg !2643
	%2 = bitcast %struct._ZNSt7__cxx1112basic_stringIcSt11char_traitsIcESaIcEEE*  %1 to i8*, !dbg !2643
	%3 = getelementptr i8, i8*  %2, i64 8, !dbg !2643
	%4 = bitcast i8*  %3 to i64*, !dbg !2643
	store i64  %0, i64*  %4, align 8, !tbaa !2332, !dbg !2643
	%5 = bitcast %struct._ZNSt7__cxx1112basic_stringIcSt11char_traitsIcESaIcEEE*  %1 to i8**, !dbg !2644
	%6 = load i8*, i8**  %5, align 8, !tbaa !2188, !dbg !2644
	%7 = getelementptr i8, i8*  %6, i64  %0, !dbg !2644
	store i8 0, i8*  %7, align 1, !tbaa !2332, !dbg !2645
	ret void, !dbg !2646
}
define linkonce_odr signext i8 @_ZNKSt7__cxx1112basic_stringIcSt11char_traitsIcESaIcEE11_M_is_localEv(%struct._ZNSt7__cxx1112basic_stringIcSt11char_traitsIcESaIcEEE* %_T47727800_12133.arg) #0 inlinehint !dbg !2650 {
L.entry:
	%_T47727800_12133.addr = alloca %struct._ZNSt7__cxx1112basic_stringIcSt11char_traitsIcESaIcEEE*, align 8

	call void @llvm.dbg.declare (metadata %struct._ZNSt7__cxx1112basic_stringIcSt11char_traitsIcESaIcEEE** %_T47727800_12133.addr, metadata !2674, metadata !2164), !dbg !2651
	store %struct._ZNSt7__cxx1112basic_stringIcSt11char_traitsIcESaIcEEE* %_T47727800_12133.arg, %struct._ZNSt7__cxx1112basic_stringIcSt11char_traitsIcESaIcEEE** %_T47727800_12133.addr, align 8, !tbaa !2188
	call void @llvm.dbg.declare (metadata %struct._ZNSt7__cxx1112basic_stringIcSt11char_traitsIcESaIcEEE** %_T47727800_12133.addr, metadata !2675, metadata !2164), !dbg !2651
	%0 = load %struct._ZNSt7__cxx1112basic_stringIcSt11char_traitsIcESaIcEEE*, %struct._ZNSt7__cxx1112basic_stringIcSt11char_traitsIcESaIcEEE** %_T47727800_12133.addr, align 8, !tbaa !2188, !dbg !2676
	%1 = bitcast %struct._ZNSt7__cxx1112basic_stringIcSt11char_traitsIcESaIcEEE*  %0 to i8**, !dbg !2676
	%2 = load i8*, i8**  %1, align 8, !tbaa !2188, !dbg !2676
	%3 = bitcast %struct._ZNSt7__cxx1112basic_stringIcSt11char_traitsIcESaIcEEE*  %0 to i8*, !dbg !2676
	%4 = getelementptr i8, i8*  %3, i64 16, !dbg !2676
	%5 = icmp eq i8*  %2,  %4, !dbg !2676
	%6 = zext i1  %5 to i32, !dbg !2676
	%7 = trunc i32  %6 to i8, !dbg !2676
	ret i8  %7, !dbg !2676
}
define linkonce_odr void @_ZNSt7__cxx1112basic_stringIcSt11char_traitsIcESaIcEE10_M_disposeEv(%struct._ZNSt7__cxx1112basic_stringIcSt11char_traitsIcESaIcEEE* %_T47727800_12138.arg) #0 inlinehint !dbg !2681 {
L.entry:
	%_T47727800_12138.addr = alloca %struct._ZNSt7__cxx1112basic_stringIcSt11char_traitsIcESaIcEEE*, align 8
	%..inline.addr = alloca i8*, align 8

	call void @llvm.dbg.declare (metadata %struct._ZNSt7__cxx1112basic_stringIcSt11char_traitsIcESaIcEEE** %_T47727800_12138.addr, metadata !2729, metadata !2164), !dbg !2682
	store %struct._ZNSt7__cxx1112basic_stringIcSt11char_traitsIcESaIcEEE* %_T47727800_12138.arg, %struct._ZNSt7__cxx1112basic_stringIcSt11char_traitsIcESaIcEEE** %_T47727800_12138.addr, align 8, !tbaa !2188
	call void @llvm.dbg.declare (metadata %struct._ZNSt7__cxx1112basic_stringIcSt11char_traitsIcESaIcEEE** %_T47727800_12138.addr, metadata !2730, metadata !2164), !dbg !2682
	%0 = load %struct._ZNSt7__cxx1112basic_stringIcSt11char_traitsIcESaIcEEE*, %struct._ZNSt7__cxx1112basic_stringIcSt11char_traitsIcESaIcEEE** %_T47727800_12138.addr, align 8, !tbaa !2188, !dbg !2731
	%1 = bitcast %struct._ZNSt7__cxx1112basic_stringIcSt11char_traitsIcESaIcEEE*  %0 to i8**, !dbg !2731
	%2 = load i8*, i8**  %1, align 8, !tbaa !2188, !dbg !2731
	%3 = bitcast %struct._ZNSt7__cxx1112basic_stringIcSt11char_traitsIcESaIcEEE*  %0 to i8*, !dbg !2731
	%4 = getelementptr i8, i8*  %3, i64 16, !dbg !2731
	%5 = icmp eq i8*  %2,  %4, !dbg !2731
	br i1  %5, label %L.B0005, label %L.B0604, !dbg !2731
L.B0604:
	%6 = bitcast %struct._ZNSt7__cxx1112basic_stringIcSt11char_traitsIcESaIcEEE*  %0 to i8**, !dbg !2732
	%7 = load i8*, i8**  %6, align 8, !tbaa !2188, !dbg !2732
	call void  @_ZdlPv (i8*  %7) nounwind, !dbg !2732
	br label %L.B0005
L.B0005:
	ret void, !dbg !2733
}
define linkonce_odr void @_ZNSt7__cxx1112basic_stringIcSt11char_traitsIcESaIcEE10_M_destroyEm(%struct._ZNSt7__cxx1112basic_stringIcSt11char_traitsIcESaIcEEE* %_T47727800_12140.arg, i64 %__size.arg) #0 inlinehint !dbg !2735 {
L.entry:
	%_T47727800_12140.addr = alloca %struct._ZNSt7__cxx1112basic_stringIcSt11char_traitsIcESaIcEEE*, align 8
	%__size.addr = alloca i64, align 8
	%..inline.addr = alloca i8*, align 8

	call void @llvm.dbg.declare (metadata %struct._ZNSt7__cxx1112basic_stringIcSt11char_traitsIcESaIcEEE** %_T47727800_12140.addr, metadata !2755, metadata !2164), !dbg !2736
	store %struct._ZNSt7__cxx1112basic_stringIcSt11char_traitsIcESaIcEEE* %_T47727800_12140.arg, %struct._ZNSt7__cxx1112basic_stringIcSt11char_traitsIcESaIcEEE** %_T47727800_12140.addr, align 8, !tbaa !2188
	call void @llvm.dbg.declare (metadata %struct._ZNSt7__cxx1112basic_stringIcSt11char_traitsIcESaIcEEE** %_T47727800_12140.addr, metadata !2756, metadata !2164), !dbg !2736
	call void @llvm.dbg.declare (metadata i64* %__size.addr, metadata !2757, metadata !2164), !dbg !2736
	store i64 %__size.arg, i64* %__size.addr, align 8, !tbaa !2332
	call void @llvm.dbg.declare (metadata i64* %__size.addr, metadata !2758, metadata !2164), !dbg !2736
	%0 = load %struct._ZNSt7__cxx1112basic_stringIcSt11char_traitsIcESaIcEEE*, %struct._ZNSt7__cxx1112basic_stringIcSt11char_traitsIcESaIcEEE** %_T47727800_12140.addr, align 8, !tbaa !2188, !dbg !2759
	%1 = bitcast %struct._ZNSt7__cxx1112basic_stringIcSt11char_traitsIcESaIcEEE*  %0 to i8**, !dbg !2759
	%2 = load i8*, i8**  %1, align 8, !tbaa !2188, !dbg !2759
	call void  @_ZdlPv (i8*  %2) nounwind, !dbg !2759
	ret void, !dbg !2760
}
define linkonce_odr %struct._ZSaIcE* @_ZNSt7__cxx1112basic_stringIcSt11char_traitsIcESaIcEE16_M_get_allocatorEv(%struct._ZNSt7__cxx1112basic_stringIcSt11char_traitsIcESaIcEEE* %_T47727800_12142.arg) #0 inlinehint !dbg !2765 {
L.entry:
	%_T47727800_12142.addr = alloca %struct._ZNSt7__cxx1112basic_stringIcSt11char_traitsIcESaIcEEE*, align 8

	call void @llvm.dbg.declare (metadata %struct._ZNSt7__cxx1112basic_stringIcSt11char_traitsIcESaIcEEE** %_T47727800_12142.addr, metadata !2769, metadata !2164), !dbg !2766
	store %struct._ZNSt7__cxx1112basic_stringIcSt11char_traitsIcESaIcEEE* %_T47727800_12142.arg, %struct._ZNSt7__cxx1112basic_stringIcSt11char_traitsIcESaIcEEE** %_T47727800_12142.addr, align 8, !tbaa !2188
	call void @llvm.dbg.declare (metadata %struct._ZNSt7__cxx1112basic_stringIcSt11char_traitsIcESaIcEEE** %_T47727800_12142.addr, metadata !2770, metadata !2164), !dbg !2766
	%0 = load %struct._ZNSt7__cxx1112basic_stringIcSt11char_traitsIcESaIcEEE*, %struct._ZNSt7__cxx1112basic_stringIcSt11char_traitsIcESaIcEEE** %_T47727800_12142.addr, align 8, !tbaa !2188, !dbg !2771
	%1 = bitcast %struct._ZNSt7__cxx1112basic_stringIcSt11char_traitsIcESaIcEEE*  %0 to %struct._ZSaIcE*, !dbg !2771
	ret %struct._ZSaIcE*  %1, !dbg !2771
}
define linkonce_odr void @_ZNSt7__cxx1112basic_stringIcSt11char_traitsIcESaIcEE7_S_copyEPcPKcm(i8* %__d.arg, i8* %__s.arg, i64 %__n.arg) #0 inlinehint !dbg !2775 {
L.entry:
	%__d.addr = alloca i8*, align 8
	%__s.addr = alloca i8*, align 8
	%__n.addr = alloca i64, align 8
	%..inline.addr = alloca i8*, align 8
	%..inline.addr.1 = alloca i8*, align 8
	%..inline.addr.2 = alloca i64, align 8
	%..inline.addr.3 = alloca i8*, align 8

	call void @llvm.dbg.declare (metadata i8** %__d.addr, metadata !2787, metadata !2164), !dbg !2776
	store i8* %__d.arg, i8** %__d.addr, align 8, !tbaa !2188
	call void @llvm.dbg.declare (metadata i8** %__d.addr, metadata !2788, metadata !2164), !dbg !2776
	call void @llvm.dbg.declare (metadata i8** %__s.addr, metadata !2789, metadata !2164), !dbg !2776
	store i8* %__s.arg, i8** %__s.addr, align 8, !tbaa !2188
	call void @llvm.dbg.declare (metadata i8** %__s.addr, metadata !2790, metadata !2164), !dbg !2776
	call void @llvm.dbg.declare (metadata i64* %__n.addr, metadata !2791, metadata !2164), !dbg !2776
	store i64 %__n.arg, i64* %__n.addr, align 8, !tbaa !2332
	call void @llvm.dbg.declare (metadata i64* %__n.addr, metadata !2792, metadata !2164), !dbg !2776
	%0 = load i64, i64* %__n.addr, align 8, !tbaa !2187, !dbg !2793
	%1 = icmp ne i64  %0, 1, !dbg !2793
	br i1  %1, label %L.B0006, label %L.B0615, !dbg !2793
L.B0615:
	%2 = load i8*, i8** %__s.addr, align 8, !tbaa !2188, !dbg !2794
	%3 = load i8, i8*  %2, align 1, !tbaa !2332, !dbg !2794
	%4 = load i8*, i8** %__d.addr, align 8, !tbaa !2188, !dbg !2794
	store i8  %3, i8*  %4, align 1, !tbaa !2332, !dbg !2794
	br label %L.B0007, !dbg !2794
L.B0006:
	%5 = load i8*, i8** %__d.addr, align 8, !tbaa !2188, !dbg !2795
	store i8*  %5, i8** %..inline.addr, align 8, !tbaa !2188, !dbg !2795
	%6 = load i8*, i8** %__s.addr, align 8, !tbaa !2188, !dbg !2795
	store i8*  %6, i8** %..inline.addr.1, align 8, !tbaa !2188, !dbg !2795
	%7 = load i64, i64* %__n.addr, align 8, !tbaa !2187, !dbg !2795
	store i64  %7, i64* %..inline.addr.2, align 8, !tbaa !2187, !dbg !2795
	%8 = icmp ne i64  %7, 0, !dbg !2795
	br i1  %8, label %L..inline.19606, label %L.B0616, !dbg !2795
L.B0616:
	br label %L..inline.19611, !dbg !2796
L..inline.19606:
	%9 = load i8*, i8** %..inline.addr, align 8, !tbaa !2188, !dbg !2797
	%10 = load i8*, i8** %..inline.addr.1, align 8, !tbaa !2188, !dbg !2797
	%11 = load i64, i64* %..inline.addr.2, align 8, !tbaa !2187, !dbg !2797
	%12 = call i8*  @memcpy (i8*  %9, i8*  %10, i64  %11) nounwind, !dbg !2797
	store i8*  %12, i8** %..inline.addr.3, align 8, !tbaa !2188, !dbg !2797
	br label %L..inline.19611
L..inline.19611:
	br label %L.B0007
L.B0007:
	ret void, !dbg !2798
}
define linkonce_odr void @_ZNSt7__cxx1112basic_stringIcSt11char_traitsIcESaIcEE13_S_copy_charsEPcPKcS7_(i8* %__p.arg, i8* %__k1.arg, i8* %__k2.arg) #0 inlinehint !dbg !2802 {
L.entry:
	%__p.addr = alloca i8*, align 8
	%__k1.addr = alloca i8*, align 8
	%__k2.addr = alloca i8*, align 8
	%..inline.addr = alloca i64, align 8
	%..inline.addr.1 = alloca i8*, align 8
	%..inline.addr.2 = alloca i8*, align 8
	%..inline.addr.3 = alloca i64, align 8
	%..inline.addr.4 = alloca i8*, align 8

	call void @llvm.dbg.declare (metadata i8** %__p.addr, metadata !2818, metadata !2164), !dbg !2803
	store i8* %__p.arg, i8** %__p.addr, align 8, !tbaa !2188
	call void @llvm.dbg.declare (metadata i8** %__p.addr, metadata !2819, metadata !2164), !dbg !2803
	call void @llvm.dbg.declare (metadata i8** %__k1.addr, metadata !2820, metadata !2164), !dbg !2803
	store i8* %__k1.arg, i8** %__k1.addr, align 8, !tbaa !2188
	call void @llvm.dbg.declare (metadata i8** %__k1.addr, metadata !2821, metadata !2164), !dbg !2803
	call void @llvm.dbg.declare (metadata i8** %__k2.addr, metadata !2822, metadata !2164), !dbg !2803
	store i8* %__k2.arg, i8** %__k2.addr, align 8, !tbaa !2188
	call void @llvm.dbg.declare (metadata i8** %__k2.addr, metadata !2823, metadata !2164), !dbg !2803
	%0 = load i8*, i8** %__k2.addr, align 8, !tbaa !2188, !dbg !2824
	%1 = load i8*, i8** %__k1.addr, align 8, !tbaa !2188, !dbg !2824
	%2 = ptrtoint i8*  %1 to i64, !dbg !2824
	%3 = sub i64 0,  %2, !dbg !2824
	%4 = getelementptr i8, i8*  %0, i64  %3, !dbg !2824
	%5 = ptrtoint i8*  %4 to i64, !dbg !2824
	store i64  %5, i64* %..inline.addr, align 8, !tbaa !2187, !dbg !2824
	%6 = icmp ne i64  %5, 1, !dbg !2824
	br i1  %6, label %L..inline.19628, label %L.B0619, !dbg !2824
L.B0619:
	%7 = load i8, i8*  %1, align 1, !tbaa !2332, !dbg !2825
	%8 = load i8*, i8** %__p.addr, align 8, !tbaa !2188, !dbg !2825
	store i8  %7, i8*  %8, align 1, !tbaa !2332, !dbg !2825
	br label %L..inline.19637, !dbg !2825
L..inline.19628:
	%9 = load i8*, i8** %__p.addr, align 8, !tbaa !2188, !dbg !2826
	store i8*  %9, i8** %..inline.addr.1, align 8, !tbaa !2188, !dbg !2826
	%10 = load i8*, i8** %__k1.addr, align 8, !tbaa !2188, !dbg !2826
	store i8*  %10, i8** %..inline.addr.2, align 8, !tbaa !2188, !dbg !2826
	%11 = load i64, i64* %..inline.addr, align 8, !tbaa !2187, !dbg !2826
	store i64  %11, i64* %..inline.addr.3, align 8, !tbaa !2187, !dbg !2826
	%12 = icmp ne i64  %11, 0, !dbg !2826
	br i1  %12, label %L..inline.19644, label %L.B0620, !dbg !2826
L.B0620:
	br label %L..inline.19646, !dbg !2826
L..inline.19644:
	%13 = load i8*, i8** %..inline.addr.1, align 8, !tbaa !2188, !dbg !2826
	%14 = load i8*, i8** %..inline.addr.2, align 8, !tbaa !2188, !dbg !2826
	%15 = load i64, i64* %..inline.addr.3, align 8, !tbaa !2187, !dbg !2826
	%16 = call i8*  @memcpy (i8*  %13, i8*  %14, i64  %15) nounwind, !dbg !2826
	store i8*  %16, i8** %..inline.addr.4, align 8, !tbaa !2188, !dbg !2826
	br label %L..inline.19646
L..inline.19646:
	br label %L..inline.19637
L..inline.19637:
	ret void, !dbg !2824
}
define linkonce_odr void @_ZNSt7__cxx1112basic_stringIcSt11char_traitsIcESaIcEEC1EPKcRKS3_(%struct._ZNSt7__cxx1112basic_stringIcSt11char_traitsIcESaIcEEE* %_T47727984_12146.arg, i8* %__s.arg, %struct._ZSaIcE* %__a.arg) #0 inlinehint !dbg !2834 {
L.entry:
	%_T47727984_12146.addr = alloca %struct._ZNSt7__cxx1112basic_stringIcSt11char_traitsIcESaIcEEE*, align 8
	%__s.addr = alloca i8*, align 8
	%__a.addr = alloca %struct._ZSaIcE*, align 8
	%..inline.addr = alloca i8*, align 8
	%..inline.addr.1 = alloca i64, align 8
	%.I0000.addr = alloca i8*, align 8
	%..inline.addr.2 = alloca %struct._ZNSt7__cxx1112basic_stringIcSt11char_traitsIcESaIcEEE*, align 8
	%..inline.addr.3 = alloca i8*, align 8
	%..inline.addr.4 = alloca i8*, align 8
	%....inline.__FILL_CHARARRAY.addr = alloca [1 x i8], align 1
	%....inline.__FILL_CHARARRAY.addr.1 = alloca [1 x i8], align 1
	%..inline.addr.5 = alloca %struct._ZSt26random_access_iterator_tag, align 1

	call void @llvm.dbg.declare (metadata %struct._ZNSt7__cxx1112basic_stringIcSt11char_traitsIcESaIcEEE** %_T47727984_12146.addr, metadata !2870, metadata !2164), !dbg !2835
	store %struct._ZNSt7__cxx1112basic_stringIcSt11char_traitsIcESaIcEEE* %_T47727984_12146.arg, %struct._ZNSt7__cxx1112basic_stringIcSt11char_traitsIcESaIcEEE** %_T47727984_12146.addr, align 8, !tbaa !2188
	call void @llvm.dbg.declare (metadata %struct._ZNSt7__cxx1112basic_stringIcSt11char_traitsIcESaIcEEE** %_T47727984_12146.addr, metadata !2871, metadata !2164), !dbg !2835
	call void @llvm.dbg.declare (metadata i8** %__s.addr, metadata !2872, metadata !2164), !dbg !2835
	store i8* %__s.arg, i8** %__s.addr, align 8, !tbaa !2188
	call void @llvm.dbg.declare (metadata i8** %__s.addr, metadata !2873, metadata !2164), !dbg !2835
	call void @llvm.dbg.declare (metadata %struct._ZSaIcE** %__a.addr, metadata !2874, metadata !2164), !dbg !2835
	store %struct._ZSaIcE* %__a.arg, %struct._ZSaIcE** %__a.addr, align 8, !tbaa !2188
	call void @llvm.dbg.declare (metadata %struct._ZSaIcE** %__a.addr, metadata !2875, metadata !2164), !dbg !2835
	%0 = load %struct._ZNSt7__cxx1112basic_stringIcSt11char_traitsIcESaIcEEE*, %struct._ZNSt7__cxx1112basic_stringIcSt11char_traitsIcESaIcEEE** %_T47727984_12146.addr, align 8, !tbaa !2188, !dbg !2876
	%1 = bitcast %struct._ZNSt7__cxx1112basic_stringIcSt11char_traitsIcESaIcEEE*  %0 to i8*, !dbg !2876
	%2 = getelementptr i8, i8*  %1, i64 16, !dbg !2876
	%3 = bitcast %struct._ZNSt7__cxx1112basic_stringIcSt11char_traitsIcESaIcEEE*  %0 to i8**, !dbg !2876
	store i8*  %2, i8**  %3, align 8, !tbaa !2188, !dbg !2876
	%4 = load i8*, i8** %__s.addr, align 8, !tbaa !2188, !dbg !2876
	%5 = icmp eq i8*  %4,  null, !dbg !2876
	br i1  %5, label %L.B0008, label %L.B0629, !dbg !2876
L.B0629:
	%6 = call i64  @strlen (i8*  %4) nounwind, !dbg !2877
	%7 = load i8*, i8** %__s.addr, align 8, !tbaa !2188, !dbg !2878
	%8 = getelementptr i8, i8*  %7, i64  %6, !dbg !2878
	store i8*  %8, i8** %.I0000.addr, align 8, !tbaa !2188, !dbg !2878
	br label %L.B0009, !dbg !2876
L.B0008:
	%9 = load i8*, i8** %__s.addr, align 8, !tbaa !2188, !dbg !2876
	%10 = getelementptr i8, i8*  %9, i64 18446744073709551615, !dbg !2876
	store i8*  %10, i8** %.I0000.addr, align 8, !tbaa !2188, !dbg !2876
	br label %L.B0009
L.B0009:
	%11 = load %struct._ZNSt7__cxx1112basic_stringIcSt11char_traitsIcESaIcEEE*, %struct._ZNSt7__cxx1112basic_stringIcSt11char_traitsIcESaIcEEE** %_T47727984_12146.addr, align 8, !tbaa !2188, !dbg !2879
	%12 = bitcast %struct._ZNSt7__cxx1112basic_stringIcSt11char_traitsIcESaIcEEE*  %11 to i8*, !dbg !2879
	%13 = bitcast %struct._ZNSt7__cxx1112basic_stringIcSt11char_traitsIcESaIcEEE** %..inline.addr.2 to i8**, !dbg !2879
	store i8*  %12, i8**  %13, align 8, !tbaa !2188, !dbg !2879
	%14 = load i8*, i8** %__s.addr, align 8, !tbaa !2188, !dbg !2879
	store i8*  %14, i8** %..inline.addr.3, align 8, !tbaa !2188, !dbg !2879
	%15 = load i8*, i8** %.I0000.addr, align 8, !tbaa !2188, !dbg !2879
	store i8*  %15, i8** %..inline.addr.4, align 8, !tbaa !2188, !dbg !2879
	call void @llvm.dbg.declare (metadata [1 x i8]* %....inline.__FILL_CHARARRAY.addr, metadata !2880, metadata !2164), !dbg !2837
	%16 = bitcast [1 x i8]* %....inline.__FILL_CHARARRAY.addr to i8*, !dbg !2876
	%17 = load i8, i8*  %16, align 1, !tbaa !2332, !dbg !2876
	%18 = zext i8  %17 to i32, !dbg !2876
	%19 = trunc i32  %18 to i8, !dbg !2876
	call void @llvm.dbg.declare (metadata [1 x i8]* %....inline.__FILL_CHARARRAY.addr.1, metadata !2880, metadata !2164), !dbg !2837
	%20 = bitcast [1 x i8]* %....inline.__FILL_CHARARRAY.addr.1 to i8*, !dbg !2876
	store i8  %19, i8*  %20, align 1, !tbaa !2332, !dbg !2876
	%21 = load %struct._ZNSt7__cxx1112basic_stringIcSt11char_traitsIcESaIcEEE*, %struct._ZNSt7__cxx1112basic_stringIcSt11char_traitsIcESaIcEEE** %..inline.addr.2, align 8, !tbaa !2188, !dbg !2879
	%22 = load i8*, i8** %..inline.addr.3, align 8, !tbaa !2188, !dbg !2879
	%23 = load i8*, i8** %..inline.addr.4, align 8, !tbaa !2188, !dbg !2879
	%24 = bitcast %struct._ZSt26random_access_iterator_tag* %..inline.addr.5 to i8*, !dbg !2879
	%25 = load i8, i8*  %24, align 1, !tbaa !2332, !dbg !2879
	call void  @_ZNSt7__cxx1112basic_stringIcSt11char_traitsIcESaIcEE12_M_constructIPKcEEvT_S8_St20forward_iterator_tag (%struct._ZNSt7__cxx1112basic_stringIcSt11char_traitsIcESaIcEEE*  %21, i8*  %22, i8*  %23, i8  %25), !dbg !2879
	ret void, !dbg !2876
}
define linkonce_odr void @_ZNSt7__cxx1112basic_stringIcSt11char_traitsIcESaIcEEC2EPKcRKS3_(%struct._ZNSt7__cxx1112basic_stringIcSt11char_traitsIcESaIcEEE* %_T47727800_12147.arg, i8* %_T47728096_12147.arg, %struct._ZSaIcE* %_T47728392_12147.arg) #0 inlinehint !dbg !2882 {
L.entry:
	%_T47727800_12147.addr = alloca %struct._ZNSt7__cxx1112basic_stringIcSt11char_traitsIcESaIcEEE*, align 8
	%_T47728096_12147.addr = alloca i8*, align 8
	%_T47728392_12147.addr = alloca %struct._ZSaIcE*, align 8
	%..inline.addr = alloca %struct._ZNSt7__cxx1112basic_stringIcSt11char_traitsIcESaIcEEE*, align 8
	%..inline.addr.1 = alloca i8*, align 8
	%..inline.addr.2 = alloca i8*, align 8
	%..inline.addr.3 = alloca i64, align 8
	%..inline.addr.4 = alloca i8*, align 8
	%..inline.addr.5 = alloca %struct._ZNSt7__cxx1112basic_stringIcSt11char_traitsIcESaIcEEE*, align 8
	%..inline.addr.6 = alloca i8*, align 8
	%..inline.addr.7 = alloca i8*, align 8
	%....inline.__FILL_CHARARRAY.addr = alloca [1 x i8], align 1
	%....inline.__FILL_CHARARRAY.addr.1 = alloca [1 x i8], align 1
	%..inline.addr.8 = alloca %struct._ZSt26random_access_iterator_tag, align 1

	store %struct._ZNSt7__cxx1112basic_stringIcSt11char_traitsIcESaIcEEE* %_T47727800_12147.arg, %struct._ZNSt7__cxx1112basic_stringIcSt11char_traitsIcESaIcEEE** %_T47727800_12147.addr, align 8, !tbaa !2188
	store i8* %_T47728096_12147.arg, i8** %_T47728096_12147.addr, align 8, !tbaa !2188
	store %struct._ZSaIcE* %_T47728392_12147.arg, %struct._ZSaIcE** %_T47728392_12147.addr, align 8, !tbaa !2188
	%0 = load %struct._ZNSt7__cxx1112basic_stringIcSt11char_traitsIcESaIcEEE*, %struct._ZNSt7__cxx1112basic_stringIcSt11char_traitsIcESaIcEEE** %_T47727800_12147.addr, align 8, !tbaa !2188, !dbg !2922
	%1 = bitcast %struct._ZNSt7__cxx1112basic_stringIcSt11char_traitsIcESaIcEEE*  %0 to i8*, !dbg !2922
	%2 = bitcast %struct._ZNSt7__cxx1112basic_stringIcSt11char_traitsIcESaIcEEE** %..inline.addr to i8**, !dbg !2922
	store i8*  %1, i8**  %2, align 8, !tbaa !2188, !dbg !2922
	%3 = load i8*, i8** %_T47728096_12147.addr, align 8, !tbaa !2188, !dbg !2922
	store i8*  %3, i8** %..inline.addr.1, align 8, !tbaa !2188, !dbg !2922
	%4 = getelementptr i8, i8*  %1, i64 16, !dbg !2922
	%5 = bitcast %struct._ZNSt7__cxx1112basic_stringIcSt11char_traitsIcESaIcEEE*  %0 to i8**, !dbg !2922
	store i8*  %4, i8**  %5, align 8, !tbaa !2188, !dbg !2922
	%6 = icmp eq i8*  %3,  null, !dbg !2922
	br i1  %6, label %L..inline.19795, label %L.B0632, !dbg !2922
L.B0632:
	%7 = call i64  @strlen (i8*  %3) nounwind, !dbg !2922
	%8 = load i8*, i8** %..inline.addr.1, align 8, !tbaa !2188, !dbg !2922
	%9 = getelementptr i8, i8*  %8, i64  %7, !dbg !2922
	store i8*  %9, i8** %..inline.addr.4, align 8, !tbaa !2188, !dbg !2922
	br label %L..inline.19803, !dbg !2922
L..inline.19795:
	%10 = load i8*, i8** %..inline.addr.1, align 8, !tbaa !2188, !dbg !2922
	%11 = getelementptr i8, i8*  %10, i64 18446744073709551615, !dbg !2922
	store i8*  %11, i8** %..inline.addr.4, align 8, !tbaa !2188, !dbg !2922
	br label %L..inline.19803
L..inline.19803:
	%12 = load %struct._ZNSt7__cxx1112basic_stringIcSt11char_traitsIcESaIcEEE*, %struct._ZNSt7__cxx1112basic_stringIcSt11char_traitsIcESaIcEEE** %..inline.addr, align 8, !tbaa !2188, !dbg !2922
	%13 = bitcast %struct._ZNSt7__cxx1112basic_stringIcSt11char_traitsIcESaIcEEE*  %12 to i8*, !dbg !2922
	%14 = bitcast %struct._ZNSt7__cxx1112basic_stringIcSt11char_traitsIcESaIcEEE** %..inline.addr.5 to i8**, !dbg !2922
	store i8*  %13, i8**  %14, align 8, !tbaa !2188, !dbg !2922
	%15 = load i8*, i8** %..inline.addr.1, align 8, !tbaa !2188, !dbg !2922
	store i8*  %15, i8** %..inline.addr.6, align 8, !tbaa !2188, !dbg !2922
	%16 = load i8*, i8** %..inline.addr.4, align 8, !tbaa !2188, !dbg !2922
	store i8*  %16, i8** %..inline.addr.7, align 8, !tbaa !2188, !dbg !2922
	call void @llvm.dbg.declare (metadata [1 x i8]* %....inline.__FILL_CHARARRAY.addr, metadata !2923, metadata !2164), !dbg !2885
	%17 = bitcast [1 x i8]* %....inline.__FILL_CHARARRAY.addr to i8*, !dbg !2922
	%18 = load i8, i8*  %17, align 1, !tbaa !2332, !dbg !2922
	%19 = zext i8  %18 to i32, !dbg !2922
	%20 = trunc i32  %19 to i8, !dbg !2922
	call void @llvm.dbg.declare (metadata [1 x i8]* %....inline.__FILL_CHARARRAY.addr.1, metadata !2923, metadata !2164), !dbg !2885
	%21 = bitcast [1 x i8]* %....inline.__FILL_CHARARRAY.addr.1 to i8*, !dbg !2922
	store i8  %20, i8*  %21, align 1, !tbaa !2332, !dbg !2922
	%22 = load %struct._ZNSt7__cxx1112basic_stringIcSt11char_traitsIcESaIcEEE*, %struct._ZNSt7__cxx1112basic_stringIcSt11char_traitsIcESaIcEEE** %..inline.addr.5, align 8, !tbaa !2188, !dbg !2922
	%23 = load i8*, i8** %..inline.addr.6, align 8, !tbaa !2188, !dbg !2922
	%24 = load i8*, i8** %..inline.addr.7, align 8, !tbaa !2188, !dbg !2922
	%25 = bitcast %struct._ZSt26random_access_iterator_tag* %..inline.addr.8 to i8*, !dbg !2922
	%26 = load i8, i8*  %25, align 1, !tbaa !2332, !dbg !2922
	call void  @_ZNSt7__cxx1112basic_stringIcSt11char_traitsIcESaIcEE12_M_constructIPKcEEvT_S8_St20forward_iterator_tag (%struct._ZNSt7__cxx1112basic_stringIcSt11char_traitsIcESaIcEEE*  %22, i8*  %23, i8*  %24, i8  %26), !dbg !2922
	ret void, !dbg !2922
}
define linkonce_odr void @_ZNSt7__cxx1112basic_stringIcSt11char_traitsIcESaIcEED1Ev(%struct._ZNSt7__cxx1112basic_stringIcSt11char_traitsIcESaIcEEE* %_T47727800_12148.arg) #0 inlinehint !dbg !2925 {
L.entry:
	%_T47727800_12148.addr = alloca %struct._ZNSt7__cxx1112basic_stringIcSt11char_traitsIcESaIcEEE*, align 8
	%..inline.addr = alloca i8*, align 8

	call void @llvm.dbg.declare (metadata %struct._ZNSt7__cxx1112basic_stringIcSt11char_traitsIcESaIcEEE** %_T47727800_12148.addr, metadata !2977, metadata !2164), !dbg !2926
	store %struct._ZNSt7__cxx1112basic_stringIcSt11char_traitsIcESaIcEEE* %_T47727800_12148.arg, %struct._ZNSt7__cxx1112basic_stringIcSt11char_traitsIcESaIcEEE** %_T47727800_12148.addr, align 8, !tbaa !2188
	call void @llvm.dbg.declare (metadata %struct._ZNSt7__cxx1112basic_stringIcSt11char_traitsIcESaIcEEE** %_T47727800_12148.addr, metadata !2978, metadata !2164), !dbg !2926
	%0 = load %struct._ZNSt7__cxx1112basic_stringIcSt11char_traitsIcESaIcEEE*, %struct._ZNSt7__cxx1112basic_stringIcSt11char_traitsIcESaIcEEE** %_T47727800_12148.addr, align 8, !tbaa !2188, !dbg !2979
	%1 = bitcast %struct._ZNSt7__cxx1112basic_stringIcSt11char_traitsIcESaIcEEE*  %0 to i8**, !dbg !2979
	%2 = load i8*, i8**  %1, align 8, !tbaa !2188, !dbg !2979
	%3 = bitcast %struct._ZNSt7__cxx1112basic_stringIcSt11char_traitsIcESaIcEEE*  %0 to i8*, !dbg !2979
	%4 = getelementptr i8, i8*  %3, i64 16, !dbg !2979
	%5 = icmp eq i8*  %2,  %4, !dbg !2979
	br i1  %5, label %L..inline.19902, label %L.B0635, !dbg !2979
L.B0635:
	%6 = bitcast %struct._ZNSt7__cxx1112basic_stringIcSt11char_traitsIcESaIcEEE*  %0 to i8**, !dbg !2980
	%7 = load i8*, i8**  %6, align 8, !tbaa !2188, !dbg !2980
	call void  @_ZdlPv (i8*  %7) nounwind, !dbg !2980
	br label %L..inline.19902
L..inline.19902:
	ret void, !dbg !2981
}
define linkonce_odr void @_ZNSt7__cxx1112basic_stringIcSt11char_traitsIcESaIcEED2Ev(%struct._ZNSt7__cxx1112basic_stringIcSt11char_traitsIcESaIcEEE* %_T47727800_12149.arg) #0 inlinehint !dbg !2983 {
L.entry:
	%_T47727800_12149.addr = alloca %struct._ZNSt7__cxx1112basic_stringIcSt11char_traitsIcESaIcEEE*, align 8
	%..inline.addr = alloca i8*, align 8

	store %struct._ZNSt7__cxx1112basic_stringIcSt11char_traitsIcESaIcEEE* %_T47727800_12149.arg, %struct._ZNSt7__cxx1112basic_stringIcSt11char_traitsIcESaIcEEE** %_T47727800_12149.addr, align 8, !tbaa !2188
	%0 = load %struct._ZNSt7__cxx1112basic_stringIcSt11char_traitsIcESaIcEEE*, %struct._ZNSt7__cxx1112basic_stringIcSt11char_traitsIcESaIcEEE** %_T47727800_12149.addr, align 8, !tbaa !2188, !dbg !3039
	%1 = bitcast %struct._ZNSt7__cxx1112basic_stringIcSt11char_traitsIcESaIcEEE*  %0 to i8**, !dbg !3039
	%2 = load i8*, i8**  %1, align 8, !tbaa !2188, !dbg !3039
	%3 = bitcast %struct._ZNSt7__cxx1112basic_stringIcSt11char_traitsIcESaIcEEE*  %0 to i8*, !dbg !3039
	%4 = getelementptr i8, i8*  %3, i64 16, !dbg !3039
	%5 = icmp eq i8*  %2,  %4, !dbg !3039
	br i1  %5, label %L..inline.20008, label %L.B0638, !dbg !3039
L.B0638:
	%6 = bitcast %struct._ZNSt7__cxx1112basic_stringIcSt11char_traitsIcESaIcEEE*  %0 to i8**, !dbg !3039
	%7 = load i8*, i8**  %6, align 8, !tbaa !2188, !dbg !3039
	call void  @_ZdlPv (i8*  %7) nounwind, !dbg !3039
	br label %L..inline.20008
L..inline.20008:
	ret void, !dbg !3039
}
define linkonce_odr i64 @_ZNKSt7__cxx1112basic_stringIcSt11char_traitsIcESaIcEE6lengthEv(%struct._ZNSt7__cxx1112basic_stringIcSt11char_traitsIcESaIcEEE* %_T47727800_12151.arg) #0 inlinehint !dbg !3043 {
L.entry:
	%_T47727800_12151.addr = alloca %struct._ZNSt7__cxx1112basic_stringIcSt11char_traitsIcESaIcEEE*, align 8

	call void @llvm.dbg.declare (metadata %struct._ZNSt7__cxx1112basic_stringIcSt11char_traitsIcESaIcEEE** %_T47727800_12151.addr, metadata !3047, metadata !2164), !dbg !3044
	store %struct._ZNSt7__cxx1112basic_stringIcSt11char_traitsIcESaIcEEE* %_T47727800_12151.arg, %struct._ZNSt7__cxx1112basic_stringIcSt11char_traitsIcESaIcEEE** %_T47727800_12151.addr, align 8, !tbaa !2188
	call void @llvm.dbg.declare (metadata %struct._ZNSt7__cxx1112basic_stringIcSt11char_traitsIcESaIcEEE** %_T47727800_12151.addr, metadata !3048, metadata !2164), !dbg !3044
	%0 = load %struct._ZNSt7__cxx1112basic_stringIcSt11char_traitsIcESaIcEEE*, %struct._ZNSt7__cxx1112basic_stringIcSt11char_traitsIcESaIcEEE** %_T47727800_12151.addr, align 8, !tbaa !2188, !dbg !3049
	%1 = bitcast %struct._ZNSt7__cxx1112basic_stringIcSt11char_traitsIcESaIcEEE*  %0 to i8*, !dbg !3049
	%2 = getelementptr i8, i8*  %1, i64 8, !dbg !3049
	%3 = bitcast i8*  %2 to i64*, !dbg !3049
	%4 = load i64, i64*  %3, align 8, !tbaa !2332, !dbg !3049
	ret i64  %4, !dbg !3049
}
define linkonce_odr i8* @_ZNKSt7__cxx1112basic_stringIcSt11char_traitsIcESaIcEE4dataEv(%struct._ZNSt7__cxx1112basic_stringIcSt11char_traitsIcESaIcEEE* %_T47727800_12152.arg) #0 inlinehint !dbg !3051 {
L.entry:
	%_T47727800_12152.addr = alloca %struct._ZNSt7__cxx1112basic_stringIcSt11char_traitsIcESaIcEEE*, align 8

	call void @llvm.dbg.declare (metadata %struct._ZNSt7__cxx1112basic_stringIcSt11char_traitsIcESaIcEEE** %_T47727800_12152.addr, metadata !3059, metadata !2164), !dbg !3052
	store %struct._ZNSt7__cxx1112basic_stringIcSt11char_traitsIcESaIcEEE* %_T47727800_12152.arg, %struct._ZNSt7__cxx1112basic_stringIcSt11char_traitsIcESaIcEEE** %_T47727800_12152.addr, align 8, !tbaa !2188
	call void @llvm.dbg.declare (metadata %struct._ZNSt7__cxx1112basic_stringIcSt11char_traitsIcESaIcEEE** %_T47727800_12152.addr, metadata !3060, metadata !2164), !dbg !3052
	%0 = load %struct._ZNSt7__cxx1112basic_stringIcSt11char_traitsIcESaIcEEE*, %struct._ZNSt7__cxx1112basic_stringIcSt11char_traitsIcESaIcEEE** %_T47727800_12152.addr, align 8, !tbaa !2188, !dbg !3061
	%1 = bitcast %struct._ZNSt7__cxx1112basic_stringIcSt11char_traitsIcESaIcEEE*  %0 to i8**, !dbg !3061
	%2 = load i8*, i8**  %1, align 8, !tbaa !2188, !dbg !3061
	ret i8*  %2, !dbg !3061
}
define linkonce_odr void @_ZNSt7__cxx1112basic_stringIcSt11char_traitsIcESaIcEE12_M_constructIPKcEEvT_S8_(%struct._ZNSt7__cxx1112basic_stringIcSt11char_traitsIcESaIcEEE* %_T47727800_12153.arg, i8* %__beg.arg, i8* %__end.arg) #0 inlinehint !dbg !3065 {
L.entry:
	%_T47727800_12153.addr = alloca %struct._ZNSt7__cxx1112basic_stringIcSt11char_traitsIcESaIcEEE*, align 8
	%__beg.addr = alloca i8*, align 8
	%__end.addr = alloca i8*, align 8
	%..inline.addr = alloca %struct._ZNSt7__cxx1112basic_stringIcSt11char_traitsIcESaIcEEE*, align 8
	%..inline.addr.1 = alloca i8*, align 8
	%..inline.addr.2 = alloca i8*, align 8
	%.._T47729280_12153.__FILL_CHARARRAY.addr = alloca [1 x i8], align 1
	%....inline.__FILL_CHARARRAY.addr = alloca [1 x i8], align 1
	%..inline.addr.3 = alloca %struct._ZSt26random_access_iterator_tag, align 1

	call void @llvm.dbg.declare (metadata %struct._ZNSt7__cxx1112basic_stringIcSt11char_traitsIcESaIcEEE** %_T47727800_12153.addr, metadata !3073, metadata !2164), !dbg !3066
	store %struct._ZNSt7__cxx1112basic_stringIcSt11char_traitsIcESaIcEEE* %_T47727800_12153.arg, %struct._ZNSt7__cxx1112basic_stringIcSt11char_traitsIcESaIcEEE** %_T47727800_12153.addr, align 8, !tbaa !2188
	call void @llvm.dbg.declare (metadata %struct._ZNSt7__cxx1112basic_stringIcSt11char_traitsIcESaIcEEE** %_T47727800_12153.addr, metadata !3074, metadata !2164), !dbg !3066
	call void @llvm.dbg.declare (metadata i8** %__beg.addr, metadata !3075, metadata !2164), !dbg !3066
	store i8* %__beg.arg, i8** %__beg.addr, align 8, !tbaa !2188
	call void @llvm.dbg.declare (metadata i8** %__beg.addr, metadata !3076, metadata !2164), !dbg !3066
	call void @llvm.dbg.declare (metadata i8** %__end.addr, metadata !3077, metadata !2164), !dbg !3066
	store i8* %__end.arg, i8** %__end.addr, align 8, !tbaa !2188
	call void @llvm.dbg.declare (metadata i8** %__end.addr, metadata !3078, metadata !2164), !dbg !3066
	%0 = load %struct._ZNSt7__cxx1112basic_stringIcSt11char_traitsIcESaIcEEE*, %struct._ZNSt7__cxx1112basic_stringIcSt11char_traitsIcESaIcEEE** %_T47727800_12153.addr, align 8, !tbaa !2188, !dbg !3079
	%1 = bitcast %struct._ZNSt7__cxx1112basic_stringIcSt11char_traitsIcESaIcEEE*  %0 to i8*, !dbg !3079
	%2 = bitcast %struct._ZNSt7__cxx1112basic_stringIcSt11char_traitsIcESaIcEEE** %..inline.addr to i8**, !dbg !3079
	store i8*  %1, i8**  %2, align 8, !tbaa !2188, !dbg !3079
	%3 = load i8*, i8** %__beg.addr, align 8, !tbaa !2188, !dbg !3079
	store i8*  %3, i8** %..inline.addr.1, align 8, !tbaa !2188, !dbg !3079
	%4 = load i8*, i8** %__end.addr, align 8, !tbaa !2188, !dbg !3079
	store i8*  %4, i8** %..inline.addr.2, align 8, !tbaa !2188, !dbg !3079
	call void @llvm.dbg.declare (metadata [1 x i8]* %.._T47729280_12153.__FILL_CHARARRAY.addr, metadata !3081, metadata !2164), !dbg !3068
	%5 = bitcast [1 x i8]* %.._T47729280_12153.__FILL_CHARARRAY.addr to i8*, !dbg !3080
	%6 = load i8, i8*  %5, align 1, !tbaa !2332, !dbg !3080
	%7 = zext i8  %6 to i32, !dbg !3080
	%8 = trunc i32  %7 to i8, !dbg !3080
	call void @llvm.dbg.declare (metadata [1 x i8]* %....inline.__FILL_CHARARRAY.addr, metadata !3082, metadata !2164), !dbg !3068
	%9 = bitcast [1 x i8]* %....inline.__FILL_CHARARRAY.addr to i8*, !dbg !3080
	store i8  %8, i8*  %9, align 1, !tbaa !2332, !dbg !3080
	%10 = load %struct._ZNSt7__cxx1112basic_stringIcSt11char_traitsIcESaIcEEE*, %struct._ZNSt7__cxx1112basic_stringIcSt11char_traitsIcESaIcEEE** %..inline.addr, align 8, !tbaa !2188, !dbg !3083
	%11 = load i8*, i8** %..inline.addr.1, align 8, !tbaa !2188, !dbg !3083
	%12 = load i8*, i8** %..inline.addr.2, align 8, !tbaa !2188, !dbg !3083
	%13 = bitcast %struct._ZSt26random_access_iterator_tag* %..inline.addr.3 to i8*, !dbg !3083
	%14 = load i8, i8*  %13, align 1, !tbaa !2332, !dbg !3083
	call void  @_ZNSt7__cxx1112basic_stringIcSt11char_traitsIcESaIcEE12_M_constructIPKcEEvT_S8_St20forward_iterator_tag (%struct._ZNSt7__cxx1112basic_stringIcSt11char_traitsIcESaIcEEE*  %10, i8*  %11, i8*  %12, i8  %14), !dbg !3083
	ret void, !dbg !3080
}

%struct._ZSt12__false_type = type <{ [1 x i8]}> 

define linkonce_odr void @_ZNSt7__cxx1112basic_stringIcSt11char_traitsIcESaIcEE16_M_construct_auxIPKcEEvT_S8_St12__false_type(%struct._ZNSt7__cxx1112basic_stringIcSt11char_traitsIcESaIcEEE* %_T47727800_12154.arg, i8* %__beg.arg, i8* %__end.arg, i8 %_T47728688_12154.coerce) #0 inlinehint !dbg !3087 {
L.entry:
	%_T47727800_12154.addr = alloca %struct._ZNSt7__cxx1112basic_stringIcSt11char_traitsIcESaIcEEE*, align 8
	%__beg.addr = alloca i8*, align 8
	%__end.addr = alloca i8*, align 8
	%_T47728688_12154.addr = alloca %struct._ZSt12__false_type, align 1
	%_T47729576_12154.addr = alloca %struct._ZSt26random_access_iterator_tag, align 1

	call void @llvm.dbg.declare (metadata %struct._ZNSt7__cxx1112basic_stringIcSt11char_traitsIcESaIcEEE** %_T47727800_12154.addr, metadata !3091, metadata !2164), !dbg !3088
	store %struct._ZNSt7__cxx1112basic_stringIcSt11char_traitsIcESaIcEEE* %_T47727800_12154.arg, %struct._ZNSt7__cxx1112basic_stringIcSt11char_traitsIcESaIcEEE** %_T47727800_12154.addr, align 8, !tbaa !2188
	call void @llvm.dbg.declare (metadata %struct._ZNSt7__cxx1112basic_stringIcSt11char_traitsIcESaIcEEE** %_T47727800_12154.addr, metadata !3092, metadata !2164), !dbg !3088
	call void @llvm.dbg.declare (metadata i8** %__beg.addr, metadata !3093, metadata !2164), !dbg !3088
	store i8* %__beg.arg, i8** %__beg.addr, align 8, !tbaa !2188
	call void @llvm.dbg.declare (metadata i8** %__beg.addr, metadata !3094, metadata !2164), !dbg !3088
	call void @llvm.dbg.declare (metadata i8** %__end.addr, metadata !3095, metadata !2164), !dbg !3088
	store i8* %__end.arg, i8** %__end.addr, align 8, !tbaa !2188
	call void @llvm.dbg.declare (metadata i8** %__end.addr, metadata !3096, metadata !2164), !dbg !3088
	call void @llvm.dbg.declare (metadata %struct._ZSt12__false_type* %_T47728688_12154.addr, metadata !3097, metadata !2164), !dbg !3088
	%0 = bitcast %struct._ZSt12__false_type* %_T47728688_12154.addr to i8*
	store i8 %_T47728688_12154.coerce, i8*  %0, align 1, !tbaa !2332
	call void @llvm.dbg.declare (metadata %struct._ZSt12__false_type* %_T47728688_12154.addr, metadata !3098, metadata !2164), !dbg !3088
	%1 = load %struct._ZNSt7__cxx1112basic_stringIcSt11char_traitsIcESaIcEEE*, %struct._ZNSt7__cxx1112basic_stringIcSt11char_traitsIcESaIcEEE** %_T47727800_12154.addr, align 8, !tbaa !2188, !dbg !3099
	%2 = load i8*, i8** %__beg.addr, align 8, !tbaa !2188, !dbg !3099
	%3 = load i8*, i8** %__end.addr, align 8, !tbaa !2188, !dbg !3099
	%4 = bitcast %struct._ZSt26random_access_iterator_tag* %_T47729576_12154.addr to i8*, !dbg !3099
	%5 = load i8, i8*  %4, align 1, !tbaa !2332, !dbg !3099
	call void  @_ZNSt7__cxx1112basic_stringIcSt11char_traitsIcESaIcEE12_M_constructIPKcEEvT_S8_St20forward_iterator_tag (%struct._ZNSt7__cxx1112basic_stringIcSt11char_traitsIcESaIcEEE*  %1, i8*  %2, i8*  %3, i8  %5), !dbg !3099
	ret void, !dbg !3100
}

%struct._ZSt20forward_iterator_tag = type <{ [1 x i8]}> 

define linkonce_odr void @_ZNSt7__cxx1112basic_stringIcSt11char_traitsIcESaIcEE12_M_constructIPKcEEvT_S8_St20forward_iterator_tag(%struct._ZNSt7__cxx1112basic_stringIcSt11char_traitsIcESaIcEEE* %_T47727800_12155.arg, i8* %__beg.arg, i8* %__end.arg, i8 %_T47728688_12155.coerce) #0 inlinehint personality i8* bitcast (i32 (...)* @__gxx_personality_v0 to i8*) !dbg !3106 {
L.entry:
	%_T47727800_12155.addr = alloca %struct._ZNSt7__cxx1112basic_stringIcSt11char_traitsIcESaIcEEE*, align 8
	%__beg.addr = alloca i8*, align 8
	%__end.addr = alloca i8*, align 8
	%_T47728688_12155.addr = alloca %struct._ZSt20forward_iterator_tag, align 1
	%..inline.addr = alloca i8*, align 8
	%..inline.addr.1 = alloca i8, align 1
	%..inline.addr.2 = alloca i8*, align 8
	%..inline.addr.3 = alloca i8*, align 8
	%..inline.addr.4 = alloca %struct._ZSt26random_access_iterator_tag, align 1
	%..inline.addr.5 = alloca i8*, align 8
	%..inline.addr.6 = alloca i8*, align 8
	%..inline.addr.7 = alloca %struct._ZSt26random_access_iterator_tag, align 1
	%..inline.addr.8 = alloca i64, align 8
	%..inline.addr.9 = alloca i64, align 8
	%__dnew.addr = alloca i64, align 8
	%..inline.addr.190 = alloca %struct._ZNSt7__cxx1112basic_stringIcSt11char_traitsIcESaIcEEE*, align 8
	%.Q0002.addr = alloca i8*, align 8
	%..inline.addr.210 = alloca i8*, align 8
	%..inline.addr.220 = alloca %struct._ZNSt7__cxx1112basic_stringIcSt11char_traitsIcESaIcEEE*, align 8
	%..inline.addr.230 = alloca i64, align 8
	%..inline.addr.240 = alloca %struct._ZNSt7__cxx1112basic_stringIcSt11char_traitsIcESaIcEEE*, align 8
	%..inline.addr.250 = alloca i8*, align 8
	%..inline.addr.260 = alloca i8*, align 8
	%..inline.addr.270 = alloca i8*, align 8
	%..inline.addr.280 = alloca i8*, align 8
	%..inline.addr.290 = alloca i8*, align 8
	%..inline.addr.300 = alloca i64, align 8
	%..inline.addr.310 = alloca i8*, align 8
	%..inline.addr.320 = alloca i8*, align 8
	%..inline.addr.330 = alloca i8*, align 8
	%..inline.addr.340 = alloca i8*, align 8
	%..inline.addr.350 = alloca i64, align 8
	%..inline.addr.360 = alloca i8*, align 8
	%..inline.addr.370 = alloca %struct._ZNSt7__cxx1112basic_stringIcSt11char_traitsIcESaIcEEE*, align 8
	%..inline.addr.380 = alloca i64, align 8
	%..inline.addr.390 = alloca %struct._ZNSt7__cxx1112basic_stringIcSt11char_traitsIcESaIcEEE*, align 8
	%..inline.addr.400 = alloca i64, align 8
	%..inline.addr.410 = alloca i8, align 1
	%..inline.addr.420 = alloca %struct._ZNSt7__cxx1112basic_stringIcSt11char_traitsIcESaIcEEE*, align 8
	%..inline.addr.430 = alloca i8*, align 8
	%__caught_object_address.addr = alloca i8*, align 8
	%__catch_clause_number.addr = alloca i32, align 4
	%..inline.addr.460 = alloca %struct._ZNSt7__cxx1112basic_stringIcSt11char_traitsIcESaIcEEE*, align 8
	%..inline.addr.470 = alloca %struct._ZNSt7__cxx1112basic_stringIcSt11char_traitsIcESaIcEEE*, align 8
	%..inline.addr.480 = alloca %struct._ZNSt7__cxx1112basic_stringIcSt11char_traitsIcESaIcEEE*, align 8
	%..inline.addr.490 = alloca %struct._ZNSt7__cxx1112basic_stringIcSt11char_traitsIcESaIcEEE*, align 8
	%..inline.addr.500 = alloca i8*, align 8
	%..inline.addr.510 = alloca i8*, align 8
	%..inline.addr.520 = alloca i8*, align 8
	%..inline.addr.530 = alloca i8*, align 8
	%..inline.addr.540 = alloca i8*, align 8
	%..inline.addr.550 = alloca i8*, align 8
	%..inline.addr.560 = alloca i8, align 1
	%..inline.addr.570 = alloca %struct._ZNSt7__cxx1112basic_stringIcSt11char_traitsIcESaIcEEE*, align 8
	%..inline.addr.580 = alloca i64, align 8
	%..inline.addr.590 = alloca %struct._ZNSt7__cxx1112basic_stringIcSt11char_traitsIcESaIcEEE*, align 8
	%..inline.addr.600 = alloca %struct._ZNSt7__cxx1112basic_stringIcSt11char_traitsIcESaIcEEE*, align 8
	%..inline.addr.610 = alloca %struct._ZSaIcE*, align 8
	%..inline.addr.620 = alloca i8*, align 8
	%..inline.addr.630 = alloca i64, align 8
	%..inline.addr.640 = alloca i8*, align 8

	call void @llvm.dbg.declare (metadata %struct._ZNSt7__cxx1112basic_stringIcSt11char_traitsIcESaIcEEE** %_T47727800_12155.addr, metadata !3216, metadata !2164), !dbg !3107
	store %struct._ZNSt7__cxx1112basic_stringIcSt11char_traitsIcESaIcEEE* %_T47727800_12155.arg, %struct._ZNSt7__cxx1112basic_stringIcSt11char_traitsIcESaIcEEE** %_T47727800_12155.addr, align 8
	call void @llvm.dbg.declare (metadata %struct._ZNSt7__cxx1112basic_stringIcSt11char_traitsIcESaIcEEE** %_T47727800_12155.addr, metadata !3217, metadata !2164), !dbg !3107
	call void @llvm.dbg.declare (metadata i8** %__beg.addr, metadata !3218, metadata !2164), !dbg !3107
	store i8* %__beg.arg, i8** %__beg.addr, align 8
	call void @llvm.dbg.declare (metadata i8** %__beg.addr, metadata !3219, metadata !2164), !dbg !3107
	call void @llvm.dbg.declare (metadata i8** %__end.addr, metadata !3220, metadata !2164), !dbg !3107
	store i8* %__end.arg, i8** %__end.addr, align 8
	call void @llvm.dbg.declare (metadata i8** %__end.addr, metadata !3221, metadata !2164), !dbg !3107
	call void @llvm.dbg.declare (metadata %struct._ZSt20forward_iterator_tag* %_T47728688_12155.addr, metadata !3222, metadata !2164), !dbg !3107
	%0 = bitcast %struct._ZSt20forward_iterator_tag* %_T47728688_12155.addr to i8*
	store i8 %_T47728688_12155.coerce, i8*  %0, align 1
	call void @llvm.dbg.declare (metadata %struct._ZSt20forward_iterator_tag* %_T47728688_12155.addr, metadata !3223, metadata !2164), !dbg !3107
	%1 = load i8*, i8** %__beg.addr, align 8, !dbg !3224
	store i8*  %1, i8** %..inline.addr, align 8, !dbg !3224
	%2 = icmp eq i8*  %1,  null, !dbg !3224
	%3 = zext i1  %2 to i32, !dbg !3224
	%4 = shl i32  %3, 24, !dbg !3224
	%5 = ashr i32  %4, 24, !dbg !3224
	%6 = trunc i32  %5 to i8, !dbg !3224
	store i8  %6, i8* %..inline.addr.1, align 1, !dbg !3224
	%7 = sext i8  %6 to i32, !dbg !3225
	%8 = icmp eq i32  %7, 0, !dbg !3225
	br i1  %8, label %L.B0010, label %L.B0659, !dbg !3225
L.B0659:
	%9 = load i8*, i8** %__beg.addr, align 8, !dbg !3224
	%10 = load i8*, i8** %__end.addr, align 8, !dbg !3224
	%11 = icmp eq i8*  %9,  %10, !dbg !3224
	br i1  %11, label %L.B0010, label %L.B0660, !dbg !3224
L.B0660:
	%12 = bitcast [42 x i8]* @.S13363 to i8*, !dbg !3226
	call void  @_ZSt19__throw_logic_errorPKc (i8*  %12) noreturn, !dbg !3226
	br label %L.B0010
L.B0010:
	%13 = load i8*, i8** %__beg.addr, align 8, !dbg !3227
	store i8*  %13, i8** %..inline.addr.2, align 8, !dbg !3227
	%14 = load i8*, i8** %__end.addr, align 8, !dbg !3227
	store i8*  %14, i8** %..inline.addr.3, align 8, !dbg !3227
	%15 = bitcast %struct._ZSt26random_access_iterator_tag* %..inline.addr.4 to i8*, !dbg !3227
	store i8 0, i8*  %15, align 1, !dbg !3227
	store i8*  %13, i8** %..inline.addr.5, align 8, !dbg !3228
	store i8*  %14, i8** %..inline.addr.6, align 8, !dbg !3228
	%16 = zext i8 0 to i32, !dbg !3229
	%17 = trunc i32  %16 to i8, !dbg !3229
	%18 = bitcast %struct._ZSt26random_access_iterator_tag* %..inline.addr.7 to i8*, !dbg !3229
	store i8  %17, i8*  %18, align 1, !dbg !3229
	%19 = ptrtoint i8*  %13 to i64, !dbg !3228
	%20 = sub i64 0,  %19, !dbg !3228
	%21 = getelementptr i8, i8*  %14, i64  %20, !dbg !3228
	%22 = ptrtoint i8*  %21 to i64, !dbg !3228
	store i64  %22, i64* %..inline.addr.8, align 8, !dbg !3228
	store i64  %22, i64* %..inline.addr.9, align 8, !dbg !3228
	br label %L..inline.20140, !dbg !3228
L..inline.20140:
	%23 = load i64, i64* %..inline.addr.9, align 8, !dbg !3230
	call void @llvm.dbg.declare (metadata i64* %__dnew.addr, metadata !3231, metadata !2164), !dbg !3107
	store i64  %23, i64* %__dnew.addr, align 8, !dbg !3230
	%24 = icmp ule i64  %23, 15, !dbg !3232
	br i1  %24, label %L.B0011, label %L.B0661, !dbg !3232
L.B0661:
	%25 = load %struct._ZNSt7__cxx1112basic_stringIcSt11char_traitsIcESaIcEEE*, %struct._ZNSt7__cxx1112basic_stringIcSt11char_traitsIcESaIcEEE** %_T47727800_12155.addr, align 8, !dbg !3233
	%26 = bitcast %struct._ZNSt7__cxx1112basic_stringIcSt11char_traitsIcESaIcEEE*  %25 to i8*, !dbg !3233
	%27 = bitcast %struct._ZNSt7__cxx1112basic_stringIcSt11char_traitsIcESaIcEEE** %..inline.addr.190 to i8**, !dbg !3233
	store i8*  %26, i8**  %27, align 8, !dbg !3233
	%28 = call i8*  @_ZNSt7__cxx1112basic_stringIcSt11char_traitsIcESaIcEE9_M_createERmm (%struct._ZNSt7__cxx1112basic_stringIcSt11char_traitsIcESaIcEEE*  %25, i64* %__dnew.addr, i64 0), !dbg !3233
	store i8*  %28, i8** %.Q0002.addr, align 8, !dbg !3233
	%29 = load i8*, i8** %.Q0002.addr, align 8, !dbg !3233
	store i8*  %29, i8** %..inline.addr.210, align 8, !dbg !3233
	%30 = load %struct._ZNSt7__cxx1112basic_stringIcSt11char_traitsIcESaIcEEE*, %struct._ZNSt7__cxx1112basic_stringIcSt11char_traitsIcESaIcEEE** %..inline.addr.190, align 8, !dbg !3233
	%31 = bitcast %struct._ZNSt7__cxx1112basic_stringIcSt11char_traitsIcESaIcEEE*  %30 to i8**, !dbg !3233
	store i8*  %29, i8**  %31, align 8, !dbg !3233
	%32 = load %struct._ZNSt7__cxx1112basic_stringIcSt11char_traitsIcESaIcEEE*, %struct._ZNSt7__cxx1112basic_stringIcSt11char_traitsIcESaIcEEE** %_T47727800_12155.addr, align 8, !dbg !3234
	%33 = bitcast %struct._ZNSt7__cxx1112basic_stringIcSt11char_traitsIcESaIcEEE*  %32 to i8*, !dbg !3234
	%34 = bitcast %struct._ZNSt7__cxx1112basic_stringIcSt11char_traitsIcESaIcEEE** %..inline.addr.220 to i8**, !dbg !3234
	store i8*  %33, i8**  %34, align 8, !dbg !3234
	%35 = load i64, i64* %__dnew.addr, align 8, !dbg !3234
	store i64  %35, i64* %..inline.addr.230, align 8, !dbg !3234
	%36 = load %struct._ZNSt7__cxx1112basic_stringIcSt11char_traitsIcESaIcEEE*, %struct._ZNSt7__cxx1112basic_stringIcSt11char_traitsIcESaIcEEE** %..inline.addr.220, align 8, !dbg !3234
	%37 = bitcast %struct._ZNSt7__cxx1112basic_stringIcSt11char_traitsIcESaIcEEE*  %36 to i8*, !dbg !3234
	%38 = getelementptr i8, i8*  %37, i64 16, !dbg !3234
	%39 = bitcast i8*  %38 to i64*, !dbg !3234
	store i64  %35, i64*  %39, align 8, !dbg !3234
	br label %L.B0011
L.B0011:
	%40 = load %struct._ZNSt7__cxx1112basic_stringIcSt11char_traitsIcESaIcEEE*, %struct._ZNSt7__cxx1112basic_stringIcSt11char_traitsIcESaIcEEE** %_T47727800_12155.addr, align 8, !dbg !3235
	%41 = bitcast %struct._ZNSt7__cxx1112basic_stringIcSt11char_traitsIcESaIcEEE*  %40 to i8*, !dbg !3235
	%42 = bitcast %struct._ZNSt7__cxx1112basic_stringIcSt11char_traitsIcESaIcEEE** %..inline.addr.240 to i8**, !dbg !3235
	store i8*  %41, i8**  %42, align 8, !dbg !3235
	%43 = load %struct._ZNSt7__cxx1112basic_stringIcSt11char_traitsIcESaIcEEE*, %struct._ZNSt7__cxx1112basic_stringIcSt11char_traitsIcESaIcEEE** %..inline.addr.240, align 8, !dbg !3236
	%44 = bitcast %struct._ZNSt7__cxx1112basic_stringIcSt11char_traitsIcESaIcEEE*  %43 to i8**, !dbg !3236
	%45 = load i8*, i8**  %44, align 8, !dbg !3236
	store i8*  %45, i8** %..inline.addr.250, align 8, !dbg !3236
	%46 = load i8*, i8** %__beg.addr, align 8, !dbg !3235
	store i8*  %46, i8** %..inline.addr.260, align 8, !dbg !3235
	%47 = load i8*, i8** %__end.addr, align 8, !dbg !3235
	store i8*  %47, i8** %..inline.addr.270, align 8, !dbg !3235
	store i8*  %45, i8** %..inline.addr.280, align 8, !dbg !3237
	store i8*  %46, i8** %..inline.addr.290, align 8, !dbg !3237
	%48 = ptrtoint i8*  %46 to i64, !dbg !3237
	%49 = sub i64 0,  %48, !dbg !3237
	%50 = getelementptr i8, i8*  %47, i64  %49, !dbg !3237
	%51 = ptrtoint i8*  %50 to i64, !dbg !3237
	store i64  %51, i64* %..inline.addr.300, align 8, !dbg !3237
	%52 = icmp ne i64  %51, 1, !dbg !3237
	br i1  %52, label %L..inline.20169, label %L.B0662, !dbg !3237
L.B0662:
	%53 = load i8*, i8** %..inline.addr.280, align 8, !dbg !3237
	store i8*  %53, i8** %..inline.addr.310, align 8, !dbg !3237
	%54 = load i8*, i8** %..inline.addr.290, align 8, !dbg !3237
	store i8*  %54, i8** %..inline.addr.320, align 8, !dbg !3237
	%55 = load i8, i8*  %54, align 1, !dbg !3237
	store i8  %55, i8*  %53, align 1, !dbg !3237
	br label %L..inline.20176, !dbg !3237
L..inline.20169:
	%56 = load i8*, i8** %..inline.addr.280, align 8, !dbg !3237
	store i8*  %56, i8** %..inline.addr.330, align 8, !dbg !3237
	%57 = load i8*, i8** %..inline.addr.290, align 8, !dbg !3237
	store i8*  %57, i8** %..inline.addr.340, align 8, !dbg !3237
	%58 = load i64, i64* %..inline.addr.300, align 8, !dbg !3237
	store i64  %58, i64* %..inline.addr.350, align 8, !dbg !3237
	%59 = icmp ne i64  %58, 0, !dbg !3237
	br i1  %59, label %L..inline.20183, label %L.B0663, !dbg !3237
L.B0663:
	%60 = load i8*, i8** %..inline.addr.330, align 8, !dbg !3237
	store i8*  %60, i8** %..inline.addr.360, align 8, !dbg !3237
	br label %L..inline.20185, !dbg !3237
L..inline.20183:
	%61 = load i8*, i8** %..inline.addr.330, align 8, !dbg !3237
	%62 = load i8*, i8** %..inline.addr.340, align 8, !dbg !3237
	%63 = load i64, i64* %..inline.addr.350, align 8, !dbg !3237
	%64 = call i8*  @memcpy (i8*  %61, i8*  %62, i64  %63) nounwind, !dbg !3237
	store i8*  %64, i8** %..inline.addr.360, align 8, !dbg !3237
	br label %L..inline.20185
L..inline.20185:
	br label %L..inline.20176
L..inline.20176:
	br label %L_T47730112_12155
L_T47730112_12155:
	%65 = load %struct._ZNSt7__cxx1112basic_stringIcSt11char_traitsIcESaIcEEE*, %struct._ZNSt7__cxx1112basic_stringIcSt11char_traitsIcESaIcEEE** %_T47727800_12155.addr, align 8, !dbg !3238
	%66 = bitcast %struct._ZNSt7__cxx1112basic_stringIcSt11char_traitsIcESaIcEEE*  %65 to i8*, !dbg !3238
	%67 = bitcast %struct._ZNSt7__cxx1112basic_stringIcSt11char_traitsIcESaIcEEE** %..inline.addr.370 to i8**, !dbg !3238
	store i8*  %66, i8**  %67, align 8, !dbg !3238
	%68 = load i64, i64* %__dnew.addr, align 8, !dbg !3238
	store i64  %68, i64* %..inline.addr.380, align 8, !dbg !3238
	%69 = load %struct._ZNSt7__cxx1112basic_stringIcSt11char_traitsIcESaIcEEE*, %struct._ZNSt7__cxx1112basic_stringIcSt11char_traitsIcESaIcEEE** %..inline.addr.370, align 8, !dbg !3239
	%70 = bitcast %struct._ZNSt7__cxx1112basic_stringIcSt11char_traitsIcESaIcEEE*  %69 to i8*, !dbg !3239
	%71 = bitcast %struct._ZNSt7__cxx1112basic_stringIcSt11char_traitsIcESaIcEEE** %..inline.addr.390 to i8**, !dbg !3239
	store i8*  %70, i8**  %71, align 8, !dbg !3239
	store i64  %68, i64* %..inline.addr.400, align 8, !dbg !3239
	%72 = load %struct._ZNSt7__cxx1112basic_stringIcSt11char_traitsIcESaIcEEE*, %struct._ZNSt7__cxx1112basic_stringIcSt11char_traitsIcESaIcEEE** %..inline.addr.390, align 8, !dbg !3239
	%73 = bitcast %struct._ZNSt7__cxx1112basic_stringIcSt11char_traitsIcESaIcEEE*  %72 to i8*, !dbg !3239
	%74 = getelementptr i8, i8*  %73, i64 8, !dbg !3239
	%75 = bitcast i8*  %74 to i64*, !dbg !3239
	store i64  %68, i64*  %75, align 8, !dbg !3239
	store i8 0, i8* %..inline.addr.410, align 1, !dbg !3239
	%76 = bitcast %struct._ZNSt7__cxx1112basic_stringIcSt11char_traitsIcESaIcEEE** %..inline.addr.420 to i8**, !dbg !3232
	store i8*  %70, i8**  %76, align 8, !dbg !3232
	%77 = load %struct._ZNSt7__cxx1112basic_stringIcSt11char_traitsIcESaIcEEE*, %struct._ZNSt7__cxx1112basic_stringIcSt11char_traitsIcESaIcEEE** %..inline.addr.420, align 8, !dbg !3232
	%78 = bitcast %struct._ZNSt7__cxx1112basic_stringIcSt11char_traitsIcESaIcEEE*  %77 to i8**, !dbg !3232
	%79 = load i8*, i8**  %78, align 8, !dbg !3232
	%80 = getelementptr i8, i8*  %79, i64  %68, !dbg !3232
	store i8*  %80, i8** %..inline.addr.430, align 8, !dbg !3232
	store i8 0, i8*  %80, align 1, !dbg !3232
	br label %L.R0035, !dbg !3238
L_T47729872_12155:
	%81 = landingpad %astruct.dt64
	catch i8*  null 
	%82 = extractvalue %astruct.dt64  %81, 0, !dbg !3238
	store i8*  %82, i8** %__caught_object_address.addr, align 1, !dbg !3238
	%83 = extractvalue %astruct.dt64  %81, 1, !dbg !3238
	store i32  %83, i32* %__catch_clause_number.addr, align 1, !dbg !3238
	%84 = load i8*, i8** %__caught_object_address.addr, align 8, !dbg !3240
	%85 = call i8*  @__cxa_begin_catch (i8*  %84) nounwind, !dbg !3240
	%86 = load %struct._ZNSt7__cxx1112basic_stringIcSt11char_traitsIcESaIcEEE*, %struct._ZNSt7__cxx1112basic_stringIcSt11char_traitsIcESaIcEEE** %_T47727800_12155.addr, align 8, !dbg !3241
	%87 = bitcast %struct._ZNSt7__cxx1112basic_stringIcSt11char_traitsIcESaIcEEE*  %86 to i8*, !dbg !3241
	%88 = bitcast %struct._ZNSt7__cxx1112basic_stringIcSt11char_traitsIcESaIcEEE** %..inline.addr.460 to i8**, !dbg !3241
	store i8*  %87, i8**  %88, align 8, !dbg !3241
	%89 = load %struct._ZNSt7__cxx1112basic_stringIcSt11char_traitsIcESaIcEEE*, %struct._ZNSt7__cxx1112basic_stringIcSt11char_traitsIcESaIcEEE** %..inline.addr.460, align 8, !dbg !3242
	%90 = bitcast %struct._ZNSt7__cxx1112basic_stringIcSt11char_traitsIcESaIcEEE*  %89 to i8*, !dbg !3242
	%91 = bitcast %struct._ZNSt7__cxx1112basic_stringIcSt11char_traitsIcESaIcEEE** %..inline.addr.470 to i8**, !dbg !3242
	store i8*  %90, i8**  %91, align 8, !dbg !3242
	%92 = load %struct._ZNSt7__cxx1112basic_stringIcSt11char_traitsIcESaIcEEE*, %struct._ZNSt7__cxx1112basic_stringIcSt11char_traitsIcESaIcEEE** %..inline.addr.470, align 8, !dbg !3242
	%93 = bitcast %struct._ZNSt7__cxx1112basic_stringIcSt11char_traitsIcESaIcEEE*  %92 to i8*, !dbg !3242
	%94 = bitcast %struct._ZNSt7__cxx1112basic_stringIcSt11char_traitsIcESaIcEEE** %..inline.addr.480 to i8**, !dbg !3242
	store i8*  %93, i8**  %94, align 8, !dbg !3242
	%95 = bitcast %struct._ZNSt7__cxx1112basic_stringIcSt11char_traitsIcESaIcEEE** %..inline.addr.490 to i8**, !dbg !3242
	store i8*  %93, i8**  %95, align 8, !dbg !3242
	%96 = load %struct._ZNSt7__cxx1112basic_stringIcSt11char_traitsIcESaIcEEE*, %struct._ZNSt7__cxx1112basic_stringIcSt11char_traitsIcESaIcEEE** %..inline.addr.490, align 8, !dbg !3242
	%97 = bitcast %struct._ZNSt7__cxx1112basic_stringIcSt11char_traitsIcESaIcEEE*  %96 to i8*, !dbg !3242
	%98 = getelementptr i8, i8*  %97, i64 16, !dbg !3242
	store i8*  %98, i8** %..inline.addr.500, align 8, !dbg !3242
	store i8*  %98, i8** %..inline.addr.510, align 8, !dbg !3242
	store i8*  %98, i8** %..inline.addr.520, align 8, !dbg !3242
	store i8*  %98, i8** %..inline.addr.530, align 8, !dbg !3242
	store i8*  %98, i8** %..inline.addr.540, align 8, !dbg !3242
	store i8*  %98, i8** %..inline.addr.550, align 8, !dbg !3242
	br label %L..inline.20254, !dbg !3242
L..inline.20254:
	%99 = load %struct._ZNSt7__cxx1112basic_stringIcSt11char_traitsIcESaIcEEE*, %struct._ZNSt7__cxx1112basic_stringIcSt11char_traitsIcESaIcEEE** %..inline.addr.480, align 8, !dbg !3242
	%100 = bitcast %struct._ZNSt7__cxx1112basic_stringIcSt11char_traitsIcESaIcEEE*  %99 to i8**, !dbg !3242
	%101 = load i8*, i8**  %100, align 8, !dbg !3242
	%102 = load i8*, i8** %..inline.addr.550, align 8, !dbg !3242
	%103 = icmp eq i8*  %101,  %102, !dbg !3242
	%104 = zext i1  %103 to i32, !dbg !3242
	%105 = trunc i32  %104 to i8, !dbg !3242
	store i8  %105, i8* %..inline.addr.560, align 1, !dbg !3242
	br label %L..inline.20256, !dbg !3242
L..inline.20256:
	%106 = load i8, i8* %..inline.addr.560, align 1, !dbg !3242
	%107 = sext i8  %106 to i32, !dbg !3242
	%108 = icmp ne i32  %107, 0, !dbg !3242
	br i1  %108, label %L..inline.20257, label %L.B0664, !dbg !3242
L.B0664:
	%109 = load %struct._ZNSt7__cxx1112basic_stringIcSt11char_traitsIcESaIcEEE*, %struct._ZNSt7__cxx1112basic_stringIcSt11char_traitsIcESaIcEEE** %..inline.addr.460, align 8, !dbg !3238
	%110 = bitcast %struct._ZNSt7__cxx1112basic_stringIcSt11char_traitsIcESaIcEEE*  %109 to i8*, !dbg !3238
	%111 = bitcast %struct._ZNSt7__cxx1112basic_stringIcSt11char_traitsIcESaIcEEE** %..inline.addr.570 to i8**, !dbg !3238
	store i8*  %110, i8**  %111, align 8, !dbg !3238
	%112 = getelementptr i8, i8*  %110, i64 16, !dbg !3238
	%113 = bitcast i8*  %112 to i64*, !dbg !3238
	%114 = load i64, i64*  %113, align 8, !dbg !3238
	store i64  %114, i64* %..inline.addr.580, align 8, !dbg !3238
	%115 = load %struct._ZNSt7__cxx1112basic_stringIcSt11char_traitsIcESaIcEEE*, %struct._ZNSt7__cxx1112basic_stringIcSt11char_traitsIcESaIcEEE** %..inline.addr.570, align 8, !dbg !3238
	%116 = bitcast %struct._ZNSt7__cxx1112basic_stringIcSt11char_traitsIcESaIcEEE*  %115 to i8*, !dbg !3238
	%117 = bitcast %struct._ZNSt7__cxx1112basic_stringIcSt11char_traitsIcESaIcEEE** %..inline.addr.590 to i8**, !dbg !3238
	store i8*  %116, i8**  %117, align 8, !dbg !3238
	%118 = bitcast %struct._ZNSt7__cxx1112basic_stringIcSt11char_traitsIcESaIcEEE** %..inline.addr.600 to i8**, !dbg !3238
	store i8*  %116, i8**  %118, align 8, !dbg !3238
	%119 = load %struct._ZNSt7__cxx1112basic_stringIcSt11char_traitsIcESaIcEEE*, %struct._ZNSt7__cxx1112basic_stringIcSt11char_traitsIcESaIcEEE** %..inline.addr.590, align 8, !dbg !3238
	%120 = bitcast %struct._ZNSt7__cxx1112basic_stringIcSt11char_traitsIcESaIcEEE*  %119 to i8*, !dbg !3238
	%121 = bitcast %struct._ZSaIcE** %..inline.addr.610 to i8**, !dbg !3238
	store i8*  %120, i8**  %121, align 8, !dbg !3238
	%122 = load %struct._ZNSt7__cxx1112basic_stringIcSt11char_traitsIcESaIcEEE*, %struct._ZNSt7__cxx1112basic_stringIcSt11char_traitsIcESaIcEEE** %..inline.addr.600, align 8, !dbg !3238
	%123 = bitcast %struct._ZNSt7__cxx1112basic_stringIcSt11char_traitsIcESaIcEEE*  %122 to i8**, !dbg !3238
	%124 = load i8*, i8**  %123, align 8, !dbg !3238
	store i8*  %124, i8** %..inline.addr.620, align 8, !dbg !3238
	%125 = add i64  %114, 1, !dbg !3238
	store i64  %125, i64* %..inline.addr.630, align 8, !dbg !3238
	store i8*  %124, i8** %..inline.addr.640, align 8, !dbg !3238
	call void  @_ZdlPv (i8*  %124) nounwind, !dbg !3238
	br label %L..inline.20257
L..inline.20257:
	invoke void  @__cxa_rethrow () noreturn
		to label %L.B0665
		unwind label %L_T47730232_12155, !dbg !3243
L.B0665:
	br label %L_T47730112_12155, !dbg !3243
L_T47730232_12155:
	%126 = landingpad %astruct.dt64
	cleanup
	%127 = extractvalue %astruct.dt64  %126, 0, !dbg !3244
	store i8*  %127, i8** %__caught_object_address.addr, align 1, !dbg !3244
	%128 = extractvalue %astruct.dt64  %126, 1, !dbg !3244
	store i32  %128, i32* %__catch_clause_number.addr, align 1, !dbg !3244
	call void  @__cxa_end_catch () nounwind, !dbg !3244
	%129 = load i32, i32* %__catch_clause_number.addr, align 4, !dbg !3244
	%130 = load i8*, i8** %__caught_object_address.addr, align 8, !dbg !3244
	%131 = insertvalue %astruct.dt64 undef, i8*  %130, 0, !dbg !3244
	%132 = insertvalue %astruct.dt64  %131, i32  %129, 1, !dbg !3244
	resume %astruct.dt64  %132 , !dbg !3244
L.R0035:
	ret void, !dbg !3229
}
define linkonce_odr void @_ZNSt7__cxx1112basic_stringIcSt11char_traitsIcESaIcEE12_Alloc_hiderC1EPcRKS3_(%struct._ZNSt7__cxx1112basic_stringIcSt11char_traitsIcESaIcEE12_Alloc_hiderE* %_T47727800_12157.arg, i8* %__dat.arg, %struct._ZSaIcE* %__a.arg) #0 inlinehint !dbg !3249 {
L.entry:
	%_T47727800_12157.addr = alloca %struct._ZNSt7__cxx1112basic_stringIcSt11char_traitsIcESaIcEE12_Alloc_hiderE*, align 8
	%__dat.addr = alloca i8*, align 8
	%__a.addr = alloca %struct._ZSaIcE*, align 8

	call void @llvm.dbg.declare (metadata %struct._ZNSt7__cxx1112basic_stringIcSt11char_traitsIcESaIcEE12_Alloc_hiderE** %_T47727800_12157.addr, metadata !3253, metadata !2164), !dbg !3250
	store %struct._ZNSt7__cxx1112basic_stringIcSt11char_traitsIcESaIcEE12_Alloc_hiderE* %_T47727800_12157.arg, %struct._ZNSt7__cxx1112basic_stringIcSt11char_traitsIcESaIcEE12_Alloc_hiderE** %_T47727800_12157.addr, align 8, !tbaa !2188
	call void @llvm.dbg.declare (metadata %struct._ZNSt7__cxx1112basic_stringIcSt11char_traitsIcESaIcEE12_Alloc_hiderE** %_T47727800_12157.addr, metadata !3254, metadata !2164), !dbg !3250
	call void @llvm.dbg.declare (metadata i8** %__dat.addr, metadata !3255, metadata !2164), !dbg !3250
	store i8* %__dat.arg, i8** %__dat.addr, align 8, !tbaa !2188
	call void @llvm.dbg.declare (metadata i8** %__dat.addr, metadata !3256, metadata !2164), !dbg !3250
	call void @llvm.dbg.declare (metadata %struct._ZSaIcE** %__a.addr, metadata !3257, metadata !2164), !dbg !3250
	store %struct._ZSaIcE* %__a.arg, %struct._ZSaIcE** %__a.addr, align 8, !tbaa !2188
	call void @llvm.dbg.declare (metadata %struct._ZSaIcE** %__a.addr, metadata !3258, metadata !2164), !dbg !3250
	%0 = load i8*, i8** %__dat.addr, align 8, !tbaa !2188, !dbg !3259
	%1 = load %struct._ZNSt7__cxx1112basic_stringIcSt11char_traitsIcESaIcEE12_Alloc_hiderE*, %struct._ZNSt7__cxx1112basic_stringIcSt11char_traitsIcESaIcEE12_Alloc_hiderE** %_T47727800_12157.addr, align 8, !tbaa !2188, !dbg !3259
	%2 = bitcast %struct._ZNSt7__cxx1112basic_stringIcSt11char_traitsIcESaIcEE12_Alloc_hiderE*  %1 to i8**, !dbg !3259
	store i8*  %0, i8**  %2, align 8, !tbaa !2188, !dbg !3259
	ret void, !dbg !3259
}
define linkonce_odr void @_ZNSt7__cxx1112basic_stringIcSt11char_traitsIcESaIcEE12_Alloc_hiderC2EPcRKS3_(%struct._ZNSt7__cxx1112basic_stringIcSt11char_traitsIcESaIcEE12_Alloc_hiderE* %_T47727800_12159.arg, i8* %_T47728096_12159.arg, %struct._ZSaIcE* %_T47728392_12159.arg) #0 inlinehint !dbg !3261 {
L.entry:
	%_T47727800_12159.addr = alloca %struct._ZNSt7__cxx1112basic_stringIcSt11char_traitsIcESaIcEE12_Alloc_hiderE*, align 8
	%_T47728096_12159.addr = alloca i8*, align 8
	%_T47728392_12159.addr = alloca %struct._ZSaIcE*, align 8

	store %struct._ZNSt7__cxx1112basic_stringIcSt11char_traitsIcESaIcEE12_Alloc_hiderE* %_T47727800_12159.arg, %struct._ZNSt7__cxx1112basic_stringIcSt11char_traitsIcESaIcEE12_Alloc_hiderE** %_T47727800_12159.addr, align 8, !tbaa !2188
	store i8* %_T47728096_12159.arg, i8** %_T47728096_12159.addr, align 8, !tbaa !2188
	store %struct._ZSaIcE* %_T47728392_12159.arg, %struct._ZSaIcE** %_T47728392_12159.addr, align 8, !tbaa !2188
	%0 = load i8*, i8** %_T47728096_12159.addr, align 8, !tbaa !2188, !dbg !3269
	%1 = load %struct._ZNSt7__cxx1112basic_stringIcSt11char_traitsIcESaIcEE12_Alloc_hiderE*, %struct._ZNSt7__cxx1112basic_stringIcSt11char_traitsIcESaIcEE12_Alloc_hiderE** %_T47727800_12159.addr, align 8, !tbaa !2188, !dbg !3269
	%2 = bitcast %struct._ZNSt7__cxx1112basic_stringIcSt11char_traitsIcESaIcEE12_Alloc_hiderE*  %1 to i8**, !dbg !3269
	store i8*  %0, i8**  %2, align 8, !tbaa !2188, !dbg !3269
	ret void, !dbg !3269
}

%struct._ZN9__gnu_cxx13new_allocatorIcEE = type <{ [1 x i8]}> 

define linkonce_odr void @_ZN9__gnu_cxx13new_allocatorIcE10deallocateEPcm(%struct._ZN9__gnu_cxx13new_allocatorIcEE* %_T47727800_12162.arg, i8* %__p.arg, i64 %_T47728392_12162.arg) #0 inlinehint !dbg !3276 {
L.entry:
	%_T47727800_12162.addr = alloca %struct._ZN9__gnu_cxx13new_allocatorIcEE*, align 8
	%__p.addr = alloca i8*, align 8
	%_T47728392_12162.addr = alloca i64, align 8

	call void @llvm.dbg.declare (metadata %struct._ZN9__gnu_cxx13new_allocatorIcEE** %_T47727800_12162.addr, metadata !3280, metadata !2164), !dbg !3277
	store %struct._ZN9__gnu_cxx13new_allocatorIcEE* %_T47727800_12162.arg, %struct._ZN9__gnu_cxx13new_allocatorIcEE** %_T47727800_12162.addr, align 8, !tbaa !2188
	call void @llvm.dbg.declare (metadata %struct._ZN9__gnu_cxx13new_allocatorIcEE** %_T47727800_12162.addr, metadata !3281, metadata !2164), !dbg !3277
	call void @llvm.dbg.declare (metadata i8** %__p.addr, metadata !3282, metadata !2164), !dbg !3277
	store i8* %__p.arg, i8** %__p.addr, align 8, !tbaa !2188
	call void @llvm.dbg.declare (metadata i8** %__p.addr, metadata !3283, metadata !2164), !dbg !3277
	call void @llvm.dbg.declare (metadata i64* %_T47728392_12162.addr, metadata !3284, metadata !2164), !dbg !3277
	store i64 %_T47728392_12162.arg, i64* %_T47728392_12162.addr, align 8, !tbaa !2332
	call void @llvm.dbg.declare (metadata i64* %_T47728392_12162.addr, metadata !3285, metadata !2164), !dbg !3277
	%0 = load i8*, i8** %__p.addr, align 8, !tbaa !2188, !dbg !3286
	call void  @_ZdlPv (i8*  %0) nounwind, !dbg !3286
	ret void, !dbg !3287
}

%struct.ompi_datatype_t = type opaque
%struct._ZN3MPI8DatatypeE = type <{ i32 (...)* (...)*, %struct.ompi_datatype_t*}> 

define linkonce_odr void @_ZN3MPI8DatatypeD1Ev(%struct._ZN3MPI8DatatypeE* %_T47727800_12163.arg) #0 inlinehint !dbg !3291 {
L.entry:
	%_T47727800_12163.addr = alloca %struct._ZN3MPI8DatatypeE*, align 8

	call void @llvm.dbg.declare (metadata %struct._ZN3MPI8DatatypeE** %_T47727800_12163.addr, metadata !3295, metadata !2164), !dbg !3292
	store %struct._ZN3MPI8DatatypeE* %_T47727800_12163.arg, %struct._ZN3MPI8DatatypeE** %_T47727800_12163.addr, align 8, !tbaa !2188
	call void @llvm.dbg.declare (metadata %struct._ZN3MPI8DatatypeE** %_T47727800_12163.addr, metadata !3296, metadata !2164), !dbg !3292
	%0 = bitcast [32 x i32 (...)* (...)*]* @_ZTVN3MPI8DatatypeE to i8*, !dbg !3297
	%1 = getelementptr i8, i8*  %0, i64 16, !dbg !3297
	%2 = load %struct._ZN3MPI8DatatypeE*, %struct._ZN3MPI8DatatypeE** %_T47727800_12163.addr, align 8, !tbaa !2188, !dbg !3297
	%3 = bitcast %struct._ZN3MPI8DatatypeE*  %2 to i8**, !dbg !3297
	store i8*  %1, i8**  %3, align 8, !tbaa !2188, !dbg !3297
	ret void, !dbg !3297
}
define linkonce_odr void @_ZN3MPI8DatatypeD0Ev(%struct._ZN3MPI8DatatypeE* %_T47727800_12164.arg) #0 inlinehint !dbg !3302 {
L.entry:
	%_T47727800_12164.addr = alloca %struct._ZN3MPI8DatatypeE*, align 8

	store %struct._ZN3MPI8DatatypeE* %_T47727800_12164.arg, %struct._ZN3MPI8DatatypeE** %_T47727800_12164.addr, align 8, !tbaa !2188
	%0 = bitcast [32 x i32 (...)* (...)*]* @_ZTVN3MPI8DatatypeE to i8*, !dbg !3310
	%1 = getelementptr i8, i8*  %0, i64 16, !dbg !3310
	%2 = load %struct._ZN3MPI8DatatypeE*, %struct._ZN3MPI8DatatypeE** %_T47727800_12164.addr, align 8, !tbaa !2188, !dbg !3310
	%3 = bitcast %struct._ZN3MPI8DatatypeE*  %2 to i8**, !dbg !3310
	store i8*  %1, i8**  %3, align 8, !tbaa !2188, !dbg !3310
	%4 = bitcast %struct._ZN3MPI8DatatypeE*  %2 to i8*, !dbg !3310
	call void  @_ZdlPvm (i8*  %4, i64 16) nounwind, !dbg !3310
	ret void, !dbg !3310
}
define linkonce_odr void @_ZN3MPI8DatatypeD2Ev(%struct._ZN3MPI8DatatypeE* %_T47727800_12165.arg) #0 inlinehint !dbg !3312 {
L.entry:
	%_T47727800_12165.addr = alloca %struct._ZN3MPI8DatatypeE*, align 8

	store %struct._ZN3MPI8DatatypeE* %_T47727800_12165.arg, %struct._ZN3MPI8DatatypeE** %_T47727800_12165.addr, align 8, !tbaa !2188
	%0 = bitcast [32 x i32 (...)* (...)*]* @_ZTVN3MPI8DatatypeE to i8*, !dbg !3320
	%1 = getelementptr i8, i8*  %0, i64 16, !dbg !3320
	%2 = load %struct._ZN3MPI8DatatypeE*, %struct._ZN3MPI8DatatypeE** %_T47727800_12165.addr, align 8, !tbaa !2188, !dbg !3320
	%3 = bitcast %struct._ZN3MPI8DatatypeE*  %2 to i8**, !dbg !3320
	store i8*  %1, i8**  %3, align 8, !tbaa !2188, !dbg !3320
	ret void, !dbg !3320
}
define linkonce_odr void @_ZN3MPI8DatatypeC1EP15ompi_datatype_t(%struct._ZN3MPI8DatatypeE* %_T47727800_12167.arg, %struct.ompi_datatype_t* %i.arg) #0 inlinehint !dbg !3324 {
L.entry:
	%_T47727800_12167.addr = alloca %struct._ZN3MPI8DatatypeE*, align 8
	%i.addr = alloca %struct.ompi_datatype_t*, align 8

	call void @llvm.dbg.declare (metadata %struct._ZN3MPI8DatatypeE** %_T47727800_12167.addr, metadata !3328, metadata !2164), !dbg !3325
	store %struct._ZN3MPI8DatatypeE* %_T47727800_12167.arg, %struct._ZN3MPI8DatatypeE** %_T47727800_12167.addr, align 8, !tbaa !2188
	call void @llvm.dbg.declare (metadata %struct._ZN3MPI8DatatypeE** %_T47727800_12167.addr, metadata !3329, metadata !2164), !dbg !3325
	call void @llvm.dbg.declare (metadata %struct.ompi_datatype_t** %i.addr, metadata !3330, metadata !2164), !dbg !3325
	store %struct.ompi_datatype_t* %i.arg, %struct.ompi_datatype_t** %i.addr, align 8, !tbaa !2188
	call void @llvm.dbg.declare (metadata %struct.ompi_datatype_t** %i.addr, metadata !3331, metadata !2164), !dbg !3325
	%0 = bitcast [32 x i32 (...)* (...)*]* @_ZTVN3MPI8DatatypeE to i8*, !dbg !3332
	%1 = getelementptr i8, i8*  %0, i64 16, !dbg !3332
	%2 = load %struct._ZN3MPI8DatatypeE*, %struct._ZN3MPI8DatatypeE** %_T47727800_12167.addr, align 8, !tbaa !2188, !dbg !3332
	%3 = bitcast %struct._ZN3MPI8DatatypeE*  %2 to i8**, !dbg !3332
	store i8*  %1, i8**  %3, align 8, !tbaa !2188, !dbg !3332
	%4 = load %struct.ompi_datatype_t*, %struct.ompi_datatype_t** %i.addr, align 8, !tbaa !2188, !dbg !3332
	%5 = bitcast %struct.ompi_datatype_t*  %4 to i8*, !dbg !3332
	%6 = bitcast %struct._ZN3MPI8DatatypeE*  %2 to i8*, !dbg !3332
	%7 = getelementptr i8, i8*  %6, i64 8, !dbg !3332
	%8 = bitcast i8*  %7 to i8**, !dbg !3332
	store i8*  %5, i8**  %8, align 8, !tbaa !2188, !dbg !3332
	ret void, !dbg !3332
}
define linkonce_odr void @_ZN3MPI8DatatypeC2EP15ompi_datatype_t(%struct._ZN3MPI8DatatypeE* %_T47727800_12169.arg, %struct.ompi_datatype_t* %_T47728096_12169.arg) #0 inlinehint !dbg !3334 {
L.entry:
	%_T47727800_12169.addr = alloca %struct._ZN3MPI8DatatypeE*, align 8
	%_T47728096_12169.addr = alloca %struct.ompi_datatype_t*, align 8
	%..inline.addr = alloca %struct._ZN3MPI8DatatypeE*, align 8
	%..inline.addr.1 = alloca %struct.ompi_datatype_t*, align 8

	store %struct._ZN3MPI8DatatypeE* %_T47727800_12169.arg, %struct._ZN3MPI8DatatypeE** %_T47727800_12169.addr, align 8, !tbaa !2188
	store %struct.ompi_datatype_t* %_T47728096_12169.arg, %struct.ompi_datatype_t** %_T47728096_12169.addr, align 8, !tbaa !2188
	%0 = load %struct._ZN3MPI8DatatypeE*, %struct._ZN3MPI8DatatypeE** %_T47727800_12169.addr, align 8, !tbaa !2188, !dbg !3342
	%1 = bitcast %struct._ZN3MPI8DatatypeE*  %0 to i8*, !dbg !3342
	%2 = bitcast %struct._ZN3MPI8DatatypeE** %..inline.addr to i8**, !dbg !3342
	store i8*  %1, i8**  %2, align 8, !tbaa !2188, !dbg !3342
	%3 = load %struct.ompi_datatype_t*, %struct.ompi_datatype_t** %_T47728096_12169.addr, align 8, !tbaa !2188, !dbg !3342
	%4 = bitcast %struct.ompi_datatype_t*  %3 to i8*, !dbg !3342
	%5 = bitcast %struct.ompi_datatype_t** %..inline.addr.1 to i8**, !dbg !3342
	store i8*  %4, i8**  %5, align 8, !tbaa !2188, !dbg !3342
	%6 = bitcast [32 x i32 (...)* (...)*]* @_ZTVN3MPI8DatatypeE to i8*, !dbg !3342
	%7 = getelementptr i8, i8*  %6, i64 16, !dbg !3342
	%8 = load %struct._ZN3MPI8DatatypeE*, %struct._ZN3MPI8DatatypeE** %..inline.addr, align 8, !tbaa !2188, !dbg !3342
	%9 = bitcast %struct._ZN3MPI8DatatypeE*  %8 to i8**, !dbg !3342
	store i8*  %7, i8**  %9, align 8, !tbaa !2188, !dbg !3342
	%10 = load %struct.ompi_datatype_t*, %struct.ompi_datatype_t** %..inline.addr.1, align 8, !tbaa !2188, !dbg !3342
	%11 = bitcast %struct.ompi_datatype_t*  %10 to i8*, !dbg !3342
	%12 = bitcast %struct._ZN3MPI8DatatypeE*  %8 to i8*, !dbg !3342
	%13 = getelementptr i8, i8*  %12, i64 8, !dbg !3342
	%14 = bitcast i8*  %13 to i8**, !dbg !3342
	store i8*  %11, i8**  %14, align 8, !tbaa !2188, !dbg !3342
	ret void, !dbg !3342
}
define linkonce_odr %struct._ZN3MPI8DatatypeE* @_ZN3MPI8DatatypeaSERKP15ompi_datatype_t(%struct._ZN3MPI8DatatypeE* %_T47727800_12170.arg, %struct.ompi_datatype_t** %i.arg) #0 inlinehint !dbg !3350 {
L.entry:
	%_T47727800_12170.addr = alloca %struct._ZN3MPI8DatatypeE*, align 8
	%i.addr = alloca %struct.ompi_datatype_t**, align 8

	call void @llvm.dbg.declare (metadata %struct._ZN3MPI8DatatypeE** %_T47727800_12170.addr, metadata !3354, metadata !2164), !dbg !3351
	store %struct._ZN3MPI8DatatypeE* %_T47727800_12170.arg, %struct._ZN3MPI8DatatypeE** %_T47727800_12170.addr, align 8, !tbaa !2188
	call void @llvm.dbg.declare (metadata %struct._ZN3MPI8DatatypeE** %_T47727800_12170.addr, metadata !3355, metadata !2164), !dbg !3351
	call void @llvm.dbg.declare (metadata %struct.ompi_datatype_t*** %i.addr, metadata !3356, metadata !2164), !dbg !3351
	store %struct.ompi_datatype_t** %i.arg, %struct.ompi_datatype_t*** %i.addr, align 8, !tbaa !2188
	call void @llvm.dbg.declare (metadata %struct.ompi_datatype_t*** %i.addr, metadata !3357, metadata !2164), !dbg !3351
	%0 = load %struct.ompi_datatype_t**, %struct.ompi_datatype_t*** %i.addr, align 8, !tbaa !2188, !dbg !3358
	%1 = bitcast %struct.ompi_datatype_t**  %0 to i8**, !dbg !3358
	%2 = load i8*, i8**  %1, align 8, !tbaa !2188, !dbg !3358
	%3 = load %struct._ZN3MPI8DatatypeE*, %struct._ZN3MPI8DatatypeE** %_T47727800_12170.addr, align 8, !tbaa !2188, !dbg !3358
	%4 = bitcast %struct._ZN3MPI8DatatypeE*  %3 to i8*, !dbg !3358
	%5 = getelementptr i8, i8*  %4, i64 8, !dbg !3358
	%6 = bitcast i8*  %5 to i8**, !dbg !3358
	store i8*  %2, i8**  %6, align 8, !tbaa !2188, !dbg !3358
	ret %struct._ZN3MPI8DatatypeE*  %3, !dbg !3358
}
define linkonce_odr %struct.ompi_datatype_t* @_ZNK3MPI8DatatypecvP15ompi_datatype_tEv(%struct._ZN3MPI8DatatypeE* %_T47727800_12172.arg) #0 inlinehint !dbg !3362 {
L.entry:
	%_T47727800_12172.addr = alloca %struct._ZN3MPI8DatatypeE*, align 8

	call void @llvm.dbg.declare (metadata %struct._ZN3MPI8DatatypeE** %_T47727800_12172.addr, metadata !3366, metadata !2164), !dbg !3363
	store %struct._ZN3MPI8DatatypeE* %_T47727800_12172.arg, %struct._ZN3MPI8DatatypeE** %_T47727800_12172.addr, align 8, !tbaa !2188
	call void @llvm.dbg.declare (metadata %struct._ZN3MPI8DatatypeE** %_T47727800_12172.addr, metadata !3367, metadata !2164), !dbg !3363
	%0 = load %struct._ZN3MPI8DatatypeE*, %struct._ZN3MPI8DatatypeE** %_T47727800_12172.addr, align 8, !tbaa !2188, !dbg !3368
	%1 = bitcast %struct._ZN3MPI8DatatypeE*  %0 to i8*, !dbg !3368
	%2 = getelementptr i8, i8*  %1, i64 8, !dbg !3368
	%3 = bitcast i8*  %2 to %struct.ompi_datatype_t**, !dbg !3368
	%4 = load %struct.ompi_datatype_t*, %struct.ompi_datatype_t**  %3, align 8, !tbaa !2188, !dbg !3368
	ret %struct.ompi_datatype_t*  %4, !dbg !3368
}
define linkonce_odr void @_ZNK3MPI8Datatype17Create_contiguousEi(%struct._ZN3MPI8DatatypeE* sret %_T47727800_12173.arg, %struct._ZN3MPI8DatatypeE* %_T47728096_12173.arg, i32 signext %count.arg) #0 inlinehint !dbg !3372 {
L.entry:
	%_T47727800_12173.addr = alloca %struct._ZN3MPI8DatatypeE*, align 8
	%_T47728096_12173.addr = alloca %struct._ZN3MPI8DatatypeE*, align 8
	%count.addr = alloca i32, align 4
	%newtype.addr = alloca %struct.ompi_datatype_t*, align 8
	%..inline.addr = alloca %struct._ZN3MPI8DatatypeE*, align 8
	%..inline.addr.1 = alloca %struct.ompi_datatype_t*, align 8

	store %struct._ZN3MPI8DatatypeE* %_T47727800_12173.arg, %struct._ZN3MPI8DatatypeE** %_T47727800_12173.addr, align 8, !tbaa !2188
	call void @llvm.dbg.declare (metadata %struct._ZN3MPI8DatatypeE** %_T47728096_12173.addr, metadata !3380, metadata !2164), !dbg !3373
	store %struct._ZN3MPI8DatatypeE* %_T47728096_12173.arg, %struct._ZN3MPI8DatatypeE** %_T47728096_12173.addr, align 8, !tbaa !2188
	call void @llvm.dbg.declare (metadata %struct._ZN3MPI8DatatypeE** %_T47728096_12173.addr, metadata !3381, metadata !2164), !dbg !3373
	call void @llvm.dbg.declare (metadata i32* %count.addr, metadata !3382, metadata !2164), !dbg !3373
	store i32 %count.arg, i32* %count.addr, align 4, !tbaa !2332
	call void @llvm.dbg.declare (metadata i32* %count.addr, metadata !3383, metadata !2164), !dbg !3373
	%0 = load i32, i32* %count.addr, align 4, !tbaa !2190, !dbg !3384
	%1 = load %struct._ZN3MPI8DatatypeE*, %struct._ZN3MPI8DatatypeE** %_T47728096_12173.addr, align 8, !tbaa !2188, !dbg !3384
	%2 = bitcast %struct._ZN3MPI8DatatypeE*  %1 to i8*, !dbg !3384
	%3 = getelementptr i8, i8*  %2, i64 8, !dbg !3384
	%4 = bitcast i8*  %3 to %struct.ompi_datatype_t**, !dbg !3384
	%5 = load %struct.ompi_datatype_t*, %struct.ompi_datatype_t**  %4, align 8, !tbaa !2188, !dbg !3384
	call void @llvm.dbg.declare (metadata %struct.ompi_datatype_t** %newtype.addr, metadata !3385, metadata !2164), !dbg !3373
	%6 = call i32  @MPI_Type_contiguous (i32  %0, %struct.ompi_datatype_t*  %5, %struct.ompi_datatype_t** %newtype.addr) nounwind, !dbg !3384
	%7 = load %struct._ZN3MPI8DatatypeE*, %struct._ZN3MPI8DatatypeE** %_T47727800_12173.addr, align 8, !tbaa !2188, !dbg !3386
	%8 = bitcast %struct._ZN3MPI8DatatypeE*  %7 to i8*, !dbg !3386
	%9 = bitcast %struct._ZN3MPI8DatatypeE** %..inline.addr to i8**, !dbg !3386
	store i8*  %8, i8**  %9, align 8, !tbaa !2188, !dbg !3386
	%10 = load %struct.ompi_datatype_t*, %struct.ompi_datatype_t** %newtype.addr, align 8, !tbaa !2188, !dbg !3386
	%11 = bitcast %struct.ompi_datatype_t*  %10 to i8*, !dbg !3386
	%12 = bitcast %struct.ompi_datatype_t** %..inline.addr.1 to i8**, !dbg !3386
	store i8*  %11, i8**  %12, align 8, !tbaa !2188, !dbg !3386
	%13 = bitcast [32 x i32 (...)* (...)*]* @_ZTVN3MPI8DatatypeE to i8*, !dbg !3386
	%14 = getelementptr i8, i8*  %13, i64 16, !dbg !3386
	%15 = load %struct._ZN3MPI8DatatypeE*, %struct._ZN3MPI8DatatypeE** %..inline.addr, align 8, !tbaa !2188, !dbg !3386
	%16 = bitcast %struct._ZN3MPI8DatatypeE*  %15 to i8**, !dbg !3386
	store i8*  %14, i8**  %16, align 8, !tbaa !2188, !dbg !3386
	%17 = load %struct.ompi_datatype_t*, %struct.ompi_datatype_t** %..inline.addr.1, align 8, !tbaa !2188, !dbg !3387
	%18 = bitcast %struct.ompi_datatype_t*  %17 to i8*, !dbg !3387
	%19 = bitcast %struct._ZN3MPI8DatatypeE*  %15 to i8*, !dbg !3387
	%20 = getelementptr i8, i8*  %19, i64 8, !dbg !3387
	%21 = bitcast i8*  %20 to i8**, !dbg !3387
	store i8*  %18, i8**  %21, align 8, !tbaa !2188, !dbg !3387
	ret void, !dbg !3388
}
define linkonce_odr void @_ZNK3MPI8Datatype13Create_vectorEiii(%struct._ZN3MPI8DatatypeE* sret %_T47727800_12174.arg, %struct._ZN3MPI8DatatypeE* %_T47728096_12174.arg, i32 signext %count.arg, i32 signext %blocklength.arg, i32 signext %stride.arg) #0 inlinehint !dbg !3390 {
L.entry:
	%_T47727800_12174.addr = alloca %struct._ZN3MPI8DatatypeE*, align 8
	%_T47728096_12174.addr = alloca %struct._ZN3MPI8DatatypeE*, align 8
	%count.addr = alloca i32, align 4
	%blocklength.addr = alloca i32, align 4
	%stride.addr = alloca i32, align 4
	%newtype.addr = alloca %struct.ompi_datatype_t*, align 8
	%..inline.addr = alloca %struct._ZN3MPI8DatatypeE*, align 8
	%..inline.addr.1 = alloca %struct.ompi_datatype_t*, align 8

	store %struct._ZN3MPI8DatatypeE* %_T47727800_12174.arg, %struct._ZN3MPI8DatatypeE** %_T47727800_12174.addr, align 8, !tbaa !2188
	call void @llvm.dbg.declare (metadata %struct._ZN3MPI8DatatypeE** %_T47728096_12174.addr, metadata !3398, metadata !2164), !dbg !3391
	store %struct._ZN3MPI8DatatypeE* %_T47728096_12174.arg, %struct._ZN3MPI8DatatypeE** %_T47728096_12174.addr, align 8, !tbaa !2188
	call void @llvm.dbg.declare (metadata %struct._ZN3MPI8DatatypeE** %_T47728096_12174.addr, metadata !3399, metadata !2164), !dbg !3391
	call void @llvm.dbg.declare (metadata i32* %count.addr, metadata !3400, metadata !2164), !dbg !3391
	store i32 %count.arg, i32* %count.addr, align 4, !tbaa !2332
	call void @llvm.dbg.declare (metadata i32* %count.addr, metadata !3401, metadata !2164), !dbg !3391
	call void @llvm.dbg.declare (metadata i32* %blocklength.addr, metadata !3402, metadata !2164), !dbg !3391
	store i32 %blocklength.arg, i32* %blocklength.addr, align 4, !tbaa !2332
	call void @llvm.dbg.declare (metadata i32* %blocklength.addr, metadata !3403, metadata !2164), !dbg !3391
	call void @llvm.dbg.declare (metadata i32* %stride.addr, metadata !3404, metadata !2164), !dbg !3391
	store i32 %stride.arg, i32* %stride.addr, align 4, !tbaa !2332
	call void @llvm.dbg.declare (metadata i32* %stride.addr, metadata !3405, metadata !2164), !dbg !3391
	%0 = load i32, i32* %count.addr, align 4, !tbaa !2190, !dbg !3406
	%1 = load i32, i32* %blocklength.addr, align 4, !tbaa !2190, !dbg !3406
	%2 = load i32, i32* %stride.addr, align 4, !tbaa !2190, !dbg !3406
	%3 = load %struct._ZN3MPI8DatatypeE*, %struct._ZN3MPI8DatatypeE** %_T47728096_12174.addr, align 8, !tbaa !2188, !dbg !3406
	%4 = bitcast %struct._ZN3MPI8DatatypeE*  %3 to i8*, !dbg !3406
	%5 = getelementptr i8, i8*  %4, i64 8, !dbg !3406
	%6 = bitcast i8*  %5 to %struct.ompi_datatype_t**, !dbg !3406
	%7 = load %struct.ompi_datatype_t*, %struct.ompi_datatype_t**  %6, align 8, !tbaa !2188, !dbg !3406
	call void @llvm.dbg.declare (metadata %struct.ompi_datatype_t** %newtype.addr, metadata !3407, metadata !2164), !dbg !3391
	%8 = call i32  @MPI_Type_vector (i32  %0, i32  %1, i32  %2, %struct.ompi_datatype_t*  %7, %struct.ompi_datatype_t** %newtype.addr) nounwind, !dbg !3406
	%9 = load %struct._ZN3MPI8DatatypeE*, %struct._ZN3MPI8DatatypeE** %_T47727800_12174.addr, align 8, !tbaa !2188, !dbg !3408
	%10 = bitcast %struct._ZN3MPI8DatatypeE*  %9 to i8*, !dbg !3408
	%11 = bitcast %struct._ZN3MPI8DatatypeE** %..inline.addr to i8**, !dbg !3408
	store i8*  %10, i8**  %11, align 8, !tbaa !2188, !dbg !3408
	%12 = load %struct.ompi_datatype_t*, %struct.ompi_datatype_t** %newtype.addr, align 8, !tbaa !2188, !dbg !3408
	%13 = bitcast %struct.ompi_datatype_t*  %12 to i8*, !dbg !3408
	%14 = bitcast %struct.ompi_datatype_t** %..inline.addr.1 to i8**, !dbg !3408
	store i8*  %13, i8**  %14, align 8, !tbaa !2188, !dbg !3408
	%15 = bitcast [32 x i32 (...)* (...)*]* @_ZTVN3MPI8DatatypeE to i8*, !dbg !3408
	%16 = getelementptr i8, i8*  %15, i64 16, !dbg !3408
	%17 = load %struct._ZN3MPI8DatatypeE*, %struct._ZN3MPI8DatatypeE** %..inline.addr, align 8, !tbaa !2188, !dbg !3408
	%18 = bitcast %struct._ZN3MPI8DatatypeE*  %17 to i8**, !dbg !3408
	store i8*  %16, i8**  %18, align 8, !tbaa !2188, !dbg !3408
	%19 = load %struct.ompi_datatype_t*, %struct.ompi_datatype_t** %..inline.addr.1, align 8, !tbaa !2188, !dbg !3409
	%20 = bitcast %struct.ompi_datatype_t*  %19 to i8*, !dbg !3409
	%21 = bitcast %struct._ZN3MPI8DatatypeE*  %17 to i8*, !dbg !3409
	%22 = getelementptr i8, i8*  %21, i64 8, !dbg !3409
	%23 = bitcast i8*  %22 to i8**, !dbg !3409
	store i8*  %20, i8**  %23, align 8, !tbaa !2188, !dbg !3409
	ret void, !dbg !3410
}
define linkonce_odr void @_ZNK3MPI8Datatype14Create_indexedEiPKiS2_(%struct._ZN3MPI8DatatypeE* sret %_T47727800_12175.arg, %struct._ZN3MPI8DatatypeE* %_T47728096_12175.arg, i32 signext %count.arg, i32* %array_of_blocklengths.arg, i32* %array_of_displacements.arg) #0 inlinehint !dbg !3412 {
L.entry:
	%_T47727800_12175.addr = alloca %struct._ZN3MPI8DatatypeE*, align 8
	%_T47728096_12175.addr = alloca %struct._ZN3MPI8DatatypeE*, align 8
	%count.addr = alloca i32, align 4
	%array_of_blocklengths.addr = alloca i32*, align 8
	%array_of_displacements.addr = alloca i32*, align 8
	%newtype.addr = alloca %struct.ompi_datatype_t*, align 8
	%..inline.addr = alloca %struct._ZN3MPI8DatatypeE*, align 8
	%..inline.addr.1 = alloca %struct.ompi_datatype_t*, align 8

	store %struct._ZN3MPI8DatatypeE* %_T47727800_12175.arg, %struct._ZN3MPI8DatatypeE** %_T47727800_12175.addr, align 8, !tbaa !2188
	call void @llvm.dbg.declare (metadata %struct._ZN3MPI8DatatypeE** %_T47728096_12175.addr, metadata !3420, metadata !2164), !dbg !3413
	store %struct._ZN3MPI8DatatypeE* %_T47728096_12175.arg, %struct._ZN3MPI8DatatypeE** %_T47728096_12175.addr, align 8, !tbaa !2188
	call void @llvm.dbg.declare (metadata %struct._ZN3MPI8DatatypeE** %_T47728096_12175.addr, metadata !3421, metadata !2164), !dbg !3413
	call void @llvm.dbg.declare (metadata i32* %count.addr, metadata !3422, metadata !2164), !dbg !3413
	store i32 %count.arg, i32* %count.addr, align 4, !tbaa !2332
	call void @llvm.dbg.declare (metadata i32* %count.addr, metadata !3423, metadata !2164), !dbg !3413
	call void @llvm.dbg.declare (metadata i32** %array_of_blocklengths.addr, metadata !3424, metadata !2164), !dbg !3413
	store i32* %array_of_blocklengths.arg, i32** %array_of_blocklengths.addr, align 8, !tbaa !2188
	call void @llvm.dbg.declare (metadata i32** %array_of_blocklengths.addr, metadata !3425, metadata !2164), !dbg !3413
	call void @llvm.dbg.declare (metadata i32** %array_of_displacements.addr, metadata !3426, metadata !2164), !dbg !3413
	store i32* %array_of_displacements.arg, i32** %array_of_displacements.addr, align 8, !tbaa !2188
	call void @llvm.dbg.declare (metadata i32** %array_of_displacements.addr, metadata !3427, metadata !2164), !dbg !3413
	%0 = load i32, i32* %count.addr, align 4, !tbaa !2190, !dbg !3428
	%1 = load i32*, i32** %array_of_blocklengths.addr, align 8, !tbaa !2188, !dbg !3428
	%2 = load i32*, i32** %array_of_displacements.addr, align 8, !tbaa !2188, !dbg !3428
	%3 = load %struct._ZN3MPI8DatatypeE*, %struct._ZN3MPI8DatatypeE** %_T47728096_12175.addr, align 8, !tbaa !2188, !dbg !3428
	%4 = bitcast %struct._ZN3MPI8DatatypeE*  %3 to i8*, !dbg !3428
	%5 = getelementptr i8, i8*  %4, i64 8, !dbg !3428
	%6 = bitcast i8*  %5 to %struct.ompi_datatype_t**, !dbg !3428
	%7 = load %struct.ompi_datatype_t*, %struct.ompi_datatype_t**  %6, align 8, !tbaa !2188, !dbg !3428
	call void @llvm.dbg.declare (metadata %struct.ompi_datatype_t** %newtype.addr, metadata !3429, metadata !2164), !dbg !3413
	%8 = call i32  @MPI_Type_indexed (i32  %0, i32*  %1, i32*  %2, %struct.ompi_datatype_t*  %7, %struct.ompi_datatype_t** %newtype.addr) nounwind, !dbg !3428
	%9 = load %struct._ZN3MPI8DatatypeE*, %struct._ZN3MPI8DatatypeE** %_T47727800_12175.addr, align 8, !tbaa !2188, !dbg !3430
	%10 = bitcast %struct._ZN3MPI8DatatypeE*  %9 to i8*, !dbg !3430
	%11 = bitcast %struct._ZN3MPI8DatatypeE** %..inline.addr to i8**, !dbg !3430
	store i8*  %10, i8**  %11, align 8, !tbaa !2188, !dbg !3430
	%12 = load %struct.ompi_datatype_t*, %struct.ompi_datatype_t** %newtype.addr, align 8, !tbaa !2188, !dbg !3430
	%13 = bitcast %struct.ompi_datatype_t*  %12 to i8*, !dbg !3430
	%14 = bitcast %struct.ompi_datatype_t** %..inline.addr.1 to i8**, !dbg !3430
	store i8*  %13, i8**  %14, align 8, !tbaa !2188, !dbg !3430
	%15 = bitcast [32 x i32 (...)* (...)*]* @_ZTVN3MPI8DatatypeE to i8*, !dbg !3430
	%16 = getelementptr i8, i8*  %15, i64 16, !dbg !3430
	%17 = load %struct._ZN3MPI8DatatypeE*, %struct._ZN3MPI8DatatypeE** %..inline.addr, align 8, !tbaa !2188, !dbg !3430
	%18 = bitcast %struct._ZN3MPI8DatatypeE*  %17 to i8**, !dbg !3430
	store i8*  %16, i8**  %18, align 8, !tbaa !2188, !dbg !3430
	%19 = load %struct.ompi_datatype_t*, %struct.ompi_datatype_t** %..inline.addr.1, align 8, !tbaa !2188, !dbg !3431
	%20 = bitcast %struct.ompi_datatype_t*  %19 to i8*, !dbg !3431
	%21 = bitcast %struct._ZN3MPI8DatatypeE*  %17 to i8*, !dbg !3431
	%22 = getelementptr i8, i8*  %21, i64 8, !dbg !3431
	%23 = bitcast i8*  %22 to i8**, !dbg !3431
	store i8*  %20, i8**  %23, align 8, !tbaa !2188, !dbg !3431
	ret void, !dbg !3432
}
define linkonce_odr void @_ZNK3MPI8Datatype15Create_hindexedEiPKiPKl(%struct._ZN3MPI8DatatypeE* sret %_T47727800_12176.arg, %struct._ZN3MPI8DatatypeE* %_T47728096_12176.arg, i32 signext %count.arg, i32* %array_of_blocklengths.arg, i64* %array_of_displacements.arg) #0 inlinehint !dbg !3434 {
L.entry:
	%_T47727800_12176.addr = alloca %struct._ZN3MPI8DatatypeE*, align 8
	%_T47728096_12176.addr = alloca %struct._ZN3MPI8DatatypeE*, align 8
	%count.addr = alloca i32, align 4
	%array_of_blocklengths.addr = alloca i32*, align 8
	%array_of_displacements.addr = alloca i64*, align 8
	%newtype.addr = alloca %struct.ompi_datatype_t*, align 8
	%..inline.addr = alloca %struct._ZN3MPI8DatatypeE*, align 8
	%..inline.addr.1 = alloca %struct.ompi_datatype_t*, align 8

	store %struct._ZN3MPI8DatatypeE* %_T47727800_12176.arg, %struct._ZN3MPI8DatatypeE** %_T47727800_12176.addr, align 8, !tbaa !2188
	call void @llvm.dbg.declare (metadata %struct._ZN3MPI8DatatypeE** %_T47728096_12176.addr, metadata !3442, metadata !2164), !dbg !3435
	store %struct._ZN3MPI8DatatypeE* %_T47728096_12176.arg, %struct._ZN3MPI8DatatypeE** %_T47728096_12176.addr, align 8, !tbaa !2188
	call void @llvm.dbg.declare (metadata %struct._ZN3MPI8DatatypeE** %_T47728096_12176.addr, metadata !3443, metadata !2164), !dbg !3435
	call void @llvm.dbg.declare (metadata i32* %count.addr, metadata !3444, metadata !2164), !dbg !3435
	store i32 %count.arg, i32* %count.addr, align 4, !tbaa !2332
	call void @llvm.dbg.declare (metadata i32* %count.addr, metadata !3445, metadata !2164), !dbg !3435
	call void @llvm.dbg.declare (metadata i32** %array_of_blocklengths.addr, metadata !3446, metadata !2164), !dbg !3435
	store i32* %array_of_blocklengths.arg, i32** %array_of_blocklengths.addr, align 8, !tbaa !2188
	call void @llvm.dbg.declare (metadata i32** %array_of_blocklengths.addr, metadata !3447, metadata !2164), !dbg !3435
	call void @llvm.dbg.declare (metadata i64** %array_of_displacements.addr, metadata !3448, metadata !2164), !dbg !3435
	store i64* %array_of_displacements.arg, i64** %array_of_displacements.addr, align 8, !tbaa !2188
	call void @llvm.dbg.declare (metadata i64** %array_of_displacements.addr, metadata !3449, metadata !2164), !dbg !3435
	%0 = load i32, i32* %count.addr, align 4, !tbaa !2190, !dbg !3450
	%1 = load i32*, i32** %array_of_blocklengths.addr, align 8, !tbaa !2188, !dbg !3450
	%2 = load i64*, i64** %array_of_displacements.addr, align 8, !tbaa !2188, !dbg !3450
	%3 = load %struct._ZN3MPI8DatatypeE*, %struct._ZN3MPI8DatatypeE** %_T47728096_12176.addr, align 8, !tbaa !2188, !dbg !3450
	%4 = bitcast %struct._ZN3MPI8DatatypeE*  %3 to i8*, !dbg !3450
	%5 = getelementptr i8, i8*  %4, i64 8, !dbg !3450
	%6 = bitcast i8*  %5 to %struct.ompi_datatype_t**, !dbg !3450
	%7 = load %struct.ompi_datatype_t*, %struct.ompi_datatype_t**  %6, align 8, !tbaa !2188, !dbg !3450
	call void @llvm.dbg.declare (metadata %struct.ompi_datatype_t** %newtype.addr, metadata !3451, metadata !2164), !dbg !3435
	%8 = call i32  @MPI_Type_create_hindexed (i32  %0, i32*  %1, i64*  %2, %struct.ompi_datatype_t*  %7, %struct.ompi_datatype_t** %newtype.addr) nounwind, !dbg !3450
	%9 = load %struct._ZN3MPI8DatatypeE*, %struct._ZN3MPI8DatatypeE** %_T47727800_12176.addr, align 8, !tbaa !2188, !dbg !3452
	%10 = bitcast %struct._ZN3MPI8DatatypeE*  %9 to i8*, !dbg !3452
	%11 = bitcast %struct._ZN3MPI8DatatypeE** %..inline.addr to i8**, !dbg !3452
	store i8*  %10, i8**  %11, align 8, !tbaa !2188, !dbg !3452
	%12 = load %struct.ompi_datatype_t*, %struct.ompi_datatype_t** %newtype.addr, align 8, !tbaa !2188, !dbg !3452
	%13 = bitcast %struct.ompi_datatype_t*  %12 to i8*, !dbg !3452
	%14 = bitcast %struct.ompi_datatype_t** %..inline.addr.1 to i8**, !dbg !3452
	store i8*  %13, i8**  %14, align 8, !tbaa !2188, !dbg !3452
	%15 = bitcast [32 x i32 (...)* (...)*]* @_ZTVN3MPI8DatatypeE to i8*, !dbg !3452
	%16 = getelementptr i8, i8*  %15, i64 16, !dbg !3452
	%17 = load %struct._ZN3MPI8DatatypeE*, %struct._ZN3MPI8DatatypeE** %..inline.addr, align 8, !tbaa !2188, !dbg !3452
	%18 = bitcast %struct._ZN3MPI8DatatypeE*  %17 to i8**, !dbg !3452
	store i8*  %16, i8**  %18, align 8, !tbaa !2188, !dbg !3452
	%19 = load %struct.ompi_datatype_t*, %struct.ompi_datatype_t** %..inline.addr.1, align 8, !tbaa !2188, !dbg !3453
	%20 = bitcast %struct.ompi_datatype_t*  %19 to i8*, !dbg !3453
	%21 = bitcast %struct._ZN3MPI8DatatypeE*  %17 to i8*, !dbg !3453
	%22 = getelementptr i8, i8*  %21, i64 8, !dbg !3453
	%23 = bitcast i8*  %22 to i8**, !dbg !3453
	store i8*  %20, i8**  %23, align 8, !tbaa !2188, !dbg !3453
	ret void, !dbg !3454
}
define linkonce_odr void @_ZNK3MPI8Datatype14Create_hvectorEiil(%struct._ZN3MPI8DatatypeE* sret %_T47727800_12178.arg, %struct._ZN3MPI8DatatypeE* %_T47728096_12178.arg, i32 signext %count.arg, i32 signext %blocklength.arg, i64 %stride.arg) #0 inlinehint !dbg !3456 {
L.entry:
	%_T47727800_12178.addr = alloca %struct._ZN3MPI8DatatypeE*, align 8
	%_T47728096_12178.addr = alloca %struct._ZN3MPI8DatatypeE*, align 8
	%count.addr = alloca i32, align 4
	%blocklength.addr = alloca i32, align 4
	%stride.addr = alloca i64, align 8
	%newtype.addr = alloca %struct.ompi_datatype_t*, align 8
	%..inline.addr = alloca %struct._ZN3MPI8DatatypeE*, align 8
	%..inline.addr.1 = alloca %struct.ompi_datatype_t*, align 8

	store %struct._ZN3MPI8DatatypeE* %_T47727800_12178.arg, %struct._ZN3MPI8DatatypeE** %_T47727800_12178.addr, align 8, !tbaa !2188
	call void @llvm.dbg.declare (metadata %struct._ZN3MPI8DatatypeE** %_T47728096_12178.addr, metadata !3464, metadata !2164), !dbg !3457
	store %struct._ZN3MPI8DatatypeE* %_T47728096_12178.arg, %struct._ZN3MPI8DatatypeE** %_T47728096_12178.addr, align 8, !tbaa !2188
	call void @llvm.dbg.declare (metadata %struct._ZN3MPI8DatatypeE** %_T47728096_12178.addr, metadata !3465, metadata !2164), !dbg !3457
	call void @llvm.dbg.declare (metadata i32* %count.addr, metadata !3466, metadata !2164), !dbg !3457
	store i32 %count.arg, i32* %count.addr, align 4, !tbaa !2332
	call void @llvm.dbg.declare (metadata i32* %count.addr, metadata !3467, metadata !2164), !dbg !3457
	call void @llvm.dbg.declare (metadata i32* %blocklength.addr, metadata !3468, metadata !2164), !dbg !3457
	store i32 %blocklength.arg, i32* %blocklength.addr, align 4, !tbaa !2332
	call void @llvm.dbg.declare (metadata i32* %blocklength.addr, metadata !3469, metadata !2164), !dbg !3457
	call void @llvm.dbg.declare (metadata i64* %stride.addr, metadata !3470, metadata !2164), !dbg !3457
	store i64 %stride.arg, i64* %stride.addr, align 8, !tbaa !2332
	call void @llvm.dbg.declare (metadata i64* %stride.addr, metadata !3471, metadata !2164), !dbg !3457
	%0 = load i32, i32* %count.addr, align 4, !tbaa !2190, !dbg !3472
	%1 = load i32, i32* %blocklength.addr, align 4, !tbaa !2190, !dbg !3472
	%2 = load i64, i64* %stride.addr, align 8, !tbaa !2187, !dbg !3472
	%3 = load %struct._ZN3MPI8DatatypeE*, %struct._ZN3MPI8DatatypeE** %_T47728096_12178.addr, align 8, !tbaa !2188, !dbg !3472
	%4 = bitcast %struct._ZN3MPI8DatatypeE*  %3 to i8*, !dbg !3472
	%5 = getelementptr i8, i8*  %4, i64 8, !dbg !3472
	%6 = bitcast i8*  %5 to %struct.ompi_datatype_t**, !dbg !3472
	%7 = load %struct.ompi_datatype_t*, %struct.ompi_datatype_t**  %6, align 8, !tbaa !2188, !dbg !3472
	call void @llvm.dbg.declare (metadata %struct.ompi_datatype_t** %newtype.addr, metadata !3473, metadata !2164), !dbg !3457
	%8 = call i32  @MPI_Type_create_hvector (i32  %0, i32  %1, i64  %2, %struct.ompi_datatype_t*  %7, %struct.ompi_datatype_t** %newtype.addr) nounwind, !dbg !3472
	%9 = load %struct._ZN3MPI8DatatypeE*, %struct._ZN3MPI8DatatypeE** %_T47727800_12178.addr, align 8, !tbaa !2188, !dbg !3474
	%10 = bitcast %struct._ZN3MPI8DatatypeE*  %9 to i8*, !dbg !3474
	%11 = bitcast %struct._ZN3MPI8DatatypeE** %..inline.addr to i8**, !dbg !3474
	store i8*  %10, i8**  %11, align 8, !tbaa !2188, !dbg !3474
	%12 = load %struct.ompi_datatype_t*, %struct.ompi_datatype_t** %newtype.addr, align 8, !tbaa !2188, !dbg !3474
	%13 = bitcast %struct.ompi_datatype_t*  %12 to i8*, !dbg !3474
	%14 = bitcast %struct.ompi_datatype_t** %..inline.addr.1 to i8**, !dbg !3474
	store i8*  %13, i8**  %14, align 8, !tbaa !2188, !dbg !3474
	%15 = bitcast [32 x i32 (...)* (...)*]* @_ZTVN3MPI8DatatypeE to i8*, !dbg !3474
	%16 = getelementptr i8, i8*  %15, i64 16, !dbg !3474
	%17 = load %struct._ZN3MPI8DatatypeE*, %struct._ZN3MPI8DatatypeE** %..inline.addr, align 8, !tbaa !2188, !dbg !3474
	%18 = bitcast %struct._ZN3MPI8DatatypeE*  %17 to i8**, !dbg !3474
	store i8*  %16, i8**  %18, align 8, !tbaa !2188, !dbg !3474
	%19 = load %struct.ompi_datatype_t*, %struct.ompi_datatype_t** %..inline.addr.1, align 8, !tbaa !2188, !dbg !3475
	%20 = bitcast %struct.ompi_datatype_t*  %19 to i8*, !dbg !3475
	%21 = bitcast %struct._ZN3MPI8DatatypeE*  %17 to i8*, !dbg !3475
	%22 = getelementptr i8, i8*  %21, i64 8, !dbg !3475
	%23 = bitcast i8*  %22 to i8**, !dbg !3475
	store i8*  %20, i8**  %23, align 8, !tbaa !2188, !dbg !3475
	ret void, !dbg !3476
}
define linkonce_odr void @_ZNK3MPI8Datatype20Create_indexed_blockEiiPKi(%struct._ZN3MPI8DatatypeE* sret %_T47727800_12179.arg, %struct._ZN3MPI8DatatypeE* %_T47728096_12179.arg, i32 signext %count.arg, i32 signext %blocklength.arg, i32* %array_of_displacements.arg) #0 inlinehint !dbg !3478 {
L.entry:
	%_T47727800_12179.addr = alloca %struct._ZN3MPI8DatatypeE*, align 8
	%_T47728096_12179.addr = alloca %struct._ZN3MPI8DatatypeE*, align 8
	%count.addr = alloca i32, align 4
	%blocklength.addr = alloca i32, align 4
	%array_of_displacements.addr = alloca i32*, align 8
	%newtype.addr = alloca %struct.ompi_datatype_t*, align 8
	%..inline.addr = alloca %struct._ZN3MPI8DatatypeE*, align 8
	%..inline.addr.1 = alloca %struct.ompi_datatype_t*, align 8

	store %struct._ZN3MPI8DatatypeE* %_T47727800_12179.arg, %struct._ZN3MPI8DatatypeE** %_T47727800_12179.addr, align 8, !tbaa !2188
	call void @llvm.dbg.declare (metadata %struct._ZN3MPI8DatatypeE** %_T47728096_12179.addr, metadata !3486, metadata !2164), !dbg !3479
	store %struct._ZN3MPI8DatatypeE* %_T47728096_12179.arg, %struct._ZN3MPI8DatatypeE** %_T47728096_12179.addr, align 8, !tbaa !2188
	call void @llvm.dbg.declare (metadata %struct._ZN3MPI8DatatypeE** %_T47728096_12179.addr, metadata !3487, metadata !2164), !dbg !3479
	call void @llvm.dbg.declare (metadata i32* %count.addr, metadata !3488, metadata !2164), !dbg !3479
	store i32 %count.arg, i32* %count.addr, align 4, !tbaa !2332
	call void @llvm.dbg.declare (metadata i32* %count.addr, metadata !3489, metadata !2164), !dbg !3479
	call void @llvm.dbg.declare (metadata i32* %blocklength.addr, metadata !3490, metadata !2164), !dbg !3479
	store i32 %blocklength.arg, i32* %blocklength.addr, align 4, !tbaa !2332
	call void @llvm.dbg.declare (metadata i32* %blocklength.addr, metadata !3491, metadata !2164), !dbg !3479
	call void @llvm.dbg.declare (metadata i32** %array_of_displacements.addr, metadata !3492, metadata !2164), !dbg !3479
	store i32* %array_of_displacements.arg, i32** %array_of_displacements.addr, align 8, !tbaa !2188
	call void @llvm.dbg.declare (metadata i32** %array_of_displacements.addr, metadata !3493, metadata !2164), !dbg !3479
	%0 = load i32, i32* %count.addr, align 4, !tbaa !2190, !dbg !3494
	%1 = load i32, i32* %blocklength.addr, align 4, !tbaa !2190, !dbg !3494
	%2 = load i32*, i32** %array_of_displacements.addr, align 8, !tbaa !2188, !dbg !3494
	%3 = load %struct._ZN3MPI8DatatypeE*, %struct._ZN3MPI8DatatypeE** %_T47728096_12179.addr, align 8, !tbaa !2188, !dbg !3494
	%4 = bitcast %struct._ZN3MPI8DatatypeE*  %3 to i8*, !dbg !3494
	%5 = getelementptr i8, i8*  %4, i64 8, !dbg !3494
	%6 = bitcast i8*  %5 to %struct.ompi_datatype_t**, !dbg !3494
	%7 = load %struct.ompi_datatype_t*, %struct.ompi_datatype_t**  %6, align 8, !tbaa !2188, !dbg !3494
	call void @llvm.dbg.declare (metadata %struct.ompi_datatype_t** %newtype.addr, metadata !3495, metadata !2164), !dbg !3479
	%8 = call i32  @MPI_Type_create_indexed_block (i32  %0, i32  %1, i32*  %2, %struct.ompi_datatype_t*  %7, %struct.ompi_datatype_t** %newtype.addr) nounwind, !dbg !3494
	%9 = load %struct._ZN3MPI8DatatypeE*, %struct._ZN3MPI8DatatypeE** %_T47727800_12179.addr, align 8, !tbaa !2188, !dbg !3496
	%10 = bitcast %struct._ZN3MPI8DatatypeE*  %9 to i8*, !dbg !3496
	%11 = bitcast %struct._ZN3MPI8DatatypeE** %..inline.addr to i8**, !dbg !3496
	store i8*  %10, i8**  %11, align 8, !tbaa !2188, !dbg !3496
	%12 = load %struct.ompi_datatype_t*, %struct.ompi_datatype_t** %newtype.addr, align 8, !tbaa !2188, !dbg !3496
	%13 = bitcast %struct.ompi_datatype_t*  %12 to i8*, !dbg !3496
	%14 = bitcast %struct.ompi_datatype_t** %..inline.addr.1 to i8**, !dbg !3496
	store i8*  %13, i8**  %14, align 8, !tbaa !2188, !dbg !3496
	%15 = bitcast [32 x i32 (...)* (...)*]* @_ZTVN3MPI8DatatypeE to i8*, !dbg !3496
	%16 = getelementptr i8, i8*  %15, i64 16, !dbg !3496
	%17 = load %struct._ZN3MPI8DatatypeE*, %struct._ZN3MPI8DatatypeE** %..inline.addr, align 8, !tbaa !2188, !dbg !3496
	%18 = bitcast %struct._ZN3MPI8DatatypeE*  %17 to i8**, !dbg !3496
	store i8*  %16, i8**  %18, align 8, !tbaa !2188, !dbg !3496
	%19 = load %struct.ompi_datatype_t*, %struct.ompi_datatype_t** %..inline.addr.1, align 8, !tbaa !2188, !dbg !3497
	%20 = bitcast %struct.ompi_datatype_t*  %19 to i8*, !dbg !3497
	%21 = bitcast %struct._ZN3MPI8DatatypeE*  %17 to i8*, !dbg !3497
	%22 = getelementptr i8, i8*  %21, i64 8, !dbg !3497
	%23 = bitcast i8*  %22 to i8**, !dbg !3497
	store i8*  %20, i8**  %23, align 8, !tbaa !2188, !dbg !3497
	ret void, !dbg !3498
}
define linkonce_odr void @_ZNK3MPI8Datatype14Create_resizedEll(%struct._ZN3MPI8DatatypeE* sret %_T47727800_12182.arg, %struct._ZN3MPI8DatatypeE* %_T47728096_12182.arg, i64 %lb.arg, i64 %extent.arg) #0 inlinehint !dbg !3500 {
L.entry:
	%_T47727800_12182.addr = alloca %struct._ZN3MPI8DatatypeE*, align 8
	%_T47728096_12182.addr = alloca %struct._ZN3MPI8DatatypeE*, align 8
	%lb.addr = alloca i64, align 8
	%extent.addr = alloca i64, align 8
	%newtype.addr = alloca %struct.ompi_datatype_t*, align 8
	%..inline.addr = alloca %struct._ZN3MPI8DatatypeE*, align 8
	%..inline.addr.1 = alloca %struct.ompi_datatype_t*, align 8

	store %struct._ZN3MPI8DatatypeE* %_T47727800_12182.arg, %struct._ZN3MPI8DatatypeE** %_T47727800_12182.addr, align 8, !tbaa !2188
	call void @llvm.dbg.declare (metadata %struct._ZN3MPI8DatatypeE** %_T47728096_12182.addr, metadata !3508, metadata !2164), !dbg !3501
	store %struct._ZN3MPI8DatatypeE* %_T47728096_12182.arg, %struct._ZN3MPI8DatatypeE** %_T47728096_12182.addr, align 8, !tbaa !2188
	call void @llvm.dbg.declare (metadata %struct._ZN3MPI8DatatypeE** %_T47728096_12182.addr, metadata !3509, metadata !2164), !dbg !3501
	call void @llvm.dbg.declare (metadata i64* %lb.addr, metadata !3510, metadata !2164), !dbg !3501
	store i64 %lb.arg, i64* %lb.addr, align 8, !tbaa !2332
	call void @llvm.dbg.declare (metadata i64* %lb.addr, metadata !3511, metadata !2164), !dbg !3501
	call void @llvm.dbg.declare (metadata i64* %extent.addr, metadata !3512, metadata !2164), !dbg !3501
	store i64 %extent.arg, i64* %extent.addr, align 8, !tbaa !2332
	call void @llvm.dbg.declare (metadata i64* %extent.addr, metadata !3513, metadata !2164), !dbg !3501
	%0 = load %struct._ZN3MPI8DatatypeE*, %struct._ZN3MPI8DatatypeE** %_T47728096_12182.addr, align 8, !tbaa !2188, !dbg !3514
	%1 = bitcast %struct._ZN3MPI8DatatypeE*  %0 to i8*, !dbg !3514
	%2 = getelementptr i8, i8*  %1, i64 8, !dbg !3514
	%3 = bitcast i8*  %2 to %struct.ompi_datatype_t**, !dbg !3514
	%4 = load %struct.ompi_datatype_t*, %struct.ompi_datatype_t**  %3, align 8, !tbaa !2188, !dbg !3514
	%5 = load i64, i64* %lb.addr, align 8, !tbaa !2187, !dbg !3514
	%6 = load i64, i64* %extent.addr, align 8, !tbaa !2187, !dbg !3514
	call void @llvm.dbg.declare (metadata %struct.ompi_datatype_t** %newtype.addr, metadata !3515, metadata !2164), !dbg !3501
	%7 = call i32  @MPI_Type_create_resized (%struct.ompi_datatype_t*  %4, i64  %5, i64  %6, %struct.ompi_datatype_t** %newtype.addr) nounwind, !dbg !3514
	%8 = load %struct._ZN3MPI8DatatypeE*, %struct._ZN3MPI8DatatypeE** %_T47727800_12182.addr, align 8, !tbaa !2188, !dbg !3516
	%9 = bitcast %struct._ZN3MPI8DatatypeE*  %8 to i8*, !dbg !3516
	%10 = bitcast %struct._ZN3MPI8DatatypeE** %..inline.addr to i8**, !dbg !3516
	store i8*  %9, i8**  %10, align 8, !tbaa !2188, !dbg !3516
	%11 = load %struct.ompi_datatype_t*, %struct.ompi_datatype_t** %newtype.addr, align 8, !tbaa !2188, !dbg !3516
	%12 = bitcast %struct.ompi_datatype_t*  %11 to i8*, !dbg !3516
	%13 = bitcast %struct.ompi_datatype_t** %..inline.addr.1 to i8**, !dbg !3516
	store i8*  %12, i8**  %13, align 8, !tbaa !2188, !dbg !3516
	%14 = bitcast [32 x i32 (...)* (...)*]* @_ZTVN3MPI8DatatypeE to i8*, !dbg !3516
	%15 = getelementptr i8, i8*  %14, i64 16, !dbg !3516
	%16 = load %struct._ZN3MPI8DatatypeE*, %struct._ZN3MPI8DatatypeE** %..inline.addr, align 8, !tbaa !2188, !dbg !3516
	%17 = bitcast %struct._ZN3MPI8DatatypeE*  %16 to i8**, !dbg !3516
	store i8*  %15, i8**  %17, align 8, !tbaa !2188, !dbg !3516
	%18 = load %struct.ompi_datatype_t*, %struct.ompi_datatype_t** %..inline.addr.1, align 8, !tbaa !2188, !dbg !3517
	%19 = bitcast %struct.ompi_datatype_t*  %18 to i8*, !dbg !3517
	%20 = bitcast %struct._ZN3MPI8DatatypeE*  %16 to i8*, !dbg !3517
	%21 = getelementptr i8, i8*  %20, i64 8, !dbg !3517
	%22 = bitcast i8*  %21 to i8**, !dbg !3517
	store i8*  %19, i8**  %22, align 8, !tbaa !2188, !dbg !3517
	ret void, !dbg !3518
}
define linkonce_odr signext i32 @_ZNK3MPI8Datatype8Get_sizeEv(%struct._ZN3MPI8DatatypeE* %_T47727800_12183.arg) #0 inlinehint !dbg !3520 {
L.entry:
	%_T47727800_12183.addr = alloca %struct._ZN3MPI8DatatypeE*, align 8
	%size.addr = alloca i32, align 4

	call void @llvm.dbg.declare (metadata %struct._ZN3MPI8DatatypeE** %_T47727800_12183.addr, metadata !3524, metadata !2164), !dbg !3521
	store %struct._ZN3MPI8DatatypeE* %_T47727800_12183.arg, %struct._ZN3MPI8DatatypeE** %_T47727800_12183.addr, align 8, !tbaa !2188
	call void @llvm.dbg.declare (metadata %struct._ZN3MPI8DatatypeE** %_T47727800_12183.addr, metadata !3525, metadata !2164), !dbg !3521
	%0 = load %struct._ZN3MPI8DatatypeE*, %struct._ZN3MPI8DatatypeE** %_T47727800_12183.addr, align 8, !tbaa !2188, !dbg !3526
	%1 = bitcast %struct._ZN3MPI8DatatypeE*  %0 to i8*, !dbg !3526
	%2 = getelementptr i8, i8*  %1, i64 8, !dbg !3526
	%3 = bitcast i8*  %2 to %struct.ompi_datatype_t**, !dbg !3526
	%4 = load %struct.ompi_datatype_t*, %struct.ompi_datatype_t**  %3, align 8, !tbaa !2188, !dbg !3526
	call void @llvm.dbg.declare (metadata i32* %size.addr, metadata !3527, metadata !2164), !dbg !3521
	%5 = call i32  @MPI_Type_size (%struct.ompi_datatype_t*  %4, i32* %size.addr) nounwind, !dbg !3526
	%6 = load i32, i32* %size.addr, align 4, !tbaa !2190, !dbg !3528
	ret i32  %6, !dbg !3528
}
define linkonce_odr void @_ZNK3MPI8Datatype10Get_extentERlS1_(%struct._ZN3MPI8DatatypeE* %_T47727800_12184.arg, i64* %lb.arg, i64* %extent.arg) #0 inlinehint !dbg !3531 {
L.entry:
	%_T47727800_12184.addr = alloca %struct._ZN3MPI8DatatypeE*, align 8
	%lb.addr = alloca i64*, align 8
	%extent.addr = alloca i64*, align 8

	call void @llvm.dbg.declare (metadata %struct._ZN3MPI8DatatypeE** %_T47727800_12184.addr, metadata !3535, metadata !2164), !dbg !3532
	store %struct._ZN3MPI8DatatypeE* %_T47727800_12184.arg, %struct._ZN3MPI8DatatypeE** %_T47727800_12184.addr, align 8, !tbaa !2188
	call void @llvm.dbg.declare (metadata %struct._ZN3MPI8DatatypeE** %_T47727800_12184.addr, metadata !3536, metadata !2164), !dbg !3532
	call void @llvm.dbg.declare (metadata i64** %lb.addr, metadata !3537, metadata !2164), !dbg !3532
	store i64* %lb.arg, i64** %lb.addr, align 8, !tbaa !2188
	call void @llvm.dbg.declare (metadata i64** %lb.addr, metadata !3538, metadata !2164), !dbg !3532
	call void @llvm.dbg.declare (metadata i64** %extent.addr, metadata !3539, metadata !2164), !dbg !3532
	store i64* %extent.arg, i64** %extent.addr, align 8, !tbaa !2188
	call void @llvm.dbg.declare (metadata i64** %extent.addr, metadata !3540, metadata !2164), !dbg !3532
	%0 = load %struct._ZN3MPI8DatatypeE*, %struct._ZN3MPI8DatatypeE** %_T47727800_12184.addr, align 8, !tbaa !2188, !dbg !3541
	%1 = bitcast %struct._ZN3MPI8DatatypeE*  %0 to i8*, !dbg !3541
	%2 = getelementptr i8, i8*  %1, i64 8, !dbg !3541
	%3 = bitcast i8*  %2 to %struct.ompi_datatype_t**, !dbg !3541
	%4 = load %struct.ompi_datatype_t*, %struct.ompi_datatype_t**  %3, align 8, !tbaa !2188, !dbg !3541
	%5 = load i64*, i64** %lb.addr, align 8, !tbaa !2188, !dbg !3541
	%6 = load i64*, i64** %extent.addr, align 8, !tbaa !2188, !dbg !3541
	%7 = call i32  @MPI_Type_get_extent (%struct.ompi_datatype_t*  %4, i64*  %5, i64*  %6) nounwind, !dbg !3541
	ret void, !dbg !3542
}
define linkonce_odr void @_ZNK3MPI8Datatype15Get_true_extentERlS1_(%struct._ZN3MPI8DatatypeE* %_T47727800_12185.arg, i64* %lb.arg, i64* %extent.arg) #0 inlinehint !dbg !3544 {
L.entry:
	%_T47727800_12185.addr = alloca %struct._ZN3MPI8DatatypeE*, align 8
	%lb.addr = alloca i64*, align 8
	%extent.addr = alloca i64*, align 8

	call void @llvm.dbg.declare (metadata %struct._ZN3MPI8DatatypeE** %_T47727800_12185.addr, metadata !3548, metadata !2164), !dbg !3545
	store %struct._ZN3MPI8DatatypeE* %_T47727800_12185.arg, %struct._ZN3MPI8DatatypeE** %_T47727800_12185.addr, align 8, !tbaa !2188
	call void @llvm.dbg.declare (metadata %struct._ZN3MPI8DatatypeE** %_T47727800_12185.addr, metadata !3549, metadata !2164), !dbg !3545
	call void @llvm.dbg.declare (metadata i64** %lb.addr, metadata !3550, metadata !2164), !dbg !3545
	store i64* %lb.arg, i64** %lb.addr, align 8, !tbaa !2188
	call void @llvm.dbg.declare (metadata i64** %lb.addr, metadata !3551, metadata !2164), !dbg !3545
	call void @llvm.dbg.declare (metadata i64** %extent.addr, metadata !3552, metadata !2164), !dbg !3545
	store i64* %extent.arg, i64** %extent.addr, align 8, !tbaa !2188
	call void @llvm.dbg.declare (metadata i64** %extent.addr, metadata !3553, metadata !2164), !dbg !3545
	%0 = load %struct._ZN3MPI8DatatypeE*, %struct._ZN3MPI8DatatypeE** %_T47727800_12185.addr, align 8, !tbaa !2188, !dbg !3554
	%1 = bitcast %struct._ZN3MPI8DatatypeE*  %0 to i8*, !dbg !3554
	%2 = getelementptr i8, i8*  %1, i64 8, !dbg !3554
	%3 = bitcast i8*  %2 to %struct.ompi_datatype_t**, !dbg !3554
	%4 = load %struct.ompi_datatype_t*, %struct.ompi_datatype_t**  %3, align 8, !tbaa !2188, !dbg !3554
	%5 = load i64*, i64** %lb.addr, align 8, !tbaa !2188, !dbg !3554
	%6 = load i64*, i64** %extent.addr, align 8, !tbaa !2188, !dbg !3554
	%7 = call i32  @MPI_Type_get_true_extent (%struct.ompi_datatype_t*  %4, i64*  %5, i64*  %6) nounwind, !dbg !3554
	ret void, !dbg !3555
}
define linkonce_odr void @_ZN3MPI8Datatype6CommitEv(%struct._ZN3MPI8DatatypeE* %_T47727800_12186.arg) #0 inlinehint !dbg !3557 {
L.entry:
	%_T47727800_12186.addr = alloca %struct._ZN3MPI8DatatypeE*, align 8

	call void @llvm.dbg.declare (metadata %struct._ZN3MPI8DatatypeE** %_T47727800_12186.addr, metadata !3561, metadata !2164), !dbg !3558
	store %struct._ZN3MPI8DatatypeE* %_T47727800_12186.arg, %struct._ZN3MPI8DatatypeE** %_T47727800_12186.addr, align 8, !tbaa !2188
	call void @llvm.dbg.declare (metadata %struct._ZN3MPI8DatatypeE** %_T47727800_12186.addr, metadata !3562, metadata !2164), !dbg !3558
	%0 = load %struct._ZN3MPI8DatatypeE*, %struct._ZN3MPI8DatatypeE** %_T47727800_12186.addr, align 8, !tbaa !2188, !dbg !3563
	%1 = bitcast %struct._ZN3MPI8DatatypeE*  %0 to i8*, !dbg !3563
	%2 = getelementptr i8, i8*  %1, i64 8, !dbg !3563
	%3 = bitcast i8*  %2 to %struct.ompi_datatype_t**, !dbg !3563
	%4 = call i32  @MPI_Type_commit (%struct.ompi_datatype_t**  %3) nounwind, !dbg !3563
	ret void, !dbg !3564
}

%struct._ZN3MPI4CommE = type <{ %struct._ZN3MPI9Comm_NullE}> 
%struct._ZN3MPI9Comm_NullE = type <{ i32 (...)* (...)*, %struct.ompi_communicator_t*}> 

define linkonce_odr void @_ZNK3MPI8Datatype4PackEPKviPviRiRKNS_4CommE(%struct._ZN3MPI8DatatypeE* %_T47727800_12188.arg, i8* %inbuf.arg, i32 signext %incount.arg, i8* %outbuf.arg, i32 signext %outsize.arg, i32* %position.arg, %struct._ZN3MPI4CommE* %comm.arg) #0 inlinehint !dbg !3566 {
L.entry:
	%_T47727800_12188.addr = alloca %struct._ZN3MPI8DatatypeE*, align 8
	%inbuf.addr = alloca i8*, align 8
	%incount.addr = alloca i32, align 4
	%outbuf.addr = alloca i8*, align 8
	%outsize.addr = alloca i32, align 4
	%position.addr = alloca i32*, align 8
	%comm.addr = alloca %struct._ZN3MPI4CommE*, align 8
	%..inline.addr = alloca %struct._ZN3MPI9Comm_NullE*, align 8

	call void @llvm.dbg.declare (metadata %struct._ZN3MPI8DatatypeE** %_T47727800_12188.addr, metadata !3574, metadata !2164), !dbg !3567
	store %struct._ZN3MPI8DatatypeE* %_T47727800_12188.arg, %struct._ZN3MPI8DatatypeE** %_T47727800_12188.addr, align 8, !tbaa !2188
	call void @llvm.dbg.declare (metadata %struct._ZN3MPI8DatatypeE** %_T47727800_12188.addr, metadata !3575, metadata !2164), !dbg !3567
	call void @llvm.dbg.declare (metadata i8** %inbuf.addr, metadata !3576, metadata !2164), !dbg !3567
	store i8* %inbuf.arg, i8** %inbuf.addr, align 8, !tbaa !2188
	call void @llvm.dbg.declare (metadata i8** %inbuf.addr, metadata !3577, metadata !2164), !dbg !3567
	call void @llvm.dbg.declare (metadata i32* %incount.addr, metadata !3578, metadata !2164), !dbg !3567
	store i32 %incount.arg, i32* %incount.addr, align 4, !tbaa !2332
	call void @llvm.dbg.declare (metadata i32* %incount.addr, metadata !3579, metadata !2164), !dbg !3567
	call void @llvm.dbg.declare (metadata i8** %outbuf.addr, metadata !3580, metadata !2164), !dbg !3567
	store i8* %outbuf.arg, i8** %outbuf.addr, align 8, !tbaa !2188
	call void @llvm.dbg.declare (metadata i8** %outbuf.addr, metadata !3581, metadata !2164), !dbg !3567
	call void @llvm.dbg.declare (metadata i32* %outsize.addr, metadata !3582, metadata !2164), !dbg !3567
	store i32 %outsize.arg, i32* %outsize.addr, align 4, !tbaa !2332
	call void @llvm.dbg.declare (metadata i32* %outsize.addr, metadata !3583, metadata !2164), !dbg !3567
	call void @llvm.dbg.declare (metadata i32** %position.addr, metadata !3584, metadata !2164), !dbg !3567
	store i32* %position.arg, i32** %position.addr, align 8, !tbaa !2188
	call void @llvm.dbg.declare (metadata i32** %position.addr, metadata !3585, metadata !2164), !dbg !3567
	call void @llvm.dbg.declare (metadata %struct._ZN3MPI4CommE** %comm.addr, metadata !3586, metadata !2164), !dbg !3567
	store %struct._ZN3MPI4CommE* %comm.arg, %struct._ZN3MPI4CommE** %comm.addr, align 8, !tbaa !2188
	call void @llvm.dbg.declare (metadata %struct._ZN3MPI4CommE** %comm.addr, metadata !3587, metadata !2164), !dbg !3567
	%0 = load %struct._ZN3MPI4CommE*, %struct._ZN3MPI4CommE** %comm.addr, align 8, !tbaa !2188, !dbg !3588
	%1 = bitcast %struct._ZN3MPI4CommE*  %0 to i8*, !dbg !3588
	%2 = bitcast %struct._ZN3MPI9Comm_NullE** %..inline.addr to i8**, !dbg !3588
	store i8*  %1, i8**  %2, align 8, !tbaa !2188, !dbg !3588
	%3 = load i8*, i8** %inbuf.addr, align 8, !tbaa !2188, !dbg !3589
	%4 = load i32, i32* %incount.addr, align 4, !tbaa !2190, !dbg !3589
	%5 = load %struct._ZN3MPI8DatatypeE*, %struct._ZN3MPI8DatatypeE** %_T47727800_12188.addr, align 8, !tbaa !2188, !dbg !3589
	%6 = bitcast %struct._ZN3MPI8DatatypeE*  %5 to i8*, !dbg !3589
	%7 = getelementptr i8, i8*  %6, i64 8, !dbg !3589
	%8 = bitcast i8*  %7 to %struct.ompi_datatype_t**, !dbg !3589
	%9 = load %struct.ompi_datatype_t*, %struct.ompi_datatype_t**  %8, align 8, !tbaa !2188, !dbg !3589
	%10 = load i8*, i8** %outbuf.addr, align 8, !tbaa !2188, !dbg !3589
	%11 = load i32, i32* %outsize.addr, align 4, !tbaa !2190, !dbg !3589
	%12 = load i32*, i32** %position.addr, align 8, !tbaa !2188, !dbg !3589
	%13 = load %struct._ZN3MPI9Comm_NullE*, %struct._ZN3MPI9Comm_NullE** %..inline.addr, align 8, !tbaa !2188, !dbg !3589
	%14 = bitcast %struct._ZN3MPI9Comm_NullE*  %13 to i8*, !dbg !3589
	%15 = getelementptr i8, i8*  %14, i64 8, !dbg !3589
	%16 = bitcast i8*  %15 to %struct.ompi_communicator_t**, !dbg !3589
	%17 = load %struct.ompi_communicator_t*, %struct.ompi_communicator_t**  %16, align 8, !tbaa !2188, !dbg !3589
	%18 = call i32  @MPI_Pack (i8*  %3, i32  %4, %struct.ompi_datatype_t*  %9, i8*  %10, i32  %11, i32*  %12, %struct.ompi_communicator_t*  %17) nounwind, !dbg !3589
	ret void, !dbg !3590
}
define linkonce_odr void @_ZNK3MPI8Datatype6UnpackEPKviPviRiRKNS_4CommE(%struct._ZN3MPI8DatatypeE* %_T47727800_12189.arg, i8* %inbuf.arg, i32 signext %insize.arg, i8* %outbuf.arg, i32 signext %outcount.arg, i32* %position.arg, %struct._ZN3MPI4CommE* %comm.arg) #0 inlinehint !dbg !3592 {
L.entry:
	%_T47727800_12189.addr = alloca %struct._ZN3MPI8DatatypeE*, align 8
	%inbuf.addr = alloca i8*, align 8
	%insize.addr = alloca i32, align 4
	%outbuf.addr = alloca i8*, align 8
	%outcount.addr = alloca i32, align 4
	%position.addr = alloca i32*, align 8
	%comm.addr = alloca %struct._ZN3MPI4CommE*, align 8
	%..inline.addr = alloca %struct._ZN3MPI9Comm_NullE*, align 8

	call void @llvm.dbg.declare (metadata %struct._ZN3MPI8DatatypeE** %_T47727800_12189.addr, metadata !3600, metadata !2164), !dbg !3593
	store %struct._ZN3MPI8DatatypeE* %_T47727800_12189.arg, %struct._ZN3MPI8DatatypeE** %_T47727800_12189.addr, align 8, !tbaa !2188
	call void @llvm.dbg.declare (metadata %struct._ZN3MPI8DatatypeE** %_T47727800_12189.addr, metadata !3601, metadata !2164), !dbg !3593
	call void @llvm.dbg.declare (metadata i8** %inbuf.addr, metadata !3602, metadata !2164), !dbg !3593
	store i8* %inbuf.arg, i8** %inbuf.addr, align 8, !tbaa !2188
	call void @llvm.dbg.declare (metadata i8** %inbuf.addr, metadata !3603, metadata !2164), !dbg !3593
	call void @llvm.dbg.declare (metadata i32* %insize.addr, metadata !3604, metadata !2164), !dbg !3593
	store i32 %insize.arg, i32* %insize.addr, align 4, !tbaa !2332
	call void @llvm.dbg.declare (metadata i32* %insize.addr, metadata !3605, metadata !2164), !dbg !3593
	call void @llvm.dbg.declare (metadata i8** %outbuf.addr, metadata !3606, metadata !2164), !dbg !3593
	store i8* %outbuf.arg, i8** %outbuf.addr, align 8, !tbaa !2188
	call void @llvm.dbg.declare (metadata i8** %outbuf.addr, metadata !3607, metadata !2164), !dbg !3593
	call void @llvm.dbg.declare (metadata i32* %outcount.addr, metadata !3608, metadata !2164), !dbg !3593
	store i32 %outcount.arg, i32* %outcount.addr, align 4, !tbaa !2332
	call void @llvm.dbg.declare (metadata i32* %outcount.addr, metadata !3609, metadata !2164), !dbg !3593
	call void @llvm.dbg.declare (metadata i32** %position.addr, metadata !3610, metadata !2164), !dbg !3593
	store i32* %position.arg, i32** %position.addr, align 8, !tbaa !2188
	call void @llvm.dbg.declare (metadata i32** %position.addr, metadata !3611, metadata !2164), !dbg !3593
	call void @llvm.dbg.declare (metadata %struct._ZN3MPI4CommE** %comm.addr, metadata !3612, metadata !2164), !dbg !3593
	store %struct._ZN3MPI4CommE* %comm.arg, %struct._ZN3MPI4CommE** %comm.addr, align 8, !tbaa !2188
	call void @llvm.dbg.declare (metadata %struct._ZN3MPI4CommE** %comm.addr, metadata !3613, metadata !2164), !dbg !3593
	%0 = load %struct._ZN3MPI4CommE*, %struct._ZN3MPI4CommE** %comm.addr, align 8, !tbaa !2188, !dbg !3614
	%1 = bitcast %struct._ZN3MPI4CommE*  %0 to i8*, !dbg !3614
	%2 = bitcast %struct._ZN3MPI9Comm_NullE** %..inline.addr to i8**, !dbg !3614
	store i8*  %1, i8**  %2, align 8, !tbaa !2188, !dbg !3614
	%3 = load i8*, i8** %inbuf.addr, align 8, !tbaa !2188, !dbg !3615
	%4 = load i32, i32* %insize.addr, align 4, !tbaa !2190, !dbg !3615
	%5 = load i32*, i32** %position.addr, align 8, !tbaa !2188, !dbg !3615
	%6 = load i8*, i8** %outbuf.addr, align 8, !tbaa !2188, !dbg !3615
	%7 = load i32, i32* %outcount.addr, align 4, !tbaa !2190, !dbg !3615
	%8 = load %struct._ZN3MPI8DatatypeE*, %struct._ZN3MPI8DatatypeE** %_T47727800_12189.addr, align 8, !tbaa !2188, !dbg !3615
	%9 = bitcast %struct._ZN3MPI8DatatypeE*  %8 to i8*, !dbg !3615
	%10 = getelementptr i8, i8*  %9, i64 8, !dbg !3615
	%11 = bitcast i8*  %10 to %struct.ompi_datatype_t**, !dbg !3615
	%12 = load %struct.ompi_datatype_t*, %struct.ompi_datatype_t**  %11, align 8, !tbaa !2188, !dbg !3615
	%13 = load %struct._ZN3MPI9Comm_NullE*, %struct._ZN3MPI9Comm_NullE** %..inline.addr, align 8, !tbaa !2188, !dbg !3615
	%14 = bitcast %struct._ZN3MPI9Comm_NullE*  %13 to i8*, !dbg !3615
	%15 = getelementptr i8, i8*  %14, i64 8, !dbg !3615
	%16 = bitcast i8*  %15 to %struct.ompi_communicator_t**, !dbg !3615
	%17 = load %struct.ompi_communicator_t*, %struct.ompi_communicator_t**  %16, align 8, !tbaa !2188, !dbg !3615
	%18 = call i32  @MPI_Unpack (i8*  %3, i32  %4, i32*  %5, i8*  %6, i32  %7, %struct.ompi_datatype_t*  %12, %struct.ompi_communicator_t*  %17) nounwind, !dbg !3615
	ret void, !dbg !3616
}
define linkonce_odr signext i32 @_ZNK3MPI8Datatype9Pack_sizeEiRKNS_4CommE(%struct._ZN3MPI8DatatypeE* %_T47727800_12190.arg, i32 signext %incount.arg, %struct._ZN3MPI4CommE* %comm.arg) #0 inlinehint !dbg !3618 {
L.entry:
	%_T47727800_12190.addr = alloca %struct._ZN3MPI8DatatypeE*, align 8
	%incount.addr = alloca i32, align 4
	%comm.addr = alloca %struct._ZN3MPI4CommE*, align 8
	%..inline.addr = alloca %struct._ZN3MPI9Comm_NullE*, align 8
	%size.addr = alloca i32, align 4

	call void @llvm.dbg.declare (metadata %struct._ZN3MPI8DatatypeE** %_T47727800_12190.addr, metadata !3626, metadata !2164), !dbg !3619
	store %struct._ZN3MPI8DatatypeE* %_T47727800_12190.arg, %struct._ZN3MPI8DatatypeE** %_T47727800_12190.addr, align 8, !tbaa !2188
	call void @llvm.dbg.declare (metadata %struct._ZN3MPI8DatatypeE** %_T47727800_12190.addr, metadata !3627, metadata !2164), !dbg !3619
	call void @llvm.dbg.declare (metadata i32* %incount.addr, metadata !3628, metadata !2164), !dbg !3619
	store i32 %incount.arg, i32* %incount.addr, align 4, !tbaa !2332
	call void @llvm.dbg.declare (metadata i32* %incount.addr, metadata !3629, metadata !2164), !dbg !3619
	call void @llvm.dbg.declare (metadata %struct._ZN3MPI4CommE** %comm.addr, metadata !3630, metadata !2164), !dbg !3619
	store %struct._ZN3MPI4CommE* %comm.arg, %struct._ZN3MPI4CommE** %comm.addr, align 8, !tbaa !2188
	call void @llvm.dbg.declare (metadata %struct._ZN3MPI4CommE** %comm.addr, metadata !3631, metadata !2164), !dbg !3619
	%0 = load %struct._ZN3MPI4CommE*, %struct._ZN3MPI4CommE** %comm.addr, align 8, !tbaa !2188, !dbg !3632
	%1 = bitcast %struct._ZN3MPI4CommE*  %0 to i8*, !dbg !3632
	%2 = bitcast %struct._ZN3MPI9Comm_NullE** %..inline.addr to i8**, !dbg !3632
	store i8*  %1, i8**  %2, align 8, !tbaa !2188, !dbg !3632
	%3 = load i32, i32* %incount.addr, align 4, !tbaa !2190, !dbg !3633
	%4 = load %struct._ZN3MPI8DatatypeE*, %struct._ZN3MPI8DatatypeE** %_T47727800_12190.addr, align 8, !tbaa !2188, !dbg !3633
	%5 = bitcast %struct._ZN3MPI8DatatypeE*  %4 to i8*, !dbg !3633
	%6 = getelementptr i8, i8*  %5, i64 8, !dbg !3633
	%7 = bitcast i8*  %6 to %struct.ompi_datatype_t**, !dbg !3633
	%8 = load %struct.ompi_datatype_t*, %struct.ompi_datatype_t**  %7, align 8, !tbaa !2188, !dbg !3633
	%9 = load %struct._ZN3MPI9Comm_NullE*, %struct._ZN3MPI9Comm_NullE** %..inline.addr, align 8, !tbaa !2188, !dbg !3633
	%10 = bitcast %struct._ZN3MPI9Comm_NullE*  %9 to i8*, !dbg !3633
	%11 = getelementptr i8, i8*  %10, i64 8, !dbg !3633
	%12 = bitcast i8*  %11 to %struct.ompi_communicator_t**, !dbg !3633
	%13 = load %struct.ompi_communicator_t*, %struct.ompi_communicator_t**  %12, align 8, !tbaa !2188, !dbg !3633
	call void @llvm.dbg.declare (metadata i32* %size.addr, metadata !3634, metadata !2164), !dbg !3619
	%14 = call i32  @MPI_Pack_size (i32  %3, %struct.ompi_datatype_t*  %8, %struct.ompi_communicator_t*  %13, i32* %size.addr) nounwind, !dbg !3633
	%15 = load i32, i32* %size.addr, align 4, !tbaa !2190, !dbg !3635
	ret i32  %15, !dbg !3635
}
define linkonce_odr void @_ZNK3MPI8Datatype13Pack_externalEPKcPKviPvlRl(%struct._ZN3MPI8DatatypeE* %_T47727800_12192.arg, i8* %datarep.arg, i8* %inbuf.arg, i32 signext %incount.arg, i8* %outbuf.arg, i64 %outsize.arg, i64* %position.arg) #0 inlinehint !dbg !3638 {
L.entry:
	%_T47727800_12192.addr = alloca %struct._ZN3MPI8DatatypeE*, align 8
	%datarep.addr = alloca i8*, align 8
	%inbuf.addr = alloca i8*, align 8
	%incount.addr = alloca i32, align 4
	%outbuf.addr = alloca i8*, align 8
	%outsize.addr = alloca i64, align 8
	%position.addr = alloca i64*, align 8

	call void @llvm.dbg.declare (metadata %struct._ZN3MPI8DatatypeE** %_T47727800_12192.addr, metadata !3642, metadata !2164), !dbg !3639
	store %struct._ZN3MPI8DatatypeE* %_T47727800_12192.arg, %struct._ZN3MPI8DatatypeE** %_T47727800_12192.addr, align 8, !tbaa !2188
	call void @llvm.dbg.declare (metadata %struct._ZN3MPI8DatatypeE** %_T47727800_12192.addr, metadata !3643, metadata !2164), !dbg !3639
	call void @llvm.dbg.declare (metadata i8** %datarep.addr, metadata !3644, metadata !2164), !dbg !3639
	store i8* %datarep.arg, i8** %datarep.addr, align 8, !tbaa !2188
	call void @llvm.dbg.declare (metadata i8** %datarep.addr, metadata !3645, metadata !2164), !dbg !3639
	call void @llvm.dbg.declare (metadata i8** %inbuf.addr, metadata !3646, metadata !2164), !dbg !3639
	store i8* %inbuf.arg, i8** %inbuf.addr, align 8, !tbaa !2188
	call void @llvm.dbg.declare (metadata i8** %inbuf.addr, metadata !3647, metadata !2164), !dbg !3639
	call void @llvm.dbg.declare (metadata i32* %incount.addr, metadata !3648, metadata !2164), !dbg !3639
	store i32 %incount.arg, i32* %incount.addr, align 4, !tbaa !2332
	call void @llvm.dbg.declare (metadata i32* %incount.addr, metadata !3649, metadata !2164), !dbg !3639
	call void @llvm.dbg.declare (metadata i8** %outbuf.addr, metadata !3650, metadata !2164), !dbg !3639
	store i8* %outbuf.arg, i8** %outbuf.addr, align 8, !tbaa !2188
	call void @llvm.dbg.declare (metadata i8** %outbuf.addr, metadata !3651, metadata !2164), !dbg !3639
	call void @llvm.dbg.declare (metadata i64* %outsize.addr, metadata !3652, metadata !2164), !dbg !3639
	store i64 %outsize.arg, i64* %outsize.addr, align 8, !tbaa !2332
	call void @llvm.dbg.declare (metadata i64* %outsize.addr, metadata !3653, metadata !2164), !dbg !3639
	call void @llvm.dbg.declare (metadata i64** %position.addr, metadata !3654, metadata !2164), !dbg !3639
	store i64* %position.arg, i64** %position.addr, align 8, !tbaa !2188
	call void @llvm.dbg.declare (metadata i64** %position.addr, metadata !3655, metadata !2164), !dbg !3639
	%0 = load i8*, i8** %datarep.addr, align 8, !tbaa !2188, !dbg !3656
	%1 = load i8*, i8** %inbuf.addr, align 8, !tbaa !2188, !dbg !3656
	%2 = load i32, i32* %incount.addr, align 4, !tbaa !2190, !dbg !3656
	%3 = load %struct._ZN3MPI8DatatypeE*, %struct._ZN3MPI8DatatypeE** %_T47727800_12192.addr, align 8, !tbaa !2188, !dbg !3656
	%4 = bitcast %struct._ZN3MPI8DatatypeE*  %3 to i8*, !dbg !3656
	%5 = getelementptr i8, i8*  %4, i64 8, !dbg !3656
	%6 = bitcast i8*  %5 to %struct.ompi_datatype_t**, !dbg !3656
	%7 = load %struct.ompi_datatype_t*, %struct.ompi_datatype_t**  %6, align 8, !tbaa !2188, !dbg !3656
	%8 = load i8*, i8** %outbuf.addr, align 8, !tbaa !2188, !dbg !3656
	%9 = load i64, i64* %outsize.addr, align 8, !tbaa !2187, !dbg !3656
	%10 = load i64*, i64** %position.addr, align 8, !tbaa !2188, !dbg !3656
	%11 = call i32  @MPI_Pack_external (i8*  %0, i8*  %1, i32  %2, %struct.ompi_datatype_t*  %7, i8*  %8, i64  %9, i64*  %10) nounwind, !dbg !3656
	ret void, !dbg !3657
}
define linkonce_odr i64 @_ZNK3MPI8Datatype18Pack_external_sizeEPKci(%struct._ZN3MPI8DatatypeE* %_T47727800_12194.arg, i8* %datarep.arg, i32 signext %incount.arg) #0 inlinehint !dbg !3659 {
L.entry:
	%_T47727800_12194.addr = alloca %struct._ZN3MPI8DatatypeE*, align 8
	%datarep.addr = alloca i8*, align 8
	%incount.addr = alloca i32, align 4
	%addr.addr = alloca i64, align 8

	call void @llvm.dbg.declare (metadata %struct._ZN3MPI8DatatypeE** %_T47727800_12194.addr, metadata !3663, metadata !2164), !dbg !3660
	store %struct._ZN3MPI8DatatypeE* %_T47727800_12194.arg, %struct._ZN3MPI8DatatypeE** %_T47727800_12194.addr, align 8, !tbaa !2188
	call void @llvm.dbg.declare (metadata %struct._ZN3MPI8DatatypeE** %_T47727800_12194.addr, metadata !3664, metadata !2164), !dbg !3660
	call void @llvm.dbg.declare (metadata i8** %datarep.addr, metadata !3665, metadata !2164), !dbg !3660
	store i8* %datarep.arg, i8** %datarep.addr, align 8, !tbaa !2188
	call void @llvm.dbg.declare (metadata i8** %datarep.addr, metadata !3666, metadata !2164), !dbg !3660
	call void @llvm.dbg.declare (metadata i32* %incount.addr, metadata !3667, metadata !2164), !dbg !3660
	store i32 %incount.arg, i32* %incount.addr, align 4, !tbaa !2332
	call void @llvm.dbg.declare (metadata i32* %incount.addr, metadata !3668, metadata !2164), !dbg !3660
	%0 = load i8*, i8** %datarep.addr, align 8, !tbaa !2188, !dbg !3669
	%1 = load i32, i32* %incount.addr, align 4, !tbaa !2190, !dbg !3669
	%2 = load %struct._ZN3MPI8DatatypeE*, %struct._ZN3MPI8DatatypeE** %_T47727800_12194.addr, align 8, !tbaa !2188, !dbg !3669
	%3 = bitcast %struct._ZN3MPI8DatatypeE*  %2 to i8*, !dbg !3669
	%4 = getelementptr i8, i8*  %3, i64 8, !dbg !3669
	%5 = bitcast i8*  %4 to %struct.ompi_datatype_t**, !dbg !3669
	%6 = load %struct.ompi_datatype_t*, %struct.ompi_datatype_t**  %5, align 8, !tbaa !2188, !dbg !3669
	call void @llvm.dbg.declare (metadata i64* %addr.addr, metadata !3670, metadata !2164), !dbg !3660
	%7 = call i32  @MPI_Pack_external_size (i8*  %0, i32  %1, %struct.ompi_datatype_t*  %6, i64* %addr.addr) nounwind, !dbg !3669
	%8 = load i64, i64* %addr.addr, align 8, !tbaa !2187, !dbg !3671
	ret i64  %8, !dbg !3671
}
define linkonce_odr void @_ZNK3MPI8Datatype15Unpack_externalEPKcPKvlRlPvi(%struct._ZN3MPI8DatatypeE* %_T47727800_12196.arg, i8* %datarep.arg, i8* %inbuf.arg, i64 %insize.arg, i64* %position.arg, i8* %outbuf.arg, i32 signext %outcount.arg) #0 inlinehint !dbg !3674 {
L.entry:
	%_T47727800_12196.addr = alloca %struct._ZN3MPI8DatatypeE*, align 8
	%datarep.addr = alloca i8*, align 8
	%inbuf.addr = alloca i8*, align 8
	%insize.addr = alloca i64, align 8
	%position.addr = alloca i64*, align 8
	%outbuf.addr = alloca i8*, align 8
	%outcount.addr = alloca i32, align 4

	call void @llvm.dbg.declare (metadata %struct._ZN3MPI8DatatypeE** %_T47727800_12196.addr, metadata !3678, metadata !2164), !dbg !3675
	store %struct._ZN3MPI8DatatypeE* %_T47727800_12196.arg, %struct._ZN3MPI8DatatypeE** %_T47727800_12196.addr, align 8, !tbaa !2188
	call void @llvm.dbg.declare (metadata %struct._ZN3MPI8DatatypeE** %_T47727800_12196.addr, metadata !3679, metadata !2164), !dbg !3675
	call void @llvm.dbg.declare (metadata i8** %datarep.addr, metadata !3680, metadata !2164), !dbg !3675
	store i8* %datarep.arg, i8** %datarep.addr, align 8, !tbaa !2188
	call void @llvm.dbg.declare (metadata i8** %datarep.addr, metadata !3681, metadata !2164), !dbg !3675
	call void @llvm.dbg.declare (metadata i8** %inbuf.addr, metadata !3682, metadata !2164), !dbg !3675
	store i8* %inbuf.arg, i8** %inbuf.addr, align 8, !tbaa !2188
	call void @llvm.dbg.declare (metadata i8** %inbuf.addr, metadata !3683, metadata !2164), !dbg !3675
	call void @llvm.dbg.declare (metadata i64* %insize.addr, metadata !3684, metadata !2164), !dbg !3675
	store i64 %insize.arg, i64* %insize.addr, align 8, !tbaa !2332
	call void @llvm.dbg.declare (metadata i64* %insize.addr, metadata !3685, metadata !2164), !dbg !3675
	call void @llvm.dbg.declare (metadata i64** %position.addr, metadata !3686, metadata !2164), !dbg !3675
	store i64* %position.arg, i64** %position.addr, align 8, !tbaa !2188
	call void @llvm.dbg.declare (metadata i64** %position.addr, metadata !3687, metadata !2164), !dbg !3675
	call void @llvm.dbg.declare (metadata i8** %outbuf.addr, metadata !3688, metadata !2164), !dbg !3675
	store i8* %outbuf.arg, i8** %outbuf.addr, align 8, !tbaa !2188
	call void @llvm.dbg.declare (metadata i8** %outbuf.addr, metadata !3689, metadata !2164), !dbg !3675
	call void @llvm.dbg.declare (metadata i32* %outcount.addr, metadata !3690, metadata !2164), !dbg !3675
	store i32 %outcount.arg, i32* %outcount.addr, align 4, !tbaa !2332
	call void @llvm.dbg.declare (metadata i32* %outcount.addr, metadata !3691, metadata !2164), !dbg !3675
	%0 = load i8*, i8** %datarep.addr, align 8, !tbaa !2188, !dbg !3692
	%1 = load i8*, i8** %inbuf.addr, align 8, !tbaa !2188, !dbg !3692
	%2 = load i64, i64* %insize.addr, align 8, !tbaa !2187, !dbg !3692
	%3 = load i64*, i64** %position.addr, align 8, !tbaa !2188, !dbg !3692
	%4 = load i8*, i8** %outbuf.addr, align 8, !tbaa !2188, !dbg !3692
	%5 = load i32, i32* %outcount.addr, align 4, !tbaa !2190, !dbg !3692
	%6 = load %struct._ZN3MPI8DatatypeE*, %struct._ZN3MPI8DatatypeE** %_T47727800_12196.addr, align 8, !tbaa !2188, !dbg !3692
	%7 = bitcast %struct._ZN3MPI8DatatypeE*  %6 to i8*, !dbg !3692
	%8 = getelementptr i8, i8*  %7, i64 8, !dbg !3692
	%9 = bitcast i8*  %8 to %struct.ompi_datatype_t**, !dbg !3692
	%10 = load %struct.ompi_datatype_t*, %struct.ompi_datatype_t**  %9, align 8, !tbaa !2188, !dbg !3692
	%11 = call i32  @MPI_Unpack_external (i8*  %0, i8*  %1, i64  %2, i64*  %3, i8*  %4, i32  %5, %struct.ompi_datatype_t*  %10) nounwind, !dbg !3692
	ret void, !dbg !3693
}
define linkonce_odr void @_ZNK3MPI8Datatype15Create_subarrayEiPKiS2_S2_i(%struct._ZN3MPI8DatatypeE* sret %_T47727800_12197.arg, %struct._ZN3MPI8DatatypeE* %_T47728096_12197.arg, i32 signext %ndims.arg, i32* %array_of_sizes.arg, i32* %array_of_subsizes.arg, i32* %array_of_starts.arg, i32 signext %order.arg) #0 inlinehint !dbg !3695 {
L.entry:
	%_T47727800_12197.addr = alloca %struct._ZN3MPI8DatatypeE*, align 8
	%_T47728096_12197.addr = alloca %struct._ZN3MPI8DatatypeE*, align 8
	%ndims.addr = alloca i32, align 4
	%array_of_sizes.addr = alloca i32*, align 8
	%array_of_subsizes.addr = alloca i32*, align 8
	%array_of_starts.addr = alloca i32*, align 8
	%order.addr = alloca i32, align 4
	%type.addr = alloca %struct.ompi_datatype_t*, align 8
	%..inline.addr = alloca %struct._ZN3MPI8DatatypeE*, align 8
	%..inline.addr.1 = alloca %struct.ompi_datatype_t*, align 8

	store %struct._ZN3MPI8DatatypeE* %_T47727800_12197.arg, %struct._ZN3MPI8DatatypeE** %_T47727800_12197.addr, align 8, !tbaa !2188
	call void @llvm.dbg.declare (metadata %struct._ZN3MPI8DatatypeE** %_T47728096_12197.addr, metadata !3703, metadata !2164), !dbg !3696
	store %struct._ZN3MPI8DatatypeE* %_T47728096_12197.arg, %struct._ZN3MPI8DatatypeE** %_T47728096_12197.addr, align 8, !tbaa !2188
	call void @llvm.dbg.declare (metadata %struct._ZN3MPI8DatatypeE** %_T47728096_12197.addr, metadata !3704, metadata !2164), !dbg !3696
	call void @llvm.dbg.declare (metadata i32* %ndims.addr, metadata !3705, metadata !2164), !dbg !3696
	store i32 %ndims.arg, i32* %ndims.addr, align 4, !tbaa !2332
	call void @llvm.dbg.declare (metadata i32* %ndims.addr, metadata !3706, metadata !2164), !dbg !3696
	call void @llvm.dbg.declare (metadata i32** %array_of_sizes.addr, metadata !3707, metadata !2164), !dbg !3696
	store i32* %array_of_sizes.arg, i32** %array_of_sizes.addr, align 8, !tbaa !2188
	call void @llvm.dbg.declare (metadata i32** %array_of_sizes.addr, metadata !3708, metadata !2164), !dbg !3696
	call void @llvm.dbg.declare (metadata i32** %array_of_subsizes.addr, metadata !3709, metadata !2164), !dbg !3696
	store i32* %array_of_subsizes.arg, i32** %array_of_subsizes.addr, align 8, !tbaa !2188
	call void @llvm.dbg.declare (metadata i32** %array_of_subsizes.addr, metadata !3710, metadata !2164), !dbg !3696
	call void @llvm.dbg.declare (metadata i32** %array_of_starts.addr, metadata !3711, metadata !2164), !dbg !3696
	store i32* %array_of_starts.arg, i32** %array_of_starts.addr, align 8, !tbaa !2188
	call void @llvm.dbg.declare (metadata i32** %array_of_starts.addr, metadata !3712, metadata !2164), !dbg !3696
	call void @llvm.dbg.declare (metadata i32* %order.addr, metadata !3713, metadata !2164), !dbg !3696
	store i32 %order.arg, i32* %order.addr, align 4, !tbaa !2332
	call void @llvm.dbg.declare (metadata i32* %order.addr, metadata !3714, metadata !2164), !dbg !3696
	%0 = load i32, i32* %ndims.addr, align 4, !tbaa !2190, !dbg !3715
	%1 = load i32*, i32** %array_of_sizes.addr, align 8, !tbaa !2188, !dbg !3715
	%2 = load i32*, i32** %array_of_subsizes.addr, align 8, !tbaa !2188, !dbg !3715
	%3 = load i32*, i32** %array_of_starts.addr, align 8, !tbaa !2188, !dbg !3715
	%4 = load i32, i32* %order.addr, align 4, !tbaa !2190, !dbg !3715
	%5 = load %struct._ZN3MPI8DatatypeE*, %struct._ZN3MPI8DatatypeE** %_T47728096_12197.addr, align 8, !tbaa !2188, !dbg !3715
	%6 = bitcast %struct._ZN3MPI8DatatypeE*  %5 to i8*, !dbg !3715
	%7 = getelementptr i8, i8*  %6, i64 8, !dbg !3715
	%8 = bitcast i8*  %7 to %struct.ompi_datatype_t**, !dbg !3715
	%9 = load %struct.ompi_datatype_t*, %struct.ompi_datatype_t**  %8, align 8, !tbaa !2188, !dbg !3715
	call void @llvm.dbg.declare (metadata %struct.ompi_datatype_t** %type.addr, metadata !3716, metadata !2164), !dbg !3696
	%10 = call i32  @MPI_Type_create_subarray (i32  %0, i32*  %1, i32*  %2, i32*  %3, i32  %4, %struct.ompi_datatype_t*  %9, %struct.ompi_datatype_t** %type.addr) nounwind, !dbg !3715
	%11 = load %struct._ZN3MPI8DatatypeE*, %struct._ZN3MPI8DatatypeE** %_T47727800_12197.addr, align 8, !tbaa !2188, !dbg !3717
	%12 = bitcast %struct._ZN3MPI8DatatypeE*  %11 to i8*, !dbg !3717
	%13 = bitcast %struct._ZN3MPI8DatatypeE** %..inline.addr to i8**, !dbg !3717
	store i8*  %12, i8**  %13, align 8, !tbaa !2188, !dbg !3717
	%14 = load %struct.ompi_datatype_t*, %struct.ompi_datatype_t** %type.addr, align 8, !tbaa !2188, !dbg !3717
	%15 = bitcast %struct.ompi_datatype_t*  %14 to i8*, !dbg !3717
	%16 = bitcast %struct.ompi_datatype_t** %..inline.addr.1 to i8**, !dbg !3717
	store i8*  %15, i8**  %16, align 8, !tbaa !2188, !dbg !3717
	%17 = bitcast [32 x i32 (...)* (...)*]* @_ZTVN3MPI8DatatypeE to i8*, !dbg !3717
	%18 = getelementptr i8, i8*  %17, i64 16, !dbg !3717
	%19 = load %struct._ZN3MPI8DatatypeE*, %struct._ZN3MPI8DatatypeE** %..inline.addr, align 8, !tbaa !2188, !dbg !3717
	%20 = bitcast %struct._ZN3MPI8DatatypeE*  %19 to i8**, !dbg !3717
	store i8*  %18, i8**  %20, align 8, !tbaa !2188, !dbg !3717
	%21 = load %struct.ompi_datatype_t*, %struct.ompi_datatype_t** %..inline.addr.1, align 8, !tbaa !2188, !dbg !3718
	%22 = bitcast %struct.ompi_datatype_t*  %21 to i8*, !dbg !3718
	%23 = bitcast %struct._ZN3MPI8DatatypeE*  %19 to i8*, !dbg !3718
	%24 = getelementptr i8, i8*  %23, i64 8, !dbg !3718
	%25 = bitcast i8*  %24 to i8**, !dbg !3718
	store i8*  %22, i8**  %25, align 8, !tbaa !2188, !dbg !3718
	ret void, !dbg !3719
}
define linkonce_odr void @_ZNK3MPI8Datatype13Create_darrayEiiiPKiS2_S2_S2_i(%struct._ZN3MPI8DatatypeE* sret %_T47727800_12198.arg, %struct._ZN3MPI8DatatypeE* %_T47728096_12198.arg, i32 signext %size.arg, i32 signext %rank.arg, i32 signext %ndims.arg, i32* %array_of_gsizes.arg, i32* %array_of_distribs.arg, i32* %array_of_dargs.arg, i32* %array_of_psizes.arg, i32 signext %order.arg) #0 inlinehint !dbg !3721 {
L.entry:
	%_T47727800_12198.addr = alloca %struct._ZN3MPI8DatatypeE*, align 8
	%_T47728096_12198.addr = alloca %struct._ZN3MPI8DatatypeE*, align 8
	%size.addr = alloca i32, align 4
	%rank.addr = alloca i32, align 4
	%ndims.addr = alloca i32, align 4
	%array_of_gsizes.addr = alloca i32*, align 8
	%array_of_distribs.addr = alloca i32*, align 8
	%array_of_dargs.addr = alloca i32*, align 8
	%array_of_psizes.addr = alloca i32*, align 8
	%order.addr = alloca i32, align 4
	%type.addr = alloca %struct.ompi_datatype_t*, align 8
	%..inline.addr = alloca %struct._ZN3MPI8DatatypeE*, align 8
	%..inline.addr.1 = alloca %struct.ompi_datatype_t*, align 8

	store %struct._ZN3MPI8DatatypeE* %_T47727800_12198.arg, %struct._ZN3MPI8DatatypeE** %_T47727800_12198.addr, align 8, !tbaa !2188
	call void @llvm.dbg.declare (metadata %struct._ZN3MPI8DatatypeE** %_T47728096_12198.addr, metadata !3729, metadata !2164), !dbg !3722
	store %struct._ZN3MPI8DatatypeE* %_T47728096_12198.arg, %struct._ZN3MPI8DatatypeE** %_T47728096_12198.addr, align 8, !tbaa !2188
	call void @llvm.dbg.declare (metadata %struct._ZN3MPI8DatatypeE** %_T47728096_12198.addr, metadata !3730, metadata !2164), !dbg !3722
	call void @llvm.dbg.declare (metadata i32* %size.addr, metadata !3731, metadata !2164), !dbg !3722
	store i32 %size.arg, i32* %size.addr, align 4, !tbaa !2332
	call void @llvm.dbg.declare (metadata i32* %size.addr, metadata !3732, metadata !2164), !dbg !3722
	call void @llvm.dbg.declare (metadata i32* %rank.addr, metadata !3733, metadata !2164), !dbg !3722
	store i32 %rank.arg, i32* %rank.addr, align 4, !tbaa !2332
	call void @llvm.dbg.declare (metadata i32* %rank.addr, metadata !3734, metadata !2164), !dbg !3722
	call void @llvm.dbg.declare (metadata i32* %ndims.addr, metadata !3735, metadata !2164), !dbg !3722
	store i32 %ndims.arg, i32* %ndims.addr, align 4, !tbaa !2332
	call void @llvm.dbg.declare (metadata i32* %ndims.addr, metadata !3736, metadata !2164), !dbg !3722
	call void @llvm.dbg.declare (metadata i32** %array_of_gsizes.addr, metadata !3737, metadata !2164), !dbg !3722
	store i32* %array_of_gsizes.arg, i32** %array_of_gsizes.addr, align 8, !tbaa !2188
	call void @llvm.dbg.declare (metadata i32** %array_of_gsizes.addr, metadata !3738, metadata !2164), !dbg !3722
	call void @llvm.dbg.declare (metadata i32** %array_of_distribs.addr, metadata !3739, metadata !2164), !dbg !3722
	store i32* %array_of_distribs.arg, i32** %array_of_distribs.addr, align 8, !tbaa !2188
	call void @llvm.dbg.declare (metadata i32** %array_of_distribs.addr, metadata !3740, metadata !2164), !dbg !3722
	call void @llvm.dbg.declare (metadata i32** %array_of_dargs.addr, metadata !3741, metadata !2164), !dbg !3722
	store i32* %array_of_dargs.arg, i32** %array_of_dargs.addr, align 8, !tbaa !2188
	call void @llvm.dbg.declare (metadata i32** %array_of_dargs.addr, metadata !3742, metadata !2164), !dbg !3722
	call void @llvm.dbg.declare (metadata i32** %array_of_psizes.addr, metadata !3743, metadata !2164), !dbg !3722
	store i32* %array_of_psizes.arg, i32** %array_of_psizes.addr, align 8, !tbaa !2188
	call void @llvm.dbg.declare (metadata i32** %array_of_psizes.addr, metadata !3744, metadata !2164), !dbg !3722
	call void @llvm.dbg.declare (metadata i32* %order.addr, metadata !3745, metadata !2164), !dbg !3722
	store i32 %order.arg, i32* %order.addr, align 4, !tbaa !2332
	call void @llvm.dbg.declare (metadata i32* %order.addr, metadata !3746, metadata !2164), !dbg !3722
	%0 = load i32, i32* %size.addr, align 4, !tbaa !2190, !dbg !3747
	%1 = load i32, i32* %rank.addr, align 4, !tbaa !2190, !dbg !3747
	%2 = load i32, i32* %ndims.addr, align 4, !tbaa !2190, !dbg !3747
	%3 = load i32*, i32** %array_of_gsizes.addr, align 8, !tbaa !2188, !dbg !3747
	%4 = load i32*, i32** %array_of_distribs.addr, align 8, !tbaa !2188, !dbg !3747
	%5 = load i32*, i32** %array_of_dargs.addr, align 8, !tbaa !2188, !dbg !3747
	%6 = load i32*, i32** %array_of_psizes.addr, align 8, !tbaa !2188, !dbg !3747
	%7 = load i32, i32* %order.addr, align 4, !tbaa !2190, !dbg !3747
	%8 = load %struct._ZN3MPI8DatatypeE*, %struct._ZN3MPI8DatatypeE** %_T47728096_12198.addr, align 8, !tbaa !2188, !dbg !3747
	%9 = bitcast %struct._ZN3MPI8DatatypeE*  %8 to i8*, !dbg !3747
	%10 = getelementptr i8, i8*  %9, i64 8, !dbg !3747
	%11 = bitcast i8*  %10 to %struct.ompi_datatype_t**, !dbg !3747
	%12 = load %struct.ompi_datatype_t*, %struct.ompi_datatype_t**  %11, align 8, !tbaa !2188, !dbg !3747
	call void @llvm.dbg.declare (metadata %struct.ompi_datatype_t** %type.addr, metadata !3748, metadata !2164), !dbg !3722
	%13 = call i32  @MPI_Type_create_darray (i32  %0, i32  %1, i32  %2, i32*  %3, i32*  %4, i32*  %5, i32*  %6, i32  %7, %struct.ompi_datatype_t*  %12, %struct.ompi_datatype_t** %type.addr) nounwind, !dbg !3747
	%14 = load %struct._ZN3MPI8DatatypeE*, %struct._ZN3MPI8DatatypeE** %_T47727800_12198.addr, align 8, !tbaa !2188, !dbg !3749
	%15 = bitcast %struct._ZN3MPI8DatatypeE*  %14 to i8*, !dbg !3749
	%16 = bitcast %struct._ZN3MPI8DatatypeE** %..inline.addr to i8**, !dbg !3749
	store i8*  %15, i8**  %16, align 8, !tbaa !2188, !dbg !3749
	%17 = load %struct.ompi_datatype_t*, %struct.ompi_datatype_t** %type.addr, align 8, !tbaa !2188, !dbg !3749
	%18 = bitcast %struct.ompi_datatype_t*  %17 to i8*, !dbg !3749
	%19 = bitcast %struct.ompi_datatype_t** %..inline.addr.1 to i8**, !dbg !3749
	store i8*  %18, i8**  %19, align 8, !tbaa !2188, !dbg !3749
	%20 = bitcast [32 x i32 (...)* (...)*]* @_ZTVN3MPI8DatatypeE to i8*, !dbg !3749
	%21 = getelementptr i8, i8*  %20, i64 16, !dbg !3749
	%22 = load %struct._ZN3MPI8DatatypeE*, %struct._ZN3MPI8DatatypeE** %..inline.addr, align 8, !tbaa !2188, !dbg !3749
	%23 = bitcast %struct._ZN3MPI8DatatypeE*  %22 to i8**, !dbg !3749
	store i8*  %21, i8**  %23, align 8, !tbaa !2188, !dbg !3749
	%24 = load %struct.ompi_datatype_t*, %struct.ompi_datatype_t** %..inline.addr.1, align 8, !tbaa !2188, !dbg !3750
	%25 = bitcast %struct.ompi_datatype_t*  %24 to i8*, !dbg !3750
	%26 = bitcast %struct._ZN3MPI8DatatypeE*  %22 to i8*, !dbg !3750
	%27 = getelementptr i8, i8*  %26, i64 8, !dbg !3750
	%28 = bitcast i8*  %27 to i8**, !dbg !3750
	store i8*  %25, i8**  %28, align 8, !tbaa !2188, !dbg !3750
	ret void, !dbg !3751
}
define linkonce_odr void @_ZNK3MPI8Datatype3DupEv(%struct._ZN3MPI8DatatypeE* sret %_T47727800_12199.arg, %struct._ZN3MPI8DatatypeE* %_T47728096_12199.arg) #0 inlinehint !dbg !3753 {
L.entry:
	%_T47727800_12199.addr = alloca %struct._ZN3MPI8DatatypeE*, align 8
	%_T47728096_12199.addr = alloca %struct._ZN3MPI8DatatypeE*, align 8
	%type.addr = alloca %struct.ompi_datatype_t*, align 8
	%..inline.addr = alloca %struct._ZN3MPI8DatatypeE*, align 8
	%..inline.addr.1 = alloca %struct.ompi_datatype_t*, align 8

	store %struct._ZN3MPI8DatatypeE* %_T47727800_12199.arg, %struct._ZN3MPI8DatatypeE** %_T47727800_12199.addr, align 8, !tbaa !2188
	call void @llvm.dbg.declare (metadata %struct._ZN3MPI8DatatypeE** %_T47728096_12199.addr, metadata !3761, metadata !2164), !dbg !3754
	store %struct._ZN3MPI8DatatypeE* %_T47728096_12199.arg, %struct._ZN3MPI8DatatypeE** %_T47728096_12199.addr, align 8, !tbaa !2188
	call void @llvm.dbg.declare (metadata %struct._ZN3MPI8DatatypeE** %_T47728096_12199.addr, metadata !3762, metadata !2164), !dbg !3754
	%0 = load %struct._ZN3MPI8DatatypeE*, %struct._ZN3MPI8DatatypeE** %_T47728096_12199.addr, align 8, !tbaa !2188, !dbg !3763
	%1 = bitcast %struct._ZN3MPI8DatatypeE*  %0 to i8*, !dbg !3763
	%2 = getelementptr i8, i8*  %1, i64 8, !dbg !3763
	%3 = bitcast i8*  %2 to %struct.ompi_datatype_t**, !dbg !3763
	%4 = load %struct.ompi_datatype_t*, %struct.ompi_datatype_t**  %3, align 8, !tbaa !2188, !dbg !3763
	call void @llvm.dbg.declare (metadata %struct.ompi_datatype_t** %type.addr, metadata !3764, metadata !2164), !dbg !3754
	%5 = call i32  @MPI_Type_dup (%struct.ompi_datatype_t*  %4, %struct.ompi_datatype_t** %type.addr) nounwind, !dbg !3763
	%6 = load %struct._ZN3MPI8DatatypeE*, %struct._ZN3MPI8DatatypeE** %_T47727800_12199.addr, align 8, !tbaa !2188, !dbg !3765
	%7 = bitcast %struct._ZN3MPI8DatatypeE*  %6 to i8*, !dbg !3765
	%8 = bitcast %struct._ZN3MPI8DatatypeE** %..inline.addr to i8**, !dbg !3765
	store i8*  %7, i8**  %8, align 8, !tbaa !2188, !dbg !3765
	%9 = load %struct.ompi_datatype_t*, %struct.ompi_datatype_t** %type.addr, align 8, !tbaa !2188, !dbg !3765
	%10 = bitcast %struct.ompi_datatype_t*  %9 to i8*, !dbg !3765
	%11 = bitcast %struct.ompi_datatype_t** %..inline.addr.1 to i8**, !dbg !3765
	store i8*  %10, i8**  %11, align 8, !tbaa !2188, !dbg !3765
	%12 = bitcast [32 x i32 (...)* (...)*]* @_ZTVN3MPI8DatatypeE to i8*, !dbg !3765
	%13 = getelementptr i8, i8*  %12, i64 16, !dbg !3765
	%14 = load %struct._ZN3MPI8DatatypeE*, %struct._ZN3MPI8DatatypeE** %..inline.addr, align 8, !tbaa !2188, !dbg !3765
	%15 = bitcast %struct._ZN3MPI8DatatypeE*  %14 to i8**, !dbg !3765
	store i8*  %13, i8**  %15, align 8, !tbaa !2188, !dbg !3765
	%16 = load %struct.ompi_datatype_t*, %struct.ompi_datatype_t** %..inline.addr.1, align 8, !tbaa !2188, !dbg !3766
	%17 = bitcast %struct.ompi_datatype_t*  %16 to i8*, !dbg !3766
	%18 = bitcast %struct._ZN3MPI8DatatypeE*  %14 to i8*, !dbg !3766
	%19 = getelementptr i8, i8*  %18, i64 8, !dbg !3766
	%20 = bitcast i8*  %19 to i8**, !dbg !3766
	store i8*  %17, i8**  %20, align 8, !tbaa !2188, !dbg !3766
	ret void, !dbg !3767
}
define linkonce_odr void @_ZN3MPI8Datatype11Delete_attrEi(%struct._ZN3MPI8DatatypeE* %_T47727800_12200.arg, i32 signext %type_keyval.arg) #0 inlinehint !dbg !3769 {
L.entry:
	%_T47727800_12200.addr = alloca %struct._ZN3MPI8DatatypeE*, align 8
	%type_keyval.addr = alloca i32, align 4

	call void @llvm.dbg.declare (metadata %struct._ZN3MPI8DatatypeE** %_T47727800_12200.addr, metadata !3773, metadata !2164), !dbg !3770
	store %struct._ZN3MPI8DatatypeE* %_T47727800_12200.arg, %struct._ZN3MPI8DatatypeE** %_T47727800_12200.addr, align 8, !tbaa !2188
	call void @llvm.dbg.declare (metadata %struct._ZN3MPI8DatatypeE** %_T47727800_12200.addr, metadata !3774, metadata !2164), !dbg !3770
	call void @llvm.dbg.declare (metadata i32* %type_keyval.addr, metadata !3775, metadata !2164), !dbg !3770
	store i32 %type_keyval.arg, i32* %type_keyval.addr, align 4, !tbaa !2332
	call void @llvm.dbg.declare (metadata i32* %type_keyval.addr, metadata !3776, metadata !2164), !dbg !3770
	%0 = load %struct._ZN3MPI8DatatypeE*, %struct._ZN3MPI8DatatypeE** %_T47727800_12200.addr, align 8, !tbaa !2188, !dbg !3777
	%1 = bitcast %struct._ZN3MPI8DatatypeE*  %0 to i8*, !dbg !3777
	%2 = getelementptr i8, i8*  %1, i64 8, !dbg !3777
	%3 = bitcast i8*  %2 to %struct.ompi_datatype_t**, !dbg !3777
	%4 = load %struct.ompi_datatype_t*, %struct.ompi_datatype_t**  %3, align 8, !tbaa !2188, !dbg !3777
	%5 = load i32, i32* %type_keyval.addr, align 4, !tbaa !2190, !dbg !3777
	%6 = call i32  @MPI_Type_delete_attr (%struct.ompi_datatype_t*  %4, i32  %5) nounwind, !dbg !3777
	ret void, !dbg !3778
}
define linkonce_odr signext i8 @_ZNK3MPI8Datatype8Get_attrEiPv(%struct._ZN3MPI8DatatypeE* %_T47727800_12201.arg, i32 signext %type_keyval.arg, i8* %attribute_val.arg) #0 inlinehint !dbg !3780 {
L.entry:
	%_T47727800_12201.addr = alloca %struct._ZN3MPI8DatatypeE*, align 8
	%type_keyval.addr = alloca i32, align 4
	%attribute_val.addr = alloca i8*, align 8
	%ret.addr = alloca i32, align 4

	call void @llvm.dbg.declare (metadata %struct._ZN3MPI8DatatypeE** %_T47727800_12201.addr, metadata !3784, metadata !2164), !dbg !3781
	store %struct._ZN3MPI8DatatypeE* %_T47727800_12201.arg, %struct._ZN3MPI8DatatypeE** %_T47727800_12201.addr, align 8, !tbaa !2188
	call void @llvm.dbg.declare (metadata %struct._ZN3MPI8DatatypeE** %_T47727800_12201.addr, metadata !3785, metadata !2164), !dbg !3781
	call void @llvm.dbg.declare (metadata i32* %type_keyval.addr, metadata !3786, metadata !2164), !dbg !3781
	store i32 %type_keyval.arg, i32* %type_keyval.addr, align 4, !tbaa !2332
	call void @llvm.dbg.declare (metadata i32* %type_keyval.addr, metadata !3787, metadata !2164), !dbg !3781
	call void @llvm.dbg.declare (metadata i8** %attribute_val.addr, metadata !3788, metadata !2164), !dbg !3781
	store i8* %attribute_val.arg, i8** %attribute_val.addr, align 8, !tbaa !2188
	call void @llvm.dbg.declare (metadata i8** %attribute_val.addr, metadata !3789, metadata !2164), !dbg !3781
	%0 = load %struct._ZN3MPI8DatatypeE*, %struct._ZN3MPI8DatatypeE** %_T47727800_12201.addr, align 8, !tbaa !2188, !dbg !3790
	%1 = bitcast %struct._ZN3MPI8DatatypeE*  %0 to i8*, !dbg !3790
	%2 = getelementptr i8, i8*  %1, i64 8, !dbg !3790
	%3 = bitcast i8*  %2 to %struct.ompi_datatype_t**, !dbg !3790
	%4 = load %struct.ompi_datatype_t*, %struct.ompi_datatype_t**  %3, align 8, !tbaa !2188, !dbg !3790
	%5 = load i32, i32* %type_keyval.addr, align 4, !tbaa !2190, !dbg !3790
	%6 = load i8*, i8** %attribute_val.addr, align 8, !tbaa !2188, !dbg !3790
	call void @llvm.dbg.declare (metadata i32* %ret.addr, metadata !3791, metadata !2164), !dbg !3781
	%7 = call i32  @MPI_Type_get_attr (%struct.ompi_datatype_t*  %4, i32  %5, i8*  %6, i32* %ret.addr) nounwind, !dbg !3790
	%8 = load i32, i32* %ret.addr, align 4, !tbaa !2190, !dbg !3792
	%9 = icmp ne i32  %8, 0, !dbg !3792
	%10 = zext i1  %9 to i32, !dbg !3792
	%11 = trunc i32  %10 to i8, !dbg !3792
	ret i8  %11, !dbg !3792
}
define linkonce_odr void @_ZNK3MPI8Datatype12Get_contentsEiiiPiPlPS0_(%struct._ZN3MPI8DatatypeE* %_T47727984_12203.arg, i32 signext %max_integers.arg, i32 signext %max_addresses.arg, i32 signext %max_datatypes.arg, i32* %array_of_integers.arg, i64* %array_of_addresses.arg, %struct._ZN3MPI8DatatypeE* %array_of_datatypes.arg) #0 inlinehint !dbg !3795 {
L.entry:
	%_T47727984_12203.addr = alloca %struct._ZN3MPI8DatatypeE*, align 8
	%max_integers.addr = alloca i32, align 4
	%max_addresses.addr = alloca i32, align 4
	%max_datatypes.addr = alloca i32, align 4
	%array_of_integers.addr = alloca i32*, align 8
	%array_of_addresses.addr = alloca i64*, align 8
	%array_of_datatypes.addr = alloca %struct._ZN3MPI8DatatypeE*, align 8
	%_T47730648_12203.addr = alloca i64, align 8
	%.Q0003.addr = alloca i8*, align 8
	%c_datatypes.addr = alloca %struct.ompi_datatype_t**, align 8
	%.ndi0002.addr = alloca i32, align 4
	%.y0069.addr = alloca i32, align 4
	%.x69633.addr = alloca i32, align 4
	%.D0000.addr = alloca i32, align 4
	%.D0001.addr = alloca i32, align 4
	%.G0003.addr = alloca i8*, align 8

	call void @llvm.dbg.declare (metadata %struct._ZN3MPI8DatatypeE** %_T47727984_12203.addr, metadata !3803, metadata !2164), !dbg !3796
	store %struct._ZN3MPI8DatatypeE* %_T47727984_12203.arg, %struct._ZN3MPI8DatatypeE** %_T47727984_12203.addr, align 8, !tbaa !2188
	call void @llvm.dbg.declare (metadata %struct._ZN3MPI8DatatypeE** %_T47727984_12203.addr, metadata !3804, metadata !2164), !dbg !3796
	call void @llvm.dbg.declare (metadata i32* %max_integers.addr, metadata !3805, metadata !2164), !dbg !3796
	store i32 %max_integers.arg, i32* %max_integers.addr, align 4, !tbaa !2332
	call void @llvm.dbg.declare (metadata i32* %max_integers.addr, metadata !3806, metadata !2164), !dbg !3796
	call void @llvm.dbg.declare (metadata i32* %max_addresses.addr, metadata !3807, metadata !2164), !dbg !3796
	store i32 %max_addresses.arg, i32* %max_addresses.addr, align 4, !tbaa !2332
	call void @llvm.dbg.declare (metadata i32* %max_addresses.addr, metadata !3808, metadata !2164), !dbg !3796
	call void @llvm.dbg.declare (metadata i32* %max_datatypes.addr, metadata !3809, metadata !2164), !dbg !3796
	store i32 %max_datatypes.arg, i32* %max_datatypes.addr, align 4, !tbaa !2332
	call void @llvm.dbg.declare (metadata i32* %max_datatypes.addr, metadata !3810, metadata !2164), !dbg !3796
	call void @llvm.dbg.declare (metadata i32** %array_of_integers.addr, metadata !3811, metadata !2164), !dbg !3796
	store i32* %array_of_integers.arg, i32** %array_of_integers.addr, align 8, !tbaa !2188
	call void @llvm.dbg.declare (metadata i32** %array_of_integers.addr, metadata !3812, metadata !2164), !dbg !3796
	call void @llvm.dbg.declare (metadata i64** %array_of_addresses.addr, metadata !3813, metadata !2164), !dbg !3796
	store i64* %array_of_addresses.arg, i64** %array_of_addresses.addr, align 8, !tbaa !2188
	call void @llvm.dbg.declare (metadata i64** %array_of_addresses.addr, metadata !3814, metadata !2164), !dbg !3796
	call void @llvm.dbg.declare (metadata %struct._ZN3MPI8DatatypeE** %array_of_datatypes.addr, metadata !3815, metadata !2164), !dbg !3796
	store %struct._ZN3MPI8DatatypeE* %array_of_datatypes.arg, %struct._ZN3MPI8DatatypeE** %array_of_datatypes.addr, align 8, !tbaa !2188
	call void @llvm.dbg.declare (metadata %struct._ZN3MPI8DatatypeE** %array_of_datatypes.addr, metadata !3816, metadata !2164), !dbg !3796
	%0 = load i32, i32* %max_datatypes.addr, align 4, !tbaa !2190, !dbg !3817
	%1 = sext i32  %0 to i64, !dbg !3817
	%2 = mul i64  %1, 8, !dbg !3817
	%3 = call i8*  @_Znam (i64  %2), !dbg !3817
	call void @llvm.dbg.declare (metadata %struct.ompi_datatype_t*** %c_datatypes.addr, metadata !3818, metadata !2164), !dbg !3796
	%4 = bitcast %struct.ompi_datatype_t*** %c_datatypes.addr to i8**, !dbg !3817
	store i8*  %3, i8**  %4, align 8, !tbaa !2188, !dbg !3817
	%5 = load %struct._ZN3MPI8DatatypeE*, %struct._ZN3MPI8DatatypeE** %_T47727984_12203.addr, align 8, !tbaa !2188, !dbg !3819
	%6 = bitcast %struct._ZN3MPI8DatatypeE*  %5 to i8*, !dbg !3819
	%7 = getelementptr i8, i8*  %6, i64 8, !dbg !3819
	%8 = bitcast i8*  %7 to %struct.ompi_datatype_t**, !dbg !3819
	%9 = load %struct.ompi_datatype_t*, %struct.ompi_datatype_t**  %8, align 8, !tbaa !2188, !dbg !3819
	%10 = load i32, i32* %max_integers.addr, align 4, !tbaa !2190, !dbg !3819
	%11 = load i32, i32* %max_addresses.addr, align 4, !tbaa !2190, !dbg !3819
	%12 = load i32, i32* %max_datatypes.addr, align 4, !tbaa !2190, !dbg !3819
	%13 = load i32*, i32** %array_of_integers.addr, align 8, !tbaa !2188, !dbg !3819
	%14 = load i64*, i64** %array_of_addresses.addr, align 8, !tbaa !2188, !dbg !3819
	%15 = load %struct.ompi_datatype_t**, %struct.ompi_datatype_t*** %c_datatypes.addr, align 8, !tbaa !2188, !dbg !3819
	%16 = call i32  @MPI_Type_get_contents (%struct.ompi_datatype_t*  %9, i32  %10, i32  %11, i32  %12, i32*  %13, i64*  %14, %struct.ompi_datatype_t**  %15) nounwind, !dbg !3819
	store i32 0, i32* %.ndi0002.addr, align 4, !tbaa !2190, !dbg !3820
	%17 = load i32, i32* %max_datatypes.addr, align 4, !tbaa !2190, !dbg !3820
	%18 = icmp sle i32  %17, 0, !dbg !3820
	br i1  %18, label %L.B0705, label %L.B0710, !dbg !3820
L.B0710:
	store i32  %17, i32* %.y0069.addr, align 4, !tbaa !2190, !dbg !3820
	%19 = icmp slt i32  %17, 4, !dbg !3820
	br i1  %19, label %L.B0706, label %L.B0711, !dbg !3820
L.B0711:
	%20 = ashr i32  %17, 1, !dbg !3820
	%21 = lshr i32  %20, 30, !dbg !3820
	%22 = add i32  %17,  %21, !dbg !3820
	%23 = ashr i32  %22, 2, !dbg !3820
	store i32  %23, i32* %.x69633.addr, align 4, !tbaa !2190, !dbg !3820
	%24 = ashr i32  %17, 1, !dbg !3820
	%25 = lshr i32  %24, 30, !dbg !3820
	%26 = add i32  %17,  %25, !dbg !3820
	%27 = ashr i32  %26, 2, !dbg !3820
	store i32  %27, i32* %.D0000.addr, align 4, !tbaa !2190, !dbg !3820
	%28 = mul i32  %27, 4, !dbg !3820
	%29 = sub i32  %17,  %28, !dbg !3820
	store i32  %29, i32* %.D0001.addr, align 4, !tbaa !2190, !dbg !3820
	%30 = load %struct.ompi_datatype_t**, %struct.ompi_datatype_t*** %c_datatypes.addr, align 8, !tbaa !2188, !dbg !3820
	%31 = bitcast %struct.ompi_datatype_t**  %30 to i8*, !dbg !3820
	%32 = getelementptr i8, i8*  %31, i64 24, !dbg !3820
	store i8*  %32, i8** %.G0003.addr, align 8, !tbaa !2188, !dbg !3820
	br label %L.B0704
L.B0704:
	%33 = load i8*, i8** %.G0003.addr, align 8, !tbaa !2188, !dbg !3820
	%34 = getelementptr i8, i8*  %33, i64 18446744073709551592, !dbg !3820
	%35 = bitcast i8*  %34 to i8**, !dbg !3820
	%36 = load i8*, i8**  %35, align 8, !tbaa !2188, !dbg !3820
	%37 = load %struct._ZN3MPI8DatatypeE*, %struct._ZN3MPI8DatatypeE** %array_of_datatypes.addr, align 8, !tbaa !2188, !dbg !3820
	%38 = bitcast %struct._ZN3MPI8DatatypeE*  %37 to i8*, !dbg !3820
	%39 = getelementptr i8, i8*  %38, i64 8, !dbg !3820
	%40 = load i32, i32* %.ndi0002.addr, align 4, !tbaa !2190, !dbg !3820
	%41 = sext i32  %40 to i64, !dbg !3820
	%42 = mul i64  %41, 16, !dbg !3820
	%43 = getelementptr i8, i8*  %39, i64  %42, !dbg !3820
	%44 = bitcast i8*  %43 to i8**, !dbg !3820
	store i8*  %36, i8**  %44, align 8, !tbaa !2188, !dbg !3820
	%45 = getelementptr i8, i8*  %33, i64 18446744073709551600, !dbg !3820
	%46 = bitcast i8*  %45 to i8**, !dbg !3820
	%47 = load i8*, i8**  %46, align 8, !tbaa !2188, !dbg !3820
	%48 = add i64  %41, 1, !dbg !3820
	%49 = mul i64  %48, 16, !dbg !3820
	%50 = getelementptr i8, i8*  %39, i64  %49, !dbg !3820
	%51 = bitcast i8*  %50 to i8**, !dbg !3820
	store i8*  %47, i8**  %51, align 8, !tbaa !2188, !dbg !3820
	%52 = getelementptr i8, i8*  %33, i64 18446744073709551608, !dbg !3820
	%53 = bitcast i8*  %52 to i8**, !dbg !3820
	%54 = load i8*, i8**  %53, align 8, !tbaa !2188, !dbg !3820
	%55 = add i64  %41, 2, !dbg !3820
	%56 = mul i64  %55, 16, !dbg !3820
	%57 = getelementptr i8, i8*  %39, i64  %56, !dbg !3820
	%58 = bitcast i8*  %57 to i8**, !dbg !3820
	store i8*  %54, i8**  %58, align 8, !tbaa !2188, !dbg !3820
	%59 = bitcast i8*  %33 to i8**, !dbg !3820
	%60 = load i8*, i8**  %59, align 8, !tbaa !2188, !dbg !3820
	%61 = add i64  %41, 3, !dbg !3820
	%62 = mul i64  %61, 16, !dbg !3820
	%63 = getelementptr i8, i8*  %39, i64  %62, !dbg !3820
	%64 = bitcast i8*  %63 to i8**, !dbg !3820
	store i8*  %60, i8**  %64, align 8, !tbaa !2188, !dbg !3820
	%65 = add i32  %40, 4, !dbg !3820
	store i32  %65, i32* %.ndi0002.addr, align 4, !tbaa !2190, !dbg !3820
	%66 = getelementptr i8, i8*  %33, i64 32, !dbg !3820
	store i8*  %66, i8** %.G0003.addr, align 8, !tbaa !2188, !dbg !3820
	%67 = load i32, i32* %.x69633.addr, align 4, !tbaa !2190, !dbg !3820
	%68 = sub i32  %67, 1, !dbg !3820
	store i32  %68, i32* %.x69633.addr, align 4, !tbaa !2190, !dbg !3820
	%69 = icmp sgt i32  %68, 0, !dbg !3820
	br i1  %69, label %L.B0704, label %L.B0712, !dbg !3820
L.B0712:
	%70 = load i32, i32* %.D0001.addr, align 4, !tbaa !2190, !dbg !3820
	store i32  %70, i32* %.y0069.addr, align 4, !tbaa !2190, !dbg !3820
	br label %L.B0706
L.B0706:
	%71 = load i32, i32* %.y0069.addr, align 4, !tbaa !2190, !dbg !3820
	%72 = icmp eq i32  %71, 0, !dbg !3820
	br i1  %72, label %L.B0707, label %L.B0713, !dbg !3820
L.B0713:
	%73 = icmp eq i32  %71, 1, !dbg !3820
	br i1  %73, label %L.B0708, label %L.B0714, !dbg !3820
L.B0714:
	%74 = icmp eq i32  %71, 2, !dbg !3820
	br i1  %74, label %L.B0709, label %L.B0715, !dbg !3820
L.B0715:
	%75 = load %struct.ompi_datatype_t**, %struct.ompi_datatype_t*** %c_datatypes.addr, align 8, !tbaa !2188, !dbg !3820
	%76 = bitcast %struct.ompi_datatype_t**  %75 to i8*, !dbg !3820
	%77 = load i32, i32* %.ndi0002.addr, align 4, !tbaa !2190, !dbg !3820
	%78 = sext i32  %77 to i64, !dbg !3820
	%79 = mul i64  %78, 8, !dbg !3820
	%80 = getelementptr i8, i8*  %76, i64  %79, !dbg !3820
	%81 = bitcast i8*  %80 to i8**, !dbg !3820
	%82 = load i8*, i8**  %81, align 8, !tbaa !2188, !dbg !3820
	%83 = load %struct._ZN3MPI8DatatypeE*, %struct._ZN3MPI8DatatypeE** %array_of_datatypes.addr, align 8, !tbaa !2188, !dbg !3820
	%84 = bitcast %struct._ZN3MPI8DatatypeE*  %83 to i8*, !dbg !3820
	%85 = getelementptr i8, i8*  %84, i64 8, !dbg !3820
	%86 = mul i64  %78, 16, !dbg !3820
	%87 = getelementptr i8, i8*  %85, i64  %86, !dbg !3820
	%88 = bitcast i8*  %87 to i8**, !dbg !3820
	store i8*  %82, i8**  %88, align 8, !tbaa !2188, !dbg !3820
	%89 = add i32  %77, 1, !dbg !3820
	store i32  %89, i32* %.ndi0002.addr, align 4, !tbaa !2190, !dbg !3820
	br label %L.B0709
L.B0709:
	%90 = load %struct.ompi_datatype_t**, %struct.ompi_datatype_t*** %c_datatypes.addr, align 8, !tbaa !2188, !dbg !3820
	%91 = bitcast %struct.ompi_datatype_t**  %90 to i8*, !dbg !3820
	%92 = load i32, i32* %.ndi0002.addr, align 4, !tbaa !2190, !dbg !3820
	%93 = sext i32  %92 to i64, !dbg !3820
	%94 = mul i64  %93, 8, !dbg !3820
	%95 = getelementptr i8, i8*  %91, i64  %94, !dbg !3820
	%96 = bitcast i8*  %95 to i8**, !dbg !3820
	%97 = load i8*, i8**  %96, align 8, !tbaa !2188, !dbg !3820
	%98 = load %struct._ZN3MPI8DatatypeE*, %struct._ZN3MPI8DatatypeE** %array_of_datatypes.addr, align 8, !tbaa !2188, !dbg !3820
	%99 = bitcast %struct._ZN3MPI8DatatypeE*  %98 to i8*, !dbg !3820
	%100 = getelementptr i8, i8*  %99, i64 8, !dbg !3820
	%101 = mul i64  %93, 16, !dbg !3820
	%102 = getelementptr i8, i8*  %100, i64  %101, !dbg !3820
	%103 = bitcast i8*  %102 to i8**, !dbg !3820
	store i8*  %97, i8**  %103, align 8, !tbaa !2188, !dbg !3820
	%104 = add i32  %92, 1, !dbg !3820
	store i32  %104, i32* %.ndi0002.addr, align 4, !tbaa !2190, !dbg !3820
	br label %L.B0708
L.B0708:
	%105 = load %struct.ompi_datatype_t**, %struct.ompi_datatype_t*** %c_datatypes.addr, align 8, !tbaa !2188, !dbg !3820
	%106 = bitcast %struct.ompi_datatype_t**  %105 to i8*, !dbg !3820
	%107 = load i32, i32* %.ndi0002.addr, align 4, !tbaa !2190, !dbg !3820
	%108 = sext i32  %107 to i64, !dbg !3820
	%109 = mul i64  %108, 8, !dbg !3820
	%110 = getelementptr i8, i8*  %106, i64  %109, !dbg !3820
	%111 = bitcast i8*  %110 to i8**, !dbg !3820
	%112 = load i8*, i8**  %111, align 8, !tbaa !2188, !dbg !3820
	%113 = load %struct._ZN3MPI8DatatypeE*, %struct._ZN3MPI8DatatypeE** %array_of_datatypes.addr, align 8, !tbaa !2188, !dbg !3820
	%114 = bitcast %struct._ZN3MPI8DatatypeE*  %113 to i8*, !dbg !3820
	%115 = getelementptr i8, i8*  %114, i64 8, !dbg !3820
	%116 = mul i64  %108, 16, !dbg !3820
	%117 = getelementptr i8, i8*  %115, i64  %116, !dbg !3820
	%118 = bitcast i8*  %117 to i8**, !dbg !3820
	store i8*  %112, i8**  %118, align 8, !tbaa !2188, !dbg !3820
	br label %L.B0707
L.B0707:
	br label %L.B0705
L.B0705:
	%119 = load %struct.ompi_datatype_t**, %struct.ompi_datatype_t*** %c_datatypes.addr, align 8, !tbaa !2188, !dbg !3821
	%120 = bitcast %struct.ompi_datatype_t**  %119 to i8*, !dbg !3821
	call void  @_ZdaPv (i8*  %120) nounwind, !dbg !3821
	ret void, !dbg !3822
}
define linkonce_odr void @_ZNK3MPI8Datatype12Get_envelopeERiS1_S1_S1_(%struct._ZN3MPI8DatatypeE* %_T47727800_12204.arg, i32* %num_integers.arg, i32* %num_addresses.arg, i32* %num_datatypes.arg, i32* %combiner.arg) #0 inlinehint !dbg !3824 {
L.entry:
	%_T47727800_12204.addr = alloca %struct._ZN3MPI8DatatypeE*, align 8
	%num_integers.addr = alloca i32*, align 8
	%num_addresses.addr = alloca i32*, align 8
	%num_datatypes.addr = alloca i32*, align 8
	%combiner.addr = alloca i32*, align 8

	call void @llvm.dbg.declare (metadata %struct._ZN3MPI8DatatypeE** %_T47727800_12204.addr, metadata !3828, metadata !2164), !dbg !3825
	store %struct._ZN3MPI8DatatypeE* %_T47727800_12204.arg, %struct._ZN3MPI8DatatypeE** %_T47727800_12204.addr, align 8, !tbaa !2188
	call void @llvm.dbg.declare (metadata %struct._ZN3MPI8DatatypeE** %_T47727800_12204.addr, metadata !3829, metadata !2164), !dbg !3825
	call void @llvm.dbg.declare (metadata i32** %num_integers.addr, metadata !3830, metadata !2164), !dbg !3825
	store i32* %num_integers.arg, i32** %num_integers.addr, align 8, !tbaa !2188
	call void @llvm.dbg.declare (metadata i32** %num_integers.addr, metadata !3831, metadata !2164), !dbg !3825
	call void @llvm.dbg.declare (metadata i32** %num_addresses.addr, metadata !3832, metadata !2164), !dbg !3825
	store i32* %num_addresses.arg, i32** %num_addresses.addr, align 8, !tbaa !2188
	call void @llvm.dbg.declare (metadata i32** %num_addresses.addr, metadata !3833, metadata !2164), !dbg !3825
	call void @llvm.dbg.declare (metadata i32** %num_datatypes.addr, metadata !3834, metadata !2164), !dbg !3825
	store i32* %num_datatypes.arg, i32** %num_datatypes.addr, align 8, !tbaa !2188
	call void @llvm.dbg.declare (metadata i32** %num_datatypes.addr, metadata !3835, metadata !2164), !dbg !3825
	call void @llvm.dbg.declare (metadata i32** %combiner.addr, metadata !3836, metadata !2164), !dbg !3825
	store i32* %combiner.arg, i32** %combiner.addr, align 8, !tbaa !2188
	call void @llvm.dbg.declare (metadata i32** %combiner.addr, metadata !3837, metadata !2164), !dbg !3825
	%0 = load %struct._ZN3MPI8DatatypeE*, %struct._ZN3MPI8DatatypeE** %_T47727800_12204.addr, align 8, !tbaa !2188, !dbg !3838
	%1 = bitcast %struct._ZN3MPI8DatatypeE*  %0 to i8*, !dbg !3838
	%2 = getelementptr i8, i8*  %1, i64 8, !dbg !3838
	%3 = bitcast i8*  %2 to %struct.ompi_datatype_t**, !dbg !3838
	%4 = load %struct.ompi_datatype_t*, %struct.ompi_datatype_t**  %3, align 8, !tbaa !2188, !dbg !3838
	%5 = load i32*, i32** %num_integers.addr, align 8, !tbaa !2188, !dbg !3838
	%6 = load i32*, i32** %num_addresses.addr, align 8, !tbaa !2188, !dbg !3838
	%7 = load i32*, i32** %num_datatypes.addr, align 8, !tbaa !2188, !dbg !3838
	%8 = load i32*, i32** %combiner.addr, align 8, !tbaa !2188, !dbg !3838
	%9 = call i32  @MPI_Type_get_envelope (%struct.ompi_datatype_t*  %4, i32*  %5, i32*  %6, i32*  %7, i32*  %8) nounwind, !dbg !3838
	ret void, !dbg !3839
}
define linkonce_odr void @_ZNK3MPI8Datatype8Get_nameEPcRi(%struct._ZN3MPI8DatatypeE* %_T47727800_12205.arg, i8* %type_name.arg, i32* %resultlen.arg) #0 inlinehint !dbg !3841 {
L.entry:
	%_T47727800_12205.addr = alloca %struct._ZN3MPI8DatatypeE*, align 8
	%type_name.addr = alloca i8*, align 8
	%resultlen.addr = alloca i32*, align 8

	call void @llvm.dbg.declare (metadata %struct._ZN3MPI8DatatypeE** %_T47727800_12205.addr, metadata !3845, metadata !2164), !dbg !3842
	store %struct._ZN3MPI8DatatypeE* %_T47727800_12205.arg, %struct._ZN3MPI8DatatypeE** %_T47727800_12205.addr, align 8, !tbaa !2188
	call void @llvm.dbg.declare (metadata %struct._ZN3MPI8DatatypeE** %_T47727800_12205.addr, metadata !3846, metadata !2164), !dbg !3842
	call void @llvm.dbg.declare (metadata i8** %type_name.addr, metadata !3847, metadata !2164), !dbg !3842
	store i8* %type_name.arg, i8** %type_name.addr, align 8, !tbaa !2188
	call void @llvm.dbg.declare (metadata i8** %type_name.addr, metadata !3848, metadata !2164), !dbg !3842
	call void @llvm.dbg.declare (metadata i32** %resultlen.addr, metadata !3849, metadata !2164), !dbg !3842
	store i32* %resultlen.arg, i32** %resultlen.addr, align 8, !tbaa !2188
	call void @llvm.dbg.declare (metadata i32** %resultlen.addr, metadata !3850, metadata !2164), !dbg !3842
	%0 = load %struct._ZN3MPI8DatatypeE*, %struct._ZN3MPI8DatatypeE** %_T47727800_12205.addr, align 8, !tbaa !2188, !dbg !3851
	%1 = bitcast %struct._ZN3MPI8DatatypeE*  %0 to i8*, !dbg !3851
	%2 = getelementptr i8, i8*  %1, i64 8, !dbg !3851
	%3 = bitcast i8*  %2 to %struct.ompi_datatype_t**, !dbg !3851
	%4 = load %struct.ompi_datatype_t*, %struct.ompi_datatype_t**  %3, align 8, !tbaa !2188, !dbg !3851
	%5 = load i8*, i8** %type_name.addr, align 8, !tbaa !2188, !dbg !3851
	%6 = load i32*, i32** %resultlen.addr, align 8, !tbaa !2188, !dbg !3851
	%7 = call i32  @MPI_Type_get_name (%struct.ompi_datatype_t*  %4, i8*  %5, i32*  %6) nounwind, !dbg !3851
	ret void, !dbg !3852
}
define linkonce_odr void @_ZN3MPI8Datatype8Set_attrEiPKv(%struct._ZN3MPI8DatatypeE* %_T47727800_12206.arg, i32 signext %type_keyval.arg, i8* %attribute_val.arg) #0 inlinehint !dbg !3854 {
L.entry:
	%_T47727800_12206.addr = alloca %struct._ZN3MPI8DatatypeE*, align 8
	%type_keyval.addr = alloca i32, align 4
	%attribute_val.addr = alloca i8*, align 8

	call void @llvm.dbg.declare (metadata %struct._ZN3MPI8DatatypeE** %_T47727800_12206.addr, metadata !3858, metadata !2164), !dbg !3855
	store %struct._ZN3MPI8DatatypeE* %_T47727800_12206.arg, %struct._ZN3MPI8DatatypeE** %_T47727800_12206.addr, align 8, !tbaa !2188
	call void @llvm.dbg.declare (metadata %struct._ZN3MPI8DatatypeE** %_T47727800_12206.addr, metadata !3859, metadata !2164), !dbg !3855
	call void @llvm.dbg.declare (metadata i32* %type_keyval.addr, metadata !3860, metadata !2164), !dbg !3855
	store i32 %type_keyval.arg, i32* %type_keyval.addr, align 4, !tbaa !2332
	call void @llvm.dbg.declare (metadata i32* %type_keyval.addr, metadata !3861, metadata !2164), !dbg !3855
	call void @llvm.dbg.declare (metadata i8** %attribute_val.addr, metadata !3862, metadata !2164), !dbg !3855
	store i8* %attribute_val.arg, i8** %attribute_val.addr, align 8, !tbaa !2188
	call void @llvm.dbg.declare (metadata i8** %attribute_val.addr, metadata !3863, metadata !2164), !dbg !3855
	%0 = load %struct._ZN3MPI8DatatypeE*, %struct._ZN3MPI8DatatypeE** %_T47727800_12206.addr, align 8, !tbaa !2188, !dbg !3864
	%1 = bitcast %struct._ZN3MPI8DatatypeE*  %0 to i8*, !dbg !3864
	%2 = getelementptr i8, i8*  %1, i64 8, !dbg !3864
	%3 = bitcast i8*  %2 to %struct.ompi_datatype_t**, !dbg !3864
	%4 = load %struct.ompi_datatype_t*, %struct.ompi_datatype_t**  %3, align 8, !tbaa !2188, !dbg !3864
	%5 = load i32, i32* %type_keyval.addr, align 4, !tbaa !2190, !dbg !3864
	%6 = load i8*, i8** %attribute_val.addr, align 8, !tbaa !2188, !dbg !3864
	%7 = call i32  @MPI_Type_set_attr (%struct.ompi_datatype_t*  %4, i32  %5, i8*  %6) nounwind, !dbg !3864
	ret void, !dbg !3865
}
define linkonce_odr void @_ZN3MPI8Datatype8Set_nameEPKc(%struct._ZN3MPI8DatatypeE* %_T47727800_12207.arg, i8* %type_name.arg) #0 inlinehint !dbg !3867 {
L.entry:
	%_T47727800_12207.addr = alloca %struct._ZN3MPI8DatatypeE*, align 8
	%type_name.addr = alloca i8*, align 8

	call void @llvm.dbg.declare (metadata %struct._ZN3MPI8DatatypeE** %_T47727800_12207.addr, metadata !3871, metadata !2164), !dbg !3868
	store %struct._ZN3MPI8DatatypeE* %_T47727800_12207.arg, %struct._ZN3MPI8DatatypeE** %_T47727800_12207.addr, align 8, !tbaa !2188
	call void @llvm.dbg.declare (metadata %struct._ZN3MPI8DatatypeE** %_T47727800_12207.addr, metadata !3872, metadata !2164), !dbg !3868
	call void @llvm.dbg.declare (metadata i8** %type_name.addr, metadata !3873, metadata !2164), !dbg !3868
	store i8* %type_name.arg, i8** %type_name.addr, align 8, !tbaa !2188
	call void @llvm.dbg.declare (metadata i8** %type_name.addr, metadata !3874, metadata !2164), !dbg !3868
	%0 = load %struct._ZN3MPI8DatatypeE*, %struct._ZN3MPI8DatatypeE** %_T47727800_12207.addr, align 8, !tbaa !2188, !dbg !3875
	%1 = bitcast %struct._ZN3MPI8DatatypeE*  %0 to i8*, !dbg !3875
	%2 = getelementptr i8, i8*  %1, i64 8, !dbg !3875
	%3 = bitcast i8*  %2 to %struct.ompi_datatype_t**, !dbg !3875
	%4 = load %struct.ompi_datatype_t*, %struct.ompi_datatype_t**  %3, align 8, !tbaa !2188, !dbg !3875
	%5 = load i8*, i8** %type_name.addr, align 8, !tbaa !2188, !dbg !3875
	%6 = call i32  @MPI_Type_set_name (%struct.ompi_datatype_t*  %4, i8*  %5) nounwind, !dbg !3875
	ret void, !dbg !3876
}

%struct._ZN3MPI2OpE = type <{ i32 (...)* (...)*, %struct.ompi_op_t*}> 
%struct.ompi_op_t = type opaque

define linkonce_odr void @_ZN3MPI2OpD1Ev(%struct._ZN3MPI2OpE* %_T47727800_12208.arg) #0 inlinehint !dbg !3880 {
L.entry:
	%_T47727800_12208.addr = alloca %struct._ZN3MPI2OpE*, align 8

	call void @llvm.dbg.declare (metadata %struct._ZN3MPI2OpE** %_T47727800_12208.addr, metadata !3884, metadata !2164), !dbg !3881
	store %struct._ZN3MPI2OpE* %_T47727800_12208.arg, %struct._ZN3MPI2OpE** %_T47727800_12208.addr, align 8, !tbaa !2188
	call void @llvm.dbg.declare (metadata %struct._ZN3MPI2OpE** %_T47727800_12208.addr, metadata !3885, metadata !2164), !dbg !3881
	%0 = bitcast [8 x i32 (...)* (...)*]* @_ZTVN3MPI2OpE to i8*, !dbg !3886
	%1 = getelementptr i8, i8*  %0, i64 16, !dbg !3886
	%2 = load %struct._ZN3MPI2OpE*, %struct._ZN3MPI2OpE** %_T47727800_12208.addr, align 8, !tbaa !2188, !dbg !3886
	%3 = bitcast %struct._ZN3MPI2OpE*  %2 to i8**, !dbg !3886
	store i8*  %1, i8**  %3, align 8, !tbaa !2188, !dbg !3886
	ret void, !dbg !3890
}
define linkonce_odr void @_ZN3MPI2OpD0Ev(%struct._ZN3MPI2OpE* %_T47727800_12209.arg) #0 inlinehint !dbg !3892 {
L.entry:
	%_T47727800_12209.addr = alloca %struct._ZN3MPI2OpE*, align 8

	store %struct._ZN3MPI2OpE* %_T47727800_12209.arg, %struct._ZN3MPI2OpE** %_T47727800_12209.addr, align 8, !tbaa !2188
	%0 = bitcast [8 x i32 (...)* (...)*]* @_ZTVN3MPI2OpE to i8*, !dbg !3900
	%1 = getelementptr i8, i8*  %0, i64 16, !dbg !3900
	%2 = load %struct._ZN3MPI2OpE*, %struct._ZN3MPI2OpE** %_T47727800_12209.addr, align 8, !tbaa !2188, !dbg !3900
	%3 = bitcast %struct._ZN3MPI2OpE*  %2 to i8**, !dbg !3900
	store i8*  %1, i8**  %3, align 8, !tbaa !2188, !dbg !3900
	%4 = bitcast %struct._ZN3MPI2OpE*  %2 to i8*, !dbg !3900
	call void  @_ZdlPvm (i8*  %4, i64 16) nounwind, !dbg !3900
	ret void, !dbg !3900
}
define linkonce_odr void @_ZN3MPI2OpD2Ev(%struct._ZN3MPI2OpE* %_T47727800_12210.arg) #0 inlinehint !dbg !3902 {
L.entry:
	%_T47727800_12210.addr = alloca %struct._ZN3MPI2OpE*, align 8

	store %struct._ZN3MPI2OpE* %_T47727800_12210.arg, %struct._ZN3MPI2OpE** %_T47727800_12210.addr, align 8, !tbaa !2188
	%0 = bitcast [8 x i32 (...)* (...)*]* @_ZTVN3MPI2OpE to i8*, !dbg !3910
	%1 = getelementptr i8, i8*  %0, i64 16, !dbg !3910
	%2 = load %struct._ZN3MPI2OpE*, %struct._ZN3MPI2OpE** %_T47727800_12210.addr, align 8, !tbaa !2188, !dbg !3910
	%3 = bitcast %struct._ZN3MPI2OpE*  %2 to i8**, !dbg !3910
	store i8*  %1, i8**  %3, align 8, !tbaa !2188, !dbg !3910
	ret void, !dbg !3910
}
define linkonce_odr %struct.ompi_op_t* @_ZNK3MPI2OpcvP9ompi_op_tEv(%struct._ZN3MPI2OpE* %_T47727800_12212.arg) #0 inlinehint !dbg !3914 {
L.entry:
	%_T47727800_12212.addr = alloca %struct._ZN3MPI2OpE*, align 8

	call void @llvm.dbg.declare (metadata %struct._ZN3MPI2OpE** %_T47727800_12212.addr, metadata !3918, metadata !2164), !dbg !3915
	store %struct._ZN3MPI2OpE* %_T47727800_12212.arg, %struct._ZN3MPI2OpE** %_T47727800_12212.addr, align 8, !tbaa !2188
	call void @llvm.dbg.declare (metadata %struct._ZN3MPI2OpE** %_T47727800_12212.addr, metadata !3919, metadata !2164), !dbg !3915
	%0 = load %struct._ZN3MPI2OpE*, %struct._ZN3MPI2OpE** %_T47727800_12212.addr, align 8, !tbaa !2188, !dbg !3920
	%1 = bitcast %struct._ZN3MPI2OpE*  %0 to i8*, !dbg !3920
	%2 = getelementptr i8, i8*  %1, i64 8, !dbg !3920
	%3 = bitcast i8*  %2 to %struct.ompi_op_t**, !dbg !3920
	%4 = load %struct.ompi_op_t*, %struct.ompi_op_t**  %3, align 8, !tbaa !2188, !dbg !3920
	ret %struct.ompi_op_t*  %4, !dbg !3920
}
define linkonce_odr void @_ZN3MPI2Op4InitEPFvPKvPviRKNS_8DatatypeEEb(%struct._ZN3MPI2OpE* %_T47727800_12214.arg, void (i8*, i8*, i32, %struct._ZN3MPI8DatatypeE*)* %func.arg, i8 signext %commute.arg) #0 inlinehint !dbg !3922 {
L.entry:
	%_T47727800_12214.addr = alloca %struct._ZN3MPI2OpE*, align 8
	%func.addr = alloca void (i8*, i8*, i32, %struct._ZN3MPI8DatatypeE*)*, align 8
	%commute.addr = alloca i8, align 1

	call void @llvm.dbg.declare (metadata %struct._ZN3MPI2OpE** %_T47727800_12214.addr, metadata !3926, metadata !2164), !dbg !3923
	store %struct._ZN3MPI2OpE* %_T47727800_12214.arg, %struct._ZN3MPI2OpE** %_T47727800_12214.addr, align 8, !tbaa !2188
	call void @llvm.dbg.declare (metadata %struct._ZN3MPI2OpE** %_T47727800_12214.addr, metadata !3927, metadata !2164), !dbg !3923
	call void @llvm.dbg.declare (metadata void (i8*, i8*, i32, %struct._ZN3MPI8DatatypeE*)** %func.addr, metadata !3928, metadata !2164), !dbg !3923
	store void (i8*, i8*, i32, %struct._ZN3MPI8DatatypeE*)* %func.arg, void (i8*, i8*, i32, %struct._ZN3MPI8DatatypeE*)** %func.addr, align 8, !tbaa !2188
	call void @llvm.dbg.declare (metadata void (i8*, i8*, i32, %struct._ZN3MPI8DatatypeE*)** %func.addr, metadata !3929, metadata !2164), !dbg !3923
	call void @llvm.dbg.declare (metadata i8* %commute.addr, metadata !3930, metadata !2164), !dbg !3923
	store i8 %commute.arg, i8* %commute.addr, align 1, !tbaa !2332
	call void @llvm.dbg.declare (metadata i8* %commute.addr, metadata !3931, metadata !2164), !dbg !3923
	%0 = bitcast void (i8*, i8*, i32*, %struct.ompi_datatype_t**, void (i8*, i8*, i32*, %struct.ompi_datatype_t**)*)* @ompi_mpi_cxx_op_intercept to void (i8*, i8*, i32*, %struct.ompi_datatype_t**)*, !dbg !3932
	%1 = load i8, i8* %commute.addr, align 1, !tbaa !2332, !dbg !3932
	%2 = sext i8  %1 to i32, !dbg !3932
	%3 = load %struct._ZN3MPI2OpE*, %struct._ZN3MPI2OpE** %_T47727800_12214.addr, align 8, !tbaa !2188, !dbg !3932
	%4 = bitcast %struct._ZN3MPI2OpE*  %3 to i8*, !dbg !3932
	%5 = getelementptr i8, i8*  %4, i64 8, !dbg !3932
	%6 = bitcast i8*  %5 to %struct.ompi_op_t**, !dbg !3932
	%7 = call i32  @MPI_Op_create (void (i8*, i8*, i32*, %struct.ompi_datatype_t**)*  %0, i32  %2, %struct.ompi_op_t**  %6) nounwind, !dbg !3932
	%8 = load %struct._ZN3MPI2OpE*, %struct._ZN3MPI2OpE** %_T47727800_12214.addr, align 8, !tbaa !2188, !dbg !3933
	%9 = bitcast %struct._ZN3MPI2OpE*  %8 to i8*, !dbg !3933
	%10 = getelementptr i8, i8*  %9, i64 8, !dbg !3933
	%11 = bitcast i8*  %10 to %struct.ompi_op_t**, !dbg !3933
	%12 = load %struct.ompi_op_t*, %struct.ompi_op_t**  %11, align 8, !tbaa !2188, !dbg !3933
	%13 = load void (i8*, i8*, i32, %struct._ZN3MPI8DatatypeE*)*, void (i8*, i8*, i32, %struct._ZN3MPI8DatatypeE*)** %func.addr, align 8, !tbaa !2188, !dbg !3933
	%14 = bitcast void (i8*, i8*, i32, %struct._ZN3MPI8DatatypeE*)*  %13 to void (i8*, i8*, i32*, %struct.ompi_datatype_t**)*, !dbg !3933
	call void  @ompi_op_set_cxx_callback (%struct.ompi_op_t*  %12, void (i8*, i8*, i32*, %struct.ompi_datatype_t**)*  %14) nounwind, !dbg !3933
	ret void, !dbg !3934
}
define linkonce_odr void @_ZN3MPI2Op4FreeEv(%struct._ZN3MPI2OpE* %_T47727800_12215.arg) #0 inlinehint !dbg !3936 {
L.entry:
	%_T47727800_12215.addr = alloca %struct._ZN3MPI2OpE*, align 8

	call void @llvm.dbg.declare (metadata %struct._ZN3MPI2OpE** %_T47727800_12215.addr, metadata !3940, metadata !2164), !dbg !3937
	store %struct._ZN3MPI2OpE* %_T47727800_12215.arg, %struct._ZN3MPI2OpE** %_T47727800_12215.addr, align 8, !tbaa !2188
	call void @llvm.dbg.declare (metadata %struct._ZN3MPI2OpE** %_T47727800_12215.addr, metadata !3941, metadata !2164), !dbg !3937
	%0 = load %struct._ZN3MPI2OpE*, %struct._ZN3MPI2OpE** %_T47727800_12215.addr, align 8, !tbaa !2188, !dbg !3942
	%1 = bitcast %struct._ZN3MPI2OpE*  %0 to i8*, !dbg !3942
	%2 = getelementptr i8, i8*  %1, i64 8, !dbg !3942
	%3 = bitcast i8*  %2 to %struct.ompi_op_t**, !dbg !3942
	%4 = call i32  @MPI_Op_free (%struct.ompi_op_t**  %3) nounwind, !dbg !3942
	ret void, !dbg !3943
}
define linkonce_odr void @_ZNK3MPI2Op12Reduce_localEPKvPviRKNS_8DatatypeE(%struct._ZN3MPI2OpE* %_T47727800_12216.arg, i8* %inbuf.arg, i8* %inoutbuf.arg, i32 signext %count.arg, %struct._ZN3MPI8DatatypeE* %datatype.arg) #0 inlinehint !dbg !3945 {
L.entry:
	%_T47727800_12216.addr = alloca %struct._ZN3MPI2OpE*, align 8
	%inbuf.addr = alloca i8*, align 8
	%inoutbuf.addr = alloca i8*, align 8
	%count.addr = alloca i32, align 4
	%datatype.addr = alloca %struct._ZN3MPI8DatatypeE*, align 8
	%..inline.addr = alloca %struct._ZN3MPI8DatatypeE*, align 8

	call void @llvm.dbg.declare (metadata %struct._ZN3MPI2OpE** %_T47727800_12216.addr, metadata !3953, metadata !2164), !dbg !3946
	store %struct._ZN3MPI2OpE* %_T47727800_12216.arg, %struct._ZN3MPI2OpE** %_T47727800_12216.addr, align 8, !tbaa !2188
	call void @llvm.dbg.declare (metadata %struct._ZN3MPI2OpE** %_T47727800_12216.addr, metadata !3954, metadata !2164), !dbg !3946
	call void @llvm.dbg.declare (metadata i8** %inbuf.addr, metadata !3955, metadata !2164), !dbg !3946
	store i8* %inbuf.arg, i8** %inbuf.addr, align 8, !tbaa !2188
	call void @llvm.dbg.declare (metadata i8** %inbuf.addr, metadata !3956, metadata !2164), !dbg !3946
	call void @llvm.dbg.declare (metadata i8** %inoutbuf.addr, metadata !3957, metadata !2164), !dbg !3946
	store i8* %inoutbuf.arg, i8** %inoutbuf.addr, align 8, !tbaa !2188
	call void @llvm.dbg.declare (metadata i8** %inoutbuf.addr, metadata !3958, metadata !2164), !dbg !3946
	call void @llvm.dbg.declare (metadata i32* %count.addr, metadata !3959, metadata !2164), !dbg !3946
	store i32 %count.arg, i32* %count.addr, align 4, !tbaa !2332
	call void @llvm.dbg.declare (metadata i32* %count.addr, metadata !3960, metadata !2164), !dbg !3946
	call void @llvm.dbg.declare (metadata %struct._ZN3MPI8DatatypeE** %datatype.addr, metadata !3961, metadata !2164), !dbg !3946
	store %struct._ZN3MPI8DatatypeE* %datatype.arg, %struct._ZN3MPI8DatatypeE** %datatype.addr, align 8, !tbaa !2188
	call void @llvm.dbg.declare (metadata %struct._ZN3MPI8DatatypeE** %datatype.addr, metadata !3962, metadata !2164), !dbg !3946
	%0 = load %struct._ZN3MPI8DatatypeE*, %struct._ZN3MPI8DatatypeE** %datatype.addr, align 8, !tbaa !2188, !dbg !3963
	%1 = bitcast %struct._ZN3MPI8DatatypeE*  %0 to i8*, !dbg !3963
	%2 = bitcast %struct._ZN3MPI8DatatypeE** %..inline.addr to i8**, !dbg !3963
	store i8*  %1, i8**  %2, align 8, !tbaa !2188, !dbg !3963
	%3 = load i8*, i8** %inbuf.addr, align 8, !tbaa !2188, !dbg !3964
	%4 = load i8*, i8** %inoutbuf.addr, align 8, !tbaa !2188, !dbg !3964
	%5 = load i32, i32* %count.addr, align 4, !tbaa !2190, !dbg !3964
	%6 = load %struct._ZN3MPI8DatatypeE*, %struct._ZN3MPI8DatatypeE** %..inline.addr, align 8, !tbaa !2188, !dbg !3964
	%7 = bitcast %struct._ZN3MPI8DatatypeE*  %6 to i8*, !dbg !3964
	%8 = getelementptr i8, i8*  %7, i64 8, !dbg !3964
	%9 = bitcast i8*  %8 to %struct.ompi_datatype_t**, !dbg !3964
	%10 = load %struct.ompi_datatype_t*, %struct.ompi_datatype_t**  %9, align 8, !tbaa !2188, !dbg !3964
	%11 = load %struct._ZN3MPI2OpE*, %struct._ZN3MPI2OpE** %_T47727800_12216.addr, align 8, !tbaa !2188, !dbg !3964
	%12 = bitcast %struct._ZN3MPI2OpE*  %11 to i8*, !dbg !3964
	%13 = getelementptr i8, i8*  %12, i64 8, !dbg !3964
	%14 = bitcast i8*  %13 to %struct.ompi_op_t**, !dbg !3964
	%15 = load %struct.ompi_op_t*, %struct.ompi_op_t**  %14, align 8, !tbaa !2188, !dbg !3964
	%16 = call i32  @MPI_Reduce_local (i8*  %3, i8*  %4, i32  %5, %struct.ompi_datatype_t*  %10, %struct.ompi_op_t*  %15) nounwind, !dbg !3964
	ret void, !dbg !3965
}
define linkonce_odr signext i8 @_ZNK3MPI2Op14Is_commutativeEv(%struct._ZN3MPI2OpE* %_T47727800_12217.arg) #0 inlinehint !dbg !3967 {
L.entry:
	%_T47727800_12217.addr = alloca %struct._ZN3MPI2OpE*, align 8
	%commute.addr = alloca i32, align 4

	call void @llvm.dbg.declare (metadata %struct._ZN3MPI2OpE** %_T47727800_12217.addr, metadata !3971, metadata !2164), !dbg !3968
	store %struct._ZN3MPI2OpE* %_T47727800_12217.arg, %struct._ZN3MPI2OpE** %_T47727800_12217.addr, align 8, !tbaa !2188
	call void @llvm.dbg.declare (metadata %struct._ZN3MPI2OpE** %_T47727800_12217.addr, metadata !3972, metadata !2164), !dbg !3968
	%0 = load %struct._ZN3MPI2OpE*, %struct._ZN3MPI2OpE** %_T47727800_12217.addr, align 8, !tbaa !2188, !dbg !3973
	%1 = bitcast %struct._ZN3MPI2OpE*  %0 to i8*, !dbg !3973
	%2 = getelementptr i8, i8*  %1, i64 8, !dbg !3973
	%3 = bitcast i8*  %2 to %struct.ompi_op_t**, !dbg !3973
	%4 = load %struct.ompi_op_t*, %struct.ompi_op_t**  %3, align 8, !tbaa !2188, !dbg !3973
	call void @llvm.dbg.declare (metadata i32* %commute.addr, metadata !3974, metadata !2164), !dbg !3968
	%5 = call i32  @MPI_Op_commutative (%struct.ompi_op_t*  %4, i32* %commute.addr) nounwind, !dbg !3973
	%6 = load i32, i32* %commute.addr, align 4, !tbaa !2190, !dbg !3975
	%7 = icmp ne i32  %6, 0, !dbg !3975
	%8 = zext i1  %7 to i32, !dbg !3975
	%9 = trunc i32  %8 to i8, !dbg !3975
	ret i8  %9, !dbg !3975
}

%struct._ZN3MPI6StatusE = type <{ i32 (...)* (...)*, %struct.ompi_status_public_t}> 
%struct.ompi_status_public_t = type <{ i32, i32, i32, i32, i64}> 

define linkonce_odr void @_ZN3MPI6StatusD1Ev(%struct._ZN3MPI6StatusE* %_T47727800_12218.arg) #0 inlinehint !dbg !3982 {
L.entry:
	%_T47727800_12218.addr = alloca %struct._ZN3MPI6StatusE*, align 8

	call void @llvm.dbg.declare (metadata %struct._ZN3MPI6StatusE** %_T47727800_12218.addr, metadata !3986, metadata !2164), !dbg !3983
	store %struct._ZN3MPI6StatusE* %_T47727800_12218.arg, %struct._ZN3MPI6StatusE** %_T47727800_12218.addr, align 8, !tbaa !2188
	call void @llvm.dbg.declare (metadata %struct._ZN3MPI6StatusE** %_T47727800_12218.addr, metadata !3987, metadata !2164), !dbg !3983
	%0 = bitcast [15 x i32 (...)* (...)*]* @_ZTVN3MPI6StatusE to i8*, !dbg !3988
	%1 = getelementptr i8, i8*  %0, i64 16, !dbg !3988
	%2 = load %struct._ZN3MPI6StatusE*, %struct._ZN3MPI6StatusE** %_T47727800_12218.addr, align 8, !tbaa !2188, !dbg !3988
	%3 = bitcast %struct._ZN3MPI6StatusE*  %2 to i8**, !dbg !3988
	store i8*  %1, i8**  %3, align 8, !tbaa !2188, !dbg !3988
	ret void, !dbg !3988
}
define linkonce_odr void @_ZN3MPI6StatusD0Ev(%struct._ZN3MPI6StatusE* %_T47727800_12219.arg) #0 inlinehint !dbg !3995 {
L.entry:
	%_T47727800_12219.addr = alloca %struct._ZN3MPI6StatusE*, align 8

	store %struct._ZN3MPI6StatusE* %_T47727800_12219.arg, %struct._ZN3MPI6StatusE** %_T47727800_12219.addr, align 8, !tbaa !2188
	%0 = bitcast [15 x i32 (...)* (...)*]* @_ZTVN3MPI6StatusE to i8*, !dbg !4003
	%1 = getelementptr i8, i8*  %0, i64 16, !dbg !4003
	%2 = load %struct._ZN3MPI6StatusE*, %struct._ZN3MPI6StatusE** %_T47727800_12219.addr, align 8, !tbaa !2188, !dbg !4003
	%3 = bitcast %struct._ZN3MPI6StatusE*  %2 to i8**, !dbg !4003
	store i8*  %1, i8**  %3, align 8, !tbaa !2188, !dbg !4003
	%4 = bitcast %struct._ZN3MPI6StatusE*  %2 to i8*, !dbg !4003
	call void  @_ZdlPvm (i8*  %4, i64 32) nounwind, !dbg !4003
	ret void, !dbg !4003
}
define linkonce_odr void @_ZN3MPI6StatusD2Ev(%struct._ZN3MPI6StatusE* %_T47727800_12220.arg) #0 inlinehint !dbg !4005 {
L.entry:
	%_T47727800_12220.addr = alloca %struct._ZN3MPI6StatusE*, align 8

	store %struct._ZN3MPI6StatusE* %_T47727800_12220.arg, %struct._ZN3MPI6StatusE** %_T47727800_12220.addr, align 8, !tbaa !2188
	%0 = bitcast [15 x i32 (...)* (...)*]* @_ZTVN3MPI6StatusE to i8*, !dbg !4013
	%1 = getelementptr i8, i8*  %0, i64 16, !dbg !4013
	%2 = load %struct._ZN3MPI6StatusE*, %struct._ZN3MPI6StatusE** %_T47727800_12220.addr, align 8, !tbaa !2188, !dbg !4013
	%3 = bitcast %struct._ZN3MPI6StatusE*  %2 to i8**, !dbg !4013
	store i8*  %1, i8**  %3, align 8, !tbaa !2188, !dbg !4013
	ret void, !dbg !4013
}
define linkonce_odr %struct._ZN3MPI6StatusE* @_ZN3MPI6StatusaSERK20ompi_status_public_t(%struct._ZN3MPI6StatusE* %_T47727800_12221.arg, %struct.ompi_status_public_t* %i.arg) #0 inlinehint !dbg !4025 {
L.entry:
	%_T47727800_12221.addr = alloca %struct._ZN3MPI6StatusE*, align 8
	%i.addr = alloca %struct.ompi_status_public_t*, align 8

	call void @llvm.dbg.declare (metadata %struct._ZN3MPI6StatusE** %_T47727800_12221.addr, metadata !4029, metadata !2164), !dbg !4026
	store %struct._ZN3MPI6StatusE* %_T47727800_12221.arg, %struct._ZN3MPI6StatusE** %_T47727800_12221.addr, align 8, !tbaa !2188
	call void @llvm.dbg.declare (metadata %struct._ZN3MPI6StatusE** %_T47727800_12221.addr, metadata !4030, metadata !2164), !dbg !4026
	call void @llvm.dbg.declare (metadata %struct.ompi_status_public_t** %i.addr, metadata !4031, metadata !2164), !dbg !4026
	store %struct.ompi_status_public_t* %i.arg, %struct.ompi_status_public_t** %i.addr, align 8, !tbaa !2188
	call void @llvm.dbg.declare (metadata %struct.ompi_status_public_t** %i.addr, metadata !4032, metadata !2164), !dbg !4026
	%0 = load %struct.ompi_status_public_t*, %struct.ompi_status_public_t** %i.addr, align 8, !tbaa !2188, !dbg !4033
	%1 = bitcast %struct.ompi_status_public_t*  %0 to i32*, !dbg !4033
	%2 = load i32, i32*  %1, align 4, !tbaa !2332, !dbg !4033
	%3 = load %struct._ZN3MPI6StatusE*, %struct._ZN3MPI6StatusE** %_T47727800_12221.addr, align 8, !tbaa !2188, !dbg !4033
	%4 = bitcast %struct._ZN3MPI6StatusE*  %3 to i8*, !dbg !4033
	%5 = getelementptr i8, i8*  %4, i64 8, !dbg !4033
	%6 = bitcast i8*  %5 to i32*, !dbg !4033
	store i32  %2, i32*  %6, align 4, !tbaa !2332, !dbg !4033
	%7 = bitcast i32*  %1 to i8*, !dbg !4033
	%8 = getelementptr i8, i8*  %7, i64 4, !dbg !4033
	%9 = bitcast i8*  %8 to i32*, !dbg !4033
	%10 = load i32, i32*  %9, align 4, !tbaa !2332, !dbg !4033
	%11 = getelementptr i8, i8*  %5, i64 4, !dbg !4033
	%12 = bitcast i8*  %11 to i32*, !dbg !4033
	store i32  %10, i32*  %12, align 4, !tbaa !2332, !dbg !4033
	%13 = getelementptr i8, i8*  %7, i64 8, !dbg !4033
	%14 = bitcast i8*  %13 to i32*, !dbg !4033
	%15 = load i32, i32*  %14, align 4, !tbaa !2332, !dbg !4033
	%16 = getelementptr i8, i8*  %5, i64 8, !dbg !4033
	%17 = bitcast i8*  %16 to i32*, !dbg !4033
	store i32  %15, i32*  %17, align 4, !tbaa !2332, !dbg !4033
	%18 = getelementptr i8, i8*  %7, i64 12, !dbg !4033
	%19 = bitcast i8*  %18 to i32*, !dbg !4033
	%20 = load i32, i32*  %19, align 4, !tbaa !2332, !dbg !4033
	%21 = getelementptr i8, i8*  %5, i64 12, !dbg !4033
	%22 = bitcast i8*  %21 to i32*, !dbg !4033
	store i32  %20, i32*  %22, align 4, !tbaa !2332, !dbg !4033
	%23 = getelementptr i8, i8*  %7, i64 16, !dbg !4033
	%24 = bitcast i8*  %23 to i64*, !dbg !4033
	%25 = load i64, i64*  %24, align 8, !tbaa !2332, !dbg !4033
	%26 = getelementptr i8, i8*  %5, i64 16, !dbg !4033
	%27 = bitcast i8*  %26 to i64*, !dbg !4033
	store i64  %25, i64*  %27, align 8, !tbaa !2332, !dbg !4033
	ret %struct._ZN3MPI6StatusE*  %3, !dbg !4033
}
define linkonce_odr signext i32 @_ZNK3MPI6Status9Get_countERKNS_8DatatypeE(%struct._ZN3MPI6StatusE* %_T47727800_12222.arg, %struct._ZN3MPI8DatatypeE* %datatype.arg) #0 inlinehint !dbg !4037 {
L.entry:
	%_T47727800_12222.addr = alloca %struct._ZN3MPI6StatusE*, align 8
	%datatype.addr = alloca %struct._ZN3MPI8DatatypeE*, align 8
	%..inline.addr = alloca %struct._ZN3MPI8DatatypeE*, align 8
	%count.addr = alloca i32, align 4

	call void @llvm.dbg.declare (metadata %struct._ZN3MPI6StatusE** %_T47727800_12222.addr, metadata !4045, metadata !2164), !dbg !4038
	store %struct._ZN3MPI6StatusE* %_T47727800_12222.arg, %struct._ZN3MPI6StatusE** %_T47727800_12222.addr, align 8, !tbaa !2188
	call void @llvm.dbg.declare (metadata %struct._ZN3MPI6StatusE** %_T47727800_12222.addr, metadata !4046, metadata !2164), !dbg !4038
	call void @llvm.dbg.declare (metadata %struct._ZN3MPI8DatatypeE** %datatype.addr, metadata !4047, metadata !2164), !dbg !4038
	store %struct._ZN3MPI8DatatypeE* %datatype.arg, %struct._ZN3MPI8DatatypeE** %datatype.addr, align 8, !tbaa !2188
	call void @llvm.dbg.declare (metadata %struct._ZN3MPI8DatatypeE** %datatype.addr, metadata !4048, metadata !2164), !dbg !4038
	%0 = load %struct._ZN3MPI8DatatypeE*, %struct._ZN3MPI8DatatypeE** %datatype.addr, align 8, !tbaa !2188, !dbg !4049
	%1 = bitcast %struct._ZN3MPI8DatatypeE*  %0 to i8*, !dbg !4049
	%2 = bitcast %struct._ZN3MPI8DatatypeE** %..inline.addr to i8**, !dbg !4049
	store i8*  %1, i8**  %2, align 8, !tbaa !2188, !dbg !4049
	%3 = load %struct._ZN3MPI6StatusE*, %struct._ZN3MPI6StatusE** %_T47727800_12222.addr, align 8, !tbaa !2188, !dbg !4050
	%4 = bitcast %struct._ZN3MPI6StatusE*  %3 to i8*, !dbg !4050
	%5 = getelementptr i8, i8*  %4, i64 8, !dbg !4050
	%6 = bitcast i8*  %5 to %struct.ompi_status_public_t*, !dbg !4050
	%7 = load %struct._ZN3MPI8DatatypeE*, %struct._ZN3MPI8DatatypeE** %..inline.addr, align 8, !tbaa !2188, !dbg !4050
	%8 = bitcast %struct._ZN3MPI8DatatypeE*  %7 to i8*, !dbg !4050
	%9 = getelementptr i8, i8*  %8, i64 8, !dbg !4050
	%10 = bitcast i8*  %9 to %struct.ompi_datatype_t**, !dbg !4050
	%11 = load %struct.ompi_datatype_t*, %struct.ompi_datatype_t**  %10, align 8, !tbaa !2188, !dbg !4050
	call void @llvm.dbg.declare (metadata i32* %count.addr, metadata !4051, metadata !2164), !dbg !4038
	%12 = call i32  @MPI_Get_count (%struct.ompi_status_public_t*  %6, %struct.ompi_datatype_t*  %11, i32* %count.addr) nounwind, !dbg !4050
	%13 = load i32, i32* %count.addr, align 4, !tbaa !2190, !dbg !4052
	ret i32  %13, !dbg !4052
}
define linkonce_odr signext i8 @_ZNK3MPI6Status12Is_cancelledEv(%struct._ZN3MPI6StatusE* %_T47727800_12223.arg) #0 inlinehint !dbg !4055 {
L.entry:
	%_T47727800_12223.addr = alloca %struct._ZN3MPI6StatusE*, align 8
	%t.addr = alloca i32, align 4

	call void @llvm.dbg.declare (metadata %struct._ZN3MPI6StatusE** %_T47727800_12223.addr, metadata !4059, metadata !2164), !dbg !4056
	store %struct._ZN3MPI6StatusE* %_T47727800_12223.arg, %struct._ZN3MPI6StatusE** %_T47727800_12223.addr, align 8, !tbaa !2188
	call void @llvm.dbg.declare (metadata %struct._ZN3MPI6StatusE** %_T47727800_12223.addr, metadata !4060, metadata !2164), !dbg !4056
	%0 = load %struct._ZN3MPI6StatusE*, %struct._ZN3MPI6StatusE** %_T47727800_12223.addr, align 8, !tbaa !2188, !dbg !4061
	%1 = bitcast %struct._ZN3MPI6StatusE*  %0 to i8*, !dbg !4061
	%2 = getelementptr i8, i8*  %1, i64 8, !dbg !4061
	%3 = bitcast i8*  %2 to %struct.ompi_status_public_t*, !dbg !4061
	call void @llvm.dbg.declare (metadata i32* %t.addr, metadata !4062, metadata !2164), !dbg !4056
	%4 = call i32  @MPI_Test_cancelled (%struct.ompi_status_public_t*  %3, i32* %t.addr) nounwind, !dbg !4061
	%5 = load i32, i32* %t.addr, align 4, !tbaa !2190, !dbg !4063
	%6 = icmp ne i32  %5, 0, !dbg !4063
	%7 = zext i1  %6 to i32, !dbg !4063
	%8 = trunc i32  %7 to i8, !dbg !4063
	ret i8  %8, !dbg !4063
}
define linkonce_odr signext i32 @_ZNK3MPI6Status12Get_elementsERKNS_8DatatypeE(%struct._ZN3MPI6StatusE* %_T47727800_12224.arg, %struct._ZN3MPI8DatatypeE* %datatype.arg) #0 inlinehint !dbg !4066 {
L.entry:
	%_T47727800_12224.addr = alloca %struct._ZN3MPI6StatusE*, align 8
	%datatype.addr = alloca %struct._ZN3MPI8DatatypeE*, align 8
	%..inline.addr = alloca %struct._ZN3MPI8DatatypeE*, align 8
	%count.addr = alloca i32, align 4

	call void @llvm.dbg.declare (metadata %struct._ZN3MPI6StatusE** %_T47727800_12224.addr, metadata !4074, metadata !2164), !dbg !4067
	store %struct._ZN3MPI6StatusE* %_T47727800_12224.arg, %struct._ZN3MPI6StatusE** %_T47727800_12224.addr, align 8, !tbaa !2188
	call void @llvm.dbg.declare (metadata %struct._ZN3MPI6StatusE** %_T47727800_12224.addr, metadata !4075, metadata !2164), !dbg !4067
	call void @llvm.dbg.declare (metadata %struct._ZN3MPI8DatatypeE** %datatype.addr, metadata !4076, metadata !2164), !dbg !4067
	store %struct._ZN3MPI8DatatypeE* %datatype.arg, %struct._ZN3MPI8DatatypeE** %datatype.addr, align 8, !tbaa !2188
	call void @llvm.dbg.declare (metadata %struct._ZN3MPI8DatatypeE** %datatype.addr, metadata !4077, metadata !2164), !dbg !4067
	%0 = load %struct._ZN3MPI8DatatypeE*, %struct._ZN3MPI8DatatypeE** %datatype.addr, align 8, !tbaa !2188, !dbg !4078
	%1 = bitcast %struct._ZN3MPI8DatatypeE*  %0 to i8*, !dbg !4078
	%2 = bitcast %struct._ZN3MPI8DatatypeE** %..inline.addr to i8**, !dbg !4078
	store i8*  %1, i8**  %2, align 8, !tbaa !2188, !dbg !4078
	%3 = load %struct._ZN3MPI6StatusE*, %struct._ZN3MPI6StatusE** %_T47727800_12224.addr, align 8, !tbaa !2188, !dbg !4079
	%4 = bitcast %struct._ZN3MPI6StatusE*  %3 to i8*, !dbg !4079
	%5 = getelementptr i8, i8*  %4, i64 8, !dbg !4079
	%6 = bitcast i8*  %5 to %struct.ompi_status_public_t*, !dbg !4079
	%7 = load %struct._ZN3MPI8DatatypeE*, %struct._ZN3MPI8DatatypeE** %..inline.addr, align 8, !tbaa !2188, !dbg !4079
	%8 = bitcast %struct._ZN3MPI8DatatypeE*  %7 to i8*, !dbg !4079
	%9 = getelementptr i8, i8*  %8, i64 8, !dbg !4079
	%10 = bitcast i8*  %9 to %struct.ompi_datatype_t**, !dbg !4079
	%11 = load %struct.ompi_datatype_t*, %struct.ompi_datatype_t**  %10, align 8, !tbaa !2188, !dbg !4079
	call void @llvm.dbg.declare (metadata i32* %count.addr, metadata !4080, metadata !2164), !dbg !4067
	%12 = call i32  @MPI_Get_elements (%struct.ompi_status_public_t*  %6, %struct.ompi_datatype_t*  %11, i32* %count.addr) nounwind, !dbg !4079
	%13 = load i32, i32* %count.addr, align 4, !tbaa !2190, !dbg !4081
	ret i32  %13, !dbg !4081
}
define linkonce_odr signext i32 @_ZNK3MPI6Status10Get_sourceEv(%struct._ZN3MPI6StatusE* %_T47727800_12225.arg) #0 inlinehint !dbg !4084 {
L.entry:
	%_T47727800_12225.addr = alloca %struct._ZN3MPI6StatusE*, align 8

	call void @llvm.dbg.declare (metadata %struct._ZN3MPI6StatusE** %_T47727800_12225.addr, metadata !4088, metadata !2164), !dbg !4085
	store %struct._ZN3MPI6StatusE* %_T47727800_12225.arg, %struct._ZN3MPI6StatusE** %_T47727800_12225.addr, align 8, !tbaa !2188
	call void @llvm.dbg.declare (metadata %struct._ZN3MPI6StatusE** %_T47727800_12225.addr, metadata !4089, metadata !2164), !dbg !4085
	%0 = load %struct._ZN3MPI6StatusE*, %struct._ZN3MPI6StatusE** %_T47727800_12225.addr, align 8, !tbaa !2188, !dbg !4090
	%1 = bitcast %struct._ZN3MPI6StatusE*  %0 to i8*, !dbg !4090
	%2 = getelementptr i8, i8*  %1, i64 8, !dbg !4090
	%3 = bitcast i8*  %2 to i32*, !dbg !4090
	%4 = load i32, i32*  %3, align 4, !tbaa !2332, !dbg !4090
	ret i32  %4, !dbg !4090
}
define linkonce_odr void @_ZN3MPI6Status10Set_sourceEi(%struct._ZN3MPI6StatusE* %_T47727800_12226.arg, i32 signext %source.arg) #0 inlinehint !dbg !4093 {
L.entry:
	%_T47727800_12226.addr = alloca %struct._ZN3MPI6StatusE*, align 8
	%source.addr = alloca i32, align 4

	call void @llvm.dbg.declare (metadata %struct._ZN3MPI6StatusE** %_T47727800_12226.addr, metadata !4097, metadata !2164), !dbg !4094
	store %struct._ZN3MPI6StatusE* %_T47727800_12226.arg, %struct._ZN3MPI6StatusE** %_T47727800_12226.addr, align 8, !tbaa !2188
	call void @llvm.dbg.declare (metadata %struct._ZN3MPI6StatusE** %_T47727800_12226.addr, metadata !4098, metadata !2164), !dbg !4094
	call void @llvm.dbg.declare (metadata i32* %source.addr, metadata !4099, metadata !2164), !dbg !4094
	store i32 %source.arg, i32* %source.addr, align 4, !tbaa !2332
	call void @llvm.dbg.declare (metadata i32* %source.addr, metadata !4100, metadata !2164), !dbg !4094
	%0 = load i32, i32* %source.addr, align 4, !tbaa !2190, !dbg !4101
	%1 = load %struct._ZN3MPI6StatusE*, %struct._ZN3MPI6StatusE** %_T47727800_12226.addr, align 8, !tbaa !2188, !dbg !4101
	%2 = bitcast %struct._ZN3MPI6StatusE*  %1 to i8*, !dbg !4101
	%3 = getelementptr i8, i8*  %2, i64 8, !dbg !4101
	%4 = bitcast i8*  %3 to i32*, !dbg !4101
	store i32  %0, i32*  %4, align 4, !tbaa !2332, !dbg !4101
	ret void, !dbg !4102
}
define linkonce_odr signext i32 @_ZNK3MPI6Status7Get_tagEv(%struct._ZN3MPI6StatusE* %_T47727800_12227.arg) #0 inlinehint !dbg !4104 {
L.entry:
	%_T47727800_12227.addr = alloca %struct._ZN3MPI6StatusE*, align 8

	call void @llvm.dbg.declare (metadata %struct._ZN3MPI6StatusE** %_T47727800_12227.addr, metadata !4108, metadata !2164), !dbg !4105
	store %struct._ZN3MPI6StatusE* %_T47727800_12227.arg, %struct._ZN3MPI6StatusE** %_T47727800_12227.addr, align 8, !tbaa !2188
	call void @llvm.dbg.declare (metadata %struct._ZN3MPI6StatusE** %_T47727800_12227.addr, metadata !4109, metadata !2164), !dbg !4105
	%0 = load %struct._ZN3MPI6StatusE*, %struct._ZN3MPI6StatusE** %_T47727800_12227.addr, align 8, !tbaa !2188, !dbg !4110
	%1 = bitcast %struct._ZN3MPI6StatusE*  %0 to i8*, !dbg !4110
	%2 = getelementptr i8, i8*  %1, i64 12, !dbg !4110
	%3 = bitcast i8*  %2 to i32*, !dbg !4110
	%4 = load i32, i32*  %3, align 4, !tbaa !2332, !dbg !4110
	ret i32  %4, !dbg !4110
}
define linkonce_odr void @_ZN3MPI6Status7Set_tagEi(%struct._ZN3MPI6StatusE* %_T47727800_12228.arg, i32 signext %tag.arg) #0 inlinehint !dbg !4113 {
L.entry:
	%_T47727800_12228.addr = alloca %struct._ZN3MPI6StatusE*, align 8
	%tag.addr = alloca i32, align 4

	call void @llvm.dbg.declare (metadata %struct._ZN3MPI6StatusE** %_T47727800_12228.addr, metadata !4117, metadata !2164), !dbg !4114
	store %struct._ZN3MPI6StatusE* %_T47727800_12228.arg, %struct._ZN3MPI6StatusE** %_T47727800_12228.addr, align 8, !tbaa !2188
	call void @llvm.dbg.declare (metadata %struct._ZN3MPI6StatusE** %_T47727800_12228.addr, metadata !4118, metadata !2164), !dbg !4114
	call void @llvm.dbg.declare (metadata i32* %tag.addr, metadata !4119, metadata !2164), !dbg !4114
	store i32 %tag.arg, i32* %tag.addr, align 4, !tbaa !2332
	call void @llvm.dbg.declare (metadata i32* %tag.addr, metadata !4120, metadata !2164), !dbg !4114
	%0 = load i32, i32* %tag.addr, align 4, !tbaa !2190, !dbg !4121
	%1 = load %struct._ZN3MPI6StatusE*, %struct._ZN3MPI6StatusE** %_T47727800_12228.addr, align 8, !tbaa !2188, !dbg !4121
	%2 = bitcast %struct._ZN3MPI6StatusE*  %1 to i8*, !dbg !4121
	%3 = getelementptr i8, i8*  %2, i64 12, !dbg !4121
	%4 = bitcast i8*  %3 to i32*, !dbg !4121
	store i32  %0, i32*  %4, align 4, !tbaa !2332, !dbg !4121
	ret void, !dbg !4122
}
define linkonce_odr signext i32 @_ZNK3MPI6Status9Get_errorEv(%struct._ZN3MPI6StatusE* %_T47727800_12229.arg) #0 inlinehint !dbg !4124 {
L.entry:
	%_T47727800_12229.addr = alloca %struct._ZN3MPI6StatusE*, align 8

	call void @llvm.dbg.declare (metadata %struct._ZN3MPI6StatusE** %_T47727800_12229.addr, metadata !4128, metadata !2164), !dbg !4125
	store %struct._ZN3MPI6StatusE* %_T47727800_12229.arg, %struct._ZN3MPI6StatusE** %_T47727800_12229.addr, align 8, !tbaa !2188
	call void @llvm.dbg.declare (metadata %struct._ZN3MPI6StatusE** %_T47727800_12229.addr, metadata !4129, metadata !2164), !dbg !4125
	%0 = load %struct._ZN3MPI6StatusE*, %struct._ZN3MPI6StatusE** %_T47727800_12229.addr, align 8, !tbaa !2188, !dbg !4130
	%1 = bitcast %struct._ZN3MPI6StatusE*  %0 to i8*, !dbg !4130
	%2 = getelementptr i8, i8*  %1, i64 16, !dbg !4130
	%3 = bitcast i8*  %2 to i32*, !dbg !4130
	%4 = load i32, i32*  %3, align 4, !tbaa !2332, !dbg !4130
	ret i32  %4, !dbg !4130
}
define linkonce_odr void @_ZN3MPI6Status9Set_errorEi(%struct._ZN3MPI6StatusE* %_T47727800_12230.arg, i32 signext %error.arg) #0 inlinehint !dbg !4133 {
L.entry:
	%_T47727800_12230.addr = alloca %struct._ZN3MPI6StatusE*, align 8
	%error.addr = alloca i32, align 4

	call void @llvm.dbg.declare (metadata %struct._ZN3MPI6StatusE** %_T47727800_12230.addr, metadata !4137, metadata !2164), !dbg !4134
	store %struct._ZN3MPI6StatusE* %_T47727800_12230.arg, %struct._ZN3MPI6StatusE** %_T47727800_12230.addr, align 8, !tbaa !2188
	call void @llvm.dbg.declare (metadata %struct._ZN3MPI6StatusE** %_T47727800_12230.addr, metadata !4138, metadata !2164), !dbg !4134
	call void @llvm.dbg.declare (metadata i32* %error.addr, metadata !4139, metadata !2164), !dbg !4134
	store i32 %error.arg, i32* %error.addr, align 4, !tbaa !2332
	call void @llvm.dbg.declare (metadata i32* %error.addr, metadata !4140, metadata !2164), !dbg !4134
	%0 = load i32, i32* %error.addr, align 4, !tbaa !2190, !dbg !4141
	%1 = load %struct._ZN3MPI6StatusE*, %struct._ZN3MPI6StatusE** %_T47727800_12230.addr, align 8, !tbaa !2188, !dbg !4141
	%2 = bitcast %struct._ZN3MPI6StatusE*  %1 to i8*, !dbg !4141
	%3 = getelementptr i8, i8*  %2, i64 16, !dbg !4141
	%4 = bitcast i8*  %3 to i32*, !dbg !4141
	store i32  %0, i32*  %4, align 4, !tbaa !2332, !dbg !4141
	ret void, !dbg !4142
}
define linkonce_odr void @_ZN3MPI6Status12Set_elementsERKNS_8DatatypeEi(%struct._ZN3MPI6StatusE* %_T47727800_12231.arg, %struct._ZN3MPI8DatatypeE* %datatype.arg, i32 signext %count.arg) #0 inlinehint !dbg !4144 {
L.entry:
	%_T47727800_12231.addr = alloca %struct._ZN3MPI6StatusE*, align 8
	%datatype.addr = alloca %struct._ZN3MPI8DatatypeE*, align 8
	%count.addr = alloca i32, align 4
	%..inline.addr = alloca %struct._ZN3MPI8DatatypeE*, align 8

	call void @llvm.dbg.declare (metadata %struct._ZN3MPI6StatusE** %_T47727800_12231.addr, metadata !4152, metadata !2164), !dbg !4145
	store %struct._ZN3MPI6StatusE* %_T47727800_12231.arg, %struct._ZN3MPI6StatusE** %_T47727800_12231.addr, align 8, !tbaa !2188
	call void @llvm.dbg.declare (metadata %struct._ZN3MPI6StatusE** %_T47727800_12231.addr, metadata !4153, metadata !2164), !dbg !4145
	call void @llvm.dbg.declare (metadata %struct._ZN3MPI8DatatypeE** %datatype.addr, metadata !4154, metadata !2164), !dbg !4145
	store %struct._ZN3MPI8DatatypeE* %datatype.arg, %struct._ZN3MPI8DatatypeE** %datatype.addr, align 8, !tbaa !2188
	call void @llvm.dbg.declare (metadata %struct._ZN3MPI8DatatypeE** %datatype.addr, metadata !4155, metadata !2164), !dbg !4145
	call void @llvm.dbg.declare (metadata i32* %count.addr, metadata !4156, metadata !2164), !dbg !4145
	store i32 %count.arg, i32* %count.addr, align 4, !tbaa !2332
	call void @llvm.dbg.declare (metadata i32* %count.addr, metadata !4157, metadata !2164), !dbg !4145
	%0 = load %struct._ZN3MPI8DatatypeE*, %struct._ZN3MPI8DatatypeE** %datatype.addr, align 8, !tbaa !2188, !dbg !4158
	%1 = bitcast %struct._ZN3MPI8DatatypeE*  %0 to i8*, !dbg !4158
	%2 = bitcast %struct._ZN3MPI8DatatypeE** %..inline.addr to i8**, !dbg !4158
	store i8*  %1, i8**  %2, align 8, !tbaa !2188, !dbg !4158
	%3 = load %struct._ZN3MPI6StatusE*, %struct._ZN3MPI6StatusE** %_T47727800_12231.addr, align 8, !tbaa !2188, !dbg !4159
	%4 = bitcast %struct._ZN3MPI6StatusE*  %3 to i8*, !dbg !4159
	%5 = getelementptr i8, i8*  %4, i64 8, !dbg !4159
	%6 = bitcast i8*  %5 to %struct.ompi_status_public_t*, !dbg !4159
	%7 = load %struct._ZN3MPI8DatatypeE*, %struct._ZN3MPI8DatatypeE** %..inline.addr, align 8, !tbaa !2188, !dbg !4159
	%8 = bitcast %struct._ZN3MPI8DatatypeE*  %7 to i8*, !dbg !4159
	%9 = getelementptr i8, i8*  %8, i64 8, !dbg !4159
	%10 = bitcast i8*  %9 to %struct.ompi_datatype_t**, !dbg !4159
	%11 = load %struct.ompi_datatype_t*, %struct.ompi_datatype_t**  %10, align 8, !tbaa !2188, !dbg !4159
	%12 = load i32, i32* %count.addr, align 4, !tbaa !2190, !dbg !4159
	%13 = call i32  @MPI_Status_set_elements (%struct.ompi_status_public_t*  %6, %struct.ompi_datatype_t*  %11, i32  %12) nounwind, !dbg !4159
	ret void, !dbg !4160
}
define linkonce_odr void @_ZN3MPI6Status13Set_cancelledEb(%struct._ZN3MPI6StatusE* %_T47727800_12232.arg, i8 signext %flag.arg) #0 inlinehint !dbg !4162 {
L.entry:
	%_T47727800_12232.addr = alloca %struct._ZN3MPI6StatusE*, align 8
	%flag.addr = alloca i8, align 1

	call void @llvm.dbg.declare (metadata %struct._ZN3MPI6StatusE** %_T47727800_12232.addr, metadata !4166, metadata !2164), !dbg !4163
	store %struct._ZN3MPI6StatusE* %_T47727800_12232.arg, %struct._ZN3MPI6StatusE** %_T47727800_12232.addr, align 8, !tbaa !2188
	call void @llvm.dbg.declare (metadata %struct._ZN3MPI6StatusE** %_T47727800_12232.addr, metadata !4167, metadata !2164), !dbg !4163
	call void @llvm.dbg.declare (metadata i8* %flag.addr, metadata !4168, metadata !2164), !dbg !4163
	store i8 %flag.arg, i8* %flag.addr, align 1, !tbaa !2332
	call void @llvm.dbg.declare (metadata i8* %flag.addr, metadata !4169, metadata !2164), !dbg !4163
	%0 = load %struct._ZN3MPI6StatusE*, %struct._ZN3MPI6StatusE** %_T47727800_12232.addr, align 8, !tbaa !2188, !dbg !4170
	%1 = bitcast %struct._ZN3MPI6StatusE*  %0 to i8*, !dbg !4170
	%2 = getelementptr i8, i8*  %1, i64 8, !dbg !4170
	%3 = bitcast i8*  %2 to %struct.ompi_status_public_t*, !dbg !4170
	%4 = load i8, i8* %flag.addr, align 1, !tbaa !2332, !dbg !4170
	%5 = sext i8  %4 to i32, !dbg !4170
	%6 = call i32  @MPI_Status_set_cancelled (%struct.ompi_status_public_t*  %3, i32  %5) nounwind, !dbg !4170
	ret void, !dbg !4171
}

%struct._ZN3MPI7RequestE = type <{ i32 (...)* (...)*, %struct.ompi_request_t*}> 
%struct.ompi_request_t = type opaque

define linkonce_odr void @_ZN3MPI7RequestD1Ev(%struct._ZN3MPI7RequestE* %_T47727800_12233.arg) #0 inlinehint !dbg !4175 {
L.entry:
	%_T47727800_12233.addr = alloca %struct._ZN3MPI7RequestE*, align 8

	call void @llvm.dbg.declare (metadata %struct._ZN3MPI7RequestE** %_T47727800_12233.addr, metadata !4179, metadata !2164), !dbg !4176
	store %struct._ZN3MPI7RequestE* %_T47727800_12233.arg, %struct._ZN3MPI7RequestE** %_T47727800_12233.addr, align 8, !tbaa !2188
	call void @llvm.dbg.declare (metadata %struct._ZN3MPI7RequestE** %_T47727800_12233.addr, metadata !4180, metadata !2164), !dbg !4176
	%0 = bitcast [12 x i32 (...)* (...)*]* @_ZTVN3MPI7RequestE to i8*, !dbg !4181
	%1 = getelementptr i8, i8*  %0, i64 16, !dbg !4181
	%2 = load %struct._ZN3MPI7RequestE*, %struct._ZN3MPI7RequestE** %_T47727800_12233.addr, align 8, !tbaa !2188, !dbg !4181
	%3 = bitcast %struct._ZN3MPI7RequestE*  %2 to i8**, !dbg !4181
	store i8*  %1, i8**  %3, align 8, !tbaa !2188, !dbg !4181
	ret void, !dbg !4181
}
define linkonce_odr void @_ZN3MPI7RequestD0Ev(%struct._ZN3MPI7RequestE* %_T47727800_12234.arg) #0 inlinehint !dbg !4188 {
L.entry:
	%_T47727800_12234.addr = alloca %struct._ZN3MPI7RequestE*, align 8

	store %struct._ZN3MPI7RequestE* %_T47727800_12234.arg, %struct._ZN3MPI7RequestE** %_T47727800_12234.addr, align 8, !tbaa !2188
	%0 = bitcast [12 x i32 (...)* (...)*]* @_ZTVN3MPI7RequestE to i8*, !dbg !4196
	%1 = getelementptr i8, i8*  %0, i64 16, !dbg !4196
	%2 = load %struct._ZN3MPI7RequestE*, %struct._ZN3MPI7RequestE** %_T47727800_12234.addr, align 8, !tbaa !2188, !dbg !4196
	%3 = bitcast %struct._ZN3MPI7RequestE*  %2 to i8**, !dbg !4196
	store i8*  %1, i8**  %3, align 8, !tbaa !2188, !dbg !4196
	%4 = bitcast %struct._ZN3MPI7RequestE*  %2 to i8*, !dbg !4196
	call void  @_ZdlPvm (i8*  %4, i64 16) nounwind, !dbg !4196
	ret void, !dbg !4196
}
define linkonce_odr void @_ZN3MPI7RequestD2Ev(%struct._ZN3MPI7RequestE* %_T47727800_12235.arg) #0 inlinehint !dbg !4198 {
L.entry:
	%_T47727800_12235.addr = alloca %struct._ZN3MPI7RequestE*, align 8

	store %struct._ZN3MPI7RequestE* %_T47727800_12235.arg, %struct._ZN3MPI7RequestE** %_T47727800_12235.addr, align 8, !tbaa !2188
	%0 = bitcast [12 x i32 (...)* (...)*]* @_ZTVN3MPI7RequestE to i8*, !dbg !4206
	%1 = getelementptr i8, i8*  %0, i64 16, !dbg !4206
	%2 = load %struct._ZN3MPI7RequestE*, %struct._ZN3MPI7RequestE** %_T47727800_12235.addr, align 8, !tbaa !2188, !dbg !4206
	%3 = bitcast %struct._ZN3MPI7RequestE*  %2 to i8**, !dbg !4206
	store i8*  %1, i8**  %3, align 8, !tbaa !2188, !dbg !4206
	ret void, !dbg !4206
}
define linkonce_odr void @_ZN3MPI7RequestC1EP14ompi_request_t(%struct._ZN3MPI7RequestE* %_T47727800_12237.arg, %struct.ompi_request_t* %i.arg) #0 inlinehint !dbg !4210 {
L.entry:
	%_T47727800_12237.addr = alloca %struct._ZN3MPI7RequestE*, align 8
	%i.addr = alloca %struct.ompi_request_t*, align 8

	call void @llvm.dbg.declare (metadata %struct._ZN3MPI7RequestE** %_T47727800_12237.addr, metadata !4214, metadata !2164), !dbg !4211
	store %struct._ZN3MPI7RequestE* %_T47727800_12237.arg, %struct._ZN3MPI7RequestE** %_T47727800_12237.addr, align 8, !tbaa !2188
	call void @llvm.dbg.declare (metadata %struct._ZN3MPI7RequestE** %_T47727800_12237.addr, metadata !4215, metadata !2164), !dbg !4211
	call void @llvm.dbg.declare (metadata %struct.ompi_request_t** %i.addr, metadata !4216, metadata !2164), !dbg !4211
	store %struct.ompi_request_t* %i.arg, %struct.ompi_request_t** %i.addr, align 8, !tbaa !2188
	call void @llvm.dbg.declare (metadata %struct.ompi_request_t** %i.addr, metadata !4217, metadata !2164), !dbg !4211
	%0 = bitcast [12 x i32 (...)* (...)*]* @_ZTVN3MPI7RequestE to i8*, !dbg !4218
	%1 = getelementptr i8, i8*  %0, i64 16, !dbg !4218
	%2 = load %struct._ZN3MPI7RequestE*, %struct._ZN3MPI7RequestE** %_T47727800_12237.addr, align 8, !tbaa !2188, !dbg !4218
	%3 = bitcast %struct._ZN3MPI7RequestE*  %2 to i8**, !dbg !4218
	store i8*  %1, i8**  %3, align 8, !tbaa !2188, !dbg !4218
	%4 = load %struct.ompi_request_t*, %struct.ompi_request_t** %i.addr, align 8, !tbaa !2188, !dbg !4218
	%5 = bitcast %struct.ompi_request_t*  %4 to i8*, !dbg !4218
	%6 = bitcast %struct._ZN3MPI7RequestE*  %2 to i8*, !dbg !4218
	%7 = getelementptr i8, i8*  %6, i64 8, !dbg !4218
	%8 = bitcast i8*  %7 to i8**, !dbg !4218
	store i8*  %5, i8**  %8, align 8, !tbaa !2188, !dbg !4218
	ret void, !dbg !4218
}
define linkonce_odr void @_ZN3MPI7RequestC2EP14ompi_request_t(%struct._ZN3MPI7RequestE* %_T47727800_12239.arg, %struct.ompi_request_t* %_T47728096_12239.arg) #0 inlinehint !dbg !4220 {
L.entry:
	%_T47727800_12239.addr = alloca %struct._ZN3MPI7RequestE*, align 8
	%_T47728096_12239.addr = alloca %struct.ompi_request_t*, align 8
	%..inline.addr = alloca %struct._ZN3MPI7RequestE*, align 8
	%..inline.addr.1 = alloca %struct.ompi_request_t*, align 8

	store %struct._ZN3MPI7RequestE* %_T47727800_12239.arg, %struct._ZN3MPI7RequestE** %_T47727800_12239.addr, align 8, !tbaa !2188
	store %struct.ompi_request_t* %_T47728096_12239.arg, %struct.ompi_request_t** %_T47728096_12239.addr, align 8, !tbaa !2188
	%0 = load %struct._ZN3MPI7RequestE*, %struct._ZN3MPI7RequestE** %_T47727800_12239.addr, align 8, !tbaa !2188, !dbg !4228
	%1 = bitcast %struct._ZN3MPI7RequestE*  %0 to i8*, !dbg !4228
	%2 = bitcast %struct._ZN3MPI7RequestE** %..inline.addr to i8**, !dbg !4228
	store i8*  %1, i8**  %2, align 8, !tbaa !2188, !dbg !4228
	%3 = load %struct.ompi_request_t*, %struct.ompi_request_t** %_T47728096_12239.addr, align 8, !tbaa !2188, !dbg !4228
	%4 = bitcast %struct.ompi_request_t*  %3 to i8*, !dbg !4228
	%5 = bitcast %struct.ompi_request_t** %..inline.addr.1 to i8**, !dbg !4228
	store i8*  %4, i8**  %5, align 8, !tbaa !2188, !dbg !4228
	%6 = bitcast [12 x i32 (...)* (...)*]* @_ZTVN3MPI7RequestE to i8*, !dbg !4228
	%7 = getelementptr i8, i8*  %6, i64 16, !dbg !4228
	%8 = load %struct._ZN3MPI7RequestE*, %struct._ZN3MPI7RequestE** %..inline.addr, align 8, !tbaa !2188, !dbg !4228
	%9 = bitcast %struct._ZN3MPI7RequestE*  %8 to i8**, !dbg !4228
	store i8*  %7, i8**  %9, align 8, !tbaa !2188, !dbg !4228
	%10 = load %struct.ompi_request_t*, %struct.ompi_request_t** %..inline.addr.1, align 8, !tbaa !2188, !dbg !4228
	%11 = bitcast %struct.ompi_request_t*  %10 to i8*, !dbg !4228
	%12 = bitcast %struct._ZN3MPI7RequestE*  %8 to i8*, !dbg !4228
	%13 = getelementptr i8, i8*  %12, i64 8, !dbg !4228
	%14 = bitcast i8*  %13 to i8**, !dbg !4228
	store i8*  %11, i8**  %14, align 8, !tbaa !2188, !dbg !4228
	ret void, !dbg !4228
}
define linkonce_odr void @_ZN3MPI7Request4WaitERNS_6StatusE(%struct._ZN3MPI7RequestE* %_T47727800_12240.arg, %struct._ZN3MPI6StatusE* %status.arg) #0 inlinehint !dbg !4232 {
L.entry:
	%_T47727800_12240.addr = alloca %struct._ZN3MPI7RequestE*, align 8
	%status.addr = alloca %struct._ZN3MPI6StatusE*, align 8

	call void @llvm.dbg.declare (metadata %struct._ZN3MPI7RequestE** %_T47727800_12240.addr, metadata !4236, metadata !2164), !dbg !4233
	store %struct._ZN3MPI7RequestE* %_T47727800_12240.arg, %struct._ZN3MPI7RequestE** %_T47727800_12240.addr, align 8, !tbaa !2188
	call void @llvm.dbg.declare (metadata %struct._ZN3MPI7RequestE** %_T47727800_12240.addr, metadata !4237, metadata !2164), !dbg !4233
	call void @llvm.dbg.declare (metadata %struct._ZN3MPI6StatusE** %status.addr, metadata !4238, metadata !2164), !dbg !4233
	store %struct._ZN3MPI6StatusE* %status.arg, %struct._ZN3MPI6StatusE** %status.addr, align 8, !tbaa !2188
	call void @llvm.dbg.declare (metadata %struct._ZN3MPI6StatusE** %status.addr, metadata !4239, metadata !2164), !dbg !4233
	%0 = load %struct._ZN3MPI7RequestE*, %struct._ZN3MPI7RequestE** %_T47727800_12240.addr, align 8, !tbaa !2188, !dbg !4240
	%1 = bitcast %struct._ZN3MPI7RequestE*  %0 to i8*, !dbg !4240
	%2 = getelementptr i8, i8*  %1, i64 8, !dbg !4240
	%3 = bitcast i8*  %2 to %struct.ompi_request_t**, !dbg !4240
	%4 = load %struct._ZN3MPI6StatusE*, %struct._ZN3MPI6StatusE** %status.addr, align 8, !tbaa !2188, !dbg !4240
	%5 = bitcast %struct._ZN3MPI6StatusE*  %4 to i8*, !dbg !4240
	%6 = getelementptr i8, i8*  %5, i64 8, !dbg !4240
	%7 = bitcast i8*  %6 to %struct.ompi_status_public_t*, !dbg !4240
