	.text
	.file	"outflow.ll"
	.file	1 "/home/talgat/vlasiator/sysboundary/outflow.cpp"
	.weak	_ZNSt6vectorIN5vmesh14MeshParametersESaIS1_EED1Ev # -- Begin function _ZNSt6vectorIN5vmesh14MeshParametersESaIS1_EED1Ev
	.p2align	4, 0x90
	.type	_ZNSt6vectorIN5vmesh14MeshParametersESaIS1_EED1Ev,@function
_ZNSt6vectorIN5vmesh14MeshParametersESaIS1_EED1Ev: # @_ZNSt6vectorIN5vmesh14MeshParametersESaIS1_EED1Ev
.Lfunc_begin0:
	.file	2 "/usr/include/c++/9/bits/stl_vector.h"
	.loc	2 676 0                 # /usr/include/c++/9/bits/stl_vector.h:676:0
	.cfi_startproc
# %bb.0:                                # %L.entry
	#DEBUG_VALUE: ~vector: <- $rdi
	#DEBUG_VALUE: ~vector: <- $rdi
	pushq	%rbp
	.cfi_def_cfa_offset 16
	.cfi_offset %rbp, -16
	movq	%rsp, %rbp
	.cfi_def_cfa_register %rbp
.Ltmp0:
	pushq	%r15
	pushq	%r14
	pushq	%rbx
	pushq	%rax
	.cfi_offset %rbx, -40
	.cfi_offset %r14, -32
	.cfi_offset %r15, -24
.Ltmp1:
	#DEBUG_VALUE:  <- $rdi
	#DEBUG_VALUE:  <- $rdi
	.loc	2 206 1 prologue_end    # /usr/include/c++/9/bits/stl_vector.h:206:1
	movq	(%rdi), %rbx
	movq	8(%rdi), %rsi
	cmpq	%rsi, %rbx
	je	.LBB0_14
.Ltmp2:
# %bb.1:                                # %L.B4158
	#DEBUG_VALUE:  <- $rdi
	#DEBUG_VALUE: ~vector: <- $rdi
	.loc	2 0 1 is_stmt 0         # /usr/include/c++/9/bits/stl_vector.h:0:1
	movq	%rdi, %r14
.Ltmp3:
	#DEBUG_VALUE: ~vector: <- $r14
	#DEBUG_VALUE:  <- $r14
	.loc	2 206 1                 # /usr/include/c++/9/bits/stl_vector.h:206:1
	subq	%rbx, %rsi
	leaq	335(%rsi), %rcx
	movabsq	$-4392081922311798003, %rdx # imm = 0xC30C30C30C30C30D
	movq	%rcx, %rax
	imulq	%rdx
	leaq	(%rsi,%rdx), %rax
	addq	$335, %rax              # imm = 0x14F
	sarq	$8, %rax
	sarq	$63, %rcx
	subq	%rcx, %rax
	imulq	$336, %rax, %r15        # imm = 0x150
	addq	%rbx, %r15
	jmp	.LBB0_2
.Ltmp4:
	.p2align	4, 0x90
.LBB0_12:                               # %_ZN5vmesh14MeshParametersD1Ev.exit
                                        #   in Loop: Header=BB0_2 Depth=1
	#DEBUG_VALUE:  <- $r14
	#DEBUG_VALUE: ~vector: <- $r14
	addq	$336, %rbx              # imm = 0x150
	cmpq	%r15, %rbx
	jae	.LBB0_13
.Ltmp5:
.LBB0_2:                                # %L..inline.110861
                                        # =>This Inner Loop Header: Depth=1
	#DEBUG_VALUE:  <- $r14
	#DEBUG_VALUE: ~vector: <- $r14
	#DEBUG_VALUE: ~MeshParameters: <- $rbx
	#DEBUG_VALUE:  <- $rbx
	.file	3 "/home/talgat/vlasiator/sysboundary/../velocity_mesh_parameters.h"
	.loc	3 680 1 is_stmt 1       # sysboundary/../velocity_mesh_parameters.h:680:1
	movq	312(%rbx), %rdi
	testq	%rdi, %rdi
	je	.LBB0_4
.Ltmp6:
# %bb.3:                                # %L.B5619.i
                                        #   in Loop: Header=BB0_2 Depth=1
	#DEBUG_VALUE:  <- $rbx
	#DEBUG_VALUE: ~MeshParameters: <- $rbx
	#DEBUG_VALUE:  <- $r14
	#DEBUG_VALUE: ~vector: <- $r14
	callq	_ZdlPv
.Ltmp7:
.LBB0_4:                                # %L..inline.131517.i
                                        #   in Loop: Header=BB0_2 Depth=1
	#DEBUG_VALUE:  <- $rbx
	#DEBUG_VALUE: ~MeshParameters: <- $rbx
	#DEBUG_VALUE:  <- $r14
	#DEBUG_VALUE: ~vector: <- $r14
	movq	288(%rbx), %rdi
	testq	%rdi, %rdi
	je	.LBB0_6
.Ltmp8:
# %bb.5:                                # %L.B5620.i
                                        #   in Loop: Header=BB0_2 Depth=1
	#DEBUG_VALUE:  <- $rbx
	#DEBUG_VALUE: ~MeshParameters: <- $rbx
	#DEBUG_VALUE:  <- $r14
	#DEBUG_VALUE: ~vector: <- $r14
	callq	_ZdlPv
.Ltmp9:
.LBB0_6:                                # %L..inline.131595.i
                                        #   in Loop: Header=BB0_2 Depth=1
	#DEBUG_VALUE:  <- $rbx
	#DEBUG_VALUE: ~MeshParameters: <- $rbx
	#DEBUG_VALUE:  <- $r14
	#DEBUG_VALUE: ~vector: <- $r14
	movq	264(%rbx), %rdi
	testq	%rdi, %rdi
	je	.LBB0_8
.Ltmp10:
# %bb.7:                                # %L.B5621.i
                                        #   in Loop: Header=BB0_2 Depth=1
	#DEBUG_VALUE:  <- $rbx
	#DEBUG_VALUE: ~MeshParameters: <- $rbx
	#DEBUG_VALUE:  <- $r14
	#DEBUG_VALUE: ~vector: <- $r14
	callq	_ZdlPv
.Ltmp11:
.LBB0_8:                                # %L..inline.131673.i
                                        #   in Loop: Header=BB0_2 Depth=1
	#DEBUG_VALUE:  <- $rbx
	#DEBUG_VALUE: ~MeshParameters: <- $rbx
	#DEBUG_VALUE:  <- $r14
	#DEBUG_VALUE: ~vector: <- $r14
	movq	240(%rbx), %rdi
	testq	%rdi, %rdi
	je	.LBB0_10
.Ltmp12:
# %bb.9:                                # %L.B5622.i
                                        #   in Loop: Header=BB0_2 Depth=1
	#DEBUG_VALUE:  <- $rbx
	#DEBUG_VALUE: ~MeshParameters: <- $rbx
	#DEBUG_VALUE:  <- $r14
	#DEBUG_VALUE: ~vector: <- $r14
	callq	_ZdlPv
.Ltmp13:
.LBB0_10:                               # %L..inline.131751.i
                                        #   in Loop: Header=BB0_2 Depth=1
	#DEBUG_VALUE:  <- $rbx
	#DEBUG_VALUE: ~MeshParameters: <- $rbx
	#DEBUG_VALUE:  <- $r14
	#DEBUG_VALUE: ~vector: <- $r14
	.loc	3 658 1                 # sysboundary/../velocity_mesh_parameters.h:658:1
	movq	(%rbx), %rdi
	leaq	16(%rbx), %rax
	cmpq	%rdi, %rax
	je	.LBB0_12
.Ltmp14:
# %bb.11:                               # %L.B5623.i
                                        #   in Loop: Header=BB0_2 Depth=1
	#DEBUG_VALUE:  <- $rbx
	#DEBUG_VALUE: ~MeshParameters: <- $rbx
	#DEBUG_VALUE:  <- $r14
	#DEBUG_VALUE: ~vector: <- $r14
	callq	_ZdlPv
	jmp	.LBB0_12
.Ltmp15:
.LBB0_13:                               # %L..inline.110862thread-pre-split
	#DEBUG_VALUE:  <- $r14
	#DEBUG_VALUE: ~vector: <- $r14
	.loc	2 332 1                 # /usr/include/c++/9/bits/stl_vector.h:332:1
	movq	(%r14), %rbx
.Ltmp16:
.LBB0_14:                               # %L..inline.110862
	testq	%rbx, %rbx
	je	.LBB0_15
# %bb.16:                               # %L.B4159
	movq	%rbx, %rdi
	addq	$8, %rsp
	popq	%rbx
	popq	%r14
	popq	%r15
	popq	%rbp
	.cfi_def_cfa %rsp, 8
	jmp	_ZdlPv                  # TAILCALL
.LBB0_15:                               # %L..inline.110894
	.cfi_def_cfa %rbp, 16
	.loc	2 680 1                 # /usr/include/c++/9/bits/stl_vector.h:680:1
	addq	$8, %rsp
	popq	%rbx
	popq	%r14
	popq	%r15
	popq	%rbp
	.cfi_def_cfa %rsp, 8
	retq
.Ltmp17:
.Lfunc_end0:
	.size	_ZNSt6vectorIN5vmesh14MeshParametersESaIS1_EED1Ev, .Lfunc_end0-_ZNSt6vectorIN5vmesh14MeshParametersESaIS1_EED1Ev
	.cfi_endproc
                                        # -- End function
	.section	.rodata.cst16,"aM",@progbits,16
	.p2align	4               # -- Begin function _ZNSt6vectorIN3SBC24OutflowSpeciesParametersESaIS1_EE17_M_realloc_insertIJRKS1_EEEvN9__gnu_cxx17__normal_iteratorIPS1_S3_EEDpOT_
.LCPI1_0:
	.zero	16
	.text
	.weak	_ZNSt6vectorIN3SBC24OutflowSpeciesParametersESaIS1_EE17_M_realloc_insertIJRKS1_EEEvN9__gnu_cxx17__normal_iteratorIPS1_S3_EEDpOT_
	.p2align	4, 0x90
	.type	_ZNSt6vectorIN3SBC24OutflowSpeciesParametersESaIS1_EE17_M_realloc_insertIJRKS1_EEEvN9__gnu_cxx17__normal_iteratorIPS1_S3_EEDpOT_,@function
_ZNSt6vectorIN3SBC24OutflowSpeciesParametersESaIS1_EE17_M_realloc_insertIJRKS1_EEEvN9__gnu_cxx17__normal_iteratorIPS1_S3_EEDpOT_: # @_ZNSt6vectorIN3SBC24OutflowSpeciesParametersESaIS1_EE17_M_realloc_insertIJRKS1_EEEvN9__gnu_cxx17__normal_iteratorIPS1_S3_EEDpOT_
.Lfunc_begin1:
	.file	4 "/usr/include/c++/9/bits/vector.tcc"
	.loc	4 434 0                 # /usr/include/c++/9/bits/vector.tcc:434:0
	.cfi_startproc
	.cfi_personality 3, __gxx_personality_v0
	.cfi_lsda 3, .Lexception0
# %bb.0:                                # %L.entry
	#DEBUG_VALUE: _M_realloc_insert: <- $rdi
	#DEBUG_VALUE: _M_realloc_insert:__position <- $rsi
	#DEBUG_VALUE: _M_realloc_insert:__args <- $rdx
	pushq	%rbp
	.cfi_def_cfa_offset 16
	.cfi_offset %rbp, -16
	movq	%rsp, %rbp
	.cfi_def_cfa_register %rbp
	pushq	%r15
	pushq	%r14
	pushq	%r13
	pushq	%r12
	pushq	%rbx
	subq	$56, %rsp
	.cfi_offset %rbx, -56
	.cfi_offset %r12, -48
	.cfi_offset %r13, -40
	.cfi_offset %r14, -32
	.cfi_offset %r15, -24
	movq	%rdx, %r13
.Ltmp28:
	#DEBUG_VALUE: __args <- undef
	movabsq	$144115188075855871, %rbx # imm = 0x1FFFFFFFFFFFFFF
.Ltmp29:
	#DEBUG_VALUE:  <- $rdi
	#DEBUG_VALUE: _M_realloc_insert:__args <- $r13
	#DEBUG_VALUE: _M_realloc_insert:__position <- $rsi
	#DEBUG_VALUE: _M_realloc_insert: <- $rdi
	.loc	4 1755 1 prologue_end   # /usr/include/c++/9/bits/vector.tcc:1755:1
	movq	(%rdi), %rdx
	movq	%rdi, -88(%rbp)         # 8-byte Spill
.Ltmp30:
	#DEBUG_VALUE:  <- [DW_OP_constu 88, DW_OP_minus] [$rbp+0]
	#DEBUG_VALUE: _M_realloc_insert: <- [DW_OP_constu 88, DW_OP_minus] [$rbp+0]
	movq	8(%rdi), %rcx
	movq	%rcx, -72(%rbp)         # 8-byte Spill
	subq	%rdx, %rcx
	sarq	$6, %rcx
	cmpq	%rbx, %rcx
	je	.LBB1_48
.Ltmp31:
# %bb.1:                                # %L..inline.121357
	#DEBUG_VALUE: _M_realloc_insert: <- [DW_OP_constu 88, DW_OP_minus] [$rbp+0]
	#DEBUG_VALUE:  <- [DW_OP_constu 88, DW_OP_minus] [$rbp+0]
	#DEBUG_VALUE: _M_realloc_insert:__args <- $r13
	#DEBUG_VALUE: _M_realloc_insert:__position <- $rsi
	.loc	4 0 1 is_stmt 0         # /usr/include/c++/9/bits/vector.tcc:0:1
	movq	%rsi, %r14
.Ltmp32:
	#DEBUG_VALUE: _M_realloc_insert:__position <- $r14
	.loc	4 1758 1 is_stmt 1      # /usr/include/c++/9/bits/vector.tcc:1758:1
	testq	%rcx, %rcx
	movl	$1, %eax
	cmovneq	%rcx, %rax
.Ltmp33:
	#DEBUG_VALUE: __old_finish <- [DW_OP_constu 72, DW_OP_minus] [$rbp+0]
	#DEBUG_VALUE: __old_start <- $rdx
	.loc	4 992 1                 # /usr/include/c++/9/bits/vector.tcc:992:1
	movq	%rsi, %r12
	movq	%rdx, -64(%rbp)         # 8-byte Spill
.Ltmp34:
	#DEBUG_VALUE: __old_start <- [DW_OP_constu 64, DW_OP_minus] [$rbp+0]
	subq	%rdx, %r12
	.loc	4 449 1                 # /usr/include/c++/9/bits/vector.tcc:449:1
	andq	$-64, %r12
	.loc	4 1758 1                # /usr/include/c++/9/bits/vector.tcc:1758:1
	addq	%rcx, %rax
.Ltmp35:
	#DEBUG_VALUE: __elems_before <- [DW_OP_constu 6, DW_OP_shra, DW_OP_stack_value] undef
	.loc	4 1759 1                # /usr/include/c++/9/bits/vector.tcc:1759:1
	jb	.LBB1_5
.Ltmp36:
# %bb.2:                                # %L..inline.121357
	#DEBUG_VALUE: __old_start <- [DW_OP_constu 64, DW_OP_minus] [$rbp+0]
	#DEBUG_VALUE: __old_finish <- [DW_OP_constu 72, DW_OP_minus] [$rbp+0]
	#DEBUG_VALUE: _M_realloc_insert:__position <- $r14
	#DEBUG_VALUE: _M_realloc_insert: <- [DW_OP_constu 88, DW_OP_minus] [$rbp+0]
	#DEBUG_VALUE:  <- [DW_OP_constu 88, DW_OP_minus] [$rbp+0]
	#DEBUG_VALUE: _M_realloc_insert:__args <- $r13
	cmpq	%rbx, %rax
	ja	.LBB1_5
.Ltmp37:
# %bb.3:                                # %L..inline.121421
	#DEBUG_VALUE: __old_start <- [DW_OP_constu 64, DW_OP_minus] [$rbp+0]
	#DEBUG_VALUE: __old_finish <- [DW_OP_constu 72, DW_OP_minus] [$rbp+0]
	#DEBUG_VALUE: _M_realloc_insert:__position <- $r14
	#DEBUG_VALUE: _M_realloc_insert: <- [DW_OP_constu 88, DW_OP_minus] [$rbp+0]
	#DEBUG_VALUE:  <- [DW_OP_constu 88, DW_OP_minus] [$rbp+0]
	#DEBUG_VALUE: _M_realloc_insert:__args <- $r13
	#DEBUG_VALUE: __len <- $rax
	.loc	4 0 1 is_stmt 0         # /usr/include/c++/9/bits/vector.tcc:0:1
	movq	%rax, %rbx
	.loc	4 440 1 is_stmt 1       # /usr/include/c++/9/bits/vector.tcc:440:1
	testq	%rax, %rax
.Ltmp38:
	#DEBUG_VALUE: __len <- $rbx
	je	.LBB1_4
.Ltmp39:
.LBB1_5:                                # %L..inline.121485
	#DEBUG_VALUE: __old_start <- [DW_OP_constu 64, DW_OP_minus] [$rbp+0]
	#DEBUG_VALUE: __old_finish <- [DW_OP_constu 72, DW_OP_minus] [$rbp+0]
	#DEBUG_VALUE: _M_realloc_insert:__position <- $r14
	#DEBUG_VALUE: _M_realloc_insert: <- [DW_OP_constu 88, DW_OP_minus] [$rbp+0]
	#DEBUG_VALUE:  <- [DW_OP_constu 88, DW_OP_minus] [$rbp+0]
	#DEBUG_VALUE: _M_realloc_insert:__args <- $r13
	.loc	4 343 1                 # /usr/include/c++/9/bits/vector.tcc:343:1
	movq	%rbx, %rdi
	shlq	$6, %rdi
	callq	_Znwm
.Ltmp40:
.LBB1_6:                                # %L..inline.121486
	#DEBUG_VALUE: __old_start <- [DW_OP_constu 64, DW_OP_minus] [$rbp+0]
	#DEBUG_VALUE: __old_finish <- [DW_OP_constu 72, DW_OP_minus] [$rbp+0]
	#DEBUG_VALUE: _M_realloc_insert:__position <- $r14
	#DEBUG_VALUE: _M_realloc_insert: <- [DW_OP_constu 88, DW_OP_minus] [$rbp+0]
	#DEBUG_VALUE:  <- [DW_OP_constu 88, DW_OP_minus] [$rbp+0]
	#DEBUG_VALUE: _M_realloc_insert:__args <- $r13
	#DEBUG_VALUE: __new_start <- $rax
	#DEBUG_VALUE: __new_finish <- $rax
	#DEBUG_VALUE: construct: <- [DW_OP_constu 88, DW_OP_minus] [$rbp+0]
	#DEBUG_VALUE:  <- [DW_OP_constu 88, DW_OP_minus] [$rbp+0]
	#DEBUG_VALUE: construct:__args <- $r13
	#DEBUG_VALUE: __args <- $r13
	.loc	4 0 1 is_stmt 0         # /usr/include/c++/9/bits/vector.tcc:0:1
	movq	%rax, -56(%rbp)         # 8-byte Spill
.Ltmp41:
	#DEBUG_VALUE: __new_finish <- [DW_OP_constu 56, DW_OP_minus] [$rbp+0]
	#DEBUG_VALUE: __new_start <- [DW_OP_constu 56, DW_OP_minus] [$rbp+0]
	.file	5 "/usr/include/c++/9/ext/new_allocator.h"
	.loc	5 147 1 is_stmt 1       # /usr/include/c++/9/ext/new_allocator.h:147:1
	addq	%rax, %r12
.Ltmp42:
	#DEBUG_VALUE: __p <- $r12
	#DEBUG_VALUE: construct:__p <- $r12
	.loc	5 0 1 is_stmt 0         # /usr/include/c++/9/ext/new_allocator.h:0:1
	movq	%rbx, -48(%rbp)         # 8-byte Spill
	.loc	5 147 1                 # /usr/include/c++/9/ext/new_allocator.h:147:1
	je	.LBB1_16
.Ltmp43:
# %bb.7:                                # %L.B5562.i
	#DEBUG_VALUE: construct:__p <- $r12
	#DEBUG_VALUE: __p <- $r12
	#DEBUG_VALUE: __new_start <- [DW_OP_constu 56, DW_OP_minus] [$rbp+0]
	#DEBUG_VALUE: __new_finish <- [DW_OP_constu 56, DW_OP_minus] [$rbp+0]
	#DEBUG_VALUE: __args <- $r13
	#DEBUG_VALUE: construct:__args <- $r13
	#DEBUG_VALUE:  <- [DW_OP_constu 88, DW_OP_minus] [$rbp+0]
	#DEBUG_VALUE: construct: <- [DW_OP_constu 88, DW_OP_minus] [$rbp+0]
	#DEBUG_VALUE: __old_start <- [DW_OP_constu 64, DW_OP_minus] [$rbp+0]
	#DEBUG_VALUE: __old_finish <- [DW_OP_constu 72, DW_OP_minus] [$rbp+0]
	#DEBUG_VALUE: _M_realloc_insert:__position <- $r14
	#DEBUG_VALUE: _M_realloc_insert: <- [DW_OP_constu 88, DW_OP_minus] [$rbp+0]
	#DEBUG_VALUE:  <- [DW_OP_constu 88, DW_OP_minus] [$rbp+0]
	#DEBUG_VALUE: _M_realloc_insert:__args <- $r13
	movl	(%r13), %eax
	movl	%eax, (%r12)
	movzwl	4(%r13), %eax
	movw	%ax, 4(%r12)
	vmovups	8(%r13), %xmm0
	vmovups	%xmm0, 8(%r12)
	movq	24(%r13), %rax
	movq	%rax, 24(%r12)
	.loc	5 553 1 is_stmt 1       # /usr/include/c++/9/ext/new_allocator.h:553:1
	movq	32(%r13), %rdi
	movq	40(%r13), %r15
	movq	%r15, %rbx
	subq	%rdi, %rbx
	movq	%rbx, %rax
	sarq	$5, %rax
.Ltmp44:
	#DEBUG_VALUE:  <- [DW_OP_plus_uconst 32, DW_OP_stack_value] $r12
	#DEBUG_VALUE: _Vector_base: <- [DW_OP_plus_uconst 32, DW_OP_stack_value] $r12
	#DEBUG_VALUE: __n <- $rax
	#DEBUG_VALUE: _Vector_base:__n <- $rax
	.loc	2 135 1                 # /usr/include/c++/9/bits/stl_vector.h:135:1
	vxorps	%xmm0, %xmm0, %xmm0
	vmovups	%xmm0, 32(%r12)
	movq	$0, 48(%r12)
	.loc	2 358 1                 # /usr/include/c++/9/bits/stl_vector.h:358:1
	je	.LBB1_8
.Ltmp45:
# %bb.9:                                # %L.B4622.i.i
	#DEBUG_VALUE: _Vector_base:__n <- $rax
	#DEBUG_VALUE: __n <- $rax
	#DEBUG_VALUE: _Vector_base: <- [DW_OP_plus_uconst 32, DW_OP_stack_value] $r12
	#DEBUG_VALUE:  <- [DW_OP_plus_uconst 32, DW_OP_stack_value] $r12
	#DEBUG_VALUE: construct:__p <- $r12
	#DEBUG_VALUE: __p <- $r12
	#DEBUG_VALUE: __new_start <- [DW_OP_constu 56, DW_OP_minus] [$rbp+0]
	#DEBUG_VALUE: __new_finish <- [DW_OP_constu 56, DW_OP_minus] [$rbp+0]
	#DEBUG_VALUE: __args <- $r13
	#DEBUG_VALUE: construct:__args <- $r13
	#DEBUG_VALUE:  <- [DW_OP_constu 88, DW_OP_minus] [$rbp+0]
	#DEBUG_VALUE: construct: <- [DW_OP_constu 88, DW_OP_minus] [$rbp+0]
	#DEBUG_VALUE: __old_start <- [DW_OP_constu 64, DW_OP_minus] [$rbp+0]
	#DEBUG_VALUE: __old_finish <- [DW_OP_constu 72, DW_OP_minus] [$rbp+0]
	#DEBUG_VALUE: _M_realloc_insert:__position <- $r14
	#DEBUG_VALUE: _M_realloc_insert: <- [DW_OP_constu 88, DW_OP_minus] [$rbp+0]
	#DEBUG_VALUE:  <- [DW_OP_constu 88, DW_OP_minus] [$rbp+0]
	#DEBUG_VALUE: _M_realloc_insert:__args <- $r13
	.loc	2 0 1 is_stmt 0         # /usr/include/c++/9/bits/stl_vector.h:0:1
	movq	%rdi, -80(%rbp)         # 8-byte Spill
	.loc	2 358 1                 # /usr/include/c++/9/bits/stl_vector.h:358:1
	shrq	$59, %rax
.Ltmp46:
	jne	.LBB1_10
.Ltmp47:
# %bb.12:                               # %L..inline.118623.i.i
	#DEBUG_VALUE: _Vector_base: <- [DW_OP_plus_uconst 32, DW_OP_stack_value] $r12
	#DEBUG_VALUE:  <- [DW_OP_plus_uconst 32, DW_OP_stack_value] $r12
	#DEBUG_VALUE: construct:__p <- $r12
	#DEBUG_VALUE: __p <- $r12
	#DEBUG_VALUE: __new_start <- [DW_OP_constu 56, DW_OP_minus] [$rbp+0]
	#DEBUG_VALUE: __new_finish <- [DW_OP_constu 56, DW_OP_minus] [$rbp+0]
	#DEBUG_VALUE: __args <- $r13
	#DEBUG_VALUE: construct:__args <- $r13
	#DEBUG_VALUE:  <- [DW_OP_constu 88, DW_OP_minus] [$rbp+0]
	#DEBUG_VALUE: construct: <- [DW_OP_constu 88, DW_OP_minus] [$rbp+0]
	#DEBUG_VALUE: __old_start <- [DW_OP_constu 64, DW_OP_minus] [$rbp+0]
	#DEBUG_VALUE: __old_finish <- [DW_OP_constu 72, DW_OP_minus] [$rbp+0]
	#DEBUG_VALUE: _M_realloc_insert:__position <- $r14
	#DEBUG_VALUE: _M_realloc_insert: <- [DW_OP_constu 88, DW_OP_minus] [$rbp+0]
	#DEBUG_VALUE:  <- [DW_OP_constu 88, DW_OP_minus] [$rbp+0]
	#DEBUG_VALUE: _M_realloc_insert:__args <- $r13
	andq	$-32, %rbx
.Ltmp20:
	movq	%rbx, %rdi
	callq	_Znwm
	movq	%rax, %rdx
.Ltmp21:
.Ltmp48:
# %bb.13:
	#DEBUG_VALUE: _Vector_base: <- [DW_OP_plus_uconst 32, DW_OP_stack_value] $r12
	#DEBUG_VALUE:  <- [DW_OP_plus_uconst 32, DW_OP_stack_value] $r12
	#DEBUG_VALUE: construct:__p <- $r12
	#DEBUG_VALUE: __p <- $r12
	#DEBUG_VALUE: __new_start <- [DW_OP_constu 56, DW_OP_minus] [$rbp+0]
	#DEBUG_VALUE: __new_finish <- [DW_OP_constu 56, DW_OP_minus] [$rbp+0]
	#DEBUG_VALUE: __args <- $r13
	#DEBUG_VALUE: construct:__args <- $r13
	#DEBUG_VALUE:  <- [DW_OP_constu 88, DW_OP_minus] [$rbp+0]
	#DEBUG_VALUE: construct: <- [DW_OP_constu 88, DW_OP_minus] [$rbp+0]
	#DEBUG_VALUE: __old_start <- [DW_OP_constu 64, DW_OP_minus] [$rbp+0]
	#DEBUG_VALUE: __old_finish <- [DW_OP_constu 72, DW_OP_minus] [$rbp+0]
	#DEBUG_VALUE: _M_realloc_insert:__position <- $r14
	#DEBUG_VALUE: _M_realloc_insert: <- [DW_OP_constu 88, DW_OP_minus] [$rbp+0]
	#DEBUG_VALUE:  <- [DW_OP_constu 88, DW_OP_minus] [$rbp+0]
	#DEBUG_VALUE: _M_realloc_insert:__args <- $r13
	.loc	2 0 1                   # /usr/include/c++/9/bits/stl_vector.h:0:1
	movq	-80(%rbp), %rdi         # 8-byte Reload
	jmp	.LBB1_14
.Ltmp49:
.LBB1_8:
	#DEBUG_VALUE: _Vector_base:__n <- $rax
	#DEBUG_VALUE: __n <- $rax
	#DEBUG_VALUE: _Vector_base: <- [DW_OP_plus_uconst 32, DW_OP_stack_value] $r12
	#DEBUG_VALUE:  <- [DW_OP_plus_uconst 32, DW_OP_stack_value] $r12
	#DEBUG_VALUE: construct:__p <- $r12
	#DEBUG_VALUE: __p <- $r12
	#DEBUG_VALUE: __new_start <- [DW_OP_constu 56, DW_OP_minus] [$rbp+0]
	#DEBUG_VALUE: __new_finish <- [DW_OP_constu 56, DW_OP_minus] [$rbp+0]
	#DEBUG_VALUE: __args <- $r13
	#DEBUG_VALUE: construct:__args <- $r13
	#DEBUG_VALUE:  <- [DW_OP_constu 88, DW_OP_minus] [$rbp+0]
	#DEBUG_VALUE: construct: <- [DW_OP_constu 88, DW_OP_minus] [$rbp+0]
	#DEBUG_VALUE: __old_start <- [DW_OP_constu 64, DW_OP_minus] [$rbp+0]
	#DEBUG_VALUE: __old_finish <- [DW_OP_constu 72, DW_OP_minus] [$rbp+0]
	#DEBUG_VALUE: _M_realloc_insert:__position <- $r14
	#DEBUG_VALUE: _M_realloc_insert: <- [DW_OP_constu 88, DW_OP_minus] [$rbp+0]
	#DEBUG_VALUE:  <- [DW_OP_constu 88, DW_OP_minus] [$rbp+0]
	#DEBUG_VALUE: _M_realloc_insert:__args <- $r13
	xorl	%ebx, %ebx
	.loc	2 358 1                 # /usr/include/c++/9/bits/stl_vector.h:358:1
	xorl	%edx, %edx
.Ltmp50:
.LBB1_14:                               # %_ZNSt12_Vector_baseINSt7__cxx1112basic_stringIcSt11char_traitsIcESaIcEEESaIS5_EEC1EmRKS6_.exit.i
	#DEBUG_VALUE: _Vector_base: <- [DW_OP_plus_uconst 32, DW_OP_stack_value] $r12
	#DEBUG_VALUE:  <- [DW_OP_plus_uconst 32, DW_OP_stack_value] $r12
	#DEBUG_VALUE: construct:__p <- $r12
	#DEBUG_VALUE: __p <- $r12
	#DEBUG_VALUE: __new_start <- [DW_OP_constu 56, DW_OP_minus] [$rbp+0]
	#DEBUG_VALUE: __new_finish <- [DW_OP_constu 56, DW_OP_minus] [$rbp+0]
	#DEBUG_VALUE: __args <- $r13
	#DEBUG_VALUE: construct:__args <- $r13
	#DEBUG_VALUE:  <- [DW_OP_constu 88, DW_OP_minus] [$rbp+0]
	#DEBUG_VALUE: construct: <- [DW_OP_constu 88, DW_OP_minus] [$rbp+0]
	#DEBUG_VALUE: __old_start <- [DW_OP_constu 64, DW_OP_minus] [$rbp+0]
	#DEBUG_VALUE: __old_finish <- [DW_OP_constu 72, DW_OP_minus] [$rbp+0]
	#DEBUG_VALUE: _M_realloc_insert:__position <- $r14
	#DEBUG_VALUE: _M_realloc_insert: <- [DW_OP_constu 88, DW_OP_minus] [$rbp+0]
	#DEBUG_VALUE:  <- [DW_OP_constu 88, DW_OP_minus] [$rbp+0]
	#DEBUG_VALUE: _M_realloc_insert:__args <- $r13
	movq	%rdx, 32(%r12)
	movq	%rdx, 40(%r12)
	.loc	2 359 1 is_stmt 1       # /usr/include/c++/9/bits/stl_vector.h:359:1
	addq	%rdx, %rbx
	movq	%rbx, 48(%r12)
.Ltmp51:
.Ltmp22:
	.loc	5 554 1                 # /usr/include/c++/9/ext/new_allocator.h:554:1
	movq	%r15, %rsi
	callq	_ZNSt20__uninitialized_copyILb0EE13__uninit_copyIN9__gnu_cxx17__normal_iteratorIPKNSt7__cxx1112basic_stringIcSt11char_traitsIcESaIcEEESt6vectorIS9_SaIS9_EEEEPS9_EET0_T_SI_SH_
.Ltmp23:
.Ltmp52:
# %bb.15:                               # %.noexc66
	#DEBUG_VALUE: construct:__p <- $r12
	#DEBUG_VALUE: __p <- $r12
	#DEBUG_VALUE: __new_start <- [DW_OP_constu 56, DW_OP_minus] [$rbp+0]
	#DEBUG_VALUE: __new_finish <- [DW_OP_constu 56, DW_OP_minus] [$rbp+0]
	#DEBUG_VALUE: __args <- $r13
	#DEBUG_VALUE: construct:__args <- $r13
	#DEBUG_VALUE:  <- [DW_OP_constu 88, DW_OP_minus] [$rbp+0]
	#DEBUG_VALUE: construct: <- [DW_OP_constu 88, DW_OP_minus] [$rbp+0]
	#DEBUG_VALUE: __old_start <- [DW_OP_constu 64, DW_OP_minus] [$rbp+0]
	#DEBUG_VALUE: __old_finish <- [DW_OP_constu 72, DW_OP_minus] [$rbp+0]
	#DEBUG_VALUE: _M_realloc_insert:__position <- $r14
	#DEBUG_VALUE: _M_realloc_insert: <- [DW_OP_constu 88, DW_OP_minus] [$rbp+0]
	#DEBUG_VALUE:  <- [DW_OP_constu 88, DW_OP_minus] [$rbp+0]
	#DEBUG_VALUE: _M_realloc_insert:__args <- $r13
	movq	%rax, 40(%r12)
	.loc	5 558 1                 # /usr/include/c++/9/ext/new_allocator.h:558:1
	movq	56(%r13), %rax
	movq	%rax, 56(%r12)
	movq	-48(%rbp), %rbx         # 8-byte Reload
.Ltmp53:
.LBB1_16:                               # %L.B4873
	#DEBUG_VALUE: __new_start <- [DW_OP_constu 56, DW_OP_minus] [$rbp+0]
	#DEBUG_VALUE: __new_finish <- [DW_OP_constu 56, DW_OP_minus] [$rbp+0]
	#DEBUG_VALUE: __old_start <- [DW_OP_constu 64, DW_OP_minus] [$rbp+0]
	#DEBUG_VALUE: __old_finish <- [DW_OP_constu 72, DW_OP_minus] [$rbp+0]
	#DEBUG_VALUE: _M_realloc_insert:__position <- $r14
	#DEBUG_VALUE: _M_realloc_insert: <- [DW_OP_constu 88, DW_OP_minus] [$rbp+0]
	#DEBUG_VALUE:  <- [DW_OP_constu 88, DW_OP_minus] [$rbp+0]
	#DEBUG_VALUE: _M_realloc_insert:__args <- $r13
	#DEBUG_VALUE: __new_finish <- 0
	.loc	5 0 1 is_stmt 0         # /usr/include/c++/9/ext/new_allocator.h:0:1
	movq	-56(%rbp), %r12         # 8-byte Reload
	movq	-64(%rbp), %r13         # 8-byte Reload
.Ltmp54:
	.loc	4 466 1 is_stmt 1       # /usr/include/c++/9/bits/vector.tcc:466:1
	cmpq	%r14, %r13
	je	.LBB1_30
.Ltmp55:
# %bb.17:                               # %L.B4874.preheader
	#DEBUG_VALUE: __new_finish <- 0
	#DEBUG_VALUE: __new_start <- [DW_OP_constu 56, DW_OP_minus] [$rbp+0]
	#DEBUG_VALUE: __old_start <- [DW_OP_constu 64, DW_OP_minus] [$rbp+0]
	#DEBUG_VALUE: __old_finish <- [DW_OP_constu 72, DW_OP_minus] [$rbp+0]
	#DEBUG_VALUE: _M_realloc_insert:__position <- $r14
	#DEBUG_VALUE: _M_realloc_insert: <- [DW_OP_constu 88, DW_OP_minus] [$rbp+0]
	#DEBUG_VALUE:  <- [DW_OP_constu 88, DW_OP_minus] [$rbp+0]
	.loc	4 0 1 is_stmt 0         # /usr/include/c++/9/bits/vector.tcc:0:1
	movq	-56(%rbp), %r12         # 8-byte Reload
	jmp	.LBB1_18
.Ltmp56:
	.p2align	4, 0x90
.LBB1_28:                               # %_ZN9__gnu_cxx13new_allocatorIN3SBC24OutflowSpeciesParametersEE7destroyIS2_EEvPT_.exit76
                                        #   in Loop: Header=BB1_18 Depth=1
	#DEBUG_VALUE: __new_finish <- 0
	#DEBUG_VALUE: __new_start <- [DW_OP_constu 56, DW_OP_minus] [$rbp+0]
	#DEBUG_VALUE: __old_start <- [DW_OP_constu 64, DW_OP_minus] [$rbp+0]
	#DEBUG_VALUE: __old_finish <- [DW_OP_constu 72, DW_OP_minus] [$rbp+0]
	#DEBUG_VALUE: _M_realloc_insert:__position <- $r14
	#DEBUG_VALUE: _M_realloc_insert: <- [DW_OP_constu 88, DW_OP_minus] [$rbp+0]
	#DEBUG_VALUE:  <- [DW_OP_constu 88, DW_OP_minus] [$rbp+0]
	.loc	4 466 1                 # /usr/include/c++/9/bits/vector.tcc:466:1
	addq	$64, %r13
	addq	$64, %r12
	cmpq	%r14, %r13
	je	.LBB1_29
.Ltmp57:
.LBB1_18:                               # %L.B4874
                                        # =>This Loop Header: Depth=1
                                        #     Child Loop BB1_22 Depth 2
	#DEBUG_VALUE: __new_finish <- 0
	#DEBUG_VALUE: __new_start <- [DW_OP_constu 56, DW_OP_minus] [$rbp+0]
	#DEBUG_VALUE: __old_start <- [DW_OP_constu 64, DW_OP_minus] [$rbp+0]
	#DEBUG_VALUE: __old_finish <- [DW_OP_constu 72, DW_OP_minus] [$rbp+0]
	#DEBUG_VALUE: _M_realloc_insert:__position <- $r14
	#DEBUG_VALUE: _M_realloc_insert: <- [DW_OP_constu 88, DW_OP_minus] [$rbp+0]
	#DEBUG_VALUE:  <- [DW_OP_constu 88, DW_OP_minus] [$rbp+0]
	#DEBUG_VALUE: construct: <- [DW_OP_constu 88, DW_OP_minus] [$rbp+0]
	#DEBUG_VALUE:  <- [DW_OP_constu 88, DW_OP_minus] [$rbp+0]
	#DEBUG_VALUE: construct:__p <- $r12
	#DEBUG_VALUE: __p <- $r12
	#DEBUG_VALUE: construct:__args <- $r13
	#DEBUG_VALUE: __args <- $r13
	.loc	5 147 1 is_stmt 1       # /usr/include/c++/9/ext/new_allocator.h:147:1
	testq	%r12, %r12
	je	.LBB1_20
.Ltmp58:
# %bb.19:                               # %L.B5571.i
                                        #   in Loop: Header=BB1_18 Depth=1
	#DEBUG_VALUE: __args <- $r13
	#DEBUG_VALUE: construct:__args <- $r13
	#DEBUG_VALUE: __p <- $r12
	#DEBUG_VALUE: construct:__p <- $r12
	#DEBUG_VALUE:  <- [DW_OP_constu 88, DW_OP_minus] [$rbp+0]
	#DEBUG_VALUE: construct: <- [DW_OP_constu 88, DW_OP_minus] [$rbp+0]
	#DEBUG_VALUE: __new_finish <- 0
	#DEBUG_VALUE: __new_start <- [DW_OP_constu 56, DW_OP_minus] [$rbp+0]
	#DEBUG_VALUE: __old_start <- [DW_OP_constu 64, DW_OP_minus] [$rbp+0]
	#DEBUG_VALUE: __old_finish <- [DW_OP_constu 72, DW_OP_minus] [$rbp+0]
	#DEBUG_VALUE: _M_realloc_insert:__position <- $r14
	#DEBUG_VALUE: _M_realloc_insert: <- [DW_OP_constu 88, DW_OP_minus] [$rbp+0]
	#DEBUG_VALUE:  <- [DW_OP_constu 88, DW_OP_minus] [$rbp+0]
	movl	(%r13), %eax
	movl	%eax, (%r12)
	movzwl	4(%r13), %eax
	movw	%ax, 4(%r12)
	movq	8(%r13), %rax
	movq	%rax, 8(%r12)
	movq	16(%r13), %rax
	movq	%rax, 16(%r12)
	movq	24(%r13), %rax
	movq	%rax, 24(%r12)
	.loc	5 142 1                 # /usr/include/c++/9/ext/new_allocator.h:142:1
	movq	32(%r13), %rax
	movq	%rax, 32(%r12)
	movq	40(%r13), %rax
	movq	%rax, 40(%r12)
	movq	48(%r13), %rax
	movq	%rax, 48(%r12)
	vxorps	%xmm0, %xmm0, %xmm0
	vmovups	%xmm0, 32(%r13)
	movq	$0, 48(%r13)
	movq	56(%r13), %rax
	movq	%rax, 56(%r12)
.Ltmp59:
.LBB1_20:                               # %_ZN9__gnu_cxx13new_allocatorIN3SBC24OutflowSpeciesParametersEE9constructIS2_JS2_EEEvPT_DpOT0_.exit
                                        #   in Loop: Header=BB1_18 Depth=1
	#DEBUG_VALUE: __new_finish <- 0
	#DEBUG_VALUE: __new_start <- [DW_OP_constu 56, DW_OP_minus] [$rbp+0]
	#DEBUG_VALUE: __old_start <- [DW_OP_constu 64, DW_OP_minus] [$rbp+0]
	#DEBUG_VALUE: __old_finish <- [DW_OP_constu 72, DW_OP_minus] [$rbp+0]
	#DEBUG_VALUE: _M_realloc_insert:__position <- $r14
	#DEBUG_VALUE: _M_realloc_insert: <- [DW_OP_constu 88, DW_OP_minus] [$rbp+0]
	#DEBUG_VALUE:  <- [DW_OP_constu 88, DW_OP_minus] [$rbp+0]
	#DEBUG_VALUE: destroy: <- [DW_OP_constu 88, DW_OP_minus] [$rbp+0]
	#DEBUG_VALUE:  <- [DW_OP_constu 88, DW_OP_minus] [$rbp+0]
	#DEBUG_VALUE: destroy:__p <- $r13
	#DEBUG_VALUE: __p <- $r13
	.loc	5 677 1                 # /usr/include/c++/9/ext/new_allocator.h:677:1
	movq	32(%r13), %rbx
	movq	40(%r13), %rax
.Ltmp60:
	#DEBUG_VALUE: __first <- $rbx
	#DEBUG_VALUE: __destroy:__first <- $rbx
	#DEBUG_VALUE: __last <- $rax
	#DEBUG_VALUE: __destroy:__last <- $rax
	.file	6 "/usr/include/c++/9/bits/stl_construct.h"
	.loc	6 107 1                 # /usr/include/c++/9/bits/stl_construct.h:107:1
	cmpq	%rax, %rbx
	je	.LBB1_26
.Ltmp61:
# %bb.21:                               # %L.B4962.i.i67
                                        #   in Loop: Header=BB1_18 Depth=1
	#DEBUG_VALUE: __destroy:__last <- $rax
	#DEBUG_VALUE: __last <- $rax
	#DEBUG_VALUE: __destroy:__first <- $rbx
	#DEBUG_VALUE: __first <- $rbx
	#DEBUG_VALUE: __p <- $r13
	#DEBUG_VALUE: destroy:__p <- $r13
	#DEBUG_VALUE:  <- [DW_OP_constu 88, DW_OP_minus] [$rbp+0]
	#DEBUG_VALUE: destroy: <- [DW_OP_constu 88, DW_OP_minus] [$rbp+0]
	#DEBUG_VALUE: __new_finish <- 0
	#DEBUG_VALUE: __new_start <- [DW_OP_constu 56, DW_OP_minus] [$rbp+0]
	#DEBUG_VALUE: __old_start <- [DW_OP_constu 64, DW_OP_minus] [$rbp+0]
	#DEBUG_VALUE: __old_finish <- [DW_OP_constu 72, DW_OP_minus] [$rbp+0]
	#DEBUG_VALUE: _M_realloc_insert:__position <- $r14
	#DEBUG_VALUE: _M_realloc_insert: <- [DW_OP_constu 88, DW_OP_minus] [$rbp+0]
	#DEBUG_VALUE:  <- [DW_OP_constu 88, DW_OP_minus] [$rbp+0]
	.loc	6 108 1                 # /usr/include/c++/9/bits/stl_construct.h:108:1
	subq	%rbx, %rax
.Ltmp62:
	leaq	31(%rax), %rcx
	sarq	$4, %rcx
	shrq	$59, %rcx
	leaq	(%rcx,%rax), %r15
	addq	$31, %r15
	andq	$-32, %r15
	addq	%rbx, %r15
	jmp	.LBB1_22
.Ltmp63:
	.p2align	4, 0x90
.LBB1_24:                               # %L..inline.123902.i.i71
                                        #   in Loop: Header=BB1_22 Depth=2
	#DEBUG_VALUE: __p <- $r13
	#DEBUG_VALUE: destroy:__p <- $r13
	#DEBUG_VALUE:  <- [DW_OP_constu 88, DW_OP_minus] [$rbp+0]
	#DEBUG_VALUE: destroy: <- [DW_OP_constu 88, DW_OP_minus] [$rbp+0]
	#DEBUG_VALUE: __new_finish <- 0
	#DEBUG_VALUE: __new_start <- [DW_OP_constu 56, DW_OP_minus] [$rbp+0]
	#DEBUG_VALUE: __old_start <- [DW_OP_constu 64, DW_OP_minus] [$rbp+0]
	#DEBUG_VALUE: __old_finish <- [DW_OP_constu 72, DW_OP_minus] [$rbp+0]
	#DEBUG_VALUE: _M_realloc_insert:__position <- $r14
	#DEBUG_VALUE: _M_realloc_insert: <- [DW_OP_constu 88, DW_OP_minus] [$rbp+0]
	#DEBUG_VALUE:  <- [DW_OP_constu 88, DW_OP_minus] [$rbp+0]
	addq	$16, %rbx
	cmpq	%rbx, %r15
	jbe	.LBB1_25
.Ltmp64:
.LBB1_22:                               # %L.B0147.i.i69
                                        #   Parent Loop BB1_18 Depth=1
                                        # =>  This Inner Loop Header: Depth=2
	#DEBUG_VALUE: __p <- $r13
	#DEBUG_VALUE: destroy:__p <- $r13
	#DEBUG_VALUE:  <- [DW_OP_constu 88, DW_OP_minus] [$rbp+0]
	#DEBUG_VALUE: destroy: <- [DW_OP_constu 88, DW_OP_minus] [$rbp+0]
	#DEBUG_VALUE: __new_finish <- 0
	#DEBUG_VALUE: __new_start <- [DW_OP_constu 56, DW_OP_minus] [$rbp+0]
	#DEBUG_VALUE: __old_start <- [DW_OP_constu 64, DW_OP_minus] [$rbp+0]
	#DEBUG_VALUE: __old_finish <- [DW_OP_constu 72, DW_OP_minus] [$rbp+0]
	#DEBUG_VALUE: _M_realloc_insert:__position <- $r14
	#DEBUG_VALUE: _M_realloc_insert: <- [DW_OP_constu 88, DW_OP_minus] [$rbp+0]
	#DEBUG_VALUE:  <- [DW_OP_constu 88, DW_OP_minus] [$rbp+0]
	#DEBUG_VALUE: __destroy:__first <- $rbx
	#DEBUG_VALUE: __first <- $rbx
	.loc	6 98 1                  # /usr/include/c++/9/bits/stl_construct.h:98:1
	movq	(%rbx), %rdi
	addq	$16, %rbx
.Ltmp65:
	cmpq	%rbx, %rdi
	je	.LBB1_24
.Ltmp66:
# %bb.23:                               # %L.B4963.i.i70
                                        #   in Loop: Header=BB1_22 Depth=2
	#DEBUG_VALUE: __p <- $r13
	#DEBUG_VALUE: destroy:__p <- $r13
	#DEBUG_VALUE:  <- [DW_OP_constu 88, DW_OP_minus] [$rbp+0]
	#DEBUG_VALUE: destroy: <- [DW_OP_constu 88, DW_OP_minus] [$rbp+0]
	#DEBUG_VALUE: __new_finish <- 0
	#DEBUG_VALUE: __new_start <- [DW_OP_constu 56, DW_OP_minus] [$rbp+0]
	#DEBUG_VALUE: __old_start <- [DW_OP_constu 64, DW_OP_minus] [$rbp+0]
	#DEBUG_VALUE: __old_finish <- [DW_OP_constu 72, DW_OP_minus] [$rbp+0]
	#DEBUG_VALUE: _M_realloc_insert:__position <- $r14
	#DEBUG_VALUE: _M_realloc_insert: <- [DW_OP_constu 88, DW_OP_minus] [$rbp+0]
	#DEBUG_VALUE:  <- [DW_OP_constu 88, DW_OP_minus] [$rbp+0]
	callq	_ZdlPv
	jmp	.LBB1_24
.Ltmp67:
	.p2align	4, 0x90
.LBB1_25:                               # %_ZNSt12_Destroy_auxILb0EE9__destroyIPNSt7__cxx1112basic_stringIcSt11char_traitsIcESaIcEEEEEvT_S9_.exitthread-pre-split.i73
                                        #   in Loop: Header=BB1_18 Depth=1
	#DEBUG_VALUE: __p <- $r13
	#DEBUG_VALUE: destroy:__p <- $r13
	#DEBUG_VALUE:  <- [DW_OP_constu 88, DW_OP_minus] [$rbp+0]
	#DEBUG_VALUE: destroy: <- [DW_OP_constu 88, DW_OP_minus] [$rbp+0]
	#DEBUG_VALUE: __new_finish <- 0
	#DEBUG_VALUE: __new_start <- [DW_OP_constu 56, DW_OP_minus] [$rbp+0]
	#DEBUG_VALUE: __old_start <- [DW_OP_constu 64, DW_OP_minus] [$rbp+0]
	#DEBUG_VALUE: __old_finish <- [DW_OP_constu 72, DW_OP_minus] [$rbp+0]
	#DEBUG_VALUE: _M_realloc_insert:__position <- $r14
	#DEBUG_VALUE: _M_realloc_insert: <- [DW_OP_constu 88, DW_OP_minus] [$rbp+0]
	#DEBUG_VALUE:  <- [DW_OP_constu 88, DW_OP_minus] [$rbp+0]
	.loc	5 680 1                 # /usr/include/c++/9/ext/new_allocator.h:680:1
	movq	32(%r13), %rbx
.Ltmp68:
.LBB1_26:                               # %_ZNSt12_Destroy_auxILb0EE9__destroyIPNSt7__cxx1112basic_stringIcSt11char_traitsIcESaIcEEEEEvT_S9_.exit.i74
                                        #   in Loop: Header=BB1_18 Depth=1
	#DEBUG_VALUE: __p <- $r13
	#DEBUG_VALUE: destroy:__p <- $r13
	#DEBUG_VALUE:  <- [DW_OP_constu 88, DW_OP_minus] [$rbp+0]
	#DEBUG_VALUE: destroy: <- [DW_OP_constu 88, DW_OP_minus] [$rbp+0]
	#DEBUG_VALUE: __new_finish <- 0
	#DEBUG_VALUE: __new_start <- [DW_OP_constu 56, DW_OP_minus] [$rbp+0]
	#DEBUG_VALUE: __old_start <- [DW_OP_constu 64, DW_OP_minus] [$rbp+0]
	#DEBUG_VALUE: __old_finish <- [DW_OP_constu 72, DW_OP_minus] [$rbp+0]
	#DEBUG_VALUE: _M_realloc_insert:__position <- $r14
	#DEBUG_VALUE: _M_realloc_insert: <- [DW_OP_constu 88, DW_OP_minus] [$rbp+0]
	#DEBUG_VALUE:  <- [DW_OP_constu 88, DW_OP_minus] [$rbp+0]
	testq	%rbx, %rbx
	je	.LBB1_28
.Ltmp69:
# %bb.27:                               # %L.B5574.i75
                                        #   in Loop: Header=BB1_18 Depth=1
	#DEBUG_VALUE: __p <- $r13
	#DEBUG_VALUE: destroy:__p <- $r13
	#DEBUG_VALUE:  <- [DW_OP_constu 88, DW_OP_minus] [$rbp+0]
	#DEBUG_VALUE: destroy: <- [DW_OP_constu 88, DW_OP_minus] [$rbp+0]
	#DEBUG_VALUE: __new_finish <- 0
	#DEBUG_VALUE: __new_start <- [DW_OP_constu 56, DW_OP_minus] [$rbp+0]
	#DEBUG_VALUE: __old_start <- [DW_OP_constu 64, DW_OP_minus] [$rbp+0]
	#DEBUG_VALUE: __old_finish <- [DW_OP_constu 72, DW_OP_minus] [$rbp+0]
	#DEBUG_VALUE: _M_realloc_insert:__position <- $r14
	#DEBUG_VALUE: _M_realloc_insert: <- [DW_OP_constu 88, DW_OP_minus] [$rbp+0]
	#DEBUG_VALUE:  <- [DW_OP_constu 88, DW_OP_minus] [$rbp+0]
	movq	%rbx, %rdi
	callq	_ZdlPv
	jmp	.LBB1_28
.Ltmp70:
.LBB1_29:                               # %L..inline.121577.loopexit
	#DEBUG_VALUE: __new_finish <- 0
	#DEBUG_VALUE: __new_start <- [DW_OP_constu 56, DW_OP_minus] [$rbp+0]
	#DEBUG_VALUE: __old_start <- [DW_OP_constu 64, DW_OP_minus] [$rbp+0]
	#DEBUG_VALUE: __old_finish <- [DW_OP_constu 72, DW_OP_minus] [$rbp+0]
	#DEBUG_VALUE: _M_realloc_insert:__position <- $r14
	#DEBUG_VALUE: _M_realloc_insert: <- [DW_OP_constu 88, DW_OP_minus] [$rbp+0]
	#DEBUG_VALUE:  <- [DW_OP_constu 88, DW_OP_minus] [$rbp+0]
	.loc	5 0 1 is_stmt 0         # /usr/include/c++/9/ext/new_allocator.h:0:1
	movq	-48(%rbp), %rbx         # 8-byte Reload
	movq	-64(%rbp), %r13         # 8-byte Reload
.Ltmp71:
.LBB1_30:                               # %L..inline.121577
	#DEBUG_VALUE: __new_finish <- 0
	#DEBUG_VALUE: __new_start <- [DW_OP_constu 56, DW_OP_minus] [$rbp+0]
	#DEBUG_VALUE: __old_start <- [DW_OP_constu 64, DW_OP_minus] [$rbp+0]
	#DEBUG_VALUE: __old_finish <- [DW_OP_constu 72, DW_OP_minus] [$rbp+0]
	#DEBUG_VALUE: _M_realloc_insert:__position <- $r14
	#DEBUG_VALUE: _M_realloc_insert: <- [DW_OP_constu 88, DW_OP_minus] [$rbp+0]
	#DEBUG_VALUE:  <- [DW_OP_constu 88, DW_OP_minus] [$rbp+0]
	#DEBUG_VALUE: __new_finish <- $r12
	.loc	4 464 1 is_stmt 1       # /usr/include/c++/9/bits/vector.tcc:464:1
	addq	$64, %r12
.Ltmp72:
	#DEBUG_VALUE: __new_finish <- $r12
	.loc	4 466 1                 # /usr/include/c++/9/bits/vector.tcc:466:1
	cmpq	-72(%rbp), %r14         # 8-byte Folded Reload
	jne	.LBB1_31
	jmp	.LBB1_43
.Ltmp73:
	.p2align	4, 0x90
.LBB1_41:                               # %_ZN9__gnu_cxx13new_allocatorIN3SBC24OutflowSpeciesParametersEE7destroyIS2_EEvPT_.exit88
                                        #   in Loop: Header=BB1_31 Depth=1
	#DEBUG_VALUE: __new_start <- [DW_OP_constu 56, DW_OP_minus] [$rbp+0]
	#DEBUG_VALUE: __old_start <- [DW_OP_constu 64, DW_OP_minus] [$rbp+0]
	#DEBUG_VALUE: __old_finish <- [DW_OP_constu 72, DW_OP_minus] [$rbp+0]
	#DEBUG_VALUE: _M_realloc_insert: <- [DW_OP_constu 88, DW_OP_minus] [$rbp+0]
	#DEBUG_VALUE:  <- [DW_OP_constu 88, DW_OP_minus] [$rbp+0]
	addq	$64, %r14
	addq	$64, %r12
	cmpq	-72(%rbp), %r14         # 8-byte Folded Reload
	je	.LBB1_42
.Ltmp74:
.LBB1_31:                               # %L.B4875
                                        # =>This Loop Header: Depth=1
                                        #     Child Loop BB1_35 Depth 2
	#DEBUG_VALUE: __new_start <- [DW_OP_constu 56, DW_OP_minus] [$rbp+0]
	#DEBUG_VALUE: __old_start <- [DW_OP_constu 64, DW_OP_minus] [$rbp+0]
	#DEBUG_VALUE: __old_finish <- [DW_OP_constu 72, DW_OP_minus] [$rbp+0]
	#DEBUG_VALUE: _M_realloc_insert: <- [DW_OP_constu 88, DW_OP_minus] [$rbp+0]
	#DEBUG_VALUE:  <- [DW_OP_constu 88, DW_OP_minus] [$rbp+0]
	#DEBUG_VALUE: construct: <- [DW_OP_constu 88, DW_OP_minus] [$rbp+0]
	#DEBUG_VALUE:  <- [DW_OP_constu 88, DW_OP_minus] [$rbp+0]
	#DEBUG_VALUE: construct:__p <- undef
	#DEBUG_VALUE: __p <- undef
	#DEBUG_VALUE: construct:__args <- $r14
	#DEBUG_VALUE: __args <- $r14
	.loc	5 147 1                 # /usr/include/c++/9/ext/new_allocator.h:147:1
	testq	%r12, %r12
	je	.LBB1_33
.Ltmp75:
# %bb.32:                               # %L.B5571.i77
                                        #   in Loop: Header=BB1_31 Depth=1
	#DEBUG_VALUE: __args <- $r14
	#DEBUG_VALUE: construct:__args <- $r14
	#DEBUG_VALUE:  <- [DW_OP_constu 88, DW_OP_minus] [$rbp+0]
	#DEBUG_VALUE: construct: <- [DW_OP_constu 88, DW_OP_minus] [$rbp+0]
	#DEBUG_VALUE: __new_start <- [DW_OP_constu 56, DW_OP_minus] [$rbp+0]
	#DEBUG_VALUE: __old_start <- [DW_OP_constu 64, DW_OP_minus] [$rbp+0]
	#DEBUG_VALUE: __old_finish <- [DW_OP_constu 72, DW_OP_minus] [$rbp+0]
	#DEBUG_VALUE: _M_realloc_insert: <- [DW_OP_constu 88, DW_OP_minus] [$rbp+0]
	#DEBUG_VALUE:  <- [DW_OP_constu 88, DW_OP_minus] [$rbp+0]
	movl	(%r14), %eax
	movl	%eax, (%r12)
	movzwl	4(%r14), %eax
	movw	%ax, 4(%r12)
	movq	8(%r14), %rax
	movq	%rax, 8(%r12)
	movq	16(%r14), %rax
	movq	%rax, 16(%r12)
	movq	24(%r14), %rax
	movq	%rax, 24(%r12)
	.loc	5 142 1                 # /usr/include/c++/9/ext/new_allocator.h:142:1
	movq	32(%r14), %rax
	movq	%rax, 32(%r12)
	movq	40(%r14), %rax
	movq	%rax, 40(%r12)
	movq	48(%r14), %rax
	movq	%rax, 48(%r12)
	vxorps	%xmm0, %xmm0, %xmm0
	vmovups	%xmm0, 32(%r14)
	movq	$0, 48(%r14)
	movq	56(%r14), %rax
	movq	%rax, 56(%r12)
.Ltmp76:
.LBB1_33:                               # %_ZN9__gnu_cxx13new_allocatorIN3SBC24OutflowSpeciesParametersEE9constructIS2_JS2_EEEvPT_DpOT0_.exit78
                                        #   in Loop: Header=BB1_31 Depth=1
	#DEBUG_VALUE: __new_start <- [DW_OP_constu 56, DW_OP_minus] [$rbp+0]
	#DEBUG_VALUE: __old_start <- [DW_OP_constu 64, DW_OP_minus] [$rbp+0]
	#DEBUG_VALUE: __old_finish <- [DW_OP_constu 72, DW_OP_minus] [$rbp+0]
	#DEBUG_VALUE: _M_realloc_insert: <- [DW_OP_constu 88, DW_OP_minus] [$rbp+0]
	#DEBUG_VALUE:  <- [DW_OP_constu 88, DW_OP_minus] [$rbp+0]
	#DEBUG_VALUE: destroy: <- [DW_OP_constu 88, DW_OP_minus] [$rbp+0]
	#DEBUG_VALUE:  <- [DW_OP_constu 88, DW_OP_minus] [$rbp+0]
	#DEBUG_VALUE: destroy:__p <- $r14
	#DEBUG_VALUE: __p <- $r14
	.loc	5 677 1                 # /usr/include/c++/9/ext/new_allocator.h:677:1
	movq	32(%r14), %rbx
	movq	40(%r14), %rax
.Ltmp77:
	#DEBUG_VALUE: __first <- $rbx
	#DEBUG_VALUE: __destroy:__first <- $rbx
	#DEBUG_VALUE: __last <- $rax
	#DEBUG_VALUE: __destroy:__last <- $rax
	.loc	6 107 1                 # /usr/include/c++/9/bits/stl_construct.h:107:1
	cmpq	%rax, %rbx
	je	.LBB1_39
.Ltmp78:
# %bb.34:                               # %L.B4962.i.i79
                                        #   in Loop: Header=BB1_31 Depth=1
	#DEBUG_VALUE: __destroy:__last <- $rax
	#DEBUG_VALUE: __last <- $rax
	#DEBUG_VALUE: __destroy:__first <- $rbx
	#DEBUG_VALUE: __first <- $rbx
	#DEBUG_VALUE: __p <- $r14
	#DEBUG_VALUE: destroy:__p <- $r14
	#DEBUG_VALUE:  <- [DW_OP_constu 88, DW_OP_minus] [$rbp+0]
	#DEBUG_VALUE: destroy: <- [DW_OP_constu 88, DW_OP_minus] [$rbp+0]
	#DEBUG_VALUE: __new_start <- [DW_OP_constu 56, DW_OP_minus] [$rbp+0]
	#DEBUG_VALUE: __old_start <- [DW_OP_constu 64, DW_OP_minus] [$rbp+0]
	#DEBUG_VALUE: __old_finish <- [DW_OP_constu 72, DW_OP_minus] [$rbp+0]
	#DEBUG_VALUE: _M_realloc_insert: <- [DW_OP_constu 88, DW_OP_minus] [$rbp+0]
	#DEBUG_VALUE:  <- [DW_OP_constu 88, DW_OP_minus] [$rbp+0]
	.loc	6 108 1                 # /usr/include/c++/9/bits/stl_construct.h:108:1
	subq	%rbx, %rax
.Ltmp79:
	leaq	31(%rax), %rcx
	sarq	$4, %rcx
	shrq	$59, %rcx
	leaq	(%rcx,%rax), %r15
	addq	$31, %r15
	andq	$-32, %r15
	addq	%rbx, %r15
	jmp	.LBB1_35
.Ltmp80:
	.p2align	4, 0x90
.LBB1_37:                               # %L..inline.123902.i.i83
                                        #   in Loop: Header=BB1_35 Depth=2
	#DEBUG_VALUE: __p <- $r14
	#DEBUG_VALUE: destroy:__p <- $r14
	#DEBUG_VALUE:  <- [DW_OP_constu 88, DW_OP_minus] [$rbp+0]
	#DEBUG_VALUE: destroy: <- [DW_OP_constu 88, DW_OP_minus] [$rbp+0]
	#DEBUG_VALUE: __new_start <- [DW_OP_constu 56, DW_OP_minus] [$rbp+0]
	#DEBUG_VALUE: __old_start <- [DW_OP_constu 64, DW_OP_minus] [$rbp+0]
	#DEBUG_VALUE: __old_finish <- [DW_OP_constu 72, DW_OP_minus] [$rbp+0]
	#DEBUG_VALUE: _M_realloc_insert: <- [DW_OP_constu 88, DW_OP_minus] [$rbp+0]
	#DEBUG_VALUE:  <- [DW_OP_constu 88, DW_OP_minus] [$rbp+0]
	addq	$16, %rbx
	cmpq	%rbx, %r15
	jbe	.LBB1_38
.Ltmp81:
.LBB1_35:                               # %L.B0147.i.i81
                                        #   Parent Loop BB1_31 Depth=1
                                        # =>  This Inner Loop Header: Depth=2
	#DEBUG_VALUE: __p <- $r14
	#DEBUG_VALUE: destroy:__p <- $r14
	#DEBUG_VALUE:  <- [DW_OP_constu 88, DW_OP_minus] [$rbp+0]
	#DEBUG_VALUE: destroy: <- [DW_OP_constu 88, DW_OP_minus] [$rbp+0]
	#DEBUG_VALUE: __new_start <- [DW_OP_constu 56, DW_OP_minus] [$rbp+0]
	#DEBUG_VALUE: __old_start <- [DW_OP_constu 64, DW_OP_minus] [$rbp+0]
	#DEBUG_VALUE: __old_finish <- [DW_OP_constu 72, DW_OP_minus] [$rbp+0]
	#DEBUG_VALUE: _M_realloc_insert: <- [DW_OP_constu 88, DW_OP_minus] [$rbp+0]
	#DEBUG_VALUE:  <- [DW_OP_constu 88, DW_OP_minus] [$rbp+0]
	#DEBUG_VALUE: __destroy:__first <- $rbx
	#DEBUG_VALUE: __first <- $rbx
	.loc	6 98 1                  # /usr/include/c++/9/bits/stl_construct.h:98:1
	movq	(%rbx), %rdi
	addq	$16, %rbx
.Ltmp82:
	cmpq	%rbx, %rdi
	je	.LBB1_37
.Ltmp83:
# %bb.36:                               # %L.B4963.i.i82
                                        #   in Loop: Header=BB1_35 Depth=2
	#DEBUG_VALUE: __p <- $r14
	#DEBUG_VALUE: destroy:__p <- $r14
	#DEBUG_VALUE:  <- [DW_OP_constu 88, DW_OP_minus] [$rbp+0]
	#DEBUG_VALUE: destroy: <- [DW_OP_constu 88, DW_OP_minus] [$rbp+0]
	#DEBUG_VALUE: __new_start <- [DW_OP_constu 56, DW_OP_minus] [$rbp+0]
	#DEBUG_VALUE: __old_start <- [DW_OP_constu 64, DW_OP_minus] [$rbp+0]
	#DEBUG_VALUE: __old_finish <- [DW_OP_constu 72, DW_OP_minus] [$rbp+0]
	#DEBUG_VALUE: _M_realloc_insert: <- [DW_OP_constu 88, DW_OP_minus] [$rbp+0]
	#DEBUG_VALUE:  <- [DW_OP_constu 88, DW_OP_minus] [$rbp+0]
	callq	_ZdlPv
	jmp	.LBB1_37
.Ltmp84:
	.p2align	4, 0x90
.LBB1_38:                               # %_ZNSt12_Destroy_auxILb0EE9__destroyIPNSt7__cxx1112basic_stringIcSt11char_traitsIcESaIcEEEEEvT_S9_.exitthread-pre-split.i85
                                        #   in Loop: Header=BB1_31 Depth=1
	#DEBUG_VALUE: __p <- $r14
	#DEBUG_VALUE: destroy:__p <- $r14
	#DEBUG_VALUE:  <- [DW_OP_constu 88, DW_OP_minus] [$rbp+0]
	#DEBUG_VALUE: destroy: <- [DW_OP_constu 88, DW_OP_minus] [$rbp+0]
	#DEBUG_VALUE: __new_start <- [DW_OP_constu 56, DW_OP_minus] [$rbp+0]
	#DEBUG_VALUE: __old_start <- [DW_OP_constu 64, DW_OP_minus] [$rbp+0]
	#DEBUG_VALUE: __old_finish <- [DW_OP_constu 72, DW_OP_minus] [$rbp+0]
	#DEBUG_VALUE: _M_realloc_insert: <- [DW_OP_constu 88, DW_OP_minus] [$rbp+0]
	#DEBUG_VALUE:  <- [DW_OP_constu 88, DW_OP_minus] [$rbp+0]
	.loc	5 680 1                 # /usr/include/c++/9/ext/new_allocator.h:680:1
	movq	32(%r14), %rbx
.Ltmp85:
.LBB1_39:                               # %_ZNSt12_Destroy_auxILb0EE9__destroyIPNSt7__cxx1112basic_stringIcSt11char_traitsIcESaIcEEEEEvT_S9_.exit.i86
                                        #   in Loop: Header=BB1_31 Depth=1
	#DEBUG_VALUE: __p <- $r14
	#DEBUG_VALUE: destroy:__p <- $r14
	#DEBUG_VALUE:  <- [DW_OP_constu 88, DW_OP_minus] [$rbp+0]
	#DEBUG_VALUE: destroy: <- [DW_OP_constu 88, DW_OP_minus] [$rbp+0]
	#DEBUG_VALUE: __new_start <- [DW_OP_constu 56, DW_OP_minus] [$rbp+0]
	#DEBUG_VALUE: __old_start <- [DW_OP_constu 64, DW_OP_minus] [$rbp+0]
	#DEBUG_VALUE: __old_finish <- [DW_OP_constu 72, DW_OP_minus] [$rbp+0]
	#DEBUG_VALUE: _M_realloc_insert: <- [DW_OP_constu 88, DW_OP_minus] [$rbp+0]
	#DEBUG_VALUE:  <- [DW_OP_constu 88, DW_OP_minus] [$rbp+0]
	testq	%rbx, %rbx
	je	.LBB1_41
.Ltmp86:
# %bb.40:                               # %L.B5574.i87
                                        #   in Loop: Header=BB1_31 Depth=1
	#DEBUG_VALUE: __p <- $r14
	#DEBUG_VALUE: destroy:__p <- $r14
	#DEBUG_VALUE:  <- [DW_OP_constu 88, DW_OP_minus] [$rbp+0]
	#DEBUG_VALUE: destroy: <- [DW_OP_constu 88, DW_OP_minus] [$rbp+0]
	#DEBUG_VALUE: __new_start <- [DW_OP_constu 56, DW_OP_minus] [$rbp+0]
	#DEBUG_VALUE: __old_start <- [DW_OP_constu 64, DW_OP_minus] [$rbp+0]
	#DEBUG_VALUE: __old_finish <- [DW_OP_constu 72, DW_OP_minus] [$rbp+0]
	#DEBUG_VALUE: _M_realloc_insert: <- [DW_OP_constu 88, DW_OP_minus] [$rbp+0]
	#DEBUG_VALUE:  <- [DW_OP_constu 88, DW_OP_minus] [$rbp+0]
	movq	%rbx, %rdi
	callq	_ZdlPv
	jmp	.LBB1_41
.Ltmp87:
.LBB1_42:                               # %L..inline.121710.L.B0121.loopexit_crit_edge
	#DEBUG_VALUE: __new_start <- [DW_OP_constu 56, DW_OP_minus] [$rbp+0]
	#DEBUG_VALUE: __old_start <- [DW_OP_constu 64, DW_OP_minus] [$rbp+0]
	#DEBUG_VALUE: __old_finish <- [DW_OP_constu 72, DW_OP_minus] [$rbp+0]
	#DEBUG_VALUE: _M_realloc_insert: <- [DW_OP_constu 88, DW_OP_minus] [$rbp+0]
	#DEBUG_VALUE:  <- [DW_OP_constu 88, DW_OP_minus] [$rbp+0]
	.loc	5 0 1 is_stmt 0         # /usr/include/c++/9/ext/new_allocator.h:0:1
	movq	-48(%rbp), %rbx         # 8-byte Reload
.Ltmp88:
.LBB1_43:                               # %L.B0121
	#DEBUG_VALUE: __new_start <- [DW_OP_constu 56, DW_OP_minus] [$rbp+0]
	#DEBUG_VALUE: __old_start <- [DW_OP_constu 64, DW_OP_minus] [$rbp+0]
	#DEBUG_VALUE: __old_finish <- [DW_OP_constu 72, DW_OP_minus] [$rbp+0]
	#DEBUG_VALUE: _M_realloc_insert: <- [DW_OP_constu 88, DW_OP_minus] [$rbp+0]
	#DEBUG_VALUE:  <- [DW_OP_constu 88, DW_OP_minus] [$rbp+0]
	#DEBUG_VALUE: __new_finish <- $r12
	.loc	4 500 1 is_stmt 1       # /usr/include/c++/9/bits/vector.tcc:500:1
	testq	%r13, %r13
	movq	-56(%rbp), %r14         # 8-byte Reload
	je	.LBB1_45
.Ltmp89:
# %bb.44:                               # %L.B4881
	#DEBUG_VALUE: __new_finish <- $r12
	#DEBUG_VALUE: __new_start <- [DW_OP_constu 56, DW_OP_minus] [$rbp+0]
	#DEBUG_VALUE: __old_start <- [DW_OP_constu 64, DW_OP_minus] [$rbp+0]
	#DEBUG_VALUE: __old_finish <- [DW_OP_constu 72, DW_OP_minus] [$rbp+0]
	#DEBUG_VALUE: _M_realloc_insert: <- [DW_OP_constu 88, DW_OP_minus] [$rbp+0]
	#DEBUG_VALUE:  <- [DW_OP_constu 88, DW_OP_minus] [$rbp+0]
	.loc	4 351 1                 # /usr/include/c++/9/bits/vector.tcc:351:1
	movq	%r13, %rdi
	callq	_ZdlPv
.Ltmp90:
.LBB1_45:                               # %L..inline.121949
	#DEBUG_VALUE: __new_finish <- $r12
	#DEBUG_VALUE: __new_start <- [DW_OP_constu 56, DW_OP_minus] [$rbp+0]
	#DEBUG_VALUE: __old_start <- [DW_OP_constu 64, DW_OP_minus] [$rbp+0]
	#DEBUG_VALUE: __old_finish <- [DW_OP_constu 72, DW_OP_minus] [$rbp+0]
	#DEBUG_VALUE: _M_realloc_insert: <- [DW_OP_constu 88, DW_OP_minus] [$rbp+0]
	#DEBUG_VALUE:  <- [DW_OP_constu 88, DW_OP_minus] [$rbp+0]
	.loc	4 0 1 is_stmt 0         # /usr/include/c++/9/bits/vector.tcc:0:1
	movq	-88(%rbp), %rax         # 8-byte Reload
	.loc	4 502 1 is_stmt 1       # /usr/include/c++/9/bits/vector.tcc:502:1
	movq	%r14, (%rax)
	.loc	4 503 1                 # /usr/include/c++/9/bits/vector.tcc:503:1
	movq	%r12, 8(%rax)
	.loc	4 504 1                 # /usr/include/c++/9/bits/vector.tcc:504:1
	shlq	$6, %rbx
	addq	%r14, %rbx
	movq	%rbx, 16(%rax)
	.loc	4 505 1                 # /usr/include/c++/9/bits/vector.tcc:505:1
	addq	$56, %rsp
	popq	%rbx
	popq	%r12
.Ltmp91:
	popq	%r13
	popq	%r14
	popq	%r15
	popq	%rbp
	.cfi_def_cfa %rsp, 8
	retq
.Ltmp92:
.LBB1_4:
	.cfi_def_cfa %rbp, 16
	#DEBUG_VALUE: __len <- $rbx
	#DEBUG_VALUE: __old_start <- [DW_OP_constu 64, DW_OP_minus] [$rbp+0]
	#DEBUG_VALUE: __old_finish <- [DW_OP_constu 72, DW_OP_minus] [$rbp+0]
	#DEBUG_VALUE: _M_realloc_insert:__position <- $r14
	#DEBUG_VALUE: _M_realloc_insert: <- [DW_OP_constu 88, DW_OP_minus] [$rbp+0]
	#DEBUG_VALUE:  <- [DW_OP_constu 88, DW_OP_minus] [$rbp+0]
	#DEBUG_VALUE: _M_realloc_insert:__args <- $r13
	.loc	4 0 1 is_stmt 0         # /usr/include/c++/9/bits/vector.tcc:0:1
	xorl	%ebx, %ebx
.Ltmp93:
	.loc	4 343 1 is_stmt 1       # /usr/include/c++/9/bits/vector.tcc:343:1
	xorl	%eax, %eax
	jmp	.LBB1_6
.Ltmp94:
.LBB1_48:                               # %L.B4867
	#DEBUG_VALUE: _M_realloc_insert: <- [DW_OP_constu 88, DW_OP_minus] [$rbp+0]
	#DEBUG_VALUE:  <- [DW_OP_constu 88, DW_OP_minus] [$rbp+0]
	#DEBUG_VALUE: _M_realloc_insert:__args <- $r13
	#DEBUG_VALUE: _M_realloc_insert:__position <- $rsi
	.loc	4 1756 1                # /usr/include/c++/9/bits/vector.tcc:1756:1
	movl	$.S59927, %edi
	callq	_ZSt20__throw_length_errorPKc
.Ltmp95:
.LBB1_10:                               # %L.B4623.i.i
	#DEBUG_VALUE: _Vector_base: <- [DW_OP_plus_uconst 32, DW_OP_stack_value] $r12
	#DEBUG_VALUE:  <- [DW_OP_plus_uconst 32, DW_OP_stack_value] $r12
	#DEBUG_VALUE: construct:__p <- $r12
	#DEBUG_VALUE: __p <- $r12
	#DEBUG_VALUE: __new_start <- [DW_OP_constu 56, DW_OP_minus] [$rbp+0]
	#DEBUG_VALUE: __new_finish <- [DW_OP_constu 56, DW_OP_minus] [$rbp+0]
	#DEBUG_VALUE: __args <- $r13
	#DEBUG_VALUE: construct:__args <- $r13
	#DEBUG_VALUE:  <- [DW_OP_constu 88, DW_OP_minus] [$rbp+0]
	#DEBUG_VALUE: construct: <- [DW_OP_constu 88, DW_OP_minus] [$rbp+0]
	#DEBUG_VALUE: __old_start <- [DW_OP_constu 64, DW_OP_minus] [$rbp+0]
	#DEBUG_VALUE: __old_finish <- [DW_OP_constu 72, DW_OP_minus] [$rbp+0]
	#DEBUG_VALUE: _M_realloc_insert:__position <- $r14
	#DEBUG_VALUE: _M_realloc_insert: <- [DW_OP_constu 88, DW_OP_minus] [$rbp+0]
	#DEBUG_VALUE:  <- [DW_OP_constu 88, DW_OP_minus] [$rbp+0]
	#DEBUG_VALUE: _M_realloc_insert:__args <- $r13
.Ltmp18:
	.loc	2 358 1                 # /usr/include/c++/9/bits/stl_vector.h:358:1
	callq	_ZSt17__throw_bad_allocv
.Ltmp19:
.Ltmp96:
# %bb.11:                               # %.noexc
	#DEBUG_VALUE: _Vector_base: <- [DW_OP_plus_uconst 32, DW_OP_stack_value] $r12
	#DEBUG_VALUE:  <- [DW_OP_plus_uconst 32, DW_OP_stack_value] $r12
	#DEBUG_VALUE: construct:__p <- $r12
	#DEBUG_VALUE: __p <- $r12
	#DEBUG_VALUE: __new_start <- [DW_OP_constu 56, DW_OP_minus] [$rbp+0]
	#DEBUG_VALUE: __new_finish <- [DW_OP_constu 56, DW_OP_minus] [$rbp+0]
	#DEBUG_VALUE: __args <- $r13
	#DEBUG_VALUE: construct:__args <- $r13
	#DEBUG_VALUE:  <- [DW_OP_constu 88, DW_OP_minus] [$rbp+0]
	#DEBUG_VALUE: construct: <- [DW_OP_constu 88, DW_OP_minus] [$rbp+0]
	#DEBUG_VALUE: __old_start <- [DW_OP_constu 64, DW_OP_minus] [$rbp+0]
	#DEBUG_VALUE: __old_finish <- [DW_OP_constu 72, DW_OP_minus] [$rbp+0]
	#DEBUG_VALUE: _M_realloc_insert:__position <- $r14
	#DEBUG_VALUE: _M_realloc_insert: <- [DW_OP_constu 88, DW_OP_minus] [$rbp+0]
	#DEBUG_VALUE:  <- [DW_OP_constu 88, DW_OP_minus] [$rbp+0]
	#DEBUG_VALUE: _M_realloc_insert:__args <- $r13
.LBB1_46:                               # %L_T19606728_57055
	#DEBUG_VALUE: __new_start <- [DW_OP_constu 56, DW_OP_minus] [$rbp+0]
	#DEBUG_VALUE: __new_finish <- [DW_OP_constu 56, DW_OP_minus] [$rbp+0]
	#DEBUG_VALUE: __old_start <- [DW_OP_constu 64, DW_OP_minus] [$rbp+0]
	#DEBUG_VALUE: __old_finish <- [DW_OP_constu 72, DW_OP_minus] [$rbp+0]
	#DEBUG_VALUE: _M_realloc_insert:__position <- $r14
	#DEBUG_VALUE: _M_realloc_insert: <- [DW_OP_constu 88, DW_OP_minus] [$rbp+0]
	#DEBUG_VALUE:  <- [DW_OP_constu 88, DW_OP_minus] [$rbp+0]
	#DEBUG_VALUE: _M_realloc_insert:__args <- $r13
.Ltmp24:
	.loc	4 486 1                 # /usr/include/c++/9/bits/vector.tcc:486:1
	movq	%rax, %rdi
	callq	__cxa_begin_catch
	movq	-56(%rbp), %r12         # 8-byte Reload
.Ltmp97:
	.loc	4 351 1                 # /usr/include/c++/9/bits/vector.tcc:351:1
	movq	%r12, %rdi
	callq	_ZdlPv
.Ltmp25:
.Ltmp98:
	.loc	4 493 1                 # /usr/include/c++/9/bits/vector.tcc:493:1
	callq	__cxa_rethrow
.Ltmp26:
	movq	-48(%rbp), %rbx         # 8-byte Reload
	movq	-64(%rbp), %r13         # 8-byte Reload
.Ltmp99:
	jmp	.LBB1_43
.Ltmp100:
.LBB1_47:                               # %L_T19607088_57055
	#DEBUG_VALUE: __new_start <- [DW_OP_constu 56, DW_OP_minus] [$rbp+0]
	#DEBUG_VALUE: __new_finish <- [DW_OP_constu 56, DW_OP_minus] [$rbp+0]
	#DEBUG_VALUE: __old_start <- [DW_OP_constu 64, DW_OP_minus] [$rbp+0]
	#DEBUG_VALUE: __old_finish <- [DW_OP_constu 72, DW_OP_minus] [$rbp+0]
	#DEBUG_VALUE: _M_realloc_insert:__position <- $r14
	#DEBUG_VALUE: _M_realloc_insert: <- [DW_OP_constu 88, DW_OP_minus] [$rbp+0]
	#DEBUG_VALUE:  <- [DW_OP_constu 88, DW_OP_minus] [$rbp+0]
.Ltmp27:
	.loc	4 0 1 is_stmt 0         # /usr/include/c++/9/bits/vector.tcc:0:1
	movq	%rax, %rbx
	.loc	4 494 1 is_stmt 1       # /usr/include/c++/9/bits/vector.tcc:494:1
	callq	__cxa_end_catch
	movq	%rbx, %rdi
	callq	_Unwind_Resume
.Ltmp101:
.Lfunc_end1:
	.size	_ZNSt6vectorIN3SBC24OutflowSpeciesParametersESaIS1_EE17_M_realloc_insertIJRKS1_EEEvN9__gnu_cxx17__normal_iteratorIPS1_S3_EEDpOT_, .Lfunc_end1-_ZNSt6vectorIN3SBC24OutflowSpeciesParametersESaIS1_EE17_M_realloc_insertIJRKS1_EEEvN9__gnu_cxx17__normal_iteratorIPS1_S3_EEDpOT_
	.cfi_endproc
	.section	.gcc_except_table,"a",@progbits
	.p2align	2
GCC_except_table1:
.Lexception0:
	.byte	255                     # @LPStart Encoding = omit
	.byte	3                       # @TType Encoding = udata4
	.uleb128 .Lttbase0-.Lttbaseref0
.Lttbaseref0:
	.byte	1                       # Call site Encoding = uleb128
	.uleb128 .Lcst_end0-.Lcst_begin0
.Lcst_begin0:
	.uleb128 .Lfunc_begin1-.Lfunc_begin1 # >> Call Site 1 <<
	.uleb128 .Ltmp20-.Lfunc_begin1  #   Call between .Lfunc_begin1 and .Ltmp20
	.byte	0                       #     has no landing pad
	.byte	0                       #   On action: cleanup
	.uleb128 .Ltmp20-.Lfunc_begin1  # >> Call Site 2 <<
	.uleb128 .Ltmp23-.Ltmp20        #   Call between .Ltmp20 and .Ltmp23
	.uleb128 .Ltmp24-.Lfunc_begin1  #     jumps to .Ltmp24
	.byte	1                       #   On action: 1
	.uleb128 .Ltmp23-.Lfunc_begin1  # >> Call Site 3 <<
	.uleb128 .Ltmp18-.Ltmp23        #   Call between .Ltmp23 and .Ltmp18
	.byte	0                       #     has no landing pad
	.byte	0                       #   On action: cleanup
	.uleb128 .Ltmp18-.Lfunc_begin1  # >> Call Site 4 <<
	.uleb128 .Ltmp19-.Ltmp18        #   Call between .Ltmp18 and .Ltmp19
	.uleb128 .Ltmp24-.Lfunc_begin1  #     jumps to .Ltmp24
	.byte	1                       #   On action: 1
	.uleb128 .Ltmp19-.Lfunc_begin1  # >> Call Site 5 <<
	.uleb128 .Ltmp25-.Ltmp19        #   Call between .Ltmp19 and .Ltmp25
	.byte	0                       #     has no landing pad
	.byte	0                       #   On action: cleanup
	.uleb128 .Ltmp25-.Lfunc_begin1  # >> Call Site 6 <<
	.uleb128 .Ltmp26-.Ltmp25        #   Call between .Ltmp25 and .Ltmp26
	.uleb128 .Ltmp27-.Lfunc_begin1  #     jumps to .Ltmp27
	.byte	0                       #   On action: cleanup
	.uleb128 .Ltmp26-.Lfunc_begin1  # >> Call Site 7 <<
	.uleb128 .Lfunc_end1-.Ltmp26    #   Call between .Ltmp26 and .Lfunc_end1
	.byte	0                       #     has no landing pad
	.byte	0                       #   On action: cleanup
.Lcst_end0:
	.byte	1                       # >> Action Record 1 <<
                                        #   Catch TypeInfo 1
	.byte	0                       #   No further actions
	.p2align	2
                                        # >> Catch TypeInfos <<
	.long	0                       # TypeInfo 1
.Lttbase0:
	.p2align	2
                                        # -- End function
	.text
	.weak	_ZNSt20__uninitialized_copyILb0EE13__uninit_copyIN9__gnu_cxx17__normal_iteratorIPKNSt7__cxx1112basic_stringIcSt11char_traitsIcESaIcEEESt6vectorIS9_SaIS9_EEEEPS9_EET0_T_SI_SH_ # -- Begin function _ZNSt20__uninitialized_copyILb0EE13__uninit_copyIN9__gnu_cxx17__normal_iteratorIPKNSt7__cxx1112basic_stringIcSt11char_traitsIcESaIcEEESt6vectorIS9_SaIS9_EEEEPS9_EET0_T_SI_SH_
	.p2align	4, 0x90
	.type	_ZNSt20__uninitialized_copyILb0EE13__uninit_copyIN9__gnu_cxx17__normal_iteratorIPKNSt7__cxx1112basic_stringIcSt11char_traitsIcESaIcEEESt6vectorIS9_SaIS9_EEEEPS9_EET0_T_SI_SH_,@function
_ZNSt20__uninitialized_copyILb0EE13__uninit_copyIN9__gnu_cxx17__normal_iteratorIPKNSt7__cxx1112basic_stringIcSt11char_traitsIcESaIcEEESt6vectorIS9_SaIS9_EEEEPS9_EET0_T_SI_SH_: # @_ZNSt20__uninitialized_copyILb0EE13__uninit_copyIN9__gnu_cxx17__normal_iteratorIPKNSt7__cxx1112basic_stringIcSt11char_traitsIcESaIcEEESt6vectorIS9_SaIS9_EEEEPS9_EET0_T_SI_SH_
.Lfunc_begin2:
	.file	7 "/usr/include/c++/9/bits/stl_uninitialized.h"
	.loc	7 78 0                  # /usr/include/c++/9/bits/stl_uninitialized.h:78:0
	.cfi_startproc
	.cfi_personality 3, __gxx_personality_v0
	.cfi_lsda 3, .Lexception1
# %bb.0:                                # %L.entry
	#DEBUG_VALUE: __uninit_copy:__first <- $rdi
	#DEBUG_VALUE: __uninit_copy:__last <- $rsi
	#DEBUG_VALUE: __uninit_copy:__result <- $rdx
	pushq	%rbp
	.cfi_def_cfa_offset 16
	.cfi_offset %rbp, -16
	movq	%rsp, %rbp
	.cfi_def_cfa_register %rbp
	pushq	%r15
	pushq	%r14
	pushq	%r13
	pushq	%r12
	pushq	%rbx
	subq	$24, %rsp
	.cfi_offset %rbx, -56
	.cfi_offset %r12, -48
	.cfi_offset %r13, -40
	.cfi_offset %r14, -32
	.cfi_offset %r15, -24
	movq	%rdx, %r12
.Ltmp111:
	#DEBUG_VALUE: __cur <- undef
	#DEBUG_VALUE: __result <- undef
	#DEBUG_VALUE: __uninit_copy:__result <- $r12
	#DEBUG_VALUE: __uninit_copy:__last <- $rsi
	#DEBUG_VALUE: __uninit_copy:__first <- $rdi
	.loc	7 910 1 prologue_end    # /usr/include/c++/9/bits/stl_uninitialized.h:910:1
	cmpq	%rsi, %rdi
	je	.LBB2_17
.Ltmp112:
# %bb.1:                                # %L.B4980.lr.ph
	#DEBUG_VALUE: __uninit_copy:__result <- $r12
	#DEBUG_VALUE: __uninit_copy:__last <- $rsi
	#DEBUG_VALUE: __uninit_copy:__first <- $rdi
	subq	%rdi, %rsi
.Ltmp113:
	.loc	7 0 1 is_stmt 0         # /usr/include/c++/9/bits/stl_uninitialized.h:0:1
	xorl	%r14d, %r14d
	.loc	7 910 1                 # /usr/include/c++/9/bits/stl_uninitialized.h:910:1
	leaq	32(%rdi), %rax
	movq	%rax, -64(%rbp)         # 8-byte Spill
	movq	%rsi, -56(%rbp)         # 8-byte Spill
	jmp	.LBB2_2
.Ltmp114:
	.p2align	4, 0x90
.LBB2_13:                               # %L..inline.125929.i.i
                                        #   in Loop: Header=BB2_2 Depth=1
	#DEBUG_VALUE: ....inline.__FILL_CHARARRAY <- [DW_OP_LLVM_convert 32 7, DW_OP_LLVM_convert 8 7, DW_OP_stack_value] 0
	#DEBUG_VALUE: _M_construct:__beg <- $r13
	#DEBUG_VALUE: __beg <- $r13
	#DEBUG_VALUE: __uninit_copy:__result <- $r12
	.file	8 "/usr/include/c++/9/bits/basic_string.tcc"
	.loc	8 393 1 is_stmt 1       # /usr/include/c++/9/bits/basic_string.tcc:393:1
	movq	%rax, %rdi
	movq	%r13, %rsi
	movq	%r15, %rdx
	callq	memcpy
.Ltmp115:
.LBB2_14:                               # %_ZNSt7__cxx1112basic_stringIcSt11char_traitsIcESaIcEE12_M_constructIPcEEvT_S7_St20forward_iterator_tag.exit.i
                                        #   in Loop: Header=BB2_2 Depth=1
	#DEBUG_VALUE: ....inline.__FILL_CHARARRAY <- [DW_OP_LLVM_convert 32 7, DW_OP_LLVM_convert 8 7, DW_OP_stack_value] 0
	#DEBUG_VALUE: _M_construct:__beg <- $r13
	#DEBUG_VALUE: __beg <- $r13
	#DEBUG_VALUE: __uninit_copy:__result <- $r12
	.loc	8 232 1                 # /usr/include/c++/9/bits/basic_string.tcc:232:1
	movq	-48(%rbp), %rax
.Ltmp116:
	#DEBUG_VALUE: __dnew <- $rax
	.loc	8 216 1                 # /usr/include/c++/9/bits/basic_string.tcc:216:1
	movq	%rax, 8(%r12,%r14)
	.loc	8 217 1                 # /usr/include/c++/9/bits/basic_string.tcc:217:1
	movq	(%r12,%r14), %rcx
	movb	$0, (%rcx,%rax)
	movq	-56(%rbp), %rsi         # 8-byte Reload
.Ltmp117:
.LBB2_15:                               # %L.B4981
                                        #   in Loop: Header=BB2_2 Depth=1
	#DEBUG_VALUE: __uninit_copy:__result <- $r12
	.loc	8 0 1 is_stmt 0         # /usr/include/c++/9/bits/basic_string.tcc:0:1
	movq	-64(%rbp), %rax         # 8-byte Reload
	.loc	7 83 1 is_stmt 1        # /usr/include/c++/9/bits/stl_uninitialized.h:83:1
	leaq	(%rax,%r14), %rdi
.Ltmp118:
	#DEBUG_VALUE: __cur <- [DW_OP_plus_uconst 32, DW_OP_stack_value] undef
	#DEBUG_VALUE: __uninit_copy:__first <- $rdi
	.loc	7 910 1                 # /usr/include/c++/9/bits/stl_uninitialized.h:910:1
	addq	$32, %r14
	cmpq	%r14, %rsi
	je	.LBB2_16
.Ltmp119:
.LBB2_2:                                # %L.B4980
                                        # =>This Inner Loop Header: Depth=1
	#DEBUG_VALUE: __uninit_copy:__result <- $r12
	#DEBUG_VALUE: __uninit_copy:__first <- $rdi
	#DEBUG_VALUE: __uninit_copy:__first <- $rdi
	#DEBUG_VALUE: __cur <- undef
	#DEBUG_VALUE: _Construct:__p <- undef
	#DEBUG_VALUE: __p <- undef
	#DEBUG_VALUE: _Construct:__args <- $rdi
	#DEBUG_VALUE: __args <- $rdi
	.loc	6 75 1                  # /usr/include/c++/9/bits/stl_construct.h:75:1
	movq	%r12, %rbx
	addq	%r14, %rbx
	je	.LBB2_15
.Ltmp120:
# %bb.3:                                # %L.B7889.i
                                        #   in Loop: Header=BB2_2 Depth=1
	#DEBUG_VALUE: __args <- $rdi
	#DEBUG_VALUE: _Construct:__args <- $rdi
	#DEBUG_VALUE: __uninit_copy:__result <- $r12
	#DEBUG_VALUE: __uninit_copy:__first <- $rdi
	.loc	6 451 1                 # /usr/include/c++/9/bits/stl_construct.h:451:1
	leaq	(%r12,%r14), %rax
	addq	$16, %rax
	movq	%rax, (%r12,%r14)
	movq	(%rdi), %r13
	movq	8(%rdi), %r15
.Ltmp121:
	#DEBUG_VALUE: _M_construct:_T19604064_57212 <- undef
	#DEBUG_VALUE: __end <- undef
	#DEBUG_VALUE: _M_construct:__end <- undef
	#DEBUG_VALUE: __beg <- $r13
	#DEBUG_VALUE: _M_construct:__beg <- $r13
	#DEBUG_VALUE:  <- undef
	#DEBUG_VALUE: _M_construct: <- undef
	#DEBUG_VALUE: ....inline.__FILL_CHARARRAY <- [DW_OP_LLVM_convert 32 7, DW_OP_LLVM_convert 8 7, DW_OP_stack_value] 0
	.loc	8 211 1                 # /usr/include/c++/9/bits/basic_string.tcc:211:1
	testq	%r13, %r13
	.loc	8 153 1                 # /usr/include/c++/9/bits/basic_string.tcc:153:1
	jne	.LBB2_7
.Ltmp122:
# %bb.4:                                # %L.B7889.i
                                        #   in Loop: Header=BB2_2 Depth=1
	#DEBUG_VALUE: ....inline.__FILL_CHARARRAY <- [DW_OP_LLVM_convert 32 7, DW_OP_LLVM_convert 8 7, DW_OP_stack_value] 0
	#DEBUG_VALUE: _M_construct:__beg <- $r13
	#DEBUG_VALUE: __beg <- $r13
	#DEBUG_VALUE: __args <- $rdi
	#DEBUG_VALUE: _Construct:__args <- $rdi
	#DEBUG_VALUE: __uninit_copy:__result <- $r12
	#DEBUG_VALUE: __uninit_copy:__first <- $rdi
	.loc	6 0 0 is_stmt 0         # /usr/include/c++/9/bits/stl_construct.h:0:0
	leaq	(%r15,%r13), %rcx
.Ltmp123:
	#DEBUG_VALUE: __end <- $rcx
	#DEBUG_VALUE: _M_construct:__end <- $rcx
	.loc	8 153 1                 # /usr/include/c++/9/bits/basic_string.tcc:153:1
	cmpq	%rcx, %r13
	jne	.LBB2_5
.Ltmp124:
.LBB2_7:                                # %L.B0170.i.i
                                        #   in Loop: Header=BB2_2 Depth=1
	#DEBUG_VALUE: ....inline.__FILL_CHARARRAY <- [DW_OP_LLVM_convert 32 7, DW_OP_LLVM_convert 8 7, DW_OP_stack_value] 0
	#DEBUG_VALUE: _M_construct:__beg <- $r13
	#DEBUG_VALUE: __beg <- $r13
	#DEBUG_VALUE: __args <- $rdi
	#DEBUG_VALUE: _Construct:__args <- $rdi
	#DEBUG_VALUE: __uninit_copy:__result <- $r12
	#DEBUG_VALUE: __uninit_copy:__first <- $rdi
	#DEBUG_VALUE: __dnew <- $r15
	.loc	8 143 1 is_stmt 1       # /usr/include/c++/9/bits/basic_string.tcc:143:1
	movq	%r15, -48(%rbp)
	.loc	8 217 1                 # /usr/include/c++/9/bits/basic_string.tcc:217:1
	cmpq	$16, %r15
	jb	.LBB2_10
.Ltmp125:
# %bb.8:                                # %L.B5135.i.i
                                        #   in Loop: Header=BB2_2 Depth=1
	#DEBUG_VALUE: __dnew <- $r15
	#DEBUG_VALUE: ....inline.__FILL_CHARARRAY <- [DW_OP_LLVM_convert 32 7, DW_OP_LLVM_convert 8 7, DW_OP_stack_value] 0
	#DEBUG_VALUE: _M_construct:__beg <- $r13
	#DEBUG_VALUE: __beg <- $r13
	#DEBUG_VALUE: __args <- $rdi
	#DEBUG_VALUE: _Construct:__args <- $rdi
	#DEBUG_VALUE: __uninit_copy:__result <- $r12
	#DEBUG_VALUE: __uninit_copy:__first <- $rdi
.Ltmp105:
	#DEBUG_VALUE: __dnew <- [DW_OP_constu 48, DW_OP_minus, DW_OP_deref] $rbp
	.loc	8 219 1                 # /usr/include/c++/9/bits/basic_string.tcc:219:1
	movq	%rbx, %rdi
.Ltmp126:
	leaq	-48(%rbp), %rsi
	xorl	%edx, %edx
	callq	_ZNSt7__cxx1112basic_stringIcSt11char_traitsIcESaIcEE9_M_createERmm
.Ltmp106:
.Ltmp127:
# %bb.9:                                # %.noexc7
                                        #   in Loop: Header=BB2_2 Depth=1
	#DEBUG_VALUE: __dnew <- [DW_OP_constu 48, DW_OP_minus, DW_OP_deref] $rbp
	#DEBUG_VALUE: ....inline.__FILL_CHARARRAY <- [DW_OP_LLVM_convert 32 7, DW_OP_LLVM_convert 8 7, DW_OP_stack_value] 0
	#DEBUG_VALUE: _M_construct:__beg <- $r13
	#DEBUG_VALUE: __beg <- $r13
	#DEBUG_VALUE: __uninit_copy:__result <- $r12
	movq	%rax, (%r12,%r14)
	.loc	8 220 1                 # /usr/include/c++/9/bits/basic_string.tcc:220:1
	movq	-48(%rbp), %rcx
.Ltmp128:
	#DEBUG_VALUE: __dnew <- $rcx
	movq	%rcx, 16(%r12,%r14)
.Ltmp129:
.LBB2_10:                               # %L.B0171.i.i
                                        #   in Loop: Header=BB2_2 Depth=1
	#DEBUG_VALUE: ....inline.__FILL_CHARARRAY <- [DW_OP_LLVM_convert 32 7, DW_OP_LLVM_convert 8 7, DW_OP_stack_value] 0
	#DEBUG_VALUE: _M_construct:__beg <- $r13
	#DEBUG_VALUE: __beg <- $r13
	#DEBUG_VALUE: __uninit_copy:__result <- $r12
	.loc	8 393 1                 # /usr/include/c++/9/bits/basic_string.tcc:393:1
	testq	%r15, %r15
	je	.LBB2_14
.Ltmp130:
# %bb.11:                               # %L.B0171.i.i
                                        #   in Loop: Header=BB2_2 Depth=1
	#DEBUG_VALUE: ....inline.__FILL_CHARARRAY <- [DW_OP_LLVM_convert 32 7, DW_OP_LLVM_convert 8 7, DW_OP_stack_value] 0
	#DEBUG_VALUE: _M_construct:__beg <- $r13
	#DEBUG_VALUE: __beg <- $r13
	#DEBUG_VALUE: __uninit_copy:__result <- $r12
	cmpq	$1, %r15
	jne	.LBB2_13
.Ltmp131:
# %bb.12:                               # %L.B5136.i.i
                                        #   in Loop: Header=BB2_2 Depth=1
	#DEBUG_VALUE: ....inline.__FILL_CHARARRAY <- [DW_OP_LLVM_convert 32 7, DW_OP_LLVM_convert 8 7, DW_OP_stack_value] 0
	#DEBUG_VALUE: _M_construct:__beg <- $r13
	#DEBUG_VALUE: __beg <- $r13
	#DEBUG_VALUE: __uninit_copy:__result <- $r12
	movzbl	(%r13), %ecx
	movb	%cl, (%rax)
	jmp	.LBB2_14
.Ltmp132:
.LBB2_16:                               # %L.B0153.loopexit
	#DEBUG_VALUE: __uninit_copy:__result <- $r12
	#DEBUG_VALUE: __uninit_copy:__first <- $rdi
	.loc	7 84 1                  # /usr/include/c++/9/bits/stl_uninitialized.h:84:1
	addq	%r14, %r12
.Ltmp133:
.LBB2_17:                               # %L.B0153
	#DEBUG_VALUE: __uninit_copy:__first <- $rdi
	#DEBUG_VALUE: __cur <- $r12
	movq	%r12, %rax
	addq	$24, %rsp
	popq	%rbx
	popq	%r12
.Ltmp134:
	popq	%r13
	popq	%r14
	popq	%r15
	popq	%rbp
	.cfi_def_cfa %rsp, 8
	retq
.Ltmp135:
.LBB2_5:                                # %L.B5134.i.i
	.cfi_def_cfa %rbp, 16
	#DEBUG_VALUE: _M_construct:__end <- $rcx
	#DEBUG_VALUE: __end <- $rcx
	#DEBUG_VALUE: ....inline.__FILL_CHARARRAY <- [DW_OP_LLVM_convert 32 7, DW_OP_LLVM_convert 8 7, DW_OP_stack_value] 0
	#DEBUG_VALUE: _M_construct:__beg <- $r13
	#DEBUG_VALUE: __beg <- $r13
	#DEBUG_VALUE: __args <- $rdi
	#DEBUG_VALUE: _Construct:__args <- $rdi
	#DEBUG_VALUE: __uninit_copy:__result <- $r12
	#DEBUG_VALUE: __uninit_copy:__first <- $rdi
.Ltmp102:
	#DEBUG_VALUE: __cur <- undef
	.loc	8 212 1                 # /usr/include/c++/9/bits/basic_string.tcc:212:1
	movl	$.S62180, %edi
.Ltmp136:
	callq	_ZSt19__throw_logic_errorPKc
.Ltmp137:
.Ltmp103:
# %bb.6:                                # %.noexc
	#DEBUG_VALUE: ....inline.__FILL_CHARARRAY <- [DW_OP_LLVM_convert 32 7, DW_OP_LLVM_convert 8 7, DW_OP_stack_value] 0
	#DEBUG_VALUE: _M_construct:__beg <- $r13
	#DEBUG_VALUE: __beg <- $r13
	#DEBUG_VALUE: __uninit_copy:__result <- $r12
.LBB2_19:                               # %L_T19605248_57135.loopexit.split-lp
	#DEBUG_VALUE: ....inline.__FILL_CHARARRAY <- [DW_OP_LLVM_convert 32 7, DW_OP_LLVM_convert 8 7, DW_OP_stack_value] 0
	#DEBUG_VALUE: _M_construct:__beg <- $r13
	#DEBUG_VALUE: __beg <- $r13
	#DEBUG_VALUE: __uninit_copy:__result <- $r12
.Ltmp104:
	.loc	8 0 1 is_stmt 0         # /usr/include/c++/9/bits/basic_string.tcc:0:1
	jmp	.LBB2_20
.Ltmp138:
.LBB2_18:                               # %L_T19605248_57135.loopexit
	#DEBUG_VALUE: __dnew <- [DW_OP_constu 48, DW_OP_minus, DW_OP_deref] $rbp
	#DEBUG_VALUE: ....inline.__FILL_CHARARRAY <- [DW_OP_LLVM_convert 32 7, DW_OP_LLVM_convert 8 7, DW_OP_stack_value] 0
	#DEBUG_VALUE: _M_construct:__beg <- $r13
	#DEBUG_VALUE: __beg <- $r13
	#DEBUG_VALUE: __uninit_copy:__result <- $r12
.Ltmp107:
.LBB2_20:                               # %L_T19605248_57135
	#DEBUG_VALUE: __uninit_copy:__result <- $r12
	.loc	7 87 1 is_stmt 1        # /usr/include/c++/9/bits/stl_uninitialized.h:87:1
	movq	%rax, %rdi
	callq	__cxa_begin_catch
.Ltmp139:
	#DEBUG_VALUE: __last <- undef
	#DEBUG_VALUE: __destroy:__last <- undef
	#DEBUG_VALUE: __first <- $r12
	#DEBUG_VALUE: __destroy:__first <- $r12
	.loc	6 107 1                 # /usr/include/c++/9/bits/stl_construct.h:107:1
	testq	%r14, %r14
	je	.LBB2_25
.Ltmp140:
# %bb.21:                               # %L.B4962.i
	#DEBUG_VALUE: __destroy:__first <- $r12
	#DEBUG_VALUE: __first <- $r12
	#DEBUG_VALUE: __uninit_copy:__result <- $r12
	.loc	6 108 1                 # /usr/include/c++/9/bits/stl_construct.h:108:1
	subq	%r12, %rbx
	leaq	31(%rbx), %rax
	sarq	$4, %rax
	shrq	$59, %rax
	addq	%rax, %rbx
	addq	$31, %rbx
	andq	$-32, %rbx
	addq	%r12, %rbx
.Ltmp141:
.LBB2_22:                               # %L.B0147.i
                                        # =>This Inner Loop Header: Depth=1
	#DEBUG_VALUE: __destroy:__first <- $r12
	#DEBUG_VALUE: __first <- $r12
	.loc	6 98 1                  # /usr/include/c++/9/bits/stl_construct.h:98:1
	movq	(%r12), %rdi
	addq	$16, %r12
.Ltmp142:
	cmpq	%r12, %rdi
	je	.LBB2_24
# %bb.23:                               # %L.B4963.i
                                        #   in Loop: Header=BB2_22 Depth=1
	callq	_ZdlPv
.LBB2_24:                               # %L..inline.123902.i
                                        #   in Loop: Header=BB2_22 Depth=1
	.loc	6 108 1                 # /usr/include/c++/9/bits/stl_construct.h:108:1
	addq	$16, %r12
	cmpq	%r12, %rbx
	ja	.LBB2_22
.Ltmp143:
.LBB2_25:                               # %_ZNSt12_Destroy_auxILb0EE9__destroyIPNSt7__cxx1112basic_stringIcSt11char_traitsIcESaIcEEEEEvT_S9_.exit
.Ltmp108:
	.loc	7 89 1                  # /usr/include/c++/9/bits/stl_uninitialized.h:89:1
	callq	__cxa_rethrow
.Ltmp109:
.Ltmp144:
# %bb.26:                               # %L.B4983
.LBB2_27:                               # %L_T19605608_57135
.Ltmp110:
	.loc	7 0 1 is_stmt 0         # /usr/include/c++/9/bits/stl_uninitialized.h:0:1
	movq	%rax, %rbx
	.loc	7 90 1 is_stmt 1        # /usr/include/c++/9/bits/stl_uninitialized.h:90:1
	callq	__cxa_end_catch
	movq	%rbx, %rdi
	callq	_Unwind_Resume
.Ltmp145:
.Lfunc_end2:
	.size	_ZNSt20__uninitialized_copyILb0EE13__uninit_copyIN9__gnu_cxx17__normal_iteratorIPKNSt7__cxx1112basic_stringIcSt11char_traitsIcESaIcEEESt6vectorIS9_SaIS9_EEEEPS9_EET0_T_SI_SH_, .Lfunc_end2-_ZNSt20__uninitialized_copyILb0EE13__uninit_copyIN9__gnu_cxx17__normal_iteratorIPKNSt7__cxx1112basic_stringIcSt11char_traitsIcESaIcEEESt6vectorIS9_SaIS9_EEEEPS9_EET0_T_SI_SH_
	.cfi_endproc
	.section	.gcc_except_table,"a",@progbits
	.p2align	2
GCC_except_table2:
.Lexception1:
	.byte	255                     # @LPStart Encoding = omit
	.byte	3                       # @TType Encoding = udata4
	.uleb128 .Lttbase1-.Lttbaseref1
.Lttbaseref1:
	.byte	1                       # Call site Encoding = uleb128
	.uleb128 .Lcst_end1-.Lcst_begin1
.Lcst_begin1:
	.uleb128 .Lfunc_begin2-.Lfunc_begin2 # >> Call Site 1 <<
	.uleb128 .Ltmp105-.Lfunc_begin2 #   Call between .Lfunc_begin2 and .Ltmp105
	.byte	0                       #     has no landing pad
	.byte	0                       #   On action: cleanup
	.uleb128 .Ltmp105-.Lfunc_begin2 # >> Call Site 2 <<
	.uleb128 .Ltmp106-.Ltmp105      #   Call between .Ltmp105 and .Ltmp106
	.uleb128 .Ltmp107-.Lfunc_begin2 #     jumps to .Ltmp107
	.byte	1                       #   On action: 1
	.uleb128 .Ltmp102-.Lfunc_begin2 # >> Call Site 3 <<
	.uleb128 .Ltmp103-.Ltmp102      #   Call between .Ltmp102 and .Ltmp103
	.uleb128 .Ltmp104-.Lfunc_begin2 #     jumps to .Ltmp104
	.byte	1                       #   On action: 1
	.uleb128 .Ltmp103-.Lfunc_begin2 # >> Call Site 4 <<
	.uleb128 .Ltmp108-.Ltmp103      #   Call between .Ltmp103 and .Ltmp108
	.byte	0                       #     has no landing pad
	.byte	0                       #   On action: cleanup
	.uleb128 .Ltmp108-.Lfunc_begin2 # >> Call Site 5 <<
	.uleb128 .Ltmp109-.Ltmp108      #   Call between .Ltmp108 and .Ltmp109
	.uleb128 .Ltmp110-.Lfunc_begin2 #     jumps to .Ltmp110
	.byte	0                       #   On action: cleanup
	.uleb128 .Ltmp109-.Lfunc_begin2 # >> Call Site 6 <<
	.uleb128 .Lfunc_end2-.Ltmp109   #   Call between .Ltmp109 and .Lfunc_end2
	.byte	0                       #     has no landing pad
	.byte	0                       #   On action: cleanup
.Lcst_end1:
	.byte	1                       # >> Action Record 1 <<
                                        #   Catch TypeInfo 1
	.byte	0                       #   No further actions
	.p2align	2
                                        # >> Catch TypeInfos <<
	.long	0                       # TypeInfo 1
.Lttbase1:
	.p2align	2
                                        # -- End function
	.text
	.weak	_ZNSt7__cxx1112basic_stringIcSt11char_traitsIcESaIcEEC1Ev # -- Begin function _ZNSt7__cxx1112basic_stringIcSt11char_traitsIcESaIcEEC1Ev
	.p2align	4, 0x90
	.type	_ZNSt7__cxx1112basic_stringIcSt11char_traitsIcESaIcEEC1Ev,@function
_ZNSt7__cxx1112basic_stringIcSt11char_traitsIcESaIcEEC1Ev: # @_ZNSt7__cxx1112basic_stringIcSt11char_traitsIcESaIcEEC1Ev
.Lfunc_begin3:
	.file	9 "/usr/include/c++/9/bits/basic_string.h"
	.loc	9 434 0                 # /usr/include/c++/9/bits/basic_string.h:434:0
	.cfi_startproc
# %bb.0:                                # %L.entry
	#DEBUG_VALUE: basic_string: <- $rdi
	#DEBUG_VALUE: basic_string: <- $rdi
	pushq	%rbp
	.cfi_def_cfa_offset 16
	.cfi_offset %rbp, -16
	movq	%rsp, %rbp
	.cfi_def_cfa_register %rbp
.Ltmp146:
	#DEBUG_VALUE:  <- $rdi
	#DEBUG_VALUE:  <- $rdi
	.loc	9 160 1 prologue_end    # /usr/include/c++/9/bits/basic_string.h:160:1
	leaq	16(%rdi), %rax
	movq	%rax, (%rdi)
	.loc	9 216 1                 # /usr/include/c++/9/bits/basic_string.h:216:1
	movq	$0, 8(%rdi)
	.loc	9 217 1                 # /usr/include/c++/9/bits/basic_string.h:217:1
	movb	$0, 16(%rdi)
	.loc	9 434 1                 # /usr/include/c++/9/bits/basic_string.h:434:1
	popq	%rbp
	.cfi_def_cfa %rsp, 8
	retq
.Ltmp147:
.Lfunc_end3:
	.size	_ZNSt7__cxx1112basic_stringIcSt11char_traitsIcESaIcEEC1Ev, .Lfunc_end3-_ZNSt7__cxx1112basic_stringIcSt11char_traitsIcESaIcEEC1Ev
	.cfi_endproc
                                        # -- End function
	.weak	_ZNSt7__cxx1112basic_stringIcSt11char_traitsIcESaIcEED1Ev # -- Begin function _ZNSt7__cxx1112basic_stringIcSt11char_traitsIcESaIcEED1Ev
	.p2align	4, 0x90
	.type	_ZNSt7__cxx1112basic_stringIcSt11char_traitsIcESaIcEED1Ev,@function
_ZNSt7__cxx1112basic_stringIcSt11char_traitsIcESaIcEED1Ev: # @_ZNSt7__cxx1112basic_stringIcSt11char_traitsIcESaIcEED1Ev
.Lfunc_begin4:
	.loc	9 658 0                 # /usr/include/c++/9/bits/basic_string.h:658:0
	.cfi_startproc
# %bb.0:                                # %L.entry
	#DEBUG_VALUE: ~basic_string: <- $rdi
	pushq	%rbp
	.cfi_def_cfa_offset 16
	.cfi_offset %rbp, -16
	movq	%rsp, %rbp
	.cfi_def_cfa_register %rbp
.Ltmp148:
	#DEBUG_VALUE:  <- $rdi
	movq	%rdi, %rax
.Ltmp149:
	#DEBUG_VALUE:  <- $rax
	#DEBUG_VALUE: ~basic_string: <- $rax
	.loc	9 231 1 prologue_end    # /usr/include/c++/9/bits/basic_string.h:231:1
	movq	(%rdi), %rdi
	addq	$16, %rax
.Ltmp150:
	cmpq	%rax, %rdi
	je	.LBB4_1
# %bb.2:                                # %L.B5100
	.loc	9 232 1                 # /usr/include/c++/9/bits/basic_string.h:232:1
	popq	%rbp
	.cfi_def_cfa %rsp, 8
	jmp	_ZdlPv                  # TAILCALL
.LBB4_1:                                # %L..inline.125540
	.cfi_def_cfa %rbp, 16
	.loc	9 658 1                 # /usr/include/c++/9/bits/basic_string.h:658:1
	popq	%rbp
	.cfi_def_cfa %rsp, 8
	retq
.Ltmp151:
.Lfunc_end4:
	.size	_ZNSt7__cxx1112basic_stringIcSt11char_traitsIcESaIcEED1Ev, .Lfunc_end4-_ZNSt7__cxx1112basic_stringIcSt11char_traitsIcESaIcEED1Ev
	.cfi_endproc
                                        # -- End function
	.weak	_ZN3MPI8DatatypeD1Ev    # -- Begin function _ZN3MPI8DatatypeD1Ev
	.p2align	4, 0x90
	.type	_ZN3MPI8DatatypeD1Ev,@function
_ZN3MPI8DatatypeD1Ev:                   # @_ZN3MPI8DatatypeD1Ev
.Lfunc_begin5:
	.file	10 "/usr/lib/x86_64-linux-gnu/openmpi/include/openmpi/ompi/mpi/cxx/datatype.h"
	.loc	10 70 0                 # /usr/lib/x86_64-linux-gnu/openmpi/include/openmpi/ompi/mpi/cxx/datatype.h:70:0
	.cfi_startproc
# %bb.0:                                # %L.entry
	#DEBUG_VALUE: ~Datatype: <- $rdi
	#DEBUG_VALUE: ~Datatype: <- $rdi
	pushq	%rbp
	.cfi_def_cfa_offset 16
	.cfi_offset %rbp, -16
	movq	%rsp, %rbp
	.cfi_def_cfa_register %rbp
.Ltmp152:
	#DEBUG_VALUE:  <- $rdi
	#DEBUG_VALUE:  <- $rdi
	.loc	10 70 1 prologue_end    # /usr/lib/x86_64-linux-gnu/openmpi/include/openmpi/ompi/mpi/cxx/datatype.h:70:1
	movq	$_ZTVN3MPI8DatatypeE+16, (%rdi)
	popq	%rbp
	.cfi_def_cfa %rsp, 8
	retq
.Ltmp153:
.Lfunc_end5:
	.size	_ZN3MPI8DatatypeD1Ev, .Lfunc_end5-_ZN3MPI8DatatypeD1Ev
	.cfi_endproc
                                        # -- End function
	.weak	_ZN3MPI8DatatypeD0Ev    # -- Begin function _ZN3MPI8DatatypeD0Ev
	.p2align	4, 0x90
	.type	_ZN3MPI8DatatypeD0Ev,@function
_ZN3MPI8DatatypeD0Ev:                   # @_ZN3MPI8DatatypeD0Ev
.Lfunc_begin6:
	.loc	1 0 0                   # sysboundary/outflow.cpp:0:0
	.cfi_startproc
# %bb.0:                                # %L.entry
	pushq	%rbp
	.cfi_def_cfa_offset 16
	.cfi_offset %rbp, -16
	movq	%rsp, %rbp
	.cfi_def_cfa_register %rbp
.Ltmp154:
	.loc	1 70 1 prologue_end     # sysboundary/outflow.cpp:70:1
	movl	$16, %esi
	popq	%rbp
	.cfi_def_cfa %rsp, 8
	jmp	_ZdlPvm                 # TAILCALL
.Ltmp155:
.Lfunc_end6:
	.size	_ZN3MPI8DatatypeD0Ev, .Lfunc_end6-_ZN3MPI8DatatypeD0Ev
	.cfi_endproc
                                        # -- End function
	.weak	_ZNK3MPI8Datatype17Create_contiguousEi # -- Begin function _ZNK3MPI8Datatype17Create_contiguousEi
	.p2align	4, 0x90
	.type	_ZNK3MPI8Datatype17Create_contiguousEi,@function
_ZNK3MPI8Datatype17Create_contiguousEi: # @_ZNK3MPI8Datatype17Create_contiguousEi
.Lfunc_begin7:
	.file	11 "/usr/lib/x86_64-linux-gnu/openmpi/include/openmpi/ompi/mpi/cxx/datatype_inln.h"
	.loc	11 30 0                 # /usr/lib/x86_64-linux-gnu/openmpi/include/openmpi/ompi/mpi/cxx/datatype_inln.h:30:0
	.cfi_startproc
# %bb.0:                                # %L.entry
	#DEBUG_VALUE: Create_contiguous: <- $rsi
	#DEBUG_VALUE: Create_contiguous:count <- $edx
	pushq	%rbp
	.cfi_def_cfa_offset 16
	.cfi_offset %rbp, -16
	movq	%rsp, %rbp
	.cfi_def_cfa_register %rbp
	pushq	%rbx
	pushq	%rax
	.cfi_offset %rbx, -24
	movl	%edx, %eax
	movq	%rdi, %rbx
.Ltmp156:
	#DEBUG_VALUE:  <- $rsi
	#DEBUG_VALUE: count <- $eax
	#DEBUG_VALUE: Create_contiguous:count <- $eax
	#DEBUG_VALUE: Create_contiguous: <- $rsi
	.loc	11 32 1 prologue_end    # /usr/lib/x86_64-linux-gnu/openmpi/include/openmpi/ompi/mpi/cxx/datatype_inln.h:32:1
	movq	8(%rsi), %rsi
.Ltmp157:
	#DEBUG_VALUE: newtype <- [DW_OP_constu 16, DW_OP_minus, DW_OP_deref] $rbp
	.loc	11 0 1 is_stmt 0        # /usr/lib/x86_64-linux-gnu/openmpi/include/openmpi/ompi/mpi/cxx/datatype_inln.h:0:1
	leaq	-16(%rbp), %rdx
	.loc	11 32 1                 # /usr/lib/x86_64-linux-gnu/openmpi/include/openmpi/ompi/mpi/cxx/datatype_inln.h:32:1
	movl	%eax, %edi
.Ltmp158:
	#DEBUG_VALUE: Create_contiguous:count <- $edi
	callq	MPI_Type_contiguous
.Ltmp159:
	.loc	11 33 1 is_stmt 1       # /usr/lib/x86_64-linux-gnu/openmpi/include/openmpi/ompi/mpi/cxx/datatype_inln.h:33:1
	movq	-16(%rbp), %rax
.Ltmp160:
	#DEBUG_VALUE: newtype <- undef
	movq	$_ZTVN3MPI8DatatypeE+16, (%rbx)
	.loc	11 72 1                 # /usr/lib/x86_64-linux-gnu/openmpi/include/openmpi/ompi/mpi/cxx/datatype_inln.h:72:1
	movq	%rax, 8(%rbx)
	.loc	11 34 1                 # /usr/lib/x86_64-linux-gnu/openmpi/include/openmpi/ompi/mpi/cxx/datatype_inln.h:34:1
	movq	%rbx, %rax
	addq	$8, %rsp
	popq	%rbx
	popq	%rbp
	.cfi_def_cfa %rsp, 8
	retq
.Ltmp161:
.Lfunc_end7:
	.size	_ZNK3MPI8Datatype17Create_contiguousEi, .Lfunc_end7-_ZNK3MPI8Datatype17Create_contiguousEi
	.cfi_endproc
                                        # -- End function
	.weak	_ZNK3MPI8Datatype13Create_vectorEiii # -- Begin function _ZNK3MPI8Datatype13Create_vectorEiii
	.p2align	4, 0x90
	.type	_ZNK3MPI8Datatype13Create_vectorEiii,@function
_ZNK3MPI8Datatype13Create_vectorEiii:   # @_ZNK3MPI8Datatype13Create_vectorEiii
.Lfunc_begin8:
	.loc	11 39 0                 # /usr/lib/x86_64-linux-gnu/openmpi/include/openmpi/ompi/mpi/cxx/datatype_inln.h:39:0
	.cfi_startproc
# %bb.0:                                # %L.entry
	#DEBUG_VALUE: Create_vector: <- $rsi
	#DEBUG_VALUE: Create_vector:count <- $edx
	#DEBUG_VALUE: Create_vector:blocklength <- $ecx
	#DEBUG_VALUE: Create_vector:stride <- $r8d
	pushq	%rbp
	.cfi_def_cfa_offset 16
	.cfi_offset %rbp, -16
	movq	%rsp, %rbp
	.cfi_def_cfa_register %rbp
	pushq	%rbx
	pushq	%rax
	.cfi_offset %rbx, -24
	movl	%r8d, %r9d
	movq	%rdi, %rbx
.Ltmp162:
	#DEBUG_VALUE:  <- $rsi
	#DEBUG_VALUE: stride <- $r9d
	#DEBUG_VALUE: blocklength <- $ecx
	#DEBUG_VALUE: count <- $edx
	#DEBUG_VALUE: Create_vector:stride <- $r9d
	#DEBUG_VALUE: Create_vector:blocklength <- $ecx
	#DEBUG_VALUE: Create_vector:count <- $edx
	#DEBUG_VALUE: Create_vector: <- $rsi
	.loc	11 41 1 prologue_end    # /usr/lib/x86_64-linux-gnu/openmpi/include/openmpi/ompi/mpi/cxx/datatype_inln.h:41:1
	movq	8(%rsi), %rax
.Ltmp163:
	#DEBUG_VALUE: newtype <- [DW_OP_constu 16, DW_OP_minus, DW_OP_deref] $rbp
	.loc	11 0 1 is_stmt 0        # /usr/lib/x86_64-linux-gnu/openmpi/include/openmpi/ompi/mpi/cxx/datatype_inln.h:0:1
	leaq	-16(%rbp), %r8
	.loc	11 41 1                 # /usr/lib/x86_64-linux-gnu/openmpi/include/openmpi/ompi/mpi/cxx/datatype_inln.h:41:1
	movl	%edx, %edi
.Ltmp164:
	#DEBUG_VALUE: Create_vector:count <- $edi
	movl	%ecx, %esi
.Ltmp165:
	#DEBUG_VALUE: Create_vector:blocklength <- $esi
	movl	%r9d, %edx
.Ltmp166:
	#DEBUG_VALUE: Create_vector:stride <- $edx
	movq	%rax, %rcx
.Ltmp167:
	callq	MPI_Type_vector
.Ltmp168:
	.loc	11 42 1 is_stmt 1       # /usr/lib/x86_64-linux-gnu/openmpi/include/openmpi/ompi/mpi/cxx/datatype_inln.h:42:1
	movq	-16(%rbp), %rax
.Ltmp169:
	#DEBUG_VALUE: newtype <- undef
	movq	$_ZTVN3MPI8DatatypeE+16, (%rbx)
	.loc	11 72 1                 # /usr/lib/x86_64-linux-gnu/openmpi/include/openmpi/ompi/mpi/cxx/datatype_inln.h:72:1
	movq	%rax, 8(%rbx)
	.loc	11 43 1                 # /usr/lib/x86_64-linux-gnu/openmpi/include/openmpi/ompi/mpi/cxx/datatype_inln.h:43:1
	movq	%rbx, %rax
	addq	$8, %rsp
	popq	%rbx
	popq	%rbp
	.cfi_def_cfa %rsp, 8
	retq
.Ltmp170:
.Lfunc_end8:
	.size	_ZNK3MPI8Datatype13Create_vectorEiii, .Lfunc_end8-_ZNK3MPI8Datatype13Create_vectorEiii
	.cfi_endproc
                                        # -- End function
	.weak	_ZNK3MPI8Datatype14Create_indexedEiPKiS2_ # -- Begin function _ZNK3MPI8Datatype14Create_indexedEiPKiS2_
	.p2align	4, 0x90
	.type	_ZNK3MPI8Datatype14Create_indexedEiPKiS2_,@function
_ZNK3MPI8Datatype14Create_indexedEiPKiS2_: # @_ZNK3MPI8Datatype14Create_indexedEiPKiS2_
.Lfunc_begin9:
	.loc	11 49 0                 # /usr/lib/x86_64-linux-gnu/openmpi/include/openmpi/ompi/mpi/cxx/datatype_inln.h:49:0
	.cfi_startproc
# %bb.0:                                # %L.entry
	#DEBUG_VALUE: Create_indexed: <- $rsi
	#DEBUG_VALUE: Create_indexed:count <- $edx
	#DEBUG_VALUE: Create_indexed:array_of_blocklengths <- $rcx
	#DEBUG_VALUE: Create_indexed:array_of_displacements <- $r8
	pushq	%rbp
	.cfi_def_cfa_offset 16
	.cfi_offset %rbp, -16
	movq	%rsp, %rbp
	.cfi_def_cfa_register %rbp
	pushq	%rbx
	pushq	%rax
	.cfi_offset %rbx, -24
	movq	%r8, %r9
	movq	%rdi, %rbx
.Ltmp171:
	#DEBUG_VALUE:  <- $rsi
	#DEBUG_VALUE: array_of_displacements <- $r9
	#DEBUG_VALUE: array_of_blocklengths <- $rcx
	#DEBUG_VALUE: count <- $edx
	#DEBUG_VALUE: Create_indexed:array_of_displacements <- $r9
	#DEBUG_VALUE: Create_indexed:array_of_blocklengths <- $rcx
	#DEBUG_VALUE: Create_indexed:count <- $edx
	#DEBUG_VALUE: Create_indexed: <- $rsi
	.loc	11 51 1 prologue_end    # /usr/lib/x86_64-linux-gnu/openmpi/include/openmpi/ompi/mpi/cxx/datatype_inln.h:51:1
	movq	8(%rsi), %rax
.Ltmp172:
	#DEBUG_VALUE: newtype <- [DW_OP_constu 16, DW_OP_minus, DW_OP_deref] $rbp
	.loc	11 0 1 is_stmt 0        # /usr/lib/x86_64-linux-gnu/openmpi/include/openmpi/ompi/mpi/cxx/datatype_inln.h:0:1
	leaq	-16(%rbp), %r8
	.loc	11 51 1                 # /usr/lib/x86_64-linux-gnu/openmpi/include/openmpi/ompi/mpi/cxx/datatype_inln.h:51:1
	movl	%edx, %edi
.Ltmp173:
	#DEBUG_VALUE: Create_indexed:count <- $edi
	movq	%rcx, %rsi
.Ltmp174:
	#DEBUG_VALUE: Create_indexed:array_of_blocklengths <- $rsi
	movq	%r9, %rdx
.Ltmp175:
	#DEBUG_VALUE: Create_indexed:array_of_displacements <- $rdx
	movq	%rax, %rcx
.Ltmp176:
	callq	MPI_Type_indexed
.Ltmp177:
	.loc	11 53 1 is_stmt 1       # /usr/lib/x86_64-linux-gnu/openmpi/include/openmpi/ompi/mpi/cxx/datatype_inln.h:53:1
	movq	-16(%rbp), %rax
.Ltmp178:
	#DEBUG_VALUE: newtype <- undef
	movq	$_ZTVN3MPI8DatatypeE+16, (%rbx)
	.loc	11 72 1                 # /usr/lib/x86_64-linux-gnu/openmpi/include/openmpi/ompi/mpi/cxx/datatype_inln.h:72:1
	movq	%rax, 8(%rbx)
	.loc	11 54 1                 # /usr/lib/x86_64-linux-gnu/openmpi/include/openmpi/ompi/mpi/cxx/datatype_inln.h:54:1
	movq	%rbx, %rax
	addq	$8, %rsp
	popq	%rbx
	popq	%rbp
	.cfi_def_cfa %rsp, 8
	retq
.Ltmp179:
.Lfunc_end9:
	.size	_ZNK3MPI8Datatype14Create_indexedEiPKiS2_, .Lfunc_end9-_ZNK3MPI8Datatype14Create_indexedEiPKiS2_
	.cfi_endproc
                                        # -- End function
	.weak	_ZNK3MPI8Datatype15Create_hindexedEiPKiPKl # -- Begin function _ZNK3MPI8Datatype15Create_hindexedEiPKiPKl
	.p2align	4, 0x90
	.type	_ZNK3MPI8Datatype15Create_hindexedEiPKiPKl,@function
_ZNK3MPI8Datatype15Create_hindexedEiPKiPKl: # @_ZNK3MPI8Datatype15Create_hindexedEiPKiPKl
.Lfunc_begin10:
	.loc	11 77 0                 # /usr/lib/x86_64-linux-gnu/openmpi/include/openmpi/ompi/mpi/cxx/datatype_inln.h:77:0
	.cfi_startproc
# %bb.0:                                # %L.entry
	#DEBUG_VALUE: Create_hindexed: <- $rsi
	#DEBUG_VALUE: Create_hindexed:count <- $edx
	#DEBUG_VALUE: Create_hindexed:array_of_blocklengths <- $rcx
	#DEBUG_VALUE: Create_hindexed:array_of_displacements <- $r8
	pushq	%rbp
	.cfi_def_cfa_offset 16
	.cfi_offset %rbp, -16
	movq	%rsp, %rbp
	.cfi_def_cfa_register %rbp
	pushq	%rbx
	pushq	%rax
	.cfi_offset %rbx, -24
	movq	%r8, %r9
	movq	%rdi, %rbx
.Ltmp180:
	#DEBUG_VALUE:  <- $rsi
	#DEBUG_VALUE: array_of_displacements <- $r9
	#DEBUG_VALUE: array_of_blocklengths <- $rcx
	#DEBUG_VALUE: count <- $edx
	#DEBUG_VALUE: Create_hindexed:array_of_displacements <- $r9
	#DEBUG_VALUE: Create_hindexed:array_of_blocklengths <- $rcx
	#DEBUG_VALUE: Create_hindexed:count <- $edx
	#DEBUG_VALUE: Create_hindexed: <- $rsi
	.loc	11 79 1 prologue_end    # /usr/lib/x86_64-linux-gnu/openmpi/include/openmpi/ompi/mpi/cxx/datatype_inln.h:79:1
	movq	8(%rsi), %rax
.Ltmp181:
	#DEBUG_VALUE: newtype <- [DW_OP_constu 16, DW_OP_minus, DW_OP_deref] $rbp
	.loc	11 0 1 is_stmt 0        # /usr/lib/x86_64-linux-gnu/openmpi/include/openmpi/ompi/mpi/cxx/datatype_inln.h:0:1
	leaq	-16(%rbp), %r8
	.loc	11 79 1                 # /usr/lib/x86_64-linux-gnu/openmpi/include/openmpi/ompi/mpi/cxx/datatype_inln.h:79:1
	movl	%edx, %edi
.Ltmp182:
	#DEBUG_VALUE: Create_hindexed:count <- $edi
	movq	%rcx, %rsi
.Ltmp183:
	#DEBUG_VALUE: Create_hindexed:array_of_blocklengths <- $rsi
	movq	%r9, %rdx
.Ltmp184:
	#DEBUG_VALUE: Create_hindexed:array_of_displacements <- $rdx
	movq	%rax, %rcx
.Ltmp185:
	callq	MPI_Type_create_hindexed
.Ltmp186:
	.loc	11 82 1 is_stmt 1       # /usr/lib/x86_64-linux-gnu/openmpi/include/openmpi/ompi/mpi/cxx/datatype_inln.h:82:1
	movq	-16(%rbp), %rax
.Ltmp187:
	#DEBUG_VALUE: newtype <- undef
	movq	$_ZTVN3MPI8DatatypeE+16, (%rbx)
	.loc	11 72 1                 # /usr/lib/x86_64-linux-gnu/openmpi/include/openmpi/ompi/mpi/cxx/datatype_inln.h:72:1
	movq	%rax, 8(%rbx)
	.loc	11 83 1                 # /usr/lib/x86_64-linux-gnu/openmpi/include/openmpi/ompi/mpi/cxx/datatype_inln.h:83:1
	movq	%rbx, %rax
	addq	$8, %rsp
	popq	%rbx
	popq	%rbp
	.cfi_def_cfa %rsp, 8
	retq
.Ltmp188:
.Lfunc_end10:
	.size	_ZNK3MPI8Datatype15Create_hindexedEiPKiPKl, .Lfunc_end10-_ZNK3MPI8Datatype15Create_hindexedEiPKiPKl
	.cfi_endproc
                                        # -- End function
	.weak	_ZNK3MPI8Datatype14Create_hvectorEiil # -- Begin function _ZNK3MPI8Datatype14Create_hvectorEiil
	.p2align	4, 0x90
	.type	_ZNK3MPI8Datatype14Create_hvectorEiil,@function
_ZNK3MPI8Datatype14Create_hvectorEiil:  # @_ZNK3MPI8Datatype14Create_hvectorEiil
.Lfunc_begin11:
	.loc	11 88 0                 # /usr/lib/x86_64-linux-gnu/openmpi/include/openmpi/ompi/mpi/cxx/datatype_inln.h:88:0
	.cfi_startproc
# %bb.0:                                # %L.entry
	#DEBUG_VALUE: Create_hvector: <- $rsi
	#DEBUG_VALUE: Create_hvector:count <- $edx
	#DEBUG_VALUE: Create_hvector:blocklength <- $ecx
	#DEBUG_VALUE: Create_hvector:stride <- $r8
	pushq	%rbp
	.cfi_def_cfa_offset 16
	.cfi_offset %rbp, -16
	movq	%rsp, %rbp
	.cfi_def_cfa_register %rbp
	pushq	%rbx
	pushq	%rax
	.cfi_offset %rbx, -24
	movq	%r8, %r9
	movq	%rdi, %rbx
.Ltmp189:
	#DEBUG_VALUE:  <- $rsi
	#DEBUG_VALUE: stride <- $r9
	#DEBUG_VALUE: blocklength <- $ecx
	#DEBUG_VALUE: count <- $edx
	#DEBUG_VALUE: Create_hvector:stride <- $r9
	#DEBUG_VALUE: Create_hvector:blocklength <- $ecx
	#DEBUG_VALUE: Create_hvector:count <- $edx
	#DEBUG_VALUE: Create_hvector: <- $rsi
	.loc	11 90 1 prologue_end    # /usr/lib/x86_64-linux-gnu/openmpi/include/openmpi/ompi/mpi/cxx/datatype_inln.h:90:1
	movq	8(%rsi), %rax
.Ltmp190:
	#DEBUG_VALUE: newtype <- [DW_OP_constu 16, DW_OP_minus, DW_OP_deref] $rbp
	.loc	11 0 1 is_stmt 0        # /usr/lib/x86_64-linux-gnu/openmpi/include/openmpi/ompi/mpi/cxx/datatype_inln.h:0:1
	leaq	-16(%rbp), %r8
	.loc	11 90 1                 # /usr/lib/x86_64-linux-gnu/openmpi/include/openmpi/ompi/mpi/cxx/datatype_inln.h:90:1
	movl	%edx, %edi
.Ltmp191:
	#DEBUG_VALUE: Create_hvector:count <- $edi
	movl	%ecx, %esi
.Ltmp192:
	#DEBUG_VALUE: Create_hvector:blocklength <- $esi
	movq	%r9, %rdx
.Ltmp193:
	#DEBUG_VALUE: Create_hvector:stride <- $rdx
	movq	%rax, %rcx
.Ltmp194:
	callq	MPI_Type_create_hvector
.Ltmp195:
	.loc	11 93 1 is_stmt 1       # /usr/lib/x86_64-linux-gnu/openmpi/include/openmpi/ompi/mpi/cxx/datatype_inln.h:93:1
	movq	-16(%rbp), %rax
.Ltmp196:
	#DEBUG_VALUE: newtype <- undef
	movq	$_ZTVN3MPI8DatatypeE+16, (%rbx)
	.loc	11 72 1                 # /usr/lib/x86_64-linux-gnu/openmpi/include/openmpi/ompi/mpi/cxx/datatype_inln.h:72:1
	movq	%rax, 8(%rbx)
	.loc	11 94 1                 # /usr/lib/x86_64-linux-gnu/openmpi/include/openmpi/ompi/mpi/cxx/datatype_inln.h:94:1
	movq	%rbx, %rax
	addq	$8, %rsp
	popq	%rbx
	popq	%rbp
	.cfi_def_cfa %rsp, 8
	retq
.Ltmp197:
.Lfunc_end11:
	.size	_ZNK3MPI8Datatype14Create_hvectorEiil, .Lfunc_end11-_ZNK3MPI8Datatype14Create_hvectorEiil
	.cfi_endproc
                                        # -- End function
	.weak	_ZNK3MPI8Datatype20Create_indexed_blockEiiPKi # -- Begin function _ZNK3MPI8Datatype20Create_indexed_blockEiiPKi
	.p2align	4, 0x90
	.type	_ZNK3MPI8Datatype20Create_indexed_blockEiiPKi,@function
_ZNK3MPI8Datatype20Create_indexed_blockEiiPKi: # @_ZNK3MPI8Datatype20Create_indexed_blockEiiPKi
.Lfunc_begin12:
	.loc	11 99 0                 # /usr/lib/x86_64-linux-gnu/openmpi/include/openmpi/ompi/mpi/cxx/datatype_inln.h:99:0
	.cfi_startproc
# %bb.0:                                # %L.entry
	#DEBUG_VALUE: Create_indexed_block: <- $rsi
	#DEBUG_VALUE: Create_indexed_block:count <- $edx
	#DEBUG_VALUE: Create_indexed_block:blocklength <- $ecx
	#DEBUG_VALUE: Create_indexed_block:array_of_displacements <- $r8
	pushq	%rbp
	.cfi_def_cfa_offset 16
	.cfi_offset %rbp, -16
	movq	%rsp, %rbp
	.cfi_def_cfa_register %rbp
	pushq	%rbx
	pushq	%rax
	.cfi_offset %rbx, -24
	movq	%r8, %r9
	movq	%rdi, %rbx
.Ltmp198:
	#DEBUG_VALUE:  <- $rsi
	#DEBUG_VALUE: array_of_displacements <- $r9
	#DEBUG_VALUE: blocklength <- $ecx
	#DEBUG_VALUE: count <- $edx
	#DEBUG_VALUE: Create_indexed_block:array_of_displacements <- $r9
	#DEBUG_VALUE: Create_indexed_block:blocklength <- $ecx
	#DEBUG_VALUE: Create_indexed_block:count <- $edx
	#DEBUG_VALUE: Create_indexed_block: <- $rsi
	.loc	11 101 1 prologue_end   # /usr/lib/x86_64-linux-gnu/openmpi/include/openmpi/ompi/mpi/cxx/datatype_inln.h:101:1
	movq	8(%rsi), %rax
.Ltmp199:
	#DEBUG_VALUE: newtype <- [DW_OP_constu 16, DW_OP_minus, DW_OP_deref] $rbp
	.loc	11 0 1 is_stmt 0        # /usr/lib/x86_64-linux-gnu/openmpi/include/openmpi/ompi/mpi/cxx/datatype_inln.h:0:1
	leaq	-16(%rbp), %r8
	.loc	11 101 1                # /usr/lib/x86_64-linux-gnu/openmpi/include/openmpi/ompi/mpi/cxx/datatype_inln.h:101:1
	movl	%edx, %edi
.Ltmp200:
	#DEBUG_VALUE: Create_indexed_block:count <- $edi
	movl	%ecx, %esi
.Ltmp201:
	#DEBUG_VALUE: Create_indexed_block:blocklength <- $esi
	movq	%r9, %rdx
.Ltmp202:
	#DEBUG_VALUE: Create_indexed_block:array_of_displacements <- $rdx
	movq	%rax, %rcx
.Ltmp203:
	callq	MPI_Type_create_indexed_block
.Ltmp204:
	.loc	11 103 1 is_stmt 1      # /usr/lib/x86_64-linux-gnu/openmpi/include/openmpi/ompi/mpi/cxx/datatype_inln.h:103:1
	movq	-16(%rbp), %rax
.Ltmp205:
	#DEBUG_VALUE: newtype <- undef
	movq	$_ZTVN3MPI8DatatypeE+16, (%rbx)
	.loc	11 72 1                 # /usr/lib/x86_64-linux-gnu/openmpi/include/openmpi/ompi/mpi/cxx/datatype_inln.h:72:1
	movq	%rax, 8(%rbx)
	.loc	11 104 1                # /usr/lib/x86_64-linux-gnu/openmpi/include/openmpi/ompi/mpi/cxx/datatype_inln.h:104:1
	movq	%rbx, %rax
	addq	$8, %rsp
	popq	%rbx
	popq	%rbp
	.cfi_def_cfa %rsp, 8
	retq
.Ltmp206:
.Lfunc_end12:
	.size	_ZNK3MPI8Datatype20Create_indexed_blockEiiPKi, .Lfunc_end12-_ZNK3MPI8Datatype20Create_indexed_blockEiiPKi
	.cfi_endproc
                                        # -- End function
	.weak	_ZNK3MPI8Datatype14Create_resizedEll # -- Begin function _ZNK3MPI8Datatype14Create_resizedEll
	.p2align	4, 0x90
	.type	_ZNK3MPI8Datatype14Create_resizedEll,@function
_ZNK3MPI8Datatype14Create_resizedEll:   # @_ZNK3MPI8Datatype14Create_resizedEll
.Lfunc_begin13:
	.loc	11 108 0                # /usr/lib/x86_64-linux-gnu/openmpi/include/openmpi/ompi/mpi/cxx/datatype_inln.h:108:0
	.cfi_startproc
# %bb.0:                                # %L.entry
	#DEBUG_VALUE: Create_resized: <- $rsi
	#DEBUG_VALUE: Create_resized:lb <- $rdx
	#DEBUG_VALUE: Create_resized:extent <- $rcx
	pushq	%rbp
	.cfi_def_cfa_offset 16
	.cfi_offset %rbp, -16
	movq	%rsp, %rbp
	.cfi_def_cfa_register %rbp
	pushq	%rbx
	pushq	%rax
	.cfi_offset %rbx, -24
	movq	%rdi, %rbx
.Ltmp207:
	#DEBUG_VALUE:  <- $rsi
	#DEBUG_VALUE: extent <- $rcx
	#DEBUG_VALUE: lb <- $rdx
	#DEBUG_VALUE: Create_resized:extent <- $rcx
	#DEBUG_VALUE: Create_resized:lb <- $rdx
	#DEBUG_VALUE: Create_resized: <- $rsi
	.loc	11 111 1 prologue_end   # /usr/lib/x86_64-linux-gnu/openmpi/include/openmpi/ompi/mpi/cxx/datatype_inln.h:111:1
	movq	8(%rsi), %rdi
.Ltmp208:
	#DEBUG_VALUE: newtype <- [DW_OP_constu 16, DW_OP_minus, DW_OP_deref] $rbp
	.loc	11 0 1 is_stmt 0        # /usr/lib/x86_64-linux-gnu/openmpi/include/openmpi/ompi/mpi/cxx/datatype_inln.h:0:1
	leaq	-16(%rbp), %rax
	.loc	11 111 1                # /usr/lib/x86_64-linux-gnu/openmpi/include/openmpi/ompi/mpi/cxx/datatype_inln.h:111:1
	movq	%rdx, %rsi
.Ltmp209:
	#DEBUG_VALUE: Create_resized:lb <- $rsi
	movq	%rcx, %rdx
.Ltmp210:
	#DEBUG_VALUE: Create_resized:extent <- $rdx
	movq	%rax, %rcx
.Ltmp211:
	callq	MPI_Type_create_resized
.Ltmp212:
	.loc	11 112 1 is_stmt 1      # /usr/lib/x86_64-linux-gnu/openmpi/include/openmpi/ompi/mpi/cxx/datatype_inln.h:112:1
	movq	-16(%rbp), %rax
.Ltmp213:
	#DEBUG_VALUE: newtype <- undef
	movq	$_ZTVN3MPI8DatatypeE+16, (%rbx)
	.loc	11 72 1                 # /usr/lib/x86_64-linux-gnu/openmpi/include/openmpi/ompi/mpi/cxx/datatype_inln.h:72:1
	movq	%rax, 8(%rbx)
	.loc	11 113 1                # /usr/lib/x86_64-linux-gnu/openmpi/include/openmpi/ompi/mpi/cxx/datatype_inln.h:113:1
	movq	%rbx, %rax
	addq	$8, %rsp
	popq	%rbx
	popq	%rbp
	.cfi_def_cfa %rsp, 8
	retq
.Ltmp214:
.Lfunc_end13:
	.size	_ZNK3MPI8Datatype14Create_resizedEll, .Lfunc_end13-_ZNK3MPI8Datatype14Create_resizedEll
	.cfi_endproc
                                        # -- End function
	.weak	_ZNK3MPI8Datatype8Get_sizeEv # -- Begin function _ZNK3MPI8Datatype8Get_sizeEv
	.p2align	4, 0x90
	.type	_ZNK3MPI8Datatype8Get_sizeEv,@function
_ZNK3MPI8Datatype8Get_sizeEv:           # @_ZNK3MPI8Datatype8Get_sizeEv
.Lfunc_begin14:
	.loc	11 117 0                # /usr/lib/x86_64-linux-gnu/openmpi/include/openmpi/ompi/mpi/cxx/datatype_inln.h:117:0
	.cfi_startproc
# %bb.0:                                # %L.entry
	#DEBUG_VALUE: Get_size: <- $rdi
	#DEBUG_VALUE: Get_size: <- $rdi
	pushq	%rbp
	.cfi_def_cfa_offset 16
	.cfi_offset %rbp, -16
	movq	%rsp, %rbp
	.cfi_def_cfa_register %rbp
	subq	$16, %rsp
.Ltmp215:
	#DEBUG_VALUE:  <- $rdi
	.loc	11 119 1 prologue_end   # /usr/lib/x86_64-linux-gnu/openmpi/include/openmpi/ompi/mpi/cxx/datatype_inln.h:119:1
	movq	8(%rdi), %rdi
.Ltmp216:
	#DEBUG_VALUE: size <- [DW_OP_constu 4, DW_OP_minus, DW_OP_deref] $rbp
	.loc	11 0 1 is_stmt 0        # /usr/lib/x86_64-linux-gnu/openmpi/include/openmpi/ompi/mpi/cxx/datatype_inln.h:0:1
	leaq	-4(%rbp), %rsi
	.loc	11 119 1                # /usr/lib/x86_64-linux-gnu/openmpi/include/openmpi/ompi/mpi/cxx/datatype_inln.h:119:1
	callq	MPI_Type_size
	.loc	11 120 1 is_stmt 1      # /usr/lib/x86_64-linux-gnu/openmpi/include/openmpi/ompi/mpi/cxx/datatype_inln.h:120:1
	movl	-4(%rbp), %eax
.Ltmp217:
	#DEBUG_VALUE: size <- $eax
	addq	$16, %rsp
	popq	%rbp
	.cfi_def_cfa %rsp, 8
	retq
.Ltmp218:
.Lfunc_end14:
	.size	_ZNK3MPI8Datatype8Get_sizeEv, .Lfunc_end14-_ZNK3MPI8Datatype8Get_sizeEv
	.cfi_endproc
                                        # -- End function
	.weak	_ZNK3MPI8Datatype10Get_extentERlS1_ # -- Begin function _ZNK3MPI8Datatype10Get_extentERlS1_
	.p2align	4, 0x90
	.type	_ZNK3MPI8Datatype10Get_extentERlS1_,@function
_ZNK3MPI8Datatype10Get_extentERlS1_:    # @_ZNK3MPI8Datatype10Get_extentERlS1_
.Lfunc_begin15:
	.loc	11 125 0                # /usr/lib/x86_64-linux-gnu/openmpi/include/openmpi/ompi/mpi/cxx/datatype_inln.h:125:0
	.cfi_startproc
# %bb.0:                                # %L.entry
	#DEBUG_VALUE: Get_extent: <- $rdi
	#DEBUG_VALUE: Get_extent: <- $rdi
	#DEBUG_VALUE: Get_extent:lb <- $rsi
	#DEBUG_VALUE: Get_extent:lb <- $rsi
	#DEBUG_VALUE: Get_extent:extent <- $rdx
	#DEBUG_VALUE: Get_extent:extent <- $rdx
	pushq	%rbp
	.cfi_def_cfa_offset 16
	.cfi_offset %rbp, -16
	movq	%rsp, %rbp
	.cfi_def_cfa_register %rbp
.Ltmp219:
	#DEBUG_VALUE:  <- $rdi
	#DEBUG_VALUE:  <- $rdi
	#DEBUG_VALUE: lb <- $rsi
	#DEBUG_VALUE: lb <- $rsi
	#DEBUG_VALUE: extent <- $rdx
	#DEBUG_VALUE: extent <- $rdx
	.loc	11 126 1 prologue_end   # /usr/lib/x86_64-linux-gnu/openmpi/include/openmpi/ompi/mpi/cxx/datatype_inln.h:126:1
	movq	8(%rdi), %rdi
.Ltmp220:
	#DEBUG_VALUE: extent <- $rdx
	#DEBUG_VALUE: Get_extent:extent <- $rdx
	#DEBUG_VALUE: lb <- $rsi
	#DEBUG_VALUE: Get_extent:lb <- $rsi
	popq	%rbp
	.cfi_def_cfa %rsp, 8
	jmp	MPI_Type_get_extent     # TAILCALL
.Ltmp221:
.Lfunc_end15:
	.size	_ZNK3MPI8Datatype10Get_extentERlS1_, .Lfunc_end15-_ZNK3MPI8Datatype10Get_extentERlS1_
	.cfi_endproc
                                        # -- End function
	.weak	_ZNK3MPI8Datatype15Get_true_extentERlS1_ # -- Begin function _ZNK3MPI8Datatype15Get_true_extentERlS1_
	.p2align	4, 0x90
	.type	_ZNK3MPI8Datatype15Get_true_extentERlS1_,@function
_ZNK3MPI8Datatype15Get_true_extentERlS1_: # @_ZNK3MPI8Datatype15Get_true_extentERlS1_
.Lfunc_begin16:
	.loc	11 131 0                # /usr/lib/x86_64-linux-gnu/openmpi/include/openmpi/ompi/mpi/cxx/datatype_inln.h:131:0
	.cfi_startproc
# %bb.0:                                # %L.entry
	#DEBUG_VALUE: Get_true_extent: <- $rdi
	#DEBUG_VALUE: Get_true_extent: <- $rdi
	#DEBUG_VALUE: Get_true_extent:lb <- $rsi
	#DEBUG_VALUE: Get_true_extent:lb <- $rsi
	#DEBUG_VALUE: Get_true_extent:extent <- $rdx
	#DEBUG_VALUE: Get_true_extent:extent <- $rdx
	pushq	%rbp
	.cfi_def_cfa_offset 16
	.cfi_offset %rbp, -16
	movq	%rsp, %rbp
	.cfi_def_cfa_register %rbp
.Ltmp222:
	#DEBUG_VALUE:  <- $rdi
	#DEBUG_VALUE:  <- $rdi
	#DEBUG_VALUE: lb <- $rsi
	#DEBUG_VALUE: lb <- $rsi
	#DEBUG_VALUE: extent <- $rdx
	#DEBUG_VALUE: extent <- $rdx
	.loc	11 132 1 prologue_end   # /usr/lib/x86_64-linux-gnu/openmpi/include/openmpi/ompi/mpi/cxx/datatype_inln.h:132:1
	movq	8(%rdi), %rdi
.Ltmp223:
	#DEBUG_VALUE: extent <- $rdx
	#DEBUG_VALUE: Get_true_extent:extent <- $rdx
	#DEBUG_VALUE: lb <- $rsi
	#DEBUG_VALUE: Get_true_extent:lb <- $rsi
	popq	%rbp
	.cfi_def_cfa %rsp, 8
	jmp	MPI_Type_get_true_extent # TAILCALL
.Ltmp224:
.Lfunc_end16:
	.size	_ZNK3MPI8Datatype15Get_true_extentERlS1_, .Lfunc_end16-_ZNK3MPI8Datatype15Get_true_extentERlS1_
	.cfi_endproc
                                        # -- End function
	.weak	_ZN3MPI8Datatype6CommitEv # -- Begin function _ZN3MPI8Datatype6CommitEv
	.p2align	4, 0x90
	.type	_ZN3MPI8Datatype6CommitEv,@function
_ZN3MPI8Datatype6CommitEv:              # @_ZN3MPI8Datatype6CommitEv
.Lfunc_begin17:
	.loc	11 137 0                # /usr/lib/x86_64-linux-gnu/openmpi/include/openmpi/ompi/mpi/cxx/datatype_inln.h:137:0
	.cfi_startproc
# %bb.0:                                # %L.entry
	#DEBUG_VALUE: Commit: <- $rdi
	#DEBUG_VALUE: Commit: <- $rdi
	pushq	%rbp
	.cfi_def_cfa_offset 16
	.cfi_offset %rbp, -16
	movq	%rsp, %rbp
	.cfi_def_cfa_register %rbp
.Ltmp225:
	#DEBUG_VALUE:  <- $rdi
	#DEBUG_VALUE:  <- $rdi
	.loc	11 138 1 prologue_end   # /usr/lib/x86_64-linux-gnu/openmpi/include/openmpi/ompi/mpi/cxx/datatype_inln.h:138:1
	addq	$8, %rdi
.Ltmp226:
	popq	%rbp
	.cfi_def_cfa %rsp, 8
	jmp	MPI_Type_commit         # TAILCALL
.Ltmp227:
.Lfunc_end17:
	.size	_ZN3MPI8Datatype6CommitEv, .Lfunc_end17-_ZN3MPI8Datatype6CommitEv
	.cfi_endproc
                                        # -- End function
	.weak	_ZNK3MPI8Datatype4PackEPKviPviRiRKNS_4CommE # -- Begin function _ZNK3MPI8Datatype4PackEPKviPviRiRKNS_4CommE
	.p2align	4, 0x90
	.type	_ZNK3MPI8Datatype4PackEPKviPviRiRKNS_4CommE,@function
_ZNK3MPI8Datatype4PackEPKviPviRiRKNS_4CommE: # @_ZNK3MPI8Datatype4PackEPKviPviRiRKNS_4CommE
.Lfunc_begin18:
	.loc	11 145 0                # /usr/lib/x86_64-linux-gnu/openmpi/include/openmpi/ompi/mpi/cxx/datatype_inln.h:145:0
	.cfi_startproc
# %bb.0:                                # %L.entry
	#DEBUG_VALUE: Pack: <- $rdi
	#DEBUG_VALUE: Pack:inbuf <- $rsi
	#DEBUG_VALUE: Pack:incount <- $edx
	#DEBUG_VALUE: Pack:outbuf <- $rcx
	#DEBUG_VALUE: Pack:outsize <- $r8d
	#DEBUG_VALUE: Pack:position <- $r9
	pushq	%rbp
	.cfi_def_cfa_offset 16
	.cfi_offset %rbp, -16
	movq	%rsp, %rbp
	.cfi_def_cfa_register %rbp
	subq	$16, %rsp
.Ltmp228:
	#DEBUG_VALUE:  <- $rdi
	#DEBUG_VALUE: inbuf <- $rsi
	#DEBUG_VALUE: incount <- $edx
	#DEBUG_VALUE: outbuf <- $rcx
	#DEBUG_VALUE: outsize <- $r8d
	#DEBUG_VALUE: position <- $r9
	movq	16(%rbp), %r10
.Ltmp229:
	#DEBUG_VALUE: comm <- [DW_OP_plus_uconst 16] [$rbp+0]
	#DEBUG_VALUE: Pack:comm <- [DW_OP_plus_uconst 16] [$rbp+0]
	#DEBUG_VALUE: position <- $r9
	#DEBUG_VALUE: Pack:position <- $r9
	#DEBUG_VALUE: outsize <- $r8d
	#DEBUG_VALUE: Pack:outsize <- $r8d
	#DEBUG_VALUE: outbuf <- $rcx
	#DEBUG_VALUE: Pack:outbuf <- $rcx
	#DEBUG_VALUE: incount <- $edx
	#DEBUG_VALUE: Pack:incount <- $edx
	#DEBUG_VALUE: inbuf <- $rsi
	#DEBUG_VALUE: Pack:inbuf <- $rsi
	#DEBUG_VALUE:  <- $rdi
	#DEBUG_VALUE: Pack: <- $rdi
	.loc	11 80 1 prologue_end    # /usr/lib/x86_64-linux-gnu/openmpi/include/openmpi/ompi/mpi/cxx/datatype_inln.h:80:1
	movq	8(%rdi), %rax
	movq	8(%r10), %rdi
.Ltmp230:
	movq	%rdi, (%rsp)
	movq	%rsi, %rdi
.Ltmp231:
	#DEBUG_VALUE: inbuf <- $rdi
	#DEBUG_VALUE: Pack:inbuf <- $rdi
	movl	%edx, %esi
.Ltmp232:
	#DEBUG_VALUE: incount <- $esi
	#DEBUG_VALUE: Pack:incount <- $esi
	movq	%rax, %rdx
	#DEBUG_VALUE: position <- $r9
	#DEBUG_VALUE: Pack:position <- $r9
	#DEBUG_VALUE: outsize <- $r8d
	#DEBUG_VALUE: Pack:outsize <- $r8d
	#DEBUG_VALUE: outbuf <- $rcx
	#DEBUG_VALUE: Pack:outbuf <- $rcx
	callq	MPI_Pack
.Ltmp233:
	.loc	11 148 1                # /usr/lib/x86_64-linux-gnu/openmpi/include/openmpi/ompi/mpi/cxx/datatype_inln.h:148:1
	addq	$16, %rsp
	popq	%rbp
	.cfi_def_cfa %rsp, 8
	retq
.Ltmp234:
.Lfunc_end18:
	.size	_ZNK3MPI8Datatype4PackEPKviPviRiRKNS_4CommE, .Lfunc_end18-_ZNK3MPI8Datatype4PackEPKviPviRiRKNS_4CommE
	.cfi_endproc
                                        # -- End function
	.weak	_ZNK3MPI8Datatype6UnpackEPKviPviRiRKNS_4CommE # -- Begin function _ZNK3MPI8Datatype6UnpackEPKviPviRiRKNS_4CommE
	.p2align	4, 0x90
	.type	_ZNK3MPI8Datatype6UnpackEPKviPviRiRKNS_4CommE,@function
_ZNK3MPI8Datatype6UnpackEPKviPviRiRKNS_4CommE: # @_ZNK3MPI8Datatype6UnpackEPKviPviRiRKNS_4CommE
.Lfunc_begin19:
	.loc	11 154 0                # /usr/lib/x86_64-linux-gnu/openmpi/include/openmpi/ompi/mpi/cxx/datatype_inln.h:154:0
	.cfi_startproc
# %bb.0:                                # %L.entry
	#DEBUG_VALUE: Unpack: <- $rdi
	#DEBUG_VALUE: Unpack:inbuf <- $rsi
	#DEBUG_VALUE: Unpack:insize <- $edx
	#DEBUG_VALUE: Unpack:outbuf <- $rcx
	#DEBUG_VALUE: Unpack:outcount <- $r8d
	#DEBUG_VALUE: Unpack:position <- $r9
	pushq	%rbp
	.cfi_def_cfa_offset 16
	.cfi_offset %rbp, -16
	movq	%rsp, %rbp
	.cfi_def_cfa_register %rbp
	subq	$16, %rsp
.Ltmp235:
	#DEBUG_VALUE:  <- $rdi
	#DEBUG_VALUE: inbuf <- $rsi
	#DEBUG_VALUE: insize <- $edx
	#DEBUG_VALUE: outbuf <- $rcx
	#DEBUG_VALUE: outcount <- $r8d
	#DEBUG_VALUE: position <- $r9
	movq	%r9, %rax
	movq	16(%rbp), %r10
.Ltmp236:
	#DEBUG_VALUE: comm <- [DW_OP_plus_uconst 16] [$rbp+0]
	#DEBUG_VALUE: Unpack:comm <- [DW_OP_plus_uconst 16] [$rbp+0]
	#DEBUG_VALUE: position <- $rax
	#DEBUG_VALUE: Unpack:position <- $rax
	#DEBUG_VALUE: outcount <- $r8d
	#DEBUG_VALUE: Unpack:outcount <- $r8d
	#DEBUG_VALUE: outbuf <- $rcx
	#DEBUG_VALUE: Unpack:outbuf <- $rcx
	#DEBUG_VALUE: insize <- $edx
	#DEBUG_VALUE: Unpack:insize <- $edx
	#DEBUG_VALUE: inbuf <- $rsi
	#DEBUG_VALUE: Unpack:inbuf <- $rsi
	#DEBUG_VALUE:  <- $rdi
	#DEBUG_VALUE: Unpack: <- $rdi
	.loc	11 80 1 prologue_end    # /usr/lib/x86_64-linux-gnu/openmpi/include/openmpi/ompi/mpi/cxx/datatype_inln.h:80:1
	movq	8(%rdi), %r9
	movq	8(%r10), %rdi
.Ltmp237:
	movq	%rdi, (%rsp)
	movq	%rsi, %rdi
.Ltmp238:
	#DEBUG_VALUE: inbuf <- $rdi
	#DEBUG_VALUE: Unpack:inbuf <- $rdi
	movl	%edx, %esi
.Ltmp239:
	#DEBUG_VALUE: insize <- $esi
	#DEBUG_VALUE: Unpack:insize <- $esi
	movq	%rax, %rdx
.Ltmp240:
	#DEBUG_VALUE: position <- $rdx
	#DEBUG_VALUE: Unpack:position <- $rdx
	#DEBUG_VALUE: outcount <- $r8d
	#DEBUG_VALUE: Unpack:outcount <- $r8d
	#DEBUG_VALUE: outbuf <- $rcx
	#DEBUG_VALUE: Unpack:outbuf <- $rcx
	callq	MPI_Unpack
.Ltmp241:
	.loc	11 157 1                # /usr/lib/x86_64-linux-gnu/openmpi/include/openmpi/ompi/mpi/cxx/datatype_inln.h:157:1
	addq	$16, %rsp
	popq	%rbp
	.cfi_def_cfa %rsp, 8
	retq
.Ltmp242:
.Lfunc_end19:
	.size	_ZNK3MPI8Datatype6UnpackEPKviPviRiRKNS_4CommE, .Lfunc_end19-_ZNK3MPI8Datatype6UnpackEPKviPviRiRKNS_4CommE
	.cfi_endproc
                                        # -- End function
	.weak	_ZNK3MPI8Datatype9Pack_sizeEiRKNS_4CommE # -- Begin function _ZNK3MPI8Datatype9Pack_sizeEiRKNS_4CommE
	.p2align	4, 0x90
	.type	_ZNK3MPI8Datatype9Pack_sizeEiRKNS_4CommE,@function
_ZNK3MPI8Datatype9Pack_sizeEiRKNS_4CommE: # @_ZNK3MPI8Datatype9Pack_sizeEiRKNS_4CommE
.Lfunc_begin20:
	.loc	11 161 0                # /usr/lib/x86_64-linux-gnu/openmpi/include/openmpi/ompi/mpi/cxx/datatype_inln.h:161:0
	.cfi_startproc
# %bb.0:                                # %L.entry
	#DEBUG_VALUE: Pack_size: <- $rdi
	#DEBUG_VALUE: Pack_size:incount <- $esi
	#DEBUG_VALUE: Pack_size:comm <- $rdx
	pushq	%rbp
	.cfi_def_cfa_offset 16
	.cfi_offset %rbp, -16
	movq	%rsp, %rbp
	.cfi_def_cfa_register %rbp
	subq	$16, %rsp
	movl	%esi, %eax
.Ltmp243:
	#DEBUG_VALUE: comm <- $rdx
	#DEBUG_VALUE: incount <- $eax
	#DEBUG_VALUE:  <- $rdi
	#DEBUG_VALUE: Pack_size:comm <- $rdx
	#DEBUG_VALUE: Pack_size:incount <- $eax
	#DEBUG_VALUE: Pack_size: <- $rdi
	.loc	11 80 1 prologue_end    # /usr/lib/x86_64-linux-gnu/openmpi/include/openmpi/ompi/mpi/cxx/datatype_inln.h:80:1
	movq	8(%rdi), %rsi
	movq	8(%rdx), %rdx
.Ltmp244:
	#DEBUG_VALUE: size <- [DW_OP_constu 4, DW_OP_minus, DW_OP_deref] $rbp
	.loc	11 0 1 is_stmt 0        # /usr/lib/x86_64-linux-gnu/openmpi/include/openmpi/ompi/mpi/cxx/datatype_inln.h:0:1
	leaq	-4(%rbp), %rcx
	.loc	11 80 1                 # /usr/lib/x86_64-linux-gnu/openmpi/include/openmpi/ompi/mpi/cxx/datatype_inln.h:80:1
	movl	%eax, %edi
.Ltmp245:
	#DEBUG_VALUE: Pack_size:incount <- $edi
	callq	MPI_Pack_size
.Ltmp246:
	.loc	11 164 1 is_stmt 1      # /usr/lib/x86_64-linux-gnu/openmpi/include/openmpi/ompi/mpi/cxx/datatype_inln.h:164:1
	movl	-4(%rbp), %eax
.Ltmp247:
	#DEBUG_VALUE: size <- $eax
	addq	$16, %rsp
	popq	%rbp
	.cfi_def_cfa %rsp, 8
	retq
.Ltmp248:
.Lfunc_end20:
	.size	_ZNK3MPI8Datatype9Pack_sizeEiRKNS_4CommE, .Lfunc_end20-_ZNK3MPI8Datatype9Pack_sizeEiRKNS_4CommE
	.cfi_endproc
                                        # -- End function
	.weak	_ZNK3MPI8Datatype13Pack_externalEPKcPKviPvlRl # -- Begin function _ZNK3MPI8Datatype13Pack_externalEPKcPKviPvlRl
	.p2align	4, 0x90
	.type	_ZNK3MPI8Datatype13Pack_externalEPKcPKviPvlRl,@function
_ZNK3MPI8Datatype13Pack_externalEPKcPKviPvlRl: # @_ZNK3MPI8Datatype13Pack_externalEPKcPKviPvlRl
.Lfunc_begin21:
	.loc	11 170 0                # /usr/lib/x86_64-linux-gnu/openmpi/include/openmpi/ompi/mpi/cxx/datatype_inln.h:170:0
	.cfi_startproc
# %bb.0:                                # %L.entry
	#DEBUG_VALUE: Pack_external: <- $rdi
	#DEBUG_VALUE: Pack_external: <- $rdi
	#DEBUG_VALUE: Pack_external:datarep <- $rsi
	#DEBUG_VALUE: Pack_external:datarep <- $rsi
	#DEBUG_VALUE: Pack_external:inbuf <- $rdx
	#DEBUG_VALUE: Pack_external:inbuf <- $rdx
	#DEBUG_VALUE: Pack_external:incount <- $ecx
	#DEBUG_VALUE: Pack_external:incount <- $ecx
	#DEBUG_VALUE: Pack_external:outbuf <- $r8
	#DEBUG_VALUE: Pack_external:outbuf <- $r8
	#DEBUG_VALUE: Pack_external:outsize <- $r9
	#DEBUG_VALUE: Pack_external:outsize <- $r9
	pushq	%rbp
	.cfi_def_cfa_offset 16
	.cfi_offset %rbp, -16
	movq	%rsp, %rbp
	.cfi_def_cfa_register %rbp
.Ltmp249:
	#DEBUG_VALUE:  <- $rdi
	#DEBUG_VALUE:  <- $rdi
	#DEBUG_VALUE: datarep <- $rsi
	#DEBUG_VALUE: datarep <- $rsi
	#DEBUG_VALUE: inbuf <- $rdx
	#DEBUG_VALUE: inbuf <- $rdx
	#DEBUG_VALUE: incount <- $ecx
	#DEBUG_VALUE: incount <- $ecx
	#DEBUG_VALUE: outbuf <- $r8
	#DEBUG_VALUE: outbuf <- $r8
	#DEBUG_VALUE: outsize <- $r9
	#DEBUG_VALUE: outsize <- $r9
	#DEBUG_VALUE: Pack_external:position <- [DW_OP_plus_uconst 16] [$rbp+0]
	#DEBUG_VALUE: position <- [DW_OP_plus_uconst 16] [$rbp+0]
	.loc	11 171 1 prologue_end   # /usr/lib/x86_64-linux-gnu/openmpi/include/openmpi/ompi/mpi/cxx/datatype_inln.h:171:1
	movq	8(%rdi), %rax
	movq	%rsi, %rdi
.Ltmp250:
	#DEBUG_VALUE: datarep <- $rdi
	#DEBUG_VALUE: Pack_external:datarep <- $rdi
	movq	%rdx, %rsi
.Ltmp251:
	#DEBUG_VALUE: inbuf <- $rsi
	#DEBUG_VALUE: Pack_external:inbuf <- $rsi
	movl	%ecx, %edx
.Ltmp252:
	#DEBUG_VALUE: incount <- $edx
	#DEBUG_VALUE: Pack_external:incount <- $edx
	movq	%rax, %rcx
	#DEBUG_VALUE: outsize <- $r9
	#DEBUG_VALUE: Pack_external:outsize <- $r9
	#DEBUG_VALUE: outbuf <- $r8
	#DEBUG_VALUE: Pack_external:outbuf <- $r8
	popq	%rbp
	.cfi_def_cfa %rsp, 8
	jmp	MPI_Pack_external       # TAILCALL
.Ltmp253:
.Lfunc_end21:
	.size	_ZNK3MPI8Datatype13Pack_externalEPKcPKviPvlRl, .Lfunc_end21-_ZNK3MPI8Datatype13Pack_externalEPKcPKviPvlRl
	.cfi_endproc
                                        # -- End function
	.weak	_ZNK3MPI8Datatype18Pack_external_sizeEPKci # -- Begin function _ZNK3MPI8Datatype18Pack_external_sizeEPKci
	.p2align	4, 0x90
	.type	_ZNK3MPI8Datatype18Pack_external_sizeEPKci,@function
_ZNK3MPI8Datatype18Pack_external_sizeEPKci: # @_ZNK3MPI8Datatype18Pack_external_sizeEPKci
.Lfunc_begin22:
	.loc	11 177 0                # /usr/lib/x86_64-linux-gnu/openmpi/include/openmpi/ompi/mpi/cxx/datatype_inln.h:177:0
	.cfi_startproc
# %bb.0:                                # %L.entry
	#DEBUG_VALUE: Pack_external_size: <- $rdi
	#DEBUG_VALUE: Pack_external_size: <- $rdi
	#DEBUG_VALUE: Pack_external_size:datarep <- $rsi
	#DEBUG_VALUE: Pack_external_size:datarep <- $rsi
	#DEBUG_VALUE: Pack_external_size:incount <- $edx
	#DEBUG_VALUE: Pack_external_size:incount <- $edx
	pushq	%rbp
	.cfi_def_cfa_offset 16
	.cfi_offset %rbp, -16
	movq	%rsp, %rbp
	.cfi_def_cfa_register %rbp
	subq	$16, %rsp
.Ltmp254:
	#DEBUG_VALUE:  <- $rdi
	#DEBUG_VALUE: datarep <- $rsi
	#DEBUG_VALUE: incount <- $edx
	.loc	11 179 1 prologue_end   # /usr/lib/x86_64-linux-gnu/openmpi/include/openmpi/ompi/mpi/cxx/datatype_inln.h:179:1
	movq	8(%rdi), %rax
.Ltmp255:
	#DEBUG_VALUE: addr <- [DW_OP_constu 8, DW_OP_minus, DW_OP_deref] $rbp
	.loc	11 0 1 is_stmt 0        # /usr/lib/x86_64-linux-gnu/openmpi/include/openmpi/ompi/mpi/cxx/datatype_inln.h:0:1
	leaq	-8(%rbp), %rcx
	.loc	11 179 1                # /usr/lib/x86_64-linux-gnu/openmpi/include/openmpi/ompi/mpi/cxx/datatype_inln.h:179:1
	movq	%rsi, %rdi
.Ltmp256:
	#DEBUG_VALUE: Pack_external_size:datarep <- $rdi
	movl	%edx, %esi
.Ltmp257:
	#DEBUG_VALUE: Pack_external_size:incount <- $esi
	movq	%rax, %rdx
.Ltmp258:
	callq	MPI_Pack_external_size
.Ltmp259:
	.loc	11 180 1 is_stmt 1      # /usr/lib/x86_64-linux-gnu/openmpi/include/openmpi/ompi/mpi/cxx/datatype_inln.h:180:1
	movq	-8(%rbp), %rax
.Ltmp260:
	#DEBUG_VALUE: addr <- $rax
	addq	$16, %rsp
	popq	%rbp
	.cfi_def_cfa %rsp, 8
	retq
.Ltmp261:
.Lfunc_end22:
	.size	_ZNK3MPI8Datatype18Pack_external_sizeEPKci, .Lfunc_end22-_ZNK3MPI8Datatype18Pack_external_sizeEPKci
	.cfi_endproc
                                        # -- End function
	.weak	_ZNK3MPI8Datatype15Unpack_externalEPKcPKvlRlPvi # -- Begin function _ZNK3MPI8Datatype15Unpack_externalEPKcPKvlRlPvi
	.p2align	4, 0x90
	.type	_ZNK3MPI8Datatype15Unpack_externalEPKcPKvlRlPvi,@function
_ZNK3MPI8Datatype15Unpack_externalEPKcPKvlRlPvi: # @_ZNK3MPI8Datatype15Unpack_externalEPKcPKvlRlPvi
.Lfunc_begin23:
	.loc	11 186 0                # /usr/lib/x86_64-linux-gnu/openmpi/include/openmpi/ompi/mpi/cxx/datatype_inln.h:186:0
	.cfi_startproc
# %bb.0:                                # %L.entry
	#DEBUG_VALUE: Unpack_external: <- $rdi
	#DEBUG_VALUE: Unpack_external:datarep <- $rsi
	#DEBUG_VALUE: Unpack_external:inbuf <- $rdx
	#DEBUG_VALUE: Unpack_external:insize <- $rcx
	#DEBUG_VALUE: Unpack_external:position <- $r8
	#DEBUG_VALUE: Unpack_external:outbuf <- $r9
	pushq	%rbp
	.cfi_def_cfa_offset 16
	.cfi_offset %rbp, -16
	movq	%rsp, %rbp
	.cfi_def_cfa_register %rbp
	subq	$16, %rsp
.Ltmp262:
	#DEBUG_VALUE:  <- $rdi
	#DEBUG_VALUE: datarep <- $rsi
	#DEBUG_VALUE: inbuf <- $rdx
	#DEBUG_VALUE: insize <- $rcx
	#DEBUG_VALUE: position <- $r8
	#DEBUG_VALUE: outbuf <- $r9
	movq	%r9, %rax
	movl	16(%rbp), %r9d
.Ltmp263:
	#DEBUG_VALUE: outcount <- [DW_OP_plus_uconst 16] [$rbp+0]
	#DEBUG_VALUE: Unpack_external:outcount <- [DW_OP_plus_uconst 16] [$rbp+0]
	#DEBUG_VALUE: outbuf <- $rax
	#DEBUG_VALUE: Unpack_external:outbuf <- $rax
	#DEBUG_VALUE: position <- $r8
	#DEBUG_VALUE: Unpack_external:position <- $r8
	#DEBUG_VALUE: insize <- $rcx
	#DEBUG_VALUE: Unpack_external:insize <- $rcx
	#DEBUG_VALUE: inbuf <- $rdx
	#DEBUG_VALUE: Unpack_external:inbuf <- $rdx
	#DEBUG_VALUE: datarep <- $rsi
	#DEBUG_VALUE: Unpack_external:datarep <- $rsi
	#DEBUG_VALUE:  <- $rdi
	#DEBUG_VALUE: Unpack_external: <- $rdi
	.loc	11 187 1 prologue_end   # /usr/lib/x86_64-linux-gnu/openmpi/include/openmpi/ompi/mpi/cxx/datatype_inln.h:187:1
	movq	8(%rdi), %rdi
.Ltmp264:
	movq	%rdi, (%rsp)
	movq	%rsi, %rdi
.Ltmp265:
	#DEBUG_VALUE: datarep <- $rdi
	#DEBUG_VALUE: Unpack_external:datarep <- $rdi
	movq	%rdx, %rsi
.Ltmp266:
	#DEBUG_VALUE: inbuf <- $rsi
	#DEBUG_VALUE: Unpack_external:inbuf <- $rsi
	movq	%rcx, %rdx
.Ltmp267:
	#DEBUG_VALUE: insize <- $rdx
	#DEBUG_VALUE: Unpack_external:insize <- $rdx
	movq	%r8, %rcx
.Ltmp268:
	#DEBUG_VALUE: position <- $rcx
	#DEBUG_VALUE: Unpack_external:position <- $rcx
	movq	%rax, %r8
.Ltmp269:
	#DEBUG_VALUE: outbuf <- $r8
	#DEBUG_VALUE: Unpack_external:outbuf <- $r8
	callq	MPI_Unpack_external
.Ltmp270:
	.loc	11 189 1                # /usr/lib/x86_64-linux-gnu/openmpi/include/openmpi/ompi/mpi/cxx/datatype_inln.h:189:1
	addq	$16, %rsp
	popq	%rbp
	.cfi_def_cfa %rsp, 8
	retq
.Ltmp271:
.Lfunc_end23:
	.size	_ZNK3MPI8Datatype15Unpack_externalEPKcPKvlRlPvi, .Lfunc_end23-_ZNK3MPI8Datatype15Unpack_externalEPKcPKvlRlPvi
	.cfi_endproc
                                        # -- End function
	.weak	_ZNK3MPI8Datatype15Create_subarrayEiPKiS2_S2_i # -- Begin function _ZNK3MPI8Datatype15Create_subarrayEiPKiS2_S2_i
	.p2align	4, 0x90
	.type	_ZNK3MPI8Datatype15Create_subarrayEiPKiS2_S2_i,@function
_ZNK3MPI8Datatype15Create_subarrayEiPKiS2_S2_i: # @_ZNK3MPI8Datatype15Create_subarrayEiPKiS2_S2_i
.Lfunc_begin24:
	.loc	11 200 0                # /usr/lib/x86_64-linux-gnu/openmpi/include/openmpi/ompi/mpi/cxx/datatype_inln.h:200:0
	.cfi_startproc
# %bb.0:                                # %L.entry
	#DEBUG_VALUE: Create_subarray: <- $rsi
	#DEBUG_VALUE: Create_subarray:ndims <- $edx
	#DEBUG_VALUE: Create_subarray:array_of_sizes <- $rcx
	#DEBUG_VALUE: Create_subarray:array_of_subsizes <- $r8
	#DEBUG_VALUE: Create_subarray:array_of_starts <- $r9
	pushq	%rbp
	.cfi_def_cfa_offset 16
	.cfi_offset %rbp, -16
	movq	%rsp, %rbp
	.cfi_def_cfa_register %rbp
	pushq	%rbx
	subq	$24, %rsp
	.cfi_offset %rbx, -24
	movq	%r9, %r10
	movq	%r8, %rax
	movq	%rdi, %rbx
	movl	16(%rbp), %r8d
.Ltmp272:
	#DEBUG_VALUE:  <- $rsi
	#DEBUG_VALUE: order <- $r8d
	#DEBUG_VALUE: array_of_starts <- $r10
	#DEBUG_VALUE: array_of_subsizes <- $rax
	#DEBUG_VALUE: array_of_sizes <- $rcx
	#DEBUG_VALUE: ndims <- $edx
	#DEBUG_VALUE: Create_subarray:order <- [DW_OP_plus_uconst 16] [$rbp+0]
	#DEBUG_VALUE: Create_subarray:array_of_starts <- $r10
	#DEBUG_VALUE: Create_subarray:array_of_subsizes <- $rax
	#DEBUG_VALUE: Create_subarray:array_of_sizes <- $rcx
	#DEBUG_VALUE: Create_subarray:ndims <- $edx
	#DEBUG_VALUE: Create_subarray: <- $rsi
	.loc	11 202 1 prologue_end   # /usr/lib/x86_64-linux-gnu/openmpi/include/openmpi/ompi/mpi/cxx/datatype_inln.h:202:1
	movq	8(%rsi), %r9
.Ltmp273:
	#DEBUG_VALUE: type <- [DW_OP_constu 16, DW_OP_minus, DW_OP_deref] $rbp
	.loc	11 0 1 is_stmt 0        # /usr/lib/x86_64-linux-gnu/openmpi/include/openmpi/ompi/mpi/cxx/datatype_inln.h:0:1
	leaq	-16(%rbp), %rsi
.Ltmp274:
	.loc	11 202 1                # /usr/lib/x86_64-linux-gnu/openmpi/include/openmpi/ompi/mpi/cxx/datatype_inln.h:202:1
	movq	%rsi, (%rsp)
	movl	%edx, %edi
.Ltmp275:
	#DEBUG_VALUE: Create_subarray:ndims <- $edi
	movq	%rcx, %rsi
.Ltmp276:
	#DEBUG_VALUE: Create_subarray:array_of_sizes <- $rsi
	movq	%rax, %rdx
.Ltmp277:
	#DEBUG_VALUE: Create_subarray:array_of_subsizes <- $rdx
	movq	%r10, %rcx
.Ltmp278:
	#DEBUG_VALUE: Create_subarray:array_of_starts <- $rcx
	callq	MPI_Type_create_subarray
.Ltmp279:
	.loc	11 206 1 is_stmt 1      # /usr/lib/x86_64-linux-gnu/openmpi/include/openmpi/ompi/mpi/cxx/datatype_inln.h:206:1
	movq	-16(%rbp), %rax
.Ltmp280:
	#DEBUG_VALUE: type <- undef
	movq	$_ZTVN3MPI8DatatypeE+16, (%rbx)
	.loc	11 72 1                 # /usr/lib/x86_64-linux-gnu/openmpi/include/openmpi/ompi/mpi/cxx/datatype_inln.h:72:1
	movq	%rax, 8(%rbx)
	.loc	11 207 1                # /usr/lib/x86_64-linux-gnu/openmpi/include/openmpi/ompi/mpi/cxx/datatype_inln.h:207:1
	movq	%rbx, %rax
	addq	$24, %rsp
	popq	%rbx
	popq	%rbp
	.cfi_def_cfa %rsp, 8
	retq
.Ltmp281:
.Lfunc_end24:
	.size	_ZNK3MPI8Datatype15Create_subarrayEiPKiS2_S2_i, .Lfunc_end24-_ZNK3MPI8Datatype15Create_subarrayEiPKiS2_S2_i
	.cfi_endproc
                                        # -- End function
	.weak	_ZNK3MPI8Datatype13Create_darrayEiiiPKiS2_S2_S2_i # -- Begin function _ZNK3MPI8Datatype13Create_darrayEiiiPKiS2_S2_S2_i
	.p2align	4, 0x90
	.type	_ZNK3MPI8Datatype13Create_darrayEiiiPKiS2_S2_S2_i,@function
_ZNK3MPI8Datatype13Create_darrayEiiiPKiS2_S2_S2_i: # @_ZNK3MPI8Datatype13Create_darrayEiiiPKiS2_S2_S2_i
.Lfunc_begin25:
	.loc	11 214 0                # /usr/lib/x86_64-linux-gnu/openmpi/include/openmpi/ompi/mpi/cxx/datatype_inln.h:214:0
	.cfi_startproc
# %bb.0:                                # %L.entry
	#DEBUG_VALUE: Create_darray: <- $rsi
	#DEBUG_VALUE: Create_darray:size <- $edx
	#DEBUG_VALUE: Create_darray:rank <- $ecx
	#DEBUG_VALUE: Create_darray:ndims <- $r8d
	#DEBUG_VALUE: Create_darray:array_of_gsizes <- $r9
	pushq	%rbp
	.cfi_def_cfa_offset 16
	.cfi_offset %rbp, -16
	movq	%rsp, %rbp
	.cfi_def_cfa_register %rbp
	pushq	%r15
	pushq	%r14
	pushq	%rbx
	pushq	%rax
	.cfi_offset %rbx, -40
	.cfi_offset %r14, -32
	.cfi_offset %r15, -24
	movq	%r9, %r11
	movl	%r8d, %eax
	movq	%rsi, %r10
	movq	%rdi, %rbx
	movq	16(%rbp), %r8
.Ltmp282:
	movq	24(%rbp), %r9
.Ltmp283:
	#DEBUG_VALUE: array_of_psizes <- undef
	movl	40(%rbp), %r14d
.Ltmp284:
	#DEBUG_VALUE: type <- [DW_OP_constu 32, DW_OP_minus, DW_OP_deref] $rbp
	#DEBUG_VALUE:  <- $r10
	#DEBUG_VALUE: order <- $r14d
	#DEBUG_VALUE: array_of_dargs <- $r9
	#DEBUG_VALUE: array_of_distribs <- $r8
	#DEBUG_VALUE: array_of_gsizes <- $r11
	#DEBUG_VALUE: ndims <- $eax
	#DEBUG_VALUE: rank <- $ecx
	#DEBUG_VALUE: size <- $edx
	#DEBUG_VALUE: Create_darray:order <- [DW_OP_plus_uconst 40] [$rbp+0]
	#DEBUG_VALUE: Create_darray:array_of_psizes <- [DW_OP_plus_uconst 32] [$rbp+0]
	#DEBUG_VALUE: Create_darray:array_of_dargs <- [DW_OP_plus_uconst 24] [$rbp+0]
	#DEBUG_VALUE: Create_darray:array_of_distribs <- [DW_OP_plus_uconst 16] [$rbp+0]
	#DEBUG_VALUE: Create_darray:array_of_gsizes <- $r11
	#DEBUG_VALUE: Create_darray:ndims <- $eax
	#DEBUG_VALUE: Create_darray:rank <- $ecx
	#DEBUG_VALUE: Create_darray:size <- $edx
	#DEBUG_VALUE: Create_darray: <- $r10
	leaq	-32(%rbp), %r15
.Ltmp285:
	.loc	11 216 1 prologue_end   # /usr/lib/x86_64-linux-gnu/openmpi/include/openmpi/ompi/mpi/cxx/datatype_inln.h:216:1
	movl	%edx, %edi
.Ltmp286:
	#DEBUG_VALUE: Create_darray:size <- $edi
	movl	%ecx, %esi
.Ltmp287:
	#DEBUG_VALUE: Create_darray:rank <- $esi
	movl	%eax, %edx
.Ltmp288:
	#DEBUG_VALUE: Create_darray:ndims <- $edx
	movq	%r11, %rcx
.Ltmp289:
	#DEBUG_VALUE: Create_darray:array_of_gsizes <- $rcx
	pushq	%r15
	pushq	8(%r10)
	pushq	%r14
	pushq	32(%rbp)
	callq	MPI_Type_create_darray
.Ltmp290:
	addq	$32, %rsp
	.loc	11 222 1                # /usr/lib/x86_64-linux-gnu/openmpi/include/openmpi/ompi/mpi/cxx/datatype_inln.h:222:1
	movq	-32(%rbp), %rax
.Ltmp291:
	#DEBUG_VALUE: type <- undef
	movq	$_ZTVN3MPI8DatatypeE+16, (%rbx)
	.loc	11 72 1                 # /usr/lib/x86_64-linux-gnu/openmpi/include/openmpi/ompi/mpi/cxx/datatype_inln.h:72:1
	movq	%rax, 8(%rbx)
	.loc	11 223 1                # /usr/lib/x86_64-linux-gnu/openmpi/include/openmpi/ompi/mpi/cxx/datatype_inln.h:223:1
	movq	%rbx, %rax
	addq	$8, %rsp
	popq	%rbx
	popq	%r14
.Ltmp292:
	popq	%r15
	popq	%rbp
	.cfi_def_cfa %rsp, 8
	retq
.Ltmp293:
.Lfunc_end25:
	.size	_ZNK3MPI8Datatype13Create_darrayEiiiPKiS2_S2_S2_i, .Lfunc_end25-_ZNK3MPI8Datatype13Create_darrayEiiiPKiS2_S2_S2_i
	.cfi_endproc
                                        # -- End function
	.weak	_ZNK3MPI8Datatype3DupEv # -- Begin function _ZNK3MPI8Datatype3DupEv
	.p2align	4, 0x90
	.type	_ZNK3MPI8Datatype3DupEv,@function
_ZNK3MPI8Datatype3DupEv:                # @_ZNK3MPI8Datatype3DupEv
.Lfunc_begin26:
	.loc	11 264 0                # /usr/lib/x86_64-linux-gnu/openmpi/include/openmpi/ompi/mpi/cxx/datatype_inln.h:264:0
	.cfi_startproc
# %bb.0:                                # %L.entry
	#DEBUG_VALUE: Dup: <- $rsi
	pushq	%rbp
	.cfi_def_cfa_offset 16
	.cfi_offset %rbp, -16
	movq	%rsp, %rbp
	.cfi_def_cfa_register %rbp
	pushq	%rbx
	pushq	%rax
	.cfi_offset %rbx, -24
	movq	%rdi, %rbx
.Ltmp294:
	#DEBUG_VALUE:  <- $rsi
	#DEBUG_VALUE: Dup: <- $rsi
	.loc	11 266 1 prologue_end   # /usr/lib/x86_64-linux-gnu/openmpi/include/openmpi/ompi/mpi/cxx/datatype_inln.h:266:1
	movq	8(%rsi), %rdi
.Ltmp295:
	#DEBUG_VALUE: type <- [DW_OP_constu 16, DW_OP_minus, DW_OP_deref] $rbp
	.loc	11 0 1 is_stmt 0        # /usr/lib/x86_64-linux-gnu/openmpi/include/openmpi/ompi/mpi/cxx/datatype_inln.h:0:1
	leaq	-16(%rbp), %rsi
.Ltmp296:
	.loc	11 266 1                # /usr/lib/x86_64-linux-gnu/openmpi/include/openmpi/ompi/mpi/cxx/datatype_inln.h:266:1
	callq	MPI_Type_dup
	.loc	11 267 1 is_stmt 1      # /usr/lib/x86_64-linux-gnu/openmpi/include/openmpi/ompi/mpi/cxx/datatype_inln.h:267:1
	movq	-16(%rbp), %rax
.Ltmp297:
	#DEBUG_VALUE: type <- undef
	movq	$_ZTVN3MPI8DatatypeE+16, (%rbx)
	.loc	11 72 1                 # /usr/lib/x86_64-linux-gnu/openmpi/include/openmpi/ompi/mpi/cxx/datatype_inln.h:72:1
	movq	%rax, 8(%rbx)
	.loc	11 268 1                # /usr/lib/x86_64-linux-gnu/openmpi/include/openmpi/ompi/mpi/cxx/datatype_inln.h:268:1
	movq	%rbx, %rax
	addq	$8, %rsp
	popq	%rbx
	popq	%rbp
	.cfi_def_cfa %rsp, 8
	retq
.Ltmp298:
.Lfunc_end26:
	.size	_ZNK3MPI8Datatype3DupEv, .Lfunc_end26-_ZNK3MPI8Datatype3DupEv
	.cfi_endproc
                                        # -- End function
	.weak	_ZN3MPI8Datatype11Delete_attrEi # -- Begin function _ZN3MPI8Datatype11Delete_attrEi
	.p2align	4, 0x90
	.type	_ZN3MPI8Datatype11Delete_attrEi,@function
_ZN3MPI8Datatype11Delete_attrEi:        # @_ZN3MPI8Datatype11Delete_attrEi
.Lfunc_begin27:
	.loc	11 333 0                # /usr/lib/x86_64-linux-gnu/openmpi/include/openmpi/ompi/mpi/cxx/datatype_inln.h:333:0
	.cfi_startproc
# %bb.0:                                # %L.entry
	#DEBUG_VALUE: Delete_attr: <- $rdi
	#DEBUG_VALUE: Delete_attr: <- $rdi
	#DEBUG_VALUE: Delete_attr:type_keyval <- $esi
	#DEBUG_VALUE: Delete_attr:type_keyval <- $esi
	pushq	%rbp
	.cfi_def_cfa_offset 16
	.cfi_offset %rbp, -16
	movq	%rsp, %rbp
	.cfi_def_cfa_register %rbp
.Ltmp299:
	#DEBUG_VALUE:  <- $rdi
	#DEBUG_VALUE:  <- $rdi
	#DEBUG_VALUE: type_keyval <- $esi
	#DEBUG_VALUE: type_keyval <- $esi
	.loc	11 334 1 prologue_end   # /usr/lib/x86_64-linux-gnu/openmpi/include/openmpi/ompi/mpi/cxx/datatype_inln.h:334:1
	movq	8(%rdi), %rdi
.Ltmp300:
	#DEBUG_VALUE: type_keyval <- $esi
	#DEBUG_VALUE: Delete_attr:type_keyval <- $esi
	popq	%rbp
	.cfi_def_cfa %rsp, 8
	jmp	MPI_Type_delete_attr    # TAILCALL
.Ltmp301:
.Lfunc_end27:
	.size	_ZN3MPI8Datatype11Delete_attrEi, .Lfunc_end27-_ZN3MPI8Datatype11Delete_attrEi
	.cfi_endproc
                                        # -- End function
	.weak	_ZNK3MPI8Datatype8Get_attrEiPv # -- Begin function _ZNK3MPI8Datatype8Get_attrEiPv
	.p2align	4, 0x90
	.type	_ZNK3MPI8Datatype8Get_attrEiPv,@function
_ZNK3MPI8Datatype8Get_attrEiPv:         # @_ZNK3MPI8Datatype8Get_attrEiPv
.Lfunc_begin28:
	.loc	11 346 0                # /usr/lib/x86_64-linux-gnu/openmpi/include/openmpi/ompi/mpi/cxx/datatype_inln.h:346:0
	.cfi_startproc
# %bb.0:                                # %L.entry
	#DEBUG_VALUE: Get_attr: <- $rdi
	#DEBUG_VALUE: Get_attr: <- $rdi
	#DEBUG_VALUE: Get_attr:type_keyval <- $esi
	#DEBUG_VALUE: Get_attr:type_keyval <- $esi
	#DEBUG_VALUE: Get_attr:attribute_val <- $rdx
	#DEBUG_VALUE: Get_attr:attribute_val <- $rdx
	pushq	%rbp
	.cfi_def_cfa_offset 16
	.cfi_offset %rbp, -16
	movq	%rsp, %rbp
	.cfi_def_cfa_register %rbp
	subq	$16, %rsp
.Ltmp302:
	#DEBUG_VALUE:  <- $rdi
	#DEBUG_VALUE: type_keyval <- $esi
	#DEBUG_VALUE: attribute_val <- $rdx
	.loc	11 348 1 prologue_end   # /usr/lib/x86_64-linux-gnu/openmpi/include/openmpi/ompi/mpi/cxx/datatype_inln.h:348:1
	movq	8(%rdi), %rdi
.Ltmp303:
	#DEBUG_VALUE: ret <- [DW_OP_constu 4, DW_OP_minus, DW_OP_deref] $rbp
	.loc	11 0 1 is_stmt 0        # /usr/lib/x86_64-linux-gnu/openmpi/include/openmpi/ompi/mpi/cxx/datatype_inln.h:0:1
	leaq	-4(%rbp), %rcx
	#DEBUG_VALUE: Get_attr:attribute_val <- $rdx
	#DEBUG_VALUE: Get_attr:type_keyval <- $esi
	.loc	11 348 1                # /usr/lib/x86_64-linux-gnu/openmpi/include/openmpi/ompi/mpi/cxx/datatype_inln.h:348:1
	callq	MPI_Type_get_attr
.Ltmp304:
	#DEBUG_VALUE: ret <- undef
	.loc	11 349 1 is_stmt 1      # /usr/lib/x86_64-linux-gnu/openmpi/include/openmpi/ompi/mpi/cxx/datatype_inln.h:349:1
	cmpl	$0, -4(%rbp)
	setne	%al
	addq	$16, %rsp
	popq	%rbp
	.cfi_def_cfa %rsp, 8
	retq
.Ltmp305:
.Lfunc_end28:
	.size	_ZNK3MPI8Datatype8Get_attrEiPv, .Lfunc_end28-_ZNK3MPI8Datatype8Get_attrEiPv
	.cfi_endproc
                                        # -- End function
	.weak	_ZNK3MPI8Datatype12Get_contentsEiiiPiPlPS0_ # -- Begin function _ZNK3MPI8Datatype12Get_contentsEiiiPiPlPS0_
	.p2align	4, 0x90
	.type	_ZNK3MPI8Datatype12Get_contentsEiiiPiPlPS0_,@function
_ZNK3MPI8Datatype12Get_contentsEiiiPiPlPS0_: # @_ZNK3MPI8Datatype12Get_contentsEiiiPiPlPS0_
.Lfunc_begin29:
	.loc	11 358 0                # /usr/lib/x86_64-linux-gnu/openmpi/include/openmpi/ompi/mpi/cxx/datatype_inln.h:358:0
	.cfi_startproc
# %bb.0:                                # %L.entry
	#DEBUG_VALUE: Get_contents: <- $rdi
	#DEBUG_VALUE: Get_contents:max_integers <- $esi
	#DEBUG_VALUE: Get_contents:max_addresses <- $edx
	#DEBUG_VALUE: Get_contents:max_datatypes <- $ecx
	#DEBUG_VALUE: Get_contents:array_of_integers <- $r8
	#DEBUG_VALUE: Get_contents:array_of_addresses <- $r9
	pushq	%rbp
	.cfi_def_cfa_offset 16
	.cfi_offset %rbp, -16
	movq	%rsp, %rbp
	.cfi_def_cfa_register %rbp
	pushq	%r15
	pushq	%r14
	pushq	%r13
	pushq	%r12
	pushq	%rbx
	subq	$40, %rsp
	.cfi_offset %rbx, -56
	.cfi_offset %r12, -48
	.cfi_offset %r13, -40
	.cfi_offset %r14, -32
	.cfi_offset %r15, -24
.Ltmp306:
	#DEBUG_VALUE:  <- $rdi
	#DEBUG_VALUE: max_integers <- $esi
	#DEBUG_VALUE: max_addresses <- $edx
	#DEBUG_VALUE: max_datatypes <- $ecx
	#DEBUG_VALUE: array_of_integers <- $r8
	#DEBUG_VALUE: array_of_addresses <- $r9
	movq	%r9, -72(%rbp)          # 8-byte Spill
	movq	%r8, -64(%rbp)          # 8-byte Spill
	movl	%ecx, %r13d
	movl	%edx, -52(%rbp)         # 4-byte Spill
	movl	%esi, %r15d
	movq	%rdi, %r12
	movq	16(%rbp), %rax
	movq	%rax, -48(%rbp)         # 8-byte Spill
.Ltmp307:
	#DEBUG_VALUE: array_of_datatypes <- [DW_OP_plus_uconst 16] [$rbp+0]
	#DEBUG_VALUE: Get_contents:array_of_datatypes <- [DW_OP_plus_uconst 16] [$rbp+0]
	#DEBUG_VALUE: array_of_addresses <- [DW_OP_constu 72, DW_OP_minus] [$rbp+0]
	#DEBUG_VALUE: Get_contents:array_of_addresses <- [DW_OP_constu 72, DW_OP_minus] [$rbp+0]
	#DEBUG_VALUE: array_of_integers <- [DW_OP_constu 64, DW_OP_minus] [$rbp+0]
	#DEBUG_VALUE: Get_contents:array_of_integers <- [DW_OP_constu 64, DW_OP_minus] [$rbp+0]
	#DEBUG_VALUE: max_datatypes <- $r13d
	#DEBUG_VALUE: Get_contents:max_datatypes <- $r13d
	#DEBUG_VALUE: max_addresses <- [DW_OP_constu 52, DW_OP_minus] [$rbp+0]
	#DEBUG_VALUE: Get_contents:max_addresses <- [DW_OP_constu 52, DW_OP_minus] [$rbp+0]
	#DEBUG_VALUE: max_integers <- $r15d
	#DEBUG_VALUE: Get_contents:max_integers <- $r15d
	#DEBUG_VALUE:  <- $r12
	#DEBUG_VALUE: Get_contents: <- $r12
	.loc	11 360 1 prologue_end   # /usr/lib/x86_64-linux-gnu/openmpi/include/openmpi/ompi/mpi/cxx/datatype_inln.h:360:1
	movslq	%ecx, %r14
	leaq	(,%r14,8), %rdi
	callq	_Znam
	movq	%rax, %rbx
.Ltmp308:
	#DEBUG_VALUE: c_datatypes <- $rbx
	.loc	11 362 1                # /usr/lib/x86_64-linux-gnu/openmpi/include/openmpi/ompi/mpi/cxx/datatype_inln.h:362:1
	movq	8(%r12), %rdi
	movq	%rax, (%rsp)
	movl	%r15d, %esi
.Ltmp309:
	#DEBUG_VALUE: max_integers <- $esi
	#DEBUG_VALUE: Get_contents:max_integers <- $esi
	.loc	11 0 1 is_stmt 0        # /usr/lib/x86_64-linux-gnu/openmpi/include/openmpi/ompi/mpi/cxx/datatype_inln.h:0:1
	movl	-52(%rbp), %edx         # 4-byte Reload
.Ltmp310:
	#DEBUG_VALUE: max_addresses <- $edx
	#DEBUG_VALUE: Get_contents:max_addresses <- $edx
	.loc	11 362 1                # /usr/lib/x86_64-linux-gnu/openmpi/include/openmpi/ompi/mpi/cxx/datatype_inln.h:362:1
	movl	%r14d, %ecx
	movq	-64(%rbp), %r8          # 8-byte Reload
.Ltmp311:
	#DEBUG_VALUE: array_of_integers <- $r8
	#DEBUG_VALUE: Get_contents:array_of_integers <- $r8
	.loc	11 0 1                  # /usr/lib/x86_64-linux-gnu/openmpi/include/openmpi/ompi/mpi/cxx/datatype_inln.h:0:1
	movq	-72(%rbp), %r9          # 8-byte Reload
.Ltmp312:
	#DEBUG_VALUE: array_of_addresses <- $r9
	#DEBUG_VALUE: Get_contents:array_of_addresses <- $r9
	.loc	11 362 1                # /usr/lib/x86_64-linux-gnu/openmpi/include/openmpi/ompi/mpi/cxx/datatype_inln.h:362:1
	callq	MPI_Type_get_contents
.Ltmp313:
	#DEBUG_VALUE: max_datatypes <- $r13d
	#DEBUG_VALUE: Get_contents:max_datatypes <- $r13d
	.loc	11 369 1 is_stmt 1      # /usr/lib/x86_64-linux-gnu/openmpi/include/openmpi/ompi/mpi/cxx/datatype_inln.h:369:1
	testl	%r14d, %r14d
	jle	.LBB29_13
.Ltmp314:
# %bb.1:                                # %L.B5666
	#DEBUG_VALUE: c_datatypes <- $rbx
	#DEBUG_VALUE: Get_contents: <- $r12
	#DEBUG_VALUE:  <- $r12
	#DEBUG_VALUE: Get_contents:max_datatypes <- $r13d
	#DEBUG_VALUE: max_datatypes <- $r13d
	#DEBUG_VALUE: Get_contents:array_of_datatypes <- [DW_OP_plus_uconst 16] [$rbp+0]
	#DEBUG_VALUE: array_of_datatypes <- [DW_OP_plus_uconst 16] [$rbp+0]
	.loc	11 0 1 is_stmt 0        # /usr/lib/x86_64-linux-gnu/openmpi/include/openmpi/ompi/mpi/cxx/datatype_inln.h:0:1
	xorl	%eax, %eax
	.loc	11 369 1                # /usr/lib/x86_64-linux-gnu/openmpi/include/openmpi/ompi/mpi/cxx/datatype_inln.h:369:1
	cmpl	$4, %r13d
	jl	.LBB29_5
.Ltmp315:
# %bb.2:                                # %L.B5667
	#DEBUG_VALUE: c_datatypes <- $rbx
	#DEBUG_VALUE: Get_contents: <- $r12
	#DEBUG_VALUE:  <- $r12
	#DEBUG_VALUE: Get_contents:max_datatypes <- $r13d
	#DEBUG_VALUE: max_datatypes <- $r13d
	#DEBUG_VALUE: Get_contents:array_of_datatypes <- [DW_OP_plus_uconst 16] [$rbp+0]
	#DEBUG_VALUE: array_of_datatypes <- [DW_OP_plus_uconst 16] [$rbp+0]
	movl	%r13d, %ecx
	shrl	$31, %ecx
	addl	%r13d, %ecx
	movl	%ecx, %edx
	sarl	$2, %edx
	andl	$-4, %ecx
	movq	-48(%rbp), %rax         # 8-byte Reload
	leaq	56(%rax), %rsi
	xorl	%eax, %eax
.Ltmp316:
	.p2align	4, 0x90
.LBB29_3:                               # %L.B5660
                                        # =>This Inner Loop Header: Depth=1
	#DEBUG_VALUE: c_datatypes <- $rbx
	#DEBUG_VALUE: Get_contents: <- $r12
	#DEBUG_VALUE:  <- $r12
	#DEBUG_VALUE: Get_contents:max_datatypes <- $r13d
	#DEBUG_VALUE: max_datatypes <- $r13d
	#DEBUG_VALUE: Get_contents:array_of_datatypes <- [DW_OP_plus_uconst 16] [$rbp+0]
	#DEBUG_VALUE: array_of_datatypes <- [DW_OP_plus_uconst 16] [$rbp+0]
	movq	(%rbx,%rax,8), %rdi
	movq	%rdi, -48(%rsi)
	movq	8(%rbx,%rax,8), %rdi
	movq	%rdi, -32(%rsi)
	movq	16(%rbx,%rax,8), %rdi
	movq	%rdi, -16(%rsi)
	movq	24(%rbx,%rax,8), %rdi
	movq	%rdi, (%rsi)
	addq	$4, %rax
	addq	$64, %rsi
	decl	%edx
	jg	.LBB29_3
.Ltmp317:
# %bb.4:                                # %L.B5662.loopexit
	#DEBUG_VALUE: c_datatypes <- $rbx
	#DEBUG_VALUE: Get_contents: <- $r12
	#DEBUG_VALUE:  <- $r12
	#DEBUG_VALUE: Get_contents:max_datatypes <- $r13d
	#DEBUG_VALUE: max_datatypes <- $r13d
	#DEBUG_VALUE: Get_contents:array_of_datatypes <- [DW_OP_plus_uconst 16] [$rbp+0]
	#DEBUG_VALUE: array_of_datatypes <- [DW_OP_plus_uconst 16] [$rbp+0]
	subl	%ecx, %r13d
.Ltmp318:
.LBB29_5:                               # %L.B5662
	#DEBUG_VALUE: c_datatypes <- $rbx
	#DEBUG_VALUE: Get_contents: <- $r12
	#DEBUG_VALUE:  <- $r12
	#DEBUG_VALUE: Get_contents:array_of_datatypes <- [DW_OP_plus_uconst 16] [$rbp+0]
	#DEBUG_VALUE: array_of_datatypes <- [DW_OP_plus_uconst 16] [$rbp+0]
	testl	%r13d, %r13d
	je	.LBB29_13
.Ltmp319:
# %bb.6:                                # %L.B5662
	#DEBUG_VALUE: c_datatypes <- $rbx
	#DEBUG_VALUE: Get_contents: <- $r12
	#DEBUG_VALUE:  <- $r12
	#DEBUG_VALUE: Get_contents:array_of_datatypes <- [DW_OP_plus_uconst 16] [$rbp+0]
	#DEBUG_VALUE: array_of_datatypes <- [DW_OP_plus_uconst 16] [$rbp+0]
	cmpl	$1, %r13d
	je	.LBB29_7
.Ltmp320:
# %bb.8:                                # %L.B5662
	#DEBUG_VALUE: c_datatypes <- $rbx
	#DEBUG_VALUE: Get_contents: <- $r12
	#DEBUG_VALUE:  <- $r12
	#DEBUG_VALUE: Get_contents:array_of_datatypes <- [DW_OP_plus_uconst 16] [$rbp+0]
	#DEBUG_VALUE: array_of_datatypes <- [DW_OP_plus_uconst 16] [$rbp+0]
	cmpl	$2, %r13d
	jne	.LBB29_10
.Ltmp321:
# %bb.9:
	#DEBUG_VALUE: c_datatypes <- $rbx
	#DEBUG_VALUE: Get_contents: <- $r12
	#DEBUG_VALUE:  <- $r12
	#DEBUG_VALUE: Get_contents:array_of_datatypes <- [DW_OP_plus_uconst 16] [$rbp+0]
	#DEBUG_VALUE: array_of_datatypes <- [DW_OP_plus_uconst 16] [$rbp+0]
	.loc	11 0 1                  # /usr/lib/x86_64-linux-gnu/openmpi/include/openmpi/ompi/mpi/cxx/datatype_inln.h:0:1
	movq	-48(%rbp), %rsi         # 8-byte Reload
	jmp	.LBB29_11
.Ltmp322:
.LBB29_7:
	#DEBUG_VALUE: c_datatypes <- $rbx
	#DEBUG_VALUE: Get_contents: <- $r12
	#DEBUG_VALUE:  <- $r12
	#DEBUG_VALUE: Get_contents:array_of_datatypes <- [DW_OP_plus_uconst 16] [$rbp+0]
	#DEBUG_VALUE: array_of_datatypes <- [DW_OP_plus_uconst 16] [$rbp+0]
	movq	-48(%rbp), %rsi         # 8-byte Reload
	jmp	.LBB29_12
.Ltmp323:
.LBB29_10:                              # %L.B5671
	#DEBUG_VALUE: c_datatypes <- $rbx
	#DEBUG_VALUE: Get_contents: <- $r12
	#DEBUG_VALUE:  <- $r12
	#DEBUG_VALUE: Get_contents:array_of_datatypes <- [DW_OP_plus_uconst 16] [$rbp+0]
	#DEBUG_VALUE: array_of_datatypes <- [DW_OP_plus_uconst 16] [$rbp+0]
	.loc	11 369 1                # /usr/lib/x86_64-linux-gnu/openmpi/include/openmpi/ompi/mpi/cxx/datatype_inln.h:369:1
	cltq
	movq	(%rbx,%rax,8), %rcx
	movq	%rax, %rdx
	shlq	$4, %rdx
	movq	-48(%rbp), %rsi         # 8-byte Reload
	movq	%rcx, 8(%rsi,%rdx)
	incl	%eax
.Ltmp324:
.LBB29_11:                              # %L.B5665
	#DEBUG_VALUE: c_datatypes <- $rbx
	#DEBUG_VALUE: Get_contents: <- $r12
	#DEBUG_VALUE:  <- $r12
	#DEBUG_VALUE: Get_contents:array_of_datatypes <- [DW_OP_plus_uconst 16] [$rbp+0]
	#DEBUG_VALUE: array_of_datatypes <- [DW_OP_plus_uconst 16] [$rbp+0]
	cltq
	movq	(%rbx,%rax,8), %rcx
	movq	%rax, %rdx
	shlq	$4, %rdx
	movq	%rcx, 8(%rsi,%rdx)
	incl	%eax
.Ltmp325:
.LBB29_12:                              # %L.B5664
	#DEBUG_VALUE: c_datatypes <- $rbx
	#DEBUG_VALUE: Get_contents: <- $r12
	#DEBUG_VALUE:  <- $r12
	#DEBUG_VALUE: Get_contents:array_of_datatypes <- [DW_OP_plus_uconst 16] [$rbp+0]
	#DEBUG_VALUE: array_of_datatypes <- [DW_OP_plus_uconst 16] [$rbp+0]
	cltq
	movq	(%rbx,%rax,8), %rcx
	shlq	$4, %rax
	movq	%rcx, 8(%rsi,%rax)
.Ltmp326:
.LBB29_13:                              # %L.B5661
	#DEBUG_VALUE: c_datatypes <- $rbx
	#DEBUG_VALUE: Get_contents: <- $r12
	#DEBUG_VALUE:  <- $r12
	#DEBUG_VALUE: Get_contents:array_of_datatypes <- [DW_OP_plus_uconst 16] [$rbp+0]
	#DEBUG_VALUE: array_of_datatypes <- [DW_OP_plus_uconst 16] [$rbp+0]
	.loc	11 372 1 is_stmt 1      # /usr/lib/x86_64-linux-gnu/openmpi/include/openmpi/ompi/mpi/cxx/datatype_inln.h:372:1
	movq	%rbx, %rdi
	addq	$40, %rsp
	popq	%rbx
.Ltmp327:
	popq	%r12
.Ltmp328:
	popq	%r13
	popq	%r14
	popq	%r15
	popq	%rbp
	.cfi_def_cfa %rsp, 8
	jmp	_ZdaPv                  # TAILCALL
.Ltmp329:
.Lfunc_end29:
	.size	_ZNK3MPI8Datatype12Get_contentsEiiiPiPlPS0_, .Lfunc_end29-_ZNK3MPI8Datatype12Get_contentsEiiiPiPlPS0_
	.cfi_endproc
                                        # -- End function
	.weak	_ZNK3MPI8Datatype12Get_envelopeERiS1_S1_S1_ # -- Begin function _ZNK3MPI8Datatype12Get_envelopeERiS1_S1_S1_
	.p2align	4, 0x90
	.type	_ZNK3MPI8Datatype12Get_envelopeERiS1_S1_S1_,@function
_ZNK3MPI8Datatype12Get_envelopeERiS1_S1_S1_: # @_ZNK3MPI8Datatype12Get_envelopeERiS1_S1_S1_
.Lfunc_begin30:
	.loc	11 378 0                # /usr/lib/x86_64-linux-gnu/openmpi/include/openmpi/ompi/mpi/cxx/datatype_inln.h:378:0
	.cfi_startproc
# %bb.0:                                # %L.entry
	#DEBUG_VALUE: Get_envelope: <- $rdi
	#DEBUG_VALUE: Get_envelope: <- $rdi
	#DEBUG_VALUE: Get_envelope:num_integers <- $rsi
	#DEBUG_VALUE: Get_envelope:num_integers <- $rsi
	#DEBUG_VALUE: Get_envelope:num_addresses <- $rdx
	#DEBUG_VALUE: Get_envelope:num_addresses <- $rdx
	#DEBUG_VALUE: Get_envelope:num_datatypes <- $rcx
	#DEBUG_VALUE: Get_envelope:num_datatypes <- $rcx
	#DEBUG_VALUE: Get_envelope:combiner <- $r8
	#DEBUG_VALUE: Get_envelope:combiner <- $r8
	pushq	%rbp
	.cfi_def_cfa_offset 16
	.cfi_offset %rbp, -16
	movq	%rsp, %rbp
	.cfi_def_cfa_register %rbp
.Ltmp330:
	#DEBUG_VALUE:  <- $rdi
	#DEBUG_VALUE:  <- $rdi
	#DEBUG_VALUE: num_integers <- $rsi
	#DEBUG_VALUE: num_integers <- $rsi
	#DEBUG_VALUE: num_addresses <- $rdx
	#DEBUG_VALUE: num_addresses <- $rdx
	#DEBUG_VALUE: num_datatypes <- $rcx
	#DEBUG_VALUE: num_datatypes <- $rcx
	#DEBUG_VALUE: combiner <- $r8
	#DEBUG_VALUE: combiner <- $r8
	.loc	11 379 1 prologue_end   # /usr/lib/x86_64-linux-gnu/openmpi/include/openmpi/ompi/mpi/cxx/datatype_inln.h:379:1
	movq	8(%rdi), %rdi
.Ltmp331:
	#DEBUG_VALUE: combiner <- $r8
	#DEBUG_VALUE: Get_envelope:combiner <- $r8
	#DEBUG_VALUE: num_datatypes <- $rcx
	#DEBUG_VALUE: Get_envelope:num_datatypes <- $rcx
	#DEBUG_VALUE: num_addresses <- $rdx
	#DEBUG_VALUE: Get_envelope:num_addresses <- $rdx
	#DEBUG_VALUE: num_integers <- $rsi
	#DEBUG_VALUE: Get_envelope:num_integers <- $rsi
	popq	%rbp
	.cfi_def_cfa %rsp, 8
	jmp	MPI_Type_get_envelope   # TAILCALL
.Ltmp332:
.Lfunc_end30:
	.size	_ZNK3MPI8Datatype12Get_envelopeERiS1_S1_S1_, .Lfunc_end30-_ZNK3MPI8Datatype12Get_envelopeERiS1_S1_S1_
	.cfi_endproc
                                        # -- End function
	.weak	_ZNK3MPI8Datatype8Get_nameEPcRi # -- Begin function _ZNK3MPI8Datatype8Get_nameEPcRi
	.p2align	4, 0x90
	.type	_ZNK3MPI8Datatype8Get_nameEPcRi,@function
_ZNK3MPI8Datatype8Get_nameEPcRi:        # @_ZNK3MPI8Datatype8Get_nameEPcRi
.Lfunc_begin31:
	.loc	11 385 0                # /usr/lib/x86_64-linux-gnu/openmpi/include/openmpi/ompi/mpi/cxx/datatype_inln.h:385:0
	.cfi_startproc
# %bb.0:                                # %L.entry
	#DEBUG_VALUE: Get_name: <- $rdi
	#DEBUG_VALUE: Get_name: <- $rdi
	#DEBUG_VALUE: Get_name:type_name <- $rsi
	#DEBUG_VALUE: Get_name:type_name <- $rsi
	#DEBUG_VALUE: Get_name:resultlen <- $rdx
	#DEBUG_VALUE: Get_name:resultlen <- $rdx
	pushq	%rbp
	.cfi_def_cfa_offset 16
	.cfi_offset %rbp, -16
	movq	%rsp, %rbp
	.cfi_def_cfa_register %rbp
.Ltmp333:
	#DEBUG_VALUE:  <- $rdi
	#DEBUG_VALUE:  <- $rdi
	#DEBUG_VALUE: type_name <- $rsi
	#DEBUG_VALUE: type_name <- $rsi
	#DEBUG_VALUE: resultlen <- $rdx
	#DEBUG_VALUE: resultlen <- $rdx
	.loc	11 386 1 prologue_end   # /usr/lib/x86_64-linux-gnu/openmpi/include/openmpi/ompi/mpi/cxx/datatype_inln.h:386:1
	movq	8(%rdi), %rdi
.Ltmp334:
	#DEBUG_VALUE: resultlen <- $rdx
	#DEBUG_VALUE: Get_name:resultlen <- $rdx
	#DEBUG_VALUE: type_name <- $rsi
	#DEBUG_VALUE: Get_name:type_name <- $rsi
	popq	%rbp
	.cfi_def_cfa %rsp, 8
	jmp	MPI_Type_get_name       # TAILCALL
.Ltmp335:
.Lfunc_end31:
	.size	_ZNK3MPI8Datatype8Get_nameEPcRi, .Lfunc_end31-_ZNK3MPI8Datatype8Get_nameEPcRi
	.cfi_endproc
                                        # -- End function
	.weak	_ZN3MPI8Datatype8Set_attrEiPKv # -- Begin function _ZN3MPI8Datatype8Set_attrEiPKv
	.p2align	4, 0x90
	.type	_ZN3MPI8Datatype8Set_attrEiPKv,@function
_ZN3MPI8Datatype8Set_attrEiPKv:         # @_ZN3MPI8Datatype8Set_attrEiPKv
.Lfunc_begin32:
	.loc	11 391 0                # /usr/lib/x86_64-linux-gnu/openmpi/include/openmpi/ompi/mpi/cxx/datatype_inln.h:391:0
	.cfi_startproc
# %bb.0:                                # %L.entry
	#DEBUG_VALUE: Set_attr: <- $rdi
	#DEBUG_VALUE: Set_attr: <- $rdi
	#DEBUG_VALUE: Set_attr:type_keyval <- $esi
	#DEBUG_VALUE: Set_attr:type_keyval <- $esi
	#DEBUG_VALUE: Set_attr:attribute_val <- $rdx
	#DEBUG_VALUE: Set_attr:attribute_val <- $rdx
	pushq	%rbp
	.cfi_def_cfa_offset 16
	.cfi_offset %rbp, -16
	movq	%rsp, %rbp
	.cfi_def_cfa_register %rbp
.Ltmp336:
	#DEBUG_VALUE:  <- $rdi
	#DEBUG_VALUE:  <- $rdi
	#DEBUG_VALUE: type_keyval <- $esi
	#DEBUG_VALUE: type_keyval <- $esi
	#DEBUG_VALUE: attribute_val <- $rdx
	#DEBUG_VALUE: attribute_val <- $rdx
	.loc	11 392 1 prologue_end   # /usr/lib/x86_64-linux-gnu/openmpi/include/openmpi/ompi/mpi/cxx/datatype_inln.h:392:1
	movq	8(%rdi), %rdi
.Ltmp337:
	#DEBUG_VALUE: attribute_val <- $rdx
	#DEBUG_VALUE: Set_attr:attribute_val <- $rdx
	#DEBUG_VALUE: type_keyval <- $esi
	#DEBUG_VALUE: Set_attr:type_keyval <- $esi
	popq	%rbp
	.cfi_def_cfa %rsp, 8
	jmp	MPI_Type_set_attr       # TAILCALL
.Ltmp338:
.Lfunc_end32:
	.size	_ZN3MPI8Datatype8Set_attrEiPKv, .Lfunc_end32-_ZN3MPI8Datatype8Set_attrEiPKv
	.cfi_endproc
                                        # -- End function
	.weak	_ZN3MPI8Datatype8Set_nameEPKc # -- Begin function _ZN3MPI8Datatype8Set_nameEPKc
	.p2align	4, 0x90
	.type	_ZN3MPI8Datatype8Set_nameEPKc,@function
_ZN3MPI8Datatype8Set_nameEPKc:          # @_ZN3MPI8Datatype8Set_nameEPKc
.Lfunc_begin33:
	.loc	11 397 0                # /usr/lib/x86_64-linux-gnu/openmpi/include/openmpi/ompi/mpi/cxx/datatype_inln.h:397:0
	.cfi_startproc
# %bb.0:                                # %L.entry
	#DEBUG_VALUE: Set_name: <- $rdi
	#DEBUG_VALUE: Set_name: <- $rdi
	#DEBUG_VALUE: Set_name:type_name <- $rsi
	#DEBUG_VALUE: Set_name:type_name <- $rsi
	pushq	%rbp
	.cfi_def_cfa_offset 16
	.cfi_offset %rbp, -16
	movq	%rsp, %rbp
	.cfi_def_cfa_register %rbp
.Ltmp339:
	#DEBUG_VALUE:  <- $rdi
	#DEBUG_VALUE:  <- $rdi
	#DEBUG_VALUE: type_name <- $rsi
	#DEBUG_VALUE: type_name <- $rsi
	.loc	11 398 1 prologue_end   # /usr/lib/x86_64-linux-gnu/openmpi/include/openmpi/ompi/mpi/cxx/datatype_inln.h:398:1
	movq	8(%rdi), %rdi
.Ltmp340:
	#DEBUG_VALUE: type_name <- $rsi
	#DEBUG_VALUE: Set_name:type_name <- $rsi
	popq	%rbp
	.cfi_def_cfa %rsp, 8
	jmp	MPI_Type_set_name       # TAILCALL
.Ltmp341:
.Lfunc_end33:
	.size	_ZN3MPI8Datatype8Set_nameEPKc, .Lfunc_end33-_ZN3MPI8Datatype8Set_nameEPKc
	.cfi_endproc
                                        # -- End function
	.weak	_ZN3MPI2OpD1Ev          # -- Begin function _ZN3MPI2OpD1Ev
	.p2align	4, 0x90
	.type	_ZN3MPI2OpD1Ev,@function
_ZN3MPI2OpD1Ev:                         # @_ZN3MPI2OpD1Ev
.Lfunc_begin34:
	.file	12 "/usr/lib/x86_64-linux-gnu/openmpi/include/openmpi/ompi/mpi/cxx/op_inln.h"
	.loc	12 77 0                 # /usr/lib/x86_64-linux-gnu/openmpi/include/openmpi/ompi/mpi/cxx/op_inln.h:77:0
	.cfi_startproc
# %bb.0:                                # %L.entry
	#DEBUG_VALUE: ~Op: <- $rdi
	#DEBUG_VALUE: ~Op: <- $rdi
	pushq	%rbp
	.cfi_def_cfa_offset 16
	.cfi_offset %rbp, -16
	movq	%rsp, %rbp
	.cfi_def_cfa_register %rbp
.Ltmp342:
	#DEBUG_VALUE:  <- $rdi
	#DEBUG_VALUE:  <- $rdi
	.loc	12 77 1 prologue_end    # /usr/lib/x86_64-linux-gnu/openmpi/include/openmpi/ompi/mpi/cxx/op_inln.h:77:1
	movq	$_ZTVN3MPI2OpE+16, (%rdi)
	.loc	12 82 1                 # /usr/lib/x86_64-linux-gnu/openmpi/include/openmpi/ompi/mpi/cxx/op_inln.h:82:1
	popq	%rbp
	.cfi_def_cfa %rsp, 8
	retq
.Ltmp343:
.Lfunc_end34:
	.size	_ZN3MPI2OpD1Ev, .Lfunc_end34-_ZN3MPI2OpD1Ev
	.cfi_endproc
                                        # -- End function
	.weak	_ZN3MPI2OpD0Ev          # -- Begin function _ZN3MPI2OpD0Ev
	.p2align	4, 0x90
	.type	_ZN3MPI2OpD0Ev,@function
_ZN3MPI2OpD0Ev:                         # @_ZN3MPI2OpD0Ev
.Lfunc_begin35:
	.loc	1 0 0                   # sysboundary/outflow.cpp:0:0
	.cfi_startproc
# %bb.0:                                # %L.entry
	pushq	%rbp
	.cfi_def_cfa_offset 16
	.cfi_offset %rbp, -16
	movq	%rsp, %rbp
	.cfi_def_cfa_register %rbp
.Ltmp344:
	.loc	1 82 1 prologue_end     # sysboundary/outflow.cpp:82:1
	movl	$16, %esi
	popq	%rbp
	.cfi_def_cfa %rsp, 8
	jmp	_ZdlPvm                 # TAILCALL
.Ltmp345:
.Lfunc_end35:
	.size	_ZN3MPI2OpD0Ev, .Lfunc_end35-_ZN3MPI2OpD0Ev
	.cfi_endproc
                                        # -- End function
	.weak	_ZN3MPI2Op4InitEPFvPKvPviRKNS_8DatatypeEEb # -- Begin function _ZN3MPI2Op4InitEPFvPKvPviRKNS_8DatatypeEEb
	.p2align	4, 0x90
	.type	_ZN3MPI2Op4InitEPFvPKvPviRKNS_8DatatypeEEb,@function
_ZN3MPI2Op4InitEPFvPKvPviRKNS_8DatatypeEEb: # @_ZN3MPI2Op4InitEPFvPKvPviRKNS_8DatatypeEEb
.Lfunc_begin36:
	.loc	12 120 0                # /usr/lib/x86_64-linux-gnu/openmpi/include/openmpi/ompi/mpi/cxx/op_inln.h:120:0
	.cfi_startproc
# %bb.0:                                # %L.entry
	#DEBUG_VALUE: Init: <- $rdi
	#DEBUG_VALUE: Init:func <- $rsi
	#DEBUG_VALUE: Init:commute <- $edx
	pushq	%rbp
	.cfi_def_cfa_offset 16
	.cfi_offset %rbp, -16
	movq	%rsp, %rbp
	.cfi_def_cfa_register %rbp
	pushq	%r14
	pushq	%rbx
	.cfi_offset %rbx, -32
	.cfi_offset %r14, -24
.Ltmp346:
	#DEBUG_VALUE:  <- $rdi
	#DEBUG_VALUE: func <- $rsi
	#DEBUG_VALUE: commute <- $edx
	movq	%rsi, %r14
	movq	%rdi, %rbx
	#DEBUG_VALUE: commute <- $edx
	#DEBUG_VALUE: Init:commute <- $edx
.Ltmp347:
	#DEBUG_VALUE: func <- $r14
	#DEBUG_VALUE: Init:func <- $r14
	#DEBUG_VALUE:  <- $rbx
	#DEBUG_VALUE: Init: <- $rbx
	.loc	12 121 1 prologue_end   # /usr/lib/x86_64-linux-gnu/openmpi/include/openmpi/ompi/mpi/cxx/op_inln.h:121:1
	leaq	8(%rdi), %rax
	movl	$ompi_mpi_cxx_op_intercept, %edi
	movl	%edx, %esi
.Ltmp348:
	#DEBUG_VALUE: commute <- $esi
	#DEBUG_VALUE: Init:commute <- $esi
	movq	%rax, %rdx
	callq	MPI_Op_create
.Ltmp349:
	.loc	12 123 1                # /usr/lib/x86_64-linux-gnu/openmpi/include/openmpi/ompi/mpi/cxx/op_inln.h:123:1
	movq	8(%rbx), %rdi
	movq	%r14, %rsi
.Ltmp350:
	#DEBUG_VALUE: func <- $rsi
	#DEBUG_VALUE: Init:func <- $rsi
	popq	%rbx
.Ltmp351:
	popq	%r14
	popq	%rbp
	.cfi_def_cfa %rsp, 8
	jmp	ompi_op_set_cxx_callback # TAILCALL
.Ltmp352:
.Lfunc_end36:
	.size	_ZN3MPI2Op4InitEPFvPKvPviRKNS_8DatatypeEEb, .Lfunc_end36-_ZN3MPI2Op4InitEPFvPKvPviRKNS_8DatatypeEEb
	.cfi_endproc
                                        # -- End function
	.weak	_ZN3MPI2Op4FreeEv       # -- Begin function _ZN3MPI2Op4FreeEv
	.p2align	4, 0x90
	.type	_ZN3MPI2Op4FreeEv,@function
_ZN3MPI2Op4FreeEv:                      # @_ZN3MPI2Op4FreeEv
.Lfunc_begin37:
	.loc	12 129 0                # /usr/lib/x86_64-linux-gnu/openmpi/include/openmpi/ompi/mpi/cxx/op_inln.h:129:0
	.cfi_startproc
# %bb.0:                                # %L.entry
	#DEBUG_VALUE: Free: <- $rdi
	#DEBUG_VALUE: Free: <- $rdi
	pushq	%rbp
	.cfi_def_cfa_offset 16
	.cfi_offset %rbp, -16
	movq	%rsp, %rbp
	.cfi_def_cfa_register %rbp
.Ltmp353:
	#DEBUG_VALUE:  <- $rdi
	#DEBUG_VALUE:  <- $rdi
	.loc	12 130 1 prologue_end   # /usr/lib/x86_64-linux-gnu/openmpi/include/openmpi/ompi/mpi/cxx/op_inln.h:130:1
	addq	$8, %rdi
.Ltmp354:
	popq	%rbp
	.cfi_def_cfa %rsp, 8
	jmp	MPI_Op_free             # TAILCALL
.Ltmp355:
.Lfunc_end37:
	.size	_ZN3MPI2Op4FreeEv, .Lfunc_end37-_ZN3MPI2Op4FreeEv
	.cfi_endproc
                                        # -- End function
	.weak	_ZNK3MPI2Op12Reduce_localEPKvPviRKNS_8DatatypeE # -- Begin function _ZNK3MPI2Op12Reduce_localEPKvPviRKNS_8DatatypeE
	.p2align	4, 0x90
	.type	_ZNK3MPI2Op12Reduce_localEPKvPviRKNS_8DatatypeE,@function
_ZNK3MPI2Op12Reduce_localEPKvPviRKNS_8DatatypeE: # @_ZNK3MPI2Op12Reduce_localEPKvPviRKNS_8DatatypeE
.Lfunc_begin38:
	.loc	12 137 0                # /usr/lib/x86_64-linux-gnu/openmpi/include/openmpi/ompi/mpi/cxx/op_inln.h:137:0
	.cfi_startproc
# %bb.0:                                # %L.entry
	#DEBUG_VALUE: Reduce_local: <- $rdi
	#DEBUG_VALUE: Reduce_local: <- $rdi
	#DEBUG_VALUE: Reduce_local:inbuf <- $rsi
	#DEBUG_VALUE: Reduce_local:inbuf <- $rsi
	#DEBUG_VALUE: Reduce_local:inoutbuf <- $rdx
	#DEBUG_VALUE: Reduce_local:inoutbuf <- $rdx
	#DEBUG_VALUE: Reduce_local:count <- $ecx
	#DEBUG_VALUE: Reduce_local:count <- $ecx
	#DEBUG_VALUE: Reduce_local:datatype <- $r8
	#DEBUG_VALUE: Reduce_local:datatype <- $r8
	pushq	%rbp
	.cfi_def_cfa_offset 16
	.cfi_offset %rbp, -16
	movq	%rsp, %rbp
	.cfi_def_cfa_register %rbp
.Ltmp356:
	#DEBUG_VALUE:  <- $rdi
	#DEBUG_VALUE:  <- $rdi
	#DEBUG_VALUE: inbuf <- $rsi
	#DEBUG_VALUE: inbuf <- $rsi
	#DEBUG_VALUE: inoutbuf <- $rdx
	#DEBUG_VALUE: inoutbuf <- $rdx
	#DEBUG_VALUE: count <- $ecx
	#DEBUG_VALUE: count <- $ecx
	#DEBUG_VALUE: datatype <- $r8
	#DEBUG_VALUE: datatype <- $r8
	.loc	12 90 1 prologue_end    # /usr/lib/x86_64-linux-gnu/openmpi/include/openmpi/ompi/mpi/cxx/op_inln.h:90:1
	movq	8(%r8), %rax
	movq	8(%rdi), %r8
.Ltmp357:
	movq	%rsi, %rdi
.Ltmp358:
	#DEBUG_VALUE: inbuf <- $rdi
	#DEBUG_VALUE: Reduce_local:inbuf <- $rdi
	movq	%rdx, %rsi
.Ltmp359:
	#DEBUG_VALUE: inoutbuf <- $rsi
	#DEBUG_VALUE: Reduce_local:inoutbuf <- $rsi
	movl	%ecx, %edx
.Ltmp360:
	#DEBUG_VALUE: count <- $edx
	#DEBUG_VALUE: Reduce_local:count <- $edx
	movq	%rax, %rcx
	popq	%rbp
	.cfi_def_cfa %rsp, 8
	jmp	MPI_Reduce_local        # TAILCALL
.Ltmp361:
.Lfunc_end38:
	.size	_ZNK3MPI2Op12Reduce_localEPKvPviRKNS_8DatatypeE, .Lfunc_end38-_ZNK3MPI2Op12Reduce_localEPKvPviRKNS_8DatatypeE
	.cfi_endproc
                                        # -- End function
	.weak	_ZNK3MPI2Op14Is_commutativeEv # -- Begin function _ZNK3MPI2Op14Is_commutativeEv
	.p2align	4, 0x90
	.type	_ZNK3MPI2Op14Is_commutativeEv,@function
_ZNK3MPI2Op14Is_commutativeEv:          # @_ZNK3MPI2Op14Is_commutativeEv
.Lfunc_begin39:
	.loc	12 145 0                # /usr/lib/x86_64-linux-gnu/openmpi/include/openmpi/ompi/mpi/cxx/op_inln.h:145:0
	.cfi_startproc
# %bb.0:                                # %L.entry
	#DEBUG_VALUE: Is_commutative: <- $rdi
	#DEBUG_VALUE: Is_commutative: <- $rdi
	pushq	%rbp
	.cfi_def_cfa_offset 16
	.cfi_offset %rbp, -16
	movq	%rsp, %rbp
	.cfi_def_cfa_register %rbp
	subq	$16, %rsp
.Ltmp362:
	#DEBUG_VALUE:  <- $rdi
	.loc	12 147 1 prologue_end   # /usr/lib/x86_64-linux-gnu/openmpi/include/openmpi/ompi/mpi/cxx/op_inln.h:147:1
	movq	8(%rdi), %rdi
.Ltmp363:
	#DEBUG_VALUE: commute <- [DW_OP_constu 4, DW_OP_minus, DW_OP_deref] $rbp
	.loc	12 0 1 is_stmt 0        # /usr/lib/x86_64-linux-gnu/openmpi/include/openmpi/ompi/mpi/cxx/op_inln.h:0:1
	leaq	-4(%rbp), %rsi
	.loc	12 147 1                # /usr/lib/x86_64-linux-gnu/openmpi/include/openmpi/ompi/mpi/cxx/op_inln.h:147:1
	callq	MPI_Op_commutative
.Ltmp364:
	#DEBUG_VALUE: commute <- undef
	.loc	12 148 1 is_stmt 1      # /usr/lib/x86_64-linux-gnu/openmpi/include/openmpi/ompi/mpi/cxx/op_inln.h:148:1
	cmpl	$0, -4(%rbp)
	setne	%al
	addq	$16, %rsp
	popq	%rbp
	.cfi_def_cfa %rsp, 8
	retq
.Ltmp365:
.Lfunc_end39:
	.size	_ZNK3MPI2Op14Is_commutativeEv, .Lfunc_end39-_ZNK3MPI2Op14Is_commutativeEv
	.cfi_endproc
                                        # -- End function
	.weak	_ZN3MPI6StatusD1Ev      # -- Begin function _ZN3MPI6StatusD1Ev
	.p2align	4, 0x90
	.type	_ZN3MPI6StatusD1Ev,@function
_ZN3MPI6StatusD1Ev:                     # @_ZN3MPI6StatusD1Ev
.Lfunc_begin40:
	.file	13 "/usr/lib/x86_64-linux-gnu/openmpi/include/openmpi/ompi/mpi/cxx/status.h"
	.loc	13 64 0                 # /usr/lib/x86_64-linux-gnu/openmpi/include/openmpi/ompi/mpi/cxx/status.h:64:0
	.cfi_startproc
# %bb.0:                                # %L.entry
	#DEBUG_VALUE: ~Status: <- $rdi
	#DEBUG_VALUE: ~Status: <- $rdi
	pushq	%rbp
	.cfi_def_cfa_offset 16
	.cfi_offset %rbp, -16
	movq	%rsp, %rbp
	.cfi_def_cfa_register %rbp
.Ltmp366:
	#DEBUG_VALUE:  <- $rdi
	#DEBUG_VALUE:  <- $rdi
	.loc	13 64 1 prologue_end    # /usr/lib/x86_64-linux-gnu/openmpi/include/openmpi/ompi/mpi/cxx/status.h:64:1
	movq	$_ZTVN3MPI6StatusE+16, (%rdi)
	popq	%rbp
	.cfi_def_cfa %rsp, 8
	retq
.Ltmp367:
.Lfunc_end40:
	.size	_ZN3MPI6StatusD1Ev, .Lfunc_end40-_ZN3MPI6StatusD1Ev
	.cfi_endproc
                                        # -- End function
	.weak	_ZN3MPI6StatusD0Ev      # -- Begin function _ZN3MPI6StatusD0Ev
	.p2align	4, 0x90
	.type	_ZN3MPI6StatusD0Ev,@function
_ZN3MPI6StatusD0Ev:                     # @_ZN3MPI6StatusD0Ev
.Lfunc_begin41:
	.loc	1 0 0                   # sysboundary/outflow.cpp:0:0
	.cfi_startproc
# %bb.0:                                # %L.entry
	pushq	%rbp
	.cfi_def_cfa_offset 16
	.cfi_offset %rbp, -16
	movq	%rsp, %rbp
	.cfi_def_cfa_register %rbp
.Ltmp368:
	.loc	1 64 1 prologue_end     # sysboundary/outflow.cpp:64:1
	movl	$32, %esi
	popq	%rbp
	.cfi_def_cfa %rsp, 8
	jmp	_ZdlPvm                 # TAILCALL
.Ltmp369:
.Lfunc_end41:
	.size	_ZN3MPI6StatusD0Ev, .Lfunc_end41-_ZN3MPI6StatusD0Ev
	.cfi_endproc
                                        # -- End function
	.weak	_ZNK3MPI6Status9Get_countERKNS_8DatatypeE # -- Begin function _ZNK3MPI6Status9Get_countERKNS_8DatatypeE
	.p2align	4, 0x90
	.type	_ZNK3MPI6Status9Get_countERKNS_8DatatypeE,@function
_ZNK3MPI6Status9Get_countERKNS_8DatatypeE: # @_ZNK3MPI6Status9Get_countERKNS_8DatatypeE
.Lfunc_begin42:
	.file	14 "/usr/lib/x86_64-linux-gnu/openmpi/include/openmpi/ompi/mpi/cxx/status_inln.h"
	.loc	14 27 0                 # /usr/lib/x86_64-linux-gnu/openmpi/include/openmpi/ompi/mpi/cxx/status_inln.h:27:0
	.cfi_startproc
# %bb.0:                                # %L.entry
	#DEBUG_VALUE: Get_count: <- $rdi
	#DEBUG_VALUE: Get_count: <- $rdi
	#DEBUG_VALUE: Get_count:datatype <- $rsi
	#DEBUG_VALUE: Get_count:datatype <- $rsi
	pushq	%rbp
	.cfi_def_cfa_offset 16
	.cfi_offset %rbp, -16
	movq	%rsp, %rbp
	.cfi_def_cfa_register %rbp
	subq	$16, %rsp
.Ltmp370:
	#DEBUG_VALUE:  <- $rdi
	#DEBUG_VALUE: datatype <- $rsi
	.loc	14 90 1 prologue_end    # /usr/lib/x86_64-linux-gnu/openmpi/include/openmpi/ompi/mpi/cxx/status_inln.h:90:1
	addq	$8, %rdi
.Ltmp371:
	movq	8(%rsi), %rsi
.Ltmp372:
	#DEBUG_VALUE: count <- [DW_OP_constu 4, DW_OP_minus, DW_OP_deref] $rbp
	.loc	14 0 1 is_stmt 0        # /usr/lib/x86_64-linux-gnu/openmpi/include/openmpi/ompi/mpi/cxx/status_inln.h:0:1
	leaq	-4(%rbp), %rdx
	.loc	14 90 1                 # /usr/lib/x86_64-linux-gnu/openmpi/include/openmpi/ompi/mpi/cxx/status_inln.h:90:1
	callq	MPI_Get_count
	.loc	14 30 1 is_stmt 1       # /usr/lib/x86_64-linux-gnu/openmpi/include/openmpi/ompi/mpi/cxx/status_inln.h:30:1
	movl	-4(%rbp), %eax
.Ltmp373:
	#DEBUG_VALUE: count <- $eax
	addq	$16, %rsp
	popq	%rbp
	.cfi_def_cfa %rsp, 8
	retq
.Ltmp374:
.Lfunc_end42:
	.size	_ZNK3MPI6Status9Get_countERKNS_8DatatypeE, .Lfunc_end42-_ZNK3MPI6Status9Get_countERKNS_8DatatypeE
	.cfi_endproc
                                        # -- End function
	.weak	_ZNK3MPI6Status12Is_cancelledEv # -- Begin function _ZNK3MPI6Status12Is_cancelledEv
	.p2align	4, 0x90
	.type	_ZNK3MPI6Status12Is_cancelledEv,@function
_ZNK3MPI6Status12Is_cancelledEv:        # @_ZNK3MPI6Status12Is_cancelledEv
.Lfunc_begin43:
	.loc	14 35 0                 # /usr/lib/x86_64-linux-gnu/openmpi/include/openmpi/ompi/mpi/cxx/status_inln.h:35:0
	.cfi_startproc
# %bb.0:                                # %L.entry
	#DEBUG_VALUE: Is_cancelled: <- $rdi
	#DEBUG_VALUE: Is_cancelled: <- $rdi
	pushq	%rbp
	.cfi_def_cfa_offset 16
	.cfi_offset %rbp, -16
	movq	%rsp, %rbp
	.cfi_def_cfa_register %rbp
	subq	$16, %rsp
.Ltmp375:
	#DEBUG_VALUE:  <- $rdi
	.loc	14 37 1 prologue_end    # /usr/lib/x86_64-linux-gnu/openmpi/include/openmpi/ompi/mpi/cxx/status_inln.h:37:1
	addq	$8, %rdi
.Ltmp376:
	#DEBUG_VALUE: t <- [DW_OP_constu 4, DW_OP_minus, DW_OP_deref] $rbp
	.loc	14 0 1 is_stmt 0        # /usr/lib/x86_64-linux-gnu/openmpi/include/openmpi/ompi/mpi/cxx/status_inln.h:0:1
	leaq	-4(%rbp), %rsi
	.loc	14 37 1                 # /usr/lib/x86_64-linux-gnu/openmpi/include/openmpi/ompi/mpi/cxx/status_inln.h:37:1
	callq	MPI_Test_cancelled
.Ltmp377:
	#DEBUG_VALUE: t <- undef
	.loc	14 38 1 is_stmt 1       # /usr/lib/x86_64-linux-gnu/openmpi/include/openmpi/ompi/mpi/cxx/status_inln.h:38:1
	cmpl	$0, -4(%rbp)
	setne	%al
	addq	$16, %rsp
	popq	%rbp
	.cfi_def_cfa %rsp, 8
	retq
.Ltmp378:
.Lfunc_end43:
	.size	_ZNK3MPI6Status12Is_cancelledEv, .Lfunc_end43-_ZNK3MPI6Status12Is_cancelledEv
	.cfi_endproc
                                        # -- End function
	.weak	_ZNK3MPI6Status12Get_elementsERKNS_8DatatypeE # -- Begin function _ZNK3MPI6Status12Get_elementsERKNS_8DatatypeE
	.p2align	4, 0x90
	.type	_ZNK3MPI6Status12Get_elementsERKNS_8DatatypeE,@function
_ZNK3MPI6Status12Get_elementsERKNS_8DatatypeE: # @_ZNK3MPI6Status12Get_elementsERKNS_8DatatypeE
.Lfunc_begin44:
	.loc	14 43 0                 # /usr/lib/x86_64-linux-gnu/openmpi/include/openmpi/ompi/mpi/cxx/status_inln.h:43:0
	.cfi_startproc
# %bb.0:                                # %L.entry
	#DEBUG_VALUE: Get_elements: <- $rdi
	#DEBUG_VALUE: Get_elements: <- $rdi
	#DEBUG_VALUE: Get_elements:datatype <- $rsi
	#DEBUG_VALUE: Get_elements:datatype <- $rsi
	pushq	%rbp
	.cfi_def_cfa_offset 16
	.cfi_offset %rbp, -16
	movq	%rsp, %rbp
	.cfi_def_cfa_register %rbp
	subq	$16, %rsp
.Ltmp379:
	#DEBUG_VALUE:  <- $rdi
	#DEBUG_VALUE: datatype <- $rsi
	.loc	14 90 1 prologue_end    # /usr/lib/x86_64-linux-gnu/openmpi/include/openmpi/ompi/mpi/cxx/status_inln.h:90:1
	addq	$8, %rdi
.Ltmp380:
	movq	8(%rsi), %rsi
.Ltmp381:
	#DEBUG_VALUE: count <- [DW_OP_constu 4, DW_OP_minus, DW_OP_deref] $rbp
	.loc	14 0 1 is_stmt 0        # /usr/lib/x86_64-linux-gnu/openmpi/include/openmpi/ompi/mpi/cxx/status_inln.h:0:1
	leaq	-4(%rbp), %rdx
	.loc	14 90 1                 # /usr/lib/x86_64-linux-gnu/openmpi/include/openmpi/ompi/mpi/cxx/status_inln.h:90:1
	callq	MPI_Get_elements
	.loc	14 46 1 is_stmt 1       # /usr/lib/x86_64-linux-gnu/openmpi/include/openmpi/ompi/mpi/cxx/status_inln.h:46:1
	movl	-4(%rbp), %eax
.Ltmp382:
	#DEBUG_VALUE: count <- $eax
	addq	$16, %rsp
	popq	%rbp
	.cfi_def_cfa %rsp, 8
	retq
.Ltmp383:
.Lfunc_end44:
	.size	_ZNK3MPI6Status12Get_elementsERKNS_8DatatypeE, .Lfunc_end44-_ZNK3MPI6Status12Get_elementsERKNS_8DatatypeE
	.cfi_endproc
                                        # -- End function
	.weak	_ZNK3MPI6Status10Get_sourceEv # -- Begin function _ZNK3MPI6Status10Get_sourceEv
	.p2align	4, 0x90
	.type	_ZNK3MPI6Status10Get_sourceEv,@function
_ZNK3MPI6Status10Get_sourceEv:          # @_ZNK3MPI6Status10Get_sourceEv
.Lfunc_begin45:
	.loc	14 54 0                 # /usr/lib/x86_64-linux-gnu/openmpi/include/openmpi/ompi/mpi/cxx/status_inln.h:54:0
	.cfi_startproc
# %bb.0:                                # %L.entry
	#DEBUG_VALUE: Get_source: <- $rdi
	#DEBUG_VALUE: Get_source: <- $rdi
	pushq	%rbp
	.cfi_def_cfa_offset 16
	.cfi_offset %rbp, -16
	movq	%rsp, %rbp
	.cfi_def_cfa_register %rbp
.Ltmp384:
	#DEBUG_VALUE:  <- $rdi
	#DEBUG_VALUE:  <- $rdi
	.loc	14 57 1 prologue_end    # /usr/lib/x86_64-linux-gnu/openmpi/include/openmpi/ompi/mpi/cxx/status_inln.h:57:1
	movl	8(%rdi), %eax
	popq	%rbp
	.cfi_def_cfa %rsp, 8
	retq
.Ltmp385:
.Lfunc_end45:
	.size	_ZNK3MPI6Status10Get_sourceEv, .Lfunc_end45-_ZNK3MPI6Status10Get_sourceEv
	.cfi_endproc
                                        # -- End function
	.weak	_ZN3MPI6Status10Set_sourceEi # -- Begin function _ZN3MPI6Status10Set_sourceEi
	.p2align	4, 0x90
	.type	_ZN3MPI6Status10Set_sourceEi,@function
_ZN3MPI6Status10Set_sourceEi:           # @_ZN3MPI6Status10Set_sourceEi
.Lfunc_begin46:
	.loc	14 62 0                 # /usr/lib/x86_64-linux-gnu/openmpi/include/openmpi/ompi/mpi/cxx/status_inln.h:62:0
	.cfi_startproc
# %bb.0:                                # %L.entry
	#DEBUG_VALUE: Set_source: <- $rdi
	#DEBUG_VALUE: Set_source: <- $rdi
	#DEBUG_VALUE: Set_source:source <- $esi
	#DEBUG_VALUE: Set_source:source <- $esi
	pushq	%rbp
	.cfi_def_cfa_offset 16
	.cfi_offset %rbp, -16
	movq	%rsp, %rbp
	.cfi_def_cfa_register %rbp
.Ltmp386:
	#DEBUG_VALUE:  <- $rdi
	#DEBUG_VALUE:  <- $rdi
	#DEBUG_VALUE: source <- $esi
	#DEBUG_VALUE: source <- $esi
	.loc	14 63 1 prologue_end    # /usr/lib/x86_64-linux-gnu/openmpi/include/openmpi/ompi/mpi/cxx/status_inln.h:63:1
	movl	%esi, 8(%rdi)
	.loc	14 64 1                 # /usr/lib/x86_64-linux-gnu/openmpi/include/openmpi/ompi/mpi/cxx/status_inln.h:64:1
	popq	%rbp
	.cfi_def_cfa %rsp, 8
	retq
.Ltmp387:
.Lfunc_end46:
	.size	_ZN3MPI6Status10Set_sourceEi, .Lfunc_end46-_ZN3MPI6Status10Set_sourceEi
	.cfi_endproc
                                        # -- End function
	.weak	_ZNK3MPI6Status7Get_tagEv # -- Begin function _ZNK3MPI6Status7Get_tagEv
	.p2align	4, 0x90
	.type	_ZNK3MPI6Status7Get_tagEv,@function
_ZNK3MPI6Status7Get_tagEv:              # @_ZNK3MPI6Status7Get_tagEv
.Lfunc_begin47:
	.loc	14 68 0                 # /usr/lib/x86_64-linux-gnu/openmpi/include/openmpi/ompi/mpi/cxx/status_inln.h:68:0
	.cfi_startproc
# %bb.0:                                # %L.entry
	#DEBUG_VALUE: Get_tag: <- $rdi
	#DEBUG_VALUE: Get_tag: <- $rdi
	pushq	%rbp
	.cfi_def_cfa_offset 16
	.cfi_offset %rbp, -16
	movq	%rsp, %rbp
	.cfi_def_cfa_register %rbp
.Ltmp388:
	#DEBUG_VALUE:  <- $rdi
	#DEBUG_VALUE:  <- $rdi
	.loc	14 71 1 prologue_end    # /usr/lib/x86_64-linux-gnu/openmpi/include/openmpi/ompi/mpi/cxx/status_inln.h:71:1
	movl	12(%rdi), %eax
	popq	%rbp
	.cfi_def_cfa %rsp, 8
	retq
.Ltmp389:
.Lfunc_end47:
	.size	_ZNK3MPI6Status7Get_tagEv, .Lfunc_end47-_ZNK3MPI6Status7Get_tagEv
	.cfi_endproc
                                        # -- End function
	.weak	_ZN3MPI6Status7Set_tagEi # -- Begin function _ZN3MPI6Status7Set_tagEi
	.p2align	4, 0x90
	.type	_ZN3MPI6Status7Set_tagEi,@function
_ZN3MPI6Status7Set_tagEi:               # @_ZN3MPI6Status7Set_tagEi
.Lfunc_begin48:
	.loc	14 76 0                 # /usr/lib/x86_64-linux-gnu/openmpi/include/openmpi/ompi/mpi/cxx/status_inln.h:76:0
	.cfi_startproc
# %bb.0:                                # %L.entry
	#DEBUG_VALUE: Set_tag: <- $rdi
	#DEBUG_VALUE: Set_tag: <- $rdi
	#DEBUG_VALUE: Set_tag:tag <- $esi
	#DEBUG_VALUE: Set_tag:tag <- $esi
	pushq	%rbp
	.cfi_def_cfa_offset 16
	.cfi_offset %rbp, -16
	movq	%rsp, %rbp
	.cfi_def_cfa_register %rbp
.Ltmp390:
	#DEBUG_VALUE:  <- $rdi
	#DEBUG_VALUE:  <- $rdi
	#DEBUG_VALUE: tag <- $esi
	#DEBUG_VALUE: tag <- $esi
	.loc	14 77 1 prologue_end    # /usr/lib/x86_64-linux-gnu/openmpi/include/openmpi/ompi/mpi/cxx/status_inln.h:77:1
	movl	%esi, 12(%rdi)
	.loc	14 78 1                 # /usr/lib/x86_64-linux-gnu/openmpi/include/openmpi/ompi/mpi/cxx/status_inln.h:78:1
	popq	%rbp
	.cfi_def_cfa %rsp, 8
	retq
.Ltmp391:
.Lfunc_end48:
	.size	_ZN3MPI6Status7Set_tagEi, .Lfunc_end48-_ZN3MPI6Status7Set_tagEi
	.cfi_endproc
                                        # -- End function
	.weak	_ZNK3MPI6Status9Get_errorEv # -- Begin function _ZNK3MPI6Status9Get_errorEv
	.p2align	4, 0x90
	.type	_ZNK3MPI6Status9Get_errorEv,@function
_ZNK3MPI6Status9Get_errorEv:            # @_ZNK3MPI6Status9Get_errorEv
.Lfunc_begin49:
	.loc	14 82 0                 # /usr/lib/x86_64-linux-gnu/openmpi/include/openmpi/ompi/mpi/cxx/status_inln.h:82:0
	.cfi_startproc
# %bb.0:                                # %L.entry
	#DEBUG_VALUE: Get_error: <- $rdi
	#DEBUG_VALUE: Get_error: <- $rdi
	pushq	%rbp
	.cfi_def_cfa_offset 16
	.cfi_offset %rbp, -16
	movq	%rsp, %rbp
	.cfi_def_cfa_register %rbp
.Ltmp392:
	#DEBUG_VALUE:  <- $rdi
	#DEBUG_VALUE:  <- $rdi
	.loc	14 85 1 prologue_end    # /usr/lib/x86_64-linux-gnu/openmpi/include/openmpi/ompi/mpi/cxx/status_inln.h:85:1
	movl	16(%rdi), %eax
	popq	%rbp
	.cfi_def_cfa %rsp, 8
	retq
.Ltmp393:
.Lfunc_end49:
	.size	_ZNK3MPI6Status9Get_errorEv, .Lfunc_end49-_ZNK3MPI6Status9Get_errorEv
	.cfi_endproc
                                        # -- End function
	.weak	_ZN3MPI6Status9Set_errorEi # -- Begin function _ZN3MPI6Status9Set_errorEi
	.p2align	4, 0x90
	.type	_ZN3MPI6Status9Set_errorEi,@function
_ZN3MPI6Status9Set_errorEi:             # @_ZN3MPI6Status9Set_errorEi
.Lfunc_begin50:
	.loc	14 90 0                 # /usr/lib/x86_64-linux-gnu/openmpi/include/openmpi/ompi/mpi/cxx/status_inln.h:90:0
	.cfi_startproc
# %bb.0:                                # %L.entry
	#DEBUG_VALUE: Set_error: <- $rdi
	#DEBUG_VALUE: Set_error: <- $rdi
	#DEBUG_VALUE: Set_error:error <- $esi
	#DEBUG_VALUE: Set_error:error <- $esi
	pushq	%rbp
	.cfi_def_cfa_offset 16
	.cfi_offset %rbp, -16
	movq	%rsp, %rbp
	.cfi_def_cfa_register %rbp
.Ltmp394:
	#DEBUG_VALUE:  <- $rdi
	#DEBUG_VALUE:  <- $rdi
	#DEBUG_VALUE: error <- $esi
	#DEBUG_VALUE: error <- $esi
	.loc	14 91 1 prologue_end    # /usr/lib/x86_64-linux-gnu/openmpi/include/openmpi/ompi/mpi/cxx/status_inln.h:91:1
	movl	%esi, 16(%rdi)
	.loc	14 92 1                 # /usr/lib/x86_64-linux-gnu/openmpi/include/openmpi/ompi/mpi/cxx/status_inln.h:92:1
	popq	%rbp
	.cfi_def_cfa %rsp, 8
	retq
.Ltmp395:
.Lfunc_end50:
	.size	_ZN3MPI6Status9Set_errorEi, .Lfunc_end50-_ZN3MPI6Status9Set_errorEi
	.cfi_endproc
                                        # -- End function
	.weak	_ZN3MPI6Status12Set_elementsERKNS_8DatatypeEi # -- Begin function _ZN3MPI6Status12Set_elementsERKNS_8DatatypeEi
	.p2align	4, 0x90
	.type	_ZN3MPI6Status12Set_elementsERKNS_8DatatypeEi,@function
_ZN3MPI6Status12Set_elementsERKNS_8DatatypeEi: # @_ZN3MPI6Status12Set_elementsERKNS_8DatatypeEi
.Lfunc_begin51:
	.loc	14 96 0                 # /usr/lib/x86_64-linux-gnu/openmpi/include/openmpi/ompi/mpi/cxx/status_inln.h:96:0
	.cfi_startproc
# %bb.0:                                # %L.entry
	#DEBUG_VALUE: Set_elements: <- $rdi
	#DEBUG_VALUE: Set_elements: <- $rdi
	#DEBUG_VALUE: Set_elements:datatype <- $rsi
	#DEBUG_VALUE: Set_elements:datatype <- $rsi
	#DEBUG_VALUE: Set_elements:count <- $edx
	#DEBUG_VALUE: Set_elements:count <- $edx
	pushq	%rbp
	.cfi_def_cfa_offset 16
	.cfi_offset %rbp, -16
	movq	%rsp, %rbp
	.cfi_def_cfa_register %rbp
.Ltmp396:
	#DEBUG_VALUE:  <- $rdi
	#DEBUG_VALUE:  <- $rdi
	#DEBUG_VALUE: datatype <- $rsi
	#DEBUG_VALUE: datatype <- $rsi
	#DEBUG_VALUE: count <- $edx
	#DEBUG_VALUE: count <- $edx
	.loc	14 90 1 prologue_end    # /usr/lib/x86_64-linux-gnu/openmpi/include/openmpi/ompi/mpi/cxx/status_inln.h:90:1
	addq	$8, %rdi
.Ltmp397:
	movq	8(%rsi), %rsi
.Ltmp398:
	#DEBUG_VALUE: count <- $edx
	#DEBUG_VALUE: Set_elements:count <- $edx
	popq	%rbp
	.cfi_def_cfa %rsp, 8
	jmp	MPI_Status_set_elements # TAILCALL
.Ltmp399:
.Lfunc_end51:
	.size	_ZN3MPI6Status12Set_elementsERKNS_8DatatypeEi, .Lfunc_end51-_ZN3MPI6Status12Set_elementsERKNS_8DatatypeEi
	.cfi_endproc
                                        # -- End function
	.weak	_ZN3MPI6Status13Set_cancelledEb # -- Begin function _ZN3MPI6Status13Set_cancelledEb
	.p2align	4, 0x90
	.type	_ZN3MPI6Status13Set_cancelledEb,@function
_ZN3MPI6Status13Set_cancelledEb:        # @_ZN3MPI6Status13Set_cancelledEb
.Lfunc_begin52:
	.loc	14 102 0                # /usr/lib/x86_64-linux-gnu/openmpi/include/openmpi/ompi/mpi/cxx/status_inln.h:102:0
	.cfi_startproc
# %bb.0:                                # %L.entry
	#DEBUG_VALUE: Set_cancelled: <- $rdi
	#DEBUG_VALUE: Set_cancelled: <- $rdi
	#DEBUG_VALUE: Set_cancelled:flag <- $esi
	#DEBUG_VALUE: Set_cancelled:flag <- $esi
	pushq	%rbp
	.cfi_def_cfa_offset 16
	.cfi_offset %rbp, -16
	movq	%rsp, %rbp
	.cfi_def_cfa_register %rbp
.Ltmp400:
	#DEBUG_VALUE:  <- $rdi
	#DEBUG_VALUE:  <- $rdi
	#DEBUG_VALUE: flag <- $esi
	#DEBUG_VALUE: flag <- $esi
	.loc	14 103 1 prologue_end   # /usr/lib/x86_64-linux-gnu/openmpi/include/openmpi/ompi/mpi/cxx/status_inln.h:103:1
	addq	$8, %rdi
.Ltmp401:
	#DEBUG_VALUE: flag <- $esi
	#DEBUG_VALUE: Set_cancelled:flag <- $esi
	popq	%rbp
	.cfi_def_cfa %rsp, 8
	jmp	MPI_Status_set_cancelled # TAILCALL
.Ltmp402:
.Lfunc_end52:
	.size	_ZN3MPI6Status13Set_cancelledEb, .Lfunc_end52-_ZN3MPI6Status13Set_cancelledEb
	.cfi_endproc
                                        # -- End function
	.weak	_ZN3MPI7RequestD1Ev     # -- Begin function _ZN3MPI7RequestD1Ev
	.p2align	4, 0x90
	.type	_ZN3MPI7RequestD1Ev,@function
_ZN3MPI7RequestD1Ev:                    # @_ZN3MPI7RequestD1Ev
.Lfunc_begin53:
	.file	15 "/usr/lib/x86_64-linux-gnu/openmpi/include/openmpi/ompi/mpi/cxx/request.h"
	.loc	15 61 0                 # /usr/lib/x86_64-linux-gnu/openmpi/include/openmpi/ompi/mpi/cxx/request.h:61:0
	.cfi_startproc
# %bb.0:                                # %L.entry
	#DEBUG_VALUE: ~Request: <- $rdi
	#DEBUG_VALUE: ~Request: <- $rdi
	pushq	%rbp
	.cfi_def_cfa_offset 16
	.cfi_offset %rbp, -16
	movq	%rsp, %rbp
	.cfi_def_cfa_register %rbp
.Ltmp403:
	#DEBUG_VALUE:  <- $rdi
	#DEBUG_VALUE:  <- $rdi
	.loc	15 61 1 prologue_end    # /usr/lib/x86_64-linux-gnu/openmpi/include/openmpi/ompi/mpi/cxx/request.h:61:1
	movq	$_ZTVN3MPI7RequestE+16, (%rdi)
	popq	%rbp
	.cfi_def_cfa %rsp, 8
	retq
.Ltmp404:
.Lfunc_end53:
	.size	_ZN3MPI7RequestD1Ev, .Lfunc_end53-_ZN3MPI7RequestD1Ev
	.cfi_endproc
                                        # -- End function
	.weak	_ZN3MPI7RequestD0Ev     # -- Begin function _ZN3MPI7RequestD0Ev
	.p2align	4, 0x90
	.type	_ZN3MPI7RequestD0Ev,@function
_ZN3MPI7RequestD0Ev:                    # @_ZN3MPI7RequestD0Ev
.Lfunc_begin54:
	.loc	1 0 0                   # sysboundary/outflow.cpp:0:0
	.cfi_startproc
# %bb.0:                                # %L.entry
	pushq	%rbp
	.cfi_def_cfa_offset 16
	.cfi_offset %rbp, -16
	movq	%rsp, %rbp
	.cfi_def_cfa_register %rbp
.Ltmp405:
	.loc	1 61 1 prologue_end     # sysboundary/outflow.cpp:61:1
	movl	$16, %esi
	popq	%rbp
	.cfi_def_cfa %rsp, 8
	jmp	_ZdlPvm                 # TAILCALL
.Ltmp406:
.Lfunc_end54:
	.size	_ZN3MPI7RequestD0Ev, .Lfunc_end54-_ZN3MPI7RequestD0Ev
	.cfi_endproc
                                        # -- End function
	.weak	_ZN3MPI7Request4WaitERNS_6StatusE # -- Begin function _ZN3MPI7Request4WaitERNS_6StatusE
	.p2align	4, 0x90
	.type	_ZN3MPI7Request4WaitERNS_6StatusE,@function
_ZN3MPI7Request4WaitERNS_6StatusE:      # @_ZN3MPI7Request4WaitERNS_6StatusE
.Lfunc_begin55:
	.file	16 "/usr/lib/x86_64-linux-gnu/openmpi/include/openmpi/ompi/mpi/cxx/request_inln.h"
	.loc	16 28 0                 # /usr/lib/x86_64-linux-gnu/openmpi/include/openmpi/ompi/mpi/cxx/request_inln.h:28:0
	.cfi_startproc
# %bb.0:                                # %L.entry
	#DEBUG_VALUE: Wait: <- $rdi
	#DEBUG_VALUE: Wait: <- $rdi
	#DEBUG_VALUE: Wait:status <- $rsi
	#DEBUG_VALUE: Wait:status <- $rsi
	pushq	%rbp
	.cfi_def_cfa_offset 16
	.cfi_offset %rbp, -16
	movq	%rsp, %rbp
	.cfi_def_cfa_register %rbp
.Ltmp407:
	#DEBUG_VALUE:  <- $rdi
	#DEBUG_VALUE:  <- $rdi
	#DEBUG_VALUE: status <- $rsi
	#DEBUG_VALUE: status <- $rsi
	.loc	16 29 1 prologue_end    # /usr/lib/x86_64-linux-gnu/openmpi/include/openmpi/ompi/mpi/cxx/request_inln.h:29:1
	addq	$8, %rdi
.Ltmp408:
	addq	$8, %rsi
.Ltmp409:
	popq	%rbp
	.cfi_def_cfa %rsp, 8
	jmp	MPI_Wait                # TAILCALL
.Ltmp410:
.Lfunc_end55:
	.size	_ZN3MPI7Request4WaitERNS_6StatusE, .Lfunc_end55-_ZN3MPI7Request4WaitERNS_6StatusE
	.cfi_endproc
                                        # -- End function
	.weak	_ZN3MPI7Request4WaitEv  # -- Begin function _ZN3MPI7Request4WaitEv
	.p2align	4, 0x90
	.type	_ZN3MPI7Request4WaitEv,@function
_ZN3MPI7Request4WaitEv:                 # @_ZN3MPI7Request4WaitEv
.Lfunc_begin56:
	.loc	16 34 0                 # /usr/lib/x86_64-linux-gnu/openmpi/include/openmpi/ompi/mpi/cxx/request_inln.h:34:0
	.cfi_startproc
# %bb.0:                                # %L.entry
	#DEBUG_VALUE: Wait: <- $rdi
	#DEBUG_VALUE: Wait: <- $rdi
	pushq	%rbp
	.cfi_def_cfa_offset 16
	.cfi_offset %rbp, -16
	movq	%rsp, %rbp
	.cfi_def_cfa_register %rbp
.Ltmp411:
	#DEBUG_VALUE:  <- $rdi
	#DEBUG_VALUE:  <- $rdi
	.loc	16 35 1 prologue_end    # /usr/lib/x86_64-linux-gnu/openmpi/include/openmpi/ompi/mpi/cxx/request_inln.h:35:1
	addq	$8, %rdi
.Ltmp412:
	xorl	%esi, %esi
	popq	%rbp
	.cfi_def_cfa %rsp, 8
	jmp	MPI_Wait                # TAILCALL
.Ltmp413:
.Lfunc_end56:
	.size	_ZN3MPI7Request4WaitEv, .Lfunc_end56-_ZN3MPI7Request4WaitEv
	.cfi_endproc
                                        # -- End function
	.weak	_ZN3MPI7Request4TestERNS_6StatusE # -- Begin function _ZN3MPI7Request4TestERNS_6StatusE
	.p2align	4, 0x90
	.type	_ZN3MPI7Request4TestERNS_6StatusE,@function
_ZN3MPI7Request4TestERNS_6StatusE:      # @_ZN3MPI7Request4TestERNS_6StatusE
.Lfunc_begin57:
	.loc	16 46 0                 # /usr/lib/x86_64-linux-gnu/openmpi/include/openmpi/ompi/mpi/cxx/request_inln.h:46:0
	.cfi_startproc
# %bb.0:                                # %L.entry
	#DEBUG_VALUE: Test: <- $rdi
	#DEBUG_VALUE: Test: <- $rdi
	#DEBUG_VALUE: Test:status <- $rsi
	#DEBUG_VALUE: Test:status <- $rsi
	pushq	%rbp
	.cfi_def_cfa_offset 16
	.cfi_offset %rbp, -16
	movq	%rsp, %rbp
	.cfi_def_cfa_register %rbp
	subq	$16, %rsp
.Ltmp414:
	#DEBUG_VALUE:  <- $rdi
	#DEBUG_VALUE: status <- $rsi
	.loc	16 48 1 prologue_end    # /usr/lib/x86_64-linux-gnu/openmpi/include/openmpi/ompi/mpi/cxx/request_inln.h:48:1
	addq	$8, %rdi
.Ltmp415:
	leaq	8(%rsi), %rdx
.Ltmp416:
	#DEBUG_VALUE: t <- [DW_OP_constu 4, DW_OP_minus, DW_OP_deref] $rbp
	.loc	16 0 1 is_stmt 0        # /usr/lib/x86_64-linux-gnu/openmpi/include/openmpi/ompi/mpi/cxx/request_inln.h:0:1
	leaq	-4(%rbp), %rsi
.Ltmp417:
	.loc	16 48 1                 # /usr/lib/x86_64-linux-gnu/openmpi/include/openmpi/ompi/mpi/cxx/request_inln.h:48:1
	callq	MPI_Test
.Ltmp418:
	#DEBUG_VALUE: t <- undef
	.loc	16 49 1 is_stmt 1       # /usr/lib/x86_64-linux-gnu/openmpi/include/openmpi/ompi/mpi/cxx/request_inln.h:49:1
	cmpl	$0, -4(%rbp)
	setne	%al
	addq	$16, %rsp
	popq	%rbp
	.cfi_def_cfa %rsp, 8
	retq
.Ltmp419:
.Lfunc_end57:
	.size	_ZN3MPI7Request4TestERNS_6StatusE, .Lfunc_end57-_ZN3MPI7Request4TestERNS_6StatusE
	.cfi_endproc
                                        # -- End function
	.weak	_ZN3MPI7Request4TestEv  # -- Begin function _ZN3MPI7Request4TestEv
	.p2align	4, 0x90
	.type	_ZN3MPI7Request4TestEv,@function
_ZN3MPI7Request4TestEv:                 # @_ZN3MPI7Request4TestEv
.Lfunc_begin58:
	.loc	16 54 0                 # /usr/lib/x86_64-linux-gnu/openmpi/include/openmpi/ompi/mpi/cxx/request_inln.h:54:0
	.cfi_startproc
# %bb.0:                                # %L.entry
	#DEBUG_VALUE: Test: <- $rdi
	#DEBUG_VALUE: Test: <- $rdi
	pushq	%rbp
	.cfi_def_cfa_offset 16
	.cfi_offset %rbp, -16
	movq	%rsp, %rbp
	.cfi_def_cfa_register %rbp
	subq	$16, %rsp
.Ltmp420:
	#DEBUG_VALUE:  <- $rdi
	.loc	16 56 1 prologue_end    # /usr/lib/x86_64-linux-gnu/openmpi/include/openmpi/ompi/mpi/cxx/request_inln.h:56:1
	addq	$8, %rdi
.Ltmp421:
	#DEBUG_VALUE: t <- [DW_OP_constu 4, DW_OP_minus, DW_OP_deref] $rbp
	.loc	16 0 1 is_stmt 0        # /usr/lib/x86_64-linux-gnu/openmpi/include/openmpi/ompi/mpi/cxx/request_inln.h:0:1
	leaq	-4(%rbp), %rsi
	.loc	16 56 1                 # /usr/lib/x86_64-linux-gnu/openmpi/include/openmpi/ompi/mpi/cxx/request_inln.h:56:1
	xorl	%edx, %edx
	callq	MPI_Test
.Ltmp422:
	#DEBUG_VALUE: t <- undef
	.loc	16 57 1 is_stmt 1       # /usr/lib/x86_64-linux-gnu/openmpi/include/openmpi/ompi/mpi/cxx/request_inln.h:57:1
	cmpl	$0, -4(%rbp)
	setne	%al
	addq	$16, %rsp
	popq	%rbp
	.cfi_def_cfa %rsp, 8
	retq
.Ltmp423:
.Lfunc_end58:
	.size	_ZN3MPI7Request4TestEv, .Lfunc_end58-_ZN3MPI7Request4TestEv
	.cfi_endproc
                                        # -- End function
	.weak	_ZN3MPI7Request4FreeEv  # -- Begin function _ZN3MPI7Request4FreeEv
	.p2align	4, 0x90
	.type	_ZN3MPI7Request4FreeEv,@function
_ZN3MPI7Request4FreeEv:                 # @_ZN3MPI7Request4FreeEv
.Lfunc_begin59:
	.loc	16 40 0                 # /usr/lib/x86_64-linux-gnu/openmpi/include/openmpi/ompi/mpi/cxx/request_inln.h:40:0
	.cfi_startproc
# %bb.0:                                # %L.entry
	#DEBUG_VALUE: Free: <- $rdi
	#DEBUG_VALUE: Free: <- $rdi
	pushq	%rbp
	.cfi_def_cfa_offset 16
	.cfi_offset %rbp, -16
	movq	%rsp, %rbp
	.cfi_def_cfa_register %rbp
.Ltmp424:
	#DEBUG_VALUE:  <- $rdi
	#DEBUG_VALUE:  <- $rdi
	.loc	16 41 1 prologue_end    # /usr/lib/x86_64-linux-gnu/openmpi/include/openmpi/ompi/mpi/cxx/request_inln.h:41:1
	addq	$8, %rdi
.Ltmp425:
	popq	%rbp
	.cfi_def_cfa %rsp, 8
	jmp	MPI_Request_free        # TAILCALL
.Ltmp426:
.Lfunc_end59:
	.size	_ZN3MPI7Request4FreeEv, .Lfunc_end59-_ZN3MPI7Request4FreeEv
	.cfi_endproc
                                        # -- End function
	.weak	_ZNK3MPI7Request6CancelEv # -- Begin function _ZNK3MPI7Request6CancelEv
	.p2align	4, 0x90
	.type	_ZNK3MPI7Request6CancelEv,@function
_ZNK3MPI7Request6CancelEv:              # @_ZNK3MPI7Request6CancelEv
.Lfunc_begin60:
	.loc	16 289 0                # /usr/lib/x86_64-linux-gnu/openmpi/include/openmpi/ompi/mpi/cxx/request_inln.h:289:0
	.cfi_startproc
# %bb.0:                                # %L.entry
	#DEBUG_VALUE: Cancel: <- $rdi
	#DEBUG_VALUE: Cancel: <- $rdi
	pushq	%rbp
	.cfi_def_cfa_offset 16
	.cfi_offset %rbp, -16
	movq	%rsp, %rbp
	.cfi_def_cfa_register %rbp
.Ltmp427:
	#DEBUG_VALUE:  <- $rdi
	#DEBUG_VALUE:  <- $rdi
	.loc	16 290 1 prologue_end   # /usr/lib/x86_64-linux-gnu/openmpi/include/openmpi/ompi/mpi/cxx/request_inln.h:290:1
	addq	$8, %rdi
.Ltmp428:
	popq	%rbp
	.cfi_def_cfa %rsp, 8
	jmp	MPI_Cancel              # TAILCALL
.Ltmp429:
.Lfunc_end60:
	.size	_ZNK3MPI7Request6CancelEv, .Lfunc_end60-_ZNK3MPI7Request6CancelEv
	.cfi_endproc
                                        # -- End function
	.weak	_ZNK3MPI7Request10Get_statusERNS_6StatusE # -- Begin function _ZNK3MPI7Request10Get_statusERNS_6StatusE
	.p2align	4, 0x90
	.type	_ZNK3MPI7Request10Get_statusERNS_6StatusE,@function
_ZNK3MPI7Request10Get_statusERNS_6StatusE: # @_ZNK3MPI7Request10Get_statusERNS_6StatusE
.Lfunc_begin61:
	.loc	16 316 0                # /usr/lib/x86_64-linux-gnu/openmpi/include/openmpi/ompi/mpi/cxx/request_inln.h:316:0
	.cfi_startproc
# %bb.0:                                # %L.entry
	#DEBUG_VALUE: Get_status: <- $rdi
	#DEBUG_VALUE: Get_status:status <- $rsi
	pushq	%rbp
	.cfi_def_cfa_offset 16
	.cfi_offset %rbp, -16
	movq	%rsp, %rbp
	.cfi_def_cfa_register %rbp
	pushq	%rbx
	subq	$40, %rsp
	.cfi_offset %rbx, -24
	movq	%rsi, %rbx
.Ltmp430:
	#DEBUG_VALUE: flag <- 0
	#DEBUG_VALUE: status <- undef
	#DEBUG_VALUE:  <- $rdi
	#DEBUG_VALUE: Get_status:status <- $rbx
	#DEBUG_VALUE: Get_status: <- $rdi
	.loc	16 317 1 prologue_end   # /usr/lib/x86_64-linux-gnu/openmpi/include/openmpi/ompi/mpi/cxx/request_inln.h:317:1
	movl	$0, -12(%rbp)
	.loc	16 323 1                # /usr/lib/x86_64-linux-gnu/openmpi/include/openmpi/ompi/mpi/cxx/request_inln.h:323:1
	movq	8(%rdi), %rdi
.Ltmp431:
	#DEBUG_VALUE: flag <- [DW_OP_constu 12, DW_OP_minus, DW_OP_deref] $rbp
	.loc	16 0 1 is_stmt 0        # /usr/lib/x86_64-linux-gnu/openmpi/include/openmpi/ompi/mpi/cxx/request_inln.h:0:1
	leaq	-12(%rbp), %rsi
	leaq	-48(%rbp), %rdx
	.loc	16 323 1                # /usr/lib/x86_64-linux-gnu/openmpi/include/openmpi/ompi/mpi/cxx/request_inln.h:323:1
	callq	MPI_Request_get_status
	.loc	16 324 1 is_stmt 1      # /usr/lib/x86_64-linux-gnu/openmpi/include/openmpi/ompi/mpi/cxx/request_inln.h:324:1
	movl	-12(%rbp), %eax
.Ltmp432:
	#DEBUG_VALUE: flag <- $eax
	testl	%eax, %eax
	je	.LBB61_2
.Ltmp433:
# %bb.1:                                # %L.B5696
	#DEBUG_VALUE: flag <- $eax
	#DEBUG_VALUE: Get_status:status <- $rbx
	.loc	16 325 1                # /usr/lib/x86_64-linux-gnu/openmpi/include/openmpi/ompi/mpi/cxx/request_inln.h:325:1
	vmovaps	-48(%rbp), %xmm0
	vmovups	%xmm0, 8(%rbx)
	movq	-32(%rbp), %rcx
	movq	%rcx, 24(%rbx)
.Ltmp434:
.LBB61_2:                               # %L.B0194
	#DEBUG_VALUE: flag <- $eax
	#DEBUG_VALUE: Get_status:status <- $rbx
	#DEBUG_VALUE: flag <- $eax
	.loc	16 327 1                # /usr/lib/x86_64-linux-gnu/openmpi/include/openmpi/ompi/mpi/cxx/request_inln.h:327:1
	testl	%eax, %eax
	setne	%al
.Ltmp435:
	addq	$40, %rsp
	popq	%rbx
.Ltmp436:
	popq	%rbp
	.cfi_def_cfa %rsp, 8
	retq
.Ltmp437:
.Lfunc_end61:
	.size	_ZNK3MPI7Request10Get_statusERNS_6StatusE, .Lfunc_end61-_ZNK3MPI7Request10Get_statusERNS_6StatusE
	.cfi_endproc
                                        # -- End function
	.weak	_ZNK3MPI7Request10Get_statusEv # -- Begin function _ZNK3MPI7Request10Get_statusEv
	.p2align	4, 0x90
	.type	_ZNK3MPI7Request10Get_statusEv,@function
_ZNK3MPI7Request10Get_statusEv:         # @_ZNK3MPI7Request10Get_statusEv
.Lfunc_begin62:
	.loc	16 331 0                # /usr/lib/x86_64-linux-gnu/openmpi/include/openmpi/ompi/mpi/cxx/request_inln.h:331:0
	.cfi_startproc
# %bb.0:                                # %L.entry
	#DEBUG_VALUE: Get_status: <- $rdi
	#DEBUG_VALUE: Get_status: <- $rdi
	pushq	%rbp
	.cfi_def_cfa_offset 16
	.cfi_offset %rbp, -16
	movq	%rsp, %rbp
	.cfi_def_cfa_register %rbp
	subq	$16, %rsp
.Ltmp438:
	#DEBUG_VALUE:  <- $rdi
	.loc	16 337 1 prologue_end   # /usr/lib/x86_64-linux-gnu/openmpi/include/openmpi/ompi/mpi/cxx/request_inln.h:337:1
	movq	8(%rdi), %rdi
.Ltmp439:
	#DEBUG_VALUE: flag <- [DW_OP_constu 4, DW_OP_minus, DW_OP_deref] $rbp
	.loc	16 0 1 is_stmt 0        # /usr/lib/x86_64-linux-gnu/openmpi/include/openmpi/ompi/mpi/cxx/request_inln.h:0:1
	leaq	-4(%rbp), %rsi
	.loc	16 337 1                # /usr/lib/x86_64-linux-gnu/openmpi/include/openmpi/ompi/mpi/cxx/request_inln.h:337:1
	xorl	%edx, %edx
	callq	MPI_Request_get_status
.Ltmp440:
	#DEBUG_VALUE: flag <- undef
	.loc	16 338 1 is_stmt 1      # /usr/lib/x86_64-linux-gnu/openmpi/include/openmpi/ompi/mpi/cxx/request_inln.h:338:1
	cmpl	$0, -4(%rbp)
	setne	%al
	addq	$16, %rsp
	popq	%rbp
	.cfi_def_cfa %rsp, 8
	retq
.Ltmp441:
.Lfunc_end62:
	.size	_ZNK3MPI7Request10Get_statusEv, .Lfunc_end62-_ZNK3MPI7Request10Get_statusEv
	.cfi_endproc
                                        # -- End function
	.weak	_ZN3MPI8PrequestD1Ev    # -- Begin function _ZN3MPI8PrequestD1Ev
	.p2align	4, 0x90
	.type	_ZN3MPI8PrequestD1Ev,@function
_ZN3MPI8PrequestD1Ev:                   # @_ZN3MPI8PrequestD1Ev
.Lfunc_begin63:
	.loc	15 177 0                # /usr/lib/x86_64-linux-gnu/openmpi/include/openmpi/ompi/mpi/cxx/request.h:177:0
	.cfi_startproc
# %bb.0:                                # %L.entry
	#DEBUG_VALUE: ~Prequest: <- $rdi
	#DEBUG_VALUE: ~Prequest: <- $rdi
	pushq	%rbp
	.cfi_def_cfa_offset 16
	.cfi_offset %rbp, -16
	movq	%rsp, %rbp
	.cfi_def_cfa_register %rbp
.Ltmp442:
	#DEBUG_VALUE:  <- $rdi
	#DEBUG_VALUE:  <- $rdi
	.loc	15 177 1 prologue_end   # /usr/lib/x86_64-linux-gnu/openmpi/include/openmpi/ompi/mpi/cxx/request.h:177:1
	movq	$_ZTVN3MPI7RequestE+16, (%rdi)
	popq	%rbp
	.cfi_def_cfa %rsp, 8
	retq
.Ltmp443:
.Lfunc_end63:
	.size	_ZN3MPI8PrequestD1Ev, .Lfunc_end63-_ZN3MPI8PrequestD1Ev
	.cfi_endproc
                                        # -- End function
	.weak	_ZN3MPI8PrequestD0Ev    # -- Begin function _ZN3MPI8PrequestD0Ev
	.p2align	4, 0x90
	.type	_ZN3MPI8PrequestD0Ev,@function
_ZN3MPI8PrequestD0Ev:                   # @_ZN3MPI8PrequestD0Ev
.Lfunc_begin64:
	.loc	1 0 0                   # sysboundary/outflow.cpp:0:0
	.cfi_startproc
# %bb.0:                                # %L.entry
	pushq	%rbp
	.cfi_def_cfa_offset 16
	.cfi_offset %rbp, -16
	movq	%rsp, %rbp
	.cfi_def_cfa_register %rbp
.Ltmp444:
	.loc	1 177 1 prologue_end    # sysboundary/outflow.cpp:177:1
	movl	$16, %esi
	popq	%rbp
	.cfi_def_cfa %rsp, 8
	jmp	_ZdlPvm                 # TAILCALL
.Ltmp445:
.Lfunc_end64:
	.size	_ZN3MPI8PrequestD0Ev, .Lfunc_end64-_ZN3MPI8PrequestD0Ev
	.cfi_endproc
                                        # -- End function
	.weak	_ZN3MPI8Prequest5StartEv # -- Begin function _ZN3MPI8Prequest5StartEv
	.p2align	4, 0x90
	.type	_ZN3MPI8Prequest5StartEv,@function
_ZN3MPI8Prequest5StartEv:               # @_ZN3MPI8Prequest5StartEv
.Lfunc_begin65:
	.loc	16 295 0                # /usr/lib/x86_64-linux-gnu/openmpi/include/openmpi/ompi/mpi/cxx/request_inln.h:295:0
	.cfi_startproc
# %bb.0:                                # %L.entry
	#DEBUG_VALUE: Start: <- $rdi
	#DEBUG_VALUE: Start: <- $rdi
	pushq	%rbp
	.cfi_def_cfa_offset 16
	.cfi_offset %rbp, -16
	movq	%rsp, %rbp
	.cfi_def_cfa_register %rbp
.Ltmp446:
	#DEBUG_VALUE:  <- $rdi
	#DEBUG_VALUE:  <- $rdi
	.loc	16 296 1 prologue_end   # /usr/lib/x86_64-linux-gnu/openmpi/include/openmpi/ompi/mpi/cxx/request_inln.h:296:1
	addq	$8, %rdi
.Ltmp447:
	popq	%rbp
	.cfi_def_cfa %rsp, 8
	jmp	MPI_Start               # TAILCALL
.Ltmp448:
.Lfunc_end65:
	.size	_ZN3MPI8Prequest5StartEv, .Lfunc_end65-_ZN3MPI8Prequest5StartEv
	.cfi_endproc
                                        # -- End function
	.weak	_ZN3MPI8GrequestD1Ev    # -- Begin function _ZN3MPI8GrequestD1Ev
	.p2align	4, 0x90
	.type	_ZN3MPI8GrequestD1Ev,@function
_ZN3MPI8GrequestD1Ev:                   # @_ZN3MPI8GrequestD1Ev
.Lfunc_begin66:
	.loc	15 209 0                # /usr/lib/x86_64-linux-gnu/openmpi/include/openmpi/ompi/mpi/cxx/request.h:209:0
	.cfi_startproc
# %bb.0:                                # %L.entry
	#DEBUG_VALUE: ~Grequest: <- $rdi
	#DEBUG_VALUE: ~Grequest: <- $rdi
	pushq	%rbp
	.cfi_def_cfa_offset 16
	.cfi_offset %rbp, -16
	movq	%rsp, %rbp
	.cfi_def_cfa_register %rbp
.Ltmp449:
	#DEBUG_VALUE:  <- $rdi
	#DEBUG_VALUE:  <- $rdi
	.loc	15 209 1 prologue_end   # /usr/lib/x86_64-linux-gnu/openmpi/include/openmpi/ompi/mpi/cxx/request.h:209:1
	movq	$_ZTVN3MPI7RequestE+16, (%rdi)
	popq	%rbp
	.cfi_def_cfa %rsp, 8
	retq
.Ltmp450:
.Lfunc_end66:
	.size	_ZN3MPI8GrequestD1Ev, .Lfunc_end66-_ZN3MPI8GrequestD1Ev
	.cfi_endproc
                                        # -- End function
	.weak	_ZN3MPI8GrequestD0Ev    # -- Begin function _ZN3MPI8GrequestD0Ev
	.p2align	4, 0x90
	.type	_ZN3MPI8GrequestD0Ev,@function
_ZN3MPI8GrequestD0Ev:                   # @_ZN3MPI8GrequestD0Ev
.Lfunc_begin67:
	.loc	1 0 0                   # sysboundary/outflow.cpp:0:0
	.cfi_startproc
# %bb.0:                                # %L.entry
	pushq	%rbp
	.cfi_def_cfa_offset 16
	.cfi_offset %rbp, -16
	movq	%rsp, %rbp
	.cfi_def_cfa_register %rbp
.Ltmp451:
	.loc	1 209 1 prologue_end    # sysboundary/outflow.cpp:209:1
	movl	$16, %esi
	popq	%rbp
	.cfi_def_cfa %rsp, 8
	jmp	_ZdlPvm                 # TAILCALL
.Ltmp452:
.Lfunc_end67:
	.size	_ZN3MPI8GrequestD0Ev, .Lfunc_end67-_ZN3MPI8GrequestD0Ev
	.cfi_endproc
                                        # -- End function
	.weak	_ZN3MPI8Grequest8CompleteEv # -- Begin function _ZN3MPI8Grequest8CompleteEv
	.p2align	4, 0x90
	.type	_ZN3MPI8Grequest8CompleteEv,@function
_ZN3MPI8Grequest8CompleteEv:            # @_ZN3MPI8Grequest8CompleteEv
.Lfunc_begin68:
	.loc	16 363 0                # /usr/lib/x86_64-linux-gnu/openmpi/include/openmpi/ompi/mpi/cxx/request_inln.h:363:0
	.cfi_startproc
# %bb.0:                                # %L.entry
	#DEBUG_VALUE: Complete: <- $rdi
	#DEBUG_VALUE: Complete: <- $rdi
	pushq	%rbp
	.cfi_def_cfa_offset 16
	.cfi_offset %rbp, -16
	movq	%rsp, %rbp
	.cfi_def_cfa_register %rbp
.Ltmp453:
	#DEBUG_VALUE:  <- $rdi
	#DEBUG_VALUE:  <- $rdi
	.loc	16 364 1 prologue_end   # /usr/lib/x86_64-linux-gnu/openmpi/include/openmpi/ompi/mpi/cxx/request_inln.h:364:1
	movq	8(%rdi), %rdi
.Ltmp454:
	popq	%rbp
	.cfi_def_cfa %rsp, 8
	jmp	MPI_Grequest_complete   # TAILCALL
.Ltmp455:
.Lfunc_end68:
	.size	_ZN3MPI8Grequest8CompleteEv, .Lfunc_end68-_ZN3MPI8Grequest8CompleteEv
	.cfi_endproc
                                        # -- End function
	.weak	_ZN3MPI5GroupD1Ev       # -- Begin function _ZN3MPI5GroupD1Ev
	.p2align	4, 0x90
	.type	_ZN3MPI5GroupD1Ev,@function
_ZN3MPI5GroupD1Ev:                      # @_ZN3MPI5GroupD1Ev
.Lfunc_begin69:
	.file	17 "/usr/lib/x86_64-linux-gnu/openmpi/include/openmpi/ompi/mpi/cxx/group.h"
	.loc	17 67 0                 # /usr/lib/x86_64-linux-gnu/openmpi/include/openmpi/ompi/mpi/cxx/group.h:67:0
	.cfi_startproc
# %bb.0:                                # %L.entry
	#DEBUG_VALUE: ~Group: <- $rdi
	#DEBUG_VALUE: ~Group: <- $rdi
	pushq	%rbp
	.cfi_def_cfa_offset 16
	.cfi_offset %rbp, -16
	movq	%rsp, %rbp
	.cfi_def_cfa_register %rbp
.Ltmp456:
	#DEBUG_VALUE:  <- $rdi
	#DEBUG_VALUE:  <- $rdi
	.loc	17 67 1 prologue_end    # /usr/lib/x86_64-linux-gnu/openmpi/include/openmpi/ompi/mpi/cxx/group.h:67:1
	movq	$_ZTVN3MPI5GroupE+16, (%rdi)
	popq	%rbp
	.cfi_def_cfa %rsp, 8
	retq
.Ltmp457:
.Lfunc_end69:
	.size	_ZN3MPI5GroupD1Ev, .Lfunc_end69-_ZN3MPI5GroupD1Ev
	.cfi_endproc
                                        # -- End function
	.weak	_ZN3MPI5GroupD0Ev       # -- Begin function _ZN3MPI5GroupD0Ev
	.p2align	4, 0x90
	.type	_ZN3MPI5GroupD0Ev,@function
_ZN3MPI5GroupD0Ev:                      # @_ZN3MPI5GroupD0Ev
.Lfunc_begin70:
	.loc	1 0 0                   # sysboundary/outflow.cpp:0:0
	.cfi_startproc
# %bb.0:                                # %L.entry
	pushq	%rbp
	.cfi_def_cfa_offset 16
	.cfi_offset %rbp, -16
	movq	%rsp, %rbp
	.cfi_def_cfa_register %rbp
.Ltmp458:
	.loc	1 67 1 prologue_end     # sysboundary/outflow.cpp:67:1
	movl	$16, %esi
	popq	%rbp
	.cfi_def_cfa %rsp, 8
	jmp	_ZdlPvm                 # TAILCALL
.Ltmp459:
.Lfunc_end70:
	.size	_ZN3MPI5GroupD0Ev, .Lfunc_end70-_ZN3MPI5GroupD0Ev
	.cfi_endproc
                                        # -- End function
	.weak	_ZNK3MPI5Group8Get_sizeEv # -- Begin function _ZNK3MPI5Group8Get_sizeEv
	.p2align	4, 0x90
	.type	_ZNK3MPI5Group8Get_sizeEv,@function
_ZNK3MPI5Group8Get_sizeEv:              # @_ZNK3MPI5Group8Get_sizeEv
.Lfunc_begin71:
	.file	18 "/usr/lib/x86_64-linux-gnu/openmpi/include/openmpi/ompi/mpi/cxx/group_inln.h"
	.loc	18 27 0                 # /usr/lib/x86_64-linux-gnu/openmpi/include/openmpi/ompi/mpi/cxx/group_inln.h:27:0
	.cfi_startproc
# %bb.0:                                # %L.entry
	#DEBUG_VALUE: Get_size: <- $rdi
	#DEBUG_VALUE: Get_size: <- $rdi
	pushq	%rbp
	.cfi_def_cfa_offset 16
	.cfi_offset %rbp, -16
	movq	%rsp, %rbp
	.cfi_def_cfa_register %rbp
	subq	$16, %rsp
.Ltmp460:
	#DEBUG_VALUE:  <- $rdi
	.loc	18 29 1 prologue_end    # /usr/lib/x86_64-linux-gnu/openmpi/include/openmpi/ompi/mpi/cxx/group_inln.h:29:1
	movq	8(%rdi), %rdi
.Ltmp461:
	#DEBUG_VALUE: size <- [DW_OP_constu 4, DW_OP_minus, DW_OP_deref] $rbp
	.loc	18 0 1 is_stmt 0        # /usr/lib/x86_64-linux-gnu/openmpi/include/openmpi/ompi/mpi/cxx/group_inln.h:0:1
	leaq	-4(%rbp), %rsi
	.loc	18 29 1                 # /usr/lib/x86_64-linux-gnu/openmpi/include/openmpi/ompi/mpi/cxx/group_inln.h:29:1
	callq	MPI_Group_size
	.loc	18 30 1 is_stmt 1       # /usr/lib/x86_64-linux-gnu/openmpi/include/openmpi/ompi/mpi/cxx/group_inln.h:30:1
	movl	-4(%rbp), %eax
.Ltmp462:
	#DEBUG_VALUE: size <- $eax
	addq	$16, %rsp
	popq	%rbp
	.cfi_def_cfa %rsp, 8
	retq
.Ltmp463:
.Lfunc_end71:
	.size	_ZNK3MPI5Group8Get_sizeEv, .Lfunc_end71-_ZNK3MPI5Group8Get_sizeEv
	.cfi_endproc
                                        # -- End function
	.weak	_ZNK3MPI5Group8Get_rankEv # -- Begin function _ZNK3MPI5Group8Get_rankEv
	.p2align	4, 0x90
	.type	_ZNK3MPI5Group8Get_rankEv,@function
_ZNK3MPI5Group8Get_rankEv:              # @_ZNK3MPI5Group8Get_rankEv
.Lfunc_begin72:
	.loc	18 35 0                 # /usr/lib/x86_64-linux-gnu/openmpi/include/openmpi/ompi/mpi/cxx/group_inln.h:35:0
	.cfi_startproc
# %bb.0:                                # %L.entry
	#DEBUG_VALUE: Get_rank: <- $rdi
	#DEBUG_VALUE: Get_rank: <- $rdi
	pushq	%rbp
	.cfi_def_cfa_offset 16
	.cfi_offset %rbp, -16
	movq	%rsp, %rbp
	.cfi_def_cfa_register %rbp
	subq	$16, %rsp
.Ltmp464:
	#DEBUG_VALUE:  <- $rdi
	.loc	18 37 1 prologue_end    # /usr/lib/x86_64-linux-gnu/openmpi/include/openmpi/ompi/mpi/cxx/group_inln.h:37:1
	movq	8(%rdi), %rdi
.Ltmp465:
	#DEBUG_VALUE: myrank <- [DW_OP_constu 4, DW_OP_minus, DW_OP_deref] $rbp
	.loc	18 0 1 is_stmt 0        # /usr/lib/x86_64-linux-gnu/openmpi/include/openmpi/ompi/mpi/cxx/group_inln.h:0:1
	leaq	-4(%rbp), %rsi
	.loc	18 37 1                 # /usr/lib/x86_64-linux-gnu/openmpi/include/openmpi/ompi/mpi/cxx/group_inln.h:37:1
	callq	MPI_Group_rank
	.loc	18 38 1 is_stmt 1       # /usr/lib/x86_64-linux-gnu/openmpi/include/openmpi/ompi/mpi/cxx/group_inln.h:38:1
	movl	-4(%rbp), %eax
.Ltmp466:
	#DEBUG_VALUE: myrank <- $eax
	addq	$16, %rsp
	popq	%rbp
	.cfi_def_cfa %rsp, 8
	retq
.Ltmp467:
.Lfunc_end72:
	.size	_ZNK3MPI5Group8Get_rankEv, .Lfunc_end72-_ZNK3MPI5Group8Get_rankEv
	.cfi_endproc
                                        # -- End function
	.weak	_ZNK3MPI5Group4InclEiPKi # -- Begin function _ZNK3MPI5Group4InclEiPKi
	.p2align	4, 0x90
	.type	_ZNK3MPI5Group4InclEiPKi,@function
_ZNK3MPI5Group4InclEiPKi:               # @_ZNK3MPI5Group4InclEiPKi
.Lfunc_begin73:
	.loc	18 83 0                 # /usr/lib/x86_64-linux-gnu/openmpi/include/openmpi/ompi/mpi/cxx/group_inln.h:83:0
	.cfi_startproc
# %bb.0:                                # %L.entry
	#DEBUG_VALUE: Incl: <- $rsi
	#DEBUG_VALUE: Incl:n <- $edx
	#DEBUG_VALUE: Incl:ranks <- $rcx
	pushq	%rbp
	.cfi_def_cfa_offset 16
	.cfi_offset %rbp, -16
	movq	%rsp, %rbp
	.cfi_def_cfa_register %rbp
	pushq	%rbx
	pushq	%rax
	.cfi_offset %rbx, -24
	movq	%rdi, %rbx
.Ltmp468:
	#DEBUG_VALUE:  <- $rsi
	#DEBUG_VALUE: ranks <- $rcx
	#DEBUG_VALUE: n <- $edx
	#DEBUG_VALUE: Incl:ranks <- $rcx
	#DEBUG_VALUE: Incl:n <- $edx
	#DEBUG_VALUE: Incl: <- $rsi
	.loc	18 85 1 prologue_end    # /usr/lib/x86_64-linux-gnu/openmpi/include/openmpi/ompi/mpi/cxx/group_inln.h:85:1
	movq	8(%rsi), %rdi
.Ltmp469:
	#DEBUG_VALUE: newgroup <- [DW_OP_constu 16, DW_OP_minus, DW_OP_deref] $rbp
	.loc	18 0 1 is_stmt 0        # /usr/lib/x86_64-linux-gnu/openmpi/include/openmpi/ompi/mpi/cxx/group_inln.h:0:1
	leaq	-16(%rbp), %rax
	.loc	18 85 1                 # /usr/lib/x86_64-linux-gnu/openmpi/include/openmpi/ompi/mpi/cxx/group_inln.h:85:1
	movl	%edx, %esi
.Ltmp470:
	#DEBUG_VALUE: Incl:n <- $esi
	movq	%rcx, %rdx
.Ltmp471:
	#DEBUG_VALUE: Incl:ranks <- $rdx
	movq	%rax, %rcx
.Ltmp472:
	callq	MPI_Group_incl
.Ltmp473:
	.loc	18 86 1 is_stmt 1       # /usr/lib/x86_64-linux-gnu/openmpi/include/openmpi/ompi/mpi/cxx/group_inln.h:86:1
	movq	-16(%rbp), %rax
.Ltmp474:
	#DEBUG_VALUE: newgroup <- undef
	movq	$_ZTVN3MPI5GroupE+16, (%rbx)
	.loc	18 62 1                 # /usr/lib/x86_64-linux-gnu/openmpi/include/openmpi/ompi/mpi/cxx/group_inln.h:62:1
	movq	%rax, 8(%rbx)
	.loc	18 87 1                 # /usr/lib/x86_64-linux-gnu/openmpi/include/openmpi/ompi/mpi/cxx/group_inln.h:87:1
	movq	%rbx, %rax
	addq	$8, %rsp
	popq	%rbx
	popq	%rbp
	.cfi_def_cfa %rsp, 8
	retq
.Ltmp475:
.Lfunc_end73:
	.size	_ZNK3MPI5Group4InclEiPKi, .Lfunc_end73-_ZNK3MPI5Group4InclEiPKi
	.cfi_endproc
                                        # -- End function
	.weak	_ZNK3MPI5Group4ExclEiPKi # -- Begin function _ZNK3MPI5Group4ExclEiPKi
	.p2align	4, 0x90
	.type	_ZNK3MPI5Group4ExclEiPKi,@function
_ZNK3MPI5Group4ExclEiPKi:               # @_ZNK3MPI5Group4ExclEiPKi
.Lfunc_begin74:
	.loc	18 91 0                 # /usr/lib/x86_64-linux-gnu/openmpi/include/openmpi/ompi/mpi/cxx/group_inln.h:91:0
	.cfi_startproc
# %bb.0:                                # %L.entry
	#DEBUG_VALUE: Excl: <- $rsi
	#DEBUG_VALUE: Excl:n <- $edx
	#DEBUG_VALUE: Excl:ranks <- $rcx
	pushq	%rbp
	.cfi_def_cfa_offset 16
	.cfi_offset %rbp, -16
	movq	%rsp, %rbp
	.cfi_def_cfa_register %rbp
	pushq	%rbx
	pushq	%rax
	.cfi_offset %rbx, -24
	movq	%rdi, %rbx
.Ltmp476:
	#DEBUG_VALUE:  <- $rsi
	#DEBUG_VALUE: ranks <- $rcx
	#DEBUG_VALUE: n <- $edx
	#DEBUG_VALUE: Excl:ranks <- $rcx
	#DEBUG_VALUE: Excl:n <- $edx
	#DEBUG_VALUE: Excl: <- $rsi
	.loc	18 93 1 prologue_end    # /usr/lib/x86_64-linux-gnu/openmpi/include/openmpi/ompi/mpi/cxx/group_inln.h:93:1
	movq	8(%rsi), %rdi
.Ltmp477:
	#DEBUG_VALUE: newgroup <- [DW_OP_constu 16, DW_OP_minus, DW_OP_deref] $rbp
	.loc	18 0 1 is_stmt 0        # /usr/lib/x86_64-linux-gnu/openmpi/include/openmpi/ompi/mpi/cxx/group_inln.h:0:1
	leaq	-16(%rbp), %rax
	.loc	18 93 1                 # /usr/lib/x86_64-linux-gnu/openmpi/include/openmpi/ompi/mpi/cxx/group_inln.h:93:1
	movl	%edx, %esi
.Ltmp478:
	#DEBUG_VALUE: Excl:n <- $esi
	movq	%rcx, %rdx
.Ltmp479:
	#DEBUG_VALUE: Excl:ranks <- $rdx
	movq	%rax, %rcx
.Ltmp480:
	callq	MPI_Group_excl
.Ltmp481:
	.loc	18 94 1 is_stmt 1       # /usr/lib/x86_64-linux-gnu/openmpi/include/openmpi/ompi/mpi/cxx/group_inln.h:94:1
	movq	-16(%rbp), %rax
.Ltmp482:
	#DEBUG_VALUE: newgroup <- undef
	movq	$_ZTVN3MPI5GroupE+16, (%rbx)
	.loc	18 62 1                 # /usr/lib/x86_64-linux-gnu/openmpi/include/openmpi/ompi/mpi/cxx/group_inln.h:62:1
	movq	%rax, 8(%rbx)
	.loc	18 95 1                 # /usr/lib/x86_64-linux-gnu/openmpi/include/openmpi/ompi/mpi/cxx/group_inln.h:95:1
	movq	%rbx, %rax
	addq	$8, %rsp
	popq	%rbx
	popq	%rbp
	.cfi_def_cfa %rsp, 8
	retq
.Ltmp483:
.Lfunc_end74:
	.size	_ZNK3MPI5Group4ExclEiPKi, .Lfunc_end74-_ZNK3MPI5Group4ExclEiPKi
	.cfi_endproc
                                        # -- End function
	.weak	_ZNK3MPI5Group10Range_inclEiPA3_Ki # -- Begin function _ZNK3MPI5Group10Range_inclEiPA3_Ki
	.p2align	4, 0x90
	.type	_ZNK3MPI5Group10Range_inclEiPA3_Ki,@function
_ZNK3MPI5Group10Range_inclEiPA3_Ki:     # @_ZNK3MPI5Group10Range_inclEiPA3_Ki
.Lfunc_begin75:
	.loc	18 99 0                 # /usr/lib/x86_64-linux-gnu/openmpi/include/openmpi/ompi/mpi/cxx/group_inln.h:99:0
	.cfi_startproc
# %bb.0:                                # %L.entry
	#DEBUG_VALUE: Range_incl: <- $rsi
	#DEBUG_VALUE: Range_incl:n <- $edx
	#DEBUG_VALUE: Range_incl:ranges <- $rcx
	pushq	%rbp
	.cfi_def_cfa_offset 16
	.cfi_offset %rbp, -16
	movq	%rsp, %rbp
	.cfi_def_cfa_register %rbp
	pushq	%rbx
	pushq	%rax
	.cfi_offset %rbx, -24
	movq	%rdi, %rbx
.Ltmp484:
	#DEBUG_VALUE:  <- $rsi
	#DEBUG_VALUE: ranges <- $rcx
	#DEBUG_VALUE: n <- $edx
	#DEBUG_VALUE: Range_incl:ranges <- $rcx
	#DEBUG_VALUE: Range_incl:n <- $edx
	#DEBUG_VALUE: Range_incl: <- $rsi
	.loc	18 101 1 prologue_end   # /usr/lib/x86_64-linux-gnu/openmpi/include/openmpi/ompi/mpi/cxx/group_inln.h:101:1
	movq	8(%rsi), %rdi
.Ltmp485:
	#DEBUG_VALUE: newgroup <- [DW_OP_constu 16, DW_OP_minus, DW_OP_deref] $rbp
	.loc	18 0 1 is_stmt 0        # /usr/lib/x86_64-linux-gnu/openmpi/include/openmpi/ompi/mpi/cxx/group_inln.h:0:1
	leaq	-16(%rbp), %rax
	.loc	18 101 1                # /usr/lib/x86_64-linux-gnu/openmpi/include/openmpi/ompi/mpi/cxx/group_inln.h:101:1
	movl	%edx, %esi
.Ltmp486:
	#DEBUG_VALUE: Range_incl:n <- $esi
	movq	%rcx, %rdx
.Ltmp487:
	#DEBUG_VALUE: Range_incl:ranges <- $rdx
	movq	%rax, %rcx
.Ltmp488:
	callq	MPI_Group_range_incl
.Ltmp489:
	.loc	18 108 1 is_stmt 1      # /usr/lib/x86_64-linux-gnu/openmpi/include/openmpi/ompi/mpi/cxx/group_inln.h:108:1
	movq	-16(%rbp), %rax
.Ltmp490:
	#DEBUG_VALUE: newgroup <- undef
	movq	$_ZTVN3MPI5GroupE+16, (%rbx)
	.loc	18 62 1                 # /usr/lib/x86_64-linux-gnu/openmpi/include/openmpi/ompi/mpi/cxx/group_inln.h:62:1
	movq	%rax, 8(%rbx)
	.loc	18 109 1                # /usr/lib/x86_64-linux-gnu/openmpi/include/openmpi/ompi/mpi/cxx/group_inln.h:109:1
	movq	%rbx, %rax
	addq	$8, %rsp
	popq	%rbx
	popq	%rbp
	.cfi_def_cfa %rsp, 8
	retq
.Ltmp491:
.Lfunc_end75:
	.size	_ZNK3MPI5Group10Range_inclEiPA3_Ki, .Lfunc_end75-_ZNK3MPI5Group10Range_inclEiPA3_Ki
	.cfi_endproc
                                        # -- End function
	.weak	_ZNK3MPI5Group10Range_exclEiPA3_Ki # -- Begin function _ZNK3MPI5Group10Range_exclEiPA3_Ki
	.p2align	4, 0x90
	.type	_ZNK3MPI5Group10Range_exclEiPA3_Ki,@function
_ZNK3MPI5Group10Range_exclEiPA3_Ki:     # @_ZNK3MPI5Group10Range_exclEiPA3_Ki
.Lfunc_begin76:
	.loc	18 113 0                # /usr/lib/x86_64-linux-gnu/openmpi/include/openmpi/ompi/mpi/cxx/group_inln.h:113:0
	.cfi_startproc
# %bb.0:                                # %L.entry
	#DEBUG_VALUE: Range_excl: <- $rsi
	#DEBUG_VALUE: Range_excl:n <- $edx
	#DEBUG_VALUE: Range_excl:ranges <- $rcx
	pushq	%rbp
	.cfi_def_cfa_offset 16
	.cfi_offset %rbp, -16
	movq	%rsp, %rbp
	.cfi_def_cfa_register %rbp
	pushq	%rbx
	pushq	%rax
	.cfi_offset %rbx, -24
	movq	%rdi, %rbx
.Ltmp492:
	#DEBUG_VALUE:  <- $rsi
	#DEBUG_VALUE: ranges <- $rcx
	#DEBUG_VALUE: n <- $edx
	#DEBUG_VALUE: Range_excl:ranges <- $rcx
	#DEBUG_VALUE: Range_excl:n <- $edx
	#DEBUG_VALUE: Range_excl: <- $rsi
	.loc	18 115 1 prologue_end   # /usr/lib/x86_64-linux-gnu/openmpi/include/openmpi/ompi/mpi/cxx/group_inln.h:115:1
	movq	8(%rsi), %rdi
.Ltmp493:
	#DEBUG_VALUE: newgroup <- [DW_OP_constu 16, DW_OP_minus, DW_OP_deref] $rbp
	.loc	18 0 1 is_stmt 0        # /usr/lib/x86_64-linux-gnu/openmpi/include/openmpi/ompi/mpi/cxx/group_inln.h:0:1
	leaq	-16(%rbp), %rax
	.loc	18 115 1                # /usr/lib/x86_64-linux-gnu/openmpi/include/openmpi/ompi/mpi/cxx/group_inln.h:115:1
	movl	%edx, %esi
.Ltmp494:
	#DEBUG_VALUE: Range_excl:n <- $esi
	movq	%rcx, %rdx
.Ltmp495:
	#DEBUG_VALUE: Range_excl:ranges <- $rdx
	movq	%rax, %rcx
.Ltmp496:
	callq	MPI_Group_range_excl
.Ltmp497:
	.loc	18 122 1 is_stmt 1      # /usr/lib/x86_64-linux-gnu/openmpi/include/openmpi/ompi/mpi/cxx/group_inln.h:122:1
	movq	-16(%rbp), %rax
.Ltmp498:
	#DEBUG_VALUE: newgroup <- undef
	movq	$_ZTVN3MPI5GroupE+16, (%rbx)
	.loc	18 62 1                 # /usr/lib/x86_64-linux-gnu/openmpi/include/openmpi/ompi/mpi/cxx/group_inln.h:62:1
	movq	%rax, 8(%rbx)
	.loc	18 123 1                # /usr/lib/x86_64-linux-gnu/openmpi/include/openmpi/ompi/mpi/cxx/group_inln.h:123:1
	movq	%rbx, %rax
	addq	$8, %rsp
	popq	%rbx
	popq	%rbp
	.cfi_def_cfa %rsp, 8
	retq
.Ltmp499:
.Lfunc_end76:
	.size	_ZNK3MPI5Group10Range_exclEiPA3_Ki, .Lfunc_end76-_ZNK3MPI5Group10Range_exclEiPA3_Ki
	.cfi_endproc
                                        # -- End function
	.weak	_ZN3MPI5Group4FreeEv    # -- Begin function _ZN3MPI5Group4FreeEv
	.p2align	4, 0x90
	.type	_ZN3MPI5Group4FreeEv,@function
_ZN3MPI5Group4FreeEv:                   # @_ZN3MPI5Group4FreeEv
.Lfunc_begin77:
	.loc	18 127 0                # /usr/lib/x86_64-linux-gnu/openmpi/include/openmpi/ompi/mpi/cxx/group_inln.h:127:0
	.cfi_startproc
# %bb.0:                                # %L.entry
	#DEBUG_VALUE: Free: <- $rdi
	#DEBUG_VALUE: Free: <- $rdi
	pushq	%rbp
	.cfi_def_cfa_offset 16
	.cfi_offset %rbp, -16
	movq	%rsp, %rbp
	.cfi_def_cfa_register %rbp
.Ltmp500:
	#DEBUG_VALUE:  <- $rdi
	#DEBUG_VALUE:  <- $rdi
	.loc	18 128 1 prologue_end   # /usr/lib/x86_64-linux-gnu/openmpi/include/openmpi/ompi/mpi/cxx/group_inln.h:128:1
	addq	$8, %rdi
.Ltmp501:
	popq	%rbp
	.cfi_def_cfa %rsp, 8
	jmp	MPI_Group_free          # TAILCALL
.Ltmp502:
.Lfunc_end77:
	.size	_ZN3MPI5Group4FreeEv, .Lfunc_end77-_ZN3MPI5Group4FreeEv
	.cfi_endproc
                                        # -- End function
	.weak	_ZN3MPI9Comm_NullD1Ev   # -- Begin function _ZN3MPI9Comm_NullD1Ev
	.p2align	4, 0x90
	.type	_ZN3MPI9Comm_NullD1Ev,@function
_ZN3MPI9Comm_NullD1Ev:                  # @_ZN3MPI9Comm_NullD1Ev
.Lfunc_begin78:
	.file	19 "/usr/lib/x86_64-linux-gnu/openmpi/include/openmpi/ompi/mpi/cxx/comm.h"
	.loc	19 69 0                 # /usr/lib/x86_64-linux-gnu/openmpi/include/openmpi/ompi/mpi/cxx/comm.h:69:0
	.cfi_startproc
# %bb.0:                                # %L.entry
	#DEBUG_VALUE: ~Comm_Null: <- $rdi
	#DEBUG_VALUE: ~Comm_Null: <- $rdi
	pushq	%rbp
	.cfi_def_cfa_offset 16
	.cfi_offset %rbp, -16
	movq	%rsp, %rbp
	.cfi_def_cfa_register %rbp
.Ltmp503:
	#DEBUG_VALUE:  <- $rdi
	#DEBUG_VALUE:  <- $rdi
	.loc	19 69 1 prologue_end    # /usr/lib/x86_64-linux-gnu/openmpi/include/openmpi/ompi/mpi/cxx/comm.h:69:1
	movq	$_ZTVN3MPI9Comm_NullE+16, (%rdi)
	popq	%rbp
	.cfi_def_cfa %rsp, 8
	retq
.Ltmp504:
.Lfunc_end78:
	.size	_ZN3MPI9Comm_NullD1Ev, .Lfunc_end78-_ZN3MPI9Comm_NullD1Ev
	.cfi_endproc
                                        # -- End function
	.weak	_ZN3MPI9Comm_NullD0Ev   # -- Begin function _ZN3MPI9Comm_NullD0Ev
	.p2align	4, 0x90
	.type	_ZN3MPI9Comm_NullD0Ev,@function
_ZN3MPI9Comm_NullD0Ev:                  # @_ZN3MPI9Comm_NullD0Ev
.Lfunc_begin79:
	.loc	1 0 0                   # sysboundary/outflow.cpp:0:0
	.cfi_startproc
# %bb.0:                                # %L.entry
	pushq	%rbp
	.cfi_def_cfa_offset 16
	.cfi_offset %rbp, -16
	movq	%rsp, %rbp
	.cfi_def_cfa_register %rbp
.Ltmp505:
	.loc	1 69 1 prologue_end     # sysboundary/outflow.cpp:69:1
	movl	$16, %esi
	popq	%rbp
	.cfi_def_cfa %rsp, 8
	jmp	_ZdlPvm                 # TAILCALL
.Ltmp506:
.Lfunc_end79:
	.size	_ZN3MPI9Comm_NullD0Ev, .Lfunc_end79-_ZN3MPI9Comm_NullD0Ev
	.cfi_endproc
                                        # -- End function
	.weak	_ZNK3MPI4Comm4SendEPKviRKNS_8DatatypeEii # -- Begin function _ZNK3MPI4Comm4SendEPKviRKNS_8DatatypeEii
	.p2align	4, 0x90
	.type	_ZNK3MPI4Comm4SendEPKviRKNS_8DatatypeEii,@function
_ZNK3MPI4Comm4SendEPKviRKNS_8DatatypeEii: # @_ZNK3MPI4Comm4SendEPKviRKNS_8DatatypeEii
.Lfunc_begin80:
	.file	20 "/usr/lib/x86_64-linux-gnu/openmpi/include/openmpi/ompi/mpi/cxx/comm_inln.h"
	.loc	20 29 0                 # /usr/lib/x86_64-linux-gnu/openmpi/include/openmpi/ompi/mpi/cxx/comm_inln.h:29:0
	.cfi_startproc
# %bb.0:                                # %L.entry
	#DEBUG_VALUE: Send: <- $rdi
	#DEBUG_VALUE: Send:buf <- $rsi
	#DEBUG_VALUE: Send:count <- $edx
	#DEBUG_VALUE: Send:datatype <- $rcx
	#DEBUG_VALUE: Send:dest <- $r8d
	#DEBUG_VALUE: Send:tag <- $r9d
	pushq	%rbp
	.cfi_def_cfa_offset 16
	.cfi_offset %rbp, -16
	movq	%rsp, %rbp
	.cfi_def_cfa_register %rbp
.Ltmp507:
	#DEBUG_VALUE:  <- $rdi
	#DEBUG_VALUE: buf <- $rsi
	#DEBUG_VALUE: count <- $edx
	#DEBUG_VALUE: datatype <- $rcx
	#DEBUG_VALUE: dest <- $r8d
	#DEBUG_VALUE: tag <- $r9d
	movl	%r9d, %r10d
.Ltmp508:
	#DEBUG_VALUE: tag <- $r10d
	#DEBUG_VALUE: Send:tag <- $r10d
	#DEBUG_VALUE: dest <- $r8d
	#DEBUG_VALUE: Send:dest <- $r8d
	#DEBUG_VALUE: datatype <- $rcx
	#DEBUG_VALUE: Send:datatype <- $rcx
	#DEBUG_VALUE: count <- $edx
	#DEBUG_VALUE: Send:count <- $edx
	#DEBUG_VALUE: buf <- $rsi
	#DEBUG_VALUE: Send:buf <- $rsi
	#DEBUG_VALUE:  <- $rdi
	#DEBUG_VALUE: Send: <- $rdi
	.loc	20 90 1 prologue_end    # /usr/lib/x86_64-linux-gnu/openmpi/include/openmpi/ompi/mpi/cxx/comm_inln.h:90:1
	movq	8(%rcx), %rax
	movq	8(%rdi), %r9
	movq	%rsi, %rdi
.Ltmp509:
	#DEBUG_VALUE: buf <- $rdi
	#DEBUG_VALUE: Send:buf <- $rdi
	movl	%edx, %esi
.Ltmp510:
	#DEBUG_VALUE: count <- $esi
	#DEBUG_VALUE: Send:count <- $esi
	movq	%rax, %rdx
	movl	%r8d, %ecx
.Ltmp511:
	#DEBUG_VALUE: dest <- $ecx
	#DEBUG_VALUE: Send:dest <- $ecx
	movl	%r10d, %r8d
.Ltmp512:
	#DEBUG_VALUE: tag <- $r8d
	#DEBUG_VALUE: Send:tag <- $r8d
	popq	%rbp
	.cfi_def_cfa %rsp, 8
	jmp	MPI_Send                # TAILCALL
.Ltmp513:
.Lfunc_end80:
	.size	_ZNK3MPI4Comm4SendEPKviRKNS_8DatatypeEii, .Lfunc_end80-_ZNK3MPI4Comm4SendEPKviRKNS_8DatatypeEii
	.cfi_endproc
                                        # -- End function
	.weak	_ZNK3MPI4Comm4RecvEPviRKNS_8DatatypeEiiRNS_6StatusE # -- Begin function _ZNK3MPI4Comm4RecvEPviRKNS_8DatatypeEiiRNS_6StatusE
	.p2align	4, 0x90
	.type	_ZNK3MPI4Comm4RecvEPviRKNS_8DatatypeEiiRNS_6StatusE,@function
_ZNK3MPI4Comm4RecvEPviRKNS_8DatatypeEiiRNS_6StatusE: # @_ZNK3MPI4Comm4RecvEPviRKNS_8DatatypeEiiRNS_6StatusE
.Lfunc_begin81:
	.loc	20 36 0                 # /usr/lib/x86_64-linux-gnu/openmpi/include/openmpi/ompi/mpi/cxx/comm_inln.h:36:0
	.cfi_startproc
# %bb.0:                                # %L.entry
	#DEBUG_VALUE: Recv: <- $rdi
	#DEBUG_VALUE: Recv:buf <- $rsi
	#DEBUG_VALUE: Recv:count <- $edx
	#DEBUG_VALUE: Recv:datatype <- $rcx
	#DEBUG_VALUE: Recv:source <- $r8d
	#DEBUG_VALUE: Recv:tag <- $r9d
	pushq	%rbp
	.cfi_def_cfa_offset 16
	.cfi_offset %rbp, -16
	movq	%rsp, %rbp
	.cfi_def_cfa_register %rbp
	subq	$16, %rsp
.Ltmp514:
	#DEBUG_VALUE:  <- $rdi
	#DEBUG_VALUE: buf <- $rsi
	#DEBUG_VALUE: count <- $edx
	#DEBUG_VALUE: datatype <- $rcx
	#DEBUG_VALUE: source <- $r8d
	#DEBUG_VALUE: tag <- $r9d
	movl	%r9d, %r10d
	movq	%rsi, %r11
	movq	16(%rbp), %rsi
.Ltmp515:
	#DEBUG_VALUE: status <- [DW_OP_plus_uconst 16] [$rbp+0]
	#DEBUG_VALUE: Recv:status <- [DW_OP_plus_uconst 16] [$rbp+0]
	#DEBUG_VALUE: tag <- $r10d
	#DEBUG_VALUE: Recv:tag <- $r10d
	#DEBUG_VALUE: source <- $r8d
	#DEBUG_VALUE: Recv:source <- $r8d
	#DEBUG_VALUE: datatype <- $rcx
	#DEBUG_VALUE: Recv:datatype <- $rcx
	#DEBUG_VALUE: count <- $edx
	#DEBUG_VALUE: Recv:count <- $edx
	#DEBUG_VALUE: buf <- $r11
	#DEBUG_VALUE: Recv:buf <- $r11
	#DEBUG_VALUE:  <- $rdi
	#DEBUG_VALUE: Recv: <- $rdi
	.loc	20 90 1 prologue_end    # /usr/lib/x86_64-linux-gnu/openmpi/include/openmpi/ompi/mpi/cxx/comm_inln.h:90:1
	movq	8(%rcx), %rax
	movq	8(%rdi), %r9
	addq	$8, %rsi
	movq	%rsi, (%rsp)
	movq	%r11, %rdi
.Ltmp516:
	#DEBUG_VALUE: buf <- $rdi
	#DEBUG_VALUE: Recv:buf <- $rdi
	movl	%edx, %esi
.Ltmp517:
	#DEBUG_VALUE: count <- $esi
	#DEBUG_VALUE: Recv:count <- $esi
	movq	%rax, %rdx
	movl	%r8d, %ecx
.Ltmp518:
	#DEBUG_VALUE: source <- $ecx
	#DEBUG_VALUE: Recv:source <- $ecx
	movl	%r10d, %r8d
.Ltmp519:
	#DEBUG_VALUE: tag <- $r8d
	#DEBUG_VALUE: Recv:tag <- $r8d
	callq	MPI_Recv
.Ltmp520:
	.loc	20 38 1                 # /usr/lib/x86_64-linux-gnu/openmpi/include/openmpi/ompi/mpi/cxx/comm_inln.h:38:1
	addq	$16, %rsp
	popq	%rbp
	.cfi_def_cfa %rsp, 8
	retq
.Ltmp521:
.Lfunc_end81:
	.size	_ZNK3MPI4Comm4RecvEPviRKNS_8DatatypeEiiRNS_6StatusE, .Lfunc_end81-_ZNK3MPI4Comm4RecvEPviRKNS_8DatatypeEiiRNS_6StatusE
	.cfi_endproc
                                        # -- End function
	.weak	_ZNK3MPI4Comm4RecvEPviRKNS_8DatatypeEii # -- Begin function _ZNK3MPI4Comm4RecvEPviRKNS_8DatatypeEii
	.p2align	4, 0x90
	.type	_ZNK3MPI4Comm4RecvEPviRKNS_8DatatypeEii,@function
_ZNK3MPI4Comm4RecvEPviRKNS_8DatatypeEii: # @_ZNK3MPI4Comm4RecvEPviRKNS_8DatatypeEii
.Lfunc_begin82:
	.loc	20 43 0                 # /usr/lib/x86_64-linux-gnu/openmpi/include/openmpi/ompi/mpi/cxx/comm_inln.h:43:0
	.cfi_startproc
# %bb.0:                                # %L.entry
	#DEBUG_VALUE: Recv: <- $rdi
	#DEBUG_VALUE: Recv:buf <- $rsi
	#DEBUG_VALUE: Recv:count <- $edx
	#DEBUG_VALUE: Recv:datatype <- $rcx
	#DEBUG_VALUE: Recv:source <- $r8d
	#DEBUG_VALUE: Recv:tag <- $r9d
	pushq	%rbp
	.cfi_def_cfa_offset 16
	.cfi_offset %rbp, -16
	movq	%rsp, %rbp
	.cfi_def_cfa_register %rbp
	subq	$16, %rsp
.Ltmp522:
	#DEBUG_VALUE:  <- $rdi
	#DEBUG_VALUE: buf <- $rsi
	#DEBUG_VALUE: count <- $edx
	#DEBUG_VALUE: datatype <- $rcx
	#DEBUG_VALUE: source <- $r8d
	#DEBUG_VALUE: tag <- $r9d
	movl	%r9d, %r10d
.Ltmp523:
	#DEBUG_VALUE: tag <- $r10d
	#DEBUG_VALUE: Recv:tag <- $r10d
	#DEBUG_VALUE: source <- $r8d
	#DEBUG_VALUE: Recv:source <- $r8d
	#DEBUG_VALUE: datatype <- $rcx
	#DEBUG_VALUE: Recv:datatype <- $rcx
	#DEBUG_VALUE: count <- $edx
	#DEBUG_VALUE: Recv:count <- $edx
	#DEBUG_VALUE: buf <- $rsi
	#DEBUG_VALUE: Recv:buf <- $rsi
	#DEBUG_VALUE:  <- $rdi
	#DEBUG_VALUE: Recv: <- $rdi
	.loc	20 90 1 prologue_end    # /usr/lib/x86_64-linux-gnu/openmpi/include/openmpi/ompi/mpi/cxx/comm_inln.h:90:1
	movq	8(%rcx), %rax
	movq	8(%rdi), %r9
	movq	$0, (%rsp)
	movq	%rsi, %rdi
.Ltmp524:
	#DEBUG_VALUE: buf <- $rdi
	#DEBUG_VALUE: Recv:buf <- $rdi
	movl	%edx, %esi
.Ltmp525:
	#DEBUG_VALUE: count <- $esi
	#DEBUG_VALUE: Recv:count <- $esi
	movq	%rax, %rdx
	movl	%r8d, %ecx
.Ltmp526:
	#DEBUG_VALUE: source <- $ecx
	#DEBUG_VALUE: Recv:source <- $ecx
	movl	%r10d, %r8d
.Ltmp527:
	#DEBUG_VALUE: tag <- $r8d
	#DEBUG_VALUE: Recv:tag <- $r8d
	callq	MPI_Recv
.Ltmp528:
	.loc	20 46 1                 # /usr/lib/x86_64-linux-gnu/openmpi/include/openmpi/ompi/mpi/cxx/comm_inln.h:46:1
	addq	$16, %rsp
	popq	%rbp
	.cfi_def_cfa %rsp, 8
	retq
.Ltmp529:
.Lfunc_end82:
	.size	_ZNK3MPI4Comm4RecvEPviRKNS_8DatatypeEii, .Lfunc_end82-_ZNK3MPI4Comm4RecvEPviRKNS_8DatatypeEii
	.cfi_endproc
                                        # -- End function
	.weak	_ZNK3MPI4Comm5BsendEPKviRKNS_8DatatypeEii # -- Begin function _ZNK3MPI4Comm5BsendEPKviRKNS_8DatatypeEii
	.p2align	4, 0x90
	.type	_ZNK3MPI4Comm5BsendEPKviRKNS_8DatatypeEii,@function
_ZNK3MPI4Comm5BsendEPKviRKNS_8DatatypeEii: # @_ZNK3MPI4Comm5BsendEPKviRKNS_8DatatypeEii
.Lfunc_begin83:
	.loc	20 51 0                 # /usr/lib/x86_64-linux-gnu/openmpi/include/openmpi/ompi/mpi/cxx/comm_inln.h:51:0
	.cfi_startproc
# %bb.0:                                # %L.entry
	#DEBUG_VALUE: Bsend: <- $rdi
	#DEBUG_VALUE: Bsend:buf <- $rsi
	#DEBUG_VALUE: Bsend:count <- $edx
	#DEBUG_VALUE: Bsend:datatype <- $rcx
	#DEBUG_VALUE: Bsend:dest <- $r8d
	#DEBUG_VALUE: Bsend:tag <- $r9d
	pushq	%rbp
	.cfi_def_cfa_offset 16
	.cfi_offset %rbp, -16
	movq	%rsp, %rbp
	.cfi_def_cfa_register %rbp
.Ltmp530:
	#DEBUG_VALUE:  <- $rdi
	#DEBUG_VALUE: buf <- $rsi
	#DEBUG_VALUE: count <- $edx
	#DEBUG_VALUE: datatype <- $rcx
	#DEBUG_VALUE: dest <- $r8d
	#DEBUG_VALUE: tag <- $r9d
	movl	%r9d, %r10d
.Ltmp531:
	#DEBUG_VALUE: tag <- $r10d
	#DEBUG_VALUE: Bsend:tag <- $r10d
	#DEBUG_VALUE: dest <- $r8d
	#DEBUG_VALUE: Bsend:dest <- $r8d
	#DEBUG_VALUE: datatype <- $rcx
	#DEBUG_VALUE: Bsend:datatype <- $rcx
	#DEBUG_VALUE: count <- $edx
	#DEBUG_VALUE: Bsend:count <- $edx
	#DEBUG_VALUE: buf <- $rsi
	#DEBUG_VALUE: Bsend:buf <- $rsi
	#DEBUG_VALUE:  <- $rdi
	#DEBUG_VALUE: Bsend: <- $rdi
	.loc	20 90 1 prologue_end    # /usr/lib/x86_64-linux-gnu/openmpi/include/openmpi/ompi/mpi/cxx/comm_inln.h:90:1
	movq	8(%rcx), %rax
	movq	8(%rdi), %r9
	movq	%rsi, %rdi
.Ltmp532:
	#DEBUG_VALUE: buf <- $rdi
	#DEBUG_VALUE: Bsend:buf <- $rdi
	movl	%edx, %esi
.Ltmp533:
	#DEBUG_VALUE: count <- $esi
	#DEBUG_VALUE: Bsend:count <- $esi
	movq	%rax, %rdx
	movl	%r8d, %ecx
.Ltmp534:
	#DEBUG_VALUE: dest <- $ecx
	#DEBUG_VALUE: Bsend:dest <- $ecx
	movl	%r10d, %r8d
.Ltmp535:
	#DEBUG_VALUE: tag <- $r8d
	#DEBUG_VALUE: Bsend:tag <- $r8d
	popq	%rbp
	.cfi_def_cfa %rsp, 8
	jmp	MPI_Bsend               # TAILCALL
.Ltmp536:
.Lfunc_end83:
	.size	_ZNK3MPI4Comm5BsendEPKviRKNS_8DatatypeEii, .Lfunc_end83-_ZNK3MPI4Comm5BsendEPKviRKNS_8DatatypeEii
	.cfi_endproc
                                        # -- End function
	.weak	_ZNK3MPI4Comm5SsendEPKviRKNS_8DatatypeEii # -- Begin function _ZNK3MPI4Comm5SsendEPKviRKNS_8DatatypeEii
	.p2align	4, 0x90
	.type	_ZNK3MPI4Comm5SsendEPKviRKNS_8DatatypeEii,@function
_ZNK3MPI4Comm5SsendEPKviRKNS_8DatatypeEii: # @_ZNK3MPI4Comm5SsendEPKviRKNS_8DatatypeEii
.Lfunc_begin84:
	.loc	20 59 0                 # /usr/lib/x86_64-linux-gnu/openmpi/include/openmpi/ompi/mpi/cxx/comm_inln.h:59:0
	.cfi_startproc
# %bb.0:                                # %L.entry
	#DEBUG_VALUE: Ssend: <- $rdi
	#DEBUG_VALUE: Ssend:buf <- $rsi
	#DEBUG_VALUE: Ssend:count <- $edx
	#DEBUG_VALUE: Ssend:datatype <- $rcx
	#DEBUG_VALUE: Ssend:dest <- $r8d
	#DEBUG_VALUE: Ssend:tag <- $r9d
	pushq	%rbp
	.cfi_def_cfa_offset 16
	.cfi_offset %rbp, -16
	movq	%rsp, %rbp
	.cfi_def_cfa_register %rbp
.Ltmp537:
	#DEBUG_VALUE:  <- $rdi
	#DEBUG_VALUE: buf <- $rsi
	#DEBUG_VALUE: count <- $edx
	#DEBUG_VALUE: datatype <- $rcx
	#DEBUG_VALUE: dest <- $r8d
	#DEBUG_VALUE: tag <- $r9d
	movl	%r9d, %r10d
.Ltmp538:
	#DEBUG_VALUE: tag <- $r10d
	#DEBUG_VALUE: Ssend:tag <- $r10d
	#DEBUG_VALUE: dest <- $r8d
	#DEBUG_VALUE: Ssend:dest <- $r8d
	#DEBUG_VALUE: datatype <- $rcx
	#DEBUG_VALUE: Ssend:datatype <- $rcx
	#DEBUG_VALUE: count <- $edx
	#DEBUG_VALUE: Ssend:count <- $edx
	#DEBUG_VALUE: buf <- $rsi
	#DEBUG_VALUE: Ssend:buf <- $rsi
	#DEBUG_VALUE:  <- $rdi
	#DEBUG_VALUE: Ssend: <- $rdi
	.loc	20 90 1 prologue_end    # /usr/lib/x86_64-linux-gnu/openmpi/include/openmpi/ompi/mpi/cxx/comm_inln.h:90:1
	movq	8(%rcx), %rax
	movq	8(%rdi), %r9
	movq	%rsi, %rdi
.Ltmp539:
	#DEBUG_VALUE: buf <- $rdi
	#DEBUG_VALUE: Ssend:buf <- $rdi
	movl	%edx, %esi
.Ltmp540:
	#DEBUG_VALUE: count <- $esi
	#DEBUG_VALUE: Ssend:count <- $esi
	movq	%rax, %rdx
	movl	%r8d, %ecx
.Ltmp541:
	#DEBUG_VALUE: dest <- $ecx
	#DEBUG_VALUE: Ssend:dest <- $ecx
	movl	%r10d, %r8d
.Ltmp542:
	#DEBUG_VALUE: tag <- $r8d
	#DEBUG_VALUE: Ssend:tag <- $r8d
	popq	%rbp
	.cfi_def_cfa %rsp, 8
	jmp	MPI_Ssend               # TAILCALL
.Ltmp543:
.Lfunc_end84:
	.size	_ZNK3MPI4Comm5SsendEPKviRKNS_8DatatypeEii, .Lfunc_end84-_ZNK3MPI4Comm5SsendEPKviRKNS_8DatatypeEii
	.cfi_endproc
                                        # -- End function
	.weak	_ZNK3MPI4Comm5RsendEPKviRKNS_8DatatypeEii # -- Begin function _ZNK3MPI4Comm5RsendEPKviRKNS_8DatatypeEii
	.p2align	4, 0x90
	.type	_ZNK3MPI4Comm5RsendEPKviRKNS_8DatatypeEii,@function
_ZNK3MPI4Comm5RsendEPKviRKNS_8DatatypeEii: # @_ZNK3MPI4Comm5RsendEPKviRKNS_8DatatypeEii
.Lfunc_begin85:
	.loc	20 67 0                 # /usr/lib/x86_64-linux-gnu/openmpi/include/openmpi/ompi/mpi/cxx/comm_inln.h:67:0
	.cfi_startproc
# %bb.0:                                # %L.entry
	#DEBUG_VALUE: Rsend: <- $rdi
	#DEBUG_VALUE: Rsend:buf <- $rsi
	#DEBUG_VALUE: Rsend:count <- $edx
	#DEBUG_VALUE: Rsend:datatype <- $rcx
	#DEBUG_VALUE: Rsend:dest <- $r8d
	#DEBUG_VALUE: Rsend:tag <- $r9d
	pushq	%rbp
	.cfi_def_cfa_offset 16
	.cfi_offset %rbp, -16
	movq	%rsp, %rbp
	.cfi_def_cfa_register %rbp
.Ltmp544:
	#DEBUG_VALUE:  <- $rdi
	#DEBUG_VALUE: buf <- $rsi
	#DEBUG_VALUE: count <- $edx
	#DEBUG_VALUE: datatype <- $rcx
	#DEBUG_VALUE: dest <- $r8d
	#DEBUG_VALUE: tag <- $r9d
	movl	%r9d, %r10d
.Ltmp545:
	#DEBUG_VALUE: tag <- $r10d
	#DEBUG_VALUE: Rsend:tag <- $r10d
	#DEBUG_VALUE: dest <- $r8d
	#DEBUG_VALUE: Rsend:dest <- $r8d
	#DEBUG_VALUE: datatype <- $rcx
	#DEBUG_VALUE: Rsend:datatype <- $rcx
	#DEBUG_VALUE: count <- $edx
	#DEBUG_VALUE: Rsend:count <- $edx
	#DEBUG_VALUE: buf <- $rsi
	#DEBUG_VALUE: Rsend:buf <- $rsi
	#DEBUG_VALUE:  <- $rdi
	#DEBUG_VALUE: Rsend: <- $rdi
	.loc	20 90 1 prologue_end    # /usr/lib/x86_64-linux-gnu/openmpi/include/openmpi/ompi/mpi/cxx/comm_inln.h:90:1
	movq	8(%rcx), %rax
	movq	8(%rdi), %r9
	movq	%rsi, %rdi
.Ltmp546:
	#DEBUG_VALUE: buf <- $rdi
	#DEBUG_VALUE: Rsend:buf <- $rdi
	movl	%edx, %esi
.Ltmp547:
	#DEBUG_VALUE: count <- $esi
	#DEBUG_VALUE: Rsend:count <- $esi
	movq	%rax, %rdx
	movl	%r8d, %ecx
.Ltmp548:
	#DEBUG_VALUE: dest <- $ecx
	#DEBUG_VALUE: Rsend:dest <- $ecx
	movl	%r10d, %r8d
.Ltmp549:
	#DEBUG_VALUE: tag <- $r8d
	#DEBUG_VALUE: Rsend:tag <- $r8d
	popq	%rbp
	.cfi_def_cfa %rsp, 8
	jmp	MPI_Rsend               # TAILCALL
.Ltmp550:
.Lfunc_end85:
	.size	_ZNK3MPI4Comm5RsendEPKviRKNS_8DatatypeEii, .Lfunc_end85-_ZNK3MPI4Comm5RsendEPKviRKNS_8DatatypeEii
	.cfi_endproc
                                        # -- End function
	.weak	_ZNK3MPI4Comm5IsendEPKviRKNS_8DatatypeEii # -- Begin function _ZNK3MPI4Comm5IsendEPKviRKNS_8DatatypeEii
	.p2align	4, 0x90
	.type	_ZNK3MPI4Comm5IsendEPKviRKNS_8DatatypeEii,@function
_ZNK3MPI4Comm5IsendEPKviRKNS_8DatatypeEii: # @_ZNK3MPI4Comm5IsendEPKviRKNS_8DatatypeEii
.Lfunc_begin86:
	.loc	20 75 0                 # /usr/lib/x86_64-linux-gnu/openmpi/include/openmpi/ompi/mpi/cxx/comm_inln.h:75:0
	.cfi_startproc
# %bb.0:                                # %L.entry
	#DEBUG_VALUE: Isend: <- $rsi
	#DEBUG_VALUE: Isend:buf <- $rdx
	#DEBUG_VALUE: Isend:count <- $ecx
	#DEBUG_VALUE: Isend:datatype <- $r8
	#DEBUG_VALUE: Isend:dest <- $r9d
	pushq	%rbp
	.cfi_def_cfa_offset 16
	.cfi_offset %rbp, -16
	movq	%rsp, %rbp
	.cfi_def_cfa_register %rbp
	pushq	%rbx
	subq	$24, %rsp
	.cfi_offset %rbx, -24
	movl	%r9d, %r11d
	movq	%rdx, %rax
	movq	%rdi, %rbx
	movl	16(%rbp), %r10d
.Ltmp551:
	#DEBUG_VALUE: datatype <- $r8
	#DEBUG_VALUE:  <- $rsi
	#DEBUG_VALUE: tag <- $r10d
	#DEBUG_VALUE: dest <- $r11d
	#DEBUG_VALUE: count <- $ecx
	#DEBUG_VALUE: buf <- $rax
	#DEBUG_VALUE: Isend:tag <- [DW_OP_plus_uconst 16] [$rbp+0]
	#DEBUG_VALUE: Isend:dest <- $r11d
	#DEBUG_VALUE: Isend:datatype <- $r8
	#DEBUG_VALUE: Isend:count <- $ecx
	#DEBUG_VALUE: Isend:buf <- $rax
	#DEBUG_VALUE: Isend: <- $rsi
	.loc	20 90 1 prologue_end    # /usr/lib/x86_64-linux-gnu/openmpi/include/openmpi/ompi/mpi/cxx/comm_inln.h:90:1
	movq	8(%r8), %rdx
	movq	8(%rsi), %r9
.Ltmp552:
	#DEBUG_VALUE: request <- [DW_OP_constu 16, DW_OP_minus, DW_OP_deref] $rbp
	.loc	20 0 1 is_stmt 0        # /usr/lib/x86_64-linux-gnu/openmpi/include/openmpi/ompi/mpi/cxx/comm_inln.h:0:1
	leaq	-16(%rbp), %rsi
.Ltmp553:
	.loc	20 90 1                 # /usr/lib/x86_64-linux-gnu/openmpi/include/openmpi/ompi/mpi/cxx/comm_inln.h:90:1
	movq	%rsi, (%rsp)
	movq	%rax, %rdi
.Ltmp554:
	#DEBUG_VALUE: Isend:buf <- $rdi
	movl	%ecx, %esi
.Ltmp555:
	#DEBUG_VALUE: Isend:count <- $esi
	movl	%r11d, %ecx
.Ltmp556:
	#DEBUG_VALUE: Isend:dest <- $ecx
	movl	%r10d, %r8d
.Ltmp557:
	callq	MPI_Isend
.Ltmp558:
	.loc	20 79 1 is_stmt 1       # /usr/lib/x86_64-linux-gnu/openmpi/include/openmpi/ompi/mpi/cxx/comm_inln.h:79:1
	movq	-16(%rbp), %rax
.Ltmp559:
	#DEBUG_VALUE: request <- undef
	movq	$_ZTVN3MPI7RequestE+16, (%rbx)
	.loc	20 62 1                 # /usr/lib/x86_64-linux-gnu/openmpi/include/openmpi/ompi/mpi/cxx/comm_inln.h:62:1
	movq	%rax, 8(%rbx)
	.loc	20 80 1                 # /usr/lib/x86_64-linux-gnu/openmpi/include/openmpi/ompi/mpi/cxx/comm_inln.h:80:1
	movq	%rbx, %rax
	addq	$24, %rsp
	popq	%rbx
	popq	%rbp
	.cfi_def_cfa %rsp, 8
	retq
.Ltmp560:
.Lfunc_end86:
	.size	_ZNK3MPI4Comm5IsendEPKviRKNS_8DatatypeEii, .Lfunc_end86-_ZNK3MPI4Comm5IsendEPKviRKNS_8DatatypeEii
	.cfi_endproc
                                        # -- End function
	.weak	_ZNK3MPI4Comm6IbsendEPKviRKNS_8DatatypeEii # -- Begin function _ZNK3MPI4Comm6IbsendEPKviRKNS_8DatatypeEii
	.p2align	4, 0x90
	.type	_ZNK3MPI4Comm6IbsendEPKviRKNS_8DatatypeEii,@function
_ZNK3MPI4Comm6IbsendEPKviRKNS_8DatatypeEii: # @_ZNK3MPI4Comm6IbsendEPKviRKNS_8DatatypeEii
.Lfunc_begin87:
	.loc	20 85 0                 # /usr/lib/x86_64-linux-gnu/openmpi/include/openmpi/ompi/mpi/cxx/comm_inln.h:85:0
	.cfi_startproc
# %bb.0:                                # %L.entry
	#DEBUG_VALUE: Ibsend: <- $rsi
	#DEBUG_VALUE: Ibsend:buf <- $rdx
	#DEBUG_VALUE: Ibsend:count <- $ecx
	#DEBUG_VALUE: Ibsend:datatype <- $r8
	#DEBUG_VALUE: Ibsend:dest <- $r9d
	pushq	%rbp
	.cfi_def_cfa_offset 16
	.cfi_offset %rbp, -16
	movq	%rsp, %rbp
	.cfi_def_cfa_register %rbp
	pushq	%rbx
	subq	$24, %rsp
	.cfi_offset %rbx, -24
	movl	%r9d, %r11d
	movq	%rdx, %rax
	movq	%rdi, %rbx
	movl	16(%rbp), %r10d
.Ltmp561:
	#DEBUG_VALUE: datatype <- $r8
	#DEBUG_VALUE:  <- $rsi
	#DEBUG_VALUE: tag <- $r10d
	#DEBUG_VALUE: dest <- $r11d
	#DEBUG_VALUE: count <- $ecx
	#DEBUG_VALUE: buf <- $rax
	#DEBUG_VALUE: Ibsend:tag <- [DW_OP_plus_uconst 16] [$rbp+0]
	#DEBUG_VALUE: Ibsend:dest <- $r11d
	#DEBUG_VALUE: Ibsend:datatype <- $r8
	#DEBUG_VALUE: Ibsend:count <- $ecx
	#DEBUG_VALUE: Ibsend:buf <- $rax
	#DEBUG_VALUE: Ibsend: <- $rsi
	.loc	20 90 1 prologue_end    # /usr/lib/x86_64-linux-gnu/openmpi/include/openmpi/ompi/mpi/cxx/comm_inln.h:90:1
	movq	8(%r8), %rdx
	movq	8(%rsi), %r9
.Ltmp562:
	#DEBUG_VALUE: request <- [DW_OP_constu 16, DW_OP_minus, DW_OP_deref] $rbp
	.loc	20 0 1 is_stmt 0        # /usr/lib/x86_64-linux-gnu/openmpi/include/openmpi/ompi/mpi/cxx/comm_inln.h:0:1
	leaq	-16(%rbp), %rsi
.Ltmp563:
	.loc	20 90 1                 # /usr/lib/x86_64-linux-gnu/openmpi/include/openmpi/ompi/mpi/cxx/comm_inln.h:90:1
	movq	%rsi, (%rsp)
	movq	%rax, %rdi
.Ltmp564:
	#DEBUG_VALUE: Ibsend:buf <- $rdi
	movl	%ecx, %esi
.Ltmp565:
	#DEBUG_VALUE: Ibsend:count <- $esi
	movl	%r11d, %ecx
.Ltmp566:
	#DEBUG_VALUE: Ibsend:dest <- $ecx
	movl	%r10d, %r8d
.Ltmp567:
	callq	MPI_Ibsend
.Ltmp568:
	.loc	20 89 1 is_stmt 1       # /usr/lib/x86_64-linux-gnu/openmpi/include/openmpi/ompi/mpi/cxx/comm_inln.h:89:1
	movq	-16(%rbp), %rax
.Ltmp569:
	#DEBUG_VALUE: request <- undef
	movq	$_ZTVN3MPI7RequestE+16, (%rbx)
	.loc	20 62 1                 # /usr/lib/x86_64-linux-gnu/openmpi/include/openmpi/ompi/mpi/cxx/comm_inln.h:62:1
	movq	%rax, 8(%rbx)
	.loc	20 90 1                 # /usr/lib/x86_64-linux-gnu/openmpi/include/openmpi/ompi/mpi/cxx/comm_inln.h:90:1
	movq	%rbx, %rax
	addq	$24, %rsp
	popq	%rbx
	popq	%rbp
	.cfi_def_cfa %rsp, 8
	retq
.Ltmp570:
.Lfunc_end87:
	.size	_ZNK3MPI4Comm6IbsendEPKviRKNS_8DatatypeEii, .Lfunc_end87-_ZNK3MPI4Comm6IbsendEPKviRKNS_8DatatypeEii
	.cfi_endproc
                                        # -- End function
	.weak	_ZNK3MPI4Comm6IssendEPKviRKNS_8DatatypeEii # -- Begin function _ZNK3MPI4Comm6IssendEPKviRKNS_8DatatypeEii
	.p2align	4, 0x90
	.type	_ZNK3MPI4Comm6IssendEPKviRKNS_8DatatypeEii,@function
_ZNK3MPI4Comm6IssendEPKviRKNS_8DatatypeEii: # @_ZNK3MPI4Comm6IssendEPKviRKNS_8DatatypeEii
.Lfunc_begin88:
	.loc	20 95 0                 # /usr/lib/x86_64-linux-gnu/openmpi/include/openmpi/ompi/mpi/cxx/comm_inln.h:95:0
	.cfi_startproc
# %bb.0:                                # %L.entry
	#DEBUG_VALUE: Issend: <- $rsi
	#DEBUG_VALUE: Issend:buf <- $rdx
	#DEBUG_VALUE: Issend:count <- $ecx
	#DEBUG_VALUE: Issend:datatype <- $r8
	#DEBUG_VALUE: Issend:dest <- $r9d
	pushq	%rbp
	.cfi_def_cfa_offset 16
	.cfi_offset %rbp, -16
	movq	%rsp, %rbp
	.cfi_def_cfa_register %rbp
	pushq	%rbx
	subq	$24, %rsp
	.cfi_offset %rbx, -24
	movl	%r9d, %r11d
	movq	%rdx, %rax
	movq	%rdi, %rbx
	movl	16(%rbp), %r10d
.Ltmp571:
	#DEBUG_VALUE: datatype <- $r8
	#DEBUG_VALUE:  <- $rsi
	#DEBUG_VALUE: tag <- $r10d
	#DEBUG_VALUE: dest <- $r11d
	#DEBUG_VALUE: count <- $ecx
	#DEBUG_VALUE: buf <- $rax
	#DEBUG_VALUE: Issend:tag <- [DW_OP_plus_uconst 16] [$rbp+0]
	#DEBUG_VALUE: Issend:dest <- $r11d
	#DEBUG_VALUE: Issend:datatype <- $r8
	#DEBUG_VALUE: Issend:count <- $ecx
	#DEBUG_VALUE: Issend:buf <- $rax
	#DEBUG_VALUE: Issend: <- $rsi
	.loc	20 90 1 prologue_end    # /usr/lib/x86_64-linux-gnu/openmpi/include/openmpi/ompi/mpi/cxx/comm_inln.h:90:1
	movq	8(%r8), %rdx
	movq	8(%rsi), %r9
.Ltmp572:
	#DEBUG_VALUE: request <- [DW_OP_constu 16, DW_OP_minus, DW_OP_deref] $rbp
	.loc	20 0 1 is_stmt 0        # /usr/lib/x86_64-linux-gnu/openmpi/include/openmpi/ompi/mpi/cxx/comm_inln.h:0:1
	leaq	-16(%rbp), %rsi
.Ltmp573:
	.loc	20 90 1                 # /usr/lib/x86_64-linux-gnu/openmpi/include/openmpi/ompi/mpi/cxx/comm_inln.h:90:1
	movq	%rsi, (%rsp)
	movq	%rax, %rdi
.Ltmp574:
	#DEBUG_VALUE: Issend:buf <- $rdi
	movl	%ecx, %esi
.Ltmp575:
	#DEBUG_VALUE: Issend:count <- $esi
	movl	%r11d, %ecx
.Ltmp576:
	#DEBUG_VALUE: Issend:dest <- $ecx
	movl	%r10d, %r8d
.Ltmp577:
	callq	MPI_Issend
.Ltmp578:
	.loc	20 99 1 is_stmt 1       # /usr/lib/x86_64-linux-gnu/openmpi/include/openmpi/ompi/mpi/cxx/comm_inln.h:99:1
	movq	-16(%rbp), %rax
.Ltmp579:
	#DEBUG_VALUE: request <- undef
	movq	$_ZTVN3MPI7RequestE+16, (%rbx)
	.loc	20 62 1                 # /usr/lib/x86_64-linux-gnu/openmpi/include/openmpi/ompi/mpi/cxx/comm_inln.h:62:1
	movq	%rax, 8(%rbx)
	.loc	20 100 1                # /usr/lib/x86_64-linux-gnu/openmpi/include/openmpi/ompi/mpi/cxx/comm_inln.h:100:1
	movq	%rbx, %rax
	addq	$24, %rsp
	popq	%rbx
	popq	%rbp
	.cfi_def_cfa %rsp, 8
	retq
.Ltmp580:
.Lfunc_end88:
	.size	_ZNK3MPI4Comm6IssendEPKviRKNS_8DatatypeEii, .Lfunc_end88-_ZNK3MPI4Comm6IssendEPKviRKNS_8DatatypeEii
	.cfi_endproc
                                        # -- End function
	.weak	_ZNK3MPI4Comm6IrsendEPKviRKNS_8DatatypeEii # -- Begin function _ZNK3MPI4Comm6IrsendEPKviRKNS_8DatatypeEii
	.p2align	4, 0x90
	.type	_ZNK3MPI4Comm6IrsendEPKviRKNS_8DatatypeEii,@function
_ZNK3MPI4Comm6IrsendEPKviRKNS_8DatatypeEii: # @_ZNK3MPI4Comm6IrsendEPKviRKNS_8DatatypeEii
.Lfunc_begin89:
	.loc	20 105 0                # /usr/lib/x86_64-linux-gnu/openmpi/include/openmpi/ompi/mpi/cxx/comm_inln.h:105:0
	.cfi_startproc
# %bb.0:                                # %L.entry
	#DEBUG_VALUE: Irsend: <- $rsi
	#DEBUG_VALUE: Irsend:buf <- $rdx
	#DEBUG_VALUE: Irsend:count <- $ecx
	#DEBUG_VALUE: Irsend:datatype <- $r8
	#DEBUG_VALUE: Irsend:dest <- $r9d
	pushq	%rbp
	.cfi_def_cfa_offset 16
	.cfi_offset %rbp, -16
	movq	%rsp, %rbp
	.cfi_def_cfa_register %rbp
	pushq	%rbx
	subq	$24, %rsp
	.cfi_offset %rbx, -24
	movl	%r9d, %r11d
	movq	%rdx, %rax
	movq	%rdi, %rbx
	movl	16(%rbp), %r10d
.Ltmp581:
	#DEBUG_VALUE: datatype <- $r8
	#DEBUG_VALUE:  <- $rsi
	#DEBUG_VALUE: tag <- $r10d
	#DEBUG_VALUE: dest <- $r11d
	#DEBUG_VALUE: count <- $ecx
	#DEBUG_VALUE: buf <- $rax
	#DEBUG_VALUE: Irsend:tag <- [DW_OP_plus_uconst 16] [$rbp+0]
	#DEBUG_VALUE: Irsend:dest <- $r11d
	#DEBUG_VALUE: Irsend:datatype <- $r8
	#DEBUG_VALUE: Irsend:count <- $ecx
	#DEBUG_VALUE: Irsend:buf <- $rax
	#DEBUG_VALUE: Irsend: <- $rsi
	.loc	20 90 1 prologue_end    # /usr/lib/x86_64-linux-gnu/openmpi/include/openmpi/ompi/mpi/cxx/comm_inln.h:90:1
	movq	8(%r8), %rdx
	movq	8(%rsi), %r9
.Ltmp582:
	#DEBUG_VALUE: request <- [DW_OP_constu 16, DW_OP_minus, DW_OP_deref] $rbp
	.loc	20 0 1 is_stmt 0        # /usr/lib/x86_64-linux-gnu/openmpi/include/openmpi/ompi/mpi/cxx/comm_inln.h:0:1
	leaq	-16(%rbp), %rsi
.Ltmp583:
	.loc	20 90 1                 # /usr/lib/x86_64-linux-gnu/openmpi/include/openmpi/ompi/mpi/cxx/comm_inln.h:90:1
	movq	%rsi, (%rsp)
	movq	%rax, %rdi
.Ltmp584:
	#DEBUG_VALUE: Irsend:buf <- $rdi
	movl	%ecx, %esi
.Ltmp585:
	#DEBUG_VALUE: Irsend:count <- $esi
	movl	%r11d, %ecx
.Ltmp586:
	#DEBUG_VALUE: Irsend:dest <- $ecx
	movl	%r10d, %r8d
.Ltmp587:
	callq	MPI_Irsend
.Ltmp588:
	.loc	20 109 1 is_stmt 1      # /usr/lib/x86_64-linux-gnu/openmpi/include/openmpi/ompi/mpi/cxx/comm_inln.h:109:1
	movq	-16(%rbp), %rax
.Ltmp589:
	#DEBUG_VALUE: request <- undef
	movq	$_ZTVN3MPI7RequestE+16, (%rbx)
	.loc	20 62 1                 # /usr/lib/x86_64-linux-gnu/openmpi/include/openmpi/ompi/mpi/cxx/comm_inln.h:62:1
	movq	%rax, 8(%rbx)
	.loc	20 110 1                # /usr/lib/x86_64-linux-gnu/openmpi/include/openmpi/ompi/mpi/cxx/comm_inln.h:110:1
	movq	%rbx, %rax
	addq	$24, %rsp
	popq	%rbx
	popq	%rbp
	.cfi_def_cfa %rsp, 8
	retq
.Ltmp590:
.Lfunc_end89:
	.size	_ZNK3MPI4Comm6IrsendEPKviRKNS_8DatatypeEii, .Lfunc_end89-_ZNK3MPI4Comm6IrsendEPKviRKNS_8DatatypeEii
	.cfi_endproc
                                        # -- End function
	.weak	_ZNK3MPI4Comm5IrecvEPviRKNS_8DatatypeEii # -- Begin function _ZNK3MPI4Comm5IrecvEPviRKNS_8DatatypeEii
	.p2align	4, 0x90
	.type	_ZNK3MPI4Comm5IrecvEPviRKNS_8DatatypeEii,@function
_ZNK3MPI4Comm5IrecvEPviRKNS_8DatatypeEii: # @_ZNK3MPI4Comm5IrecvEPviRKNS_8DatatypeEii
.Lfunc_begin90:
	.loc	20 115 0                # /usr/lib/x86_64-linux-gnu/openmpi/include/openmpi/ompi/mpi/cxx/comm_inln.h:115:0
	.cfi_startproc
# %bb.0:                                # %L.entry
	#DEBUG_VALUE: Irecv: <- $rsi
	#DEBUG_VALUE: Irecv:buf <- $rdx
	#DEBUG_VALUE: Irecv:count <- $ecx
	#DEBUG_VALUE: Irecv:datatype <- $r8
	#DEBUG_VALUE: Irecv:source <- $r9d
	pushq	%rbp
	.cfi_def_cfa_offset 16
	.cfi_offset %rbp, -16
	movq	%rsp, %rbp
	.cfi_def_cfa_register %rbp
	pushq	%rbx
	subq	$24, %rsp
	.cfi_offset %rbx, -24
	movl	%r9d, %r11d
	movq	%rdx, %rax
	movq	%rdi, %rbx
	movl	16(%rbp), %r10d
.Ltmp591:
	#DEBUG_VALUE: datatype <- $r8
	#DEBUG_VALUE:  <- $rsi
	#DEBUG_VALUE: tag <- $r10d
	#DEBUG_VALUE: source <- $r11d
	#DEBUG_VALUE: count <- $ecx
	#DEBUG_VALUE: buf <- $rax
	#DEBUG_VALUE: Irecv:tag <- [DW_OP_plus_uconst 16] [$rbp+0]
	#DEBUG_VALUE: Irecv:source <- $r11d
	#DEBUG_VALUE: Irecv:datatype <- $r8
	#DEBUG_VALUE: Irecv:count <- $ecx
	#DEBUG_VALUE: Irecv:buf <- $rax
	#DEBUG_VALUE: Irecv: <- $rsi
	.loc	20 90 1 prologue_end    # /usr/lib/x86_64-linux-gnu/openmpi/include/openmpi/ompi/mpi/cxx/comm_inln.h:90:1
	movq	8(%r8), %rdx
	movq	8(%rsi), %r9
.Ltmp592:
	#DEBUG_VALUE: request <- [DW_OP_constu 16, DW_OP_minus, DW_OP_deref] $rbp
	.loc	20 0 1 is_stmt 0        # /usr/lib/x86_64-linux-gnu/openmpi/include/openmpi/ompi/mpi/cxx/comm_inln.h:0:1
	leaq	-16(%rbp), %rsi
.Ltmp593:
	.loc	20 90 1                 # /usr/lib/x86_64-linux-gnu/openmpi/include/openmpi/ompi/mpi/cxx/comm_inln.h:90:1
	movq	%rsi, (%rsp)
	movq	%rax, %rdi
.Ltmp594:
	#DEBUG_VALUE: Irecv:buf <- $rdi
	movl	%ecx, %esi
.Ltmp595:
	#DEBUG_VALUE: Irecv:count <- $esi
	movl	%r11d, %ecx
.Ltmp596:
	#DEBUG_VALUE: Irecv:source <- $ecx
	movl	%r10d, %r8d
.Ltmp597:
	callq	MPI_Irecv
.Ltmp598:
	.loc	20 119 1 is_stmt 1      # /usr/lib/x86_64-linux-gnu/openmpi/include/openmpi/ompi/mpi/cxx/comm_inln.h:119:1
	movq	-16(%rbp), %rax
.Ltmp599:
	#DEBUG_VALUE: request <- undef
	movq	$_ZTVN3MPI7RequestE+16, (%rbx)
	.loc	20 62 1                 # /usr/lib/x86_64-linux-gnu/openmpi/include/openmpi/ompi/mpi/cxx/comm_inln.h:62:1
	movq	%rax, 8(%rbx)
	.loc	20 120 1                # /usr/lib/x86_64-linux-gnu/openmpi/include/openmpi/ompi/mpi/cxx/comm_inln.h:120:1
	movq	%rbx, %rax
	addq	$24, %rsp
	popq	%rbx
	popq	%rbp
	.cfi_def_cfa %rsp, 8
	retq
.Ltmp600:
.Lfunc_end90:
	.size	_ZNK3MPI4Comm5IrecvEPviRKNS_8DatatypeEii, .Lfunc_end90-_ZNK3MPI4Comm5IrecvEPviRKNS_8DatatypeEii
	.cfi_endproc
                                        # -- End function
	.weak	_ZNK3MPI4Comm6IprobeEiiRNS_6StatusE # -- Begin function _ZNK3MPI4Comm6IprobeEiiRNS_6StatusE
	.p2align	4, 0x90
	.type	_ZNK3MPI4Comm6IprobeEiiRNS_6StatusE,@function
_ZNK3MPI4Comm6IprobeEiiRNS_6StatusE:    # @_ZNK3MPI4Comm6IprobeEiiRNS_6StatusE
.Lfunc_begin91:
	.loc	20 125 0                # /usr/lib/x86_64-linux-gnu/openmpi/include/openmpi/ompi/mpi/cxx/comm_inln.h:125:0
	.cfi_startproc
# %bb.0:                                # %L.entry
	#DEBUG_VALUE: Iprobe: <- $rdi
	#DEBUG_VALUE: Iprobe: <- $rdi
	#DEBUG_VALUE: Iprobe:source <- $esi
	#DEBUG_VALUE: Iprobe:source <- $esi
	#DEBUG_VALUE: Iprobe:tag <- $edx
	#DEBUG_VALUE: Iprobe:tag <- $edx
	#DEBUG_VALUE: Iprobe:status <- $rcx
	#DEBUG_VALUE: Iprobe:status <- $rcx
	pushq	%rbp
	.cfi_def_cfa_offset 16
	.cfi_offset %rbp, -16
	movq	%rsp, %rbp
	.cfi_def_cfa_register %rbp
	subq	$16, %rsp
.Ltmp601:
	#DEBUG_VALUE:  <- $rdi
	#DEBUG_VALUE: source <- $esi
	#DEBUG_VALUE: tag <- $edx
	#DEBUG_VALUE: status <- $rcx
	.loc	20 127 1 prologue_end   # /usr/lib/x86_64-linux-gnu/openmpi/include/openmpi/ompi/mpi/cxx/comm_inln.h:127:1
	movq	8(%rdi), %rax
	leaq	8(%rcx), %r8
.Ltmp602:
	#DEBUG_VALUE: t <- [DW_OP_constu 4, DW_OP_minus, DW_OP_deref] $rbp
	.loc	20 0 1 is_stmt 0        # /usr/lib/x86_64-linux-gnu/openmpi/include/openmpi/ompi/mpi/cxx/comm_inln.h:0:1
	leaq	-4(%rbp), %rcx
.Ltmp603:
	.loc	20 127 1                # /usr/lib/x86_64-linux-gnu/openmpi/include/openmpi/ompi/mpi/cxx/comm_inln.h:127:1
	movl	%esi, %edi
.Ltmp604:
	#DEBUG_VALUE: Iprobe:source <- $edi
	movl	%edx, %esi
.Ltmp605:
	#DEBUG_VALUE: Iprobe:tag <- $esi
	movq	%rax, %rdx
.Ltmp606:
	callq	MPI_Iprobe
.Ltmp607:
	#DEBUG_VALUE: t <- undef
	.loc	20 128 1 is_stmt 1      # /usr/lib/x86_64-linux-gnu/openmpi/include/openmpi/ompi/mpi/cxx/comm_inln.h:128:1
	cmpl	$0, -4(%rbp)
	setne	%al
	addq	$16, %rsp
	popq	%rbp
	.cfi_def_cfa %rsp, 8
	retq
.Ltmp608:
.Lfunc_end91:
	.size	_ZNK3MPI4Comm6IprobeEiiRNS_6StatusE, .Lfunc_end91-_ZNK3MPI4Comm6IprobeEiiRNS_6StatusE
	.cfi_endproc
                                        # -- End function
	.weak	_ZNK3MPI4Comm6IprobeEii # -- Begin function _ZNK3MPI4Comm6IprobeEii
	.p2align	4, 0x90
	.type	_ZNK3MPI4Comm6IprobeEii,@function
_ZNK3MPI4Comm6IprobeEii:                # @_ZNK3MPI4Comm6IprobeEii
.Lfunc_begin92:
	.loc	20 133 0                # /usr/lib/x86_64-linux-gnu/openmpi/include/openmpi/ompi/mpi/cxx/comm_inln.h:133:0
	.cfi_startproc
# %bb.0:                                # %L.entry
	#DEBUG_VALUE: Iprobe: <- $rdi
	#DEBUG_VALUE: Iprobe: <- $rdi
	#DEBUG_VALUE: Iprobe:source <- $esi
	#DEBUG_VALUE: Iprobe:source <- $esi
	#DEBUG_VALUE: Iprobe:tag <- $edx
	#DEBUG_VALUE: Iprobe:tag <- $edx
	pushq	%rbp
	.cfi_def_cfa_offset 16
	.cfi_offset %rbp, -16
	movq	%rsp, %rbp
	.cfi_def_cfa_register %rbp
	subq	$16, %rsp
.Ltmp609:
	#DEBUG_VALUE:  <- $rdi
	#DEBUG_VALUE: source <- $esi
	#DEBUG_VALUE: tag <- $edx
	.loc	20 135 1 prologue_end   # /usr/lib/x86_64-linux-gnu/openmpi/include/openmpi/ompi/mpi/cxx/comm_inln.h:135:1
	movq	8(%rdi), %rax
.Ltmp610:
	#DEBUG_VALUE: t <- [DW_OP_constu 4, DW_OP_minus, DW_OP_deref] $rbp
	.loc	20 0 1 is_stmt 0        # /usr/lib/x86_64-linux-gnu/openmpi/include/openmpi/ompi/mpi/cxx/comm_inln.h:0:1
	leaq	-4(%rbp), %rcx
	.loc	20 135 1                # /usr/lib/x86_64-linux-gnu/openmpi/include/openmpi/ompi/mpi/cxx/comm_inln.h:135:1
	movl	%esi, %edi
.Ltmp611:
	#DEBUG_VALUE: Iprobe:source <- $edi
	movl	%edx, %esi
.Ltmp612:
	#DEBUG_VALUE: Iprobe:tag <- $esi
	movq	%rax, %rdx
.Ltmp613:
	xorl	%r8d, %r8d
	callq	MPI_Iprobe
.Ltmp614:
	#DEBUG_VALUE: t <- undef
	.loc	20 136 1 is_stmt 1      # /usr/lib/x86_64-linux-gnu/openmpi/include/openmpi/ompi/mpi/cxx/comm_inln.h:136:1
	cmpl	$0, -4(%rbp)
	setne	%al
	addq	$16, %rsp
	popq	%rbp
	.cfi_def_cfa %rsp, 8
	retq
.Ltmp615:
.Lfunc_end92:
	.size	_ZNK3MPI4Comm6IprobeEii, .Lfunc_end92-_ZNK3MPI4Comm6IprobeEii
	.cfi_endproc
                                        # -- End function
	.weak	_ZNK3MPI4Comm5ProbeEiiRNS_6StatusE # -- Begin function _ZNK3MPI4Comm5ProbeEiiRNS_6StatusE
	.p2align	4, 0x90
	.type	_ZNK3MPI4Comm5ProbeEiiRNS_6StatusE,@function
_ZNK3MPI4Comm5ProbeEiiRNS_6StatusE:     # @_ZNK3MPI4Comm5ProbeEiiRNS_6StatusE
.Lfunc_begin93:
	.loc	20 141 0                # /usr/lib/x86_64-linux-gnu/openmpi/include/openmpi/ompi/mpi/cxx/comm_inln.h:141:0
	.cfi_startproc
# %bb.0:                                # %L.entry
	#DEBUG_VALUE: Probe: <- $rdi
	#DEBUG_VALUE: Probe: <- $rdi
	#DEBUG_VALUE: Probe:source <- $esi
	#DEBUG_VALUE: Probe:source <- $esi
	#DEBUG_VALUE: Probe:tag <- $edx
	#DEBUG_VALUE: Probe:tag <- $edx
	#DEBUG_VALUE: Probe:status <- $rcx
	#DEBUG_VALUE: Probe:status <- $rcx
	pushq	%rbp
	.cfi_def_cfa_offset 16
	.cfi_offset %rbp, -16
	movq	%rsp, %rbp
	.cfi_def_cfa_register %rbp
.Ltmp616:
	#DEBUG_VALUE:  <- $rdi
	#DEBUG_VALUE:  <- $rdi
	#DEBUG_VALUE: source <- $esi
	#DEBUG_VALUE: source <- $esi
	#DEBUG_VALUE: tag <- $edx
	#DEBUG_VALUE: tag <- $edx
	#DEBUG_VALUE: status <- $rcx
	#DEBUG_VALUE: status <- $rcx
	.loc	20 142 1 prologue_end   # /usr/lib/x86_64-linux-gnu/openmpi/include/openmpi/ompi/mpi/cxx/comm_inln.h:142:1
	movq	8(%rdi), %rax
	addq	$8, %rcx
.Ltmp617:
	movl	%esi, %edi
.Ltmp618:
	#DEBUG_VALUE: source <- $edi
	#DEBUG_VALUE: Probe:source <- $edi
	movl	%edx, %esi
.Ltmp619:
	#DEBUG_VALUE: tag <- $esi
	#DEBUG_VALUE: Probe:tag <- $esi
	movq	%rax, %rdx
	popq	%rbp
	.cfi_def_cfa %rsp, 8
	jmp	MPI_Probe               # TAILCALL
.Ltmp620:
.Lfunc_end93:
	.size	_ZNK3MPI4Comm5ProbeEiiRNS_6StatusE, .Lfunc_end93-_ZNK3MPI4Comm5ProbeEiiRNS_6StatusE
	.cfi_endproc
                                        # -- End function
	.weak	_ZNK3MPI4Comm5ProbeEii  # -- Begin function _ZNK3MPI4Comm5ProbeEii
	.p2align	4, 0x90
	.type	_ZNK3MPI4Comm5ProbeEii,@function
_ZNK3MPI4Comm5ProbeEii:                 # @_ZNK3MPI4Comm5ProbeEii
.Lfunc_begin94:
	.loc	20 147 0                # /usr/lib/x86_64-linux-gnu/openmpi/include/openmpi/ompi/mpi/cxx/comm_inln.h:147:0
	.cfi_startproc
# %bb.0:                                # %L.entry
	#DEBUG_VALUE: Probe: <- $rdi
	#DEBUG_VALUE: Probe: <- $rdi
	#DEBUG_VALUE: Probe:source <- $esi
	#DEBUG_VALUE: Probe:source <- $esi
	#DEBUG_VALUE: Probe:tag <- $edx
	#DEBUG_VALUE: Probe:tag <- $edx
	pushq	%rbp
	.cfi_def_cfa_offset 16
	.cfi_offset %rbp, -16
	movq	%rsp, %rbp
	.cfi_def_cfa_register %rbp
.Ltmp621:
	#DEBUG_VALUE:  <- $rdi
	#DEBUG_VALUE:  <- $rdi
	#DEBUG_VALUE: source <- $esi
	#DEBUG_VALUE: source <- $esi
	#DEBUG_VALUE: tag <- $edx
	#DEBUG_VALUE: tag <- $edx
	.loc	20 148 1 prologue_end   # /usr/lib/x86_64-linux-gnu/openmpi/include/openmpi/ompi/mpi/cxx/comm_inln.h:148:1
	movq	8(%rdi), %rax
	movl	%esi, %edi
.Ltmp622:
	#DEBUG_VALUE: source <- $edi
	#DEBUG_VALUE: Probe:source <- $edi
	movl	%edx, %esi
.Ltmp623:
	#DEBUG_VALUE: tag <- $esi
	#DEBUG_VALUE: Probe:tag <- $esi
	movq	%rax, %rdx
	xorl	%ecx, %ecx
	popq	%rbp
	.cfi_def_cfa %rsp, 8
	jmp	MPI_Probe               # TAILCALL
.Ltmp624:
.Lfunc_end94:
	.size	_ZNK3MPI4Comm5ProbeEii, .Lfunc_end94-_ZNK3MPI4Comm5ProbeEii
	.cfi_endproc
                                        # -- End function
	.weak	_ZNK3MPI4Comm9Send_initEPKviRKNS_8DatatypeEii # -- Begin function _ZNK3MPI4Comm9Send_initEPKviRKNS_8DatatypeEii
	.p2align	4, 0x90
	.type	_ZNK3MPI4Comm9Send_initEPKviRKNS_8DatatypeEii,@function
_ZNK3MPI4Comm9Send_initEPKviRKNS_8DatatypeEii: # @_ZNK3MPI4Comm9Send_initEPKviRKNS_8DatatypeEii
.Lfunc_begin95:
	.loc	20 154 0                # /usr/lib/x86_64-linux-gnu/openmpi/include/openmpi/ompi/mpi/cxx/comm_inln.h:154:0
	.cfi_startproc
# %bb.0:                                # %L.entry
	#DEBUG_VALUE: Send_init: <- $rsi
	#DEBUG_VALUE: Send_init:buf <- $rdx
	#DEBUG_VALUE: Send_init:count <- $ecx
	#DEBUG_VALUE: Send_init:datatype <- $r8
	#DEBUG_VALUE: Send_init:dest <- $r9d
	pushq	%rbp
	.cfi_def_cfa_offset 16
	.cfi_offset %rbp, -16
	movq	%rsp, %rbp
	.cfi_def_cfa_register %rbp
	pushq	%rbx
	subq	$24, %rsp
	.cfi_offset %rbx, -24
	movl	%r9d, %r11d
	movq	%rdx, %rax
	movq	%rdi, %rbx
	movl	16(%rbp), %r10d
.Ltmp625:
	#DEBUG_VALUE: datatype <- $r8
	#DEBUG_VALUE:  <- $rsi
	#DEBUG_VALUE: tag <- $r10d
	#DEBUG_VALUE: dest <- $r11d
	#DEBUG_VALUE: count <- $ecx
	#DEBUG_VALUE: buf <- $rax
	#DEBUG_VALUE: Send_init:tag <- [DW_OP_plus_uconst 16] [$rbp+0]
	#DEBUG_VALUE: Send_init:dest <- $r11d
	#DEBUG_VALUE: Send_init:datatype <- $r8
	#DEBUG_VALUE: Send_init:count <- $ecx
	#DEBUG_VALUE: Send_init:buf <- $rax
	#DEBUG_VALUE: Send_init: <- $rsi
	.loc	20 90 1 prologue_end    # /usr/lib/x86_64-linux-gnu/openmpi/include/openmpi/ompi/mpi/cxx/comm_inln.h:90:1
	movq	8(%r8), %rdx
	movq	8(%rsi), %r9
.Ltmp626:
	#DEBUG_VALUE: request <- [DW_OP_constu 16, DW_OP_minus, DW_OP_deref] $rbp
	.loc	20 0 1 is_stmt 0        # /usr/lib/x86_64-linux-gnu/openmpi/include/openmpi/ompi/mpi/cxx/comm_inln.h:0:1
	leaq	-16(%rbp), %rsi
.Ltmp627:
	.loc	20 90 1                 # /usr/lib/x86_64-linux-gnu/openmpi/include/openmpi/ompi/mpi/cxx/comm_inln.h:90:1
	movq	%rsi, (%rsp)
	movq	%rax, %rdi
.Ltmp628:
	#DEBUG_VALUE: Send_init:buf <- $rdi
	movl	%ecx, %esi
.Ltmp629:
	#DEBUG_VALUE: Send_init:count <- $esi
	movl	%r11d, %ecx
.Ltmp630:
	#DEBUG_VALUE: Send_init:dest <- $ecx
	movl	%r10d, %r8d
.Ltmp631:
	callq	MPI_Send_init
.Ltmp632:
	.loc	20 175 1 is_stmt 1      # /usr/lib/x86_64-linux-gnu/openmpi/include/openmpi/ompi/mpi/cxx/comm_inln.h:175:1
	movq	-16(%rbp), %rax
.Ltmp633:
	#DEBUG_VALUE: request <- undef
	movq	%rax, 8(%rbx)
	movq	$_ZTVN3MPI8PrequestE+16, (%rbx)
	.loc	20 159 1                # /usr/lib/x86_64-linux-gnu/openmpi/include/openmpi/ompi/mpi/cxx/comm_inln.h:159:1
	movq	%rbx, %rax
	addq	$24, %rsp
	popq	%rbx
	popq	%rbp
	.cfi_def_cfa %rsp, 8
	retq
.Ltmp634:
.Lfunc_end95:
	.size	_ZNK3MPI4Comm9Send_initEPKviRKNS_8DatatypeEii, .Lfunc_end95-_ZNK3MPI4Comm9Send_initEPKviRKNS_8DatatypeEii
	.cfi_endproc
                                        # -- End function
	.weak	_ZNK3MPI4Comm10Bsend_initEPKviRKNS_8DatatypeEii # -- Begin function _ZNK3MPI4Comm10Bsend_initEPKviRKNS_8DatatypeEii
	.p2align	4, 0x90
	.type	_ZNK3MPI4Comm10Bsend_initEPKviRKNS_8DatatypeEii,@function
_ZNK3MPI4Comm10Bsend_initEPKviRKNS_8DatatypeEii: # @_ZNK3MPI4Comm10Bsend_initEPKviRKNS_8DatatypeEii
.Lfunc_begin96:
	.loc	20 164 0                # /usr/lib/x86_64-linux-gnu/openmpi/include/openmpi/ompi/mpi/cxx/comm_inln.h:164:0
	.cfi_startproc
# %bb.0:                                # %L.entry
	#DEBUG_VALUE: Bsend_init: <- $rsi
	#DEBUG_VALUE: Bsend_init:buf <- $rdx
	#DEBUG_VALUE: Bsend_init:count <- $ecx
	#DEBUG_VALUE: Bsend_init:datatype <- $r8
	#DEBUG_VALUE: Bsend_init:dest <- $r9d
	pushq	%rbp
	.cfi_def_cfa_offset 16
	.cfi_offset %rbp, -16
	movq	%rsp, %rbp
	.cfi_def_cfa_register %rbp
	pushq	%rbx
	subq	$24, %rsp
	.cfi_offset %rbx, -24
	movl	%r9d, %r11d
	movq	%rdx, %rax
	movq	%rdi, %rbx
	movl	16(%rbp), %r10d
.Ltmp635:
	#DEBUG_VALUE: datatype <- $r8
	#DEBUG_VALUE:  <- $rsi
	#DEBUG_VALUE: tag <- $r10d
	#DEBUG_VALUE: dest <- $r11d
	#DEBUG_VALUE: count <- $ecx
	#DEBUG_VALUE: buf <- $rax
	#DEBUG_VALUE: Bsend_init:tag <- [DW_OP_plus_uconst 16] [$rbp+0]
	#DEBUG_VALUE: Bsend_init:dest <- $r11d
	#DEBUG_VALUE: Bsend_init:datatype <- $r8
	#DEBUG_VALUE: Bsend_init:count <- $ecx
	#DEBUG_VALUE: Bsend_init:buf <- $rax
	#DEBUG_VALUE: Bsend_init: <- $rsi
	.loc	20 90 1 prologue_end    # /usr/lib/x86_64-linux-gnu/openmpi/include/openmpi/ompi/mpi/cxx/comm_inln.h:90:1
	movq	8(%r8), %rdx
	movq	8(%rsi), %r9
.Ltmp636:
	#DEBUG_VALUE: request <- [DW_OP_constu 16, DW_OP_minus, DW_OP_deref] $rbp
	.loc	20 0 1 is_stmt 0        # /usr/lib/x86_64-linux-gnu/openmpi/include/openmpi/ompi/mpi/cxx/comm_inln.h:0:1
	leaq	-16(%rbp), %rsi
.Ltmp637:
	.loc	20 90 1                 # /usr/lib/x86_64-linux-gnu/openmpi/include/openmpi/ompi/mpi/cxx/comm_inln.h:90:1
	movq	%rsi, (%rsp)
	movq	%rax, %rdi
.Ltmp638:
	#DEBUG_VALUE: Bsend_init:buf <- $rdi
	movl	%ecx, %esi
.Ltmp639:
	#DEBUG_VALUE: Bsend_init:count <- $esi
	movl	%r11d, %ecx
.Ltmp640:
	#DEBUG_VALUE: Bsend_init:dest <- $ecx
	movl	%r10d, %r8d
.Ltmp641:
	callq	MPI_Bsend_init
.Ltmp642:
	.loc	20 175 1 is_stmt 1      # /usr/lib/x86_64-linux-gnu/openmpi/include/openmpi/ompi/mpi/cxx/comm_inln.h:175:1
	movq	-16(%rbp), %rax
.Ltmp643:
	#DEBUG_VALUE: request <- undef
	movq	%rax, 8(%rbx)
	movq	$_ZTVN3MPI8PrequestE+16, (%rbx)
	.loc	20 169 1                # /usr/lib/x86_64-linux-gnu/openmpi/include/openmpi/ompi/mpi/cxx/comm_inln.h:169:1
	movq	%rbx, %rax
	addq	$24, %rsp
	popq	%rbx
	popq	%rbp
	.cfi_def_cfa %rsp, 8
	retq
.Ltmp644:
.Lfunc_end96:
	.size	_ZNK3MPI4Comm10Bsend_initEPKviRKNS_8DatatypeEii, .Lfunc_end96-_ZNK3MPI4Comm10Bsend_initEPKviRKNS_8DatatypeEii
	.cfi_endproc
                                        # -- End function
	.weak	_ZNK3MPI4Comm10Ssend_initEPKviRKNS_8DatatypeEii # -- Begin function _ZNK3MPI4Comm10Ssend_initEPKviRKNS_8DatatypeEii
	.p2align	4, 0x90
	.type	_ZNK3MPI4Comm10Ssend_initEPKviRKNS_8DatatypeEii,@function
_ZNK3MPI4Comm10Ssend_initEPKviRKNS_8DatatypeEii: # @_ZNK3MPI4Comm10Ssend_initEPKviRKNS_8DatatypeEii
.Lfunc_begin97:
	.loc	20 174 0                # /usr/lib/x86_64-linux-gnu/openmpi/include/openmpi/ompi/mpi/cxx/comm_inln.h:174:0
	.cfi_startproc
# %bb.0:                                # %L.entry
	#DEBUG_VALUE: Ssend_init: <- $rsi
	#DEBUG_VALUE: Ssend_init:buf <- $rdx
	#DEBUG_VALUE: Ssend_init:count <- $ecx
	#DEBUG_VALUE: Ssend_init:datatype <- $r8
	#DEBUG_VALUE: Ssend_init:dest <- $r9d
	pushq	%rbp
	.cfi_def_cfa_offset 16
	.cfi_offset %rbp, -16
	movq	%rsp, %rbp
	.cfi_def_cfa_register %rbp
	pushq	%rbx
	subq	$24, %rsp
	.cfi_offset %rbx, -24
	movl	%r9d, %r11d
	movq	%rdx, %rax
	movq	%rdi, %rbx
	movl	16(%rbp), %r10d
.Ltmp645:
	#DEBUG_VALUE: datatype <- $r8
	#DEBUG_VALUE:  <- $rsi
	#DEBUG_VALUE: tag <- $r10d
	#DEBUG_VALUE: dest <- $r11d
	#DEBUG_VALUE: count <- $ecx
	#DEBUG_VALUE: buf <- $rax
	#DEBUG_VALUE: Ssend_init:tag <- [DW_OP_plus_uconst 16] [$rbp+0]
	#DEBUG_VALUE: Ssend_init:dest <- $r11d
	#DEBUG_VALUE: Ssend_init:datatype <- $r8
	#DEBUG_VALUE: Ssend_init:count <- $ecx
	#DEBUG_VALUE: Ssend_init:buf <- $rax
	#DEBUG_VALUE: Ssend_init: <- $rsi
	.loc	20 90 1 prologue_end    # /usr/lib/x86_64-linux-gnu/openmpi/include/openmpi/ompi/mpi/cxx/comm_inln.h:90:1
	movq	8(%r8), %rdx
	movq	8(%rsi), %r9
.Ltmp646:
	#DEBUG_VALUE: request <- [DW_OP_constu 16, DW_OP_minus, DW_OP_deref] $rbp
	.loc	20 0 1 is_stmt 0        # /usr/lib/x86_64-linux-gnu/openmpi/include/openmpi/ompi/mpi/cxx/comm_inln.h:0:1
	leaq	-16(%rbp), %rsi
.Ltmp647:
	.loc	20 90 1                 # /usr/lib/x86_64-linux-gnu/openmpi/include/openmpi/ompi/mpi/cxx/comm_inln.h:90:1
	movq	%rsi, (%rsp)
	movq	%rax, %rdi
.Ltmp648:
	#DEBUG_VALUE: Ssend_init:buf <- $rdi
	movl	%ecx, %esi
.Ltmp649:
	#DEBUG_VALUE: Ssend_init:count <- $esi
	movl	%r11d, %ecx
.Ltmp650:
	#DEBUG_VALUE: Ssend_init:dest <- $ecx
	movl	%r10d, %r8d
.Ltmp651:
	callq	MPI_Ssend_init
.Ltmp652:
	.loc	20 175 1 is_stmt 1      # /usr/lib/x86_64-linux-gnu/openmpi/include/openmpi/ompi/mpi/cxx/comm_inln.h:175:1
	movq	-16(%rbp), %rax
.Ltmp653:
	#DEBUG_VALUE: request <- undef
	movq	%rax, 8(%rbx)
	movq	$_ZTVN3MPI8PrequestE+16, (%rbx)
	.loc	20 179 1                # /usr/lib/x86_64-linux-gnu/openmpi/include/openmpi/ompi/mpi/cxx/comm_inln.h:179:1
	movq	%rbx, %rax
	addq	$24, %rsp
	popq	%rbx
	popq	%rbp
	.cfi_def_cfa %rsp, 8
	retq
.Ltmp654:
.Lfunc_end97:
	.size	_ZNK3MPI4Comm10Ssend_initEPKviRKNS_8DatatypeEii, .Lfunc_end97-_ZNK3MPI4Comm10Ssend_initEPKviRKNS_8DatatypeEii
	.cfi_endproc
                                        # -- End function
	.weak	_ZNK3MPI4Comm10Rsend_initEPKviRKNS_8DatatypeEii # -- Begin function _ZNK3MPI4Comm10Rsend_initEPKviRKNS_8DatatypeEii
	.p2align	4, 0x90
	.type	_ZNK3MPI4Comm10Rsend_initEPKviRKNS_8DatatypeEii,@function
_ZNK3MPI4Comm10Rsend_initEPKviRKNS_8DatatypeEii: # @_ZNK3MPI4Comm10Rsend_initEPKviRKNS_8DatatypeEii
.Lfunc_begin98:
	.loc	20 184 0                # /usr/lib/x86_64-linux-gnu/openmpi/include/openmpi/ompi/mpi/cxx/comm_inln.h:184:0
	.cfi_startproc
# %bb.0:                                # %L.entry
	#DEBUG_VALUE: Rsend_init: <- $rsi
	#DEBUG_VALUE: Rsend_init:buf <- $rdx
	#DEBUG_VALUE: Rsend_init:count <- $ecx
	#DEBUG_VALUE: Rsend_init:datatype <- $r8
	#DEBUG_VALUE: Rsend_init:dest <- $r9d
	pushq	%rbp
	.cfi_def_cfa_offset 16
	.cfi_offset %rbp, -16
	movq	%rsp, %rbp
	.cfi_def_cfa_register %rbp
	pushq	%rbx
	subq	$24, %rsp
	.cfi_offset %rbx, -24
	movl	%r9d, %r11d
	movq	%rdx, %rax
	movq	%rdi, %rbx
	movl	16(%rbp), %r10d
.Ltmp655:
	#DEBUG_VALUE: datatype <- $r8
	#DEBUG_VALUE:  <- $rsi
	#DEBUG_VALUE: tag <- $r10d
	#DEBUG_VALUE: dest <- $r11d
	#DEBUG_VALUE: count <- $ecx
	#DEBUG_VALUE: buf <- $rax
	#DEBUG_VALUE: Rsend_init:tag <- [DW_OP_plus_uconst 16] [$rbp+0]
	#DEBUG_VALUE: Rsend_init:dest <- $r11d
