; ModuleID = 'particle_species.cpp'
target datalayout = "e-p:64:64-i64:64-f80:128-n8:16:32:64-S128"
target triple = "x86_64-pc-linux-gnu"
define internal void @pgCplus_compiled.() noinline {
L.entry:
	ret void
}


define linkonce_odr void @_ZNSt11char_traitsIcE6assignERcRKc(i8* %__c1.arg, i8* %__c2.arg) #0 inlinehint !dbg !1496 {
L.entry:
	%__c1.addr = alloca i8*, align 8
	%__c2.addr = alloca i8*, align 8

	call void @llvm.dbg.declare (metadata i8** %__c1.addr, metadata !1500, metadata !1501), !dbg !1497
	store i8* %__c1.arg, i8** %__c1.addr, align 8, !tbaa !1508
	call void @llvm.dbg.declare (metadata i8** %__c1.addr, metadata !1502, metadata !1501), !dbg !1497
	call void @llvm.dbg.declare (metadata i8** %__c2.addr, metadata !1503, metadata !1501), !dbg !1497
	store i8* %__c2.arg, i8** %__c2.addr, align 8, !tbaa !1508
	call void @llvm.dbg.declare (metadata i8** %__c2.addr, metadata !1504, metadata !1501), !dbg !1497
	%0 = load i8*, i8** %__c2.addr, align 8, !tbaa !1508, !dbg !1505
	%1 = load i8, i8*  %0, align 1, !tbaa !1509, !dbg !1505
	%2 = load i8*, i8** %__c1.addr, align 8, !tbaa !1508, !dbg !1505
	store i8  %1, i8*  %2, align 1, !tbaa !1509, !dbg !1505
	ret void, !dbg !1505
}

%struct._ZSaIcE = type <{ [1 x i8]}> 

define linkonce_odr void @_ZNSaIcEC1ERKS_(%struct._ZSaIcE* %_T28285720_7514.arg, %struct._ZSaIcE* %__a.arg) #0 inlinehint !dbg !1520 {
L.entry:
	%_T28285720_7514.addr = alloca %struct._ZSaIcE*, align 8
	%__a.addr = alloca %struct._ZSaIcE*, align 8

	call void @llvm.dbg.declare (metadata %struct._ZSaIcE** %_T28285720_7514.addr, metadata !1524, metadata !1501), !dbg !1521
	store %struct._ZSaIcE* %_T28285720_7514.arg, %struct._ZSaIcE** %_T28285720_7514.addr, align 8, !tbaa !1508
	call void @llvm.dbg.declare (metadata %struct._ZSaIcE** %_T28285720_7514.addr, metadata !1525, metadata !1501), !dbg !1521
	call void @llvm.dbg.declare (metadata %struct._ZSaIcE** %__a.addr, metadata !1526, metadata !1501), !dbg !1521
	store %struct._ZSaIcE* %__a.arg, %struct._ZSaIcE** %__a.addr, align 8, !tbaa !1508
	call void @llvm.dbg.declare (metadata %struct._ZSaIcE** %__a.addr, metadata !1527, metadata !1501), !dbg !1521
	ret void, !dbg !1528
}
define linkonce_odr void @_ZNSaIcEC2ERKS_(%struct._ZSaIcE* %_T28285720_7515.arg, %struct._ZSaIcE* %_T28286016_7515.arg) #0 inlinehint !dbg !1530 {
L.entry:
	%_T28285720_7515.addr = alloca %struct._ZSaIcE*, align 8
	%_T28286016_7515.addr = alloca %struct._ZSaIcE*, align 8

	store %struct._ZSaIcE* %_T28285720_7515.arg, %struct._ZSaIcE** %_T28285720_7515.addr, align 8, !tbaa !1508
	store %struct._ZSaIcE* %_T28286016_7515.arg, %struct._ZSaIcE** %_T28286016_7515.addr, align 8, !tbaa !1508
	ret void, !dbg !1538
}
define linkonce_odr i8* @_ZNSt16allocator_traitsISaIcEE8allocateERS0_m(%struct._ZSaIcE* %__a.arg, i64 %__n.arg) #0 inlinehint !dbg !1548 {
L.entry:
	%__a.addr = alloca %struct._ZSaIcE*, align 8
	%__n.addr = alloca i64, align 8
	%..inline.addr = alloca i64, align 8
	%.Q0000.addr = alloca i8*, align 8

	call void @llvm.dbg.declare (metadata %struct._ZSaIcE** %__a.addr, metadata !1560, metadata !1501), !dbg !1549
	store %struct._ZSaIcE* %__a.arg, %struct._ZSaIcE** %__a.addr, align 8, !tbaa !1508
	call void @llvm.dbg.declare (metadata %struct._ZSaIcE** %__a.addr, metadata !1561, metadata !1501), !dbg !1549
	call void @llvm.dbg.declare (metadata i64* %__n.addr, metadata !1562, metadata !1501), !dbg !1549
	store i64 %__n.arg, i64* %__n.addr, align 8, !tbaa !1509
	call void @llvm.dbg.declare (metadata i64* %__n.addr, metadata !1563, metadata !1501), !dbg !1549
	%0 = load i64, i64* %__n.addr, align 8, !tbaa !1569, !dbg !1564
	store i64  %0, i64* %..inline.addr, align 8, !tbaa !1569, !dbg !1564
	%1 = icmp ule i64  %0, -1, !dbg !1565
	br i1  %1, label %L..inline.9419, label %L.B0123, !dbg !1565
L.B0123:
	call void  @_ZSt17__throw_bad_allocv () noreturn, !dbg !1566
	br label %L..inline.9419
L..inline.9419:
	%2 = load i64, i64* %..inline.addr, align 8, !tbaa !1569, !dbg !1567
	%3 = call i8*  @_Znwm (i64  %2), !dbg !1567
	store i8*  %3, i8** %.Q0000.addr, align 8, !tbaa !1508, !dbg !1567
	ret i8*  %3, !dbg !1567
}
define linkonce_odr void @_ZNSt16allocator_traitsISaIcEE10deallocateERS0_Pcm(%struct._ZSaIcE* %__a.arg, i8* %__p.arg, i64 %__n.arg) #0 inlinehint !dbg !1573 {
L.entry:
	%__a.addr = alloca %struct._ZSaIcE*, align 8
	%__p.addr = alloca i8*, align 8
	%__n.addr = alloca i64, align 8
	%..inline.addr = alloca i8*, align 8

	call void @llvm.dbg.declare (metadata %struct._ZSaIcE** %__a.addr, metadata !1581, metadata !1501), !dbg !1574
	store %struct._ZSaIcE* %__a.arg, %struct._ZSaIcE** %__a.addr, align 8, !tbaa !1508
	call void @llvm.dbg.declare (metadata %struct._ZSaIcE** %__a.addr, metadata !1582, metadata !1501), !dbg !1574
	call void @llvm.dbg.declare (metadata i8** %__p.addr, metadata !1583, metadata !1501), !dbg !1574
	store i8* %__p.arg, i8** %__p.addr, align 8, !tbaa !1508
	call void @llvm.dbg.declare (metadata i8** %__p.addr, metadata !1584, metadata !1501), !dbg !1574
	call void @llvm.dbg.declare (metadata i64* %__n.addr, metadata !1585, metadata !1501), !dbg !1574
	store i64 %__n.arg, i64* %__n.addr, align 8, !tbaa !1509
	call void @llvm.dbg.declare (metadata i64* %__n.addr, metadata !1586, metadata !1501), !dbg !1574
	%0 = load i8*, i8** %__p.addr, align 8, !tbaa !1508, !dbg !1587
	call void  @_ZdlPv (i8*  %0) nounwind, !dbg !1588
	ret void, !dbg !1587
}
define linkonce_odr i8* @_ZNSt14pointer_traitsIPcE10pointer_toERc(i8* %__r.arg) #0 inlinehint !dbg !1594 {
L.entry:
	%__r.addr = alloca i8*, align 8

	call void @llvm.dbg.declare (metadata i8** %__r.addr, metadata !1606, metadata !1501), !dbg !1595
	store i8* %__r.arg, i8** %__r.addr, align 8, !tbaa !1508
	call void @llvm.dbg.declare (metadata i8** %__r.addr, metadata !1607, metadata !1501), !dbg !1595
	%0 = load i8*, i8** %__r.addr, align 8, !tbaa !1508, !dbg !1608
	ret i8*  %0, !dbg !1608
}
define linkonce_odr i8* @_ZNSt14pointer_traitsIPKcE10pointer_toERS0_(i8* %__r.arg) #0 inlinehint !dbg !1610 {
L.entry:
	%__r.addr = alloca i8*, align 8

	call void @llvm.dbg.declare (metadata i8** %__r.addr, metadata !1622, metadata !1501), !dbg !1611
	store i8* %__r.arg, i8** %__r.addr, align 8, !tbaa !1508
	call void @llvm.dbg.declare (metadata i8** %__r.addr, metadata !1623, metadata !1501), !dbg !1611
	%0 = load i8*, i8** %__r.addr, align 8, !tbaa !1508, !dbg !1624
	ret i8*  %0, !dbg !1624
}

%union.__C5 = type <{ [16 x i8]}> 
%struct._ZNSt7__cxx1112basic_stringIcSt11char_traitsIcESaIcEE12_Alloc_hiderE = type <{ i8*}> 
%struct._ZNSt7__cxx1112basic_stringIcSt11char_traitsIcESaIcEEE = type <{ %struct._ZNSt7__cxx1112basic_stringIcSt11char_traitsIcESaIcEE12_Alloc_hiderE, i64, %union.__C5}> 

define linkonce_odr void @_ZNSt7__cxx1112basic_stringIcSt11char_traitsIcESaIcEE7_M_dataEPc(%struct._ZNSt7__cxx1112basic_stringIcSt11char_traitsIcESaIcEEE* %_T28285720_7532.arg, i8* %__p.arg) #0 inlinehint !dbg !1631 {
L.entry:
	%_T28285720_7532.addr = alloca %struct._ZNSt7__cxx1112basic_stringIcSt11char_traitsIcESaIcEEE*, align 8
	%__p.addr = alloca i8*, align 8

	call void @llvm.dbg.declare (metadata %struct._ZNSt7__cxx1112basic_stringIcSt11char_traitsIcESaIcEEE** %_T28285720_7532.addr, metadata !1635, metadata !1501), !dbg !1632
	store %struct._ZNSt7__cxx1112basic_stringIcSt11char_traitsIcESaIcEEE* %_T28285720_7532.arg, %struct._ZNSt7__cxx1112basic_stringIcSt11char_traitsIcESaIcEEE** %_T28285720_7532.addr, align 8, !tbaa !1508
	call void @llvm.dbg.declare (metadata %struct._ZNSt7__cxx1112basic_stringIcSt11char_traitsIcESaIcEEE** %_T28285720_7532.addr, metadata !1636, metadata !1501), !dbg !1632
	call void @llvm.dbg.declare (metadata i8** %__p.addr, metadata !1637, metadata !1501), !dbg !1632
	store i8* %__p.arg, i8** %__p.addr, align 8, !tbaa !1508
	call void @llvm.dbg.declare (metadata i8** %__p.addr, metadata !1638, metadata !1501), !dbg !1632
	%0 = load i8*, i8** %__p.addr, align 8, !tbaa !1508, !dbg !1639
	%1 = load %struct._ZNSt7__cxx1112basic_stringIcSt11char_traitsIcESaIcEEE*, %struct._ZNSt7__cxx1112basic_stringIcSt11char_traitsIcESaIcEEE** %_T28285720_7532.addr, align 8, !tbaa !1508, !dbg !1639
	%2 = bitcast %struct._ZNSt7__cxx1112basic_stringIcSt11char_traitsIcESaIcEEE*  %1 to i8**, !dbg !1639
	store i8*  %0, i8**  %2, align 8, !tbaa !1508, !dbg !1639
	ret void, !dbg !1639
}
define linkonce_odr void @_ZNSt7__cxx1112basic_stringIcSt11char_traitsIcESaIcEE9_M_lengthEm(%struct._ZNSt7__cxx1112basic_stringIcSt11char_traitsIcESaIcEEE* %_T28285720_7534.arg, i64 %__length.arg) #0 inlinehint !dbg !1643 {
L.entry:
	%_T28285720_7534.addr = alloca %struct._ZNSt7__cxx1112basic_stringIcSt11char_traitsIcESaIcEEE*, align 8
	%__length.addr = alloca i64, align 8

	call void @llvm.dbg.declare (metadata %struct._ZNSt7__cxx1112basic_stringIcSt11char_traitsIcESaIcEEE** %_T28285720_7534.addr, metadata !1647, metadata !1501), !dbg !1644
	store %struct._ZNSt7__cxx1112basic_stringIcSt11char_traitsIcESaIcEEE* %_T28285720_7534.arg, %struct._ZNSt7__cxx1112basic_stringIcSt11char_traitsIcESaIcEEE** %_T28285720_7534.addr, align 8, !tbaa !1508
	call void @llvm.dbg.declare (metadata %struct._ZNSt7__cxx1112basic_stringIcSt11char_traitsIcESaIcEEE** %_T28285720_7534.addr, metadata !1648, metadata !1501), !dbg !1644
	call void @llvm.dbg.declare (metadata i64* %__length.addr, metadata !1649, metadata !1501), !dbg !1644
	store i64 %__length.arg, i64* %__length.addr, align 8, !tbaa !1509
	call void @llvm.dbg.declare (metadata i64* %__length.addr, metadata !1650, metadata !1501), !dbg !1644
	%0 = load i64, i64* %__length.addr, align 8, !tbaa !1569, !dbg !1651
	%1 = load %struct._ZNSt7__cxx1112basic_stringIcSt11char_traitsIcESaIcEEE*, %struct._ZNSt7__cxx1112basic_stringIcSt11char_traitsIcESaIcEEE** %_T28285720_7534.addr, align 8, !tbaa !1508, !dbg !1651
	%2 = bitcast %struct._ZNSt7__cxx1112basic_stringIcSt11char_traitsIcESaIcEEE*  %1 to i8*, !dbg !1651
	%3 = getelementptr i8, i8*  %2, i64 8, !dbg !1651
	%4 = bitcast i8*  %3 to i64*, !dbg !1651
	store i64  %0, i64*  %4, align 8, !tbaa !1509, !dbg !1651
	ret void, !dbg !1651
}
define linkonce_odr i8* @_ZNKSt7__cxx1112basic_stringIcSt11char_traitsIcESaIcEE7_M_dataEv(%struct._ZNSt7__cxx1112basic_stringIcSt11char_traitsIcESaIcEEE* %_T28285720_7536.arg) #0 inlinehint !dbg !1655 {
L.entry:
	%_T28285720_7536.addr = alloca %struct._ZNSt7__cxx1112basic_stringIcSt11char_traitsIcESaIcEEE*, align 8

	call void @llvm.dbg.declare (metadata %struct._ZNSt7__cxx1112basic_stringIcSt11char_traitsIcESaIcEEE** %_T28285720_7536.addr, metadata !1659, metadata !1501), !dbg !1656
	store %struct._ZNSt7__cxx1112basic_stringIcSt11char_traitsIcESaIcEEE* %_T28285720_7536.arg, %struct._ZNSt7__cxx1112basic_stringIcSt11char_traitsIcESaIcEEE** %_T28285720_7536.addr, align 8, !tbaa !1508
	call void @llvm.dbg.declare (metadata %struct._ZNSt7__cxx1112basic_stringIcSt11char_traitsIcESaIcEEE** %_T28285720_7536.addr, metadata !1660, metadata !1501), !dbg !1656
	%0 = load %struct._ZNSt7__cxx1112basic_stringIcSt11char_traitsIcESaIcEEE*, %struct._ZNSt7__cxx1112basic_stringIcSt11char_traitsIcESaIcEEE** %_T28285720_7536.addr, align 8, !tbaa !1508, !dbg !1661
	%1 = bitcast %struct._ZNSt7__cxx1112basic_stringIcSt11char_traitsIcESaIcEEE*  %0 to i8**, !dbg !1661
	%2 = load i8*, i8**  %1, align 8, !tbaa !1508, !dbg !1661
	ret i8*  %2, !dbg !1661
}
define linkonce_odr i8* @_ZNSt7__cxx1112basic_stringIcSt11char_traitsIcESaIcEE13_M_local_dataEv(%struct._ZNSt7__cxx1112basic_stringIcSt11char_traitsIcESaIcEEE* %_T28285720_7538.arg) #0 inlinehint !dbg !1663 {
L.entry:
	%_T28285720_7538.addr = alloca %struct._ZNSt7__cxx1112basic_stringIcSt11char_traitsIcESaIcEEE*, align 8

	call void @llvm.dbg.declare (metadata %struct._ZNSt7__cxx1112basic_stringIcSt11char_traitsIcESaIcEEE** %_T28285720_7538.addr, metadata !1679, metadata !1501), !dbg !1664
	store %struct._ZNSt7__cxx1112basic_stringIcSt11char_traitsIcESaIcEEE* %_T28285720_7538.arg, %struct._ZNSt7__cxx1112basic_stringIcSt11char_traitsIcESaIcEEE** %_T28285720_7538.addr, align 8, !tbaa !1508
	call void @llvm.dbg.declare (metadata %struct._ZNSt7__cxx1112basic_stringIcSt11char_traitsIcESaIcEEE** %_T28285720_7538.addr, metadata !1680, metadata !1501), !dbg !1664
	%0 = load %struct._ZNSt7__cxx1112basic_stringIcSt11char_traitsIcESaIcEEE*, %struct._ZNSt7__cxx1112basic_stringIcSt11char_traitsIcESaIcEEE** %_T28285720_7538.addr, align 8, !tbaa !1508, !dbg !1681
	%1 = bitcast %struct._ZNSt7__cxx1112basic_stringIcSt11char_traitsIcESaIcEEE*  %0 to i8*, !dbg !1681
	%2 = getelementptr i8, i8*  %1, i64 16, !dbg !1681
	ret i8*  %2, !dbg !1681
}
define linkonce_odr i8* @_ZNKSt7__cxx1112basic_stringIcSt11char_traitsIcESaIcEE13_M_local_dataEv(%struct._ZNSt7__cxx1112basic_stringIcSt11char_traitsIcESaIcEEE* %_T28285720_7540.arg) #0 inlinehint !dbg !1684 {
L.entry:
	%_T28285720_7540.addr = alloca %struct._ZNSt7__cxx1112basic_stringIcSt11char_traitsIcESaIcEEE*, align 8

	call void @llvm.dbg.declare (metadata %struct._ZNSt7__cxx1112basic_stringIcSt11char_traitsIcESaIcEEE** %_T28285720_7540.addr, metadata !1700, metadata !1501), !dbg !1685
	store %struct._ZNSt7__cxx1112basic_stringIcSt11char_traitsIcESaIcEEE* %_T28285720_7540.arg, %struct._ZNSt7__cxx1112basic_stringIcSt11char_traitsIcESaIcEEE** %_T28285720_7540.addr, align 8, !tbaa !1508
	call void @llvm.dbg.declare (metadata %struct._ZNSt7__cxx1112basic_stringIcSt11char_traitsIcESaIcEEE** %_T28285720_7540.addr, metadata !1701, metadata !1501), !dbg !1685
	%0 = load %struct._ZNSt7__cxx1112basic_stringIcSt11char_traitsIcESaIcEEE*, %struct._ZNSt7__cxx1112basic_stringIcSt11char_traitsIcESaIcEEE** %_T28285720_7540.addr, align 8, !tbaa !1508, !dbg !1702
	%1 = bitcast %struct._ZNSt7__cxx1112basic_stringIcSt11char_traitsIcESaIcEEE*  %0 to i8*, !dbg !1702
	%2 = getelementptr i8, i8*  %1, i64 16, !dbg !1702
	ret i8*  %2, !dbg !1702
}
define linkonce_odr void @_ZNSt7__cxx1112basic_stringIcSt11char_traitsIcESaIcEE11_M_capacityEm(%struct._ZNSt7__cxx1112basic_stringIcSt11char_traitsIcESaIcEEE* %_T28285720_7542.arg, i64 %__capacity.arg) #0 inlinehint !dbg !1705 {
L.entry:
	%_T28285720_7542.addr = alloca %struct._ZNSt7__cxx1112basic_stringIcSt11char_traitsIcESaIcEEE*, align 8
	%__capacity.addr = alloca i64, align 8

	call void @llvm.dbg.declare (metadata %struct._ZNSt7__cxx1112basic_stringIcSt11char_traitsIcESaIcEEE** %_T28285720_7542.addr, metadata !1709, metadata !1501), !dbg !1706
	store %struct._ZNSt7__cxx1112basic_stringIcSt11char_traitsIcESaIcEEE* %_T28285720_7542.arg, %struct._ZNSt7__cxx1112basic_stringIcSt11char_traitsIcESaIcEEE** %_T28285720_7542.addr, align 8, !tbaa !1508
	call void @llvm.dbg.declare (metadata %struct._ZNSt7__cxx1112basic_stringIcSt11char_traitsIcESaIcEEE** %_T28285720_7542.addr, metadata !1710, metadata !1501), !dbg !1706
	call void @llvm.dbg.declare (metadata i64* %__capacity.addr, metadata !1711, metadata !1501), !dbg !1706
	store i64 %__capacity.arg, i64* %__capacity.addr, align 8, !tbaa !1509
	call void @llvm.dbg.declare (metadata i64* %__capacity.addr, metadata !1712, metadata !1501), !dbg !1706
	%0 = load i64, i64* %__capacity.addr, align 8, !tbaa !1569, !dbg !1713
	%1 = load %struct._ZNSt7__cxx1112basic_stringIcSt11char_traitsIcESaIcEEE*, %struct._ZNSt7__cxx1112basic_stringIcSt11char_traitsIcESaIcEEE** %_T28285720_7542.addr, align 8, !tbaa !1508, !dbg !1713
	%2 = bitcast %struct._ZNSt7__cxx1112basic_stringIcSt11char_traitsIcESaIcEEE*  %1 to i8*, !dbg !1713
	%3 = getelementptr i8, i8*  %2, i64 16, !dbg !1713
	%4 = bitcast i8*  %3 to i64*, !dbg !1713
	store i64  %0, i64*  %4, align 8, !tbaa !1509, !dbg !1713
	ret void, !dbg !1713
}
define linkonce_odr void @_ZNSt7__cxx1112basic_stringIcSt11char_traitsIcESaIcEE13_M_set_lengthEm(%struct._ZNSt7__cxx1112basic_stringIcSt11char_traitsIcESaIcEEE* %_T28285720_7544.arg, i64 %__n.arg) #0 inlinehint !dbg !1715 {
L.entry:
	%_T28285720_7544.addr = alloca %struct._ZNSt7__cxx1112basic_stringIcSt11char_traitsIcESaIcEEE*, align 8
	%__n.addr = alloca i64, align 8
	%..inline.addr = alloca i8*, align 8

	call void @llvm.dbg.declare (metadata %struct._ZNSt7__cxx1112basic_stringIcSt11char_traitsIcESaIcEEE** %_T28285720_7544.addr, metadata !1731, metadata !1501), !dbg !1716
	store %struct._ZNSt7__cxx1112basic_stringIcSt11char_traitsIcESaIcEEE* %_T28285720_7544.arg, %struct._ZNSt7__cxx1112basic_stringIcSt11char_traitsIcESaIcEEE** %_T28285720_7544.addr, align 8, !tbaa !1508
	call void @llvm.dbg.declare (metadata %struct._ZNSt7__cxx1112basic_stringIcSt11char_traitsIcESaIcEEE** %_T28285720_7544.addr, metadata !1732, metadata !1501), !dbg !1716
	call void @llvm.dbg.declare (metadata i64* %__n.addr, metadata !1733, metadata !1501), !dbg !1716
	store i64 %__n.arg, i64* %__n.addr, align 8, !tbaa !1509
	call void @llvm.dbg.declare (metadata i64* %__n.addr, metadata !1734, metadata !1501), !dbg !1716
	%0 = load i64, i64* %__n.addr, align 8, !tbaa !1569, !dbg !1735
	%1 = load %struct._ZNSt7__cxx1112basic_stringIcSt11char_traitsIcESaIcEEE*, %struct._ZNSt7__cxx1112basic_stringIcSt11char_traitsIcESaIcEEE** %_T28285720_7544.addr, align 8, !tbaa !1508, !dbg !1735
	%2 = bitcast %struct._ZNSt7__cxx1112basic_stringIcSt11char_traitsIcESaIcEEE*  %1 to i8*, !dbg !1735
	%3 = getelementptr i8, i8*  %2, i64 8, !dbg !1735
	%4 = bitcast i8*  %3 to i64*, !dbg !1735
	store i64  %0, i64*  %4, align 8, !tbaa !1509, !dbg !1735
	%5 = bitcast %struct._ZNSt7__cxx1112basic_stringIcSt11char_traitsIcESaIcEEE*  %1 to i8**, !dbg !1736
	%6 = load i8*, i8**  %5, align 8, !tbaa !1508, !dbg !1736
	%7 = getelementptr i8, i8*  %6, i64  %0, !dbg !1736
	store i8 0, i8*  %7, align 1, !tbaa !1509, !dbg !1737
	ret void, !dbg !1738
}
define linkonce_odr signext i8 @_ZNKSt7__cxx1112basic_stringIcSt11char_traitsIcESaIcEE11_M_is_localEv(%struct._ZNSt7__cxx1112basic_stringIcSt11char_traitsIcESaIcEEE* %_T28285720_7545.arg) #0 inlinehint !dbg !1742 {
L.entry:
	%_T28285720_7545.addr = alloca %struct._ZNSt7__cxx1112basic_stringIcSt11char_traitsIcESaIcEEE*, align 8

	call void @llvm.dbg.declare (metadata %struct._ZNSt7__cxx1112basic_stringIcSt11char_traitsIcESaIcEEE** %_T28285720_7545.addr, metadata !1766, metadata !1501), !dbg !1743
	store %struct._ZNSt7__cxx1112basic_stringIcSt11char_traitsIcESaIcEEE* %_T28285720_7545.arg, %struct._ZNSt7__cxx1112basic_stringIcSt11char_traitsIcESaIcEEE** %_T28285720_7545.addr, align 8, !tbaa !1508
	call void @llvm.dbg.declare (metadata %struct._ZNSt7__cxx1112basic_stringIcSt11char_traitsIcESaIcEEE** %_T28285720_7545.addr, metadata !1767, metadata !1501), !dbg !1743
	%0 = load %struct._ZNSt7__cxx1112basic_stringIcSt11char_traitsIcESaIcEEE*, %struct._ZNSt7__cxx1112basic_stringIcSt11char_traitsIcESaIcEEE** %_T28285720_7545.addr, align 8, !tbaa !1508, !dbg !1768
	%1 = bitcast %struct._ZNSt7__cxx1112basic_stringIcSt11char_traitsIcESaIcEEE*  %0 to i8**, !dbg !1768
	%2 = load i8*, i8**  %1, align 8, !tbaa !1508, !dbg !1768
	%3 = bitcast %struct._ZNSt7__cxx1112basic_stringIcSt11char_traitsIcESaIcEEE*  %0 to i8*, !dbg !1768
	%4 = getelementptr i8, i8*  %3, i64 16, !dbg !1768
	%5 = icmp eq i8*  %2,  %4, !dbg !1768
	%6 = zext i1  %5 to i32, !dbg !1768
	%7 = trunc i32  %6 to i8, !dbg !1768
	ret i8  %7, !dbg !1768
}
define linkonce_odr void @_ZNSt7__cxx1112basic_stringIcSt11char_traitsIcESaIcEE10_M_disposeEv(%struct._ZNSt7__cxx1112basic_stringIcSt11char_traitsIcESaIcEEE* %_T28285720_7546.arg) #0 inlinehint !dbg !1773 {
L.entry:
	%_T28285720_7546.addr = alloca %struct._ZNSt7__cxx1112basic_stringIcSt11char_traitsIcESaIcEEE*, align 8
	%..inline.addr = alloca i8*, align 8

	call void @llvm.dbg.declare (metadata %struct._ZNSt7__cxx1112basic_stringIcSt11char_traitsIcESaIcEEE** %_T28285720_7546.addr, metadata !1821, metadata !1501), !dbg !1774
	store %struct._ZNSt7__cxx1112basic_stringIcSt11char_traitsIcESaIcEEE* %_T28285720_7546.arg, %struct._ZNSt7__cxx1112basic_stringIcSt11char_traitsIcESaIcEEE** %_T28285720_7546.addr, align 8, !tbaa !1508
	call void @llvm.dbg.declare (metadata %struct._ZNSt7__cxx1112basic_stringIcSt11char_traitsIcESaIcEEE** %_T28285720_7546.addr, metadata !1822, metadata !1501), !dbg !1774
	%0 = load %struct._ZNSt7__cxx1112basic_stringIcSt11char_traitsIcESaIcEEE*, %struct._ZNSt7__cxx1112basic_stringIcSt11char_traitsIcESaIcEEE** %_T28285720_7546.addr, align 8, !tbaa !1508, !dbg !1823
	%1 = bitcast %struct._ZNSt7__cxx1112basic_stringIcSt11char_traitsIcESaIcEEE*  %0 to i8**, !dbg !1823
	%2 = load i8*, i8**  %1, align 8, !tbaa !1508, !dbg !1823
	%3 = bitcast %struct._ZNSt7__cxx1112basic_stringIcSt11char_traitsIcESaIcEEE*  %0 to i8*, !dbg !1823
	%4 = getelementptr i8, i8*  %3, i64 16, !dbg !1823
	%5 = icmp eq i8*  %2,  %4, !dbg !1823
	br i1  %5, label %L.B0000, label %L.B0148, !dbg !1823
L.B0148:
	%6 = bitcast %struct._ZNSt7__cxx1112basic_stringIcSt11char_traitsIcESaIcEEE*  %0 to i8**, !dbg !1824
	%7 = load i8*, i8**  %6, align 8, !tbaa !1508, !dbg !1824
	call void  @_ZdlPv (i8*  %7) nounwind, !dbg !1824
	br label %L.B0000
L.B0000:
	ret void, !dbg !1825
}
define linkonce_odr void @_ZNSt7__cxx1112basic_stringIcSt11char_traitsIcESaIcEE10_M_destroyEm(%struct._ZNSt7__cxx1112basic_stringIcSt11char_traitsIcESaIcEEE* %_T28285720_7548.arg, i64 %__size.arg) #0 inlinehint !dbg !1827 {
L.entry:
	%_T28285720_7548.addr = alloca %struct._ZNSt7__cxx1112basic_stringIcSt11char_traitsIcESaIcEEE*, align 8
	%__size.addr = alloca i64, align 8
	%..inline.addr = alloca i8*, align 8

	call void @llvm.dbg.declare (metadata %struct._ZNSt7__cxx1112basic_stringIcSt11char_traitsIcESaIcEEE** %_T28285720_7548.addr, metadata !1847, metadata !1501), !dbg !1828
	store %struct._ZNSt7__cxx1112basic_stringIcSt11char_traitsIcESaIcEEE* %_T28285720_7548.arg, %struct._ZNSt7__cxx1112basic_stringIcSt11char_traitsIcESaIcEEE** %_T28285720_7548.addr, align 8, !tbaa !1508
	call void @llvm.dbg.declare (metadata %struct._ZNSt7__cxx1112basic_stringIcSt11char_traitsIcESaIcEEE** %_T28285720_7548.addr, metadata !1848, metadata !1501), !dbg !1828
	call void @llvm.dbg.declare (metadata i64* %__size.addr, metadata !1849, metadata !1501), !dbg !1828
	store i64 %__size.arg, i64* %__size.addr, align 8, !tbaa !1509
	call void @llvm.dbg.declare (metadata i64* %__size.addr, metadata !1850, metadata !1501), !dbg !1828
	%0 = load %struct._ZNSt7__cxx1112basic_stringIcSt11char_traitsIcESaIcEEE*, %struct._ZNSt7__cxx1112basic_stringIcSt11char_traitsIcESaIcEEE** %_T28285720_7548.addr, align 8, !tbaa !1508, !dbg !1851
	%1 = bitcast %struct._ZNSt7__cxx1112basic_stringIcSt11char_traitsIcESaIcEEE*  %0 to i8**, !dbg !1851
	%2 = load i8*, i8**  %1, align 8, !tbaa !1508, !dbg !1851
	call void  @_ZdlPv (i8*  %2) nounwind, !dbg !1851
	ret void, !dbg !1852
}
define linkonce_odr %struct._ZSaIcE* @_ZNSt7__cxx1112basic_stringIcSt11char_traitsIcESaIcEE16_M_get_allocatorEv(%struct._ZNSt7__cxx1112basic_stringIcSt11char_traitsIcESaIcEEE* %_T28285720_7550.arg) #0 inlinehint !dbg !1857 {
L.entry:
	%_T28285720_7550.addr = alloca %struct._ZNSt7__cxx1112basic_stringIcSt11char_traitsIcESaIcEEE*, align 8

	call void @llvm.dbg.declare (metadata %struct._ZNSt7__cxx1112basic_stringIcSt11char_traitsIcESaIcEEE** %_T28285720_7550.addr, metadata !1861, metadata !1501), !dbg !1858
	store %struct._ZNSt7__cxx1112basic_stringIcSt11char_traitsIcESaIcEEE* %_T28285720_7550.arg, %struct._ZNSt7__cxx1112basic_stringIcSt11char_traitsIcESaIcEEE** %_T28285720_7550.addr, align 8, !tbaa !1508
	call void @llvm.dbg.declare (metadata %struct._ZNSt7__cxx1112basic_stringIcSt11char_traitsIcESaIcEEE** %_T28285720_7550.addr, metadata !1862, metadata !1501), !dbg !1858
	%0 = load %struct._ZNSt7__cxx1112basic_stringIcSt11char_traitsIcESaIcEEE*, %struct._ZNSt7__cxx1112basic_stringIcSt11char_traitsIcESaIcEEE** %_T28285720_7550.addr, align 8, !tbaa !1508, !dbg !1863
	%1 = bitcast %struct._ZNSt7__cxx1112basic_stringIcSt11char_traitsIcESaIcEEE*  %0 to %struct._ZSaIcE*, !dbg !1863
	ret %struct._ZSaIcE*  %1, !dbg !1863
}
define linkonce_odr %struct._ZSaIcE* @_ZNKSt7__cxx1112basic_stringIcSt11char_traitsIcESaIcEE16_M_get_allocatorEv(%struct._ZNSt7__cxx1112basic_stringIcSt11char_traitsIcESaIcEEE* %_T28285720_7551.arg) #0 inlinehint !dbg !1865 {
L.entry:
	%_T28285720_7551.addr = alloca %struct._ZNSt7__cxx1112basic_stringIcSt11char_traitsIcESaIcEEE*, align 8

	call void @llvm.dbg.declare (metadata %struct._ZNSt7__cxx1112basic_stringIcSt11char_traitsIcESaIcEEE** %_T28285720_7551.addr, metadata !1869, metadata !1501), !dbg !1866
	store %struct._ZNSt7__cxx1112basic_stringIcSt11char_traitsIcESaIcEEE* %_T28285720_7551.arg, %struct._ZNSt7__cxx1112basic_stringIcSt11char_traitsIcESaIcEEE** %_T28285720_7551.addr, align 8, !tbaa !1508
	call void @llvm.dbg.declare (metadata %struct._ZNSt7__cxx1112basic_stringIcSt11char_traitsIcESaIcEEE** %_T28285720_7551.addr, metadata !1870, metadata !1501), !dbg !1866
	%0 = load %struct._ZNSt7__cxx1112basic_stringIcSt11char_traitsIcESaIcEEE*, %struct._ZNSt7__cxx1112basic_stringIcSt11char_traitsIcESaIcEEE** %_T28285720_7551.addr, align 8, !tbaa !1508, !dbg !1871
	%1 = bitcast %struct._ZNSt7__cxx1112basic_stringIcSt11char_traitsIcESaIcEEE*  %0 to %struct._ZSaIcE*, !dbg !1871
	ret %struct._ZSaIcE*  %1, !dbg !1871
}
define linkonce_odr void @_ZNSt7__cxx1112basic_stringIcSt11char_traitsIcESaIcEEC1Ev(%struct._ZNSt7__cxx1112basic_stringIcSt11char_traitsIcESaIcEEE* %_T28285720_7553.arg) #0 inlinehint !dbg !1873 {
L.entry:
	%_T28285720_7553.addr = alloca %struct._ZNSt7__cxx1112basic_stringIcSt11char_traitsIcESaIcEEE*, align 8
	%..inline.addr = alloca %struct._ZNSt7__cxx1112basic_stringIcSt11char_traitsIcESaIcEEE*, align 8

	call void @llvm.dbg.declare (metadata %struct._ZNSt7__cxx1112basic_stringIcSt11char_traitsIcESaIcEEE** %_T28285720_7553.addr, metadata !1925, metadata !1501), !dbg !1874
	store %struct._ZNSt7__cxx1112basic_stringIcSt11char_traitsIcESaIcEEE* %_T28285720_7553.arg, %struct._ZNSt7__cxx1112basic_stringIcSt11char_traitsIcESaIcEEE** %_T28285720_7553.addr, align 8, !tbaa !1508
	call void @llvm.dbg.declare (metadata %struct._ZNSt7__cxx1112basic_stringIcSt11char_traitsIcESaIcEEE** %_T28285720_7553.addr, metadata !1926, metadata !1501), !dbg !1874
	%0 = load %struct._ZNSt7__cxx1112basic_stringIcSt11char_traitsIcESaIcEEE*, %struct._ZNSt7__cxx1112basic_stringIcSt11char_traitsIcESaIcEEE** %_T28285720_7553.addr, align 8, !tbaa !1508, !dbg !1927
	%1 = bitcast %struct._ZNSt7__cxx1112basic_stringIcSt11char_traitsIcESaIcEEE*  %0 to i8*, !dbg !1927
	%2 = getelementptr i8, i8*  %1, i64 16, !dbg !1927
	%3 = bitcast %struct._ZNSt7__cxx1112basic_stringIcSt11char_traitsIcESaIcEEE*  %0 to i8**, !dbg !1927
	store i8*  %2, i8**  %3, align 8, !tbaa !1508, !dbg !1927
	%4 = bitcast %struct._ZNSt7__cxx1112basic_stringIcSt11char_traitsIcESaIcEEE** %..inline.addr to i8**, !dbg !1928
	store i8*  %1, i8**  %4, align 8, !tbaa !1508, !dbg !1928
	%5 = getelementptr i8, i8*  %1, i64 8, !dbg !1929
	%6 = bitcast i8*  %5 to i64*, !dbg !1929
	store i64 0, i64*  %6, align 8, !tbaa !1509, !dbg !1929
	%7 = load %struct._ZNSt7__cxx1112basic_stringIcSt11char_traitsIcESaIcEEE*, %struct._ZNSt7__cxx1112basic_stringIcSt11char_traitsIcESaIcEEE** %..inline.addr, align 8, !tbaa !1508, !dbg !1930
	%8 = bitcast %struct._ZNSt7__cxx1112basic_stringIcSt11char_traitsIcESaIcEEE*  %7 to i8**, !dbg !1930
	%9 = load i8*, i8**  %8, align 8, !tbaa !1508, !dbg !1930
	store i8 0, i8*  %9, align 1, !tbaa !1509, !dbg !1930
	ret void, !dbg !1928
}
define linkonce_odr void @_ZNSt7__cxx1112basic_stringIcSt11char_traitsIcESaIcEEC2Ev(%struct._ZNSt7__cxx1112basic_stringIcSt11char_traitsIcESaIcEEE* %_T28285720_7554.arg) #0 inlinehint !dbg !1932 {
L.entry:
	%_T28285720_7554.addr = alloca %struct._ZNSt7__cxx1112basic_stringIcSt11char_traitsIcESaIcEEE*, align 8
	%..inline.addr = alloca %struct._ZNSt7__cxx1112basic_stringIcSt11char_traitsIcESaIcEEE*, align 8
	%..inline.addr.1 = alloca %struct._ZNSt7__cxx1112basic_stringIcSt11char_traitsIcESaIcEEE*, align 8

	store %struct._ZNSt7__cxx1112basic_stringIcSt11char_traitsIcESaIcEEE* %_T28285720_7554.arg, %struct._ZNSt7__cxx1112basic_stringIcSt11char_traitsIcESaIcEEE** %_T28285720_7554.addr, align 8, !tbaa !1508
	%0 = load %struct._ZNSt7__cxx1112basic_stringIcSt11char_traitsIcESaIcEEE*, %struct._ZNSt7__cxx1112basic_stringIcSt11char_traitsIcESaIcEEE** %_T28285720_7554.addr, align 8, !tbaa !1508, !dbg !1988
	%1 = bitcast %struct._ZNSt7__cxx1112basic_stringIcSt11char_traitsIcESaIcEEE*  %0 to i8*, !dbg !1988
	%2 = bitcast %struct._ZNSt7__cxx1112basic_stringIcSt11char_traitsIcESaIcEEE** %..inline.addr to i8**, !dbg !1988
	store i8*  %1, i8**  %2, align 8, !tbaa !1508, !dbg !1988
	%3 = getelementptr i8, i8*  %1, i64 16, !dbg !1989
	%4 = bitcast %struct._ZNSt7__cxx1112basic_stringIcSt11char_traitsIcESaIcEEE*  %0 to i8**, !dbg !1989
	store i8*  %3, i8**  %4, align 8, !tbaa !1508, !dbg !1989
	%5 = load %struct._ZNSt7__cxx1112basic_stringIcSt11char_traitsIcESaIcEEE*, %struct._ZNSt7__cxx1112basic_stringIcSt11char_traitsIcESaIcEEE** %..inline.addr, align 8, !tbaa !1508, !dbg !1989
	%6 = bitcast %struct._ZNSt7__cxx1112basic_stringIcSt11char_traitsIcESaIcEEE*  %5 to i8*, !dbg !1989
	%7 = bitcast %struct._ZNSt7__cxx1112basic_stringIcSt11char_traitsIcESaIcEEE** %..inline.addr.1 to i8**, !dbg !1989
	store i8*  %6, i8**  %7, align 8, !tbaa !1508, !dbg !1989
	%8 = getelementptr i8, i8*  %6, i64 8, !dbg !1989
	%9 = bitcast i8*  %8 to i64*, !dbg !1989
	store i64 0, i64*  %9, align 8, !tbaa !1509, !dbg !1989
	%10 = load %struct._ZNSt7__cxx1112basic_stringIcSt11char_traitsIcESaIcEEE*, %struct._ZNSt7__cxx1112basic_stringIcSt11char_traitsIcESaIcEEE** %..inline.addr.1, align 8, !tbaa !1508, !dbg !1989
	%11 = bitcast %struct._ZNSt7__cxx1112basic_stringIcSt11char_traitsIcESaIcEEE*  %10 to i8**, !dbg !1989
	%12 = load i8*, i8**  %11, align 8, !tbaa !1508, !dbg !1989
	store i8 0, i8*  %12, align 1, !tbaa !1509, !dbg !1989
	ret void, !dbg !1989
}
define linkonce_odr void @_ZNSt7__cxx1112basic_stringIcSt11char_traitsIcESaIcEED1Ev(%struct._ZNSt7__cxx1112basic_stringIcSt11char_traitsIcESaIcEEE* %_T28285720_7555.arg) #0 inlinehint !dbg !1991 {
L.entry:
	%_T28285720_7555.addr = alloca %struct._ZNSt7__cxx1112basic_stringIcSt11char_traitsIcESaIcEEE*, align 8
	%..inline.addr = alloca i8*, align 8

	call void @llvm.dbg.declare (metadata %struct._ZNSt7__cxx1112basic_stringIcSt11char_traitsIcESaIcEEE** %_T28285720_7555.addr, metadata !2043, metadata !1501), !dbg !1992
	store %struct._ZNSt7__cxx1112basic_stringIcSt11char_traitsIcESaIcEEE* %_T28285720_7555.arg, %struct._ZNSt7__cxx1112basic_stringIcSt11char_traitsIcESaIcEEE** %_T28285720_7555.addr, align 8, !tbaa !1508
	call void @llvm.dbg.declare (metadata %struct._ZNSt7__cxx1112basic_stringIcSt11char_traitsIcESaIcEEE** %_T28285720_7555.addr, metadata !2044, metadata !1501), !dbg !1992
	%0 = load %struct._ZNSt7__cxx1112basic_stringIcSt11char_traitsIcESaIcEEE*, %struct._ZNSt7__cxx1112basic_stringIcSt11char_traitsIcESaIcEEE** %_T28285720_7555.addr, align 8, !tbaa !1508, !dbg !2045
	%1 = bitcast %struct._ZNSt7__cxx1112basic_stringIcSt11char_traitsIcESaIcEEE*  %0 to i8**, !dbg !2045
	%2 = load i8*, i8**  %1, align 8, !tbaa !1508, !dbg !2045
	%3 = bitcast %struct._ZNSt7__cxx1112basic_stringIcSt11char_traitsIcESaIcEEE*  %0 to i8*, !dbg !2045
	%4 = getelementptr i8, i8*  %3, i64 16, !dbg !2045
	%5 = icmp eq i8*  %2,  %4, !dbg !2045
	br i1  %5, label %L..inline.10042, label %L.B0165, !dbg !2045
L.B0165:
	%6 = bitcast %struct._ZNSt7__cxx1112basic_stringIcSt11char_traitsIcESaIcEEE*  %0 to i8**, !dbg !2046
	%7 = load i8*, i8**  %6, align 8, !tbaa !1508, !dbg !2046
	call void  @_ZdlPv (i8*  %7) nounwind, !dbg !2046
	br label %L..inline.10042
L..inline.10042:
	ret void, !dbg !2047
}
define linkonce_odr void @_ZNSt7__cxx1112basic_stringIcSt11char_traitsIcESaIcEED2Ev(%struct._ZNSt7__cxx1112basic_stringIcSt11char_traitsIcESaIcEEE* %_T28285720_7556.arg) #0 inlinehint !dbg !2049 {
L.entry:
	%_T28285720_7556.addr = alloca %struct._ZNSt7__cxx1112basic_stringIcSt11char_traitsIcESaIcEEE*, align 8
	%..inline.addr = alloca i8*, align 8

	store %struct._ZNSt7__cxx1112basic_stringIcSt11char_traitsIcESaIcEEE* %_T28285720_7556.arg, %struct._ZNSt7__cxx1112basic_stringIcSt11char_traitsIcESaIcEEE** %_T28285720_7556.addr, align 8, !tbaa !1508
	%0 = load %struct._ZNSt7__cxx1112basic_stringIcSt11char_traitsIcESaIcEEE*, %struct._ZNSt7__cxx1112basic_stringIcSt11char_traitsIcESaIcEEE** %_T28285720_7556.addr, align 8, !tbaa !1508, !dbg !2105
	%1 = bitcast %struct._ZNSt7__cxx1112basic_stringIcSt11char_traitsIcESaIcEEE*  %0 to i8**, !dbg !2105
	%2 = load i8*, i8**  %1, align 8, !tbaa !1508, !dbg !2105
	%3 = bitcast %struct._ZNSt7__cxx1112basic_stringIcSt11char_traitsIcESaIcEEE*  %0 to i8*, !dbg !2105
	%4 = getelementptr i8, i8*  %3, i64 16, !dbg !2105
	%5 = icmp eq i8*  %2,  %4, !dbg !2105
	br i1  %5, label %L..inline.10148, label %L.B0168, !dbg !2105
L.B0168:
	%6 = bitcast %struct._ZNSt7__cxx1112basic_stringIcSt11char_traitsIcESaIcEEE*  %0 to i8**, !dbg !2105
	%7 = load i8*, i8**  %6, align 8, !tbaa !1508, !dbg !2105
	call void  @_ZdlPv (i8*  %7) nounwind, !dbg !2105
	br label %L..inline.10148
L..inline.10148:
	ret void, !dbg !2105
}
define linkonce_odr %struct._ZNSt7__cxx1112basic_stringIcSt11char_traitsIcESaIcEEE* @_ZNSt7__cxx1112basic_stringIcSt11char_traitsIcESaIcEEaSERKS4_(%struct._ZNSt7__cxx1112basic_stringIcSt11char_traitsIcESaIcEEE* %_T28285720_7557.arg, %struct._ZNSt7__cxx1112basic_stringIcSt11char_traitsIcESaIcEEE* %__str.arg) #0 inlinehint !dbg !2115 {
L.entry:
	%_T28285720_7557.addr = alloca %struct._ZNSt7__cxx1112basic_stringIcSt11char_traitsIcESaIcEEE*, align 8
	%__str.addr = alloca %struct._ZNSt7__cxx1112basic_stringIcSt11char_traitsIcESaIcEEE*, align 8
	%..inline.addr = alloca %struct._ZNSt7__cxx1112basic_stringIcSt11char_traitsIcESaIcEEE*, align 8
	%..inline.addr.1 = alloca %struct._ZNSt7__cxx1112basic_stringIcSt11char_traitsIcESaIcEEE*, align 8

	call void @llvm.dbg.declare (metadata %struct._ZNSt7__cxx1112basic_stringIcSt11char_traitsIcESaIcEEE** %_T28285720_7557.addr, metadata !2273, metadata !1501), !dbg !2116
	store %struct._ZNSt7__cxx1112basic_stringIcSt11char_traitsIcESaIcEEE* %_T28285720_7557.arg, %struct._ZNSt7__cxx1112basic_stringIcSt11char_traitsIcESaIcEEE** %_T28285720_7557.addr, align 8, !tbaa !1508
	call void @llvm.dbg.declare (metadata %struct._ZNSt7__cxx1112basic_stringIcSt11char_traitsIcESaIcEEE** %_T28285720_7557.addr, metadata !2274, metadata !1501), !dbg !2116
	call void @llvm.dbg.declare (metadata %struct._ZNSt7__cxx1112basic_stringIcSt11char_traitsIcESaIcEEE** %__str.addr, metadata !2275, metadata !1501), !dbg !2116
	store %struct._ZNSt7__cxx1112basic_stringIcSt11char_traitsIcESaIcEEE* %__str.arg, %struct._ZNSt7__cxx1112basic_stringIcSt11char_traitsIcESaIcEEE** %__str.addr, align 8, !tbaa !1508
	call void @llvm.dbg.declare (metadata %struct._ZNSt7__cxx1112basic_stringIcSt11char_traitsIcESaIcEEE** %__str.addr, metadata !2276, metadata !1501), !dbg !2116
	%0 = load %struct._ZNSt7__cxx1112basic_stringIcSt11char_traitsIcESaIcEEE*, %struct._ZNSt7__cxx1112basic_stringIcSt11char_traitsIcESaIcEEE** %_T28285720_7557.addr, align 8, !tbaa !1508, !dbg !2277
	%1 = bitcast %struct._ZNSt7__cxx1112basic_stringIcSt11char_traitsIcESaIcEEE*  %0 to i8*, !dbg !2277
	%2 = bitcast %struct._ZNSt7__cxx1112basic_stringIcSt11char_traitsIcESaIcEEE** %..inline.addr to i8**, !dbg !2277
	store i8*  %1, i8**  %2, align 8, !tbaa !1508, !dbg !2277
	%3 = load %struct._ZNSt7__cxx1112basic_stringIcSt11char_traitsIcESaIcEEE*, %struct._ZNSt7__cxx1112basic_stringIcSt11char_traitsIcESaIcEEE** %__str.addr, align 8, !tbaa !1508, !dbg !2277
	%4 = bitcast %struct._ZNSt7__cxx1112basic_stringIcSt11char_traitsIcESaIcEEE*  %3 to i8*, !dbg !2277
	%5 = bitcast %struct._ZNSt7__cxx1112basic_stringIcSt11char_traitsIcESaIcEEE** %..inline.addr.1 to i8**, !dbg !2277
	store i8*  %4, i8**  %5, align 8, !tbaa !1508, !dbg !2277
	%6 = load %struct._ZNSt7__cxx1112basic_stringIcSt11char_traitsIcESaIcEEE*, %struct._ZNSt7__cxx1112basic_stringIcSt11char_traitsIcESaIcEEE** %..inline.addr, align 8, !tbaa !1508, !dbg !2278
	%7 = load %struct._ZNSt7__cxx1112basic_stringIcSt11char_traitsIcESaIcEEE*, %struct._ZNSt7__cxx1112basic_stringIcSt11char_traitsIcESaIcEEE** %..inline.addr.1, align 8, !tbaa !1508, !dbg !2278
	call void  @_ZNSt7__cxx1112basic_stringIcSt11char_traitsIcESaIcEE9_M_assignERKS4_ (%struct._ZNSt7__cxx1112basic_stringIcSt11char_traitsIcESaIcEEE*  %6, %struct._ZNSt7__cxx1112basic_stringIcSt11char_traitsIcESaIcEEE*  %7), !dbg !2278
	%8 = load %struct._ZNSt7__cxx1112basic_stringIcSt11char_traitsIcESaIcEEE*, %struct._ZNSt7__cxx1112basic_stringIcSt11char_traitsIcESaIcEEE** %..inline.addr, align 8, !tbaa !1508, !dbg !2277
	ret %struct._ZNSt7__cxx1112basic_stringIcSt11char_traitsIcESaIcEEE*  %8, !dbg !2277
}
define linkonce_odr i64 @_ZNKSt7__cxx1112basic_stringIcSt11char_traitsIcESaIcEE4sizeEv(%struct._ZNSt7__cxx1112basic_stringIcSt11char_traitsIcESaIcEEE* %_T28285720_7559.arg) #0 inlinehint !dbg !2283 {
L.entry:
	%_T28285720_7559.addr = alloca %struct._ZNSt7__cxx1112basic_stringIcSt11char_traitsIcESaIcEEE*, align 8

	call void @llvm.dbg.declare (metadata %struct._ZNSt7__cxx1112basic_stringIcSt11char_traitsIcESaIcEEE** %_T28285720_7559.addr, metadata !2287, metadata !1501), !dbg !2284
	store %struct._ZNSt7__cxx1112basic_stringIcSt11char_traitsIcESaIcEEE* %_T28285720_7559.arg, %struct._ZNSt7__cxx1112basic_stringIcSt11char_traitsIcESaIcEEE** %_T28285720_7559.addr, align 8, !tbaa !1508
	call void @llvm.dbg.declare (metadata %struct._ZNSt7__cxx1112basic_stringIcSt11char_traitsIcESaIcEEE** %_T28285720_7559.addr, metadata !2288, metadata !1501), !dbg !2284
	%0 = load %struct._ZNSt7__cxx1112basic_stringIcSt11char_traitsIcESaIcEEE*, %struct._ZNSt7__cxx1112basic_stringIcSt11char_traitsIcESaIcEEE** %_T28285720_7559.addr, align 8, !tbaa !1508, !dbg !2289
	%1 = bitcast %struct._ZNSt7__cxx1112basic_stringIcSt11char_traitsIcESaIcEEE*  %0 to i8*, !dbg !2289
	%2 = getelementptr i8, i8*  %1, i64 8, !dbg !2289
	%3 = bitcast i8*  %2 to i64*, !dbg !2289
	%4 = load i64, i64*  %3, align 8, !tbaa !1509, !dbg !2289
	ret i64  %4, !dbg !2289
}
define linkonce_odr %struct._ZNSt7__cxx1112basic_stringIcSt11char_traitsIcESaIcEEE* @_ZNSt7__cxx1112basic_stringIcSt11char_traitsIcESaIcEE6assignERKS4_(%struct._ZNSt7__cxx1112basic_stringIcSt11char_traitsIcESaIcEEE* %_T28285720_7560.arg, %struct._ZNSt7__cxx1112basic_stringIcSt11char_traitsIcESaIcEEE* %__str.arg) #0 inlinehint !dbg !2291 {
L.entry:
	%_T28285720_7560.addr = alloca %struct._ZNSt7__cxx1112basic_stringIcSt11char_traitsIcESaIcEEE*, align 8
	%__str.addr = alloca %struct._ZNSt7__cxx1112basic_stringIcSt11char_traitsIcESaIcEEE*, align 8

	call void @llvm.dbg.declare (metadata %struct._ZNSt7__cxx1112basic_stringIcSt11char_traitsIcESaIcEEE** %_T28285720_7560.addr, metadata !2295, metadata !1501), !dbg !2292
	store %struct._ZNSt7__cxx1112basic_stringIcSt11char_traitsIcESaIcEEE* %_T28285720_7560.arg, %struct._ZNSt7__cxx1112basic_stringIcSt11char_traitsIcESaIcEEE** %_T28285720_7560.addr, align 8, !tbaa !1508
	call void @llvm.dbg.declare (metadata %struct._ZNSt7__cxx1112basic_stringIcSt11char_traitsIcESaIcEEE** %_T28285720_7560.addr, metadata !2296, metadata !1501), !dbg !2292
	call void @llvm.dbg.declare (metadata %struct._ZNSt7__cxx1112basic_stringIcSt11char_traitsIcESaIcEEE** %__str.addr, metadata !2297, metadata !1501), !dbg !2292
	store %struct._ZNSt7__cxx1112basic_stringIcSt11char_traitsIcESaIcEEE* %__str.arg, %struct._ZNSt7__cxx1112basic_stringIcSt11char_traitsIcESaIcEEE** %__str.addr, align 8, !tbaa !1508
	call void @llvm.dbg.declare (metadata %struct._ZNSt7__cxx1112basic_stringIcSt11char_traitsIcESaIcEEE** %__str.addr, metadata !2298, metadata !1501), !dbg !2292
	%0 = load %struct._ZNSt7__cxx1112basic_stringIcSt11char_traitsIcESaIcEEE*, %struct._ZNSt7__cxx1112basic_stringIcSt11char_traitsIcESaIcEEE** %_T28285720_7560.addr, align 8, !tbaa !1508, !dbg !2299
	%1 = load %struct._ZNSt7__cxx1112basic_stringIcSt11char_traitsIcESaIcEEE*, %struct._ZNSt7__cxx1112basic_stringIcSt11char_traitsIcESaIcEEE** %__str.addr, align 8, !tbaa !1508, !dbg !2299
	call void  @_ZNSt7__cxx1112basic_stringIcSt11char_traitsIcESaIcEE9_M_assignERKS4_ (%struct._ZNSt7__cxx1112basic_stringIcSt11char_traitsIcESaIcEEE*  %0, %struct._ZNSt7__cxx1112basic_stringIcSt11char_traitsIcESaIcEEE*  %1), !dbg !2299
	%2 = load %struct._ZNSt7__cxx1112basic_stringIcSt11char_traitsIcESaIcEEE*, %struct._ZNSt7__cxx1112basic_stringIcSt11char_traitsIcESaIcEEE** %_T28285720_7560.addr, align 8, !tbaa !1508, !dbg !2300
	ret %struct._ZNSt7__cxx1112basic_stringIcSt11char_traitsIcESaIcEEE*  %2, !dbg !2300
}
define linkonce_odr void @_ZNSt7__cxx1112basic_stringIcSt11char_traitsIcESaIcEE12_Alloc_hiderC1EPcOS3_(%struct._ZNSt7__cxx1112basic_stringIcSt11char_traitsIcESaIcEE12_Alloc_hiderE* %_T28285720_7562.arg, i8* %__dat.arg, %struct._ZSaIcE* %__a.arg) #0 inlinehint !dbg !2310 {
L.entry:
	%_T28285720_7562.addr = alloca %struct._ZNSt7__cxx1112basic_stringIcSt11char_traitsIcESaIcEE12_Alloc_hiderE*, align 8
	%__dat.addr = alloca i8*, align 8
	%__a.addr = alloca %struct._ZSaIcE*, align 8

	call void @llvm.dbg.declare (metadata %struct._ZNSt7__cxx1112basic_stringIcSt11char_traitsIcESaIcEE12_Alloc_hiderE** %_T28285720_7562.addr, metadata !2326, metadata !1501), !dbg !2311
	store %struct._ZNSt7__cxx1112basic_stringIcSt11char_traitsIcESaIcEE12_Alloc_hiderE* %_T28285720_7562.arg, %struct._ZNSt7__cxx1112basic_stringIcSt11char_traitsIcESaIcEE12_Alloc_hiderE** %_T28285720_7562.addr, align 8, !tbaa !1508
	call void @llvm.dbg.declare (metadata %struct._ZNSt7__cxx1112basic_stringIcSt11char_traitsIcESaIcEE12_Alloc_hiderE** %_T28285720_7562.addr, metadata !2327, metadata !1501), !dbg !2311
	call void @llvm.dbg.declare (metadata i8** %__dat.addr, metadata !2328, metadata !1501), !dbg !2311
	store i8* %__dat.arg, i8** %__dat.addr, align 8, !tbaa !1508
	call void @llvm.dbg.declare (metadata i8** %__dat.addr, metadata !2329, metadata !1501), !dbg !2311
	call void @llvm.dbg.declare (metadata %struct._ZSaIcE** %__a.addr, metadata !2330, metadata !1501), !dbg !2311
	store %struct._ZSaIcE* %__a.arg, %struct._ZSaIcE** %__a.addr, align 8, !tbaa !1508
	call void @llvm.dbg.declare (metadata %struct._ZSaIcE** %__a.addr, metadata !2331, metadata !1501), !dbg !2311
	%0 = load i8*, i8** %__dat.addr, align 8, !tbaa !1508, !dbg !2332
	%1 = load %struct._ZNSt7__cxx1112basic_stringIcSt11char_traitsIcESaIcEE12_Alloc_hiderE*, %struct._ZNSt7__cxx1112basic_stringIcSt11char_traitsIcESaIcEE12_Alloc_hiderE** %_T28285720_7562.addr, align 8, !tbaa !1508, !dbg !2332
	%2 = bitcast %struct._ZNSt7__cxx1112basic_stringIcSt11char_traitsIcESaIcEE12_Alloc_hiderE*  %1 to i8**, !dbg !2332
	store i8*  %0, i8**  %2, align 8, !tbaa !1508, !dbg !2332
	ret void, !dbg !2332
}
define linkonce_odr void @_ZNSt7__cxx1112basic_stringIcSt11char_traitsIcESaIcEE12_Alloc_hiderC2EPcOS3_(%struct._ZNSt7__cxx1112basic_stringIcSt11char_traitsIcESaIcEE12_Alloc_hiderE* %_T28285720_7564.arg, i8* %_T28286016_7564.arg, %struct._ZSaIcE* %_T28286312_7564.arg) #0 inlinehint !dbg !2334 {
L.entry:
	%_T28285720_7564.addr = alloca %struct._ZNSt7__cxx1112basic_stringIcSt11char_traitsIcESaIcEE12_Alloc_hiderE*, align 8
	%_T28286016_7564.addr = alloca i8*, align 8
	%_T28286312_7564.addr = alloca %struct._ZSaIcE*, align 8

	store %struct._ZNSt7__cxx1112basic_stringIcSt11char_traitsIcESaIcEE12_Alloc_hiderE* %_T28285720_7564.arg, %struct._ZNSt7__cxx1112basic_stringIcSt11char_traitsIcESaIcEE12_Alloc_hiderE** %_T28285720_7564.addr, align 8, !tbaa !1508
	store i8* %_T28286016_7564.arg, i8** %_T28286016_7564.addr, align 8, !tbaa !1508
	store %struct._ZSaIcE* %_T28286312_7564.arg, %struct._ZSaIcE** %_T28286312_7564.addr, align 8, !tbaa !1508
	%0 = load i8*, i8** %_T28286016_7564.addr, align 8, !tbaa !1508, !dbg !2354
	%1 = load %struct._ZNSt7__cxx1112basic_stringIcSt11char_traitsIcESaIcEE12_Alloc_hiderE*, %struct._ZNSt7__cxx1112basic_stringIcSt11char_traitsIcESaIcEE12_Alloc_hiderE** %_T28285720_7564.addr, align 8, !tbaa !1508, !dbg !2354
	%2 = bitcast %struct._ZNSt7__cxx1112basic_stringIcSt11char_traitsIcESaIcEE12_Alloc_hiderE*  %1 to i8**, !dbg !2354
	store i8*  %0, i8**  %2, align 8, !tbaa !1508, !dbg !2354
	ret void, !dbg !2354
}

%struct._ZN9__gnu_cxx13new_allocatorIcEE = type <{ [1 x i8]}> 

define linkonce_odr i8* @_ZN9__gnu_cxx13new_allocatorIcE8allocateEmPKv(%struct._ZN9__gnu_cxx13new_allocatorIcEE* %_T28285720_7567.arg, i64 %__n.arg, i8* %_T28286312_7567.arg) #0 inlinehint !dbg !2361 {
L.entry:
	%_T28285720_7567.addr = alloca %struct._ZN9__gnu_cxx13new_allocatorIcEE*, align 8
	%__n.addr = alloca i64, align 8
	%_T28286312_7567.addr = alloca i8*, align 8
	%.Q0002.addr = alloca i8*, align 8

	call void @llvm.dbg.declare (metadata %struct._ZN9__gnu_cxx13new_allocatorIcEE** %_T28285720_7567.addr, metadata !2369, metadata !1501), !dbg !2362
	store %struct._ZN9__gnu_cxx13new_allocatorIcEE* %_T28285720_7567.arg, %struct._ZN9__gnu_cxx13new_allocatorIcEE** %_T28285720_7567.addr, align 8, !tbaa !1508
	call void @llvm.dbg.declare (metadata %struct._ZN9__gnu_cxx13new_allocatorIcEE** %_T28285720_7567.addr, metadata !2370, metadata !1501), !dbg !2362
	call void @llvm.dbg.declare (metadata i64* %__n.addr, metadata !2371, metadata !1501), !dbg !2362
	store i64 %__n.arg, i64* %__n.addr, align 8, !tbaa !1509
	call void @llvm.dbg.declare (metadata i64* %__n.addr, metadata !2372, metadata !1501), !dbg !2362
	call void @llvm.dbg.declare (metadata i8** %_T28286312_7567.addr, metadata !2373, metadata !1501), !dbg !2362
	store i8* %_T28286312_7567.arg, i8** %_T28286312_7567.addr, align 8, !tbaa !1508
	call void @llvm.dbg.declare (metadata i8** %_T28286312_7567.addr, metadata !2374, metadata !1501), !dbg !2362
	%0 = load i64, i64* %__n.addr, align 8, !tbaa !1569, !dbg !2375
	%1 = icmp ule i64  %0, -1, !dbg !2375
	br i1  %1, label %L.B0011, label %L.B0211, !dbg !2375
L.B0211:
	call void  @_ZSt17__throw_bad_allocv () noreturn, !dbg !2376
	br label %L.B0011
L.B0011:
	%2 = load i64, i64* %__n.addr, align 8, !tbaa !1569, !dbg !2377
	%3 = call i8*  @_Znwm (i64  %2), !dbg !2377
	store i8*  %3, i8** %.Q0002.addr, align 8, !tbaa !1508, !dbg !2377
	ret i8*  %3, !dbg !2377
}
define linkonce_odr void @_ZN9__gnu_cxx13new_allocatorIcE10deallocateEPcm(%struct._ZN9__gnu_cxx13new_allocatorIcEE* %_T28285720_7570.arg, i8* %__p.arg, i64 %_T28286312_7570.arg) #0 inlinehint !dbg !2382 {
L.entry:
	%_T28285720_7570.addr = alloca %struct._ZN9__gnu_cxx13new_allocatorIcEE*, align 8
	%__p.addr = alloca i8*, align 8
	%_T28286312_7570.addr = alloca i64, align 8

	call void @llvm.dbg.declare (metadata %struct._ZN9__gnu_cxx13new_allocatorIcEE** %_T28285720_7570.addr, metadata !2386, metadata !1501), !dbg !2383
	store %struct._ZN9__gnu_cxx13new_allocatorIcEE* %_T28285720_7570.arg, %struct._ZN9__gnu_cxx13new_allocatorIcEE** %_T28285720_7570.addr, align 8, !tbaa !1508
	call void @llvm.dbg.declare (metadata %struct._ZN9__gnu_cxx13new_allocatorIcEE** %_T28285720_7570.addr, metadata !2387, metadata !1501), !dbg !2383
	call void @llvm.dbg.declare (metadata i8** %__p.addr, metadata !2388, metadata !1501), !dbg !2383
	store i8* %__p.arg, i8** %__p.addr, align 8, !tbaa !1508
	call void @llvm.dbg.declare (metadata i8** %__p.addr, metadata !2389, metadata !1501), !dbg !2383
	call void @llvm.dbg.declare (metadata i64* %_T28286312_7570.addr, metadata !2390, metadata !1501), !dbg !2383
	store i64 %_T28286312_7570.arg, i64* %_T28286312_7570.addr, align 8, !tbaa !1509
	call void @llvm.dbg.declare (metadata i64* %_T28286312_7570.addr, metadata !2391, metadata !1501), !dbg !2383
	%0 = load i8*, i8** %__p.addr, align 8, !tbaa !1508, !dbg !2392
	call void  @_ZdlPv (i8*  %0) nounwind, !dbg !2392
	ret void, !dbg !2393
}
define linkonce_odr i64 @_ZNK9__gnu_cxx13new_allocatorIcE8max_sizeEv(%struct._ZN9__gnu_cxx13new_allocatorIcEE* %_T28285720_7572.arg) #0 inlinehint !dbg !2397 {
L.entry:
	%_T28285720_7572.addr = alloca %struct._ZN9__gnu_cxx13new_allocatorIcEE*, align 8

	call void @llvm.dbg.declare (metadata %struct._ZN9__gnu_cxx13new_allocatorIcEE** %_T28285720_7572.addr, metadata !2401, metadata !1501), !dbg !2398
	store %struct._ZN9__gnu_cxx13new_allocatorIcEE* %_T28285720_7572.arg, %struct._ZN9__gnu_cxx13new_allocatorIcEE** %_T28285720_7572.addr, align 8, !tbaa !1508
	call void @llvm.dbg.declare (metadata %struct._ZN9__gnu_cxx13new_allocatorIcEE** %_T28285720_7572.addr, metadata !2402, metadata !1501), !dbg !2398
	ret i64 -1, !dbg !2403
}

%struct._ZN7species7SpeciesE = type <{ %struct._ZNSt7__cxx1112basic_stringIcSt11char_traitsIcESaIcEEE, double, double, double, i64, i32, i8, [3 x i8], i32, [4 x i8], double, double, double, double, double, %struct._ZSt5arrayIdLm3EE, double, double, double, double, i32, [4 x i8], double, double, double}> 
%struct._ZSt5arrayIdLm3EE = type <{ [3 x double]}> 

define void @_ZN7species7SpeciesC1Ev(%struct._ZN7species7SpeciesE* %_T28285720_7573.arg) #0 inlinehint !dbg !2409 {
L.entry:
	%_T28285720_7573.addr = alloca %struct._ZN7species7SpeciesE*, align 8
	%..inline.addr = alloca %struct._ZNSt7__cxx1112basic_stringIcSt11char_traitsIcESaIcEEE*, align 8
	%..inline.addr.1 = alloca %struct._ZNSt7__cxx1112basic_stringIcSt11char_traitsIcESaIcEEE*, align 8

	call void @llvm.dbg.declare (metadata %struct._ZN7species7SpeciesE** %_T28285720_7573.addr, metadata !2465, metadata !1501), !dbg !2410
	store %struct._ZN7species7SpeciesE* %_T28285720_7573.arg, %struct._ZN7species7SpeciesE** %_T28285720_7573.addr, align 8, !tbaa !1508
	call void @llvm.dbg.declare (metadata %struct._ZN7species7SpeciesE** %_T28285720_7573.addr, metadata !2466, metadata !1501), !dbg !2410
	%0 = load %struct._ZN7species7SpeciesE*, %struct._ZN7species7SpeciesE** %_T28285720_7573.addr, align 8, !tbaa !1508, !dbg !2467
	%1 = bitcast %struct._ZN7species7SpeciesE*  %0 to i8*, !dbg !2467
	%2 = bitcast %struct._ZNSt7__cxx1112basic_stringIcSt11char_traitsIcESaIcEEE** %..inline.addr to i8**, !dbg !2467
	store i8*  %1, i8**  %2, align 8, !tbaa !1508, !dbg !2467
	%3 = getelementptr i8, i8*  %1, i64 16, !dbg !2468
	%4 = bitcast %struct._ZN7species7SpeciesE*  %0 to i8**, !dbg !2468
	store i8*  %3, i8**  %4, align 8, !tbaa !1508, !dbg !2468
	%5 = load %struct._ZNSt7__cxx1112basic_stringIcSt11char_traitsIcESaIcEEE*, %struct._ZNSt7__cxx1112basic_stringIcSt11char_traitsIcESaIcEEE** %..inline.addr, align 8, !tbaa !1508, !dbg !2468
	%6 = bitcast %struct._ZNSt7__cxx1112basic_stringIcSt11char_traitsIcESaIcEEE*  %5 to i8*, !dbg !2468
	%7 = bitcast %struct._ZNSt7__cxx1112basic_stringIcSt11char_traitsIcESaIcEEE** %..inline.addr.1 to i8**, !dbg !2468
	store i8*  %6, i8**  %7, align 8, !tbaa !1508, !dbg !2468
	%8 = getelementptr i8, i8*  %6, i64 8, !dbg !2468
	%9 = bitcast i8*  %8 to i64*, !dbg !2468
	store i64 0, i64*  %9, align 8, !tbaa !1509, !dbg !2468
	%10 = load %struct._ZNSt7__cxx1112basic_stringIcSt11char_traitsIcESaIcEEE*, %struct._ZNSt7__cxx1112basic_stringIcSt11char_traitsIcESaIcEEE** %..inline.addr.1, align 8, !tbaa !1508, !dbg !2468
	%11 = bitcast %struct._ZNSt7__cxx1112basic_stringIcSt11char_traitsIcESaIcEEE*  %10 to i8**, !dbg !2468
	%12 = load i8*, i8**  %11, align 8, !tbaa !1508, !dbg !2468
	store i8 0, i8*  %12, align 1, !tbaa !1509, !dbg !2468
	ret void, !dbg !2467
}
define void @_ZN7species7SpeciesC2Ev(%struct._ZN7species7SpeciesE* %_T28285720_7574.arg) #0 inlinehint !dbg !2470 {
L.entry:
	%_T28285720_7574.addr = alloca %struct._ZN7species7SpeciesE*, align 8
	%..inline.addr = alloca %struct._ZNSt7__cxx1112basic_stringIcSt11char_traitsIcESaIcEEE*, align 8
	%..inline.addr.1 = alloca %struct._ZNSt7__cxx1112basic_stringIcSt11char_traitsIcESaIcEEE*, align 8

	store %struct._ZN7species7SpeciesE* %_T28285720_7574.arg, %struct._ZN7species7SpeciesE** %_T28285720_7574.addr, align 8, !tbaa !1508
	%0 = load %struct._ZN7species7SpeciesE*, %struct._ZN7species7SpeciesE** %_T28285720_7574.addr, align 8, !tbaa !1508, !dbg !2530
	%1 = bitcast %struct._ZN7species7SpeciesE*  %0 to i8*, !dbg !2530
	%2 = bitcast %struct._ZNSt7__cxx1112basic_stringIcSt11char_traitsIcESaIcEEE** %..inline.addr to i8**, !dbg !2530
	store i8*  %1, i8**  %2, align 8, !tbaa !1508, !dbg !2530
	%3 = getelementptr i8, i8*  %1, i64 16, !dbg !2530
	%4 = bitcast %struct._ZN7species7SpeciesE*  %0 to i8**, !dbg !2530
	store i8*  %3, i8**  %4, align 8, !tbaa !1508, !dbg !2530
	%5 = load %struct._ZNSt7__cxx1112basic_stringIcSt11char_traitsIcESaIcEEE*, %struct._ZNSt7__cxx1112basic_stringIcSt11char_traitsIcESaIcEEE** %..inline.addr, align 8, !tbaa !1508, !dbg !2530
	%6 = bitcast %struct._ZNSt7__cxx1112basic_stringIcSt11char_traitsIcESaIcEEE*  %5 to i8*, !dbg !2530
	%7 = bitcast %struct._ZNSt7__cxx1112basic_stringIcSt11char_traitsIcESaIcEEE** %..inline.addr.1 to i8**, !dbg !2530
	store i8*  %6, i8**  %7, align 8, !tbaa !1508, !dbg !2530
	%8 = getelementptr i8, i8*  %6, i64 8, !dbg !2530
	%9 = bitcast i8*  %8 to i64*, !dbg !2530
	store i64 0, i64*  %9, align 8, !tbaa !1509, !dbg !2530
	%10 = load %struct._ZNSt7__cxx1112basic_stringIcSt11char_traitsIcESaIcEEE*, %struct._ZNSt7__cxx1112basic_stringIcSt11char_traitsIcESaIcEEE** %..inline.addr.1, align 8, !tbaa !1508, !dbg !2530
	%11 = bitcast %struct._ZNSt7__cxx1112basic_stringIcSt11char_traitsIcESaIcEEE*  %10 to i8**, !dbg !2530
	%12 = load i8*, i8**  %11, align 8, !tbaa !1508, !dbg !2530
	store i8 0, i8*  %12, align 1, !tbaa !1509, !dbg !2530
	ret void, !dbg !2530
}

%astruct.dt64 = type <{ i8*, i32}> 

define void @_ZN7species7SpeciesC1ERKS0_(%struct._ZN7species7SpeciesE* %_T28285720_7575.arg, %struct._ZN7species7SpeciesE* %other.arg) #0 inlinehint personality i8* bitcast (i32 (...)* @__gxx_personality_v0 to i8*) !dbg !2559 {
L.entry:
	%_T28285720_7575.addr = alloca %struct._ZN7species7SpeciesE*, align 8
	%other.addr = alloca %struct._ZN7species7SpeciesE*, align 8
	%..inline.addr = alloca %struct._ZNSt7__cxx1112basic_stringIcSt11char_traitsIcESaIcEEE*, align 8
	%..inline.addr.1 = alloca %struct._ZNSt7__cxx1112basic_stringIcSt11char_traitsIcESaIcEEE*, align 8
	%.Q0003.addr = alloca %struct._ZNSt7__cxx1112basic_stringIcSt11char_traitsIcESaIcEEE*, align 8
	%__caught_object_address.addr = alloca i8*, align 8
	%__catch_clause_number.addr = alloca i32, align 4
	%..inline.addr.2 = alloca i8*, align 8

	call void @llvm.dbg.declare (metadata %struct._ZN7species7SpeciesE** %_T28285720_7575.addr, metadata !2667, metadata !1501), !dbg !2560
	store %struct._ZN7species7SpeciesE* %_T28285720_7575.arg, %struct._ZN7species7SpeciesE** %_T28285720_7575.addr, align 8, !tbaa !1508
	call void @llvm.dbg.declare (metadata %struct._ZN7species7SpeciesE** %_T28285720_7575.addr, metadata !2668, metadata !1501), !dbg !2560
	call void @llvm.dbg.declare (metadata %struct._ZN7species7SpeciesE** %other.addr, metadata !2669, metadata !1501), !dbg !2560
	store %struct._ZN7species7SpeciesE* %other.arg, %struct._ZN7species7SpeciesE** %other.addr, align 8, !tbaa !1508
	call void @llvm.dbg.declare (metadata %struct._ZN7species7SpeciesE** %other.addr, metadata !2670, metadata !1501), !dbg !2560
	%0 = load %struct._ZN7species7SpeciesE*, %struct._ZN7species7SpeciesE** %_T28285720_7575.addr, align 8, !tbaa !1508, !dbg !2671
	%1 = bitcast %struct._ZN7species7SpeciesE*  %0 to i8*, !dbg !2671
	%2 = bitcast %struct._ZNSt7__cxx1112basic_stringIcSt11char_traitsIcESaIcEEE** %..inline.addr to i8**, !dbg !2671
	store i8*  %1, i8**  %2, align 8, !tbaa !1508, !dbg !2671
	%3 = getelementptr i8, i8*  %1, i64 16, !dbg !2672
	%4 = bitcast %struct._ZN7species7SpeciesE*  %0 to i8**, !dbg !2672
	store i8*  %3, i8**  %4, align 8, !tbaa !1508, !dbg !2672
	%5 = load %struct._ZNSt7__cxx1112basic_stringIcSt11char_traitsIcESaIcEEE*, %struct._ZNSt7__cxx1112basic_stringIcSt11char_traitsIcESaIcEEE** %..inline.addr, align 8, !tbaa !1508, !dbg !2672
	%6 = bitcast %struct._ZNSt7__cxx1112basic_stringIcSt11char_traitsIcESaIcEEE*  %5 to i8*, !dbg !2672
	%7 = bitcast %struct._ZNSt7__cxx1112basic_stringIcSt11char_traitsIcESaIcEEE** %..inline.addr.1 to i8**, !dbg !2672
	store i8*  %6, i8**  %7, align 8, !tbaa !1508, !dbg !2672
	%8 = getelementptr i8, i8*  %6, i64 8, !dbg !2672
	%9 = bitcast i8*  %8 to i64*, !dbg !2672
	store i64 0, i64*  %9, align 8, !tbaa !1509, !dbg !2672
	%10 = load %struct._ZNSt7__cxx1112basic_stringIcSt11char_traitsIcESaIcEEE*, %struct._ZNSt7__cxx1112basic_stringIcSt11char_traitsIcESaIcEEE** %..inline.addr.1, align 8, !tbaa !1508, !dbg !2672
	%11 = bitcast %struct._ZNSt7__cxx1112basic_stringIcSt11char_traitsIcESaIcEEE*  %10 to i8**, !dbg !2672
	%12 = load i8*, i8**  %11, align 8, !tbaa !1508, !dbg !2672
	store i8 0, i8*  %12, align 1, !tbaa !1509, !dbg !2672
	%13 = bitcast %struct._ZN7species7SpeciesE*  %0 to %struct._ZNSt7__cxx1112basic_stringIcSt11char_traitsIcESaIcEEE*, !dbg !2673
	%14 = load %struct._ZN7species7SpeciesE*, %struct._ZN7species7SpeciesE** %other.addr, align 8, !tbaa !1508, !dbg !2673
	%15 = bitcast %struct._ZN7species7SpeciesE*  %14 to %struct._ZNSt7__cxx1112basic_stringIcSt11char_traitsIcESaIcEEE*, !dbg !2673
	%16 = invoke %struct._ZNSt7__cxx1112basic_stringIcSt11char_traitsIcESaIcEEE*  @_ZNSt7__cxx1112basic_stringIcSt11char_traitsIcESaIcEEaSERKS4_ (%struct._ZNSt7__cxx1112basic_stringIcSt11char_traitsIcESaIcEEE*  %13, %struct._ZNSt7__cxx1112basic_stringIcSt11char_traitsIcESaIcEEE*  %15)
		to label %L.B0220
		unwind label %L_T28286904_7575, !dbg !2673
L.B0220:
	%17 = bitcast %struct._ZNSt7__cxx1112basic_stringIcSt11char_traitsIcESaIcEEE*  %16 to i8*, !dbg !2673
	%18 = bitcast %struct._ZNSt7__cxx1112basic_stringIcSt11char_traitsIcESaIcEEE** %.Q0003.addr to i8**, !dbg !2673
	store i8*  %17, i8**  %18, align 8, !tbaa !1508, !dbg !2673
	%19 = load %struct._ZN7species7SpeciesE*, %struct._ZN7species7SpeciesE** %other.addr, align 8, !tbaa !1508, !dbg !2674
	%20 = bitcast %struct._ZN7species7SpeciesE*  %19 to i8*, !dbg !2674
	%21 = getelementptr i8, i8*  %20, i64 32, !dbg !2674
	%22 = bitcast i8*  %21 to double*, !dbg !2674
	%23 = load double, double*  %22, align 8, !tbaa !1509, !dbg !2674
	%24 = load %struct._ZN7species7SpeciesE*, %struct._ZN7species7SpeciesE** %_T28285720_7575.addr, align 8, !tbaa !1508, !dbg !2674
	%25 = bitcast %struct._ZN7species7SpeciesE*  %24 to i8*, !dbg !2674
	%26 = getelementptr i8, i8*  %25, i64 32, !dbg !2674
	%27 = bitcast i8*  %26 to double*, !dbg !2674
	store double  %23, double*  %27, align 8, !tbaa !1509, !dbg !2674
	%28 = getelementptr i8, i8*  %20, i64 40, !dbg !2675
	%29 = bitcast i8*  %28 to double*, !dbg !2675
	%30 = load double, double*  %29, align 8, !tbaa !1509, !dbg !2675
	%31 = getelementptr i8, i8*  %25, i64 40, !dbg !2675
	%32 = bitcast i8*  %31 to double*, !dbg !2675
	store double  %30, double*  %32, align 8, !tbaa !1509, !dbg !2675
	%33 = getelementptr i8, i8*  %20, i64 48, !dbg !2676
	%34 = bitcast i8*  %33 to double*, !dbg !2676
	%35 = load double, double*  %34, align 8, !tbaa !1509, !dbg !2676
	%36 = getelementptr i8, i8*  %25, i64 48, !dbg !2676
	%37 = bitcast i8*  %36 to double*, !dbg !2676
	store double  %35, double*  %37, align 8, !tbaa !1509, !dbg !2676
	%38 = getelementptr i8, i8*  %20, i64 56, !dbg !2677
	%39 = bitcast i8*  %38 to i64*, !dbg !2677
	%40 = load i64, i64*  %39, align 8, !tbaa !1509, !dbg !2677
	%41 = getelementptr i8, i8*  %25, i64 56, !dbg !2677
	%42 = bitcast i8*  %41 to i64*, !dbg !2677
	store i64  %40, i64*  %42, align 8, !tbaa !1509, !dbg !2677
	br label %L.R0033, !dbg !2677
L_T28286904_7575:
	%43 = landingpad %astruct.dt64
	cleanup
	%44 = extractvalue %astruct.dt64  %43, 0, !dbg !2677
	store i8*  %44, i8** %__caught_object_address.addr, align 1, !tbaa !1508, !dbg !2677
	%45 = extractvalue %astruct.dt64  %43, 1, !dbg !2677
	store i32  %45, i32* %__catch_clause_number.addr, align 1, !tbaa !1509, !dbg !2677
	%46 = load %struct._ZN7species7SpeciesE*, %struct._ZN7species7SpeciesE** %_T28285720_7575.addr, align 8, !tbaa !1508, !dbg !2678
	%47 = bitcast %struct._ZN7species7SpeciesE*  %46 to i8**, !dbg !2678
	%48 = load i8*, i8**  %47, align 8, !tbaa !1508, !dbg !2678
	%49 = bitcast %struct._ZN7species7SpeciesE*  %46 to i8*, !dbg !2678
	%50 = getelementptr i8, i8*  %49, i64 16, !dbg !2678
	%51 = icmp eq i8*  %48,  %50, !dbg !2678
	br i1  %51, label %L..inline.10994, label %L.B0221, !dbg !2678
L.B0221:
	%52 = bitcast %struct._ZN7species7SpeciesE*  %46 to i8**, !dbg !2678
	%53 = load i8*, i8**  %52, align 8, !tbaa !1508, !dbg !2678
	call void  @_ZdlPv (i8*  %53) nounwind, !dbg !2678
	br label %L..inline.10994
L..inline.10994:
	%54 = load i32, i32* %__catch_clause_number.addr, align 4, !tbaa !1509, !dbg !2677
	%55 = load i8*, i8** %__caught_object_address.addr, align 8, !tbaa !1508, !dbg !2677
	%56 = insertvalue %astruct.dt64 undef, i8*  %55, 0, !dbg !2677
	%57 = insertvalue %astruct.dt64  %56, i32  %54, 1, !dbg !2677
	resume %astruct.dt64  %57 , !dbg !2677
L.R0033:
	ret void, !dbg !2679
}
define void @_ZN7species7SpeciesC2ERKS0_(%struct._ZN7species7SpeciesE* %_T28285720_7576.arg, %struct._ZN7species7SpeciesE* %_T28286016_7576.arg) #0 inlinehint !dbg !2681 {
L.entry:
	%_T28285720_7576.addr = alloca %struct._ZN7species7SpeciesE*, align 8
	%_T28286016_7576.addr = alloca %struct._ZN7species7SpeciesE*, align 8

	store %struct._ZN7species7SpeciesE* %_T28285720_7576.arg, %struct._ZN7species7SpeciesE** %_T28285720_7576.addr, align 8, !tbaa !1508
	store %struct._ZN7species7SpeciesE* %_T28286016_7576.arg, %struct._ZN7species7SpeciesE** %_T28286016_7576.addr, align 8, !tbaa !1508
	%0 = load %struct._ZN7species7SpeciesE*, %struct._ZN7species7SpeciesE** %_T28285720_7576.addr, align 8, !tbaa !1508, !dbg !2685
	%1 = load %struct._ZN7species7SpeciesE*, %struct._ZN7species7SpeciesE** %_T28286016_7576.addr, align 8, !tbaa !1508, !dbg !2685
	call void  @_ZN7species7SpeciesC1ERKS0_ (%struct._ZN7species7SpeciesE*  %0, %struct._ZN7species7SpeciesE*  %1), !dbg !2685
	ret void, !dbg !2685
}
define void @_ZN7species7SpeciesD1Ev(%struct._ZN7species7SpeciesE* %_T28285720_7577.arg) #0 inlinehint !dbg !2687 {
L.entry:
	%_T28285720_7577.addr = alloca %struct._ZN7species7SpeciesE*, align 8
	%..inline.addr = alloca i8*, align 8

	call void @llvm.dbg.declare (metadata %struct._ZN7species7SpeciesE** %_T28285720_7577.addr, metadata !2743, metadata !1501), !dbg !2688
	store %struct._ZN7species7SpeciesE* %_T28285720_7577.arg, %struct._ZN7species7SpeciesE** %_T28285720_7577.addr, align 8, !tbaa !1508
	call void @llvm.dbg.declare (metadata %struct._ZN7species7SpeciesE** %_T28285720_7577.addr, metadata !2744, metadata !1501), !dbg !2688
	%0 = load %struct._ZN7species7SpeciesE*, %struct._ZN7species7SpeciesE** %_T28285720_7577.addr, align 8, !tbaa !1508, !dbg !2745
	%1 = bitcast %struct._ZN7species7SpeciesE*  %0 to i8**, !dbg !2745
	%2 = load i8*, i8**  %1, align 8, !tbaa !1508, !dbg !2745
	%3 = bitcast %struct._ZN7species7SpeciesE*  %0 to i8*, !dbg !2745
	%4 = getelementptr i8, i8*  %3, i64 16, !dbg !2745
	%5 = icmp eq i8*  %2,  %4, !dbg !2745
	br i1  %5, label %L..inline.11140, label %L.B0224, !dbg !2745
L.B0224:
	%6 = bitcast %struct._ZN7species7SpeciesE*  %0 to i8**, !dbg !2745
	%7 = load i8*, i8**  %6, align 8, !tbaa !1508, !dbg !2745
	call void  @_ZdlPv (i8*  %7) nounwind, !dbg !2745
	br label %L..inline.11140
L..inline.11140:
	ret void, !dbg !2746
}
define void @_ZN7species7SpeciesD2Ev(%struct._ZN7species7SpeciesE* %_T28285720_7578.arg) #0 inlinehint !dbg !2748 {
L.entry:
	%_T28285720_7578.addr = alloca %struct._ZN7species7SpeciesE*, align 8
	%..inline.addr = alloca i8*, align 8

	store %struct._ZN7species7SpeciesE* %_T28285720_7578.arg, %struct._ZN7species7SpeciesE** %_T28285720_7578.addr, align 8, !tbaa !1508
	%0 = load %struct._ZN7species7SpeciesE*, %struct._ZN7species7SpeciesE** %_T28285720_7578.addr, align 8, !tbaa !1508, !dbg !2808
	%1 = bitcast %struct._ZN7species7SpeciesE*  %0 to i8**, !dbg !2808
	%2 = load i8*, i8**  %1, align 8, !tbaa !1508, !dbg !2808
	%3 = bitcast %struct._ZN7species7SpeciesE*  %0 to i8*, !dbg !2808
	%4 = getelementptr i8, i8*  %3, i64 16, !dbg !2808
	%5 = icmp eq i8*  %2,  %4, !dbg !2808
	br i1  %5, label %L..inline.11252, label %L.B0227, !dbg !2808
L.B0227:
	%6 = bitcast %struct._ZN7species7SpeciesE*  %0 to i8**, !dbg !2808
	%7 = load i8*, i8**  %6, align 8, !tbaa !1508, !dbg !2808
	call void  @_ZdlPv (i8*  %7) nounwind, !dbg !2808
	br label %L..inline.11252
L..inline.11252:
	ret void, !dbg !2808
}
define linkonce_odr i8* @_ZSt9addressofIcEPT_RS0_(i8* %__r.arg) #0 inlinehint !dbg !2812 {
L.entry:
	%__r.addr = alloca i8*, align 8

	call void @llvm.dbg.declare (metadata i8** %__r.addr, metadata !2820, metadata !1501), !dbg !2813
	store i8* %__r.arg, i8** %__r.addr, align 8, !tbaa !1508
	call void @llvm.dbg.declare (metadata i8** %__r.addr, metadata !2821, metadata !1501), !dbg !2813
	%0 = load i8*, i8** %__r.addr, align 8, !tbaa !1508, !dbg !2822
	ret i8*  %0, !dbg !2822
}
define linkonce_odr i8* @_ZSt11__addressofIcEPT_RS0_(i8* %__r.arg) #0 inlinehint !dbg !2824 {
L.entry:
	%__r.addr = alloca i8*, align 8

	call void @llvm.dbg.declare (metadata i8** %__r.addr, metadata !2828, metadata !1501), !dbg !2825
	store i8* %__r.arg, i8** %__r.addr, align 8, !tbaa !1508
	call void @llvm.dbg.declare (metadata i8** %__r.addr, metadata !2829, metadata !1501), !dbg !2825
	%0 = load i8*, i8** %__r.addr, align 8, !tbaa !1508, !dbg !2830
	ret i8*  %0, !dbg !2830
}
define linkonce_odr %struct._ZSaIcE* @_ZSt4moveIRSaIcEEONSt16remove_referenceIT_E4typeEOS3_(%struct._ZSaIcE* %__t.arg) #0 inlinehint !dbg !2839 {
L.entry:
	%__t.addr = alloca %struct._ZSaIcE*, align 8

	call void @llvm.dbg.declare (metadata %struct._ZSaIcE** %__t.addr, metadata !2843, metadata !1501), !dbg !2840
	store %struct._ZSaIcE* %__t.arg, %struct._ZSaIcE** %__t.addr, align 8, !tbaa !1508
	call void @llvm.dbg.declare (metadata %struct._ZSaIcE** %__t.addr, metadata !2844, metadata !1501), !dbg !2840
	%0 = load %struct._ZSaIcE*, %struct._ZSaIcE** %__t.addr, align 8, !tbaa !1508, !dbg !2845
	ret %struct._ZSaIcE*  %0, !dbg !2845
}
define linkonce_odr i8* @_ZSt9addressofIKcEPT_RS1_(i8* %__r.arg) #0 inlinehint !dbg !2847 {
L.entry:
	%__r.addr = alloca i8*, align 8

	call void @llvm.dbg.declare (metadata i8** %__r.addr, metadata !2855, metadata !1501), !dbg !2848
	store i8* %__r.arg, i8** %__r.addr, align 8, !tbaa !1508
	call void @llvm.dbg.declare (metadata i8** %__r.addr, metadata !2856, metadata !1501), !dbg !2848
	%0 = load i8*, i8** %__r.addr, align 8, !tbaa !1508, !dbg !2857
	ret i8*  %0, !dbg !2857
}
define linkonce_odr i8* @_ZSt11__addressofIKcEPT_RS1_(i8* %__r.arg) #0 inlinehint !dbg !2859 {
L.entry:
	%__r.addr = alloca i8*, align 8

	call void @llvm.dbg.declare (metadata i8** %__r.addr, metadata !2863, metadata !1501), !dbg !2860
	store i8* %__r.arg, i8** %__r.addr, align 8, !tbaa !1508
	call void @llvm.dbg.declare (metadata i8** %__r.addr, metadata !2864, metadata !1501), !dbg !2860
	%0 = load i8*, i8** %__r.addr, align 8, !tbaa !1508, !dbg !2865
	ret i8*  %0, !dbg !2865
}
define linkonce_odr void @_ZSt15__alloc_on_copyISaIcEEvRT_RKS1_(%struct._ZSaIcE* %__one.arg, %struct._ZSaIcE* %__two.arg) #0 inlinehint !dbg !2877 {
L.entry:
	%__one.addr = alloca %struct._ZSaIcE*, align 8
	%__two.addr = alloca %struct._ZSaIcE*, align 8
	%.._T28286904_7588.__FILL_CHARARRAY.addr = alloca [1 x i8], align 1
	%....inline.__FILL_CHARARRAY.addr = alloca [1 x i8], align 1

	call void @llvm.dbg.declare (metadata %struct._ZSaIcE** %__one.addr, metadata !2885, metadata !1501), !dbg !2878
	store %struct._ZSaIcE* %__one.arg, %struct._ZSaIcE** %__one.addr, align 8, !tbaa !1508
	call void @llvm.dbg.declare (metadata %struct._ZSaIcE** %__one.addr, metadata !2886, metadata !1501), !dbg !2878
	call void @llvm.dbg.declare (metadata %struct._ZSaIcE** %__two.addr, metadata !2887, metadata !1501), !dbg !2878
	store %struct._ZSaIcE* %__two.arg, %struct._ZSaIcE** %__two.addr, align 8, !tbaa !1508
	call void @llvm.dbg.declare (metadata %struct._ZSaIcE** %__two.addr, metadata !2888, metadata !1501), !dbg !2878
	call void @llvm.dbg.declare (metadata [1 x i8]* %.._T28286904_7588.__FILL_CHARARRAY.addr, metadata !2890, metadata !1501), !dbg !2880
	%0 = bitcast [1 x i8]* %.._T28286904_7588.__FILL_CHARARRAY.addr to i8*, !dbg !2889
	%1 = load i8, i8*  %0, align 1, !tbaa !1509, !dbg !2889
	%2 = zext i8  %1 to i32, !dbg !2889
	%3 = trunc i32  %2 to i8, !dbg !2889
	call void @llvm.dbg.declare (metadata [1 x i8]* %....inline.__FILL_CHARARRAY.addr, metadata !2891, metadata !1501), !dbg !2880
	%4 = bitcast [1 x i8]* %....inline.__FILL_CHARARRAY.addr to i8*, !dbg !2889
	store i8  %3, i8*  %4, align 1, !tbaa !1509, !dbg !2889
	ret void, !dbg !2889
}

%struct._ZSt17integral_constantIbLb0EE = type <{ [1 x i8]}> 

define linkonce_odr void @_ZSt18__do_alloc_on_copyISaIcEEvRT_RKS1_St17integral_constantIbLb0EE(%struct._ZSaIcE* %_T28285720_7590.arg, %struct._ZSaIcE* %_T28286016_7590.arg, i8 %_T28286312_7590.coerce) #0 inlinehint !dbg !2895 {
L.entry:
	%_T28285720_7590.addr = alloca %struct._ZSaIcE*, align 8
	%_T28286016_7590.addr = alloca %struct._ZSaIcE*, align 8
	%_T28286312_7590.addr = alloca %struct._ZSt17integral_constantIbLb0EE, align 1

	call void @llvm.dbg.declare (metadata %struct._ZSaIcE** %_T28285720_7590.addr, metadata !2899, metadata !1501), !dbg !2896
	store %struct._ZSaIcE* %_T28285720_7590.arg, %struct._ZSaIcE** %_T28285720_7590.addr, align 8, !tbaa !1508
	call void @llvm.dbg.declare (metadata %struct._ZSaIcE** %_T28285720_7590.addr, metadata !2900, metadata !1501), !dbg !2896
	call void @llvm.dbg.declare (metadata %struct._ZSaIcE** %_T28286016_7590.addr, metadata !2901, metadata !1501), !dbg !2896
	store %struct._ZSaIcE* %_T28286016_7590.arg, %struct._ZSaIcE** %_T28286016_7590.addr, align 8, !tbaa !1508
	call void @llvm.dbg.declare (metadata %struct._ZSaIcE** %_T28286016_7590.addr, metadata !2902, metadata !1501), !dbg !2896
	call void @llvm.dbg.declare (metadata %struct._ZSt17integral_constantIbLb0EE* %_T28286312_7590.addr, metadata !2903, metadata !1501), !dbg !2896
	%0 = bitcast %struct._ZSt17integral_constantIbLb0EE* %_T28286312_7590.addr to i8*
	store i8 %_T28286312_7590.coerce, i8*  %0, align 1, !tbaa !1509
	call void @llvm.dbg.declare (metadata %struct._ZSt17integral_constantIbLb0EE* %_T28286312_7590.addr, metadata !2904, metadata !1501), !dbg !2896
	ret void, !dbg !2905
}

%struct._ZNSt8ios_base4InitE = type <{ [1 x i8]}> 

define void @__sti___20_particle_species_cpp_29edf090() #0 inlinehint !dbg !2907 {
L.entry:

	%0 = load i32, i32* @__I___20_particle_species_cpp_29edf090, align 4, !tbaa !2922, !dbg !2911
	%1 = icmp eq i32  %0, 1, !dbg !2911
	br i1  %1, label %L.B0012, label %L.B0234, !dbg !2911
L.B0234:
	store i32 1, i32* @__I___20_particle_species_cpp_29edf090, align 4, !tbaa !2922, !dbg !2911
	call void  @_ZNSt8ios_base4InitC1Ev (%struct._ZNSt8ios_base4InitE* @_ZN42_INTERNAL_20_particle_species_cpp_29edf090St8__ioinitE) nounwind, !dbg !2911
	%2 = bitcast void (%struct._ZNSt8ios_base4InitE*)* @_ZNSt8ios_base4InitD1Ev to void (i8*)*, !dbg !2911
	%3 = bitcast %struct._ZNSt8ios_base4InitE* @_ZN42_INTERNAL_20_particle_species_cpp_29edf090St8__ioinitE to i8*, !dbg !2911
	%4 = bitcast i8** @__dso_handle to i8*, !dbg !2911
	%5 = call i32  @__cxa_atexit (void (i8*)*  %2, i8*  %3, i8*  %4) nounwind, !dbg !2911
	br label %L.B0012
L.B0012:
	ret void, !dbg !2911
}
@_ZN42_INTERNAL_20_particle_species_cpp_29edf0905vmesh15INVALID_LOCALIDE = internal global i32 -1, align 4, !dbg !2924
@__I___20_particle_species_cpp_29edf090 = global i32 0, align 4, !dbg !2913
@_ZN42_INTERNAL_20_particle_species_cpp_29edf090St8__ioinitE = internal global %struct._ZNSt8ios_base4InitE zeroinitializer , align 1, !dbg !2918
@__dso_handle = external global i8*, align 8
@llvm.global_ctors = appending global [1 x { i32, void ()*, i8* }][{ i32, void ()*, i8* } { i32 65535, void ()* @__sti___20_particle_species_cpp_29edf090, i8* null }]
attributes #0 = { "frame-pointer"="all" }

declare signext i32 @__cxa_atexit(void (i8*)*, i8*, i8*) #0
declare void @_ZNSt8ios_base4InitD1Ev(%struct._ZNSt8ios_base4InitE*) #0
declare void @_ZNSt8ios_base4InitC1Ev(%struct._ZNSt8ios_base4InitE*) #0
declare void @_ZNSt7__cxx1112basic_stringIcSt11char_traitsIcESaIcEE9_M_assignERKS4_(%struct._ZNSt7__cxx1112basic_stringIcSt11char_traitsIcESaIcEEE*, %struct._ZNSt7__cxx1112basic_stringIcSt11char_traitsIcESaIcEEE*) #0
declare void @_ZdlPv(i8*) #0
declare i8* @_Znwm(i64) #0
declare void @_ZSt17__throw_bad_allocv() #0
declare void @llvm.dbg.declare(metadata, metadata, metadata)
declare i32 @__gxx_personality_v0(...)

; Named metadata
!llvm.module.flags = !{ !1, !2 }
!llvm.dbg.cu = !{ !10 }

; Metadata
!1 = !{ i32 2, !"Dwarf Version", i32 2 }
!2 = !{ i32 2, !"Debug Info Version", i32 3 }
!3 = !DIFile(filename: "particle_species.cpp", directory: "/home/talgat/vlasiator")
; !4 = !DIFile(tag: DW_TAG_file_type, pair: !3)
!4 = !{ i32 41, !3 }
!5 = !{  }
!6 = !{  }
!7 = !{ !1496, !1520, !1530, !1548, !1573, !1594, !1610, !1631, !1643, !1655, !1663, !1684, !1705, !1715, !1742, !1773, !1827, !1857, !1865, !1873, !1932, !1991, !2049, !2115, !2283, !2291, !2310, !2334, !2361, !2382, !2397, !2409, !2470, !2559, !2681, !2687, !2748, !2812, !2824, !2839, !2847, !2859, !2877, !2895, !2907 }
!8 = !{ !2913, !2918, !2920, !2924 }
!9 = !{  }
!10 = distinct !DICompileUnit(file: !3, language: DW_LANG_C_plus_plus, producer: " NVC++ 21.2-0", enums: !5, retainedTypes: !6, globals: !8, emissionKind: FullDebug, imports: !9)
!11 = !DINamespace(scope: !10, name: "std")
!12 = !DINamespace(scope: !11, name: "__cxx11")
!13 = !{ !66, !67, !68 }
!14 = !DICompositeType(tag: DW_TAG_class_type, file: !3, scope: !12, name: "basic_string", line: 1, size: 256, align: 64, elements: !13, runtimeLang: DW_LANG_C_plus_plus)
!15 = !{ !21 }
!16 = !DICompositeType(tag: DW_TAG_structure_type, file: !3, name: "_ZSaIcE", size: 8, align: 8, elements: !15)
!17 = !DISubrange(count: 0)
!18 = !DIBasicType(tag: DW_TAG_base_type, name: "signed char", size: 8, align: 8, encoding: DW_ATE_signed_char)
!19 = !{ !17 }
!20 = !DICompositeType(tag: DW_TAG_array_type, size: 8, align: 8, baseType: !18, elements: !19)
!21 = !DIDerivedType(tag: DW_TAG_member, file: !3, scope: !16, size: 8, align: 8, baseType: !20)
!22 = !DIDerivedType(tag: DW_TAG_typedef, file: !3, scope: !14, name: "_Char_alloc_type", line: 1, size: 8, align: 8, baseType: !16)
!23 = !{ !25 }
!24 = !DICompositeType(tag: DW_TAG_structure_type, file: !3, name: "_ZN9__gnu_cxx14__alloc_traitsISaIcEcEE", size: 8, align: 8, elements: !23)
!25 = !DIDerivedType(tag: DW_TAG_member, file: !3, scope: !24, size: 8, align: 8, baseType: !20)
!26 = !DIDerivedType(tag: DW_TAG_typedef, file: !3, scope: !14, name: "_Alloc_traits", line: 1, size: 8, align: 8, baseType: !24)
!27 = !{ !29 }
!28 = !DICompositeType(tag: DW_TAG_structure_type, file: !3, name: "_ZSt11char_traitsIcE", size: 8, align: 8, elements: !27)
!29 = !DIDerivedType(tag: DW_TAG_member, file: !3, scope: !28, size: 8, align: 8, baseType: !20)
!30 = !DIDerivedType(tag: DW_TAG_typedef, file: !3, scope: !14, name: "traits_type", line: 1, size: 8, align: 8, baseType: !28)
!31 = !DIDerivedType(tag: DW_TAG_typedef, file: !3, scope: !14, name: "value_type", line: 1, size: 8, align: 8, baseType: !18)
!32 = !DIDerivedType(tag: DW_TAG_typedef, file: !3, scope: !14, name: "allocator_type", line: 1, size: 8, align: 8, baseType: !16)
!33 = !DIBasicType(tag: DW_TAG_base_type, name: "unsigned long", size: 64, align: 64, encoding: DW_ATE_unsigned)
!34 = !DIDerivedType(tag: DW_TAG_typedef, file: !3, scope: !14, name: "size_type", line: 1, size: 64, align: 64, baseType: !33)
!35 = !DIDerivedType(tag: DW_TAG_pointer_type, size: 64, align: 64, baseType: !18)
!36 = !DIDerivedType(tag: DW_TAG_typedef, file: !3, scope: !14, name: "reference", line: 1, size: 64, align: 64, baseType: !35)
!37 = !DIDerivedType(tag: DW_TAG_typedef, file: !3, scope: !14, name: "const_reference", line: 1, size: 64, align: 64, baseType: !35)
!38 = !DIDerivedType(tag: DW_TAG_typedef, file: !3, scope: !14, name: "pointer", line: 1, size: 64, align: 64, baseType: !35)
!39 = !DIDerivedType(tag: DW_TAG_typedef, file: !3, scope: !14, name: "const_pointer", line: 1, size: 64, align: 64, baseType: !35)
!40 = !{ !42 }
!41 = !DICompositeType(tag: DW_TAG_structure_type, file: !3, name: "_ZN9__gnu_cxx17__normal_iteratorIPcNSt7__cxx1112basic_stringIcSt11char_traitsIcESaIcEEEEE", size: 64, align: 64, elements: !40)
!42 = !DIDerivedType(tag: DW_TAG_member, file: !3, scope: !41, name: "_M_current", size: 64, align: 64, baseType: !35)
!43 = !DIDerivedType(tag: DW_TAG_typedef, file: !3, scope: !14, name: "iterator", line: 1, size: 64, align: 64, baseType: !41)
!44 = !{ !46 }
!45 = !DICompositeType(tag: DW_TAG_structure_type, file: !3, name: "_ZN9__gnu_cxx17__normal_iteratorIPKcNSt7__cxx1112basic_stringIcSt11char_traitsIcESaIcEEEEE", size: 64, align: 64, elements: !44)
!46 = !DIDerivedType(tag: DW_TAG_member, file: !3, scope: !45, name: "_M_current", size: 64, align: 64, baseType: !35)
!47 = !DIDerivedType(tag: DW_TAG_typedef, file: !3, scope: !14, name: "const_iterator", line: 1, size: 64, align: 64, baseType: !45)
!48 = !{  }
!49 = !DICompositeType(tag: DW_TAG_structure_type, file: !3, name: "_ZSt16reverse_iteratorIN9__gnu_cxx17__normal_iteratorIPKcNSt7__cxx1112basic_stringIcSt11char_traitsIcESaIcEEEEEE", align: 8, elements: !48)
!50 = !DIDerivedType(tag: DW_TAG_typedef, file: !3, scope: !14, name: "const_reverse_iterator", line: 1, align: 8, baseType: !49)
!51 = !{  }
!52 = !DICompositeType(tag: DW_TAG_structure_type, file: !3, name: "_ZSt16reverse_iteratorIN9__gnu_cxx17__normal_iteratorIPcNSt7__cxx1112basic_stringIcSt11char_traitsIcESaIcEEEEEE", align: 8, elements: !51)
!53 = !DIDerivedType(tag: DW_TAG_typedef, file: !3, scope: !14, name: "reverse_iterator", line: 1, align: 8, baseType: !52)
!54 = !DIDerivedType(tag: DW_TAG_typedef, file: !3, scope: !14, name: "__const_iterator", line: 1, size: 64, align: 64, baseType: !45)
!55 = !{ !57, !58 }
!56 = !DICompositeType(tag: DW_TAG_structure_type, file: !3, scope: !14, name: "_Alloc_hider", line: 1, size: 64, align: 64, elements: !55, runtimeLang: DW_LANG_C_plus_plus)
!57 = !DIDerivedType(tag: DW_TAG_inheritance, file: !3, scope: !56, name: "allocator", line: 1, size: 8, align: 8, baseType: !16)
!58 = !DIDerivedType(tag: DW_TAG_member, file: !3, scope: !56, name: "_M_p", line: 1, size: 64, align: 64, baseType: !35)
!59 = !{ !64, !65 }
!60 = !DICompositeType(tag: DW_TAG_union_type, file: !3, scope: !14, line: 1, size: 128, align: 64, elements: !59, runtimeLang: DW_LANG_C_plus_plus)
!61 = !DISubrange(count: 16)
!62 = !{ !61 }
!63 = !DICompositeType(tag: DW_TAG_array_type, size: 128, align: 8, baseType: !18, elements: !62)
!64 = !DIDerivedType(tag: DW_TAG_member, file: !3, scope: !60, name: "_M_local_buf", line: 1, size: 128, align: 8, baseType: !63)
!65 = !DIDerivedType(tag: DW_TAG_member, file: !3, scope: !60, name: "_M_allocated_capacity", line: 1, size: 64, align: 64, baseType: !33)
!66 = !DIDerivedType(tag: DW_TAG_member, file: !3, scope: !14, name: "_M_dataplus", line: 1, size: 64, align: 64, baseType: !56)
!67 = !DIDerivedType(tag: DW_TAG_member, file: !3, scope: !14, name: "_M_string_length", line: 1, size: 64, align: 64, offset: 64, baseType: !33)
!68 = !DIDerivedType(tag: DW_TAG_member, file: !3, scope: !14, line: 1, size: 128, align: 64, offset: 128, baseType: !60)
!69 = !DINamespace(scope: !11, name: "__exception_ptr")
!70 = !{ !74 }
!71 = !DICompositeType(tag: DW_TAG_class_type, file: !3, scope: !69, name: "exception_ptr", line: 1, size: 64, align: 64, elements: !70, runtimeLang: DW_LANG_C_plus_plus)
!72 = !DIBasicType(tag: DW_TAG_unspecified_type, name: "void")
!73 = !DIDerivedType(tag: DW_TAG_pointer_type, size: 64, align: 64, baseType: !72)
!74 = !DIDerivedType(tag: DW_TAG_member, file: !3, scope: !71, name: "_M_exception_object", line: 1, size: 64, align: 64, baseType: !73)
!75 = !DINamespace(scope: !11, name: "__swappable_details")
!76 = !{  }
!77 = !DICompositeType(tag: DW_TAG_structure_type, file: !3, scope: !75, name: "__do_is_swappable_impl", line: 1, size: 8, align: 8, elements: !76, runtimeLang: DW_LANG_C_plus_plus)
!78 = !{  }
!79 = !DICompositeType(tag: DW_TAG_structure_type, file: !3, scope: !75, name: "__do_is_nothrow_swappable_impl", line: 1, size: 8, align: 8, elements: !78, runtimeLang: DW_LANG_C_plus_plus)
!80 = !DINamespace(scope: !11, name: "__swappable_with_details")
!81 = !{  }
!82 = !DICompositeType(tag: DW_TAG_structure_type, file: !3, scope: !80, name: "__do_is_swappable_with_impl", line: 1, size: 8, align: 8, elements: !81, runtimeLang: DW_LANG_C_plus_plus)
!83 = !{  }
!84 = !DICompositeType(tag: DW_TAG_structure_type, file: !3, scope: !80, name: "__do_is_nothrow_swappable_with_impl", line: 1, size: 8, align: 8, elements: !83, runtimeLang: DW_LANG_C_plus_plus)
!85 = !DINamespace(scope: !11, name: "__debug")
!86 = !DIDerivedType(tag: DW_TAG_typedef, file: !3, scope: !11, name: "size_t", line: 1, size: 64, align: 64, baseType: !33)
!87 = !DIBasicType(tag: DW_TAG_base_type, name: "long", size: 64, align: 64, encoding: DW_ATE_signed)
!88 = !DIDerivedType(tag: DW_TAG_typedef, file: !3, scope: !11, name: "ptrdiff_t", line: 1, size: 64, align: 64, baseType: !87)
!89 = !DIDerivedType(tag: DW_TAG_typedef, file: !3, scope: !11, name: "nullptr_t", line: 1, size: 64, align: 64, baseType: !73)
!90 = !DIDerivedType(tag: DW_TAG_typedef, file: !3, scope: !11, name: "string", line: 1, size: 256, align: 64, baseType: !14)
!91 = !{ !98, !99, !107 }
!92 = !DICompositeType(tag: DW_TAG_structure_type, file: !3, name: "_ZNSt7__cxx1112basic_stringIwSt11char_traitsIwESaIwEEE", size: 256, align: 64, elements: !91)
!93 = !{ !97 }
!94 = !DICompositeType(tag: DW_TAG_structure_type, file: !3, name: "_ZNSt7__cxx1112basic_stringIwSt11char_traitsIwESaIwEE12_Alloc_hiderE", size: 64, align: 64, elements: !93)
!95 = !DIBasicType(tag: DW_TAG_base_type, name: "int", size: 32, align: 32, encoding: DW_ATE_signed)
!96 = !DIDerivedType(tag: DW_TAG_pointer_type, size: 64, align: 64, baseType: !95)
!97 = !DIDerivedType(tag: DW_TAG_member, file: !3, scope: !94, name: "_M_p", size: 64, align: 64, baseType: !96)
!98 = !DIDerivedType(tag: DW_TAG_member, file: !3, scope: !92, name: "_M_dataplus", size: 64, align: 64, baseType: !94)
!99 = !DIDerivedType(tag: DW_TAG_member, file: !3, scope: !92, name: "_M_string_length", size: 64, align: 64, offset: 64, baseType: !33)
!100 = !{ !105, !106 }
!101 = !DICompositeType(tag: DW_TAG_union_type, file: !3, name: "__C6", size: 128, align: 64, elements: !100)
!102 = !DISubrange(count: 4)
!103 = !{ !102 }
!104 = !DICompositeType(tag: DW_TAG_array_type, size: 128, align: 32, baseType: !95, elements: !103)
!105 = !DIDerivedType(tag: DW_TAG_member, file: !3, scope: !101, name: "_M_local_buf", size: 128, align: 32, baseType: !104)
!106 = !DIDerivedType(tag: DW_TAG_member, file: !3, scope: !101, name: "_M_allocated_capacity", size: 64, align: 64, baseType: !33)
!107 = !DIDerivedType(tag: DW_TAG_member, file: !3, scope: !92, size: 128, align: 64, offset: 128, baseType: !101)
!108 = !DIDerivedType(tag: DW_TAG_typedef, file: !3, scope: !11, name: "wstring", line: 1, size: 256, align: 64, baseType: !92)
!109 = !{ !116, !117, !125 }
!110 = !DICompositeType(tag: DW_TAG_structure_type, file: !3, name: "_ZNSt7__cxx1112basic_stringIDsSt11char_traitsIDsESaIDsEEE", size: 256, align: 64, elements: !109)
!111 = !{ !115 }
!112 = !DICompositeType(tag: DW_TAG_structure_type, file: !3, name: "_ZNSt7__cxx1112basic_stringIDsSt11char_traitsIDsESaIDsEE12_Alloc_hiderE", size: 64, align: 64, elements: !111)
!113 = !DIBasicType(tag: DW_TAG_base_type, name: "unsigned short", size: 16, align: 16, encoding: DW_ATE_unsigned)
!114 = !DIDerivedType(tag: DW_TAG_pointer_type, size: 64, align: 64, baseType: !113)
!115 = !DIDerivedType(tag: DW_TAG_member, file: !3, scope: !112, name: "_M_p", size: 64, align: 64, baseType: !114)
!116 = !DIDerivedType(tag: DW_TAG_member, file: !3, scope: !110, name: "_M_dataplus", size: 64, align: 64, baseType: !112)
!117 = !DIDerivedType(tag: DW_TAG_member, file: !3, scope: !110, name: "_M_string_length", size: 64, align: 64, offset: 64, baseType: !33)
!118 = !{ !123, !124 }
!119 = !DICompositeType(tag: DW_TAG_union_type, file: !3, name: "__C7", size: 128, align: 64, elements: !118)
!120 = !DISubrange(count: 8)
!121 = !{ !120 }
!122 = !DICompositeType(tag: DW_TAG_array_type, size: 128, align: 16, baseType: !113, elements: !121)
!123 = !DIDerivedType(tag: DW_TAG_member, file: !3, scope: !119, name: "_M_local_buf", size: 128, align: 16, baseType: !122)
!124 = !DIDerivedType(tag: DW_TAG_member, file: !3, scope: !119, name: "_M_allocated_capacity", size: 64, align: 64, baseType: !33)
!125 = !DIDerivedType(tag: DW_TAG_member, file: !3, scope: !110, size: 128, align: 64, offset: 128, baseType: !119)
!126 = !DIDerivedType(tag: DW_TAG_typedef, file: !3, scope: !11, name: "u16string", line: 1, size: 256, align: 64, baseType: !110)
!127 = !{ !134, !135, !141 }
!128 = !DICompositeType(tag: DW_TAG_structure_type, file: !3, name: "_ZNSt7__cxx1112basic_stringIDiSt11char_traitsIDiESaIDiEEE", size: 256, align: 64, elements: !127)
!129 = !{ !133 }
!130 = !DICompositeType(tag: DW_TAG_structure_type, file: !3, name: "_ZNSt7__cxx1112basic_stringIDiSt11char_traitsIDiESaIDiEE12_Alloc_hiderE", size: 64, align: 64, elements: !129)
!131 = !DIBasicType(tag: DW_TAG_base_type, name: "unsigned", size: 32, align: 32, encoding: DW_ATE_unsigned)
!132 = !DIDerivedType(tag: DW_TAG_pointer_type, size: 64, align: 64, baseType: !131)
!133 = !DIDerivedType(tag: DW_TAG_member, file: !3, scope: !130, name: "_M_p", size: 64, align: 64, baseType: !132)
!134 = !DIDerivedType(tag: DW_TAG_member, file: !3, scope: !128, name: "_M_dataplus", size: 64, align: 64, baseType: !130)
!135 = !DIDerivedType(tag: DW_TAG_member, file: !3, scope: !128, name: "_M_string_length", size: 64, align: 64, offset: 64, baseType: !33)
!136 = !{ !139, !140 }
!137 = !DICompositeType(tag: DW_TAG_union_type, file: !3, name: "__C8", size: 128, align: 64, elements: !136)
!138 = !DICompositeType(tag: DW_TAG_array_type, size: 128, align: 32, baseType: !131, elements: !103)
!139 = !DIDerivedType(tag: DW_TAG_member, file: !3, scope: !137, name: "_M_local_buf", size: 128, align: 32, baseType: !138)
!140 = !DIDerivedType(tag: DW_TAG_member, file: !3, scope: !137, name: "_M_allocated_capacity", size: 64, align: 64, baseType: !33)
!141 = !DIDerivedType(tag: DW_TAG_member, file: !3, scope: !128, size: 128, align: 64, offset: 128, baseType: !137)
!142 = !DIDerivedType(tag: DW_TAG_typedef, file: !3, scope: !11, name: "u32string", line: 1, size: 256, align: 64, baseType: !128)
!143 = !DIDerivedType(tag: DW_TAG_typedef, file: !3, scope: !11, name: "streamoff", line: 1, size: 64, align: 64, baseType: !87)
!144 = !DIDerivedType(tag: DW_TAG_typedef, file: !3, scope: !11, name: "streamsize", line: 1, size: 64, align: 64, baseType: !87)
!145 = !{  }
!146 = !DICompositeType(tag: DW_TAG_structure_type, file: !3, name: "_ZSt4fposI11__mbstate_tE", align: 8, elements: !145)
!147 = !DIDerivedType(tag: DW_TAG_typedef, file: !3, scope: !11, name: "streampos", line: 1, align: 8, baseType: !146)
!148 = !DIDerivedType(tag: DW_TAG_typedef, file: !3, scope: !11, name: "wstreampos", line: 1, align: 8, baseType: !146)
!149 = !DIDerivedType(tag: DW_TAG_typedef, file: !3, scope: !11, name: "u16streampos", line: 1, align: 8, baseType: !146)
!150 = !DIDerivedType(tag: DW_TAG_typedef, file: !3, scope: !11, name: "u32streampos", line: 1, align: 8, baseType: !146)
!151 = !{ !159, !160, !316 }
!152 = !DICompositeType(tag: DW_TAG_structure_type, file: !3, name: "_ZSi", size: 2240, align: 64, elements: !151)
!153 = !{ !95 }
!154 = !DISubroutineType(types: !153)
!155 = !DIDerivedType(tag: DW_TAG_pointer_type, size: 64, align: 64, baseType: !154)
!156 = !{ !155 }
!157 = !DISubroutineType(types: !156)
!158 = !DIDerivedType(tag: DW_TAG_pointer_type, size: 64, align: 64, baseType: !157)
!159 = !DIDerivedType(tag: DW_TAG_member, file: !3, scope: !152, name: "__vptr", size: 64, align: 64, baseType: !158)
!160 = !DIDerivedType(tag: DW_TAG_member, file: !3, scope: !152, name: "_M_gcount", size: 64, align: 64, offset: 64, baseType: !87)
!161 = !{ !249, !255, !256, !257, !269, !305, !310, !315 }
!162 = !DICompositeType(tag: DW_TAG_structure_type, file: !3, name: "_ZSt9basic_iosIcSt11char_traitsIcEE", size: 2112, align: 64, elements: !161)
!163 = !{ !165, !166, !167, !191, !201, !202, !219, !224, !226, !227, !229, !248 }
!164 = !DICompositeType(tag: DW_TAG_structure_type, file: !3, name: "_ZSt8ios_base", size: 1728, align: 64, elements: !163)
!165 = !DIDerivedType(tag: DW_TAG_member, file: !3, scope: !164, name: "__vptr", size: 64, align: 64, baseType: !158)
!166 = !DIDerivedType(tag: DW_TAG_member, file: !3, scope: !164, name: "_M_precision", size: 64, align: 64, offset: 64, baseType: !87)
!167 = !DIDerivedType(tag: DW_TAG_member, file: !3, scope: !164, name: "_M_width", size: 64, align: 64, offset: 128, baseType: !87)
!168 = !DIEnumerator(name: "_ZSt19_S_ios_fmtflags_min", value: -2147483648)
!169 = !DIEnumerator(name: "_ZSt19_S_ios_fmtflags_max", value: 2147483647)
!170 = !DIEnumerator(name: "_ZSt19_S_ios_fmtflags_end", value: 65536)
!171 = !DIEnumerator(name: "_ZSt13_S_floatfield", value: 260)
!172 = !DIEnumerator(name: "_ZSt12_S_basefield", value: 74)
!173 = !DIEnumerator(name: "_ZSt14_S_adjustfield", value: 176)
!174 = !DIEnumerator(name: "_ZSt12_S_uppercase", value: 16384)
!175 = !DIEnumerator(name: "_ZSt10_S_unitbuf", value: 8192)
!176 = !DIEnumerator(name: "_ZSt9_S_skipws", value: 4096)
!177 = !DIEnumerator(name: "_ZSt10_S_showpos", value: 2048)
!178 = !DIEnumerator(name: "_ZSt12_S_showpoint", value: 1024)
!179 = !DIEnumerator(name: "_ZSt11_S_showbase", value: 512)
!180 = !DIEnumerator(name: "_ZSt13_S_scientific", value: 256)
!181 = !DIEnumerator(name: "_ZSt8_S_right", value: 128)
!182 = !DIEnumerator(name: "_ZSt6_S_oct", value: 64)
!183 = !DIEnumerator(name: "_ZSt7_S_left", value: 32)
!184 = !DIEnumerator(name: "_ZSt11_S_internal", value: 16)
!185 = !DIEnumerator(name: "_ZSt6_S_hex", value: 8)
!186 = !DIEnumerator(name: "_ZSt8_S_fixed", value: 4)
!187 = !DIEnumerator(name: "_ZSt6_S_dec", value: 2)
!188 = !DIEnumerator(name: "_ZSt12_S_boolalpha", value: 1)
!189 = !{ !188, !187, !186, !185, !184, !183, !182, !181, !180, !179, !178, !177, !176, !175, !174, !173, !172, !171, !170, !169, !168 }
!190 = !DICompositeType(tag: DW_TAG_enumeration_type, file: !3, name: "_ZSt13_Ios_Fmtflags", size: 32, align: 32, elements: !189)
!191 = !DIDerivedType(tag: DW_TAG_member, file: !3, scope: !164, name: "_M_flags", size: 32, align: 32, offset: 192, baseType: !190)
!192 = !DIEnumerator(name: "_ZSt18_S_ios_iostate_min", value: -2147483648)
!193 = !DIEnumerator(name: "_ZSt18_S_ios_iostate_max", value: 2147483647)
!194 = !DIEnumerator(name: "_ZSt18_S_ios_iostate_end", value: 65536)
!195 = !DIEnumerator(name: "_ZSt10_S_failbit", value: 4)
!196 = !DIEnumerator(name: "_ZSt9_S_eofbit", value: 2)
!197 = !DIEnumerator(name: "_ZSt9_S_badbit", value: 1)
!198 = !DIEnumerator(name: "_ZSt10_S_goodbit", value: 0)
!199 = !{ !198, !197, !196, !195, !194, !193, !192 }
!200 = !DICompositeType(tag: DW_TAG_enumeration_type, file: !3, name: "_ZSt12_Ios_Iostate", size: 32, align: 32, elements: !199)
!201 = !DIDerivedType(tag: DW_TAG_member, file: !3, scope: !164, name: "_M_exception", size: 32, align: 32, offset: 224, baseType: !200)
!202 = !DIDerivedType(tag: DW_TAG_member, file: !3, scope: !164, name: "_M_streambuf_state", size: 32, align: 32, offset: 256, baseType: !200)
!203 = !{ !206, !216, !217, !218 }
!204 = !DICompositeType(tag: DW_TAG_structure_type, file: !3, name: "_ZNSt8ios_base14_Callback_listE", size: 192, align: 64, elements: !203)
!205 = !DIDerivedType(tag: DW_TAG_pointer_type, size: 64, align: 64, baseType: !204)
!206 = !DIDerivedType(tag: DW_TAG_member, file: !3, scope: !204, name: "_M_next", size: 64, align: 64, baseType: !205)
!207 = !DIEnumerator(name: "_ZNSt8ios_base13copyfmt_eventE", value: 2)
!208 = !DIEnumerator(name: "_ZNSt8ios_base11imbue_eventE", value: 1)
!209 = !DIEnumerator(name: "_ZNSt8ios_base11erase_eventE", value: 0)
!210 = !{ !209, !208, !207 }
!211 = !DICompositeType(tag: DW_TAG_enumeration_type, file: !3, name: "_ZNSt8ios_base5eventE", size: 32, align: 32, elements: !210)
!212 = !DIDerivedType(tag: DW_TAG_pointer_type, size: 64, align: 64, baseType: !164)
!213 = !{ null, !211, !212, !95 }
!214 = !DISubroutineType(types: !213)
!215 = !DIDerivedType(tag: DW_TAG_pointer_type, size: 64, align: 64, baseType: !214)
!216 = !DIDerivedType(tag: DW_TAG_member, file: !3, scope: !204, name: "_M_fn", size: 64, align: 64, offset: 64, baseType: !215)
!217 = !DIDerivedType(tag: DW_TAG_member, file: !3, scope: !204, name: "_M_index", size: 32, align: 32, offset: 128, baseType: !95)
!218 = !DIDerivedType(tag: DW_TAG_member, file: !3, scope: !204, name: "_M_refcount", size: 32, align: 32, offset: 160, baseType: !95)
!219 = !DIDerivedType(tag: DW_TAG_member, file: !3, scope: !164, name: "_M_callbacks", size: 64, align: 64, offset: 320, baseType: !205)
!220 = !{ !222, !223 }
!221 = !DICompositeType(tag: DW_TAG_structure_type, file: !3, name: "_ZNSt8ios_base6_WordsE", size: 128, align: 64, elements: !220)
!222 = !DIDerivedType(tag: DW_TAG_member, file: !3, scope: !221, name: "_M_pword", size: 64, align: 64, baseType: !73)
!223 = !DIDerivedType(tag: DW_TAG_member, file: !3, scope: !221, name: "_M_iword", size: 64, align: 64, offset: 64, baseType: !87)
!224 = !DIDerivedType(tag: DW_TAG_member, file: !3, scope: !164, name: "_M_word_zero", size: 128, align: 64, offset: 384, baseType: !221)
!225 = !DICompositeType(tag: DW_TAG_array_type, size: 1024, align: 64, baseType: !221, elements: !121)
!226 = !DIDerivedType(tag: DW_TAG_member, file: !3, scope: !164, name: "_M_local_word", size: 1024, align: 64, offset: 512, baseType: !225)
!227 = !DIDerivedType(tag: DW_TAG_member, file: !3, scope: !164, name: "_M_word_size", size: 32, align: 32, offset: 1536, baseType: !95)
!228 = !DIDerivedType(tag: DW_TAG_pointer_type, size: 64, align: 64, baseType: !221)
!229 = !DIDerivedType(tag: DW_TAG_member, file: !3, scope: !164, name: "_M_word", size: 64, align: 64, offset: 1600, baseType: !228)
!230 = !{ !247 }
!231 = !DICompositeType(tag: DW_TAG_structure_type, file: !3, name: "_ZSt6locale", size: 64, align: 64, elements: !230)
!232 = !{ !234, !241, !242, !243, !245 }
!233 = !DICompositeType(tag: DW_TAG_structure_type, file: !3, name: "_ZNSt6locale5_ImplE", size: 320, align: 64, elements: !232)
!234 = !DIDerivedType(tag: DW_TAG_member, file: !3, scope: !233, name: "_M_refcount", size: 32, align: 32, baseType: !95)
!235 = !{ !237, !238 }
!236 = !DICompositeType(tag: DW_TAG_structure_type, file: !3, name: "_ZNSt6locale5facetE", size: 128, align: 64, elements: !235)
!237 = !DIDerivedType(tag: DW_TAG_member, file: !3, scope: !236, name: "__vptr", size: 64, align: 64, baseType: !158)
!238 = !DIDerivedType(tag: DW_TAG_member, file: !3, scope: !236, name: "_M_refcount", size: 32, align: 32, offset: 64, baseType: !95)
!239 = !DIDerivedType(tag: DW_TAG_pointer_type, size: 64, align: 64, baseType: !236)
!240 = !DIDerivedType(tag: DW_TAG_pointer_type, size: 64, align: 64, baseType: !239)
!241 = !DIDerivedType(tag: DW_TAG_member, file: !3, scope: !233, name: "_M_facets", size: 64, align: 64, offset: 64, baseType: !240)
!242 = !DIDerivedType(tag: DW_TAG_member, file: !3, scope: !233, name: "_M_facets_size", size: 64, align: 64, offset: 128, baseType: !33)
!243 = !DIDerivedType(tag: DW_TAG_member, file: !3, scope: !233, name: "_M_caches", size: 64, align: 64, offset: 192, baseType: !240)
!244 = !DIDerivedType(tag: DW_TAG_pointer_type, size: 64, align: 64, baseType: !35)
!245 = !DIDerivedType(tag: DW_TAG_member, file: !3, scope: !233, name: "_M_names", size: 64, align: 64, offset: 256, baseType: !244)
!246 = !DIDerivedType(tag: DW_TAG_pointer_type, size: 64, align: 64, baseType: !233)
!247 = !DIDerivedType(tag: DW_TAG_member, file: !3, scope: !231, name: "_M_impl", size: 64, align: 64, baseType: !246)
!248 = !DIDerivedType(tag: DW_TAG_member, file: !3, scope: !164, name: "_M_ios_locale", size: 64, align: 64, offset: 1664, baseType: !231)
!249 = !DIDerivedType(tag: DW_TAG_member, file: !3, scope: !162, name: "__b_St8ios_base", size: 1728, align: 64, baseType: !164)
!250 = !{ !252, !253 }
!251 = !DICompositeType(tag: DW_TAG_structure_type, file: !3, name: "_ZSo", size: 2176, align: 64, elements: !250)
!252 = !DIDerivedType(tag: DW_TAG_member, file: !3, scope: !251, name: "__vptr", size: 64, align: 64, baseType: !158)
!253 = !DIDerivedType(tag: DW_TAG_member, file: !3, scope: !251, name: "__v_St9basic_iosIcSt11char_traitsIcEE", size: 2112, align: 64, offset: 64, baseType: !162)
!254 = !DIDerivedType(tag: DW_TAG_pointer_type, size: 64, align: 64, baseType: !251)
!255 = !DIDerivedType(tag: DW_TAG_member, file: !3, scope: !162, name: "_M_tie", size: 64, align: 64, offset: 1728, baseType: !254)
!256 = !DIDerivedType(tag: DW_TAG_member, file: !3, scope: !162, name: "_M_fill", size: 8, align: 8, offset: 1792, baseType: !18)
!257 = !DIDerivedType(tag: DW_TAG_member, file: !3, scope: !162, name: "_M_fill_init", size: 8, align: 8, offset: 1800, baseType: !18)
!258 = !{ !260, !261, !262, !263, !264, !265, !266, !267 }
!259 = !DICompositeType(tag: DW_TAG_structure_type, file: !3, name: "_ZSt15basic_streambufIcSt11char_traitsIcEE", size: 512, align: 64, elements: !258)
!260 = !DIDerivedType(tag: DW_TAG_member, file: !3, scope: !259, name: "__vptr", size: 64, align: 64, baseType: !158)
!261 = !DIDerivedType(tag: DW_TAG_member, file: !3, scope: !259, name: "_M_in_beg", size: 64, align: 64, offset: 64, baseType: !35)
!262 = !DIDerivedType(tag: DW_TAG_member, file: !3, scope: !259, name: "_M_in_cur", size: 64, align: 64, offset: 128, baseType: !35)
!263 = !DIDerivedType(tag: DW_TAG_member, file: !3, scope: !259, name: "_M_in_end", size: 64, align: 64, offset: 192, baseType: !35)
!264 = !DIDerivedType(tag: DW_TAG_member, file: !3, scope: !259, name: "_M_out_beg", size: 64, align: 64, offset: 256, baseType: !35)
!265 = !DIDerivedType(tag: DW_TAG_member, file: !3, scope: !259, name: "_M_out_cur", size: 64, align: 64, offset: 320, baseType: !35)
!266 = !DIDerivedType(tag: DW_TAG_member, file: !3, scope: !259, name: "_M_out_end", size: 64, align: 64, offset: 384, baseType: !35)
!267 = !DIDerivedType(tag: DW_TAG_member, file: !3, scope: !259, name: "_M_buf_locale", size: 64, align: 64, offset: 448, baseType: !231)
!268 = !DIDerivedType(tag: DW_TAG_pointer_type, size: 64, align: 64, baseType: !259)
!269 = !DIDerivedType(tag: DW_TAG_member, file: !3, scope: !162, name: "_M_streambuf", size: 64, align: 64, offset: 1856, baseType: !268)
!270 = !{ !276, !292, !293, !294, !295, !296, !297, !301, !302, !303 }
!271 = !DICompositeType(tag: DW_TAG_structure_type, file: !3, name: "_ZSt5ctypeIcE", size: 4608, align: 64, elements: !270)
!272 = !{ !274, !275 }
!273 = !DICompositeType(tag: DW_TAG_structure_type, file: !3, name: "__SO__NSt6locale5facetE", size: 96, align: 64, elements: !272)
!274 = !DIDerivedType(tag: DW_TAG_member, file: !3, scope: !273, name: "__vptr", size: 64, align: 64, baseType: !158)
!275 = !DIDerivedType(tag: DW_TAG_member, file: !3, scope: !273, name: "_M_refcount", size: 32, align: 32, offset: 64, baseType: !95)
!276 = !DIDerivedType(tag: DW_TAG_member, file: !3, scope: !271, name: "__b_NSt6locale5facetE", size: 96, align: 64, baseType: !273)
!277 = !{ !285, !286, !287, !288, !290 }
!278 = !DICompositeType(tag: DW_TAG_structure_type, file: !3, name: "__locale_struct", size: 1856, align: 64, elements: !277)
!279 = !DISubrange(count: 13)
!280 = !{  }
!281 = !DICompositeType(tag: DW_TAG_structure_type, file: !3, name: "__locale_data", align: 8, elements: !280)
!282 = !DIDerivedType(tag: DW_TAG_pointer_type, size: 64, align: 64, baseType: !281)
!283 = !{ !279 }
!284 = !DICompositeType(tag: DW_TAG_array_type, size: 832, align: 64, baseType: !282, elements: !283)
!285 = !DIDerivedType(tag: DW_TAG_member, file: !3, scope: !278, name: "__locales", size: 832, align: 64, baseType: !284)
!286 = !DIDerivedType(tag: DW_TAG_member, file: !3, scope: !278, name: "__ctype_b", size: 64, align: 64, offset: 832, baseType: !114)
!287 = !DIDerivedType(tag: DW_TAG_member, file: !3, scope: !278, name: "__ctype_tolower", size: 64, align: 64, offset: 896, baseType: !96)
!288 = !DIDerivedType(tag: DW_TAG_member, file: !3, scope: !278, name: "__ctype_toupper", size: 64, align: 64, offset: 960, baseType: !96)
!289 = !DICompositeType(tag: DW_TAG_array_type, size: 832, align: 64, baseType: !35, elements: !283)
!290 = !DIDerivedType(tag: DW_TAG_member, file: !3, scope: !278, name: "__names", size: 832, align: 64, offset: 1024, baseType: !289)
!291 = !DIDerivedType(tag: DW_TAG_pointer_type, size: 64, align: 64, baseType: !278)
!292 = !DIDerivedType(tag: DW_TAG_member, file: !3, scope: !271, name: "_M_c_locale_ctype", size: 64, align: 64, offset: 128, baseType: !291)
!293 = !DIDerivedType(tag: DW_TAG_member, file: !3, scope: !271, name: "_M_del", size: 8, align: 8, offset: 192, baseType: !18)
!294 = !DIDerivedType(tag: DW_TAG_member, file: !3, scope: !271, name: "_M_toupper", size: 64, align: 64, offset: 256, baseType: !96)
!295 = !DIDerivedType(tag: DW_TAG_member, file: !3, scope: !271, name: "_M_tolower", size: 64, align: 64, offset: 320, baseType: !96)
!296 = !DIDerivedType(tag: DW_TAG_member, file: !3, scope: !271, name: "_M_table", size: 64, align: 64, offset: 384, baseType: !114)
!297 = !DIDerivedType(tag: DW_TAG_member, file: !3, scope: !271, name: "_M_widen_ok", size: 8, align: 8, offset: 448, baseType: !18)
!298 = !DISubrange(count: 256)
!299 = !{ !298 }
!300 = !DICompositeType(tag: DW_TAG_array_type, size: 2048, align: 8, baseType: !18, elements: !299)
!301 = !DIDerivedType(tag: DW_TAG_member, file: !3, scope: !271, name: "_M_widen", size: 2048, align: 8, offset: 456, baseType: !300)
!302 = !DIDerivedType(tag: DW_TAG_member, file: !3, scope: !271, name: "_M_narrow", size: 2048, align: 8, offset: 2504, baseType: !300)
!303 = !DIDerivedType(tag: DW_TAG_member, file: !3, scope: !271, name: "_M_narrow_ok", size: 8, align: 8, offset: 4552, baseType: !18)
!304 = !DIDerivedType(tag: DW_TAG_pointer_type, size: 64, align: 64, baseType: !271)
!305 = !DIDerivedType(tag: DW_TAG_member, file: !3, scope: !162, name: "_M_ctype", size: 64, align: 64, offset: 1920, baseType: !304)
!306 = !{ !308 }
!307 = !DICompositeType(tag: DW_TAG_structure_type, file: !3, name: "_ZSt7num_putIcSt19ostreambuf_iteratorIcSt11char_traitsIcEEE", size: 128, align: 64, elements: !306)
!308 = !DIDerivedType(tag: DW_TAG_member, file: !3, scope: !307, name: "__b_NSt6locale5facetE", size: 96, align: 64, baseType: !273)
!309 = !DIDerivedType(tag: DW_TAG_pointer_type, size: 64, align: 64, baseType: !307)
!310 = !DIDerivedType(tag: DW_TAG_member, file: !3, scope: !162, name: "_M_num_put", size: 64, align: 64, offset: 1984, baseType: !309)
!311 = !{ !313 }
!312 = !DICompositeType(tag: DW_TAG_structure_type, file: !3, name: "_ZSt7num_getIcSt19istreambuf_iteratorIcSt11char_traitsIcEEE", size: 128, align: 64, elements: !311)
!313 = !DIDerivedType(tag: DW_TAG_member, file: !3, scope: !312, name: "__b_NSt6locale5facetE", size: 96, align: 64, baseType: !273)
!314 = !DIDerivedType(tag: DW_TAG_pointer_type, size: 64, align: 64, baseType: !312)
!315 = !DIDerivedType(tag: DW_TAG_member, file: !3, scope: !162, name: "_M_num_get", size: 64, align: 64, offset: 2048, baseType: !314)
!316 = !DIDerivedType(tag: DW_TAG_member, file: !3, scope: !152, name: "__v_St9basic_iosIcSt11char_traitsIcEE", size: 2112, align: 64, offset: 128, baseType: !162)
!317 = !DIDerivedType(tag: DW_TAG_typedef, file: !3, scope: !11, name: "istream", line: 1, size: 2240, align: 64, baseType: !152)
!318 = !DIDerivedType(tag: DW_TAG_typedef, file: !3, scope: !11, name: "ostream", line: 1, size: 2176, align: 64, baseType: !251)
!319 = !{ !321, !322, !376 }
!320 = !DICompositeType(tag: DW_TAG_structure_type, file: !3, name: "_ZSt13basic_istreamIwSt11char_traitsIwEE", size: 2240, align: 64, elements: !319)
!321 = !DIDerivedType(tag: DW_TAG_member, file: !3, scope: !320, name: "__vptr", size: 64, align: 64, baseType: !158)
!322 = !DIDerivedType(tag: DW_TAG_member, file: !3, scope: !320, name: "_M_gcount", size: 64, align: 64, offset: 64, baseType: !87)
!323 = !{ !325, !331, !332, !333, !345, !365, !370, !375 }
!324 = !DICompositeType(tag: DW_TAG_structure_type, file: !3, name: "_ZSt9basic_iosIwSt11char_traitsIwEE", size: 2112, align: 64, elements: !323)
!325 = !DIDerivedType(tag: DW_TAG_member, file: !3, scope: !324, name: "__b_St8ios_base", size: 1728, align: 64, baseType: !164)
!326 = !{ !328, !329 }
!327 = !DICompositeType(tag: DW_TAG_structure_type, file: !3, name: "_ZSt13basic_ostreamIwSt11char_traitsIwEE", size: 2176, align: 64, elements: !326)
!328 = !DIDerivedType(tag: DW_TAG_member, file: !3, scope: !327, name: "__vptr", size: 64, align: 64, baseType: !158)
!329 = !DIDerivedType(tag: DW_TAG_member, file: !3, scope: !327, name: "__v_St9basic_iosIwSt11char_traitsIwEE", size: 2112, align: 64, offset: 64, baseType: !324)
!330 = !DIDerivedType(tag: DW_TAG_pointer_type, size: 64, align: 64, baseType: !327)
!331 = !DIDerivedType(tag: DW_TAG_member, file: !3, scope: !324, name: "_M_tie", size: 64, align: 64, offset: 1728, baseType: !330)
!332 = !DIDerivedType(tag: DW_TAG_member, file: !3, scope: !324, name: "_M_fill", size: 32, align: 32, offset: 1792, baseType: !95)
!333 = !DIDerivedType(tag: DW_TAG_member, file: !3, scope: !324, name: "_M_fill_init", size: 8, align: 8, offset: 1824, baseType: !18)
!334 = !{ !336, !337, !338, !339, !340, !341, !342, !343 }
!335 = !DICompositeType(tag: DW_TAG_structure_type, file: !3, name: "_ZSt15basic_streambufIwSt11char_traitsIwEE", size: 512, align: 64, elements: !334)
!336 = !DIDerivedType(tag: DW_TAG_member, file: !3, scope: !335, name: "__vptr", size: 64, align: 64, baseType: !158)
!337 = !DIDerivedType(tag: DW_TAG_member, file: !3, scope: !335, name: "_M_in_beg", size: 64, align: 64, offset: 64, baseType: !96)
!338 = !DIDerivedType(tag: DW_TAG_member, file: !3, scope: !335, name: "_M_in_cur", size: 64, align: 64, offset: 128, baseType: !96)
!339 = !DIDerivedType(tag: DW_TAG_member, file: !3, scope: !335, name: "_M_in_end", size: 64, align: 64, offset: 192, baseType: !96)
!340 = !DIDerivedType(tag: DW_TAG_member, file: !3, scope: !335, name: "_M_out_beg", size: 64, align: 64, offset: 256, baseType: !96)
!341 = !DIDerivedType(tag: DW_TAG_member, file: !3, scope: !335, name: "_M_out_cur", size: 64, align: 64, offset: 320, baseType: !96)
!342 = !DIDerivedType(tag: DW_TAG_member, file: !3, scope: !335, name: "_M_out_end", size: 64, align: 64, offset: 384, baseType: !96)
!343 = !DIDerivedType(tag: DW_TAG_member, file: !3, scope: !335, name: "_M_buf_locale", size: 64, align: 64, offset: 448, baseType: !231)
!344 = !DIDerivedType(tag: DW_TAG_pointer_type, size: 64, align: 64, baseType: !335)
!345 = !DIDerivedType(tag: DW_TAG_member, file: !3, scope: !324, name: "_M_streambuf", size: 64, align: 64, offset: 1856, baseType: !344)
!346 = !{ !351, !352, !353, !357, !359, !361, !363 }
!347 = !DICompositeType(tag: DW_TAG_structure_type, file: !3, name: "_ZSt5ctypeIwE", size: 10752, align: 64, elements: !346)
!348 = !{ !350 }
!349 = !DICompositeType(tag: DW_TAG_structure_type, file: !3, name: "__SO__St21__ctype_abstract_baseIwE", size: 96, align: 64, elements: !348)
!350 = !DIDerivedType(tag: DW_TAG_member, file: !3, scope: !349, name: "__b_NSt6locale5facetE", size: 96, align: 64, baseType: !273)
!351 = !DIDerivedType(tag: DW_TAG_member, file: !3, scope: !347, name: "__b_St21__ctype_abstract_baseIwE", size: 96, align: 64, baseType: !349)
!352 = !DIDerivedType(tag: DW_TAG_member, file: !3, scope: !347, name: "_M_c_locale_ctype", size: 64, align: 64, offset: 128, baseType: !291)
!353 = !DIDerivedType(tag: DW_TAG_member, file: !3, scope: !347, name: "_M_narrow_ok", size: 8, align: 8, offset: 192, baseType: !18)
!354 = !DISubrange(count: 128)
!355 = !{ !354 }
!356 = !DICompositeType(tag: DW_TAG_array_type, size: 1024, align: 8, baseType: !18, elements: !355)
!357 = !DIDerivedType(tag: DW_TAG_member, file: !3, scope: !347, name: "_M_narrow", size: 1024, align: 8, offset: 200, baseType: !356)
!358 = !DICompositeType(tag: DW_TAG_array_type, size: 8192, align: 32, baseType: !131, elements: !299)
!359 = !DIDerivedType(tag: DW_TAG_member, file: !3, scope: !347, name: "_M_widen", size: 8192, align: 32, offset: 1248, baseType: !358)
!360 = !DICompositeType(tag: DW_TAG_array_type, size: 256, align: 16, baseType: !113, elements: !62)
!361 = !DIDerivedType(tag: DW_TAG_member, file: !3, scope: !347, name: "_M_bit", size: 256, align: 16, offset: 9440, baseType: !360)
!362 = !DICompositeType(tag: DW_TAG_array_type, size: 1024, align: 64, baseType: !33, elements: !62)
!363 = !DIDerivedType(tag: DW_TAG_member, file: !3, scope: !347, name: "_M_wmask", size: 1024, align: 64, offset: 9728, baseType: !362)
!364 = !DIDerivedType(tag: DW_TAG_pointer_type, size: 64, align: 64, baseType: !347)
!365 = !DIDerivedType(tag: DW_TAG_member, file: !3, scope: !324, name: "_M_ctype", size: 64, align: 64, offset: 1920, baseType: !364)
!366 = !{ !368 }
!367 = !DICompositeType(tag: DW_TAG_structure_type, file: !3, name: "_ZSt7num_putIwSt19ostreambuf_iteratorIwSt11char_traitsIwEEE", size: 128, align: 64, elements: !366)
!368 = !DIDerivedType(tag: DW_TAG_member, file: !3, scope: !367, name: "__b_NSt6locale5facetE", size: 96, align: 64, baseType: !273)
!369 = !DIDerivedType(tag: DW_TAG_pointer_type, size: 64, align: 64, baseType: !367)
!370 = !DIDerivedType(tag: DW_TAG_member, file: !3, scope: !324, name: "_M_num_put", size: 64, align: 64, offset: 1984, baseType: !369)
!371 = !{ !373 }
!372 = !DICompositeType(tag: DW_TAG_structure_type, file: !3, name: "_ZSt7num_getIwSt19istreambuf_iteratorIwSt11char_traitsIwEEE", size: 128, align: 64, elements: !371)
!373 = !DIDerivedType(tag: DW_TAG_member, file: !3, scope: !372, name: "__b_NSt6locale5facetE", size: 96, align: 64, baseType: !273)
!374 = !DIDerivedType(tag: DW_TAG_pointer_type, size: 64, align: 64, baseType: !372)
!375 = !DIDerivedType(tag: DW_TAG_member, file: !3, scope: !324, name: "_M_num_get", size: 64, align: 64, offset: 2048, baseType: !374)
!376 = !DIDerivedType(tag: DW_TAG_member, file: !3, scope: !320, name: "__v_St9basic_iosIwSt11char_traitsIwEE", size: 2112, align: 64, offset: 128, baseType: !324)
!377 = !DIDerivedType(tag: DW_TAG_typedef, file: !3, scope: !11, name: "wistream", line: 1, size: 2240, align: 64, baseType: !320)
!378 = !DIDerivedType(tag: DW_TAG_typedef, file: !3, scope: !11, name: "wostream", line: 1, size: 2176, align: 64, baseType: !327)
!379 = !{  }
!380 = !DICompositeType(tag: DW_TAG_class_type, file: !3, scope: !11, name: "exception", line: 1, size: 64, align: 64, elements: !379, runtimeLang: DW_LANG_C_plus_plus)
!381 = !{ !383 }
!382 = !DICompositeType(tag: DW_TAG_class_type, file: !3, scope: !11, name: "bad_exception", line: 1, size: 64, align: 64, elements: !381, runtimeLang: DW_LANG_C_plus_plus)
!383 = !DIDerivedType(tag: DW_TAG_inheritance, file: !3, scope: !382, name: "exception", line: 1, size: 64, align: 64, baseType: !380)
!384 = !{ null }
!385 = !DISubroutineType(types: !384)
!386 = !DIDerivedType(tag: DW_TAG_pointer_type, size: 64, align: 64, baseType: !385)
!387 = !DIDerivedType(tag: DW_TAG_typedef, file: !3, scope: !11, name: "terminate_handler", line: 1, size: 64, align: 64, baseType: !386)
!388 = !DIDerivedType(tag: DW_TAG_typedef, file: !3, scope: !11, name: "unexpected_handler", line: 1, size: 64, align: 64, baseType: !386)
!389 = !{ !391 }
!390 = !DICompositeType(tag: DW_TAG_class_type, file: !3, scope: !11, name: "type_info", line: 1, size: 128, align: 64, elements: !389, runtimeLang: DW_LANG_C_plus_plus)
!391 = !DIDerivedType(tag: DW_TAG_member, file: !3, scope: !390, name: "__name", line: 1, size: 64, align: 64, offset: 64, baseType: !35)
!392 = !{ !394 }
!393 = !DICompositeType(tag: DW_TAG_class_type, file: !3, scope: !11, name: "bad_cast", line: 1, size: 64, align: 64, elements: !392, runtimeLang: DW_LANG_C_plus_plus)
!394 = !DIDerivedType(tag: DW_TAG_inheritance, file: !3, scope: !393, name: "exception", line: 1, size: 64, align: 64, baseType: !380)
!395 = !{ !397 }
!396 = !DICompositeType(tag: DW_TAG_class_type, file: !3, scope: !11, name: "bad_typeid", line: 1, size: 64, align: 64, elements: !395, runtimeLang: DW_LANG_C_plus_plus)
!397 = !DIDerivedType(tag: DW_TAG_inheritance, file: !3, scope: !396, name: "exception", line: 1, size: 64, align: 64, baseType: !380)
!398 = !{ !400 }
!399 = !DICompositeType(tag: DW_TAG_class_type, file: !3, scope: !11, name: "bad_alloc", line: 1, size: 64, align: 64, elements: !398, runtimeLang: DW_LANG_C_plus_plus)
!400 = !DIDerivedType(tag: DW_TAG_inheritance, file: !3, scope: !399, name: "exception", line: 1, size: 64, align: 64, baseType: !380)
!401 = !{ !403 }
!402 = !DICompositeType(tag: DW_TAG_class_type, file: !3, scope: !11, name: "bad_array_new_length", line: 1, size: 64, align: 64, elements: !401, runtimeLang: DW_LANG_C_plus_plus)
!403 = !DIDerivedType(tag: DW_TAG_inheritance, file: !3, scope: !402, name: "bad_alloc", line: 1, size: 64, align: 64, baseType: !399)
!404 = !{  }
!405 = !DICompositeType(tag: DW_TAG_structure_type, file: !3, scope: !11, name: "nothrow_t", line: 1, size: 8, align: 8, elements: !404, runtimeLang: DW_LANG_C_plus_plus)
!406 = !DIDerivedType(tag: DW_TAG_typedef, file: !3, scope: !11, name: "new_handler", line: 1, size: 64, align: 64, baseType: !386)
!407 = !{ !409 }
!408 = !DICompositeType(tag: DW_TAG_structure_type, file: !3, name: "_ZSt17integral_constantIbLb1EE", size: 8, align: 8, elements: !407)
!409 = !DIDerivedType(tag: DW_TAG_member, file: !3, scope: !408, size: 8, align: 8, baseType: !20)
!410 = !DIDerivedType(tag: DW_TAG_typedef, file: !3, scope: !11, name: "true_type", line: 1, size: 8, align: 8, baseType: !408)
!411 = !{ !413 }
!412 = !DICompositeType(tag: DW_TAG_structure_type, file: !3, name: "_ZSt17integral_constantIbLb0EE", size: 8, align: 8, elements: !411)
!413 = !DIDerivedType(tag: DW_TAG_member, file: !3, scope: !412, size: 8, align: 8, baseType: !20)
!414 = !DIDerivedType(tag: DW_TAG_typedef, file: !3, scope: !11, name: "false_type", line: 1, size: 8, align: 8, baseType: !412)
!415 = !{  }
!416 = !DICompositeType(tag: DW_TAG_structure_type, file: !3, scope: !11, name: "__failure_type", line: 1, size: 8, align: 8, elements: !415, runtimeLang: DW_LANG_C_plus_plus)
!417 = !{  }
!418 = !DICompositeType(tag: DW_TAG_structure_type, file: !3, scope: !11, name: "__do_is_destructible_impl", line: 1, size: 8, align: 8, elements: !417, runtimeLang: DW_LANG_C_plus_plus)
!419 = !{  }
!420 = !DICompositeType(tag: DW_TAG_structure_type, file: !3, scope: !11, name: "__do_is_nt_destructible_impl", line: 1, size: 8, align: 8, elements: !419, runtimeLang: DW_LANG_C_plus_plus)
!421 = !{  }
!422 = !DICompositeType(tag: DW_TAG_structure_type, file: !3, scope: !11, name: "__do_is_implicitly_default_constructible_impl", line: 1, size: 8, align: 8, elements: !421, runtimeLang: DW_LANG_C_plus_plus)
!423 = !{  }
!424 = !DICompositeType(tag: DW_TAG_class_type, file: !3, scope: !11, name: "__make_unsigned_selector_base", line: 1, size: 8, align: 8, elements: !423, runtimeLang: DW_LANG_C_plus_plus)
!425 = !{  }
!426 = !DICompositeType(tag: DW_TAG_structure_type, file: !3, scope: !11, name: "__do_common_type_impl", line: 1, size: 8, align: 8, elements: !425, runtimeLang: DW_LANG_C_plus_plus)
!427 = !{  }
!428 = !DICompositeType(tag: DW_TAG_structure_type, file: !3, scope: !11, name: "__do_member_type_wrapper", line: 1, size: 8, align: 8, elements: !427, runtimeLang: DW_LANG_C_plus_plus)
!429 = !{  }
!430 = !DICompositeType(tag: DW_TAG_structure_type, file: !3, scope: !11, name: "__invoke_memfun_ref", line: 1, size: 8, align: 8, elements: !429, runtimeLang: DW_LANG_C_plus_plus)
!431 = !{  }
!432 = !DICompositeType(tag: DW_TAG_structure_type, file: !3, scope: !11, name: "__invoke_memfun_deref", line: 1, size: 8, align: 8, elements: !431, runtimeLang: DW_LANG_C_plus_plus)
!433 = !{  }
!434 = !DICompositeType(tag: DW_TAG_structure_type, file: !3, scope: !11, name: "__invoke_memobj_ref", line: 1, size: 8, align: 8, elements: !433, runtimeLang: DW_LANG_C_plus_plus)
!435 = !{  }
!436 = !DICompositeType(tag: DW_TAG_structure_type, file: !3, scope: !11, name: "__invoke_memobj_deref", line: 1, size: 8, align: 8, elements: !435, runtimeLang: DW_LANG_C_plus_plus)
!437 = !{  }
!438 = !DICompositeType(tag: DW_TAG_structure_type, file: !3, scope: !11, name: "__invoke_other", line: 1, size: 8, align: 8, elements: !437, runtimeLang: DW_LANG_C_plus_plus)
!439 = !{  }
!440 = !DICompositeType(tag: DW_TAG_structure_type, file: !3, scope: !11, name: "__result_of_memfun_ref_impl", line: 1, size: 8, align: 8, elements: !439, runtimeLang: DW_LANG_C_plus_plus)
!441 = !{  }
!442 = !DICompositeType(tag: DW_TAG_structure_type, file: !3, scope: !11, name: "__result_of_memfun_deref_impl", line: 1, size: 8, align: 8, elements: !441, runtimeLang: DW_LANG_C_plus_plus)
!443 = !{  }
!444 = !DICompositeType(tag: DW_TAG_structure_type, file: !3, scope: !11, name: "__result_of_memobj_ref_impl", line: 1, size: 8, align: 8, elements: !443, runtimeLang: DW_LANG_C_plus_plus)
!445 = !{  }
!446 = !DICompositeType(tag: DW_TAG_structure_type, file: !3, scope: !11, name: "__result_of_memobj_deref_impl", line: 1, size: 8, align: 8, elements: !445, runtimeLang: DW_LANG_C_plus_plus)
!447 = !{  }
!448 = !DICompositeType(tag: DW_TAG_structure_type, file: !3, scope: !11, name: "__result_of_other_impl", line: 1, size: 8, align: 8, elements: !447, runtimeLang: DW_LANG_C_plus_plus)
!449 = !{  }
!450 = !DICompositeType(tag: DW_TAG_structure_type, file: !3, scope: !11, name: "__nonesuch", line: 1, size: 8, align: 8, elements: !449, runtimeLang: DW_LANG_C_plus_plus)
!451 = !{ !453 }
!452 = !DICompositeType(tag: DW_TAG_class_type, file: !3, scope: !11, name: "nested_exception", line: 1, size: 128, align: 64, elements: !451, runtimeLang: DW_LANG_C_plus_plus)
!453 = !DIDerivedType(tag: DW_TAG_member, file: !3, scope: !452, name: "_M_ptr", line: 1, size: 64, align: 64, offset: 64, baseType: !71)
!454 = !{  }
!455 = !DICompositeType(tag: DW_TAG_structure_type, file: !3, scope: !11, name: "__true_type", line: 1, size: 8, align: 8, elements: !454, runtimeLang: DW_LANG_C_plus_plus)
!456 = !{  }
!457 = !DICompositeType(tag: DW_TAG_structure_type, file: !3, scope: !11, name: "__false_type", line: 1, size: 8, align: 8, elements: !456, runtimeLang: DW_LANG_C_plus_plus)
!458 = !{  }
!459 = !DICompositeType(tag: DW_TAG_structure_type, file: !3, scope: !11, name: "piecewise_construct_t", line: 1, size: 8, align: 8, elements: !458, runtimeLang: DW_LANG_C_plus_plus)
!460 = !{ !462 }
!461 = !DICompositeType(tag: DW_TAG_structure_type, file: !3, scope: !11, name: "__nonesuch_no_braces", line: 1, size: 8, align: 8, elements: !460, runtimeLang: DW_LANG_C_plus_plus)
!462 = !DIDerivedType(tag: DW_TAG_inheritance, file: !3, scope: !461, name: "__nonesuch", line: 1, size: 8, align: 8, baseType: !450)
!463 = !{  }
!464 = !DICompositeType(tag: DW_TAG_structure_type, file: !3, scope: !11, name: "input_iterator_tag", line: 1, size: 8, align: 8, elements: !463, runtimeLang: DW_LANG_C_plus_plus)
!465 = !{  }
!466 = !DICompositeType(tag: DW_TAG_structure_type, file: !3, scope: !11, name: "output_iterator_tag", line: 1, size: 8, align: 8, elements: !465, runtimeLang: DW_LANG_C_plus_plus)
!467 = !{ !469 }
!468 = !DICompositeType(tag: DW_TAG_structure_type, file: !3, scope: !11, name: "forward_iterator_tag", line: 1, size: 8, align: 8, elements: !467, runtimeLang: DW_LANG_C_plus_plus)
!469 = !DIDerivedType(tag: DW_TAG_inheritance, file: !3, scope: !468, name: "input_iterator_tag", line: 1, size: 8, align: 8, baseType: !464)
!470 = !{ !472 }
!471 = !DICompositeType(tag: DW_TAG_structure_type, file: !3, scope: !11, name: "bidirectional_iterator_tag", line: 1, size: 8, align: 8, elements: !470, runtimeLang: DW_LANG_C_plus_plus)
!472 = !DIDerivedType(tag: DW_TAG_inheritance, file: !3, scope: !471, name: "forward_iterator_tag", line: 1, size: 8, align: 8, baseType: !468)
!473 = !{ !475 }
!474 = !DICompositeType(tag: DW_TAG_structure_type, file: !3, scope: !11, name: "random_access_iterator_tag", line: 1, size: 8, align: 8, elements: !473, runtimeLang: DW_LANG_C_plus_plus)
!475 = !DIDerivedType(tag: DW_TAG_inheritance, file: !3, scope: !474, name: "bidirectional_iterator_tag", line: 1, size: 8, align: 8, baseType: !471)
!476 = !{  }
!477 = !DICompositeType(tag: DW_TAG_class_type, file: !3, scope: !11, name: "__undefined", line: 1, align: 8, elements: !476, runtimeLang: DW_LANG_C_plus_plus)
!478 = !DIDerivedType(tag: DW_TAG_typedef, file: !3, scope: !11, name: "__c_locale", line: 1, size: 64, align: 64, baseType: !291)
!479 = !{  }
!480 = !DICompositeType(tag: DW_TAG_structure_type, file: !3, scope: !11, name: "__is_transparent", line: 1, align: 8, elements: !479, runtimeLang: DW_LANG_C_plus_plus)
!481 = !{  }
!482 = !DICompositeType(tag: DW_TAG_structure_type, file: !3, scope: !11, name: "__allocator_traits_base", line: 1, size: 8, align: 8, elements: !481, runtimeLang: DW_LANG_C_plus_plus)
!483 = !{  }
!484 = !DICompositeType(tag: DW_TAG_structure_type, file: !3, scope: !11, name: "allocator_traits", line: 1, size: 8, align: 8, elements: !483, runtimeLang: DW_LANG_C_plus_plus)
!485 = !DIDerivedType(tag: DW_TAG_typedef, file: !3, scope: !484, name: "allocator_type", line: 1, size: 8, align: 8, baseType: !16)
!486 = !DIDerivedType(tag: DW_TAG_typedef, file: !3, scope: !484, name: "value_type", line: 1, size: 8, align: 8, baseType: !18)
!487 = !DIDerivedType(tag: DW_TAG_typedef, file: !3, scope: !484, name: "pointer", line: 1, size: 64, align: 64, baseType: !35)
!488 = !DIDerivedType(tag: DW_TAG_typedef, file: !3, scope: !484, name: "const_pointer", line: 1, size: 64, align: 64, baseType: !35)
!489 = !DIDerivedType(tag: DW_TAG_typedef, file: !3, scope: !484, name: "void_pointer", line: 1, size: 64, align: 64, baseType: !73)
!490 = !DIDerivedType(tag: DW_TAG_typedef, file: !3, scope: !484, name: "const_void_pointer", line: 1, size: 64, align: 64, baseType: !73)
!491 = !DIDerivedType(tag: DW_TAG_typedef, file: !3, scope: !484, name: "difference_type", line: 1, size: 64, align: 64, baseType: !87)
!492 = !DIDerivedType(tag: DW_TAG_typedef, file: !3, scope: !484, name: "size_type", line: 1, size: 64, align: 64, baseType: !33)
!493 = !DIDerivedType(tag: DW_TAG_typedef, file: !3, scope: !484, name: "propagate_on_container_copy_assignment", line: 1, size: 8, align: 8, baseType: !412)
!494 = !DIDerivedType(tag: DW_TAG_typedef, file: !3, scope: !484, name: "propagate_on_container_swap", line: 1, size: 8, align: 8, baseType: !412)
!495 = !DIDerivedType(tag: DW_TAG_typedef, file: !3, scope: !484, name: "is_always_equal", line: 1, size: 8, align: 8, baseType: !408)
!496 = !{  }
!497 = !DICompositeType(tag: DW_TAG_structure_type, file: !3, scope: !11, name: "_Hash_impl", line: 1, size: 8, align: 8, elements: !496, runtimeLang: DW_LANG_C_plus_plus)
!498 = !{  }
!499 = !DICompositeType(tag: DW_TAG_structure_type, file: !3, scope: !11, name: "_Fnv_hash_impl", line: 1, size: 8, align: 8, elements: !498, runtimeLang: DW_LANG_C_plus_plus)
!500 = !{ !502, !503, !504, !505, !506, !507, !508, !509, !510, !511, !512, !513, !514, !515, !516, !517, !518, !519, !520, !521, !522, !523, !524, !525, !526, !527, !528, !529, !530, !531, !532, !533, !534, !535, !536, !537, !538, !539, !540, !541, !542, !543, !544, !545, !546, !547, !548, !549, !550, !551, !552, !553, !554, !555, !556, !557, !558, !559, !560, !561, !562, !563, !564, !565, !566, !567, !568, !569, !570, !571, !572, !573, !574, !575, !576, !577, !578, !579 }
!501 = !DICompositeType(tag: DW_TAG_enumeration_type, file: !3, scope: !11, name: "errc", line: 1, size: 32, align: 32, elements: !500, runtimeLang: DW_LANG_C_plus_plus)
!502 = !DIEnumerator(name: "_ZNSt4errc19wrong_protocol_typeE", value: 91)
!503 = !DIEnumerator(name: "_ZNSt4errc15value_too_largeE", value: 75)
!504 = !DIEnumerator(name: "_ZNSt4errc29too_many_symbolic_link_levelsE", value: 40)
!505 = !DIEnumerator(name: "_ZNSt4errc14too_many_linksE", value: 31)
!506 = !DIEnumerator(name: "_ZNSt4errc19too_many_files_openE", value: 24)
!507 = !DIEnumerator(name: "_ZNSt4errc29too_many_files_open_in_systemE", value: 23)
!508 = !DIEnumerator(name: "_ZNSt4errc9timed_outE", value: 110)
!509 = !DIEnumerator(name: "_ZNSt4errc14text_file_busyE", value: 26)
!510 = !DIEnumerator(name: "_ZNSt4errc14stream_timeoutE", value: 62)
!511 = !DIEnumerator(name: "_ZNSt4errc21state_not_recoverableE", value: 131)
!512 = !DIEnumerator(name: "_ZNSt4errc19result_out_of_rangeE", value: 34)
!513 = !DIEnumerator(name: "_ZNSt4errc30resource_unavailable_try_againE", value: 11)
!514 = !DIEnumerator(name: "_ZNSt4errc29resource_deadlock_would_occurE", value: 35)
!515 = !DIEnumerator(name: "_ZNSt4errc21read_only_file_systemE", value: 30)
!516 = !DIEnumerator(name: "_ZNSt4errc22protocol_not_supportedE", value: 93)
!517 = !DIEnumerator(name: "_ZNSt4errc14protocol_errorE", value: 71)
!518 = !DIEnumerator(name: "_ZNSt4errc17permission_deniedE", value: 13)
!519 = !DIEnumerator(name: "_ZNSt4errc10owner_deadE", value: 130)
!520 = !DIEnumerator(name: "_ZNSt4errc21operation_would_blockE", value: 11)
!521 = !DIEnumerator(name: "_ZNSt4errc23operation_not_supportedE", value: 95)
!522 = !DIEnumerator(name: "_ZNSt4errc23operation_not_permittedE", value: 1)
!523 = !DIEnumerator(name: "_ZNSt4errc21operation_in_progressE", value: 115)
!524 = !DIEnumerator(name: "_ZNSt4errc18operation_canceledE", value: 125)
!525 = !DIEnumerator(name: "_ZNSt4errc13not_supportedE", value: 95)
!526 = !DIEnumerator(name: "_ZNSt4errc17not_enough_memoryE", value: 12)
!527 = !DIEnumerator(name: "_ZNSt4errc13not_connectedE", value: 107)
!528 = !DIEnumerator(name: "_ZNSt4errc12not_a_streamE", value: 60)
!529 = !DIEnumerator(name: "_ZNSt4errc12not_a_socketE", value: 88)
!530 = !DIEnumerator(name: "_ZNSt4errc15not_a_directoryE", value: 20)
!531 = !DIEnumerator(name: "_ZNSt4errc15no_such_processE", value: 3)
!532 = !DIEnumerator(name: "_ZNSt4errc25no_such_file_or_directoryE", value: 2)
!533 = !DIEnumerator(name: "_ZNSt4errc14no_such_deviceE", value: 19)
!534 = !DIEnumerator(name: "_ZNSt4errc25no_such_device_or_addressE", value: 6)
!535 = !DIEnumerator(name: "_ZNSt4errc19no_stream_resourcesE", value: 63)
!536 = !DIEnumerator(name: "_ZNSt4errc18no_space_on_deviceE", value: 28)
!537 = !DIEnumerator(name: "_ZNSt4errc18no_protocol_optionE", value: 92)
!538 = !DIEnumerator(name: "_ZNSt4errc10no_messageE", value: 42)
!539 = !DIEnumerator(name: "_ZNSt4errc20no_message_availableE", value: 61)
!540 = !DIEnumerator(name: "_ZNSt4errc17no_lock_availableE", value: 37)
!541 = !DIEnumerator(name: "_ZNSt4errc7no_linkE", value: 67)
!542 = !DIEnumerator(name: "_ZNSt4errc16no_child_processE", value: 10)
!543 = !DIEnumerator(name: "_ZNSt4errc15no_buffer_spaceE", value: 105)
!544 = !DIEnumerator(name: "_ZNSt4errc19network_unreachableE", value: 101)
!545 = !DIEnumerator(name: "_ZNSt4errc13network_resetE", value: 102)
!546 = !DIEnumerator(name: "_ZNSt4errc12network_downE", value: 100)
!547 = !DIEnumerator(name: "_ZNSt4errc12message_sizeE", value: 90)
!548 = !DIEnumerator(name: "_ZNSt4errc14is_a_directoryE", value: 21)
!549 = !DIEnumerator(name: "_ZNSt4errc8io_errorE", value: 5)
!550 = !DIEnumerator(name: "_ZNSt4errc12invalid_seekE", value: 29)
!551 = !DIEnumerator(name: "_ZNSt4errc16invalid_argumentE", value: 22)
!552 = !DIEnumerator(name: "_ZNSt4errc11interruptedE", value: 4)
!553 = !DIEnumerator(name: "_ZNSt4errc34inappropriate_io_control_operationE", value: 25)
!554 = !DIEnumerator(name: "_ZNSt4errc21illegal_byte_sequenceE", value: 84)
!555 = !DIEnumerator(name: "_ZNSt4errc18identifier_removedE", value: 43)
!556 = !DIEnumerator(name: "_ZNSt4errc16host_unreachableE", value: 113)
!557 = !DIEnumerator(name: "_ZNSt4errc22function_not_supportedE", value: 38)
!558 = !DIEnumerator(name: "_ZNSt4errc17filename_too_longE", value: 36)
!559 = !DIEnumerator(name: "_ZNSt4errc14file_too_largeE", value: 27)
!560 = !DIEnumerator(name: "_ZNSt4errc11file_existsE", value: 17)
!561 = !DIEnumerator(name: "_ZNSt4errc23executable_format_errorE", value: 8)
!562 = !DIEnumerator(name: "_ZNSt4errc19directory_not_emptyE", value: 39)
!563 = !DIEnumerator(name: "_ZNSt4errc23device_or_resource_busyE", value: 16)
!564 = !DIEnumerator(name: "_ZNSt4errc28destination_address_requiredE", value: 89)
!565 = !DIEnumerator(name: "_ZNSt4errc17cross_device_linkE", value: 18)
!566 = !DIEnumerator(name: "_ZNSt4errc16connection_resetE", value: 104)
!567 = !DIEnumerator(name: "_ZNSt4errc18connection_refusedE", value: 111)
!568 = !DIEnumerator(name: "_ZNSt4errc30connection_already_in_progressE", value: 114)
!569 = !DIEnumerator(name: "_ZNSt4errc18connection_abortedE", value: 103)
!570 = !DIEnumerator(name: "_ZNSt4errc11broken_pipeE", value: 32)
!571 = !DIEnumerator(name: "_ZNSt4errc11bad_messageE", value: 74)
!572 = !DIEnumerator(name: "_ZNSt4errc19bad_file_descriptorE", value: 9)
!573 = !DIEnumerator(name: "_ZNSt4errc11bad_addressE", value: 14)
!574 = !DIEnumerator(name: "_ZNSt4errc22argument_out_of_domainE", value: 33)
!575 = !DIEnumerator(name: "_ZNSt4errc22argument_list_too_longE", value: 7)
!576 = !DIEnumerator(name: "_ZNSt4errc17already_connectedE", value: 106)
!577 = !DIEnumerator(name: "_ZNSt4errc21address_not_availableE", value: 99)
!578 = !DIEnumerator(name: "_ZNSt4errc14address_in_useE", value: 98)
!579 = !DIEnumerator(name: "_ZNSt4errc28address_family_not_supportedE", value: 97)
!580 = !{ !587 }
!581 = !DICompositeType(tag: DW_TAG_structure_type, file: !3, scope: !11, name: "__cow_string", line: 1, size: 64, align: 64, elements: !580, runtimeLang: DW_LANG_C_plus_plus)
!582 = !{ !584, !586 }
!583 = !DICompositeType(tag: DW_TAG_union_type, file: !3, scope: !581, line: 1, size: 64, align: 64, elements: !582, runtimeLang: DW_LANG_C_plus_plus)
!584 = !DIDerivedType(tag: DW_TAG_member, file: !3, scope: !583, name: "_M_p", line: 1, size: 64, align: 64, baseType: !35)
!585 = !DICompositeType(tag: DW_TAG_array_type, size: 64, align: 8, baseType: !18, elements: !121)
!586 = !DIDerivedType(tag: DW_TAG_member, file: !3, scope: !583, name: "_M_bytes", line: 1, size: 64, align: 8, baseType: !585)
!587 = !DIDerivedType(tag: DW_TAG_member, file: !3, scope: !581, line: 1, size: 64, align: 64, baseType: !583)
!588 = !DIDerivedType(tag: DW_TAG_typedef, file: !3, scope: !11, name: "__sso_string", line: 1, size: 256, align: 64, baseType: !14)
!589 = !{ !591, !592 }
!590 = !DICompositeType(tag: DW_TAG_class_type, file: !3, scope: !11, name: "logic_error", line: 1, size: 128, align: 64, elements: !589, runtimeLang: DW_LANG_C_plus_plus)
!591 = !DIDerivedType(tag: DW_TAG_inheritance, file: !3, scope: !590, name: "exception", line: 1, size: 64, align: 64, baseType: !380)
!592 = !DIDerivedType(tag: DW_TAG_member, file: !3, scope: !590, name: "_M_msg", line: 1, size: 64, align: 64, offset: 64, baseType: !581)
!593 = !{ !595 }
!594 = !DICompositeType(tag: DW_TAG_class_type, file: !3, scope: !11, name: "domain_error", line: 1, size: 128, align: 64, elements: !593, runtimeLang: DW_LANG_C_plus_plus)
!595 = !DIDerivedType(tag: DW_TAG_inheritance, file: !3, scope: !594, name: "logic_error", line: 1, size: 128, align: 64, baseType: !590)
!596 = !{ !598 }
!597 = !DICompositeType(tag: DW_TAG_class_type, file: !3, scope: !11, name: "invalid_argument", line: 1, size: 128, align: 64, elements: !596, runtimeLang: DW_LANG_C_plus_plus)
!598 = !DIDerivedType(tag: DW_TAG_inheritance, file: !3, scope: !597, name: "logic_error", line: 1, size: 128, align: 64, baseType: !590)
!599 = !{ !601 }
!600 = !DICompositeType(tag: DW_TAG_class_type, file: !3, scope: !11, name: "length_error", line: 1, size: 128, align: 64, elements: !599, runtimeLang: DW_LANG_C_plus_plus)
!601 = !DIDerivedType(tag: DW_TAG_inheritance, file: !3, scope: !600, name: "logic_error", line: 1, size: 128, align: 64, baseType: !590)
!602 = !{ !604 }
!603 = !DICompositeType(tag: DW_TAG_class_type, file: !3, scope: !11, name: "out_of_range", line: 1, size: 128, align: 64, elements: !602, runtimeLang: DW_LANG_C_plus_plus)
!604 = !DIDerivedType(tag: DW_TAG_inheritance, file: !3, scope: !603, name: "logic_error", line: 1, size: 128, align: 64, baseType: !590)
!605 = !{ !607, !608 }
!606 = !DICompositeType(tag: DW_TAG_class_type, file: !3, scope: !11, name: "runtime_error", line: 1, size: 128, align: 64, elements: !605, runtimeLang: DW_LANG_C_plus_plus)
!607 = !DIDerivedType(tag: DW_TAG_inheritance, file: !3, scope: !606, name: "exception", line: 1, size: 64, align: 64, baseType: !380)
!608 = !DIDerivedType(tag: DW_TAG_member, file: !3, scope: !606, name: "_M_msg", line: 1, size: 64, align: 64, offset: 64, baseType: !581)
!609 = !{ !611 }
!610 = !DICompositeType(tag: DW_TAG_class_type, file: !3, scope: !11, name: "range_error", line: 1, size: 128, align: 64, elements: !609, runtimeLang: DW_LANG_C_plus_plus)
!611 = !DIDerivedType(tag: DW_TAG_inheritance, file: !3, scope: !610, name: "runtime_error", line: 1, size: 128, align: 64, baseType: !606)
!612 = !{ !614 }
!613 = !DICompositeType(tag: DW_TAG_class_type, file: !3, scope: !11, name: "overflow_error", line: 1, size: 128, align: 64, elements: !612, runtimeLang: DW_LANG_C_plus_plus)
!614 = !DIDerivedType(tag: DW_TAG_inheritance, file: !3, scope: !613, name: "runtime_error", line: 1, size: 128, align: 64, baseType: !606)
!615 = !{ !617 }
!616 = !DICompositeType(tag: DW_TAG_class_type, file: !3, scope: !11, name: "underflow_error", line: 1, size: 128, align: 64, elements: !615, runtimeLang: DW_LANG_C_plus_plus)
!617 = !DIDerivedType(tag: DW_TAG_inheritance, file: !3, scope: !616, name: "runtime_error", line: 1, size: 128, align: 64, baseType: !606)
!618 = !{ !620, !625 }
!619 = !DICompositeType(tag: DW_TAG_structure_type, file: !3, scope: !11, name: "error_code", line: 1, size: 128, align: 64, elements: !618, runtimeLang: DW_LANG_C_plus_plus)
!620 = !DIDerivedType(tag: DW_TAG_member, file: !3, scope: !619, name: "_M_value", line: 1, size: 32, align: 32, baseType: !95)
!621 = !{ !623 }
!622 = !DICompositeType(tag: DW_TAG_structure_type, file: !3, name: "_ZNSt3_V214error_categoryE", size: 64, align: 64, elements: !621)
!623 = !DIDerivedType(tag: DW_TAG_member, file: !3, scope: !622, name: "__vptr", size: 64, align: 64, baseType: !158)
!624 = !DIDerivedType(tag: DW_TAG_pointer_type, size: 64, align: 64, baseType: !622)
!625 = !DIDerivedType(tag: DW_TAG_member, file: !3, scope: !619, name: "_M_cat", line: 1, size: 64, align: 64, offset: 64, baseType: !624)
!626 = !{ !628, !629 }
!627 = !DICompositeType(tag: DW_TAG_structure_type, file: !3, scope: !11, name: "error_condition", line: 1, size: 128, align: 64, elements: !626, runtimeLang: DW_LANG_C_plus_plus)
!628 = !DIDerivedType(tag: DW_TAG_member, file: !3, scope: !627, name: "_M_value", line: 1, size: 32, align: 32, baseType: !95)
!629 = !DIDerivedType(tag: DW_TAG_member, file: !3, scope: !627, name: "_M_cat", line: 1, size: 64, align: 64, offset: 64, baseType: !624)
!630 = !{ !632, !633 }
!631 = !DICompositeType(tag: DW_TAG_class_type, file: !3, scope: !11, name: "system_error", line: 1, size: 256, align: 64, elements: !630, runtimeLang: DW_LANG_C_plus_plus)
!632 = !DIDerivedType(tag: DW_TAG_inheritance, file: !3, scope: !631, name: "runtime_error", line: 1, size: 128, align: 64, baseType: !606)
!633 = !DIDerivedType(tag: DW_TAG_member, file: !3, scope: !631, name: "_M_code", line: 1, size: 128, align: 64, offset: 128, baseType: !619)
!634 = !{ !636, !637, !638, !639, !640, !641, !642, !643, !644 }
!635 = !DICompositeType(tag: DW_TAG_enumeration_type, file: !3, scope: !11, name: "_Ios_Openmode", line: 1, size: 32, align: 32, elements: !634, runtimeLang: DW_LANG_C_plus_plus)
!636 = !DIEnumerator(name: "_S_app", value: 1)
!637 = !DIEnumerator(name: "_S_ate", value: 2)
!638 = !DIEnumerator(name: "_S_bin", value: 4)
!639 = !DIEnumerator(name: "_S_in", value: 8)
!640 = !DIEnumerator(name: "_S_out", value: 16)
!641 = !DIEnumerator(name: "_S_trunc", value: 32)
!642 = !DIEnumerator(name: "_S_ios_openmode_end", value: 65536)
!643 = !DIEnumerator(name: "_S_ios_openmode_max", value: 2147483647)
!644 = !DIEnumerator(name: "_S_ios_openmode_min", value: -2147483648)
!645 = !{ !647, !648, !649, !650 }
!646 = !DICompositeType(tag: DW_TAG_enumeration_type, file: !3, scope: !11, name: "_Ios_Seekdir", line: 1, size: 32, align: 32, elements: !645, runtimeLang: DW_LANG_C_plus_plus)
!647 = !DIEnumerator(name: "_S_beg", value: 0)
!648 = !DIEnumerator(name: "_S_cur", value: 1)
!649 = !DIEnumerator(name: "_S_end", value: 2)
!650 = !DIEnumerator(name: "_S_ios_seekdir_end", value: 65536)
!651 = !{ !653 }
!652 = !DICompositeType(tag: DW_TAG_enumeration_type, file: !3, scope: !11, name: "io_errc", line: 1, size: 32, align: 32, elements: !651, runtimeLang: DW_LANG_C_plus_plus)
!653 = !DIEnumerator(name: "_ZNSt7io_errc6streamE", value: 1)
!654 = !{  }
!655 = !DICompositeType(tag: DW_TAG_structure_type, file: !3, scope: !11, name: "ctype_base", line: 1, size: 8, align: 8, elements: !654, runtimeLang: DW_LANG_C_plus_plus)
!656 = !DIDerivedType(tag: DW_TAG_typedef, file: !3, scope: !655, name: "__to_type", line: 1, size: 64, align: 64, baseType: !96)
!657 = !DIDerivedType(tag: DW_TAG_typedef, file: !3, scope: !655, name: "mask", line: 1, size: 16, align: 16, baseType: !113)
!658 = !{  }
!659 = !DICompositeType(tag: DW_TAG_class_type, file: !3, scope: !11, name: "__num_base", line: 1, size: 8, align: 8, elements: !658, runtimeLang: DW_LANG_C_plus_plus)
!660 = !{ !662, !663, !664, !665, !666 }
!661 = !DICompositeType(tag: DW_TAG_enumeration_type, file: !3, scope: !11, name: "float_round_style", line: 1, size: 32, align: 32, elements: !660, runtimeLang: DW_LANG_C_plus_plus)
!662 = !DIEnumerator(name: "round_indeterminate", value: -1)
!663 = !DIEnumerator(name: "round_toward_zero", value: 0)
!664 = !DIEnumerator(name: "round_to_nearest", value: 1)
!665 = !DIEnumerator(name: "round_toward_infinity", value: 2)
!666 = !DIEnumerator(name: "round_toward_neg_infinity", value: 3)
!667 = !{ !669, !670, !671 }
!668 = !DICompositeType(tag: DW_TAG_enumeration_type, file: !3, scope: !11, name: "float_denorm_style", line: 1, size: 32, align: 32, elements: !667, runtimeLang: DW_LANG_C_plus_plus)
!669 = !DIEnumerator(name: "denorm_indeterminate", value: -1)
!670 = !DIEnumerator(name: "denorm_absent", value: 0)
!671 = !DIEnumerator(name: "denorm_present", value: 1)
!672 = !{  }
!673 = !DICompositeType(tag: DW_TAG_structure_type, file: !3, scope: !11, name: "__numeric_limits_base", line: 1, size: 8, align: 8, elements: !672, runtimeLang: DW_LANG_C_plus_plus)
!674 = !{  }
!675 = !DICompositeType(tag: DW_TAG_structure_type, file: !3, scope: !11, name: "conditional", line: 1, size: 8, align: 8, elements: !674, runtimeLang: DW_LANG_C_plus_plus)
!676 = !DIDerivedType(tag: DW_TAG_typedef, file: !3, scope: !675, name: "type", line: 1, size: 8, align: 8, baseType: !18)
!677 = !DIDerivedType(tag: DW_TAG_typedef, file: !3, scope: !11, name: "__make_not_void", line: 1, size: 8, align: 8, baseType: !18)
!678 = !{  }
!679 = !DICompositeType(tag: DW_TAG_structure_type, file: !3, scope: !11, name: "pointer_traits", line: 1, size: 8, align: 8, elements: !678, runtimeLang: DW_LANG_C_plus_plus)
!680 = !DIDerivedType(tag: DW_TAG_typedef, file: !3, scope: !679, name: "pointer", line: 1, size: 64, align: 64, baseType: !35)
!681 = !DIDerivedType(tag: DW_TAG_typedef, file: !3, scope: !679, name: "element_type", line: 1, size: 8, align: 8, baseType: !18)
!682 = !{  }
!683 = !DICompositeType(tag: DW_TAG_structure_type, file: !3, scope: !11, name: "remove_reference", line: 1, size: 8, align: 8, elements: !682, runtimeLang: DW_LANG_C_plus_plus)
!684 = !DIDerivedType(tag: DW_TAG_typedef, file: !3, scope: !683, name: "type", line: 1, size: 8, align: 8, baseType: !16)
!685 = !{  }
!686 = !DICompositeType(tag: DW_TAG_structure_type, file: !3, scope: !11, name: "conditional", line: 1, size: 8, align: 8, elements: !685, runtimeLang: DW_LANG_C_plus_plus)
!687 = !DIDerivedType(tag: DW_TAG_typedef, file: !3, scope: !686, name: "type", line: 1, size: 8, align: 8, baseType: !18)
!688 = !{  }
!689 = !DICompositeType(tag: DW_TAG_structure_type, file: !3, scope: !11, name: "pointer_traits", line: 1, size: 8, align: 8, elements: !688, runtimeLang: DW_LANG_C_plus_plus)
!690 = !DIDerivedType(tag: DW_TAG_typedef, file: !3, scope: !689, name: "pointer", line: 1, size: 64, align: 64, baseType: !35)
!691 = !DIDerivedType(tag: DW_TAG_typedef, file: !3, scope: !689, name: "element_type", line: 1, size: 8, align: 8, baseType: !18)
!692 = !DINamespace(scope: !10, name: "__cxxabiv1")
!693 = !{  }
!694 = !DICompositeType(tag: DW_TAG_structure_type, file: !3, scope: !692, name: "__cxa_refcounted_exception", line: 1, align: 8, elements: !693, runtimeLang: DW_LANG_C_plus_plus)
!695 = !{  }
!696 = !DICompositeType(tag: DW_TAG_class_type, file: !3, scope: !692, name: "__class_type_info", line: 1, align: 8, elements: !695, runtimeLang: DW_LANG_C_plus_plus)
!697 = !{  }
!698 = !DICompositeType(tag: DW_TAG_class_type, file: !3, scope: !692, name: "__forced_unwind", line: 1, size: 64, align: 64, elements: !697, runtimeLang: DW_LANG_C_plus_plus)
!699 = !DINamespace(scope: !10, name: "__gnu_cxx")
!700 = !{  }
!701 = !DICompositeType(tag: DW_TAG_class_type, file: !3, scope: !699, name: "new_allocator", line: 1, size: 8, align: 8, elements: !700, runtimeLang: DW_LANG_C_plus_plus)
!702 = !DIDerivedType(tag: DW_TAG_typedef, file: !3, scope: !701, name: "size_type", line: 1, size: 64, align: 64, baseType: !33)
!703 = !DIDerivedType(tag: DW_TAG_typedef, file: !3, scope: !701, name: "pointer", line: 1, size: 64, align: 64, baseType: !35)
!704 = !DIDerivedType(tag: DW_TAG_typedef, file: !3, scope: !701, name: "const_pointer", line: 1, size: 64, align: 64, baseType: !35)
!705 = !DIDerivedType(tag: DW_TAG_typedef, file: !3, scope: !701, name: "reference", line: 1, size: 64, align: 64, baseType: !35)
!706 = !DIDerivedType(tag: DW_TAG_typedef, file: !3, scope: !701, name: "const_reference", line: 1, size: 64, align: 64, baseType: !35)
!707 = !DIDerivedType(tag: DW_TAG_typedef, file: !3, scope: !701, name: "value_type", line: 1, size: 8, align: 8, baseType: !18)
!708 = !DINamespace(scope: !10, name: "species")
!709 = !{ !711, !713, !714, !715, !716, !717, !718, !719, !720, !721, !722, !723, !724, !731, !732, !733, !734, !735, !736, !737, !738, !739 }
!710 = !DICompositeType(tag: DW_TAG_structure_type, file: !3, scope: !708, name: "Species", line: 1, size: 1664, align: 64, elements: !709, runtimeLang: DW_LANG_C_plus_plus)
!711 = !DIDerivedType(tag: DW_TAG_member, file: !3, scope: !710, name: "name", line: 1, size: 256, align: 64, baseType: !14)
!712 = !DIBasicType(tag: DW_TAG_base_type, name: "double", size: 64, align: 64, encoding: DW_ATE_float)
!713 = !DIDerivedType(tag: DW_TAG_member, file: !3, scope: !710, name: "charge", line: 1, size: 64, align: 64, offset: 256, baseType: !712)
!714 = !DIDerivedType(tag: DW_TAG_member, file: !3, scope: !710, name: "mass", line: 1, size: 64, align: 64, offset: 320, baseType: !712)
!715 = !DIDerivedType(tag: DW_TAG_member, file: !3, scope: !710, name: "sparseMinValue", line: 1, size: 64, align: 64, offset: 384, baseType: !712)
!716 = !DIDerivedType(tag: DW_TAG_member, file: !3, scope: !710, name: "velocityMesh", line: 1, size: 64, align: 64, offset: 448, baseType: !33)
!717 = !DIDerivedType(tag: DW_TAG_member, file: !3, scope: !710, name: "sparseBlockAddWidthV", line: 1, size: 32, align: 32, offset: 512, baseType: !95)
!718 = !DIDerivedType(tag: DW_TAG_member, file: !3, scope: !710, name: "sparse_conserve_mass", line: 1, size: 8, align: 8, offset: 544, baseType: !18)
!719 = !DIDerivedType(tag: DW_TAG_member, file: !3, scope: !710, name: "sparseDynamicAlgorithm", line: 1, size: 32, align: 32, offset: 576, baseType: !95)
!720 = !DIDerivedType(tag: DW_TAG_member, file: !3, scope: !710, name: "sparseDynamicBulkValue1", line: 1, size: 64, align: 64, offset: 640, baseType: !712)
!721 = !DIDerivedType(tag: DW_TAG_member, file: !3, scope: !710, name: "sparseDynamicBulkValue2", line: 1, size: 64, align: 64, offset: 704, baseType: !712)
!722 = !DIDerivedType(tag: DW_TAG_member, file: !3, scope: !710, name: "sparseDynamicMinValue1", line: 1, size: 64, align: 64, offset: 768, baseType: !712)
!723 = !DIDerivedType(tag: DW_TAG_member, file: !3, scope: !710, name: "sparseDynamicMinValue2", line: 1, size: 64, align: 64, offset: 832, baseType: !712)
!724 = !DIDerivedType(tag: DW_TAG_member, file: !3, scope: !710, name: "thermalRadius", line: 1, size: 64, align: 64, offset: 896, baseType: !712)
!725 = !{ !730 }
!726 = !DICompositeType(tag: DW_TAG_structure_type, file: !3, name: "_ZSt5arrayIdLm3EE", size: 192, align: 64, elements: !725)
!727 = !DISubrange(count: 3)
!728 = !{ !727 }
!729 = !DICompositeType(tag: DW_TAG_array_type, size: 192, align: 64, baseType: !712, elements: !728)
!730 = !DIDerivedType(tag: DW_TAG_member, file: !3, scope: !726, name: "_M_elems", size: 192, align: 64, baseType: !729)
!731 = !DIDerivedType(tag: DW_TAG_member, file: !3, scope: !710, name: "thermalV", line: 1, size: 192, align: 64, offset: 960, baseType: !726)
!732 = !DIDerivedType(tag: DW_TAG_member, file: !3, scope: !710, name: "EnergyDensityLimit1", line: 1, size: 64, align: 64, offset: 1152, baseType: !712)
!733 = !DIDerivedType(tag: DW_TAG_member, file: !3, scope: !710, name: "EnergyDensityLimit2", line: 1, size: 64, align: 64, offset: 1216, baseType: !712)
!734 = !DIDerivedType(tag: DW_TAG_member, file: !3, scope: !710, name: "SolarWindEnergy", line: 1, size: 64, align: 64, offset: 1280, baseType: !712)
!735 = !DIDerivedType(tag: DW_TAG_member, file: !3, scope: !710, name: "SolarWindSpeed", line: 1, size: 64, align: 64, offset: 1344, baseType: !712)
!736 = !DIDerivedType(tag: DW_TAG_member, file: !3, scope: !710, name: "precipitationNChannels", line: 1, size: 32, align: 32, offset: 1408, baseType: !95)
!737 = !DIDerivedType(tag: DW_TAG_member, file: !3, scope: !710, name: "precipitationEmin", line: 1, size: 64, align: 64, offset: 1472, baseType: !712)
!738 = !DIDerivedType(tag: DW_TAG_member, file: !3, scope: !710, name: "precipitationEmax", line: 1, size: 64, align: 64, offset: 1536, baseType: !712)
!739 = !DIDerivedType(tag: DW_TAG_member, file: !3, scope: !710, name: "precipitationLossConeAngle", line: 1, size: 64, align: 64, offset: 1600, baseType: !712)
!740 = !{  }
!741 = !DICompositeType(tag: DW_TAG_structure_type, file: !3, scope: !10, line: 1, size: 128, align: 64, elements: !740, runtimeLang: DW_LANG_C_plus_plus)
!742 = !{  }
!743 = !DICompositeType(tag: DW_TAG_structure_type, file: !3, scope: !10, name: "__class_type_info", line: 1, size: 128, align: 64, elements: !742, runtimeLang: DW_LANG_C_plus_plus)
!744 = !{  }
!745 = !DICompositeType(tag: DW_TAG_structure_type, file: !3, scope: !10, name: "__EDG_type_info", line: 1, size: 128, align: 64, elements: !744, runtimeLang: DW_LANG_C_plus_plus)
!746 = !{  }
!747 = !DICompositeType(tag: DW_TAG_structure_type, file: !3, scope: !10, name: "__pbase_type_info", line: 1, size: 256, align: 64, elements: !746, runtimeLang: DW_LANG_C_plus_plus)
!748 = !{  }
!749 = !DICompositeType(tag: DW_TAG_structure_type, file: !3, scope: !10, name: "__pointer_to_member_type_info", line: 1, size: 320, align: 64, elements: !748, runtimeLang: DW_LANG_C_plus_plus)
!750 = !{  }
!751 = !DICompositeType(tag: DW_TAG_structure_type, file: !3, scope: !10, name: "__pointer_type_info", line: 1, size: 256, align: 64, elements: !750, runtimeLang: DW_LANG_C_plus_plus)
!752 = !{  }
!753 = !DICompositeType(tag: DW_TAG_structure_type, file: !3, scope: !10, name: "__vmi_class_type_info", line: 1, size: 448, align: 64, elements: !752, runtimeLang: DW_LANG_C_plus_plus)
!754 = !{  }
!755 = !DICompositeType(tag: DW_TAG_structure_type, file: !3, scope: !10, name: "__si_class_type_info", line: 1, size: 192, align: 64, elements: !754, runtimeLang: DW_LANG_C_plus_plus)
!756 = !{  }
!757 = !DICompositeType(tag: DW_TAG_structure_type, file: !3, scope: !10, name: "__function_type_info", line: 1, size: 128, align: 64, elements: !756, runtimeLang: DW_LANG_C_plus_plus)
!758 = !{  }
!759 = !DICompositeType(tag: DW_TAG_structure_type, file: !3, scope: !10, name: "__array_type_info", line: 1, size: 128, align: 64, elements: !758, runtimeLang: DW_LANG_C_plus_plus)
!760 = !{  }
!761 = !DICompositeType(tag: DW_TAG_structure_type, file: !3, scope: !10, name: "__enum_type_info", line: 1, size: 128, align: 64, elements: !760, runtimeLang: DW_LANG_C_plus_plus)
!762 = !{  }
!763 = !DICompositeType(tag: DW_TAG_structure_type, file: !3, scope: !10, name: "__fundamental_type_info", line: 1, size: 128, align: 64, elements: !762, runtimeLang: DW_LANG_C_plus_plus)
!764 = !DIBasicType(tag: DW_TAG_base_type, name: "__float128", size: 128, align: 128, encoding: DW_ATE_float)
!765 = !DIDerivedType(tag: DW_TAG_typedef, file: !3, scope: !10, name: "__float128", line: 1, size: 128, align: 128, baseType: !764)
!766 = !{ !768, !769, !770, !771 }
!767 = !DICompositeType(tag: DW_TAG_structure_type, file: !3, scope: !10, name: "__va_list_tag", line: 1, size: 192, align: 64, elements: !766, runtimeLang: DW_LANG_C_plus_plus)
!768 = !DIDerivedType(tag: DW_TAG_member, file: !3, scope: !767, name: "gp_offset", line: 1, size: 32, align: 32, baseType: !131)
!769 = !DIDerivedType(tag: DW_TAG_member, file: !3, scope: !767, name: "fp_offset", line: 1, size: 32, align: 32, offset: 32, baseType: !131)
!770 = !DIDerivedType(tag: DW_TAG_member, file: !3, scope: !767, name: "overflow_arg_area", line: 1, size: 64, align: 64, offset: 64, baseType: !35)
!771 = !DIDerivedType(tag: DW_TAG_member, file: !3, scope: !767, name: "reg_save_area", line: 1, size: 64, align: 64, offset: 128, baseType: !35)
!772 = !DICompositeType(tag: DW_TAG_array_type, size: 192, align: 64, baseType: !767, elements: !19)
!773 = !DIDerivedType(tag: DW_TAG_typedef, file: !3, scope: !10, name: "__pgi_va_list", line: 1, size: 192, align: 64, baseType: !772)
!774 = !{ !776, !777, !778 }
!775 = !DICompositeType(tag: DW_TAG_enumeration_type, file: !3, scope: !10, name: "idtype_t", line: 1, size: 32, align: 32, elements: !774, runtimeLang: DW_LANG_C_plus_plus)
!776 = !DIEnumerator(name: "P_ALL", value: 0)
!777 = !DIEnumerator(name: "P_PID", value: 1)
!778 = !DIEnumerator(name: "P_PGID", value: 2)
!779 = !DIDerivedType(tag: DW_TAG_typedef, file: !3, scope: !10, name: "_Float128", line: 1, size: 128, align: 128, baseType: !764)
!780 = !DIBasicType(tag: DW_TAG_base_type, name: "float", size: 32, align: 32, encoding: DW_ATE_float)
!781 = !DIDerivedType(tag: DW_TAG_typedef, file: !3, scope: !10, name: "_Float32", line: 1, size: 32, align: 32, baseType: !780)
!782 = !DIDerivedType(tag: DW_TAG_typedef, file: !3, scope: !10, name: "_Float64", line: 1, size: 64, align: 64, baseType: !712)
!783 = !DIDerivedType(tag: DW_TAG_typedef, file: !3, scope: !10, name: "_Float32x", line: 1, size: 64, align: 64, baseType: !712)
!784 = !DIBasicType(tag: DW_TAG_base_type, name: "80-bit extended precision", size: 128, align: 128, encoding: DW_ATE_signed)
!785 = !DIDerivedType(tag: DW_TAG_typedef, file: !3, scope: !10, name: "_Float64x", line: 1, size: 128, align: 128, baseType: !784)
!786 = !{ !788, !789 }
!787 = !DICompositeType(tag: DW_TAG_structure_type, file: !3, scope: !10, name: "div_t", line: 1, size: 64, align: 32, elements: !786, runtimeLang: DW_LANG_C_plus_plus)
!788 = !DIDerivedType(tag: DW_TAG_member, file: !3, scope: !787, name: "quot", line: 1, size: 32, align: 32, baseType: !95)
!789 = !DIDerivedType(tag: DW_TAG_member, file: !3, scope: !787, name: "rem", line: 1, size: 32, align: 32, offset: 32, baseType: !95)
!790 = !DIDerivedType(tag: DW_TAG_typedef, file: !3, scope: !10, name: "div_t", line: 1, size: 64, align: 32, baseType: !787)
!791 = !{ !793, !794 }
!792 = !DICompositeType(tag: DW_TAG_structure_type, file: !3, scope: !10, name: "ldiv_t", line: 1, size: 128, align: 64, elements: !791, runtimeLang: DW_LANG_C_plus_plus)
!793 = !DIDerivedType(tag: DW_TAG_member, file: !3, scope: !792, name: "quot", line: 1, size: 64, align: 64, baseType: !87)
!794 = !DIDerivedType(tag: DW_TAG_member, file: !3, scope: !792, name: "rem", line: 1, size: 64, align: 64, offset: 64, baseType: !87)
!795 = !DIDerivedType(tag: DW_TAG_typedef, file: !3, scope: !10, name: "ldiv_t", line: 1, size: 128, align: 64, baseType: !792)
!796 = !{ !799, !800 }
!797 = !DICompositeType(tag: DW_TAG_structure_type, file: !3, scope: !10, name: "lldiv_t", line: 1, size: 128, align: 64, elements: !796, runtimeLang: DW_LANG_C_plus_plus)
!798 = !DIBasicType(tag: DW_TAG_base_type, name: "long long", size: 64, align: 64, encoding: DW_ATE_signed)
!799 = !DIDerivedType(tag: DW_TAG_member, file: !3, scope: !797, name: "quot", line: 1, size: 64, align: 64, baseType: !798)
!800 = !DIDerivedType(tag: DW_TAG_member, file: !3, scope: !797, name: "rem", line: 1, size: 64, align: 64, offset: 64, baseType: !798)
!801 = !DIDerivedType(tag: DW_TAG_typedef, file: !3, scope: !10, name: "lldiv_t", line: 1, size: 128, align: 64, baseType: !797)
!802 = !DIDerivedType(tag: DW_TAG_typedef, file: !3, scope: !10, name: "__locale_t", line: 1, size: 64, align: 64, baseType: !291)
!803 = !DIDerivedType(tag: DW_TAG_typedef, file: !3, scope: !10, name: "locale_t", line: 1, size: 64, align: 64, baseType: !291)
!804 = !DIBasicType(tag: DW_TAG_base_type, name: "unsigned char", size: 8, align: 8, encoding: DW_ATE_unsigned_char)
!805 = !DIDerivedType(tag: DW_TAG_typedef, file: !3, scope: !10, name: "__u_char", line: 1, size: 8, align: 8, baseType: !804)
!806 = !DIDerivedType(tag: DW_TAG_typedef, file: !3, scope: !10, name: "__u_short", line: 1, size: 16, align: 16, baseType: !113)
!807 = !DIDerivedType(tag: DW_TAG_typedef, file: !3, scope: !10, name: "__u_int", line: 1, size: 32, align: 32, baseType: !131)
!808 = !DIDerivedType(tag: DW_TAG_typedef, file: !3, scope: !10, name: "__u_long", line: 1, size: 64, align: 64, baseType: !33)
!809 = !DIDerivedType(tag: DW_TAG_typedef, file: !3, scope: !10, name: "__int8_t", line: 1, size: 8, align: 8, baseType: !18)
!810 = !DIDerivedType(tag: DW_TAG_typedef, file: !3, scope: !10, name: "__uint8_t", line: 1, size: 8, align: 8, baseType: !804)
!811 = !DIBasicType(tag: DW_TAG_base_type, name: "short", size: 16, align: 16, encoding: DW_ATE_signed)
!812 = !DIDerivedType(tag: DW_TAG_typedef, file: !3, scope: !10, name: "__int16_t", line: 1, size: 16, align: 16, baseType: !811)
!813 = !DIDerivedType(tag: DW_TAG_typedef, file: !3, scope: !10, name: "__uint16_t", line: 1, size: 16, align: 16, baseType: !113)
!814 = !DIDerivedType(tag: DW_TAG_typedef, file: !3, scope: !10, name: "__int32_t", line: 1, size: 32, align: 32, baseType: !95)
!815 = !DIDerivedType(tag: DW_TAG_typedef, file: !3, scope: !10, name: "__uint32_t", line: 1, size: 32, align: 32, baseType: !131)
!816 = !DIDerivedType(tag: DW_TAG_typedef, file: !3, scope: !10, name: "__int64_t", line: 1, size: 64, align: 64, baseType: !87)
!817 = !DIDerivedType(tag: DW_TAG_typedef, file: !3, scope: !10, name: "__uint64_t", line: 1, size: 64, align: 64, baseType: !33)
!818 = !DIDerivedType(tag: DW_TAG_typedef, file: !3, scope: !10, name: "__int_least8_t", line: 1, size: 8, align: 8, baseType: !18)
!819 = !DIDerivedType(tag: DW_TAG_typedef, file: !3, scope: !10, name: "__uint_least8_t", line: 1, size: 8, align: 8, baseType: !804)
!820 = !DIDerivedType(tag: DW_TAG_typedef, file: !3, scope: !10, name: "__int_least16_t", line: 1, size: 16, align: 16, baseType: !811)
!821 = !DIDerivedType(tag: DW_TAG_typedef, file: !3, scope: !10, name: "__uint_least16_t", line: 1, size: 16, align: 16, baseType: !113)
!822 = !DIDerivedType(tag: DW_TAG_typedef, file: !3, scope: !10, name: "__int_least32_t", line: 1, size: 32, align: 32, baseType: !95)
!823 = !DIDerivedType(tag: DW_TAG_typedef, file: !3, scope: !10, name: "__uint_least32_t", line: 1, size: 32, align: 32, baseType: !131)
!824 = !DIDerivedType(tag: DW_TAG_typedef, file: !3, scope: !10, name: "__int_least64_t", line: 1, size: 64, align: 64, baseType: !87)
!825 = !DIDerivedType(tag: DW_TAG_typedef, file: !3, scope: !10, name: "__uint_least64_t", line: 1, size: 64, align: 64, baseType: !33)
!826 = !DIDerivedType(tag: DW_TAG_typedef, file: !3, scope: !10, name: "__quad_t", line: 1, size: 64, align: 64, baseType: !87)
!827 = !DIDerivedType(tag: DW_TAG_typedef, file: !3, scope: !10, name: "__u_quad_t", line: 1, size: 64, align: 64, baseType: !33)
!828 = !DIDerivedType(tag: DW_TAG_typedef, file: !3, scope: !10, name: "__intmax_t", line: 1, size: 64, align: 64, baseType: !87)
!829 = !DIDerivedType(tag: DW_TAG_typedef, file: !3, scope: !10, name: "__uintmax_t", line: 1, size: 64, align: 64, baseType: !33)
!830 = !DIDerivedType(tag: DW_TAG_typedef, file: !3, scope: !10, name: "__dev_t", line: 1, size: 64, align: 64, baseType: !33)
!831 = !DIDerivedType(tag: DW_TAG_typedef, file: !3, scope: !10, name: "__uid_t", line: 1, size: 32, align: 32, baseType: !131)
!832 = !DIDerivedType(tag: DW_TAG_typedef, file: !3, scope: !10, name: "__gid_t", line: 1, size: 32, align: 32, baseType: !131)
!833 = !DIDerivedType(tag: DW_TAG_typedef, file: !3, scope: !10, name: "__ino_t", line: 1, size: 64, align: 64, baseType: !33)
!834 = !DIDerivedType(tag: DW_TAG_typedef, file: !3, scope: !10, name: "__ino64_t", line: 1, size: 64, align: 64, baseType: !33)
!835 = !DIDerivedType(tag: DW_TAG_typedef, file: !3, scope: !10, name: "__mode_t", line: 1, size: 32, align: 32, baseType: !131)
!836 = !DIDerivedType(tag: DW_TAG_typedef, file: !3, scope: !10, name: "__nlink_t", line: 1, size: 64, align: 64, baseType: !33)
!837 = !DIDerivedType(tag: DW_TAG_typedef, file: !3, scope: !10, name: "__off_t", line: 1, size: 64, align: 64, baseType: !87)
!838 = !DIDerivedType(tag: DW_TAG_typedef, file: !3, scope: !10, name: "__pid_t", line: 1, size: 32, align: 32, baseType: !95)
!839 = !{ !844 }
!840 = !DICompositeType(tag: DW_TAG_structure_type, file: !3, scope: !10, name: "__fsid_t", line: 1, size: 64, align: 32, elements: !839, runtimeLang: DW_LANG_C_plus_plus)
!841 = !DISubrange(count: 2)
!842 = !{ !841 }
!843 = !DICompositeType(tag: DW_TAG_array_type, size: 64, align: 32, baseType: !95, elements: !842)
!844 = !DIDerivedType(tag: DW_TAG_member, file: !3, scope: !840, name: "__val", line: 1, size: 64, align: 32, baseType: !843)
!845 = !DIDerivedType(tag: DW_TAG_typedef, file: !3, scope: !10, name: "__fsid_t", line: 1, size: 64, align: 32, baseType: !840)
!846 = !DIDerivedType(tag: DW_TAG_typedef, file: !3, scope: !10, name: "__clock_t", line: 1, size: 64, align: 64, baseType: !87)
!847 = !DIDerivedType(tag: DW_TAG_typedef, file: !3, scope: !10, name: "__rlim_t", line: 1, size: 64, align: 64, baseType: !33)
!848 = !DIDerivedType(tag: DW_TAG_typedef, file: !3, scope: !10, name: "__rlim64_t", line: 1, size: 64, align: 64, baseType: !33)
!849 = !DIDerivedType(tag: DW_TAG_typedef, file: !3, scope: !10, name: "__id_t", line: 1, size: 32, align: 32, baseType: !131)
!850 = !DIDerivedType(tag: DW_TAG_typedef, file: !3, scope: !10, name: "__time_t", line: 1, size: 64, align: 64, baseType: !87)
!851 = !DIDerivedType(tag: DW_TAG_typedef, file: !3, scope: !10, name: "__useconds_t", line: 1, size: 32, align: 32, baseType: !131)
!852 = !DIDerivedType(tag: DW_TAG_typedef, file: !3, scope: !10, name: "__suseconds_t", line: 1, size: 64, align: 64, baseType: !87)
!853 = !DIDerivedType(tag: DW_TAG_typedef, file: !3, scope: !10, name: "__daddr_t", line: 1, size: 32, align: 32, baseType: !95)
!854 = !DIDerivedType(tag: DW_TAG_typedef, file: !3, scope: !10, name: "__key_t", line: 1, size: 32, align: 32, baseType: !95)
!855 = !DIDerivedType(tag: DW_TAG_typedef, file: !3, scope: !10, name: "__clockid_t", line: 1, size: 32, align: 32, baseType: !95)
!856 = !DIDerivedType(tag: DW_TAG_typedef, file: !3, scope: !10, name: "__timer_t", line: 1, size: 64, align: 64, baseType: !73)
!857 = !DIDerivedType(tag: DW_TAG_typedef, file: !3, scope: !10, name: "__blksize_t", line: 1, size: 64, align: 64, baseType: !87)
!858 = !DIDerivedType(tag: DW_TAG_typedef, file: !3, scope: !10, name: "__blkcnt_t", line: 1, size: 64, align: 64, baseType: !87)
!859 = !DIDerivedType(tag: DW_TAG_typedef, file: !3, scope: !10, name: "__blkcnt64_t", line: 1, size: 64, align: 64, baseType: !87)
!860 = !DIDerivedType(tag: DW_TAG_typedef, file: !3, scope: !10, name: "__fsblkcnt_t", line: 1, size: 64, align: 64, baseType: !33)
!861 = !DIDerivedType(tag: DW_TAG_typedef, file: !3, scope: !10, name: "__fsblkcnt64_t", line: 1, size: 64, align: 64, baseType: !33)
!862 = !DIDerivedType(tag: DW_TAG_typedef, file: !3, scope: !10, name: "__fsfilcnt_t", line: 1, size: 64, align: 64, baseType: !33)
!863 = !DIDerivedType(tag: DW_TAG_typedef, file: !3, scope: !10, name: "__fsfilcnt64_t", line: 1, size: 64, align: 64, baseType: !33)
!864 = !DIDerivedType(tag: DW_TAG_typedef, file: !3, scope: !10, name: "__syscall_slong_t", line: 1, size: 64, align: 64, baseType: !87)
!865 = !DIDerivedType(tag: DW_TAG_typedef, file: !3, scope: !10, name: "__syscall_ulong_t", line: 1, size: 64, align: 64, baseType: !33)
!866 = !DIDerivedType(tag: DW_TAG_typedef, file: !3, scope: !10, name: "__loff_t", line: 1, size: 64, align: 64, baseType: !87)
!867 = !DIDerivedType(tag: DW_TAG_typedef, file: !3, scope: !10, name: "__caddr_t", line: 1, size: 64, align: 64, baseType: !35)
!868 = !DIDerivedType(tag: DW_TAG_typedef, file: !3, scope: !10, name: "__socklen_t", line: 1, size: 32, align: 32, baseType: !131)
!869 = !DIDerivedType(tag: DW_TAG_typedef, file: !3, scope: !10, name: "__sig_atomic_t", line: 1, size: 32, align: 32, baseType: !95)
!870 = !DIDerivedType(tag: DW_TAG_typedef, file: !3, scope: !10, name: "pid_t", line: 1, size: 32, align: 32, baseType: !95)
!871 = !DIDerivedType(tag: DW_TAG_typedef, file: !3, scope: !10, name: "clock_t", line: 1, size: 64, align: 64, baseType: !87)
!872 = !DIDerivedType(tag: DW_TAG_typedef, file: !3, scope: !10, name: "clockid_t", line: 1, size: 32, align: 32, baseType: !95)
!873 = !DIDerivedType(tag: DW_TAG_typedef, file: !3, scope: !10, name: "time_t", line: 1, size: 64, align: 64, baseType: !87)
!874 = !DIDerivedType(tag: DW_TAG_typedef, file: !3, scope: !10, name: "timer_t", line: 1, size: 64, align: 64, baseType: !73)
!875 = !DIDerivedType(tag: DW_TAG_typedef, file: !3, scope: !10, name: "ulong", line: 1, size: 64, align: 64, baseType: !33)
!876 = !DIDerivedType(tag: DW_TAG_typedef, file: !3, scope: !10, name: "uint", line: 1, size: 32, align: 32, baseType: !131)
!877 = !DIDerivedType(tag: DW_TAG_typedef, file: !3, scope: !10, name: "int32_t", line: 1, size: 32, align: 32, baseType: !95)
!878 = !{ !880 }
!879 = !DICompositeType(tag: DW_TAG_structure_type, file: !3, scope: !10, name: "__sigset_t", line: 1, size: 1024, align: 64, elements: !878, runtimeLang: DW_LANG_C_plus_plus)
!880 = !DIDerivedType(tag: DW_TAG_member, file: !3, scope: !879, name: "__val", line: 1, size: 1024, align: 64, baseType: !362)
!881 = !DIDerivedType(tag: DW_TAG_typedef, file: !3, scope: !10, name: "__sigset_t", line: 1, size: 1024, align: 64, baseType: !879)
!882 = !{ !884, !885 }
!883 = !DICompositeType(tag: DW_TAG_structure_type, file: !3, scope: !10, name: "timeval", line: 1, size: 128, align: 64, elements: !882, runtimeLang: DW_LANG_C_plus_plus)
!884 = !DIDerivedType(tag: DW_TAG_member, file: !3, scope: !883, name: "tv_sec", line: 1, size: 64, align: 64, baseType: !87)
!885 = !DIDerivedType(tag: DW_TAG_member, file: !3, scope: !883, name: "tv_usec", line: 1, size: 64, align: 64, offset: 64, baseType: !87)
!886 = !{ !888, !889 }
!887 = !DICompositeType(tag: DW_TAG_structure_type, file: !3, scope: !10, name: "timespec", line: 1, size: 128, align: 64, elements: !886, runtimeLang: DW_LANG_C_plus_plus)
!888 = !DIDerivedType(tag: DW_TAG_member, file: !3, scope: !887, name: "tv_sec", line: 1, size: 64, align: 64, baseType: !87)
!889 = !DIDerivedType(tag: DW_TAG_member, file: !3, scope: !887, name: "tv_nsec", line: 1, size: 64, align: 64, offset: 64, baseType: !87)
!890 = !DIDerivedType(tag: DW_TAG_typedef, file: !3, scope: !10, name: "__fd_mask", line: 1, size: 64, align: 64, baseType: !87)
!891 = !{ !894 }
!892 = !DICompositeType(tag: DW_TAG_structure_type, file: !3, scope: !10, name: "fd_set", line: 1, size: 1024, align: 64, elements: !891, runtimeLang: DW_LANG_C_plus_plus)
!893 = !DICompositeType(tag: DW_TAG_array_type, size: 1024, align: 64, baseType: !87, elements: !62)
!894 = !DIDerivedType(tag: DW_TAG_member, file: !3, scope: !892, name: "fds_bits", line: 1, size: 1024, align: 64, baseType: !893)
!895 = !DIDerivedType(tag: DW_TAG_typedef, file: !3, scope: !10, name: "fd_set", line: 1, size: 1024, align: 64, baseType: !892)
!896 = !{ !899, !900 }
!897 = !DICompositeType(tag: DW_TAG_structure_type, file: !3, scope: !10, name: "__pthread_internal_list", line: 1, size: 128, align: 64, elements: !896, runtimeLang: DW_LANG_C_plus_plus)
!898 = !DIDerivedType(tag: DW_TAG_pointer_type, size: 64, align: 64, baseType: !897)
!899 = !DIDerivedType(tag: DW_TAG_member, file: !3, scope: !897, name: "__prev", line: 1, size: 64, align: 64, baseType: !898)
!900 = !DIDerivedType(tag: DW_TAG_member, file: !3, scope: !897, name: "__next", line: 1, size: 64, align: 64, offset: 64, baseType: !898)
!901 = !DIDerivedType(tag: DW_TAG_typedef, file: !3, scope: !10, name: "__pthread_list_t", line: 1, size: 128, align: 64, baseType: !897)
!902 = !{ !905 }
!903 = !DICompositeType(tag: DW_TAG_structure_type, file: !3, scope: !10, name: "__pthread_internal_slist", line: 1, size: 64, align: 64, elements: !902, runtimeLang: DW_LANG_C_plus_plus)
!904 = !DIDerivedType(tag: DW_TAG_pointer_type, size: 64, align: 64, baseType: !903)
!905 = !DIDerivedType(tag: DW_TAG_member, file: !3, scope: !903, name: "__next", line: 1, size: 64, align: 64, baseType: !904)
!906 = !{ !908, !909, !910, !911, !912, !913, !914, !915 }
!907 = !DICompositeType(tag: DW_TAG_structure_type, file: !3, scope: !10, name: "__pthread_mutex_s", line: 1, size: 320, align: 64, elements: !906, runtimeLang: DW_LANG_C_plus_plus)
!908 = !DIDerivedType(tag: DW_TAG_member, file: !3, scope: !907, name: "__lock", line: 1, size: 32, align: 32, baseType: !95)
!909 = !DIDerivedType(tag: DW_TAG_member, file: !3, scope: !907, name: "__count", line: 1, size: 32, align: 32, offset: 32, baseType: !131)
!910 = !DIDerivedType(tag: DW_TAG_member, file: !3, scope: !907, name: "__owner", line: 1, size: 32, align: 32, offset: 64, baseType: !95)
!911 = !DIDerivedType(tag: DW_TAG_member, file: !3, scope: !907, name: "__nusers", line: 1, size: 32, align: 32, offset: 96, baseType: !131)
!912 = !DIDerivedType(tag: DW_TAG_member, file: !3, scope: !907, name: "__kind", line: 1, size: 32, align: 32, offset: 128, baseType: !95)
!913 = !DIDerivedType(tag: DW_TAG_member, file: !3, scope: !907, name: "__spins", line: 1, size: 16, align: 16, offset: 160, baseType: !811)
!914 = !DIDerivedType(tag: DW_TAG_member, file: !3, scope: !907, name: "__elision", line: 1, size: 16, align: 16, offset: 176, baseType: !811)
!915 = !DIDerivedType(tag: DW_TAG_member, file: !3, scope: !907, name: "__list", line: 1, size: 128, align: 64, offset: 192, baseType: !897)
!916 = !{ !918, !919, !920, !921, !922, !923, !924, !925, !926, !930, !931, !932 }
!917 = !DICompositeType(tag: DW_TAG_structure_type, file: !3, scope: !10, name: "__pthread_rwlock_arch_t", line: 1, size: 448, align: 64, elements: !916, runtimeLang: DW_LANG_C_plus_plus)
!918 = !DIDerivedType(tag: DW_TAG_member, file: !3, scope: !917, name: "__readers", line: 1, size: 32, align: 32, baseType: !131)
!919 = !DIDerivedType(tag: DW_TAG_member, file: !3, scope: !917, name: "__writers", line: 1, size: 32, align: 32, offset: 32, baseType: !131)
!920 = !DIDerivedType(tag: DW_TAG_member, file: !3, scope: !917, name: "__wrphase_futex", line: 1, size: 32, align: 32, offset: 64, baseType: !131)
!921 = !DIDerivedType(tag: DW_TAG_member, file: !3, scope: !917, name: "__writers_futex", line: 1, size: 32, align: 32, offset: 96, baseType: !131)
!922 = !DIDerivedType(tag: DW_TAG_member, file: !3, scope: !917, name: "__pad3", line: 1, size: 32, align: 32, offset: 128, baseType: !131)
!923 = !DIDerivedType(tag: DW_TAG_member, file: !3, scope: !917, name: "__pad4", line: 1, size: 32, align: 32, offset: 160, baseType: !131)
!924 = !DIDerivedType(tag: DW_TAG_member, file: !3, scope: !917, name: "__cur_writer", line: 1, size: 32, align: 32, offset: 192, baseType: !95)
!925 = !DIDerivedType(tag: DW_TAG_member, file: !3, scope: !917, name: "__shared", line: 1, size: 32, align: 32, offset: 224, baseType: !95)
!926 = !DIDerivedType(tag: DW_TAG_member, file: !3, scope: !917, name: "__rwelision", line: 1, size: 8, align: 8, offset: 256, baseType: !18)
!927 = !DISubrange(count: 7)
!928 = !{ !927 }
!929 = !DICompositeType(tag: DW_TAG_array_type, size: 56, align: 8, baseType: !804, elements: !928)
!930 = !DIDerivedType(tag: DW_TAG_member, file: !3, scope: !917, name: "__pad1", line: 1, size: 56, align: 8, offset: 264, baseType: !929)
!931 = !DIDerivedType(tag: DW_TAG_member, file: !3, scope: !917, name: "__pad2", line: 1, size: 64, align: 64, offset: 320, baseType: !33)
!932 = !DIDerivedType(tag: DW_TAG_member, file: !3, scope: !917, name: "__flags", line: 1, size: 32, align: 32, offset: 384, baseType: !131)
!933 = !{ !952, !952, !954, !955, !956, !957, !958 }
!934 = !DICompositeType(tag: DW_TAG_structure_type, file: !3, scope: !10, name: "__pthread_cond_s", line: 1, size: 384, align: 64, elements: !933, runtimeLang: DW_LANG_C_plus_plus)
!935 = !{ !942, !943 }
!936 = !DICompositeType(tag: DW_TAG_union_type, file: !3, scope: !934, line: 1, size: 64, align: 64, elements: !935, runtimeLang: DW_LANG_C_plus_plus)
!937 = !{ !939, !940 }
!938 = !DICompositeType(tag: DW_TAG_structure_type, file: !3, scope: !936, name: "_ZN16__pthread_cond_s4__C2Ut_E", line: 1, size: 64, align: 32, elements: !937, runtimeLang: DW_LANG_C_plus_plus)
!939 = !DIDerivedType(tag: DW_TAG_member, file: !3, scope: !938, name: "__low", line: 1, size: 32, align: 32, baseType: !131)
!940 = !DIDerivedType(tag: DW_TAG_member, file: !3, scope: !938, name: "__high", line: 1, size: 32, align: 32, offset: 32, baseType: !131)
!941 = !DIBasicType(tag: DW_TAG_base_type, name: "unsigned long long", size: 64, align: 64, encoding: DW_ATE_unsigned)
!942 = !DIDerivedType(tag: DW_TAG_member, file: !3, scope: !936, name: "__wseq", line: 1, size: 64, align: 64, baseType: !941)
!943 = !DIDerivedType(tag: DW_TAG_member, file: !3, scope: !936, name: "__wseq32", line: 1, size: 64, align: 32, baseType: !938)
!944 = !{ !950, !951 }
!945 = !DICompositeType(tag: DW_TAG_union_type, file: !3, scope: !934, line: 1, size: 64, align: 64, elements: !944, runtimeLang: DW_LANG_C_plus_plus)
!946 = !{ !948, !949 }
!947 = !DICompositeType(tag: DW_TAG_structure_type, file: !3, scope: !945, name: "_ZN16__pthread_cond_s4__C3Ut_E", line: 1, size: 64, align: 32, elements: !946, runtimeLang: DW_LANG_C_plus_plus)
!948 = !DIDerivedType(tag: DW_TAG_member, file: !3, scope: !947, name: "__low", line: 1, size: 32, align: 32, baseType: !131)
!949 = !DIDerivedType(tag: DW_TAG_member, file: !3, scope: !947, name: "__high", line: 1, size: 32, align: 32, offset: 32, baseType: !131)
!950 = !DIDerivedType(tag: DW_TAG_member, file: !3, scope: !945, name: "__g1_start", line: 1, size: 64, align: 64, baseType: !941)
!951 = !DIDerivedType(tag: DW_TAG_member, file: !3, scope: !945, name: "__g1_start32", line: 1, size: 64, align: 32, baseType: !947)
!952 = !DIDerivedType(tag: DW_TAG_member, file: !3, scope: !934, line: 1, size: 64, align: 64, baseType: !936)
!953 = !DICompositeType(tag: DW_TAG_array_type, size: 64, align: 32, baseType: !131, elements: !842)
!954 = !DIDerivedType(tag: DW_TAG_member, file: !3, scope: !934, name: "__g_refs", line: 1, size: 64, align: 32, offset: 128, baseType: !953)
!955 = !DIDerivedType(tag: DW_TAG_member, file: !3, scope: !934, name: "__g_size", line: 1, size: 64, align: 32, offset: 192, baseType: !953)
!956 = !DIDerivedType(tag: DW_TAG_member, file: !3, scope: !934, name: "__g1_orig_size", line: 1, size: 32, align: 32, offset: 256, baseType: !131)
!957 = !DIDerivedType(tag: DW_TAG_member, file: !3, scope: !934, name: "__wrefs", line: 1, size: 32, align: 32, offset: 288, baseType: !131)
!958 = !DIDerivedType(tag: DW_TAG_member, file: !3, scope: !934, name: "__g_signals", line: 1, size: 64, align: 32, offset: 320, baseType: !953)
!959 = !DIDerivedType(tag: DW_TAG_typedef, file: !3, scope: !10, name: "pthread_t", line: 1, size: 64, align: 64, baseType: !33)
!960 = !{ !963, !964 }
!961 = !DICompositeType(tag: DW_TAG_union_type, file: !3, scope: !10, name: "pthread_mutexattr_t", line: 1, size: 32, align: 32, elements: !960, runtimeLang: DW_LANG_C_plus_plus)
!962 = !DICompositeType(tag: DW_TAG_array_type, size: 32, align: 8, baseType: !18, elements: !103)
!963 = !DIDerivedType(tag: DW_TAG_member, file: !3, scope: !961, name: "__size", line: 1, size: 32, align: 8, baseType: !962)
!964 = !DIDerivedType(tag: DW_TAG_member, file: !3, scope: !961, name: "__align", line: 1, size: 32, align: 32, baseType: !95)
!965 = !DIDerivedType(tag: DW_TAG_typedef, file: !3, scope: !10, name: "pthread_mutexattr_t", line: 1, size: 32, align: 32, baseType: !961)
!966 = !{ !968, !969 }
!967 = !DICompositeType(tag: DW_TAG_union_type, file: !3, scope: !10, name: "pthread_condattr_t", line: 1, size: 32, align: 32, elements: !966, runtimeLang: DW_LANG_C_plus_plus)
!968 = !DIDerivedType(tag: DW_TAG_member, file: !3, scope: !967, name: "__size", line: 1, size: 32, align: 8, baseType: !962)
!969 = !DIDerivedType(tag: DW_TAG_member, file: !3, scope: !967, name: "__align", line: 1, size: 32, align: 32, baseType: !95)
!970 = !DIDerivedType(tag: DW_TAG_typedef, file: !3, scope: !10, name: "pthread_condattr_t", line: 1, size: 32, align: 32, baseType: !967)
!971 = !DIDerivedType(tag: DW_TAG_typedef, file: !3, scope: !10, name: "pthread_key_t", line: 1, size: 32, align: 32, baseType: !131)
!972 = !DIDerivedType(tag: DW_TAG_typedef, file: !3, scope: !10, name: "pthread_once_t", line: 1, size: 32, align: 32, baseType: !95)
!973 = !{ !978, !979 }
!974 = !DICompositeType(tag: DW_TAG_union_type, file: !3, scope: !10, name: "pthread_attr_t", line: 1, size: 448, align: 64, elements: !973, runtimeLang: DW_LANG_C_plus_plus)
!975 = !DISubrange(count: 56)
!976 = !{ !975 }
!977 = !DICompositeType(tag: DW_TAG_array_type, size: 448, align: 8, baseType: !18, elements: !976)
!978 = !DIDerivedType(tag: DW_TAG_member, file: !3, scope: !974, name: "__size", line: 1, size: 448, align: 8, baseType: !977)
!979 = !DIDerivedType(tag: DW_TAG_member, file: !3, scope: !974, name: "__align", line: 1, size: 64, align: 64, baseType: !87)
!980 = !DIDerivedType(tag: DW_TAG_typedef, file: !3, scope: !10, name: "pthread_attr_t", line: 1, size: 448, align: 64, baseType: !974)
!981 = !{ !983, !987, !988 }
!982 = !DICompositeType(tag: DW_TAG_union_type, file: !3, scope: !10, name: "pthread_mutex_t", line: 1, size: 320, align: 64, elements: !981, runtimeLang: DW_LANG_C_plus_plus)
!983 = !DIDerivedType(tag: DW_TAG_member, file: !3, scope: !982, name: "__data", line: 1, size: 320, align: 64, baseType: !907)
!984 = !DISubrange(count: 40)
!985 = !{ !984 }
!986 = !DICompositeType(tag: DW_TAG_array_type, size: 320, align: 8, baseType: !18, elements: !985)
!987 = !DIDerivedType(tag: DW_TAG_member, file: !3, scope: !982, name: "__size", line: 1, size: 320, align: 8, baseType: !986)
!988 = !DIDerivedType(tag: DW_TAG_member, file: !3, scope: !982, name: "__align", line: 1, size: 64, align: 64, baseType: !87)
!989 = !DIDerivedType(tag: DW_TAG_typedef, file: !3, scope: !10, name: "pthread_mutex_t", line: 1, size: 320, align: 64, baseType: !982)
!990 = !{ !992, !996, !997 }
!991 = !DICompositeType(tag: DW_TAG_union_type, file: !3, scope: !10, name: "pthread_cond_t", line: 1, size: 384, align: 64, elements: !990, runtimeLang: DW_LANG_C_plus_plus)
!992 = !DIDerivedType(tag: DW_TAG_member, file: !3, scope: !991, name: "__data", line: 1, size: 384, align: 64, baseType: !934)
!993 = !DISubrange(count: 48)
!994 = !{ !993 }
!995 = !DICompositeType(tag: DW_TAG_array_type, size: 384, align: 8, baseType: !18, elements: !994)
!996 = !DIDerivedType(tag: DW_TAG_member, file: !3, scope: !991, name: "__size", line: 1, size: 384, align: 8, baseType: !995)
!997 = !DIDerivedType(tag: DW_TAG_member, file: !3, scope: !991, name: "__align", line: 1, size: 64, align: 64, baseType: !798)
!998 = !DIDerivedType(tag: DW_TAG_typedef, file: !3, scope: !10, name: "pthread_cond_t", line: 1, size: 384, align: 64, baseType: !991)
!999 = !{ !1001, !1002, !1003 }
!1000 = !DICompositeType(tag: DW_TAG_union_type, file: !3, scope: !10, name: "pthread_rwlock_t", line: 1, size: 448, align: 64, elements: !999, runtimeLang: DW_LANG_C_plus_plus)
!1001 = !DIDerivedType(tag: DW_TAG_member, file: !3, scope: !1000, name: "__data", line: 1, size: 448, align: 64, baseType: !917)
!1002 = !DIDerivedType(tag: DW_TAG_member, file: !3, scope: !1000, name: "__size", line: 1, size: 448, align: 8, baseType: !977)
!1003 = !DIDerivedType(tag: DW_TAG_member, file: !3, scope: !1000, name: "__align", line: 1, size: 64, align: 64, baseType: !87)
!1004 = !DIDerivedType(tag: DW_TAG_typedef, file: !3, scope: !10, name: "pthread_rwlock_t", line: 1, size: 448, align: 64, baseType: !1000)
!1005 = !{ !1007, !1008 }
!1006 = !DICompositeType(tag: DW_TAG_union_type, file: !3, scope: !10, name: "pthread_rwlockattr_t", line: 1, size: 64, align: 64, elements: !1005, runtimeLang: DW_LANG_C_plus_plus)
!1007 = !DIDerivedType(tag: DW_TAG_member, file: !3, scope: !1006, name: "__size", line: 1, size: 64, align: 8, baseType: !585)
!1008 = !DIDerivedType(tag: DW_TAG_member, file: !3, scope: !1006, name: "__align", line: 1, size: 64, align: 64, baseType: !87)
!1009 = !DIDerivedType(tag: DW_TAG_typedef, file: !3, scope: !10, name: "pthread_rwlockattr_t", line: 1, size: 64, align: 64, baseType: !1006)
!1010 = !DIDerivedType(tag: DW_TAG_typedef, file: !3, scope: !10, name: "pthread_spinlock_t", line: 1, size: 32, align: 32, baseType: !95)
!1011 = !{ !1016, !1017 }
!1012 = !DICompositeType(tag: DW_TAG_union_type, file: !3, scope: !10, name: "pthread_barrier_t", line: 1, size: 256, align: 64, elements: !1011, runtimeLang: DW_LANG_C_plus_plus)
!1013 = !DISubrange(count: 32)
!1014 = !{ !1013 }
!1015 = !DICompositeType(tag: DW_TAG_array_type, size: 256, align: 8, baseType: !18, elements: !1014)
!1016 = !DIDerivedType(tag: DW_TAG_member, file: !3, scope: !1012, name: "__size", line: 1, size: 256, align: 8, baseType: !1015)
!1017 = !DIDerivedType(tag: DW_TAG_member, file: !3, scope: !1012, name: "__align", line: 1, size: 64, align: 64, baseType: !87)
!1018 = !DIDerivedType(tag: DW_TAG_typedef, file: !3, scope: !10, name: "pthread_barrier_t", line: 1, size: 256, align: 64, baseType: !1012)
!1019 = !{ !1021, !1022 }
!1020 = !DICompositeType(tag: DW_TAG_union_type, file: !3, scope: !10, name: "pthread_barrierattr_t", line: 1, size: 32, align: 32, elements: !1019, runtimeLang: DW_LANG_C_plus_plus)
!1021 = !DIDerivedType(tag: DW_TAG_member, file: !3, scope: !1020, name: "__size", line: 1, size: 32, align: 8, baseType: !962)
!1022 = !DIDerivedType(tag: DW_TAG_member, file: !3, scope: !1020, name: "__align", line: 1, size: 32, align: 32, baseType: !95)
!1023 = !DIDerivedType(tag: DW_TAG_typedef, file: !3, scope: !10, name: "pthread_barrierattr_t", line: 1, size: 32, align: 32, baseType: !1020)
!1024 = !{ !1026, !1027, !1028, !1029, !1030, !1031, !1032 }
!1025 = !DICompositeType(tag: DW_TAG_structure_type, file: !3, scope: !10, name: "random_data", line: 1, size: 384, align: 64, elements: !1024, runtimeLang: DW_LANG_C_plus_plus)
!1026 = !DIDerivedType(tag: DW_TAG_member, file: !3, scope: !1025, name: "fptr", line: 1, size: 64, align: 64, baseType: !96)
!1027 = !DIDerivedType(tag: DW_TAG_member, file: !3, scope: !1025, name: "rptr", line: 1, size: 64, align: 64, offset: 64, baseType: !96)
!1028 = !DIDerivedType(tag: DW_TAG_member, file: !3, scope: !1025, name: "state", line: 1, size: 64, align: 64, offset: 128, baseType: !96)
!1029 = !DIDerivedType(tag: DW_TAG_member, file: !3, scope: !1025, name: "rand_type", line: 1, size: 32, align: 32, offset: 192, baseType: !95)
!1030 = !DIDerivedType(tag: DW_TAG_member, file: !3, scope: !1025, name: "rand_deg", line: 1, size: 32, align: 32, offset: 224, baseType: !95)
!1031 = !DIDerivedType(tag: DW_TAG_member, file: !3, scope: !1025, name: "rand_sep", line: 1, size: 32, align: 32, offset: 256, baseType: !95)
!1032 = !DIDerivedType(tag: DW_TAG_member, file: !3, scope: !1025, name: "end_ptr", line: 1, size: 64, align: 64, offset: 320, baseType: !96)
!1033 = !{ !1036, !1037, !1038, !1039, !1040 }
!1034 = !DICompositeType(tag: DW_TAG_structure_type, file: !3, scope: !10, name: "drand48_data", line: 1, size: 192, align: 64, elements: !1033, runtimeLang: DW_LANG_C_plus_plus)
!1035 = !DICompositeType(tag: DW_TAG_array_type, size: 48, align: 16, baseType: !113, elements: !728)
!1036 = !DIDerivedType(tag: DW_TAG_member, file: !3, scope: !1034, name: "__x", line: 1, size: 48, align: 16, baseType: !1035)
!1037 = !DIDerivedType(tag: DW_TAG_member, file: !3, scope: !1034, name: "__old_x", line: 1, size: 48, align: 16, offset: 48, baseType: !1035)
!1038 = !DIDerivedType(tag: DW_TAG_member, file: !3, scope: !1034, name: "__c", line: 1, size: 16, align: 16, offset: 96, baseType: !113)
!1039 = !DIDerivedType(tag: DW_TAG_member, file: !3, scope: !1034, name: "__init", line: 1, size: 16, align: 16, offset: 112, baseType: !113)
!1040 = !DIDerivedType(tag: DW_TAG_member, file: !3, scope: !1034, name: "__a", line: 1, size: 64, align: 64, offset: 128, baseType: !941)
!1041 = !{ !95, !73, !73 }
!1042 = !DISubroutineType(types: !1041)
!1043 = !DIDerivedType(tag: DW_TAG_pointer_type, size: 64, align: 64, baseType: !1042)
!1044 = !DIDerivedType(tag: DW_TAG_typedef, file: !3, scope: !10, name: "__compar_fn_t", line: 1, size: 64, align: 64, baseType: !1043)
!1045 = !{ !95, !73, !73, !73 }
!1046 = !DISubroutineType(types: !1045)
!1047 = !DIDerivedType(tag: DW_TAG_pointer_type, size: 64, align: 64, baseType: !1046)
!1048 = !DIDerivedType(tag: DW_TAG_typedef, file: !3, scope: !10, name: "__compar_d_fn_t", line: 1, size: 64, align: 64, baseType: !1047)
!1049 = !DIDerivedType(tag: DW_TAG_typedef, file: !3, scope: !10, name: "__gnuc_va_list", line: 1, size: 192, align: 64, baseType: !772)
!1050 = !DIDerivedType(tag: DW_TAG_typedef, file: !3, scope: !10, name: "wint_t", line: 1, size: 32, align: 32, baseType: !131)
!1051 = !{ !1057, !1058 }
!1052 = !DICompositeType(tag: DW_TAG_structure_type, file: !3, scope: !10, name: "__mbstate_t", line: 1, size: 64, align: 32, elements: !1051, runtimeLang: DW_LANG_C_plus_plus)
!1053 = !{ !1055, !1056 }
!1054 = !DICompositeType(tag: DW_TAG_union_type, file: !3, scope: !1052, name: "_ZN11__mbstate_tUt_E", line: 1, size: 32, align: 32, elements: !1053, runtimeLang: DW_LANG_C_plus_plus)
!1055 = !DIDerivedType(tag: DW_TAG_member, file: !3, scope: !1054, name: "__wch", line: 1, size: 32, align: 32, baseType: !131)
!1056 = !DIDerivedType(tag: DW_TAG_member, file: !3, scope: !1054, name: "__wchb", line: 1, size: 32, align: 8, baseType: !962)
!1057 = !DIDerivedType(tag: DW_TAG_member, file: !3, scope: !1052, name: "__count", line: 1, size: 32, align: 32, baseType: !95)
!1058 = !DIDerivedType(tag: DW_TAG_member, file: !3, scope: !1052, name: "__value", line: 1, size: 32, align: 32, offset: 32, baseType: !1054)
!1059 = !DIDerivedType(tag: DW_TAG_typedef, file: !3, scope: !10, name: "__mbstate_t", line: 1, size: 64, align: 32, baseType: !1052)
!1060 = !DIDerivedType(tag: DW_TAG_typedef, file: !3, scope: !10, name: "mbstate_t", line: 1, size: 64, align: 32, baseType: !1052)
!1061 = !{ !1063, !1064, !1065, !1066, !1067, !1068, !1069, !1070, !1071, !1072, !1073, !1074, !1078, !1080, !1081, !1082, !1083, !1084, !1085, !1086, !1087, !1088, !1092, !1096, !1097, !1098, !1099, !1100, !1104 }
!1062 = !DICompositeType(tag: DW_TAG_structure_type, file: !3, scope: !10, name: "_IO_FILE", line: 1, size: 1728, align: 64, elements: !1061, runtimeLang: DW_LANG_C_plus_plus)
!1063 = !DIDerivedType(tag: DW_TAG_member, file: !3, scope: !1062, name: "_flags", line: 1, size: 32, align: 32, baseType: !95)
!1064 = !DIDerivedType(tag: DW_TAG_member, file: !3, scope: !1062, name: "_IO_read_ptr", line: 1, size: 64, align: 64, offset: 64, baseType: !35)
!1065 = !DIDerivedType(tag: DW_TAG_member, file: !3, scope: !1062, name: "_IO_read_end", line: 1, size: 64, align: 64, offset: 128, baseType: !35)
!1066 = !DIDerivedType(tag: DW_TAG_member, file: !3, scope: !1062, name: "_IO_read_base", line: 1, size: 64, align: 64, offset: 192, baseType: !35)
!1067 = !DIDerivedType(tag: DW_TAG_member, file: !3, scope: !1062, name: "_IO_write_base", line: 1, size: 64, align: 64, offset: 256, baseType: !35)
!1068 = !DIDerivedType(tag: DW_TAG_member, file: !3, scope: !1062, name: "_IO_write_ptr", line: 1, size: 64, align: 64, offset: 320, baseType: !35)
!1069 = !DIDerivedType(tag: DW_TAG_member, file: !3, scope: !1062, name: "_IO_write_end", line: 1, size: 64, align: 64, offset: 384, baseType: !35)
!1070 = !DIDerivedType(tag: DW_TAG_member, file: !3, scope: !1062, name: "_IO_buf_base", line: 1, size: 64, align: 64, offset: 448, baseType: !35)
!1071 = !DIDerivedType(tag: DW_TAG_member, file: !3, scope: !1062, name: "_IO_buf_end", line: 1, size: 64, align: 64, offset: 512, baseType: !35)
!1072 = !DIDerivedType(tag: DW_TAG_member, file: !3, scope: !1062, name: "_IO_save_base", line: 1, size: 64, align: 64, offset: 576, baseType: !35)
!1073 = !DIDerivedType(tag: DW_TAG_member, file: !3, scope: !1062, name: "_IO_backup_base", line: 1, size: 64, align: 64, offset: 640, baseType: !35)
!1074 = !DIDerivedType(tag: DW_TAG_member, file: !3, scope: !1062, name: "_IO_save_end", line: 1, size: 64, align: 64, offset: 704, baseType: !35)
!1075 = !{  }
!1076 = !DICompositeType(tag: DW_TAG_structure_type, file: !3, name: "_IO_marker", align: 8, elements: !1075)
!1077 = !DIDerivedType(tag: DW_TAG_pointer_type, size: 64, align: 64, baseType: !1076)
!1078 = !DIDerivedType(tag: DW_TAG_member, file: !3, scope: !1062, name: "_markers", line: 1, size: 64, align: 64, offset: 768, baseType: !1077)
!1079 = !DIDerivedType(tag: DW_TAG_pointer_type, size: 64, align: 64, baseType: !1062)
!1080 = !DIDerivedType(tag: DW_TAG_member, file: !3, scope: !1062, name: "_chain", line: 1, size: 64, align: 64, offset: 832, baseType: !1079)
!1081 = !DIDerivedType(tag: DW_TAG_member, file: !3, scope: !1062, name: "_fileno", line: 1, size: 32, align: 32, offset: 896, baseType: !95)
!1082 = !DIDerivedType(tag: DW_TAG_member, file: !3, scope: !1062, name: "_flags2", line: 1, size: 32, align: 32, offset: 928, baseType: !95)
!1083 = !DIDerivedType(tag: DW_TAG_member, file: !3, scope: !1062, name: "_old_offset", line: 1, size: 64, align: 64, offset: 960, baseType: !87)
!1084 = !DIDerivedType(tag: DW_TAG_member, file: !3, scope: !1062, name: "_cur_column", line: 1, size: 16, align: 16, offset: 1024, baseType: !113)
!1085 = !DIDerivedType(tag: DW_TAG_member, file: !3, scope: !1062, name: "_vtable_offset", line: 1, size: 8, align: 8, offset: 1040, baseType: !18)
!1086 = !DIDerivedType(tag: DW_TAG_member, file: !3, scope: !1062, name: "_shortbuf", line: 1, size: 8, align: 8, offset: 1048, baseType: !20)
!1087 = !DIDerivedType(tag: DW_TAG_member, file: !3, scope: !1062, name: "_lock", line: 1, size: 64, align: 64, offset: 1088, baseType: !73)
!1088 = !DIDerivedType(tag: DW_TAG_member, file: !3, scope: !1062, name: "_offset", line: 1, size: 64, align: 64, offset: 1152, baseType: !87)
!1089 = !{  }
!1090 = !DICompositeType(tag: DW_TAG_structure_type, file: !3, name: "_IO_codecvt", align: 8, elements: !1089)
!1091 = !DIDerivedType(tag: DW_TAG_pointer_type, size: 64, align: 64, baseType: !1090)
!1092 = !DIDerivedType(tag: DW_TAG_member, file: !3, scope: !1062, name: "_codecvt", line: 1, size: 64, align: 64, offset: 1216, baseType: !1091)
!1093 = !{  }
!1094 = !DICompositeType(tag: DW_TAG_structure_type, file: !3, name: "_IO_wide_data", align: 8, elements: !1093)
!1095 = !DIDerivedType(tag: DW_TAG_pointer_type, size: 64, align: 64, baseType: !1094)
!1096 = !DIDerivedType(tag: DW_TAG_member, file: !3, scope: !1062, name: "_wide_data", line: 1, size: 64, align: 64, offset: 1280, baseType: !1095)
!1097 = !DIDerivedType(tag: DW_TAG_member, file: !3, scope: !1062, name: "_freeres_list", line: 1, size: 64, align: 64, offset: 1344, baseType: !1079)
!1098 = !DIDerivedType(tag: DW_TAG_member, file: !3, scope: !1062, name: "_freeres_buf", line: 1, size: 64, align: 64, offset: 1408, baseType: !73)
!1099 = !DIDerivedType(tag: DW_TAG_member, file: !3, scope: !1062, name: "__pad5", line: 1, size: 64, align: 64, offset: 1472, baseType: !33)
!1100 = !DIDerivedType(tag: DW_TAG_member, file: !3, scope: !1062, name: "_mode", line: 1, size: 32, align: 32, offset: 1536, baseType: !95)
!1101 = !DISubrange(count: 20)
!1102 = !{ !1101 }
!1103 = !DICompositeType(tag: DW_TAG_array_type, size: 160, align: 8, baseType: !18, elements: !1102)
!1104 = !DIDerivedType(tag: DW_TAG_member, file: !3, scope: !1062, name: "_unused2", line: 1, size: 160, align: 8, offset: 1568, baseType: !1103)
!1105 = !DIDerivedType(tag: DW_TAG_typedef, file: !3, scope: !10, name: "__FILE", line: 1, size: 1728, align: 64, baseType: !1062)
!1106 = !DIDerivedType(tag: DW_TAG_typedef, file: !3, scope: !10, name: "FILE", line: 1, size: 1728, align: 64, baseType: !1062)
!1107 = !{ !1109, !1110 }
!1108 = !DICompositeType(tag: DW_TAG_structure_type, file: !3, scope: !10, name: "max_align_t", line: 1, size: 256, align: 128, elements: !1107, runtimeLang: DW_LANG_C_plus_plus)
!1109 = !DIDerivedType(tag: DW_TAG_member, file: !3, scope: !1108, name: "__max_align_ll", line: 1, size: 64, align: 64, baseType: !798)
!1110 = !DIDerivedType(tag: DW_TAG_member, file: !3, scope: !1108, name: "__max_align_ld", line: 1, size: 128, align: 128, offset: 128, baseType: !784)
!1111 = !DIDerivedType(tag: DW_TAG_typedef, file: !3, scope: !10, name: "uint32_t", line: 1, size: 32, align: 32, baseType: !131)
!1112 = !DIDerivedType(tag: DW_TAG_typedef, file: !3, scope: !10, name: "uint64_t", line: 1, size: 64, align: 64, baseType: !33)
!1113 = !DIDerivedType(tag: DW_TAG_typedef, file: !3, scope: !10, name: "uint_least16_t", line: 1, size: 16, align: 16, baseType: !113)
!1114 = !DIDerivedType(tag: DW_TAG_typedef, file: !3, scope: !10, name: "uint_least32_t", line: 1, size: 32, align: 32, baseType: !131)
!1115 = !DIDerivedType(tag: DW_TAG_typedef, file: !3, scope: !10, name: "uint_fast16_t", line: 1, size: 64, align: 64, baseType: !33)
!1116 = !DIDerivedType(tag: DW_TAG_typedef, file: !3, scope: !10, name: "uint_fast32_t", line: 1, size: 64, align: 64, baseType: !33)
!1117 = !DIDerivedType(tag: DW_TAG_typedef, file: !3, scope: !10, name: "uint_fast64_t", line: 1, size: 64, align: 64, baseType: !33)
!1118 = !DIDerivedType(tag: DW_TAG_typedef, file: !3, scope: !10, name: "uintptr_t", line: 1, size: 64, align: 64, baseType: !33)
!1119 = !{ !1121, !1122, !1123, !1124, !1125, !1126, !1127, !1128, !1129, !1130, !1131, !1132, !1133, !1134, !1135, !1136, !1137, !1138, !1139, !1140, !1141, !1142, !1143, !1144 }
!1120 = !DICompositeType(tag: DW_TAG_structure_type, file: !3, scope: !10, name: "lconv", line: 1, size: 768, align: 64, elements: !1119, runtimeLang: DW_LANG_C_plus_plus)
!1121 = !DIDerivedType(tag: DW_TAG_member, file: !3, scope: !1120, name: "decimal_point", line: 1, size: 64, align: 64, baseType: !35)
!1122 = !DIDerivedType(tag: DW_TAG_member, file: !3, scope: !1120, name: "thousands_sep", line: 1, size: 64, align: 64, offset: 64, baseType: !35)
!1123 = !DIDerivedType(tag: DW_TAG_member, file: !3, scope: !1120, name: "grouping", line: 1, size: 64, align: 64, offset: 128, baseType: !35)
!1124 = !DIDerivedType(tag: DW_TAG_member, file: !3, scope: !1120, name: "int_curr_symbol", line: 1, size: 64, align: 64, offset: 192, baseType: !35)
!1125 = !DIDerivedType(tag: DW_TAG_member, file: !3, scope: !1120, name: "currency_symbol", line: 1, size: 64, align: 64, offset: 256, baseType: !35)
!1126 = !DIDerivedType(tag: DW_TAG_member, file: !3, scope: !1120, name: "mon_decimal_point", line: 1, size: 64, align: 64, offset: 320, baseType: !35)
!1127 = !DIDerivedType(tag: DW_TAG_member, file: !3, scope: !1120, name: "mon_thousands_sep", line: 1, size: 64, align: 64, offset: 384, baseType: !35)
!1128 = !DIDerivedType(tag: DW_TAG_member, file: !3, scope: !1120, name: "mon_grouping", line: 1, size: 64, align: 64, offset: 448, baseType: !35)
!1129 = !DIDerivedType(tag: DW_TAG_member, file: !3, scope: !1120, name: "positive_sign", line: 1, size: 64, align: 64, offset: 512, baseType: !35)
!1130 = !DIDerivedType(tag: DW_TAG_member, file: !3, scope: !1120, name: "negative_sign", line: 1, size: 64, align: 64, offset: 576, baseType: !35)
!1131 = !DIDerivedType(tag: DW_TAG_member, file: !3, scope: !1120, name: "int_frac_digits", line: 1, size: 8, align: 8, offset: 640, baseType: !18)
!1132 = !DIDerivedType(tag: DW_TAG_member, file: !3, scope: !1120, name: "frac_digits", line: 1, size: 8, align: 8, offset: 648, baseType: !18)
!1133 = !DIDerivedType(tag: DW_TAG_member, file: !3, scope: !1120, name: "p_cs_precedes", line: 1, size: 8, align: 8, offset: 656, baseType: !18)
!1134 = !DIDerivedType(tag: DW_TAG_member, file: !3, scope: !1120, name: "p_sep_by_space", line: 1, size: 8, align: 8, offset: 664, baseType: !18)
!1135 = !DIDerivedType(tag: DW_TAG_member, file: !3, scope: !1120, name: "n_cs_precedes", line: 1, size: 8, align: 8, offset: 672, baseType: !18)
!1136 = !DIDerivedType(tag: DW_TAG_member, file: !3, scope: !1120, name: "n_sep_by_space", line: 1, size: 8, align: 8, offset: 680, baseType: !18)
!1137 = !DIDerivedType(tag: DW_TAG_member, file: !3, scope: !1120, name: "p_sign_posn", line: 1, size: 8, align: 8, offset: 688, baseType: !18)
!1138 = !DIDerivedType(tag: DW_TAG_member, file: !3, scope: !1120, name: "n_sign_posn", line: 1, size: 8, align: 8, offset: 696, baseType: !18)
!1139 = !DIDerivedType(tag: DW_TAG_member, file: !3, scope: !1120, name: "int_p_cs_precedes", line: 1, size: 8, align: 8, offset: 704, baseType: !18)
!1140 = !DIDerivedType(tag: DW_TAG_member, file: !3, scope: !1120, name: "int_p_sep_by_space", line: 1, size: 8, align: 8, offset: 712, baseType: !18)
!1141 = !DIDerivedType(tag: DW_TAG_member, file: !3, scope: !1120, name: "int_n_cs_precedes", line: 1, size: 8, align: 8, offset: 720, baseType: !18)
!1142 = !DIDerivedType(tag: DW_TAG_member, file: !3, scope: !1120, name: "int_n_sep_by_space", line: 1, size: 8, align: 8, offset: 728, baseType: !18)
!1143 = !DIDerivedType(tag: DW_TAG_member, file: !3, scope: !1120, name: "int_p_sign_posn", line: 1, size: 8, align: 8, offset: 736, baseType: !18)
!1144 = !DIDerivedType(tag: DW_TAG_member, file: !3, scope: !1120, name: "int_n_sign_posn", line: 1, size: 8, align: 8, offset: 744, baseType: !18)
!1145 = !{ !1147 }
!1146 = !DICompositeType(tag: DW_TAG_structure_type, file: !3, scope: !10, name: "sched_param", line: 1, size: 32, align: 32, elements: !1145, runtimeLang: DW_LANG_C_plus_plus)
!1147 = !DIDerivedType(tag: DW_TAG_member, file: !3, scope: !1146, name: "sched_priority", line: 1, size: 32, align: 32, baseType: !95)
!1148 = !DIDerivedType(tag: DW_TAG_typedef, file: !3, scope: !10, name: "__cpu_mask", line: 1, size: 64, align: 64, baseType: !33)
!1149 = !{ !1151 }
!1150 = !DICompositeType(tag: DW_TAG_structure_type, file: !3, scope: !10, name: "cpu_set_t", line: 1, size: 1024, align: 64, elements: !1149, runtimeLang: DW_LANG_C_plus_plus)
!1151 = !DIDerivedType(tag: DW_TAG_member, file: !3, scope: !1150, name: "__bits", line: 1, size: 1024, align: 64, baseType: !362)
!1152 = !DIDerivedType(tag: DW_TAG_typedef, file: !3, scope: !10, name: "cpu_set_t", line: 1, size: 1024, align: 64, baseType: !1150)
!1153 = !{ !1155, !1156, !1157, !1158, !1159, !1160, !1161, !1162, !1163, !1164, !1165, !1166, !1167, !1168, !1169, !1170, !1171, !1172, !1173, !1174 }
!1154 = !DICompositeType(tag: DW_TAG_structure_type, file: !3, scope: !10, name: "timex", line: 1, size: 1664, align: 64, elements: !1153, runtimeLang: DW_LANG_C_plus_plus)
!1155 = !DIDerivedType(tag: DW_TAG_member, file: !3, scope: !1154, name: "modes", line: 1, size: 32, align: 32, baseType: !131)
!1156 = !DIDerivedType(tag: DW_TAG_member, file: !3, scope: !1154, name: "offset", line: 1, size: 64, align: 64, offset: 64, baseType: !87)
!1157 = !DIDerivedType(tag: DW_TAG_member, file: !3, scope: !1154, name: "freq", line: 1, size: 64, align: 64, offset: 128, baseType: !87)
!1158 = !DIDerivedType(tag: DW_TAG_member, file: !3, scope: !1154, name: "maxerror", line: 1, size: 64, align: 64, offset: 192, baseType: !87)
!1159 = !DIDerivedType(tag: DW_TAG_member, file: !3, scope: !1154, name: "esterror", line: 1, size: 64, align: 64, offset: 256, baseType: !87)
!1160 = !DIDerivedType(tag: DW_TAG_member, file: !3, scope: !1154, name: "status", line: 1, size: 32, align: 32, offset: 320, baseType: !95)
!1161 = !DIDerivedType(tag: DW_TAG_member, file: !3, scope: !1154, name: "constant", line: 1, size: 64, align: 64, offset: 384, baseType: !87)
!1162 = !DIDerivedType(tag: DW_TAG_member, file: !3, scope: !1154, name: "precision", line: 1, size: 64, align: 64, offset: 448, baseType: !87)
!1163 = !DIDerivedType(tag: DW_TAG_member, file: !3, scope: !1154, name: "tolerance", line: 1, size: 64, align: 64, offset: 512, baseType: !87)
!1164 = !DIDerivedType(tag: DW_TAG_member, file: !3, scope: !1154, name: "time", line: 1, size: 128, align: 64, offset: 576, baseType: !883)
!1165 = !DIDerivedType(tag: DW_TAG_member, file: !3, scope: !1154, name: "tick", line: 1, size: 64, align: 64, offset: 704, baseType: !87)
!1166 = !DIDerivedType(tag: DW_TAG_member, file: !3, scope: !1154, name: "ppsfreq", line: 1, size: 64, align: 64, offset: 768, baseType: !87)
!1167 = !DIDerivedType(tag: DW_TAG_member, file: !3, scope: !1154, name: "jitter", line: 1, size: 64, align: 64, offset: 832, baseType: !87)
!1168 = !DIDerivedType(tag: DW_TAG_member, file: !3, scope: !1154, name: "shift", line: 1, size: 32, align: 32, offset: 896, baseType: !95)
!1169 = !DIDerivedType(tag: DW_TAG_member, file: !3, scope: !1154, name: "stabil", line: 1, size: 64, align: 64, offset: 960, baseType: !87)
!1170 = !DIDerivedType(tag: DW_TAG_member, file: !3, scope: !1154, name: "jitcnt", line: 1, size: 64, align: 64, offset: 1024, baseType: !87)
!1171 = !DIDerivedType(tag: DW_TAG_member, file: !3, scope: !1154, name: "calcnt", line: 1, size: 64, align: 64, offset: 1088, baseType: !87)
!1172 = !DIDerivedType(tag: DW_TAG_member, file: !3, scope: !1154, name: "errcnt", line: 1, size: 64, align: 64, offset: 1152, baseType: !87)
!1173 = !DIDerivedType(tag: DW_TAG_member, file: !3, scope: !1154, name: "stbcnt", line: 1, size: 64, align: 64, offset: 1216, baseType: !87)
!1174 = !DIDerivedType(tag: DW_TAG_member, file: !3, scope: !1154, name: "tai", line: 1, size: 32, align: 32, offset: 1280, baseType: !95)
!1175 = !{ !1177, !1178, !1179, !1180, !1181, !1182, !1183, !1184, !1185, !1186, !1187 }
!1176 = !DICompositeType(tag: DW_TAG_structure_type, file: !3, scope: !10, name: "tm", line: 1, size: 448, align: 64, elements: !1175, runtimeLang: DW_LANG_C_plus_plus)
!1177 = !DIDerivedType(tag: DW_TAG_member, file: !3, scope: !1176, name: "tm_sec", line: 1, size: 32, align: 32, baseType: !95)
!1178 = !DIDerivedType(tag: DW_TAG_member, file: !3, scope: !1176, name: "tm_min", line: 1, size: 32, align: 32, offset: 32, baseType: !95)
!1179 = !DIDerivedType(tag: DW_TAG_member, file: !3, scope: !1176, name: "tm_hour", line: 1, size: 32, align: 32, offset: 64, baseType: !95)
!1180 = !DIDerivedType(tag: DW_TAG_member, file: !3, scope: !1176, name: "tm_mday", line: 1, size: 32, align: 32, offset: 96, baseType: !95)
!1181 = !DIDerivedType(tag: DW_TAG_member, file: !3, scope: !1176, name: "tm_mon", line: 1, size: 32, align: 32, offset: 128, baseType: !95)
!1182 = !DIDerivedType(tag: DW_TAG_member, file: !3, scope: !1176, name: "tm_year", line: 1, size: 32, align: 32, offset: 160, baseType: !95)
!1183 = !DIDerivedType(tag: DW_TAG_member, file: !3, scope: !1176, name: "tm_wday", line: 1, size: 32, align: 32, offset: 192, baseType: !95)
!1184 = !DIDerivedType(tag: DW_TAG_member, file: !3, scope: !1176, name: "tm_yday", line: 1, size: 32, align: 32, offset: 224, baseType: !95)
!1185 = !DIDerivedType(tag: DW_TAG_member, file: !3, scope: !1176, name: "tm_isdst", line: 1, size: 32, align: 32, offset: 256, baseType: !95)
!1186 = !DIDerivedType(tag: DW_TAG_member, file: !3, scope: !1176, name: "tm_gmtoff", line: 1, size: 64, align: 64, offset: 320, baseType: !87)
!1187 = !DIDerivedType(tag: DW_TAG_member, file: !3, scope: !1176, name: "tm_zone", line: 1, size: 64, align: 64, offset: 384, baseType: !35)
!1188 = !{ !1190, !1191 }
!1189 = !DICompositeType(tag: DW_TAG_structure_type, file: !3, scope: !10, name: "itimerspec", line: 1, size: 256, align: 64, elements: !1188, runtimeLang: DW_LANG_C_plus_plus)
!1190 = !DIDerivedType(tag: DW_TAG_member, file: !3, scope: !1189, name: "it_interval", line: 1, size: 128, align: 64, baseType: !887)
!1191 = !DIDerivedType(tag: DW_TAG_member, file: !3, scope: !1189, name: "it_value", line: 1, size: 128, align: 64, offset: 128, baseType: !887)
!1192 = !{  }
!1193 = !DICompositeType(tag: DW_TAG_structure_type, file: !3, scope: !10, name: "sigevent", line: 1, align: 8, elements: !1192, runtimeLang: DW_LANG_C_plus_plus)
!1194 = !DICompositeType(tag: DW_TAG_array_type, size: 512, align: 64, baseType: !87, elements: !121)
!1195 = !DIDerivedType(tag: DW_TAG_typedef, file: !3, scope: !10, name: "__jmp_buf", line: 1, size: 512, align: 64, baseType: !1194)
!1196 = !{ !1201, !1202, !1203, !1205 }
!1197 = !DICompositeType(tag: DW_TAG_structure_type, file: !3, scope: !10, name: "_pthread_cleanup_buffer", line: 1, size: 256, align: 64, elements: !1196, runtimeLang: DW_LANG_C_plus_plus)
!1198 = !{ null, !73 }
!1199 = !DISubroutineType(types: !1198)
!1200 = !DIDerivedType(tag: DW_TAG_pointer_type, size: 64, align: 64, baseType: !1199)
!1201 = !DIDerivedType(tag: DW_TAG_member, file: !3, scope: !1197, name: "__routine", line: 1, size: 64, align: 64, baseType: !1200)
!1202 = !DIDerivedType(tag: DW_TAG_member, file: !3, scope: !1197, name: "__arg", line: 1, size: 64, align: 64, offset: 64, baseType: !73)
!1203 = !DIDerivedType(tag: DW_TAG_member, file: !3, scope: !1197, name: "__canceltype", line: 1, size: 32, align: 32, offset: 128, baseType: !95)
!1204 = !DIDerivedType(tag: DW_TAG_pointer_type, size: 64, align: 64, baseType: !1197)
!1205 = !DIDerivedType(tag: DW_TAG_member, file: !3, scope: !1197, name: "__prev", line: 1, size: 64, align: 64, offset: 192, baseType: !1204)
!1206 = !{ !1208, !1209 }
!1207 = !DICompositeType(tag: DW_TAG_enumeration_type, file: !3, scope: !10, name: "_ZN42_INTERNAL_20_particle_species_cpp_29edf090Ut9_E", line: 1, size: 32, align: 32, elements: !1206, runtimeLang: DW_LANG_C_plus_plus)
!1208 = !DIEnumerator(name: "PTHREAD_CANCEL_DEFERRED", value: 0)
!1209 = !DIEnumerator(name: "PTHREAD_CANCEL_ASYNCHRONOUS", value: 1)
!1210 = !{ !1217, !1219 }
!1211 = !DICompositeType(tag: DW_TAG_structure_type, file: !3, scope: !10, name: "__pthread_unwind_buf_t", line: 1, size: 832, align: 64, elements: !1210, runtimeLang: DW_LANG_C_plus_plus)
!1212 = !{ !1214, !1215 }
!1213 = !DICompositeType(tag: DW_TAG_structure_type, file: !3, scope: !1211, name: "_ZN22__pthread_unwind_buf_tUt_E", line: 1, size: 576, align: 64, elements: !1212, runtimeLang: DW_LANG_C_plus_plus)
!1214 = !DIDerivedType(tag: DW_TAG_member, file: !3, scope: !1213, name: "__cancel_jmp_buf", line: 1, size: 512, align: 64, baseType: !1194)
!1215 = !DIDerivedType(tag: DW_TAG_member, file: !3, scope: !1213, name: "__mask_was_saved", line: 1, size: 32, align: 32, offset: 512, baseType: !95)
!1216 = !DICompositeType(tag: DW_TAG_array_type, size: 576, align: 64, baseType: !1213, elements: !19)
!1217 = !DIDerivedType(tag: DW_TAG_member, file: !3, scope: !1211, name: "__cancel_jmp_buf", line: 1, size: 576, align: 64, baseType: !1216)
!1218 = !DICompositeType(tag: DW_TAG_array_type, size: 256, align: 64, baseType: !73, elements: !103)
!1219 = !DIDerivedType(tag: DW_TAG_member, file: !3, scope: !1211, name: "__pad", line: 1, size: 256, align: 64, offset: 576, baseType: !1218)
!1220 = !{ !1222, !1223, !1224, !1225 }
!1221 = !DICompositeType(tag: DW_TAG_structure_type, file: !3, scope: !10, name: "__pthread_cleanup_frame", line: 1, size: 192, align: 64, elements: !1220, runtimeLang: DW_LANG_C_plus_plus)
!1222 = !DIDerivedType(tag: DW_TAG_member, file: !3, scope: !1221, name: "__cancel_routine", line: 1, size: 64, align: 64, baseType: !1200)
!1223 = !DIDerivedType(tag: DW_TAG_member, file: !3, scope: !1221, name: "__cancel_arg", line: 1, size: 64, align: 64, offset: 64, baseType: !73)
!1224 = !DIDerivedType(tag: DW_TAG_member, file: !3, scope: !1221, name: "__do_it", line: 1, size: 32, align: 32, offset: 128, baseType: !95)
!1225 = !DIDerivedType(tag: DW_TAG_member, file: !3, scope: !1221, name: "__cancel_type", line: 1, size: 32, align: 32, offset: 160, baseType: !95)
!1226 = !{ !1228, !1229, !1230, !1231 }
!1227 = !DICompositeType(tag: DW_TAG_class_type, file: !3, scope: !10, name: "__pthread_cleanup_class", line: 1, size: 192, align: 64, elements: !1226, runtimeLang: DW_LANG_C_plus_plus)
!1228 = !DIDerivedType(tag: DW_TAG_member, file: !3, scope: !1227, name: "__cancel_routine", line: 1, size: 64, align: 64, baseType: !1200)
!1229 = !DIDerivedType(tag: DW_TAG_member, file: !3, scope: !1227, name: "__cancel_arg", line: 1, size: 64, align: 64, offset: 64, baseType: !73)
!1230 = !DIDerivedType(tag: DW_TAG_member, file: !3, scope: !1227, name: "__do_it", line: 1, size: 32, align: 32, offset: 128, baseType: !95)
!1231 = !DIDerivedType(tag: DW_TAG_member, file: !3, scope: !1227, name: "__cancel_type", line: 1, size: 32, align: 32, offset: 160, baseType: !95)
!1232 = !{  }
!1233 = !DICompositeType(tag: DW_TAG_structure_type, file: !3, scope: !10, name: "__jmp_buf_tag", line: 1, align: 8, elements: !1232, runtimeLang: DW_LANG_C_plus_plus)
!1234 = !DIDerivedType(tag: DW_TAG_typedef, file: !3, scope: !10, name: "__gthread_t", line: 1, size: 64, align: 64, baseType: !33)
!1235 = !DIDerivedType(tag: DW_TAG_typedef, file: !3, scope: !10, name: "__gthread_key_t", line: 1, size: 32, align: 32, baseType: !131)
!1236 = !DIDerivedType(tag: DW_TAG_typedef, file: !3, scope: !10, name: "__gthread_once_t", line: 1, size: 32, align: 32, baseType: !95)
!1237 = !DIDerivedType(tag: DW_TAG_typedef, file: !3, scope: !10, name: "__gthread_mutex_t", line: 1, size: 320, align: 64, baseType: !982)
!1238 = !DIDerivedType(tag: DW_TAG_typedef, file: !3, scope: !10, name: "__gthread_recursive_mutex_t", line: 1, size: 320, align: 64, baseType: !982)
!1239 = !DIDerivedType(tag: DW_TAG_typedef, file: !3, scope: !10, name: "__gthread_cond_t", line: 1, size: 384, align: 64, baseType: !991)
!1240 = !DIDerivedType(tag: DW_TAG_typedef, file: !3, scope: !10, name: "__gthread_time_t", line: 1, size: 128, align: 64, baseType: !887)
!1241 = !DIDerivedType(tag: DW_TAG_typedef, file: !3, scope: !10, name: "_Atomic_word", line: 1, size: 32, align: 32, baseType: !95)
!1242 = !{ !1244, !1245 }
!1243 = !DICompositeType(tag: DW_TAG_structure_type, file: !3, scope: !10, name: "_G_fpos_t", line: 1, size: 128, align: 64, elements: !1242, runtimeLang: DW_LANG_C_plus_plus)
!1244 = !DIDerivedType(tag: DW_TAG_member, file: !3, scope: !1243, name: "__pos", line: 1, size: 64, align: 64, baseType: !87)
!1245 = !DIDerivedType(tag: DW_TAG_member, file: !3, scope: !1243, name: "__state", line: 1, size: 64, align: 32, offset: 64, baseType: !1052)
!1246 = !DIDerivedType(tag: DW_TAG_typedef, file: !3, scope: !10, name: "__fpos_t", line: 1, size: 128, align: 64, baseType: !1243)
!1247 = !{ !1249, !1250 }
!1248 = !DICompositeType(tag: DW_TAG_structure_type, file: !3, scope: !10, name: "_G_fpos64_t", line: 1, size: 128, align: 64, elements: !1247, runtimeLang: DW_LANG_C_plus_plus)
!1249 = !DIDerivedType(tag: DW_TAG_member, file: !3, scope: !1248, name: "__pos", line: 1, size: 64, align: 64, baseType: !87)
!1250 = !DIDerivedType(tag: DW_TAG_member, file: !3, scope: !1248, name: "__state", line: 1, size: 64, align: 32, offset: 64, baseType: !1052)
!1251 = !DIDerivedType(tag: DW_TAG_typedef, file: !3, scope: !10, name: "__fpos64_t", line: 1, size: 128, align: 64, baseType: !1248)
!1252 = !DIDerivedType(tag: DW_TAG_typedef, file: !3, scope: !10, name: "_IO_lock_t", line: 1, align: 1, baseType: !72)
!1253 = !{ !87, !73, !35, !33 }
!1254 = !DISubroutineType(types: !1253)
!1255 = !DIDerivedType(tag: DW_TAG_typedef, file: !3, scope: !10, name: "cookie_read_function_t", line: 1, size: 8, align: 1, baseType: !1254)
!1256 = !DIDerivedType(tag: DW_TAG_typedef, file: !3, scope: !10, name: "__ssize_t", line: 1, size: 64, align: 64, baseType: !87)
!1257 = !DIDerivedType(tag: DW_TAG_typedef, file: !3, scope: !10, name: "size_t", line: 1, size: 64, align: 64, baseType: !33)
!1258 = !DIDerivedType(tag: DW_TAG_typedef, file: !3, scope: !10, name: "cookie_write_function_t", line: 1, size: 8, align: 1, baseType: !1254)
!1259 = !DIDerivedType(tag: DW_TAG_typedef, file: !3, scope: !10, name: "__off64_t", line: 1, size: 64, align: 64, baseType: !87)
!1260 = !DIDerivedType(tag: DW_TAG_pointer_type, size: 64, align: 64, baseType: !87)
!1261 = !{ !95, !73, !1260, !95 }
!1262 = !DISubroutineType(types: !1261)
!1263 = !DIDerivedType(tag: DW_TAG_typedef, file: !3, scope: !10, name: "cookie_seek_function_t", line: 1, size: 8, align: 1, baseType: !1262)
!1264 = !{ !95, !73 }
!1265 = !DISubroutineType(types: !1264)
!1266 = !DIDerivedType(tag: DW_TAG_typedef, file: !3, scope: !10, name: "cookie_close_function_t", line: 1, size: 8, align: 1, baseType: !1265)
!1267 = !{ !1270, !1271, !1273, !1275 }
!1268 = !DICompositeType(tag: DW_TAG_structure_type, file: !3, scope: !10, name: "_IO_cookie_io_functions_t", line: 1, size: 256, align: 64, elements: !1267, runtimeLang: DW_LANG_C_plus_plus)
!1269 = !DIDerivedType(tag: DW_TAG_pointer_type, size: 64, align: 64, baseType: !1254)
!1270 = !DIDerivedType(tag: DW_TAG_member, file: !3, scope: !1268, name: "read", line: 1, size: 64, align: 64, baseType: !1269)
!1271 = !DIDerivedType(tag: DW_TAG_member, file: !3, scope: !1268, name: "write", line: 1, size: 64, align: 64, offset: 64, baseType: !1269)
!1272 = !DIDerivedType(tag: DW_TAG_pointer_type, size: 64, align: 64, baseType: !1262)
!1273 = !DIDerivedType(tag: DW_TAG_member, file: !3, scope: !1268, name: "seek", line: 1, size: 64, align: 64, offset: 128, baseType: !1272)
!1274 = !DIDerivedType(tag: DW_TAG_pointer_type, size: 64, align: 64, baseType: !1265)
!1275 = !DIDerivedType(tag: DW_TAG_member, file: !3, scope: !1268, name: "close", line: 1, size: 64, align: 64, offset: 192, baseType: !1274)
!1276 = !DIDerivedType(tag: DW_TAG_typedef, file: !3, scope: !10, name: "cookie_io_functions_t", line: 1, size: 256, align: 64, baseType: !1268)
!1277 = !DIDerivedType(tag: DW_TAG_typedef, file: !3, scope: !10, name: "fpos_t", line: 1, size: 128, align: 64, baseType: !1243)
!1278 = !DIDerivedType(tag: DW_TAG_typedef, file: !3, scope: !10, name: "fpos64_t", line: 1, size: 128, align: 64, baseType: !1248)
!1279 = !{  }
!1280 = !DICompositeType(tag: DW_TAG_structure_type, file: !3, scope: !10, name: "obstack", line: 1, align: 8, elements: !1279, runtimeLang: DW_LANG_C_plus_plus)
!1281 = !DIDerivedType(tag: DW_TAG_typedef, file: !3, scope: !10, name: "error_t", line: 1, size: 32, align: 32, baseType: !95)
!1282 = !DIDerivedType(tag: DW_TAG_typedef, file: !3, scope: !10, name: "wctype_t", line: 1, size: 64, align: 64, baseType: !33)
!1283 = !DIDerivedType(tag: DW_TAG_typedef, file: !3, scope: !10, name: "wctrans_t", line: 1, size: 64, align: 64, baseType: !96)
!1284 = !{ !1286, !1287, !1288, !1289, !1290 }
!1285 = !DICompositeType(tag: DW_TAG_enumeration_type, file: !3, scope: !10, name: "omp_sched_t", line: 1, size: 32, align: 32, elements: !1284, runtimeLang: DW_LANG_C_plus_plus)
!1286 = !DIEnumerator(name: "omp_sched_static", value: 1)
!1287 = !DIEnumerator(name: "omp_sched_dynamic", value: 2)
!1288 = !DIEnumerator(name: "omp_sched_guided", value: 3)
!1289 = !DIEnumerator(name: "omp_sched_auto", value: 4)
!1290 = !DIEnumerator(name: "omp_sched_monotonic", value: 2147483648)
!1291 = !DIDerivedType(tag: DW_TAG_typedef, file: !3, scope: !10, name: "omp_sched_t", line: 1, size: 32, align: 32, baseType: !1285)
!1292 = !{ !1295 }
!1293 = !DICompositeType(tag: DW_TAG_structure_type, file: !3, scope: !10, name: "omp_lock_stub", line: 1, size: 128, align: 64, elements: !1292, runtimeLang: DW_LANG_C_plus_plus)
!1294 = !DICompositeType(tag: DW_TAG_array_type, size: 128, align: 64, baseType: !73, elements: !842)
!1295 = !DIDerivedType(tag: DW_TAG_member, file: !3, scope: !1293, name: "impl", line: 1, size: 128, align: 64, baseType: !1294)
!1296 = !DIDerivedType(tag: DW_TAG_typedef, file: !3, scope: !10, name: "omp_lock_t", line: 1, size: 128, align: 64, baseType: !1293)
!1297 = !{ !1299 }
!1298 = !DICompositeType(tag: DW_TAG_structure_type, file: !3, scope: !10, name: "omp_nest_lock_stub", line: 1, size: 256, align: 64, elements: !1297, runtimeLang: DW_LANG_C_plus_plus)
!1299 = !DIDerivedType(tag: DW_TAG_member, file: !3, scope: !1298, name: "impl", line: 1, size: 256, align: 64, baseType: !1218)
!1300 = !DIDerivedType(tag: DW_TAG_typedef, file: !3, scope: !10, name: "omp_nest_lock_t", line: 1, size: 256, align: 64, baseType: !1298)
!1301 = !{ !1303, !1304, !1305, !1306, !1307 }
!1302 = !DICompositeType(tag: DW_TAG_enumeration_type, file: !3, scope: !10, name: "omp_proc_bind_t", line: 1, size: 32, align: 32, elements: !1301, runtimeLang: DW_LANG_C_plus_plus)
!1303 = !DIEnumerator(name: "omp_proc_bind_false", value: 0)
!1304 = !DIEnumerator(name: "omp_proc_bind_true", value: 1)
!1305 = !DIEnumerator(name: "omp_proc_bind_master", value: 2)
!1306 = !DIEnumerator(name: "omp_proc_bind_close", value: 3)
!1307 = !DIEnumerator(name: "omp_proc_bind_spread", value: 4)
!1308 = !DIDerivedType(tag: DW_TAG_typedef, file: !3, scope: !10, name: "omp_proc_bind_t", line: 1, size: 32, align: 32, baseType: !1302)
!1309 = !{ !1311, !1312 }
!1310 = !DICompositeType(tag: DW_TAG_enumeration_type, file: !3, scope: !10, name: "omp_pause_resource_t", line: 1, size: 32, align: 32, elements: !1309, runtimeLang: DW_LANG_C_plus_plus)
!1311 = !DIEnumerator(name: "omp_pause_soft", value: 1)
!1312 = !DIEnumerator(name: "omp_pause_hard", value: 2)
!1313 = !DIDerivedType(tag: DW_TAG_typedef, file: !3, scope: !10, name: "omp_pause_resource_t", line: 1, size: 32, align: 32, baseType: !1310)
!1314 = !{ !1316, !1317, !1318, !1319, !1320, !1321, !1322, !1323, !1324, !1325 }
!1315 = !DICompositeType(tag: DW_TAG_enumeration_type, file: !3, scope: !10, name: "omp_sync_hint_t", line: 1, size: 32, align: 32, elements: !1314, runtimeLang: DW_LANG_C_plus_plus)
!1316 = !DIEnumerator(name: "omp_sync_hint_none", value: 0)
!1317 = !DIEnumerator(name: "omp_lock_hint_none", value: 0)
!1318 = !DIEnumerator(name: "omp_sync_hint_uncontended", value: 1)
!1319 = !DIEnumerator(name: "omp_lock_hint_uncontended", value: 1)
!1320 = !DIEnumerator(name: "omp_sync_hint_contended", value: 2)
!1321 = !DIEnumerator(name: "omp_lock_hint_contended", value: 2)
!1322 = !DIEnumerator(name: "omp_sync_hint_nonspeculative", value: 4)
!1323 = !DIEnumerator(name: "omp_lock_hint_nonspeculative", value: 4)
!1324 = !DIEnumerator(name: "omp_sync_hint_speculative", value: 8)
!1325 = !DIEnumerator(name: "omp_lock_hint_speculative", value: 8)
!1326 = !DIDerivedType(tag: DW_TAG_typedef, file: !3, scope: !10, name: "omp_sync_hint_t", line: 1, size: 32, align: 32, baseType: !1315)
!1327 = !DIDerivedType(tag: DW_TAG_typedef, file: !3, scope: !10, name: "omp_depend_t", line: 1, size: 32, align: 32, baseType: !95)
!1328 = !DIDerivedType(tag: DW_TAG_typedef, file: !3, scope: !10, name: "omp_uintptr_t", line: 1, size: 64, align: 64, baseType: !33)
!1329 = !{ !1331, !1332 }
!1330 = !DICompositeType(tag: DW_TAG_enumeration_type, file: !3, scope: !10, name: "omp_event_handle_t", line: 1, size: 32, align: 32, elements: !1329, runtimeLang: DW_LANG_C_plus_plus)
!1331 = !DIEnumerator(name: "omp_allow_completion_event", value: 0)
!1332 = !DIEnumerator(name: "omp_task_fullfill_event", value: 1)
!1333 = !DIDerivedType(tag: DW_TAG_typedef, file: !3, scope: !10, name: "omp_event_handle_t", line: 1, size: 32, align: 32, baseType: !1330)
!1334 = !{ !1336, !1337, !1338, !1339, !1340, !1341, !1342, !1343 }
!1335 = !DICompositeType(tag: DW_TAG_enumeration_type, file: !3, scope: !10, name: "omp_alloctrait_key_t", line: 1, size: 32, align: 32, elements: !1334, runtimeLang: DW_LANG_C_plus_plus)
!1336 = !DIEnumerator(name: "omp_atk_sync_hint", value: 1)
!1337 = !DIEnumerator(name: "omp_atk_alignment", value: 2)
!1338 = !DIEnumerator(name: "omp_atk_access", value: 3)
!1339 = !DIEnumerator(name: "omp_atk_pool_size", value: 4)
!1340 = !DIEnumerator(name: "omp_atk_fallback", value: 5)
!1341 = !DIEnumerator(name: "omp_atk_fb_data", value: 6)
!1342 = !DIEnumerator(name: "omp_atk_pinned", value: 7)
!1343 = !DIEnumerator(name: "omp_atk_partition", value: 8)
!1344 = !DIDerivedType(tag: DW_TAG_typedef, file: !3, scope: !10, name: "omp_alloctrait_key_t", line: 1, size: 32, align: 32, baseType: !1335)
!1345 = !{ !1347, !1348, !1349, !1350, !1351, !1352, !1353, !1354, !1355, !1356, !1357, !1358, !1359, !1360, !1361, !1362, !1363, !1364, !1365 }
!1346 = !DICompositeType(tag: DW_TAG_enumeration_type, file: !3, scope: !10, name: "omp_alloctrait_value_t", line: 1, size: 32, align: 32, elements: !1345, runtimeLang: DW_LANG_C_plus_plus)
!1347 = !DIEnumerator(name: "omp_atv_false", value: 0)
!1348 = !DIEnumerator(name: "omp_atv_true", value: 1)
!1349 = !DIEnumerator(name: "omp_atv_default", value: 2)
!1350 = !DIEnumerator(name: "omp_atv_contended", value: 3)
!1351 = !DIEnumerator(name: "omp_atv_uncontended", value: 4)
!1352 = !DIEnumerator(name: "omp_atv_sequential", value: 5)
!1353 = !DIEnumerator(name: "omp_atv_private", value: 6)
!1354 = !DIEnumerator(name: "omp_atv_all", value: 7)
!1355 = !DIEnumerator(name: "omp_atv_thread", value: 8)
!1356 = !DIEnumerator(name: "omp_atv_pteam", value: 9)
!1357 = !DIEnumerator(name: "omp_atv_cgroup", value: 10)
!1358 = !DIEnumerator(name: "omp_atv_default_mem_fb", value: 11)
!1359 = !DIEnumerator(name: "omp_atv_null_fb", value: 12)
!1360 = !DIEnumerator(name: "omp_atv_abort_fb", value: 13)
!1361 = !DIEnumerator(name: "omp_atv_allocator_fb", value: 14)
!1362 = !DIEnumerator(name: "omp_atv_environment", value: 15)
!1363 = !DIEnumerator(name: "omp_atv_nearest", value: 16)
!1364 = !DIEnumerator(name: "omp_atv_blocked", value: 17)
!1365 = !DIEnumerator(name: "omp_atv_interleaved", value: 18)
!1366 = !{ !1368, !1369 }
!1367 = !DICompositeType(tag: DW_TAG_structure_type, file: !3, scope: !10, name: "omp_alloctrait_t", line: 1, size: 128, align: 64, elements: !1366, runtimeLang: DW_LANG_C_plus_plus)
!1368 = !DIDerivedType(tag: DW_TAG_member, file: !3, scope: !1367, name: "key", line: 1, size: 32, align: 32, baseType: !1335)
!1369 = !DIDerivedType(tag: DW_TAG_member, file: !3, scope: !1367, name: "value", line: 1, size: 64, align: 64, offset: 64, baseType: !33)
!1370 = !DIDerivedType(tag: DW_TAG_typedef, file: !3, scope: !10, name: "omp_alloctrait_t", line: 1, size: 128, align: 64, baseType: !1367)
!1371 = !{ !1373, !1374, !1375, !1376, !1377 }
!1372 = !DICompositeType(tag: DW_TAG_enumeration_type, file: !3, scope: !10, name: "omp_memspace_handle_t", line: 1, size: 32, align: 32, elements: !1371, runtimeLang: DW_LANG_C_plus_plus)
!1373 = !DIEnumerator(name: "omp_default_mem_space", value: 0)
!1374 = !DIEnumerator(name: "omp_large_cap_mem_space", value: 0)
!1375 = !DIEnumerator(name: "omp_const_mem_space", value: 0)
!1376 = !DIEnumerator(name: "omp_high_bw_mem_space", value: 0)
!1377 = !DIEnumerator(name: "omp_low_lat_mem_space", value: 0)
!1378 = !DIDerivedType(tag: DW_TAG_typedef, file: !3, scope: !10, name: "omp_memspace_handle_t", line: 1, size: 32, align: 32, baseType: !1372)
!1379 = !{ !1381, !1382, !1383, !1384, !1385, !1386, !1387, !1388, !1389 }
!1380 = !DICompositeType(tag: DW_TAG_enumeration_type, file: !3, scope: !10, name: "omp_allocator_handle_t", line: 1, size: 32, align: 32, elements: !1379, runtimeLang: DW_LANG_C_plus_plus)
!1381 = !DIEnumerator(name: "omp_null_allocator", value: 0)
!1382 = !DIEnumerator(name: "omp_default_mem_alloc", value: 1)
!1383 = !DIEnumerator(name: "omp_large_cap_mem_alloc", value: 1)
!1384 = !DIEnumerator(name: "omp_const_mem_alloc", value: 1)
!1385 = !DIEnumerator(name: "omp_high_bw_mem_alloc", value: 1)
!1386 = !DIEnumerator(name: "omp_low_lat_mem_alloc", value: 1)
!1387 = !DIEnumerator(name: "omp_thread_mem_alloc", value: 8)
!1388 = !DIEnumerator(name: "omp_pteam_mem_alloc", value: 9)
!1389 = !DIEnumerator(name: "omp_cgroup_mem_alloc", value: 10)
!1390 = !DIDerivedType(tag: DW_TAG_typedef, file: !3, scope: !10, name: "omp_allocator_handle_t", line: 1, size: 32, align: 32, baseType: !1380)
!1391 = !DIDerivedType(tag: DW_TAG_typedef, file: !3, scope: !10, name: "cuint", line: 1, size: 32, align: 32, baseType: !131)
!1392 = !DIDerivedType(tag: DW_TAG_typedef, file: !3, scope: !10, name: "Realf", line: 1, size: 32, align: 32, baseType: !780)
!1393 = !DIDerivedType(tag: DW_TAG_typedef, file: !3, scope: !10, name: "__traits", line: 1, size: 8, align: 8, baseType: !484)
!1394 = !DIDerivedType(tag: DW_TAG_typedef, file: !3, scope: !10, name: "__pocca", line: 1, size: 8, align: 8, baseType: !412)
!1395 = !{ !1397 }
!1396 = !DICompositeType(tag: DW_TAG_structure_type, file: !3, scope: !10, name: "_Save_errno", line: 1, size: 32, align: 32, elements: !1395, runtimeLang: DW_LANG_C_plus_plus)
!1397 = !DIDerivedType(tag: DW_TAG_member, file: !3, scope: !1396, name: "_M_errno", line: 1, size: 32, align: 32, baseType: !95)
!1398 = !{  }
!1399 = !DICompositeType(tag: DW_TAG_structure_type, file: !3, scope: !10, name: "_Range_chk", line: 1, size: 8, align: 8, elements: !1398, runtimeLang: DW_LANG_C_plus_plus)
!1400 = !{ !1402 }
!1401 = !DICompositeType(tag: DW_TAG_structure_type, file: !3, scope: !10, name: "_Save_errno", line: 1, size: 32, align: 32, elements: !1400, runtimeLang: DW_LANG_C_plus_plus)
!1402 = !DIDerivedType(tag: DW_TAG_member, file: !3, scope: !1401, name: "_M_errno", line: 1, size: 32, align: 32, baseType: !95)
!1403 = !{  }
!1404 = !DICompositeType(tag: DW_TAG_structure_type, file: !3, scope: !10, name: "_Range_chk", line: 1, size: 8, align: 8, elements: !1403, runtimeLang: DW_LANG_C_plus_plus)
!1405 = !{ !1407 }
!1406 = !DICompositeType(tag: DW_TAG_structure_type, file: !3, scope: !10, name: "_Save_errno", line: 1, size: 32, align: 32, elements: !1405, runtimeLang: DW_LANG_C_plus_plus)
!1407 = !DIDerivedType(tag: DW_TAG_member, file: !3, scope: !1406, name: "_M_errno", line: 1, size: 32, align: 32, baseType: !95)
!1408 = !{  }
!1409 = !DICompositeType(tag: DW_TAG_structure_type, file: !3, scope: !10, name: "_Range_chk", line: 1, size: 8, align: 8, elements: !1408, runtimeLang: DW_LANG_C_plus_plus)
!1410 = !{ !1412 }
!1411 = !DICompositeType(tag: DW_TAG_structure_type, file: !3, scope: !10, name: "_Save_errno", line: 1, size: 32, align: 32, elements: !1410, runtimeLang: DW_LANG_C_plus_plus)
!1412 = !DIDerivedType(tag: DW_TAG_member, file: !3, scope: !1411, name: "_M_errno", line: 1, size: 32, align: 32, baseType: !95)
!1413 = !{  }
!1414 = !DICompositeType(tag: DW_TAG_structure_type, file: !3, scope: !10, name: "_Range_chk", line: 1, size: 8, align: 8, elements: !1413, runtimeLang: DW_LANG_C_plus_plus)
!1415 = !{ !1417 }
!1416 = !DICompositeType(tag: DW_TAG_structure_type, file: !3, scope: !10, name: "_Save_errno", line: 1, size: 32, align: 32, elements: !1415, runtimeLang: DW_LANG_C_plus_plus)
!1417 = !DIDerivedType(tag: DW_TAG_member, file: !3, scope: !1416, name: "_M_errno", line: 1, size: 32, align: 32, baseType: !95)
!1418 = !{  }
!1419 = !DICompositeType(tag: DW_TAG_structure_type, file: !3, scope: !10, name: "_Range_chk", line: 1, size: 8, align: 8, elements: !1418, runtimeLang: DW_LANG_C_plus_plus)
!1420 = !{ !1422 }
!1421 = !DICompositeType(tag: DW_TAG_structure_type, file: !3, scope: !10, name: "_Save_errno", line: 1, size: 32, align: 32, elements: !1420, runtimeLang: DW_LANG_C_plus_plus)
!1422 = !DIDerivedType(tag: DW_TAG_member, file: !3, scope: !1421, name: "_M_errno", line: 1, size: 32, align: 32, baseType: !95)
!1423 = !{  }
!1424 = !DICompositeType(tag: DW_TAG_structure_type, file: !3, scope: !10, name: "_Range_chk", line: 1, size: 8, align: 8, elements: !1423, runtimeLang: DW_LANG_C_plus_plus)
!1425 = !{ !1427 }
!1426 = !DICompositeType(tag: DW_TAG_structure_type, file: !3, scope: !10, name: "_Save_errno", line: 1, size: 32, align: 32, elements: !1425, runtimeLang: DW_LANG_C_plus_plus)
!1427 = !DIDerivedType(tag: DW_TAG_member, file: !3, scope: !1426, name: "_M_errno", line: 1, size: 32, align: 32, baseType: !95)
!1428 = !{  }
!1429 = !DICompositeType(tag: DW_TAG_structure_type, file: !3, scope: !10, name: "_Range_chk", line: 1, size: 8, align: 8, elements: !1428, runtimeLang: DW_LANG_C_plus_plus)
!1430 = !{ !1432 }
!1431 = !DICompositeType(tag: DW_TAG_structure_type, file: !3, scope: !10, name: "_Save_errno", line: 1, size: 32, align: 32, elements: !1430, runtimeLang: DW_LANG_C_plus_plus)
!1432 = !DIDerivedType(tag: DW_TAG_member, file: !3, scope: !1431, name: "_M_errno", line: 1, size: 32, align: 32, baseType: !95)
!1433 = !{  }
!1434 = !DICompositeType(tag: DW_TAG_structure_type, file: !3, scope: !10, name: "_Range_chk", line: 1, size: 8, align: 8, elements: !1433, runtimeLang: DW_LANG_C_plus_plus)
!1435 = !{ !1437 }
!1436 = !DICompositeType(tag: DW_TAG_structure_type, file: !3, scope: !10, name: "_Save_errno", line: 1, size: 32, align: 32, elements: !1435, runtimeLang: DW_LANG_C_plus_plus)
!1437 = !DIDerivedType(tag: DW_TAG_member, file: !3, scope: !1436, name: "_M_errno", line: 1, size: 32, align: 32, baseType: !95)
!1438 = !{  }
!1439 = !DICompositeType(tag: DW_TAG_structure_type, file: !3, scope: !10, name: "_Range_chk", line: 1, size: 8, align: 8, elements: !1438, runtimeLang: DW_LANG_C_plus_plus)
!1440 = !{ !1442 }
!1441 = !DICompositeType(tag: DW_TAG_structure_type, file: !3, scope: !10, name: "_Save_errno", line: 1, size: 32, align: 32, elements: !1440, runtimeLang: DW_LANG_C_plus_plus)
!1442 = !DIDerivedType(tag: DW_TAG_member, file: !3, scope: !1441, name: "_M_errno", line: 1, size: 32, align: 32, baseType: !95)
!1443 = !{  }
!1444 = !DICompositeType(tag: DW_TAG_structure_type, file: !3, scope: !10, name: "_Range_chk", line: 1, size: 8, align: 8, elements: !1443, runtimeLang: DW_LANG_C_plus_plus)
!1445 = !{ !1447 }
!1446 = !DICompositeType(tag: DW_TAG_structure_type, file: !3, scope: !10, name: "_Save_errno", line: 1, size: 32, align: 32, elements: !1445, runtimeLang: DW_LANG_C_plus_plus)
!1447 = !DIDerivedType(tag: DW_TAG_member, file: !3, scope: !1446, name: "_M_errno", line: 1, size: 32, align: 32, baseType: !95)
!1448 = !{  }
!1449 = !DICompositeType(tag: DW_TAG_structure_type, file: !3, scope: !10, name: "_Range_chk", line: 1, size: 8, align: 8, elements: !1448, runtimeLang: DW_LANG_C_plus_plus)
!1450 = !{ !1452 }
!1451 = !DICompositeType(tag: DW_TAG_structure_type, file: !3, scope: !10, name: "_Save_errno", line: 1, size: 32, align: 32, elements: !1450, runtimeLang: DW_LANG_C_plus_plus)
!1452 = !DIDerivedType(tag: DW_TAG_member, file: !3, scope: !1451, name: "_M_errno", line: 1, size: 32, align: 32, baseType: !95)
!1453 = !{  }
!1454 = !DICompositeType(tag: DW_TAG_structure_type, file: !3, scope: !10, name: "_Range_chk", line: 1, size: 8, align: 8, elements: !1453, runtimeLang: DW_LANG_C_plus_plus)
!1455 = !{ !1457 }
!1456 = !DICompositeType(tag: DW_TAG_structure_type, file: !3, scope: !10, name: "_Save_errno", line: 1, size: 32, align: 32, elements: !1455, runtimeLang: DW_LANG_C_plus_plus)
!1457 = !DIDerivedType(tag: DW_TAG_member, file: !3, scope: !1456, name: "_M_errno", line: 1, size: 32, align: 32, baseType: !95)
!1458 = !{  }
!1459 = !DICompositeType(tag: DW_TAG_structure_type, file: !3, scope: !10, name: "_Range_chk", line: 1, size: 8, align: 8, elements: !1458, runtimeLang: DW_LANG_C_plus_plus)
!1460 = !{ !1462 }
!1461 = !DICompositeType(tag: DW_TAG_structure_type, file: !3, scope: !10, name: "_Save_errno", line: 1, size: 32, align: 32, elements: !1460, runtimeLang: DW_LANG_C_plus_plus)
!1462 = !DIDerivedType(tag: DW_TAG_member, file: !3, scope: !1461, name: "_M_errno", line: 1, size: 32, align: 32, baseType: !95)
!1463 = !{  }
!1464 = !DICompositeType(tag: DW_TAG_structure_type, file: !3, scope: !10, name: "_Range_chk", line: 1, size: 8, align: 8, elements: !1463, runtimeLang: DW_LANG_C_plus_plus)
!1465 = !{ !1467 }
!1466 = !DICompositeType(tag: DW_TAG_structure_type, file: !3, scope: !10, name: "_Save_errno", line: 1, size: 32, align: 32, elements: !1465, runtimeLang: DW_LANG_C_plus_plus)
!1467 = !DIDerivedType(tag: DW_TAG_member, file: !3, scope: !1466, name: "_M_errno", line: 1, size: 32, align: 32, baseType: !95)
!1468 = !{  }
!1469 = !DICompositeType(tag: DW_TAG_structure_type, file: !3, scope: !10, name: "_Range_chk", line: 1, size: 8, align: 8, elements: !1468, runtimeLang: DW_LANG_C_plus_plus)
!1470 = !{ !1472 }
!1471 = !DICompositeType(tag: DW_TAG_structure_type, file: !3, scope: !10, name: "_Save_errno", line: 1, size: 32, align: 32, elements: !1470, runtimeLang: DW_LANG_C_plus_plus)
!1472 = !DIDerivedType(tag: DW_TAG_member, file: !3, scope: !1471, name: "_M_errno", line: 1, size: 32, align: 32, baseType: !95)
!1473 = !{  }
!1474 = !DICompositeType(tag: DW_TAG_structure_type, file: !3, scope: !10, name: "_Range_chk", line: 1, size: 8, align: 8, elements: !1473, runtimeLang: DW_LANG_C_plus_plus)
!1475 = !DIDerivedType(tag: DW_TAG_typedef, file: !3, scope: !10, name: "_Tag", line: 1, size: 8, align: 8, baseType: !474)
!1476 = !DIDerivedType(tag: DW_TAG_typedef, file: !3, scope: !10, name: "_Integral", line: 1, size: 8, align: 8, baseType: !457)
!1477 = !DIDerivedType(tag: DW_TAG_typedef, file: !3, scope: !10, name: "Real", line: 1, size: 64, align: 64, baseType: !712)
!1478 = !{  }
!1479 = !DICompositeType(tag: DW_TAG_structure_type, file: !3, scope: !10, name: "_Iter_less_iter", line: 1, size: 8, align: 8, elements: !1478, runtimeLang: DW_LANG_C_plus_plus)
!1480 = !{  }
!1481 = !DICompositeType(tag: DW_TAG_structure_type, file: !3, scope: !10, name: "_Iter_less_val", line: 1, size: 8, align: 8, elements: !1480, runtimeLang: DW_LANG_C_plus_plus)
!1482 = !{  }
!1483 = !DICompositeType(tag: DW_TAG_structure_type, file: !3, scope: !10, name: "_Val_less_iter", line: 1, size: 8, align: 8, elements: !1482, runtimeLang: DW_LANG_C_plus_plus)
!1484 = !{  }
!1485 = !DICompositeType(tag: DW_TAG_structure_type, file: !3, scope: !10, name: "_Iter_equal_to_iter", line: 1, size: 8, align: 8, elements: !1484, runtimeLang: DW_LANG_C_plus_plus)
!1486 = !{  }
!1487 = !DICompositeType(tag: DW_TAG_structure_type, file: !3, scope: !10, name: "_Iter_equal_to_val", line: 1, size: 8, align: 8, elements: !1486, runtimeLang: DW_LANG_C_plus_plus)
!1488 = !DIDerivedType(tag: DW_TAG_typedef, file: !3, scope: !10, name: "GlobalID", line: 1, size: 32, align: 32, baseType: !131)
!1489 = !DIDerivedType(tag: DW_TAG_typedef, file: !3, scope: !10, name: "LocalID", line: 1, size: 32, align: 32, baseType: !131)
!1490 = !DIFile(filename: "/usr/include/c++/9/bits/char_traits.h", directory: "/home/talgat/vlasiator")
; !1491 = !DIFile(tag: DW_TAG_file_type, pair: !1490)
!1491 = !{ i32 41, !1490 }
!1492 = !DIDerivedType(tag: DW_TAG_reference_type, size: 64, align: 64, baseType: !18)
!1493 = !{ null, !1492, !1492 }
!1494 = !DISubroutineType(types: !1493)
!1495 = !{ !1502, !1504 }
!1496 = distinct !DISubprogram(file: !1490, scope: !28, name: "assign", line: 300, type: !1494, spFlags: 8, unit: !10, scopeLine: 300)
!1497 = !DILocation(scope: !1496)
!1498 = !DILexicalBlock(file: !1490, scope: !1496, line: 300, column: 1)
!1499 = !DILocation(scope: !1498)
!1500 = !DILocalVariable(scope: !1498, name: "__c1", file: !1490, type: !1492)
!1501 = !DIExpression()
!1502 = !DILocalVariable(scope: !1496, name: "__c1", arg: 1, file: !1490, type: !1492)
!1503 = !DILocalVariable(scope: !1498, name: "__c2", file: !1490, type: !1492)
!1504 = !DILocalVariable(scope: !1496, name: "__c2", arg: 2, file: !1490, type: !1492)
!1505 = !DILocation(line: 300, column: 1, scope: !1498)
!1506 = !{ !"PGI C[++] TBAA" }
!1507 = !{ !"omnipotent char", !1506, i64 0 }
!1508 = !{ !"<T>*", !1507, i64 0 }
!1509 = !{ !1507, !1507, i64 0 }
!1510 = !DIFile(filename: "/usr/include/c++/9/bits/allocator.h", directory: "/home/talgat/vlasiator")
; !1511 = !DIFile(tag: DW_TAG_file_type, pair: !1510)
!1511 = !{ i32 41, !1510 }
!1512 = !DIDerivedType(tag: DW_TAG_pointer_type, size: 64, align: 64, baseType: !16)
!1513 = !{ !1515 }
!1514 = !DICompositeType(tag: DW_TAG_structure_type, file: !1510, name: "_ZSaIcE", size: 8, align: 8, elements: !1513)
!1515 = !DIDerivedType(tag: DW_TAG_member, file: !1510, scope: !1514, size: 8, align: 8, baseType: !20)
!1516 = !DIDerivedType(tag: DW_TAG_reference_type, size: 64, align: 64, baseType: !1514)
!1517 = !{ null, !1512, !1516 }
!1518 = !DISubroutineType(types: !1517)
!1519 = !{ !1525, !1527 }
!1520 = distinct !DISubprogram(file: !1510, scope: !1514, name: "allocator", line: 142, type: !1518, spFlags: 8, unit: !10, scopeLine: 142)
!1521 = !DILocation(scope: !1520)
!1522 = !DILexicalBlock(file: !1510, scope: !1520, line: 142, column: 1)
!1523 = !DILocation(scope: !1522)
!1524 = !DILocalVariable(scope: !1522, file: !1510, type: !1512, flags: 64)
!1525 = !DILocalVariable(scope: !1520, arg: 1, file: !1510, type: !1512, flags: 64)
!1526 = !DILocalVariable(scope: !1522, name: "__a", file: !1510, type: !1516)
!1527 = !DILocalVariable(scope: !1520, name: "__a", arg: 2, file: !1510, type: !1516)
!1528 = !DILocation(line: 142, column: 1, scope: !1522)
!1529 = !{  }
!1530 = distinct !DISubprogram(file: !3, scope: !10, name: "_ZNSaIcEC2ERKS_", type: !1518, spFlags: 8, unit: !10)
!1531 = !DILocation(scope: !1530)
!1532 = !DILexicalBlock(file: !3, scope: !1530, line: 1, column: 1)
!1533 = !DILocation(scope: !1532)
!1534 = !DILexicalBlock(file: !3, scope: !1532, line: 1, column: 1)
!1535 = !DILocation(scope: !1534)
!1536 = !DILexicalBlock(file: !3, scope: !1532, line: 1, column: 1)
!1537 = !DILocation(scope: !1536)
!1538 = !DILocation(line: 142, column: 1, scope: !1532)
!1539 = !DIFile(filename: "/usr/include/c++/9/bits/alloc_traits.h", directory: "/home/talgat/vlasiator")
; !1540 = !DIFile(tag: DW_TAG_file_type, pair: !1539)
!1540 = !{ i32 41, !1539 }
!1541 = !{ !1543 }
!1542 = !DICompositeType(tag: DW_TAG_structure_type, file: !1539, name: "_ZSaIcE", size: 8, align: 8, elements: !1541)
!1543 = !DIDerivedType(tag: DW_TAG_member, file: !1539, scope: !1542, size: 8, align: 8, baseType: !20)
!1544 = !DIDerivedType(tag: DW_TAG_reference_type, size: 64, align: 64, baseType: !1542)
!1545 = !{ !35, !1544, !33 }
!1546 = !DISubroutineType(types: !1545)
!1547 = !{ !1561, !1563 }
!1548 = distinct !DISubprogram(file: !1539, scope: !484, name: "allocate", line: 444, type: !1546, spFlags: 8, unit: !10, scopeLine: 444)
!1549 = !DILocation(scope: !1548)
!1550 = !DILexicalBlock(file: !1539, scope: !1548, line: 444, column: 1)
!1551 = !DILocation(scope: !1550)
!1552 = !DILexicalBlock(file: !1539, scope: !1550, line: 1, column: 1)
!1553 = !DILocation(scope: !1552)
!1554 = !DILexicalBlock(file: !1539, scope: !1552, line: 1, column: 1)
!1555 = !DILocation(scope: !1554)
!1556 = !DILexicalBlock(file: !1539, scope: !1550, line: 1, column: 1)
!1557 = !DILocation(scope: !1556)
!1558 = !DILexicalBlock(file: !1539, scope: !1556, line: 1, column: 1)
!1559 = !DILocation(scope: !1558)
!1560 = !DILocalVariable(scope: !1550, name: "__a", file: !1539, type: !1544)
!1561 = !DILocalVariable(scope: !1548, name: "__a", arg: 1, file: !1539, type: !1544)
!1562 = !DILocalVariable(scope: !1550, name: "__n", file: !1539, type: !33)
!1563 = !DILocalVariable(scope: !1548, name: "__n", arg: 2, file: !1539, type: !33)
!1564 = !DILocation(line: 444, column: 1, scope: !1550)
!1565 = !DILocation(line: 104, column: 1, scope: !1550)
!1566 = !DILocation(line: 105, column: 1, scope: !1550)
!1567 = !DILocation(line: 115, column: 1, scope: !1550)
!1568 = !{ !"long", !1507, i64 0 }
!1569 = !{ !1568, !1568, i64 0 }
!1570 = !{ null, !1544, !35, !33 }
!1571 = !DISubroutineType(types: !1570)
!1572 = !{ !1582, !1584, !1586 }
!1573 = distinct !DISubprogram(file: !1539, scope: !484, name: "deallocate", line: 470, type: !1571, spFlags: 8, unit: !10, scopeLine: 470)
!1574 = !DILocation(scope: !1573)
!1575 = !DILexicalBlock(file: !1539, scope: !1573, line: 470, column: 1)
!1576 = !DILocation(scope: !1575)
!1577 = !DILexicalBlock(file: !1539, scope: !1575, line: 1, column: 1)
!1578 = !DILocation(scope: !1577)
!1579 = !DILexicalBlock(file: !1539, scope: !1575, line: 1, column: 1)
!1580 = !DILocation(scope: !1579)
!1581 = !DILocalVariable(scope: !1575, name: "__a", file: !1539, type: !1544)
!1582 = !DILocalVariable(scope: !1573, name: "__a", arg: 1, file: !1539, type: !1544)
!1583 = !DILocalVariable(scope: !1575, name: "__p", file: !1539, type: !35)
!1584 = !DILocalVariable(scope: !1573, name: "__p", arg: 2, file: !1539, type: !35)
!1585 = !DILocalVariable(scope: !1575, name: "__n", file: !1539, type: !33)
!1586 = !DILocalVariable(scope: !1573, name: "__n", arg: 3, file: !1539, type: !33)
!1587 = !DILocation(line: 470, column: 1, scope: !1575)
!1588 = !DILocation(line: 128, column: 1, scope: !1575)
!1589 = !DIFile(filename: "/usr/include/c++/9/bits/ptr_traits.h", directory: "/home/talgat/vlasiator")
; !1590 = !DIFile(tag: DW_TAG_file_type, pair: !1589)
!1590 = !{ i32 41, !1589 }
!1591 = !{ !35, !1492 }
!1592 = !DISubroutineType(types: !1591)
!1593 = !{ !1607 }
!1594 = distinct !DISubprogram(file: !1589, scope: !679, name: "pointer_to", line: 147, type: !1592, spFlags: 8, unit: !10, scopeLine: 147)
!1595 = !DILocation(scope: !1594)
!1596 = !DILexicalBlock(file: !1589, scope: !1594, line: 147, column: 1)
!1597 = !DILocation(scope: !1596)
!1598 = !DILexicalBlock(file: !1589, scope: !1596, line: 1, column: 1)
!1599 = !DILocation(scope: !1598)
!1600 = !DILexicalBlock(file: !1589, scope: !1598, line: 1, column: 1)
!1601 = !DILocation(scope: !1600)
!1602 = !DILexicalBlock(file: !1589, scope: !1596, line: 1, column: 1)
!1603 = !DILocation(scope: !1602)
!1604 = !DILexicalBlock(file: !1589, scope: !1602, line: 1, column: 1)
!1605 = !DILocation(scope: !1604)
!1606 = !DILocalVariable(scope: !1596, name: "__r", file: !1589, type: !1492)
!1607 = !DILocalVariable(scope: !1594, name: "__r", arg: 1, file: !1589, type: !1492)
!1608 = !DILocation(line: 147, column: 1, scope: !1596)
!1609 = !{ !1623 }
!1610 = distinct !DISubprogram(file: !1589, scope: !689, name: "pointer_to", line: 147, type: !1592, spFlags: 8, unit: !10, scopeLine: 147)
!1611 = !DILocation(scope: !1610)
!1612 = !DILexicalBlock(file: !1589, scope: !1610, line: 147, column: 1)
!1613 = !DILocation(scope: !1612)
!1614 = !DILexicalBlock(file: !1589, scope: !1612, line: 1, column: 1)
!1615 = !DILocation(scope: !1614)
!1616 = !DILexicalBlock(file: !1589, scope: !1614, line: 1, column: 1)
!1617 = !DILocation(scope: !1616)
!1618 = !DILexicalBlock(file: !1589, scope: !1612, line: 1, column: 1)
!1619 = !DILocation(scope: !1618)
!1620 = !DILexicalBlock(file: !1589, scope: !1618, line: 1, column: 1)
!1621 = !DILocation(scope: !1620)
!1622 = !DILocalVariable(scope: !1612, name: "__r", file: !1589, type: !1492)
!1623 = !DILocalVariable(scope: !1610, name: "__r", arg: 1, file: !1589, type: !1492)
!1624 = !DILocation(line: 147, column: 1, scope: !1612)
!1625 = !DIFile(filename: "/usr/include/c++/9/bits/basic_string.h", directory: "/home/talgat/vlasiator")
; !1626 = !DIFile(tag: DW_TAG_file_type, pair: !1625)
!1626 = !{ i32 41, !1625 }
!1627 = !DIDerivedType(tag: DW_TAG_pointer_type, size: 64, align: 64, baseType: !14)
!1628 = !{ null, !1627, !35 }
!1629 = !DISubroutineType(types: !1628)
!1630 = !{ !1636, !1638 }
!1631 = distinct !DISubprogram(file: !1625, scope: !14, name: "_M_data", line: 179, type: !1629, spFlags: 8, unit: !10, scopeLine: 179)
!1632 = !DILocation(scope: !1631)
!1633 = !DILexicalBlock(file: !1625, scope: !1631, line: 179, column: 1)
!1634 = !DILocation(scope: !1633)
!1635 = !DILocalVariable(scope: !1633, file: !1625, type: !1627, flags: 64)
!1636 = !DILocalVariable(scope: !1631, arg: 1, file: !1625, type: !1627, flags: 64)
!1637 = !DILocalVariable(scope: !1633, name: "__p", file: !1625, type: !35)
!1638 = !DILocalVariable(scope: !1631, name: "__p", arg: 2, file: !1625, type: !35)
!1639 = !DILocation(line: 179, column: 1, scope: !1633)
!1640 = !{ null, !1627, !33 }
!1641 = !DISubroutineType(types: !1640)
!1642 = !{ !1648, !1650 }
!1643 = distinct !DISubprogram(file: !1625, scope: !14, name: "_M_length", line: 183, type: !1641, spFlags: 8, unit: !10, scopeLine: 183)
!1644 = !DILocation(scope: !1643)
!1645 = !DILexicalBlock(file: !1625, scope: !1643, line: 183, column: 1)
!1646 = !DILocation(scope: !1645)
!1647 = !DILocalVariable(scope: !1645, file: !1625, type: !1627, flags: 64)
!1648 = !DILocalVariable(scope: !1643, arg: 1, file: !1625, type: !1627, flags: 64)
!1649 = !DILocalVariable(scope: !1645, name: "__length", file: !1625, type: !33)
!1650 = !DILocalVariable(scope: !1643, name: "__length", arg: 2, file: !1625, type: !33)
!1651 = !DILocation(line: 183, column: 1, scope: !1645)
!1652 = !{ !35, !1627 }
!1653 = !DISubroutineType(types: !1652)
!1654 = !{ !1660 }
!1655 = distinct !DISubprogram(file: !1625, scope: !14, name: "_M_data", line: 187, type: !1653, spFlags: 8, unit: !10, scopeLine: 187)
!1656 = !DILocation(scope: !1655)
!1657 = !DILexicalBlock(file: !1625, scope: !1655, line: 187, column: 1)
!1658 = !DILocation(scope: !1657)
!1659 = !DILocalVariable(scope: !1657, file: !1625, type: !1627, flags: 64)
!1660 = !DILocalVariable(scope: !1655, arg: 1, file: !1625, type: !1627, flags: 64)
!1661 = !DILocation(line: 187, column: 1, scope: !1657)
!1662 = !{ !1680 }
!1663 = distinct !DISubprogram(file: !1625, scope: !14, name: "_M_local_data", line: 191, type: !1653, spFlags: 8, unit: !10, scopeLine: 191)
!1664 = !DILocation(scope: !1663)
!1665 = !DILexicalBlock(file: !1625, scope: !1663, line: 191, column: 1)
!1666 = !DILocation(scope: !1665)
!1667 = !DILexicalBlock(file: !1625, scope: !1665, line: 1, column: 1)
!1668 = !DILocation(scope: !1667)
!1669 = !DILexicalBlock(file: !1625, scope: !1667, line: 1, column: 1)
!1670 = !DILocation(scope: !1669)
!1671 = !DILexicalBlock(file: !1625, scope: !1669, line: 1, column: 1)
!1672 = !DILocation(scope: !1671)
!1673 = !DILexicalBlock(file: !1625, scope: !1665, line: 1, column: 1)
!1674 = !DILocation(scope: !1673)
!1675 = !DILexicalBlock(file: !1625, scope: !1673, line: 1, column: 1)
!1676 = !DILocation(scope: !1675)
!1677 = !DILexicalBlock(file: !1625, scope: !1675, line: 1, column: 1)
!1678 = !DILocation(scope: !1677)
!1679 = !DILocalVariable(scope: !1665, file: !1625, type: !1627, flags: 64)
!1680 = !DILocalVariable(scope: !1663, arg: 1, file: !1625, type: !1627, flags: 64)
!1681 = !DILocation(line: 147, column: 1, scope: !1665)
!1682 = !DILocation(line: 197, column: 1, scope: !1665)
!1683 = !{ !1701 }
!1684 = distinct !DISubprogram(file: !1625, scope: !14, name: "_M_local_data", line: 201, type: !1653, spFlags: 8, unit: !10, scopeLine: 201)
!1685 = !DILocation(scope: !1684)
!1686 = !DILexicalBlock(file: !1625, scope: !1684, line: 201, column: 1)
!1687 = !DILocation(scope: !1686)
!1688 = !DILexicalBlock(file: !1625, scope: !1686, line: 1, column: 1)
!1689 = !DILocation(scope: !1688)
!1690 = !DILexicalBlock(file: !1625, scope: !1688, line: 1, column: 1)
!1691 = !DILocation(scope: !1690)
!1692 = !DILexicalBlock(file: !1625, scope: !1690, line: 1, column: 1)
!1693 = !DILocation(scope: !1692)
!1694 = !DILexicalBlock(file: !1625, scope: !1686, line: 1, column: 1)
!1695 = !DILocation(scope: !1694)
!1696 = !DILexicalBlock(file: !1625, scope: !1694, line: 1, column: 1)
!1697 = !DILocation(scope: !1696)
!1698 = !DILexicalBlock(file: !1625, scope: !1696, line: 1, column: 1)
!1699 = !DILocation(scope: !1698)
!1700 = !DILocalVariable(scope: !1686, file: !1625, type: !1627, flags: 64)
!1701 = !DILocalVariable(scope: !1684, arg: 1, file: !1625, type: !1627, flags: 64)
!1702 = !DILocation(line: 147, column: 1, scope: !1686)
!1703 = !DILocation(line: 207, column: 1, scope: !1686)
!1704 = !{ !1710, !1712 }
!1705 = distinct !DISubprogram(file: !1625, scope: !14, name: "_M_capacity", line: 211, type: !1641, spFlags: 8, unit: !10, scopeLine: 211)
!1706 = !DILocation(scope: !1705)
!1707 = !DILexicalBlock(file: !1625, scope: !1705, line: 211, column: 1)
!1708 = !DILocation(scope: !1707)
!1709 = !DILocalVariable(scope: !1707, file: !1625, type: !1627, flags: 64)
!1710 = !DILocalVariable(scope: !1705, arg: 1, file: !1625, type: !1627, flags: 64)
!1711 = !DILocalVariable(scope: !1707, name: "__capacity", file: !1625, type: !33)
!1712 = !DILocalVariable(scope: !1705, name: "__capacity", arg: 2, file: !1625, type: !33)
!1713 = !DILocation(line: 211, column: 1, scope: !1707)
!1714 = !{ !1732, !1734 }
!1715 = distinct !DISubprogram(file: !1625, scope: !14, name: "_M_set_length", line: 215, type: !1641, spFlags: 8, unit: !10, scopeLine: 215)
!1716 = !DILocation(scope: !1715)
!1717 = !DILexicalBlock(file: !1625, scope: !1715, line: 215, column: 1)
!1718 = !DILocation(scope: !1717)
!1719 = !DILexicalBlock(file: !1625, scope: !1717, line: 1, column: 1)
!1720 = !DILocation(scope: !1719)
!1721 = !DILexicalBlock(file: !1625, scope: !1717, line: 1, column: 1)
!1722 = !DILocation(scope: !1721)
!1723 = !DILexicalBlock(file: !1625, scope: !1721, line: 1, column: 1)
!1724 = !DILocation(scope: !1723)
!1725 = !DILexicalBlock(file: !1625, scope: !1717, line: 1, column: 1)
!1726 = !DILocation(scope: !1725)
!1727 = !DILexicalBlock(file: !1625, scope: !1717, line: 1, column: 1)
!1728 = !DILocation(scope: !1727)
!1729 = !DILexicalBlock(file: !1625, scope: !1727, line: 1, column: 1)
!1730 = !DILocation(scope: !1729)
!1731 = !DILocalVariable(scope: !1717, file: !1625, type: !1627, flags: 64)
!1732 = !DILocalVariable(scope: !1715, arg: 1, file: !1625, type: !1627, flags: 64)
!1733 = !DILocalVariable(scope: !1717, name: "__n", file: !1625, type: !33)
!1734 = !DILocalVariable(scope: !1715, name: "__n", arg: 2, file: !1625, type: !33)
!1735 = !DILocation(line: 216, column: 1, scope: !1717)
!1736 = !DILocation(line: 187, column: 1, scope: !1717)
!1737 = !DILocation(line: 217, column: 1, scope: !1717)
!1738 = !DILocation(line: 218, column: 1, scope: !1717)
!1739 = !{ !18, !1627 }
!1740 = !DISubroutineType(types: !1739)
!1741 = !{ !1767 }
!1742 = distinct !DISubprogram(file: !1625, scope: !14, name: "_M_is_local", line: 222, type: !1740, spFlags: 8, unit: !10, scopeLine: 222)
!1743 = !DILocation(scope: !1742)
!1744 = !DILexicalBlock(file: !1625, scope: !1742, line: 222, column: 1)
!1745 = !DILocation(scope: !1744)
!1746 = !DILexicalBlock(file: !1625, scope: !1744, line: 1, column: 1)
!1747 = !DILocation(scope: !1746)
!1748 = !DILexicalBlock(file: !1625, scope: !1746, line: 1, column: 1)
!1749 = !DILocation(scope: !1748)
!1750 = !DILexicalBlock(file: !1625, scope: !1748, line: 1, column: 1)
!1751 = !DILocation(scope: !1750)
!1752 = !DILexicalBlock(file: !1625, scope: !1750, line: 1, column: 1)
!1753 = !DILocation(scope: !1752)
!1754 = !DILexicalBlock(file: !1625, scope: !1752, line: 1, column: 1)
!1755 = !DILocation(scope: !1754)
!1756 = !DILexicalBlock(file: !1625, scope: !1744, line: 1, column: 1)
!1757 = !DILocation(scope: !1756)
!1758 = !DILexicalBlock(file: !1625, scope: !1756, line: 1, column: 1)
!1759 = !DILocation(scope: !1758)
!1760 = !DILexicalBlock(file: !1625, scope: !1758, line: 1, column: 1)
!1761 = !DILocation(scope: !1760)
!1762 = !DILexicalBlock(file: !1625, scope: !1760, line: 1, column: 1)
!1763 = !DILocation(scope: !1762)
!1764 = !DILexicalBlock(file: !1625, scope: !1762, line: 1, column: 1)
!1765 = !DILocation(scope: !1764)
!1766 = !DILocalVariable(scope: !1744, file: !1625, type: !1627, flags: 64)
!1767 = !DILocalVariable(scope: !1742, arg: 1, file: !1625, type: !1627, flags: 64)
!1768 = !DILocation(line: 207, column: 1, scope: !1744)
!1769 = !DILocation(line: 222, column: 1, scope: !1744)
!1770 = !{ null, !1627 }
!1771 = !DISubroutineType(types: !1770)
!1772 = !{ !1822 }
!1773 = distinct !DISubprogram(file: !1625, scope: !14, name: "_M_dispose", line: 230, type: !1771, spFlags: 8, unit: !10, scopeLine: 230)
!1774 = !DILocation(scope: !1773)
!1775 = !DILexicalBlock(file: !1625, scope: !1773, line: 230, column: 1)
!1776 = !DILocation(scope: !1775)
!1777 = !DILexicalBlock(file: !1625, scope: !1775, line: 1, column: 1)
!1778 = !DILocation(scope: !1777)
!1779 = !DILexicalBlock(file: !1625, scope: !1777, line: 1, column: 1)
!1780 = !DILocation(scope: !1779)
!1781 = !DILexicalBlock(file: !1625, scope: !1779, line: 1, column: 1)
!1782 = !DILocation(scope: !1781)
!1783 = !DILexicalBlock(file: !1625, scope: !1781, line: 1, column: 1)
!1784 = !DILocation(scope: !1783)
!1785 = !DILexicalBlock(file: !1625, scope: !1783, line: 1, column: 1)
!1786 = !DILocation(scope: !1785)
!1787 = !DILexicalBlock(file: !1625, scope: !1785, line: 1, column: 1)
!1788 = !DILocation(scope: !1787)
!1789 = !DILexicalBlock(file: !1625, scope: !1775, line: 1, column: 1)
!1790 = !DILocation(scope: !1789)
!1791 = !DILexicalBlock(file: !1625, scope: !1789, line: 1, column: 1)
!1792 = !DILocation(scope: !1791)
!1793 = !DILexicalBlock(file: !1625, scope: !1791, line: 1, column: 1)
!1794 = !DILocation(scope: !1793)
!1795 = !DILexicalBlock(file: !1625, scope: !1793, line: 1, column: 1)
!1796 = !DILocation(scope: !1795)
!1797 = !DILexicalBlock(file: !1625, scope: !1795, line: 1, column: 1)
!1798 = !DILocation(scope: !1797)
!1799 = !DILexicalBlock(file: !1625, scope: !1775, line: 1, column: 1)
!1800 = !DILocation(scope: !1799)
!1801 = !DILexicalBlock(file: !1625, scope: !1799, line: 1, column: 1)
!1802 = !DILocation(scope: !1801)
!1803 = !DILexicalBlock(file: !1625, scope: !1801, line: 1, column: 1)
!1804 = !DILocation(scope: !1803)
!1805 = !DILexicalBlock(file: !1625, scope: !1803, line: 1, column: 1)
!1806 = !DILocation(scope: !1805)
!1807 = !DILexicalBlock(file: !1625, scope: !1805, line: 1, column: 1)
