	.text
	.file	"particle_species.ll"
	.file	1 "/home/talgat/vlasiator/particle_species.cpp"
	.globl	_ZN7species7SpeciesC1Ev # -- Begin function _ZN7species7SpeciesC1Ev
	.p2align	4, 0x90
	.type	_ZN7species7SpeciesC1Ev,@function
_ZN7species7SpeciesC1Ev:                # @_ZN7species7SpeciesC1Ev
.Lfunc_begin0:
	.loc	1 29 0                  # particle_species.cpp:29:0
	.cfi_startproc
# %bb.0:                                # %L.entry
	#DEBUG_VALUE: Species: <- $rdi
	#DEBUG_VALUE: Species: <- $rdi
	pushq	%rbp
	.cfi_def_cfa_offset 16
	.cfi_offset %rbp, -16
	movq	%rsp, %rbp
	.cfi_def_cfa_register %rbp
.Ltmp0:
	#DEBUG_VALUE:  <- $rdi
	#DEBUG_VALUE:  <- $rdi
	.loc	1 434 1 prologue_end    # particle_species.cpp:434:1
	leaq	16(%rdi), %rax
	movq	%rax, (%rdi)
	movq	$0, 8(%rdi)
	movb	$0, 16(%rdi)
	.loc	1 29 1                  # particle_species.cpp:29:1
	popq	%rbp
	.cfi_def_cfa %rsp, 8
	retq
.Ltmp1:
.Lfunc_end0:
	.size	_ZN7species7SpeciesC1Ev, .Lfunc_end0-_ZN7species7SpeciesC1Ev
	.cfi_endproc
                                        # -- End function
	.globl	_ZN7species7SpeciesC2Ev # -- Begin function _ZN7species7SpeciesC2Ev
	.p2align	4, 0x90
	.type	_ZN7species7SpeciesC2Ev,@function
_ZN7species7SpeciesC2Ev:                # @_ZN7species7SpeciesC2Ev
.Lfunc_begin1:
	.loc	1 0 0                   # particle_species.cpp:0:0
	.cfi_startproc
# %bb.0:                                # %L.entry
	pushq	%rbp
	.cfi_def_cfa_offset 16
	.cfi_offset %rbp, -16
	movq	%rsp, %rbp
	.cfi_def_cfa_register %rbp
.Ltmp2:
	.loc	1 29 1 prologue_end     # particle_species.cpp:29:1
	leaq	16(%rdi), %rax
	movq	%rax, (%rdi)
	movq	$0, 8(%rdi)
	movb	$0, 16(%rdi)
	popq	%rbp
	.cfi_def_cfa %rsp, 8
	retq
.Ltmp3:
.Lfunc_end1:
	.size	_ZN7species7SpeciesC2Ev, .Lfunc_end1-_ZN7species7SpeciesC2Ev
	.cfi_endproc
                                        # -- End function
	.globl	_ZN7species7SpeciesC1ERKS0_ # -- Begin function _ZN7species7SpeciesC1ERKS0_
	.p2align	4, 0x90
	.type	_ZN7species7SpeciesC1ERKS0_,@function
_ZN7species7SpeciesC1ERKS0_:            # @_ZN7species7SpeciesC1ERKS0_
.Lfunc_begin2:
	.loc	1 31 0                  # particle_species.cpp:31:0
	.cfi_startproc
	.cfi_personality 3, __gxx_personality_v0
	.cfi_lsda 3, .Lexception0
# %bb.0:                                # %L.entry
	#DEBUG_VALUE: Species: <- $rdi
	#DEBUG_VALUE: Species:other <- $rsi
	pushq	%rbp
	.cfi_def_cfa_offset 16
	.cfi_offset %rbp, -16
	movq	%rsp, %rbp
	.cfi_def_cfa_register %rbp
	pushq	%r15
	pushq	%r14
	pushq	%rbx
	pushq	%rax
	.cfi_offset %rbx, -40
	.cfi_offset %r14, -32
	.cfi_offset %r15, -24
.Ltmp7:
	#DEBUG_VALUE:  <- $rdi
	#DEBUG_VALUE: other <- $rsi
	movq	%rsi, %r14
	movq	%rdi, %rbx
.Ltmp8:
	#DEBUG_VALUE: other <- $r14
	#DEBUG_VALUE: Species:other <- $r14
	#DEBUG_VALUE:  <- $rbx
	#DEBUG_VALUE: Species: <- $rbx
	.loc	1 434 1 prologue_end    # particle_species.cpp:434:1
	leaq	16(%rdi), %r15
	movq	%r15, (%rdi)
	movq	$0, 8(%rdi)
	movb	$0, 16(%rdi)
.Ltmp4:
.Ltmp9:
	#DEBUG_VALUE: __str <- $r14
	#DEBUG_VALUE: operator=:__str <- $r14
	#DEBUG_VALUE:  <- $rbx
	#DEBUG_VALUE: operator=: <- $rbx
	.file	2 "/usr/include/c++/9/bits/basic_string.h"
	.loc	2 1366 1                # /usr/include/c++/9/bits/basic_string.h:1366:1
	callq	_ZNSt7__cxx1112basic_stringIcSt11char_traitsIcESaIcEE9_M_assignERKS4_
.Ltmp5:
.Ltmp10:
# %bb.1:                                # %L.B0220
	#DEBUG_VALUE: Species: <- $rbx
	#DEBUG_VALUE:  <- $rbx
	#DEBUG_VALUE: Species:other <- $r14
	#DEBUG_VALUE: other <- $r14
	.loc	1 33 1                  # particle_species.cpp:33:1
	movq	32(%r14), %rax
	movq	%rax, 32(%rbx)
	.loc	1 34 1                  # particle_species.cpp:34:1
	movq	40(%r14), %rax
	movq	%rax, 40(%rbx)
	.loc	1 35 1                  # particle_species.cpp:35:1
	movq	48(%r14), %rax
	movq	%rax, 48(%rbx)
	.loc	1 36 1                  # particle_species.cpp:36:1
	movq	56(%r14), %rax
	movq	%rax, 56(%rbx)
	.loc	1 37 1                  # particle_species.cpp:37:1
	addq	$8, %rsp
	popq	%rbx
.Ltmp11:
	popq	%r14
.Ltmp12:
	popq	%r15
	popq	%rbp
	.cfi_def_cfa %rsp, 8
	retq
.LBB2_2:                                # %L_T19107768_7575
	.cfi_def_cfa %rbp, 16
.Ltmp13:
	#DEBUG_VALUE: Species: <- $rbx
	#DEBUG_VALUE:  <- $rbx
	#DEBUG_VALUE: Species:other <- $r14
	#DEBUG_VALUE: other <- $r14
.Ltmp6:
	.loc	1 0 1 is_stmt 0         # particle_species.cpp:0:1
	movq	%rax, %r14
.Ltmp14:
	.loc	1 658 1 is_stmt 1       # particle_species.cpp:658:1
	movq	(%rbx), %rdi
	cmpq	%r15, %rdi
	je	.LBB2_4
.Ltmp15:
# %bb.3:                                # %L.B0221
	#DEBUG_VALUE: Species: <- $rbx
	#DEBUG_VALUE:  <- $rbx
	callq	_ZdlPv
.Ltmp16:
.LBB2_4:                                # %L..inline.10994
	#DEBUG_VALUE: Species: <- $rbx
	#DEBUG_VALUE:  <- $rbx
	.loc	1 0 1 is_stmt 0         # particle_species.cpp:0:1
	movq	%r14, %rdi
	callq	_Unwind_Resume
.Lfunc_end2:
	.size	_ZN7species7SpeciesC1ERKS0_, .Lfunc_end2-_ZN7species7SpeciesC1ERKS0_
	.cfi_endproc
	.section	.gcc_except_table,"a",@progbits
	.p2align	2
GCC_except_table2:
.Lexception0:
	.byte	255                     # @LPStart Encoding = omit
	.byte	255                     # @TType Encoding = omit
	.byte	1                       # Call site Encoding = uleb128
	.uleb128 .Lcst_end0-.Lcst_begin0
.Lcst_begin0:
	.uleb128 .Ltmp4-.Lfunc_begin2   # >> Call Site 1 <<
	.uleb128 .Ltmp5-.Ltmp4          #   Call between .Ltmp4 and .Ltmp5
	.uleb128 .Ltmp6-.Lfunc_begin2   #     jumps to .Ltmp6
	.byte	0                       #   On action: cleanup
	.uleb128 .Ltmp5-.Lfunc_begin2   # >> Call Site 2 <<
	.uleb128 .Lfunc_end2-.Ltmp5     #   Call between .Ltmp5 and .Lfunc_end2
	.byte	0                       #     has no landing pad
	.byte	0                       #   On action: cleanup
.Lcst_end0:
	.p2align	2
                                        # -- End function
	.text
	.globl	_ZN7species7SpeciesC2ERKS0_ # -- Begin function _ZN7species7SpeciesC2ERKS0_
	.p2align	4, 0x90
	.type	_ZN7species7SpeciesC2ERKS0_,@function
_ZN7species7SpeciesC2ERKS0_:            # @_ZN7species7SpeciesC2ERKS0_
.Lfunc_begin3:
	.loc	1 0 0 is_stmt 1         # particle_species.cpp:0:0
	.cfi_startproc
	.cfi_personality 3, __gxx_personality_v0
	.cfi_lsda 3, .Lexception1
# %bb.0:                                # %L.entry
	#DEBUG_VALUE: Species: <- $rdi
	#DEBUG_VALUE: Species:other <- $rsi
	pushq	%rbp
	.cfi_def_cfa_offset 16
	.cfi_offset %rbp, -16
	movq	%rsp, %rbp
	.cfi_def_cfa_register %rbp
	pushq	%r15
	pushq	%r14
	pushq	%rbx
	pushq	%rax
	.cfi_offset %rbx, -40
	.cfi_offset %r14, -32
	.cfi_offset %r15, -24
.Ltmp20:
	#DEBUG_VALUE:  <- $rdi
	#DEBUG_VALUE: other <- $rsi
	movq	%rsi, %r14
	movq	%rdi, %rbx
.Ltmp21:
	#DEBUG_VALUE: other <- $r14
	#DEBUG_VALUE: Species:other <- $r14
	#DEBUG_VALUE:  <- $rbx
	#DEBUG_VALUE: Species: <- $rbx
	.loc	1 434 1 prologue_end    # particle_species.cpp:434:1
	leaq	16(%rdi), %r15
	movq	%r15, (%rdi)
	movq	$0, 8(%rdi)
	movb	$0, 16(%rdi)
.Ltmp17:
.Ltmp22:
	#DEBUG_VALUE: __str <- $r14
	#DEBUG_VALUE: operator=:__str <- $r14
	#DEBUG_VALUE:  <- $rbx
	#DEBUG_VALUE: operator=: <- $rbx
	.loc	2 1366 1                # /usr/include/c++/9/bits/basic_string.h:1366:1
	callq	_ZNSt7__cxx1112basic_stringIcSt11char_traitsIcESaIcEE9_M_assignERKS4_
.Ltmp18:
.Ltmp23:
# %bb.1:                                # %_ZN7species7SpeciesC1ERKS0_.exit
	#DEBUG_VALUE: Species: <- $rbx
	#DEBUG_VALUE:  <- $rbx
	#DEBUG_VALUE: Species:other <- $r14
	#DEBUG_VALUE: other <- $r14
	.loc	1 33 1                  # particle_species.cpp:33:1
	movq	32(%r14), %rax
	movq	%rax, 32(%rbx)
	.loc	1 34 1                  # particle_species.cpp:34:1
	movq	40(%r14), %rax
	movq	%rax, 40(%rbx)
	.loc	1 35 1                  # particle_species.cpp:35:1
	movq	48(%r14), %rax
	movq	%rax, 48(%rbx)
	.loc	1 36 1                  # particle_species.cpp:36:1
	movq	56(%r14), %rax
	movq	%rax, 56(%rbx)
.Ltmp24:
	.loc	1 36 1 is_stmt 0        # particle_species.cpp:36:1
	addq	$8, %rsp
	popq	%rbx
.Ltmp25:
	popq	%r14
.Ltmp26:
	popq	%r15
	popq	%rbp
	.cfi_def_cfa %rsp, 8
	retq
.LBB3_2:                                # %L_T19107768_7575.i
	.cfi_def_cfa %rbp, 16
.Ltmp27:
	#DEBUG_VALUE: Species: <- $rbx
	#DEBUG_VALUE:  <- $rbx
	#DEBUG_VALUE: Species:other <- $r14
	#DEBUG_VALUE: other <- $r14
.Ltmp19:
	.loc	1 0 1                   # particle_species.cpp:0:1
	movq	%rax, %r14
.Ltmp28:
	.loc	1 658 1 is_stmt 1       # particle_species.cpp:658:1
	movq	(%rbx), %rdi
	cmpq	%r15, %rdi
	je	.LBB3_4
.Ltmp29:
# %bb.3:                                # %L.B0221.i
	#DEBUG_VALUE: Species: <- $rbx
	#DEBUG_VALUE:  <- $rbx
	callq	_ZdlPv
.Ltmp30:
.LBB3_4:                                # %L..inline.10994.i
	#DEBUG_VALUE: Species: <- $rbx
	#DEBUG_VALUE:  <- $rbx
	.loc	1 0 1 is_stmt 0         # particle_species.cpp:0:1
	movq	%r14, %rdi
	callq	_Unwind_Resume
.Lfunc_end3:
	.size	_ZN7species7SpeciesC2ERKS0_, .Lfunc_end3-_ZN7species7SpeciesC2ERKS0_
	.cfi_endproc
	.section	.gcc_except_table,"a",@progbits
	.p2align	2
GCC_except_table3:
.Lexception1:
	.byte	255                     # @LPStart Encoding = omit
	.byte	255                     # @TType Encoding = omit
	.byte	1                       # Call site Encoding = uleb128
	.uleb128 .Lcst_end1-.Lcst_begin1
.Lcst_begin1:
	.uleb128 .Ltmp17-.Lfunc_begin3  # >> Call Site 1 <<
	.uleb128 .Ltmp18-.Ltmp17        #   Call between .Ltmp17 and .Ltmp18
	.uleb128 .Ltmp19-.Lfunc_begin3  #     jumps to .Ltmp19
	.byte	0                       #   On action: cleanup
	.uleb128 .Ltmp18-.Lfunc_begin3  # >> Call Site 2 <<
	.uleb128 .Lfunc_end3-.Ltmp18    #   Call between .Ltmp18 and .Lfunc_end3
	.byte	0                       #     has no landing pad
	.byte	0                       #   On action: cleanup
.Lcst_end1:
	.p2align	2
                                        # -- End function
	.text
	.globl	_ZN7species7SpeciesD1Ev # -- Begin function _ZN7species7SpeciesD1Ev
	.p2align	4, 0x90
	.type	_ZN7species7SpeciesD1Ev,@function
_ZN7species7SpeciesD1Ev:                # @_ZN7species7SpeciesD1Ev
.Lfunc_begin4:
	.loc	1 39 0 is_stmt 1        # particle_species.cpp:39:0
	.cfi_startproc
# %bb.0:                                # %L.entry
	#DEBUG_VALUE: ~Species: <- $rdi
	pushq	%rbp
	.cfi_def_cfa_offset 16
	.cfi_offset %rbp, -16
	movq	%rsp, %rbp
	.cfi_def_cfa_register %rbp
.Ltmp31:
	#DEBUG_VALUE:  <- $rdi
	movq	%rdi, %rax
.Ltmp32:
	#DEBUG_VALUE:  <- $rax
	#DEBUG_VALUE: ~Species: <- $rax
	.loc	1 658 1 prologue_end    # particle_species.cpp:658:1
	movq	(%rdi), %rdi
	addq	$16, %rax
.Ltmp33:
	cmpq	%rax, %rdi
	je	.LBB4_1
# %bb.2:                                # %L.B0224
	popq	%rbp
	.cfi_def_cfa %rsp, 8
	jmp	_ZdlPv                  # TAILCALL
.LBB4_1:                                # %L..inline.11140
	.cfi_def_cfa %rbp, 16
	.loc	1 39 1                  # particle_species.cpp:39:1
	popq	%rbp
	.cfi_def_cfa %rsp, 8
	retq
.Ltmp34:
.Lfunc_end4:
	.size	_ZN7species7SpeciesD1Ev, .Lfunc_end4-_ZN7species7SpeciesD1Ev
	.cfi_endproc
                                        # -- End function
	.globl	_ZN7species7SpeciesD2Ev # -- Begin function _ZN7species7SpeciesD2Ev
	.p2align	4, 0x90
	.type	_ZN7species7SpeciesD2Ev,@function
_ZN7species7SpeciesD2Ev:                # @_ZN7species7SpeciesD2Ev
.Lfunc_begin5:
	.loc	1 0 0                   # particle_species.cpp:0:0
	.cfi_startproc
# %bb.0:                                # %L.entry
	pushq	%rbp
	.cfi_def_cfa_offset 16
	.cfi_offset %rbp, -16
	movq	%rsp, %rbp
	.cfi_def_cfa_register %rbp
	movq	%rdi, %rax
.Ltmp35:
	.loc	1 39 1 prologue_end     # particle_species.cpp:39:1
	movq	(%rdi), %rdi
	addq	$16, %rax
	cmpq	%rax, %rdi
	je	.LBB5_1
# %bb.2:                                # %L.B0227
	popq	%rbp
	.cfi_def_cfa %rsp, 8
	jmp	_ZdlPv                  # TAILCALL
.LBB5_1:                                # %L..inline.11252
	.cfi_def_cfa %rbp, 16
	popq	%rbp
	.cfi_def_cfa %rsp, 8
	retq
.Ltmp36:
.Lfunc_end5:
	.size	_ZN7species7SpeciesD2Ev, .Lfunc_end5-_ZN7species7SpeciesD2Ev
	.cfi_endproc
                                        # -- End function
	.globl	__sti___20_particle_species_cpp_29edf090 # -- Begin function __sti___20_particle_species_cpp_29edf090
	.p2align	4, 0x90
	.type	__sti___20_particle_species_cpp_29edf090,@function
__sti___20_particle_species_cpp_29edf090: # @__sti___20_particle_species_cpp_29edf090
.Lfunc_begin6:
	.loc	1 0 0                   # particle_species.cpp:0:0
	.cfi_startproc
# %bb.0:                                # %L.entry
	pushq	%rbp
	.cfi_def_cfa_offset 16
	.cfi_offset %rbp, -16
	movq	%rsp, %rbp
	.cfi_def_cfa_register %rbp
.Ltmp37:
	.loc	1 74 1 prologue_end     # particle_species.cpp:74:1
	cmpl	$1, __I___20_particle_species_cpp_29edf090(%rip)
	jne	.LBB6_2
# %bb.1:                                # %L.B0012
	popq	%rbp
	.cfi_def_cfa %rsp, 8
	retq
.LBB6_2:                                # %L.B0234
	.cfi_def_cfa %rbp, 16
	movl	$1, __I___20_particle_species_cpp_29edf090(%rip)
	movl	$_ZN42_INTERNAL_20_particle_species_cpp_29edf090St8__ioinitE, %edi
	callq	_ZNSt8ios_base4InitC1Ev
	movl	$_ZNSt8ios_base4InitD1Ev, %edi
	movl	$_ZN42_INTERNAL_20_particle_species_cpp_29edf090St8__ioinitE, %esi
	movl	$__dso_handle, %edx
	popq	%rbp
	.cfi_def_cfa %rsp, 8
	jmp	__cxa_atexit            # TAILCALL
.Ltmp38:
.Lfunc_end6:
	.size	__sti___20_particle_species_cpp_29edf090, .Lfunc_end6-__sti___20_particle_species_cpp_29edf090
	.cfi_endproc
                                        # -- End function
	.type	__I___20_particle_species_cpp_29edf090,@object # @__I___20_particle_species_cpp_29edf090
	.bss
	.globl	__I___20_particle_species_cpp_29edf090
	.p2align	2
__I___20_particle_species_cpp_29edf090:
	.long	0                       # 0x0
	.size	__I___20_particle_species_cpp_29edf090, 4

	.type	_ZN42_INTERNAL_20_particle_species_cpp_29edf090St8__ioinitE,@object # @_ZN42_INTERNAL_20_particle_species_cpp_29edf090St8__ioinitE
	.local	_ZN42_INTERNAL_20_particle_species_cpp_29edf090St8__ioinitE
	.comm	_ZN42_INTERNAL_20_particle_species_cpp_29edf090St8__ioinitE,1,1
	.section	.init_array,"aw",@init_array
	.p2align	3
	.quad	__sti___20_particle_species_cpp_29edf090
	.section	".note.GNU-stack","",@progbits