	.text
	.file	"projectTriAxisSearch.ll"
	.file	1 "/home/talgat/vlasiator/projects/projectTriAxisSearch.cpp"
	.weak	_ZNSt6vectorIN5vmesh14MeshParametersESaIS1_EED1Ev # -- Begin function _ZNSt6vectorIN5vmesh14MeshParametersESaIS1_EED1Ev
	.p2align	4, 0x90
	.type	_ZNSt6vectorIN5vmesh14MeshParametersESaIS1_EED1Ev,@function
_ZNSt6vectorIN5vmesh14MeshParametersESaIS1_EED1Ev: # @_ZNSt6vectorIN5vmesh14MeshParametersESaIS1_EED1Ev
.Lfunc_begin0:
	.file	2 "/usr/include/c++/9/bits/stl_vector.h"
	.loc	2 676 0                 # /usr/include/c++/9/bits/stl_vector.h:676:0
	.cfi_startproc
# %bb.0:                                # %L.entry
	#DEBUG_VALUE: ~vector: <- $rdi
	#DEBUG_VALUE: ~vector: <- $rdi
	pushq	%rbp
	.cfi_def_cfa_offset 16
	.cfi_offset %rbp, -16
	movq	%rsp, %rbp
	.cfi_def_cfa_register %rbp
.Ltmp0:
	pushq	%r15
	pushq	%r14
	pushq	%rbx
	pushq	%rax
	.cfi_offset %rbx, -40
	.cfi_offset %r14, -32
	.cfi_offset %r15, -24
.Ltmp1:
	#DEBUG_VALUE:  <- $rdi
	#DEBUG_VALUE:  <- $rdi
	.loc	2 206 1 prologue_end    # /usr/include/c++/9/bits/stl_vector.h:206:1
	movq	(%rdi), %rbx
	movq	8(%rdi), %rsi
	cmpq	%rsi, %rbx
	je	.LBB0_14
.Ltmp2:
# %bb.1:                                # %L.B2474
	#DEBUG_VALUE:  <- $rdi
	#DEBUG_VALUE: ~vector: <- $rdi
	.loc	2 0 1 is_stmt 0         # /usr/include/c++/9/bits/stl_vector.h:0:1
	movq	%rdi, %r14
.Ltmp3:
	#DEBUG_VALUE: ~vector: <- $r14
	#DEBUG_VALUE:  <- $r14
	.loc	2 206 1                 # /usr/include/c++/9/bits/stl_vector.h:206:1
	subq	%rbx, %rsi
	leaq	335(%rsi), %rcx
	movabsq	$-4392081922311798003, %rdx # imm = 0xC30C30C30C30C30D
	movq	%rcx, %rax
	imulq	%rdx
	leaq	(%rsi,%rdx), %rax
	addq	$335, %rax              # imm = 0x14F
	sarq	$8, %rax
	sarq	$63, %rcx
	subq	%rcx, %rax
	imulq	$336, %rax, %r15        # imm = 0x150
	addq	%rbx, %r15
	jmp	.LBB0_2
.Ltmp4:
	.p2align	4, 0x90
.LBB0_12:                               # %_ZN5vmesh14MeshParametersD1Ev.exit
                                        #   in Loop: Header=BB0_2 Depth=1
	#DEBUG_VALUE:  <- $r14
	#DEBUG_VALUE: ~vector: <- $r14
	addq	$336, %rbx              # imm = 0x150
	cmpq	%r15, %rbx
	jae	.LBB0_13
.Ltmp5:
.LBB0_2:                                # %L..inline.82882
                                        # =>This Inner Loop Header: Depth=1
	#DEBUG_VALUE:  <- $r14
	#DEBUG_VALUE: ~vector: <- $r14
	#DEBUG_VALUE: ~MeshParameters: <- $rbx
	#DEBUG_VALUE:  <- $rbx
	.file	3 "/home/talgat/vlasiator/projects/../velocity_mesh_parameters.h"
	.loc	3 680 1 is_stmt 1       # projects/../velocity_mesh_parameters.h:680:1
	movq	312(%rbx), %rdi
	testq	%rdi, %rdi
	je	.LBB0_4
.Ltmp6:
# %bb.3:                                # %L.B3942.i
                                        #   in Loop: Header=BB0_2 Depth=1
	#DEBUG_VALUE:  <- $rbx
	#DEBUG_VALUE: ~MeshParameters: <- $rbx
	#DEBUG_VALUE:  <- $r14
	#DEBUG_VALUE: ~vector: <- $r14
	callq	_ZdlPv
.Ltmp7:
.LBB0_4:                                # %L..inline.100913.i
                                        #   in Loop: Header=BB0_2 Depth=1
	#DEBUG_VALUE:  <- $rbx
	#DEBUG_VALUE: ~MeshParameters: <- $rbx
	#DEBUG_VALUE:  <- $r14
	#DEBUG_VALUE: ~vector: <- $r14
	movq	288(%rbx), %rdi
	testq	%rdi, %rdi
	je	.LBB0_6
.Ltmp8:
# %bb.5:                                # %L.B3943.i
                                        #   in Loop: Header=BB0_2 Depth=1
	#DEBUG_VALUE:  <- $rbx
	#DEBUG_VALUE: ~MeshParameters: <- $rbx
	#DEBUG_VALUE:  <- $r14
	#DEBUG_VALUE: ~vector: <- $r14
	callq	_ZdlPv
.Ltmp9:
.LBB0_6:                                # %L..inline.100991.i
                                        #   in Loop: Header=BB0_2 Depth=1
	#DEBUG_VALUE:  <- $rbx
	#DEBUG_VALUE: ~MeshParameters: <- $rbx
	#DEBUG_VALUE:  <- $r14
	#DEBUG_VALUE: ~vector: <- $r14
	movq	264(%rbx), %rdi
	testq	%rdi, %rdi
	je	.LBB0_8
.Ltmp10:
# %bb.7:                                # %L.B3944.i
                                        #   in Loop: Header=BB0_2 Depth=1
	#DEBUG_VALUE:  <- $rbx
	#DEBUG_VALUE: ~MeshParameters: <- $rbx
	#DEBUG_VALUE:  <- $r14
	#DEBUG_VALUE: ~vector: <- $r14
	callq	_ZdlPv
.Ltmp11:
.LBB0_8:                                # %L..inline.101069.i
                                        #   in Loop: Header=BB0_2 Depth=1
	#DEBUG_VALUE:  <- $rbx
	#DEBUG_VALUE: ~MeshParameters: <- $rbx
	#DEBUG_VALUE:  <- $r14
	#DEBUG_VALUE: ~vector: <- $r14
	movq	240(%rbx), %rdi
	testq	%rdi, %rdi
	je	.LBB0_10
.Ltmp12:
# %bb.9:                                # %L.B3945.i
                                        #   in Loop: Header=BB0_2 Depth=1
	#DEBUG_VALUE:  <- $rbx
	#DEBUG_VALUE: ~MeshParameters: <- $rbx
	#DEBUG_VALUE:  <- $r14
	#DEBUG_VALUE: ~vector: <- $r14
	callq	_ZdlPv
.Ltmp13:
.LBB0_10:                               # %L..inline.101147.i
                                        #   in Loop: Header=BB0_2 Depth=1
	#DEBUG_VALUE:  <- $rbx
	#DEBUG_VALUE: ~MeshParameters: <- $rbx
	#DEBUG_VALUE:  <- $r14
	#DEBUG_VALUE: ~vector: <- $r14
	.loc	3 658 1                 # projects/../velocity_mesh_parameters.h:658:1
	movq	(%rbx), %rdi
	leaq	16(%rbx), %rax
	cmpq	%rdi, %rax
	je	.LBB0_12
.Ltmp14:
# %bb.11:                               # %L.B3946.i
                                        #   in Loop: Header=BB0_2 Depth=1
	#DEBUG_VALUE:  <- $rbx
	#DEBUG_VALUE: ~MeshParameters: <- $rbx
	#DEBUG_VALUE:  <- $r14
	#DEBUG_VALUE: ~vector: <- $r14
	callq	_ZdlPv
	jmp	.LBB0_12
.Ltmp15:
.LBB0_13:                               # %L..inline.82883thread-pre-split
	#DEBUG_VALUE:  <- $r14
	#DEBUG_VALUE: ~vector: <- $r14
	.loc	2 332 1                 # /usr/include/c++/9/bits/stl_vector.h:332:1
	movq	(%r14), %rbx
.Ltmp16:
.LBB0_14:                               # %L..inline.82883
	testq	%rbx, %rbx
	je	.LBB0_15
# %bb.16:                               # %L.B2475
	movq	%rbx, %rdi
	addq	$8, %rsp
	popq	%rbx
	popq	%r14
	popq	%r15
	popq	%rbp
	.cfi_def_cfa %rsp, 8
	jmp	_ZdlPv                  # TAILCALL
.LBB0_15:                               # %L..inline.82915
	.cfi_def_cfa %rbp, 16
	.loc	2 680 1                 # /usr/include/c++/9/bits/stl_vector.h:680:1
	addq	$8, %rsp
	popq	%rbx
	popq	%r14
	popq	%r15
	popq	%rbp
	.cfi_def_cfa %rsp, 8
	retq
.Ltmp17:
.Lfunc_end0:
	.size	_ZNSt6vectorIN5vmesh14MeshParametersESaIS1_EED1Ev, .Lfunc_end0-_ZNSt6vectorIN5vmesh14MeshParametersESaIS1_EED1Ev
	.cfi_endproc
                                        # -- End function
	.weak	_ZNSt6vectorIf17aligned_allocatorIfLm64EEE17_M_default_appendEm # -- Begin function _ZNSt6vectorIf17aligned_allocatorIfLm64EEE17_M_default_appendEm
	.p2align	4, 0x90
	.type	_ZNSt6vectorIf17aligned_allocatorIfLm64EEE17_M_default_appendEm,@function
_ZNSt6vectorIf17aligned_allocatorIfLm64EEE17_M_default_appendEm: # @_ZNSt6vectorIf17aligned_allocatorIfLm64EEE17_M_default_appendEm
.Lfunc_begin1:
	.file	4 "/usr/include/c++/9/bits/vector.tcc"
	.loc	4 613 0                 # /usr/include/c++/9/bits/vector.tcc:613:0
	.cfi_startproc
# %bb.0:                                # %L.entry
	#DEBUG_VALUE: _M_default_append: <- $rdi
	#DEBUG_VALUE: _M_default_append:__n <- $rsi
	#DEBUG_VALUE: _M_default_append:__n <- $rsi
	#DEBUG_VALUE: _M_default_append: <- $rdi
	pushq	%rbp
	.cfi_def_cfa_offset 16
	.cfi_offset %rbp, -16
	movq	%rsp, %rbp
	.cfi_def_cfa_register %rbp
.Ltmp18:
	pushq	%r15
	pushq	%r14
	pushq	%r13
	pushq	%r12
	pushq	%rbx
	subq	$40, %rsp
	.cfi_offset %rbx, -56
	.cfi_offset %r12, -48
	.cfi_offset %r13, -40
	.cfi_offset %r14, -32
	.cfi_offset %r15, -24
.Ltmp19:
	#DEBUG_VALUE:  <- $rdi
	#DEBUG_VALUE: __n <- $rsi
	#DEBUG_VALUE: __n <- $rsi
	#DEBUG_VALUE:  <- $rdi
	.loc	4 614 1 prologue_end    # /usr/include/c++/9/bits/vector.tcc:614:1
	testq	%rsi, %rsi
	je	.LBB1_37
.Ltmp20:
# %bb.1:                                # %L.B2566
	#DEBUG_VALUE: __n <- $rsi
	#DEBUG_VALUE:  <- $rdi
	#DEBUG_VALUE: _M_default_append:__n <- $rsi
	#DEBUG_VALUE: _M_default_append: <- $rdi
	.loc	4 0 1 is_stmt 0         # /usr/include/c++/9/bits/vector.tcc:0:1
	movq	%rsi, %r15
.Ltmp21:
	#DEBUG_VALUE: _M_default_append:__n <- $r15
	#DEBUG_VALUE: __n <- $r15
	movq	%rdi, %r14
.Ltmp22:
	#DEBUG_VALUE: _M_default_append: <- $r14
	#DEBUG_VALUE:  <- $r14
	.loc	4 616 1 is_stmt 1       # /usr/include/c++/9/bits/vector.tcc:616:1
	movq	8(%rdi), %rbx
	.loc	4 617 1                 # /usr/include/c++/9/bits/vector.tcc:617:1
	movq	16(%rdi), %rax
.Ltmp23:
	#DEBUG_VALUE: __size <- undef
	subq	%rbx, %rax
	sarq	$2, %rax
.Ltmp24:
	#DEBUG_VALUE: __navail <- $rax
	.loc	4 623 1                 # /usr/include/c++/9/bits/vector.tcc:623:1
	cmpq	%rsi, %rax
	jae	.LBB1_2
.Ltmp25:
# %bb.11:                               # %L.B0049
	#DEBUG_VALUE: __navail <- $rax
	#DEBUG_VALUE:  <- $r14
	#DEBUG_VALUE: _M_default_append: <- $r14
	#DEBUG_VALUE: __n <- $r15
	#DEBUG_VALUE: _M_default_append:__n <- $r15
	.loc	4 0 1 is_stmt 0         # /usr/include/c++/9/bits/vector.tcc:0:1
	movabsq	$2305843009213693951, %r12 # imm = 0x1FFFFFFFFFFFFFFF
	subq	(%r14), %rbx
	movq	%rbx, %rcx
	sarq	$2, %rcx
.Ltmp26:
	#DEBUG_VALUE: __size <- $rcx
	movq	%rcx, %rax
.Ltmp27:
	xorq	%r12, %rax
	.loc	4 1755 1 is_stmt 1      # /usr/include/c++/9/bits/vector.tcc:1755:1
	cmpq	%r15, %rax
	jb	.LBB1_38
.Ltmp28:
# %bb.12:                               # %L..inline.83694
	#DEBUG_VALUE:  <- $r14
	#DEBUG_VALUE: _M_default_append: <- $r14
	#DEBUG_VALUE: __n <- $r15
	#DEBUG_VALUE: _M_default_append:__n <- $r15
	.loc	4 1758 1                # /usr/include/c++/9/bits/vector.tcc:1758:1
	cmpq	%r15, %rcx
	movq	%rcx, %rax
	cmovbq	%r15, %rax
	addq	%rcx, %rax
	.loc	4 1759 1                # /usr/include/c++/9/bits/vector.tcc:1759:1
	jb	.LBB1_16
.Ltmp29:
# %bb.13:                               # %L..inline.83694
	#DEBUG_VALUE:  <- $r14
	#DEBUG_VALUE: _M_default_append: <- $r14
	#DEBUG_VALUE: __n <- $r15
	#DEBUG_VALUE: _M_default_append:__n <- $r15
	cmpq	%r12, %rax
	ja	.LBB1_16
.Ltmp30:
# %bb.14:                               # %L..inline.83758
	#DEBUG_VALUE:  <- $r14
	#DEBUG_VALUE: _M_default_append: <- $r14
	#DEBUG_VALUE: __n <- $r15
	#DEBUG_VALUE: _M_default_append:__n <- $r15
	.loc	4 0 1 is_stmt 0         # /usr/include/c++/9/bits/vector.tcc:0:1
	movq	%rax, %r12
.Ltmp31:
	#DEBUG_VALUE: __len <- $rax
	.loc	4 635 1 is_stmt 1       # /usr/include/c++/9/bits/vector.tcc:635:1
	testq	%rax, %rax
.Ltmp32:
	#DEBUG_VALUE: __len <- $r12
	je	.LBB1_15
.Ltmp33:
.LBB1_16:                               # %L.B0004.i
	#DEBUG_VALUE:  <- $r14
	#DEBUG_VALUE: _M_default_append: <- $r14
	#DEBUG_VALUE: __n <- $r15
	#DEBUG_VALUE: _M_default_append:__n <- $r15
	#DEBUG_VALUE: allocate: <- $r14
	#DEBUG_VALUE:  <- $r14
	#DEBUG_VALUE: allocate:n <- undef
	#DEBUG_VALUE: n <- undef
	.file	5 "/home/talgat/vlasiator/projects/../memoryallocation.h"
	.loc	5 52 1                  # projects/../memoryallocation.h:52:1
	leaq	71(,%r12,4), %rdi
	callq	malloc
	testq	%rax, %rax
	je	.LBB1_39
.Ltmp34:
# %bb.17:                               # %L..inline.79801.i
	#DEBUG_VALUE:  <- $r14
	#DEBUG_VALUE: allocate: <- $r14
	#DEBUG_VALUE:  <- $r14
	#DEBUG_VALUE: _M_default_append: <- $r14
	#DEBUG_VALUE: __n <- $r15
	#DEBUG_VALUE: _M_default_append:__n <- $r15
	.loc	5 55 1                  # projects/../memoryallocation.h:55:1
	movq	%rax, %r13
	addq	$71, %r13
	andq	$-64, %r13
	.loc	5 57 1                  # projects/../memoryallocation.h:57:1
	movq	%rax, -8(%r13)
.Ltmp35:
	#DEBUG_VALUE: pv <- $r13
	.loc	5 198 1                 # projects/../memoryallocation.h:198:1
	je	.LBB1_39
.Ltmp36:
.LBB1_18:                               # %L..inline.83775
	#DEBUG_VALUE:  <- $r14
	#DEBUG_VALUE: _M_default_append: <- $r14
	#DEBUG_VALUE: __n <- $r15
	#DEBUG_VALUE: _M_default_append:__n <- $r15
	#DEBUG_VALUE: __new_start <- $r13
	#DEBUG_VALUE: __destroy_from <- 0
	.loc	4 274 1                 # /usr/include/c++/9/bits/vector.tcc:274:1
	andq	$-4, %rbx
	leaq	(%rbx,%r13), %r11
.Ltmp37:
	#DEBUG_VALUE: __cur <- $r11
	#DEBUG_VALUE: __alloc <- $r14
	#DEBUG_VALUE: __uninitialized_default_n_a:__alloc <- $r14
	#DEBUG_VALUE: __n <- $r15
	#DEBUG_VALUE: __uninitialized_default_n_a:__n <- $r15
	#DEBUG_VALUE: __first <- $r11
	#DEBUG_VALUE: __uninitialized_default_n_a:__first <- $r11
	.file	6 "/usr/include/c++/9/bits/stl_uninitialized.h"
	.loc	6 648 1                 # /usr/include/c++/9/bits/stl_uninitialized.h:648:1
	cmpq	$32, %r15
	jae	.LBB1_20
.Ltmp38:
# %bb.19:
	#DEBUG_VALUE: __uninitialized_default_n_a:__first <- $r11
	#DEBUG_VALUE: __first <- $r11
	#DEBUG_VALUE: __uninitialized_default_n_a:__n <- $r15
	#DEBUG_VALUE: __n <- $r15
	#DEBUG_VALUE: __uninitialized_default_n_a:__alloc <- $r14
	#DEBUG_VALUE: __alloc <- $r14
	#DEBUG_VALUE: __cur <- $r11
	#DEBUG_VALUE: __destroy_from <- 0
	#DEBUG_VALUE: __new_start <- $r13
	#DEBUG_VALUE:  <- $r14
	#DEBUG_VALUE: _M_default_append: <- $r14
	#DEBUG_VALUE: __n <- $r15
	#DEBUG_VALUE: _M_default_append:__n <- $r15
	.loc	6 0 1 is_stmt 0         # /usr/include/c++/9/bits/stl_uninitialized.h:0:1
	movq	%r15, %r10
	jmp	.LBB1_23
.Ltmp39:
.LBB1_2:                                # %L.B2569
	#DEBUG_VALUE:  <- $r14
	#DEBUG_VALUE: _M_default_append: <- $r14
	#DEBUG_VALUE: __n <- $r15
	#DEBUG_VALUE: _M_default_append:__n <- $r15
	#DEBUG_VALUE: __uninitialized_default_n_a:__first <- $rbx
	#DEBUG_VALUE: __first <- $rbx
	#DEBUG_VALUE: __cur <- $rbx
	#DEBUG_VALUE: __uninitialized_default_n_a:__n <- $r15
	#DEBUG_VALUE: __n <- $r15
	#DEBUG_VALUE: __uninitialized_default_n_a:__alloc <- $r14
	#DEBUG_VALUE: __alloc <- $r14
	.loc	6 648 1                 # /usr/include/c++/9/bits/stl_uninitialized.h:648:1
	cmpq	$32, %r15
	jae	.LBB1_4
.Ltmp40:
# %bb.3:
	#DEBUG_VALUE: __alloc <- $r14
	#DEBUG_VALUE: __uninitialized_default_n_a:__alloc <- $r14
	#DEBUG_VALUE: __n <- $r15
	#DEBUG_VALUE: __uninitialized_default_n_a:__n <- $r15
	#DEBUG_VALUE: __cur <- $rbx
	#DEBUG_VALUE: __first <- $rbx
	#DEBUG_VALUE: __uninitialized_default_n_a:__first <- $rbx
	#DEBUG_VALUE:  <- $r14
	#DEBUG_VALUE: _M_default_append: <- $r14
	#DEBUG_VALUE: __n <- $r15
	#DEBUG_VALUE: _M_default_append:__n <- $r15
	.loc	6 0 1                   # /usr/include/c++/9/bits/stl_uninitialized.h:0:1
	movq	%r15, %r10
	movq	%rbx, %r12
.Ltmp41:
	#DEBUG_VALUE: __uninitialized_default_n_a:__first <- $r12
	jmp	.LBB1_7
.Ltmp42:
.LBB1_4:                                # %vector.ph
	#DEBUG_VALUE: __alloc <- $r14
	#DEBUG_VALUE: __uninitialized_default_n_a:__alloc <- $r14
	#DEBUG_VALUE: __n <- $r15
	#DEBUG_VALUE: __uninitialized_default_n_a:__n <- $r15
	#DEBUG_VALUE: __cur <- $rbx
	#DEBUG_VALUE: __first <- $rbx
	#DEBUG_VALUE: __uninitialized_default_n_a:__first <- $rbx
	#DEBUG_VALUE:  <- $r14
	#DEBUG_VALUE: _M_default_append: <- $r14
	#DEBUG_VALUE: __n <- $r15
	#DEBUG_VALUE: _M_default_append:__n <- $r15
	.loc	6 648 1                 # /usr/include/c++/9/bits/stl_uninitialized.h:648:1
	movq	%r15, %r9
	andq	$-32, %r9
	movl	%r15d, %r10d
	andl	$31, %r10d
	leaq	(%rbx,%r9,4), %r12
	addq	$124, %rbx
.Ltmp43:
	.loc	6 0 1                   # /usr/include/c++/9/bits/stl_uninitialized.h:0:1
	vpxor	%xmm0, %xmm0, %xmm0
	vpcmpeqd	%ymm1, %ymm1, %ymm1
	movq	%r9, -48(%rbp)          # 8-byte Spill
.Ltmp44:
	.p2align	4, 0x90
.LBB1_5:                                # %vector.body
                                        # =>This Inner Loop Header: Depth=1
	#DEBUG_VALUE: __alloc <- $r14
	#DEBUG_VALUE: __uninitialized_default_n_a:__alloc <- $r14
	#DEBUG_VALUE: __n <- $r15
	#DEBUG_VALUE: __uninitialized_default_n_a:__n <- $r15
	#DEBUG_VALUE:  <- $r14
	#DEBUG_VALUE: _M_default_append: <- $r14
	#DEBUG_VALUE: __n <- $r15
	#DEBUG_VALUE: _M_default_append:__n <- $r15
	leaq	-124(%rbx), %rdi
	leaq	-120(%rbx), %rdx
	leaq	-116(%rbx), %rsi
	leaq	-112(%rbx), %rax
	leaq	-108(%rbx), %r11
	leaq	-104(%rbx), %r13
	leaq	-100(%rbx), %rcx
	leaq	-96(%rbx), %r8
	vmovq	%rax, %xmm2
	vmovq	%rsi, %xmm3
	vpunpcklqdq	%xmm2, %xmm3, %xmm2 # xmm2 = xmm3[0],xmm2[0]
	vmovq	%rdx, %xmm3
	vmovq	%rdi, %xmm4
	vpunpcklqdq	%xmm3, %xmm4, %xmm3 # xmm3 = xmm4[0],xmm3[0]
	vinserti128	$1, %xmm2, %ymm3, %ymm10
	vmovq	%r8, %xmm3
	vmovq	%rcx, %xmm4
	vpunpcklqdq	%xmm3, %xmm4, %xmm3 # xmm3 = xmm4[0],xmm3[0]
	vmovq	%r13, %xmm4
	vmovq	%r11, %xmm5
	vpunpcklqdq	%xmm4, %xmm5, %xmm4 # xmm4 = xmm5[0],xmm4[0]
	vinserti128	$1, %xmm3, %ymm4, %ymm12
	leaq	-92(%rbx), %r13
	leaq	-88(%rbx), %rcx
	leaq	-84(%rbx), %rdx
	leaq	-80(%rbx), %rsi
	leaq	-76(%rbx), %r8
	leaq	-72(%rbx), %r11
	leaq	-68(%rbx), %rdi
	leaq	-64(%rbx), %rax
	vmovq	%rsi, %xmm3
	vmovq	%rdx, %xmm5
	vpunpcklqdq	%xmm3, %xmm5, %xmm3 # xmm3 = xmm5[0],xmm3[0]
	vmovq	%rcx, %xmm5
	vmovq	%r13, %xmm6
	vpunpcklqdq	%xmm5, %xmm6, %xmm5 # xmm5 = xmm6[0],xmm5[0]
	vinserti128	$1, %xmm3, %ymm5, %ymm11
	vmovq	%rax, %xmm5
	vmovq	%rdi, %xmm6
	vpunpcklqdq	%xmm5, %xmm6, %xmm5 # xmm5 = xmm6[0],xmm5[0]
	vmovq	%r11, %xmm6
	vmovq	%r8, %xmm7
	vpunpcklqdq	%xmm6, %xmm7, %xmm6 # xmm6 = xmm7[0],xmm6[0]
	vinserti128	$1, %xmm5, %ymm6, %ymm6
	leaq	-60(%rbx), %r13
	leaq	-56(%rbx), %rcx
	leaq	-52(%rbx), %rdx
	leaq	-48(%rbx), %rsi
	leaq	-44(%rbx), %r8
	leaq	-40(%rbx), %r11
	leaq	-36(%rbx), %rdi
	leaq	-32(%rbx), %rax
	vmovq	%rsi, %xmm5
	vmovq	%rdx, %xmm7
	vpunpcklqdq	%xmm5, %xmm7, %xmm5 # xmm5 = xmm7[0],xmm5[0]
	vmovq	%rcx, %xmm7
	vmovq	%r13, %xmm2
	vpunpcklqdq	%xmm7, %xmm2, %xmm2 # xmm2 = xmm2[0],xmm7[0]
	vinserti128	$1, %xmm5, %ymm2, %ymm5
	vmovq	%rax, %xmm2
	vmovq	%rdi, %xmm7
	vpunpcklqdq	%xmm2, %xmm7, %xmm2 # xmm2 = xmm7[0],xmm2[0]
	vmovq	%r11, %xmm7
	vmovq	%r8, %xmm3
	vpunpcklqdq	%xmm7, %xmm3, %xmm3 # xmm3 = xmm3[0],xmm7[0]
	vinserti128	$1, %xmm2, %ymm3, %ymm8
	leaq	-28(%rbx), %rax
	leaq	-24(%rbx), %rcx
	leaq	-20(%rbx), %rdx
	leaq	-16(%rbx), %rsi
	leaq	-12(%rbx), %r8
	leaq	-8(%rbx), %r11
	leaq	-4(%rbx), %rdi
	vmovq	%rsi, %xmm2
	vmovq	%rdx, %xmm3
	vpunpcklqdq	%xmm2, %xmm3, %xmm2 # xmm2 = xmm3[0],xmm2[0]
	vmovq	%rcx, %xmm3
	vmovq	%rax, %xmm7
	vpunpcklqdq	%xmm3, %xmm7, %xmm3 # xmm3 = xmm7[0],xmm3[0]
	vinserti128	$1, %xmm2, %ymm3, %ymm7
	vmovq	%rbx, %xmm2
	vmovq	%rdi, %xmm3
	vpunpcklqdq	%xmm2, %xmm3, %xmm2 # xmm2 = xmm3[0],xmm2[0]
	vmovq	%r11, %xmm3
	vmovq	%r8, %xmm4
	vpunpcklqdq	%xmm3, %xmm4, %xmm3 # xmm3 = xmm4[0],xmm3[0]
	vinserti128	$1, %xmm2, %ymm3, %ymm9
	vpcmpeqq	%ymm0, %ymm12, %ymm2
	vpxor	%ymm1, %ymm2, %ymm2
	vextracti128	$1, %ymm2, %xmm3
	vpackssdw	%xmm3, %xmm2, %xmm2
	vpcmpeqq	%ymm0, %ymm10, %ymm3
	vpxor	%ymm1, %ymm3, %ymm3
	vextracti128	$1, %ymm3, %xmm4
	vpackssdw	%xmm4, %xmm3, %xmm3
	vpackssdw	%xmm2, %xmm3, %xmm2
	vpmovzxwd	%xmm2, %ymm2    # ymm2 = xmm2[0],zero,xmm2[1],zero,xmm2[2],zero,xmm2[3],zero,xmm2[4],zero,xmm2[5],zero,xmm2[6],zero,xmm2[7],zero
	vpslld	$31, %ymm2, %ymm2
	vpcmpeqq	%ymm0, %ymm6, %ymm3
	vpxor	%ymm1, %ymm3, %ymm3
	vextracti128	$1, %ymm3, %xmm4
	vpackssdw	%xmm4, %xmm3, %xmm3
	vpcmpeqq	%ymm0, %ymm11, %ymm4
	vpxor	%ymm1, %ymm4, %ymm4
	vextracti128	$1, %ymm4, %xmm6
	vpackssdw	%xmm6, %xmm4, %xmm4
	vpackssdw	%xmm3, %xmm4, %xmm3
	vpmovzxwd	%xmm3, %ymm3    # ymm3 = xmm3[0],zero,xmm3[1],zero,xmm3[2],zero,xmm3[3],zero,xmm3[4],zero,xmm3[5],zero,xmm3[6],zero,xmm3[7],zero
	vpslld	$31, %ymm3, %ymm3
	vpcmpeqq	%ymm0, %ymm8, %ymm4
	vpxor	%ymm1, %ymm4, %ymm4
	vextracti128	$1, %ymm4, %xmm6
	vpackssdw	%xmm6, %xmm4, %xmm4
	vpcmpeqq	%ymm0, %ymm5, %ymm5
	vpxor	%ymm1, %ymm5, %ymm5
	vextracti128	$1, %ymm5, %xmm6
	vpackssdw	%xmm6, %xmm5, %xmm5
	vpackssdw	%xmm4, %xmm5, %xmm4
	vpmovzxwd	%xmm4, %ymm4    # ymm4 = xmm4[0],zero,xmm4[1],zero,xmm4[2],zero,xmm4[3],zero,xmm4[4],zero,xmm4[5],zero,xmm4[6],zero,xmm4[7],zero
	vpslld	$31, %ymm4, %ymm4
	vpcmpeqq	%ymm0, %ymm9, %ymm5
	vpxor	%ymm1, %ymm5, %ymm5
	vextracti128	$1, %ymm5, %xmm6
	vpackssdw	%xmm6, %xmm5, %xmm5
	vpcmpeqq	%ymm0, %ymm7, %ymm6
	vpxor	%ymm1, %ymm6, %ymm6
	vextracti128	$1, %ymm6, %xmm7
	vpackssdw	%xmm7, %xmm6, %xmm6
	vpackssdw	%xmm5, %xmm6, %xmm5
	vpmovzxwd	%xmm5, %ymm5    # ymm5 = xmm5[0],zero,xmm5[1],zero,xmm5[2],zero,xmm5[3],zero,xmm5[4],zero,xmm5[5],zero,xmm5[6],zero,xmm5[7],zero
	vpslld	$31, %ymm5, %ymm5
	.loc	6 351 1 is_stmt 1       # /usr/include/c++/9/bits/stl_uninitialized.h:351:1
	vmaskmovps	%ymm0, %ymm2, -124(%rbx)
	vmaskmovps	%ymm0, %ymm3, -92(%rbx)
	vmaskmovps	%ymm0, %ymm4, -60(%rbx)
	vmaskmovps	%ymm0, %ymm5, -28(%rbx)
	subq	$-128, %rbx
	addq	$-32, %r9
	jne	.LBB1_5
.Ltmp45:
# %bb.6:                                # %middle.block
	#DEBUG_VALUE: __alloc <- $r14
	#DEBUG_VALUE: __uninitialized_default_n_a:__alloc <- $r14
	#DEBUG_VALUE: __n <- $r15
	#DEBUG_VALUE: __uninitialized_default_n_a:__n <- $r15
	#DEBUG_VALUE:  <- $r14
	#DEBUG_VALUE: _M_default_append: <- $r14
	#DEBUG_VALUE: __n <- $r15
	#DEBUG_VALUE: _M_default_append:__n <- $r15
	.loc	6 648 1                 # /usr/include/c++/9/bits/stl_uninitialized.h:648:1
	cmpq	%r15, -48(%rbp)         # 8-byte Folded Reload
	jne	.LBB1_7
.Ltmp46:
.LBB1_10:                               # %_ZSt27__uninitialized_default_n_aIPfm17aligned_allocatorIfLm64EEET_S3_T0_RT1_.exit55
	#DEBUG_VALUE:  <- $r14
	#DEBUG_VALUE: _M_default_append: <- $r14
	#DEBUG_VALUE: __n <- $r15
	#DEBUG_VALUE: _M_default_append:__n <- $r15
	.loc	4 274 1                 # /usr/include/c++/9/bits/vector.tcc:274:1
	movq	%r12, 8(%r14)
	jmp	.LBB1_37
.Ltmp47:
	.p2align	4, 0x90
.LBB1_9:                                # %L..inline.109139.i53
                                        #   in Loop: Header=BB1_7 Depth=1
	#DEBUG_VALUE: __n <- $r10
	#DEBUG_VALUE: __cur <- $r12
	#DEBUG_VALUE: __alloc <- $r14
	#DEBUG_VALUE: __uninitialized_default_n_a:__alloc <- $r14
	#DEBUG_VALUE:  <- $r14
	#DEBUG_VALUE: _M_default_append: <- $r14
	#DEBUG_VALUE: __n <- $r15
	#DEBUG_VALUE: _M_default_append:__n <- $r15
	.loc	6 649 1                 # /usr/include/c++/9/bits/stl_uninitialized.h:649:1
	addq	$4, %r12
.Ltmp48:
	#DEBUG_VALUE: __cur <- $r12
	.loc	6 648 1                 # /usr/include/c++/9/bits/stl_uninitialized.h:648:1
	decq	%r10
.Ltmp49:
	#DEBUG_VALUE: __n <- $r10
	#DEBUG_VALUE: __uninitialized_default_n_a:__n <- $r10
	je	.LBB1_10
.Ltmp50:
.LBB1_7:                                # %L.B4448.i51
                                        # =>This Inner Loop Header: Depth=1
	#DEBUG_VALUE: __alloc <- $r14
	#DEBUG_VALUE: __uninitialized_default_n_a:__alloc <- $r14
	#DEBUG_VALUE:  <- $r14
	#DEBUG_VALUE: _M_default_append: <- $r14
	#DEBUG_VALUE: __n <- $r15
	#DEBUG_VALUE: _M_default_append:__n <- $r15
	#DEBUG_VALUE: __cur <- $r12
	#DEBUG_VALUE: __n <- $r10
	.loc	6 351 1                 # /usr/include/c++/9/bits/stl_uninitialized.h:351:1
	testq	%r12, %r12
	je	.LBB1_9
.Ltmp51:
# %bb.8:                                # %L.B4449.i52
                                        #   in Loop: Header=BB1_7 Depth=1
	#DEBUG_VALUE: __n <- $r10
	#DEBUG_VALUE: __cur <- $r12
	#DEBUG_VALUE: __alloc <- $r14
	#DEBUG_VALUE: __uninitialized_default_n_a:__alloc <- $r14
	#DEBUG_VALUE:  <- $r14
	#DEBUG_VALUE: _M_default_append: <- $r14
	#DEBUG_VALUE: __n <- $r15
	#DEBUG_VALUE: _M_default_append:__n <- $r15
	movl	$0, (%r12)
	jmp	.LBB1_9
.Ltmp52:
.LBB1_20:                               # %vector.ph101
	#DEBUG_VALUE: __uninitialized_default_n_a:__first <- $r11
	#DEBUG_VALUE: __first <- $r11
	#DEBUG_VALUE: __uninitialized_default_n_a:__n <- $r15
	#DEBUG_VALUE: __n <- $r15
	#DEBUG_VALUE: __uninitialized_default_n_a:__alloc <- $r14
	#DEBUG_VALUE: __alloc <- $r14
	#DEBUG_VALUE: __cur <- $r11
	#DEBUG_VALUE:  <- $r14
	#DEBUG_VALUE: _M_default_append: <- $r14
	#DEBUG_VALUE: __n <- $r15
	#DEBUG_VALUE: _M_default_append:__n <- $r15
	.loc	6 0 1 is_stmt 0         # /usr/include/c++/9/bits/stl_uninitialized.h:0:1
	movq	%r12, -64(%rbp)         # 8-byte Spill
	movq	%r14, -48(%rbp)         # 8-byte Spill
.Ltmp53:
	#DEBUG_VALUE: _M_default_append: <- [DW_OP_constu 48, DW_OP_minus] [$rbp+0]
	.loc	6 648 1 is_stmt 1       # /usr/include/c++/9/bits/stl_uninitialized.h:648:1
	movq	%r15, %r9
	andq	$-32, %r9
	movq	%r15, -72(%rbp)         # 8-byte Spill
.Ltmp54:
	#DEBUG_VALUE: _M_default_append:__n <- [DW_OP_constu 72, DW_OP_minus] [$rbp+0]
	movl	%r15d, %r10d
	andl	$31, %r10d
	leaq	(%r11,%r9,4), %r11
.Ltmp55:
	leaq	(%rbx,%r13), %rsi
	addq	$124, %rsi
	vpxor	%xmm0, %xmm0, %xmm0
	vpcmpeqd	%ymm1, %ymm1, %ymm1
	movq	%r9, -56(%rbp)          # 8-byte Spill
.Ltmp56:
	.p2align	4, 0x90
.LBB1_21:                               # %vector.body99
                                        # =>This Inner Loop Header: Depth=1
	#DEBUG_VALUE: _M_default_append:__n <- [DW_OP_constu 72, DW_OP_minus] [$rbp+0]
	#DEBUG_VALUE: _M_default_append: <- [DW_OP_constu 48, DW_OP_minus] [$rbp+0]
	.loc	6 0 1 is_stmt 0         # /usr/include/c++/9/bits/stl_uninitialized.h:0:1
	leaq	-124(%rsi), %rdx
	leaq	-120(%rsi), %rdi
	leaq	-116(%rsi), %rcx
	leaq	-112(%rsi), %rax
	leaq	-108(%rsi), %r12
	leaq	-104(%rsi), %r8
	leaq	-100(%rsi), %r14
	leaq	-96(%rsi), %r15
	vmovq	%rax, %xmm2
	vmovq	%rcx, %xmm3
	vpunpcklqdq	%xmm2, %xmm3, %xmm2 # xmm2 = xmm3[0],xmm2[0]
	vmovq	%rdi, %xmm3
	vmovq	%rdx, %xmm4
	vpunpcklqdq	%xmm3, %xmm4, %xmm3 # xmm3 = xmm4[0],xmm3[0]
	vinserti128	$1, %xmm2, %ymm3, %ymm10
	vmovq	%r15, %xmm3
	vmovq	%r14, %xmm4
	vpunpcklqdq	%xmm3, %xmm4, %xmm3 # xmm3 = xmm4[0],xmm3[0]
	vmovq	%r8, %xmm4
	vmovq	%r12, %xmm5
	vpunpcklqdq	%xmm4, %xmm5, %xmm4 # xmm4 = xmm5[0],xmm4[0]
	vinserti128	$1, %xmm3, %ymm4, %ymm12
	leaq	-92(%rsi), %r15
	leaq	-88(%rsi), %rcx
	leaq	-84(%rsi), %rdx
	leaq	-80(%rsi), %rdi
	leaq	-76(%rsi), %r8
	leaq	-72(%rsi), %r14
	leaq	-68(%rsi), %r12
	leaq	-64(%rsi), %rax
	vmovq	%rdi, %xmm3
	vmovq	%rdx, %xmm5
	vpunpcklqdq	%xmm3, %xmm5, %xmm3 # xmm3 = xmm5[0],xmm3[0]
	vmovq	%rcx, %xmm5
	vmovq	%r15, %xmm6
	vpunpcklqdq	%xmm5, %xmm6, %xmm5 # xmm5 = xmm6[0],xmm5[0]
	vinserti128	$1, %xmm3, %ymm5, %ymm11
	vmovq	%rax, %xmm5
	vmovq	%r12, %xmm6
	vpunpcklqdq	%xmm5, %xmm6, %xmm5 # xmm5 = xmm6[0],xmm5[0]
	vmovq	%r14, %xmm6
	vmovq	%r8, %xmm7
	vpunpcklqdq	%xmm6, %xmm7, %xmm6 # xmm6 = xmm7[0],xmm6[0]
	vinserti128	$1, %xmm5, %ymm6, %ymm6
	leaq	-60(%rsi), %r15
	leaq	-56(%rsi), %rcx
	leaq	-52(%rsi), %rdx
	leaq	-48(%rsi), %rdi
	leaq	-44(%rsi), %r8
	leaq	-40(%rsi), %r14
	leaq	-36(%rsi), %r12
	leaq	-32(%rsi), %rax
	vmovq	%rdi, %xmm5
	vmovq	%rdx, %xmm7
	vpunpcklqdq	%xmm5, %xmm7, %xmm5 # xmm5 = xmm7[0],xmm5[0]
	vmovq	%rcx, %xmm7
	vmovq	%r15, %xmm2
	vpunpcklqdq	%xmm7, %xmm2, %xmm2 # xmm2 = xmm2[0],xmm7[0]
	vinserti128	$1, %xmm5, %ymm2, %ymm5
	vmovq	%rax, %xmm2
	vmovq	%r12, %xmm7
	vpunpcklqdq	%xmm2, %xmm7, %xmm2 # xmm2 = xmm7[0],xmm2[0]
	vmovq	%r14, %xmm7
	vmovq	%r8, %xmm3
	vpunpcklqdq	%xmm7, %xmm3, %xmm3 # xmm3 = xmm3[0],xmm7[0]
	vinserti128	$1, %xmm2, %ymm3, %ymm8
	leaq	-28(%rsi), %r15
	leaq	-24(%rsi), %rcx
	leaq	-20(%rsi), %rdx
	leaq	-16(%rsi), %rdi
	leaq	-12(%rsi), %r8
	leaq	-8(%rsi), %r14
	leaq	-4(%rsi), %rax
	vmovq	%rdi, %xmm2
	vmovq	%rdx, %xmm3
	vpunpcklqdq	%xmm2, %xmm3, %xmm2 # xmm2 = xmm3[0],xmm2[0]
	vmovq	%rcx, %xmm3
	vmovq	%r15, %xmm7
	vpunpcklqdq	%xmm3, %xmm7, %xmm3 # xmm3 = xmm7[0],xmm3[0]
	vinserti128	$1, %xmm2, %ymm3, %ymm7
	vmovq	%rsi, %xmm2
	vmovq	%rax, %xmm3
	vpunpcklqdq	%xmm2, %xmm3, %xmm2 # xmm2 = xmm3[0],xmm2[0]
	vmovq	%r14, %xmm3
	vmovq	%r8, %xmm4
	vpunpcklqdq	%xmm3, %xmm4, %xmm3 # xmm3 = xmm4[0],xmm3[0]
	vinserti128	$1, %xmm2, %ymm3, %ymm9
	vpcmpeqq	%ymm0, %ymm12, %ymm2
	vpxor	%ymm1, %ymm2, %ymm2
	vextracti128	$1, %ymm2, %xmm3
	vpackssdw	%xmm3, %xmm2, %xmm2
	vpcmpeqq	%ymm0, %ymm10, %ymm3
	vpxor	%ymm1, %ymm3, %ymm3
	vextracti128	$1, %ymm3, %xmm4
	vpackssdw	%xmm4, %xmm3, %xmm3
	vpackssdw	%xmm2, %xmm3, %xmm2
	vpmovzxwd	%xmm2, %ymm2    # ymm2 = xmm2[0],zero,xmm2[1],zero,xmm2[2],zero,xmm2[3],zero,xmm2[4],zero,xmm2[5],zero,xmm2[6],zero,xmm2[7],zero
	vpslld	$31, %ymm2, %ymm2
	vpcmpeqq	%ymm0, %ymm6, %ymm3
	vpxor	%ymm1, %ymm3, %ymm3
	vextracti128	$1, %ymm3, %xmm4
	vpackssdw	%xmm4, %xmm3, %xmm3
	vpcmpeqq	%ymm0, %ymm11, %ymm4
	vpxor	%ymm1, %ymm4, %ymm4
	vextracti128	$1, %ymm4, %xmm6
	vpackssdw	%xmm6, %xmm4, %xmm4
	vpackssdw	%xmm3, %xmm4, %xmm3
	vpmovzxwd	%xmm3, %ymm3    # ymm3 = xmm3[0],zero,xmm3[1],zero,xmm3[2],zero,xmm3[3],zero,xmm3[4],zero,xmm3[5],zero,xmm3[6],zero,xmm3[7],zero
	vpslld	$31, %ymm3, %ymm3
	vpcmpeqq	%ymm0, %ymm8, %ymm4
	vpxor	%ymm1, %ymm4, %ymm4
	vextracti128	$1, %ymm4, %xmm6
	vpackssdw	%xmm6, %xmm4, %xmm4
	vpcmpeqq	%ymm0, %ymm5, %ymm5
	vpxor	%ymm1, %ymm5, %ymm5
	vextracti128	$1, %ymm5, %xmm6
	vpackssdw	%xmm6, %xmm5, %xmm5
	vpackssdw	%xmm4, %xmm5, %xmm4
	vpmovzxwd	%xmm4, %ymm4    # ymm4 = xmm4[0],zero,xmm4[1],zero,xmm4[2],zero,xmm4[3],zero,xmm4[4],zero,xmm4[5],zero,xmm4[6],zero,xmm4[7],zero
	vpslld	$31, %ymm4, %ymm4
	vpcmpeqq	%ymm0, %ymm9, %ymm5
	vpxor	%ymm1, %ymm5, %ymm5
	vextracti128	$1, %ymm5, %xmm6
	vpackssdw	%xmm6, %xmm5, %xmm5
	vpcmpeqq	%ymm0, %ymm7, %ymm6
	vpxor	%ymm1, %ymm6, %ymm6
	vextracti128	$1, %ymm6, %xmm7
	vpackssdw	%xmm7, %xmm6, %xmm6
	vpackssdw	%xmm5, %xmm6, %xmm5
	vpmovzxwd	%xmm5, %ymm5    # ymm5 = xmm5[0],zero,xmm5[1],zero,xmm5[2],zero,xmm5[3],zero,xmm5[4],zero,xmm5[5],zero,xmm5[6],zero,xmm5[7],zero
	vpslld	$31, %ymm5, %ymm5
	.loc	6 351 1 is_stmt 1       # /usr/include/c++/9/bits/stl_uninitialized.h:351:1
	vmaskmovps	%ymm0, %ymm2, -124(%rsi)
	vmaskmovps	%ymm0, %ymm3, -92(%rsi)
	vmaskmovps	%ymm0, %ymm4, -60(%rsi)
	vmaskmovps	%ymm0, %ymm5, -28(%rsi)
	subq	$-128, %rsi
	addq	$-32, %r9
	jne	.LBB1_21
.Ltmp57:
# %bb.22:                               # %middle.block97
	#DEBUG_VALUE: _M_default_append:__n <- [DW_OP_constu 72, DW_OP_minus] [$rbp+0]
	#DEBUG_VALUE: _M_default_append: <- [DW_OP_constu 48, DW_OP_minus] [$rbp+0]
	.loc	6 0 1 is_stmt 0         # /usr/include/c++/9/bits/stl_uninitialized.h:0:1
	movq	-72(%rbp), %r15         # 8-byte Reload
.Ltmp58:
	#DEBUG_VALUE: _M_default_append:__n <- $r15
	.loc	6 648 1 is_stmt 1       # /usr/include/c++/9/bits/stl_uninitialized.h:648:1
	cmpq	%r15, -56(%rbp)         # 8-byte Folded Reload
	movq	-48(%rbp), %r14         # 8-byte Reload
.Ltmp59:
	#DEBUG_VALUE: _M_default_append: <- $r14
	.loc	6 0 1 is_stmt 0         # /usr/include/c++/9/bits/stl_uninitialized.h:0:1
	movq	-64(%rbp), %r12         # 8-byte Reload
	.loc	6 648 1                 # /usr/include/c++/9/bits/stl_uninitialized.h:648:1
	jne	.LBB1_23
.Ltmp60:
.LBB1_26:                               # %L.B2577
	#DEBUG_VALUE: _M_default_append: <- $r14
	#DEBUG_VALUE: _M_default_append:__n <- $r15
	#DEBUG_VALUE: __destroy_from <- undef
	#DEBUG_VALUE: __cur <- undef
	.loc	4 274 1 is_stmt 1       # /usr/include/c++/9/bits/vector.tcc:274:1
	movq	(%r14), %rcx
.Ltmp61:
	.loc	4 659 1                 # /usr/include/c++/9/bits/vector.tcc:659:1
	movq	8(%r14), %rsi
.Ltmp62:
	#DEBUG_VALUE: __cur <- $r13
	#DEBUG_VALUE: __alloc <- $r14
	#DEBUG_VALUE: __uninitialized_copy_a:__alloc <- $r14
	#DEBUG_VALUE: __result <- $r13
	#DEBUG_VALUE: __uninitialized_copy_a:__result <- $r13
	#DEBUG_VALUE: __uninitialized_copy_a:__last <- undef
	#DEBUG_VALUE: __uninitialized_copy_a:__first <- $rcx
	.loc	6 1159 1                # /usr/include/c++/9/bits/stl_uninitialized.h:1159:1
	movq	%rsi, %rax
.Ltmp63:
	.loc	4 274 1                 # /usr/include/c++/9/bits/vector.tcc:274:1
	movq	%rsi, %rdx
.Ltmp64:
	.loc	6 1159 1                # /usr/include/c++/9/bits/stl_uninitialized.h:1159:1
	subq	%rcx, %rax
	#DEBUG_VALUE: __cur <- $r13
	#DEBUG_VALUE: __alloc <- $r14
	#DEBUG_VALUE: __uninitialized_copy_a:__alloc <- $r14
	#DEBUG_VALUE: __result <- $r13
	#DEBUG_VALUE: __uninitialized_copy_a:__result <- $r13
	#DEBUG_VALUE: __uninitialized_copy_a:__first <- $rcx
	je	.LBB1_32
.Ltmp65:
# %bb.27:                               # %L.B4471.i.preheader
	#DEBUG_VALUE: __uninitialized_copy_a:__first <- $rcx
	#DEBUG_VALUE: __uninitialized_copy_a:__result <- $r13
	#DEBUG_VALUE: __result <- $r13
	#DEBUG_VALUE: __uninitialized_copy_a:__alloc <- $r14
	#DEBUG_VALUE: __alloc <- $r14
	#DEBUG_VALUE: __cur <- $r13
	#DEBUG_VALUE: _M_default_append: <- $r14
	#DEBUG_VALUE: _M_default_append:__n <- $r15
	.loc	6 0 1 is_stmt 0         # /usr/include/c++/9/bits/stl_uninitialized.h:0:1
	xorl	%edx, %edx
	.loc	6 351 1 is_stmt 1       # /usr/include/c++/9/bits/stl_uninitialized.h:351:1
	leaq	4(%rcx), %rsi
	jmp	.LBB1_28
.Ltmp66:
	.p2align	4, 0x90
.LBB1_25:                               # %L..inline.109139.i
                                        #   in Loop: Header=BB1_23 Depth=1
	#DEBUG_VALUE: __n <- $r10
	#DEBUG_VALUE: __cur <- $r11
	#DEBUG_VALUE: _M_default_append: <- $r14
	#DEBUG_VALUE: _M_default_append:__n <- $r15
	.loc	6 649 1                 # /usr/include/c++/9/bits/stl_uninitialized.h:649:1
	addq	$4, %r11
.Ltmp67:
	#DEBUG_VALUE: __cur <- $r11
	.loc	6 648 1                 # /usr/include/c++/9/bits/stl_uninitialized.h:648:1
	decq	%r10
.Ltmp68:
	#DEBUG_VALUE: __n <- $r10
	#DEBUG_VALUE: __uninitialized_default_n_a:__n <- $r10
	je	.LBB1_26
.Ltmp69:
.LBB1_23:                               # %L.B4448.i
                                        # =>This Inner Loop Header: Depth=1
	#DEBUG_VALUE: _M_default_append: <- $r14
	#DEBUG_VALUE: _M_default_append:__n <- $r15
	#DEBUG_VALUE: __n <- $r10
	#DEBUG_VALUE: __cur <- $r11
	.loc	6 351 1                 # /usr/include/c++/9/bits/stl_uninitialized.h:351:1
	testq	%r11, %r11
	je	.LBB1_25
.Ltmp70:
# %bb.24:                               # %L.B4449.i
                                        #   in Loop: Header=BB1_23 Depth=1
	#DEBUG_VALUE: __n <- $r10
	#DEBUG_VALUE: __cur <- $r11
	#DEBUG_VALUE: _M_default_append: <- $r14
	#DEBUG_VALUE: _M_default_append:__n <- $r15
	movl	$0, (%r11)
	jmp	.LBB1_25
.Ltmp71:
	.p2align	4, 0x90
.LBB1_30:                               # %L..inline.109365.i
                                        #   in Loop: Header=BB1_28 Depth=1
	#DEBUG_VALUE: __uninitialized_copy_a:__result <- $r13
	#DEBUG_VALUE: __result <- $r13
	#DEBUG_VALUE: __uninitialized_copy_a:__alloc <- $r14
	#DEBUG_VALUE: __alloc <- $r14
	#DEBUG_VALUE: __cur <- $r13
	#DEBUG_VALUE: _M_default_append: <- $r14
	#DEBUG_VALUE: _M_default_append:__n <- $r15
	.loc	6 293 1                 # /usr/include/c++/9/bits/stl_uninitialized.h:293:1
	leaq	(%rsi,%rdx), %rcx
.Ltmp72:
	#DEBUG_VALUE: __cur <- [DW_OP_plus_uconst 4, DW_OP_stack_value] undef
	#DEBUG_VALUE: __uninitialized_copy_a:__first <- $rcx
	.loc	6 1159 1                # /usr/include/c++/9/bits/stl_uninitialized.h:1159:1
	addq	$4, %rdx
	cmpq	%rdx, %rax
	je	.LBB1_31
.Ltmp73:
.LBB1_28:                               # %L.B4471.i
                                        # =>This Inner Loop Header: Depth=1
	#DEBUG_VALUE: __uninitialized_copy_a:__first <- $rcx
	#DEBUG_VALUE: __uninitialized_copy_a:__result <- $r13
	#DEBUG_VALUE: __result <- $r13
	#DEBUG_VALUE: __uninitialized_copy_a:__alloc <- $r14
	#DEBUG_VALUE: __alloc <- $r14
	#DEBUG_VALUE: __cur <- $r13
	#DEBUG_VALUE: _M_default_append: <- $r14
	#DEBUG_VALUE: _M_default_append:__n <- $r15
	#DEBUG_VALUE: __uninitialized_copy_a:__first <- $rcx
	#DEBUG_VALUE: __cur <- undef
	.loc	6 351 1                 # /usr/include/c++/9/bits/stl_uninitialized.h:351:1
	movq	%r13, %rdi
	addq	%rdx, %rdi
	je	.LBB1_30
.Ltmp74:
# %bb.29:                               # %L.B4472.i
                                        #   in Loop: Header=BB1_28 Depth=1
	#DEBUG_VALUE: __uninitialized_copy_a:__first <- $rcx
	#DEBUG_VALUE: __uninitialized_copy_a:__result <- $r13
	#DEBUG_VALUE: __result <- $r13
	#DEBUG_VALUE: __uninitialized_copy_a:__alloc <- $r14
	#DEBUG_VALUE: __alloc <- $r14
	#DEBUG_VALUE: __cur <- $r13
	#DEBUG_VALUE: _M_default_append: <- $r14
	#DEBUG_VALUE: _M_default_append:__n <- $r15
	movl	(%rcx), %ecx
.Ltmp75:
	movl	%ecx, (%r13,%rdx)
	jmp	.LBB1_30
.Ltmp76:
.LBB1_31:                               # %L_T21977800_53431.loopexit
	#DEBUG_VALUE: _M_default_append: <- $r14
	#DEBUG_VALUE: _M_default_append:__n <- $r15
	.loc	4 274 1                 # /usr/include/c++/9/bits/vector.tcc:274:1
	movq	(%r14), %rdx
.Ltmp77:
	.loc	4 671 1                 # /usr/include/c++/9/bits/vector.tcc:671:1
	movq	8(%r14), %rsi
.Ltmp78:
.LBB1_32:                               # %L_T21977800_53431
	#DEBUG_VALUE: _M_default_append: <- $r14
	#DEBUG_VALUE: _M_default_append:__n <- $r15
	.loc	4 0 1 is_stmt 0         # /usr/include/c++/9/bits/vector.tcc:0:1
	subq	%rdx, %rsi
	addq	$4, %rsi
.Ltmp79:
	.p2align	4, 0x90
.LBB1_33:                               # %L..inline.83876
                                        # =>This Inner Loop Header: Depth=1
	#DEBUG_VALUE: _M_default_append: <- $r14
	#DEBUG_VALUE: _M_default_append:__n <- $r15
	.loc	4 197 1 is_stmt 1       # /usr/include/c++/9/bits/vector.tcc:197:1
	addq	$-4, %rsi
	jne	.LBB1_33
.Ltmp80:
# %bb.34:                               # %L.B0055
	#DEBUG_VALUE: _M_default_append: <- $r14
	#DEBUG_VALUE: _M_default_append:__n <- $r15
	.loc	4 675 1                 # /usr/include/c++/9/bits/vector.tcc:675:1
	testq	%rdx, %rdx
	je	.LBB1_36
.Ltmp81:
# %bb.35:                               # %L.B2580
	#DEBUG_VALUE: _M_default_append: <- $r14
	#DEBUG_VALUE: _M_default_append:__n <- $r15
	.loc	4 351 1                 # /usr/include/c++/9/bits/vector.tcc:351:1
	movq	-8(%rdx), %rdi
	vzeroupper
	callq	free
.Ltmp82:
.LBB1_36:                               # %L..inline.83913
	#DEBUG_VALUE: _M_default_append: <- $r14
	#DEBUG_VALUE: _M_default_append:__n <- $r15
	.loc	4 678 1                 # /usr/include/c++/9/bits/vector.tcc:678:1
	movq	%r13, (%r14)
	.loc	4 679 1                 # /usr/include/c++/9/bits/vector.tcc:679:1
	leaq	(%rbx,%r15,4), %rax
	addq	%r13, %rax
	movq	%rax, 8(%r14)
	.loc	4 680 1                 # /usr/include/c++/9/bits/vector.tcc:680:1
	leaq	(,%r12,4), %rax
	addq	%r13, %rax
	movq	%rax, 16(%r14)
.Ltmp83:
.LBB1_37:                               # %L.R0116
	.loc	4 683 1                 # /usr/include/c++/9/bits/vector.tcc:683:1
	addq	$40, %rsp
	popq	%rbx
	popq	%r12
	popq	%r13
	popq	%r14
	popq	%r15
	popq	%rbp
	.cfi_def_cfa %rsp, 8
	vzeroupper
	retq
.LBB1_15:
	.cfi_def_cfa %rbp, 16
.Ltmp84:
	#DEBUG_VALUE:  <- $r14
	#DEBUG_VALUE: _M_default_append: <- $r14
	#DEBUG_VALUE: __n <- $r15
	#DEBUG_VALUE: _M_default_append:__n <- $r15
	.loc	4 0 1 is_stmt 0         # /usr/include/c++/9/bits/vector.tcc:0:1
	xorl	%r12d, %r12d
	.loc	4 343 1 is_stmt 1       # /usr/include/c++/9/bits/vector.tcc:343:1
	xorl	%r13d, %r13d
	jmp	.LBB1_18
.Ltmp85:
.LBB1_39:                               # %L.B2210.i
	#DEBUG_VALUE:  <- $r14
	#DEBUG_VALUE: allocate: <- $r14
	#DEBUG_VALUE:  <- $r14
	#DEBUG_VALUE: _M_default_append: <- $r14
	#DEBUG_VALUE: __n <- $r15
	#DEBUG_VALUE: _M_default_append:__n <- $r15
	.loc	5 200 1                 # projects/../memoryallocation.h:200:1
	movl	$8, %edi
	callq	__cxa_allocate_exception
.Ltmp86:
	.loc	5 57 1                  # projects/../memoryallocation.h:57:1
	movq	$_ZTVSt9bad_alloc+16, (%rax)
.Ltmp87:
	.loc	5 200 1                 # projects/../memoryallocation.h:200:1
	movl	$_ZTISt9bad_alloc, %esi
	movl	$_ZNSt9bad_allocD1Ev, %edx
	movq	%rax, %rdi
	xorl	%eax, %eax
	callq	__cxa_throw
.Ltmp88:
.LBB1_38:                               # %L.B2570
	#DEBUG_VALUE:  <- $r14
	#DEBUG_VALUE: _M_default_append: <- $r14
	#DEBUG_VALUE: __n <- $r15
	#DEBUG_VALUE: _M_default_append:__n <- $r15
	.loc	4 1756 1                # /usr/include/c++/9/bits/vector.tcc:1756:1
	movl	$.S56097, %edi
	callq	_ZSt20__throw_length_errorPKc
.Ltmp89:
.Lfunc_end1:
	.size	_ZNSt6vectorIf17aligned_allocatorIfLm64EEE17_M_default_appendEm, .Lfunc_end1-_ZNSt6vectorIf17aligned_allocatorIfLm64EEE17_M_default_appendEm
	.cfi_endproc
                                        # -- End function
	.weak	_ZNSt6vectorId17aligned_allocatorIdLm6EEE17_M_default_appendEm # -- Begin function _ZNSt6vectorId17aligned_allocatorIdLm6EEE17_M_default_appendEm
	.p2align	4, 0x90
	.type	_ZNSt6vectorId17aligned_allocatorIdLm6EEE17_M_default_appendEm,@function
_ZNSt6vectorId17aligned_allocatorIdLm6EEE17_M_default_appendEm: # @_ZNSt6vectorId17aligned_allocatorIdLm6EEE17_M_default_appendEm
.Lfunc_begin2:
	.loc	4 613 0                 # /usr/include/c++/9/bits/vector.tcc:613:0
	.cfi_startproc
# %bb.0:                                # %L.entry
	#DEBUG_VALUE: _M_default_append: <- $rdi
	#DEBUG_VALUE: _M_default_append:__n <- $rsi
	#DEBUG_VALUE: _M_default_append:__n <- $rsi
	#DEBUG_VALUE: _M_default_append: <- $rdi
	pushq	%rbp
	.cfi_def_cfa_offset 16
	.cfi_offset %rbp, -16
	movq	%rsp, %rbp
	.cfi_def_cfa_register %rbp
.Ltmp90:
	pushq	%r15
	pushq	%r14
	pushq	%r13
	pushq	%r12
	pushq	%rbx
	pushq	%rax
	.cfi_offset %rbx, -56
	.cfi_offset %r12, -48
	.cfi_offset %r13, -40
	.cfi_offset %r14, -32
	.cfi_offset %r15, -24
.Ltmp91:
	#DEBUG_VALUE:  <- $rdi
	#DEBUG_VALUE: __n <- $rsi
	#DEBUG_VALUE: __n <- $rsi
	#DEBUG_VALUE:  <- $rdi
	.loc	4 614 1 prologue_end    # /usr/include/c++/9/bits/vector.tcc:614:1
	testq	%rsi, %rsi
	je	.LBB2_37
.Ltmp92:
# %bb.1:                                # %L.B2700
	#DEBUG_VALUE: __n <- $rsi
	#DEBUG_VALUE:  <- $rdi
	#DEBUG_VALUE: _M_default_append:__n <- $rsi
	#DEBUG_VALUE: _M_default_append: <- $rdi
	.loc	4 0 1 is_stmt 0         # /usr/include/c++/9/bits/vector.tcc:0:1
	movq	%rsi, %r15
.Ltmp93:
	#DEBUG_VALUE: _M_default_append:__n <- $r15
	#DEBUG_VALUE: __n <- $r15
	movq	%rdi, %r14
.Ltmp94:
	#DEBUG_VALUE: _M_default_append: <- $r14
	#DEBUG_VALUE:  <- $r14
	.loc	4 616 1 is_stmt 1       # /usr/include/c++/9/bits/vector.tcc:616:1
	movq	8(%rdi), %rbx
	.loc	4 617 1                 # /usr/include/c++/9/bits/vector.tcc:617:1
	movq	16(%rdi), %rax
.Ltmp95:
	#DEBUG_VALUE: __size <- undef
	subq	%rbx, %rax
	sarq	$3, %rax
.Ltmp96:
	#DEBUG_VALUE: __navail <- $rax
	.loc	4 623 1                 # /usr/include/c++/9/bits/vector.tcc:623:1
	cmpq	%rsi, %rax
	jae	.LBB2_2
.Ltmp97:
# %bb.11:                               # %L.B0084
	#DEBUG_VALUE: __navail <- $rax
	#DEBUG_VALUE:  <- $r14
	#DEBUG_VALUE: _M_default_append: <- $r14
	#DEBUG_VALUE: __n <- $r15
	#DEBUG_VALUE: _M_default_append:__n <- $r15
	.loc	4 0 1 is_stmt 0         # /usr/include/c++/9/bits/vector.tcc:0:1
	movabsq	$1152921504606846975, %r12 # imm = 0xFFFFFFFFFFFFFFF
	subq	(%r14), %rbx
	movq	%rbx, %rcx
	sarq	$3, %rcx
.Ltmp98:
	#DEBUG_VALUE: __size <- $rcx
	movq	%rcx, %rax
.Ltmp99:
	xorq	%r12, %rax
	.loc	4 1755 1 is_stmt 1      # /usr/include/c++/9/bits/vector.tcc:1755:1
	cmpq	%r15, %rax
	jb	.LBB2_38
.Ltmp100:
# %bb.12:                               # %L..inline.85034
	#DEBUG_VALUE:  <- $r14
	#DEBUG_VALUE: _M_default_append: <- $r14
	#DEBUG_VALUE: __n <- $r15
	#DEBUG_VALUE: _M_default_append:__n <- $r15
	.loc	4 1758 1                # /usr/include/c++/9/bits/vector.tcc:1758:1
	cmpq	%r15, %rcx
	movq	%rcx, %rax
	cmovbq	%r15, %rax
	addq	%rcx, %rax
	.loc	4 1759 1                # /usr/include/c++/9/bits/vector.tcc:1759:1
	jb	.LBB2_16
.Ltmp101:
# %bb.13:                               # %L..inline.85034
	#DEBUG_VALUE:  <- $r14
	#DEBUG_VALUE: _M_default_append: <- $r14
	#DEBUG_VALUE: __n <- $r15
	#DEBUG_VALUE: _M_default_append:__n <- $r15
	cmpq	%r12, %rax
	ja	.LBB2_16
.Ltmp102:
# %bb.14:                               # %L..inline.85098
	#DEBUG_VALUE:  <- $r14
	#DEBUG_VALUE: _M_default_append: <- $r14
	#DEBUG_VALUE: __n <- $r15
	#DEBUG_VALUE: _M_default_append:__n <- $r15
	.loc	4 0 1 is_stmt 0         # /usr/include/c++/9/bits/vector.tcc:0:1
	movq	%rax, %r12
.Ltmp103:
	#DEBUG_VALUE: __len <- $rax
	.loc	4 635 1 is_stmt 1       # /usr/include/c++/9/bits/vector.tcc:635:1
	testq	%rax, %rax
.Ltmp104:
	#DEBUG_VALUE: __len <- $r12
	je	.LBB2_15
.Ltmp105:
.LBB2_16:                               # %L.B0013.i
	#DEBUG_VALUE:  <- $r14
	#DEBUG_VALUE: _M_default_append: <- $r14
	#DEBUG_VALUE: __n <- $r15
	#DEBUG_VALUE: _M_default_append:__n <- $r15
	#DEBUG_VALUE: allocate: <- $r14
	#DEBUG_VALUE:  <- $r14
	#DEBUG_VALUE: allocate:n <- undef
	#DEBUG_VALUE: n <- undef
	.loc	5 52 1                  # projects/../memoryallocation.h:52:1
	leaq	13(,%r12,8), %rdi
	callq	malloc
	testq	%rax, %rax
	je	.LBB2_39
.Ltmp106:
# %bb.17:                               # %L..inline.79902.i
	#DEBUG_VALUE:  <- $r14
	#DEBUG_VALUE: allocate: <- $r14
	#DEBUG_VALUE:  <- $r14
	#DEBUG_VALUE: _M_default_append: <- $r14
	#DEBUG_VALUE: __n <- $r15
	#DEBUG_VALUE: _M_default_append:__n <- $r15
	.loc	5 55 1                  # projects/../memoryallocation.h:55:1
	movq	%rax, %r13
	addq	$13, %r13
	andq	$-6, %r13
	.loc	5 57 1                  # projects/../memoryallocation.h:57:1
	movq	%rax, -8(%r13)
.Ltmp107:
	#DEBUG_VALUE: pv <- $r13
	.loc	5 198 1                 # projects/../memoryallocation.h:198:1
	je	.LBB2_39
.Ltmp108:
.LBB2_18:                               # %L..inline.85115
	#DEBUG_VALUE:  <- $r14
	#DEBUG_VALUE: _M_default_append: <- $r14
	#DEBUG_VALUE: __n <- $r15
	#DEBUG_VALUE: _M_default_append:__n <- $r15
	#DEBUG_VALUE: __new_start <- $r13
	#DEBUG_VALUE: __destroy_from <- 0
	.loc	4 274 1                 # /usr/include/c++/9/bits/vector.tcc:274:1
	andq	$-8, %rbx
	leaq	(%rbx,%r13), %rax
.Ltmp109:
	#DEBUG_VALUE: __cur <- $rax
	#DEBUG_VALUE: __alloc <- $r14
	#DEBUG_VALUE: __uninitialized_default_n_a:__alloc <- $r14
	#DEBUG_VALUE: __n <- $r15
	#DEBUG_VALUE: __uninitialized_default_n_a:__n <- $r15
	#DEBUG_VALUE: __first <- $rax
	#DEBUG_VALUE: __uninitialized_default_n_a:__first <- $rax
	.loc	6 648 1                 # /usr/include/c++/9/bits/stl_uninitialized.h:648:1
	cmpq	$16, %r15
	jae	.LBB2_20
.Ltmp110:
# %bb.19:
	#DEBUG_VALUE: __uninitialized_default_n_a:__first <- $rax
	#DEBUG_VALUE: __first <- $rax
	#DEBUG_VALUE: __uninitialized_default_n_a:__n <- $r15
	#DEBUG_VALUE: __n <- $r15
	#DEBUG_VALUE: __uninitialized_default_n_a:__alloc <- $r14
	#DEBUG_VALUE: __alloc <- $r14
	#DEBUG_VALUE: __cur <- $rax
	#DEBUG_VALUE: __destroy_from <- 0
	#DEBUG_VALUE: __new_start <- $r13
	#DEBUG_VALUE:  <- $r14
	#DEBUG_VALUE: _M_default_append: <- $r14
	#DEBUG_VALUE: __n <- $r15
	#DEBUG_VALUE: _M_default_append:__n <- $r15
	.loc	6 0 1 is_stmt 0         # /usr/include/c++/9/bits/stl_uninitialized.h:0:1
	movq	%r15, %rcx
	jmp	.LBB2_23
.Ltmp111:
.LBB2_2:                                # %L.B2703
	#DEBUG_VALUE:  <- $r14
	#DEBUG_VALUE: _M_default_append: <- $r14
	#DEBUG_VALUE: __n <- $r15
	#DEBUG_VALUE: _M_default_append:__n <- $r15
	#DEBUG_VALUE: __uninitialized_default_n_a:__first <- $rbx
	#DEBUG_VALUE: __first <- $rbx
	#DEBUG_VALUE: __cur <- $rbx
	#DEBUG_VALUE: __uninitialized_default_n_a:__n <- $r15
	#DEBUG_VALUE: __n <- $r15
	#DEBUG_VALUE: __uninitialized_default_n_a:__alloc <- $r14
	#DEBUG_VALUE: __alloc <- $r14
	.loc	6 648 1                 # /usr/include/c++/9/bits/stl_uninitialized.h:648:1
	cmpq	$16, %r15
	jae	.LBB2_4
.Ltmp112:
# %bb.3:
	#DEBUG_VALUE: __alloc <- $r14
	#DEBUG_VALUE: __uninitialized_default_n_a:__alloc <- $r14
	#DEBUG_VALUE: __n <- $r15
	#DEBUG_VALUE: __uninitialized_default_n_a:__n <- $r15
	#DEBUG_VALUE: __cur <- $rbx
	#DEBUG_VALUE: __first <- $rbx
	#DEBUG_VALUE: __uninitialized_default_n_a:__first <- $rbx
	#DEBUG_VALUE:  <- $r14
	#DEBUG_VALUE: _M_default_append: <- $r14
	#DEBUG_VALUE: __n <- $r15
	#DEBUG_VALUE: _M_default_append:__n <- $r15
	.loc	6 0 1                   # /usr/include/c++/9/bits/stl_uninitialized.h:0:1
	movq	%r15, %rax
	movq	%rbx, %rcx
	jmp	.LBB2_7
.Ltmp113:
.LBB2_4:                                # %vector.ph
	#DEBUG_VALUE: __alloc <- $r14
	#DEBUG_VALUE: __uninitialized_default_n_a:__alloc <- $r14
	#DEBUG_VALUE: __n <- $r15
	#DEBUG_VALUE: __uninitialized_default_n_a:__n <- $r15
	#DEBUG_VALUE: __cur <- $rbx
	#DEBUG_VALUE: __first <- $rbx
	#DEBUG_VALUE: __uninitialized_default_n_a:__first <- $rbx
	#DEBUG_VALUE:  <- $r14
	#DEBUG_VALUE: _M_default_append: <- $r14
	#DEBUG_VALUE: __n <- $r15
	#DEBUG_VALUE: _M_default_append:__n <- $r15
	.loc	6 648 1                 # /usr/include/c++/9/bits/stl_uninitialized.h:648:1
	movq	%r15, %r8
	andq	$-16, %r8
	movl	%r15d, %eax
	andl	$15, %eax
	leaq	(%rbx,%r8,8), %rcx
	addq	$120, %rbx
.Ltmp114:
	.loc	6 0 1                   # /usr/include/c++/9/bits/stl_uninitialized.h:0:1
	vpxor	%xmm0, %xmm0, %xmm0
	vpcmpeqd	%ymm1, %ymm1, %ymm1
	movq	%r8, %r10
.Ltmp115:
	.p2align	4, 0x90
.LBB2_5:                                # %vector.body
                                        # =>This Inner Loop Header: Depth=1
	#DEBUG_VALUE: __alloc <- $r14
	#DEBUG_VALUE: __uninitialized_default_n_a:__alloc <- $r14
	#DEBUG_VALUE: __n <- $r15
	#DEBUG_VALUE: __uninitialized_default_n_a:__n <- $r15
	#DEBUG_VALUE:  <- $r14
	#DEBUG_VALUE: _M_default_append: <- $r14
	#DEBUG_VALUE: __n <- $r15
	#DEBUG_VALUE: _M_default_append:__n <- $r15
	leaq	-120(%rbx), %r9
	leaq	-112(%rbx), %rdx
	leaq	-104(%rbx), %rdi
	leaq	-96(%rbx), %rsi
	vmovq	%rsi, %xmm2
	vmovq	%rdi, %xmm3
	vpunpcklqdq	%xmm2, %xmm3, %xmm2 # xmm2 = xmm3[0],xmm2[0]
	vmovq	%rdx, %xmm3
	vmovq	%r9, %xmm4
	vpunpcklqdq	%xmm3, %xmm4, %xmm3 # xmm3 = xmm4[0],xmm3[0]
	vinserti128	$1, %xmm2, %ymm3, %ymm2
	leaq	-88(%rbx), %r9
	leaq	-80(%rbx), %rsi
	leaq	-72(%rbx), %rdi
	leaq	-64(%rbx), %rdx
	vmovq	%rdx, %xmm3
	vmovq	%rdi, %xmm4
	vpunpcklqdq	%xmm3, %xmm4, %xmm3 # xmm3 = xmm4[0],xmm3[0]
	vmovq	%rsi, %xmm4
	vmovq	%r9, %xmm5
	vpunpcklqdq	%xmm4, %xmm5, %xmm4 # xmm4 = xmm5[0],xmm4[0]
	vinserti128	$1, %xmm3, %ymm4, %ymm3
	leaq	-56(%rbx), %r9
	leaq	-48(%rbx), %rsi
	leaq	-40(%rbx), %rdi
	leaq	-32(%rbx), %rdx
	vmovq	%rdx, %xmm4
	vmovq	%rdi, %xmm5
	vpunpcklqdq	%xmm4, %xmm5, %xmm4 # xmm4 = xmm5[0],xmm4[0]
	vmovq	%rsi, %xmm5
	vmovq	%r9, %xmm6
	vpunpcklqdq	%xmm5, %xmm6, %xmm5 # xmm5 = xmm6[0],xmm5[0]
	vinserti128	$1, %xmm4, %ymm5, %ymm4
	leaq	-24(%rbx), %rdx
	leaq	-16(%rbx), %rsi
	leaq	-8(%rbx), %rdi
	vmovq	%rbx, %xmm5
	vmovq	%rdi, %xmm6
	vpunpcklqdq	%xmm5, %xmm6, %xmm5 # xmm5 = xmm6[0],xmm5[0]
	vmovq	%rsi, %xmm6
	vmovq	%rdx, %xmm7
	vpunpcklqdq	%xmm6, %xmm7, %xmm6 # xmm6 = xmm7[0],xmm6[0]
	vinserti128	$1, %xmm5, %ymm6, %ymm5
	vpcmpeqq	%ymm0, %ymm2, %ymm2
	vpxor	%ymm1, %ymm2, %ymm2
	vpcmpeqq	%ymm0, %ymm3, %ymm3
	vpxor	%ymm1, %ymm3, %ymm3
	vpcmpeqq	%ymm0, %ymm4, %ymm4
	vpxor	%ymm1, %ymm4, %ymm4
	vpcmpeqq	%ymm0, %ymm5, %ymm5
	vpxor	%ymm1, %ymm5, %ymm5
	.loc	6 351 1 is_stmt 1       # /usr/include/c++/9/bits/stl_uninitialized.h:351:1
	vmaskmovpd	%ymm0, %ymm2, -120(%rbx)
	vmaskmovpd	%ymm0, %ymm3, -88(%rbx)
	vmaskmovpd	%ymm0, %ymm4, -56(%rbx)
	vmaskmovpd	%ymm0, %ymm5, -24(%rbx)
	subq	$-128, %rbx
	addq	$-16, %r10
	jne	.LBB2_5
.Ltmp116:
# %bb.6:                                # %middle.block
	#DEBUG_VALUE: __alloc <- $r14
	#DEBUG_VALUE: __uninitialized_default_n_a:__alloc <- $r14
	#DEBUG_VALUE: __n <- $r15
	#DEBUG_VALUE: __uninitialized_default_n_a:__n <- $r15
	#DEBUG_VALUE:  <- $r14
	#DEBUG_VALUE: _M_default_append: <- $r14
	#DEBUG_VALUE: __n <- $r15
	#DEBUG_VALUE: _M_default_append:__n <- $r15
	.loc	6 648 1                 # /usr/include/c++/9/bits/stl_uninitialized.h:648:1
	cmpq	%r15, %r8
	jne	.LBB2_7
.Ltmp117:
.LBB2_10:                               # %_ZSt27__uninitialized_default_n_aIPdm17aligned_allocatorIdLm6EEET_S3_T0_RT1_.exit55
	#DEBUG_VALUE:  <- $r14
	#DEBUG_VALUE: _M_default_append: <- $r14
	#DEBUG_VALUE: __n <- $r15
	#DEBUG_VALUE: _M_default_append:__n <- $r15
	.loc	4 274 1                 # /usr/include/c++/9/bits/vector.tcc:274:1
	movq	%rcx, 8(%r14)
	jmp	.LBB2_37
.Ltmp118:
	.p2align	4, 0x90
.LBB2_9:                                # %L..inline.109542.i53
                                        #   in Loop: Header=BB2_7 Depth=1
	#DEBUG_VALUE: __n <- $rax
	#DEBUG_VALUE: __cur <- $rcx
	#DEBUG_VALUE: __alloc <- $r14
	#DEBUG_VALUE: __uninitialized_default_n_a:__alloc <- $r14
	#DEBUG_VALUE:  <- $r14
	#DEBUG_VALUE: _M_default_append: <- $r14
	#DEBUG_VALUE: __n <- $r15
	#DEBUG_VALUE: _M_default_append:__n <- $r15
	.loc	6 649 1                 # /usr/include/c++/9/bits/stl_uninitialized.h:649:1
	addq	$8, %rcx
.Ltmp119:
	#DEBUG_VALUE: __cur <- $rcx
	.loc	6 648 1                 # /usr/include/c++/9/bits/stl_uninitialized.h:648:1
	decq	%rax
.Ltmp120:
	#DEBUG_VALUE: __n <- $rax
	#DEBUG_VALUE: __uninitialized_default_n_a:__n <- $rax
	je	.LBB2_10
.Ltmp121:
.LBB2_7:                                # %L.B4488.i51
                                        # =>This Inner Loop Header: Depth=1
	#DEBUG_VALUE: __alloc <- $r14
	#DEBUG_VALUE: __uninitialized_default_n_a:__alloc <- $r14
	#DEBUG_VALUE:  <- $r14
	#DEBUG_VALUE: _M_default_append: <- $r14
	#DEBUG_VALUE: __n <- $r15
	#DEBUG_VALUE: _M_default_append:__n <- $r15
	#DEBUG_VALUE: __cur <- $rcx
	#DEBUG_VALUE: __n <- $rax
	.loc	6 351 1                 # /usr/include/c++/9/bits/stl_uninitialized.h:351:1
	testq	%rcx, %rcx
	je	.LBB2_9
.Ltmp122:
# %bb.8:                                # %L.B4489.i52
                                        #   in Loop: Header=BB2_7 Depth=1
	#DEBUG_VALUE: __n <- $rax
	#DEBUG_VALUE: __cur <- $rcx
	#DEBUG_VALUE: __alloc <- $r14
	#DEBUG_VALUE: __uninitialized_default_n_a:__alloc <- $r14
	#DEBUG_VALUE:  <- $r14
	#DEBUG_VALUE: _M_default_append: <- $r14
	#DEBUG_VALUE: __n <- $r15
	#DEBUG_VALUE: _M_default_append:__n <- $r15
	movq	$0, (%rcx)
	jmp	.LBB2_9
.Ltmp123:
.LBB2_20:                               # %vector.ph85
	#DEBUG_VALUE: __uninitialized_default_n_a:__first <- $rax
	#DEBUG_VALUE: __first <- $rax
	#DEBUG_VALUE: __uninitialized_default_n_a:__n <- $r15
	#DEBUG_VALUE: __n <- $r15
	#DEBUG_VALUE: __uninitialized_default_n_a:__alloc <- $r14
	#DEBUG_VALUE: __alloc <- $r14
	#DEBUG_VALUE: __cur <- $rax
	#DEBUG_VALUE:  <- $r14
	#DEBUG_VALUE: _M_default_append: <- $r14
	#DEBUG_VALUE: __n <- $r15
	#DEBUG_VALUE: _M_default_append:__n <- $r15
	.loc	6 648 1                 # /usr/include/c++/9/bits/stl_uninitialized.h:648:1
	movq	%r15, %r8
	andq	$-16, %r8
	movl	%r15d, %ecx
	andl	$15, %ecx
	leaq	(%rax,%r8,8), %rax
.Ltmp124:
	leaq	(%rbx,%r13), %rsi
	addq	$120, %rsi
	vpxor	%xmm0, %xmm0, %xmm0
	vpcmpeqd	%ymm1, %ymm1, %ymm1
	movq	%r8, %r10
.Ltmp125:
	.p2align	4, 0x90
.LBB2_21:                               # %vector.body83
                                        # =>This Inner Loop Header: Depth=1
	#DEBUG_VALUE: __uninitialized_default_n_a:__n <- $r15
	#DEBUG_VALUE: __n <- $r15
	#DEBUG_VALUE: __uninitialized_default_n_a:__alloc <- $r14
	#DEBUG_VALUE: __alloc <- $r14
	#DEBUG_VALUE:  <- $r14
	#DEBUG_VALUE: _M_default_append: <- $r14
	#DEBUG_VALUE: __n <- $r15
	#DEBUG_VALUE: _M_default_append:__n <- $r15
	.loc	6 0 1 is_stmt 0         # /usr/include/c++/9/bits/stl_uninitialized.h:0:1
	leaq	-120(%rsi), %r9
	leaq	-112(%rsi), %r11
	leaq	-104(%rsi), %rdi
	leaq	-96(%rsi), %rdx
	vmovq	%rdx, %xmm2
	vmovq	%rdi, %xmm3
	vpunpcklqdq	%xmm2, %xmm3, %xmm2 # xmm2 = xmm3[0],xmm2[0]
	vmovq	%r11, %xmm3
	vmovq	%r9, %xmm4
	vpunpcklqdq	%xmm3, %xmm4, %xmm3 # xmm3 = xmm4[0],xmm3[0]
	vinserti128	$1, %xmm2, %ymm3, %ymm2
	leaq	-88(%rsi), %r9
	leaq	-80(%rsi), %r11
	leaq	-72(%rsi), %rdx
	leaq	-64(%rsi), %rdi
	vmovq	%rdi, %xmm3
	vmovq	%rdx, %xmm4
	vpunpcklqdq	%xmm3, %xmm4, %xmm3 # xmm3 = xmm4[0],xmm3[0]
	vmovq	%r11, %xmm4
	vmovq	%r9, %xmm5
	vpunpcklqdq	%xmm4, %xmm5, %xmm4 # xmm4 = xmm5[0],xmm4[0]
	vinserti128	$1, %xmm3, %ymm4, %ymm3
	leaq	-56(%rsi), %r9
	leaq	-48(%rsi), %r11
	leaq	-40(%rsi), %rdx
	leaq	-32(%rsi), %rdi
	vmovq	%rdi, %xmm4
	vmovq	%rdx, %xmm5
	vpunpcklqdq	%xmm4, %xmm5, %xmm4 # xmm4 = xmm5[0],xmm4[0]
	vmovq	%r11, %xmm5
	vmovq	%r9, %xmm6
	vpunpcklqdq	%xmm5, %xmm6, %xmm5 # xmm5 = xmm6[0],xmm5[0]
	vinserti128	$1, %xmm4, %ymm5, %ymm4
	leaq	-24(%rsi), %r9
	leaq	-16(%rsi), %rdi
	leaq	-8(%rsi), %rdx
	vmovq	%rsi, %xmm5
	vmovq	%rdx, %xmm6
	vpunpcklqdq	%xmm5, %xmm6, %xmm5 # xmm5 = xmm6[0],xmm5[0]
	vmovq	%rdi, %xmm6
	vmovq	%r9, %xmm7
	vpunpcklqdq	%xmm6, %xmm7, %xmm6 # xmm6 = xmm7[0],xmm6[0]
	vinserti128	$1, %xmm5, %ymm6, %ymm5
	vpcmpeqq	%ymm0, %ymm2, %ymm2
	vpxor	%ymm1, %ymm2, %ymm2
	vpcmpeqq	%ymm0, %ymm3, %ymm3
	vpxor	%ymm1, %ymm3, %ymm3
	vpcmpeqq	%ymm0, %ymm4, %ymm4
	vpxor	%ymm1, %ymm4, %ymm4
	vpcmpeqq	%ymm0, %ymm5, %ymm5
	vpxor	%ymm1, %ymm5, %ymm5
	.loc	6 351 1 is_stmt 1       # /usr/include/c++/9/bits/stl_uninitialized.h:351:1
	vmaskmovpd	%ymm0, %ymm2, -120(%rsi)
	vmaskmovpd	%ymm0, %ymm3, -88(%rsi)
	vmaskmovpd	%ymm0, %ymm4, -56(%rsi)
	vmaskmovpd	%ymm0, %ymm5, -24(%rsi)
	subq	$-128, %rsi
	addq	$-16, %r10
	jne	.LBB2_21
.Ltmp126:
# %bb.22:                               # %middle.block81
	#DEBUG_VALUE: __uninitialized_default_n_a:__n <- $r15
	#DEBUG_VALUE: __n <- $r15
	#DEBUG_VALUE: __uninitialized_default_n_a:__alloc <- $r14
	#DEBUG_VALUE: __alloc <- $r14
	#DEBUG_VALUE:  <- $r14
	#DEBUG_VALUE: _M_default_append: <- $r14
	#DEBUG_VALUE: __n <- $r15
	#DEBUG_VALUE: _M_default_append:__n <- $r15
	.loc	6 648 1                 # /usr/include/c++/9/bits/stl_uninitialized.h:648:1
	cmpq	%r15, %r8
	jne	.LBB2_23
.Ltmp127:
.LBB2_26:                               # %L.B2711
	#DEBUG_VALUE: __uninitialized_default_n_a:__alloc <- $r14
	#DEBUG_VALUE: __alloc <- $r14
	#DEBUG_VALUE:  <- $r14
	#DEBUG_VALUE: _M_default_append: <- $r14
	#DEBUG_VALUE: __n <- $r15
	#DEBUG_VALUE: _M_default_append:__n <- $r15
	#DEBUG_VALUE: __destroy_from <- undef
	#DEBUG_VALUE: __cur <- undef
	.loc	4 274 1                 # /usr/include/c++/9/bits/vector.tcc:274:1
	movq	(%r14), %rcx
.Ltmp128:
	.loc	4 659 1                 # /usr/include/c++/9/bits/vector.tcc:659:1
	movq	8(%r14), %rsi
.Ltmp129:
	#DEBUG_VALUE: __cur <- $r13
	#DEBUG_VALUE: __alloc <- $r14
	#DEBUG_VALUE: __uninitialized_copy_a:__alloc <- $r14
	#DEBUG_VALUE: __result <- $r13
	#DEBUG_VALUE: __uninitialized_copy_a:__result <- $r13
	#DEBUG_VALUE: __uninitialized_copy_a:__last <- undef
	#DEBUG_VALUE: __uninitialized_copy_a:__first <- $rcx
	.loc	6 1159 1                # /usr/include/c++/9/bits/stl_uninitialized.h:1159:1
	movq	%rsi, %rax
.Ltmp130:
	.loc	4 274 1                 # /usr/include/c++/9/bits/vector.tcc:274:1
	movq	%rsi, %rdx
.Ltmp131:
	.loc	6 1159 1                # /usr/include/c++/9/bits/stl_uninitialized.h:1159:1
	subq	%rcx, %rax
	#DEBUG_VALUE: __cur <- $r13
	#DEBUG_VALUE: __alloc <- $r14
	#DEBUG_VALUE: __uninitialized_copy_a:__alloc <- $r14
	#DEBUG_VALUE: __result <- $r13
	#DEBUG_VALUE: __uninitialized_copy_a:__result <- $r13
	#DEBUG_VALUE: __uninitialized_copy_a:__first <- $rcx
	je	.LBB2_32
.Ltmp132:
# %bb.27:                               # %L.B4511.i.preheader
	#DEBUG_VALUE: __uninitialized_copy_a:__first <- $rcx
	#DEBUG_VALUE: __uninitialized_copy_a:__result <- $r13
	#DEBUG_VALUE: __result <- $r13
	#DEBUG_VALUE: __uninitialized_copy_a:__alloc <- $r14
	#DEBUG_VALUE: __alloc <- $r14
	#DEBUG_VALUE: __cur <- $r13
	#DEBUG_VALUE:  <- $r14
	#DEBUG_VALUE: _M_default_append: <- $r14
	#DEBUG_VALUE: __n <- $r15
	#DEBUG_VALUE: _M_default_append:__n <- $r15
	.loc	6 0 1 is_stmt 0         # /usr/include/c++/9/bits/stl_uninitialized.h:0:1
	xorl	%edx, %edx
	.loc	6 351 1 is_stmt 1       # /usr/include/c++/9/bits/stl_uninitialized.h:351:1
	leaq	8(%rcx), %rsi
	jmp	.LBB2_28
.Ltmp133:
	.p2align	4, 0x90
.LBB2_25:                               # %L..inline.109542.i
                                        #   in Loop: Header=BB2_23 Depth=1
	#DEBUG_VALUE: __n <- $rcx
	#DEBUG_VALUE: __uninitialized_default_n_a:__alloc <- $r14
	#DEBUG_VALUE: __alloc <- $r14
	#DEBUG_VALUE: __cur <- $rax
	#DEBUG_VALUE:  <- $r14
	#DEBUG_VALUE: _M_default_append: <- $r14
	#DEBUG_VALUE: __n <- $r15
	#DEBUG_VALUE: _M_default_append:__n <- $r15
	.loc	6 649 1                 # /usr/include/c++/9/bits/stl_uninitialized.h:649:1
	addq	$8, %rax
.Ltmp134:
	#DEBUG_VALUE: __cur <- $rax
	.loc	6 648 1                 # /usr/include/c++/9/bits/stl_uninitialized.h:648:1
	decq	%rcx
.Ltmp135:
	#DEBUG_VALUE: __n <- $rcx
	#DEBUG_VALUE: __uninitialized_default_n_a:__n <- $rcx
	je	.LBB2_26
.Ltmp136:
.LBB2_23:                               # %L.B4488.i
                                        # =>This Inner Loop Header: Depth=1
	#DEBUG_VALUE: __uninitialized_default_n_a:__alloc <- $r14
	#DEBUG_VALUE: __alloc <- $r14
	#DEBUG_VALUE:  <- $r14
	#DEBUG_VALUE: _M_default_append: <- $r14
	#DEBUG_VALUE: __n <- $r15
	#DEBUG_VALUE: _M_default_append:__n <- $r15
	#DEBUG_VALUE: __n <- $rcx
	#DEBUG_VALUE: __cur <- $rax
	.loc	6 351 1                 # /usr/include/c++/9/bits/stl_uninitialized.h:351:1
	testq	%rax, %rax
	je	.LBB2_25
.Ltmp137:
# %bb.24:                               # %L.B4489.i
                                        #   in Loop: Header=BB2_23 Depth=1
	#DEBUG_VALUE: __n <- $rcx
	#DEBUG_VALUE: __uninitialized_default_n_a:__alloc <- $r14
	#DEBUG_VALUE: __alloc <- $r14
	#DEBUG_VALUE: __cur <- $rax
	#DEBUG_VALUE:  <- $r14
	#DEBUG_VALUE: _M_default_append: <- $r14
	#DEBUG_VALUE: __n <- $r15
	#DEBUG_VALUE: _M_default_append:__n <- $r15
	movq	$0, (%rax)
	jmp	.LBB2_25
.Ltmp138:
	.p2align	4, 0x90
.LBB2_30:                               # %L..inline.109768.i
                                        #   in Loop: Header=BB2_28 Depth=1
	#DEBUG_VALUE: __uninitialized_copy_a:__result <- $r13
	#DEBUG_VALUE: __result <- $r13
	#DEBUG_VALUE: __uninitialized_copy_a:__alloc <- $r14
	#DEBUG_VALUE: __alloc <- $r14
	#DEBUG_VALUE: __cur <- $r13
	#DEBUG_VALUE:  <- $r14
	#DEBUG_VALUE: _M_default_append: <- $r14
	#DEBUG_VALUE: __n <- $r15
	#DEBUG_VALUE: _M_default_append:__n <- $r15
	.loc	6 293 1                 # /usr/include/c++/9/bits/stl_uninitialized.h:293:1
	leaq	(%rsi,%rdx), %rcx
.Ltmp139:
	#DEBUG_VALUE: __cur <- [DW_OP_plus_uconst 8, DW_OP_stack_value] undef
	#DEBUG_VALUE: __uninitialized_copy_a:__first <- $rcx
	.loc	6 1159 1                # /usr/include/c++/9/bits/stl_uninitialized.h:1159:1
	addq	$8, %rdx
	cmpq	%rdx, %rax
	je	.LBB2_31
.Ltmp140:
.LBB2_28:                               # %L.B4511.i
                                        # =>This Inner Loop Header: Depth=1
	#DEBUG_VALUE: __uninitialized_copy_a:__first <- $rcx
	#DEBUG_VALUE: __uninitialized_copy_a:__result <- $r13
	#DEBUG_VALUE: __result <- $r13
	#DEBUG_VALUE: __uninitialized_copy_a:__alloc <- $r14
	#DEBUG_VALUE: __alloc <- $r14
	#DEBUG_VALUE: __cur <- $r13
	#DEBUG_VALUE:  <- $r14
	#DEBUG_VALUE: _M_default_append: <- $r14
	#DEBUG_VALUE: __n <- $r15
	#DEBUG_VALUE: _M_default_append:__n <- $r15
	#DEBUG_VALUE: __uninitialized_copy_a:__first <- $rcx
	#DEBUG_VALUE: __cur <- undef
	.loc	6 351 1                 # /usr/include/c++/9/bits/stl_uninitialized.h:351:1
	movq	%r13, %rdi
	addq	%rdx, %rdi
	je	.LBB2_30
.Ltmp141:
# %bb.29:                               # %L.B4512.i
                                        #   in Loop: Header=BB2_28 Depth=1
	#DEBUG_VALUE: __uninitialized_copy_a:__first <- $rcx
	#DEBUG_VALUE: __uninitialized_copy_a:__result <- $r13
	#DEBUG_VALUE: __result <- $r13
	#DEBUG_VALUE: __uninitialized_copy_a:__alloc <- $r14
	#DEBUG_VALUE: __alloc <- $r14
	#DEBUG_VALUE: __cur <- $r13
	#DEBUG_VALUE:  <- $r14
	#DEBUG_VALUE: _M_default_append: <- $r14
	#DEBUG_VALUE: __n <- $r15
	#DEBUG_VALUE: _M_default_append:__n <- $r15
	movq	(%rcx), %rcx
.Ltmp142:
	movq	%rcx, (%r13,%rdx)
	jmp	.LBB2_30
.Ltmp143:
.LBB2_31:                               # %L_T21977800_53490.loopexit
	#DEBUG_VALUE:  <- $r14
	#DEBUG_VALUE: _M_default_append: <- $r14
	#DEBUG_VALUE: __n <- $r15
	#DEBUG_VALUE: _M_default_append:__n <- $r15
	.loc	4 274 1                 # /usr/include/c++/9/bits/vector.tcc:274:1
	movq	(%r14), %rdx
.Ltmp144:
	.loc	4 671 1                 # /usr/include/c++/9/bits/vector.tcc:671:1
	movq	8(%r14), %rsi
.Ltmp145:
.LBB2_32:                               # %L_T21977800_53490
	#DEBUG_VALUE:  <- $r14
	#DEBUG_VALUE: _M_default_append: <- $r14
	#DEBUG_VALUE: __n <- $r15
	#DEBUG_VALUE: _M_default_append:__n <- $r15
	.loc	4 0 1 is_stmt 0         # /usr/include/c++/9/bits/vector.tcc:0:1
	subq	%rdx, %rsi
	addq	$8, %rsi
.Ltmp146:
	.p2align	4, 0x90
.LBB2_33:                               # %L..inline.85216
                                        # =>This Inner Loop Header: Depth=1
	#DEBUG_VALUE:  <- $r14
	#DEBUG_VALUE: _M_default_append: <- $r14
	#DEBUG_VALUE: __n <- $r15
	#DEBUG_VALUE: _M_default_append:__n <- $r15
	.loc	4 197 1 is_stmt 1       # /usr/include/c++/9/bits/vector.tcc:197:1
	addq	$-8, %rsi
	jne	.LBB2_33
.Ltmp147:
# %bb.34:                               # %L.B0090
	#DEBUG_VALUE:  <- $r14
	#DEBUG_VALUE: _M_default_append: <- $r14
	#DEBUG_VALUE: __n <- $r15
	#DEBUG_VALUE: _M_default_append:__n <- $r15
	.loc	4 675 1                 # /usr/include/c++/9/bits/vector.tcc:675:1
	testq	%rdx, %rdx
	je	.LBB2_36
.Ltmp148:
# %bb.35:                               # %L.B2714
	#DEBUG_VALUE:  <- $r14
	#DEBUG_VALUE: _M_default_append: <- $r14
	#DEBUG_VALUE: __n <- $r15
	#DEBUG_VALUE: _M_default_append:__n <- $r15
	.loc	4 351 1                 # /usr/include/c++/9/bits/vector.tcc:351:1
	movq	-8(%rdx), %rdi
	vzeroupper
	callq	free
.Ltmp149:
.LBB2_36:                               # %L..inline.85253
	#DEBUG_VALUE:  <- $r14
	#DEBUG_VALUE: _M_default_append: <- $r14
	#DEBUG_VALUE: __n <- $r15
	#DEBUG_VALUE: _M_default_append:__n <- $r15
	.loc	4 678 1                 # /usr/include/c++/9/bits/vector.tcc:678:1
	movq	%r13, (%r14)
	.loc	4 679 1                 # /usr/include/c++/9/bits/vector.tcc:679:1
	leaq	(%rbx,%r15,8), %rax
	addq	%r13, %rax
	movq	%rax, 8(%r14)
	.loc	4 680 1                 # /usr/include/c++/9/bits/vector.tcc:680:1
	leaq	(,%r12,8), %rax
	addq	%r13, %rax
	movq	%rax, 16(%r14)
.Ltmp150:
.LBB2_37:                               # %L.R0142
	.loc	4 683 1                 # /usr/include/c++/9/bits/vector.tcc:683:1
	addq	$8, %rsp
	popq	%rbx
	popq	%r12
	popq	%r13
	popq	%r14
	popq	%r15
	popq	%rbp
	.cfi_def_cfa %rsp, 8
	vzeroupper
	retq
.LBB2_15:
	.cfi_def_cfa %rbp, 16
.Ltmp151:
	#DEBUG_VALUE:  <- $r14
	#DEBUG_VALUE: _M_default_append: <- $r14
	#DEBUG_VALUE: __n <- $r15
	#DEBUG_VALUE: _M_default_append:__n <- $r15
	.loc	4 0 1 is_stmt 0         # /usr/include/c++/9/bits/vector.tcc:0:1
	xorl	%r12d, %r12d
	.loc	4 343 1 is_stmt 1       # /usr/include/c++/9/bits/vector.tcc:343:1
	xorl	%r13d, %r13d
	jmp	.LBB2_18
.Ltmp152:
.LBB2_39:                               # %L.B2228.i
	#DEBUG_VALUE:  <- $r14
	#DEBUG_VALUE: allocate: <- $r14
	#DEBUG_VALUE:  <- $r14
	#DEBUG_VALUE: _M_default_append: <- $r14
	#DEBUG_VALUE: __n <- $r15
	#DEBUG_VALUE: _M_default_append:__n <- $r15
	.loc	5 200 1                 # projects/../memoryallocation.h:200:1
	movl	$8, %edi
	callq	__cxa_allocate_exception
.Ltmp153:
	.loc	5 57 1                  # projects/../memoryallocation.h:57:1
	movq	$_ZTVSt9bad_alloc+16, (%rax)
.Ltmp154:
	.loc	5 200 1                 # projects/../memoryallocation.h:200:1
	movl	$_ZTISt9bad_alloc, %esi
	movl	$_ZNSt9bad_allocD1Ev, %edx
	movq	%rax, %rdi
	xorl	%eax, %eax
	callq	__cxa_throw
.Ltmp155:
.LBB2_38:                               # %L.B2704
	#DEBUG_VALUE:  <- $r14
	#DEBUG_VALUE: _M_default_append: <- $r14
	#DEBUG_VALUE: __n <- $r15
	#DEBUG_VALUE: _M_default_append:__n <- $r15
	.loc	4 1756 1                # /usr/include/c++/9/bits/vector.tcc:1756:1
	movl	$.S56097, %edi
	callq	_ZSt20__throw_length_errorPKc
.Ltmp156:
.Lfunc_end2:
	.size	_ZNSt6vectorId17aligned_allocatorIdLm6EEE17_M_default_appendEm, .Lfunc_end2-_ZNSt6vectorId17aligned_allocatorIdLm6EEE17_M_default_appendEm
	.cfi_endproc
                                        # -- End function
	.weak	_ZNSt10_HashtableIjSt4pairIKjjESaIS2_ENSt8__detail10_Select1stESt8equal_toIjESt4hashIjENS4_18_Mod_range_hashingENS4_20_Default_ranged_hashENS4_20_Prime_rehash_policyENS4_17_Hashtable_traitsILb0ELb0ELb1EEEE21_M_insert_unique_nodeEmmPNS4_10_Hash_nodeIS2_Lb0EEEm # -- Begin function _ZNSt10_HashtableIjSt4pairIKjjESaIS2_ENSt8__detail10_Select1stESt8equal_toIjESt4hashIjENS4_18_Mod_range_hashingENS4_20_Default_ranged_hashENS4_20_Prime_rehash_policyENS4_17_Hashtable_traitsILb0ELb0ELb1EEEE21_M_insert_unique_nodeEmmPNS4_10_Hash_nodeIS2_Lb0EEEm
	.p2align	4, 0x90
	.type	_ZNSt10_HashtableIjSt4pairIKjjESaIS2_ENSt8__detail10_Select1stESt8equal_toIjESt4hashIjENS4_18_Mod_range_hashingENS4_20_Default_ranged_hashENS4_20_Prime_rehash_policyENS4_17_Hashtable_traitsILb0ELb0ELb1EEEE21_M_insert_unique_nodeEmmPNS4_10_Hash_nodeIS2_Lb0EEEm,@function
_ZNSt10_HashtableIjSt4pairIKjjESaIS2_ENSt8__detail10_Select1stESt8equal_toIjESt4hashIjENS4_18_Mod_range_hashingENS4_20_Default_ranged_hashENS4_20_Prime_rehash_policyENS4_17_Hashtable_traitsILb0ELb0ELb1EEEE21_M_insert_unique_nodeEmmPNS4_10_Hash_nodeIS2_Lb0EEEm: # @_ZNSt10_HashtableIjSt4pairIKjjESaIS2_ENSt8__detail10_Select1stESt8equal_toIjESt4hashIjENS4_18_Mod_range_hashingENS4_20_Default_ranged_hashENS4_20_Prime_rehash_policyENS4_17_Hashtable_traitsILb0ELb0ELb1EEEE21_M_insert_unique_nodeEmmPNS4_10_Hash_nodeIS2_Lb0EEEm
.Lfunc_begin3:
	.file	7 "/usr/include/c++/9/bits/hashtable.h"
	.loc	7 1703 0                # /usr/include/c++/9/bits/hashtable.h:1703:0
	.cfi_startproc
	.cfi_personality 3, __gxx_personality_v0
	.cfi_lsda 3, .Lexception0
# %bb.0:                                # %L.entry
	#DEBUG_VALUE: _M_insert_unique_node: <- $rdi
	#DEBUG_VALUE: _M_insert_unique_node:__bkt <- $rsi
	#DEBUG_VALUE: _M_insert_unique_node:__code <- $rdx
	#DEBUG_VALUE: _M_insert_unique_node:__node <- $rcx
	#DEBUG_VALUE: _M_insert_unique_node:__n_elt <- $r8
	pushq	%rbp
	.cfi_def_cfa_offset 16
	.cfi_offset %rbp, -16
	movq	%rsp, %rbp
	.cfi_def_cfa_register %rbp
	pushq	%r15
	pushq	%r14
	pushq	%r13
	pushq	%r12
	pushq	%rbx
	subq	$24, %rsp
	.cfi_offset %rbx, -56
	.cfi_offset %r12, -48
	.cfi_offset %r13, -40
	.cfi_offset %r14, -32
	.cfi_offset %r15, -24
.Ltmp168:
	#DEBUG_VALUE:  <- $rdi
	#DEBUG_VALUE: __bkt <- $rsi
	#DEBUG_VALUE: __code <- $rdx
	#DEBUG_VALUE: __node <- $rcx
	#DEBUG_VALUE: __n_elt <- $r8
	movq	%rcx, %r14
	movq	%rdx, %r15
	movq	%rsi, %rbx
	movq	%rdi, %r12
	#DEBUG_VALUE: __n_elt <- $r8
	#DEBUG_VALUE: _M_insert_unique_node:__n_elt <- $r8
.Ltmp169:
	#DEBUG_VALUE: __node <- $r14
	#DEBUG_VALUE: _M_insert_unique_node:__node <- $r14
	#DEBUG_VALUE: __code <- $r15
	#DEBUG_VALUE: _M_insert_unique_node:__code <- $r15
	#DEBUG_VALUE: __bkt <- $rbx
	#DEBUG_VALUE: _M_insert_unique_node:__bkt <- $rbx
	#DEBUG_VALUE:  <- $r12
	#DEBUG_VALUE: _M_insert_unique_node: <- $r12
	.loc	7 1704 1 prologue_end   # /usr/include/c++/9/bits/hashtable.h:1704:1
	leaq	32(%rdi), %rdi
	movq	40(%r12), %rax
	movq	%rax, -56(%rbp)         # 8-byte Spill
	.loc	7 1706 1                # /usr/include/c++/9/bits/hashtable.h:1706:1
	movq	8(%r12), %rsi
	movq	24(%r12), %rdx
	movq	%r8, %rcx
.Ltmp170:
	#DEBUG_VALUE: __n_elt <- $rcx
	#DEBUG_VALUE: _M_insert_unique_node:__n_elt <- $rcx
	callq	_ZNKSt8__detail20_Prime_rehash_policy14_M_need_rehashEmmm
.Ltmp171:
	#DEBUG_VALUE: __do_rehash <- [DW_OP_constu 8, DW_OP_shr, DW_OP_LLVM_convert 64 7, DW_OP_LLVM_convert 56 7, DW_OP_stack_value, DW_OP_LLVM_fragment 8 56] $rax
	#DEBUG_VALUE: __do_rehash <- [DW_OP_LLVM_convert 64 7, DW_OP_LLVM_convert 8 7, DW_OP_stack_value, DW_OP_LLVM_fragment 0 8] $rax
	#DEBUG_VALUE: __do_rehash <- [DW_OP_LLVM_fragment 64 64] undef
	.loc	7 1711 1                # /usr/include/c++/9/bits/hashtable.h:1711:1
	testb	%al, %al
	je	.LBB3_26
.Ltmp172:
# %bb.1:                                # %L.B2819
	#DEBUG_VALUE: __do_rehash <- [DW_OP_LLVM_convert 64 7, DW_OP_LLVM_convert 8 7, DW_OP_stack_value, DW_OP_LLVM_fragment 0 8] $rax
	#DEBUG_VALUE: __do_rehash <- [DW_OP_constu 8, DW_OP_shr, DW_OP_LLVM_convert 64 7, DW_OP_LLVM_convert 56 7, DW_OP_stack_value, DW_OP_LLVM_fragment 8 56] $rax
	#DEBUG_VALUE: _M_insert_unique_node: <- $r12
	#DEBUG_VALUE:  <- $r12
	#DEBUG_VALUE: _M_insert_unique_node:__bkt <- $rbx
	#DEBUG_VALUE: __bkt <- $rbx
	#DEBUG_VALUE: _M_insert_unique_node:__code <- $r15
	#DEBUG_VALUE: __code <- $r15
	#DEBUG_VALUE: _M_insert_unique_node:__node <- $r14
	#DEBUG_VALUE: __node <- $r14
	.loc	7 0 0 is_stmt 0         # /usr/include/c++/9/bits/hashtable.h:0:0
	movq	%rdx, %r13
.Ltmp173:
	#DEBUG_VALUE: __do_rehash <- [DW_OP_LLVM_fragment 64 64] $r13
	#DEBUG_VALUE: _M_rehash:__n <- $r13
	#DEBUG_VALUE: __n <- $r13
	#DEBUG_VALUE: _M_rehash_aux:__n <- $r13
	#DEBUG_VALUE: __n <- $r13
	#DEBUG_VALUE: _M_rehash: <- $r12
	#DEBUG_VALUE:  <- $r12
	#DEBUG_VALUE: _M_rehash_aux: <- $r12
	#DEBUG_VALUE:  <- $r12
	#DEBUG_VALUE: _M_rehash_aux:_T21975128_53540 <- undef
	.loc	7 2088 1 is_stmt 1      # /usr/include/c++/9/bits/hashtable.h:2088:1
	cmpq	$1, %rdx
	jne	.LBB3_3
.Ltmp174:
# %bb.2:                                # %L.B2834.i
	#DEBUG_VALUE:  <- $r12
	#DEBUG_VALUE: _M_rehash_aux: <- $r12
	#DEBUG_VALUE:  <- $r12
	#DEBUG_VALUE: _M_rehash: <- $r12
	#DEBUG_VALUE: __n <- $r13
	#DEBUG_VALUE: _M_rehash_aux:__n <- $r13
	#DEBUG_VALUE: __n <- $r13
	#DEBUG_VALUE: _M_rehash:__n <- $r13
	#DEBUG_VALUE: __do_rehash <- [DW_OP_LLVM_fragment 64 64] $r13
	#DEBUG_VALUE: __do_rehash <- [DW_OP_LLVM_convert 64 7, DW_OP_LLVM_convert 8 7, DW_OP_stack_value, DW_OP_LLVM_fragment 0 8] $rax
	#DEBUG_VALUE: __do_rehash <- [DW_OP_constu 8, DW_OP_shr, DW_OP_LLVM_convert 64 7, DW_OP_LLVM_convert 56 7, DW_OP_stack_value, DW_OP_LLVM_fragment 8 56] $rax
	#DEBUG_VALUE: _M_insert_unique_node: <- $r12
	#DEBUG_VALUE:  <- $r12
	#DEBUG_VALUE: _M_insert_unique_node:__bkt <- $rbx
	#DEBUG_VALUE: __bkt <- $rbx
	#DEBUG_VALUE: _M_insert_unique_node:__code <- $r15
	#DEBUG_VALUE: __code <- $r15
	#DEBUG_VALUE: _M_insert_unique_node:__node <- $r14
	#DEBUG_VALUE: __node <- $r14
	.loc	7 355 1                 # /usr/include/c++/9/bits/hashtable.h:355:1
	leaq	48(%r12), %rbx
.Ltmp175:
	movq	$0, 48(%r12)
	jmp	.LBB3_8
.Ltmp176:
.LBB3_3:                                # %L..inline.87494.i
	#DEBUG_VALUE:  <- $r12
	#DEBUG_VALUE: _M_rehash_aux: <- $r12
	#DEBUG_VALUE:  <- $r12
	#DEBUG_VALUE: _M_rehash: <- $r12
	#DEBUG_VALUE: __n <- $r13
	#DEBUG_VALUE: _M_rehash_aux:__n <- $r13
	#DEBUG_VALUE: __n <- $r13
	#DEBUG_VALUE: _M_rehash:__n <- $r13
	#DEBUG_VALUE: __do_rehash <- [DW_OP_LLVM_fragment 64 64] $r13
	#DEBUG_VALUE: __do_rehash <- [DW_OP_LLVM_convert 64 7, DW_OP_LLVM_convert 8 7, DW_OP_stack_value, DW_OP_LLVM_fragment 0 8] $rax
	#DEBUG_VALUE: __do_rehash <- [DW_OP_constu 8, DW_OP_shr, DW_OP_LLVM_convert 64 7, DW_OP_LLVM_convert 56 7, DW_OP_stack_value, DW_OP_LLVM_fragment 8 56] $rax
	#DEBUG_VALUE: _M_insert_unique_node: <- $r12
	#DEBUG_VALUE:  <- $r12
	#DEBUG_VALUE: _M_insert_unique_node:__bkt <- $rbx
	#DEBUG_VALUE: __bkt <- $rbx
	#DEBUG_VALUE: _M_insert_unique_node:__code <- $r15
	#DEBUG_VALUE: __code <- $r15
	#DEBUG_VALUE: _M_insert_unique_node:__node <- $r14
	#DEBUG_VALUE: __node <- $r14
	.loc	7 0 1 is_stmt 0         # /usr/include/c++/9/bits/hashtable.h:0:1
	movq	%r15, -48(%rbp)         # 8-byte Spill
.Ltmp177:
	#DEBUG_VALUE: __code <- [DW_OP_constu 48, DW_OP_minus] [$rbp+0]
	.loc	7 361 1 is_stmt 1       # /usr/include/c++/9/bits/hashtable.h:361:1
	movq	%r13, %rax
.Ltmp178:
	shrq	$61, %rax
	jne	.LBB3_4
.Ltmp179:
# %bb.6:                                # %L..inline.87538.i
	#DEBUG_VALUE: __code <- [DW_OP_constu 48, DW_OP_minus] [$rbp+0]
	#DEBUG_VALUE:  <- $r12
	#DEBUG_VALUE: _M_rehash_aux: <- $r12
	#DEBUG_VALUE:  <- $r12
	#DEBUG_VALUE: _M_rehash: <- $r12
	#DEBUG_VALUE: __n <- $r13
	#DEBUG_VALUE: _M_rehash_aux:__n <- $r13
	#DEBUG_VALUE: __n <- $r13
	#DEBUG_VALUE: _M_rehash:__n <- $r13
	#DEBUG_VALUE: __do_rehash <- [DW_OP_LLVM_fragment 64 64] $r13
	#DEBUG_VALUE: _M_insert_unique_node: <- $r12
	#DEBUG_VALUE:  <- $r12
	#DEBUG_VALUE: _M_insert_unique_node:__bkt <- $rbx
	#DEBUG_VALUE: __bkt <- $rbx
	#DEBUG_VALUE: _M_insert_unique_node:__code <- $r15
	#DEBUG_VALUE: _M_insert_unique_node:__node <- $r14
	#DEBUG_VALUE: __node <- $r14
	leaq	(,%r13,8), %r15
.Ltmp180:
.Ltmp159:
	movq	%r15, %rdi
	callq	_Znwm
.Ltmp160:
.Ltmp181:
# %bb.7:                                # %.noexc25
	#DEBUG_VALUE: __code <- [DW_OP_constu 48, DW_OP_minus] [$rbp+0]
	#DEBUG_VALUE:  <- $r12
	#DEBUG_VALUE: _M_rehash_aux: <- $r12
	#DEBUG_VALUE:  <- $r12
	#DEBUG_VALUE: _M_rehash: <- $r12
	#DEBUG_VALUE: __n <- $r13
	#DEBUG_VALUE: _M_rehash_aux:__n <- $r13
	#DEBUG_VALUE: __n <- $r13
	#DEBUG_VALUE: _M_rehash:__n <- $r13
	#DEBUG_VALUE: __do_rehash <- [DW_OP_LLVM_fragment 64 64] $r13
	#DEBUG_VALUE: _M_insert_unique_node: <- $r12
	#DEBUG_VALUE:  <- $r12
	#DEBUG_VALUE: _M_insert_unique_node:__bkt <- $rbx
	#DEBUG_VALUE: __bkt <- $rbx
	#DEBUG_VALUE: _M_insert_unique_node:__node <- $r14
	#DEBUG_VALUE: __node <- $r14
	movq	%rax, %rbx
.Ltmp182:
	movq	%rax, %rdi
	xorl	%esi, %esi
	movq	%r15, %rdx
	callq	memset
	movq	-48(%rbp), %r15         # 8-byte Reload
.Ltmp183:
	#DEBUG_VALUE: __code <- $r15
.LBB3_8:                                # %L..inline.87556.i
	#DEBUG_VALUE:  <- $r12
	#DEBUG_VALUE: _M_rehash_aux: <- $r12
	#DEBUG_VALUE:  <- $r12
	#DEBUG_VALUE: _M_rehash: <- $r12
	#DEBUG_VALUE: __n <- $r13
	#DEBUG_VALUE: _M_rehash_aux:__n <- $r13
	#DEBUG_VALUE: __n <- $r13
	#DEBUG_VALUE: _M_rehash:__n <- $r13
	#DEBUG_VALUE: __do_rehash <- [DW_OP_LLVM_fragment 64 64] $r13
	#DEBUG_VALUE: _M_insert_unique_node: <- $r12
	#DEBUG_VALUE:  <- $r12
	#DEBUG_VALUE: __code <- $r15
	#DEBUG_VALUE: _M_insert_unique_node:__node <- $r14
	#DEBUG_VALUE: __node <- $r14
	#DEBUG_VALUE: __new_buckets <- $rbx
	.loc	7 384 1                 # /usr/include/c++/9/bits/hashtable.h:384:1
	movq	16(%r12), %rsi
.Ltmp184:
	#DEBUG_VALUE: __p <- $rsi
	.loc	7 2090 1                # /usr/include/c++/9/bits/hashtable.h:2090:1
	movq	$0, 16(%r12)
.Ltmp185:
	#DEBUG_VALUE: __bbegin_bkt <- 0
	.loc	7 2092 1                # /usr/include/c++/9/bits/hashtable.h:2092:1
	testq	%rsi, %rsi
	je	.LBB3_18
.Ltmp186:
# %bb.9:                                # %L.B0125.preheader.i
	#DEBUG_VALUE: __bbegin_bkt <- 0
	#DEBUG_VALUE: __p <- $rsi
	#DEBUG_VALUE: __new_buckets <- $rbx
	#DEBUG_VALUE:  <- $r12
	#DEBUG_VALUE: _M_rehash_aux: <- $r12
	#DEBUG_VALUE:  <- $r12
	#DEBUG_VALUE: _M_rehash: <- $r12
	#DEBUG_VALUE: __n <- $r13
	#DEBUG_VALUE: _M_rehash_aux:__n <- $r13
	#DEBUG_VALUE: __n <- $r13
	#DEBUG_VALUE: _M_rehash:__n <- $r13
	#DEBUG_VALUE: __do_rehash <- [DW_OP_LLVM_fragment 64 64] $r13
	#DEBUG_VALUE: _M_insert_unique_node: <- $r12
	#DEBUG_VALUE:  <- $r12
	#DEBUG_VALUE: __code <- $r15
	#DEBUG_VALUE: _M_insert_unique_node:__node <- $r14
	#DEBUG_VALUE: __node <- $r14
	.loc	7 0 1 is_stmt 0         # /usr/include/c++/9/bits/hashtable.h:0:1
	leaq	16(%r12), %r8
	xorl	%ecx, %ecx
	jmp	.LBB3_10
.Ltmp187:
	.p2align	4, 0x90
.LBB3_15:                               # %L.B0128.i
                                        #   in Loop: Header=BB3_10 Depth=1
	#DEBUG_VALUE: __bkt <- $rax
	#DEBUG_VALUE: __next <- $rdi
	#DEBUG_VALUE: __bbegin_bkt <- $rcx
	#DEBUG_VALUE: __p <- $rsi
	#DEBUG_VALUE: __new_buckets <- $rbx
	#DEBUG_VALUE:  <- $r12
	#DEBUG_VALUE: _M_rehash_aux: <- $r12
	#DEBUG_VALUE:  <- $r12
	#DEBUG_VALUE: _M_rehash: <- $r12
	#DEBUG_VALUE: __n <- $r13
	#DEBUG_VALUE: _M_rehash_aux:__n <- $r13
	#DEBUG_VALUE: __n <- $r13
	#DEBUG_VALUE: _M_rehash:__n <- $r13
	#DEBUG_VALUE: __do_rehash <- [DW_OP_LLVM_fragment 64 64] $r13
	#DEBUG_VALUE: _M_insert_unique_node: <- $r12
	#DEBUG_VALUE:  <- $r12
	#DEBUG_VALUE: __code <- $r15
	#DEBUG_VALUE: _M_insert_unique_node:__node <- $r14
	#DEBUG_VALUE: __node <- $r14
	.loc	7 2107 1 is_stmt 1      # /usr/include/c++/9/bits/hashtable.h:2107:1
	movq	(%rdx), %rdx
	movq	%rdx, (%rsi)
	.loc	7 2108 1                # /usr/include/c++/9/bits/hashtable.h:2108:1
	movq	(%rbx,%rax,8), %rdx
	movq	%rcx, %rax
.Ltmp188:
.LBB3_16:                               # %L.B0130.i.sink.split
                                        #   in Loop: Header=BB3_10 Depth=1
	#DEBUG_VALUE: __next <- $rdi
	#DEBUG_VALUE: __bbegin_bkt <- $rcx
	#DEBUG_VALUE: __p <- $rsi
	#DEBUG_VALUE: __new_buckets <- $rbx
	#DEBUG_VALUE:  <- $r12
	#DEBUG_VALUE: _M_rehash_aux: <- $r12
	#DEBUG_VALUE:  <- $r12
	#DEBUG_VALUE: _M_rehash: <- $r12
	#DEBUG_VALUE: __n <- $r13
	#DEBUG_VALUE: _M_rehash_aux:__n <- $r13
	#DEBUG_VALUE: __n <- $r13
	#DEBUG_VALUE: _M_rehash:__n <- $r13
	#DEBUG_VALUE: __do_rehash <- [DW_OP_LLVM_fragment 64 64] $r13
	#DEBUG_VALUE: _M_insert_unique_node: <- $r12
	#DEBUG_VALUE:  <- $r12
	#DEBUG_VALUE: __code <- $r15
	#DEBUG_VALUE: _M_insert_unique_node:__node <- $r14
	#DEBUG_VALUE: __node <- $r14
	.loc	7 0 0 is_stmt 0         # /usr/include/c++/9/bits/hashtable.h:0:0
	movq	%rsi, (%rdx)
.Ltmp189:
.LBB3_17:                               # %L.B0130.i
                                        #   in Loop: Header=BB3_10 Depth=1
	#DEBUG_VALUE: __bbegin_bkt <- $rcx
	#DEBUG_VALUE: __p <- $rsi
	#DEBUG_VALUE: __new_buckets <- $rbx
	#DEBUG_VALUE:  <- $r12
	#DEBUG_VALUE: _M_rehash_aux: <- $r12
	#DEBUG_VALUE:  <- $r12
	#DEBUG_VALUE: _M_rehash: <- $r12
	#DEBUG_VALUE: __n <- $r13
	#DEBUG_VALUE: _M_rehash_aux:__n <- $r13
	#DEBUG_VALUE: __n <- $r13
	#DEBUG_VALUE: _M_rehash:__n <- $r13
	#DEBUG_VALUE: __do_rehash <- [DW_OP_LLVM_fragment 64 64] $r13
	#DEBUG_VALUE: _M_insert_unique_node: <- $r12
	#DEBUG_VALUE:  <- $r12
	#DEBUG_VALUE: __code <- $r15
	#DEBUG_VALUE: _M_insert_unique_node:__node <- $r14
	#DEBUG_VALUE: __node <- $r14
	#DEBUG_VALUE: __p <- $rdi
	#DEBUG_VALUE: __bbegin_bkt <- $rax
	.loc	7 2091 1 is_stmt 1      # /usr/include/c++/9/bits/hashtable.h:2091:1
	movq	%rax, %rcx
.Ltmp190:
	#DEBUG_VALUE: __bbegin_bkt <- $rcx
	.loc	7 0 1 is_stmt 0         # /usr/include/c++/9/bits/hashtable.h:0:1
	movq	%rdi, %rsi
	.loc	7 2111 1 is_stmt 1      # /usr/include/c++/9/bits/hashtable.h:2111:1
	testq	%rdi, %rdi
.Ltmp191:
	#DEBUG_VALUE: __p <- $rsi
	je	.LBB3_18
.Ltmp192:
.LBB3_10:                               # %L.B0125.i
                                        # =>This Inner Loop Header: Depth=1
	#DEBUG_VALUE: __p <- $rsi
	#DEBUG_VALUE: __new_buckets <- $rbx
	#DEBUG_VALUE:  <- $r12
	#DEBUG_VALUE: _M_rehash_aux: <- $r12
	#DEBUG_VALUE:  <- $r12
	#DEBUG_VALUE: _M_rehash: <- $r12
	#DEBUG_VALUE: __n <- $r13
	#DEBUG_VALUE: _M_rehash_aux:__n <- $r13
	#DEBUG_VALUE: __n <- $r13
	#DEBUG_VALUE: _M_rehash:__n <- $r13
	#DEBUG_VALUE: __do_rehash <- [DW_OP_LLVM_fragment 64 64] $r13
	#DEBUG_VALUE: _M_insert_unique_node: <- $r12
	#DEBUG_VALUE:  <- $r12
	#DEBUG_VALUE: __code <- $r15
	#DEBUG_VALUE: _M_insert_unique_node:__node <- $r14
	#DEBUG_VALUE: __node <- $r14
	#DEBUG_VALUE: __p <- $rsi
	#DEBUG_VALUE: __bbegin_bkt <- $rcx
	.loc	7 283 1                 # /usr/include/c++/9/bits/hashtable.h:283:1
	movq	(%rsi), %rdi
.Ltmp193:
	#DEBUG_VALUE: __next <- $rdi
	.loc	7 1304 1                # /usr/include/c++/9/bits/hashtable.h:1304:1
	movl	8(%rsi), %eax
	cmpq	%r13, %rax
	jb	.LBB3_12
.Ltmp194:
# %bb.11:                               #   in Loop: Header=BB3_10 Depth=1
	#DEBUG_VALUE: __next <- $rdi
	#DEBUG_VALUE: __bbegin_bkt <- $rcx
	#DEBUG_VALUE: __p <- $rsi
	#DEBUG_VALUE: __new_buckets <- $rbx
	#DEBUG_VALUE:  <- $r12
	#DEBUG_VALUE: _M_rehash_aux: <- $r12
	#DEBUG_VALUE:  <- $r12
	#DEBUG_VALUE: _M_rehash: <- $r12
	#DEBUG_VALUE: __n <- $r13
	#DEBUG_VALUE: _M_rehash_aux:__n <- $r13
	#DEBUG_VALUE: __n <- $r13
	#DEBUG_VALUE: _M_rehash:__n <- $r13
	#DEBUG_VALUE: __do_rehash <- [DW_OP_LLVM_fragment 64 64] $r13
	#DEBUG_VALUE: _M_insert_unique_node: <- $r12
	#DEBUG_VALUE:  <- $r12
	#DEBUG_VALUE: __code <- $r15
	#DEBUG_VALUE: _M_insert_unique_node:__node <- $r14
	#DEBUG_VALUE: __node <- $r14
                                        # kill: def $eax killed $eax killed $rax
	.loc	7 0 1 is_stmt 0         # /usr/include/c++/9/bits/hashtable.h:0:1
	xorl	%edx, %edx
	divl	%r13d
	movl	%edx, %eax
.Ltmp195:
.LBB3_12:                               #   in Loop: Header=BB3_10 Depth=1
	#DEBUG_VALUE: __next <- $rdi
	#DEBUG_VALUE: __bbegin_bkt <- $rcx
	#DEBUG_VALUE: __p <- $rsi
	#DEBUG_VALUE: __new_buckets <- $rbx
	#DEBUG_VALUE:  <- $r12
	#DEBUG_VALUE: _M_rehash_aux: <- $r12
	#DEBUG_VALUE:  <- $r12
	#DEBUG_VALUE: _M_rehash: <- $r12
	#DEBUG_VALUE: __n <- $r13
	#DEBUG_VALUE: _M_rehash_aux:__n <- $r13
	#DEBUG_VALUE: __n <- $r13
	#DEBUG_VALUE: _M_rehash:__n <- $r13
	#DEBUG_VALUE: __do_rehash <- [DW_OP_LLVM_fragment 64 64] $r13
	#DEBUG_VALUE: _M_insert_unique_node: <- $r12
	#DEBUG_VALUE:  <- $r12
	#DEBUG_VALUE: __code <- $r15
	#DEBUG_VALUE: _M_insert_unique_node:__node <- $r14
	#DEBUG_VALUE: __node <- $r14
	#DEBUG_VALUE: __bkt <- $rax
	.loc	7 2096 1 is_stmt 1      # /usr/include/c++/9/bits/hashtable.h:2096:1
	movq	(%rbx,%rax,8), %rdx
	testq	%rdx, %rdx
	jne	.LBB3_15
.Ltmp196:
# %bb.13:                               # %L.B2836.i
                                        #   in Loop: Header=BB3_10 Depth=1
	#DEBUG_VALUE: __bkt <- $rax
	#DEBUG_VALUE: __next <- $rdi
	#DEBUG_VALUE: __bbegin_bkt <- $rcx
	#DEBUG_VALUE: __p <- $rsi
	#DEBUG_VALUE: __new_buckets <- $rbx
	#DEBUG_VALUE:  <- $r12
	#DEBUG_VALUE: _M_rehash_aux: <- $r12
	#DEBUG_VALUE:  <- $r12
	#DEBUG_VALUE: _M_rehash: <- $r12
	#DEBUG_VALUE: __n <- $r13
	#DEBUG_VALUE: _M_rehash_aux:__n <- $r13
	#DEBUG_VALUE: __n <- $r13
	#DEBUG_VALUE: _M_rehash:__n <- $r13
	#DEBUG_VALUE: __do_rehash <- [DW_OP_LLVM_fragment 64 64] $r13
	#DEBUG_VALUE: _M_insert_unique_node: <- $r12
	#DEBUG_VALUE:  <- $r12
	#DEBUG_VALUE: __code <- $r15
	#DEBUG_VALUE: _M_insert_unique_node:__node <- $r14
	#DEBUG_VALUE: __node <- $r14
	.loc	7 2098 1                # /usr/include/c++/9/bits/hashtable.h:2098:1
	movq	(%r8), %rdx
	movq	%rdx, (%rsi)
	.loc	7 2099 1                # /usr/include/c++/9/bits/hashtable.h:2099:1
	movq	%rsi, (%r8)
	.loc	7 2100 1                # /usr/include/c++/9/bits/hashtable.h:2100:1
	movq	%r8, (%rbx,%rax,8)
	.loc	7 2101 1                # /usr/include/c++/9/bits/hashtable.h:2101:1
	cmpq	$0, (%rsi)
	je	.LBB3_17
.Ltmp197:
# %bb.14:                               # %L.B2837.i
                                        #   in Loop: Header=BB3_10 Depth=1
	#DEBUG_VALUE: __bkt <- $rax
	#DEBUG_VALUE: __next <- $rdi
	#DEBUG_VALUE: __bbegin_bkt <- $rcx
	#DEBUG_VALUE: __p <- $rsi
	#DEBUG_VALUE: __new_buckets <- $rbx
	#DEBUG_VALUE:  <- $r12
	#DEBUG_VALUE: _M_rehash_aux: <- $r12
	#DEBUG_VALUE:  <- $r12
	#DEBUG_VALUE: _M_rehash: <- $r12
	#DEBUG_VALUE: __n <- $r13
	#DEBUG_VALUE: _M_rehash_aux:__n <- $r13
	#DEBUG_VALUE: __n <- $r13
	#DEBUG_VALUE: _M_rehash:__n <- $r13
	#DEBUG_VALUE: __do_rehash <- [DW_OP_LLVM_fragment 64 64] $r13
	#DEBUG_VALUE: _M_insert_unique_node: <- $r12
	#DEBUG_VALUE:  <- $r12
	#DEBUG_VALUE: __code <- $r15
	#DEBUG_VALUE: _M_insert_unique_node:__node <- $r14
	#DEBUG_VALUE: __node <- $r14
	.loc	7 2102 1                # /usr/include/c++/9/bits/hashtable.h:2102:1
	leaq	(%rbx,%rcx,8), %rdx
	jmp	.LBB3_16
.Ltmp198:
.LBB3_18:                               # %L.B0126.i
	#DEBUG_VALUE: __p <- $rsi
	#DEBUG_VALUE: __new_buckets <- $rbx
	#DEBUG_VALUE:  <- $r12
	#DEBUG_VALUE: _M_rehash_aux: <- $r12
	#DEBUG_VALUE:  <- $r12
	#DEBUG_VALUE: _M_rehash: <- $r12
	#DEBUG_VALUE: __n <- $r13
	#DEBUG_VALUE: _M_rehash_aux:__n <- $r13
	#DEBUG_VALUE: __n <- $r13
	#DEBUG_VALUE: _M_rehash:__n <- $r13
	#DEBUG_VALUE: __do_rehash <- [DW_OP_LLVM_fragment 64 64] $r13
	#DEBUG_VALUE: _M_insert_unique_node: <- $r12
	#DEBUG_VALUE:  <- $r12
	#DEBUG_VALUE: __code <- $r15
	#DEBUG_VALUE: _M_insert_unique_node:__node <- $r14
	#DEBUG_VALUE: __node <- $r14
	.loc	7 375 1                 # /usr/include/c++/9/bits/hashtable.h:375:1
	movq	(%r12), %rdi
	leaq	48(%r12), %rax
	cmpq	%rax, %rdi
	je	.LBB3_20
.Ltmp199:
# %bb.19:                               # %L..inline.87704.i
	#DEBUG_VALUE: __p <- $rsi
	#DEBUG_VALUE: __new_buckets <- $rbx
	#DEBUG_VALUE:  <- $r12
	#DEBUG_VALUE: _M_rehash_aux: <- $r12
	#DEBUG_VALUE:  <- $r12
	#DEBUG_VALUE: _M_rehash: <- $r12
	#DEBUG_VALUE: __n <- $r13
	#DEBUG_VALUE: _M_rehash_aux:__n <- $r13
	#DEBUG_VALUE: __n <- $r13
	#DEBUG_VALUE: _M_rehash:__n <- $r13
	#DEBUG_VALUE: __do_rehash <- [DW_OP_LLVM_fragment 64 64] $r13
	#DEBUG_VALUE: _M_insert_unique_node: <- $r12
	#DEBUG_VALUE:  <- $r12
	#DEBUG_VALUE: __code <- $r15
	#DEBUG_VALUE: _M_insert_unique_node:__node <- $r14
	#DEBUG_VALUE: __node <- $r14
	callq	_ZdlPv
.Ltmp200:
.LBB3_20:                               # %_ZNSt10_HashtableIjSt4pairIKjjESaIS2_ENSt8__detail10_Select1stESt8equal_toIjESt4hashIjENS4_18_Mod_range_hashingENS4_20_Default_ranged_hashENS4_20_Prime_rehash_policyENS4_17_Hashtable_traitsILb0ELb0ELb1EEEE13_M_rehash_auxEmSt17integral_constantIbLb1EE.exit
	#DEBUG_VALUE: __new_buckets <- $rbx
	#DEBUG_VALUE:  <- $r12
	#DEBUG_VALUE: _M_rehash_aux: <- $r12
	#DEBUG_VALUE:  <- $r12
	#DEBUG_VALUE: _M_rehash: <- $r12
	#DEBUG_VALUE: __n <- $r13
	#DEBUG_VALUE: _M_rehash_aux:__n <- $r13
	#DEBUG_VALUE: __n <- $r13
	#DEBUG_VALUE: _M_rehash:__n <- $r13
	#DEBUG_VALUE: __do_rehash <- [DW_OP_LLVM_fragment 64 64] $r13
	#DEBUG_VALUE: _M_insert_unique_node: <- $r12
	#DEBUG_VALUE:  <- $r12
	#DEBUG_VALUE: __code <- $r15
	#DEBUG_VALUE: _M_insert_unique_node:__node <- $r14
	#DEBUG_VALUE: __node <- $r14
	.loc	7 2114 1                # /usr/include/c++/9/bits/hashtable.h:2114:1
	movq	%r13, 8(%r12)
	.loc	7 2115 1                # /usr/include/c++/9/bits/hashtable.h:2115:1
	movq	%rbx, (%r12)
.Ltmp201:
.LBB3_23:                               # %L.B2820
	#DEBUG_VALUE: _M_insert_unique_node: <- $r12
	#DEBUG_VALUE:  <- $r12
	#DEBUG_VALUE: __code <- $r15
	#DEBUG_VALUE: _M_insert_unique_node:__node <- $r14
	#DEBUG_VALUE: __node <- $r14
	.loc	7 0 1 is_stmt 0         # /usr/include/c++/9/bits/hashtable.h:0:1
	movq	%r15, %rax
	orq	%r13, %rax
	shrq	$32, %rax
	je	.LBB3_24
.Ltmp202:
# %bb.25:
	#DEBUG_VALUE: _M_insert_unique_node: <- $r12
	#DEBUG_VALUE:  <- $r12
	#DEBUG_VALUE: __code <- $r15
	#DEBUG_VALUE: _M_insert_unique_node:__node <- $r14
	#DEBUG_VALUE: __node <- $r14
	movq	%r15, %rax
	xorl	%edx, %edx
	divq	%r13
	movq	%rdx, %rbx
	jmp	.LBB3_26
.Ltmp203:
.LBB3_24:
	#DEBUG_VALUE: _M_insert_unique_node: <- $r12
	#DEBUG_VALUE:  <- $r12
	#DEBUG_VALUE: __code <- $r15
	#DEBUG_VALUE: _M_insert_unique_node:__node <- $r14
	#DEBUG_VALUE: __node <- $r14
	movl	%r15d, %eax
	xorl	%edx, %edx
	divl	%r13d
	movl	%edx, %ebx
.Ltmp204:
.LBB3_26:                               # %L.B0121
	#DEBUG_VALUE: _M_insert_unique_node: <- $r12
	#DEBUG_VALUE:  <- $r12
	#DEBUG_VALUE: __code <- $r15
	#DEBUG_VALUE: _M_insert_unique_node:__node <- $r14
	#DEBUG_VALUE: __node <- $r14
	#DEBUG_VALUE: _M_insert_unique_node:__bkt <- $rbx
	#DEBUG_VALUE: __bkt <- $rbx
	.loc	7 1720 1 is_stmt 1      # /usr/include/c++/9/bits/hashtable.h:1720:1
	movq	(%r12), %rax
	movq	(%rax,%rbx,8), %rax
	testq	%rax, %rax
	je	.LBB3_28
.Ltmp205:
# %bb.27:                               # %L.B2821
	#DEBUG_VALUE: _M_insert_unique_node: <- $r12
	#DEBUG_VALUE:  <- $r12
	#DEBUG_VALUE: _M_insert_unique_node:__bkt <- $rbx
	#DEBUG_VALUE: __bkt <- $rbx
	#DEBUG_VALUE: __code <- $r15
	#DEBUG_VALUE: _M_insert_unique_node:__node <- $r14
	#DEBUG_VALUE: __node <- $r14
	.loc	7 1564 1                # /usr/include/c++/9/bits/hashtable.h:1564:1
	movq	(%rax), %rax
	movq	%rax, (%r14)
	.loc	7 1568 1                # /usr/include/c++/9/bits/hashtable.h:1568:1
	movq	(%r12), %rax
	movq	(%rax,%rbx,8), %rax
	movq	%r14, (%rax)
	jmp	.LBB3_33
.Ltmp206:
.LBB3_28:                               # %L..inline.87086
	#DEBUG_VALUE: _M_insert_unique_node: <- $r12
	#DEBUG_VALUE:  <- $r12
	#DEBUG_VALUE: _M_insert_unique_node:__bkt <- $rbx
	#DEBUG_VALUE: __bkt <- $rbx
	#DEBUG_VALUE: __code <- $r15
	#DEBUG_VALUE: _M_insert_unique_node:__node <- $r14
	#DEBUG_VALUE: __node <- $r14
	.loc	7 1576 1                # /usr/include/c++/9/bits/hashtable.h:1576:1
	leaq	16(%r12), %rcx
	movq	16(%r12), %rax
	movq	%rax, (%r14)
	movq	%r14, 16(%r12)
	.loc	7 1577 1                # /usr/include/c++/9/bits/hashtable.h:1577:1
	movq	(%r14), %rax
	testq	%rax, %rax
	je	.LBB3_32
.Ltmp207:
# %bb.29:                               # %L.B2822
	#DEBUG_VALUE: _M_insert_unique_node: <- $r12
	#DEBUG_VALUE:  <- $r12
	#DEBUG_VALUE: _M_insert_unique_node:__bkt <- $rbx
	#DEBUG_VALUE: __bkt <- $rbx
	#DEBUG_VALUE: __code <- $r15
	#DEBUG_VALUE: _M_insert_unique_node:__node <- $r14
	#DEBUG_VALUE: __node <- $r14
	.loc	7 1581 1                # /usr/include/c++/9/bits/hashtable.h:1581:1
	movq	8(%r12), %rsi
	movl	8(%rax), %eax
	cmpq	%rsi, %rax
	jb	.LBB3_31
.Ltmp208:
# %bb.30:
	#DEBUG_VALUE: _M_insert_unique_node: <- $r12
	#DEBUG_VALUE:  <- $r12
	#DEBUG_VALUE: _M_insert_unique_node:__bkt <- $rbx
	#DEBUG_VALUE: __bkt <- $rbx
	#DEBUG_VALUE: __code <- $r15
	#DEBUG_VALUE: _M_insert_unique_node:__node <- $r14
	#DEBUG_VALUE: __node <- $r14
                                        # kill: def $eax killed $eax killed $rax
	.loc	7 0 1 is_stmt 0         # /usr/include/c++/9/bits/hashtable.h:0:1
	xorl	%edx, %edx
	divl	%esi
	movl	%edx, %eax
.Ltmp209:
.LBB3_31:
	#DEBUG_VALUE: _M_insert_unique_node: <- $r12
	#DEBUG_VALUE:  <- $r12
	#DEBUG_VALUE: _M_insert_unique_node:__bkt <- $rbx
	#DEBUG_VALUE: __bkt <- $rbx
	#DEBUG_VALUE: __code <- $r15
	#DEBUG_VALUE: _M_insert_unique_node:__node <- $r14
	#DEBUG_VALUE: __node <- $r14
	.loc	7 1581 1                # /usr/include/c++/9/bits/hashtable.h:1581:1
	movq	(%r12), %rdx
	movq	%r14, (%rdx,%rax,8)
.Ltmp210:
.LBB3_32:                               # %L..inline.87089
	#DEBUG_VALUE: _M_insert_unique_node: <- $r12
	#DEBUG_VALUE:  <- $r12
	#DEBUG_VALUE: _M_insert_unique_node:__bkt <- $rbx
	#DEBUG_VALUE: __bkt <- $rbx
	#DEBUG_VALUE: __code <- $r15
	#DEBUG_VALUE: _M_insert_unique_node:__node <- $r14
	#DEBUG_VALUE: __node <- $r14
	.loc	7 1582 1 is_stmt 1      # /usr/include/c++/9/bits/hashtable.h:1582:1
	movq	(%r12), %rax
	movq	%rcx, (%rax,%rbx,8)
.Ltmp211:
.LBB3_33:                               # %L..inline.87088
	#DEBUG_VALUE: _M_insert_unique_node: <- $r12
	#DEBUG_VALUE:  <- $r12
	#DEBUG_VALUE: _M_insert_unique_node:__bkt <- $rbx
	#DEBUG_VALUE: __bkt <- $rbx
	#DEBUG_VALUE: __code <- $r15
	#DEBUG_VALUE: _M_insert_unique_node:__node <- $r14
	#DEBUG_VALUE: __node <- $r14
	.loc	7 1721 1                # /usr/include/c++/9/bits/hashtable.h:1721:1
	incq	24(%r12)
.Ltmp212:
	.loc	7 1729 1                # /usr/include/c++/9/bits/hashtable.h:1729:1
	movq	%r14, %rax
	addq	$24, %rsp
	popq	%rbx
.Ltmp213:
	popq	%r12
.Ltmp214:
	popq	%r13
	popq	%r14
.Ltmp215:
	popq	%r15
.Ltmp216:
	popq	%rbp
	.cfi_def_cfa %rsp, 8
	retq
.LBB3_4:                                # %L.B2835.i
	.cfi_def_cfa %rbp, 16
.Ltmp217:
	#DEBUG_VALUE: __code <- [DW_OP_constu 48, DW_OP_minus] [$rbp+0]
	#DEBUG_VALUE:  <- $r12
	#DEBUG_VALUE: _M_rehash_aux: <- $r12
	#DEBUG_VALUE:  <- $r12
	#DEBUG_VALUE: _M_rehash: <- $r12
	#DEBUG_VALUE: __n <- $r13
	#DEBUG_VALUE: _M_rehash_aux:__n <- $r13
	#DEBUG_VALUE: __n <- $r13
	#DEBUG_VALUE: _M_rehash:__n <- $r13
	#DEBUG_VALUE: __do_rehash <- [DW_OP_LLVM_fragment 64 64] $r13
	#DEBUG_VALUE: _M_insert_unique_node: <- $r12
	#DEBUG_VALUE:  <- $r12
	#DEBUG_VALUE: _M_insert_unique_node:__bkt <- $rbx
	#DEBUG_VALUE: __bkt <- $rbx
	#DEBUG_VALUE: _M_insert_unique_node:__code <- $r15
	#DEBUG_VALUE: _M_insert_unique_node:__node <- $r14
	#DEBUG_VALUE: __node <- $r14
.Ltmp157:
	.loc	7 361 1                 # /usr/include/c++/9/bits/hashtable.h:361:1
	callq	_ZSt17__throw_bad_allocv
.Ltmp158:
.Ltmp218:
# %bb.5:                                # %.noexc
	#DEBUG_VALUE: __code <- [DW_OP_constu 48, DW_OP_minus] [$rbp+0]
	#DEBUG_VALUE:  <- $r12
	#DEBUG_VALUE: _M_rehash_aux: <- $r12
	#DEBUG_VALUE:  <- $r12
	#DEBUG_VALUE: _M_rehash: <- $r12
	#DEBUG_VALUE: __n <- $r13
	#DEBUG_VALUE: _M_rehash_aux:__n <- $r13
	#DEBUG_VALUE: __n <- $r13
	#DEBUG_VALUE: _M_rehash:__n <- $r13
	#DEBUG_VALUE: __do_rehash <- [DW_OP_LLVM_fragment 64 64] $r13
	#DEBUG_VALUE: _M_insert_unique_node: <- $r12
	#DEBUG_VALUE:  <- $r12
	#DEBUG_VALUE: _M_insert_unique_node:__bkt <- $rbx
	#DEBUG_VALUE: __bkt <- $rbx
	#DEBUG_VALUE: _M_insert_unique_node:__code <- $r15
	#DEBUG_VALUE: _M_insert_unique_node:__node <- $r14
	#DEBUG_VALUE: __node <- $r14
.LBB3_21:                               # %L_T21976312_53542.i
	#DEBUG_VALUE: __code <- [DW_OP_constu 48, DW_OP_minus] [$rbp+0]
	#DEBUG_VALUE:  <- $r12
	#DEBUG_VALUE: _M_rehash: <- $r12
	#DEBUG_VALUE: __n <- $r13
	#DEBUG_VALUE: _M_rehash:__n <- $r13
	#DEBUG_VALUE: __do_rehash <- [DW_OP_LLVM_fragment 64 64] $r13
	#DEBUG_VALUE: _M_insert_unique_node: <- $r12
	#DEBUG_VALUE:  <- $r12
	#DEBUG_VALUE: _M_insert_unique_node:__bkt <- $rbx
	#DEBUG_VALUE: __bkt <- $rbx
	#DEBUG_VALUE: _M_insert_unique_node:__node <- $r14
	#DEBUG_VALUE: __node <- $r14
.Ltmp161:
	.loc	7 2070 1                # /usr/include/c++/9/bits/hashtable.h:2070:1
	movq	%rax, %rdi
	callq	__cxa_begin_catch
	movq	-56(%rbp), %rax         # 8-byte Reload
	.loc	7 2073 1                # /usr/include/c++/9/bits/hashtable.h:2073:1
	movq	%rax, 40(%r12)
.Ltmp162:
	.loc	7 2074 1                # /usr/include/c++/9/bits/hashtable.h:2074:1
	callq	__cxa_rethrow
.Ltmp163:
.Ltmp219:
# %bb.22:                               # %L_T21976312_53542.i.L.B2820_crit_edge
	#DEBUG_VALUE: __code <- [DW_OP_constu 48, DW_OP_minus] [$rbp+0]
	#DEBUG_VALUE: __do_rehash <- [DW_OP_LLVM_fragment 64 64] $r13
	#DEBUG_VALUE: _M_insert_unique_node: <- $r12
	#DEBUG_VALUE:  <- $r12
	#DEBUG_VALUE: _M_insert_unique_node:__bkt <- $rbx
	#DEBUG_VALUE: __bkt <- $rbx
	#DEBUG_VALUE: _M_insert_unique_node:__node <- $r14
	#DEBUG_VALUE: __node <- $r14
	.loc	7 644 1                 # /usr/include/c++/9/bits/hashtable.h:644:1
	movq	8(%r12), %r13
.Ltmp220:
	.loc	7 0 1 is_stmt 0         # /usr/include/c++/9/bits/hashtable.h:0:1
	movq	-48(%rbp), %r15         # 8-byte Reload
.Ltmp221:
	#DEBUG_VALUE: __code <- $r15
	jmp	.LBB3_23
.Ltmp222:
.LBB3_34:                               # %L_T21976672_53542.i
	#DEBUG_VALUE: __code <- [DW_OP_constu 48, DW_OP_minus] [$rbp+0]
	#DEBUG_VALUE:  <- $r12
	#DEBUG_VALUE: _M_rehash: <- $r12
	#DEBUG_VALUE: __n <- $r13
	#DEBUG_VALUE: _M_rehash:__n <- $r13
	#DEBUG_VALUE: __do_rehash <- [DW_OP_LLVM_fragment 64 64] $r13
	#DEBUG_VALUE: _M_insert_unique_node: <- $r12
	#DEBUG_VALUE:  <- $r12
	#DEBUG_VALUE: _M_insert_unique_node:__bkt <- $rbx
	#DEBUG_VALUE: __bkt <- $rbx
	#DEBUG_VALUE: _M_insert_unique_node:__node <- $r14
	#DEBUG_VALUE: __node <- $r14
.Ltmp164:
	movq	%rax, %rbx
.Ltmp223:
	.loc	7 2075 1 is_stmt 1      # /usr/include/c++/9/bits/hashtable.h:2075:1
	callq	__cxa_end_catch
.Ltmp224:
	.loc	7 1725 1                # /usr/include/c++/9/bits/hashtable.h:1725:1
	movq	%rbx, %rdi
	callq	__cxa_begin_catch
.Ltmp225:
	.loc	7 2103 1                # /usr/include/c++/9/bits/hashtable.h:2103:1
	movq	%r14, %rdi
	callq	_ZdlPv
.Ltmp165:
.Ltmp226:
	.loc	7 1727 1                # /usr/include/c++/9/bits/hashtable.h:1727:1
	callq	__cxa_rethrow
.Ltmp166:
.Ltmp227:
# %bb.35:                               # %L.B2823
	#DEBUG_VALUE: __code <- [DW_OP_constu 48, DW_OP_minus] [$rbp+0]
	#DEBUG_VALUE:  <- $r12
	#DEBUG_VALUE: _M_rehash: <- $r12
	#DEBUG_VALUE: __n <- $r13
	#DEBUG_VALUE: _M_rehash:__n <- $r13
	#DEBUG_VALUE: __do_rehash <- [DW_OP_LLVM_fragment 64 64] $r13
	#DEBUG_VALUE: _M_insert_unique_node: <- $r12
	#DEBUG_VALUE:  <- $r12
	#DEBUG_VALUE: _M_insert_unique_node:__node <- $r14
	#DEBUG_VALUE: __node <- $r14
.LBB3_36:                               # %L_T21978152_53537
	#DEBUG_VALUE: __code <- [DW_OP_constu 48, DW_OP_minus] [$rbp+0]
	#DEBUG_VALUE: __do_rehash <- [DW_OP_LLVM_fragment 64 64] $r13
	#DEBUG_VALUE: _M_insert_unique_node: <- $r12
	#DEBUG_VALUE:  <- $r12
	#DEBUG_VALUE: _M_insert_unique_node:__node <- $r14
	#DEBUG_VALUE: __node <- $r14
.Ltmp167:
	.loc	7 0 1 is_stmt 0         # /usr/include/c++/9/bits/hashtable.h:0:1
	movq	%rax, %rbx
	.loc	7 1728 1 is_stmt 1      # /usr/include/c++/9/bits/hashtable.h:1728:1
	callq	__cxa_end_catch
	movq	%rbx, %rdi
	callq	_Unwind_Resume
.Ltmp228:
.Lfunc_end3:
	.size	_ZNSt10_HashtableIjSt4pairIKjjESaIS2_ENSt8__detail10_Select1stESt8equal_toIjESt4hashIjENS4_18_Mod_range_hashingENS4_20_Default_ranged_hashENS4_20_Prime_rehash_policyENS4_17_Hashtable_traitsILb0ELb0ELb1EEEE21_M_insert_unique_nodeEmmPNS4_10_Hash_nodeIS2_Lb0EEEm, .Lfunc_end3-_ZNSt10_HashtableIjSt4pairIKjjESaIS2_ENSt8__detail10_Select1stESt8equal_toIjESt4hashIjENS4_18_Mod_range_hashingENS4_20_Default_ranged_hashENS4_20_Prime_rehash_policyENS4_17_Hashtable_traitsILb0ELb0ELb1EEEE21_M_insert_unique_nodeEmmPNS4_10_Hash_nodeIS2_Lb0EEEm
	.cfi_endproc
	.section	.gcc_except_table,"a",@progbits
	.p2align	2
GCC_except_table3:
.Lexception0:
	.byte	255                     # @LPStart Encoding = omit
	.byte	3                       # @TType Encoding = udata4
	.uleb128 .Lttbase0-.Lttbaseref0
.Lttbaseref0:
	.byte	1                       # Call site Encoding = uleb128
	.uleb128 .Lcst_end0-.Lcst_begin0
.Lcst_begin0:
	.uleb128 .Lfunc_begin3-.Lfunc_begin3 # >> Call Site 1 <<
	.uleb128 .Ltmp159-.Lfunc_begin3 #   Call between .Lfunc_begin3 and .Ltmp159
	.byte	0                       #     has no landing pad
	.byte	0                       #   On action: cleanup
	.uleb128 .Ltmp159-.Lfunc_begin3 # >> Call Site 2 <<
	.uleb128 .Ltmp160-.Ltmp159      #   Call between .Ltmp159 and .Ltmp160
	.uleb128 .Ltmp161-.Lfunc_begin3 #     jumps to .Ltmp161
	.byte	1                       #   On action: 1
	.uleb128 .Ltmp160-.Lfunc_begin3 # >> Call Site 3 <<
	.uleb128 .Ltmp157-.Ltmp160      #   Call between .Ltmp160 and .Ltmp157
	.byte	0                       #     has no landing pad
	.byte	0                       #   On action: cleanup
	.uleb128 .Ltmp157-.Lfunc_begin3 # >> Call Site 4 <<
	.uleb128 .Ltmp158-.Ltmp157      #   Call between .Ltmp157 and .Ltmp158
	.uleb128 .Ltmp161-.Lfunc_begin3 #     jumps to .Ltmp161
	.byte	1                       #   On action: 1
	.uleb128 .Ltmp158-.Lfunc_begin3 # >> Call Site 5 <<
	.uleb128 .Ltmp162-.Ltmp158      #   Call between .Ltmp158 and .Ltmp162
	.byte	0                       #     has no landing pad
	.byte	0                       #   On action: cleanup
	.uleb128 .Ltmp162-.Lfunc_begin3 # >> Call Site 6 <<
	.uleb128 .Ltmp163-.Ltmp162      #   Call between .Ltmp162 and .Ltmp163
	.uleb128 .Ltmp164-.Lfunc_begin3 #     jumps to .Ltmp164
	.byte	1                       #   On action: 1
	.uleb128 .Ltmp163-.Lfunc_begin3 # >> Call Site 7 <<
	.uleb128 .Ltmp165-.Ltmp163      #   Call between .Ltmp163 and .Ltmp165
	.byte	0                       #     has no landing pad
	.byte	0                       #   On action: cleanup
	.uleb128 .Ltmp165-.Lfunc_begin3 # >> Call Site 8 <<
	.uleb128 .Ltmp166-.Ltmp165      #   Call between .Ltmp165 and .Ltmp166
	.uleb128 .Ltmp167-.Lfunc_begin3 #     jumps to .Ltmp167
	.byte	0                       #   On action: cleanup
	.uleb128 .Ltmp166-.Lfunc_begin3 # >> Call Site 9 <<
	.uleb128 .Lfunc_end3-.Ltmp166   #   Call between .Ltmp166 and .Lfunc_end3
	.byte	0                       #     has no landing pad
	.byte	0                       #   On action: cleanup
.Lcst_end0:
	.byte	1                       # >> Action Record 1 <<
                                        #   Catch TypeInfo 1
	.byte	0                       #   No further actions
	.p2align	2
                                        # >> Catch TypeInfos <<
	.long	0                       # TypeInfo 1
.Lttbase0:
	.p2align	2
                                        # -- End function
	.text
	.weak	_ZNSt8_Rb_treeIjjSt9_IdentityIjESt4lessIjESaIjEE8_M_eraseEPSt13_Rb_tree_nodeIjE # -- Begin function _ZNSt8_Rb_treeIjjSt9_IdentityIjESt4lessIjESaIjEE8_M_eraseEPSt13_Rb_tree_nodeIjE
	.p2align	4, 0x90
	.type	_ZNSt8_Rb_treeIjjSt9_IdentityIjESt4lessIjESaIjEE8_M_eraseEPSt13_Rb_tree_nodeIjE,@function
_ZNSt8_Rb_treeIjjSt9_IdentityIjESt4lessIjESaIjEE8_M_eraseEPSt13_Rb_tree_nodeIjE: # @_ZNSt8_Rb_treeIjjSt9_IdentityIjESt4lessIjESaIjEE8_M_eraseEPSt13_Rb_tree_nodeIjE
.Lfunc_begin4:
	.file	8 "/usr/include/c++/9/bits/stl_tree.h"
	.loc	8 1909 0                # /usr/include/c++/9/bits/stl_tree.h:1909:0
	.cfi_startproc
# %bb.0:                                # %L.entry
	#DEBUG_VALUE: _M_erase: <- $rdi
	#DEBUG_VALUE: _M_erase:__x <- $rsi
	#DEBUG_VALUE: _M_erase:__x <- $rsi
	#DEBUG_VALUE: _M_erase: <- $rdi
	pushq	%rbp
	.cfi_def_cfa_offset 16
	.cfi_offset %rbp, -16
	movq	%rsp, %rbp
	.cfi_def_cfa_register %rbp
.Ltmp229:
	pushq	%r15
	pushq	%r14
	pushq	%rbx
	pushq	%rax
	.cfi_offset %rbx, -40
	.cfi_offset %r14, -32
	.cfi_offset %r15, -24
.Ltmp230:
	#DEBUG_VALUE:  <- $rdi
	#DEBUG_VALUE: __x <- $rsi
	#DEBUG_VALUE: __x <- $rsi
	#DEBUG_VALUE:  <- $rdi
	.loc	8 1911 1 prologue_end   # /usr/include/c++/9/bits/stl_tree.h:1911:1
	testq	%rsi, %rsi
	je	.LBB4_3
.Ltmp231:
# %bb.1:                                # %L.B0159.preheader
	#DEBUG_VALUE: __x <- $rsi
	#DEBUG_VALUE:  <- $rdi
	#DEBUG_VALUE: _M_erase:__x <- $rsi
	#DEBUG_VALUE: _M_erase: <- $rdi
	.loc	8 0 1 is_stmt 0         # /usr/include/c++/9/bits/stl_tree.h:0:1
	movq	%rsi, %rbx
.Ltmp232:
	#DEBUG_VALUE: _M_erase:__x <- $rbx
	#DEBUG_VALUE: __x <- $rbx
	movq	%rdi, %r14
.Ltmp233:
	#DEBUG_VALUE: _M_erase: <- $r14
	#DEBUG_VALUE:  <- $r14
	.p2align	4, 0x90
.LBB4_2:                                # %L.B0159
                                        # =>This Inner Loop Header: Depth=1
	#DEBUG_VALUE:  <- $r14
	#DEBUG_VALUE: _M_erase: <- $r14
	#DEBUG_VALUE: __x <- $rbx
	#DEBUG_VALUE: _M_erase:__x <- $rbx
	#DEBUG_VALUE: _M_erase:__x <- $rbx
	#DEBUG_VALUE: __x <- $rbx
	.loc	8 1913 1 is_stmt 1      # /usr/include/c++/9/bits/stl_tree.h:1913:1
	movq	24(%rbx), %rsi
.Ltmp234:
	.loc	8 798 1                 # /usr/include/c++/9/bits/stl_tree.h:798:1
	movq	%r14, %rdi
	callq	_ZNSt8_Rb_treeIjjSt9_IdentityIjESt4lessIjESaIjEE8_M_eraseEPSt13_Rb_tree_nodeIjE
	.loc	8 790 1                 # /usr/include/c++/9/bits/stl_tree.h:790:1
	movq	16(%rbx), %r15
.Ltmp235:
	#DEBUG_VALUE: __y <- $r15
	.loc	8 651 1                 # /usr/include/c++/9/bits/stl_tree.h:651:1
	movq	%rbx, %rdi
	callq	_ZdlPv
.Ltmp236:
	#DEBUG_VALUE: __x <- $r15
	#DEBUG_VALUE: _M_erase:__x <- $r15
	.loc	8 0 1 is_stmt 0         # /usr/include/c++/9/bits/stl_tree.h:0:1
	movq	%r15, %rbx
	.loc	8 1917 1 is_stmt 1      # /usr/include/c++/9/bits/stl_tree.h:1917:1
	testq	%r15, %r15
.Ltmp237:
	#DEBUG_VALUE: __y <- $rbx
	#DEBUG_VALUE: __x <- $rbx
	#DEBUG_VALUE: _M_erase:__x <- $rbx
	jne	.LBB4_2
.Ltmp238:
.LBB4_3:                                # %L.B0160
	.loc	8 1918 1                # /usr/include/c++/9/bits/stl_tree.h:1918:1
	addq	$8, %rsp
	popq	%rbx
	popq	%r14
	popq	%r15
	popq	%rbp
	.cfi_def_cfa %rsp, 8
	retq
.Ltmp239:
.Lfunc_end4:
	.size	_ZNSt8_Rb_treeIjjSt9_IdentityIjESt4lessIjESaIjEE8_M_eraseEPSt13_Rb_tree_nodeIjE, .Lfunc_end4-_ZNSt8_Rb_treeIjjSt9_IdentityIjESt4lessIjESaIjEE8_M_eraseEPSt13_Rb_tree_nodeIjE
	.cfi_endproc
                                        # -- End function
	.weak	_ZN3MPI8DatatypeD1Ev    # -- Begin function _ZN3MPI8DatatypeD1Ev
	.p2align	4, 0x90
	.type	_ZN3MPI8DatatypeD1Ev,@function
_ZN3MPI8DatatypeD1Ev:                   # @_ZN3MPI8DatatypeD1Ev
.Lfunc_begin5:
	.file	9 "/usr/lib/x86_64-linux-gnu/openmpi/include/openmpi/ompi/mpi/cxx/datatype.h"
	.loc	9 70 0                  # /usr/lib/x86_64-linux-gnu/openmpi/include/openmpi/ompi/mpi/cxx/datatype.h:70:0
	.cfi_startproc
# %bb.0:                                # %L.entry
	#DEBUG_VALUE: ~Datatype: <- $rdi
	#DEBUG_VALUE: ~Datatype: <- $rdi
	pushq	%rbp
	.cfi_def_cfa_offset 16
	.cfi_offset %rbp, -16
	movq	%rsp, %rbp
	.cfi_def_cfa_register %rbp
.Ltmp240:
	#DEBUG_VALUE:  <- $rdi
	#DEBUG_VALUE:  <- $rdi
	.loc	9 70 1 prologue_end     # /usr/lib/x86_64-linux-gnu/openmpi/include/openmpi/ompi/mpi/cxx/datatype.h:70:1
	movq	$_ZTVN3MPI8DatatypeE+16, (%rdi)
	popq	%rbp
	.cfi_def_cfa %rsp, 8
	retq
.Ltmp241:
.Lfunc_end5:
	.size	_ZN3MPI8DatatypeD1Ev, .Lfunc_end5-_ZN3MPI8DatatypeD1Ev
	.cfi_endproc
                                        # -- End function
	.weak	_ZN3MPI8DatatypeD0Ev    # -- Begin function _ZN3MPI8DatatypeD0Ev
	.p2align	4, 0x90
	.type	_ZN3MPI8DatatypeD0Ev,@function
_ZN3MPI8DatatypeD0Ev:                   # @_ZN3MPI8DatatypeD0Ev
.Lfunc_begin6:
	.loc	1 0 0                   # projects/projectTriAxisSearch.cpp:0:0
	.cfi_startproc
# %bb.0:                                # %L.entry
	pushq	%rbp
	.cfi_def_cfa_offset 16
	.cfi_offset %rbp, -16
	movq	%rsp, %rbp
	.cfi_def_cfa_register %rbp
.Ltmp242:
	.loc	1 70 1 prologue_end     # projects/projectTriAxisSearch.cpp:70:1
	movl	$16, %esi
	popq	%rbp
	.cfi_def_cfa %rsp, 8
	jmp	_ZdlPvm                 # TAILCALL
.Ltmp243:
.Lfunc_end6:
	.size	_ZN3MPI8DatatypeD0Ev, .Lfunc_end6-_ZN3MPI8DatatypeD0Ev
	.cfi_endproc
                                        # -- End function
	.weak	_ZNK3MPI8Datatype17Create_contiguousEi # -- Begin function _ZNK3MPI8Datatype17Create_contiguousEi
	.p2align	4, 0x90
	.type	_ZNK3MPI8Datatype17Create_contiguousEi,@function
_ZNK3MPI8Datatype17Create_contiguousEi: # @_ZNK3MPI8Datatype17Create_contiguousEi
.Lfunc_begin7:
	.file	10 "/usr/lib/x86_64-linux-gnu/openmpi/include/openmpi/ompi/mpi/cxx/datatype_inln.h"
	.loc	10 30 0                 # /usr/lib/x86_64-linux-gnu/openmpi/include/openmpi/ompi/mpi/cxx/datatype_inln.h:30:0
	.cfi_startproc
# %bb.0:                                # %L.entry
	#DEBUG_VALUE: Create_contiguous: <- $rsi
	#DEBUG_VALUE: Create_contiguous:count <- $edx
	pushq	%rbp
	.cfi_def_cfa_offset 16
	.cfi_offset %rbp, -16
	movq	%rsp, %rbp
	.cfi_def_cfa_register %rbp
	pushq	%rbx
	pushq	%rax
	.cfi_offset %rbx, -24
	movl	%edx, %eax
	movq	%rdi, %rbx
.Ltmp244:
	#DEBUG_VALUE:  <- $rsi
	#DEBUG_VALUE: count <- $eax
	#DEBUG_VALUE: Create_contiguous:count <- $eax
	#DEBUG_VALUE: Create_contiguous: <- $rsi
	.loc	10 32 1 prologue_end    # /usr/lib/x86_64-linux-gnu/openmpi/include/openmpi/ompi/mpi/cxx/datatype_inln.h:32:1
	movq	8(%rsi), %rsi
.Ltmp245:
	#DEBUG_VALUE: newtype <- [DW_OP_constu 16, DW_OP_minus, DW_OP_deref] $rbp
	.loc	10 0 1 is_stmt 0        # /usr/lib/x86_64-linux-gnu/openmpi/include/openmpi/ompi/mpi/cxx/datatype_inln.h:0:1
	leaq	-16(%rbp), %rdx
	.loc	10 32 1                 # /usr/lib/x86_64-linux-gnu/openmpi/include/openmpi/ompi/mpi/cxx/datatype_inln.h:32:1
	movl	%eax, %edi
.Ltmp246:
	#DEBUG_VALUE: Create_contiguous:count <- $edi
	callq	MPI_Type_contiguous
.Ltmp247:
	.loc	10 33 1 is_stmt 1       # /usr/lib/x86_64-linux-gnu/openmpi/include/openmpi/ompi/mpi/cxx/datatype_inln.h:33:1
	movq	-16(%rbp), %rax
.Ltmp248:
	#DEBUG_VALUE: newtype <- undef
	movq	$_ZTVN3MPI8DatatypeE+16, (%rbx)
	.loc	10 72 1                 # /usr/lib/x86_64-linux-gnu/openmpi/include/openmpi/ompi/mpi/cxx/datatype_inln.h:72:1
	movq	%rax, 8(%rbx)
	.loc	10 34 1                 # /usr/lib/x86_64-linux-gnu/openmpi/include/openmpi/ompi/mpi/cxx/datatype_inln.h:34:1
	movq	%rbx, %rax
	addq	$8, %rsp
	popq	%rbx
	popq	%rbp
	.cfi_def_cfa %rsp, 8
	retq
.Ltmp249:
.Lfunc_end7:
	.size	_ZNK3MPI8Datatype17Create_contiguousEi, .Lfunc_end7-_ZNK3MPI8Datatype17Create_contiguousEi
	.cfi_endproc
                                        # -- End function
	.weak	_ZNK3MPI8Datatype13Create_vectorEiii # -- Begin function _ZNK3MPI8Datatype13Create_vectorEiii
	.p2align	4, 0x90
	.type	_ZNK3MPI8Datatype13Create_vectorEiii,@function
_ZNK3MPI8Datatype13Create_vectorEiii:   # @_ZNK3MPI8Datatype13Create_vectorEiii
.Lfunc_begin8:
	.loc	10 39 0                 # /usr/lib/x86_64-linux-gnu/openmpi/include/openmpi/ompi/mpi/cxx/datatype_inln.h:39:0
	.cfi_startproc
# %bb.0:                                # %L.entry
	#DEBUG_VALUE: Create_vector: <- $rsi
	#DEBUG_VALUE: Create_vector:count <- $edx
	#DEBUG_VALUE: Create_vector:blocklength <- $ecx
	#DEBUG_VALUE: Create_vector:stride <- $r8d
	pushq	%rbp
	.cfi_def_cfa_offset 16
	.cfi_offset %rbp, -16
	movq	%rsp, %rbp
	.cfi_def_cfa_register %rbp
	pushq	%rbx
	pushq	%rax
	.cfi_offset %rbx, -24
	movl	%r8d, %r9d
	movq	%rdi, %rbx
.Ltmp250:
	#DEBUG_VALUE:  <- $rsi
	#DEBUG_VALUE: stride <- $r9d
	#DEBUG_VALUE: blocklength <- $ecx
	#DEBUG_VALUE: count <- $edx
	#DEBUG_VALUE: Create_vector:stride <- $r9d
	#DEBUG_VALUE: Create_vector:blocklength <- $ecx
	#DEBUG_VALUE: Create_vector:count <- $edx
	#DEBUG_VALUE: Create_vector: <- $rsi
	.loc	10 41 1 prologue_end    # /usr/lib/x86_64-linux-gnu/openmpi/include/openmpi/ompi/mpi/cxx/datatype_inln.h:41:1
	movq	8(%rsi), %rax
.Ltmp251:
	#DEBUG_VALUE: newtype <- [DW_OP_constu 16, DW_OP_minus, DW_OP_deref] $rbp
	.loc	10 0 1 is_stmt 0        # /usr/lib/x86_64-linux-gnu/openmpi/include/openmpi/ompi/mpi/cxx/datatype_inln.h:0:1
	leaq	-16(%rbp), %r8
	.loc	10 41 1                 # /usr/lib/x86_64-linux-gnu/openmpi/include/openmpi/ompi/mpi/cxx/datatype_inln.h:41:1
	movl	%edx, %edi
.Ltmp252:
	#DEBUG_VALUE: Create_vector:count <- $edi
	movl	%ecx, %esi
.Ltmp253:
	#DEBUG_VALUE: Create_vector:blocklength <- $esi
	movl	%r9d, %edx
.Ltmp254:
	#DEBUG_VALUE: Create_vector:stride <- $edx
	movq	%rax, %rcx
.Ltmp255:
	callq	MPI_Type_vector
.Ltmp256:
	.loc	10 42 1 is_stmt 1       # /usr/lib/x86_64-linux-gnu/openmpi/include/openmpi/ompi/mpi/cxx/datatype_inln.h:42:1
	movq	-16(%rbp), %rax
.Ltmp257:
	#DEBUG_VALUE: newtype <- undef
	movq	$_ZTVN3MPI8DatatypeE+16, (%rbx)
	.loc	10 72 1                 # /usr/lib/x86_64-linux-gnu/openmpi/include/openmpi/ompi/mpi/cxx/datatype_inln.h:72:1
	movq	%rax, 8(%rbx)
	.loc	10 43 1                 # /usr/lib/x86_64-linux-gnu/openmpi/include/openmpi/ompi/mpi/cxx/datatype_inln.h:43:1
	movq	%rbx, %rax
	addq	$8, %rsp
	popq	%rbx
	popq	%rbp
	.cfi_def_cfa %rsp, 8
	retq
.Ltmp258:
.Lfunc_end8:
	.size	_ZNK3MPI8Datatype13Create_vectorEiii, .Lfunc_end8-_ZNK3MPI8Datatype13Create_vectorEiii
	.cfi_endproc
                                        # -- End function
	.weak	_ZNK3MPI8Datatype14Create_indexedEiPKiS2_ # -- Begin function _ZNK3MPI8Datatype14Create_indexedEiPKiS2_
	.p2align	4, 0x90
	.type	_ZNK3MPI8Datatype14Create_indexedEiPKiS2_,@function
_ZNK3MPI8Datatype14Create_indexedEiPKiS2_: # @_ZNK3MPI8Datatype14Create_indexedEiPKiS2_
.Lfunc_begin9:
	.loc	10 49 0                 # /usr/lib/x86_64-linux-gnu/openmpi/include/openmpi/ompi/mpi/cxx/datatype_inln.h:49:0
	.cfi_startproc
# %bb.0:                                # %L.entry
	#DEBUG_VALUE: Create_indexed: <- $rsi
	#DEBUG_VALUE: Create_indexed:count <- $edx
	#DEBUG_VALUE: Create_indexed:array_of_blocklengths <- $rcx
	#DEBUG_VALUE: Create_indexed:array_of_displacements <- $r8
	pushq	%rbp
	.cfi_def_cfa_offset 16
	.cfi_offset %rbp, -16
	movq	%rsp, %rbp
	.cfi_def_cfa_register %rbp
	pushq	%rbx
	pushq	%rax
	.cfi_offset %rbx, -24
	movq	%r8, %r9
	movq	%rdi, %rbx
.Ltmp259:
	#DEBUG_VALUE:  <- $rsi
	#DEBUG_VALUE: array_of_displacements <- $r9
	#DEBUG_VALUE: array_of_blocklengths <- $rcx
	#DEBUG_VALUE: count <- $edx
	#DEBUG_VALUE: Create_indexed:array_of_displacements <- $r9
	#DEBUG_VALUE: Create_indexed:array_of_blocklengths <- $rcx
	#DEBUG_VALUE: Create_indexed:count <- $edx
	#DEBUG_VALUE: Create_indexed: <- $rsi
	.loc	10 51 1 prologue_end    # /usr/lib/x86_64-linux-gnu/openmpi/include/openmpi/ompi/mpi/cxx/datatype_inln.h:51:1
	movq	8(%rsi), %rax
.Ltmp260:
	#DEBUG_VALUE: newtype <- [DW_OP_constu 16, DW_OP_minus, DW_OP_deref] $rbp
	.loc	10 0 1 is_stmt 0        # /usr/lib/x86_64-linux-gnu/openmpi/include/openmpi/ompi/mpi/cxx/datatype_inln.h:0:1
	leaq	-16(%rbp), %r8
	.loc	10 51 1                 # /usr/lib/x86_64-linux-gnu/openmpi/include/openmpi/ompi/mpi/cxx/datatype_inln.h:51:1
	movl	%edx, %edi
.Ltmp261:
	#DEBUG_VALUE: Create_indexed:count <- $edi
	movq	%rcx, %rsi
.Ltmp262:
	#DEBUG_VALUE: Create_indexed:array_of_blocklengths <- $rsi
	movq	%r9, %rdx
.Ltmp263:
	#DEBUG_VALUE: Create_indexed:array_of_displacements <- $rdx
	movq	%rax, %rcx
.Ltmp264:
	callq	MPI_Type_indexed
.Ltmp265:
	.loc	10 53 1 is_stmt 1       # /usr/lib/x86_64-linux-gnu/openmpi/include/openmpi/ompi/mpi/cxx/datatype_inln.h:53:1
	movq	-16(%rbp), %rax
.Ltmp266:
	#DEBUG_VALUE: newtype <- undef
	movq	$_ZTVN3MPI8DatatypeE+16, (%rbx)
	.loc	10 72 1                 # /usr/lib/x86_64-linux-gnu/openmpi/include/openmpi/ompi/mpi/cxx/datatype_inln.h:72:1
	movq	%rax, 8(%rbx)
	.loc	10 54 1                 # /usr/lib/x86_64-linux-gnu/openmpi/include/openmpi/ompi/mpi/cxx/datatype_inln.h:54:1
	movq	%rbx, %rax
	addq	$8, %rsp
	popq	%rbx
	popq	%rbp
	.cfi_def_cfa %rsp, 8
	retq
.Ltmp267:
.Lfunc_end9:
	.size	_ZNK3MPI8Datatype14Create_indexedEiPKiS2_, .Lfunc_end9-_ZNK3MPI8Datatype14Create_indexedEiPKiS2_
	.cfi_endproc
                                        # -- End function
	.weak	_ZNK3MPI8Datatype15Create_hindexedEiPKiPKl # -- Begin function _ZNK3MPI8Datatype15Create_hindexedEiPKiPKl
	.p2align	4, 0x90
	.type	_ZNK3MPI8Datatype15Create_hindexedEiPKiPKl,@function
_ZNK3MPI8Datatype15Create_hindexedEiPKiPKl: # @_ZNK3MPI8Datatype15Create_hindexedEiPKiPKl
.Lfunc_begin10:
	.loc	10 77 0                 # /usr/lib/x86_64-linux-gnu/openmpi/include/openmpi/ompi/mpi/cxx/datatype_inln.h:77:0
	.cfi_startproc
# %bb.0:                                # %L.entry
	#DEBUG_VALUE: Create_hindexed: <- $rsi
	#DEBUG_VALUE: Create_hindexed:count <- $edx
	#DEBUG_VALUE: Create_hindexed:array_of_blocklengths <- $rcx
	#DEBUG_VALUE: Create_hindexed:array_of_displacements <- $r8
	pushq	%rbp
	.cfi_def_cfa_offset 16
	.cfi_offset %rbp, -16
	movq	%rsp, %rbp
	.cfi_def_cfa_register %rbp
	pushq	%rbx
	pushq	%rax
	.cfi_offset %rbx, -24
	movq	%r8, %r9
	movq	%rdi, %rbx
.Ltmp268:
	#DEBUG_VALUE:  <- $rsi
	#DEBUG_VALUE: array_of_displacements <- $r9
	#DEBUG_VALUE: array_of_blocklengths <- $rcx
	#DEBUG_VALUE: count <- $edx
	#DEBUG_VALUE: Create_hindexed:array_of_displacements <- $r9
	#DEBUG_VALUE: Create_hindexed:array_of_blocklengths <- $rcx
	#DEBUG_VALUE: Create_hindexed:count <- $edx
	#DEBUG_VALUE: Create_hindexed: <- $rsi
	.loc	10 79 1 prologue_end    # /usr/lib/x86_64-linux-gnu/openmpi/include/openmpi/ompi/mpi/cxx/datatype_inln.h:79:1
	movq	8(%rsi), %rax
.Ltmp269:
	#DEBUG_VALUE: newtype <- [DW_OP_constu 16, DW_OP_minus, DW_OP_deref] $rbp
	.loc	10 0 1 is_stmt 0        # /usr/lib/x86_64-linux-gnu/openmpi/include/openmpi/ompi/mpi/cxx/datatype_inln.h:0:1
	leaq	-16(%rbp), %r8
	.loc	10 79 1                 # /usr/lib/x86_64-linux-gnu/openmpi/include/openmpi/ompi/mpi/cxx/datatype_inln.h:79:1
	movl	%edx, %edi
.Ltmp270:
	#DEBUG_VALUE: Create_hindexed:count <- $edi
	movq	%rcx, %rsi
.Ltmp271:
	#DEBUG_VALUE: Create_hindexed:array_of_blocklengths <- $rsi
	movq	%r9, %rdx
.Ltmp272:
	#DEBUG_VALUE: Create_hindexed:array_of_displacements <- $rdx
	movq	%rax, %rcx
.Ltmp273:
	callq	MPI_Type_create_hindexed
.Ltmp274:
	.loc	10 82 1 is_stmt 1       # /usr/lib/x86_64-linux-gnu/openmpi/include/openmpi/ompi/mpi/cxx/datatype_inln.h:82:1
	movq	-16(%rbp), %rax
.Ltmp275:
	#DEBUG_VALUE: newtype <- undef
	movq	$_ZTVN3MPI8DatatypeE+16, (%rbx)
	.loc	10 72 1                 # /usr/lib/x86_64-linux-gnu/openmpi/include/openmpi/ompi/mpi/cxx/datatype_inln.h:72:1
	movq	%rax, 8(%rbx)
	.loc	10 83 1                 # /usr/lib/x86_64-linux-gnu/openmpi/include/openmpi/ompi/mpi/cxx/datatype_inln.h:83:1
	movq	%rbx, %rax
	addq	$8, %rsp
	popq	%rbx
	popq	%rbp
	.cfi_def_cfa %rsp, 8
	retq
.Ltmp276:
.Lfunc_end10:
	.size	_ZNK3MPI8Datatype15Create_hindexedEiPKiPKl, .Lfunc_end10-_ZNK3MPI8Datatype15Create_hindexedEiPKiPKl
	.cfi_endproc
                                        # -- End function
	.weak	_ZNK3MPI8Datatype14Create_hvectorEiil # -- Begin function _ZNK3MPI8Datatype14Create_hvectorEiil
	.p2align	4, 0x90
	.type	_ZNK3MPI8Datatype14Create_hvectorEiil,@function
_ZNK3MPI8Datatype14Create_hvectorEiil:  # @_ZNK3MPI8Datatype14Create_hvectorEiil
.Lfunc_begin11:
	.loc	10 88 0                 # /usr/lib/x86_64-linux-gnu/openmpi/include/openmpi/ompi/mpi/cxx/datatype_inln.h:88:0
	.cfi_startproc
# %bb.0:                                # %L.entry
	#DEBUG_VALUE: Create_hvector: <- $rsi
	#DEBUG_VALUE: Create_hvector:count <- $edx
	#DEBUG_VALUE: Create_hvector:blocklength <- $ecx
	#DEBUG_VALUE: Create_hvector:stride <- $r8
	pushq	%rbp
	.cfi_def_cfa_offset 16
	.cfi_offset %rbp, -16
	movq	%rsp, %rbp
	.cfi_def_cfa_register %rbp
	pushq	%rbx
	pushq	%rax
	.cfi_offset %rbx, -24
	movq	%r8, %r9
	movq	%rdi, %rbx
.Ltmp277:
	#DEBUG_VALUE:  <- $rsi
	#DEBUG_VALUE: stride <- $r9
	#DEBUG_VALUE: blocklength <- $ecx
	#DEBUG_VALUE: count <- $edx
	#DEBUG_VALUE: Create_hvector:stride <- $r9
	#DEBUG_VALUE: Create_hvector:blocklength <- $ecx
	#DEBUG_VALUE: Create_hvector:count <- $edx
	#DEBUG_VALUE: Create_hvector: <- $rsi
	.loc	10 90 1 prologue_end    # /usr/lib/x86_64-linux-gnu/openmpi/include/openmpi/ompi/mpi/cxx/datatype_inln.h:90:1
	movq	8(%rsi), %rax
.Ltmp278:
	#DEBUG_VALUE: newtype <- [DW_OP_constu 16, DW_OP_minus, DW_OP_deref] $rbp
	.loc	10 0 1 is_stmt 0        # /usr/lib/x86_64-linux-gnu/openmpi/include/openmpi/ompi/mpi/cxx/datatype_inln.h:0:1
	leaq	-16(%rbp), %r8
	.loc	10 90 1                 # /usr/lib/x86_64-linux-gnu/openmpi/include/openmpi/ompi/mpi/cxx/datatype_inln.h:90:1
	movl	%edx, %edi
.Ltmp279:
	#DEBUG_VALUE: Create_hvector:count <- $edi
	movl	%ecx, %esi
.Ltmp280:
	#DEBUG_VALUE: Create_hvector:blocklength <- $esi
	movq	%r9, %rdx
.Ltmp281:
	#DEBUG_VALUE: Create_hvector:stride <- $rdx
	movq	%rax, %rcx
.Ltmp282:
	callq	MPI_Type_create_hvector
.Ltmp283:
	.loc	10 93 1 is_stmt 1       # /usr/lib/x86_64-linux-gnu/openmpi/include/openmpi/ompi/mpi/cxx/datatype_inln.h:93:1
	movq	-16(%rbp), %rax
.Ltmp284:
	#DEBUG_VALUE: newtype <- undef
	movq	$_ZTVN3MPI8DatatypeE+16, (%rbx)
	.loc	10 72 1                 # /usr/lib/x86_64-linux-gnu/openmpi/include/openmpi/ompi/mpi/cxx/datatype_inln.h:72:1
	movq	%rax, 8(%rbx)
	.loc	10 94 1                 # /usr/lib/x86_64-linux-gnu/openmpi/include/openmpi/ompi/mpi/cxx/datatype_inln.h:94:1
	movq	%rbx, %rax
	addq	$8, %rsp
	popq	%rbx
	popq	%rbp
	.cfi_def_cfa %rsp, 8
	retq
.Ltmp285:
.Lfunc_end11:
	.size	_ZNK3MPI8Datatype14Create_hvectorEiil, .Lfunc_end11-_ZNK3MPI8Datatype14Create_hvectorEiil
	.cfi_endproc
                                        # -- End function
	.weak	_ZNK3MPI8Datatype20Create_indexed_blockEiiPKi # -- Begin function _ZNK3MPI8Datatype20Create_indexed_blockEiiPKi
	.p2align	4, 0x90
	.type	_ZNK3MPI8Datatype20Create_indexed_blockEiiPKi,@function
_ZNK3MPI8Datatype20Create_indexed_blockEiiPKi: # @_ZNK3MPI8Datatype20Create_indexed_blockEiiPKi
.Lfunc_begin12:
	.loc	10 99 0                 # /usr/lib/x86_64-linux-gnu/openmpi/include/openmpi/ompi/mpi/cxx/datatype_inln.h:99:0
	.cfi_startproc
# %bb.0:                                # %L.entry
	#DEBUG_VALUE: Create_indexed_block: <- $rsi
	#DEBUG_VALUE: Create_indexed_block:count <- $edx
	#DEBUG_VALUE: Create_indexed_block:blocklength <- $ecx
	#DEBUG_VALUE: Create_indexed_block:array_of_displacements <- $r8
	pushq	%rbp
	.cfi_def_cfa_offset 16
	.cfi_offset %rbp, -16
	movq	%rsp, %rbp
	.cfi_def_cfa_register %rbp
	pushq	%rbx
	pushq	%rax
	.cfi_offset %rbx, -24
	movq	%r8, %r9
	movq	%rdi, %rbx
.Ltmp286:
	#DEBUG_VALUE:  <- $rsi
	#DEBUG_VALUE: array_of_displacements <- $r9
	#DEBUG_VALUE: blocklength <- $ecx
	#DEBUG_VALUE: count <- $edx
	#DEBUG_VALUE: Create_indexed_block:array_of_displacements <- $r9
	#DEBUG_VALUE: Create_indexed_block:blocklength <- $ecx
	#DEBUG_VALUE: Create_indexed_block:count <- $edx
	#DEBUG_VALUE: Create_indexed_block: <- $rsi
	.loc	10 101 1 prologue_end   # /usr/lib/x86_64-linux-gnu/openmpi/include/openmpi/ompi/mpi/cxx/datatype_inln.h:101:1
	movq	8(%rsi), %rax
.Ltmp287:
	#DEBUG_VALUE: newtype <- [DW_OP_constu 16, DW_OP_minus, DW_OP_deref] $rbp
	.loc	10 0 1 is_stmt 0        # /usr/lib/x86_64-linux-gnu/openmpi/include/openmpi/ompi/mpi/cxx/datatype_inln.h:0:1
	leaq	-16(%rbp), %r8
	.loc	10 101 1                # /usr/lib/x86_64-linux-gnu/openmpi/include/openmpi/ompi/mpi/cxx/datatype_inln.h:101:1
	movl	%edx, %edi
.Ltmp288:
	#DEBUG_VALUE: Create_indexed_block:count <- $edi
	movl	%ecx, %esi
.Ltmp289:
	#DEBUG_VALUE: Create_indexed_block:blocklength <- $esi
	movq	%r9, %rdx
.Ltmp290:
	#DEBUG_VALUE: Create_indexed_block:array_of_displacements <- $rdx
	movq	%rax, %rcx
.Ltmp291:
	callq	MPI_Type_create_indexed_block
.Ltmp292:
	.loc	10 103 1 is_stmt 1      # /usr/lib/x86_64-linux-gnu/openmpi/include/openmpi/ompi/mpi/cxx/datatype_inln.h:103:1
	movq	-16(%rbp), %rax
.Ltmp293:
	#DEBUG_VALUE: newtype <- undef
	movq	$_ZTVN3MPI8DatatypeE+16, (%rbx)
	.loc	10 72 1                 # /usr/lib/x86_64-linux-gnu/openmpi/include/openmpi/ompi/mpi/cxx/datatype_inln.h:72:1
	movq	%rax, 8(%rbx)
	.loc	10 104 1                # /usr/lib/x86_64-linux-gnu/openmpi/include/openmpi/ompi/mpi/cxx/datatype_inln.h:104:1
	movq	%rbx, %rax
	addq	$8, %rsp
	popq	%rbx
	popq	%rbp
	.cfi_def_cfa %rsp, 8
	retq
.Ltmp294:
.Lfunc_end12:
	.size	_ZNK3MPI8Datatype20Create_indexed_blockEiiPKi, .Lfunc_end12-_ZNK3MPI8Datatype20Create_indexed_blockEiiPKi
	.cfi_endproc
                                        # -- End function
	.weak	_ZNK3MPI8Datatype14Create_resizedEll # -- Begin function _ZNK3MPI8Datatype14Create_resizedEll
	.p2align	4, 0x90
	.type	_ZNK3MPI8Datatype14Create_resizedEll,@function
_ZNK3MPI8Datatype14Create_resizedEll:   # @_ZNK3MPI8Datatype14Create_resizedEll
.Lfunc_begin13:
	.loc	10 108 0                # /usr/lib/x86_64-linux-gnu/openmpi/include/openmpi/ompi/mpi/cxx/datatype_inln.h:108:0
	.cfi_startproc
# %bb.0:                                # %L.entry
	#DEBUG_VALUE: Create_resized: <- $rsi
	#DEBUG_VALUE: Create_resized:lb <- $rdx
	#DEBUG_VALUE: Create_resized:extent <- $rcx
	pushq	%rbp
	.cfi_def_cfa_offset 16
	.cfi_offset %rbp, -16
	movq	%rsp, %rbp
	.cfi_def_cfa_register %rbp
	pushq	%rbx
	pushq	%rax
	.cfi_offset %rbx, -24
	movq	%rdi, %rbx
.Ltmp295:
	#DEBUG_VALUE:  <- $rsi
	#DEBUG_VALUE: extent <- $rcx
	#DEBUG_VALUE: lb <- $rdx
	#DEBUG_VALUE: Create_resized:extent <- $rcx
	#DEBUG_VALUE: Create_resized:lb <- $rdx
	#DEBUG_VALUE: Create_resized: <- $rsi
	.loc	10 111 1 prologue_end   # /usr/lib/x86_64-linux-gnu/openmpi/include/openmpi/ompi/mpi/cxx/datatype_inln.h:111:1
	movq	8(%rsi), %rdi
.Ltmp296:
	#DEBUG_VALUE: newtype <- [DW_OP_constu 16, DW_OP_minus, DW_OP_deref] $rbp
	.loc	10 0 1 is_stmt 0        # /usr/lib/x86_64-linux-gnu/openmpi/include/openmpi/ompi/mpi/cxx/datatype_inln.h:0:1
	leaq	-16(%rbp), %rax
	.loc	10 111 1                # /usr/lib/x86_64-linux-gnu/openmpi/include/openmpi/ompi/mpi/cxx/datatype_inln.h:111:1
	movq	%rdx, %rsi
.Ltmp297:
	#DEBUG_VALUE: Create_resized:lb <- $rsi
	movq	%rcx, %rdx
.Ltmp298:
	#DEBUG_VALUE: Create_resized:extent <- $rdx
	movq	%rax, %rcx
.Ltmp299:
	callq	MPI_Type_create_resized
.Ltmp300:
	.loc	10 112 1 is_stmt 1      # /usr/lib/x86_64-linux-gnu/openmpi/include/openmpi/ompi/mpi/cxx/datatype_inln.h:112:1
	movq	-16(%rbp), %rax
.Ltmp301:
	#DEBUG_VALUE: newtype <- undef
	movq	$_ZTVN3MPI8DatatypeE+16, (%rbx)
	.loc	10 72 1                 # /usr/lib/x86_64-linux-gnu/openmpi/include/openmpi/ompi/mpi/cxx/datatype_inln.h:72:1
	movq	%rax, 8(%rbx)
	.loc	10 113 1                # /usr/lib/x86_64-linux-gnu/openmpi/include/openmpi/ompi/mpi/cxx/datatype_inln.h:113:1
	movq	%rbx, %rax
	addq	$8, %rsp
	popq	%rbx
	popq	%rbp
	.cfi_def_cfa %rsp, 8
	retq
.Ltmp302:
.Lfunc_end13:
	.size	_ZNK3MPI8Datatype14Create_resizedEll, .Lfunc_end13-_ZNK3MPI8Datatype14Create_resizedEll
	.cfi_endproc
                                        # -- End function
	.weak	_ZNK3MPI8Datatype8Get_sizeEv # -- Begin function _ZNK3MPI8Datatype8Get_sizeEv
	.p2align	4, 0x90
	.type	_ZNK3MPI8Datatype8Get_sizeEv,@function
_ZNK3MPI8Datatype8Get_sizeEv:           # @_ZNK3MPI8Datatype8Get_sizeEv
.Lfunc_begin14:
	.loc	10 117 0                # /usr/lib/x86_64-linux-gnu/openmpi/include/openmpi/ompi/mpi/cxx/datatype_inln.h:117:0
	.cfi_startproc
# %bb.0:                                # %L.entry
	#DEBUG_VALUE: Get_size: <- $rdi
	#DEBUG_VALUE: Get_size: <- $rdi
	pushq	%rbp
	.cfi_def_cfa_offset 16
	.cfi_offset %rbp, -16
	movq	%rsp, %rbp
	.cfi_def_cfa_register %rbp
	subq	$16, %rsp
.Ltmp303:
	#DEBUG_VALUE:  <- $rdi
	.loc	10 119 1 prologue_end   # /usr/lib/x86_64-linux-gnu/openmpi/include/openmpi/ompi/mpi/cxx/datatype_inln.h:119:1
	movq	8(%rdi), %rdi
.Ltmp304:
	#DEBUG_VALUE: size <- [DW_OP_constu 4, DW_OP_minus, DW_OP_deref] $rbp
	.loc	10 0 1 is_stmt 0        # /usr/lib/x86_64-linux-gnu/openmpi/include/openmpi/ompi/mpi/cxx/datatype_inln.h:0:1
	leaq	-4(%rbp), %rsi
	.loc	10 119 1                # /usr/lib/x86_64-linux-gnu/openmpi/include/openmpi/ompi/mpi/cxx/datatype_inln.h:119:1
	callq	MPI_Type_size
	.loc	10 120 1 is_stmt 1      # /usr/lib/x86_64-linux-gnu/openmpi/include/openmpi/ompi/mpi/cxx/datatype_inln.h:120:1
	movl	-4(%rbp), %eax
.Ltmp305:
	#DEBUG_VALUE: size <- $eax
	addq	$16, %rsp
	popq	%rbp
	.cfi_def_cfa %rsp, 8
	retq
.Ltmp306:
.Lfunc_end14:
	.size	_ZNK3MPI8Datatype8Get_sizeEv, .Lfunc_end14-_ZNK3MPI8Datatype8Get_sizeEv
	.cfi_endproc
                                        # -- End function
	.weak	_ZNK3MPI8Datatype10Get_extentERlS1_ # -- Begin function _ZNK3MPI8Datatype10Get_extentERlS1_
	.p2align	4, 0x90
	.type	_ZNK3MPI8Datatype10Get_extentERlS1_,@function
_ZNK3MPI8Datatype10Get_extentERlS1_:    # @_ZNK3MPI8Datatype10Get_extentERlS1_
.Lfunc_begin15:
	.loc	10 125 0                # /usr/lib/x86_64-linux-gnu/openmpi/include/openmpi/ompi/mpi/cxx/datatype_inln.h:125:0
	.cfi_startproc
# %bb.0:                                # %L.entry
	#DEBUG_VALUE: Get_extent: <- $rdi
	#DEBUG_VALUE: Get_extent: <- $rdi
	#DEBUG_VALUE: Get_extent:lb <- $rsi
	#DEBUG_VALUE: Get_extent:lb <- $rsi
	#DEBUG_VALUE: Get_extent:extent <- $rdx
	#DEBUG_VALUE: Get_extent:extent <- $rdx
	pushq	%rbp
	.cfi_def_cfa_offset 16
	.cfi_offset %rbp, -16
	movq	%rsp, %rbp
	.cfi_def_cfa_register %rbp
.Ltmp307:
	#DEBUG_VALUE:  <- $rdi
	#DEBUG_VALUE:  <- $rdi
	#DEBUG_VALUE: lb <- $rsi
	#DEBUG_VALUE: lb <- $rsi
	#DEBUG_VALUE: extent <- $rdx
	#DEBUG_VALUE: extent <- $rdx
	.loc	10 126 1 prologue_end   # /usr/lib/x86_64-linux-gnu/openmpi/include/openmpi/ompi/mpi/cxx/datatype_inln.h:126:1
	movq	8(%rdi), %rdi
.Ltmp308:
	#DEBUG_VALUE: extent <- $rdx
	#DEBUG_VALUE: Get_extent:extent <- $rdx
	#DEBUG_VALUE: lb <- $rsi
	#DEBUG_VALUE: Get_extent:lb <- $rsi
	popq	%rbp
	.cfi_def_cfa %rsp, 8
	jmp	MPI_Type_get_extent     # TAILCALL
.Ltmp309:
.Lfunc_end15:
	.size	_ZNK3MPI8Datatype10Get_extentERlS1_, .Lfunc_end15-_ZNK3MPI8Datatype10Get_extentERlS1_
	.cfi_endproc
                                        # -- End function
	.weak	_ZNK3MPI8Datatype15Get_true_extentERlS1_ # -- Begin function _ZNK3MPI8Datatype15Get_true_extentERlS1_
	.p2align	4, 0x90
	.type	_ZNK3MPI8Datatype15Get_true_extentERlS1_,@function
_ZNK3MPI8Datatype15Get_true_extentERlS1_: # @_ZNK3MPI8Datatype15Get_true_extentERlS1_
.Lfunc_begin16:
	.loc	10 131 0                # /usr/lib/x86_64-linux-gnu/openmpi/include/openmpi/ompi/mpi/cxx/datatype_inln.h:131:0
	.cfi_startproc
# %bb.0:                                # %L.entry
	#DEBUG_VALUE: Get_true_extent: <- $rdi
	#DEBUG_VALUE: Get_true_extent: <- $rdi
	#DEBUG_VALUE: Get_true_extent:lb <- $rsi
	#DEBUG_VALUE: Get_true_extent:lb <- $rsi
	#DEBUG_VALUE: Get_true_extent:extent <- $rdx
	#DEBUG_VALUE: Get_true_extent:extent <- $rdx
	pushq	%rbp
	.cfi_def_cfa_offset 16
	.cfi_offset %rbp, -16
	movq	%rsp, %rbp
	.cfi_def_cfa_register %rbp
.Ltmp310:
	#DEBUG_VALUE:  <- $rdi
	#DEBUG_VALUE:  <- $rdi
	#DEBUG_VALUE: lb <- $rsi
	#DEBUG_VALUE: lb <- $rsi
	#DEBUG_VALUE: extent <- $rdx
	#DEBUG_VALUE: extent <- $rdx
	.loc	10 132 1 prologue_end   # /usr/lib/x86_64-linux-gnu/openmpi/include/openmpi/ompi/mpi/cxx/datatype_inln.h:132:1
	movq	8(%rdi), %rdi
.Ltmp311:
	#DEBUG_VALUE: extent <- $rdx
	#DEBUG_VALUE: Get_true_extent:extent <- $rdx
	#DEBUG_VALUE: lb <- $rsi
	#DEBUG_VALUE: Get_true_extent:lb <- $rsi
	popq	%rbp
	.cfi_def_cfa %rsp, 8
	jmp	MPI_Type_get_true_extent # TAILCALL
.Ltmp312:
.Lfunc_end16:
	.size	_ZNK3MPI8Datatype15Get_true_extentERlS1_, .Lfunc_end16-_ZNK3MPI8Datatype15Get_true_extentERlS1_
	.cfi_endproc
                                        # -- End function
	.weak	_ZN3MPI8Datatype6CommitEv # -- Begin function _ZN3MPI8Datatype6CommitEv
	.p2align	4, 0x90
	.type	_ZN3MPI8Datatype6CommitEv,@function
_ZN3MPI8Datatype6CommitEv:              # @_ZN3MPI8Datatype6CommitEv
.Lfunc_begin17:
	.loc	10 137 0                # /usr/lib/x86_64-linux-gnu/openmpi/include/openmpi/ompi/mpi/cxx/datatype_inln.h:137:0
	.cfi_startproc
# %bb.0:                                # %L.entry
	#DEBUG_VALUE: Commit: <- $rdi
	#DEBUG_VALUE: Commit: <- $rdi
	pushq	%rbp
	.cfi_def_cfa_offset 16
	.cfi_offset %rbp, -16
	movq	%rsp, %rbp
	.cfi_def_cfa_register %rbp
.Ltmp313:
	#DEBUG_VALUE:  <- $rdi
	#DEBUG_VALUE:  <- $rdi
	.loc	10 138 1 prologue_end   # /usr/lib/x86_64-linux-gnu/openmpi/include/openmpi/ompi/mpi/cxx/datatype_inln.h:138:1
	addq	$8, %rdi
.Ltmp314:
	popq	%rbp
	.cfi_def_cfa %rsp, 8
	jmp	MPI_Type_commit         # TAILCALL
.Ltmp315:
.Lfunc_end17:
	.size	_ZN3MPI8Datatype6CommitEv, .Lfunc_end17-_ZN3MPI8Datatype6CommitEv
	.cfi_endproc
                                        # -- End function
	.weak	_ZNK3MPI8Datatype4PackEPKviPviRiRKNS_4CommE # -- Begin function _ZNK3MPI8Datatype4PackEPKviPviRiRKNS_4CommE
	.p2align	4, 0x90
	.type	_ZNK3MPI8Datatype4PackEPKviPviRiRKNS_4CommE,@function
_ZNK3MPI8Datatype4PackEPKviPviRiRKNS_4CommE: # @_ZNK3MPI8Datatype4PackEPKviPviRiRKNS_4CommE
.Lfunc_begin18:
	.loc	10 145 0                # /usr/lib/x86_64-linux-gnu/openmpi/include/openmpi/ompi/mpi/cxx/datatype_inln.h:145:0
	.cfi_startproc
# %bb.0:                                # %L.entry
	#DEBUG_VALUE: Pack: <- $rdi
	#DEBUG_VALUE: Pack:inbuf <- $rsi
	#DEBUG_VALUE: Pack:incount <- $edx
	#DEBUG_VALUE: Pack:outbuf <- $rcx
	#DEBUG_VALUE: Pack:outsize <- $r8d
	#DEBUG_VALUE: Pack:position <- $r9
	pushq	%rbp
	.cfi_def_cfa_offset 16
	.cfi_offset %rbp, -16
	movq	%rsp, %rbp
	.cfi_def_cfa_register %rbp
	subq	$16, %rsp
.Ltmp316:
	#DEBUG_VALUE:  <- $rdi
	#DEBUG_VALUE: inbuf <- $rsi
	#DEBUG_VALUE: incount <- $edx
	#DEBUG_VALUE: outbuf <- $rcx
	#DEBUG_VALUE: outsize <- $r8d
	#DEBUG_VALUE: position <- $r9
	movq	16(%rbp), %r10
.Ltmp317:
	#DEBUG_VALUE: comm <- [DW_OP_plus_uconst 16] [$rbp+0]
	#DEBUG_VALUE: Pack:comm <- [DW_OP_plus_uconst 16] [$rbp+0]
	#DEBUG_VALUE: position <- $r9
	#DEBUG_VALUE: Pack:position <- $r9
	#DEBUG_VALUE: outsize <- $r8d
	#DEBUG_VALUE: Pack:outsize <- $r8d
	#DEBUG_VALUE: outbuf <- $rcx
	#DEBUG_VALUE: Pack:outbuf <- $rcx
	#DEBUG_VALUE: incount <- $edx
	#DEBUG_VALUE: Pack:incount <- $edx
	#DEBUG_VALUE: inbuf <- $rsi
	#DEBUG_VALUE: Pack:inbuf <- $rsi
	#DEBUG_VALUE:  <- $rdi
	#DEBUG_VALUE: Pack: <- $rdi
	.loc	10 80 1 prologue_end    # /usr/lib/x86_64-linux-gnu/openmpi/include/openmpi/ompi/mpi/cxx/datatype_inln.h:80:1
	movq	8(%rdi), %rax
	movq	8(%r10), %rdi
.Ltmp318:
	movq	%rdi, (%rsp)
	movq	%rsi, %rdi
.Ltmp319:
	#DEBUG_VALUE: inbuf <- $rdi
	#DEBUG_VALUE: Pack:inbuf <- $rdi
	movl	%edx, %esi
.Ltmp320:
	#DEBUG_VALUE: incount <- $esi
	#DEBUG_VALUE: Pack:incount <- $esi
	movq	%rax, %rdx
	#DEBUG_VALUE: position <- $r9
	#DEBUG_VALUE: Pack:position <- $r9
	#DEBUG_VALUE: outsize <- $r8d
	#DEBUG_VALUE: Pack:outsize <- $r8d
	#DEBUG_VALUE: outbuf <- $rcx
	#DEBUG_VALUE: Pack:outbuf <- $rcx
	callq	MPI_Pack
.Ltmp321:
	.loc	10 148 1                # /usr/lib/x86_64-linux-gnu/openmpi/include/openmpi/ompi/mpi/cxx/datatype_inln.h:148:1
	addq	$16, %rsp
	popq	%rbp
	.cfi_def_cfa %rsp, 8
	retq
.Ltmp322:
.Lfunc_end18:
	.size	_ZNK3MPI8Datatype4PackEPKviPviRiRKNS_4CommE, .Lfunc_end18-_ZNK3MPI8Datatype4PackEPKviPviRiRKNS_4CommE
	.cfi_endproc
                                        # -- End function
	.weak	_ZNK3MPI8Datatype6UnpackEPKviPviRiRKNS_4CommE # -- Begin function _ZNK3MPI8Datatype6UnpackEPKviPviRiRKNS_4CommE
	.p2align	4, 0x90
	.type	_ZNK3MPI8Datatype6UnpackEPKviPviRiRKNS_4CommE,@function
_ZNK3MPI8Datatype6UnpackEPKviPviRiRKNS_4CommE: # @_ZNK3MPI8Datatype6UnpackEPKviPviRiRKNS_4CommE
.Lfunc_begin19:
	.loc	10 154 0                # /usr/lib/x86_64-linux-gnu/openmpi/include/openmpi/ompi/mpi/cxx/datatype_inln.h:154:0
	.cfi_startproc
# %bb.0:                                # %L.entry
	#DEBUG_VALUE: Unpack: <- $rdi
	#DEBUG_VALUE: Unpack:inbuf <- $rsi
	#DEBUG_VALUE: Unpack:insize <- $edx
	#DEBUG_VALUE: Unpack:outbuf <- $rcx
	#DEBUG_VALUE: Unpack:outcount <- $r8d
	#DEBUG_VALUE: Unpack:position <- $r9
	pushq	%rbp
	.cfi_def_cfa_offset 16
	.cfi_offset %rbp, -16
	movq	%rsp, %rbp
	.cfi_def_cfa_register %rbp
	subq	$16, %rsp
.Ltmp323:
	#DEBUG_VALUE:  <- $rdi
	#DEBUG_VALUE: inbuf <- $rsi
	#DEBUG_VALUE: insize <- $edx
	#DEBUG_VALUE: outbuf <- $rcx
	#DEBUG_VALUE: outcount <- $r8d
	#DEBUG_VALUE: position <- $r9
	movq	%r9, %rax
	movq	16(%rbp), %r10
.Ltmp324:
	#DEBUG_VALUE: comm <- [DW_OP_plus_uconst 16] [$rbp+0]
	#DEBUG_VALUE: Unpack:comm <- [DW_OP_plus_uconst 16] [$rbp+0]
	#DEBUG_VALUE: position <- $rax
	#DEBUG_VALUE: Unpack:position <- $rax
	#DEBUG_VALUE: outcount <- $r8d
	#DEBUG_VALUE: Unpack:outcount <- $r8d
	#DEBUG_VALUE: outbuf <- $rcx
	#DEBUG_VALUE: Unpack:outbuf <- $rcx
	#DEBUG_VALUE: insize <- $edx
	#DEBUG_VALUE: Unpack:insize <- $edx
	#DEBUG_VALUE: inbuf <- $rsi
	#DEBUG_VALUE: Unpack:inbuf <- $rsi
	#DEBUG_VALUE:  <- $rdi
	#DEBUG_VALUE: Unpack: <- $rdi
	.loc	10 80 1 prologue_end    # /usr/lib/x86_64-linux-gnu/openmpi/include/openmpi/ompi/mpi/cxx/datatype_inln.h:80:1
	movq	8(%rdi), %r9
	movq	8(%r10), %rdi
.Ltmp325:
	movq	%rdi, (%rsp)
	movq	%rsi, %rdi
.Ltmp326:
	#DEBUG_VALUE: inbuf <- $rdi
	#DEBUG_VALUE: Unpack:inbuf <- $rdi
	movl	%edx, %esi
.Ltmp327:
	#DEBUG_VALUE: insize <- $esi
	#DEBUG_VALUE: Unpack:insize <- $esi
	movq	%rax, %rdx
.Ltmp328:
	#DEBUG_VALUE: position <- $rdx
	#DEBUG_VALUE: Unpack:position <- $rdx
	#DEBUG_VALUE: outcount <- $r8d
	#DEBUG_VALUE: Unpack:outcount <- $r8d
	#DEBUG_VALUE: outbuf <- $rcx
	#DEBUG_VALUE: Unpack:outbuf <- $rcx
	callq	MPI_Unpack
.Ltmp329:
	.loc	10 157 1                # /usr/lib/x86_64-linux-gnu/openmpi/include/openmpi/ompi/mpi/cxx/datatype_inln.h:157:1
	addq	$16, %rsp
	popq	%rbp
	.cfi_def_cfa %rsp, 8
	retq
.Ltmp330:
.Lfunc_end19:
	.size	_ZNK3MPI8Datatype6UnpackEPKviPviRiRKNS_4CommE, .Lfunc_end19-_ZNK3MPI8Datatype6UnpackEPKviPviRiRKNS_4CommE
	.cfi_endproc
                                        # -- End function
	.weak	_ZNK3MPI8Datatype9Pack_sizeEiRKNS_4CommE # -- Begin function _ZNK3MPI8Datatype9Pack_sizeEiRKNS_4CommE
	.p2align	4, 0x90
	.type	_ZNK3MPI8Datatype9Pack_sizeEiRKNS_4CommE,@function
_ZNK3MPI8Datatype9Pack_sizeEiRKNS_4CommE: # @_ZNK3MPI8Datatype9Pack_sizeEiRKNS_4CommE
.Lfunc_begin20:
	.loc	10 161 0                # /usr/lib/x86_64-linux-gnu/openmpi/include/openmpi/ompi/mpi/cxx/datatype_inln.h:161:0
	.cfi_startproc
# %bb.0:                                # %L.entry
	#DEBUG_VALUE: Pack_size: <- $rdi
	#DEBUG_VALUE: Pack_size:incount <- $esi
	#DEBUG_VALUE: Pack_size:comm <- $rdx
	pushq	%rbp
	.cfi_def_cfa_offset 16
	.cfi_offset %rbp, -16
	movq	%rsp, %rbp
	.cfi_def_cfa_register %rbp
	subq	$16, %rsp
	movl	%esi, %eax
.Ltmp331:
	#DEBUG_VALUE: comm <- $rdx
	#DEBUG_VALUE: incount <- $eax
	#DEBUG_VALUE:  <- $rdi
	#DEBUG_VALUE: Pack_size:comm <- $rdx
	#DEBUG_VALUE: Pack_size:incount <- $eax
	#DEBUG_VALUE: Pack_size: <- $rdi
	.loc	10 80 1 prologue_end    # /usr/lib/x86_64-linux-gnu/openmpi/include/openmpi/ompi/mpi/cxx/datatype_inln.h:80:1
	movq	8(%rdi), %rsi
	movq	8(%rdx), %rdx
.Ltmp332:
	#DEBUG_VALUE: size <- [DW_OP_constu 4, DW_OP_minus, DW_OP_deref] $rbp
	.loc	10 0 1 is_stmt 0        # /usr/lib/x86_64-linux-gnu/openmpi/include/openmpi/ompi/mpi/cxx/datatype_inln.h:0:1
	leaq	-4(%rbp), %rcx
	.loc	10 80 1                 # /usr/lib/x86_64-linux-gnu/openmpi/include/openmpi/ompi/mpi/cxx/datatype_inln.h:80:1
	movl	%eax, %edi
.Ltmp333:
	#DEBUG_VALUE: Pack_size:incount <- $edi
	callq	MPI_Pack_size
.Ltmp334:
	.loc	10 164 1 is_stmt 1      # /usr/lib/x86_64-linux-gnu/openmpi/include/openmpi/ompi/mpi/cxx/datatype_inln.h:164:1
	movl	-4(%rbp), %eax
.Ltmp335:
	#DEBUG_VALUE: size <- $eax
	addq	$16, %rsp
	popq	%rbp
	.cfi_def_cfa %rsp, 8
	retq
.Ltmp336:
.Lfunc_end20:
	.size	_ZNK3MPI8Datatype9Pack_sizeEiRKNS_4CommE, .Lfunc_end20-_ZNK3MPI8Datatype9Pack_sizeEiRKNS_4CommE
	.cfi_endproc
                                        # -- End function
	.weak	_ZNK3MPI8Datatype13Pack_externalEPKcPKviPvlRl # -- Begin function _ZNK3MPI8Datatype13Pack_externalEPKcPKviPvlRl
	.p2align	4, 0x90
	.type	_ZNK3MPI8Datatype13Pack_externalEPKcPKviPvlRl,@function
_ZNK3MPI8Datatype13Pack_externalEPKcPKviPvlRl: # @_ZNK3MPI8Datatype13Pack_externalEPKcPKviPvlRl
.Lfunc_begin21:
	.loc	10 170 0                # /usr/lib/x86_64-linux-gnu/openmpi/include/openmpi/ompi/mpi/cxx/datatype_inln.h:170:0
	.cfi_startproc
# %bb.0:                                # %L.entry
	#DEBUG_VALUE: Pack_external: <- $rdi
	#DEBUG_VALUE: Pack_external: <- $rdi
	#DEBUG_VALUE: Pack_external:datarep <- $rsi
	#DEBUG_VALUE: Pack_external:datarep <- $rsi
	#DEBUG_VALUE: Pack_external:inbuf <- $rdx
	#DEBUG_VALUE: Pack_external:inbuf <- $rdx
	#DEBUG_VALUE: Pack_external:incount <- $ecx
	#DEBUG_VALUE: Pack_external:incount <- $ecx
	#DEBUG_VALUE: Pack_external:outbuf <- $r8
	#DEBUG_VALUE: Pack_external:outbuf <- $r8
	#DEBUG_VALUE: Pack_external:outsize <- $r9
	#DEBUG_VALUE: Pack_external:outsize <- $r9
	pushq	%rbp
	.cfi_def_cfa_offset 16
	.cfi_offset %rbp, -16
	movq	%rsp, %rbp
	.cfi_def_cfa_register %rbp
.Ltmp337:
	#DEBUG_VALUE:  <- $rdi
	#DEBUG_VALUE:  <- $rdi
	#DEBUG_VALUE: datarep <- $rsi
	#DEBUG_VALUE: datarep <- $rsi
	#DEBUG_VALUE: inbuf <- $rdx
	#DEBUG_VALUE: inbuf <- $rdx
	#DEBUG_VALUE: incount <- $ecx
	#DEBUG_VALUE: incount <- $ecx
	#DEBUG_VALUE: outbuf <- $r8
	#DEBUG_VALUE: outbuf <- $r8
	#DEBUG_VALUE: outsize <- $r9
	#DEBUG_VALUE: outsize <- $r9
	#DEBUG_VALUE: Pack_external:position <- [DW_OP_plus_uconst 16] [$rbp+0]
	#DEBUG_VALUE: position <- [DW_OP_plus_uconst 16] [$rbp+0]
	.loc	10 171 1 prologue_end   # /usr/lib/x86_64-linux-gnu/openmpi/include/openmpi/ompi/mpi/cxx/datatype_inln.h:171:1
	movq	8(%rdi), %rax
	movq	%rsi, %rdi
.Ltmp338:
	#DEBUG_VALUE: datarep <- $rdi
	#DEBUG_VALUE: Pack_external:datarep <- $rdi
	movq	%rdx, %rsi
.Ltmp339:
	#DEBUG_VALUE: inbuf <- $rsi
	#DEBUG_VALUE: Pack_external:inbuf <- $rsi
	movl	%ecx, %edx
.Ltmp340:
	#DEBUG_VALUE: incount <- $edx
	#DEBUG_VALUE: Pack_external:incount <- $edx
	movq	%rax, %rcx
	#DEBUG_VALUE: outsize <- $r9
	#DEBUG_VALUE: Pack_external:outsize <- $r9
	#DEBUG_VALUE: outbuf <- $r8
	#DEBUG_VALUE: Pack_external:outbuf <- $r8
	popq	%rbp
	.cfi_def_cfa %rsp, 8
	jmp	MPI_Pack_external       # TAILCALL
.Ltmp341:
.Lfunc_end21:
	.size	_ZNK3MPI8Datatype13Pack_externalEPKcPKviPvlRl, .Lfunc_end21-_ZNK3MPI8Datatype13Pack_externalEPKcPKviPvlRl
	.cfi_endproc
                                        # -- End function
	.weak	_ZNK3MPI8Datatype18Pack_external_sizeEPKci # -- Begin function _ZNK3MPI8Datatype18Pack_external_sizeEPKci
	.p2align	4, 0x90
	.type	_ZNK3MPI8Datatype18Pack_external_sizeEPKci,@function
_ZNK3MPI8Datatype18Pack_external_sizeEPKci: # @_ZNK3MPI8Datatype18Pack_external_sizeEPKci
.Lfunc_begin22:
	.loc	10 177 0                # /usr/lib/x86_64-linux-gnu/openmpi/include/openmpi/ompi/mpi/cxx/datatype_inln.h:177:0
	.cfi_startproc
# %bb.0:                                # %L.entry
	#DEBUG_VALUE: Pack_external_size: <- $rdi
	#DEBUG_VALUE: Pack_external_size: <- $rdi
	#DEBUG_VALUE: Pack_external_size:datarep <- $rsi
	#DEBUG_VALUE: Pack_external_size:datarep <- $rsi
	#DEBUG_VALUE: Pack_external_size:incount <- $edx
	#DEBUG_VALUE: Pack_external_size:incount <- $edx
	pushq	%rbp
	.cfi_def_cfa_offset 16
	.cfi_offset %rbp, -16
	movq	%rsp, %rbp
	.cfi_def_cfa_register %rbp
	subq	$16, %rsp
.Ltmp342:
	#DEBUG_VALUE:  <- $rdi
	#DEBUG_VALUE: datarep <- $rsi
	#DEBUG_VALUE: incount <- $edx
	.loc	10 179 1 prologue_end   # /usr/lib/x86_64-linux-gnu/openmpi/include/openmpi/ompi/mpi/cxx/datatype_inln.h:179:1
	movq	8(%rdi), %rax
.Ltmp343:
	#DEBUG_VALUE: addr <- [DW_OP_constu 8, DW_OP_minus, DW_OP_deref] $rbp
	.loc	10 0 1 is_stmt 0        # /usr/lib/x86_64-linux-gnu/openmpi/include/openmpi/ompi/mpi/cxx/datatype_inln.h:0:1
	leaq	-8(%rbp), %rcx
	.loc	10 179 1                # /usr/lib/x86_64-linux-gnu/openmpi/include/openmpi/ompi/mpi/cxx/datatype_inln.h:179:1
	movq	%rsi, %rdi
.Ltmp344:
	#DEBUG_VALUE: Pack_external_size:datarep <- $rdi
	movl	%edx, %esi
.Ltmp345:
	#DEBUG_VALUE: Pack_external_size:incount <- $esi
	movq	%rax, %rdx
.Ltmp346:
	callq	MPI_Pack_external_size
.Ltmp347:
	.loc	10 180 1 is_stmt 1      # /usr/lib/x86_64-linux-gnu/openmpi/include/openmpi/ompi/mpi/cxx/datatype_inln.h:180:1
	movq	-8(%rbp), %rax
.Ltmp348:
	#DEBUG_VALUE: addr <- $rax
	addq	$16, %rsp
	popq	%rbp
	.cfi_def_cfa %rsp, 8
	retq
.Ltmp349:
.Lfunc_end22:
	.size	_ZNK3MPI8Datatype18Pack_external_sizeEPKci, .Lfunc_end22-_ZNK3MPI8Datatype18Pack_external_sizeEPKci
	.cfi_endproc
                                        # -- End function
	.weak	_ZNK3MPI8Datatype15Unpack_externalEPKcPKvlRlPvi # -- Begin function _ZNK3MPI8Datatype15Unpack_externalEPKcPKvlRlPvi
	.p2align	4, 0x90
	.type	_ZNK3MPI8Datatype15Unpack_externalEPKcPKvlRlPvi,@function
_ZNK3MPI8Datatype15Unpack_externalEPKcPKvlRlPvi: # @_ZNK3MPI8Datatype15Unpack_externalEPKcPKvlRlPvi
.Lfunc_begin23:
	.loc	10 186 0                # /usr/lib/x86_64-linux-gnu/openmpi/include/openmpi/ompi/mpi/cxx/datatype_inln.h:186:0
	.cfi_startproc
# %bb.0:                                # %L.entry
	#DEBUG_VALUE: Unpack_external: <- $rdi
	#DEBUG_VALUE: Unpack_external:datarep <- $rsi
	#DEBUG_VALUE: Unpack_external:inbuf <- $rdx
	#DEBUG_VALUE: Unpack_external:insize <- $rcx
	#DEBUG_VALUE: Unpack_external:position <- $r8
	#DEBUG_VALUE: Unpack_external:outbuf <- $r9
	pushq	%rbp
	.cfi_def_cfa_offset 16
	.cfi_offset %rbp, -16
	movq	%rsp, %rbp
	.cfi_def_cfa_register %rbp
	subq	$16, %rsp
.Ltmp350:
	#DEBUG_VALUE:  <- $rdi
	#DEBUG_VALUE: datarep <- $rsi
	#DEBUG_VALUE: inbuf <- $rdx
	#DEBUG_VALUE: insize <- $rcx
	#DEBUG_VALUE: position <- $r8
	#DEBUG_VALUE: outbuf <- $r9
	movq	%r9, %rax
	movl	16(%rbp), %r9d
.Ltmp351:
	#DEBUG_VALUE: outcount <- [DW_OP_plus_uconst 16] [$rbp+0]
	#DEBUG_VALUE: Unpack_external:outcount <- [DW_OP_plus_uconst 16] [$rbp+0]
	#DEBUG_VALUE: outbuf <- $rax
	#DEBUG_VALUE: Unpack_external:outbuf <- $rax
	#DEBUG_VALUE: position <- $r8
	#DEBUG_VALUE: Unpack_external:position <- $r8
	#DEBUG_VALUE: insize <- $rcx
	#DEBUG_VALUE: Unpack_external:insize <- $rcx
	#DEBUG_VALUE: inbuf <- $rdx
	#DEBUG_VALUE: Unpack_external:inbuf <- $rdx
	#DEBUG_VALUE: datarep <- $rsi
	#DEBUG_VALUE: Unpack_external:datarep <- $rsi
	#DEBUG_VALUE:  <- $rdi
	#DEBUG_VALUE: Unpack_external: <- $rdi
	.loc	10 187 1 prologue_end   # /usr/lib/x86_64-linux-gnu/openmpi/include/openmpi/ompi/mpi/cxx/datatype_inln.h:187:1
	movq	8(%rdi), %rdi
.Ltmp352:
	movq	%rdi, (%rsp)
	movq	%rsi, %rdi
.Ltmp353:
	#DEBUG_VALUE: datarep <- $rdi
	#DEBUG_VALUE: Unpack_external:datarep <- $rdi
	movq	%rdx, %rsi
.Ltmp354:
	#DEBUG_VALUE: inbuf <- $rsi
	#DEBUG_VALUE: Unpack_external:inbuf <- $rsi
	movq	%rcx, %rdx
.Ltmp355:
	#DEBUG_VALUE: insize <- $rdx
	#DEBUG_VALUE: Unpack_external:insize <- $rdx
	movq	%r8, %rcx
.Ltmp356:
	#DEBUG_VALUE: position <- $rcx
	#DEBUG_VALUE: Unpack_external:position <- $rcx
	movq	%rax, %r8
.Ltmp357:
	#DEBUG_VALUE: outbuf <- $r8
	#DEBUG_VALUE: Unpack_external:outbuf <- $r8
	callq	MPI_Unpack_external
.Ltmp358:
	.loc	10 189 1                # /usr/lib/x86_64-linux-gnu/openmpi/include/openmpi/ompi/mpi/cxx/datatype_inln.h:189:1
	addq	$16, %rsp
	popq	%rbp
	.cfi_def_cfa %rsp, 8
	retq
.Ltmp359:
.Lfunc_end23:
	.size	_ZNK3MPI8Datatype15Unpack_externalEPKcPKvlRlPvi, .Lfunc_end23-_ZNK3MPI8Datatype15Unpack_externalEPKcPKvlRlPvi
	.cfi_endproc
                                        # -- End function
	.weak	_ZNK3MPI8Datatype15Create_subarrayEiPKiS2_S2_i # -- Begin function _ZNK3MPI8Datatype15Create_subarrayEiPKiS2_S2_i
	.p2align	4, 0x90
	.type	_ZNK3MPI8Datatype15Create_subarrayEiPKiS2_S2_i,@function
_ZNK3MPI8Datatype15Create_subarrayEiPKiS2_S2_i: # @_ZNK3MPI8Datatype15Create_subarrayEiPKiS2_S2_i
.Lfunc_begin24:
	.loc	10 200 0                # /usr/lib/x86_64-linux-gnu/openmpi/include/openmpi/ompi/mpi/cxx/datatype_inln.h:200:0
	.cfi_startproc
# %bb.0:                                # %L.entry
	#DEBUG_VALUE: Create_subarray: <- $rsi
	#DEBUG_VALUE: Create_subarray:ndims <- $edx
	#DEBUG_VALUE: Create_subarray:array_of_sizes <- $rcx
	#DEBUG_VALUE: Create_subarray:array_of_subsizes <- $r8
	#DEBUG_VALUE: Create_subarray:array_of_starts <- $r9
	pushq	%rbp
	.cfi_def_cfa_offset 16
	.cfi_offset %rbp, -16
	movq	%rsp, %rbp
	.cfi_def_cfa_register %rbp
	pushq	%rbx
	subq	$24, %rsp
	.cfi_offset %rbx, -24
	movq	%r9, %r10
	movq	%r8, %rax
	movq	%rdi, %rbx
	movl	16(%rbp), %r8d
.Ltmp360:
	#DEBUG_VALUE:  <- $rsi
	#DEBUG_VALUE: order <- $r8d
	#DEBUG_VALUE: array_of_starts <- $r10
	#DEBUG_VALUE: array_of_subsizes <- $rax
	#DEBUG_VALUE: array_of_sizes <- $rcx
	#DEBUG_VALUE: ndims <- $edx
	#DEBUG_VALUE: Create_subarray:order <- [DW_OP_plus_uconst 16] [$rbp+0]
	#DEBUG_VALUE: Create_subarray:array_of_starts <- $r10
	#DEBUG_VALUE: Create_subarray:array_of_subsizes <- $rax
	#DEBUG_VALUE: Create_subarray:array_of_sizes <- $rcx
	#DEBUG_VALUE: Create_subarray:ndims <- $edx
	#DEBUG_VALUE: Create_subarray: <- $rsi
	.loc	10 202 1 prologue_end   # /usr/lib/x86_64-linux-gnu/openmpi/include/openmpi/ompi/mpi/cxx/datatype_inln.h:202:1
	movq	8(%rsi), %r9
.Ltmp361:
	#DEBUG_VALUE: type <- [DW_OP_constu 16, DW_OP_minus, DW_OP_deref] $rbp
	.loc	10 0 1 is_stmt 0        # /usr/lib/x86_64-linux-gnu/openmpi/include/openmpi/ompi/mpi/cxx/datatype_inln.h:0:1
	leaq	-16(%rbp), %rsi
.Ltmp362:
	.loc	10 202 1                # /usr/lib/x86_64-linux-gnu/openmpi/include/openmpi/ompi/mpi/cxx/datatype_inln.h:202:1
	movq	%rsi, (%rsp)
	movl	%edx, %edi
.Ltmp363:
	#DEBUG_VALUE: Create_subarray:ndims <- $edi
	movq	%rcx, %rsi
.Ltmp364:
	#DEBUG_VALUE: Create_subarray:array_of_sizes <- $rsi
	movq	%rax, %rdx
.Ltmp365:
	#DEBUG_VALUE: Create_subarray:array_of_subsizes <- $rdx
	movq	%r10, %rcx
.Ltmp366:
	#DEBUG_VALUE: Create_subarray:array_of_starts <- $rcx
	callq	MPI_Type_create_subarray
.Ltmp367:
	.loc	10 206 1 is_stmt 1      # /usr/lib/x86_64-linux-gnu/openmpi/include/openmpi/ompi/mpi/cxx/datatype_inln.h:206:1
	movq	-16(%rbp), %rax
.Ltmp368:
	#DEBUG_VALUE: type <- undef
	movq	$_ZTVN3MPI8DatatypeE+16, (%rbx)
	.loc	10 72 1                 # /usr/lib/x86_64-linux-gnu/openmpi/include/openmpi/ompi/mpi/cxx/datatype_inln.h:72:1
	movq	%rax, 8(%rbx)
	.loc	10 207 1                # /usr/lib/x86_64-linux-gnu/openmpi/include/openmpi/ompi/mpi/cxx/datatype_inln.h:207:1
	movq	%rbx, %rax
	addq	$24, %rsp
	popq	%rbx
	popq	%rbp
	.cfi_def_cfa %rsp, 8
	retq
.Ltmp369:
.Lfunc_end24:
	.size	_ZNK3MPI8Datatype15Create_subarrayEiPKiS2_S2_i, .Lfunc_end24-_ZNK3MPI8Datatype15Create_subarrayEiPKiS2_S2_i
	.cfi_endproc
                                        # -- End function
	.weak	_ZNK3MPI8Datatype13Create_darrayEiiiPKiS2_S2_S2_i # -- Begin function _ZNK3MPI8Datatype13Create_darrayEiiiPKiS2_S2_S2_i
	.p2align	4, 0x90
	.type	_ZNK3MPI8Datatype13Create_darrayEiiiPKiS2_S2_S2_i,@function
_ZNK3MPI8Datatype13Create_darrayEiiiPKiS2_S2_S2_i: # @_ZNK3MPI8Datatype13Create_darrayEiiiPKiS2_S2_S2_i
.Lfunc_begin25:
	.loc	10 214 0                # /usr/lib/x86_64-linux-gnu/openmpi/include/openmpi/ompi/mpi/cxx/datatype_inln.h:214:0
	.cfi_startproc
# %bb.0:                                # %L.entry
	#DEBUG_VALUE: Create_darray: <- $rsi
	#DEBUG_VALUE: Create_darray:size <- $edx
	#DEBUG_VALUE: Create_darray:rank <- $ecx
	#DEBUG_VALUE: Create_darray:ndims <- $r8d
	#DEBUG_VALUE: Create_darray:array_of_gsizes <- $r9
	pushq	%rbp
	.cfi_def_cfa_offset 16
	.cfi_offset %rbp, -16
	movq	%rsp, %rbp
	.cfi_def_cfa_register %rbp
	pushq	%r15
	pushq	%r14
	pushq	%rbx
	pushq	%rax
	.cfi_offset %rbx, -40
	.cfi_offset %r14, -32
	.cfi_offset %r15, -24
	movq	%r9, %r11
	movl	%r8d, %eax
	movq	%rsi, %r10
	movq	%rdi, %rbx
	movq	16(%rbp), %r8
.Ltmp370:
	movq	24(%rbp), %r9
.Ltmp371:
	#DEBUG_VALUE: array_of_psizes <- undef
	movl	40(%rbp), %r14d
.Ltmp372:
	#DEBUG_VALUE: type <- [DW_OP_constu 32, DW_OP_minus, DW_OP_deref] $rbp
	#DEBUG_VALUE:  <- $r10
	#DEBUG_VALUE: order <- $r14d
	#DEBUG_VALUE: array_of_dargs <- $r9
	#DEBUG_VALUE: array_of_distribs <- $r8
	#DEBUG_VALUE: array_of_gsizes <- $r11
	#DEBUG_VALUE: ndims <- $eax
	#DEBUG_VALUE: rank <- $ecx
	#DEBUG_VALUE: size <- $edx
	#DEBUG_VALUE: Create_darray:order <- [DW_OP_plus_uconst 40] [$rbp+0]
	#DEBUG_VALUE: Create_darray:array_of_psizes <- [DW_OP_plus_uconst 32] [$rbp+0]
	#DEBUG_VALUE: Create_darray:array_of_dargs <- [DW_OP_plus_uconst 24] [$rbp+0]
	#DEBUG_VALUE: Create_darray:array_of_distribs <- [DW_OP_plus_uconst 16] [$rbp+0]
	#DEBUG_VALUE: Create_darray:array_of_gsizes <- $r11
	#DEBUG_VALUE: Create_darray:ndims <- $eax
	#DEBUG_VALUE: Create_darray:rank <- $ecx
	#DEBUG_VALUE: Create_darray:size <- $edx
	#DEBUG_VALUE: Create_darray: <- $r10
	leaq	-32(%rbp), %r15
.Ltmp373:
	.loc	10 216 1 prologue_end   # /usr/lib/x86_64-linux-gnu/openmpi/include/openmpi/ompi/mpi/cxx/datatype_inln.h:216:1
	movl	%edx, %edi
.Ltmp374:
	#DEBUG_VALUE: Create_darray:size <- $edi
	movl	%ecx, %esi
.Ltmp375:
	#DEBUG_VALUE: Create_darray:rank <- $esi
	movl	%eax, %edx
.Ltmp376:
	#DEBUG_VALUE: Create_darray:ndims <- $edx
	movq	%r11, %rcx
.Ltmp377:
	#DEBUG_VALUE: Create_darray:array_of_gsizes <- $rcx
	pushq	%r15
	pushq	8(%r10)
	pushq	%r14
	pushq	32(%rbp)
	callq	MPI_Type_create_darray
.Ltmp378:
	addq	$32, %rsp
	.loc	10 222 1                # /usr/lib/x86_64-linux-gnu/openmpi/include/openmpi/ompi/mpi/cxx/datatype_inln.h:222:1
	movq	-32(%rbp), %rax
.Ltmp379:
	#DEBUG_VALUE: type <- undef
	movq	$_ZTVN3MPI8DatatypeE+16, (%rbx)
	.loc	10 72 1                 # /usr/lib/x86_64-linux-gnu/openmpi/include/openmpi/ompi/mpi/cxx/datatype_inln.h:72:1
	movq	%rax, 8(%rbx)
	.loc	10 223 1                # /usr/lib/x86_64-linux-gnu/openmpi/include/openmpi/ompi/mpi/cxx/datatype_inln.h:223:1
	movq	%rbx, %rax
	addq	$8, %rsp
	popq	%rbx
	popq	%r14
.Ltmp380:
	popq	%r15
	popq	%rbp
	.cfi_def_cfa %rsp, 8
	retq
.Ltmp381:
.Lfunc_end25:
	.size	_ZNK3MPI8Datatype13Create_darrayEiiiPKiS2_S2_S2_i, .Lfunc_end25-_ZNK3MPI8Datatype13Create_darrayEiiiPKiS2_S2_S2_i
	.cfi_endproc
                                        # -- End function
	.weak	_ZNK3MPI8Datatype3DupEv # -- Begin function _ZNK3MPI8Datatype3DupEv
	.p2align	4, 0x90
	.type	_ZNK3MPI8Datatype3DupEv,@function
_ZNK3MPI8Datatype3DupEv:                # @_ZNK3MPI8Datatype3DupEv
.Lfunc_begin26:
	.loc	10 264 0                # /usr/lib/x86_64-linux-gnu/openmpi/include/openmpi/ompi/mpi/cxx/datatype_inln.h:264:0
	.cfi_startproc
# %bb.0:                                # %L.entry
	#DEBUG_VALUE: Dup: <- $rsi
	pushq	%rbp
	.cfi_def_cfa_offset 16
	.cfi_offset %rbp, -16
	movq	%rsp, %rbp
	.cfi_def_cfa_register %rbp
	pushq	%rbx
	pushq	%rax
	.cfi_offset %rbx, -24
	movq	%rdi, %rbx
.Ltmp382:
	#DEBUG_VALUE:  <- $rsi
	#DEBUG_VALUE: Dup: <- $rsi
	.loc	10 266 1 prologue_end   # /usr/lib/x86_64-linux-gnu/openmpi/include/openmpi/ompi/mpi/cxx/datatype_inln.h:266:1
	movq	8(%rsi), %rdi
.Ltmp383:
	#DEBUG_VALUE: type <- [DW_OP_constu 16, DW_OP_minus, DW_OP_deref] $rbp
	.loc	10 0 1 is_stmt 0        # /usr/lib/x86_64-linux-gnu/openmpi/include/openmpi/ompi/mpi/cxx/datatype_inln.h:0:1
	leaq	-16(%rbp), %rsi
.Ltmp384:
	.loc	10 266 1                # /usr/lib/x86_64-linux-gnu/openmpi/include/openmpi/ompi/mpi/cxx/datatype_inln.h:266:1
	callq	MPI_Type_dup
	.loc	10 267 1 is_stmt 1      # /usr/lib/x86_64-linux-gnu/openmpi/include/openmpi/ompi/mpi/cxx/datatype_inln.h:267:1
	movq	-16(%rbp), %rax
.Ltmp385:
	#DEBUG_VALUE: type <- undef
	movq	$_ZTVN3MPI8DatatypeE+16, (%rbx)
	.loc	10 72 1                 # /usr/lib/x86_64-linux-gnu/openmpi/include/openmpi/ompi/mpi/cxx/datatype_inln.h:72:1
	movq	%rax, 8(%rbx)
	.loc	10 268 1                # /usr/lib/x86_64-linux-gnu/openmpi/include/openmpi/ompi/mpi/cxx/datatype_inln.h:268:1
	movq	%rbx, %rax
	addq	$8, %rsp
	popq	%rbx
	popq	%rbp
	.cfi_def_cfa %rsp, 8
	retq
.Ltmp386:
.Lfunc_end26:
	.size	_ZNK3MPI8Datatype3DupEv, .Lfunc_end26-_ZNK3MPI8Datatype3DupEv
	.cfi_endproc
                                        # -- End function
	.weak	_ZN3MPI8Datatype11Delete_attrEi # -- Begin function _ZN3MPI8Datatype11Delete_attrEi
	.p2align	4, 0x90
	.type	_ZN3MPI8Datatype11Delete_attrEi,@function
_ZN3MPI8Datatype11Delete_attrEi:        # @_ZN3MPI8Datatype11Delete_attrEi
.Lfunc_begin27:
	.loc	10 333 0                # /usr/lib/x86_64-linux-gnu/openmpi/include/openmpi/ompi/mpi/cxx/datatype_inln.h:333:0
	.cfi_startproc
# %bb.0:                                # %L.entry
	#DEBUG_VALUE: Delete_attr: <- $rdi
	#DEBUG_VALUE: Delete_attr: <- $rdi
	#DEBUG_VALUE: Delete_attr:type_keyval <- $esi
	#DEBUG_VALUE: Delete_attr:type_keyval <- $esi
	pushq	%rbp
	.cfi_def_cfa_offset 16
	.cfi_offset %rbp, -16
	movq	%rsp, %rbp
	.cfi_def_cfa_register %rbp
.Ltmp387:
	#DEBUG_VALUE:  <- $rdi
	#DEBUG_VALUE:  <- $rdi
	#DEBUG_VALUE: type_keyval <- $esi
	#DEBUG_VALUE: type_keyval <- $esi
	.loc	10 334 1 prologue_end   # /usr/lib/x86_64-linux-gnu/openmpi/include/openmpi/ompi/mpi/cxx/datatype_inln.h:334:1
	movq	8(%rdi), %rdi
.Ltmp388:
	#DEBUG_VALUE: type_keyval <- $esi
	#DEBUG_VALUE: Delete_attr:type_keyval <- $esi
	popq	%rbp
	.cfi_def_cfa %rsp, 8
	jmp	MPI_Type_delete_attr    # TAILCALL
.Ltmp389:
.Lfunc_end27:
	.size	_ZN3MPI8Datatype11Delete_attrEi, .Lfunc_end27-_ZN3MPI8Datatype11Delete_attrEi
	.cfi_endproc
                                        # -- End function
	.weak	_ZNK3MPI8Datatype8Get_attrEiPv # -- Begin function _ZNK3MPI8Datatype8Get_attrEiPv
	.p2align	4, 0x90
	.type	_ZNK3MPI8Datatype8Get_attrEiPv,@function
_ZNK3MPI8Datatype8Get_attrEiPv:         # @_ZNK3MPI8Datatype8Get_attrEiPv
.Lfunc_begin28:
	.loc	10 346 0                # /usr/lib/x86_64-linux-gnu/openmpi/include/openmpi/ompi/mpi/cxx/datatype_inln.h:346:0
	.cfi_startproc
# %bb.0:                                # %L.entry
	#DEBUG_VALUE: Get_attr: <- $rdi
	#DEBUG_VALUE: Get_attr: <- $rdi
	#DEBUG_VALUE: Get_attr:type_keyval <- $esi
	#DEBUG_VALUE: Get_attr:type_keyval <- $esi
	#DEBUG_VALUE: Get_attr:attribute_val <- $rdx
	#DEBUG_VALUE: Get_attr:attribute_val <- $rdx
	pushq	%rbp
	.cfi_def_cfa_offset 16
	.cfi_offset %rbp, -16
	movq	%rsp, %rbp
	.cfi_def_cfa_register %rbp
	subq	$16, %rsp
.Ltmp390:
	#DEBUG_VALUE:  <- $rdi
	#DEBUG_VALUE: type_keyval <- $esi
	#DEBUG_VALUE: attribute_val <- $rdx
	.loc	10 348 1 prologue_end   # /usr/lib/x86_64-linux-gnu/openmpi/include/openmpi/ompi/mpi/cxx/datatype_inln.h:348:1
	movq	8(%rdi), %rdi
.Ltmp391:
	#DEBUG_VALUE: ret <- [DW_OP_constu 4, DW_OP_minus, DW_OP_deref] $rbp
	.loc	10 0 1 is_stmt 0        # /usr/lib/x86_64-linux-gnu/openmpi/include/openmpi/ompi/mpi/cxx/datatype_inln.h:0:1
	leaq	-4(%rbp), %rcx
	#DEBUG_VALUE: Get_attr:attribute_val <- $rdx
	#DEBUG_VALUE: Get_attr:type_keyval <- $esi
	.loc	10 348 1                # /usr/lib/x86_64-linux-gnu/openmpi/include/openmpi/ompi/mpi/cxx/datatype_inln.h:348:1
	callq	MPI_Type_get_attr
.Ltmp392:
	#DEBUG_VALUE: ret <- undef
	.loc	10 349 1 is_stmt 1      # /usr/lib/x86_64-linux-gnu/openmpi/include/openmpi/ompi/mpi/cxx/datatype_inln.h:349:1
	cmpl	$0, -4(%rbp)
	setne	%al
	addq	$16, %rsp
	popq	%rbp
	.cfi_def_cfa %rsp, 8
	retq
.Ltmp393:
.Lfunc_end28:
	.size	_ZNK3MPI8Datatype8Get_attrEiPv, .Lfunc_end28-_ZNK3MPI8Datatype8Get_attrEiPv
	.cfi_endproc
                                        # -- End function
	.weak	_ZNK3MPI8Datatype12Get_contentsEiiiPiPlPS0_ # -- Begin function _ZNK3MPI8Datatype12Get_contentsEiiiPiPlPS0_
	.p2align	4, 0x90
	.type	_ZNK3MPI8Datatype12Get_contentsEiiiPiPlPS0_,@function
_ZNK3MPI8Datatype12Get_contentsEiiiPiPlPS0_: # @_ZNK3MPI8Datatype12Get_contentsEiiiPiPlPS0_
.Lfunc_begin29:
	.loc	10 358 0                # /usr/lib/x86_64-linux-gnu/openmpi/include/openmpi/ompi/mpi/cxx/datatype_inln.h:358:0
	.cfi_startproc
# %bb.0:                                # %L.entry
	#DEBUG_VALUE: Get_contents: <- $rdi
	#DEBUG_VALUE: Get_contents:max_integers <- $esi
	#DEBUG_VALUE: Get_contents:max_addresses <- $edx
	#DEBUG_VALUE: Get_contents:max_datatypes <- $ecx
	#DEBUG_VALUE: Get_contents:array_of_integers <- $r8
	#DEBUG_VALUE: Get_contents:array_of_addresses <- $r9
	pushq	%rbp
	.cfi_def_cfa_offset 16
	.cfi_offset %rbp, -16
	movq	%rsp, %rbp
	.cfi_def_cfa_register %rbp
	pushq	%r15
	pushq	%r14
	pushq	%r13
	pushq	%r12
	pushq	%rbx
	subq	$40, %rsp
	.cfi_offset %rbx, -56
	.cfi_offset %r12, -48
	.cfi_offset %r13, -40
	.cfi_offset %r14, -32
	.cfi_offset %r15, -24
.Ltmp394:
	#DEBUG_VALUE:  <- $rdi
	#DEBUG_VALUE: max_integers <- $esi
	#DEBUG_VALUE: max_addresses <- $edx
	#DEBUG_VALUE: max_datatypes <- $ecx
	#DEBUG_VALUE: array_of_integers <- $r8
	#DEBUG_VALUE: array_of_addresses <- $r9
	movq	%r9, -72(%rbp)          # 8-byte Spill
	movq	%r8, -64(%rbp)          # 8-byte Spill
	movl	%ecx, %r13d
	movl	%edx, -52(%rbp)         # 4-byte Spill
	movl	%esi, %r15d
	movq	%rdi, %r12
	movq	16(%rbp), %rax
	movq	%rax, -48(%rbp)         # 8-byte Spill
.Ltmp395:
	#DEBUG_VALUE: array_of_datatypes <- [DW_OP_plus_uconst 16] [$rbp+0]
	#DEBUG_VALUE: Get_contents:array_of_datatypes <- [DW_OP_plus_uconst 16] [$rbp+0]
	#DEBUG_VALUE: array_of_addresses <- [DW_OP_constu 72, DW_OP_minus] [$rbp+0]
	#DEBUG_VALUE: Get_contents:array_of_addresses <- [DW_OP_constu 72, DW_OP_minus] [$rbp+0]
	#DEBUG_VALUE: array_of_integers <- [DW_OP_constu 64, DW_OP_minus] [$rbp+0]
	#DEBUG_VALUE: Get_contents:array_of_integers <- [DW_OP_constu 64, DW_OP_minus] [$rbp+0]
	#DEBUG_VALUE: max_datatypes <- $r13d
	#DEBUG_VALUE: Get_contents:max_datatypes <- $r13d
	#DEBUG_VALUE: max_addresses <- [DW_OP_constu 52, DW_OP_minus] [$rbp+0]
	#DEBUG_VALUE: Get_contents:max_addresses <- [DW_OP_constu 52, DW_OP_minus] [$rbp+0]
	#DEBUG_VALUE: max_integers <- $r15d
	#DEBUG_VALUE: Get_contents:max_integers <- $r15d
	#DEBUG_VALUE:  <- $r12
	#DEBUG_VALUE: Get_contents: <- $r12
	.loc	10 360 1 prologue_end   # /usr/lib/x86_64-linux-gnu/openmpi/include/openmpi/ompi/mpi/cxx/datatype_inln.h:360:1
	movslq	%ecx, %r14
	leaq	(,%r14,8), %rdi
	callq	_Znam
	movq	%rax, %rbx
.Ltmp396:
	#DEBUG_VALUE: c_datatypes <- $rbx
	.loc	10 362 1                # /usr/lib/x86_64-linux-gnu/openmpi/include/openmpi/ompi/mpi/cxx/datatype_inln.h:362:1
	movq	8(%r12), %rdi
	movq	%rax, (%rsp)
	movl	%r15d, %esi
.Ltmp397:
	#DEBUG_VALUE: max_integers <- $esi
	#DEBUG_VALUE: Get_contents:max_integers <- $esi
	.loc	10 0 1 is_stmt 0        # /usr/lib/x86_64-linux-gnu/openmpi/include/openmpi/ompi/mpi/cxx/datatype_inln.h:0:1
	movl	-52(%rbp), %edx         # 4-byte Reload
.Ltmp398:
	#DEBUG_VALUE: max_addresses <- $edx
	#DEBUG_VALUE: Get_contents:max_addresses <- $edx
	.loc	10 362 1                # /usr/lib/x86_64-linux-gnu/openmpi/include/openmpi/ompi/mpi/cxx/datatype_inln.h:362:1
	movl	%r14d, %ecx
	movq	-64(%rbp), %r8          # 8-byte Reload
.Ltmp399:
	#DEBUG_VALUE: array_of_integers <- $r8
	#DEBUG_VALUE: Get_contents:array_of_integers <- $r8
	.loc	10 0 1                  # /usr/lib/x86_64-linux-gnu/openmpi/include/openmpi/ompi/mpi/cxx/datatype_inln.h:0:1
	movq	-72(%rbp), %r9          # 8-byte Reload
.Ltmp400:
	#DEBUG_VALUE: array_of_addresses <- $r9
	#DEBUG_VALUE: Get_contents:array_of_addresses <- $r9
	.loc	10 362 1                # /usr/lib/x86_64-linux-gnu/openmpi/include/openmpi/ompi/mpi/cxx/datatype_inln.h:362:1
	callq	MPI_Type_get_contents
.Ltmp401:
	#DEBUG_VALUE: max_datatypes <- $r13d
	#DEBUG_VALUE: Get_contents:max_datatypes <- $r13d
	.loc	10 369 1 is_stmt 1      # /usr/lib/x86_64-linux-gnu/openmpi/include/openmpi/ompi/mpi/cxx/datatype_inln.h:369:1
	testl	%r14d, %r14d
	jle	.LBB29_13
.Ltmp402:
# %bb.1:                                # %L.B3418
	#DEBUG_VALUE: c_datatypes <- $rbx
	#DEBUG_VALUE: Get_contents: <- $r12
	#DEBUG_VALUE:  <- $r12
	#DEBUG_VALUE: Get_contents:max_datatypes <- $r13d
	#DEBUG_VALUE: max_datatypes <- $r13d
	#DEBUG_VALUE: Get_contents:array_of_datatypes <- [DW_OP_plus_uconst 16] [$rbp+0]
	#DEBUG_VALUE: array_of_datatypes <- [DW_OP_plus_uconst 16] [$rbp+0]
	.loc	10 0 1 is_stmt 0        # /usr/lib/x86_64-linux-gnu/openmpi/include/openmpi/ompi/mpi/cxx/datatype_inln.h:0:1
	xorl	%eax, %eax
	.loc	10 369 1                # /usr/lib/x86_64-linux-gnu/openmpi/include/openmpi/ompi/mpi/cxx/datatype_inln.h:369:1
	cmpl	$4, %r13d
	jl	.LBB29_5
.Ltmp403:
# %bb.2:                                # %L.B3419
	#DEBUG_VALUE: c_datatypes <- $rbx
	#DEBUG_VALUE: Get_contents: <- $r12
	#DEBUG_VALUE:  <- $r12
	#DEBUG_VALUE: Get_contents:max_datatypes <- $r13d
	#DEBUG_VALUE: max_datatypes <- $r13d
	#DEBUG_VALUE: Get_contents:array_of_datatypes <- [DW_OP_plus_uconst 16] [$rbp+0]
	#DEBUG_VALUE: array_of_datatypes <- [DW_OP_plus_uconst 16] [$rbp+0]
	movl	%r13d, %ecx
	shrl	$31, %ecx
	addl	%r13d, %ecx
	movl	%ecx, %edx
	sarl	$2, %edx
	andl	$-4, %ecx
	movq	-48(%rbp), %rax         # 8-byte Reload
	leaq	56(%rax), %rsi
	xorl	%eax, %eax
.Ltmp404:
	.p2align	4, 0x90
.LBB29_3:                               # %L.B3412
                                        # =>This Inner Loop Header: Depth=1
	#DEBUG_VALUE: c_datatypes <- $rbx
	#DEBUG_VALUE: Get_contents: <- $r12
	#DEBUG_VALUE:  <- $r12
	#DEBUG_VALUE: Get_contents:max_datatypes <- $r13d
	#DEBUG_VALUE: max_datatypes <- $r13d
	#DEBUG_VALUE: Get_contents:array_of_datatypes <- [DW_OP_plus_uconst 16] [$rbp+0]
	#DEBUG_VALUE: array_of_datatypes <- [DW_OP_plus_uconst 16] [$rbp+0]
	movq	(%rbx,%rax,8), %rdi
	movq	%rdi, -48(%rsi)
	movq	8(%rbx,%rax,8), %rdi
	movq	%rdi, -32(%rsi)
	movq	16(%rbx,%rax,8), %rdi
	movq	%rdi, -16(%rsi)
	movq	24(%rbx,%rax,8), %rdi
	movq	%rdi, (%rsi)
	addq	$4, %rax
	addq	$64, %rsi
	decl	%edx
	jg	.LBB29_3
.Ltmp405:
# %bb.4:                                # %L.B3414.loopexit
	#DEBUG_VALUE: c_datatypes <- $rbx
	#DEBUG_VALUE: Get_contents: <- $r12
	#DEBUG_VALUE:  <- $r12
	#DEBUG_VALUE: Get_contents:max_datatypes <- $r13d
	#DEBUG_VALUE: max_datatypes <- $r13d
	#DEBUG_VALUE: Get_contents:array_of_datatypes <- [DW_OP_plus_uconst 16] [$rbp+0]
	#DEBUG_VALUE: array_of_datatypes <- [DW_OP_plus_uconst 16] [$rbp+0]
	subl	%ecx, %r13d
.Ltmp406:
.LBB29_5:                               # %L.B3414
	#DEBUG_VALUE: c_datatypes <- $rbx
	#DEBUG_VALUE: Get_contents: <- $r12
	#DEBUG_VALUE:  <- $r12
	#DEBUG_VALUE: Get_contents:array_of_datatypes <- [DW_OP_plus_uconst 16] [$rbp+0]
	#DEBUG_VALUE: array_of_datatypes <- [DW_OP_plus_uconst 16] [$rbp+0]
	testl	%r13d, %r13d
	je	.LBB29_13
.Ltmp407:
# %bb.6:                                # %L.B3414
	#DEBUG_VALUE: c_datatypes <- $rbx
	#DEBUG_VALUE: Get_contents: <- $r12
	#DEBUG_VALUE:  <- $r12
	#DEBUG_VALUE: Get_contents:array_of_datatypes <- [DW_OP_plus_uconst 16] [$rbp+0]
	#DEBUG_VALUE: array_of_datatypes <- [DW_OP_plus_uconst 16] [$rbp+0]
	cmpl	$1, %r13d
	je	.LBB29_7
.Ltmp408:
# %bb.8:                                # %L.B3414
	#DEBUG_VALUE: c_datatypes <- $rbx
	#DEBUG_VALUE: Get_contents: <- $r12
	#DEBUG_VALUE:  <- $r12
	#DEBUG_VALUE: Get_contents:array_of_datatypes <- [DW_OP_plus_uconst 16] [$rbp+0]
	#DEBUG_VALUE: array_of_datatypes <- [DW_OP_plus_uconst 16] [$rbp+0]
	cmpl	$2, %r13d
	jne	.LBB29_10
.Ltmp409:
# %bb.9:
	#DEBUG_VALUE: c_datatypes <- $rbx
	#DEBUG_VALUE: Get_contents: <- $r12
	#DEBUG_VALUE:  <- $r12
	#DEBUG_VALUE: Get_contents:array_of_datatypes <- [DW_OP_plus_uconst 16] [$rbp+0]
	#DEBUG_VALUE: array_of_datatypes <- [DW_OP_plus_uconst 16] [$rbp+0]
	.loc	10 0 1                  # /usr/lib/x86_64-linux-gnu/openmpi/include/openmpi/ompi/mpi/cxx/datatype_inln.h:0:1
	movq	-48(%rbp), %rsi         # 8-byte Reload
	jmp	.LBB29_11
.Ltmp410:
.LBB29_7:
	#DEBUG_VALUE: c_datatypes <- $rbx
	#DEBUG_VALUE: Get_contents: <- $r12
	#DEBUG_VALUE:  <- $r12
	#DEBUG_VALUE: Get_contents:array_of_datatypes <- [DW_OP_plus_uconst 16] [$rbp+0]
	#DEBUG_VALUE: array_of_datatypes <- [DW_OP_plus_uconst 16] [$rbp+0]
	movq	-48(%rbp), %rsi         # 8-byte Reload
	jmp	.LBB29_12
.Ltmp411:
.LBB29_10:                              # %L.B3423
	#DEBUG_VALUE: c_datatypes <- $rbx
	#DEBUG_VALUE: Get_contents: <- $r12
	#DEBUG_VALUE:  <- $r12
	#DEBUG_VALUE: Get_contents:array_of_datatypes <- [DW_OP_plus_uconst 16] [$rbp+0]
	#DEBUG_VALUE: array_of_datatypes <- [DW_OP_plus_uconst 16] [$rbp+0]
	.loc	10 369 1                # /usr/lib/x86_64-linux-gnu/openmpi/include/openmpi/ompi/mpi/cxx/datatype_inln.h:369:1
	cltq
	movq	(%rbx,%rax,8), %rcx
	movq	%rax, %rdx
	shlq	$4, %rdx
	movq	-48(%rbp), %rsi         # 8-byte Reload
	movq	%rcx, 8(%rsi,%rdx)
	incl	%eax
.Ltmp412:
.LBB29_11:                              # %L.B3417
	#DEBUG_VALUE: c_datatypes <- $rbx
	#DEBUG_VALUE: Get_contents: <- $r12
	#DEBUG_VALUE:  <- $r12
	#DEBUG_VALUE: Get_contents:array_of_datatypes <- [DW_OP_plus_uconst 16] [$rbp+0]
	#DEBUG_VALUE: array_of_datatypes <- [DW_OP_plus_uconst 16] [$rbp+0]
	cltq
	movq	(%rbx,%rax,8), %rcx
	movq	%rax, %rdx
	shlq	$4, %rdx
	movq	%rcx, 8(%rsi,%rdx)
	incl	%eax
.Ltmp413:
.LBB29_12:                              # %L.B3416
	#DEBUG_VALUE: c_datatypes <- $rbx
	#DEBUG_VALUE: Get_contents: <- $r12
	#DEBUG_VALUE:  <- $r12
	#DEBUG_VALUE: Get_contents:array_of_datatypes <- [DW_OP_plus_uconst 16] [$rbp+0]
	#DEBUG_VALUE: array_of_datatypes <- [DW_OP_plus_uconst 16] [$rbp+0]
	cltq
	movq	(%rbx,%rax,8), %rcx
	shlq	$4, %rax
	movq	%rcx, 8(%rsi,%rax)
.Ltmp414:
.LBB29_13:                              # %L.B3413
	#DEBUG_VALUE: c_datatypes <- $rbx
	#DEBUG_VALUE: Get_contents: <- $r12
	#DEBUG_VALUE:  <- $r12
	#DEBUG_VALUE: Get_contents:array_of_datatypes <- [DW_OP_plus_uconst 16] [$rbp+0]
	#DEBUG_VALUE: array_of_datatypes <- [DW_OP_plus_uconst 16] [$rbp+0]
	.loc	10 372 1 is_stmt 1      # /usr/lib/x86_64-linux-gnu/openmpi/include/openmpi/ompi/mpi/cxx/datatype_inln.h:372:1
	movq	%rbx, %rdi
	addq	$40, %rsp
	popq	%rbx
.Ltmp415:
	popq	%r12
.Ltmp416:
	popq	%r13
	popq	%r14
	popq	%r15
	popq	%rbp
	.cfi_def_cfa %rsp, 8
	jmp	_ZdaPv                  # TAILCALL
.Ltmp417:
.Lfunc_end29:
	.size	_ZNK3MPI8Datatype12Get_contentsEiiiPiPlPS0_, .Lfunc_end29-_ZNK3MPI8Datatype12Get_contentsEiiiPiPlPS0_
	.cfi_endproc
                                        # -- End function
	.weak	_ZNK3MPI8Datatype12Get_envelopeERiS1_S1_S1_ # -- Begin function _ZNK3MPI8Datatype12Get_envelopeERiS1_S1_S1_
	.p2align	4, 0x90
	.type	_ZNK3MPI8Datatype12Get_envelopeERiS1_S1_S1_,@function
_ZNK3MPI8Datatype12Get_envelopeERiS1_S1_S1_: # @_ZNK3MPI8Datatype12Get_envelopeERiS1_S1_S1_
.Lfunc_begin30:
	.loc	10 378 0                # /usr/lib/x86_64-linux-gnu/openmpi/include/openmpi/ompi/mpi/cxx/datatype_inln.h:378:0
	.cfi_startproc
# %bb.0:                                # %L.entry
	#DEBUG_VALUE: Get_envelope: <- $rdi
	#DEBUG_VALUE: Get_envelope: <- $rdi
	#DEBUG_VALUE: Get_envelope:num_integers <- $rsi
	#DEBUG_VALUE: Get_envelope:num_integers <- $rsi
	#DEBUG_VALUE: Get_envelope:num_addresses <- $rdx
	#DEBUG_VALUE: Get_envelope:num_addresses <- $rdx
	#DEBUG_VALUE: Get_envelope:num_datatypes <- $rcx
	#DEBUG_VALUE: Get_envelope:num_datatypes <- $rcx
	#DEBUG_VALUE: Get_envelope:combiner <- $r8
	#DEBUG_VALUE: Get_envelope:combiner <- $r8
	pushq	%rbp
	.cfi_def_cfa_offset 16
	.cfi_offset %rbp, -16
	movq	%rsp, %rbp
	.cfi_def_cfa_register %rbp
.Ltmp418:
	#DEBUG_VALUE:  <- $rdi
	#DEBUG_VALUE:  <- $rdi
	#DEBUG_VALUE: num_integers <- $rsi
	#DEBUG_VALUE: num_integers <- $rsi
	#DEBUG_VALUE: num_addresses <- $rdx
	#DEBUG_VALUE: num_addresses <- $rdx
	#DEBUG_VALUE: num_datatypes <- $rcx
	#DEBUG_VALUE: num_datatypes <- $rcx
	#DEBUG_VALUE: combiner <- $r8
	#DEBUG_VALUE: combiner <- $r8
	.loc	10 379 1 prologue_end   # /usr/lib/x86_64-linux-gnu/openmpi/include/openmpi/ompi/mpi/cxx/datatype_inln.h:379:1
	movq	8(%rdi), %rdi
.Ltmp419:
	#DEBUG_VALUE: combiner <- $r8
	#DEBUG_VALUE: Get_envelope:combiner <- $r8
	#DEBUG_VALUE: num_datatypes <- $rcx
	#DEBUG_VALUE: Get_envelope:num_datatypes <- $rcx
	#DEBUG_VALUE: num_addresses <- $rdx
	#DEBUG_VALUE: Get_envelope:num_addresses <- $rdx
	#DEBUG_VALUE: num_integers <- $rsi
	#DEBUG_VALUE: Get_envelope:num_integers <- $rsi
	popq	%rbp
	.cfi_def_cfa %rsp, 8
	jmp	MPI_Type_get_envelope   # TAILCALL
.Ltmp420:
.Lfunc_end30:
	.size	_ZNK3MPI8Datatype12Get_envelopeERiS1_S1_S1_, .Lfunc_end30-_ZNK3MPI8Datatype12Get_envelopeERiS1_S1_S1_
	.cfi_endproc
                                        # -- End function
	.weak	_ZNK3MPI8Datatype8Get_nameEPcRi # -- Begin function _ZNK3MPI8Datatype8Get_nameEPcRi
	.p2align	4, 0x90
	.type	_ZNK3MPI8Datatype8Get_nameEPcRi,@function
_ZNK3MPI8Datatype8Get_nameEPcRi:        # @_ZNK3MPI8Datatype8Get_nameEPcRi
.Lfunc_begin31:
	.loc	10 385 0                # /usr/lib/x86_64-linux-gnu/openmpi/include/openmpi/ompi/mpi/cxx/datatype_inln.h:385:0
	.cfi_startproc
# %bb.0:                                # %L.entry
	#DEBUG_VALUE: Get_name: <- $rdi
	#DEBUG_VALUE: Get_name: <- $rdi
	#DEBUG_VALUE: Get_name:type_name <- $rsi
	#DEBUG_VALUE: Get_name:type_name <- $rsi
	#DEBUG_VALUE: Get_name:resultlen <- $rdx
	#DEBUG_VALUE: Get_name:resultlen <- $rdx
	pushq	%rbp
	.cfi_def_cfa_offset 16
	.cfi_offset %rbp, -16
	movq	%rsp, %rbp
	.cfi_def_cfa_register %rbp
.Ltmp421:
	#DEBUG_VALUE:  <- $rdi
	#DEBUG_VALUE:  <- $rdi
	#DEBUG_VALUE: type_name <- $rsi
	#DEBUG_VALUE: type_name <- $rsi
	#DEBUG_VALUE: resultlen <- $rdx
	#DEBUG_VALUE: resultlen <- $rdx
	.loc	10 386 1 prologue_end   # /usr/lib/x86_64-linux-gnu/openmpi/include/openmpi/ompi/mpi/cxx/datatype_inln.h:386:1
	movq	8(%rdi), %rdi
.Ltmp422:
	#DEBUG_VALUE: resultlen <- $rdx
	#DEBUG_VALUE: Get_name:resultlen <- $rdx
	#DEBUG_VALUE: type_name <- $rsi
	#DEBUG_VALUE: Get_name:type_name <- $rsi
	popq	%rbp
	.cfi_def_cfa %rsp, 8
	jmp	MPI_Type_get_name       # TAILCALL
.Ltmp423:
.Lfunc_end31:
	.size	_ZNK3MPI8Datatype8Get_nameEPcRi, .Lfunc_end31-_ZNK3MPI8Datatype8Get_nameEPcRi
	.cfi_endproc
                                        # -- End function
	.weak	_ZN3MPI8Datatype8Set_attrEiPKv # -- Begin function _ZN3MPI8Datatype8Set_attrEiPKv
	.p2align	4, 0x90
	.type	_ZN3MPI8Datatype8Set_attrEiPKv,@function
_ZN3MPI8Datatype8Set_attrEiPKv:         # @_ZN3MPI8Datatype8Set_attrEiPKv
.Lfunc_begin32:
	.loc	10 391 0                # /usr/lib/x86_64-linux-gnu/openmpi/include/openmpi/ompi/mpi/cxx/datatype_inln.h:391:0
	.cfi_startproc
# %bb.0:                                # %L.entry
	#DEBUG_VALUE: Set_attr: <- $rdi
	#DEBUG_VALUE: Set_attr: <- $rdi
	#DEBUG_VALUE: Set_attr:type_keyval <- $esi
	#DEBUG_VALUE: Set_attr:type_keyval <- $esi
	#DEBUG_VALUE: Set_attr:attribute_val <- $rdx
	#DEBUG_VALUE: Set_attr:attribute_val <- $rdx
	pushq	%rbp
	.cfi_def_cfa_offset 16
	.cfi_offset %rbp, -16
	movq	%rsp, %rbp
	.cfi_def_cfa_register %rbp
.Ltmp424:
	#DEBUG_VALUE:  <- $rdi
	#DEBUG_VALUE:  <- $rdi
	#DEBUG_VALUE: type_keyval <- $esi
	#DEBUG_VALUE: type_keyval <- $esi
	#DEBUG_VALUE: attribute_val <- $rdx
	#DEBUG_VALUE: attribute_val <- $rdx
	.loc	10 392 1 prologue_end   # /usr/lib/x86_64-linux-gnu/openmpi/include/openmpi/ompi/mpi/cxx/datatype_inln.h:392:1
	movq	8(%rdi), %rdi
.Ltmp425:
	#DEBUG_VALUE: attribute_val <- $rdx
	#DEBUG_VALUE: Set_attr:attribute_val <- $rdx
	#DEBUG_VALUE: type_keyval <- $esi
	#DEBUG_VALUE: Set_attr:type_keyval <- $esi
	popq	%rbp
	.cfi_def_cfa %rsp, 8
	jmp	MPI_Type_set_attr       # TAILCALL
.Ltmp426:
.Lfunc_end32:
	.size	_ZN3MPI8Datatype8Set_attrEiPKv, .Lfunc_end32-_ZN3MPI8Datatype8Set_attrEiPKv
	.cfi_endproc
                                        # -- End function
	.weak	_ZN3MPI8Datatype8Set_nameEPKc # -- Begin function _ZN3MPI8Datatype8Set_nameEPKc
	.p2align	4, 0x90
	.type	_ZN3MPI8Datatype8Set_nameEPKc,@function
_ZN3MPI8Datatype8Set_nameEPKc:          # @_ZN3MPI8Datatype8Set_nameEPKc
.Lfunc_begin33:
	.loc	10 397 0                # /usr/lib/x86_64-linux-gnu/openmpi/include/openmpi/ompi/mpi/cxx/datatype_inln.h:397:0
	.cfi_startproc
# %bb.0:                                # %L.entry
	#DEBUG_VALUE: Set_name: <- $rdi
	#DEBUG_VALUE: Set_name: <- $rdi
	#DEBUG_VALUE: Set_name:type_name <- $rsi
	#DEBUG_VALUE: Set_name:type_name <- $rsi
	pushq	%rbp
	.cfi_def_cfa_offset 16
	.cfi_offset %rbp, -16
	movq	%rsp, %rbp
	.cfi_def_cfa_register %rbp
.Ltmp427:
	#DEBUG_VALUE:  <- $rdi
	#DEBUG_VALUE:  <- $rdi
	#DEBUG_VALUE: type_name <- $rsi
	#DEBUG_VALUE: type_name <- $rsi
	.loc	10 398 1 prologue_end   # /usr/lib/x86_64-linux-gnu/openmpi/include/openmpi/ompi/mpi/cxx/datatype_inln.h:398:1
	movq	8(%rdi), %rdi
.Ltmp428:
	#DEBUG_VALUE: type_name <- $rsi
	#DEBUG_VALUE: Set_name:type_name <- $rsi
	popq	%rbp
	.cfi_def_cfa %rsp, 8
	jmp	MPI_Type_set_name       # TAILCALL
.Ltmp429:
.Lfunc_end33:
	.size	_ZN3MPI8Datatype8Set_nameEPKc, .Lfunc_end33-_ZN3MPI8Datatype8Set_nameEPKc
	.cfi_endproc
                                        # -- End function
	.weak	_ZN3MPI2OpD1Ev          # -- Begin function _ZN3MPI2OpD1Ev
	.p2align	4, 0x90
	.type	_ZN3MPI2OpD1Ev,@function
_ZN3MPI2OpD1Ev:                         # @_ZN3MPI2OpD1Ev
.Lfunc_begin34:
	.file	11 "/usr/lib/x86_64-linux-gnu/openmpi/include/openmpi/ompi/mpi/cxx/op_inln.h"
	.loc	11 77 0                 # /usr/lib/x86_64-linux-gnu/openmpi/include/openmpi/ompi/mpi/cxx/op_inln.h:77:0
	.cfi_startproc
# %bb.0:                                # %L.entry
	#DEBUG_VALUE: ~Op: <- $rdi
	#DEBUG_VALUE: ~Op: <- $rdi
	pushq	%rbp
	.cfi_def_cfa_offset 16
	.cfi_offset %rbp, -16
	movq	%rsp, %rbp
	.cfi_def_cfa_register %rbp
.Ltmp430:
	#DEBUG_VALUE:  <- $rdi
	#DEBUG_VALUE:  <- $rdi
	.loc	11 77 1 prologue_end    # /usr/lib/x86_64-linux-gnu/openmpi/include/openmpi/ompi/mpi/cxx/op_inln.h:77:1
	movq	$_ZTVN3MPI2OpE+16, (%rdi)
	.loc	11 82 1                 # /usr/lib/x86_64-linux-gnu/openmpi/include/openmpi/ompi/mpi/cxx/op_inln.h:82:1
	popq	%rbp
	.cfi_def_cfa %rsp, 8
	retq
.Ltmp431:
.Lfunc_end34:
	.size	_ZN3MPI2OpD1Ev, .Lfunc_end34-_ZN3MPI2OpD1Ev
	.cfi_endproc
                                        # -- End function
	.weak	_ZN3MPI2OpD0Ev          # -- Begin function _ZN3MPI2OpD0Ev
	.p2align	4, 0x90
	.type	_ZN3MPI2OpD0Ev,@function
_ZN3MPI2OpD0Ev:                         # @_ZN3MPI2OpD0Ev
.Lfunc_begin35:
	.loc	1 0 0                   # projects/projectTriAxisSearch.cpp:0:0
	.cfi_startproc
# %bb.0:                                # %L.entry
	pushq	%rbp
	.cfi_def_cfa_offset 16
	.cfi_offset %rbp, -16
	movq	%rsp, %rbp
	.cfi_def_cfa_register %rbp
.Ltmp432:
	.loc	1 82 1 prologue_end     # projects/projectTriAxisSearch.cpp:82:1
	movl	$16, %esi
	popq	%rbp
	.cfi_def_cfa %rsp, 8
	jmp	_ZdlPvm                 # TAILCALL
.Ltmp433:
.Lfunc_end35:
	.size	_ZN3MPI2OpD0Ev, .Lfunc_end35-_ZN3MPI2OpD0Ev
	.cfi_endproc
                                        # -- End function
	.weak	_ZN3MPI2Op4InitEPFvPKvPviRKNS_8DatatypeEEb # -- Begin function _ZN3MPI2Op4InitEPFvPKvPviRKNS_8DatatypeEEb
	.p2align	4, 0x90
	.type	_ZN3MPI2Op4InitEPFvPKvPviRKNS_8DatatypeEEb,@function
_ZN3MPI2Op4InitEPFvPKvPviRKNS_8DatatypeEEb: # @_ZN3MPI2Op4InitEPFvPKvPviRKNS_8DatatypeEEb
.Lfunc_begin36:
	.loc	11 120 0                # /usr/lib/x86_64-linux-gnu/openmpi/include/openmpi/ompi/mpi/cxx/op_inln.h:120:0
	.cfi_startproc
# %bb.0:                                # %L.entry
	#DEBUG_VALUE: Init: <- $rdi
	#DEBUG_VALUE: Init:func <- $rsi
	#DEBUG_VALUE: Init:commute <- $edx
	pushq	%rbp
	.cfi_def_cfa_offset 16
	.cfi_offset %rbp, -16
	movq	%rsp, %rbp
	.cfi_def_cfa_register %rbp
	pushq	%r14
	pushq	%rbx
	.cfi_offset %rbx, -32
	.cfi_offset %r14, -24
.Ltmp434:
	#DEBUG_VALUE:  <- $rdi
	#DEBUG_VALUE: func <- $rsi
	#DEBUG_VALUE: commute <- $edx
	movq	%rsi, %r14
	movq	%rdi, %rbx
	#DEBUG_VALUE: commute <- $edx
	#DEBUG_VALUE: Init:commute <- $edx
.Ltmp435:
	#DEBUG_VALUE: func <- $r14
	#DEBUG_VALUE: Init:func <- $r14
	#DEBUG_VALUE:  <- $rbx
	#DEBUG_VALUE: Init: <- $rbx
	.loc	11 121 1 prologue_end   # /usr/lib/x86_64-linux-gnu/openmpi/include/openmpi/ompi/mpi/cxx/op_inln.h:121:1
	leaq	8(%rdi), %rax
	movl	$ompi_mpi_cxx_op_intercept, %edi
	movl	%edx, %esi
.Ltmp436:
	#DEBUG_VALUE: commute <- $esi
	#DEBUG_VALUE: Init:commute <- $esi
	movq	%rax, %rdx
	callq	MPI_Op_create
.Ltmp437:
	.loc	11 123 1                # /usr/lib/x86_64-linux-gnu/openmpi/include/openmpi/ompi/mpi/cxx/op_inln.h:123:1
	movq	8(%rbx), %rdi
	movq	%r14, %rsi
.Ltmp438:
	#DEBUG_VALUE: func <- $rsi
	#DEBUG_VALUE: Init:func <- $rsi
	popq	%rbx
.Ltmp439:
	popq	%r14
	popq	%rbp
	.cfi_def_cfa %rsp, 8
	jmp	ompi_op_set_cxx_callback # TAILCALL
.Ltmp440:
.Lfunc_end36:
	.size	_ZN3MPI2Op4InitEPFvPKvPviRKNS_8DatatypeEEb, .Lfunc_end36-_ZN3MPI2Op4InitEPFvPKvPviRKNS_8DatatypeEEb
	.cfi_endproc
                                        # -- End function
	.weak	_ZN3MPI2Op4FreeEv       # -- Begin function _ZN3MPI2Op4FreeEv
	.p2align	4, 0x90
	.type	_ZN3MPI2Op4FreeEv,@function
_ZN3MPI2Op4FreeEv:                      # @_ZN3MPI2Op4FreeEv
.Lfunc_begin37:
	.loc	11 129 0                # /usr/lib/x86_64-linux-gnu/openmpi/include/openmpi/ompi/mpi/cxx/op_inln.h:129:0
	.cfi_startproc
# %bb.0:                                # %L.entry
	#DEBUG_VALUE: Free: <- $rdi
	#DEBUG_VALUE: Free: <- $rdi
	pushq	%rbp
	.cfi_def_cfa_offset 16
	.cfi_offset %rbp, -16
	movq	%rsp, %rbp
	.cfi_def_cfa_register %rbp
.Ltmp441:
	#DEBUG_VALUE:  <- $rdi
	#DEBUG_VALUE:  <- $rdi
	.loc	11 130 1 prologue_end   # /usr/lib/x86_64-linux-gnu/openmpi/include/openmpi/ompi/mpi/cxx/op_inln.h:130:1
	addq	$8, %rdi
.Ltmp442:
	popq	%rbp
	.cfi_def_cfa %rsp, 8
	jmp	MPI_Op_free             # TAILCALL
.Ltmp443:
.Lfunc_end37:
	.size	_ZN3MPI2Op4FreeEv, .Lfunc_end37-_ZN3MPI2Op4FreeEv
	.cfi_endproc
                                        # -- End function
	.weak	_ZNK3MPI2Op12Reduce_localEPKvPviRKNS_8DatatypeE # -- Begin function _ZNK3MPI2Op12Reduce_localEPKvPviRKNS_8DatatypeE
	.p2align	4, 0x90
	.type	_ZNK3MPI2Op12Reduce_localEPKvPviRKNS_8DatatypeE,@function
_ZNK3MPI2Op12Reduce_localEPKvPviRKNS_8DatatypeE: # @_ZNK3MPI2Op12Reduce_localEPKvPviRKNS_8DatatypeE
.Lfunc_begin38:
	.loc	11 137 0                # /usr/lib/x86_64-linux-gnu/openmpi/include/openmpi/ompi/mpi/cxx/op_inln.h:137:0
	.cfi_startproc
# %bb.0:                                # %L.entry
	#DEBUG_VALUE: Reduce_local: <- $rdi
	#DEBUG_VALUE: Reduce_local: <- $rdi
	#DEBUG_VALUE: Reduce_local:inbuf <- $rsi
	#DEBUG_VALUE: Reduce_local:inbuf <- $rsi
	#DEBUG_VALUE: Reduce_local:inoutbuf <- $rdx
	#DEBUG_VALUE: Reduce_local:inoutbuf <- $rdx
	#DEBUG_VALUE: Reduce_local:count <- $ecx
	#DEBUG_VALUE: Reduce_local:count <- $ecx
	#DEBUG_VALUE: Reduce_local:datatype <- $r8
	#DEBUG_VALUE: Reduce_local:datatype <- $r8
	pushq	%rbp
	.cfi_def_cfa_offset 16
	.cfi_offset %rbp, -16
	movq	%rsp, %rbp
	.cfi_def_cfa_register %rbp
.Ltmp444:
	#DEBUG_VALUE:  <- $rdi
	#DEBUG_VALUE:  <- $rdi
	#DEBUG_VALUE: inbuf <- $rsi
	#DEBUG_VALUE: inbuf <- $rsi
	#DEBUG_VALUE: inoutbuf <- $rdx
	#DEBUG_VALUE: inoutbuf <- $rdx
	#DEBUG_VALUE: count <- $ecx
	#DEBUG_VALUE: count <- $ecx
	#DEBUG_VALUE: datatype <- $r8
	#DEBUG_VALUE: datatype <- $r8
	.loc	11 90 1 prologue_end    # /usr/lib/x86_64-linux-gnu/openmpi/include/openmpi/ompi/mpi/cxx/op_inln.h:90:1
	movq	8(%r8), %rax
	movq	8(%rdi), %r8
.Ltmp445:
	movq	%rsi, %rdi
.Ltmp446:
	#DEBUG_VALUE: inbuf <- $rdi
	#DEBUG_VALUE: Reduce_local:inbuf <- $rdi
	movq	%rdx, %rsi
.Ltmp447:
	#DEBUG_VALUE: inoutbuf <- $rsi
	#DEBUG_VALUE: Reduce_local:inoutbuf <- $rsi
	movl	%ecx, %edx
.Ltmp448:
	#DEBUG_VALUE: count <- $edx
	#DEBUG_VALUE: Reduce_local:count <- $edx
	movq	%rax, %rcx
	popq	%rbp
	.cfi_def_cfa %rsp, 8
	jmp	MPI_Reduce_local        # TAILCALL
.Ltmp449:
.Lfunc_end38:
	.size	_ZNK3MPI2Op12Reduce_localEPKvPviRKNS_8DatatypeE, .Lfunc_end38-_ZNK3MPI2Op12Reduce_localEPKvPviRKNS_8DatatypeE
	.cfi_endproc
                                        # -- End function
	.weak	_ZNK3MPI2Op14Is_commutativeEv # -- Begin function _ZNK3MPI2Op14Is_commutativeEv
	.p2align	4, 0x90
	.type	_ZNK3MPI2Op14Is_commutativeEv,@function
_ZNK3MPI2Op14Is_commutativeEv:          # @_ZNK3MPI2Op14Is_commutativeEv
.Lfunc_begin39:
	.loc	11 145 0                # /usr/lib/x86_64-linux-gnu/openmpi/include/openmpi/ompi/mpi/cxx/op_inln.h:145:0
	.cfi_startproc
# %bb.0:                                # %L.entry
	#DEBUG_VALUE: Is_commutative: <- $rdi
	#DEBUG_VALUE: Is_commutative: <- $rdi
	pushq	%rbp
	.cfi_def_cfa_offset 16
	.cfi_offset %rbp, -16
	movq	%rsp, %rbp
	.cfi_def_cfa_register %rbp
	subq	$16, %rsp
.Ltmp450:
	#DEBUG_VALUE:  <- $rdi
	.loc	11 147 1 prologue_end   # /usr/lib/x86_64-linux-gnu/openmpi/include/openmpi/ompi/mpi/cxx/op_inln.h:147:1
	movq	8(%rdi), %rdi
.Ltmp451:
	#DEBUG_VALUE: commute <- [DW_OP_constu 4, DW_OP_minus, DW_OP_deref] $rbp
	.loc	11 0 1 is_stmt 0        # /usr/lib/x86_64-linux-gnu/openmpi/include/openmpi/ompi/mpi/cxx/op_inln.h:0:1
	leaq	-4(%rbp), %rsi
	.loc	11 147 1                # /usr/lib/x86_64-linux-gnu/openmpi/include/openmpi/ompi/mpi/cxx/op_inln.h:147:1
	callq	MPI_Op_commutative
.Ltmp452:
	#DEBUG_VALUE: commute <- undef
	.loc	11 148 1 is_stmt 1      # /usr/lib/x86_64-linux-gnu/openmpi/include/openmpi/ompi/mpi/cxx/op_inln.h:148:1
	cmpl	$0, -4(%rbp)
	setne	%al
	addq	$16, %rsp
	popq	%rbp
	.cfi_def_cfa %rsp, 8
	retq
.Ltmp453:
.Lfunc_end39:
	.size	_ZNK3MPI2Op14Is_commutativeEv, .Lfunc_end39-_ZNK3MPI2Op14Is_commutativeEv
	.cfi_endproc
                                        # -- End function
	.weak	_ZN3MPI6StatusD1Ev      # -- Begin function _ZN3MPI6StatusD1Ev
	.p2align	4, 0x90
	.type	_ZN3MPI6StatusD1Ev,@function
_ZN3MPI6StatusD1Ev:                     # @_ZN3MPI6StatusD1Ev
.Lfunc_begin40:
	.file	12 "/usr/lib/x86_64-linux-gnu/openmpi/include/openmpi/ompi/mpi/cxx/status.h"
	.loc	12 64 0                 # /usr/lib/x86_64-linux-gnu/openmpi/include/openmpi/ompi/mpi/cxx/status.h:64:0
	.cfi_startproc
# %bb.0:                                # %L.entry
	#DEBUG_VALUE: ~Status: <- $rdi
	#DEBUG_VALUE: ~Status: <- $rdi
	pushq	%rbp
	.cfi_def_cfa_offset 16
	.cfi_offset %rbp, -16
	movq	%rsp, %rbp
	.cfi_def_cfa_register %rbp
.Ltmp454:
	#DEBUG_VALUE:  <- $rdi
	#DEBUG_VALUE:  <- $rdi
	.loc	12 64 1 prologue_end    # /usr/lib/x86_64-linux-gnu/openmpi/include/openmpi/ompi/mpi/cxx/status.h:64:1
	movq	$_ZTVN3MPI6StatusE+16, (%rdi)
	popq	%rbp
	.cfi_def_cfa %rsp, 8
	retq
.Ltmp455:
.Lfunc_end40:
	.size	_ZN3MPI6StatusD1Ev, .Lfunc_end40-_ZN3MPI6StatusD1Ev
	.cfi_endproc
                                        # -- End function
	.weak	_ZN3MPI6StatusD0Ev      # -- Begin function _ZN3MPI6StatusD0Ev
	.p2align	4, 0x90
	.type	_ZN3MPI6StatusD0Ev,@function
_ZN3MPI6StatusD0Ev:                     # @_ZN3MPI6StatusD0Ev
.Lfunc_begin41:
	.loc	1 0 0                   # projects/projectTriAxisSearch.cpp:0:0
	.cfi_startproc
# %bb.0:                                # %L.entry
	pushq	%rbp
	.cfi_def_cfa_offset 16
	.cfi_offset %rbp, -16
	movq	%rsp, %rbp
	.cfi_def_cfa_register %rbp
.Ltmp456:
	.loc	1 64 1 prologue_end     # projects/projectTriAxisSearch.cpp:64:1
	movl	$32, %esi
	popq	%rbp
	.cfi_def_cfa %rsp, 8
	jmp	_ZdlPvm                 # TAILCALL
.Ltmp457:
.Lfunc_end41:
	.size	_ZN3MPI6StatusD0Ev, .Lfunc_end41-_ZN3MPI6StatusD0Ev
	.cfi_endproc
                                        # -- End function
	.weak	_ZNK3MPI6Status9Get_countERKNS_8DatatypeE # -- Begin function _ZNK3MPI6Status9Get_countERKNS_8DatatypeE
	.p2align	4, 0x90
	.type	_ZNK3MPI6Status9Get_countERKNS_8DatatypeE,@function
_ZNK3MPI6Status9Get_countERKNS_8DatatypeE: # @_ZNK3MPI6Status9Get_countERKNS_8DatatypeE
.Lfunc_begin42:
	.file	13 "/usr/lib/x86_64-linux-gnu/openmpi/include/openmpi/ompi/mpi/cxx/status_inln.h"
	.loc	13 27 0                 # /usr/lib/x86_64-linux-gnu/openmpi/include/openmpi/ompi/mpi/cxx/status_inln.h:27:0
	.cfi_startproc
# %bb.0:                                # %L.entry
	#DEBUG_VALUE: Get_count: <- $rdi
	#DEBUG_VALUE: Get_count: <- $rdi
	#DEBUG_VALUE: Get_count:datatype <- $rsi
	#DEBUG_VALUE: Get_count:datatype <- $rsi
	pushq	%rbp
	.cfi_def_cfa_offset 16
	.cfi_offset %rbp, -16
	movq	%rsp, %rbp
	.cfi_def_cfa_register %rbp
	subq	$16, %rsp
.Ltmp458:
	#DEBUG_VALUE:  <- $rdi
	#DEBUG_VALUE: datatype <- $rsi
	.loc	13 90 1 prologue_end    # /usr/lib/x86_64-linux-gnu/openmpi/include/openmpi/ompi/mpi/cxx/status_inln.h:90:1
	addq	$8, %rdi
.Ltmp459:
	movq	8(%rsi), %rsi
.Ltmp460:
	#DEBUG_VALUE: count <- [DW_OP_constu 4, DW_OP_minus, DW_OP_deref] $rbp
	.loc	13 0 1 is_stmt 0        # /usr/lib/x86_64-linux-gnu/openmpi/include/openmpi/ompi/mpi/cxx/status_inln.h:0:1
	leaq	-4(%rbp), %rdx
	.loc	13 90 1                 # /usr/lib/x86_64-linux-gnu/openmpi/include/openmpi/ompi/mpi/cxx/status_inln.h:90:1
	callq	MPI_Get_count
	.loc	13 30 1 is_stmt 1       # /usr/lib/x86_64-linux-gnu/openmpi/include/openmpi/ompi/mpi/cxx/status_inln.h:30:1
	movl	-4(%rbp), %eax
.Ltmp461:
	#DEBUG_VALUE: count <- $eax
	addq	$16, %rsp
	popq	%rbp
	.cfi_def_cfa %rsp, 8
	retq
.Ltmp462:
.Lfunc_end42:
	.size	_ZNK3MPI6Status9Get_countERKNS_8DatatypeE, .Lfunc_end42-_ZNK3MPI6Status9Get_countERKNS_8DatatypeE
	.cfi_endproc
                                        # -- End function
	.weak	_ZNK3MPI6Status12Is_cancelledEv # -- Begin function _ZNK3MPI6Status12Is_cancelledEv
	.p2align	4, 0x90
	.type	_ZNK3MPI6Status12Is_cancelledEv,@function
_ZNK3MPI6Status12Is_cancelledEv:        # @_ZNK3MPI6Status12Is_cancelledEv
.Lfunc_begin43:
	.loc	13 35 0                 # /usr/lib/x86_64-linux-gnu/openmpi/include/openmpi/ompi/mpi/cxx/status_inln.h:35:0
	.cfi_startproc
# %bb.0:                                # %L.entry
	#DEBUG_VALUE: Is_cancelled: <- $rdi
	#DEBUG_VALUE: Is_cancelled: <- $rdi
	pushq	%rbp
	.cfi_def_cfa_offset 16
	.cfi_offset %rbp, -16
	movq	%rsp, %rbp
	.cfi_def_cfa_register %rbp
	subq	$16, %rsp
.Ltmp463:
	#DEBUG_VALUE:  <- $rdi
	.loc	13 37 1 prologue_end    # /usr/lib/x86_64-linux-gnu/openmpi/include/openmpi/ompi/mpi/cxx/status_inln.h:37:1
	addq	$8, %rdi
.Ltmp464:
	#DEBUG_VALUE: t <- [DW_OP_constu 4, DW_OP_minus, DW_OP_deref] $rbp
	.loc	13 0 1 is_stmt 0        # /usr/lib/x86_64-linux-gnu/openmpi/include/openmpi/ompi/mpi/cxx/status_inln.h:0:1
	leaq	-4(%rbp), %rsi
	.loc	13 37 1                 # /usr/lib/x86_64-linux-gnu/openmpi/include/openmpi/ompi/mpi/cxx/status_inln.h:37:1
	callq	MPI_Test_cancelled
.Ltmp465:
	#DEBUG_VALUE: t <- undef
	.loc	13 38 1 is_stmt 1       # /usr/lib/x86_64-linux-gnu/openmpi/include/openmpi/ompi/mpi/cxx/status_inln.h:38:1
	cmpl	$0, -4(%rbp)
	setne	%al
	addq	$16, %rsp
	popq	%rbp
	.cfi_def_cfa %rsp, 8
	retq
.Ltmp466:
.Lfunc_end43:
	.size	_ZNK3MPI6Status12Is_cancelledEv, .Lfunc_end43-_ZNK3MPI6Status12Is_cancelledEv
	.cfi_endproc
                                        # -- End function
	.weak	_ZNK3MPI6Status12Get_elementsERKNS_8DatatypeE # -- Begin function _ZNK3MPI6Status12Get_elementsERKNS_8DatatypeE
	.p2align	4, 0x90
	.type	_ZNK3MPI6Status12Get_elementsERKNS_8DatatypeE,@function
_ZNK3MPI6Status12Get_elementsERKNS_8DatatypeE: # @_ZNK3MPI6Status12Get_elementsERKNS_8DatatypeE
.Lfunc_begin44:
	.loc	13 43 0                 # /usr/lib/x86_64-linux-gnu/openmpi/include/openmpi/ompi/mpi/cxx/status_inln.h:43:0
	.cfi_startproc
# %bb.0:                                # %L.entry
	#DEBUG_VALUE: Get_elements: <- $rdi
	#DEBUG_VALUE: Get_elements: <- $rdi
	#DEBUG_VALUE: Get_elements:datatype <- $rsi
	#DEBUG_VALUE: Get_elements:datatype <- $rsi
	pushq	%rbp
	.cfi_def_cfa_offset 16
	.cfi_offset %rbp, -16
	movq	%rsp, %rbp
	.cfi_def_cfa_register %rbp
	subq	$16, %rsp
.Ltmp467:
	#DEBUG_VALUE:  <- $rdi
	#DEBUG_VALUE: datatype <- $rsi
	.loc	13 90 1 prologue_end    # /usr/lib/x86_64-linux-gnu/openmpi/include/openmpi/ompi/mpi/cxx/status_inln.h:90:1
	addq	$8, %rdi
.Ltmp468:
	movq	8(%rsi), %rsi
.Ltmp469:
	#DEBUG_VALUE: count <- [DW_OP_constu 4, DW_OP_minus, DW_OP_deref] $rbp
	.loc	13 0 1 is_stmt 0        # /usr/lib/x86_64-linux-gnu/openmpi/include/openmpi/ompi/mpi/cxx/status_inln.h:0:1
	leaq	-4(%rbp), %rdx
	.loc	13 90 1                 # /usr/lib/x86_64-linux-gnu/openmpi/include/openmpi/ompi/mpi/cxx/status_inln.h:90:1
	callq	MPI_Get_elements
	.loc	13 46 1 is_stmt 1       # /usr/lib/x86_64-linux-gnu/openmpi/include/openmpi/ompi/mpi/cxx/status_inln.h:46:1
	movl	-4(%rbp), %eax
.Ltmp470:
	#DEBUG_VALUE: count <- $eax
	addq	$16, %rsp
	popq	%rbp
	.cfi_def_cfa %rsp, 8
	retq
.Ltmp471:
.Lfunc_end44:
	.size	_ZNK3MPI6Status12Get_elementsERKNS_8DatatypeE, .Lfunc_end44-_ZNK3MPI6Status12Get_elementsERKNS_8DatatypeE
	.cfi_endproc
                                        # -- End function
	.weak	_ZNK3MPI6Status10Get_sourceEv # -- Begin function _ZNK3MPI6Status10Get_sourceEv
	.p2align	4, 0x90
	.type	_ZNK3MPI6Status10Get_sourceEv,@function
_ZNK3MPI6Status10Get_sourceEv:          # @_ZNK3MPI6Status10Get_sourceEv
.Lfunc_begin45:
	.loc	13 54 0                 # /usr/lib/x86_64-linux-gnu/openmpi/include/openmpi/ompi/mpi/cxx/status_inln.h:54:0
	.cfi_startproc
# %bb.0:                                # %L.entry
	#DEBUG_VALUE: Get_source: <- $rdi
	#DEBUG_VALUE: Get_source: <- $rdi
	pushq	%rbp
	.cfi_def_cfa_offset 16
	.cfi_offset %rbp, -16
	movq	%rsp, %rbp
	.cfi_def_cfa_register %rbp
.Ltmp472:
	#DEBUG_VALUE:  <- $rdi
	#DEBUG_VALUE:  <- $rdi
	.loc	13 57 1 prologue_end    # /usr/lib/x86_64-linux-gnu/openmpi/include/openmpi/ompi/mpi/cxx/status_inln.h:57:1
	movl	8(%rdi), %eax
	popq	%rbp
	.cfi_def_cfa %rsp, 8
	retq
.Ltmp473:
.Lfunc_end45:
	.size	_ZNK3MPI6Status10Get_sourceEv, .Lfunc_end45-_ZNK3MPI6Status10Get_sourceEv
	.cfi_endproc
                                        # -- End function
	.weak	_ZN3MPI6Status10Set_sourceEi # -- Begin function _ZN3MPI6Status10Set_sourceEi
	.p2align	4, 0x90
	.type	_ZN3MPI6Status10Set_sourceEi,@function
_ZN3MPI6Status10Set_sourceEi:           # @_ZN3MPI6Status10Set_sourceEi
.Lfunc_begin46:
	.loc	13 62 0                 # /usr/lib/x86_64-linux-gnu/openmpi/include/openmpi/ompi/mpi/cxx/status_inln.h:62:0
	.cfi_startproc
# %bb.0:                                # %L.entry
	#DEBUG_VALUE: Set_source: <- $rdi
	#DEBUG_VALUE: Set_source: <- $rdi
	#DEBUG_VALUE: Set_source:source <- $esi
	#DEBUG_VALUE: Set_source:source <- $esi
	pushq	%rbp
	.cfi_def_cfa_offset 16
	.cfi_offset %rbp, -16
	movq	%rsp, %rbp
	.cfi_def_cfa_register %rbp
.Ltmp474:
	#DEBUG_VALUE:  <- $rdi
	#DEBUG_VALUE:  <- $rdi
	#DEBUG_VALUE: source <- $esi
	#DEBUG_VALUE: source <- $esi
	.loc	13 63 1 prologue_end    # /usr/lib/x86_64-linux-gnu/openmpi/include/openmpi/ompi/mpi/cxx/status_inln.h:63:1
	movl	%esi, 8(%rdi)
	.loc	13 64 1                 # /usr/lib/x86_64-linux-gnu/openmpi/include/openmpi/ompi/mpi/cxx/status_inln.h:64:1
	popq	%rbp
	.cfi_def_cfa %rsp, 8
	retq
.Ltmp475:
.Lfunc_end46:
	.size	_ZN3MPI6Status10Set_sourceEi, .Lfunc_end46-_ZN3MPI6Status10Set_sourceEi
	.cfi_endproc
                                        # -- End function
	.weak	_ZNK3MPI6Status7Get_tagEv # -- Begin function _ZNK3MPI6Status7Get_tagEv
	.p2align	4, 0x90
	.type	_ZNK3MPI6Status7Get_tagEv,@function
_ZNK3MPI6Status7Get_tagEv:              # @_ZNK3MPI6Status7Get_tagEv
.Lfunc_begin47:
	.loc	13 68 0                 # /usr/lib/x86_64-linux-gnu/openmpi/include/openmpi/ompi/mpi/cxx/status_inln.h:68:0
	.cfi_startproc
# %bb.0:                                # %L.entry
	#DEBUG_VALUE: Get_tag: <- $rdi
	#DEBUG_VALUE: Get_tag: <- $rdi
	pushq	%rbp
	.cfi_def_cfa_offset 16
	.cfi_offset %rbp, -16
	movq	%rsp, %rbp
	.cfi_def_cfa_register %rbp
.Ltmp476:
	#DEBUG_VALUE:  <- $rdi
	#DEBUG_VALUE:  <- $rdi
	.loc	13 71 1 prologue_end    # /usr/lib/x86_64-linux-gnu/openmpi/include/openmpi/ompi/mpi/cxx/status_inln.h:71:1
	movl	12(%rdi), %eax
	popq	%rbp
	.cfi_def_cfa %rsp, 8
	retq
.Ltmp477:
.Lfunc_end47:
	.size	_ZNK3MPI6Status7Get_tagEv, .Lfunc_end47-_ZNK3MPI6Status7Get_tagEv
	.cfi_endproc
                                        # -- End function
	.weak	_ZN3MPI6Status7Set_tagEi # -- Begin function _ZN3MPI6Status7Set_tagEi
	.p2align	4, 0x90
	.type	_ZN3MPI6Status7Set_tagEi,@function
_ZN3MPI6Status7Set_tagEi:               # @_ZN3MPI6Status7Set_tagEi
.Lfunc_begin48:
	.loc	13 76 0                 # /usr/lib/x86_64-linux-gnu/openmpi/include/openmpi/ompi/mpi/cxx/status_inln.h:76:0
	.cfi_startproc
# %bb.0:                                # %L.entry
	#DEBUG_VALUE: Set_tag: <- $rdi
	#DEBUG_VALUE: Set_tag: <- $rdi
	#DEBUG_VALUE: Set_tag:tag <- $esi
	#DEBUG_VALUE: Set_tag:tag <- $esi
	pushq	%rbp
	.cfi_def_cfa_offset 16
	.cfi_offset %rbp, -16
	movq	%rsp, %rbp
	.cfi_def_cfa_register %rbp
.Ltmp478:
	#DEBUG_VALUE:  <- $rdi
	#DEBUG_VALUE:  <- $rdi
	#DEBUG_VALUE: tag <- $esi
	#DEBUG_VALUE: tag <- $esi
	.loc	13 77 1 prologue_end    # /usr/lib/x86_64-linux-gnu/openmpi/include/openmpi/ompi/mpi/cxx/status_inln.h:77:1
	movl	%esi, 12(%rdi)
	.loc	13 78 1                 # /usr/lib/x86_64-linux-gnu/openmpi/include/openmpi/ompi/mpi/cxx/status_inln.h:78:1
	popq	%rbp
	.cfi_def_cfa %rsp, 8
	retq
.Ltmp479:
.Lfunc_end48:
	.size	_ZN3MPI6Status7Set_tagEi, .Lfunc_end48-_ZN3MPI6Status7Set_tagEi
	.cfi_endproc
                                        # -- End function
	.weak	_ZNK3MPI6Status9Get_errorEv # -- Begin function _ZNK3MPI6Status9Get_errorEv
	.p2align	4, 0x90
	.type	_ZNK3MPI6Status9Get_errorEv,@function
_ZNK3MPI6Status9Get_errorEv:            # @_ZNK3MPI6Status9Get_errorEv
.Lfunc_begin49:
	.loc	13 82 0                 # /usr/lib/x86_64-linux-gnu/openmpi/include/openmpi/ompi/mpi/cxx/status_inln.h:82:0
	.cfi_startproc
# %bb.0:                                # %L.entry
	#DEBUG_VALUE: Get_error: <- $rdi
	#DEBUG_VALUE: Get_error: <- $rdi
	pushq	%rbp
	.cfi_def_cfa_offset 16
	.cfi_offset %rbp, -16
	movq	%rsp, %rbp
	.cfi_def_cfa_register %rbp
.Ltmp480:
	#DEBUG_VALUE:  <- $rdi
	#DEBUG_VALUE:  <- $rdi
	.loc	13 85 1 prologue_end    # /usr/lib/x86_64-linux-gnu/openmpi/include/openmpi/ompi/mpi/cxx/status_inln.h:85:1
	movl	16(%rdi), %eax
	popq	%rbp
	.cfi_def_cfa %rsp, 8
	retq
.Ltmp481:
.Lfunc_end49:
	.size	_ZNK3MPI6Status9Get_errorEv, .Lfunc_end49-_ZNK3MPI6Status9Get_errorEv
	.cfi_endproc
                                        # -- End function
	.weak	_ZN3MPI6Status9Set_errorEi # -- Begin function _ZN3MPI6Status9Set_errorEi
	.p2align	4, 0x90
	.type	_ZN3MPI6Status9Set_errorEi,@function
_ZN3MPI6Status9Set_errorEi:             # @_ZN3MPI6Status9Set_errorEi
.Lfunc_begin50:
	.loc	13 90 0                 # /usr/lib/x86_64-linux-gnu/openmpi/include/openmpi/ompi/mpi/cxx/status_inln.h:90:0
	.cfi_startproc
# %bb.0:                                # %L.entry
	#DEBUG_VALUE: Set_error: <- $rdi
	#DEBUG_VALUE: Set_error: <- $rdi
	#DEBUG_VALUE: Set_error:error <- $esi
	#DEBUG_VALUE: Set_error:error <- $esi
	pushq	%rbp
	.cfi_def_cfa_offset 16
	.cfi_offset %rbp, -16
	movq	%rsp, %rbp
	.cfi_def_cfa_register %rbp
.Ltmp482:
	#DEBUG_VALUE:  <- $rdi
	#DEBUG_VALUE:  <- $rdi
	#DEBUG_VALUE: error <- $esi
	#DEBUG_VALUE: error <- $esi
	.loc	13 91 1 prologue_end    # /usr/lib/x86_64-linux-gnu/openmpi/include/openmpi/ompi/mpi/cxx/status_inln.h:91:1
	movl	%esi, 16(%rdi)
	.loc	13 92 1                 # /usr/lib/x86_64-linux-gnu/openmpi/include/openmpi/ompi/mpi/cxx/status_inln.h:92:1
	popq	%rbp
	.cfi_def_cfa %rsp, 8
	retq
.Ltmp483:
.Lfunc_end50:
	.size	_ZN3MPI6Status9Set_errorEi, .Lfunc_end50-_ZN3MPI6Status9Set_errorEi
	.cfi_endproc
                                        # -- End function
	.weak	_ZN3MPI6Status12Set_elementsERKNS_8DatatypeEi # -- Begin function _ZN3MPI6Status12Set_elementsERKNS_8DatatypeEi
	.p2align	4, 0x90
	.type	_ZN3MPI6Status12Set_elementsERKNS_8DatatypeEi,@function
_ZN3MPI6Status12Set_elementsERKNS_8DatatypeEi: # @_ZN3MPI6Status12Set_elementsERKNS_8DatatypeEi
.Lfunc_begin51:
	.loc	13 96 0                 # /usr/lib/x86_64-linux-gnu/openmpi/include/openmpi/ompi/mpi/cxx/status_inln.h:96:0
	.cfi_startproc
# %bb.0:                                # %L.entry
	#DEBUG_VALUE: Set_elements: <- $rdi
	#DEBUG_VALUE: Set_elements: <- $rdi
	#DEBUG_VALUE: Set_elements:datatype <- $rsi
	#DEBUG_VALUE: Set_elements:datatype <- $rsi
	#DEBUG_VALUE: Set_elements:count <- $edx
	#DEBUG_VALUE: Set_elements:count <- $edx
	pushq	%rbp
	.cfi_def_cfa_offset 16
	.cfi_offset %rbp, -16
	movq	%rsp, %rbp
	.cfi_def_cfa_register %rbp
.Ltmp484:
	#DEBUG_VALUE:  <- $rdi
	#DEBUG_VALUE:  <- $rdi
	#DEBUG_VALUE: datatype <- $rsi
	#DEBUG_VALUE: datatype <- $rsi
	#DEBUG_VALUE: count <- $edx
	#DEBUG_VALUE: count <- $edx
	.loc	13 90 1 prologue_end    # /usr/lib/x86_64-linux-gnu/openmpi/include/openmpi/ompi/mpi/cxx/status_inln.h:90:1
	addq	$8, %rdi
.Ltmp485:
	movq	8(%rsi), %rsi
.Ltmp486:
	#DEBUG_VALUE: count <- $edx
	#DEBUG_VALUE: Set_elements:count <- $edx
	popq	%rbp
	.cfi_def_cfa %rsp, 8
	jmp	MPI_Status_set_elements # TAILCALL
.Ltmp487:
.Lfunc_end51:
	.size	_ZN3MPI6Status12Set_elementsERKNS_8DatatypeEi, .Lfunc_end51-_ZN3MPI6Status12Set_elementsERKNS_8DatatypeEi
	.cfi_endproc
                                        # -- End function
	.weak	_ZN3MPI6Status13Set_cancelledEb # -- Begin function _ZN3MPI6Status13Set_cancelledEb
	.p2align	4, 0x90
	.type	_ZN3MPI6Status13Set_cancelledEb,@function
_ZN3MPI6Status13Set_cancelledEb:        # @_ZN3MPI6Status13Set_cancelledEb
.Lfunc_begin52:
	.loc	13 102 0                # /usr/lib/x86_64-linux-gnu/openmpi/include/openmpi/ompi/mpi/cxx/status_inln.h:102:0
	.cfi_startproc
# %bb.0:                                # %L.entry
	#DEBUG_VALUE: Set_cancelled: <- $rdi
	#DEBUG_VALUE: Set_cancelled: <- $rdi
	#DEBUG_VALUE: Set_cancelled:flag <- $esi
	#DEBUG_VALUE: Set_cancelled:flag <- $esi
	pushq	%rbp
	.cfi_def_cfa_offset 16
	.cfi_offset %rbp, -16
	movq	%rsp, %rbp
	.cfi_def_cfa_register %rbp
.Ltmp488:
	#DEBUG_VALUE:  <- $rdi
	#DEBUG_VALUE:  <- $rdi
	#DEBUG_VALUE: flag <- $esi
	#DEBUG_VALUE: flag <- $esi
	.loc	13 103 1 prologue_end   # /usr/lib/x86_64-linux-gnu/openmpi/include/openmpi/ompi/mpi/cxx/status_inln.h:103:1
	addq	$8, %rdi
.Ltmp489:
	#DEBUG_VALUE: flag <- $esi
	#DEBUG_VALUE: Set_cancelled:flag <- $esi
	popq	%rbp
	.cfi_def_cfa %rsp, 8
	jmp	MPI_Status_set_cancelled # TAILCALL
.Ltmp490:
.Lfunc_end52:
	.size	_ZN3MPI6Status13Set_cancelledEb, .Lfunc_end52-_ZN3MPI6Status13Set_cancelledEb
	.cfi_endproc
                                        # -- End function
	.weak	_ZN3MPI7RequestD1Ev     # -- Begin function _ZN3MPI7RequestD1Ev
	.p2align	4, 0x90
	.type	_ZN3MPI7RequestD1Ev,@function
_ZN3MPI7RequestD1Ev:                    # @_ZN3MPI7RequestD1Ev
.Lfunc_begin53:
	.file	14 "/usr/lib/x86_64-linux-gnu/openmpi/include/openmpi/ompi/mpi/cxx/request.h"
	.loc	14 61 0                 # /usr/lib/x86_64-linux-gnu/openmpi/include/openmpi/ompi/mpi/cxx/request.h:61:0
	.cfi_startproc
# %bb.0:                                # %L.entry
	#DEBUG_VALUE: ~Request: <- $rdi
	#DEBUG_VALUE: ~Request: <- $rdi
	pushq	%rbp
	.cfi_def_cfa_offset 16
	.cfi_offset %rbp, -16
	movq	%rsp, %rbp
	.cfi_def_cfa_register %rbp
.Ltmp491:
	#DEBUG_VALUE:  <- $rdi
	#DEBUG_VALUE:  <- $rdi
	.loc	14 61 1 prologue_end    # /usr/lib/x86_64-linux-gnu/openmpi/include/openmpi/ompi/mpi/cxx/request.h:61:1
	movq	$_ZTVN3MPI7RequestE+16, (%rdi)
	popq	%rbp
	.cfi_def_cfa %rsp, 8
	retq
.Ltmp492:
.Lfunc_end53:
	.size	_ZN3MPI7RequestD1Ev, .Lfunc_end53-_ZN3MPI7RequestD1Ev
	.cfi_endproc
                                        # -- End function
	.weak	_ZN3MPI7RequestD0Ev     # -- Begin function _ZN3MPI7RequestD0Ev
	.p2align	4, 0x90
	.type	_ZN3MPI7RequestD0Ev,@function
_ZN3MPI7RequestD0Ev:                    # @_ZN3MPI7RequestD0Ev
.Lfunc_begin54:
	.loc	1 0 0                   # projects/projectTriAxisSearch.cpp:0:0
	.cfi_startproc
# %bb.0:                                # %L.entry
	pushq	%rbp
	.cfi_def_cfa_offset 16
	.cfi_offset %rbp, -16
	movq	%rsp, %rbp
	.cfi_def_cfa_register %rbp
.Ltmp493:
	.loc	1 61 1 prologue_end     # projects/projectTriAxisSearch.cpp:61:1
	movl	$16, %esi
	popq	%rbp
	.cfi_def_cfa %rsp, 8
	jmp	_ZdlPvm                 # TAILCALL
.Ltmp494:
.Lfunc_end54:
	.size	_ZN3MPI7RequestD0Ev, .Lfunc_end54-_ZN3MPI7RequestD0Ev
	.cfi_endproc
                                        # -- End function
	.weak	_ZN3MPI7Request4WaitERNS_6StatusE # -- Begin function _ZN3MPI7Request4WaitERNS_6StatusE
	.p2align	4, 0x90
	.type	_ZN3MPI7Request4WaitERNS_6StatusE,@function
_ZN3MPI7Request4WaitERNS_6StatusE:      # @_ZN3MPI7Request4WaitERNS_6StatusE
.Lfunc_begin55:
	.file	15 "/usr/lib/x86_64-linux-gnu/openmpi/include/openmpi/ompi/mpi/cxx/request_inln.h"
	.loc	15 28 0                 # /usr/lib/x86_64-linux-gnu/openmpi/include/openmpi/ompi/mpi/cxx/request_inln.h:28:0
	.cfi_startproc
# %bb.0:                                # %L.entry
	#DEBUG_VALUE: Wait: <- $rdi
	#DEBUG_VALUE: Wait: <- $rdi
	#DEBUG_VALUE: Wait:status <- $rsi
	#DEBUG_VALUE: Wait:status <- $rsi
	pushq	%rbp
	.cfi_def_cfa_offset 16
	.cfi_offset %rbp, -16
	movq	%rsp, %rbp
	.cfi_def_cfa_register %rbp
.Ltmp495:
	#DEBUG_VALUE:  <- $rdi
	#DEBUG_VALUE:  <- $rdi
	#DEBUG_VALUE: status <- $rsi
	#DEBUG_VALUE: status <- $rsi
	.loc	15 29 1 prologue_end    # /usr/lib/x86_64-linux-gnu/openmpi/include/openmpi/ompi/mpi/cxx/request_inln.h:29:1
	addq	$8, %rdi
.Ltmp496:
	addq	$8, %rsi
.Ltmp497:
	popq	%rbp
	.cfi_def_cfa %rsp, 8
	jmp	MPI_Wait                # TAILCALL
.Ltmp498:
.Lfunc_end55:
	.size	_ZN3MPI7Request4WaitERNS_6StatusE, .Lfunc_end55-_ZN3MPI7Request4WaitERNS_6StatusE
	.cfi_endproc
                                        # -- End function
	.weak	_ZN3MPI7Request4WaitEv  # -- Begin function _ZN3MPI7Request4WaitEv
	.p2align	4, 0x90
	.type	_ZN3MPI7Request4WaitEv,@function
_ZN3MPI7Request4WaitEv:                 # @_ZN3MPI7Request4WaitEv
.Lfunc_begin56:
	.loc	15 34 0                 # /usr/lib/x86_64-linux-gnu/openmpi/include/openmpi/ompi/mpi/cxx/request_inln.h:34:0
	.cfi_startproc
# %bb.0:                                # %L.entry
	#DEBUG_VALUE: Wait: <- $rdi
	#DEBUG_VALUE: Wait: <- $rdi
	pushq	%rbp
	.cfi_def_cfa_offset 16
	.cfi_offset %rbp, -16
	movq	%rsp, %rbp
	.cfi_def_cfa_register %rbp
.Ltmp499:
	#DEBUG_VALUE:  <- $rdi
	#DEBUG_VALUE:  <- $rdi
	.loc	15 35 1 prologue_end    # /usr/lib/x86_64-linux-gnu/openmpi/include/openmpi/ompi/mpi/cxx/request_inln.h:35:1
	addq	$8, %rdi
.Ltmp500:
	xorl	%esi, %esi
	popq	%rbp
	.cfi_def_cfa %rsp, 8
	jmp	MPI_Wait                # TAILCALL
.Ltmp501:
.Lfunc_end56:
	.size	_ZN3MPI7Request4WaitEv, .Lfunc_end56-_ZN3MPI7Request4WaitEv
	.cfi_endproc
                                        # -- End function
	.weak	_ZN3MPI7Request4TestERNS_6StatusE # -- Begin function _ZN3MPI7Request4TestERNS_6StatusE
	.p2align	4, 0x90
	.type	_ZN3MPI7Request4TestERNS_6StatusE,@function
_ZN3MPI7Request4TestERNS_6StatusE:      # @_ZN3MPI7Request4TestERNS_6StatusE
.Lfunc_begin57:
	.loc	15 46 0                 # /usr/lib/x86_64-linux-gnu/openmpi/include/openmpi/ompi/mpi/cxx/request_inln.h:46:0
	.cfi_startproc
# %bb.0:                                # %L.entry
	#DEBUG_VALUE: Test: <- $rdi
	#DEBUG_VALUE: Test: <- $rdi
	#DEBUG_VALUE: Test:status <- $rsi
	#DEBUG_VALUE: Test:status <- $rsi
	pushq	%rbp
	.cfi_def_cfa_offset 16
	.cfi_offset %rbp, -16
	movq	%rsp, %rbp
	.cfi_def_cfa_register %rbp
	subq	$16, %rsp
.Ltmp502:
	#DEBUG_VALUE:  <- $rdi
	#DEBUG_VALUE: status <- $rsi
	.loc	15 48 1 prologue_end    # /usr/lib/x86_64-linux-gnu/openmpi/include/openmpi/ompi/mpi/cxx/request_inln.h:48:1
	addq	$8, %rdi
.Ltmp503:
	leaq	8(%rsi), %rdx
.Ltmp504:
	#DEBUG_VALUE: t <- [DW_OP_constu 4, DW_OP_minus, DW_OP_deref] $rbp
	.loc	15 0 1 is_stmt 0        # /usr/lib/x86_64-linux-gnu/openmpi/include/openmpi/ompi/mpi/cxx/request_inln.h:0:1
	leaq	-4(%rbp), %rsi
.Ltmp505:
	.loc	15 48 1                 # /usr/lib/x86_64-linux-gnu/openmpi/include/openmpi/ompi/mpi/cxx/request_inln.h:48:1
	callq	MPI_Test
.Ltmp506:
	#DEBUG_VALUE: t <- undef
	.loc	15 49 1 is_stmt 1       # /usr/lib/x86_64-linux-gnu/openmpi/include/openmpi/ompi/mpi/cxx/request_inln.h:49:1
	cmpl	$0, -4(%rbp)
	setne	%al
	addq	$16, %rsp
	popq	%rbp
	.cfi_def_cfa %rsp, 8
	retq
.Ltmp507:
.Lfunc_end57:
	.size	_ZN3MPI7Request4TestERNS_6StatusE, .Lfunc_end57-_ZN3MPI7Request4TestERNS_6StatusE
	.cfi_endproc
                                        # -- End function
	.weak	_ZN3MPI7Request4TestEv  # -- Begin function _ZN3MPI7Request4TestEv
	.p2align	4, 0x90
	.type	_ZN3MPI7Request4TestEv,@function
_ZN3MPI7Request4TestEv:                 # @_ZN3MPI7Request4TestEv
.Lfunc_begin58:
	.loc	15 54 0                 # /usr/lib/x86_64-linux-gnu/openmpi/include/openmpi/ompi/mpi/cxx/request_inln.h:54:0
	.cfi_startproc
# %bb.0:                                # %L.entry
	#DEBUG_VALUE: Test: <- $rdi
	#DEBUG_VALUE: Test: <- $rdi
	pushq	%rbp
	.cfi_def_cfa_offset 16
	.cfi_offset %rbp, -16
	movq	%rsp, %rbp
	.cfi_def_cfa_register %rbp
	subq	$16, %rsp
.Ltmp508:
	#DEBUG_VALUE:  <- $rdi
	.loc	15 56 1 prologue_end    # /usr/lib/x86_64-linux-gnu/openmpi/include/openmpi/ompi/mpi/cxx/request_inln.h:56:1
	addq	$8, %rdi
.Ltmp509:
	#DEBUG_VALUE: t <- [DW_OP_constu 4, DW_OP_minus, DW_OP_deref] $rbp
	.loc	15 0 1 is_stmt 0        # /usr/lib/x86_64-linux-gnu/openmpi/include/openmpi/ompi/mpi/cxx/request_inln.h:0:1
	leaq	-4(%rbp), %rsi
	.loc	15 56 1                 # /usr/lib/x86_64-linux-gnu/openmpi/include/openmpi/ompi/mpi/cxx/request_inln.h:56:1
	xorl	%edx, %edx
	callq	MPI_Test
.Ltmp510:
	#DEBUG_VALUE: t <- undef
	.loc	15 57 1 is_stmt 1       # /usr/lib/x86_64-linux-gnu/openmpi/include/openmpi/ompi/mpi/cxx/request_inln.h:57:1
	cmpl	$0, -4(%rbp)
	setne	%al
	addq	$16, %rsp
	popq	%rbp
	.cfi_def_cfa %rsp, 8
	retq
.Ltmp511:
.Lfunc_end58:
	.size	_ZN3MPI7Request4TestEv, .Lfunc_end58-_ZN3MPI7Request4TestEv
	.cfi_endproc
                                        # -- End function
	.weak	_ZN3MPI7Request4FreeEv  # -- Begin function _ZN3MPI7Request4FreeEv
	.p2align	4, 0x90
	.type	_ZN3MPI7Request4FreeEv,@function
_ZN3MPI7Request4FreeEv:                 # @_ZN3MPI7Request4FreeEv
.Lfunc_begin59:
	.loc	15 40 0                 # /usr/lib/x86_64-linux-gnu/openmpi/include/openmpi/ompi/mpi/cxx/request_inln.h:40:0
	.cfi_startproc
# %bb.0:                                # %L.entry
	#DEBUG_VALUE: Free: <- $rdi
	#DEBUG_VALUE: Free: <- $rdi
	pushq	%rbp
	.cfi_def_cfa_offset 16
	.cfi_offset %rbp, -16
	movq	%rsp, %rbp
	.cfi_def_cfa_register %rbp
.Ltmp512:
	#DEBUG_VALUE:  <- $rdi
	#DEBUG_VALUE:  <- $rdi
	.loc	15 41 1 prologue_end    # /usr/lib/x86_64-linux-gnu/openmpi/include/openmpi/ompi/mpi/cxx/request_inln.h:41:1
	addq	$8, %rdi
.Ltmp513:
	popq	%rbp
	.cfi_def_cfa %rsp, 8
	jmp	MPI_Request_free        # TAILCALL
.Ltmp514:
.Lfunc_end59:
	.size	_ZN3MPI7Request4FreeEv, .Lfunc_end59-_ZN3MPI7Request4FreeEv
	.cfi_endproc
                                        # -- End function
	.weak	_ZNK3MPI7Request6CancelEv # -- Begin function _ZNK3MPI7Request6CancelEv
	.p2align	4, 0x90
	.type	_ZNK3MPI7Request6CancelEv,@function
_ZNK3MPI7Request6CancelEv:              # @_ZNK3MPI7Request6CancelEv
.Lfunc_begin60:
	.loc	15 289 0                # /usr/lib/x86_64-linux-gnu/openmpi/include/openmpi/ompi/mpi/cxx/request_inln.h:289:0
	.cfi_startproc
# %bb.0:                                # %L.entry
	#DEBUG_VALUE: Cancel: <- $rdi
	#DEBUG_VALUE: Cancel: <- $rdi
	pushq	%rbp
	.cfi_def_cfa_offset 16
	.cfi_offset %rbp, -16
	movq	%rsp, %rbp
	.cfi_def_cfa_register %rbp
.Ltmp515:
	#DEBUG_VALUE:  <- $rdi
	#DEBUG_VALUE:  <- $rdi
	.loc	15 290 1 prologue_end   # /usr/lib/x86_64-linux-gnu/openmpi/include/openmpi/ompi/mpi/cxx/request_inln.h:290:1
	addq	$8, %rdi
.Ltmp516:
	popq	%rbp
	.cfi_def_cfa %rsp, 8
	jmp	MPI_Cancel              # TAILCALL
.Ltmp517:
.Lfunc_end60:
	.size	_ZNK3MPI7Request6CancelEv, .Lfunc_end60-_ZNK3MPI7Request6CancelEv
	.cfi_endproc
                                        # -- End function
	.weak	_ZNK3MPI7Request10Get_statusERNS_6StatusE # -- Begin function _ZNK3MPI7Request10Get_statusERNS_6StatusE
	.p2align	4, 0x90
	.type	_ZNK3MPI7Request10Get_statusERNS_6StatusE,@function
_ZNK3MPI7Request10Get_statusERNS_6StatusE: # @_ZNK3MPI7Request10Get_statusERNS_6StatusE
.Lfunc_begin61:
	.loc	15 316 0                # /usr/lib/x86_64-linux-gnu/openmpi/include/openmpi/ompi/mpi/cxx/request_inln.h:316:0
	.cfi_startproc
# %bb.0:                                # %L.entry
	#DEBUG_VALUE: Get_status: <- $rdi
	#DEBUG_VALUE: Get_status:status <- $rsi
	pushq	%rbp
	.cfi_def_cfa_offset 16
	.cfi_offset %rbp, -16
	movq	%rsp, %rbp
	.cfi_def_cfa_register %rbp
	pushq	%rbx
	subq	$40, %rsp
	.cfi_offset %rbx, -24
	movq	%rsi, %rbx
.Ltmp518:
	#DEBUG_VALUE: flag <- 0
	#DEBUG_VALUE: status <- undef
	#DEBUG_VALUE:  <- $rdi
	#DEBUG_VALUE: Get_status:status <- $rbx
	#DEBUG_VALUE: Get_status: <- $rdi
	.loc	15 317 1 prologue_end   # /usr/lib/x86_64-linux-gnu/openmpi/include/openmpi/ompi/mpi/cxx/request_inln.h:317:1
	movl	$0, -12(%rbp)
	.loc	15 323 1                # /usr/lib/x86_64-linux-gnu/openmpi/include/openmpi/ompi/mpi/cxx/request_inln.h:323:1
	movq	8(%rdi), %rdi
.Ltmp519:
	#DEBUG_VALUE: flag <- [DW_OP_constu 12, DW_OP_minus, DW_OP_deref] $rbp
	.loc	15 0 1 is_stmt 0        # /usr/lib/x86_64-linux-gnu/openmpi/include/openmpi/ompi/mpi/cxx/request_inln.h:0:1
	leaq	-12(%rbp), %rsi
	leaq	-48(%rbp), %rdx
	.loc	15 323 1                # /usr/lib/x86_64-linux-gnu/openmpi/include/openmpi/ompi/mpi/cxx/request_inln.h:323:1
	callq	MPI_Request_get_status
	.loc	15 324 1 is_stmt 1      # /usr/lib/x86_64-linux-gnu/openmpi/include/openmpi/ompi/mpi/cxx/request_inln.h:324:1
	movl	-12(%rbp), %eax
.Ltmp520:
	#DEBUG_VALUE: flag <- $eax
	testl	%eax, %eax
	je	.LBB61_2
.Ltmp521:
# %bb.1:                                # %L.B3448
	#DEBUG_VALUE: flag <- $eax
	#DEBUG_VALUE: Get_status:status <- $rbx
	.loc	15 325 1                # /usr/lib/x86_64-linux-gnu/openmpi/include/openmpi/ompi/mpi/cxx/request_inln.h:325:1
	vmovaps	-48(%rbp), %xmm0
	vmovups	%xmm0, 8(%rbx)
	movq	-32(%rbp), %rcx
	movq	%rcx, 24(%rbx)
.Ltmp522:
.LBB61_2:                               # %L.B0195
	#DEBUG_VALUE: flag <- $eax
	#DEBUG_VALUE: Get_status:status <- $rbx
	#DEBUG_VALUE: flag <- $eax
	.loc	15 327 1                # /usr/lib/x86_64-linux-gnu/openmpi/include/openmpi/ompi/mpi/cxx/request_inln.h:327:1
	testl	%eax, %eax
	setne	%al
.Ltmp523:
	addq	$40, %rsp
	popq	%rbx
.Ltmp524:
	popq	%rbp
	.cfi_def_cfa %rsp, 8
	retq
.Ltmp525:
.Lfunc_end61:
	.size	_ZNK3MPI7Request10Get_statusERNS_6StatusE, .Lfunc_end61-_ZNK3MPI7Request10Get_statusERNS_6StatusE
	.cfi_endproc
                                        # -- End function
	.weak	_ZNK3MPI7Request10Get_statusEv # -- Begin function _ZNK3MPI7Request10Get_statusEv
	.p2align	4, 0x90
	.type	_ZNK3MPI7Request10Get_statusEv,@function
_ZNK3MPI7Request10Get_statusEv:         # @_ZNK3MPI7Request10Get_statusEv
.Lfunc_begin62:
	.loc	15 331 0                # /usr/lib/x86_64-linux-gnu/openmpi/include/openmpi/ompi/mpi/cxx/request_inln.h:331:0
	.cfi_startproc
# %bb.0:                                # %L.entry
	#DEBUG_VALUE: Get_status: <- $rdi
	#DEBUG_VALUE: Get_status: <- $rdi
	pushq	%rbp
	.cfi_def_cfa_offset 16
	.cfi_offset %rbp, -16
	movq	%rsp, %rbp
	.cfi_def_cfa_register %rbp
	subq	$16, %rsp
.Ltmp526:
	#DEBUG_VALUE:  <- $rdi
	.loc	15 337 1 prologue_end   # /usr/lib/x86_64-linux-gnu/openmpi/include/openmpi/ompi/mpi/cxx/request_inln.h:337:1
	movq	8(%rdi), %rdi
.Ltmp527:
	#DEBUG_VALUE: flag <- [DW_OP_constu 4, DW_OP_minus, DW_OP_deref] $rbp
	.loc	15 0 1 is_stmt 0        # /usr/lib/x86_64-linux-gnu/openmpi/include/openmpi/ompi/mpi/cxx/request_inln.h:0:1
	leaq	-4(%rbp), %rsi
	.loc	15 337 1                # /usr/lib/x86_64-linux-gnu/openmpi/include/openmpi/ompi/mpi/cxx/request_inln.h:337:1
	xorl	%edx, %edx
	callq	MPI_Request_get_status
.Ltmp528:
	#DEBUG_VALUE: flag <- undef
	.loc	15 338 1 is_stmt 1      # /usr/lib/x86_64-linux-gnu/openmpi/include/openmpi/ompi/mpi/cxx/request_inln.h:338:1
	cmpl	$0, -4(%rbp)
	setne	%al
	addq	$16, %rsp
	popq	%rbp
	.cfi_def_cfa %rsp, 8
	retq
.Ltmp529:
.Lfunc_end62:
	.size	_ZNK3MPI7Request10Get_statusEv, .Lfunc_end62-_ZNK3MPI7Request10Get_statusEv
	.cfi_endproc
                                        # -- End function
	.weak	_ZN3MPI8PrequestD1Ev    # -- Begin function _ZN3MPI8PrequestD1Ev
	.p2align	4, 0x90
	.type	_ZN3MPI8PrequestD1Ev,@function
_ZN3MPI8PrequestD1Ev:                   # @_ZN3MPI8PrequestD1Ev
.Lfunc_begin63:
	.loc	14 177 0                # /usr/lib/x86_64-linux-gnu/openmpi/include/openmpi/ompi/mpi/cxx/request.h:177:0
	.cfi_startproc
# %bb.0:                                # %L.entry
	#DEBUG_VALUE: ~Prequest: <- $rdi
	#DEBUG_VALUE: ~Prequest: <- $rdi
	pushq	%rbp
	.cfi_def_cfa_offset 16
	.cfi_offset %rbp, -16
	movq	%rsp, %rbp
	.cfi_def_cfa_register %rbp
.Ltmp530:
	#DEBUG_VALUE:  <- $rdi
	#DEBUG_VALUE:  <- $rdi
	.loc	14 177 1 prologue_end   # /usr/lib/x86_64-linux-gnu/openmpi/include/openmpi/ompi/mpi/cxx/request.h:177:1
	movq	$_ZTVN3MPI7RequestE+16, (%rdi)
	popq	%rbp
	.cfi_def_cfa %rsp, 8
	retq
.Ltmp531:
.Lfunc_end63:
	.size	_ZN3MPI8PrequestD1Ev, .Lfunc_end63-_ZN3MPI8PrequestD1Ev
	.cfi_endproc
                                        # -- End function
	.weak	_ZN3MPI8PrequestD0Ev    # -- Begin function _ZN3MPI8PrequestD0Ev
	.p2align	4, 0x90
	.type	_ZN3MPI8PrequestD0Ev,@function
_ZN3MPI8PrequestD0Ev:                   # @_ZN3MPI8PrequestD0Ev
.Lfunc_begin64:
	.loc	1 0 0                   # projects/projectTriAxisSearch.cpp:0:0
	.cfi_startproc
# %bb.0:                                # %L.entry
	pushq	%rbp
	.cfi_def_cfa_offset 16
	.cfi_offset %rbp, -16
	movq	%rsp, %rbp
	.cfi_def_cfa_register %rbp
.Ltmp532:
	.loc	1 177 1 prologue_end    # projects/projectTriAxisSearch.cpp:177:1
	movl	$16, %esi
	popq	%rbp
	.cfi_def_cfa %rsp, 8
	jmp	_ZdlPvm                 # TAILCALL
.Ltmp533:
.Lfunc_end64:
	.size	_ZN3MPI8PrequestD0Ev, .Lfunc_end64-_ZN3MPI8PrequestD0Ev
	.cfi_endproc
                                        # -- End function
	.weak	_ZN3MPI8Prequest5StartEv # -- Begin function _ZN3MPI8Prequest5StartEv
	.p2align	4, 0x90
	.type	_ZN3MPI8Prequest5StartEv,@function
_ZN3MPI8Prequest5StartEv:               # @_ZN3MPI8Prequest5StartEv
.Lfunc_begin65:
	.loc	15 295 0                # /usr/lib/x86_64-linux-gnu/openmpi/include/openmpi/ompi/mpi/cxx/request_inln.h:295:0
	.cfi_startproc
# %bb.0:                                # %L.entry
	#DEBUG_VALUE: Start: <- $rdi
	#DEBUG_VALUE: Start: <- $rdi
	pushq	%rbp
	.cfi_def_cfa_offset 16
	.cfi_offset %rbp, -16
	movq	%rsp, %rbp
	.cfi_def_cfa_register %rbp
.Ltmp534:
	#DEBUG_VALUE:  <- $rdi
	#DEBUG_VALUE:  <- $rdi
	.loc	15 296 1 prologue_end   # /usr/lib/x86_64-linux-gnu/openmpi/include/openmpi/ompi/mpi/cxx/request_inln.h:296:1
	addq	$8, %rdi
.Ltmp535:
	popq	%rbp
	.cfi_def_cfa %rsp, 8
	jmp	MPI_Start               # TAILCALL
.Ltmp536:
.Lfunc_end65:
	.size	_ZN3MPI8Prequest5StartEv, .Lfunc_end65-_ZN3MPI8Prequest5StartEv
	.cfi_endproc
                                        # -- End function
	.weak	_ZN3MPI8GrequestD1Ev    # -- Begin function _ZN3MPI8GrequestD1Ev
	.p2align	4, 0x90
	.type	_ZN3MPI8GrequestD1Ev,@function
_ZN3MPI8GrequestD1Ev:                   # @_ZN3MPI8GrequestD1Ev
.Lfunc_begin66:
	.loc	14 209 0                # /usr/lib/x86_64-linux-gnu/openmpi/include/openmpi/ompi/mpi/cxx/request.h:209:0
	.cfi_startproc
# %bb.0:                                # %L.entry
	#DEBUG_VALUE: ~Grequest: <- $rdi
	#DEBUG_VALUE: ~Grequest: <- $rdi
	pushq	%rbp
	.cfi_def_cfa_offset 16
	.cfi_offset %rbp, -16
	movq	%rsp, %rbp
	.cfi_def_cfa_register %rbp
.Ltmp537:
	#DEBUG_VALUE:  <- $rdi
	#DEBUG_VALUE:  <- $rdi
	.loc	14 209 1 prologue_end   # /usr/lib/x86_64-linux-gnu/openmpi/include/openmpi/ompi/mpi/cxx/request.h:209:1
	movq	$_ZTVN3MPI7RequestE+16, (%rdi)
	popq	%rbp
	.cfi_def_cfa %rsp, 8
	retq
.Ltmp538:
.Lfunc_end66:
	.size	_ZN3MPI8GrequestD1Ev, .Lfunc_end66-_ZN3MPI8GrequestD1Ev
	.cfi_endproc
                                        # -- End function
	.weak	_ZN3MPI8GrequestD0Ev    # -- Begin function _ZN3MPI8GrequestD0Ev
	.p2align	4, 0x90
	.type	_ZN3MPI8GrequestD0Ev,@function
_ZN3MPI8GrequestD0Ev:                   # @_ZN3MPI8GrequestD0Ev
.Lfunc_begin67:
	.loc	1 0 0                   # projects/projectTriAxisSearch.cpp:0:0
	.cfi_startproc
# %bb.0:                                # %L.entry
	pushq	%rbp
	.cfi_def_cfa_offset 16
	.cfi_offset %rbp, -16
	movq	%rsp, %rbp
	.cfi_def_cfa_register %rbp
.Ltmp539:
	.loc	1 209 1 prologue_end    # projects/projectTriAxisSearch.cpp:209:1
	movl	$16, %esi
	popq	%rbp
	.cfi_def_cfa %rsp, 8
	jmp	_ZdlPvm                 # TAILCALL
.Ltmp540:
.Lfunc_end67:
	.size	_ZN3MPI8GrequestD0Ev, .Lfunc_end67-_ZN3MPI8GrequestD0Ev
	.cfi_endproc
                                        # -- End function
	.weak	_ZN3MPI8Grequest8CompleteEv # -- Begin function _ZN3MPI8Grequest8CompleteEv
	.p2align	4, 0x90
	.type	_ZN3MPI8Grequest8CompleteEv,@function
_ZN3MPI8Grequest8CompleteEv:            # @_ZN3MPI8Grequest8CompleteEv
.Lfunc_begin68:
	.loc	15 363 0                # /usr/lib/x86_64-linux-gnu/openmpi/include/openmpi/ompi/mpi/cxx/request_inln.h:363:0
	.cfi_startproc
# %bb.0:                                # %L.entry
	#DEBUG_VALUE: Complete: <- $rdi
	#DEBUG_VALUE: Complete: <- $rdi
	pushq	%rbp
	.cfi_def_cfa_offset 16
	.cfi_offset %rbp, -16
	movq	%rsp, %rbp
	.cfi_def_cfa_register %rbp
.Ltmp541:
	#DEBUG_VALUE:  <- $rdi
	#DEBUG_VALUE:  <- $rdi
	.loc	15 364 1 prologue_end   # /usr/lib/x86_64-linux-gnu/openmpi/include/openmpi/ompi/mpi/cxx/request_inln.h:364:1
	movq	8(%rdi), %rdi
.Ltmp542:
	popq	%rbp
	.cfi_def_cfa %rsp, 8
	jmp	MPI_Grequest_complete   # TAILCALL
.Ltmp543:
.Lfunc_end68:
	.size	_ZN3MPI8Grequest8CompleteEv, .Lfunc_end68-_ZN3MPI8Grequest8CompleteEv
	.cfi_endproc
                                        # -- End function
	.weak	_ZN3MPI5GroupD1Ev       # -- Begin function _ZN3MPI5GroupD1Ev
	.p2align	4, 0x90
	.type	_ZN3MPI5GroupD1Ev,@function
_ZN3MPI5GroupD1Ev:                      # @_ZN3MPI5GroupD1Ev
.Lfunc_begin69:
	.file	16 "/usr/lib/x86_64-linux-gnu/openmpi/include/openmpi/ompi/mpi/cxx/group.h"
	.loc	16 67 0                 # /usr/lib/x86_64-linux-gnu/openmpi/include/openmpi/ompi/mpi/cxx/group.h:67:0
	.cfi_startproc
# %bb.0:                                # %L.entry
	#DEBUG_VALUE: ~Group: <- $rdi
	#DEBUG_VALUE: ~Group: <- $rdi
	pushq	%rbp
	.cfi_def_cfa_offset 16
	.cfi_offset %rbp, -16
	movq	%rsp, %rbp
	.cfi_def_cfa_register %rbp
.Ltmp544:
	#DEBUG_VALUE:  <- $rdi
	#DEBUG_VALUE:  <- $rdi
	.loc	16 67 1 prologue_end    # /usr/lib/x86_64-linux-gnu/openmpi/include/openmpi/ompi/mpi/cxx/group.h:67:1
	movq	$_ZTVN3MPI5GroupE+16, (%rdi)
	popq	%rbp
	.cfi_def_cfa %rsp, 8
	retq
.Ltmp545:
.Lfunc_end69:
	.size	_ZN3MPI5GroupD1Ev, .Lfunc_end69-_ZN3MPI5GroupD1Ev
	.cfi_endproc
                                        # -- End function
	.weak	_ZN3MPI5GroupD0Ev       # -- Begin function _ZN3MPI5GroupD0Ev
	.p2align	4, 0x90
	.type	_ZN3MPI5GroupD0Ev,@function
_ZN3MPI5GroupD0Ev:                      # @_ZN3MPI5GroupD0Ev
.Lfunc_begin70:
	.loc	1 0 0                   # projects/projectTriAxisSearch.cpp:0:0
	.cfi_startproc
# %bb.0:                                # %L.entry
	pushq	%rbp
	.cfi_def_cfa_offset 16
	.cfi_offset %rbp, -16
	movq	%rsp, %rbp
	.cfi_def_cfa_register %rbp
.Ltmp546:
	.loc	1 67 1 prologue_end     # projects/projectTriAxisSearch.cpp:67:1
	movl	$16, %esi
	popq	%rbp
	.cfi_def_cfa %rsp, 8
	jmp	_ZdlPvm                 # TAILCALL
.Ltmp547:
.Lfunc_end70:
	.size	_ZN3MPI5GroupD0Ev, .Lfunc_end70-_ZN3MPI5GroupD0Ev
	.cfi_endproc
                                        # -- End function
	.weak	_ZNK3MPI5Group8Get_sizeEv # -- Begin function _ZNK3MPI5Group8Get_sizeEv
	.p2align	4, 0x90
	.type	_ZNK3MPI5Group8Get_sizeEv,@function
_ZNK3MPI5Group8Get_sizeEv:              # @_ZNK3MPI5Group8Get_sizeEv
.Lfunc_begin71:
	.file	17 "/usr/lib/x86_64-linux-gnu/openmpi/include/openmpi/ompi/mpi/cxx/group_inln.h"
	.loc	17 27 0                 # /usr/lib/x86_64-linux-gnu/openmpi/include/openmpi/ompi/mpi/cxx/group_inln.h:27:0
	.cfi_startproc
# %bb.0:                                # %L.entry
	#DEBUG_VALUE: Get_size: <- $rdi
	#DEBUG_VALUE: Get_size: <- $rdi
	pushq	%rbp
	.cfi_def_cfa_offset 16
	.cfi_offset %rbp, -16
	movq	%rsp, %rbp
	.cfi_def_cfa_register %rbp
	subq	$16, %rsp
.Ltmp548:
	#DEBUG_VALUE:  <- $rdi
	.loc	17 29 1 prologue_end    # /usr/lib/x86_64-linux-gnu/openmpi/include/openmpi/ompi/mpi/cxx/group_inln.h:29:1
	movq	8(%rdi), %rdi
.Ltmp549:
	#DEBUG_VALUE: size <- [DW_OP_constu 4, DW_OP_minus, DW_OP_deref] $rbp
	.loc	17 0 1 is_stmt 0        # /usr/lib/x86_64-linux-gnu/openmpi/include/openmpi/ompi/mpi/cxx/group_inln.h:0:1
	leaq	-4(%rbp), %rsi
	.loc	17 29 1                 # /usr/lib/x86_64-linux-gnu/openmpi/include/openmpi/ompi/mpi/cxx/group_inln.h:29:1
	callq	MPI_Group_size
	.loc	17 30 1 is_stmt 1       # /usr/lib/x86_64-linux-gnu/openmpi/include/openmpi/ompi/mpi/cxx/group_inln.h:30:1
	movl	-4(%rbp), %eax
.Ltmp550:
	#DEBUG_VALUE: size <- $eax
	addq	$16, %rsp
	popq	%rbp
	.cfi_def_cfa %rsp, 8
	retq
.Ltmp551:
.Lfunc_end71:
	.size	_ZNK3MPI5Group8Get_sizeEv, .Lfunc_end71-_ZNK3MPI5Group8Get_sizeEv
	.cfi_endproc
                                        # -- End function
	.weak	_ZNK3MPI5Group8Get_rankEv # -- Begin function _ZNK3MPI5Group8Get_rankEv
	.p2align	4, 0x90
	.type	_ZNK3MPI5Group8Get_rankEv,@function
_ZNK3MPI5Group8Get_rankEv:              # @_ZNK3MPI5Group8Get_rankEv
.Lfunc_begin72:
	.loc	17 35 0                 # /usr/lib/x86_64-linux-gnu/openmpi/include/openmpi/ompi/mpi/cxx/group_inln.h:35:0
	.cfi_startproc
# %bb.0:                                # %L.entry
	#DEBUG_VALUE: Get_rank: <- $rdi
	#DEBUG_VALUE: Get_rank: <- $rdi
	pushq	%rbp
	.cfi_def_cfa_offset 16
	.cfi_offset %rbp, -16
	movq	%rsp, %rbp
	.cfi_def_cfa_register %rbp
	subq	$16, %rsp
.Ltmp552:
	#DEBUG_VALUE:  <- $rdi
	.loc	17 37 1 prologue_end    # /usr/lib/x86_64-linux-gnu/openmpi/include/openmpi/ompi/mpi/cxx/group_inln.h:37:1
	movq	8(%rdi), %rdi
.Ltmp553:
	#DEBUG_VALUE: myrank <- [DW_OP_constu 4, DW_OP_minus, DW_OP_deref] $rbp
	.loc	17 0 1 is_stmt 0        # /usr/lib/x86_64-linux-gnu/openmpi/include/openmpi/ompi/mpi/cxx/group_inln.h:0:1
	leaq	-4(%rbp), %rsi
	.loc	17 37 1                 # /usr/lib/x86_64-linux-gnu/openmpi/include/openmpi/ompi/mpi/cxx/group_inln.h:37:1
	callq	MPI_Group_rank
	.loc	17 38 1 is_stmt 1       # /usr/lib/x86_64-linux-gnu/openmpi/include/openmpi/ompi/mpi/cxx/group_inln.h:38:1
	movl	-4(%rbp), %eax
.Ltmp554:
	#DEBUG_VALUE: myrank <- $eax
	addq	$16, %rsp
	popq	%rbp
	.cfi_def_cfa %rsp, 8
	retq
.Ltmp555:
.Lfunc_end72:
	.size	_ZNK3MPI5Group8Get_rankEv, .Lfunc_end72-_ZNK3MPI5Group8Get_rankEv
	.cfi_endproc
                                        # -- End function
	.weak	_ZNK3MPI5Group4InclEiPKi # -- Begin function _ZNK3MPI5Group4InclEiPKi
	.p2align	4, 0x90
	.type	_ZNK3MPI5Group4InclEiPKi,@function
_ZNK3MPI5Group4InclEiPKi:               # @_ZNK3MPI5Group4InclEiPKi
.Lfunc_begin73:
	.loc	17 83 0                 # /usr/lib/x86_64-linux-gnu/openmpi/include/openmpi/ompi/mpi/cxx/group_inln.h:83:0
	.cfi_startproc
# %bb.0:                                # %L.entry
	#DEBUG_VALUE: Incl: <- $rsi
	#DEBUG_VALUE: Incl:n <- $edx
	#DEBUG_VALUE: Incl:ranks <- $rcx
	pushq	%rbp
	.cfi_def_cfa_offset 16
	.cfi_offset %rbp, -16
	movq	%rsp, %rbp
	.cfi_def_cfa_register %rbp
	pushq	%rbx
	pushq	%rax
	.cfi_offset %rbx, -24
	movq	%rdi, %rbx
.Ltmp556:
	#DEBUG_VALUE:  <- $rsi
	#DEBUG_VALUE: ranks <- $rcx
	#DEBUG_VALUE: n <- $edx
	#DEBUG_VALUE: Incl:ranks <- $rcx
	#DEBUG_VALUE: Incl:n <- $edx
	#DEBUG_VALUE: Incl: <- $rsi
	.loc	17 85 1 prologue_end    # /usr/lib/x86_64-linux-gnu/openmpi/include/openmpi/ompi/mpi/cxx/group_inln.h:85:1
	movq	8(%rsi), %rdi
.Ltmp557:
	#DEBUG_VALUE: newgroup <- [DW_OP_constu 16, DW_OP_minus, DW_OP_deref] $rbp
	.loc	17 0 1 is_stmt 0        # /usr/lib/x86_64-linux-gnu/openmpi/include/openmpi/ompi/mpi/cxx/group_inln.h:0:1
	leaq	-16(%rbp), %rax
	.loc	17 85 1                 # /usr/lib/x86_64-linux-gnu/openmpi/include/openmpi/ompi/mpi/cxx/group_inln.h:85:1
	movl	%edx, %esi
.Ltmp558:
	#DEBUG_VALUE: Incl:n <- $esi
	movq	%rcx, %rdx
.Ltmp559:
	#DEBUG_VALUE: Incl:ranks <- $rdx
	movq	%rax, %rcx
.Ltmp560:
	callq	MPI_Group_incl
.Ltmp561:
	.loc	17 86 1 is_stmt 1       # /usr/lib/x86_64-linux-gnu/openmpi/include/openmpi/ompi/mpi/cxx/group_inln.h:86:1
	movq	-16(%rbp), %rax
.Ltmp562:
	#DEBUG_VALUE: newgroup <- undef
	movq	$_ZTVN3MPI5GroupE+16, (%rbx)
	.loc	17 62 1                 # /usr/lib/x86_64-linux-gnu/openmpi/include/openmpi/ompi/mpi/cxx/group_inln.h:62:1
	movq	%rax, 8(%rbx)
	.loc	17 87 1                 # /usr/lib/x86_64-linux-gnu/openmpi/include/openmpi/ompi/mpi/cxx/group_inln.h:87:1
	movq	%rbx, %rax
	addq	$8, %rsp
	popq	%rbx
	popq	%rbp
	.cfi_def_cfa %rsp, 8
	retq
.Ltmp563:
.Lfunc_end73:
	.size	_ZNK3MPI5Group4InclEiPKi, .Lfunc_end73-_ZNK3MPI5Group4InclEiPKi
	.cfi_endproc
                                        # -- End function
	.weak	_ZNK3MPI5Group4ExclEiPKi # -- Begin function _ZNK3MPI5Group4ExclEiPKi
	.p2align	4, 0x90
	.type	_ZNK3MPI5Group4ExclEiPKi,@function
_ZNK3MPI5Group4ExclEiPKi:               # @_ZNK3MPI5Group4ExclEiPKi
.Lfunc_begin74:
	.loc	17 91 0                 # /usr/lib/x86_64-linux-gnu/openmpi/include/openmpi/ompi/mpi/cxx/group_inln.h:91:0
	.cfi_startproc
# %bb.0:                                # %L.entry
	#DEBUG_VALUE: Excl: <- $rsi
	#DEBUG_VALUE: Excl:n <- $edx
	#DEBUG_VALUE: Excl:ranks <- $rcx
	pushq	%rbp
	.cfi_def_cfa_offset 16
	.cfi_offset %rbp, -16
	movq	%rsp, %rbp
	.cfi_def_cfa_register %rbp
	pushq	%rbx
	pushq	%rax
	.cfi_offset %rbx, -24
	movq	%rdi, %rbx
.Ltmp564:
	#DEBUG_VALUE:  <- $rsi
	#DEBUG_VALUE: ranks <- $rcx
	#DEBUG_VALUE: n <- $edx
	#DEBUG_VALUE: Excl:ranks <- $rcx
	#DEBUG_VALUE: Excl:n <- $edx
	#DEBUG_VALUE: Excl: <- $rsi
	.loc	17 93 1 prologue_end    # /usr/lib/x86_64-linux-gnu/openmpi/include/openmpi/ompi/mpi/cxx/group_inln.h:93:1
	movq	8(%rsi), %rdi
.Ltmp565:
	#DEBUG_VALUE: newgroup <- [DW_OP_constu 16, DW_OP_minus, DW_OP_deref] $rbp
	.loc	17 0 1 is_stmt 0        # /usr/lib/x86_64-linux-gnu/openmpi/include/openmpi/ompi/mpi/cxx/group_inln.h:0:1
	leaq	-16(%rbp), %rax
	.loc	17 93 1                 # /usr/lib/x86_64-linux-gnu/openmpi/include/openmpi/ompi/mpi/cxx/group_inln.h:93:1
	movl	%edx, %esi
.Ltmp566:
	#DEBUG_VALUE: Excl:n <- $esi
	movq	%rcx, %rdx
.Ltmp567:
	#DEBUG_VALUE: Excl:ranks <- $rdx
	movq	%rax, %rcx
.Ltmp568:
	callq	MPI_Group_excl
.Ltmp569:
	.loc	17 94 1 is_stmt 1       # /usr/lib/x86_64-linux-gnu/openmpi/include/openmpi/ompi/mpi/cxx/group_inln.h:94:1
	movq	-16(%rbp), %rax
.Ltmp570:
	#DEBUG_VALUE: newgroup <- undef
	movq	$_ZTVN3MPI5GroupE+16, (%rbx)
	.loc	17 62 1                 # /usr/lib/x86_64-linux-gnu/openmpi/include/openmpi/ompi/mpi/cxx/group_inln.h:62:1
	movq	%rax, 8(%rbx)
	.loc	17 95 1                 # /usr/lib/x86_64-linux-gnu/openmpi/include/openmpi/ompi/mpi/cxx/group_inln.h:95:1
	movq	%rbx, %rax
	addq	$8, %rsp
	popq	%rbx
	popq	%rbp
	.cfi_def_cfa %rsp, 8
	retq
.Ltmp571:
.Lfunc_end74:
	.size	_ZNK3MPI5Group4ExclEiPKi, .Lfunc_end74-_ZNK3MPI5Group4ExclEiPKi
	.cfi_endproc
                                        # -- End function
	.weak	_ZNK3MPI5Group10Range_inclEiPA3_Ki # -- Begin function _ZNK3MPI5Group10Range_inclEiPA3_Ki
	.p2align	4, 0x90
	.type	_ZNK3MPI5Group10Range_inclEiPA3_Ki,@function
_ZNK3MPI5Group10Range_inclEiPA3_Ki:     # @_ZNK3MPI5Group10Range_inclEiPA3_Ki
.Lfunc_begin75:
	.loc	17 99 0                 # /usr/lib/x86_64-linux-gnu/openmpi/include/openmpi/ompi/mpi/cxx/group_inln.h:99:0
	.cfi_startproc
# %bb.0:                                # %L.entry
	#DEBUG_VALUE: Range_incl: <- $rsi
	#DEBUG_VALUE: Range_incl:n <- $edx
	#DEBUG_VALUE: Range_incl:ranges <- $rcx
	pushq	%rbp
	.cfi_def_cfa_offset 16
	.cfi_offset %rbp, -16
	movq	%rsp, %rbp
	.cfi_def_cfa_register %rbp
	pushq	%rbx
	pushq	%rax
	.cfi_offset %rbx, -24
	movq	%rdi, %rbx
.Ltmp572:
	#DEBUG_VALUE:  <- $rsi
	#DEBUG_VALUE: ranges <- $rcx
	#DEBUG_VALUE: n <- $edx
	#DEBUG_VALUE: Range_incl:ranges <- $rcx
	#DEBUG_VALUE: Range_incl:n <- $edx
	#DEBUG_VALUE: Range_incl: <- $rsi
	.loc	17 101 1 prologue_end   # /usr/lib/x86_64-linux-gnu/openmpi/include/openmpi/ompi/mpi/cxx/group_inln.h:101:1
	movq	8(%rsi), %rdi
.Ltmp573:
	#DEBUG_VALUE: newgroup <- [DW_OP_constu 16, DW_OP_minus, DW_OP_deref] $rbp
	.loc	17 0 1 is_stmt 0        # /usr/lib/x86_64-linux-gnu/openmpi/include/openmpi/ompi/mpi/cxx/group_inln.h:0:1
	leaq	-16(%rbp), %rax
	.loc	17 101 1                # /usr/lib/x86_64-linux-gnu/openmpi/include/openmpi/ompi/mpi/cxx/group_inln.h:101:1
	movl	%edx, %esi
.Ltmp574:
	#DEBUG_VALUE: Range_incl:n <- $esi
	movq	%rcx, %rdx
.Ltmp575:
	#DEBUG_VALUE: Range_incl:ranges <- $rdx
	movq	%rax, %rcx
.Ltmp576:
	callq	MPI_Group_range_incl
.Ltmp577:
	.loc	17 108 1 is_stmt 1      # /usr/lib/x86_64-linux-gnu/openmpi/include/openmpi/ompi/mpi/cxx/group_inln.h:108:1
	movq	-16(%rbp), %rax
.Ltmp578:
	#DEBUG_VALUE: newgroup <- undef
	movq	$_ZTVN3MPI5GroupE+16, (%rbx)
	.loc	17 62 1                 # /usr/lib/x86_64-linux-gnu/openmpi/include/openmpi/ompi/mpi/cxx/group_inln.h:62:1
	movq	%rax, 8(%rbx)
	.loc	17 109 1                # /usr/lib/x86_64-linux-gnu/openmpi/include/openmpi/ompi/mpi/cxx/group_inln.h:109:1
	movq	%rbx, %rax
	addq	$8, %rsp
	popq	%rbx
	popq	%rbp
	.cfi_def_cfa %rsp, 8
	retq
.Ltmp579:
.Lfunc_end75:
	.size	_ZNK3MPI5Group10Range_inclEiPA3_Ki, .Lfunc_end75-_ZNK3MPI5Group10Range_inclEiPA3_Ki
	.cfi_endproc
                                        # -- End function
	.weak	_ZNK3MPI5Group10Range_exclEiPA3_Ki # -- Begin function _ZNK3MPI5Group10Range_exclEiPA3_Ki
	.p2align	4, 0x90
	.type	_ZNK3MPI5Group10Range_exclEiPA3_Ki,@function
_ZNK3MPI5Group10Range_exclEiPA3_Ki:     # @_ZNK3MPI5Group10Range_exclEiPA3_Ki
.Lfunc_begin76:
	.loc	17 113 0                # /usr/lib/x86_64-linux-gnu/openmpi/include/openmpi/ompi/mpi/cxx/group_inln.h:113:0
	.cfi_startproc
# %bb.0:                                # %L.entry
	#DEBUG_VALUE: Range_excl: <- $rsi
	#DEBUG_VALUE: Range_excl:n <- $edx
	#DEBUG_VALUE: Range_excl:ranges <- $rcx
	pushq	%rbp
	.cfi_def_cfa_offset 16
	.cfi_offset %rbp, -16
	movq	%rsp, %rbp
	.cfi_def_cfa_register %rbp
	pushq	%rbx
	pushq	%rax
	.cfi_offset %rbx, -24
	movq	%rdi, %rbx
.Ltmp580:
	#DEBUG_VALUE:  <- $rsi
	#DEBUG_VALUE: ranges <- $rcx
	#DEBUG_VALUE: n <- $edx
	#DEBUG_VALUE: Range_excl:ranges <- $rcx
	#DEBUG_VALUE: Range_excl:n <- $edx
	#DEBUG_VALUE: Range_excl: <- $rsi
	.loc	17 115 1 prologue_end   # /usr/lib/x86_64-linux-gnu/openmpi/include/openmpi/ompi/mpi/cxx/group_inln.h:115:1
	movq	8(%rsi), %rdi
.Ltmp581:
	#DEBUG_VALUE: newgroup <- [DW_OP_constu 16, DW_OP_minus, DW_OP_deref] $rbp
	.loc	17 0 1 is_stmt 0        # /usr/lib/x86_64-linux-gnu/openmpi/include/openmpi/ompi/mpi/cxx/group_inln.h:0:1
	leaq	-16(%rbp), %rax
	.loc	17 115 1                # /usr/lib/x86_64-linux-gnu/openmpi/include/openmpi/ompi/mpi/cxx/group_inln.h:115:1
	movl	%edx, %esi
.Ltmp582:
	#DEBUG_VALUE: Range_excl:n <- $esi
	movq	%rcx, %rdx
.Ltmp583:
	#DEBUG_VALUE: Range_excl:ranges <- $rdx
	movq	%rax, %rcx
.Ltmp584:
	callq	MPI_Group_range_excl
.Ltmp585:
	.loc	17 122 1 is_stmt 1      # /usr/lib/x86_64-linux-gnu/openmpi/include/openmpi/ompi/mpi/cxx/group_inln.h:122:1
	movq	-16(%rbp), %rax
.Ltmp586:
	#DEBUG_VALUE: newgroup <- undef
	movq	$_ZTVN3MPI5GroupE+16, (%rbx)
	.loc	17 62 1                 # /usr/lib/x86_64-linux-gnu/openmpi/include/openmpi/ompi/mpi/cxx/group_inln.h:62:1
	movq	%rax, 8(%rbx)
	.loc	17 123 1                # /usr/lib/x86_64-linux-gnu/openmpi/include/openmpi/ompi/mpi/cxx/group_inln.h:123:1
	movq	%rbx, %rax
	addq	$8, %rsp
	popq	%rbx
	popq	%rbp
	.cfi_def_cfa %rsp, 8
	retq
.Ltmp587:
.Lfunc_end76:
	.size	_ZNK3MPI5Group10Range_exclEiPA3_Ki, .Lfunc_end76-_ZNK3MPI5Group10Range_exclEiPA3_Ki
	.cfi_endproc
                                        # -- End function
	.weak	_ZN3MPI5Group4FreeEv    # -- Begin function _ZN3MPI5Group4FreeEv
	.p2align	4, 0x90
	.type	_ZN3MPI5Group4FreeEv,@function
_ZN3MPI5Group4FreeEv:                   # @_ZN3MPI5Group4FreeEv
.Lfunc_begin77:
	.loc	17 127 0                # /usr/lib/x86_64-linux-gnu/openmpi/include/openmpi/ompi/mpi/cxx/group_inln.h:127:0
	.cfi_startproc
# %bb.0:                                # %L.entry
	#DEBUG_VALUE: Free: <- $rdi
	#DEBUG_VALUE: Free: <- $rdi
	pushq	%rbp
	.cfi_def_cfa_offset 16
	.cfi_offset %rbp, -16
	movq	%rsp, %rbp
	.cfi_def_cfa_register %rbp
.Ltmp588:
	#DEBUG_VALUE:  <- $rdi
	#DEBUG_VALUE:  <- $rdi
	.loc	17 128 1 prologue_end   # /usr/lib/x86_64-linux-gnu/openmpi/include/openmpi/ompi/mpi/cxx/group_inln.h:128:1
	addq	$8, %rdi
.Ltmp589:
	popq	%rbp
	.cfi_def_cfa %rsp, 8
	jmp	MPI_Group_free          # TAILCALL
.Ltmp590:
.Lfunc_end77:
	.size	_ZN3MPI5Group4FreeEv, .Lfunc_end77-_ZN3MPI5Group4FreeEv
	.cfi_endproc
                                        # -- End function
	.weak	_ZN3MPI9Comm_NullD1Ev   # -- Begin function _ZN3MPI9Comm_NullD1Ev
	.p2align	4, 0x90
	.type	_ZN3MPI9Comm_NullD1Ev,@function
_ZN3MPI9Comm_NullD1Ev:                  # @_ZN3MPI9Comm_NullD1Ev
.Lfunc_begin78:
	.file	18 "/usr/lib/x86_64-linux-gnu/openmpi/include/openmpi/ompi/mpi/cxx/comm.h"
	.loc	18 69 0                 # /usr/lib/x86_64-linux-gnu/openmpi/include/openmpi/ompi/mpi/cxx/comm.h:69:0
	.cfi_startproc
# %bb.0:                                # %L.entry
	#DEBUG_VALUE: ~Comm_Null: <- $rdi
	#DEBUG_VALUE: ~Comm_Null: <- $rdi
	pushq	%rbp
	.cfi_def_cfa_offset 16
	.cfi_offset %rbp, -16
	movq	%rsp, %rbp
	.cfi_def_cfa_register %rbp
.Ltmp591:
	#DEBUG_VALUE:  <- $rdi
	#DEBUG_VALUE:  <- $rdi
	.loc	18 69 1 prologue_end    # /usr/lib/x86_64-linux-gnu/openmpi/include/openmpi/ompi/mpi/cxx/comm.h:69:1
	movq	$_ZTVN3MPI9Comm_NullE+16, (%rdi)
	popq	%rbp
	.cfi_def_cfa %rsp, 8
	retq
.Ltmp592:
.Lfunc_end78:
	.size	_ZN3MPI9Comm_NullD1Ev, .Lfunc_end78-_ZN3MPI9Comm_NullD1Ev
	.cfi_endproc
                                        # -- End function
	.weak	_ZN3MPI9Comm_NullD0Ev   # -- Begin function _ZN3MPI9Comm_NullD0Ev
	.p2align	4, 0x90
	.type	_ZN3MPI9Comm_NullD0Ev,@function
_ZN3MPI9Comm_NullD0Ev:                  # @_ZN3MPI9Comm_NullD0Ev
.Lfunc_begin79:
	.loc	1 0 0                   # projects/projectTriAxisSearch.cpp:0:0
	.cfi_startproc
# %bb.0:                                # %L.entry
	pushq	%rbp
	.cfi_def_cfa_offset 16
	.cfi_offset %rbp, -16
	movq	%rsp, %rbp
	.cfi_def_cfa_register %rbp
.Ltmp593:
	.loc	1 69 1 prologue_end     # projects/projectTriAxisSearch.cpp:69:1
	movl	$16, %esi
	popq	%rbp
	.cfi_def_cfa %rsp, 8
	jmp	_ZdlPvm                 # TAILCALL
.Ltmp594:
.Lfunc_end79:
	.size	_ZN3MPI9Comm_NullD0Ev, .Lfunc_end79-_ZN3MPI9Comm_NullD0Ev
	.cfi_endproc
                                        # -- End function
	.weak	_ZNK3MPI4Comm4SendEPKviRKNS_8DatatypeEii # -- Begin function _ZNK3MPI4Comm4SendEPKviRKNS_8DatatypeEii
	.p2align	4, 0x90
	.type	_ZNK3MPI4Comm4SendEPKviRKNS_8DatatypeEii,@function
_ZNK3MPI4Comm4SendEPKviRKNS_8DatatypeEii: # @_ZNK3MPI4Comm4SendEPKviRKNS_8DatatypeEii
.Lfunc_begin80:
	.file	19 "/usr/lib/x86_64-linux-gnu/openmpi/include/openmpi/ompi/mpi/cxx/comm_inln.h"
	.loc	19 29 0                 # /usr/lib/x86_64-linux-gnu/openmpi/include/openmpi/ompi/mpi/cxx/comm_inln.h:29:0
	.cfi_startproc
# %bb.0:                                # %L.entry
	#DEBUG_VALUE: Send: <- $rdi
	#DEBUG_VALUE: Send:buf <- $rsi
	#DEBUG_VALUE: Send:count <- $edx
	#DEBUG_VALUE: Send:datatype <- $rcx
	#DEBUG_VALUE: Send:dest <- $r8d
	#DEBUG_VALUE: Send:tag <- $r9d
	pushq	%rbp
	.cfi_def_cfa_offset 16
	.cfi_offset %rbp, -16
	movq	%rsp, %rbp
	.cfi_def_cfa_register %rbp
.Ltmp595:
	#DEBUG_VALUE:  <- $rdi
	#DEBUG_VALUE: buf <- $rsi
	#DEBUG_VALUE: count <- $edx
	#DEBUG_VALUE: datatype <- $rcx
	#DEBUG_VALUE: dest <- $r8d
	#DEBUG_VALUE: tag <- $r9d
	movl	%r9d, %r10d
.Ltmp596:
	#DEBUG_VALUE: tag <- $r10d
	#DEBUG_VALUE: Send:tag <- $r10d
	#DEBUG_VALUE: dest <- $r8d
	#DEBUG_VALUE: Send:dest <- $r8d
	#DEBUG_VALUE: datatype <- $rcx
	#DEBUG_VALUE: Send:datatype <- $rcx
	#DEBUG_VALUE: count <- $edx
	#DEBUG_VALUE: Send:count <- $edx
	#DEBUG_VALUE: buf <- $rsi
	#DEBUG_VALUE: Send:buf <- $rsi
	#DEBUG_VALUE:  <- $rdi
	#DEBUG_VALUE: Send: <- $rdi
	.loc	19 90 1 prologue_end    # /usr/lib/x86_64-linux-gnu/openmpi/include/openmpi/ompi/mpi/cxx/comm_inln.h:90:1
	movq	8(%rcx), %rax
	movq	8(%rdi), %r9
	movq	%rsi, %rdi
.Ltmp597:
	#DEBUG_VALUE: buf <- $rdi
	#DEBUG_VALUE: Send:buf <- $rdi
	movl	%edx, %esi
.Ltmp598:
	#DEBUG_VALUE: count <- $esi
	#DEBUG_VALUE: Send:count <- $esi
	movq	%rax, %rdx
	movl	%r8d, %ecx
.Ltmp599:
	#DEBUG_VALUE: dest <- $ecx
	#DEBUG_VALUE: Send:dest <- $ecx
	movl	%r10d, %r8d
.Ltmp600:
	#DEBUG_VALUE: tag <- $r8d
	#DEBUG_VALUE: Send:tag <- $r8d
	popq	%rbp
	.cfi_def_cfa %rsp, 8
	jmp	MPI_Send                # TAILCALL
.Ltmp601:
.Lfunc_end80:
	.size	_ZNK3MPI4Comm4SendEPKviRKNS_8DatatypeEii, .Lfunc_end80-_ZNK3MPI4Comm4SendEPKviRKNS_8DatatypeEii
	.cfi_endproc
                                        # -- End function
	.weak	_ZNK3MPI4Comm4RecvEPviRKNS_8DatatypeEiiRNS_6StatusE # -- Begin function _ZNK3MPI4Comm4RecvEPviRKNS_8DatatypeEiiRNS_6StatusE
	.p2align	4, 0x90
	.type	_ZNK3MPI4Comm4RecvEPviRKNS_8DatatypeEiiRNS_6StatusE,@function
_ZNK3MPI4Comm4RecvEPviRKNS_8DatatypeEiiRNS_6StatusE: # @_ZNK3MPI4Comm4RecvEPviRKNS_8DatatypeEiiRNS_6StatusE
.Lfunc_begin81:
	.loc	19 36 0                 # /usr/lib/x86_64-linux-gnu/openmpi/include/openmpi/ompi/mpi/cxx/comm_inln.h:36:0
	.cfi_startproc
# %bb.0:                                # %L.entry
	#DEBUG_VALUE: Recv: <- $rdi
	#DEBUG_VALUE: Recv:buf <- $rsi
	#DEBUG_VALUE: Recv:count <- $edx
	#DEBUG_VALUE: Recv:datatype <- $rcx
	#DEBUG_VALUE: Recv:source <- $r8d
	#DEBUG_VALUE: Recv:tag <- $r9d
	pushq	%rbp
	.cfi_def_cfa_offset 16
	.cfi_offset %rbp, -16
	movq	%rsp, %rbp
	.cfi_def_cfa_register %rbp
	subq	$16, %rsp
.Ltmp602:
	#DEBUG_VALUE:  <- $rdi
	#DEBUG_VALUE: buf <- $rsi
	#DEBUG_VALUE: count <- $edx
	#DEBUG_VALUE: datatype <- $rcx
	#DEBUG_VALUE: source <- $r8d
	#DEBUG_VALUE: tag <- $r9d
	movl	%r9d, %r10d
	movq	%rsi, %r11
	movq	16(%rbp), %rsi
.Ltmp603:
	#DEBUG_VALUE: status <- [DW_OP_plus_uconst 16] [$rbp+0]
	#DEBUG_VALUE: Recv:status <- [DW_OP_plus_uconst 16] [$rbp+0]
	#DEBUG_VALUE: tag <- $r10d
	#DEBUG_VALUE: Recv:tag <- $r10d
	#DEBUG_VALUE: source <- $r8d
	#DEBUG_VALUE: Recv:source <- $r8d
	#DEBUG_VALUE: datatype <- $rcx
	#DEBUG_VALUE: Recv:datatype <- $rcx
	#DEBUG_VALUE: count <- $edx
	#DEBUG_VALUE: Recv:count <- $edx
	#DEBUG_VALUE: buf <- $r11
	#DEBUG_VALUE: Recv:buf <- $r11
	#DEBUG_VALUE:  <- $rdi
	#DEBUG_VALUE: Recv: <- $rdi
	.loc	19 90 1 prologue_end    # /usr/lib/x86_64-linux-gnu/openmpi/include/openmpi/ompi/mpi/cxx/comm_inln.h:90:1
	movq	8(%rcx), %rax
	movq	8(%rdi), %r9
	addq	$8, %rsi
	movq	%rsi, (%rsp)
	movq	%r11, %rdi
.Ltmp604:
	#DEBUG_VALUE: buf <- $rdi
	#DEBUG_VALUE: Recv:buf <- $rdi
	movl	%edx, %esi
.Ltmp605:
	#DEBUG_VALUE: count <- $esi
	#DEBUG_VALUE: Recv:count <- $esi
	movq	%rax, %rdx
	movl	%r8d, %ecx
.Ltmp606:
	#DEBUG_VALUE: source <- $ecx
	#DEBUG_VALUE: Recv:source <- $ecx
	movl	%r10d, %r8d
.Ltmp607:
	#DEBUG_VALUE: tag <- $r8d
	#DEBUG_VALUE: Recv:tag <- $r8d
	callq	MPI_Recv
.Ltmp608:
	.loc	19 38 1                 # /usr/lib/x86_64-linux-gnu/openmpi/include/openmpi/ompi/mpi/cxx/comm_inln.h:38:1
	addq	$16, %rsp
	popq	%rbp
	.cfi_def_cfa %rsp, 8
	retq
.Ltmp609:
.Lfunc_end81:
	.size	_ZNK3MPI4Comm4RecvEPviRKNS_8DatatypeEiiRNS_6StatusE, .Lfunc_end81-_ZNK3MPI4Comm4RecvEPviRKNS_8DatatypeEiiRNS_6StatusE
	.cfi_endproc
                                        # -- End function
	.weak	_ZNK3MPI4Comm4RecvEPviRKNS_8DatatypeEii # -- Begin function _ZNK3MPI4Comm4RecvEPviRKNS_8DatatypeEii
	.p2align	4, 0x90
	.type	_ZNK3MPI4Comm4RecvEPviRKNS_8DatatypeEii,@function
_ZNK3MPI4Comm4RecvEPviRKNS_8DatatypeEii: # @_ZNK3MPI4Comm4RecvEPviRKNS_8DatatypeEii
.Lfunc_begin82:
	.loc	19 43 0                 # /usr/lib/x86_64-linux-gnu/openmpi/include/openmpi/ompi/mpi/cxx/comm_inln.h:43:0
	.cfi_startproc
# %bb.0:                                # %L.entry
	#DEBUG_VALUE: Recv: <- $rdi
	#DEBUG_VALUE: Recv:buf <- $rsi
	#DEBUG_VALUE: Recv:count <- $edx
	#DEBUG_VALUE: Recv:datatype <- $rcx
	#DEBUG_VALUE: Recv:source <- $r8d
	#DEBUG_VALUE: Recv:tag <- $r9d
	pushq	%rbp
	.cfi_def_cfa_offset 16
	.cfi_offset %rbp, -16
	movq	%rsp, %rbp
	.cfi_def_cfa_register %rbp
	subq	$16, %rsp
.Ltmp610:
	#DEBUG_VALUE:  <- $rdi
	#DEBUG_VALUE: buf <- $rsi
	#DEBUG_VALUE: count <- $edx
	#DEBUG_VALUE: datatype <- $rcx
	#DEBUG_VALUE: source <- $r8d
	#DEBUG_VALUE: tag <- $r9d
	movl	%r9d, %r10d
.Ltmp611:
	#DEBUG_VALUE: tag <- $r10d
	#DEBUG_VALUE: Recv:tag <- $r10d
	#DEBUG_VALUE: source <- $r8d
	#DEBUG_VALUE: Recv:source <- $r8d
	#DEBUG_VALUE: datatype <- $rcx
	#DEBUG_VALUE: Recv:datatype <- $rcx
	#DEBUG_VALUE: count <- $edx
	#DEBUG_VALUE: Recv:count <- $edx
	#DEBUG_VALUE: buf <- $rsi
	#DEBUG_VALUE: Recv:buf <- $rsi
	#DEBUG_VALUE:  <- $rdi
	#DEBUG_VALUE: Recv: <- $rdi
	.loc	19 90 1 prologue_end    # /usr/lib/x86_64-linux-gnu/openmpi/include/openmpi/ompi/mpi/cxx/comm_inln.h:90:1
	movq	8(%rcx), %rax
	movq	8(%rdi), %r9
	movq	$0, (%rsp)
	movq	%rsi, %rdi
.Ltmp612:
	#DEBUG_VALUE: buf <- $rdi
	#DEBUG_VALUE: Recv:buf <- $rdi
	movl	%edx, %esi
.Ltmp613:
	#DEBUG_VALUE: count <- $esi
	#DEBUG_VALUE: Recv:count <- $esi
	movq	%rax, %rdx
	movl	%r8d, %ecx
.Ltmp614:
	#DEBUG_VALUE: source <- $ecx
	#DEBUG_VALUE: Recv:source <- $ecx
	movl	%r10d, %r8d
.Ltmp615:
	#DEBUG_VALUE: tag <- $r8d
	#DEBUG_VALUE: Recv:tag <- $r8d
	callq	MPI_Recv
.Ltmp616:
	.loc	19 46 1                 # /usr/lib/x86_64-linux-gnu/openmpi/include/openmpi/ompi/mpi/cxx/comm_inln.h:46:1
	addq	$16, %rsp
	popq	%rbp
	.cfi_def_cfa %rsp, 8
	retq
.Ltmp617:
.Lfunc_end82:
	.size	_ZNK3MPI4Comm4RecvEPviRKNS_8DatatypeEii, .Lfunc_end82-_ZNK3MPI4Comm4RecvEPviRKNS_8DatatypeEii
	.cfi_endproc
                                        # -- End function
	.weak	_ZNK3MPI4Comm5BsendEPKviRKNS_8DatatypeEii # -- Begin function _ZNK3MPI4Comm5BsendEPKviRKNS_8DatatypeEii
	.p2align	4, 0x90
	.type	_ZNK3MPI4Comm5BsendEPKviRKNS_8DatatypeEii,@function
_ZNK3MPI4Comm5BsendEPKviRKNS_8DatatypeEii: # @_ZNK3MPI4Comm5BsendEPKviRKNS_8DatatypeEii
.Lfunc_begin83:
	.loc	19 51 0                 # /usr/lib/x86_64-linux-gnu/openmpi/include/openmpi/ompi/mpi/cxx/comm_inln.h:51:0
	.cfi_startproc
# %bb.0:                                # %L.entry
	#DEBUG_VALUE: Bsend: <- $rdi
	#DEBUG_VALUE: Bsend:buf <- $rsi
	#DEBUG_VALUE: Bsend:count <- $edx
	#DEBUG_VALUE: Bsend:datatype <- $rcx
	#DEBUG_VALUE: Bsend:dest <- $r8d
	#DEBUG_VALUE: Bsend:tag <- $r9d
	pushq	%rbp
	.cfi_def_cfa_offset 16
	.cfi_offset %rbp, -16
	movq	%rsp, %rbp
	.cfi_def_cfa_register %rbp
.Ltmp618:
	#DEBUG_VALUE:  <- $rdi
	#DEBUG_VALUE: buf <- $rsi
	#DEBUG_VALUE: count <- $edx
	#DEBUG_VALUE: datatype <- $rcx
	#DEBUG_VALUE: dest <- $r8d
	#DEBUG_VALUE: tag <- $r9d
	movl	%r9d, %r10d
.Ltmp619:
	#DEBUG_VALUE: tag <- $r10d
	#DEBUG_VALUE: Bsend:tag <- $r10d
	#DEBUG_VALUE: dest <- $r8d
	#DEBUG_VALUE: Bsend:dest <- $r8d
	#DEBUG_VALUE: datatype <- $rcx
	#DEBUG_VALUE: Bsend:datatype <- $rcx
	#DEBUG_VALUE: count <- $edx
	#DEBUG_VALUE: Bsend:count <- $edx
	#DEBUG_VALUE: buf <- $rsi
	#DEBUG_VALUE: Bsend:buf <- $rsi
	#DEBUG_VALUE:  <- $rdi
	#DEBUG_VALUE: Bsend: <- $rdi
	.loc	19 90 1 prologue_end    # /usr/lib/x86_64-linux-gnu/openmpi/include/openmpi/ompi/mpi/cxx/comm_inln.h:90:1
	movq	8(%rcx), %rax
	movq	8(%rdi), %r9
	movq	%rsi, %rdi
.Ltmp620:
	#DEBUG_VALUE: buf <- $rdi
	#DEBUG_VALUE: Bsend:buf <- $rdi
	movl	%edx, %esi
.Ltmp621:
	#DEBUG_VALUE: count <- $esi
	#DEBUG_VALUE: Bsend:count <- $esi
	movq	%rax, %rdx
	movl	%r8d, %ecx
.Ltmp622:
	#DEBUG_VALUE: dest <- $ecx
	#DEBUG_VALUE: Bsend:dest <- $ecx
	movl	%r10d, %r8d
.Ltmp623:
	#DEBUG_VALUE: tag <- $r8d
	#DEBUG_VALUE: Bsend:tag <- $r8d
	popq	%rbp
	.cfi_def_cfa %rsp, 8
	jmp	MPI_Bsend               # TAILCALL
.Ltmp624:
.Lfunc_end83:
	.size	_ZNK3MPI4Comm5BsendEPKviRKNS_8DatatypeEii, .Lfunc_end83-_ZNK3MPI4Comm5BsendEPKviRKNS_8DatatypeEii
	.cfi_endproc
                                        # -- End function
	.weak	_ZNK3MPI4Comm5SsendEPKviRKNS_8DatatypeEii # -- Begin function _ZNK3MPI4Comm5SsendEPKviRKNS_8DatatypeEii
	.p2align	4, 0x90
	.type	_ZNK3MPI4Comm5SsendEPKviRKNS_8DatatypeEii,@function
_ZNK3MPI4Comm5SsendEPKviRKNS_8DatatypeEii: # @_ZNK3MPI4Comm5SsendEPKviRKNS_8DatatypeEii
.Lfunc_begin84:
	.loc	19 59 0                 # /usr/lib/x86_64-linux-gnu/openmpi/include/openmpi/ompi/mpi/cxx/comm_inln.h:59:0
	.cfi_startproc
# %bb.0:                                # %L.entry
	#DEBUG_VALUE: Ssend: <- $rdi
	#DEBUG_VALUE: Ssend:buf <- $rsi
	#DEBUG_VALUE: Ssend:count <- $edx
	#DEBUG_VALUE: Ssend:datatype <- $rcx
	#DEBUG_VALUE: Ssend:dest <- $r8d
	#DEBUG_VALUE: Ssend:tag <- $r9d
	pushq	%rbp
	.cfi_def_cfa_offset 16
	.cfi_offset %rbp, -16
	movq	%rsp, %rbp
	.cfi_def_cfa_register %rbp
.Ltmp625:
	#DEBUG_VALUE:  <- $rdi
	#DEBUG_VALUE: buf <- $rsi
	#DEBUG_VALUE: count <- $edx
	#DEBUG_VALUE: datatype <- $rcx
	#DEBUG_VALUE: dest <- $r8d
	#DEBUG_VALUE: tag <- $r9d
	movl	%r9d, %r10d
.Ltmp626:
	#DEBUG_VALUE: tag <- $r10d
	#DEBUG_VALUE: Ssend:tag <- $r10d
	#DEBUG_VALUE: dest <- $r8d
	#DEBUG_VALUE: Ssend:dest <- $r8d
	#DEBUG_VALUE: datatype <- $rcx
	#DEBUG_VALUE: Ssend:datatype <- $rcx
	#DEBUG_VALUE: count <- $edx
	#DEBUG_VALUE: Ssend:count <- $edx
	#DEBUG_VALUE: buf <- $rsi
	#DEBUG_VALUE: Ssend:buf <- $rsi
	#DEBUG_VALUE:  <- $rdi
	#DEBUG_VALUE: Ssend: <- $rdi
	.loc	19 90 1 prologue_end    # /usr/lib/x86_64-linux-gnu/openmpi/include/openmpi/ompi/mpi/cxx/comm_inln.h:90:1
	movq	8(%rcx), %rax
	movq	8(%rdi), %r9
	movq	%rsi, %rdi
.Ltmp627:
	#DEBUG_VALUE: buf <- $rdi
	#DEBUG_VALUE: Ssend:buf <- $rdi
	movl	%edx, %esi
.Ltmp628:
	#DEBUG_VALUE: count <- $esi
	#DEBUG_VALUE: Ssend:count <- $esi
	movq	%rax, %rdx
	movl	%r8d, %ecx
.Ltmp629:
	#DEBUG_VALUE: dest <- $ecx
	#DEBUG_VALUE: Ssend:dest <- $ecx
	movl	%r10d, %r8d
.Ltmp630:
	#DEBUG_VALUE: tag <- $r8d
	#DEBUG_VALUE: Ssend:tag <- $r8d
	popq	%rbp
	.cfi_def_cfa %rsp, 8
	jmp	MPI_Ssend               # TAILCALL
.Ltmp631:
.Lfunc_end84:
	.size	_ZNK3MPI4Comm5SsendEPKviRKNS_8DatatypeEii, .Lfunc_end84-_ZNK3MPI4Comm5SsendEPKviRKNS_8DatatypeEii
	.cfi_endproc
                                        # -- End function
	.weak	_ZNK3MPI4Comm5RsendEPKviRKNS_8DatatypeEii # -- Begin function _ZNK3MPI4Comm5RsendEPKviRKNS_8DatatypeEii
	.p2align	4, 0x90
	.type	_ZNK3MPI4Comm5RsendEPKviRKNS_8DatatypeEii,@function
_ZNK3MPI4Comm5RsendEPKviRKNS_8DatatypeEii: # @_ZNK3MPI4Comm5RsendEPKviRKNS_8DatatypeEii
.Lfunc_begin85:
	.loc	19 67 0                 # /usr/lib/x86_64-linux-gnu/openmpi/include/openmpi/ompi/mpi/cxx/comm_inln.h:67:0
	.cfi_startproc
# %bb.0:                                # %L.entry
	#DEBUG_VALUE: Rsend: <- $rdi
	#DEBUG_VALUE: Rsend:buf <- $rsi
	#DEBUG_VALUE: Rsend:count <- $edx
	#DEBUG_VALUE: Rsend:datatype <- $rcx
	#DEBUG_VALUE: Rsend:dest <- $r8d
	#DEBUG_VALUE: Rsend:tag <- $r9d
	pushq	%rbp
	.cfi_def_cfa_offset 16
	.cfi_offset %rbp, -16
	movq	%rsp, %rbp
	.cfi_def_cfa_register %rbp
.Ltmp632:
	#DEBUG_VALUE:  <- $rdi
	#DEBUG_VALUE: buf <- $rsi
	#DEBUG_VALUE: count <- $edx
	#DEBUG_VALUE: datatype <- $rcx
	#DEBUG_VALUE: dest <- $r8d
	#DEBUG_VALUE: tag <- $r9d
	movl	%r9d, %r10d
.Ltmp633:
	#DEBUG_VALUE: tag <- $r10d
	#DEBUG_VALUE: Rsend:tag <- $r10d
	#DEBUG_VALUE: dest <- $r8d
	#DEBUG_VALUE: Rsend:dest <- $r8d
	#DEBUG_VALUE: datatype <- $rcx
	#DEBUG_VALUE: Rsend:datatype <- $rcx
	#DEBUG_VALUE: count <- $edx
	#DEBUG_VALUE: Rsend:count <- $edx
	#DEBUG_VALUE: buf <- $rsi
	#DEBUG_VALUE: Rsend:buf <- $rsi
	#DEBUG_VALUE:  <- $rdi
	#DEBUG_VALUE: Rsend: <- $rdi
	.loc	19 90 1 prologue_end    # /usr/lib/x86_64-linux-gnu/openmpi/include/openmpi/ompi/mpi/cxx/comm_inln.h:90:1
	movq	8(%rcx), %rax
	movq	8(%rdi), %r9
	movq	%rsi, %rdi
.Ltmp634:
	#DEBUG_VALUE: buf <- $rdi
	#DEBUG_VALUE: Rsend:buf <- $rdi
	movl	%edx, %esi
.Ltmp635:
	#DEBUG_VALUE: count <- $esi
	#DEBUG_VALUE: Rsend:count <- $esi
	movq	%rax, %rdx
	movl	%r8d, %ecx
.Ltmp636:
	#DEBUG_VALUE: dest <- $ecx
	#DEBUG_VALUE: Rsend:dest <- $ecx
	movl	%r10d, %r8d
.Ltmp637:
	#DEBUG_VALUE: tag <- $r8d
	#DEBUG_VALUE: Rsend:tag <- $r8d
	popq	%rbp
	.cfi_def_cfa %rsp, 8
	jmp	MPI_Rsend               # TAILCALL
.Ltmp638:
.Lfunc_end85:
	.size	_ZNK3MPI4Comm5RsendEPKviRKNS_8DatatypeEii, .Lfunc_end85-_ZNK3MPI4Comm5RsendEPKviRKNS_8DatatypeEii
	.cfi_endproc
                                        # -- End function
	.weak	_ZNK3MPI4Comm5IsendEPKviRKNS_8DatatypeEii # -- Begin function _ZNK3MPI4Comm5IsendEPKviRKNS_8DatatypeEii
	.p2align	4, 0x90
	.type	_ZNK3MPI4Comm5IsendEPKviRKNS_8DatatypeEii,@function
_ZNK3MPI4Comm5IsendEPKviRKNS_8DatatypeEii: # @_ZNK3MPI4Comm5IsendEPKviRKNS_8DatatypeEii
.Lfunc_begin86:
	.loc	19 75 0                 # /usr/lib/x86_64-linux-gnu/openmpi/include/openmpi/ompi/mpi/cxx/comm_inln.h:75:0
	.cfi_startproc
# %bb.0:                                # %L.entry
	#DEBUG_VALUE: Isend: <- $rsi
	#DEBUG_VALUE: Isend:buf <- $rdx
	#DEBUG_VALUE: Isend:count <- $ecx
	#DEBUG_VALUE: Isend:datatype <- $r8
	#DEBUG_VALUE: Isend:dest <- $r9d
	pushq	%rbp
	.cfi_def_cfa_offset 16
	.cfi_offset %rbp, -16
	movq	%rsp, %rbp
	.cfi_def_cfa_register %rbp
	pushq	%rbx
	subq	$24, %rsp
	.cfi_offset %rbx, -24
	movl	%r9d, %r11d
	movq	%rdx, %rax
	movq	%rdi, %rbx
	movl	16(%rbp), %r10d
.Ltmp639:
	#DEBUG_VALUE: datatype <- $r8
	#DEBUG_VALUE:  <- $rsi
	#DEBUG_VALUE: tag <- $r10d
	#DEBUG_VALUE: dest <- $r11d
	#DEBUG_VALUE: count <- $ecx
	#DEBUG_VALUE: buf <- $rax
	#DEBUG_VALUE: Isend:tag <- [DW_OP_plus_uconst 16] [$rbp+0]
	#DEBUG_VALUE: Isend:dest <- $r11d
	#DEBUG_VALUE: Isend:datatype <- $r8
	#DEBUG_VALUE: Isend:count <- $ecx
	#DEBUG_VALUE: Isend:buf <- $rax
	#DEBUG_VALUE: Isend: <- $rsi
	.loc	19 90 1 prologue_end    # /usr/lib/x86_64-linux-gnu/openmpi/include/openmpi/ompi/mpi/cxx/comm_inln.h:90:1
	movq	8(%r8), %rdx
	movq	8(%rsi), %r9
.Ltmp640:
	#DEBUG_VALUE: request <- [DW_OP_constu 16, DW_OP_minus, DW_OP_deref] $rbp
	.loc	19 0 1 is_stmt 0        # /usr/lib/x86_64-linux-gnu/openmpi/include/openmpi/ompi/mpi/cxx/comm_inln.h:0:1
	leaq	-16(%rbp), %rsi
.Ltmp641:
	.loc	19 90 1                 # /usr/lib/x86_64-linux-gnu/openmpi/include/openmpi/ompi/mpi/cxx/comm_inln.h:90:1
	movq	%rsi, (%rsp)
	movq	%rax, %rdi
.Ltmp642:
	#DEBUG_VALUE: Isend:buf <- $rdi
	movl	%ecx, %esi
.Ltmp643:
	#DEBUG_VALUE: Isend:count <- $esi
	movl	%r11d, %ecx
.Ltmp644:
	#DEBUG_VALUE: Isend:dest <- $ecx
	movl	%r10d, %r8d
.Ltmp645:
	callq	MPI_Isend
.Ltmp646:
	.loc	19 79 1 is_stmt 1       # /usr/lib/x86_64-linux-gnu/openmpi/include/openmpi/ompi/mpi/cxx/comm_inln.h:79:1
	movq	-16(%rbp), %rax
.Ltmp647:
	#DEBUG_VALUE: request <- undef
	movq	$_ZTVN3MPI7RequestE+16, (%rbx)
	.loc	19 62 1                 # /usr/lib/x86_64-linux-gnu/openmpi/include/openmpi/ompi/mpi/cxx/comm_inln.h:62:1
	movq	%rax, 8(%rbx)
	.loc	19 80 1                 # /usr/lib/x86_64-linux-gnu/openmpi/include/openmpi/ompi/mpi/cxx/comm_inln.h:80:1
	movq	%rbx, %rax
	addq	$24, %rsp
	popq	%rbx
	popq	%rbp
	.cfi_def_cfa %rsp, 8
	retq
.Ltmp648:
.Lfunc_end86:
	.size	_ZNK3MPI4Comm5IsendEPKviRKNS_8DatatypeEii, .Lfunc_end86-_ZNK3MPI4Comm5IsendEPKviRKNS_8DatatypeEii
	.cfi_endproc
