; ModuleID = 'backgroundfield/quadr.cpp'
target datalayout = "e-p:64:64-i64:64-f80:128-n8:16:32:64-S128"
target triple = "x86_64-pc-linux-gnu"
define internal void @pgCplus_compiled.() noinline {
L.entry:
	ret void
}

%struct.T1DFunction = type <{ i32 (...)* (...)*}> 



define internal void @_ZN47_INTERNAL_25_backgroundfield_quadr_cpp_6e0a93656trapezERK11T1DFunctionddRdRii(%struct.T1DFunction* %func.arg, double %a.arg, double %b.arg, double* %S.arg, i32* %it.arg, i32 signext %n.arg) #0 !dbg !1359 {
L.entry:
	%func.addr = alloca %struct.T1DFunction*, align 8
	%a.addr = alloca double, align 8
	%b.addr = alloca double, align 8
	%S.addr = alloca double*, align 8
	%it.addr = alloca i32*, align 8
	%n.addr = alloca i32, align 4
	%.Q0000.addr = alloca double, align 8
	%.Q0001.addr = alloca double, align 8
	%delta.addr = alloca double, align 8
	%x.addr = alloca double, align 8
	%sum.addr = alloca double, align 8
	%j.addr = alloca i32, align 4
	%.Q0002.addr = alloca double, align 8

	call void @llvm.dbg.declare (metadata %struct.T1DFunction** %func.addr, metadata !1365, metadata !1366), !dbg !1360
	store %struct.T1DFunction* %func.arg, %struct.T1DFunction** %func.addr, align 8, !tbaa !1398
	call void @llvm.dbg.declare (metadata %struct.T1DFunction** %func.addr, metadata !1367, metadata !1366), !dbg !1360
	call void @llvm.dbg.declare (metadata double* %a.addr, metadata !1368, metadata !1366), !dbg !1360
	store double %a.arg, double* %a.addr, align 8, !tbaa !1399
	call void @llvm.dbg.declare (metadata double* %a.addr, metadata !1369, metadata !1366), !dbg !1360
	call void @llvm.dbg.declare (metadata double* %b.addr, metadata !1370, metadata !1366), !dbg !1360
	store double %b.arg, double* %b.addr, align 8, !tbaa !1399
	call void @llvm.dbg.declare (metadata double* %b.addr, metadata !1371, metadata !1366), !dbg !1360
	call void @llvm.dbg.declare (metadata double** %S.addr, metadata !1372, metadata !1366), !dbg !1360
	store double* %S.arg, double** %S.addr, align 8, !tbaa !1398
	call void @llvm.dbg.declare (metadata double** %S.addr, metadata !1373, metadata !1366), !dbg !1360
	call void @llvm.dbg.declare (metadata i32** %it.addr, metadata !1374, metadata !1366), !dbg !1360
	store i32* %it.arg, i32** %it.addr, align 8, !tbaa !1398
	call void @llvm.dbg.declare (metadata i32** %it.addr, metadata !1375, metadata !1366), !dbg !1360
	call void @llvm.dbg.declare (metadata i32* %n.addr, metadata !1376, metadata !1366), !dbg !1360
	store i32 %n.arg, i32* %n.addr, align 4, !tbaa !1399
	call void @llvm.dbg.declare (metadata i32* %n.addr, metadata !1377, metadata !1366), !dbg !1360
	%0 = load i32, i32* %n.addr, align 4, !tbaa !1401, !dbg !1378
	%1 = icmp ne i32  %0, 1, !dbg !1378
	br i1  %1, label %L.B0000, label %L.B0153, !dbg !1378
L.B0153:
	%2 = load %struct.T1DFunction*, %struct.T1DFunction** %func.addr, align 8, !tbaa !1398, !dbg !1379
	%3 = load double, double* %b.addr, align 8, !tbaa !1403, !dbg !1379
	%4 = bitcast %struct.T1DFunction*  %2 to double (%struct.T1DFunction*, double)***, !dbg !1379
	%5 = load double (%struct.T1DFunction*, double)**, double (%struct.T1DFunction*, double)***  %4, align 8, !tbaa !1398, !dbg !1379
	%6 = load double (%struct.T1DFunction*, double)*, double (%struct.T1DFunction*, double)**  %5, align 8, !tbaa !1398, !dbg !1379
	%7 = call double  %6 (%struct.T1DFunction*  %2, double  %3), !dbg !1379
	store double  %7, double* %.Q0000.addr, align 8, !tbaa !1403, !dbg !1379
	%8 = load %struct.T1DFunction*, %struct.T1DFunction** %func.addr, align 8, !tbaa !1398, !dbg !1379
	%9 = load double, double* %a.addr, align 8, !tbaa !1403, !dbg !1379
	%10 = bitcast %struct.T1DFunction*  %8 to double (%struct.T1DFunction*, double)***, !dbg !1379
	%11 = load double (%struct.T1DFunction*, double)**, double (%struct.T1DFunction*, double)***  %10, align 8, !tbaa !1398, !dbg !1379
	%12 = load double (%struct.T1DFunction*, double)*, double (%struct.T1DFunction*, double)**  %11, align 8, !tbaa !1398, !dbg !1379
	%13 = call double  %12 (%struct.T1DFunction*  %8, double  %9), !dbg !1379
	store double  %13, double* %.Q0001.addr, align 8, !tbaa !1403, !dbg !1379
	%14 = load double, double* %.Q0000.addr, align 8, !tbaa !1403, !dbg !1379
	%15 = fadd double  %14,  %13, !dbg !1379
	%16 = load double, double* %b.addr, align 8, !tbaa !1403, !dbg !1379
	%17 = load double, double* %a.addr, align 8, !tbaa !1403, !dbg !1379
	%18 = fsub double  %16,  %17, !dbg !1379
	%19 = fmul double  %18,  5.00000000000000000E-1, !dbg !1379
	%20 = fmul double  %15,  %19, !dbg !1379
	%21 = load double*, double** %S.addr, align 8, !tbaa !1398, !dbg !1379
	store double  %20, double*  %21, align 8, !tbaa !1399, !dbg !1379
	%22 = load i32*, i32** %it.addr, align 8, !tbaa !1398, !dbg !1380
	store i32 1, i32*  %22, align 4, !tbaa !1399, !dbg !1380
	br label %L.B0001, !dbg !1381
L.B0000:
	%23 = load double, double* %b.addr, align 8, !tbaa !1403, !dbg !1382
	%24 = load double, double* %a.addr, align 8, !tbaa !1403, !dbg !1382
	%25 = fsub double  %23,  %24, !dbg !1382
	%26 = load i32*, i32** %it.addr, align 8, !tbaa !1398, !dbg !1382
	%27 = load i32, i32*  %26, align 4, !tbaa !1399, !dbg !1382
	%28 = sitofp i32  %27 to double, !dbg !1382
	%29 = fdiv double  %25,  %28, !dbg !1382
	call void @llvm.dbg.declare (metadata double* %delta.addr, metadata !1383, metadata !1366), !dbg !1364
	store double  %29, double* %delta.addr, align 8, !tbaa !1403, !dbg !1382
	%30 = load double, double* %a.addr, align 8, !tbaa !1403, !dbg !1384
	%31 = call double @llvm.fma.f64 (double  %29, double  5.00000000000000000E-1, double  %30), !dbg !1384
	call void @llvm.dbg.declare (metadata double* %x.addr, metadata !1385, metadata !1366), !dbg !1364
	store double  %31, double* %x.addr, align 8, !tbaa !1403, !dbg !1384
	call void @llvm.dbg.declare (metadata double* %sum.addr, metadata !1387, metadata !1366), !dbg !1364
	store double  0.00000000000000000E+0, double* %sum.addr, align 8, !tbaa !1403, !dbg !1386
	call void @llvm.dbg.declare (metadata i32* %j.addr, metadata !1389, metadata !1366), !dbg !1360
	store i32 0, i32* %j.addr, align 4, !tbaa !1401, !dbg !1388
	%32 = load i32*, i32** %it.addr, align 8, !tbaa !1398, !dbg !1388
	%33 = load i32, i32*  %32, align 4, !tbaa !1399, !dbg !1388
	%34 = icmp sle i32  %33, 0, !dbg !1388
	br i1  %34, label %L.B0004, label %L.B0003, !dbg !1388
L.B0003:
	%35 = load %struct.T1DFunction*, %struct.T1DFunction** %func.addr, align 8, !tbaa !1398, !dbg !1390
	%36 = load double, double* %x.addr, align 8, !tbaa !1403, !dbg !1390
	%37 = bitcast %struct.T1DFunction*  %35 to double (%struct.T1DFunction*, double)***, !dbg !1390
	%38 = load double (%struct.T1DFunction*, double)**, double (%struct.T1DFunction*, double)***  %37, align 8, !tbaa !1398, !dbg !1390
	%39 = load double (%struct.T1DFunction*, double)*, double (%struct.T1DFunction*, double)**  %38, align 8, !tbaa !1398, !dbg !1390
	%40 = call double  %39 (%struct.T1DFunction*  %35, double  %36), !dbg !1390
	store double  %40, double* %.Q0002.addr, align 8, !tbaa !1403, !dbg !1390
	%41 = load double, double* %sum.addr, align 8, !tbaa !1403, !dbg !1390
	%42 = fadd double  %40,  %41, !dbg !1390
	store double  %42, double* %sum.addr, align 8, !tbaa !1403, !dbg !1390
	%43 = load double, double* %delta.addr, align 8, !tbaa !1403, !dbg !1391
	%44 = load double, double* %x.addr, align 8, !tbaa !1403, !dbg !1391
	%45 = fadd double  %43,  %44, !dbg !1391
	store double  %45, double* %x.addr, align 8, !tbaa !1403, !dbg !1391
	%46 = load i32, i32* %j.addr, align 4, !tbaa !1401, !dbg !1392

	%47 = add i32  %46, 1, !dbg !1392
	store i32  %47, i32* %j.addr, align 4, !tbaa !1401, !dbg !1392
	%48 = load i32*, i32** %it.addr, align 8, !tbaa !1398, !dbg !1392
	%49 = load i32, i32*  %48, align 4, !tbaa !1399, !dbg !1392
	%50 = icmp slt i32  %47,  %49, !dbg !1392
	br i1  %50, label %L.B0003, label %L.B0004, !dbg !1392
L.B0004:
	%51 = load double, double* %b.addr, align 8, !tbaa !1403, !dbg !1393
	%52 = load double, double* %a.addr, align 8, !tbaa !1403, !dbg !1393
	%53 = fsub double  %51,  %52, !dbg !1393
	%54 = load double, double* %sum.addr, align 8, !tbaa !1403, !dbg !1393
	%55 = fmul double  %53,  %54, !dbg !1393
	%56 = load i32*, i32** %it.addr, align 8, !tbaa !1398, !dbg !1393
	%57 = load i32, i32*  %56, align 4, !tbaa !1399, !dbg !1393
	%58 = sitofp i32  %57 to double, !dbg !1393
	%59 = fdiv double  %55,  %58, !dbg !1393
	%60 = load double*, double** %S.addr, align 8, !tbaa !1398, !dbg !1393
	%61 = load double, double*  %60, align 8, !tbaa !1399, !dbg !1393
	%62 = fadd double  %59,  %61, !dbg !1393
	%63 = fmul double  %62,  5.00000000000000000E-1, !dbg !1393
	store double  %63, double*  %60, align 8, !tbaa !1399, !dbg !1393
	%64 = mul i32  %57, 2, !dbg !1394
	store i32  %64, i32*  %56, align 4, !tbaa !1399, !dbg !1394
	br label %L.B0001
L.B0001:
	ret void, !dbg !1395
}
define internal void @_ZN47_INTERNAL_25_backgroundfield_quadr_cpp_6e0a93656polintEPKdS1_idRdS2_(double* %xa.arg, double* %ya.arg, i32 signext %n.arg, double %x.arg, double* %y.arg, double* %dy.arg) #0 !dbg !1408 {
L.entry:
	%xa.addr = alloca double*, align 8
	%ya.addr = alloca double*, align 8
	%n.addr = alloca i32, align 4
	%x.addr = alloca double, align 8
	%y.addr = alloca double*, align 8
	%dy.addr = alloca double*, align 8
	%ns.addr = alloca i32, align 4
	%dif.addr = alloca double, align 8
	%.ndi0002.addr = alloca i32, align 4
	%.lcr011025.addr = alloca i32, align 4
	%dift.addr = alloca double, align 8
	%D.addr = alloca [20 x double], align 8
	%C.addr = alloca [20 x double], align 8
	%.TRP0000.addr = alloca i64, align 8
	%.ndk0004.addr = alloca i64, align 8
	%.lcr051025.addr = alloca i64, align 8
	%.TRP0001.addr = alloca i64, align 8
	%.ndk0006.addr = alloca i64, align 8
	%.lcr051026.addr = alloca i64, align 8
	%.r2.0254.addr = alloca i32, align 4
	%.G0001.addr = alloca i8*, align 8
	%h0.addr = alloca double, align 8
	%hp.addr = alloca double, align 8
	%W.addr = alloca double, align 8
	%den.addr = alloca double, align 8

	call void @llvm.dbg.declare (metadata double** %xa.addr, metadata !1418, metadata !1366), !dbg !1409
	store double* %xa.arg, double** %xa.addr, align 8, !tbaa !1398
	call void @llvm.dbg.declare (metadata double** %xa.addr, metadata !1419, metadata !1366), !dbg !1409
	call void @llvm.dbg.declare (metadata double** %ya.addr, metadata !1420, metadata !1366), !dbg !1409
	store double* %ya.arg, double** %ya.addr, align 8, !tbaa !1398
	call void @llvm.dbg.declare (metadata double** %ya.addr, metadata !1421, metadata !1366), !dbg !1409
	call void @llvm.dbg.declare (metadata i32* %n.addr, metadata !1422, metadata !1366), !dbg !1409
	store i32 %n.arg, i32* %n.addr, align 4, !tbaa !1399
	call void @llvm.dbg.declare (metadata i32* %n.addr, metadata !1423, metadata !1366), !dbg !1409
	call void @llvm.dbg.declare (metadata double* %x.addr, metadata !1424, metadata !1366), !dbg !1409
	store double %x.arg, double* %x.addr, align 8, !tbaa !1399
	call void @llvm.dbg.declare (metadata double* %x.addr, metadata !1425, metadata !1366), !dbg !1409
	call void @llvm.dbg.declare (metadata double** %y.addr, metadata !1426, metadata !1366), !dbg !1409
	store double* %y.arg, double** %y.addr, align 8, !tbaa !1398
	call void @llvm.dbg.declare (metadata double** %y.addr, metadata !1427, metadata !1366), !dbg !1409
	call void @llvm.dbg.declare (metadata double** %dy.addr, metadata !1428, metadata !1366), !dbg !1409
	store double* %dy.arg, double** %dy.addr, align 8, !tbaa !1398
	call void @llvm.dbg.declare (metadata double** %dy.addr, metadata !1429, metadata !1366), !dbg !1409
	call void @llvm.dbg.declare (metadata i32* %ns.addr, metadata !1431, metadata !1366), !dbg !1409
	store i32 0, i32* %ns.addr, align 4, !tbaa !1401, !dbg !1430
	%0 = load double, double* %x.addr, align 8, !tbaa !1403, !dbg !1432
	%1 = load double*, double** %xa.addr, align 8, !tbaa !1398, !dbg !1432
	%2 = load double, double*  %1, align 8, !tbaa !1399, !dbg !1432
	%3 = fsub double  %0,  %2, !dbg !1432
	%4 = call double @llvm.fabs.f64 (double  %3), !dbg !1432
	call void @llvm.dbg.declare (metadata double* %dif.addr, metadata !1433, metadata !1366), !dbg !1409
	store double  %4, double* %dif.addr, align 8, !tbaa !1403, !dbg !1432
	store i32 0, i32* %.ndi0002.addr, align 4, !tbaa !1401, !dbg !1434
	%5 = load i32, i32* %n.addr, align 4, !tbaa !1401, !dbg !1434
	%6 = icmp sle i32  %5, 0, !dbg !1434
	br i1  %6, label %L.B0164, label %L.B0169, !dbg !1434
L.B0169:
	store i32  %5, i32* %.lcr011025.addr, align 4, !tbaa !1401, !dbg !1434
	br label %L.B0163
L.B0163:
	%7 = load double, double* %x.addr, align 8, !tbaa !1403, !dbg !1434
	%8 = load i32, i32* %.ndi0002.addr, align 4, !tbaa !1401, !dbg !1434
	%9 = sext i32  %8 to i64, !dbg !1434
	%10 = load double*, double** %xa.addr, align 8, !tbaa !1398, !dbg !1434
	%11 = getelementptr double, double*  %10, i64  %9, !dbg !1434
	%12 = load double, double*  %11, align 8, !tbaa !1399, !dbg !1434
	%13 = fsub double  %7,  %12, !dbg !1434
	%14 = call double @llvm.fabs.f64 (double  %13), !dbg !1434
	call void @llvm.dbg.declare (metadata double* %dift.addr, metadata !1435, metadata !1366), !dbg !1413
	store double  %14, double* %dift.addr, align 8, !tbaa !1403, !dbg !1434
	%15 = load double, double* %dif.addr, align 8, !tbaa !1403, !dbg !1434
	%16 = fcmp uge double  %14,  %15, !dbg !1434
	br i1  %16, label %L.B0009, label %L.B0170, !dbg !1434
L.B0170:
	%17 = load i32, i32* %.ndi0002.addr, align 4, !tbaa !1401, !dbg !1434
	store i32  %17, i32* %ns.addr, align 4, !tbaa !1401, !dbg !1434
	store double  %14, double* %dif.addr, align 8, !tbaa !1403, !dbg !1434
	br label %L.B0009
L.B0009:
	%18 = load i32, i32* %.ndi0002.addr, align 4, !tbaa !1401, !dbg !1434
	%19 = sext i32  %18 to i64, !dbg !1434
	%20 = load double*, double** %ya.addr, align 8, !tbaa !1398, !dbg !1434
	%21 = getelementptr double, double*  %20, i64  %19, !dbg !1434
	%22 = load double, double*  %21, align 8, !tbaa !1399, !dbg !1434
	call void @llvm.dbg.declare (metadata [20 x double]* %D.addr, metadata !1437, metadata !1366), !dbg !1409
	%23 = bitcast [20 x double]* %D.addr to double*, !dbg !1434
	%24 = getelementptr double, double*  %23, i64  %19, !dbg !1434
	store double  %22, double*  %24, align 8, !tbaa !1399, !dbg !1434
	%25 = load i32, i32* %.ndi0002.addr, align 4, !tbaa !1401, !dbg !1434
	%26 = sext i32  %25 to i64, !dbg !1434
	call void @llvm.dbg.declare (metadata [20 x double]* %C.addr, metadata !1438, metadata !1366), !dbg !1409
	%27 = bitcast [20 x double]* %C.addr to double*, !dbg !1434
	%28 = getelementptr double, double*  %27, i64  %26, !dbg !1434
	store double  %22, double*  %28, align 8, !tbaa !1399, !dbg !1434
	%29 = load i32, i32* %.ndi0002.addr, align 4, !tbaa !1401, !dbg !1434
	%30 = add i32  %29, 1, !dbg !1434
	store i32  %30, i32* %.ndi0002.addr, align 4, !tbaa !1401, !dbg !1434
	%31 = load i32, i32* %.lcr011025.addr, align 4, !tbaa !1401, !dbg !1434
	%32 = icmp slt i32  %30,  %31, !dbg !1434
	br i1  %32, label %L.B0163, label %L.B0164, !dbg !1434
L.B0164:
	%33 = load i32, i32* %ns.addr, align 4, !tbaa !1401, !dbg !1439
	%34 = sext i32  %33 to i64, !dbg !1439
	%35 = load double*, double** %ya.addr, align 8, !tbaa !1398, !dbg !1439
	%36 = getelementptr double, double*  %35, i64  %34, !dbg !1439
	%37 = load double, double*  %36, align 8, !tbaa !1399, !dbg !1439
	%38 = load double*, double** %y.addr, align 8, !tbaa !1398, !dbg !1439
	store double  %37, double*  %38, align 8, !tbaa !1399, !dbg !1439

	%39 = sub i32  %33, 1, !dbg !1440
	store i32  %39, i32* %ns.addr, align 4, !tbaa !1401, !dbg !1440
	%40 = load i32, i32* %n.addr, align 4, !tbaa !1401, !dbg !1441
	%41 = sext i32  %40 to i64, !dbg !1441
	%42 = sub i64  %41, 1, !dbg !1441
	store i64  %42, i64* %.TRP0000.addr, align 8, !tbaa !1449, !dbg !1441
	store i64 0, i64* %.ndk0004.addr, align 8, !tbaa !1451, !dbg !1442
	%43 = icmp sle i64  %42, 0, !dbg !1442
	br i1  %43, label %L.B0166, label %L.B0171, !dbg !1442
L.B0171:
	store i64  %42, i64* %.lcr051025.addr, align 8, !tbaa !1451, !dbg !1442
	br label %L.B0165
L.B0165:
	%44 = load i32, i32* %n.addr, align 4, !tbaa !1401, !dbg !1442
	%45 = load i64, i64* %.ndk0004.addr, align 8, !tbaa !1451, !dbg !1442
	%46 = trunc i64  %45 to i32, !dbg !1442
	%47 = sub i32  %44,  %46, !dbg !1442
	%48 = sext i32  %47 to i64, !dbg !1442
	%49 = sub i64  %48, 1, !dbg !1442
	store i64  %49, i64* %.TRP0001.addr, align 8, !tbaa !1449, !dbg !1442
	store i64 0, i64* %.ndk0006.addr, align 8, !tbaa !1451, !dbg !1442
	%50 = icmp sle i64  %49, 0, !dbg !1442
	br i1  %50, label %L.B0168, label %L.B0172, !dbg !1442
L.B0172:
	store i64  %49, i64* %.lcr051026.addr, align 8, !tbaa !1451, !dbg !1443
	store i32  %46, i32* %.r2.0254.addr, align 4, !tbaa !1401, !dbg !1443
	%51 = bitcast [20 x double]* %C.addr to i8*, !dbg !1443
	store i8*  %51, i8** %.G0001.addr, align 8, !tbaa !1398, !dbg !1443
	br label %L.B0167
L.B0167:
	%52 = load i64, i64* %.ndk0006.addr, align 8, !tbaa !1451, !dbg !1442
	%53 = trunc i64  %52 to i32, !dbg !1442
	%54 = sext i32  %53 to i64, !dbg !1442
	%55 = load double*, double** %xa.addr, align 8, !tbaa !1398, !dbg !1442
	%56 = getelementptr double, double*  %55, i64  %54, !dbg !1442
	%57 = load double, double*  %56, align 8, !tbaa !1399, !dbg !1442
	%58 = load double, double* %x.addr, align 8, !tbaa !1403, !dbg !1442
	%59 = fsub double  %57,  %58, !dbg !1442
	call void @llvm.dbg.declare (metadata double* %h0.addr, metadata !1444, metadata !1366), !dbg !1417
	store double  %59, double* %h0.addr, align 8, !tbaa !1403, !dbg !1442
	%60 = load i32, i32* %.r2.0254.addr, align 4, !tbaa !1401, !dbg !1442
	%61 = load i64, i64* %.ndk0006.addr, align 8, !tbaa !1451, !dbg !1442
	%62 = trunc i64  %61 to i32, !dbg !1442
	%63 = add i32  %60,  %62, !dbg !1442
	%64 = sext i32  %63 to i64, !dbg !1442
	%65 = load double*, double** %xa.addr, align 8, !tbaa !1398, !dbg !1442
	%66 = bitcast double*  %65 to i8*, !dbg !1442
	%67 = getelementptr i8, i8*  %66, i64 8, !dbg !1442
	%68 = bitcast i8*  %67 to double*, !dbg !1442
	%69 = getelementptr double, double*  %68, i64  %64, !dbg !1442
	%70 = load double, double*  %69, align 8, !tbaa !1399, !dbg !1442
	%71 = load double, double* %x.addr, align 8, !tbaa !1403, !dbg !1442
	%72 = fsub double  %70,  %71, !dbg !1442
	call void @llvm.dbg.declare (metadata double* %hp.addr, metadata !1445, metadata !1366), !dbg !1417
	store double  %72, double* %hp.addr, align 8, !tbaa !1403, !dbg !1442
	%73 = load i8*, i8** %.G0001.addr, align 8, !tbaa !1398, !dbg !1442
	%74 = getelementptr i8, i8*  %73, i64 8, !dbg !1442
	%75 = bitcast i8*  %74 to double*, !dbg !1442
	%76 = load double, double*  %75, align 8, !tbaa !1399, !dbg !1442
	%77 = load i64, i64* %.ndk0006.addr, align 8, !tbaa !1451, !dbg !1442
	%78 = trunc i64  %77 to i32, !dbg !1442
	%79 = sext i32  %78 to i64, !dbg !1442
	%80 = bitcast [20 x double]* %D.addr to double*, !dbg !1442
	%81 = getelementptr double, double*  %80, i64  %79, !dbg !1442
	%82 = load double, double*  %81, align 8, !tbaa !1399, !dbg !1442
	%83 = fsub double  %76,  %82, !dbg !1442
	call void @llvm.dbg.declare (metadata double* %W.addr, metadata !1446, metadata !1366), !dbg !1417
	store double  %83, double* %W.addr, align 8, !tbaa !1403, !dbg !1442
	%84 = load double, double* %h0.addr, align 8, !tbaa !1403, !dbg !1442
	%85 = load double, double* %hp.addr, align 8, !tbaa !1403, !dbg !1442
	%86 = fsub double  %84,  %85, !dbg !1442
	call void @llvm.dbg.declare (metadata double* %den.addr, metadata !1447, metadata !1366), !dbg !1417
	%87 = load double, double* %W.addr, align 8, !tbaa !1403, !dbg !1442
	%88 = fdiv double  %87,  %86, !dbg !1442
	%89 = load double, double* %hp.addr, align 8, !tbaa !1403, !dbg !1442
	%90 = fmul double  %89,  %88, !dbg !1442
	%91 = load i64, i64* %.ndk0006.addr, align 8, !tbaa !1451, !dbg !1442
	%92 = trunc i64  %91 to i32, !dbg !1442
	%93 = sext i32  %92 to i64, !dbg !1442
	%94 = getelementptr double, double*  %80, i64  %93, !dbg !1442
	store double  %90, double*  %94, align 8, !tbaa !1399, !dbg !1442
	%95 = load double, double* %h0.addr, align 8, !tbaa !1403, !dbg !1442
	%96 = fmul double  %95,  %88, !dbg !1442
	%97 = load i8*, i8** %.G0001.addr, align 8, !tbaa !1398, !dbg !1442
	%98 = bitcast i8*  %97 to double*, !dbg !1442
	store double  %96, double*  %98, align 8, !tbaa !1399, !dbg !1442
	%99 = add i64  %91, 1, !dbg !1442
	store i64  %99, i64* %.ndk0006.addr, align 8, !tbaa !1451, !dbg !1442
	%100 = getelementptr i8, i8*  %97, i64 8, !dbg !1443
	store i8*  %100, i8** %.G0001.addr, align 8, !tbaa !1398, !dbg !1443
	%101 = load i64, i64* %.lcr051026.addr, align 8, !tbaa !1451, !dbg !1442
	%102 = icmp slt i64  %99,  %101, !dbg !1442
	br i1  %102, label %L.B0167, label %L.B0168, !dbg !1442
L.B0168:
	%103 = load i32, i32* %ns.addr, align 4, !tbaa !1401, !dbg !1442
	%104 = add i32  %103, 1, !dbg !1442
	%105 = mul i32  %104, 2, !dbg !1442
	%106 = load i32, i32* %n.addr, align 4, !tbaa !1401, !dbg !1442
	%107 = load i64, i64* %.ndk0004.addr, align 8, !tbaa !1451, !dbg !1442
	%108 = trunc i64  %107 to i32, !dbg !1442
	%109 = sub i32  %106,  %108, !dbg !1442
	%110 = sub i32  %109, 1, !dbg !1442
	%111 = icmp sge i32  %105,  %110, !dbg !1442
	br i1  %111, label %L.B0018, label %L.B0173, !dbg !1442
L.B0173:
	%112 = sext i32  %103 to i64, !dbg !1442
	%113 = bitcast [20 x double]* %C.addr to i8*, !dbg !1442
	%114 = getelementptr i8, i8*  %113, i64 8, !dbg !1442
	%115 = bitcast i8*  %114 to double*, !dbg !1442
	%116 = getelementptr double, double*  %115, i64  %112, !dbg !1442
	%117 = load double, double*  %116, align 8, !tbaa !1399, !dbg !1442
	%118 = load double*, double** %dy.addr, align 8, !tbaa !1398, !dbg !1442
	store double  %117, double*  %118, align 8, !tbaa !1399, !dbg !1442
	br label %L.B0019, !dbg !1442
L.B0018:
	%119 = load i32, i32* %ns.addr, align 4, !tbaa !1401, !dbg !1442
	%120 = sext i32  %119 to i64, !dbg !1442
	%121 = bitcast [20 x double]* %D.addr to double*, !dbg !1442
	%122 = getelementptr double, double*  %121, i64  %120, !dbg !1442
	%123 = load double, double*  %122, align 8, !tbaa !1399, !dbg !1442
	%124 = load double*, double** %dy.addr, align 8, !tbaa !1398, !dbg !1442
	store double  %123, double*  %124, align 8, !tbaa !1399, !dbg !1442

	%125 = sub i32  %119, 1, !dbg !1442
	store i32  %125, i32* %ns.addr, align 4, !tbaa !1401, !dbg !1442
	br label %L.B0019
L.B0019:
	%126 = load double*, double** %dy.addr, align 8, !tbaa !1398, !dbg !1442
	%127 = load double, double*  %126, align 8, !tbaa !1399, !dbg !1442
	%128 = load double*, double** %y.addr, align 8, !tbaa !1398, !dbg !1442
	%129 = load double, double*  %128, align 8, !tbaa !1399, !dbg !1442
	%130 = fadd double  %127,  %129, !dbg !1442
	store double  %130, double*  %128, align 8, !tbaa !1399, !dbg !1442
	%131 = load i64, i64* %.ndk0004.addr, align 8, !tbaa !1451, !dbg !1442
	%132 = add i64  %131, 1, !dbg !1442
	store i64  %132, i64* %.ndk0004.addr, align 8, !tbaa !1451, !dbg !1442
	%133 = load i64, i64* %.lcr051025.addr, align 8, !tbaa !1451, !dbg !1442
	%134 = icmp slt i64  %132,  %133, !dbg !1442
	br i1  %134, label %L.B0165, label %L.B0166, !dbg !1442
L.B0166:
	ret void, !dbg !1441
}

%struct._ZNSt8ios_base14_Callback_listE = type <{ %struct._ZNSt8ios_base14_Callback_listE*, void (i32, %struct._ZSt8ios_base*, i32)*, i32, i32}> 
%struct._ZSt7num_putIcSt19ostreambuf_iteratorIcSt11char_traitsIcEEE = type <{ %struct.__SO__NSt6locale5facetE, [4 x i8]}> 
%struct._ZNSt6locale5facetE = type <{ i32 (...)* (...)*, i32, [4 x i8]}> 
%struct.__SO__NSt6locale5facetE = type <{ i32 (...)* (...)*, i32}> 
%struct._ZNSt8ios_base6_WordsE = type <{ i8*, i64}> 
%struct._ZSo = type <{ i32 (...)* (...)*, %struct._ZSt9basic_iosIcSt11char_traitsIcEE}> 
%struct.__locale_data = type opaque
%struct._ZSt8ios_base = type <{ i32 (...)* (...)*, i64, i64, i32, i32, i32, [4 x i8], %struct._ZNSt8ios_base14_Callback_listE*, %struct._ZNSt8ios_base6_WordsE, [8 x %struct._ZNSt8ios_base6_WordsE], i32, [4 x i8], %struct._ZNSt8ios_base6_WordsE*, %struct._ZSt6locale}> 
%struct._ZSt5ctypeIcE = type <{ %struct.__SO__NSt6locale5facetE, [4 x i8], %struct.__locale_struct*, i8, [7 x i8], i32*, i32*, i16*, i8, [256 x i8], [256 x i8], i8, [6 x i8]}> 
%struct._ZSt9basic_iosIcSt11char_traitsIcEE = type <{ %struct._ZSt8ios_base, %struct._ZSo*, i8, i8, [6 x i8], %struct._ZSt15basic_streambufIcSt11char_traitsIcEE*, %struct._ZSt5ctypeIcE*, %struct._ZSt7num_putIcSt19ostreambuf_iteratorIcSt11char_traitsIcEEE*, %struct._ZSt7num_getIcSt19istreambuf_iteratorIcSt11char_traitsIcEEE*}> 
%struct._ZSt6locale = type <{ %struct._ZNSt6locale5_ImplE*}> 
%struct._ZSt15basic_streambufIcSt11char_traitsIcEE = type <{ i32 (...)* (...)*, i8*, i8*, i8*, i8*, i8*, i8*, %struct._ZSt6locale}> 
%struct.__locale_struct = type <{ [13 x %struct.__locale_data*], i16*, i32*, i32*, [13 x i8*]}> 
%struct._ZSt7num_getIcSt19istreambuf_iteratorIcSt11char_traitsIcEEE = type <{ %struct.__SO__NSt6locale5facetE, [4 x i8]}> 
%struct._ZNSt6locale5_ImplE = type <{ i32, [4 x i8], %struct._ZNSt6locale5facetE**, i64, %struct._ZNSt6locale5facetE**, i8**}> 

define internal void @_ZN47_INTERNAL_25_backgroundfield_quadr_cpp_6e0a93656ratintEPKdS1_idRdS2_(double* %xa.arg, double* %ya.arg, i32 signext %n.arg, double %x.arg, double* %y.arg, double* %dy.arg) #0 !dbg !1453 {
L.entry:
	%xa.addr = alloca double*, align 8
	%ya.addr = alloca double*, align 8
	%n.addr = alloca i32, align 4
	%x.addr = alloca double, align 8
	%y.addr = alloca double*, align 8
	%dy.addr = alloca double*, align 8
	%ns.addr = alloca i32, align 4
	%hh.addr = alloca double, align 8
	%i.addr = alloca i32, align 4
	%.lcr012049.addr = alloca i32, align 4
	%h.addr = alloca double, align 8
	%C.addr = alloca [20 x double], align 8
	%D.addr = alloca [20 x double], align 8
	%.D0007.addr = alloca i32, align 4
	%m1.addr = alloca i32, align 4
	%.x2049.addr = alloca i32, align 4
	%.lcr012050.addr = alloca i32, align 4
	%.G0011.addr = alloca i8*, align 8
	%w.addr = alloca double, align 8
	%t.addr = alloca double, align 8
	%dd.addr = alloca double, align 8
	%..inline.addr = alloca %struct._ZSt9basic_iosIcSt11char_traitsIcEE*, align 8
	%..inline.addr.1 = alloca %struct._ZSt9basic_iosIcSt11char_traitsIcEE*, align 8
	%..inline.addr.2 = alloca i32, align 4
	%..inline.addr.3 = alloca i64, align 8
	%.Q0003.addr = alloca %struct._ZSo*, align 8
	%.I0000.addr = alloca double, align 8

	call void @llvm.dbg.declare (metadata double** %xa.addr, metadata !1477, metadata !1366), !dbg !1454
	store double* %xa.arg, double** %xa.addr, align 8, !tbaa !1398
	call void @llvm.dbg.declare (metadata double** %xa.addr, metadata !1478, metadata !1366), !dbg !1454
	call void @llvm.dbg.declare (metadata double** %ya.addr, metadata !1479, metadata !1366), !dbg !1454
	store double* %ya.arg, double** %ya.addr, align 8, !tbaa !1398
	call void @llvm.dbg.declare (metadata double** %ya.addr, metadata !1480, metadata !1366), !dbg !1454
	call void @llvm.dbg.declare (metadata i32* %n.addr, metadata !1481, metadata !1366), !dbg !1454
	store i32 %n.arg, i32* %n.addr, align 4, !tbaa !1399
	call void @llvm.dbg.declare (metadata i32* %n.addr, metadata !1482, metadata !1366), !dbg !1454
	call void @llvm.dbg.declare (metadata double* %x.addr, metadata !1483, metadata !1366), !dbg !1454
	store double %x.arg, double* %x.addr, align 8, !tbaa !1399
	call void @llvm.dbg.declare (metadata double* %x.addr, metadata !1484, metadata !1366), !dbg !1454
	call void @llvm.dbg.declare (metadata double** %y.addr, metadata !1485, metadata !1366), !dbg !1454
	store double* %y.arg, double** %y.addr, align 8, !tbaa !1398
	call void @llvm.dbg.declare (metadata double** %y.addr, metadata !1486, metadata !1366), !dbg !1454
	call void @llvm.dbg.declare (metadata double** %dy.addr, metadata !1487, metadata !1366), !dbg !1454
	store double* %dy.arg, double** %dy.addr, align 8, !tbaa !1398
	call void @llvm.dbg.declare (metadata double** %dy.addr, metadata !1488, metadata !1366), !dbg !1454
	call void @llvm.dbg.declare (metadata i32* %ns.addr, metadata !1490, metadata !1366), !dbg !1454
	store i32 0, i32* %ns.addr, align 4, !tbaa !1401, !dbg !1489
	%0 = load double, double* %x.addr, align 8, !tbaa !1403, !dbg !1491
	%1 = load double*, double** %xa.addr, align 8, !tbaa !1398, !dbg !1491
	%2 = load double, double*  %1, align 8, !tbaa !1399, !dbg !1491
	%3 = fsub double  %0,  %2, !dbg !1491
	%4 = call double @llvm.fabs.f64 (double  %3), !dbg !1491
	call void @llvm.dbg.declare (metadata double* %hh.addr, metadata !1492, metadata !1366), !dbg !1454
	store double  %4, double* %hh.addr, align 8, !tbaa !1403, !dbg !1491
	call void @llvm.dbg.declare (metadata i32* %i.addr, metadata !1494, metadata !1366), !dbg !1454
	store i32 0, i32* %i.addr, align 4, !tbaa !1401, !dbg !1493
	%5 = load i32, i32* %n.addr, align 4, !tbaa !1401, !dbg !1493
	%6 = icmp sle i32  %5, 0, !dbg !1493
	br i1  %6, label %L.B0022, label %L.B0176, !dbg !1493
L.B0176:
	store i32  %5, i32* %.lcr012049.addr, align 4, !tbaa !1401, !dbg !1493
	br label %L.B0021
L.B0021:
	%7 = load double, double* %x.addr, align 8, !tbaa !1403, !dbg !1495
	%8 = load i32, i32* %i.addr, align 4, !tbaa !1401, !dbg !1495
	%9 = sext i32  %8 to i64, !dbg !1495
	%10 = load double*, double** %xa.addr, align 8, !tbaa !1398, !dbg !1495
	%11 = getelementptr double, double*  %10, i64  %9, !dbg !1495
	%12 = load double, double*  %11, align 8, !tbaa !1399, !dbg !1495
	%13 = fsub double  %7,  %12, !dbg !1495
	%14 = call double @llvm.fabs.f64 (double  %13), !dbg !1495
	call void @llvm.dbg.declare (metadata double* %h.addr, metadata !1496, metadata !1366), !dbg !1454
	store double  %14, double* %h.addr, align 8, !tbaa !1403, !dbg !1495
	%15 = fcmp une double  %14,  0.00000000000000000E+0, !dbg !1497
	br i1  %15, label %L.B0023, label %L.B0177, !dbg !1497
L.B0177:
	%16 = load i32, i32* %i.addr, align 4, !tbaa !1401, !dbg !1498
	%17 = sext i32  %16 to i64, !dbg !1498
	%18 = load double*, double** %ya.addr, align 8, !tbaa !1398, !dbg !1498
	%19 = getelementptr double, double*  %18, i64  %17, !dbg !1498
	%20 = load double, double*  %19, align 8, !tbaa !1399, !dbg !1498
	%21 = load double*, double** %y.addr, align 8, !tbaa !1398, !dbg !1498
	store double  %20, double*  %21, align 8, !tbaa !1399, !dbg !1498
	%22 = load double*, double** %dy.addr, align 8, !tbaa !1398, !dbg !1499
	store double  0.00000000000000000E+0, double*  %22, align 8, !tbaa !1399, !dbg !1499
	br label %L.R0002, !dbg !1500
L.B0023:
	%23 = load double, double* %h.addr, align 8, !tbaa !1403, !dbg !1501
	%24 = load double, double* %hh.addr, align 8, !tbaa !1403, !dbg !1501
	%25 = fcmp uge double  %23,  %24, !dbg !1501
	br i1  %25, label %L.B0025, label %L.B0178, !dbg !1501
L.B0178:
	%26 = load i32, i32* %i.addr, align 4, !tbaa !1401, !dbg !1502
	store i32  %26, i32* %ns.addr, align 4, !tbaa !1401, !dbg !1502
	store double  %23, double* %hh.addr, align 8, !tbaa !1403, !dbg !1503
	br label %L.B0025
L.B0025:
	%27 = load i32, i32* %i.addr, align 4, !tbaa !1401, !dbg !1504
	%28 = sext i32  %27 to i64, !dbg !1504
	%29 = load double*, double** %ya.addr, align 8, !tbaa !1398, !dbg !1504
	%30 = getelementptr double, double*  %29, i64  %28, !dbg !1504
	%31 = load double, double*  %30, align 8, !tbaa !1399, !dbg !1504
	call void @llvm.dbg.declare (metadata [20 x double]* %C.addr, metadata !1505, metadata !1366), !dbg !1454
	%32 = bitcast [20 x double]* %C.addr to double*, !dbg !1504
	%33 = getelementptr double, double*  %32, i64  %28, !dbg !1504
	store double  %31, double*  %33, align 8, !tbaa !1399, !dbg !1504
	%34 = load i32, i32* %i.addr, align 4, !tbaa !1401, !dbg !1506
	%35 = sext i32  %34 to i64, !dbg !1506
	%36 = load double*, double** %ya.addr, align 8, !tbaa !1398, !dbg !1506
	%37 = getelementptr double, double*  %36, i64  %35, !dbg !1506
	%38 = load double, double*  %37, align 8, !tbaa !1399, !dbg !1506
	%39 = fadd double  %38,  1.00000000000000008E-30, !dbg !1506
	call void @llvm.dbg.declare (metadata [20 x double]* %D.addr, metadata !1507, metadata !1366), !dbg !1454
	%40 = bitcast [20 x double]* %D.addr to double*, !dbg !1506
	%41 = getelementptr double, double*  %40, i64  %35, !dbg !1506
	store double  %39, double*  %41, align 8, !tbaa !1399, !dbg !1506
	%42 = load i32, i32* %i.addr, align 4, !tbaa !1401, !dbg !1508

	%43 = add i32  %42, 1, !dbg !1508
	store i32  %43, i32* %i.addr, align 4, !tbaa !1401, !dbg !1508
	%44 = load i32, i32* %.lcr012049.addr, align 4, !tbaa !1401, !dbg !1508
	%45 = icmp slt i32  %43,  %44, !dbg !1508
	br i1  %45, label %L.B0021, label %L.B0022, !dbg !1508
L.B0022:
	%46 = load i32, i32* %ns.addr, align 4, !tbaa !1401, !dbg !1509

	%47 = sub i32  %46, 1, !dbg !1509
	store i32  %47, i32* %ns.addr, align 4, !tbaa !1401, !dbg !1509
	%48 = sext i32  %46 to i64, !dbg !1509
	%49 = load double*, double** %ya.addr, align 8, !tbaa !1398, !dbg !1509
	%50 = getelementptr double, double*  %49, i64  %48, !dbg !1509
	%51 = load double, double*  %50, align 8, !tbaa !1399, !dbg !1509
	%52 = load double*, double** %y.addr, align 8, !tbaa !1398, !dbg !1509
	store double  %51, double*  %52, align 8, !tbaa !1399, !dbg !1509
	call void @llvm.dbg.declare (metadata i32* %m1.addr, metadata !1511, metadata !1366), !dbg !1454
	store i32 1, i32* %m1.addr, align 4, !tbaa !1401, !dbg !1510
	%53 = load i32, i32* %n.addr, align 4, !tbaa !1401, !dbg !1510
	%54 = icmp sge i32 1,  %53, !dbg !1510
	br i1  %54, label %L.B0027, label %L.B0179, !dbg !1510
L.B0179:
	%55 = sub i32  %53, 1, !dbg !1510
	store i32  %55, i32* %.x2049.addr, align 4, !tbaa !1401, !dbg !1510
	br label %L.B0026
L.B0026:
	store i32 0, i32* %i.addr, align 4, !tbaa !1401, !dbg !1512
	%56 = load i32, i32* %n.addr, align 4, !tbaa !1401, !dbg !1512
	%57 = load i32, i32* %m1.addr, align 4, !tbaa !1401, !dbg !1512
	%58 = sub i32  %56,  %57, !dbg !1512
	%59 = icmp sle i32  %58, 0, !dbg !1512
	br i1  %59, label %L.B0029, label %L.B0180, !dbg !1512
L.B0180:
	store i32  %58, i32* %.lcr012050.addr, align 4, !tbaa !1401, !dbg !1512
	%60 = bitcast [20 x double]* %C.addr to i8*, !dbg !1512
	%61 = getelementptr i8, i8*  %60, i64 8, !dbg !1512
	store i8*  %61, i8** %.G0011.addr, align 8, !tbaa !1398, !dbg !1512
	br label %L.B0028
L.B0028:
	%62 = load i8*, i8** %.G0011.addr, align 8, !tbaa !1398, !dbg !1513
	%63 = bitcast i8*  %62 to double*, !dbg !1513
	%64 = load double, double*  %63, align 8, !tbaa !1399, !dbg !1513
	%65 = load i32, i32* %i.addr, align 4, !tbaa !1401, !dbg !1513
	%66 = sext i32  %65 to i64, !dbg !1513
	%67 = bitcast [20 x double]* %D.addr to double*, !dbg !1513
	%68 = getelementptr double, double*  %67, i64  %66, !dbg !1513
	%69 = load double, double*  %68, align 8, !tbaa !1399, !dbg !1513
	%70 = fsub double  %64,  %69, !dbg !1513
	call void @llvm.dbg.declare (metadata double* %w.addr, metadata !1514, metadata !1366), !dbg !1454
	store double  %70, double* %w.addr, align 8, !tbaa !1403, !dbg !1513
	%71 = load i32, i32* %i.addr, align 4, !tbaa !1401, !dbg !1515
	%72 = load i32, i32* %m1.addr, align 4, !tbaa !1401, !dbg !1515
	%73 = add i32  %71,  %72, !dbg !1515
	%74 = sext i32  %73 to i64, !dbg !1515
	%75 = load double*, double** %xa.addr, align 8, !tbaa !1398, !dbg !1515
	%76 = getelementptr double, double*  %75, i64  %74, !dbg !1515
	%77 = load double, double*  %76, align 8, !tbaa !1399, !dbg !1515
	%78 = load double, double* %x.addr, align 8, !tbaa !1403, !dbg !1515
	%79 = fsub double  %77,  %78, !dbg !1515
	%80 = sext i32  %71 to i64, !dbg !1516
	%81 = getelementptr double, double*  %67, i64  %80, !dbg !1516
	%82 = load double, double*  %81, align 8, !tbaa !1399, !dbg !1516
	%83 = getelementptr double, double*  %75, i64  %80, !dbg !1516
	%84 = load double, double*  %83, align 8, !tbaa !1399, !dbg !1516
	%85 = fsub double  %84,  %78, !dbg !1516
	%86 = fmul double  %82,  %85, !dbg !1516
	%87 = fdiv double  %86,  %79, !dbg !1516
	call void @llvm.dbg.declare (metadata double* %t.addr, metadata !1517, metadata !1366), !dbg !1454
	store double  %87, double* %t.addr, align 8, !tbaa !1403, !dbg !1516
	%88 = load i8*, i8** %.G0011.addr, align 8, !tbaa !1398, !dbg !1518
	%89 = bitcast i8*  %88 to double*, !dbg !1518
	%90 = load double, double*  %89, align 8, !tbaa !1399, !dbg !1518
	%91 = fsub double  %87,  %90, !dbg !1518
	call void @llvm.dbg.declare (metadata double* %dd.addr, metadata !1519, metadata !1366), !dbg !1454
	store double  %91, double* %dd.addr, align 8, !tbaa !1403, !dbg !1518
	%92 = fcmp une double  %91,  0.00000000000000000E+0, !dbg !1520
	br i1  %92, label %L.B0030, label %L.B0181, !dbg !1520
L.B0181:
	%93 = bitcast [21 x i8]* @.S08003 to i8*, !dbg !1521
	%94 = icmp ne i8*  %93,  null, !dbg !1521
	br i1  %94, label %L..inline.10044, label %L.B0182, !dbg !1521
L.B0182:
	%95 = bitcast %struct._ZSo* @_ZSt4cerr to i8*, !dbg !1522
	%96 = bitcast %struct._ZSo* @_ZSt4cerr to i8**, !dbg !1522
	%97 = load i8*, i8**  %96, align 8, !tbaa !1398, !dbg !1522
	%98 = getelementptr i8, i8*  %97, i64 18446744073709551592, !dbg !1522
	%99 = bitcast i8*  %98 to i64*, !dbg !1522
	%100 = load i64, i64*  %99, align 8, !tbaa !1399, !dbg !1522
	%101 = getelementptr i8, i8*  %95, i64  %100, !dbg !1522
	%102 = bitcast %struct._ZSt9basic_iosIcSt11char_traitsIcEE** %..inline.addr to i8**, !dbg !1522
	store i8*  %101, i8**  %102, align 8, !tbaa !1398, !dbg !1522
	%103 = load %struct._ZSt9basic_iosIcSt11char_traitsIcEE*, %struct._ZSt9basic_iosIcSt11char_traitsIcEE** %..inline.addr, align 8, !tbaa !1398, !dbg !1522
	%104 = bitcast %struct._ZSt9basic_iosIcSt11char_traitsIcEE*  %103 to i8*, !dbg !1522
	%105 = bitcast %struct._ZSt9basic_iosIcSt11char_traitsIcEE** %..inline.addr.1 to i8**, !dbg !1522
	store i8*  %104, i8**  %105, align 8, !tbaa !1398, !dbg !1522
	%106 = load %struct._ZSt9basic_iosIcSt11char_traitsIcEE*, %struct._ZSt9basic_iosIcSt11char_traitsIcEE** %..inline.addr.1, align 8, !tbaa !1398, !dbg !1522
	%107 = bitcast %struct._ZSt9basic_iosIcSt11char_traitsIcEE*  %106 to i8*, !dbg !1522
	%108 = getelementptr i8, i8*  %107, i64 32, !dbg !1522
	%109 = bitcast i8*  %108 to i32*, !dbg !1522
	%110 = load i32, i32*  %109, align 4, !tbaa !1399, !dbg !1522
	%111 = or i32  %110, 1, !dbg !1522
	call void  @_ZNSt9basic_iosIcSt11char_traitsIcEE5clearESt12_Ios_Iostate (%struct._ZSt9basic_iosIcSt11char_traitsIcEE*  %103, i32  %111), !dbg !1522
	br label %L..inline.10065, !dbg !1522
L..inline.10044:
	%112 = bitcast [21 x i8]* @.S08003 to i8*, !dbg !1525
	%113 = call i64  @strlen (i8*  %112) nounwind, !dbg !1525
	%114 = call %struct._ZSo*  @_ZSt16__ostream_insertIcSt11char_traitsIcEERSt13basic_ostreamIT_T0_ES6_PKS3_l (%struct._ZSo* @_ZSt4cerr, i8*  %112, i64  %113), !dbg !1525
	%115 = bitcast %struct._ZSo*  %114 to i8*, !dbg !1525
	%116 = bitcast %struct._ZSo** %.Q0003.addr to i8**, !dbg !1525
	store i8*  %115, i8**  %116, align 8, !tbaa !1398, !dbg !1525
	br label %L..inline.10065
L..inline.10065:
	call void  @exit (i32 111) nounwind noreturn, !dbg !1526
	br label %L.B0030
L.B0030:
	%117 = load double, double* %w.addr, align 8, !tbaa !1403, !dbg !1527
	%118 = load double, double* %dd.addr, align 8, !tbaa !1403, !dbg !1527
	%119 = fdiv double  %117,  %118, !dbg !1527
	%120 = load i8*, i8** %.G0011.addr, align 8, !tbaa !1398, !dbg !1528
	%121 = bitcast i8*  %120 to double*, !dbg !1528
	%122 = load double, double*  %121, align 8, !tbaa !1399, !dbg !1528
	%123 = fmul double  %119,  %122, !dbg !1528
	%124 = load i32, i32* %i.addr, align 4, !tbaa !1401, !dbg !1528
	%125 = sext i32  %124 to i64, !dbg !1528
	%126 = bitcast [20 x double]* %D.addr to double*, !dbg !1528
	%127 = getelementptr double, double*  %126, i64  %125, !dbg !1528
	store double  %123, double*  %127, align 8, !tbaa !1399, !dbg !1528
	%128 = load double, double* %t.addr, align 8, !tbaa !1403, !dbg !1529
	%129 = fmul double  %128,  %119, !dbg !1529
	%130 = getelementptr i8, i8*  %120, i64 18446744073709551608, !dbg !1529
	%131 = bitcast i8*  %130 to double*, !dbg !1529
	store double  %129, double*  %131, align 8, !tbaa !1399, !dbg !1529

	%132 = add i32  %124, 1, !dbg !1530
	store i32  %132, i32* %i.addr, align 4, !tbaa !1401, !dbg !1530
	%133 = getelementptr i8, i8*  %120, i64 8, !dbg !1512
	store i8*  %133, i8** %.G0011.addr, align 8, !tbaa !1398, !dbg !1512
	%134 = load i32, i32* %.lcr012050.addr, align 4, !tbaa !1401, !dbg !1530
	%135 = icmp slt i32  %132,  %134, !dbg !1530
	br i1  %135, label %L.B0028, label %L.B0029, !dbg !1530
L.B0029:
	%136 = load i32, i32* %ns.addr, align 4, !tbaa !1401, !dbg !1531
	%137 = add i32  %136, 1, !dbg !1531
	%138 = mul i32  %137, 2, !dbg !1531
	%139 = load i32, i32* %n.addr, align 4, !tbaa !1401, !dbg !1531
	%140 = load i32, i32* %m1.addr, align 4, !tbaa !1401, !dbg !1531
	%141 = sub i32  %139,  %140, !dbg !1531
	%142 = icmp sge i32  %138,  %141, !dbg !1531
	br i1  %142, label %L.B0031, label %L.B0183, !dbg !1531
L.B0183:
	%143 = sext i32  %136 to i64, !dbg !1531
	%144 = bitcast [20 x double]* %C.addr to i8*, !dbg !1531
	%145 = getelementptr i8, i8*  %144, i64 8, !dbg !1531
	%146 = bitcast i8*  %145 to double*, !dbg !1531
	%147 = getelementptr double, double*  %146, i64  %143, !dbg !1531
	%148 = load double, double*  %147, align 8, !tbaa !1399, !dbg !1531
	store double  %148, double* %.I0000.addr, align 8, !tbaa !1403, !dbg !1531
	br label %L.B0032, !dbg !1531
L.B0031:
	%149 = load i32, i32* %ns.addr, align 4, !tbaa !1401, !dbg !1531

	%150 = sub i32  %149, 1, !dbg !1531
	store i32  %150, i32* %ns.addr, align 4, !tbaa !1401, !dbg !1531
	%151 = sext i32  %149 to i64, !dbg !1531
	%152 = bitcast [20 x double]* %D.addr to double*, !dbg !1531
	%153 = getelementptr double, double*  %152, i64  %151, !dbg !1531
	%154 = load double, double*  %153, align 8, !tbaa !1399, !dbg !1531
	store double  %154, double* %.I0000.addr, align 8, !tbaa !1403, !dbg !1531
	br label %L.B0032
L.B0032:
	%155 = load double, double* %.I0000.addr, align 8, !tbaa !1403, !dbg !1531
	%156 = load double*, double** %dy.addr, align 8, !tbaa !1398, !dbg !1531
	store double  %155, double*  %156, align 8, !tbaa !1399, !dbg !1531
	%157 = load double*, double** %y.addr, align 8, !tbaa !1398, !dbg !1531
	%158 = load double, double*  %157, align 8, !tbaa !1399, !dbg !1531
	%159 = fadd double  %158,  %155, !dbg !1531
	store double  %159, double*  %157, align 8, !tbaa !1399, !dbg !1531
	%160 = load i32, i32* %m1.addr, align 4, !tbaa !1401, !dbg !1532

	%161 = add i32  %160, 1, !dbg !1532
	store i32  %161, i32* %m1.addr, align 4, !tbaa !1401, !dbg !1532
	%162 = load i32, i32* %.x2049.addr, align 4, !tbaa !1401, !dbg !1510
	%163 = sub i32  %162, 1, !dbg !1510
	store i32  %163, i32* %.x2049.addr, align 4, !tbaa !1401, !dbg !1510
	%164 = icmp sgt i32  %163, 0, !dbg !1532
	br i1  %164, label %L.B0026, label %L.B0027, !dbg !1532
L.B0027:
	br label %L.N0002
L.N0002:
	br label %L.R0002
L.R0002:
	ret void, !dbg !1533
}
define double @_Z14Romberg_simpleRK11T1DFunctionddd(%struct.T1DFunction* %func.arg, double %a.arg, double %b.arg, double %absacc.arg) #0 !dbg !1537 {
L.entry:
	%func.addr = alloca %struct.T1DFunction*, align 8
	%a.addr = alloca double, align 8
	%b.addr = alloca double, align 8
	%absacc.addr = alloca double, align 8
	%it.addr = alloca i32, align 4
	%H.addr = alloca [9 x double], align 8
	%dresult.addr = alloca double, align 8
	%j.addr = alloca i32, align 4
	%.x3073.addr = alloca i32, align 4
	%S.addr = alloca [9 x double], align 8
	%.G0035.addr = alloca i8*, align 8
	%.G0033.addr = alloca i8*, align 8
	%..inline.addr = alloca %struct.T1DFunction*, align 8
	%..inline.addr.1 = alloca double, align 8
	%..inline.addr.2 = alloca double, align 8
	%..inline.addr.3 = alloca double*, align 8
	%.Q0004.addr = alloca double, align 8
	%.Q0005.addr = alloca double, align 8
	%..inline.addr.4 = alloca double, align 8
	%..inline.addr.5 = alloca double, align 8
	%..inline.addr.6 = alloca double, align 8
	%.x3074.addr = alloca i32, align 4
	%.Q0006.addr = alloca double, align 8
	%result.addr = alloca double, align 8
	%k1.addr = alloca i32, align 4
	%..inline.addr.7 = alloca double*, align 8
	%..inline.addr.8 = alloca double*, align 8
	%..inline.addr.9 = alloca i32, align 4
	%..inline.addr.320 = alloca i32, align 4
	%..inline.addr.330 = alloca double, align 8
	%.ndi0006.addr = alloca i32, align 4
	%.lcr013074.addr = alloca i32, align 4
	%..inline.addr.360 = alloca double, align 8
	%..inline.addr.370 = alloca [20 x double], align 8
	%..inline.addr.380 = alloca [20 x double], align 8
	%.TRP0002.addr = alloca i64, align 8
	%.ndk0012.addr = alloca i64, align 8
	%.lcr053074.addr = alloca i64, align 8
	%.TRP0003.addr = alloca i64, align 8
	%.ndk0014.addr = alloca i64, align 8
	%.lcr053075.addr = alloca i64, align 8
	%.r4.0386.addr = alloca i32, align 4
	%.G0020.addr = alloca i8*, align 8
	%..inline.addr.470 = alloca double, align 8
	%..inline.addr.480 = alloca double, align 8
	%..inline.addr.490 = alloca double, align 8

	call void @llvm.dbg.declare (metadata %struct.T1DFunction** %func.addr, metadata !1565, metadata !1366), !dbg !1538
	store %struct.T1DFunction* %func.arg, %struct.T1DFunction** %func.addr, align 8, !tbaa !1398
	call void @llvm.dbg.declare (metadata %struct.T1DFunction** %func.addr, metadata !1566, metadata !1366), !dbg !1538
	call void @llvm.dbg.declare (metadata double* %a.addr, metadata !1567, metadata !1366), !dbg !1538
	store double %a.arg, double* %a.addr, align 8, !tbaa !1399
	call void @llvm.dbg.declare (metadata double* %a.addr, metadata !1568, metadata !1366), !dbg !1538
	call void @llvm.dbg.declare (metadata double* %b.addr, metadata !1569, metadata !1366), !dbg !1538
	store double %b.arg, double* %b.addr, align 8, !tbaa !1399
	call void @llvm.dbg.declare (metadata double* %b.addr, metadata !1570, metadata !1366), !dbg !1538
	call void @llvm.dbg.declare (metadata double* %absacc.addr, metadata !1571, metadata !1366), !dbg !1538
	store double %absacc.arg, double* %absacc.addr, align 8, !tbaa !1399
	call void @llvm.dbg.declare (metadata double* %absacc.addr, metadata !1572, metadata !1366), !dbg !1538
	call void @llvm.dbg.declare (metadata i32* %it.addr, metadata !1574, metadata !1366), !dbg !1538
	store i32 0, i32* %it.addr, align 4, !tbaa !1401, !dbg !1573
	call void @llvm.dbg.declare (metadata [9 x double]* %H.addr, metadata !1579, metadata !1366), !dbg !1538
	%0 = bitcast [9 x double]* %H.addr to double*, !dbg !1575
	store double  1.00000000000000000E+0, double*  %0, align 8, !tbaa !1399, !dbg !1575
	call void @llvm.dbg.declare (metadata double* %dresult.addr, metadata !1581, metadata !1366), !dbg !1538
	store double  0.00000000000000000E+0, double* %dresult.addr, align 8, !tbaa !1403, !dbg !1580
	call void @llvm.dbg.declare (metadata i32* %j.addr, metadata !1583, metadata !1366), !dbg !1538
	store i32 1, i32* %j.addr, align 4, !tbaa !1401, !dbg !1582
	store i32 8, i32* %.x3073.addr, align 4, !tbaa !1401, !dbg !1582
	call void @llvm.dbg.declare (metadata [9 x double]* %S.addr, metadata !1584, metadata !1366), !dbg !1538
	%1 = bitcast [9 x double]* %S.addr to i8*, !dbg !1582
	%2 = getelementptr i8, i8*  %1, i64 8, !dbg !1582
	store i8*  %2, i8** %.G0035.addr, align 8, !tbaa !1398, !dbg !1582
	%3 = bitcast [9 x double]* %H.addr to i8*, !dbg !1582
	%4 = getelementptr i8, i8*  %3, i64 8, !dbg !1582
	store i8*  %4, i8** %.G0033.addr, align 8, !tbaa !1398, !dbg !1582
	br label %L.B0033
L.B0033:
	%5 = load %struct.T1DFunction*, %struct.T1DFunction** %func.addr, align 8, !tbaa !1398, !dbg !1585
	%6 = bitcast %struct.T1DFunction*  %5 to i8*, !dbg !1585
	%7 = bitcast %struct.T1DFunction** %..inline.addr to i8**, !dbg !1585
	store i8*  %6, i8**  %7, align 8, !tbaa !1398, !dbg !1585
	%8 = load double, double* %a.addr, align 8, !tbaa !1403, !dbg !1585
	store double  %8, double* %..inline.addr.1, align 8, !tbaa !1403, !dbg !1585
	%9 = load double, double* %b.addr, align 8, !tbaa !1403, !dbg !1585
	store double  %9, double* %..inline.addr.2, align 8, !tbaa !1403, !dbg !1585
	%10 = bitcast [9 x double]* %S.addr to i8*, !dbg !1585
	%11 = load i32, i32* %j.addr, align 4, !tbaa !1401, !dbg !1585
	%12 = sext i32  %11 to i64, !dbg !1585
	%13 = sub i64  %12, 1, !dbg !1585
	%14 = mul i64  %13, 8, !dbg !1585
	%15 = getelementptr i8, i8*  %10, i64  %14, !dbg !1585
	%16 = bitcast double** %..inline.addr.3 to i8**, !dbg !1585
	store i8*  %15, i8**  %16, align 8, !tbaa !1398, !dbg !1585
	%17 = icmp ne i32  %11, 1, !dbg !1585
	br i1  %17, label %L..inline.10296, label %L.B0203, !dbg !1585
L.B0203:
	%18 = load %struct.T1DFunction*, %struct.T1DFunction** %..inline.addr, align 8, !tbaa !1398, !dbg !1586
	%19 = bitcast %struct.T1DFunction*  %18 to double (%struct.T1DFunction*, double)***, !dbg !1586
	%20 = load double (%struct.T1DFunction*, double)**, double (%struct.T1DFunction*, double)***  %19, align 8, !tbaa !1398, !dbg !1586
	%21 = load double (%struct.T1DFunction*, double)*, double (%struct.T1DFunction*, double)**  %20, align 8, !tbaa !1398, !dbg !1586
	%22 = call double  %21 (%struct.T1DFunction*  %18, double  %9), !dbg !1586
	store double  %22, double* %.Q0004.addr, align 8, !tbaa !1403, !dbg !1586
	%23 = load %struct.T1DFunction*, %struct.T1DFunction** %..inline.addr, align 8, !tbaa !1398, !dbg !1586
	%24 = load double, double* %..inline.addr.1, align 8, !tbaa !1403, !dbg !1586
	%25 = bitcast %struct.T1DFunction*  %23 to double (%struct.T1DFunction*, double)***, !dbg !1586
	%26 = load double (%struct.T1DFunction*, double)**, double (%struct.T1DFunction*, double)***  %25, align 8, !tbaa !1398, !dbg !1586
	%27 = load double (%struct.T1DFunction*, double)*, double (%struct.T1DFunction*, double)**  %26, align 8, !tbaa !1398, !dbg !1586
	%28 = call double  %27 (%struct.T1DFunction*  %23, double  %24), !dbg !1586
	store double  %28, double* %.Q0005.addr, align 8, !tbaa !1403, !dbg !1586
	%29 = load double, double* %.Q0004.addr, align 8, !tbaa !1403, !dbg !1586
	%30 = fadd double  %29,  %28, !dbg !1586
	%31 = load double, double* %..inline.addr.2, align 8, !tbaa !1403, !dbg !1586
	%32 = load double, double* %..inline.addr.1, align 8, !tbaa !1403, !dbg !1586
	%33 = fsub double  %31,  %32, !dbg !1586
	%34 = fmul double  %33,  5.00000000000000000E-1, !dbg !1586
	%35 = fmul double  %30,  %34, !dbg !1586
	%36 = load double*, double** %..inline.addr.3, align 8, !tbaa !1398, !dbg !1586
	store double  %35, double*  %36, align 8, !tbaa !1399, !dbg !1586
	store i32 1, i32* %it.addr, align 4, !tbaa !1401, !dbg !1586
	br label %L..inline.10302, !dbg !1587
L..inline.10296:
	%37 = load double, double* %..inline.addr.2, align 8, !tbaa !1403, !dbg !1588
	%38 = load double, double* %..inline.addr.1, align 8, !tbaa !1403, !dbg !1588
	%39 = fsub double  %37,  %38, !dbg !1588
	%40 = load i32, i32* %it.addr, align 4, !tbaa !1401, !dbg !1588
	%41 = sitofp i32  %40 to double, !dbg !1588
	%42 = fdiv double  %39,  %41, !dbg !1588
	store double  %42, double* %..inline.addr.4, align 8, !tbaa !1403, !dbg !1588
	%43 = call double @llvm.fma.f64 (double  %42, double  5.00000000000000000E-1, double  %38), !dbg !1589
	store double  %43, double* %..inline.addr.5, align 8, !tbaa !1403, !dbg !1589
	store double  0.00000000000000000E+0, double* %..inline.addr.6, align 8, !tbaa !1403, !dbg !1590
	%44 = icmp sle i32  %40, 0, !dbg !1591
	br i1  %44, label %L..inline.10311, label %L.B0204, !dbg !1591
L.B0204:
	store i32  %40, i32* %.x3074.addr, align 4, !tbaa !1401, !dbg !1591
	br label %L..inline.10310
L..inline.10310:
	%45 = load %struct.T1DFunction*, %struct.T1DFunction** %..inline.addr, align 8, !tbaa !1398, !dbg !1592
	%46 = load double, double* %..inline.addr.5, align 8, !tbaa !1403, !dbg !1592
	%47 = bitcast %struct.T1DFunction*  %45 to double (%struct.T1DFunction*, double)***, !dbg !1592
	%48 = load double (%struct.T1DFunction*, double)**, double (%struct.T1DFunction*, double)***  %47, align 8, !tbaa !1398, !dbg !1592
	%49 = load double (%struct.T1DFunction*, double)*, double (%struct.T1DFunction*, double)**  %48, align 8, !tbaa !1398, !dbg !1592
	%50 = call double  %49 (%struct.T1DFunction*  %45, double  %46), !dbg !1592
	store double  %50, double* %.Q0006.addr, align 8, !tbaa !1403, !dbg !1592
	%51 = load double, double* %..inline.addr.6, align 8, !tbaa !1403, !dbg !1592
	%52 = fadd double  %50,  %51, !dbg !1592
	store double  %52, double* %..inline.addr.6, align 8, !tbaa !1403, !dbg !1592
	%53 = load double, double* %..inline.addr.4, align 8, !tbaa !1403, !dbg !1592
	%54 = load double, double* %..inline.addr.5, align 8, !tbaa !1403, !dbg !1592
	%55 = fadd double  %53,  %54, !dbg !1592
	store double  %55, double* %..inline.addr.5, align 8, !tbaa !1403, !dbg !1592
	%56 = load i32, i32* %.x3074.addr, align 4, !tbaa !1401, !dbg !1591
	%57 = sub i32  %56, 1, !dbg !1591
	store i32  %57, i32* %.x3074.addr, align 4, !tbaa !1401, !dbg !1591
	%58 = icmp sgt i32  %57, 0, !dbg !1593
	br i1  %58, label %L..inline.10310, label %L..inline.10311, !dbg !1593
L..inline.10311:
	%59 = load double, double* %..inline.addr.2, align 8, !tbaa !1403, !dbg !1593
	%60 = load double, double* %..inline.addr.1, align 8, !tbaa !1403, !dbg !1593
	%61 = fsub double  %59,  %60, !dbg !1593
	%62 = load double, double* %..inline.addr.6, align 8, !tbaa !1403, !dbg !1593
	%63 = fmul double  %61,  %62, !dbg !1593
	%64 = load i32, i32* %it.addr, align 4, !tbaa !1401, !dbg !1593
	%65 = sitofp i32  %64 to double, !dbg !1593
	%66 = fdiv double  %63,  %65, !dbg !1593
	%67 = load double*, double** %..inline.addr.3, align 8, !tbaa !1398, !dbg !1593
	%68 = load double, double*  %67, align 8, !tbaa !1399, !dbg !1593
	%69 = fadd double  %66,  %68, !dbg !1593
	%70 = fmul double  %69,  5.00000000000000000E-1, !dbg !1593
	store double  %70, double*  %67, align 8, !tbaa !1399, !dbg !1593
	%71 = mul i32  %64, 2, !dbg !1594
	store i32  %71, i32* %it.addr, align 4, !tbaa !1401, !dbg !1594
	br label %L..inline.10302
L..inline.10302:
	%72 = load i8*, i8** %.G0035.addr, align 8, !tbaa !1398, !dbg !1595
	%73 = getelementptr i8, i8*  %72, i64 18446744073709551608, !dbg !1595
	%74 = bitcast i8*  %73 to double*, !dbg !1595
	%75 = load double, double*  %74, align 8, !tbaa !1399, !dbg !1595
	call void @llvm.dbg.declare (metadata double* %result.addr, metadata !1596, metadata !1366), !dbg !1538
	store double  %75, double* %result.addr, align 8, !tbaa !1403, !dbg !1595
	%76 = load i32, i32* %j.addr, align 4, !tbaa !1401, !dbg !1597
	%77 = icmp sle i32  %76, 0, !dbg !1597
	br i1  %77, label %L.B0035, label %L.B0205, !dbg !1597
L.B0205:
	%78 = icmp slt i32  %76, 3, !dbg !1598
	%79 = select i1  %78, i32  %76, i32 3, !dbg !1598
	call void @llvm.dbg.declare (metadata i32* %k1.addr, metadata !1599, metadata !1366), !dbg !1538
	%80 = bitcast [9 x double]* %H.addr to i8*, !dbg !1600
	%81 = load i32, i32* %j.addr, align 4, !tbaa !1401, !dbg !1600
	%82 = sub i32  %81,  %79, !dbg !1600
	%83 = sext i32  %82 to i64, !dbg !1600
	%84 = mul i64  %83, 8, !dbg !1600
	%85 = getelementptr i8, i8*  %80, i64  %84, !dbg !1600
	%86 = bitcast double** %..inline.addr.7 to i8**, !dbg !1600
	store i8*  %85, i8**  %86, align 8, !tbaa !1398, !dbg !1600
	%87 = bitcast [9 x double]* %S.addr to i8*, !dbg !1600
	%88 = mul i64  %83, 8, !dbg !1600
	%89 = getelementptr i8, i8*  %87, i64  %88, !dbg !1600
	%90 = bitcast double** %..inline.addr.8 to i8**, !dbg !1600
	store i8*  %89, i8**  %90, align 8, !tbaa !1398, !dbg !1600
	store i32  %79, i32* %..inline.addr.9, align 4, !tbaa !1401, !dbg !1600
	store i32 0, i32* %..inline.addr.320, align 4, !tbaa !1401, !dbg !1601
	%91 = load double*, double** %..inline.addr.7, align 8, !tbaa !1398, !dbg !1602
	%92 = load double, double*  %91, align 8, !tbaa !1399, !dbg !1602
	%93 = fsub double -0.00000000e+00,  %92, !dbg !1602
	%94 = call double @llvm.fabs.f64 (double  %93), !dbg !1602
	store double  %94, double* %..inline.addr.330, align 8, !tbaa !1403, !dbg !1602
	store i32 0, i32* %.ndi0006.addr, align 4, !tbaa !1401, !dbg !1603
	%95 = icmp slt i32  %81, 3, !dbg !1603
	%96 = select i1  %95, i32  %81, i32 3, !dbg !1603
	%97 = icmp sle i32  %96, 0, !dbg !1603
	br i1  %97, label %L.B0198, label %L.B0206, !dbg !1603
L.B0206:
	%98 = icmp slt i32  %81, 3, !dbg !1604
	%99 = select i1  %98, i32  %81, i32 3, !dbg !1604
	store i32  %99, i32* %.lcr013074.addr, align 4, !tbaa !1401, !dbg !1604
	br label %L.B0197
L.B0197:
	%100 = load i32, i32* %.ndi0006.addr, align 4, !tbaa !1401, !dbg !1603
	%101 = sext i32  %100 to i64, !dbg !1603
	%102 = load double*, double** %..inline.addr.7, align 8, !tbaa !1398, !dbg !1603
	%103 = getelementptr double, double*  %102, i64  %101, !dbg !1603
	%104 = load double, double*  %103, align 8, !tbaa !1399, !dbg !1603
	%105 = fsub double -0.00000000e+00,  %104, !dbg !1603
	%106 = call double @llvm.fabs.f64 (double  %105), !dbg !1603
	store double  %106, double* %..inline.addr.360, align 8, !tbaa !1403, !dbg !1603
	%107 = load double, double* %..inline.addr.330, align 8, !tbaa !1403, !dbg !1603
	%108 = fcmp uge double  %106,  %107, !dbg !1603
	br i1  %108, label %L..inline.10329, label %L.B0207, !dbg !1603
L.B0207:
	store i32  %100, i32* %..inline.addr.320, align 4, !tbaa !1401, !dbg !1603
	store double  %106, double* %..inline.addr.330, align 8, !tbaa !1403, !dbg !1603
	br label %L..inline.10329
L..inline.10329:
	%109 = load i32, i32* %.ndi0006.addr, align 4, !tbaa !1401, !dbg !1603
	%110 = sext i32  %109 to i64, !dbg !1603
	%111 = load double*, double** %..inline.addr.8, align 8, !tbaa !1398, !dbg !1603
	%112 = getelementptr double, double*  %111, i64  %110, !dbg !1603
	%113 = load double, double*  %112, align 8, !tbaa !1399, !dbg !1603
	%114 = bitcast [20 x double]* %..inline.addr.370 to double*, !dbg !1603
	%115 = getelementptr double, double*  %114, i64  %110, !dbg !1603
	store double  %113, double*  %115, align 8, !tbaa !1399, !dbg !1603
	%116 = bitcast [20 x double]* %..inline.addr.380 to double*, !dbg !1603
	%117 = getelementptr double, double*  %116, i64  %110, !dbg !1603
	store double  %113, double*  %117, align 8, !tbaa !1399, !dbg !1603
	%118 = add i32  %109, 1, !dbg !1603
	store i32  %118, i32* %.ndi0006.addr, align 4, !tbaa !1401, !dbg !1603
	%119 = load i32, i32* %.lcr013074.addr, align 4, !tbaa !1401, !dbg !1603
	%120 = icmp slt i32  %118,  %119, !dbg !1603
	br i1  %120, label %L.B0197, label %L.B0198, !dbg !1603
L.B0198:
	%121 = load i32, i32* %..inline.addr.320, align 4, !tbaa !1401, !dbg !1605
	%122 = sext i32  %121 to i64, !dbg !1605
	%123 = load double*, double** %..inline.addr.8, align 8, !tbaa !1398, !dbg !1605
	%124 = getelementptr double, double*  %123, i64  %122, !dbg !1605
	%125 = load double, double*  %124, align 8, !tbaa !1399, !dbg !1605
	store double  %125, double* %result.addr, align 8, !tbaa !1403, !dbg !1605

	%126 = sub i32  %121, 1, !dbg !1607
	store i32  %126, i32* %..inline.addr.320, align 4, !tbaa !1401, !dbg !1607
	%127 = load i32, i32* %..inline.addr.9, align 4, !tbaa !1401, !dbg !1598
	%128 = sext i32  %127 to i64, !dbg !1598
	%129 = sub i64  %128, 1, !dbg !1598
	store i64  %129, i64* %.TRP0002.addr, align 8, !tbaa !1449, !dbg !1598
	store i64 0, i64* %.ndk0012.addr, align 8, !tbaa !1451, !dbg !1603
	%130 = icmp sle i64  %129, 0, !dbg !1603
	br i1  %130, label %L.B0200, label %L.B0208, !dbg !1603
L.B0208:
	store i64  %129, i64* %.lcr053074.addr, align 8, !tbaa !1451, !dbg !1603
	br label %L.B0199
L.B0199:
	%131 = load i32, i32* %..inline.addr.9, align 4, !tbaa !1401, !dbg !1603
	%132 = load i64, i64* %.ndk0012.addr, align 8, !tbaa !1451, !dbg !1603
	%133 = trunc i64  %132 to i32, !dbg !1603
	%134 = sub i32  %131,  %133, !dbg !1603
	%135 = sext i32  %134 to i64, !dbg !1603
	%136 = sub i64  %135, 1, !dbg !1603
	store i64  %136, i64* %.TRP0003.addr, align 8, !tbaa !1449, !dbg !1603
	store i64 0, i64* %.ndk0014.addr, align 8, !tbaa !1451, !dbg !1603
	%137 = icmp sle i64  %136, 0, !dbg !1603
	br i1  %137, label %L.B0202, label %L.B0209, !dbg !1603
L.B0209:
	store i64  %136, i64* %.lcr053075.addr, align 8, !tbaa !1451, !dbg !1608
	store i32  %133, i32* %.r4.0386.addr, align 4, !tbaa !1401, !dbg !1608
	%138 = bitcast [20 x double]* %..inline.addr.380 to i8*, !dbg !1608
	store i8*  %138, i8** %.G0020.addr, align 8, !tbaa !1398, !dbg !1608
	br label %L.B0201
L.B0201:
	%139 = load i64, i64* %.ndk0014.addr, align 8, !tbaa !1451, !dbg !1603
	%140 = trunc i64  %139 to i32, !dbg !1603
	%141 = sext i32  %140 to i64, !dbg !1603
	%142 = load double*, double** %..inline.addr.7, align 8, !tbaa !1398, !dbg !1603
	%143 = getelementptr double, double*  %142, i64  %141, !dbg !1603
	%144 = load double, double*  %143, align 8, !tbaa !1399, !dbg !1603
	%145 = load i8*, i8** %.G0020.addr, align 8, !tbaa !1398, !dbg !1603
	%146 = getelementptr i8, i8*  %145, i64 8, !dbg !1603
	%147 = bitcast i8*  %146 to double*, !dbg !1603
	%148 = load double, double*  %147, align 8, !tbaa !1399, !dbg !1603
	%149 = bitcast [20 x double]* %..inline.addr.370 to double*, !dbg !1603
	%150 = getelementptr double, double*  %149, i64  %141, !dbg !1603
	%151 = load double, double*  %150, align 8, !tbaa !1399, !dbg !1603
	%152 = fsub double  %148,  %151, !dbg !1603
	%153 = load i32, i32* %.r4.0386.addr, align 4, !tbaa !1401, !dbg !1603
	%154 = add i32  %153,  %140, !dbg !1603
	%155 = sext i32  %154 to i64, !dbg !1603
	%156 = bitcast double*  %142 to i8*, !dbg !1603
	%157 = getelementptr i8, i8*  %156, i64 8, !dbg !1603
	%158 = bitcast i8*  %157 to double*, !dbg !1603
	%159 = getelementptr double, double*  %158, i64  %155, !dbg !1603
	%160 = load double, double*  %159, align 8, !tbaa !1399, !dbg !1603
	%161 = fsub double  %144,  %160, !dbg !1603
	%162 = fdiv double  %152,  %161, !dbg !1603
	%163 = fmul double  %162,  %160, !dbg !1603
	store double  %163, double*  %150, align 8, !tbaa !1399, !dbg !1603
	%164 = fmul double  %144,  %162, !dbg !1603
	%165 = bitcast i8*  %145 to double*, !dbg !1603
	store double  %164, double*  %165, align 8, !tbaa !1399, !dbg !1603
	%166 = add i64  %139, 1, !dbg !1603
	store i64  %166, i64* %.ndk0014.addr, align 8, !tbaa !1451, !dbg !1603
	store i8*  %146, i8** %.G0020.addr, align 8, !tbaa !1398, !dbg !1608
	%167 = load i64, i64* %.lcr053075.addr, align 8, !tbaa !1451, !dbg !1603
	%168 = icmp slt i64  %166,  %167, !dbg !1603
	br i1  %168, label %L.B0201, label %L.B0202, !dbg !1603
L.B0202:
	%169 = load i32, i32* %..inline.addr.320, align 4, !tbaa !1401, !dbg !1603
	%170 = add i32  %169, 1, !dbg !1603
	%171 = mul i32  %170, 2, !dbg !1603
	%172 = load i32, i32* %..inline.addr.9, align 4, !tbaa !1401, !dbg !1603
	%173 = load i64, i64* %.ndk0012.addr, align 8, !tbaa !1451, !dbg !1603
	%174 = trunc i64  %173 to i32, !dbg !1603
	%175 = sub i32  %172,  %174, !dbg !1603
	%176 = sub i32  %175, 1, !dbg !1603
	%177 = icmp sge i32  %171,  %176, !dbg !1603
	br i1  %177, label %L..inline.10349, label %L.B0210, !dbg !1603
L.B0210:
	%178 = sext i32  %169 to i64, !dbg !1603
	%179 = bitcast [20 x double]* %..inline.addr.380 to i8*, !dbg !1603
	%180 = getelementptr i8, i8*  %179, i64 8, !dbg !1603
	%181 = bitcast i8*  %180 to double*, !dbg !1603
	%182 = getelementptr double, double*  %181, i64  %178, !dbg !1603
	%183 = load double, double*  %182, align 8, !tbaa !1399, !dbg !1603
	store double  %183, double* %dresult.addr, align 8, !tbaa !1403, !dbg !1603
	br label %L..inline.10351, !dbg !1603
L..inline.10349:
	%184 = load i32, i32* %..inline.addr.320, align 4, !tbaa !1401, !dbg !1603
	%185 = sext i32  %184 to i64, !dbg !1603
	%186 = bitcast [20 x double]* %..inline.addr.370 to double*, !dbg !1603
	%187 = getelementptr double, double*  %186, i64  %185, !dbg !1603
	%188 = load double, double*  %187, align 8, !tbaa !1399, !dbg !1603
	store double  %188, double* %dresult.addr, align 8, !tbaa !1403, !dbg !1603

	%189 = sub i32  %184, 1, !dbg !1603
	store i32  %189, i32* %..inline.addr.320, align 4, !tbaa !1401, !dbg !1603
	br label %L..inline.10351
L..inline.10351:
	%190 = load double, double* %dresult.addr, align 8, !tbaa !1403, !dbg !1603
	%191 = load double, double* %result.addr, align 8, !tbaa !1403, !dbg !1603
	%192 = fadd double  %190,  %191, !dbg !1603
	store double  %192, double* %result.addr, align 8, !tbaa !1403, !dbg !1603
	%193 = load i64, i64* %.ndk0012.addr, align 8, !tbaa !1451, !dbg !1603
	%194 = add i64  %193, 1, !dbg !1603
	store i64  %194, i64* %.ndk0012.addr, align 8, !tbaa !1451, !dbg !1603
	%195 = load i64, i64* %.lcr053074.addr, align 8, !tbaa !1451, !dbg !1603
	%196 = icmp slt i64  %194,  %195, !dbg !1603
	br i1  %196, label %L.B0199, label %L.B0200, !dbg !1603
L.B0200:
	%197 = load double, double* %dresult.addr, align 8, !tbaa !1403, !dbg !1609
	%198 = call double @llvm.fabs.f64 (double  %197), !dbg !1609
	%199 = load double, double* %absacc.addr, align 8, !tbaa !1403, !dbg !1609
	%200 = fcmp olt double  %198,  %199, !dbg !1609
	br i1  %200, label %L.N0005, label %L.B0035, !dbg !1609
L.B0035:
	%201 = load i8*, i8** %.G0035.addr, align 8, !tbaa !1398, !dbg !1610
	%202 = getelementptr i8, i8*  %201, i64 18446744073709551608, !dbg !1610
	%203 = bitcast i8*  %202 to double*, !dbg !1610
	%204 = load double, double*  %203, align 8, !tbaa !1399, !dbg !1610
	%205 = bitcast i8*  %201 to double*, !dbg !1610
	store double  %204, double*  %205, align 8, !tbaa !1399, !dbg !1610
	%206 = load i8*, i8** %.G0033.addr, align 8, !tbaa !1398, !dbg !1611
	%207 = getelementptr i8, i8*  %206, i64 18446744073709551608, !dbg !1611
	%208 = bitcast i8*  %207 to double*, !dbg !1611
	%209 = load double, double*  %208, align 8, !tbaa !1399, !dbg !1611
	%210 = fmul double  %209,  2.50000000000000000E-1, !dbg !1611
	%211 = bitcast i8*  %206 to double*, !dbg !1611
	store double  %210, double*  %211, align 8, !tbaa !1399, !dbg !1611
	%212 = load i32, i32* %j.addr, align 4, !tbaa !1401, !dbg !1612

	%213 = add i32  %212, 1, !dbg !1612
	store i32  %213, i32* %j.addr, align 4, !tbaa !1401, !dbg !1612
	%214 = getelementptr i8, i8*  %201, i64 8, !dbg !1582
	store i8*  %214, i8** %.G0035.addr, align 8, !tbaa !1398, !dbg !1582
	%215 = getelementptr i8, i8*  %206, i64 8, !dbg !1582
	store i8*  %215, i8** %.G0033.addr, align 8, !tbaa !1398, !dbg !1582
	%216 = load i32, i32* %.x3073.addr, align 4, !tbaa !1401, !dbg !1582
	%217 = sub i32  %216, 1, !dbg !1582
	store i32  %217, i32* %.x3073.addr, align 4, !tbaa !1401, !dbg !1582
	%218 = icmp sgt i32  %217, 0, !dbg !1612
	br i1  %218, label %L.B0033, label %L.N0007, !dbg !1612
L.N0007:
	br label %L.N0005
L.N0005:
	%219 = load double, double* %result.addr, align 8, !tbaa !1403, !dbg !1613
	ret double  %219, !dbg !1613
L.N0006:
	ret double 0.0
}
define double @_Z7RombergRK11T1DFunctionddd(%struct.T1DFunction* %func.arg, double %a.arg, double %b.arg, double %absacc.arg) #0 !dbg !1616 {
L.entry:
	%func.addr = alloca %struct.T1DFunction*, align 8
	%a.addr = alloca double, align 8
	%b.addr = alloca double, align 8
	%absacc.addr = alloca double, align 8
	%it.addr = alloca i32, align 4
	%H.addr = alloca [9 x double], align 8
	%dresult_pol.addr = alloca double, align 8
	%j.addr = alloca i32, align 4
	%.x4097.addr = alloca i32, align 4
	%S.addr = alloca [9 x double], align 8
	%.G0052.addr = alloca i8*, align 8
	%.G0050.addr = alloca i8*, align 8
	%..inline.addr = alloca %struct.T1DFunction*, align 8
	%..inline.addr.1 = alloca double, align 8
	%..inline.addr.2 = alloca double, align 8
	%..inline.addr.3 = alloca double*, align 8
	%.Q0007.addr = alloca double, align 8
	%.Q0008.addr = alloca double, align 8
	%..inline.addr.4 = alloca double, align 8
	%..inline.addr.5 = alloca double, align 8
	%..inline.addr.6 = alloca double, align 8
	%.x4098.addr = alloca i32, align 4
	%.Q0009.addr = alloca double, align 8
	%result.addr = alloca double, align 8
	%k1.addr = alloca i32, align 4
	%..inline.addr.7 = alloca double*, align 8
	%..inline.addr.8 = alloca double*, align 8
	%..inline.addr.9 = alloca i32, align 4
	%..inline.addr.320 = alloca i32, align 4
	%..inline.addr.330 = alloca double, align 8
	%.ndi0010.addr = alloca i32, align 4
	%.lcr014098.addr = alloca i32, align 4
	%..inline.addr.360 = alloca double, align 8
	%..inline.addr.370 = alloca [20 x double], align 8
	%..inline.addr.380 = alloca [20 x double], align 8
	%result_pol.addr = alloca double, align 8
	%.TRP0004.addr = alloca i64, align 8
	%.ndk0020.addr = alloca i64, align 8
	%.lcr054098.addr = alloca i64, align 8
	%.TRP0005.addr = alloca i64, align 8
	%.ndk0022.addr = alloca i64, align 8
	%.lcr054099.addr = alloca i64, align 8
	%.r5.0631.addr = alloca i32, align 4
	%.G0037.addr = alloca i8*, align 8
	%..inline.addr.480 = alloca double, align 8
	%..inline.addr.490 = alloca double, align 8
	%..inline.addr.500 = alloca double, align 8
	%..inline.addr.510 = alloca double*, align 8
	%..inline.addr.520 = alloca double*, align 8
	%..inline.addr.530 = alloca i32, align 4
	%..inline.addr.540 = alloca i32, align 4
	%..inline.addr.550 = alloca double, align 8
	%..inline.addr.560 = alloca i32, align 4
	%..inline.addr.570 = alloca double, align 8
	%result_rat.addr = alloca double, align 8
	%dresult_rat.addr = alloca double, align 8
	%..inline.addr.600 = alloca [20 x double], align 8
	%..inline.addr.610 = alloca [20 x double], align 8
	%.D0019.addr = alloca i32, align 4
	%..inline.addr.630 = alloca i32, align 4
	%.lcr014099.addr = alloca i32, align 4
	%..inline.addr.650 = alloca double, align 8
	%..inline.addr.660 = alloca double, align 8
	%..inline.addr.670 = alloca double, align 8
	%..inline.addr.680 = alloca %struct._ZSt9basic_iosIcSt11char_traitsIcEE*, align 8
	%..inline.addr.690 = alloca %struct._ZSt9basic_iosIcSt11char_traitsIcEE*, align 8
	%..inline.addr.700 = alloca i32, align 4
	%..inline.addr.710 = alloca i64, align 8
	%.Q0010.addr = alloca %struct._ZSo*, align 8
	%..inline.addr.730 = alloca double, align 8
	%.D0020.addr = alloca i32, align 4
	%.I0003.addr = alloca double, align 8
	%dresult_polrat.addr = alloca double, align 8
	%dresult.addr = alloca double, align 8

	call void @llvm.dbg.declare (metadata %struct.T1DFunction** %func.addr, metadata !1668, metadata !1366), !dbg !1617
	store %struct.T1DFunction* %func.arg, %struct.T1DFunction** %func.addr, align 8, !tbaa !1398
	call void @llvm.dbg.declare (metadata %struct.T1DFunction** %func.addr, metadata !1669, metadata !1366), !dbg !1617
	call void @llvm.dbg.declare (metadata double* %a.addr, metadata !1670, metadata !1366), !dbg !1617
	store double %a.arg, double* %a.addr, align 8, !tbaa !1399
	call void @llvm.dbg.declare (metadata double* %a.addr, metadata !1671, metadata !1366), !dbg !1617
	call void @llvm.dbg.declare (metadata double* %b.addr, metadata !1672, metadata !1366), !dbg !1617
	store double %b.arg, double* %b.addr, align 8, !tbaa !1399
	call void @llvm.dbg.declare (metadata double* %b.addr, metadata !1673, metadata !1366), !dbg !1617
	call void @llvm.dbg.declare (metadata double* %absacc.addr, metadata !1674, metadata !1366), !dbg !1617
	store double %absacc.arg, double* %absacc.addr, align 8, !tbaa !1399
	call void @llvm.dbg.declare (metadata double* %absacc.addr, metadata !1675, metadata !1366), !dbg !1617
	call void @llvm.dbg.declare (metadata i32* %it.addr, metadata !1677, metadata !1366), !dbg !1617
	store i32 0, i32* %it.addr, align 4, !tbaa !1401, !dbg !1676
	call void @llvm.dbg.declare (metadata [9 x double]* %H.addr, metadata !1679, metadata !1366), !dbg !1617
	%0 = bitcast [9 x double]* %H.addr to double*, !dbg !1678
	store double  1.00000000000000000E+0, double*  %0, align 8, !tbaa !1399, !dbg !1678
	call void @llvm.dbg.declare (metadata double* %dresult_pol.addr, metadata !1681, metadata !1366), !dbg !1617
	store double  0.00000000000000000E+0, double* %dresult_pol.addr, align 8, !tbaa !1403, !dbg !1680
	call void @llvm.dbg.declare (metadata i32* %j.addr, metadata !1683, metadata !1366), !dbg !1617
	store i32 1, i32* %j.addr, align 4, !tbaa !1401, !dbg !1682
	store i32 8, i32* %.x4097.addr, align 4, !tbaa !1401, !dbg !1682
	call void @llvm.dbg.declare (metadata [9 x double]* %S.addr, metadata !1684, metadata !1366), !dbg !1617
	%1 = bitcast [9 x double]* %S.addr to i8*, !dbg !1682
	%2 = getelementptr i8, i8*  %1, i64 8, !dbg !1682
	store i8*  %2, i8** %.G0052.addr, align 8, !tbaa !1398, !dbg !1682
	%3 = bitcast [9 x double]* %H.addr to i8*, !dbg !1682
	%4 = getelementptr i8, i8*  %3, i64 8, !dbg !1682
	store i8*  %4, i8** %.G0050.addr, align 8, !tbaa !1398, !dbg !1682
	br label %L.B0039
L.B0039:
	%5 = load %struct.T1DFunction*, %struct.T1DFunction** %func.addr, align 8, !tbaa !1398, !dbg !1685
	%6 = bitcast %struct.T1DFunction*  %5 to i8*, !dbg !1685
	%7 = bitcast %struct.T1DFunction** %..inline.addr to i8**, !dbg !1685
	store i8*  %6, i8**  %7, align 8, !tbaa !1398, !dbg !1685
	%8 = load double, double* %a.addr, align 8, !tbaa !1403, !dbg !1685
	store double  %8, double* %..inline.addr.1, align 8, !tbaa !1403, !dbg !1685
	%9 = load double, double* %b.addr, align 8, !tbaa !1403, !dbg !1685
	store double  %9, double* %..inline.addr.2, align 8, !tbaa !1403, !dbg !1685
	%10 = bitcast [9 x double]* %S.addr to i8*, !dbg !1685
	%11 = load i32, i32* %j.addr, align 4, !tbaa !1401, !dbg !1685
	%12 = sext i32  %11 to i64, !dbg !1685
	%13 = sub i64  %12, 1, !dbg !1685
	%14 = mul i64  %13, 8, !dbg !1685
	%15 = getelementptr i8, i8*  %10, i64  %14, !dbg !1685
	%16 = bitcast double** %..inline.addr.3 to i8**, !dbg !1685
	store i8*  %15, i8**  %16, align 8, !tbaa !1398, !dbg !1685
	%17 = icmp ne i32  %11, 1, !dbg !1685
	br i1  %17, label %L..inline.10790, label %L.B0232, !dbg !1685
L.B0232:
	%18 = load %struct.T1DFunction*, %struct.T1DFunction** %..inline.addr, align 8, !tbaa !1398, !dbg !1686
	%19 = bitcast %struct.T1DFunction*  %18 to double (%struct.T1DFunction*, double)***, !dbg !1686
	%20 = load double (%struct.T1DFunction*, double)**, double (%struct.T1DFunction*, double)***  %19, align 8, !tbaa !1398, !dbg !1686
	%21 = load double (%struct.T1DFunction*, double)*, double (%struct.T1DFunction*, double)**  %20, align 8, !tbaa !1398, !dbg !1686
	%22 = call double  %21 (%struct.T1DFunction*  %18, double  %9), !dbg !1686
	store double  %22, double* %.Q0007.addr, align 8, !tbaa !1403, !dbg !1686
	%23 = load %struct.T1DFunction*, %struct.T1DFunction** %..inline.addr, align 8, !tbaa !1398, !dbg !1686
	%24 = load double, double* %..inline.addr.1, align 8, !tbaa !1403, !dbg !1686
	%25 = bitcast %struct.T1DFunction*  %23 to double (%struct.T1DFunction*, double)***, !dbg !1686
	%26 = load double (%struct.T1DFunction*, double)**, double (%struct.T1DFunction*, double)***  %25, align 8, !tbaa !1398, !dbg !1686
	%27 = load double (%struct.T1DFunction*, double)*, double (%struct.T1DFunction*, double)**  %26, align 8, !tbaa !1398, !dbg !1686
	%28 = call double  %27 (%struct.T1DFunction*  %23, double  %24), !dbg !1686
	store double  %28, double* %.Q0008.addr, align 8, !tbaa !1403, !dbg !1686
	%29 = load double, double* %.Q0007.addr, align 8, !tbaa !1403, !dbg !1686
	%30 = fadd double  %29,  %28, !dbg !1686
	%31 = load double, double* %..inline.addr.2, align 8, !tbaa !1403, !dbg !1686
	%32 = load double, double* %..inline.addr.1, align 8, !tbaa !1403, !dbg !1686
	%33 = fsub double  %31,  %32, !dbg !1686
	%34 = fmul double  %33,  5.00000000000000000E-1, !dbg !1686
	%35 = fmul double  %30,  %34, !dbg !1686
	%36 = load double*, double** %..inline.addr.3, align 8, !tbaa !1398, !dbg !1686
	store double  %35, double*  %36, align 8, !tbaa !1399, !dbg !1686
	store i32 1, i32* %it.addr, align 4, !tbaa !1401, !dbg !1686
	br label %L..inline.10796, !dbg !1687
L..inline.10790:
	%37 = load double, double* %..inline.addr.2, align 8, !tbaa !1403, !dbg !1688
	%38 = load double, double* %..inline.addr.1, align 8, !tbaa !1403, !dbg !1688
	%39 = fsub double  %37,  %38, !dbg !1688
	%40 = load i32, i32* %it.addr, align 4, !tbaa !1401, !dbg !1688
	%41 = sitofp i32  %40 to double, !dbg !1688
	%42 = fdiv double  %39,  %41, !dbg !1688
	store double  %42, double* %..inline.addr.4, align 8, !tbaa !1403, !dbg !1688
	%43 = call double @llvm.fma.f64 (double  %42, double  5.00000000000000000E-1, double  %38), !dbg !1689
	store double  %43, double* %..inline.addr.5, align 8, !tbaa !1403, !dbg !1689
	store double  0.00000000000000000E+0, double* %..inline.addr.6, align 8, !tbaa !1403, !dbg !1690
	%44 = icmp sle i32  %40, 0, !dbg !1691
	br i1  %44, label %L..inline.10805, label %L.B0233, !dbg !1691
L.B0233:
	store i32  %40, i32* %.x4098.addr, align 4, !tbaa !1401, !dbg !1691
	br label %L..inline.10804
L..inline.10804:
	%45 = load %struct.T1DFunction*, %struct.T1DFunction** %..inline.addr, align 8, !tbaa !1398, !dbg !1692
	%46 = load double, double* %..inline.addr.5, align 8, !tbaa !1403, !dbg !1692
	%47 = bitcast %struct.T1DFunction*  %45 to double (%struct.T1DFunction*, double)***, !dbg !1692
	%48 = load double (%struct.T1DFunction*, double)**, double (%struct.T1DFunction*, double)***  %47, align 8, !tbaa !1398, !dbg !1692
	%49 = load double (%struct.T1DFunction*, double)*, double (%struct.T1DFunction*, double)**  %48, align 8, !tbaa !1398, !dbg !1692
	%50 = call double  %49 (%struct.T1DFunction*  %45, double  %46), !dbg !1692
	store double  %50, double* %.Q0009.addr, align 8, !tbaa !1403, !dbg !1692
	%51 = load double, double* %..inline.addr.6, align 8, !tbaa !1403, !dbg !1692
	%52 = fadd double  %50,  %51, !dbg !1692
	store double  %52, double* %..inline.addr.6, align 8, !tbaa !1403, !dbg !1692
	%53 = load double, double* %..inline.addr.4, align 8, !tbaa !1403, !dbg !1692
	%54 = load double, double* %..inline.addr.5, align 8, !tbaa !1403, !dbg !1692
	%55 = fadd double  %53,  %54, !dbg !1692
	store double  %55, double* %..inline.addr.5, align 8, !tbaa !1403, !dbg !1692
	%56 = load i32, i32* %.x4098.addr, align 4, !tbaa !1401, !dbg !1691
	%57 = sub i32  %56, 1, !dbg !1691
	store i32  %57, i32* %.x4098.addr, align 4, !tbaa !1401, !dbg !1691
	%58 = icmp sgt i32  %57, 0, !dbg !1693
	br i1  %58, label %L..inline.10804, label %L..inline.10805, !dbg !1693
L..inline.10805:
	%59 = load double, double* %..inline.addr.2, align 8, !tbaa !1403, !dbg !1693
	%60 = load double, double* %..inline.addr.1, align 8, !tbaa !1403, !dbg !1693
	%61 = fsub double  %59,  %60, !dbg !1693
	%62 = load double, double* %..inline.addr.6, align 8, !tbaa !1403, !dbg !1693
	%63 = fmul double  %61,  %62, !dbg !1693
	%64 = load i32, i32* %it.addr, align 4, !tbaa !1401, !dbg !1693
	%65 = sitofp i32  %64 to double, !dbg !1693
	%66 = fdiv double  %63,  %65, !dbg !1693
	%67 = load double*, double** %..inline.addr.3, align 8, !tbaa !1398, !dbg !1693
	%68 = load double, double*  %67, align 8, !tbaa !1399, !dbg !1693
	%69 = fadd double  %66,  %68, !dbg !1693
	%70 = fmul double  %69,  5.00000000000000000E-1, !dbg !1693
	store double  %70, double*  %67, align 8, !tbaa !1399, !dbg !1693
	%71 = mul i32  %64, 2, !dbg !1694
	store i32  %71, i32* %it.addr, align 4, !tbaa !1401, !dbg !1694
	br label %L..inline.10796
L..inline.10796:
	%72 = load i8*, i8** %.G0052.addr, align 8, !tbaa !1398, !dbg !1695
	%73 = getelementptr i8, i8*  %72, i64 18446744073709551608, !dbg !1695
	%74 = bitcast i8*  %73 to double*, !dbg !1695
	%75 = load double, double*  %74, align 8, !tbaa !1399, !dbg !1695
	call void @llvm.dbg.declare (metadata double* %result.addr, metadata !1696, metadata !1366), !dbg !1617
	store double  %75, double* %result.addr, align 8, !tbaa !1403, !dbg !1695
	%76 = load i32, i32* %j.addr, align 4, !tbaa !1401, !dbg !1697
	%77 = icmp slt i32  %76, 2, !dbg !1697
	br i1  %77, label %L.B0041, label %L.B0234, !dbg !1697
L.B0234:
	%78 = icmp slt i32  %76, 5, !dbg !1698
	%79 = select i1  %78, i32  %76, i32 5, !dbg !1698
	call void @llvm.dbg.declare (metadata i32* %k1.addr, metadata !1699, metadata !1366), !dbg !1617
	store i32  %79, i32* %k1.addr, align 4, !tbaa !1401, !dbg !1698
	%80 = bitcast [9 x double]* %H.addr to i8*, !dbg !1700
	%81 = load i32, i32* %j.addr, align 4, !tbaa !1401, !dbg !1700
	%82 = sub i32  %81,  %79, !dbg !1700
	%83 = sext i32  %82 to i64, !dbg !1700
	%84 = mul i64  %83, 8, !dbg !1700
	%85 = getelementptr i8, i8*  %80, i64  %84, !dbg !1700
	%86 = bitcast double** %..inline.addr.7 to i8**, !dbg !1700
	store i8*  %85, i8**  %86, align 8, !tbaa !1398, !dbg !1700
	%87 = bitcast [9 x double]* %S.addr to i8*, !dbg !1700
	%88 = mul i64  %83, 8, !dbg !1700
	%89 = getelementptr i8, i8*  %87, i64  %88, !dbg !1700
	%90 = bitcast double** %..inline.addr.8 to i8**, !dbg !1700
	store i8*  %89, i8**  %90, align 8, !tbaa !1398, !dbg !1700
	store i32  %79, i32* %..inline.addr.9, align 4, !tbaa !1401, !dbg !1700
	store i32 0, i32* %..inline.addr.320, align 4, !tbaa !1401, !dbg !1701
	%91 = load double*, double** %..inline.addr.7, align 8, !tbaa !1398, !dbg !1702
	%92 = load double, double*  %91, align 8, !tbaa !1399, !dbg !1702
	%93 = fsub double -0.00000000e+00,  %92, !dbg !1702
	%94 = call double @llvm.fabs.f64 (double  %93), !dbg !1702
	store double  %94, double* %..inline.addr.330, align 8, !tbaa !1403, !dbg !1702
	store i32 0, i32* %.ndi0010.addr, align 4, !tbaa !1401, !dbg !1703
	%95 = icmp slt i32  %81, 5, !dbg !1703
	%96 = select i1  %95, i32  %81, i32 5, !dbg !1703
	%97 = icmp sle i32  %96, 0, !dbg !1703
	br i1  %97, label %L.B0227, label %L.B0235, !dbg !1703
L.B0235:
	%98 = icmp slt i32  %81, 5, !dbg !1704
	%99 = select i1  %98, i32  %81, i32 5, !dbg !1704
	store i32  %99, i32* %.lcr014098.addr, align 4, !tbaa !1401, !dbg !1704
	br label %L.B0226
L.B0226:
	%100 = load i32, i32* %.ndi0010.addr, align 4, !tbaa !1401, !dbg !1703
	%101 = sext i32  %100 to i64, !dbg !1703
	%102 = load double*, double** %..inline.addr.7, align 8, !tbaa !1398, !dbg !1703
	%103 = getelementptr double, double*  %102, i64  %101, !dbg !1703
	%104 = load double, double*  %103, align 8, !tbaa !1399, !dbg !1703
	%105 = fsub double -0.00000000e+00,  %104, !dbg !1703
	%106 = call double @llvm.fabs.f64 (double  %105), !dbg !1703
	store double  %106, double* %..inline.addr.360, align 8, !tbaa !1403, !dbg !1703
	%107 = load double, double* %..inline.addr.330, align 8, !tbaa !1403, !dbg !1703
	%108 = fcmp uge double  %106,  %107, !dbg !1703
	br i1  %108, label %L..inline.10823, label %L.B0236, !dbg !1703
L.B0236:
	store i32  %100, i32* %..inline.addr.320, align 4, !tbaa !1401, !dbg !1703
	store double  %106, double* %..inline.addr.330, align 8, !tbaa !1403, !dbg !1703
	br label %L..inline.10823
L..inline.10823:
	%109 = load i32, i32* %.ndi0010.addr, align 4, !tbaa !1401, !dbg !1703
	%110 = sext i32  %109 to i64, !dbg !1703
	%111 = load double*, double** %..inline.addr.8, align 8, !tbaa !1398, !dbg !1703
	%112 = getelementptr double, double*  %111, i64  %110, !dbg !1703
	%113 = load double, double*  %112, align 8, !tbaa !1399, !dbg !1703
	%114 = bitcast [20 x double]* %..inline.addr.370 to double*, !dbg !1703
	%115 = getelementptr double, double*  %114, i64  %110, !dbg !1703
	store double  %113, double*  %115, align 8, !tbaa !1399, !dbg !1703
	%116 = bitcast [20 x double]* %..inline.addr.380 to double*, !dbg !1703
	%117 = getelementptr double, double*  %116, i64  %110, !dbg !1703
	store double  %113, double*  %117, align 8, !tbaa !1399, !dbg !1703
	%118 = add i32  %109, 1, !dbg !1703
	store i32  %118, i32* %.ndi0010.addr, align 4, !tbaa !1401, !dbg !1703
	%119 = load i32, i32* %.lcr014098.addr, align 4, !tbaa !1401, !dbg !1703
	%120 = icmp slt i32  %118,  %119, !dbg !1703
	br i1  %120, label %L.B0226, label %L.B0227, !dbg !1703
L.B0227:
	%121 = load i32, i32* %..inline.addr.320, align 4, !tbaa !1401, !dbg !1705
	%122 = sext i32  %121 to i64, !dbg !1705
	%123 = load double*, double** %..inline.addr.8, align 8, !tbaa !1398, !dbg !1705
	%124 = getelementptr double, double*  %123, i64  %122, !dbg !1705
	%125 = load double, double*  %124, align 8, !tbaa !1399, !dbg !1705
	call void @llvm.dbg.declare (metadata double* %result_pol.addr, metadata !1706, metadata !1366), !dbg !1617
	store double  %125, double* %result_pol.addr, align 8, !tbaa !1403, !dbg !1705
	%126 = load i32, i32* %..inline.addr.320, align 4, !tbaa !1401, !dbg !1707

	%127 = sub i32  %126, 1, !dbg !1708
	store i32  %127, i32* %..inline.addr.320, align 4, !tbaa !1401, !dbg !1708
	%128 = load i32, i32* %..inline.addr.9, align 4, !tbaa !1401, !dbg !1709
	%129 = sext i32  %128 to i64, !dbg !1709
	%130 = sub i64  %129, 1, !dbg !1709
	store i64  %130, i64* %.TRP0004.addr, align 8, !tbaa !1449, !dbg !1709
	store i64 0, i64* %.ndk0020.addr, align 8, !tbaa !1451, !dbg !1703
	%131 = icmp sle i64  %130, 0, !dbg !1703
	br i1  %131, label %L.B0229, label %L.B0237, !dbg !1703
L.B0237:
	store i64  %130, i64* %.lcr054098.addr, align 8, !tbaa !1451, !dbg !1710
	br label %L.B0228
L.B0228:
	%132 = load i32, i32* %..inline.addr.9, align 4, !tbaa !1401, !dbg !1703
	%133 = load i64, i64* %.ndk0020.addr, align 8, !tbaa !1451, !dbg !1703
	%134 = trunc i64  %133 to i32, !dbg !1703
	%135 = sub i32  %132,  %134, !dbg !1703
	%136 = sext i32  %135 to i64, !dbg !1703
	%137 = sub i64  %136, 1, !dbg !1703
	store i64  %137, i64* %.TRP0005.addr, align 8, !tbaa !1449, !dbg !1703
	store i64 0, i64* %.ndk0022.addr, align 8, !tbaa !1451, !dbg !1703
	%138 = icmp sle i64  %137, 0, !dbg !1703
	br i1  %138, label %L.B0231, label %L.B0238, !dbg !1703
L.B0238:
	store i64  %137, i64* %.lcr054099.addr, align 8, !tbaa !1451, !dbg !1711
	store i32  %134, i32* %.r5.0631.addr, align 4, !tbaa !1401, !dbg !1711
	%139 = bitcast [20 x double]* %..inline.addr.380 to i8*, !dbg !1711
	store i8*  %139, i8** %.G0037.addr, align 8, !tbaa !1398, !dbg !1711
	br label %L.B0230
L.B0230:
	%140 = load i64, i64* %.ndk0022.addr, align 8, !tbaa !1451, !dbg !1703
	%141 = trunc i64  %140 to i32, !dbg !1703
	%142 = sext i32  %141 to i64, !dbg !1703
	%143 = load double*, double** %..inline.addr.7, align 8, !tbaa !1398, !dbg !1703
	%144 = getelementptr double, double*  %143, i64  %142, !dbg !1703
	%145 = load double, double*  %144, align 8, !tbaa !1399, !dbg !1703
	%146 = load i8*, i8** %.G0037.addr, align 8, !tbaa !1398, !dbg !1703
	%147 = getelementptr i8, i8*  %146, i64 8, !dbg !1703
	%148 = bitcast i8*  %147 to double*, !dbg !1703
	%149 = load double, double*  %148, align 8, !tbaa !1399, !dbg !1703
	%150 = bitcast [20 x double]* %..inline.addr.370 to double*, !dbg !1703
	%151 = getelementptr double, double*  %150, i64  %142, !dbg !1703
	%152 = load double, double*  %151, align 8, !tbaa !1399, !dbg !1703
	%153 = fsub double  %149,  %152, !dbg !1703
	%154 = load i32, i32* %.r5.0631.addr, align 4, !tbaa !1401, !dbg !1703
	%155 = add i32  %154,  %141, !dbg !1703
	%156 = sext i32  %155 to i64, !dbg !1703
	%157 = bitcast double*  %143 to i8*, !dbg !1703
	%158 = getelementptr i8, i8*  %157, i64 8, !dbg !1703
	%159 = bitcast i8*  %158 to double*, !dbg !1703
	%160 = getelementptr double, double*  %159, i64  %156, !dbg !1703
	%161 = load double, double*  %160, align 8, !tbaa !1399, !dbg !1703
	%162 = fsub double  %145,  %161, !dbg !1703
	%163 = fdiv double  %153,  %162, !dbg !1703
	%164 = fmul double  %163,  %161, !dbg !1703
	store double  %164, double*  %151, align 8, !tbaa !1399, !dbg !1703
	%165 = fmul double  %145,  %163, !dbg !1703
	%166 = bitcast i8*  %146 to double*, !dbg !1703
	store double  %165, double*  %166, align 8, !tbaa !1399, !dbg !1703
	%167 = add i64  %140, 1, !dbg !1703
	store i64  %167, i64* %.ndk0022.addr, align 8, !tbaa !1451, !dbg !1703
	store i8*  %147, i8** %.G0037.addr, align 8, !tbaa !1398, !dbg !1711
	%168 = load i64, i64* %.lcr054099.addr, align 8, !tbaa !1451, !dbg !1703
	%169 = icmp slt i64  %167,  %168, !dbg !1703
	br i1  %169, label %L.B0230, label %L.B0231, !dbg !1703
L.B0231:
	%170 = load i32, i32* %..inline.addr.320, align 4, !tbaa !1401, !dbg !1703
	%171 = add i32  %170, 1, !dbg !1703
	%172 = mul i32  %171, 2, !dbg !1703
	%173 = load i32, i32* %..inline.addr.9, align 4, !tbaa !1401, !dbg !1703
	%174 = load i64, i64* %.ndk0020.addr, align 8, !tbaa !1451, !dbg !1703
	%175 = trunc i64  %174 to i32, !dbg !1703
	%176 = sub i32  %173,  %175, !dbg !1703
	%177 = sub i32  %176, 1, !dbg !1703
	%178 = icmp sge i32  %172,  %177, !dbg !1703
	br i1  %178, label %L..inline.10843, label %L.B0239, !dbg !1703
L.B0239:
	%179 = sext i32  %170 to i64, !dbg !1703
	%180 = bitcast [20 x double]* %..inline.addr.380 to i8*, !dbg !1703
	%181 = getelementptr i8, i8*  %180, i64 8, !dbg !1703
	%182 = bitcast i8*  %181 to double*, !dbg !1703
	%183 = getelementptr double, double*  %182, i64  %179, !dbg !1703
	%184 = load double, double*  %183, align 8, !tbaa !1399, !dbg !1703
	store double  %184, double* %dresult_pol.addr, align 8, !tbaa !1403, !dbg !1703
	br label %L..inline.10845, !dbg !1703
L..inline.10843:
	%185 = load i32, i32* %..inline.addr.320, align 4, !tbaa !1401, !dbg !1703
	%186 = sext i32  %185 to i64, !dbg !1703
	%187 = bitcast [20 x double]* %..inline.addr.370 to double*, !dbg !1703
	%188 = getelementptr double, double*  %187, i64  %186, !dbg !1703
	%189 = load double, double*  %188, align 8, !tbaa !1399, !dbg !1703
	store double  %189, double* %dresult_pol.addr, align 8, !tbaa !1403, !dbg !1703

	%190 = sub i32  %185, 1, !dbg !1703
	store i32  %190, i32* %..inline.addr.320, align 4, !tbaa !1401, !dbg !1703
	br label %L..inline.10845
L..inline.10845:
	%191 = load double, double* %dresult_pol.addr, align 8, !tbaa !1403, !dbg !1703
	%192 = load double, double* %result_pol.addr, align 8, !tbaa !1403, !dbg !1703
	%193 = fadd double  %191,  %192, !dbg !1703
	store double  %193, double* %result_pol.addr, align 8, !tbaa !1403, !dbg !1703
	%194 = load i64, i64* %.ndk0020.addr, align 8, !tbaa !1451, !dbg !1703
	%195 = add i64  %194, 1, !dbg !1703
	store i64  %195, i64* %.ndk0020.addr, align 8, !tbaa !1451, !dbg !1703
	%196 = load i64, i64* %.lcr054098.addr, align 8, !tbaa !1451, !dbg !1703
	%197 = icmp slt i64  %195,  %196, !dbg !1703
	br i1  %197, label %L.B0228, label %L.B0229, !dbg !1703
L.B0229:
	%198 = bitcast [9 x double]* %H.addr to i8*, !dbg !1712
	%199 = load i32, i32* %j.addr, align 4, !tbaa !1401, !dbg !1712
	%200 = load i32, i32* %k1.addr, align 4, !tbaa !1401, !dbg !1712
	%201 = sub i32  %199,  %200, !dbg !1712
	%202 = sext i32  %201 to i64, !dbg !1712
	%203 = mul i64  %202, 8, !dbg !1712
	%204 = getelementptr i8, i8*  %198, i64  %203, !dbg !1712
	%205 = bitcast double** %..inline.addr.510 to i8**, !dbg !1712
	store i8*  %204, i8**  %205, align 8, !tbaa !1398, !dbg !1712
	%206 = bitcast [9 x double]* %S.addr to i8*, !dbg !1712
	%207 = mul i64  %202, 8, !dbg !1712
	%208 = getelementptr i8, i8*  %206, i64  %207, !dbg !1712
	%209 = bitcast double** %..inline.addr.520 to i8**, !dbg !1712
	store i8*  %208, i8**  %209, align 8, !tbaa !1398, !dbg !1712
	store i32  %200, i32* %..inline.addr.530, align 4, !tbaa !1401, !dbg !1712
	store i32 0, i32* %..inline.addr.540, align 4, !tbaa !1401, !dbg !1712
	%210 = load double*, double** %..inline.addr.510, align 8, !tbaa !1398, !dbg !1713
	%211 = load double, double*  %210, align 8, !tbaa !1399, !dbg !1713
	%212 = fsub double -0.00000000e+00,  %211, !dbg !1713
	%213 = call double @llvm.fabs.f64 (double  %212), !dbg !1713
	store double  %213, double* %..inline.addr.550, align 8, !tbaa !1403, !dbg !1713
	store i32 0, i32* %..inline.addr.560, align 4, !tbaa !1401, !dbg !1714
	%214 = icmp sle i32  %200, 0, !dbg !1715
	br i1  %214, label %L..inline.10859, label %L.B0240, !dbg !1715
L.B0240:
	store i32  %200, i32* %.lcr014098.addr, align 4, !tbaa !1401, !dbg !1715
	br label %L..inline.10857
L..inline.10857:
	%215 = load i32, i32* %..inline.addr.560, align 4, !tbaa !1401, !dbg !1715
	%216 = sext i32  %215 to i64, !dbg !1715
	%217 = load double*, double** %..inline.addr.510, align 8, !tbaa !1398, !dbg !1715
	%218 = getelementptr double, double*  %217, i64  %216, !dbg !1715
	%219 = load double, double*  %218, align 8, !tbaa !1399, !dbg !1715
	%220 = fsub double -0.00000000e+00,  %219, !dbg !1715
	%221 = call double @llvm.fabs.f64 (double  %220), !dbg !1715
	store double  %221, double* %..inline.addr.570, align 8, !tbaa !1403, !dbg !1715
	%222 = fcmp une double  %221,  0.00000000000000000E+0, !dbg !1716
	br i1  %222, label %L..inline.10861, label %L.B0241, !dbg !1716
L.B0241:
	%223 = load double*, double** %..inline.addr.520, align 8, !tbaa !1398, !dbg !1717
	%224 = getelementptr double, double*  %223, i64  %216, !dbg !1717
	%225 = load double, double*  %224, align 8, !tbaa !1399, !dbg !1717
	call void @llvm.dbg.declare (metadata double* %result_rat.addr, metadata !1718, metadata !1366), !dbg !1617
	store double  %225, double* %result_rat.addr, align 8, !tbaa !1403, !dbg !1717
	call void @llvm.dbg.declare (metadata double* %dresult_rat.addr, metadata !1720, metadata !1366), !dbg !1617
	store double  0.00000000000000000E+0, double* %dresult_rat.addr, align 8, !tbaa !1403, !dbg !1719
	br label %L..inline.10916, !dbg !1721
L..inline.10861:
	%226 = load double, double* %..inline.addr.570, align 8, !tbaa !1403, !dbg !1722
	%227 = load double, double* %..inline.addr.550, align 8, !tbaa !1403, !dbg !1722
	%228 = fcmp uge double  %226,  %227, !dbg !1722
	br i1  %228, label %L..inline.10866, label %L.B0242, !dbg !1722
L.B0242:
	%229 = load i32, i32* %..inline.addr.560, align 4, !tbaa !1401, !dbg !1722
	store i32  %229, i32* %..inline.addr.540, align 4, !tbaa !1401, !dbg !1722
	store double  %226, double* %..inline.addr.550, align 8, !tbaa !1403, !dbg !1723
	br label %L..inline.10866
L..inline.10866:
	%230 = load i32, i32* %..inline.addr.560, align 4, !tbaa !1401, !dbg !1724
	%231 = sext i32  %230 to i64, !dbg !1724
	%232 = load double*, double** %..inline.addr.520, align 8, !tbaa !1398, !dbg !1724
	%233 = getelementptr double, double*  %232, i64  %231, !dbg !1724
	%234 = load double, double*  %233, align 8, !tbaa !1399, !dbg !1724
	%235 = bitcast [20 x double]* %..inline.addr.600 to double*, !dbg !1724
	%236 = getelementptr double, double*  %235, i64  %231, !dbg !1724
	store double  %234, double*  %236, align 8, !tbaa !1399, !dbg !1724
	%237 = load double, double*  %233, align 8, !tbaa !1399, !dbg !1724
	%238 = fadd double  %237,  1.00000000000000008E-30, !dbg !1724
	%239 = bitcast [20 x double]* %..inline.addr.610 to double*, !dbg !1724
	%240 = getelementptr double, double*  %239, i64  %231, !dbg !1724
	store double  %238, double*  %240, align 8, !tbaa !1399, !dbg !1724

	%241 = add i32  %230, 1, !dbg !1726
	store i32  %241, i32* %..inline.addr.560, align 4, !tbaa !1401, !dbg !1726
	%242 = load i32, i32* %.lcr014098.addr, align 4, !tbaa !1401, !dbg !1726
	%243 = icmp slt i32  %241,  %242, !dbg !1726
	br i1  %243, label %L..inline.10857, label %L..inline.10859, !dbg !1726
L..inline.10859:
	%244 = load i32, i32* %..inline.addr.540, align 4, !tbaa !1401, !dbg !1726

	%245 = sub i32  %244, 1, !dbg !1727
	store i32  %245, i32* %..inline.addr.540, align 4, !tbaa !1401, !dbg !1727
	%246 = sext i32  %244 to i64, !dbg !1727
	%247 = load double*, double** %..inline.addr.520, align 8, !tbaa !1398, !dbg !1727
	%248 = getelementptr double, double*  %247, i64  %246, !dbg !1727
	%249 = load double, double*  %248, align 8, !tbaa !1399, !dbg !1727
	store double  %249, double* %result_rat.addr, align 8, !tbaa !1403, !dbg !1727
	store i32 1, i32* %..inline.addr.630, align 4, !tbaa !1401, !dbg !1727
	%250 = load i32, i32* %..inline.addr.530, align 4, !tbaa !1401, !dbg !1728
	%251 = icmp sge i32 1,  %250, !dbg !1728
	br i1  %251, label %L..inline.10871, label %L.B0243, !dbg !1728
L.B0243:
	%252 = sub i32  %250, 1, !dbg !1728
	store i32  %252, i32* %.x4098.addr, align 4, !tbaa !1401, !dbg !1728
	br label %L..inline.10870
L..inline.10870:
	store i32 0, i32* %..inline.addr.560, align 4, !tbaa !1401, !dbg !1728
	%253 = load i32, i32* %..inline.addr.530, align 4, !tbaa !1401, !dbg !1703
	%254 = load i32, i32* %..inline.addr.630, align 4, !tbaa !1401, !dbg !1703
	%255 = sub i32  %253,  %254, !dbg !1703
	%256 = icmp sle i32  %255, 0, !dbg !1703
	br i1  %256, label %L..inline.10873, label %L.B0244, !dbg !1703
L.B0244:
	store i32  %255, i32* %.lcr014099.addr, align 4, !tbaa !1401, !dbg !1703
	%257 = bitcast [20 x double]* %..inline.addr.600 to i8*, !dbg !1703
	%258 = getelementptr i8, i8*  %257, i64 8, !dbg !1703
	store i8*  %258, i8** %.G0037.addr, align 8, !tbaa !1398, !dbg !1703
	br label %L..inline.10872
L..inline.10872:
	%259 = load i8*, i8** %.G0037.addr, align 8, !tbaa !1398, !dbg !1703
	%260 = bitcast i8*  %259 to double*, !dbg !1703
	%261 = load double, double*  %260, align 8, !tbaa !1399, !dbg !1703
	%262 = load i32, i32* %..inline.addr.560, align 4, !tbaa !1401, !dbg !1703
	%263 = sext i32  %262 to i64, !dbg !1703
	%264 = bitcast [20 x double]* %..inline.addr.610 to double*, !dbg !1703
	%265 = getelementptr double, double*  %264, i64  %263, !dbg !1703
	%266 = load double, double*  %265, align 8, !tbaa !1399, !dbg !1703
	%267 = fsub double  %261,  %266, !dbg !1703
	store double  %267, double* %..inline.addr.650, align 8, !tbaa !1403, !dbg !1703
	%268 = load double*, double** %..inline.addr.510, align 8, !tbaa !1398, !dbg !1729
	%269 = getelementptr double, double*  %268, i64  %263, !dbg !1729
	%270 = load double, double*  %269, align 8, !tbaa !1399, !dbg !1729
	%271 = fmul double  %266,  %270, !dbg !1729
	%272 = load i32, i32* %..inline.addr.630, align 4, !tbaa !1401, !dbg !1729
	%273 = add i32  %262,  %272, !dbg !1729
	%274 = sext i32  %273 to i64, !dbg !1729
	%275 = getelementptr double, double*  %268, i64  %274, !dbg !1729
	%276 = load double, double*  %275, align 8, !tbaa !1399, !dbg !1729
	%277 = fdiv double  %271,  %276, !dbg !1729
	store double  %277, double* %..inline.addr.660, align 8, !tbaa !1403, !dbg !1729
	%278 = fsub double  %277,  %261, !dbg !1730
	store double  %278, double* %..inline.addr.670, align 8, !tbaa !1403, !dbg !1730
	%279 = fcmp une double  %278,  0.00000000000000000E+0, !dbg !1731
	br i1  %279, label %L..inline.10877, label %L.B0245, !dbg !1731
L.B0245:
	%280 = bitcast [21 x i8]* @.S08003 to i8*, !dbg !1709
	%281 = icmp ne i8*  %280,  null, !dbg !1709
	br i1  %281, label %L..inline.10882, label %L.B0246, !dbg !1709
L.B0246:
	%282 = bitcast %struct._ZSo* @_ZSt4cerr to i8*, !dbg !1709
	%283 = bitcast %struct._ZSo* @_ZSt4cerr to i8**, !dbg !1709
	%284 = load i8*, i8**  %283, align 8, !tbaa !1398, !dbg !1709
	%285 = getelementptr i8, i8*  %284, i64 18446744073709551592, !dbg !1709
	%286 = bitcast i8*  %285 to i64*, !dbg !1709
	%287 = load i64, i64*  %286, align 8, !tbaa !1399, !dbg !1709
	%288 = getelementptr i8, i8*  %282, i64  %287, !dbg !1709
	%289 = bitcast %struct._ZSt9basic_iosIcSt11char_traitsIcEE** %..inline.addr.680 to i8**, !dbg !1709
	store i8*  %288, i8**  %289, align 8, !tbaa !1398, !dbg !1709
	%290 = load %struct._ZSt9basic_iosIcSt11char_traitsIcEE*, %struct._ZSt9basic_iosIcSt11char_traitsIcEE** %..inline.addr.680, align 8, !tbaa !1398, !dbg !1709
	%291 = bitcast %struct._ZSt9basic_iosIcSt11char_traitsIcEE*  %290 to i8*, !dbg !1709
	%292 = bitcast %struct._ZSt9basic_iosIcSt11char_traitsIcEE** %..inline.addr.690 to i8**, !dbg !1709
	store i8*  %291, i8**  %292, align 8, !tbaa !1398, !dbg !1709
	%293 = load %struct._ZSt9basic_iosIcSt11char_traitsIcEE*, %struct._ZSt9basic_iosIcSt11char_traitsIcEE** %..inline.addr.690, align 8, !tbaa !1398, !dbg !1709
	%294 = bitcast %struct._ZSt9basic_iosIcSt11char_traitsIcEE*  %293 to i8*, !dbg !1709
	%295 = getelementptr i8, i8*  %294, i64 32, !dbg !1709
	%296 = bitcast i8*  %295 to i32*, !dbg !1709
	%297 = load i32, i32*  %296, align 4, !tbaa !1399, !dbg !1709
	%298 = or i32  %297, 1, !dbg !1709
	call void  @_ZNSt9basic_iosIcSt11char_traitsIcEE5clearESt12_Ios_Iostate (%struct._ZSt9basic_iosIcSt11char_traitsIcEE*  %290, i32  %298), !dbg !1709
	br label %L..inline.10903, !dbg !1709
L..inline.10882:
	%299 = bitcast [21 x i8]* @.S08003 to i8*, !dbg !1709
	%300 = call i64  @strlen (i8*  %299) nounwind, !dbg !1709
	%301 = call %struct._ZSo*  @_ZSt16__ostream_insertIcSt11char_traitsIcEERSt13basic_ostreamIT_T0_ES6_PKS3_l (%struct._ZSo* @_ZSt4cerr, i8*  %299, i64  %300), !dbg !1709
	%302 = bitcast %struct._ZSo*  %301 to i8*, !dbg !1709
	%303 = bitcast %struct._ZSo** %.Q0010.addr to i8**, !dbg !1709
	store i8*  %302, i8**  %303, align 8, !tbaa !1398, !dbg !1709
	br label %L..inline.10903
L..inline.10903:
	call void  @exit (i32 111) nounwind noreturn, !dbg !1732
	br label %L..inline.10877
L..inline.10877:
	%304 = load double, double* %..inline.addr.650, align 8, !tbaa !1403, !dbg !1733
	%305 = load double, double* %..inline.addr.670, align 8, !tbaa !1403, !dbg !1733
	%306 = fdiv double  %304,  %305, !dbg !1733
	%307 = load i8*, i8** %.G0037.addr, align 8, !tbaa !1398, !dbg !1733
	%308 = bitcast i8*  %307 to double*, !dbg !1733
	%309 = load double, double*  %308, align 8, !tbaa !1399, !dbg !1733
	%310 = fmul double  %306,  %309, !dbg !1733
	%311 = load i32, i32* %..inline.addr.560, align 4, !tbaa !1401, !dbg !1733
	%312 = sext i32  %311 to i64, !dbg !1733
	%313 = bitcast [20 x double]* %..inline.addr.610 to double*, !dbg !1733
	%314 = getelementptr double, double*  %313, i64  %312, !dbg !1733
	store double  %310, double*  %314, align 8, !tbaa !1399, !dbg !1733
	%315 = load double, double* %..inline.addr.660, align 8, !tbaa !1403, !dbg !1734
	%316 = fmul double  %315,  %306, !dbg !1734
	%317 = getelementptr i8, i8*  %307, i64 18446744073709551608, !dbg !1734
	%318 = bitcast i8*  %317 to double*, !dbg !1734
	store double  %316, double*  %318, align 8, !tbaa !1399, !dbg !1734

	%319 = add i32  %311, 1, !dbg !1736
	store i32  %319, i32* %..inline.addr.560, align 4, !tbaa !1401, !dbg !1736
	%320 = getelementptr i8, i8*  %307, i64 8, !dbg !1703
	store i8*  %320, i8** %.G0037.addr, align 8, !tbaa !1398, !dbg !1703
	%321 = load i32, i32* %.lcr014099.addr, align 4, !tbaa !1401, !dbg !1736
	%322 = icmp slt i32  %319,  %321, !dbg !1736
	br i1  %322, label %L..inline.10872, label %L..inline.10873, !dbg !1736
L..inline.10873:
	%323 = load i32, i32* %..inline.addr.540, align 4, !tbaa !1401, !dbg !1736
	%324 = add i32  %323, 1, !dbg !1736
	%325 = mul i32  %324, 2, !dbg !1736
	%326 = load i32, i32* %..inline.addr.530, align 4, !tbaa !1401, !dbg !1736
	%327 = load i32, i32* %..inline.addr.630, align 4, !tbaa !1401, !dbg !1736
	%328 = sub i32  %326,  %327, !dbg !1736
	%329 = icmp sge i32  %325,  %328, !dbg !1736
	br i1  %329, label %L..inline.10912, label %L.B0247, !dbg !1736
L.B0247:
	%330 = sext i32  %323 to i64, !dbg !1737
	%331 = bitcast [20 x double]* %..inline.addr.600 to i8*, !dbg !1737
	%332 = getelementptr i8, i8*  %331, i64 8, !dbg !1737
	%333 = bitcast i8*  %332 to double*, !dbg !1737
	%334 = getelementptr double, double*  %333, i64  %330, !dbg !1737
	%335 = load double, double*  %334, align 8, !tbaa !1399, !dbg !1737
	store double  %335, double* %..inline.addr.730, align 8, !tbaa !1403, !dbg !1737
	br label %L..inline.10914, !dbg !1737
L..inline.10912:
	%336 = load i32, i32* %..inline.addr.540, align 4, !tbaa !1401, !dbg !1737

	%337 = sub i32  %336, 1, !dbg !1737
	store i32  %337, i32* %..inline.addr.540, align 4, !tbaa !1401, !dbg !1737
	%338 = sext i32  %336 to i64, !dbg !1737
	%339 = bitcast [20 x double]* %..inline.addr.610 to double*, !dbg !1737
	%340 = getelementptr double, double*  %339, i64  %338, !dbg !1737
	%341 = load double, double*  %340, align 8, !tbaa !1399, !dbg !1737
	store double  %341, double* %..inline.addr.730, align 8, !tbaa !1403, !dbg !1737
	br label %L..inline.10914
L..inline.10914:
	%342 = load double, double* %..inline.addr.730, align 8, !tbaa !1403, !dbg !1737
	store double  %342, double* %dresult_rat.addr, align 8, !tbaa !1403, !dbg !1737
	%343 = load double, double* %result_rat.addr, align 8, !tbaa !1403, !dbg !1737
	%344 = fadd double  %342,  %343, !dbg !1737
	store double  %344, double* %result_rat.addr, align 8, !tbaa !1403, !dbg !1737
	%345 = load i32, i32* %..inline.addr.630, align 4, !tbaa !1401, !dbg !1737

	%346 = add i32  %345, 1, !dbg !1738
	store i32  %346, i32* %..inline.addr.630, align 4, !tbaa !1401, !dbg !1738
	%347 = load i32, i32* %.x4098.addr, align 4, !tbaa !1401, !dbg !1728
	%348 = sub i32  %347, 1, !dbg !1728
	store i32  %348, i32* %.x4098.addr, align 4, !tbaa !1401, !dbg !1728
	%349 = icmp sgt i32  %348, 0, !dbg !1738
	br i1  %349, label %L..inline.10870, label %L..inline.10871, !dbg !1738
L..inline.10871:
	br label %L..inline.10916
L..inline.10916:
	%350 = load double, double* %dresult_pol.addr, align 8, !tbaa !1403, !dbg !1739
	%351 = call double @llvm.fabs.f64 (double  %350), !dbg !1739
	store double  %351, double* %dresult_pol.addr, align 8, !tbaa !1403, !dbg !1739
	%352 = load double, double* %dresult_rat.addr, align 8, !tbaa !1403, !dbg !1740
	%353 = call double @llvm.fabs.f64 (double  %352), !dbg !1740
	store double  %353, double* %dresult_rat.addr, align 8, !tbaa !1403, !dbg !1740
	%354 = call double @llvm.maxnum.f64 (double  %351, double  %353), !dbg !1741
	%355 = fcmp uno double  %353,  %353, !dbg !1741
	%356 = select i1  %355, double  %351, double  %354, !dbg !1741
	store double  %356, double* %.I0003.addr, align 8, !tbaa !1403, !dbg !1741
	%357 = load double, double* %result_pol.addr, align 8, !tbaa !1403, !dbg !1742
	%358 = load double, double* %result_rat.addr, align 8, !tbaa !1403, !dbg !1742
	%359 = fsub double  %357,  %358, !dbg !1742
	%360 = call double @llvm.fabs.f64 (double  %359), !dbg !1742
	call void @llvm.dbg.declare (metadata double* %dresult_polrat.addr, metadata !1743, metadata !1366), !dbg !1617
	%361 = load double, double* %.I0003.addr, align 8, !tbaa !1403, !dbg !1744
	%362 = call double @llvm.maxnum.f64 (double  %361, double  %360), !dbg !1744
	%363 = fcmp uno double  %360,  %360, !dbg !1744
	%364 = select i1  %363, double  %361, double  %362, !dbg !1744
	call void @llvm.dbg.declare (metadata double* %dresult.addr, metadata !1745, metadata !1366), !dbg !1617
	%365 = load double, double* %absacc.addr, align 8, !tbaa !1403, !dbg !1746
	%366 = fcmp uge double  %364,  %365, !dbg !1746
	br i1  %366, label %L.B0047, label %L.B0248, !dbg !1746
L.B0248:
	%367 = load double, double* %result_pol.addr, align 8, !tbaa !1403, !dbg !1747
	%368 = load double, double* %result_rat.addr, align 8, !tbaa !1403, !dbg !1747
	%369 = fadd double  %367,  %368, !dbg !1747
	%370 = fmul double  %369,  5.00000000000000000E-1, !dbg !1747
	store double  %370, double* %result.addr, align 8, !tbaa !1403, !dbg !1747
	br label %L_T41511712_7633, !dbg !1748
L.B0047:
	br label %L.B0041
L.B0041:
	%371 = load i8*, i8** %.G0052.addr, align 8, !tbaa !1398, !dbg !1749
	%372 = getelementptr i8, i8*  %371, i64 18446744073709551608, !dbg !1749
	%373 = bitcast i8*  %372 to double*, !dbg !1749
	%374 = load double, double*  %373, align 8, !tbaa !1399, !dbg !1749
	%375 = bitcast i8*  %371 to double*, !dbg !1749
	store double  %374, double*  %375, align 8, !tbaa !1399, !dbg !1749
	%376 = load i8*, i8** %.G0050.addr, align 8, !tbaa !1398, !dbg !1750
	%377 = getelementptr i8, i8*  %376, i64 18446744073709551608, !dbg !1750
	%378 = bitcast i8*  %377 to double*, !dbg !1750
	%379 = load double, double*  %378, align 8, !tbaa !1399, !dbg !1750
	%380 = fmul double  %379,  2.50000000000000000E-1, !dbg !1750
	%381 = bitcast i8*  %376 to double*, !dbg !1750
	store double  %380, double*  %381, align 8, !tbaa !1399, !dbg !1750
	%382 = load i32, i32* %j.addr, align 4, !tbaa !1401, !dbg !1751

	%383 = add i32  %382, 1, !dbg !1751
	store i32  %383, i32* %j.addr, align 4, !tbaa !1401, !dbg !1751
	%384 = getelementptr i8, i8*  %371, i64 8, !dbg !1682
	store i8*  %384, i8** %.G0052.addr, align 8, !tbaa !1398, !dbg !1682
	%385 = getelementptr i8, i8*  %376, i64 8, !dbg !1682
	store i8*  %385, i8** %.G0050.addr, align 8, !tbaa !1398, !dbg !1682
	%386 = load i32, i32* %.x4097.addr, align 4, !tbaa !1401, !dbg !1682
	%387 = sub i32  %386, 1, !dbg !1682
	store i32  %387, i32* %.x4097.addr, align 4, !tbaa !1401, !dbg !1682
	%388 = icmp sgt i32  %387, 0, !dbg !1751
	br i1  %388, label %L.B0039, label %L.N0013, !dbg !1751
L.N0013:
	br label %L_T41511712_7633
L_T41511712_7633:
	%389 = load double, double* %result.addr, align 8, !tbaa !1403, !dbg !1752
	ret double  %389, !dbg !1752
L.N0011:
	br label %L.N0012
L.N0012:
	ret double 0.0
}

%struct.Tinty_f2D = type <{ %struct.T1DFunction, %struct.T2DFunction*, double, double, double}> 
%astruct.dt64 = type <{ i8*, i32}> 
%struct.T2DFunction = type <{ i32 (...)* (...)*}> 

define double @_Z7RombergRK11T2DFunctionddddd(%struct.T2DFunction* %func.arg, double %a.arg, double %b.arg, double %c.arg, double %d.arg, double %absacc.arg) #0 personality i8* bitcast (i32 (...)* @__gxx_personality_v0 to i8*) !dbg !1761 {
L.entry:
	%func.addr = alloca %struct.T2DFunction*, align 8
	%a.addr = alloca double, align 8
	%b.addr = alloca double, align 8
	%c.addr = alloca double, align 8
	%d.addr = alloca double, align 8
	%absacc.addr = alloca double, align 8
	%..inline.addr = alloca %struct.T2DFunction*, align 8
	%..inline.addr.1 = alloca double, align 8
	%..inline.addr.2 = alloca double, align 8
	%..inline.addr.3 = alloca double, align 8
	%_T40345360_7634.addr = alloca %struct.Tinty_f2D, align 8
	%..inline.addr.4 = alloca double, align 8
	%..inline.addr.5 = alloca double, align 8
	%..inline.addr.6 = alloca double, align 8
	%..inline.addr.7 = alloca i32, align 4
	%..inline.addr.8 = alloca [9 x double], align 8
	%..inline.addr.9 = alloca double, align 8
	%..inline.addr.230 = alloca i32, align 4
	%.x5121.addr = alloca i32, align 4
	%..inline.addr.250 = alloca [9 x double], align 8
	%.G0069.addr = alloca i8*, align 8
	%.G0067.addr = alloca i8*, align 8
	%..inline.addr.280 = alloca double, align 8
	%..inline.addr.290 = alloca double, align 8
	%..inline.addr.300 = alloca double*, align 8
	%.Q0011.addr = alloca double, align 8
	%.Q0012.addr = alloca double, align 8
	%..inline.addr.330 = alloca double, align 8
	%..inline.addr.340 = alloca double, align 8
	%..inline.addr.350 = alloca double, align 8
	%.x5122.addr = alloca i32, align 4
	%.Q0013.addr = alloca double, align 8
	%..inline.addr.380 = alloca double, align 8
	%..inline.addr.390 = alloca i32, align 4
	%..inline.addr.400 = alloca double*, align 8
	%..inline.addr.410 = alloca double*, align 8
	%..inline.addr.420 = alloca i32, align 4
	%..inline.addr.430 = alloca i32, align 4
	%..inline.addr.440 = alloca double, align 8
	%.ndi0014.addr = alloca i32, align 4
	%.lcr015122.addr = alloca i32, align 4
	%..inline.addr.470 = alloca double, align 8
	%..inline.addr.480 = alloca [20 x double], align 8
	%..inline.addr.490 = alloca [20 x double], align 8
	%..inline.addr.500 = alloca double, align 8
	%.TRP0006.addr = alloca i64, align 8
	%.ndk0028.addr = alloca i64, align 8
	%.lcr055122.addr = alloca i64, align 8
	%.TRP0007.addr = alloca i64, align 8
	%.ndk0030.addr = alloca i64, align 8
	%.lcr055123.addr = alloca i64, align 8
	%.r6.0563.addr = alloca i32, align 4
	%.G0054.addr = alloca i8*, align 8
	%..inline.addr.590 = alloca double, align 8
	%..inline.addr.600 = alloca double, align 8
	%..inline.addr.610 = alloca double, align 8
	%..inline.addr.620 = alloca double*, align 8
	%..inline.addr.630 = alloca double*, align 8
	%..inline.addr.640 = alloca i32, align 4
	%..inline.addr.650 = alloca i32, align 4
	%..inline.addr.660 = alloca double, align 8
	%..inline.addr.670 = alloca i32, align 4
	%..inline.addr.680 = alloca double, align 8
	%..inline.addr.690 = alloca double, align 8
	%..inline.addr.700 = alloca double, align 8
	%..inline.addr.710 = alloca [20 x double], align 8
	%..inline.addr.720 = alloca [20 x double], align 8
	%.D0028.addr = alloca i32, align 4
	%..inline.addr.740 = alloca i32, align 4
	%.lcr015123.addr = alloca i32, align 4
	%..inline.addr.760 = alloca double, align 8
	%..inline.addr.770 = alloca double, align 8
	%..inline.addr.780 = alloca double, align 8
	%..inline.addr.790 = alloca %struct._ZSt9basic_iosIcSt11char_traitsIcEE*, align 8
	%..inline.addr.800 = alloca %struct._ZSt9basic_iosIcSt11char_traitsIcEE*, align 8
	%..inline.addr.810 = alloca i32, align 4
	%..inline.addr.820 = alloca i64, align 8
	%.Q0014.addr = alloca %struct._ZSo*, align 8
	%..inline.addr.840 = alloca double, align 8
	%.D0029.addr = alloca i32, align 4
	%..inline.addr.860 = alloca double, align 8
	%..inline.addr.870 = alloca double, align 8
	%..inline.addr.880 = alloca double, align 8
	%_T40345656_7634.addr = alloca double, align 8
	%__caught_object_address.addr = alloca i8*, align 8
	%__catch_clause_number.addr = alloca i32, align 4

	call void @llvm.dbg.declare (metadata %struct.T2DFunction** %func.addr, metadata !1853, metadata !1366), !dbg !1762
	store %struct.T2DFunction* %func.arg, %struct.T2DFunction** %func.addr, align 8, !tbaa !1398
	call void @llvm.dbg.declare (metadata %struct.T2DFunction** %func.addr, metadata !1854, metadata !1366), !dbg !1762
	call void @llvm.dbg.declare (metadata double* %a.addr, metadata !1855, metadata !1366), !dbg !1762
	store double %a.arg, double* %a.addr, align 8, !tbaa !1399
	call void @llvm.dbg.declare (metadata double* %a.addr, metadata !1856, metadata !1366), !dbg !1762
	call void @llvm.dbg.declare (metadata double* %b.addr, metadata !1857, metadata !1366), !dbg !1762
	store double %b.arg, double* %b.addr, align 8, !tbaa !1399
	call void @llvm.dbg.declare (metadata double* %b.addr, metadata !1858, metadata !1366), !dbg !1762
	call void @llvm.dbg.declare (metadata double* %c.addr, metadata !1859, metadata !1366), !dbg !1762
	store double %c.arg, double* %c.addr, align 8, !tbaa !1399
	call void @llvm.dbg.declare (metadata double* %c.addr, metadata !1860, metadata !1366), !dbg !1762
	call void @llvm.dbg.declare (metadata double* %d.addr, metadata !1861, metadata !1366), !dbg !1762
	store double %d.arg, double* %d.addr, align 8, !tbaa !1399
	call void @llvm.dbg.declare (metadata double* %d.addr, metadata !1862, metadata !1366), !dbg !1762
	call void @llvm.dbg.declare (metadata double* %absacc.addr, metadata !1863, metadata !1366), !dbg !1762
	store double %absacc.arg, double* %absacc.addr, align 8, !tbaa !1399
	call void @llvm.dbg.declare (metadata double* %absacc.addr, metadata !1864, metadata !1366), !dbg !1762
	%0 = load %struct.T2DFunction*, %struct.T2DFunction** %func.addr, align 8, !tbaa !1398, !dbg !1865
	%1 = bitcast %struct.T2DFunction*  %0 to i8*, !dbg !1865
	%2 = bitcast %struct.T2DFunction** %..inline.addr to i8**, !dbg !1865
	store i8*  %1, i8**  %2, align 8, !tbaa !1398, !dbg !1865
	%3 = load double, double* %c.addr, align 8, !tbaa !1403, !dbg !1865
	%4 = load double, double* %d.addr, align 8, !tbaa !1403, !dbg !1865
	%5 = load double, double* %absacc.addr, align 8, !tbaa !1403, !dbg !1865
	%6 = load double, double* %b.addr, align 8, !tbaa !1403, !dbg !1865
	%7 = load double, double* %a.addr, align 8, !tbaa !1403, !dbg !1865
	%8 = fsub double  %6,  %7, !dbg !1865
	%9 = fdiv double  %5,  %8, !dbg !1865
	%10 = bitcast [5 x i32 (...)* (...)*]* @_ZTV11T1DFunction to i8*, !dbg !1866
	%11 = getelementptr i8, i8*  %10, i64 16, !dbg !1866
	%12 = bitcast %struct.Tinty_f2D* %_T40345360_7634.addr to i8**, !dbg !1866
	store i8*  %11, i8**  %12, align 8, !tbaa !1398, !dbg !1866
	%13 = bitcast [5 x i32 (...)* (...)*]* @_ZTV9Tinty_f2D to i8*, !dbg !1866
	%14 = getelementptr i8, i8*  %13, i64 16, !dbg !1866
	store i8*  %14, i8**  %12, align 8, !tbaa !1398, !dbg !1866
	%15 = load %struct.T2DFunction*, %struct.T2DFunction** %..inline.addr, align 8, !tbaa !1398, !dbg !1866
	%16 = bitcast %struct.T2DFunction*  %15 to i8*, !dbg !1866
	%17 = bitcast %struct.Tinty_f2D* %_T40345360_7634.addr to i8*, !dbg !1866
	%18 = getelementptr i8, i8*  %17, i64 8, !dbg !1866
	%19 = bitcast i8*  %18 to i8**, !dbg !1866
	store i8*  %16, i8**  %19, align 8, !tbaa !1398, !dbg !1866
	%20 = getelementptr i8, i8*  %17, i64 16, !dbg !1866
	%21 = bitcast i8*  %20 to double*, !dbg !1866
	store double  %3, double*  %21, align 8, !tbaa !1399, !dbg !1866
	%22 = getelementptr i8, i8*  %17, i64 24, !dbg !1866
	%23 = bitcast i8*  %22 to double*, !dbg !1866
	store double  %4, double*  %23, align 8, !tbaa !1399, !dbg !1866
	%24 = getelementptr i8, i8*  %17, i64 32, !dbg !1866
	%25 = bitcast i8*  %24 to double*, !dbg !1866
	store double  %9, double*  %25, align 8, !tbaa !1399, !dbg !1866
	store double  %7, double* %..inline.addr.4, align 8, !tbaa !1403, !dbg !1865
	store double  %6, double* %..inline.addr.5, align 8, !tbaa !1403, !dbg !1865
	store double  %5, double* %..inline.addr.6, align 8, !tbaa !1403, !dbg !1865
	store i32 0, i32* %..inline.addr.7, align 4, !tbaa !1401, !dbg !1865
	%26 = bitcast [9 x double]* %..inline.addr.8 to double*, !dbg !1874
	store double  1.00000000000000000E+0, double*  %26, align 8, !tbaa !1399, !dbg !1874
	store double  0.00000000000000000E+0, double* %..inline.addr.9, align 8, !tbaa !1403, !dbg !1875
	store i32 1, i32* %..inline.addr.230, align 4, !tbaa !1401, !dbg !1876
	store i32 8, i32* %.x5121.addr, align 4, !tbaa !1401, !dbg !1877
	%27 = bitcast [9 x double]* %..inline.addr.250 to i8*, !dbg !1877
	%28 = getelementptr i8, i8*  %27, i64 8, !dbg !1877
	store i8*  %28, i8** %.G0069.addr, align 8, !tbaa !1398, !dbg !1877
	%29 = bitcast [9 x double]* %..inline.addr.8 to i8*, !dbg !1877
	%30 = getelementptr i8, i8*  %29, i64 8, !dbg !1877
	store i8*  %30, i8** %.G0067.addr, align 8, !tbaa !1398, !dbg !1877
	br label %L..inline.11439
L..inline.11439:
	%31 = load double, double* %..inline.addr.4, align 8, !tbaa !1403, !dbg !1878
	store double  %31, double* %..inline.addr.280, align 8, !tbaa !1403, !dbg !1878
	%32 = load double, double* %..inline.addr.5, align 8, !tbaa !1403, !dbg !1878
	store double  %32, double* %..inline.addr.290, align 8, !tbaa !1403, !dbg !1878
	%33 = bitcast [9 x double]* %..inline.addr.250 to i8*, !dbg !1878
	%34 = load i32, i32* %..inline.addr.230, align 4, !tbaa !1401, !dbg !1878
	%35 = sext i32  %34 to i64, !dbg !1878
	%36 = sub i64  %35, 1, !dbg !1878
	%37 = mul i64  %36, 8, !dbg !1878
	%38 = getelementptr i8, i8*  %33, i64  %37, !dbg !1878
	%39 = bitcast double** %..inline.addr.300 to i8**, !dbg !1878
	store i8*  %38, i8**  %39, align 8, !tbaa !1398, !dbg !1878
	%40 = icmp ne i32  %34, 1, !dbg !1878
	br i1  %40, label %L..inline.11453, label %L.B0272, !dbg !1878
L.B0272:
	%41 = bitcast %struct.Tinty_f2D* %_T40345360_7634.addr to %struct.T1DFunction*, !dbg !1878
	%42 = bitcast %struct.Tinty_f2D* %_T40345360_7634.addr to i8**, !dbg !1878
	%43 = load i8*, i8**  %42, align 8, !tbaa !1398, !dbg !1878
	%44 = bitcast i8*  %43 to double (%struct.T1DFunction*, double)**, !dbg !1878
	%45 = load double (%struct.T1DFunction*, double)*, double (%struct.T1DFunction*, double)**  %44, align 8, !tbaa !1398, !dbg !1878
	%46 = invoke double  %45 (%struct.T1DFunction*  %41, double  %32)
		to label %L.B0273
		unwind label %L_T40346248_7634, !dbg !1878
L.B0273:
	store double  %46, double* %.Q0011.addr, align 8, !tbaa !1403, !dbg !1878
	%47 = load double, double* %..inline.addr.280, align 8, !tbaa !1403, !dbg !1878
	%48 = load i8*, i8**  %42, align 8, !tbaa !1398, !dbg !1878
	%49 = bitcast i8*  %48 to double (%struct.T1DFunction*, double)**, !dbg !1878
	%50 = load double (%struct.T1DFunction*, double)*, double (%struct.T1DFunction*, double)**  %49, align 8, !tbaa !1398, !dbg !1878
	%51 = invoke double  %50 (%struct.T1DFunction*  %41, double  %47)
		to label %L.B0274
		unwind label %L_T40346248_7634, !dbg !1878
L.B0274:
	store double  %51, double* %.Q0012.addr, align 8, !tbaa !1403, !dbg !1878
	%52 = load double, double* %.Q0011.addr, align 8, !tbaa !1403, !dbg !1878
	%53 = fadd double  %52,  %51, !dbg !1878
	%54 = load double, double* %..inline.addr.290, align 8, !tbaa !1403, !dbg !1878
	%55 = load double, double* %..inline.addr.280, align 8, !tbaa !1403, !dbg !1878
	%56 = fsub double  %54,  %55, !dbg !1878
	%57 = fmul double  %56,  5.00000000000000000E-1, !dbg !1878
	%58 = fmul double  %53,  %57, !dbg !1878
	%59 = load double*, double** %..inline.addr.300, align 8, !tbaa !1398, !dbg !1878
	store double  %58, double*  %59, align 8, !tbaa !1399, !dbg !1878
	store i32 1, i32* %..inline.addr.7, align 4, !tbaa !1401, !dbg !1878
	br label %L..inline.11455, !dbg !1878
L..inline.11453:
	%60 = load double, double* %..inline.addr.5, align 8, !tbaa !1403, !dbg !1878
	%61 = load double, double* %..inline.addr.4, align 8, !tbaa !1403, !dbg !1878
	%62 = fsub double  %60,  %61, !dbg !1878
	%63 = load i32, i32* %..inline.addr.7, align 4, !tbaa !1401, !dbg !1878
	%64 = sitofp i32  %63 to double, !dbg !1878
	%65 = fdiv double  %62,  %64, !dbg !1878
	store double  %65, double* %..inline.addr.330, align 8, !tbaa !1403, !dbg !1878
	%66 = call double @llvm.fma.f64 (double  %65, double  5.00000000000000000E-1, double  %61), !dbg !1878
	store double  %66, double* %..inline.addr.340, align 8, !tbaa !1403, !dbg !1878
	store double  0.00000000000000000E+0, double* %..inline.addr.350, align 8, !tbaa !1403, !dbg !1878
	%67 = icmp sle i32  %63, 0, !dbg !1878
	br i1  %67, label %L..inline.11464, label %L.B0275, !dbg !1878
L.B0275:
	store i32  %63, i32* %.x5122.addr, align 4, !tbaa !1401, !dbg !1878
	br label %L..inline.11463
L..inline.11463:
	%68 = bitcast %struct.Tinty_f2D* %_T40345360_7634.addr to %struct.T1DFunction*, !dbg !1878
	%69 = load double, double* %..inline.addr.340, align 8, !tbaa !1403, !dbg !1878
	%70 = bitcast %struct.Tinty_f2D* %_T40345360_7634.addr to i8**, !dbg !1878
	%71 = load i8*, i8**  %70, align 8, !tbaa !1398, !dbg !1878
	%72 = bitcast i8*  %71 to double (%struct.T1DFunction*, double)**, !dbg !1878
	%73 = load double (%struct.T1DFunction*, double)*, double (%struct.T1DFunction*, double)**  %72, align 8, !tbaa !1398, !dbg !1878
	%74 = invoke double  %73 (%struct.T1DFunction*  %68, double  %69)
		to label %L.B0276
		unwind label %L_T40346248_7634, !dbg !1878
L.B0276:
	store double  %74, double* %.Q0013.addr, align 8, !tbaa !1403, !dbg !1878
	%75 = load double, double* %..inline.addr.350, align 8, !tbaa !1403, !dbg !1878
	%76 = fadd double  %74,  %75, !dbg !1878
	store double  %76, double* %..inline.addr.350, align 8, !tbaa !1403, !dbg !1878
	%77 = load double, double* %..inline.addr.330, align 8, !tbaa !1403, !dbg !1878
	%78 = load double, double* %..inline.addr.340, align 8, !tbaa !1403, !dbg !1878
	%79 = fadd double  %77,  %78, !dbg !1878
	store double  %79, double* %..inline.addr.340, align 8, !tbaa !1403, !dbg !1878
	%80 = load i32, i32* %.x5122.addr, align 4, !tbaa !1401, !dbg !1878
	%81 = sub i32  %80, 1, !dbg !1878
	store i32  %81, i32* %.x5122.addr, align 4, !tbaa !1401, !dbg !1878
	%82 = icmp sgt i32  %81, 0, !dbg !1878
	br i1  %82, label %L..inline.11463, label %L..inline.11464, !dbg !1878
L..inline.11464:
	%83 = load double, double* %..inline.addr.290, align 8, !tbaa !1403, !dbg !1878
	%84 = load double, double* %..inline.addr.280, align 8, !tbaa !1403, !dbg !1878
	%85 = fsub double  %83,  %84, !dbg !1878
	%86 = load double, double* %..inline.addr.350, align 8, !tbaa !1403, !dbg !1878
	%87 = fmul double  %85,  %86, !dbg !1878
	%88 = load i32, i32* %..inline.addr.7, align 4, !tbaa !1401, !dbg !1878
	%89 = sitofp i32  %88 to double, !dbg !1878
	%90 = fdiv double  %87,  %89, !dbg !1878
	%91 = load double*, double** %..inline.addr.300, align 8, !tbaa !1398, !dbg !1878
	%92 = load double, double*  %91, align 8, !tbaa !1399, !dbg !1878
	%93 = fadd double  %90,  %92, !dbg !1878
	%94 = fmul double  %93,  5.00000000000000000E-1, !dbg !1878
	store double  %94, double*  %91, align 8, !tbaa !1399, !dbg !1878
	%95 = mul i32  %88, 2, !dbg !1878
	store i32  %95, i32* %..inline.addr.7, align 4, !tbaa !1401, !dbg !1878
	br label %L..inline.11455
L..inline.11455:
	%96 = load i8*, i8** %.G0069.addr, align 8, !tbaa !1398, !dbg !1878
	%97 = getelementptr i8, i8*  %96, i64 18446744073709551608, !dbg !1878
	%98 = bitcast i8*  %97 to double*, !dbg !1878
	%99 = load double, double*  %98, align 8, !tbaa !1399, !dbg !1878
	store double  %99, double* %..inline.addr.380, align 8, !tbaa !1403, !dbg !1878
	%100 = load i32, i32* %..inline.addr.230, align 4, !tbaa !1401, !dbg !1879
	%101 = icmp slt i32  %100, 2, !dbg !1879
	br i1  %101, label %L..inline.11466, label %L.B0277, !dbg !1879
L.B0277:
	%102 = icmp slt i32  %100, 5, !dbg !1880
	%103 = select i1  %102, i32  %100, i32 5, !dbg !1880
	store i32  %103, i32* %..inline.addr.390, align 4, !tbaa !1401, !dbg !1880
	%104 = bitcast [9 x double]* %..inline.addr.8 to i8*, !dbg !1881
	%105 = sub i32  %100,  %103, !dbg !1881
	%106 = sext i32  %105 to i64, !dbg !1881
	%107 = mul i64  %106, 8, !dbg !1881
	%108 = getelementptr i8, i8*  %104, i64  %107, !dbg !1881
	%109 = bitcast double** %..inline.addr.400 to i8**, !dbg !1881
	store i8*  %108, i8**  %109, align 8, !tbaa !1398, !dbg !1881
	%110 = bitcast [9 x double]* %..inline.addr.250 to i8*, !dbg !1881
	%111 = mul i64  %106, 8, !dbg !1881
	%112 = getelementptr i8, i8*  %110, i64  %111, !dbg !1881
	%113 = bitcast double** %..inline.addr.410 to i8**, !dbg !1881
	store i8*  %112, i8**  %113, align 8, !tbaa !1398, !dbg !1881
	store i32  %103, i32* %..inline.addr.420, align 4, !tbaa !1401, !dbg !1881
	store i32 0, i32* %..inline.addr.430, align 4, !tbaa !1401, !dbg !1881
	%114 = load double*, double** %..inline.addr.400, align 8, !tbaa !1398, !dbg !1881
	%115 = load double, double*  %114, align 8, !tbaa !1399, !dbg !1881
	%116 = fsub double -0.00000000e+00,  %115, !dbg !1881
	%117 = call double @llvm.fabs.f64 (double  %116), !dbg !1881
	store double  %117, double* %..inline.addr.440, align 8, !tbaa !1403, !dbg !1881
	store i32 0, i32* %.ndi0014.addr, align 4, !tbaa !1401, !dbg !1882
	%118 = icmp slt i32  %100, 5, !dbg !1882
	%119 = select i1  %118, i32  %100, i32 5, !dbg !1882
	%120 = icmp sle i32  %119, 0, !dbg !1882
	br i1  %120, label %L.B0267, label %L.B0278, !dbg !1882
L.B0278:
	%121 = icmp slt i32  %100, 5, !dbg !1881
	%122 = select i1  %121, i32  %100, i32 5, !dbg !1881
	store i32  %122, i32* %.lcr015122.addr, align 4, !tbaa !1401, !dbg !1881
	br label %L.B0266
L.B0266:
	%123 = load i32, i32* %.ndi0014.addr, align 4, !tbaa !1401, !dbg !1882
	%124 = sext i32  %123 to i64, !dbg !1882
	%125 = load double*, double** %..inline.addr.400, align 8, !tbaa !1398, !dbg !1882
	%126 = getelementptr double, double*  %125, i64  %124, !dbg !1882
	%127 = load double, double*  %126, align 8, !tbaa !1399, !dbg !1882
	%128 = fsub double -0.00000000e+00,  %127, !dbg !1882
	%129 = call double @llvm.fabs.f64 (double  %128), !dbg !1882
	store double  %129, double* %..inline.addr.470, align 8, !tbaa !1403, !dbg !1882
	%130 = load double, double* %..inline.addr.440, align 8, !tbaa !1403, !dbg !1882
	%131 = fcmp uge double  %129,  %130, !dbg !1882
	br i1  %131, label %L..inline.11488, label %L.B0279, !dbg !1882
L.B0279:
	store i32  %123, i32* %..inline.addr.430, align 4, !tbaa !1401, !dbg !1882
	store double  %129, double* %..inline.addr.440, align 8, !tbaa !1403, !dbg !1882
	br label %L..inline.11488
L..inline.11488:
	%132 = load i32, i32* %.ndi0014.addr, align 4, !tbaa !1401, !dbg !1882
	%133 = sext i32  %132 to i64, !dbg !1882
	%134 = load double*, double** %..inline.addr.410, align 8, !tbaa !1398, !dbg !1882
	%135 = getelementptr double, double*  %134, i64  %133, !dbg !1882
	%136 = load double, double*  %135, align 8, !tbaa !1399, !dbg !1882
	%137 = bitcast [20 x double]* %..inline.addr.480 to double*, !dbg !1882
	%138 = getelementptr double, double*  %137, i64  %133, !dbg !1882
	store double  %136, double*  %138, align 8, !tbaa !1399, !dbg !1882
	%139 = bitcast [20 x double]* %..inline.addr.490 to double*, !dbg !1882
	%140 = getelementptr double, double*  %139, i64  %133, !dbg !1882
	store double  %136, double*  %140, align 8, !tbaa !1399, !dbg !1882
	%141 = add i32  %132, 1, !dbg !1882
	store i32  %141, i32* %.ndi0014.addr, align 4, !tbaa !1401, !dbg !1882
	%142 = load i32, i32* %.lcr015122.addr, align 4, !tbaa !1401, !dbg !1882
	%143 = icmp slt i32  %141,  %142, !dbg !1882
	br i1  %143, label %L.B0266, label %L.B0267, !dbg !1882
L.B0267:
	%144 = load i32, i32* %..inline.addr.430, align 4, !tbaa !1401, !dbg !1881
	%145 = sext i32  %144 to i64, !dbg !1881
	%146 = load double*, double** %..inline.addr.410, align 8, !tbaa !1398, !dbg !1881
	%147 = getelementptr double, double*  %146, i64  %145, !dbg !1881
	%148 = load double, double*  %147, align 8, !tbaa !1399, !dbg !1881
	store double  %148, double* %..inline.addr.500, align 8, !tbaa !1403, !dbg !1881

	%149 = sub i32  %144, 1, !dbg !1881
	store i32  %149, i32* %..inline.addr.430, align 4, !tbaa !1401, !dbg !1881
	%150 = load i32, i32* %..inline.addr.420, align 4, !tbaa !1401, !dbg !1865
	%151 = sext i32  %150 to i64, !dbg !1865
	%152 = sub i64  %151, 1, !dbg !1865
	store i64  %152, i64* %.TRP0006.addr, align 8, !tbaa !1449, !dbg !1865
	store i64 0, i64* %.ndk0028.addr, align 8, !tbaa !1451, !dbg !1882
	%153 = icmp sle i64  %152, 0, !dbg !1882
	br i1  %153, label %L.B0269, label %L.B0280, !dbg !1882
L.B0280:
	store i64  %152, i64* %.lcr055122.addr, align 8, !tbaa !1451, !dbg !1881
	br label %L.B0268
L.B0268:
	%154 = load i32, i32* %..inline.addr.420, align 4, !tbaa !1401, !dbg !1882
	%155 = load i64, i64* %.ndk0028.addr, align 8, !tbaa !1451, !dbg !1882
	%156 = trunc i64  %155 to i32, !dbg !1882
	%157 = sub i32  %154,  %156, !dbg !1882
	%158 = sext i32  %157 to i64, !dbg !1882
	%159 = sub i64  %158, 1, !dbg !1882
	store i64  %159, i64* %.TRP0007.addr, align 8, !tbaa !1449, !dbg !1882
	store i64 0, i64* %.ndk0030.addr, align 8, !tbaa !1451, !dbg !1882
	%160 = icmp sle i64  %159, 0, !dbg !1882
	br i1  %160, label %L.B0271, label %L.B0281, !dbg !1882
L.B0281:
	store i64  %159, i64* %.lcr055123.addr, align 8, !tbaa !1451, !dbg !1881
	store i32  %156, i32* %.r6.0563.addr, align 4, !tbaa !1401, !dbg !1881
	%161 = bitcast [20 x double]* %..inline.addr.490 to i8*, !dbg !1881
	store i8*  %161, i8** %.G0054.addr, align 8, !tbaa !1398, !dbg !1881
	br label %L.B0270
L.B0270:
	%162 = load i64, i64* %.ndk0030.addr, align 8, !tbaa !1451, !dbg !1882
	%163 = trunc i64  %162 to i32, !dbg !1882
	%164 = sext i32  %163 to i64, !dbg !1882
	%165 = load double*, double** %..inline.addr.400, align 8, !tbaa !1398, !dbg !1882
	%166 = getelementptr double, double*  %165, i64  %164, !dbg !1882
	%167 = load double, double*  %166, align 8, !tbaa !1399, !dbg !1882
	%168 = load i8*, i8** %.G0054.addr, align 8, !tbaa !1398, !dbg !1882
	%169 = getelementptr i8, i8*  %168, i64 8, !dbg !1882
	%170 = bitcast i8*  %169 to double*, !dbg !1882
	%171 = load double, double*  %170, align 8, !tbaa !1399, !dbg !1882
	%172 = bitcast [20 x double]* %..inline.addr.480 to double*, !dbg !1882
	%173 = getelementptr double, double*  %172, i64  %164, !dbg !1882
	%174 = load double, double*  %173, align 8, !tbaa !1399, !dbg !1882
	%175 = fsub double  %171,  %174, !dbg !1882
	%176 = load i32, i32* %.r6.0563.addr, align 4, !tbaa !1401, !dbg !1882
	%177 = add i32  %176,  %163, !dbg !1882
	%178 = sext i32  %177 to i64, !dbg !1882
	%179 = bitcast double*  %165 to i8*, !dbg !1882
	%180 = getelementptr i8, i8*  %179, i64 8, !dbg !1882
	%181 = bitcast i8*  %180 to double*, !dbg !1882
	%182 = getelementptr double, double*  %181, i64  %178, !dbg !1882
	%183 = load double, double*  %182, align 8, !tbaa !1399, !dbg !1882
	%184 = fsub double  %167,  %183, !dbg !1882
	%185 = fdiv double  %175,  %184, !dbg !1882
	%186 = fmul double  %185,  %183, !dbg !1882
	store double  %186, double*  %173, align 8, !tbaa !1399, !dbg !1882
	%187 = fmul double  %167,  %185, !dbg !1882
	%188 = bitcast i8*  %168 to double*, !dbg !1882
	store double  %187, double*  %188, align 8, !tbaa !1399, !dbg !1882
	%189 = add i64  %162, 1, !dbg !1882
	store i64  %189, i64* %.ndk0030.addr, align 8, !tbaa !1451, !dbg !1882
	store i8*  %169, i8** %.G0054.addr, align 8, !tbaa !1398, !dbg !1881
	%190 = load i64, i64* %.lcr055123.addr, align 8, !tbaa !1451, !dbg !1882
	%191 = icmp slt i64  %189,  %190, !dbg !1882
	br i1  %191, label %L.B0270, label %L.B0271, !dbg !1882
L.B0271:
	%192 = load i32, i32* %..inline.addr.430, align 4, !tbaa !1401, !dbg !1882
	%193 = add i32  %192, 1, !dbg !1882
	%194 = mul i32  %193, 2, !dbg !1882
	%195 = load i32, i32* %..inline.addr.420, align 4, !tbaa !1401, !dbg !1882
	%196 = load i64, i64* %.ndk0028.addr, align 8, !tbaa !1451, !dbg !1882
	%197 = trunc i64  %196 to i32, !dbg !1882
	%198 = sub i32  %195,  %197, !dbg !1882
	%199 = sub i32  %198, 1, !dbg !1882
	%200 = icmp sge i32  %194,  %199, !dbg !1882
	br i1  %200, label %L..inline.11507, label %L.B0282, !dbg !1882
L.B0282:
	%201 = sext i32  %192 to i64, !dbg !1882
	%202 = bitcast [20 x double]* %..inline.addr.490 to i8*, !dbg !1882
	%203 = getelementptr i8, i8*  %202, i64 8, !dbg !1882
	%204 = bitcast i8*  %203 to double*, !dbg !1882
	%205 = getelementptr double, double*  %204, i64  %201, !dbg !1882
	%206 = load double, double*  %205, align 8, !tbaa !1399, !dbg !1882
	store double  %206, double* %..inline.addr.9, align 8, !tbaa !1403, !dbg !1882
	br label %L..inline.11509, !dbg !1882
L..inline.11507:
	%207 = load i32, i32* %..inline.addr.430, align 4, !tbaa !1401, !dbg !1882
	%208 = sext i32  %207 to i64, !dbg !1882
	%209 = bitcast [20 x double]* %..inline.addr.480 to double*, !dbg !1882
	%210 = getelementptr double, double*  %209, i64  %208, !dbg !1882
	%211 = load double, double*  %210, align 8, !tbaa !1399, !dbg !1882
	store double  %211, double* %..inline.addr.9, align 8, !tbaa !1403, !dbg !1882

	%212 = sub i32  %207, 1, !dbg !1882
	store i32  %212, i32* %..inline.addr.430, align 4, !tbaa !1401, !dbg !1882
	br label %L..inline.11509
L..inline.11509:
	%213 = load double, double* %..inline.addr.9, align 8, !tbaa !1403, !dbg !1882
	%214 = load double, double* %..inline.addr.500, align 8, !tbaa !1403, !dbg !1882
	%215 = fadd double  %213,  %214, !dbg !1882
	store double  %215, double* %..inline.addr.500, align 8, !tbaa !1403, !dbg !1882
	%216 = load i64, i64* %.ndk0028.addr, align 8, !tbaa !1451, !dbg !1882
	%217 = add i64  %216, 1, !dbg !1882
	store i64  %217, i64* %.ndk0028.addr, align 8, !tbaa !1451, !dbg !1882
	%218 = load i64, i64* %.lcr055122.addr, align 8, !tbaa !1451, !dbg !1882
	%219 = icmp slt i64  %217,  %218, !dbg !1882
	br i1  %219, label %L.B0268, label %L.B0269, !dbg !1882
L.B0269:
	%220 = bitcast [9 x double]* %..inline.addr.8 to i8*, !dbg !1882
	%221 = load i32, i32* %..inline.addr.230, align 4, !tbaa !1401, !dbg !1882
	%222 = load i32, i32* %..inline.addr.390, align 4, !tbaa !1401, !dbg !1882
	%223 = sub i32  %221,  %222, !dbg !1882
	%224 = sext i32  %223 to i64, !dbg !1882
	%225 = mul i64  %224, 8, !dbg !1882
	%226 = getelementptr i8, i8*  %220, i64  %225, !dbg !1882
	%227 = bitcast double** %..inline.addr.620 to i8**, !dbg !1882
	store i8*  %226, i8**  %227, align 8, !tbaa !1398, !dbg !1882
	%228 = bitcast [9 x double]* %..inline.addr.250 to i8*, !dbg !1882
	%229 = mul i64  %224, 8, !dbg !1882
	%230 = getelementptr i8, i8*  %228, i64  %229, !dbg !1882
	%231 = bitcast double** %..inline.addr.630 to i8**, !dbg !1882
	store i8*  %230, i8**  %231, align 8, !tbaa !1398, !dbg !1882
	store i32  %222, i32* %..inline.addr.640, align 4, !tbaa !1401, !dbg !1882
	store i32 0, i32* %..inline.addr.650, align 4, !tbaa !1401, !dbg !1882
	%232 = load double*, double** %..inline.addr.620, align 8, !tbaa !1398, !dbg !1882
	%233 = load double, double*  %232, align 8, !tbaa !1399, !dbg !1882
	%234 = fsub double -0.00000000e+00,  %233, !dbg !1882
	%235 = call double @llvm.fabs.f64 (double  %234), !dbg !1882
	store double  %235, double* %..inline.addr.660, align 8, !tbaa !1403, !dbg !1882
	store i32 0, i32* %..inline.addr.670, align 4, !tbaa !1401, !dbg !1882
	%236 = icmp sle i32  %222, 0, !dbg !1882
	br i1  %236, label %L..inline.11525, label %L.B0283, !dbg !1882
L.B0283:
	store i32  %222, i32* %.lcr015122.addr, align 4, !tbaa !1401, !dbg !1882
	br label %L..inline.11524
L..inline.11524:
	%237 = load i32, i32* %..inline.addr.670, align 4, !tbaa !1401, !dbg !1882
	%238 = sext i32  %237 to i64, !dbg !1882
	%239 = load double*, double** %..inline.addr.620, align 8, !tbaa !1398, !dbg !1882
	%240 = getelementptr double, double*  %239, i64  %238, !dbg !1882
	%241 = load double, double*  %240, align 8, !tbaa !1399, !dbg !1882
	%242 = fsub double -0.00000000e+00,  %241, !dbg !1882
	%243 = call double @llvm.fabs.f64 (double  %242), !dbg !1882
	store double  %243, double* %..inline.addr.680, align 8, !tbaa !1403, !dbg !1882
	%244 = fcmp une double  %243,  0.00000000000000000E+0, !dbg !1882
	br i1  %244, label %L..inline.11527, label %L.B0284, !dbg !1882
L.B0284:
	%245 = load double*, double** %..inline.addr.630, align 8, !tbaa !1398, !dbg !1882
	%246 = getelementptr double, double*  %245, i64  %238, !dbg !1882
	%247 = load double, double*  %246, align 8, !tbaa !1399, !dbg !1882
	store double  %247, double* %..inline.addr.690, align 8, !tbaa !1403, !dbg !1882
	store double  0.00000000000000000E+0, double* %..inline.addr.700, align 8, !tbaa !1403, !dbg !1882
	br label %L..inline.11530, !dbg !1882
L..inline.11527:
	%248 = load double, double* %..inline.addr.680, align 8, !tbaa !1403, !dbg !1882
	%249 = load double, double* %..inline.addr.660, align 8, !tbaa !1403, !dbg !1882
	%250 = fcmp uge double  %248,  %249, !dbg !1882
	br i1  %250, label %L..inline.11532, label %L.B0285, !dbg !1882
L.B0285:
	%251 = load i32, i32* %..inline.addr.670, align 4, !tbaa !1401, !dbg !1882
	store i32  %251, i32* %..inline.addr.650, align 4, !tbaa !1401, !dbg !1882
	store double  %248, double* %..inline.addr.660, align 8, !tbaa !1403, !dbg !1882
	br label %L..inline.11532
L..inline.11532:
	%252 = load i32, i32* %..inline.addr.670, align 4, !tbaa !1401, !dbg !1882
	%253 = sext i32  %252 to i64, !dbg !1882
	%254 = load double*, double** %..inline.addr.630, align 8, !tbaa !1398, !dbg !1882
	%255 = getelementptr double, double*  %254, i64  %253, !dbg !1882
	%256 = load double, double*  %255, align 8, !tbaa !1399, !dbg !1882
	%257 = bitcast [20 x double]* %..inline.addr.710 to double*, !dbg !1882
	%258 = getelementptr double, double*  %257, i64  %253, !dbg !1882
	store double  %256, double*  %258, align 8, !tbaa !1399, !dbg !1882
	%259 = load double, double*  %255, align 8, !tbaa !1399, !dbg !1882
	%260 = fadd double  %259,  1.00000000000000008E-30, !dbg !1882
	%261 = bitcast [20 x double]* %..inline.addr.720 to double*, !dbg !1882
	%262 = getelementptr double, double*  %261, i64  %253, !dbg !1882
	store double  %260, double*  %262, align 8, !tbaa !1399, !dbg !1882

	%263 = add i32  %252, 1, !dbg !1882
	store i32  %263, i32* %..inline.addr.670, align 4, !tbaa !1401, !dbg !1882
	%264 = load i32, i32* %.lcr015122.addr, align 4, !tbaa !1401, !dbg !1882
	%265 = icmp slt i32  %263,  %264, !dbg !1882
	br i1  %265, label %L..inline.11524, label %L..inline.11525, !dbg !1882
L..inline.11525:
	%266 = load i32, i32* %..inline.addr.650, align 4, !tbaa !1401, !dbg !1882

	%267 = sub i32  %266, 1, !dbg !1882
	store i32  %267, i32* %..inline.addr.650, align 4, !tbaa !1401, !dbg !1882
	%268 = sext i32  %266 to i64, !dbg !1882
	%269 = load double*, double** %..inline.addr.630, align 8, !tbaa !1398, !dbg !1882
	%270 = getelementptr double, double*  %269, i64  %268, !dbg !1882
	%271 = load double, double*  %270, align 8, !tbaa !1399, !dbg !1882
	store double  %271, double* %..inline.addr.690, align 8, !tbaa !1403, !dbg !1882
	store i32 1, i32* %..inline.addr.740, align 4, !tbaa !1401, !dbg !1882
	%272 = load i32, i32* %..inline.addr.640, align 4, !tbaa !1401, !dbg !1882
	%273 = icmp sge i32 1,  %272, !dbg !1882
	br i1  %273, label %L..inline.11537, label %L.B0286, !dbg !1882
L.B0286:
	%274 = sub i32  %272, 1, !dbg !1882
	store i32  %274, i32* %.x5122.addr, align 4, !tbaa !1401, !dbg !1882
	br label %L..inline.11536
L..inline.11536:
	store i32 0, i32* %..inline.addr.670, align 4, !tbaa !1401, !dbg !1882
	%275 = load i32, i32* %..inline.addr.640, align 4, !tbaa !1401, !dbg !1882
	%276 = load i32, i32* %..inline.addr.740, align 4, !tbaa !1401, !dbg !1882
	%277 = sub i32  %275,  %276, !dbg !1882
	%278 = icmp sle i32  %277, 0, !dbg !1882
	br i1  %278, label %L..inline.11539, label %L.B0287, !dbg !1882
L.B0287:
	store i32  %277, i32* %.lcr015123.addr, align 4, !tbaa !1401, !dbg !1882
	%279 = bitcast [20 x double]* %..inline.addr.710 to i8*, !dbg !1882
	%280 = getelementptr i8, i8*  %279, i64 8, !dbg !1882
	store i8*  %280, i8** %.G0054.addr, align 8, !tbaa !1398, !dbg !1882
	br label %L..inline.11538
L..inline.11538:
	%281 = load i8*, i8** %.G0054.addr, align 8, !tbaa !1398, !dbg !1882
	%282 = bitcast i8*  %281 to double*, !dbg !1882
	%283 = load double, double*  %282, align 8, !tbaa !1399, !dbg !1882
	%284 = load i32, i32* %..inline.addr.670, align 4, !tbaa !1401, !dbg !1882
	%285 = sext i32  %284 to i64, !dbg !1882
	%286 = bitcast [20 x double]* %..inline.addr.720 to double*, !dbg !1882
	%287 = getelementptr double, double*  %286, i64  %285, !dbg !1882
	%288 = load double, double*  %287, align 8, !tbaa !1399, !dbg !1882
	%289 = fsub double  %283,  %288, !dbg !1882
	store double  %289, double* %..inline.addr.760, align 8, !tbaa !1403, !dbg !1882
	%290 = load double*, double** %..inline.addr.620, align 8, !tbaa !1398, !dbg !1882
	%291 = getelementptr double, double*  %290, i64  %285, !dbg !1882
	%292 = load double, double*  %291, align 8, !tbaa !1399, !dbg !1882
	%293 = fmul double  %288,  %292, !dbg !1882
	%294 = load i32, i32* %..inline.addr.740, align 4, !tbaa !1401, !dbg !1882
	%295 = add i32  %284,  %294, !dbg !1882
	%296 = sext i32  %295 to i64, !dbg !1882
	%297 = getelementptr double, double*  %290, i64  %296, !dbg !1882
	%298 = load double, double*  %297, align 8, !tbaa !1399, !dbg !1882
	%299 = fdiv double  %293,  %298, !dbg !1882
	store double  %299, double* %..inline.addr.770, align 8, !tbaa !1403, !dbg !1882
	%300 = fsub double  %299,  %283, !dbg !1882
	store double  %300, double* %..inline.addr.780, align 8, !tbaa !1403, !dbg !1882
	%301 = fcmp une double  %300,  0.00000000000000000E+0, !dbg !1882
	br i1  %301, label %L..inline.11543, label %L.B0288, !dbg !1882
L.B0288:
	%302 = bitcast [21 x i8]* @.S08003 to i8*, !dbg !1882
	%303 = icmp ne i8*  %302,  null, !dbg !1882
	br i1  %303, label %L..inline.11548, label %L.B0289, !dbg !1882
L.B0289:
	%304 = bitcast %struct._ZSo* @_ZSt4cerr to i8*, !dbg !1882
	%305 = bitcast %struct._ZSo* @_ZSt4cerr to i8**, !dbg !1882
	%306 = load i8*, i8**  %305, align 8, !tbaa !1398, !dbg !1882
	%307 = getelementptr i8, i8*  %306, i64 18446744073709551592, !dbg !1882
	%308 = bitcast i8*  %307 to i64*, !dbg !1882
	%309 = load i64, i64*  %308, align 8, !tbaa !1399, !dbg !1882
	%310 = getelementptr i8, i8*  %304, i64  %309, !dbg !1882
	%311 = bitcast %struct._ZSt9basic_iosIcSt11char_traitsIcEE** %..inline.addr.790 to i8**, !dbg !1882
	store i8*  %310, i8**  %311, align 8, !tbaa !1398, !dbg !1882
	%312 = load %struct._ZSt9basic_iosIcSt11char_traitsIcEE*, %struct._ZSt9basic_iosIcSt11char_traitsIcEE** %..inline.addr.790, align 8, !tbaa !1398, !dbg !1882
	%313 = bitcast %struct._ZSt9basic_iosIcSt11char_traitsIcEE*  %312 to i8*, !dbg !1882
	%314 = bitcast %struct._ZSt9basic_iosIcSt11char_traitsIcEE** %..inline.addr.800 to i8**, !dbg !1882
	store i8*  %313, i8**  %314, align 8, !tbaa !1398, !dbg !1882
	%315 = load %struct._ZSt9basic_iosIcSt11char_traitsIcEE*, %struct._ZSt9basic_iosIcSt11char_traitsIcEE** %..inline.addr.800, align 8, !tbaa !1398, !dbg !1882
	%316 = bitcast %struct._ZSt9basic_iosIcSt11char_traitsIcEE*  %315 to i8*, !dbg !1882
	%317 = getelementptr i8, i8*  %316, i64 32, !dbg !1882
	%318 = bitcast i8*  %317 to i32*, !dbg !1882
	%319 = load i32, i32*  %318, align 4, !tbaa !1399, !dbg !1882
	%320 = or i32  %319, 1, !dbg !1882
	invoke void  @_ZNSt9basic_iosIcSt11char_traitsIcEE5clearESt12_Ios_Iostate (%struct._ZSt9basic_iosIcSt11char_traitsIcEE*  %312, i32  %320)
		to label %L.B0290
		unwind label %L_T40346248_7634, !dbg !1882
L.B0290:
	br label %L..inline.11569, !dbg !1882
L..inline.11548:
	%321 = bitcast [21 x i8]* @.S08003 to i8*, !dbg !1882
	%322 = call i64  @strlen (i8*  %321) nounwind, !dbg !1882
	%323 = invoke %struct._ZSo*  @_ZSt16__ostream_insertIcSt11char_traitsIcEERSt13basic_ostreamIT_T0_ES6_PKS3_l (%struct._ZSo* @_ZSt4cerr, i8*  %321, i64  %322)
		to label %L.B0291
		unwind label %L_T40346248_7634, !dbg !1882
L.B0291:
	%324 = bitcast %struct._ZSo*  %323 to i8*, !dbg !1882
	%325 = bitcast %struct._ZSo** %.Q0014.addr to i8**, !dbg !1882
	store i8*  %324, i8**  %325, align 8, !tbaa !1398, !dbg !1882
	br label %L..inline.11569
L..inline.11569:
	call void  @exit (i32 111) nounwind noreturn, !dbg !1882
	br label %L..inline.11543
L..inline.11543:
	%326 = load double, double* %..inline.addr.760, align 8, !tbaa !1403, !dbg !1882
	%327 = load double, double* %..inline.addr.780, align 8, !tbaa !1403, !dbg !1882
	%328 = fdiv double  %326,  %327, !dbg !1882
	%329 = load i8*, i8** %.G0054.addr, align 8, !tbaa !1398, !dbg !1882
	%330 = bitcast i8*  %329 to double*, !dbg !1882
	%331 = load double, double*  %330, align 8, !tbaa !1399, !dbg !1882
	%332 = fmul double  %328,  %331, !dbg !1882
	%333 = load i32, i32* %..inline.addr.670, align 4, !tbaa !1401, !dbg !1882
	%334 = sext i32  %333 to i64, !dbg !1882
	%335 = bitcast [20 x double]* %..inline.addr.720 to double*, !dbg !1882
	%336 = getelementptr double, double*  %335, i64  %334, !dbg !1882
	store double  %332, double*  %336, align 8, !tbaa !1399, !dbg !1882
	%337 = load double, double* %..inline.addr.770, align 8, !tbaa !1403, !dbg !1882
	%338 = fmul double  %337,  %328, !dbg !1882
	%339 = getelementptr i8, i8*  %329, i64 18446744073709551608, !dbg !1882
	%340 = bitcast i8*  %339 to double*, !dbg !1882
	store double  %338, double*  %340, align 8, !tbaa !1399, !dbg !1882

	%341 = add i32  %333, 1, !dbg !1882
	store i32  %341, i32* %..inline.addr.670, align 4, !tbaa !1401, !dbg !1882
	%342 = getelementptr i8, i8*  %329, i64 8, !dbg !1882
	store i8*  %342, i8** %.G0054.addr, align 8, !tbaa !1398, !dbg !1882
	%343 = load i32, i32* %.lcr015123.addr, align 4, !tbaa !1401, !dbg !1882
	%344 = icmp slt i32  %341,  %343, !dbg !1882
	br i1  %344, label %L..inline.11538, label %L..inline.11539, !dbg !1882
L..inline.11539:
	%345 = load i32, i32* %..inline.addr.650, align 4, !tbaa !1401, !dbg !1882
	%346 = add i32  %345, 1, !dbg !1882
	%347 = mul i32  %346, 2, !dbg !1882
	%348 = load i32, i32* %..inline.addr.640, align 4, !tbaa !1401, !dbg !1882
	%349 = load i32, i32* %..inline.addr.740, align 4, !tbaa !1401, !dbg !1882
	%350 = sub i32  %348,  %349, !dbg !1882
	%351 = icmp sge i32  %347,  %350, !dbg !1882
	br i1  %351, label %L..inline.11578, label %L.B0292, !dbg !1882
L.B0292:
	%352 = sext i32  %345 to i64, !dbg !1882
	%353 = bitcast [20 x double]* %..inline.addr.710 to i8*, !dbg !1882
	%354 = getelementptr i8, i8*  %353, i64 8, !dbg !1882
	%355 = bitcast i8*  %354 to double*, !dbg !1882
	%356 = getelementptr double, double*  %355, i64  %352, !dbg !1882
	%357 = load double, double*  %356, align 8, !tbaa !1399, !dbg !1882
	store double  %357, double* %..inline.addr.840, align 8, !tbaa !1403, !dbg !1882
	br label %L..inline.11580, !dbg !1882
L..inline.11578:
	%358 = load i32, i32* %..inline.addr.650, align 4, !tbaa !1401, !dbg !1882

	%359 = sub i32  %358, 1, !dbg !1882
	store i32  %359, i32* %..inline.addr.650, align 4, !tbaa !1401, !dbg !1882
	%360 = sext i32  %358 to i64, !dbg !1882
	%361 = bitcast [20 x double]* %..inline.addr.720 to double*, !dbg !1882
	%362 = getelementptr double, double*  %361, i64  %360, !dbg !1882
	%363 = load double, double*  %362, align 8, !tbaa !1399, !dbg !1882
	store double  %363, double* %..inline.addr.840, align 8, !tbaa !1403, !dbg !1882
	br label %L..inline.11580
L..inline.11580:
	%364 = load double, double* %..inline.addr.840, align 8, !tbaa !1403, !dbg !1882
	store double  %364, double* %..inline.addr.700, align 8, !tbaa !1403, !dbg !1882
	%365 = load double, double* %..inline.addr.690, align 8, !tbaa !1403, !dbg !1882
	%366 = fadd double  %364,  %365, !dbg !1882
	store double  %366, double* %..inline.addr.690, align 8, !tbaa !1403, !dbg !1882
	%367 = load i32, i32* %..inline.addr.740, align 4, !tbaa !1401, !dbg !1882

	%368 = add i32  %367, 1, !dbg !1882
	store i32  %368, i32* %..inline.addr.740, align 4, !tbaa !1401, !dbg !1882
	%369 = load i32, i32* %.x5122.addr, align 4, !tbaa !1401, !dbg !1882
	%370 = sub i32  %369, 1, !dbg !1882
	store i32  %370, i32* %.x5122.addr, align 4, !tbaa !1401, !dbg !1882
	%371 = icmp sgt i32  %370, 0, !dbg !1882
	br i1  %371, label %L..inline.11536, label %L..inline.11537, !dbg !1882
L..inline.11537:
	br label %L..inline.11530
L..inline.11530:
	%372 = load double, double* %..inline.addr.9, align 8, !tbaa !1403, !dbg !1882
	%373 = call double @llvm.fabs.f64 (double  %372), !dbg !1882
	store double  %373, double* %..inline.addr.9, align 8, !tbaa !1403, !dbg !1882
	%374 = load double, double* %..inline.addr.700, align 8, !tbaa !1403, !dbg !1883
	%375 = call double @llvm.fabs.f64 (double  %374), !dbg !1883
	store double  %375, double* %..inline.addr.700, align 8, !tbaa !1403, !dbg !1883
	%376 = call double @llvm.maxnum.f64 (double  %373, double  %375), !dbg !1884
	%377 = fcmp uno double  %375,  %375, !dbg !1884
	%378 = select i1  %377, double  %373, double  %376, !dbg !1884
	%379 = load double, double* %..inline.addr.500, align 8, !tbaa !1403, !dbg !1885
	%380 = load double, double* %..inline.addr.690, align 8, !tbaa !1403, !dbg !1885
	%381 = fsub double  %379,  %380, !dbg !1885
	%382 = call double @llvm.fabs.f64 (double  %381), !dbg !1885
	%383 = call double @llvm.maxnum.f64 (double  %378, double  %382), !dbg !1886
	%384 = fcmp uno double  %382,  %382, !dbg !1886
	%385 = select i1  %384, double  %378, double  %383, !dbg !1886
	%386 = load double, double* %..inline.addr.6, align 8, !tbaa !1403, !dbg !1887
	%387 = fcmp uge double  %385,  %386, !dbg !1887
	br i1  %387, label %L..inline.11588, label %L.B0293, !dbg !1887
L.B0293:
	%388 = fadd double  %379,  %380, !dbg !1887
	%389 = fmul double  %388,  5.00000000000000000E-1, !dbg !1887
	store double  %389, double* %..inline.addr.380, align 8, !tbaa !1403, !dbg !1887
	br label %L..inline.11589, !dbg !1888
L..inline.11588:
	br label %L..inline.11466
L..inline.11466:
	%390 = load i8*, i8** %.G0069.addr, align 8, !tbaa !1398, !dbg !1889
	%391 = getelementptr i8, i8*  %390, i64 18446744073709551608, !dbg !1889
	%392 = bitcast i8*  %391 to double*, !dbg !1889
	%393 = load double, double*  %392, align 8, !tbaa !1399, !dbg !1889
	%394 = bitcast i8*  %390 to double*, !dbg !1889
	store double  %393, double*  %394, align 8, !tbaa !1399, !dbg !1889
	%395 = load i8*, i8** %.G0067.addr, align 8, !tbaa !1398, !dbg !1889
	%396 = getelementptr i8, i8*  %395, i64 18446744073709551608, !dbg !1889
	%397 = bitcast i8*  %396 to double*, !dbg !1889
	%398 = load double, double*  %397, align 8, !tbaa !1399, !dbg !1889
	%399 = fmul double  %398,  2.50000000000000000E-1, !dbg !1889
	%400 = bitcast i8*  %395 to double*, !dbg !1889
	store double  %399, double*  %400, align 8, !tbaa !1399, !dbg !1889
	%401 = load i32, i32* %..inline.addr.230, align 4, !tbaa !1401, !dbg !1890

	%402 = add i32  %401, 1, !dbg !1891
	store i32  %402, i32* %..inline.addr.230, align 4, !tbaa !1401, !dbg !1891
	%403 = getelementptr i8, i8*  %390, i64 8, !dbg !1877
	store i8*  %403, i8** %.G0069.addr, align 8, !tbaa !1398, !dbg !1877
	%404 = getelementptr i8, i8*  %395, i64 8, !dbg !1877
	store i8*  %404, i8** %.G0067.addr, align 8, !tbaa !1398, !dbg !1877
	%405 = load i32, i32* %.x5121.addr, align 4, !tbaa !1401, !dbg !1877
	%406 = sub i32  %405, 1, !dbg !1877
	store i32  %406, i32* %.x5121.addr, align 4, !tbaa !1401, !dbg !1877
	%407 = icmp sgt i32  %406, 0, !dbg !1891
	br i1  %407, label %L..inline.11439, label %L.N0018, !dbg !1891
L.N0018:
	br label %L..inline.11589
L..inline.11589:
	%408 = load double, double* %..inline.addr.380, align 8, !tbaa !1403, !dbg !1892
	%409 = bitcast [5 x i32 (...)* (...)*]* @_ZTV9Tinty_f2D to i8*, !dbg !1865
	%410 = getelementptr i8, i8*  %409, i64 16, !dbg !1865
	%411 = bitcast %struct.Tinty_f2D* %_T40345360_7634.addr to i8**, !dbg !1865
	store i8*  %410, i8**  %411, align 8, !tbaa !1398, !dbg !1865
	%412 = bitcast [5 x i32 (...)* (...)*]* @_ZTV11T1DFunction to i8*, !dbg !1865
	%413 = getelementptr i8, i8*  %412, i64 16, !dbg !1865
	store i8*  %413, i8**  %411, align 8, !tbaa !1398, !dbg !1865
	ret double  %408, !dbg !1865
L.B0294:
	br label %L.R0005, !dbg !1865
L_T40346248_7634:
	%414 = landingpad %astruct.dt64
	cleanup
	%415 = extractvalue %astruct.dt64  %414, 0, !dbg !1865
	store i8*  %415, i8** %__caught_object_address.addr, align 1, !tbaa !1398, !dbg !1865
	%416 = extractvalue %astruct.dt64  %414, 1, !dbg !1865
	store i32  %416, i32* %__catch_clause_number.addr, align 1, !tbaa !1399, !dbg !1865
	%417 = bitcast [5 x i32 (...)* (...)*]* @_ZTV9Tinty_f2D to i8*, !dbg !1865
	%418 = getelementptr i8, i8*  %417, i64 16, !dbg !1865
	%419 = bitcast %struct.Tinty_f2D* %_T40345360_7634.addr to i8**, !dbg !1865
	store i8*  %418, i8**  %419, align 8, !tbaa !1398, !dbg !1865
	%420 = bitcast [5 x i32 (...)* (...)*]* @_ZTV11T1DFunction to i8*, !dbg !1865
	%421 = getelementptr i8, i8*  %420, i64 16, !dbg !1865
	store i8*  %421, i8**  %419, align 8, !tbaa !1398, !dbg !1865
	%422 = load i32, i32* %__catch_clause_number.addr, align 4, !tbaa !1399, !dbg !1865
	%423 = load i8*, i8** %__caught_object_address.addr, align 8, !tbaa !1398, !dbg !1865
	%424 = insertvalue %astruct.dt64 undef, i8*  %423, 0, !dbg !1865
	%425 = insertvalue %astruct.dt64  %424, i32  %422, 1, !dbg !1865
	resume %astruct.dt64  %425 , !dbg !1865
L.R0005:
	ret double 0.0
}

%struct.T3DFunction = type <{ i32 (...)* (...)*}> 
%struct.Tintxy_f3D = type <{ %struct.T1DFunction, %struct.T3DFunction*, double, double, double, double, double}> 

define double @_Z7RombergRK11T3DFunctionddddddd(%struct.T3DFunction* %func.arg, double %a.arg, double %b.arg, double %c.arg, double %d.arg, double %e.arg, double %f.arg, double %absacc.arg) #0 personality i8* bitcast (i32 (...)* @__gxx_personality_v0 to i8*) !dbg !1901 {
L.entry:
	%func.addr = alloca %struct.T3DFunction*, align 8
	%a.addr = alloca double, align 8
	%b.addr = alloca double, align 8
	%c.addr = alloca double, align 8
	%d.addr = alloca double, align 8
	%e.addr = alloca double, align 8
	%f.addr = alloca double, align 8
	%absacc.addr = alloca double, align 8
	%..inline.addr = alloca %struct.T3DFunction*, align 8
	%..inline.addr.1 = alloca double, align 8
	%..inline.addr.2 = alloca double, align 8
	%..inline.addr.3 = alloca double, align 8
	%..inline.addr.4 = alloca double, align 8
	%..inline.addr.5 = alloca double, align 8
	%_T40345952_7635.addr = alloca %struct.Tintxy_f3D, align 8
	%..inline.addr.6 = alloca double, align 8
	%..inline.addr.7 = alloca double, align 8
	%..inline.addr.8 = alloca double, align 8
	%..inline.addr.9 = alloca i32, align 4
	%..inline.addr.270 = alloca [9 x double], align 8
	%..inline.addr.280 = alloca double, align 8
	%..inline.addr.290 = alloca i32, align 4
	%.x6145.addr = alloca i32, align 4
	%..inline.addr.310 = alloca [9 x double], align 8
	%.G0086.addr = alloca i8*, align 8
	%.G0084.addr = alloca i8*, align 8
	%..inline.addr.340 = alloca double, align 8
	%..inline.addr.350 = alloca double, align 8
	%..inline.addr.360 = alloca double*, align 8
	%.Q0015.addr = alloca double, align 8
	%.Q0016.addr = alloca double, align 8
	%..inline.addr.390 = alloca double, align 8
	%..inline.addr.400 = alloca double, align 8
	%..inline.addr.410 = alloca double, align 8
	%.x6146.addr = alloca i32, align 4
	%.Q0017.addr = alloca double, align 8
	%..inline.addr.440 = alloca double, align 8
	%..inline.addr.450 = alloca i32, align 4
	%..inline.addr.460 = alloca double*, align 8
	%..inline.addr.470 = alloca double*, align 8
	%..inline.addr.480 = alloca i32, align 4
	%..inline.addr.490 = alloca i32, align 4
	%..inline.addr.500 = alloca double, align 8
	%.ndi0018.addr = alloca i32, align 4
	%.lcr016146.addr = alloca i32, align 4
	%..inline.addr.530 = alloca double, align 8
	%..inline.addr.540 = alloca [20 x double], align 8
	%..inline.addr.550 = alloca [20 x double], align 8
	%..inline.addr.560 = alloca double, align 8
	%.TRP0008.addr = alloca i64, align 8
	%.ndk0036.addr = alloca i64, align 8
	%.lcr056146.addr = alloca i64, align 8
	%.TRP0009.addr = alloca i64, align 8
	%.ndk0038.addr = alloca i64, align 8
	%.lcr056147.addr = alloca i64, align 8
	%.r7.0577.addr = alloca i32, align 4
	%.G0071.addr = alloca i8*, align 8
	%..inline.addr.650 = alloca double, align 8
	%..inline.addr.660 = alloca double, align 8
	%..inline.addr.670 = alloca double, align 8
	%..inline.addr.680 = alloca double*, align 8
	%..inline.addr.690 = alloca double*, align 8
	%..inline.addr.700 = alloca i32, align 4
	%..inline.addr.710 = alloca i32, align 4
	%..inline.addr.720 = alloca double, align 8
	%..inline.addr.730 = alloca i32, align 4
	%..inline.addr.740 = alloca double, align 8
	%..inline.addr.750 = alloca double, align 8
	%..inline.addr.760 = alloca double, align 8
	%..inline.addr.770 = alloca [20 x double], align 8
	%..inline.addr.780 = alloca [20 x double], align 8
	%.D0037.addr = alloca i32, align 4
	%..inline.addr.800 = alloca i32, align 4
	%.lcr016147.addr = alloca i32, align 4
	%..inline.addr.820 = alloca double, align 8
	%..inline.addr.830 = alloca double, align 8
	%..inline.addr.840 = alloca double, align 8
	%..inline.addr.850 = alloca %struct._ZSt9basic_iosIcSt11char_traitsIcEE*, align 8
	%..inline.addr.860 = alloca %struct._ZSt9basic_iosIcSt11char_traitsIcEE*, align 8
	%..inline.addr.870 = alloca i32, align 4
	%..inline.addr.880 = alloca i64, align 8
	%.Q0018.addr = alloca %struct._ZSo*, align 8
	%..inline.addr.900 = alloca double, align 8
	%.D0038.addr = alloca i32, align 4
	%..inline.addr.920 = alloca double, align 8
	%..inline.addr.930 = alloca double, align 8
	%..inline.addr.940 = alloca double, align 8
	%_T40346248_7635.addr = alloca double, align 8
	%__caught_object_address.addr = alloca i8*, align 8
	%__catch_clause_number.addr = alloca i32, align 4

	call void @llvm.dbg.declare (metadata %struct.T3DFunction** %func.addr, metadata !1993, metadata !1366), !dbg !1902
	store %struct.T3DFunction* %func.arg, %struct.T3DFunction** %func.addr, align 8, !tbaa !1398
	call void @llvm.dbg.declare (metadata %struct.T3DFunction** %func.addr, metadata !1994, metadata !1366), !dbg !1902
	call void @llvm.dbg.declare (metadata double* %a.addr, metadata !1995, metadata !1366), !dbg !1902
	store double %a.arg, double* %a.addr, align 8, !tbaa !1399
	call void @llvm.dbg.declare (metadata double* %a.addr, metadata !1996, metadata !1366), !dbg !1902
	call void @llvm.dbg.declare (metadata double* %b.addr, metadata !1997, metadata !1366), !dbg !1902
	store double %b.arg, double* %b.addr, align 8, !tbaa !1399
	call void @llvm.dbg.declare (metadata double* %b.addr, metadata !1998, metadata !1366), !dbg !1902
	call void @llvm.dbg.declare (metadata double* %c.addr, metadata !1999, metadata !1366), !dbg !1902
	store double %c.arg, double* %c.addr, align 8, !tbaa !1399
	call void @llvm.dbg.declare (metadata double* %c.addr, metadata !2000, metadata !1366), !dbg !1902
	call void @llvm.dbg.declare (metadata double* %d.addr, metadata !2001, metadata !1366), !dbg !1902
	store double %d.arg, double* %d.addr, align 8, !tbaa !1399
	call void @llvm.dbg.declare (metadata double* %d.addr, metadata !2002, metadata !1366), !dbg !1902
	call void @llvm.dbg.declare (metadata double* %e.addr, metadata !2003, metadata !1366), !dbg !1902
	store double %e.arg, double* %e.addr, align 8, !tbaa !1399
	call void @llvm.dbg.declare (metadata double* %e.addr, metadata !2004, metadata !1366), !dbg !1902
	call void @llvm.dbg.declare (metadata double* %f.addr, metadata !2005, metadata !1366), !dbg !1902
	store double %f.arg, double* %f.addr, align 8, !tbaa !1399
	call void @llvm.dbg.declare (metadata double* %f.addr, metadata !2006, metadata !1366), !dbg !1902
	call void @llvm.dbg.declare (metadata double* %absacc.addr, metadata !2007, metadata !1366), !dbg !1902
	store double %absacc.arg, double* %absacc.addr, align 8, !tbaa !1399
	call void @llvm.dbg.declare (metadata double* %absacc.addr, metadata !2008, metadata !1366), !dbg !1902
	%0 = load %struct.T3DFunction*, %struct.T3DFunction** %func.addr, align 8, !tbaa !1398, !dbg !2009
	%1 = bitcast %struct.T3DFunction*  %0 to i8*, !dbg !2009
	%2 = bitcast %struct.T3DFunction** %..inline.addr to i8**, !dbg !2009
	store i8*  %1, i8**  %2, align 8, !tbaa !1398, !dbg !2009
	%3 = load double, double* %a.addr, align 8, !tbaa !1403, !dbg !2009
	%4 = load double, double* %b.addr, align 8, !tbaa !1403, !dbg !2009
	%5 = load double, double* %c.addr, align 8, !tbaa !1403, !dbg !2009
	%6 = load double, double* %d.addr, align 8, !tbaa !1403, !dbg !2009
	%7 = load double, double* %absacc.addr, align 8, !tbaa !1403, !dbg !2009
	%8 = load double, double* %f.addr, align 8, !tbaa !1403, !dbg !2009
	%9 = load double, double* %e.addr, align 8, !tbaa !1403, !dbg !2009
	%10 = fsub double  %8,  %9, !dbg !2009
	%11 = fdiv double  %7,  %10, !dbg !2009
	%12 = bitcast [5 x i32 (...)* (...)*]* @_ZTV11T1DFunction to i8*, !dbg !2010
	%13 = getelementptr i8, i8*  %12, i64 16, !dbg !2010
	%14 = bitcast %struct.Tintxy_f3D* %_T40345952_7635.addr to i8**, !dbg !2010
	store i8*  %13, i8**  %14, align 8, !tbaa !1398, !dbg !2010
	%15 = bitcast [5 x i32 (...)* (...)*]* @_ZTV10Tintxy_f3D to i8*, !dbg !2010
	%16 = getelementptr i8, i8*  %15, i64 16, !dbg !2010
	store i8*  %16, i8**  %14, align 8, !tbaa !1398, !dbg !2010
	%17 = load %struct.T3DFunction*, %struct.T3DFunction** %..inline.addr, align 8, !tbaa !1398, !dbg !2010
	%18 = bitcast %struct.T3DFunction*  %17 to i8*, !dbg !2010
	%19 = bitcast %struct.Tintxy_f3D* %_T40345952_7635.addr to i8*, !dbg !2010
	%20 = getelementptr i8, i8*  %19, i64 8, !dbg !2010
	%21 = bitcast i8*  %20 to i8**, !dbg !2010
	store i8*  %18, i8**  %21, align 8, !tbaa !1398, !dbg !2010
	%22 = getelementptr i8, i8*  %19, i64 16, !dbg !2010
	%23 = bitcast i8*  %22 to double*, !dbg !2010
	store double  %3, double*  %23, align 8, !tbaa !1399, !dbg !2010
	%24 = getelementptr i8, i8*  %19, i64 24, !dbg !2010
	%25 = bitcast i8*  %24 to double*, !dbg !2010
	store double  %4, double*  %25, align 8, !tbaa !1399, !dbg !2010
	%26 = getelementptr i8, i8*  %19, i64 32, !dbg !2010
	%27 = bitcast i8*  %26 to double*, !dbg !2010
	store double  %5, double*  %27, align 8, !tbaa !1399, !dbg !2010
	%28 = getelementptr i8, i8*  %19, i64 40, !dbg !2010
	%29 = bitcast i8*  %28 to double*, !dbg !2010
	store double  %6, double*  %29, align 8, !tbaa !1399, !dbg !2010
	%30 = getelementptr i8, i8*  %19, i64 48, !dbg !2010
	%31 = bitcast i8*  %30 to double*, !dbg !2010
	store double  %11, double*  %31, align 8, !tbaa !1399, !dbg !2010
	store double  %9, double* %..inline.addr.6, align 8, !tbaa !1403, !dbg !2009
	store double  %8, double* %..inline.addr.7, align 8, !tbaa !1403, !dbg !2009
	store double  %7, double* %..inline.addr.8, align 8, !tbaa !1403, !dbg !2009
	store i32 0, i32* %..inline.addr.9, align 4, !tbaa !1401, !dbg !2009
	%32 = bitcast [9 x double]* %..inline.addr.270 to double*, !dbg !2013
	store double  1.00000000000000000E+0, double*  %32, align 8, !tbaa !1399, !dbg !2013
	store double  0.00000000000000000E+0, double* %..inline.addr.280, align 8, !tbaa !1403, !dbg !2014
	store i32 1, i32* %..inline.addr.290, align 4, !tbaa !1401, !dbg !2015
	store i32 8, i32* %.x6145.addr, align 4, !tbaa !1401, !dbg !2016
	%33 = bitcast [9 x double]* %..inline.addr.310 to i8*, !dbg !2016
	%34 = getelementptr i8, i8*  %33, i64 8, !dbg !2016
	store i8*  %34, i8** %.G0086.addr, align 8, !tbaa !1398, !dbg !2016
	%35 = bitcast [9 x double]* %..inline.addr.270 to i8*, !dbg !2016
	%36 = getelementptr i8, i8*  %35, i64 8, !dbg !2016
	store i8*  %36, i8** %.G0084.addr, align 8, !tbaa !1398, !dbg !2016
	br label %L..inline.12178
L..inline.12178:
	%37 = load double, double* %..inline.addr.6, align 8, !tbaa !1403, !dbg !2017
	store double  %37, double* %..inline.addr.340, align 8, !tbaa !1403, !dbg !2017
	%38 = load double, double* %..inline.addr.7, align 8, !tbaa !1403, !dbg !2017
	store double  %38, double* %..inline.addr.350, align 8, !tbaa !1403, !dbg !2017
	%39 = bitcast [9 x double]* %..inline.addr.310 to i8*, !dbg !2017
	%40 = load i32, i32* %..inline.addr.290, align 4, !tbaa !1401, !dbg !2017
	%41 = sext i32  %40 to i64, !dbg !2017
	%42 = sub i64  %41, 1, !dbg !2017
	%43 = mul i64  %42, 8, !dbg !2017
	%44 = getelementptr i8, i8*  %39, i64  %43, !dbg !2017
	%45 = bitcast double** %..inline.addr.360 to i8**, !dbg !2017
	store i8*  %44, i8**  %45, align 8, !tbaa !1398, !dbg !2017
	%46 = icmp ne i32  %40, 1, !dbg !2017
	br i1  %46, label %L..inline.12192, label %L.B0318, !dbg !2017
L.B0318:
	%47 = bitcast %struct.Tintxy_f3D* %_T40345952_7635.addr to %struct.T1DFunction*, !dbg !2017
	%48 = bitcast %struct.Tintxy_f3D* %_T40345952_7635.addr to i8**, !dbg !2017
	%49 = load i8*, i8**  %48, align 8, !tbaa !1398, !dbg !2017
	%50 = bitcast i8*  %49 to double (%struct.T1DFunction*, double)**, !dbg !2017
	%51 = load double (%struct.T1DFunction*, double)*, double (%struct.T1DFunction*, double)**  %50, align 8, !tbaa !1398, !dbg !2017
	%52 = invoke double  %51 (%struct.T1DFunction*  %47, double  %38)
		to label %L.B0319
		unwind label %L_T41505256_7635, !dbg !2017
L.B0319:
	store double  %52, double* %.Q0015.addr, align 8, !tbaa !1403, !dbg !2017
	%53 = load double, double* %..inline.addr.340, align 8, !tbaa !1403, !dbg !2017
	%54 = load i8*, i8**  %48, align 8, !tbaa !1398, !dbg !2017
	%55 = bitcast i8*  %54 to double (%struct.T1DFunction*, double)**, !dbg !2017
	%56 = load double (%struct.T1DFunction*, double)*, double (%struct.T1DFunction*, double)**  %55, align 8, !tbaa !1398, !dbg !2017
	%57 = invoke double  %56 (%struct.T1DFunction*  %47, double  %53)
		to label %L.B0320
		unwind label %L_T41505256_7635, !dbg !2017
L.B0320:
	store double  %57, double* %.Q0016.addr, align 8, !tbaa !1403, !dbg !2017
	%58 = load double, double* %.Q0015.addr, align 8, !tbaa !1403, !dbg !2017
	%59 = fadd double  %58,  %57, !dbg !2017
	%60 = load double, double* %..inline.addr.350, align 8, !tbaa !1403, !dbg !2017
	%61 = load double, double* %..inline.addr.340, align 8, !tbaa !1403, !dbg !2017
	%62 = fsub double  %60,  %61, !dbg !2017
	%63 = fmul double  %62,  5.00000000000000000E-1, !dbg !2017
	%64 = fmul double  %59,  %63, !dbg !2017
	%65 = load double*, double** %..inline.addr.360, align 8, !tbaa !1398, !dbg !2017
	store double  %64, double*  %65, align 8, !tbaa !1399, !dbg !2017
	store i32 1, i32* %..inline.addr.9, align 4, !tbaa !1401, !dbg !2017
	br label %L..inline.12194, !dbg !2017
L..inline.12192:
	%66 = load double, double* %..inline.addr.7, align 8, !tbaa !1403, !dbg !2017
	%67 = load double, double* %..inline.addr.6, align 8, !tbaa !1403, !dbg !2017
	%68 = fsub double  %66,  %67, !dbg !2017
	%69 = load i32, i32* %..inline.addr.9, align 4, !tbaa !1401, !dbg !2017
	%70 = sitofp i32  %69 to double, !dbg !2017
	%71 = fdiv double  %68,  %70, !dbg !2017
	store double  %71, double* %..inline.addr.390, align 8, !tbaa !1403, !dbg !2017
	%72 = call double @llvm.fma.f64 (double  %71, double  5.00000000000000000E-1, double  %67), !dbg !2017
	store double  %72, double* %..inline.addr.400, align 8, !tbaa !1403, !dbg !2017
	store double  0.00000000000000000E+0, double* %..inline.addr.410, align 8, !tbaa !1403, !dbg !2017
	%73 = icmp sle i32  %69, 0, !dbg !2017
	br i1  %73, label %L..inline.12203, label %L.B0321, !dbg !2017
L.B0321:
	store i32  %69, i32* %.x6146.addr, align 4, !tbaa !1401, !dbg !2017
	br label %L..inline.12202
L..inline.12202:
	%74 = bitcast %struct.Tintxy_f3D* %_T40345952_7635.addr to %struct.T1DFunction*, !dbg !2017
	%75 = load double, double* %..inline.addr.400, align 8, !tbaa !1403, !dbg !2017
	%76 = bitcast %struct.Tintxy_f3D* %_T40345952_7635.addr to i8**, !dbg !2017
	%77 = load i8*, i8**  %76, align 8, !tbaa !1398, !dbg !2017
	%78 = bitcast i8*  %77 to double (%struct.T1DFunction*, double)**, !dbg !2017
	%79 = load double (%struct.T1DFunction*, double)*, double (%struct.T1DFunction*, double)**  %78, align 8, !tbaa !1398, !dbg !2017
	%80 = invoke double  %79 (%struct.T1DFunction*  %74, double  %75)
		to label %L.B0322
		unwind label %L_T41505256_7635, !dbg !2017
L.B0322:
	store double  %80, double* %.Q0017.addr, align 8, !tbaa !1403, !dbg !2017
	%81 = load double, double* %..inline.addr.410, align 8, !tbaa !1403, !dbg !2017
	%82 = fadd double  %80,  %81, !dbg !2017
	store double  %82, double* %..inline.addr.410, align 8, !tbaa !1403, !dbg !2017
	%83 = load double, double* %..inline.addr.390, align 8, !tbaa !1403, !dbg !2017
	%84 = load double, double* %..inline.addr.400, align 8, !tbaa !1403, !dbg !2017
	%85 = fadd double  %83,  %84, !dbg !2017
	store double  %85, double* %..inline.addr.400, align 8, !tbaa !1403, !dbg !2017
	%86 = load i32, i32* %.x6146.addr, align 4, !tbaa !1401, !dbg !2017
	%87 = sub i32  %86, 1, !dbg !2017
	store i32  %87, i32* %.x6146.addr, align 4, !tbaa !1401, !dbg !2017
	%88 = icmp sgt i32  %87, 0, !dbg !2017
	br i1  %88, label %L..inline.12202, label %L..inline.12203, !dbg !2017
L..inline.12203:
	%89 = load double, double* %..inline.addr.350, align 8, !tbaa !1403, !dbg !2017
	%90 = load double, double* %..inline.addr.340, align 8, !tbaa !1403, !dbg !2017
	%91 = fsub double  %89,  %90, !dbg !2017
	%92 = load double, double* %..inline.addr.410, align 8, !tbaa !1403, !dbg !2017
	%93 = fmul double  %91,  %92, !dbg !2017
	%94 = load i32, i32* %..inline.addr.9, align 4, !tbaa !1401, !dbg !2017
	%95 = sitofp i32  %94 to double, !dbg !2017
	%96 = fdiv double  %93,  %95, !dbg !2017
	%97 = load double*, double** %..inline.addr.360, align 8, !tbaa !1398, !dbg !2017
	%98 = load double, double*  %97, align 8, !tbaa !1399, !dbg !2017
	%99 = fadd double  %96,  %98, !dbg !2017
	%100 = fmul double  %99,  5.00000000000000000E-1, !dbg !2017
	store double  %100, double*  %97, align 8, !tbaa !1399, !dbg !2017
	%101 = mul i32  %94, 2, !dbg !2017
	store i32  %101, i32* %..inline.addr.9, align 4, !tbaa !1401, !dbg !2017
	br label %L..inline.12194
L..inline.12194:
	%102 = load i8*, i8** %.G0086.addr, align 8, !tbaa !1398, !dbg !2017
	%103 = getelementptr i8, i8*  %102, i64 18446744073709551608, !dbg !2017
	%104 = bitcast i8*  %103 to double*, !dbg !2017
	%105 = load double, double*  %104, align 8, !tbaa !1399, !dbg !2017
	store double  %105, double* %..inline.addr.440, align 8, !tbaa !1403, !dbg !2017
	%106 = load i32, i32* %..inline.addr.290, align 4, !tbaa !1401, !dbg !2018
	%107 = icmp slt i32  %106, 2, !dbg !2018
	br i1  %107, label %L..inline.12205, label %L.B0323, !dbg !2018
L.B0323:
	%108 = icmp slt i32  %106, 5, !dbg !2019
	%109 = select i1  %108, i32  %106, i32 5, !dbg !2019
	store i32  %109, i32* %..inline.addr.450, align 4, !tbaa !1401, !dbg !2019
	%110 = bitcast [9 x double]* %..inline.addr.270 to i8*, !dbg !2020
	%111 = sub i32  %106,  %109, !dbg !2020
	%112 = sext i32  %111 to i64, !dbg !2020
	%113 = mul i64  %112, 8, !dbg !2020
	%114 = getelementptr i8, i8*  %110, i64  %113, !dbg !2020
	%115 = bitcast double** %..inline.addr.460 to i8**, !dbg !2020
	store i8*  %114, i8**  %115, align 8, !tbaa !1398, !dbg !2020
	%116 = bitcast [9 x double]* %..inline.addr.310 to i8*, !dbg !2020
	%117 = mul i64  %112, 8, !dbg !2020
	%118 = getelementptr i8, i8*  %116, i64  %117, !dbg !2020
	%119 = bitcast double** %..inline.addr.470 to i8**, !dbg !2020
	store i8*  %118, i8**  %119, align 8, !tbaa !1398, !dbg !2020
	store i32  %109, i32* %..inline.addr.480, align 4, !tbaa !1401, !dbg !2020
	store i32 0, i32* %..inline.addr.490, align 4, !tbaa !1401, !dbg !2020
	%120 = load double*, double** %..inline.addr.460, align 8, !tbaa !1398, !dbg !2020
	%121 = load double, double*  %120, align 8, !tbaa !1399, !dbg !2020
	%122 = fsub double -0.00000000e+00,  %121, !dbg !2020
	%123 = call double @llvm.fabs.f64 (double  %122), !dbg !2020
	store double  %123, double* %..inline.addr.500, align 8, !tbaa !1403, !dbg !2020
	store i32 0, i32* %.ndi0018.addr, align 4, !tbaa !1401, !dbg !2021
	%124 = icmp slt i32  %106, 5, !dbg !2021
	%125 = select i1  %124, i32  %106, i32 5, !dbg !2021
	%126 = icmp sle i32  %125, 0, !dbg !2021
	br i1  %126, label %L.B0313, label %L.B0324, !dbg !2021
L.B0324:
	%127 = icmp slt i32  %106, 5, !dbg !2020
	%128 = select i1  %127, i32  %106, i32 5, !dbg !2020
	store i32  %128, i32* %.lcr016146.addr, align 4, !tbaa !1401, !dbg !2020
	br label %L.B0312
L.B0312:
	%129 = load i32, i32* %.ndi0018.addr, align 4, !tbaa !1401, !dbg !2021
	%130 = sext i32  %129 to i64, !dbg !2021
	%131 = load double*, double** %..inline.addr.460, align 8, !tbaa !1398, !dbg !2021
	%132 = getelementptr double, double*  %131, i64  %130, !dbg !2021
	%133 = load double, double*  %132, align 8, !tbaa !1399, !dbg !2021
	%134 = fsub double -0.00000000e+00,  %133, !dbg !2021
	%135 = call double @llvm.fabs.f64 (double  %134), !dbg !2021
	store double  %135, double* %..inline.addr.530, align 8, !tbaa !1403, !dbg !2021
	%136 = load double, double* %..inline.addr.500, align 8, !tbaa !1403, !dbg !2021
	%137 = fcmp uge double  %135,  %136, !dbg !2021
	br i1  %137, label %L..inline.12227, label %L.B0325, !dbg !2021
L.B0325:
	store i32  %129, i32* %..inline.addr.490, align 4, !tbaa !1401, !dbg !2021
	store double  %135, double* %..inline.addr.500, align 8, !tbaa !1403, !dbg !2021
	br label %L..inline.12227
L..inline.12227:
	%138 = load i32, i32* %.ndi0018.addr, align 4, !tbaa !1401, !dbg !2021
	%139 = sext i32  %138 to i64, !dbg !2021
	%140 = load double*, double** %..inline.addr.470, align 8, !tbaa !1398, !dbg !2021
	%141 = getelementptr double, double*  %140, i64  %139, !dbg !2021
	%142 = load double, double*  %141, align 8, !tbaa !1399, !dbg !2021
	%143 = bitcast [20 x double]* %..inline.addr.540 to double*, !dbg !2021
	%144 = getelementptr double, double*  %143, i64  %139, !dbg !2021
	store double  %142, double*  %144, align 8, !tbaa !1399, !dbg !2021
	%145 = bitcast [20 x double]* %..inline.addr.550 to double*, !dbg !2021
	%146 = getelementptr double, double*  %145, i64  %139, !dbg !2021
	store double  %142, double*  %146, align 8, !tbaa !1399, !dbg !2021
	%147 = add i32  %138, 1, !dbg !2021
	store i32  %147, i32* %.ndi0018.addr, align 4, !tbaa !1401, !dbg !2021
	%148 = load i32, i32* %.lcr016146.addr, align 4, !tbaa !1401, !dbg !2021
	%149 = icmp slt i32  %147,  %148, !dbg !2021
	br i1  %149, label %L.B0312, label %L.B0313, !dbg !2021
L.B0313:
	%150 = load i32, i32* %..inline.addr.490, align 4, !tbaa !1401, !dbg !2020
	%151 = sext i32  %150 to i64, !dbg !2020
	%152 = load double*, double** %..inline.addr.470, align 8, !tbaa !1398, !dbg !2020
	%153 = getelementptr double, double*  %152, i64  %151, !dbg !2020
	%154 = load double, double*  %153, align 8, !tbaa !1399, !dbg !2020
	store double  %154, double* %..inline.addr.560, align 8, !tbaa !1403, !dbg !2020

	%155 = sub i32  %150, 1, !dbg !2020
	store i32  %155, i32* %..inline.addr.490, align 4, !tbaa !1401, !dbg !2020
	%156 = load i32, i32* %..inline.addr.480, align 4, !tbaa !1401, !dbg !2009
	%157 = sext i32  %156 to i64, !dbg !2009
	%158 = sub i64  %157, 1, !dbg !2009
	store i64  %158, i64* %.TRP0008.addr, align 8, !tbaa !1449, !dbg !2009
	store i64 0, i64* %.ndk0036.addr, align 8, !tbaa !1451, !dbg !2021
	%159 = icmp sle i64  %158, 0, !dbg !2021
	br i1  %159, label %L.B0315, label %L.B0326, !dbg !2021
L.B0326:
	store i64  %158, i64* %.lcr056146.addr, align 8, !tbaa !1451, !dbg !2020
	br label %L.B0314
L.B0314:
	%160 = load i32, i32* %..inline.addr.480, align 4, !tbaa !1401, !dbg !2021
	%161 = load i64, i64* %.ndk0036.addr, align 8, !tbaa !1451, !dbg !2021
	%162 = trunc i64  %161 to i32, !dbg !2021
	%163 = sub i32  %160,  %162, !dbg !2021
	%164 = sext i32  %163 to i64, !dbg !2021
	%165 = sub i64  %164, 1, !dbg !2021
	store i64  %165, i64* %.TRP0009.addr, align 8, !tbaa !1449, !dbg !2021
	store i64 0, i64* %.ndk0038.addr, align 8, !tbaa !1451, !dbg !2021
	%166 = icmp sle i64  %165, 0, !dbg !2021
	br i1  %166, label %L.B0317, label %L.B0327, !dbg !2021
L.B0327:
	store i64  %165, i64* %.lcr056147.addr, align 8, !tbaa !1451, !dbg !2020
	store i32  %162, i32* %.r7.0577.addr, align 4, !tbaa !1401, !dbg !2020
	%167 = bitcast [20 x double]* %..inline.addr.550 to i8*, !dbg !2020
	store i8*  %167, i8** %.G0071.addr, align 8, !tbaa !1398, !dbg !2020
	br label %L.B0316
L.B0316:
	%168 = load i64, i64* %.ndk0038.addr, align 8, !tbaa !1451, !dbg !2021
	%169 = trunc i64  %168 to i32, !dbg !2021
	%170 = sext i32  %169 to i64, !dbg !2021
	%171 = load double*, double** %..inline.addr.460, align 8, !tbaa !1398, !dbg !2021
	%172 = getelementptr double, double*  %171, i64  %170, !dbg !2021
	%173 = load double, double*  %172, align 8, !tbaa !1399, !dbg !2021
	%174 = load i8*, i8** %.G0071.addr, align 8, !tbaa !1398, !dbg !2021
	%175 = getelementptr i8, i8*  %174, i64 8, !dbg !2021
	%176 = bitcast i8*  %175 to double*, !dbg !2021
	%177 = load double, double*  %176, align 8, !tbaa !1399, !dbg !2021
	%178 = bitcast [20 x double]* %..inline.addr.540 to double*, !dbg !2021
	%179 = getelementptr double, double*  %178, i64  %170, !dbg !2021
	%180 = load double, double*  %179, align 8, !tbaa !1399, !dbg !2021
	%181 = fsub double  %177,  %180, !dbg !2021
	%182 = load i32, i32* %.r7.0577.addr, align 4, !tbaa !1401, !dbg !2021
	%183 = add i32  %182,  %169, !dbg !2021
	%184 = sext i32  %183 to i64, !dbg !2021
	%185 = bitcast double*  %171 to i8*, !dbg !2021
	%186 = getelementptr i8, i8*  %185, i64 8, !dbg !2021
	%187 = bitcast i8*  %186 to double*, !dbg !2021
	%188 = getelementptr double, double*  %187, i64  %184, !dbg !2021
	%189 = load double, double*  %188, align 8, !tbaa !1399, !dbg !2021
	%190 = fsub double  %173,  %189, !dbg !2021
	%191 = fdiv double  %181,  %190, !dbg !2021
	%192 = fmul double  %191,  %189, !dbg !2021
	store double  %192, double*  %179, align 8, !tbaa !1399, !dbg !2021
	%193 = fmul double  %173,  %191, !dbg !2021
	%194 = bitcast i8*  %174 to double*, !dbg !2021
	store double  %193, double*  %194, align 8, !tbaa !1399, !dbg !2021
	%195 = add i64  %168, 1, !dbg !2021
	store i64  %195, i64* %.ndk0038.addr, align 8, !tbaa !1451, !dbg !2021
	store i8*  %175, i8** %.G0071.addr, align 8, !tbaa !1398, !dbg !2020
	%196 = load i64, i64* %.lcr056147.addr, align 8, !tbaa !1451, !dbg !2021
	%197 = icmp slt i64  %195,  %196, !dbg !2021
	br i1  %197, label %L.B0316, label %L.B0317, !dbg !2021
L.B0317:
	%198 = load i32, i32* %..inline.addr.490, align 4, !tbaa !1401, !dbg !2021
	%199 = add i32  %198, 1, !dbg !2021
	%200 = mul i32  %199, 2, !dbg !2021
	%201 = load i32, i32* %..inline.addr.480, align 4, !tbaa !1401, !dbg !2021
	%202 = load i64, i64* %.ndk0036.addr, align 8, !tbaa !1451, !dbg !2021
	%203 = trunc i64  %202 to i32, !dbg !2021
	%204 = sub i32  %201,  %203, !dbg !2021
	%205 = sub i32  %204, 1, !dbg !2021
	%206 = icmp sge i32  %200,  %205, !dbg !2021
	br i1  %206, label %L..inline.12246, label %L.B0328, !dbg !2021
L.B0328:
	%207 = sext i32  %198 to i64, !dbg !2021
	%208 = bitcast [20 x double]* %..inline.addr.550 to i8*, !dbg !2021
	%209 = getelementptr i8, i8*  %208, i64 8, !dbg !2021
	%210 = bitcast i8*  %209 to double*, !dbg !2021
	%211 = getelementptr double, double*  %210, i64  %207, !dbg !2021
	%212 = load double, double*  %211, align 8, !tbaa !1399, !dbg !2021
	store double  %212, double* %..inline.addr.280, align 8, !tbaa !1403, !dbg !2021
	br label %L..inline.12248, !dbg !2021
L..inline.12246:
	%213 = load i32, i32* %..inline.addr.490, align 4, !tbaa !1401, !dbg !2021
	%214 = sext i32  %213 to i64, !dbg !2021
	%215 = bitcast [20 x double]* %..inline.addr.540 to double*, !dbg !2021
	%216 = getelementptr double, double*  %215, i64  %214, !dbg !2021
	%217 = load double, double*  %216, align 8, !tbaa !1399, !dbg !2021
	store double  %217, double* %..inline.addr.280, align 8, !tbaa !1403, !dbg !2021

	%218 = sub i32  %213, 1, !dbg !2021
	store i32  %218, i32* %..inline.addr.490, align 4, !tbaa !1401, !dbg !2021
	br label %L..inline.12248
L..inline.12248:
	%219 = load double, double* %..inline.addr.280, align 8, !tbaa !1403, !dbg !2021
	%220 = load double, double* %..inline.addr.560, align 8, !tbaa !1403, !dbg !2021
	%221 = fadd double  %219,  %220, !dbg !2021
	store double  %221, double* %..inline.addr.560, align 8, !tbaa !1403, !dbg !2021
	%222 = load i64, i64* %.ndk0036.addr, align 8, !tbaa !1451, !dbg !2021
	%223 = add i64  %222, 1, !dbg !2021
	store i64  %223, i64* %.ndk0036.addr, align 8, !tbaa !1451, !dbg !2021
	%224 = load i64, i64* %.lcr056146.addr, align 8, !tbaa !1451, !dbg !2021
	%225 = icmp slt i64  %223,  %224, !dbg !2021
	br i1  %225, label %L.B0314, label %L.B0315, !dbg !2021
L.B0315:
	%226 = bitcast [9 x double]* %..inline.addr.270 to i8*, !dbg !2021
	%227 = load i32, i32* %..inline.addr.290, align 4, !tbaa !1401, !dbg !2021
	%228 = load i32, i32* %..inline.addr.450, align 4, !tbaa !1401, !dbg !2021
	%229 = sub i32  %227,  %228, !dbg !2021
	%230 = sext i32  %229 to i64, !dbg !2021
	%231 = mul i64  %230, 8, !dbg !2021
	%232 = getelementptr i8, i8*  %226, i64  %231, !dbg !2021
	%233 = bitcast double** %..inline.addr.680 to i8**, !dbg !2021
	store i8*  %232, i8**  %233, align 8, !tbaa !1398, !dbg !2021
	%234 = bitcast [9 x double]* %..inline.addr.310 to i8*, !dbg !2021
	%235 = mul i64  %230, 8, !dbg !2021
	%236 = getelementptr i8, i8*  %234, i64  %235, !dbg !2021
	%237 = bitcast double** %..inline.addr.690 to i8**, !dbg !2021
	store i8*  %236, i8**  %237, align 8, !tbaa !1398, !dbg !2021
	store i32  %228, i32* %..inline.addr.700, align 4, !tbaa !1401, !dbg !2021
	store i32 0, i32* %..inline.addr.710, align 4, !tbaa !1401, !dbg !2021
	%238 = load double*, double** %..inline.addr.680, align 8, !tbaa !1398, !dbg !2021
	%239 = load double, double*  %238, align 8, !tbaa !1399, !dbg !2021
	%240 = fsub double -0.00000000e+00,  %239, !dbg !2021
	%241 = call double @llvm.fabs.f64 (double  %240), !dbg !2021
	store double  %241, double* %..inline.addr.720, align 8, !tbaa !1403, !dbg !2021
	store i32 0, i32* %..inline.addr.730, align 4, !tbaa !1401, !dbg !2021
	%242 = icmp sle i32  %228, 0, !dbg !2021
	br i1  %242, label %L..inline.12264, label %L.B0329, !dbg !2021
L.B0329:
	store i32  %228, i32* %.lcr016146.addr, align 4, !tbaa !1401, !dbg !2021
	br label %L..inline.12263
L..inline.12263:
	%243 = load i32, i32* %..inline.addr.730, align 4, !tbaa !1401, !dbg !2021
	%244 = sext i32  %243 to i64, !dbg !2021
	%245 = load double*, double** %..inline.addr.680, align 8, !tbaa !1398, !dbg !2021
	%246 = getelementptr double, double*  %245, i64  %244, !dbg !2021
	%247 = load double, double*  %246, align 8, !tbaa !1399, !dbg !2021
	%248 = fsub double -0.00000000e+00,  %247, !dbg !2021
	%249 = call double @llvm.fabs.f64 (double  %248), !dbg !2021
	store double  %249, double* %..inline.addr.740, align 8, !tbaa !1403, !dbg !2021
	%250 = fcmp une double  %249,  0.00000000000000000E+0, !dbg !2021
	br i1  %250, label %L..inline.12266, label %L.B0330, !dbg !2021
L.B0330:
	%251 = load double*, double** %..inline.addr.690, align 8, !tbaa !1398, !dbg !2021
	%252 = getelementptr double, double*  %251, i64  %244, !dbg !2021
	%253 = load double, double*  %252, align 8, !tbaa !1399, !dbg !2021
	store double  %253, double* %..inline.addr.750, align 8, !tbaa !1403, !dbg !2021
	store double  0.00000000000000000E+0, double* %..inline.addr.760, align 8, !tbaa !1403, !dbg !2021
	br label %L..inline.12269, !dbg !2021
L..inline.12266:
	%254 = load double, double* %..inline.addr.740, align 8, !tbaa !1403, !dbg !2021
	%255 = load double, double* %..inline.addr.720, align 8, !tbaa !1403, !dbg !2021
	%256 = fcmp uge double  %254,  %255, !dbg !2021
	br i1  %256, label %L..inline.12271, label %L.B0331, !dbg !2021
L.B0331:
	%257 = load i32, i32* %..inline.addr.730, align 4, !tbaa !1401, !dbg !2021
	store i32  %257, i32* %..inline.addr.710, align 4, !tbaa !1401, !dbg !2021
	store double  %254, double* %..inline.addr.720, align 8, !tbaa !1403, !dbg !2021
	br label %L..inline.12271
L..inline.12271:
	%258 = load i32, i32* %..inline.addr.730, align 4, !tbaa !1401, !dbg !2021
	%259 = sext i32  %258 to i64, !dbg !2021
	%260 = load double*, double** %..inline.addr.690, align 8, !tbaa !1398, !dbg !2021
	%261 = getelementptr double, double*  %260, i64  %259, !dbg !2021
	%262 = load double, double*  %261, align 8, !tbaa !1399, !dbg !2021
	%263 = bitcast [20 x double]* %..inline.addr.770 to double*, !dbg !2021
	%264 = getelementptr double, double*  %263, i64  %259, !dbg !2021
	store double  %262, double*  %264, align 8, !tbaa !1399, !dbg !2021
	%265 = load double, double*  %261, align 8, !tbaa !1399, !dbg !2021
	%266 = fadd double  %265,  1.00000000000000008E-30, !dbg !2021
	%267 = bitcast [20 x double]* %..inline.addr.780 to double*, !dbg !2021
	%268 = getelementptr double, double*  %267, i64  %259, !dbg !2021
	store double  %266, double*  %268, align 8, !tbaa !1399, !dbg !2021

	%269 = add i32  %258, 1, !dbg !2021
	store i32  %269, i32* %..inline.addr.730, align 4, !tbaa !1401, !dbg !2021
	%270 = load i32, i32* %.lcr016146.addr, align 4, !tbaa !1401, !dbg !2021
	%271 = icmp slt i32  %269,  %270, !dbg !2021
	br i1  %271, label %L..inline.12263, label %L..inline.12264, !dbg !2021
L..inline.12264:
	%272 = load i32, i32* %..inline.addr.710, align 4, !tbaa !1401, !dbg !2021

	%273 = sub i32  %272, 1, !dbg !2021
	store i32  %273, i32* %..inline.addr.710, align 4, !tbaa !1401, !dbg !2021
	%274 = sext i32  %272 to i64, !dbg !2021
	%275 = load double*, double** %..inline.addr.690, align 8, !tbaa !1398, !dbg !2021
	%276 = getelementptr double, double*  %275, i64  %274, !dbg !2021
	%277 = load double, double*  %276, align 8, !tbaa !1399, !dbg !2021
	store double  %277, double* %..inline.addr.750, align 8, !tbaa !1403, !dbg !2021
	store i32 1, i32* %..inline.addr.800, align 4, !tbaa !1401, !dbg !2021
	%278 = load i32, i32* %..inline.addr.700, align 4, !tbaa !1401, !dbg !2021
	%279 = icmp sge i32 1,  %278, !dbg !2021
	br i1  %279, label %L..inline.12276, label %L.B0332, !dbg !2021
L.B0332:
	%280 = sub i32  %278, 1, !dbg !2021
	store i32  %280, i32* %.x6146.addr, align 4, !tbaa !1401, !dbg !2021
	br label %L..inline.12275
L..inline.12275:
	store i32 0, i32* %..inline.addr.730, align 4, !tbaa !1401, !dbg !2021
	%281 = load i32, i32* %..inline.addr.700, align 4, !tbaa !1401, !dbg !2021
	%282 = load i32, i32* %..inline.addr.800, align 4, !tbaa !1401, !dbg !2021
	%283 = sub i32  %281,  %282, !dbg !2021
	%284 = icmp sle i32  %283, 0, !dbg !2021
	br i1  %284, label %L..inline.12278, label %L.B0333, !dbg !2021
L.B0333:
	store i32  %283, i32* %.lcr016147.addr, align 4, !tbaa !1401, !dbg !2021
	%285 = bitcast [20 x double]* %..inline.addr.770 to i8*, !dbg !2021
	%286 = getelementptr i8, i8*  %285, i64 8, !dbg !2021
	store i8*  %286, i8** %.G0071.addr, align 8, !tbaa !1398, !dbg !2021
	br label %L..inline.12277
L..inline.12277:
	%287 = load i8*, i8** %.G0071.addr, align 8, !tbaa !1398, !dbg !2021
	%288 = bitcast i8*  %287 to double*, !dbg !2021
	%289 = load double, double*  %288, align 8, !tbaa !1399, !dbg !2021
	%290 = load i32, i32* %..inline.addr.730, align 4, !tbaa !1401, !dbg !2021
	%291 = sext i32  %290 to i64, !dbg !2021
	%292 = bitcast [20 x double]* %..inline.addr.780 to double*, !dbg !2021
	%293 = getelementptr double, double*  %292, i64  %291, !dbg !2021
	%294 = load double, double*  %293, align 8, !tbaa !1399, !dbg !2021
	%295 = fsub double  %289,  %294, !dbg !2021
	store double  %295, double* %..inline.addr.820, align 8, !tbaa !1403, !dbg !2021
	%296 = load double*, double** %..inline.addr.680, align 8, !tbaa !1398, !dbg !2021
	%297 = getelementptr double, double*  %296, i64  %291, !dbg !2021
	%298 = load double, double*  %297, align 8, !tbaa !1399, !dbg !2021
	%299 = fmul double  %294,  %298, !dbg !2021
	%300 = load i32, i32* %..inline.addr.800, align 4, !tbaa !1401, !dbg !2021
	%301 = add i32  %290,  %300, !dbg !2021
	%302 = sext i32  %301 to i64, !dbg !2021
	%303 = getelementptr double, double*  %296, i64  %302, !dbg !2021
	%304 = load double, double*  %303, align 8, !tbaa !1399, !dbg !2021
	%305 = fdiv double  %299,  %304, !dbg !2021
	store double  %305, double* %..inline.addr.830, align 8, !tbaa !1403, !dbg !2021
	%306 = fsub double  %305,  %289, !dbg !2021
	store double  %306, double* %..inline.addr.840, align 8, !tbaa !1403, !dbg !2021
	%307 = fcmp une double  %306,  0.00000000000000000E+0, !dbg !2021
	br i1  %307, label %L..inline.12282, label %L.B0334, !dbg !2021
L.B0334:
	%308 = bitcast [21 x i8]* @.S08003 to i8*, !dbg !2021
	%309 = icmp ne i8*  %308,  null, !dbg !2021
	br i1  %309, label %L..inline.12287, label %L.B0335, !dbg !2021
L.B0335:
	%310 = bitcast %struct._ZSo* @_ZSt4cerr to i8*, !dbg !2021
	%311 = bitcast %struct._ZSo* @_ZSt4cerr to i8**, !dbg !2021
	%312 = load i8*, i8**  %311, align 8, !tbaa !1398, !dbg !2021
	%313 = getelementptr i8, i8*  %312, i64 18446744073709551592, !dbg !2021
	%314 = bitcast i8*  %313 to i64*, !dbg !2021
	%315 = load i64, i64*  %314, align 8, !tbaa !1399, !dbg !2021
	%316 = getelementptr i8, i8*  %310, i64  %315, !dbg !2021
	%317 = bitcast %struct._ZSt9basic_iosIcSt11char_traitsIcEE** %..inline.addr.850 to i8**, !dbg !2021
	store i8*  %316, i8**  %317, align 8, !tbaa !1398, !dbg !2021
	%318 = load %struct._ZSt9basic_iosIcSt11char_traitsIcEE*, %struct._ZSt9basic_iosIcSt11char_traitsIcEE** %..inline.addr.850, align 8, !tbaa !1398, !dbg !2021
	%319 = bitcast %struct._ZSt9basic_iosIcSt11char_traitsIcEE*  %318 to i8*, !dbg !2021
	%320 = bitcast %struct._ZSt9basic_iosIcSt11char_traitsIcEE** %..inline.addr.860 to i8**, !dbg !2021
	store i8*  %319, i8**  %320, align 8, !tbaa !1398, !dbg !2021
	%321 = load %struct._ZSt9basic_iosIcSt11char_traitsIcEE*, %struct._ZSt9basic_iosIcSt11char_traitsIcEE** %..inline.addr.860, align 8, !tbaa !1398, !dbg !2021
	%322 = bitcast %struct._ZSt9basic_iosIcSt11char_traitsIcEE*  %321 to i8*, !dbg !2021
	%323 = getelementptr i8, i8*  %322, i64 32, !dbg !2021
	%324 = bitcast i8*  %323 to i32*, !dbg !2021
	%325 = load i32, i32*  %324, align 4, !tbaa !1399, !dbg !2021
	%326 = or i32  %325, 1, !dbg !2021
	invoke void  @_ZNSt9basic_iosIcSt11char_traitsIcEE5clearESt12_Ios_Iostate (%struct._ZSt9basic_iosIcSt11char_traitsIcEE*  %318, i32  %326)
		to label %L.B0336
		unwind label %L_T41505256_7635, !dbg !2021
L.B0336:
	br label %L..inline.12308, !dbg !2021
L..inline.12287:
	%327 = bitcast [21 x i8]* @.S08003 to i8*, !dbg !2021
	%328 = call i64  @strlen (i8*  %327) nounwind, !dbg !2021
	%329 = invoke %struct._ZSo*  @_ZSt16__ostream_insertIcSt11char_traitsIcEERSt13basic_ostreamIT_T0_ES6_PKS3_l (%struct._ZSo* @_ZSt4cerr, i8*  %327, i64  %328)
		to label %L.B0337
		unwind label %L_T41505256_7635, !dbg !2021
L.B0337:
	%330 = bitcast %struct._ZSo*  %329 to i8*, !dbg !2021
	%331 = bitcast %struct._ZSo** %.Q0018.addr to i8**, !dbg !2021
	store i8*  %330, i8**  %331, align 8, !tbaa !1398, !dbg !2021
	br label %L..inline.12308
L..inline.12308:
	call void  @exit (i32 111) nounwind noreturn, !dbg !2021
	br label %L..inline.12282
L..inline.12282:
	%332 = load double, double* %..inline.addr.820, align 8, !tbaa !1403, !dbg !2021
	%333 = load double, double* %..inline.addr.840, align 8, !tbaa !1403, !dbg !2021
	%334 = fdiv double  %332,  %333, !dbg !2021
	%335 = load i8*, i8** %.G0071.addr, align 8, !tbaa !1398, !dbg !2021
	%336 = bitcast i8*  %335 to double*, !dbg !2021
	%337 = load double, double*  %336, align 8, !tbaa !1399, !dbg !2021
	%338 = fmul double  %334,  %337, !dbg !2021
	%339 = load i32, i32* %..inline.addr.730, align 4, !tbaa !1401, !dbg !2021
	%340 = sext i32  %339 to i64, !dbg !2021
	%341 = bitcast [20 x double]* %..inline.addr.780 to double*, !dbg !2021
	%342 = getelementptr double, double*  %341, i64  %340, !dbg !2021
	store double  %338, double*  %342, align 8, !tbaa !1399, !dbg !2021
	%343 = load double, double* %..inline.addr.830, align 8, !tbaa !1403, !dbg !2021
	%344 = fmul double  %343,  %334, !dbg !2021
	%345 = getelementptr i8, i8*  %335, i64 18446744073709551608, !dbg !2021
	%346 = bitcast i8*  %345 to double*, !dbg !2021
	store double  %344, double*  %346, align 8, !tbaa !1399, !dbg !2021

	%347 = add i32  %339, 1, !dbg !2021
	store i32  %347, i32* %..inline.addr.730, align 4, !tbaa !1401, !dbg !2021
	%348 = getelementptr i8, i8*  %335, i64 8, !dbg !2021
	store i8*  %348, i8** %.G0071.addr, align 8, !tbaa !1398, !dbg !2021
	%349 = load i32, i32* %.lcr016147.addr, align 4, !tbaa !1401, !dbg !2021
	%350 = icmp slt i32  %347,  %349, !dbg !2021
	br i1  %350, label %L..inline.12277, label %L..inline.12278, !dbg !2021
L..inline.12278:
	%351 = load i32, i32* %..inline.addr.710, align 4, !tbaa !1401, !dbg !2021
	%352 = add i32  %351, 1, !dbg !2021
	%353 = mul i32  %352, 2, !dbg !2021
	%354 = load i32, i32* %..inline.addr.700, align 4, !tbaa !1401, !dbg !2021
	%355 = load i32, i32* %..inline.addr.800, align 4, !tbaa !1401, !dbg !2021
	%356 = sub i32  %354,  %355, !dbg !2021
	%357 = icmp sge i32  %353,  %356, !dbg !2021
	br i1  %357, label %L..inline.12317, label %L.B0338, !dbg !2021
L.B0338:
	%358 = sext i32  %351 to i64, !dbg !2021
	%359 = bitcast [20 x double]* %..inline.addr.770 to i8*, !dbg !2021
	%360 = getelementptr i8, i8*  %359, i64 8, !dbg !2021
	%361 = bitcast i8*  %360 to double*, !dbg !2021
	%362 = getelementptr double, double*  %361, i64  %358, !dbg !2021
	%363 = load double, double*  %362, align 8, !tbaa !1399, !dbg !2021
	store double  %363, double* %..inline.addr.900, align 8, !tbaa !1403, !dbg !2021
	br label %L..inline.12319, !dbg !2021
L..inline.12317:
	%364 = load i32, i32* %..inline.addr.710, align 4, !tbaa !1401, !dbg !2021

	%365 = sub i32  %364, 1, !dbg !2021
	store i32  %365, i32* %..inline.addr.710, align 4, !tbaa !1401, !dbg !2021
	%366 = sext i32  %364 to i64, !dbg !2021
	%367 = bitcast [20 x double]* %..inline.addr.780 to double*, !dbg !2021
	%368 = getelementptr double, double*  %367, i64  %366, !dbg !2021
	%369 = load double, double*  %368, align 8, !tbaa !1399, !dbg !2021
	store double  %369, double* %..inline.addr.900, align 8, !tbaa !1403, !dbg !2021
	br label %L..inline.12319
L..inline.12319:
	%370 = load double, double* %..inline.addr.900, align 8, !tbaa !1403, !dbg !2021
	store double  %370, double* %..inline.addr.760, align 8, !tbaa !1403, !dbg !2021
	%371 = load double, double* %..inline.addr.750, align 8, !tbaa !1403, !dbg !2021
	%372 = fadd double  %370,  %371, !dbg !2021
	store double  %372, double* %..inline.addr.750, align 8, !tbaa !1403, !dbg !2021
	%373 = load i32, i32* %..inline.addr.800, align 4, !tbaa !1401, !dbg !2021

	%374 = add i32  %373, 1, !dbg !2021
	store i32  %374, i32* %..inline.addr.800, align 4, !tbaa !1401, !dbg !2021
	%375 = load i32, i32* %.x6146.addr, align 4, !tbaa !1401, !dbg !2021
	%376 = sub i32  %375, 1, !dbg !2021
	store i32  %376, i32* %.x6146.addr, align 4, !tbaa !1401, !dbg !2021
	%377 = icmp sgt i32  %376, 0, !dbg !2021
	br i1  %377, label %L..inline.12275, label %L..inline.12276, !dbg !2021
L..inline.12276:
	br label %L..inline.12269
L..inline.12269:
	%378 = load double, double* %..inline.addr.280, align 8, !tbaa !1403, !dbg !2021
	%379 = call double @llvm.fabs.f64 (double  %378), !dbg !2021
	store double  %379, double* %..inline.addr.280, align 8, !tbaa !1403, !dbg !2021
	%380 = load double, double* %..inline.addr.760, align 8, !tbaa !1403, !dbg !2022
	%381 = call double @llvm.fabs.f64 (double  %380), !dbg !2022
	store double  %381, double* %..inline.addr.760, align 8, !tbaa !1403, !dbg !2022
	%382 = call double @llvm.maxnum.f64 (double  %379, double  %381), !dbg !2023
	%383 = fcmp uno double  %381,  %381, !dbg !2023
	%384 = select i1  %383, double  %379, double  %382, !dbg !2023
	%385 = load double, double* %..inline.addr.560, align 8, !tbaa !1403, !dbg !2024
	%386 = load double, double* %..inline.addr.750, align 8, !tbaa !1403, !dbg !2024
	%387 = fsub double  %385,  %386, !dbg !2024
	%388 = call double @llvm.fabs.f64 (double  %387), !dbg !2024
	%389 = call double @llvm.maxnum.f64 (double  %384, double  %388), !dbg !2025
	%390 = fcmp uno double  %388,  %388, !dbg !2025
	%391 = select i1  %390, double  %384, double  %389, !dbg !2025
	%392 = load double, double* %..inline.addr.8, align 8, !tbaa !1403, !dbg !2026
	%393 = fcmp uge double  %391,  %392, !dbg !2026
	br i1  %393, label %L..inline.12327, label %L.B0339, !dbg !2026
L.B0339:
	%394 = fadd double  %385,  %386, !dbg !2026
	%395 = fmul double  %394,  5.00000000000000000E-1, !dbg !2026
	store double  %395, double* %..inline.addr.440, align 8, !tbaa !1403, !dbg !2026
	br label %L..inline.12328, !dbg !2027
L..inline.12327:
	br label %L..inline.12205
L..inline.12205:
	%396 = load i8*, i8** %.G0086.addr, align 8, !tbaa !1398, !dbg !2028
	%397 = getelementptr i8, i8*  %396, i64 18446744073709551608, !dbg !2028
	%398 = bitcast i8*  %397 to double*, !dbg !2028
	%399 = load double, double*  %398, align 8, !tbaa !1399, !dbg !2028
	%400 = bitcast i8*  %396 to double*, !dbg !2028
	store double  %399, double*  %400, align 8, !tbaa !1399, !dbg !2028
	%401 = load i8*, i8** %.G0084.addr, align 8, !tbaa !1398, !dbg !2028
	%402 = getelementptr i8, i8*  %401, i64 18446744073709551608, !dbg !2028
	%403 = bitcast i8*  %402 to double*, !dbg !2028
	%404 = load double, double*  %403, align 8, !tbaa !1399, !dbg !2028
	%405 = fmul double  %404,  2.50000000000000000E-1, !dbg !2028
	%406 = bitcast i8*  %401 to double*, !dbg !2028
	store double  %405, double*  %406, align 8, !tbaa !1399, !dbg !2028
	%407 = load i32, i32* %..inline.addr.290, align 4, !tbaa !1401, !dbg !2029

	%408 = add i32  %407, 1, !dbg !2030
	store i32  %408, i32* %..inline.addr.290, align 4, !tbaa !1401, !dbg !2030
	%409 = getelementptr i8, i8*  %396, i64 8, !dbg !2016
	store i8*  %409, i8** %.G0086.addr, align 8, !tbaa !1398, !dbg !2016
	%410 = getelementptr i8, i8*  %401, i64 8, !dbg !2016
	store i8*  %410, i8** %.G0084.addr, align 8, !tbaa !1398, !dbg !2016
	%411 = load i32, i32* %.x6145.addr, align 4, !tbaa !1401, !dbg !2016
	%412 = sub i32  %411, 1, !dbg !2016
	store i32  %412, i32* %.x6145.addr, align 4, !tbaa !1401, !dbg !2016
	%413 = icmp sgt i32  %412, 0, !dbg !2030
	br i1  %413, label %L..inline.12178, label %L.N0023, !dbg !2030
L.N0023:
	br label %L..inline.12328
L..inline.12328:
	%414 = load double, double* %..inline.addr.440, align 8, !tbaa !1403, !dbg !2031
	%415 = bitcast [5 x i32 (...)* (...)*]* @_ZTV10Tintxy_f3D to i8*, !dbg !2009
	%416 = getelementptr i8, i8*  %415, i64 16, !dbg !2009
	%417 = bitcast %struct.Tintxy_f3D* %_T40345952_7635.addr to i8**, !dbg !2009
	store i8*  %416, i8**  %417, align 8, !tbaa !1398, !dbg !2009
	%418 = bitcast [5 x i32 (...)* (...)*]* @_ZTV11T1DFunction to i8*, !dbg !2009
	%419 = getelementptr i8, i8*  %418, i64 16, !dbg !2009
	store i8*  %419, i8**  %417, align 8, !tbaa !1398, !dbg !2009
	ret double  %414, !dbg !2009
L.B0340:
	br label %L.R0006, !dbg !2009
L_T41505256_7635:
	%420 = landingpad %astruct.dt64
	cleanup
	%421 = extractvalue %astruct.dt64  %420, 0, !dbg !2009
	store i8*  %421, i8** %__caught_object_address.addr, align 1, !tbaa !1398, !dbg !2009
	%422 = extractvalue %astruct.dt64  %420, 1, !dbg !2009
	store i32  %422, i32* %__catch_clause_number.addr, align 1, !tbaa !1399, !dbg !2009
	%423 = bitcast [5 x i32 (...)* (...)*]* @_ZTV10Tintxy_f3D to i8*, !dbg !2009
	%424 = getelementptr i8, i8*  %423, i64 16, !dbg !2009
	%425 = bitcast %struct.Tintxy_f3D* %_T40345952_7635.addr to i8**, !dbg !2009
	store i8*  %424, i8**  %425, align 8, !tbaa !1398, !dbg !2009
	%426 = bitcast [5 x i32 (...)* (...)*]* @_ZTV11T1DFunction to i8*, !dbg !2009
	%427 = getelementptr i8, i8*  %426, i64 16, !dbg !2009
	store i8*  %427, i8**  %425, align 8, !tbaa !1398, !dbg !2009
	%428 = load i32, i32* %__catch_clause_number.addr, align 4, !tbaa !1399, !dbg !2009
	%429 = load i8*, i8** %__caught_object_address.addr, align 8, !tbaa !1398, !dbg !2009
	%430 = insertvalue %astruct.dt64 undef, i8*  %429, 0, !dbg !2009
	%431 = insertvalue %astruct.dt64  %430, i32  %428, 1, !dbg !2009
	resume %astruct.dt64  %431 , !dbg !2009
L.R0006:
	ret double 0.0
}
define linkonce_odr void @_ZN11T1DFunctionD1Ev(%struct.T1DFunction* %_T40342992_7637.arg) #0 inlinehint !dbg !2039 {
L.entry:
	%_T40342992_7637.addr = alloca %struct.T1DFunction*, align 8

	call void @llvm.dbg.declare (metadata %struct.T1DFunction** %_T40342992_7637.addr, metadata !2043, metadata !1366), !dbg !2040
	store %struct.T1DFunction* %_T40342992_7637.arg, %struct.T1DFunction** %_T40342992_7637.addr, align 8, !tbaa !1398
	call void @llvm.dbg.declare (metadata %struct.T1DFunction** %_T40342992_7637.addr, metadata !2044, metadata !1366), !dbg !2040
	%0 = bitcast [5 x i32 (...)* (...)*]* @_ZTV11T1DFunction to i8*, !dbg !2045
	%1 = getelementptr i8, i8*  %0, i64 16, !dbg !2045
	%2 = load %struct.T1DFunction*, %struct.T1DFunction** %_T40342992_7637.addr, align 8, !tbaa !1398, !dbg !2045
	%3 = bitcast %struct.T1DFunction*  %2 to i8**, !dbg !2045
	store i8*  %1, i8**  %3, align 8, !tbaa !1398, !dbg !2045
	ret void, !dbg !2045
}
define linkonce_odr void @_ZN11T1DFunctionD0Ev(%struct.T1DFunction* %_T40342992_7638.arg) #0 inlinehint !dbg !2047 {
L.entry:
	%_T40342992_7638.addr = alloca %struct.T1DFunction*, align 8

	store %struct.T1DFunction* %_T40342992_7638.arg, %struct.T1DFunction** %_T40342992_7638.addr, align 8, !tbaa !1398
	%0 = bitcast [5 x i32 (...)* (...)*]* @_ZTV11T1DFunction to i8*, !dbg !2055
	%1 = getelementptr i8, i8*  %0, i64 16, !dbg !2055
	%2 = load %struct.T1DFunction*, %struct.T1DFunction** %_T40342992_7638.addr, align 8, !tbaa !1398, !dbg !2055
	%3 = bitcast %struct.T1DFunction*  %2 to i8**, !dbg !2055
	store i8*  %1, i8**  %3, align 8, !tbaa !1398, !dbg !2055
	%4 = bitcast %struct.T1DFunction*  %2 to i8*, !dbg !2055
	call void  @_ZdlPvm (i8*  %4, i64 8) nounwind, !dbg !2055
	ret void, !dbg !2055
}
define linkonce_odr void @_ZN11T1DFunctionD2Ev(%struct.T1DFunction* %_T40342992_7639.arg) #0 inlinehint !dbg !2057 {
L.entry:
	%_T40342992_7639.addr = alloca %struct.T1DFunction*, align 8

	store %struct.T1DFunction* %_T40342992_7639.arg, %struct.T1DFunction** %_T40342992_7639.addr, align 8, !tbaa !1398
	%0 = bitcast [5 x i32 (...)* (...)*]* @_ZTV11T1DFunction to i8*, !dbg !2065
	%1 = getelementptr i8, i8*  %0, i64 16, !dbg !2065
	%2 = load %struct.T1DFunction*, %struct.T1DFunction** %_T40342992_7639.addr, align 8, !tbaa !1398, !dbg !2065
	%3 = bitcast %struct.T1DFunction*  %2 to i8**, !dbg !2065
	store i8*  %1, i8**  %3, align 8, !tbaa !1398, !dbg !2065
	ret void, !dbg !2065
}
define linkonce_odr void @_ZN11T1DFunctionC1Ev(%struct.T1DFunction* %_T40342992_7640.arg) #0 inlinehint !dbg !2067 {
L.entry:
	%_T40342992_7640.addr = alloca %struct.T1DFunction*, align 8

	call void @llvm.dbg.declare (metadata %struct.T1DFunction** %_T40342992_7640.addr, metadata !2071, metadata !1366), !dbg !2068
	store %struct.T1DFunction* %_T40342992_7640.arg, %struct.T1DFunction** %_T40342992_7640.addr, align 8, !tbaa !1398
	call void @llvm.dbg.declare (metadata %struct.T1DFunction** %_T40342992_7640.addr, metadata !2072, metadata !1366), !dbg !2068
	%0 = bitcast [5 x i32 (...)* (...)*]* @_ZTV11T1DFunction to i8*, !dbg !2073
	%1 = getelementptr i8, i8*  %0, i64 16, !dbg !2073
	%2 = load %struct.T1DFunction*, %struct.T1DFunction** %_T40342992_7640.addr, align 8, !tbaa !1398, !dbg !2073
	%3 = bitcast %struct.T1DFunction*  %2 to i8**, !dbg !2073
	store i8*  %1, i8**  %3, align 8, !tbaa !1398, !dbg !2073
	ret void, !dbg !2073
}
define linkonce_odr void @_ZN11T1DFunctionC2Ev(%struct.T1DFunction* %_T40342992_7641.arg) #0 inlinehint !dbg !2075 {
L.entry:
	%_T40342992_7641.addr = alloca %struct.T1DFunction*, align 8

	store %struct.T1DFunction* %_T40342992_7641.arg, %struct.T1DFunction** %_T40342992_7641.addr, align 8, !tbaa !1398
	%0 = bitcast [5 x i32 (...)* (...)*]* @_ZTV11T1DFunction to i8*, !dbg !2083
	%1 = getelementptr i8, i8*  %0, i64 16, !dbg !2083
	%2 = load %struct.T1DFunction*, %struct.T1DFunction** %_T40342992_7641.addr, align 8, !tbaa !1398, !dbg !2083
	%3 = bitcast %struct.T1DFunction*  %2 to i8**, !dbg !2083
	store i8*  %1, i8**  %3, align 8, !tbaa !1398, !dbg !2083
	ret void, !dbg !2083
}
define linkonce_odr void @_ZN11T2DFunctionD1Ev(%struct.T2DFunction* %_T40342992_7642.arg) #0 inlinehint !dbg !2088 {
L.entry:
	%_T40342992_7642.addr = alloca %struct.T2DFunction*, align 8

	call void @llvm.dbg.declare (metadata %struct.T2DFunction** %_T40342992_7642.addr, metadata !2092, metadata !1366), !dbg !2089
	store %struct.T2DFunction* %_T40342992_7642.arg, %struct.T2DFunction** %_T40342992_7642.addr, align 8, !tbaa !1398
	call void @llvm.dbg.declare (metadata %struct.T2DFunction** %_T40342992_7642.addr, metadata !2093, metadata !1366), !dbg !2089
	%0 = bitcast [5 x i32 (...)* (...)*]* @_ZTV11T2DFunction to i8*, !dbg !2094
	%1 = getelementptr i8, i8*  %0, i64 16, !dbg !2094
	%2 = load %struct.T2DFunction*, %struct.T2DFunction** %_T40342992_7642.addr, align 8, !tbaa !1398, !dbg !2094
	%3 = bitcast %struct.T2DFunction*  %2 to i8**, !dbg !2094
	store i8*  %1, i8**  %3, align 8, !tbaa !1398, !dbg !2094
	ret void, !dbg !2094
}
define linkonce_odr void @_ZN11T2DFunctionD0Ev(%struct.T2DFunction* %_T40342992_7643.arg) #0 inlinehint !dbg !2098 {
L.entry:
	%_T40342992_7643.addr = alloca %struct.T2DFunction*, align 8

	store %struct.T2DFunction* %_T40342992_7643.arg, %struct.T2DFunction** %_T40342992_7643.addr, align 8, !tbaa !1398
	%0 = bitcast [5 x i32 (...)* (...)*]* @_ZTV11T2DFunction to i8*, !dbg !2106
	%1 = getelementptr i8, i8*  %0, i64 16, !dbg !2106
	%2 = load %struct.T2DFunction*, %struct.T2DFunction** %_T40342992_7643.addr, align 8, !tbaa !1398, !dbg !2106
	%3 = bitcast %struct.T2DFunction*  %2 to i8**, !dbg !2106
	store i8*  %1, i8**  %3, align 8, !tbaa !1398, !dbg !2106
	%4 = bitcast %struct.T2DFunction*  %2 to i8*, !dbg !2106
	call void  @_ZdlPvm (i8*  %4, i64 8) nounwind, !dbg !2106
	ret void, !dbg !2106
}
define linkonce_odr void @_ZN11T2DFunctionD2Ev(%struct.T2DFunction* %_T40342992_7644.arg) #0 inlinehint !dbg !2108 {
L.entry:
	%_T40342992_7644.addr = alloca %struct.T2DFunction*, align 8

	store %struct.T2DFunction* %_T40342992_7644.arg, %struct.T2DFunction** %_T40342992_7644.addr, align 8, !tbaa !1398
	%0 = bitcast [5 x i32 (...)* (...)*]* @_ZTV11T2DFunction to i8*, !dbg !2116
	%1 = getelementptr i8, i8*  %0, i64 16, !dbg !2116
	%2 = load %struct.T2DFunction*, %struct.T2DFunction** %_T40342992_7644.addr, align 8, !tbaa !1398, !dbg !2116
	%3 = bitcast %struct.T2DFunction*  %2 to i8**, !dbg !2116
	store i8*  %1, i8**  %3, align 8, !tbaa !1398, !dbg !2116
	ret void, !dbg !2116
}
define linkonce_odr void @_ZN11T2DFunctionC1Ev(%struct.T2DFunction* %_T40342992_7645.arg) #0 inlinehint !dbg !2118 {
L.entry:
	%_T40342992_7645.addr = alloca %struct.T2DFunction*, align 8

	call void @llvm.dbg.declare (metadata %struct.T2DFunction** %_T40342992_7645.addr, metadata !2122, metadata !1366), !dbg !2119
	store %struct.T2DFunction* %_T40342992_7645.arg, %struct.T2DFunction** %_T40342992_7645.addr, align 8, !tbaa !1398
	call void @llvm.dbg.declare (metadata %struct.T2DFunction** %_T40342992_7645.addr, metadata !2123, metadata !1366), !dbg !2119
	%0 = bitcast [5 x i32 (...)* (...)*]* @_ZTV11T2DFunction to i8*, !dbg !2124
	%1 = getelementptr i8, i8*  %0, i64 16, !dbg !2124
	%2 = load %struct.T2DFunction*, %struct.T2DFunction** %_T40342992_7645.addr, align 8, !tbaa !1398, !dbg !2124
	%3 = bitcast %struct.T2DFunction*  %2 to i8**, !dbg !2124
	store i8*  %1, i8**  %3, align 8, !tbaa !1398, !dbg !2124
	ret void, !dbg !2124
}
define linkonce_odr void @_ZN11T2DFunctionC2Ev(%struct.T2DFunction* %_T40342992_7646.arg) #0 inlinehint !dbg !2126 {
L.entry:
	%_T40342992_7646.addr = alloca %struct.T2DFunction*, align 8

	store %struct.T2DFunction* %_T40342992_7646.arg, %struct.T2DFunction** %_T40342992_7646.addr, align 8, !tbaa !1398
	%0 = bitcast [5 x i32 (...)* (...)*]* @_ZTV11T2DFunction to i8*, !dbg !2134
	%1 = getelementptr i8, i8*  %0, i64 16, !dbg !2134
	%2 = load %struct.T2DFunction*, %struct.T2DFunction** %_T40342992_7646.addr, align 8, !tbaa !1398, !dbg !2134
	%3 = bitcast %struct.T2DFunction*  %2 to i8**, !dbg !2134
	store i8*  %1, i8**  %3, align 8, !tbaa !1398, !dbg !2134
	ret void, !dbg !2134
}

%struct.T2D_fix1 = type <{ %struct.T1DFunction, %struct.T2DFunction*, double}> 

define linkonce_odr void @_ZN8T2D_fix1C1ERK11T2DFunctiond(%struct.T2D_fix1* %_T40342992_7647.arg, %struct.T2DFunction* %f1.arg, double %x1.arg) #0 inlinehint !dbg !2138 {
L.entry:
	%_T40342992_7647.addr = alloca %struct.T2D_fix1*, align 8
	%f1.addr = alloca %struct.T2DFunction*, align 8
	%x1.addr = alloca double, align 8

	call void @llvm.dbg.declare (metadata %struct.T2D_fix1** %_T40342992_7647.addr, metadata !2150, metadata !1366), !dbg !2139
	store %struct.T2D_fix1* %_T40342992_7647.arg, %struct.T2D_fix1** %_T40342992_7647.addr, align 8, !tbaa !1398
	call void @llvm.dbg.declare (metadata %struct.T2D_fix1** %_T40342992_7647.addr, metadata !2151, metadata !1366), !dbg !2139
	call void @llvm.dbg.declare (metadata %struct.T2DFunction** %f1.addr, metadata !2152, metadata !1366), !dbg !2139
	store %struct.T2DFunction* %f1.arg, %struct.T2DFunction** %f1.addr, align 8, !tbaa !1398
	call void @llvm.dbg.declare (metadata %struct.T2DFunction** %f1.addr, metadata !2153, metadata !1366), !dbg !2139
	call void @llvm.dbg.declare (metadata double* %x1.addr, metadata !2154, metadata !1366), !dbg !2139
	store double %x1.arg, double* %x1.addr, align 8, !tbaa !1399
	call void @llvm.dbg.declare (metadata double* %x1.addr, metadata !2155, metadata !1366), !dbg !2139
	%0 = bitcast [5 x i32 (...)* (...)*]* @_ZTV11T1DFunction to i8*, !dbg !2156
	%1 = getelementptr i8, i8*  %0, i64 16, !dbg !2156
	%2 = load %struct.T2D_fix1*, %struct.T2D_fix1** %_T40342992_7647.addr, align 8, !tbaa !1398, !dbg !2156
	%3 = bitcast %struct.T2D_fix1*  %2 to i8**, !dbg !2156
	store i8*  %1, i8**  %3, align 8, !tbaa !1398, !dbg !2156
	%4 = bitcast [5 x i32 (...)* (...)*]* @_ZTV8T2D_fix1 to i8*, !dbg !2156
	%5 = getelementptr i8, i8*  %4, i64 16, !dbg !2156
	store i8*  %5, i8**  %3, align 8, !tbaa !1398, !dbg !2156
	%6 = load %struct.T2DFunction*, %struct.T2DFunction** %f1.addr, align 8, !tbaa !1398, !dbg !2156
	%7 = bitcast %struct.T2DFunction*  %6 to i8*, !dbg !2156
	%8 = bitcast %struct.T2D_fix1*  %2 to i8*, !dbg !2156
	%9 = getelementptr i8, i8*  %8, i64 8, !dbg !2156
	%10 = bitcast i8*  %9 to i8**, !dbg !2156
	store i8*  %7, i8**  %10, align 8, !tbaa !1398, !dbg !2156
	%11 = load double, double* %x1.addr, align 8, !tbaa !1403, !dbg !2156
	%12 = getelementptr i8, i8*  %8, i64 16, !dbg !2156
	%13 = bitcast i8*  %12 to double*, !dbg !2156
	store double  %11, double*  %13, align 8, !tbaa !1399, !dbg !2156
	ret void, !dbg !2156
}
define linkonce_odr void @_ZN8T2D_fix1C2ERK11T2DFunctiond(%struct.T2D_fix1* %_T40342992_7648.arg, %struct.T2DFunction* %_T40343288_7648.arg, double %_T40343584_7648.arg) #0 inlinehint !dbg !2160 {
L.entry:
	%_T40342992_7648.addr = alloca %struct.T2D_fix1*, align 8
	%_T40343288_7648.addr = alloca %struct.T2DFunction*, align 8
	%_T40343584_7648.addr = alloca double, align 8
	%..inline.addr = alloca %struct.T2D_fix1*, align 8
	%..inline.addr.1 = alloca %struct.T2DFunction*, align 8
	%..inline.addr.2 = alloca double, align 8

	store %struct.T2D_fix1* %_T40342992_7648.arg, %struct.T2D_fix1** %_T40342992_7648.addr, align 8, !tbaa !1398
	store %struct.T2DFunction* %_T40343288_7648.arg, %struct.T2DFunction** %_T40343288_7648.addr, align 8, !tbaa !1398
	store double %_T40343584_7648.arg, double* %_T40343584_7648.addr, align 8, !tbaa !1399
	%0 = load %struct.T2D_fix1*, %struct.T2D_fix1** %_T40342992_7648.addr, align 8, !tbaa !1398, !dbg !2176
	%1 = bitcast %struct.T2D_fix1*  %0 to i8*, !dbg !2176
	%2 = bitcast %struct.T2D_fix1** %..inline.addr to i8**, !dbg !2176
	store i8*  %1, i8**  %2, align 8, !tbaa !1398, !dbg !2176
	%3 = load %struct.T2DFunction*, %struct.T2DFunction** %_T40343288_7648.addr, align 8, !tbaa !1398, !dbg !2176
	%4 = bitcast %struct.T2DFunction*  %3 to i8*, !dbg !2176
	%5 = bitcast %struct.T2DFunction** %..inline.addr.1 to i8**, !dbg !2176
	store i8*  %4, i8**  %5, align 8, !tbaa !1398, !dbg !2176
	%6 = load double, double* %_T40343584_7648.addr, align 8, !tbaa !1403, !dbg !2176
	%7 = bitcast [5 x i32 (...)* (...)*]* @_ZTV11T1DFunction to i8*, !dbg !2176
	%8 = getelementptr i8, i8*  %7, i64 16, !dbg !2176
	%9 = bitcast %struct.T2D_fix1*  %0 to i8**, !dbg !2176
	store i8*  %8, i8**  %9, align 8, !tbaa !1398, !dbg !2176
	%10 = bitcast [5 x i32 (...)* (...)*]* @_ZTV8T2D_fix1 to i8*, !dbg !2176
	%11 = getelementptr i8, i8*  %10, i64 16, !dbg !2176
	%12 = load %struct.T2D_fix1*, %struct.T2D_fix1** %..inline.addr, align 8, !tbaa !1398, !dbg !2176
	%13 = bitcast %struct.T2D_fix1*  %12 to i8**, !dbg !2176
	store i8*  %11, i8**  %13, align 8, !tbaa !1398, !dbg !2176
	%14 = load %struct.T2DFunction*, %struct.T2DFunction** %..inline.addr.1, align 8, !tbaa !1398, !dbg !2176
	%15 = bitcast %struct.T2DFunction*  %14 to i8*, !dbg !2176
	%16 = bitcast %struct.T2D_fix1*  %12 to i8*, !dbg !2176
	%17 = getelementptr i8, i8*  %16, i64 8, !dbg !2176
	%18 = bitcast i8*  %17 to i8**, !dbg !2176
	store i8*  %15, i8**  %18, align 8, !tbaa !1398, !dbg !2176
	%19 = getelementptr i8, i8*  %16, i64 16, !dbg !2176
	%20 = bitcast i8*  %19 to double*, !dbg !2176
	store double  %6, double*  %20, align 8, !tbaa !1399, !dbg !2176
	ret void, !dbg !2176
}
define linkonce_odr double @_ZNK8T2D_fix14callEd(%struct.T2D_fix1* %_T40343176_7649.arg, double %y.arg) #0 inlinehint !dbg !2178 {
L.entry:
	%_T40343176_7649.addr = alloca %struct.T2D_fix1*, align 8
	%y.addr = alloca double, align 8
	%.Q0019.addr = alloca double, align 8

	call void @llvm.dbg.declare (metadata %struct.T2D_fix1** %_T40343176_7649.addr, metadata !2182, metadata !1366), !dbg !2179
	store %struct.T2D_fix1* %_T40343176_7649.arg, %struct.T2D_fix1** %_T40343176_7649.addr, align 8, !tbaa !1398
	call void @llvm.dbg.declare (metadata %struct.T2D_fix1** %_T40343176_7649.addr, metadata !2183, metadata !1366), !dbg !2179
	call void @llvm.dbg.declare (metadata double* %y.addr, metadata !2184, metadata !1366), !dbg !2179
	store double %y.arg, double* %y.addr, align 8, !tbaa !1399
	call void @llvm.dbg.declare (metadata double* %y.addr, metadata !2185, metadata !1366), !dbg !2179
	%0 = load %struct.T2D_fix1*, %struct.T2D_fix1** %_T40343176_7649.addr, align 8, !tbaa !1398, !dbg !2186
	%1 = bitcast %struct.T2D_fix1*  %0 to i8*, !dbg !2186
	%2 = getelementptr i8, i8*  %1, i64 8, !dbg !2186
	%3 = bitcast i8*  %2 to %struct.T2DFunction**, !dbg !2186
	%4 = load %struct.T2DFunction*, %struct.T2DFunction**  %3, align 8, !tbaa !1398, !dbg !2186
	%5 = getelementptr i8, i8*  %1, i64 16, !dbg !2186
	%6 = bitcast i8*  %5 to double*, !dbg !2186
	%7 = load double, double*  %6, align 8, !tbaa !1399, !dbg !2186
	%8 = load double, double* %y.addr, align 8, !tbaa !1403, !dbg !2186
	%9 = bitcast i8*  %2 to double (%struct.T2DFunction*, double, double)****, !dbg !2186
	%10 = load double (%struct.T2DFunction*, double, double)***, double (%struct.T2DFunction*, double, double)****  %9, align 8, !tbaa !1398, !dbg !2186
	%11 = load double (%struct.T2DFunction*, double, double)**, double (%struct.T2DFunction*, double, double)***  %10, align 8, !tbaa !1398, !dbg !2186
	%12 = load double (%struct.T2DFunction*, double, double)*, double (%struct.T2DFunction*, double, double)**  %11, align 8, !tbaa !1398, !dbg !2186
	%13 = call double  %12 (%struct.T2DFunction*  %4, double  %7, double  %8), !dbg !2186
	ret double  %13, !dbg !2186
}
define linkonce_odr void @_ZN8T2D_fix1D1Ev(%struct.T2D_fix1* %_T40342992_7650.arg) #0 inlinehint !dbg !2190 {
L.entry:
	%_T40342992_7650.addr = alloca %struct.T2D_fix1*, align 8

	call void @llvm.dbg.declare (metadata %struct.T2D_fix1** %_T40342992_7650.addr, metadata !2202, metadata !1366), !dbg !2191
	store %struct.T2D_fix1* %_T40342992_7650.arg, %struct.T2D_fix1** %_T40342992_7650.addr, align 8, !tbaa !1398
	call void @llvm.dbg.declare (metadata %struct.T2D_fix1** %_T40342992_7650.addr, metadata !2203, metadata !1366), !dbg !2191
	%0 = bitcast [5 x i32 (...)* (...)*]* @_ZTV8T2D_fix1 to i8*, !dbg !2204
	%1 = getelementptr i8, i8*  %0, i64 16, !dbg !2204
	%2 = load %struct.T2D_fix1*, %struct.T2D_fix1** %_T40342992_7650.addr, align 8, !tbaa !1398, !dbg !2204
	%3 = bitcast %struct.T2D_fix1*  %2 to i8**, !dbg !2204
	store i8*  %1, i8**  %3, align 8, !tbaa !1398, !dbg !2204
	%4 = bitcast [5 x i32 (...)* (...)*]* @_ZTV11T1DFunction to i8*, !dbg !2204
	%5 = getelementptr i8, i8*  %4, i64 16, !dbg !2204
	store i8*  %5, i8**  %3, align 8, !tbaa !1398, !dbg !2204
	ret void, !dbg !2204
}
define linkonce_odr void @_ZN8T2D_fix1D0Ev(%struct.T2D_fix1* %_T40342992_7651.arg) #0 inlinehint !dbg !2206 {
L.entry:
	%_T40342992_7651.addr = alloca %struct.T2D_fix1*, align 8
	%..inline.addr = alloca %struct.T2D_fix1*, align 8

	store %struct.T2D_fix1* %_T40342992_7651.arg, %struct.T2D_fix1** %_T40342992_7651.addr, align 8, !tbaa !1398
	%0 = load %struct.T2D_fix1*, %struct.T2D_fix1** %_T40342992_7651.addr, align 8, !tbaa !1398, !dbg !2222
	%1 = bitcast %struct.T2D_fix1*  %0 to i8*, !dbg !2222
	%2 = bitcast %struct.T2D_fix1** %..inline.addr to i8**, !dbg !2222
	store i8*  %1, i8**  %2, align 8, !tbaa !1398, !dbg !2222
	%3 = bitcast [5 x i32 (...)* (...)*]* @_ZTV8T2D_fix1 to i8*, !dbg !2222
	%4 = getelementptr i8, i8*  %3, i64 16, !dbg !2222
	%5 = load %struct.T2D_fix1*, %struct.T2D_fix1** %..inline.addr, align 8, !tbaa !1398, !dbg !2222
	%6 = bitcast %struct.T2D_fix1*  %5 to i8**, !dbg !2222
	store i8*  %4, i8**  %6, align 8, !tbaa !1398, !dbg !2222
	%7 = bitcast [5 x i32 (...)* (...)*]* @_ZTV11T1DFunction to i8*, !dbg !2222
	%8 = getelementptr i8, i8*  %7, i64 16, !dbg !2222
	store i8*  %8, i8**  %6, align 8, !tbaa !1398, !dbg !2222
	call void  @_ZdlPvm (i8*  %1, i64 24) nounwind, !dbg !2222
	ret void, !dbg !2222
}
define linkonce_odr void @_ZN8T2D_fix1D2Ev(%struct.T2D_fix1* %_T40342992_7652.arg) #0 inlinehint !dbg !2224 {
L.entry:
	%_T40342992_7652.addr = alloca %struct.T2D_fix1*, align 8
	%..inline.addr = alloca %struct.T2D_fix1*, align 8

	store %struct.T2D_fix1* %_T40342992_7652.arg, %struct.T2D_fix1** %_T40342992_7652.addr, align 8, !tbaa !1398
	%0 = load %struct.T2D_fix1*, %struct.T2D_fix1** %_T40342992_7652.addr, align 8, !tbaa !1398, !dbg !2240
	%1 = bitcast %struct.T2D_fix1*  %0 to i8*, !dbg !2240
	%2 = bitcast %struct.T2D_fix1** %..inline.addr to i8**, !dbg !2240
	store i8*  %1, i8**  %2, align 8, !tbaa !1398, !dbg !2240
	%3 = bitcast [5 x i32 (...)* (...)*]* @_ZTV8T2D_fix1 to i8*, !dbg !2240
	%4 = getelementptr i8, i8*  %3, i64 16, !dbg !2240
	%5 = load %struct.T2D_fix1*, %struct.T2D_fix1** %..inline.addr, align 8, !tbaa !1398, !dbg !2240
	%6 = bitcast %struct.T2D_fix1*  %5 to i8**, !dbg !2240
	store i8*  %4, i8**  %6, align 8, !tbaa !1398, !dbg !2240
	%7 = bitcast [5 x i32 (...)* (...)*]* @_ZTV11T1DFunction to i8*, !dbg !2240
	%8 = getelementptr i8, i8*  %7, i64 16, !dbg !2240
	store i8*  %8, i8**  %6, align 8, !tbaa !1398, !dbg !2240
	ret void, !dbg !2240
}

%struct.T3D_fix3 = type <{ %struct.T2DFunction, %struct.T3DFunction*, double}> 

define linkonce_odr void @_ZN8T3D_fix3C1ERK11T3DFunctiond(%struct.T3D_fix3* %_T40342992_7653.arg, %struct.T3DFunction* %f1.arg, double %z1.arg) #0 inlinehint !dbg !2244 {
L.entry:
	%_T40342992_7653.addr = alloca %struct.T3D_fix3*, align 8
	%f1.addr = alloca %struct.T3DFunction*, align 8
	%z1.addr = alloca double, align 8

	call void @llvm.dbg.declare (metadata %struct.T3D_fix3** %_T40342992_7653.addr, metadata !2256, metadata !1366), !dbg !2245
	store %struct.T3D_fix3* %_T40342992_7653.arg, %struct.T3D_fix3** %_T40342992_7653.addr, align 8, !tbaa !1398
	call void @llvm.dbg.declare (metadata %struct.T3D_fix3** %_T40342992_7653.addr, metadata !2257, metadata !1366), !dbg !2245
	call void @llvm.dbg.declare (metadata %struct.T3DFunction** %f1.addr, metadata !2258, metadata !1366), !dbg !2245
	store %struct.T3DFunction* %f1.arg, %struct.T3DFunction** %f1.addr, align 8, !tbaa !1398
	call void @llvm.dbg.declare (metadata %struct.T3DFunction** %f1.addr, metadata !2259, metadata !1366), !dbg !2245
	call void @llvm.dbg.declare (metadata double* %z1.addr, metadata !2260, metadata !1366), !dbg !2245
	store double %z1.arg, double* %z1.addr, align 8, !tbaa !1399
	call void @llvm.dbg.declare (metadata double* %z1.addr, metadata !2261, metadata !1366), !dbg !2245
	%0 = bitcast [5 x i32 (...)* (...)*]* @_ZTV11T2DFunction to i8*, !dbg !2262
	%1 = getelementptr i8, i8*  %0, i64 16, !dbg !2262
	%2 = load %struct.T3D_fix3*, %struct.T3D_fix3** %_T40342992_7653.addr, align 8, !tbaa !1398, !dbg !2262
	%3 = bitcast %struct.T3D_fix3*  %2 to i8**, !dbg !2262
	store i8*  %1, i8**  %3, align 8, !tbaa !1398, !dbg !2262
	%4 = bitcast [5 x i32 (...)* (...)*]* @_ZTV8T3D_fix3 to i8*, !dbg !2262
	%5 = getelementptr i8, i8*  %4, i64 16, !dbg !2262
	store i8*  %5, i8**  %3, align 8, !tbaa !1398, !dbg !2262
	%6 = load %struct.T3DFunction*, %struct.T3DFunction** %f1.addr, align 8, !tbaa !1398, !dbg !2262
	%7 = bitcast %struct.T3DFunction*  %6 to i8*, !dbg !2262
	%8 = bitcast %struct.T3D_fix3*  %2 to i8*, !dbg !2262
	%9 = getelementptr i8, i8*  %8, i64 8, !dbg !2262
	%10 = bitcast i8*  %9 to i8**, !dbg !2262
	store i8*  %7, i8**  %10, align 8, !tbaa !1398, !dbg !2262
	%11 = load double, double* %z1.addr, align 8, !tbaa !1403, !dbg !2262
	%12 = getelementptr i8, i8*  %8, i64 16, !dbg !2262
	%13 = bitcast i8*  %12 to double*, !dbg !2262
	store double  %11, double*  %13, align 8, !tbaa !1399, !dbg !2262
	ret void, !dbg !2262
}
define linkonce_odr void @_ZN8T3D_fix3C2ERK11T3DFunctiond(%struct.T3D_fix3* %_T40342992_7654.arg, %struct.T3DFunction* %_T40343288_7654.arg, double %_T40343584_7654.arg) #0 inlinehint !dbg !2266 {
L.entry:
	%_T40342992_7654.addr = alloca %struct.T3D_fix3*, align 8
	%_T40343288_7654.addr = alloca %struct.T3DFunction*, align 8
	%_T40343584_7654.addr = alloca double, align 8
	%..inline.addr = alloca %struct.T3D_fix3*, align 8
	%..inline.addr.1 = alloca %struct.T3DFunction*, align 8
	%..inline.addr.2 = alloca double, align 8

	store %struct.T3D_fix3* %_T40342992_7654.arg, %struct.T3D_fix3** %_T40342992_7654.addr, align 8, !tbaa !1398
	store %struct.T3DFunction* %_T40343288_7654.arg, %struct.T3DFunction** %_T40343288_7654.addr, align 8, !tbaa !1398
	store double %_T40343584_7654.arg, double* %_T40343584_7654.addr, align 8, !tbaa !1399
	%0 = load %struct.T3D_fix3*, %struct.T3D_fix3** %_T40342992_7654.addr, align 8, !tbaa !1398, !dbg !2282
	%1 = bitcast %struct.T3D_fix3*  %0 to i8*, !dbg !2282
	%2 = bitcast %struct.T3D_fix3** %..inline.addr to i8**, !dbg !2282
	store i8*  %1, i8**  %2, align 8, !tbaa !1398, !dbg !2282
	%3 = load %struct.T3DFunction*, %struct.T3DFunction** %_T40343288_7654.addr, align 8, !tbaa !1398, !dbg !2282
	%4 = bitcast %struct.T3DFunction*  %3 to i8*, !dbg !2282
	%5 = bitcast %struct.T3DFunction** %..inline.addr.1 to i8**, !dbg !2282
	store i8*  %4, i8**  %5, align 8, !tbaa !1398, !dbg !2282
	%6 = load double, double* %_T40343584_7654.addr, align 8, !tbaa !1403, !dbg !2282
	%7 = bitcast [5 x i32 (...)* (...)*]* @_ZTV11T2DFunction to i8*, !dbg !2282
	%8 = getelementptr i8, i8*  %7, i64 16, !dbg !2282
	%9 = bitcast %struct.T3D_fix3*  %0 to i8**, !dbg !2282
	store i8*  %8, i8**  %9, align 8, !tbaa !1398, !dbg !2282
	%10 = bitcast [5 x i32 (...)* (...)*]* @_ZTV8T3D_fix3 to i8*, !dbg !2282
	%11 = getelementptr i8, i8*  %10, i64 16, !dbg !2282
	%12 = load %struct.T3D_fix3*, %struct.T3D_fix3** %..inline.addr, align 8, !tbaa !1398, !dbg !2282
	%13 = bitcast %struct.T3D_fix3*  %12 to i8**, !dbg !2282
	store i8*  %11, i8**  %13, align 8, !tbaa !1398, !dbg !2282
	%14 = load %struct.T3DFunction*, %struct.T3DFunction** %..inline.addr.1, align 8, !tbaa !1398, !dbg !2282
	%15 = bitcast %struct.T3DFunction*  %14 to i8*, !dbg !2282
	%16 = bitcast %struct.T3D_fix3*  %12 to i8*, !dbg !2282
	%17 = getelementptr i8, i8*  %16, i64 8, !dbg !2282
	%18 = bitcast i8*  %17 to i8**, !dbg !2282
	store i8*  %15, i8**  %18, align 8, !tbaa !1398, !dbg !2282
	%19 = getelementptr i8, i8*  %16, i64 16, !dbg !2282
	%20 = bitcast i8*  %19 to double*, !dbg !2282
	store double  %6, double*  %20, align 8, !tbaa !1399, !dbg !2282
	ret void, !dbg !2282
}
define linkonce_odr double @_ZNK8T3D_fix34callEdd(%struct.T3D_fix3* %_T40343176_7655.arg, double %x.arg, double %y.arg) #0 inlinehint !dbg !2284 {
L.entry:
	%_T40343176_7655.addr = alloca %struct.T3D_fix3*, align 8
	%x.addr = alloca double, align 8
	%y.addr = alloca double, align 8
	%.Q0020.addr = alloca double, align 8

	call void @llvm.dbg.declare (metadata %struct.T3D_fix3** %_T40343176_7655.addr, metadata !2288, metadata !1366), !dbg !2285
	store %struct.T3D_fix3* %_T40343176_7655.arg, %struct.T3D_fix3** %_T40343176_7655.addr, align 8, !tbaa !1398
	call void @llvm.dbg.declare (metadata %struct.T3D_fix3** %_T40343176_7655.addr, metadata !2289, metadata !1366), !dbg !2285
	call void @llvm.dbg.declare (metadata double* %x.addr, metadata !2290, metadata !1366), !dbg !2285
	store double %x.arg, double* %x.addr, align 8, !tbaa !1399
	call void @llvm.dbg.declare (metadata double* %x.addr, metadata !2291, metadata !1366), !dbg !2285
	call void @llvm.dbg.declare (metadata double* %y.addr, metadata !2292, metadata !1366), !dbg !2285
	store double %y.arg, double* %y.addr, align 8, !tbaa !1399
	call void @llvm.dbg.declare (metadata double* %y.addr, metadata !2293, metadata !1366), !dbg !2285
	%0 = load %struct.T3D_fix3*, %struct.T3D_fix3** %_T40343176_7655.addr, align 8, !tbaa !1398, !dbg !2294
	%1 = bitcast %struct.T3D_fix3*  %0 to i8*, !dbg !2294
	%2 = getelementptr i8, i8*  %1, i64 8, !dbg !2294
	%3 = bitcast i8*  %2 to %struct.T3DFunction**, !dbg !2294
	%4 = load %struct.T3DFunction*, %struct.T3DFunction**  %3, align 8, !tbaa !1398, !dbg !2294
	%5 = load double, double* %x.addr, align 8, !tbaa !1403, !dbg !2294
	%6 = load double, double* %y.addr, align 8, !tbaa !1403, !dbg !2294
	%7 = getelementptr i8, i8*  %1, i64 16, !dbg !2294
	%8 = bitcast i8*  %7 to double*, !dbg !2294
	%9 = load double, double*  %8, align 8, !tbaa !1399, !dbg !2294
	%10 = bitcast i8*  %2 to double (%struct.T3DFunction*, double, double, double)****, !dbg !2294
	%11 = load double (%struct.T3DFunction*, double, double, double)***, double (%struct.T3DFunction*, double, double, double)****  %10, align 8, !tbaa !1398, !dbg !2294
	%12 = load double (%struct.T3DFunction*, double, double, double)**, double (%struct.T3DFunction*, double, double, double)***  %11, align 8, !tbaa !1398, !dbg !2294
	%13 = load double (%struct.T3DFunction*, double, double, double)*, double (%struct.T3DFunction*, double, double, double)**  %12, align 8, !tbaa !1398, !dbg !2294
	%14 = call double  %13 (%struct.T3DFunction*  %4, double  %5, double  %6, double  %9), !dbg !2294
	ret double  %14, !dbg !2294
}
define linkonce_odr void @_ZN8T3D_fix3D1Ev(%struct.T3D_fix3* %_T40342992_7656.arg) #0 inlinehint !dbg !2298 {
L.entry:
	%_T40342992_7656.addr = alloca %struct.T3D_fix3*, align 8

	call void @llvm.dbg.declare (metadata %struct.T3D_fix3** %_T40342992_7656.addr, metadata !2310, metadata !1366), !dbg !2299
	store %struct.T3D_fix3* %_T40342992_7656.arg, %struct.T3D_fix3** %_T40342992_7656.addr, align 8, !tbaa !1398
	call void @llvm.dbg.declare (metadata %struct.T3D_fix3** %_T40342992_7656.addr, metadata !2311, metadata !1366), !dbg !2299
	%0 = bitcast [5 x i32 (...)* (...)*]* @_ZTV8T3D_fix3 to i8*, !dbg !2312
	%1 = getelementptr i8, i8*  %0, i64 16, !dbg !2312
	%2 = load %struct.T3D_fix3*, %struct.T3D_fix3** %_T40342992_7656.addr, align 8, !tbaa !1398, !dbg !2312
	%3 = bitcast %struct.T3D_fix3*  %2 to i8**, !dbg !2312
	store i8*  %1, i8**  %3, align 8, !tbaa !1398, !dbg !2312
	%4 = bitcast [5 x i32 (...)* (...)*]* @_ZTV11T2DFunction to i8*, !dbg !2312
	%5 = getelementptr i8, i8*  %4, i64 16, !dbg !2312
	store i8*  %5, i8**  %3, align 8, !tbaa !1398, !dbg !2312
	ret void, !dbg !2312
}
define linkonce_odr void @_ZN8T3D_fix3D0Ev(%struct.T3D_fix3* %_T40342992_7657.arg) #0 inlinehint !dbg !2314 {
L.entry:
	%_T40342992_7657.addr = alloca %struct.T3D_fix3*, align 8
	%..inline.addr = alloca %struct.T3D_fix3*, align 8

	store %struct.T3D_fix3* %_T40342992_7657.arg, %struct.T3D_fix3** %_T40342992_7657.addr, align 8, !tbaa !1398
	%0 = load %struct.T3D_fix3*, %struct.T3D_fix3** %_T40342992_7657.addr, align 8, !tbaa !1398, !dbg !2330
	%1 = bitcast %struct.T3D_fix3*  %0 to i8*, !dbg !2330
	%2 = bitcast %struct.T3D_fix3** %..inline.addr to i8**, !dbg !2330
	store i8*  %1, i8**  %2, align 8, !tbaa !1398, !dbg !2330
	%3 = bitcast [5 x i32 (...)* (...)*]* @_ZTV8T3D_fix3 to i8*, !dbg !2330
	%4 = getelementptr i8, i8*  %3, i64 16, !dbg !2330
	%5 = load %struct.T3D_fix3*, %struct.T3D_fix3** %..inline.addr, align 8, !tbaa !1398, !dbg !2330
	%6 = bitcast %struct.T3D_fix3*  %5 to i8**, !dbg !2330
	store i8*  %4, i8**  %6, align 8, !tbaa !1398, !dbg !2330
	%7 = bitcast [5 x i32 (...)* (...)*]* @_ZTV11T2DFunction to i8*, !dbg !2330
	%8 = getelementptr i8, i8*  %7, i64 16, !dbg !2330
	store i8*  %8, i8**  %6, align 8, !tbaa !1398, !dbg !2330
	call void  @_ZdlPvm (i8*  %1, i64 24) nounwind, !dbg !2330
	ret void, !dbg !2330
}
define linkonce_odr void @_ZN8T3D_fix3D2Ev(%struct.T3D_fix3* %_T40342992_7658.arg) #0 inlinehint !dbg !2332 {
L.entry:
	%_T40342992_7658.addr = alloca %struct.T3D_fix3*, align 8
	%..inline.addr = alloca %struct.T3D_fix3*, align 8

	store %struct.T3D_fix3* %_T40342992_7658.arg, %struct.T3D_fix3** %_T40342992_7658.addr, align 8, !tbaa !1398
	%0 = load %struct.T3D_fix3*, %struct.T3D_fix3** %_T40342992_7658.addr, align 8, !tbaa !1398, !dbg !2348
	%1 = bitcast %struct.T3D_fix3*  %0 to i8*, !dbg !2348
	%2 = bitcast %struct.T3D_fix3** %..inline.addr to i8**, !dbg !2348
	store i8*  %1, i8**  %2, align 8, !tbaa !1398, !dbg !2348
	%3 = bitcast [5 x i32 (...)* (...)*]* @_ZTV8T3D_fix3 to i8*, !dbg !2348
	%4 = getelementptr i8, i8*  %3, i64 16, !dbg !2348
	%5 = load %struct.T3D_fix3*, %struct.T3D_fix3** %..inline.addr, align 8, !tbaa !1398, !dbg !2348
	%6 = bitcast %struct.T3D_fix3*  %5 to i8**, !dbg !2348
	store i8*  %4, i8**  %6, align 8, !tbaa !1398, !dbg !2348
	%7 = bitcast [5 x i32 (...)* (...)*]* @_ZTV11T2DFunction to i8*, !dbg !2348
	%8 = getelementptr i8, i8*  %7, i64 16, !dbg !2348
	store i8*  %8, i8**  %6, align 8, !tbaa !1398, !dbg !2348
	ret void, !dbg !2348
}
define linkonce_odr void @_ZN9Tinty_f2DC1ERK11T2DFunctionddd(%struct.Tinty_f2D* %_T41505256_7659.arg, %struct.T2DFunction* %f1.arg, double %ymin.arg, double %ymax.arg, double %absacc.arg) #0 inlinehint !dbg !2352 {
L.entry:
	%_T41505256_7659.addr = alloca %struct.Tinty_f2D*, align 8
	%f1.addr = alloca %struct.T2DFunction*, align 8
	%ymin.addr = alloca double, align 8
	%ymax.addr = alloca double, align 8
	%absacc.addr = alloca double, align 8

	call void @llvm.dbg.declare (metadata %struct.Tinty_f2D** %_T41505256_7659.addr, metadata !2364, metadata !1366), !dbg !2353
	store %struct.Tinty_f2D* %_T41505256_7659.arg, %struct.Tinty_f2D** %_T41505256_7659.addr, align 8, !tbaa !1398
	call void @llvm.dbg.declare (metadata %struct.Tinty_f2D** %_T41505256_7659.addr, metadata !2365, metadata !1366), !dbg !2353
	call void @llvm.dbg.declare (metadata %struct.T2DFunction** %f1.addr, metadata !2366, metadata !1366), !dbg !2353
	store %struct.T2DFunction* %f1.arg, %struct.T2DFunction** %f1.addr, align 8, !tbaa !1398
	call void @llvm.dbg.declare (metadata %struct.T2DFunction** %f1.addr, metadata !2367, metadata !1366), !dbg !2353
	call void @llvm.dbg.declare (metadata double* %ymin.addr, metadata !2368, metadata !1366), !dbg !2353
	store double %ymin.arg, double* %ymin.addr, align 8, !tbaa !1399
	call void @llvm.dbg.declare (metadata double* %ymin.addr, metadata !2369, metadata !1366), !dbg !2353
	call void @llvm.dbg.declare (metadata double* %ymax.addr, metadata !2370, metadata !1366), !dbg !2353
	store double %ymax.arg, double* %ymax.addr, align 8, !tbaa !1399
	call void @llvm.dbg.declare (metadata double* %ymax.addr, metadata !2371, metadata !1366), !dbg !2353
	call void @llvm.dbg.declare (metadata double* %absacc.addr, metadata !2372, metadata !1366), !dbg !2353
	store double %absacc.arg, double* %absacc.addr, align 8, !tbaa !1399
	call void @llvm.dbg.declare (metadata double* %absacc.addr, metadata !2373, metadata !1366), !dbg !2353
	%0 = bitcast [5 x i32 (...)* (...)*]* @_ZTV11T1DFunction to i8*, !dbg !2374
	%1 = getelementptr i8, i8*  %0, i64 16, !dbg !2374
	%2 = load %struct.Tinty_f2D*, %struct.Tinty_f2D** %_T41505256_7659.addr, align 8, !tbaa !1398, !dbg !2374
	%3 = bitcast %struct.Tinty_f2D*  %2 to i8**, !dbg !2374
	store i8*  %1, i8**  %3, align 8, !tbaa !1398, !dbg !2374
	%4 = bitcast [5 x i32 (...)* (...)*]* @_ZTV9Tinty_f2D to i8*, !dbg !2374
	%5 = getelementptr i8, i8*  %4, i64 16, !dbg !2374
	store i8*  %5, i8**  %3, align 8, !tbaa !1398, !dbg !2374
	%6 = load %struct.T2DFunction*, %struct.T2DFunction** %f1.addr, align 8, !tbaa !1398, !dbg !2374
	%7 = bitcast %struct.T2DFunction*  %6 to i8*, !dbg !2374
	%8 = bitcast %struct.Tinty_f2D*  %2 to i8*, !dbg !2374
	%9 = getelementptr i8, i8*  %8, i64 8, !dbg !2374
	%10 = bitcast i8*  %9 to i8**, !dbg !2374
	store i8*  %7, i8**  %10, align 8, !tbaa !1398, !dbg !2374
	%11 = load double, double* %ymin.addr, align 8, !tbaa !1403, !dbg !2374
	%12 = getelementptr i8, i8*  %8, i64 16, !dbg !2374
	%13 = bitcast i8*  %12 to double*, !dbg !2374
	store double  %11, double*  %13, align 8, !tbaa !1399, !dbg !2374
	%14 = load double, double* %ymax.addr, align 8, !tbaa !1403, !dbg !2374
	%15 = getelementptr i8, i8*  %8, i64 24, !dbg !2374
	%16 = bitcast i8*  %15 to double*, !dbg !2374
	store double  %14, double*  %16, align 8, !tbaa !1399, !dbg !2374
	%17 = load double, double* %absacc.addr, align 8, !tbaa !1403, !dbg !2374
	%18 = getelementptr i8, i8*  %8, i64 32, !dbg !2374
	%19 = bitcast i8*  %18 to double*, !dbg !2374
	store double  %17, double*  %19, align 8, !tbaa !1399, !dbg !2374
	ret void, !dbg !2374
}
define linkonce_odr void @_ZN9Tinty_f2DC2ERK11T2DFunctionddd(%struct.Tinty_f2D* %_T41505256_7660.arg, %struct.T2DFunction* %_T41505552_7660.arg, double %_T41505848_7660.arg, double %_T41506144_7660.arg, double %_T41506440_7660.arg) #0 inlinehint !dbg !2376 {
L.entry:
	%_T41505256_7660.addr = alloca %struct.Tinty_f2D*, align 8
	%_T41505552_7660.addr = alloca %struct.T2DFunction*, align 8
	%_T41505848_7660.addr = alloca double, align 8
	%_T41506144_7660.addr = alloca double, align 8
	%_T41506440_7660.addr = alloca double, align 8
	%..inline.addr = alloca %struct.Tinty_f2D*, align 8
	%..inline.addr.1 = alloca %struct.T2DFunction*, align 8
	%..inline.addr.2 = alloca double, align 8
	%..inline.addr.3 = alloca double, align 8
	%..inline.addr.4 = alloca double, align 8

	store %struct.Tinty_f2D* %_T41505256_7660.arg, %struct.Tinty_f2D** %_T41505256_7660.addr, align 8, !tbaa !1398
	store %struct.T2DFunction* %_T41505552_7660.arg, %struct.T2DFunction** %_T41505552_7660.addr, align 8, !tbaa !1398
	store double %_T41505848_7660.arg, double* %_T41505848_7660.addr, align 8, !tbaa !1399
	store double %_T41506144_7660.arg, double* %_T41506144_7660.addr, align 8, !tbaa !1399
	store double %_T41506440_7660.arg, double* %_T41506440_7660.addr, align 8, !tbaa !1399
	%0 = load %struct.Tinty_f2D*, %struct.Tinty_f2D** %_T41505256_7660.addr, align 8, !tbaa !1398, !dbg !2392
	%1 = bitcast %struct.Tinty_f2D*  %0 to i8*, !dbg !2392
	%2 = bitcast %struct.Tinty_f2D** %..inline.addr to i8**, !dbg !2392
	store i8*  %1, i8**  %2, align 8, !tbaa !1398, !dbg !2392
	%3 = load %struct.T2DFunction*, %struct.T2DFunction** %_T41505552_7660.addr, align 8, !tbaa !1398, !dbg !2392
	%4 = bitcast %struct.T2DFunction*  %3 to i8*, !dbg !2392
	%5 = bitcast %struct.T2DFunction** %..inline.addr.1 to i8**, !dbg !2392
	store i8*  %4, i8**  %5, align 8, !tbaa !1398, !dbg !2392
	%6 = load double, double* %_T41505848_7660.addr, align 8, !tbaa !1403, !dbg !2392
	%7 = load double, double* %_T41506144_7660.addr, align 8, !tbaa !1403, !dbg !2392
	%8 = load double, double* %_T41506440_7660.addr, align 8, !tbaa !1403, !dbg !2392
	%9 = bitcast [5 x i32 (...)* (...)*]* @_ZTV11T1DFunction to i8*, !dbg !2392
	%10 = getelementptr i8, i8*  %9, i64 16, !dbg !2392
	%11 = bitcast %struct.Tinty_f2D*  %0 to i8**, !dbg !2392
	store i8*  %10, i8**  %11, align 8, !tbaa !1398, !dbg !2392
	%12 = bitcast [5 x i32 (...)* (...)*]* @_ZTV9Tinty_f2D to i8*, !dbg !2392
	%13 = getelementptr i8, i8*  %12, i64 16, !dbg !2392
	%14 = load %struct.Tinty_f2D*, %struct.Tinty_f2D** %..inline.addr, align 8, !tbaa !1398, !dbg !2392
	%15 = bitcast %struct.Tinty_f2D*  %14 to i8**, !dbg !2392
	store i8*  %13, i8**  %15, align 8, !tbaa !1398, !dbg !2392
	%16 = load %struct.T2DFunction*, %struct.T2DFunction** %..inline.addr.1, align 8, !tbaa !1398, !dbg !2392
	%17 = bitcast %struct.T2DFunction*  %16 to i8*, !dbg !2392
	%18 = bitcast %struct.Tinty_f2D*  %14 to i8*, !dbg !2392
	%19 = getelementptr i8, i8*  %18, i64 8, !dbg !2392
	%20 = bitcast i8*  %19 to i8**, !dbg !2392
	store i8*  %17, i8**  %20, align 8, !tbaa !1398, !dbg !2392
	%21 = getelementptr i8, i8*  %18, i64 16, !dbg !2392
	%22 = bitcast i8*  %21 to double*, !dbg !2392
	store double  %6, double*  %22, align 8, !tbaa !1399, !dbg !2392
	%23 = getelementptr i8, i8*  %18, i64 24, !dbg !2392
	%24 = bitcast i8*  %23 to double*, !dbg !2392
	store double  %7, double*  %24, align 8, !tbaa !1399, !dbg !2392
	%25 = getelementptr i8, i8*  %18, i64 32, !dbg !2392
	%26 = bitcast i8*  %25 to double*, !dbg !2392
	store double  %8, double*  %26, align 8, !tbaa !1399, !dbg !2392
	ret void, !dbg !2392
}
define linkonce_odr double @_ZNK9Tinty_f2D4callEd(%struct.Tinty_f2D* %_T41505256_7661.arg, double %x.arg) #0 inlinehint personality i8* bitcast (i32 (...)* @__gxx_personality_v0 to i8*) !dbg !2394 {
L.entry:
	%_T41505256_7661.addr = alloca %struct.Tinty_f2D*, align 8
	%x.addr = alloca double, align 8
	%..inline.addr = alloca %struct.T2DFunction*, align 8
	%..inline.addr.1 = alloca double, align 8
	%_T41506440_7661.addr = alloca %struct.T2D_fix1, align 8
	%..inline.addr.2 = alloca double, align 8
	%..inline.addr.3 = alloca double, align 8
	%..inline.addr.4 = alloca double, align 8
	%..inline.addr.5 = alloca i32, align 4
	%..inline.addr.6 = alloca [9 x double], align 8
	%..inline.addr.7 = alloca double, align 8
	%..inline.addr.8 = alloca i32, align 4
	%.x31745.addr = alloca i32, align 4
	%..inline.addr.9 = alloca [9 x double], align 8
	%.G0103.addr = alloca i8*, align 8
	%.G0101.addr = alloca i8*, align 8
	%..inline.addr.180 = alloca double, align 8
	%..inline.addr.190 = alloca double, align 8
	%..inline.addr.200 = alloca double*, align 8
	%.Q0021.addr = alloca double, align 8
	%.Q0022.addr = alloca double, align 8
	%..inline.addr.230 = alloca double, align 8
	%..inline.addr.240 = alloca double, align 8
	%..inline.addr.250 = alloca double, align 8
	%.x31746.addr = alloca i32, align 4
	%.Q0023.addr = alloca double, align 8
	%..inline.addr.280 = alloca double, align 8
	%..inline.addr.290 = alloca i32, align 4
	%..inline.addr.300 = alloca double*, align 8
	%..inline.addr.310 = alloca double*, align 8
	%..inline.addr.320 = alloca i32, align 4
	%..inline.addr.330 = alloca i32, align 4
	%..inline.addr.340 = alloca double, align 8
	%.ndi0022.addr = alloca i32, align 4
	%.lcr0131746.addr = alloca i32, align 4
	%..inline.addr.370 = alloca double, align 8
	%..inline.addr.380 = alloca [20 x double], align 8
	%..inline.addr.390 = alloca [20 x double], align 8
	%..inline.addr.400 = alloca double, align 8
	%.TRP0010.addr = alloca i64, align 8
	%.ndk0044.addr = alloca i64, align 8
	%.lcr0531746.addr = alloca i64, align 8
	%.TRP0011.addr = alloca i64, align 8
	%.ndk0046.addr = alloca i64, align 8
	%.lcr0531747.addr = alloca i64, align 8
	%.r32.0553.addr = alloca i32, align 4
	%.G0088.addr = alloca i8*, align 8
	%..inline.addr.490 = alloca double, align 8
	%..inline.addr.500 = alloca double, align 8
	%..inline.addr.510 = alloca double, align 8
	%..inline.addr.520 = alloca double*, align 8
	%..inline.addr.530 = alloca double*, align 8
	%..inline.addr.540 = alloca i32, align 4
	%..inline.addr.550 = alloca i32, align 4
	%..inline.addr.560 = alloca double, align 8
	%..inline.addr.570 = alloca i32, align 4
	%..inline.addr.580 = alloca double, align 8
	%..inline.addr.590 = alloca double, align 8
	%..inline.addr.600 = alloca double, align 8
	%..inline.addr.610 = alloca [20 x double], align 8
	%..inline.addr.620 = alloca [20 x double], align 8
	%.D0046.addr = alloca i32, align 4
	%..inline.addr.640 = alloca i32, align 4
	%.lcr0131747.addr = alloca i32, align 4
	%..inline.addr.660 = alloca double, align 8
	%..inline.addr.670 = alloca double, align 8
	%..inline.addr.680 = alloca double, align 8
	%..inline.addr.690 = alloca %struct._ZSt9basic_iosIcSt11char_traitsIcEE*, align 8
	%..inline.addr.700 = alloca %struct._ZSt9basic_iosIcSt11char_traitsIcEE*, align 8
	%..inline.addr.710 = alloca i32, align 4
	%..inline.addr.720 = alloca i64, align 8
	%.Q0024.addr = alloca %struct._ZSo*, align 8
	%..inline.addr.740 = alloca double, align 8
	%.D0047.addr = alloca i32, align 4
	%..inline.addr.760 = alloca double, align 8
	%..inline.addr.770 = alloca double, align 8
	%..inline.addr.780 = alloca double, align 8
	%_T41506736_7661.addr = alloca double, align 8
	%__caught_object_address.addr = alloca i8*, align 8
	%__catch_clause_number.addr = alloca i32, align 4

	call void @llvm.dbg.declare (metadata %struct.Tinty_f2D** %_T41505256_7661.addr, metadata !2486, metadata !1366), !dbg !2395
	store %struct.Tinty_f2D* %_T41505256_7661.arg, %struct.Tinty_f2D** %_T41505256_7661.addr, align 8, !tbaa !1398
	call void @llvm.dbg.declare (metadata %struct.Tinty_f2D** %_T41505256_7661.addr, metadata !2487, metadata !1366), !dbg !2395
	call void @llvm.dbg.declare (metadata double* %x.addr, metadata !2488, metadata !1366), !dbg !2395
	store double %x.arg, double* %x.addr, align 8, !tbaa !1399
	call void @llvm.dbg.declare (metadata double* %x.addr, metadata !2489, metadata !1366), !dbg !2395
	%0 = load %struct.Tinty_f2D*, %struct.Tinty_f2D** %_T41505256_7661.addr, align 8, !tbaa !1398, !dbg !2490
	%1 = bitcast %struct.Tinty_f2D*  %0 to i8*, !dbg !2490
	%2 = getelementptr i8, i8*  %1, i64 8, !dbg !2490
	%3 = bitcast i8*  %2 to i8**, !dbg !2490
	%4 = load i8*, i8**  %3, align 8, !tbaa !1398, !dbg !2490
	%5 = bitcast %struct.T2DFunction** %..inline.addr to i8**, !dbg !2490
	store i8*  %4, i8**  %5, align 8, !tbaa !1398, !dbg !2490
	%6 = load double, double* %x.addr, align 8, !tbaa !1403, !dbg !2490
	%7 = bitcast [5 x i32 (...)* (...)*]* @_ZTV11T1DFunction to i8*, !dbg !2491
	%8 = getelementptr i8, i8*  %7, i64 16, !dbg !2491
	%9 = bitcast %struct.T2D_fix1* %_T41506440_7661.addr to i8**, !dbg !2491
	store i8*  %8, i8**  %9, align 8, !tbaa !1398, !dbg !2491
	%10 = bitcast [5 x i32 (...)* (...)*]* @_ZTV8T2D_fix1 to i8*, !dbg !2491
	%11 = getelementptr i8, i8*  %10, i64 16, !dbg !2491
	store i8*  %11, i8**  %9, align 8, !tbaa !1398, !dbg !2491
	%12 = load %struct.T2DFunction*, %struct.T2DFunction** %..inline.addr, align 8, !tbaa !1398, !dbg !2491
	%13 = bitcast %struct.T2DFunction*  %12 to i8*, !dbg !2491
	%14 = bitcast %struct.T2D_fix1* %_T41506440_7661.addr to i8*, !dbg !2491
	%15 = getelementptr i8, i8*  %14, i64 8, !dbg !2491
	%16 = bitcast i8*  %15 to i8**, !dbg !2491
	store i8*  %13, i8**  %16, align 8, !tbaa !1398, !dbg !2491
	%17 = getelementptr i8, i8*  %14, i64 16, !dbg !2491
	%18 = bitcast i8*  %17 to double*, !dbg !2491
	store double  %6, double*  %18, align 8, !tbaa !1399, !dbg !2491
	%19 = getelementptr i8, i8*  %1, i64 16, !dbg !2490
	%20 = bitcast i8*  %19 to double*, !dbg !2490
	%21 = load double, double*  %20, align 8, !tbaa !1399, !dbg !2490
	store double  %21, double* %..inline.addr.2, align 8, !tbaa !1403, !dbg !2490
	%22 = getelementptr i8, i8*  %1, i64 24, !dbg !2490
	%23 = bitcast i8*  %22 to double*, !dbg !2490
	%24 = load double, double*  %23, align 8, !tbaa !1399, !dbg !2490
	store double  %24, double* %..inline.addr.3, align 8, !tbaa !1403, !dbg !2490
	%25 = getelementptr i8, i8*  %1, i64 32, !dbg !2490
	%26 = bitcast i8*  %25 to double*, !dbg !2490
	%27 = load double, double*  %26, align 8, !tbaa !1399, !dbg !2490
	store double  %27, double* %..inline.addr.4, align 8, !tbaa !1403, !dbg !2490
	store i32 0, i32* %..inline.addr.5, align 4, !tbaa !1401, !dbg !2490
	%28 = bitcast [9 x double]* %..inline.addr.6 to double*, !dbg !2492
	store double  1.00000000000000000E+0, double*  %28, align 8, !tbaa !1399, !dbg !2492
	store double  0.00000000000000000E+0, double* %..inline.addr.7, align 8, !tbaa !1403, !dbg !2493
	store i32 1, i32* %..inline.addr.8, align 4, !tbaa !1401, !dbg !2494
	store i32 8, i32* %.x31745.addr, align 4, !tbaa !1401, !dbg !2495
	%29 = bitcast [9 x double]* %..inline.addr.9 to i8*, !dbg !2495
	%30 = getelementptr i8, i8*  %29, i64 8, !dbg !2495
	store i8*  %30, i8** %.G0103.addr, align 8, !tbaa !1398, !dbg !2495
	%31 = bitcast [9 x double]* %..inline.addr.6 to i8*, !dbg !2495
	%32 = getelementptr i8, i8*  %31, i64 8, !dbg !2495
	store i8*  %32, i8** %.G0101.addr, align 8, !tbaa !1398, !dbg !2495
	br label %L..inline.13253
L..inline.13253:
	%33 = load double, double* %..inline.addr.2, align 8, !tbaa !1403, !dbg !2496
	store double  %33, double* %..inline.addr.180, align 8, !tbaa !1403, !dbg !2496
	%34 = load double, double* %..inline.addr.3, align 8, !tbaa !1403, !dbg !2496
	store double  %34, double* %..inline.addr.190, align 8, !tbaa !1403, !dbg !2496
	%35 = bitcast [9 x double]* %..inline.addr.9 to i8*, !dbg !2496
	%36 = load i32, i32* %..inline.addr.8, align 4, !tbaa !1401, !dbg !2496
	%37 = sext i32  %36 to i64, !dbg !2496
	%38 = sub i64  %37, 1, !dbg !2496
	%39 = mul i64  %38, 8, !dbg !2496
	%40 = getelementptr i8, i8*  %35, i64  %39, !dbg !2496
	%41 = bitcast double** %..inline.addr.200 to i8**, !dbg !2496
	store i8*  %40, i8**  %41, align 8, !tbaa !1398, !dbg !2496
	%42 = icmp ne i32  %36, 1, !dbg !2496
	br i1  %42, label %L..inline.13267, label %L.B0400, !dbg !2496
L.B0400:
	%43 = bitcast %struct.T2D_fix1* %_T41506440_7661.addr to %struct.T1DFunction*, !dbg !2496
	%44 = bitcast %struct.T2D_fix1* %_T41506440_7661.addr to i8**, !dbg !2496
	%45 = load i8*, i8**  %44, align 8, !tbaa !1398, !dbg !2496
	%46 = bitcast i8*  %45 to double (%struct.T1DFunction*, double)**, !dbg !2496
	%47 = load double (%struct.T1DFunction*, double)*, double (%struct.T1DFunction*, double)**  %46, align 8, !tbaa !1398, !dbg !2496
	%48 = invoke double  %47 (%struct.T1DFunction*  %43, double  %34)
		to label %L.B0401
		unwind label %L_T41507328_7661, !dbg !2496
L.B0401:
	store double  %48, double* %.Q0021.addr, align 8, !tbaa !1403, !dbg !2496
	%49 = load double, double* %..inline.addr.180, align 8, !tbaa !1403, !dbg !2496
	%50 = load i8*, i8**  %44, align 8, !tbaa !1398, !dbg !2496
	%51 = bitcast i8*  %50 to double (%struct.T1DFunction*, double)**, !dbg !2496
	%52 = load double (%struct.T1DFunction*, double)*, double (%struct.T1DFunction*, double)**  %51, align 8, !tbaa !1398, !dbg !2496
	%53 = invoke double  %52 (%struct.T1DFunction*  %43, double  %49)
		to label %L.B0402
		unwind label %L_T41507328_7661, !dbg !2496
L.B0402:
	store double  %53, double* %.Q0022.addr, align 8, !tbaa !1403, !dbg !2496
	%54 = load double, double* %.Q0021.addr, align 8, !tbaa !1403, !dbg !2496
	%55 = fadd double  %54,  %53, !dbg !2496
	%56 = load double, double* %..inline.addr.190, align 8, !tbaa !1403, !dbg !2496
	%57 = load double, double* %..inline.addr.180, align 8, !tbaa !1403, !dbg !2496
	%58 = fsub double  %56,  %57, !dbg !2496
	%59 = fmul double  %58,  5.00000000000000000E-1, !dbg !2496
	%60 = fmul double  %55,  %59, !dbg !2496
	%61 = load double*, double** %..inline.addr.200, align 8, !tbaa !1398, !dbg !2496
	store double  %60, double*  %61, align 8, !tbaa !1399, !dbg !2496
	store i32 1, i32* %..inline.addr.5, align 4, !tbaa !1401, !dbg !2496
	br label %L..inline.13269, !dbg !2496
L..inline.13267:
	%62 = load double, double* %..inline.addr.3, align 8, !tbaa !1403, !dbg !2496
	%63 = load double, double* %..inline.addr.2, align 8, !tbaa !1403, !dbg !2496
	%64 = fsub double  %62,  %63, !dbg !2496
	%65 = load i32, i32* %..inline.addr.5, align 4, !tbaa !1401, !dbg !2496
	%66 = sitofp i32  %65 to double, !dbg !2496
	%67 = fdiv double  %64,  %66, !dbg !2496
	store double  %67, double* %..inline.addr.230, align 8, !tbaa !1403, !dbg !2496
	%68 = call double @llvm.fma.f64 (double  %67, double  5.00000000000000000E-1, double  %63), !dbg !2496
	store double  %68, double* %..inline.addr.240, align 8, !tbaa !1403, !dbg !2496
	store double  0.00000000000000000E+0, double* %..inline.addr.250, align 8, !tbaa !1403, !dbg !2496
	%69 = icmp sle i32  %65, 0, !dbg !2496
	br i1  %69, label %L..inline.13278, label %L.B0403, !dbg !2496
L.B0403:
	store i32  %65, i32* %.x31746.addr, align 4, !tbaa !1401, !dbg !2496
	br label %L..inline.13277
L..inline.13277:
	%70 = bitcast %struct.T2D_fix1* %_T41506440_7661.addr to %struct.T1DFunction*, !dbg !2496
	%71 = load double, double* %..inline.addr.240, align 8, !tbaa !1403, !dbg !2496
	%72 = bitcast %struct.T2D_fix1* %_T41506440_7661.addr to i8**, !dbg !2496
	%73 = load i8*, i8**  %72, align 8, !tbaa !1398, !dbg !2496
	%74 = bitcast i8*  %73 to double (%struct.T1DFunction*, double)**, !dbg !2496
	%75 = load double (%struct.T1DFunction*, double)*, double (%struct.T1DFunction*, double)**  %74, align 8, !tbaa !1398, !dbg !2496
	%76 = invoke double  %75 (%struct.T1DFunction*  %70, double  %71)
		to label %L.B0404
		unwind label %L_T41507328_7661, !dbg !2496
L.B0404:
	store double  %76, double* %.Q0023.addr, align 8, !tbaa !1403, !dbg !2496
	%77 = load double, double* %..inline.addr.250, align 8, !tbaa !1403, !dbg !2496
	%78 = fadd double  %76,  %77, !dbg !2496
	store double  %78, double* %..inline.addr.250, align 8, !tbaa !1403, !dbg !2496
	%79 = load double, double* %..inline.addr.230, align 8, !tbaa !1403, !dbg !2496
	%80 = load double, double* %..inline.addr.240, align 8, !tbaa !1403, !dbg !2496
	%81 = fadd double  %79,  %80, !dbg !2496
	store double  %81, double* %..inline.addr.240, align 8, !tbaa !1403, !dbg !2496
	%82 = load i32, i32* %.x31746.addr, align 4, !tbaa !1401, !dbg !2496
	%83 = sub i32  %82, 1, !dbg !2496
	store i32  %83, i32* %.x31746.addr, align 4, !tbaa !1401, !dbg !2496
	%84 = icmp sgt i32  %83, 0, !dbg !2496
	br i1  %84, label %L..inline.13277, label %L..inline.13278, !dbg !2496
L..inline.13278:
	%85 = load double, double* %..inline.addr.190, align 8, !tbaa !1403, !dbg !2496
	%86 = load double, double* %..inline.addr.180, align 8, !tbaa !1403, !dbg !2496
	%87 = fsub double  %85,  %86, !dbg !2496
	%88 = load double, double* %..inline.addr.250, align 8, !tbaa !1403, !dbg !2496
	%89 = fmul double  %87,  %88, !dbg !2496
	%90 = load i32, i32* %..inline.addr.5, align 4, !tbaa !1401, !dbg !2496
	%91 = sitofp i32  %90 to double, !dbg !2496
	%92 = fdiv double  %89,  %91, !dbg !2496
	%93 = load double*, double** %..inline.addr.200, align 8, !tbaa !1398, !dbg !2496
	%94 = load double, double*  %93, align 8, !tbaa !1399, !dbg !2496
	%95 = fadd double  %92,  %94, !dbg !2496
	%96 = fmul double  %95,  5.00000000000000000E-1, !dbg !2496
	store double  %96, double*  %93, align 8, !tbaa !1399, !dbg !2496
	%97 = mul i32  %90, 2, !dbg !2496
