	.text
	.file	"quadr.ll"
	.file	1 "/home/talgat/vlasiator/backgroundfield/quadr.cpp"
	.section	.rodata.cst8,"aM",@progbits,8
	.p2align	3               # -- Begin function _Z14Romberg_simpleRK11T1DFunctionddd
.LCPI0_0:
	.quad	4602678819172646912     # double 0.5
.LCPI0_3:
	.quad	4598175219545276416     # double 0.25
	.section	.rodata.cst16,"aM",@progbits,16
	.p2align	4
.LCPI0_1:
	.quad	-9223372036854775808    # double -0
	.quad	-9223372036854775808    # double -0
.LCPI0_2:
	.quad	9223372036854775807     # double NaN
	.quad	9223372036854775807     # double NaN
	.text
	.globl	_Z14Romberg_simpleRK11T1DFunctionddd
	.p2align	4, 0x90
	.type	_Z14Romberg_simpleRK11T1DFunctionddd,@function
_Z14Romberg_simpleRK11T1DFunctionddd:   # @_Z14Romberg_simpleRK11T1DFunctionddd
.Lfunc_begin0:
	.loc	1 156 0                 # backgroundfield/quadr.cpp:156:0
	.cfi_startproc
# %bb.0:                                # %L.entry
	#DEBUG_VALUE: Romberg_simple:func <- $rdi
	#DEBUG_VALUE: Romberg_simple:a <- $xmm0
	#DEBUG_VALUE: Romberg_simple:b <- $xmm1
	#DEBUG_VALUE: Romberg_simple:absacc <- $xmm2
	pushq	%rbp
	.cfi_def_cfa_offset 16
	.cfi_offset %rbp, -16
	movq	%rsp, %rbp
	.cfi_def_cfa_register %rbp
	pushq	%r15
	pushq	%r14
	pushq	%r13
	pushq	%r12
	pushq	%rbx
	subq	$600, %rsp              # imm = 0x258
	.cfi_offset %rbx, -56
	.cfi_offset %r12, -48
	.cfi_offset %r13, -40
	.cfi_offset %r14, -32
	.cfi_offset %r15, -24
	vmovsd	%xmm2, -160(%rbp)       # 8-byte Spill
	movq	%rdi, %r13
.Ltmp0:
	#DEBUG_VALUE: absacc <- undef
	#DEBUG_VALUE: func <- undef
	movabsq	$4607182418800017408, %rax # imm = 0x3FF0000000000000
.Ltmp1:
	#DEBUG_VALUE: it <- 0
	#DEBUG_VALUE: b <- $xmm1
	#DEBUG_VALUE: a <- $xmm0
	#DEBUG_VALUE: Romberg_simple:absacc <- [DW_OP_constu 160, DW_OP_minus] [$rbp+0]
	#DEBUG_VALUE: Romberg_simple:b <- $xmm1
	#DEBUG_VALUE: Romberg_simple:a <- $xmm0
	#DEBUG_VALUE: Romberg_simple:func <- $r13
	.loc	1 162 1 prologue_end    # backgroundfield/quadr.cpp:162:1
	movq	%rax, -240(%rbp)
.Ltmp2:
	#DEBUG_VALUE: j <- 1
	#DEBUG_VALUE: dresult <- 0.000000e+00
	.loc	1 164 1                 # backgroundfield/quadr.cpp:164:1
	leaq	-304(%rbp), %rcx
	leaq	-232(%rbp), %rax
	movq	%rax, -96(%rbp)         # 8-byte Spill
	vmovsd	%xmm1, -144(%rbp)       # 8-byte Spill
.Ltmp3:
	#DEBUG_VALUE: b <- [DW_OP_constu 144, DW_OP_minus] [$rbp+0]
	#DEBUG_VALUE: Romberg_simple:b <- [DW_OP_constu 144, DW_OP_minus] [$rbp+0]
	.loc	1 0 1 is_stmt 0         # backgroundfield/quadr.cpp:0:1
	vmovsd	%xmm0, -88(%rbp)        # 8-byte Spill
.Ltmp4:
	#DEBUG_VALUE: a <- [DW_OP_constu 88, DW_OP_minus] [$rbp+0]
	#DEBUG_VALUE: Romberg_simple:a <- [DW_OP_constu 88, DW_OP_minus] [$rbp+0]
	vsubsd	%xmm0, %xmm1, %xmm0
	vmovsd	%xmm0, -80(%rbp)        # 8-byte Spill
.Ltmp5:
	vmulsd	.LCPI0_0(%rip), %xmm0, %xmm0
	vmovsd	%xmm0, -136(%rbp)       # 8-byte Spill
	xorl	%ebx, %ebx
	vxorpd	%xmm0, %xmm0, %xmm0
	vmovapd	%xmm0, -128(%rbp)       # 16-byte Spill
	movl	$1, %r14d
	xorl	%r15d, %r15d
.Ltmp6:
	.p2align	4, 0x90
.LBB0_1:                                # %L.B0033
                                        # =>This Loop Header: Depth=1
                                        #     Child Loop BB0_6 Depth 2
	#DEBUG_VALUE: Romberg_simple:a <- [DW_OP_constu 88, DW_OP_minus] [$rbp+0]
	#DEBUG_VALUE: a <- [DW_OP_constu 88, DW_OP_minus] [$rbp+0]
	#DEBUG_VALUE: Romberg_simple:b <- [DW_OP_constu 144, DW_OP_minus] [$rbp+0]
	#DEBUG_VALUE: b <- [DW_OP_constu 144, DW_OP_minus] [$rbp+0]
	#DEBUG_VALUE: Romberg_simple:func <- $r13
	#DEBUG_VALUE: Romberg_simple:absacc <- [DW_OP_constu 160, DW_OP_minus] [$rbp+0]
	#DEBUG_VALUE: it <- $r15d
	#DEBUG_VALUE: dresult <- [DW_OP_constu 128, DW_OP_minus] [$rbp+0]
	#DEBUG_VALUE: j <- $r14
	.loc	1 165 1 is_stmt 1       # backgroundfield/quadr.cpp:165:1
	leaq	1(%rbx), %rax
	cmpl	$3, %eax
	movq	%rax, -168(%rbp)        # 8-byte Spill
	movl	%eax, %r12d
	movl	$3, %eax
	cmovgeq	%rax, %r12
	cmpq	$1, %r14
	movq	%rcx, -56(%rbp)         # 8-byte Spill
	jne	.LBB0_3
.Ltmp7:
# %bb.2:                                # %L..inline.10302.thread
                                        #   in Loop: Header=BB0_1 Depth=1
	#DEBUG_VALUE: j <- $r14
	#DEBUG_VALUE: dresult <- [DW_OP_constu 128, DW_OP_minus] [$rbp+0]
	#DEBUG_VALUE: it <- $r15d
	#DEBUG_VALUE: Romberg_simple:a <- [DW_OP_constu 88, DW_OP_minus] [$rbp+0]
	#DEBUG_VALUE: a <- [DW_OP_constu 88, DW_OP_minus] [$rbp+0]
	#DEBUG_VALUE: Romberg_simple:b <- [DW_OP_constu 144, DW_OP_minus] [$rbp+0]
	#DEBUG_VALUE: b <- [DW_OP_constu 144, DW_OP_minus] [$rbp+0]
	#DEBUG_VALUE: Romberg_simple:func <- $r13
	#DEBUG_VALUE: Romberg_simple:absacc <- [DW_OP_constu 160, DW_OP_minus] [$rbp+0]
	.loc	1 49 1                  # backgroundfield/quadr.cpp:49:1
	movq	(%r13), %rax
	movq	%r13, %rdi
	vmovsd	-144(%rbp), %xmm0       # 8-byte Reload
                                        # xmm0 = mem[0],zero
	callq	*(%rax)
	vmovsd	%xmm0, -48(%rbp)        # 8-byte Spill
	movq	(%r13), %rax
	movq	%r13, %rdi
	vmovsd	-88(%rbp), %xmm0        # 8-byte Reload
                                        # xmm0 = mem[0],zero
	callq	*(%rax)
	vaddsd	-48(%rbp), %xmm0, %xmm0 # 8-byte Folded Reload
	vmulsd	-136(%rbp), %xmm0, %xmm0 # 8-byte Folded Reload
	vmovsd	%xmm0, -320(%rbp,%r14,8)
	movl	$1, -48(%rbp)           # 4-byte Folded Spill
.Ltmp8:
	#DEBUG_VALUE: it <- 1
	.loc	1 0 1 is_stmt 0         # backgroundfield/quadr.cpp:0:1
	jmp	.LBB0_8
.Ltmp9:
	.p2align	4, 0x90
.LBB0_3:                                # %L..inline.10296
                                        #   in Loop: Header=BB0_1 Depth=1
	#DEBUG_VALUE: j <- $r14
	#DEBUG_VALUE: dresult <- [DW_OP_constu 128, DW_OP_minus] [$rbp+0]
	#DEBUG_VALUE: it <- $r15d
	#DEBUG_VALUE: Romberg_simple:a <- [DW_OP_constu 88, DW_OP_minus] [$rbp+0]
	#DEBUG_VALUE: a <- [DW_OP_constu 88, DW_OP_minus] [$rbp+0]
	#DEBUG_VALUE: Romberg_simple:b <- [DW_OP_constu 144, DW_OP_minus] [$rbp+0]
	#DEBUG_VALUE: b <- [DW_OP_constu 144, DW_OP_minus] [$rbp+0]
	#DEBUG_VALUE: Romberg_simple:func <- $r13
	#DEBUG_VALUE: Romberg_simple:absacc <- [DW_OP_constu 160, DW_OP_minus] [$rbp+0]
	.loc	1 52 1 is_stmt 1        # backgroundfield/quadr.cpp:52:1
	vcvtsi2sd	%r15d, %xmm6, %xmm1
	.loc	1 56 1                  # backgroundfield/quadr.cpp:56:1
	testl	%r15d, %r15d
	movq	%rbx, -112(%rbp)        # 8-byte Spill
	vmovsd	%xmm1, -152(%rbp)       # 8-byte Spill
	jle	.LBB0_4
.Ltmp10:
# %bb.5:                                # %L.B0204
                                        #   in Loop: Header=BB0_1 Depth=1
	#DEBUG_VALUE: j <- $r14
	#DEBUG_VALUE: dresult <- [DW_OP_constu 128, DW_OP_minus] [$rbp+0]
	#DEBUG_VALUE: it <- $r15d
	#DEBUG_VALUE: Romberg_simple:a <- [DW_OP_constu 88, DW_OP_minus] [$rbp+0]
	#DEBUG_VALUE: a <- [DW_OP_constu 88, DW_OP_minus] [$rbp+0]
	#DEBUG_VALUE: Romberg_simple:b <- [DW_OP_constu 144, DW_OP_minus] [$rbp+0]
	#DEBUG_VALUE: b <- [DW_OP_constu 144, DW_OP_minus] [$rbp+0]
	#DEBUG_VALUE: Romberg_simple:func <- $r13
	#DEBUG_VALUE: Romberg_simple:absacc <- [DW_OP_constu 160, DW_OP_minus] [$rbp+0]
	.loc	1 0 1 is_stmt 0         # backgroundfield/quadr.cpp:0:1
	vmovsd	-80(%rbp), %xmm0        # 8-byte Reload
                                        # xmm0 = mem[0],zero
	vdivsd	%xmm1, %xmm0, %xmm1
	vmovsd	-88(%rbp), %xmm0        # 8-byte Reload
                                        # xmm0 = mem[0],zero
	vmovsd	%xmm1, -64(%rbp)        # 8-byte Spill
	.loc	1 53 1 is_stmt 1        # backgroundfield/quadr.cpp:53:1
	vfmadd231sd	.LCPI0_0(%rip), %xmm1, %xmm0 # xmm0 = (xmm1 * mem) + xmm0
	vxorpd	%xmm1, %xmm1, %xmm1
	.loc	1 56 1                  # backgroundfield/quadr.cpp:56:1
	movl	%r15d, %ebx
.Ltmp11:
	.p2align	4, 0x90
.LBB0_6:                                # %L..inline.10310
                                        #   Parent Loop BB0_1 Depth=1
                                        # =>  This Inner Loop Header: Depth=2
	#DEBUG_VALUE: j <- $r14
	#DEBUG_VALUE: dresult <- [DW_OP_constu 128, DW_OP_minus] [$rbp+0]
	#DEBUG_VALUE: it <- $r15d
	#DEBUG_VALUE: Romberg_simple:a <- [DW_OP_constu 88, DW_OP_minus] [$rbp+0]
	#DEBUG_VALUE: a <- [DW_OP_constu 88, DW_OP_minus] [$rbp+0]
	#DEBUG_VALUE: Romberg_simple:b <- [DW_OP_constu 144, DW_OP_minus] [$rbp+0]
	#DEBUG_VALUE: b <- [DW_OP_constu 144, DW_OP_minus] [$rbp+0]
	#DEBUG_VALUE: Romberg_simple:func <- $r13
	#DEBUG_VALUE: Romberg_simple:absacc <- [DW_OP_constu 160, DW_OP_minus] [$rbp+0]
	.loc	1 0 1 is_stmt 0         # backgroundfield/quadr.cpp:0:1
	vmovsd	%xmm0, -72(%rbp)        # 8-byte Spill
	vmovsd	%xmm1, -48(%rbp)        # 8-byte Spill
	.loc	1 57 1 is_stmt 1        # backgroundfield/quadr.cpp:57:1
	movq	(%r13), %rax
	movq	%r13, %rdi
	callq	*(%rax)
	vmovsd	-48(%rbp), %xmm1        # 8-byte Reload
                                        # xmm1 = mem[0],zero
	vaddsd	%xmm0, %xmm1, %xmm1
	vmovsd	%xmm1, -48(%rbp)        # 8-byte Spill
	vmovsd	-72(%rbp), %xmm0        # 8-byte Reload
                                        # xmm0 = mem[0],zero
	vmovsd	-48(%rbp), %xmm1        # 8-byte Reload
                                        # xmm1 = mem[0],zero
	vaddsd	-64(%rbp), %xmm0, %xmm0 # 8-byte Folded Reload
	.loc	1 59 1                  # backgroundfield/quadr.cpp:59:1
	decl	%ebx
	jg	.LBB0_6
	jmp	.LBB0_7
.Ltmp12:
.LBB0_4:                                #   in Loop: Header=BB0_1 Depth=1
	#DEBUG_VALUE: j <- $r14
	#DEBUG_VALUE: dresult <- [DW_OP_constu 128, DW_OP_minus] [$rbp+0]
	#DEBUG_VALUE: it <- $r15d
	#DEBUG_VALUE: Romberg_simple:a <- [DW_OP_constu 88, DW_OP_minus] [$rbp+0]
	#DEBUG_VALUE: a <- [DW_OP_constu 88, DW_OP_minus] [$rbp+0]
	#DEBUG_VALUE: Romberg_simple:b <- [DW_OP_constu 144, DW_OP_minus] [$rbp+0]
	#DEBUG_VALUE: b <- [DW_OP_constu 144, DW_OP_minus] [$rbp+0]
	#DEBUG_VALUE: Romberg_simple:func <- $r13
	#DEBUG_VALUE: Romberg_simple:absacc <- [DW_OP_constu 160, DW_OP_minus] [$rbp+0]
	.loc	1 0 1 is_stmt 0         # backgroundfield/quadr.cpp:0:1
	vxorpd	%xmm1, %xmm1, %xmm1
.Ltmp13:
.LBB0_7:                                # %L..inline.10302
                                        #   in Loop: Header=BB0_1 Depth=1
	#DEBUG_VALUE: j <- $r14
	#DEBUG_VALUE: dresult <- [DW_OP_constu 128, DW_OP_minus] [$rbp+0]
	#DEBUG_VALUE: it <- $r15d
	#DEBUG_VALUE: Romberg_simple:a <- [DW_OP_constu 88, DW_OP_minus] [$rbp+0]
	#DEBUG_VALUE: a <- [DW_OP_constu 88, DW_OP_minus] [$rbp+0]
	#DEBUG_VALUE: Romberg_simple:b <- [DW_OP_constu 144, DW_OP_minus] [$rbp+0]
	#DEBUG_VALUE: b <- [DW_OP_constu 144, DW_OP_minus] [$rbp+0]
	#DEBUG_VALUE: Romberg_simple:func <- $r13
	#DEBUG_VALUE: Romberg_simple:absacc <- [DW_OP_constu 160, DW_OP_minus] [$rbp+0]
	.loc	1 59 1                  # backgroundfield/quadr.cpp:59:1
	vmulsd	-80(%rbp), %xmm1, %xmm0 # 8-byte Folded Reload
	vdivsd	-152(%rbp), %xmm0, %xmm0 # 8-byte Folded Reload
	vaddsd	-320(%rbp,%r14,8), %xmm0, %xmm0
	vmulsd	.LCPI0_0(%rip), %xmm0, %xmm0
	vmovsd	%xmm0, -320(%rbp,%r14,8)
	.loc	1 60 1 is_stmt 1        # backgroundfield/quadr.cpp:60:1
	addl	%r15d, %r15d
.Ltmp14:
	#DEBUG_VALUE: it <- $r15d
	.loc	1 0 1 is_stmt 0         # backgroundfield/quadr.cpp:0:1
	movl	%r15d, -48(%rbp)        # 4-byte Spill
.Ltmp15:
	#DEBUG_VALUE: it <- [DW_OP_constu 48, DW_OP_minus] [$rbp+0]
	#DEBUG_VALUE: it <- [DW_OP_constu 48, DW_OP_minus] [$rbp+0]
	movq	-112(%rbp), %rbx        # 8-byte Reload
.Ltmp16:
.LBB0_8:                                # %L.B0205
                                        #   in Loop: Header=BB0_1 Depth=1
	#DEBUG_VALUE: j <- $r14
	#DEBUG_VALUE: dresult <- [DW_OP_constu 128, DW_OP_minus] [$rbp+0]
	#DEBUG_VALUE: Romberg_simple:a <- [DW_OP_constu 88, DW_OP_minus] [$rbp+0]
	#DEBUG_VALUE: a <- [DW_OP_constu 88, DW_OP_minus] [$rbp+0]
	#DEBUG_VALUE: Romberg_simple:b <- [DW_OP_constu 144, DW_OP_minus] [$rbp+0]
	#DEBUG_VALUE: b <- [DW_OP_constu 144, DW_OP_minus] [$rbp+0]
	#DEBUG_VALUE: Romberg_simple:func <- $r13
	#DEBUG_VALUE: Romberg_simple:absacc <- [DW_OP_constu 160, DW_OP_minus] [$rbp+0]
	.loc	1 168 1 is_stmt 1       # backgroundfield/quadr.cpp:168:1
	cmpq	$3, %r14
	movl	$3, %r15d
	cmovbq	%r14, %r15
	.loc	1 169 1                 # backgroundfield/quadr.cpp:169:1
	movl	%r14d, %eax
	subl	%r15d, %eax
	cltq
	leaq	-312(,%rax,8), %rcx
	addq	%rbp, %rcx
.Ltmp17:
	.loc	1 87 1                  # backgroundfield/quadr.cpp:87:1
	testl	%r15d, %r15d
	je	.LBB0_9
.Ltmp18:
# %bb.10:                               # %L.B0206
                                        #   in Loop: Header=BB0_1 Depth=1
	#DEBUG_VALUE: j <- $r14
	#DEBUG_VALUE: dresult <- [DW_OP_constu 128, DW_OP_minus] [$rbp+0]
	#DEBUG_VALUE: Romberg_simple:a <- [DW_OP_constu 88, DW_OP_minus] [$rbp+0]
	#DEBUG_VALUE: a <- [DW_OP_constu 88, DW_OP_minus] [$rbp+0]
	#DEBUG_VALUE: Romberg_simple:b <- [DW_OP_constu 144, DW_OP_minus] [$rbp+0]
	#DEBUG_VALUE: b <- [DW_OP_constu 144, DW_OP_minus] [$rbp+0]
	#DEBUG_VALUE: Romberg_simple:func <- $r13
	#DEBUG_VALUE: Romberg_simple:absacc <- [DW_OP_constu 160, DW_OP_minus] [$rbp+0]
	.loc	1 0 1 is_stmt 0         # backgroundfield/quadr.cpp:0:1
	movq	%rcx, -72(%rbp)         # 8-byte Spill
	leaq	-304(,%rbx,8), %rbx
	addq	%rbp, %rbx
	shlq	$3, %r12
	subq	%r12, %rbx
	movq	%rax, -64(%rbp)         # 8-byte Spill
.Ltmp19:
	.loc	1 87 1                  # backgroundfield/quadr.cpp:87:1
	vmovsd	-240(%rbp,%rax,8), %xmm0 # xmm0 = mem[0],zero
	vmovapd	%xmm0, -112(%rbp)       # 16-byte Spill
	leaq	-632(%rbp), %rdi
	movq	%rbx, %rsi
	movq	%r12, %rdx
	callq	memcpy
	leaq	-472(%rbp), %rdi
	movq	%rbx, %rsi
	movq	%r12, %rdx
	callq	memcpy
	xorl	%eax, %eax
	cmpq	$2, %r15
	vmovapd	.LCPI0_2(%rip), %xmm5   # xmm5 = [NaN,NaN]
	jb	.LBB0_12
.Ltmp20:
# %bb.11:                               # %L.B0197.L.B0197_crit_edge.lr.ph
                                        #   in Loop: Header=BB0_1 Depth=1
	#DEBUG_VALUE: j <- $r14
	#DEBUG_VALUE: dresult <- [DW_OP_constu 128, DW_OP_minus] [$rbp+0]
	#DEBUG_VALUE: Romberg_simple:a <- [DW_OP_constu 88, DW_OP_minus] [$rbp+0]
	#DEBUG_VALUE: a <- [DW_OP_constu 88, DW_OP_minus] [$rbp+0]
	#DEBUG_VALUE: Romberg_simple:b <- [DW_OP_constu 144, DW_OP_minus] [$rbp+0]
	#DEBUG_VALUE: b <- [DW_OP_constu 144, DW_OP_minus] [$rbp+0]
	#DEBUG_VALUE: Romberg_simple:func <- $r13
	#DEBUG_VALUE: Romberg_simple:absacc <- [DW_OP_constu 160, DW_OP_minus] [$rbp+0]
	.loc	1 0 1                   # backgroundfield/quadr.cpp:0:1
	vmovapd	-112(%rbp), %xmm0       # 16-byte Reload
	.loc	1 87 1                  # backgroundfield/quadr.cpp:87:1
	vxorpd	.LCPI0_1(%rip), %xmm0, %xmm0
	vmovddup	%xmm0, %xmm0    # xmm0 = xmm0[0,0]
	vandpd	%xmm5, %xmm0, %xmm0
	vpermilpd	$1, %xmm0, %xmm1 # xmm1 = xmm0[1,0]
	vminsd	%xmm1, %xmm0, %xmm0
	movq	-64(%rbp), %rcx         # 8-byte Reload
	vmovsd	-232(%rbp,%rcx,8), %xmm1 # xmm1 = mem[0],zero
	vandpd	%xmm5, %xmm1, %xmm1
	xorl	%eax, %eax
	vucomisd	%xmm1, %xmm0
	seta	%al
	cmpq	$2, %r15
	jbe	.LBB0_12
.Ltmp21:
# %bb.19:                               # %L.B0197.L.B0197_crit_edge.1
                                        #   in Loop: Header=BB0_1 Depth=1
	#DEBUG_VALUE: j <- $r14
	#DEBUG_VALUE: dresult <- [DW_OP_constu 128, DW_OP_minus] [$rbp+0]
	#DEBUG_VALUE: Romberg_simple:a <- [DW_OP_constu 88, DW_OP_minus] [$rbp+0]
	#DEBUG_VALUE: a <- [DW_OP_constu 88, DW_OP_minus] [$rbp+0]
	#DEBUG_VALUE: Romberg_simple:b <- [DW_OP_constu 144, DW_OP_minus] [$rbp+0]
	#DEBUG_VALUE: b <- [DW_OP_constu 144, DW_OP_minus] [$rbp+0]
	#DEBUG_VALUE: Romberg_simple:func <- $r13
	#DEBUG_VALUE: Romberg_simple:absacc <- [DW_OP_constu 160, DW_OP_minus] [$rbp+0]
	vminsd	%xmm0, %xmm1, %xmm0
	vmovsd	-224(%rbp,%rcx,8), %xmm1 # xmm1 = mem[0],zero
	vandpd	%xmm5, %xmm1, %xmm1
	vucomisd	%xmm1, %xmm0
	movl	$2, %ecx
	cmoval	%ecx, %eax
.Ltmp22:
.LBB0_12:                               # %L.B0198
                                        #   in Loop: Header=BB0_1 Depth=1
	#DEBUG_VALUE: j <- $r14
	#DEBUG_VALUE: dresult <- [DW_OP_constu 128, DW_OP_minus] [$rbp+0]
	#DEBUG_VALUE: Romberg_simple:a <- [DW_OP_constu 88, DW_OP_minus] [$rbp+0]
	#DEBUG_VALUE: a <- [DW_OP_constu 88, DW_OP_minus] [$rbp+0]
	#DEBUG_VALUE: Romberg_simple:b <- [DW_OP_constu 144, DW_OP_minus] [$rbp+0]
	#DEBUG_VALUE: b <- [DW_OP_constu 144, DW_OP_minus] [$rbp+0]
	#DEBUG_VALUE: Romberg_simple:func <- $r13
	#DEBUG_VALUE: Romberg_simple:absacc <- [DW_OP_constu 160, DW_OP_minus] [$rbp+0]
	.loc	1 83 1 is_stmt 1        # backgroundfield/quadr.cpp:83:1
	movl	%eax, %ecx
	movq	-72(%rbp), %rdx         # 8-byte Reload
	vmovsd	(%rdx,%rcx,8), %xmm0    # xmm0 = mem[0],zero
.Ltmp23:
	#DEBUG_VALUE: result <- $xmm0
	.loc	1 87 1                  # backgroundfield/quadr.cpp:87:1
	cmpl	$2, %r15d
	jb	.LBB0_15
.Ltmp24:
# %bb.13:                               # %L.B0208
                                        #   in Loop: Header=BB0_1 Depth=1
	#DEBUG_VALUE: result <- $xmm0
	#DEBUG_VALUE: j <- $r14
	#DEBUG_VALUE: dresult <- [DW_OP_constu 128, DW_OP_minus] [$rbp+0]
	#DEBUG_VALUE: Romberg_simple:a <- [DW_OP_constu 88, DW_OP_minus] [$rbp+0]
	#DEBUG_VALUE: a <- [DW_OP_constu 88, DW_OP_minus] [$rbp+0]
	#DEBUG_VALUE: Romberg_simple:b <- [DW_OP_constu 144, DW_OP_minus] [$rbp+0]
	#DEBUG_VALUE: b <- [DW_OP_constu 144, DW_OP_minus] [$rbp+0]
	#DEBUG_VALUE: Romberg_simple:func <- $r13
	#DEBUG_VALUE: Romberg_simple:absacc <- [DW_OP_constu 160, DW_OP_minus] [$rbp+0]
	vmovsd	-464(%rbp), %xmm1       # xmm1 = mem[0],zero
	vsubsd	-632(%rbp), %xmm1, %xmm1
	#DEBUG_VALUE: result <- $xmm0
	movq	-64(%rbp), %rbx         # 8-byte Reload
	vmovsd	-240(%rbp,%rbx,8), %xmm2 # xmm2 = mem[0],zero
	vmovsd	-232(%rbp,%rbx,8), %xmm3 # xmm3 = mem[0],zero
	vsubsd	%xmm3, %xmm2, %xmm4
	vdivsd	%xmm4, %xmm1, %xmm1
	vmulsd	%xmm1, %xmm3, %xmm3
	vmovsd	%xmm3, -632(%rbp)
.Ltmp25:
	.loc	1 86 1                  # backgroundfield/quadr.cpp:86:1
	decl	%eax
.Ltmp26:
	.loc	1 87 1                  # backgroundfield/quadr.cpp:87:1
	vmulsd	%xmm1, %xmm2, %xmm1
	vmovsd	%xmm1, -472(%rbp)
.Ltmp27:
	.loc	1 0 0 is_stmt 0         # backgroundfield/quadr.cpp:0:0
	leaq	-1(%r15), %r8
.Ltmp28:
	.loc	1 87 1                  # backgroundfield/quadr.cpp:87:1
	cmpq	$2, %r15
	jle	.LBB0_14
.Ltmp29:
# %bb.20:                               # %L.B0201.1
                                        #   in Loop: Header=BB0_1 Depth=1
	#DEBUG_VALUE: result <- $xmm0
	#DEBUG_VALUE: j <- $r14
	#DEBUG_VALUE: dresult <- [DW_OP_constu 128, DW_OP_minus] [$rbp+0]
	#DEBUG_VALUE: Romberg_simple:a <- [DW_OP_constu 88, DW_OP_minus] [$rbp+0]
	#DEBUG_VALUE: a <- [DW_OP_constu 88, DW_OP_minus] [$rbp+0]
	#DEBUG_VALUE: Romberg_simple:b <- [DW_OP_constu 144, DW_OP_minus] [$rbp+0]
	#DEBUG_VALUE: b <- [DW_OP_constu 144, DW_OP_minus] [$rbp+0]
	#DEBUG_VALUE: Romberg_simple:func <- $r13
	#DEBUG_VALUE: Romberg_simple:absacc <- [DW_OP_constu 160, DW_OP_minus] [$rbp+0]
	vmovsd	-456(%rbp), %xmm1       # xmm1 = mem[0],zero
	vsubsd	-624(%rbp), %xmm1, %xmm1
	vmovsd	-232(%rbp,%rbx,8), %xmm2 # xmm2 = mem[0],zero
	vmovsd	-224(%rbp,%rbx,8), %xmm3 # xmm3 = mem[0],zero
	vsubsd	%xmm3, %xmm2, %xmm4
	vdivsd	%xmm4, %xmm1, %xmm1
	vmulsd	%xmm1, %xmm3, %xmm3
	vmovsd	%xmm3, -624(%rbp)
	vmulsd	%xmm1, %xmm2, %xmm1
	vmovsd	%xmm1, -464(%rbp)
.Ltmp30:
.LBB0_14:                               # %L.B0202
                                        #   in Loop: Header=BB0_1 Depth=1
	#DEBUG_VALUE: result <- $xmm0
	#DEBUG_VALUE: j <- $r14
	#DEBUG_VALUE: dresult <- [DW_OP_constu 128, DW_OP_minus] [$rbp+0]
	#DEBUG_VALUE: Romberg_simple:a <- [DW_OP_constu 88, DW_OP_minus] [$rbp+0]
	#DEBUG_VALUE: a <- [DW_OP_constu 88, DW_OP_minus] [$rbp+0]
	#DEBUG_VALUE: Romberg_simple:b <- [DW_OP_constu 144, DW_OP_minus] [$rbp+0]
	#DEBUG_VALUE: b <- [DW_OP_constu 144, DW_OP_minus] [$rbp+0]
	#DEBUG_VALUE: Romberg_simple:func <- $r13
	#DEBUG_VALUE: Romberg_simple:absacc <- [DW_OP_constu 160, DW_OP_minus] [$rbp+0]
	leal	(%rax,%rax), %esi
	addl	$2, %esi
	leal	-1(%r15), %edi
	xorl	%edx, %edx
	cmpl	%edi, %esi
	setge	%r9b
	movslq	%eax, %rsi
	leaq	-632(%rbp,%rsi,8), %rdi
	leaq	-464(%rbp), %rcx
	leaq	(%rcx,%rsi,8), %rsi
	cmovgeq	%rdi, %rsi
	vmovsd	(%rsi), %xmm1           # xmm1 = mem[0],zero
.Ltmp31:
	#DEBUG_VALUE: dresult <- $xmm1
	.loc	1 0 1                   # backgroundfield/quadr.cpp:0:1
	vmovapd	%xmm1, -128(%rbp)       # 16-byte Spill
.Ltmp32:
	#DEBUG_VALUE: dresult <- [DW_OP_constu 128, DW_OP_minus] [$rbp+0]
	.loc	1 87 1                  # backgroundfield/quadr.cpp:87:1
	vaddsd	%xmm1, %xmm0, %xmm0
.Ltmp33:
	#DEBUG_VALUE: result <- $xmm0
	cmpq	$1, %r8
	jbe	.LBB0_15
.Ltmp34:
# %bb.21:                               # %L.B0199.1
                                        #   in Loop: Header=BB0_1 Depth=1
	#DEBUG_VALUE: result <- $xmm0
	#DEBUG_VALUE: j <- $r14
	#DEBUG_VALUE: dresult <- [DW_OP_constu 128, DW_OP_minus] [$rbp+0]
	#DEBUG_VALUE: Romberg_simple:a <- [DW_OP_constu 88, DW_OP_minus] [$rbp+0]
	#DEBUG_VALUE: a <- [DW_OP_constu 88, DW_OP_minus] [$rbp+0]
	#DEBUG_VALUE: Romberg_simple:b <- [DW_OP_constu 144, DW_OP_minus] [$rbp+0]
	#DEBUG_VALUE: b <- [DW_OP_constu 144, DW_OP_minus] [$rbp+0]
	#DEBUG_VALUE: Romberg_simple:func <- $r13
	#DEBUG_VALUE: Romberg_simple:absacc <- [DW_OP_constu 160, DW_OP_minus] [$rbp+0]
	.loc	1 0 0                   # backgroundfield/quadr.cpp:0:0
	movb	%r9b, %dl
	subl	%edx, %eax
	#DEBUG_VALUE: result <- $xmm0
.Ltmp35:
	.loc	1 87 1                  # backgroundfield/quadr.cpp:87:1
	cmpl	$3, %r15d
	jne	.LBB0_23
.Ltmp36:
# %bb.22:                               # %L.B0201.159
                                        #   in Loop: Header=BB0_1 Depth=1
	#DEBUG_VALUE: result <- $xmm0
	#DEBUG_VALUE: j <- $r14
	#DEBUG_VALUE: dresult <- [DW_OP_constu 128, DW_OP_minus] [$rbp+0]
	#DEBUG_VALUE: Romberg_simple:a <- [DW_OP_constu 88, DW_OP_minus] [$rbp+0]
	#DEBUG_VALUE: a <- [DW_OP_constu 88, DW_OP_minus] [$rbp+0]
	#DEBUG_VALUE: Romberg_simple:b <- [DW_OP_constu 144, DW_OP_minus] [$rbp+0]
	#DEBUG_VALUE: b <- [DW_OP_constu 144, DW_OP_minus] [$rbp+0]
	#DEBUG_VALUE: Romberg_simple:func <- $r13
	#DEBUG_VALUE: Romberg_simple:absacc <- [DW_OP_constu 160, DW_OP_minus] [$rbp+0]
	vmovsd	-464(%rbp), %xmm1       # xmm1 = mem[0],zero
	vsubsd	-632(%rbp), %xmm1, %xmm1
	vmovsd	-240(%rbp,%rbx,8), %xmm2 # xmm2 = mem[0],zero
	vmovsd	-224(%rbp,%rbx,8), %xmm3 # xmm3 = mem[0],zero
	vsubsd	%xmm3, %xmm2, %xmm4
	vdivsd	%xmm4, %xmm1, %xmm1
	vmulsd	%xmm1, %xmm3, %xmm3
	vmovsd	%xmm3, -632(%rbp)
	vmulsd	%xmm1, %xmm2, %xmm1
	vmovsd	%xmm1, -472(%rbp)
.Ltmp37:
.LBB0_23:                               # %L.B0202.1
                                        #   in Loop: Header=BB0_1 Depth=1
	#DEBUG_VALUE: result <- $xmm0
	#DEBUG_VALUE: j <- $r14
	#DEBUG_VALUE: dresult <- [DW_OP_constu 128, DW_OP_minus] [$rbp+0]
	#DEBUG_VALUE: Romberg_simple:a <- [DW_OP_constu 88, DW_OP_minus] [$rbp+0]
	#DEBUG_VALUE: a <- [DW_OP_constu 88, DW_OP_minus] [$rbp+0]
	#DEBUG_VALUE: Romberg_simple:b <- [DW_OP_constu 144, DW_OP_minus] [$rbp+0]
	#DEBUG_VALUE: b <- [DW_OP_constu 144, DW_OP_minus] [$rbp+0]
	#DEBUG_VALUE: Romberg_simple:func <- $r13
	#DEBUG_VALUE: Romberg_simple:absacc <- [DW_OP_constu 160, DW_OP_minus] [$rbp+0]
	leal	(%rax,%rax), %ecx
	addl	$2, %ecx
	leal	-2(%r15), %edx
	cmpl	%edx, %ecx
	cltq
	leaq	-632(%rbp,%rax,8), %rcx
	leaq	-464(%rbp), %rdx
	leaq	(%rdx,%rax,8), %rax
	cmovgeq	%rcx, %rax
	vmovsd	(%rax), %xmm1           # xmm1 = mem[0],zero
.Ltmp38:
	#DEBUG_VALUE: dresult <- $xmm1
	.loc	1 0 1                   # backgroundfield/quadr.cpp:0:1
	vmovapd	%xmm1, -128(%rbp)       # 16-byte Spill
.Ltmp39:
	#DEBUG_VALUE: dresult <- [DW_OP_constu 128, DW_OP_minus] [$rbp+0]
	.loc	1 87 1                  # backgroundfield/quadr.cpp:87:1
	vaddsd	%xmm1, %xmm0, %xmm0
.Ltmp40:
	#DEBUG_VALUE: result <- $xmm0
.LBB0_15:                               #   in Loop: Header=BB0_1 Depth=1
	#DEBUG_VALUE: result <- $xmm0
	#DEBUG_VALUE: j <- $r14
	#DEBUG_VALUE: dresult <- [DW_OP_constu 128, DW_OP_minus] [$rbp+0]
	#DEBUG_VALUE: Romberg_simple:a <- [DW_OP_constu 88, DW_OP_minus] [$rbp+0]
	#DEBUG_VALUE: a <- [DW_OP_constu 88, DW_OP_minus] [$rbp+0]
	#DEBUG_VALUE: Romberg_simple:b <- [DW_OP_constu 144, DW_OP_minus] [$rbp+0]
	#DEBUG_VALUE: b <- [DW_OP_constu 144, DW_OP_minus] [$rbp+0]
	#DEBUG_VALUE: Romberg_simple:func <- $r13
	#DEBUG_VALUE: Romberg_simple:absacc <- [DW_OP_constu 160, DW_OP_minus] [$rbp+0]
	.loc	1 0 1                   # backgroundfield/quadr.cpp:0:1
	movq	-56(%rbp), %rcx         # 8-byte Reload
	jmp	.LBB0_16
.Ltmp41:
	.p2align	4, 0x90
.LBB0_9:                                # %L.B0198.thread
                                        #   in Loop: Header=BB0_1 Depth=1
	#DEBUG_VALUE: j <- $r14
	#DEBUG_VALUE: dresult <- [DW_OP_constu 128, DW_OP_minus] [$rbp+0]
	#DEBUG_VALUE: Romberg_simple:a <- [DW_OP_constu 88, DW_OP_minus] [$rbp+0]
	#DEBUG_VALUE: a <- [DW_OP_constu 88, DW_OP_minus] [$rbp+0]
	#DEBUG_VALUE: Romberg_simple:b <- [DW_OP_constu 144, DW_OP_minus] [$rbp+0]
	#DEBUG_VALUE: b <- [DW_OP_constu 144, DW_OP_minus] [$rbp+0]
	#DEBUG_VALUE: Romberg_simple:func <- $r13
	#DEBUG_VALUE: Romberg_simple:absacc <- [DW_OP_constu 160, DW_OP_minus] [$rbp+0]
	.loc	1 83 1 is_stmt 1        # backgroundfield/quadr.cpp:83:1
	vmovsd	(%rcx), %xmm0           # xmm0 = mem[0],zero
	movq	-56(%rbp), %rcx         # 8-byte Reload
	vmovapd	.LCPI0_2(%rip), %xmm5   # xmm5 = [NaN,NaN]
.Ltmp42:
.LBB0_16:                               # %L.B0200
                                        #   in Loop: Header=BB0_1 Depth=1
	#DEBUG_VALUE: j <- $r14
	#DEBUG_VALUE: dresult <- [DW_OP_constu 128, DW_OP_minus] [$rbp+0]
	#DEBUG_VALUE: Romberg_simple:a <- [DW_OP_constu 88, DW_OP_minus] [$rbp+0]
	#DEBUG_VALUE: a <- [DW_OP_constu 88, DW_OP_minus] [$rbp+0]
	#DEBUG_VALUE: Romberg_simple:b <- [DW_OP_constu 144, DW_OP_minus] [$rbp+0]
	#DEBUG_VALUE: b <- [DW_OP_constu 144, DW_OP_minus] [$rbp+0]
	#DEBUG_VALUE: Romberg_simple:func <- $r13
	#DEBUG_VALUE: Romberg_simple:absacc <- [DW_OP_constu 160, DW_OP_minus] [$rbp+0]
	.loc	1 0 1 is_stmt 0         # backgroundfield/quadr.cpp:0:1
	movl	-48(%rbp), %r15d        # 4-byte Reload
	#DEBUG_VALUE: dresult <- [DW_OP_constu 128, DW_OP_minus] [$rbp+0]
.Ltmp43:
	#DEBUG_VALUE: result <- $xmm0
	.loc	1 170 1 is_stmt 1       # backgroundfield/quadr.cpp:170:1
	vandpd	-128(%rbp), %xmm5, %xmm1 # 16-byte Folded Reload
	vmovsd	-160(%rbp), %xmm2       # 8-byte Reload
                                        # xmm2 = mem[0],zero
	vucomisd	%xmm1, %xmm2
	ja	.LBB0_18
.Ltmp44:
# %bb.17:                               # %L.B0035
                                        #   in Loop: Header=BB0_1 Depth=1
	#DEBUG_VALUE: result <- $xmm0
	#DEBUG_VALUE: j <- $r14
	#DEBUG_VALUE: dresult <- [DW_OP_constu 128, DW_OP_minus] [$rbp+0]
	#DEBUG_VALUE: Romberg_simple:a <- [DW_OP_constu 88, DW_OP_minus] [$rbp+0]
	#DEBUG_VALUE: a <- [DW_OP_constu 88, DW_OP_minus] [$rbp+0]
	#DEBUG_VALUE: Romberg_simple:b <- [DW_OP_constu 144, DW_OP_minus] [$rbp+0]
	#DEBUG_VALUE: b <- [DW_OP_constu 144, DW_OP_minus] [$rbp+0]
	#DEBUG_VALUE: Romberg_simple:func <- $r13
	#DEBUG_VALUE: Romberg_simple:absacc <- [DW_OP_constu 160, DW_OP_minus] [$rbp+0]
	#DEBUG_VALUE: dresult <- [DW_OP_constu 128, DW_OP_minus] [$rbp+0]
	#DEBUG_VALUE: result <- $xmm0
	.loc	1 172 1                 # backgroundfield/quadr.cpp:172:1
	movq	-8(%rcx), %rax
	movq	%rax, (%rcx)
	movq	-96(%rbp), %rax         # 8-byte Reload
	.loc	1 173 1                 # backgroundfield/quadr.cpp:173:1
	vmovsd	.LCPI0_3(%rip), %xmm1   # xmm1 = mem[0],zero
	vmulsd	-8(%rax), %xmm1, %xmm1
	vmovsd	%xmm1, (%rax)
	.loc	1 174 1                 # backgroundfield/quadr.cpp:174:1
	incq	%r14
.Ltmp45:
	#DEBUG_VALUE: j <- $r14
	.loc	1 164 1                 # backgroundfield/quadr.cpp:164:1
	addq	$8, %rcx
	addq	$8, %rax
	movq	%rax, -96(%rbp)         # 8-byte Spill
	movq	-168(%rbp), %rax        # 8-byte Reload
	movq	%rax, %rbx
	.loc	1 174 1                 # backgroundfield/quadr.cpp:174:1
	cmpq	$8, %rax
	jne	.LBB0_1
.Ltmp46:
.LBB0_18:                               # %L.N0005
	#DEBUG_VALUE: result <- $xmm0
	#DEBUG_VALUE: j <- $r14
	#DEBUG_VALUE: dresult <- [DW_OP_constu 128, DW_OP_minus] [$rbp+0]
	#DEBUG_VALUE: Romberg_simple:a <- [DW_OP_constu 88, DW_OP_minus] [$rbp+0]
	#DEBUG_VALUE: a <- [DW_OP_constu 88, DW_OP_minus] [$rbp+0]
	#DEBUG_VALUE: Romberg_simple:b <- [DW_OP_constu 144, DW_OP_minus] [$rbp+0]
	#DEBUG_VALUE: b <- [DW_OP_constu 144, DW_OP_minus] [$rbp+0]
	#DEBUG_VALUE: Romberg_simple:func <- $r13
	#DEBUG_VALUE: Romberg_simple:absacc <- [DW_OP_constu 160, DW_OP_minus] [$rbp+0]
	#DEBUG_VALUE: result <- $xmm0
	.loc	1 176 1                 # backgroundfield/quadr.cpp:176:1
	addq	$600, %rsp              # imm = 0x258
	popq	%rbx
	popq	%r12
	popq	%r13
.Ltmp47:
	popq	%r14
.Ltmp48:
	popq	%r15
	popq	%rbp
	.cfi_def_cfa %rsp, 8
	retq
.Ltmp49:
.Lfunc_end0:
	.size	_Z14Romberg_simpleRK11T1DFunctionddd, .Lfunc_end0-_Z14Romberg_simpleRK11T1DFunctionddd
	.cfi_endproc
                                        # -- End function
	.section	.rodata.cst8,"aM",@progbits,8
	.p2align	3               # -- Begin function _Z7RombergRK11T1DFunctionddd
.LCPI1_0:
	.quad	4602678819172646912     # double 0.5
.LCPI1_3:
	.quad	4158027847206421152     # double 1.0000000000000001E-30
.LCPI1_4:
	.quad	4598175219545276416     # double 0.25
	.section	.rodata.cst16,"aM",@progbits,16
	.p2align	4
.LCPI1_1:
	.quad	-9223372036854775808    # double -0
	.quad	-9223372036854775808    # double -0
.LCPI1_2:
	.quad	9223372036854775807     # double NaN
	.quad	9223372036854775807     # double NaN
	.text
	.globl	_Z7RombergRK11T1DFunctionddd
	.p2align	4, 0x90
	.type	_Z7RombergRK11T1DFunctionddd,@function
_Z7RombergRK11T1DFunctionddd:           # @_Z7RombergRK11T1DFunctionddd
.Lfunc_begin1:
	.loc	1 180 0                 # backgroundfield/quadr.cpp:180:0
	.cfi_startproc
# %bb.0:                                # %L.entry
	#DEBUG_VALUE: Romberg:func <- $rdi
	#DEBUG_VALUE: Romberg:a <- $xmm0
	#DEBUG_VALUE: Romberg:b <- $xmm1
	#DEBUG_VALUE: Romberg:absacc <- $xmm2
	pushq	%rbp
	.cfi_def_cfa_offset 16
	.cfi_offset %rbp, -16
	movq	%rsp, %rbp
	.cfi_def_cfa_register %rbp
	pushq	%r15
	pushq	%r14
	pushq	%r13
	pushq	%r12
	pushq	%rbx
	subq	$984, %rsp              # imm = 0x3D8
	.cfi_offset %rbx, -56
	.cfi_offset %r12, -48
	.cfi_offset %r13, -40
	.cfi_offset %r14, -32
	.cfi_offset %r15, -24
	vmovsd	%xmm2, -200(%rbp)       # 8-byte Spill
	movq	%rdi, %r12
.Ltmp50:
	#DEBUG_VALUE: absacc <- undef
	#DEBUG_VALUE: func <- undef
	movabsq	$4607182418800017408, %rax # imm = 0x3FF0000000000000
.Ltmp51:
	#DEBUG_VALUE: it <- 0
	#DEBUG_VALUE: b <- $xmm1
	#DEBUG_VALUE: a <- $xmm0
	#DEBUG_VALUE: Romberg:absacc <- [DW_OP_constu 200, DW_OP_minus] [$rbp+0]
	#DEBUG_VALUE: Romberg:b <- $xmm1
	#DEBUG_VALUE: Romberg:a <- $xmm0
	#DEBUG_VALUE: Romberg:func <- $r12
	.loc	1 187 1 prologue_end    # backgroundfield/quadr.cpp:187:1
	movq	%rax, -696(%rbp)
.Ltmp52:
	#DEBUG_VALUE: j <- 1
	#DEBUG_VALUE: dresult_pol <- 0.000000e+00
	.loc	1 190 1                 # backgroundfield/quadr.cpp:190:1
	leaq	-616(%rbp), %r14
	leaq	-688(%rbp), %rax
	vmovsd	%xmm1, -224(%rbp)       # 8-byte Spill
.Ltmp53:
	#DEBUG_VALUE: b <- [DW_OP_constu 224, DW_OP_minus] [$rbp+0]
	#DEBUG_VALUE: Romberg:b <- [DW_OP_constu 224, DW_OP_minus] [$rbp+0]
	.loc	1 0 1 is_stmt 0         # backgroundfield/quadr.cpp:0:1
	vmovsd	%xmm0, -144(%rbp)       # 8-byte Spill
.Ltmp54:
	#DEBUG_VALUE: a <- [DW_OP_constu 144, DW_OP_minus] [$rbp+0]
	#DEBUG_VALUE: Romberg:a <- [DW_OP_constu 144, DW_OP_minus] [$rbp+0]
	vsubsd	%xmm0, %xmm1, %xmm0
	vmovsd	%xmm0, -136(%rbp)       # 8-byte Spill
.Ltmp55:
	vmulsd	.LCPI1_0(%rip), %xmm0, %xmm0
	vmovsd	%xmm0, -216(%rbp)       # 8-byte Spill
	xorl	%r13d, %r13d
	movl	$1, %ecx
                                        # implicit-def: $xmm2
	.loc	1 189 1 is_stmt 1       # backgroundfield/quadr.cpp:189:1
	vxorpd	%xmm9, %xmm9, %xmm9
	.loc	1 0 0 is_stmt 0         # backgroundfield/quadr.cpp:0:0
	xorl	%r8d, %r8d
	jmp	.LBB1_1
.Ltmp56:
	.p2align	4, 0x90
.LBB1_2:                                # %L..inline.10796.thread
                                        #   in Loop: Header=BB1_1 Depth=1
	#DEBUG_VALUE: dresult_rat <- [DW_OP_constu 176, DW_OP_minus] [$rbp+0]
	#DEBUG_VALUE: dresult_pol <- [DW_OP_constu 128, DW_OP_minus] [$rbp+0]
	#DEBUG_VALUE: it <- $r8d
	#DEBUG_VALUE: j <- $rcx
	#DEBUG_VALUE: Romberg:a <- [DW_OP_constu 144, DW_OP_minus] [$rbp+0]
	#DEBUG_VALUE: a <- [DW_OP_constu 144, DW_OP_minus] [$rbp+0]
	#DEBUG_VALUE: Romberg:b <- [DW_OP_constu 224, DW_OP_minus] [$rbp+0]
	#DEBUG_VALUE: b <- [DW_OP_constu 224, DW_OP_minus] [$rbp+0]
	#DEBUG_VALUE: Romberg:func <- $r12
	#DEBUG_VALUE: Romberg:absacc <- [DW_OP_constu 200, DW_OP_minus] [$rbp+0]
	.loc	1 49 1 is_stmt 1        # backgroundfield/quadr.cpp:49:1
	movq	(%r12), %rax
	movq	%r12, %rdi
	vmovsd	-224(%rbp), %xmm0       # 8-byte Reload
                                        # xmm0 = mem[0],zero
	movq	%rcx, %rbx
.Ltmp57:
	#DEBUG_VALUE: j <- $rbx
	.loc	1 0 1 is_stmt 0         # backgroundfield/quadr.cpp:0:1
	movq	%rdx, %r13
	.loc	1 49 1                  # backgroundfield/quadr.cpp:49:1
	callq	*(%rax)
.Ltmp58:
	.loc	1 0 1                   # backgroundfield/quadr.cpp:0:1
	vmovsd	%xmm0, -48(%rbp)        # 8-byte Spill
	.loc	1 49 1                  # backgroundfield/quadr.cpp:49:1
	movq	(%r12), %rax
	movq	%r12, %rdi
	vmovsd	-144(%rbp), %xmm0       # 8-byte Reload
                                        # xmm0 = mem[0],zero
	callq	*(%rax)
	vmovapd	-176(%rbp), %xmm2       # 16-byte Reload
.Ltmp59:
	#DEBUG_VALUE: dresult_rat <- $xmm2
	.loc	1 0 1                   # backgroundfield/quadr.cpp:0:1
	vmovapd	-128(%rbp), %xmm9       # 16-byte Reload
.Ltmp60:
	#DEBUG_VALUE: dresult_pol <- $xmm9
	movq	%rbx, %rcx
	.loc	1 49 1                  # backgroundfield/quadr.cpp:49:1
	vaddsd	-48(%rbp), %xmm0, %xmm0 # 8-byte Folded Reload
	vmulsd	-216(%rbp), %xmm0, %xmm0 # 8-byte Folded Reload
	vmovsd	%xmm0, -632(%rbp,%rbx,8)
.Ltmp61:
	#DEBUG_VALUE: it <- 1
	.loc	1 192 1 is_stmt 1       # backgroundfield/quadr.cpp:192:1
	leaq	-8(%r14), %rdx
	vmovsd	-8(%r14), %xmm8         # xmm8 = mem[0],zero
	movl	$1, %r8d
.Ltmp62:
.LBB1_3:                                # %L.B0041
                                        #   in Loop: Header=BB1_1 Depth=1
	#DEBUG_VALUE: dresult_pol <- $xmm9
	#DEBUG_VALUE: dresult_rat <- $xmm2
	#DEBUG_VALUE: Romberg:a <- [DW_OP_constu 144, DW_OP_minus] [$rbp+0]
	#DEBUG_VALUE: a <- [DW_OP_constu 144, DW_OP_minus] [$rbp+0]
	#DEBUG_VALUE: Romberg:b <- [DW_OP_constu 224, DW_OP_minus] [$rbp+0]
	#DEBUG_VALUE: b <- [DW_OP_constu 224, DW_OP_minus] [$rbp+0]
	#DEBUG_VALUE: Romberg:func <- $r12
	#DEBUG_VALUE: Romberg:absacc <- [DW_OP_constu 200, DW_OP_minus] [$rbp+0]
	#DEBUG_VALUE: dresult_pol <- $xmm9
	#DEBUG_VALUE: dresult_rat <- $xmm2
	.loc	1 210 1                 # backgroundfield/quadr.cpp:210:1
	movq	(%rdx), %rax
	movq	%rax, (%r14)
	.loc	1 211 1                 # backgroundfield/quadr.cpp:211:1
	vmovsd	.LCPI1_4(%rip), %xmm0   # xmm0 = mem[0],zero
	movq	-232(%rbp), %rax        # 8-byte Reload
	vmulsd	-8(%rax), %xmm0, %xmm0
	vmovsd	%xmm0, (%rax)
	.loc	1 212 1                 # backgroundfield/quadr.cpp:212:1
	incq	%rcx
.Ltmp63:
	#DEBUG_VALUE: j <- $rcx
	.loc	1 190 1                 # backgroundfield/quadr.cpp:190:1
	addq	$8, %r14
	addq	$8, %rax
	.loc	1 212 1                 # backgroundfield/quadr.cpp:212:1
	cmpq	$8, %r13
	je	.LBB1_38
.Ltmp64:
.LBB1_1:                                # %L.B0039
                                        # =>This Loop Header: Depth=1
                                        #     Child Loop BB1_7 Depth 2
                                        #     Child Loop BB1_17 Depth 2
                                        #     Child Loop BB1_32 Depth 2
	#DEBUG_VALUE: Romberg:a <- [DW_OP_constu 144, DW_OP_minus] [$rbp+0]
	#DEBUG_VALUE: a <- [DW_OP_constu 144, DW_OP_minus] [$rbp+0]
	#DEBUG_VALUE: Romberg:b <- [DW_OP_constu 224, DW_OP_minus] [$rbp+0]
	#DEBUG_VALUE: b <- [DW_OP_constu 224, DW_OP_minus] [$rbp+0]
	#DEBUG_VALUE: Romberg:func <- $r12
	#DEBUG_VALUE: Romberg:absacc <- [DW_OP_constu 200, DW_OP_minus] [$rbp+0]
	.loc	1 0 1 is_stmt 0         # backgroundfield/quadr.cpp:0:1
	movq	%rax, -232(%rbp)        # 8-byte Spill
.Ltmp65:
	#DEBUG_VALUE: dresult_rat <- $xmm2
	#DEBUG_VALUE: j <- $rcx
	#DEBUG_VALUE: dresult_pol <- $xmm9
	#DEBUG_VALUE: it <- $r8d
	.loc	1 191 1 is_stmt 1       # backgroundfield/quadr.cpp:191:1
	cmpq	$5, %rcx
	movl	$5, %r15d
	cmovbq	%rcx, %r15
	leaq	1(%r13), %rdx
	cmpl	$5, %edx
	movl	%edx, %ebx
	movl	$5, %eax
	cmovgeq	%rax, %rbx
	cmpq	$1, %rcx
	vmovapd	%xmm9, -128(%rbp)       # 16-byte Spill
.Ltmp66:
	#DEBUG_VALUE: dresult_pol <- [DW_OP_constu 128, DW_OP_minus] [$rbp+0]
	#DEBUG_VALUE: dresult_pol <- [DW_OP_constu 128, DW_OP_minus] [$rbp+0]
	.loc	1 0 1 is_stmt 0         # backgroundfield/quadr.cpp:0:1
	vmovapd	%xmm2, -176(%rbp)       # 16-byte Spill
.Ltmp67:
	#DEBUG_VALUE: dresult_rat <- [DW_OP_constu 176, DW_OP_minus] [$rbp+0]
	#DEBUG_VALUE: dresult_rat <- [DW_OP_constu 176, DW_OP_minus] [$rbp+0]
	.loc	1 191 1                 # backgroundfield/quadr.cpp:191:1
	je	.LBB1_2
.Ltmp68:
# %bb.4:                                # %L..inline.10790
                                        #   in Loop: Header=BB1_1 Depth=1
	#DEBUG_VALUE: dresult_rat <- [DW_OP_constu 176, DW_OP_minus] [$rbp+0]
	#DEBUG_VALUE: dresult_pol <- [DW_OP_constu 128, DW_OP_minus] [$rbp+0]
	#DEBUG_VALUE: it <- $r8d
	#DEBUG_VALUE: j <- $rcx
	#DEBUG_VALUE: Romberg:a <- [DW_OP_constu 144, DW_OP_minus] [$rbp+0]
	#DEBUG_VALUE: a <- [DW_OP_constu 144, DW_OP_minus] [$rbp+0]
	#DEBUG_VALUE: Romberg:b <- [DW_OP_constu 224, DW_OP_minus] [$rbp+0]
	#DEBUG_VALUE: b <- [DW_OP_constu 224, DW_OP_minus] [$rbp+0]
	#DEBUG_VALUE: Romberg:func <- $r12
	#DEBUG_VALUE: Romberg:absacc <- [DW_OP_constu 200, DW_OP_minus] [$rbp+0]
	.loc	1 0 1                   # backgroundfield/quadr.cpp:0:1
	movq	%rdx, -72(%rbp)         # 8-byte Spill
	movq	%rcx, -80(%rbp)         # 8-byte Spill
.Ltmp69:
	#DEBUG_VALUE: j <- [DW_OP_constu 80, DW_OP_minus] [$rbp+0]
	movq	%r14, -152(%rbp)        # 8-byte Spill
.Ltmp70:
	.loc	1 52 1 is_stmt 1        # backgroundfield/quadr.cpp:52:1
	vcvtsi2sd	%r8d, %xmm10, %xmm1
	.loc	1 56 1                  # backgroundfield/quadr.cpp:56:1
	testl	%r8d, %r8d
	movl	%r8d, -52(%rbp)         # 4-byte Spill
	vmovsd	%xmm1, -64(%rbp)        # 8-byte Spill
	jle	.LBB1_5
.Ltmp71:
# %bb.6:                                # %L.B0233
                                        #   in Loop: Header=BB1_1 Depth=1
	#DEBUG_VALUE: j <- [DW_OP_constu 80, DW_OP_minus] [$rbp+0]
	#DEBUG_VALUE: dresult_rat <- [DW_OP_constu 176, DW_OP_minus] [$rbp+0]
	#DEBUG_VALUE: dresult_pol <- [DW_OP_constu 128, DW_OP_minus] [$rbp+0]
	#DEBUG_VALUE: it <- $r8d
	#DEBUG_VALUE: Romberg:a <- [DW_OP_constu 144, DW_OP_minus] [$rbp+0]
	#DEBUG_VALUE: a <- [DW_OP_constu 144, DW_OP_minus] [$rbp+0]
	#DEBUG_VALUE: Romberg:b <- [DW_OP_constu 224, DW_OP_minus] [$rbp+0]
	#DEBUG_VALUE: b <- [DW_OP_constu 224, DW_OP_minus] [$rbp+0]
	#DEBUG_VALUE: Romberg:func <- $r12
	#DEBUG_VALUE: Romberg:absacc <- [DW_OP_constu 200, DW_OP_minus] [$rbp+0]
	.loc	1 0 1 is_stmt 0         # backgroundfield/quadr.cpp:0:1
	vmovsd	-136(%rbp), %xmm0       # 8-byte Reload
                                        # xmm0 = mem[0],zero
	vdivsd	%xmm1, %xmm0, %xmm1
	vmovsd	-144(%rbp), %xmm0       # 8-byte Reload
                                        # xmm0 = mem[0],zero
	vmovsd	%xmm1, -88(%rbp)        # 8-byte Spill
	.loc	1 53 1 is_stmt 1        # backgroundfield/quadr.cpp:53:1
	vfmadd231sd	.LCPI1_0(%rip), %xmm1, %xmm0 # xmm0 = (xmm1 * mem) + xmm0
	vxorpd	%xmm1, %xmm1, %xmm1
	.loc	1 56 1                  # backgroundfield/quadr.cpp:56:1
	movl	%r8d, %r14d
.Ltmp72:
	#DEBUG_VALUE: it <- $r14d
	.p2align	4, 0x90
.LBB1_7:                                # %L..inline.10804
                                        #   Parent Loop BB1_1 Depth=1
                                        # =>  This Inner Loop Header: Depth=2
	#DEBUG_VALUE: j <- [DW_OP_constu 80, DW_OP_minus] [$rbp+0]
	#DEBUG_VALUE: dresult_rat <- [DW_OP_constu 176, DW_OP_minus] [$rbp+0]
	#DEBUG_VALUE: dresult_pol <- [DW_OP_constu 128, DW_OP_minus] [$rbp+0]
	#DEBUG_VALUE: Romberg:a <- [DW_OP_constu 144, DW_OP_minus] [$rbp+0]
	#DEBUG_VALUE: a <- [DW_OP_constu 144, DW_OP_minus] [$rbp+0]
	#DEBUG_VALUE: Romberg:b <- [DW_OP_constu 224, DW_OP_minus] [$rbp+0]
	#DEBUG_VALUE: b <- [DW_OP_constu 224, DW_OP_minus] [$rbp+0]
	#DEBUG_VALUE: Romberg:func <- $r12
	#DEBUG_VALUE: Romberg:absacc <- [DW_OP_constu 200, DW_OP_minus] [$rbp+0]
	.loc	1 0 1 is_stmt 0         # backgroundfield/quadr.cpp:0:1
	vmovsd	%xmm0, -96(%rbp)        # 8-byte Spill
	vmovsd	%xmm1, -48(%rbp)        # 8-byte Spill
	.loc	1 57 1 is_stmt 1        # backgroundfield/quadr.cpp:57:1
	movq	(%r12), %rax
	movq	%r12, %rdi
	callq	*(%rax)
	vmovsd	-48(%rbp), %xmm1        # 8-byte Reload
                                        # xmm1 = mem[0],zero
	vaddsd	%xmm0, %xmm1, %xmm1
	vmovsd	%xmm1, -48(%rbp)        # 8-byte Spill
	vmovsd	-96(%rbp), %xmm0        # 8-byte Reload
                                        # xmm0 = mem[0],zero
	vmovsd	-48(%rbp), %xmm1        # 8-byte Reload
                                        # xmm1 = mem[0],zero
	vaddsd	-88(%rbp), %xmm0, %xmm0 # 8-byte Folded Reload
	.loc	1 59 1                  # backgroundfield/quadr.cpp:59:1
	decl	%r14d
	jg	.LBB1_7
	jmp	.LBB1_8
.Ltmp73:
.LBB1_5:                                #   in Loop: Header=BB1_1 Depth=1
	#DEBUG_VALUE: j <- [DW_OP_constu 80, DW_OP_minus] [$rbp+0]
	#DEBUG_VALUE: dresult_rat <- [DW_OP_constu 176, DW_OP_minus] [$rbp+0]
	#DEBUG_VALUE: dresult_pol <- [DW_OP_constu 128, DW_OP_minus] [$rbp+0]
	#DEBUG_VALUE: it <- $r8d
	#DEBUG_VALUE: Romberg:a <- [DW_OP_constu 144, DW_OP_minus] [$rbp+0]
	#DEBUG_VALUE: a <- [DW_OP_constu 144, DW_OP_minus] [$rbp+0]
	#DEBUG_VALUE: Romberg:b <- [DW_OP_constu 224, DW_OP_minus] [$rbp+0]
	#DEBUG_VALUE: b <- [DW_OP_constu 224, DW_OP_minus] [$rbp+0]
	#DEBUG_VALUE: Romberg:func <- $r12
	#DEBUG_VALUE: Romberg:absacc <- [DW_OP_constu 200, DW_OP_minus] [$rbp+0]
	.loc	1 0 1 is_stmt 0         # backgroundfield/quadr.cpp:0:1
	vxorpd	%xmm1, %xmm1, %xmm1
.Ltmp74:
.LBB1_8:                                # %L..inline.10796
                                        #   in Loop: Header=BB1_1 Depth=1
	#DEBUG_VALUE: j <- [DW_OP_constu 80, DW_OP_minus] [$rbp+0]
	#DEBUG_VALUE: dresult_rat <- [DW_OP_constu 176, DW_OP_minus] [$rbp+0]
	#DEBUG_VALUE: dresult_pol <- [DW_OP_constu 128, DW_OP_minus] [$rbp+0]
	#DEBUG_VALUE: Romberg:a <- [DW_OP_constu 144, DW_OP_minus] [$rbp+0]
	#DEBUG_VALUE: a <- [DW_OP_constu 144, DW_OP_minus] [$rbp+0]
	#DEBUG_VALUE: Romberg:b <- [DW_OP_constu 224, DW_OP_minus] [$rbp+0]
	#DEBUG_VALUE: b <- [DW_OP_constu 224, DW_OP_minus] [$rbp+0]
	#DEBUG_VALUE: Romberg:func <- $r12
	#DEBUG_VALUE: Romberg:absacc <- [DW_OP_constu 200, DW_OP_minus] [$rbp+0]
	.loc	1 59 1                  # backgroundfield/quadr.cpp:59:1
	vmulsd	-136(%rbp), %xmm1, %xmm0 # 8-byte Folded Reload
	vdivsd	-64(%rbp), %xmm0, %xmm0 # 8-byte Folded Reload
	movq	-80(%rbp), %rcx         # 8-byte Reload
.Ltmp75:
	#DEBUG_VALUE: j <- $rcx
	vaddsd	-632(%rbp,%rcx,8), %xmm0, %xmm0
	vmulsd	.LCPI1_0(%rip), %xmm0, %xmm0
	vmovsd	%xmm0, -632(%rbp,%rcx,8)
	movl	-52(%rbp), %r8d         # 4-byte Reload
	.loc	1 60 1 is_stmt 1        # backgroundfield/quadr.cpp:60:1
	addl	%r8d, %r8d
.Ltmp76:
	#DEBUG_VALUE: it <- $r8d
	.loc	1 0 1 is_stmt 0         # backgroundfield/quadr.cpp:0:1
	movq	-152(%rbp), %r14        # 8-byte Reload
.Ltmp77:
	.loc	1 192 1 is_stmt 1       # backgroundfield/quadr.cpp:192:1
	leaq	-8(%r14), %rdx
	vmovsd	-8(%r14), %xmm8         # xmm8 = mem[0],zero
.Ltmp78:
	#DEBUG_VALUE: result <- $xmm8
	.loc	1 193 1                 # backgroundfield/quadr.cpp:193:1
	cmpq	$2, %rcx
	jae	.LBB1_10
.Ltmp79:
# %bb.9:                                #   in Loop: Header=BB1_1 Depth=1
	#DEBUG_VALUE: result <- $xmm8
	#DEBUG_VALUE: dresult_rat <- [DW_OP_constu 176, DW_OP_minus] [$rbp+0]
	#DEBUG_VALUE: dresult_pol <- [DW_OP_constu 128, DW_OP_minus] [$rbp+0]
	#DEBUG_VALUE: it <- $r8d
	#DEBUG_VALUE: j <- $rcx
	#DEBUG_VALUE: Romberg:a <- [DW_OP_constu 144, DW_OP_minus] [$rbp+0]
	#DEBUG_VALUE: a <- [DW_OP_constu 144, DW_OP_minus] [$rbp+0]
	#DEBUG_VALUE: Romberg:b <- [DW_OP_constu 224, DW_OP_minus] [$rbp+0]
	#DEBUG_VALUE: b <- [DW_OP_constu 224, DW_OP_minus] [$rbp+0]
	#DEBUG_VALUE: Romberg:func <- $r12
	#DEBUG_VALUE: Romberg:absacc <- [DW_OP_constu 200, DW_OP_minus] [$rbp+0]
	.loc	1 0 1 is_stmt 0         # backgroundfield/quadr.cpp:0:1
	movq	-72(%rbp), %r13         # 8-byte Reload
	vmovapd	-128(%rbp), %xmm9       # 16-byte Reload
.Ltmp80:
	#DEBUG_VALUE: dresult_pol <- $xmm9
	vmovapd	-176(%rbp), %xmm2       # 16-byte Reload
.Ltmp81:
	#DEBUG_VALUE: dresult_rat <- $xmm2
	jmp	.LBB1_3
.Ltmp82:
	.p2align	4, 0x90
.LBB1_10:                               # %L.B0234
                                        #   in Loop: Header=BB1_1 Depth=1
	#DEBUG_VALUE: result <- $xmm8
	#DEBUG_VALUE: dresult_rat <- [DW_OP_constu 176, DW_OP_minus] [$rbp+0]
	#DEBUG_VALUE: dresult_pol <- [DW_OP_constu 128, DW_OP_minus] [$rbp+0]
	#DEBUG_VALUE: it <- $r8d
	#DEBUG_VALUE: j <- $rcx
	#DEBUG_VALUE: Romberg:a <- [DW_OP_constu 144, DW_OP_minus] [$rbp+0]
	#DEBUG_VALUE: a <- [DW_OP_constu 144, DW_OP_minus] [$rbp+0]
	#DEBUG_VALUE: Romberg:b <- [DW_OP_constu 224, DW_OP_minus] [$rbp+0]
	#DEBUG_VALUE: b <- [DW_OP_constu 224, DW_OP_minus] [$rbp+0]
	#DEBUG_VALUE: Romberg:func <- $r12
	#DEBUG_VALUE: Romberg:absacc <- [DW_OP_constu 200, DW_OP_minus] [$rbp+0]
	.loc	1 194 1 is_stmt 1       # backgroundfield/quadr.cpp:194:1
	cmpq	$5, %rcx
	movl	$5, %edi
	cmovbq	%rcx, %rdi
.Ltmp83:
	#DEBUG_VALUE: k1 <- $edi
	.loc	1 197 1                 # backgroundfield/quadr.cpp:197:1
	movl	%ecx, %eax
	subl	%edi, %eax
	cltq
	leaq	-624(,%rax,8), %rsi
	addq	%rbp, %rsi
	.loc	1 136 1                 # backgroundfield/quadr.cpp:136:1
	testl	%edi, %edi
	je	.LBB1_11
.Ltmp84:
# %bb.12:                               # %L.B0235
                                        #   in Loop: Header=BB1_1 Depth=1
	#DEBUG_VALUE: k1 <- $edi
	#DEBUG_VALUE: result <- $xmm8
	#DEBUG_VALUE: dresult_rat <- [DW_OP_constu 176, DW_OP_minus] [$rbp+0]
	#DEBUG_VALUE: dresult_pol <- [DW_OP_constu 128, DW_OP_minus] [$rbp+0]
	#DEBUG_VALUE: it <- $r8d
	#DEBUG_VALUE: j <- $rcx
	#DEBUG_VALUE: Romberg:a <- [DW_OP_constu 144, DW_OP_minus] [$rbp+0]
	#DEBUG_VALUE: a <- [DW_OP_constu 144, DW_OP_minus] [$rbp+0]
	#DEBUG_VALUE: Romberg:b <- [DW_OP_constu 224, DW_OP_minus] [$rbp+0]
	#DEBUG_VALUE: b <- [DW_OP_constu 224, DW_OP_minus] [$rbp+0]
	#DEBUG_VALUE: Romberg:func <- $r12
	#DEBUG_VALUE: Romberg:absacc <- [DW_OP_constu 200, DW_OP_minus] [$rbp+0]
	.loc	1 0 1 is_stmt 0         # backgroundfield/quadr.cpp:0:1
	movq	%rdx, -104(%rbp)        # 8-byte Spill
	vmovsd	%xmm8, -64(%rbp)        # 8-byte Spill
.Ltmp85:
	#DEBUG_VALUE: result <- [DW_OP_constu 64, DW_OP_minus] [$rbp+0]
	movl	%r8d, -52(%rbp)         # 4-byte Spill
.Ltmp86:
	#DEBUG_VALUE: it <- [DW_OP_constu 52, DW_OP_minus] [$rbp+0]
                                        # kill: def $ecx killed $ecx killed $rcx
	subl	%r15d, %ecx
.Ltmp87:
	movl	%ecx, -48(%rbp)         # 4-byte Spill
	leaq	-616(,%r13,8), %r13
	addq	%rbp, %r13
	shlq	$3, %rbx
	subq	%rbx, %r13
	leaq	-696(,%rax,8), %rax
	addq	%rbp, %rax
	movq	%rax, -208(%rbp)        # 8-byte Spill
	.loc	1 136 1                 # backgroundfield/quadr.cpp:136:1
	vmovsd	(%rax), %xmm0           # xmm0 = mem[0],zero
	vmovapd	%xmm0, -192(%rbp)       # 16-byte Spill
	movq	%rdi, -88(%rbp)         # 8-byte Spill
	leaq	-1016(%rbp), %rdi
.Ltmp88:
	.loc	1 0 1                   # backgroundfield/quadr.cpp:0:1
	movq	%rsi, -96(%rbp)         # 8-byte Spill
	.loc	1 136 1                 # backgroundfield/quadr.cpp:136:1
	movq	%r13, %rsi
	movq	%rbx, %rdx
	callq	memcpy
	leaq	-856(%rbp), %rdi
	movq	%r13, %rsi
	movq	%rbx, %rdx
	callq	memcpy
	movq	-88(%rbp), %rsi         # 8-byte Reload
	movq	-96(%rbp), %rcx         # 8-byte Reload
	movq	-208(%rbp), %r10        # 8-byte Reload
	xorl	%edx, %edx
	cmpq	$2, %rsi
	vmovapd	.LCPI1_2(%rip), %xmm6   # xmm6 = [NaN,NaN]
	jb	.LBB1_14
.Ltmp89:
# %bb.13:                               # %L.B0226.L.B0226_crit_edge.lr.ph
                                        #   in Loop: Header=BB1_1 Depth=1
	#DEBUG_VALUE: it <- [DW_OP_constu 52, DW_OP_minus] [$rbp+0]
	#DEBUG_VALUE: result <- [DW_OP_constu 64, DW_OP_minus] [$rbp+0]
	#DEBUG_VALUE: dresult_rat <- [DW_OP_constu 176, DW_OP_minus] [$rbp+0]
	#DEBUG_VALUE: dresult_pol <- [DW_OP_constu 128, DW_OP_minus] [$rbp+0]
	#DEBUG_VALUE: Romberg:a <- [DW_OP_constu 144, DW_OP_minus] [$rbp+0]
	#DEBUG_VALUE: a <- [DW_OP_constu 144, DW_OP_minus] [$rbp+0]
	#DEBUG_VALUE: Romberg:b <- [DW_OP_constu 224, DW_OP_minus] [$rbp+0]
	#DEBUG_VALUE: b <- [DW_OP_constu 224, DW_OP_minus] [$rbp+0]
	#DEBUG_VALUE: Romberg:func <- $r12
	#DEBUG_VALUE: Romberg:absacc <- [DW_OP_constu 200, DW_OP_minus] [$rbp+0]
	.loc	1 0 1                   # backgroundfield/quadr.cpp:0:1
	vmovapd	-192(%rbp), %xmm0       # 16-byte Reload
	.loc	1 136 1                 # backgroundfield/quadr.cpp:136:1
	vxorpd	.LCPI1_1(%rip), %xmm0, %xmm0
	vmovddup	%xmm0, %xmm0    # xmm0 = xmm0[0,0]
	vandpd	%xmm6, %xmm0, %xmm0
	vpermilpd	$1, %xmm0, %xmm1 # xmm1 = xmm0[1,0]
	vminsd	%xmm1, %xmm0, %xmm0
	vmovsd	8(%r10), %xmm1          # xmm1 = mem[0],zero
	vandpd	%xmm6, %xmm1, %xmm1
	xorl	%edx, %edx
	vucomisd	%xmm1, %xmm0
	seta	%dl
	cmpq	$2, %rsi
	jbe	.LBB1_14
.Ltmp90:
# %bb.39:                               # %L.B0226.L.B0226_crit_edge.1
                                        #   in Loop: Header=BB1_1 Depth=1
	#DEBUG_VALUE: it <- [DW_OP_constu 52, DW_OP_minus] [$rbp+0]
	#DEBUG_VALUE: result <- [DW_OP_constu 64, DW_OP_minus] [$rbp+0]
	#DEBUG_VALUE: dresult_rat <- [DW_OP_constu 176, DW_OP_minus] [$rbp+0]
	#DEBUG_VALUE: dresult_pol <- [DW_OP_constu 128, DW_OP_minus] [$rbp+0]
	#DEBUG_VALUE: Romberg:a <- [DW_OP_constu 144, DW_OP_minus] [$rbp+0]
	#DEBUG_VALUE: a <- [DW_OP_constu 144, DW_OP_minus] [$rbp+0]
	#DEBUG_VALUE: Romberg:b <- [DW_OP_constu 224, DW_OP_minus] [$rbp+0]
	#DEBUG_VALUE: b <- [DW_OP_constu 224, DW_OP_minus] [$rbp+0]
	#DEBUG_VALUE: Romberg:func <- $r12
	#DEBUG_VALUE: Romberg:absacc <- [DW_OP_constu 200, DW_OP_minus] [$rbp+0]
	vminsd	%xmm0, %xmm1, %xmm0
	vmovsd	16(%r10), %xmm1         # xmm1 = mem[0],zero
	vandpd	%xmm6, %xmm1, %xmm1
	vucomisd	%xmm1, %xmm0
	movl	$2, %eax
	cmoval	%eax, %edx
	cmpq	$3, %rsi
	je	.LBB1_14
.Ltmp91:
# %bb.40:                               # %L.B0226.L.B0226_crit_edge.2
                                        #   in Loop: Header=BB1_1 Depth=1
	#DEBUG_VALUE: it <- [DW_OP_constu 52, DW_OP_minus] [$rbp+0]
	#DEBUG_VALUE: result <- [DW_OP_constu 64, DW_OP_minus] [$rbp+0]
	#DEBUG_VALUE: dresult_rat <- [DW_OP_constu 176, DW_OP_minus] [$rbp+0]
	#DEBUG_VALUE: dresult_pol <- [DW_OP_constu 128, DW_OP_minus] [$rbp+0]
	#DEBUG_VALUE: Romberg:a <- [DW_OP_constu 144, DW_OP_minus] [$rbp+0]
	#DEBUG_VALUE: a <- [DW_OP_constu 144, DW_OP_minus] [$rbp+0]
	#DEBUG_VALUE: Romberg:b <- [DW_OP_constu 224, DW_OP_minus] [$rbp+0]
	#DEBUG_VALUE: b <- [DW_OP_constu 224, DW_OP_minus] [$rbp+0]
	#DEBUG_VALUE: Romberg:func <- $r12
	#DEBUG_VALUE: Romberg:absacc <- [DW_OP_constu 200, DW_OP_minus] [$rbp+0]
	vminsd	%xmm0, %xmm1, %xmm0
	vmovsd	24(%r10), %xmm1         # xmm1 = mem[0],zero
	vandpd	%xmm6, %xmm1, %xmm1
	vucomisd	%xmm1, %xmm0
	movl	$3, %eax
	cmoval	%eax, %edx
	cmpq	$5, %rsi
	jb	.LBB1_14
.Ltmp92:
# %bb.41:                               # %L.B0226.L.B0226_crit_edge.3
                                        #   in Loop: Header=BB1_1 Depth=1
	#DEBUG_VALUE: it <- [DW_OP_constu 52, DW_OP_minus] [$rbp+0]
	#DEBUG_VALUE: result <- [DW_OP_constu 64, DW_OP_minus] [$rbp+0]
	#DEBUG_VALUE: dresult_rat <- [DW_OP_constu 176, DW_OP_minus] [$rbp+0]
	#DEBUG_VALUE: dresult_pol <- [DW_OP_constu 128, DW_OP_minus] [$rbp+0]
	#DEBUG_VALUE: Romberg:a <- [DW_OP_constu 144, DW_OP_minus] [$rbp+0]
	#DEBUG_VALUE: a <- [DW_OP_constu 144, DW_OP_minus] [$rbp+0]
	#DEBUG_VALUE: Romberg:b <- [DW_OP_constu 224, DW_OP_minus] [$rbp+0]
	#DEBUG_VALUE: b <- [DW_OP_constu 224, DW_OP_minus] [$rbp+0]
	#DEBUG_VALUE: Romberg:func <- $r12
	#DEBUG_VALUE: Romberg:absacc <- [DW_OP_constu 200, DW_OP_minus] [$rbp+0]
	vminsd	%xmm0, %xmm1, %xmm0
	vmovsd	32(%r10), %xmm1         # xmm1 = mem[0],zero
	vandpd	%xmm6, %xmm1, %xmm1
	vucomisd	%xmm1, %xmm0
	movl	$4, %eax
	cmoval	%eax, %edx
.Ltmp93:
.LBB1_14:                               # %L.B0227
                                        #   in Loop: Header=BB1_1 Depth=1
	#DEBUG_VALUE: it <- [DW_OP_constu 52, DW_OP_minus] [$rbp+0]
	#DEBUG_VALUE: result <- [DW_OP_constu 64, DW_OP_minus] [$rbp+0]
	#DEBUG_VALUE: dresult_rat <- [DW_OP_constu 176, DW_OP_minus] [$rbp+0]
	#DEBUG_VALUE: dresult_pol <- [DW_OP_constu 128, DW_OP_minus] [$rbp+0]
	#DEBUG_VALUE: Romberg:a <- [DW_OP_constu 144, DW_OP_minus] [$rbp+0]
	#DEBUG_VALUE: a <- [DW_OP_constu 144, DW_OP_minus] [$rbp+0]
	#DEBUG_VALUE: Romberg:b <- [DW_OP_constu 224, DW_OP_minus] [$rbp+0]
	#DEBUG_VALUE: b <- [DW_OP_constu 224, DW_OP_minus] [$rbp+0]
	#DEBUG_VALUE: Romberg:func <- $r12
	#DEBUG_VALUE: Romberg:absacc <- [DW_OP_constu 200, DW_OP_minus] [$rbp+0]
	.loc	1 0 0                   # backgroundfield/quadr.cpp:0:0
	movslq	-48(%rbp), %rdi         # 4-byte Folded Reload
	.loc	1 83 1 is_stmt 1        # backgroundfield/quadr.cpp:83:1
	movl	%edx, %eax
	vmovsd	(%rcx,%rax,8), %xmm0    # xmm0 = mem[0],zero
.Ltmp94:
	#DEBUG_VALUE: result_pol <- $xmm0
	.loc	1 136 1                 # backgroundfield/quadr.cpp:136:1
	cmpl	$2, %esi
	setb	%al
	vxorpd	%xmm8, %xmm8, %xmm8
	jae	.LBB1_16
.Ltmp95:
# %bb.15:                               #   in Loop: Header=BB1_1 Depth=1
	#DEBUG_VALUE: result_pol <- $xmm0
	#DEBUG_VALUE: it <- [DW_OP_constu 52, DW_OP_minus] [$rbp+0]
	#DEBUG_VALUE: result <- [DW_OP_constu 64, DW_OP_minus] [$rbp+0]
	#DEBUG_VALUE: dresult_rat <- [DW_OP_constu 176, DW_OP_minus] [$rbp+0]
	#DEBUG_VALUE: dresult_pol <- [DW_OP_constu 128, DW_OP_minus] [$rbp+0]
	#DEBUG_VALUE: Romberg:a <- [DW_OP_constu 144, DW_OP_minus] [$rbp+0]
	#DEBUG_VALUE: a <- [DW_OP_constu 144, DW_OP_minus] [$rbp+0]
	#DEBUG_VALUE: Romberg:b <- [DW_OP_constu 224, DW_OP_minus] [$rbp+0]
	#DEBUG_VALUE: b <- [DW_OP_constu 224, DW_OP_minus] [$rbp+0]
	#DEBUG_VALUE: Romberg:func <- $r12
	#DEBUG_VALUE: Romberg:absacc <- [DW_OP_constu 200, DW_OP_minus] [$rbp+0]
	.loc	1 0 1 is_stmt 0         # backgroundfield/quadr.cpp:0:1
	movb	$1, %r9b
	movl	-52(%rbp), %r8d         # 4-byte Reload
.Ltmp96:
	#DEBUG_VALUE: it <- $r8d
	vmovapd	-128(%rbp), %xmm9       # 16-byte Reload
.Ltmp97:
	#DEBUG_VALUE: dresult_pol <- $xmm9
	jmp	.LBB1_21
.Ltmp98:
.LBB1_11:                               # %L.B0229.thread
                                        #   in Loop: Header=BB1_1 Depth=1
	#DEBUG_VALUE: k1 <- $edi
	#DEBUG_VALUE: result <- $xmm8
	#DEBUG_VALUE: dresult_rat <- [DW_OP_constu 176, DW_OP_minus] [$rbp+0]
	#DEBUG_VALUE: dresult_pol <- [DW_OP_constu 128, DW_OP_minus] [$rbp+0]
	#DEBUG_VALUE: it <- $r8d
	#DEBUG_VALUE: j <- $rcx
	#DEBUG_VALUE: Romberg:a <- [DW_OP_constu 144, DW_OP_minus] [$rbp+0]
	#DEBUG_VALUE: a <- [DW_OP_constu 144, DW_OP_minus] [$rbp+0]
	#DEBUG_VALUE: Romberg:b <- [DW_OP_constu 224, DW_OP_minus] [$rbp+0]
	#DEBUG_VALUE: b <- [DW_OP_constu 224, DW_OP_minus] [$rbp+0]
	#DEBUG_VALUE: Romberg:func <- $r12
	#DEBUG_VALUE: Romberg:absacc <- [DW_OP_constu 200, DW_OP_minus] [$rbp+0]
	.loc	1 83 1 is_stmt 1        # backgroundfield/quadr.cpp:83:1
	vmovsd	(%rsi), %xmm0           # xmm0 = mem[0],zero
	.loc	1 0 0 is_stmt 0         # backgroundfield/quadr.cpp:0:0
	vmovapd	%xmm0, %xmm1
	movq	-72(%rbp), %r13         # 8-byte Reload
	vmovapd	-128(%rbp), %xmm9       # 16-byte Reload
.Ltmp99:
	#DEBUG_VALUE: dresult_pol <- $xmm9
	vmovapd	-176(%rbp), %xmm6       # 16-byte Reload
.Ltmp100:
	#DEBUG_VALUE: dresult_rat <- $xmm6
	jmp	.LBB1_36
.Ltmp101:
.LBB1_16:                               # %L.B0237
                                        #   in Loop: Header=BB1_1 Depth=1
	#DEBUG_VALUE: result_pol <- $xmm0
	#DEBUG_VALUE: it <- [DW_OP_constu 52, DW_OP_minus] [$rbp+0]
	#DEBUG_VALUE: result <- [DW_OP_constu 64, DW_OP_minus] [$rbp+0]
	#DEBUG_VALUE: dresult_rat <- [DW_OP_constu 176, DW_OP_minus] [$rbp+0]
	#DEBUG_VALUE: dresult_pol <- [DW_OP_constu 128, DW_OP_minus] [$rbp+0]
	#DEBUG_VALUE: Romberg:a <- [DW_OP_constu 144, DW_OP_minus] [$rbp+0]
	#DEBUG_VALUE: a <- [DW_OP_constu 144, DW_OP_minus] [$rbp+0]
	#DEBUG_VALUE: Romberg:b <- [DW_OP_constu 224, DW_OP_minus] [$rbp+0]
	#DEBUG_VALUE: b <- [DW_OP_constu 224, DW_OP_minus] [$rbp+0]
	#DEBUG_VALUE: Romberg:func <- $r12
	#DEBUG_VALUE: Romberg:absacc <- [DW_OP_constu 200, DW_OP_minus] [$rbp+0]
	movb	%al, -192(%rbp)         # 1-byte Spill
	leaq	-688(%rbp), %rax
	movq	%rdi, -128(%rbp)        # 8-byte Spill
.Ltmp102:
	#DEBUG_VALUE: dresult_pol <- undef
	leaq	(%rax,%rdi,8), %rax
	movq	%rax, -48(%rbp)         # 8-byte Spill
	leaq	-1(%rsi), %r11
	.loc	1 86 1 is_stmt 1        # backgroundfield/quadr.cpp:86:1
	decl	%edx
	.loc	1 0 0 is_stmt 0         # backgroundfield/quadr.cpp:0:0
	vmovsd	-824(%rbp), %xmm1       # xmm1 = mem[0],zero
	.loc	1 136 1 is_stmt 1       # backgroundfield/quadr.cpp:136:1
	movq	%r15, %r13
	movabsq	$4294967296, %rax       # imm = 0x100000000
	movabsq	$8589934592, %r9        # imm = 0x200000000
	movabsq	$12884901888, %r14      # imm = 0x300000000
	xorl	%edi, %edi
	jmp	.LBB1_17
.Ltmp103:
	.p2align	4, 0x90
.LBB1_19:                               # %L.B0231
                                        #   in Loop: Header=BB1_17 Depth=2
	#DEBUG_VALUE: result_pol <- $xmm0
	#DEBUG_VALUE: it <- [DW_OP_constu 52, DW_OP_minus] [$rbp+0]
	#DEBUG_VALUE: result <- [DW_OP_constu 64, DW_OP_minus] [$rbp+0]
	#DEBUG_VALUE: dresult_rat <- [DW_OP_constu 176, DW_OP_minus] [$rbp+0]
	#DEBUG_VALUE: Romberg:a <- [DW_OP_constu 144, DW_OP_minus] [$rbp+0]
	#DEBUG_VALUE: a <- [DW_OP_constu 144, DW_OP_minus] [$rbp+0]
	#DEBUG_VALUE: Romberg:b <- [DW_OP_constu 224, DW_OP_minus] [$rbp+0]
	#DEBUG_VALUE: b <- [DW_OP_constu 224, DW_OP_minus] [$rbp+0]
	#DEBUG_VALUE: Romberg:func <- $r12
	#DEBUG_VALUE: Romberg:absacc <- [DW_OP_constu 200, DW_OP_minus] [$rbp+0]
	leal	(%rdx,%rdx), %ebx
	addl	$2, %ebx
	xorl	%esi, %esi
	cmpl	%r13d, %ebx
	setge	%sil
	movslq	%edx, %rdx
	leaq	-1016(%rbp,%rdx,8), %rbx
	leaq	-848(%rbp), %rcx
	leaq	(%rcx,%rdx,8), %r8
	cmovgeq	%rbx, %r8
	subl	%esi, %edx
	vmovsd	(%r8), %xmm9            # xmm9 = mem[0],zero
.Ltmp104:
	#DEBUG_VALUE: dresult_pol <- $xmm9
	vaddsd	%xmm9, %xmm0, %xmm0
.Ltmp105:
	#DEBUG_VALUE: result_pol <- $xmm0
	incq	%rdi
	movabsq	$4294967296, %rsi       # imm = 0x100000000
	addq	%rsi, %r14
	addq	%rsi, %r9
	addq	%rsi, %rax
	cmpq	%r11, %rdi
	jae	.LBB1_20
.Ltmp106:
.LBB1_17:                               # %L.B0228
                                        #   Parent Loop BB1_1 Depth=1
                                        # =>  This Inner Loop Header: Depth=2
	#DEBUG_VALUE: result_pol <- $xmm0
	#DEBUG_VALUE: it <- [DW_OP_constu 52, DW_OP_minus] [$rbp+0]
	#DEBUG_VALUE: result <- [DW_OP_constu 64, DW_OP_minus] [$rbp+0]
	#DEBUG_VALUE: dresult_rat <- [DW_OP_constu 176, DW_OP_minus] [$rbp+0]
	#DEBUG_VALUE: Romberg:a <- [DW_OP_constu 144, DW_OP_minus] [$rbp+0]
	#DEBUG_VALUE: a <- [DW_OP_constu 144, DW_OP_minus] [$rbp+0]
	#DEBUG_VALUE: Romberg:b <- [DW_OP_constu 224, DW_OP_minus] [$rbp+0]
	#DEBUG_VALUE: b <- [DW_OP_constu 224, DW_OP_minus] [$rbp+0]
	#DEBUG_VALUE: Romberg:func <- $r12
	#DEBUG_VALUE: Romberg:absacc <- [DW_OP_constu 200, DW_OP_minus] [$rbp+0]
	movq	%r13, %rbx
	#DEBUG_VALUE: result_pol <- $xmm0
	decq	%r13
	cmpl	$2, %ebx
	jl	.LBB1_19
.Ltmp107:
# %bb.18:                               # %L.B0230
                                        #   in Loop: Header=BB1_17 Depth=2
	#DEBUG_VALUE: result_pol <- $xmm0
	#DEBUG_VALUE: it <- [DW_OP_constu 52, DW_OP_minus] [$rbp+0]
	#DEBUG_VALUE: result <- [DW_OP_constu 64, DW_OP_minus] [$rbp+0]
	#DEBUG_VALUE: dresult_rat <- [DW_OP_constu 176, DW_OP_minus] [$rbp+0]
	#DEBUG_VALUE: Romberg:a <- [DW_OP_constu 144, DW_OP_minus] [$rbp+0]
	#DEBUG_VALUE: a <- [DW_OP_constu 144, DW_OP_minus] [$rbp+0]
	#DEBUG_VALUE: Romberg:b <- [DW_OP_constu 224, DW_OP_minus] [$rbp+0]
	#DEBUG_VALUE: b <- [DW_OP_constu 224, DW_OP_minus] [$rbp+0]
	#DEBUG_VALUE: Romberg:func <- $r12
	#DEBUG_VALUE: Romberg:absacc <- [DW_OP_constu 200, DW_OP_minus] [$rbp+0]
	vmovsd	(%r10), %xmm2           # xmm2 = mem[0],zero
	vmovsd	-848(%rbp), %xmm3       # xmm3 = mem[0],zero
	vsubsd	-1016(%rbp), %xmm3, %xmm3
	movq	-48(%rbp), %rcx         # 8-byte Reload
	vmovsd	(%rcx,%rdi,8), %xmm4    # xmm4 = mem[0],zero
	vsubsd	%xmm4, %xmm2, %xmm5
	vdivsd	%xmm5, %xmm3, %xmm3
	vmulsd	%xmm3, %xmm4, %xmm4
	vmovsd	%xmm4, -1016(%rbp)
	vmulsd	%xmm3, %xmm2, %xmm2
	vmovsd	%xmm2, -856(%rbp)
	cmpq	$1, %r13
	jle	.LBB1_19
.Ltmp108:
# %bb.42:                               # %L.B0230.1
                                        #   in Loop: Header=BB1_17 Depth=2
	#DEBUG_VALUE: result_pol <- $xmm0
	#DEBUG_VALUE: it <- [DW_OP_constu 52, DW_OP_minus] [$rbp+0]
	#DEBUG_VALUE: result <- [DW_OP_constu 64, DW_OP_minus] [$rbp+0]
	#DEBUG_VALUE: dresult_rat <- [DW_OP_constu 176, DW_OP_minus] [$rbp+0]
	#DEBUG_VALUE: Romberg:a <- [DW_OP_constu 144, DW_OP_minus] [$rbp+0]
	#DEBUG_VALUE: a <- [DW_OP_constu 144, DW_OP_minus] [$rbp+0]
	#DEBUG_VALUE: Romberg:b <- [DW_OP_constu 224, DW_OP_minus] [$rbp+0]
	#DEBUG_VALUE: b <- [DW_OP_constu 224, DW_OP_minus] [$rbp+0]
	#DEBUG_VALUE: Romberg:func <- $r12
	#DEBUG_VALUE: Romberg:absacc <- [DW_OP_constu 200, DW_OP_minus] [$rbp+0]
	vmovsd	-840(%rbp), %xmm2       # xmm2 = mem[0],zero
	vsubsd	-1008(%rbp), %xmm2, %xmm2
	movq	%r10, %rcx
	vmovsd	8(%r10), %xmm3          # xmm3 = mem[0],zero
	movq	%rax, %rsi
	sarq	$29, %rsi
	vmovsd	8(%r10,%rsi), %xmm4     # xmm4 = mem[0],zero
	vsubsd	%xmm4, %xmm3, %xmm5
	vdivsd	%xmm5, %xmm2, %xmm2
	vmulsd	%xmm2, %xmm4, %xmm4
	vmovsd	%xmm4, -1008(%rbp)
	vmulsd	%xmm2, %xmm3, %xmm2
	vmovsd	%xmm2, -848(%rbp)
	cmpq	$3, %rbx
	je	.LBB1_19
.Ltmp109:
# %bb.43:                               # %L.B0230.2
                                        #   in Loop: Header=BB1_17 Depth=2
	#DEBUG_VALUE: result_pol <- $xmm0
	#DEBUG_VALUE: it <- [DW_OP_constu 52, DW_OP_minus] [$rbp+0]
	#DEBUG_VALUE: result <- [DW_OP_constu 64, DW_OP_minus] [$rbp+0]
	#DEBUG_VALUE: dresult_rat <- [DW_OP_constu 176, DW_OP_minus] [$rbp+0]
	#DEBUG_VALUE: Romberg:a <- [DW_OP_constu 144, DW_OP_minus] [$rbp+0]
	#DEBUG_VALUE: a <- [DW_OP_constu 144, DW_OP_minus] [$rbp+0]
	#DEBUG_VALUE: Romberg:b <- [DW_OP_constu 224, DW_OP_minus] [$rbp+0]
	#DEBUG_VALUE: b <- [DW_OP_constu 224, DW_OP_minus] [$rbp+0]
	#DEBUG_VALUE: Romberg:func <- $r12
	#DEBUG_VALUE: Romberg:absacc <- [DW_OP_constu 200, DW_OP_minus] [$rbp+0]
	vmovsd	-832(%rbp), %xmm2       # xmm2 = mem[0],zero
	vsubsd	-1000(%rbp), %xmm2, %xmm2
	movq	%r10, %rcx
	vmovsd	16(%r10), %xmm3         # xmm3 = mem[0],zero
	movq	%r9, %rsi
	sarq	$29, %rsi
	vmovsd	8(%r10,%rsi), %xmm4     # xmm4 = mem[0],zero
	vsubsd	%xmm4, %xmm3, %xmm5
	vdivsd	%xmm5, %xmm2, %xmm2
	vmulsd	%xmm2, %xmm4, %xmm4
	vmovsd	%xmm4, -1000(%rbp)
	vmulsd	%xmm2, %xmm3, %xmm2
	vmovsd	%xmm2, -840(%rbp)
	cmpq	$4, %r13
	jl	.LBB1_19
.Ltmp110:
# %bb.44:                               # %L.B0230.3
                                        #   in Loop: Header=BB1_17 Depth=2
	#DEBUG_VALUE: result_pol <- $xmm0
	#DEBUG_VALUE: it <- [DW_OP_constu 52, DW_OP_minus] [$rbp+0]
	#DEBUG_VALUE: result <- [DW_OP_constu 64, DW_OP_minus] [$rbp+0]
	#DEBUG_VALUE: dresult_rat <- [DW_OP_constu 176, DW_OP_minus] [$rbp+0]
	#DEBUG_VALUE: Romberg:a <- [DW_OP_constu 144, DW_OP_minus] [$rbp+0]
	#DEBUG_VALUE: a <- [DW_OP_constu 144, DW_OP_minus] [$rbp+0]
	#DEBUG_VALUE: Romberg:b <- [DW_OP_constu 224, DW_OP_minus] [$rbp+0]
	#DEBUG_VALUE: b <- [DW_OP_constu 224, DW_OP_minus] [$rbp+0]
	#DEBUG_VALUE: Romberg:func <- $r12
	#DEBUG_VALUE: Romberg:absacc <- [DW_OP_constu 200, DW_OP_minus] [$rbp+0]
	.loc	1 0 1 is_stmt 0         # backgroundfield/quadr.cpp:0:1
	movq	%r10, %rcx
	.loc	1 136 1                 # backgroundfield/quadr.cpp:136:1
	vmovsd	24(%r10), %xmm2         # xmm2 = mem[0],zero
	vsubsd	-992(%rbp), %xmm1, %xmm3
	movq	%r14, %rsi
	sarq	$29, %rsi
	vmovsd	8(%r10,%rsi), %xmm4     # xmm4 = mem[0],zero
	vsubsd	%xmm4, %xmm2, %xmm5
	vdivsd	%xmm5, %xmm3, %xmm3
	vmulsd	%xmm3, %xmm4, %xmm4
	vmovsd	%xmm4, -992(%rbp)
	vmulsd	%xmm3, %xmm2, %xmm2
	vmovsd	%xmm2, -832(%rbp)
	jmp	.LBB1_19
.Ltmp111:
.LBB1_20:                               #   in Loop: Header=BB1_1 Depth=1
	#DEBUG_VALUE: result_pol <- $xmm0
	#DEBUG_VALUE: it <- [DW_OP_constu 52, DW_OP_minus] [$rbp+0]
	#DEBUG_VALUE: result <- [DW_OP_constu 64, DW_OP_minus] [$rbp+0]
	#DEBUG_VALUE: dresult_rat <- [DW_OP_constu 176, DW_OP_minus] [$rbp+0]
	#DEBUG_VALUE: dresult_pol <- $xmm9
	#DEBUG_VALUE: Romberg:a <- [DW_OP_constu 144, DW_OP_minus] [$rbp+0]
	#DEBUG_VALUE: a <- [DW_OP_constu 144, DW_OP_minus] [$rbp+0]
	#DEBUG_VALUE: Romberg:b <- [DW_OP_constu 224, DW_OP_minus] [$rbp+0]
	#DEBUG_VALUE: b <- [DW_OP_constu 224, DW_OP_minus] [$rbp+0]
	#DEBUG_VALUE: Romberg:func <- $r12
	#DEBUG_VALUE: Romberg:absacc <- [DW_OP_constu 200, DW_OP_minus] [$rbp+0]
	.loc	1 0 1                   # backgroundfield/quadr.cpp:0:1
	movq	-152(%rbp), %r14        # 8-byte Reload
	movl	-52(%rbp), %r8d         # 4-byte Reload
.Ltmp112:
	#DEBUG_VALUE: it <- $r8d
	movq	-96(%rbp), %rcx         # 8-byte Reload
	movq	-88(%rbp), %rsi         # 8-byte Reload
	movq	-128(%rbp), %rdi        # 8-byte Reload
	movb	-192(%rbp), %r9b        # 1-byte Reload
.Ltmp113:
.LBB1_21:                               # %L.B0229
                                        #   in Loop: Header=BB1_1 Depth=1
	#DEBUG_VALUE: result_pol <- $xmm0
	#DEBUG_VALUE: result <- [DW_OP_constu 64, DW_OP_minus] [$rbp+0]
	#DEBUG_VALUE: dresult_rat <- [DW_OP_constu 176, DW_OP_minus] [$rbp+0]
	#DEBUG_VALUE: it <- $r8d
	#DEBUG_VALUE: dresult_pol <- $xmm9
	#DEBUG_VALUE: Romberg:a <- [DW_OP_constu 144, DW_OP_minus] [$rbp+0]
	#DEBUG_VALUE: a <- [DW_OP_constu 144, DW_OP_minus] [$rbp+0]
	#DEBUG_VALUE: Romberg:b <- [DW_OP_constu 224, DW_OP_minus] [$rbp+0]
	#DEBUG_VALUE: b <- [DW_OP_constu 224, DW_OP_minus] [$rbp+0]
	#DEBUG_VALUE: Romberg:func <- $r12
	#DEBUG_VALUE: Romberg:absacc <- [DW_OP_constu 200, DW_OP_minus] [$rbp+0]
	#DEBUG_VALUE: dresult_pol <- $xmm9
	#DEBUG_VALUE: result_pol <- $xmm0
	xorl	%edx, %edx
	.loc	1 136 1                 # backgroundfield/quadr.cpp:136:1
	testl	%esi, %esi
	.loc	1 119 1 is_stmt 1       # backgroundfield/quadr.cpp:119:1
	je	.LBB1_29
.Ltmp114:
# %bb.22:                               # %L.B0240
                                        #   in Loop: Header=BB1_1 Depth=1
	#DEBUG_VALUE: result_pol <- $xmm0
	#DEBUG_VALUE: result <- [DW_OP_constu 64, DW_OP_minus] [$rbp+0]
	#DEBUG_VALUE: dresult_rat <- [DW_OP_constu 176, DW_OP_minus] [$rbp+0]
	#DEBUG_VALUE: it <- $r8d
	#DEBUG_VALUE: dresult_pol <- $xmm9
	#DEBUG_VALUE: Romberg:a <- [DW_OP_constu 144, DW_OP_minus] [$rbp+0]
	#DEBUG_VALUE: a <- [DW_OP_constu 144, DW_OP_minus] [$rbp+0]
	#DEBUG_VALUE: Romberg:b <- [DW_OP_constu 224, DW_OP_minus] [$rbp+0]
	#DEBUG_VALUE: b <- [DW_OP_constu 224, DW_OP_minus] [$rbp+0]
	#DEBUG_VALUE: Romberg:func <- $r12
	#DEBUG_VALUE: Romberg:absacc <- [DW_OP_constu 200, DW_OP_minus] [$rbp+0]
	.loc	1 116 1                 # backgroundfield/quadr.cpp:116:1
	vmovsd	(%r10), %xmm1           # xmm1 = mem[0],zero
	.loc	1 120 1                 # backgroundfield/quadr.cpp:120:1
	vucomisd	%xmm8, %xmm1
	jne	.LBB1_25
	jnp	.LBB1_23
.Ltmp115:
.LBB1_25:                               # %L..inline.10861.lr.ph
                                        #   in Loop: Header=BB1_1 Depth=1
	#DEBUG_VALUE: result_pol <- $xmm0
	#DEBUG_VALUE: result <- [DW_OP_constu 64, DW_OP_minus] [$rbp+0]
	#DEBUG_VALUE: dresult_rat <- [DW_OP_constu 176, DW_OP_minus] [$rbp+0]
	#DEBUG_VALUE: it <- $r8d
	#DEBUG_VALUE: dresult_pol <- $xmm9
	#DEBUG_VALUE: Romberg:a <- [DW_OP_constu 144, DW_OP_minus] [$rbp+0]
	#DEBUG_VALUE: a <- [DW_OP_constu 144, DW_OP_minus] [$rbp+0]
	#DEBUG_VALUE: Romberg:b <- [DW_OP_constu 224, DW_OP_minus] [$rbp+0]
	#DEBUG_VALUE: b <- [DW_OP_constu 224, DW_OP_minus] [$rbp+0]
	#DEBUG_VALUE: Romberg:func <- $r12
	#DEBUG_VALUE: Romberg:absacc <- [DW_OP_constu 200, DW_OP_minus] [$rbp+0]
	.loc	1 129 1                 # backgroundfield/quadr.cpp:129:1
	movq	(%rcx), %rax
	movq	%rax, -552(%rbp)
	vmovq	%rax, %xmm2
	vaddsd	.LCPI1_3(%rip), %xmm2, %xmm2
	vmovsd	%xmm2, -392(%rbp)
	.loc	1 131 1                 # backgroundfield/quadr.cpp:131:1
	cmpq	$1, %rsi
	jbe	.LBB1_29
.Ltmp116:
# %bb.26:                               # %L..inline.10861.L..inline.10857_crit_edge
                                        #   in Loop: Header=BB1_1 Depth=1
	#DEBUG_VALUE: result_pol <- $xmm0
	#DEBUG_VALUE: result <- [DW_OP_constu 64, DW_OP_minus] [$rbp+0]
	#DEBUG_VALUE: dresult_rat <- [DW_OP_constu 176, DW_OP_minus] [$rbp+0]
	#DEBUG_VALUE: it <- $r8d
	#DEBUG_VALUE: dresult_pol <- $xmm9
	#DEBUG_VALUE: Romberg:a <- [DW_OP_constu 144, DW_OP_minus] [$rbp+0]
	#DEBUG_VALUE: a <- [DW_OP_constu 144, DW_OP_minus] [$rbp+0]
	#DEBUG_VALUE: Romberg:b <- [DW_OP_constu 224, DW_OP_minus] [$rbp+0]
	#DEBUG_VALUE: b <- [DW_OP_constu 224, DW_OP_minus] [$rbp+0]
	#DEBUG_VALUE: Romberg:func <- $r12
	#DEBUG_VALUE: Romberg:absacc <- [DW_OP_constu 200, DW_OP_minus] [$rbp+0]
	.loc	1 119 1                 # backgroundfield/quadr.cpp:119:1
	vmovsd	8(%r10), %xmm2          # xmm2 = mem[0],zero
	.loc	1 120 1                 # backgroundfield/quadr.cpp:120:1
	vucomisd	%xmm8, %xmm2
	jne	.LBB1_45
	jnp	.LBB1_27
.Ltmp117:
.LBB1_45:                               # %L..inline.10861.1
                                        #   in Loop: Header=BB1_1 Depth=1
	#DEBUG_VALUE: result_pol <- $xmm0
	#DEBUG_VALUE: result <- [DW_OP_constu 64, DW_OP_minus] [$rbp+0]
	#DEBUG_VALUE: dresult_rat <- [DW_OP_constu 176, DW_OP_minus] [$rbp+0]
	#DEBUG_VALUE: it <- $r8d
	#DEBUG_VALUE: dresult_pol <- $xmm9
	#DEBUG_VALUE: Romberg:a <- [DW_OP_constu 144, DW_OP_minus] [$rbp+0]
	#DEBUG_VALUE: a <- [DW_OP_constu 144, DW_OP_minus] [$rbp+0]
	#DEBUG_VALUE: Romberg:b <- [DW_OP_constu 224, DW_OP_minus] [$rbp+0]
	#DEBUG_VALUE: b <- [DW_OP_constu 224, DW_OP_minus] [$rbp+0]
	#DEBUG_VALUE: Romberg:func <- $r12
	#DEBUG_VALUE: Romberg:absacc <- [DW_OP_constu 200, DW_OP_minus] [$rbp+0]
	.loc	1 0 0 is_stmt 0         # backgroundfield/quadr.cpp:0:0
	vandpd	%xmm6, %xmm1, %xmm1
	vminsd	%xmm1, %xmm1, %xmm1
	vandpd	%xmm6, %xmm2, %xmm2
	.loc	1 125 1 is_stmt 1       # backgroundfield/quadr.cpp:125:1
	xorl	%edx, %edx
	vucomisd	%xmm2, %xmm1
	seta	%dl
	.loc	1 129 1                 # backgroundfield/quadr.cpp:129:1
	movq	8(%rcx), %rax
	movq	%rax, -544(%rbp)
	vmovq	%rax, %xmm3
	vaddsd	.LCPI1_3(%rip), %xmm3, %xmm3
	vmovsd	%xmm3, -384(%rbp)
	.loc	1 131 1                 # backgroundfield/quadr.cpp:131:1
	cmpq	$3, %rsi
	jb	.LBB1_29
.Ltmp118:
# %bb.46:                               # %L..inline.10861.L..inline.10857_crit_edge.1
                                        #   in Loop: Header=BB1_1 Depth=1
	#DEBUG_VALUE: result_pol <- $xmm0
	#DEBUG_VALUE: result <- [DW_OP_constu 64, DW_OP_minus] [$rbp+0]
	#DEBUG_VALUE: dresult_rat <- [DW_OP_constu 176, DW_OP_minus] [$rbp+0]
	#DEBUG_VALUE: it <- $r8d
	#DEBUG_VALUE: dresult_pol <- $xmm9
	#DEBUG_VALUE: Romberg:a <- [DW_OP_constu 144, DW_OP_minus] [$rbp+0]
	#DEBUG_VALUE: a <- [DW_OP_constu 144, DW_OP_minus] [$rbp+0]
	#DEBUG_VALUE: Romberg:b <- [DW_OP_constu 224, DW_OP_minus] [$rbp+0]
	#DEBUG_VALUE: b <- [DW_OP_constu 224, DW_OP_minus] [$rbp+0]
	#DEBUG_VALUE: Romberg:func <- $r12
	#DEBUG_VALUE: Romberg:absacc <- [DW_OP_constu 200, DW_OP_minus] [$rbp+0]
	.loc	1 119 1                 # backgroundfield/quadr.cpp:119:1
	vmovsd	16(%r10), %xmm3         # xmm3 = mem[0],zero
	.loc	1 120 1                 # backgroundfield/quadr.cpp:120:1
	vucomisd	%xmm8, %xmm3
	jne	.LBB1_48
	jnp	.LBB1_47
.Ltmp119:
.LBB1_48:                               # %L..inline.10861.2
                                        #   in Loop: Header=BB1_1 Depth=1
	#DEBUG_VALUE: result_pol <- $xmm0
	#DEBUG_VALUE: result <- [DW_OP_constu 64, DW_OP_minus] [$rbp+0]
	#DEBUG_VALUE: dresult_rat <- [DW_OP_constu 176, DW_OP_minus] [$rbp+0]
	#DEBUG_VALUE: it <- $r8d
	#DEBUG_VALUE: dresult_pol <- $xmm9
	#DEBUG_VALUE: Romberg:a <- [DW_OP_constu 144, DW_OP_minus] [$rbp+0]
	#DEBUG_VALUE: a <- [DW_OP_constu 144, DW_OP_minus] [$rbp+0]
	#DEBUG_VALUE: Romberg:b <- [DW_OP_constu 224, DW_OP_minus] [$rbp+0]
	#DEBUG_VALUE: b <- [DW_OP_constu 224, DW_OP_minus] [$rbp+0]
	#DEBUG_VALUE: Romberg:func <- $r12
	#DEBUG_VALUE: Romberg:absacc <- [DW_OP_constu 200, DW_OP_minus] [$rbp+0]
	.loc	1 0 0 is_stmt 0         # backgroundfield/quadr.cpp:0:0
	vminsd	%xmm1, %xmm2, %xmm1
	vandpd	%xmm6, %xmm3, %xmm2
	.loc	1 125 1 is_stmt 1       # backgroundfield/quadr.cpp:125:1
	vucomisd	%xmm2, %xmm1
	movl	$2, %eax
	cmoval	%eax, %edx
	.loc	1 129 1                 # backgroundfield/quadr.cpp:129:1
	movq	16(%rcx), %rax
	movq	%rax, -536(%rbp)
	vmovq	%rax, %xmm3
	vaddsd	.LCPI1_3(%rip), %xmm3, %xmm3
	vmovsd	%xmm3, -376(%rbp)
	.loc	1 131 1                 # backgroundfield/quadr.cpp:131:1
	cmpq	$4, %rsi
	jb	.LBB1_29
.Ltmp120:
# %bb.49:                               # %L..inline.10861.L..inline.10857_crit_edge.2
                                        #   in Loop: Header=BB1_1 Depth=1
	#DEBUG_VALUE: result_pol <- $xmm0
	#DEBUG_VALUE: result <- [DW_OP_constu 64, DW_OP_minus] [$rbp+0]
	#DEBUG_VALUE: dresult_rat <- [DW_OP_constu 176, DW_OP_minus] [$rbp+0]
	#DEBUG_VALUE: it <- $r8d
	#DEBUG_VALUE: dresult_pol <- $xmm9
	#DEBUG_VALUE: Romberg:a <- [DW_OP_constu 144, DW_OP_minus] [$rbp+0]
	#DEBUG_VALUE: a <- [DW_OP_constu 144, DW_OP_minus] [$rbp+0]
	#DEBUG_VALUE: Romberg:b <- [DW_OP_constu 224, DW_OP_minus] [$rbp+0]
	#DEBUG_VALUE: b <- [DW_OP_constu 224, DW_OP_minus] [$rbp+0]
	#DEBUG_VALUE: Romberg:func <- $r12
	#DEBUG_VALUE: Romberg:absacc <- [DW_OP_constu 200, DW_OP_minus] [$rbp+0]
	.loc	1 119 1                 # backgroundfield/quadr.cpp:119:1
	vmovsd	24(%r10), %xmm3         # xmm3 = mem[0],zero
	.loc	1 120 1                 # backgroundfield/quadr.cpp:120:1
	vucomisd	%xmm8, %xmm3
	jne	.LBB1_51
	jnp	.LBB1_50
.Ltmp121:
.LBB1_51:                               # %L..inline.10861.3
                                        #   in Loop: Header=BB1_1 Depth=1
	#DEBUG_VALUE: result_pol <- $xmm0
	#DEBUG_VALUE: result <- [DW_OP_constu 64, DW_OP_minus] [$rbp+0]
	#DEBUG_VALUE: dresult_rat <- [DW_OP_constu 176, DW_OP_minus] [$rbp+0]
	#DEBUG_VALUE: it <- $r8d
	#DEBUG_VALUE: dresult_pol <- $xmm9
	#DEBUG_VALUE: Romberg:a <- [DW_OP_constu 144, DW_OP_minus] [$rbp+0]
	#DEBUG_VALUE: a <- [DW_OP_constu 144, DW_OP_minus] [$rbp+0]
	#DEBUG_VALUE: Romberg:b <- [DW_OP_constu 224, DW_OP_minus] [$rbp+0]
	#DEBUG_VALUE: b <- [DW_OP_constu 224, DW_OP_minus] [$rbp+0]
	#DEBUG_VALUE: Romberg:func <- $r12
	#DEBUG_VALUE: Romberg:absacc <- [DW_OP_constu 200, DW_OP_minus] [$rbp+0]
	.loc	1 0 0 is_stmt 0         # backgroundfield/quadr.cpp:0:0
	vminsd	%xmm1, %xmm2, %xmm1
	vandpd	%xmm6, %xmm3, %xmm2
	.loc	1 125 1 is_stmt 1       # backgroundfield/quadr.cpp:125:1
	vucomisd	%xmm2, %xmm1
	movl	$3, %eax
	cmoval	%eax, %edx
	.loc	1 129 1                 # backgroundfield/quadr.cpp:129:1
	movq	24(%rcx), %rax
	movq	%rax, -528(%rbp)
	vmovq	%rax, %xmm3
	vaddsd	.LCPI1_3(%rip), %xmm3, %xmm3
	vmovsd	%xmm3, -368(%rbp)
	.loc	1 131 1                 # backgroundfield/quadr.cpp:131:1
	cmpq	$5, %rsi
	jb	.LBB1_29
.Ltmp122:
# %bb.52:                               # %L..inline.10861.L..inline.10857_crit_edge.3
                                        #   in Loop: Header=BB1_1 Depth=1
	#DEBUG_VALUE: result_pol <- $xmm0
	#DEBUG_VALUE: result <- [DW_OP_constu 64, DW_OP_minus] [$rbp+0]
	#DEBUG_VALUE: dresult_rat <- [DW_OP_constu 176, DW_OP_minus] [$rbp+0]
	#DEBUG_VALUE: it <- $r8d
	#DEBUG_VALUE: dresult_pol <- $xmm9
	#DEBUG_VALUE: Romberg:a <- [DW_OP_constu 144, DW_OP_minus] [$rbp+0]
	#DEBUG_VALUE: a <- [DW_OP_constu 144, DW_OP_minus] [$rbp+0]
	#DEBUG_VALUE: Romberg:b <- [DW_OP_constu 224, DW_OP_minus] [$rbp+0]
	#DEBUG_VALUE: b <- [DW_OP_constu 224, DW_OP_minus] [$rbp+0]
	#DEBUG_VALUE: Romberg:func <- $r12
	#DEBUG_VALUE: Romberg:absacc <- [DW_OP_constu 200, DW_OP_minus] [$rbp+0]
	.loc	1 119 1                 # backgroundfield/quadr.cpp:119:1
	vmovsd	32(%r10), %xmm3         # xmm3 = mem[0],zero
	.loc	1 120 1                 # backgroundfield/quadr.cpp:120:1
	vucomisd	%xmm8, %xmm3
	jne	.LBB1_28
	jnp	.LBB1_53
.Ltmp123:
.LBB1_28:                               # %L..inline.10861.4
                                        #   in Loop: Header=BB1_1 Depth=1
	#DEBUG_VALUE: result_pol <- $xmm0
	#DEBUG_VALUE: result <- [DW_OP_constu 64, DW_OP_minus] [$rbp+0]
	#DEBUG_VALUE: dresult_rat <- [DW_OP_constu 176, DW_OP_minus] [$rbp+0]
	#DEBUG_VALUE: it <- $r8d
	#DEBUG_VALUE: dresult_pol <- $xmm9
	#DEBUG_VALUE: Romberg:a <- [DW_OP_constu 144, DW_OP_minus] [$rbp+0]
	#DEBUG_VALUE: a <- [DW_OP_constu 144, DW_OP_minus] [$rbp+0]
	#DEBUG_VALUE: Romberg:b <- [DW_OP_constu 224, DW_OP_minus] [$rbp+0]
	#DEBUG_VALUE: b <- [DW_OP_constu 224, DW_OP_minus] [$rbp+0]
	#DEBUG_VALUE: Romberg:func <- $r12
	#DEBUG_VALUE: Romberg:absacc <- [DW_OP_constu 200, DW_OP_minus] [$rbp+0]
	.loc	1 119 1                 # backgroundfield/quadr.cpp:119:1
	vandpd	%xmm6, %xmm3, %xmm3
	.loc	1 125 1                 # backgroundfield/quadr.cpp:125:1
	vminsd	%xmm1, %xmm2, %xmm1
	vucomisd	%xmm3, %xmm1
	movl	$4, %eax
	cmoval	%eax, %edx
	.loc	1 129 1                 # backgroundfield/quadr.cpp:129:1
	movq	32(%rcx), %rax
	movq	%rax, -520(%rbp)
	vmovq	%rax, %xmm1
	vaddsd	.LCPI1_3(%rip), %xmm1, %xmm1
	vmovsd	%xmm1, -360(%rbp)
.Ltmp124:
.LBB1_29:                               # %L..inline.10859
                                        #   in Loop: Header=BB1_1 Depth=1
	#DEBUG_VALUE: result_pol <- $xmm0
	#DEBUG_VALUE: result <- [DW_OP_constu 64, DW_OP_minus] [$rbp+0]
	#DEBUG_VALUE: dresult_rat <- [DW_OP_constu 176, DW_OP_minus] [$rbp+0]
	#DEBUG_VALUE: it <- $r8d
	#DEBUG_VALUE: dresult_pol <- $xmm9
	#DEBUG_VALUE: Romberg:a <- [DW_OP_constu 144, DW_OP_minus] [$rbp+0]
	#DEBUG_VALUE: a <- [DW_OP_constu 144, DW_OP_minus] [$rbp+0]
	#DEBUG_VALUE: Romberg:b <- [DW_OP_constu 224, DW_OP_minus] [$rbp+0]
	#DEBUG_VALUE: b <- [DW_OP_constu 224, DW_OP_minus] [$rbp+0]
	#DEBUG_VALUE: Romberg:func <- $r12
	#DEBUG_VALUE: Romberg:absacc <- [DW_OP_constu 200, DW_OP_minus] [$rbp+0]
	.loc	1 133 1                 # backgroundfield/quadr.cpp:133:1
	movl	%edx, %eax
	vmovsd	(%rcx,%rax,8), %xmm1    # xmm1 = mem[0],zero
.Ltmp125:
	#DEBUG_VALUE: result_rat <- $xmm1
	.loc	1 135 1                 # backgroundfield/quadr.cpp:135:1
	testb	%r9b, %r9b
	je	.LBB1_31
.Ltmp126:
# %bb.30:                               #   in Loop: Header=BB1_1 Depth=1
	#DEBUG_VALUE: result_rat <- $xmm1
	#DEBUG_VALUE: result_pol <- $xmm0
	#DEBUG_VALUE: result <- [DW_OP_constu 64, DW_OP_minus] [$rbp+0]
	#DEBUG_VALUE: dresult_rat <- [DW_OP_constu 176, DW_OP_minus] [$rbp+0]
	#DEBUG_VALUE: it <- $r8d
	#DEBUG_VALUE: dresult_pol <- $xmm9
	#DEBUG_VALUE: Romberg:a <- [DW_OP_constu 144, DW_OP_minus] [$rbp+0]
	#DEBUG_VALUE: a <- [DW_OP_constu 144, DW_OP_minus] [$rbp+0]
	#DEBUG_VALUE: Romberg:b <- [DW_OP_constu 224, DW_OP_minus] [$rbp+0]
	#DEBUG_VALUE: b <- [DW_OP_constu 224, DW_OP_minus] [$rbp+0]
	#DEBUG_VALUE: Romberg:func <- $r12
	#DEBUG_VALUE: Romberg:absacc <- [DW_OP_constu 200, DW_OP_minus] [$rbp+0]
	.loc	1 0 1 is_stmt 0         # backgroundfield/quadr.cpp:0:1
	movq	-80(%rbp), %rcx         # 8-byte Reload
	movq	-72(%rbp), %r13         # 8-byte Reload
	vmovsd	-64(%rbp), %xmm8        # 8-byte Reload
                                        # xmm8 = mem[0],zero
.Ltmp127:
	#DEBUG_VALUE: result <- $xmm8
	movq	-104(%rbp), %rdx        # 8-byte Reload
	vmovapd	-176(%rbp), %xmm6       # 16-byte Reload
.Ltmp128:
	#DEBUG_VALUE: dresult_rat <- $xmm6
	jmp	.LBB1_36
.Ltmp129:
.LBB1_31:                               # %L.B0243
                                        #   in Loop: Header=BB1_1 Depth=1
	#DEBUG_VALUE: result_rat <- $xmm1
	#DEBUG_VALUE: result_pol <- $xmm0
	#DEBUG_VALUE: result <- [DW_OP_constu 64, DW_OP_minus] [$rbp+0]
	#DEBUG_VALUE: dresult_rat <- [DW_OP_constu 176, DW_OP_minus] [$rbp+0]
	#DEBUG_VALUE: it <- $r8d
	#DEBUG_VALUE: dresult_pol <- $xmm9
	#DEBUG_VALUE: Romberg:a <- [DW_OP_constu 144, DW_OP_minus] [$rbp+0]
	#DEBUG_VALUE: a <- [DW_OP_constu 144, DW_OP_minus] [$rbp+0]
	#DEBUG_VALUE: Romberg:b <- [DW_OP_constu 224, DW_OP_minus] [$rbp+0]
	#DEBUG_VALUE: b <- [DW_OP_constu 224, DW_OP_minus] [$rbp+0]
	#DEBUG_VALUE: Romberg:func <- $r12
	#DEBUG_VALUE: Romberg:absacc <- [DW_OP_constu 200, DW_OP_minus] [$rbp+0]
	leaq	-688(%rbp), %rax
	leaq	(%rax,%rdi,8), %rax
	addq	$24, %rax
	decq	%r15
	.loc	1 133 1 is_stmt 1       # backgroundfield/quadr.cpp:133:1
	decl	%edx
	.loc	1 0 0 is_stmt 0         # backgroundfield/quadr.cpp:0:0
	vmovsd	(%r10), %xmm2           # xmm2 = mem[0],zero
	vmovsd	-520(%rbp), %xmm3       # xmm3 = mem[0],zero
	jmp	.LBB1_32
.Ltmp130:
.LBB1_59:                               # %L..inline.10877.3
                                        #   in Loop: Header=BB1_32 Depth=2
	#DEBUG_VALUE: result_rat <- $xmm1
	#DEBUG_VALUE: result_pol <- $xmm0
	#DEBUG_VALUE: result <- [DW_OP_constu 64, DW_OP_minus] [$rbp+0]
	#DEBUG_VALUE: it <- $r8d
	#DEBUG_VALUE: dresult_pol <- $xmm9
	#DEBUG_VALUE: Romberg:a <- [DW_OP_constu 144, DW_OP_minus] [$rbp+0]
	#DEBUG_VALUE: a <- [DW_OP_constu 144, DW_OP_minus] [$rbp+0]
	#DEBUG_VALUE: Romberg:b <- [DW_OP_constu 224, DW_OP_minus] [$rbp+0]
	#DEBUG_VALUE: b <- [DW_OP_constu 224, DW_OP_minus] [$rbp+0]
	#DEBUG_VALUE: Romberg:func <- $r12
	#DEBUG_VALUE: Romberg:absacc <- [DW_OP_constu 200, DW_OP_minus] [$rbp+0]
	.loc	1 136 1 is_stmt 1       # backgroundfield/quadr.cpp:136:1
	vsubsd	%xmm5, %xmm3, %xmm5
	.loc	1 146 1                 # backgroundfield/quadr.cpp:146:1
	vdivsd	%xmm6, %xmm5, %xmm5
	vmulsd	%xmm5, %xmm3, %xmm6
	vmovsd	%xmm6, -368(%rbp)
	.loc	1 147 1                 # backgroundfield/quadr.cpp:147:1
	vmulsd	%xmm5, %xmm4, %xmm4
	vmovsd	%xmm4, -528(%rbp)
.Ltmp131:
	.p2align	4, 0x90
.LBB1_34:                               # %L..inline.10873
                                        #   in Loop: Header=BB1_32 Depth=2
	#DEBUG_VALUE: result_rat <- $xmm1
	#DEBUG_VALUE: result_pol <- $xmm0
	#DEBUG_VALUE: result <- [DW_OP_constu 64, DW_OP_minus] [$rbp+0]
	#DEBUG_VALUE: it <- $r8d
	#DEBUG_VALUE: dresult_pol <- $xmm9
	#DEBUG_VALUE: Romberg:a <- [DW_OP_constu 144, DW_OP_minus] [$rbp+0]
	#DEBUG_VALUE: a <- [DW_OP_constu 144, DW_OP_minus] [$rbp+0]
	#DEBUG_VALUE: Romberg:b <- [DW_OP_constu 224, DW_OP_minus] [$rbp+0]
	#DEBUG_VALUE: b <- [DW_OP_constu 224, DW_OP_minus] [$rbp+0]
	#DEBUG_VALUE: Romberg:func <- $r12
	#DEBUG_VALUE: Romberg:absacc <- [DW_OP_constu 200, DW_OP_minus] [$rbp+0]
	.loc	1 149 1                 # backgroundfield/quadr.cpp:149:1
	leal	(%rdx,%rdx), %ecx
	addl	$2, %ecx
	movslq	%ecx, %rcx
	xorl	%esi, %esi
	cmpq	%rcx, %r15
	setle	%sil
	movslq	%edx, %rdx
	leaq	-392(%rbp,%rdx,8), %rcx
	leaq	-544(%rbp), %rdi
	leaq	(%rdi,%rdx,8), %rdi
	cmovleq	%rcx, %rdi
	subl	%esi, %edx
	.loc	1 151 1                 # backgroundfield/quadr.cpp:151:1
	vmovsd	(%rdi), %xmm6           # xmm6 = mem[0],zero
.Ltmp132:
	#DEBUG_VALUE: dresult_rat <- $xmm6
	vaddsd	%xmm6, %xmm1, %xmm1
.Ltmp133:
	#DEBUG_VALUE: result_rat <- $xmm1
	.loc	1 152 1                 # backgroundfield/quadr.cpp:152:1
	addq	$8, %rax
	decq	%r15
	testl	%r15d, %r15d
	jle	.LBB1_35
.Ltmp134:
.LBB1_32:                               # %L..inline.10872.preheader
                                        #   Parent Loop BB1_1 Depth=1
                                        # =>  This Inner Loop Header: Depth=2
	#DEBUG_VALUE: result_rat <- $xmm1
	#DEBUG_VALUE: result_pol <- $xmm0
	#DEBUG_VALUE: result <- [DW_OP_constu 64, DW_OP_minus] [$rbp+0]
	#DEBUG_VALUE: it <- $r8d
	#DEBUG_VALUE: dresult_pol <- $xmm9
	#DEBUG_VALUE: Romberg:a <- [DW_OP_constu 144, DW_OP_minus] [$rbp+0]
	#DEBUG_VALUE: a <- [DW_OP_constu 144, DW_OP_minus] [$rbp+0]
	#DEBUG_VALUE: Romberg:b <- [DW_OP_constu 224, DW_OP_minus] [$rbp+0]
	#DEBUG_VALUE: b <- [DW_OP_constu 224, DW_OP_minus] [$rbp+0]
	#DEBUG_VALUE: Romberg:func <- $r12
	#DEBUG_VALUE: Romberg:absacc <- [DW_OP_constu 200, DW_OP_minus] [$rbp+0]
	#DEBUG_VALUE: result_rat <- $xmm1
	.loc	1 136 1                 # backgroundfield/quadr.cpp:136:1
	vmovsd	-544(%rbp), %xmm4       # xmm4 = mem[0],zero
	vmovsd	-392(%rbp), %xmm6       # xmm6 = mem[0],zero
	.loc	1 138 1                 # backgroundfield/quadr.cpp:138:1
	vmulsd	%xmm2, %xmm6, %xmm5
	vdivsd	-24(%rax), %xmm5, %xmm5
	.loc	1 139 1                 # backgroundfield/quadr.cpp:139:1
	vsubsd	%xmm4, %xmm5, %xmm7
	.loc	1 140 1                 # backgroundfield/quadr.cpp:140:1
	vucomisd	%xmm8, %xmm7
	jne	.LBB1_33
	jnp	.LBB1_60
.Ltmp135:
.LBB1_33:                               # %L..inline.10877
                                        #   in Loop: Header=BB1_32 Depth=2
	#DEBUG_VALUE: result_rat <- $xmm1
	#DEBUG_VALUE: result_pol <- $xmm0
	#DEBUG_VALUE: result <- [DW_OP_constu 64, DW_OP_minus] [$rbp+0]
	#DEBUG_VALUE: it <- $r8d
	#DEBUG_VALUE: dresult_pol <- $xmm9
	#DEBUG_VALUE: Romberg:a <- [DW_OP_constu 144, DW_OP_minus] [$rbp+0]
	#DEBUG_VALUE: a <- [DW_OP_constu 144, DW_OP_minus] [$rbp+0]
	#DEBUG_VALUE: Romberg:b <- [DW_OP_constu 224, DW_OP_minus] [$rbp+0]
	#DEBUG_VALUE: b <- [DW_OP_constu 224, DW_OP_minus] [$rbp+0]
	#DEBUG_VALUE: Romberg:func <- $r12
	#DEBUG_VALUE: Romberg:absacc <- [DW_OP_constu 200, DW_OP_minus] [$rbp+0]
	.loc	1 136 1                 # backgroundfield/quadr.cpp:136:1
	vsubsd	%xmm6, %xmm4, %xmm6
	.loc	1 146 1                 # backgroundfield/quadr.cpp:146:1
	vdivsd	%xmm7, %xmm6, %xmm6
	vmulsd	%xmm6, %xmm4, %xmm4
	vmovsd	%xmm4, -392(%rbp)
	.loc	1 147 1                 # backgroundfield/quadr.cpp:147:1
	vmulsd	%xmm6, %xmm5, %xmm4
	vmovsd	%xmm4, -552(%rbp)
	.loc	1 149 1                 # backgroundfield/quadr.cpp:149:1
	cmpq	$1, %r15
	jle	.LBB1_34
.Ltmp136:
# %bb.54:                               # %L..inline.10872.1
                                        #   in Loop: Header=BB1_32 Depth=2
	#DEBUG_VALUE: result_rat <- $xmm1
	#DEBUG_VALUE: result_pol <- $xmm0
	#DEBUG_VALUE: result <- [DW_OP_constu 64, DW_OP_minus] [$rbp+0]
	#DEBUG_VALUE: it <- $r8d
	#DEBUG_VALUE: dresult_pol <- $xmm9
	#DEBUG_VALUE: Romberg:a <- [DW_OP_constu 144, DW_OP_minus] [$rbp+0]
	#DEBUG_VALUE: a <- [DW_OP_constu 144, DW_OP_minus] [$rbp+0]
	#DEBUG_VALUE: Romberg:b <- [DW_OP_constu 224, DW_OP_minus] [$rbp+0]
	#DEBUG_VALUE: b <- [DW_OP_constu 224, DW_OP_minus] [$rbp+0]
	#DEBUG_VALUE: Romberg:func <- $r12
	#DEBUG_VALUE: Romberg:absacc <- [DW_OP_constu 200, DW_OP_minus] [$rbp+0]
	.loc	1 136 1                 # backgroundfield/quadr.cpp:136:1
	vmovsd	-536(%rbp), %xmm4       # xmm4 = mem[0],zero
	vmovsd	-384(%rbp), %xmm6       # xmm6 = mem[0],zero
	.loc	1 138 1                 # backgroundfield/quadr.cpp:138:1
	vmulsd	8(%r10), %xmm6, %xmm5
	vdivsd	-16(%rax), %xmm5, %xmm5
	.loc	1 139 1                 # backgroundfield/quadr.cpp:139:1
	vsubsd	%xmm4, %xmm5, %xmm7
	.loc	1 140 1                 # backgroundfield/quadr.cpp:140:1
	vucomisd	%xmm8, %xmm7
	jne	.LBB1_55
	jnp	.LBB1_60
.Ltmp137:
.LBB1_55:                               # %L..inline.10877.1
                                        #   in Loop: Header=BB1_32 Depth=2
	#DEBUG_VALUE: result_rat <- $xmm1
	#DEBUG_VALUE: result_pol <- $xmm0
	#DEBUG_VALUE: result <- [DW_OP_constu 64, DW_OP_minus] [$rbp+0]
	#DEBUG_VALUE: it <- $r8d
	#DEBUG_VALUE: dresult_pol <- $xmm9
	#DEBUG_VALUE: Romberg:a <- [DW_OP_constu 144, DW_OP_minus] [$rbp+0]
	#DEBUG_VALUE: a <- [DW_OP_constu 144, DW_OP_minus] [$rbp+0]
	#DEBUG_VALUE: Romberg:b <- [DW_OP_constu 224, DW_OP_minus] [$rbp+0]
	#DEBUG_VALUE: b <- [DW_OP_constu 224, DW_OP_minus] [$rbp+0]
	#DEBUG_VALUE: Romberg:func <- $r12
	#DEBUG_VALUE: Romberg:absacc <- [DW_OP_constu 200, DW_OP_minus] [$rbp+0]
	.loc	1 136 1                 # backgroundfield/quadr.cpp:136:1
	vsubsd	%xmm6, %xmm4, %xmm6
	.loc	1 146 1                 # backgroundfield/quadr.cpp:146:1
	vdivsd	%xmm7, %xmm6, %xmm6
	vmulsd	%xmm6, %xmm4, %xmm4
	vmovsd	%xmm4, -384(%rbp)
	.loc	1 147 1                 # backgroundfield/quadr.cpp:147:1
	vmulsd	%xmm6, %xmm5, %xmm4
	vmovsd	%xmm4, -544(%rbp)
	.loc	1 149 1                 # backgroundfield/quadr.cpp:149:1
	cmpq	$3, %r15
	jl	.LBB1_34
.Ltmp138:
# %bb.56:                               # %L..inline.10872.2
                                        #   in Loop: Header=BB1_32 Depth=2
	#DEBUG_VALUE: result_rat <- $xmm1
	#DEBUG_VALUE: result_pol <- $xmm0
	#DEBUG_VALUE: result <- [DW_OP_constu 64, DW_OP_minus] [$rbp+0]
	#DEBUG_VALUE: it <- $r8d
	#DEBUG_VALUE: dresult_pol <- $xmm9
	#DEBUG_VALUE: Romberg:a <- [DW_OP_constu 144, DW_OP_minus] [$rbp+0]
	#DEBUG_VALUE: a <- [DW_OP_constu 144, DW_OP_minus] [$rbp+0]
	#DEBUG_VALUE: Romberg:b <- [DW_OP_constu 224, DW_OP_minus] [$rbp+0]
	#DEBUG_VALUE: b <- [DW_OP_constu 224, DW_OP_minus] [$rbp+0]
	#DEBUG_VALUE: Romberg:func <- $r12
	#DEBUG_VALUE: Romberg:absacc <- [DW_OP_constu 200, DW_OP_minus] [$rbp+0]
	.loc	1 136 1                 # backgroundfield/quadr.cpp:136:1
	vmovsd	-528(%rbp), %xmm4       # xmm4 = mem[0],zero
	vmovsd	-376(%rbp), %xmm6       # xmm6 = mem[0],zero
	.loc	1 138 1                 # backgroundfield/quadr.cpp:138:1
	vmulsd	16(%r10), %xmm6, %xmm5
	vdivsd	-8(%rax), %xmm5, %xmm5
	.loc	1 139 1                 # backgroundfield/quadr.cpp:139:1
	vsubsd	%xmm4, %xmm5, %xmm7
	.loc	1 140 1                 # backgroundfield/quadr.cpp:140:1
	vucomisd	%xmm8, %xmm7
	jne	.LBB1_57
	jnp	.LBB1_60
.Ltmp139:
.LBB1_57:                               # %L..inline.10877.2
                                        #   in Loop: Header=BB1_32 Depth=2
	#DEBUG_VALUE: result_rat <- $xmm1
	#DEBUG_VALUE: result_pol <- $xmm0
	#DEBUG_VALUE: result <- [DW_OP_constu 64, DW_OP_minus] [$rbp+0]
	#DEBUG_VALUE: it <- $r8d
	#DEBUG_VALUE: dresult_pol <- $xmm9
	#DEBUG_VALUE: Romberg:a <- [DW_OP_constu 144, DW_OP_minus] [$rbp+0]
	#DEBUG_VALUE: a <- [DW_OP_constu 144, DW_OP_minus] [$rbp+0]
	#DEBUG_VALUE: Romberg:b <- [DW_OP_constu 224, DW_OP_minus] [$rbp+0]
	#DEBUG_VALUE: b <- [DW_OP_constu 224, DW_OP_minus] [$rbp+0]
	#DEBUG_VALUE: Romberg:func <- $r12
	#DEBUG_VALUE: Romberg:absacc <- [DW_OP_constu 200, DW_OP_minus] [$rbp+0]
	.loc	1 136 1                 # backgroundfield/quadr.cpp:136:1
	vsubsd	%xmm6, %xmm4, %xmm6
	.loc	1 146 1                 # backgroundfield/quadr.cpp:146:1
	vdivsd	%xmm7, %xmm6, %xmm6
	vmulsd	%xmm6, %xmm4, %xmm4
	vmovsd	%xmm4, -376(%rbp)
	.loc	1 147 1                 # backgroundfield/quadr.cpp:147:1
	vmulsd	%xmm6, %xmm5, %xmm4
	vmovsd	%xmm4, -536(%rbp)
	.loc	1 149 1                 # backgroundfield/quadr.cpp:149:1
	cmpq	$4, %r15
	jl	.LBB1_34
.Ltmp140:
# %bb.58:                               # %L..inline.10872.3
                                        #   in Loop: Header=BB1_32 Depth=2
	#DEBUG_VALUE: result_rat <- $xmm1
	#DEBUG_VALUE: result_pol <- $xmm0
	#DEBUG_VALUE: result <- [DW_OP_constu 64, DW_OP_minus] [$rbp+0]
	#DEBUG_VALUE: it <- $r8d
	#DEBUG_VALUE: dresult_pol <- $xmm9
	#DEBUG_VALUE: Romberg:a <- [DW_OP_constu 144, DW_OP_minus] [$rbp+0]
	#DEBUG_VALUE: a <- [DW_OP_constu 144, DW_OP_minus] [$rbp+0]
	#DEBUG_VALUE: Romberg:b <- [DW_OP_constu 224, DW_OP_minus] [$rbp+0]
	#DEBUG_VALUE: b <- [DW_OP_constu 224, DW_OP_minus] [$rbp+0]
	#DEBUG_VALUE: Romberg:func <- $r12
	#DEBUG_VALUE: Romberg:absacc <- [DW_OP_constu 200, DW_OP_minus] [$rbp+0]
	.loc	1 136 1                 # backgroundfield/quadr.cpp:136:1
	vmovsd	-368(%rbp), %xmm5       # xmm5 = mem[0],zero
	.loc	1 138 1                 # backgroundfield/quadr.cpp:138:1
	vmulsd	24(%r10), %xmm5, %xmm4
	vdivsd	(%rax), %xmm4, %xmm4
	.loc	1 139 1                 # backgroundfield/quadr.cpp:139:1
	vsubsd	%xmm3, %xmm4, %xmm6
	.loc	1 140 1                 # backgroundfield/quadr.cpp:140:1
	vucomisd	%xmm8, %xmm6
	jne	.LBB1_59
	jp	.LBB1_59
	jmp	.LBB1_60
.Ltmp141:
.LBB1_23:                               #   in Loop: Header=BB1_1 Depth=1
	#DEBUG_VALUE: result_pol <- $xmm0
	#DEBUG_VALUE: result <- [DW_OP_constu 64, DW_OP_minus] [$rbp+0]
	#DEBUG_VALUE: dresult_rat <- [DW_OP_constu 176, DW_OP_minus] [$rbp+0]
	#DEBUG_VALUE: it <- $r8d
	#DEBUG_VALUE: dresult_pol <- $xmm9
	#DEBUG_VALUE: Romberg:a <- [DW_OP_constu 144, DW_OP_minus] [$rbp+0]
	#DEBUG_VALUE: a <- [DW_OP_constu 144, DW_OP_minus] [$rbp+0]
	#DEBUG_VALUE: Romberg:b <- [DW_OP_constu 224, DW_OP_minus] [$rbp+0]
	#DEBUG_VALUE: b <- [DW_OP_constu 224, DW_OP_minus] [$rbp+0]
	#DEBUG_VALUE: Romberg:func <- $r12
	#DEBUG_VALUE: Romberg:absacc <- [DW_OP_constu 200, DW_OP_minus] [$rbp+0]
	.loc	1 198 1                 # backgroundfield/quadr.cpp:198:1
	xorl	%eax, %eax
	jmp	.LBB1_24
.Ltmp142:
.LBB1_27:                               #   in Loop: Header=BB1_1 Depth=1
	#DEBUG_VALUE: result_pol <- $xmm0
	#DEBUG_VALUE: result <- [DW_OP_constu 64, DW_OP_minus] [$rbp+0]
	#DEBUG_VALUE: dresult_rat <- [DW_OP_constu 176, DW_OP_minus] [$rbp+0]
	#DEBUG_VALUE: it <- $r8d
	#DEBUG_VALUE: dresult_pol <- $xmm9
	#DEBUG_VALUE: Romberg:a <- [DW_OP_constu 144, DW_OP_minus] [$rbp+0]
	#DEBUG_VALUE: a <- [DW_OP_constu 144, DW_OP_minus] [$rbp+0]
	#DEBUG_VALUE: Romberg:b <- [DW_OP_constu 224, DW_OP_minus] [$rbp+0]
	#DEBUG_VALUE: b <- [DW_OP_constu 224, DW_OP_minus] [$rbp+0]
	#DEBUG_VALUE: Romberg:func <- $r12
	#DEBUG_VALUE: Romberg:absacc <- [DW_OP_constu 200, DW_OP_minus] [$rbp+0]
	.loc	1 0 1 is_stmt 0         # backgroundfield/quadr.cpp:0:1
	movl	$1, %eax
	jmp	.LBB1_24
.Ltmp143:
.LBB1_47:                               #   in Loop: Header=BB1_1 Depth=1
	#DEBUG_VALUE: result_pol <- $xmm0
	#DEBUG_VALUE: result <- [DW_OP_constu 64, DW_OP_minus] [$rbp+0]
	#DEBUG_VALUE: dresult_rat <- [DW_OP_constu 176, DW_OP_minus] [$rbp+0]
	#DEBUG_VALUE: it <- $r8d
	#DEBUG_VALUE: dresult_pol <- $xmm9
	#DEBUG_VALUE: Romberg:a <- [DW_OP_constu 144, DW_OP_minus] [$rbp+0]
	#DEBUG_VALUE: a <- [DW_OP_constu 144, DW_OP_minus] [$rbp+0]
	#DEBUG_VALUE: Romberg:b <- [DW_OP_constu 224, DW_OP_minus] [$rbp+0]
	#DEBUG_VALUE: b <- [DW_OP_constu 224, DW_OP_minus] [$rbp+0]
	#DEBUG_VALUE: Romberg:func <- $r12
	#DEBUG_VALUE: Romberg:absacc <- [DW_OP_constu 200, DW_OP_minus] [$rbp+0]
	movl	$2, %eax
	jmp	.LBB1_24
.Ltmp144:
.LBB1_50:                               #   in Loop: Header=BB1_1 Depth=1
	#DEBUG_VALUE: result_pol <- $xmm0
	#DEBUG_VALUE: result <- [DW_OP_constu 64, DW_OP_minus] [$rbp+0]
	#DEBUG_VALUE: dresult_rat <- [DW_OP_constu 176, DW_OP_minus] [$rbp+0]
	#DEBUG_VALUE: it <- $r8d
	#DEBUG_VALUE: dresult_pol <- $xmm9
	#DEBUG_VALUE: Romberg:a <- [DW_OP_constu 144, DW_OP_minus] [$rbp+0]
	#DEBUG_VALUE: a <- [DW_OP_constu 144, DW_OP_minus] [$rbp+0]
	#DEBUG_VALUE: Romberg:b <- [DW_OP_constu 224, DW_OP_minus] [$rbp+0]
	#DEBUG_VALUE: b <- [DW_OP_constu 224, DW_OP_minus] [$rbp+0]
	#DEBUG_VALUE: Romberg:func <- $r12
	#DEBUG_VALUE: Romberg:absacc <- [DW_OP_constu 200, DW_OP_minus] [$rbp+0]
	movl	$3, %eax
	jmp	.LBB1_24
.Ltmp145:
.LBB1_53:                               #   in Loop: Header=BB1_1 Depth=1
	#DEBUG_VALUE: result_pol <- $xmm0
	#DEBUG_VALUE: result <- [DW_OP_constu 64, DW_OP_minus] [$rbp+0]
	#DEBUG_VALUE: dresult_rat <- [DW_OP_constu 176, DW_OP_minus] [$rbp+0]
	#DEBUG_VALUE: it <- $r8d
	#DEBUG_VALUE: dresult_pol <- $xmm9
	#DEBUG_VALUE: Romberg:a <- [DW_OP_constu 144, DW_OP_minus] [$rbp+0]
	#DEBUG_VALUE: a <- [DW_OP_constu 144, DW_OP_minus] [$rbp+0]
	#DEBUG_VALUE: Romberg:b <- [DW_OP_constu 224, DW_OP_minus] [$rbp+0]
	#DEBUG_VALUE: b <- [DW_OP_constu 224, DW_OP_minus] [$rbp+0]
	#DEBUG_VALUE: Romberg:func <- $r12
	#DEBUG_VALUE: Romberg:absacc <- [DW_OP_constu 200, DW_OP_minus] [$rbp+0]
	movl	$4, %eax
.Ltmp146:
.LBB1_24:                               # %L.B0241
                                        #   in Loop: Header=BB1_1 Depth=1
	#DEBUG_VALUE: result_pol <- $xmm0
	#DEBUG_VALUE: result <- [DW_OP_constu 64, DW_OP_minus] [$rbp+0]
	#DEBUG_VALUE: dresult_rat <- [DW_OP_constu 176, DW_OP_minus] [$rbp+0]
	#DEBUG_VALUE: it <- $r8d
	#DEBUG_VALUE: dresult_pol <- $xmm9
	#DEBUG_VALUE: Romberg:a <- [DW_OP_constu 144, DW_OP_minus] [$rbp+0]
	#DEBUG_VALUE: a <- [DW_OP_constu 144, DW_OP_minus] [$rbp+0]
	#DEBUG_VALUE: Romberg:b <- [DW_OP_constu 224, DW_OP_minus] [$rbp+0]
	#DEBUG_VALUE: b <- [DW_OP_constu 224, DW_OP_minus] [$rbp+0]
	#DEBUG_VALUE: Romberg:func <- $r12
	#DEBUG_VALUE: Romberg:absacc <- [DW_OP_constu 200, DW_OP_minus] [$rbp+0]
	.loc	1 121 1 is_stmt 1       # backgroundfield/quadr.cpp:121:1
	vmovsd	(%rcx,%rax,8), %xmm1    # xmm1 = mem[0],zero
.Ltmp147:
	#DEBUG_VALUE: result_rat <- $xmm1
	.loc	1 0 1 is_stmt 0         # backgroundfield/quadr.cpp:0:1
	vxorpd	%xmm6, %xmm6, %xmm6
.Ltmp148:
	#DEBUG_VALUE: dresult_rat <- 0.000000e+00
.LBB1_35:                               #   in Loop: Header=BB1_1 Depth=1
	#DEBUG_VALUE: result_rat <- $xmm1
	#DEBUG_VALUE: result_pol <- $xmm0
	#DEBUG_VALUE: result <- [DW_OP_constu 64, DW_OP_minus] [$rbp+0]
	#DEBUG_VALUE: it <- $r8d
	#DEBUG_VALUE: dresult_pol <- $xmm9
	#DEBUG_VALUE: Romberg:a <- [DW_OP_constu 144, DW_OP_minus] [$rbp+0]
	#DEBUG_VALUE: a <- [DW_OP_constu 144, DW_OP_minus] [$rbp+0]
	#DEBUG_VALUE: Romberg:b <- [DW_OP_constu 224, DW_OP_minus] [$rbp+0]
	#DEBUG_VALUE: b <- [DW_OP_constu 224, DW_OP_minus] [$rbp+0]
	#DEBUG_VALUE: Romberg:func <- $r12
	#DEBUG_VALUE: Romberg:absacc <- [DW_OP_constu 200, DW_OP_minus] [$rbp+0]
	movq	-80(%rbp), %rcx         # 8-byte Reload
	movq	-72(%rbp), %r13         # 8-byte Reload
	vmovsd	-64(%rbp), %xmm8        # 8-byte Reload
                                        # xmm8 = mem[0],zero
.Ltmp149:
	#DEBUG_VALUE: result <- $xmm8
	movq	-104(%rbp), %rdx        # 8-byte Reload
.Ltmp150:
.LBB1_36:                               # %L..inline.10916
                                        #   in Loop: Header=BB1_1 Depth=1
	#DEBUG_VALUE: result <- $xmm8
	#DEBUG_VALUE: it <- $r8d
	#DEBUG_VALUE: dresult_pol <- $xmm9
	#DEBUG_VALUE: Romberg:a <- [DW_OP_constu 144, DW_OP_minus] [$rbp+0]
	#DEBUG_VALUE: a <- [DW_OP_constu 144, DW_OP_minus] [$rbp+0]
	#DEBUG_VALUE: Romberg:b <- [DW_OP_constu 224, DW_OP_minus] [$rbp+0]
	#DEBUG_VALUE: b <- [DW_OP_constu 224, DW_OP_minus] [$rbp+0]
	#DEBUG_VALUE: Romberg:func <- $r12
	#DEBUG_VALUE: Romberg:absacc <- [DW_OP_constu 200, DW_OP_minus] [$rbp+0]
	#DEBUG_VALUE: dresult_rat <- $xmm6
	#DEBUG_VALUE: result_rat <- $xmm1
	vmovapd	.LCPI1_2(%rip), %xmm5   # xmm5 = [NaN,NaN]
	.loc	1 199 1 is_stmt 1       # backgroundfield/quadr.cpp:199:1
	vandpd	%xmm5, %xmm9, %xmm9
.Ltmp151:
	#DEBUG_VALUE: dresult_pol <- $xmm9
	.loc	1 200 1                 # backgroundfield/quadr.cpp:200:1
	vandpd	%xmm5, %xmm6, %xmm2
.Ltmp152:
	#DEBUG_VALUE: dresult_rat <- $xmm2
	.loc	1 201 1                 # backgroundfield/quadr.cpp:201:1
	vmaxsd	%xmm9, %xmm2, %xmm3
	vcmpunordsd	%xmm9, %xmm9, %xmm4
	vblendvpd	%xmm4, %xmm2, %xmm3, %xmm3
	vcmpunordsd	%xmm6, %xmm6, %xmm4
	vblendvpd	%xmm4, %xmm9, %xmm3, %xmm3
	.loc	1 202 1                 # backgroundfield/quadr.cpp:202:1
	vsubsd	%xmm1, %xmm0, %xmm4
	vandpd	%xmm5, %xmm4, %xmm5
	.loc	1 203 1                 # backgroundfield/quadr.cpp:203:1
	vcmpunordsd	%xmm3, %xmm3, %xmm6
	vmaxsd	%xmm3, %xmm5, %xmm7
	vblendvpd	%xmm6, %xmm5, %xmm7, %xmm5
	vcmpunordsd	%xmm4, %xmm4, %xmm4
	vblendvpd	%xmm4, %xmm3, %xmm5, %xmm3
	vmovsd	-200(%rbp), %xmm4       # 8-byte Reload
                                        # xmm4 = mem[0],zero
	.loc	1 204 1                 # backgroundfield/quadr.cpp:204:1
	vucomisd	%xmm3, %xmm4
	jbe	.LBB1_3
.Ltmp153:
# %bb.37:                               # %L.B0248
	#DEBUG_VALUE: result_rat <- $xmm1
	#DEBUG_VALUE: result <- $xmm8
	#DEBUG_VALUE: it <- $r8d
	#DEBUG_VALUE: dresult_pol <- $xmm9
	#DEBUG_VALUE: dresult_rat <- $xmm2
	#DEBUG_VALUE: Romberg:a <- [DW_OP_constu 144, DW_OP_minus] [$rbp+0]
	#DEBUG_VALUE: a <- [DW_OP_constu 144, DW_OP_minus] [$rbp+0]
	#DEBUG_VALUE: Romberg:b <- [DW_OP_constu 224, DW_OP_minus] [$rbp+0]
	#DEBUG_VALUE: b <- [DW_OP_constu 224, DW_OP_minus] [$rbp+0]
	#DEBUG_VALUE: Romberg:func <- $r12
	#DEBUG_VALUE: Romberg:absacc <- [DW_OP_constu 200, DW_OP_minus] [$rbp+0]
	#DEBUG_VALUE: result_rat <- $xmm1
	.loc	1 206 1                 # backgroundfield/quadr.cpp:206:1
	vaddsd	%xmm1, %xmm0, %xmm0
	vmulsd	.LCPI1_0(%rip), %xmm0, %xmm8
.Ltmp154:
	#DEBUG_VALUE: result <- $xmm8
.LBB1_38:                               # %L_T22936352_7633
	#DEBUG_VALUE: dresult_pol <- $xmm9
	#DEBUG_VALUE: dresult_rat <- $xmm2
	#DEBUG_VALUE: Romberg:a <- [DW_OP_constu 144, DW_OP_minus] [$rbp+0]
	#DEBUG_VALUE: a <- [DW_OP_constu 144, DW_OP_minus] [$rbp+0]
	#DEBUG_VALUE: Romberg:b <- [DW_OP_constu 224, DW_OP_minus] [$rbp+0]
	#DEBUG_VALUE: b <- [DW_OP_constu 224, DW_OP_minus] [$rbp+0]
	#DEBUG_VALUE: Romberg:func <- $r12
	#DEBUG_VALUE: Romberg:absacc <- [DW_OP_constu 200, DW_OP_minus] [$rbp+0]
	#DEBUG_VALUE: result <- $xmm8
	.loc	1 214 1                 # backgroundfield/quadr.cpp:214:1
	vmovapd	%xmm8, %xmm0
	addq	$984, %rsp              # imm = 0x3D8
	popq	%rbx
	popq	%r12
.Ltmp155:
	popq	%r13
	popq	%r14
	popq	%r15
	popq	%rbp
	.cfi_def_cfa %rsp, 8
	retq
.Ltmp156:
.LBB1_60:                               # %L..inline.10882
	.cfi_def_cfa %rbp, 16
	#DEBUG_VALUE: result_rat <- $xmm1
	#DEBUG_VALUE: result_pol <- $xmm0
	#DEBUG_VALUE: result <- [DW_OP_constu 64, DW_OP_minus] [$rbp+0]
	#DEBUG_VALUE: it <- $r8d
	#DEBUG_VALUE: dresult_pol <- $xmm9
	#DEBUG_VALUE: Romberg:a <- [DW_OP_constu 144, DW_OP_minus] [$rbp+0]
	#DEBUG_VALUE: a <- [DW_OP_constu 144, DW_OP_minus] [$rbp+0]
	#DEBUG_VALUE: Romberg:b <- [DW_OP_constu 224, DW_OP_minus] [$rbp+0]
	#DEBUG_VALUE: b <- [DW_OP_constu 224, DW_OP_minus] [$rbp+0]
	#DEBUG_VALUE: Romberg:func <- $r12
	#DEBUG_VALUE: Romberg:absacc <- [DW_OP_constu 200, DW_OP_minus] [$rbp+0]
	.loc	1 142 1                 # backgroundfield/quadr.cpp:142:1
	movl	$_ZSt4cerr, %edi
	movl	$.S08003, %esi
	movl	$20, %edx
	callq	_ZSt16__ostream_insertIcSt11char_traitsIcEERSt13basic_ostreamIT_T0_ES6_PKS3_l
.Ltmp157:
	.loc	1 143 1                 # backgroundfield/quadr.cpp:143:1
	movl	$111, %edi
	callq	exit
.Ltmp158:
.Lfunc_end1:
	.size	_Z7RombergRK11T1DFunctionddd, .Lfunc_end1-_Z7RombergRK11T1DFunctionddd
	.cfi_endproc
                                        # -- End function
	.section	.rodata.cst8,"aM",@progbits,8
	.p2align	3               # -- Begin function _Z7RombergRK11T2DFunctionddddd
.LCPI2_0:
	.quad	4602678819172646912     # double 0.5
.LCPI2_3:
	.quad	4158027847206421152     # double 1.0000000000000001E-30
.LCPI2_4:
	.quad	4598175219545276416     # double 0.25
	.section	.rodata.cst16,"aM",@progbits,16
	.p2align	4
.LCPI2_1:
	.quad	-9223372036854775808    # double -0
	.quad	-9223372036854775808    # double -0
.LCPI2_2:
	.quad	9223372036854775807     # double NaN
	.quad	9223372036854775807     # double NaN
	.text
	.globl	_Z7RombergRK11T2DFunctionddddd
	.p2align	4, 0x90
	.type	_Z7RombergRK11T2DFunctionddddd,@function
_Z7RombergRK11T2DFunctionddddd:         # @_Z7RombergRK11T2DFunctionddddd
.Lfunc_begin2:
	.loc	1 230 0                 # backgroundfield/quadr.cpp:230:0
	.cfi_startproc
# %bb.0:                                # %L.entry
	#DEBUG_VALUE: Romberg:func <- $rdi
	#DEBUG_VALUE: Romberg:a <- $xmm0
	#DEBUG_VALUE: Romberg:b <- $xmm1
	#DEBUG_VALUE: Romberg:c <- $xmm2
	#DEBUG_VALUE: Romberg:d <- $xmm3
	#DEBUG_VALUE: Romberg:absacc <- $xmm4
	pushq	%rbp
	.cfi_def_cfa_offset 16
	.cfi_offset %rbp, -16
	movq	%rsp, %rbp
	.cfi_def_cfa_register %rbp
	pushq	%r15
	pushq	%r14
	pushq	%r13
	pushq	%r12
	pushq	%rbx
	subq	$1016, %rsp             # imm = 0x3F8
	.cfi_offset %rbx, -56
	.cfi_offset %r12, -48
	.cfi_offset %r13, -40
	.cfi_offset %r14, -32
	.cfi_offset %r15, -24
	vmovsd	%xmm1, -256(%rbp)       # 8-byte Spill
	vmovsd	%xmm0, -136(%rbp)       # 8-byte Spill
.Ltmp159:
	#DEBUG_VALUE: absacc <- $xmm4
	#DEBUG_VALUE: d <- $xmm3
	#DEBUG_VALUE: c <- $xmm2
	#DEBUG_VALUE: b <- [DW_OP_constu 256, DW_OP_minus] [$rbp+0]
	#DEBUG_VALUE: a <- [DW_OP_constu 136, DW_OP_minus] [$rbp+0]
	#DEBUG_VALUE: func <- $rdi
	#DEBUG_VALUE: Romberg:absacc <- $xmm4
	#DEBUG_VALUE: Romberg:d <- $xmm3
	#DEBUG_VALUE: Romberg:c <- $xmm2
	#DEBUG_VALUE: Romberg:b <- [DW_OP_constu 256, DW_OP_minus] [$rbp+0]
	#DEBUG_VALUE: Romberg:a <- [DW_OP_constu 136, DW_OP_minus] [$rbp+0]
	#DEBUG_VALUE: Romberg:func <- $rdi
	.loc	1 232 1 prologue_end    # backgroundfield/quadr.cpp:232:1
	vsubsd	%xmm0, %xmm1, %xmm1
	vmovsd	%xmm4, -232(%rbp)       # 8-byte Spill
.Ltmp160:
	#DEBUG_VALUE: absacc <- [DW_OP_constu 232, DW_OP_minus] [$rbp+0]
	#DEBUG_VALUE: Romberg:absacc <- [DW_OP_constu 232, DW_OP_minus] [$rbp+0]
	vdivsd	%xmm1, %xmm4, %xmm0
	.loc	1 225 1                 # backgroundfield/quadr.cpp:225:1
	movq	$_ZTV9Tinty_f2D+16, -184(%rbp)
	movq	%rdi, -176(%rbp)
	vmovsd	%xmm2, -168(%rbp)
	vmovsd	%xmm3, -160(%rbp)
	vmovsd	%xmm0, -152(%rbp)
	movabsq	$4607182418800017408, %rax # imm = 0x3FF0000000000000
	.loc	1 184 1                 # backgroundfield/quadr.cpp:184:1
	movq	%rax, -736(%rbp)
	.loc	1 190 1                 # backgroundfield/quadr.cpp:190:1
	leaq	-656(%rbp), %r15
	leaq	-728(%rbp), %rax
	vmovsd	%xmm1, -128(%rbp)       # 8-byte Spill
	.loc	1 0 0 is_stmt 0         # backgroundfield/quadr.cpp:0:0
	vmulsd	.LCPI2_0(%rip), %xmm1, %xmm0
	vmovsd	%xmm0, -248(%rbp)       # 8-byte Spill
	xorl	%r13d, %r13d
	movl	$1, %r14d
	leaq	-184(%rbp), %rdi
.Ltmp161:
                                        # implicit-def: $xmm2
	.loc	1 188 1 is_stmt 1       # backgroundfield/quadr.cpp:188:1
	vxorpd	%xmm9, %xmm9, %xmm9
	.loc	1 0 0 is_stmt 0         # backgroundfield/quadr.cpp:0:0
	xorl	%edx, %edx
	jmp	.LBB2_1
.Ltmp162:
	.p2align	4, 0x90
.LBB2_2:                                # %L.B0272
                                        #   in Loop: Header=BB2_1 Depth=1
	#DEBUG_VALUE: Romberg:absacc <- [DW_OP_constu 232, DW_OP_minus] [$rbp+0]
	#DEBUG_VALUE: absacc <- [DW_OP_constu 232, DW_OP_minus] [$rbp+0]
	#DEBUG_VALUE: Romberg:a <- [DW_OP_constu 136, DW_OP_minus] [$rbp+0]
	#DEBUG_VALUE: Romberg:b <- [DW_OP_constu 256, DW_OP_minus] [$rbp+0]
	#DEBUG_VALUE: a <- [DW_OP_constu 136, DW_OP_minus] [$rbp+0]
	#DEBUG_VALUE: b <- [DW_OP_constu 256, DW_OP_minus] [$rbp+0]
	.loc	1 191 1 is_stmt 1       # backgroundfield/quadr.cpp:191:1
	movq	-184(%rbp), %rax
	vmovsd	-256(%rbp), %xmm0       # 8-byte Reload
                                        # xmm0 = mem[0],zero
	movq	%rcx, %r13
	callq	*(%rax)
	vmovsd	%xmm0, -48(%rbp)        # 8-byte Spill
	movq	-184(%rbp), %rax
	leaq	-184(%rbp), %rdi
	vmovsd	-136(%rbp), %xmm0       # 8-byte Reload
                                        # xmm0 = mem[0],zero
	callq	*(%rax)
	vmovapd	-208(%rbp), %xmm2       # 16-byte Reload
	vmovapd	-112(%rbp), %xmm9       # 16-byte Reload
	leaq	-184(%rbp), %rdi
	vaddsd	-48(%rbp), %xmm0, %xmm0 # 8-byte Folded Reload
	vmulsd	-248(%rbp), %xmm0, %xmm0 # 8-byte Folded Reload
	vmovsd	%xmm0, -672(%rbp,%r14,8)
	leaq	-8(%r15), %r8
	vmovsd	-8(%r15), %xmm8         # xmm8 = mem[0],zero
	movl	$1, %edx
.Ltmp163:
.LBB2_3:                                # %L..inline.11466
                                        #   in Loop: Header=BB2_1 Depth=1
	#DEBUG_VALUE: Romberg:absacc <- [DW_OP_constu 232, DW_OP_minus] [$rbp+0]
	#DEBUG_VALUE: absacc <- [DW_OP_constu 232, DW_OP_minus] [$rbp+0]
	#DEBUG_VALUE: Romberg:a <- [DW_OP_constu 136, DW_OP_minus] [$rbp+0]
	#DEBUG_VALUE: Romberg:b <- [DW_OP_constu 256, DW_OP_minus] [$rbp+0]
	#DEBUG_VALUE: a <- [DW_OP_constu 136, DW_OP_minus] [$rbp+0]
	#DEBUG_VALUE: b <- [DW_OP_constu 256, DW_OP_minus] [$rbp+0]
	.loc	1 210 1                 # backgroundfield/quadr.cpp:210:1
	movq	(%r8), %rax
	movq	%rax, (%r15)
	vmovsd	.LCPI2_4(%rip), %xmm0   # xmm0 = mem[0],zero
	movq	-272(%rbp), %rax        # 8-byte Reload
	vmulsd	-8(%rax), %xmm0, %xmm0
	vmovsd	%xmm0, (%rax)
	.loc	1 212 1                 # backgroundfield/quadr.cpp:212:1
	incq	%r14
	.loc	1 190 1                 # backgroundfield/quadr.cpp:190:1
	addq	$8, %r15
	addq	$8, %rax
	.loc	1 212 1                 # backgroundfield/quadr.cpp:212:1
	cmpq	$8, %r13
	je	.LBB2_38
.Ltmp164:
.LBB2_1:                                # %L..inline.11439
                                        # =>This Loop Header: Depth=1
                                        #     Child Loop BB2_7 Depth 2
                                        #     Child Loop BB2_17 Depth 2
                                        #     Child Loop BB2_32 Depth 2
	#DEBUG_VALUE: Romberg:absacc <- [DW_OP_constu 232, DW_OP_minus] [$rbp+0]
	#DEBUG_VALUE: absacc <- [DW_OP_constu 232, DW_OP_minus] [$rbp+0]
	#DEBUG_VALUE: Romberg:a <- [DW_OP_constu 136, DW_OP_minus] [$rbp+0]
	#DEBUG_VALUE: Romberg:b <- [DW_OP_constu 256, DW_OP_minus] [$rbp+0]
	#DEBUG_VALUE: a <- [DW_OP_constu 136, DW_OP_minus] [$rbp+0]
	#DEBUG_VALUE: b <- [DW_OP_constu 256, DW_OP_minus] [$rbp+0]
	.loc	1 0 1 is_stmt 0         # backgroundfield/quadr.cpp:0:1
	movq	%rax, -272(%rbp)        # 8-byte Spill
	.loc	1 191 1 is_stmt 1       # backgroundfield/quadr.cpp:191:1
	cmpq	$5, %r14
	movl	$5, %r12d
	cmovbq	%r14, %r12
	leaq	1(%r13), %rcx
	cmpl	$5, %ecx
	movl	%ecx, %ebx
	movl	$5, %eax
	cmovgeq	%rax, %rbx
	cmpq	$1, %r14
	vmovapd	%xmm9, -112(%rbp)       # 16-byte Spill
	vmovapd	%xmm2, -208(%rbp)       # 16-byte Spill
	je	.LBB2_2
.Ltmp165:
# %bb.4:                                # %L..inline.11453
                                        #   in Loop: Header=BB2_1 Depth=1
	#DEBUG_VALUE: Romberg:absacc <- [DW_OP_constu 232, DW_OP_minus] [$rbp+0]
	#DEBUG_VALUE: absacc <- [DW_OP_constu 232, DW_OP_minus] [$rbp+0]
	#DEBUG_VALUE: Romberg:a <- [DW_OP_constu 136, DW_OP_minus] [$rbp+0]
	#DEBUG_VALUE: Romberg:b <- [DW_OP_constu 256, DW_OP_minus] [$rbp+0]
	#DEBUG_VALUE: a <- [DW_OP_constu 136, DW_OP_minus] [$rbp+0]
	#DEBUG_VALUE: b <- [DW_OP_constu 256, DW_OP_minus] [$rbp+0]
	.loc	1 0 1 is_stmt 0         # backgroundfield/quadr.cpp:0:1
	movq	%r14, -264(%rbp)        # 8-byte Spill
	movq	%rcx, -64(%rbp)         # 8-byte Spill
	movq	%r15, -144(%rbp)        # 8-byte Spill
	.loc	1 191 1                 # backgroundfield/quadr.cpp:191:1
	vcvtsi2sd	%edx, %xmm10, %xmm1
	testl	%edx, %edx
	vmovsd	%xmm1, -56(%rbp)        # 8-byte Spill
	jle	.LBB2_5
.Ltmp166:
# %bb.6:                                # %L.B0275
                                        #   in Loop: Header=BB2_1 Depth=1
	#DEBUG_VALUE: Romberg:absacc <- [DW_OP_constu 232, DW_OP_minus] [$rbp+0]
	#DEBUG_VALUE: absacc <- [DW_OP_constu 232, DW_OP_minus] [$rbp+0]
	#DEBUG_VALUE: Romberg:a <- [DW_OP_constu 136, DW_OP_minus] [$rbp+0]
	#DEBUG_VALUE: Romberg:b <- [DW_OP_constu 256, DW_OP_minus] [$rbp+0]
	#DEBUG_VALUE: a <- [DW_OP_constu 136, DW_OP_minus] [$rbp+0]
	#DEBUG_VALUE: b <- [DW_OP_constu 256, DW_OP_minus] [$rbp+0]
	.loc	1 0 1                   # backgroundfield/quadr.cpp:0:1
	vmovsd	-128(%rbp), %xmm0       # 8-byte Reload
                                        # xmm0 = mem[0],zero
	.loc	1 191 1                 # backgroundfield/quadr.cpp:191:1
	vdivsd	%xmm1, %xmm0, %xmm1
	vmovsd	-136(%rbp), %xmm0       # 8-byte Reload
                                        # xmm0 = mem[0],zero
	vmovsd	%xmm1, -72(%rbp)        # 8-byte Spill
	vfmadd231sd	.LCPI2_0(%rip), %xmm1, %xmm0 # xmm0 = (xmm1 * mem) + xmm0
	vxorpd	%xmm1, %xmm1, %xmm1
	movl	%edx, %r14d
	movl	%edx, %r15d
.Ltmp167:
	.p2align	4, 0x90
.LBB2_7:                                # %L..inline.11463
                                        #   Parent Loop BB2_1 Depth=1
                                        # =>  This Inner Loop Header: Depth=2
	#DEBUG_VALUE: Romberg:absacc <- [DW_OP_constu 232, DW_OP_minus] [$rbp+0]
	#DEBUG_VALUE: absacc <- [DW_OP_constu 232, DW_OP_minus] [$rbp+0]
	#DEBUG_VALUE: Romberg:a <- [DW_OP_constu 136, DW_OP_minus] [$rbp+0]
	#DEBUG_VALUE: Romberg:b <- [DW_OP_constu 256, DW_OP_minus] [$rbp+0]
	#DEBUG_VALUE: a <- [DW_OP_constu 136, DW_OP_minus] [$rbp+0]
	#DEBUG_VALUE: b <- [DW_OP_constu 256, DW_OP_minus] [$rbp+0]
	.loc	1 0 1                   # backgroundfield/quadr.cpp:0:1
	vmovsd	%xmm0, -80(%rbp)        # 8-byte Spill
	vmovsd	%xmm1, -48(%rbp)        # 8-byte Spill
	.loc	1 191 1                 # backgroundfield/quadr.cpp:191:1
	movq	-184(%rbp), %rax
	callq	*(%rax)
	leaq	-184(%rbp), %rdi
	vmovsd	-48(%rbp), %xmm1        # 8-byte Reload
                                        # xmm1 = mem[0],zero
	vaddsd	%xmm0, %xmm1, %xmm1
	vmovsd	%xmm1, -48(%rbp)        # 8-byte Spill
	vmovsd	-80(%rbp), %xmm0        # 8-byte Reload
                                        # xmm0 = mem[0],zero
	vmovsd	-48(%rbp), %xmm1        # 8-byte Reload
                                        # xmm1 = mem[0],zero
	vaddsd	-72(%rbp), %xmm0, %xmm0 # 8-byte Folded Reload
	decl	%r15d
	jg	.LBB2_7
	jmp	.LBB2_8
.Ltmp168:
.LBB2_5:                                #   in Loop: Header=BB2_1 Depth=1
	#DEBUG_VALUE: Romberg:absacc <- [DW_OP_constu 232, DW_OP_minus] [$rbp+0]
	#DEBUG_VALUE: absacc <- [DW_OP_constu 232, DW_OP_minus] [$rbp+0]
	#DEBUG_VALUE: Romberg:a <- [DW_OP_constu 136, DW_OP_minus] [$rbp+0]
	#DEBUG_VALUE: Romberg:b <- [DW_OP_constu 256, DW_OP_minus] [$rbp+0]
	#DEBUG_VALUE: a <- [DW_OP_constu 136, DW_OP_minus] [$rbp+0]
	#DEBUG_VALUE: b <- [DW_OP_constu 256, DW_OP_minus] [$rbp+0]
	.loc	1 0 1                   # backgroundfield/quadr.cpp:0:1
	movl	%edx, %r14d
	vxorpd	%xmm1, %xmm1, %xmm1
.Ltmp169:
.LBB2_8:                                # %L..inline.11455
                                        #   in Loop: Header=BB2_1 Depth=1
	#DEBUG_VALUE: Romberg:absacc <- [DW_OP_constu 232, DW_OP_minus] [$rbp+0]
	#DEBUG_VALUE: absacc <- [DW_OP_constu 232, DW_OP_minus] [$rbp+0]
	#DEBUG_VALUE: Romberg:a <- [DW_OP_constu 136, DW_OP_minus] [$rbp+0]
	#DEBUG_VALUE: Romberg:b <- [DW_OP_constu 256, DW_OP_minus] [$rbp+0]
	#DEBUG_VALUE: a <- [DW_OP_constu 136, DW_OP_minus] [$rbp+0]
	#DEBUG_VALUE: b <- [DW_OP_constu 256, DW_OP_minus] [$rbp+0]
	.loc	1 191 1                 # backgroundfield/quadr.cpp:191:1
	vmulsd	-128(%rbp), %xmm1, %xmm0 # 8-byte Folded Reload
	vdivsd	-56(%rbp), %xmm0, %xmm0 # 8-byte Folded Reload
	movq	-264(%rbp), %rax        # 8-byte Reload
	vaddsd	-672(%rbp,%rax,8), %xmm0, %xmm0
	vmulsd	.LCPI2_0(%rip), %xmm0, %xmm0
	vmovsd	%xmm0, -672(%rbp,%rax,8)
	movl	%r14d, %edx
	movq	%rax, %r14
	addl	%edx, %edx
	movq	-144(%rbp), %r15        # 8-byte Reload
	leaq	-8(%r15), %r8
	vmovsd	-8(%r15), %xmm8         # xmm8 = mem[0],zero
	.loc	1 192 1 is_stmt 1       # backgroundfield/quadr.cpp:192:1
	cmpq	$2, %rax
	jae	.LBB2_10
.Ltmp170:
# %bb.9:                                #   in Loop: Header=BB2_1 Depth=1
	#DEBUG_VALUE: Romberg:absacc <- [DW_OP_constu 232, DW_OP_minus] [$rbp+0]
	#DEBUG_VALUE: absacc <- [DW_OP_constu 232, DW_OP_minus] [$rbp+0]
	#DEBUG_VALUE: Romberg:a <- [DW_OP_constu 136, DW_OP_minus] [$rbp+0]
	#DEBUG_VALUE: Romberg:b <- [DW_OP_constu 256, DW_OP_minus] [$rbp+0]
	#DEBUG_VALUE: a <- [DW_OP_constu 136, DW_OP_minus] [$rbp+0]
	#DEBUG_VALUE: b <- [DW_OP_constu 256, DW_OP_minus] [$rbp+0]
	.loc	1 0 1 is_stmt 0         # backgroundfield/quadr.cpp:0:1
	movq	-64(%rbp), %r13         # 8-byte Reload
	vmovapd	-112(%rbp), %xmm9       # 16-byte Reload
	vmovapd	-208(%rbp), %xmm2       # 16-byte Reload
	jmp	.LBB2_3
.Ltmp171:
	.p2align	4, 0x90
.LBB2_10:                               # %L.B0277
                                        #   in Loop: Header=BB2_1 Depth=1
	#DEBUG_VALUE: Romberg:absacc <- [DW_OP_constu 232, DW_OP_minus] [$rbp+0]
	#DEBUG_VALUE: absacc <- [DW_OP_constu 232, DW_OP_minus] [$rbp+0]
	#DEBUG_VALUE: Romberg:a <- [DW_OP_constu 136, DW_OP_minus] [$rbp+0]
	#DEBUG_VALUE: Romberg:b <- [DW_OP_constu 256, DW_OP_minus] [$rbp+0]
	#DEBUG_VALUE: a <- [DW_OP_constu 136, DW_OP_minus] [$rbp+0]
	#DEBUG_VALUE: b <- [DW_OP_constu 256, DW_OP_minus] [$rbp+0]
	.loc	1 194 1 is_stmt 1       # backgroundfield/quadr.cpp:194:1
	cmpq	$5, %r14
	movl	$5, %esi
	cmovbq	%r14, %rsi
	.loc	1 197 1                 # backgroundfield/quadr.cpp:197:1
	movl	%r14d, %eax
	subl	%esi, %eax
	cltq
	leaq	-664(,%rax,8), %rcx
	addq	%rbp, %rcx
	.loc	1 198 1                 # backgroundfield/quadr.cpp:198:1
	testl	%esi, %esi
	je	.LBB2_11
.Ltmp172:
# %bb.12:                               # %L.B0278
                                        #   in Loop: Header=BB2_1 Depth=1
	#DEBUG_VALUE: Romberg:absacc <- [DW_OP_constu 232, DW_OP_minus] [$rbp+0]
	#DEBUG_VALUE: absacc <- [DW_OP_constu 232, DW_OP_minus] [$rbp+0]
	#DEBUG_VALUE: Romberg:a <- [DW_OP_constu 136, DW_OP_minus] [$rbp+0]
	#DEBUG_VALUE: Romberg:b <- [DW_OP_constu 256, DW_OP_minus] [$rbp+0]
	#DEBUG_VALUE: a <- [DW_OP_constu 136, DW_OP_minus] [$rbp+0]
	#DEBUG_VALUE: b <- [DW_OP_constu 256, DW_OP_minus] [$rbp+0]
	.loc	1 0 1 is_stmt 0         # backgroundfield/quadr.cpp:0:1
	movq	%r8, -120(%rbp)         # 8-byte Spill
	vmovsd	%xmm8, -88(%rbp)        # 8-byte Spill
	movl	%edx, -56(%rbp)         # 4-byte Spill
	movl	%r14d, %edx
	subl	%r12d, %edx
	movl	%edx, -48(%rbp)         # 4-byte Spill
	leaq	-656(,%r13,8), %r13
	addq	%rbp, %r13
	shlq	$3, %rbx
	subq	%rbx, %r13
	leaq	-736(,%rax,8), %rax
	addq	%rbp, %rax
	movq	%rax, -240(%rbp)        # 8-byte Spill
	.loc	1 198 1                 # backgroundfield/quadr.cpp:198:1
	vmovsd	(%rax), %xmm0           # xmm0 = mem[0],zero
	vmovapd	%xmm0, -224(%rbp)       # 16-byte Spill
	leaq	-1056(%rbp), %rdi
	movq	%rsi, -72(%rbp)         # 8-byte Spill
	movq	%r13, %rsi
	movq	%rbx, %rdx
	movq	%rcx, -80(%rbp)         # 8-byte Spill
	callq	memcpy
	leaq	-896(%rbp), %rdi
	movq	%r13, %rsi
	movq	%rbx, %rdx
	callq	memcpy
	movq	-72(%rbp), %rsi         # 8-byte Reload
	movq	-80(%rbp), %rcx         # 8-byte Reload
	movq	-240(%rbp), %r10        # 8-byte Reload
	xorl	%edx, %edx
	cmpq	$2, %rsi
	vmovapd	.LCPI2_2(%rip), %xmm6   # xmm6 = [NaN,NaN]
	jb	.LBB2_14
.Ltmp173:
# %bb.13:                               # %L.B0266.L.B0266_crit_edge.lr.ph
                                        #   in Loop: Header=BB2_1 Depth=1
	#DEBUG_VALUE: Romberg:absacc <- [DW_OP_constu 232, DW_OP_minus] [$rbp+0]
	#DEBUG_VALUE: absacc <- [DW_OP_constu 232, DW_OP_minus] [$rbp+0]
	#DEBUG_VALUE: Romberg:a <- [DW_OP_constu 136, DW_OP_minus] [$rbp+0]
	#DEBUG_VALUE: Romberg:b <- [DW_OP_constu 256, DW_OP_minus] [$rbp+0]
	#DEBUG_VALUE: a <- [DW_OP_constu 136, DW_OP_minus] [$rbp+0]
	#DEBUG_VALUE: b <- [DW_OP_constu 256, DW_OP_minus] [$rbp+0]
	.loc	1 0 1                   # backgroundfield/quadr.cpp:0:1
	vmovapd	-224(%rbp), %xmm0       # 16-byte Reload
	.loc	1 198 1                 # backgroundfield/quadr.cpp:198:1
	vxorpd	.LCPI2_1(%rip), %xmm0, %xmm0
	vmovddup	%xmm0, %xmm0    # xmm0 = xmm0[0,0]
	vandpd	%xmm6, %xmm0, %xmm0
	vpermilpd	$1, %xmm0, %xmm1 # xmm1 = xmm0[1,0]
	vminsd	%xmm1, %xmm0, %xmm0
	vmovsd	8(%r10), %xmm1          # xmm1 = mem[0],zero
	vandpd	%xmm6, %xmm1, %xmm1
	xorl	%edx, %edx
	vucomisd	%xmm1, %xmm0
	seta	%dl
	cmpq	$2, %rsi
	jbe	.LBB2_14
.Ltmp174:
# %bb.39:                               # %L.B0266.L.B0266_crit_edge.1
                                        #   in Loop: Header=BB2_1 Depth=1
	#DEBUG_VALUE: Romberg:absacc <- [DW_OP_constu 232, DW_OP_minus] [$rbp+0]
	#DEBUG_VALUE: absacc <- [DW_OP_constu 232, DW_OP_minus] [$rbp+0]
	#DEBUG_VALUE: Romberg:a <- [DW_OP_constu 136, DW_OP_minus] [$rbp+0]
	#DEBUG_VALUE: Romberg:b <- [DW_OP_constu 256, DW_OP_minus] [$rbp+0]
	#DEBUG_VALUE: a <- [DW_OP_constu 136, DW_OP_minus] [$rbp+0]
	#DEBUG_VALUE: b <- [DW_OP_constu 256, DW_OP_minus] [$rbp+0]
	vminsd	%xmm0, %xmm1, %xmm0
	vmovsd	16(%r10), %xmm1         # xmm1 = mem[0],zero
	vandpd	%xmm6, %xmm1, %xmm1
	vucomisd	%xmm1, %xmm0
	movl	$2, %eax
	cmoval	%eax, %edx
	cmpq	$3, %rsi
	je	.LBB2_14
.Ltmp175:
# %bb.40:                               # %L.B0266.L.B0266_crit_edge.2
                                        #   in Loop: Header=BB2_1 Depth=1
	#DEBUG_VALUE: Romberg:absacc <- [DW_OP_constu 232, DW_OP_minus] [$rbp+0]
	#DEBUG_VALUE: absacc <- [DW_OP_constu 232, DW_OP_minus] [$rbp+0]
	#DEBUG_VALUE: Romberg:a <- [DW_OP_constu 136, DW_OP_minus] [$rbp+0]
	#DEBUG_VALUE: Romberg:b <- [DW_OP_constu 256, DW_OP_minus] [$rbp+0]
	#DEBUG_VALUE: a <- [DW_OP_constu 136, DW_OP_minus] [$rbp+0]
	#DEBUG_VALUE: b <- [DW_OP_constu 256, DW_OP_minus] [$rbp+0]
	vminsd	%xmm0, %xmm1, %xmm0
	vmovsd	24(%r10), %xmm1         # xmm1 = mem[0],zero
	vandpd	%xmm6, %xmm1, %xmm1
	vucomisd	%xmm1, %xmm0
	movl	$3, %eax
	cmoval	%eax, %edx
	cmpq	$5, %rsi
	jb	.LBB2_14
.Ltmp176:
# %bb.41:                               # %L.B0266.L.B0266_crit_edge.3
                                        #   in Loop: Header=BB2_1 Depth=1
	#DEBUG_VALUE: Romberg:absacc <- [DW_OP_constu 232, DW_OP_minus] [$rbp+0]
	#DEBUG_VALUE: absacc <- [DW_OP_constu 232, DW_OP_minus] [$rbp+0]
	#DEBUG_VALUE: Romberg:a <- [DW_OP_constu 136, DW_OP_minus] [$rbp+0]
	#DEBUG_VALUE: Romberg:b <- [DW_OP_constu 256, DW_OP_minus] [$rbp+0]
	#DEBUG_VALUE: a <- [DW_OP_constu 136, DW_OP_minus] [$rbp+0]
	#DEBUG_VALUE: b <- [DW_OP_constu 256, DW_OP_minus] [$rbp+0]
	vminsd	%xmm0, %xmm1, %xmm0
	vmovsd	32(%r10), %xmm1         # xmm1 = mem[0],zero
	vandpd	%xmm6, %xmm1, %xmm1
	vucomisd	%xmm1, %xmm0
	movl	$4, %eax
	cmoval	%eax, %edx
.Ltmp177:
.LBB2_14:                               # %L.B0267
                                        #   in Loop: Header=BB2_1 Depth=1
	#DEBUG_VALUE: Romberg:absacc <- [DW_OP_constu 232, DW_OP_minus] [$rbp+0]
	#DEBUG_VALUE: absacc <- [DW_OP_constu 232, DW_OP_minus] [$rbp+0]
	#DEBUG_VALUE: Romberg:a <- [DW_OP_constu 136, DW_OP_minus] [$rbp+0]
	#DEBUG_VALUE: Romberg:b <- [DW_OP_constu 256, DW_OP_minus] [$rbp+0]
	#DEBUG_VALUE: a <- [DW_OP_constu 136, DW_OP_minus] [$rbp+0]
	#DEBUG_VALUE: b <- [DW_OP_constu 256, DW_OP_minus] [$rbp+0]
	.loc	1 0 0                   # backgroundfield/quadr.cpp:0:0
	movslq	-48(%rbp), %rdi         # 4-byte Folded Reload
	.loc	1 197 1 is_stmt 1       # backgroundfield/quadr.cpp:197:1
	movl	%edx, %eax
	vmovsd	(%rcx,%rax,8), %xmm0    # xmm0 = mem[0],zero
	.loc	1 198 1                 # backgroundfield/quadr.cpp:198:1
	cmpl	$2, %esi
	setb	%al
	vxorpd	%xmm8, %xmm8, %xmm8
	jae	.LBB2_16
.Ltmp178:
# %bb.15:                               #   in Loop: Header=BB2_1 Depth=1
	#DEBUG_VALUE: Romberg:absacc <- [DW_OP_constu 232, DW_OP_minus] [$rbp+0]
	#DEBUG_VALUE: absacc <- [DW_OP_constu 232, DW_OP_minus] [$rbp+0]
	#DEBUG_VALUE: Romberg:a <- [DW_OP_constu 136, DW_OP_minus] [$rbp+0]
	#DEBUG_VALUE: Romberg:b <- [DW_OP_constu 256, DW_OP_minus] [$rbp+0]
	#DEBUG_VALUE: a <- [DW_OP_constu 136, DW_OP_minus] [$rbp+0]
	#DEBUG_VALUE: b <- [DW_OP_constu 256, DW_OP_minus] [$rbp+0]
	.loc	1 0 1 is_stmt 0         # backgroundfield/quadr.cpp:0:1
	movb	$1, %r9b
	vmovapd	-112(%rbp), %xmm9       # 16-byte Reload
	movq	-120(%rbp), %r8         # 8-byte Reload
	jmp	.LBB2_21
.Ltmp179:
.LBB2_11:                               # %L.B0269.thread
                                        #   in Loop: Header=BB2_1 Depth=1
	#DEBUG_VALUE: Romberg:absacc <- [DW_OP_constu 232, DW_OP_minus] [$rbp+0]
	#DEBUG_VALUE: absacc <- [DW_OP_constu 232, DW_OP_minus] [$rbp+0]
	#DEBUG_VALUE: Romberg:a <- [DW_OP_constu 136, DW_OP_minus] [$rbp+0]
	#DEBUG_VALUE: Romberg:b <- [DW_OP_constu 256, DW_OP_minus] [$rbp+0]
	#DEBUG_VALUE: a <- [DW_OP_constu 136, DW_OP_minus] [$rbp+0]
	#DEBUG_VALUE: b <- [DW_OP_constu 256, DW_OP_minus] [$rbp+0]
	.loc	1 197 1 is_stmt 1       # backgroundfield/quadr.cpp:197:1
	vmovsd	(%rcx), %xmm0           # xmm0 = mem[0],zero
	.loc	1 198 1                 # backgroundfield/quadr.cpp:198:1
	vmovapd	%xmm0, %xmm1
	movq	-64(%rbp), %r13         # 8-byte Reload
	vmovapd	-112(%rbp), %xmm9       # 16-byte Reload
	vmovapd	-208(%rbp), %xmm6       # 16-byte Reload
	jmp	.LBB2_36
.Ltmp180:
.LBB2_16:                               # %L.B0280
                                        #   in Loop: Header=BB2_1 Depth=1
	#DEBUG_VALUE: Romberg:absacc <- [DW_OP_constu 232, DW_OP_minus] [$rbp+0]
	#DEBUG_VALUE: absacc <- [DW_OP_constu 232, DW_OP_minus] [$rbp+0]
	#DEBUG_VALUE: Romberg:a <- [DW_OP_constu 136, DW_OP_minus] [$rbp+0]
	#DEBUG_VALUE: Romberg:b <- [DW_OP_constu 256, DW_OP_minus] [$rbp+0]
	#DEBUG_VALUE: a <- [DW_OP_constu 136, DW_OP_minus] [$rbp+0]
	#DEBUG_VALUE: b <- [DW_OP_constu 256, DW_OP_minus] [$rbp+0]
	.loc	1 0 1 is_stmt 0         # backgroundfield/quadr.cpp:0:1
	movb	%al, -224(%rbp)         # 1-byte Spill
	leaq	-728(%rbp), %rax
	movq	%rdi, -112(%rbp)        # 8-byte Spill
	leaq	(%rax,%rdi,8), %rax
	movq	%rax, -48(%rbp)         # 8-byte Spill
	leaq	-1(%rsi), %r11
	.loc	1 197 1 is_stmt 1       # backgroundfield/quadr.cpp:197:1
	decl	%edx
	.loc	1 0 0 is_stmt 0         # backgroundfield/quadr.cpp:0:0
	vmovsd	-864(%rbp), %xmm1       # xmm1 = mem[0],zero
	.loc	1 198 1 is_stmt 1       # backgroundfield/quadr.cpp:198:1
	movq	%r12, %r13
	movabsq	$4294967296, %rax       # imm = 0x100000000
	movabsq	$8589934592, %r9        # imm = 0x200000000
	movabsq	$12884901888, %r15      # imm = 0x300000000
	xorl	%edi, %edi
	jmp	.LBB2_17
.Ltmp181:
	.p2align	4, 0x90
.LBB2_19:                               # %L.B0271
                                        #   in Loop: Header=BB2_17 Depth=2
	#DEBUG_VALUE: Romberg:absacc <- [DW_OP_constu 232, DW_OP_minus] [$rbp+0]
	#DEBUG_VALUE: absacc <- [DW_OP_constu 232, DW_OP_minus] [$rbp+0]
	#DEBUG_VALUE: Romberg:a <- [DW_OP_constu 136, DW_OP_minus] [$rbp+0]
	#DEBUG_VALUE: Romberg:b <- [DW_OP_constu 256, DW_OP_minus] [$rbp+0]
	#DEBUG_VALUE: a <- [DW_OP_constu 136, DW_OP_minus] [$rbp+0]
	#DEBUG_VALUE: b <- [DW_OP_constu 256, DW_OP_minus] [$rbp+0]
	leal	(%rdx,%rdx), %ebx
	addl	$2, %ebx
	xorl	%esi, %esi
	cmpl	%r13d, %ebx
	setge	%sil
	movslq	%edx, %rdx
	leaq	-1056(%rbp,%rdx,8), %rbx
	leaq	-888(%rbp), %rcx
	leaq	(%rcx,%rdx,8), %r8
	cmovgeq	%rbx, %r8
	subl	%esi, %edx
	vmovsd	(%r8), %xmm9            # xmm9 = mem[0],zero
	vaddsd	%xmm9, %xmm0, %xmm0
	incq	%rdi
	movabsq	$4294967296, %rsi       # imm = 0x100000000
	addq	%rsi, %r15
	addq	%rsi, %r9
	addq	%rsi, %rax
	cmpq	%r11, %rdi
	jae	.LBB2_20
.Ltmp182:
.LBB2_17:                               # %L.B0268
                                        #   Parent Loop BB2_1 Depth=1
                                        # =>  This Inner Loop Header: Depth=2
	#DEBUG_VALUE: Romberg:absacc <- [DW_OP_constu 232, DW_OP_minus] [$rbp+0]
	#DEBUG_VALUE: absacc <- [DW_OP_constu 232, DW_OP_minus] [$rbp+0]
	#DEBUG_VALUE: Romberg:a <- [DW_OP_constu 136, DW_OP_minus] [$rbp+0]
	#DEBUG_VALUE: Romberg:b <- [DW_OP_constu 256, DW_OP_minus] [$rbp+0]
	#DEBUG_VALUE: a <- [DW_OP_constu 136, DW_OP_minus] [$rbp+0]
	#DEBUG_VALUE: b <- [DW_OP_constu 256, DW_OP_minus] [$rbp+0]
	movq	%r13, %rbx
	decq	%r13
	cmpl	$2, %ebx
	jl	.LBB2_19
.Ltmp183:
# %bb.18:                               # %L.B0270
                                        #   in Loop: Header=BB2_17 Depth=2
	#DEBUG_VALUE: Romberg:absacc <- [DW_OP_constu 232, DW_OP_minus] [$rbp+0]
	#DEBUG_VALUE: absacc <- [DW_OP_constu 232, DW_OP_minus] [$rbp+0]
	#DEBUG_VALUE: Romberg:a <- [DW_OP_constu 136, DW_OP_minus] [$rbp+0]
	#DEBUG_VALUE: Romberg:b <- [DW_OP_constu 256, DW_OP_minus] [$rbp+0]
	#DEBUG_VALUE: a <- [DW_OP_constu 136, DW_OP_minus] [$rbp+0]
	#DEBUG_VALUE: b <- [DW_OP_constu 256, DW_OP_minus] [$rbp+0]
	vmovsd	(%r10), %xmm2           # xmm2 = mem[0],zero
	vmovsd	-888(%rbp), %xmm3       # xmm3 = mem[0],zero
	vsubsd	-1056(%rbp), %xmm3, %xmm3
	movq	-48(%rbp), %rcx         # 8-byte Reload
	vmovsd	(%rcx,%rdi,8), %xmm4    # xmm4 = mem[0],zero
	vsubsd	%xmm4, %xmm2, %xmm5
	vdivsd	%xmm5, %xmm3, %xmm3
	vmulsd	%xmm3, %xmm4, %xmm4
	vmovsd	%xmm4, -1056(%rbp)
	vmulsd	%xmm3, %xmm2, %xmm2
	vmovsd	%xmm2, -896(%rbp)
	cmpq	$1, %r13
	jle	.LBB2_19
.Ltmp184:
# %bb.42:                               # %L.B0270.1
                                        #   in Loop: Header=BB2_17 Depth=2
	#DEBUG_VALUE: Romberg:absacc <- [DW_OP_constu 232, DW_OP_minus] [$rbp+0]
	#DEBUG_VALUE: absacc <- [DW_OP_constu 232, DW_OP_minus] [$rbp+0]
	#DEBUG_VALUE: Romberg:a <- [DW_OP_constu 136, DW_OP_minus] [$rbp+0]
	#DEBUG_VALUE: Romberg:b <- [DW_OP_constu 256, DW_OP_minus] [$rbp+0]
	#DEBUG_VALUE: a <- [DW_OP_constu 136, DW_OP_minus] [$rbp+0]
	#DEBUG_VALUE: b <- [DW_OP_constu 256, DW_OP_minus] [$rbp+0]
	vmovsd	-880(%rbp), %xmm2       # xmm2 = mem[0],zero
	vsubsd	-1048(%rbp), %xmm2, %xmm2
	movq	%r10, %rcx
	vmovsd	8(%r10), %xmm3          # xmm3 = mem[0],zero
	movq	%rax, %rsi
	sarq	$29, %rsi
	vmovsd	8(%r10,%rsi), %xmm4     # xmm4 = mem[0],zero
	vsubsd	%xmm4, %xmm3, %xmm5
	vdivsd	%xmm5, %xmm2, %xmm2
	vmulsd	%xmm2, %xmm4, %xmm4
	vmovsd	%xmm4, -1048(%rbp)
	vmulsd	%xmm2, %xmm3, %xmm2
	vmovsd	%xmm2, -888(%rbp)
	cmpq	$3, %rbx
	je	.LBB2_19
.Ltmp185:
# %bb.43:                               # %L.B0270.2
                                        #   in Loop: Header=BB2_17 Depth=2
	#DEBUG_VALUE: Romberg:absacc <- [DW_OP_constu 232, DW_OP_minus] [$rbp+0]
	#DEBUG_VALUE: absacc <- [DW_OP_constu 232, DW_OP_minus] [$rbp+0]
	#DEBUG_VALUE: Romberg:a <- [DW_OP_constu 136, DW_OP_minus] [$rbp+0]
	#DEBUG_VALUE: Romberg:b <- [DW_OP_constu 256, DW_OP_minus] [$rbp+0]
	#DEBUG_VALUE: a <- [DW_OP_constu 136, DW_OP_minus] [$rbp+0]
	#DEBUG_VALUE: b <- [DW_OP_constu 256, DW_OP_minus] [$rbp+0]
	vmovsd	-872(%rbp), %xmm2       # xmm2 = mem[0],zero
	vsubsd	-1040(%rbp), %xmm2, %xmm2
	movq	%r10, %rcx
	vmovsd	16(%r10), %xmm3         # xmm3 = mem[0],zero
	movq	%r9, %rsi
	sarq	$29, %rsi
	vmovsd	8(%r10,%rsi), %xmm4     # xmm4 = mem[0],zero
	vsubsd	%xmm4, %xmm3, %xmm5
	vdivsd	%xmm5, %xmm2, %xmm2
	vmulsd	%xmm2, %xmm4, %xmm4
	vmovsd	%xmm4, -1040(%rbp)
	vmulsd	%xmm2, %xmm3, %xmm2
	vmovsd	%xmm2, -880(%rbp)
	cmpq	$4, %r13
	jl	.LBB2_19
.Ltmp186:
# %bb.44:                               # %L.B0270.3
                                        #   in Loop: Header=BB2_17 Depth=2
	#DEBUG_VALUE: Romberg:absacc <- [DW_OP_constu 232, DW_OP_minus] [$rbp+0]
	#DEBUG_VALUE: absacc <- [DW_OP_constu 232, DW_OP_minus] [$rbp+0]
	#DEBUG_VALUE: Romberg:a <- [DW_OP_constu 136, DW_OP_minus] [$rbp+0]
	#DEBUG_VALUE: Romberg:b <- [DW_OP_constu 256, DW_OP_minus] [$rbp+0]
	#DEBUG_VALUE: a <- [DW_OP_constu 136, DW_OP_minus] [$rbp+0]
	#DEBUG_VALUE: b <- [DW_OP_constu 256, DW_OP_minus] [$rbp+0]
	.loc	1 0 1 is_stmt 0         # backgroundfield/quadr.cpp:0:1
	movq	%r10, %rcx
	.loc	1 198 1                 # backgroundfield/quadr.cpp:198:1
	vmovsd	24(%r10), %xmm2         # xmm2 = mem[0],zero
	vsubsd	-1032(%rbp), %xmm1, %xmm3
	movq	%r15, %rsi
	sarq	$29, %rsi
	vmovsd	8(%r10,%rsi), %xmm4     # xmm4 = mem[0],zero
	vsubsd	%xmm4, %xmm2, %xmm5
	vdivsd	%xmm5, %xmm3, %xmm3
	vmulsd	%xmm3, %xmm4, %xmm4
	vmovsd	%xmm4, -1032(%rbp)
	vmulsd	%xmm3, %xmm2, %xmm2
	vmovsd	%xmm2, -872(%rbp)
	jmp	.LBB2_19
.Ltmp187:
.LBB2_20:                               #   in Loop: Header=BB2_1 Depth=1
	#DEBUG_VALUE: Romberg:absacc <- [DW_OP_constu 232, DW_OP_minus] [$rbp+0]
	#DEBUG_VALUE: absacc <- [DW_OP_constu 232, DW_OP_minus] [$rbp+0]
	#DEBUG_VALUE: Romberg:a <- [DW_OP_constu 136, DW_OP_minus] [$rbp+0]
	#DEBUG_VALUE: Romberg:b <- [DW_OP_constu 256, DW_OP_minus] [$rbp+0]
	#DEBUG_VALUE: a <- [DW_OP_constu 136, DW_OP_minus] [$rbp+0]
	#DEBUG_VALUE: b <- [DW_OP_constu 256, DW_OP_minus] [$rbp+0]
	.loc	1 0 1                   # backgroundfield/quadr.cpp:0:1
	movq	-144(%rbp), %r15        # 8-byte Reload
	movq	-120(%rbp), %r8         # 8-byte Reload
	movq	-80(%rbp), %rcx         # 8-byte Reload
	movq	-72(%rbp), %rsi         # 8-byte Reload
	movq	-112(%rbp), %rdi        # 8-byte Reload
	movb	-224(%rbp), %r9b        # 1-byte Reload
.Ltmp188:
.LBB2_21:                               # %L.B0269
                                        #   in Loop: Header=BB2_1 Depth=1
	#DEBUG_VALUE: Romberg:absacc <- [DW_OP_constu 232, DW_OP_minus] [$rbp+0]
	#DEBUG_VALUE: absacc <- [DW_OP_constu 232, DW_OP_minus] [$rbp+0]
	#DEBUG_VALUE: Romberg:a <- [DW_OP_constu 136, DW_OP_minus] [$rbp+0]
	#DEBUG_VALUE: Romberg:b <- [DW_OP_constu 256, DW_OP_minus] [$rbp+0]
	#DEBUG_VALUE: a <- [DW_OP_constu 136, DW_OP_minus] [$rbp+0]
	#DEBUG_VALUE: b <- [DW_OP_constu 256, DW_OP_minus] [$rbp+0]
	xorl	%edx, %edx
	.loc	1 198 1                 # backgroundfield/quadr.cpp:198:1
	testl	%esi, %esi
	je	.LBB2_29
.Ltmp189:
# %bb.22:                               # %L.B0283
                                        #   in Loop: Header=BB2_1 Depth=1
	#DEBUG_VALUE: Romberg:absacc <- [DW_OP_constu 232, DW_OP_minus] [$rbp+0]
	#DEBUG_VALUE: absacc <- [DW_OP_constu 232, DW_OP_minus] [$rbp+0]
	#DEBUG_VALUE: Romberg:a <- [DW_OP_constu 136, DW_OP_minus] [$rbp+0]
	#DEBUG_VALUE: Romberg:b <- [DW_OP_constu 256, DW_OP_minus] [$rbp+0]
	#DEBUG_VALUE: a <- [DW_OP_constu 136, DW_OP_minus] [$rbp+0]
	#DEBUG_VALUE: b <- [DW_OP_constu 256, DW_OP_minus] [$rbp+0]
	vmovsd	(%r10), %xmm1           # xmm1 = mem[0],zero
	vucomisd	%xmm8, %xmm1
	jne	.LBB2_25
	jnp	.LBB2_23
.Ltmp190:
.LBB2_25:                               # %L..inline.11527.lr.ph
                                        #   in Loop: Header=BB2_1 Depth=1
	#DEBUG_VALUE: Romberg:absacc <- [DW_OP_constu 232, DW_OP_minus] [$rbp+0]
	#DEBUG_VALUE: absacc <- [DW_OP_constu 232, DW_OP_minus] [$rbp+0]
	#DEBUG_VALUE: Romberg:a <- [DW_OP_constu 136, DW_OP_minus] [$rbp+0]
	#DEBUG_VALUE: Romberg:b <- [DW_OP_constu 256, DW_OP_minus] [$rbp+0]
	#DEBUG_VALUE: a <- [DW_OP_constu 136, DW_OP_minus] [$rbp+0]
	#DEBUG_VALUE: b <- [DW_OP_constu 256, DW_OP_minus] [$rbp+0]
	movq	(%rcx), %rax
	movq	%rax, -592(%rbp)
	vmovq	%rax, %xmm2
	vaddsd	.LCPI2_3(%rip), %xmm2, %xmm2
	vmovsd	%xmm2, -432(%rbp)
	cmpq	$1, %rsi
	jbe	.LBB2_29
.Ltmp191:
# %bb.26:                               # %L..inline.11527.L..inline.11524_crit_edge
                                        #   in Loop: Header=BB2_1 Depth=1
	#DEBUG_VALUE: Romberg:absacc <- [DW_OP_constu 232, DW_OP_minus] [$rbp+0]
	#DEBUG_VALUE: absacc <- [DW_OP_constu 232, DW_OP_minus] [$rbp+0]
	#DEBUG_VALUE: Romberg:a <- [DW_OP_constu 136, DW_OP_minus] [$rbp+0]
	#DEBUG_VALUE: Romberg:b <- [DW_OP_constu 256, DW_OP_minus] [$rbp+0]
	#DEBUG_VALUE: a <- [DW_OP_constu 136, DW_OP_minus] [$rbp+0]
	#DEBUG_VALUE: b <- [DW_OP_constu 256, DW_OP_minus] [$rbp+0]
	vmovsd	8(%r10), %xmm2          # xmm2 = mem[0],zero
	vucomisd	%xmm8, %xmm2
	jne	.LBB2_45
	jnp	.LBB2_27
.Ltmp192:
.LBB2_45:                               # %L..inline.11527.1
                                        #   in Loop: Header=BB2_1 Depth=1
	#DEBUG_VALUE: Romberg:absacc <- [DW_OP_constu 232, DW_OP_minus] [$rbp+0]
	#DEBUG_VALUE: absacc <- [DW_OP_constu 232, DW_OP_minus] [$rbp+0]
	#DEBUG_VALUE: Romberg:a <- [DW_OP_constu 136, DW_OP_minus] [$rbp+0]
	#DEBUG_VALUE: Romberg:b <- [DW_OP_constu 256, DW_OP_minus] [$rbp+0]
	#DEBUG_VALUE: a <- [DW_OP_constu 136, DW_OP_minus] [$rbp+0]
	#DEBUG_VALUE: b <- [DW_OP_constu 256, DW_OP_minus] [$rbp+0]
	vandpd	%xmm6, %xmm1, %xmm1
	vminsd	%xmm1, %xmm1, %xmm1
	vandpd	%xmm6, %xmm2, %xmm2
	xorl	%edx, %edx
	vucomisd	%xmm2, %xmm1
	seta	%dl
	movq	8(%rcx), %rax
	movq	%rax, -584(%rbp)
	vmovq	%rax, %xmm3
	vaddsd	.LCPI2_3(%rip), %xmm3, %xmm3
	vmovsd	%xmm3, -424(%rbp)
	cmpq	$3, %rsi
	jb	.LBB2_29
.Ltmp193:
# %bb.46:                               # %L..inline.11527.L..inline.11524_crit_edge.1
                                        #   in Loop: Header=BB2_1 Depth=1
	#DEBUG_VALUE: Romberg:absacc <- [DW_OP_constu 232, DW_OP_minus] [$rbp+0]
	#DEBUG_VALUE: absacc <- [DW_OP_constu 232, DW_OP_minus] [$rbp+0]
	#DEBUG_VALUE: Romberg:a <- [DW_OP_constu 136, DW_OP_minus] [$rbp+0]
	#DEBUG_VALUE: Romberg:b <- [DW_OP_constu 256, DW_OP_minus] [$rbp+0]
	#DEBUG_VALUE: a <- [DW_OP_constu 136, DW_OP_minus] [$rbp+0]
	#DEBUG_VALUE: b <- [DW_OP_constu 256, DW_OP_minus] [$rbp+0]
	vmovsd	16(%r10), %xmm3         # xmm3 = mem[0],zero
	vucomisd	%xmm8, %xmm3
	jne	.LBB2_48
	jnp	.LBB2_47
.Ltmp194:
.LBB2_48:                               # %L..inline.11527.2
                                        #   in Loop: Header=BB2_1 Depth=1
	#DEBUG_VALUE: Romberg:absacc <- [DW_OP_constu 232, DW_OP_minus] [$rbp+0]
	#DEBUG_VALUE: absacc <- [DW_OP_constu 232, DW_OP_minus] [$rbp+0]
	#DEBUG_VALUE: Romberg:a <- [DW_OP_constu 136, DW_OP_minus] [$rbp+0]
	#DEBUG_VALUE: Romberg:b <- [DW_OP_constu 256, DW_OP_minus] [$rbp+0]
	#DEBUG_VALUE: a <- [DW_OP_constu 136, DW_OP_minus] [$rbp+0]
	#DEBUG_VALUE: b <- [DW_OP_constu 256, DW_OP_minus] [$rbp+0]
	vminsd	%xmm1, %xmm2, %xmm1
	vandpd	%xmm6, %xmm3, %xmm2
	vucomisd	%xmm2, %xmm1
	movl	$2, %eax
	cmoval	%eax, %edx
	movq	16(%rcx), %rax
	movq	%rax, -576(%rbp)
	vmovq	%rax, %xmm3
	vaddsd	.LCPI2_3(%rip), %xmm3, %xmm3
	vmovsd	%xmm3, -416(%rbp)
	cmpq	$4, %rsi
	jb	.LBB2_29
.Ltmp195:
# %bb.49:                               # %L..inline.11527.L..inline.11524_crit_edge.2
                                        #   in Loop: Header=BB2_1 Depth=1
	#DEBUG_VALUE: Romberg:absacc <- [DW_OP_constu 232, DW_OP_minus] [$rbp+0]
	#DEBUG_VALUE: absacc <- [DW_OP_constu 232, DW_OP_minus] [$rbp+0]
	#DEBUG_VALUE: Romberg:a <- [DW_OP_constu 136, DW_OP_minus] [$rbp+0]
	#DEBUG_VALUE: Romberg:b <- [DW_OP_constu 256, DW_OP_minus] [$rbp+0]
	#DEBUG_VALUE: a <- [DW_OP_constu 136, DW_OP_minus] [$rbp+0]
	#DEBUG_VALUE: b <- [DW_OP_constu 256, DW_OP_minus] [$rbp+0]
	vmovsd	24(%r10), %xmm3         # xmm3 = mem[0],zero
	vucomisd	%xmm8, %xmm3
	jne	.LBB2_51
	jnp	.LBB2_50
.Ltmp196:
.LBB2_51:                               # %L..inline.11527.3
                                        #   in Loop: Header=BB2_1 Depth=1
	#DEBUG_VALUE: Romberg:absacc <- [DW_OP_constu 232, DW_OP_minus] [$rbp+0]
	#DEBUG_VALUE: absacc <- [DW_OP_constu 232, DW_OP_minus] [$rbp+0]
	#DEBUG_VALUE: Romberg:a <- [DW_OP_constu 136, DW_OP_minus] [$rbp+0]
	#DEBUG_VALUE: Romberg:b <- [DW_OP_constu 256, DW_OP_minus] [$rbp+0]
	#DEBUG_VALUE: a <- [DW_OP_constu 136, DW_OP_minus] [$rbp+0]
	#DEBUG_VALUE: b <- [DW_OP_constu 256, DW_OP_minus] [$rbp+0]
	vminsd	%xmm1, %xmm2, %xmm1
	vandpd	%xmm6, %xmm3, %xmm2
	vucomisd	%xmm2, %xmm1
	movl	$3, %eax
	cmoval	%eax, %edx
	movq	24(%rcx), %rax
	movq	%rax, -568(%rbp)
	vmovq	%rax, %xmm3
	vaddsd	.LCPI2_3(%rip), %xmm3, %xmm3
	vmovsd	%xmm3, -408(%rbp)
	cmpq	$5, %rsi
	jb	.LBB2_29
.Ltmp197:
# %bb.52:                               # %L..inline.11527.L..inline.11524_crit_edge.3
                                        #   in Loop: Header=BB2_1 Depth=1
	#DEBUG_VALUE: Romberg:absacc <- [DW_OP_constu 232, DW_OP_minus] [$rbp+0]
	#DEBUG_VALUE: absacc <- [DW_OP_constu 232, DW_OP_minus] [$rbp+0]
	#DEBUG_VALUE: Romberg:a <- [DW_OP_constu 136, DW_OP_minus] [$rbp+0]
	#DEBUG_VALUE: Romberg:b <- [DW_OP_constu 256, DW_OP_minus] [$rbp+0]
	#DEBUG_VALUE: a <- [DW_OP_constu 136, DW_OP_minus] [$rbp+0]
	#DEBUG_VALUE: b <- [DW_OP_constu 256, DW_OP_minus] [$rbp+0]
	vmovsd	32(%r10), %xmm3         # xmm3 = mem[0],zero
	vucomisd	%xmm8, %xmm3
	jne	.LBB2_28
	jnp	.LBB2_53
.Ltmp198:
.LBB2_28:                               # %L..inline.11527.4
                                        #   in Loop: Header=BB2_1 Depth=1
	#DEBUG_VALUE: Romberg:absacc <- [DW_OP_constu 232, DW_OP_minus] [$rbp+0]
	#DEBUG_VALUE: absacc <- [DW_OP_constu 232, DW_OP_minus] [$rbp+0]
	#DEBUG_VALUE: Romberg:a <- [DW_OP_constu 136, DW_OP_minus] [$rbp+0]
	#DEBUG_VALUE: Romberg:b <- [DW_OP_constu 256, DW_OP_minus] [$rbp+0]
	#DEBUG_VALUE: a <- [DW_OP_constu 136, DW_OP_minus] [$rbp+0]
	#DEBUG_VALUE: b <- [DW_OP_constu 256, DW_OP_minus] [$rbp+0]
	vandpd	%xmm6, %xmm3, %xmm3
	vminsd	%xmm1, %xmm2, %xmm1
	vucomisd	%xmm3, %xmm1
	movl	$4, %eax
	cmoval	%eax, %edx
	movq	32(%rcx), %rax
	movq	%rax, -560(%rbp)
	vmovq	%rax, %xmm1
	vaddsd	.LCPI2_3(%rip), %xmm1, %xmm1
	vmovsd	%xmm1, -400(%rbp)
.Ltmp199:
.LBB2_29:                               # %L..inline.11525
                                        #   in Loop: Header=BB2_1 Depth=1
	#DEBUG_VALUE: Romberg:absacc <- [DW_OP_constu 232, DW_OP_minus] [$rbp+0]
	#DEBUG_VALUE: absacc <- [DW_OP_constu 232, DW_OP_minus] [$rbp+0]
	#DEBUG_VALUE: Romberg:a <- [DW_OP_constu 136, DW_OP_minus] [$rbp+0]
	#DEBUG_VALUE: Romberg:b <- [DW_OP_constu 256, DW_OP_minus] [$rbp+0]
	#DEBUG_VALUE: a <- [DW_OP_constu 136, DW_OP_minus] [$rbp+0]
	#DEBUG_VALUE: b <- [DW_OP_constu 256, DW_OP_minus] [$rbp+0]
	movl	%edx, %eax
	vmovsd	(%rcx,%rax,8), %xmm1    # xmm1 = mem[0],zero
	testb	%r9b, %r9b
	je	.LBB2_31
.Ltmp200:
# %bb.30:                               #   in Loop: Header=BB2_1 Depth=1
	#DEBUG_VALUE: Romberg:absacc <- [DW_OP_constu 232, DW_OP_minus] [$rbp+0]
	#DEBUG_VALUE: absacc <- [DW_OP_constu 232, DW_OP_minus] [$rbp+0]
	#DEBUG_VALUE: Romberg:a <- [DW_OP_constu 136, DW_OP_minus] [$rbp+0]
	#DEBUG_VALUE: Romberg:b <- [DW_OP_constu 256, DW_OP_minus] [$rbp+0]
	#DEBUG_VALUE: a <- [DW_OP_constu 136, DW_OP_minus] [$rbp+0]
	#DEBUG_VALUE: b <- [DW_OP_constu 256, DW_OP_minus] [$rbp+0]
	.loc	1 0 1                   # backgroundfield/quadr.cpp:0:1
	movq	-64(%rbp), %r13         # 8-byte Reload
	leaq	-184(%rbp), %rdi
	movl	-56(%rbp), %edx         # 4-byte Reload
	vmovsd	-88(%rbp), %xmm8        # 8-byte Reload
                                        # xmm8 = mem[0],zero
	vmovapd	-208(%rbp), %xmm6       # 16-byte Reload
	jmp	.LBB2_36
.Ltmp201:
.LBB2_31:                               # %L.B0286
                                        #   in Loop: Header=BB2_1 Depth=1
	#DEBUG_VALUE: Romberg:absacc <- [DW_OP_constu 232, DW_OP_minus] [$rbp+0]
	#DEBUG_VALUE: absacc <- [DW_OP_constu 232, DW_OP_minus] [$rbp+0]
	#DEBUG_VALUE: Romberg:a <- [DW_OP_constu 136, DW_OP_minus] [$rbp+0]
	#DEBUG_VALUE: Romberg:b <- [DW_OP_constu 256, DW_OP_minus] [$rbp+0]
	#DEBUG_VALUE: a <- [DW_OP_constu 136, DW_OP_minus] [$rbp+0]
	#DEBUG_VALUE: b <- [DW_OP_constu 256, DW_OP_minus] [$rbp+0]
	leaq	-728(%rbp), %rax
	leaq	(%rax,%rdi,8), %rax
	addq	$24, %rax
	decq	%r12
	.loc	1 198 1                 # backgroundfield/quadr.cpp:198:1
	decl	%edx
	.loc	1 0 0                   # backgroundfield/quadr.cpp:0:0
	vmovsd	(%r10), %xmm2           # xmm2 = mem[0],zero
	vmovsd	-560(%rbp), %xmm3       # xmm3 = mem[0],zero
	jmp	.LBB2_32
.Ltmp202:
.LBB2_59:                               # %L..inline.11543.3
                                        #   in Loop: Header=BB2_32 Depth=2
	#DEBUG_VALUE: Romberg:absacc <- [DW_OP_constu 232, DW_OP_minus] [$rbp+0]
	#DEBUG_VALUE: absacc <- [DW_OP_constu 232, DW_OP_minus] [$rbp+0]
	#DEBUG_VALUE: Romberg:a <- [DW_OP_constu 136, DW_OP_minus] [$rbp+0]
	#DEBUG_VALUE: Romberg:b <- [DW_OP_constu 256, DW_OP_minus] [$rbp+0]
	#DEBUG_VALUE: a <- [DW_OP_constu 136, DW_OP_minus] [$rbp+0]
	#DEBUG_VALUE: b <- [DW_OP_constu 256, DW_OP_minus] [$rbp+0]
	.loc	1 198 1                 # backgroundfield/quadr.cpp:198:1
	vsubsd	%xmm5, %xmm3, %xmm5
	vdivsd	%xmm6, %xmm5, %xmm5
	vmulsd	%xmm5, %xmm3, %xmm6
	vmovsd	%xmm6, -408(%rbp)
	vmulsd	%xmm5, %xmm4, %xmm4
	vmovsd	%xmm4, -568(%rbp)
.Ltmp203:
	.p2align	4, 0x90
.LBB2_34:                               # %L..inline.11539
                                        #   in Loop: Header=BB2_32 Depth=2
	#DEBUG_VALUE: Romberg:absacc <- [DW_OP_constu 232, DW_OP_minus] [$rbp+0]
	#DEBUG_VALUE: absacc <- [DW_OP_constu 232, DW_OP_minus] [$rbp+0]
	#DEBUG_VALUE: Romberg:a <- [DW_OP_constu 136, DW_OP_minus] [$rbp+0]
	#DEBUG_VALUE: Romberg:b <- [DW_OP_constu 256, DW_OP_minus] [$rbp+0]
	#DEBUG_VALUE: a <- [DW_OP_constu 136, DW_OP_minus] [$rbp+0]
	#DEBUG_VALUE: b <- [DW_OP_constu 256, DW_OP_minus] [$rbp+0]
	leal	(%rdx,%rdx), %ecx
	addl	$2, %ecx
	movslq	%ecx, %rcx
	xorl	%esi, %esi
	cmpq	%rcx, %r12
	setle	%sil
	movslq	%edx, %rdx
	leaq	-432(%rbp,%rdx,8), %rcx
	leaq	-584(%rbp), %rdi
	leaq	(%rdi,%rdx,8), %rdi
	cmovleq	%rcx, %rdi
	subl	%esi, %edx
	vmovsd	(%rdi), %xmm6           # xmm6 = mem[0],zero
	vaddsd	%xmm6, %xmm1, %xmm1
	addq	$8, %rax
	decq	%r12
	testl	%r12d, %r12d
	jle	.LBB2_35
.Ltmp204:
.LBB2_32:                               # %L..inline.11538.preheader
                                        #   Parent Loop BB2_1 Depth=1
                                        # =>  This Inner Loop Header: Depth=2
	#DEBUG_VALUE: Romberg:absacc <- [DW_OP_constu 232, DW_OP_minus] [$rbp+0]
	#DEBUG_VALUE: absacc <- [DW_OP_constu 232, DW_OP_minus] [$rbp+0]
	#DEBUG_VALUE: Romberg:a <- [DW_OP_constu 136, DW_OP_minus] [$rbp+0]
	#DEBUG_VALUE: Romberg:b <- [DW_OP_constu 256, DW_OP_minus] [$rbp+0]
	#DEBUG_VALUE: a <- [DW_OP_constu 136, DW_OP_minus] [$rbp+0]
	#DEBUG_VALUE: b <- [DW_OP_constu 256, DW_OP_minus] [$rbp+0]
	vmovsd	-584(%rbp), %xmm4       # xmm4 = mem[0],zero
	vmovsd	-432(%rbp), %xmm6       # xmm6 = mem[0],zero
	vmulsd	%xmm2, %xmm6, %xmm5
	vdivsd	-24(%rax), %xmm5, %xmm5
	vsubsd	%xmm4, %xmm5, %xmm7
	vucomisd	%xmm8, %xmm7
	jne	.LBB2_33
	jnp	.LBB2_60
.Ltmp205:
.LBB2_33:                               # %L..inline.11543
                                        #   in Loop: Header=BB2_32 Depth=2
	#DEBUG_VALUE: Romberg:absacc <- [DW_OP_constu 232, DW_OP_minus] [$rbp+0]
	#DEBUG_VALUE: absacc <- [DW_OP_constu 232, DW_OP_minus] [$rbp+0]
	#DEBUG_VALUE: Romberg:a <- [DW_OP_constu 136, DW_OP_minus] [$rbp+0]
	#DEBUG_VALUE: Romberg:b <- [DW_OP_constu 256, DW_OP_minus] [$rbp+0]
	#DEBUG_VALUE: a <- [DW_OP_constu 136, DW_OP_minus] [$rbp+0]
	#DEBUG_VALUE: b <- [DW_OP_constu 256, DW_OP_minus] [$rbp+0]
	vsubsd	%xmm6, %xmm4, %xmm6
	vdivsd	%xmm7, %xmm6, %xmm6
	vmulsd	%xmm6, %xmm4, %xmm4
	vmovsd	%xmm4, -432(%rbp)
	vmulsd	%xmm6, %xmm5, %xmm4
	vmovsd	%xmm4, -592(%rbp)
	cmpq	$1, %r12
	jle	.LBB2_34
.Ltmp206:
# %bb.54:                               # %L..inline.11538.1
                                        #   in Loop: Header=BB2_32 Depth=2
	#DEBUG_VALUE: Romberg:absacc <- [DW_OP_constu 232, DW_OP_minus] [$rbp+0]
	#DEBUG_VALUE: absacc <- [DW_OP_constu 232, DW_OP_minus] [$rbp+0]
	#DEBUG_VALUE: Romberg:a <- [DW_OP_constu 136, DW_OP_minus] [$rbp+0]
	#DEBUG_VALUE: Romberg:b <- [DW_OP_constu 256, DW_OP_minus] [$rbp+0]
	#DEBUG_VALUE: a <- [DW_OP_constu 136, DW_OP_minus] [$rbp+0]
	#DEBUG_VALUE: b <- [DW_OP_constu 256, DW_OP_minus] [$rbp+0]
	vmovsd	-576(%rbp), %xmm4       # xmm4 = mem[0],zero
	vmovsd	-424(%rbp), %xmm6       # xmm6 = mem[0],zero
	vmulsd	8(%r10), %xmm6, %xmm5
	vdivsd	-16(%rax), %xmm5, %xmm5
	vsubsd	%xmm4, %xmm5, %xmm7
	vucomisd	%xmm8, %xmm7
	jne	.LBB2_55
	jnp	.LBB2_60
.Ltmp207:
.LBB2_55:                               # %L..inline.11543.1
                                        #   in Loop: Header=BB2_32 Depth=2
	#DEBUG_VALUE: Romberg:absacc <- [DW_OP_constu 232, DW_OP_minus] [$rbp+0]
	#DEBUG_VALUE: absacc <- [DW_OP_constu 232, DW_OP_minus] [$rbp+0]
	#DEBUG_VALUE: Romberg:a <- [DW_OP_constu 136, DW_OP_minus] [$rbp+0]
	#DEBUG_VALUE: Romberg:b <- [DW_OP_constu 256, DW_OP_minus] [$rbp+0]
	#DEBUG_VALUE: a <- [DW_OP_constu 136, DW_OP_minus] [$rbp+0]
	#DEBUG_VALUE: b <- [DW_OP_constu 256, DW_OP_minus] [$rbp+0]
	vsubsd	%xmm6, %xmm4, %xmm6
	vdivsd	%xmm7, %xmm6, %xmm6
	vmulsd	%xmm6, %xmm4, %xmm4
	vmovsd	%xmm4, -424(%rbp)
	vmulsd	%xmm6, %xmm5, %xmm4
	vmovsd	%xmm4, -584(%rbp)
	cmpq	$3, %r12
	jl	.LBB2_34
.Ltmp208:
# %bb.56:                               # %L..inline.11538.2
                                        #   in Loop: Header=BB2_32 Depth=2
	#DEBUG_VALUE: Romberg:absacc <- [DW_OP_constu 232, DW_OP_minus] [$rbp+0]
	#DEBUG_VALUE: absacc <- [DW_OP_constu 232, DW_OP_minus] [$rbp+0]
	#DEBUG_VALUE: Romberg:a <- [DW_OP_constu 136, DW_OP_minus] [$rbp+0]
	#DEBUG_VALUE: Romberg:b <- [DW_OP_constu 256, DW_OP_minus] [$rbp+0]
	#DEBUG_VALUE: a <- [DW_OP_constu 136, DW_OP_minus] [$rbp+0]
	#DEBUG_VALUE: b <- [DW_OP_constu 256, DW_OP_minus] [$rbp+0]
	vmovsd	-568(%rbp), %xmm4       # xmm4 = mem[0],zero
	vmovsd	-416(%rbp), %xmm6       # xmm6 = mem[0],zero
	vmulsd	16(%r10), %xmm6, %xmm5
	vdivsd	-8(%rax), %xmm5, %xmm5
	vsubsd	%xmm4, %xmm5, %xmm7
	vucomisd	%xmm8, %xmm7
	jne	.LBB2_57
	jnp	.LBB2_60
.Ltmp209:
.LBB2_57:                               # %L..inline.11543.2
                                        #   in Loop: Header=BB2_32 Depth=2
	#DEBUG_VALUE: Romberg:absacc <- [DW_OP_constu 232, DW_OP_minus] [$rbp+0]
	#DEBUG_VALUE: absacc <- [DW_OP_constu 232, DW_OP_minus] [$rbp+0]
	#DEBUG_VALUE: Romberg:a <- [DW_OP_constu 136, DW_OP_minus] [$rbp+0]
	#DEBUG_VALUE: Romberg:b <- [DW_OP_constu 256, DW_OP_minus] [$rbp+0]
	#DEBUG_VALUE: a <- [DW_OP_constu 136, DW_OP_minus] [$rbp+0]
	#DEBUG_VALUE: b <- [DW_OP_constu 256, DW_OP_minus] [$rbp+0]
	vsubsd	%xmm6, %xmm4, %xmm6
	vdivsd	%xmm7, %xmm6, %xmm6
	vmulsd	%xmm6, %xmm4, %xmm4
	vmovsd	%xmm4, -416(%rbp)
	vmulsd	%xmm6, %xmm5, %xmm4
	vmovsd	%xmm4, -576(%rbp)
	cmpq	$4, %r12
	jl	.LBB2_34
.Ltmp210:
# %bb.58:                               # %L..inline.11538.3
                                        #   in Loop: Header=BB2_32 Depth=2
	#DEBUG_VALUE: Romberg:absacc <- [DW_OP_constu 232, DW_OP_minus] [$rbp+0]
	#DEBUG_VALUE: absacc <- [DW_OP_constu 232, DW_OP_minus] [$rbp+0]
	#DEBUG_VALUE: Romberg:a <- [DW_OP_constu 136, DW_OP_minus] [$rbp+0]
	#DEBUG_VALUE: Romberg:b <- [DW_OP_constu 256, DW_OP_minus] [$rbp+0]
	#DEBUG_VALUE: a <- [DW_OP_constu 136, DW_OP_minus] [$rbp+0]
	#DEBUG_VALUE: b <- [DW_OP_constu 256, DW_OP_minus] [$rbp+0]
	vmovsd	-408(%rbp), %xmm5       # xmm5 = mem[0],zero
	vmulsd	24(%r10), %xmm5, %xmm4
	vdivsd	(%rax), %xmm4, %xmm4
	vsubsd	%xmm3, %xmm4, %xmm6
	vucomisd	%xmm8, %xmm6
	jne	.LBB2_59
	jp	.LBB2_59
	jmp	.LBB2_60
.Ltmp211:
.LBB2_23:                               #   in Loop: Header=BB2_1 Depth=1
	#DEBUG_VALUE: Romberg:absacc <- [DW_OP_constu 232, DW_OP_minus] [$rbp+0]
	#DEBUG_VALUE: absacc <- [DW_OP_constu 232, DW_OP_minus] [$rbp+0]
	#DEBUG_VALUE: Romberg:a <- [DW_OP_constu 136, DW_OP_minus] [$rbp+0]
	#DEBUG_VALUE: Romberg:b <- [DW_OP_constu 256, DW_OP_minus] [$rbp+0]
	#DEBUG_VALUE: a <- [DW_OP_constu 136, DW_OP_minus] [$rbp+0]
	#DEBUG_VALUE: b <- [DW_OP_constu 256, DW_OP_minus] [$rbp+0]
	xorl	%eax, %eax
	jmp	.LBB2_24
.Ltmp212:
.LBB2_27:                               #   in Loop: Header=BB2_1 Depth=1
	#DEBUG_VALUE: Romberg:absacc <- [DW_OP_constu 232, DW_OP_minus] [$rbp+0]
	#DEBUG_VALUE: absacc <- [DW_OP_constu 232, DW_OP_minus] [$rbp+0]
	#DEBUG_VALUE: Romberg:a <- [DW_OP_constu 136, DW_OP_minus] [$rbp+0]
	#DEBUG_VALUE: Romberg:b <- [DW_OP_constu 256, DW_OP_minus] [$rbp+0]
	#DEBUG_VALUE: a <- [DW_OP_constu 136, DW_OP_minus] [$rbp+0]
	#DEBUG_VALUE: b <- [DW_OP_constu 256, DW_OP_minus] [$rbp+0]
	.loc	1 0 1                   # backgroundfield/quadr.cpp:0:1
	movl	$1, %eax
	jmp	.LBB2_24
.Ltmp213:
.LBB2_47:                               #   in Loop: Header=BB2_1 Depth=1
	#DEBUG_VALUE: Romberg:absacc <- [DW_OP_constu 232, DW_OP_minus] [$rbp+0]
	#DEBUG_VALUE: absacc <- [DW_OP_constu 232, DW_OP_minus] [$rbp+0]
	#DEBUG_VALUE: Romberg:a <- [DW_OP_constu 136, DW_OP_minus] [$rbp+0]
	#DEBUG_VALUE: Romberg:b <- [DW_OP_constu 256, DW_OP_minus] [$rbp+0]
	#DEBUG_VALUE: a <- [DW_OP_constu 136, DW_OP_minus] [$rbp+0]
	#DEBUG_VALUE: b <- [DW_OP_constu 256, DW_OP_minus] [$rbp+0]
	movl	$2, %eax
	jmp	.LBB2_24
.Ltmp214:
.LBB2_50:                               #   in Loop: Header=BB2_1 Depth=1
	#DEBUG_VALUE: Romberg:absacc <- [DW_OP_constu 232, DW_OP_minus] [$rbp+0]
	#DEBUG_VALUE: absacc <- [DW_OP_constu 232, DW_OP_minus] [$rbp+0]
	#DEBUG_VALUE: Romberg:a <- [DW_OP_constu 136, DW_OP_minus] [$rbp+0]
	#DEBUG_VALUE: Romberg:b <- [DW_OP_constu 256, DW_OP_minus] [$rbp+0]
	#DEBUG_VALUE: a <- [DW_OP_constu 136, DW_OP_minus] [$rbp+0]
	#DEBUG_VALUE: b <- [DW_OP_constu 256, DW_OP_minus] [$rbp+0]
	movl	$3, %eax
	jmp	.LBB2_24
.Ltmp215:
.LBB2_53:                               #   in Loop: Header=BB2_1 Depth=1
	#DEBUG_VALUE: Romberg:absacc <- [DW_OP_constu 232, DW_OP_minus] [$rbp+0]
	#DEBUG_VALUE: absacc <- [DW_OP_constu 232, DW_OP_minus] [$rbp+0]
	#DEBUG_VALUE: Romberg:a <- [DW_OP_constu 136, DW_OP_minus] [$rbp+0]
	#DEBUG_VALUE: Romberg:b <- [DW_OP_constu 256, DW_OP_minus] [$rbp+0]
	#DEBUG_VALUE: a <- [DW_OP_constu 136, DW_OP_minus] [$rbp+0]
	#DEBUG_VALUE: b <- [DW_OP_constu 256, DW_OP_minus] [$rbp+0]
	movl	$4, %eax
.Ltmp216:
.LBB2_24:                               # %L.B0284
                                        #   in Loop: Header=BB2_1 Depth=1
	#DEBUG_VALUE: Romberg:absacc <- [DW_OP_constu 232, DW_OP_minus] [$rbp+0]
	#DEBUG_VALUE: absacc <- [DW_OP_constu 232, DW_OP_minus] [$rbp+0]
	#DEBUG_VALUE: Romberg:a <- [DW_OP_constu 136, DW_OP_minus] [$rbp+0]
	#DEBUG_VALUE: Romberg:b <- [DW_OP_constu 256, DW_OP_minus] [$rbp+0]
	#DEBUG_VALUE: a <- [DW_OP_constu 136, DW_OP_minus] [$rbp+0]
	#DEBUG_VALUE: b <- [DW_OP_constu 256, DW_OP_minus] [$rbp+0]
	.loc	1 198 1                 # backgroundfield/quadr.cpp:198:1
	vmovsd	(%rcx,%rax,8), %xmm1    # xmm1 = mem[0],zero
	vxorpd	%xmm6, %xmm6, %xmm6
.Ltmp217:
.LBB2_35:                               #   in Loop: Header=BB2_1 Depth=1
	#DEBUG_VALUE: Romberg:absacc <- [DW_OP_constu 232, DW_OP_minus] [$rbp+0]
	#DEBUG_VALUE: absacc <- [DW_OP_constu 232, DW_OP_minus] [$rbp+0]
	#DEBUG_VALUE: Romberg:a <- [DW_OP_constu 136, DW_OP_minus] [$rbp+0]
	#DEBUG_VALUE: Romberg:b <- [DW_OP_constu 256, DW_OP_minus] [$rbp+0]
	#DEBUG_VALUE: a <- [DW_OP_constu 136, DW_OP_minus] [$rbp+0]
	#DEBUG_VALUE: b <- [DW_OP_constu 256, DW_OP_minus] [$rbp+0]
	.loc	1 0 1                   # backgroundfield/quadr.cpp:0:1
	movq	-64(%rbp), %r13         # 8-byte Reload
	leaq	-184(%rbp), %rdi
	movl	-56(%rbp), %edx         # 4-byte Reload
	vmovsd	-88(%rbp), %xmm8        # 8-byte Reload
                                        # xmm8 = mem[0],zero
.Ltmp218:
.LBB2_36:                               # %L..inline.11530
                                        #   in Loop: Header=BB2_1 Depth=1
	#DEBUG_VALUE: Romberg:absacc <- [DW_OP_constu 232, DW_OP_minus] [$rbp+0]
	#DEBUG_VALUE: absacc <- [DW_OP_constu 232, DW_OP_minus] [$rbp+0]
	#DEBUG_VALUE: Romberg:a <- [DW_OP_constu 136, DW_OP_minus] [$rbp+0]
	#DEBUG_VALUE: Romberg:b <- [DW_OP_constu 256, DW_OP_minus] [$rbp+0]
	#DEBUG_VALUE: a <- [DW_OP_constu 136, DW_OP_minus] [$rbp+0]
	#DEBUG_VALUE: b <- [DW_OP_constu 256, DW_OP_minus] [$rbp+0]
	vmovapd	.LCPI2_2(%rip), %xmm5   # xmm5 = [NaN,NaN]
	.loc	1 198 1                 # backgroundfield/quadr.cpp:198:1
	vandpd	%xmm5, %xmm9, %xmm9
	.loc	1 199 1 is_stmt 1       # backgroundfield/quadr.cpp:199:1
	vandpd	%xmm5, %xmm6, %xmm2
	.loc	1 200 1                 # backgroundfield/quadr.cpp:200:1
	vmaxsd	%xmm9, %xmm2, %xmm3
	vcmpunordsd	%xmm9, %xmm9, %xmm4
	vblendvpd	%xmm4, %xmm2, %xmm3, %xmm3
	vcmpunordsd	%xmm6, %xmm6, %xmm4
	vblendvpd	%xmm4, %xmm9, %xmm3, %xmm3
	.loc	1 201 1                 # backgroundfield/quadr.cpp:201:1
	vsubsd	%xmm1, %xmm0, %xmm4
	vandpd	%xmm5, %xmm4, %xmm5
	.loc	1 202 1                 # backgroundfield/quadr.cpp:202:1
	vcmpunordsd	%xmm3, %xmm3, %xmm6
	vmaxsd	%xmm3, %xmm5, %xmm7
	vblendvpd	%xmm6, %xmm5, %xmm7, %xmm5
	vcmpunordsd	%xmm4, %xmm4, %xmm4
	vblendvpd	%xmm4, %xmm3, %xmm5, %xmm3
	vmovsd	-232(%rbp), %xmm4       # 8-byte Reload
                                        # xmm4 = mem[0],zero
	.loc	1 204 1                 # backgroundfield/quadr.cpp:204:1
	vucomisd	%xmm3, %xmm4
	jbe	.LBB2_3
.Ltmp219:
# %bb.37:                               # %L.B0293
	#DEBUG_VALUE: Romberg:absacc <- [DW_OP_constu 232, DW_OP_minus] [$rbp+0]
	#DEBUG_VALUE: absacc <- [DW_OP_constu 232, DW_OP_minus] [$rbp+0]
	#DEBUG_VALUE: Romberg:a <- [DW_OP_constu 136, DW_OP_minus] [$rbp+0]
	#DEBUG_VALUE: Romberg:b <- [DW_OP_constu 256, DW_OP_minus] [$rbp+0]
	#DEBUG_VALUE: a <- [DW_OP_constu 136, DW_OP_minus] [$rbp+0]
	#DEBUG_VALUE: b <- [DW_OP_constu 256, DW_OP_minus] [$rbp+0]
	vaddsd	%xmm1, %xmm0, %xmm0
	vmulsd	.LCPI2_0(%rip), %xmm0, %xmm8
.Ltmp220:
.LBB2_38:                               # %L..inline.11589
	#DEBUG_VALUE: Romberg:absacc <- [DW_OP_constu 232, DW_OP_minus] [$rbp+0]
	#DEBUG_VALUE: absacc <- [DW_OP_constu 232, DW_OP_minus] [$rbp+0]
	#DEBUG_VALUE: Romberg:a <- [DW_OP_constu 136, DW_OP_minus] [$rbp+0]
	#DEBUG_VALUE: Romberg:b <- [DW_OP_constu 256, DW_OP_minus] [$rbp+0]
	#DEBUG_VALUE: a <- [DW_OP_constu 136, DW_OP_minus] [$rbp+0]
	#DEBUG_VALUE: b <- [DW_OP_constu 256, DW_OP_minus] [$rbp+0]
	.loc	1 232 1                 # backgroundfield/quadr.cpp:232:1
	vmovapd	%xmm8, %xmm0
	addq	$1016, %rsp             # imm = 0x3F8
	popq	%rbx
	popq	%r12
	popq	%r13
	popq	%r14
	popq	%r15
	popq	%rbp
	.cfi_def_cfa %rsp, 8
	retq
.Ltmp221:
.LBB2_60:                               # %L..inline.11548
	.cfi_def_cfa %rbp, 16
	#DEBUG_VALUE: Romberg:absacc <- [DW_OP_constu 232, DW_OP_minus] [$rbp+0]
	#DEBUG_VALUE: absacc <- [DW_OP_constu 232, DW_OP_minus] [$rbp+0]
	#DEBUG_VALUE: Romberg:a <- [DW_OP_constu 136, DW_OP_minus] [$rbp+0]
	#DEBUG_VALUE: Romberg:b <- [DW_OP_constu 256, DW_OP_minus] [$rbp+0]
	#DEBUG_VALUE: a <- [DW_OP_constu 136, DW_OP_minus] [$rbp+0]
	#DEBUG_VALUE: b <- [DW_OP_constu 256, DW_OP_minus] [$rbp+0]
	.loc	1 198 1                 # backgroundfield/quadr.cpp:198:1
	movl	$_ZSt4cerr, %edi
	movl	$.S08003, %esi
	movl	$20, %edx
	callq	_ZSt16__ostream_insertIcSt11char_traitsIcEERSt13basic_ostreamIT_T0_ES6_PKS3_l
	movl	$111, %edi
	callq	exit
.Ltmp222:
.Lfunc_end2:
	.size	_Z7RombergRK11T2DFunctionddddd, .Lfunc_end2-_Z7RombergRK11T2DFunctionddddd
	.cfi_endproc
                                        # -- End function
	.section	.rodata.cst8,"aM",@progbits,8
	.p2align	3               # -- Begin function _Z7RombergRK11T3DFunctionddddddd
.LCPI3_0:
	.quad	4602678819172646912     # double 0.5
.LCPI3_3:
	.quad	4158027847206421152     # double 1.0000000000000001E-30
.LCPI3_4:
	.quad	4598175219545276416     # double 0.25
	.section	.rodata.cst16,"aM",@progbits,16
	.p2align	4
.LCPI3_1:
	.quad	-9223372036854775808    # double -0
	.quad	-9223372036854775808    # double -0
.LCPI3_2:
	.quad	9223372036854775807     # double NaN
	.quad	9223372036854775807     # double NaN
	.text
	.globl	_Z7RombergRK11T3DFunctionddddddd
	.p2align	4, 0x90
	.type	_Z7RombergRK11T3DFunctionddddddd,@function
_Z7RombergRK11T3DFunctionddddddd:       # @_Z7RombergRK11T3DFunctionddddddd
.Lfunc_begin3:
	.loc	1 248 0                 # backgroundfield/quadr.cpp:248:0
	.cfi_startproc
# %bb.0:                                # %L.entry
	#DEBUG_VALUE: Romberg:func <- $rdi
	#DEBUG_VALUE: Romberg:a <- $xmm0
	#DEBUG_VALUE: Romberg:b <- $xmm1
	#DEBUG_VALUE: Romberg:c <- $xmm2
	#DEBUG_VALUE: Romberg:d <- $xmm3
	#DEBUG_VALUE: Romberg:e <- $xmm4
	#DEBUG_VALUE: Romberg:f <- $xmm5
	#DEBUG_VALUE: Romberg:absacc <- $xmm6
	pushq	%rbp
	.cfi_def_cfa_offset 16
	.cfi_offset %rbp, -16
	movq	%rsp, %rbp
	.cfi_def_cfa_register %rbp
	pushq	%r15
	pushq	%r14
	pushq	%r13
	pushq	%r12
	pushq	%rbx
	subq	$1032, %rsp             # imm = 0x408
	.cfi_offset %rbx, -56
	.cfi_offset %r12, -48
	.cfi_offset %r13, -40
	.cfi_offset %r14, -32
	.cfi_offset %r15, -24
	vmovsd	%xmm5, -272(%rbp)       # 8-byte Spill
	vmovsd	%xmm4, -136(%rbp)       # 8-byte Spill
.Ltmp223:
	#DEBUG_VALUE: absacc <- $xmm6
	#DEBUG_VALUE: f <- [DW_OP_constu 272, DW_OP_minus] [$rbp+0]
	#DEBUG_VALUE: e <- [DW_OP_constu 136, DW_OP_minus] [$rbp+0]
	#DEBUG_VALUE: d <- $xmm3
	#DEBUG_VALUE: c <- $xmm2
	#DEBUG_VALUE: b <- $xmm1
	#DEBUG_VALUE: a <- $xmm0
	#DEBUG_VALUE: func <- $rdi
	#DEBUG_VALUE: Romberg:absacc <- $xmm6
	#DEBUG_VALUE: Romberg:f <- [DW_OP_constu 272, DW_OP_minus] [$rbp+0]
	#DEBUG_VALUE: Romberg:e <- [DW_OP_constu 136, DW_OP_minus] [$rbp+0]
	#DEBUG_VALUE: Romberg:d <- $xmm3
	#DEBUG_VALUE: Romberg:c <- $xmm2
	#DEBUG_VALUE: Romberg:b <- $xmm1
	#DEBUG_VALUE: Romberg:a <- $xmm0
	#DEBUG_VALUE: Romberg:func <- $rdi
	.loc	1 249 1 prologue_end    # backgroundfield/quadr.cpp:249:1
	vsubsd	%xmm4, %xmm5, %xmm5
	vmovsd	%xmm6, -248(%rbp)       # 8-byte Spill
.Ltmp224:
	#DEBUG_VALUE: absacc <- [DW_OP_constu 248, DW_OP_minus] [$rbp+0]
	#DEBUG_VALUE: Romberg:absacc <- [DW_OP_constu 248, DW_OP_minus] [$rbp+0]
	vdivsd	%xmm5, %xmm6, %xmm4
	.loc	1 243 1                 # backgroundfield/quadr.cpp:243:1
	movq	$_ZTV10Tintxy_f3D+16, -216(%rbp)
	movq	%rdi, -208(%rbp)
	vmovsd	%xmm0, -200(%rbp)
	vmovsd	%xmm1, -192(%rbp)
	vmovsd	%xmm2, -184(%rbp)
	vmovsd	%xmm3, -176(%rbp)
	vmovsd	%xmm4, -168(%rbp)
	movabsq	$4607182418800017408, %rax # imm = 0x3FF0000000000000
	.loc	1 184 1                 # backgroundfield/quadr.cpp:184:1
	movq	%rax, -752(%rbp)
	.loc	1 190 1                 # backgroundfield/quadr.cpp:190:1
	leaq	-672(%rbp), %r15
	leaq	-744(%rbp), %rax
	vmovsd	%xmm5, -128(%rbp)       # 8-byte Spill
	.loc	1 0 0 is_stmt 0         # backgroundfield/quadr.cpp:0:0
	vmulsd	.LCPI3_0(%rip), %xmm5, %xmm0
.Ltmp225:
	vmovsd	%xmm0, -264(%rbp)       # 8-byte Spill
	xorl	%r13d, %r13d
	movl	$1, %r14d
	leaq	-216(%rbp), %rdi
.Ltmp226:
                                        # implicit-def: $xmm2
	.loc	1 188 1 is_stmt 1       # backgroundfield/quadr.cpp:188:1
	vxorpd	%xmm9, %xmm9, %xmm9
	.loc	1 0 0 is_stmt 0         # backgroundfield/quadr.cpp:0:0
	xorl	%edx, %edx
	jmp	.LBB3_1
.Ltmp227:
	.p2align	4, 0x90
.LBB3_2:                                # %L.B0318
                                        #   in Loop: Header=BB3_1 Depth=1
	#DEBUG_VALUE: Romberg:absacc <- [DW_OP_constu 248, DW_OP_minus] [$rbp+0]
	#DEBUG_VALUE: absacc <- [DW_OP_constu 248, DW_OP_minus] [$rbp+0]
	#DEBUG_VALUE: Romberg:e <- [DW_OP_constu 136, DW_OP_minus] [$rbp+0]
	#DEBUG_VALUE: Romberg:f <- [DW_OP_constu 272, DW_OP_minus] [$rbp+0]
	#DEBUG_VALUE: e <- [DW_OP_constu 136, DW_OP_minus] [$rbp+0]
	#DEBUG_VALUE: f <- [DW_OP_constu 272, DW_OP_minus] [$rbp+0]
	.loc	1 191 1 is_stmt 1       # backgroundfield/quadr.cpp:191:1
	movq	-216(%rbp), %rax
	vmovsd	-272(%rbp), %xmm0       # 8-byte Reload
                                        # xmm0 = mem[0],zero
	movq	%rcx, %r13
	callq	*(%rax)
	vmovsd	%xmm0, -48(%rbp)        # 8-byte Spill
	movq	-216(%rbp), %rax
	leaq	-216(%rbp), %rdi
	vmovsd	-136(%rbp), %xmm0       # 8-byte Reload
                                        # xmm0 = mem[0],zero
	callq	*(%rax)
	vmovapd	-160(%rbp), %xmm2       # 16-byte Reload
	vmovapd	-112(%rbp), %xmm9       # 16-byte Reload
	leaq	-216(%rbp), %rdi
	vaddsd	-48(%rbp), %xmm0, %xmm0 # 8-byte Folded Reload
	vmulsd	-264(%rbp), %xmm0, %xmm0 # 8-byte Folded Reload
	vmovsd	%xmm0, -688(%rbp,%r14,8)
	leaq	-8(%r15), %r8
	vmovsd	-8(%r15), %xmm8         # xmm8 = mem[0],zero
	movl	$1, %edx
.Ltmp228:
.LBB3_3:                                # %L..inline.12205
                                        #   in Loop: Header=BB3_1 Depth=1
	#DEBUG_VALUE: Romberg:absacc <- [DW_OP_constu 248, DW_OP_minus] [$rbp+0]
	#DEBUG_VALUE: absacc <- [DW_OP_constu 248, DW_OP_minus] [$rbp+0]
	#DEBUG_VALUE: Romberg:e <- [DW_OP_constu 136, DW_OP_minus] [$rbp+0]
	#DEBUG_VALUE: Romberg:f <- [DW_OP_constu 272, DW_OP_minus] [$rbp+0]
	#DEBUG_VALUE: e <- [DW_OP_constu 136, DW_OP_minus] [$rbp+0]
	#DEBUG_VALUE: f <- [DW_OP_constu 272, DW_OP_minus] [$rbp+0]
	.loc	1 210 1                 # backgroundfield/quadr.cpp:210:1
	movq	(%r8), %rax
	movq	%rax, (%r15)
	vmovsd	.LCPI3_4(%rip), %xmm0   # xmm0 = mem[0],zero
	movq	-288(%rbp), %rax        # 8-byte Reload
	vmulsd	-8(%rax), %xmm0, %xmm0
	vmovsd	%xmm0, (%rax)
	.loc	1 212 1                 # backgroundfield/quadr.cpp:212:1
	incq	%r14
	.loc	1 190 1                 # backgroundfield/quadr.cpp:190:1
	addq	$8, %r15
	addq	$8, %rax
	.loc	1 212 1                 # backgroundfield/quadr.cpp:212:1
	cmpq	$8, %r13
	je	.LBB3_38
.Ltmp229:
.LBB3_1:                                # %L..inline.12178
                                        # =>This Loop Header: Depth=1
                                        #     Child Loop BB3_7 Depth 2
                                        #     Child Loop BB3_17 Depth 2
                                        #     Child Loop BB3_32 Depth 2
	#DEBUG_VALUE: Romberg:absacc <- [DW_OP_constu 248, DW_OP_minus] [$rbp+0]
	#DEBUG_VALUE: absacc <- [DW_OP_constu 248, DW_OP_minus] [$rbp+0]
	#DEBUG_VALUE: Romberg:e <- [DW_OP_constu 136, DW_OP_minus] [$rbp+0]
	#DEBUG_VALUE: Romberg:f <- [DW_OP_constu 272, DW_OP_minus] [$rbp+0]
	#DEBUG_VALUE: e <- [DW_OP_constu 136, DW_OP_minus] [$rbp+0]
	#DEBUG_VALUE: f <- [DW_OP_constu 272, DW_OP_minus] [$rbp+0]
	.loc	1 0 1 is_stmt 0         # backgroundfield/quadr.cpp:0:1
	movq	%rax, -288(%rbp)        # 8-byte Spill
	.loc	1 191 1 is_stmt 1       # backgroundfield/quadr.cpp:191:1
	cmpq	$5, %r14
	movl	$5, %r12d
	cmovbq	%r14, %r12
	leaq	1(%r13), %rcx
	cmpl	$5, %ecx
	movl	%ecx, %ebx
	movl	$5, %eax
	cmovgeq	%rax, %rbx
	cmpq	$1, %r14
	vmovapd	%xmm9, -112(%rbp)       # 16-byte Spill
	vmovapd	%xmm2, -160(%rbp)       # 16-byte Spill
	je	.LBB3_2
.Ltmp230:
# %bb.4:                                # %L..inline.12192
                                        #   in Loop: Header=BB3_1 Depth=1
	#DEBUG_VALUE: Romberg:absacc <- [DW_OP_constu 248, DW_OP_minus] [$rbp+0]
	#DEBUG_VALUE: absacc <- [DW_OP_constu 248, DW_OP_minus] [$rbp+0]
	#DEBUG_VALUE: Romberg:e <- [DW_OP_constu 136, DW_OP_minus] [$rbp+0]
	#DEBUG_VALUE: Romberg:f <- [DW_OP_constu 272, DW_OP_minus] [$rbp+0]
	#DEBUG_VALUE: e <- [DW_OP_constu 136, DW_OP_minus] [$rbp+0]
	#DEBUG_VALUE: f <- [DW_OP_constu 272, DW_OP_minus] [$rbp+0]
	.loc	1 0 1 is_stmt 0         # backgroundfield/quadr.cpp:0:1
	movq	%r14, -280(%rbp)        # 8-byte Spill
	movq	%rcx, -64(%rbp)         # 8-byte Spill
	movq	%r15, -144(%rbp)        # 8-byte Spill
	.loc	1 191 1                 # backgroundfield/quadr.cpp:191:1
	vcvtsi2sd	%edx, %xmm10, %xmm1
	testl	%edx, %edx
	vmovsd	%xmm1, -56(%rbp)        # 8-byte Spill
	jle	.LBB3_5
.Ltmp231:
# %bb.6:                                # %L.B0321
                                        #   in Loop: Header=BB3_1 Depth=1
	#DEBUG_VALUE: Romberg:absacc <- [DW_OP_constu 248, DW_OP_minus] [$rbp+0]
	#DEBUG_VALUE: absacc <- [DW_OP_constu 248, DW_OP_minus] [$rbp+0]
	#DEBUG_VALUE: Romberg:e <- [DW_OP_constu 136, DW_OP_minus] [$rbp+0]
	#DEBUG_VALUE: Romberg:f <- [DW_OP_constu 272, DW_OP_minus] [$rbp+0]
	#DEBUG_VALUE: e <- [DW_OP_constu 136, DW_OP_minus] [$rbp+0]
	#DEBUG_VALUE: f <- [DW_OP_constu 272, DW_OP_minus] [$rbp+0]
	.loc	1 0 1                   # backgroundfield/quadr.cpp:0:1
	vmovsd	-128(%rbp), %xmm0       # 8-byte Reload
                                        # xmm0 = mem[0],zero
	.loc	1 191 1                 # backgroundfield/quadr.cpp:191:1
	vdivsd	%xmm1, %xmm0, %xmm1
	vmovsd	-136(%rbp), %xmm0       # 8-byte Reload
                                        # xmm0 = mem[0],zero
	vmovsd	%xmm1, -72(%rbp)        # 8-byte Spill
	vfmadd231sd	.LCPI3_0(%rip), %xmm1, %xmm0 # xmm0 = (xmm1 * mem) + xmm0
	vxorpd	%xmm1, %xmm1, %xmm1
	movl	%edx, %r14d
	movl	%edx, %r15d
.Ltmp232:
	.p2align	4, 0x90
.LBB3_7:                                # %L..inline.12202
                                        #   Parent Loop BB3_1 Depth=1
                                        # =>  This Inner Loop Header: Depth=2
	#DEBUG_VALUE: Romberg:absacc <- [DW_OP_constu 248, DW_OP_minus] [$rbp+0]
	#DEBUG_VALUE: absacc <- [DW_OP_constu 248, DW_OP_minus] [$rbp+0]
	#DEBUG_VALUE: Romberg:e <- [DW_OP_constu 136, DW_OP_minus] [$rbp+0]
	#DEBUG_VALUE: Romberg:f <- [DW_OP_constu 272, DW_OP_minus] [$rbp+0]
	#DEBUG_VALUE: e <- [DW_OP_constu 136, DW_OP_minus] [$rbp+0]
	#DEBUG_VALUE: f <- [DW_OP_constu 272, DW_OP_minus] [$rbp+0]
	.loc	1 0 1                   # backgroundfield/quadr.cpp:0:1
	vmovsd	%xmm0, -80(%rbp)        # 8-byte Spill
	vmovsd	%xmm1, -48(%rbp)        # 8-byte Spill
	.loc	1 191 1                 # backgroundfield/quadr.cpp:191:1
	movq	-216(%rbp), %rax
	callq	*(%rax)
	leaq	-216(%rbp), %rdi
	vmovsd	-48(%rbp), %xmm1        # 8-byte Reload
                                        # xmm1 = mem[0],zero
	vaddsd	%xmm0, %xmm1, %xmm1
	vmovsd	%xmm1, -48(%rbp)        # 8-byte Spill
	vmovsd	-80(%rbp), %xmm0        # 8-byte Reload
                                        # xmm0 = mem[0],zero
	vmovsd	-48(%rbp), %xmm1        # 8-byte Reload
                                        # xmm1 = mem[0],zero
	vaddsd	-72(%rbp), %xmm0, %xmm0 # 8-byte Folded Reload
	decl	%r15d
	jg	.LBB3_7
	jmp	.LBB3_8
.Ltmp233:
.LBB3_5:                                #   in Loop: Header=BB3_1 Depth=1
	#DEBUG_VALUE: Romberg:absacc <- [DW_OP_constu 248, DW_OP_minus] [$rbp+0]
	#DEBUG_VALUE: absacc <- [DW_OP_constu 248, DW_OP_minus] [$rbp+0]
	#DEBUG_VALUE: Romberg:e <- [DW_OP_constu 136, DW_OP_minus] [$rbp+0]
	#DEBUG_VALUE: Romberg:f <- [DW_OP_constu 272, DW_OP_minus] [$rbp+0]
	#DEBUG_VALUE: e <- [DW_OP_constu 136, DW_OP_minus] [$rbp+0]
	#DEBUG_VALUE: f <- [DW_OP_constu 272, DW_OP_minus] [$rbp+0]
	.loc	1 0 1                   # backgroundfield/quadr.cpp:0:1
	movl	%edx, %r14d
	vxorpd	%xmm1, %xmm1, %xmm1
.Ltmp234:
.LBB3_8:                                # %L..inline.12194
                                        #   in Loop: Header=BB3_1 Depth=1
	#DEBUG_VALUE: Romberg:absacc <- [DW_OP_constu 248, DW_OP_minus] [$rbp+0]
	#DEBUG_VALUE: absacc <- [DW_OP_constu 248, DW_OP_minus] [$rbp+0]
	#DEBUG_VALUE: Romberg:e <- [DW_OP_constu 136, DW_OP_minus] [$rbp+0]
	#DEBUG_VALUE: Romberg:f <- [DW_OP_constu 272, DW_OP_minus] [$rbp+0]
	#DEBUG_VALUE: e <- [DW_OP_constu 136, DW_OP_minus] [$rbp+0]
	#DEBUG_VALUE: f <- [DW_OP_constu 272, DW_OP_minus] [$rbp+0]
	.loc	1 191 1                 # backgroundfield/quadr.cpp:191:1
	vmulsd	-128(%rbp), %xmm1, %xmm0 # 8-byte Folded Reload
	vdivsd	-56(%rbp), %xmm0, %xmm0 # 8-byte Folded Reload
	movq	-280(%rbp), %rax        # 8-byte Reload
	vaddsd	-688(%rbp,%rax,8), %xmm0, %xmm0
	vmulsd	.LCPI3_0(%rip), %xmm0, %xmm0
	vmovsd	%xmm0, -688(%rbp,%rax,8)
	movl	%r14d, %edx
	movq	%rax, %r14
	addl	%edx, %edx
	movq	-144(%rbp), %r15        # 8-byte Reload
	leaq	-8(%r15), %r8
	vmovsd	-8(%r15), %xmm8         # xmm8 = mem[0],zero
	.loc	1 192 1 is_stmt 1       # backgroundfield/quadr.cpp:192:1
	cmpq	$2, %rax
	jae	.LBB3_10
.Ltmp235:
# %bb.9:                                #   in Loop: Header=BB3_1 Depth=1
	#DEBUG_VALUE: Romberg:absacc <- [DW_OP_constu 248, DW_OP_minus] [$rbp+0]
	#DEBUG_VALUE: absacc <- [DW_OP_constu 248, DW_OP_minus] [$rbp+0]
	#DEBUG_VALUE: Romberg:e <- [DW_OP_constu 136, DW_OP_minus] [$rbp+0]
	#DEBUG_VALUE: Romberg:f <- [DW_OP_constu 272, DW_OP_minus] [$rbp+0]
	#DEBUG_VALUE: e <- [DW_OP_constu 136, DW_OP_minus] [$rbp+0]
	#DEBUG_VALUE: f <- [DW_OP_constu 272, DW_OP_minus] [$rbp+0]
	.loc	1 0 1 is_stmt 0         # backgroundfield/quadr.cpp:0:1
	movq	-64(%rbp), %r13         # 8-byte Reload
	vmovapd	-112(%rbp), %xmm9       # 16-byte Reload
	vmovapd	-160(%rbp), %xmm2       # 16-byte Reload
	jmp	.LBB3_3
.Ltmp236:
	.p2align	4, 0x90
.LBB3_10:                               # %L.B0323
                                        #   in Loop: Header=BB3_1 Depth=1
	#DEBUG_VALUE: Romberg:absacc <- [DW_OP_constu 248, DW_OP_minus] [$rbp+0]
	#DEBUG_VALUE: absacc <- [DW_OP_constu 248, DW_OP_minus] [$rbp+0]
	#DEBUG_VALUE: Romberg:e <- [DW_OP_constu 136, DW_OP_minus] [$rbp+0]
	#DEBUG_VALUE: Romberg:f <- [DW_OP_constu 272, DW_OP_minus] [$rbp+0]
	#DEBUG_VALUE: e <- [DW_OP_constu 136, DW_OP_minus] [$rbp+0]
	#DEBUG_VALUE: f <- [DW_OP_constu 272, DW_OP_minus] [$rbp+0]
	.loc	1 194 1 is_stmt 1       # backgroundfield/quadr.cpp:194:1
	cmpq	$5, %r14
	movl	$5, %esi
	cmovbq	%r14, %rsi
	.loc	1 197 1                 # backgroundfield/quadr.cpp:197:1
	movl	%r14d, %eax
	subl	%esi, %eax
	cltq
	leaq	-680(,%rax,8), %rcx
	addq	%rbp, %rcx
	.loc	1 198 1                 # backgroundfield/quadr.cpp:198:1
	testl	%esi, %esi
	je	.LBB3_11
.Ltmp237:
# %bb.12:                               # %L.B0324
                                        #   in Loop: Header=BB3_1 Depth=1
	#DEBUG_VALUE: Romberg:absacc <- [DW_OP_constu 248, DW_OP_minus] [$rbp+0]
	#DEBUG_VALUE: absacc <- [DW_OP_constu 248, DW_OP_minus] [$rbp+0]
	#DEBUG_VALUE: Romberg:e <- [DW_OP_constu 136, DW_OP_minus] [$rbp+0]
	#DEBUG_VALUE: Romberg:f <- [DW_OP_constu 272, DW_OP_minus] [$rbp+0]
	#DEBUG_VALUE: e <- [DW_OP_constu 136, DW_OP_minus] [$rbp+0]
	#DEBUG_VALUE: f <- [DW_OP_constu 272, DW_OP_minus] [$rbp+0]
	.loc	1 0 1 is_stmt 0         # backgroundfield/quadr.cpp:0:1
	movq	%r8, -120(%rbp)         # 8-byte Spill
	vmovsd	%xmm8, -88(%rbp)        # 8-byte Spill
	movl	%edx, -56(%rbp)         # 4-byte Spill
	movl	%r14d, %edx
	subl	%r12d, %edx
	movl	%edx, -48(%rbp)         # 4-byte Spill
	leaq	-672(,%r13,8), %r13
	addq	%rbp, %r13
	shlq	$3, %rbx
	subq	%rbx, %r13
	leaq	-752(,%rax,8), %rax
	addq	%rbp, %rax
	movq	%rax, -256(%rbp)        # 8-byte Spill
	.loc	1 198 1                 # backgroundfield/quadr.cpp:198:1
	vmovsd	(%rax), %xmm0           # xmm0 = mem[0],zero
	vmovapd	%xmm0, -240(%rbp)       # 16-byte Spill
	leaq	-1072(%rbp), %rdi
	movq	%rsi, -72(%rbp)         # 8-byte Spill
	movq	%r13, %rsi
	movq	%rbx, %rdx
	movq	%rcx, -80(%rbp)         # 8-byte Spill
	callq	memcpy
	leaq	-912(%rbp), %rdi
	movq	%r13, %rsi
	movq	%rbx, %rdx
	callq	memcpy
	movq	-72(%rbp), %rsi         # 8-byte Reload
	movq	-80(%rbp), %rcx         # 8-byte Reload
	movq	-256(%rbp), %r10        # 8-byte Reload
	xorl	%edx, %edx
	cmpq	$2, %rsi
	vmovapd	.LCPI3_2(%rip), %xmm6   # xmm6 = [NaN,NaN]
	jb	.LBB3_14
.Ltmp238:
# %bb.13:                               # %L.B0312.L.B0312_crit_edge.lr.ph
                                        #   in Loop: Header=BB3_1 Depth=1
	#DEBUG_VALUE: Romberg:absacc <- [DW_OP_constu 248, DW_OP_minus] [$rbp+0]
	#DEBUG_VALUE: absacc <- [DW_OP_constu 248, DW_OP_minus] [$rbp+0]
	#DEBUG_VALUE: Romberg:e <- [DW_OP_constu 136, DW_OP_minus] [$rbp+0]
	#DEBUG_VALUE: Romberg:f <- [DW_OP_constu 272, DW_OP_minus] [$rbp+0]
	#DEBUG_VALUE: e <- [DW_OP_constu 136, DW_OP_minus] [$rbp+0]
	#DEBUG_VALUE: f <- [DW_OP_constu 272, DW_OP_minus] [$rbp+0]
	.loc	1 0 1                   # backgroundfield/quadr.cpp:0:1
	vmovapd	-240(%rbp), %xmm0       # 16-byte Reload
	.loc	1 198 1                 # backgroundfield/quadr.cpp:198:1
	vxorpd	.LCPI3_1(%rip), %xmm0, %xmm0
	vmovddup	%xmm0, %xmm0    # xmm0 = xmm0[0,0]
	vandpd	%xmm6, %xmm0, %xmm0
	vpermilpd	$1, %xmm0, %xmm1 # xmm1 = xmm0[1,0]
	vminsd	%xmm1, %xmm0, %xmm0
	vmovsd	8(%r10), %xmm1          # xmm1 = mem[0],zero
	vandpd	%xmm6, %xmm1, %xmm1
	xorl	%edx, %edx
	vucomisd	%xmm1, %xmm0
	seta	%dl
	cmpq	$2, %rsi
	jbe	.LBB3_14
.Ltmp239:
# %bb.39:                               # %L.B0312.L.B0312_crit_edge.1
                                        #   in Loop: Header=BB3_1 Depth=1
	#DEBUG_VALUE: Romberg:absacc <- [DW_OP_constu 248, DW_OP_minus] [$rbp+0]
	#DEBUG_VALUE: absacc <- [DW_OP_constu 248, DW_OP_minus] [$rbp+0]
	#DEBUG_VALUE: Romberg:e <- [DW_OP_constu 136, DW_OP_minus] [$rbp+0]
	#DEBUG_VALUE: Romberg:f <- [DW_OP_constu 272, DW_OP_minus] [$rbp+0]
	#DEBUG_VALUE: e <- [DW_OP_constu 136, DW_OP_minus] [$rbp+0]
	#DEBUG_VALUE: f <- [DW_OP_constu 272, DW_OP_minus] [$rbp+0]
	vminsd	%xmm0, %xmm1, %xmm0
	vmovsd	16(%r10), %xmm1         # xmm1 = mem[0],zero
	vandpd	%xmm6, %xmm1, %xmm1
	vucomisd	%xmm1, %xmm0
	movl	$2, %eax
	cmoval	%eax, %edx
	cmpq	$3, %rsi
	je	.LBB3_14
.Ltmp240:
# %bb.40:                               # %L.B0312.L.B0312_crit_edge.2
                                        #   in Loop: Header=BB3_1 Depth=1
	#DEBUG_VALUE: Romberg:absacc <- [DW_OP_constu 248, DW_OP_minus] [$rbp+0]
	#DEBUG_VALUE: absacc <- [DW_OP_constu 248, DW_OP_minus] [$rbp+0]
	#DEBUG_VALUE: Romberg:e <- [DW_OP_constu 136, DW_OP_minus] [$rbp+0]
	#DEBUG_VALUE: Romberg:f <- [DW_OP_constu 272, DW_OP_minus] [$rbp+0]
	#DEBUG_VALUE: e <- [DW_OP_constu 136, DW_OP_minus] [$rbp+0]
	#DEBUG_VALUE: f <- [DW_OP_constu 272, DW_OP_minus] [$rbp+0]
	vminsd	%xmm0, %xmm1, %xmm0
	vmovsd	24(%r10), %xmm1         # xmm1 = mem[0],zero
	vandpd	%xmm6, %xmm1, %xmm1
	vucomisd	%xmm1, %xmm0
	movl	$3, %eax
	cmoval	%eax, %edx
	cmpq	$5, %rsi
	jb	.LBB3_14
.Ltmp241:
# %bb.41:                               # %L.B0312.L.B0312_crit_edge.3
                                        #   in Loop: Header=BB3_1 Depth=1
	#DEBUG_VALUE: Romberg:absacc <- [DW_OP_constu 248, DW_OP_minus] [$rbp+0]
	#DEBUG_VALUE: absacc <- [DW_OP_constu 248, DW_OP_minus] [$rbp+0]
	#DEBUG_VALUE: Romberg:e <- [DW_OP_constu 136, DW_OP_minus] [$rbp+0]
	#DEBUG_VALUE: Romberg:f <- [DW_OP_constu 272, DW_OP_minus] [$rbp+0]
	#DEBUG_VALUE: e <- [DW_OP_constu 136, DW_OP_minus] [$rbp+0]
	#DEBUG_VALUE: f <- [DW_OP_constu 272, DW_OP_minus] [$rbp+0]
	vminsd	%xmm0, %xmm1, %xmm0
	vmovsd	32(%r10), %xmm1         # xmm1 = mem[0],zero
	vandpd	%xmm6, %xmm1, %xmm1
	vucomisd	%xmm1, %xmm0
	movl	$4, %eax
	cmoval	%eax, %edx
.Ltmp242:
.LBB3_14:                               # %L.B0313
                                        #   in Loop: Header=BB3_1 Depth=1
	#DEBUG_VALUE: Romberg:absacc <- [DW_OP_constu 248, DW_OP_minus] [$rbp+0]
	#DEBUG_VALUE: absacc <- [DW_OP_constu 248, DW_OP_minus] [$rbp+0]
	#DEBUG_VALUE: Romberg:e <- [DW_OP_constu 136, DW_OP_minus] [$rbp+0]
	#DEBUG_VALUE: Romberg:f <- [DW_OP_constu 272, DW_OP_minus] [$rbp+0]
	#DEBUG_VALUE: e <- [DW_OP_constu 136, DW_OP_minus] [$rbp+0]
	#DEBUG_VALUE: f <- [DW_OP_constu 272, DW_OP_minus] [$rbp+0]
	.loc	1 0 0                   # backgroundfield/quadr.cpp:0:0
	movslq	-48(%rbp), %rdi         # 4-byte Folded Reload
	.loc	1 197 1 is_stmt 1       # backgroundfield/quadr.cpp:197:1
	movl	%edx, %eax
	vmovsd	(%rcx,%rax,8), %xmm0    # xmm0 = mem[0],zero
	.loc	1 198 1                 # backgroundfield/quadr.cpp:198:1
	cmpl	$2, %esi
	setb	%al
	vxorpd	%xmm8, %xmm8, %xmm8
	jae	.LBB3_16
.Ltmp243:
# %bb.15:                               #   in Loop: Header=BB3_1 Depth=1
	#DEBUG_VALUE: Romberg:absacc <- [DW_OP_constu 248, DW_OP_minus] [$rbp+0]
	#DEBUG_VALUE: absacc <- [DW_OP_constu 248, DW_OP_minus] [$rbp+0]
	#DEBUG_VALUE: Romberg:e <- [DW_OP_constu 136, DW_OP_minus] [$rbp+0]
	#DEBUG_VALUE: Romberg:f <- [DW_OP_constu 272, DW_OP_minus] [$rbp+0]
	#DEBUG_VALUE: e <- [DW_OP_constu 136, DW_OP_minus] [$rbp+0]
	#DEBUG_VALUE: f <- [DW_OP_constu 272, DW_OP_minus] [$rbp+0]
	.loc	1 0 1 is_stmt 0         # backgroundfield/quadr.cpp:0:1
	movb	$1, %r9b
	vmovapd	-112(%rbp), %xmm9       # 16-byte Reload
	movq	-120(%rbp), %r8         # 8-byte Reload
	jmp	.LBB3_21
.Ltmp244:
.LBB3_11:                               # %L.B0315.thread
                                        #   in Loop: Header=BB3_1 Depth=1
	#DEBUG_VALUE: Romberg:absacc <- [DW_OP_constu 248, DW_OP_minus] [$rbp+0]
	#DEBUG_VALUE: absacc <- [DW_OP_constu 248, DW_OP_minus] [$rbp+0]
	#DEBUG_VALUE: Romberg:e <- [DW_OP_constu 136, DW_OP_minus] [$rbp+0]
	#DEBUG_VALUE: Romberg:f <- [DW_OP_constu 272, DW_OP_minus] [$rbp+0]
	#DEBUG_VALUE: e <- [DW_OP_constu 136, DW_OP_minus] [$rbp+0]
	#DEBUG_VALUE: f <- [DW_OP_constu 272, DW_OP_minus] [$rbp+0]
	.loc	1 197 1 is_stmt 1       # backgroundfield/quadr.cpp:197:1
	vmovsd	(%rcx), %xmm0           # xmm0 = mem[0],zero
	.loc	1 198 1                 # backgroundfield/quadr.cpp:198:1
	vmovapd	%xmm0, %xmm1
	movq	-64(%rbp), %r13         # 8-byte Reload
	vmovapd	-112(%rbp), %xmm9       # 16-byte Reload
	vmovapd	-160(%rbp), %xmm6       # 16-byte Reload
	jmp	.LBB3_36
.Ltmp245:
.LBB3_16:                               # %L.B0326
                                        #   in Loop: Header=BB3_1 Depth=1
	#DEBUG_VALUE: Romberg:absacc <- [DW_OP_constu 248, DW_OP_minus] [$rbp+0]
	#DEBUG_VALUE: absacc <- [DW_OP_constu 248, DW_OP_minus] [$rbp+0]
	#DEBUG_VALUE: Romberg:e <- [DW_OP_constu 136, DW_OP_minus] [$rbp+0]
	#DEBUG_VALUE: Romberg:f <- [DW_OP_constu 272, DW_OP_minus] [$rbp+0]
	#DEBUG_VALUE: e <- [DW_OP_constu 136, DW_OP_minus] [$rbp+0]
	#DEBUG_VALUE: f <- [DW_OP_constu 272, DW_OP_minus] [$rbp+0]
	.loc	1 0 1 is_stmt 0         # backgroundfield/quadr.cpp:0:1
	movb	%al, -240(%rbp)         # 1-byte Spill
	leaq	-744(%rbp), %rax
	movq	%rdi, -112(%rbp)        # 8-byte Spill
	leaq	(%rax,%rdi,8), %rax
	movq	%rax, -48(%rbp)         # 8-byte Spill
	leaq	-1(%rsi), %r11
	.loc	1 197 1 is_stmt 1       # backgroundfield/quadr.cpp:197:1
	decl	%edx
	.loc	1 0 0 is_stmt 0         # backgroundfield/quadr.cpp:0:0
	vmovsd	-880(%rbp), %xmm1       # xmm1 = mem[0],zero
	.loc	1 198 1 is_stmt 1       # backgroundfield/quadr.cpp:198:1
	movq	%r12, %r13
	movabsq	$4294967296, %rax       # imm = 0x100000000
	movabsq	$8589934592, %r9        # imm = 0x200000000
	movabsq	$12884901888, %r15      # imm = 0x300000000
	xorl	%edi, %edi
	jmp	.LBB3_17
.Ltmp246:
	.p2align	4, 0x90
.LBB3_19:                               # %L.B0317
                                        #   in Loop: Header=BB3_17 Depth=2
	#DEBUG_VALUE: Romberg:absacc <- [DW_OP_constu 248, DW_OP_minus] [$rbp+0]
	#DEBUG_VALUE: absacc <- [DW_OP_constu 248, DW_OP_minus] [$rbp+0]
	#DEBUG_VALUE: Romberg:e <- [DW_OP_constu 136, DW_OP_minus] [$rbp+0]
	#DEBUG_VALUE: Romberg:f <- [DW_OP_constu 272, DW_OP_minus] [$rbp+0]
	#DEBUG_VALUE: e <- [DW_OP_constu 136, DW_OP_minus] [$rbp+0]
	#DEBUG_VALUE: f <- [DW_OP_constu 272, DW_OP_minus] [$rbp+0]
	leal	(%rdx,%rdx), %ebx
	addl	$2, %ebx
	xorl	%esi, %esi
	cmpl	%r13d, %ebx
	setge	%sil
	movslq	%edx, %rdx
	leaq	-1072(%rbp,%rdx,8), %rbx
	leaq	-904(%rbp), %rcx
	leaq	(%rcx,%rdx,8), %r8
	cmovgeq	%rbx, %r8
	subl	%esi, %edx
	vmovsd	(%r8), %xmm9            # xmm9 = mem[0],zero
	vaddsd	%xmm9, %xmm0, %xmm0
	incq	%rdi
	movabsq	$4294967296, %rsi       # imm = 0x100000000
	addq	%rsi, %r15
	addq	%rsi, %r9
	addq	%rsi, %rax
	cmpq	%r11, %rdi
	jae	.LBB3_20
.Ltmp247:
.LBB3_17:                               # %L.B0314
                                        #   Parent Loop BB3_1 Depth=1
                                        # =>  This Inner Loop Header: Depth=2
	#DEBUG_VALUE: Romberg:absacc <- [DW_OP_constu 248, DW_OP_minus] [$rbp+0]
	#DEBUG_VALUE: absacc <- [DW_OP_constu 248, DW_OP_minus] [$rbp+0]
	#DEBUG_VALUE: Romberg:e <- [DW_OP_constu 136, DW_OP_minus] [$rbp+0]
	#DEBUG_VALUE: Romberg:f <- [DW_OP_constu 272, DW_OP_minus] [$rbp+0]
	#DEBUG_VALUE: e <- [DW_OP_constu 136, DW_OP_minus] [$rbp+0]
	#DEBUG_VALUE: f <- [DW_OP_constu 272, DW_OP_minus] [$rbp+0]
	movq	%r13, %rbx
	decq	%r13
	cmpl	$2, %ebx
	jl	.LBB3_19
.Ltmp248:
# %bb.18:                               # %L.B0316
                                        #   in Loop: Header=BB3_17 Depth=2
	#DEBUG_VALUE: Romberg:absacc <- [DW_OP_constu 248, DW_OP_minus] [$rbp+0]
	#DEBUG_VALUE: absacc <- [DW_OP_constu 248, DW_OP_minus] [$rbp+0]
	#DEBUG_VALUE: Romberg:e <- [DW_OP_constu 136, DW_OP_minus] [$rbp+0]
	#DEBUG_VALUE: Romberg:f <- [DW_OP_constu 272, DW_OP_minus] [$rbp+0]
	#DEBUG_VALUE: e <- [DW_OP_constu 136, DW_OP_minus] [$rbp+0]
	#DEBUG_VALUE: f <- [DW_OP_constu 272, DW_OP_minus] [$rbp+0]
	vmovsd	(%r10), %xmm2           # xmm2 = mem[0],zero
	vmovsd	-904(%rbp), %xmm3       # xmm3 = mem[0],zero
	vsubsd	-1072(%rbp), %xmm3, %xmm3
	movq	-48(%rbp), %rcx         # 8-byte Reload
	vmovsd	(%rcx,%rdi,8), %xmm4    # xmm4 = mem[0],zero
	vsubsd	%xmm4, %xmm2, %xmm5
	vdivsd	%xmm5, %xmm3, %xmm3
	vmulsd	%xmm3, %xmm4, %xmm4
	vmovsd	%xmm4, -1072(%rbp)
	vmulsd	%xmm3, %xmm2, %xmm2
	vmovsd	%xmm2, -912(%rbp)
	cmpq	$1, %r13
	jle	.LBB3_19
.Ltmp249:
# %bb.42:                               # %L.B0316.1
                                        #   in Loop: Header=BB3_17 Depth=2
	#DEBUG_VALUE: Romberg:absacc <- [DW_OP_constu 248, DW_OP_minus] [$rbp+0]
	#DEBUG_VALUE: absacc <- [DW_OP_constu 248, DW_OP_minus] [$rbp+0]
	#DEBUG_VALUE: Romberg:e <- [DW_OP_constu 136, DW_OP_minus] [$rbp+0]
	#DEBUG_VALUE: Romberg:f <- [DW_OP_constu 272, DW_OP_minus] [$rbp+0]
	#DEBUG_VALUE: e <- [DW_OP_constu 136, DW_OP_minus] [$rbp+0]
	#DEBUG_VALUE: f <- [DW_OP_constu 272, DW_OP_minus] [$rbp+0]
	vmovsd	-896(%rbp), %xmm2       # xmm2 = mem[0],zero
	vsubsd	-1064(%rbp), %xmm2, %xmm2
	movq	%r10, %rcx
	vmovsd	8(%r10), %xmm3          # xmm3 = mem[0],zero
	movq	%rax, %rsi
	sarq	$29, %rsi
	vmovsd	8(%r10,%rsi), %xmm4     # xmm4 = mem[0],zero
	vsubsd	%xmm4, %xmm3, %xmm5
	vdivsd	%xmm5, %xmm2, %xmm2
	vmulsd	%xmm2, %xmm4, %xmm4
	vmovsd	%xmm4, -1064(%rbp)
	vmulsd	%xmm2, %xmm3, %xmm2
	vmovsd	%xmm2, -904(%rbp)
	cmpq	$3, %rbx
	je	.LBB3_19
.Ltmp250:
# %bb.43:                               # %L.B0316.2
                                        #   in Loop: Header=BB3_17 Depth=2
	#DEBUG_VALUE: Romberg:absacc <- [DW_OP_constu 248, DW_OP_minus] [$rbp+0]
	#DEBUG_VALUE: absacc <- [DW_OP_constu 248, DW_OP_minus] [$rbp+0]
	#DEBUG_VALUE: Romberg:e <- [DW_OP_constu 136, DW_OP_minus] [$rbp+0]
	#DEBUG_VALUE: Romberg:f <- [DW_OP_constu 272, DW_OP_minus] [$rbp+0]
	#DEBUG_VALUE: e <- [DW_OP_constu 136, DW_OP_minus] [$rbp+0]
	#DEBUG_VALUE: f <- [DW_OP_constu 272, DW_OP_minus] [$rbp+0]
	vmovsd	-888(%rbp), %xmm2       # xmm2 = mem[0],zero
	vsubsd	-1056(%rbp), %xmm2, %xmm2
	movq	%r10, %rcx
	vmovsd	16(%r10), %xmm3         # xmm3 = mem[0],zero
	movq	%r9, %rsi
	sarq	$29, %rsi
	vmovsd	8(%r10,%rsi), %xmm4     # xmm4 = mem[0],zero
	vsubsd	%xmm4, %xmm3, %xmm5
	vdivsd	%xmm5, %xmm2, %xmm2
	vmulsd	%xmm2, %xmm4, %xmm4
	vmovsd	%xmm4, -1056(%rbp)
	vmulsd	%xmm2, %xmm3, %xmm2
	vmovsd	%xmm2, -896(%rbp)
	cmpq	$4, %r13
	jl	.LBB3_19
.Ltmp251:
# %bb.44:                               # %L.B0316.3
                                        #   in Loop: Header=BB3_17 Depth=2
	#DEBUG_VALUE: Romberg:absacc <- [DW_OP_constu 248, DW_OP_minus] [$rbp+0]
	#DEBUG_VALUE: absacc <- [DW_OP_constu 248, DW_OP_minus] [$rbp+0]
	#DEBUG_VALUE: Romberg:e <- [DW_OP_constu 136, DW_OP_minus] [$rbp+0]
	#DEBUG_VALUE: Romberg:f <- [DW_OP_constu 272, DW_OP_minus] [$rbp+0]
	#DEBUG_VALUE: e <- [DW_OP_constu 136, DW_OP_minus] [$rbp+0]
	#DEBUG_VALUE: f <- [DW_OP_constu 272, DW_OP_minus] [$rbp+0]
	.loc	1 0 1 is_stmt 0         # backgroundfield/quadr.cpp:0:1
	movq	%r10, %rcx
	.loc	1 198 1                 # backgroundfield/quadr.cpp:198:1
	vmovsd	24(%r10), %xmm2         # xmm2 = mem[0],zero
	vsubsd	-1048(%rbp), %xmm1, %xmm3
	movq	%r15, %rsi
	sarq	$29, %rsi
	vmovsd	8(%r10,%rsi), %xmm4     # xmm4 = mem[0],zero
	vsubsd	%xmm4, %xmm2, %xmm5
	vdivsd	%xmm5, %xmm3, %xmm3
	vmulsd	%xmm3, %xmm4, %xmm4
	vmovsd	%xmm4, -1048(%rbp)
	vmulsd	%xmm3, %xmm2, %xmm2
	vmovsd	%xmm2, -888(%rbp)
	jmp	.LBB3_19
.Ltmp252:
.LBB3_20:                               #   in Loop: Header=BB3_1 Depth=1
	#DEBUG_VALUE: Romberg:absacc <- [DW_OP_constu 248, DW_OP_minus] [$rbp+0]
	#DEBUG_VALUE: absacc <- [DW_OP_constu 248, DW_OP_minus] [$rbp+0]
	#DEBUG_VALUE: Romberg:e <- [DW_OP_constu 136, DW_OP_minus] [$rbp+0]
	#DEBUG_VALUE: Romberg:f <- [DW_OP_constu 272, DW_OP_minus] [$rbp+0]
	#DEBUG_VALUE: e <- [DW_OP_constu 136, DW_OP_minus] [$rbp+0]
	#DEBUG_VALUE: f <- [DW_OP_constu 272, DW_OP_minus] [$rbp+0]
	.loc	1 0 1                   # backgroundfield/quadr.cpp:0:1
	movq	-144(%rbp), %r15        # 8-byte Reload
	movq	-120(%rbp), %r8         # 8-byte Reload
	movq	-80(%rbp), %rcx         # 8-byte Reload
	movq	-72(%rbp), %rsi         # 8-byte Reload
	movq	-112(%rbp), %rdi        # 8-byte Reload
	movb	-240(%rbp), %r9b        # 1-byte Reload
.Ltmp253:
.LBB3_21:                               # %L.B0315
                                        #   in Loop: Header=BB3_1 Depth=1
	#DEBUG_VALUE: Romberg:absacc <- [DW_OP_constu 248, DW_OP_minus] [$rbp+0]
	#DEBUG_VALUE: absacc <- [DW_OP_constu 248, DW_OP_minus] [$rbp+0]
	#DEBUG_VALUE: Romberg:e <- [DW_OP_constu 136, DW_OP_minus] [$rbp+0]
	#DEBUG_VALUE: Romberg:f <- [DW_OP_constu 272, DW_OP_minus] [$rbp+0]
	#DEBUG_VALUE: e <- [DW_OP_constu 136, DW_OP_minus] [$rbp+0]
	#DEBUG_VALUE: f <- [DW_OP_constu 272, DW_OP_minus] [$rbp+0]
	xorl	%edx, %edx
	.loc	1 198 1                 # backgroundfield/quadr.cpp:198:1
	testl	%esi, %esi
	je	.LBB3_29
.Ltmp254:
# %bb.22:                               # %L.B0329
                                        #   in Loop: Header=BB3_1 Depth=1
	#DEBUG_VALUE: Romberg:absacc <- [DW_OP_constu 248, DW_OP_minus] [$rbp+0]
	#DEBUG_VALUE: absacc <- [DW_OP_constu 248, DW_OP_minus] [$rbp+0]
	#DEBUG_VALUE: Romberg:e <- [DW_OP_constu 136, DW_OP_minus] [$rbp+0]
	#DEBUG_VALUE: Romberg:f <- [DW_OP_constu 272, DW_OP_minus] [$rbp+0]
	#DEBUG_VALUE: e <- [DW_OP_constu 136, DW_OP_minus] [$rbp+0]
	#DEBUG_VALUE: f <- [DW_OP_constu 272, DW_OP_minus] [$rbp+0]
	vmovsd	(%r10), %xmm1           # xmm1 = mem[0],zero
	vucomisd	%xmm8, %xmm1
	jne	.LBB3_25
	jnp	.LBB3_23
.Ltmp255:
.LBB3_25:                               # %L..inline.12266.lr.ph
                                        #   in Loop: Header=BB3_1 Depth=1
	#DEBUG_VALUE: Romberg:absacc <- [DW_OP_constu 248, DW_OP_minus] [$rbp+0]
	#DEBUG_VALUE: absacc <- [DW_OP_constu 248, DW_OP_minus] [$rbp+0]
	#DEBUG_VALUE: Romberg:e <- [DW_OP_constu 136, DW_OP_minus] [$rbp+0]
	#DEBUG_VALUE: Romberg:f <- [DW_OP_constu 272, DW_OP_minus] [$rbp+0]
	#DEBUG_VALUE: e <- [DW_OP_constu 136, DW_OP_minus] [$rbp+0]
	#DEBUG_VALUE: f <- [DW_OP_constu 272, DW_OP_minus] [$rbp+0]
	movq	(%rcx), %rax
	movq	%rax, -608(%rbp)
	vmovq	%rax, %xmm2
	vaddsd	.LCPI3_3(%rip), %xmm2, %xmm2
	vmovsd	%xmm2, -448(%rbp)
	cmpq	$1, %rsi
	jbe	.LBB3_29
.Ltmp256:
# %bb.26:                               # %L..inline.12266.L..inline.12263_crit_edge
                                        #   in Loop: Header=BB3_1 Depth=1
	#DEBUG_VALUE: Romberg:absacc <- [DW_OP_constu 248, DW_OP_minus] [$rbp+0]
	#DEBUG_VALUE: absacc <- [DW_OP_constu 248, DW_OP_minus] [$rbp+0]
	#DEBUG_VALUE: Romberg:e <- [DW_OP_constu 136, DW_OP_minus] [$rbp+0]
	#DEBUG_VALUE: Romberg:f <- [DW_OP_constu 272, DW_OP_minus] [$rbp+0]
	#DEBUG_VALUE: e <- [DW_OP_constu 136, DW_OP_minus] [$rbp+0]
	#DEBUG_VALUE: f <- [DW_OP_constu 272, DW_OP_minus] [$rbp+0]
	vmovsd	8(%r10), %xmm2          # xmm2 = mem[0],zero
	vucomisd	%xmm8, %xmm2
	jne	.LBB3_45
	jnp	.LBB3_27
.Ltmp257:
.LBB3_45:                               # %L..inline.12266.1
                                        #   in Loop: Header=BB3_1 Depth=1
	#DEBUG_VALUE: Romberg:absacc <- [DW_OP_constu 248, DW_OP_minus] [$rbp+0]
	#DEBUG_VALUE: absacc <- [DW_OP_constu 248, DW_OP_minus] [$rbp+0]
	#DEBUG_VALUE: Romberg:e <- [DW_OP_constu 136, DW_OP_minus] [$rbp+0]
	#DEBUG_VALUE: Romberg:f <- [DW_OP_constu 272, DW_OP_minus] [$rbp+0]
	#DEBUG_VALUE: e <- [DW_OP_constu 136, DW_OP_minus] [$rbp+0]
	#DEBUG_VALUE: f <- [DW_OP_constu 272, DW_OP_minus] [$rbp+0]
	vandpd	%xmm6, %xmm1, %xmm1
	vminsd	%xmm1, %xmm1, %xmm1
	vandpd	%xmm6, %xmm2, %xmm2
	xorl	%edx, %edx
	vucomisd	%xmm2, %xmm1
	seta	%dl
	movq	8(%rcx), %rax
	movq	%rax, -600(%rbp)
	vmovq	%rax, %xmm3
	vaddsd	.LCPI3_3(%rip), %xmm3, %xmm3
	vmovsd	%xmm3, -440(%rbp)
	cmpq	$3, %rsi
	jb	.LBB3_29
.Ltmp258:
# %bb.46:                               # %L..inline.12266.L..inline.12263_crit_edge.1
                                        #   in Loop: Header=BB3_1 Depth=1
	#DEBUG_VALUE: Romberg:absacc <- [DW_OP_constu 248, DW_OP_minus] [$rbp+0]
	#DEBUG_VALUE: absacc <- [DW_OP_constu 248, DW_OP_minus] [$rbp+0]
	#DEBUG_VALUE: Romberg:e <- [DW_OP_constu 136, DW_OP_minus] [$rbp+0]
	#DEBUG_VALUE: Romberg:f <- [DW_OP_constu 272, DW_OP_minus] [$rbp+0]
	#DEBUG_VALUE: e <- [DW_OP_constu 136, DW_OP_minus] [$rbp+0]
	#DEBUG_VALUE: f <- [DW_OP_constu 272, DW_OP_minus] [$rbp+0]
	vmovsd	16(%r10), %xmm3         # xmm3 = mem[0],zero
	vucomisd	%xmm8, %xmm3
	jne	.LBB3_48
	jnp	.LBB3_47
.Ltmp259:
.LBB3_48:                               # %L..inline.12266.2
                                        #   in Loop: Header=BB3_1 Depth=1
	#DEBUG_VALUE: Romberg:absacc <- [DW_OP_constu 248, DW_OP_minus] [$rbp+0]
	#DEBUG_VALUE: absacc <- [DW_OP_constu 248, DW_OP_minus] [$rbp+0]
	#DEBUG_VALUE: Romberg:e <- [DW_OP_constu 136, DW_OP_minus] [$rbp+0]
	#DEBUG_VALUE: Romberg:f <- [DW_OP_constu 272, DW_OP_minus] [$rbp+0]
	#DEBUG_VALUE: e <- [DW_OP_constu 136, DW_OP_minus] [$rbp+0]
	#DEBUG_VALUE: f <- [DW_OP_constu 272, DW_OP_minus] [$rbp+0]
	vminsd	%xmm1, %xmm2, %xmm1
	vandpd	%xmm6, %xmm3, %xmm2
	vucomisd	%xmm2, %xmm1
	movl	$2, %eax
	cmoval	%eax, %edx
	movq	16(%rcx), %rax
	movq	%rax, -592(%rbp)
	vmovq	%rax, %xmm3
	vaddsd	.LCPI3_3(%rip), %xmm3, %xmm3
	vmovsd	%xmm3, -432(%rbp)
	cmpq	$4, %rsi
	jb	.LBB3_29
.Ltmp260:
# %bb.49:                               # %L..inline.12266.L..inline.12263_crit_edge.2
                                        #   in Loop: Header=BB3_1 Depth=1
	#DEBUG_VALUE: Romberg:absacc <- [DW_OP_constu 248, DW_OP_minus] [$rbp+0]
	#DEBUG_VALUE: absacc <- [DW_OP_constu 248, DW_OP_minus] [$rbp+0]
	#DEBUG_VALUE: Romberg:e <- [DW_OP_constu 136, DW_OP_minus] [$rbp+0]
	#DEBUG_VALUE: Romberg:f <- [DW_OP_constu 272, DW_OP_minus] [$rbp+0]
	#DEBUG_VALUE: e <- [DW_OP_constu 136, DW_OP_minus] [$rbp+0]
	#DEBUG_VALUE: f <- [DW_OP_constu 272, DW_OP_minus] [$rbp+0]
	vmovsd	24(%r10), %xmm3         # xmm3 = mem[0],zero
	vucomisd	%xmm8, %xmm3
	jne	.LBB3_51
	jnp	.LBB3_50
.Ltmp261:
.LBB3_51:                               # %L..inline.12266.3
                                        #   in Loop: Header=BB3_1 Depth=1
	#DEBUG_VALUE: Romberg:absacc <- [DW_OP_constu 248, DW_OP_minus] [$rbp+0]
	#DEBUG_VALUE: absacc <- [DW_OP_constu 248, DW_OP_minus] [$rbp+0]
	#DEBUG_VALUE: Romberg:e <- [DW_OP_constu 136, DW_OP_minus] [$rbp+0]
	#DEBUG_VALUE: Romberg:f <- [DW_OP_constu 272, DW_OP_minus] [$rbp+0]
	#DEBUG_VALUE: e <- [DW_OP_constu 136, DW_OP_minus] [$rbp+0]
	#DEBUG_VALUE: f <- [DW_OP_constu 272, DW_OP_minus] [$rbp+0]
	vminsd	%xmm1, %xmm2, %xmm1
	vandpd	%xmm6, %xmm3, %xmm2
	vucomisd	%xmm2, %xmm1
	movl	$3, %eax
	cmoval	%eax, %edx
	movq	24(%rcx), %rax
	movq	%rax, -584(%rbp)
	vmovq	%rax, %xmm3
	vaddsd	.LCPI3_3(%rip), %xmm3, %xmm3
	vmovsd	%xmm3, -424(%rbp)
	cmpq	$5, %rsi
	jb	.LBB3_29
.Ltmp262:
# %bb.52:                               # %L..inline.12266.L..inline.12263_crit_edge.3
                                        #   in Loop: Header=BB3_1 Depth=1
	#DEBUG_VALUE: Romberg:absacc <- [DW_OP_constu 248, DW_OP_minus] [$rbp+0]
	#DEBUG_VALUE: absacc <- [DW_OP_constu 248, DW_OP_minus] [$rbp+0]
	#DEBUG_VALUE: Romberg:e <- [DW_OP_constu 136, DW_OP_minus] [$rbp+0]
	#DEBUG_VALUE: Romberg:f <- [DW_OP_constu 272, DW_OP_minus] [$rbp+0]
	#DEBUG_VALUE: e <- [DW_OP_constu 136, DW_OP_minus] [$rbp+0]
	#DEBUG_VALUE: f <- [DW_OP_constu 272, DW_OP_minus] [$rbp+0]
	vmovsd	32(%r10), %xmm3         # xmm3 = mem[0],zero
	vucomisd	%xmm8, %xmm3
	jne	.LBB3_28
	jnp	.LBB3_53
.Ltmp263:
.LBB3_28:                               # %L..inline.12266.4
                                        #   in Loop: Header=BB3_1 Depth=1
	#DEBUG_VALUE: Romberg:absacc <- [DW_OP_constu 248, DW_OP_minus] [$rbp+0]
	#DEBUG_VALUE: absacc <- [DW_OP_constu 248, DW_OP_minus] [$rbp+0]
	#DEBUG_VALUE: Romberg:e <- [DW_OP_constu 136, DW_OP_minus] [$rbp+0]
	#DEBUG_VALUE: Romberg:f <- [DW_OP_constu 272, DW_OP_minus] [$rbp+0]
	#DEBUG_VALUE: e <- [DW_OP_constu 136, DW_OP_minus] [$rbp+0]
	#DEBUG_VALUE: f <- [DW_OP_constu 272, DW_OP_minus] [$rbp+0]
	vandpd	%xmm6, %xmm3, %xmm3
	vminsd	%xmm1, %xmm2, %xmm1
	vucomisd	%xmm3, %xmm1
	movl	$4, %eax
	cmoval	%eax, %edx
	movq	32(%rcx), %rax
	movq	%rax, -576(%rbp)
	vmovq	%rax, %xmm1
	vaddsd	.LCPI3_3(%rip), %xmm1, %xmm1
	vmovsd	%xmm1, -416(%rbp)
.Ltmp264:
.LBB3_29:                               # %L..inline.12264
                                        #   in Loop: Header=BB3_1 Depth=1
	#DEBUG_VALUE: Romberg:absacc <- [DW_OP_constu 248, DW_OP_minus] [$rbp+0]
	#DEBUG_VALUE: absacc <- [DW_OP_constu 248, DW_OP_minus] [$rbp+0]
	#DEBUG_VALUE: Romberg:e <- [DW_OP_constu 136, DW_OP_minus] [$rbp+0]
	#DEBUG_VALUE: Romberg:f <- [DW_OP_constu 272, DW_OP_minus] [$rbp+0]
	#DEBUG_VALUE: e <- [DW_OP_constu 136, DW_OP_minus] [$rbp+0]
	#DEBUG_VALUE: f <- [DW_OP_constu 272, DW_OP_minus] [$rbp+0]
	movl	%edx, %eax
	vmovsd	(%rcx,%rax,8), %xmm1    # xmm1 = mem[0],zero
	testb	%r9b, %r9b
	je	.LBB3_31
.Ltmp265:
# %bb.30:                               #   in Loop: Header=BB3_1 Depth=1
	#DEBUG_VALUE: Romberg:absacc <- [DW_OP_constu 248, DW_OP_minus] [$rbp+0]
	#DEBUG_VALUE: absacc <- [DW_OP_constu 248, DW_OP_minus] [$rbp+0]
	#DEBUG_VALUE: Romberg:e <- [DW_OP_constu 136, DW_OP_minus] [$rbp+0]
	#DEBUG_VALUE: Romberg:f <- [DW_OP_constu 272, DW_OP_minus] [$rbp+0]
	#DEBUG_VALUE: e <- [DW_OP_constu 136, DW_OP_minus] [$rbp+0]
	#DEBUG_VALUE: f <- [DW_OP_constu 272, DW_OP_minus] [$rbp+0]
	.loc	1 0 1                   # backgroundfield/quadr.cpp:0:1
	movq	-64(%rbp), %r13         # 8-byte Reload
	leaq	-216(%rbp), %rdi
	movl	-56(%rbp), %edx         # 4-byte Reload
	vmovsd	-88(%rbp), %xmm8        # 8-byte Reload
                                        # xmm8 = mem[0],zero
	vmovapd	-160(%rbp), %xmm6       # 16-byte Reload
	jmp	.LBB3_36
.Ltmp266:
.LBB3_31:                               # %L.B0332
                                        #   in Loop: Header=BB3_1 Depth=1
	#DEBUG_VALUE: Romberg:absacc <- [DW_OP_constu 248, DW_OP_minus] [$rbp+0]
	#DEBUG_VALUE: absacc <- [DW_OP_constu 248, DW_OP_minus] [$rbp+0]
	#DEBUG_VALUE: Romberg:e <- [DW_OP_constu 136, DW_OP_minus] [$rbp+0]
	#DEBUG_VALUE: Romberg:f <- [DW_OP_constu 272, DW_OP_minus] [$rbp+0]
	#DEBUG_VALUE: e <- [DW_OP_constu 136, DW_OP_minus] [$rbp+0]
	#DEBUG_VALUE: f <- [DW_OP_constu 272, DW_OP_minus] [$rbp+0]
	leaq	-744(%rbp), %rax
	leaq	(%rax,%rdi,8), %rax
	addq	$24, %rax
	decq	%r12
	.loc	1 198 1                 # backgroundfield/quadr.cpp:198:1
	decl	%edx
	.loc	1 0 0                   # backgroundfield/quadr.cpp:0:0
	vmovsd	(%r10), %xmm2           # xmm2 = mem[0],zero
	vmovsd	-576(%rbp), %xmm3       # xmm3 = mem[0],zero
	jmp	.LBB3_32
.Ltmp267:
.LBB3_59:                               # %L..inline.12282.3
                                        #   in Loop: Header=BB3_32 Depth=2
	#DEBUG_VALUE: Romberg:absacc <- [DW_OP_constu 248, DW_OP_minus] [$rbp+0]
	#DEBUG_VALUE: absacc <- [DW_OP_constu 248, DW_OP_minus] [$rbp+0]
	#DEBUG_VALUE: Romberg:e <- [DW_OP_constu 136, DW_OP_minus] [$rbp+0]
	#DEBUG_VALUE: Romberg:f <- [DW_OP_constu 272, DW_OP_minus] [$rbp+0]
	#DEBUG_VALUE: e <- [DW_OP_constu 136, DW_OP_minus] [$rbp+0]
	#DEBUG_VALUE: f <- [DW_OP_constu 272, DW_OP_minus] [$rbp+0]
	.loc	1 198 1                 # backgroundfield/quadr.cpp:198:1
	vsubsd	%xmm5, %xmm3, %xmm5
	vdivsd	%xmm6, %xmm5, %xmm5
	vmulsd	%xmm5, %xmm3, %xmm6
	vmovsd	%xmm6, -424(%rbp)
	vmulsd	%xmm5, %xmm4, %xmm4
	vmovsd	%xmm4, -584(%rbp)
.Ltmp268:
	.p2align	4, 0x90
.LBB3_34:                               # %L..inline.12278
                                        #   in Loop: Header=BB3_32 Depth=2
	#DEBUG_VALUE: Romberg:absacc <- [DW_OP_constu 248, DW_OP_minus] [$rbp+0]
	#DEBUG_VALUE: absacc <- [DW_OP_constu 248, DW_OP_minus] [$rbp+0]
	#DEBUG_VALUE: Romberg:e <- [DW_OP_constu 136, DW_OP_minus] [$rbp+0]
	#DEBUG_VALUE: Romberg:f <- [DW_OP_constu 272, DW_OP_minus] [$rbp+0]
	#DEBUG_VALUE: e <- [DW_OP_constu 136, DW_OP_minus] [$rbp+0]
	#DEBUG_VALUE: f <- [DW_OP_constu 272, DW_OP_minus] [$rbp+0]
	leal	(%rdx,%rdx), %ecx
	addl	$2, %ecx
	movslq	%ecx, %rcx
	xorl	%esi, %esi
	cmpq	%rcx, %r12
	setle	%sil
	movslq	%edx, %rdx
	leaq	-448(%rbp,%rdx,8), %rcx
	leaq	-600(%rbp), %rdi
	leaq	(%rdi,%rdx,8), %rdi
	cmovleq	%rcx, %rdi
	subl	%esi, %edx
	vmovsd	(%rdi), %xmm6           # xmm6 = mem[0],zero
	vaddsd	%xmm6, %xmm1, %xmm1
	addq	$8, %rax
	decq	%r12
	testl	%r12d, %r12d
	jle	.LBB3_35
.Ltmp269:
.LBB3_32:                               # %L..inline.12277.preheader
                                        #   Parent Loop BB3_1 Depth=1
                                        # =>  This Inner Loop Header: Depth=2
	#DEBUG_VALUE: Romberg:absacc <- [DW_OP_constu 248, DW_OP_minus] [$rbp+0]
	#DEBUG_VALUE: absacc <- [DW_OP_constu 248, DW_OP_minus] [$rbp+0]
	#DEBUG_VALUE: Romberg:e <- [DW_OP_constu 136, DW_OP_minus] [$rbp+0]
	#DEBUG_VALUE: Romberg:f <- [DW_OP_constu 272, DW_OP_minus] [$rbp+0]
	#DEBUG_VALUE: e <- [DW_OP_constu 136, DW_OP_minus] [$rbp+0]
	#DEBUG_VALUE: f <- [DW_OP_constu 272, DW_OP_minus] [$rbp+0]
	vmovsd	-600(%rbp), %xmm4       # xmm4 = mem[0],zero
	vmovsd	-448(%rbp), %xmm6       # xmm6 = mem[0],zero
	vmulsd	%xmm2, %xmm6, %xmm5
	vdivsd	-24(%rax), %xmm5, %xmm5
	vsubsd	%xmm4, %xmm5, %xmm7
	vucomisd	%xmm8, %xmm7
	jne	.LBB3_33
	jnp	.LBB3_60
.Ltmp270:
.LBB3_33:                               # %L..inline.12282
                                        #   in Loop: Header=BB3_32 Depth=2
	#DEBUG_VALUE: Romberg:absacc <- [DW_OP_constu 248, DW_OP_minus] [$rbp+0]
	#DEBUG_VALUE: absacc <- [DW_OP_constu 248, DW_OP_minus] [$rbp+0]
	#DEBUG_VALUE: Romberg:e <- [DW_OP_constu 136, DW_OP_minus] [$rbp+0]
	#DEBUG_VALUE: Romberg:f <- [DW_OP_constu 272, DW_OP_minus] [$rbp+0]
	#DEBUG_VALUE: e <- [DW_OP_constu 136, DW_OP_minus] [$rbp+0]
	#DEBUG_VALUE: f <- [DW_OP_constu 272, DW_OP_minus] [$rbp+0]
	vsubsd	%xmm6, %xmm4, %xmm6
	vdivsd	%xmm7, %xmm6, %xmm6
	vmulsd	%xmm6, %xmm4, %xmm4
	vmovsd	%xmm4, -448(%rbp)
	vmulsd	%xmm6, %xmm5, %xmm4
	vmovsd	%xmm4, -608(%rbp)
	cmpq	$1, %r12
	jle	.LBB3_34
.Ltmp271:
# %bb.54:                               # %L..inline.12277.1
                                        #   in Loop: Header=BB3_32 Depth=2
	#DEBUG_VALUE: Romberg:absacc <- [DW_OP_constu 248, DW_OP_minus] [$rbp+0]
	#DEBUG_VALUE: absacc <- [DW_OP_constu 248, DW_OP_minus] [$rbp+0]
	#DEBUG_VALUE: Romberg:e <- [DW_OP_constu 136, DW_OP_minus] [$rbp+0]
	#DEBUG_VALUE: Romberg:f <- [DW_OP_constu 272, DW_OP_minus] [$rbp+0]
	#DEBUG_VALUE: e <- [DW_OP_constu 136, DW_OP_minus] [$rbp+0]
	#DEBUG_VALUE: f <- [DW_OP_constu 272, DW_OP_minus] [$rbp+0]
	vmovsd	-592(%rbp), %xmm4       # xmm4 = mem[0],zero
	vmovsd	-440(%rbp), %xmm6       # xmm6 = mem[0],zero
	vmulsd	8(%r10), %xmm6, %xmm5
	vdivsd	-16(%rax), %xmm5, %xmm5
	vsubsd	%xmm4, %xmm5, %xmm7
	vucomisd	%xmm8, %xmm7
	jne	.LBB3_55
	jnp	.LBB3_60
.Ltmp272:
.LBB3_55:                               # %L..inline.12282.1
                                        #   in Loop: Header=BB3_32 Depth=2
	#DEBUG_VALUE: Romberg:absacc <- [DW_OP_constu 248, DW_OP_minus] [$rbp+0]
	#DEBUG_VALUE: absacc <- [DW_OP_constu 248, DW_OP_minus] [$rbp+0]
	#DEBUG_VALUE: Romberg:e <- [DW_OP_constu 136, DW_OP_minus] [$rbp+0]
	#DEBUG_VALUE: Romberg:f <- [DW_OP_constu 272, DW_OP_minus] [$rbp+0]
	#DEBUG_VALUE: e <- [DW_OP_constu 136, DW_OP_minus] [$rbp+0]
	#DEBUG_VALUE: f <- [DW_OP_constu 272, DW_OP_minus] [$rbp+0]
	vsubsd	%xmm6, %xmm4, %xmm6
	vdivsd	%xmm7, %xmm6, %xmm6
	vmulsd	%xmm6, %xmm4, %xmm4
	vmovsd	%xmm4, -440(%rbp)
	vmulsd	%xmm6, %xmm5, %xmm4
	vmovsd	%xmm4, -600(%rbp)
	cmpq	$3, %r12
	jl	.LBB3_34
.Ltmp273:
# %bb.56:                               # %L..inline.12277.2
                                        #   in Loop: Header=BB3_32 Depth=2
	#DEBUG_VALUE: Romberg:absacc <- [DW_OP_constu 248, DW_OP_minus] [$rbp+0]
	#DEBUG_VALUE: absacc <- [DW_OP_constu 248, DW_OP_minus] [$rbp+0]
	#DEBUG_VALUE: Romberg:e <- [DW_OP_constu 136, DW_OP_minus] [$rbp+0]
	#DEBUG_VALUE: Romberg:f <- [DW_OP_constu 272, DW_OP_minus] [$rbp+0]
	#DEBUG_VALUE: e <- [DW_OP_constu 136, DW_OP_minus] [$rbp+0]
	#DEBUG_VALUE: f <- [DW_OP_constu 272, DW_OP_minus] [$rbp+0]
	vmovsd	-584(%rbp), %xmm4       # xmm4 = mem[0],zero
	vmovsd	-432(%rbp), %xmm6       # xmm6 = mem[0],zero
	vmulsd	16(%r10), %xmm6, %xmm5
	vdivsd	-8(%rax), %xmm5, %xmm5
	vsubsd	%xmm4, %xmm5, %xmm7
	vucomisd	%xmm8, %xmm7
	jne	.LBB3_57
	jnp	.LBB3_60
.Ltmp274:
.LBB3_57:                               # %L..inline.12282.2
                                        #   in Loop: Header=BB3_32 Depth=2
	#DEBUG_VALUE: Romberg:absacc <- [DW_OP_constu 248, DW_OP_minus] [$rbp+0]
	#DEBUG_VALUE: absacc <- [DW_OP_constu 248, DW_OP_minus] [$rbp+0]
	#DEBUG_VALUE: Romberg:e <- [DW_OP_constu 136, DW_OP_minus] [$rbp+0]
	#DEBUG_VALUE: Romberg:f <- [DW_OP_constu 272, DW_OP_minus] [$rbp+0]
	#DEBUG_VALUE: e <- [DW_OP_constu 136, DW_OP_minus] [$rbp+0]
	#DEBUG_VALUE: f <- [DW_OP_constu 272, DW_OP_minus] [$rbp+0]
	vsubsd	%xmm6, %xmm4, %xmm6
	vdivsd	%xmm7, %xmm6, %xmm6
	vmulsd	%xmm6, %xmm4, %xmm4
	vmovsd	%xmm4, -432(%rbp)
	vmulsd	%xmm6, %xmm5, %xmm4
	vmovsd	%xmm4, -592(%rbp)
	cmpq	$4, %r12
	jl	.LBB3_34
.Ltmp275:
# %bb.58:                               # %L..inline.12277.3
                                        #   in Loop: Header=BB3_32 Depth=2
	#DEBUG_VALUE: Romberg:absacc <- [DW_OP_constu 248, DW_OP_minus] [$rbp+0]
	#DEBUG_VALUE: absacc <- [DW_OP_constu 248, DW_OP_minus] [$rbp+0]
	#DEBUG_VALUE: Romberg:e <- [DW_OP_constu 136, DW_OP_minus] [$rbp+0]
	#DEBUG_VALUE: Romberg:f <- [DW_OP_constu 272, DW_OP_minus] [$rbp+0]
	#DEBUG_VALUE: e <- [DW_OP_constu 136, DW_OP_minus] [$rbp+0]
	#DEBUG_VALUE: f <- [DW_OP_constu 272, DW_OP_minus] [$rbp+0]
	vmovsd	-424(%rbp), %xmm5       # xmm5 = mem[0],zero
	vmulsd	24(%r10), %xmm5, %xmm4
	vdivsd	(%rax), %xmm4, %xmm4
	vsubsd	%xmm3, %xmm4, %xmm6
	vucomisd	%xmm8, %xmm6
	jne	.LBB3_59
	jp	.LBB3_59
	jmp	.LBB3_60
.Ltmp276:
.LBB3_23:                               #   in Loop: Header=BB3_1 Depth=1
	#DEBUG_VALUE: Romberg:absacc <- [DW_OP_constu 248, DW_OP_minus] [$rbp+0]
	#DEBUG_VALUE: absacc <- [DW_OP_constu 248, DW_OP_minus] [$rbp+0]
	#DEBUG_VALUE: Romberg:e <- [DW_OP_constu 136, DW_OP_minus] [$rbp+0]
	#DEBUG_VALUE: Romberg:f <- [DW_OP_constu 272, DW_OP_minus] [$rbp+0]
	#DEBUG_VALUE: e <- [DW_OP_constu 136, DW_OP_minus] [$rbp+0]
	#DEBUG_VALUE: f <- [DW_OP_constu 272, DW_OP_minus] [$rbp+0]
	xorl	%eax, %eax
	jmp	.LBB3_24
.Ltmp277:
.LBB3_27:                               #   in Loop: Header=BB3_1 Depth=1
	#DEBUG_VALUE: Romberg:absacc <- [DW_OP_constu 248, DW_OP_minus] [$rbp+0]
	#DEBUG_VALUE: absacc <- [DW_OP_constu 248, DW_OP_minus] [$rbp+0]
	#DEBUG_VALUE: Romberg:e <- [DW_OP_constu 136, DW_OP_minus] [$rbp+0]
	#DEBUG_VALUE: Romberg:f <- [DW_OP_constu 272, DW_OP_minus] [$rbp+0]
	#DEBUG_VALUE: e <- [DW_OP_constu 136, DW_OP_minus] [$rbp+0]
	#DEBUG_VALUE: f <- [DW_OP_constu 272, DW_OP_minus] [$rbp+0]
	.loc	1 0 1                   # backgroundfield/quadr.cpp:0:1
	movl	$1, %eax
	jmp	.LBB3_24
.Ltmp278:
.LBB3_47:                               #   in Loop: Header=BB3_1 Depth=1
	#DEBUG_VALUE: Romberg:absacc <- [DW_OP_constu 248, DW_OP_minus] [$rbp+0]
	#DEBUG_VALUE: absacc <- [DW_OP_constu 248, DW_OP_minus] [$rbp+0]
	#DEBUG_VALUE: Romberg:e <- [DW_OP_constu 136, DW_OP_minus] [$rbp+0]
	#DEBUG_VALUE: Romberg:f <- [DW_OP_constu 272, DW_OP_minus] [$rbp+0]
	#DEBUG_VALUE: e <- [DW_OP_constu 136, DW_OP_minus] [$rbp+0]
	#DEBUG_VALUE: f <- [DW_OP_constu 272, DW_OP_minus] [$rbp+0]
	movl	$2, %eax
	jmp	.LBB3_24
.Ltmp279:
.LBB3_50:                               #   in Loop: Header=BB3_1 Depth=1
	#DEBUG_VALUE: Romberg:absacc <- [DW_OP_constu 248, DW_OP_minus] [$rbp+0]
	#DEBUG_VALUE: absacc <- [DW_OP_constu 248, DW_OP_minus] [$rbp+0]
	#DEBUG_VALUE: Romberg:e <- [DW_OP_constu 136, DW_OP_minus] [$rbp+0]
	#DEBUG_VALUE: Romberg:f <- [DW_OP_constu 272, DW_OP_minus] [$rbp+0]
	#DEBUG_VALUE: e <- [DW_OP_constu 136, DW_OP_minus] [$rbp+0]
	#DEBUG_VALUE: f <- [DW_OP_constu 272, DW_OP_minus] [$rbp+0]
	movl	$3, %eax
	jmp	.LBB3_24
.Ltmp280:
.LBB3_53:                               #   in Loop: Header=BB3_1 Depth=1
	#DEBUG_VALUE: Romberg:absacc <- [DW_OP_constu 248, DW_OP_minus] [$rbp+0]
	#DEBUG_VALUE: absacc <- [DW_OP_constu 248, DW_OP_minus] [$rbp+0]
	#DEBUG_VALUE: Romberg:e <- [DW_OP_constu 136, DW_OP_minus] [$rbp+0]
	#DEBUG_VALUE: Romberg:f <- [DW_OP_constu 272, DW_OP_minus] [$rbp+0]
	#DEBUG_VALUE: e <- [DW_OP_constu 136, DW_OP_minus] [$rbp+0]
	#DEBUG_VALUE: f <- [DW_OP_constu 272, DW_OP_minus] [$rbp+0]
	movl	$4, %eax
.Ltmp281:
.LBB3_24:                               # %L.B0330
                                        #   in Loop: Header=BB3_1 Depth=1
	#DEBUG_VALUE: Romberg:absacc <- [DW_OP_constu 248, DW_OP_minus] [$rbp+0]
	#DEBUG_VALUE: absacc <- [DW_OP_constu 248, DW_OP_minus] [$rbp+0]
	#DEBUG_VALUE: Romberg:e <- [DW_OP_constu 136, DW_OP_minus] [$rbp+0]
	#DEBUG_VALUE: Romberg:f <- [DW_OP_constu 272, DW_OP_minus] [$rbp+0]
	#DEBUG_VALUE: e <- [DW_OP_constu 136, DW_OP_minus] [$rbp+0]
	#DEBUG_VALUE: f <- [DW_OP_constu 272, DW_OP_minus] [$rbp+0]
	.loc	1 198 1                 # backgroundfield/quadr.cpp:198:1
	vmovsd	(%rcx,%rax,8), %xmm1    # xmm1 = mem[0],zero
	vxorpd	%xmm6, %xmm6, %xmm6
.Ltmp282:
.LBB3_35:                               #   in Loop: Header=BB3_1 Depth=1
	#DEBUG_VALUE: Romberg:absacc <- [DW_OP_constu 248, DW_OP_minus] [$rbp+0]
	#DEBUG_VALUE: absacc <- [DW_OP_constu 248, DW_OP_minus] [$rbp+0]
	#DEBUG_VALUE: Romberg:e <- [DW_OP_constu 136, DW_OP_minus] [$rbp+0]
	#DEBUG_VALUE: Romberg:f <- [DW_OP_constu 272, DW_OP_minus] [$rbp+0]
	#DEBUG_VALUE: e <- [DW_OP_constu 136, DW_OP_minus] [$rbp+0]
	#DEBUG_VALUE: f <- [DW_OP_constu 272, DW_OP_minus] [$rbp+0]
	.loc	1 0 1                   # backgroundfield/quadr.cpp:0:1
	movq	-64(%rbp), %r13         # 8-byte Reload
	leaq	-216(%rbp), %rdi
	movl	-56(%rbp), %edx         # 4-byte Reload
	vmovsd	-88(%rbp), %xmm8        # 8-byte Reload
                                        # xmm8 = mem[0],zero
.Ltmp283:
.LBB3_36:                               # %L..inline.12269
                                        #   in Loop: Header=BB3_1 Depth=1
	#DEBUG_VALUE: Romberg:absacc <- [DW_OP_constu 248, DW_OP_minus] [$rbp+0]
	#DEBUG_VALUE: absacc <- [DW_OP_constu 248, DW_OP_minus] [$rbp+0]
	#DEBUG_VALUE: Romberg:e <- [DW_OP_constu 136, DW_OP_minus] [$rbp+0]
	#DEBUG_VALUE: Romberg:f <- [DW_OP_constu 272, DW_OP_minus] [$rbp+0]
	#DEBUG_VALUE: e <- [DW_OP_constu 136, DW_OP_minus] [$rbp+0]
	#DEBUG_VALUE: f <- [DW_OP_constu 272, DW_OP_minus] [$rbp+0]
	vmovapd	.LCPI3_2(%rip), %xmm5   # xmm5 = [NaN,NaN]
	.loc	1 198 1                 # backgroundfield/quadr.cpp:198:1
	vandpd	%xmm5, %xmm9, %xmm9
	.loc	1 199 1 is_stmt 1       # backgroundfield/quadr.cpp:199:1
	vandpd	%xmm5, %xmm6, %xmm2
	.loc	1 200 1                 # backgroundfield/quadr.cpp:200:1
	vmaxsd	%xmm9, %xmm2, %xmm3
	vcmpunordsd	%xmm9, %xmm9, %xmm4
	vblendvpd	%xmm4, %xmm2, %xmm3, %xmm3
	vcmpunordsd	%xmm6, %xmm6, %xmm4
	vblendvpd	%xmm4, %xmm9, %xmm3, %xmm3
	.loc	1 201 1                 # backgroundfield/quadr.cpp:201:1
	vsubsd	%xmm1, %xmm0, %xmm4
	vandpd	%xmm5, %xmm4, %xmm5
	.loc	1 202 1                 # backgroundfield/quadr.cpp:202:1
	vcmpunordsd	%xmm3, %xmm3, %xmm6
	vmaxsd	%xmm3, %xmm5, %xmm7
	vblendvpd	%xmm6, %xmm5, %xmm7, %xmm5
	vcmpunordsd	%xmm4, %xmm4, %xmm4
	vblendvpd	%xmm4, %xmm3, %xmm5, %xmm3
	vmovsd	-248(%rbp), %xmm4       # 8-byte Reload
                                        # xmm4 = mem[0],zero
	.loc	1 204 1                 # backgroundfield/quadr.cpp:204:1
	vucomisd	%xmm3, %xmm4
	jbe	.LBB3_3
.Ltmp284:
# %bb.37:                               # %L.B0339
	#DEBUG_VALUE: Romberg:absacc <- [DW_OP_constu 248, DW_OP_minus] [$rbp+0]
	#DEBUG_VALUE: absacc <- [DW_OP_constu 248, DW_OP_minus] [$rbp+0]
	#DEBUG_VALUE: Romberg:e <- [DW_OP_constu 136, DW_OP_minus] [$rbp+0]
	#DEBUG_VALUE: Romberg:f <- [DW_OP_constu 272, DW_OP_minus] [$rbp+0]
	#DEBUG_VALUE: e <- [DW_OP_constu 136, DW_OP_minus] [$rbp+0]
	#DEBUG_VALUE: f <- [DW_OP_constu 272, DW_OP_minus] [$rbp+0]
	vaddsd	%xmm1, %xmm0, %xmm0
	vmulsd	.LCPI3_0(%rip), %xmm0, %xmm8
.Ltmp285:
.LBB3_38:                               # %L..inline.12328
	#DEBUG_VALUE: Romberg:absacc <- [DW_OP_constu 248, DW_OP_minus] [$rbp+0]
	#DEBUG_VALUE: absacc <- [DW_OP_constu 248, DW_OP_minus] [$rbp+0]
	#DEBUG_VALUE: Romberg:e <- [DW_OP_constu 136, DW_OP_minus] [$rbp+0]
	#DEBUG_VALUE: Romberg:f <- [DW_OP_constu 272, DW_OP_minus] [$rbp+0]
	#DEBUG_VALUE: e <- [DW_OP_constu 136, DW_OP_minus] [$rbp+0]
	#DEBUG_VALUE: f <- [DW_OP_constu 272, DW_OP_minus] [$rbp+0]
	.loc	1 249 1                 # backgroundfield/quadr.cpp:249:1
	vmovapd	%xmm8, %xmm0
	addq	$1032, %rsp             # imm = 0x408
	popq	%rbx
	popq	%r12
	popq	%r13
	popq	%r14
	popq	%r15
	popq	%rbp
	.cfi_def_cfa %rsp, 8
	retq
.Ltmp286:
.LBB3_60:                               # %L..inline.12287
	.cfi_def_cfa %rbp, 16
	#DEBUG_VALUE: Romberg:absacc <- [DW_OP_constu 248, DW_OP_minus] [$rbp+0]
	#DEBUG_VALUE: absacc <- [DW_OP_constu 248, DW_OP_minus] [$rbp+0]
	#DEBUG_VALUE: Romberg:e <- [DW_OP_constu 136, DW_OP_minus] [$rbp+0]
	#DEBUG_VALUE: Romberg:f <- [DW_OP_constu 272, DW_OP_minus] [$rbp+0]
	#DEBUG_VALUE: e <- [DW_OP_constu 136, DW_OP_minus] [$rbp+0]
	#DEBUG_VALUE: f <- [DW_OP_constu 272, DW_OP_minus] [$rbp+0]
	.loc	1 198 1                 # backgroundfield/quadr.cpp:198:1
	movl	$_ZSt4cerr, %edi
	movl	$.S08003, %esi
	movl	$20, %edx
	callq	_ZSt16__ostream_insertIcSt11char_traitsIcEERSt13basic_ostreamIT_T0_ES6_PKS3_l
	movl	$111, %edi
	callq	exit
.Ltmp287:
.Lfunc_end3:
	.size	_Z7RombergRK11T3DFunctionddddddd, .Lfunc_end3-_Z7RombergRK11T3DFunctionddddddd
	.cfi_endproc
                                        # -- End function
	.weak	_ZN11T1DFunctionD1Ev    # -- Begin function _ZN11T1DFunctionD1Ev
	.p2align	4, 0x90
	.type	_ZN11T1DFunctionD1Ev,@function
_ZN11T1DFunctionD1Ev:                   # @_ZN11T1DFunctionD1Ev
.Lfunc_begin4:
	.file	2 "/home/talgat/vlasiator/backgroundfield/functions.hpp"
	.loc	2 29 0                  # backgroundfield/functions.hpp:29:0
	.cfi_startproc
# %bb.0:                                # %L.entry
	#DEBUG_VALUE: ~T1DFunction: <- $rdi
	#DEBUG_VALUE: ~T1DFunction: <- $rdi
	pushq	%rbp
	.cfi_def_cfa_offset 16
	.cfi_offset %rbp, -16
	movq	%rsp, %rbp
	.cfi_def_cfa_register %rbp
.Ltmp288:
	#DEBUG_VALUE:  <- $rdi
	#DEBUG_VALUE:  <- $rdi
	.loc	2 29 1 prologue_end     # backgroundfield/functions.hpp:29:1
	movq	$_ZTV11T1DFunction+16, (%rdi)
	popq	%rbp
	.cfi_def_cfa %rsp, 8
	retq
.Ltmp289:
.Lfunc_end4:
	.size	_ZN11T1DFunctionD1Ev, .Lfunc_end4-_ZN11T1DFunctionD1Ev
	.cfi_endproc
                                        # -- End function
	.weak	_ZN11T1DFunctionD0Ev    # -- Begin function _ZN11T1DFunctionD0Ev
	.p2align	4, 0x90
	.type	_ZN11T1DFunctionD0Ev,@function
_ZN11T1DFunctionD0Ev:                   # @_ZN11T1DFunctionD0Ev
.Lfunc_begin5:
	.loc	1 0 0                   # backgroundfield/quadr.cpp:0:0
	.cfi_startproc
# %bb.0:                                # %L.entry
	pushq	%rbp
	.cfi_def_cfa_offset 16
	.cfi_offset %rbp, -16
	movq	%rsp, %rbp
	.cfi_def_cfa_register %rbp
.Ltmp290:
	.loc	1 29 1 prologue_end     # backgroundfield/quadr.cpp:29:1
	movl	$8, %esi
	popq	%rbp
	.cfi_def_cfa %rsp, 8
	jmp	_ZdlPvm                 # TAILCALL
.Ltmp291:
.Lfunc_end5:
	.size	_ZN11T1DFunctionD0Ev, .Lfunc_end5-_ZN11T1DFunctionD0Ev
	.cfi_endproc
                                        # -- End function
	.weak	_ZN11T2DFunctionD1Ev    # -- Begin function _ZN11T2DFunctionD1Ev
	.p2align	4, 0x90
	.type	_ZN11T2DFunctionD1Ev,@function
_ZN11T2DFunctionD1Ev:                   # @_ZN11T2DFunctionD1Ev
.Lfunc_begin6:
	.loc	2 30 0                  # backgroundfield/functions.hpp:30:0
	.cfi_startproc
# %bb.0:                                # %L.entry
	#DEBUG_VALUE: ~T2DFunction: <- $rdi
	#DEBUG_VALUE: ~T2DFunction: <- $rdi
	pushq	%rbp
	.cfi_def_cfa_offset 16
	.cfi_offset %rbp, -16
	movq	%rsp, %rbp
	.cfi_def_cfa_register %rbp
.Ltmp292:
	#DEBUG_VALUE:  <- $rdi
	#DEBUG_VALUE:  <- $rdi
	.loc	2 30 1 prologue_end     # backgroundfield/functions.hpp:30:1
	movq	$_ZTV11T2DFunction+16, (%rdi)
	popq	%rbp
	.cfi_def_cfa %rsp, 8
	retq
.Ltmp293:
.Lfunc_end6:
	.size	_ZN11T2DFunctionD1Ev, .Lfunc_end6-_ZN11T2DFunctionD1Ev
	.cfi_endproc
                                        # -- End function
	.weak	_ZN11T2DFunctionD0Ev    # -- Begin function _ZN11T2DFunctionD0Ev
	.p2align	4, 0x90
	.type	_ZN11T2DFunctionD0Ev,@function
_ZN11T2DFunctionD0Ev:                   # @_ZN11T2DFunctionD0Ev
.Lfunc_begin7:
	.loc	1 0 0                   # backgroundfield/quadr.cpp:0:0
	.cfi_startproc
# %bb.0:                                # %L.entry
	pushq	%rbp
	.cfi_def_cfa_offset 16
	.cfi_offset %rbp, -16
	movq	%rsp, %rbp
	.cfi_def_cfa_register %rbp
.Ltmp294:
	.loc	1 30 1 prologue_end     # backgroundfield/quadr.cpp:30:1
	movl	$8, %esi
	popq	%rbp
	.cfi_def_cfa %rsp, 8
	jmp	_ZdlPvm                 # TAILCALL
.Ltmp295:
.Lfunc_end7:
	.size	_ZN11T2DFunctionD0Ev, .Lfunc_end7-_ZN11T2DFunctionD0Ev
	.cfi_endproc
                                        # -- End function
	.weak	_ZNK8T2D_fix14callEd    # -- Begin function _ZNK8T2D_fix14callEd
	.p2align	4, 0x90
	.type	_ZNK8T2D_fix14callEd,@function
_ZNK8T2D_fix14callEd:                   # @_ZNK8T2D_fix14callEd
.Lfunc_begin8:
	.loc	2 41 0                  # backgroundfield/functions.hpp:41:0
	.cfi_startproc
# %bb.0:                                # %L.entry
	#DEBUG_VALUE: call: <- $rdi
	#DEBUG_VALUE: call:y <- $xmm0
	pushq	%rbp
	.cfi_def_cfa_offset 16
	.cfi_offset %rbp, -16
	movq	%rsp, %rbp
	.cfi_def_cfa_register %rbp
.Ltmp296:
	#DEBUG_VALUE:  <- $rdi
	#DEBUG_VALUE: y <- $xmm0
	vmovaps	%xmm0, %xmm1
.Ltmp297:
	#DEBUG_VALUE: y <- $xmm1
	#DEBUG_VALUE: call:y <- $xmm1
	#DEBUG_VALUE:  <- $rdi
	#DEBUG_VALUE: call: <- $rdi
	.loc	2 41 1 prologue_end     # backgroundfield/functions.hpp:41:1
	movq	8(%rdi), %rax
	vmovsd	16(%rdi), %xmm0         # xmm0 = mem[0],zero
	movq	(%rax), %rcx
	movq	(%rcx), %rcx
	movq	%rax, %rdi
.Ltmp298:
	#DEBUG_VALUE: y <- $xmm1
	#DEBUG_VALUE: call:y <- $xmm1
	popq	%rbp
	.cfi_def_cfa %rsp, 8
	jmpq	*%rcx                   # TAILCALL
.Ltmp299:
.Lfunc_end8:
	.size	_ZNK8T2D_fix14callEd, .Lfunc_end8-_ZNK8T2D_fix14callEd
	.cfi_endproc
                                        # -- End function
	.weak	_ZN8T2D_fix1D1Ev        # -- Begin function _ZN8T2D_fix1D1Ev
	.p2align	4, 0x90
	.type	_ZN8T2D_fix1D1Ev,@function
_ZN8T2D_fix1D1Ev:                       # @_ZN8T2D_fix1D1Ev
.Lfunc_begin9:
	.loc	2 42 0                  # backgroundfield/functions.hpp:42:0
	.cfi_startproc
# %bb.0:                                # %L.entry
	#DEBUG_VALUE: ~T2D_fix1: <- $rdi
	#DEBUG_VALUE: ~T2D_fix1: <- $rdi
	pushq	%rbp
	.cfi_def_cfa_offset 16
	.cfi_offset %rbp, -16
	movq	%rsp, %rbp
	.cfi_def_cfa_register %rbp
.Ltmp300:
	#DEBUG_VALUE:  <- $rdi
	#DEBUG_VALUE:  <- $rdi
	.loc	2 42 1 prologue_end     # backgroundfield/functions.hpp:42:1
	movq	$_ZTV11T1DFunction+16, (%rdi)
	popq	%rbp
	.cfi_def_cfa %rsp, 8
	retq
.Ltmp301:
.Lfunc_end9:
	.size	_ZN8T2D_fix1D1Ev, .Lfunc_end9-_ZN8T2D_fix1D1Ev
	.cfi_endproc
                                        # -- End function
	.weak	_ZN8T2D_fix1D0Ev        # -- Begin function _ZN8T2D_fix1D0Ev
	.p2align	4, 0x90
	.type	_ZN8T2D_fix1D0Ev,@function
_ZN8T2D_fix1D0Ev:                       # @_ZN8T2D_fix1D0Ev
.Lfunc_begin10:
	.loc	1 0 0                   # backgroundfield/quadr.cpp:0:0
	.cfi_startproc
# %bb.0:                                # %L.entry
	pushq	%rbp
	.cfi_def_cfa_offset 16
	.cfi_offset %rbp, -16
	movq	%rsp, %rbp
	.cfi_def_cfa_register %rbp
.Ltmp302:
	.loc	1 42 1 prologue_end     # backgroundfield/quadr.cpp:42:1
	movl	$24, %esi
	popq	%rbp
	.cfi_def_cfa %rsp, 8
	jmp	_ZdlPvm                 # TAILCALL
.Ltmp303:
.Lfunc_end10:
	.size	_ZN8T2D_fix1D0Ev, .Lfunc_end10-_ZN8T2D_fix1D0Ev
	.cfi_endproc
                                        # -- End function
	.weak	_ZNK8T3D_fix34callEdd   # -- Begin function _ZNK8T3D_fix34callEdd
	.p2align	4, 0x90
	.type	_ZNK8T3D_fix34callEdd,@function
_ZNK8T3D_fix34callEdd:                  # @_ZNK8T3D_fix34callEdd
.Lfunc_begin11:
	.loc	2 83 0                  # backgroundfield/functions.hpp:83:0
	.cfi_startproc
# %bb.0:                                # %L.entry
	#DEBUG_VALUE: call: <- $rdi
	#DEBUG_VALUE: call: <- $rdi
	#DEBUG_VALUE: call:x <- $xmm0
	#DEBUG_VALUE: call:x <- $xmm0
	#DEBUG_VALUE: call:y <- $xmm1
	#DEBUG_VALUE: call:y <- $xmm1
	pushq	%rbp
	.cfi_def_cfa_offset 16
	.cfi_offset %rbp, -16
	movq	%rsp, %rbp
	.cfi_def_cfa_register %rbp
.Ltmp304:
	#DEBUG_VALUE:  <- $rdi
	#DEBUG_VALUE:  <- $rdi
	#DEBUG_VALUE: x <- $xmm0
	#DEBUG_VALUE: x <- $xmm0
	#DEBUG_VALUE: y <- $xmm1
	#DEBUG_VALUE: y <- $xmm1
	.loc	2 83 1 prologue_end     # backgroundfield/functions.hpp:83:1
	movq	8(%rdi), %rax
	vmovsd	16(%rdi), %xmm2         # xmm2 = mem[0],zero
	movq	(%rax), %rcx
	movq	(%rcx), %rcx
	movq	%rax, %rdi
.Ltmp305:
	#DEBUG_VALUE: y <- $xmm1
	#DEBUG_VALUE: call:y <- $xmm1
	#DEBUG_VALUE: x <- $xmm0
	#DEBUG_VALUE: call:x <- $xmm0
	popq	%rbp
	.cfi_def_cfa %rsp, 8
	jmpq	*%rcx                   # TAILCALL
.Ltmp306:
.Lfunc_end11:
	.size	_ZNK8T3D_fix34callEdd, .Lfunc_end11-_ZNK8T3D_fix34callEdd
	.cfi_endproc
                                        # -- End function
	.weak	_ZN8T3D_fix3D1Ev        # -- Begin function _ZN8T3D_fix3D1Ev
	.p2align	4, 0x90
	.type	_ZN8T3D_fix3D1Ev,@function
_ZN8T3D_fix3D1Ev:                       # @_ZN8T3D_fix3D1Ev
.Lfunc_begin12:
	.loc	2 84 0                  # backgroundfield/functions.hpp:84:0
	.cfi_startproc
# %bb.0:                                # %L.entry
	#DEBUG_VALUE: ~T3D_fix3: <- $rdi
	#DEBUG_VALUE: ~T3D_fix3: <- $rdi
	pushq	%rbp
	.cfi_def_cfa_offset 16
	.cfi_offset %rbp, -16
	movq	%rsp, %rbp
	.cfi_def_cfa_register %rbp
.Ltmp307:
	#DEBUG_VALUE:  <- $rdi
	#DEBUG_VALUE:  <- $rdi
	.loc	2 84 1 prologue_end     # backgroundfield/functions.hpp:84:1
	movq	$_ZTV11T2DFunction+16, (%rdi)
	popq	%rbp
	.cfi_def_cfa %rsp, 8
	retq
.Ltmp308:
.Lfunc_end12:
	.size	_ZN8T3D_fix3D1Ev, .Lfunc_end12-_ZN8T3D_fix3D1Ev
	.cfi_endproc
                                        # -- End function
	.weak	_ZN8T3D_fix3D0Ev        # -- Begin function _ZN8T3D_fix3D0Ev
	.p2align	4, 0x90
	.type	_ZN8T3D_fix3D0Ev,@function
_ZN8T3D_fix3D0Ev:                       # @_ZN8T3D_fix3D0Ev
.Lfunc_begin13:
	.loc	1 0 0                   # backgroundfield/quadr.cpp:0:0
	.cfi_startproc
# %bb.0:                                # %L.entry
	pushq	%rbp
	.cfi_def_cfa_offset 16
	.cfi_offset %rbp, -16
	movq	%rsp, %rbp
	.cfi_def_cfa_register %rbp
.Ltmp309:
	.loc	1 84 1 prologue_end     # backgroundfield/quadr.cpp:84:1
	movl	$24, %esi
	popq	%rbp
	.cfi_def_cfa %rsp, 8
	jmp	_ZdlPvm                 # TAILCALL
.Ltmp310:
.Lfunc_end13:
	.size	_ZN8T3D_fix3D0Ev, .Lfunc_end13-_ZN8T3D_fix3D0Ev
	.cfi_endproc
                                        # -- End function
	.section	.rodata.cst8,"aM",@progbits,8
	.p2align	3               # -- Begin function _ZNK9Tinty_f2D4callEd
.LCPI14_0:
	.quad	4602678819172646912     # double 0.5
.LCPI14_3:
	.quad	4158027847206421152     # double 1.0000000000000001E-30
.LCPI14_4:
	.quad	4598175219545276416     # double 0.25
	.section	.rodata.cst16,"aM",@progbits,16
	.p2align	4
.LCPI14_1:
	.quad	-9223372036854775808    # double -0
	.quad	-9223372036854775808    # double -0
.LCPI14_2:
	.quad	9223372036854775807     # double NaN
	.quad	9223372036854775807     # double NaN
	.text
	.weak	_ZNK9Tinty_f2D4callEd
	.p2align	4, 0x90
	.type	_ZNK9Tinty_f2D4callEd,@function
_ZNK9Tinty_f2D4callEd:                  # @_ZNK9Tinty_f2D4callEd
.Lfunc_begin14:
	.loc	1 226 0                 # backgroundfield/quadr.cpp:226:0
	.cfi_startproc
# %bb.0:                                # %L.entry
	#DEBUG_VALUE: call: <- $rdi
	#DEBUG_VALUE: call: <- $rdi
	#DEBUG_VALUE: call:x <- $xmm0
	#DEBUG_VALUE: call:x <- $xmm0
	pushq	%rbp
	.cfi_def_cfa_offset 16
	.cfi_offset %rbp, -16
	movq	%rsp, %rbp
	.cfi_def_cfa_register %rbp
.Ltmp311:
	pushq	%r15
	pushq	%r14
	pushq	%r13
	pushq	%r12
	pushq	%rbx
	subq	$984, %rsp              # imm = 0x3D8
	.cfi_offset %rbx, -56
	.cfi_offset %r12, -48
	.cfi_offset %r13, -40
	.cfi_offset %r14, -32
	.cfi_offset %r15, -24
.Ltmp312:
	#DEBUG_VALUE:  <- $rdi
	#DEBUG_VALUE: x <- $xmm0
	.loc	1 226 1 prologue_end    # backgroundfield/quadr.cpp:226:1
	movq	8(%rdi), %rax
	.loc	1 40 1                  # backgroundfield/quadr.cpp:40:1
	movq	$_ZTV8T2D_fix1+16, -104(%rbp)
	movq	%rax, -96(%rbp)
	vmovsd	%xmm0, -88(%rbp)
	.loc	1 226 1                 # backgroundfield/quadr.cpp:226:1
	vmovsd	16(%rdi), %xmm0         # xmm0 = mem[0],zero
.Ltmp313:
	vmovsd	24(%rdi), %xmm1         # xmm1 = mem[0],zero
	vmovsd	32(%rdi), %xmm2         # xmm2 = mem[0],zero
	vmovsd	%xmm2, -200(%rbp)       # 8-byte Spill
	movabsq	$4607182418800017408, %rax # imm = 0x3FF0000000000000
	.loc	1 184 1                 # backgroundfield/quadr.cpp:184:1
	movq	%rax, -704(%rbp)
	.loc	1 190 1                 # backgroundfield/quadr.cpp:190:1
	leaq	-624(%rbp), %r15
	leaq	-696(%rbp), %rax
	vmovsd	%xmm0, -152(%rbp)       # 8-byte Spill
	vmovsd	%xmm1, -224(%rbp)       # 8-byte Spill
	.loc	1 0 0 is_stmt 0         # backgroundfield/quadr.cpp:0:0
	vsubsd	%xmm0, %xmm1, %xmm0
	vmovsd	%xmm0, -144(%rbp)       # 8-byte Spill
	vmulsd	.LCPI14_0(%rip), %xmm0, %xmm0
	vmovsd	%xmm0, -216(%rbp)       # 8-byte Spill
	xorl	%r13d, %r13d
	movl	$1, %r14d
	leaq	-104(%rbp), %rdi
.Ltmp314:
                                        # implicit-def: $xmm2
	.loc	1 188 1 is_stmt 1       # backgroundfield/quadr.cpp:188:1
	vxorpd	%xmm9, %xmm9, %xmm9
	.loc	1 0 0 is_stmt 0         # backgroundfield/quadr.cpp:0:0
	xorl	%edx, %edx
	jmp	.LBB14_1
	.p2align	4, 0x90
.LBB14_2:                               # %L.B0400
                                        #   in Loop: Header=BB14_1 Depth=1
	.loc	1 191 1 is_stmt 1       # backgroundfield/quadr.cpp:191:1
	movq	-104(%rbp), %rax
	vmovsd	-224(%rbp), %xmm0       # 8-byte Reload
                                        # xmm0 = mem[0],zero
	movq	%rcx, %r13
	callq	*(%rax)
	vmovsd	%xmm0, -48(%rbp)        # 8-byte Spill
	movq	-104(%rbp), %rax
	leaq	-104(%rbp), %rdi
	vmovsd	-152(%rbp), %xmm0       # 8-byte Reload
                                        # xmm0 = mem[0],zero
	callq	*(%rax)
	vmovapd	-176(%rbp), %xmm2       # 16-byte Reload
	vmovapd	-128(%rbp), %xmm9       # 16-byte Reload
	leaq	-104(%rbp), %rdi
	vaddsd	-48(%rbp), %xmm0, %xmm0 # 8-byte Folded Reload
	vmulsd	-216(%rbp), %xmm0, %xmm0 # 8-byte Folded Reload
	vmovsd	%xmm0, -640(%rbp,%r14,8)
	leaq	-8(%r15), %r8
	vmovsd	-8(%r15), %xmm8         # xmm8 = mem[0],zero
	movl	$1, %edx
.LBB14_3:                               # %L..inline.13280
                                        #   in Loop: Header=BB14_1 Depth=1
	.loc	1 210 1                 # backgroundfield/quadr.cpp:210:1
	movq	(%r8), %rax
	movq	%rax, (%r15)
	vmovsd	.LCPI14_4(%rip), %xmm0  # xmm0 = mem[0],zero
	movq	-240(%rbp), %rax        # 8-byte Reload
	vmulsd	-8(%rax), %xmm0, %xmm0
	vmovsd	%xmm0, (%rax)
	.loc	1 212 1                 # backgroundfield/quadr.cpp:212:1
	incq	%r14
	.loc	1 190 1                 # backgroundfield/quadr.cpp:190:1
	addq	$8, %r15
	addq	$8, %rax
	.loc	1 212 1                 # backgroundfield/quadr.cpp:212:1
	cmpq	$8, %r13
	je	.LBB14_38
.LBB14_1:                               # %L..inline.13253
                                        # =>This Loop Header: Depth=1
                                        #     Child Loop BB14_7 Depth 2
                                        #     Child Loop BB14_17 Depth 2
                                        #     Child Loop BB14_32 Depth 2
	.loc	1 0 1 is_stmt 0         # backgroundfield/quadr.cpp:0:1
	movq	%rax, -240(%rbp)        # 8-byte Spill
	.loc	1 191 1 is_stmt 1       # backgroundfield/quadr.cpp:191:1
	cmpq	$5, %r14
	movl	$5, %r12d
	cmovbq	%r14, %r12
	leaq	1(%r13), %rcx
	cmpl	$5, %ecx
	movl	%ecx, %ebx
	movl	$5, %eax
	cmovgeq	%rax, %rbx
	cmpq	$1, %r14
	vmovapd	%xmm9, -128(%rbp)       # 16-byte Spill
	vmovapd	%xmm2, -176(%rbp)       # 16-byte Spill
	je	.LBB14_2
# %bb.4:                                # %L..inline.13267
                                        #   in Loop: Header=BB14_1 Depth=1
	.loc	1 0 1 is_stmt 0         # backgroundfield/quadr.cpp:0:1
	movq	%r14, -232(%rbp)        # 8-byte Spill
	movq	%rcx, -64(%rbp)         # 8-byte Spill
	movq	%r15, -160(%rbp)        # 8-byte Spill
	.loc	1 191 1                 # backgroundfield/quadr.cpp:191:1
	vcvtsi2sd	%edx, %xmm10, %xmm1
	testl	%edx, %edx
	vmovsd	%xmm1, -56(%rbp)        # 8-byte Spill
	jle	.LBB14_5
# %bb.6:                                # %L.B0403
                                        #   in Loop: Header=BB14_1 Depth=1
	.loc	1 0 1                   # backgroundfield/quadr.cpp:0:1
	vmovsd	-144(%rbp), %xmm0       # 8-byte Reload
                                        # xmm0 = mem[0],zero
	.loc	1 191 1                 # backgroundfield/quadr.cpp:191:1
	vdivsd	%xmm1, %xmm0, %xmm1
	vmovsd	-152(%rbp), %xmm0       # 8-byte Reload
                                        # xmm0 = mem[0],zero
	vmovsd	%xmm1, -72(%rbp)        # 8-byte Spill
	vfmadd231sd	.LCPI14_0(%rip), %xmm1, %xmm0 # xmm0 = (xmm1 * mem) + xmm0
	vxorpd	%xmm1, %xmm1, %xmm1
	movl	%edx, %r14d
	movl	%edx, %r15d
	.p2align	4, 0x90
.LBB14_7:                               # %L..inline.13277
                                        #   Parent Loop BB14_1 Depth=1
                                        # =>  This Inner Loop Header: Depth=2
	.loc	1 0 1                   # backgroundfield/quadr.cpp:0:1
	vmovsd	%xmm0, -80(%rbp)        # 8-byte Spill
	vmovsd	%xmm1, -48(%rbp)        # 8-byte Spill
	.loc	1 191 1                 # backgroundfield/quadr.cpp:191:1
	movq	-104(%rbp), %rax
	callq	*(%rax)
	leaq	-104(%rbp), %rdi
	vmovsd	-48(%rbp), %xmm1        # 8-byte Reload
                                        # xmm1 = mem[0],zero
	vaddsd	%xmm0, %xmm1, %xmm1
	vmovsd	%xmm1, -48(%rbp)        # 8-byte Spill
	vmovsd	-80(%rbp), %xmm0        # 8-byte Reload
                                        # xmm0 = mem[0],zero
	vmovsd	-48(%rbp), %xmm1        # 8-byte Reload
                                        # xmm1 = mem[0],zero
	vaddsd	-72(%rbp), %xmm0, %xmm0 # 8-byte Folded Reload
	decl	%r15d
	jg	.LBB14_7
	jmp	.LBB14_8
.LBB14_5:                               #   in Loop: Header=BB14_1 Depth=1
	.loc	1 0 1                   # backgroundfield/quadr.cpp:0:1
	movl	%edx, %r14d
	vxorpd	%xmm1, %xmm1, %xmm1
.LBB14_8:                               # %L..inline.13269
                                        #   in Loop: Header=BB14_1 Depth=1
	.loc	1 191 1                 # backgroundfield/quadr.cpp:191:1
	vmulsd	-144(%rbp), %xmm1, %xmm0 # 8-byte Folded Reload
	vdivsd	-56(%rbp), %xmm0, %xmm0 # 8-byte Folded Reload
	movq	-232(%rbp), %rax        # 8-byte Reload
	vaddsd	-640(%rbp,%rax,8), %xmm0, %xmm0
	vmulsd	.LCPI14_0(%rip), %xmm0, %xmm0
	vmovsd	%xmm0, -640(%rbp,%rax,8)
	movl	%r14d, %edx
	movq	%rax, %r14
	addl	%edx, %edx
	movq	-160(%rbp), %r15        # 8-byte Reload
	leaq	-8(%r15), %r8
	vmovsd	-8(%r15), %xmm8         # xmm8 = mem[0],zero
	.loc	1 192 1 is_stmt 1       # backgroundfield/quadr.cpp:192:1
	cmpq	$2, %rax
	jae	.LBB14_10
# %bb.9:                                #   in Loop: Header=BB14_1 Depth=1
	.loc	1 0 1 is_stmt 0         # backgroundfield/quadr.cpp:0:1
	movq	-64(%rbp), %r13         # 8-byte Reload
	vmovapd	-128(%rbp), %xmm9       # 16-byte Reload
	vmovapd	-176(%rbp), %xmm2       # 16-byte Reload
	jmp	.LBB14_3
	.p2align	4, 0x90
.LBB14_10:                              # %L.B0405
                                        #   in Loop: Header=BB14_1 Depth=1
	.loc	1 194 1 is_stmt 1       # backgroundfield/quadr.cpp:194:1
	cmpq	$5, %r14
	movl	$5, %esi
	cmovbq	%r14, %rsi
	.loc	1 197 1                 # backgroundfield/quadr.cpp:197:1
	movl	%r14d, %eax
	subl	%esi, %eax
	cltq
	leaq	-632(,%rax,8), %rcx
	addq	%rbp, %rcx
	.loc	1 198 1                 # backgroundfield/quadr.cpp:198:1
	testl	%esi, %esi
	je	.LBB14_11
# %bb.12:                               # %L.B0406
                                        #   in Loop: Header=BB14_1 Depth=1
	.loc	1 0 1 is_stmt 0         # backgroundfield/quadr.cpp:0:1
	movq	%r8, -136(%rbp)         # 8-byte Spill
	vmovsd	%xmm8, -112(%rbp)       # 8-byte Spill
	movl	%edx, -56(%rbp)         # 4-byte Spill
	movl	%r14d, %edx
	subl	%r12d, %edx
	movl	%edx, -48(%rbp)         # 4-byte Spill
	leaq	-624(,%r13,8), %r13
	addq	%rbp, %r13
	shlq	$3, %rbx
	subq	%rbx, %r13
	leaq	-704(,%rax,8), %rax
	addq	%rbp, %rax
	movq	%rax, -208(%rbp)        # 8-byte Spill
	.loc	1 198 1                 # backgroundfield/quadr.cpp:198:1
	vmovsd	(%rax), %xmm0           # xmm0 = mem[0],zero
	vmovapd	%xmm0, -192(%rbp)       # 16-byte Spill
	leaq	-1024(%rbp), %rdi
	movq	%rsi, -72(%rbp)         # 8-byte Spill
	movq	%r13, %rsi
	movq	%rbx, %rdx
	movq	%rcx, -80(%rbp)         # 8-byte Spill
	callq	memcpy
	leaq	-864(%rbp), %rdi
	movq	%r13, %rsi
	movq	%rbx, %rdx
	callq	memcpy
	movq	-72(%rbp), %rsi         # 8-byte Reload
	movq	-80(%rbp), %rcx         # 8-byte Reload
	movq	-208(%rbp), %r10        # 8-byte Reload
	xorl	%edx, %edx
	cmpq	$2, %rsi
	vmovapd	.LCPI14_2(%rip), %xmm6  # xmm6 = [NaN,NaN]
	jb	.LBB14_14
# %bb.13:                               # %L.B0394.L.B0394_crit_edge.lr.ph
                                        #   in Loop: Header=BB14_1 Depth=1
	.loc	1 0 1                   # backgroundfield/quadr.cpp:0:1
	vmovapd	-192(%rbp), %xmm0       # 16-byte Reload
	.loc	1 198 1                 # backgroundfield/quadr.cpp:198:1
	vxorpd	.LCPI14_1(%rip), %xmm0, %xmm0
	vmovddup	%xmm0, %xmm0    # xmm0 = xmm0[0,0]
	vandpd	%xmm6, %xmm0, %xmm0
	vpermilpd	$1, %xmm0, %xmm1 # xmm1 = xmm0[1,0]
	vminsd	%xmm1, %xmm0, %xmm0
	vmovsd	8(%r10), %xmm1          # xmm1 = mem[0],zero
	vandpd	%xmm6, %xmm1, %xmm1
	xorl	%edx, %edx
	vucomisd	%xmm1, %xmm0
	seta	%dl
	cmpq	$2, %rsi
	jbe	.LBB14_14
# %bb.39:                               # %L.B0394.L.B0394_crit_edge.1
                                        #   in Loop: Header=BB14_1 Depth=1
	vminsd	%xmm0, %xmm1, %xmm0
	vmovsd	16(%r10), %xmm1         # xmm1 = mem[0],zero
	vandpd	%xmm6, %xmm1, %xmm1
	vucomisd	%xmm1, %xmm0
	movl	$2, %eax
	cmoval	%eax, %edx
	cmpq	$3, %rsi
	je	.LBB14_14
# %bb.40:                               # %L.B0394.L.B0394_crit_edge.2
                                        #   in Loop: Header=BB14_1 Depth=1
	vminsd	%xmm0, %xmm1, %xmm0
	vmovsd	24(%r10), %xmm1         # xmm1 = mem[0],zero
	vandpd	%xmm6, %xmm1, %xmm1
	vucomisd	%xmm1, %xmm0
	movl	$3, %eax
	cmoval	%eax, %edx
	cmpq	$5, %rsi
	jb	.LBB14_14
# %bb.41:                               # %L.B0394.L.B0394_crit_edge.3
                                        #   in Loop: Header=BB14_1 Depth=1
	vminsd	%xmm0, %xmm1, %xmm0
	vmovsd	32(%r10), %xmm1         # xmm1 = mem[0],zero
	vandpd	%xmm6, %xmm1, %xmm1
	vucomisd	%xmm1, %xmm0
	movl	$4, %eax
	cmoval	%eax, %edx
.LBB14_14:                              # %L.B0395
                                        #   in Loop: Header=BB14_1 Depth=1
	.loc	1 0 0                   # backgroundfield/quadr.cpp:0:0
	movslq	-48(%rbp), %rdi         # 4-byte Folded Reload
	.loc	1 197 1 is_stmt 1       # backgroundfield/quadr.cpp:197:1
	movl	%edx, %eax
	vmovsd	(%rcx,%rax,8), %xmm0    # xmm0 = mem[0],zero
	.loc	1 198 1                 # backgroundfield/quadr.cpp:198:1
	cmpl	$2, %esi
	setb	%al
	vxorpd	%xmm8, %xmm8, %xmm8
	jae	.LBB14_16
# %bb.15:                               #   in Loop: Header=BB14_1 Depth=1
	.loc	1 0 1 is_stmt 0         # backgroundfield/quadr.cpp:0:1
	movb	$1, %r9b
	vmovapd	-128(%rbp), %xmm9       # 16-byte Reload
	movq	-136(%rbp), %r8         # 8-byte Reload
	jmp	.LBB14_21
.LBB14_11:                              # %L.B0397.thread
                                        #   in Loop: Header=BB14_1 Depth=1
	.loc	1 197 1 is_stmt 1       # backgroundfield/quadr.cpp:197:1
	vmovsd	(%rcx), %xmm0           # xmm0 = mem[0],zero
	.loc	1 198 1                 # backgroundfield/quadr.cpp:198:1
	vmovapd	%xmm0, %xmm1
	movq	-64(%rbp), %r13         # 8-byte Reload
	vmovapd	-128(%rbp), %xmm9       # 16-byte Reload
	vmovapd	-176(%rbp), %xmm6       # 16-byte Reload
	jmp	.LBB14_36
.LBB14_16:                              # %L.B0408
                                        #   in Loop: Header=BB14_1 Depth=1
	.loc	1 0 1 is_stmt 0         # backgroundfield/quadr.cpp:0:1
	movb	%al, -192(%rbp)         # 1-byte Spill
	leaq	-696(%rbp), %rax
	movq	%rdi, -128(%rbp)        # 8-byte Spill
	leaq	(%rax,%rdi,8), %rax
	movq	%rax, -48(%rbp)         # 8-byte Spill
	leaq	-1(%rsi), %r11
	.loc	1 197 1 is_stmt 1       # backgroundfield/quadr.cpp:197:1
	decl	%edx
	.loc	1 0 0 is_stmt 0         # backgroundfield/quadr.cpp:0:0
	vmovsd	-832(%rbp), %xmm1       # xmm1 = mem[0],zero
	.loc	1 198 1 is_stmt 1       # backgroundfield/quadr.cpp:198:1
	movq	%r12, %r13
	movabsq	$4294967296, %rax       # imm = 0x100000000
	movabsq	$8589934592, %r9        # imm = 0x200000000
	movabsq	$12884901888, %r15      # imm = 0x300000000
	xorl	%edi, %edi
	jmp	.LBB14_17
	.p2align	4, 0x90
.LBB14_19:                              # %L.B0399
                                        #   in Loop: Header=BB14_17 Depth=2
	leal	(%rdx,%rdx), %ebx
	addl	$2, %ebx
	xorl	%esi, %esi
	cmpl	%r13d, %ebx
	setge	%sil
	movslq	%edx, %rdx
	leaq	-1024(%rbp,%rdx,8), %rbx
	leaq	-856(%rbp), %rcx
	leaq	(%rcx,%rdx,8), %r8
	cmovgeq	%rbx, %r8
	subl	%esi, %edx
	vmovsd	(%r8), %xmm9            # xmm9 = mem[0],zero
	vaddsd	%xmm9, %xmm0, %xmm0
	incq	%rdi
	movabsq	$4294967296, %rsi       # imm = 0x100000000
	addq	%rsi, %r15
	addq	%rsi, %r9
	addq	%rsi, %rax
	cmpq	%r11, %rdi
	jae	.LBB14_20
.LBB14_17:                              # %L.B0396
                                        #   Parent Loop BB14_1 Depth=1
                                        # =>  This Inner Loop Header: Depth=2
	movq	%r13, %rbx
	decq	%r13
	cmpl	$2, %ebx
	jl	.LBB14_19
# %bb.18:                               # %L.B0398
                                        #   in Loop: Header=BB14_17 Depth=2
	vmovsd	(%r10), %xmm2           # xmm2 = mem[0],zero
	vmovsd	-856(%rbp), %xmm3       # xmm3 = mem[0],zero
	vsubsd	-1024(%rbp), %xmm3, %xmm3
	movq	-48(%rbp), %rcx         # 8-byte Reload
	vmovsd	(%rcx,%rdi,8), %xmm4    # xmm4 = mem[0],zero
	vsubsd	%xmm4, %xmm2, %xmm5
	vdivsd	%xmm5, %xmm3, %xmm3
	vmulsd	%xmm3, %xmm4, %xmm4
	vmovsd	%xmm4, -1024(%rbp)
	vmulsd	%xmm3, %xmm2, %xmm2
	vmovsd	%xmm2, -864(%rbp)
	cmpq	$1, %r13
	jle	.LBB14_19
# %bb.42:                               # %L.B0398.1
                                        #   in Loop: Header=BB14_17 Depth=2
	vmovsd	-848(%rbp), %xmm2       # xmm2 = mem[0],zero
	vsubsd	-1016(%rbp), %xmm2, %xmm2
	movq	%r10, %rcx
	vmovsd	8(%r10), %xmm3          # xmm3 = mem[0],zero
	movq	%rax, %rsi
	sarq	$29, %rsi
	vmovsd	8(%r10,%rsi), %xmm4     # xmm4 = mem[0],zero
	vsubsd	%xmm4, %xmm3, %xmm5
	vdivsd	%xmm5, %xmm2, %xmm2
	vmulsd	%xmm2, %xmm4, %xmm4
	vmovsd	%xmm4, -1016(%rbp)
	vmulsd	%xmm2, %xmm3, %xmm2
	vmovsd	%xmm2, -856(%rbp)
	cmpq	$3, %rbx
	je	.LBB14_19
# %bb.43:                               # %L.B0398.2
                                        #   in Loop: Header=BB14_17 Depth=2
	vmovsd	-840(%rbp), %xmm2       # xmm2 = mem[0],zero
	vsubsd	-1008(%rbp), %xmm2, %xmm2
	movq	%r10, %rcx
	vmovsd	16(%r10), %xmm3         # xmm3 = mem[0],zero
	movq	%r9, %rsi
	sarq	$29, %rsi
	vmovsd	8(%r10,%rsi), %xmm4     # xmm4 = mem[0],zero
	vsubsd	%xmm4, %xmm3, %xmm5
	vdivsd	%xmm5, %xmm2, %xmm2
	vmulsd	%xmm2, %xmm4, %xmm4
	vmovsd	%xmm4, -1008(%rbp)
	vmulsd	%xmm2, %xmm3, %xmm2
	vmovsd	%xmm2, -848(%rbp)
	cmpq	$4, %r13
	jl	.LBB14_19
# %bb.44:                               # %L.B0398.3
                                        #   in Loop: Header=BB14_17 Depth=2
	.loc	1 0 1 is_stmt 0         # backgroundfield/quadr.cpp:0:1
	movq	%r10, %rcx
	.loc	1 198 1                 # backgroundfield/quadr.cpp:198:1
	vmovsd	24(%r10), %xmm2         # xmm2 = mem[0],zero
	vsubsd	-1000(%rbp), %xmm1, %xmm3
	movq	%r15, %rsi
	sarq	$29, %rsi
	vmovsd	8(%r10,%rsi), %xmm4     # xmm4 = mem[0],zero
	vsubsd	%xmm4, %xmm2, %xmm5
	vdivsd	%xmm5, %xmm3, %xmm3
	vmulsd	%xmm3, %xmm4, %xmm4
	vmovsd	%xmm4, -1000(%rbp)
	vmulsd	%xmm3, %xmm2, %xmm2
	vmovsd	%xmm2, -840(%rbp)
	jmp	.LBB14_19
.LBB14_20:                              #   in Loop: Header=BB14_1 Depth=1
	.loc	1 0 1                   # backgroundfield/quadr.cpp:0:1
	movq	-160(%rbp), %r15        # 8-byte Reload
	movq	-136(%rbp), %r8         # 8-byte Reload
	movq	-80(%rbp), %rcx         # 8-byte Reload
	movq	-72(%rbp), %rsi         # 8-byte Reload
	movq	-128(%rbp), %rdi        # 8-byte Reload
	movb	-192(%rbp), %r9b        # 1-byte Reload
.LBB14_21:                              # %L.B0397
                                        #   in Loop: Header=BB14_1 Depth=1
	xorl	%edx, %edx
	.loc	1 198 1                 # backgroundfield/quadr.cpp:198:1
	testl	%esi, %esi
	je	.LBB14_29
# %bb.22:                               # %L.B0411
                                        #   in Loop: Header=BB14_1 Depth=1
	vmovsd	(%r10), %xmm1           # xmm1 = mem[0],zero
	vucomisd	%xmm8, %xmm1
	jne	.LBB14_25
	jnp	.LBB14_23
.LBB14_25:                              # %L..inline.13341.lr.ph
                                        #   in Loop: Header=BB14_1 Depth=1
	movq	(%rcx), %rax
	movq	%rax, -560(%rbp)
	vmovq	%rax, %xmm2
	vaddsd	.LCPI14_3(%rip), %xmm2, %xmm2
	vmovsd	%xmm2, -400(%rbp)
	cmpq	$1, %rsi
	jbe	.LBB14_29
# %bb.26:                               # %L..inline.13341.L..inline.13338_crit_edge
                                        #   in Loop: Header=BB14_1 Depth=1
	vmovsd	8(%r10), %xmm2          # xmm2 = mem[0],zero
	vucomisd	%xmm8, %xmm2
	jne	.LBB14_45
	jnp	.LBB14_27
.LBB14_45:                              # %L..inline.13341.1
                                        #   in Loop: Header=BB14_1 Depth=1
	vandpd	%xmm6, %xmm1, %xmm1
	vminsd	%xmm1, %xmm1, %xmm1
	vandpd	%xmm6, %xmm2, %xmm2
	xorl	%edx, %edx
	vucomisd	%xmm2, %xmm1
	seta	%dl
	movq	8(%rcx), %rax
	movq	%rax, -552(%rbp)
	vmovq	%rax, %xmm3
	vaddsd	.LCPI14_3(%rip), %xmm3, %xmm3
	vmovsd	%xmm3, -392(%rbp)
	cmpq	$3, %rsi
	jb	.LBB14_29
# %bb.46:                               # %L..inline.13341.L..inline.13338_crit_edge.1
                                        #   in Loop: Header=BB14_1 Depth=1
	vmovsd	16(%r10), %xmm3         # xmm3 = mem[0],zero
	vucomisd	%xmm8, %xmm3
	jne	.LBB14_48
	jnp	.LBB14_47
.LBB14_48:                              # %L..inline.13341.2
                                        #   in Loop: Header=BB14_1 Depth=1
	vminsd	%xmm1, %xmm2, %xmm1
	vandpd	%xmm6, %xmm3, %xmm2
	vucomisd	%xmm2, %xmm1
	movl	$2, %eax
	cmoval	%eax, %edx
	movq	16(%rcx), %rax
	movq	%rax, -544(%rbp)
	vmovq	%rax, %xmm3
	vaddsd	.LCPI14_3(%rip), %xmm3, %xmm3
	vmovsd	%xmm3, -384(%rbp)
	cmpq	$4, %rsi
	jb	.LBB14_29
# %bb.49:                               # %L..inline.13341.L..inline.13338_crit_edge.2
                                        #   in Loop: Header=BB14_1 Depth=1
	vmovsd	24(%r10), %xmm3         # xmm3 = mem[0],zero
	vucomisd	%xmm8, %xmm3
	jne	.LBB14_51
	jnp	.LBB14_50
.LBB14_51:                              # %L..inline.13341.3
                                        #   in Loop: Header=BB14_1 Depth=1
	vminsd	%xmm1, %xmm2, %xmm1
	vandpd	%xmm6, %xmm3, %xmm2
	vucomisd	%xmm2, %xmm1
	movl	$3, %eax
	cmoval	%eax, %edx
	movq	24(%rcx), %rax
	movq	%rax, -536(%rbp)
	vmovq	%rax, %xmm3
	vaddsd	.LCPI14_3(%rip), %xmm3, %xmm3
	vmovsd	%xmm3, -376(%rbp)
	cmpq	$5, %rsi
	jb	.LBB14_29
# %bb.52:                               # %L..inline.13341.L..inline.13338_crit_edge.3
                                        #   in Loop: Header=BB14_1 Depth=1
	vmovsd	32(%r10), %xmm3         # xmm3 = mem[0],zero
	vucomisd	%xmm8, %xmm3
	jne	.LBB14_28
	jnp	.LBB14_53
.LBB14_28:                              # %L..inline.13341.4
                                        #   in Loop: Header=BB14_1 Depth=1
	vandpd	%xmm6, %xmm3, %xmm3
	vminsd	%xmm1, %xmm2, %xmm1
	vucomisd	%xmm3, %xmm1
	movl	$4, %eax
	cmoval	%eax, %edx
	movq	32(%rcx), %rax
	movq	%rax, -528(%rbp)
	vmovq	%rax, %xmm1
	vaddsd	.LCPI14_3(%rip), %xmm1, %xmm1
	vmovsd	%xmm1, -368(%rbp)
.LBB14_29:                              # %L..inline.13339
                                        #   in Loop: Header=BB14_1 Depth=1
	movl	%edx, %eax
	vmovsd	(%rcx,%rax,8), %xmm1    # xmm1 = mem[0],zero
	testb	%r9b, %r9b
	je	.LBB14_31
# %bb.30:                               #   in Loop: Header=BB14_1 Depth=1
	.loc	1 0 1                   # backgroundfield/quadr.cpp:0:1
	movq	-64(%rbp), %r13         # 8-byte Reload
	leaq	-104(%rbp), %rdi
	movl	-56(%rbp), %edx         # 4-byte Reload
	vmovsd	-112(%rbp), %xmm8       # 8-byte Reload
                                        # xmm8 = mem[0],zero
	vmovapd	-176(%rbp), %xmm6       # 16-byte Reload
	jmp	.LBB14_36
.LBB14_31:                              # %L.B0414
                                        #   in Loop: Header=BB14_1 Depth=1
	leaq	-696(%rbp), %rax
	leaq	(%rax,%rdi,8), %rax
	addq	$24, %rax
	decq	%r12
	.loc	1 198 1                 # backgroundfield/quadr.cpp:198:1
	decl	%edx
	.loc	1 0 0                   # backgroundfield/quadr.cpp:0:0
	vmovsd	(%r10), %xmm2           # xmm2 = mem[0],zero
	vmovsd	-528(%rbp), %xmm3       # xmm3 = mem[0],zero
	jmp	.LBB14_32
.LBB14_59:                              # %L..inline.13357.3
                                        #   in Loop: Header=BB14_32 Depth=2
	.loc	1 198 1                 # backgroundfield/quadr.cpp:198:1
	vsubsd	%xmm5, %xmm3, %xmm5
	vdivsd	%xmm6, %xmm5, %xmm5
	vmulsd	%xmm5, %xmm3, %xmm6
	vmovsd	%xmm6, -376(%rbp)
	vmulsd	%xmm5, %xmm4, %xmm4
	vmovsd	%xmm4, -536(%rbp)
	.p2align	4, 0x90
.LBB14_34:                              # %L..inline.13353
                                        #   in Loop: Header=BB14_32 Depth=2
	leal	(%rdx,%rdx), %ecx
	addl	$2, %ecx
	movslq	%ecx, %rcx
	xorl	%esi, %esi
	cmpq	%rcx, %r12
	setle	%sil
	movslq	%edx, %rdx
	leaq	-400(%rbp,%rdx,8), %rcx
	leaq	-552(%rbp), %rdi
	leaq	(%rdi,%rdx,8), %rdi
	cmovleq	%rcx, %rdi
	subl	%esi, %edx
	vmovsd	(%rdi), %xmm6           # xmm6 = mem[0],zero
	vaddsd	%xmm6, %xmm1, %xmm1
	addq	$8, %rax
	decq	%r12
	testl	%r12d, %r12d
	jle	.LBB14_35
.LBB14_32:                              # %L..inline.13352.preheader
                                        #   Parent Loop BB14_1 Depth=1
                                        # =>  This Inner Loop Header: Depth=2
	vmovsd	-552(%rbp), %xmm4       # xmm4 = mem[0],zero
	vmovsd	-400(%rbp), %xmm6       # xmm6 = mem[0],zero
	vmulsd	%xmm2, %xmm6, %xmm5
	vdivsd	-24(%rax), %xmm5, %xmm5
	vsubsd	%xmm4, %xmm5, %xmm7
	vucomisd	%xmm8, %xmm7
	jne	.LBB14_33
	jnp	.LBB14_60
.LBB14_33:                              # %L..inline.13357
                                        #   in Loop: Header=BB14_32 Depth=2
	vsubsd	%xmm6, %xmm4, %xmm6
	vdivsd	%xmm7, %xmm6, %xmm6
	vmulsd	%xmm6, %xmm4, %xmm4
	vmovsd	%xmm4, -400(%rbp)
	vmulsd	%xmm6, %xmm5, %xmm4
	vmovsd	%xmm4, -560(%rbp)
	cmpq	$1, %r12
	jle	.LBB14_34
# %bb.54:                               # %L..inline.13352.1
                                        #   in Loop: Header=BB14_32 Depth=2
	vmovsd	-544(%rbp), %xmm4       # xmm4 = mem[0],zero
	vmovsd	-392(%rbp), %xmm6       # xmm6 = mem[0],zero
	vmulsd	8(%r10), %xmm6, %xmm5
	vdivsd	-16(%rax), %xmm5, %xmm5
	vsubsd	%xmm4, %xmm5, %xmm7
	vucomisd	%xmm8, %xmm7
	jne	.LBB14_55
	jnp	.LBB14_60
.LBB14_55:                              # %L..inline.13357.1
                                        #   in Loop: Header=BB14_32 Depth=2
	vsubsd	%xmm6, %xmm4, %xmm6
	vdivsd	%xmm7, %xmm6, %xmm6
	vmulsd	%xmm6, %xmm4, %xmm4
	vmovsd	%xmm4, -392(%rbp)
	vmulsd	%xmm6, %xmm5, %xmm4
	vmovsd	%xmm4, -552(%rbp)
	cmpq	$3, %r12
	jl	.LBB14_34
# %bb.56:                               # %L..inline.13352.2
                                        #   in Loop: Header=BB14_32 Depth=2
	vmovsd	-536(%rbp), %xmm4       # xmm4 = mem[0],zero
	vmovsd	-384(%rbp), %xmm6       # xmm6 = mem[0],zero
	vmulsd	16(%r10), %xmm6, %xmm5
	vdivsd	-8(%rax), %xmm5, %xmm5
	vsubsd	%xmm4, %xmm5, %xmm7
	vucomisd	%xmm8, %xmm7
	jne	.LBB14_57
	jnp	.LBB14_60
.LBB14_57:                              # %L..inline.13357.2
                                        #   in Loop: Header=BB14_32 Depth=2
	vsubsd	%xmm6, %xmm4, %xmm6
	vdivsd	%xmm7, %xmm6, %xmm6
	vmulsd	%xmm6, %xmm4, %xmm4
	vmovsd	%xmm4, -384(%rbp)
	vmulsd	%xmm6, %xmm5, %xmm4
	vmovsd	%xmm4, -544(%rbp)
	cmpq	$4, %r12
	jl	.LBB14_34
# %bb.58:                               # %L..inline.13352.3
                                        #   in Loop: Header=BB14_32 Depth=2
	vmovsd	-376(%rbp), %xmm5       # xmm5 = mem[0],zero
	vmulsd	24(%r10), %xmm5, %xmm4
	vdivsd	(%rax), %xmm4, %xmm4
	vsubsd	%xmm3, %xmm4, %xmm6
	vucomisd	%xmm8, %xmm6
	jne	.LBB14_59
	jp	.LBB14_59
	jmp	.LBB14_60
.LBB14_23:                              #   in Loop: Header=BB14_1 Depth=1
	xorl	%eax, %eax
	jmp	.LBB14_24
.LBB14_27:                              #   in Loop: Header=BB14_1 Depth=1
	.loc	1 0 1                   # backgroundfield/quadr.cpp:0:1
	movl	$1, %eax
	jmp	.LBB14_24
.LBB14_47:                              #   in Loop: Header=BB14_1 Depth=1
	movl	$2, %eax
	jmp	.LBB14_24
.LBB14_50:                              #   in Loop: Header=BB14_1 Depth=1
	movl	$3, %eax
	jmp	.LBB14_24
.LBB14_53:                              #   in Loop: Header=BB14_1 Depth=1
	movl	$4, %eax
.LBB14_24:                              # %L.B0412
                                        #   in Loop: Header=BB14_1 Depth=1
	.loc	1 198 1                 # backgroundfield/quadr.cpp:198:1
	vmovsd	(%rcx,%rax,8), %xmm1    # xmm1 = mem[0],zero
	vxorpd	%xmm6, %xmm6, %xmm6
.LBB14_35:                              #   in Loop: Header=BB14_1 Depth=1
	.loc	1 0 1                   # backgroundfield/quadr.cpp:0:1
	movq	-64(%rbp), %r13         # 8-byte Reload
	leaq	-104(%rbp), %rdi
	movl	-56(%rbp), %edx         # 4-byte Reload
	vmovsd	-112(%rbp), %xmm8       # 8-byte Reload
                                        # xmm8 = mem[0],zero
.LBB14_36:                              # %L..inline.13344
                                        #   in Loop: Header=BB14_1 Depth=1
	vmovapd	.LCPI14_2(%rip), %xmm5  # xmm5 = [NaN,NaN]
	.loc	1 198 1                 # backgroundfield/quadr.cpp:198:1
	vandpd	%xmm5, %xmm9, %xmm9
	.loc	1 199 1 is_stmt 1       # backgroundfield/quadr.cpp:199:1
	vandpd	%xmm5, %xmm6, %xmm2
	.loc	1 200 1                 # backgroundfield/quadr.cpp:200:1
	vmaxsd	%xmm9, %xmm2, %xmm3
	vcmpunordsd	%xmm9, %xmm9, %xmm4
	vblendvpd	%xmm4, %xmm2, %xmm3, %xmm3
	vcmpunordsd	%xmm6, %xmm6, %xmm4
	vblendvpd	%xmm4, %xmm9, %xmm3, %xmm3
	.loc	1 201 1                 # backgroundfield/quadr.cpp:201:1
	vsubsd	%xmm1, %xmm0, %xmm4
	vandpd	%xmm5, %xmm4, %xmm5
	.loc	1 202 1                 # backgroundfield/quadr.cpp:202:1
	vcmpunordsd	%xmm3, %xmm3, %xmm6
	vmaxsd	%xmm3, %xmm5, %xmm7
	vblendvpd	%xmm6, %xmm5, %xmm7, %xmm5
	vcmpunordsd	%xmm4, %xmm4, %xmm4
	vblendvpd	%xmm4, %xmm3, %xmm5, %xmm3
	vmovsd	-200(%rbp), %xmm4       # 8-byte Reload
                                        # xmm4 = mem[0],zero
	.loc	1 204 1                 # backgroundfield/quadr.cpp:204:1
	vucomisd	%xmm3, %xmm4
	jbe	.LBB14_3
# %bb.37:                               # %L.B0421
	vaddsd	%xmm1, %xmm0, %xmm0
	vmulsd	.LCPI14_0(%rip), %xmm0, %xmm8
.LBB14_38:                              # %L..inline.13403
	.loc	1 226 1                 # backgroundfield/quadr.cpp:226:1
	vmovapd	%xmm8, %xmm0
	addq	$984, %rsp              # imm = 0x3D8
	popq	%rbx
	popq	%r12
	popq	%r13
	popq	%r14
	popq	%r15
	popq	%rbp
	.cfi_def_cfa %rsp, 8
	retq
.LBB14_60:                              # %L..inline.13362
	.cfi_def_cfa %rbp, 16
	.loc	1 198 1                 # backgroundfield/quadr.cpp:198:1
	movl	$_ZSt4cerr, %edi
	movl	$.S08003, %esi
	movl	$20, %edx
	callq	_ZSt16__ostream_insertIcSt11char_traitsIcEERSt13basic_ostreamIT_T0_ES6_PKS3_l
	movl	$111, %edi
	callq	exit
.Ltmp315:
.Lfunc_end14:
	.size	_ZNK9Tinty_f2D4callEd, .Lfunc_end14-_ZNK9Tinty_f2D4callEd
	.cfi_endproc
                                        # -- End function
	.weak	_ZN9Tinty_f2DD1Ev       # -- Begin function _ZN9Tinty_f2DD1Ev
	.p2align	4, 0x90
	.type	_ZN9Tinty_f2DD1Ev,@function
_ZN9Tinty_f2DD1Ev:                      # @_ZN9Tinty_f2DD1Ev
.Lfunc_begin15:
	.loc	1 0 0                   # backgroundfield/quadr.cpp:0:0
	.cfi_startproc
# %bb.0:                                # %L.entry
	#DEBUG_VALUE: ~Tinty_f2D: <- $rdi
	#DEBUG_VALUE: ~Tinty_f2D: <- $rdi
	pushq	%rbp
	.cfi_def_cfa_offset 16
	.cfi_offset %rbp, -16
	movq	%rsp, %rbp
	.cfi_def_cfa_register %rbp
.Ltmp316:
	#DEBUG_VALUE:  <- $rdi
	#DEBUG_VALUE:  <- $rdi
	.loc	1 198 1 prologue_end    # backgroundfield/quadr.cpp:198:1
	movq	$_ZTV11T1DFunction+16, (%rdi)
	.loc	1 29 1                  # backgroundfield/quadr.cpp:29:1
	popq	%rbp
	.cfi_def_cfa %rsp, 8
	retq
.Ltmp317:
.Lfunc_end15:
	.size	_ZN9Tinty_f2DD1Ev, .Lfunc_end15-_ZN9Tinty_f2DD1Ev
	.cfi_endproc
                                        # -- End function
	.weak	_ZN9Tinty_f2DD0Ev       # -- Begin function _ZN9Tinty_f2DD0Ev
	.p2align	4, 0x90
	.type	_ZN9Tinty_f2DD0Ev,@function
_ZN9Tinty_f2DD0Ev:                      # @_ZN9Tinty_f2DD0Ev
.Lfunc_begin16:
	.loc	1 0 0                   # backgroundfield/quadr.cpp:0:0
	.cfi_startproc
# %bb.0:                                # %L.entry
	pushq	%rbp
	.cfi_def_cfa_offset 16
	.cfi_offset %rbp, -16
	movq	%rsp, %rbp
	.cfi_def_cfa_register %rbp
.Ltmp318:
	.loc	1 29 1 prologue_end     # backgroundfield/quadr.cpp:29:1
	movl	$40, %esi
	popq	%rbp
	.cfi_def_cfa %rsp, 8
	jmp	_ZdlPvm                 # TAILCALL
.Ltmp319:
.Lfunc_end16:
	.size	_ZN9Tinty_f2DD0Ev, .Lfunc_end16-_ZN9Tinty_f2DD0Ev
	.cfi_endproc
                                        # -- End function
	.weak	_ZNK10Tintxy_f3D4callEd # -- Begin function _ZNK10Tintxy_f3D4callEd
	.p2align	4, 0x90
	.type	_ZNK10Tintxy_f3D4callEd,@function
_ZNK10Tintxy_f3D4callEd:                # @_ZNK10Tintxy_f3D4callEd
.Lfunc_begin17:
	.loc	1 244 0                 # backgroundfield/quadr.cpp:244:0
	.cfi_startproc
# %bb.0:                                # %L.entry
	#DEBUG_VALUE: call: <- $rdi
	#DEBUG_VALUE: call: <- $rdi
	#DEBUG_VALUE: call:z <- $xmm0
	#DEBUG_VALUE: call:z <- $xmm0
	pushq	%rbp
	.cfi_def_cfa_offset 16
	.cfi_offset %rbp, -16
	movq	%rsp, %rbp
	.cfi_def_cfa_register %rbp
	subq	$32, %rsp
.Ltmp320:
	#DEBUG_VALUE:  <- $rdi
	#DEBUG_VALUE: z <- $xmm0
	.loc	1 244 1 prologue_end    # backgroundfield/quadr.cpp:244:1
	movq	8(%rdi), %rax
	.loc	1 82 1                  # backgroundfield/quadr.cpp:82:1
	movq	$_ZTV8T3D_fix3+16, -24(%rbp)
	movq	%rax, -16(%rbp)
	vmovsd	%xmm0, -8(%rbp)
	.loc	1 244 1                 # backgroundfield/quadr.cpp:244:1
	vmovsd	16(%rdi), %xmm0         # xmm0 = mem[0],zero
.Ltmp321:
	vmovsd	24(%rdi), %xmm1         # xmm1 = mem[0],zero
	vmovsd	32(%rdi), %xmm2         # xmm2 = mem[0],zero
